; Listing generated by Microsoft (R) Optimizing Compiler Version 19.00.23506.0 

	TITLE	C:\Users\Michel\Desktop\Source\GameServer\Source\ArcaBattle.cpp
	.686P
	.XMM
	include listing.inc
	.model	flat

INCLUDELIB LIBCMT
INCLUDELIB OLDNAMES

PUBLIC	?g_bIsArcaBattleServer@@3_NA			; g_bIsArcaBattleServer
_BSS	SEGMENT
?g_bIsArcaBattleServer@@3_NA DB 01H DUP (?)		; g_bIsArcaBattleServer
_BSS	ENDS
PUBLIC	??_H@YGXPAXIIP6EPAX0@Z@Z			; `vector constructor iterator'
PUBLIC	?__empty_global_delete@@YAXPAX@Z		; __empty_global_delete
PUBLIC	?__empty_global_delete@@YAXPAXI@Z		; __empty_global_delete
PUBLIC	??1OBJECTSTRUCT@@QAE@XZ				; OBJECTSTRUCT::~OBJECTSTRUCT
PUBLIC	??_EOBJECTSTRUCT@@QAEPAXI@Z			; OBJECTSTRUCT::`vector deleting destructor'
PUBLIC	??0_stAuraInfo@@QAE@XZ				; _stAuraInfo::_stAuraInfo
PUBLIC	??0_stArcaBattleObeliskInfo@@QAE@XZ		; _stArcaBattleObeliskInfo::_stArcaBattleObeliskInfo
PUBLIC	??0_tagPMSG_ARCA_BATTLE_PLAY_INFO@@QAE@XZ	; _tagPMSG_ARCA_BATTLE_PLAY_INFO::_tagPMSG_ARCA_BATTLE_PLAY_INFO
PUBLIC	??0_stABObeliskOccupy@@QAE@XZ			; _stABObeliskOccupy::_stABObeliskOccupy
PUBLIC	??0_stObeliskLife@@QAE@XZ			; _stObeliskLife::_stObeliskLife
PUBLIC	??0_stABWinGuildInfoDS@@QAE@XZ			; _stABWinGuildInfoDS::_stABWinGuildInfoDS
PUBLIC	??0_tagPMSG_REQ_AB_WIN_GUILD_INFO_INSERT_DS@@QAE@XZ ; _tagPMSG_REQ_AB_WIN_GUILD_INFO_INSERT_DS::_tagPMSG_REQ_AB_WIN_GUILD_INFO_INSERT_DS
PUBLIC	??0_tagArcaBattleUserInfo@@QAE@XZ		; _tagArcaBattleUserInfo::_tagArcaBattleUserInfo
PUBLIC	??0_stABWinGuildInfo@@QAE@XZ			; _stABWinGuildInfo::_stABWinGuildInfo
PUBLIC	??0_tagARCA_BATTLE_BOOTY_REWARD@@QAE@XZ		; _tagARCA_BATTLE_BOOTY_REWARD::_tagARCA_BATTLE_BOOTY_REWARD
PUBLIC	??0_tagARCA_BATTLE_BOOTY_MIX@@QAE@XZ		; _tagARCA_BATTLE_BOOTY_MIX::_tagARCA_BATTLE_BOOTY_MIX
PUBLIC	??0_tagAURA_INFO@@QAE@XZ			; _tagAURA_INFO::_tagAURA_INFO
PUBLIC	??0_tagOBELISK_INFO@@QAE@XZ			; _tagOBELISK_INFO::_tagOBELISK_INFO
PUBLIC	??0_tagAURA_STATE@@QAE@XZ			; _tagAURA_STATE::_tagAURA_STATE
PUBLIC	??0_tagOBELISK_STATE@@QAE@XZ			; _tagOBELISK_STATE::_tagOBELISK_STATE
PUBLIC	??0_tagARCA_BATTLE_RESULT_INFO@@QAE@XZ		; _tagARCA_BATTLE_RESULT_INFO::_tagARCA_BATTLE_RESULT_INFO
PUBLIC	??0_tagOccupyGuildInfo@@QAE@XZ			; _tagOccupyGuildInfo::_tagOccupyGuildInfo
PUBLIC	??0_stABMonAccountNumInfo@@QAE@XZ		; _stABMonAccountNumInfo::_stABMonAccountNumInfo
PUBLIC	??0_stABMonGroupInfo@@QAE@XZ			; _stABMonGroupInfo::_stABMonGroupInfo
PUBLIC	??0_stABMonIndexInf@@QAE@XZ			; _stABMonIndexInf::_stABMonIndexInf
PUBLIC	??0_stABMonRegenArea@@QAE@XZ			; _stABMonRegenArea::_stABMonRegenArea
PUBLIC	??0_stABMonPosition@@QAE@XZ			; _stABMonPosition::_stABMonPosition
PUBLIC	??0_tagAB_USER_AREA@@QAE@XZ			; _tagAB_USER_AREA::_tagAB_USER_AREA
PUBLIC	??0_stAB_USER_POSITION@@QAE@XZ			; _stAB_USER_POSITION::_stAB_USER_POSITION
PUBLIC	??0_stAB_GUILD_MASTER_GATE_INFO@@QAE@XZ		; _stAB_GUILD_MASTER_GATE_INFO::_stAB_GUILD_MASTER_GATE_INFO
PUBLIC	??0_tagAB_GUILD_MEMBER_INFO_LOG@@QAE@XZ		; _tagAB_GUILD_MEMBER_INFO_LOG::_tagAB_GUILD_MEMBER_INFO_LOG
PUBLIC	??0CArcaBattle@@QAE@XZ				; CArcaBattle::CArcaBattle
PUBLIC	??1CArcaBattle@@QAE@XZ				; CArcaBattle::~CArcaBattle
PUBLIC	?PrintGuildMemberLog@CArcaBattle@@QAEXPAU_GUILD_INFO_STRUCT@@@Z ; CArcaBattle::PrintGuildMemberLog
PUBLIC	?EnableEvent@CArcaBattle@@QAEXH@Z		; CArcaBattle::EnableEvent
PUBLIC	?Clear@CArcaBattle@@QAEXXZ			; CArcaBattle::Clear
PUBLIC	?GDReqWinGuildInfo@CArcaBattle@@QAEXXZ		; CArcaBattle::GDReqWinGuildInfo
PUBLIC	?GDReqProcState@CArcaBattle@@QAEXXZ		; CArcaBattle::GDReqProcState
PUBLIC	?AddArcaBattleWinGuildInfo@CArcaBattle@@QAEXPAU_stABWinGuildInfoDS@@H@Z ; CArcaBattle::AddArcaBattleWinGuildInfo
PUBLIC	?IsArcaBattleWinGuild@CArcaBattle@@QAEHAAUOBJECTSTRUCT@@@Z ; CArcaBattle::IsArcaBattleWinGuild
PUBLIC	?IsArcaBattleOccupyZone@CArcaBattle@@QAEHAAUOBJECTSTRUCT@@H@Z ; CArcaBattle::IsArcaBattleOccupyZone
PUBLIC	?SendArcaBattleOccupyZone@CArcaBattle@@QAEXAAUOBJECTSTRUCT@@H@Z ; CArcaBattle::SendArcaBattleOccupyZone
PUBLIC	?LoadScriptBootyMix@CArcaBattle@@QAEHPAD@Z	; CArcaBattle::LoadScriptBootyMix
PUBLIC	?BootyExchange@CArcaBattle@@QAEXPAUOBJECTSTRUCT@@@Z ; CArcaBattle::BootyExchange
PUBLIC	?GetBootyRewardItem@CArcaBattle@@QAEHHPAU_tagARCA_BATTLE_BOOTY_REWARD@@@Z ; CArcaBattle::GetBootyRewardItem
PUBLIC	?LoadScriptArcaBattle@CArcaBattle@@QAEHPAD@Z	; CArcaBattle::LoadScriptArcaBattle
PUBLIC	?EnterArcaBattleEvent@CArcaBattle@@QAEHH@Z	; CArcaBattle::EnterArcaBattleEvent
PUBLIC	?ReqGuildMemberDelBuffDel@CArcaBattle@@QAEXPAUOBJECTSTRUCT@@PAD@Z ; CArcaBattle::ReqGuildMemberDelBuffDel
PUBLIC	?ReqRemoveRewardGuildBuff@CArcaBattle@@QAEXPAD@Z ; CArcaBattle::ReqRemoveRewardGuildBuff
PUBLIC	?DGAnsRemoveRewardBuff@CArcaBattle@@QAEXPAU_tagPMSG_ANS_REMOVE_GUILD_BUFF_DS@@@Z ; CArcaBattle::DGAnsRemoveRewardBuff
PUBLIC	?RemoveRewardBuff@CArcaBattle@@QAEXPAD@Z	; CArcaBattle::RemoveRewardBuff
PUBLIC	?GDReqArcaBattleJoinMemberUnderReq@CArcaBattle@@QAEXXZ ; CArcaBattle::GDReqArcaBattleJoinMemberUnderReq
PUBLIC	?DGAnsArcaBattleJoinMemberUnderReq@CArcaBattle@@QAEXPAU_tagPMSG_ANS_AB_JOIN_CANCEL_DS@@@Z ; CArcaBattle::DGAnsArcaBattleJoinMemberUnderReq
PUBLIC	?SendArcaBattlePlayInfo@CArcaBattle@@QAEXAAUOBJECTSTRUCT@@G@Z ; CArcaBattle::SendArcaBattlePlayInfo
PUBLIC	?GDReqJoinMemberUnder@CArcaBattle@@QAEXXZ	; CArcaBattle::GDReqJoinMemberUnder
PUBLIC	?GetJoinMemberCnt@CArcaBattle@@QAEHXZ		; CArcaBattle::GetJoinMemberCnt
PUBLIC	?GetDataLoadState@CArcaBattle@@QAEHXZ		; CArcaBattle::GetDataLoadState
PUBLIC	?SetDataLoadState@CArcaBattle@@QAEXH@Z		; CArcaBattle::SetDataLoadState
PUBLIC	?SetState@CArcaBattle@@QAEXH@Z			; CArcaBattle::SetState
PUBLIC	?GetState@CArcaBattle@@QAEHXZ			; CArcaBattle::GetState
PUBLIC	?DBDataRequest@CArcaBattle@@QAEHXZ		; CArcaBattle::DBDataRequest
PUBLIC	?Run@CArcaBattle@@QAEXXZ			; CArcaBattle::Run
PUBLIC	?CheckSync@CArcaBattle@@QAEHXZ			; CArcaBattle::CheckSync
PUBLIC	?ProcStateClosed@CArcaBattle@@QAEXXZ		; CArcaBattle::ProcStateClosed
PUBLIC	?ProcStateMasterReg@CArcaBattle@@QAEXXZ		; CArcaBattle::ProcStateMasterReg
PUBLIC	?ProcStateReg@CArcaBattle@@QAEXXZ		; CArcaBattle::ProcStateReg
PUBLIC	?ProcStateReady@CArcaBattle@@QAEXXZ		; CArcaBattle::ProcStateReady
PUBLIC	?ProcStatePaty@CArcaBattle@@QAEXXZ		; CArcaBattle::ProcStatePaty
PUBLIC	?ProcStatePlaying@CArcaBattle@@QAEXXZ		; CArcaBattle::ProcStatePlaying
PUBLIC	?ProcStatePlayEnd@CArcaBattle@@QAEXXZ		; CArcaBattle::ProcStatePlayEnd
PUBLIC	?ProcStateResult@CArcaBattle@@QAEXXZ		; CArcaBattle::ProcStateResult
PUBLIC	?ProcStateChannelClose@CArcaBattle@@QAEXXZ	; CArcaBattle::ProcStateChannelClose
PUBLIC	?SetStateReady@CArcaBattle@@QAEXXZ		; CArcaBattle::SetStateReady
PUBLIC	?SetStateClosed@CArcaBattle@@QAEXXZ		; CArcaBattle::SetStateClosed
PUBLIC	?SetStatePlayEnd@CArcaBattle@@QAEXXZ		; CArcaBattle::SetStatePlayEnd
PUBLIC	?GDReqArcaBattleProcMultiCast@CArcaBattle@@QAEXH@Z ; CArcaBattle::GDReqArcaBattleProcMultiCast
PUBLIC	?SendMapServerGroupMsg@CArcaBattle@@QAEXPAD@Z	; CArcaBattle::SendMapServerGroupMsg
PUBLIC	?SetRandomObeliskAttr@CArcaBattle@@QAEXXZ	; CArcaBattle::SetRandomObeliskAttr
PUBLIC	?SetObelisk@CArcaBattle@@QAEHXZ			; CArcaBattle::SetObelisk
PUBLIC	?RegenObelisk@CArcaBattle@@QAEHXZ		; CArcaBattle::RegenObelisk
PUBLIC	?SendObeliskLife@CArcaBattle@@QAEXXZ		; CArcaBattle::SendObeliskLife
PUBLIC	?SendObeliskState@CArcaBattle@@QAEXXZ		; CArcaBattle::SendObeliskState
PUBLIC	?ChkAuraUserHover@CArcaBattle@@QAEXXZ		; CArcaBattle::ChkAuraUserHover
PUBLIC	?IsEnableAttackObelisk@CArcaBattle@@QAEHAAUOBJECTSTRUCT@@H@Z ; CArcaBattle::IsEnableAttackObelisk
PUBLIC	?IsOccupyObelisk@CArcaBattle@@QAEHAAUOBJECTSTRUCT@@H@Z ; CArcaBattle::IsOccupyObelisk
PUBLIC	?GetGuildMasterPos@CArcaBattle@@QAEHAAUOBJECTSTRUCT@@HAAE1@Z ; CArcaBattle::GetGuildMasterPos
PUBLIC	?SetGuildMasterGateNum@CArcaBattle@@QAEXHH@Z	; CArcaBattle::SetGuildMasterGateNum
PUBLIC	?GetGuildMasterGateNum@CArcaBattle@@QAEHH@Z	; CArcaBattle::GetGuildMasterGateNum
PUBLIC	?GetUserPos@CArcaBattle@@QAEHHAAE0@Z		; CArcaBattle::GetUserPos
PUBLIC	?SetUserMapInfo@CArcaBattle@@QAEXPAUOBJECTSTRUCT@@H@Z ; CArcaBattle::SetUserMapInfo
PUBLIC	?IsArcaBattleServer@CArcaBattle@@QAEHXZ		; CArcaBattle::IsArcaBattleServer
PUBLIC	?IsArcaBattleMap@CArcaBattle@@QAEHH@Z		; CArcaBattle::IsArcaBattleMap
PUBLIC	?IsPkEnable@CArcaBattle@@QAEHAAUOBJECTSTRUCT@@0@Z ; CArcaBattle::IsPkEnable
PUBLIC	?SendArcaBattleStateAll@CArcaBattle@@QAEXH@Z	; CArcaBattle::SendArcaBattleStateAll
PUBLIC	?SendArcaBattleCurrentState@CArcaBattle@@QAEXAAUOBJECTSTRUCT@@@Z ; CArcaBattle::SendArcaBattleCurrentState
PUBLIC	?NotifyArcaBattle@CArcaBattle@@QAEXH@Z		; CArcaBattle::NotifyArcaBattle
PUBLIC	?SendPlayResult@CArcaBattle@@QAEXXZ		; CArcaBattle::SendPlayResult
PUBLIC	?GDReqWinGuildInfoInsert@CArcaBattle@@QAEXXZ	; CArcaBattle::GDReqWinGuildInfoInsert
PUBLIC	?GDReqDeleteArcaBattleInfo@CArcaBattle@@QAEXXZ	; CArcaBattle::GDReqDeleteArcaBattleInfo
PUBLIC	?GiveRewardBuffWinningGuild@CArcaBattle@@QAEXXZ	; CArcaBattle::GiveRewardBuffWinningGuild
PUBLIC	?ReqRemoveRewardBuffWinningGuild@CArcaBattle@@QAEXXZ ; CArcaBattle::ReqRemoveRewardBuffWinningGuild
PUBLIC	?DGAnsRemoveAllRewardBuff@CArcaBattle@@QAEXXZ	; CArcaBattle::DGAnsRemoveAllRewardBuff
PUBLIC	?RemoveGuildBuff@CArcaBattle@@QAEXPADG@Z	; CArcaBattle::RemoveGuildBuff
PUBLIC	?DeleteArcaBattleAllMonster@CArcaBattle@@QAEXXZ	; CArcaBattle::DeleteArcaBattleAllMonster
PUBLIC	?DGAnsRegisteredMemberCnt@CArcaBattle@@QAEXPAU_tagPMSG_ANS_AB_REG_MEMBER_CNT_DS@@@Z ; CArcaBattle::DGAnsRegisteredMemberCnt
PUBLIC	?GetObeliskAttrToRewardBuffIndex@CArcaBattle@@QAEGH@Z ; CArcaBattle::GetObeliskAttrToRewardBuffIndex
PUBLIC	?WinGuildMemberAddBuff@CArcaBattle@@QAEXPAUOBJECTSTRUCT@@G@Z ; CArcaBattle::WinGuildMemberAddBuff
PUBLIC	?RegenMonster@CArcaBattle@@QAEXH@Z		; CArcaBattle::RegenMonster
PUBLIC	?SetPosMonster@CArcaBattle@@QAEHHHHHHH@Z	; CArcaBattle::SetPosMonster
PUBLIC	?GetBoxPosition@CArcaBattle@@QAEHHHHHHAAE0@Z	; CArcaBattle::GetBoxPosition
PUBLIC	?DeleteMonster@CArcaBattle@@QAEXH@Z		; CArcaBattle::DeleteMonster
PUBLIC	?RegenMonsterRun@CArcaBattle@@QAEXXZ		; CArcaBattle::RegenMonsterRun
PUBLIC	?AddContributePoint@CArcaBattle@@QAEXAAUOBJECTSTRUCT@@0@Z ; CArcaBattle::AddContributePoint
PUBLIC	?AddKillPoint@CArcaBattle@@QAEXAAUOBJECTSTRUCT@@0@Z ; CArcaBattle::AddKillPoint
PUBLIC	?BootyItemGetCnt@CArcaBattle@@QAEXAAUOBJECTSTRUCT@@@Z ; CArcaBattle::BootyItemGetCnt
PUBLIC	?CalcRewardExp@CArcaBattle@@QAEXAAUOBJECTSTRUCT@@AA_J@Z ; CArcaBattle::CalcRewardExp
PUBLIC	?GetUserInfo@CArcaBattle@@QAEPAU_tagArcaBattleUserInfo@@PAD@Z ; CArcaBattle::GetUserInfo
PUBLIC	?DropItem@CArcaBattle@@QAEHPAUOBJECTSTRUCT@@EEEH@Z ; CArcaBattle::DropItem
PUBLIC	?ProbabilityLoadData@CArcaBattle@@QAEXXZ	; CArcaBattle::ProbabilityLoadData
PUBLIC	?deallocate@?$allocator@U_tagARCA_BATTLE_START_TIME@@@std@@QAEXPAU_tagARCA_BATTLE_START_TIME@@I@Z ; std::allocator<_tagARCA_BATTLE_START_TIME>::deallocate
PUBLIC	??_C@_00CNPNBAHC@?$AA@				; `string'
PUBLIC	?g_ArcaBattle@@3VCArcaBattle@@A			; g_ArcaBattle
PUBLIC	??_C@_01KDCPPGHE@r?$AA@				; `string'
PUBLIC	??_C@_0CP@OFJFMFJN@?$FLArcaBattle?$FN?$FLBootyExchange?$FN?5?$CFs?5F@ ; `string'
PUBLIC	??_C@_03JBJLGPFL@end?$AA@			; `string'
PUBLIC	??_C@_0DM@MHCDLNKM@?$FLArcaBattle?$FN?5BootyMix?5?$CFs?5File?5Lo@ ; `string'
PUBLIC	??_C@_0DM@IMNBJCCJ@?$FLArcaBattle?$FN?$FLBootyExchange?$FN?5Erro@ ; `string'
PUBLIC	??_C@_0DH@CABOAONH@?$FLArcaBattle?$FN?$FLBootyExchange?$FN?5Erro@ ; `string'
PUBLIC	??_C@_0EJ@OPKHJAF@Send?5ObeliskInfo?5iGroupNumber?5?$CFd@ ; `string'
PUBLIC	??_C@_0DM@IJLFDMAD@Send?5ObeliskInfo?5iGroupNumber?5m_@ ; `string'
PUBLIC	??_C@_0BM@DGJFADNJ@?$FLArcaBattle?$FN?5Send?5Play?5Data?$AA@ ; `string'
PUBLIC	??_C@_0CI@ELBEEKCP@?$FLArcaBattle?$FN?5Error?5Obelisk?5Attri@ ; `string'
PUBLIC	??_C@_0HD@PLPAMELL@?$FLArcaBattle?$FN?$FLError?$FN?5GiveRewardBu@ ; `string'
PUBLIC	??_C@_0DK@DCBBIPPH@?$FLArcaBattle?$FN?5Reward?5GuildBuff?5Gu@ ; `string'
PUBLIC	??_C@_0DD@OCCKNDI@?$FLArcaBAttle?$FN?5Request?5ExDB?5Delete@ ; `string'
PUBLIC	??_C@_0DH@PIJJJHJH@?$FLArcaBAttle?$FN?5Request?5ExDB?5Delete@ ; `string'
PUBLIC	??_C@_0DM@GNFLODJA@?$FLArcaBAttle?$FN?5Request?5MultiCast?5R@ ; `string'
PUBLIC	??_C@_0EG@IPBMLHEM@?$FLArcaBattle?$FN?5Remove?5All?5Reward?5G@ ; `string'
PUBLIC	??_C@_0FE@CNKNKAAD@?$FLArcaBattle?$FN?5Error?5Can?5Not?5Find?5@ ; `string'
PUBLIC	??_C@_0EE@HABGEPCF@?$FLArcaBattle?$FN?5Remove?5Buff?5?$FL?$CFs?$FN?$FL?$CFs@ ; `string'
PUBLIC	??_C@_0FD@GHIBJCOE@?$FLArcaBattle?$FN?5Add?5Winning?5Guild?5I@ ; `string'
PUBLIC	??_C@_0DP@BPHKINJM@?$FLArcaBattle?$FN?5CArcaBattle?3?3DBData@ ; `string'
PUBLIC	??_C@_0DP@FOHPCHEJ@?$FLArcaBattle?$FN?5CArcaBattle?3?3DBData@ ; `string'
PUBLIC	??_C@_0BO@PADLLFDO@?$FLArcaBattle?$FN?5ArcaBattle?5Start?$AA@ ; `string'
PUBLIC	??_C@_0DK@LOHLFLGA@?$FLArcaBattle?$FN?5?9?$KG?$KM?c?9?kL?$PP?5?9?v?$KG?uL?u?5?$KG?$PO?$KM@ ; `string'
PUBLIC	??_C@_0CH@LADMGAOH@?$FLArcaBattle?$FN?5?9?$KG?$KM?c?9?kL?$PP?5?9?v?$KG?u?$KM?$LA?5?$KG?$PO?$KM@ ; `string'
PUBLIC	??_C@_0DK@CBAHDJAJ@?$FLArcaBattle?$FN?5?9?$KG?$KM?c?9?kL?$PP?5?9?v?$KG?u?$KM?$LA?5?$KG?$PO?$KM@ ; `string'
PUBLIC	??_C@_0CA@JLPPIFKE@?$FLArcaBattle?$FN?5?9?$KG?$KM?c?9?kL?$PP?5?$KG?$PO?$KM?$KG?5?$KM?$KG?$KM?q?$AA@ ; `string'
PUBLIC	??_C@_0FB@HOMPCHDA@?$FLArcaBattle?$FN?5?9?$KG?$KM?c?9?kL?$PP?5?9?$CLL?9?9?$PO?$CL?$KB?5?$CF@ ; `string'
PUBLIC	??_C@_0EL@PJDCDIBI@?$FLArcaBattle?$FN?5?9?$KG?$KM?c?9?kL?$PPL?$KG?5?$KM?m?$KML?9L?$CL?$KG@ ; `string'
PUBLIC	??_C@_0CF@KOBNNKAP@?$FLArcaBattle?$FN?5?9?$KG?$KM?c?9?kL?$PP?5?$KG?9?$KG?9?5?$CL?$PL?9?r?5@ ; `string'
PUBLIC	??_C@_0GL@MJPIEKCI@?$FLArcaBattle?$FN?$KM?w?$KG?c?$CL?$DN?$KM?a?5?$KML?$KG?g?$KM?n?9?$KG?$CL?i?9@ ; `string'
PUBLIC	??_C@_0DA@NNBEFGFD@?$FLArcaBattle?$FN?5?9?$KG?$KM?c?9?kL?$PP?5?$CL?9?$KM?q?9?$PO?$CL?$KB?5?$CF@ ; `string'
PUBLIC	??_C@_0DA@GPJNNEOE@?$FLArcaBattle?$FN?5?9?$KG?$KM?c?9?kL?$PP?5?$CL?9?$KM?q?9?$PO?$CL?$KB?5?$CF@ ; `string'
PUBLIC	??_C@_0EE@BDAJDHLP@?$FLArcaBattle?$FN?5?9?$KG?$KM?c?9?kL?$PPL?$KG?5?$CL?9?$KM?q?$KG?$KG?9?$LH@ ; `string'
PUBLIC	??_C@_0EG@LOLHIIII@?9?$KG?$KM?c?9?kL?$PP?5?$CL?d?$KG?$CL?5?$CL?9?$KM?q?5?9?$PO?$CL?$KB?5?$CFd?$KG?$KG?5?$KG?9?9@ ; `string'
PUBLIC	??_C@_0EF@CHADKLEI@?9?$KG?$KM?c?9?kL?$PP?5?$CL?d?$KG?$CL?5?$CL?9?$KM?q?5?9?$PO?$CL?$KB?5?$CFd?$CL?$KG?5?$KG?9?9@ ; `string'
PUBLIC	??_C@_0DF@FMIEONML@?$FLArcaBattle?$FN?$FLMonsterGroupRegen?$FN?5@ ; `string'
PUBLIC	??_C@_0CO@FIDHFJOD@?$FLArcaBattle?$FN?5Entered?5User?5Over?5U@ ; `string'
PUBLIC	??_C@_0DH@GJDPCHLF@?$FLArcaBattle?$FN?5Entered?5ArcaBattle?5@ ; `string'
PUBLIC	??_C@_0DF@PFKNNEC@?$FLArcaBattle?$FN?5Enter?5ArcaBattle?5?$FL?$CF@ ; `string'
PUBLIC	??_C@_0CE@LIFLCJPD@?$FLArcaBattle?$FN?5?$CI?$CFd?$CJ?5Obelisk?5be?5Reg@ ; `string'
PUBLIC	??_C@_0CL@GGLEKHEH@?$FLArcaBattle?$FN?$FLObelisk?$FN?5Delete?5Mon@ ; `string'
PUBLIC	??_C@_0CG@BMIFBHBK@?$FLArcaBattle?$FN?5?$CI?$CFd?$CJ?5Obelisk?5be?5cre@ ; `string'
PUBLIC	??_C@_0CD@EAAGOHK@?$FLArcaBattle?$FN?5?$CI?$CFd?$CJ?5Aura?5be?5create@ ; `string'
PUBLIC	??_C@_0EC@EOEBKOG@?$FLArcaBattle?$FN?5Obelisk?5foot?5hold?5?$FL@ ; `string'
PUBLIC	??_C@_0CE@FCHEEFHN@?$FLArcaBattle?$FN?5Error?5lpGuildInfo?5N@ ; `string'
PUBLIC	??_C@_0CH@JOJAMJIP@?$FLArcaBattle?$FN?5Error?5lpTarGuildInf@ ; `string'
PUBLIC	??_C@_0BO@LBLMIIED@?$KML?$KG?g?$KM?n?9?$KG?$CL?i?9?a?5?$CL?a?$KM?c?5?$KG?$KG?9?$LH?9L?$CL?$KG?$CL?9?4?$AA@ ; `string'
PUBLIC	??_C@_0FD@MDCNGBPL@?$FLArcaBattle?$FN?5Occupy?5Obelisk?5In?5A@ ; `string'
PUBLIC	??_C@_0BL@FNJGNFPC@?$FLArcaBattle?$FN?5?9?$KG?$KM?c?9?kL?$PP?5?9?$CLL?9?$AA@ ; `string'
PUBLIC	??_C@_0BL@HDNCCFDN@?$FLArcaBattle?$FN?5?9?$KG?$KM?c?9?kL?$PP?5?$CL?9?$KM?q?$AA@ ; `string'
PUBLIC	??_C@_0GD@DJBGMIIN@?$FLArcaBattle?$FN?5Request?5Win?5Guild?5I@ ; `string'
PUBLIC	??_C@_0FM@NAHLOEIH@?$FLArcaBattle?$FN?5SendPlayResult?5Occu@ ; `string'
PUBLIC	??_C@_0DO@LHOGHICL@?$FLArcaBattle?$FN?5Error?5SendPlayResul@ ; `string'
PUBLIC	??_C@_0EG@MCEEDJKD@?$FLArcaBattle?$FN?5Error?5SendPlayResul@ ; `string'
PUBLIC	??_C@_0GC@DLMDFCFM@?$FLArcaBattle?$FN?5SendPlayResult?5?$FL?$CFs?$FN@ ; `string'
PUBLIC	??_C@_0P@FNDEBPBH@ArcaBattle?4cpp?$AA@		; `string'
PUBLIC	??_C@_0BL@KNDCMNHP@?$FLArcaBattle?$FN?5error?5?3?5?$CFs?5?$CFd?$AA@ ; `string'
PUBLIC	??_C@_0EJ@BMKIDIKM@?$FLArcaBattle?$FN?$FLMonsterGroupRegen?$FN?5@ ; `string'
PUBLIC	??_C@_0FK@OFHBENGA@?$FLArcaBattle?$FN?$FLMonsterGroupRegen?$FN?5@ ; `string'
PUBLIC	??_C@_0DI@FCIBHGCJ@?$FLArcaBattle?$FN?5Boss?5Monster?5Kill?5?$FL@ ; `string'
PUBLIC	??_C@_0FJ@EOPGMBHD@?$FLArcaBattle?$FN?5?$FL?$CFs?$FN?$FL?$CFs?$FN?5User?5Kill?5@ ; `string'
PUBLIC	??_C@_0DO@POELAJEM@?$FLArcaBattle?$FN?5Obelisk?5Occupy?5Add?5@ ; `string'
PUBLIC	??_C@_0DP@FDLOMLIN@?$FLArcaBattle?$FN?5Monster?5Dropped?5Arc@ ; `string'
PUBLIC	??_C@_0DM@IAKAPCCL@?$FLArcaBattle?$FN?5Monster?5Kill?5Add?5Ki@ ; `string'
PUBLIC	??_C@_0DJ@CDMLEHAK@?$FLArcaBattle?$FN?5User?5Kill?5Add?5KillP@ ; `string'
PUBLIC	??_C@_0EC@ECKMBKGF@?$FLArcaBattle?$FN?5?$FL?$CFs?$FN?$FL?$CFs?$FN?5User?5Dropp@ ; `string'
PUBLIC	??_C@_0DJ@LIAJIPGJ@?$FLArcaBattle?$FN?5BootyItemGetCnt?5?$FL?$CFs@ ; `string'
PUBLIC	??_C@_0EB@DJABEHEF@?$FLArcaBattle?$FN?5CalcRewardExp?5?$FL?$CFs?$FN?$FL@ ; `string'
PUBLIC	??_C@_0EC@IOACBABL@?$FLArcaBattle?$FN?5Canceled?5With?5Less?5@ ; `string'
PUBLIC	??_C@_0DN@IDGEAHF@?$FLArcaBattle?$FN?5Error?5?3?5lpGuild?5Is?5@ ; `string'
PUBLIC	??_C@_0EJ@COAGCMGM@?$CK?$CK?$CK?$CK?$CK?$CK?$CK?$CK?$CK?$CK?$CK?$CK?$CK?$CK?$CK?$CK?$CK?$CK?$CK?$CK?$CK?$CK?$CK?$CK?$CK?$CK?$CK?$CK?$CK?$CK?$CK?$CK@ ; `string'
PUBLIC	??_C@_0DB@NIKANANG@?$FLArcaBattle?$FN?5Guild?5Name?5?$FL?$CFs?$FN?5Gui@ ; `string'
PUBLIC	??_C@_0CI@OGNEAKOF@?$FLArcaBattle?$FN?5?$FL?$CFs?$FN?5Guild?5Member?5?$CI@ ; `string'
PUBLIC	__real@4024000000000000
PUBLIC	__xmm@00000259000002580000025700000256
PUBLIC	__xmm@ffffffffffffffffffffffffffffffff
EXTRN	??_M@YGXPAXIIP6EX0@Z@Z:PROC			; `eh vector destructor iterator'
EXTRN	??3@YAXPAX@Z:PROC				; operator delete
EXTRN	??3@YAXPAXI@Z:PROC				; operator delete
EXTRN	??_V@YAXPAXI@Z:PROC				; operator delete[]
EXTRN	_atexit:PROC
EXTRN	__invalid_parameter_noinfo_noreturn:PROC
EXTRN	_isalpha:PROC
EXTRN	_isdigit:PROC
EXTRN	_isspace:PROC
EXTRN	_isalnum:PROC
EXTRN	__imp__GetTickCount@0:PROC
EXTRN	__imp__wsprintfA:PROC
EXTRN	_fclose:PROC
EXTRN	_fgetc:PROC
EXTRN	_fopen:PROC
EXTRN	_getc:PROC
EXTRN	_ungetc:PROC
EXTRN	_rand:PROC
EXTRN	_atof:PROC
EXTRN	__time64:PROC
EXTRN	?Get@Message@@QAEPADH@Z:PROC			; Message::Get
EXTRN	?SearchGuild@CGuildClass@@QAEPAU_GUILD_INFO_STRUCT@@PAD@Z:PROC ; CGuildClass::SearchGuild
EXTRN	??1CSkillDelay@@UAE@XZ:PROC			; CSkillDelay::~CSkillDelay
EXTRN	?MsgBox@@YAXPADZZ:PROC				; MsgBox
EXTRN	?DataSend@@YAHHPAEK@Z:PROC			; DataSend
EXTRN	??1TMonsterAIAgro@@UAE@XZ:PROC			; TMonsterAIAgro::~TMonsterAIAgro
EXTRN	?gObjCalCharacter@@YAXH@Z:PROC			; gObjCalCharacter
EXTRN	?gObjSetMonster@@YAHHH@Z:PROC			; gObjSetMonster
EXTRN	?gObjAddMonster@@YAFH@Z:PROC			; gObjAddMonster
EXTRN	?gObjDel@@YAFH@Z:PROC				; gObjDel
EXTRN	?gObjIsConnected@@YAHH@Z:PROC			; gObjIsConnected
EXTRN	?gObjLevelUp@@YA_NPAUOBJECTSTRUCT@@PA_JHH@Z:PROC ; gObjLevelUp
EXTRN	?gObjMoveGate@@YAHHH@Z:PROC			; gObjMoveGate
EXTRN	?gObjTeleport@@YAXHHHH@Z:PROC			; gObjTeleport
EXTRN	?GetAttr@MapClass@@QAEEHH@Z:PROC		; MapClass::GetAttr
EXTRN	?GCSendExp@@YAXHH_JHH@Z:PROC			; GCSendExp
EXTRN	?GetLargeRand@@YAKXZ:PROC			; GetLargeRand
EXTRN	?gObjRemoveBuffEffect@@YA_NPAUOBJECTSTRUCT@@H@Z:PROC ; gObjRemoveBuffEffect
EXTRN	?gObjCheckUsedBuffEffect@@YA_NPAUOBJECTSTRUCT@@H@Z:PROC ; gObjCheckUsedBuffEffect
EXTRN	?MakeNoticeMsgEx@TNotice@@SAXPAXEPADZZ:PROC	; TNotice::MakeNoticeMsgEx
EXTRN	?SetNoticeProperty@TNotice@@SAXPAXEKEGE@Z:PROC	; TNotice::SetNoticeProperty
EXTRN	?SendNoticeToAllUser@TNotice@@SAXPAX@Z:PROC	; TNotice::SendNoticeToAllUser
EXTRN	?GetGate@CGate@@QAEHHAAE000AAF@Z:PROC		; CGate::GetGate
EXTRN	?Send@DBSockMng@@QAEHPADH@Z:PROC		; DBSockMng::Send
EXTRN	?ItemSerialCreateSend@@YAXHEEEHEEEEEHEEEPAE@Z:PROC ; ItemSerialCreateSend
EXTRN	?IsEnabled@CMasterExperience@@QAEHPAUOBJECTSTRUCT@@@Z:PROC ; CMasterExperience::IsEnabled
EXTRN	@__security_check_cookie@4:PROC
EXTRN	___CxxFrameHandler3:PROC
EXTRN	__allmul:PROC
EXTRN	__except_handler4:PROC
EXTRN	_ceil:PROC
EXTRN	_memset:PROC
EXTRN	?lMsg@@3VMessage@@A:BYTE			; lMsg
EXTRN	?LogAdd@@3P6AXPADZZA:DWORD			; LogAdd
EXTRN	?LogAddC@@3P6AXEPADZZA:DWORD			; LogAddC
EXTRN	?LogAddTD@@3P6AXPADZZA:DWORD			; LogAddTD
EXTRN	?gObj@@3PAUOBJECTSTRUCT@@A:DWORD		; gObj
EXTRN	?MapC@@3PAVMapClass@@A:BYTE			; MapC
EXTRN	?Guild@@3VCGuildClass@@A:BYTE			; Guild
EXTRN	?gGateC@@3VCGate@@A:BYTE			; gGateC
EXTRN	?cDBSMng@@3VDBSockMng@@A:BYTE			; cDBSMng
EXTRN	?g_MapServerManager@@3VCMapServerManager@@A:BYTE ; g_MapServerManager
EXTRN	?g_MasterExp@@3VCMasterExperience@@A:BYTE	; g_MasterExp
EXTRN	___security_cookie:DWORD
EXTRN	__fltused:DWORD
_BSS	SEGMENT
	ALIGN	4

?g_ArcaBattle@@3VCArcaBattle@@A DB 0279f8H DUP (?)	; g_ArcaBattle
?SMDFile@@3PAU_iobuf@@A DD 01H DUP (?)			; SMDFile
?TokenNumber@@3MA DD 01H DUP (?)			; TokenNumber
?TokenString@@3PADA DB 064H DUP (?)			; TokenString
?CurrentToken@@3W4SMDToken@@A DD 01H DUP (?)		; CurrentToken
_BSS	ENDS
CRT$XCU	SEGMENT
?g_ArcaBattle$initializer$@@3P6AXXZA DD FLAT:??__Eg_ArcaBattle@@YAXXZ ; g_ArcaBattle$initializer$
CRT$XCU	ENDS
;	COMDAT __xmm@ffffffffffffffffffffffffffffffff
CONST	SEGMENT
__xmm@ffffffffffffffffffffffffffffffff DB 0ffH, 0ffH, 0ffH, 0ffH, 0ffH, 0ffH
	DB	0ffH, 0ffH, 0ffH, 0ffH, 0ffH, 0ffH, 0ffH, 0ffH, 0ffH, 0ffH
CONST	ENDS
;	COMDAT __xmm@00000259000002580000025700000256
CONST	SEGMENT
__xmm@00000259000002580000025700000256 DB 'V', 02H, 00H, 00H, 'W', 02H, 00H
	DB	00H, 'X', 02H, 00H, 00H, 'Y', 02H, 00H, 00H
CONST	ENDS
;	COMDAT __real@4024000000000000
CONST	SEGMENT
__real@4024000000000000 DQ 04024000000000000r	; 10
CONST	ENDS
;	COMDAT ??_C@_0CI@OGNEAKOF@?$FLArcaBattle?$FN?5?$FL?$CFs?$FN?5Guild?5Member?5?$CI@
CONST	SEGMENT
??_C@_0CI@OGNEAKOF@?$FLArcaBattle?$FN?5?$FL?$CFs?$FN?5Guild?5Member?5?$CI@ DB '['
	DB	'ArcaBattle] [%s] Guild Member (%d)[%s]', 00H ; `string'
CONST	ENDS
;	COMDAT ??_C@_0DB@NIKANANG@?$FLArcaBattle?$FN?5Guild?5Name?5?$FL?$CFs?$FN?5Gui@
CONST	SEGMENT
??_C@_0DB@NIKANANG@?$FLArcaBattle?$FN?5Guild?5Name?5?$FL?$CFs?$FN?5Gui@ DB '['
	DB	'ArcaBattle] Guild Name [%s] GuildMemberCnt [%d]', 00H ; `string'
CONST	ENDS
;	COMDAT ??_C@_0EJ@COAGCMGM@?$CK?$CK?$CK?$CK?$CK?$CK?$CK?$CK?$CK?$CK?$CK?$CK?$CK?$CK?$CK?$CK?$CK?$CK?$CK?$CK?$CK?$CK?$CK?$CK?$CK?$CK?$CK?$CK?$CK?$CK?$CK?$CK@
CONST	SEGMENT
??_C@_0EJ@COAGCMGM@?$CK?$CK?$CK?$CK?$CK?$CK?$CK?$CK?$CK?$CK?$CK?$CK?$CK?$CK?$CK?$CK?$CK?$CK?$CK?$CK?$CK?$CK?$CK?$CK?$CK?$CK?$CK?$CK?$CK?$CK?$CK?$CK@ DB '*'
	DB	'*************************************************************'
	DB	'**********', 00H				; `string'
CONST	ENDS
;	COMDAT ??_C@_0DN@IDGEAHF@?$FLArcaBattle?$FN?5Error?5?3?5lpGuild?5Is?5@
CONST	SEGMENT
??_C@_0DN@IDGEAHF@?$FLArcaBattle?$FN?5Error?5?3?5lpGuild?5Is?5@ DB '[Arca'
	DB	'Battle] Error : lpGuild Is NULL - PrintGuildMemberLog()', 00H ; `string'
CONST	ENDS
;	COMDAT ??_C@_0EC@IOACBABL@?$FLArcaBattle?$FN?5Canceled?5With?5Less?5@
CONST	SEGMENT
??_C@_0EC@IOACBABL@?$FLArcaBattle?$FN?5Canceled?5With?5Less?5@ DB '[ArcaB'
	DB	'attle] Canceled With Less Than Guild Member - GuildName[%s]', 00H ; `string'
CONST	ENDS
;	COMDAT ??_C@_0EB@DJABEHEF@?$FLArcaBattle?$FN?5CalcRewardExp?5?$FL?$CFs?$FN?$FL@
CONST	SEGMENT
??_C@_0EB@DJABEHEF@?$FLArcaBattle?$FN?5CalcRewardExp?5?$FL?$CFs?$FN?$FL@ DB '['
	DB	'ArcaBattle] CalcRewardExp [%s][%s] Total KillPoints[%d] Exp[%'
	DB	'U]', 00H					; `string'
CONST	ENDS
;	COMDAT ??_C@_0DJ@LIAJIPGJ@?$FLArcaBattle?$FN?5BootyItemGetCnt?5?$FL?$CFs@
CONST	SEGMENT
??_C@_0DJ@LIAJIPGJ@?$FLArcaBattle?$FN?5BootyItemGetCnt?5?$FL?$CFs@ DB '[A'
	DB	'rcaBattle] BootyItemGetCnt [%s][%s] Total BootyCnt[%d]', 00H ; `string'
CONST	ENDS
;	COMDAT ??_C@_0EC@ECKMBKGF@?$FLArcaBattle?$FN?5?$FL?$CFs?$FN?$FL?$CFs?$FN?5User?5Dropp@
CONST	SEGMENT
??_C@_0EC@ECKMBKGF@?$FLArcaBattle?$FN?5?$FL?$CFs?$FN?$FL?$CFs?$FN?5User?5Dropp@ DB '['
	DB	'ArcaBattle] [%s][%s] User Dropped ArcaBattle Item Booty [%s]['
	DB	'%s]', 00H					; `string'
CONST	ENDS
;	COMDAT ??_C@_0DJ@CDMLEHAK@?$FLArcaBattle?$FN?5User?5Kill?5Add?5KillP@
CONST	SEGMENT
??_C@_0DJ@CDMLEHAK@?$FLArcaBattle?$FN?5User?5Kill?5Add?5KillP@ DB '[ArcaB'
	DB	'attle] User Kill Add KillPoints [%s][%s] Point[%d]', 00H ; `string'
CONST	ENDS
;	COMDAT ??_C@_0DM@IAKAPCCL@?$FLArcaBattle?$FN?5Monster?5Kill?5Add?5Ki@
CONST	SEGMENT
??_C@_0DM@IAKAPCCL@?$FLArcaBattle?$FN?5Monster?5Kill?5Add?5Ki@ DB '[ArcaB'
	DB	'attle] Monster Kill Add KillPoints [%s][%s] Point[%d]', 00H ; `string'
CONST	ENDS
;	COMDAT ??_C@_0DP@FDLOMLIN@?$FLArcaBattle?$FN?5Monster?5Dropped?5Arc@
CONST	SEGMENT
??_C@_0DP@FDLOMLIN@?$FLArcaBattle?$FN?5Monster?5Dropped?5Arc@ DB '[ArcaBa'
	DB	'ttle] Monster Dropped ArcaBattle Item Booty To [%s][%s]', 00H ; `string'
CONST	ENDS
;	COMDAT ??_C@_0DO@POELAJEM@?$FLArcaBattle?$FN?5Obelisk?5Occupy?5Add?5@
CONST	SEGMENT
??_C@_0DO@POELAJEM@?$FLArcaBattle?$FN?5Obelisk?5Occupy?5Add?5@ DB '[ArcaB'
	DB	'attle] Obelisk Occupy Add KillPoints [%s][%s] Point[%d]', 00H ; `string'
CONST	ENDS
;	COMDAT ??_C@_0FJ@EOPGMBHD@?$FLArcaBattle?$FN?5?$FL?$CFs?$FN?$FL?$CFs?$FN?5User?5Kill?5@
CONST	SEGMENT
??_C@_0FJ@EOPGMBHD@?$FLArcaBattle?$FN?5?$FL?$CFs?$FN?$FL?$CFs?$FN?5User?5Kill?5@ DB '['
	DB	'ArcaBattle] [%s][%s] User Kill ContributePoint[%d] - Result :'
	DB	' Lv [%d] / Lv [%d][%s][%s]', 00H		; `string'
CONST	ENDS
;	COMDAT ??_C@_0DI@FCIBHGCJ@?$FLArcaBattle?$FN?5Boss?5Monster?5Kill?5?$FL@
CONST	SEGMENT
??_C@_0DI@FCIBHGCJ@?$FLArcaBattle?$FN?5Boss?5Monster?5Kill?5?$FL@ DB '[Ar'
	DB	'caBattle] Boss Monster Kill [%s] ContributePoints %d', 00H ; `string'
CONST	ENDS
;	COMDAT ??_C@_0FK@OFHBENGA@?$FLArcaBattle?$FN?$FLMonsterGroupRegen?$FN?5@
CONST	SEGMENT
??_C@_0FK@OFHBENGA@?$FLArcaBattle?$FN?$FLMonsterGroupRegen?$FN?5@ DB '[Ar'
	DB	'caBattle][MonsterGroupRegen] Group: %d, MonsterIndex: %d, Map'
	DB	'Number: %d, X: %d, Y: %d ', 00H		; `string'
CONST	ENDS
;	COMDAT ??_C@_0EJ@BMKIDIKM@?$FLArcaBattle?$FN?$FLMonsterGroupRegen?$FN?5@
CONST	SEGMENT
??_C@_0EJ@BMKIDIKM@?$FLArcaBattle?$FN?$FLMonsterGroupRegen?$FN?5@ DB '[Ar'
	DB	'caBattle][MonsterGroupRegen] AddMonster fail!! [GROUP]:%d, [I'
	DB	'NDEX]:%d', 00H				; `string'
CONST	ENDS
;	COMDAT ??_C@_0BL@KNDCMNHP@?$FLArcaBattle?$FN?5error?5?3?5?$CFs?5?$CFd?$AA@
CONST	SEGMENT
??_C@_0BL@KNDCMNHP@?$FLArcaBattle?$FN?5error?5?3?5?$CFs?5?$CFd?$AA@ DB '['
	DB	'ArcaBattle] error : %s %d', 00H		; `string'
CONST	ENDS
;	COMDAT ??_C@_0P@FNDEBPBH@ArcaBattle?4cpp?$AA@
CONST	SEGMENT
??_C@_0P@FNDEBPBH@ArcaBattle?4cpp?$AA@ DB 'ArcaBattle.cpp', 00H ; `string'
CONST	ENDS
;	COMDAT ??_C@_0GC@DLMDFCFM@?$FLArcaBattle?$FN?5SendPlayResult?5?$FL?$CFs?$FN@
CONST	SEGMENT
??_C@_0GC@DLMDFCFM@?$FLArcaBattle?$FN?5SendPlayResult?5?$FL?$CFs?$FN@ DB '['
	DB	'ArcaBattle] SendPlayResult [%s][%s] BootyCnt[%d] ContributePo'
	DB	'int[%d] KillPoint[%d] RewardExp[%d]', 00H	; `string'
CONST	ENDS
;	COMDAT ??_C@_0EG@MCEEDJKD@?$FLArcaBattle?$FN?5Error?5SendPlayResul@
CONST	SEGMENT
??_C@_0EG@MCEEDJKD@?$FLArcaBattle?$FN?5Error?5SendPlayResul@ DB '[ArcaBat'
	DB	'tle] Error SendPlayResult() pUserInfo NULL %s %s GuildName %s'
	DB	00H						; `string'
CONST	ENDS
;	COMDAT ??_C@_0DO@LHOGHICL@?$FLArcaBattle?$FN?5Error?5SendPlayResul@
CONST	SEGMENT
??_C@_0DO@LHOGHICL@?$FLArcaBattle?$FN?5Error?5SendPlayResul@ DB '[ArcaBat'
	DB	'tle] Error SendPlayResult() lpObj->lpGuild NULL %s %s', 00H ; `string'
CONST	ENDS
;	COMDAT ??_C@_0FM@NAHLOEIH@?$FLArcaBattle?$FN?5SendPlayResult?5Occu@
CONST	SEGMENT
??_C@_0FM@NAHLOEIH@?$FLArcaBattle?$FN?5SendPlayResult?5Occu@ DB '[ArcaBat'
	DB	'tle] SendPlayResult Occupy Guild Name : [%s] GroupNumber [%d]'
	DB	' ObeliskAttribute [%d]', 00H		; `string'
CONST	ENDS
;	COMDAT ??_C@_0GD@DJBGMIIN@?$FLArcaBattle?$FN?5Request?5Win?5Guild?5I@
CONST	SEGMENT
??_C@_0GD@DJBGMIIN@?$FLArcaBattle?$FN?5Request?5Win?5Guild?5I@ DB '[ArcaB'
	DB	'attle] Request Win Guild Info Insert GuildName : %s(%d) Occup'
	DB	'yObelisk : %d ObeliskGroup : %d', 00H	; `string'
CONST	ENDS
;	COMDAT ??_C@_0BL@HDNCCFDN@?$FLArcaBattle?$FN?5?9?$KG?$KM?c?9?kL?$PP?5?$CL?9?$KM?q?$AA@
CONST	SEGMENT
??_C@_0BL@HDNCCFDN@?$FLArcaBattle?$FN?5?9?$KG?$KM?c?9?kL?$PP?5?$CL?9?$KM?q?$AA@ DB '['
	DB	'ArcaBattle] -', 0a6H, 0acH, 0e3H, '-', 0ebH, 'L', 0ffH, ' +-', 0acH
	DB	0f1H, 00H					; `string'
CONST	ENDS
;	COMDAT ??_C@_0BL@FNJGNFPC@?$FLArcaBattle?$FN?5?9?$KG?$KM?c?9?kL?$PP?5?9?$CLL?9?$AA@
CONST	SEGMENT
??_C@_0BL@FNJGNFPC@?$FLArcaBattle?$FN?5?9?$KG?$KM?c?9?kL?$PP?5?9?$CLL?9?$AA@ DB '['
	DB	'ArcaBattle] -', 0a6H, 0acH, 0e3H, '-', 0ebH, 'L', 0ffH, ' -+L'
	DB	'-', 00H					; `string'
CONST	ENDS
;	COMDAT ??_C@_0FD@MDCNGBPL@?$FLArcaBattle?$FN?5Occupy?5Obelisk?5In?5A@
CONST	SEGMENT
??_C@_0FD@MDCNGBPL@?$FLArcaBattle?$FN?5Occupy?5Obelisk?5In?5A@ DB '[ArcaB'
	DB	'attle] Occupy Obelisk In ArcaBattle Progress  [%s][%s][%s] Ob'
	DB	'eliskGroup:[%d]', 00H			; `string'
CONST	ENDS
;	COMDAT ??_C@_0BO@LBLMIIED@?$KML?$KG?g?$KM?n?9?$KG?$CL?i?9?a?5?$CL?a?$KM?c?5?$KG?$KG?9?$LH?9L?$CL?$KG?$CL?9?4?$AA@
CONST	SEGMENT
??_C@_0BO@LBLMIIED@?$KML?$KG?g?$KM?n?9?$KG?$CL?i?9?a?5?$CL?a?$KM?c?5?$KG?$KG?9?$LH?9L?$CL?$KG?$CL?9?4?$AA@ DB 0acH
	DB	'L', 0a6H, 0e7H, 0acH, 0eeH, '-', 0a6H, '+', 0e9H, '-', 0e1H, ' '
	DB	'+', 0e1H, 0acH, 0e3H, ' ', 0a6H, 0a6H, '-', 0b7H, '-L+', 0a6H
	DB	'+-.', 00H					; `string'
CONST	ENDS
;	COMDAT ??_C@_0CH@JOJAMJIP@?$FLArcaBattle?$FN?5Error?5lpTarGuildInf@
CONST	SEGMENT
??_C@_0CH@JOJAMJIP@?$FLArcaBattle?$FN?5Error?5lpTarGuildInf@ DB '[ArcaBat'
	DB	'tle] Error lpTarGuildInfo NULL', 00H	; `string'
CONST	ENDS
;	COMDAT ??_C@_0CE@FCHEEFHN@?$FLArcaBattle?$FN?5Error?5lpGuildInfo?5N@
CONST	SEGMENT
??_C@_0CE@FCHEEFHN@?$FLArcaBattle?$FN?5Error?5lpGuildInfo?5N@ DB '[ArcaBa'
	DB	'ttle] Error lpGuildInfo NULL', 00H		; `string'
CONST	ENDS
;	COMDAT ??_C@_0EC@EOEBKOG@?$FLArcaBattle?$FN?5Obelisk?5foot?5hold?5?$FL@
CONST	SEGMENT
??_C@_0EC@EOEBKOG@?$FLArcaBattle?$FN?5Obelisk?5foot?5hold?5?$FL@ DB '[Arc'
	DB	'aBattle] Obelisk foot hold [on][%s][%s][%s] : Pos X[%d] Y[%d]'
	DB	00H						; `string'
CONST	ENDS
;	COMDAT ??_C@_0CD@EAAGOHK@?$FLArcaBattle?$FN?5?$CI?$CFd?$CJ?5Aura?5be?5create@
CONST	SEGMENT
??_C@_0CD@EAAGOHK@?$FLArcaBattle?$FN?5?$CI?$CFd?$CJ?5Aura?5be?5create@ DB '['
	DB	'ArcaBattle] (%d) Aura be created.', 00H	; `string'
CONST	ENDS
;	COMDAT ??_C@_0CG@BMIFBHBK@?$FLArcaBattle?$FN?5?$CI?$CFd?$CJ?5Obelisk?5be?5cre@
CONST	SEGMENT
??_C@_0CG@BMIFBHBK@?$FLArcaBattle?$FN?5?$CI?$CFd?$CJ?5Obelisk?5be?5cre@ DB '['
	DB	'ArcaBattle] (%d) Obelisk be created.', 00H	; `string'
CONST	ENDS
;	COMDAT ??_C@_0CL@GGLEKHEH@?$FLArcaBattle?$FN?$FLObelisk?$FN?5Delete?5Mon@
CONST	SEGMENT
??_C@_0CL@GGLEKHEH@?$FLArcaBattle?$FN?$FLObelisk?$FN?5Delete?5Mon@ DB '[A'
	DB	'rcaBattle][Obelisk] Delete Monster - %d ', 00H ; `string'
CONST	ENDS
;	COMDAT ??_C@_0CE@LIFLCJPD@?$FLArcaBattle?$FN?5?$CI?$CFd?$CJ?5Obelisk?5be?5Reg@
CONST	SEGMENT
??_C@_0CE@LIFLCJPD@?$FLArcaBattle?$FN?5?$CI?$CFd?$CJ?5Obelisk?5be?5Reg@ DB '['
	DB	'ArcaBattle] (%d) Obelisk be Regen.', 00H	; `string'
CONST	ENDS
;	COMDAT ??_C@_0DF@PFKNNEC@?$FLArcaBattle?$FN?5Enter?5ArcaBattle?5?$FL?$CF@
CONST	SEGMENT
??_C@_0DF@PFKNNEC@?$FLArcaBattle?$FN?5Enter?5ArcaBattle?5?$FL?$CF@ DB '[A'
	DB	'rcaBattle] Enter ArcaBattle [%s] [%s] UserCnt [%d]', 00H ; `string'
CONST	ENDS
;	COMDAT ??_C@_0DH@GJDPCHLF@?$FLArcaBattle?$FN?5Entered?5ArcaBattle?5@
CONST	SEGMENT
??_C@_0DH@GJDPCHLF@?$FLArcaBattle?$FN?5Entered?5ArcaBattle?5@ DB '[ArcaBa'
	DB	'ttle] Entered ArcaBattle [%s] [%s] UserCnt [%d]', 00H ; `string'
CONST	ENDS
;	COMDAT ??_C@_0CO@FIDHFJOD@?$FLArcaBattle?$FN?5Entered?5User?5Over?5U@
CONST	SEGMENT
??_C@_0CO@FIDHFJOD@?$FLArcaBattle?$FN?5Entered?5User?5Over?5U@ DB '[ArcaB'
	DB	'attle] Entered User Over UserCount [%d]', 00H ; `string'
CONST	ENDS
;	COMDAT ??_C@_0DF@FMIEONML@?$FLArcaBattle?$FN?$FLMonsterGroupRegen?$FN?5@
CONST	SEGMENT
??_C@_0DF@FMIEONML@?$FLArcaBattle?$FN?$FLMonsterGroupRegen?$FN?5@ DB '[Ar'
	DB	'caBattle][MonsterGroupRegen] Delete Monster - %d ', 00H ; `string'
CONST	ENDS
;	COMDAT ??_C@_0EF@CHADKLEI@?9?$KG?$KM?c?9?kL?$PP?5?$CL?d?$KG?$CL?5?$CL?9?$KM?q?5?9?$PO?$CL?$KB?5?$CFd?$CL?$KG?5?$KG?9?9@
CONST	SEGMENT
??_C@_0EF@CHADKLEI@?9?$KG?$KM?c?9?kL?$PP?5?$CL?d?$KG?$CL?5?$CL?9?$KM?q?5?9?$PO?$CL?$KB?5?$CFd?$CL?$KG?5?$KG?9?9@ DB '-'
	DB	0a6H, 0acH, 0e3H, '-', 0ebH, 'L', 0ffH, ' +', 0e4H, 0a6H, '+ +'
	DB	'-', 0acH, 0f1H, ' -', 0feH, '+', 0a1H, ' %d+', 0a6H, ' ', 0a6H
	DB	'--T-L+', 0a6H, '+-.+-', 0acH, 0e5H, ' +', 0e4H, 0a6H, '+', 0acH
	DB	'+ L', 0a6H, 0a6H, 0acH, 0a6H, '+ +', 0e3H, '-', 0a6H, '-+', 0acH
	DB	'L.', 00H					; `string'
CONST	ENDS
;	COMDAT ??_C@_0EG@LOLHIIII@?9?$KG?$KM?c?9?kL?$PP?5?$CL?d?$KG?$CL?5?$CL?9?$KM?q?5?9?$PO?$CL?$KB?5?$CFd?$KG?$KG?5?$KG?9?9@
CONST	SEGMENT
??_C@_0EG@LOLHIIII@?9?$KG?$KM?c?9?kL?$PP?5?$CL?d?$KG?$CL?5?$CL?9?$KM?q?5?9?$PO?$CL?$KB?5?$CFd?$KG?$KG?5?$KG?9?9@ DB '-'
	DB	0a6H, 0acH, 0e3H, '-', 0ebH, 'L', 0ffH, ' +', 0e4H, 0a6H, '+ +'
	DB	'-', 0acH, 0f1H, ' -', 0feH, '+', 0a1H, ' %d', 0a6H, 0a6H, ' ', 0a6H
	DB	'--T-L+', 0a6H, '+-. +-', 0acH, 0e5H, ' +', 0e4H, 0a6H, '+', 0acH
	DB	'+ L', 0a6H, 0a6H, 0acH, 0a6H, '+ +', 0e3H, '-', 0a6H, '-+', 0acH
	DB	'L.', 00H					; `string'
CONST	ENDS
;	COMDAT ??_C@_0EE@BDAJDHLP@?$FLArcaBattle?$FN?5?9?$KG?$KM?c?9?kL?$PPL?$KG?5?$CL?9?$KM?q?$KG?$KG?9?$LH@
CONST	SEGMENT
??_C@_0EE@BDAJDHLP@?$FLArcaBattle?$FN?5?9?$KG?$KM?c?9?kL?$PPL?$KG?5?$CL?9?$KM?q?$KG?$KG?9?$LH@ DB '['
	DB	'ArcaBattle] -', 0a6H, 0acH, 0e3H, '-', 0ebH, 'L', 0ffH, 'L', 0a6H
	DB	' +-', 0acH, 0f1H, 0a6H, 0a6H, '-', 0b7H, '-L+', 0a6H, '+-. %d'
	DB	'+', 0a6H, ' L- ', 0acH, 0a6H, 'L', 0acH, 0acH, '+ L', 0a6H, 0a6H
	DB	0acH, ' ', 0a6H, '-+', 0a6H, '+-.', 00H	; `string'
CONST	ENDS
;	COMDAT ??_C@_0DA@GPJNNEOE@?$FLArcaBattle?$FN?5?9?$KG?$KM?c?9?kL?$PP?5?$CL?9?$KM?q?9?$PO?$CL?$KB?5?$CF@
CONST	SEGMENT
??_C@_0DA@GPJNNEOE@?$FLArcaBattle?$FN?5?9?$KG?$KM?c?9?kL?$PP?5?$CL?9?$KM?q?9?$PO?$CL?$KB?5?$CF@ DB '['
	DB	'ArcaBattle] -', 0a6H, 0acH, 0e3H, '-', 0ebH, 'L', 0ffH, ' +-', 0acH
	DB	0f1H, '-', 0feH, '+', 0a1H, ' %d+', 0a6H, ' ', 0a6H, '--T-L+', 0a6H
	DB	'+-.', 00H					; `string'
CONST	ENDS
;	COMDAT ??_C@_0DA@NNBEFGFD@?$FLArcaBattle?$FN?5?9?$KG?$KM?c?9?kL?$PP?5?$CL?9?$KM?q?9?$PO?$CL?$KB?5?$CF@
CONST	SEGMENT
??_C@_0DA@NNBEFGFD@?$FLArcaBattle?$FN?5?9?$KG?$KM?c?9?kL?$PP?5?$CL?9?$KM?q?9?$PO?$CL?$KB?5?$CF@ DB '['
	DB	'ArcaBattle] -', 0a6H, 0acH, 0e3H, '-', 0ebH, 'L', 0ffH, ' +-', 0acH
	DB	0f1H, '-', 0feH, '+', 0a1H, ' %d', 0a6H, 0a6H, ' ', 0a6H, '--T'
	DB	'-L+', 0a6H, '+-.', 00H			; `string'
CONST	ENDS
;	COMDAT ??_C@_0GL@MJPIEKCI@?$FLArcaBattle?$FN?$KM?w?$KG?c?$CL?$DN?$KM?a?5?$KML?$KG?g?$KM?n?9?$KG?$CL?i?9@
CONST	SEGMENT
??_C@_0GL@MJPIEKCI@?$FLArcaBattle?$FN?$KM?w?$KG?c?$CL?$DN?$KM?a?5?$KML?$KG?g?$KM?n?9?$KG?$CL?i?9@ DB '['
	DB	'ArcaBattle]', 0acH, 0f7H, 0a6H, 0e3H, '+=', 0acH, 0e1H, ' ', 0acH
	DB	'L', 0a6H, 0e7H, 0acH, 0eeH, '-', 0a6H, '+', 0e9H, '-', 0e1H, ' '
	DB	0acH, 0a4H, '-', 0a6H, 0a6H, 0a6H, '-', 0b7H, '-L+', 0a6H, '+-'
	DB	'. ', 0acH, 'L', 0a6H, 0e7H, 0acH, 0eeH, '-', 0a6H, '+', 0e9H, 0acH
	DB	0e6H, ' +', 0e1H, 0acH, 0e3H, 0a6H, '+--', 0acH, 0acH, ' -', 0a6H
	DB	0acH, 0e3H, '-', 0ebH, 'L', 0ffH, 0acH, 0e1H, '-', 0edH, ' -T', 0acH
	DB	0eeH, 0a6H, 'T -', 0a1H, ' L', 0e3H, '-L+', 0a6H, '+-.', 00H ; `string'
CONST	ENDS
;	COMDAT ??_C@_0CF@KOBNNKAP@?$FLArcaBattle?$FN?5?9?$KG?$KM?c?9?kL?$PP?5?$KG?9?$KG?9?5?$CL?$PL?9?r?5@
CONST	SEGMENT
??_C@_0CF@KOBNNKAP@?$FLArcaBattle?$FN?5?9?$KG?$KM?c?9?kL?$PP?5?$KG?9?$KG?9?5?$CL?$PL?9?r?5@ DB '['
	DB	'ArcaBattle] -', 0a6H, 0acH, 0e3H, '-', 0ebH, 'L', 0ffH, ' ', 0a6H
	DB	'-', 0a6H, '- +', 0fbH, '-', 0f2H, ' ', 0acH, 0a6H, 0acH, 0f1H
	DB	00H						; `string'
CONST	ENDS
;	COMDAT ??_C@_0EL@PJDCDIBI@?$FLArcaBattle?$FN?5?9?$KG?$KM?c?9?kL?$PPL?$KG?5?$KM?m?$KML?9L?$CL?$KG@
CONST	SEGMENT
??_C@_0EL@PJDCDIBI@?$FLArcaBattle?$FN?5?9?$KG?$KM?c?9?kL?$PPL?$KG?5?$KM?m?$KML?9L?$CL?$KG@ DB '['
	DB	'ArcaBattle] -', 0a6H, 0acH, 0e3H, '-', 0ebH, 'L', 0ffH, 'L', 0a6H
	DB	' ', 0acH, 0edH, 0acH, 'L-L+', 0a6H, '+-. ', 0acH, 0a6H, '-', 0a6H
	DB	0a6H, 0a6H, '-', 0f6H, ' NPC', 0acH, 0e6H, ' +', 0fbH, 0a6H, '+'
	DB	' LLL', 0f5H, 'L', 0a6H, ' -', 0e1H, '+', 0e3H, 0a6H, '-+', 0a6H
	DB	'+-.', 00H					; `string'
CONST	ENDS
;	COMDAT ??_C@_0FB@HOMPCHDA@?$FLArcaBattle?$FN?5?9?$KG?$KM?c?9?kL?$PP?5?9?$CLL?9?9?$PO?$CL?$KB?5?$CF@
CONST	SEGMENT
??_C@_0FB@HOMPCHDA@?$FLArcaBattle?$FN?5?9?$KG?$KM?c?9?kL?$PP?5?9?$CLL?9?9?$PO?$CL?$KB?5?$CF@ DB '['
	DB	'ArcaBattle] -', 0a6H, 0acH, 0e3H, '-', 0ebH, 'L', 0ffH, ' -+L'
	DB	'--', 0feH, '+', 0a1H, ' %d+', 0a6H, ' ', 0a6H, '--T-L+', 0a6H
	DB	'+-. -LL', 0b9H, 0a6H, 'T +', 0a1H, 0acH, 0eaH, 0acH, 0e1H, '-'
	DB	0edH, ' +', 0fbH, '-', 0f2H, 0a6H, '+ +', 0e3H, '-', 0a6H, '-+'
	DB	0acH, 0f4H, '.', 00H				; `string'
CONST	ENDS
;	COMDAT ??_C@_0CA@JLPPIFKE@?$FLArcaBattle?$FN?5?9?$KG?$KM?c?9?kL?$PP?5?$KG?$PO?$KM?$KG?5?$KM?$KG?$KM?q?$AA@
CONST	SEGMENT
??_C@_0CA@JLPPIFKE@?$FLArcaBattle?$FN?5?9?$KG?$KM?c?9?kL?$PP?5?$KG?$PO?$KM?$KG?5?$KM?$KG?$KM?q?$AA@ DB '['
	DB	'ArcaBattle] -', 0a6H, 0acH, 0e3H, '-', 0ebH, 'L', 0ffH, ' ', 0a6H
	DB	0feH, 0acH, 0a6H, ' ', 0acH, 0a6H, 0acH, 0f1H, 00H ; `string'
CONST	ENDS
;	COMDAT ??_C@_0DK@CBAHDJAJ@?$FLArcaBattle?$FN?5?9?$KG?$KM?c?9?kL?$PP?5?9?v?$KG?u?$KM?$LA?5?$KG?$PO?$KM@
CONST	SEGMENT
??_C@_0DK@CBAHDJAJ@?$FLArcaBattle?$FN?5?9?$KG?$KM?c?9?kL?$PP?5?9?v?$KG?u?$KM?$LA?5?$KG?$PO?$KM@ DB '['
	DB	'ArcaBattle] -', 0a6H, 0acH, 0e3H, '-', 0ebH, 'L', 0ffH, ' -', 0f6H
	DB	0a6H, 0f5H, 0acH, 0b0H, ' ', 0a6H, 0feH, 0acH, 0a6H, ' -+-', 0e3H
	DB	'L', 0a6H, ' %d', 0a6H, 0a6H, ' ', 0a6H, '--T-L+', 0a6H, '+-.', 00H ; `string'
CONST	ENDS
;	COMDAT ??_C@_0CH@LADMGAOH@?$FLArcaBattle?$FN?5?9?$KG?$KM?c?9?kL?$PP?5?9?v?$KG?u?$KM?$LA?5?$KG?$PO?$KM@
CONST	SEGMENT
??_C@_0CH@LADMGAOH@?$FLArcaBattle?$FN?5?9?$KG?$KM?c?9?kL?$PP?5?9?v?$KG?u?$KM?$LA?5?$KG?$PO?$KM@ DB '['
	DB	'ArcaBattle] -', 0a6H, 0acH, 0e3H, '-', 0ebH, 'L', 0ffH, ' -', 0f6H
	DB	0a6H, 0f5H, 0acH, 0b0H, ' ', 0a6H, 0feH, 0acH, 0a6H, ' -+L-', 00H ; `string'
CONST	ENDS
;	COMDAT ??_C@_0DK@LOHLFLGA@?$FLArcaBattle?$FN?5?9?$KG?$KM?c?9?kL?$PP?5?9?v?$KG?uL?u?5?$KG?$PO?$KM@
CONST	SEGMENT
??_C@_0DK@LOHLFLGA@?$FLArcaBattle?$FN?5?9?$KG?$KM?c?9?kL?$PP?5?9?v?$KG?uL?u?5?$KG?$PO?$KM@ DB '['
	DB	'ArcaBattle] -', 0a6H, 0acH, 0e3H, '-', 0ebH, 'L', 0ffH, ' -', 0f6H
	DB	0a6H, 0f5H, 'L', 0f5H, ' ', 0a6H, 0feH, 0acH, 0a6H, ' -+-', 0e3H
	DB	'L', 0a6H, ' %d', 0a6H, 0a6H, ' ', 0a6H, '--T-L+', 0a6H, '+-.', 00H ; `string'
CONST	ENDS
;	COMDAT ??_C@_0BO@PADLLFDO@?$FLArcaBattle?$FN?5ArcaBattle?5Start?$AA@
CONST	SEGMENT
??_C@_0BO@PADLLFDO@?$FLArcaBattle?$FN?5ArcaBattle?5Start?$AA@ DB '[ArcaBa'
	DB	'ttle] ArcaBattle Start', 00H		; `string'
CONST	ENDS
;	COMDAT ??_C@_0DP@FOHPCHEJ@?$FLArcaBattle?$FN?5CArcaBattle?3?3DBData@
CONST	SEGMENT
??_C@_0DP@FOHPCHEJ@?$FLArcaBattle?$FN?5CArcaBattle?3?3DBData@ DB '[ArcaBa'
	DB	'ttle] CArcaBattle::DBDataRequest() - REQUEST DATA AGAIN', 00H ; `string'
CONST	ENDS
;	COMDAT ??_C@_0DP@BPHKINJM@?$FLArcaBattle?$FN?5CArcaBattle?3?3DBData@
CONST	SEGMENT
??_C@_0DP@BPHKINJM@?$FLArcaBattle?$FN?5CArcaBattle?3?3DBData@ DB '[ArcaBa'
	DB	'ttle] CArcaBattle::DBDataRequest() - REQUEST DATA FIRST', 00H ; `string'
CONST	ENDS
;	COMDAT ??_C@_0FD@GHIBJCOE@?$FLArcaBattle?$FN?5Add?5Winning?5Guild?5I@
CONST	SEGMENT
??_C@_0FD@GHIBJCOE@?$FLArcaBattle?$FN?5Add?5Winning?5Guild?5I@ DB '[ArcaB'
	DB	'attle] Add Winning Guild Info GuildName[%s] ObeliskAttr[%d] O'
	DB	'beliskGroup[%d]', 00H			; `string'
CONST	ENDS
;	COMDAT ??_C@_0EE@HABGEPCF@?$FLArcaBattle?$FN?5Remove?5Buff?5?$FL?$CFs?$FN?$FL?$CFs@
CONST	SEGMENT
??_C@_0EE@HABGEPCF@?$FLArcaBattle?$FN?5Remove?5Buff?5?$FL?$CFs?$FN?$FL?$CFs@ DB '['
	DB	'ArcaBattle] Remove Buff [%s][%s][%s] GuildName [%s] BuffIndex'
	DB	' [%d]', 00H					; `string'
CONST	ENDS
;	COMDAT ??_C@_0FE@CNKNKAAD@?$FLArcaBattle?$FN?5Error?5Can?5Not?5Find?5@
CONST	SEGMENT
??_C@_0FE@CNKNKAAD@?$FLArcaBattle?$FN?5Error?5Can?5Not?5Find?5@ DB '[Arca'
	DB	'Battle] Error Can Not Find Guild RemoveGuildBuff() lpGuild NU'
	DB	'LL GuildName : %s', 00H			; `string'
CONST	ENDS
;	COMDAT ??_C@_0EG@IPBMLHEM@?$FLArcaBattle?$FN?5Remove?5All?5Reward?5G@
CONST	SEGMENT
??_C@_0EG@IPBMLHEM@?$FLArcaBattle?$FN?5Remove?5All?5Reward?5G@ DB '[ArcaB'
	DB	'attle] Remove All Reward Guild Buff GuildName[%s] BuffIndex[%'
	DB	'd]', 00H					; `string'
CONST	ENDS
;	COMDAT ??_C@_0DM@GNFLODJA@?$FLArcaBAttle?$FN?5Request?5MultiCast?5R@
CONST	SEGMENT
??_C@_0DM@GNFLODJA@?$FLArcaBAttle?$FN?5Request?5MultiCast?5R@ DB '[ArcaBA'
	DB	'ttle] Request MultiCast Remove All Reward Guild Buff', 00H ; `string'
CONST	ENDS
;	COMDAT ??_C@_0DH@PIJJJHJH@?$FLArcaBAttle?$FN?5Request?5ExDB?5Delete@
CONST	SEGMENT
??_C@_0DH@PIJJJHJH@?$FLArcaBAttle?$FN?5Request?5ExDB?5Delete@ DB '[ArcaBA'
	DB	'ttle] Request ExDB Delete All Reward Guild Buff', 00H ; `string'
CONST	ENDS
;	COMDAT ??_C@_0DD@OCCKNDI@?$FLArcaBAttle?$FN?5Request?5ExDB?5Delete@
CONST	SEGMENT
??_C@_0DD@OCCKNDI@?$FLArcaBAttle?$FN?5Request?5ExDB?5Delete@ DB '[ArcaBAt'
	DB	'tle] Request ExDB Delete Reward Guild Buff', 00H ; `string'
CONST	ENDS
;	COMDAT ??_C@_0DK@DCBBIPPH@?$FLArcaBattle?$FN?5Reward?5GuildBuff?5Gu@
CONST	SEGMENT
??_C@_0DK@DCBBIPPH@?$FLArcaBattle?$FN?5Reward?5GuildBuff?5Gu@ DB '[ArcaBa'
	DB	'ttle] Reward GuildBuff GuildName[%s] BuffIndex[%d]', 00H ; `string'
CONST	ENDS
;	COMDAT ??_C@_0HD@PLPAMELL@?$FLArcaBattle?$FN?$FLError?$FN?5GiveRewardBu@
CONST	SEGMENT
??_C@_0HD@PLPAMELL@?$FLArcaBattle?$FN?$FLError?$FN?5GiveRewardBu@ DB '[Ar'
	DB	'caBattle][Error] GiveRewardBuffWinningGuild() GuildInfo is NU'
	DB	'LL GuildName : %s ObeliskAttr : %d ObeliskGroup %d', 00H ; `string'
CONST	ENDS
;	COMDAT ??_C@_0CI@ELBEEKCP@?$FLArcaBattle?$FN?5Error?5Obelisk?5Attri@
CONST	SEGMENT
??_C@_0CI@ELBEEKCP@?$FLArcaBattle?$FN?5Error?5Obelisk?5Attri@ DB '[ArcaBa'
	DB	'ttle] Error Obelisk Attribute %d', 00H	; `string'
CONST	ENDS
;	COMDAT ??_C@_0BM@DGJFADNJ@?$FLArcaBattle?$FN?5Send?5Play?5Data?$AA@
CONST	SEGMENT
??_C@_0BM@DGJFADNJ@?$FLArcaBattle?$FN?5Send?5Play?5Data?$AA@ DB '[ArcaBat'
	DB	'tle] Send Play Data', 00H			; `string'
CONST	ENDS
;	COMDAT ??_C@_0DM@IJLFDMAD@Send?5ObeliskInfo?5iGroupNumber?5m_@
CONST	SEGMENT
??_C@_0DM@IJLFDMAD@Send?5ObeliskInfo?5iGroupNumber?5m_@ DB 'Send ObeliskI'
	DB	'nfo iGroupNumber m_iAuraPosX %d m_iAuraPosY %d', 00H ; `string'
CONST	ENDS
;	COMDAT ??_C@_0EJ@OPKHJAF@Send?5ObeliskInfo?5iGroupNumber?5?$CFd@
CONST	SEGMENT
??_C@_0EJ@OPKHJAF@Send?5ObeliskInfo?5iGroupNumber?5?$CFd@ DB 'Send Obelis'
	DB	'kInfo iGroupNumber %d iAttr %d iMapIndex %d iPosX %d iPosY %d'
	DB	00H						; `string'
CONST	ENDS
;	COMDAT ??_C@_0DH@CABOAONH@?$FLArcaBattle?$FN?$FLBootyExchange?$FN?5Erro@
CONST	SEGMENT
??_C@_0DH@CABOAONH@?$FLArcaBattle?$FN?$FLBootyExchange?$FN?5Erro@ DB '[Ar'
	DB	'caBattle][BootyExchange] Error Overflow iRewardItem', 00H ; `string'
CONST	ENDS
;	COMDAT ??_C@_0DM@IMNBJCCJ@?$FLArcaBattle?$FN?$FLBootyExchange?$FN?5Erro@
CONST	SEGMENT
??_C@_0DM@IMNBJCCJ@?$FLArcaBattle?$FN?$FLBootyExchange?$FN?5Erro@ DB '[Ar'
	DB	'caBattle][BootyExchange] Error GetBootyRewardItem() NULL', 00H ; `string'
CONST	ENDS
;	COMDAT ??_C@_0DM@MHCDLNKM@?$FLArcaBattle?$FN?5BootyMix?5?$CFs?5File?5Lo@
CONST	SEGMENT
??_C@_0DM@MHCDLNKM@?$FLArcaBattle?$FN?5BootyMix?5?$CFs?5File?5Lo@ DB '[Ar'
	DB	'caBattle] BootyMix %s File Load Error - BootyMixCnt Over', 00H ; `string'
CONST	ENDS
;	COMDAT ??_C@_03JBJLGPFL@end?$AA@
CONST	SEGMENT
??_C@_03JBJLGPFL@end?$AA@ DB 'end', 00H			; `string'
CONST	ENDS
;	COMDAT ??_C@_0CP@OFJFMFJN@?$FLArcaBattle?$FN?$FLBootyExchange?$FN?5?$CFs?5F@
CONST	SEGMENT
??_C@_0CP@OFJFMFJN@?$FLArcaBattle?$FN?$FLBootyExchange?$FN?5?$CFs?5F@ DB '['
	DB	'ArcaBattle][BootyExchange] %s File Load Error', 00H ; `string'
CONST	ENDS
;	COMDAT ??_C@_01KDCPPGHE@r?$AA@
CONST	SEGMENT
??_C@_01KDCPPGHE@r?$AA@ DB 'r', 00H			; `string'
CONST	ENDS
;	COMDAT ??_C@_00CNPNBAHC@?$AA@
CONST	SEGMENT
??_C@_00CNPNBAHC@?$AA@ DB 00H				; `string'
CONST	ENDS
;	COMDAT xdata$x
xdata$x	SEGMENT
__sehtable$?GetBoxPosition@CArcaBattle@@QAEHHHHHHAAE0@Z DD 0fffffffeH
	DD	00H
	DD	0ffffffc4H
	DD	00H
	DD	0fffffffeH
	DD	FLAT:$LN16@GetBoxPosi
	DD	FLAT:$LN9@GetBoxPosi
xdata$x	ENDS
;	COMDAT xdata$x
xdata$x	SEGMENT
__ehfuncinfo$??_EOBJECTSTRUCT@@QAEPAXI@Z DD 019930522H
	DD	00H
	DD	00H
	DD	2 DUP(00H)
	DD	2 DUP(00H)
	DD	00H
	DD	05H
xdata$x	ENDS
; Function compile flags: /Ogtp
; File c:\program files (x86)\microsoft visual studio 14.0\vc\include\xmemory0
;	COMDAT ??$destroy@U_tagARCA_BATTLE_START_TIME@@@?$allocator@U_tagARCA_BATTLE_START_TIME@@@std@@QAEXPAU_tagARCA_BATTLE_START_TIME@@@Z
_TEXT	SEGMENT
__Ptr$ = 8						; size = 4
??$destroy@U_tagARCA_BATTLE_START_TIME@@@?$allocator@U_tagARCA_BATTLE_START_TIME@@@std@@QAEXPAU_tagARCA_BATTLE_START_TIME@@@Z PROC ; std::allocator<_tagARCA_BATTLE_START_TIME>::destroy<_tagARCA_BATTLE_START_TIME>, COMDAT
; _this$ = ecx

; 662  : 		_Ptr->~_Uty();
; 663  : 		}

  00000	c2 04 00	 ret	 4
??$destroy@U_tagARCA_BATTLE_START_TIME@@@?$allocator@U_tagARCA_BATTLE_START_TIME@@@std@@QAEXPAU_tagARCA_BATTLE_START_TIME@@@Z ENDP ; std::allocator<_tagARCA_BATTLE_START_TIME>::destroy<_tagARCA_BATTLE_START_TIME>
_TEXT	ENDS
; Function compile flags: /Ogtp
; File c:\program files (x86)\microsoft visual studio 14.0\vc\include\xmemory0
;	COMDAT ??$destroy@U_tagARCA_BATTLE_START_TIME@@@?$allocator_traits@V?$allocator@U_tagARCA_BATTLE_START_TIME@@@std@@@std@@SAXAAV?$allocator@U_tagARCA_BATTLE_START_TIME@@@1@PAU_tagARCA_BATTLE_START_TIME@@@Z
_TEXT	SEGMENT
__Al$ = 8						; size = 4
__Ptr$ = 12						; size = 4
??$destroy@U_tagARCA_BATTLE_START_TIME@@@?$allocator_traits@V?$allocator@U_tagARCA_BATTLE_START_TIME@@@std@@@std@@SAXAAV?$allocator@U_tagARCA_BATTLE_START_TIME@@@1@PAU_tagARCA_BATTLE_START_TIME@@@Z PROC ; std::allocator_traits<std::allocator<_tagARCA_BATTLE_START_TIME> >::destroy<_tagARCA_BATTLE_START_TIME>, COMDAT

; 780  : 		_Al.destroy(_Ptr);
; 781  : 		}

  00000	c3		 ret	 0
??$destroy@U_tagARCA_BATTLE_START_TIME@@@?$allocator_traits@V?$allocator@U_tagARCA_BATTLE_START_TIME@@@std@@@std@@SAXAAV?$allocator@U_tagARCA_BATTLE_START_TIME@@@1@PAU_tagARCA_BATTLE_START_TIME@@@Z ENDP ; std::allocator_traits<std::allocator<_tagARCA_BATTLE_START_TIME> >::destroy<_tagARCA_BATTLE_START_TIME>
_TEXT	ENDS
; Function compile flags: /Ogtp
; File c:\program files (x86)\microsoft visual studio 14.0\vc\include\xstddef
;	COMDAT ??$_Addressof@U_tagARCA_BATTLE_START_TIME@@@std@@YAPAU_tagARCA_BATTLE_START_TIME@@AAU1@U?$integral_constant@_N$0A@@0@@Z
_TEXT	SEGMENT
__Val$ = 8						; size = 4
___formal$ = 12						; size = 1
??$_Addressof@U_tagARCA_BATTLE_START_TIME@@@std@@YAPAU_tagARCA_BATTLE_START_TIME@@AAU1@U?$integral_constant@_N$0A@@0@@Z PROC ; std::_Addressof<_tagARCA_BATTLE_START_TIME>, COMDAT

; 688  : 	{	// return address of object _Val

  00000	55		 push	 ebp
  00001	8b ec		 mov	 ebp, esp

; 689  : 	return (reinterpret_cast<_Ty *>(

  00003	8b 45 08	 mov	 eax, DWORD PTR __Val$[ebp]

; 690  : 		&const_cast<char&>(
; 691  : 		reinterpret_cast<const volatile char&>(_Val))));
; 692  : 	}

  00006	5d		 pop	 ebp
  00007	c3		 ret	 0
??$_Addressof@U_tagARCA_BATTLE_START_TIME@@@std@@YAPAU_tagARCA_BATTLE_START_TIME@@AAU1@U?$integral_constant@_N$0A@@0@@Z ENDP ; std::_Addressof<_tagARCA_BATTLE_START_TIME>
_TEXT	ENDS
; Function compile flags: /Ogtp
; File c:\program files (x86)\microsoft visual studio 14.0\vc\include\xmemory0
;	COMDAT ??$destroy@U_tagARCA_BATTLE_START_TIME@@@?$_Wrap_alloc@V?$allocator@U_tagARCA_BATTLE_START_TIME@@@std@@@std@@QAEXPAU_tagARCA_BATTLE_START_TIME@@@Z
_TEXT	SEGMENT
__Ptr$ = 8						; size = 4
??$destroy@U_tagARCA_BATTLE_START_TIME@@@?$_Wrap_alloc@V?$allocator@U_tagARCA_BATTLE_START_TIME@@@std@@@std@@QAEXPAU_tagARCA_BATTLE_START_TIME@@@Z PROC ; std::_Wrap_alloc<std::allocator<_tagARCA_BATTLE_START_TIME> >::destroy<_tagARCA_BATTLE_START_TIME>, COMDAT
; _this$ = ecx

; 925  : 		_Mytraits::destroy(*this, _Ptr);
; 926  : 		}

  00000	c2 04 00	 ret	 4
??$destroy@U_tagARCA_BATTLE_START_TIME@@@?$_Wrap_alloc@V?$allocator@U_tagARCA_BATTLE_START_TIME@@@std@@@std@@QAEXPAU_tagARCA_BATTLE_START_TIME@@@Z ENDP ; std::_Wrap_alloc<std::allocator<_tagARCA_BATTLE_START_TIME> >::destroy<_tagARCA_BATTLE_START_TIME>
_TEXT	ENDS
; Function compile flags: /Ogtp
; File c:\program files (x86)\microsoft visual studio 14.0\vc\include\xstddef
;	COMDAT ??$addressof@U_tagARCA_BATTLE_START_TIME@@@std@@YAPAU_tagARCA_BATTLE_START_TIME@@AAU1@@Z
_TEXT	SEGMENT
__Val$ = 8						; size = 4
??$addressof@U_tagARCA_BATTLE_START_TIME@@@std@@YAPAU_tagARCA_BATTLE_START_TIME@@AAU1@@Z PROC ; std::addressof<_tagARCA_BATTLE_START_TIME>, COMDAT

; 696  : 	{	// return address of _Val

  00000	55		 push	 ebp
  00001	8b ec		 mov	 ebp, esp

; 697  : 	return (_Addressof(_Val, is_function<_Ty>()));

  00003	8b 45 08	 mov	 eax, DWORD PTR __Val$[ebp]

; 698  : 	}

  00006	5d		 pop	 ebp
  00007	c3		 ret	 0
??$addressof@U_tagARCA_BATTLE_START_TIME@@@std@@YAPAU_tagARCA_BATTLE_START_TIME@@AAU1@@Z ENDP ; std::addressof<_tagARCA_BATTLE_START_TIME>
_TEXT	ENDS
; Function compile flags: /Ogtp
; File c:\program files (x86)\microsoft visual studio 14.0\vc\include\xmemory0
;	COMDAT ??$_Destroy_range@U?$_Wrap_alloc@V?$allocator@U_tagARCA_BATTLE_START_TIME@@@std@@@std@@@std@@YAXPAU_tagARCA_BATTLE_START_TIME@@0AAU?$_Wrap_alloc@V?$allocator@U_tagARCA_BATTLE_START_TIME@@@std@@@0@U_Nonscalar_ptr_iterator_tag@0@@Z
_TEXT	SEGMENT
__First$ = 8						; size = 4
__Last$ = 12						; size = 4
__Al$ = 16						; size = 4
___formal$ = 20						; size = 1
??$_Destroy_range@U?$_Wrap_alloc@V?$allocator@U_tagARCA_BATTLE_START_TIME@@@std@@@std@@@std@@YAXPAU_tagARCA_BATTLE_START_TIME@@0AAU?$_Wrap_alloc@V?$allocator@U_tagARCA_BATTLE_START_TIME@@@std@@@0@U_Nonscalar_ptr_iterator_tag@0@@Z PROC ; std::_Destroy_range<std::_Wrap_alloc<std::allocator<_tagARCA_BATTLE_START_TIME> > >, COMDAT

; 171  : 	for (; _First != _Last; ++_First)
; 172  : 		_Al.destroy(_STD addressof(*_First));
; 173  : 	}

  00000	c3		 ret	 0
??$_Destroy_range@U?$_Wrap_alloc@V?$allocator@U_tagARCA_BATTLE_START_TIME@@@std@@@std@@@std@@YAXPAU_tagARCA_BATTLE_START_TIME@@0AAU?$_Wrap_alloc@V?$allocator@U_tagARCA_BATTLE_START_TIME@@@std@@@0@U_Nonscalar_ptr_iterator_tag@0@@Z ENDP ; std::_Destroy_range<std::_Wrap_alloc<std::allocator<_tagARCA_BATTLE_START_TIME> > >
_TEXT	ENDS
; Function compile flags: /Ogtp
; File c:\program files (x86)\microsoft visual studio 14.0\vc\include\xutility
;	COMDAT ??$_Ptr_cat@U_tagARCA_BATTLE_START_TIME@@U1@@std@@YA?AU_Nonscalar_ptr_iterator_tag@0@PAU_tagARCA_BATTLE_START_TIME@@0@Z
_TEXT	SEGMENT
__Cat$ = -1						; size = 1
___formal$ = 8						; size = 4
___formal$ = 12						; size = 4
??$_Ptr_cat@U_tagARCA_BATTLE_START_TIME@@U1@@std@@YA?AU_Nonscalar_ptr_iterator_tag@0@PAU_tagARCA_BATTLE_START_TIME@@0@Z PROC ; std::_Ptr_cat<_tagARCA_BATTLE_START_TIME,_tagARCA_BATTLE_START_TIME>, COMDAT

; 640  : 	{	// return pointer category from pointers

  00000	55		 push	 ebp
  00001	8b ec		 mov	 ebp, esp
  00003	51		 push	 ecx

; 641  : 	typename _Ptr_cat_helper<_Elem1, _Elem2>::type _Cat;
; 642  : 	return (_Cat);

  00004	8a 45 ff	 mov	 al, BYTE PTR __Cat$[ebp]

; 643  : 	}

  00007	8b e5		 mov	 esp, ebp
  00009	5d		 pop	 ebp
  0000a	c3		 ret	 0
??$_Ptr_cat@U_tagARCA_BATTLE_START_TIME@@U1@@std@@YA?AU_Nonscalar_ptr_iterator_tag@0@PAU_tagARCA_BATTLE_START_TIME@@0@Z ENDP ; std::_Ptr_cat<_tagARCA_BATTLE_START_TIME,_tagARCA_BATTLE_START_TIME>
_TEXT	ENDS
; Function compile flags: /Ogtp
; File c:\program files (x86)\microsoft visual studio 14.0\vc\include\type_traits
;	COMDAT ??$forward@ABV?$allocator@U_tagARCA_BATTLE_START_TIME@@@std@@@std@@YAABV?$allocator@U_tagARCA_BATTLE_START_TIME@@@0@ABV10@@Z
_TEXT	SEGMENT
__Arg$ = 8						; size = 4
??$forward@ABV?$allocator@U_tagARCA_BATTLE_START_TIME@@@std@@@std@@YAABV?$allocator@U_tagARCA_BATTLE_START_TIME@@@0@ABV10@@Z PROC ; std::forward<std::allocator<_tagARCA_BATTLE_START_TIME> const &>, COMDAT

; 1233 : 	{	// forward an lvalue as either an lvalue or an rvalue

  00000	55		 push	 ebp
  00001	8b ec		 mov	 ebp, esp

; 1234 : 	return (static_cast<_Ty&&>(_Arg));

  00003	8b 45 08	 mov	 eax, DWORD PTR __Arg$[ebp]

; 1235 : 	}

  00006	5d		 pop	 ebp
  00007	c3		 ret	 0
??$forward@ABV?$allocator@U_tagARCA_BATTLE_START_TIME@@@std@@@std@@YAABV?$allocator@U_tagARCA_BATTLE_START_TIME@@@0@ABV10@@Z ENDP ; std::forward<std::allocator<_tagARCA_BATTLE_START_TIME> const &>
_TEXT	ENDS
; Function compile flags: /Ogtp
; File c:\program files (x86)\microsoft visual studio 14.0\vc\include\xmemory0
;	COMDAT ??$_Destroy_range@U?$_Wrap_alloc@V?$allocator@U_tagARCA_BATTLE_START_TIME@@@std@@@std@@@std@@YAXPAU_tagARCA_BATTLE_START_TIME@@0AAU?$_Wrap_alloc@V?$allocator@U_tagARCA_BATTLE_START_TIME@@@std@@@0@@Z
_TEXT	SEGMENT
__First$ = 8						; size = 4
__Last$ = 12						; size = 4
__Al$ = 16						; size = 4
??$_Destroy_range@U?$_Wrap_alloc@V?$allocator@U_tagARCA_BATTLE_START_TIME@@@std@@@std@@@std@@YAXPAU_tagARCA_BATTLE_START_TIME@@0AAU?$_Wrap_alloc@V?$allocator@U_tagARCA_BATTLE_START_TIME@@@std@@@0@@Z PROC ; std::_Destroy_range<std::_Wrap_alloc<std::allocator<_tagARCA_BATTLE_START_TIME> > >, COMDAT

; 186  : 	_Destroy_range(_First, _Last, _Al, _Ptr_cat(_First, _Last));
; 187  : 	}

  00000	c3		 ret	 0
??$_Destroy_range@U?$_Wrap_alloc@V?$allocator@U_tagARCA_BATTLE_START_TIME@@@std@@@std@@@std@@YAXPAU_tagARCA_BATTLE_START_TIME@@0AAU?$_Wrap_alloc@V?$allocator@U_tagARCA_BATTLE_START_TIME@@@std@@@0@@Z ENDP ; std::_Destroy_range<std::_Wrap_alloc<std::allocator<_tagARCA_BATTLE_START_TIME> > >
_TEXT	ENDS
; Function compile flags: /Ogtp
; File c:\program files (x86)\microsoft visual studio 14.0\vc\include\xutility
; File c:\program files (x86)\microsoft visual studio 14.0\vc\include\vector
; File c:\program files (x86)\microsoft visual studio 14.0\vc\include\xutility
; File c:\program files (x86)\microsoft visual studio 14.0\vc\include\vector
; File c:\program files (x86)\microsoft visual studio 14.0\vc\include\xutility
;	COMDAT ??$?0ABV?$allocator@U_tagARCA_BATTLE_START_TIME@@@std@@$$V@?$_Compressed_pair@U?$_Wrap_alloc@V?$allocator@U_tagARCA_BATTLE_START_TIME@@@std@@@std@@V?$_Vector_val@U?$_Simple_types@U_tagARCA_BATTLE_START_TIME@@@std@@@2@$00@std@@QAE@U_One_then_variadic_args_t@1@ABV?$allocator@U_tagARCA_BATTLE_START_TIME@@@1@@Z
_TEXT	SEGMENT
___formal$ = 8						; size = 1
__Val1$ = 12						; size = 4
??$?0ABV?$allocator@U_tagARCA_BATTLE_START_TIME@@@std@@$$V@?$_Compressed_pair@U?$_Wrap_alloc@V?$allocator@U_tagARCA_BATTLE_START_TIME@@@std@@@std@@V?$_Vector_val@U?$_Simple_types@U_tagARCA_BATTLE_START_TIME@@@std@@@2@$00@std@@QAE@U_One_then_variadic_args_t@1@ABV?$allocator@U_tagARCA_BATTLE_START_TIME@@@1@@Z PROC ; std::_Compressed_pair<std::_Wrap_alloc<std::allocator<_tagARCA_BATTLE_START_TIME> >,std::_Vector_val<std::_Simple_types<_tagARCA_BATTLE_START_TIME> >,1>::_Compressed_pair<std::_Wrap_alloc<std::allocator<_tagARCA_BATTLE_START_TIME> >,std::_Vector_val<std::_Simple_types<_tagARCA_BATTLE_START_TIME> >,1><std::allocator<_tagARCA_BATTLE_START_TIME> const &>, COMDAT
; _this$ = ecx
; File c:\program files (x86)\microsoft visual studio 14.0\vc\include\vector

; 480  : 		_Myfirst = pointer();

  00000	c7 01 00 00 00
	00		 mov	 DWORD PTR [ecx], 0
; File c:\program files (x86)\microsoft visual studio 14.0\vc\include\xutility

; 289  : 		}

  00006	8b c1		 mov	 eax, ecx
; File c:\program files (x86)\microsoft visual studio 14.0\vc\include\vector

; 481  : 		_Mylast = pointer();

  00008	c7 41 04 00 00
	00 00		 mov	 DWORD PTR [ecx+4], 0

; 482  : 		_Myend = pointer();

  0000f	c7 41 08 00 00
	00 00		 mov	 DWORD PTR [ecx+8], 0
; File c:\program files (x86)\microsoft visual studio 14.0\vc\include\xutility

; 289  : 		}

  00016	c2 08 00	 ret	 8
??$?0ABV?$allocator@U_tagARCA_BATTLE_START_TIME@@@std@@$$V@?$_Compressed_pair@U?$_Wrap_alloc@V?$allocator@U_tagARCA_BATTLE_START_TIME@@@std@@@std@@V?$_Vector_val@U?$_Simple_types@U_tagARCA_BATTLE_START_TIME@@@std@@@2@$00@std@@QAE@U_One_then_variadic_args_t@1@ABV?$allocator@U_tagARCA_BATTLE_START_TIME@@@1@@Z ENDP ; std::_Compressed_pair<std::_Wrap_alloc<std::allocator<_tagARCA_BATTLE_START_TIME> >,std::_Vector_val<std::_Simple_types<_tagARCA_BATTLE_START_TIME> >,1>::_Compressed_pair<std::_Wrap_alloc<std::allocator<_tagARCA_BATTLE_START_TIME> >,std::_Vector_val<std::_Simple_types<_tagARCA_BATTLE_START_TIME> >,1><std::allocator<_tagARCA_BATTLE_START_TIME> const &>
_TEXT	ENDS
; Function compile flags: /Ogtp
;	COMDAT ??__Fg_ArcaBattle@@YAXXZ
text$yd	SEGMENT
??__Fg_ArcaBattle@@YAXXZ PROC				; `dynamic atexit destructor for 'g_ArcaBattle'', COMDAT
  00000	b9 00 00 00 00	 mov	 ecx, OFFSET ?g_ArcaBattle@@3VCArcaBattle@@A ; g_ArcaBattle
  00005	e9 00 00 00 00	 jmp	 ??1CArcaBattle@@QAE@XZ	; CArcaBattle::~CArcaBattle
??__Fg_ArcaBattle@@YAXXZ ENDP				; `dynamic atexit destructor for 'g_ArcaBattle''
text$yd	ENDS
; Function compile flags: /Ogtp
; File c:\users\michel\desktop\source\gameserver\source\arcabattle.cpp
;	COMDAT ??__Eg_ArcaBattle@@YAXXZ
text$di	SEGMENT
??__Eg_ArcaBattle@@YAXXZ PROC				; `dynamic initializer for 'g_ArcaBattle'', COMDAT

; 16   : CArcaBattle g_ArcaBattle; //Line: 30

  00000	b9 00 00 00 00	 mov	 ecx, OFFSET ?g_ArcaBattle@@3VCArcaBattle@@A ; g_ArcaBattle
  00005	e8 00 00 00 00	 call	 ??0CArcaBattle@@QAE@XZ	; CArcaBattle::CArcaBattle
  0000a	68 00 00 00 00	 push	 OFFSET ??__Fg_ArcaBattle@@YAXXZ ; `dynamic atexit destructor for 'g_ArcaBattle''
  0000f	e8 00 00 00 00	 call	 _atexit
  00014	59		 pop	 ecx
  00015	c3		 ret	 0
??__Eg_ArcaBattle@@YAXXZ ENDP				; `dynamic initializer for 'g_ArcaBattle''
text$di	ENDS
; Function compile flags: /Ogtp
; File c:\users\michel\desktop\source\gameserver\source\mapservermanager.h
;	COMDAT ?GetMapSvrGroup@CMapServerManager@@QAEHXZ
_TEXT	SEGMENT
?GetMapSvrGroup@CMapServerManager@@QAEHXZ PROC		; CMapServerManager::GetMapSvrGroup, COMDAT
; _this$ = ecx

; 55   : 		if ( this->m_lpThisMapSvrData != NULL )

  00000	8b 81 f8 6a 01
	00		 mov	 eax, DWORD PTR [ecx+92920]
  00006	85 c0		 test	 eax, eax
  00008	74 05		 je	 SHORT $LN2@GetMapSvrG

; 56   : 		{
; 57   : 			return m_lpThisMapSvrData->m_btMAPSVR_GROUP;

  0000a	0f b6 40 08	 movzx	 eax, BYTE PTR [eax+8]

; 60   : 	}

  0000e	c3		 ret	 0
$LN2@GetMapSvrG:

; 58   : 		}
; 59   : 		return -1;

  0000f	83 c8 ff	 or	 eax, -1

; 60   : 	}

  00012	c3		 ret	 0
?GetMapSvrGroup@CMapServerManager@@QAEHXZ ENDP		; CMapServerManager::GetMapSvrGroup
_TEXT	ENDS
; Function compile flags: /Ogtp
; File c:\users\michel\desktop\source\gameserver\source\tnotice.h
;	COMDAT ?_ARGB@@YAKEEEE@Z
_TEXT	SEGMENT
_a$ = 8							; size = 1
_r$ = 12						; size = 1
_g$ = 16						; size = 1
_b$ = 20						; size = 1
?_ARGB@@YAKEEEE@Z PROC					; _ARGB, COMDAT

; 9    : __inline DWORD _ARGB(BYTE a, BYTE r, BYTE g, BYTE b){ return a*16777216 + b*65536 + g*256 + r;}; // in tnotice.h : line 8

  00000	55		 push	 ebp
  00001	8b ec		 mov	 ebp, esp
  00003	0f b6 45 08	 movzx	 eax, BYTE PTR _a$[ebp]
  00007	0f b6 4d 14	 movzx	 ecx, BYTE PTR _b$[ebp]
  0000b	c1 e0 08	 shl	 eax, 8
  0000e	03 c1		 add	 eax, ecx
  00010	0f b6 4d 10	 movzx	 ecx, BYTE PTR _g$[ebp]
  00014	c1 e0 08	 shl	 eax, 8
  00017	03 c1		 add	 eax, ecx
  00019	0f b6 4d 0c	 movzx	 ecx, BYTE PTR _r$[ebp]
  0001d	c1 e0 08	 shl	 eax, 8
  00020	03 c1		 add	 eax, ecx
  00022	5d		 pop	 ebp
  00023	c3		 ret	 0
?_ARGB@@YAKEEEE@Z ENDP					; _ARGB
_TEXT	ENDS
; Function compile flags: /Ogtp
; File c:\users\michel\desktop\source\gameserver\include\readscript.h
;	COMDAT ?GetToken@@YA?AW4SMDToken@@XZ
_TEXT	SEGMENT
_TempString$ = -104					; size = 100
__$ArrayPad$ = -4					; size = 4
?GetToken@@YA?AW4SMDToken@@XZ PROC			; GetToken, COMDAT

; 24   : {

  00000	55		 push	 ebp
  00001	8b ec		 mov	 ebp, esp
  00003	83 ec 68	 sub	 esp, 104		; 00000068H
  00006	a1 00 00 00 00	 mov	 eax, DWORD PTR ___security_cookie
  0000b	33 c5		 xor	 eax, ebp
  0000d	89 45 fc	 mov	 DWORD PTR __$ArrayPad$[ebp], eax

; 25   : 	int ch;
; 26   : 	char* p;
; 27   : 	char TempString[100];
; 28   : 
; 29   : 	TokenString[0]=0;

  00010	c6 05 00 00 00
	00 00		 mov	 BYTE PTR ?TokenString@@3PADA, 0
  00017	53		 push	 ebx
  00018	0f 1f 84 00 00
	00 00 00	 npad	 8
$LL4@GetToken:

; 30   : 
; 31   : 	do
; 32   : 	{
; 33   : 		if ((ch=fgetc(SMDFile)) == -1)

  00020	ff 35 00 00 00
	00		 push	 DWORD PTR ?SMDFile@@3PAU_iobuf@@A
  00026	e8 00 00 00 00	 call	 _fgetc
  0002b	8b d8		 mov	 ebx, eax
  0002d	83 c4 04	 add	 esp, 4
  00030	83 fb ff	 cmp	 ebx, -1
  00033	74 5d		 je	 SHORT $LN43@GetToken

; 34   : 		{
; 35   : 			return END;	// End of FILE (EOF)
; 36   : 		}
; 37   : 		else
; 38   : 		{	
; 39   : 			if (ch=='/')		// this is /

  00035	83 fb 2f	 cmp	 ebx, 47			; 0000002fH
  00038	75 30		 jne	 SHORT $LN2@GetToken

; 40   : 			{
; 41   : 				if((ch=fgetc(SMDFile)) == '/')

  0003a	ff 35 00 00 00
	00		 push	 DWORD PTR ?SMDFile@@3PAU_iobuf@@A
  00040	e8 00 00 00 00	 call	 _fgetc
  00045	8b d8		 mov	 ebx, eax
  00047	83 c4 04	 add	 esp, 4
  0004a	83 fb 2f	 cmp	 ebx, 47			; 0000002fH
  0004d	75 1b		 jne	 SHORT $LN2@GetToken
  0004f	90		 npad	 1
$LL5@GetToken:

; 42   : 				{
; 43   : 					while ((ch != '\n') && (ch != -1))	// End of Line (EOL)

  00050	83 fb ff	 cmp	 ebx, -1
  00053	74 3d		 je	 SHORT $LN43@GetToken

; 44   : 					{
; 45   : 						ch=fgetc(SMDFile);

  00055	ff 35 00 00 00
	00		 push	 DWORD PTR ?SMDFile@@3PAU_iobuf@@A
  0005b	e8 00 00 00 00	 call	 _fgetc
  00060	8b d8		 mov	 ebx, eax
  00062	83 c4 04	 add	 esp, 4
  00065	83 fb 0a	 cmp	 ebx, 10			; 0000000aH
  00068	75 e6		 jne	 SHORT $LL5@GetToken
$LN2@GetToken:

; 51   : 					}
; 52   : 				}
; 53   : 			}
; 54   : 		}
; 55   : 	}
; 56   : 	while (isspace(ch) != 0);

  0006a	53		 push	 ebx
  0006b	e8 00 00 00 00	 call	 _isspace
  00070	83 c4 04	 add	 esp, 4
  00073	85 c0		 test	 eax, eax
  00075	75 a9		 jne	 SHORT $LL4@GetToken

; 57   : 
; 58   : 	
; 59   : 	switch(ch)

  00077	8d 43 de	 lea	 eax, DWORD PTR [ebx-34]
  0007a	56		 push	 esi
  0007b	83 f8 5b	 cmp	 eax, 91			; 0000005bH
  0007e	0f 87 89 01 00
	00		 ja	 $LN29@GetToken
  00084	0f b6 80 00 00
	00 00		 movzx	 eax, BYTE PTR $LN58@GetToken[eax]
  0008b	ff 24 85 00 00
	00 00		 jmp	 DWORD PTR $LN64@GetToken[eax*4]
$LN43@GetToken:

; 46   : 					}
; 47   : 	
; 48   : 					if (ch == -1)
; 49   : 					{
; 50   : 						return END;	// End of FILE

  00092	b8 02 00 00 00	 mov	 eax, 2
  00097	5b		 pop	 ebx

; 143  : 		}
; 144  : 		else
; 145  : 		{
; 146  : 			return CurrentToken = SMD_ERROR; // '<'
; 147  : 		}
; 148  : 		break;
; 149  : 
; 150  : 	}
; 151  : 
; 152  : 	return NAME;
; 153  : }

  00098	8b 4d fc	 mov	 ecx, DWORD PTR __$ArrayPad$[ebp]
  0009b	33 cd		 xor	 ecx, ebp
  0009d	e8 00 00 00 00	 call	 @__security_check_cookie@4
  000a2	8b e5		 mov	 esp, ebp
  000a4	5d		 pop	 ebp
  000a5	c3		 ret	 0
$LN20@GetToken:
  000a6	5e		 pop	 esi

; 60   : 	{
; 61   : 
; 62   : 	case 0x23:	// #
; 63   : 		return CurrentToken=COMMAND;

  000a7	c7 05 00 00 00
	00 23 00 00 00	 mov	 DWORD PTR ?CurrentToken@@3W4SMDToken@@A, 35 ; 00000023H
  000b1	b8 23 00 00 00	 mov	 eax, 35			; 00000023H
  000b6	5b		 pop	 ebx

; 143  : 		}
; 144  : 		else
; 145  : 		{
; 146  : 			return CurrentToken = SMD_ERROR; // '<'
; 147  : 		}
; 148  : 		break;
; 149  : 
; 150  : 	}
; 151  : 
; 152  : 	return NAME;
; 153  : }

  000b7	8b 4d fc	 mov	 ecx, DWORD PTR __$ArrayPad$[ebp]
  000ba	33 cd		 xor	 ecx, ebp
  000bc	e8 00 00 00 00	 call	 @__security_check_cookie@4
  000c1	8b e5		 mov	 esp, ebp
  000c3	5d		 pop	 ebp
  000c4	c3		 ret	 0
$LN21@GetToken:
  000c5	5e		 pop	 esi

; 64   : 		break;
; 65   : 	
; 66   : 	case 0x3B:	// ;
; 67   : 		return CurrentToken=SEMICOLON;

  000c6	c7 05 00 00 00
	00 3b 00 00 00	 mov	 DWORD PTR ?CurrentToken@@3W4SMDToken@@A, 59 ; 0000003bH
  000d0	b8 3b 00 00 00	 mov	 eax, 59			; 0000003bH
  000d5	5b		 pop	 ebx

; 143  : 		}
; 144  : 		else
; 145  : 		{
; 146  : 			return CurrentToken = SMD_ERROR; // '<'
; 147  : 		}
; 148  : 		break;
; 149  : 
; 150  : 	}
; 151  : 
; 152  : 	return NAME;
; 153  : }

  000d6	8b 4d fc	 mov	 ecx, DWORD PTR __$ArrayPad$[ebp]
  000d9	33 cd		 xor	 ecx, ebp
  000db	e8 00 00 00 00	 call	 @__security_check_cookie@4
  000e0	8b e5		 mov	 esp, ebp
  000e2	5d		 pop	 ebp
  000e3	c3		 ret	 0
$LN22@GetToken:
  000e4	5e		 pop	 esi

; 68   : 		break;
; 69   : 	
; 70   : 	case 0x2C:	// ,
; 71   : 
; 72   : 		return CurrentToken=COMMA;

  000e5	c7 05 00 00 00
	00 2c 00 00 00	 mov	 DWORD PTR ?CurrentToken@@3W4SMDToken@@A, 44 ; 0000002cH
  000ef	b8 2c 00 00 00	 mov	 eax, 44			; 0000002cH
  000f4	5b		 pop	 ebx

; 143  : 		}
; 144  : 		else
; 145  : 		{
; 146  : 			return CurrentToken = SMD_ERROR; // '<'
; 147  : 		}
; 148  : 		break;
; 149  : 
; 150  : 	}
; 151  : 
; 152  : 	return NAME;
; 153  : }

  000f5	8b 4d fc	 mov	 ecx, DWORD PTR __$ArrayPad$[ebp]
  000f8	33 cd		 xor	 ecx, ebp
  000fa	e8 00 00 00 00	 call	 @__security_check_cookie@4
  000ff	8b e5		 mov	 esp, ebp
  00101	5d		 pop	 ebp
  00102	c3		 ret	 0
$LN23@GetToken:
  00103	5e		 pop	 esi

; 73   : 		break;
; 74   : 	
; 75   : 	case 0x7B:	// {
; 76   : 		return CurrentToken = LP;

  00104	c7 05 00 00 00
	00 7b 00 00 00	 mov	 DWORD PTR ?CurrentToken@@3W4SMDToken@@A, 123 ; 0000007bH
  0010e	b8 7b 00 00 00	 mov	 eax, 123		; 0000007bH
  00113	5b		 pop	 ebx

; 143  : 		}
; 144  : 		else
; 145  : 		{
; 146  : 			return CurrentToken = SMD_ERROR; // '<'
; 147  : 		}
; 148  : 		break;
; 149  : 
; 150  : 	}
; 151  : 
; 152  : 	return NAME;
; 153  : }

  00114	8b 4d fc	 mov	 ecx, DWORD PTR __$ArrayPad$[ebp]
  00117	33 cd		 xor	 ecx, ebp
  00119	e8 00 00 00 00	 call	 @__security_check_cookie@4
  0011e	8b e5		 mov	 esp, ebp
  00120	5d		 pop	 ebp
  00121	c3		 ret	 0
$LN24@GetToken:
  00122	5e		 pop	 esi

; 77   : 		break;
; 78   : 
; 79   : 	case 0x7D:	// }
; 80   : 		return CurrentToken = RP;

  00123	c7 05 00 00 00
	00 7d 00 00 00	 mov	 DWORD PTR ?CurrentToken@@3W4SMDToken@@A, 125 ; 0000007dH
  0012d	b8 7d 00 00 00	 mov	 eax, 125		; 0000007dH
  00132	5b		 pop	 ebx

; 143  : 		}
; 144  : 		else
; 145  : 		{
; 146  : 			return CurrentToken = SMD_ERROR; // '<'
; 147  : 		}
; 148  : 		break;
; 149  : 
; 150  : 	}
; 151  : 
; 152  : 	return NAME;
; 153  : }

  00133	8b 4d fc	 mov	 ecx, DWORD PTR __$ArrayPad$[ebp]
  00136	33 cd		 xor	 ecx, ebp
  00138	e8 00 00 00 00	 call	 @__security_check_cookie@4
  0013d	8b e5		 mov	 esp, ebp
  0013f	5d		 pop	 ebp
  00140	c3		 ret	 0
$LN25@GetToken:

; 81   : 		break;
; 82   : 	// Nice Index Table :)	by Deathway
; 83   : 	// Numbers Case
; 84   : 	case 0x2D:	//-
; 85   : 	case 0x2E:	//.
; 86   : 	case '0':	//0
; 87   : 	case '1':	//1
; 88   : 	case '2':	//2
; 89   : 	case '3':	//3
; 90   : 	case '4':	//4		
; 91   : 	case '5':	//5
; 92   : 	case '6':	//6
; 93   : 	case '7':	//7
; 94   : 	case '8':	//8
; 95   : 	case '9':	//9
; 96   : 		ungetc(ch, SMDFile);

  00141	ff 35 00 00 00
	00		 push	 DWORD PTR ?SMDFile@@3PAU_iobuf@@A
  00147	53		 push	 ebx
  00148	e8 00 00 00 00	 call	 _ungetc

; 97   : 		p = TempString;
; 98   : 		
; 99   : 		while (((ch=getc(SMDFile)) != -1) && ((ch == 0x2E) || (isdigit(ch) != 0) || (ch == 0x2D)))  // 2e '.'  2D '-'

  0014d	ff 35 00 00 00
	00		 push	 DWORD PTR ?SMDFile@@3PAU_iobuf@@A
  00153	8d 75 98	 lea	 esi, DWORD PTR _TempString$[ebp]
  00156	e8 00 00 00 00	 call	 _getc
  0015b	8b d8		 mov	 ebx, eax
  0015d	83 c4 0c	 add	 esp, 12			; 0000000cH
  00160	83 fb ff	 cmp	 ebx, -1
  00163	74 2f		 je	 SHORT $LN59@GetToken
$LL9@GetToken:
  00165	83 fb 2e	 cmp	 ebx, 46			; 0000002eH
  00168	74 12		 je	 SHORT $LN26@GetToken
  0016a	53		 push	 ebx
  0016b	e8 00 00 00 00	 call	 _isdigit
  00170	83 c4 04	 add	 esp, 4
  00173	85 c0		 test	 eax, eax
  00175	75 05		 jne	 SHORT $LN26@GetToken
  00177	83 fb 2d	 cmp	 ebx, 45			; 0000002dH
  0017a	75 18		 jne	 SHORT $LN59@GetToken
$LN26@GetToken:
  0017c	ff 35 00 00 00
	00		 push	 DWORD PTR ?SMDFile@@3PAU_iobuf@@A

; 100  : 		{
; 101  : 			*p = ch;	// Construct a String

  00182	88 1e		 mov	 BYTE PTR [esi], bl

; 102  : 			p++;

  00184	46		 inc	 esi
  00185	e8 00 00 00 00	 call	 _getc
  0018a	8b d8		 mov	 ebx, eax
  0018c	83 c4 04	 add	 esp, 4
  0018f	83 fb ff	 cmp	 ebx, -1
  00192	75 d1		 jne	 SHORT $LL9@GetToken
$LN59@GetToken:

; 103  : 		}		
; 104  : 		*p = 0;
; 105  : 		TokenNumber = (float)atof( TempString);	// Select the first Byte as Main ID

  00194	8d 45 98	 lea	 eax, DWORD PTR _TempString$[ebp]
  00197	c6 06 00	 mov	 BYTE PTR [esi], 0
  0019a	50		 push	 eax
  0019b	e8 00 00 00 00	 call	 _atof
  001a0	83 c4 04	 add	 esp, 4

; 106  : 		return CurrentToken  = NUMBER ;

  001a3	c7 05 00 00 00
	00 01 00 00 00	 mov	 DWORD PTR ?CurrentToken@@3W4SMDToken@@A, 1
  001ad	d9 1d 00 00 00
	00		 fstp	 DWORD PTR ?TokenNumber@@3MA
  001b3	b8 01 00 00 00	 mov	 eax, 1
  001b8	5e		 pop	 esi
  001b9	5b		 pop	 ebx

; 143  : 		}
; 144  : 		else
; 145  : 		{
; 146  : 			return CurrentToken = SMD_ERROR; // '<'
; 147  : 		}
; 148  : 		break;
; 149  : 
; 150  : 	}
; 151  : 
; 152  : 	return NAME;
; 153  : }

  001ba	8b 4d fc	 mov	 ecx, DWORD PTR __$ArrayPad$[ebp]
  001bd	33 cd		 xor	 ecx, ebp
  001bf	e8 00 00 00 00	 call	 @__security_check_cookie@4
  001c4	8b e5		 mov	 esp, ebp
  001c6	5d		 pop	 ebp
  001c7	c3		 ret	 0
$LN27@GetToken:

; 107  : 		break;
; 108  : 
; 109  : 	case '\"':	// "	String Case
; 110  : 		p=&TokenString[0];
; 111  : 		
; 112  : 		while (((ch=getc(SMDFile)) != -1 ) && (ch != 0x22))	// nice

  001c8	ff 35 00 00 00
	00		 push	 DWORD PTR ?SMDFile@@3PAU_iobuf@@A
  001ce	be 00 00 00 00	 mov	 esi, OFFSET ?TokenString@@3PADA
  001d3	e8 00 00 00 00	 call	 _getc
  001d8	83 c4 04	 add	 esp, 4
  001db	83 f8 ff	 cmp	 eax, -1
  001de	74 1f		 je	 SHORT $LN12@GetToken
$LL11@GetToken:
  001e0	83 f8 22	 cmp	 eax, 34			; 00000022H
  001e3	0f 84 95 00 00
	00		 je	 $LN28@GetToken
  001e9	ff 35 00 00 00
	00		 push	 DWORD PTR ?SMDFile@@3PAU_iobuf@@A

; 113  : 		{
; 114  : 			*p = ch;

  001ef	88 06		 mov	 BYTE PTR [esi], al

; 115  : 			p++;

  001f1	46		 inc	 esi
  001f2	e8 00 00 00 00	 call	 _getc
  001f7	83 c4 04	 add	 esp, 4
  001fa	83 f8 ff	 cmp	 eax, -1
  001fd	75 e1		 jne	 SHORT $LL11@GetToken
$LN12@GetToken:

; 116  : 		}
; 117  : 		if (ch != 0x22 )

  001ff	83 f8 22	 cmp	 eax, 34			; 00000022H
  00202	74 7a		 je	 SHORT $LN28@GetToken

; 118  : 		{
; 119  : 			ungetc(ch, SMDFile);

  00204	ff 35 00 00 00
	00		 push	 DWORD PTR ?SMDFile@@3PAU_iobuf@@A
  0020a	50		 push	 eax

; 120  : 		}
; 121  : 		*p = 0;
; 122  : 		return CurrentToken = NAME;

  0020b	eb 69		 jmp	 SHORT $LN62@GetToken
$LN29@GetToken:

; 123  : 		break;
; 124  : 
; 125  : 	default:	// Others
; 126  : 		if (isalpha(ch))

  0020d	53		 push	 ebx
  0020e	e8 00 00 00 00	 call	 _isalpha
  00213	83 c4 04	 add	 esp, 4
  00216	85 c0		 test	 eax, eax
  00218	0f 84 7f 00 00
	00		 je	 $LN30@GetToken

; 127  : 		{
; 128  : 			p=&TokenString[0];
; 129  : 			*p=ch;
; 130  : 			p++;
; 131  : 
; 132  : 			while ( ((ch=getc(SMDFile)) != -1) && ( (ch == 0x2E) || (ch == 0x5F) || (isalnum(ch) != 0) ) )

  0021e	ff 35 00 00 00
	00		 push	 DWORD PTR ?SMDFile@@3PAU_iobuf@@A
  00224	88 1d 00 00 00
	00		 mov	 BYTE PTR ?TokenString@@3PADA, bl
  0022a	be 01 00 00 00	 mov	 esi, OFFSET ?TokenString@@3PADA+1
  0022f	e8 00 00 00 00	 call	 _getc
  00234	8b d8		 mov	 ebx, eax
  00236	83 c4 04	 add	 esp, 4
  00239	83 fb ff	 cmp	 ebx, -1
  0023c	74 31		 je	 SHORT $LN60@GetToken
  0023e	66 90		 npad	 2
$LL13@GetToken:
  00240	83 fb 2e	 cmp	 ebx, 46			; 0000002eH
  00243	74 12		 je	 SHORT $LN32@GetToken
  00245	83 fb 5f	 cmp	 ebx, 95			; 0000005fH
  00248	74 0d		 je	 SHORT $LN32@GetToken
  0024a	53		 push	 ebx
  0024b	e8 00 00 00 00	 call	 _isalnum
  00250	83 c4 04	 add	 esp, 4
  00253	85 c0		 test	 eax, eax
  00255	74 18		 je	 SHORT $LN60@GetToken
$LN32@GetToken:
  00257	ff 35 00 00 00
	00		 push	 DWORD PTR ?SMDFile@@3PAU_iobuf@@A

; 133  : 			{
; 134  : 				*p=ch;

  0025d	88 1e		 mov	 BYTE PTR [esi], bl

; 135  : 				p++;

  0025f	46		 inc	 esi
  00260	e8 00 00 00 00	 call	 _getc
  00265	8b d8		 mov	 ebx, eax
  00267	83 c4 04	 add	 esp, 4
  0026a	83 fb ff	 cmp	 ebx, -1
  0026d	75 d1		 jne	 SHORT $LL13@GetToken
$LN60@GetToken:

; 136  : 				
; 137  : 			}
; 138  : 
; 139  : 			ungetc(ch, SMDFile);

  0026f	ff 35 00 00 00
	00		 push	 DWORD PTR ?SMDFile@@3PAU_iobuf@@A
  00275	53		 push	 ebx
$LN62@GetToken:
  00276	e8 00 00 00 00	 call	 _ungetc
  0027b	83 c4 08	 add	 esp, 8
$LN28@GetToken:

; 140  : 			*p=0;

  0027e	c6 06 00	 mov	 BYTE PTR [esi], 0

; 141  : 			CurrentToken=NAME;
; 142  : 			return CurrentToken;

  00281	33 c0		 xor	 eax, eax
  00283	5e		 pop	 esi
  00284	c7 05 00 00 00
	00 00 00 00 00	 mov	 DWORD PTR ?CurrentToken@@3W4SMDToken@@A, 0
  0028e	5b		 pop	 ebx

; 143  : 		}
; 144  : 		else
; 145  : 		{
; 146  : 			return CurrentToken = SMD_ERROR; // '<'
; 147  : 		}
; 148  : 		break;
; 149  : 
; 150  : 	}
; 151  : 
; 152  : 	return NAME;
; 153  : }

  0028f	8b 4d fc	 mov	 ecx, DWORD PTR __$ArrayPad$[ebp]
  00292	33 cd		 xor	 ecx, ebp
  00294	e8 00 00 00 00	 call	 @__security_check_cookie@4
  00299	8b e5		 mov	 esp, ebp
  0029b	5d		 pop	 ebp
  0029c	c3		 ret	 0
$LN30@GetToken:
  0029d	8b 4d fc	 mov	 ecx, DWORD PTR __$ArrayPad$[ebp]
  002a0	b8 3c 00 00 00	 mov	 eax, 60			; 0000003cH
  002a5	5e		 pop	 esi
  002a6	33 cd		 xor	 ecx, ebp
  002a8	c7 05 00 00 00
	00 3c 00 00 00	 mov	 DWORD PTR ?CurrentToken@@3W4SMDToken@@A, 60 ; 0000003cH
  002b2	5b		 pop	 ebx
  002b3	e8 00 00 00 00	 call	 @__security_check_cookie@4
  002b8	8b e5		 mov	 esp, ebp
  002ba	5d		 pop	 ebp
  002bb	c3		 ret	 0
$LN64@GetToken:
  002bc	00 00 00 00	 DD	 $LN27@GetToken
  002c0	00 00 00 00	 DD	 $LN20@GetToken
  002c4	00 00 00 00	 DD	 $LN22@GetToken
  002c8	00 00 00 00	 DD	 $LN25@GetToken
  002cc	00 00 00 00	 DD	 $LN21@GetToken
  002d0	00 00 00 00	 DD	 $LN23@GetToken
  002d4	00 00 00 00	 DD	 $LN24@GetToken
  002d8	00 00 00 00	 DD	 $LN29@GetToken
$LN58@GetToken:
  002dc	00		 DB	 0
  002dd	01		 DB	 1
  002de	07		 DB	 7
  002df	07		 DB	 7
  002e0	07		 DB	 7
  002e1	07		 DB	 7
  002e2	07		 DB	 7
  002e3	07		 DB	 7
  002e4	07		 DB	 7
  002e5	07		 DB	 7
  002e6	02		 DB	 2
  002e7	03		 DB	 3
  002e8	03		 DB	 3
  002e9	07		 DB	 7
  002ea	03		 DB	 3
  002eb	03		 DB	 3
  002ec	03		 DB	 3
  002ed	03		 DB	 3
  002ee	03		 DB	 3
  002ef	03		 DB	 3
  002f0	03		 DB	 3
  002f1	03		 DB	 3
  002f2	03		 DB	 3
  002f3	03		 DB	 3
  002f4	07		 DB	 7
  002f5	04		 DB	 4
  002f6	07		 DB	 7
  002f7	07		 DB	 7
  002f8	07		 DB	 7
  002f9	07		 DB	 7
  002fa	07		 DB	 7
  002fb	07		 DB	 7
  002fc	07		 DB	 7
  002fd	07		 DB	 7
  002fe	07		 DB	 7
  002ff	07		 DB	 7
  00300	07		 DB	 7
  00301	07		 DB	 7
  00302	07		 DB	 7
  00303	07		 DB	 7
  00304	07		 DB	 7
  00305	07		 DB	 7
  00306	07		 DB	 7
  00307	07		 DB	 7
  00308	07		 DB	 7
  00309	07		 DB	 7
  0030a	07		 DB	 7
  0030b	07		 DB	 7
  0030c	07		 DB	 7
  0030d	07		 DB	 7
  0030e	07		 DB	 7
  0030f	07		 DB	 7
  00310	07		 DB	 7
  00311	07		 DB	 7
  00312	07		 DB	 7
  00313	07		 DB	 7
  00314	07		 DB	 7
  00315	07		 DB	 7
  00316	07		 DB	 7
  00317	07		 DB	 7
  00318	07		 DB	 7
  00319	07		 DB	 7
  0031a	07		 DB	 7
  0031b	07		 DB	 7
  0031c	07		 DB	 7
  0031d	07		 DB	 7
  0031e	07		 DB	 7
  0031f	07		 DB	 7
  00320	07		 DB	 7
  00321	07		 DB	 7
  00322	07		 DB	 7
  00323	07		 DB	 7
  00324	07		 DB	 7
  00325	07		 DB	 7
  00326	07		 DB	 7
  00327	07		 DB	 7
  00328	07		 DB	 7
  00329	07		 DB	 7
  0032a	07		 DB	 7
  0032b	07		 DB	 7
  0032c	07		 DB	 7
  0032d	07		 DB	 7
  0032e	07		 DB	 7
  0032f	07		 DB	 7
  00330	07		 DB	 7
  00331	07		 DB	 7
  00332	07		 DB	 7
  00333	07		 DB	 7
  00334	07		 DB	 7
  00335	05		 DB	 5
  00336	07		 DB	 7
  00337	06		 DB	 6
?GetToken@@YA?AW4SMDToken@@XZ ENDP			; GetToken
_TEXT	ENDS
; Function compile flags: /Ogtp
; File c:\program files (x86)\microsoft visual studio 14.0\vc\include\vector
; File c:\program files (x86)\microsoft visual studio 14.0\vc\include\xmemory0
; File c:\program files (x86)\microsoft visual studio 14.0\vc\include\vector
;	COMDAT ?_Tidy@?$vector@U_tagARCA_BATTLE_START_TIME@@V?$allocator@U_tagARCA_BATTLE_START_TIME@@@std@@@std@@IAEXXZ
_TEXT	SEGMENT
?_Tidy@?$vector@U_tagARCA_BATTLE_START_TIME@@V?$allocator@U_tagARCA_BATTLE_START_TIME@@@std@@@std@@IAEXXZ PROC ; std::vector<_tagARCA_BATTLE_START_TIME,std::allocator<_tagARCA_BATTLE_START_TIME> >::_Tidy, COMDAT
; _this$ = ecx

; 1655 : 		{	// free all storage

  00000	56		 push	 esi
  00001	8b f1		 mov	 esi, ecx

; 1656 : 		if (this->_Myfirst() != pointer())

  00003	8b 0e		 mov	 ecx, DWORD PTR [esi]
  00005	85 c9		 test	 ecx, ecx
  00007	74 32		 je	 SHORT $LN2@Tidy

; 1657 : 			{	// something to free, destroy and deallocate it
; 1658 : 			this->_Orphan_all();
; 1659 : 			_Destroy(this->_Myfirst(), this->_Mylast());
; 1660 : 			this->_Getal().deallocate(this->_Myfirst(),

  00009	8b 56 08	 mov	 edx, DWORD PTR [esi+8]
  0000c	b8 ab aa aa 2a	 mov	 eax, 715827883		; 2aaaaaabH
  00011	2b d1		 sub	 edx, ecx
  00013	f7 ea		 imul	 edx
  00015	d1 fa		 sar	 edx, 1
  00017	8b c2		 mov	 eax, edx
  00019	c1 e8 1f	 shr	 eax, 31			; 0000001fH
  0001c	03 c2		 add	 eax, edx
; File c:\program files (x86)\microsoft visual studio 14.0\vc\include\xmemory0

; 909  : 		_Mybase::deallocate(_Ptr, _Count);

  0001e	50		 push	 eax
  0001f	51		 push	 ecx
  00020	8b ce		 mov	 ecx, esi
  00022	e8 00 00 00 00	 call	 ?deallocate@?$allocator@U_tagARCA_BATTLE_START_TIME@@@std@@QAEXPAU_tagARCA_BATTLE_START_TIME@@I@Z ; std::allocator<_tagARCA_BATTLE_START_TIME>::deallocate
; File c:\program files (x86)\microsoft visual studio 14.0\vc\include\vector

; 1662 : 			this->_Myfirst() = pointer();

  00027	c7 06 00 00 00
	00		 mov	 DWORD PTR [esi], 0

; 1663 : 			this->_Mylast() = pointer();

  0002d	c7 46 04 00 00
	00 00		 mov	 DWORD PTR [esi+4], 0

; 1664 : 			this->_Myend() = pointer();

  00034	c7 46 08 00 00
	00 00		 mov	 DWORD PTR [esi+8], 0
$LN2@Tidy:
  0003b	5e		 pop	 esi

; 1665 : 			}
; 1666 : 		}

  0003c	c3		 ret	 0
?_Tidy@?$vector@U_tagARCA_BATTLE_START_TIME@@V?$allocator@U_tagARCA_BATTLE_START_TIME@@@std@@@std@@IAEXXZ ENDP ; std::vector<_tagARCA_BATTLE_START_TIME,std::allocator<_tagARCA_BATTLE_START_TIME> >::_Tidy
_TEXT	ENDS
; Function compile flags: /Ogtp
; File c:\program files (x86)\microsoft visual studio 14.0\vc\include\vector
;	COMDAT ?_Destroy@?$vector@U_tagARCA_BATTLE_START_TIME@@V?$allocator@U_tagARCA_BATTLE_START_TIME@@@std@@@std@@IAEXPAU_tagARCA_BATTLE_START_TIME@@0@Z
_TEXT	SEGMENT
__First$ = 8						; size = 4
__Last$ = 12						; size = 4
?_Destroy@?$vector@U_tagARCA_BATTLE_START_TIME@@V?$allocator@U_tagARCA_BATTLE_START_TIME@@@std@@@std@@IAEXPAU_tagARCA_BATTLE_START_TIME@@0@Z PROC ; std::vector<_tagARCA_BATTLE_START_TIME,std::allocator<_tagARCA_BATTLE_START_TIME> >::_Destroy, COMDAT
; _this$ = ecx

; 1600 : 		_Destroy_range(_First, _Last, this->_Getal());
; 1601 : 		}

  00000	c2 08 00	 ret	 8
?_Destroy@?$vector@U_tagARCA_BATTLE_START_TIME@@V?$allocator@U_tagARCA_BATTLE_START_TIME@@@std@@@std@@IAEXPAU_tagARCA_BATTLE_START_TIME@@0@Z ENDP ; std::vector<_tagARCA_BATTLE_START_TIME,std::allocator<_tagARCA_BATTLE_START_TIME> >::_Destroy
_TEXT	ENDS
; Function compile flags: /Ogtp
; File c:\program files (x86)\microsoft visual studio 14.0\vc\include\vector
; File c:\program files (x86)\microsoft visual studio 14.0\vc\include\xmemory0
; File c:\program files (x86)\microsoft visual studio 14.0\vc\include\vector
;	COMDAT ??1?$vector@U_tagARCA_BATTLE_START_TIME@@V?$allocator@U_tagARCA_BATTLE_START_TIME@@@std@@@std@@QAE@XZ
_TEXT	SEGMENT
??1?$vector@U_tagARCA_BATTLE_START_TIME@@V?$allocator@U_tagARCA_BATTLE_START_TIME@@@std@@@std@@QAE@XZ PROC ; std::vector<_tagARCA_BATTLE_START_TIME,std::allocator<_tagARCA_BATTLE_START_TIME> >::~vector<_tagARCA_BATTLE_START_TIME,std::allocator<_tagARCA_BATTLE_START_TIME> >, COMDAT
; _this$ = ecx

; 974  : 		{	// destroy the object

  00000	56		 push	 esi
  00001	8b f1		 mov	 esi, ecx

; 977  : 
; 978  : 	_Myt& operator=(const _Myt& _Right)
; 979  : 		{	// assign _Right
; 980  : 		if (this != &_Right)
; 981  : 			{	// different, assign it
; 982  : 			if (this->_Getal() != _Right._Getal()
; 983  : 				&& _Alty::propagate_on_container_copy_assignment::value)
; 984  : 				{	// change allocator before copying
; 985  : 				_Tidy();
; 986  : 				this->_Copy_alloc(_Right._Getal());
; 987  : 				}
; 988  : 
; 989  : 			this->_Orphan_all();
; 990  : 
; 991  : 			if (_Right.empty())
; 992  : 				clear();	// new sequence empty, erase existing sequence
; 993  : 			else if (_Right.size() <= size())
; 994  : 				{	// enough elements, copy new and destroy old
; 995  : 				pointer _Ptr = _Copy_impl(_Right._Myfirst(),
; 996  : 					_Right._Mylast(), this->_Myfirst());	// copy new
; 997  : 				_Destroy(_Ptr, this->_Mylast());	// destroy old
; 998  : 				this->_Mylast() = this->_Myfirst() + _Right.size();
; 999  : 				}
; 1000 : 			else if (_Right.size() <= capacity())
; 1001 : 				{	// enough room, copy and construct new
; 1002 : 				pointer _Ptr = _Right._Myfirst() + size();
; 1003 : 				_Copy_impl(_Right._Myfirst(),
; 1004 : 					_Ptr, this->_Myfirst());
; 1005 : 				this->_Mylast() = _Ucopy(_Ptr, _Right._Mylast(),
; 1006 : 					this->_Mylast());
; 1007 : 				}
; 1008 : 			else
; 1009 : 				{	// not enough room, allocate new array and construct new
; 1010 : 				if (this->_Myfirst() != pointer())
; 1011 : 					{	// discard old array
; 1012 : 					_Destroy(this->_Myfirst(), this->_Mylast());
; 1013 : 					this->_Getal().deallocate(this->_Myfirst(),
; 1014 : 						this->_Myend() - this->_Myfirst());
; 1015 : 					}
; 1016 : 				if (_Buy(_Right.size()))
; 1017 : 					_TRY_BEGIN
; 1018 : 					this->_Mylast() =
; 1019 : 						_Ucopy(_Right._Myfirst(), _Right._Mylast(),
; 1020 : 						this->_Myfirst());
; 1021 : 					_CATCH_ALL
; 1022 : 					_Tidy();
; 1023 : 					_RERAISE;
; 1024 : 					_CATCH_END
; 1025 : 				}
; 1026 : 			}
; 1027 : 		return (*this);
; 1028 : 		}
; 1029 : 
; 1030 : 	void reserve(size_type _Count)
; 1031 : 		{	// determine new minimum length of allocated storage
; 1032 : 		if (capacity() < _Count)
; 1033 : 			{	// something to do, check and reallocate
; 1034 : 			if (max_size() < _Count)
; 1035 : 				_Xlen();
; 1036 : 			_Reallocate(_Count);
; 1037 : 			}
; 1038 : 		}
; 1039 : 
; 1040 : 	size_type capacity() const _NOEXCEPT
; 1041 : 		{	// return current length of allocated storage
; 1042 : 		return (this->_Myend() - this->_Myfirst());
; 1043 : 		}
; 1044 : 
; 1045 : 	size_type _Unused_capacity() const _NOEXCEPT
; 1046 : 		{	// micro-optimization for capacity() - size()
; 1047 : 		return (this->_Myend() - this->_Mylast());
; 1048 : 		}
; 1049 : 
; 1050 : 	size_type _Has_unused_capacity() const _NOEXCEPT
; 1051 : 		{	// micro-optimization for capacity() != size()
; 1052 : 		return (this->_Myend() != this->_Mylast());
; 1053 : 		}
; 1054 : 
; 1055 : 	iterator begin() _NOEXCEPT
; 1056 : 		{	// return iterator for beginning of mutable sequence
; 1057 : 		return (iterator(this->_Myfirst(), &this->_Get_data()));
; 1058 : 		}
; 1059 : 
; 1060 : 	const_iterator begin() const _NOEXCEPT
; 1061 : 		{	// return iterator for beginning of nonmutable sequence
; 1062 : 		return (const_iterator(this->_Myfirst(), &this->_Get_data()));
; 1063 : 		}
; 1064 : 
; 1065 : 	iterator end() _NOEXCEPT
; 1066 : 		{	// return iterator for end of mutable sequence
; 1067 : 		return (iterator(this->_Mylast(), &this->_Get_data()));
; 1068 : 		}
; 1069 : 
; 1070 : 	const_iterator end() const _NOEXCEPT
; 1071 : 		{	// return iterator for end of nonmutable sequence
; 1072 : 		return (const_iterator(this->_Mylast(), &this->_Get_data()));
; 1073 : 		}
; 1074 : 
; 1075 : 	iterator _Make_iter(const_iterator _Where) const
; 1076 : 		{	// make iterator from const_iterator
; 1077 : 		return (iterator(_Where._Ptr, &this->_Get_data()));
; 1078 : 		}
; 1079 : 
; 1080 : 	reverse_iterator rbegin() _NOEXCEPT
; 1081 : 		{	// return iterator for beginning of reversed mutable sequence
; 1082 : 		return (reverse_iterator(end()));
; 1083 : 		}
; 1084 : 
; 1085 : 	const_reverse_iterator rbegin() const _NOEXCEPT
; 1086 : 		{	// return iterator for beginning of reversed nonmutable sequence
; 1087 : 		return (const_reverse_iterator(end()));
; 1088 : 		}
; 1089 : 
; 1090 : 	reverse_iterator rend() _NOEXCEPT
; 1091 : 		{	// return iterator for end of reversed mutable sequence
; 1092 : 		return (reverse_iterator(begin()));
; 1093 : 		}
; 1094 : 
; 1095 : 	const_reverse_iterator rend() const _NOEXCEPT
; 1096 : 		{	// return iterator for end of reversed nonmutable sequence
; 1097 : 		return (const_reverse_iterator(begin()));
; 1098 : 		}
; 1099 : 
; 1100 : 	const_iterator cbegin() const _NOEXCEPT
; 1101 : 		{	// return iterator for beginning of nonmutable sequence
; 1102 : 		return (begin());
; 1103 : 		}
; 1104 : 
; 1105 : 	const_iterator cend() const _NOEXCEPT
; 1106 : 		{	// return iterator for end of nonmutable sequence
; 1107 : 		return (end());
; 1108 : 		}
; 1109 : 
; 1110 : 	const_reverse_iterator crbegin() const _NOEXCEPT
; 1111 : 		{	// return iterator for beginning of reversed nonmutable sequence
; 1112 : 		return (rbegin());
; 1113 : 		}
; 1114 : 
; 1115 : 	const_reverse_iterator crend() const _NOEXCEPT
; 1116 : 		{	// return iterator for end of reversed nonmutable sequence
; 1117 : 		return (rend());
; 1118 : 		}
; 1119 : 
; 1120 : 	void shrink_to_fit()
; 1121 : 		{	// reduce capacity
; 1122 : 		if (_Has_unused_capacity())
; 1123 : 			{	// worth shrinking, do it
; 1124 : 			if (empty())
; 1125 : 				_Tidy();
; 1126 : 			else
; 1127 : 				_Reallocate(size());
; 1128 : 			}
; 1129 : 		}
; 1130 : 
; 1131 : 	void resize(size_type _Newsize)
; 1132 : 		{	// determine new length, padding as needed
; 1133 : 		if (_Newsize < size())
; 1134 : 			_Pop_back_n(size() - _Newsize);
; 1135 : 		else if (size() < _Newsize)
; 1136 : 			{	// pad as needed
; 1137 : 			_Reserve(_Newsize - size());
; 1138 : 			_TRY_BEGIN
; 1139 : 			_Uninitialized_default_fill_n(this->_Mylast(), _Newsize - size(),
; 1140 : 				this->_Getal());
; 1141 : 			_CATCH_ALL
; 1142 : 			_Tidy();
; 1143 : 			_RERAISE;
; 1144 : 			_CATCH_END
; 1145 : 			this->_Mylast() += _Newsize - size();
; 1146 : 			}
; 1147 : 		}
; 1148 : 
; 1149 : 	void resize(size_type _Newsize, const value_type& _Val)
; 1150 : 		{	// determine new length, padding with _Val elements as needed
; 1151 : 		if (_Newsize < size())
; 1152 : 			_Pop_back_n(size() - _Newsize);
; 1153 : 		else if (size() < _Newsize)
; 1154 : 			{	// pad as needed
; 1155 : 			const value_type *_Ptr = _STD addressof(_Val);
; 1156 : 
; 1157 : 			if (_Inside(_Ptr))
; 1158 : 				{	// padding is inside vector, recompute _Ptr after reserve
; 1159 : 				const difference_type _Idx = _Ptr
; 1160 : 					- _STD addressof(*this->_Myfirst());
; 1161 : 				_Reserve(_Newsize - size());
; 1162 : 				_Ptr = _STD addressof(*this->_Myfirst()) + _Idx;
; 1163 : 				}
; 1164 : 			else
; 1165 : 				_Reserve(_Newsize - size());
; 1166 : 
; 1167 : 			_TRY_BEGIN
; 1168 : 			_Ufill(this->_Mylast(), _Newsize - size(), _Ptr);
; 1169 : 			_CATCH_ALL
; 1170 : 			_Tidy();
; 1171 : 			_RERAISE;
; 1172 : 			_CATCH_END
; 1173 : 			this->_Mylast() += _Newsize - size();
; 1174 : 			}
; 1175 : 		}
; 1176 : 
; 1177 : 	size_type size() const _NOEXCEPT
; 1178 : 		{	// return length of sequence
; 1179 : 		return (this->_Mylast() - this->_Myfirst());
; 1180 : 		}
; 1181 : 
; 1182 : 	size_type max_size() const _NOEXCEPT
; 1183 : 		{	// return maximum possible length of sequence
; 1184 : 		return (this->_Getal().max_size());
; 1185 : 		}
; 1186 : 
; 1187 : 	bool empty() const _NOEXCEPT
; 1188 : 		{	// test if sequence is empty
; 1189 : 		return (this->_Myfirst() == this->_Mylast());
; 1190 : 		}
; 1191 : 
; 1192 : 	_Alloc get_allocator() const _NOEXCEPT
; 1193 : 		{	// return allocator object for values
; 1194 : 		return (this->_Getal());
; 1195 : 		}
; 1196 : 
; 1197 : 	const_reference at(size_type _Pos) const
; 1198 : 		{	// subscript nonmutable sequence with checking
; 1199 : 		if (size() <= _Pos)
; 1200 : 			_Xran();
; 1201 : 		return (*(this->_Myfirst() + _Pos));
; 1202 : 		}
; 1203 : 
; 1204 : 	reference at(size_type _Pos)
; 1205 : 		{	// subscript mutable sequence with checking
; 1206 : 		if (size() <= _Pos)
; 1207 : 			_Xran();
; 1208 : 		return (*(this->_Myfirst() + _Pos));
; 1209 : 		}
; 1210 : 
; 1211 : 	const_reference operator[](size_type _Pos) const
; 1212 : 		{	// subscript nonmutable sequence
; 1213 :  #if _ITERATOR_DEBUG_LEVEL == 2
; 1214 : 		if (size() <= _Pos)
; 1215 : 			{	// report error
; 1216 : 			_DEBUG_ERROR("vector subscript out of range");
; 1217 : 			_SCL_SECURE_OUT_OF_RANGE;
; 1218 : 			}
; 1219 : 
; 1220 :  #elif _ITERATOR_DEBUG_LEVEL == 1
; 1221 : 		_SCL_SECURE_VALIDATE_RANGE(_Pos < size());
; 1222 :  #endif /* _ITERATOR_DEBUG_LEVEL */
; 1223 : 
; 1224 : 		return (*(this->_Myfirst() + _Pos));
; 1225 : 		}
; 1226 : 
; 1227 : 	reference operator[](size_type _Pos)
; 1228 : 		{	// subscript mutable sequence
; 1229 :  #if _ITERATOR_DEBUG_LEVEL == 2
; 1230 : 		if (size() <= _Pos)
; 1231 : 			{	// report error
; 1232 : 			_DEBUG_ERROR("vector subscript out of range");
; 1233 : 			_SCL_SECURE_OUT_OF_RANGE;
; 1234 : 			}
; 1235 : 
; 1236 :  #elif _ITERATOR_DEBUG_LEVEL == 1
; 1237 : 		_SCL_SECURE_VALIDATE_RANGE(_Pos < size());
; 1238 :  #endif /* _ITERATOR_DEBUG_LEVEL */
; 1239 : 
; 1240 : 		return (*(this->_Myfirst() + _Pos));
; 1241 : 		}
; 1242 : 
; 1243 : 	pointer data() _NOEXCEPT
; 1244 : 		{	// return address of first element
; 1245 : 		return (this->_Myfirst());
; 1246 : 		}
; 1247 : 
; 1248 : 	const_pointer data() const _NOEXCEPT
; 1249 : 		{	// return address of first element
; 1250 : 		return (this->_Myfirst());
; 1251 : 		}
; 1252 : 
; 1253 : 	reference front()
; 1254 : 		{	// return first element of mutable sequence
; 1255 : 		return (*begin());
; 1256 : 		}
; 1257 : 
; 1258 : 	const_reference front() const
; 1259 : 		{	// return first element of nonmutable sequence
; 1260 : 		return (*begin());
; 1261 : 		}
; 1262 : 
; 1263 : 	reference back()
; 1264 : 		{	// return last element of mutable sequence
; 1265 : 		return (*(end() - 1));
; 1266 : 		}
; 1267 : 
; 1268 : 	const_reference back() const
; 1269 : 		{	// return last element of nonmutable sequence
; 1270 : 		return (*(end() - 1));
; 1271 : 		}
; 1272 : 
; 1273 : 	void push_back(const value_type& _Val)
; 1274 : 		{	// insert element at end
; 1275 : 		if (_Inside(_STD addressof(_Val)))
; 1276 : 			{	// push back an element
; 1277 : 			size_type _Idx = _STD addressof(_Val) - this->_Myfirst();
; 1278 : 			if (this->_Mylast() == this->_Myend())
; 1279 : 				_Reserve(1);
; 1280 : 			_Orphan_range(this->_Mylast(), this->_Mylast());
; 1281 : 			this->_Getal().construct(this->_Mylast(),
; 1282 : 				this->_Myfirst()[_Idx]);
; 1283 : 			++this->_Mylast();
; 1284 : 			}
; 1285 : 		else
; 1286 : 			{	// push back a non-element
; 1287 : 			if (this->_Mylast() == this->_Myend())
; 1288 : 				_Reserve(1);
; 1289 : 			_Orphan_range(this->_Mylast(), this->_Mylast());
; 1290 : 			this->_Getal().construct(this->_Mylast(),
; 1291 : 				_Val);
; 1292 : 			++this->_Mylast();
; 1293 : 			}
; 1294 : 		}
; 1295 : 
; 1296 :  #if _ITERATOR_DEBUG_LEVEL == 2
; 1297 : 	void pop_back()
; 1298 : 		{	// erase element at end
; 1299 : 		if (empty())
; 1300 : 			_DEBUG_ERROR("vector empty before pop");
; 1301 : 		else
; 1302 : 			{	// erase last element
; 1303 : 			_Orphan_range(this->_Mylast() - 1, this->_Mylast());
; 1304 : 			this->_Getal().destroy(this->_Mylast() - 1);
; 1305 : 			--this->_Mylast();
; 1306 : 			}
; 1307 : 		}
; 1308 : 
; 1309 :  #else /* _ITERATOR_DEBUG_LEVEL == 2 */
; 1310 : 	void pop_back()
; 1311 : 		{	// erase element at end
; 1312 : 		this->_Getal().destroy(this->_Mylast() - 1);
; 1313 : 		--this->_Mylast();
; 1314 : 		}
; 1315 :  #endif /* _ITERATOR_DEBUG_LEVEL == 2 */
; 1316 : 
; 1317 : 	template<class _Iter>
; 1318 : 		typename enable_if<_Is_iterator<_Iter>::value,
; 1319 : 			void>::type
; 1320 : 		assign(_Iter _First, _Iter _Last)
; 1321 : 		{	// assign [_First, _Last)
; 1322 : 		clear();
; 1323 : 		_Assign(_First, _Last, _Iter_cat(_First));
; 1324 : 		}
; 1325 : 
; 1326 : 	template<class _Iter>
; 1327 : 		void _Assign(_Iter _First, _Iter _Last,
; 1328 : 			input_iterator_tag)
; 1329 : 		{	// assign [_First, _Last), input iterators
; 1330 : 		for (; _First != _Last; ++_First)
; 1331 : 			emplace_back(*_First);
; 1332 : 		}
; 1333 : 
; 1334 : 	template<class _Iter>
; 1335 : 		void _Assign(_Iter _First, _Iter _Last,
; 1336 : 			forward_iterator_tag)
; 1337 : 		{	// assign [_First, _Last), forward iterators
; 1338 : 		size_type _Newsize = _STD distance(_First, _Last);
; 1339 : 
; 1340 : 		if (capacity() < _Newsize)
; 1341 : 			{	// need more room, try to get it
; 1342 : 			size_type _Newcapacity = _Grow_to(_Newsize);
; 1343 : 			_Tidy();
; 1344 : 			_Buy(_Newcapacity);
; 1345 : 			}
; 1346 : 
; 1347 : 		this->_Mylast() = _Ucopy(_First, _Last, this->_Myfirst());
; 1348 : 		}
; 1349 : 
; 1350 : 	void assign(size_type _Count, const value_type& _Val)
; 1351 : 		{	// assign _Count * _Val
; 1352 : 		clear();
; 1353 : 		insert(begin(), _Count, _Val);
; 1354 : 		}
; 1355 : 
; 1356 : 	iterator insert(const_iterator _Where, const _Ty& _Val)
; 1357 : 		{	// insert _Val at _Where
; 1358 : 		return (_Insert_n(_Where, (size_type)1, _Val));
; 1359 : 		}
; 1360 : 
; 1361 : 	iterator insert(const_iterator _Where, size_type _Count,
; 1362 : 		const _Ty& _Val)
; 1363 : 		{	// insert _Count * _Val at _Where
; 1364 : 		return (_Insert_n(_Where, _Count, _Val));
; 1365 : 		}
; 1366 : 
; 1367 : 	template<class _Iter>
; 1368 : 		typename enable_if<_Is_iterator<_Iter>::value,
; 1369 : 			iterator>::type
; 1370 : 		insert(const_iterator _Where, _Iter _First, _Iter _Last)
; 1371 : 		{	// insert [_First, _Last) at _Where
; 1372 : 		size_type _Off = _VIPTR(_Where) - this->_Myfirst();
; 1373 : 		_Insert(_Where, _First, _Last, _Iter_cat(_First));
; 1374 : 		return (begin() + _Off);
; 1375 : 		}
; 1376 : 
; 1377 : 	template<class _Iter>
; 1378 : 		void _Insert(const_iterator _Where,
; 1379 : 			_Iter _First, _Iter _Last,
; 1380 : 				input_iterator_tag)
; 1381 : 		{	// insert [_First, _Last) at _Where, input iterators
; 1382 : 		size_type _Off = _VIPTR(_Where) - this->_Myfirst();
; 1383 : 
; 1384 :  #if _ITERATOR_DEBUG_LEVEL == 2
; 1385 : 		if (size() < _Off)
; 1386 : 			_DEBUG_ERROR("vector insert iterator outside range");
; 1387 :  #endif /* _ITERATOR_DEBUG_LEVEL == 2 */
; 1388 : 
; 1389 : 		if (_First != _Last)
; 1390 : 			{	// worth doing, gather at end and rotate into place
; 1391 : 			size_type _Oldsize = size();
; 1392 : 
; 1393 : 			_TRY_BEGIN
; 1394 : 			for (; _First != _Last; ++_First)
; 1395 : 				push_back(*_First);	// append
; 1396 : 
; 1397 : 			_CATCH_ALL
; 1398 : 			erase(begin() + _Oldsize, end());
; 1399 : 			_RERAISE;
; 1400 : 			_CATCH_END
; 1401 : 
; 1402 : 			_STD rotate(begin() + _Off, begin() + _Oldsize, end());
; 1403 : 			}
; 1404 : 		}
; 1405 : 
; 1406 : 	template<class _Iter>
; 1407 : 		void _Insert(const_iterator _Where,
; 1408 : 			_Iter _First, _Iter _Last,
; 1409 : 				forward_iterator_tag)
; 1410 : 		{	// insert [_First, _Last) at _Where, forward iterators
; 1411 :  #if _ITERATOR_DEBUG_LEVEL == 2
; 1412 : 		if (_VICONT(_Where) != &this->_Get_data()
; 1413 : 			|| _VIPTR(_Where) < this->_Myfirst()
; 1414 : 			|| this->_Mylast() < _VIPTR(_Where))
; 1415 : 			_DEBUG_ERROR("vector insert iterator outside range");
; 1416 : 		_DEBUG_RANGE(_First, _Last);
; 1417 :  #endif /* _ITERATOR_DEBUG_LEVEL == 2 */
; 1418 : 
; 1419 : 		size_type _Count = 0;
; 1420 : 		_Distance(_First, _Last, _Count);
; 1421 : 
; 1422 : 		if (_Count == 0)
; 1423 : 			;
; 1424 : 		else if (_Unused_capacity() < _Count)
; 1425 : 			{	// not enough room, reallocate
; 1426 : 			if (max_size() - size() < _Count)
; 1427 : 				_Xlen();	// result too long
; 1428 : 
; 1429 : 			size_type _Capacity = _Grow_to(size() + _Count);
; 1430 : 			pointer _Newvec = this->_Getal().allocate(_Capacity);
; 1431 : 			pointer _Ptr = _Newvec;
; 1432 : 
; 1433 : 			_TRY_BEGIN
; 1434 : 			_Ptr = _Umove(this->_Myfirst(), _VIPTR(_Where),
; 1435 : 				_Newvec);	// copy prefix
; 1436 : 			_Ptr = _Ucopy(_First, _Last, _Ptr);	// add new stuff
; 1437 : 			_Umove(_VIPTR(_Where), this->_Mylast(),
; 1438 : 				_Ptr);	// copy suffix
; 1439 : 			_CATCH_ALL
; 1440 : 			_Destroy(_Newvec, _Ptr);
; 1441 : 			this->_Getal().deallocate(_Newvec, _Capacity);
; 1442 : 			_RERAISE;
; 1443 : 			_CATCH_END
; 1444 : 
; 1445 : 			_Count += size();
; 1446 : 			if (this->_Myfirst() != pointer())
; 1447 : 				{	// destroy and deallocate old array
; 1448 : 				_Destroy(this->_Myfirst(), this->_Mylast());
; 1449 : 				this->_Getal().deallocate(this->_Myfirst(),
; 1450 : 					this->_Myend() - this->_Myfirst());
; 1451 : 				}
; 1452 : 
; 1453 : 			this->_Orphan_all();
; 1454 : 			this->_Myend() = _Newvec + _Capacity;
; 1455 : 			this->_Mylast() = _Newvec + _Count;
; 1456 : 			this->_Myfirst() = _Newvec;
; 1457 : 			}
; 1458 : 		else
; 1459 : 			{	// new stuff fits, append and rotate into place
; 1460 : 			_Ucopy(_First, _Last, this->_Mylast());
; 1461 : 			_STD rotate(_VIPTR(_Where), this->_Mylast(),
; 1462 : 				this->_Mylast() + _Count);
; 1463 : 			this->_Mylast() += _Count;
; 1464 : 			_Orphan_range(_VIPTR(_Where), this->_Mylast());
; 1465 : 			}
; 1466 : 		}
; 1467 : 
; 1468 :  #if _ITERATOR_DEBUG_LEVEL == 2
; 1469 : 	iterator erase(const_iterator _Where)
; 1470 : 		{	// erase element at where
; 1471 : 		if (_VICONT(_Where) != &this->_Get_data()
; 1472 : 			|| _VIPTR(_Where) < this->_Myfirst()
; 1473 : 			|| this->_Mylast() <= _VIPTR(_Where))
; 1474 : 			_DEBUG_ERROR("vector erase iterator outside range");
; 1475 : 		_Move(_VIPTR(_Where) + 1, this->_Mylast(), _VIPTR(_Where));
; 1476 : 		_Destroy(this->_Mylast() - 1, this->_Mylast());
; 1477 : 		_Orphan_range(_VIPTR(_Where), this->_Mylast());
; 1478 : 		--this->_Mylast();
; 1479 : 		return (_Make_iter(_Where));
; 1480 : 		}
; 1481 : 
; 1482 :  #else /* _ITERATOR_DEBUG_LEVEL == 2 */
; 1483 : 	iterator erase(const_iterator _Where)
; 1484 : 		{	// erase element at where
; 1485 : 		_Move(_VIPTR(_Where) + 1, this->_Mylast(),
; 1486 : 			_VIPTR(_Where));
; 1487 : 		_Destroy(this->_Mylast() - 1, this->_Mylast());
; 1488 : 		--this->_Mylast();
; 1489 : 		return (_Make_iter(_Where));
; 1490 : 		}
; 1491 :  #endif /* _ITERATOR_DEBUG_LEVEL == 2 */
; 1492 : 
; 1493 : 	iterator erase(const_iterator _First_arg,
; 1494 : 		const_iterator _Last_arg)
; 1495 : 		{	// erase [_First, _Last)
; 1496 : 		if (_First_arg == begin() && _Last_arg == end())
; 1497 : 			clear();
; 1498 : 		else if (_First_arg != _Last_arg)
; 1499 : 			{	// clear partial
; 1500 : 			iterator _First = _Make_iter(_First_arg);
; 1501 : 			iterator _Last = _Make_iter(_Last_arg);
; 1502 : 
; 1503 : 			if (_First != _Last)
; 1504 : 				{	// worth doing, copy down over hole
; 1505 :  #if _ITERATOR_DEBUG_LEVEL == 2
; 1506 : 				if (_Last < _First || _VICONT(_First) != &this->_Get_data()
; 1507 : 					|| _VIPTR(_First) < this->_Myfirst()
; 1508 : 					|| this->_Mylast() < _VIPTR(_Last))
; 1509 : 					_DEBUG_ERROR("vector erase iterator outside range");
; 1510 : 				pointer _Ptr = _Move(_VIPTR(_Last), this->_Mylast(),
; 1511 : 					_VIPTR(_First));
; 1512 : 				_Orphan_range(_VIPTR(_First), this->_Mylast());
; 1513 : 
; 1514 :  #else /* _ITERATOR_DEBUG_LEVEL == 2 */
; 1515 : 				pointer _Ptr = _Move(_VIPTR(_Last), this->_Mylast(),
; 1516 : 					_VIPTR(_First));
; 1517 :  #endif /* _ITERATOR_DEBUG_LEVEL == 2 */
; 1518 : 
; 1519 : 				_Destroy(_Ptr, this->_Mylast());
; 1520 : 				this->_Mylast() = _Ptr;
; 1521 : 				}
; 1522 : 			}
; 1523 : 		return (_Make_iter(_First_arg));
; 1524 : 		}
; 1525 : 
; 1526 : 	void _Pop_back_n(size_type _Count)
; 1527 : 		{	// erase _Count elements at end
; 1528 : 		pointer _Ptr = this->_Mylast() - _Count;
; 1529 : 
; 1530 :  #if _ITERATOR_DEBUG_LEVEL == 2
; 1531 : 		_Orphan_range(_Ptr, this->_Mylast());
; 1532 :  #endif /* _ITERATOR_DEBUG_LEVEL == 2 */
; 1533 : 
; 1534 : 		_Destroy(_Ptr, this->_Mylast());
; 1535 : 		this->_Mylast() = _Ptr;
; 1536 : 		}
; 1537 : 
; 1538 : 	void clear() _NOEXCEPT
; 1539 : 		{	// erase all
; 1540 : 		this->_Orphan_all();
; 1541 : 		_Destroy(this->_Myfirst(), this->_Mylast());
; 1542 : 		this->_Mylast() = this->_Myfirst();
; 1543 : 		}
; 1544 : 
; 1545 : 	void swap(_Myt& _Right)
; 1546 : 		_NOEXCEPT_OP(_Alty::propagate_on_container_swap::value
; 1547 : 			|| _Alty::is_always_equal::value)
; 1548 : 		{	// exchange contents with _Right
; 1549 : 		if (this == &_Right)
; 1550 : 			;	// same object, do nothing
; 1551 : 		else if (this->_Getal() == _Right._Getal())
; 1552 : 			{	// same allocator, swap control information
; 1553 : 			this->_Swap_all(_Right);
; 1554 : 			_Swap_adl(this->_Myfirst(), _Right._Myfirst());
; 1555 : 			_Swap_adl(this->_Mylast(), _Right._Mylast());
; 1556 : 			_Swap_adl(this->_Myend(), _Right._Myend());
; 1557 : 			}
; 1558 : 
; 1559 : 		else if (_Alty::propagate_on_container_swap::value)
; 1560 : 			{	// swap allocators and control information
; 1561 : 			this->_Swap_alloc(_Right);
; 1562 : 			_Swap_adl(this->_Myfirst(), _Right._Myfirst());
; 1563 : 			_Swap_adl(this->_Mylast(), _Right._Mylast());
; 1564 : 			_Swap_adl(this->_Myend(), _Right._Myend());
; 1565 : 			}
; 1566 : 
; 1567 : 		else
; 1568 : 			{	// containers are incompatible
; 1569 :  #if _ITERATOR_DEBUG_LEVEL == 2
; 1570 : 			_DEBUG_ERROR("vector containers incompatible for swap");
; 1571 : 
; 1572 :  #else /* ITERATOR_DEBUG_LEVEL == 2 */
; 1573 : 			_XSTD terminate();
; 1574 :  #endif /* ITERATOR_DEBUG_LEVEL == 2 */
; 1575 : 			}
; 1576 : 		}
; 1577 : 
; 1578 : protected:
; 1579 : 	bool _Buy(size_type _Capacity)
; 1580 : 		{	// allocate array with _Capacity elements
; 1581 : 		this->_Myfirst() = pointer();
; 1582 : 		this->_Mylast() = pointer();
; 1583 : 		this->_Myend() = pointer();
; 1584 : 
; 1585 : 		if (_Capacity == 0)
; 1586 : 			return (false);
; 1587 : 		else if (max_size() < _Capacity)
; 1588 : 			_Xlen();	// result too long
; 1589 : 		else
; 1590 : 			{	// nonempty array, allocate storage
; 1591 : 			this->_Myfirst() = this->_Getal().allocate(_Capacity);
; 1592 : 			this->_Mylast() = this->_Myfirst();
; 1593 : 			this->_Myend() = this->_Myfirst() + _Capacity;
; 1594 : 			}
; 1595 : 		return (true);
; 1596 : 		}
; 1597 : 
; 1598 : 	void _Destroy(pointer _First, pointer _Last)
; 1599 : 		{	// destroy [_First, _Last) using allocator
; 1600 : 		_Destroy_range(_First, _Last, this->_Getal());
; 1601 : 		}
; 1602 : 
; 1603 : 	size_type _Grow_to(size_type _Count) const
; 1604 : 		{	// grow by 50% or at least to _Count
; 1605 : 		size_type _Capacity = capacity();
; 1606 : 
; 1607 : 		_Capacity = max_size() - _Capacity / 2 < _Capacity
; 1608 : 			? 0 : _Capacity + _Capacity / 2;	// try to grow by 50%
; 1609 : 		if (_Capacity < _Count)
; 1610 : 			_Capacity = _Count;
; 1611 : 		return (_Capacity);
; 1612 : 		}
; 1613 : 
; 1614 : 	bool _Inside(const value_type *_Ptr) const
; 1615 : 		{	// test if _Ptr points inside vector
; 1616 : 		return (_Ptr < this->_Mylast() && this->_Myfirst() <= _Ptr);
; 1617 : 		}
; 1618 : 
; 1619 : 	void _Reallocate(size_type _Count)
; 1620 : 		{	// move to array of exactly _Count elements
; 1621 : 		pointer _Ptr = this->_Getal().allocate(_Count);
; 1622 : 
; 1623 : 		_TRY_BEGIN
; 1624 : 		_Umove(this->_Myfirst(), this->_Mylast(), _Ptr);
; 1625 : 		_CATCH_ALL
; 1626 : 		this->_Getal().deallocate(_Ptr, _Count);
; 1627 : 		_RERAISE;
; 1628 : 		_CATCH_END
; 1629 : 
; 1630 : 		size_type _Size = size();
; 1631 : 		if (this->_Myfirst() != pointer())
; 1632 : 			{	// destroy and deallocate old array
; 1633 : 			_Destroy(this->_Myfirst(), this->_Mylast());
; 1634 : 			this->_Getal().deallocate(this->_Myfirst(),
; 1635 : 				this->_Myend() - this->_Myfirst());
; 1636 : 			}
; 1637 : 
; 1638 : 		this->_Orphan_all();
; 1639 : 		this->_Myend() = _Ptr + _Count;
; 1640 : 		this->_Mylast() = _Ptr + _Size;
; 1641 : 		this->_Myfirst() = _Ptr;
; 1642 : 		}
; 1643 : 
; 1644 : 	void _Reserve(size_type _Count)
; 1645 : 		{	// ensure room for _Count new elements, grow exponentially
; 1646 : 		if (_Unused_capacity() < _Count)
; 1647 : 			{	// need more room, try to get it
; 1648 : 			if (max_size() - size() < _Count)
; 1649 : 				_Xlen();
; 1650 : 			_Reallocate(_Grow_to(size() + _Count));
; 1651 : 			}
; 1652 : 		}
; 1653 : 
; 1654 : 	void _Tidy()
; 1655 : 		{	// free all storage
; 1656 : 		if (this->_Myfirst() != pointer())

  00003	8b 0e		 mov	 ecx, DWORD PTR [esi]
  00005	85 c9		 test	 ecx, ecx
  00007	74 32		 je	 SHORT $LN4@vector

; 1657 : 			{	// something to free, destroy and deallocate it
; 1658 : 			this->_Orphan_all();
; 1659 : 			_Destroy(this->_Myfirst(), this->_Mylast());
; 1660 : 			this->_Getal().deallocate(this->_Myfirst(),

  00009	8b 56 08	 mov	 edx, DWORD PTR [esi+8]
  0000c	b8 ab aa aa 2a	 mov	 eax, 715827883		; 2aaaaaabH
  00011	2b d1		 sub	 edx, ecx
  00013	f7 ea		 imul	 edx
  00015	d1 fa		 sar	 edx, 1
  00017	8b c2		 mov	 eax, edx
  00019	c1 e8 1f	 shr	 eax, 31			; 0000001fH
  0001c	03 c2		 add	 eax, edx
; File c:\program files (x86)\microsoft visual studio 14.0\vc\include\xmemory0

; 909  : 		_Mybase::deallocate(_Ptr, _Count);

  0001e	50		 push	 eax
  0001f	51		 push	 ecx
  00020	8b ce		 mov	 ecx, esi
  00022	e8 00 00 00 00	 call	 ?deallocate@?$allocator@U_tagARCA_BATTLE_START_TIME@@@std@@QAEXPAU_tagARCA_BATTLE_START_TIME@@I@Z ; std::allocator<_tagARCA_BATTLE_START_TIME>::deallocate
; File c:\program files (x86)\microsoft visual studio 14.0\vc\include\vector

; 1662 : 			this->_Myfirst() = pointer();

  00027	c7 06 00 00 00
	00		 mov	 DWORD PTR [esi], 0

; 1663 : 			this->_Mylast() = pointer();

  0002d	c7 46 04 00 00
	00 00		 mov	 DWORD PTR [esi+4], 0

; 1664 : 			this->_Myend() = pointer();

  00034	c7 46 08 00 00
	00 00		 mov	 DWORD PTR [esi+8], 0
$LN4@vector:
  0003b	5e		 pop	 esi

; 975  : 		_Tidy();
; 976  : 		}

  0003c	c3		 ret	 0
??1?$vector@U_tagARCA_BATTLE_START_TIME@@V?$allocator@U_tagARCA_BATTLE_START_TIME@@@std@@@std@@QAE@XZ ENDP ; std::vector<_tagARCA_BATTLE_START_TIME,std::allocator<_tagARCA_BATTLE_START_TIME> >::~vector<_tagARCA_BATTLE_START_TIME,std::allocator<_tagARCA_BATTLE_START_TIME> >
_TEXT	ENDS
; Function compile flags: /Ogtp
; File c:\program files (x86)\microsoft visual studio 14.0\vc\include\vector
;	COMDAT ??0?$vector@U_tagARCA_BATTLE_START_TIME@@V?$allocator@U_tagARCA_BATTLE_START_TIME@@@std@@@std@@QAE@XZ
_TEXT	SEGMENT
??0?$vector@U_tagARCA_BATTLE_START_TIME@@V?$allocator@U_tagARCA_BATTLE_START_TIME@@@std@@@std@@QAE@XZ PROC ; std::vector<_tagARCA_BATTLE_START_TIME,std::allocator<_tagARCA_BATTLE_START_TIME> >::vector<_tagARCA_BATTLE_START_TIME,std::allocator<_tagARCA_BATTLE_START_TIME> >, COMDAT
; _this$ = ecx

; 480  : 		_Myfirst = pointer();

  00000	c7 01 00 00 00
	00		 mov	 DWORD PTR [ecx], 0

; 707  : 		}

  00006	8b c1		 mov	 eax, ecx

; 481  : 		_Mylast = pointer();

  00008	c7 41 04 00 00
	00 00		 mov	 DWORD PTR [ecx+4], 0

; 482  : 		_Myend = pointer();

  0000f	c7 41 08 00 00
	00 00		 mov	 DWORD PTR [ecx+8], 0

; 707  : 		}

  00016	c3		 ret	 0
??0?$vector@U_tagARCA_BATTLE_START_TIME@@V?$allocator@U_tagARCA_BATTLE_START_TIME@@@std@@@std@@QAE@XZ ENDP ; std::vector<_tagARCA_BATTLE_START_TIME,std::allocator<_tagARCA_BATTLE_START_TIME> >::vector<_tagARCA_BATTLE_START_TIME,std::allocator<_tagARCA_BATTLE_START_TIME> >
_TEXT	ENDS
; Function compile flags: /Ogtp
; File c:\program files (x86)\microsoft visual studio 14.0\vc\include\xutility
;	COMDAT ?_Get_second@?$_Compressed_pair@U?$_Wrap_alloc@V?$allocator@U_tagARCA_BATTLE_START_TIME@@@std@@@std@@V?$_Vector_val@U?$_Simple_types@U_tagARCA_BATTLE_START_TIME@@@std@@@2@$00@std@@QAEAAV?$_Vector_val@U?$_Simple_types@U_tagARCA_BATTLE_START_TIME@@@std@@@2@XZ
_TEXT	SEGMENT
?_Get_second@?$_Compressed_pair@U?$_Wrap_alloc@V?$allocator@U_tagARCA_BATTLE_START_TIME@@@std@@@std@@V?$_Vector_val@U?$_Simple_types@U_tagARCA_BATTLE_START_TIME@@@std@@@2@$00@std@@QAEAAV?$_Vector_val@U?$_Simple_types@U_tagARCA_BATTLE_START_TIME@@@std@@@2@XZ PROC ; std::_Compressed_pair<std::_Wrap_alloc<std::allocator<_tagARCA_BATTLE_START_TIME> >,std::_Vector_val<std::_Simple_types<_tagARCA_BATTLE_START_TIME> >,1>::_Get_second, COMDAT
; _this$ = ecx

; 314  : 		return (_Myval2);

  00000	8b c1		 mov	 eax, ecx

; 315  : 		}

  00002	c3		 ret	 0
?_Get_second@?$_Compressed_pair@U?$_Wrap_alloc@V?$allocator@U_tagARCA_BATTLE_START_TIME@@@std@@@std@@V?$_Vector_val@U?$_Simple_types@U_tagARCA_BATTLE_START_TIME@@@std@@@2@$00@std@@QAEAAV?$_Vector_val@U?$_Simple_types@U_tagARCA_BATTLE_START_TIME@@@std@@@2@XZ ENDP ; std::_Compressed_pair<std::_Wrap_alloc<std::allocator<_tagARCA_BATTLE_START_TIME> >,std::_Vector_val<std::_Simple_types<_tagARCA_BATTLE_START_TIME> >,1>::_Get_second
_TEXT	ENDS
; Function compile flags: /Ogtp
; File c:\program files (x86)\microsoft visual studio 14.0\vc\include\xutility
;	COMDAT ?_Get_first@?$_Compressed_pair@U?$_Wrap_alloc@V?$allocator@U_tagARCA_BATTLE_START_TIME@@@std@@@std@@V?$_Vector_val@U?$_Simple_types@U_tagARCA_BATTLE_START_TIME@@@std@@@2@$00@std@@QAEAAU?$_Wrap_alloc@V?$allocator@U_tagARCA_BATTLE_START_TIME@@@std@@@2@XZ
_TEXT	SEGMENT
?_Get_first@?$_Compressed_pair@U?$_Wrap_alloc@V?$allocator@U_tagARCA_BATTLE_START_TIME@@@std@@@std@@V?$_Vector_val@U?$_Simple_types@U_tagARCA_BATTLE_START_TIME@@@std@@@2@$00@std@@QAEAAU?$_Wrap_alloc@V?$allocator@U_tagARCA_BATTLE_START_TIME@@@std@@@2@XZ PROC ; std::_Compressed_pair<std::_Wrap_alloc<std::allocator<_tagARCA_BATTLE_START_TIME> >,std::_Vector_val<std::_Simple_types<_tagARCA_BATTLE_START_TIME> >,1>::_Get_first, COMDAT
; _this$ = ecx

; 294  : 		return (*this);

  00000	8b c1		 mov	 eax, ecx

; 295  : 		}

  00002	c3		 ret	 0
?_Get_first@?$_Compressed_pair@U?$_Wrap_alloc@V?$allocator@U_tagARCA_BATTLE_START_TIME@@@std@@@std@@V?$_Vector_val@U?$_Simple_types@U_tagARCA_BATTLE_START_TIME@@@std@@@2@$00@std@@QAEAAU?$_Wrap_alloc@V?$allocator@U_tagARCA_BATTLE_START_TIME@@@std@@@2@XZ ENDP ; std::_Compressed_pair<std::_Wrap_alloc<std::allocator<_tagARCA_BATTLE_START_TIME> >,std::_Vector_val<std::_Simple_types<_tagARCA_BATTLE_START_TIME> >,1>::_Get_first
_TEXT	ENDS
; Function compile flags: /Ogtp
; File c:\program files (x86)\microsoft visual studio 14.0\vc\include\vector
;	COMDAT ??0?$_Vector_val@U?$_Simple_types@U_tagARCA_BATTLE_START_TIME@@@std@@@std@@QAE@XZ
_TEXT	SEGMENT
??0?$_Vector_val@U?$_Simple_types@U_tagARCA_BATTLE_START_TIME@@@std@@@std@@QAE@XZ PROC ; std::_Vector_val<std::_Simple_types<_tagARCA_BATTLE_START_TIME> >::_Vector_val<std::_Simple_types<_tagARCA_BATTLE_START_TIME> >, COMDAT
; _this$ = ecx

; 479  : 		{	// initialize values
; 480  : 		_Myfirst = pointer();

  00000	c7 01 00 00 00
	00		 mov	 DWORD PTR [ecx], 0

; 481  : 		_Mylast = pointer();
; 482  : 		_Myend = pointer();
; 483  : 		}

  00006	8b c1		 mov	 eax, ecx
  00008	c7 41 04 00 00
	00 00		 mov	 DWORD PTR [ecx+4], 0
  0000f	c7 41 08 00 00
	00 00		 mov	 DWORD PTR [ecx+8], 0
  00016	c3		 ret	 0
??0?$_Vector_val@U?$_Simple_types@U_tagARCA_BATTLE_START_TIME@@@std@@@std@@QAE@XZ ENDP ; std::_Vector_val<std::_Simple_types<_tagARCA_BATTLE_START_TIME> >::_Vector_val<std::_Simple_types<_tagARCA_BATTLE_START_TIME> >
_TEXT	ENDS
; Function compile flags: /Ogtp
; File c:\program files (x86)\microsoft visual studio 14.0\vc\include\vector
;	COMDAT ?_Myend@?$_Vector_alloc@U?$_Vec_base_types@U_tagARCA_BATTLE_START_TIME@@V?$allocator@U_tagARCA_BATTLE_START_TIME@@@std@@@std@@@std@@QAEAAPAU_tagARCA_BATTLE_START_TIME@@XZ
_TEXT	SEGMENT
?_Myend@?$_Vector_alloc@U?$_Vec_base_types@U_tagARCA_BATTLE_START_TIME@@V?$allocator@U_tagARCA_BATTLE_START_TIME@@@std@@@std@@@std@@QAEAAPAU_tagARCA_BATTLE_START_TIME@@XZ PROC ; std::_Vector_alloc<std::_Vec_base_types<_tagARCA_BATTLE_START_TIME,std::allocator<_tagARCA_BATTLE_START_TIME> > >::_Myend, COMDAT
; _this$ = ecx

; 662  : 		return (_Get_data()._Myend);

  00000	8d 41 08	 lea	 eax, DWORD PTR [ecx+8]

; 663  : 		}

  00003	c3		 ret	 0
?_Myend@?$_Vector_alloc@U?$_Vec_base_types@U_tagARCA_BATTLE_START_TIME@@V?$allocator@U_tagARCA_BATTLE_START_TIME@@@std@@@std@@@std@@QAEAAPAU_tagARCA_BATTLE_START_TIME@@XZ ENDP ; std::_Vector_alloc<std::_Vec_base_types<_tagARCA_BATTLE_START_TIME,std::allocator<_tagARCA_BATTLE_START_TIME> > >::_Myend
_TEXT	ENDS
; Function compile flags: /Ogtp
; File c:\program files (x86)\microsoft visual studio 14.0\vc\include\vector
;	COMDAT ?_Mylast@?$_Vector_alloc@U?$_Vec_base_types@U_tagARCA_BATTLE_START_TIME@@V?$allocator@U_tagARCA_BATTLE_START_TIME@@@std@@@std@@@std@@QAEAAPAU_tagARCA_BATTLE_START_TIME@@XZ
_TEXT	SEGMENT
?_Mylast@?$_Vector_alloc@U?$_Vec_base_types@U_tagARCA_BATTLE_START_TIME@@V?$allocator@U_tagARCA_BATTLE_START_TIME@@@std@@@std@@@std@@QAEAAPAU_tagARCA_BATTLE_START_TIME@@XZ PROC ; std::_Vector_alloc<std::_Vec_base_types<_tagARCA_BATTLE_START_TIME,std::allocator<_tagARCA_BATTLE_START_TIME> > >::_Mylast, COMDAT
; _this$ = ecx

; 652  : 		return (_Get_data()._Mylast);

  00000	8d 41 04	 lea	 eax, DWORD PTR [ecx+4]

; 653  : 		}

  00003	c3		 ret	 0
?_Mylast@?$_Vector_alloc@U?$_Vec_base_types@U_tagARCA_BATTLE_START_TIME@@V?$allocator@U_tagARCA_BATTLE_START_TIME@@@std@@@std@@@std@@QAEAAPAU_tagARCA_BATTLE_START_TIME@@XZ ENDP ; std::_Vector_alloc<std::_Vec_base_types<_tagARCA_BATTLE_START_TIME,std::allocator<_tagARCA_BATTLE_START_TIME> > >::_Mylast
_TEXT	ENDS
; Function compile flags: /Ogtp
; File c:\program files (x86)\microsoft visual studio 14.0\vc\include\vector
;	COMDAT ?_Myfirst@?$_Vector_alloc@U?$_Vec_base_types@U_tagARCA_BATTLE_START_TIME@@V?$allocator@U_tagARCA_BATTLE_START_TIME@@@std@@@std@@@std@@QAEAAPAU_tagARCA_BATTLE_START_TIME@@XZ
_TEXT	SEGMENT
?_Myfirst@?$_Vector_alloc@U?$_Vec_base_types@U_tagARCA_BATTLE_START_TIME@@V?$allocator@U_tagARCA_BATTLE_START_TIME@@@std@@@std@@@std@@QAEAAPAU_tagARCA_BATTLE_START_TIME@@XZ PROC ; std::_Vector_alloc<std::_Vec_base_types<_tagARCA_BATTLE_START_TIME,std::allocator<_tagARCA_BATTLE_START_TIME> > >::_Myfirst, COMDAT
; _this$ = ecx

; 642  : 		return (_Get_data()._Myfirst);

  00000	8b c1		 mov	 eax, ecx

; 643  : 		}

  00002	c3		 ret	 0
?_Myfirst@?$_Vector_alloc@U?$_Vec_base_types@U_tagARCA_BATTLE_START_TIME@@V?$allocator@U_tagARCA_BATTLE_START_TIME@@@std@@@std@@@std@@QAEAAPAU_tagARCA_BATTLE_START_TIME@@XZ ENDP ; std::_Vector_alloc<std::_Vec_base_types<_tagARCA_BATTLE_START_TIME,std::allocator<_tagARCA_BATTLE_START_TIME> > >::_Myfirst
_TEXT	ENDS
; Function compile flags: /Ogtp
; File c:\program files (x86)\microsoft visual studio 14.0\vc\include\vector
;	COMDAT ?_Get_data@?$_Vector_alloc@U?$_Vec_base_types@U_tagARCA_BATTLE_START_TIME@@V?$allocator@U_tagARCA_BATTLE_START_TIME@@@std@@@std@@@std@@QAEAAV?$_Vector_val@U?$_Simple_types@U_tagARCA_BATTLE_START_TIME@@@std@@@2@XZ
_TEXT	SEGMENT
?_Get_data@?$_Vector_alloc@U?$_Vec_base_types@U_tagARCA_BATTLE_START_TIME@@V?$allocator@U_tagARCA_BATTLE_START_TIME@@@std@@@std@@@std@@QAEAAV?$_Vector_val@U?$_Simple_types@U_tagARCA_BATTLE_START_TIME@@@std@@@2@XZ PROC ; std::_Vector_alloc<std::_Vec_base_types<_tagARCA_BATTLE_START_TIME,std::allocator<_tagARCA_BATTLE_START_TIME> > >::_Get_data, COMDAT
; _this$ = ecx

; 632  : 		return (_Mypair._Get_second());

  00000	8b c1		 mov	 eax, ecx

; 633  : 		}

  00002	c3		 ret	 0
?_Get_data@?$_Vector_alloc@U?$_Vec_base_types@U_tagARCA_BATTLE_START_TIME@@V?$allocator@U_tagARCA_BATTLE_START_TIME@@@std@@@std@@@std@@QAEAAV?$_Vector_val@U?$_Simple_types@U_tagARCA_BATTLE_START_TIME@@@std@@@2@XZ ENDP ; std::_Vector_alloc<std::_Vec_base_types<_tagARCA_BATTLE_START_TIME,std::allocator<_tagARCA_BATTLE_START_TIME> > >::_Get_data
_TEXT	ENDS
; Function compile flags: /Ogtp
; File c:\program files (x86)\microsoft visual studio 14.0\vc\include\vector
;	COMDAT ?_Getal@?$_Vector_alloc@U?$_Vec_base_types@U_tagARCA_BATTLE_START_TIME@@V?$allocator@U_tagARCA_BATTLE_START_TIME@@@std@@@std@@@std@@QAEAAU?$_Wrap_alloc@V?$allocator@U_tagARCA_BATTLE_START_TIME@@@std@@@2@XZ
_TEXT	SEGMENT
?_Getal@?$_Vector_alloc@U?$_Vec_base_types@U_tagARCA_BATTLE_START_TIME@@V?$allocator@U_tagARCA_BATTLE_START_TIME@@@std@@@std@@@std@@QAEAAU?$_Wrap_alloc@V?$allocator@U_tagARCA_BATTLE_START_TIME@@@std@@@2@XZ PROC ; std::_Vector_alloc<std::_Vec_base_types<_tagARCA_BATTLE_START_TIME,std::allocator<_tagARCA_BATTLE_START_TIME> > >::_Getal, COMDAT
; _this$ = ecx

; 622  : 		return (_Mypair._Get_first());

  00000	8b c1		 mov	 eax, ecx

; 623  : 		}

  00002	c3		 ret	 0
?_Getal@?$_Vector_alloc@U?$_Vec_base_types@U_tagARCA_BATTLE_START_TIME@@V?$allocator@U_tagARCA_BATTLE_START_TIME@@@std@@@std@@@std@@QAEAAU?$_Wrap_alloc@V?$allocator@U_tagARCA_BATTLE_START_TIME@@@std@@@2@XZ ENDP ; std::_Vector_alloc<std::_Vec_base_types<_tagARCA_BATTLE_START_TIME,std::allocator<_tagARCA_BATTLE_START_TIME> > >::_Getal
_TEXT	ENDS
; Function compile flags: /Ogtp
; File c:\program files (x86)\microsoft visual studio 14.0\vc\include\vector
;	COMDAT ?_Orphan_all@?$_Vector_alloc@U?$_Vec_base_types@U_tagARCA_BATTLE_START_TIME@@V?$allocator@U_tagARCA_BATTLE_START_TIME@@@std@@@std@@@std@@QAEXXZ
_TEXT	SEGMENT
?_Orphan_all@?$_Vector_alloc@U?$_Vec_base_types@U_tagARCA_BATTLE_START_TIME@@V?$allocator@U_tagARCA_BATTLE_START_TIME@@@std@@@std@@@std@@QAEXXZ PROC ; std::_Vector_alloc<std::_Vec_base_types<_tagARCA_BATTLE_START_TIME,std::allocator<_tagARCA_BATTLE_START_TIME> > >::_Orphan_all, COMDAT
; _this$ = ecx

; 612  : 		_Get_data()._Orphan_all();
; 613  : 		}

  00000	c3		 ret	 0
?_Orphan_all@?$_Vector_alloc@U?$_Vec_base_types@U_tagARCA_BATTLE_START_TIME@@V?$allocator@U_tagARCA_BATTLE_START_TIME@@@std@@@std@@@std@@QAEXXZ ENDP ; std::_Vector_alloc<std::_Vec_base_types<_tagARCA_BATTLE_START_TIME,std::allocator<_tagARCA_BATTLE_START_TIME> > >::_Orphan_all
_TEXT	ENDS
; Function compile flags: /Ogtp
; File c:\program files (x86)\microsoft visual studio 14.0\vc\include\vector
;	COMDAT ??0?$_Vector_alloc@U?$_Vec_base_types@U_tagARCA_BATTLE_START_TIME@@V?$allocator@U_tagARCA_BATTLE_START_TIME@@@std@@@std@@@std@@QAE@ABV?$allocator@U_tagARCA_BATTLE_START_TIME@@@1@@Z
_TEXT	SEGMENT
__Al$ = 8						; size = 4
??0?$_Vector_alloc@U?$_Vec_base_types@U_tagARCA_BATTLE_START_TIME@@V?$allocator@U_tagARCA_BATTLE_START_TIME@@@std@@@std@@@std@@QAE@ABV?$allocator@U_tagARCA_BATTLE_START_TIME@@@1@@Z PROC ; std::_Vector_alloc<std::_Vec_base_types<_tagARCA_BATTLE_START_TIME,std::allocator<_tagARCA_BATTLE_START_TIME> > >::_Vector_alloc<std::_Vec_base_types<_tagARCA_BATTLE_START_TIME,std::allocator<_tagARCA_BATTLE_START_TIME> > >, COMDAT
; _this$ = ecx

; 480  : 		_Myfirst = pointer();

  00000	c7 01 00 00 00
	00		 mov	 DWORD PTR [ecx], 0

; 515  : 		}

  00006	8b c1		 mov	 eax, ecx

; 481  : 		_Mylast = pointer();

  00008	c7 41 04 00 00
	00 00		 mov	 DWORD PTR [ecx+4], 0

; 482  : 		_Myend = pointer();

  0000f	c7 41 08 00 00
	00 00		 mov	 DWORD PTR [ecx+8], 0

; 515  : 		}

  00016	c2 04 00	 ret	 4
??0?$_Vector_alloc@U?$_Vec_base_types@U_tagARCA_BATTLE_START_TIME@@V?$allocator@U_tagARCA_BATTLE_START_TIME@@@std@@@std@@@std@@QAE@ABV?$allocator@U_tagARCA_BATTLE_START_TIME@@@1@@Z ENDP ; std::_Vector_alloc<std::_Vec_base_types<_tagARCA_BATTLE_START_TIME,std::allocator<_tagARCA_BATTLE_START_TIME> > >::_Vector_alloc<std::_Vec_base_types<_tagARCA_BATTLE_START_TIME,std::allocator<_tagARCA_BATTLE_START_TIME> > >
_TEXT	ENDS
; Function compile flags: /Ogtp
; File c:\program files (x86)\microsoft visual studio 14.0\vc\include\xmemory0
;	COMDAT ?deallocate@?$_Wrap_alloc@V?$allocator@U_tagARCA_BATTLE_START_TIME@@@std@@@std@@QAEXPAU_tagARCA_BATTLE_START_TIME@@I@Z
_TEXT	SEGMENT
__Ptr$ = 8						; size = 4
__Count$ = 12						; size = 4
?deallocate@?$_Wrap_alloc@V?$allocator@U_tagARCA_BATTLE_START_TIME@@@std@@@std@@QAEXPAU_tagARCA_BATTLE_START_TIME@@I@Z PROC ; std::_Wrap_alloc<std::allocator<_tagARCA_BATTLE_START_TIME> >::deallocate, COMDAT
; _this$ = ecx

; 908  : 		{	// deallocate object at _Ptr, ignore size

  00000	55		 push	 ebp
  00001	8b ec		 mov	 ebp, esp

; 910  : 		}

  00003	5d		 pop	 ebp

; 909  : 		_Mybase::deallocate(_Ptr, _Count);

  00004	e9 00 00 00 00	 jmp	 ?deallocate@?$allocator@U_tagARCA_BATTLE_START_TIME@@@std@@QAEXPAU_tagARCA_BATTLE_START_TIME@@I@Z ; std::allocator<_tagARCA_BATTLE_START_TIME>::deallocate
?deallocate@?$_Wrap_alloc@V?$allocator@U_tagARCA_BATTLE_START_TIME@@@std@@@std@@QAEXPAU_tagARCA_BATTLE_START_TIME@@I@Z ENDP ; std::_Wrap_alloc<std::allocator<_tagARCA_BATTLE_START_TIME> >::deallocate
_TEXT	ENDS
; Function compile flags: /Ogtp
; File c:\program files (x86)\microsoft visual studio 14.0\vc\include\xmemory0
;	COMDAT ??0?$_Wrap_alloc@V?$allocator@U_tagARCA_BATTLE_START_TIME@@@std@@@std@@QAE@ABV?$allocator@U_tagARCA_BATTLE_START_TIME@@@1@@Z
_TEXT	SEGMENT
__Right$ = 8						; size = 4
??0?$_Wrap_alloc@V?$allocator@U_tagARCA_BATTLE_START_TIME@@@std@@@std@@QAE@ABV?$allocator@U_tagARCA_BATTLE_START_TIME@@@1@@Z PROC ; std::_Wrap_alloc<std::allocator<_tagARCA_BATTLE_START_TIME> >::_Wrap_alloc<std::allocator<_tagARCA_BATTLE_START_TIME> >, COMDAT
; _this$ = ecx

; 858  : 		}

  00000	8b c1		 mov	 eax, ecx
  00002	c2 04 00	 ret	 4
??0?$_Wrap_alloc@V?$allocator@U_tagARCA_BATTLE_START_TIME@@@std@@@std@@QAE@ABV?$allocator@U_tagARCA_BATTLE_START_TIME@@@1@@Z ENDP ; std::_Wrap_alloc<std::allocator<_tagARCA_BATTLE_START_TIME> >::_Wrap_alloc<std::allocator<_tagARCA_BATTLE_START_TIME> >
_TEXT	ENDS
; Function compile flags: /Ogtp
; File c:\program files (x86)\microsoft visual studio 14.0\vc\include\xmemory0
;	COMDAT ?deallocate@?$allocator@U_tagARCA_BATTLE_START_TIME@@@std@@QAEXPAU_tagARCA_BATTLE_START_TIME@@I@Z
_TEXT	SEGMENT
__Ptr$ = 8						; size = 4
__Count$ = 12						; size = 4
?deallocate@?$allocator@U_tagARCA_BATTLE_START_TIME@@@std@@QAEXPAU_tagARCA_BATTLE_START_TIME@@I@Z PROC ; std::allocator<_tagARCA_BATTLE_START_TIME>::deallocate, COMDAT
; _this$ = ecx

; 637  : 		{	// deallocate object at _Ptr

  00000	55		 push	 ebp
  00001	8b ec		 mov	 ebp, esp

; 100  : 	_SCL_SECURE_ALWAYS_VALIDATE(_Count <= (size_t)(-1) / _Sz);

  00003	8b 45 0c	 mov	 eax, DWORD PTR __Count$[ebp]

; 638  : 		_Deallocate(_Ptr, _Count, sizeof (_Ty));

  00006	8b 4d 08	 mov	 ecx, DWORD PTR __Ptr$[ebp]

; 100  : 	_SCL_SECURE_ALWAYS_VALIDATE(_Count <= (size_t)(-1) / _Sz);

  00009	3d 55 55 55 15	 cmp	 eax, 357913941		; 15555555H
  0000e	77 34		 ja	 SHORT $LN13@deallocate

; 101  : 	const size_t _User_size = _Count * _Sz;

  00010	8d 04 40	 lea	 eax, DWORD PTR [eax+eax*2]
  00013	c1 e0 02	 shl	 eax, 2

; 102  : 	if (_BIG_ALLOCATION_THRESHOLD <= _User_size)

  00016	3d 00 10 00 00	 cmp	 eax, 4096		; 00001000H
  0001b	72 1a		 jb	 SHORT $LN5@deallocate

; 103  : 		{	// deallocate large block
; 104  : 		const uintptr_t _Ptr_user = reinterpret_cast<uintptr_t>(_Ptr);
; 105  : 		_SCL_SECURE_ALWAYS_VALIDATE(

  0001d	f6 c1 1f	 test	 cl, 31			; 0000001fH
  00020	75 27		 jne	 SHORT $LN15@deallocate

; 106  : 			(_Ptr_user & (_BIG_ALLOCATION_ALIGNMENT - 1)) == 0);
; 107  : 		const uintptr_t _Ptr_ptr = _Ptr_user - sizeof(void *);
; 108  : 		const uintptr_t _Ptr_container =
; 109  : 			*reinterpret_cast<uintptr_t *>(_Ptr_ptr);

  00022	8b 41 fc	 mov	 eax, DWORD PTR [ecx-4]

; 110  : 
; 111  :  #ifdef _DEBUG
; 112  : 		// If the following asserts, it likely means that we are performing
; 113  : 		// an aligned delete on memory coming from an unaligned allocation.
; 114  : 		_SCL_SECURE_ALWAYS_VALIDATE(
; 115  : 			reinterpret_cast<uintptr_t *>(_Ptr_ptr)[-1] ==
; 116  : 				_BIG_ALLOCATION_SENTINEL);
; 117  :  #endif /* _DEBUG */
; 118  : 
; 119  : 		// Extra paranoia on aligned allocation/deallocation
; 120  : 		_SCL_SECURE_ALWAYS_VALIDATE(_Ptr_container < _Ptr_user);

  00025	3b c1		 cmp	 eax, ecx
  00027	73 25		 jae	 SHORT $LN16@deallocate

; 121  : 
; 122  :  #ifdef _DEBUG
; 123  : 		_SCL_SECURE_ALWAYS_VALIDATE(2 * sizeof(void *)
; 124  : 			<= _Ptr_user - _Ptr_container);
; 125  : 
; 126  :  #else /* _DEBUG */
; 127  : 		_SCL_SECURE_ALWAYS_VALIDATE(sizeof(void *)

  00029	2b c8		 sub	 ecx, eax
  0002b	83 f9 04	 cmp	 ecx, 4
  0002e	72 23		 jb	 SHORT $LN17@deallocate

; 128  : 			<= _Ptr_user - _Ptr_container);
; 129  :  #endif /* _DEBUG */
; 130  : 
; 131  : 		_SCL_SECURE_ALWAYS_VALIDATE(_Ptr_user - _Ptr_container

  00030	83 f9 23	 cmp	 ecx, 35			; 00000023H
  00033	77 23		 ja	 SHORT $LN18@deallocate

; 132  : 			<= _NON_USER_SIZE);
; 133  : 
; 134  : 		_Ptr = reinterpret_cast<void *>(_Ptr_container);

  00035	8b c8		 mov	 ecx, eax
$LN5@deallocate:

; 135  : 		}
; 136  :  #endif /* defined(_M_IX86) || defined(_M_X64) */
; 137  : 
; 138  : 	::operator delete(_Ptr);

  00037	51		 push	 ecx
  00038	e8 00 00 00 00	 call	 ??3@YAXPAX@Z		; operator delete
  0003d	83 c4 04	 add	 esp, 4

; 639  : 		}

  00040	5d		 pop	 ebp
  00041	c2 08 00	 ret	 8
$LN13@deallocate:

; 100  : 	_SCL_SECURE_ALWAYS_VALIDATE(_Count <= (size_t)(-1) / _Sz);

  00044	e8 00 00 00 00	 call	 __invalid_parameter_noinfo_noreturn
$LN19@deallocate:
$LN15@deallocate:

; 103  : 		{	// deallocate large block
; 104  : 		const uintptr_t _Ptr_user = reinterpret_cast<uintptr_t>(_Ptr);
; 105  : 		_SCL_SECURE_ALWAYS_VALIDATE(

  00049	e8 00 00 00 00	 call	 __invalid_parameter_noinfo_noreturn
$LN20@deallocate:
$LN16@deallocate:

; 110  : 
; 111  :  #ifdef _DEBUG
; 112  : 		// If the following asserts, it likely means that we are performing
; 113  : 		// an aligned delete on memory coming from an unaligned allocation.
; 114  : 		_SCL_SECURE_ALWAYS_VALIDATE(
; 115  : 			reinterpret_cast<uintptr_t *>(_Ptr_ptr)[-1] ==
; 116  : 				_BIG_ALLOCATION_SENTINEL);
; 117  :  #endif /* _DEBUG */
; 118  : 
; 119  : 		// Extra paranoia on aligned allocation/deallocation
; 120  : 		_SCL_SECURE_ALWAYS_VALIDATE(_Ptr_container < _Ptr_user);

  0004e	e8 00 00 00 00	 call	 __invalid_parameter_noinfo_noreturn
$LN21@deallocate:
$LN17@deallocate:

; 121  : 
; 122  :  #ifdef _DEBUG
; 123  : 		_SCL_SECURE_ALWAYS_VALIDATE(2 * sizeof(void *)
; 124  : 			<= _Ptr_user - _Ptr_container);
; 125  : 
; 126  :  #else /* _DEBUG */
; 127  : 		_SCL_SECURE_ALWAYS_VALIDATE(sizeof(void *)

  00053	e8 00 00 00 00	 call	 __invalid_parameter_noinfo_noreturn
$LN22@deallocate:
$LN18@deallocate:

; 128  : 			<= _Ptr_user - _Ptr_container);
; 129  :  #endif /* _DEBUG */
; 130  : 
; 131  : 		_SCL_SECURE_ALWAYS_VALIDATE(_Ptr_user - _Ptr_container

  00058	e8 00 00 00 00	 call	 __invalid_parameter_noinfo_noreturn
$LN23@deallocate:
$LN12@deallocate:
  0005d	cc		 int	 3
?deallocate@?$allocator@U_tagARCA_BATTLE_START_TIME@@@std@@QAEXPAU_tagARCA_BATTLE_START_TIME@@I@Z ENDP ; std::allocator<_tagARCA_BATTLE_START_TIME>::deallocate
_TEXT	ENDS
; Function compile flags: /Ogtp
; File c:\program files (x86)\microsoft visual studio 14.0\vc\include\xmemory0
;	COMDAT ??0?$allocator@U_tagARCA_BATTLE_START_TIME@@@std@@QAE@ABV01@@Z
_TEXT	SEGMENT
___formal$ = 8						; size = 4
??0?$allocator@U_tagARCA_BATTLE_START_TIME@@@std@@QAE@ABV01@@Z PROC ; std::allocator<_tagARCA_BATTLE_START_TIME>::allocator<_tagARCA_BATTLE_START_TIME>, COMDAT
; _this$ = ecx

; 622  : 		{	// construct by copying (do nothing)
; 623  : 		}

  00000	8b c1		 mov	 eax, ecx
  00002	c2 04 00	 ret	 4
??0?$allocator@U_tagARCA_BATTLE_START_TIME@@@std@@QAE@ABV01@@Z ENDP ; std::allocator<_tagARCA_BATTLE_START_TIME>::allocator<_tagARCA_BATTLE_START_TIME>
_TEXT	ENDS
; Function compile flags: /Ogtp
; File c:\program files (x86)\microsoft visual studio 14.0\vc\include\xmemory0
;	COMDAT ??0?$allocator@U_tagARCA_BATTLE_START_TIME@@@std@@QAE@XZ
_TEXT	SEGMENT
??0?$allocator@U_tagARCA_BATTLE_START_TIME@@@std@@QAE@XZ PROC ; std::allocator<_tagARCA_BATTLE_START_TIME>::allocator<_tagARCA_BATTLE_START_TIME>, COMDAT
; _this$ = ecx

; 618  : 		{	// construct default allocator (do nothing)
; 619  : 		}

  00000	8b c1		 mov	 eax, ecx
  00002	c3		 ret	 0
??0?$allocator@U_tagARCA_BATTLE_START_TIME@@@std@@QAE@XZ ENDP ; std::allocator<_tagARCA_BATTLE_START_TIME>::allocator<_tagARCA_BATTLE_START_TIME>
_TEXT	ENDS
; Function compile flags: /Ogtp
; File c:\users\michel\desktop\source\gameserver\source\arcabattle.cpp
;	COMDAT ?ProbabilityLoadData@CArcaBattle@@QAEXXZ
_TEXT	SEGMENT
?ProbabilityLoadData@CArcaBattle@@QAEXXZ PROC		; CArcaBattle::ProbabilityLoadData, COMDAT
; _this$ = ecx

; 2652 : /*	if( this->m_pAcheronProbability != false )	
; 2653 : 	{
; 2654 : 		delete this->m_pAcheronProbability;
; 2655 : 	}
; 2656 : 	// ----
; 2657 : 	this->m_pAcheronProbability = new CProbabilityItemBag;
; 2658 : 	// ----
; 2659 : 	if( this->m_pAcheronProbability == NULL )
; 2660 : 	{
; 2661 : 		MsgBox( "[ArcaBattle] AcheronProbability.txt %s", lMsg.Get(MSGGET(0, 110)));
; 2662 : 		return;
; 2663 : 	}
; 2664 : 	// ----
; 2665 : 	this->m_pAcheronProbability->ProbabilityItemBagInit(this->m_pAcheronProbability, AB_REW_ITEMBAG);*/
; 2666 : }

  00000	c3		 ret	 0
?ProbabilityLoadData@CArcaBattle@@QAEXXZ ENDP		; CArcaBattle::ProbabilityLoadData
_TEXT	ENDS
; Function compile flags: /Ogtp
; File c:\users\michel\desktop\source\gameserver\source\arcabattle.cpp
;	COMDAT ?DropItem@CArcaBattle@@QAEHPAUOBJECTSTRUCT@@EEEH@Z
_TEXT	SEGMENT
_lpObj$ = 8						; size = 4
_btMapNumber$ = 12					; size = 1
_cX$ = 16						; size = 1
_cY$ = 20						; size = 1
_nMaxHitUser$ = 24					; size = 4
?DropItem@CArcaBattle@@QAEHPAUOBJECTSTRUCT@@EEEH@Z PROC	; CArcaBattle::DropItem, COMDAT
; _this$ = ecx

; 2629 : {

  00000	55		 push	 ebp
  00001	8b ec		 mov	 ebp, esp

; 2630 : 	if( btMapNumber != MAP_INDEX_ACHERON )

  00003	80 7d 0c 5b	 cmp	 BYTE PTR _btMapNumber$[ebp], 91 ; 0000005bH
  00007	75 10		 jne	 SHORT $LN5@DropItem

; 2631 : 	{
; 2632 : 		return false;
; 2633 : 	}
; 2634 : 	// ----
; 2635 : 	if( gObjCheckUsedBuffEffect(lpObj, 187) == false )	//Reward?

  00009	68 bb 00 00 00	 push	 187			; 000000bbH
  0000e	ff 75 08	 push	 DWORD PTR _lpObj$[ebp]
  00011	e8 00 00 00 00	 call	 ?gObjCheckUsedBuffEffect@@YA_NPAUOBJECTSTRUCT@@H@Z ; gObjCheckUsedBuffEffect
  00016	83 c4 08	 add	 esp, 8
$LN5@DropItem:
  00019	33 c0		 xor	 eax, eax

; 2636 : 	{
; 2637 : 		return false;
; 2638 : 	}
; 2639 : 	// ----
; 2640 : //	if( this->m_pAcheronProbability.DropArcaBattleRewardSetItem(lpObj->m_Index, btMapNumber, cX, cY) == true )
; 2641 : //	{
; 2642 : //		return true;
; 2643 : //	}
; 2644 : 	// ----
; 2645 : 	return false;
; 2646 : }

  0001b	5d		 pop	 ebp
  0001c	c2 14 00	 ret	 20			; 00000014H
?DropItem@CArcaBattle@@QAEHPAUOBJECTSTRUCT@@EEEH@Z ENDP	; CArcaBattle::DropItem
_TEXT	ENDS
; Function compile flags: /Ogtp
; File c:\users\michel\desktop\source\gameserver\source\arcabattle.cpp
;	COMDAT ?GetUserInfo@CArcaBattle@@QAEPAU_tagArcaBattleUserInfo@@PAD@Z
_TEXT	SEGMENT
_this$1$ = -4						; size = 4
_szName$ = 8						; size = 4
?GetUserInfo@CArcaBattle@@QAEPAU_tagArcaBattleUserInfo@@PAD@Z PROC ; CArcaBattle::GetUserInfo, COMDAT
; _this$ = ecx

; 1337 : {

  00000	55		 push	 ebp
  00001	8b ec		 mov	 ebp, esp
  00003	51		 push	 ecx
  00004	8b c1		 mov	 eax, ecx
  00006	53		 push	 ebx
  00007	56		 push	 esi

; 1338 : 	for( int i = 0; i < this->m_iCurUserCount; i++ )

  00008	33 f6		 xor	 esi, esi
  0000a	89 45 fc	 mov	 DWORD PTR _this$1$[ebp], eax
  0000d	8b 98 a8 34 00
	00		 mov	 ebx, DWORD PTR [eax+13480]
  00013	57		 push	 edi
  00014	85 db		 test	 ebx, ebx
  00016	7e 3e		 jle	 SHORT $LN3@GetUserInf
  00018	8d b8 b8 13 00
	00		 lea	 edi, DWORD PTR [eax+5048]
  0001e	66 90		 npad	 2
$LL4@GetUserInf:

; 1339 : 	{
; 1340 : 		if( !strcmp(this->m_UserData[i].szCharName, szName) )

  00020	8b 45 08	 mov	 eax, DWORD PTR _szName$[ebp]
  00023	8b cf		 mov	 ecx, edi
$LL12@GetUserInf:
  00025	8a 11		 mov	 dl, BYTE PTR [ecx]
  00027	3a 10		 cmp	 dl, BYTE PTR [eax]
  00029	75 1a		 jne	 SHORT $LN13@GetUserInf
  0002b	84 d2		 test	 dl, dl
  0002d	74 12		 je	 SHORT $LN14@GetUserInf
  0002f	8a 51 01	 mov	 dl, BYTE PTR [ecx+1]
  00032	3a 50 01	 cmp	 dl, BYTE PTR [eax+1]
  00035	75 0e		 jne	 SHORT $LN13@GetUserInf
  00037	83 c1 02	 add	 ecx, 2
  0003a	83 c0 02	 add	 eax, 2
  0003d	84 d2		 test	 dl, dl
  0003f	75 e4		 jne	 SHORT $LL12@GetUserInf
$LN14@GetUserInf:
  00041	33 c0		 xor	 eax, eax
  00043	eb 05		 jmp	 SHORT $LN15@GetUserInf
$LN13@GetUserInf:
  00045	1b c0		 sbb	 eax, eax
  00047	83 c8 01	 or	 eax, 1
$LN15@GetUserInf:
  0004a	85 c0		 test	 eax, eax
  0004c	74 13		 je	 SHORT $LN8@GetUserInf

; 1338 : 	for( int i = 0; i < this->m_iCurUserCount; i++ )

  0004e	46		 inc	 esi
  0004f	83 c7 18	 add	 edi, 24			; 00000018H
  00052	3b f3		 cmp	 esi, ebx
  00054	7c ca		 jl	 SHORT $LL4@GetUserInf
$LN3@GetUserInf:
  00056	5f		 pop	 edi
  00057	5e		 pop	 esi

; 1343 : 		}
; 1344 : 	}
; 1345 : 	// ----
; 1346 : 	return 0;

  00058	33 c0		 xor	 eax, eax
  0005a	5b		 pop	 ebx

; 1347 : }

  0005b	8b e5		 mov	 esp, ebp
  0005d	5d		 pop	 ebp
  0005e	c2 04 00	 ret	 4
$LN8@GetUserInf:

; 1341 : 		{
; 1342 : 			return &this->m_UserData[i];

  00061	8b 4d fc	 mov	 ecx, DWORD PTR _this$1$[ebp]
  00064	8d 04 75 77 02
	00 00		 lea	 eax, DWORD PTR [esi*2+631]
  0006b	03 c6		 add	 eax, esi
  0006d	5f		 pop	 edi
  0006e	5e		 pop	 esi
  0006f	5b		 pop	 ebx
  00070	8d 04 c1	 lea	 eax, DWORD PTR [ecx+eax*8]

; 1347 : }

  00073	8b e5		 mov	 esp, ebp
  00075	5d		 pop	 ebp
  00076	c2 04 00	 ret	 4
?GetUserInfo@CArcaBattle@@QAEPAU_tagArcaBattleUserInfo@@PAD@Z ENDP ; CArcaBattle::GetUserInfo
_TEXT	ENDS
; Function compile flags: /Ogtp
; File c:\users\michel\desktop\source\gameserver\source\arcabattle.cpp
;	COMDAT ?CalcRewardExp@CArcaBattle@@QAEXAAUOBJECTSTRUCT@@AA_J@Z
_TEXT	SEGMENT
_szName$ = -12						; size = 11
_obj$ = 8						; size = 4
_iRewardExp$ = 12					; size = 4
?CalcRewardExp@CArcaBattle@@QAEXAAUOBJECTSTRUCT@@AA_J@Z PROC ; CArcaBattle::CalcRewardExp, COMDAT
; _this$ = ecx

; 2580 : {

  00000	55		 push	 ebp
  00001	8b ec		 mov	 ebp, esp
  00003	83 ec 0c	 sub	 esp, 12			; 0000000cH
  00006	56		 push	 esi

; 2581 : 	if( obj.Type != OBJ_USER )

  00007	8b 75 08	 mov	 esi, DWORD PTR _obj$[ebp]
  0000a	80 7e 50 01	 cmp	 BYTE PTR [esi+80], 1
  0000e	0f 85 b6 00 00
	00		 jne	 $LN1@CalcReward

; 2582 : 	{
; 2583 : 		return;
; 2584 : 	}
; 2585 : 	// ----
; 2586 : 	char szName[11] = { 0 };
; 2587 : 	memcpy(szName, obj.Name, 11);

  00014	66 8b 46 65	 mov	 ax, WORD PTR [esi+101]
  00018	f3 0f 7e 46 5d	 movq	 xmm0, QWORD PTR [esi+93]
  0001d	57		 push	 edi
  0001e	8d 7e 5d	 lea	 edi, DWORD PTR [esi+93]
  00021	66 89 45 fc	 mov	 WORD PTR _szName$[ebp+8], ax
  00025	8a 47 0a	 mov	 al, BYTE PTR [edi+10]
  00028	88 45 fe	 mov	 BYTE PTR _szName$[ebp+10], al

; 2588 : 	_tagArcaBattleUserInfo * pUserInfo = this->GetUserInfo(szName);

  0002b	8d 45 f4	 lea	 eax, DWORD PTR _szName$[ebp]
  0002e	50		 push	 eax
  0002f	66 0f d6 45 f4	 movq	 QWORD PTR _szName$[ebp], xmm0
  00034	e8 00 00 00 00	 call	 ?GetUserInfo@CArcaBattle@@QAEPAU_tagArcaBattleUserInfo@@PAD@Z ; CArcaBattle::GetUserInfo

; 2589 : 	// ----
; 2590 : 	if( pUserInfo == NULL )

  00039	85 c0		 test	 eax, eax
  0003b	0f 84 88 00 00
	00		 je	 $LN16@CalcReward

; 2591 : 	{
; 2592 : 		return;
; 2593 : 	}
; 2594 : 	// ----
; 2595 : 	DWORD dwKillPoints = pUserInfo->m_stAcquiredPoints.dwKillPoints;

  00041	8b 50 14	 mov	 edx, DWORD PTR [eax+20]

; 2596 : 	// ----
; 2597 : 	if( dwKillPoints >= 0 && dwKillPoints <= 10 )

  00044	8b 4d 0c	 mov	 ecx, DWORD PTR _iRewardExp$[ebp]
  00047	83 fa 0a	 cmp	 edx, 10			; 0000000aH
  0004a	77 08		 ja	 SHORT $LN4@CalcReward

; 2598 : 	{
; 2599 : 		iRewardExp = AB_REW_KILL_EXP1;

  0004c	c7 01 e0 93 04
	00		 mov	 DWORD PTR [ecx], 300000	; 000493e0H
  00052	eb 55		 jmp	 SHORT $LN17@CalcReward
$LN4@CalcReward:

; 2600 : 	}
; 2601 : 	else if( dwKillPoints >= 11 && dwKillPoints <= 50 )

  00054	8d 42 f5	 lea	 eax, DWORD PTR [edx-11]
  00057	83 f8 27	 cmp	 eax, 39			; 00000027H
  0005a	77 08		 ja	 SHORT $LN6@CalcReward

; 2602 : 	{
; 2603 : 		iRewardExp = AB_REW_KILL_EXP2;

  0005c	c7 01 20 a1 07
	00		 mov	 DWORD PTR [ecx], 500000	; 0007a120H
  00062	eb 45		 jmp	 SHORT $LN17@CalcReward
$LN6@CalcReward:

; 2604 : 	}
; 2605 : 	else if( dwKillPoints >= 51 && dwKillPoints <= 100 )

  00064	8d 42 cd	 lea	 eax, DWORD PTR [edx-51]
  00067	83 f8 31	 cmp	 eax, 49			; 00000031H
  0006a	77 08		 ja	 SHORT $LN8@CalcReward

; 2606 : 	{
; 2607 : 		iRewardExp = AB_REW_KILL_EXP3;

  0006c	c7 01 60 ae 0a
	00		 mov	 DWORD PTR [ecx], 700000	; 000aae60H
  00072	eb 35		 jmp	 SHORT $LN17@CalcReward
$LN8@CalcReward:

; 2608 : 	}
; 2609 : 	else if( dwKillPoints >= 101 && dwKillPoints <= 300 )

  00074	8d 42 9b	 lea	 eax, DWORD PTR [edx-101]
  00077	3d c7 00 00 00	 cmp	 eax, 199		; 000000c7H
  0007c	77 08		 ja	 SHORT $LN10@CalcReward

; 2610 : 	{
; 2611 : 		iRewardExp = AB_REW_KILL_EXP4;

  0007e	c7 01 40 42 0f
	00		 mov	 DWORD PTR [ecx], 1000000 ; 000f4240H
  00084	eb 23		 jmp	 SHORT $LN17@CalcReward
$LN10@CalcReward:

; 2612 : 	}
; 2613 : 	else if( dwKillPoints >= 301 && dwKillPoints <= 500 )

  00086	8d 82 d3 fe ff
	ff		 lea	 eax, DWORD PTR [edx-301]
  0008c	3d c7 00 00 00	 cmp	 eax, 199		; 000000c7H
  00091	77 08		 ja	 SHORT $LN12@CalcReward

; 2614 : 	{
; 2615 : 		iRewardExp = AB_REW_KILL_EXP5;

  00093	c7 01 80 84 1e
	00		 mov	 DWORD PTR [ecx], 2000000 ; 001e8480H
  00099	eb 0e		 jmp	 SHORT $LN17@CalcReward
$LN12@CalcReward:

; 2616 : 	}
; 2617 : 	else if( dwKillPoints >= 501 )

  0009b	81 fa f5 01 00
	00		 cmp	 edx, 501		; 000001f5H
  000a1	72 0d		 jb	 SHORT $LN14@CalcReward

; 2618 : 	{
; 2619 : 		iRewardExp = AB_REW_KILL_EXP6;

  000a3	c7 01 c0 c6 2d
	00		 mov	 DWORD PTR [ecx], 3000000 ; 002dc6c0H
$LN17@CalcReward:
  000a9	c7 41 04 00 00
	00 00		 mov	 DWORD PTR [ecx+4], 0
$LN14@CalcReward:

; 2620 : 	}
; 2621 : 	// ----
; 2622 : 	LogAddTD("[ArcaBattle] CalcRewardExp [%s][%s] Total KillPoints[%d] Exp[%U]",

  000b0	ff 71 04	 push	 DWORD PTR [ecx+4]
  000b3	8d 46 52	 lea	 eax, DWORD PTR [esi+82]
  000b6	ff 31		 push	 DWORD PTR [ecx]
  000b8	52		 push	 edx
  000b9	57		 push	 edi
  000ba	50		 push	 eax
  000bb	68 00 00 00 00	 push	 OFFSET ??_C@_0EB@DJABEHEF@?$FLArcaBattle?$FN?5CalcRewardExp?5?$FL?$CFs?$FN?$FL@
  000c0	ff 15 00 00 00
	00		 call	 DWORD PTR ?LogAddTD@@3P6AXPADZZA ; LogAddTD
  000c6	83 c4 18	 add	 esp, 24			; 00000018H
$LN16@CalcReward:
  000c9	5f		 pop	 edi
$LN1@CalcReward:
  000ca	5e		 pop	 esi

; 2623 : 		obj.AccountID, obj.Name, dwKillPoints, iRewardExp);
; 2624 : }

  000cb	8b e5		 mov	 esp, ebp
  000cd	5d		 pop	 ebp
  000ce	c2 08 00	 ret	 8
?CalcRewardExp@CArcaBattle@@QAEXAAUOBJECTSTRUCT@@AA_J@Z ENDP ; CArcaBattle::CalcRewardExp
_TEXT	ENDS
; Function compile flags: /Ogtp
; File c:\users\michel\desktop\source\gameserver\source\arcabattle.cpp
;	COMDAT ?BootyItemGetCnt@CArcaBattle@@QAEXAAUOBJECTSTRUCT@@@Z
_TEXT	SEGMENT
_szName$ = -12						; size = 11
_obj$ = 8						; size = 4
?BootyItemGetCnt@CArcaBattle@@QAEXAAUOBJECTSTRUCT@@@Z PROC ; CArcaBattle::BootyItemGetCnt, COMDAT
; _this$ = ecx

; 2557 : {

  00000	55		 push	 ebp
  00001	8b ec		 mov	 ebp, esp
  00003	83 ec 0c	 sub	 esp, 12			; 0000000cH
  00006	56		 push	 esi

; 2558 : 	if( obj.Type != OBJ_USER )

  00007	8b 75 08	 mov	 esi, DWORD PTR _obj$[ebp]
  0000a	80 7e 50 01	 cmp	 BYTE PTR [esi+80], 1
  0000e	75 43		 jne	 SHORT $LN1@BootyItemG

; 2559 : 	{
; 2560 : 		return;
; 2561 : 	}
; 2562 : 	// ----
; 2563 : 	char szName[11] = { 0 };
; 2564 : 	memcpy(szName, obj.Name, 11);

  00010	66 8b 46 65	 mov	 ax, WORD PTR [esi+101]
  00014	f3 0f 7e 46 5d	 movq	 xmm0, QWORD PTR [esi+93]
  00019	57		 push	 edi
  0001a	8d 7e 5d	 lea	 edi, DWORD PTR [esi+93]
  0001d	66 89 45 fc	 mov	 WORD PTR _szName$[ebp+8], ax
  00021	8a 47 0a	 mov	 al, BYTE PTR [edi+10]
  00024	88 45 fe	 mov	 BYTE PTR _szName$[ebp+10], al

; 2565 : 	_tagArcaBattleUserInfo * pUserInfo = this->GetUserInfo(szName);

  00027	8d 45 f4	 lea	 eax, DWORD PTR _szName$[ebp]
  0002a	50		 push	 eax
  0002b	66 0f d6 45 f4	 movq	 QWORD PTR _szName$[ebp], xmm0
  00030	e8 00 00 00 00	 call	 ?GetUserInfo@CArcaBattle@@QAEPAU_tagArcaBattleUserInfo@@PAD@Z ; CArcaBattle::GetUserInfo

; 2566 : 	// ----
; 2567 : 	if( pUserInfo == NULL )

  00035	85 c0		 test	 eax, eax
  00037	74 19		 je	 SHORT $LN5@BootyItemG

; 2568 : 	{
; 2569 : 		return;
; 2570 : 	}
; 2571 : 	// ----
; 2572 : 	pUserInfo->m_stAcquiredPoints.dwBootyCnt++;
; 2573 : 	LogAddTD("[ArcaBattle] BootyItemGetCnt [%s][%s] Total BootyCnt[%d]",

  00039	ff 40 0c	 inc	 DWORD PTR [eax+12]
  0003c	ff 70 0c	 push	 DWORD PTR [eax+12]
  0003f	8d 46 52	 lea	 eax, DWORD PTR [esi+82]
  00042	57		 push	 edi
  00043	50		 push	 eax
  00044	68 00 00 00 00	 push	 OFFSET ??_C@_0DJ@LIAJIPGJ@?$FLArcaBattle?$FN?5BootyItemGetCnt?5?$FL?$CFs@
  00049	ff 15 00 00 00
	00		 call	 DWORD PTR ?LogAddTD@@3P6AXPADZZA ; LogAddTD
  0004f	83 c4 10	 add	 esp, 16			; 00000010H
$LN5@BootyItemG:
  00052	5f		 pop	 edi
$LN1@BootyItemG:
  00053	5e		 pop	 esi

; 2574 : 		obj.AccountID, obj.Name, pUserInfo->m_stAcquiredPoints.dwBootyCnt);
; 2575 : }

  00054	8b e5		 mov	 esp, ebp
  00056	5d		 pop	 ebp
  00057	c2 04 00	 ret	 4
?BootyItemGetCnt@CArcaBattle@@QAEXAAUOBJECTSTRUCT@@@Z ENDP ; CArcaBattle::BootyItemGetCnt
_TEXT	ENDS
; Function compile flags: /Ogtp
; File c:\users\michel\desktop\source\gameserver\source\arcabattle.cpp
;	COMDAT ?AddKillPoint@CArcaBattle@@QAEXAAUOBJECTSTRUCT@@0@Z
_TEXT	SEGMENT
_szTarName$1 = -20					; size = 11
_szName$ = -20						; size = 11
_pUserInfo$1$ = -8					; size = 4
tv507 = -4						; size = 4
_this$1$ = -4						; size = 4
tv472 = 8						; size = 4
tv470 = 8						; size = 4
tv468 = 8						; size = 4
tv466 = 8						; size = 4
tv464 = 8						; size = 4
_i$1$ = 8						; size = 4
_obj$ = 8						; size = 4
_Tarobj$ = 12						; size = 4
?AddKillPoint@CArcaBattle@@QAEXAAUOBJECTSTRUCT@@0@Z PROC ; CArcaBattle::AddKillPoint, COMDAT
; _this$ = ecx

; 2461 : {

  00000	55		 push	 ebp
  00001	8b ec		 mov	 ebp, esp
  00003	83 ec 14	 sub	 esp, 20			; 00000014H
  00006	56		 push	 esi
  00007	57		 push	 edi

; 2462 : 	if( obj.Type != OBJ_USER )

  00008	8b 7d 08	 mov	 edi, DWORD PTR _obj$[ebp]
  0000b	8b f1		 mov	 esi, ecx
  0000d	89 75 fc	 mov	 DWORD PTR _this$1$[ebp], esi
  00010	80 7f 50 01	 cmp	 BYTE PTR [edi+80], 1
  00014	0f 85 7c 02 00
	00		 jne	 $LN22@AddKillPoi

; 2463 : 	{
; 2464 : 		return;
; 2465 : 	}
; 2466 : 	// ----
; 2467 : 	char szName[11] = { 0 };
; 2468 : 	memcpy(szName, obj.Name, 11);

  0001a	66 8b 47 65	 mov	 ax, WORD PTR [edi+101]
  0001e	f3 0f 7e 47 5d	 movq	 xmm0, QWORD PTR [edi+93]
  00023	53		 push	 ebx
  00024	8d 5f 5d	 lea	 ebx, DWORD PTR [edi+93]
  00027	66 89 45 f4	 mov	 WORD PTR _szName$[ebp+8], ax
  0002b	8a 43 0a	 mov	 al, BYTE PTR [ebx+10]
  0002e	88 45 f6	 mov	 BYTE PTR _szName$[ebp+10], al

; 2469 : 	_tagArcaBattleUserInfo * pUserInfo = this->GetUserInfo(szName);

  00031	8d 45 ec	 lea	 eax, DWORD PTR _szName$[ebp]
  00034	50		 push	 eax
  00035	66 0f d6 45 ec	 movq	 QWORD PTR _szName$[ebp], xmm0
  0003a	e8 00 00 00 00	 call	 ?GetUserInfo@CArcaBattle@@QAEPAU_tagArcaBattleUserInfo@@PAD@Z ; CArcaBattle::GetUserInfo
  0003f	8b d0		 mov	 edx, eax
  00041	89 55 f8	 mov	 DWORD PTR _pUserInfo$1$[ebp], edx

; 2470 : 	// ----
; 2471 : 	if( pUserInfo == NULL )

  00044	85 d2		 test	 edx, edx
  00046	0f 84 49 02 00
	00		 je	 $LN33@AddKillPoi

; 2472 : 	{
; 2473 : 		return;
; 2474 : 	}
; 2475 : 	// ----
; 2476 : 	if( Tarobj.Type == OBJ_MONSTER )

  0004c	8b 45 0c	 mov	 eax, DWORD PTR _Tarobj$[ebp]
  0004f	8a 48 50	 mov	 cl, BYTE PTR [eax+80]
  00052	80 f9 02	 cmp	 cl, 2
  00055	0f 85 8c 01 00
	00		 jne	 $LN10@AddKillPoi

; 2477 :     {
; 2478 : 		if(		Tarobj.Class == 598
; 2479 : 			||	Tarobj.Class == 599
; 2480 : 			||	Tarobj.Class == 600
; 2481 : 			||	Tarobj.Class == 601
; 2482 : 			||	Tarobj.Class == 602 )

  0005b	0f b7 88 90 00
	00 00		 movzx	 ecx, WORD PTR [eax+144]
  00062	c7 45 08 56 02
	00 00		 mov	 DWORD PTR tv464[ebp], 598 ; 00000256H
  00069	66 3b 4d 08	 cmp	 cx, WORD PTR tv464[ebp]
  0006d	0f 84 4e 01 00
	00		 je	 $LN14@AddKillPoi
  00073	c7 45 08 57 02
	00 00		 mov	 DWORD PTR tv466[ebp], 599 ; 00000257H
  0007a	66 3b 4d 08	 cmp	 cx, WORD PTR tv466[ebp]
  0007e	0f 84 3d 01 00
	00		 je	 $LN14@AddKillPoi
  00084	c7 45 08 58 02
	00 00		 mov	 DWORD PTR tv468[ebp], 600 ; 00000258H
  0008b	66 3b 4d 08	 cmp	 cx, WORD PTR tv468[ebp]
  0008f	0f 84 2c 01 00
	00		 je	 $LN14@AddKillPoi
  00095	c7 45 08 59 02
	00 00		 mov	 DWORD PTR tv470[ebp], 601 ; 00000259H
  0009c	66 3b 4d 08	 cmp	 cx, WORD PTR tv470[ebp]
  000a0	0f 84 1b 01 00
	00		 je	 $LN14@AddKillPoi
  000a6	c7 45 08 5a 02
	00 00		 mov	 DWORD PTR tv472[ebp], 602 ; 0000025aH
  000ad	66 3b 4d 08	 cmp	 cx, WORD PTR tv472[ebp]
  000b1	0f 84 0a 01 00
	00		 je	 $LN14@AddKillPoi

; 2486 : 				obj.AccountID, obj.Name, pUserInfo->m_stAcquiredPoints.dwKillPoints);
; 2487 : 		}
; 2488 : 		else if(Tarobj.Class == 592
; 2489 : 			||	Tarobj.Class == 593
; 2490 : 			||	Tarobj.Class == 594
; 2491 : 			||	Tarobj.Class == 595
; 2492 : 			||	Tarobj.Class == 596 )

  000b7	ba 50 02 00 00	 mov	 edx, 592		; 00000250H
  000bc	66 3b ca	 cmp	 cx, dx
  000bf	74 2c		 je	 SHORT $LN16@AddKillPoi
  000c1	ba 51 02 00 00	 mov	 edx, 593		; 00000251H
  000c6	66 3b ca	 cmp	 cx, dx
  000c9	74 22		 je	 SHORT $LN16@AddKillPoi
  000cb	ba 52 02 00 00	 mov	 edx, 594		; 00000252H
  000d0	66 3b ca	 cmp	 cx, dx
  000d3	74 18		 je	 SHORT $LN16@AddKillPoi
  000d5	ba 53 02 00 00	 mov	 edx, 595		; 00000253H
  000da	66 3b ca	 cmp	 cx, dx
  000dd	74 0e		 je	 SHORT $LN16@AddKillPoi
  000df	ba 54 02 00 00	 mov	 edx, 596		; 00000254H
  000e4	66 3b ca	 cmp	 cx, dx
  000e7	0f 85 a8 01 00
	00		 jne	 $LN33@AddKillPoi
$LN16@AddKillPoi:

; 2493 : 		{
; 2494 : 			for( int i = 0; i < AB_MAX_MONGROUP; i++ )

  000ed	8d 8e 04 e3 00
	00		 lea	 ecx, DWORD PTR [esi+58116]
  000f3	c7 45 08 00 00
	00 00		 mov	 DWORD PTR _i$1$[ebp], 0
  000fa	89 4d fc	 mov	 DWORD PTR tv507[ebp], ecx
  000fd	0f 1f 00	 npad	 3
$LL4@AddKillPoi:

; 2495 : 			{
; 2496 : 				int nMapNumber = this->m_stMonsterGroupInfo[i].m_nMapNumber;
; 2497 : 				// ----
; 2498 : 				if( nMapNumber < 0 )

  00100	83 79 ec 00	 cmp	 DWORD PTR [ecx-20], 0
  00104	0f 8c 8b 00 00
	00		 jl	 $LN26@AddKillPoi

; 2499 : 				{
; 2500 : 					break;
; 2501 : 				}
; 2502 : 				// ----
; 2503 : 				for( int j = 0; j < AB_MAX_MONGROUP; j++ )

  0010a	8b f1		 mov	 esi, ecx
  0010c	bb 32 00 00 00	 mov	 ebx, 50			; 00000032H
$LL7@AddKillPoi:

; 2504 : 				{
; 2505 : 					if( Tarobj.m_Index == this->m_stMonsterGroupInfo[i].m_stMonsterAccountNumInfo[j].m_nIndex )

  00111	8b 00		 mov	 eax, DWORD PTR [eax]
  00113	3b 46 fc	 cmp	 eax, DWORD PTR [esi-4]
  00116	75 56		 jne	 SHORT $LN5@AddKillPoi

; 2506 : 					{
; 2507 : 						if( this->m_stMonsterGroupInfo[i].m_stMonsterAccountNumInfo[j].bItemDrop == false )

  00118	80 3e 00	 cmp	 BYTE PTR [esi], 0
  0011b	75 51		 jne	 SHORT $LN5@AddKillPoi

; 2508 : 						{
; 2509 : 							this->m_stMonsterGroupInfo[i].m_stMonsterAccountNumInfo[j].bItemDrop = true;
; 2510 : 							//ItemSerialCreateSend(obj.m_Index, obj.MapNumber, (BYTE)obj.X, (BYTE)obj.Y,
; 2511 : 							//	AB_REW_KILL_TROPHY, 0, 1, 0, 0, 0, -1, 0, 0, 0, 0, 0, 0);
; 2512 : 							ItemSerialCreateSend(obj.m_Index, obj.MapNumber, (BYTE)obj.X, (BYTE)obj.Y,

  0011d	6a 00		 push	 0
  0011f	6a 00		 push	 0
  00121	6a 00		 push	 0
  00123	6a 00		 push	 0
  00125	6a ff		 push	 -1
  00127	6a 00		 push	 0
  00129	6a 00		 push	 0
  0012b	6a 00		 push	 0
  0012d	6a 01		 push	 1
  0012f	6a 00		 push	 0
  00131	c6 06 01	 mov	 BYTE PTR [esi], 1
  00134	0f b6 87 21 01
	00 00		 movzx	 eax, BYTE PTR [edi+289]
  0013b	68 93 1a 00 00	 push	 6803			; 00001a93H
  00140	50		 push	 eax
  00141	0f b6 87 20 01
	00 00		 movzx	 eax, BYTE PTR [edi+288]
  00148	50		 push	 eax
  00149	0f b6 87 23 01
	00 00		 movzx	 eax, BYTE PTR [edi+291]
  00150	50		 push	 eax
  00151	ff 37		 push	 DWORD PTR [edi]
  00153	e8 00 00 00 00	 call	 ?ItemSerialCreateSend@@YAXHEEEHEEEEEHEEEPAE@Z ; ItemSerialCreateSend

; 2513 : 								AB_REW_KILL_TROPHY, 0, 1, 0, 0, 0, -1, 0, 0);
; 2514 : 							LogAddTD("[ArcaBattle] Monster Dropped ArcaBattle Item Booty To [%s][%s]", 

  00158	8d 47 5d	 lea	 eax, DWORD PTR [edi+93]
  0015b	50		 push	 eax
  0015c	8d 47 52	 lea	 eax, DWORD PTR [edi+82]
  0015f	50		 push	 eax
  00160	68 00 00 00 00	 push	 OFFSET ??_C@_0DP@FDLOMLIN@?$FLArcaBattle?$FN?5Monster?5Dropped?5Arc@
  00165	ff 15 00 00 00
	00		 call	 DWORD PTR ?LogAddTD@@3P6AXPADZZA ; LogAddTD
  0016b	83 c4 48	 add	 esp, 72			; 00000048H
$LN5@AddKillPoi:

; 2499 : 				{
; 2500 : 					break;
; 2501 : 				}
; 2502 : 				// ----
; 2503 : 				for( int j = 0; j < AB_MAX_MONGROUP; j++ )

  0016e	8b 45 0c	 mov	 eax, DWORD PTR _Tarobj$[ebp]
  00171	83 c6 08	 add	 esi, 8
  00174	83 eb 01	 sub	 ebx, 1
  00177	75 98		 jne	 SHORT $LL7@AddKillPoi

; 2493 : 		{
; 2494 : 			for( int i = 0; i < AB_MAX_MONGROUP; i++ )

  00179	8b 55 08	 mov	 edx, DWORD PTR _i$1$[ebp]
  0017c	8b 4d fc	 mov	 ecx, DWORD PTR tv507[ebp]
  0017f	42		 inc	 edx
  00180	81 c1 0c 08 00
	00		 add	 ecx, 2060		; 0000080cH
  00186	89 55 08	 mov	 DWORD PTR _i$1$[ebp], edx
  00189	89 4d fc	 mov	 DWORD PTR tv507[ebp], ecx
  0018c	83 fa 32	 cmp	 edx, 50			; 00000032H
  0018f	0f 8c 6b ff ff
	ff		 jl	 $LL4@AddKillPoi
$LN26@AddKillPoi:

; 2515 : 								obj.AccountID, obj.Name);
; 2516 : 						}
; 2517 : 					}
; 2518 : 				}
; 2519 : 			}
; 2520 : 			// ----
; 2521 : 			pUserInfo->m_stAcquiredPoints.dwKillPoints += AB_REW_KILL_MONSTER;

  00195	8b 4d f8	 mov	 ecx, DWORD PTR _pUserInfo$1$[ebp]
  00198	8b 41 14	 mov	 eax, DWORD PTR [ecx+20]
  0019b	83 c0 05	 add	 eax, 5

; 2522 : 			LogAddTD("[ArcaBattle] Monster Kill Add KillPoints [%s][%s] Point[%d]", 

  0019e	50		 push	 eax
  0019f	89 41 14	 mov	 DWORD PTR [ecx+20], eax
  001a2	8d 47 5d	 lea	 eax, DWORD PTR [edi+93]
  001a5	50		 push	 eax
  001a6	8d 47 52	 lea	 eax, DWORD PTR [edi+82]
  001a9	50		 push	 eax
  001aa	68 00 00 00 00	 push	 OFFSET ??_C@_0DM@IAKAPCCL@?$FLArcaBattle?$FN?5Monster?5Kill?5Add?5Ki@
  001af	ff 15 00 00 00
	00		 call	 DWORD PTR ?LogAddTD@@3P6AXPADZZA ; LogAddTD
  001b5	83 c4 10	 add	 esp, 16			; 00000010H
  001b8	5b		 pop	 ebx
  001b9	5f		 pop	 edi
  001ba	5e		 pop	 esi

; 2549 :                 obj.AccountID, obj.Name, Tarobj.AccountID, Tarobj.Name);
; 2550 : 		}
; 2551 : 	}
; 2552 : }

  001bb	8b e5		 mov	 esp, ebp
  001bd	5d		 pop	 ebp
  001be	c2 08 00	 ret	 8
$LN14@AddKillPoi:

; 2483 : 		{
; 2484 : 			pUserInfo->m_stAcquiredPoints.dwKillPoints += AB_REW_KILL_OBELISK;

  001c1	8b 42 14	 mov	 eax, DWORD PTR [edx+20]
  001c4	83 c0 32	 add	 eax, 50			; 00000032H

; 2485 : 			LogAddTD("[ArcaBattle] Obelisk Occupy Add KillPoints [%s][%s] Point[%d]",

  001c7	50		 push	 eax
  001c8	89 42 14	 mov	 DWORD PTR [edx+20], eax
  001cb	8d 47 52	 lea	 eax, DWORD PTR [edi+82]
  001ce	53		 push	 ebx
  001cf	50		 push	 eax
  001d0	68 00 00 00 00	 push	 OFFSET ??_C@_0DO@POELAJEM@?$FLArcaBattle?$FN?5Obelisk?5Occupy?5Add?5@
  001d5	ff 15 00 00 00
	00		 call	 DWORD PTR ?LogAddTD@@3P6AXPADZZA ; LogAddTD
  001db	83 c4 10	 add	 esp, 16			; 00000010H
  001de	5b		 pop	 ebx
  001df	5f		 pop	 edi
  001e0	5e		 pop	 esi

; 2549 :                 obj.AccountID, obj.Name, Tarobj.AccountID, Tarobj.Name);
; 2550 : 		}
; 2551 : 	}
; 2552 : }

  001e1	8b e5		 mov	 esp, ebp
  001e3	5d		 pop	 ebp
  001e4	c2 08 00	 ret	 8
$LN10@AddKillPoi:

; 2523 : 				obj.AccountID, obj.Name, pUserInfo->m_stAcquiredPoints.dwKillPoints);
; 2524 : 		}
; 2525 : 	}
; 2526 : 	else if( Tarobj.Type == OBJ_USER )

  001e7	80 f9 01	 cmp	 cl, 1
  001ea	0f 85 a5 00 00
	00		 jne	 $LN33@AddKillPoi

; 2527 : 	{
; 2528 : 		pUserInfo->m_stAcquiredPoints.dwKillPoints += AB_REW_KILL_USER;

  001f0	8b 42 14	 mov	 eax, DWORD PTR [edx+20]

; 2529 : 		LogAddTD("[ArcaBattle] User Kill Add KillPoints [%s][%s] Point[%d]",

  001f3	8d 4f 52	 lea	 ecx, DWORD PTR [edi+82]
  001f6	83 c0 0a	 add	 eax, 10			; 0000000aH
  001f9	50		 push	 eax
  001fa	53		 push	 ebx
  001fb	51		 push	 ecx
  001fc	68 00 00 00 00	 push	 OFFSET ??_C@_0DJ@CDMLEHAK@?$FLArcaBattle?$FN?5User?5Kill?5Add?5KillP@
  00201	89 42 14	 mov	 DWORD PTR [edx+20], eax
  00204	ff 15 00 00 00
	00		 call	 DWORD PTR ?LogAddTD@@3P6AXPADZZA ; LogAddTD

; 2530 : 			obj.AccountID, obj.Name, pUserInfo->m_stAcquiredPoints.dwKillPoints);
; 2531 : 		// ----
; 2532 : 		char szTarName[11] = { 0 };
; 2533 : 		memcpy(szTarName, Tarobj.Name, 11);

  0020a	8b 75 0c	 mov	 esi, DWORD PTR _Tarobj$[ebp]
  0020d	83 c4 10	 add	 esp, 16			; 00000010H

; 2534 : 		_tagArcaBattleUserInfo * pTarUserInfo = this->GetUserInfo(szTarName);

  00210	8b 4d fc	 mov	 ecx, DWORD PTR _this$1$[ebp]
  00213	66 8b 46 65	 mov	 ax, WORD PTR [esi+101]
  00217	f3 0f 7e 46 5d	 movq	 xmm0, QWORD PTR [esi+93]
  0021c	66 89 45 f4	 mov	 WORD PTR _szTarName$1[ebp+8], ax
  00220	8a 46 67	 mov	 al, BYTE PTR [esi+103]
  00223	88 45 f6	 mov	 BYTE PTR _szTarName$1[ebp+10], al
  00226	8d 45 ec	 lea	 eax, DWORD PTR _szTarName$1[ebp]
  00229	50		 push	 eax
  0022a	66 0f d6 45 ec	 movq	 QWORD PTR _szTarName$1[ebp], xmm0
  0022f	e8 00 00 00 00	 call	 ?GetUserInfo@CArcaBattle@@QAEPAU_tagArcaBattleUserInfo@@PAD@Z ; CArcaBattle::GetUserInfo

; 2535 : 		// ----
; 2536 : 		if( pTarUserInfo == NULL )

  00234	85 c0		 test	 eax, eax
  00236	74 5d		 je	 SHORT $LN33@AddKillPoi

; 2537 : 		{
; 2538 : 			return;
; 2539 : 		}
; 2540 : 		// ----
; 2541 : 		if( pTarUserInfo->bBootyDrop == false )

  00238	80 78 0b 00	 cmp	 BYTE PTR [eax+11], 0
  0023c	75 57		 jne	 SHORT $LN33@AddKillPoi

; 2542 : 		{
; 2543 : 			pTarUserInfo->bBootyDrop = true;
; 2544 : 			//ItemSerialCreateSend(obj.m_Index, obj.MapNumber, (BYTE)obj.X, (BYTE)obj.Y,
; 2545 : 			//	AB_REW_KILL_TROPHY, 0, 1, 0, 0, 0, -1, 0, 0, 0, 0, 0, 0);
; 2546 : 			ItemSerialCreateSend(obj.m_Index, obj.MapNumber, (BYTE)obj.X, (BYTE)obj.Y,

  0023e	6a 00		 push	 0
  00240	6a 00		 push	 0
  00242	6a 00		 push	 0
  00244	6a 00		 push	 0
  00246	6a ff		 push	 -1
  00248	6a 00		 push	 0
  0024a	6a 00		 push	 0
  0024c	6a 00		 push	 0
  0024e	6a 01		 push	 1
  00250	6a 00		 push	 0
  00252	c6 40 0b 01	 mov	 BYTE PTR [eax+11], 1
  00256	0f b6 87 21 01
	00 00		 movzx	 eax, BYTE PTR [edi+289]
  0025d	68 93 1a 00 00	 push	 6803			; 00001a93H
  00262	50		 push	 eax
  00263	0f b6 87 20 01
	00 00		 movzx	 eax, BYTE PTR [edi+288]
  0026a	50		 push	 eax
  0026b	0f b6 87 23 01
	00 00		 movzx	 eax, BYTE PTR [edi+291]
  00272	50		 push	 eax
  00273	ff 37		 push	 DWORD PTR [edi]
  00275	e8 00 00 00 00	 call	 ?ItemSerialCreateSend@@YAXHEEEHEEEEEHEEEPAE@Z ; ItemSerialCreateSend

; 2547 : 				AB_REW_KILL_TROPHY, 0, 1, 0, 0, 0, -1, 0, 0);
; 2548 : 			 LogAddTD("[ArcaBattle] [%s][%s] User Dropped ArcaBattle Item Booty [%s][%s]",

  0027a	8d 46 5d	 lea	 eax, DWORD PTR [esi+93]
  0027d	50		 push	 eax
  0027e	8d 46 52	 lea	 eax, DWORD PTR [esi+82]
  00281	50		 push	 eax
  00282	53		 push	 ebx
  00283	8d 47 52	 lea	 eax, DWORD PTR [edi+82]
  00286	50		 push	 eax
  00287	68 00 00 00 00	 push	 OFFSET ??_C@_0EC@ECKMBKGF@?$FLArcaBattle?$FN?5?$FL?$CFs?$FN?$FL?$CFs?$FN?5User?5Dropp@
  0028c	ff 15 00 00 00
	00		 call	 DWORD PTR ?LogAddTD@@3P6AXPADZZA ; LogAddTD
  00292	83 c4 50	 add	 esp, 80			; 00000050H
$LN33@AddKillPoi:
  00295	5b		 pop	 ebx
$LN22@AddKillPoi:
  00296	5f		 pop	 edi
  00297	5e		 pop	 esi

; 2549 :                 obj.AccountID, obj.Name, Tarobj.AccountID, Tarobj.Name);
; 2550 : 		}
; 2551 : 	}
; 2552 : }

  00298	8b e5		 mov	 esp, ebp
  0029a	5d		 pop	 ebp
  0029b	c2 08 00	 ret	 8
?AddKillPoint@CArcaBattle@@QAEXAAUOBJECTSTRUCT@@0@Z ENDP ; CArcaBattle::AddKillPoint
_TEXT	ENDS
; Function compile flags: /Ogtp
; File c:\users\michel\desktop\source\gameserver\source\arcabattle.cpp
;	COMDAT ?AddContributePoint@CArcaBattle@@QAEXAAUOBJECTSTRUCT@@0@Z
_TEXT	SEGMENT
_szName$ = -12						; size = 11
_obj$ = 8						; size = 4
_Tarobj$ = 12						; size = 4
?AddContributePoint@CArcaBattle@@QAEXAAUOBJECTSTRUCT@@0@Z PROC ; CArcaBattle::AddContributePoint, COMDAT
; _this$ = ecx

; 2357 : {

  00000	55		 push	 ebp
  00001	8b ec		 mov	 ebp, esp

; 2358 : 	_tagArcaBattleUserInfo * pUserInfo;
; 2359 : 	int iSubValue;
; 2360 : 	int iAddValue;
; 2361 : 	// ----
; 2362 : 	iAddValue = 0;
; 2363 : 	iSubValue = 0;
; 2364 : 	// ----
; 2365 : 	if( obj.Type != OBJ_USER )

  00003	8b 45 08	 mov	 eax, DWORD PTR _obj$[ebp]
  00006	83 ec 0c	 sub	 esp, 12			; 0000000cH
  00009	56		 push	 esi
  0000a	33 f6		 xor	 esi, esi
  0000c	80 78 50 01	 cmp	 BYTE PTR [eax+80], 1
  00010	0f 85 67 01 00
	00		 jne	 $LN5@AddContrib

; 2366 : 	{
; 2367 : 		return;
; 2368 : 	}
; 2369 : 	// ----
; 2370 : 	char szName[11] = { 0 };
; 2371 : 	memcpy(szName, obj.Name, 11);

  00016	f3 0f 7e 40 5d	 movq	 xmm0, QWORD PTR [eax+93]
  0001b	8d 50 5d	 lea	 edx, DWORD PTR [eax+93]
  0001e	66 8b 42 08	 mov	 ax, WORD PTR [edx+8]
  00022	66 89 45 fc	 mov	 WORD PTR _szName$[ebp+8], ax
  00026	8a 42 0a	 mov	 al, BYTE PTR [edx+10]
  00029	88 45 fe	 mov	 BYTE PTR _szName$[ebp+10], al

; 2372 : 	pUserInfo = this->GetUserInfo(szName);

  0002c	8d 45 f4	 lea	 eax, DWORD PTR _szName$[ebp]
  0002f	57		 push	 edi
  00030	50		 push	 eax
  00031	66 0f d6 45 f4	 movq	 QWORD PTR _szName$[ebp], xmm0
  00036	e8 00 00 00 00	 call	 ?GetUserInfo@CArcaBattle@@QAEPAU_tagArcaBattleUserInfo@@PAD@Z ; CArcaBattle::GetUserInfo
  0003b	8b f8		 mov	 edi, eax

; 2373 : 	// ----
; 2374 : 	if( pUserInfo == NULL )

  0003d	85 ff		 test	 edi, edi
  0003f	0f 84 37 01 00
	00		 je	 $LN28@AddContrib

; 2375 : 	{
; 2376 : 		return;
; 2377 : 	}
; 2378 : 	// ----
; 2379 : 	if( Tarobj.Type == OBJ_MONSTER )

  00045	53		 push	 ebx
  00046	8b 5d 0c	 mov	 ebx, DWORD PTR _Tarobj$[ebp]
  00049	80 7b 50 02	 cmp	 BYTE PTR [ebx+80], 2
  0004d	75 5f		 jne	 SHORT $LN4@AddContrib

; 2380 : 	{
; 2381 : 		if(		Tarobj.Class == 592
; 2382 : 			||	Tarobj.Class == 593
; 2383 : 			||	Tarobj.Class == 594
; 2384 : 			||	Tarobj.Class == 595
; 2385 : 			||	Tarobj.Class == 596 )

  0004f	0f b7 8b 90 00
	00 00		 movzx	 ecx, WORD PTR [ebx+144]
  00056	b8 50 02 00 00	 mov	 eax, 592		; 00000250H
  0005b	66 3b c8	 cmp	 cx, ax
  0005e	74 2c		 je	 SHORT $LN7@AddContrib
  00060	b8 51 02 00 00	 mov	 eax, 593		; 00000251H
  00065	66 3b c8	 cmp	 cx, ax
  00068	74 22		 je	 SHORT $LN7@AddContrib
  0006a	b8 52 02 00 00	 mov	 eax, 594		; 00000252H
  0006f	66 3b c8	 cmp	 cx, ax
  00072	74 18		 je	 SHORT $LN7@AddContrib
  00074	b8 53 02 00 00	 mov	 eax, 595		; 00000253H
  00079	66 3b c8	 cmp	 cx, ax
  0007c	74 0e		 je	 SHORT $LN7@AddContrib
  0007e	b8 54 02 00 00	 mov	 eax, 596		; 00000254H
  00083	66 3b c8	 cmp	 cx, ax
  00086	0f 85 ef 00 00
	00		 jne	 $LN29@AddContrib
$LN7@AddContrib:

; 2386 : 		{
; 2387 : 			pUserInfo->m_stAcquiredPoints.dwContributePoints += AB_REW_GENS_BOSS;

  0008c	8b 47 10	 mov	 eax, DWORD PTR [edi+16]
  0008f	83 c0 1e	 add	 eax, 30			; 0000001eH

; 2388 : 			LogAddTD("[ArcaBattle] Boss Monster Kill [%s] ContributePoints %d",

  00092	50		 push	 eax
  00093	57		 push	 edi
  00094	68 00 00 00 00	 push	 OFFSET ??_C@_0DI@FCIBHGCJ@?$FLArcaBattle?$FN?5Boss?5Monster?5Kill?5?$FL@
  00099	89 47 10	 mov	 DWORD PTR [edi+16], eax
  0009c	ff 15 00 00 00
	00		 call	 DWORD PTR ?LogAddTD@@3P6AXPADZZA ; LogAddTD
  000a2	83 c4 0c	 add	 esp, 12			; 0000000cH
  000a5	5b		 pop	 ebx
  000a6	5f		 pop	 edi
  000a7	5e		 pop	 esi

; 2453 : 			obj.AccountID, obj.Name, pUserInfo->m_stAcquiredPoints.dwContributePoints, obj.Level,
; 2454 : 			Tarobj.Level, Tarobj.AccountID, Tarobj.Name);
; 2455 : 	}
; 2456 : }

  000a8	8b e5		 mov	 esp, ebp
  000aa	5d		 pop	 ebp
  000ab	c2 08 00	 ret	 8
$LN4@AddContrib:

; 2389 : 				pUserInfo->szCharName, pUserInfo->m_stAcquiredPoints.dwContributePoints);
; 2390 : 			//return;
; 2391 : 		}
; 2392 : 	}
; 2393 : 	else
; 2394 : 	{
; 2395 : 		if( obj.Level == Tarobj.Level )

  000ae	8b 45 08	 mov	 eax, DWORD PTR _obj$[ebp]
  000b1	0f b7 90 96 00
	00 00		 movzx	 edx, WORD PTR [eax+150]
  000b8	0f b7 83 96 00
	00 00		 movzx	 eax, WORD PTR [ebx+150]
  000bf	66 3b d0	 cmp	 dx, ax
  000c2	74 35		 je	 SHORT $LN31@AddContrib

; 2396 :         {
; 2397 : 			iAddValue = AB_REW_GENS_USER1;
; 2398 : 			iSubValue = 3;
; 2399 : 		}
; 2400 : 		else if( obj.Level < Tarobj.Level )

  000c4	7d 3a		 jge	 SHORT $LN33@AddContrib

; 2401 :         {
; 2402 : 			int iCalcLv = Tarobj.Level - obj.Level;

  000c6	0f bf c8	 movsx	 ecx, ax
  000c9	0f bf c2	 movsx	 eax, dx
  000cc	2b c8		 sub	 ecx, eax

; 2403 : 			// ----
; 2404 : 			if( iCalcLv >= 51 )

  000ce	83 f9 33	 cmp	 ecx, 51			; 00000033H
  000d1	7c 07		 jl	 SHORT $LN12@AddContrib

; 2405 :             {
; 2406 : 				iAddValue = AB_REW_GENS_USER2;

  000d3	be 07 00 00 00	 mov	 esi, 7

; 2407 : 				iSubValue = 3;

  000d8	eb 66		 jmp	 SHORT $LN26@AddContrib
$LN12@AddContrib:

; 2408 : 			}
; 2409 : 			else if( iCalcLv >= 31 && iCalcLv <= 50 )

  000da	8d 41 e1	 lea	 eax, DWORD PTR [ecx-31]
  000dd	83 f8 13	 cmp	 eax, 19			; 00000013H
  000e0	76 08		 jbe	 SHORT $LN32@AddContrib

; 2410 : 			{
; 2411 : 				iAddValue = AB_REW_GENS_USER3;
; 2412 : 				iSubValue = 3;
; 2413 : 			}
; 2414 : 			else if( iCalcLv >= 11 && iCalcLv <= 30 )

  000e2	8d 41 f5	 lea	 eax, DWORD PTR [ecx-11]
  000e5	83 f8 13	 cmp	 eax, 19			; 00000013H
  000e8	77 07		 ja	 SHORT $LN16@AddContrib
$LN32@AddContrib:

; 2415 : 			{
; 2416 : 				iAddValue = AB_REW_GENS_USER4;

  000ea	be 06 00 00 00	 mov	 esi, 6

; 2417 : 				iSubValue = 3;

  000ef	eb 4f		 jmp	 SHORT $LN26@AddContrib
$LN16@AddContrib:

; 2418 : 			}
; 2419 : 			else if( iCalcLv > 0 && iCalcLv <= 10 )

  000f1	8d 41 ff	 lea	 eax, DWORD PTR [ecx-1]
  000f4	83 f8 09	 cmp	 eax, 9
  000f7	77 47		 ja	 SHORT $LN26@AddContrib
$LN31@AddContrib:

; 2420 : 			{
; 2421 : 				iAddValue = AB_REW_GENS_USER5;

  000f9	be 05 00 00 00	 mov	 esi, 5

; 2422 : 				iSubValue = 3;
; 2423 : 			}
; 2424 : 		}

  000fe	eb 40		 jmp	 SHORT $LN26@AddContrib
$LN33@AddContrib:

; 2425 : 		else if( obj.Level > Tarobj.Level )

  00100	7e 3e		 jle	 SHORT $LN26@AddContrib

; 2426 : 		{
; 2427 : 			int iCalcLv = obj.Level - Tarobj.Level;

  00102	98		 cwde
  00103	0f bf ca	 movsx	 ecx, dx
  00106	2b c8		 sub	 ecx, eax

; 2428 : 			// ----
; 2429 : 			if( iCalcLv >= 51 )

  00108	83 f9 33	 cmp	 ecx, 51			; 00000033H
  0010b	7c 07		 jl	 SHORT $LN20@AddContrib

; 2430 :             {
; 2431 : 				iAddValue = AB_REW_GENS_USER6;

  0010d	be 01 00 00 00	 mov	 esi, 1

; 2432 : 				iSubValue = 1;

  00112	eb 2c		 jmp	 SHORT $LN26@AddContrib
$LN20@AddContrib:

; 2433 : 			}
; 2434 : 			else if( iCalcLv >= 31 && iCalcLv <= 50 )

  00114	8d 41 e1	 lea	 eax, DWORD PTR [ecx-31]
  00117	83 f8 13	 cmp	 eax, 19			; 00000013H
  0011a	77 07		 ja	 SHORT $LN22@AddContrib

; 2435 : 			{
; 2436 : 				iAddValue = AB_REW_GENS_USER7;

  0011c	be 02 00 00 00	 mov	 esi, 2

; 2437 : 				iSubValue = 2;

  00121	eb 1d		 jmp	 SHORT $LN26@AddContrib
$LN22@AddContrib:

; 2438 : 			}
; 2439 : 			else if( iCalcLv >= 11 && iCalcLv <= 30 )

  00123	8d 41 f5	 lea	 eax, DWORD PTR [ecx-11]
  00126	83 f8 13	 cmp	 eax, 19			; 00000013H
  00129	77 07		 ja	 SHORT $LN24@AddContrib

; 2440 : 			{
; 2441 : 				iAddValue = AB_REW_GENS_USER8;

  0012b	be 03 00 00 00	 mov	 esi, 3

; 2442 : 				iSubValue = 3;

  00130	eb 0e		 jmp	 SHORT $LN26@AddContrib
$LN24@AddContrib:

; 2443 : 			}
; 2444 : 			else if( iCalcLv > 0 && iCalcLv <= 10 )

  00132	8d 41 ff	 lea	 eax, DWORD PTR [ecx-1]
  00135	b9 05 00 00 00	 mov	 ecx, 5
  0013a	83 f8 09	 cmp	 eax, 9
  0013d	0f 46 f1	 cmovbe	 esi, ecx
$LN26@AddContrib:

; 2445 : 			{
; 2446 : 				iAddValue = AB_REW_GENS_USER9;
; 2447 : 				iSubValue = 3;
; 2448 : 			}
; 2449 : 		}
; 2450 : 		// ----
; 2451 : 		pUserInfo->m_stAcquiredPoints.dwContributePoints += 3 * iAddValue; //wtf... iSubValue unused
; 2452 : 		LogAddTD("[ArcaBattle] [%s][%s] User Kill ContributePoint[%d] - Result : Lv [%d] / Lv [%d][%s][%s]",

  00140	8b 55 08	 mov	 edx, DWORD PTR _obj$[ebp]
  00143	8d 43 5d	 lea	 eax, DWORD PTR [ebx+93]
  00146	50		 push	 eax
  00147	8d 0c 76	 lea	 ecx, DWORD PTR [esi+esi*2]
  0014a	03 4f 10	 add	 ecx, DWORD PTR [edi+16]
  0014d	8d 43 52	 lea	 eax, DWORD PTR [ebx+82]
  00150	50		 push	 eax
  00151	89 4f 10	 mov	 DWORD PTR [edi+16], ecx
  00154	0f bf 83 96 00
	00 00		 movsx	 eax, WORD PTR [ebx+150]
  0015b	50		 push	 eax
  0015c	0f bf 82 96 00
	00 00		 movsx	 eax, WORD PTR [edx+150]
  00163	50		 push	 eax
  00164	51		 push	 ecx
  00165	8d 42 5d	 lea	 eax, DWORD PTR [edx+93]
  00168	50		 push	 eax
  00169	8d 42 52	 lea	 eax, DWORD PTR [edx+82]
  0016c	50		 push	 eax
  0016d	68 00 00 00 00	 push	 OFFSET ??_C@_0FJ@EOPGMBHD@?$FLArcaBattle?$FN?5?$FL?$CFs?$FN?$FL?$CFs?$FN?5User?5Kill?5@
  00172	ff 15 00 00 00
	00		 call	 DWORD PTR ?LogAddTD@@3P6AXPADZZA ; LogAddTD
  00178	83 c4 20	 add	 esp, 32			; 00000020H
$LN29@AddContrib:
  0017b	5b		 pop	 ebx
$LN28@AddContrib:
  0017c	5f		 pop	 edi
$LN5@AddContrib:
  0017d	5e		 pop	 esi

; 2453 : 			obj.AccountID, obj.Name, pUserInfo->m_stAcquiredPoints.dwContributePoints, obj.Level,
; 2454 : 			Tarobj.Level, Tarobj.AccountID, Tarobj.Name);
; 2455 : 	}
; 2456 : }

  0017e	8b e5		 mov	 esp, ebp
  00180	5d		 pop	 ebp
  00181	c2 08 00	 ret	 8
?AddContributePoint@CArcaBattle@@QAEXAAUOBJECTSTRUCT@@0@Z ENDP ; CArcaBattle::AddContributePoint
_TEXT	ENDS
; Function compile flags: /Ogtp
; File c:\users\michel\desktop\source\gameserver\source\arcabattle.cpp
;	COMDAT ?RegenMonsterRun@CArcaBattle@@QAEXXZ
_TEXT	SEGMENT
_dwTick$1$ = -4						; size = 4
?RegenMonsterRun@CArcaBattle@@QAEXXZ PROC		; CArcaBattle::RegenMonsterRun, COMDAT
; _this$ = ecx

; 2165 : {

  00000	55		 push	 ebp
  00001	8b ec		 mov	 ebp, esp
  00003	51		 push	 ecx
  00004	53		 push	 ebx
  00005	56		 push	 esi
  00006	57		 push	 edi
  00007	8b d9		 mov	 ebx, ecx

; 2166 : 	DWORD dwTick = GetTickCount();

  00009	ff 15 00 00 00
	00		 call	 DWORD PTR __imp__GetTickCount@0
  0000f	89 45 fc	 mov	 DWORD PTR _dwTick$1$[ebp], eax
  00012	8d b3 fc e2 00
	00		 lea	 esi, DWORD PTR [ebx+58108]

; 2167 : 	// ----
; 2168 : 	for( int i = 0; i < AB_MAX_MONGROUP; i++ )

  00018	33 ff		 xor	 edi, edi
  0001a	66 0f 1f 44 00
	00		 npad	 6
$LL4@RegenMonst:

; 2169 : 	{
; 2170 : 		if( this->m_stMonsterGroupInfo[i].m_nGroupNumber > -1 )

  00020	83 7e f0 ff	 cmp	 DWORD PTR [esi-16], -1
  00024	7e 28		 jle	 SHORT $LN2@RegenMonst

; 2171 : 		{
; 2172 : 			if( dwTick >= this->m_stMonsterGroupInfo[i].m_dwNextRegenTime )

  00026	3b 06		 cmp	 eax, DWORD PTR [esi]
  00028	72 24		 jb	 SHORT $LN2@RegenMonst

; 2173 : 			{
; 2174 : 				this->DeleteMonster(i);

  0002a	57		 push	 edi
  0002b	8b cb		 mov	 ecx, ebx
  0002d	e8 00 00 00 00	 call	 ?DeleteMonster@CArcaBattle@@QAEXH@Z ; CArcaBattle::DeleteMonster

; 2175 : 				this->RegenMonster(i);

  00032	57		 push	 edi
  00033	8b cb		 mov	 ecx, ebx
  00035	e8 00 00 00 00	 call	 ?RegenMonster@CArcaBattle@@QAEXH@Z ; CArcaBattle::RegenMonster

; 2176 : 				this->m_stMonsterGroupInfo[i].m_dwNextRegenTime = GetTickCount() + (60 * 1000) * this->m_stMonsterGroupInfo[i].m_nRegenTimeMin; //need check

  0003a	ff 15 00 00 00
	00		 call	 DWORD PTR __imp__GetTickCount@0
  00040	69 4e fc 60 ea
	00 00		 imul	 ecx, DWORD PTR [esi-4], 60000
  00047	03 c1		 add	 eax, ecx
  00049	89 06		 mov	 DWORD PTR [esi], eax
  0004b	8b 45 fc	 mov	 eax, DWORD PTR _dwTick$1$[ebp]
$LN2@RegenMonst:

; 2167 : 	// ----
; 2168 : 	for( int i = 0; i < AB_MAX_MONGROUP; i++ )

  0004e	47		 inc	 edi
  0004f	81 c6 0c 08 00
	00		 add	 esi, 2060		; 0000080cH
  00055	83 ff 32	 cmp	 edi, 50			; 00000032H
  00058	7c c6		 jl	 SHORT $LL4@RegenMonst
  0005a	5f		 pop	 edi
  0005b	5e		 pop	 esi
  0005c	5b		 pop	 ebx

; 2177 : 			}
; 2178 : 		}
; 2179 : 	}
; 2180 : }

  0005d	8b e5		 mov	 esp, ebp
  0005f	5d		 pop	 ebp
  00060	c3		 ret	 0
?RegenMonsterRun@CArcaBattle@@QAEXXZ ENDP		; CArcaBattle::RegenMonsterRun
_TEXT	ENDS
; Function compile flags: /Ogtp
; File c:\users\michel\desktop\source\gameserver\source\arcabattle.cpp
;	COMDAT ?DeleteMonster@CArcaBattle@@QAEXH@Z
_TEXT	SEGMENT
_nGroupNumber$ = 8					; size = 4
?DeleteMonster@CArcaBattle@@QAEXH@Z PROC		; CArcaBattle::DeleteMonster, COMDAT
; _this$ = ecx

; 2185 : {

  00000	55		 push	 ebp
  00001	8b ec		 mov	 ebp, esp

; 2186 : 	if( !AB_CHECKMONGROUP(nGroupNumber) )

  00003	8b 55 08	 mov	 edx, DWORD PTR _nGroupNumber$[ebp]
  00006	85 d2		 test	 edx, edx
  00008	78 65		 js	 SHORT $LN3@DeleteMons
  0000a	33 c0		 xor	 eax, eax
  0000c	83 fa 31	 cmp	 edx, 49			; 00000031H
  0000f	0f 9e c0	 setle	 al
  00012	85 c0		 test	 eax, eax
  00014	74 59		 je	 SHORT $LN3@DeleteMons

; 2187 : 	{
; 2188 : 		return;
; 2189 : 	}
; 2190 : 	// ----
; 2191 : 	for( int i = 0; i < AB_MAX_MONCOUNT; i++ )

  00016	69 c2 0c 08 00
	00		 imul	 eax, edx, 2060
  0001c	56		 push	 esi
  0001d	8d b1 00 e3 00
	00		 lea	 esi, DWORD PTR [ecx+58112]
  00023	57		 push	 edi
  00024	bf ff 00 00 00	 mov	 edi, 255		; 000000ffH
  00029	03 f0		 add	 esi, eax
  0002b	0f 1f 44 00 00	 npad	 5
$LL4@DeleteMons:

; 2192 :     {
; 2193 : 		if( this->m_stMonsterGroupInfo[nGroupNumber].m_stMonsterAccountNumInfo[i].m_nIndex > -1 )

  00030	8b 16		 mov	 edx, DWORD PTR [esi]
  00032	83 fa ff	 cmp	 edx, -1
  00035	7e 2e		 jle	 SHORT $LN2@DeleteMons

; 2194 : 		{
; 2195 : 			int nIndex = this->m_stMonsterGroupInfo[nGroupNumber].m_stMonsterAccountNumInfo[i].m_nIndex;
; 2196 : 			// ----
; 2197 : 			if( !gObj[nIndex].Live )

  00037	a1 00 00 00 00	 mov	 eax, DWORD PTR ?gObj@@3PAUOBJECTSTRUCT@@A ; gObj
  0003c	69 ca 40 27 00
	00		 imul	 ecx, edx, 10048
  00042	80 7c 01 51 00	 cmp	 BYTE PTR [ecx+eax+81], 0
  00047	75 1c		 jne	 SHORT $LN2@DeleteMons

; 2198 : 			{
; 2199 : 				gObjDel(nIndex);

  00049	52		 push	 edx
  0004a	e8 00 00 00 00	 call	 ?gObjDel@@YAFH@Z	; gObjDel

; 2200 : 				LogAdd("[ArcaBattle][MonsterGroupRegen] Delete Monster - %d ",

  0004f	ff 36		 push	 DWORD PTR [esi]
  00051	68 00 00 00 00	 push	 OFFSET ??_C@_0DF@FMIEONML@?$FLArcaBattle?$FN?$FLMonsterGroupRegen?$FN?5@
  00056	ff 15 00 00 00
	00		 call	 DWORD PTR ?LogAdd@@3P6AXPADZZA ; LogAdd
  0005c	83 c4 0c	 add	 esp, 12			; 0000000cH

; 2201 : 					this->m_stMonsterGroupInfo[nGroupNumber].m_stMonsterAccountNumInfo[i].m_nIndex);
; 2202 : 				this->m_stMonsterGroupInfo[nGroupNumber].m_stMonsterAccountNumInfo[i].m_nIndex = -1;

  0005f	c7 06 ff ff ff
	ff		 mov	 DWORD PTR [esi], -1
$LN2@DeleteMons:

; 2187 : 	{
; 2188 : 		return;
; 2189 : 	}
; 2190 : 	// ----
; 2191 : 	for( int i = 0; i < AB_MAX_MONCOUNT; i++ )

  00065	83 c6 08	 add	 esi, 8
  00068	83 ef 01	 sub	 edi, 1
  0006b	75 c3		 jne	 SHORT $LL4@DeleteMons
  0006d	5f		 pop	 edi
  0006e	5e		 pop	 esi
$LN3@DeleteMons:

; 2203 : 			}
; 2204 : 		}
; 2205 : 	}
; 2206 : }

  0006f	5d		 pop	 ebp
  00070	c2 04 00	 ret	 4
?DeleteMonster@CArcaBattle@@QAEXH@Z ENDP		; CArcaBattle::DeleteMonster
_TEXT	ENDS
; Function compile flags: /Ogtp
; File c:\users\michel\desktop\source\gameserver\source\arcabattle.cpp
;	COMDAT ?GetBoxPosition@CArcaBattle@@QAEHHHHHHAAE0@Z
_TEXT	SEGMENT
_ty$ = -44						; size = 4
_count$ = -40						; size = 4
_tx$ = -36						; size = 4
_h$ = -32						; size = 4
_w$ = -28						; size = 4
__$SEHRec$ = -24					; size = 24
_mapnumber$ = 8						; size = 4
_ax$ = 12						; size = 4
_ay$ = 16						; size = 4
_aw$ = 20						; size = 4
_ah$ = 24						; size = 4
_mx$ = 28						; size = 4
_my$ = 32						; size = 4
?GetBoxPosition@CArcaBattle@@QAEHHHHHHAAE0@Z PROC	; CArcaBattle::GetBoxPosition, COMDAT
; _this$ = ecx

; 2318 : {

  00000	55		 push	 ebp
  00001	8b ec		 mov	 ebp, esp
  00003	6a fe		 push	 -2			; fffffffeH
  00005	68 00 00 00 00	 push	 OFFSET __sehtable$?GetBoxPosition@CArcaBattle@@QAEHHHHHHAAE0@Z
  0000a	68 00 00 00 00	 push	 OFFSET __except_handler4
  0000f	64 a1 00 00 00
	00		 mov	 eax, DWORD PTR fs:0
  00015	50		 push	 eax
  00016	83 ec 1c	 sub	 esp, 28			; 0000001cH
  00019	53		 push	 ebx
  0001a	56		 push	 esi
  0001b	57		 push	 edi
  0001c	a1 00 00 00 00	 mov	 eax, DWORD PTR ___security_cookie
  00021	31 45 f8	 xor	 DWORD PTR __$SEHRec$[ebp+16], eax
  00024	33 c5		 xor	 eax, ebp
  00026	50		 push	 eax
  00027	8d 45 f0	 lea	 eax, DWORD PTR __$SEHRec$[ebp+8]
  0002a	64 a3 00 00 00
	00		 mov	 DWORD PTR fs:0, eax
  00030	89 65 e8	 mov	 DWORD PTR __$SEHRec$[ebp], esp

; 2319 : 	int count = 99; 

  00033	be 63 00 00 00	 mov	 esi, 99			; 00000063H
  00038	8b 7d 10	 mov	 edi, DWORD PTR _ay$[ebp]
  0003b	0f 1f 44 00 00	 npad	 5
$LL2@GetBoxPosi:

; 2320 : 	int w;
; 2321 : 	int h;
; 2322 : 	int tx; 
; 2323 : 	int ty;
; 2324 : 	BYTE attr;
; 2325 : 	// ----
; 2326 : 	while( count-- != 0 )

  00040	8b c6		 mov	 eax, esi
  00042	4e		 dec	 esi
  00043	89 75 d8	 mov	 DWORD PTR _count$[ebp], esi
  00046	85 c0		 test	 eax, eax
  00048	0f 84 af 00 00
	00		 je	 $LN3@GetBoxPosi

; 2327 : 	{
; 2328 : 		w = aw - ax;

  0004e	8b 45 14	 mov	 eax, DWORD PTR _aw$[ebp]
  00051	8b 5d 0c	 mov	 ebx, DWORD PTR _ax$[ebp]
  00054	2b c3		 sub	 eax, ebx
  00056	89 45 e4	 mov	 DWORD PTR _w$[ebp], eax

; 2329 : 		h = ah - ay;

  00059	8b 45 18	 mov	 eax, DWORD PTR _ah$[ebp]
  0005c	2b c7		 sub	 eax, edi
  0005e	89 45 e0	 mov	 DWORD PTR _h$[ebp], eax

; 2330 : 		// ----
; 2331 : 		__try

  00061	c7 45 fc 00 00
	00 00		 mov	 DWORD PTR __$SEHRec$[ebp+20], 0

; 2332 : 		{
; 2333 : 			tx = ax + (rand()%w);

  00068	e8 00 00 00 00	 call	 _rand
  0006d	8b 4d e4	 mov	 ecx, DWORD PTR _w$[ebp]
  00070	99		 cdq
  00071	f7 f9		 idiv	 ecx
  00073	03 d3		 add	 edx, ebx
  00075	89 55 dc	 mov	 DWORD PTR _tx$[ebp], edx

; 2334 : 			ty = ay + (rand()%h);

  00078	e8 00 00 00 00	 call	 _rand
  0007d	8b 4d e0	 mov	 ecx, DWORD PTR _h$[ebp]
  00080	99		 cdq
  00081	f7 f9		 idiv	 ecx
  00083	8d 1c 17	 lea	 ebx, DWORD PTR [edi+edx]
  00086	89 5d d4	 mov	 DWORD PTR _ty$[ebp], ebx

; 2335 : 		}

  00089	c7 45 fc fe ff
	ff ff		 mov	 DWORD PTR __$SEHRec$[ebp+20], -2 ; fffffffeH
  00090	eb 27		 jmp	 SHORT $LN11@GetBoxPosi
$LN8@GetBoxPosi:
$LN16@GetBoxPosi:

; 2336 : 		__except( w = 1, h = 1, 1 )

  00092	c7 45 e4 01 00
	00 00		 mov	 DWORD PTR _w$[ebp], 1
  00099	c7 45 e0 01 00
	00 00		 mov	 DWORD PTR _h$[ebp], 1
  000a0	b8 01 00 00 00	 mov	 eax, 1
$LN15@GetBoxPosi:
$LN10@GetBoxPosi:
  000a5	c3		 ret	 0
$LN9@GetBoxPosi:
  000a6	8b 65 e8	 mov	 esp, DWORD PTR __$SEHRec$[ebp]

; 2335 : 		}

  000a9	c7 45 fc fe ff
	ff ff		 mov	 DWORD PTR __$SEHRec$[ebp+20], -2 ; fffffffeH
  000b0	8b 7d 10	 mov	 edi, DWORD PTR _ay$[ebp]
  000b3	8b 75 d8	 mov	 esi, DWORD PTR _count$[ebp]
  000b6	8b 5d d4	 mov	 ebx, DWORD PTR _ty$[ebp]
$LN11@GetBoxPosi:

; 2337 : 		{
; 2338 : 
; 2339 : 		}
; 2340 : 		// ----
; 2341 : 		attr = MapC[mapnumber].GetAttr(tx, ty);

  000b9	53		 push	 ebx
  000ba	ff 75 dc	 push	 DWORD PTR _tx$[ebp]
  000bd	69 4d 08 28 38
	05 00		 imul	 ecx, DWORD PTR _mapnumber$[ebp], 342056
  000c4	81 c1 00 00 00
	00		 add	 ecx, OFFSET ?MapC@@3PAVMapClass@@A ; MapC
  000ca	e8 00 00 00 00	 call	 ?GetAttr@MapClass@@QAEEHH@Z ; MapClass::GetAttr
  000cf	a8 0d		 test	 al, 13			; 0000000dH

; 2342 : 		// ----
; 2343 : 		if( ((attr&1) != 1) && ((attr &4) != 4) && ((attr&8) != 8) )

  000d1	0f 85 69 ff ff
	ff		 jne	 $LL2@GetBoxPosi

; 2344 : 		{
; 2345 : 			mx = tx;

  000d7	8b 45 1c	 mov	 eax, DWORD PTR _mx$[ebp]
  000da	8b 4d dc	 mov	 ecx, DWORD PTR _tx$[ebp]
  000dd	88 08		 mov	 BYTE PTR [eax], cl

; 2346 : 			my = ty;

  000df	8b 45 20	 mov	 eax, DWORD PTR _my$[ebp]
  000e2	88 18		 mov	 BYTE PTR [eax], bl

; 2347 : 			return true;

  000e4	b8 01 00 00 00	 mov	 eax, 1

; 2352 : }

  000e9	8b 4d f0	 mov	 ecx, DWORD PTR __$SEHRec$[ebp+8]
  000ec	64 89 0d 00 00
	00 00		 mov	 DWORD PTR fs:0, ecx
  000f3	59		 pop	 ecx
  000f4	5f		 pop	 edi
  000f5	5e		 pop	 esi
  000f6	5b		 pop	 ebx
  000f7	8b e5		 mov	 esp, ebp
  000f9	5d		 pop	 ebp
  000fa	c2 1c 00	 ret	 28			; 0000001cH
$LN3@GetBoxPosi:

; 2348 : 		}
; 2349 : 	}
; 2350 : 	// ----
; 2351 : 	return false;

  000fd	33 c0		 xor	 eax, eax

; 2352 : }

  000ff	8b 4d f0	 mov	 ecx, DWORD PTR __$SEHRec$[ebp+8]
  00102	64 89 0d 00 00
	00 00		 mov	 DWORD PTR fs:0, ecx
  00109	59		 pop	 ecx
  0010a	5f		 pop	 edi
  0010b	5e		 pop	 esi
  0010c	5b		 pop	 ebx
  0010d	8b e5		 mov	 esp, ebp
  0010f	5d		 pop	 ebp
  00110	c2 1c 00	 ret	 28			; 0000001cH
?GetBoxPosition@CArcaBattle@@QAEHHHHHHAAE0@Z ENDP	; CArcaBattle::GetBoxPosition
_TEXT	ENDS
; Function compile flags: /Ogtp
; File c:\users\michel\desktop\source\gameserver\source\arcabattle.cpp
;	COMDAT ?SetPosMonster@CArcaBattle@@QAEHHHHHHH@Z
_TEXT	SEGMENT
_aIndex$ = 8						; size = 4
_nMapNumber$ = 12					; size = 4
_nBeginX$ = 16						; size = 4
_nBeginY$ = 20						; size = 4
_nEndX$ = 24						; size = 4
_nEndY$ = 28						; size = 4
?SetPosMonster@CArcaBattle@@QAEHHHHHHH@Z PROC		; CArcaBattle::SetPosMonster, COMDAT
; _this$ = ecx

; 2290 : {

  00000	55		 push	 ebp
  00001	8b ec		 mov	 ebp, esp

; 2291 : 	if( !OBJMAX_RANGE(aIndex) )	//9999

  00003	8b 4d 08	 mov	 ecx, DWORD PTR _aIndex$[ebp]
  00006	85 c9		 test	 ecx, ecx
  00008	0f 88 a3 00 00
	00		 js	 $LN6@SetPosMons
  0000e	33 c0		 xor	 eax, eax
  00010	81 f9 eb 2c 00
	00		 cmp	 ecx, 11499		; 00002cebH
  00016	0f 9e c0	 setle	 al
  00019	85 c0		 test	 eax, eax
  0001b	0f 84 90 00 00
	00		 je	 $LN6@SetPosMons

; 2295 : 	}
; 2296 : 	// ----
; 2297 : 	LPOBJ lpObj = &gObj[aIndex];

  00021	56		 push	 esi
  00022	69 f1 40 27 00
	00		 imul	 esi, ecx, 10048

; 2298 : 	// ----
; 2299 : 	lpObj->m_PosNum		= -1;

  00028	83 c8 ff	 or	 eax, -1
  0002b	03 35 00 00 00
	00		 add	 esi, DWORD PTR ?gObj@@3PAUOBJECTSTRUCT@@A ; gObj

; 2300 : 	lpObj->MapNumber	= nMapNumber;
; 2301 : //	this->GetBoxPosition(nMapNumber, nBeginX, nBeginY, nEndX, nEndY, lpObj->X, lpObj->Y);
; 2302 : 	lpObj->TX			= lpObj->X;

  00031	8a 8e 20 01 00
	00		 mov	 cl, BYTE PTR [esi+288]
  00037	66 89 86 98 05
	00 00		 mov	 WORD PTR [esi+1432], ax
  0003e	8a 45 0c	 mov	 al, BYTE PTR _nMapNumber$[ebp]
  00041	88 86 23 01 00
	00		 mov	 BYTE PTR [esi+291], al

; 2303 :     lpObj->TY			= lpObj->Y;

  00047	8a 86 21 01 00
	00		 mov	 al, BYTE PTR [esi+289]
  0004d	88 8e 52 01 00
	00		 mov	 BYTE PTR [esi+338], cl
  00053	88 86 53 01 00
	00		 mov	 BYTE PTR [esi+339], al

; 2304 :     lpObj->m_OldX		= lpObj->X;

  00059	88 8e 50 01 00
	00		 mov	 BYTE PTR [esi+336], cl

; 2305 :     lpObj->m_OldY		= lpObj->Y;

  0005f	88 86 51 01 00
	00		 mov	 BYTE PTR [esi+337], al

; 2306 : 	lpObj->Dir			= rand() % 8;	//need check

  00065	e8 00 00 00 00	 call	 _rand
  0006a	25 07 00 00 80	 and	 eax, -2147483641	; 80000007H
  0006f	79 05		 jns	 SHORT $LN7@SetPosMons
  00071	48		 dec	 eax
  00072	83 c8 f8	 or	 eax, -8			; fffffff8H
  00075	40		 inc	 eax
$LN7@SetPosMons:
  00076	88 86 22 01 00
	00		 mov	 BYTE PTR [esi+290], al

; 2307 : 	lpObj->StartX		= (BYTE)lpObj->X;

  0007c	0f b6 86 20 01
	00 00		 movzx	 eax, BYTE PTR [esi+288]
  00083	88 86 4e 01 00
	00		 mov	 BYTE PTR [esi+334], al

; 2308 :     lpObj->StartY		= (BYTE)lpObj->Y;

  00089	0f b6 86 21 01
	00 00		 movzx	 eax, BYTE PTR [esi+289]
  00090	88 86 4f 01 00
	00		 mov	 BYTE PTR [esi+335], al

; 2309 :     lpObj->DieRegen		= 0;
; 2310 :     lpObj->MaxRegenTime = 0;
; 2311 : 	// ----
; 2312 : 	return true;

  00096	b8 01 00 00 00	 mov	 eax, 1
  0009b	c6 86 8a 05 00
	00 00		 mov	 BYTE PTR [esi+1418], 0
  000a2	c7 86 94 05 00
	00 00 00 00 00	 mov	 DWORD PTR [esi+1428], 0
  000ac	5e		 pop	 esi

; 2313 : }

  000ad	5d		 pop	 ebp
  000ae	c2 18 00	 ret	 24			; 00000018H
$LN6@SetPosMons:

; 2292 : 	{
; 2293 : 		LogAdd("[ArcaBattle] error : %s %d", __FILE__, __LINE__); //Line: 3291

  000b1	68 f5 08 00 00	 push	 2293			; 000008f5H
  000b6	68 00 00 00 00	 push	 OFFSET ??_C@_0P@FNDEBPBH@ArcaBattle?4cpp?$AA@
  000bb	68 00 00 00 00	 push	 OFFSET ??_C@_0BL@KNDCMNHP@?$FLArcaBattle?$FN?5error?5?3?5?$CFs?5?$CFd?$AA@
  000c0	ff 15 00 00 00
	00		 call	 DWORD PTR ?LogAdd@@3P6AXPADZZA ; LogAdd
  000c6	83 c4 0c	 add	 esp, 12			; 0000000cH

; 2294 : 		return false;

  000c9	33 c0		 xor	 eax, eax

; 2313 : }

  000cb	5d		 pop	 ebp
  000cc	c2 18 00	 ret	 24			; 00000018H
?SetPosMonster@CArcaBattle@@QAEHHHHHHH@Z ENDP		; CArcaBattle::SetPosMonster
_TEXT	ENDS
; Function compile flags: /Ogtp
; File c:\users\michel\desktop\source\gameserver\source\arcabattle.cpp
;	COMDAT ?RegenMonster@CArcaBattle@@QAEXH@Z
_TEXT	SEGMENT
_nBeginX$1$ = -40					; size = 4
_nBeginY$1$ = -36					; size = 4
_nEndX$1$ = -32						; size = 4
_nEndY$1$ = -28						; size = 4
_nMonsterKindCnt$1$ = -24				; size = 4
tv406 = -20						; size = 4
_nMonsterCount$1$ = -16					; size = 4
_n$1$ = -12						; size = 4
_this$1$ = -8						; size = 4
_nMapNumber$1$ = -4					; size = 4
_nGroupNumber$ = 8					; size = 4
?RegenMonster@CArcaBattle@@QAEXH@Z PROC			; CArcaBattle::RegenMonster, COMDAT
; _this$ = ecx

; 2211 : {

  00000	55		 push	 ebp
  00001	8b ec		 mov	 ebp, esp
  00003	83 ec 28	 sub	 esp, 40			; 00000028H
  00006	53		 push	 ebx

; 2212 : 	int nMapNumber;
; 2213 : 	int nMonsterArrayIndex;
; 2214 : 	int nBeginX;
; 2215 : 	int nRegenArea;
; 2216 : 	int nEndX;
; 2217 : 	int nMonsterKindCnt;
; 2218 : 	int nMonsterCount;
; 2219 : 	int nBeginY;
; 2220 : 	int nEndY;
; 2221 : 	// ----
; 2222 : 	if( !AB_CHECKMONGROUP(nGroupNumber) )

  00007	8b 5d 08	 mov	 ebx, DWORD PTR _nGroupNumber$[ebp]
  0000a	89 4d f8	 mov	 DWORD PTR _this$1$[ebp], ecx
  0000d	85 db		 test	 ebx, ebx
  0000f	0f 88 b8 01 00
	00		 js	 $LN20@RegenMonst
  00015	33 c0		 xor	 eax, eax
  00017	83 fb 31	 cmp	 ebx, 49			; 00000031H
  0001a	0f 9e c0	 setle	 al
  0001d	85 c0		 test	 eax, eax
  0001f	0f 84 a8 01 00
	00		 je	 $LN20@RegenMonst

; 2225 : 		return;
; 2226 : 	}
; 2227 : 	// ----
; 2228 : 	nRegenArea			= rand() % this->m_stMonsterPosition[nGroupNumber].m_nRegenAreaCnt;

  00025	56		 push	 esi
  00026	57		 push	 edi
  00027	69 fb 7c 03 00
	00		 imul	 edi, ebx, 892
  0002d	8d 34 0f	 lea	 esi, DWORD PTR [edi+ecx]
  00030	e8 00 00 00 00	 call	 _rand
  00035	99		 cdq
  00036	f7 be b8 34 00
	00		 idiv	 DWORD PTR [esi+13496]

; 2229 : 	nMapNumber			= this->m_stMonsterGroupInfo[nGroupNumber].m_nMapNumber;

  0003c	69 c3 0c 08 00
	00		 imul	 eax, ebx, 2060

; 2230 : 	nMonsterArrayIndex	= 0;
; 2231 : 	nMonsterCount		= this->m_stMonsterGroupInfo[nGroupNumber].m_nCnt;
; 2232 :     nMonsterKindCnt		= this->m_stMonsterPosition[nGroupNumber].m_nMonsterKindCnt;
; 2233 :     nBeginX				= this->m_stMonsterPosition[nGroupNumber].m_stRegenArea[nRegenArea].m_nBeginX;
; 2234 :     nBeginY				= this->m_stMonsterPosition[nGroupNumber].m_stRegenArea[nRegenArea].m_nBeginY;
; 2235 :     nEndX				= this->m_stMonsterPosition[nGroupNumber].m_stRegenArea[nRegenArea].m_nEndX;
; 2236 :     nEndY				= this->m_stMonsterPosition[nGroupNumber].m_stRegenArea[nRegenArea].m_nEndY;
; 2237 : 	// ----
; 2238 : 	for( int n = 0; n < nMonsterCount; n++ )

  00042	c7 45 f4 00 00
	00 00		 mov	 DWORD PTR _n$1$[ebp], 0
  00049	03 45 f8	 add	 eax, DWORD PTR _this$1$[ebp]
  0004c	89 45 ec	 mov	 DWORD PTR tv406[ebp], eax
  0004f	8b 88 f0 e2 00
	00		 mov	 ecx, DWORD PTR [eax+58096]
  00055	8b 80 f4 e2 00
	00		 mov	 eax, DWORD PTR [eax+58100]
  0005b	89 45 f0	 mov	 DWORD PTR _nMonsterCount$1$[ebp], eax
  0005e	8b 86 bc 34 00
	00		 mov	 eax, DWORD PTR [esi+13500]
  00064	8b 75 f8	 mov	 esi, DWORD PTR _this$1$[ebp]
  00067	89 45 e8	 mov	 DWORD PTR _nMonsterKindCnt$1$[ebp], eax
  0006a	8d 82 4c 03 00
	00		 lea	 eax, DWORD PTR [edx+844]
  00070	c1 e0 04	 shl	 eax, 4
  00073	03 c7		 add	 eax, edi
  00075	c1 e2 04	 shl	 edx, 4
  00078	03 d7		 add	 edx, edi
  0007a	89 4d fc	 mov	 DWORD PTR _nMapNumber$1$[ebp], ecx
  0007d	83 7d f0 00	 cmp	 DWORD PTR _nMonsterCount$1$[ebp], 0
  00081	8b 04 30	 mov	 eax, DWORD PTR [eax+esi]
  00084	89 45 d8	 mov	 DWORD PTR _nBeginX$1$[ebp], eax
  00087	8b 84 32 c4 34
	00 00		 mov	 eax, DWORD PTR [edx+esi+13508]
  0008e	89 45 dc	 mov	 DWORD PTR _nBeginY$1$[ebp], eax
  00091	8b 84 32 c8 34
	00 00		 mov	 eax, DWORD PTR [edx+esi+13512]
  00098	89 45 e0	 mov	 DWORD PTR _nEndX$1$[ebp], eax
  0009b	8b 84 32 cc 34
	00 00		 mov	 eax, DWORD PTR [edx+esi+13516]
  000a2	89 45 e4	 mov	 DWORD PTR _nEndY$1$[ebp], eax
  000a5	0f 8e 19 01 00
	00		 jle	 $LN21@RegenMonst

; 2225 : 		return;
; 2226 : 	}
; 2227 : 	// ----
; 2228 : 	nRegenArea			= rand() % this->m_stMonsterPosition[nGroupNumber].m_nRegenAreaCnt;

  000ab	8b 7d ec	 mov	 edi, DWORD PTR tv406[ebp]
  000ae	81 c7 00 e3 00
	00		 add	 edi, 58112		; 0000e300H
$LL4@RegenMonst:

; 2239 :     {
; 2240 : 		int nMonsterIndex, nResult, nIndex;
; 2241 : 		// ----
; 2242 : 		if( nMapNumber == -1 )

  000b4	83 f9 ff	 cmp	 ecx, -1
  000b7	0f 84 07 01 00
	00		 je	 $LN21@RegenMonst

; 2243 : 		{
; 2244 : 			break;
; 2245 : 		}
; 2246 : 		// ----
; 2247 : 		nIndex = this->m_stMonsterGroupInfo[nGroupNumber].m_stMonsterAccountNumInfo[n].m_nIndex;

  000bd	8b 07		 mov	 eax, DWORD PTR [edi]

; 2248 : 		// ----
; 2249 : 		if( nIndex > -1 && gObj[nIndex].Live == 1 )

  000bf	83 f8 ff	 cmp	 eax, -1
  000c2	7e 19		 jle	 SHORT $LN7@RegenMonst
  000c4	69 c8 40 27 00
	00		 imul	 ecx, eax, 10048
  000ca	a1 00 00 00 00	 mov	 eax, DWORD PTR ?gObj@@3PAUOBJECTSTRUCT@@A ; gObj
  000cf	80 7c 01 51 01	 cmp	 BYTE PTR [ecx+eax+81], 1
  000d4	0f 84 d4 00 00
	00		 je	 $LN2@RegenMonst
  000da	8b 4d fc	 mov	 ecx, DWORD PTR _nMapNumber$1$[ebp]
$LN7@RegenMonst:

; 2250 : 		{
; 2251 : 			continue;
; 2252 : 		}
; 2253 : 		// ----
; 2254 : 		nResult			= gObjAddMonster(nMapNumber);

  000dd	51		 push	 ecx
  000de	e8 00 00 00 00	 call	 ?gObjAddMonster@@YAFH@Z	; gObjAddMonster
  000e3	83 c4 04	 add	 esp, 4
  000e6	0f bf f0	 movsx	 esi, ax

; 2255 :         nMonsterIndex	= this->m_stMonsterPosition[nGroupNumber].m_stMonsterIndexInfo[rand() % nMonsterKindCnt].m_nMonsterIndex;

  000e9	e8 00 00 00 00	 call	 _rand
  000ee	99		 cdq
  000ef	f7 7d e8	 idiv	 DWORD PTR _nMonsterKindCnt$1$[ebp]
  000f2	69 c3 df 00 00
	00		 imul	 eax, ebx, 223
  000f8	03 d0		 add	 edx, eax
  000fa	8b 45 f8	 mov	 eax, DWORD PTR _this$1$[ebp]
  000fd	8b 9c 90 e0 37
	00 00		 mov	 ebx, DWORD PTR [eax+edx*4+14304]

; 2256 :         this->m_stMonsterGroupInfo[nGroupNumber].m_stMonsterAccountNumInfo[n].m_nIndex = nResult;

  00104	89 37		 mov	 DWORD PTR [edi], esi

; 2257 : 		// ----
; 2258 : 		if( nResult >= 0 )

  00106	85 f6		 test	 esi, esi
  00108	0f 88 8d 00 00
	00		 js	 $LN8@RegenMonst

; 2259 :         {
; 2260 : 			if( !this->SetPosMonster(nResult, nMapNumber, nBeginX, nBeginY, nEndX, nEndY) )

  0010e	ff 75 e4	 push	 DWORD PTR _nEndY$1$[ebp]
  00111	8b c8		 mov	 ecx, eax
  00113	ff 75 e0	 push	 DWORD PTR _nEndX$1$[ebp]
  00116	ff 75 dc	 push	 DWORD PTR _nBeginY$1$[ebp]
  00119	ff 75 d8	 push	 DWORD PTR _nBeginX$1$[ebp]
  0011c	ff 75 fc	 push	 DWORD PTR _nMapNumber$1$[ebp]
  0011f	56		 push	 esi
  00120	e8 00 00 00 00	 call	 ?SetPosMonster@CArcaBattle@@QAEHHHHHHH@Z ; CArcaBattle::SetPosMonster
  00125	85 c0		 test	 eax, eax
  00127	75 23		 jne	 SHORT $LN10@RegenMonst

; 2261 : 			{
; 2262 : 				gObjDel(nResult);

  00129	56		 push	 esi
  0012a	e8 00 00 00 00	 call	 ?gObjDel@@YAFH@Z	; gObjDel

; 2263 : 				LogAdd("[ArcaBattle] error : %s %d", __FILE__, __LINE__); //Line: 3256

  0012f	68 d7 08 00 00	 push	 2263			; 000008d7H
$LN23@RegenMonst:
  00134	68 00 00 00 00	 push	 OFFSET ??_C@_0P@FNDEBPBH@ArcaBattle?4cpp?$AA@
  00139	68 00 00 00 00	 push	 OFFSET ??_C@_0BL@KNDCMNHP@?$FLArcaBattle?$FN?5error?5?3?5?$CFs?5?$CFd?$AA@
  0013e	ff 15 00 00 00
	00		 call	 DWORD PTR ?LogAdd@@3P6AXPADZZA ; LogAdd

; 2264 : 				continue;

  00144	8b 5d 08	 mov	 ebx, DWORD PTR _nGroupNumber$[ebp]
  00147	83 c4 10	 add	 esp, 16			; 00000010H
  0014a	eb 62		 jmp	 SHORT $LN2@RegenMonst
$LN10@RegenMonst:

; 2265 : 			}
; 2266 : 			// ----
; 2267 : 			if( !gObjSetMonster(nResult, nMonsterIndex) )

  0014c	53		 push	 ebx
  0014d	56		 push	 esi
  0014e	e8 00 00 00 00	 call	 ?gObjSetMonster@@YAHHH@Z ; gObjSetMonster
  00153	83 c4 08	 add	 esp, 8
  00156	85 c0		 test	 eax, eax
  00158	75 0d		 jne	 SHORT $LN11@RegenMonst

; 2268 : 			{
; 2269 : 				gObjDel(nResult);

  0015a	56		 push	 esi
  0015b	e8 00 00 00 00	 call	 ?gObjDel@@YAFH@Z	; gObjDel

; 2270 : 				LogAdd("[ArcaBattle] error : %s %d", __FILE__, __LINE__); //Line: 3263

  00160	68 de 08 00 00	 push	 2270			; 000008deH

; 2271 : 				continue;

  00165	eb cd		 jmp	 SHORT $LN23@RegenMonst
$LN11@RegenMonst:

; 2277 : 				nGroupNumber, nMonsterIndex);
; 2278 : 			continue;
; 2279 : 		}
; 2280 : 		// ----
; 2281 : 		nMonsterArrayIndex++;
; 2282 : 		LogAddTD("[ArcaBattle][MonsterGroupRegen] Group: %d, MonsterIndex: %d, MapNumber: %d, X: %d, Y: %d ",

  00167	69 ce 40 27 00
	00		 imul	 ecx, esi, 10048
  0016d	03 0d 00 00 00
	00		 add	 ecx, DWORD PTR ?gObj@@3PAUOBJECTSTRUCT@@A ; gObj
  00173	0f b6 81 21 01
	00 00		 movzx	 eax, BYTE PTR [ecx+289]
  0017a	50		 push	 eax
  0017b	0f b6 81 20 01
	00 00		 movzx	 eax, BYTE PTR [ecx+288]
  00182	50		 push	 eax
  00183	ff 75 fc	 push	 DWORD PTR _nMapNumber$1$[ebp]
  00186	53		 push	 ebx
  00187	8b 5d 08	 mov	 ebx, DWORD PTR _nGroupNumber$[ebp]
  0018a	53		 push	 ebx
  0018b	68 00 00 00 00	 push	 OFFSET ??_C@_0FK@OFHBENGA@?$FLArcaBattle?$FN?$FLMonsterGroupRegen?$FN?5@
  00190	ff 15 00 00 00
	00		 call	 DWORD PTR ?LogAddTD@@3P6AXPADZZA ; LogAddTD
  00196	83 c4 18	 add	 esp, 24			; 00000018H

; 2283 : 			nGroupNumber, nMonsterIndex, nMapNumber, gObj[nResult].X, gObj[nResult].Y);
; 2284 : 	}

  00199	eb 13		 jmp	 SHORT $LN2@RegenMonst
$LN8@RegenMonst:

; 2272 : 			}		
; 2273 : 		}
; 2274 : 		else
; 2275 : 		{
; 2276 : 			LogAddTD("[ArcaBattle][MonsterGroupRegen] AddMonster fail!! [GROUP]:%d, [INDEX]:%d",

  0019b	53		 push	 ebx
  0019c	8b 5d 08	 mov	 ebx, DWORD PTR _nGroupNumber$[ebp]
  0019f	53		 push	 ebx
  001a0	68 00 00 00 00	 push	 OFFSET ??_C@_0EJ@BMKIDIKM@?$FLArcaBattle?$FN?$FLMonsterGroupRegen?$FN?5@
  001a5	ff 15 00 00 00
	00		 call	 DWORD PTR ?LogAddTD@@3P6AXPADZZA ; LogAddTD
  001ab	83 c4 0c	 add	 esp, 12			; 0000000cH
$LN2@RegenMonst:

; 2230 : 	nMonsterArrayIndex	= 0;
; 2231 : 	nMonsterCount		= this->m_stMonsterGroupInfo[nGroupNumber].m_nCnt;
; 2232 :     nMonsterKindCnt		= this->m_stMonsterPosition[nGroupNumber].m_nMonsterKindCnt;
; 2233 :     nBeginX				= this->m_stMonsterPosition[nGroupNumber].m_stRegenArea[nRegenArea].m_nBeginX;
; 2234 :     nBeginY				= this->m_stMonsterPosition[nGroupNumber].m_stRegenArea[nRegenArea].m_nBeginY;
; 2235 :     nEndX				= this->m_stMonsterPosition[nGroupNumber].m_stRegenArea[nRegenArea].m_nEndX;
; 2236 :     nEndY				= this->m_stMonsterPosition[nGroupNumber].m_stRegenArea[nRegenArea].m_nEndY;
; 2237 : 	// ----
; 2238 : 	for( int n = 0; n < nMonsterCount; n++ )

  001ae	8b 45 f4	 mov	 eax, DWORD PTR _n$1$[ebp]
  001b1	83 c7 08	 add	 edi, 8
  001b4	8b 4d fc	 mov	 ecx, DWORD PTR _nMapNumber$1$[ebp]
  001b7	40		 inc	 eax
  001b8	89 45 f4	 mov	 DWORD PTR _n$1$[ebp], eax
  001bb	3b 45 f0	 cmp	 eax, DWORD PTR _nMonsterCount$1$[ebp]
  001be	0f 8c f0 fe ff
	ff		 jl	 $LL4@RegenMonst
$LN21@RegenMonst:
  001c4	5f		 pop	 edi
  001c5	5e		 pop	 esi
  001c6	5b		 pop	 ebx

; 2285 : }

  001c7	8b e5		 mov	 esp, ebp
  001c9	5d		 pop	 ebp
  001ca	c2 04 00	 ret	 4
$LN20@RegenMonst:

; 2223 : 	{
; 2224 : 		LogAddTD(""); //need check

  001cd	68 00 00 00 00	 push	 OFFSET ??_C@_00CNPNBAHC@?$AA@
  001d2	ff 15 00 00 00
	00		 call	 DWORD PTR ?LogAddTD@@3P6AXPADZZA ; LogAddTD
  001d8	83 c4 04	 add	 esp, 4
  001db	5b		 pop	 ebx

; 2285 : }

  001dc	8b e5		 mov	 esp, ebp
  001de	5d		 pop	 ebp
  001df	c2 04 00	 ret	 4
?RegenMonster@CArcaBattle@@QAEXH@Z ENDP			; CArcaBattle::RegenMonster
_TEXT	ENDS
; Function compile flags: /Ogtp
; File c:\users\michel\desktop\source\gameserver\source\arcabattle.cpp
;	COMDAT ?WinGuildMemberAddBuff@CArcaBattle@@QAEXPAUOBJECTSTRUCT@@G@Z
_TEXT	SEGMENT
_lpObj$ = 8						; size = 4
_wObeliskAttr$ = 12					; size = 2
?WinGuildMemberAddBuff@CArcaBattle@@QAEXPAUOBJECTSTRUCT@@G@Z PROC ; CArcaBattle::WinGuildMemberAddBuff, COMDAT
; _this$ = ecx

; 330  : //	_tagPeriodBuffEffectInfo * lpPeriBuff;
; 331  : 	WORD wBuffIndex;
; 332  : 	int iDuration	= 604800;
; 333  : 	wBuffIndex		= this->GetObeliskAttrToRewardBuffIndex(wObeliskAttr);
; 334  : //	lpPeriBuff		= 0;
; 335  : //	lpPeriBuff		= g_BuffEffectSlot.GetPeriodBuffInfo(wBuffIndex);
; 336  : 	// ----
; 337  : //	if( lpPeriBuff == NULL )
; 338  : //	{
; 339  : //		return;
; 340  : //	}
; 341  : 	// ----
; 342  : //    gObjAddPeriodBuffEffect(lpObj, lpPeriBuff, iDuration);
; 343  : }

  00000	c2 08 00	 ret	 8
?WinGuildMemberAddBuff@CArcaBattle@@QAEXPAUOBJECTSTRUCT@@G@Z ENDP ; CArcaBattle::WinGuildMemberAddBuff
_TEXT	ENDS
; Function compile flags: /Ogtp
; File c:\users\michel\desktop\source\gameserver\source\arcabattle.cpp
;	COMDAT ?GetObeliskAttrToRewardBuffIndex@CArcaBattle@@QAEGH@Z
_TEXT	SEGMENT
_iObeliskAttr$ = 8					; size = 4
?GetObeliskAttrToRewardBuffIndex@CArcaBattle@@QAEGH@Z PROC ; CArcaBattle::GetObeliskAttrToRewardBuffIndex, COMDAT
; _this$ = ecx

; 522  : {

  00000	55		 push	 ebp
  00001	8b ec		 mov	 ebp, esp

; 523  : 	WORD wBuffIndex = 0;
; 524  : 	// ----
; 525  : 	switch(iObeliskAttr)

  00003	8b 45 08	 mov	 eax, DWORD PTR _iObeliskAttr$[ebp]
  00006	33 c9		 xor	 ecx, ecx
  00008	48		 dec	 eax
  00009	83 f8 04	 cmp	 eax, 4
  0000c	77 3c		 ja	 SHORT $LN2@GetObelisk
  0000e	ff 24 85 00 00
	00 00		 jmp	 DWORD PTR $LN11@GetObelisk[eax*4]
$LN4@GetObelisk:

; 526  : 	{
; 527  : 	case AB_OBELISK_FIRE:
; 528  : 		wBuffIndex = 179;

  00015	b9 b3 00 00 00	 mov	 ecx, 179		; 000000b3H

; 541  : 		break;
; 542  : 	}
; 543  : 	// ----
; 544  : 	return wBuffIndex;

  0001a	66 8b c1	 mov	 ax, cx

; 545  : }

  0001d	5d		 pop	 ebp
  0001e	c2 04 00	 ret	 4
$LN5@GetObelisk:

; 529  : 		break;
; 530  : 	case AB_OBELISK_WATER:
; 531  : 		wBuffIndex = 180;

  00021	b9 b4 00 00 00	 mov	 ecx, 180		; 000000b4H

; 541  : 		break;
; 542  : 	}
; 543  : 	// ----
; 544  : 	return wBuffIndex;

  00026	66 8b c1	 mov	 ax, cx

; 545  : }

  00029	5d		 pop	 ebp
  0002a	c2 04 00	 ret	 4
$LN6@GetObelisk:

; 532  : 		break;
; 533  : 	case AB_OBELISK_WIND:
; 534  : 		wBuffIndex = 181;

  0002d	b9 b5 00 00 00	 mov	 ecx, 181		; 000000b5H

; 541  : 		break;
; 542  : 	}
; 543  : 	// ----
; 544  : 	return wBuffIndex;

  00032	66 8b c1	 mov	 ax, cx

; 545  : }

  00035	5d		 pop	 ebp
  00036	c2 04 00	 ret	 4
$LN7@GetObelisk:

; 535  : 		break;
; 536  : 	case AB_OBELISK_EARTH:
; 537  : 		wBuffIndex = 182;

  00039	b9 b6 00 00 00	 mov	 ecx, 182		; 000000b6H

; 541  : 		break;
; 542  : 	}
; 543  : 	// ----
; 544  : 	return wBuffIndex;

  0003e	66 8b c1	 mov	 ax, cx

; 545  : }

  00041	5d		 pop	 ebp
  00042	c2 04 00	 ret	 4
$LN8@GetObelisk:

; 538  : 		break;
; 539  : 	case AB_OBELISK_DARKNESS:
; 540  : 		wBuffIndex = 183;

  00045	b9 b7 00 00 00	 mov	 ecx, 183		; 000000b7H
$LN2@GetObelisk:

; 541  : 		break;
; 542  : 	}
; 543  : 	// ----
; 544  : 	return wBuffIndex;

  0004a	66 8b c1	 mov	 ax, cx

; 545  : }

  0004d	5d		 pop	 ebp
  0004e	c2 04 00	 ret	 4
  00051	0f 1f 00	 npad	 3
$LN11@GetObelisk:
  00054	00 00 00 00	 DD	 $LN4@GetObelisk
  00058	00 00 00 00	 DD	 $LN5@GetObelisk
  0005c	00 00 00 00	 DD	 $LN6@GetObelisk
  00060	00 00 00 00	 DD	 $LN7@GetObelisk
  00064	00 00 00 00	 DD	 $LN8@GetObelisk
?GetObeliskAttrToRewardBuffIndex@CArcaBattle@@QAEGH@Z ENDP ; CArcaBattle::GetObeliskAttrToRewardBuffIndex
_TEXT	ENDS
; Function compile flags: /Ogtp
; File c:\users\michel\desktop\source\gameserver\source\arcabattle.cpp
;	COMDAT ?DGAnsRegisteredMemberCnt@CArcaBattle@@QAEXPAU_tagPMSG_ANS_AB_REG_MEMBER_CNT_DS@@@Z
_TEXT	SEGMENT
_pMsg$ = -8						; size = 6
_lpMsg$ = 8						; size = 4
?DGAnsRegisteredMemberCnt@CArcaBattle@@QAEXPAU_tagPMSG_ANS_AB_REG_MEMBER_CNT_DS@@@Z PROC ; CArcaBattle::DGAnsRegisteredMemberCnt, COMDAT
; _this$ = ecx

; 2767 : {

  00000	55		 push	 ebp
  00001	8b ec		 mov	 ebp, esp
  00003	83 ec 08	 sub	 esp, 8

; 2768 : 	int aIndex;
; 2769 : 	_tagPMSG_ANS_AB_REG_MEMBER_CNT pMsg;
; 2770 : 	// ----
; 2771 : 	int nResult = 0;
; 2772 : 	aIndex		= lpMsg->wNumber;

  00006	8b 45 08	 mov	 eax, DWORD PTR _lpMsg$[ebp]
  00009	33 c9		 xor	 ecx, ecx
  0000b	56		 push	 esi

; 2773 : 	// ----
; 2774 : 	if( !lpMsg->btRegMemCnt )
; 2775 : 	{
; 2776 : 		nResult = 2;
; 2777 : 	}
; 2778 : 	// ----
; 2779 : 	pMsg.h.c		= 0xC1;
; 2780 : 	pMsg.h.size		= sizeof(_tagPMSG_ANS_AB_REG_MEMBER_CNT);
; 2781 : 	pMsg.h.headcode = 0xF8;
; 2782 : 	pMsg.h.subcode	= 0x42;
; 2783 : 	pMsg.btRegMemCnt= lpMsg->btRegMemCnt;
; 2784 : 	pMsg.btResult	= nResult;
; 2785 : 	// ----
; 2786 : 	DataSend(aIndex, (LPBYTE)&pMsg, sizeof(_tagPMSG_ANS_AB_REG_MEMBER_CNT));

  0000c	6a 06		 push	 6
  0000e	be 02 00 00 00	 mov	 esi, 2
  00013	c7 45 f8 c1 06
	f8 42		 mov	 DWORD PTR _pMsg$[ebp], 1123550913 ; 42f806c1H
  0001a	0f b7 50 04	 movzx	 edx, WORD PTR [eax+4]
  0001e	8a 40 06	 mov	 al, BYTE PTR [eax+6]
  00021	84 c0		 test	 al, al
  00023	88 45 fd	 mov	 BYTE PTR _pMsg$[ebp+5], al
  00026	8d 45 f8	 lea	 eax, DWORD PTR _pMsg$[ebp]
  00029	50		 push	 eax
  0002a	0f 44 ce	 cmove	 ecx, esi
  0002d	52		 push	 edx
  0002e	88 4d fc	 mov	 BYTE PTR _pMsg$[ebp+4], cl
  00031	e8 00 00 00 00	 call	 ?DataSend@@YAHHPAEK@Z	; DataSend
  00036	83 c4 0c	 add	 esp, 12			; 0000000cH
  00039	5e		 pop	 esi

; 2787 : }

  0003a	8b e5		 mov	 esp, ebp
  0003c	5d		 pop	 ebp
  0003d	c2 04 00	 ret	 4
?DGAnsRegisteredMemberCnt@CArcaBattle@@QAEXPAU_tagPMSG_ANS_AB_REG_MEMBER_CNT_DS@@@Z ENDP ; CArcaBattle::DGAnsRegisteredMemberCnt
_TEXT	ENDS
; Function compile flags: /Ogtp
; File c:\users\michel\desktop\source\gameserver\source\arcabattle.cpp
;	COMDAT ?DeleteArcaBattleAllMonster@CArcaBattle@@QAEXXZ
_TEXT	SEGMENT
_this$1$ = -16						; size = 4
tv426 = -12						; size = 4
_nGroupNumber$1$ = -8					; size = 4
tv432 = -4						; size = 4
?DeleteArcaBattleAllMonster@CArcaBattle@@QAEXXZ PROC	; CArcaBattle::DeleteArcaBattleAllMonster, COMDAT
; _this$ = ecx

; 1221 : {

  00000	55		 push	 ebp
  00001	8b ec		 mov	 ebp, esp
  00003	83 ec 10	 sub	 esp, 16			; 00000010H
  00006	53		 push	 ebx
  00007	8b d9		 mov	 ebx, ecx

; 1222 : 	for( int nGroupNumber = 0; nGroupNumber < AB_MAX_MONGROUP; nGroupNumber++ )

  00009	33 c9		 xor	 ecx, ecx
  0000b	56		 push	 esi
  0000c	57		 push	 edi
  0000d	89 5d f0	 mov	 DWORD PTR _this$1$[ebp], ebx
  00010	8d 93 00 e3 00
	00		 lea	 edx, DWORD PTR [ebx+58112]
  00016	89 4d f8	 mov	 DWORD PTR _nGroupNumber$1$[ebp], ecx
  00019	89 55 f4	 mov	 DWORD PTR tv426[ebp], edx
  0001c	0f 1f 40 00	 npad	 4
$LL4@DeleteArca:

; 1223 : 	{
; 1224 : 		if( this->m_stMonsterGroupInfo[nGroupNumber].m_nGroupNumber < 0 )

  00020	83 7a ec 00	 cmp	 DWORD PTR [edx-20], 0
  00024	7c 6b		 jl	 SHORT $LN2@DeleteArca

; 1225 : 		{
; 1226 : 			continue;
; 1227 : 		}
; 1228 : 		// ----
; 1229 : 		if( !AB_CHECKMONGROUP(nGroupNumber) ) //ahah, paranoid wz

  00026	85 c9		 test	 ecx, ecx
  00028	78 7d		 js	 SHORT $LN23@DeleteArca
  0002a	33 c0		 xor	 eax, eax
  0002c	83 f9 31	 cmp	 ecx, 49			; 00000031H
  0002f	0f 9e c0	 setle	 al
  00032	85 c0		 test	 eax, eax
  00034	74 71		 je	 SHORT $LN23@DeleteArca

; 1230 : 		{
; 1231 : 			return;
; 1232 : 		}
; 1233 : 		// ----
; 1234 : 		for( int i = 0; i < AB_MAX_MONCOUNT; i++ )

  00036	b8 ff 00 00 00	 mov	 eax, 255		; 000000ffH
  0003b	81 c3 fc e2 00
	00		 add	 ebx, 58108		; 0000e2fcH
  00041	8b f2		 mov	 esi, edx
  00043	89 45 fc	 mov	 DWORD PTR tv432[ebp], eax
$LL7@DeleteArca:

; 1235 : 		{
; 1236 : 			if( this->m_stMonsterGroupInfo[nGroupNumber].m_stMonsterAccountNumInfo[i].m_nIndex > -1 )

  00046	8b 3e		 mov	 edi, DWORD PTR [esi]
  00048	83 ff ff	 cmp	 edi, -1
  0004b	7e 2a		 jle	 SHORT $LN5@DeleteArca

; 1237 : 			{
; 1238 : 				int nIndex = this->m_stMonsterGroupInfo[nGroupNumber].m_stMonsterAccountNumInfo[i].m_nIndex;
; 1239 : 				gObjDel(nIndex);

  0004d	57		 push	 edi
  0004e	e8 00 00 00 00	 call	 ?gObjDel@@YAFH@Z	; gObjDel

; 1240 : 				LogAdd("[ArcaBattle][MonsterGroupRegen] Delete Monster - %d ", nIndex);

  00053	57		 push	 edi
  00054	68 00 00 00 00	 push	 OFFSET ??_C@_0DF@FMIEONML@?$FLArcaBattle?$FN?$FLMonsterGroupRegen?$FN?5@
  00059	ff 15 00 00 00
	00		 call	 DWORD PTR ?LogAdd@@3P6AXPADZZA ; LogAdd
  0005f	83 c4 0c	 add	 esp, 12			; 0000000cH

; 1241 : 				this->m_stMonsterGroupInfo[nGroupNumber].m_stMonsterAccountNumInfo[i].m_nIndex	= -1;

  00062	c7 06 ff ff ff
	ff		 mov	 DWORD PTR [esi], -1

; 1242 : 				this->m_stMonsterGroupInfo[nGroupNumber].m_stMonsterAccountNumInfo[i].bItemDrop	= 0;

  00068	c6 46 04 00	 mov	 BYTE PTR [esi+4], 0

; 1243 : 				this->m_stMonsterGroupInfo[i].m_dwNextRegenTime = GetTickCount();

  0006c	ff 15 00 00 00
	00		 call	 DWORD PTR __imp__GetTickCount@0
  00072	89 03		 mov	 DWORD PTR [ebx], eax
  00074	8b 45 fc	 mov	 eax, DWORD PTR tv432[ebp]
$LN5@DeleteArca:

; 1230 : 		{
; 1231 : 			return;
; 1232 : 		}
; 1233 : 		// ----
; 1234 : 		for( int i = 0; i < AB_MAX_MONCOUNT; i++ )

  00077	83 c6 08	 add	 esi, 8
  0007a	81 c3 0c 08 00
	00		 add	 ebx, 2060		; 0000080cH
  00080	83 e8 01	 sub	 eax, 1
  00083	89 45 fc	 mov	 DWORD PTR tv432[ebp], eax
  00086	75 be		 jne	 SHORT $LL7@DeleteArca
  00088	8b 4d f8	 mov	 ecx, DWORD PTR _nGroupNumber$1$[ebp]
  0008b	8b 55 f4	 mov	 edx, DWORD PTR tv426[ebp]
  0008e	8b 5d f0	 mov	 ebx, DWORD PTR _this$1$[ebp]
$LN2@DeleteArca:

; 1222 : 	for( int nGroupNumber = 0; nGroupNumber < AB_MAX_MONGROUP; nGroupNumber++ )

  00091	41		 inc	 ecx
  00092	81 c2 0c 08 00
	00		 add	 edx, 2060		; 0000080cH
  00098	89 4d f8	 mov	 DWORD PTR _nGroupNumber$1$[ebp], ecx
  0009b	89 55 f4	 mov	 DWORD PTR tv426[ebp], edx
  0009e	83 f9 32	 cmp	 ecx, 50			; 00000032H
  000a1	0f 8c 79 ff ff
	ff		 jl	 $LL4@DeleteArca
$LN23@DeleteArca:
  000a7	5f		 pop	 edi
  000a8	5e		 pop	 esi
  000a9	5b		 pop	 ebx

; 1244 : 			}
; 1245 : 		}
; 1246 : 	}
; 1247 : }

  000aa	8b e5		 mov	 esp, ebp
  000ac	5d		 pop	 ebp
  000ad	c3		 ret	 0
?DeleteArcaBattleAllMonster@CArcaBattle@@QAEXXZ ENDP	; CArcaBattle::DeleteArcaBattleAllMonster
_TEXT	ENDS
; Function compile flags: /Ogtp
; File c:\users\michel\desktop\source\gameserver\source\arcabattle.cpp
;	COMDAT ?RemoveGuildBuff@CArcaBattle@@QAEXPADG@Z
_TEXT	SEGMENT
_lpGuild$1$ = -8					; size = 4
tv218 = -4						; size = 4
_szGuildName$ = 8					; size = 4
_wBuffIndex$ = 12					; size = 2
?RemoveGuildBuff@CArcaBattle@@QAEXPADG@Z PROC		; CArcaBattle::RemoveGuildBuff, COMDAT
; _this$ = ecx

; 476  : {

  00000	55		 push	 ebp
  00001	8b ec		 mov	 ebp, esp
  00003	83 ec 08	 sub	 esp, 8
  00006	53		 push	 ebx

; 477  : 	_GUILD_INFO_STRUCT * lpGuild = Guild.SearchGuild(szGuildName);

  00007	8b 5d 08	 mov	 ebx, DWORD PTR _szGuildName$[ebp]
  0000a	b9 00 00 00 00	 mov	 ecx, OFFSET ?Guild@@3VCGuildClass@@A ; Guild
  0000f	53		 push	 ebx
  00010	e8 00 00 00 00	 call	 ?SearchGuild@CGuildClass@@QAEPAU_GUILD_INFO_STRUCT@@PAD@Z ; CGuildClass::SearchGuild
  00015	89 45 f8	 mov	 DWORD PTR _lpGuild$1$[ebp], eax

; 478  : 	// ----
; 479  : 	if( lpGuild == NULL )

  00018	85 c0		 test	 eax, eax
  0001a	75 16		 jne	 SHORT $LN5@RemoveGuil

; 480  : 	{
; 481  : 		LogAddTD("[ArcaBattle] Error Can Not Find Guild RemoveGuildBuff() lpGuild NULL GuildName : %s", szGuildName);

  0001c	53		 push	 ebx
  0001d	68 00 00 00 00	 push	 OFFSET ??_C@_0FE@CNKNKAAD@?$FLArcaBattle?$FN?5Error?5Can?5Not?5Find?5@
  00022	ff 15 00 00 00
	00		 call	 DWORD PTR ?LogAddTD@@3P6AXPADZZA ; LogAddTD
  00028	83 c4 08	 add	 esp, 8
  0002b	5b		 pop	 ebx

; 494  : 				gObj[iIndex].AccountID, gObj[iIndex].Name, gObj[iIndex].GuildName, szGuildName, wBuffIndex);
; 495  : 		}
; 496  : 	}
; 497  : }

  0002c	8b e5		 mov	 esp, ebp
  0002e	5d		 pop	 ebp
  0002f	c2 08 00	 ret	 8
$LN5@RemoveGuil:
  00032	56		 push	 esi

; 482  : 		return;
; 483  : 	}
; 484  : 	// ----
; 485  : 	for( int nGuildCnt = 0; nGuildCnt < lpGuild->Count; nGuildCnt++ )

  00033	33 f6		 xor	 esi, esi
  00035	80 78 2d 00	 cmp	 BYTE PTR [eax+45], 0
  00039	0f 86 95 00 00
	00		 jbe	 $LN12@RemoveGuil
  0003f	57		 push	 edi
  00040	8d b8 a0 03 00
	00		 lea	 edi, DWORD PTR [eax+928]
$LL4@RemoveGuil:

; 486  :     {
; 487  : 		int iIndex = lpGuild->Index[nGuildCnt];

  00046	0f bf 1f	 movsx	 ebx, WORD PTR [edi]

; 488  : 		// ----
; 489  : 		if( gObjIsConnected(iIndex) == 1 && gObjCheckUsedBuffEffect(&gObj[iIndex], wBuffIndex) == true )

  00049	53		 push	 ebx
  0004a	e8 00 00 00 00	 call	 ?gObjIsConnected@@YAHH@Z ; gObjIsConnected
  0004f	83 c4 04	 add	 esp, 4
  00052	83 f8 01	 cmp	 eax, 1
  00055	75 69		 jne	 SHORT $LN2@RemoveGuil
  00057	0f b7 45 0c	 movzx	 eax, WORD PTR _wBuffIndex$[ebp]
  0005b	69 cb 40 27 00
	00		 imul	 ecx, ebx, 10048
  00061	50		 push	 eax
  00062	a1 00 00 00 00	 mov	 eax, DWORD PTR ?gObj@@3PAUOBJECTSTRUCT@@A ; gObj
  00067	03 c1		 add	 eax, ecx
  00069	89 4d fc	 mov	 DWORD PTR tv218[ebp], ecx
  0006c	50		 push	 eax
  0006d	e8 00 00 00 00	 call	 ?gObjCheckUsedBuffEffect@@YA_NPAUOBJECTSTRUCT@@H@Z ; gObjCheckUsedBuffEffect
  00072	83 c4 08	 add	 esp, 8
  00075	3c 01		 cmp	 al, 1
  00077	75 47		 jne	 SHORT $LN2@RemoveGuil

; 490  : 		{
; 491  : 			gObjRemoveBuffEffect(&gObj[iIndex], wBuffIndex);

  00079	0f b7 45 0c	 movzx	 eax, WORD PTR _wBuffIndex$[ebp]
  0007d	50		 push	 eax
  0007e	a1 00 00 00 00	 mov	 eax, DWORD PTR ?gObj@@3PAUOBJECTSTRUCT@@A ; gObj
  00083	03 45 fc	 add	 eax, DWORD PTR tv218[ebp]
  00086	50		 push	 eax
  00087	e8 00 00 00 00	 call	 ?gObjRemoveBuffEffect@@YA_NPAUOBJECTSTRUCT@@H@Z ; gObjRemoveBuffEffect

; 492  : 			gObjCalCharacter(iIndex);

  0008c	53		 push	 ebx
  0008d	e8 00 00 00 00	 call	 ?gObjCalCharacter@@YAXH@Z ; gObjCalCharacter

; 493  : 			LogAddTD("[ArcaBattle] Remove Buff [%s][%s][%s] GuildName [%s] BuffIndex [%d]",

  00092	8b 4d fc	 mov	 ecx, DWORD PTR tv218[ebp]
  00095	03 0d 00 00 00
	00		 add	 ecx, DWORD PTR ?gObj@@3PAUOBJECTSTRUCT@@A ; gObj
  0009b	0f b7 45 0c	 movzx	 eax, WORD PTR _wBuffIndex$[ebp]
  0009f	50		 push	 eax
  000a0	ff 75 08	 push	 DWORD PTR _szGuildName$[ebp]
  000a3	8d 81 1c 06 00
	00		 lea	 eax, DWORD PTR [ecx+1564]
  000a9	50		 push	 eax
  000aa	8d 41 5d	 lea	 eax, DWORD PTR [ecx+93]
  000ad	50		 push	 eax
  000ae	8d 41 52	 lea	 eax, DWORD PTR [ecx+82]
  000b1	50		 push	 eax
  000b2	68 00 00 00 00	 push	 OFFSET ??_C@_0EE@HABGEPCF@?$FLArcaBattle?$FN?5Remove?5Buff?5?$FL?$CFs?$FN?$FL?$CFs@
  000b7	ff 15 00 00 00
	00		 call	 DWORD PTR ?LogAddTD@@3P6AXPADZZA ; LogAddTD
  000bd	83 c4 24	 add	 esp, 36			; 00000024H
$LN2@RemoveGuil:

; 482  : 		return;
; 483  : 	}
; 484  : 	// ----
; 485  : 	for( int nGuildCnt = 0; nGuildCnt < lpGuild->Count; nGuildCnt++ )

  000c0	8b 45 f8	 mov	 eax, DWORD PTR _lpGuild$1$[ebp]
  000c3	46		 inc	 esi
  000c4	83 c7 02	 add	 edi, 2
  000c7	0f b6 40 2d	 movzx	 eax, BYTE PTR [eax+45]
  000cb	3b f0		 cmp	 esi, eax
  000cd	0f 8c 73 ff ff
	ff		 jl	 $LL4@RemoveGuil
  000d3	5f		 pop	 edi
$LN12@RemoveGuil:
  000d4	5e		 pop	 esi
  000d5	5b		 pop	 ebx

; 494  : 				gObj[iIndex].AccountID, gObj[iIndex].Name, gObj[iIndex].GuildName, szGuildName, wBuffIndex);
; 495  : 		}
; 496  : 	}
; 497  : }

  000d6	8b e5		 mov	 esp, ebp
  000d8	5d		 pop	 ebp
  000d9	c2 08 00	 ret	 8
?RemoveGuildBuff@CArcaBattle@@QAEXPADG@Z ENDP		; CArcaBattle::RemoveGuildBuff
_TEXT	ENDS
; Function compile flags: /Ogtp
; File c:\users\michel\desktop\source\gameserver\source\arcabattle.cpp
; File c:\users\michel\desktop\source\gameserver\source\arcabattle.h
; File c:\users\michel\desktop\source\gameserver\source\arcabattle.cpp
; File c:\users\michel\desktop\source\gameserver\source\arcabattle.h
; File c:\users\michel\desktop\source\gameserver\source\arcabattle.cpp
; File c:\users\michel\desktop\source\gameserver\source\arcabattle.h
; File c:\users\michel\desktop\source\gameserver\source\arcabattle.cpp
;	COMDAT ?DGAnsRemoveAllRewardBuff@CArcaBattle@@QAEXXZ
_TEXT	SEGMENT
_this$1$ = -8						; size = 4
_i$1$ = -4						; size = 4
?DGAnsRemoveAllRewardBuff@CArcaBattle@@QAEXXZ PROC	; CArcaBattle::DGAnsRemoveAllRewardBuff, COMDAT
; _this$ = ecx

; 461  : {

  00000	55		 push	 ebp
  00001	8b ec		 mov	 ebp, esp
  00003	83 ec 08	 sub	 esp, 8

; 464  : 	for( int i = 0; i < this->m_iWinGuildCnt; i++ )

  00006	83 b9 10 34 00
	00 00		 cmp	 DWORD PTR [ecx+13328], 0
  0000d	89 4d f8	 mov	 DWORD PTR _this$1$[ebp], ecx
  00010	c7 45 fc 00 00
	00 00		 mov	 DWORD PTR _i$1$[ebp], 0
  00017	7e 61		 jle	 SHORT $LN3@DGAnsRemov
  00019	53		 push	 ebx
  0001a	56		 push	 esi
  0001b	57		 push	 edi
  0001c	8d b1 bc 33 00
	00		 lea	 esi, DWORD PTR [ecx+13244]
$LL4@DGAnsRemov:

; 465  : 	{
; 466  : 		wBuffIndex = this->GetObeliskAttrToRewardBuffIndex(this->m_stABWinGuildInfo[i].wOccupyObelisk);

  00022	0f b7 06	 movzx	 eax, WORD PTR [esi]
  00025	50		 push	 eax
  00026	e8 00 00 00 00	 call	 ?GetObeliskAttrToRewardBuffIndex@CArcaBattle@@QAEGH@Z ; CArcaBattle::GetObeliskAttrToRewardBuffIndex

; 467  : 		this->RemoveGuildBuff(this->m_stABWinGuildInfo[i].szGuildName, wBuffIndex);

  0002b	8b 4d f8	 mov	 ecx, DWORD PTR _this$1$[ebp]
  0002e	8d 5e f0	 lea	 ebx, DWORD PTR [esi-16]
  00031	0f b7 f8	 movzx	 edi, ax
  00034	57		 push	 edi
  00035	53		 push	 ebx
  00036	e8 00 00 00 00	 call	 ?RemoveGuildBuff@CArcaBattle@@QAEXPADG@Z ; CArcaBattle::RemoveGuildBuff

; 468  : 		LogAddTD("[ArcaBattle] Remove All Reward Guild Buff GuildName[%s] BuffIndex[%d]", this->m_stABWinGuildInfo[i].szGuildName, wBuffIndex);

  0003b	57		 push	 edi
  0003c	53		 push	 ebx
  0003d	68 00 00 00 00	 push	 OFFSET ??_C@_0EG@IPBMLHEM@?$FLArcaBattle?$FN?5Remove?5All?5Reward?5G@
  00042	ff 15 00 00 00
	00		 call	 DWORD PTR ?LogAddTD@@3P6AXPADZZA ; LogAddTD
  00048	8b 4d f8	 mov	 ecx, DWORD PTR _this$1$[ebp]
  0004b	8d 76 14	 lea	 esi, DWORD PTR [esi+20]
; File c:\users\michel\desktop\source\gameserver\source\arcabattle.h

; 137  : 		this->wOccupyObelisk	= 0;

  0004e	33 c0		 xor	 eax, eax
  00050	0f 57 c0	 xorps	 xmm0, xmm0

; 135  : 		memset(this->szGuildName, 0, 9);

  00053	66 0f d6 03	 movq	 QWORD PTR [ebx], xmm0
; File c:\users\michel\desktop\source\gameserver\source\arcabattle.cpp

; 468  : 		LogAddTD("[ArcaBattle] Remove All Reward Guild Buff GuildName[%s] BuffIndex[%d]", this->m_stABWinGuildInfo[i].szGuildName, wBuffIndex);

  00057	83 c4 0c	 add	 esp, 12			; 0000000cH
; File c:\users\michel\desktop\source\gameserver\source\arcabattle.h

; 135  : 		memset(this->szGuildName, 0, 9);

  0005a	c6 43 08 00	 mov	 BYTE PTR [ebx+8], 0

; 137  : 		this->wOccupyObelisk	= 0;

  0005e	89 46 ec	 mov	 DWORD PTR [esi-20], eax
; File c:\users\michel\desktop\source\gameserver\source\arcabattle.cpp

; 464  : 	for( int i = 0; i < this->m_iWinGuildCnt; i++ )

  00061	8b 45 fc	 mov	 eax, DWORD PTR _i$1$[ebp]
  00064	40		 inc	 eax
; File c:\users\michel\desktop\source\gameserver\source\arcabattle.h

; 136  : 		this->dwGuild			= 0;

  00065	c7 46 e8 00 00
	00 00		 mov	 DWORD PTR [esi-24], 0
; File c:\users\michel\desktop\source\gameserver\source\arcabattle.cpp

; 464  : 	for( int i = 0; i < this->m_iWinGuildCnt; i++ )

  0006c	89 45 fc	 mov	 DWORD PTR _i$1$[ebp], eax
  0006f	3b 81 10 34 00
	00		 cmp	 eax, DWORD PTR [ecx+13328]
  00075	7c ab		 jl	 SHORT $LL4@DGAnsRemov
  00077	5f		 pop	 edi
  00078	5e		 pop	 esi
  00079	5b		 pop	 ebx
$LN3@DGAnsRemov:

; 469  : 		this->m_stABWinGuildInfo[i].Clear();
; 470  : 	}
; 471  : }

  0007a	8b e5		 mov	 esp, ebp
  0007c	5d		 pop	 ebp
  0007d	c3		 ret	 0
?DGAnsRemoveAllRewardBuff@CArcaBattle@@QAEXXZ ENDP	; CArcaBattle::DGAnsRemoveAllRewardBuff
_TEXT	ENDS
; Function compile flags: /Ogtp
; File c:\users\michel\desktop\source\gameserver\source\arcabattle.cpp
; File c:\users\michel\desktop\source\gameserver\source\mapservermanager.h
; File c:\users\michel\desktop\source\gameserver\source\arcabattle.cpp
; File c:\users\michel\desktop\source\gameserver\source\mapservermanager.h
; File c:\users\michel\desktop\source\gameserver\source\arcabattle.cpp
;	COMDAT ?ReqRemoveRewardBuffWinningGuild@CArcaBattle@@QAEXXZ
_TEXT	SEGMENT
_pMsg$ = -8						; size = 6
?ReqRemoveRewardBuffWinningGuild@CArcaBattle@@QAEXXZ PROC ; CArcaBattle::ReqRemoveRewardBuffWinningGuild, COMDAT
; _this$ = ecx

; 407  : {

  00000	55		 push	 ebp
  00001	8b ec		 mov	 ebp, esp
  00003	83 ec 08	 sub	 esp, 8

; 410  : 	LogAddTD("[ArcaBAttle] Request ExDB Delete All Reward Guild Buff");

  00006	68 00 00 00 00	 push	 OFFSET ??_C@_0DH@PIJJJHJH@?$FLArcaBAttle?$FN?5Request?5ExDB?5Delete@
  0000b	ff 15 00 00 00
	00		 call	 DWORD PTR ?LogAddTD@@3P6AXPADZZA ; LogAddTD
; File c:\users\michel\desktop\source\gameserver\source\mapservermanager.h

; 55   : 		if ( this->m_lpThisMapSvrData != NULL )

  00011	a1 f8 6a 01 00	 mov	 eax, DWORD PTR ?g_MapServerManager@@3VCMapServerManager@@A+92920
; File c:\users\michel\desktop\source\gameserver\source\arcabattle.cpp

; 410  : 	LogAddTD("[ArcaBAttle] Request ExDB Delete All Reward Guild Buff");

  00016	83 c4 04	 add	 esp, 4

; 411  : 	// ----
; 412  : 	_tagPMSG_REQ_REMOVE_ALL_GUILD_BUFF_DS pMsg;
; 413  : 	// ----
; 414  : 	pMsg.h.c		= 0xC1;

  00019	c7 45 f8 c1 06
	f8 47		 mov	 DWORD PTR _pMsg$[ebp], 1207436993 ; 47f806c1H
; File c:\users\michel\desktop\source\gameserver\source\mapservermanager.h

; 55   : 		if ( this->m_lpThisMapSvrData != NULL )

  00020	85 c0		 test	 eax, eax
  00022	74 06		 je	 SHORT $LN4@ReqRemoveR

; 56   : 		{
; 57   : 			return m_lpThisMapSvrData->m_btMAPSVR_GROUP;

  00024	0f b6 40 08	 movzx	 eax, BYTE PTR [eax+8]
  00028	eb 03		 jmp	 SHORT $LN3@ReqRemoveR
$LN4@ReqRemoveR:

; 58   : 		}
; 59   : 		return -1;

  0002a	83 c8 ff	 or	 eax, -1
$LN3@ReqRemoveR:
; File c:\users\michel\desktop\source\gameserver\source\arcabattle.cpp

; 418  : 	pMsg.wMapSvrNum = g_MapServerManager.GetMapSvrGroup();

  0002d	66 89 45 fc	 mov	 WORD PTR _pMsg$[ebp+4], ax

; 419  : 	// ----
; 420  : 	cDBSMng.Send((PCHAR)&pMsg, sizeof(_tagPMSG_REQ_REMOVE_ALL_GUILD_BUFF_DS));

  00031	b9 00 00 00 00	 mov	 ecx, OFFSET ?cDBSMng@@3VDBSockMng@@A ; cDBSMng
  00036	6a 06		 push	 6
  00038	8d 45 f8	 lea	 eax, DWORD PTR _pMsg$[ebp]
  0003b	50		 push	 eax
  0003c	e8 00 00 00 00	 call	 ?Send@DBSockMng@@QAEHPADH@Z ; DBSockMng::Send

; 421  : 	LogAddTD("[ArcaBAttle] Request MultiCast Remove All Reward Guild Buff");

  00041	68 00 00 00 00	 push	 OFFSET ??_C@_0DM@GNFLODJA@?$FLArcaBAttle?$FN?5Request?5MultiCast?5R@
  00046	ff 15 00 00 00
	00		 call	 DWORD PTR ?LogAddTD@@3P6AXPADZZA ; LogAddTD
  0004c	83 c4 04	 add	 esp, 4

; 422  : }

  0004f	8b e5		 mov	 esp, ebp
  00051	5d		 pop	 ebp
  00052	c3		 ret	 0
?ReqRemoveRewardBuffWinningGuild@CArcaBattle@@QAEXXZ ENDP ; CArcaBattle::ReqRemoveRewardBuffWinningGuild
_TEXT	ENDS
; Function compile flags: /Ogtp
; File c:\users\michel\desktop\source\gameserver\source\arcabattle.cpp
;	COMDAT ?GiveRewardBuffWinningGuild@CArcaBattle@@QAEXXZ
_TEXT	SEGMENT
_wBuffIndex$1$ = -12					; size = 4
_this$1$ = -8						; size = 4
tv319 = -4						; size = 4
?GiveRewardBuffWinningGuild@CArcaBattle@@QAEXXZ PROC	; CArcaBattle::GiveRewardBuffWinningGuild, COMDAT
; _this$ = ecx

; 348  : {

  00000	55		 push	 ebp
  00001	8b ec		 mov	 ebp, esp
  00003	83 ec 0c	 sub	 esp, 12			; 0000000cH
  00006	53		 push	 ebx
  00007	56		 push	 esi

; 349  : 	WORD wBuffIndex = 0;
; 350  : 	int iGuildCnt	= 0;
; 351  : 	// ----
; 352  : 	for( int i = 0; i < AB_MAX_BATTLEPOS; i++ )

  00008	b8 05 00 00 00	 mov	 eax, 5
  0000d	89 4d f8	 mov	 DWORD PTR _this$1$[ebp], ecx
  00010	57		 push	 edi
  00011	8d b1 a8 31 00
	00		 lea	 esi, DWORD PTR [ecx+12712]
  00017	89 45 fc	 mov	 DWORD PTR tv319[ebp], eax
  0001a	8d b9 dc 2f 00
	00		 lea	 edi, DWORD PTR [ecx+12252]
$LL4@GiveReward:

; 353  : 	{
; 354  : 		if( this->m_stObeliskState[i].m_iObeliskState == AB_OBSTATE_OCCUPY )

  00020	83 7e f8 01	 cmp	 DWORD PTR [esi-8], 1
  00024	75 63		 jne	 SHORT $LN2@GiveReward

; 355  : 		{
; 356  : 			wBuffIndex = this->GetObeliskAttrToRewardBuffIndex(this->m_stObeliskInfo[i].m_iAttrKind);

  00026	8b 1f		 mov	 ebx, DWORD PTR [edi]
  00028	53		 push	 ebx
  00029	e8 00 00 00 00	 call	 ?GetObeliskAttrToRewardBuffIndex@CArcaBattle@@QAEGH@Z ; CArcaBattle::GetObeliskAttrToRewardBuffIndex
  0002e	0f b7 c0	 movzx	 eax, ax
  00031	89 45 f4	 mov	 DWORD PTR _wBuffIndex$1$[ebp], eax

; 357  : 			// ----
; 358  : 			if( wBuffIndex == 0 )

  00034	66 85 c0	 test	 ax, ax
  00037	75 0f		 jne	 SHORT $LN6@GiveReward

; 359  : 			{
; 360  : 				LogAddTD("[ArcaBattle] Error Obelisk Attribute %d", this->m_stObeliskInfo[i].m_iAttrKind);

  00039	53		 push	 ebx
  0003a	68 00 00 00 00	 push	 OFFSET ??_C@_0CI@ELBEEKCP@?$FLArcaBattle?$FN?5Error?5Obelisk?5Attri@
  0003f	ff 15 00 00 00
	00		 call	 DWORD PTR ?LogAddTD@@3P6AXPADZZA ; LogAddTD
  00045	83 c4 08	 add	 esp, 8
$LN6@GiveReward:

; 361  : 			}
; 362  : 			// ----
; 363  : 			_GUILD_INFO_STRUCT * lpGuild = Guild.SearchGuild(this->m_stObeliskState[i].m_szOccupyGuildName);

  00048	56		 push	 esi
  00049	b9 00 00 00 00	 mov	 ecx, OFFSET ?Guild@@3VCGuildClass@@A ; Guild
  0004e	e8 00 00 00 00	 call	 ?SearchGuild@CGuildClass@@QAEPAU_GUILD_INFO_STRUCT@@PAD@Z ; CGuildClass::SearchGuild

; 364  : 			// ----
; 365  : 			if( lpGuild == NULL )

  00053	85 c0		 test	 eax, eax
  00055	75 16		 jne	 SHORT $LN7@GiveReward

; 366  : 			{
; 367  : 				LogAddTD("[ArcaBattle][Error] GiveRewardBuffWinningGuild() GuildInfo is NULL GuildName : %s ObeliskAttr : %d ObeliskGroup %d",

  00057	ff 77 fc	 push	 DWORD PTR [edi-4]
  0005a	ff 37		 push	 DWORD PTR [edi]
  0005c	56		 push	 esi
  0005d	68 00 00 00 00	 push	 OFFSET ??_C@_0HD@PLPAMELL@?$FLArcaBattle?$FN?$FLError?$FN?5GiveRewardBu@
  00062	ff 15 00 00 00
	00		 call	 DWORD PTR ?LogAddTD@@3P6AXPADZZA ; LogAddTD
  00068	83 c4 10	 add	 esp, 16			; 00000010H

; 368  : 					this->m_stObeliskState[i].m_szOccupyGuildName, this->m_stObeliskInfo[i].m_iAttrKind, this->m_stObeliskInfo[i].m_iGroupNumber);
; 369  : 				continue;

  0006b	eb 16		 jmp	 SHORT $LN13@GiveReward
$LN7@GiveReward:

; 370  : 			}
; 371  : 			// ----
; 372  : //			_tagPeriodBuffInfo BuffInfo;
; 373  : 			int iDuration = AB_REW_BUFF_TIME;
; 374  : 			// ----
; 375  : //			BuffInfo.btEffectType1	= 0;
; 376  : //			BuffInfo.btEffectType2	= 0;
; 377  : //			BuffInfo.wBuffIndex		= wBuffIndex;
; 378  : //			BuffInfo.lDuration		= iDuration;
; 379  : 			// ----
; 380  : //			g_BuffEffect.RequestGuildPeriodBuffInsert(this->m_stObeliskState[i].m_szOccupyGuildName, &BuffInfo); //New function in BuffEffect
; 381  : 			LogAddTD("[ArcaBattle] Reward GuildBuff GuildName[%s] BuffIndex[%d]", this->m_stObeliskState[i].m_szOccupyGuildName, wBuffIndex);

  0006d	8b 45 f4	 mov	 eax, DWORD PTR _wBuffIndex$1$[ebp]
  00070	0f b7 c0	 movzx	 eax, ax
  00073	50		 push	 eax
  00074	56		 push	 esi
  00075	68 00 00 00 00	 push	 OFFSET ??_C@_0DK@DCBBIPPH@?$FLArcaBattle?$FN?5Reward?5GuildBuff?5Gu@
  0007a	ff 15 00 00 00
	00		 call	 DWORD PTR ?LogAddTD@@3P6AXPADZZA ; LogAddTD
  00080	83 c4 0c	 add	 esp, 12			; 0000000cH
$LN13@GiveReward:
  00083	8b 4d f8	 mov	 ecx, DWORD PTR _this$1$[ebp]
  00086	8b 45 fc	 mov	 eax, DWORD PTR tv319[ebp]
$LN2@GiveReward:

; 349  : 	WORD wBuffIndex = 0;
; 350  : 	int iGuildCnt	= 0;
; 351  : 	// ----
; 352  : 	for( int i = 0; i < AB_MAX_BATTLEPOS; i++ )

  00089	83 c7 58	 add	 edi, 88			; 00000058H
  0008c	83 c6 54	 add	 esi, 84			; 00000054H
  0008f	83 e8 01	 sub	 eax, 1
  00092	89 45 fc	 mov	 DWORD PTR tv319[ebp], eax
  00095	75 89		 jne	 SHORT $LL4@GiveReward
  00097	5f		 pop	 edi
  00098	5e		 pop	 esi
  00099	5b		 pop	 ebx

; 382  : 		}
; 383  : 	}
; 384  : }

  0009a	8b e5		 mov	 esp, ebp
  0009c	5d		 pop	 ebp
  0009d	c3		 ret	 0
?GiveRewardBuffWinningGuild@CArcaBattle@@QAEXXZ ENDP	; CArcaBattle::GiveRewardBuffWinningGuild
_TEXT	ENDS
; Function compile flags: /Ogtp
; File c:\users\michel\desktop\source\gameserver\source\arcabattle.cpp
;	COMDAT ?GDReqDeleteArcaBattleInfo@CArcaBattle@@QAEXXZ
_TEXT	SEGMENT
_pMsg$ = -4						; size = 4
?GDReqDeleteArcaBattleInfo@CArcaBattle@@QAEXXZ PROC	; CArcaBattle::GDReqDeleteArcaBattleInfo, COMDAT
; _this$ = ecx

; 2671 : {

  00000	55		 push	 ebp
  00001	8b ec		 mov	 ebp, esp
  00003	51		 push	 ecx

; 2672 : 	_tagPMSG_REQ_ARCA_BATTLE_INFO_DS pMsg;
; 2673 : 	// ----
; 2674 : 	pMsg.h.c		= 0xC1;
; 2675 : 	pMsg.h.size		= sizeof(_tagPMSG_REQ_ARCA_BATTLE_INFO_DS);
; 2676 : 	pMsg.h.headcode = 0xF8;
; 2677 : 	pMsg.h.subcode	= 0x3D;
; 2678 : 	// ----
; 2679 : 	cDBSMng.Send((PCHAR)&pMsg, pMsg.h.size);

  00004	6a 04		 push	 4
  00006	8d 45 fc	 lea	 eax, DWORD PTR _pMsg$[ebp]
  00009	c7 45 fc c1 04
	f8 3d		 mov	 DWORD PTR _pMsg$[ebp], 1039664321 ; 3df804c1H
  00010	50		 push	 eax
  00011	b9 00 00 00 00	 mov	 ecx, OFFSET ?cDBSMng@@3VDBSockMng@@A ; cDBSMng
  00016	e8 00 00 00 00	 call	 ?Send@DBSockMng@@QAEHPADH@Z ; DBSockMng::Send

; 2680 : }

  0001b	8b e5		 mov	 esp, ebp
  0001d	5d		 pop	 ebp
  0001e	c3		 ret	 0
?GDReqDeleteArcaBattleInfo@CArcaBattle@@QAEXXZ ENDP	; CArcaBattle::GDReqDeleteArcaBattleInfo
_TEXT	ENDS
; Function compile flags: /Ogtp
; File c:\users\michel\desktop\source\gameserver\source\arcabattle.cpp
; File c:\users\michel\desktop\source\gameserver\source\mapservermanager.h
; File c:\users\michel\desktop\source\gameserver\source\arcabattle.cpp
; File c:\users\michel\desktop\source\gameserver\source\mapservermanager.h
; File c:\users\michel\desktop\source\gameserver\source\arcabattle.cpp
;	COMDAT ?GDReqWinGuildInfoInsert@CArcaBattle@@QAEXXZ
_TEXT	SEGMENT
tv492 = -128						; size = 4
tv495 = -124						; size = 4
tv496 = -120						; size = 4
_iGuildCnt$1$ = -116					; size = 4
_pMsg$ = -112						; size = 108
__$ArrayPad$ = -4					; size = 4
?GDReqWinGuildInfoInsert@CArcaBattle@@QAEXXZ PROC	; CArcaBattle::GDReqWinGuildInfoInsert, COMDAT
; _this$ = ecx

; 2031 : {

  00000	55		 push	 ebp
  00001	8b ec		 mov	 ebp, esp
  00003	81 ec 80 00 00
	00		 sub	 esp, 128		; 00000080H
  00009	a1 00 00 00 00	 mov	 eax, DWORD PTR ___security_cookie
  0000e	33 c5		 xor	 eax, ebp
  00010	89 45 fc	 mov	 DWORD PTR __$ArrayPad$[ebp], eax
  00013	53		 push	 ebx
  00014	56		 push	 esi
  00015	8b f1		 mov	 esi, ecx

; 2032 : 	_tagPMSG_REQ_AB_WIN_GUILD_INFO_INSERT_DS pMsg;

  00017	8d 4d 90	 lea	 ecx, DWORD PTR _pMsg$[ebp]
  0001a	e8 00 00 00 00	 call	 ??0_tagPMSG_REQ_AB_WIN_GUILD_INFO_INSERT_DS@@QAE@XZ ; _tagPMSG_REQ_AB_WIN_GUILD_INFO_INSERT_DS::_tagPMSG_REQ_AB_WIN_GUILD_INFO_INSERT_DS

; 2033 : 	int iGuildCnt = 0;

  0001f	33 db		 xor	 ebx, ebx
  00021	8d 86 dc 2f 00
	00		 lea	 eax, DWORD PTR [esi+12252]
  00027	8d 55 a8	 lea	 edx, DWORD PTR _pMsg$[ebp+24]
  0002a	89 5d 8c	 mov	 DWORD PTR _iGuildCnt$1$[ebp], ebx
  0002d	b9 05 00 00 00	 mov	 ecx, 5
  00032	89 55 88	 mov	 DWORD PTR tv496[ebp], edx
  00035	89 45 84	 mov	 DWORD PTR tv495[ebp], eax
  00038	81 c6 a4 31 00
	00		 add	 esi, 12708		; 000031a4H
  0003e	89 4d 80	 mov	 DWORD PTR tv492[ebp], ecx
  00041	57		 push	 edi
$LL4@GDReqWinGu:

; 2036 : 	{
; 2037 : 		if( this->m_stObeliskState[i].m_iObeliskState == AB_OBSTATE_OCCUPY )

  00042	83 7e fc 01	 cmp	 DWORD PTR [esi-4], 1
  00046	75 54		 jne	 SHORT $LN2@GDReqWinGu

; 2038 : 		{
; 2039 : 			pMsg.h.c		= 0xC1;
; 2040 : 			pMsg.h.size		= sizeof(_tagPMSG_REQ_AB_WIN_GUILD_INFO_INSERT_DS);
; 2041 : 			pMsg.h.headcode = 0xF8;
; 2042 : 			pMsg.h.subcode	= 0x38;
; 2043 : 			// ----
; 2044 : 			pMsg.m_stABWinGuildInfoDS[iGuildCnt].dwGuild		= this->m_stObeliskState[i].m_iOccupyGuildNum;
; 2045 : 			pMsg.m_stABWinGuildInfoDS[iGuildCnt].wOccupyObelisk = (WORD)this->m_stObeliskInfo[i].m_iAttrKind;
; 2046 : 			pMsg.m_stABWinGuildInfoDS[iGuildCnt].wObeliskGroup	= (WORD)this->m_stObeliskState[i].m_iGroupNumber;

  00048	0f b7 4e ec	 movzx	 ecx, WORD PTR [esi-20]
  0004c	0f b7 38	 movzx	 edi, WORD PTR [eax]
  0004f	8b 1e		 mov	 ebx, DWORD PTR [esi]

; 2047 : 			memcpy(pMsg.m_stABWinGuildInfoDS[iGuildCnt].szGuildName, this->m_stObeliskState[i].m_szOccupyGuildName, 9);

  00051	f3 0f 7e 46 04	 movq	 xmm0, QWORD PTR [esi+4]
  00056	8a 46 0c	 mov	 al, BYTE PTR [esi+12]
  00059	c7 45 90 c1 6c
	f8 38		 mov	 DWORD PTR _pMsg$[ebp], 955804865 ; 38f86cc1H

; 2048 : 			// ----
; 2049 : 			LogAddTD("[ArcaBattle] Request Win Guild Info Insert GuildName : %s(%d) OccupyObelisk : %d ObeliskGroup : %d",

  00060	51		 push	 ecx
  00061	57		 push	 edi
  00062	89 5a fc	 mov	 DWORD PTR [edx-4], ebx
  00065	66 89 3a	 mov	 WORD PTR [edx], di
  00068	66 89 4a 02	 mov	 WORD PTR [edx+2], cx
  0006c	83 c2 f0	 add	 edx, -16		; fffffff0H
  0006f	53		 push	 ebx
  00070	52		 push	 edx
  00071	68 00 00 00 00	 push	 OFFSET ??_C@_0GD@DJBGMIIN@?$FLArcaBattle?$FN?5Request?5Win?5Guild?5I@
  00076	66 0f d6 02	 movq	 QWORD PTR [edx], xmm0
  0007a	88 42 08	 mov	 BYTE PTR [edx+8], al
  0007d	ff 15 00 00 00
	00		 call	 DWORD PTR ?LogAddTD@@3P6AXPADZZA ; LogAddTD

; 2050 : 				pMsg.m_stABWinGuildInfoDS[iGuildCnt].szGuildName, pMsg.m_stABWinGuildInfoDS[iGuildCnt].dwGuild,
; 2051 : 				pMsg.m_stABWinGuildInfoDS[iGuildCnt].wOccupyObelisk, pMsg.m_stABWinGuildInfoDS[iGuildCnt].wObeliskGroup);
; 2052 : 			iGuildCnt++;

  00083	8b 5d 8c	 mov	 ebx, DWORD PTR _iGuildCnt$1$[ebp]
  00086	83 c4 14	 add	 esp, 20			; 00000014H
  00089	8b 55 88	 mov	 edx, DWORD PTR tv496[ebp]
  0008c	43		 inc	 ebx
  0008d	8b 45 84	 mov	 eax, DWORD PTR tv495[ebp]
  00090	83 c2 14	 add	 edx, 20			; 00000014H
  00093	8b 4d 80	 mov	 ecx, DWORD PTR tv492[ebp]
  00096	89 5d 8c	 mov	 DWORD PTR _iGuildCnt$1$[ebp], ebx
  00099	89 55 88	 mov	 DWORD PTR tv496[ebp], edx
$LN2@GDReqWinGu:

; 2034 : 	// ----
; 2035 : 	for( int i = 0; i < AB_MAX_BATTLEPOS; i++ )

  0009c	83 c0 58	 add	 eax, 88			; 00000058H
  0009f	83 c6 54	 add	 esi, 84			; 00000054H
  000a2	83 e9 01	 sub	 ecx, 1
  000a5	89 45 84	 mov	 DWORD PTR tv495[ebp], eax
  000a8	89 4d 80	 mov	 DWORD PTR tv492[ebp], ecx
  000ab	75 95		 jne	 SHORT $LL4@GDReqWinGu

; 2053 : 		}
; 2054 : 	}
; 2055 : 	// ----
; 2056 : 	if( iGuildCnt > 0 )

  000ad	5f		 pop	 edi
  000ae	85 db		 test	 ebx, ebx
  000b0	7e 2c		 jle	 SHORT $LN6@GDReqWinGu
; File c:\users\michel\desktop\source\gameserver\source\mapservermanager.h

; 55   : 		if ( this->m_lpThisMapSvrData != NULL )

  000b2	a1 f8 6a 01 00	 mov	 eax, DWORD PTR ?g_MapServerManager@@3VCMapServerManager@@A+92920
; File c:\users\michel\desktop\source\gameserver\source\arcabattle.cpp

; 2058 : 		pMsg.btGuildCnt = iGuildCnt;

  000b7	88 5d 94	 mov	 BYTE PTR _pMsg$[ebp+4], bl
; File c:\users\michel\desktop\source\gameserver\source\mapservermanager.h

; 55   : 		if ( this->m_lpThisMapSvrData != NULL )

  000ba	85 c0		 test	 eax, eax
  000bc	74 06		 je	 SHORT $LN9@GDReqWinGu

; 56   : 		{
; 57   : 			return m_lpThisMapSvrData->m_btMAPSVR_GROUP;

  000be	0f b6 40 08	 movzx	 eax, BYTE PTR [eax+8]
  000c2	eb 03		 jmp	 SHORT $LN8@GDReqWinGu
$LN9@GDReqWinGu:

; 58   : 		}
; 59   : 		return -1;

  000c4	83 c8 ff	 or	 eax, -1
$LN8@GDReqWinGu:
; File c:\users\michel\desktop\source\gameserver\source\arcabattle.cpp

; 2059 : 		pMsg.wMapSvrNum = g_MapServerManager.GetMapSvrGroup();

  000c7	66 89 45 96	 mov	 WORD PTR _pMsg$[ebp+6], ax

; 2060 : 		cDBSMng.Send((PCHAR)&pMsg, pMsg.h.size);

  000cb	b9 00 00 00 00	 mov	 ecx, OFFSET ?cDBSMng@@3VDBSockMng@@A ; cDBSMng
  000d0	0f b6 45 91	 movzx	 eax, BYTE PTR _pMsg$[ebp+1]
  000d4	50		 push	 eax
  000d5	8d 45 90	 lea	 eax, DWORD PTR _pMsg$[ebp]
  000d8	50		 push	 eax
  000d9	e8 00 00 00 00	 call	 ?Send@DBSockMng@@QAEHPADH@Z ; DBSockMng::Send
$LN6@GDReqWinGu:

; 2061 : 	}
; 2062 : }

  000de	8b 4d fc	 mov	 ecx, DWORD PTR __$ArrayPad$[ebp]
  000e1	5e		 pop	 esi
  000e2	33 cd		 xor	 ecx, ebp
  000e4	5b		 pop	 ebx
  000e5	e8 00 00 00 00	 call	 @__security_check_cookie@4
  000ea	8b e5		 mov	 esp, ebp
  000ec	5d		 pop	 ebp
  000ed	c3		 ret	 0
?GDReqWinGuildInfoInsert@CArcaBattle@@QAEXXZ ENDP	; CArcaBattle::GDReqWinGuildInfoInsert
_TEXT	ENDS
; Function compile flags: /Ogtp
; File c:\users\michel\desktop\source\gameserver\source\arcabattle.cpp
; File c:\users\michel\desktop\source\gameserver\source\arcabattle.h
; File c:\users\michel\desktop\source\gameserver\source\arcabattleprotocol.h
; File c:\users\michel\desktop\source\gameserver\source\arcabattle.cpp
;	COMDAT ?SendPlayResult@CArcaBattle@@QAEXXZ
_TEXT	SEGMENT
_pUserInfo$1$ = -112					; size = 4
_n$1$ = -108						; size = 4
_this$GSCopy$1$ = -104					; size = 4
_iRewardExp$1 = -100					; size = 8
tv706 = -92						; size = 4
tv696 = -92						; size = 4
_pMsg$ = -88						; size = 84
__$ArrayPad$ = -4					; size = 4
?SendPlayResult@CArcaBattle@@QAEXXZ PROC		; CArcaBattle::SendPlayResult, COMDAT
; _this$ = ecx

; 2067 : {

  00000	55		 push	 ebp
  00001	8b ec		 mov	 ebp, esp
  00003	83 ec 70	 sub	 esp, 112		; 00000070H
  00006	a1 00 00 00 00	 mov	 eax, DWORD PTR ___security_cookie
  0000b	33 c5		 xor	 eax, ebp
  0000d	89 45 fc	 mov	 DWORD PTR __$ArrayPad$[ebp], eax
  00010	53		 push	 ebx
  00011	56		 push	 esi
  00012	89 4d 98	 mov	 DWORD PTR _this$GSCopy$1$[ebp], ecx
; File c:\users\michel\desktop\source\gameserver\source\arcabattle.h

; 506  :     WORD	wBootyCnt;

  00015	8d 45 be	 lea	 eax, DWORD PTR _pMsg$[ebp+22]
  00018	ba 05 00 00 00	 mov	 edx, 5
  0001d	57		 push	 edi
  0001e	66 90		 npad	 2
$LL23@SendPlayRe:
; File c:\users\michel\desktop\source\gameserver\source\arcabattleprotocol.h

; 114  : 		this->wObeliskKind = 0;

  00020	33 f6		 xor	 esi, esi
  00022	8d 40 0c	 lea	 eax, DWORD PTR [eax+12]
  00025	66 89 70 f4	 mov	 WORD PTR [eax-12], si
  00029	0f 57 c0	 xorps	 xmm0, xmm0

; 115  : 		memset(this->szGuildName, 0, 9);

  0002c	66 0f d6 40 f6	 movq	 QWORD PTR [eax-10], xmm0
  00031	c6 40 fe 00	 mov	 BYTE PTR [eax-2], 0
  00035	83 ea 01	 sub	 edx, 1
  00038	75 e6		 jne	 SHORT $LL23@SendPlayRe
; File c:\users\michel\desktop\source\gameserver\source\arcabattle.cpp

; 2072 : 	int iCnt = 0;

  0003a	b8 05 00 00 00	 mov	 eax, 5
  0003f	8d 75 be	 lea	 esi, DWORD PTR _pMsg$[ebp+22]
  00042	8d b9 90 31 00
	00		 lea	 edi, DWORD PTR [ecx+12688]
  00048	89 45 a4	 mov	 DWORD PTR tv706[ebp], eax
  0004b	8d 99 dc 2f 00
	00		 lea	 ebx, DWORD PTR [ecx+12252]
$LL4@SendPlayRe:

; 2075 : 	{
; 2076 : 		if( this->m_stObeliskState[i].m_iGroupNumber == -1 )

  00051	8b 17		 mov	 edx, DWORD PTR [edi]
  00053	83 fa ff	 cmp	 edx, -1
  00056	74 32		 je	 SHORT $LN2@SendPlayRe

; 2077 : 		{
; 2078 : 			continue;
; 2079 : 		}
; 2080 : 		// ----
; 2081 : 		pMsg.m_stABObeliskOccupy[iCnt].wObeliskKind		= (WORD)this->m_stObeliskInfo[i].m_iAttrKind;

  00058	66 8b 03	 mov	 ax, WORD PTR [ebx]

; 2082 : 		pMsg.m_stABObeliskOccupy[iCnt].szGuildName[8]	= 0; //Need check
; 2083 : 		memcpy(pMsg.m_stABObeliskOccupy[iCnt].szGuildName, this->m_stObeliskState[i].m_szOccupyGuildName, 8);

  0005b	8d 4e 02	 lea	 ecx, DWORD PTR [esi+2]
  0005e	66 89 06	 mov	 WORD PTR [esi], ax
  00061	8b 47 18	 mov	 eax, DWORD PTR [edi+24]
  00064	c6 46 0a 00	 mov	 BYTE PTR [esi+10], 0
  00068	89 01		 mov	 DWORD PTR [ecx], eax
  0006a	8b 47 1c	 mov	 eax, DWORD PTR [edi+28]
  0006d	89 41 04	 mov	 DWORD PTR [ecx+4], eax

; 2084 : 		// ----
; 2085 : 		LogAddTD("[ArcaBattle] SendPlayResult Occupy Guild Name : [%s] GroupNumber [%d] ObeliskAttribute [%d]",

  00070	0f b7 06	 movzx	 eax, WORD PTR [esi]
  00073	50		 push	 eax
  00074	52		 push	 edx
  00075	51		 push	 ecx
  00076	68 00 00 00 00	 push	 OFFSET ??_C@_0FM@NAHLOEIH@?$FLArcaBattle?$FN?5SendPlayResult?5Occu@
  0007b	ff 15 00 00 00
	00		 call	 DWORD PTR ?LogAddTD@@3P6AXPADZZA ; LogAddTD
  00081	8b 45 a4	 mov	 eax, DWORD PTR tv706[ebp]
  00084	83 c4 10	 add	 esp, 16			; 00000010H

; 2086 : 			pMsg.m_stABObeliskOccupy[iCnt].szGuildName, this->m_stObeliskState[i].m_iGroupNumber,
; 2087 : 			pMsg.m_stABObeliskOccupy[iCnt].wObeliskKind);
; 2088 : 		iCnt++;

  00087	83 c6 0c	 add	 esi, 12			; 0000000cH
$LN2@SendPlayRe:

; 2073 : 	// ----
; 2074 : 	for( i = 0; i < AB_MAX_BATTLEPOS; i++ )

  0008a	83 c3 58	 add	 ebx, 88			; 00000058H
  0008d	83 c7 54	 add	 edi, 84			; 00000054H
  00090	83 e8 01	 sub	 eax, 1
  00093	89 45 a4	 mov	 DWORD PTR tv706[ebp], eax
  00096	75 b9		 jne	 SHORT $LL4@SendPlayRe

; 2089 : 	}
; 2090 : 	// ----
; 2091 : 	pMsg.h.c		= 0xC1;
; 2092 : 	pMsg.h.size		= sizeof(_tagPMSG_AB_RESULT);
; 2093 : 	pMsg.h.headcode = 0xF8;
; 2094 : 	pMsg.h.subcode	= 0x3B;
; 2095 : 	// ----
; 2096 : 	for( int n = OBJ_STARTUSERINDEX; n < OBJMAX; n++ )

  00098	bf 04 29 00 00	 mov	 edi, 10500		; 00002904H
  0009d	c7 45 a8 c1 54
	f8 3b		 mov	 DWORD PTR _pMsg$[ebp], 1006130369 ; 3bf854c1H
  000a4	bb 00 dd 49 06	 mov	 ebx, 105504000		; 0649dd00H
  000a9	89 7d 94	 mov	 DWORD PTR _n$1$[ebp], edi
  000ac	89 5d a4	 mov	 DWORD PTR tv696[ebp], ebx
  000af	90		 npad	 1
$LL7@SendPlayRe:

; 2097 : 	{
; 2098 : 		lpObj = &gObj[n];

  000b0	8b 35 00 00 00
	00		 mov	 esi, DWORD PTR ?gObj@@3PAUOBJECTSTRUCT@@A ; gObj

; 2099 : 		// ----
; 2100 : 		if( gObjIsConnected(n) == 1 && lpObj->Type == OBJ_USER )

  000b6	57		 push	 edi
  000b7	03 f3		 add	 esi, ebx
  000b9	e8 00 00 00 00	 call	 ?gObjIsConnected@@YAHH@Z ; gObjIsConnected
  000be	83 c4 04	 add	 esp, 4
  000c1	83 f8 01	 cmp	 eax, 1
  000c4	0f 85 f6 01 00
	00		 jne	 $LN5@SendPlayRe
  000ca	38 46 50	 cmp	 BYTE PTR [esi+80], al
  000cd	0f 85 ed 01 00
	00		 jne	 $LN5@SendPlayRe

; 2101 : 		{
; 2102 : 			if( lpObj->lpGuild == NULL )

  000d3	83 be 18 06 00
	00 00		 cmp	 DWORD PTR [esi+1560], 0
  000da	75 1b		 jne	 SHORT $LN13@SendPlayRe

; 2103 : 			{
; 2104 : 				LogAddTD("[ArcaBattle] Error SendPlayResult() lpObj->lpGuild NULL %s %s", 

  000dc	8d 46 5d	 lea	 eax, DWORD PTR [esi+93]
  000df	83 c6 52	 add	 esi, 82			; 00000052H
  000e2	50		 push	 eax
  000e3	56		 push	 esi
  000e4	68 00 00 00 00	 push	 OFFSET ??_C@_0DO@LHOGHICL@?$FLArcaBattle?$FN?5Error?5SendPlayResul@
  000e9	ff 15 00 00 00
	00		 call	 DWORD PTR ?LogAddTD@@3P6AXPADZZA ; LogAddTD
  000ef	83 c4 0c	 add	 esp, 12			; 0000000cH

; 2105 : 					lpObj->AccountID, lpObj->Name);
; 2106 : 				continue;

  000f2	e9 c9 01 00 00	 jmp	 $LN5@SendPlayRe
$LN13@SendPlayRe:

; 2107 : 			}
; 2108 : 			// ----
; 2109 : 			pMsg.btABResult = 0;
; 2110 : 			// ----
; 2111 : 			for( i = 0; i < AB_MAX_BATTLEPOS; i++ )
; 2112 : 			{
; 2113 : 				if( lpObj->lpGuild->Number == this->m_stObeliskState[i].m_iOccupyGuildNum )

  000f7	8b 55 98	 mov	 edx, DWORD PTR _this$GSCopy$1$[ebp]
  000fa	32 c9		 xor	 cl, cl
  000fc	88 4d ac	 mov	 BYTE PTR _pMsg$[ebp+4], cl
  000ff	8b 86 18 06 00
	00		 mov	 eax, DWORD PTR [esi+1560]
  00105	0f b6 c9	 movzx	 ecx, cl
  00108	8b 00		 mov	 eax, DWORD PTR [eax]
  0010a	3b 82 a4 31 00
	00		 cmp	 eax, DWORD PTR [edx+12708]
  00110	b8 01 00 00 00	 mov	 eax, 1
  00115	0f 44 c8	 cmove	 ecx, eax
  00118	88 4d ac	 mov	 BYTE PTR _pMsg$[ebp+4], cl
  0011b	8b 86 18 06 00
	00		 mov	 eax, DWORD PTR [esi+1560]
  00121	0f b6 c9	 movzx	 ecx, cl
  00124	8b 00		 mov	 eax, DWORD PTR [eax]
  00126	3b 82 f8 31 00
	00		 cmp	 eax, DWORD PTR [edx+12792]
  0012c	b8 01 00 00 00	 mov	 eax, 1
  00131	0f 44 c8	 cmove	 ecx, eax
  00134	88 4d ac	 mov	 BYTE PTR _pMsg$[ebp+4], cl
  00137	8b 86 18 06 00
	00		 mov	 eax, DWORD PTR [esi+1560]
  0013d	0f b6 c9	 movzx	 ecx, cl
  00140	8b 00		 mov	 eax, DWORD PTR [eax]
  00142	3b 82 4c 32 00
	00		 cmp	 eax, DWORD PTR [edx+12876]
  00148	b8 01 00 00 00	 mov	 eax, 1
  0014d	0f 44 c8	 cmove	 ecx, eax
  00150	88 4d ac	 mov	 BYTE PTR _pMsg$[ebp+4], cl
  00153	8b 86 18 06 00
	00		 mov	 eax, DWORD PTR [esi+1560]
  00159	0f b6 c9	 movzx	 ecx, cl
  0015c	8b 00		 mov	 eax, DWORD PTR [eax]
  0015e	3b 82 a0 32 00
	00		 cmp	 eax, DWORD PTR [edx+12960]
  00164	b8 01 00 00 00	 mov	 eax, 1
  00169	0f 44 c8	 cmove	 ecx, eax
  0016c	88 4d ac	 mov	 BYTE PTR _pMsg$[ebp+4], cl
  0016f	8b 86 18 06 00
	00		 mov	 eax, DWORD PTR [esi+1560]
  00175	0f b6 c9	 movzx	 ecx, cl
  00178	8b 00		 mov	 eax, DWORD PTR [eax]
  0017a	3b 82 f4 32 00
	00		 cmp	 eax, DWORD PTR [edx+13044]
  00180	b8 01 00 00 00	 mov	 eax, 1
  00185	0f 44 c8	 cmove	 ecx, eax

; 2114 : 				{
; 2115 : 					pMsg.btABResult = 1;
; 2116 : 				}
; 2117 : 			}
; 2118 : 			// ----
; 2119 : 			__int64 iRewardExp;
; 2120 : 			_tagArcaBattleUserInfo * pUserInfo = this->GetUserInfo(lpObj->Name);

  00188	8d 46 5d	 lea	 eax, DWORD PTR [esi+93]
  0018b	88 4d ac	 mov	 BYTE PTR _pMsg$[ebp+4], cl
  0018e	8b ca		 mov	 ecx, edx
  00190	50		 push	 eax
  00191	e8 00 00 00 00	 call	 ?GetUserInfo@CArcaBattle@@QAEPAU_tagArcaBattleUserInfo@@PAD@Z ; CArcaBattle::GetUserInfo
  00196	89 45 90	 mov	 DWORD PTR _pUserInfo$1$[ebp], eax

; 2121 : 			// ----
; 2122 : 			if( pUserInfo == NULL )

  00199	85 c0		 test	 eax, eax
  0019b	75 22		 jne	 SHORT $LN15@SendPlayRe

; 2123 : 			{
; 2124 : 				LogAddTD("[ArcaBattle] Error SendPlayResult() pUserInfo NULL %s %s GuildName %s",

  0019d	8d 86 1c 06 00
	00		 lea	 eax, DWORD PTR [esi+1564]
  001a3	50		 push	 eax
  001a4	8d 46 5d	 lea	 eax, DWORD PTR [esi+93]
  001a7	83 c6 52	 add	 esi, 82			; 00000052H
  001aa	50		 push	 eax
  001ab	56		 push	 esi
  001ac	68 00 00 00 00	 push	 OFFSET ??_C@_0EG@MCEEDJKD@?$FLArcaBattle?$FN?5Error?5SendPlayResul@
  001b1	ff 15 00 00 00
	00		 call	 DWORD PTR ?LogAddTD@@3P6AXPADZZA ; LogAddTD
  001b7	83 c4 10	 add	 esp, 16			; 00000010H

; 2125 : 					lpObj->AccountID, lpObj->Name, lpObj->GuildName);
; 2126 : 				continue;

  001ba	e9 01 01 00 00	 jmp	 $LN5@SendPlayRe
$LN15@SendPlayRe:

; 2127 : 			}
; 2128 : 			// ----
; 2129 : 			iRewardExp = 0;
; 2130 : 			this->CalcRewardExp(*lpObj, iRewardExp);

  001bf	8b 4d 98	 mov	 ecx, DWORD PTR _this$GSCopy$1$[ebp]
  001c2	8d 45 9c	 lea	 eax, DWORD PTR _iRewardExp$1[ebp]
  001c5	50		 push	 eax
  001c6	0f 57 c0	 xorps	 xmm0, xmm0
  001c9	56		 push	 esi
  001ca	66 0f 13 45 9c	 movlpd	 QWORD PTR _iRewardExp$1[ebp], xmm0
  001cf	e8 00 00 00 00	 call	 ?CalcRewardExp@CArcaBattle@@QAEXAAUOBJECTSTRUCT@@AA_J@Z ; CArcaBattle::CalcRewardExp

; 2131 : 			// ----
; 2132 : 			if( gObjCheckUsedBuffEffect(&gObj[n], AT_CSHOP_SEAL_OF_SUSTENANCE) 
; 2133 : 				|| gObjCheckUsedBuffEffect(&gObj[n], AT_PCBANG_SEAL_OF_SUSTENANCE) )

  001d4	a1 00 00 00 00	 mov	 eax, DWORD PTR ?gObj@@3PAUOBJECTSTRUCT@@A ; gObj
  001d9	03 c3		 add	 eax, ebx
  001db	6a 2a		 push	 42			; 0000002aH
  001dd	50		 push	 eax
  001de	e8 00 00 00 00	 call	 ?gObjCheckUsedBuffEffect@@YA_NPAUOBJECTSTRUCT@@H@Z ; gObjCheckUsedBuffEffect
  001e3	83 c4 08	 add	 esp, 8
  001e6	84 c0		 test	 al, al
  001e8	75 16		 jne	 SHORT $LN17@SendPlayRe
  001ea	a1 00 00 00 00	 mov	 eax, DWORD PTR ?gObj@@3PAUOBJECTSTRUCT@@A ; gObj
  001ef	03 c3		 add	 eax, ebx
  001f1	6a 1f		 push	 31			; 0000001fH
  001f3	50		 push	 eax
  001f4	e8 00 00 00 00	 call	 ?gObjCheckUsedBuffEffect@@YA_NPAUOBJECTSTRUCT@@H@Z ; gObjCheckUsedBuffEffect
  001f9	83 c4 08	 add	 esp, 8
  001fc	84 c0		 test	 al, al
  001fe	74 08		 je	 SHORT $LN16@SendPlayRe
$LN17@SendPlayRe:
  00200	0f 57 c0	 xorps	 xmm0, xmm0

; 2134 : 			{
; 2135 : 				iRewardExp = 0;

  00203	66 0f 13 45 9c	 movlpd	 QWORD PTR _iRewardExp$1[ebp], xmm0
$LN16@SendPlayRe:

; 2136 : 			}
; 2137 : 			// ----
; 2138 : 			gObj[n].Experience += iRewardExp;

  00208	8b 0d 00 00 00
	00		 mov	 ecx, DWORD PTR ?gObj@@3PAUOBJECTSTRUCT@@A ; gObj
  0020e	8b 45 9c	 mov	 eax, DWORD PTR _iRewardExp$1[ebp]

; 2139 : 			gObjLevelUp(&gObj[n], &iRewardExp, 0, 7); //7 = ArcaBattle event type?

  00211	6a 07		 push	 7
  00213	6a 00		 push	 0
  00215	01 84 19 a0 00
	00 00		 add	 DWORD PTR [ecx+ebx+160], eax
  0021c	8d 45 9c	 lea	 eax, DWORD PTR _iRewardExp$1[ebp]
  0021f	50		 push	 eax
  00220	a1 00 00 00 00	 mov	 eax, DWORD PTR ?gObj@@3PAUOBJECTSTRUCT@@A ; gObj
  00225	03 c3		 add	 eax, ebx
  00227	50		 push	 eax
  00228	e8 00 00 00 00	 call	 ?gObjLevelUp@@YA_NPAUOBJECTSTRUCT@@PA_JHH@Z ; gObjLevelUp

; 2140 : 			// ----
; 2141 : 			//if( !g_MasterLevelSystem.IsMasterLevelUser(&gObj[n]) )
; 2142 : 			if( !g_MasterExp.IsEnabled(&gObj[n]) )

  0022d	a1 00 00 00 00	 mov	 eax, DWORD PTR ?gObj@@3PAUOBJECTSTRUCT@@A ; gObj
  00232	83 c4 10	 add	 esp, 16			; 00000010H
  00235	03 c3		 add	 eax, ebx
  00237	b9 00 00 00 00	 mov	 ecx, OFFSET ?g_MasterExp@@3VCMasterExperience@@A ; g_MasterExp
  0023c	50		 push	 eax
  0023d	e8 00 00 00 00	 call	 ?IsEnabled@CMasterExperience@@QAEHPAUOBJECTSTRUCT@@@Z ; CMasterExperience::IsEnabled
  00242	85 c0		 test	 eax, eax
  00244	75 16		 jne	 SHORT $LN18@SendPlayRe

; 2143 : 			{
; 2144 : 				//GCSendExp_INT64(n, -1, iRewardExp, 0, 0);
; 2145 : 				GCSendExp(n, (WORD)-1, iRewardExp, 0, 0);

  00246	50		 push	 eax
  00247	50		 push	 eax
  00248	ff 75 a0	 push	 DWORD PTR _iRewardExp$1[ebp+4]
  0024b	ff 75 9c	 push	 DWORD PTR _iRewardExp$1[ebp]
  0024e	68 ff ff 00 00	 push	 65535			; 0000ffffH
  00253	57		 push	 edi
  00254	e8 00 00 00 00	 call	 ?GCSendExp@@YAXHH_JHH@Z	; GCSendExp
  00259	83 c4 18	 add	 esp, 24			; 00000018H
$LN18@SendPlayRe:

; 2146 : 			}
; 2147 : 			// ----
; 2148 : //			g_GensSystem.AddContributePoint(lpObj, pUserInfo->m_stAcquiredPoints.dwContributePoints);
; 2149 : 			lpObj->m_GensInfo.iContribution += pUserInfo->m_stAcquiredPoints.dwContributePoints;

  0025c	8b 4d 90	 mov	 ecx, DWORD PTR _pUserInfo$1$[ebp]

; 2150 : 			pMsg.wBootyCnt			= (WORD)pUserInfo->m_stAcquiredPoints.dwBootyCnt;
; 2151 : 			pMsg.dwContributePoint	= pUserInfo->m_stAcquiredPoints.dwContributePoints;
; 2152 : 			pMsg.dwKillPoint		= pUserInfo->m_stAcquiredPoints.dwKillPoints;
; 2153 : 			pMsg.dwRewardExp		= iRewardExp;
; 2154 : 			// ----
; 2155 : 			LogAddTD("[ArcaBattle] SendPlayResult [%s][%s] BootyCnt[%d] ContributePoint[%d] KillPoint[%d] RewardExp[%d]",

  0025f	ff 75 a0	 push	 DWORD PTR _iRewardExp$1[ebp+4]
  00262	8b 55 a4	 mov	 edx, DWORD PTR tv696[ebp]
  00265	8b 41 10	 mov	 eax, DWORD PTR [ecx+16]
  00268	01 86 b4 26 00
	00		 add	 DWORD PTR [esi+9908], eax
  0026e	66 8b 59 0c	 mov	 bx, WORD PTR [ecx+12]
  00272	03 15 00 00 00
	00		 add	 edx, DWORD PTR ?gObj@@3PAUOBJECTSTRUCT@@A ; gObj
  00278	66 89 5d bc	 mov	 WORD PTR _pMsg$[ebp+20], bx
  0027c	8b 79 10	 mov	 edi, DWORD PTR [ecx+16]
  0027f	89 7d b0	 mov	 DWORD PTR _pMsg$[ebp+8], edi
  00282	8b 41 14	 mov	 eax, DWORD PTR [ecx+20]
  00285	8b 4d 9c	 mov	 ecx, DWORD PTR _iRewardExp$1[ebp]
  00288	51		 push	 ecx
  00289	89 45 b4	 mov	 DWORD PTR _pMsg$[ebp+12], eax
  0028c	57		 push	 edi
  0028d	0f b7 c3	 movzx	 eax, bx
  00290	50		 push	 eax
  00291	8d 42 5d	 lea	 eax, DWORD PTR [edx+93]
  00294	89 4d b8	 mov	 DWORD PTR _pMsg$[ebp+16], ecx
  00297	50		 push	 eax
  00298	8d 42 52	 lea	 eax, DWORD PTR [edx+82]
  0029b	50		 push	 eax
  0029c	68 00 00 00 00	 push	 OFFSET ??_C@_0GC@DLMDFCFM@?$FLArcaBattle?$FN?5SendPlayResult?5?$FL?$CFs?$FN@
  002a1	ff 15 00 00 00
	00		 call	 DWORD PTR ?LogAddTD@@3P6AXPADZZA ; LogAddTD

; 2156 : 				gObj[n].AccountID, gObj[n].Name, pMsg.wBootyCnt, pMsg.dwContributePoint, iRewardExp);
; 2157 : 			DataSend(lpObj->m_Index, (LPBYTE)&pMsg, pMsg.h.size);

  002a7	0f b6 45 a9	 movzx	 eax, BYTE PTR _pMsg$[ebp+1]
  002ab	50		 push	 eax
  002ac	8d 45 a8	 lea	 eax, DWORD PTR _pMsg$[ebp]
  002af	50		 push	 eax
  002b0	ff 36		 push	 DWORD PTR [esi]
  002b2	e8 00 00 00 00	 call	 ?DataSend@@YAHHPAEK@Z	; DataSend
  002b7	8b 5d a4	 mov	 ebx, DWORD PTR tv696[ebp]
  002ba	83 c4 28	 add	 esp, 40			; 00000028H
  002bd	8b 7d 94	 mov	 edi, DWORD PTR _n$1$[ebp]
$LN5@SendPlayRe:

; 2089 : 	}
; 2090 : 	// ----
; 2091 : 	pMsg.h.c		= 0xC1;
; 2092 : 	pMsg.h.size		= sizeof(_tagPMSG_AB_RESULT);
; 2093 : 	pMsg.h.headcode = 0xF8;
; 2094 : 	pMsg.h.subcode	= 0x3B;
; 2095 : 	// ----
; 2096 : 	for( int n = OBJ_STARTUSERINDEX; n < OBJMAX; n++ )

  002c0	81 c3 40 27 00
	00		 add	 ebx, 10048		; 00002740H
  002c6	47		 inc	 edi
  002c7	89 7d 94	 mov	 DWORD PTR _n$1$[ebp], edi
  002ca	89 5d a4	 mov	 DWORD PTR tv696[ebp], ebx
  002cd	81 fb 00 2f e3
	06		 cmp	 ebx, 115552000		; 06e32f00H
  002d3	0f 8c d7 fd ff
	ff		 jl	 $LL7@SendPlayRe

; 2158 : 		}
; 2159 : 	}
; 2160 : }

  002d9	8b 4d fc	 mov	 ecx, DWORD PTR __$ArrayPad$[ebp]
  002dc	5f		 pop	 edi
  002dd	5e		 pop	 esi
  002de	33 cd		 xor	 ecx, ebp
  002e0	5b		 pop	 ebx
  002e1	e8 00 00 00 00	 call	 @__security_check_cookie@4
  002e6	8b e5		 mov	 esp, ebp
  002e8	5d		 pop	 ebp
  002e9	c3		 ret	 0
?SendPlayResult@CArcaBattle@@QAEXXZ ENDP		; CArcaBattle::SendPlayResult
_TEXT	ENDS
; Function compile flags: /Ogtp
; File c:\users\michel\desktop\source\gameserver\source\arcabattle.cpp
;	COMDAT ?NotifyArcaBattle@CArcaBattle@@QAEXH@Z
_TEXT	SEGMENT
_pMsg$1 = -276						; size = 272
_pMsg$2 = -276						; size = 272
__$ArrayPad$ = -4					; size = 4
_iNotifyNum$ = 8					; size = 4
?NotifyArcaBattle@CArcaBattle@@QAEXH@Z PROC		; CArcaBattle::NotifyArcaBattle, COMDAT
; _this$ = ecx

; 1974 : {

  00000	55		 push	 ebp
  00001	8b ec		 mov	 ebp, esp
  00003	81 ec 14 01 00
	00		 sub	 esp, 276		; 00000114H
  00009	a1 00 00 00 00	 mov	 eax, DWORD PTR ___security_cookie
  0000e	33 c5		 xor	 eax, ebp
  00010	89 45 fc	 mov	 DWORD PTR __$ArrayPad$[ebp], eax

; 1975 : 	if( iNotifyNum == 3 )

  00013	8b 45 08	 mov	 eax, DWORD PTR _iNotifyNum$[ebp]
  00016	83 f8 03	 cmp	 eax, 3
  00019	75 4a		 jne	 SHORT $LN2@NotifyArca

; 1976 : 	{
; 1977 : 		PMSG_NOTICE pMsg;	//Need check conversion
; 1978 : 		TNotice::MakeNoticeMsgEx(&pMsg, 0, lMsg.Get(3502));

  0001b	68 ae 0d 00 00	 push	 3502			; 00000daeH
  00020	b9 00 00 00 00	 mov	 ecx, OFFSET ?lMsg@@3VMessage@@A ; lMsg
  00025	e8 00 00 00 00	 call	 ?Get@Message@@QAEPADH@Z	; Message::Get
  0002a	50		 push	 eax
  0002b	8d 85 ec fe ff
	ff		 lea	 eax, DWORD PTR _pMsg$2[ebp]
  00031	6a 00		 push	 0
  00033	50		 push	 eax
  00034	e8 00 00 00 00	 call	 ?MakeNoticeMsgEx@TNotice@@SAXPAXEPADZZ ; TNotice::MakeNoticeMsgEx

; 1979 : 		TNotice::SetNoticeProperty(&pMsg, 0, _ARGB(-1, -1, 0xC8, 0x50), 1, 0, 20);

  00039	6a 14		 push	 20			; 00000014H
  0003b	6a 00		 push	 0
  0003d	6a 01		 push	 1
  0003f	68 ff c8 50 ff	 push	 -11482881		; ff50c8ffH
  00044	8d 85 ec fe ff
	ff		 lea	 eax, DWORD PTR _pMsg$2[ebp]
  0004a	6a 00		 push	 0
  0004c	50		 push	 eax
  0004d	e8 00 00 00 00	 call	 ?SetNoticeProperty@TNotice@@SAXPAXEKEGE@Z ; TNotice::SetNoticeProperty

; 1980 : 		TNotice::SendNoticeToAllUser(&pMsg);

  00052	8d 85 ec fe ff
	ff		 lea	 eax, DWORD PTR _pMsg$2[ebp]
  00058	50		 push	 eax
  00059	e8 00 00 00 00	 call	 ?SendNoticeToAllUser@TNotice@@SAXPAX@Z ; TNotice::SendNoticeToAllUser

; 1981 : 		LogAddTD("[ArcaBattle] --L -+L-");

  0005e	68 00 00 00 00	 push	 OFFSET ??_C@_0BL@FNJGNFPC@?$FLArcaBattle?$FN?5?9?$KG?$KM?c?9?kL?$PP?5?9?$CLL?9?$AA@
  00063	eb 4d		 jmp	 SHORT $LN10@NotifyArca
$LN2@NotifyArca:

; 1982 : 	}
; 1983 : 	else if( iNotifyNum == 4 )

  00065	83 f8 04	 cmp	 eax, 4
  00068	75 51		 jne	 SHORT $LN4@NotifyArca

; 1984 : 	{
; 1985 : 		PMSG_NOTICE pMsg;	//Need check conversion
; 1986 : 		TNotice::MakeNoticeMsgEx(&pMsg, 0, lMsg.Get(3503));

  0006a	68 af 0d 00 00	 push	 3503			; 00000dafH
  0006f	b9 00 00 00 00	 mov	 ecx, OFFSET ?lMsg@@3VMessage@@A ; lMsg
  00074	e8 00 00 00 00	 call	 ?Get@Message@@QAEPADH@Z	; Message::Get
  00079	50		 push	 eax
  0007a	8d 85 ec fe ff
	ff		 lea	 eax, DWORD PTR _pMsg$1[ebp]
  00080	6a 00		 push	 0
  00082	50		 push	 eax
  00083	e8 00 00 00 00	 call	 ?MakeNoticeMsgEx@TNotice@@SAXPAXEPADZZ ; TNotice::MakeNoticeMsgEx

; 1987 : 		TNotice::SetNoticeProperty(&pMsg, 0, _ARGB(-1, -1, 0xC8, 0x50), 1, 0, 20);

  00088	6a 14		 push	 20			; 00000014H
  0008a	6a 00		 push	 0
  0008c	6a 01		 push	 1
  0008e	68 ff c8 50 ff	 push	 -11482881		; ff50c8ffH
  00093	8d 85 ec fe ff
	ff		 lea	 eax, DWORD PTR _pMsg$1[ebp]
  00099	6a 00		 push	 0
  0009b	50		 push	 eax
  0009c	e8 00 00 00 00	 call	 ?SetNoticeProperty@TNotice@@SAXPAXEKEGE@Z ; TNotice::SetNoticeProperty

; 1988 : 		TNotice::SendNoticeToAllUser(&pMsg);

  000a1	8d 85 ec fe ff
	ff		 lea	 eax, DWORD PTR _pMsg$1[ebp]
  000a7	50		 push	 eax
  000a8	e8 00 00 00 00	 call	 ?SendNoticeToAllUser@TNotice@@SAXPAX@Z ; TNotice::SendNoticeToAllUser

; 1989 : 		LogAddTD("[ArcaBattle] --L +-");

  000ad	68 00 00 00 00	 push	 OFFSET ??_C@_0BL@HDNCCFDN@?$FLArcaBattle?$FN?5?9?$KG?$KM?c?9?kL?$PP?5?$CL?9?$KM?q?$AA@
$LN10@NotifyArca:
  000b2	ff 15 00 00 00
	00		 call	 DWORD PTR ?LogAddTD@@3P6AXPADZZA ; LogAddTD
  000b8	83 c4 2c	 add	 esp, 44			; 0000002cH
$LN4@NotifyArca:

; 1990 : 	}
; 1991 : }

  000bb	8b 4d fc	 mov	 ecx, DWORD PTR __$ArrayPad$[ebp]
  000be	33 cd		 xor	 ecx, ebp
  000c0	e8 00 00 00 00	 call	 @__security_check_cookie@4
  000c5	8b e5		 mov	 esp, ebp
  000c7	5d		 pop	 ebp
  000c8	c2 04 00	 ret	 4
?NotifyArcaBattle@CArcaBattle@@QAEXH@Z ENDP		; CArcaBattle::NotifyArcaBattle
_TEXT	ENDS
; Function compile flags: /Ogtp
; File c:\users\michel\desktop\source\gameserver\source\arcabattle.cpp
;	COMDAT ?SendArcaBattleCurrentState@CArcaBattle@@QAEXAAUOBJECTSTRUCT@@@Z
_TEXT	SEGMENT
_pMsg$ = -8						; size = 5
_obj$ = 8						; size = 4
?SendArcaBattleCurrentState@CArcaBattle@@QAEXAAUOBJECTSTRUCT@@@Z PROC ; CArcaBattle::SendArcaBattleCurrentState, COMDAT
; _this$ = ecx

; 1932 : {

  00000	55		 push	 ebp
  00001	8b ec		 mov	 ebp, esp
  00003	83 ec 08	 sub	 esp, 8

; 1933 : 	_tagPMSG_ARCA_BATTLE_STATE pMsg;
; 1934 : 	// ----
; 1935 : 	pMsg.h.c		= 0xC1;

  00006	c7 45 f8 c1 05
	f8 38		 mov	 DWORD PTR _pMsg$[ebp], 955778497 ; 38f805c1H

; 1936 : 	pMsg.h.size		= sizeof(_tagPMSG_ARCA_BATTLE_STATE);
; 1937 : 	pMsg.h.headcode = 0xF8;
; 1938 : 	pMsg.h.subcode	= 0x38;
; 1939 : 	pMsg.m_btArcaBattleState = this->GetState();

  0000d	e8 00 00 00 00	 call	 ?GetState@CArcaBattle@@QAEHXZ ; CArcaBattle::GetState
  00012	88 45 fc	 mov	 BYTE PTR _pMsg$[ebp+4], al

; 1940 : 	// ----
; 1941 : 	DataSend(obj.m_Index, (LPBYTE)&pMsg, pMsg.h.size);

  00015	8d 45 f8	 lea	 eax, DWORD PTR _pMsg$[ebp]
  00018	6a 05		 push	 5
  0001a	50		 push	 eax
  0001b	8b 45 08	 mov	 eax, DWORD PTR _obj$[ebp]
  0001e	ff 30		 push	 DWORD PTR [eax]
  00020	e8 00 00 00 00	 call	 ?DataSend@@YAHHPAEK@Z	; DataSend
  00025	83 c4 0c	 add	 esp, 12			; 0000000cH

; 1942 : }

  00028	8b e5		 mov	 esp, ebp
  0002a	5d		 pop	 ebp
  0002b	c2 04 00	 ret	 4
?SendArcaBattleCurrentState@CArcaBattle@@QAEXAAUOBJECTSTRUCT@@@Z ENDP ; CArcaBattle::SendArcaBattleCurrentState
_TEXT	ENDS
; Function compile flags: /Ogtp
; File c:\users\michel\desktop\source\gameserver\source\arcabattle.cpp
;	COMDAT ?SendArcaBattleStateAll@CArcaBattle@@QAEXH@Z
_TEXT	SEGMENT
_pMsg$ = -8						; size = 5
_iState$ = 8						; size = 4
?SendArcaBattleStateAll@CArcaBattle@@QAEXH@Z PROC	; CArcaBattle::SendArcaBattleStateAll, COMDAT
; _this$ = ecx

; 1904 : {

  00000	55		 push	 ebp
  00001	8b ec		 mov	 ebp, esp
  00003	83 ec 08	 sub	 esp, 8

; 1905 : 	int n;
; 1906 : 	LPOBJ lpObj;
; 1907 : 	lpObj = NULL;
; 1908 : 	n = 0;
; 1909 : 	// ----
; 1910 : 	_tagPMSG_ARCA_BATTLE_STATE pMsg;
; 1911 : 	// ----
; 1912 : 	pMsg.h.c		= 0xC1;
; 1913 : 	pMsg.h.size		= sizeof(_tagPMSG_ARCA_BATTLE_STATE);
; 1914 : 	pMsg.h.headcode = 0xF8;
; 1915 : 	pMsg.h.subcode	= 0x38;
; 1916 : 	pMsg.m_btArcaBattleState = iState;

  00006	8a 45 08	 mov	 al, BYTE PTR _iState$[ebp]
  00009	53		 push	 ebx
  0000a	56		 push	 esi
  0000b	57		 push	 edi
  0000c	c7 45 f8 c1 05
	f8 38		 mov	 DWORD PTR _pMsg$[ebp], 955778497 ; 38f805c1H

; 1917 : 	// ----
; 1918 : 	for( n = OBJ_STARTUSERINDEX; n < OBJMAX; n++ )

  00013	bf 04 29 00 00	 mov	 edi, 10500		; 00002904H
  00018	88 45 fc	 mov	 BYTE PTR _pMsg$[ebp+4], al
  0001b	be 00 dd 49 06	 mov	 esi, 105504000		; 0649dd00H
$LL4@SendArcaBa:

; 1919 : 	{
; 1920 : 		 lpObj = &gObj[n];

  00020	8b 1d 00 00 00
	00		 mov	 ebx, DWORD PTR ?gObj@@3PAUOBJECTSTRUCT@@A ; gObj

; 1921 : 		 // ----
; 1922 : 		 if( gObjIsConnected(n) == 1 && lpObj->Type == OBJ_USER )

  00026	57		 push	 edi
  00027	e8 00 00 00 00	 call	 ?gObjIsConnected@@YAHH@Z ; gObjIsConnected
  0002c	83 c4 04	 add	 esp, 4
  0002f	83 f8 01	 cmp	 eax, 1
  00032	75 1a		 jne	 SHORT $LN2@SendArcaBa
  00034	38 44 33 50	 cmp	 BYTE PTR [ebx+esi+80], al
  00038	75 14		 jne	 SHORT $LN2@SendArcaBa

; 1923 : 		 {
; 1924 : 			 DataSend(lpObj->m_Index, (LPBYTE)&pMsg, pMsg.h.size);

  0003a	0f b6 45 f9	 movzx	 eax, BYTE PTR _pMsg$[ebp+1]
  0003e	50		 push	 eax
  0003f	8d 45 f8	 lea	 eax, DWORD PTR _pMsg$[ebp]
  00042	50		 push	 eax
  00043	ff 34 33	 push	 DWORD PTR [ebx+esi]
  00046	e8 00 00 00 00	 call	 ?DataSend@@YAHHPAEK@Z	; DataSend
  0004b	83 c4 0c	 add	 esp, 12			; 0000000cH
$LN2@SendArcaBa:

; 1917 : 	// ----
; 1918 : 	for( n = OBJ_STARTUSERINDEX; n < OBJMAX; n++ )

  0004e	81 c6 40 27 00
	00		 add	 esi, 10048		; 00002740H
  00054	47		 inc	 edi
  00055	81 fe 00 2f e3
	06		 cmp	 esi, 115552000		; 06e32f00H
  0005b	7c c3		 jl	 SHORT $LL4@SendArcaBa
  0005d	5f		 pop	 edi
  0005e	5e		 pop	 esi
  0005f	5b		 pop	 ebx

; 1925 : 		 }
; 1926 : 	}
; 1927 : }

  00060	8b e5		 mov	 esp, ebp
  00062	5d		 pop	 ebp
  00063	c2 04 00	 ret	 4
?SendArcaBattleStateAll@CArcaBattle@@QAEXH@Z ENDP	; CArcaBattle::SendArcaBattleStateAll
_TEXT	ENDS
; Function compile flags: /Ogtp
; File c:\users\michel\desktop\source\gameserver\source\arcabattle.cpp
;	COMDAT ?IsPkEnable@CArcaBattle@@QAEHAAUOBJECTSTRUCT@@0@Z
_TEXT	SEGMENT
_this$1$ = -4						; size = 4
_obj$ = 8						; size = 4
_Tarobj$ = 12						; size = 4
?IsPkEnable@CArcaBattle@@QAEHAAUOBJECTSTRUCT@@0@Z PROC	; CArcaBattle::IsPkEnable, COMDAT
; _this$ = ecx

; 1842 : {

  00000	55		 push	 ebp
  00001	8b ec		 mov	 ebp, esp
  00003	51		 push	 ecx

; 1843 : 	_GUILD_INFO_STRUCT * lpGuildInfo	= obj.lpGuild;
; 1844 : 	_GUILD_INFO_STRUCT * lpTarGuildInfo	= Tarobj.lpGuild;
; 1845 : 	// ----
; 1846 : 	if( g_bIsArcaBattleServer == false )

  00004	80 3d 00 00 00
	00 00		 cmp	 BYTE PTR ?g_bIsArcaBattleServer@@3_NA, 0 ; g_bIsArcaBattleServer
  0000b	8b c1		 mov	 eax, ecx
  0000d	53		 push	 ebx
  0000e	8b 5d 0c	 mov	 ebx, DWORD PTR _Tarobj$[ebp]
  00011	56		 push	 esi
  00012	8b 75 08	 mov	 esi, DWORD PTR _obj$[ebp]
  00015	57		 push	 edi
  00016	8b bb 18 06 00
	00		 mov	 edi, DWORD PTR [ebx+1560]
  0001c	89 45 fc	 mov	 DWORD PTR _this$1$[ebp], eax
  0001f	8b b6 18 06 00
	00		 mov	 esi, DWORD PTR [esi+1560]
  00025	75 0e		 jne	 SHORT $LN2@IsPkEnable
$LN15@IsPkEnable:
  00027	5f		 pop	 edi
  00028	5e		 pop	 esi

; 1847 : 	{
; 1848 : 		return true;

  00029	b8 01 00 00 00	 mov	 eax, 1
  0002e	5b		 pop	 ebx

; 1875 : 	{
; 1876 : 		return false;
; 1877 : 	}
; 1878 : 	// ----
; 1879 : 	return true;
; 1880 : }

  0002f	8b e5		 mov	 esp, ebp
  00031	5d		 pop	 ebp
  00032	c2 08 00	 ret	 8
$LN2@IsPkEnable:

; 1849 : 	}
; 1850 : 	// ----
; 1851 : 	if( this->GetState() != AB_STATE_PLAY )

  00035	e8 00 00 00 00	 call	 ?GetState@CArcaBattle@@QAEHXZ ; CArcaBattle::GetState
  0003a	83 f8 07	 cmp	 eax, 7
  0003d	75 e8		 jne	 SHORT $LN15@IsPkEnable

; 1852 : 	{
; 1853 : 		return true;
; 1854 : 	}
; 1855 : 	// ----
; 1856 : 	if( lpGuildInfo == NULL )

  0003f	85 f6		 test	 esi, esi
  00041	75 1b		 jne	 SHORT $LN4@IsPkEnable

; 1857 : 	{
; 1858 : 		LogAddC(2, "[ArcaBattle] Error lpGuildInfo NULL");

  00043	68 00 00 00 00	 push	 OFFSET ??_C@_0CE@FCHEEFHN@?$FLArcaBattle?$FN?5Error?5lpGuildInfo?5N@
$LN14@IsPkEnable:

; 1863 : 	{
; 1864 : 		LogAddC(2, "[ArcaBattle] Error lpTarGuildInfo NULL");

  00048	6a 02		 push	 2
  0004a	ff 15 00 00 00
	00		 call	 DWORD PTR ?LogAddC@@3P6AXEPADZZA ; LogAddC
  00050	83 c4 08	 add	 esp, 8
$LN7@IsPkEnable:

; 1870 : 	{
; 1871 : 		return false;

  00053	5f		 pop	 edi
  00054	5e		 pop	 esi
  00055	33 c0		 xor	 eax, eax
  00057	5b		 pop	 ebx

; 1875 : 	{
; 1876 : 		return false;
; 1877 : 	}
; 1878 : 	// ----
; 1879 : 	return true;
; 1880 : }

  00058	8b e5		 mov	 esp, ebp
  0005a	5d		 pop	 ebp
  0005b	c2 08 00	 ret	 8
$LN4@IsPkEnable:

; 1859 : 		return false;
; 1860 : 	}
; 1861 : 	// ----
; 1862 : 	if( lpTarGuildInfo == NULL )

  0005e	85 ff		 test	 edi, edi
  00060	75 07		 jne	 SHORT $LN5@IsPkEnable

; 1863 : 	{
; 1864 : 		LogAddC(2, "[ArcaBattle] Error lpTarGuildInfo NULL");

  00062	68 00 00 00 00	 push	 OFFSET ??_C@_0CH@JOJAMJIP@?$FLArcaBattle?$FN?5Error?5lpTarGuildInf@

; 1865 : 		return false;

  00067	eb df		 jmp	 SHORT $LN14@IsPkEnable
$LN5@IsPkEnable:

; 1866 : 	}
; 1867 : 	// ----
; 1868 : 	if(		this->GetArcaBattleMapIndex() != obj.MapNumber 
; 1869 : 		||	this->GetArcaBattleMapIndex() != Tarobj.MapNumber )

  00069	8b 45 08	 mov	 eax, DWORD PTR _obj$[ebp]
  0006c	8b 4d fc	 mov	 ecx, DWORD PTR _this$1$[ebp]
  0006f	0f b6 80 23 01
	00 00		 movzx	 eax, BYTE PTR [eax+291]
  00076	8b 89 b0 34 00
	00		 mov	 ecx, DWORD PTR [ecx+13488]
  0007c	3b c8		 cmp	 ecx, eax
  0007e	75 d3		 jne	 SHORT $LN7@IsPkEnable
  00080	0f b6 83 23 01
	00 00		 movzx	 eax, BYTE PTR [ebx+291]
  00087	3b c8		 cmp	 ecx, eax
  00089	75 c8		 jne	 SHORT $LN7@IsPkEnable

; 1872 : 	}
; 1873 : 	// ----
; 1874 : 	if( lpGuildInfo->Number != lpTarGuildInfo->Number )

  0008b	8b 0e		 mov	 ecx, DWORD PTR [esi]
  0008d	33 c0		 xor	 eax, eax
  0008f	3b 0f		 cmp	 ecx, DWORD PTR [edi]
  00091	5f		 pop	 edi
  00092	5e		 pop	 esi
  00093	0f 94 c0	 sete	 al
  00096	5b		 pop	 ebx

; 1875 : 	{
; 1876 : 		return false;
; 1877 : 	}
; 1878 : 	// ----
; 1879 : 	return true;
; 1880 : }

  00097	8b e5		 mov	 esp, ebp
  00099	5d		 pop	 ebp
  0009a	c2 08 00	 ret	 8
?IsPkEnable@CArcaBattle@@QAEHAAUOBJECTSTRUCT@@0@Z ENDP	; CArcaBattle::IsPkEnable
_TEXT	ENDS
; Function compile flags: /Ogtp
; File c:\users\michel\desktop\source\gameserver\source\arcabattle.cpp
;	COMDAT ?IsArcaBattleMap@CArcaBattle@@QAEHH@Z
_TEXT	SEGMENT
_iMapNumber$ = 8					; size = 4
?IsArcaBattleMap@CArcaBattle@@QAEHH@Z PROC		; CArcaBattle::IsArcaBattleMap, COMDAT
; _this$ = ecx

; 1892 : {

  00000	55		 push	 ebp
  00001	8b ec		 mov	 ebp, esp

; 1893 : 	if( iMapNumber == this->GetArcaBattleMapIndex() )

  00003	8b 55 08	 mov	 edx, DWORD PTR _iMapNumber$[ebp]
  00006	33 c0		 xor	 eax, eax
  00008	3b 91 b0 34 00
	00		 cmp	 edx, DWORD PTR [ecx+13488]
  0000e	0f 94 c0	 sete	 al

; 1894 : 	{
; 1895 : 		return true;
; 1896 : 	}
; 1897 : 	// ----
; 1898 : 	return false;
; 1899 : }

  00011	5d		 pop	 ebp
  00012	c2 04 00	 ret	 4
?IsArcaBattleMap@CArcaBattle@@QAEHH@Z ENDP		; CArcaBattle::IsArcaBattleMap
_TEXT	ENDS
; Function compile flags: /Ogtp
; File c:\users\michel\desktop\source\gameserver\source\arcabattle.cpp
;	COMDAT ?IsArcaBattleServer@CArcaBattle@@QAEHXZ
_TEXT	SEGMENT
?IsArcaBattleServer@CArcaBattle@@QAEHXZ PROC		; CArcaBattle::IsArcaBattleServer, COMDAT
; _this$ = ecx

; 1886 : 	return 1;//g_bIsArcaBattleServer;

  00000	b8 01 00 00 00	 mov	 eax, 1

; 1887 : }

  00005	c3		 ret	 0
?IsArcaBattleServer@CArcaBattle@@QAEHXZ ENDP		; CArcaBattle::IsArcaBattleServer
_TEXT	ENDS
; Function compile flags: /Ogtp
; File c:\users\michel\desktop\source\gameserver\source\arcabattle.h
;	COMDAT ?GetArcaBattleMapIndex@CArcaBattle@@QAEHXZ
_TEXT	SEGMENT
?GetArcaBattleMapIndex@CArcaBattle@@QAEHXZ PROC		; CArcaBattle::GetArcaBattleMapIndex, COMDAT
; _this$ = ecx

; 585  : 	int		GetArcaBattleMapIndex() {  return this->m_iArcaBattleMapIndex; };

  00000	8b 81 b0 34 00
	00		 mov	 eax, DWORD PTR [ecx+13488]
  00006	c3		 ret	 0
?GetArcaBattleMapIndex@CArcaBattle@@QAEHXZ ENDP		; CArcaBattle::GetArcaBattleMapIndex
_TEXT	ENDS
; Function compile flags: /Ogtp
; File c:\users\michel\desktop\source\gameserver\source\arcabattle.cpp
;	COMDAT ?SetUserMapInfo@CArcaBattle@@QAEXPAUOBJECTSTRUCT@@H@Z
_TEXT	SEGMENT
_lpObj$ = 8						; size = 4
_nGateNum$ = 12						; size = 4
?SetUserMapInfo@CArcaBattle@@QAEXPAUOBJECTSTRUCT@@H@Z PROC ; CArcaBattle::SetUserMapInfo, COMDAT
; _this$ = ecx

; 2946 : //	for ( i = 0; i < this->m_iABJoinUserCnt; ++i )
; 2947 :  // {
; 2948 :  //   if ( !strcmp(lpObj->Name, this->m_stABJoinUserInfo[i].szUserName) )
; 2949 : //      this->m_stABJoinUserInfo[i].wGuildMasterGateNum = nGateNum;
; 2950 :  // }
; 2951 : }

  00000	c2 08 00	 ret	 8
?SetUserMapInfo@CArcaBattle@@QAEXPAUOBJECTSTRUCT@@H@Z ENDP ; CArcaBattle::SetUserMapInfo
_TEXT	ENDS
; Function compile flags: /Ogtp
; File c:\users\michel\desktop\source\gameserver\source\arcabattle.cpp
;	COMDAT ?GetUserPos@CArcaBattle@@QAEHHAAE0@Z
_TEXT	SEGMENT
_nGateNum$ = 8						; size = 4
_nOutX$ = 12						; size = 4
_nOutY$ = 16						; size = 4
?GetUserPos@CArcaBattle@@QAEHHAAE0@Z PROC		; CArcaBattle::GetUserPos, COMDAT
; _this$ = ecx

; 2895 : {

  00000	55		 push	 ebp
  00001	8b ec		 mov	 ebp, esp

; 2896 : 	int nMapNumber;
; 2897 : 	int nBeginX;
; 2898 : 	int nEndX;
; 2899 : 	int nGroupNumber;
; 2900 : 	int nBeginY;
; 2901 : 	int nArea;
; 2902 : 	int nEndY;
; 2903 : 	// ----
; 2904 : 	nGroupNumber = 0;
; 2905 : 	// ----
; 2906 : 	if (nGateNum == 427)

  00003	8b 45 08	 mov	 eax, DWORD PTR _nGateNum$[ebp]
  00006	57		 push	 edi
  00007	8b f9		 mov	 edi, ecx
  00009	3d ab 01 00 00	 cmp	 eax, 427		; 000001abH
  0000e	75 04		 jne	 SHORT $LN2@GetUserPos

; 2907 : 	{
; 2908 : 		nGroupNumber = 0;

  00010	33 c0		 xor	 eax, eax
  00012	eb 1a		 jmp	 SHORT $LN7@GetUserPos
$LN2@GetUserPos:

; 2909 : 	}
; 2910 : 	else if (nGateNum == 431)

  00014	3d af 01 00 00	 cmp	 eax, 431		; 000001afH
  00019	75 07		 jne	 SHORT $LN4@GetUserPos

; 2911 : 	{
; 2912 : 		nGroupNumber = 1;

  0001b	b8 01 00 00 00	 mov	 eax, 1
  00020	eb 0c		 jmp	 SHORT $LN7@GetUserPos
$LN4@GetUserPos:

; 2913 : 	}
; 2914 :     else if (nGateNum == 439)

  00022	3d b7 01 00 00	 cmp	 eax, 439		; 000001b7H
  00027	75 78		 jne	 SHORT $LN6@GetUserPos

; 2915 :     {
; 2916 : 		nGroupNumber = 2;

  00029	b8 02 00 00 00	 mov	 eax, 2
$LN7@GetUserPos:
  0002e	53		 push	 ebx
  0002f	56		 push	 esi

; 2921 : 	}
; 2922 : 	// ----
; 2923 : 	nArea		= rand() % this->m_stAB_UserPos[nGroupNumber].area_cnt;

  00030	69 f0 d0 00 00
	00		 imul	 esi, eax, 208
  00036	e8 00 00 00 00	 call	 _rand
  0003b	99		 cdq
  0003c	f7 bc 3e 98 75
	02 00		 idiv	 DWORD PTR [esi+edi+161176]

; 2924 : 	nMapNumber	= this->m_stAB_UserPos[nGroupNumber].stUserPos[nArea].map_number;

  00043	8d 82 7b 1f 00
	00		 lea	 eax, DWORD PTR [edx+8059]
  00049	8d 04 80	 lea	 eax, DWORD PTR [eax+eax*4]
  0004c	8d 04 86	 lea	 eax, DWORD PTR [esi+eax*4]
  0004f	8b 0c 38	 mov	 ecx, DWORD PTR [eax+edi]

; 2925 : 	nBeginX		= this->m_stAB_UserPos[nGroupNumber].stUserPos[nArea].beginX;

  00052	8d 04 92	 lea	 eax, DWORD PTR [edx+edx*4]
  00055	8d 04 86	 lea	 eax, DWORD PTR [esi+eax*4]
  00058	8b 94 38 a0 75
	02 00		 mov	 edx, DWORD PTR [eax+edi+161184]

; 2926 : 	nBeginY		= this->m_stAB_UserPos[nGroupNumber].stUserPos[nArea].beginY;

  0005f	8b b4 38 a4 75
	02 00		 mov	 esi, DWORD PTR [eax+edi+161188]

; 2927 : 	nEndX		= this->m_stAB_UserPos[nGroupNumber].stUserPos[nArea].endX;

  00066	8b 9c 38 a8 75
	02 00		 mov	 ebx, DWORD PTR [eax+edi+161192]

; 2928 : 	nEndY		= this->m_stAB_UserPos[nGroupNumber].stUserPos[nArea].endY;

  0006d	8b 84 38 ac 75
	02 00		 mov	 eax, DWORD PTR [eax+edi+161196]

; 2929 : 	// ----
; 2930 : 	if( nMapNumber == -1 )

  00074	83 f9 ff	 cmp	 ecx, -1
  00077	75 09		 jne	 SHORT $LN8@GetUserPos

; 2931 : 	{
; 2932 : 		return false;

  00079	5e		 pop	 esi
  0007a	5b		 pop	 ebx
  0007b	33 c0		 xor	 eax, eax
  0007d	5f		 pop	 edi

; 2936 : 	{
; 2937 : 		return false;
; 2938 : 	}
; 2939 : 	// ----
; 2940 : 	return true;
; 2941 : }

  0007e	5d		 pop	 ebp
  0007f	c2 0c 00	 ret	 12			; 0000000cH
$LN8@GetUserPos:

; 2933 : 	}
; 2934 : 	// ----
; 2935 : 	if( this->GetBoxPosition(nMapNumber, nBeginX, nBeginY, nEndX, nEndY, nOutX, nOutY) == false )

  00082	ff 75 10	 push	 DWORD PTR _nOutY$[ebp]
  00085	ff 75 0c	 push	 DWORD PTR _nOutX$[ebp]
  00088	50		 push	 eax
  00089	53		 push	 ebx
  0008a	56		 push	 esi
  0008b	52		 push	 edx
  0008c	51		 push	 ecx
  0008d	8b cf		 mov	 ecx, edi
  0008f	e8 00 00 00 00	 call	 ?GetBoxPosition@CArcaBattle@@QAEHHHHHHAAE0@Z ; CArcaBattle::GetBoxPosition
  00094	f7 d8		 neg	 eax
  00096	5e		 pop	 esi
  00097	1b c0		 sbb	 eax, eax
  00099	5b		 pop	 ebx
  0009a	f7 d8		 neg	 eax
  0009c	5f		 pop	 edi

; 2936 : 	{
; 2937 : 		return false;
; 2938 : 	}
; 2939 : 	// ----
; 2940 : 	return true;
; 2941 : }

  0009d	5d		 pop	 ebp
  0009e	c2 0c 00	 ret	 12			; 0000000cH
$LN6@GetUserPos:

; 2917 : 	}
; 2918 : 	else
; 2919 : 	{
; 2920 : 		return 1;

  000a1	b8 01 00 00 00	 mov	 eax, 1
  000a6	5f		 pop	 edi

; 2936 : 	{
; 2937 : 		return false;
; 2938 : 	}
; 2939 : 	// ----
; 2940 : 	return true;
; 2941 : }

  000a7	5d		 pop	 ebp
  000a8	c2 0c 00	 ret	 12			; 0000000cH
?GetUserPos@CArcaBattle@@QAEHHAAE0@Z ENDP		; CArcaBattle::GetUserPos
_TEXT	ENDS
; Function compile flags: /Ogtp
; File c:\users\michel\desktop\source\gameserver\source\arcabattle.cpp
;	COMDAT ?GetGuildMasterGateNum@CArcaBattle@@QAEHH@Z
_TEXT	SEGMENT
_nGuildNum$ = 8						; size = 4
?GetGuildMasterGateNum@CArcaBattle@@QAEHH@Z PROC	; CArcaBattle::GetGuildMasterGateNum, COMDAT
; _this$ = ecx

; 2880 : {

  00000	55		 push	 ebp
  00001	8b ec		 mov	 ebp, esp
  00003	56		 push	 esi

; 2881 : 	for( int i = 0; i < AB_MAX_GATE; i++ )

  00004	8b 75 08	 mov	 esi, DWORD PTR _nGuildNum$[ebp]
  00007	8d 91 44 75 02
	00		 lea	 edx, DWORD PTR [ecx+161092]
  0000d	33 c0		 xor	 eax, eax
  0000f	90		 npad	 1
$LL4@GetGuildMa:

; 2882 : 	{
; 2883 : 		if( this->m_stGMasterGateNum[i].nGuildNum == nGuildNum )

  00010	39 32		 cmp	 DWORD PTR [edx], esi
  00012	74 11		 je	 SHORT $LN8@GetGuildMa

; 2881 : 	for( int i = 0; i < AB_MAX_GATE; i++ )

  00014	40		 inc	 eax
  00015	83 c2 08	 add	 edx, 8
  00018	83 f8 0a	 cmp	 eax, 10			; 0000000aH
  0001b	7c f3		 jl	 SHORT $LL4@GetGuildMa

; 2886 : 		}
; 2887 : 	}
; 2888 : 	// ----
; 2889 : 	return -1;

  0001d	83 c8 ff	 or	 eax, -1
  00020	5e		 pop	 esi

; 2890 : }

  00021	5d		 pop	 ebp
  00022	c2 04 00	 ret	 4
$LN8@GetGuildMa:

; 2884 : 		{
; 2885 : 			return this->m_stGMasterGateNum[i].nGateNum;

  00025	8b 84 c1 48 75
	02 00		 mov	 eax, DWORD PTR [ecx+eax*8+161096]
  0002c	5e		 pop	 esi

; 2890 : }

  0002d	5d		 pop	 ebp
  0002e	c2 04 00	 ret	 4
?GetGuildMasterGateNum@CArcaBattle@@QAEHH@Z ENDP	; CArcaBattle::GetGuildMasterGateNum
_TEXT	ENDS
; Function compile flags: /Ogtp
; File c:\users\michel\desktop\source\gameserver\source\arcabattle.cpp
;	COMDAT ?SetGuildMasterGateNum@CArcaBattle@@QAEXHH@Z
_TEXT	SEGMENT
_nGateNum$ = 8						; size = 4
_nGuildNum$ = 12					; size = 4
?SetGuildMasterGateNum@CArcaBattle@@QAEXHH@Z PROC	; CArcaBattle::SetGuildMasterGateNum, COMDAT
; _this$ = ecx

; 2852 : {

  00000	55		 push	 ebp
  00001	8b ec		 mov	 ebp, esp
  00003	53		 push	 ebx
  00004	8b d9		 mov	 ebx, ecx
  00006	56		 push	 esi
  00007	57		 push	 edi

; 2853 : 	int nBlank = -1;

  00008	8b 7d 0c	 mov	 edi, DWORD PTR _nGuildNum$[ebp]
  0000b	83 ce ff	 or	 esi, -1

; 2854 : 	// ----
; 2855 : 	for( int i = 0; i < AB_MAX_GATE; i++ )

  0000e	33 c0		 xor	 eax, eax
  00010	8d 93 44 75 02
	00		 lea	 edx, DWORD PTR [ebx+161092]
$LL4@SetGuildMa:

; 2856 : 	{
; 2857 : 		if( this->m_stGMasterGateNum[i].nGuildNum == nGuildNum )

  00016	8b 0a		 mov	 ecx, DWORD PTR [edx]
  00018	3b cf		 cmp	 ecx, edi
  0001a	74 21		 je	 SHORT $LN10@SetGuildMa

; 2860 : 			return;
; 2861 : 		}
; 2862 : 		// ----
; 2863 : 		if( nBlank < 0 )

  0001c	85 f6		 test	 esi, esi
  0001e	0f 48 f0	 cmovs	 esi, eax

; 2864 : 		{
; 2865 : 			nBlank = i;
; 2866 : 		}
; 2867 : 		// ----
; 2868 : 		if( this->m_stGMasterGateNum[i].nGuildNum == -1 )

  00021	83 f9 ff	 cmp	 ecx, -1
  00024	74 10		 je	 SHORT $LN11@SetGuildMa

; 2854 : 	// ----
; 2855 : 	for( int i = 0; i < AB_MAX_GATE; i++ )

  00026	40		 inc	 eax
  00027	83 c2 08	 add	 edx, 8
  0002a	83 f8 0a	 cmp	 eax, 10			; 0000000aH
  0002d	7c e7		 jl	 SHORT $LL4@SetGuildMa
  0002f	5f		 pop	 edi
  00030	5e		 pop	 esi
  00031	5b		 pop	 ebx

; 2871 : 			this->m_stGMasterGateNum[i].nGateNum	= nGateNum;
; 2872 : 			return;
; 2873 : 		}
; 2874 : 	}
; 2875 : }

  00032	5d		 pop	 ebp
  00033	c2 08 00	 ret	 8
$LN11@SetGuildMa:

; 2869 : 		{
; 2870 : 			this->m_stGMasterGateNum[i].nGuildNum	= nGuildNum;

  00036	89 bc c3 44 75
	02 00		 mov	 DWORD PTR [ebx+eax*8+161092], edi
$LN10@SetGuildMa:

; 2858 : 		{
; 2859 : 			this->m_stGMasterGateNum[i].nGateNum = nGateNum;

  0003d	8b 4d 08	 mov	 ecx, DWORD PTR _nGateNum$[ebp]
  00040	5f		 pop	 edi
  00041	5e		 pop	 esi
  00042	89 8c c3 48 75
	02 00		 mov	 DWORD PTR [ebx+eax*8+161096], ecx
  00049	5b		 pop	 ebx

; 2871 : 			this->m_stGMasterGateNum[i].nGateNum	= nGateNum;
; 2872 : 			return;
; 2873 : 		}
; 2874 : 	}
; 2875 : }

  0004a	5d		 pop	 ebp
  0004b	c2 08 00	 ret	 8
?SetGuildMasterGateNum@CArcaBattle@@QAEXHH@Z ENDP	; CArcaBattle::SetGuildMasterGateNum
_TEXT	ENDS
; Function compile flags: /Ogtp
; File c:\users\michel\desktop\source\gameserver\source\arcabattle.cpp
;	COMDAT ?GetGuildMasterPos@CArcaBattle@@QAEHAAUOBJECTSTRUCT@@HAAE1@Z
_TEXT	SEGMENT
_iMasterIndex$1$ = -8					; size = 4
_this$1$ = -4						; size = 4
tv359 = 8						; size = 4
_obj$ = 8						; size = 4
_attr$1$ = 11						; size = 1
_nGateNum$ = 12						; size = 4
_x$ = 16						; size = 4
_y$ = 20						; size = 4
?GetGuildMasterPos@CArcaBattle@@QAEHAAUOBJECTSTRUCT@@HAAE1@Z PROC ; CArcaBattle::GetGuildMasterPos, COMDAT
; _this$ = ecx

; 2792 : {

  00000	55		 push	 ebp
  00001	8b ec		 mov	 ebp, esp
  00003	83 ec 08	 sub	 esp, 8
  00006	53		 push	 ebx
  00007	56		 push	 esi

; 2793 : 	if( obj.lpGuild == NULL )

  00008	8b 75 08	 mov	 esi, DWORD PTR _obj$[ebp]
  0000b	8b d9		 mov	 ebx, ecx
  0000d	89 5d fc	 mov	 DWORD PTR _this$1$[ebp], ebx
  00010	83 be 18 06 00
	00 00		 cmp	 DWORD PTR [esi+1560], 0
  00017	74 47		 je	 SHORT $LN26@GetGuildMa

; 2794 : 	{
; 2795 : 		return false;
; 2796 : 	}
; 2797 : 	// ----
; 2798 : 	BYTE attr = MapC[obj.MapNumber].GetAttr(obj.X, obj.Y);

  00019	0f b6 86 21 01
	00 00		 movzx	 eax, BYTE PTR [esi+289]
  00020	50		 push	 eax
  00021	0f b6 86 20 01
	00 00		 movzx	 eax, BYTE PTR [esi+288]
  00028	50		 push	 eax
  00029	0f b6 86 23 01
	00 00		 movzx	 eax, BYTE PTR [esi+291]
  00030	69 c8 28 38 05
	00		 imul	 ecx, eax, 342056
  00036	81 c1 00 00 00
	00		 add	 ecx, OFFSET ?MapC@@3PAVMapClass@@A ; MapC
  0003c	e8 00 00 00 00	 call	 ?GetAttr@MapClass@@QAEEHH@Z ; MapClass::GetAttr

; 2799 : 	// ----
; 2800 : 	if( obj.GuildStatus == GUILD_MASTER )

  00041	81 be 28 06 00
	00 80 00 00 00	 cmp	 DWORD PTR [esi+1576], 128 ; 00000080H
  0004b	88 45 0b	 mov	 BYTE PTR _attr$1$[ebp], al
  0004e	75 1a		 jne	 SHORT $LN6@GetGuildMa

; 2801 : 	{
; 2802 : 		this->SetGuildMasterGateNum(nGateNum, obj.GuildNumber);

  00050	ff b6 14 06 00
	00		 push	 DWORD PTR [esi+1556]
  00056	8b cb		 mov	 ecx, ebx
  00058	ff 75 0c	 push	 DWORD PTR _nGateNum$[ebp]
  0005b	e8 00 00 00 00	 call	 ?SetGuildMasterGateNum@CArcaBattle@@QAEXHH@Z ; CArcaBattle::SetGuildMasterGateNum
$LN26@GetGuildMa:

; 2803 : 		return false;

  00060	5e		 pop	 esi
  00061	33 c0		 xor	 eax, eax
  00063	5b		 pop	 ebx

; 2847 : }

  00064	8b e5		 mov	 esp, ebp
  00066	5d		 pop	 ebp
  00067	c2 10 00	 ret	 16			; 00000010H
$LN6@GetGuildMa:

; 2804 : 	}
; 2805 : 	// ----
; 2806 : 	if( gObjCheckUsedBuffEffect(&obj, 184) == true ) //Reward?

  0006a	68 b8 00 00 00	 push	 184			; 000000b8H
  0006f	56		 push	 esi
  00070	e8 00 00 00 00	 call	 ?gObjCheckUsedBuffEffect@@YA_NPAUOBJECTSTRUCT@@H@Z ; gObjCheckUsedBuffEffect
  00075	83 c4 08	 add	 esp, 8
  00078	3c 01		 cmp	 al, 1
  0007a	74 e4		 je	 SHORT $LN26@GetGuildMa

; 2807 : 	{
; 2808 : 		return false;
; 2809 : 	}
; 2810 : 	// ----
; 2811 : 	if( !(attr & 1) )

  0007c	f6 45 0b 01	 test	 BYTE PTR _attr$1$[ebp], 1
  00080	74 de		 je	 SHORT $LN26@GetGuildMa

; 2812 : 	{
; 2813 : 		return false;
; 2814 : 	}
; 2815 : 	// ----
; 2816 : 	for( int n = 0; n < obj.lpGuild->Count; n++ )

  00082	8b 8e 18 06 00
	00		 mov	 ecx, DWORD PTR [esi+1560]
  00088	33 db		 xor	 ebx, ebx
  0008a	57		 push	 edi
  0008b	38 59 2d	 cmp	 BYTE PTR [ecx+45], bl
  0008e	0f 86 d8 00 00
	00		 jbe	 $LN3@GetGuildMa
  00094	b8 a0 03 00 00	 mov	 eax, 928		; 000003a0H
  00099	bf 00 06 00 00	 mov	 edi, 1536		; 00000600H
  0009e	89 45 08	 mov	 DWORD PTR tv359[ebp], eax
$LL4@GetGuildMa:

; 2817 : 	{
; 2818 : 		if( obj.lpGuild->GuildStatus[n] == GUILD_MASTER )

  000a1	81 3c 0f 80 00
	00 00		 cmp	 DWORD PTR [edi+ecx], 128 ; 00000080H
  000a8	75 18		 jne	 SHORT $LN2@GetGuildMa

; 2819 : 		{
; 2820 : 			int iMasterIndex = obj.lpGuild->Index[n];

  000aa	0f bf 04 08	 movsx	 eax, WORD PTR [eax+ecx]

; 2821 : 			// ----
; 2822 : 			if( gObjIsConnected(iMasterIndex) == 1 )

  000ae	50		 push	 eax
  000af	89 45 f8	 mov	 DWORD PTR _iMasterIndex$1$[ebp], eax
  000b2	e8 00 00 00 00	 call	 ?gObjIsConnected@@YAHH@Z ; gObjIsConnected
  000b7	83 c4 04	 add	 esp, 4
  000ba	83 f8 01	 cmp	 eax, 1
  000bd	74 24		 je	 SHORT $LN22@GetGuildMa
  000bf	8b 45 08	 mov	 eax, DWORD PTR tv359[ebp]
$LN2@GetGuildMa:

; 2812 : 	{
; 2813 : 		return false;
; 2814 : 	}
; 2815 : 	// ----
; 2816 : 	for( int n = 0; n < obj.lpGuild->Count; n++ )

  000c2	8b 8e 18 06 00
	00		 mov	 ecx, DWORD PTR [esi+1560]
  000c8	83 c0 02	 add	 eax, 2
  000cb	89 45 08	 mov	 DWORD PTR tv359[ebp], eax
  000ce	43		 inc	 ebx
  000cf	83 c7 04	 add	 edi, 4
  000d2	0f b6 41 2d	 movzx	 eax, BYTE PTR [ecx+45]
  000d6	3b d8		 cmp	 ebx, eax
  000d8	0f 8d 8e 00 00
	00		 jge	 $LN3@GetGuildMa
  000de	8b 45 08	 mov	 eax, DWORD PTR tv359[ebp]
  000e1	eb be		 jmp	 SHORT $LL4@GetGuildMa
$LN22@GetGuildMa:

; 2823 : 			{
; 2824 : 				attr = MapC[gObj[iMasterIndex].MapNumber].GetAttr(gObj[iMasterIndex].X, gObj[iMasterIndex].Y);

  000e3	8b 7d f8	 mov	 edi, DWORD PTR _iMasterIndex$1$[ebp]
  000e6	69 cf 40 27 00
	00		 imul	 ecx, edi, 10048
  000ec	03 0d 00 00 00
	00		 add	 ecx, DWORD PTR ?gObj@@3PAUOBJECTSTRUCT@@A ; gObj
  000f2	0f b6 81 21 01
	00 00		 movzx	 eax, BYTE PTR [ecx+289]
  000f9	50		 push	 eax
  000fa	0f b6 81 20 01
	00 00		 movzx	 eax, BYTE PTR [ecx+288]
  00101	50		 push	 eax
  00102	0f b6 81 23 01
	00 00		 movzx	 eax, BYTE PTR [ecx+291]
  00109	69 c8 28 38 05
	00		 imul	 ecx, eax, 342056
  0010f	81 c1 00 00 00
	00		 add	 ecx, OFFSET ?MapC@@3PAVMapClass@@A ; MapC
  00115	e8 00 00 00 00	 call	 ?GetAttr@MapClass@@QAEEHH@Z ; MapClass::GetAttr

; 2825 : 				// ----
; 2826 : 				if( (attr & 1) )
; 2827 : 				{
; 2828 : 					if( this->GetGuildMasterGateNum(obj.GuildNumber) != nGateNum )

  0011a	ff b6 14 06 00
	00		 push	 DWORD PTR [esi+1556]
  00120	a8 01		 test	 al, 1
  00122	74 56		 je	 SHORT $LN18@GetGuildMa
  00124	8b 5d fc	 mov	 ebx, DWORD PTR _this$1$[ebp]
  00127	8b cb		 mov	 ecx, ebx
  00129	e8 00 00 00 00	 call	 ?GetGuildMasterGateNum@CArcaBattle@@QAEHH@Z ; CArcaBattle::GetGuildMasterGateNum
  0012e	3b 45 0c	 cmp	 eax, DWORD PTR _nGateNum$[ebp]
  00131	75 51		 jne	 SHORT $LN25@GetGuildMa

; 2829 : 					{
; 2830 : 						return false;
; 2831 : 					}
; 2832 : 					// ----
; 2833 : 					this->GetBoxPosition(gObj[iMasterIndex].MapNumber, gObj[iMasterIndex].X, gObj[iMasterIndex].Y, 

  00133	ff 75 14	 push	 DWORD PTR _y$[ebp]
  00136	69 f7 40 27 00
	00		 imul	 esi, edi, 10048
  0013c	ff 75 10	 push	 DWORD PTR _x$[ebp]
  0013f	03 35 00 00 00
	00		 add	 esi, DWORD PTR ?gObj@@3PAUOBJECTSTRUCT@@A ; gObj
  00145	0f b6 8e 21 01
	00 00		 movzx	 ecx, BYTE PTR [esi+289]
  0014c	0f b6 96 20 01
	00 00		 movzx	 edx, BYTE PTR [esi+288]
  00153	8d 41 03	 lea	 eax, DWORD PTR [ecx+3]
  00156	50		 push	 eax
  00157	8d 42 03	 lea	 eax, DWORD PTR [edx+3]
  0015a	50		 push	 eax
  0015b	0f b6 86 23 01
	00 00		 movzx	 eax, BYTE PTR [esi+291]
  00162	51		 push	 ecx
  00163	52		 push	 edx
  00164	50		 push	 eax
  00165	8b cb		 mov	 ecx, ebx
  00167	e8 00 00 00 00	 call	 ?GetBoxPosition@CArcaBattle@@QAEHHHHHHAAE0@Z ; CArcaBattle::GetBoxPosition
$LN3@GetGuildMa:

; 2841 : 				}
; 2842 : 			}
; 2843 : 		}
; 2844 : 	}
; 2845 : 	// ----
; 2846 : 	return true;

  0016c	5f		 pop	 edi
  0016d	5e		 pop	 esi
  0016e	b8 01 00 00 00	 mov	 eax, 1
  00173	5b		 pop	 ebx

; 2847 : }

  00174	8b e5		 mov	 esp, ebp
  00176	5d		 pop	 ebp
  00177	c2 10 00	 ret	 16			; 00000010H
$LN18@GetGuildMa:

; 2834 : 						gObj[iMasterIndex].X + 3, gObj[iMasterIndex].Y + 3, x, y);
; 2835 : 					return true;
; 2836 : 				}
; 2837 : 				else if( !(attr & 1) )
; 2838 : 				{
; 2839 : 					this->SetGuildMasterGateNum(0, obj.GuildNumber);

  0017a	8b 4d fc	 mov	 ecx, DWORD PTR _this$1$[ebp]
  0017d	6a 00		 push	 0
  0017f	e8 00 00 00 00	 call	 ?SetGuildMasterGateNum@CArcaBattle@@QAEXHH@Z ; CArcaBattle::SetGuildMasterGateNum
$LN25@GetGuildMa:

; 2840 : 					return false;

  00184	5f		 pop	 edi
  00185	5e		 pop	 esi
  00186	33 c0		 xor	 eax, eax
  00188	5b		 pop	 ebx

; 2847 : }

  00189	8b e5		 mov	 esp, ebp
  0018b	5d		 pop	 ebp
  0018c	c2 10 00	 ret	 16			; 00000010H
?GetGuildMasterPos@CArcaBattle@@QAEHAAUOBJECTSTRUCT@@HAAE1@Z ENDP ; CArcaBattle::GetGuildMasterPos
_TEXT	ENDS
; Function compile flags: /Ogtp
; File c:\users\michel\desktop\source\gameserver\source\arcabattle.cpp
;	COMDAT ?IsOccupyObelisk@CArcaBattle@@QAEHAAUOBJECTSTRUCT@@H@Z
_TEXT	SEGMENT
_obj$GSCopy$1$ = -280					; size = 4
_pMsg$1 = -276						; size = 272
__$ArrayPad$ = -4					; size = 4
_obj$ = 8						; size = 4
_iMonIndex$ = 12					; size = 4
?IsOccupyObelisk@CArcaBattle@@QAEHAAUOBJECTSTRUCT@@H@Z PROC ; CArcaBattle::IsOccupyObelisk, COMDAT
; _this$ = ecx

; 1947 : {

  00000	55		 push	 ebp
  00001	8b ec		 mov	 ebp, esp
  00003	81 ec 18 01 00
	00		 sub	 esp, 280		; 00000118H
  00009	a1 00 00 00 00	 mov	 eax, DWORD PTR ___security_cookie
  0000e	33 c5		 xor	 eax, ebp
  00010	89 45 fc	 mov	 DWORD PTR __$ArrayPad$[ebp], eax
  00013	8b 45 08	 mov	 eax, DWORD PTR _obj$[ebp]
  00016	53		 push	 ebx
  00017	8b d9		 mov	 ebx, ecx
  00019	89 85 e8 fe ff
	ff		 mov	 DWORD PTR _obj$GSCopy$1$[ebp], eax
  0001f	56		 push	 esi

; 1948 : 	for( int i = 0; i < this->m_iObeliskCnt; i++ )

  00020	33 f6		 xor	 esi, esi
  00022	8b 93 ac 34 00
	00		 mov	 edx, DWORD PTR [ebx+13484]
  00028	85 d2		 test	 edx, edx
  0002a	7e 15		 jle	 SHORT $LN3@IsOccupyOb
  0002c	8b 4d 0c	 mov	 ecx, DWORD PTR _iMonIndex$[ebp]
  0002f	8d 83 f4 2f 00
	00		 lea	 eax, DWORD PTR [ebx+12276]
$LL4@IsOccupyOb:

; 1949 : 	{
; 1950 : 		if( iMonIndex == this->m_stObeliskInfo[i].m_iMonsterNum )

  00035	3b 08		 cmp	 ecx, DWORD PTR [eax]
  00037	74 1c		 je	 SHORT $LN10@IsOccupyOb

; 1948 : 	for( int i = 0; i < this->m_iObeliskCnt; i++ )

  00039	46		 inc	 esi
  0003a	83 c0 58	 add	 eax, 88			; 00000058H
  0003d	3b f2		 cmp	 esi, edx
  0003f	7c f4		 jl	 SHORT $LL4@IsOccupyOb
$LN3@IsOccupyOb:
  00041	5e		 pop	 esi

; 1963 : 				obj.AccountID, obj.Name, obj.GuildName, this->m_stObeliskState[i].m_iGroupNumber);
; 1964 : 			return true;
; 1965 : 		}
; 1966 : 	}
; 1967 : 	// ----
; 1968 : 	return false;

  00042	33 c0		 xor	 eax, eax
  00044	5b		 pop	 ebx

; 1969 : }

  00045	8b 4d fc	 mov	 ecx, DWORD PTR __$ArrayPad$[ebp]
  00048	33 cd		 xor	 ecx, ebp
  0004a	e8 00 00 00 00	 call	 @__security_check_cookie@4
  0004f	8b e5		 mov	 esp, ebp
  00051	5d		 pop	 ebp
  00052	c2 08 00	 ret	 8
$LN10@IsOccupyOb:
  00055	57		 push	 edi

; 1951 : 		{
; 1952 : 			PMSG_NOTICE pMsg;	//Need check conversion
; 1953 : 			TNotice::MakeNoticeMsgEx(&pMsg, 0, "L-+- + --L++-.");

  00056	68 00 00 00 00	 push	 OFFSET ??_C@_0BO@LBLMIIED@?$KML?$KG?g?$KM?n?9?$KG?$CL?i?9?a?5?$CL?a?$KM?c?5?$KG?$KG?9?$LH?9L?$CL?$KG?$CL?9?4?$AA@
  0005b	8d 85 ec fe ff
	ff		 lea	 eax, DWORD PTR _pMsg$1[ebp]
  00061	6a 00		 push	 0
  00063	50		 push	 eax
  00064	e8 00 00 00 00	 call	 ?MakeNoticeMsgEx@TNotice@@SAXPAXEPADZZ ; TNotice::MakeNoticeMsgEx

; 1954 : 			TNotice::SetNoticeProperty(&pMsg, 0, _ARGB(-1, -1, 0xC8, 0x50), 1, 0, 20);

  00069	6a 14		 push	 20			; 00000014H
  0006b	6a 00		 push	 0
  0006d	6a 01		 push	 1
  0006f	68 ff c8 50 ff	 push	 -11482881		; ff50c8ffH
  00074	8d 85 ec fe ff
	ff		 lea	 eax, DWORD PTR _pMsg$1[ebp]
  0007a	6a 00		 push	 0
  0007c	50		 push	 eax
  0007d	e8 00 00 00 00	 call	 ?SetNoticeProperty@TNotice@@SAXPAXEKEGE@Z ; TNotice::SetNoticeProperty

; 1955 : 			TNotice::SendNoticeToAllUser(&pMsg);

  00082	8d 85 ec fe ff
	ff		 lea	 eax, DWORD PTR _pMsg$1[ebp]
  00088	50		 push	 eax
  00089	e8 00 00 00 00	 call	 ?SendNoticeToAllUser@TNotice@@SAXPAX@Z ; TNotice::SendNoticeToAllUser

; 1956 : 			// ----
; 1957 : 			this->m_stObeliskState[i].m_iObeliskState	= AB_OBSTATE_OCCUPY;
; 1958 : 			this->m_stObeliskState[i].m_iOccupyGuildNum = obj.GuildNumber;

  0008e	8b 85 e8 fe ff
	ff		 mov	 eax, DWORD PTR _obj$GSCopy$1$[ebp]
  00094	6b fe 54	 imul	 edi, esi, 84
  00097	03 fb		 add	 edi, ebx
  00099	c7 87 a0 31 00
	00 01 00 00 00	 mov	 DWORD PTR [edi+12704], 1
  000a3	8b 80 14 06 00
	00		 mov	 eax, DWORD PTR [eax+1556]
  000a9	89 87 a4 31 00
	00		 mov	 DWORD PTR [edi+12708], eax

; 1959 : 			this->m_stObeliskState[i].m_iGroupNumber	= this->m_stObeliskInfo[i].m_iGroupNumber;

  000af	6b c6 58	 imul	 eax, esi, 88
  000b2	8b 94 18 d8 2f
	00 00		 mov	 edx, DWORD PTR [eax+ebx+12248]

; 1960 : 			memcpy(this->m_stObeliskState[i].m_szOccupyGuildName, obj.GuildName, 9);

  000b9	8b 9d e8 fe ff
	ff		 mov	 ebx, DWORD PTR _obj$GSCopy$1$[ebp]
  000bf	8d 8b 1c 06 00
	00		 lea	 ecx, DWORD PTR [ebx+1564]
  000c5	89 97 90 31 00
	00		 mov	 DWORD PTR [edi+12688], edx
  000cb	f3 0f 7e 01	 movq	 xmm0, QWORD PTR [ecx]
  000cf	66 0f d6 87 a8
	31 00 00	 movq	 QWORD PTR [edi+12712], xmm0
  000d7	8a 41 08	 mov	 al, BYTE PTR [ecx+8]

; 1961 : 			// ----
; 1962 : 			LogAddTD("[ArcaBattle] Occupy Obelisk In ArcaBattle Progress  [%s][%s][%s] ObeliskGroup:[%d]",

  000da	52		 push	 edx
  000db	88 87 b0 31 00
	00		 mov	 BYTE PTR [edi+12720], al
  000e1	8d 43 5d	 lea	 eax, DWORD PTR [ebx+93]
  000e4	51		 push	 ecx
  000e5	50		 push	 eax
  000e6	8d 43 52	 lea	 eax, DWORD PTR [ebx+82]
  000e9	50		 push	 eax
  000ea	68 00 00 00 00	 push	 OFFSET ??_C@_0FD@MDCNGBPL@?$FLArcaBattle?$FN?5Occupy?5Obelisk?5In?5A@
  000ef	ff 15 00 00 00
	00		 call	 DWORD PTR ?LogAddTD@@3P6AXPADZZA ; LogAddTD

; 1969 : }

  000f5	8b 4d fc	 mov	 ecx, DWORD PTR __$ArrayPad$[ebp]
  000f8	83 c4 3c	 add	 esp, 60			; 0000003cH
  000fb	33 cd		 xor	 ecx, ebp
  000fd	b8 01 00 00 00	 mov	 eax, 1
  00102	5f		 pop	 edi
  00103	5e		 pop	 esi
  00104	5b		 pop	 ebx
  00105	e8 00 00 00 00	 call	 @__security_check_cookie@4
  0010a	8b e5		 mov	 esp, ebp
  0010c	5d		 pop	 ebp
  0010d	c2 08 00	 ret	 8
?IsOccupyObelisk@CArcaBattle@@QAEHAAUOBJECTSTRUCT@@H@Z ENDP ; CArcaBattle::IsOccupyObelisk
_TEXT	ENDS
; Function compile flags: /Ogtp
; File c:\users\michel\desktop\source\gameserver\source\arcabattle.cpp
;	COMDAT ?IsEnableAttackObelisk@CArcaBattle@@QAEHAAUOBJECTSTRUCT@@H@Z
_TEXT	SEGMENT
_obj$ = 8						; size = 4
_iMonNumber$ = 12					; size = 4
?IsEnableAttackObelisk@CArcaBattle@@QAEHAAUOBJECTSTRUCT@@H@Z PROC ; CArcaBattle::IsEnableAttackObelisk, COMDAT
; _this$ = ecx

; 1804 : {

  00000	55		 push	 ebp
  00001	8b ec		 mov	 ebp, esp
  00003	56		 push	 esi
  00004	57		 push	 edi
  00005	8b b9 ac 34 00
	00		 mov	 edi, DWORD PTR [ecx+13484]

; 1805 : 	int i;
; 1806 : 	_tagOBELISK_STATE * pObelskState = NULL;

  0000b	33 f6		 xor	 esi, esi

; 1807 : 	// ----
; 1808 : 	for( i = 0; i < this->m_iObeliskCnt; i++ )

  0000d	85 ff		 test	 edi, edi
  0000f	7e 50		 jle	 SHORT $LN15@IsEnableAt

; 1805 : 	int i;
; 1806 : 	_tagOBELISK_STATE * pObelskState = NULL;

  00011	53		 push	 ebx
  00012	8b 5d 0c	 mov	 ebx, DWORD PTR _iMonNumber$[ebp]
  00015	8d 81 90 31 00
	00		 lea	 eax, DWORD PTR [ecx+12688]
  0001b	8d 91 f4 2f 00
	00		 lea	 edx, DWORD PTR [ecx+12276]
$LL4@IsEnableAt:

; 1809 : 	{
; 1810 : 		if( this->m_stObeliskInfo[i].m_iMonsterNum == iMonNumber )

  00021	39 1a		 cmp	 DWORD PTR [edx], ebx
  00023	8d 52 58	 lea	 edx, DWORD PTR [edx+88]
  00026	0f 44 f0	 cmove	 esi, eax
  00029	83 c0 54	 add	 eax, 84			; 00000054H
  0002c	83 ef 01	 sub	 edi, 1
  0002f	75 f0		 jne	 SHORT $LL4@IsEnableAt

; 1811 : 		{
; 1812 : 			pObelskState = &this->m_stObeliskState[i];
; 1813 : 		}
; 1814 : 	}
; 1815 : 	// ----
; 1816 : 	if( pObelskState == NULL )

  00031	5b		 pop	 ebx
  00032	85 f6		 test	 esi, esi
  00034	74 2b		 je	 SHORT $LN15@IsEnableAt

; 1819 : 	}
; 1820 : 	// ----
; 1821 : 	if( this->GetState() != AB_STATE_PLAY )

  00036	e8 00 00 00 00	 call	 ?GetState@CArcaBattle@@QAEHXZ ; CArcaBattle::GetState
  0003b	83 f8 07	 cmp	 eax, 7
  0003e	74 08		 je	 SHORT $LN7@IsEnableAt
$LN16@IsEnableAt:
  00040	5f		 pop	 edi

; 1822 : 	{
; 1823 : 		return false;

  00041	33 c0		 xor	 eax, eax
  00043	5e		 pop	 esi

; 1832 : 	{
; 1833 : 		return true;
; 1834 : 	}
; 1835 : 	// ----
; 1836 : 	return false;
; 1837 : }

  00044	5d		 pop	 ebp
  00045	c2 08 00	 ret	 8
$LN7@IsEnableAt:

; 1824 : 	}
; 1825 : 	// ----
; 1826 : 	if( pObelskState->m_iOccupyGuildNum == obj.GuildNumber )

  00048	8b 45 08	 mov	 eax, DWORD PTR _obj$[ebp]
  0004b	8b 80 14 06 00
	00		 mov	 eax, DWORD PTR [eax+1556]
  00051	39 46 14	 cmp	 DWORD PTR [esi+20], eax
  00054	74 ea		 je	 SHORT $LN16@IsEnableAt

; 1827 : 	{
; 1828 : 		return false;
; 1829 : 	}
; 1830 : 	// ----
; 1831 : 	if( pObelskState->m_iAuraState == 2 && pObelskState->m_iAuraReleaseGuildNum == obj.GuildNumber )

  00056	83 7e 08 02	 cmp	 DWORD PTR [esi+8], 2
  0005a	75 e4		 jne	 SHORT $LN16@IsEnableAt
  0005c	39 46 0c	 cmp	 DWORD PTR [esi+12], eax
  0005f	75 df		 jne	 SHORT $LN16@IsEnableAt
$LN15@IsEnableAt:
  00061	5f		 pop	 edi

; 1817 : 	{
; 1818 : 		return true;

  00062	b8 01 00 00 00	 mov	 eax, 1
  00067	5e		 pop	 esi

; 1832 : 	{
; 1833 : 		return true;
; 1834 : 	}
; 1835 : 	// ----
; 1836 : 	return false;
; 1837 : }

  00068	5d		 pop	 ebp
  00069	c2 08 00	 ret	 8
?IsEnableAttackObelisk@CArcaBattle@@QAEHAAUOBJECTSTRUCT@@H@Z ENDP ; CArcaBattle::IsEnableAttackObelisk
_TEXT	ENDS
; Function compile flags: /Ogtp
; File c:\users\michel\desktop\source\gameserver\source\arcabattle.cpp
; File c:\users\michel\desktop\source\gameserver\source\arcabattleprotocol.h
; File c:\users\michel\desktop\source\gameserver\source\arcabattle.cpp
; File c:\users\michel\desktop\source\gameserver\source\arcabattleprotocol.h
; File c:\users\michel\desktop\source\gameserver\source\arcabattle.cpp
;	COMDAT ?ChkAuraUserHover@CArcaBattle@@QAEXXZ
_TEXT	SEGMENT
_this$GSCopy$1$ = -36					; size = 4
tv2511 = -32						; size = 4
_i$2$ = -32						; size = 4
tv2528 = -28						; size = 4
_i$4$ = -28						; size = 4
tv2524 = -24						; size = 4
tv2510 = -24						; size = 4
tv2509 = -20						; size = 4
_n$1$ = -20						; size = 4
tv2526 = -16						; size = 4
tv2512 = -16						; size = 4
_i$3$ = -16						; size = 4
_pMsg$ = -12						; size = 8
__$ArrayPad$ = -4					; size = 4
?ChkAuraUserHover@CArcaBattle@@QAEXXZ PROC		; CArcaBattle::ChkAuraUserHover, COMDAT
; _this$ = ecx

; 1639 : {

  00000	55		 push	 ebp
  00001	8b ec		 mov	 ebp, esp
  00003	83 ec 24	 sub	 esp, 36			; 00000024H
  00006	a1 00 00 00 00	 mov	 eax, DWORD PTR ___security_cookie
  0000b	33 c5		 xor	 eax, ebp
  0000d	89 45 fc	 mov	 DWORD PTR __$ArrayPad$[ebp], eax
  00010	53		 push	 ebx
  00011	56		 push	 esi
  00012	8b f1		 mov	 esi, ecx
; File c:\users\michel\desktop\source\gameserver\source\arcabattleprotocol.h

; 39   : 		this->m_btObeliskAttribute = 0;

  00014	c6 45 f8 00	 mov	 BYTE PTR _pMsg$[ebp+4], 0

; 43   : 			this->m_btAuraState[i] = 0;

  00018	33 c0		 xor	 eax, eax
; File c:\users\michel\desktop\source\gameserver\source\arcabattle.cpp

; 1639 : {

  0001a	89 75 dc	 mov	 DWORD PTR _this$GSCopy$1$[ebp], esi

; 1661 : 	for( i = 0; i < this->m_iObeliskCnt; i++ )

  0001d	33 c9		 xor	 ecx, ecx
; File c:\users\michel\desktop\source\gameserver\source\arcabattleprotocol.h

; 43   : 			this->m_btAuraState[i] = 0;

  0001f	66 89 45 f9	 mov	 WORD PTR _pMsg$[ebp+5], ax
  00023	57		 push	 edi
  00024	88 45 fb	 mov	 BYTE PTR _pMsg$[ebp+7], al
; File c:\users\michel\desktop\source\gameserver\source\arcabattle.cpp

; 1661 : 	for( i = 0; i < this->m_iObeliskCnt; i++ )

  00027	39 86 ac 34 00
	00		 cmp	 DWORD PTR [esi+13484], eax
  0002d	7e 45		 jle	 SHORT $LN3@ChkAuraUse
  0002f	8d 86 b8 31 00
	00		 lea	 eax, DWORD PTR [esi+12728]
  00035	66 66 66 0f 1f
	84 00 00 00 00
	00		 npad	 11
$LL4@ChkAuraUse:

; 1662 : 	{
; 1663 : 		this->m_stObeliskState[i].m_iAuraState = 0;	//#DEFINE

  00040	c7 40 e0 00 00
	00 00		 mov	 DWORD PTR [eax-32], 0
  00047	8d 40 54	 lea	 eax, DWORD PTR [eax+84]

; 1664 : 		// ----
; 1665 : 		for( j = 0; j < AB_MAX_AURAPOS; j++ )
; 1666 : 		{
; 1667 : 			this->m_stObeliskState[i].m_stAuraState[j].m_btAuraState		= 0;

  0004a	c6 40 ac 00	 mov	 BYTE PTR [eax-84], 0
  0004e	41		 inc	 ecx

; 1668 : 			this->m_stObeliskState[i].m_stAuraState[j].m_iHoverUserIndex	= 0;

  0004f	c7 40 b0 00 00
	00 00		 mov	 DWORD PTR [eax-80], 0
  00056	c6 40 bc 00	 mov	 BYTE PTR [eax-68], 0
  0005a	c7 40 c0 00 00
	00 00		 mov	 DWORD PTR [eax-64], 0
  00061	c6 40 cc 00	 mov	 BYTE PTR [eax-52], 0
  00065	c7 40 d0 00 00
	00 00		 mov	 DWORD PTR [eax-48], 0
  0006c	3b 8e ac 34 00
	00		 cmp	 ecx, DWORD PTR [esi+13484]
  00072	7c cc		 jl	 SHORT $LL4@ChkAuraUse
$LN3@ChkAuraUse:

; 1669 : 		}
; 1670 : 	}
; 1671 : 	// ----
; 1672 : 	for( n = OBJ_STARTUSERINDEX; n < OBJMAX; n++ )

  00074	b8 04 29 00 00	 mov	 eax, 10500		; 00002904H
  00079	bf 00 dd 49 06	 mov	 edi, 105504000		; 0649dd00H
  0007e	89 45 ec	 mov	 DWORD PTR _n$1$[ebp], eax
$LL10@ChkAuraUse:

; 1673 : 	{
; 1674 : 		lpObj = &gObj[n];

  00081	8b 1d 00 00 00
	00		 mov	 ebx, DWORD PTR ?gObj@@3PAUOBJECTSTRUCT@@A ; gObj

; 1675 : 		// ----
; 1676 : 		if( gObjIsConnected(n) == 1 && lpObj->Type == OBJ_USER )

  00087	50		 push	 eax
  00088	e8 00 00 00 00	 call	 ?gObjIsConnected@@YAHH@Z ; gObjIsConnected
  0008d	83 c4 04	 add	 esp, 4
  00090	83 f8 01	 cmp	 eax, 1
  00093	0f 85 d4 00 00
	00		 jne	 $LN8@ChkAuraUse
  00099	38 44 1f 50	 cmp	 BYTE PTR [edi+ebx+80], al
  0009d	0f 85 ca 00 00
	00		 jne	 $LN8@ChkAuraUse

; 1677 : 		{
; 1678 : 			for( i = 0; i < this->m_iObeliskCnt; i++ )

  000a3	83 be ac 34 00
	00 00		 cmp	 DWORD PTR [esi+13484], 0
  000aa	c7 45 e0 00 00
	00 00		 mov	 DWORD PTR _i$2$[ebp], 0
  000b1	0f 8e b6 00 00
	00		 jle	 $LN8@ChkAuraUse
  000b7	33 d2		 xor	 edx, edx
  000b9	8d 86 0c 30 00
	00		 lea	 eax, DWORD PTR [esi+12300]
  000bf	89 55 f0	 mov	 DWORD PTR tv2526[ebp], edx
  000c2	89 45 e8	 mov	 DWORD PTR tv2524[ebp], eax
$LL13@ChkAuraUse:

; 1679 : 			{
; 1680 : 				for( j = 0; j < AB_MAX_AURAPOS; j++ )

  000c5	33 c9		 xor	 ecx, ecx
  000c7	8b f0		 mov	 esi, eax
  000c9	89 4d e4	 mov	 DWORD PTR tv2528[ebp], ecx
  000cc	0f 1f 40 00	 npad	 4
$LL16@ChkAuraUse:

; 1681 : 				{
; 1682 : 					if(		this->m_stObeliskInfo[i].m_stAuraInfo[j].m_iAuraPosX == lpObj->X 
; 1683 : 						&&	this->m_stObeliskInfo[i].m_stAuraInfo[j].m_iAuraPosY == lpObj->Y )

  000d0	0f b6 84 1f 20
	01 00 00	 movzx	 eax, BYTE PTR [edi+ebx+288]
  000d8	39 46 fc	 cmp	 DWORD PTR [esi-4], eax
  000db	75 5f		 jne	 SHORT $LN14@ChkAuraUse
  000dd	0f b6 84 1f 21
	01 00 00	 movzx	 eax, BYTE PTR [edi+ebx+289]
  000e5	39 06		 cmp	 DWORD PTR [esi], eax
  000e7	75 53		 jne	 SHORT $LN14@ChkAuraUse

; 1684 : 					{
; 1685 : 						this->m_stObeliskState[i].m_stAuraState[j].m_btAuraState		= 1;	//#DEFINE

  000e9	8d 04 0a	 lea	 eax, DWORD PTR [edx+ecx]
  000ec	8b 4d dc	 mov	 ecx, DWORD PTR _this$GSCopy$1$[ebp]

; 1686 : 						this->m_stObeliskState[i].m_stAuraState[j].m_iHoverUserIndex	= n;

  000ef	8b 55 ec	 mov	 edx, DWORD PTR _n$1$[ebp]
  000f2	c6 84 08 b8 31
	00 00 01	 mov	 BYTE PTR [eax+ecx+12728], 1
  000fa	89 94 08 bc 31
	00 00		 mov	 DWORD PTR [eax+ecx+12732], edx

; 1687 : 						LogAddTD("[ArcaBattle] Obelisk foot hold [on][%s][%s][%s] : Pos X[%d] Y[%d]",

  00101	0f b6 84 1f 21
	01 00 00	 movzx	 eax, BYTE PTR [edi+ebx+289]
  00109	50		 push	 eax
  0010a	0f b6 84 1f 20
	01 00 00	 movzx	 eax, BYTE PTR [edi+ebx+288]
  00112	50		 push	 eax
  00113	8d 83 1c 06 00
	00		 lea	 eax, DWORD PTR [ebx+1564]
  00119	03 c7		 add	 eax, edi
  0011b	50		 push	 eax
  0011c	8d 43 5d	 lea	 eax, DWORD PTR [ebx+93]
  0011f	03 c7		 add	 eax, edi
  00121	50		 push	 eax
  00122	8d 43 52	 lea	 eax, DWORD PTR [ebx+82]
  00125	03 c7		 add	 eax, edi
  00127	50		 push	 eax
  00128	68 00 00 00 00	 push	 OFFSET ??_C@_0EC@EOEBKOG@?$FLArcaBattle?$FN?5Obelisk?5foot?5hold?5?$FL@
  0012d	ff 15 00 00 00
	00		 call	 DWORD PTR ?LogAddTD@@3P6AXPADZZA ; LogAddTD
  00133	8b 4d e4	 mov	 ecx, DWORD PTR tv2528[ebp]
  00136	83 c4 18	 add	 esp, 24			; 00000018H
  00139	8b 55 f0	 mov	 edx, DWORD PTR tv2526[ebp]
$LN14@ChkAuraUse:

; 1679 : 			{
; 1680 : 				for( j = 0; j < AB_MAX_AURAPOS; j++ )

  0013c	83 c1 10	 add	 ecx, 16			; 00000010H
  0013f	83 c6 10	 add	 esi, 16			; 00000010H
  00142	89 4d e4	 mov	 DWORD PTR tv2528[ebp], ecx
  00145	83 f9 30	 cmp	 ecx, 48			; 00000030H
  00148	7c 86		 jl	 SHORT $LL16@ChkAuraUse

; 1677 : 		{
; 1678 : 			for( i = 0; i < this->m_iObeliskCnt; i++ )

  0014a	8b 45 e0	 mov	 eax, DWORD PTR _i$2$[ebp]
  0014d	83 c2 54	 add	 edx, 84			; 00000054H
  00150	8b 75 dc	 mov	 esi, DWORD PTR _this$GSCopy$1$[ebp]
  00153	40		 inc	 eax
  00154	83 45 e8 58	 add	 DWORD PTR tv2524[ebp], 88 ; 00000058H
  00158	89 45 e0	 mov	 DWORD PTR _i$2$[ebp], eax
  0015b	89 55 f0	 mov	 DWORD PTR tv2526[ebp], edx
  0015e	3b 86 ac 34 00
	00		 cmp	 eax, DWORD PTR [esi+13484]
  00164	8b 45 e8	 mov	 eax, DWORD PTR tv2524[ebp]
  00167	0f 8c 58 ff ff
	ff		 jl	 $LL13@ChkAuraUse
$LN8@ChkAuraUse:

; 1669 : 		}
; 1670 : 	}
; 1671 : 	// ----
; 1672 : 	for( n = OBJ_STARTUSERINDEX; n < OBJMAX; n++ )

  0016d	8b 45 ec	 mov	 eax, DWORD PTR _n$1$[ebp]
  00170	81 c7 40 27 00
	00		 add	 edi, 10048		; 00002740H
  00176	40		 inc	 eax
  00177	89 45 ec	 mov	 DWORD PTR _n$1$[ebp], eax
  0017a	81 ff 00 2f e3
	06		 cmp	 edi, 115552000		; 06e32f00H
  00180	0f 8c fb fe ff
	ff		 jl	 $LL10@ChkAuraUse

; 1688 : 							lpObj->AccountID, lpObj->Name, lpObj->GuildName, lpObj->X, lpObj->Y);
; 1689 : 					}
; 1690 : 				}
; 1691 : 			}
; 1692 : 		}
; 1693 : 	}
; 1694 : 	// ----
; 1695 : 	for( i = 0; i < this->m_iObeliskCnt; i++ )

  00186	83 be ac 34 00
	00 00		 cmp	 DWORD PTR [esi+13484], 0
  0018d	8b 1d 00 00 00
	00		 mov	 ebx, DWORD PTR ?gObj@@3PAUOBJECTSTRUCT@@A ; gObj
  00193	c7 45 f0 00 00
	00 00		 mov	 DWORD PTR _i$3$[ebp], 0
  0019a	0f 8e 16 01 00
	00		 jle	 $LN18@ChkAuraUse
  001a0	8d be e0 2f 00
	00		 lea	 edi, DWORD PTR [esi+12256]
  001a6	b9 01 00 00 00	 mov	 ecx, 1
  001ab	8d 96 cc 31 00
	00		 lea	 edx, DWORD PTR [esi+12748]
$LL19@ChkAuraUse:

; 1696 : 	{
; 1697 : 		iAurReleaseCnt		= 0;

  001b1	33 c0		 xor	 eax, eax

; 1698 : 		iHoverUserIndex_1	= 0;
; 1699 : 		iHoverUserIndex_2	= 0;
; 1700 : 		// ----
; 1701 : 		for( j = 0; j < AB_MAX_AURAPOS; j++ )
; 1702 : 		{
; 1703 : 			if( this->m_stObeliskState[i].m_stAuraState[j].m_btAuraState == 1 )

  001b3	80 7a ec 01	 cmp	 BYTE PTR [edx-20], 1
  001b7	0f 44 c1	 cmove	 eax, ecx
  001ba	80 7a fc 01	 cmp	 BYTE PTR [edx-4], 1
  001be	75 01		 jne	 SHORT $LN110@ChkAuraUse

; 1704 : 			{
; 1705 : 				iAurReleaseCnt++;

  001c0	40		 inc	 eax
$LN110@ChkAuraUse:

; 1698 : 		iHoverUserIndex_1	= 0;
; 1699 : 		iHoverUserIndex_2	= 0;
; 1700 : 		// ----
; 1701 : 		for( j = 0; j < AB_MAX_AURAPOS; j++ )
; 1702 : 		{
; 1703 : 			if( this->m_stObeliskState[i].m_stAuraState[j].m_btAuraState == 1 )

  001c1	80 7a 0c 01	 cmp	 BYTE PTR [edx+12], 1
  001c5	75 01		 jne	 SHORT $LN112@ChkAuraUse

; 1704 : 			{
; 1705 : 				iAurReleaseCnt++;

  001c7	40		 inc	 eax
$LN112@ChkAuraUse:

; 1706 : 			}
; 1707 : 		}
; 1708 : 		// ----
; 1709 : 		if( iAurReleaseCnt == 3 )

  001c8	83 f8 03	 cmp	 eax, 3
  001cb	0f 85 c6 01 00
	00		 jne	 $LN44@ChkAuraUse

; 1710 : 		{
; 1711 : 			this->m_stObeliskState[i].m_iAuraState = 2; //#DEFINE

  001d1	c7 42 cc 02 00
	00 00		 mov	 DWORD PTR [edx-52], 2

; 1712 : 			// ----
; 1713 : 			for( j = 0; j < AB_MAX_AURASTATE; j++ )
; 1714 : 			{
; 1715 : 				iHoverUserIndex_1 = this->m_stObeliskState[i].m_stAuraState[j].m_iHoverUserIndex;
; 1716 : 				iHoverUserIndex_2 = this->m_stObeliskState[i].m_stAuraState[j + 1].m_iHoverUserIndex;
; 1717 : 				// ----
; 1718 : 				if( gObj[iHoverUserIndex_1].GuildNumber != gObj[iHoverUserIndex_2].GuildNumber )

  001d8	69 42 f0 40 27
	00 00		 imul	 eax, DWORD PTR [edx-16], 10048
  001df	69 0a 40 27 00
	00		 imul	 ecx, DWORD PTR [edx], 10048
  001e5	8b 1d 00 00 00
	00		 mov	 ebx, DWORD PTR ?gObj@@3PAUOBJECTSTRUCT@@A ; gObj
  001eb	8b 84 18 14 06
	00 00		 mov	 eax, DWORD PTR [eax+ebx+1556]
  001f2	3b 84 19 14 06
	00 00		 cmp	 eax, DWORD PTR [ecx+ebx+1556]
  001f9	74 0d		 je	 SHORT $LN23@ChkAuraUse

; 1719 : 				{
; 1720 : 					this->m_stObeliskState[i].m_iAuraState = 1;

  001fb	c7 42 cc 01 00
	00 00		 mov	 DWORD PTR [edx-52], 1
  00202	8b 1d 00 00 00
	00		 mov	 ebx, DWORD PTR ?gObj@@3PAUOBJECTSTRUCT@@A ; gObj
$LN23@ChkAuraUse:

; 1712 : 			// ----
; 1713 : 			for( j = 0; j < AB_MAX_AURASTATE; j++ )
; 1714 : 			{
; 1715 : 				iHoverUserIndex_1 = this->m_stObeliskState[i].m_stAuraState[j].m_iHoverUserIndex;
; 1716 : 				iHoverUserIndex_2 = this->m_stObeliskState[i].m_stAuraState[j + 1].m_iHoverUserIndex;
; 1717 : 				// ----
; 1718 : 				if( gObj[iHoverUserIndex_1].GuildNumber != gObj[iHoverUserIndex_2].GuildNumber )

  00208	69 02 40 27 00
	00		 imul	 eax, DWORD PTR [edx], 10048
  0020e	69 4a 10 40 27
	00 00		 imul	 ecx, DWORD PTR [edx+16], 10048
  00215	8b 84 18 14 06
	00 00		 mov	 eax, DWORD PTR [eax+ebx+1556]
  0021c	3b 84 19 14 06
	00 00		 cmp	 eax, DWORD PTR [ecx+ebx+1556]
  00223	74 0d		 je	 SHORT $LN117@ChkAuraUse

; 1719 : 				{
; 1720 : 					this->m_stObeliskState[i].m_iAuraState = 1;

  00225	c7 42 cc 01 00
	00 00		 mov	 DWORD PTR [edx-52], 1
  0022c	8b 1d 00 00 00
	00		 mov	 ebx, DWORD PTR ?gObj@@3PAUOBJECTSTRUCT@@A ; gObj
$LN117@ChkAuraUse:

; 1721 : 				}
; 1722 : 			}
; 1723 : 			// ----
; 1724 : 			if( this->m_stObeliskState[i].m_iAuraState == 2 )

  00232	83 7a cc 02	 cmp	 DWORD PTR [edx-52], 2
  00236	75 60		 jne	 SHORT $LN136@ChkAuraUse

; 1725 : 			{
; 1726 : 				iUserIndex = this->m_stObeliskState[i].m_stAuraState[0].m_iHoverUserIndex;
; 1727 : 				// ----
; 1728 : 				if( this->m_stObeliskState[i].m_iAuraReleaseGuildNum != gObj[iUserIndex].GuildNumber )

  00238	69 4a f0 40 27
	00 00		 imul	 ecx, DWORD PTR [edx-16], 10048
  0023f	8b 42 d0	 mov	 eax, DWORD PTR [edx-48]
  00242	3b 84 19 14 06
	00 00		 cmp	 eax, DWORD PTR [ecx+ebx+1556]
  00249	74 31		 je	 SHORT $LN51@ChkAuraUse

; 1729 : 				{
; 1730 : 					iObeliskIndex = this->m_stObeliskState[i].m_iMonIndex;
; 1731 : 					// ----
; 1732 : 					if( gObj[iObeliskIndex].Live == 1 )

  0024b	69 42 c8 40 27
	00 00		 imul	 eax, DWORD PTR [edx-56], 10048
  00252	80 7c 18 51 01	 cmp	 BYTE PTR [eax+ebx+81], 1
  00257	75 23		 jne	 SHORT $LN51@ChkAuraUse

; 1733 : 					{
; 1734 : 						if( this->m_stObeliskState[i].m_iObeliskState == 1 )

  00259	83 7a d4 01	 cmp	 DWORD PTR [edx-44], 1
  0025d	75 07		 jne	 SHORT $LN50@ChkAuraUse
  0025f	66 0f 6e 47 04	 movd	 xmm0, DWORD PTR [edi+4]

; 1735 : 						{
; 1736 : #if( AB_DEBUG_TRACE == 1 )
; 1737 : 							TRACE_LOG("Obelisk OCCUPY HP Refill");
; 1738 : #endif
; 1739 : 							gObj[iObeliskIndex].Life = (double)this->m_stObeliskInfo[i].m_iOccupyHP;
; 1740 : 						}
; 1741 : 						else

  00264	eb 04		 jmp	 SHORT $LN137@ChkAuraUse
$LN50@ChkAuraUse:
  00266	66 0f 6e 07	 movd	 xmm0, DWORD PTR [edi]
$LN137@ChkAuraUse:

; 1742 : 						{
; 1743 : #if( AB_DEBUG_TRACE == 1 )
; 1744 : 							TRACE_LOG("Obelisk HP Refill");
; 1745 : #endif
; 1746 : 							gObj[iObeliskIndex].Life = (double)this->m_stObeliskInfo[i].m_iHP;

  0026a	0f 5b c0	 cvtdq2ps xmm0, xmm0
  0026d	f3 0f 11 84 18
	d8 00 00 00	 movss	 DWORD PTR [eax+ebx+216], xmm0
  00276	8b 1d 00 00 00
	00		 mov	 ebx, DWORD PTR ?gObj@@3PAUOBJECTSTRUCT@@A ; gObj
$LN51@ChkAuraUse:

; 1747 : 						}
; 1748 : 					}
; 1749 : 				}
; 1750 : 				// ----
; 1751 : 				this->m_stObeliskState[i].m_iAuraReleaseGuildNum = gObj[iUserIndex].GuildNumber;

  0027c	8b 84 19 14 06
	00 00		 mov	 eax, DWORD PTR [ecx+ebx+1556]
  00283	89 42 d0	 mov	 DWORD PTR [edx-48], eax

; 1752 : 				// ----
; 1753 : 				for( j = 0; j < AB_MAX_AURAPOS; j++ )
; 1754 : 				{
; 1755 : 					this->m_stObeliskState[i].m_stAuraState[j].m_btAuraState = 2;

  00286	c6 42 ec 02	 mov	 BYTE PTR [edx-20], 2
  0028a	c6 42 fc 02	 mov	 BYTE PTR [edx-4], 2
  0028e	c6 42 0c 02	 mov	 BYTE PTR [edx+12], 2

; 1756 : 				}
; 1757 : 			}
; 1758 : 		}
; 1759 : 		else

  00292	8b 1d 00 00 00
	00		 mov	 ebx, DWORD PTR ?gObj@@3PAUOBJECTSTRUCT@@A ; gObj
$LN136@ChkAuraUse:
  00298	b9 01 00 00 00	 mov	 ecx, 1
$LN17@ChkAuraUse:

; 1688 : 							lpObj->AccountID, lpObj->Name, lpObj->GuildName, lpObj->X, lpObj->Y);
; 1689 : 					}
; 1690 : 				}
; 1691 : 			}
; 1692 : 		}
; 1693 : 	}
; 1694 : 	// ----
; 1695 : 	for( i = 0; i < this->m_iObeliskCnt; i++ )

  0029d	8b 45 f0	 mov	 eax, DWORD PTR _i$3$[ebp]
  002a0	83 c7 58	 add	 edi, 88			; 00000058H
  002a3	40		 inc	 eax
  002a4	83 c2 54	 add	 edx, 84			; 00000054H
  002a7	89 45 f0	 mov	 DWORD PTR _i$3$[ebp], eax
  002aa	3b 86 ac 34 00
	00		 cmp	 eax, DWORD PTR [esi+13484]
  002b0	0f 8c fb fe ff
	ff		 jl	 $LL19@ChkAuraUse
$LN18@ChkAuraUse:

; 1771 : 	pMsg.h.size		= sizeof(_tagPMSG_ARCA_BATTLE_OBELISK_INFO);
; 1772 : 	pMsg.h.headcode = 0xF8;
; 1773 : 	pMsg.h.subcode	= 0x37;
; 1774 : 	// ----
; 1775 : 	for( i = 0; i < this->m_iObeliskCnt; i++ )

  002b6	83 be ac 34 00
	00 00		 cmp	 DWORD PTR [esi+13484], 0
  002bd	c7 45 f4 c1 08
	f8 37		 mov	 DWORD PTR _pMsg$[ebp], 939002049 ; 37f808c1H
  002c4	c7 45 e4 00 00
	00 00		 mov	 DWORD PTR _i$4$[ebp], 0
  002cb	0f 8e b5 00 00
	00		 jle	 $LN30@ChkAuraUse

; 1764 : 			}
; 1765 : 		}
; 1766 : 	}
; 1767 : 	// ----
; 1768 : 	//pMsg constructor
; 1769 : 	// ----
; 1770 : 	pMsg.h.c		= 0xC1;

  002d1	8d 96 b8 31 00
	00		 lea	 edx, DWORD PTR [esi+12728]
  002d7	8d 86 dc 2f 00
	00		 lea	 eax, DWORD PTR [esi+12252]
  002dd	89 55 e8	 mov	 DWORD PTR tv2510[ebp], edx
  002e0	89 45 ec	 mov	 DWORD PTR tv2509[ebp], eax
$LL31@ChkAuraUse:

; 1776 : 	{
; 1777 : 		for( nAura = 0; nAura < AB_MAX_AURAPOS; nAura++ )

  002e3	8d 42 08	 lea	 eax, DWORD PTR [edx+8]
  002e6	c7 45 e0 03 00
	00 00		 mov	 DWORD PTR tv2511[ebp], 3
  002ed	89 45 f0	 mov	 DWORD PTR tv2512[ebp], eax
$LL34@ChkAuraUse:

; 1778 : 		{
; 1779 : 			int iIndex	= this->m_stObeliskState[i].m_stAuraState[nAura].m_iIndex;
; 1780 : 			obj			= &gObj[iIndex];

  002f0	69 30 40 27 00
	00		 imul	 esi, DWORD PTR [eax], 10048
  002f6	bf 4b 00 00 00	 mov	 edi, 75			; 0000004bH
  002fb	81 c6 48 0c 00
	00		 add	 esi, 3144		; 00000c48H
  00301	03 f3		 add	 esi, ebx
$LL37@ChkAuraUse:

; 1783 : 			{
; 1784 : 				if( obj->VpPlayer2[n].type == OBJ_USER && obj->VpPlayer2[n].state != 0 )

  00303	80 7e 04 01	 cmp	 BYTE PTR [esi+4], 1
  00307	75 46		 jne	 SHORT $LN35@ChkAuraUse
  00309	80 3e 00	 cmp	 BYTE PTR [esi], 0
  0030c	74 41		 je	 SHORT $LN35@ChkAuraUse

; 1785 : 				{
; 1786 : 					int iTarObjIndex			= obj->VpPlayer2[n].number;
; 1787 : 					pMsg.m_btObeliskAttribute	= (BYTE)this->m_stObeliskInfo[i].m_iAttrKind;

  0030e	8b 45 ec	 mov	 eax, DWORD PTR tv2509[ebp]
  00311	0f bf 4e 02	 movsx	 ecx, WORD PTR [esi+2]

; 1788 : 					// ----
; 1789 : 					for( j = 0; j < AB_MAX_AURAPOS; j++ )
; 1790 : 					{
; 1791 : 						pMsg.m_btAuraState[j] = this->m_stObeliskState[i].m_stAuraState[j].m_btAuraState;
; 1792 : 					}
; 1793 : 					// ----
; 1794 : 					DataSend(gObj[iTarObjIndex].m_Index, (LPBYTE)&pMsg, sizeof(_tagPMSG_ARCA_BATTLE_OBELISK_INFO));

  00315	6a 08		 push	 8
  00317	0f b6 00	 movzx	 eax, BYTE PTR [eax]
  0031a	88 45 f8	 mov	 BYTE PTR _pMsg$[ebp+4], al
  0031d	0f b6 02	 movzx	 eax, BYTE PTR [edx]
  00320	88 45 f9	 mov	 BYTE PTR _pMsg$[ebp+5], al
  00323	0f b6 42 10	 movzx	 eax, BYTE PTR [edx+16]
  00327	88 45 fa	 mov	 BYTE PTR _pMsg$[ebp+6], al
  0032a	0f b6 42 20	 movzx	 eax, BYTE PTR [edx+32]
  0032e	88 45 fb	 mov	 BYTE PTR _pMsg$[ebp+7], al
  00331	8d 45 f4	 lea	 eax, DWORD PTR _pMsg$[ebp]
  00334	50		 push	 eax
  00335	69 c1 40 27 00
	00		 imul	 eax, ecx, 10048
  0033b	ff 34 18	 push	 DWORD PTR [eax+ebx]
  0033e	e8 00 00 00 00	 call	 ?DataSend@@YAHHPAEK@Z	; DataSend
  00343	8b 1d 00 00 00
	00		 mov	 ebx, DWORD PTR ?gObj@@3PAUOBJECTSTRUCT@@A ; gObj
  00349	83 c4 0c	 add	 esp, 12			; 0000000cH
  0034c	8b 55 e8	 mov	 edx, DWORD PTR tv2510[ebp]
$LN35@ChkAuraUse:

; 1781 : 			// ----
; 1782 : 			for( int n = 0; n < MAX_VIEWPORT; n++ )

  0034f	83 c6 0c	 add	 esi, 12			; 0000000cH
  00352	83 ef 01	 sub	 edi, 1
  00355	75 ac		 jne	 SHORT $LL37@ChkAuraUse

; 1776 : 	{
; 1777 : 		for( nAura = 0; nAura < AB_MAX_AURAPOS; nAura++ )

  00357	8b 45 f0	 mov	 eax, DWORD PTR tv2512[ebp]
  0035a	83 c0 10	 add	 eax, 16			; 00000010H
  0035d	83 6d e0 01	 sub	 DWORD PTR tv2511[ebp], 1
  00361	89 45 f0	 mov	 DWORD PTR tv2512[ebp], eax
  00364	75 8a		 jne	 SHORT $LL34@ChkAuraUse

; 1771 : 	pMsg.h.size		= sizeof(_tagPMSG_ARCA_BATTLE_OBELISK_INFO);
; 1772 : 	pMsg.h.headcode = 0xF8;
; 1773 : 	pMsg.h.subcode	= 0x37;
; 1774 : 	// ----
; 1775 : 	for( i = 0; i < this->m_iObeliskCnt; i++ )

  00366	8b 4d e4	 mov	 ecx, DWORD PTR _i$4$[ebp]
  00369	83 c2 54	 add	 edx, 84			; 00000054H
  0036c	8b 45 dc	 mov	 eax, DWORD PTR _this$GSCopy$1$[ebp]
  0036f	41		 inc	 ecx
  00370	83 45 ec 58	 add	 DWORD PTR tv2509[ebp], 88 ; 00000058H
  00374	89 4d e4	 mov	 DWORD PTR _i$4$[ebp], ecx
  00377	89 55 e8	 mov	 DWORD PTR tv2510[ebp], edx
  0037a	3b 88 ac 34 00
	00		 cmp	 ecx, DWORD PTR [eax+13484]
  00380	0f 8c 5d ff ff
	ff		 jl	 $LL31@ChkAuraUse
$LN30@ChkAuraUse:

; 1795 : 				}
; 1796 : 			}
; 1797 : 		}
; 1798 : 	}
; 1799 : }

  00386	8b 4d fc	 mov	 ecx, DWORD PTR __$ArrayPad$[ebp]
  00389	5f		 pop	 edi
  0038a	5e		 pop	 esi
  0038b	33 cd		 xor	 ecx, ebp
  0038d	5b		 pop	 ebx
  0038e	e8 00 00 00 00	 call	 @__security_check_cookie@4
  00393	8b e5		 mov	 esp, ebp
  00395	5d		 pop	 ebp
  00396	c3		 ret	 0
$LN44@ChkAuraUse:

; 1760 : 		{
; 1761 : 			if( iAurReleaseCnt > 0 )

  00397	85 c0		 test	 eax, eax
  00399	0f 8e fe fe ff
	ff		 jle	 $LN17@ChkAuraUse

; 1762 : 			{
; 1763 : 				this->m_stObeliskState[i].m_iAuraState = 1;

  0039f	c7 42 cc 01 00
	00 00		 mov	 DWORD PTR [edx-52], 1
  003a6	8b 1d 00 00 00
	00		 mov	 ebx, DWORD PTR ?gObj@@3PAUOBJECTSTRUCT@@A ; gObj
  003ac	e9 ec fe ff ff	 jmp	 $LN17@ChkAuraUse
?ChkAuraUserHover@CArcaBattle@@QAEXXZ ENDP		; CArcaBattle::ChkAuraUserHover
_TEXT	ENDS
; Function compile flags: /Ogtp
; File c:\users\michel\desktop\source\gameserver\source\arcabattle.cpp
;	COMDAT ?SendObeliskState@CArcaBattle@@QAEXXZ
_TEXT	SEGMENT
_pMsg$ = -20						; size = 7
tv570 = -12						; size = 4
tv569 = -8						; size = 4
_AuraRelease$1$ = -1					; size = 1
?SendObeliskState@CArcaBattle@@QAEXXZ PROC		; CArcaBattle::SendObeliskState, COMDAT
; _this$ = ecx

; 1400 : {

  00000	55		 push	 ebp
  00001	8b ec		 mov	 ebp, esp
  00003	83 ec 14	 sub	 esp, 20			; 00000014H

; 1401 : 	_tagPMSG_SEND_OBELISK_STATE pMsg;
; 1402 : 	// ----
; 1403 : 	pMsg.h.c		= 0xC1;

  00006	8b 15 00 00 00
	00		 mov	 edx, DWORD PTR ?gObj@@3PAUOBJECTSTRUCT@@A ; gObj
  0000c	0f 57 c9	 xorps	 xmm1, xmm1
  0000f	53		 push	 ebx
  00010	56		 push	 esi
  00011	57		 push	 edi
  00012	8d b9 dc 2f 00
	00		 lea	 edi, DWORD PTR [ecx+12252]
  00018	c7 45 ec c1 07
	f8 3a		 mov	 DWORD PTR _pMsg$[ebp], 989333441 ; 3af807c1H
  0001f	8d 99 94 31 00
	00		 lea	 ebx, DWORD PTR [ecx+12692]
  00025	89 7d f8	 mov	 DWORD PTR tv569[ebp], edi
  00028	b9 05 00 00 00	 mov	 ecx, 5
  0002d	89 4d f4	 mov	 DWORD PTR tv570[ebp], ecx
$LL4@SendObelis:

; 1409 : 	{
; 1410 : 		int n;
; 1411 : 		BYTE AuraRelease;
; 1412 : 		LPOBJ obj;
; 1413 : 		int iObeliskIndex = this->m_stObeliskState[i].m_iMonIndex;

  00030	8b 03		 mov	 eax, DWORD PTR [ebx]

; 1414 : 		// ----
; 1415 : 		if ( this->m_stObeliskState[i].m_iMonIndex >= 0 )

  00032	85 c0		 test	 eax, eax
  00034	0f 88 88 00 00
	00		 js	 $LN2@SendObelis

; 1416 : 		{
; 1417 : 			obj = &gObj[iObeliskIndex];

  0003a	69 f0 40 27 00
	00		 imul	 esi, eax, 10048

; 1418 : 			pMsg.btObeliskState		= gObj[iObeliskIndex].Life > 0.0;
; 1419 : 			pMsg.btObeliskAttribute = (BYTE)this->m_stObeliskInfo[i].m_iAttrKind;

  00040	8a 07		 mov	 al, BYTE PTR [edi]

; 1420 : 			AuraRelease				= 2;	//#DEFINE

  00042	c6 45 ff 02	 mov	 BYTE PTR _AuraRelease$1$[ebp], 2
  00046	f3 0f 10 84 16
	d8 00 00 00	 movss	 xmm0, DWORD PTR [esi+edx+216]
  0004f	0f 2f c1	 comiss	 xmm0, xmm1
  00052	88 45 f0	 mov	 BYTE PTR _pMsg$[ebp+4], al
  00055	8d 43 24	 lea	 eax, DWORD PTR [ebx+36]
  00058	0f 97 45 f1	 seta	 BYTE PTR _pMsg$[ebp+5]

; 1421 : 			// ----
; 1422 : 			for( int j = 0; j < AB_MAX_AURAPOS; j++ )

  0005c	33 c9		 xor	 ecx, ecx
  0005e	66 90		 npad	 2
$LL7@SendObelis:

; 1423 : 			{
; 1424 : 				if( this->m_stObeliskState[i].m_stAuraState[j].m_btAuraState != 2 ) //#DEFINE

  00060	80 38 02	 cmp	 BYTE PTR [eax], 2
  00063	75 0e		 jne	 SHORT $LN18@SendObelis

; 1421 : 			// ----
; 1422 : 			for( int j = 0; j < AB_MAX_AURAPOS; j++ )

  00065	41		 inc	 ecx
  00066	83 c0 10	 add	 eax, 16			; 00000010H
  00069	83 f9 03	 cmp	 ecx, 3
  0006c	7c f2		 jl	 SHORT $LL7@SendObelis

; 1423 : 			{
; 1424 : 				if( this->m_stObeliskState[i].m_stAuraState[j].m_btAuraState != 2 ) //#DEFINE

  0006e	8a 45 ff	 mov	 al, BYTE PTR _AuraRelease$1$[ebp]
  00071	eb 02		 jmp	 SHORT $LN6@SendObelis
$LN18@SendObelis:

; 1425 : 				{
; 1426 : 					AuraRelease = 0;

  00073	32 c0		 xor	 al, al
$LN6@SendObelis:

; 1427 : 					break;
; 1428 : 				}
; 1429 : 			}
; 1430 : 			// ----
; 1431 : 			pMsg.btAuraState = AuraRelease;

  00075	81 c6 48 0c 00
	00		 add	 esi, 3144		; 00000c48H
  0007b	88 45 f2	 mov	 BYTE PTR _pMsg$[ebp+6], al
  0007e	03 f2		 add	 esi, edx
  00080	bf 4b 00 00 00	 mov	 edi, 75			; 0000004bH
$LL10@SendObelis:

; 1434 : 			{
; 1435 : 				if( obj->VpPlayer2[n].type == OBJ_USER && obj->VpPlayer2[n].state != 0 )

  00085	80 7e 04 01	 cmp	 BYTE PTR [esi+4], 1
  00089	75 26		 jne	 SHORT $LN8@SendObelis
  0008b	80 3e 00	 cmp	 BYTE PTR [esi], 0
  0008e	74 21		 je	 SHORT $LN8@SendObelis

; 1436 : 				{
; 1437 : 					int iTarObjIndex = gObj[obj->VpPlayer2[n].number].m_Index;
; 1438 : 					DataSend(iTarObjIndex, (LPBYTE)&pMsg, sizeof(_tagPMSG_SEND_OBELISK_STATE));

  00090	6a 07		 push	 7
  00092	8d 45 ec	 lea	 eax, DWORD PTR _pMsg$[ebp]
  00095	50		 push	 eax
  00096	0f bf 46 02	 movsx	 eax, WORD PTR [esi+2]
  0009a	69 c0 40 27 00
	00		 imul	 eax, eax, 10048
  000a0	ff 34 10	 push	 DWORD PTR [eax+edx]
  000a3	e8 00 00 00 00	 call	 ?DataSend@@YAHHPAEK@Z	; DataSend
  000a8	8b 15 00 00 00
	00		 mov	 edx, DWORD PTR ?gObj@@3PAUOBJECTSTRUCT@@A ; gObj
  000ae	83 c4 0c	 add	 esp, 12			; 0000000cH
$LN8@SendObelis:

; 1432 : 			// ----
; 1433 : 			for( n = 0; n < MAX_VIEWPORT; n++ )

  000b1	83 c6 0c	 add	 esi, 12			; 0000000cH
  000b4	83 ef 01	 sub	 edi, 1
  000b7	75 cc		 jne	 SHORT $LL10@SendObelis
  000b9	8b 7d f8	 mov	 edi, DWORD PTR tv569[ebp]
  000bc	0f 57 c9	 xorps	 xmm1, xmm1
  000bf	8b 4d f4	 mov	 ecx, DWORD PTR tv570[ebp]
$LN2@SendObelis:

; 1404 : 	pMsg.h.size		= sizeof(_tagPMSG_SEND_OBELISK_STATE);
; 1405 : 	pMsg.h.headcode	= 0xF8;
; 1406 : 	pMsg.h.subcode	= 0x3A;
; 1407 : 	// ----
; 1408 : 	for( int i = 0; i < AB_MAX_BATTLEPOS; i++ )

  000c2	83 c7 58	 add	 edi, 88			; 00000058H
  000c5	83 c3 54	 add	 ebx, 84			; 00000054H
  000c8	83 e9 01	 sub	 ecx, 1
  000cb	89 7d f8	 mov	 DWORD PTR tv569[ebp], edi
  000ce	89 4d f4	 mov	 DWORD PTR tv570[ebp], ecx
  000d1	0f 85 59 ff ff
	ff		 jne	 $LL4@SendObelis
  000d7	5f		 pop	 edi
  000d8	5e		 pop	 esi
  000d9	5b		 pop	 ebx

; 1439 : 				}
; 1440 : 			}
; 1441 : 		}
; 1442 : 	}
; 1443 : }

  000da	8b e5		 mov	 esp, ebp
  000dc	5d		 pop	 ebp
  000dd	c3		 ret	 0
?SendObeliskState@CArcaBattle@@QAEXXZ ENDP		; CArcaBattle::SendObeliskState
_TEXT	ENDS
; Function compile flags: /Ogtp
; File c:\users\michel\desktop\source\gameserver\source\arcabattle.cpp
; File c:\users\michel\desktop\source\gameserver\source\arcabattleprotocol.h
; File c:\users\michel\desktop\source\gameserver\source\arcabattle.cpp
;	COMDAT ?SendObeliskLife@CArcaBattle@@QAEXXZ
_TEXT	SEGMENT
tv580 = -32						; size = 8
tv573 = -32						; size = 8
tv560 = -24						; size = 4
_pMsg$ = -20						; size = 14
__$ArrayPad$ = -4					; size = 4
?SendObeliskLife@CArcaBattle@@QAEXXZ PROC		; CArcaBattle::SendObeliskLife, COMDAT
; _this$ = ecx

; 1352 : {

  00000	55		 push	 ebp
  00001	8b ec		 mov	 ebp, esp
  00003	83 ec 20	 sub	 esp, 32			; 00000020H
  00006	a1 00 00 00 00	 mov	 eax, DWORD PTR ___security_cookie
  0000b	33 c5		 xor	 eax, ebp
  0000d	89 45 fc	 mov	 DWORD PTR __$ArrayPad$[ebp], eax
  00010	53		 push	 ebx
  00011	56		 push	 esi

; 1353 : 	_tagPMSG_SEND_OBELISK_LIFE pMsg;
; 1354 : 	// ----
; 1355 : 	for( int i = 0; i < AB_MAX_BATTLEPOS; i++ )

  00012	33 f6		 xor	 esi, esi
; File c:\users\michel\desktop\source\gameserver\source\arcabattleprotocol.h

; 127  : 		this->btLife		= 0;

  00014	c7 45 f0 00 00
	00 00		 mov	 DWORD PTR _pMsg$[ebp+4], 0
  0001b	8d 99 dc 2f 00
	00		 lea	 ebx, DWORD PTR [ecx+12252]
  00021	c7 45 f4 00 00
	00 00		 mov	 DWORD PTR _pMsg$[ebp+8], 0
  00028	81 c1 94 31 00
	00		 add	 ecx, 12692		; 00003194H
  0002e	66 c7 45 f8 00
	00		 mov	 WORD PTR _pMsg$[ebp+12], 0
  00034	57		 push	 edi
  00035	8b 3d 00 00 00
	00		 mov	 edi, DWORD PTR ?gObj@@3PAUOBJECTSTRUCT@@A ; gObj
  0003b	89 4d e8	 mov	 DWORD PTR tv560[ebp], ecx
  0003e	66 90		 npad	 2
$LL4@SendObelis:
; File c:\users\michel\desktop\source\gameserver\source\arcabattle.cpp

; 1357 : 		int iObeliskIndex = this->m_stObeliskState[i].m_iMonIndex;

  00040	8b 09		 mov	 ecx, DWORD PTR [ecx]

; 1358 : 		// ----
; 1359 : 		if( this->m_stObeliskState[i].m_iMonIndex < 0 )

  00042	85 c9		 test	 ecx, ecx
  00044	78 75		 js	 SHORT $LN2@SendObelis

; 1360 : 		{
; 1361 : 			continue;
; 1362 : 		}
; 1363 : 		// ----
; 1364 : 		if( !OBJMAX_RANGE(iObeliskIndex) )

  00046	33 c0		 xor	 eax, eax
  00048	81 f9 eb 2c 00
	00		 cmp	 ecx, 11499		; 00002cebH
  0004e	0f 9e c0	 setle	 al
  00051	85 c0		 test	 eax, eax
  00053	0f 84 c8 00 00
	00		 je	 $LN48@SendObelis

; 1365 : 		{
; 1366 : 			return;
; 1367 : 		}
; 1368 : 
; 1369 : 		if( !gObj[iObeliskIndex].Live )

  00059	69 c1 40 27 00
	00		 imul	 eax, ecx, 10048
  0005f	80 7c 38 51 00	 cmp	 BYTE PTR [eax+edi+81], 0
  00064	75 07		 jne	 SHORT $LN10@SendObelis

; 1370 : 		{
; 1371 : 			pMsg.m_stObeliskLife[i].btLife		= 0;

  00066	c6 44 75 f0 00	 mov	 BYTE PTR _pMsg$[ebp+esi*2+4], 0

; 1372 : 			pMsg.m_stObeliskLife[i].btAttribute = (BYTE)this->m_stObeliskInfo[i].m_iAttrKind;
; 1373 : 		}
; 1374 : 		else

  0006b	eb 48		 jmp	 SHORT $LN49@SendObelis
$LN10@SendObelis:
  0006d	f3 0f 10 84 38
	dc 00 00 00	 movss	 xmm0, DWORD PTR [eax+edi+220]

; 1375 : 		{
; 1376 : 			pMsg.m_stObeliskLife[i].btLife		= (int)ceil(gObj[iObeliskIndex].Life / (gObj[iObeliskIndex].MaxLife / 10.0)) & 0xF;	//Need check

  00076	83 ec 08	 sub	 esp, 8
  00079	0f 5a c0	 cvtps2pd xmm0, xmm0
  0007c	f3 0f 10 8c 38
	d8 00 00 00	 movss	 xmm1, DWORD PTR [eax+edi+216]
  00085	f2 0f 5e 05 00
	00 00 00	 divsd	 xmm0, QWORD PTR __real@4024000000000000
  0008d	0f 5a c9	 cvtps2pd xmm1, xmm1
  00090	f2 0f 5e c8	 divsd	 xmm1, xmm0
  00094	f2 0f 11 4d e0	 movsd	 QWORD PTR tv580[ebp], xmm1
  00099	dd 45 e0	 fld	 QWORD PTR tv580[ebp]
  0009c	dd 1c 24	 fstp	 QWORD PTR [esp]
  0009f	e8 00 00 00 00	 call	 _ceil
  000a4	dd 5d e0	 fstp	 QWORD PTR tv573[ebp]
  000a7	f2 0f 2c 45 e0	 cvttsd2si eax, QWORD PTR tv573[ebp]
  000ac	83 c4 08	 add	 esp, 8
  000af	24 0f		 and	 al, 15			; 0000000fH
  000b1	88 44 75 f0	 mov	 BYTE PTR _pMsg$[ebp+esi*2+4], al
$LN49@SendObelis:

; 1377 : 			pMsg.m_stObeliskLife[i].btAttribute = (BYTE)this->m_stObeliskInfo[i].m_iAttrKind;

  000b5	8a 03		 mov	 al, BYTE PTR [ebx]
  000b7	88 44 75 f1	 mov	 BYTE PTR _pMsg$[ebp+esi*2+5], al
$LN2@SendObelis:

; 1353 : 	_tagPMSG_SEND_OBELISK_LIFE pMsg;
; 1354 : 	// ----
; 1355 : 	for( int i = 0; i < AB_MAX_BATTLEPOS; i++ )

  000bb	8b 4d e8	 mov	 ecx, DWORD PTR tv560[ebp]
  000be	46		 inc	 esi
  000bf	83 c1 54	 add	 ecx, 84			; 00000054H
  000c2	83 c3 58	 add	 ebx, 88			; 00000058H
  000c5	89 4d e8	 mov	 DWORD PTR tv560[ebp], ecx
  000c8	83 fe 05	 cmp	 esi, 5
  000cb	0f 8c 6f ff ff
	ff		 jl	 $LL4@SendObelis

; 1378 : 		}
; 1379 : 	}
; 1380 : 	// ----
; 1381 : 	pMsg.h.c		= 0xC1;

  000d1	c7 45 ec c1 0e
	f8 3f		 mov	 DWORD PTR _pMsg$[ebp], 1073221313 ; 3ff80ec1H

; 1382 : 	pMsg.h.size		= sizeof(_tagPMSG_SEND_OBELISK_LIFE);
; 1383 : 	pMsg.h.headcode = 0xF8;
; 1384 : 	pMsg.h.subcode	= 0x3F;
; 1385 : 	// ----
; 1386 : 	for( int n = OBJ_STARTUSERINDEX; n < OBJMAX; n++ )

  000d8	bb 04 29 00 00	 mov	 ebx, 10500		; 00002904H
  000dd	be 00 dd 49 06	 mov	 esi, 105504000		; 0649dd00H
$LL7@SendObelis:

; 1387 : 	{
; 1388 : 		LPOBJ lpObj = &gObj[n];
; 1389 : 		// ----
; 1390 : 		if( gObjIsConnected(n) == 1 && lpObj->Type == OBJ_USER )

  000e2	53		 push	 ebx
  000e3	e8 00 00 00 00	 call	 ?gObjIsConnected@@YAHH@Z ; gObjIsConnected
  000e8	83 c4 04	 add	 esp, 4
  000eb	83 f8 01	 cmp	 eax, 1
  000ee	75 1a		 jne	 SHORT $LN5@SendObelis
  000f0	38 44 3e 50	 cmp	 BYTE PTR [esi+edi+80], al
  000f4	75 14		 jne	 SHORT $LN5@SendObelis

; 1391 : 		{
; 1392 : 			DataSend(lpObj->m_Index, (LPBYTE)&pMsg, pMsg.h.size);

  000f6	0f b6 45 ed	 movzx	 eax, BYTE PTR _pMsg$[ebp+1]
  000fa	50		 push	 eax
  000fb	8d 45 ec	 lea	 eax, DWORD PTR _pMsg$[ebp]
  000fe	50		 push	 eax
  000ff	ff 34 3e	 push	 DWORD PTR [esi+edi]
  00102	e8 00 00 00 00	 call	 ?DataSend@@YAHHPAEK@Z	; DataSend
  00107	83 c4 0c	 add	 esp, 12			; 0000000cH
$LN5@SendObelis:

; 1382 : 	pMsg.h.size		= sizeof(_tagPMSG_SEND_OBELISK_LIFE);
; 1383 : 	pMsg.h.headcode = 0xF8;
; 1384 : 	pMsg.h.subcode	= 0x3F;
; 1385 : 	// ----
; 1386 : 	for( int n = OBJ_STARTUSERINDEX; n < OBJMAX; n++ )

  0010a	81 c6 40 27 00
	00		 add	 esi, 10048		; 00002740H
  00110	43		 inc	 ebx
  00111	81 fe 00 2f e3
	06		 cmp	 esi, 115552000		; 06e32f00H
  00117	7d 08		 jge	 SHORT $LN48@SendObelis

; 1378 : 		}
; 1379 : 	}
; 1380 : 	// ----
; 1381 : 	pMsg.h.c		= 0xC1;

  00119	8b 3d 00 00 00
	00		 mov	 edi, DWORD PTR ?gObj@@3PAUOBJECTSTRUCT@@A ; gObj
  0011f	eb c1		 jmp	 SHORT $LL7@SendObelis
$LN48@SendObelis:

; 1393 : 		}
; 1394 : 	}
; 1395 : }

  00121	8b 4d fc	 mov	 ecx, DWORD PTR __$ArrayPad$[ebp]
  00124	5f		 pop	 edi
  00125	5e		 pop	 esi
  00126	33 cd		 xor	 ecx, ebp
  00128	5b		 pop	 ebx
  00129	e8 00 00 00 00	 call	 @__security_check_cookie@4
  0012e	8b e5		 mov	 esp, ebp
  00130	5d		 pop	 ebp
  00131	c3		 ret	 0
?SendObeliskLife@CArcaBattle@@QAEXXZ ENDP		; CArcaBattle::SendObeliskLife
_TEXT	ENDS
; Function compile flags: /Ogtp
; File c:\users\michel\desktop\source\gameserver\source\arcabattle.cpp
;	COMDAT ?RegenObelisk@CArcaBattle@@QAEHXZ
_TEXT	SEGMENT
_this$1$ = -8						; size = 4
_result$1$ = -4						; size = 4
?RegenObelisk@CArcaBattle@@QAEHXZ PROC			; CArcaBattle::RegenObelisk, COMDAT
; _this$ = ecx

; 1448 : {

  00000	55		 push	 ebp
  00001	8b ec		 mov	 ebp, esp
  00003	83 ec 08	 sub	 esp, 8
  00006	8b c1		 mov	 eax, ecx
  00008	53		 push	 ebx

; 1449 : 	for( int i = 0; i < this->m_iObeliskCnt; i++ )

  00009	33 db		 xor	 ebx, ebx
  0000b	89 45 f8	 mov	 DWORD PTR _this$1$[ebp], eax
  0000e	56		 push	 esi
  0000f	57		 push	 edi
  00010	39 98 ac 34 00
	00		 cmp	 DWORD PTR [eax+13484], ebx
  00016	0f 8e a9 01 00
	00		 jle	 $LN3@RegenObeli
  0001c	8d b8 94 31 00
	00		 lea	 edi, DWORD PTR [eax+12692]
  00022	8d b0 f8 2f 00
	00		 lea	 esi, DWORD PTR [eax+12280]
$LN20@RegenObeli:

; 1450 : 	{
; 1451 : 		int iObeliskIndex = this->m_stObeliskState[i].m_iMonIndex;

  00028	8b 0f		 mov	 ecx, DWORD PTR [edi]
  0002a	8b 15 00 00 00
	00		 mov	 edx, DWORD PTR __imp__GetTickCount@0

; 1452 : 		// ----
; 1453 : 		if( !OBJMAX_RANGE(iObeliskIndex) )

  00030	85 c9		 test	 ecx, ecx
  00032	0f 88 99 01 00
	00		 js	 $LN14@RegenObeli
  00038	33 c0		 xor	 eax, eax
  0003a	81 f9 eb 2c 00
	00		 cmp	 ecx, 11499		; 00002cebH
  00040	0f 9e c0	 setle	 al
  00043	85 c0		 test	 eax, eax
  00045	0f 84 86 01 00
	00		 je	 $LN14@RegenObeli

; 1456 : 		}
; 1457 : 		// ----
; 1458 : 		if( gObj[iObeliskIndex].Live == 1 )

  0004b	a1 00 00 00 00	 mov	 eax, DWORD PTR ?gObj@@3PAUOBJECTSTRUCT@@A ; gObj
  00050	69 c9 40 27 00
	00		 imul	 ecx, ecx, 10048
  00056	80 7c 01 51 01	 cmp	 BYTE PTR [ecx+eax+81], 1
  0005b	75 09		 jne	 SHORT $LN6@RegenObeli

; 1459 : 		{
; 1460 : 			this->m_stObeliskInfo[i].m_dwTick = GetTickCount();

  0005d	ff d2		 call	 edx
  0005f	89 06		 mov	 DWORD PTR [esi], eax

; 1461 : 		}
; 1462 : 		else

  00061	e9 49 01 00 00	 jmp	 $LN2@RegenObeli
$LN6@RegenObeli:

; 1463 : 		{
; 1464 : 			if( GetTickCount() - this->m_stObeliskInfo[i].m_dwTick >= this->m_stObeliskInfo[i].m_dwRegenTime )

  00066	ff d2		 call	 edx
  00068	2b 06		 sub	 eax, DWORD PTR [esi]
  0006a	3b 46 04	 cmp	 eax, DWORD PTR [esi+4]
  0006d	0f 82 3c 01 00
	00		 jb	 $LN2@RegenObeli

; 1465 : 			{
; 1466 : 				int result = gObjAddMonster(this->m_stObeliskInfo[i].m_iMapIndex);

  00073	ff 76 f0	 push	 DWORD PTR [esi-16]
  00076	e8 00 00 00 00	 call	 ?gObjAddMonster@@YAFH@Z	; gObjAddMonster
  0007b	98		 cwde
  0007c	83 c4 04	 add	 esp, 4
  0007f	89 45 fc	 mov	 DWORD PTR _result$1$[ebp], eax

; 1467 : 				// ----
; 1468 : 				if( result >= 0 )

  00082	85 c0		 test	 eax, eax
  00084	0f 88 25 01 00
	00		 js	 $LN2@RegenObeli

; 1469 : 				{
; 1470 : 					gObjSetMonster(result, this->m_stObeliskInfo[i].m_iMonsterNum);

  0008a	ff 76 fc	 push	 DWORD PTR [esi-4]
  0008d	50		 push	 eax
  0008e	e8 00 00 00 00	 call	 ?gObjSetMonster@@YAHHH@Z ; gObjSetMonster

; 1471 : 					// ----
; 1472 : 					gObj[result].Class			= (WORD)this->m_stObeliskInfo[i].m_iMonsterNum;

  00093	69 55 fc 40 27
	00 00		 imul	 edx, DWORD PTR _result$1$[ebp], 10048
  0009a	a1 00 00 00 00	 mov	 eax, DWORD PTR ?gObj@@3PAUOBJECTSTRUCT@@A ; gObj
  0009f	66 8b 4e fc	 mov	 cx, WORD PTR [esi-4]
  000a3	66 89 8c 02 90
	00 00 00	 mov	 WORD PTR [edx+eax+144], cx

; 1473 : 					gObj[result].MapNumber		= (BYTE)this->m_stObeliskInfo[i].m_iMapIndex;

  000ab	a1 00 00 00 00	 mov	 eax, DWORD PTR ?gObj@@3PAUOBJECTSTRUCT@@A ; gObj
  000b0	0f b6 4e f0	 movzx	 ecx, BYTE PTR [esi-16]
  000b4	88 8c 02 23 01
	00 00		 mov	 BYTE PTR [edx+eax+291], cl

; 1474 : 					gObj[result].X				= (WORD)this->m_stObeliskInfo[i].m_iPosX;

  000bb	a1 00 00 00 00	 mov	 eax, DWORD PTR ?gObj@@3PAUOBJECTSTRUCT@@A ; gObj
  000c0	0f b6 4e f4	 movzx	 ecx, BYTE PTR [esi-12]
  000c4	88 8c 02 20 01
	00 00		 mov	 BYTE PTR [edx+eax+288], cl

; 1475 : 					gObj[result].Y				= (WORD)this->m_stObeliskInfo[i].m_iPosY;

  000cb	a1 00 00 00 00	 mov	 eax, DWORD PTR ?gObj@@3PAUOBJECTSTRUCT@@A ; gObj
  000d0	0f b6 4e f8	 movzx	 ecx, BYTE PTR [esi-8]
  000d4	88 8c 02 21 01
	00 00		 mov	 BYTE PTR [edx+eax+289], cl

; 1476 : 					gObj[result].TX				= (WORD)this->m_stObeliskInfo[i].m_iPosX;

  000db	a1 00 00 00 00	 mov	 eax, DWORD PTR ?gObj@@3PAUOBJECTSTRUCT@@A ; gObj
  000e0	0f b6 4e f4	 movzx	 ecx, BYTE PTR [esi-12]
  000e4	88 8c 02 52 01
	00 00		 mov	 BYTE PTR [edx+eax+338], cl

; 1477 : 					gObj[result].TY				= (WORD)this->m_stObeliskInfo[i].m_iPosY;

  000eb	a1 00 00 00 00	 mov	 eax, DWORD PTR ?gObj@@3PAUOBJECTSTRUCT@@A ; gObj
  000f0	0f b6 4e f8	 movzx	 ecx, BYTE PTR [esi-8]
  000f4	88 8c 02 53 01
	00 00		 mov	 BYTE PTR [edx+eax+339], cl

; 1478 : 					gObj[result].m_OldX			= (WORD)this->m_stObeliskInfo[i].m_iPosX;

  000fb	a1 00 00 00 00	 mov	 eax, DWORD PTR ?gObj@@3PAUOBJECTSTRUCT@@A ; gObj
  00100	0f b6 4e f4	 movzx	 ecx, BYTE PTR [esi-12]
  00104	88 8c 02 50 01
	00 00		 mov	 BYTE PTR [edx+eax+336], cl

; 1479 : 					gObj[result].m_OldY			= (WORD)this->m_stObeliskInfo[i].m_iPosY;

  0010b	a1 00 00 00 00	 mov	 eax, DWORD PTR ?gObj@@3PAUOBJECTSTRUCT@@A ; gObj
  00110	0f b6 4e f8	 movzx	 ecx, BYTE PTR [esi-8]
  00114	88 8c 02 51 01
	00 00		 mov	 BYTE PTR [edx+eax+337], cl

; 1480 : 					gObj[result].StartX			= (BYTE)this->m_stObeliskInfo[i].m_iPosX;

  0011b	a1 00 00 00 00	 mov	 eax, DWORD PTR ?gObj@@3PAUOBJECTSTRUCT@@A ; gObj
  00120	0f b6 4e f4	 movzx	 ecx, BYTE PTR [esi-12]
  00124	88 8c 02 4e 01
	00 00		 mov	 BYTE PTR [edx+eax+334], cl

; 1481 : 					gObj[result].StartY			= (BYTE)this->m_stObeliskInfo[i].m_iPosY;

  0012b	a1 00 00 00 00	 mov	 eax, DWORD PTR ?gObj@@3PAUOBJECTSTRUCT@@A ; gObj
  00130	0f b6 4e f8	 movzx	 ecx, BYTE PTR [esi-8]
  00134	88 8c 02 4f 01
	00 00		 mov	 BYTE PTR [edx+eax+335], cl

; 1482 : 					gObj[result].Dir			= 1;

  0013b	a1 00 00 00 00	 mov	 eax, DWORD PTR ?gObj@@3PAUOBJECTSTRUCT@@A ; gObj
  00140	c6 84 02 22 01
	00 00 01	 mov	 BYTE PTR [edx+eax+290], 1

; 1483 : 					gObj[result].Live			= true;

  00148	a1 00 00 00 00	 mov	 eax, DWORD PTR ?gObj@@3PAUOBJECTSTRUCT@@A ; gObj
  0014d	c6 44 02 51 01	 mov	 BYTE PTR [edx+eax+81], 1

; 1484 : 					gObj[result].DieRegen		= 0;

  00152	a1 00 00 00 00	 mov	 eax, DWORD PTR ?gObj@@3PAUOBJECTSTRUCT@@A ; gObj
  00157	c6 84 02 8a 05
	00 00 00	 mov	 BYTE PTR [edx+eax+1418], 0

; 1485 : 					gObj[result].MaxRegenTime	= 0;

  0015f	a1 00 00 00 00	 mov	 eax, DWORD PTR ?gObj@@3PAUOBJECTSTRUCT@@A ; gObj
  00164	c7 84 02 94 05
	00 00 00 00 00
	00		 mov	 DWORD PTR [edx+eax+1428], 0
  0016f	66 0f 6e 46 ec	 movd	 xmm0, DWORD PTR [esi-20]

; 1486 : 					gObj[result].MaxLife		= (double)this->m_stObeliskInfo[i].m_iOccupyHP;

  00174	a1 00 00 00 00	 mov	 eax, DWORD PTR ?gObj@@3PAUOBJECTSTRUCT@@A ; gObj
  00179	0f 5b c0	 cvtdq2ps xmm0, xmm0
  0017c	f3 0f 11 84 02
	dc 00 00 00	 movss	 DWORD PTR [edx+eax+220], xmm0
  00185	66 0f 6e 46 ec	 movd	 xmm0, DWORD PTR [esi-20]

; 1487 : 					gObj[result].Life			= (double)this->m_stObeliskInfo[i].m_iOccupyHP;

  0018a	a1 00 00 00 00	 mov	 eax, DWORD PTR ?gObj@@3PAUOBJECTSTRUCT@@A ; gObj
  0018f	0f 5b c0	 cvtdq2ps xmm0, xmm0
  00192	f3 0f 11 84 02
	d8 00 00 00	 movss	 DWORD PTR [edx+eax+216], xmm0

; 1488 : 					// ----
; 1489 : 					this->m_stObeliskState[i].m_iMonIndex = result;

  0019b	8b 45 fc	 mov	 eax, DWORD PTR _result$1$[ebp]

; 1490 : 					LogAddTD("[ArcaBattle] (%d) Obelisk be Regen.", result);

  0019e	50		 push	 eax
  0019f	68 00 00 00 00	 push	 OFFSET ??_C@_0CE@LIFLCJPD@?$FLArcaBattle?$FN?5?$CI?$CFd?$CJ?5Obelisk?5be?5Reg@
  001a4	89 07		 mov	 DWORD PTR [edi], eax
  001a6	ff 15 00 00 00
	00		 call	 DWORD PTR ?LogAddTD@@3P6AXPADZZA ; LogAddTD
  001ac	83 c4 10	 add	 esp, 16			; 00000010H
$LN2@RegenObeli:

; 1449 : 	for( int i = 0; i < this->m_iObeliskCnt; i++ )

  001af	8b 45 f8	 mov	 eax, DWORD PTR _this$1$[ebp]
  001b2	43		 inc	 ebx
  001b3	83 c6 58	 add	 esi, 88			; 00000058H
  001b6	83 c7 54	 add	 edi, 84			; 00000054H
  001b9	3b 98 ac 34 00
	00		 cmp	 ebx, DWORD PTR [eax+13484]
  001bf	0f 8c 63 fe ff
	ff		 jl	 $LN20@RegenObeli
$LN3@RegenObeli:
  001c5	5f		 pop	 edi
  001c6	5e		 pop	 esi

; 1491 : 				}
; 1492 : 			}
; 1493 : 		}
; 1494 : 	}
; 1495 : 	// ----
; 1496 : 	return true;

  001c7	b8 01 00 00 00	 mov	 eax, 1
  001cc	5b		 pop	 ebx

; 1497 : }

  001cd	8b e5		 mov	 esp, ebp
  001cf	5d		 pop	 ebp
  001d0	c3		 ret	 0
$LN14@RegenObeli:
  001d1	5f		 pop	 edi
  001d2	5e		 pop	 esi

; 1454 : 		{
; 1455 : 			return false;

  001d3	33 c0		 xor	 eax, eax
  001d5	5b		 pop	 ebx

; 1497 : }

  001d6	8b e5		 mov	 esp, ebp
  001d8	5d		 pop	 ebp
  001d9	c3		 ret	 0
?RegenObelisk@CArcaBattle@@QAEHXZ ENDP			; CArcaBattle::RegenObelisk
_TEXT	ENDS
; Function compile flags: /Ogtp
; File c:\users\michel\desktop\source\gameserver\source\arcabattle.cpp
; File c:\users\michel\desktop\source\gameserver\source\arcabattle.h
; File c:\users\michel\desktop\source\gameserver\source\arcabattle.cpp
;	COMDAT ?SetObelisk@CArcaBattle@@QAEHXZ
_TEXT	SEGMENT
tv1276 = -20						; size = 4
_i$1$ = -16						; size = 4
_result$1$ = -12					; size = 4
_this$1$ = -8						; size = 4
tv1277 = -4						; size = 4
?SetObelisk@CArcaBattle@@QAEHXZ PROC			; CArcaBattle::SetObelisk, COMDAT
; _this$ = ecx

; 1554 : {

  00000	55		 push	 ebp
  00001	8b ec		 mov	 ebp, esp
  00003	83 ec 14	 sub	 esp, 20			; 00000014H
  00006	53		 push	 ebx
  00007	8b c1		 mov	 eax, ecx

; 1555 : 	for( int iCnt = 0; iCnt < AB_MAX_BATTLEPOS; iCnt++ )

  00009	bb 05 00 00 00	 mov	 ebx, 5
  0000e	56		 push	 esi
  0000f	57		 push	 edi
  00010	89 45 f8	 mov	 DWORD PTR _this$1$[ebp], eax
  00013	8d b0 98 31 00
	00		 lea	 esi, DWORD PTR [eax+12696]
  00019	0f 1f 80 00 00
	00 00		 npad	 7
$LL4@SetObelisk:

; 1556 : 	{
; 1557 : 		if ( this->m_stObeliskState[iCnt].m_iMonIndex >= 0 )

  00020	8b 7e fc	 mov	 edi, DWORD PTR [esi-4]
  00023	85 ff		 test	 edi, edi
  00025	78 15		 js	 SHORT $LN11@SetObelisk

; 1558 : 		{
; 1559 : 			int iIndex = this->m_stObeliskState[iCnt].m_iMonIndex;
; 1560 : 			LogAdd("[ArcaBattle][Obelisk] Delete Monster - %d ", this->m_stObeliskState[iCnt].m_iMonIndex);

  00027	57		 push	 edi
  00028	68 00 00 00 00	 push	 OFFSET ??_C@_0CL@GGLEKHEH@?$FLArcaBattle?$FN?$FLObelisk?$FN?5Delete?5Mon@
  0002d	ff 15 00 00 00
	00		 call	 DWORD PTR ?LogAdd@@3P6AXPADZZA ; LogAdd

; 1561 : #if( AB_DEBUG_TRACE == 1 )
; 1562 : 			TRACE_LOG("[ArcaBattle][Obelisk] Delete Monster - %d ", this->m_stObeliskState[iCnt].m_iMonIndex);
; 1563 : #endif
; 1564 : 			gObjDel(iIndex);

  00033	57		 push	 edi
  00034	e8 00 00 00 00	 call	 ?gObjDel@@YAFH@Z	; gObjDel
  00039	83 c4 0c	 add	 esp, 12			; 0000000cH
$LN11@SetObelisk:
; File c:\users\michel\desktop\source\gameserver\source\arcabattle.h

; 298  : 		memset(this->m_stAuraState, -1, 48);

  0003c	6a 30		 push	 48			; 00000030H
  0003e	c7 46 f8 ff ff
	ff ff		 mov	 DWORD PTR [esi-8], -1
  00045	8d 46 1c	 lea	 eax, DWORD PTR [esi+28]
  00048	c7 46 fc ff ff
	ff ff		 mov	 DWORD PTR [esi-4], -1
  0004f	0f 57 c0	 xorps	 xmm0, xmm0

; 293  : 		this->m_iAuraState				= 0;

  00052	c7 06 00 00 00
	00		 mov	 DWORD PTR [esi], 0

; 294  : 		this->m_iAuraReleaseGuildNum	= -1;

  00058	c7 46 04 ff ff
	ff ff		 mov	 DWORD PTR [esi+4], -1

; 295  : 		this->m_iOccupyGuildNum			= -1;

  0005f	c7 46 0c ff ff
	ff ff		 mov	 DWORD PTR [esi+12], -1

; 296  : 		this->m_iObeliskState			= 0;

  00066	c7 46 08 00 00
	00 00		 mov	 DWORD PTR [esi+8], 0

; 298  : 		memset(this->m_stAuraState, -1, 48);

  0006d	6a ff		 push	 -1
  0006f	66 0f d6 46 10	 movq	 QWORD PTR [esi+16], xmm0
  00074	50		 push	 eax
  00075	c6 46 18 00	 mov	 BYTE PTR [esi+24], 0
  00079	e8 00 00 00 00	 call	 _memset
  0007e	83 c4 0c	 add	 esp, 12			; 0000000cH
; File c:\users\michel\desktop\source\gameserver\source\arcabattle.cpp

; 1555 : 	for( int iCnt = 0; iCnt < AB_MAX_BATTLEPOS; iCnt++ )

  00081	83 c6 54	 add	 esi, 84			; 00000054H
  00084	83 eb 01	 sub	 ebx, 1
  00087	75 97		 jne	 SHORT $LL4@SetObelisk

; 1565 : 		}
; 1566 : 		// ----
; 1567 : 		this->m_stObeliskState[iCnt].Clear();
; 1568 : 	}
; 1569 : 	// ----
; 1570 : 	for( int i = 0; i < this->m_iObeliskCnt; i++ )

  00089	8b 7d f8	 mov	 edi, DWORD PTR _this$1$[ebp]
  0008c	89 5d f0	 mov	 DWORD PTR _i$1$[ebp], ebx
  0008f	39 9f ac 34 00
	00		 cmp	 DWORD PTR [edi+13484], ebx
  00095	0f 8e e4 02 00
	00		 jle	 $LN29@SetObelisk
  0009b	33 f6		 xor	 esi, esi
  0009d	8d 9f ec 2f 00
	00		 lea	 ebx, DWORD PTR [edi+12268]
  000a3	89 75 fc	 mov	 DWORD PTR tv1277[ebp], esi
  000a6	89 5d ec	 mov	 DWORD PTR tv1276[ebp], ebx
  000a9	0f 1f 80 00 00
	00 00		 npad	 7
$LL7@SetObelisk:

; 1571 : 	{
; 1572 : 		int result = gObjAddMonster(this->m_stObeliskInfo[i].m_iMapIndex);

  000b0	ff 73 fc	 push	 DWORD PTR [ebx-4]
  000b3	e8 00 00 00 00	 call	 ?gObjAddMonster@@YAFH@Z	; gObjAddMonster
  000b8	98		 cwde
  000b9	83 c4 04	 add	 esp, 4
  000bc	89 45 f4	 mov	 DWORD PTR _result$1$[ebp], eax

; 1573 : 		// ----
; 1574 : 		if( result >= 0 )

  000bf	85 c0		 test	 eax, eax
  000c1	0f 88 36 01 00
	00		 js	 $LN12@SetObelisk

; 1575 : 		{
; 1576 : 			gObjSetMonster(result, this->m_stObeliskInfo[i].m_iMonsterNum);

  000c7	ff 73 08	 push	 DWORD PTR [ebx+8]
  000ca	50		 push	 eax
  000cb	e8 00 00 00 00	 call	 ?gObjSetMonster@@YAHHH@Z ; gObjSetMonster

; 1577 : 			// ----
; 1578 : 			gObj[result].Class			= (WORD)this->m_stObeliskInfo[i].m_iMonsterNum;

  000d0	69 55 f4 40 27
	00 00		 imul	 edx, DWORD PTR _result$1$[ebp], 10048
  000d7	a1 00 00 00 00	 mov	 eax, DWORD PTR ?gObj@@3PAUOBJECTSTRUCT@@A ; gObj
  000dc	66 8b 4b 08	 mov	 cx, WORD PTR [ebx+8]
  000e0	66 89 8c 02 90
	00 00 00	 mov	 WORD PTR [edx+eax+144], cx

; 1579 : 			gObj[result].MapNumber		= (BYTE)this->m_stObeliskInfo[i].m_iMapIndex;

  000e8	a1 00 00 00 00	 mov	 eax, DWORD PTR ?gObj@@3PAUOBJECTSTRUCT@@A ; gObj
  000ed	0f b6 4b fc	 movzx	 ecx, BYTE PTR [ebx-4]
  000f1	88 8c 02 23 01
	00 00		 mov	 BYTE PTR [edx+eax+291], cl

; 1580 : 			gObj[result].X				= (WORD)this->m_stObeliskInfo[i].m_iPosX;

  000f8	a1 00 00 00 00	 mov	 eax, DWORD PTR ?gObj@@3PAUOBJECTSTRUCT@@A ; gObj
  000fd	0f b6 0b	 movzx	 ecx, BYTE PTR [ebx]
  00100	88 8c 02 20 01
	00 00		 mov	 BYTE PTR [edx+eax+288], cl

; 1581 : 			gObj[result].Y				= (WORD)this->m_stObeliskInfo[i].m_iPosY;

  00107	a1 00 00 00 00	 mov	 eax, DWORD PTR ?gObj@@3PAUOBJECTSTRUCT@@A ; gObj
  0010c	0f b6 4b 04	 movzx	 ecx, BYTE PTR [ebx+4]
  00110	88 8c 02 21 01
	00 00		 mov	 BYTE PTR [edx+eax+289], cl

; 1582 : 			gObj[result].TX				= (WORD)this->m_stObeliskInfo[i].m_iPosX;

  00117	a1 00 00 00 00	 mov	 eax, DWORD PTR ?gObj@@3PAUOBJECTSTRUCT@@A ; gObj
  0011c	0f b6 0b	 movzx	 ecx, BYTE PTR [ebx]
  0011f	88 8c 02 52 01
	00 00		 mov	 BYTE PTR [edx+eax+338], cl

; 1583 : 			gObj[result].TY				= (WORD)this->m_stObeliskInfo[i].m_iPosY;

  00126	a1 00 00 00 00	 mov	 eax, DWORD PTR ?gObj@@3PAUOBJECTSTRUCT@@A ; gObj
  0012b	0f b6 4b 04	 movzx	 ecx, BYTE PTR [ebx+4]
  0012f	88 8c 02 53 01
	00 00		 mov	 BYTE PTR [edx+eax+339], cl

; 1584 : 			gObj[result].m_OldX			= (WORD)this->m_stObeliskInfo[i].m_iPosX;

  00136	a1 00 00 00 00	 mov	 eax, DWORD PTR ?gObj@@3PAUOBJECTSTRUCT@@A ; gObj
  0013b	0f b6 0b	 movzx	 ecx, BYTE PTR [ebx]
  0013e	88 8c 02 50 01
	00 00		 mov	 BYTE PTR [edx+eax+336], cl

; 1585 : 			gObj[result].m_OldY			= (WORD)this->m_stObeliskInfo[i].m_iPosY;

  00145	a1 00 00 00 00	 mov	 eax, DWORD PTR ?gObj@@3PAUOBJECTSTRUCT@@A ; gObj
  0014a	0f b6 4b 04	 movzx	 ecx, BYTE PTR [ebx+4]
  0014e	88 8c 02 51 01
	00 00		 mov	 BYTE PTR [edx+eax+337], cl

; 1586 : 			gObj[result].StartX			= (BYTE)this->m_stObeliskInfo[i].m_iPosX;

  00155	a1 00 00 00 00	 mov	 eax, DWORD PTR ?gObj@@3PAUOBJECTSTRUCT@@A ; gObj
  0015a	0f b6 0b	 movzx	 ecx, BYTE PTR [ebx]
  0015d	88 8c 02 4e 01
	00 00		 mov	 BYTE PTR [edx+eax+334], cl

; 1587 : 			gObj[result].StartY			= (BYTE)this->m_stObeliskInfo[i].m_iPosY;

  00164	a1 00 00 00 00	 mov	 eax, DWORD PTR ?gObj@@3PAUOBJECTSTRUCT@@A ; gObj
  00169	0f b6 4b 04	 movzx	 ecx, BYTE PTR [ebx+4]
  0016d	88 8c 02 4f 01
	00 00		 mov	 BYTE PTR [edx+eax+335], cl

; 1588 : 			gObj[result].Dir			= 1;

  00174	a1 00 00 00 00	 mov	 eax, DWORD PTR ?gObj@@3PAUOBJECTSTRUCT@@A ; gObj
  00179	c6 84 02 22 01
	00 00 01	 mov	 BYTE PTR [edx+eax+290], 1

; 1589 : 			gObj[result].Live			= true;

  00181	a1 00 00 00 00	 mov	 eax, DWORD PTR ?gObj@@3PAUOBJECTSTRUCT@@A ; gObj
  00186	c6 44 02 51 01	 mov	 BYTE PTR [edx+eax+81], 1

; 1590 : 			gObj[result].DieRegen		= 0;

  0018b	a1 00 00 00 00	 mov	 eax, DWORD PTR ?gObj@@3PAUOBJECTSTRUCT@@A ; gObj
  00190	c6 84 02 8a 05
	00 00 00	 mov	 BYTE PTR [edx+eax+1418], 0

; 1591 : 			gObj[result].m_State		= 1;

  00198	a1 00 00 00 00	 mov	 eax, DWORD PTR ?gObj@@3PAUOBJECTSTRUCT@@A ; gObj
  0019d	c7 84 02 d0 01
	00 00 01 00 00
	00		 mov	 DWORD PTR [edx+eax+464], 1

; 1592 : 			gObj[result].MaxRegenTime	= 0;

  001a8	a1 00 00 00 00	 mov	 eax, DWORD PTR ?gObj@@3PAUOBJECTSTRUCT@@A ; gObj
  001ad	c7 84 02 94 05
	00 00 00 00 00
	00		 mov	 DWORD PTR [edx+eax+1428], 0
  001b8	66 0f 6e 43 f4	 movd	 xmm0, DWORD PTR [ebx-12]

; 1593 : 			gObj[result].MaxLife		= (double)this->m_stObeliskInfo[i].m_iHP;

  001bd	a1 00 00 00 00	 mov	 eax, DWORD PTR ?gObj@@3PAUOBJECTSTRUCT@@A ; gObj
  001c2	0f 5b c0	 cvtdq2ps xmm0, xmm0
  001c5	f3 0f 11 84 02
	dc 00 00 00	 movss	 DWORD PTR [edx+eax+220], xmm0
  001ce	66 0f 6e 43 f4	 movd	 xmm0, DWORD PTR [ebx-12]

; 1594 : 			gObj[result].Life			= (double)this->m_stObeliskInfo[i].m_iHP;

  001d3	a1 00 00 00 00	 mov	 eax, DWORD PTR ?gObj@@3PAUOBJECTSTRUCT@@A ; gObj
  001d8	0f 5b c0	 cvtdq2ps xmm0, xmm0
  001db	f3 0f 11 84 02
	d8 00 00 00	 movss	 DWORD PTR [edx+eax+216], xmm0

; 1595 : 			// ----
; 1596 : 			this->m_stObeliskState[i].m_iMonIndex = result;

  001e4	8b 45 f4	 mov	 eax, DWORD PTR _result$1$[ebp]

; 1597 : 			LogAddTD("[ArcaBattle] (%d) Obelisk be created.", result);

  001e7	50		 push	 eax
  001e8	68 00 00 00 00	 push	 OFFSET ??_C@_0CG@BMIFBHBK@?$FLArcaBattle?$FN?5?$CI?$CFd?$CJ?5Obelisk?5be?5cre@
  001ed	89 84 37 94 31
	00 00		 mov	 DWORD PTR [edi+esi+12692], eax
  001f4	ff 15 00 00 00
	00		 call	 DWORD PTR ?LogAddTD@@3P6AXPADZZA ; LogAddTD
  001fa	83 c4 10	 add	 esp, 16			; 00000010H
$LN12@SetObelisk:

; 1598 : 		}
; 1599 : 
; 1600 : 		// ----
; 1601 : 		for( int nAura = 0; nAura < AB_MAX_AURAPOS; nAura++ )

  001fd	bf c0 31 00 00	 mov	 edi, 12736		; 000031c0H
  00202	8d 73 1c	 lea	 esi, DWORD PTR [ebx+28]
$LL10@SetObelisk:

; 1602 : 		{
; 1603 : 			int nResult = gObjAddMonster(this->m_stObeliskInfo[i].m_stAuraInfo[nAura].m_iMapIndex);

  00205	ff 76 fc	 push	 DWORD PTR [esi-4]
  00208	e8 00 00 00 00	 call	 ?gObjAddMonster@@YAFH@Z	; gObjAddMonster
  0020d	0f bf d8	 movsx	 ebx, ax
  00210	83 c4 04	 add	 esp, 4

; 1604 : 			// ----
; 1605 : 			if( nResult >= 0 )

  00213	85 db		 test	 ebx, ebx
  00215	0f 88 2a 01 00
	00		 js	 $LN8@SetObelisk

; 1606 : 			{
; 1607 : 				gObjSetMonster(nResult, 603);

  0021b	68 5b 02 00 00	 push	 603			; 0000025bH
  00220	53		 push	 ebx
  00221	e8 00 00 00 00	 call	 ?gObjSetMonster@@YAHHH@Z ; gObjSetMonster

; 1608 : 				// ----
; 1609 : 				gObj[nResult].Class			= 603;

  00226	a1 00 00 00 00	 mov	 eax, DWORD PTR ?gObj@@3PAUOBJECTSTRUCT@@A ; gObj
  0022b	b9 5b 02 00 00	 mov	 ecx, 603		; 0000025bH
  00230	69 d3 40 27 00
	00		 imul	 edx, ebx, 10048

; 1610 : 				gObj[nResult].MapNumber		= (BYTE)this->m_stObeliskInfo[i].m_stAuraInfo[nAura].m_iMapIndex;
; 1611 : 				gObj[nResult].X				= (WORD)this->m_stObeliskInfo[i].m_stAuraInfo[nAura].m_iAuraPosX;
; 1612 : 				gObj[nResult].Y				= (WORD)this->m_stObeliskInfo[i].m_stAuraInfo[nAura].m_iAuraPosY;
; 1613 : 				gObj[nResult].TX			= (WORD)this->m_stObeliskInfo[i].m_stAuraInfo[nAura].m_iAuraPosX;
; 1614 : 				gObj[nResult].TY			= (WORD)this->m_stObeliskInfo[i].m_stAuraInfo[nAura].m_iAuraPosX;
; 1615 : 				gObj[nResult].m_OldX		= (WORD)this->m_stObeliskInfo[i].m_stAuraInfo[nAura].m_iAuraPosX;
; 1616 : 				gObj[nResult].m_OldY		= (WORD)this->m_stObeliskInfo[i].m_stAuraInfo[nAura].m_iAuraPosX;
; 1617 : 				gObj[nResult].StartX		= (BYTE)this->m_stObeliskInfo[i].m_stAuraInfo[nAura].m_iAuraPosX;
; 1618 : 				gObj[nResult].StartY		= (BYTE)this->m_stObeliskInfo[i].m_stAuraInfo[nAura].m_iAuraPosX;
; 1619 : 				gObj[nResult].Dir			= 1;
; 1620 : 				gObj[nResult].Live			= true;
; 1621 : 				gObj[nResult].DieRegen		= 0;
; 1622 : 				gObj[nResult].m_State		= 1;
; 1623 : 				gObj[nResult].MaxRegenTime	= 0;
; 1624 : 				gObj[nResult].MaxLife		= 1.0;
; 1625 : 				gObj[nResult].Life			= 1.0;
; 1626 : 				// ----
; 1627 : 				this->m_stObeliskState[i].m_stAuraState[nAura].m_iIndex = nResult;
; 1628 : 				LogAddTD("[ArcaBattle] (%d) Aura be created.", nResult);

  00236	53		 push	 ebx
  00237	68 00 00 00 00	 push	 OFFSET ??_C@_0CD@EAAGOHK@?$FLArcaBattle?$FN?5?$CI?$CFd?$CJ?5Aura?5be?5create@
  0023c	66 89 8c 02 90
	00 00 00	 mov	 WORD PTR [edx+eax+144], cx
  00244	a1 00 00 00 00	 mov	 eax, DWORD PTR ?gObj@@3PAUOBJECTSTRUCT@@A ; gObj
  00249	0f b6 4e fc	 movzx	 ecx, BYTE PTR [esi-4]
  0024d	88 8c 02 23 01
	00 00		 mov	 BYTE PTR [edx+eax+291], cl
  00254	a1 00 00 00 00	 mov	 eax, DWORD PTR ?gObj@@3PAUOBJECTSTRUCT@@A ; gObj
  00259	0f b6 0e	 movzx	 ecx, BYTE PTR [esi]
  0025c	88 8c 02 20 01
	00 00		 mov	 BYTE PTR [edx+eax+288], cl
  00263	a1 00 00 00 00	 mov	 eax, DWORD PTR ?gObj@@3PAUOBJECTSTRUCT@@A ; gObj
  00268	0f b6 4e 04	 movzx	 ecx, BYTE PTR [esi+4]
  0026c	88 8c 02 21 01
	00 00		 mov	 BYTE PTR [edx+eax+289], cl
  00273	a1 00 00 00 00	 mov	 eax, DWORD PTR ?gObj@@3PAUOBJECTSTRUCT@@A ; gObj
  00278	0f b6 0e	 movzx	 ecx, BYTE PTR [esi]
  0027b	88 8c 02 52 01
	00 00		 mov	 BYTE PTR [edx+eax+338], cl
  00282	a1 00 00 00 00	 mov	 eax, DWORD PTR ?gObj@@3PAUOBJECTSTRUCT@@A ; gObj
  00287	0f b6 0e	 movzx	 ecx, BYTE PTR [esi]
  0028a	88 8c 02 53 01
	00 00		 mov	 BYTE PTR [edx+eax+339], cl
  00291	a1 00 00 00 00	 mov	 eax, DWORD PTR ?gObj@@3PAUOBJECTSTRUCT@@A ; gObj
  00296	0f b6 0e	 movzx	 ecx, BYTE PTR [esi]
  00299	88 8c 02 50 01
	00 00		 mov	 BYTE PTR [edx+eax+336], cl
  002a0	a1 00 00 00 00	 mov	 eax, DWORD PTR ?gObj@@3PAUOBJECTSTRUCT@@A ; gObj
  002a5	0f b6 0e	 movzx	 ecx, BYTE PTR [esi]
  002a8	88 8c 02 51 01
	00 00		 mov	 BYTE PTR [edx+eax+337], cl
  002af	a1 00 00 00 00	 mov	 eax, DWORD PTR ?gObj@@3PAUOBJECTSTRUCT@@A ; gObj
  002b4	0f b6 0e	 movzx	 ecx, BYTE PTR [esi]
  002b7	88 8c 02 4e 01
	00 00		 mov	 BYTE PTR [edx+eax+334], cl
  002be	a1 00 00 00 00	 mov	 eax, DWORD PTR ?gObj@@3PAUOBJECTSTRUCT@@A ; gObj
  002c3	0f b6 0e	 movzx	 ecx, BYTE PTR [esi]
  002c6	88 8c 02 4f 01
	00 00		 mov	 BYTE PTR [edx+eax+335], cl
  002cd	a1 00 00 00 00	 mov	 eax, DWORD PTR ?gObj@@3PAUOBJECTSTRUCT@@A ; gObj
  002d2	8b 4d f8	 mov	 ecx, DWORD PTR _this$1$[ebp]
  002d5	c6 84 02 22 01
	00 00 01	 mov	 BYTE PTR [edx+eax+290], 1
  002dd	a1 00 00 00 00	 mov	 eax, DWORD PTR ?gObj@@3PAUOBJECTSTRUCT@@A ; gObj
  002e2	c6 44 02 51 01	 mov	 BYTE PTR [edx+eax+81], 1
  002e7	a1 00 00 00 00	 mov	 eax, DWORD PTR ?gObj@@3PAUOBJECTSTRUCT@@A ; gObj
  002ec	c6 84 02 8a 05
	00 00 00	 mov	 BYTE PTR [edx+eax+1418], 0
  002f4	a1 00 00 00 00	 mov	 eax, DWORD PTR ?gObj@@3PAUOBJECTSTRUCT@@A ; gObj
  002f9	c7 84 02 d0 01
	00 00 01 00 00
	00		 mov	 DWORD PTR [edx+eax+464], 1
  00304	a1 00 00 00 00	 mov	 eax, DWORD PTR ?gObj@@3PAUOBJECTSTRUCT@@A ; gObj
  00309	c7 84 02 94 05
	00 00 00 00 00
	00		 mov	 DWORD PTR [edx+eax+1428], 0
  00314	a1 00 00 00 00	 mov	 eax, DWORD PTR ?gObj@@3PAUOBJECTSTRUCT@@A ; gObj
  00319	c7 84 02 dc 00
	00 00 00 00 80
	3f		 mov	 DWORD PTR [edx+eax+220], 1065353216 ; 3f800000H
  00324	a1 00 00 00 00	 mov	 eax, DWORD PTR ?gObj@@3PAUOBJECTSTRUCT@@A ; gObj
  00329	c7 84 02 d8 00
	00 00 00 00 80
	3f		 mov	 DWORD PTR [edx+eax+216], 1065353216 ; 3f800000H
  00334	8b 45 fc	 mov	 eax, DWORD PTR tv1277[ebp]
  00337	03 c7		 add	 eax, edi
  00339	89 1c 08	 mov	 DWORD PTR [eax+ecx], ebx
  0033c	ff 15 00 00 00
	00		 call	 DWORD PTR ?LogAddTD@@3P6AXPADZZA ; LogAddTD
  00342	83 c4 10	 add	 esp, 16			; 00000010H
$LN8@SetObelisk:

; 1598 : 		}
; 1599 : 
; 1600 : 		// ----
; 1601 : 		for( int nAura = 0; nAura < AB_MAX_AURAPOS; nAura++ )

  00345	83 c7 10	 add	 edi, 16			; 00000010H
  00348	83 c6 10	 add	 esi, 16			; 00000010H
  0034b	81 ff f0 31 00
	00		 cmp	 edi, 12784		; 000031f0H
  00351	0f 8c ae fe ff
	ff		 jl	 $LL10@SetObelisk

; 1565 : 		}
; 1566 : 		// ----
; 1567 : 		this->m_stObeliskState[iCnt].Clear();
; 1568 : 	}
; 1569 : 	// ----
; 1570 : 	for( int i = 0; i < this->m_iObeliskCnt; i++ )

  00357	8b 45 f0	 mov	 eax, DWORD PTR _i$1$[ebp]
  0035a	8b 7d f8	 mov	 edi, DWORD PTR _this$1$[ebp]
  0035d	40		 inc	 eax
  0035e	8b 5d ec	 mov	 ebx, DWORD PTR tv1276[ebp]
  00361	8b 75 fc	 mov	 esi, DWORD PTR tv1277[ebp]
  00364	83 c3 58	 add	 ebx, 88			; 00000058H
  00367	83 c6 54	 add	 esi, 84			; 00000054H
  0036a	89 45 f0	 mov	 DWORD PTR _i$1$[ebp], eax
  0036d	89 5d ec	 mov	 DWORD PTR tv1276[ebp], ebx
  00370	89 75 fc	 mov	 DWORD PTR tv1277[ebp], esi
  00373	3b 87 ac 34 00
	00		 cmp	 eax, DWORD PTR [edi+13484]
  00379	0f 8c 31 fd ff
	ff		 jl	 $LL7@SetObelisk
$LN29@SetObelisk:
  0037f	5f		 pop	 edi
  00380	5e		 pop	 esi

; 1629 : 			}
; 1630 : 		}
; 1631 : 	}
; 1632 : 	// ----
; 1633 : 	return true;

  00381	b8 01 00 00 00	 mov	 eax, 1
  00386	5b		 pop	 ebx

; 1634 : }

  00387	8b e5		 mov	 esp, ebp
  00389	5d		 pop	 ebp
  0038a	c3		 ret	 0
?SetObelisk@CArcaBattle@@QAEHXZ ENDP			; CArcaBattle::SetObelisk
_TEXT	ENDS
; Function compile flags: /Ogtp
; File c:\users\michel\desktop\source\gameserver\source\arcabattle.cpp
;	COMDAT ?SetRandomObeliskAttr@CArcaBattle@@QAEXXZ
_TEXT	SEGMENT
_this$GSCopy$1$ = -52					; size = 4
tv612 = -48						; size = 4
_iArrMonsterIndex$ = -44				; size = 20
_iArrObeliskAttr$ = -24					; size = 20
__$ArrayPad$ = -4					; size = 4
?SetRandomObeliskAttr@CArcaBattle@@QAEXXZ PROC		; CArcaBattle::SetRandomObeliskAttr, COMDAT
; _this$ = ecx

; 1502 : {

  00000	55		 push	 ebp
  00001	8b ec		 mov	 ebp, esp
  00003	83 ec 34	 sub	 esp, 52			; 00000034H
  00006	a1 00 00 00 00	 mov	 eax, DWORD PTR ___security_cookie
  0000b	33 c5		 xor	 eax, ebp
  0000d	89 45 fc	 mov	 DWORD PTR __$ArrayPad$[ebp], eax
  00010	53		 push	 ebx
  00011	0f 57 c0	 xorps	 xmm0, xmm0
  00014	89 4d cc	 mov	 DWORD PTR _this$GSCopy$1$[ebp], ecx
  00017	56		 push	 esi
  00018	0f 11 45 e8	 movups	 XMMWORD PTR _iArrObeliskAttr$[ebp], xmm0

; 1503 : 	int iObeliskAttrCnt;
; 1504 : 	int iArrObeliskAttr[AB_MAX_BATTLEPOS];
; 1505 : 	int iArrMonsterIndex[AB_MAX_BATTLEPOS];
; 1506 : 	bool bflag;
; 1507 : 	int iRand;
; 1508 : 	int iObeliskAttr;
; 1509 : 	// ----
; 1510 : 	iArrObeliskAttr[0]	= 0;
; 1511 : 	iArrObeliskAttr[1]	= 0;
; 1512 : 	iArrObeliskAttr[2]	= 0;
; 1513 : 	iArrObeliskAttr[3]	= 0;
; 1514 : 	iArrObeliskAttr[4]	= 0;

  0001c	33 db		 xor	 ebx, ebx

; 1515 : 	iArrMonsterIndex[0] = 598;
; 1516 : 	iArrMonsterIndex[1] = 599;
; 1517 : 	iArrMonsterIndex[2] = 600;
; 1518 : 	iArrMonsterIndex[3] = 601;
; 1519 : 	iArrMonsterIndex[4] = 602;

  0001e	c7 45 e4 5a 02
	00 00		 mov	 DWORD PTR _iArrMonsterIndex$[ebp+16], 602 ; 0000025aH
  00025	0f 28 05 00 00
	00 00		 movaps	 xmm0, XMMWORD PTR __xmm@00000259000002580000025700000256

; 1520 : 	iObeliskAttrCnt		= 0;

  0002c	33 f6		 xor	 esi, esi
  0002e	57		 push	 edi
  0002f	8b 7d f4	 mov	 edi, DWORD PTR _iArrObeliskAttr$[ebp+12]
  00032	89 5d f8	 mov	 DWORD PTR _iArrObeliskAttr$[ebp+16], ebx
  00035	0f 11 45 d4	 movups	 XMMWORD PTR _iArrMonsterIndex$[ebp], xmm0
  00039	c7 45 d0 01 00
	00 00		 mov	 DWORD PTR tv612[ebp], 1
$LL4@SetRandomO:

; 1521 : 	// ----
; 1522 : 	do	//need check
; 1523 : 	{
; 1524 : 		iRand = rand() % AB_MAX_BATTLEPOS + 1;

  00040	e8 00 00 00 00	 call	 _rand
  00045	99		 cdq
  00046	b9 05 00 00 00	 mov	 ecx, 5
  0004b	f7 f9		 idiv	 ecx

; 1525 : 		bflag = false;

  0004d	32 c0		 xor	 al, al

; 1526 : 		// ----
; 1527 : 		for( int i = 0; i < AB_MAX_BATTLEPOS; i++ )
; 1528 : 		{
; 1529 : 			if( iArrObeliskAttr[i] == iRand )

  0004f	b9 01 00 00 00	 mov	 ecx, 1
  00054	42		 inc	 edx
  00055	0f b6 c0	 movzx	 eax, al
  00058	39 55 e8	 cmp	 DWORD PTR _iArrObeliskAttr$[ebp], edx
  0005b	0f 44 c1	 cmove	 eax, ecx
  0005e	39 55 ec	 cmp	 DWORD PTR _iArrObeliskAttr$[ebp+4], edx
  00061	0f b6 c0	 movzx	 eax, al
  00064	0f 44 c1	 cmove	 eax, ecx
  00067	8b 4d f0	 mov	 ecx, DWORD PTR _iArrObeliskAttr$[ebp+8]
  0006a	3b ca		 cmp	 ecx, edx
  0006c	0f b6 c0	 movzx	 eax, al
  0006f	0f 44 45 d0	 cmove	 eax, DWORD PTR tv612[ebp]
  00073	3b fa		 cmp	 edi, edx
  00075	0f b6 c0	 movzx	 eax, al
  00078	0f 44 45 d0	 cmove	 eax, DWORD PTR tv612[ebp]
  0007c	3b da		 cmp	 ebx, edx
  0007e	74 12		 je	 SHORT $LN2@SetRandomO

; 1530 : 			{
; 1531 : 				bflag = true;
; 1532 : 			}
; 1533 : 		}
; 1534 : 		// ----
; 1535 : 		if( !bflag )

  00080	84 c0		 test	 al, al
  00082	75 0e		 jne	 SHORT $LN2@SetRandomO

; 1536 : 		{
; 1537 : 			iArrObeliskAttr[iObeliskAttrCnt] = iRand;

  00084	89 54 b5 e8	 mov	 DWORD PTR _iArrObeliskAttr$[ebp+esi*4], edx

; 1538 : 			iObeliskAttrCnt++;

  00088	46		 inc	 esi
  00089	8b 5d f8	 mov	 ebx, DWORD PTR _iArrObeliskAttr$[ebp+16]
  0008c	8b 7d f4	 mov	 edi, DWORD PTR _iArrObeliskAttr$[ebp+12]
  0008f	8b 4d f0	 mov	 ecx, DWORD PTR _iArrObeliskAttr$[ebp+8]
$LN2@SetRandomO:

; 1539 : 		}
; 1540 : 
; 1541 : 	} while( iObeliskAttrCnt != AB_MAX_BATTLEPOS );

  00092	83 fe 05	 cmp	 esi, 5
  00095	75 a9		 jne	 SHORT $LL4@SetRandomO

; 1542 : 	// ----
; 1543 : 	for( int j = 0; j < AB_MAX_BATTLEPOS; j++ )
; 1544 : 	{
; 1545 : 		iObeliskAttr = iArrObeliskAttr[j];
; 1546 : 		this->m_stObeliskInfo[j].m_iAttrKind	= iObeliskAttr;

  00097	8b 7d cc	 mov	 edi, DWORD PTR _this$GSCopy$1$[ebp]
  0009a	8b 45 e8	 mov	 eax, DWORD PTR _iArrObeliskAttr$[ebp]
  0009d	89 87 dc 2f 00
	00		 mov	 DWORD PTR [edi+12252], eax

; 1547 : 		this->m_stObeliskInfo[j].m_iMonsterNum	= iArrMonsterIndex[iObeliskAttr];

  000a3	8b 44 85 d4	 mov	 eax, DWORD PTR _iArrMonsterIndex$[ebp+eax*4]
  000a7	89 87 f4 2f 00
	00		 mov	 DWORD PTR [edi+12276], eax
  000ad	8b 45 ec	 mov	 eax, DWORD PTR _iArrObeliskAttr$[ebp+4]
  000b0	89 87 34 30 00
	00		 mov	 DWORD PTR [edi+12340], eax
  000b6	89 8f 8c 30 00
	00		 mov	 DWORD PTR [edi+12428], ecx
  000bc	89 9f 3c 31 00
	00		 mov	 DWORD PTR [edi+12604], ebx
  000c2	8b 44 85 d4	 mov	 eax, DWORD PTR _iArrMonsterIndex$[ebp+eax*4]
  000c6	89 87 4c 30 00
	00		 mov	 DWORD PTR [edi+12364], eax
  000cc	8b 44 8d d4	 mov	 eax, DWORD PTR _iArrMonsterIndex$[ebp+ecx*4]

; 1548 : 	}
; 1549 : }

  000d0	8b 4d fc	 mov	 ecx, DWORD PTR __$ArrayPad$[ebp]
  000d3	89 87 a4 30 00
	00		 mov	 DWORD PTR [edi+12452], eax
  000d9	33 cd		 xor	 ecx, ebp
  000db	8b 45 f4	 mov	 eax, DWORD PTR _iArrObeliskAttr$[ebp+12]
  000de	89 87 e4 30 00
	00		 mov	 DWORD PTR [edi+12516], eax
  000e4	8b 44 85 d4	 mov	 eax, DWORD PTR _iArrMonsterIndex$[ebp+eax*4]
  000e8	89 87 fc 30 00
	00		 mov	 DWORD PTR [edi+12540], eax
  000ee	8b 44 9d d4	 mov	 eax, DWORD PTR _iArrMonsterIndex$[ebp+ebx*4]
  000f2	89 87 54 31 00
	00		 mov	 DWORD PTR [edi+12628], eax
  000f8	5f		 pop	 edi
  000f9	5e		 pop	 esi
  000fa	5b		 pop	 ebx
  000fb	e8 00 00 00 00	 call	 @__security_check_cookie@4
  00100	8b e5		 mov	 esp, ebp
  00102	5d		 pop	 ebp
  00103	c3		 ret	 0
?SetRandomObeliskAttr@CArcaBattle@@QAEXXZ ENDP		; CArcaBattle::SetRandomObeliskAttr
_TEXT	ENDS
; Function compile flags: /Ogtp
; File c:\users\michel\desktop\source\gameserver\source\arcabattle.cpp
;	COMDAT ?SendMapServerGroupMsg@CArcaBattle@@QAEXPAD@Z
_TEXT	SEGMENT
_lpszMsg$ = 8						; size = 4
?SendMapServerGroupMsg@CArcaBattle@@QAEXPAD@Z PROC	; CArcaBattle::SendMapServerGroupMsg, COMDAT
; _this$ = ecx

; 1297 : //	GS_GDReqMapSvrMsgMultiCast(g_MapServerManager.GetMapSvrGroup(), lpszMsg);
; 1298 : }

  00000	c2 04 00	 ret	 4
?SendMapServerGroupMsg@CArcaBattle@@QAEXPAD@Z ENDP	; CArcaBattle::SendMapServerGroupMsg
_TEXT	ENDS
; Function compile flags: /Ogtp
; File c:\users\michel\desktop\source\gameserver\source\arcabattle.cpp
; File c:\users\michel\desktop\source\gameserver\source\mapservermanager.h
; File c:\users\michel\desktop\source\gameserver\source\arcabattle.cpp
; File c:\users\michel\desktop\source\gameserver\source\mapservermanager.h
; File c:\users\michel\desktop\source\gameserver\source\arcabattle.cpp
;	COMDAT ?GDReqArcaBattleProcMultiCast@CArcaBattle@@QAEXH@Z
_TEXT	SEGMENT
_pMsg$ = -8						; size = 8
_iState$ = 8						; size = 4
?GDReqArcaBattleProcMultiCast@CArcaBattle@@QAEXH@Z PROC	; CArcaBattle::GDReqArcaBattleProcMultiCast, COMDAT
; _this$ = ecx

; 2685 : {

  00000	55		 push	 ebp
  00001	8b ec		 mov	 ebp, esp
  00003	83 ec 08	 sub	 esp, 8

; 2689 : 	pMsg.h.size		= sizeof(_tagPMSG_REQ_AB_PROC_INSERT_DS);
; 2690 : 	pMsg.h.headcode	= 0xF8;
; 2691 : 	pMsg.h.subcode	= 0x3E;
; 2692 : 	pMsg.btProcState= iState;

  00006	8a 45 08	 mov	 al, BYTE PTR _iState$[ebp]
  00009	88 45 fe	 mov	 BYTE PTR _pMsg$[ebp+6], al
; File c:\users\michel\desktop\source\gameserver\source\mapservermanager.h

; 55   : 		if ( this->m_lpThisMapSvrData != NULL )

  0000c	a1 f8 6a 01 00	 mov	 eax, DWORD PTR ?g_MapServerManager@@3VCMapServerManager@@A+92920
; File c:\users\michel\desktop\source\gameserver\source\arcabattle.cpp

; 2688 : 	pMsg.h.c		= 0xC1;

  00011	c7 45 f8 c1 08
	f8 3e		 mov	 DWORD PTR _pMsg$[ebp], 1056442561 ; 3ef808c1H
; File c:\users\michel\desktop\source\gameserver\source\mapservermanager.h

; 55   : 		if ( this->m_lpThisMapSvrData != NULL )

  00018	85 c0		 test	 eax, eax
  0001a	74 06		 je	 SHORT $LN4@GDReqArcaB

; 56   : 		{
; 57   : 			return m_lpThisMapSvrData->m_btMAPSVR_GROUP;

  0001c	0f b6 40 08	 movzx	 eax, BYTE PTR [eax+8]
  00020	eb 03		 jmp	 SHORT $LN3@GDReqArcaB
$LN4@GDReqArcaB:

; 58   : 		}
; 59   : 		return -1;

  00022	83 c8 ff	 or	 eax, -1
$LN3@GDReqArcaB:
; File c:\users\michel\desktop\source\gameserver\source\arcabattle.cpp

; 2693 : 	pMsg.wMapSvrNum	= g_MapServerManager.GetMapSvrGroup();

  00025	66 89 45 fc	 mov	 WORD PTR _pMsg$[ebp+4], ax

; 2694 : 	// ----
; 2695 : 	cDBSMng.Send((PCHAR)&pMsg, pMsg.h.size);

  00029	b9 00 00 00 00	 mov	 ecx, OFFSET ?cDBSMng@@3VDBSockMng@@A ; cDBSMng
  0002e	6a 08		 push	 8
  00030	8d 45 f8	 lea	 eax, DWORD PTR _pMsg$[ebp]
  00033	50		 push	 eax
  00034	e8 00 00 00 00	 call	 ?Send@DBSockMng@@QAEHPADH@Z ; DBSockMng::Send

; 2696 : }

  00039	8b e5		 mov	 esp, ebp
  0003b	5d		 pop	 ebp
  0003c	c2 04 00	 ret	 4
?GDReqArcaBattleProcMultiCast@CArcaBattle@@QAEXH@Z ENDP	; CArcaBattle::GDReqArcaBattleProcMultiCast
_TEXT	ENDS
; Function compile flags: /Ogtp
; File c:\users\michel\desktop\source\gameserver\source\arcabattle.cpp
;	COMDAT ?SetStatePlayEnd@CArcaBattle@@QAEXXZ
_TEXT	SEGMENT
?SetStatePlayEnd@CArcaBattle@@QAEXXZ PROC		; CArcaBattle::SetStatePlayEnd, COMDAT
; _this$ = ecx

; 726  : {

  00000	53		 push	 ebx
  00001	8b d9		 mov	 ebx, ecx
  00003	56		 push	 esi
  00004	57		 push	 edi

; 727  : 	this->m_bAB_CAN_ENTER = false;
; 728  : 	// ----
; 729  : 	for( int i = 0; i < AB_MAX_MONGROUP; i++ )

  00005	33 f6		 xor	 esi, esi
  00007	c6 83 3c 34 00
	00 00		 mov	 BYTE PTR [ebx+13372], 0
  0000e	8d bb ec e2 00
	00		 lea	 edi, DWORD PTR [ebx+58092]
$LL4@SetStatePl:

; 730  : 	{
; 731  : 		if( this->m_stMonsterGroupInfo[i].m_nGroupNumber > -1 )

  00014	83 3f ff	 cmp	 DWORD PTR [edi], -1
  00017	7e 08		 jle	 SHORT $LN2@SetStatePl

; 732  : 		{
; 733  : 			this->DeleteMonster(i);

  00019	56		 push	 esi
  0001a	8b cb		 mov	 ecx, ebx
  0001c	e8 00 00 00 00	 call	 ?DeleteMonster@CArcaBattle@@QAEXH@Z ; CArcaBattle::DeleteMonster
$LN2@SetStatePl:

; 727  : 	this->m_bAB_CAN_ENTER = false;
; 728  : 	// ----
; 729  : 	for( int i = 0; i < AB_MAX_MONGROUP; i++ )

  00021	46		 inc	 esi
  00022	81 c7 0c 08 00
	00		 add	 edi, 2060		; 0000080cH
  00028	83 fe 32	 cmp	 esi, 50			; 00000032H
  0002b	7c e7		 jl	 SHORT $LL4@SetStatePl

; 734  : 		}
; 735  : 	}
; 736  : }

  0002d	5f		 pop	 edi
  0002e	5e		 pop	 esi
  0002f	5b		 pop	 ebx
  00030	c3		 ret	 0
?SetStatePlayEnd@CArcaBattle@@QAEXXZ ENDP		; CArcaBattle::SetStatePlayEnd
_TEXT	ENDS
; Function compile flags: /Ogtp
; File c:\users\michel\desktop\source\gameserver\source\arcabattle.cpp
;	COMDAT ?SetStateClosed@CArcaBattle@@QAEXXZ
_TEXT	SEGMENT
?SetStateClosed@CArcaBattle@@QAEXXZ PROC		; CArcaBattle::SetStateClosed, COMDAT
; _this$ = ecx

; 720  : 	//Unfilled
; 721  : }

  00000	c3		 ret	 0
?SetStateClosed@CArcaBattle@@QAEXXZ ENDP		; CArcaBattle::SetStateClosed
_TEXT	ENDS
; Function compile flags: /Ogtp
; File c:\users\michel\desktop\source\gameserver\source\arcabattle.cpp
;	COMDAT ?SetStateReady@CArcaBattle@@QAEXXZ
_TEXT	SEGMENT
?SetStateReady@CArcaBattle@@QAEXXZ PROC			; CArcaBattle::SetStateReady, COMDAT
; _this$ = ecx

; 713  : 	this->GDReqArcaBattleJoinMemberUnderReq();

  00000	e9 00 00 00 00	 jmp	 ?GDReqArcaBattleJoinMemberUnderReq@CArcaBattle@@QAEXXZ ; CArcaBattle::GDReqArcaBattleJoinMemberUnderReq
?SetStateReady@CArcaBattle@@QAEXXZ ENDP			; CArcaBattle::SetStateReady
_TEXT	ENDS
; Function compile flags: /Ogtp
; File c:\users\michel\desktop\source\gameserver\source\arcabattle.cpp
;	COMDAT ?ProcStateChannelClose@CArcaBattle@@QAEXXZ
_TEXT	SEGMENT
_pMsg$1 = -276						; size = 272
_pMsg$2 = -276						; size = 272
__$ArrayPad$ = -4					; size = 4
?ProcStateChannelClose@CArcaBattle@@QAEXXZ PROC		; CArcaBattle::ProcStateChannelClose, COMDAT
; _this$ = ecx

; 1138 : {

  00000	55		 push	 ebp
  00001	8b ec		 mov	 ebp, esp
  00003	81 ec 14 01 00
	00		 sub	 esp, 276		; 00000114H
  00009	a1 00 00 00 00	 mov	 eax, DWORD PTR ___security_cookie
  0000e	33 c5		 xor	 eax, ebp
  00010	89 45 fc	 mov	 DWORD PTR __$ArrayPad$[ebp], eax
  00013	53		 push	 ebx
  00014	56		 push	 esi

; 1139 : 	int iTICK_MSEC = GetTickCount() - this->m_iAB_TICK_COUNT;

  00015	8b 35 00 00 00
	00		 mov	 esi, DWORD PTR __imp__GetTickCount@0
  0001b	8b d9		 mov	 ebx, ecx
  0001d	ff d6		 call	 esi
  0001f	2b 83 34 34 00
	00		 sub	 eax, DWORD PTR [ebx+13364]

; 1140 : 	// ----
; 1141 : 	if( iTICK_MSEC >= 1000 )

  00025	3d e8 03 00 00	 cmp	 eax, 1000		; 000003e8H
  0002a	0f 8c 90 01 00
	00		 jl	 $LN8@ProcStateC

; 1142 : 	{
; 1143 : 		this->m_iAB_REMAIN_MSEC -= iTICK_MSEC;

  00030	29 83 30 34 00
	00		 sub	 DWORD PTR [ebx+13360], eax

; 1144 : 		this->m_iAB_TICK_COUNT	= GetTickCount();

  00036	ff d6		 call	 esi
  00038	89 83 34 34 00
	00		 mov	 DWORD PTR [ebx+13364], eax

; 1145 : 		// ----
; 1146 : 		if( this->m_iAB_REMAIN_MSEC <= 60000 * this->m_iAB_ChannelTimeMin && GetTickCount() - this->m_dwAB_TICK_COUNT >= 60000 )

  0003e	69 83 98 34 00
	00 60 ea 00 00	 imul	 eax, DWORD PTR [ebx+13464], 60000
  00048	39 83 30 34 00
	00		 cmp	 DWORD PTR [ebx+13360], eax
  0004e	0f 8f 8b 00 00
	00		 jg	 $LN6@ProcStateC
  00054	ff d6		 call	 esi
  00056	2b 83 78 34 00
	00		 sub	 eax, DWORD PTR [ebx+13432]
  0005c	3d 60 ea 00 00	 cmp	 eax, 60000		; 0000ea60H
  00061	72 7c		 jb	 SHORT $LN6@ProcStateC

; 1147 : 		{
; 1148 : 			this->m_dwAB_TICK_COUNT		= GetTickCount();

  00063	ff d6		 call	 esi
  00065	89 83 78 34 00
	00		 mov	 DWORD PTR [ebx+13432], eax

; 1149 : 			this->m_iAB_NOTIFY_COUNT	= this->m_iAB_REMAIN_MSEC / 60000;
; 1150 : 			// ----
; 1151 : 			PMSG_NOTICE pMsg;
; 1152 : 			TNotice::MakeNoticeMsgEx(&pMsg, 0, lMsg.Get(3499));

  0006b	b9 00 00 00 00	 mov	 ecx, OFFSET ?lMsg@@3VMessage@@A ; lMsg
  00070	b8 73 b2 e7 45	 mov	 eax, 1172812403		; 45e7b273H
  00075	f7 ab 30 34 00
	00		 imul	 DWORD PTR [ebx+13360]
  0007b	68 ab 0d 00 00	 push	 3499			; 00000dabH
  00080	c1 fa 0e	 sar	 edx, 14			; 0000000eH
  00083	8b c2		 mov	 eax, edx
  00085	c1 e8 1f	 shr	 eax, 31			; 0000001fH
  00088	03 c2		 add	 eax, edx
  0008a	89 83 38 34 00
	00		 mov	 DWORD PTR [ebx+13368], eax
  00090	e8 00 00 00 00	 call	 ?Get@Message@@QAEPADH@Z	; Message::Get
  00095	50		 push	 eax
  00096	8d 85 ec fe ff
	ff		 lea	 eax, DWORD PTR _pMsg$2[ebp]
  0009c	6a 00		 push	 0
  0009e	50		 push	 eax
  0009f	e8 00 00 00 00	 call	 ?MakeNoticeMsgEx@TNotice@@SAXPAXEPADZZ ; TNotice::MakeNoticeMsgEx

; 1153 : 			TNotice::SetNoticeProperty(&pMsg, 0, _ARGB(-1, -1, 0xC8, 0x50), 1, 0, 20);

  000a4	6a 14		 push	 20			; 00000014H
  000a6	6a 00		 push	 0
  000a8	6a 01		 push	 1
  000aa	68 ff c8 50 ff	 push	 -11482881		; ff50c8ffH
  000af	8d 85 ec fe ff
	ff		 lea	 eax, DWORD PTR _pMsg$2[ebp]
  000b5	6a 00		 push	 0
  000b7	50		 push	 eax
  000b8	e8 00 00 00 00	 call	 ?SetNoticeProperty@TNotice@@SAXPAXEKEGE@Z ; TNotice::SetNoticeProperty

; 1154 : 			TNotice::SendNoticeToAllUser(&pMsg);

  000bd	8d 85 ec fe ff
	ff		 lea	 eax, DWORD PTR _pMsg$2[ebp]
  000c3	50		 push	 eax
  000c4	e8 00 00 00 00	 call	 ?SendNoticeToAllUser@TNotice@@SAXPAX@Z ; TNotice::SendNoticeToAllUser

; 1155 : 			LogAddTD("--L ++ +- -+ %d --T-L++-. +- +++ L+ +--+L.", this->m_iAB_NOTIFY_COUNT + 1);

  000c9	8b 83 38 34 00
	00		 mov	 eax, DWORD PTR [ebx+13368]
  000cf	40		 inc	 eax
  000d0	50		 push	 eax
  000d1	68 00 00 00 00	 push	 OFFSET ??_C@_0EG@LOLHIIII@?9?$KG?$KM?c?9?kL?$PP?5?$CL?d?$KG?$CL?5?$CL?9?$KM?q?5?9?$PO?$CL?$KB?5?$CFd?$KG?$KG?5?$KG?9?9@
  000d6	ff 15 00 00 00
	00		 call	 DWORD PTR ?LogAddTD@@3P6AXPADZZA ; LogAddTD
  000dc	83 c4 30	 add	 esp, 48			; 00000030H
$LN6@ProcStateC:

; 1156 : 		}
; 1157 : 		// ----
; 1158 : 		if( this->m_iAB_REMAIN_MSEC <= 30000 && this->m_iAB_REMAIN_MSEC >= 0 )

  000df	8b 8b 30 34 00
	00		 mov	 ecx, DWORD PTR [ebx+13360]
  000e5	81 f9 30 75 00
	00		 cmp	 ecx, 30000		; 00007530H
  000eb	7f 74		 jg	 SHORT $LN7@ProcStateC
  000ed	85 c9		 test	 ecx, ecx
  000ef	78 70		 js	 SHORT $LN7@ProcStateC

; 1159 : 		{
; 1160 : 			this->m_iAB_NOTIFY_COUNT = this->m_iAB_REMAIN_MSEC / 1000;

  000f1	b8 d3 4d 62 10	 mov	 eax, 274877907		; 10624dd3H
  000f6	f7 e9		 imul	 ecx

; 1161 : 			// ----
; 1162 : 			PMSG_NOTICE pMsg;
; 1163 : 			TNotice::MakeNoticeMsgEx(&pMsg, 0, lMsg.Get(3500));

  000f8	68 ac 0d 00 00	 push	 3500			; 00000dacH
  000fd	c1 fa 06	 sar	 edx, 6
  00100	b9 00 00 00 00	 mov	 ecx, OFFSET ?lMsg@@3VMessage@@A ; lMsg
  00105	8b c2		 mov	 eax, edx
  00107	c1 e8 1f	 shr	 eax, 31			; 0000001fH
  0010a	03 c2		 add	 eax, edx
  0010c	89 83 38 34 00
	00		 mov	 DWORD PTR [ebx+13368], eax
  00112	e8 00 00 00 00	 call	 ?Get@Message@@QAEPADH@Z	; Message::Get
  00117	50		 push	 eax
  00118	8d 85 ec fe ff
	ff		 lea	 eax, DWORD PTR _pMsg$1[ebp]
  0011e	6a 00		 push	 0
  00120	50		 push	 eax
  00121	e8 00 00 00 00	 call	 ?MakeNoticeMsgEx@TNotice@@SAXPAXEPADZZ ; TNotice::MakeNoticeMsgEx

; 1164 : 			TNotice::SetNoticeProperty(&pMsg, 0, _ARGB(-1, -1, 0xC8, 0x50), 1, 0, 20);

  00126	6a 14		 push	 20			; 00000014H
  00128	6a 00		 push	 0
  0012a	6a 01		 push	 1
  0012c	68 ff c8 50 ff	 push	 -11482881		; ff50c8ffH
  00131	8d 85 ec fe ff
	ff		 lea	 eax, DWORD PTR _pMsg$1[ebp]
  00137	6a 00		 push	 0
  00139	50		 push	 eax
  0013a	e8 00 00 00 00	 call	 ?SetNoticeProperty@TNotice@@SAXPAXEKEGE@Z ; TNotice::SetNoticeProperty

; 1165 : 			TNotice::SendNoticeToAllUser(&pMsg);

  0013f	8d 85 ec fe ff
	ff		 lea	 eax, DWORD PTR _pMsg$1[ebp]
  00145	50		 push	 eax
  00146	e8 00 00 00 00	 call	 ?SendNoticeToAllUser@TNotice@@SAXPAX@Z ; TNotice::SendNoticeToAllUser

; 1166 : 			LogAddTD("--L ++ +- -+ %d+ --T-L++-.+- +++ L+ +--+L.", this->m_iAB_NOTIFY_COUNT + 1);

  0014b	8b 83 38 34 00
	00		 mov	 eax, DWORD PTR [ebx+13368]
  00151	40		 inc	 eax
  00152	50		 push	 eax
  00153	68 00 00 00 00	 push	 OFFSET ??_C@_0EF@CHADKLEI@?9?$KG?$KM?c?9?kL?$PP?5?$CL?d?$KG?$CL?5?$CL?9?$KM?q?5?9?$PO?$CL?$KB?5?$CFd?$CL?$KG?5?$KG?9?9@
  00158	ff 15 00 00 00
	00		 call	 DWORD PTR ?LogAddTD@@3P6AXPADZZA ; LogAddTD
  0015e	83 c4 30	 add	 esp, 48			; 00000030H
$LN7@ProcStateC:

; 1167 : 		}
; 1168 : 		// ----
; 1169 : 		if( this->m_iAB_REMAIN_MSEC <= 0 )

  00161	83 bb 30 34 00
	00 00		 cmp	 DWORD PTR [ebx+13360], 0
  00168	7f 56		 jg	 SHORT $LN8@ProcStateC

; 1170 : 		{
; 1171 : 			this->Clear();

  0016a	57		 push	 edi
  0016b	8b cb		 mov	 ecx, ebx
  0016d	e8 00 00 00 00	 call	 ?Clear@CArcaBattle@@QAEXXZ ; CArcaBattle::Clear

; 1172 : 			// ----
; 1173 : 			for( int n = 9000; n < 10000; n++ )

  00172	bf 28 23 00 00	 mov	 edi, 9000		; 00002328H
  00177	be 00 e2 63 05	 mov	 esi, 90432000		; 0563e200H
  0017c	0f 1f 40 00	 npad	 4
$LL4@ProcStateC:

; 1174 : 			{
; 1175 : 				if( gObj[n].Connected == PLAYER_PLAYING )

  00180	a1 00 00 00 00	 mov	 eax, DWORD PTR ?gObj@@3PAUOBJECTSTRUCT@@A ; gObj
  00185	83 7c 06 04 03	 cmp	 DWORD PTR [esi+eax+4], 3
  0018a	75 12		 jne	 SHORT $LN2@ProcStateC

; 1176 : 				{
; 1177 : 					if( gObj[n].Type == OBJ_USER )

  0018c	80 7c 06 50 01	 cmp	 BYTE PTR [esi+eax+80], 1
  00191	75 0b		 jne	 SHORT $LN2@ProcStateC

; 1178 : 					{
; 1179 : 						gObjMoveGate(n, 27);	//Lorencia / Devias?

  00193	6a 1b		 push	 27			; 0000001bH
  00195	57		 push	 edi
  00196	e8 00 00 00 00	 call	 ?gObjMoveGate@@YAHHH@Z	; gObjMoveGate
  0019b	83 c4 08	 add	 esp, 8
$LN2@ProcStateC:

; 1172 : 			// ----
; 1173 : 			for( int n = 9000; n < 10000; n++ )

  0019e	81 c6 40 27 00
	00		 add	 esi, 10048		; 00002740H
  001a4	47		 inc	 edi
  001a5	81 fe 00 34 fd
	05		 cmp	 esi, 100480000		; 05fd3400H
  001ab	7c d3		 jl	 SHORT $LL4@ProcStateC

; 1180 : 					}
; 1181 : 				}
; 1182 : 			}
; 1183 : 			// ----
; 1184 : 			this->SetState(AB_STATE_NONE);

  001ad	6a 01		 push	 1
  001af	8b cb		 mov	 ecx, ebx
  001b1	e8 00 00 00 00	 call	 ?SetState@CArcaBattle@@QAEXH@Z ; CArcaBattle::SetState

; 1185 : 			this->GDReqArcaBattleProcMultiCast(AB_STATE_NONE);

  001b6	6a 01		 push	 1
  001b8	8b cb		 mov	 ecx, ebx
  001ba	e8 00 00 00 00	 call	 ?GDReqArcaBattleProcMultiCast@CArcaBattle@@QAEXH@Z ; CArcaBattle::GDReqArcaBattleProcMultiCast
  001bf	5f		 pop	 edi
$LN8@ProcStateC:

; 1186 : 		}
; 1187 : 	}
; 1188 : }

  001c0	8b 4d fc	 mov	 ecx, DWORD PTR __$ArrayPad$[ebp]
  001c3	5e		 pop	 esi
  001c4	33 cd		 xor	 ecx, ebp
  001c6	5b		 pop	 ebx
  001c7	e8 00 00 00 00	 call	 @__security_check_cookie@4
  001cc	8b e5		 mov	 esp, ebp
  001ce	5d		 pop	 ebp
  001cf	c3		 ret	 0
?ProcStateChannelClose@CArcaBattle@@QAEXXZ ENDP		; CArcaBattle::ProcStateChannelClose
_TEXT	ENDS
; Function compile flags: /Ogtp
; File c:\users\michel\desktop\source\gameserver\source\arcabattle.cpp
;	COMDAT ?ProcStateResult@CArcaBattle@@QAEXXZ
_TEXT	SEGMENT
_sLVL$1 = -292						; size = 2
_sX$2 = -288						; size = 2
_sY$3 = -284						; size = 2
_btDIR$4 = -278						; size = 1
_btMAPNUM$5 = -277					; size = 1
_pMsg$6 = -276						; size = 272
__$ArrayPad$ = -4					; size = 4
?ProcStateResult@CArcaBattle@@QAEXXZ PROC		; CArcaBattle::ProcStateResult, COMDAT
; _this$ = ecx

; 1074 : {

  00000	55		 push	 ebp
  00001	8b ec		 mov	 ebp, esp
  00003	81 ec 24 01 00
	00		 sub	 esp, 292		; 00000124H
  00009	a1 00 00 00 00	 mov	 eax, DWORD PTR ___security_cookie
  0000e	33 c5		 xor	 eax, ebp
  00010	89 45 fc	 mov	 DWORD PTR __$ArrayPad$[ebp], eax
  00013	53		 push	 ebx
  00014	56		 push	 esi

; 1075 : 	int iTICK_MSEC = GetTickCount() - this->m_iAB_TICK_COUNT;

  00015	8b 35 00 00 00
	00		 mov	 esi, DWORD PTR __imp__GetTickCount@0
  0001b	8b d9		 mov	 ebx, ecx
  0001d	ff d6		 call	 esi
  0001f	2b 83 34 34 00
	00		 sub	 eax, DWORD PTR [ebx+13364]

; 1076 : 	// ----
; 1077 : 	if( iTICK_MSEC >= 1000 )

  00025	3d e8 03 00 00	 cmp	 eax, 1000		; 000003e8H
  0002a	0f 8c 7b 01 00
	00		 jl	 $LN7@ProcStateR

; 1078 : 	{
; 1079 : 		this->m_iAB_REMAIN_MSEC -= iTICK_MSEC;

  00030	29 83 30 34 00
	00		 sub	 DWORD PTR [ebx+13360], eax

; 1080 : 		this->m_iAB_TICK_COUNT	= GetTickCount();

  00036	ff d6		 call	 esi

; 1081 : 		// ----
; 1082 : 		if( this->m_iAB_REMAIN_MSEC > 0 )

  00038	8b 8b 30 34 00
	00		 mov	 ecx, DWORD PTR [ebx+13360]
  0003e	89 83 34 34 00
	00		 mov	 DWORD PTR [ebx+13364], eax
  00044	85 c9		 test	 ecx, ecx
  00046	7e 70		 jle	 SHORT $LN6@ProcStateR

; 1083 : 		{
; 1084 : 			this->m_iAB_NOTIFY_COUNT = this->m_iAB_REMAIN_MSEC / 1000;

  00048	b8 d3 4d 62 10	 mov	 eax, 274877907		; 10624dd3H
  0004d	f7 e9		 imul	 ecx

; 1085 : 			// ----
; 1086 : 			PMSG_NOTICE pMsg;
; 1087 : 			TNotice::MakeNoticeMsgEx(&pMsg, 0, lMsg.Get(3498));

  0004f	68 aa 0d 00 00	 push	 3498			; 00000daaH
  00054	c1 fa 06	 sar	 edx, 6
  00057	b9 00 00 00 00	 mov	 ecx, OFFSET ?lMsg@@3VMessage@@A ; lMsg
  0005c	8b c2		 mov	 eax, edx
  0005e	c1 e8 1f	 shr	 eax, 31			; 0000001fH
  00061	03 c2		 add	 eax, edx
  00063	89 83 38 34 00
	00		 mov	 DWORD PTR [ebx+13368], eax
  00069	e8 00 00 00 00	 call	 ?Get@Message@@QAEPADH@Z	; Message::Get
  0006e	50		 push	 eax
  0006f	8d 85 ec fe ff
	ff		 lea	 eax, DWORD PTR _pMsg$6[ebp]
  00075	6a 00		 push	 0
  00077	50		 push	 eax
  00078	e8 00 00 00 00	 call	 ?MakeNoticeMsgEx@TNotice@@SAXPAXEPADZZ ; TNotice::MakeNoticeMsgEx

; 1088 : 			TNotice::SetNoticeProperty(&pMsg, 0, _ARGB(-1, -1, 0xC8, 0x50), 1, 0, 20);

  0007d	6a 14		 push	 20			; 00000014H
  0007f	6a 00		 push	 0
  00081	6a 01		 push	 1
  00083	68 ff c8 50 ff	 push	 -11482881		; ff50c8ffH
  00088	8d 85 ec fe ff
	ff		 lea	 eax, DWORD PTR _pMsg$6[ebp]
  0008e	6a 00		 push	 0
  00090	50		 push	 eax
  00091	e8 00 00 00 00	 call	 ?SetNoticeProperty@TNotice@@SAXPAXEKEGE@Z ; TNotice::SetNoticeProperty

; 1089 : 			TNotice::SendNoticeToAllUser(&pMsg);

  00096	8d 85 ec fe ff
	ff		 lea	 eax, DWORD PTR _pMsg$6[ebp]
  0009c	50		 push	 eax
  0009d	e8 00 00 00 00	 call	 ?SendNoticeToAllUser@TNotice@@SAXPAX@Z ; TNotice::SendNoticeToAllUser

; 1090 : 			LogAddTD("[ArcaBattle] --LL +---L++-. %d+ L- L+ L -++-.", this->m_iAB_NOTIFY_COUNT + 1);

  000a2	8b 83 38 34 00
	00		 mov	 eax, DWORD PTR [ebx+13368]
  000a8	40		 inc	 eax
  000a9	50		 push	 eax
  000aa	68 00 00 00 00	 push	 OFFSET ??_C@_0EE@BDAJDHLP@?$FLArcaBattle?$FN?5?9?$KG?$KM?c?9?kL?$PPL?$KG?5?$CL?9?$KM?q?$KG?$KG?9?$LH@
  000af	ff 15 00 00 00
	00		 call	 DWORD PTR ?LogAddTD@@3P6AXPADZZA ; LogAddTD
  000b5	83 c4 30	 add	 esp, 48			; 00000030H
$LN6@ProcStateR:

; 1091 : 		}
; 1092 : 		// ----
; 1093 : 		if( this->m_iAB_REMAIN_MSEC <= 0 )

  000b8	83 bb 30 34 00
	00 00		 cmp	 DWORD PTR [ebx+13360], 0
  000bf	0f 8f e6 00 00
	00		 jg	 $LN7@ProcStateR

; 1094 : 		{
; 1095 : 			this->m_dwAB_TICK_COUNT		= 0;
; 1096 : 			this->m_iAB_REMAIN_MSEC		= 60000 * this->m_iAB_ChannelTimeMin;

  000c5	69 8b 98 34 00
	00 60 ea 00 00	 imul	 ecx, DWORD PTR [ebx+13464], 60000

; 1097 : 			this->m_iAB_NOTIFY_COUNT	= this->m_iAB_REMAIN_MSEC / 60000;

  000cf	b8 73 b2 e7 45	 mov	 eax, 1172812403		; 45e7b273H
  000d4	c7 83 78 34 00
	00 00 00 00 00	 mov	 DWORD PTR [ebx+13432], 0

; 1098 : 			// ---- Only for position:
; 1099 : 			int iMapNumber;	//ebp-11c
; 1100 : 			short sX;	//ebp-120
; 1101 : 			BYTE btDIR;	//ebp-121
; 1102 : 			short sLVL;	//ebp-128
; 1103 : 			int iGateNum;	//ebp-12c
; 1104 : 			short sY;	//ebp-130
; 1105 : 			BYTE btMAPNUM;	//ebp-131
; 1106 : 			// ----
; 1107 : 			iGateNum	= 426;
; 1108 : 			btMAPNUM	= 92;

  000de	c6 85 eb fe ff
	ff 5c		 mov	 BYTE PTR _btMAPNUM$5[ebp], 92 ; 0000005cH
  000e5	f7 e9		 imul	 ecx
  000e7	89 8b 30 34 00
	00		 mov	 DWORD PTR [ebx+13360], ecx

; 1109 : 			//iMapNumber	= gGateC.GetGate(iGateNum, (short&)sX, (short&)sY, (BYTE&)btMAPNUM, (BYTE&)btDIR, (short&)sLVL);
; 1110 : 			iMapNumber	= gGateC.GetGate(iGateNum, (BYTE&)sX, (BYTE&)sY, (BYTE&)btMAPNUM, (BYTE&)btDIR, (short&)sLVL);

  000ed	b9 00 00 00 00	 mov	 ecx, OFFSET ?gGateC@@3VCGate@@A ; gGateC
  000f2	c1 fa 0e	 sar	 edx, 14			; 0000000eH
  000f5	8b c2		 mov	 eax, edx
  000f7	c1 e8 1f	 shr	 eax, 31			; 0000001fH
  000fa	03 c2		 add	 eax, edx
  000fc	89 83 38 34 00
	00		 mov	 DWORD PTR [ebx+13368], eax
  00102	8d 85 dc fe ff
	ff		 lea	 eax, DWORD PTR _sLVL$1[ebp]
  00108	50		 push	 eax
  00109	8d 85 ea fe ff
	ff		 lea	 eax, DWORD PTR _btDIR$4[ebp]
  0010f	50		 push	 eax
  00110	8d 85 eb fe ff
	ff		 lea	 eax, DWORD PTR _btMAPNUM$5[ebp]
  00116	50		 push	 eax
  00117	8d 85 e4 fe ff
	ff		 lea	 eax, DWORD PTR _sY$3[ebp]
  0011d	50		 push	 eax
  0011e	8d 85 e0 fe ff
	ff		 lea	 eax, DWORD PTR _sX$2[ebp]
  00124	50		 push	 eax
  00125	68 aa 01 00 00	 push	 426			; 000001aaH
  0012a	e8 00 00 00 00	 call	 ?GetGate@CGate@@QAEHHAAE000AAF@Z ; CGate::GetGate

; 1111 : 			// ----
; 1112 : 			if( iMapNumber >= 0 )

  0012f	85 c0		 test	 eax, eax
  00131	78 51		 js	 SHORT $LN3@ProcStateR

; 1113 : 			{
; 1114 : 				for( int n = OBJ_STARTUSERINDEX; n < OBJMAX; n++ )

  00133	57		 push	 edi
  00134	bf 04 29 00 00	 mov	 edi, 10500		; 00002904H
  00139	be 00 dd 49 06	 mov	 esi, 105504000		; 0649dd00H
  0013e	66 90		 npad	 2
$LL4@ProcStateR:

; 1115 : 				{
; 1116 : 					if( gObj[n].Connected == PLAYER_PLAYING )

  00140	a1 00 00 00 00	 mov	 eax, DWORD PTR ?gObj@@3PAUOBJECTSTRUCT@@A ; gObj
  00145	83 7c 06 04 03	 cmp	 DWORD PTR [esi+eax+4], 3
  0014a	75 28		 jne	 SHORT $LN2@ProcStateR

; 1117 : 					{
; 1118 : 						if( gObj[n].Type == OBJ_USER )

  0014c	80 7c 06 50 01	 cmp	 BYTE PTR [esi+eax+80], 1
  00151	75 21		 jne	 SHORT $LN2@ProcStateR

; 1119 : 						{
; 1120 : 							gObjTeleport(n, btMAPNUM, sX, sY);

  00153	0f bf 85 e4 fe
	ff ff		 movsx	 eax, WORD PTR _sY$3[ebp]
  0015a	50		 push	 eax
  0015b	0f bf 85 e0 fe
	ff ff		 movsx	 eax, WORD PTR _sX$2[ebp]
  00162	50		 push	 eax
  00163	0f b6 85 eb fe
	ff ff		 movzx	 eax, BYTE PTR _btMAPNUM$5[ebp]
  0016a	50		 push	 eax
  0016b	57		 push	 edi
  0016c	e8 00 00 00 00	 call	 ?gObjTeleport@@YAXHHHH@Z ; gObjTeleport
  00171	83 c4 10	 add	 esp, 16			; 00000010H
$LN2@ProcStateR:

; 1113 : 			{
; 1114 : 				for( int n = OBJ_STARTUSERINDEX; n < OBJMAX; n++ )

  00174	81 c6 40 27 00
	00		 add	 esi, 10048		; 00002740H
  0017a	47		 inc	 edi
  0017b	81 fe 00 2f e3
	06		 cmp	 esi, 115552000		; 06e32f00H
  00181	7c bd		 jl	 SHORT $LL4@ProcStateR
  00183	5f		 pop	 edi
$LN3@ProcStateR:

; 1121 : 						}
; 1122 : 					}
; 1123 : 				}
; 1124 : 			}
; 1125 : 			// ----
; 1126 : 			this->GDReqWinGuildInfoInsert();

  00184	8b cb		 mov	 ecx, ebx
  00186	e8 00 00 00 00	 call	 ?GDReqWinGuildInfoInsert@CArcaBattle@@QAEXXZ ; CArcaBattle::GDReqWinGuildInfoInsert

; 1127 : 			this->SendPlayResult();

  0018b	8b cb		 mov	 ecx, ebx
  0018d	e8 00 00 00 00	 call	 ?SendPlayResult@CArcaBattle@@QAEXXZ ; CArcaBattle::SendPlayResult

; 1128 : 			this->GiveRewardBuffWinningGuild();

  00192	8b cb		 mov	 ecx, ebx
  00194	e8 00 00 00 00	 call	 ?GiveRewardBuffWinningGuild@CArcaBattle@@QAEXXZ ; CArcaBattle::GiveRewardBuffWinningGuild

; 1129 : 			this->SetState(AB_STATE_CLOSE);

  00199	6a 09		 push	 9
  0019b	8b cb		 mov	 ecx, ebx
  0019d	e8 00 00 00 00	 call	 ?SetState@CArcaBattle@@QAEXH@Z ; CArcaBattle::SetState

; 1130 : 			this->GDReqArcaBattleProcMultiCast(AB_STATE_CLOSE);

  001a2	6a 09		 push	 9
  001a4	8b cb		 mov	 ecx, ebx
  001a6	e8 00 00 00 00	 call	 ?GDReqArcaBattleProcMultiCast@CArcaBattle@@QAEXH@Z ; CArcaBattle::GDReqArcaBattleProcMultiCast
$LN7@ProcStateR:

; 1131 : 		}
; 1132 : 	}
; 1133 : }

  001ab	8b 4d fc	 mov	 ecx, DWORD PTR __$ArrayPad$[ebp]
  001ae	5e		 pop	 esi
  001af	33 cd		 xor	 ecx, ebp
  001b1	5b		 pop	 ebx
  001b2	e8 00 00 00 00	 call	 @__security_check_cookie@4
  001b7	8b e5		 mov	 esp, ebp
  001b9	5d		 pop	 ebp
  001ba	c3		 ret	 0
?ProcStateResult@CArcaBattle@@QAEXXZ ENDP		; CArcaBattle::ProcStateResult
_TEXT	ENDS
; Function compile flags: /Ogtp
; File c:\users\michel\desktop\source\gameserver\source\arcabattle.cpp
; File c:\program files (x86)\microsoft visual studio 14.0\vc\atlmfc\include\atltime.h
; File c:\users\michel\desktop\source\gameserver\source\arcabattle.cpp
; File c:\program files (x86)\microsoft visual studio 14.0\vc\atlmfc\include\atltime.h
; File c:\users\michel\desktop\source\gameserver\source\arcabattle.cpp
;	COMDAT ?ProcStatePlayEnd@CArcaBattle@@QAEXXZ
_TEXT	SEGMENT
tv328 = -4						; size = 4
?ProcStatePlayEnd@CArcaBattle@@QAEXXZ PROC		; CArcaBattle::ProcStatePlayEnd, COMDAT
; _this$ = ecx

; 1193 : {

  00000	55		 push	 ebp
  00001	8b ec		 mov	 ebp, esp
  00003	51		 push	 ecx
  00004	53		 push	 ebx
  00005	56		 push	 esi

; 1194 : 	int iTICK_MSEC = GetTickCount() - this->m_iAB_TICK_COUNT; //ebp-4

  00006	8b 35 00 00 00
	00		 mov	 esi, DWORD PTR __imp__GetTickCount@0
  0000c	8b d9		 mov	 ebx, ecx
  0000e	ff d6		 call	 esi
  00010	2b 83 34 34 00
	00		 sub	 eax, DWORD PTR [ebx+13364]

; 1195 : 	// ----
; 1196 : 	if( iTICK_MSEC >= 1000 )

  00016	3d e8 03 00 00	 cmp	 eax, 1000		; 000003e8H
  0001b	7c 0e		 jl	 SHORT $LN5@ProcStateP

; 1197 : 	{
; 1198 : 		this->m_iAB_REMAIN_MSEC -= iTICK_MSEC;

  0001d	29 83 30 34 00
	00		 sub	 DWORD PTR [ebx+13360], eax

; 1199 : 		this->m_iAB_TICK_COUNT	= GetTickCount();

  00023	ff d6		 call	 esi
  00025	89 83 34 34 00
	00		 mov	 DWORD PTR [ebx+13364], eax
$LN5@ProcStateP:

; 1200 : 	}
; 1201 : 	// ----
; 1202 : 	if( this->m_iAB_REMAIN_MSEC <= 0 )

  0002b	83 bb 30 34 00
	00 00		 cmp	 DWORD PTR [ebx+13360], 0
  00032	7f 40		 jg	 SHORT $LN3@ProcStateP

; 1203 : 	{
; 1204 : 		for( int i = 0; i < AB_MAX_BATTLEPOS; i++ ) //ebp-8

  00034	57		 push	 edi
  00035	8d b3 38 33 00
	00		 lea	 esi, DWORD PTR [ebx+13112]
  0003b	c7 45 fc 05 00
	00 00		 mov	 DWORD PTR tv328[ebp], 5
  00042	8d bb dc 2f 00
	00		 lea	 edi, DWORD PTR [ebx+12252]
  00048	81 c3 a4 31 00
	00		 add	 ebx, 12708		; 000031a4H
  0004e	66 90		 npad	 2
$LL4@ProcStateP:
; File c:\program files (x86)\microsoft visual studio 14.0\vc\atlmfc\include\atltime.h

; 374  : 	return( CTime( ::_time64( NULL ) ) );

  00050	6a 00		 push	 0
  00052	e8 00 00 00 00	 call	 __time64
; File c:\users\michel\desktop\source\gameserver\source\arcabattle.cpp

; 1212 : 			this->m_stArcaBattleResultInfo[i].iGuildNum			= this->m_stObeliskState[i].m_iOccupyGuildNum;

  00057	8b 03		 mov	 eax, DWORD PTR [ebx]
  00059	8d 5b 54	 lea	 ebx, DWORD PTR [ebx+84]
  0005c	89 46 fc	 mov	 DWORD PTR [esi-4], eax
  0005f	8d 76 08	 lea	 esi, DWORD PTR [esi+8]

; 1213 : 			this->m_stArcaBattleResultInfo[i].iObeliskAttrKind	= this->m_stObeliskInfo[i].m_iAttrKind;

  00062	8b 07		 mov	 eax, DWORD PTR [edi]
  00064	8d 7f 58	 lea	 edi, DWORD PTR [edi+88]
; File c:\program files (x86)\microsoft visual studio 14.0\vc\atlmfc\include\atltime.h

; 374  : 	return( CTime( ::_time64( NULL ) ) );

  00067	83 c4 04	 add	 esp, 4
; File c:\users\michel\desktop\source\gameserver\source\arcabattle.cpp

; 1213 : 			this->m_stArcaBattleResultInfo[i].iObeliskAttrKind	= this->m_stObeliskInfo[i].m_iAttrKind;

  0006a	89 46 f8	 mov	 DWORD PTR [esi-8], eax
  0006d	83 6d fc 01	 sub	 DWORD PTR tv328[ebp], 1
  00071	75 dd		 jne	 SHORT $LL4@ProcStateP
  00073	5f		 pop	 edi
$LN3@ProcStateP:
  00074	5e		 pop	 esi
  00075	5b		 pop	 ebx

; 1214 : 		}
; 1215 : 	}
; 1216 : }

  00076	8b e5		 mov	 esp, ebp
  00078	5d		 pop	 ebp
  00079	c3		 ret	 0
?ProcStatePlayEnd@CArcaBattle@@QAEXXZ ENDP		; CArcaBattle::ProcStatePlayEnd
_TEXT	ENDS
; Function compile flags: /Ogtp
; File c:\users\michel\desktop\source\gameserver\source\arcabattle.cpp
;	COMDAT ?ProcStatePlaying@CArcaBattle@@QAEXXZ
_TEXT	SEGMENT
_pMsg$1 = -276						; size = 272
_pMsg$2 = -276						; size = 272
_pMsg$3 = -276						; size = 272
__$ArrayPad$ = -4					; size = 4
?ProcStatePlaying@CArcaBattle@@QAEXXZ PROC		; CArcaBattle::ProcStatePlaying, COMDAT
; _this$ = ecx

; 1007 : {

  00000	55		 push	 ebp
  00001	8b ec		 mov	 ebp, esp
  00003	81 ec 14 01 00
	00		 sub	 esp, 276		; 00000114H
  00009	a1 00 00 00 00	 mov	 eax, DWORD PTR ___security_cookie
  0000e	33 c5		 xor	 eax, ebp
  00010	89 45 fc	 mov	 DWORD PTR __$ArrayPad$[ebp], eax
  00013	56		 push	 esi
  00014	57		 push	 edi

; 1008 : 	int iTICK_MSEC = GetTickCount() - this->m_iAB_TICK_COUNT;

  00015	8b 3d 00 00 00
	00		 mov	 edi, DWORD PTR __imp__GetTickCount@0
  0001b	8b f1		 mov	 esi, ecx
  0001d	ff d7		 call	 edi
  0001f	2b 86 34 34 00
	00		 sub	 eax, DWORD PTR [esi+13364]

; 1009 : 	// ----
; 1010 : 	if( iTICK_MSEC >= 1000 )

  00025	3d e8 03 00 00	 cmp	 eax, 1000		; 000003e8H
  0002a	0f 8c 2e 02 00
	00		 jl	 $LN6@ProcStateP

; 1011 : 	{
; 1012 : 		this->m_iAB_REMAIN_MSEC -= iTICK_MSEC;

  00030	29 86 30 34 00
	00		 sub	 DWORD PTR [esi+13360], eax

; 1013 : 		this->m_iAB_TICK_COUNT	= GetTickCount();

  00036	ff d7		 call	 edi
  00038	89 86 34 34 00
	00		 mov	 DWORD PTR [esi+13364], eax

; 1014 : 		// ----
; 1015 : 		if(		this->m_iAB_REMAIN_MSEC >= 60000 * (this->m_iAB_PlayTimeMin - this->m_iAB_PlayNotifyTimeMin) 
; 1016 : 			&&	GetTickCount() - this->m_dwAB_TICK_COUNT_SEC >= 70000 )

  0003e	8b 86 94 34 00
	00		 mov	 eax, DWORD PTR [esi+13460]
  00044	2b 86 90 34 00
	00		 sub	 eax, DWORD PTR [esi+13456]
  0004a	69 c0 60 ea 00
	00		 imul	 eax, eax, 60000
  00050	39 86 30 34 00
	00		 cmp	 DWORD PTR [esi+13360], eax
  00056	7c 68		 jl	 SHORT $LN3@ProcStateP
  00058	ff d7		 call	 edi
  0005a	2b 86 7c 34 00
	00		 sub	 eax, DWORD PTR [esi+13436]
  00060	3d 70 11 01 00	 cmp	 eax, 70000		; 00011170H
  00065	72 59		 jb	 SHORT $LN3@ProcStateP

; 1017 : 		{
; 1018 : 			this->m_dwAB_TICK_COUNT_SEC = GetTickCount();

  00067	ff d7		 call	 edi

; 1019 : 			// ----
; 1020 : 			PMSG_NOTICE pMsg;
; 1021 : 			TNotice::MakeNoticeMsgEx(&pMsg, 0, lMsg.Get(3495));

  00069	68 a7 0d 00 00	 push	 3495			; 00000da7H
  0006e	b9 00 00 00 00	 mov	 ecx, OFFSET ?lMsg@@3VMessage@@A ; lMsg
  00073	89 86 7c 34 00
	00		 mov	 DWORD PTR [esi+13436], eax
  00079	e8 00 00 00 00	 call	 ?Get@Message@@QAEPADH@Z	; Message::Get
  0007e	50		 push	 eax
  0007f	8d 85 ec fe ff
	ff		 lea	 eax, DWORD PTR _pMsg$3[ebp]
  00085	6a 00		 push	 0
  00087	50		 push	 eax
  00088	e8 00 00 00 00	 call	 ?MakeNoticeMsgEx@TNotice@@SAXPAXEPADZZ ; TNotice::MakeNoticeMsgEx

; 1022 : 			TNotice::SetNoticeProperty(&pMsg, 0, _ARGB(-1, -1, 0xC8, 0x50), 1, 0, 20);

  0008d	6a 14		 push	 20			; 00000014H
  0008f	6a 00		 push	 0
  00091	6a 01		 push	 1
  00093	68 ff c8 50 ff	 push	 -11482881		; ff50c8ffH
  00098	8d 85 ec fe ff
	ff		 lea	 eax, DWORD PTR _pMsg$3[ebp]
  0009e	6a 00		 push	 0
  000a0	50		 push	 eax
  000a1	e8 00 00 00 00	 call	 ?SetNoticeProperty@TNotice@@SAXPAXEKEGE@Z ; TNotice::SetNoticeProperty

; 1023 : 			TNotice::SendNoticeToAllUser(&pMsg);

  000a6	8d 85 ec fe ff
	ff		 lea	 eax, DWORD PTR _pMsg$3[ebp]
  000ac	50		 push	 eax
  000ad	e8 00 00 00 00	 call	 ?SendNoticeToAllUser@TNotice@@SAXPAX@Z ; TNotice::SendNoticeToAllUser

; 1024 : 			LogAddTD("[ArcaBattle]+= L-+- ---L++-. L-+ ++-- --L- -TT - L-L++-.");

  000b2	68 00 00 00 00	 push	 OFFSET ??_C@_0GL@MJPIEKCI@?$FLArcaBattle?$FN?$KM?w?$KG?c?$CL?$DN?$KM?a?5?$KML?$KG?g?$KM?n?9?$KG?$CL?i?9@
  000b7	ff 15 00 00 00
	00		 call	 DWORD PTR ?LogAddTD@@3P6AXPADZZA ; LogAddTD
  000bd	83 c4 2c	 add	 esp, 44			; 0000002cH
$LN3@ProcStateP:

; 1025 : 		}
; 1026 : 		// ----
; 1027 : 		if( this->m_iAB_REMAIN_MSEC <= 60000 * this->m_iAB_PlayTimeMin && GetTickCount() - this->m_dwAB_TICK_COUNT >= 60000 )

  000c0	69 86 94 34 00
	00 60 ea 00 00	 imul	 eax, DWORD PTR [esi+13460], 60000
  000ca	39 86 30 34 00
	00		 cmp	 DWORD PTR [esi+13360], eax
  000d0	0f 8f 8b 00 00
	00		 jg	 $LN4@ProcStateP
  000d6	ff d7		 call	 edi
  000d8	2b 86 78 34 00
	00		 sub	 eax, DWORD PTR [esi+13432]
  000de	3d 60 ea 00 00	 cmp	 eax, 60000		; 0000ea60H
  000e3	72 7c		 jb	 SHORT $LN4@ProcStateP

; 1028 : 		{
; 1029 : 			this->m_dwAB_TICK_COUNT		= GetTickCount();

  000e5	ff d7		 call	 edi
  000e7	89 86 78 34 00
	00		 mov	 DWORD PTR [esi+13432], eax

; 1030 : 			this->m_iAB_NOTIFY_COUNT	= this->m_iAB_REMAIN_MSEC / 60000;
; 1031 : 			// ----
; 1032 : 			PMSG_NOTICE pMsg;
; 1033 : 			TNotice::MakeNoticeMsgEx(&pMsg, 0, lMsg.Get(3496));

  000ed	b9 00 00 00 00	 mov	 ecx, OFFSET ?lMsg@@3VMessage@@A ; lMsg
  000f2	b8 73 b2 e7 45	 mov	 eax, 1172812403		; 45e7b273H
  000f7	f7 ae 30 34 00
	00		 imul	 DWORD PTR [esi+13360]
  000fd	68 a8 0d 00 00	 push	 3496			; 00000da8H
  00102	c1 fa 0e	 sar	 edx, 14			; 0000000eH
  00105	8b c2		 mov	 eax, edx
  00107	c1 e8 1f	 shr	 eax, 31			; 0000001fH
  0010a	03 c2		 add	 eax, edx
  0010c	89 86 38 34 00
	00		 mov	 DWORD PTR [esi+13368], eax
  00112	e8 00 00 00 00	 call	 ?Get@Message@@QAEPADH@Z	; Message::Get
  00117	50		 push	 eax
  00118	8d 85 ec fe ff
	ff		 lea	 eax, DWORD PTR _pMsg$2[ebp]
  0011e	6a 00		 push	 0
  00120	50		 push	 eax
  00121	e8 00 00 00 00	 call	 ?MakeNoticeMsgEx@TNotice@@SAXPAXEPADZZ ; TNotice::MakeNoticeMsgEx

; 1034 : 			TNotice::SetNoticeProperty(&pMsg, 0, _ARGB(-1, -1, 0xC8, 0x50), 1, 0, 20);

  00126	6a 14		 push	 20			; 00000014H
  00128	6a 00		 push	 0
  0012a	6a 01		 push	 1
  0012c	68 ff c8 50 ff	 push	 -11482881		; ff50c8ffH
  00131	8d 85 ec fe ff
	ff		 lea	 eax, DWORD PTR _pMsg$2[ebp]
  00137	6a 00		 push	 0
  00139	50		 push	 eax
  0013a	e8 00 00 00 00	 call	 ?SetNoticeProperty@TNotice@@SAXPAXEKEGE@Z ; TNotice::SetNoticeProperty

; 1035 : 			TNotice::SendNoticeToAllUser(&pMsg);

  0013f	8d 85 ec fe ff
	ff		 lea	 eax, DWORD PTR _pMsg$2[ebp]
  00145	50		 push	 eax
  00146	e8 00 00 00 00	 call	 ?SendNoticeToAllUser@TNotice@@SAXPAX@Z ; TNotice::SendNoticeToAllUser

; 1036 : 			LogAddTD("[ArcaBattle] --L +--+ %d --T-L++-.", this->m_iAB_NOTIFY_COUNT + 1);

  0014b	8b 86 38 34 00
	00		 mov	 eax, DWORD PTR [esi+13368]
  00151	40		 inc	 eax
  00152	50		 push	 eax
  00153	68 00 00 00 00	 push	 OFFSET ??_C@_0DA@NNBEFGFD@?$FLArcaBattle?$FN?5?9?$KG?$KM?c?9?kL?$PP?5?$CL?9?$KM?q?9?$PO?$CL?$KB?5?$CF@
  00158	ff 15 00 00 00
	00		 call	 DWORD PTR ?LogAddTD@@3P6AXPADZZA ; LogAddTD
  0015e	83 c4 30	 add	 esp, 48			; 00000030H
$LN4@ProcStateP:

; 1037 : 		}
; 1038 : 		// ----
; 1039 : 		if( this->m_iAB_REMAIN_MSEC <= 60000 && this->m_iAB_REMAIN_MSEC >= 0 )

  00161	8b 86 30 34 00
	00		 mov	 eax, DWORD PTR [esi+13360]
  00167	3d 60 ea 00 00	 cmp	 eax, 60000		; 0000ea60H
  0016c	0f 8f 80 00 00
	00		 jg	 $LN5@ProcStateP
  00172	85 c0		 test	 eax, eax
  00174	78 7c		 js	 SHORT $LN5@ProcStateP

; 1040 : 		{
; 1041 : 			this->m_dwAB_TICK_COUNT		= GetTickCount();

  00176	ff d7		 call	 edi
  00178	89 86 78 34 00
	00		 mov	 DWORD PTR [esi+13432], eax

; 1042 : 			this->m_iAB_NOTIFY_COUNT	= this->m_iAB_REMAIN_MSEC / 1000;
; 1043 : 			// ----
; 1044 : 			PMSG_NOTICE pMsg;
; 1045 : 			TNotice::MakeNoticeMsgEx(&pMsg, 0, lMsg.Get(3497));

  0017e	b9 00 00 00 00	 mov	 ecx, OFFSET ?lMsg@@3VMessage@@A ; lMsg
  00183	b8 d3 4d 62 10	 mov	 eax, 274877907		; 10624dd3H
  00188	f7 ae 30 34 00
	00		 imul	 DWORD PTR [esi+13360]
  0018e	68 a9 0d 00 00	 push	 3497			; 00000da9H
  00193	c1 fa 06	 sar	 edx, 6
  00196	8b c2		 mov	 eax, edx
  00198	c1 e8 1f	 shr	 eax, 31			; 0000001fH
  0019b	03 c2		 add	 eax, edx
  0019d	89 86 38 34 00
	00		 mov	 DWORD PTR [esi+13368], eax
  001a3	e8 00 00 00 00	 call	 ?Get@Message@@QAEPADH@Z	; Message::Get
  001a8	50		 push	 eax
  001a9	8d 85 ec fe ff
	ff		 lea	 eax, DWORD PTR _pMsg$1[ebp]
  001af	6a 00		 push	 0
  001b1	50		 push	 eax
  001b2	e8 00 00 00 00	 call	 ?MakeNoticeMsgEx@TNotice@@SAXPAXEPADZZ ; TNotice::MakeNoticeMsgEx

; 1046 : 			TNotice::SetNoticeProperty(&pMsg, 0, _ARGB(-1, -1, 0xC8, 0x50), 1, 0, 20);

  001b7	6a 14		 push	 20			; 00000014H
  001b9	6a 00		 push	 0
  001bb	6a 01		 push	 1
  001bd	68 ff c8 50 ff	 push	 -11482881		; ff50c8ffH
  001c2	8d 85 ec fe ff
	ff		 lea	 eax, DWORD PTR _pMsg$1[ebp]
  001c8	6a 00		 push	 0
  001ca	50		 push	 eax
  001cb	e8 00 00 00 00	 call	 ?SetNoticeProperty@TNotice@@SAXPAXEKEGE@Z ; TNotice::SetNoticeProperty

; 1047 : 			TNotice::SendNoticeToAllUser(&pMsg);

  001d0	8d 85 ec fe ff
	ff		 lea	 eax, DWORD PTR _pMsg$1[ebp]
  001d6	50		 push	 eax
  001d7	e8 00 00 00 00	 call	 ?SendNoticeToAllUser@TNotice@@SAXPAX@Z ; TNotice::SendNoticeToAllUser

; 1048 : 			LogAddTD("[ArcaBattle] --L +--+ %d+ --T-L++-.", this->m_iAB_NOTIFY_COUNT + 1);

  001dc	8b 86 38 34 00
	00		 mov	 eax, DWORD PTR [esi+13368]
  001e2	40		 inc	 eax
  001e3	50		 push	 eax
  001e4	68 00 00 00 00	 push	 OFFSET ??_C@_0DA@GPJNNEOE@?$FLArcaBattle?$FN?5?9?$KG?$KM?c?9?kL?$PP?5?$CL?9?$KM?q?9?$PO?$CL?$KB?5?$CF@
  001e9	ff 15 00 00 00
	00		 call	 DWORD PTR ?LogAddTD@@3P6AXPADZZA ; LogAddTD
  001ef	83 c4 30	 add	 esp, 48			; 00000030H
$LN5@ProcStateP:

; 1049 : 		}
; 1050 : 		// ----
; 1051 : 		this->ChkAuraUserHover();

  001f2	8b ce		 mov	 ecx, esi
  001f4	e8 00 00 00 00	 call	 ?ChkAuraUserHover@CArcaBattle@@QAEXXZ ; CArcaBattle::ChkAuraUserHover

; 1052 : 		this->RegenMonsterRun();

  001f9	8b ce		 mov	 ecx, esi
  001fb	e8 00 00 00 00	 call	 ?RegenMonsterRun@CArcaBattle@@QAEXXZ ; CArcaBattle::RegenMonsterRun

; 1053 : 		this->SendObeliskLife();

  00200	8b ce		 mov	 ecx, esi
  00202	e8 00 00 00 00	 call	 ?SendObeliskLife@CArcaBattle@@QAEXXZ ; CArcaBattle::SendObeliskLife

; 1054 : 		this->SendObeliskState();

  00207	8b ce		 mov	 ecx, esi
  00209	e8 00 00 00 00	 call	 ?SendObeliskState@CArcaBattle@@QAEXXZ ; CArcaBattle::SendObeliskState

; 1055 : 		this->RegenObelisk();

  0020e	8b ce		 mov	 ecx, esi
  00210	e8 00 00 00 00	 call	 ?RegenObelisk@CArcaBattle@@QAEHXZ ; CArcaBattle::RegenObelisk

; 1056 : 		// ----
; 1057 : 		if( this->m_iAB_REMAIN_MSEC <= 0 )

  00215	83 be 30 34 00
	00 00		 cmp	 DWORD PTR [esi+13360], 0
  0021c	7f 40		 jg	 SHORT $LN6@ProcStateP

; 1058 : 		{
; 1059 : 			this->m_dwAB_TICK_COUNT		= 0;
; 1060 : 			this->m_iAB_REMAIN_MSEC		= AB_TIME_REMAIN;
; 1061 : 			this->m_iAB_NOTIFY_COUNT	= this->m_iAB_REMAIN_MSEC / 60000;
; 1062 : 			// ----
; 1063 : 			this->SetState(AB_STATE_RESULT);

  0021e	6a 08		 push	 8
  00220	8b ce		 mov	 ecx, esi
  00222	c7 86 78 34 00
	00 00 00 00 00	 mov	 DWORD PTR [esi+13432], 0
  0022c	c7 86 30 34 00
	00 30 75 00 00	 mov	 DWORD PTR [esi+13360], 30000 ; 00007530H
  00236	c7 86 38 34 00
	00 00 00 00 00	 mov	 DWORD PTR [esi+13368], 0
  00240	e8 00 00 00 00	 call	 ?SetState@CArcaBattle@@QAEXH@Z ; CArcaBattle::SetState

; 1064 : 			this->GDReqArcaBattleProcMultiCast(AB_STATE_RESULT);

  00245	6a 08		 push	 8
  00247	8b ce		 mov	 ecx, esi
  00249	e8 00 00 00 00	 call	 ?GDReqArcaBattleProcMultiCast@CArcaBattle@@QAEXH@Z ; CArcaBattle::GDReqArcaBattleProcMultiCast

; 1065 : 			this->NotifyArcaBattle(4);	//#DEFINE

  0024e	6a 04		 push	 4
  00250	8b ce		 mov	 ecx, esi
  00252	e8 00 00 00 00	 call	 ?NotifyArcaBattle@CArcaBattle@@QAEXH@Z ; CArcaBattle::NotifyArcaBattle

; 1066 : 			this->DeleteArcaBattleAllMonster();

  00257	8b ce		 mov	 ecx, esi
  00259	e8 00 00 00 00	 call	 ?DeleteArcaBattleAllMonster@CArcaBattle@@QAEXXZ ; CArcaBattle::DeleteArcaBattleAllMonster
$LN6@ProcStateP:

; 1067 : 		}
; 1068 : 	}
; 1069 : }

  0025e	8b 4d fc	 mov	 ecx, DWORD PTR __$ArrayPad$[ebp]
  00261	5f		 pop	 edi
  00262	33 cd		 xor	 ecx, ebp
  00264	5e		 pop	 esi
  00265	e8 00 00 00 00	 call	 @__security_check_cookie@4
  0026a	8b e5		 mov	 esp, ebp
  0026c	5d		 pop	 ebp
  0026d	c3		 ret	 0
?ProcStatePlaying@CArcaBattle@@QAEXXZ ENDP		; CArcaBattle::ProcStatePlaying
_TEXT	ENDS
; Function compile flags: /Ogtp
; File c:\users\michel\desktop\source\gameserver\source\arcabattle.cpp
;	COMDAT ?ProcStatePaty@CArcaBattle@@QAEXXZ
_TEXT	SEGMENT
_pMsg$1 = -532						; size = 272
_pMsg$2 = -532						; size = 272
_szTemp$3 = -260					; size = 256
__$ArrayPad$ = -4					; size = 4
?ProcStatePaty@CArcaBattle@@QAEXXZ PROC			; CArcaBattle::ProcStatePaty, COMDAT
; _this$ = ecx

; 954  : {

  00000	55		 push	 ebp
  00001	8b ec		 mov	 ebp, esp
  00003	81 ec 14 02 00
	00		 sub	 esp, 532		; 00000214H
  00009	a1 00 00 00 00	 mov	 eax, DWORD PTR ___security_cookie
  0000e	33 c5		 xor	 eax, ebp
  00010	89 45 fc	 mov	 DWORD PTR __$ArrayPad$[ebp], eax
  00013	56		 push	 esi
  00014	57		 push	 edi

; 955  : 	int iTICK_MSEC = GetTickCount() - this->m_iAB_TICK_COUNT;

  00015	8b 3d 00 00 00
	00		 mov	 edi, DWORD PTR __imp__GetTickCount@0
  0001b	8b f1		 mov	 esi, ecx
  0001d	ff d7		 call	 edi
  0001f	2b 86 34 34 00
	00		 sub	 eax, DWORD PTR [esi+13364]

; 956  : 	// ----
; 957  : 	if( iTICK_MSEC >= 1000 )

  00025	3d e8 03 00 00	 cmp	 eax, 1000		; 000003e8H
  0002a	0f 8c 5b 01 00
	00		 jl	 $LN4@ProcStateP

; 958  : 	{
; 959  : 		this->m_iAB_REMAIN_MSEC -= iTICK_MSEC;

  00030	29 86 30 34 00
	00		 sub	 DWORD PTR [esi+13360], eax

; 960  : 		this->m_iAB_TICK_COUNT	= GetTickCount();

  00036	ff d7		 call	 edi
  00038	89 86 34 34 00
	00		 mov	 DWORD PTR [esi+13364], eax

; 961  : 		// ----
; 962  : 		if( this->m_iAB_REMAIN_MSEC <= 60000 * this->m_iAB_WaitPartyTimeMin && GetTickCount() - this->m_dwAB_TICK_COUNT > 60000 )

  0003e	69 86 8c 34 00
	00 60 ea 00 00	 imul	 eax, DWORD PTR [esi+13452], 60000
  00048	39 86 30 34 00
	00		 cmp	 DWORD PTR [esi+13360], eax
  0004e	0f 8f bd 00 00
	00		 jg	 $LN3@ProcStateP
  00054	ff d7		 call	 edi
  00056	2b 86 78 34 00
	00		 sub	 eax, DWORD PTR [esi+13432]
  0005c	3d 60 ea 00 00	 cmp	 eax, 60000		; 0000ea60H
  00061	0f 86 aa 00 00
	00		 jbe	 $LN3@ProcStateP

; 963  : 		{
; 964  : 			this->m_dwAB_TICK_COUNT		= GetTickCount();

  00067	ff d7		 call	 edi
  00069	89 86 78 34 00
	00		 mov	 DWORD PTR [esi+13432], eax

; 965  : 			this->m_iAB_NOTIFY_COUNT	= this->m_iAB_REMAIN_MSEC / 60000;

  0006f	b8 73 b2 e7 45	 mov	 eax, 1172812403		; 45e7b273H
  00074	f7 ae 30 34 00
	00		 imul	 DWORD PTR [esi+13360]

; 966  : 			// ----
; 967  : 			char szTemp[256];
; 968  : 			memset(szTemp, 0, sizeof(szTemp));

  0007a	68 00 01 00 00	 push	 256			; 00000100H
  0007f	c1 fa 0e	 sar	 edx, 14			; 0000000eH
  00082	8b c2		 mov	 eax, edx
  00084	c1 e8 1f	 shr	 eax, 31			; 0000001fH
  00087	03 c2		 add	 eax, edx
  00089	89 86 38 34 00
	00		 mov	 DWORD PTR [esi+13368], eax
  0008f	8d 85 fc fe ff
	ff		 lea	 eax, DWORD PTR _szTemp$3[ebp]
  00095	6a 00		 push	 0
  00097	50		 push	 eax
  00098	e8 00 00 00 00	 call	 _memset
  0009d	83 c4 0c	 add	 esp, 12			; 0000000cH

; 969  : 			wsprintf(szTemp, lMsg.Get(3494));

  000a0	b9 00 00 00 00	 mov	 ecx, OFFSET ?lMsg@@3VMessage@@A ; lMsg
  000a5	68 a6 0d 00 00	 push	 3494			; 00000da6H
  000aa	e8 00 00 00 00	 call	 ?Get@Message@@QAEPADH@Z	; Message::Get
  000af	50		 push	 eax
  000b0	8d 85 fc fe ff
	ff		 lea	 eax, DWORD PTR _szTemp$3[ebp]
  000b6	50		 push	 eax
  000b7	ff 15 00 00 00
	00		 call	 DWORD PTR __imp__wsprintfA

; 970  : 			this->SendMapServerGroupMsg(szTemp);
; 971  : 			LogAddTD("[ArcaBattle] --LL L-L++-. -- NPC ++ LLLL -+-++-.");

  000bd	68 00 00 00 00	 push	 OFFSET ??_C@_0EL@PJDCDIBI@?$FLArcaBattle?$FN?5?9?$KG?$KM?c?9?kL?$PPL?$KG?5?$KM?m?$KML?9L?$CL?$KG@
  000c2	ff 15 00 00 00
	00		 call	 DWORD PTR ?LogAddTD@@3P6AXPADZZA ; LogAddTD
  000c8	83 c4 0c	 add	 esp, 12			; 0000000cH

; 972  : 			// ----
; 973  : 			PMSG_NOTICE pMsg;	//Need check conversion
; 974  : 			TNotice::MakeNoticeMsgEx(&pMsg, 0, lMsg.Get(3505));

  000cb	b9 00 00 00 00	 mov	 ecx, OFFSET ?lMsg@@3VMessage@@A ; lMsg
  000d0	68 b1 0d 00 00	 push	 3505			; 00000db1H
  000d5	e8 00 00 00 00	 call	 ?Get@Message@@QAEPADH@Z	; Message::Get
  000da	50		 push	 eax
  000db	8d 85 ec fd ff
	ff		 lea	 eax, DWORD PTR _pMsg$2[ebp]
  000e1	6a 00		 push	 0
  000e3	50		 push	 eax
  000e4	e8 00 00 00 00	 call	 ?MakeNoticeMsgEx@TNotice@@SAXPAXEPADZZ ; TNotice::MakeNoticeMsgEx

; 975  : 			TNotice::SetNoticeProperty(&pMsg, 0, _ARGB(-1, -1, 0xC8, 0x50), 1, 0, 20);

  000e9	6a 14		 push	 20			; 00000014H
  000eb	6a 00		 push	 0
  000ed	6a 01		 push	 1
  000ef	68 ff c8 50 ff	 push	 -11482881		; ff50c8ffH
  000f4	8d 85 ec fd ff
	ff		 lea	 eax, DWORD PTR _pMsg$2[ebp]
  000fa	6a 00		 push	 0
  000fc	50		 push	 eax
  000fd	e8 00 00 00 00	 call	 ?SetNoticeProperty@TNotice@@SAXPAXEKEGE@Z ; TNotice::SetNoticeProperty

; 976  : 			TNotice::SendNoticeToAllUser(&pMsg);

  00102	8d 85 ec fd ff
	ff		 lea	 eax, DWORD PTR _pMsg$2[ebp]
  00108	50		 push	 eax
  00109	e8 00 00 00 00	 call	 ?SendNoticeToAllUser@TNotice@@SAXPAX@Z ; TNotice::SendNoticeToAllUser
  0010e	83 c4 28	 add	 esp, 40			; 00000028H
$LN3@ProcStateP:

; 977  : 		}
; 978  : 		// ----
; 979  : 		if( this->m_iAB_REMAIN_MSEC <= 30000 && this->m_iAB_REMAIN_MSEC >= 0 )

  00111	8b 86 30 34 00
	00		 mov	 eax, DWORD PTR [esi+13360]
  00117	3d 30 75 00 00	 cmp	 eax, 30000		; 00007530H
  0011c	7f 6d		 jg	 SHORT $LN4@ProcStateP
  0011e	85 c0		 test	 eax, eax
  00120	78 69		 js	 SHORT $LN4@ProcStateP

; 980  : 		{
; 981  : 			this->m_dwAB_TICK_COUNT		= GetTickCount();

  00122	ff d7		 call	 edi
  00124	89 86 78 34 00
	00		 mov	 DWORD PTR [esi+13432], eax

; 982  : 			this->m_iAB_NOTIFY_COUNT	= this->m_iAB_REMAIN_MSEC / 1000;
; 983  : 			// ----
; 984  : 			PMSG_NOTICE pMsg;	//Need check conversion
; 985  : 			TNotice::MakeNoticeMsgEx(&pMsg, 0, lMsg.Get(3506));

  0012a	b9 00 00 00 00	 mov	 ecx, OFFSET ?lMsg@@3VMessage@@A ; lMsg
  0012f	b8 d3 4d 62 10	 mov	 eax, 274877907		; 10624dd3H
  00134	f7 ae 30 34 00
	00		 imul	 DWORD PTR [esi+13360]
  0013a	68 b2 0d 00 00	 push	 3506			; 00000db2H
  0013f	c1 fa 06	 sar	 edx, 6
  00142	8b c2		 mov	 eax, edx
  00144	c1 e8 1f	 shr	 eax, 31			; 0000001fH
  00147	03 c2		 add	 eax, edx
  00149	89 86 38 34 00
	00		 mov	 DWORD PTR [esi+13368], eax
  0014f	e8 00 00 00 00	 call	 ?Get@Message@@QAEPADH@Z	; Message::Get
  00154	50		 push	 eax
  00155	8d 85 ec fd ff
	ff		 lea	 eax, DWORD PTR _pMsg$1[ebp]
  0015b	6a 00		 push	 0
  0015d	50		 push	 eax
  0015e	e8 00 00 00 00	 call	 ?MakeNoticeMsgEx@TNotice@@SAXPAXEPADZZ ; TNotice::MakeNoticeMsgEx

; 986  : 			TNotice::SetNoticeProperty(&pMsg, 0, _ARGB(-1, -1, 0xC8, 0x50), 1, 0, 20);

  00163	6a 14		 push	 20			; 00000014H
  00165	6a 00		 push	 0
  00167	6a 01		 push	 1
  00169	68 ff c8 50 ff	 push	 -11482881		; ff50c8ffH
  0016e	8d 85 ec fd ff
	ff		 lea	 eax, DWORD PTR _pMsg$1[ebp]
  00174	6a 00		 push	 0
  00176	50		 push	 eax
  00177	e8 00 00 00 00	 call	 ?SetNoticeProperty@TNotice@@SAXPAXEKEGE@Z ; TNotice::SetNoticeProperty

; 987  : 			TNotice::SendNoticeToAllUser(&pMsg);

  0017c	8d 85 ec fd ff
	ff		 lea	 eax, DWORD PTR _pMsg$1[ebp]
  00182	50		 push	 eax
  00183	e8 00 00 00 00	 call	 ?SendNoticeToAllUser@TNotice@@SAXPAX@Z ; TNotice::SendNoticeToAllUser
  00188	83 c4 28	 add	 esp, 40			; 00000028H
$LN4@ProcStateP:

; 988  : 		}
; 989  : 	}
; 990  : 	// ----
; 991  : 	if( this->m_iAB_REMAIN_MSEC <= 0 )

  0018b	83 be 30 34 00
	00 00		 cmp	 DWORD PTR [esi+13360], 0
  00192	7f 62		 jg	 SHORT $LN5@ProcStateP

; 992  : 	{
; 993  : 		this->m_dwAB_TICK_COUNT			= 0;
; 994  : 		this->m_iAB_PlayNotifyTimeMin	= AB_TIME_PLAY_NOT;
; 995  : 		this->m_iAB_REMAIN_MSEC			= 60000 * this->m_iAB_PlayTimeMin;

  00194	69 8e 94 34 00
	00 60 ea 00 00	 imul	 ecx, DWORD PTR [esi+13460], 60000

; 996  : 		this->m_iAB_NOTIFY_COUNT		= this->m_iAB_REMAIN_MSEC / 60000;

  0019e	b8 73 b2 e7 45	 mov	 eax, 1172812403		; 45e7b273H

; 997  : 		this->SetState(AB_STATE_PLAY);

  001a3	6a 07		 push	 7
  001a5	c7 86 78 34 00
	00 00 00 00 00	 mov	 DWORD PTR [esi+13432], 0
  001af	c7 86 90 34 00
	00 03 00 00 00	 mov	 DWORD PTR [esi+13456], 3
  001b9	f7 e9		 imul	 ecx
  001bb	89 8e 30 34 00
	00		 mov	 DWORD PTR [esi+13360], ecx
  001c1	8b ce		 mov	 ecx, esi
  001c3	c1 fa 0e	 sar	 edx, 14			; 0000000eH
  001c6	8b c2		 mov	 eax, edx
  001c8	c1 e8 1f	 shr	 eax, 31			; 0000001fH
  001cb	03 c2		 add	 eax, edx
  001cd	89 86 38 34 00
	00		 mov	 DWORD PTR [esi+13368], eax
  001d3	e8 00 00 00 00	 call	 ?SetState@CArcaBattle@@QAEXH@Z ; CArcaBattle::SetState

; 998  : 		this->GDReqArcaBattleProcMultiCast(AB_STATE_PLAY);

  001d8	6a 07		 push	 7
  001da	8b ce		 mov	 ecx, esi
  001dc	e8 00 00 00 00	 call	 ?GDReqArcaBattleProcMultiCast@CArcaBattle@@QAEXH@Z ; CArcaBattle::GDReqArcaBattleProcMultiCast

; 999  : 		this->SetObelisk();

  001e1	8b ce		 mov	 ecx, esi
  001e3	e8 00 00 00 00	 call	 ?SetObelisk@CArcaBattle@@QAEHXZ ; CArcaBattle::SetObelisk

; 1000 : 		LogAddTD("[ArcaBattle] --L -- +- ");

  001e8	68 00 00 00 00	 push	 OFFSET ??_C@_0CF@KOBNNKAP@?$FLArcaBattle?$FN?5?9?$KG?$KM?c?9?kL?$PP?5?$KG?9?$KG?9?5?$CL?$PL?9?r?5@
  001ed	ff 15 00 00 00
	00		 call	 DWORD PTR ?LogAddTD@@3P6AXPADZZA ; LogAddTD
  001f3	83 c4 04	 add	 esp, 4
$LN5@ProcStateP:

; 1001 : 	}
; 1002 : }

  001f6	8b 4d fc	 mov	 ecx, DWORD PTR __$ArrayPad$[ebp]
  001f9	5f		 pop	 edi
  001fa	33 cd		 xor	 ecx, ebp
  001fc	5e		 pop	 esi
  001fd	e8 00 00 00 00	 call	 @__security_check_cookie@4
  00202	8b e5		 mov	 esp, ebp
  00204	5d		 pop	 ebp
  00205	c3		 ret	 0
?ProcStatePaty@CArcaBattle@@QAEXXZ ENDP			; CArcaBattle::ProcStatePaty
_TEXT	ENDS
; Function compile flags: /Ogtp
; File c:\users\michel\desktop\source\gameserver\source\arcabattle.cpp
;	COMDAT ?ProcStateReady@CArcaBattle@@QAEXXZ
_TEXT	SEGMENT
_szTemp$1 = -260					; size = 256
__$ArrayPad$ = -4					; size = 4
?ProcStateReady@CArcaBattle@@QAEXXZ PROC		; CArcaBattle::ProcStateReady, COMDAT
; _this$ = ecx

; 921  : {

  00000	55		 push	 ebp
  00001	8b ec		 mov	 ebp, esp
  00003	81 ec 04 01 00
	00		 sub	 esp, 260		; 00000104H
  00009	a1 00 00 00 00	 mov	 eax, DWORD PTR ___security_cookie
  0000e	33 c5		 xor	 eax, ebp
  00010	89 45 fc	 mov	 DWORD PTR __$ArrayPad$[ebp], eax
  00013	56		 push	 esi
  00014	57		 push	 edi
  00015	8b f1		 mov	 esi, ecx

; 922  : 	int iTICK_MSEC = GetTickCount() - this->m_iAB_TICK_COUNT;

  00017	ff 15 00 00 00
	00		 call	 DWORD PTR __imp__GetTickCount@0
  0001d	8b f8		 mov	 edi, eax
  0001f	2b be 34 34 00
	00		 sub	 edi, DWORD PTR [esi+13364]

; 923  : 	// ----
; 924  : 	if( iTICK_MSEC >= 1000 )

  00025	81 ff e8 03 00
	00		 cmp	 edi, 1000		; 000003e8H
  0002b	7c 7b		 jl	 SHORT $LN2@ProcStateR

; 925  : 	{
; 926  : 		this->m_iAB_NOTIFY_COUNT = this->m_iAB_REMAIN_MSEC / 1000;

  0002d	b8 d3 4d 62 10	 mov	 eax, 274877907		; 10624dd3H
  00032	f7 ae 30 34 00
	00		 imul	 DWORD PTR [esi+13360]
  00038	53		 push	 ebx
  00039	c1 fa 06	 sar	 edx, 6
  0003c	8b da		 mov	 ebx, edx
  0003e	c1 eb 1f	 shr	 ebx, 31			; 0000001fH
  00041	03 da		 add	 ebx, edx
  00043	89 9e 38 34 00
	00		 mov	 DWORD PTR [esi+13368], ebx

; 927  : 		// ----
; 928  : 		if( this->m_iAB_NOTIFY_COUNT > 0 )

  00049	85 db		 test	 ebx, ebx
  0004b	7e 48		 jle	 SHORT $LN3@ProcStateR

; 929  : 		{
; 930  : 			char szTemp[256];
; 931  : 			memset(szTemp, 0, sizeof(szTemp));

  0004d	68 00 01 00 00	 push	 256			; 00000100H
  00052	8d 85 fc fe ff
	ff		 lea	 eax, DWORD PTR _szTemp$1[ebp]
  00058	6a 00		 push	 0
  0005a	50		 push	 eax
  0005b	e8 00 00 00 00	 call	 _memset
  00060	83 c4 0c	 add	 esp, 12			; 0000000cH

; 932  : 			wsprintf(szTemp, lMsg.Get(3493), this->m_iAB_NOTIFY_COUNT);

  00063	b9 00 00 00 00	 mov	 ecx, OFFSET ?lMsg@@3VMessage@@A ; lMsg
  00068	53		 push	 ebx
  00069	68 a5 0d 00 00	 push	 3493			; 00000da5H
  0006e	e8 00 00 00 00	 call	 ?Get@Message@@QAEPADH@Z	; Message::Get
  00073	50		 push	 eax
  00074	8d 85 fc fe ff
	ff		 lea	 eax, DWORD PTR _szTemp$1[ebp]
  0007a	50		 push	 eax
  0007b	ff 15 00 00 00
	00		 call	 DWORD PTR __imp__wsprintfA

; 933  : 			this->SendMapServerGroupMsg(szTemp);
; 934  : 			LogAddTD("[ArcaBattle] --L -+L--+ %d+ --T-L++-. -LLT +- +-+ +--+.", this->m_iAB_NOTIFY_COUNT);

  00081	ff b6 38 34 00
	00		 push	 DWORD PTR [esi+13368]
  00087	68 00 00 00 00	 push	 OFFSET ??_C@_0FB@HOMPCHDA@?$FLArcaBattle?$FN?5?9?$KG?$KM?c?9?kL?$PP?5?9?$CLL?9?9?$PO?$CL?$KB?5?$CF@
  0008c	ff 15 00 00 00
	00		 call	 DWORD PTR ?LogAddTD@@3P6AXPADZZA ; LogAddTD
  00092	83 c4 14	 add	 esp, 20			; 00000014H
$LN3@ProcStateR:

; 935  : 		}
; 936  : 		// ----
; 937  : 		this->m_iAB_REMAIN_MSEC -= iTICK_MSEC;

  00095	29 be 30 34 00
	00		 sub	 DWORD PTR [esi+13360], edi

; 938  : 		this->m_iAB_TICK_COUNT	= GetTickCount();

  0009b	ff 15 00 00 00
	00		 call	 DWORD PTR __imp__GetTickCount@0
  000a1	89 86 34 34 00
	00		 mov	 DWORD PTR [esi+13364], eax
  000a7	5b		 pop	 ebx
$LN2@ProcStateR:

; 939  : 	}
; 940  : 	// ----
; 941  : 	if( this->m_iAB_REMAIN_MSEC <= 0 )

  000a8	83 be 30 34 00
	00 00		 cmp	 DWORD PTR [esi+13360], 0
  000af	7f 43		 jg	 SHORT $LN4@ProcStateR

; 942  : 	{
; 943  : 		this->m_dwAB_TICK_COUNT		= 0;
; 944  : 		this->m_iAB_REMAIN_MSEC		= 60000 * this->m_iAB_WaitPartyTimeMin;

  000b1	69 8e 8c 34 00
	00 60 ea 00 00	 imul	 ecx, DWORD PTR [esi+13452], 60000

; 945  : 		this->m_iAB_NOTIFY_COUNT	= this->m_iAB_REMAIN_MSEC / 60000;

  000bb	b8 73 b2 e7 45	 mov	 eax, 1172812403		; 45e7b273H

; 946  : 		this->SetState(AB_STATE_PATY);

  000c0	6a 06		 push	 6
  000c2	c7 86 78 34 00
	00 00 00 00 00	 mov	 DWORD PTR [esi+13432], 0
  000cc	f7 e9		 imul	 ecx
  000ce	89 8e 30 34 00
	00		 mov	 DWORD PTR [esi+13360], ecx
  000d4	8b ce		 mov	 ecx, esi
  000d6	c1 fa 0e	 sar	 edx, 14			; 0000000eH
  000d9	8b c2		 mov	 eax, edx
  000db	c1 e8 1f	 shr	 eax, 31			; 0000001fH
  000de	03 c2		 add	 eax, edx
  000e0	89 86 38 34 00
	00		 mov	 DWORD PTR [esi+13368], eax
  000e6	e8 00 00 00 00	 call	 ?SetState@CArcaBattle@@QAEXH@Z ; CArcaBattle::SetState

; 947  : 		this->GDReqArcaBattleProcMultiCast(AB_STATE_PATY);

  000eb	6a 06		 push	 6
  000ed	8b ce		 mov	 ecx, esi
  000ef	e8 00 00 00 00	 call	 ?GDReqArcaBattleProcMultiCast@CArcaBattle@@QAEXH@Z ; CArcaBattle::GDReqArcaBattleProcMultiCast
$LN4@ProcStateR:

; 948  : 	}
; 949  : }

  000f4	8b 4d fc	 mov	 ecx, DWORD PTR __$ArrayPad$[ebp]
  000f7	5f		 pop	 edi
  000f8	33 cd		 xor	 ecx, ebp
  000fa	5e		 pop	 esi
  000fb	e8 00 00 00 00	 call	 @__security_check_cookie@4
  00100	8b e5		 mov	 esp, ebp
  00102	5d		 pop	 ebp
  00103	c3		 ret	 0
?ProcStateReady@CArcaBattle@@QAEXXZ ENDP		; CArcaBattle::ProcStateReady
_TEXT	ENDS
; Function compile flags: /Ogtp
; File c:\users\michel\desktop\source\gameserver\source\arcabattle.cpp
;	COMDAT ?ProcStateReg@CArcaBattle@@QAEXXZ
_TEXT	SEGMENT
_szTemp$1 = -260					; size = 256
__$ArrayPad$ = -4					; size = 4
?ProcStateReg@CArcaBattle@@QAEXXZ PROC			; CArcaBattle::ProcStateReg, COMDAT
; _this$ = ecx

; 878  : {

  00000	55		 push	 ebp
  00001	8b ec		 mov	 ebp, esp
  00003	81 ec 04 01 00
	00		 sub	 esp, 260		; 00000104H
  00009	a1 00 00 00 00	 mov	 eax, DWORD PTR ___security_cookie
  0000e	33 c5		 xor	 eax, ebp
  00010	89 45 fc	 mov	 DWORD PTR __$ArrayPad$[ebp], eax
  00013	56		 push	 esi

; 879  : 	int iTICK_MSEC = GetTickCount() - this->m_iAB_TICK_COUNT;

  00014	8b 35 00 00 00
	00		 mov	 esi, DWORD PTR __imp__GetTickCount@0
  0001a	57		 push	 edi
  0001b	8b f9		 mov	 edi, ecx
  0001d	ff d6		 call	 esi
  0001f	2b 87 34 34 00
	00		 sub	 eax, DWORD PTR [edi+13364]

; 880  : 	// ----
; 881  : 	if( iTICK_MSEC >= 1000 )

  00025	3d e8 03 00 00	 cmp	 eax, 1000		; 000003e8H
  0002a	0f 8c a8 00 00
	00		 jl	 $LN4@ProcStateR

; 882  : 	{
; 883  : 		this->m_iAB_REMAIN_MSEC	-= iTICK_MSEC;

  00030	29 87 30 34 00
	00		 sub	 DWORD PTR [edi+13360], eax

; 884  : 		this->m_iAB_TICK_COUNT	= GetTickCount();

  00036	ff d6		 call	 esi
  00038	89 87 34 34 00
	00		 mov	 DWORD PTR [edi+13364], eax

; 885  : 		// ----
; 886  : 		if( GetTickCount() - this->m_dwAB_TICK_COUNT > 60000 )

  0003e	ff d6		 call	 esi
  00040	2b 87 78 34 00
	00		 sub	 eax, DWORD PTR [edi+13432]
  00046	3d 60 ea 00 00	 cmp	 eax, 60000		; 0000ea60H
  0004b	0f 86 87 00 00
	00		 jbe	 $LN4@ProcStateR

; 887  : 		{
; 888  : 			this->m_dwAB_TICK_COUNT		= GetTickCount();

  00051	ff d6		 call	 esi
  00053	89 87 78 34 00
	00		 mov	 DWORD PTR [edi+13432], eax

; 889  : 			this->m_iAB_NOTIFY_COUNT	= this->m_iAB_REMAIN_MSEC / 60000;

  00059	b8 73 b2 e7 45	 mov	 eax, 1172812403		; 45e7b273H
  0005e	f7 af 30 34 00
	00		 imul	 DWORD PTR [edi+13360]

; 890  : 			// ----
; 891  : 			char szTemp[256];
; 892  : 			memset(szTemp, 0, sizeof(szTemp));

  00064	68 00 01 00 00	 push	 256			; 00000100H
  00069	c1 fa 0e	 sar	 edx, 14			; 0000000eH
  0006c	8d 85 fc fe ff
	ff		 lea	 eax, DWORD PTR _szTemp$1[ebp]
  00072	8b f2		 mov	 esi, edx
  00074	c1 ee 1f	 shr	 esi, 31			; 0000001fH
  00077	03 f2		 add	 esi, edx
  00079	6a 00		 push	 0
  0007b	50		 push	 eax
  0007c	89 b7 38 34 00
	00		 mov	 DWORD PTR [edi+13368], esi
  00082	e8 00 00 00 00	 call	 _memset
  00087	83 c4 0c	 add	 esp, 12			; 0000000cH

; 893  : 			wsprintf(szTemp, lMsg.Get(3492), this->m_iAB_NOTIFY_COUNT + 1);

  0008a	8d 46 01	 lea	 eax, DWORD PTR [esi+1]
  0008d	b9 00 00 00 00	 mov	 ecx, OFFSET ?lMsg@@3VMessage@@A ; lMsg
  00092	50		 push	 eax
  00093	68 a4 0d 00 00	 push	 3492			; 00000da4H
  00098	e8 00 00 00 00	 call	 ?Get@Message@@QAEPADH@Z	; Message::Get
  0009d	50		 push	 eax
  0009e	8d 85 fc fe ff
	ff		 lea	 eax, DWORD PTR _szTemp$1[ebp]
  000a4	50		 push	 eax
  000a5	ff 15 00 00 00
	00		 call	 DWORD PTR __imp__wsprintfA

; 894  : 			this->SendMapServerGroupMsg(szTemp);
; 895  : 			LogAddTD("[ArcaBattle] --L -  -+-L %d --T-L++-.", this->m_iAB_NOTIFY_COUNT + 1);

  000ab	8b 87 38 34 00
	00		 mov	 eax, DWORD PTR [edi+13368]
  000b1	40		 inc	 eax
  000b2	50		 push	 eax
  000b3	68 00 00 00 00	 push	 OFFSET ??_C@_0DK@CBAHDJAJ@?$FLArcaBattle?$FN?5?9?$KG?$KM?c?9?kL?$PP?5?9?v?$KG?u?$KM?$LA?5?$KG?$PO?$KM@
  000b8	ff 15 00 00 00
	00		 call	 DWORD PTR ?LogAddTD@@3P6AXPADZZA ; LogAddTD

; 896  : 			// ----
; 897  : 			if( this->m_iAB_NOTIFY_COUNT == 9 || this->m_iAB_NOTIFY_COUNT == 4 )

  000be	8b 87 38 34 00
	00		 mov	 eax, DWORD PTR [edi+13368]
  000c4	83 c4 14	 add	 esp, 20			; 00000014H
  000c7	83 f8 09	 cmp	 eax, 9
  000ca	74 05		 je	 SHORT $LN5@ProcStateR
  000cc	83 f8 04	 cmp	 eax, 4
  000cf	75 07		 jne	 SHORT $LN4@ProcStateR
$LN5@ProcStateR:

; 898  : 			{
; 899  : 				this->GDReqJoinMemberUnder();

  000d1	8b cf		 mov	 ecx, edi
  000d3	e8 00 00 00 00	 call	 ?GDReqJoinMemberUnder@CArcaBattle@@QAEXXZ ; CArcaBattle::GDReqJoinMemberUnder
$LN4@ProcStateR:

; 900  : #if( AB_DEBUG_TRACE == 1 )
; 901  : 				TRACE_LOG("- T +");
; 902  : #endif
; 903  : 			}
; 904  : 		}
; 905  : 	}
; 906  : 	// ----
; 907  : 	if( this->m_iAB_REMAIN_MSEC <= 0 )

  000d8	83 bf 30 34 00
	00 00		 cmp	 DWORD PTR [edi+13360], 0
  000df	7f 51		 jg	 SHORT $LN6@ProcStateR

; 908  : 	{
; 909  : 		this->m_dwAB_TICK_COUNT		= 0;
; 910  : 		this->m_iAB_REMAIN_MSEC		= 60000 * this->m_iAB_WaitTimeMin;

  000e1	69 8f 88 34 00
	00 60 ea 00 00	 imul	 ecx, DWORD PTR [edi+13448], 60000

; 911  : 		this->m_iAB_NOTIFY_COUNT	= this->m_iAB_REMAIN_MSEC / 60000;

  000eb	b8 73 b2 e7 45	 mov	 eax, 1172812403		; 45e7b273H

; 912  : 		this->SetState(AB_STATE_READY);

  000f0	6a 05		 push	 5
  000f2	c7 87 78 34 00
	00 00 00 00 00	 mov	 DWORD PTR [edi+13432], 0
  000fc	f7 e9		 imul	 ecx
  000fe	89 8f 30 34 00
	00		 mov	 DWORD PTR [edi+13360], ecx
  00104	8b cf		 mov	 ecx, edi
  00106	c1 fa 0e	 sar	 edx, 14			; 0000000eH
  00109	8b c2		 mov	 eax, edx
  0010b	c1 e8 1f	 shr	 eax, 31			; 0000001fH
  0010e	03 c2		 add	 eax, edx
  00110	89 87 38 34 00
	00		 mov	 DWORD PTR [edi+13368], eax
  00116	e8 00 00 00 00	 call	 ?SetState@CArcaBattle@@QAEXH@Z ; CArcaBattle::SetState

; 913  : 		this->GDReqArcaBattleProcMultiCast(AB_STATE_READY);

  0011b	6a 05		 push	 5
  0011d	8b cf		 mov	 ecx, edi
  0011f	e8 00 00 00 00	 call	 ?GDReqArcaBattleProcMultiCast@CArcaBattle@@QAEXH@Z ; CArcaBattle::GDReqArcaBattleProcMultiCast

; 914  : 		LogAddTD("[ArcaBattle] --L  ");

  00124	68 00 00 00 00	 push	 OFFSET ??_C@_0CA@JLPPIFKE@?$FLArcaBattle?$FN?5?9?$KG?$KM?c?9?kL?$PP?5?$KG?$PO?$KM?$KG?5?$KM?$KG?$KM?q?$AA@
  00129	ff 15 00 00 00
	00		 call	 DWORD PTR ?LogAddTD@@3P6AXPADZZA ; LogAddTD
  0012f	83 c4 04	 add	 esp, 4
$LN6@ProcStateR:

; 915  : 	}
; 916  : }

  00132	8b 4d fc	 mov	 ecx, DWORD PTR __$ArrayPad$[ebp]
  00135	5f		 pop	 edi
  00136	33 cd		 xor	 ecx, ebp
  00138	5e		 pop	 esi
  00139	e8 00 00 00 00	 call	 @__security_check_cookie@4
  0013e	8b e5		 mov	 esp, ebp
  00140	5d		 pop	 ebp
  00141	c3		 ret	 0
?ProcStateReg@CArcaBattle@@QAEXXZ ENDP			; CArcaBattle::ProcStateReg
_TEXT	ENDS
; Function compile flags: /Ogtp
; File c:\users\michel\desktop\source\gameserver\source\arcabattle.cpp
;	COMDAT ?ProcStateMasterReg@CArcaBattle@@QAEXXZ
_TEXT	SEGMENT
_szTemp$1 = -260					; size = 256
__$ArrayPad$ = -4					; size = 4
?ProcStateMasterReg@CArcaBattle@@QAEXXZ PROC		; CArcaBattle::ProcStateMasterReg, COMDAT
; _this$ = ecx

; 825  : {

  00000	55		 push	 ebp
  00001	8b ec		 mov	 ebp, esp
  00003	81 ec 04 01 00
	00		 sub	 esp, 260		; 00000104H
  00009	a1 00 00 00 00	 mov	 eax, DWORD PTR ___security_cookie
  0000e	33 c5		 xor	 eax, ebp
  00010	89 45 fc	 mov	 DWORD PTR __$ArrayPad$[ebp], eax
  00013	56		 push	 esi
  00014	57		 push	 edi

; 826  : 	int iTICK_MSEC = GetTickCount() - this->m_iAB_TICK_COUNT;

  00015	8b 3d 00 00 00
	00		 mov	 edi, DWORD PTR __imp__GetTickCount@0
  0001b	8b f1		 mov	 esi, ecx
  0001d	ff d7		 call	 edi
  0001f	2b 86 34 34 00
	00		 sub	 eax, DWORD PTR [esi+13364]

; 827  : 	// ----
; 828  : 	if( iTICK_MSEC >= 1000 )

  00025	3d e8 03 00 00	 cmp	 eax, 1000		; 000003e8H
  0002a	0f 8c c2 00 00
	00		 jl	 $LN6@ProcStateM

; 829  : 	{
; 830  : 		this->m_iAB_REMAIN_MSEC -= iTICK_MSEC;

  00030	29 86 30 34 00
	00		 sub	 DWORD PTR [esi+13360], eax
  00036	53		 push	 ebx

; 831  : 		this->m_iAB_TICK_COUNT	= GetTickCount();

  00037	ff d7		 call	 edi

; 832  : 		int iAB_REMAIN_MIN		= this->m_iAB_REMAIN_MSEC / 60000;

  00039	8b 8e 30 34 00
	00		 mov	 ecx, DWORD PTR [esi+13360]
  0003f	89 86 34 34 00
	00		 mov	 DWORD PTR [esi+13364], eax
  00045	b8 73 b2 e7 45	 mov	 eax, 1172812403		; 45e7b273H
  0004a	f7 e9		 imul	 ecx

; 833  : 		// ----
; 834  : 		if( this->m_iAB_REMAIN_MSEC <= 60000 * this->m_iAB_MasterRegMin )

  0004c	69 86 80 34 00
	00 60 ea 00 00	 imul	 eax, DWORD PTR [esi+13440], 60000
  00056	c1 fa 0e	 sar	 edx, 14			; 0000000eH
  00059	8b da		 mov	 ebx, edx
  0005b	c1 eb 1f	 shr	 ebx, 31			; 0000001fH
  0005e	03 da		 add	 ebx, edx
  00060	3b c8		 cmp	 ecx, eax
  00062	0f 8f 89 00 00
	00		 jg	 $LN10@ProcStateM

; 835  : 		{
; 836  : 			if( GetTickCount() - this->m_dwAB_TICK_COUNT > 60000 )

  00068	ff d7		 call	 edi
  0006a	2b 86 78 34 00
	00		 sub	 eax, DWORD PTR [esi+13432]
  00070	3d 60 ea 00 00	 cmp	 eax, 60000		; 0000ea60H
  00075	76 7a		 jbe	 SHORT $LN10@ProcStateM

; 837  : 			{
; 838  : 				this->m_iAB_NOTIFY_COUNT	= iAB_REMAIN_MIN;

  00077	89 9e 38 34 00
	00		 mov	 DWORD PTR [esi+13368], ebx

; 839  : 				this->m_dwAB_TICK_COUNT		= GetTickCount();

  0007d	ff d7		 call	 edi

; 840  : 				// ----
; 841  : 				if( this->m_iAB_REMAIN_MSEC > 900000 )

  0007f	81 be 30 34 00
	00 a0 bb 0d 00	 cmp	 DWORD PTR [esi+13360], 900000 ; 000dbba0H
  00089	89 86 78 34 00
	00		 mov	 DWORD PTR [esi+13432], eax
  0008f	7e 0f		 jle	 SHORT $LN5@ProcStateM

; 842  : 				{
; 843  : 					if( this->m_iAB_REMAIN_MSEC > 900000 && ((iAB_REMAIN_MIN + 1) % 5) == 0 )

  00091	8d 43 01	 lea	 eax, DWORD PTR [ebx+1]
  00094	b9 05 00 00 00	 mov	 ecx, 5
  00099	99		 cdq
  0009a	f7 f9		 idiv	 ecx
  0009c	85 d2		 test	 edx, edx
  0009e	75 51		 jne	 SHORT $LN10@ProcStateM
$LN5@ProcStateM:

; 844  : 					{
; 845  : 						char szTemp[256];
; 846  : 						memset(szTemp, 0, sizeof(szTemp));
; 847  : 						wsprintf(szTemp, lMsg.Get(3491), this->m_iAB_NOTIFY_COUNT + 1);
; 848  : 						this->SendMapServerGroupMsg(szTemp);
; 849  : 						LogAddTD("[ArcaBattle] --L -L  -+-L %d --T-L++-.", this->m_iAB_NOTIFY_COUNT + 1);
; 850  : 					}
; 851  : 				}
; 852  : 				else
; 853  : 				{
; 854  : 					char szTemp[256];
; 855  : 					memset(szTemp, 0, sizeof(szTemp));

  000a0	68 00 01 00 00	 push	 256			; 00000100H
  000a5	8d 85 fc fe ff
	ff		 lea	 eax, DWORD PTR _szTemp$1[ebp]
  000ab	6a 00		 push	 0
  000ad	50		 push	 eax
  000ae	e8 00 00 00 00	 call	 _memset

; 856  : 					wsprintf(szTemp, lMsg.Get(3491), this->m_iAB_NOTIFY_COUNT + 1);

  000b3	8b 86 38 34 00
	00		 mov	 eax, DWORD PTR [esi+13368]
  000b9	83 c4 0c	 add	 esp, 12			; 0000000cH
  000bc	40		 inc	 eax
  000bd	b9 00 00 00 00	 mov	 ecx, OFFSET ?lMsg@@3VMessage@@A ; lMsg
  000c2	50		 push	 eax
  000c3	68 a3 0d 00 00	 push	 3491			; 00000da3H
  000c8	e8 00 00 00 00	 call	 ?Get@Message@@QAEPADH@Z	; Message::Get
  000cd	50		 push	 eax
  000ce	8d 85 fc fe ff
	ff		 lea	 eax, DWORD PTR _szTemp$1[ebp]
  000d4	50		 push	 eax
  000d5	ff 15 00 00 00
	00		 call	 DWORD PTR __imp__wsprintfA

; 857  : 					this->SendMapServerGroupMsg(szTemp);
; 858  : 					LogAddTD("[ArcaBattle] --L -L  -+-L %d --T-L++-.", this->m_iAB_NOTIFY_COUNT + 1);

  000db	8b 86 38 34 00
	00		 mov	 eax, DWORD PTR [esi+13368]
  000e1	40		 inc	 eax
  000e2	50		 push	 eax
  000e3	68 00 00 00 00	 push	 OFFSET ??_C@_0DK@LOHLFLGA@?$FLArcaBattle?$FN?5?9?$KG?$KM?c?9?kL?$PP?5?9?v?$KG?uL?u?5?$KG?$PO?$KM@
  000e8	ff 15 00 00 00
	00		 call	 DWORD PTR ?LogAddTD@@3P6AXPADZZA ; LogAddTD
  000ee	83 c4 14	 add	 esp, 20			; 00000014H
$LN10@ProcStateM:
  000f1	5b		 pop	 ebx
$LN6@ProcStateM:

; 859  : 				}
; 860  : 			}
; 861  : 		}
; 862  : 	}
; 863  : 	// ----
; 864  : 	if( this->m_iAB_REMAIN_MSEC <= 0 )

  000f2	83 be 30 34 00
	00 00		 cmp	 DWORD PTR [esi+13360], 0
  000f9	7f 51		 jg	 SHORT $LN8@ProcStateM

; 865  : 	{
; 866  : 		this->m_dwAB_TICK_COUNT		= 0;
; 867  : 		this->m_iAB_REMAIN_MSEC		= 60000 * this->m_iAB_RegTimeMin;

  000fb	69 8e 84 34 00
	00 60 ea 00 00	 imul	 ecx, DWORD PTR [esi+13444], 60000

; 868  : 		this->m_iAB_NOTIFY_COUNT	= this->m_iAB_REMAIN_MSEC / 60000;

  00105	b8 73 b2 e7 45	 mov	 eax, 1172812403		; 45e7b273H

; 869  : 		this->SetState(AB_STATE_REG);

  0010a	6a 04		 push	 4
  0010c	c7 86 78 34 00
	00 00 00 00 00	 mov	 DWORD PTR [esi+13432], 0
  00116	f7 e9		 imul	 ecx
  00118	89 8e 30 34 00
	00		 mov	 DWORD PTR [esi+13360], ecx
  0011e	8b ce		 mov	 ecx, esi
  00120	c1 fa 0e	 sar	 edx, 14			; 0000000eH
  00123	8b c2		 mov	 eax, edx
  00125	c1 e8 1f	 shr	 eax, 31			; 0000001fH
  00128	03 c2		 add	 eax, edx
  0012a	89 86 38 34 00
	00		 mov	 DWORD PTR [esi+13368], eax
  00130	e8 00 00 00 00	 call	 ?SetState@CArcaBattle@@QAEXH@Z ; CArcaBattle::SetState

; 870  : 		this->GDReqArcaBattleProcMultiCast(AB_STATE_REG);

  00135	6a 04		 push	 4
  00137	8b ce		 mov	 ecx, esi
  00139	e8 00 00 00 00	 call	 ?GDReqArcaBattleProcMultiCast@CArcaBattle@@QAEXH@Z ; CArcaBattle::GDReqArcaBattleProcMultiCast

; 871  : 		LogAddTD("[ArcaBattle] --L -  -+L-");

  0013e	68 00 00 00 00	 push	 OFFSET ??_C@_0CH@LADMGAOH@?$FLArcaBattle?$FN?5?9?$KG?$KM?c?9?kL?$PP?5?9?v?$KG?u?$KM?$LA?5?$KG?$PO?$KM@
  00143	ff 15 00 00 00
	00		 call	 DWORD PTR ?LogAddTD@@3P6AXPADZZA ; LogAddTD
  00149	83 c4 04	 add	 esp, 4
$LN8@ProcStateM:

; 872  : 	}
; 873  : }

  0014c	8b 4d fc	 mov	 ecx, DWORD PTR __$ArrayPad$[ebp]
  0014f	5f		 pop	 edi
  00150	33 cd		 xor	 ecx, ebp
  00152	5e		 pop	 esi
  00153	e8 00 00 00 00	 call	 @__security_check_cookie@4
  00158	8b e5		 mov	 esp, ebp
  0015a	5d		 pop	 ebp
  0015b	c3		 ret	 0
?ProcStateMasterReg@CArcaBattle@@QAEXXZ ENDP		; CArcaBattle::ProcStateMasterReg
_TEXT	ENDS
; Function compile flags: /Ogtp
; File c:\users\michel\desktop\source\gameserver\source\arcabattle.cpp
;	COMDAT ?ProcStateClosed@CArcaBattle@@QAEXXZ
_TEXT	SEGMENT
_szTemp$ = -260						; size = 256
__$ArrayPad$ = -4					; size = 4
?ProcStateClosed@CArcaBattle@@QAEXXZ PROC		; CArcaBattle::ProcStateClosed, COMDAT
; _this$ = ecx

; 784  : {

  00000	55		 push	 ebp
  00001	8b ec		 mov	 ebp, esp
  00003	81 ec 04 01 00
	00		 sub	 esp, 260		; 00000104H
  00009	a1 00 00 00 00	 mov	 eax, DWORD PTR ___security_cookie
  0000e	33 c5		 xor	 eax, ebp
  00010	89 45 fc	 mov	 DWORD PTR __$ArrayPad$[ebp], eax
  00013	56		 push	 esi
  00014	68 00 01 00 00	 push	 256			; 00000100H
  00019	8d 85 fc fe ff
	ff		 lea	 eax, DWORD PTR _szTemp$[ebp]
  0001f	8b f1		 mov	 esi, ecx
  00021	6a 00		 push	 0
  00023	50		 push	 eax
  00024	e8 00 00 00 00	 call	 _memset
  00029	83 c4 0c	 add	 esp, 12			; 0000000cH

; 785  : 	int iTICK_MSEC;
; 786  : 	char szTemp[256] = { 0 };	//xor by inizilization?
; 787  : 	// ----
; 788  : 	if( this->m_iAB_REMAIN_MSEC == -100 )

  0002c	83 be 30 34 00
	00 9c		 cmp	 DWORD PTR [esi+13360], -100 ; ffffff9cH
  00033	0f 84 e0 00 00
	00		 je	 $LN4@ProcStateC

; 789  : 	{
; 790  : 		return;
; 791  : 	}
; 792  : 	// ----
; 793  : 	iTICK_MSEC = GetTickCount() - this->m_iAB_TICK_COUNT;

  00039	ff 15 00 00 00
	00		 call	 DWORD PTR __imp__GetTickCount@0
  0003f	2b 86 34 34 00
	00		 sub	 eax, DWORD PTR [esi+13364]

; 794  : 	// ----
; 795  : 	if( iTICK_MSEC >= 1000 )

  00045	3d e8 03 00 00	 cmp	 eax, 1000		; 000003e8H
  0004a	0f 8c c9 00 00
	00		 jl	 $LN4@ProcStateC

; 796  : 	{
; 797  : 		this->m_iAB_REMAIN_MSEC -= iTICK_MSEC;

  00050	29 86 30 34 00
	00		 sub	 DWORD PTR [esi+13360], eax

; 798  : 		this->m_iAB_TICK_COUNT	= GetTickCount();

  00056	ff 15 00 00 00
	00		 call	 DWORD PTR __imp__GetTickCount@0

; 799  : 		// ----
; 800  : 		if( this->m_iAB_REMAIN_MSEC <= 0 )

  0005c	83 be 30 34 00
	00 00		 cmp	 DWORD PTR [esi+13360], 0
  00063	89 86 34 34 00
	00		 mov	 DWORD PTR [esi+13364], eax
  00069	0f 8f aa 00 00
	00		 jg	 $LN4@ProcStateC

; 801  : 		{
; 802  : 			this->GDReqDeleteArcaBattleInfo();

  0006f	8b ce		 mov	 ecx, esi
  00071	e8 00 00 00 00	 call	 ?GDReqDeleteArcaBattleInfo@CArcaBattle@@QAEXXZ ; CArcaBattle::GDReqDeleteArcaBattleInfo

; 803  : 			this->ReqRemoveRewardBuffWinningGuild();

  00076	8b ce		 mov	 ecx, esi
  00078	e8 00 00 00 00	 call	 ?ReqRemoveRewardBuffWinningGuild@CArcaBattle@@QAEXXZ ; CArcaBattle::ReqRemoveRewardBuffWinningGuild

; 804  : 			// ----
; 805  : 			this->m_bAB_CAN_ENTER		= true;
; 806  : 			this->m_iAB_NOTIFY_COUNT	= this->m_iAB_REMAIN_MSEC / 60000;

  0007d	b8 73 b2 e7 45	 mov	 eax, 1172812403		; 45e7b273H
  00082	c6 86 3c 34 00
	00 01		 mov	 BYTE PTR [esi+13372], 1
  00089	f7 ae 30 34 00
	00		 imul	 DWORD PTR [esi+13360]

; 807  : 			// ----
; 808  : 			memset(szTemp, 0, sizeof(szTemp));

  0008f	68 00 01 00 00	 push	 256			; 00000100H
  00094	c1 fa 0e	 sar	 edx, 14			; 0000000eH
  00097	8b c2		 mov	 eax, edx
  00099	c1 e8 1f	 shr	 eax, 31			; 0000001fH
  0009c	03 c2		 add	 eax, edx
  0009e	89 86 38 34 00
	00		 mov	 DWORD PTR [esi+13368], eax
  000a4	8d 85 fc fe ff
	ff		 lea	 eax, DWORD PTR _szTemp$[ebp]
  000aa	6a 00		 push	 0
  000ac	50		 push	 eax
  000ad	e8 00 00 00 00	 call	 _memset
  000b2	83 c4 0c	 add	 esp, 12			; 0000000cH

; 809  : 			wsprintf(szTemp, lMsg.Get(3490)); //#TEXT

  000b5	b9 00 00 00 00	 mov	 ecx, OFFSET ?lMsg@@3VMessage@@A ; lMsg
  000ba	68 a2 0d 00 00	 push	 3490			; 00000da2H
  000bf	e8 00 00 00 00	 call	 ?Get@Message@@QAEPADH@Z	; Message::Get
  000c4	50		 push	 eax
  000c5	8d 8d fc fe ff
	ff		 lea	 ecx, DWORD PTR _szTemp$[ebp]
  000cb	51		 push	 ecx
  000cc	ff 15 00 00 00
	00		 call	 DWORD PTR __imp__wsprintfA

; 810  : 			this->SendMapServerGroupMsg(szTemp);
; 811  : 			// ----
; 812  : 			this->m_iAB_REMAIN_MSEC		= 60000 * this->m_iAB_MasterRegMin;

  000d2	69 8e 80 34 00
	00 60 ea 00 00	 imul	 ecx, DWORD PTR [esi+13440], 60000

; 813  : 			this->m_iAB_NOTIFY_COUNT	= this->m_iAB_REMAIN_MSEC / 60000;

  000dc	b8 73 b2 e7 45	 mov	 eax, 1172812403		; 45e7b273H

; 814  : 			// ----
; 815  : 			LogAddTD("[ArcaBattle] ArcaBattle Start");

  000e1	68 00 00 00 00	 push	 OFFSET ??_C@_0BO@PADLLFDO@?$FLArcaBattle?$FN?5ArcaBattle?5Start?$AA@
  000e6	f7 e9		 imul	 ecx
  000e8	89 8e 30 34 00
	00		 mov	 DWORD PTR [esi+13360], ecx
  000ee	c1 fa 0e	 sar	 edx, 14			; 0000000eH
  000f1	8b c2		 mov	 eax, edx
  000f3	c1 e8 1f	 shr	 eax, 31			; 0000001fH
  000f6	03 c2		 add	 eax, edx
  000f8	89 86 38 34 00
	00		 mov	 DWORD PTR [esi+13368], eax
  000fe	ff 15 00 00 00
	00		 call	 DWORD PTR ?LogAddTD@@3P6AXPADZZA ; LogAddTD
  00104	83 c4 0c	 add	 esp, 12			; 0000000cH

; 816  : 			this->SetState(AB_STATE_START);

  00107	8b ce		 mov	 ecx, esi
  00109	6a 03		 push	 3
  0010b	e8 00 00 00 00	 call	 ?SetState@CArcaBattle@@QAEXH@Z ; CArcaBattle::SetState

; 817  : 			this->GDReqArcaBattleProcMultiCast(AB_STATE_START);

  00110	6a 03		 push	 3
  00112	8b ce		 mov	 ecx, esi
  00114	e8 00 00 00 00	 call	 ?GDReqArcaBattleProcMultiCast@CArcaBattle@@QAEXH@Z ; CArcaBattle::GDReqArcaBattleProcMultiCast
$LN4@ProcStateC:

; 818  : 		}
; 819  : 	}
; 820  : }

  00119	8b 4d fc	 mov	 ecx, DWORD PTR __$ArrayPad$[ebp]
  0011c	33 cd		 xor	 ecx, ebp
  0011e	5e		 pop	 esi
  0011f	e8 00 00 00 00	 call	 @__security_check_cookie@4
  00124	8b e5		 mov	 esp, ebp
  00126	5d		 pop	 ebp
  00127	c3		 ret	 0
?ProcStateClosed@CArcaBattle@@QAEXXZ ENDP		; CArcaBattle::ProcStateClosed
_TEXT	ENDS
; Function compile flags: /Ogtp
; File c:\users\michel\desktop\source\gameserver\source\arcabattle.cpp
;	COMDAT ?CheckSync@CArcaBattle@@QAEHXZ
_TEXT	SEGMENT
?CheckSync@CArcaBattle@@QAEHXZ PROC			; CArcaBattle::CheckSync, COMDAT
; _this$ = ecx

; 679  : 	return 0;

  00000	33 c0		 xor	 eax, eax

; 680  : }

  00002	c3		 ret	 0
?CheckSync@CArcaBattle@@QAEHXZ ENDP			; CArcaBattle::CheckSync
_TEXT	ENDS
; Function compile flags: /Ogtp
; File c:\users\michel\desktop\source\gameserver\source\arcabattle.cpp
;	COMDAT ?Run@CArcaBattle@@QAEXXZ
_TEXT	SEGMENT
?Run@CArcaBattle@@QAEXXZ PROC				; CArcaBattle::Run, COMDAT
; _this$ = ecx

; 1252 : {

  00000	56		 push	 esi
  00001	8b f1		 mov	 esi, ecx

; 1253 : 	if( !this->IsArcaBattleServer() )

  00003	e8 00 00 00 00	 call	 ?IsArcaBattleServer@CArcaBattle@@QAEHXZ ; CArcaBattle::IsArcaBattleServer
  00008	85 c0		 test	 eax, eax
  0000a	74 5b		 je	 SHORT $LN2@Run

; 1254 : 	{
; 1255 : 		return;
; 1256 : 	}
; 1257 : 	// ----
; 1258 : 	switch(this->m_iAB_State)

  0000c	8b 86 28 34 00
	00		 mov	 eax, DWORD PTR [esi+13352]
  00012	48		 dec	 eax
  00013	83 f8 09	 cmp	 eax, 9
  00016	77 4f		 ja	 SHORT $LN2@Run
  00018	ff 24 85 00 00
	00 00		 jmp	 DWORD PTR $LN19@Run[eax*4]
$LN6@Run:

; 1259 : 	{
; 1260 : 	case AB_STATE_NONE:
; 1261 : 		this->CheckSync();
; 1262 : 		break;
; 1263 : 	case AB_STATE_CLOSED:
; 1264 : 		this->ProcStateClosed();

  0001f	8b ce		 mov	 ecx, esi
  00021	5e		 pop	 esi
  00022	e9 00 00 00 00	 jmp	 ?ProcStateClosed@CArcaBattle@@QAEXXZ ; CArcaBattle::ProcStateClosed
$LN7@Run:

; 1265 : 		break;
; 1266 : 	case AB_STATE_START:
; 1267 : 		this->ProcStateMasterReg();

  00027	8b ce		 mov	 ecx, esi
  00029	5e		 pop	 esi
  0002a	e9 00 00 00 00	 jmp	 ?ProcStateMasterReg@CArcaBattle@@QAEXXZ ; CArcaBattle::ProcStateMasterReg
$LN8@Run:

; 1268 : 		break;
; 1269 : 	case AB_STATE_REG:
; 1270 : 		this->ProcStateReg();

  0002f	8b ce		 mov	 ecx, esi
  00031	5e		 pop	 esi
  00032	e9 00 00 00 00	 jmp	 ?ProcStateReg@CArcaBattle@@QAEXXZ ; CArcaBattle::ProcStateReg
$LN9@Run:

; 1271 : 		break;
; 1272 : 	case AB_STATE_READY:
; 1273 : 		this->ProcStateReady();

  00037	8b ce		 mov	 ecx, esi
  00039	5e		 pop	 esi
  0003a	e9 00 00 00 00	 jmp	 ?ProcStateReady@CArcaBattle@@QAEXXZ ; CArcaBattle::ProcStateReady
$LN10@Run:

; 1274 : 		break;
; 1275 : 	case AB_STATE_PATY:
; 1276 : 		this->ProcStatePaty();

  0003f	8b ce		 mov	 ecx, esi
  00041	5e		 pop	 esi
  00042	e9 00 00 00 00	 jmp	 ?ProcStatePaty@CArcaBattle@@QAEXXZ ; CArcaBattle::ProcStatePaty
$LN11@Run:

; 1277 : 		break;
; 1278 : 	case AB_STATE_PLAY:
; 1279 : 		this->ProcStatePlaying();

  00047	8b ce		 mov	 ecx, esi
  00049	5e		 pop	 esi
  0004a	e9 00 00 00 00	 jmp	 ?ProcStatePlaying@CArcaBattle@@QAEXXZ ; CArcaBattle::ProcStatePlaying
$LN12@Run:

; 1280 : 		break;
; 1281 : 	case AB_STATE_RESULT:
; 1282 : 		this->ProcStateResult();

  0004f	8b ce		 mov	 ecx, esi
  00051	5e		 pop	 esi
  00052	e9 00 00 00 00	 jmp	 ?ProcStateResult@CArcaBattle@@QAEXXZ ; CArcaBattle::ProcStateResult
$LN13@Run:

; 1283 : 		break;
; 1284 : 	case AB_STATE_CLOSE:
; 1285 : 		this->ProcStateChannelClose();

  00057	8b ce		 mov	 ecx, esi
  00059	5e		 pop	 esi
  0005a	e9 00 00 00 00	 jmp	 ?ProcStateChannelClose@CArcaBattle@@QAEXXZ ; CArcaBattle::ProcStateChannelClose
$LN14@Run:

; 1286 : 		break;
; 1287 : 	case AB_STATE_END:
; 1288 : 		this->ProcStatePlayEnd();

  0005f	8b ce		 mov	 ecx, esi
  00061	5e		 pop	 esi
  00062	e9 00 00 00 00	 jmp	 ?ProcStatePlayEnd@CArcaBattle@@QAEXXZ ; CArcaBattle::ProcStatePlayEnd
$LN2@Run:
  00067	5e		 pop	 esi

; 1289 : 		break;
; 1290 : 	}
; 1291 : }

  00068	c3		 ret	 0
  00069	0f 1f 00	 npad	 3
$LN19@Run:
  0006c	00 00 00 00	 DD	 $LN2@Run
  00070	00 00 00 00	 DD	 $LN6@Run
  00074	00 00 00 00	 DD	 $LN7@Run
  00078	00 00 00 00	 DD	 $LN8@Run
  0007c	00 00 00 00	 DD	 $LN9@Run
  00080	00 00 00 00	 DD	 $LN10@Run
  00084	00 00 00 00	 DD	 $LN11@Run
  00088	00 00 00 00	 DD	 $LN12@Run
  0008c	00 00 00 00	 DD	 $LN13@Run
  00090	00 00 00 00	 DD	 $LN14@Run
?Run@CArcaBattle@@QAEXXZ ENDP				; CArcaBattle::Run
_TEXT	ENDS
; Function compile flags: /Ogtp
; File c:\users\michel\desktop\source\gameserver\source\arcabattle.cpp
;	COMDAT ?DBDataRequest@CArcaBattle@@QAEHXZ
_TEXT	SEGMENT
?DBDataRequest@CArcaBattle@@QAEHXZ PROC			; CArcaBattle::DBDataRequest, COMDAT
; _this$ = ecx

; 762  : {

  00000	56		 push	 esi
  00001	8b f1		 mov	 esi, ecx

; 763  : 	BOOL bDbRequestData = false;
; 764  : 	// ----
; 765  : 	if( !this->m_dwDbDataLoadTickCount )

  00003	83 be 44 34 00
	00 00		 cmp	 DWORD PTR [esi+13380], 0
  0000a	75 0f		 jne	 SHORT $LN2@DBDataRequ

; 766  : 	{
; 767  : 		bDbRequestData = true;
; 768  : 		this->m_dwDbDataLoadTickCount = GetTickCount();

  0000c	ff 15 00 00 00
	00		 call	 DWORD PTR __imp__GetTickCount@0

; 769  : 		LogAddC(3, "[ArcaBattle] CArcaBattle::DBDataRequest() - REQUEST DATA FIRST");

  00012	68 00 00 00 00	 push	 OFFSET ??_C@_0DP@BPHKINJM@?$FLArcaBattle?$FN?5CArcaBattle?3?3DBData@
  00017	6a 03		 push	 3
  00019	eb 20		 jmp	 SHORT $LN7@DBDataRequ
$LN2@DBDataRequ:

; 770  : 	}
; 771  : 	else if( GetTickCount() - this->m_dwDbDataLoadTickCount > 3000 )

  0001b	ff 15 00 00 00
	00		 call	 DWORD PTR __imp__GetTickCount@0
  00021	2b 86 44 34 00
	00		 sub	 eax, DWORD PTR [esi+13380]
  00027	3d b8 0b 00 00	 cmp	 eax, 3000		; 00000bb8H
  0002c	76 1c		 jbe	 SHORT $LN6@DBDataRequ

; 772  : 	{
; 773  : 		bDbRequestData = true;
; 774  : 		this->m_dwDbDataLoadTickCount = GetTickCount();

  0002e	ff 15 00 00 00
	00		 call	 DWORD PTR __imp__GetTickCount@0

; 775  : 		LogAddC(2, "[ArcaBattle] CArcaBattle::DBDataRequest() - REQUEST DATA AGAIN");

  00034	68 00 00 00 00	 push	 OFFSET ??_C@_0DP@FOHPCHEJ@?$FLArcaBattle?$FN?5CArcaBattle?3?3DBData@
  00039	6a 02		 push	 2
$LN7@DBDataRequ:
  0003b	89 86 44 34 00
	00		 mov	 DWORD PTR [esi+13380], eax
  00041	ff 15 00 00 00
	00		 call	 DWORD PTR ?LogAddC@@3P6AXEPADZZA ; LogAddC
  00047	83 c4 08	 add	 esp, 8
$LN6@DBDataRequ:

; 776  : 	}
; 777  : 	// ----
; 778  : 	return true;

  0004a	b8 01 00 00 00	 mov	 eax, 1
  0004f	5e		 pop	 esi

; 779  : }

  00050	c3		 ret	 0
?DBDataRequest@CArcaBattle@@QAEHXZ ENDP			; CArcaBattle::DBDataRequest
_TEXT	ENDS
; Function compile flags: /Ogtp
; File c:\users\michel\desktop\source\gameserver\source\arcabattle.cpp
;	COMDAT ?GetState@CArcaBattle@@QAEHXZ
_TEXT	SEGMENT
?GetState@CArcaBattle@@QAEHXZ PROC			; CArcaBattle::GetState, COMDAT
; _this$ = ecx

; 742  : 	return this->m_iAB_State;

  00000	8b 81 28 34 00
	00		 mov	 eax, DWORD PTR [ecx+13352]

; 743  : }

  00006	c3		 ret	 0
?GetState@CArcaBattle@@QAEHXZ ENDP			; CArcaBattle::GetState
_TEXT	ENDS
; Function compile flags: /Ogtp
; File c:\users\michel\desktop\source\gameserver\source\arcabattle.cpp
;	COMDAT ?SetState@CArcaBattle@@QAEXH@Z
_TEXT	SEGMENT
_iAB_State$ = 8						; size = 4
?SetState@CArcaBattle@@QAEXH@Z PROC			; CArcaBattle::SetState, COMDAT
; _this$ = ecx

; 685  : {

  00000	55		 push	 ebp
  00001	8b ec		 mov	 ebp, esp
  00003	56		 push	 esi
  00004	8b f1		 mov	 esi, ecx
  00006	57		 push	 edi

; 686  : 	this->m_iAB_State = iAB_State;

  00007	8b 7d 08	 mov	 edi, DWORD PTR _iAB_State$[ebp]
  0000a	89 be 28 34 00
	00		 mov	 DWORD PTR [esi+13352], edi

; 687  : 	// ----
; 688  : 	if( !this->IsArcaBattleServer() )

  00010	e8 00 00 00 00	 call	 ?IsArcaBattleServer@CArcaBattle@@QAEHXZ ; CArcaBattle::IsArcaBattleServer
  00015	85 c0		 test	 eax, eax
  00017	74 31		 je	 SHORT $LN5@SetState

; 689  : 	{
; 690  : 		return;
; 691  : 	}
; 692  : 	// ----
; 693  : 	this->SendArcaBattleStateAll(this->m_iAB_State);

  00019	57		 push	 edi
  0001a	8b ce		 mov	 ecx, esi
  0001c	e8 00 00 00 00	 call	 ?SendArcaBattleStateAll@CArcaBattle@@QAEXH@Z ; CArcaBattle::SendArcaBattleStateAll

; 694  : 	// ----
; 695  : 	switch(this->m_iAB_State)

  00021	8b 86 28 34 00
	00		 mov	 eax, DWORD PTR [esi+13352]
  00027	83 e8 02	 sub	 eax, 2
  0002a	74 1e		 je	 SHORT $LN5@SetState
  0002c	83 e8 03	 sub	 eax, 3
  0002f	74 12		 je	 SHORT $LN6@SetState
  00031	83 e8 05	 sub	 eax, 5
  00034	75 14		 jne	 SHORT $LN5@SetState

; 702  : 		break;
; 703  : 	case AB_STATE_END:
; 704  : 		this->SetStatePlayEnd();

  00036	8b ce		 mov	 ecx, esi
  00038	e8 00 00 00 00	 call	 ?SetStatePlayEnd@CArcaBattle@@QAEXXZ ; CArcaBattle::SetStatePlayEnd
  0003d	5f		 pop	 edi
  0003e	5e		 pop	 esi

; 705  : 		break;
; 706  : 	}
; 707  : }

  0003f	5d		 pop	 ebp
  00040	c2 04 00	 ret	 4
$LN6@SetState:

; 696  : 	{
; 697  : 	case AB_STATE_CLOSED:
; 698  : 		this->SetStateClosed();
; 699  : 		break;
; 700  : 	case AB_STATE_READY:
; 701  : 		this->SetStateReady();

  00043	8b ce		 mov	 ecx, esi
  00045	e8 00 00 00 00	 call	 ?SetStateReady@CArcaBattle@@QAEXXZ ; CArcaBattle::SetStateReady
$LN5@SetState:
  0004a	5f		 pop	 edi
  0004b	5e		 pop	 esi

; 705  : 		break;
; 706  : 	}
; 707  : }

  0004c	5d		 pop	 ebp
  0004d	c2 04 00	 ret	 4
?SetState@CArcaBattle@@QAEXH@Z ENDP			; CArcaBattle::SetState
_TEXT	ENDS
; Function compile flags: /Ogtp
; File c:\users\michel\desktop\source\gameserver\source\arcabattle.cpp
;	COMDAT ?SetDataLoadState@CArcaBattle@@QAEXH@Z
_TEXT	SEGMENT
_iDataLoadState$ = 8					; size = 4
?SetDataLoadState@CArcaBattle@@QAEXH@Z PROC		; CArcaBattle::SetDataLoadState, COMDAT
; _this$ = ecx

; 755  : {

  00000	55		 push	 ebp
  00001	8b ec		 mov	 ebp, esp

; 756  : 	this->m_iArcaBattleLoadState = iDataLoadState;

  00003	8b 45 08	 mov	 eax, DWORD PTR _iDataLoadState$[ebp]
  00006	89 81 1c 34 00
	00		 mov	 DWORD PTR [ecx+13340], eax

; 757  : }

  0000c	5d		 pop	 ebp
  0000d	c2 04 00	 ret	 4
?SetDataLoadState@CArcaBattle@@QAEXH@Z ENDP		; CArcaBattle::SetDataLoadState
_TEXT	ENDS
; Function compile flags: /Ogtp
; File c:\users\michel\desktop\source\gameserver\source\arcabattle.cpp
;	COMDAT ?GetDataLoadState@CArcaBattle@@QAEHXZ
_TEXT	SEGMENT
?GetDataLoadState@CArcaBattle@@QAEHXZ PROC		; CArcaBattle::GetDataLoadState, COMDAT
; _this$ = ecx

; 749  : 	return this->m_iArcaBattleLoadState;

  00000	8b 81 1c 34 00
	00		 mov	 eax, DWORD PTR [ecx+13340]

; 750  : }

  00006	c3		 ret	 0
?GetDataLoadState@CArcaBattle@@QAEHXZ ENDP		; CArcaBattle::GetDataLoadState
_TEXT	ENDS
; Function compile flags: /Ogtp
; File c:\users\michel\desktop\source\gameserver\source\arcabattle.cpp
;	COMDAT ?GetJoinMemberCnt@CArcaBattle@@QAEHXZ
_TEXT	SEGMENT
?GetJoinMemberCnt@CArcaBattle@@QAEHXZ PROC		; CArcaBattle::GetJoinMemberCnt, COMDAT
; _this$ = ecx

; 1304 : 	return this->m_iJoinGuildMemberCnt;

  00000	8b 81 74 34 00
	00		 mov	 eax, DWORD PTR [ecx+13428]

; 1305 : }

  00006	c3		 ret	 0
?GetJoinMemberCnt@CArcaBattle@@QAEHXZ ENDP		; CArcaBattle::GetJoinMemberCnt
_TEXT	ENDS
; Function compile flags: /Ogtp
; File c:\users\michel\desktop\source\gameserver\source\arcabattle.cpp
; File c:\users\michel\desktop\source\gameserver\source\mapservermanager.h
; File c:\users\michel\desktop\source\gameserver\source\arcabattle.cpp
; File c:\users\michel\desktop\source\gameserver\source\mapservermanager.h
; File c:\users\michel\desktop\source\gameserver\source\arcabattle.cpp
;	COMDAT ?GDReqJoinMemberUnder@CArcaBattle@@QAEXXZ
_TEXT	SEGMENT
_pMsg$ = -8						; size = 6
?GDReqJoinMemberUnder@CArcaBattle@@QAEXXZ PROC		; CArcaBattle::GDReqJoinMemberUnder, COMDAT
; _this$ = ecx

; 2701 : {

  00000	55		 push	 ebp
  00001	8b ec		 mov	 ebp, esp
  00003	83 ec 08	 sub	 esp, 8
; File c:\users\michel\desktop\source\gameserver\source\mapservermanager.h

; 55   : 		if ( this->m_lpThisMapSvrData != NULL )

  00006	a1 f8 6a 01 00	 mov	 eax, DWORD PTR ?g_MapServerManager@@3VCMapServerManager@@A+92920
; File c:\users\michel\desktop\source\gameserver\source\arcabattle.cpp

; 2704 : 	pMsg.h.c		= 0xC1;

  0000b	c7 45 f8 c1 06
	f8 41		 mov	 DWORD PTR _pMsg$[ebp], 1106773697 ; 41f806c1H
; File c:\users\michel\desktop\source\gameserver\source\mapservermanager.h

; 55   : 		if ( this->m_lpThisMapSvrData != NULL )

  00012	85 c0		 test	 eax, eax
  00014	74 06		 je	 SHORT $LN4@GDReqJoinM

; 56   : 		{
; 57   : 			return m_lpThisMapSvrData->m_btMAPSVR_GROUP;

  00016	0f b6 40 08	 movzx	 eax, BYTE PTR [eax+8]
  0001a	eb 03		 jmp	 SHORT $LN3@GDReqJoinM
$LN4@GDReqJoinM:

; 58   : 		}
; 59   : 		return -1;

  0001c	83 c8 ff	 or	 eax, -1
$LN3@GDReqJoinM:
; File c:\users\michel\desktop\source\gameserver\source\arcabattle.cpp

; 2708 : 	pMsg.wMapSvrNum = g_MapServerManager.GetMapSvrGroup();

  0001f	66 89 45 fc	 mov	 WORD PTR _pMsg$[ebp+4], ax

; 2709 : 	// ----
; 2710 : 	cDBSMng.Send((PCHAR)&pMsg, pMsg.h.size);

  00023	b9 00 00 00 00	 mov	 ecx, OFFSET ?cDBSMng@@3VDBSockMng@@A ; cDBSMng
  00028	6a 06		 push	 6
  0002a	8d 45 f8	 lea	 eax, DWORD PTR _pMsg$[ebp]
  0002d	50		 push	 eax
  0002e	e8 00 00 00 00	 call	 ?Send@DBSockMng@@QAEHPADH@Z ; DBSockMng::Send

; 2711 : }

  00033	8b e5		 mov	 esp, ebp
  00035	5d		 pop	 ebp
  00036	c3		 ret	 0
?GDReqJoinMemberUnder@CArcaBattle@@QAEXXZ ENDP		; CArcaBattle::GDReqJoinMemberUnder
_TEXT	ENDS
; Function compile flags: /Ogtp
; File c:\users\michel\desktop\source\gameserver\source\arcabattle.cpp
;	COMDAT ?SendArcaBattlePlayInfo@CArcaBattle@@QAEXAAUOBJECTSTRUCT@@G@Z
_TEXT	SEGMENT
_obj$GSCopy$1$ = -248					; size = 4
tv785 = -244						; size = 4
tv804 = -240						; size = 4
tv803 = -236						; size = 4
_pMsg$ = -232						; size = 228
__$ArrayPad$ = -4					; size = 4
_obj$ = 8						; size = 4
_wGuildGroupNum$ = 12					; size = 2
?SendArcaBattlePlayInfo@CArcaBattle@@QAEXAAUOBJECTSTRUCT@@G@Z PROC ; CArcaBattle::SendArcaBattlePlayInfo, COMDAT
; _this$ = ecx

; 285  : {

  00000	55		 push	 ebp
  00001	8b ec		 mov	 ebp, esp
  00003	81 ec f8 00 00
	00		 sub	 esp, 248		; 000000f8H
  00009	a1 00 00 00 00	 mov	 eax, DWORD PTR ___security_cookie
  0000e	33 c5		 xor	 eax, ebp
  00010	89 45 fc	 mov	 DWORD PTR __$ArrayPad$[ebp], eax
  00013	8b 45 08	 mov	 eax, DWORD PTR _obj$[ebp]
  00016	89 85 08 ff ff
	ff		 mov	 DWORD PTR _obj$GSCopy$1$[ebp], eax
  0001c	56		 push	 esi
  0001d	8b f1		 mov	 esi, ecx

; 286  : 	if( gObj[obj.m_Index].Connected < PLAYER_LOGGED )

  0001f	69 10 40 27 00
	00		 imul	 edx, DWORD PTR [eax], 10048
  00025	a1 00 00 00 00	 mov	 eax, DWORD PTR ?gObj@@3PAUOBJECTSTRUCT@@A ; gObj
  0002a	83 7c 02 04 02	 cmp	 DWORD PTR [edx+eax+4], 2
  0002f	0f 8c 07 01 00
	00		 jl	 $LN1@SendArcaBa

; 287  : 	{
; 288  : 		return;
; 289  : 	}
; 290  : 	// ----
; 291  : 	_tagPMSG_ARCA_BATTLE_PLAY_INFO pMsg;

  00035	53		 push	 ebx
  00036	57		 push	 edi
  00037	8d 8d 18 ff ff
	ff		 lea	 ecx, DWORD PTR _pMsg$[ebp]
  0003d	e8 00 00 00 00	 call	 ??0_tagPMSG_ARCA_BATTLE_PLAY_INFO@@QAE@XZ ; _tagPMSG_ARCA_BATTLE_PLAY_INFO::_tagPMSG_ARCA_BATTLE_PLAY_INFO

; 292  : 	// ----
; 293  : 	pMsg.h.c			= 0xC1;
; 294  :     pMsg.h.size			= sizeof(_tagPMSG_ARCA_BATTLE_PLAY_INFO);
; 295  :     pMsg.h.headcode		= 0xF8;
; 296  :     pMsg.h.subcode		= 0x39;
; 297  :     pMsg.wGuildGroupNum = wGuildGroupNum;

  00042	66 8b 45 0c	 mov	 ax, WORD PTR _wGuildGroupNum$[ebp]
  00046	8d 9d 24 ff ff
	ff		 lea	 ebx, DWORD PTR _pMsg$[ebp+12]
  0004c	66 89 85 1c ff
	ff ff		 mov	 WORD PTR _pMsg$[ebp+4], ax
  00053	8d 86 dc 2f 00
	00		 lea	 eax, DWORD PTR [esi+12252]
  00059	c7 85 18 ff ff
	ff c1 e4 f8 39	 mov	 DWORD PTR _pMsg$[ebp], 972612801 ; 39f8e4c1H
  00063	89 9d 10 ff ff
	ff		 mov	 DWORD PTR tv804[ebp], ebx
  00069	89 85 14 ff ff
	ff		 mov	 DWORD PTR tv803[ebp], eax
  0006f	c7 85 0c ff ff
	ff 05 00 00 00	 mov	 DWORD PTR tv785[ebp], 5
  00079	0f 1f 80 00 00
	00 00		 npad	 7
$LL4@SendArcaBa:

; 300  : 	{
; 301  : 		pMsg.m_stObeliskInfo[i].iGroupNumber	= this->m_stObeliskInfo[i].m_iGroupNumber;

  00080	8b 78 fc	 mov	 edi, DWORD PTR [eax-4]

; 302  : 		pMsg.m_stObeliskInfo[i].iAttrKind		= this->m_stObeliskInfo[i].m_iAttrKind;

  00083	8b 30		 mov	 esi, DWORD PTR [eax]

; 303  : 		pMsg.m_stObeliskInfo[i].iMapIndex		= this->m_stObeliskInfo[i].m_iMapIndex;

  00085	8b 50 0c	 mov	 edx, DWORD PTR [eax+12]

; 304  : 		pMsg.m_stObeliskInfo[i].iPosX			= this->m_stObeliskInfo[i].m_iPosX;

  00088	8b 48 10	 mov	 ecx, DWORD PTR [eax+16]

; 305  : 		pMsg.m_stObeliskInfo[i].iPosY			= this->m_stObeliskInfo[i].m_iPosY;

  0008b	8b 40 14	 mov	 eax, DWORD PTR [eax+20]

; 306  : 		// ----
; 307  : 		LogAdd("Send ObeliskInfo iGroupNumber %d iAttr %d iMapIndex %d iPosX %d iPosY %d",

  0008e	50		 push	 eax
  0008f	51		 push	 ecx
  00090	52		 push	 edx
  00091	56		 push	 esi
  00092	57		 push	 edi
  00093	68 00 00 00 00	 push	 OFFSET ??_C@_0EJ@OPKHJAF@Send?5ObeliskInfo?5iGroupNumber?5?$CFd@
  00098	89 7b fc	 mov	 DWORD PTR [ebx-4], edi
  0009b	89 33		 mov	 DWORD PTR [ebx], esi
  0009d	89 53 04	 mov	 DWORD PTR [ebx+4], edx
  000a0	89 4b 08	 mov	 DWORD PTR [ebx+8], ecx
  000a3	89 43 0c	 mov	 DWORD PTR [ebx+12], eax
  000a6	ff 15 00 00 00
	00		 call	 DWORD PTR ?LogAdd@@3P6AXPADZZA ; LogAdd
  000ac	8b b5 14 ff ff
	ff		 mov	 esi, DWORD PTR tv803[ebp]
  000b2	8d 7b 14	 lea	 edi, DWORD PTR [ebx+20]
  000b5	83 c4 18	 add	 esp, 24			; 00000018H
  000b8	bb 03 00 00 00	 mov	 ebx, 3
  000bd	83 c6 30	 add	 esi, 48			; 00000030H
$LL7@SendArcaBa:

; 308  : 			pMsg.m_stObeliskInfo[i].iGroupNumber, pMsg.m_stObeliskInfo[i].iAttrKind, 
; 309  : 			pMsg.m_stObeliskInfo[i].iMapIndex, pMsg.m_stObeliskInfo[i].iPosX, pMsg.m_stObeliskInfo[i].iPosY);
; 310  : 		// ----
; 311  : 		for( int j = 0; j < AB_MAX_AURAPOS; j++ )
; 312  : 		{
; 313  : 			pMsg.m_stObeliskInfo[i].m_StAuraInfo[j].m_iAuraPosX = this->m_stObeliskInfo[i].m_stAuraInfo[j].m_iAuraPosX;
; 314  : 			pMsg.m_stObeliskInfo[i].m_StAuraInfo[j].m_iAuraPosY = this->m_stObeliskInfo[i].m_stAuraInfo[j].m_iAuraPosY;

  000c0	8b 06		 mov	 eax, DWORD PTR [esi]
  000c2	8b 4e fc	 mov	 ecx, DWORD PTR [esi-4]

; 315  : 			// ----
; 316  : 			 LogAdd("Send ObeliskInfo iGroupNumber m_iAuraPosX %d m_iAuraPosY %d",

  000c5	50		 push	 eax
  000c6	51		 push	 ecx
  000c7	68 00 00 00 00	 push	 OFFSET ??_C@_0DM@IJLFDMAD@Send?5ObeliskInfo?5iGroupNumber?5m_@
  000cc	89 4f fc	 mov	 DWORD PTR [edi-4], ecx
  000cf	89 07		 mov	 DWORD PTR [edi], eax
  000d1	ff 15 00 00 00
	00		 call	 DWORD PTR ?LogAdd@@3P6AXPADZZA ; LogAdd
  000d7	83 c4 0c	 add	 esp, 12			; 0000000cH
  000da	8d 76 10	 lea	 esi, DWORD PTR [esi+16]
  000dd	8d 7f 08	 lea	 edi, DWORD PTR [edi+8]
  000e0	83 eb 01	 sub	 ebx, 1
  000e3	75 db		 jne	 SHORT $LL7@SendArcaBa

; 298  : 	// ----
; 299  : 	for( int i = 0; i < AB_MAX_BATTLEPOS; i++ )

  000e5	8b 9d 10 ff ff
	ff		 mov	 ebx, DWORD PTR tv804[ebp]
  000eb	8b 85 14 ff ff
	ff		 mov	 eax, DWORD PTR tv803[ebp]
  000f1	83 c3 2c	 add	 ebx, 44			; 0000002cH
  000f4	83 c0 58	 add	 eax, 88			; 00000058H
  000f7	89 9d 10 ff ff
	ff		 mov	 DWORD PTR tv804[ebp], ebx
  000fd	83 ad 0c ff ff
	ff 01		 sub	 DWORD PTR tv785[ebp], 1
  00104	89 85 14 ff ff
	ff		 mov	 DWORD PTR tv803[ebp], eax
  0010a	0f 85 70 ff ff
	ff		 jne	 $LL4@SendArcaBa

; 317  : 				pMsg.m_stObeliskInfo[i].m_StAuraInfo[j].m_iAuraPosX,
; 318  : 				pMsg.m_stObeliskInfo[i].m_StAuraInfo[j].m_iAuraPosY);
; 319  : 		}
; 320  : 	}
; 321  : 	// ----
; 322  : 	LogAdd("[ArcaBattle] Send Play Data");

  00110	68 00 00 00 00	 push	 OFFSET ??_C@_0BM@DGJFADNJ@?$FLArcaBattle?$FN?5Send?5Play?5Data?$AA@
  00115	ff 15 00 00 00
	00		 call	 DWORD PTR ?LogAdd@@3P6AXPADZZA ; LogAdd

; 323  :     DataSend(obj.m_Index, (LPBYTE)&pMsg, pMsg.h.size);

  0011b	0f b6 85 19 ff
	ff ff		 movzx	 eax, BYTE PTR _pMsg$[ebp+1]
  00122	50		 push	 eax
  00123	8d 85 18 ff ff
	ff		 lea	 eax, DWORD PTR _pMsg$[ebp]
  00129	50		 push	 eax
  0012a	8b 85 08 ff ff
	ff		 mov	 eax, DWORD PTR _obj$GSCopy$1$[ebp]
  00130	ff 30		 push	 DWORD PTR [eax]
  00132	e8 00 00 00 00	 call	 ?DataSend@@YAHHPAEK@Z	; DataSend
  00137	83 c4 10	 add	 esp, 16			; 00000010H
  0013a	5f		 pop	 edi
  0013b	5b		 pop	 ebx
$LN1@SendArcaBa:

; 324  : }

  0013c	8b 4d fc	 mov	 ecx, DWORD PTR __$ArrayPad$[ebp]
  0013f	33 cd		 xor	 ecx, ebp
  00141	5e		 pop	 esi
  00142	e8 00 00 00 00	 call	 @__security_check_cookie@4
  00147	8b e5		 mov	 esp, ebp
  00149	5d		 pop	 ebp
  0014a	c2 08 00	 ret	 8
?SendArcaBattlePlayInfo@CArcaBattle@@QAEXAAUOBJECTSTRUCT@@G@Z ENDP ; CArcaBattle::SendArcaBattlePlayInfo
_TEXT	ENDS
; Function compile flags: /Ogtp
; File c:\users\michel\desktop\source\gameserver\source\arcabattle.cpp
;	COMDAT ?DGAnsArcaBattleJoinMemberUnderReq@CArcaBattle@@QAEXPAU_tagPMSG_ANS_AB_JOIN_CANCEL_DS@@@Z
_TEXT	SEGMENT
_iGuildCnt$1$ = -4					; size = 4
_pMsg$ = 8						; size = 4
_lpMsg$ = 8						; size = 4
?DGAnsArcaBattleJoinMemberUnderReq@CArcaBattle@@QAEXPAU_tagPMSG_ANS_AB_JOIN_CANCEL_DS@@@Z PROC ; CArcaBattle::DGAnsArcaBattleJoinMemberUnderReq, COMDAT
; _this$ = ecx

; 2732 : {

  00000	55		 push	 ebp
  00001	8b ec		 mov	 ebp, esp
  00003	51		 push	 ecx
  00004	53		 push	 ebx

; 2733 : 	_tagPMSG_SEND_AB_JOIN_CANCEL pMsg;
; 2734 : 	int iGuildCnt = lpMsg->btGuildCnt;

  00005	8b 5d 08	 mov	 ebx, DWORD PTR _lpMsg$[ebp]
  00008	56		 push	 esi

; 2735 : 	// ----
; 2736 : 	pMsg.h.c		= 0xC1;

  00009	c7 45 08 c1 04
	f8 40		 mov	 DWORD PTR _pMsg$[ebp], 1089995969 ; 40f804c1H
  00010	0f b6 73 04	 movzx	 esi, BYTE PTR [ebx+4]
  00014	89 75 fc	 mov	 DWORD PTR _iGuildCnt$1$[ebp], esi

; 2737 : 	pMsg.h.size		= sizeof(_tagPMSG_SEND_AB_JOIN_CANCEL);
; 2738 : 	pMsg.h.headcode = 0xF8;
; 2739 : 	pMsg.h.subcode	= 0x40;
; 2740 : 	// ----
; 2741 : 	for( int i = 0; i < iGuildCnt; i++ )

  00017	85 f6		 test	 esi, esi
  00019	7e 60		 jle	 SHORT $LN3@DGAnsArcaB

; 2733 : 	_tagPMSG_SEND_AB_JOIN_CANCEL pMsg;
; 2734 : 	int iGuildCnt = lpMsg->btGuildCnt;

  0001b	83 c3 05	 add	 ebx, 5
  0001e	57		 push	 edi
  0001f	90		 npad	 1
$LL4@DGAnsArcaB:

; 2742 : 	{
; 2743 : #if( AB_DEBUG_TRACE == 1 )
; 2744 : 		TRACE_LOG("Cancel Guild [%s]", lpMsg->CancelGuildNames[i].szGuildNames);
; 2745 : #endif
; 2746 : 		// ----
; 2747 : 		_GUILD_INFO_STRUCT * lpGuild = Guild.SearchGuild(lpMsg->CancelGuildNames[i].szGuildNames);

  00020	53		 push	 ebx
  00021	b9 00 00 00 00	 mov	 ecx, OFFSET ?Guild@@3VCGuildClass@@A ; Guild
  00026	e8 00 00 00 00	 call	 ?SearchGuild@CGuildClass@@QAEPAU_GUILD_INFO_STRUCT@@PAD@Z ; CGuildClass::SearchGuild

; 2748 : 		// ----
; 2749 : 		if( lpGuild != NULL )

  0002b	85 c0		 test	 eax, eax
  0002d	74 40		 je	 SHORT $LN2@DGAnsArcaB

; 2750 : 		{
; 2751 : 			for( int n = 0; n < MAX_USER_GUILD; n++ )

  0002f	33 f6		 xor	 esi, esi
  00031	8d b8 a0 03 00
	00		 lea	 edi, DWORD PTR [eax+928]
$LL7@DGAnsArcaB:

; 2752 : 			{
; 2753 : 				if( gObjIsConnected(n) == 1 )

  00037	56		 push	 esi
  00038	e8 00 00 00 00	 call	 ?gObjIsConnected@@YAHH@Z ; gObjIsConnected
  0003d	83 c4 04	 add	 esp, 4
  00040	83 f8 01	 cmp	 eax, 1
  00043	75 1e		 jne	 SHORT $LN5@DGAnsArcaB

; 2754 : 				{
; 2755 : 					int aIndex = lpGuild->Index[n];
; 2756 : 					DataSend(aIndex, (LPBYTE)&pMsg, sizeof(_tagPMSG_SEND_AB_JOIN_CANCEL));

  00045	6a 04		 push	 4
  00047	8d 45 08	 lea	 eax, DWORD PTR _pMsg$[ebp]
  0004a	50		 push	 eax
  0004b	0f bf 07	 movsx	 eax, WORD PTR [edi]
  0004e	50		 push	 eax
  0004f	e8 00 00 00 00	 call	 ?DataSend@@YAHHPAEK@Z	; DataSend

; 2757 : 					LogAddTD("[ArcaBattle] Canceled With Less Than Guild Member - GuildName[%s]", lpMsg->CancelGuildNames[i].szGuildNames);

  00054	53		 push	 ebx
  00055	68 00 00 00 00	 push	 OFFSET ??_C@_0EC@IOACBABL@?$FLArcaBattle?$FN?5Canceled?5With?5Less?5@
  0005a	ff 15 00 00 00
	00		 call	 DWORD PTR ?LogAddTD@@3P6AXPADZZA ; LogAddTD
  00060	83 c4 14	 add	 esp, 20			; 00000014H
$LN5@DGAnsArcaB:

; 2750 : 		{
; 2751 : 			for( int n = 0; n < MAX_USER_GUILD; n++ )

  00063	46		 inc	 esi
  00064	83 c7 02	 add	 edi, 2
  00067	83 fe 50	 cmp	 esi, 80			; 00000050H
  0006a	7c cb		 jl	 SHORT $LL7@DGAnsArcaB
  0006c	8b 75 fc	 mov	 esi, DWORD PTR _iGuildCnt$1$[ebp]
$LN2@DGAnsArcaB:

; 2737 : 	pMsg.h.size		= sizeof(_tagPMSG_SEND_AB_JOIN_CANCEL);
; 2738 : 	pMsg.h.headcode = 0xF8;
; 2739 : 	pMsg.h.subcode	= 0x40;
; 2740 : 	// ----
; 2741 : 	for( int i = 0; i < iGuildCnt; i++ )

  0006f	83 c3 09	 add	 ebx, 9
  00072	83 ee 01	 sub	 esi, 1
  00075	89 75 fc	 mov	 DWORD PTR _iGuildCnt$1$[ebp], esi
  00078	75 a6		 jne	 SHORT $LL4@DGAnsArcaB
  0007a	5f		 pop	 edi
$LN3@DGAnsArcaB:
  0007b	5e		 pop	 esi
  0007c	5b		 pop	 ebx

; 2758 : 				}
; 2759 : 			}
; 2760 : 		}
; 2761 : 	}
; 2762 : }

  0007d	8b e5		 mov	 esp, ebp
  0007f	5d		 pop	 ebp
  00080	c2 04 00	 ret	 4
?DGAnsArcaBattleJoinMemberUnderReq@CArcaBattle@@QAEXPAU_tagPMSG_ANS_AB_JOIN_CANCEL_DS@@@Z ENDP ; CArcaBattle::DGAnsArcaBattleJoinMemberUnderReq
_TEXT	ENDS
; Function compile flags: /Ogtp
; File c:\users\michel\desktop\source\gameserver\source\arcabattle.cpp
; File c:\users\michel\desktop\source\gameserver\source\mapservermanager.h
; File c:\users\michel\desktop\source\gameserver\source\arcabattle.cpp
;	COMDAT ?GDReqArcaBattleJoinMemberUnderReq@CArcaBattle@@QAEXXZ
_TEXT	SEGMENT
_pMsg$ = -8						; size = 8
?GDReqArcaBattleJoinMemberUnderReq@CArcaBattle@@QAEXXZ PROC ; CArcaBattle::GDReqArcaBattleJoinMemberUnderReq, COMDAT
; _this$ = ecx

; 2716 : {

  00000	55		 push	 ebp
  00001	8b ec		 mov	 ebp, esp
  00003	83 ec 08	 sub	 esp, 8

; 2717 : 	_tagPMSG_REQ_AB_JOIN_CANCEL_DS pMsg;
; 2718 : 	// ----
; 2719 : 	pMsg.h.c		= 0xC1;

  00006	c7 45 f8 c1 08
	f8 43		 mov	 DWORD PTR _pMsg$[ebp], 1140328641 ; 43f808c1H

; 2720 : 	pMsg.h.size		= sizeof(_tagPMSG_REQ_AB_JOIN_CANCEL_DS);
; 2721 : 	pMsg.h.headcode = 0xF8;
; 2722 : 	pMsg.h.subcode	= 0x43;
; 2723 : 	pMsg.btMinGuildMemNum = this->GetJoinMemberCnt();

  0000d	e8 00 00 00 00	 call	 ?GetJoinMemberCnt@CArcaBattle@@QAEHXZ ; CArcaBattle::GetJoinMemberCnt
  00012	88 45 fc	 mov	 BYTE PTR _pMsg$[ebp+4], al
; File c:\users\michel\desktop\source\gameserver\source\mapservermanager.h

; 55   : 		if ( this->m_lpThisMapSvrData != NULL )

  00015	a1 f8 6a 01 00	 mov	 eax, DWORD PTR ?g_MapServerManager@@3VCMapServerManager@@A+92920
  0001a	85 c0		 test	 eax, eax
  0001c	74 06		 je	 SHORT $LN4@GDReqArcaB

; 56   : 		{
; 57   : 			return m_lpThisMapSvrData->m_btMAPSVR_GROUP;

  0001e	0f b6 40 08	 movzx	 eax, BYTE PTR [eax+8]
  00022	eb 03		 jmp	 SHORT $LN3@GDReqArcaB
$LN4@GDReqArcaB:

; 58   : 		}
; 59   : 		return -1;

  00024	83 c8 ff	 or	 eax, -1
$LN3@GDReqArcaB:
; File c:\users\michel\desktop\source\gameserver\source\arcabattle.cpp

; 2724 : 	pMsg.wMapSvrNum = g_MapServerManager.GetMapSvrGroup();

  00027	66 89 45 fe	 mov	 WORD PTR _pMsg$[ebp+6], ax

; 2725 : 	// ----
; 2726 : 	cDBSMng.Send((PCHAR)&pMsg, pMsg.h.size);

  0002b	b9 00 00 00 00	 mov	 ecx, OFFSET ?cDBSMng@@3VDBSockMng@@A ; cDBSMng
  00030	6a 08		 push	 8
  00032	8d 45 f8	 lea	 eax, DWORD PTR _pMsg$[ebp]
  00035	50		 push	 eax
  00036	e8 00 00 00 00	 call	 ?Send@DBSockMng@@QAEHPADH@Z ; DBSockMng::Send

; 2727 : }

  0003b	8b e5		 mov	 esp, ebp
  0003d	5d		 pop	 ebp
  0003e	c3		 ret	 0
?GDReqArcaBattleJoinMemberUnderReq@CArcaBattle@@QAEXXZ ENDP ; CArcaBattle::GDReqArcaBattleJoinMemberUnderReq
_TEXT	ENDS
; Function compile flags: /Ogtp
; File c:\users\michel\desktop\source\gameserver\source\arcabattle.cpp
; File c:\users\michel\desktop\source\gameserver\source\arcabattle.h
; File c:\users\michel\desktop\source\gameserver\source\arcabattle.cpp
;	COMDAT ?RemoveRewardBuff@CArcaBattle@@QAEXPAD@Z
_TEXT	SEGMENT
_this$1$ = -4						; size = 4
_szGuildName$ = 8					; size = 4
?RemoveRewardBuff@CArcaBattle@@QAEXPAD@Z PROC		; CArcaBattle::RemoveRewardBuff, COMDAT
; _this$ = ecx

; 444  : {

  00000	55		 push	 ebp
  00001	8b ec		 mov	 ebp, esp
  00003	51		 push	 ecx
  00004	8b c1		 mov	 eax, ecx
  00006	57		 push	 edi

; 447  : 	for( int i = 0; i < this->m_iWinGuildCnt; i++ )

  00007	33 ff		 xor	 edi, edi
  00009	89 45 fc	 mov	 DWORD PTR _this$1$[ebp], eax
  0000c	39 b8 10 34 00
	00		 cmp	 DWORD PTR [eax+13328], edi
  00012	7e 7d		 jle	 SHORT $LN3@RemoveRewa
  00014	53		 push	 ebx
  00015	56		 push	 esi
  00016	8d b0 bc 33 00
	00		 lea	 esi, DWORD PTR [eax+13244]
  0001c	0f 1f 40 00	 npad	 4
$LL4@RemoveRewa:

; 448  : 	{
; 449  : 		if( !strcmp(this->m_stABWinGuildInfo[i].szGuildName, szGuildName) )

  00020	8b 45 08	 mov	 eax, DWORD PTR _szGuildName$[ebp]
  00023	8d 5e f0	 lea	 ebx, DWORD PTR [esi-16]
  00026	8b cb		 mov	 ecx, ebx
$LL13@RemoveRewa:
  00028	8a 11		 mov	 dl, BYTE PTR [ecx]
  0002a	3a 10		 cmp	 dl, BYTE PTR [eax]
  0002c	75 1a		 jne	 SHORT $LN14@RemoveRewa
  0002e	84 d2		 test	 dl, dl
  00030	74 12		 je	 SHORT $LN15@RemoveRewa
  00032	8a 51 01	 mov	 dl, BYTE PTR [ecx+1]
  00035	3a 50 01	 cmp	 dl, BYTE PTR [eax+1]
  00038	75 0e		 jne	 SHORT $LN14@RemoveRewa
  0003a	83 c1 02	 add	 ecx, 2
  0003d	83 c0 02	 add	 eax, 2
  00040	84 d2		 test	 dl, dl
  00042	75 e4		 jne	 SHORT $LL13@RemoveRewa
$LN15@RemoveRewa:
  00044	33 c0		 xor	 eax, eax
  00046	eb 05		 jmp	 SHORT $LN16@RemoveRewa
$LN14@RemoveRewa:
  00048	1b c0		 sbb	 eax, eax
  0004a	83 c8 01	 or	 eax, 1
$LN16@RemoveRewa:
  0004d	85 c0		 test	 eax, eax
  0004f	75 2f		 jne	 SHORT $LN2@RemoveRewa

; 450  : 		{
; 451  : 			wBuffIndex = this->GetObeliskAttrToRewardBuffIndex(this->m_stABWinGuildInfo[i].wOccupyObelisk);

  00051	0f b7 06	 movzx	 eax, WORD PTR [esi]
  00054	8b 4d fc	 mov	 ecx, DWORD PTR _this$1$[ebp]
  00057	50		 push	 eax
  00058	e8 00 00 00 00	 call	 ?GetObeliskAttrToRewardBuffIndex@CArcaBattle@@QAEGH@Z ; CArcaBattle::GetObeliskAttrToRewardBuffIndex

; 452  : 			this->RemoveGuildBuff(this->m_stABWinGuildInfo[i].szGuildName, wBuffIndex);

  0005d	8b 4d fc	 mov	 ecx, DWORD PTR _this$1$[ebp]
  00060	0f b7 c0	 movzx	 eax, ax
  00063	50		 push	 eax
  00064	53		 push	 ebx
  00065	e8 00 00 00 00	 call	 ?RemoveGuildBuff@CArcaBattle@@QAEXPADG@Z ; CArcaBattle::RemoveGuildBuff
  0006a	0f 57 c0	 xorps	 xmm0, xmm0
; File c:\users\michel\desktop\source\gameserver\source\arcabattle.h

; 137  : 		this->wOccupyObelisk	= 0;

  0006d	33 c0		 xor	 eax, eax
  0006f	66 0f d6 03	 movq	 QWORD PTR [ebx], xmm0
  00073	c6 43 08 00	 mov	 BYTE PTR [ebx+8], 0
  00077	c7 46 fc 00 00
	00 00		 mov	 DWORD PTR [esi-4], 0
  0007e	89 06		 mov	 DWORD PTR [esi], eax
$LN2@RemoveRewa:
; File c:\users\michel\desktop\source\gameserver\source\arcabattle.cpp

; 447  : 	for( int i = 0; i < this->m_iWinGuildCnt; i++ )

  00080	8b 45 fc	 mov	 eax, DWORD PTR _this$1$[ebp]
  00083	47		 inc	 edi
  00084	83 c6 14	 add	 esi, 20			; 00000014H
  00087	3b b8 10 34 00
	00		 cmp	 edi, DWORD PTR [eax+13328]
  0008d	7c 91		 jl	 SHORT $LL4@RemoveRewa
  0008f	5e		 pop	 esi
  00090	5b		 pop	 ebx
$LN3@RemoveRewa:
  00091	5f		 pop	 edi

; 453  : 			this->m_stABWinGuildInfo[i].Clear();
; 454  : 		}
; 455  : 	}
; 456  : }

  00092	8b e5		 mov	 esp, ebp
  00094	5d		 pop	 ebp
  00095	c2 04 00	 ret	 4
?RemoveRewardBuff@CArcaBattle@@QAEXPAD@Z ENDP		; CArcaBattle::RemoveRewardBuff
_TEXT	ENDS
; Function compile flags: /Ogtp
; File c:\users\michel\desktop\source\gameserver\source\arcabattle.cpp
; File c:\users\michel\desktop\source\gameserver\source\arcabattle.h
; File c:\users\michel\desktop\source\gameserver\source\arcabattle.cpp
;	COMDAT ?DGAnsRemoveRewardBuff@CArcaBattle@@QAEXPAU_tagPMSG_ANS_REMOVE_GUILD_BUFF_DS@@@Z
_TEXT	SEGMENT
_this$1$ = -4						; size = 4
tv298 = 8						; size = 4
_lpMsg$ = 8						; size = 4
?DGAnsRemoveRewardBuff@CArcaBattle@@QAEXPAU_tagPMSG_ANS_REMOVE_GUILD_BUFF_DS@@@Z PROC ; CArcaBattle::DGAnsRemoveRewardBuff, COMDAT
; _this$ = ecx

; 427  : {

  00000	55		 push	 ebp
  00001	8b ec		 mov	 ebp, esp
  00003	51		 push	 ecx
  00004	57		 push	 edi

; 430  : 	for( int i = 0; i < this->m_iWinGuildCnt; i++ )

  00005	33 ff		 xor	 edi, edi
  00007	89 4d fc	 mov	 DWORD PTR _this$1$[ebp], ecx
  0000a	39 b9 10 34 00
	00		 cmp	 DWORD PTR [ecx+13328], edi
  00010	0f 8e 86 00 00
	00		 jle	 $LN3@DGAnsRemov
  00016	8b 45 08	 mov	 eax, DWORD PTR _lpMsg$[ebp]
  00019	53		 push	 ebx
  0001a	83 c0 04	 add	 eax, 4
  0001d	56		 push	 esi
  0001e	89 45 08	 mov	 DWORD PTR tv298[ebp], eax
  00021	8d b1 bc 33 00
	00		 lea	 esi, DWORD PTR [ecx+13244]
$LL4@DGAnsRemov:

; 431  : 	{
; 432  : 		if( !strcmp(this->m_stABWinGuildInfo[i].szGuildName, lpMsg->szGuildName) )

  00027	8d 5e f0	 lea	 ebx, DWORD PTR [esi-16]
  0002a	8b cb		 mov	 ecx, ebx
  0002c	0f 1f 40 00	 npad	 4
$LL13@DGAnsRemov:
  00030	8a 11		 mov	 dl, BYTE PTR [ecx]
  00032	3a 10		 cmp	 dl, BYTE PTR [eax]
  00034	75 1a		 jne	 SHORT $LN14@DGAnsRemov
  00036	84 d2		 test	 dl, dl
  00038	74 12		 je	 SHORT $LN15@DGAnsRemov
  0003a	8a 51 01	 mov	 dl, BYTE PTR [ecx+1]
  0003d	3a 50 01	 cmp	 dl, BYTE PTR [eax+1]
  00040	75 0e		 jne	 SHORT $LN14@DGAnsRemov
  00042	83 c1 02	 add	 ecx, 2
  00045	83 c0 02	 add	 eax, 2
  00048	84 d2		 test	 dl, dl
  0004a	75 e4		 jne	 SHORT $LL13@DGAnsRemov
$LN15@DGAnsRemov:
  0004c	33 c0		 xor	 eax, eax
  0004e	eb 05		 jmp	 SHORT $LN16@DGAnsRemov
$LN14@DGAnsRemov:
  00050	1b c0		 sbb	 eax, eax
  00052	83 c8 01	 or	 eax, 1
$LN16@DGAnsRemov:
  00055	85 c0		 test	 eax, eax
  00057	75 2f		 jne	 SHORT $LN2@DGAnsRemov

; 433  : 		{
; 434  : 			wBuffIndex = this->GetObeliskAttrToRewardBuffIndex(this->m_stABWinGuildInfo[i].wOccupyObelisk);

  00059	0f b7 06	 movzx	 eax, WORD PTR [esi]
  0005c	8b 4d fc	 mov	 ecx, DWORD PTR _this$1$[ebp]
  0005f	50		 push	 eax
  00060	e8 00 00 00 00	 call	 ?GetObeliskAttrToRewardBuffIndex@CArcaBattle@@QAEGH@Z ; CArcaBattle::GetObeliskAttrToRewardBuffIndex

; 435  : 			this->RemoveGuildBuff(this->m_stABWinGuildInfo[i].szGuildName, wBuffIndex);

  00065	8b 4d fc	 mov	 ecx, DWORD PTR _this$1$[ebp]
  00068	0f b7 c0	 movzx	 eax, ax
  0006b	50		 push	 eax
  0006c	53		 push	 ebx
  0006d	e8 00 00 00 00	 call	 ?RemoveGuildBuff@CArcaBattle@@QAEXPADG@Z ; CArcaBattle::RemoveGuildBuff
  00072	0f 57 c0	 xorps	 xmm0, xmm0
; File c:\users\michel\desktop\source\gameserver\source\arcabattle.h

; 137  : 		this->wOccupyObelisk	= 0;

  00075	33 c0		 xor	 eax, eax
  00077	66 0f d6 03	 movq	 QWORD PTR [ebx], xmm0
  0007b	c6 43 08 00	 mov	 BYTE PTR [ebx+8], 0
  0007f	c7 46 fc 00 00
	00 00		 mov	 DWORD PTR [esi-4], 0
  00086	89 06		 mov	 DWORD PTR [esi], eax
$LN2@DGAnsRemov:
; File c:\users\michel\desktop\source\gameserver\source\arcabattle.cpp

; 430  : 	for( int i = 0; i < this->m_iWinGuildCnt; i++ )

  00088	8b 45 fc	 mov	 eax, DWORD PTR _this$1$[ebp]
  0008b	47		 inc	 edi
  0008c	83 c6 14	 add	 esi, 20			; 00000014H
  0008f	3b b8 10 34 00
	00		 cmp	 edi, DWORD PTR [eax+13328]
  00095	8b 45 08	 mov	 eax, DWORD PTR tv298[ebp]
  00098	7c 8d		 jl	 SHORT $LL4@DGAnsRemov
  0009a	5e		 pop	 esi
  0009b	5b		 pop	 ebx
$LN3@DGAnsRemov:
  0009c	5f		 pop	 edi

; 436  : 			this->m_stABWinGuildInfo[i].Clear();
; 437  : 		}
; 438  : 	}
; 439  : }

  0009d	8b e5		 mov	 esp, ebp
  0009f	5d		 pop	 ebp
  000a0	c2 04 00	 ret	 4
?DGAnsRemoveRewardBuff@CArcaBattle@@QAEXPAU_tagPMSG_ANS_REMOVE_GUILD_BUFF_DS@@@Z ENDP ; CArcaBattle::DGAnsRemoveRewardBuff
_TEXT	ENDS
; Function compile flags: /Ogtp
; File c:\users\michel\desktop\source\gameserver\source\arcabattle.cpp
;	COMDAT ?ReqRemoveRewardGuildBuff@CArcaBattle@@QAEXPAD@Z
_TEXT	SEGMENT
_szGuildName$ = 8					; size = 4
?ReqRemoveRewardGuildBuff@CArcaBattle@@QAEXPAD@Z PROC	; CArcaBattle::ReqRemoveRewardGuildBuff, COMDAT
; _this$ = ecx

; 390  : 	WORD wBuffIndex = 0;
; 391  : 	// ----
; 392  : 	for( int i = 0; i < this->m_iWinGuildCnt; i++ )
; 393  : 	{
; 394  : 		if( !strcmp(this->m_stABWinGuildInfo[i].szGuildName, szGuildName) )
; 395  : 		{
; 396  : 			wBuffIndex = this->GetObeliskAttrToRewardBuffIndex(this->m_stABWinGuildInfo[i].wOccupyObelisk);
; 397  : 		}
; 398  : 	}
; 399  : 	// ----
; 400  : //	g_BuffEffect.RequestGuildPeriodBuffDelete(&wBuffIndex, 1);
; 401  : 	LogAddTD("[ArcaBAttle] Request ExDB Delete Reward Guild Buff");

  00000	68 00 00 00 00	 push	 OFFSET ??_C@_0DD@OCCKNDI@?$FLArcaBAttle?$FN?5Request?5ExDB?5Delete@
  00005	ff 15 00 00 00
	00		 call	 DWORD PTR ?LogAddTD@@3P6AXPADZZA ; LogAddTD
  0000b	59		 pop	 ecx

; 402  : }

  0000c	c2 04 00	 ret	 4
?ReqRemoveRewardGuildBuff@CArcaBattle@@QAEXPAD@Z ENDP	; CArcaBattle::ReqRemoveRewardGuildBuff
_TEXT	ENDS
; Function compile flags: /Ogtp
; File c:\users\michel\desktop\source\gameserver\source\arcabattle.cpp
;	COMDAT ?ReqGuildMemberDelBuffDel@CArcaBattle@@QAEXPAUOBJECTSTRUCT@@PAD@Z
_TEXT	SEGMENT
tv210 = -8						; size = 4
_this$1$ = -4						; size = 4
_lpObj$ = 8						; size = 4
_szGuildName$ = 12					; size = 4
?ReqGuildMemberDelBuffDel@CArcaBattle@@QAEXPAUOBJECTSTRUCT@@PAD@Z PROC ; CArcaBattle::ReqGuildMemberDelBuffDel, COMDAT
; _this$ = ecx

; 502  : {

  00000	55		 push	 ebp
  00001	8b ec		 mov	 ebp, esp
  00003	83 ec 08	 sub	 esp, 8
  00006	53		 push	 ebx

; 503  : 	for( int i = 0; i < AB_MAX_BATTLEPOS; i++ )

  00007	8b 5d 08	 mov	 ebx, DWORD PTR _lpObj$[ebp]
  0000a	56		 push	 esi
  0000b	8b f1		 mov	 esi, ecx
  0000d	c7 45 f8 05 00
	00 00		 mov	 DWORD PTR tv210[ebp], 5
  00014	57		 push	 edi
  00015	89 75 fc	 mov	 DWORD PTR _this$1$[ebp], esi
  00018	8d be bc 33 00
	00		 lea	 edi, DWORD PTR [esi+13244]
  0001e	66 90		 npad	 2
$LL4@ReqGuildMe:

; 504  : 	{
; 505  : 		if( !strcmp(this->m_stABWinGuildInfo[i].szGuildName, szGuildName) )

  00020	8b 45 0c	 mov	 eax, DWORD PTR _szGuildName$[ebp]
  00023	8d 4f f0	 lea	 ecx, DWORD PTR [edi-16]
$LL12@ReqGuildMe:
  00026	8a 11		 mov	 dl, BYTE PTR [ecx]
  00028	3a 10		 cmp	 dl, BYTE PTR [eax]
  0002a	75 1a		 jne	 SHORT $LN13@ReqGuildMe
  0002c	84 d2		 test	 dl, dl
  0002e	74 12		 je	 SHORT $LN14@ReqGuildMe
  00030	8a 51 01	 mov	 dl, BYTE PTR [ecx+1]
  00033	3a 50 01	 cmp	 dl, BYTE PTR [eax+1]
  00036	75 0e		 jne	 SHORT $LN13@ReqGuildMe
  00038	83 c1 02	 add	 ecx, 2
  0003b	83 c0 02	 add	 eax, 2
  0003e	84 d2		 test	 dl, dl
  00040	75 e4		 jne	 SHORT $LL12@ReqGuildMe
$LN14@ReqGuildMe:
  00042	33 c0		 xor	 eax, eax
  00044	eb 05		 jmp	 SHORT $LN15@ReqGuildMe
$LN13@ReqGuildMe:
  00046	1b c0		 sbb	 eax, eax
  00048	83 c8 01	 or	 eax, 1
$LN15@ReqGuildMe:
  0004b	85 c0		 test	 eax, eax
  0004d	75 30		 jne	 SHORT $LN2@ReqGuildMe

; 506  : 		{
; 507  : 			WORD wBuffIndex = this->GetObeliskAttrToRewardBuffIndex(this->m_stABWinGuildInfo[i].wOccupyObelisk);

  0004f	0f b7 07	 movzx	 eax, WORD PTR [edi]
  00052	8b ce		 mov	 ecx, esi
  00054	50		 push	 eax
  00055	e8 00 00 00 00	 call	 ?GetObeliskAttrToRewardBuffIndex@CArcaBattle@@QAEGH@Z ; CArcaBattle::GetObeliskAttrToRewardBuffIndex
  0005a	0f b7 f0	 movzx	 esi, ax

; 508  : 			// ----
; 509  : 			if( gObjCheckUsedBuffEffect(lpObj, wBuffIndex) == true )

  0005d	56		 push	 esi
  0005e	53		 push	 ebx
  0005f	e8 00 00 00 00	 call	 ?gObjCheckUsedBuffEffect@@YA_NPAUOBJECTSTRUCT@@H@Z ; gObjCheckUsedBuffEffect
  00064	83 c4 08	 add	 esp, 8
  00067	3c 01		 cmp	 al, 1
  00069	75 11		 jne	 SHORT $LN16@ReqGuildMe

; 510  : 			{
; 511  : //				g_BuffEffect.RequestPeriodBuffDelete(lpObj, wBuffIndex);
; 512  : 				gObjRemoveBuffEffect(lpObj, wBuffIndex);

  0006b	56		 push	 esi
  0006c	53		 push	 ebx
  0006d	e8 00 00 00 00	 call	 ?gObjRemoveBuffEffect@@YA_NPAUOBJECTSTRUCT@@H@Z ; gObjRemoveBuffEffect

; 513  : 				gObjCalCharacter(lpObj->m_Index);

  00072	ff 33		 push	 DWORD PTR [ebx]
  00074	e8 00 00 00 00	 call	 ?gObjCalCharacter@@YAXH@Z ; gObjCalCharacter
  00079	83 c4 0c	 add	 esp, 12			; 0000000cH
$LN16@ReqGuildMe:
  0007c	8b 75 fc	 mov	 esi, DWORD PTR _this$1$[ebp]
$LN2@ReqGuildMe:

; 503  : 	for( int i = 0; i < AB_MAX_BATTLEPOS; i++ )

  0007f	83 c7 14	 add	 edi, 20			; 00000014H
  00082	83 6d f8 01	 sub	 DWORD PTR tv210[ebp], 1
  00086	75 98		 jne	 SHORT $LL4@ReqGuildMe
  00088	5f		 pop	 edi
  00089	5e		 pop	 esi
  0008a	5b		 pop	 ebx

; 514  : 			}
; 515  : 		}
; 516  : 	}
; 517  : }

  0008b	8b e5		 mov	 esp, ebp
  0008d	5d		 pop	 ebp
  0008e	c2 08 00	 ret	 8
?ReqGuildMemberDelBuffDel@CArcaBattle@@QAEXPAUOBJECTSTRUCT@@PAD@Z ENDP ; CArcaBattle::ReqGuildMemberDelBuffDel
_TEXT	ENDS
; Function compile flags: /Ogtp
; File c:\users\michel\desktop\source\gameserver\source\arcabattle.h
;	COMDAT ?SetDataLoadProcState@CArcaBattle@@QAEXH@Z
_TEXT	SEGMENT
_bReqABProcState$ = 8					; size = 4
?SetDataLoadProcState@CArcaBattle@@QAEXH@Z PROC		; CArcaBattle::SetDataLoadProcState, COMDAT
; _this$ = ecx

; 538  : 	void	SetDataLoadProcState(BOOL bReqABProcState) { this->m_bReqABProcState = bReqABProcState; };

  00000	55		 push	 ebp
  00001	8b ec		 mov	 ebp, esp
  00003	8b 45 08	 mov	 eax, DWORD PTR _bReqABProcState$[ebp]
  00006	89 81 24 34 00
	00		 mov	 DWORD PTR [ecx+13348], eax
  0000c	5d		 pop	 ebp
  0000d	c2 04 00	 ret	 4
?SetDataLoadProcState@CArcaBattle@@QAEXH@Z ENDP		; CArcaBattle::SetDataLoadProcState
_TEXT	ENDS
; Function compile flags: /Ogtp
; File c:\users\michel\desktop\source\gameserver\source\arcabattle.cpp
;	COMDAT ?EnterArcaBattleEvent@CArcaBattle@@QAEHH@Z
_TEXT	SEGMENT
?gObj@@3PAUOBJECTSTRUCT@@A$1 = -16			; size = 4
tv211 = -12						; size = 4
_this$1$ = -8						; size = 4
tv209 = -4						; size = 4
_aIndex$ = 8						; size = 4
?EnterArcaBattleEvent@CArcaBattle@@QAEHH@Z PROC		; CArcaBattle::EnterArcaBattleEvent, COMDAT
; _this$ = ecx

; 1310 : {

  00000	55		 push	 ebp
  00001	8b ec		 mov	 ebp, esp
  00003	83 ec 10	 sub	 esp, 16			; 00000010H
  00006	53		 push	 ebx
  00007	57		 push	 edi
  00008	8b f9		 mov	 edi, ecx
  0000a	89 7d f8	 mov	 DWORD PTR _this$1$[ebp], edi

; 1311 : 	if( !AB_CHECKSLOT(this->m_iCurUserCount) )

  0000d	8b 9f a8 34 00
	00		 mov	 ebx, DWORD PTR [edi+13480]
  00013	85 db		 test	 ebx, ebx
  00015	0f 88 06 01 00
	00		 js	 $LN15@EnterArcaB
  0001b	33 c0		 xor	 eax, eax
  0001d	81 fb 2b 01 00
	00		 cmp	 ebx, 299		; 0000012bH
  00023	0f 9e c0	 setle	 al
  00026	85 c0		 test	 eax, eax
  00028	0f 84 f3 00 00
	00		 je	 $LN15@EnterArcaB

; 1315 : 	}
; 1316 : 	// ----
; 1317 : 	for( int i = 0; i < this->m_iCurUserCount; i++ )

  0002e	8b 0d 00 00 00
	00		 mov	 ecx, DWORD PTR ?gObj@@3PAUOBJECTSTRUCT@@A ; gObj
  00034	56		 push	 esi
  00035	33 f6		 xor	 esi, esi
  00037	89 4d f0	 mov	 DWORD PTR ?gObj@@3PAUOBJECTSTRUCT@@A$1[ebp], ecx
  0003a	85 db		 test	 ebx, ebx
  0003c	7e 51		 jle	 SHORT $LN3@EnterArcaB
  0003e	69 45 08 40 27
	00 00		 imul	 eax, DWORD PTR _aIndex$[ebp], 10048
  00045	03 c1		 add	 eax, ecx
  00047	89 45 f4	 mov	 DWORD PTR tv211[ebp], eax
  0004a	83 c0 5d	 add	 eax, 93			; 0000005dH
  0004d	89 45 fc	 mov	 DWORD PTR tv209[ebp], eax
  00050	81 c7 b8 13 00
	00		 add	 edi, 5048		; 000013b8H
$LL4@EnterArcaB:

; 1318 : 	{
; 1319 : 		if( !strcmp(this->m_UserData[i].szCharName, gObj[aIndex].Name) )

  00056	8b cf		 mov	 ecx, edi
$LL16@EnterArcaB:
  00058	8a 11		 mov	 dl, BYTE PTR [ecx]
  0005a	3a 10		 cmp	 dl, BYTE PTR [eax]
  0005c	75 1a		 jne	 SHORT $LN17@EnterArcaB
  0005e	84 d2		 test	 dl, dl
  00060	74 12		 je	 SHORT $LN18@EnterArcaB
  00062	8a 51 01	 mov	 dl, BYTE PTR [ecx+1]
  00065	3a 50 01	 cmp	 dl, BYTE PTR [eax+1]
  00068	75 0e		 jne	 SHORT $LN17@EnterArcaB
  0006a	83 c1 02	 add	 ecx, 2
  0006d	83 c0 02	 add	 eax, 2
  00070	84 d2		 test	 dl, dl
  00072	75 e4		 jne	 SHORT $LL16@EnterArcaB
$LN18@EnterArcaB:
  00074	33 c0		 xor	 eax, eax
  00076	eb 05		 jmp	 SHORT $LN19@EnterArcaB
$LN17@EnterArcaB:
  00078	1b c0		 sbb	 eax, eax
  0007a	83 c8 01	 or	 eax, 1
$LN19@EnterArcaB:
  0007d	85 c0		 test	 eax, eax
  0007f	74 7c		 je	 SHORT $LN11@EnterArcaB

; 1315 : 	}
; 1316 : 	// ----
; 1317 : 	for( int i = 0; i < this->m_iCurUserCount; i++ )

  00081	8b 45 fc	 mov	 eax, DWORD PTR tv209[ebp]
  00084	46		 inc	 esi
  00085	83 c7 18	 add	 edi, 24			; 00000018H
  00088	3b f3		 cmp	 esi, ebx
  0008a	7c ca		 jl	 SHORT $LL4@EnterArcaB

; 1318 : 	{
; 1319 : 		if( !strcmp(this->m_UserData[i].szCharName, gObj[aIndex].Name) )

  0008c	8b 7d f8	 mov	 edi, DWORD PTR _this$1$[ebp]
$LN3@EnterArcaB:

; 1324 : 		}
; 1325 : 	}
; 1326 : 	// ----
; 1327 : 	memcpy(this->m_UserData[this->m_iCurUserCount].szCharName, gObj[aIndex].Name, 11);

  0008f	69 55 08 40 27
	00 00		 imul	 edx, DWORD PTR _aIndex$[ebp], 10048
  00096	8d 04 5b	 lea	 eax, DWORD PTR [ebx+ebx*2]
  00099	8b 75 f0	 mov	 esi, DWORD PTR ?gObj@@3PAUOBJECTSTRUCT@@A$1[ebp]
  0009c	8d 0c c7	 lea	 ecx, DWORD PTR [edi+eax*8]
  0009f	f3 0f 7e 44 32
	5d		 movq	 xmm0, QWORD PTR [edx+esi+93]
  000a5	66 0f d6 81 b8
	13 00 00	 movq	 QWORD PTR [ecx+5048], xmm0
  000ad	66 8b 44 32 65	 mov	 ax, WORD PTR [edx+esi+101]
  000b2	66 89 81 c0 13
	00 00		 mov	 WORD PTR [ecx+5056], ax
  000b9	8a 44 32 67	 mov	 al, BYTE PTR [edx+esi+103]
  000bd	88 81 c2 13 00
	00		 mov	 BYTE PTR [ecx+5058], al
  000c3	ff 87 a8 34 00
	00		 inc	 DWORD PTR [edi+13480]

; 1328 : 	this->m_iCurUserCount++;
; 1329 :     LogAddTD("[ArcaBattle] Enter ArcaBattle [%s] [%s] UserCnt [%d]", 

  000c9	8b 0d 00 00 00
	00		 mov	 ecx, DWORD PTR ?gObj@@3PAUOBJECTSTRUCT@@A ; gObj
  000cf	ff b7 a8 34 00
	00		 push	 DWORD PTR [edi+13480]
  000d5	8d 41 5d	 lea	 eax, DWORD PTR [ecx+93]
  000d8	03 c2		 add	 eax, edx
  000da	50		 push	 eax
  000db	8d 41 52	 lea	 eax, DWORD PTR [ecx+82]
  000de	03 c2		 add	 eax, edx
  000e0	50		 push	 eax
  000e1	68 00 00 00 00	 push	 OFFSET ??_C@_0DF@PFKNNEC@?$FLArcaBattle?$FN?5Enter?5ArcaBattle?5?$FL?$CF@
  000e6	ff 15 00 00 00
	00		 call	 DWORD PTR ?LogAddTD@@3P6AXPADZZA ; LogAddTD
  000ec	83 c4 10	 add	 esp, 16			; 00000010H

; 1330 : 		gObj[aIndex].AccountID, gObj[aIndex].Name, this->m_iCurUserCount);
; 1331 : 	return true;

  000ef	b8 01 00 00 00	 mov	 eax, 1
  000f4	5e		 pop	 esi
  000f5	5f		 pop	 edi
  000f6	5b		 pop	 ebx

; 1332 : }

  000f7	8b e5		 mov	 esp, ebp
  000f9	5d		 pop	 ebp
  000fa	c2 04 00	 ret	 4
$LN11@EnterArcaB:

; 1320 : 		{
; 1321 : 			LogAddTD("[ArcaBattle] Entered ArcaBattle [%s] [%s] UserCnt [%d]",

  000fd	8b 45 f4	 mov	 eax, DWORD PTR tv211[ebp]
  00100	53		 push	 ebx
  00101	ff 75 fc	 push	 DWORD PTR tv209[ebp]
  00104	83 c0 52	 add	 eax, 82			; 00000052H
  00107	50		 push	 eax
  00108	68 00 00 00 00	 push	 OFFSET ??_C@_0DH@GJDPCHLF@?$FLArcaBattle?$FN?5Entered?5ArcaBattle?5@
  0010d	ff 15 00 00 00
	00		 call	 DWORD PTR ?LogAddTD@@3P6AXPADZZA ; LogAddTD
  00113	83 c4 10	 add	 esp, 16			; 00000010H

; 1322 : 				gObj[aIndex].AccountID, gObj[aIndex].Name, this->m_iCurUserCount);
; 1323 : 			return false;

  00116	33 c0		 xor	 eax, eax
  00118	5e		 pop	 esi
  00119	5f		 pop	 edi
  0011a	5b		 pop	 ebx

; 1332 : }

  0011b	8b e5		 mov	 esp, ebp
  0011d	5d		 pop	 ebp
  0011e	c2 04 00	 ret	 4
$LN15@EnterArcaB:

; 1312 : 	{
; 1313 : 		LogAddTD("[ArcaBattle] Entered User Over UserCount [%d]", this->m_iCurUserCount);

  00121	53		 push	 ebx
  00122	68 00 00 00 00	 push	 OFFSET ??_C@_0CO@FIDHFJOD@?$FLArcaBattle?$FN?5Entered?5User?5Over?5U@
  00127	ff 15 00 00 00
	00		 call	 DWORD PTR ?LogAddTD@@3P6AXPADZZA ; LogAddTD
  0012d	83 c4 08	 add	 esp, 8

; 1314 : 		return false;

  00130	33 c0		 xor	 eax, eax
  00132	5f		 pop	 edi
  00133	5b		 pop	 ebx

; 1332 : }

  00134	8b e5		 mov	 esp, ebp
  00136	5d		 pop	 ebp
  00137	c2 04 00	 ret	 4
?EnterArcaBattleEvent@CArcaBattle@@QAEHH@Z ENDP		; CArcaBattle::EnterArcaBattleEvent
_TEXT	ENDS
; Function compile flags: /Ogtp
; File c:\users\michel\desktop\source\gameserver\source\arcabattle.cpp
;	COMDAT ?LoadScriptArcaBattle@CArcaBattle@@QAEHPAD@Z
_TEXT	SEGMENT
_lpszFileName$ = 8					; size = 4
?LoadScriptArcaBattle@CArcaBattle@@QAEHPAD@Z PROC	; CArcaBattle::LoadScriptArcaBattle, COMDAT
; _this$ = ecx

; 279  : 	return 0;

  00000	33 c0		 xor	 eax, eax

; 280  : }

  00002	c2 04 00	 ret	 4
?LoadScriptArcaBattle@CArcaBattle@@QAEHPAD@Z ENDP	; CArcaBattle::LoadScriptArcaBattle
_TEXT	ENDS
; Function compile flags: /Ogtp
; File c:\users\michel\desktop\source\gameserver\source\arcabattle.cpp
;	COMDAT ?GetBootyRewardItem@CArcaBattle@@QAEHHPAU_tagARCA_BATTLE_BOOTY_REWARD@@@Z
_TEXT	SEGMENT
_iRewardItem$1$ = -4					; size = 4
_iBootyCnt$ = 8						; size = 4
_pBootyRewardItem$ = 12					; size = 4
?GetBootyRewardItem@CArcaBattle@@QAEHHPAU_tagARCA_BATTLE_BOOTY_REWARD@@@Z PROC ; CArcaBattle::GetBootyRewardItem, COMDAT
; _this$ = ecx

; 197  : {

  00000	55		 push	 ebp
  00001	8b ec		 mov	 ebp, esp
  00003	51		 push	 ecx
  00004	56		 push	 esi
  00005	57		 push	 edi
  00006	8b b9 b4 13 00
	00		 mov	 edi, DWORD PTR [ecx+5044]

; 198  : 	int iTotRate, iBaseRate, iAddRate;
; 199  : 	int iRewardCnt;
; 200  : 	int i;
; 201  : 	int iLinkNum;
; 202  : 	int iRand;
; 203  : 	int iRewardItem;
; 204  : 	int iBootyRateCnt;
; 205  : 	// ----
; 206  : 	iLinkNum	= 0;
; 207  : 	i			= 0;
; 208  : 	iRewardCnt	= 0;
; 209  : 	iRewardItem = 0;

  0000c	33 d2		 xor	 edx, edx
  0000e	89 55 fc	 mov	 DWORD PTR _iRewardItem$1$[ebp], edx

; 210  : 	_tagARCA_BATTLE_BOOTY_MIX * pBootMix = NULL;
; 211  : 	// ----
; 212  : 	for( i = 0; i < this->m_iBootyMixCnt; i++ )

  00011	85 ff		 test	 edi, edi
  00013	7e 1e		 jle	 SHORT $LN26@GetBootyRe

; 198  : 	int iTotRate, iBaseRate, iAddRate;
; 199  : 	int iRewardCnt;
; 200  : 	int i;
; 201  : 	int iLinkNum;
; 202  : 	int iRand;
; 203  : 	int iRewardItem;
; 204  : 	int iBootyRateCnt;
; 205  : 	// ----
; 206  : 	iLinkNum	= 0;
; 207  : 	i			= 0;
; 208  : 	iRewardCnt	= 0;
; 209  : 	iRewardItem = 0;

  00015	8b 75 08	 mov	 esi, DWORD PTR _iBootyCnt$[ebp]
  00018	8d 41 0c	 lea	 eax, DWORD PTR [ecx+12]
  0001b	0f 1f 44 00 00	 npad	 5
$LL4@GetBootyRe:

; 213  : 	{
; 214  : 		if( this->m_stBootyMix[i].iMinCnt <= iBootyCnt && this->m_stBootyMix[i].iMaxCnt >= iBootyCnt )

  00020	39 70 fc	 cmp	 DWORD PTR [eax-4], esi
  00023	7f 04		 jg	 SHORT $LN2@GetBootyRe
  00025	39 30		 cmp	 DWORD PTR [eax], esi
  00027	7d 22		 jge	 SHORT $LN17@GetBootyRe
$LN2@GetBootyRe:

; 210  : 	_tagARCA_BATTLE_BOOTY_MIX * pBootMix = NULL;
; 211  : 	// ----
; 212  : 	for( i = 0; i < this->m_iBootyMixCnt; i++ )

  00029	42		 inc	 edx
  0002a	05 f8 01 00 00	 add	 eax, 504		; 000001f8H
  0002f	3b d7		 cmp	 edx, edi
  00031	7c ed		 jl	 SHORT $LL4@GetBootyRe
$LN26@GetBootyRe:

; 222  : 	{
; 223  : 		LogAddTD("[ArcaBattle][BootyExchange] Error GetBootyRewardItem() NULL");

  00033	68 00 00 00 00	 push	 OFFSET ??_C@_0DM@IMNBJCCJ@?$FLArcaBattle?$FN?$FLBootyExchange?$FN?5Erro@
  00038	ff 15 00 00 00
	00		 call	 DWORD PTR ?LogAddTD@@3P6AXPADZZA ; LogAddTD
  0003e	83 c4 04	 add	 esp, 4

; 224  : 		return 0;

  00041	33 c0		 xor	 eax, eax
  00043	5f		 pop	 edi
  00044	5e		 pop	 esi

; 273  : }

  00045	8b e5		 mov	 esp, ebp
  00047	5d		 pop	 ebp
  00048	c2 08 00	 ret	 8
$LN17@GetBootyRe:

; 215  : 		{
; 216  : 			pBootMix = &this->m_stBootyMix[i];

  0004b	69 c2 f8 01 00
	00		 imul	 eax, edx, 504
  00051	8d 79 04	 lea	 edi, DWORD PTR [ecx+4]
  00054	03 f8		 add	 edi, eax

; 217  : 			break;
; 218  : 		}
; 219  : 	}
; 220  : 	// ----
; 221  : 	if( pBootMix == NULL )

  00056	74 db		 je	 SHORT $LN26@GetBootyRe

; 225  : 	}
; 226  : 	// ----
; 227  : 	iBaseRate		= pBootMix->iBaseRate;
; 228  : 	iAddRate		= pBootMix->iAddRate;
; 229  : 	iBootyRateCnt	= iBootyCnt - pBootMix->iMinCnt;

  00058	2b 77 04	 sub	 esi, DWORD PTR [edi+4]

; 230  : 	iTotRate		= iAddRate * iBootyRateCnt + iBaseRate;

  0005b	0f af 77 10	 imul	 esi, DWORD PTR [edi+16]
  0005f	03 77 0c	 add	 esi, DWORD PTR [edi+12]

; 231  : 	iRand			= GetLargeRand() % 100;

  00062	e8 00 00 00 00	 call	 ?GetLargeRand@@YAKXZ	; GetLargeRand
  00067	33 d2		 xor	 edx, edx
  00069	b9 64 00 00 00	 mov	 ecx, 100		; 00000064H
  0006e	f7 f1		 div	 ecx

; 232  : 	// ----
; 233  : 	if( iRand <= iTotRate )

  00070	3b d6		 cmp	 edx, esi
  00072	0f 8f 8b 00 00
	00		 jg	 $LN10@GetBootyRe

; 234  :     {
; 235  : 		int iSumRate;
; 236  : 		int iRewardCnt;
; 237  : 		int iRewardRand;
; 238  : 		// ----
; 239  : 		iRewardRand		= GetLargeRand() % 1000000;

  00078	53		 push	 ebx
  00079	e8 00 00 00 00	 call	 ?GetLargeRand@@YAKXZ	; GetLargeRand
  0007e	33 d2		 xor	 edx, edx
  00080	b9 40 42 0f 00	 mov	 ecx, 1000000		; 000f4240H
  00085	f7 f1		 div	 ecx

; 240  : 		iRewardCnt		= pBootMix->iBootyRewardCnt;
; 241  : 		iSumRate		= 0;

  00087	33 f6		 xor	 esi, esi

; 242  : 		// ----
; 243  : 		for( int RateCnt = 0; RateCnt < iRewardCnt; RateCnt++ )

  00089	33 c0		 xor	 eax, eax
  0008b	8b da		 mov	 ebx, edx
  0008d	8b 57 14	 mov	 edx, DWORD PTR [edi+20]
  00090	85 d2		 test	 edx, edx
  00092	7e 11		 jle	 SHORT $LN13@GetBootyRe

; 234  :     {
; 235  : 		int iSumRate;
; 236  : 		int iRewardCnt;
; 237  : 		int iRewardRand;
; 238  : 		// ----
; 239  : 		iRewardRand		= GetLargeRand() % 1000000;

  00094	8d 4f 2c	 lea	 ecx, DWORD PTR [edi+44]
$LL7@GetBootyRe:

; 244  : 		{
; 245  : 			iSumRate += pBootMix->stBootyReward[RateCnt].iRate; //Need check

  00097	03 31		 add	 esi, DWORD PTR [ecx]

; 246  : 			// ----
; 247  : 			if( iRewardRand <= iSumRate )

  00099	3b de		 cmp	 ebx, esi
  0009b	7e 45		 jle	 SHORT $LN18@GetBootyRe

; 242  : 		// ----
; 243  : 		for( int RateCnt = 0; RateCnt < iRewardCnt; RateCnt++ )

  0009d	40		 inc	 eax
  0009e	83 c1 18	 add	 ecx, 24			; 00000018H
  000a1	3b c2		 cmp	 eax, edx
  000a3	7c f2		 jl	 SHORT $LL7@GetBootyRe
$LN13@GetBootyRe:

; 263  : 	}
; 264  : 	// -----
; 265  : 	pBootyRewardItem->iItemLink		= pBootMix->stBootyReward[iRewardItem].iItemLink;

  000a5	8b 45 fc	 mov	 eax, DWORD PTR _iRewardItem$1$[ebp]
  000a8	8b 4d 0c	 mov	 ecx, DWORD PTR _pBootyRewardItem$[ebp]
  000ab	5b		 pop	 ebx
  000ac	8d 04 40	 lea	 eax, DWORD PTR [eax+eax*2]
  000af	8d 14 c7	 lea	 edx, DWORD PTR [edi+eax*8]
  000b2	8b 42 18	 mov	 eax, DWORD PTR [edx+24]
  000b5	89 01		 mov	 DWORD PTR [ecx], eax

; 266  : 	pBootyRewardItem->iItemType		= pBootMix->stBootyReward[iRewardItem].iItemType;

  000b7	8b 42 1c	 mov	 eax, DWORD PTR [edx+28]
  000ba	89 41 04	 mov	 DWORD PTR [ecx+4], eax

; 267  : 	pBootyRewardItem->iItemIndex	= pBootMix->stBootyReward[iRewardItem].iItemIndex;

  000bd	8b 42 20	 mov	 eax, DWORD PTR [edx+32]
  000c0	89 41 08	 mov	 DWORD PTR [ecx+8], eax

; 268  : 	pBootyRewardItem->iItemLevel	= pBootMix->stBootyReward[iRewardItem].iItemLevel;

  000c3	8b 42 24	 mov	 eax, DWORD PTR [edx+36]
  000c6	89 41 0c	 mov	 DWORD PTR [ecx+12], eax

; 269  : 	pBootyRewardItem->iDurab		= pBootMix->stBootyReward[iRewardItem].iDurab;

  000c9	8b 42 28	 mov	 eax, DWORD PTR [edx+40]
  000cc	89 41 10	 mov	 DWORD PTR [ecx+16], eax

; 270  : 	pBootyRewardItem->iRate			= pBootMix->stBootyReward[iRewardItem].iRate;

  000cf	8b 42 2c	 mov	 eax, DWORD PTR [edx+44]
  000d2	5f		 pop	 edi
  000d3	89 41 14	 mov	 DWORD PTR [ecx+20], eax

; 271  : 	// ----
; 272  : 	return 1;

  000d6	b8 01 00 00 00	 mov	 eax, 1
  000db	5e		 pop	 esi

; 273  : }

  000dc	8b e5		 mov	 esp, ebp
  000de	5d		 pop	 ebp
  000df	c2 08 00	 ret	 8
$LN18@GetBootyRe:

; 248  : 			{
; 249  : 				iRewardItem = RateCnt;

  000e2	89 45 fc	 mov	 DWORD PTR _iRewardItem$1$[ebp], eax

; 257  : 	}
; 258  : 	// ----
; 259  : 	if( iRewardItem >= 20 )

  000e5	83 f8 14	 cmp	 eax, 20			; 00000014H
  000e8	7c bb		 jl	 SHORT $LN13@GetBootyRe

; 260  :     {
; 261  : 		LogAddTD("[ArcaBattle][BootyExchange] Error Overflow iRewardItem");

  000ea	68 00 00 00 00	 push	 OFFSET ??_C@_0DH@CABOAONH@?$FLArcaBattle?$FN?$FLBootyExchange?$FN?5Erro@
  000ef	ff 15 00 00 00
	00		 call	 DWORD PTR ?LogAddTD@@3P6AXPADZZA ; LogAddTD
  000f5	83 c4 04	 add	 esp, 4

; 262  : 		return 0;

  000f8	33 c0		 xor	 eax, eax
  000fa	5b		 pop	 ebx
  000fb	5f		 pop	 edi
  000fc	5e		 pop	 esi

; 273  : }

  000fd	8b e5		 mov	 esp, ebp
  000ff	5d		 pop	 ebp
  00100	c2 08 00	 ret	 8
$LN10@GetBootyRe:
  00103	5f		 pop	 edi

; 250  : 				break;
; 251  : 			}
; 252  : 		}
; 253  : 	}
; 254  : 	else
; 255  : 	{
; 256  : 		return 2;

  00104	b8 02 00 00 00	 mov	 eax, 2
  00109	5e		 pop	 esi

; 273  : }

  0010a	8b e5		 mov	 esp, ebp
  0010c	5d		 pop	 ebp
  0010d	c2 08 00	 ret	 8
?GetBootyRewardItem@CArcaBattle@@QAEHHPAU_tagARCA_BATTLE_BOOTY_REWARD@@@Z ENDP ; CArcaBattle::GetBootyRewardItem
_TEXT	ENDS
; Function compile flags: /Ogtp
; File c:\users\michel\desktop\source\gameserver\source\arcabattle.cpp
;	COMDAT ?BootyExchange@CArcaBattle@@QAEXPAUOBJECTSTRUCT@@@Z
_TEXT	SEGMENT
_lpObj$ = 8						; size = 4
?BootyExchange@CArcaBattle@@QAEXPAUOBJECTSTRUCT@@@Z PROC ; CArcaBattle::BootyExchange, COMDAT
; _this$ = ecx

; 191  : 	return;
; 192  : }

  00000	c2 04 00	 ret	 4
?BootyExchange@CArcaBattle@@QAEXPAUOBJECTSTRUCT@@@Z ENDP ; CArcaBattle::BootyExchange
_TEXT	ENDS
; Function compile flags: /Ogtp
; File c:\users\michel\desktop\source\gameserver\source\arcabattle.cpp
;	COMDAT ?LoadScriptBootyMix@CArcaBattle@@QAEHPAD@Z
_TEXT	SEGMENT
_iCount$1$ = -4						; size = 4
_lpszFileName$ = 8					; size = 4
?LoadScriptBootyMix@CArcaBattle@@QAEHPAD@Z PROC		; CArcaBattle::LoadScriptBootyMix, COMDAT
; _this$ = ecx

; 91   : {

  00000	55		 push	 ebp
  00001	8b ec		 mov	 ebp, esp
  00003	51		 push	 ecx
  00004	56		 push	 esi

; 92   : 	SMDFile = fopen(lpszFileName, "r");

  00005	8b 75 08	 mov	 esi, DWORD PTR _lpszFileName$[ebp]
  00008	57		 push	 edi
  00009	68 00 00 00 00	 push	 OFFSET ??_C@_01KDCPPGHE@r?$AA@
  0000e	56		 push	 esi
  0000f	8b f9		 mov	 edi, ecx
  00011	e8 00 00 00 00	 call	 _fopen
  00016	83 c4 08	 add	 esp, 8
  00019	a3 00 00 00 00	 mov	 DWORD PTR ?SMDFile@@3PAU_iobuf@@A, eax

; 93   : 	// ----
; 94   : 	if( !SMDFile )

  0001e	85 c0		 test	 eax, eax
  00020	75 18		 jne	 SHORT $LN8@LoadScript

; 95   : 	{
; 96   : 		MsgBox("[ArcaBattle][BootyExchange] %s File Load Error", lpszFileName);

  00022	56		 push	 esi
  00023	68 00 00 00 00	 push	 OFFSET ??_C@_0CP@OFJFMFJN@?$FLArcaBattle?$FN?$FLBootyExchange?$FN?5?$CFs?5F@
  00028	e8 00 00 00 00	 call	 ?MsgBox@@YAXPADZZ	; MsgBox
  0002d	83 c4 08	 add	 esp, 8

; 97   : 		return false;

  00030	33 c0		 xor	 eax, eax
  00032	5f		 pop	 edi
  00033	5e		 pop	 esi

; 185  : }

  00034	8b e5		 mov	 esp, ebp
  00036	5d		 pop	 ebp
  00037	c2 04 00	 ret	 4
$LN8@LoadScript:

; 98   : 	}
; 99   : 	// ----
; 100  : 	int i = 0;
; 101  : 	SMDToken Token;
; 102  : 	int iCount = 0;
; 103  : 	int Type;
; 104  : 	// ----
; 105  : 	while(true)
; 106  : 	{
; 107  : 		Token = GetToken();

  0003a	e8 00 00 00 00	 call	 ?GetToken@@YA?AW4SMDToken@@XZ ; GetToken
  0003f	8b c8		 mov	 ecx, eax

; 108  : 		// ----
; 109  : 		if( Token == END )

  00041	83 f9 02	 cmp	 ecx, 2
  00044	0f 84 f7 01 00
	00		 je	 $LN34@LoadScript
  0004a	53		 push	 ebx
  0004b	0f 1f 44 00 00	 npad	 5
$LL2@LoadScript:

; 110  : 		{
; 111  : 			break;
; 112  : 		}
; 113  : 		// ----
; 114  : 		if( Token == NUMBER )

  00050	83 f9 01	 cmp	 ecx, 1
  00053	0f 85 c5 01 00
	00		 jne	 $LN43@LoadScript

; 115  : 		{
; 116  : 			Type = (int)TokenNumber;

  00059	f3 0f 2c 1d 00
	00 00 00	 cvttss2si ebx, DWORD PTR ?TokenNumber@@3MA

; 117  : 			// ----
; 118  : 			if( Type == 0 )

  00061	85 db		 test	 ebx, ebx
  00063	0f 85 cc 00 00
	00		 jne	 $LN45@LoadScript
  00069	0f 1f 80 00 00
	00 00		 npad	 7
$LL4@LoadScript:

; 119  : 			{
; 120  : 				while(true)
; 121  : 				{
; 122  : 					if( Token == END )

  00070	83 f9 02	 cmp	 ecx, 2
  00073	75 38		 jne	 SHORT $LN14@LoadScript

; 123  : 					{
; 124  : 						if( !strcmp("end", TokenString) == 0 )

  00075	b9 00 00 00 00	 mov	 ecx, OFFSET ?TokenString@@3PADA
  0007a	b8 00 00 00 00	 mov	 eax, OFFSET ??_C@_03JBJLGPFL@end?$AA@
  0007f	90		 npad	 1
$LL35@LoadScript:
  00080	8a 10		 mov	 dl, BYTE PTR [eax]
  00082	3a 11		 cmp	 dl, BYTE PTR [ecx]
  00084	75 1a		 jne	 SHORT $LN36@LoadScript
  00086	84 d2		 test	 dl, dl
  00088	74 12		 je	 SHORT $LN37@LoadScript
  0008a	8a 50 01	 mov	 dl, BYTE PTR [eax+1]
  0008d	3a 51 01	 cmp	 dl, BYTE PTR [ecx+1]
  00090	75 0e		 jne	 SHORT $LN36@LoadScript
  00092	83 c0 02	 add	 eax, 2
  00095	83 c1 02	 add	 ecx, 2
  00098	84 d2		 test	 dl, dl
  0009a	75 e4		 jne	 SHORT $LL35@LoadScript
$LN37@LoadScript:
  0009c	33 c0		 xor	 eax, eax
  0009e	eb 05		 jmp	 SHORT $LN38@LoadScript
$LN36@LoadScript:
  000a0	1b c0		 sbb	 eax, eax
  000a2	83 c8 01	 or	 eax, 1
$LN38@LoadScript:
  000a5	85 c0		 test	 eax, eax
  000a7	0f 85 71 01 00
	00		 jne	 $LN43@LoadScript
$LN14@LoadScript:

; 125  : 						{
; 126  : 							break;
; 127  : 						}
; 128  : 					}
; 129  : 					// ----
; 130  : 					this->m_stBootyMix[this->m_iBootyMixCnt].iItemLink	= (int)TokenNumber;

  000ad	69 87 b4 13 00
	00 f8 01 00 00	 imul	 eax, DWORD PTR [edi+5044], 504
  000b7	89 5c 38 04	 mov	 DWORD PTR [eax+edi+4], ebx

; 131  : 					Token = GetToken();

  000bb	e8 00 00 00 00	 call	 ?GetToken@@YA?AW4SMDToken@@XZ ; GetToken

; 132  : 					this->m_stBootyMix[this->m_iBootyMixCnt].iMinCnt	= (int)TokenNumber;

  000c0	f3 0f 2c 0d 00
	00 00 00	 cvttss2si ecx, DWORD PTR ?TokenNumber@@3MA
  000c8	69 87 b4 13 00
	00 f8 01 00 00	 imul	 eax, DWORD PTR [edi+5044], 504
  000d2	89 4c 38 08	 mov	 DWORD PTR [eax+edi+8], ecx

; 133  : 					Token = GetToken();

  000d6	e8 00 00 00 00	 call	 ?GetToken@@YA?AW4SMDToken@@XZ ; GetToken

; 134  : 					this->m_stBootyMix[this->m_iBootyMixCnt].iMaxCnt	= (int)TokenNumber;

  000db	f3 0f 2c 0d 00
	00 00 00	 cvttss2si ecx, DWORD PTR ?TokenNumber@@3MA
  000e3	69 87 b4 13 00
	00 f8 01 00 00	 imul	 eax, DWORD PTR [edi+5044], 504
  000ed	89 4c 38 0c	 mov	 DWORD PTR [eax+edi+12], ecx

; 135  : 					Token = GetToken();

  000f1	e8 00 00 00 00	 call	 ?GetToken@@YA?AW4SMDToken@@XZ ; GetToken

; 136  : 					this->m_stBootyMix[this->m_iBootyMixCnt].iBaseRate	= (int)TokenNumber;

  000f6	f3 0f 2c 0d 00
	00 00 00	 cvttss2si ecx, DWORD PTR ?TokenNumber@@3MA
  000fe	69 87 b4 13 00
	00 f8 01 00 00	 imul	 eax, DWORD PTR [edi+5044], 504
  00108	89 4c 38 10	 mov	 DWORD PTR [eax+edi+16], ecx

; 137  : 					Token = GetToken();

  0010c	e8 00 00 00 00	 call	 ?GetToken@@YA?AW4SMDToken@@XZ ; GetToken

; 138  : 					this->m_stBootyMix[this->m_iBootyMixCnt++].iAddRate = (int)TokenNumber;

  00111	f3 0f 2c 1d 00
	00 00 00	 cvttss2si ebx, DWORD PTR ?TokenNumber@@3MA
  00119	8b c8		 mov	 ecx, eax
  0011b	69 87 b4 13 00
	00 f8 01 00 00	 imul	 eax, DWORD PTR [edi+5044], 504
  00125	89 5c 38 14	 mov	 DWORD PTR [eax+edi+20], ebx

; 139  : 					// ----
; 140  : 					this->m_iBootyMixCnt++;

  00129	83 87 b4 13 00
	00 02		 add	 DWORD PTR [edi+5044], 2

; 141  : 				}

  00130	e9 3b ff ff ff	 jmp	 $LL4@LoadScript
$LN45@LoadScript:

; 142  : 			}
; 143  : 			else if( Type > 0 )

  00135	0f 8e e3 00 00
	00		 jle	 $LN43@LoadScript

; 144  : 			{
; 145  : 				iCount = 0;

  0013b	c7 45 fc 00 00
	00 00		 mov	 DWORD PTR _iCount$1$[ebp], 0

; 146  : 				// ----
; 147  : 				if( this->m_iBootyMixCnt < Type )

  00142	39 9f b4 13 00
	00		 cmp	 DWORD PTR [edi+5044], ebx
  00148	0f 8c e2 00 00
	00		 jl	 $LN27@LoadScript
  0014e	66 90		 npad	 2
$LL6@LoadScript:

; 150  : 					break;
; 151  : 				}
; 152  : 				// ----
; 153  : 				while(true)
; 154  : 				{
; 155  : 					Token = GetToken();

  00150	e8 00 00 00 00	 call	 ?GetToken@@YA?AW4SMDToken@@XZ ; GetToken

; 156  : 					// ----
; 157  : 					if( Token == END )

  00155	83 f8 02	 cmp	 eax, 2
  00158	75 37		 jne	 SHORT $LN18@LoadScript

; 158  : 					{
; 159  : 						if( !strcmp("end", TokenString) == 0 )

  0015a	b9 00 00 00 00	 mov	 ecx, OFFSET ?TokenString@@3PADA
  0015f	b8 00 00 00 00	 mov	 eax, OFFSET ??_C@_03JBJLGPFL@end?$AA@
$LL39@LoadScript:
  00164	8a 10		 mov	 dl, BYTE PTR [eax]
  00166	3a 11		 cmp	 dl, BYTE PTR [ecx]
  00168	75 1a		 jne	 SHORT $LN40@LoadScript
  0016a	84 d2		 test	 dl, dl
  0016c	74 12		 je	 SHORT $LN41@LoadScript
  0016e	8a 50 01	 mov	 dl, BYTE PTR [eax+1]
  00171	3a 51 01	 cmp	 dl, BYTE PTR [ecx+1]
  00174	75 0e		 jne	 SHORT $LN40@LoadScript
  00176	83 c0 02	 add	 eax, 2
  00179	83 c1 02	 add	 ecx, 2
  0017c	84 d2		 test	 dl, dl
  0017e	75 e4		 jne	 SHORT $LL39@LoadScript
$LN41@LoadScript:
  00180	33 c0		 xor	 eax, eax
  00182	eb 05		 jmp	 SHORT $LN42@LoadScript
$LN40@LoadScript:
  00184	1b c0		 sbb	 eax, eax
  00186	83 c8 01	 or	 eax, 1
$LN42@LoadScript:
  00189	85 c0		 test	 eax, eax
  0018b	0f 85 8d 00 00
	00		 jne	 $LN43@LoadScript
$LN18@LoadScript:

; 160  : 						{
; 161  : 							break;
; 162  : 						}
; 163  : 					}
; 164  : 					// ----
; 165  : 					this->m_stBootyMix[Type - 1].stBootyReward[iCount].iRate		= (int)TokenNumber;

  00191	f3 0f 2c 0d 00
	00 00 00	 cvttss2si ecx, DWORD PTR ?TokenNumber@@3MA
  00199	8b 45 fc	 mov	 eax, DWORD PTR _iCount$1$[ebp]
  0019c	83 c0 ed	 add	 eax, -19		; ffffffedH
  0019f	6b f3 15	 imul	 esi, ebx, 21
  001a2	03 c6		 add	 eax, esi
  001a4	8d 04 40	 lea	 eax, DWORD PTR [eax+eax*2]
  001a7	89 0c c7	 mov	 DWORD PTR [edi+eax*8], ecx

; 166  : 					Token = GetToken();

  001aa	e8 00 00 00 00	 call	 ?GetToken@@YA?AW4SMDToken@@XZ ; GetToken

; 167  : 					this->m_stBootyMix[Type - 1].stBootyReward[iCount].iDurab		= (int)TokenNumber;

  001af	8b 45 fc	 mov	 eax, DWORD PTR _iCount$1$[ebp]
  001b2	03 c6		 add	 eax, esi
  001b4	8d 34 40	 lea	 esi, DWORD PTR [eax+eax*2]
  001b7	f3 0f 2c 05 00
	00 00 00	 cvttss2si eax, DWORD PTR ?TokenNumber@@3MA
  001bf	89 84 f7 34 fe
	ff ff		 mov	 DWORD PTR [edi+esi*8-460], eax

; 168  : 					Token = GetToken();

  001c6	e8 00 00 00 00	 call	 ?GetToken@@YA?AW4SMDToken@@XZ ; GetToken

; 169  : 					this->m_stBootyMix[Type - 1].stBootyReward[iCount].iItemLevel	= (int)TokenNumber;

  001cb	f3 0f 2c 05 00
	00 00 00	 cvttss2si eax, DWORD PTR ?TokenNumber@@3MA
  001d3	89 84 f7 30 fe
	ff ff		 mov	 DWORD PTR [edi+esi*8-464], eax

; 170  : 					Token = GetToken();

  001da	e8 00 00 00 00	 call	 ?GetToken@@YA?AW4SMDToken@@XZ ; GetToken

; 171  : 					this->m_stBootyMix[Type - 1].stBootyReward[iCount].iItemIndex	= (int)TokenNumber;

  001df	f3 0f 2c 05 00
	00 00 00	 cvttss2si eax, DWORD PTR ?TokenNumber@@3MA
  001e7	89 84 f7 2c fe
	ff ff		 mov	 DWORD PTR [edi+esi*8-468], eax

; 172  : 					Token = GetToken();

  001ee	e8 00 00 00 00	 call	 ?GetToken@@YA?AW4SMDToken@@XZ ; GetToken

; 173  : 					this->m_stBootyMix[Type - 1].stBootyReward[iCount].iItemType	= (int)TokenNumber;

  001f3	f3 0f 2c 05 00
	00 00 00	 cvttss2si eax, DWORD PTR ?TokenNumber@@3MA

; 174  : 					// ----
; 175  : 					this->m_stBootyMix[Type - 1].stBootyReward[iCount].iItemLink	= Type;

  001fb	89 9c f7 24 fe
	ff ff		 mov	 DWORD PTR [edi+esi*8-476], ebx
  00202	89 84 f7 28 fe
	ff ff		 mov	 DWORD PTR [edi+esi*8-472], eax

; 176  : 					this->m_stBootyMix[Type - 1].iBootyRewardCnt++;

  00209	69 c3 f8 01 00
	00		 imul	 eax, ebx, 504
  0020f	ff 84 38 20 fe
	ff ff		 inc	 DWORD PTR [eax+edi-480]

; 177  : 					iCount++;

  00216	ff 45 fc	 inc	 DWORD PTR _iCount$1$[ebp]

; 178  : 				}

  00219	e9 32 ff ff ff	 jmp	 $LL6@LoadScript
$LN43@LoadScript:

; 98   : 	}
; 99   : 	// ----
; 100  : 	int i = 0;
; 101  : 	SMDToken Token;
; 102  : 	int iCount = 0;
; 103  : 	int Type;
; 104  : 	// ----
; 105  : 	while(true)
; 106  : 	{
; 107  : 		Token = GetToken();

  0021e	e8 00 00 00 00	 call	 ?GetToken@@YA?AW4SMDToken@@XZ ; GetToken
  00223	8b c8		 mov	 ecx, eax

; 108  : 		// ----
; 109  : 		if( Token == END )

  00225	83 f9 02	 cmp	 ecx, 2
  00228	0f 85 22 fe ff
	ff		 jne	 $LL2@LoadScript
  0022e	eb 10		 jmp	 SHORT $LN44@LoadScript
$LN27@LoadScript:

; 148  : 				{
; 149  : 					MsgBox("[ArcaBattle] BootyMix %s File Load Error - BootyMixCnt Over", lpszFileName);

  00230	ff 75 08	 push	 DWORD PTR _lpszFileName$[ebp]
  00233	68 00 00 00 00	 push	 OFFSET ??_C@_0DM@MHCDLNKM@?$FLArcaBattle?$FN?5BootyMix?5?$CFs?5File?5Lo@
  00238	e8 00 00 00 00	 call	 ?MsgBox@@YAXPADZZ	; MsgBox
  0023d	83 c4 08	 add	 esp, 8
$LN44@LoadScript:
  00240	5b		 pop	 ebx
$LN34@LoadScript:

; 179  : 			}
; 180  : 		}
; 181  : 	}
; 182  : 	// ----
; 183  : 	fclose(SMDFile);

  00241	ff 35 00 00 00
	00		 push	 DWORD PTR ?SMDFile@@3PAU_iobuf@@A
  00247	e8 00 00 00 00	 call	 _fclose
  0024c	83 c4 04	 add	 esp, 4

; 184  : 	return true;

  0024f	b8 01 00 00 00	 mov	 eax, 1
  00254	5f		 pop	 edi
  00255	5e		 pop	 esi

; 185  : }

  00256	8b e5		 mov	 esp, ebp
  00258	5d		 pop	 ebp
  00259	c2 04 00	 ret	 4
?LoadScriptBootyMix@CArcaBattle@@QAEHPAD@Z ENDP		; CArcaBattle::LoadScriptBootyMix
_TEXT	ENDS
; Function compile flags: /Ogtp
; File c:\users\michel\desktop\source\gameserver\source\arcabattle.cpp
;	COMDAT ?SendArcaBattleOccupyZone@CArcaBattle@@QAEXAAUOBJECTSTRUCT@@H@Z
_TEXT	SEGMENT
_pMsg$ = -20						; size = 13
__$ArrayPad$ = -4					; size = 4
_obj$ = 8						; size = 4
_gt$ = 12						; size = 4
?SendArcaBattleOccupyZone@CArcaBattle@@QAEXAAUOBJECTSTRUCT@@H@Z PROC ; CArcaBattle::SendArcaBattleOccupyZone, COMDAT
; _this$ = ecx

; 632  : {

  00000	55		 push	 ebp
  00001	8b ec		 mov	 ebp, esp
  00003	83 ec 14	 sub	 esp, 20			; 00000014H
  00006	a1 00 00 00 00	 mov	 eax, DWORD PTR ___security_cookie
  0000b	33 c5		 xor	 eax, ebp
  0000d	89 45 fc	 mov	 DWORD PTR __$ArrayPad$[ebp], eax

; 633  : 	_tagPMSG_SEND_AB_WIN_GUILD_INFO pMsg;
; 634  : 	bool bSend = false;
; 635  : 	// ----
; 636  : 	pMsg.h.c		= 0xC1;
; 637  : 	pMsg.h.size		= sizeof(_tagPMSG_SEND_AB_WIN_GUILD_INFO);
; 638  : 	pMsg.h.headcode	= 0xF8;
; 639  : 	pMsg.h.subcode	= 0x3D;
; 640  : 	// ----
; 641  : 	if( gt == 418 || gt == 422 )

  00010	8b 55 0c	 mov	 edx, DWORD PTR _gt$[ebp]
  00013	c7 45 ec c1 0d
	f8 3d		 mov	 DWORD PTR _pMsg$[ebp], 1039666625 ; 3df80dc1H
  0001a	56		 push	 esi
  0001b	8b f1		 mov	 esi, ecx
  0001d	57		 push	 edi
  0001e	8b 7d 08	 mov	 edi, DWORD PTR _obj$[ebp]
  00021	81 fa a2 01 00
	00		 cmp	 edx, 418		; 000001a2H
  00027	74 08		 je	 SHORT $LN6@SendArcaBa
  00029	81 fa a6 01 00
	00		 cmp	 edx, 422		; 000001a6H
  0002f	75 71		 jne	 SHORT $LN15@SendArcaBa
$LN6@SendArcaBa:

; 642  : 	{
; 643  : 		for( int i = 0; i < AB_MAX_BATTLEPOS; i++ )

  00031	33 c9		 xor	 ecx, ecx
  00033	8d 86 be 33 00
	00		 lea	 eax, DWORD PTR [esi+13246]
  00039	0f 1f 80 00 00
	00 00		 npad	 7
$LL4@SendArcaBa:

; 644  : 		{
; 645  : 			if(		gt == 418 && this->m_stABWinGuildInfo[i].wObeliskGroup == 1 
; 646  : 				||	gt == 422 && this->m_stABWinGuildInfo[i].wObeliskGroup == 2 )	//Maybe it obelist attr (dark, earth...)

  00040	81 fa a2 01 00
	00		 cmp	 edx, 418		; 000001a2H
  00046	75 06		 jne	 SHORT $LN9@SendArcaBa
  00048	66 83 38 01	 cmp	 WORD PTR [eax], 1
  0004c	eb 0c		 jmp	 SHORT $LN16@SendArcaBa
$LN9@SendArcaBa:
  0004e	81 fa a6 01 00
	00		 cmp	 edx, 422		; 000001a6H
  00054	75 06		 jne	 SHORT $LN2@SendArcaBa
  00056	66 83 38 02	 cmp	 WORD PTR [eax], 2
$LN16@SendArcaBa:
  0005a	74 1b		 je	 SHORT $LN8@SendArcaBa
$LN2@SendArcaBa:

; 642  : 	{
; 643  : 		for( int i = 0; i < AB_MAX_BATTLEPOS; i++ )

  0005c	41		 inc	 ecx
  0005d	83 c0 14	 add	 eax, 20			; 00000014H
  00060	83 f9 05	 cmp	 ecx, 5
  00063	7c db		 jl	 SHORT $LL4@SendArcaBa
  00065	5f		 pop	 edi
  00066	5e		 pop	 esi

; 650  : 				break;
; 651  : 			}
; 652  : 		}
; 653  : 	}
; 654  : }

  00067	8b 4d fc	 mov	 ecx, DWORD PTR __$ArrayPad$[ebp]
  0006a	33 cd		 xor	 ecx, ebp
  0006c	e8 00 00 00 00	 call	 @__security_check_cookie@4
  00071	8b e5		 mov	 esp, ebp
  00073	5d		 pop	 ebp
  00074	c2 08 00	 ret	 8
$LN8@SendArcaBa:

; 647  : 			{
; 648  : 				memcpy(pMsg.szGuildName, this->m_stABWinGuildInfo[i].szGuildName, 9); //MAX_GUILD_NAME define

  00077	8d 04 89	 lea	 eax, DWORD PTR [ecx+ecx*4]
  0007a	f3 0f 7e 84 86
	ac 33 00 00	 movq	 xmm0, QWORD PTR [esi+eax*4+13228]
  00083	8a 84 86 b4 33
	00 00		 mov	 al, BYTE PTR [esi+eax*4+13236]
  0008a	88 45 f8	 mov	 BYTE PTR _pMsg$[ebp+12], al

; 649  : 				DataSend(obj.m_Index, (LPBYTE)&pMsg, sizeof(_tagPMSG_SEND_AB_WIN_GUILD_INFO));

  0008d	8d 45 ec	 lea	 eax, DWORD PTR _pMsg$[ebp]
  00090	6a 0d		 push	 13			; 0000000dH
  00092	50		 push	 eax
  00093	ff 37		 push	 DWORD PTR [edi]
  00095	66 0f d6 45 f0	 movq	 QWORD PTR _pMsg$[ebp+4], xmm0
  0009a	e8 00 00 00 00	 call	 ?DataSend@@YAHHPAEK@Z	; DataSend
  0009f	83 c4 0c	 add	 esp, 12			; 0000000cH
$LN15@SendArcaBa:

; 650  : 				break;
; 651  : 			}
; 652  : 		}
; 653  : 	}
; 654  : }

  000a2	8b 4d fc	 mov	 ecx, DWORD PTR __$ArrayPad$[ebp]
  000a5	5f		 pop	 edi
  000a6	33 cd		 xor	 ecx, ebp
  000a8	5e		 pop	 esi
  000a9	e8 00 00 00 00	 call	 @__security_check_cookie@4
  000ae	8b e5		 mov	 esp, ebp
  000b0	5d		 pop	 ebp
  000b1	c2 08 00	 ret	 8
?SendArcaBattleOccupyZone@CArcaBattle@@QAEXAAUOBJECTSTRUCT@@H@Z ENDP ; CArcaBattle::SendArcaBattleOccupyZone
_TEXT	ENDS
; Function compile flags: /Ogtp
; File c:\users\michel\desktop\source\gameserver\source\arcabattle.cpp
;	COMDAT ?IsArcaBattleOccupyZone@CArcaBattle@@QAEHAAUOBJECTSTRUCT@@H@Z
_TEXT	SEGMENT
tv213 = 8						; size = 4
_obj$ = 8						; size = 4
_gt$ = 12						; size = 4
?IsArcaBattleOccupyZone@CArcaBattle@@QAEHAAUOBJECTSTRUCT@@H@Z PROC ; CArcaBattle::IsArcaBattleOccupyZone, COMDAT
; _this$ = ecx

; 603  : {

  00000	55		 push	 ebp
  00001	8b ec		 mov	 ebp, esp

; 604  : 	if( obj.lpGuild == NULL )

  00003	8b 45 08	 mov	 eax, DWORD PTR _obj$[ebp]
  00006	8b 80 18 06 00
	00		 mov	 eax, DWORD PTR [eax+1560]
  0000c	85 c0		 test	 eax, eax
  0000e	75 04		 jne	 SHORT $LN5@IsArcaBatt

; 627  : }

  00010	5d		 pop	 ebp
  00011	c2 08 00	 ret	 8
$LN5@IsArcaBatt:
  00014	53		 push	 ebx

; 605  : 	{
; 606  : 		return false;
; 607  : 	}
; 608  : 	// ---
; 609  : 	if( gt != 418 && gt != 422 )

  00015	8b 5d 0c	 mov	 ebx, DWORD PTR _gt$[ebp]
  00018	81 fb a2 01 00
	00		 cmp	 ebx, 418		; 000001a2H
  0001e	74 0f		 je	 SHORT $LN6@IsArcaBatt
  00020	81 fb a6 01 00
	00		 cmp	 ebx, 422		; 000001a6H
  00026	74 07		 je	 SHORT $LN6@IsArcaBatt

; 610  :     {
; 611  : 		return false;

  00028	33 c0		 xor	 eax, eax
  0002a	5b		 pop	 ebx

; 627  : }

  0002b	5d		 pop	 ebp
  0002c	c2 08 00	 ret	 8
$LN6@IsArcaBatt:
  0002f	56		 push	 esi
  00030	8d 50 04	 lea	 edx, DWORD PTR [eax+4]
  00033	57		 push	 edi

; 612  : 	}
; 613  : 	// ----
; 614  : 	for( int i = 0; i < AB_MAX_BATTLEPOS; i++ )

  00034	33 ff		 xor	 edi, edi
  00036	89 55 08	 mov	 DWORD PTR tv213[ebp], edx
  00039	8d b1 be 33 00
	00		 lea	 esi, DWORD PTR [ecx+13246]
  0003f	90		 npad	 1
$LL4@IsArcaBatt:

; 615  : 	{
; 616  : 		if( !strcmp(obj.lpGuild->Name, this->m_stABWinGuildInfo[i].szGuildName) )

  00040	8d 46 ee	 lea	 eax, DWORD PTR [esi-18]
  00043	8b ca		 mov	 ecx, edx
$LL17@IsArcaBatt:
  00045	8a 11		 mov	 dl, BYTE PTR [ecx]
  00047	3a 10		 cmp	 dl, BYTE PTR [eax]
  00049	75 1a		 jne	 SHORT $LN18@IsArcaBatt
  0004b	84 d2		 test	 dl, dl
  0004d	74 12		 je	 SHORT $LN19@IsArcaBatt
  0004f	8a 51 01	 mov	 dl, BYTE PTR [ecx+1]
  00052	3a 50 01	 cmp	 dl, BYTE PTR [eax+1]
  00055	75 0e		 jne	 SHORT $LN18@IsArcaBatt
  00057	83 c1 02	 add	 ecx, 2
  0005a	83 c0 02	 add	 eax, 2
  0005d	84 d2		 test	 dl, dl
  0005f	75 e4		 jne	 SHORT $LL17@IsArcaBatt
$LN19@IsArcaBatt:
  00061	33 c0		 xor	 eax, eax
  00063	eb 05		 jmp	 SHORT $LN20@IsArcaBatt
$LN18@IsArcaBatt:
  00065	1b c0		 sbb	 eax, eax
  00067	83 c8 01	 or	 eax, 1
$LN20@IsArcaBatt:
  0006a	85 c0		 test	 eax, eax
  0006c	75 1c		 jne	 SHORT $LN2@IsArcaBatt

; 617  : 		{
; 618  : 			if(		gt == 418 && this->m_stABWinGuildInfo[i].wObeliskGroup == 1 
; 619  : 				||	gt == 422 && this->m_stABWinGuildInfo[i].wObeliskGroup == 2 )	//Maybe it obelist attr (dark, earth...)

  0006e	81 fb a2 01 00
	00		 cmp	 ebx, 418		; 000001a2H
  00074	75 06		 jne	 SHORT $LN10@IsArcaBatt
  00076	66 83 3e 01	 cmp	 WORD PTR [esi], 1
  0007a	eb 0c		 jmp	 SHORT $LN24@IsArcaBatt
$LN10@IsArcaBatt:
  0007c	81 fb a6 01 00
	00		 cmp	 ebx, 422		; 000001a6H
  00082	75 06		 jne	 SHORT $LN2@IsArcaBatt
  00084	66 83 3e 02	 cmp	 WORD PTR [esi], 2
$LN24@IsArcaBatt:
  00088	74 0e		 je	 SHORT $LN9@IsArcaBatt
$LN2@IsArcaBatt:

; 612  : 	}
; 613  : 	// ----
; 614  : 	for( int i = 0; i < AB_MAX_BATTLEPOS; i++ )

  0008a	47		 inc	 edi
  0008b	83 c6 14	 add	 esi, 20			; 00000014H
  0008e	83 ff 05	 cmp	 edi, 5
  00091	7d 11		 jge	 SHORT $LN16@IsArcaBatt
  00093	8b 55 08	 mov	 edx, DWORD PTR tv213[ebp]
  00096	eb a8		 jmp	 SHORT $LL4@IsArcaBatt
$LN9@IsArcaBatt:
  00098	5f		 pop	 edi
  00099	5e		 pop	 esi

; 620  : 			{
; 621  : 				return true;

  0009a	b8 01 00 00 00	 mov	 eax, 1
  0009f	5b		 pop	 ebx

; 627  : }

  000a0	5d		 pop	 ebp
  000a1	c2 08 00	 ret	 8
$LN16@IsArcaBatt:
  000a4	5f		 pop	 edi
  000a5	5e		 pop	 esi

; 622  : 			}
; 623  : 		}
; 624  : 	}
; 625  : 	// ----
; 626  : 	return false;

  000a6	33 c0		 xor	 eax, eax
  000a8	5b		 pop	 ebx

; 627  : }

  000a9	5d		 pop	 ebp
  000aa	c2 08 00	 ret	 8
?IsArcaBattleOccupyZone@CArcaBattle@@QAEHAAUOBJECTSTRUCT@@H@Z ENDP ; CArcaBattle::IsArcaBattleOccupyZone
_TEXT	ENDS
; Function compile flags: /Ogtp
; File c:\users\michel\desktop\source\gameserver\source\arcabattle.cpp
;	COMDAT ?IsArcaBattleWinGuild@CArcaBattle@@QAEHAAUOBJECTSTRUCT@@@Z
_TEXT	SEGMENT
_obj$ = 8						; size = 4
?IsArcaBattleWinGuild@CArcaBattle@@QAEHAAUOBJECTSTRUCT@@@Z PROC ; CArcaBattle::IsArcaBattleWinGuild, COMDAT
; _this$ = ecx

; 580  : {

  00000	55		 push	 ebp
  00001	8b ec		 mov	 ebp, esp

; 581  : 	if( obj.lpGuild == NULL )

  00003	8b 45 08	 mov	 eax, DWORD PTR _obj$[ebp]
  00006	53		 push	 ebx
  00007	8b 98 18 06 00
	00		 mov	 ebx, DWORD PTR [eax+1560]
  0000d	85 db		 test	 ebx, ebx
  0000f	75 07		 jne	 SHORT $LN5@IsArcaBatt

; 582  : 	{
; 583  : 		return false;

  00011	33 c0		 xor	 eax, eax
  00013	5b		 pop	 ebx

; 598  : }

  00014	5d		 pop	 ebp
  00015	c2 04 00	 ret	 4
$LN5@IsArcaBatt:
  00018	56		 push	 esi
  00019	57		 push	 edi

; 584  : 	}
; 585  : 	// ----
; 586  : 	for( int i = 0; i < AB_MAX_BATTLEPOS; i++ )

  0001a	33 ff		 xor	 edi, edi
  0001c	8d b1 b8 33 00
	00		 lea	 esi, DWORD PTR [ecx+13240]
$LN21@IsArcaBatt:

; 587  : 	{
; 588  : 		if( !strcmp(obj.lpGuild->Name, this->m_stABWinGuildInfo[i].szGuildName) )

  00022	8d 53 04	 lea	 edx, DWORD PTR [ebx+4]
  00025	8d 46 f4	 lea	 eax, DWORD PTR [esi-12]
  00028	8b ca		 mov	 ecx, edx
  0002a	66 0f 1f 44 00
	00		 npad	 6
$LL15@IsArcaBatt:
  00030	8a 11		 mov	 dl, BYTE PTR [ecx]
  00032	3a 10		 cmp	 dl, BYTE PTR [eax]
  00034	75 1a		 jne	 SHORT $LN16@IsArcaBatt
  00036	84 d2		 test	 dl, dl
  00038	74 12		 je	 SHORT $LN17@IsArcaBatt
  0003a	8a 51 01	 mov	 dl, BYTE PTR [ecx+1]
  0003d	3a 50 01	 cmp	 dl, BYTE PTR [eax+1]
  00040	75 0e		 jne	 SHORT $LN16@IsArcaBatt
  00042	83 c1 02	 add	 ecx, 2
  00045	83 c0 02	 add	 eax, 2
  00048	84 d2		 test	 dl, dl
  0004a	75 e4		 jne	 SHORT $LL15@IsArcaBatt
$LN17@IsArcaBatt:
  0004c	33 c0		 xor	 eax, eax
  0004e	eb 05		 jmp	 SHORT $LN18@IsArcaBatt
$LN16@IsArcaBatt:
  00050	1b c0		 sbb	 eax, eax
  00052	83 c8 01	 or	 eax, 1
$LN18@IsArcaBatt:
  00055	85 c0		 test	 eax, eax
  00057	75 06		 jne	 SHORT $LN2@IsArcaBatt

; 589  : 		{
; 590  : 			if( obj.lpGuild->Number == this->m_stABWinGuildInfo[i].dwGuild )

  00059	8b 03		 mov	 eax, DWORD PTR [ebx]
  0005b	3b 06		 cmp	 eax, DWORD PTR [esi]
  0005d	74 12		 je	 SHORT $LN10@IsArcaBatt
$LN2@IsArcaBatt:

; 584  : 	}
; 585  : 	// ----
; 586  : 	for( int i = 0; i < AB_MAX_BATTLEPOS; i++ )

  0005f	47		 inc	 edi
  00060	83 c6 14	 add	 esi, 20			; 00000014H
  00063	83 ff 05	 cmp	 edi, 5
  00066	7c ba		 jl	 SHORT $LN21@IsArcaBatt

; 593  : 			}
; 594  : 		}
; 595  : 	}
; 596  : 	// ----
; 597  : 	return false;

  00068	5f		 pop	 edi
  00069	5e		 pop	 esi
  0006a	33 c0		 xor	 eax, eax
  0006c	5b		 pop	 ebx

; 598  : }

  0006d	5d		 pop	 ebp
  0006e	c2 04 00	 ret	 4
$LN10@IsArcaBatt:
  00071	5f		 pop	 edi
  00072	5e		 pop	 esi

; 591  : 			{
; 592  : 				return true;

  00073	b8 01 00 00 00	 mov	 eax, 1
  00078	5b		 pop	 ebx

; 598  : }

  00079	5d		 pop	 ebp
  0007a	c2 04 00	 ret	 4
?IsArcaBattleWinGuild@CArcaBattle@@QAEHAAUOBJECTSTRUCT@@@Z ENDP ; CArcaBattle::IsArcaBattleWinGuild
_TEXT	ENDS
; Function compile flags: /Ogtp
; File c:\users\michel\desktop\source\gameserver\source\arcabattle.cpp
;	COMDAT ?AddArcaBattleWinGuildInfo@CArcaBattle@@QAEXPAU_stABWinGuildInfoDS@@H@Z
_TEXT	SEGMENT
_this$1$ = -12						; size = 4
tv611 = -8						; size = 4
_i$1$ = -4						; size = 4
tv610 = 8						; size = 4
_pABWinGuildInfoDS$ = 8					; size = 4
_iGuildCnt$ = 12					; size = 4
?AddArcaBattleWinGuildInfo@CArcaBattle@@QAEXPAU_stABWinGuildInfoDS@@H@Z PROC ; CArcaBattle::AddArcaBattleWinGuildInfo, COMDAT
; _this$ = ecx

; 550  : {

  00000	55		 push	 ebp
  00001	8b ec		 mov	 ebp, esp
  00003	83 ec 0c	 sub	 esp, 12			; 0000000cH
  00006	8b c1		 mov	 eax, ecx
  00008	57		 push	 edi

; 551  : 	for( int i = 0; i < this->m_iWinGuildCnt; i++ )

  00009	33 ff		 xor	 edi, edi
  0000b	89 45 f4	 mov	 DWORD PTR _this$1$[ebp], eax
  0000e	89 7d fc	 mov	 DWORD PTR _i$1$[ebp], edi
  00011	39 b8 10 34 00
	00		 cmp	 DWORD PTR [eax+13328], edi
  00017	0f 8e b6 00 00
	00		 jle	 $LN3@AddArcaBat
  0001d	8b 4d 08	 mov	 ecx, DWORD PTR _pABWinGuildInfoDS$[ebp]
  00020	53		 push	 ebx
  00021	8d 98 be 33 00
	00		 lea	 ebx, DWORD PTR [eax+13246]
  00027	83 c1 10	 add	 ecx, 16			; 00000010H
  0002a	56		 push	 esi
  0002b	89 5d f8	 mov	 DWORD PTR tv611[ebp], ebx
  0002e	89 4d 08	 mov	 DWORD PTR tv610[ebp], ecx
$LL4@AddArcaBat:

; 552  : 	{
; 553  : 		memcpy(this->m_stABWinGuildInfo[i].szGuildName, pABWinGuildInfoDS[i].szGuildName, 9); //MAX_GUILD_NAME define

  00031	f3 0f 7e 41 f0	 movq	 xmm0, QWORD PTR [ecx-16]
  00036	8d 53 ee	 lea	 edx, DWORD PTR [ebx-18]
  00039	66 0f d6 02	 movq	 QWORD PTR [edx], xmm0
  0003d	8a 41 f8	 mov	 al, BYTE PTR [ecx-8]
  00040	88 42 08	 mov	 BYTE PTR [edx+8], al

; 554  : 		this->m_stABWinGuildInfo[i].dwGuild			= pABWinGuildInfoDS[i].dwGuild;

  00043	8b 41 fc	 mov	 eax, DWORD PTR [ecx-4]
  00046	89 43 fa	 mov	 DWORD PTR [ebx-6], eax

; 555  : 		this->m_stABWinGuildInfo[i].wOccupyObelisk	= pABWinGuildInfoDS[i].wOccupyObelisk;

  00049	0f b7 01	 movzx	 eax, WORD PTR [ecx]
  0004c	66 89 43 fe	 mov	 WORD PTR [ebx-2], ax

; 556  : 		this->m_stABWinGuildInfo[i].wObeliskGroup	= pABWinGuildInfoDS[i].wObeliskGroup;

  00050	0f b7 41 02	 movzx	 eax, WORD PTR [ecx+2]

; 557  : 		// ----
; 558  : 		_GUILD_INFO_STRUCT * lpGuild = Guild.SearchGuild(this->m_stABWinGuildInfo[i].szGuildName);

  00054	b9 00 00 00 00	 mov	 ecx, OFFSET ?Guild@@3VCGuildClass@@A ; Guild
  00059	52		 push	 edx
  0005a	66 89 03	 mov	 WORD PTR [ebx], ax
  0005d	e8 00 00 00 00	 call	 ?SearchGuild@CGuildClass@@QAEPAU_GUILD_INFO_STRUCT@@PAD@Z ; CGuildClass::SearchGuild
  00062	8b d8		 mov	 ebx, eax

; 559  : 		// ----
; 560  : 		if( lpGuild != NULL )

  00064	85 db		 test	 ebx, ebx
  00066	74 29		 je	 SHORT $LN6@AddArcaBat

; 561  : 		{
; 562  : 			for( int nGuildCnt = 0; nGuildCnt < lpGuild->Count; nGuildCnt++ )

  00068	33 f6		 xor	 esi, esi
  0006a	80 7b 2d 00	 cmp	 BYTE PTR [ebx+45], 0
  0006e	76 21		 jbe	 SHORT $LN6@AddArcaBat
  00070	8d bb a0 03 00
	00		 lea	 edi, DWORD PTR [ebx+928]
$LL7@AddArcaBat:

; 563  : 			{
; 564  : 				if( gObjIsConnected(lpGuild->Index[nGuildCnt]) == 1 )

  00076	0f bf 07	 movsx	 eax, WORD PTR [edi]
  00079	50		 push	 eax
  0007a	e8 00 00 00 00	 call	 ?gObjIsConnected@@YAHH@Z ; gObjIsConnected
  0007f	0f b6 43 2d	 movzx	 eax, BYTE PTR [ebx+45]
  00083	8d 7f 02	 lea	 edi, DWORD PTR [edi+2]
  00086	46		 inc	 esi
  00087	83 c4 04	 add	 esp, 4
  0008a	3b f0		 cmp	 esi, eax
  0008c	7c e8		 jl	 SHORT $LL7@AddArcaBat
  0008e	8b 7d fc	 mov	 edi, DWORD PTR _i$1$[ebp]
$LN6@AddArcaBat:

; 565  : 				{
; 566  : 					this->WinGuildMemberAddBuff(&gObj[lpGuild->Index[nGuildCnt]], this->m_stABWinGuildInfo[i].wOccupyObelisk);
; 567  : 				}
; 568  : 			}
; 569  : 		}
; 570  : 		// ----
; 571  : 		LogAddTD("[ArcaBattle] Add Winning Guild Info GuildName[%s] ObeliskAttr[%d] ObeliskGroup[%d]",

  00091	8b 5d f8	 mov	 ebx, DWORD PTR tv611[ebp]
  00094	0f b7 03	 movzx	 eax, WORD PTR [ebx]
  00097	50		 push	 eax
  00098	0f b7 43 fe	 movzx	 eax, WORD PTR [ebx-2]
  0009c	50		 push	 eax
  0009d	8d 43 ee	 lea	 eax, DWORD PTR [ebx-18]
  000a0	50		 push	 eax
  000a1	68 00 00 00 00	 push	 OFFSET ??_C@_0FD@GHIBJCOE@?$FLArcaBattle?$FN?5Add?5Winning?5Guild?5I@
  000a6	ff 15 00 00 00
	00		 call	 DWORD PTR ?LogAddTD@@3P6AXPADZZA ; LogAddTD
  000ac	8b 45 f4	 mov	 eax, DWORD PTR _this$1$[ebp]
  000af	47		 inc	 edi
  000b0	8b 4d 08	 mov	 ecx, DWORD PTR tv610[ebp]
  000b3	83 c3 14	 add	 ebx, 20			; 00000014H
  000b6	83 c1 14	 add	 ecx, 20			; 00000014H
  000b9	89 7d fc	 mov	 DWORD PTR _i$1$[ebp], edi
  000bc	83 c4 10	 add	 esp, 16			; 00000010H
  000bf	89 4d 08	 mov	 DWORD PTR tv610[ebp], ecx
  000c2	89 5d f8	 mov	 DWORD PTR tv611[ebp], ebx
  000c5	3b b8 10 34 00
	00		 cmp	 edi, DWORD PTR [eax+13328]
  000cb	0f 8c 60 ff ff
	ff		 jl	 $LL4@AddArcaBat
  000d1	5e		 pop	 esi
  000d2	5b		 pop	 ebx
$LN3@AddArcaBat:
  000d3	5f		 pop	 edi

; 572  : 			this->m_stABWinGuildInfo[i].szGuildName, this->m_stABWinGuildInfo[i].wOccupyObelisk,
; 573  : 			this->m_stABWinGuildInfo[i].wObeliskGroup);
; 574  : 	}
; 575  : }

  000d4	8b e5		 mov	 esp, ebp
  000d6	5d		 pop	 ebp
  000d7	c2 08 00	 ret	 8
?AddArcaBattleWinGuildInfo@CArcaBattle@@QAEXPAU_stABWinGuildInfoDS@@H@Z ENDP ; CArcaBattle::AddArcaBattleWinGuildInfo
_TEXT	ENDS
; Function compile flags: /Ogtp
; File c:\users\michel\desktop\source\gameserver\source\arcabattle.cpp
; File c:\users\michel\desktop\source\gameserver\source\arcabattle.h
; File c:\users\michel\desktop\source\gameserver\source\arcabattle.cpp
;	COMDAT ?GDReqProcState@CArcaBattle@@QAEXXZ
_TEXT	SEGMENT
_pMsg$ = -4						; size = 4
?GDReqProcState@CArcaBattle@@QAEXXZ PROC		; CArcaBattle::GDReqProcState, COMDAT
; _this$ = ecx

; 2011 : {

  00000	55		 push	 ebp
  00001	8b ec		 mov	 ebp, esp
  00003	51		 push	 ecx
  00004	56		 push	 esi
  00005	8b f1		 mov	 esi, ecx

; 2012 : 	if( this->IsArcaBattleServer() == false )

  00007	e8 00 00 00 00	 call	 ?IsArcaBattleServer@CArcaBattle@@QAEHXZ ; CArcaBattle::IsArcaBattleServer
  0000c	85 c0		 test	 eax, eax
  0000e	74 21		 je	 SHORT $LN1@GDReqProcS

; 2013 : 	{
; 2014 : 		return;
; 2015 : 	}
; 2016 : 	// ----
; 2017 : 	_tagPMSG_REQ_AB_PROC_STATE_DS pMsg;
; 2018 : 	// ----
; 2019 : 	pMsg.h.c		= 0xC1;
; 2020 :     pMsg.h.size		= sizeof(_tagPMSG_REQ_AB_PROC_STATE_DS);
; 2021 :     pMsg.h.headcode = 0xF8;
; 2022 :     pMsg.h.subcode	= 0x3F;
; 2023 :     cDBSMng.Send((PCHAR)&pMsg, pMsg.h.size);

  00010	6a 04		 push	 4
  00012	8d 45 fc	 lea	 eax, DWORD PTR _pMsg$[ebp]
  00015	c7 45 fc c1 04
	f8 3f		 mov	 DWORD PTR _pMsg$[ebp], 1073218753 ; 3ff804c1H
  0001c	50		 push	 eax
  0001d	b9 00 00 00 00	 mov	 ecx, OFFSET ?cDBSMng@@3VDBSockMng@@A ; cDBSMng
  00022	e8 00 00 00 00	 call	 ?Send@DBSockMng@@QAEHPADH@Z ; DBSockMng::Send
; File c:\users\michel\desktop\source\gameserver\source\arcabattle.h

; 538  : 	void	SetDataLoadProcState(BOOL bReqABProcState) { this->m_bReqABProcState = bReqABProcState; };

  00027	c7 86 24 34 00
	00 01 00 00 00	 mov	 DWORD PTR [esi+13348], 1
$LN1@GDReqProcS:
  00031	5e		 pop	 esi
; File c:\users\michel\desktop\source\gameserver\source\arcabattle.cpp

; 2026 : }

  00032	8b e5		 mov	 esp, ebp
  00034	5d		 pop	 ebp
  00035	c3		 ret	 0
?GDReqProcState@CArcaBattle@@QAEXXZ ENDP		; CArcaBattle::GDReqProcState
_TEXT	ENDS
; Function compile flags: /Ogtp
; File c:\users\michel\desktop\source\gameserver\source\arcabattle.cpp
;	COMDAT ?GDReqWinGuildInfo@CArcaBattle@@QAEXXZ
_TEXT	SEGMENT
_pMsg$ = -8						; size = 6
?GDReqWinGuildInfo@CArcaBattle@@QAEXXZ PROC		; CArcaBattle::GDReqWinGuildInfo, COMDAT
; _this$ = ecx

; 1996 : {

  00000	55		 push	 ebp
  00001	8b ec		 mov	 ebp, esp
  00003	83 ec 08	 sub	 esp, 8
  00006	56		 push	 esi

; 1997 : 	_tagPMSG_REQ_AB_WIN_GUILD_INFO_DS pMsg;
; 1998 : 	// ----
; 1999 : 	pMsg.h.c		= 0xC1;
; 2000 : 	pMsg.h.size		= sizeof(_tagPMSG_REQ_AB_WIN_GUILD_INFO_DS);
; 2001 : 	pMsg.h.headcode = 0xF8;
; 2002 : 	pMsg.h.subcode	= 0x39;
; 2003 : 	cDBSMng.Send((PCHAR)&pMsg, pMsg.h.size);

  00007	6a 06		 push	 6
  00009	8d 45 f8	 lea	 eax, DWORD PTR _pMsg$[ebp]
  0000c	c7 45 fa f8 39
	00 00		 mov	 DWORD PTR _pMsg$[ebp+2], 14840 ; 000039f8H
  00013	8b f1		 mov	 esi, ecx
  00015	66 c7 45 f8 c1
	06		 mov	 WORD PTR _pMsg$[ebp], 1729 ; 000006c1H
  0001b	50		 push	 eax
  0001c	b9 00 00 00 00	 mov	 ecx, OFFSET ?cDBSMng@@3VDBSockMng@@A ; cDBSMng
  00021	e8 00 00 00 00	 call	 ?Send@DBSockMng@@QAEHPADH@Z ; DBSockMng::Send

; 2004 : 	// ----
; 2005 : 	this->m_bReqABWinGuildInfo = true;

  00026	c7 86 20 34 00
	00 01 00 00 00	 mov	 DWORD PTR [esi+13344], 1
  00030	5e		 pop	 esi

; 2006 : }

  00031	8b e5		 mov	 esp, ebp
  00033	5d		 pop	 ebp
  00034	c3		 ret	 0
?GDReqWinGuildInfo@CArcaBattle@@QAEXXZ ENDP		; CArcaBattle::GDReqWinGuildInfo
_TEXT	ENDS
; Function compile flags: /Ogtp
; File c:\users\michel\desktop\source\gameserver\source\arcabattle.cpp
; File c:\users\michel\desktop\source\gameserver\source\arcabattle.h
; File c:\users\michel\desktop\source\gameserver\source\arcabattle.cpp
; File c:\users\michel\desktop\source\gameserver\source\arcabattle.h
; File c:\users\michel\desktop\source\gameserver\source\arcabattle.cpp
;	COMDAT ?Clear@CArcaBattle@@QAEXXZ
_TEXT	SEGMENT
?Clear@CArcaBattle@@QAEXXZ PROC				; CArcaBattle::Clear, COMDAT
; _this$ = ecx

; 45   : {

  00000	56		 push	 esi
  00001	8b f1		 mov	 esi, ecx
  00003	0f 57 c0	 xorps	 xmm0, xmm0

; 46   : 	this->m_iCurUserCount		= 0;

  00006	c7 86 a8 34 00
	00 00 00 00 00	 mov	 DWORD PTR [esi+13480], 0

; 47   : 	ZeroMemory(&this->m_tmStartDate, sizeof(SYSTEMTIME));

  00010	0f 11 86 64 34
	00 00		 movups	 XMMWORD PTR [esi+13412], xmm0

; 48   : 	this->m_iAB_REMAIN_MSEC		= 0;

  00017	c7 86 30 34 00
	00 00 00 00 00	 mov	 DWORD PTR [esi+13360], 0

; 49   : 	this->m_iAB_TICK_COUNT		= 0;

  00021	c7 86 34 34 00
	00 00 00 00 00	 mov	 DWORD PTR [esi+13364], 0

; 50   : 	this->m_iAB_NOTIFY_COUNT	= 0;

  0002b	c7 86 38 34 00
	00 00 00 00 00	 mov	 DWORD PTR [esi+13368], 0

; 51   : 	this->m_dwAB_TICK_COUNT_SEC = 0;

  00035	c7 86 7c 34 00
	00 00 00 00 00	 mov	 DWORD PTR [esi+13436], 0

; 52   : 	this->m_bAB_CAN_ENTER		= 0;

  0003f	c7 86 3c 34 00
	00 00 00 00 00	 mov	 DWORD PTR [esi+13372], 0

; 53   : 	this->m_bAB_MSG_BEFORE_PLAY = 0;
; 54   : 	this->m_bAB_MSG_BEFORE_END	= 0;
; 55   : 	this->m_bAB_PLAY_START		= 0;
; 56   : 	this->m_bAns_PLAY_START		= 0;

  00049	c6 86 40 34 00
	00 00		 mov	 BYTE PTR [esi+13376], 0

; 57   : 	// ----
; 58   : 	this->SetRandomObeliskAttr();

  00050	e8 00 00 00 00	 call	 ?SetRandomObeliskAttr@CArcaBattle@@QAEXXZ ; CArcaBattle::SetRandomObeliskAttr
  00055	8d 86 cc 13 00
	00		 lea	 eax, DWORD PTR [esi+5068]
  0005b	b9 2c 01 00 00	 mov	 ecx, 300		; 0000012cH
$LL4@Clear:

; 62   : 	for( i = 0; i < AB_MAX_PLAYER; i++ )

  00060	8d 40 18	 lea	 eax, DWORD PTR [eax+24]
  00063	0f 57 c0	 xorps	 xmm0, xmm0
; File c:\users\michel\desktop\source\gameserver\source\arcabattle.h

; 111  : 		memset(this->szCharName, 0, 11);

  00066	66 0f d6 40 d4	 movq	 QWORD PTR [eax-44], xmm0
  0006b	c7 40 dc 00 00
	00 00		 mov	 DWORD PTR [eax-36], 0

; 90   : 		this->dwBootyCnt			= 0;

  00072	c7 40 e0 00 00
	00 00		 mov	 DWORD PTR [eax-32], 0

; 91   : 		this->dwContributePoints	= 0;

  00079	c7 40 e4 00 00
	00 00		 mov	 DWORD PTR [eax-28], 0

; 92   : 		this->dwKillPoints			= 0;

  00080	c7 40 e8 00 00
	00 00		 mov	 DWORD PTR [eax-24], 0
; File c:\users\michel\desktop\source\gameserver\source\arcabattle.cpp

; 62   : 	for( i = 0; i < AB_MAX_PLAYER; i++ )

  00087	83 e9 01	 sub	 ecx, 1
  0008a	75 d4		 jne	 SHORT $LL4@Clear
; File c:\users\michel\desktop\source\gameserver\source\arcabattle.h

; 472  : 		this->nGuildNum = -1;

  0008c	c7 86 a8 79 02
	00 ff ff ff ff	 mov	 DWORD PTR [esi+162216], -1
  00096	c7 86 b0 79 02
	00 ff ff ff ff	 mov	 DWORD PTR [esi+162224], -1

; 473  : 		this->bLogPrint = 0;

  000a0	88 8e ac 79 02
	00		 mov	 BYTE PTR [esi+162220], cl
  000a6	88 8e b4 79 02
	00		 mov	 BYTE PTR [esi+162228], cl
  000ac	c7 86 b8 79 02
	00 ff ff ff ff	 mov	 DWORD PTR [esi+162232], -1
  000b6	88 8e bc 79 02
	00		 mov	 BYTE PTR [esi+162236], cl
  000bc	c7 86 c0 79 02
	00 ff ff ff ff	 mov	 DWORD PTR [esi+162240], -1
  000c6	88 8e c4 79 02
	00		 mov	 BYTE PTR [esi+162244], cl
  000cc	c7 86 c8 79 02
	00 ff ff ff ff	 mov	 DWORD PTR [esi+162248], -1
  000d6	88 8e cc 79 02
	00		 mov	 BYTE PTR [esi+162252], cl
  000dc	c7 86 d0 79 02
	00 ff ff ff ff	 mov	 DWORD PTR [esi+162256], -1
  000e6	88 8e d4 79 02
	00		 mov	 BYTE PTR [esi+162260], cl
  000ec	c7 86 d8 79 02
	00 ff ff ff ff	 mov	 DWORD PTR [esi+162264], -1
  000f6	88 8e dc 79 02
	00		 mov	 BYTE PTR [esi+162268], cl
  000fc	c7 86 e0 79 02
	00 ff ff ff ff	 mov	 DWORD PTR [esi+162272], -1
  00106	88 8e e4 79 02
	00		 mov	 BYTE PTR [esi+162276], cl
  0010c	c7 86 e8 79 02
	00 ff ff ff ff	 mov	 DWORD PTR [esi+162280], -1
  00116	88 8e ec 79 02
	00		 mov	 BYTE PTR [esi+162284], cl
  0011c	c7 86 f0 79 02
	00 ff ff ff ff	 mov	 DWORD PTR [esi+162288], -1
  00126	88 8e f4 79 02
	00		 mov	 BYTE PTR [esi+162292], cl

; 112  : 		this->bBootyDrop = 0;
; 113  : 		this->m_stAcquiredPoints.Clear();
; 114  : 	};
; 115  : };
; 116  : // -------------------------------------------------------------------------------
; 117  : 
; 118  : struct _stABWinGuildInfo
; 119  : {
; 120  : 	char	szGuildName[9];
; 121  : 	DWORD	dwGuild;
; 122  : 	WORD	wOccupyObelisk;
; 123  : 	WORD	wObeliskGroup;
; 124  : 	// ----
; 125  : 	_stABWinGuildInfo::_stABWinGuildInfo() //Line: 145
; 126  : 	{
; 127  : 		memset(this->szGuildName, 0, 9);
; 128  : 		this->dwGuild			= 0;
; 129  : 		this->wOccupyObelisk	= 0;
; 130  : 		this->wObeliskGroup		= 0;
; 131  : 	};
; 132  : 	// ----
; 133  : 	void _stABWinGuildInfo::Clear() //Line: 155
; 134  : 	{
; 135  : 		memset(this->szGuildName, 0, 9);
; 136  : 		this->dwGuild			= 0;
; 137  : 		this->wOccupyObelisk	= 0;
; 138  : 		this->wObeliskGroup		= 0;
; 139  : 	};
; 140  : };
; 141  : // -------------------------------------------------------------------------------
; 142  : 
; 143  : struct _tagARCA_BATTLE_BOOTY_REWARD
; 144  : {
; 145  :     int		iItemLink;
; 146  :     int		iItemType;
; 147  :     int		iItemIndex;
; 148  :     int		iItemLevel;
; 149  :     int		iDurab;
; 150  :     int		iRate;
; 151  : 	// ----
; 152  : 	_tagARCA_BATTLE_BOOTY_REWARD::_tagARCA_BATTLE_BOOTY_REWARD() //Line: 194
; 153  : 	{
; 154  : 		this->iItemLink		= 0;
; 155  : 		this->iItemType		= 0;
; 156  : 		this->iItemIndex	= 0;
; 157  : 		this->iItemLevel	= 0;
; 158  : 		this->iDurab		= 0;
; 159  : 		this->iRate			= 0;
; 160  : 	};
; 161  : };
; 162  : // -------------------------------------------------------------------------------
; 163  : 
; 164  : struct _tagARCA_BATTLE_BOOTY_MIX
; 165  : {
; 166  :     int		iItemLink;
; 167  :     int		iMinCnt;
; 168  :     int		iMaxCnt;
; 169  :     int		iBaseRate;
; 170  :     int		iAddRate;
; 171  :     int		iBootyRewardCnt;
; 172  :     _tagARCA_BATTLE_BOOTY_REWARD stBootyReward[20];
; 173  : 	// ----
; 174  : 	_tagARCA_BATTLE_BOOTY_MIX::_tagARCA_BATTLE_BOOTY_MIX() //Line: 216
; 175  : 	{
; 176  : 		this->iItemLink			= 0;
; 177  : 		this->iMinCnt			= 0;
; 178  : 		this->iMaxCnt			= 0;
; 179  : 		this->iBaseRate			= 0;
; 180  : 		this->iAddRate			= 0;
; 181  : 		this->iBootyRewardCnt	= 0;
; 182  : 	};
; 183  : };
; 184  : // -------------------------------------------------------------------------------
; 185  : 
; 186  : struct _tagARCA_BATTLE_START_TIME
; 187  : {
; 188  :     int		m_iHour;
; 189  :     int		m_iMinute;
; 190  :     BYTE	m_btEvent;
; 191  : 	// ----
; 192  : 	_tagARCA_BATTLE_START_TIME::_tagARCA_BATTLE_START_TIME() //Line: 237
; 193  : 	{
; 194  : 		this->m_iHour	= 0;
; 195  : 		this->m_iMinute = 0;
; 196  : 		this->m_btEvent = 0;
; 197  : 	};
; 198  : };
; 199  : // -------------------------------------------------------------------------------
; 200  : 
; 201  : struct _tagAURA_INFO
; 202  : {
; 203  :     int		m_iGroupNumber;
; 204  :     int		m_iMapIndex;
; 205  :     int		m_iAuraPosX;
; 206  :     int		m_iAuraPosY;
; 207  : 	// ----
; 208  : 	_tagAURA_INFO::_tagAURA_INFO() //Line: 253
; 209  : 	{
; 210  : 		this->m_iMapIndex		= -1;
; 211  : 		this->m_iGroupNumber	= -1;
; 212  : 		this->m_iAuraPosX		= -1;
; 213  : 		this->m_iAuraPosY		= -1;
; 214  : 	};
; 215  : };
; 216  : // -------------------------------------------------------------------------------
; 217  : 
; 218  : struct _tagOBELISK_INFO
; 219  : {
; 220  :     int		m_iGroupNumber;
; 221  :     int		m_iAttrKind;
; 222  :     int		m_iHP;
; 223  :     int		m_iOccupyHP;
; 224  :     int		m_iMapIndex;
; 225  :     int		m_iPosX;
; 226  :     int		m_iPosY;
; 227  :     int		m_iMonsterNum;
; 228  :     DWORD	m_dwTick;
; 229  :     DWORD	m_dwRegenTime;
; 230  :     _tagAURA_INFO m_stAuraInfo[3];
; 231  : 	// ----
; 232  : 	_tagOBELISK_INFO::_tagOBELISK_INFO() //Line: 278
; 233  : 	{
; 234  : 		this->m_iGroupNumber	= 0;
; 235  : 		this->m_iAttrKind		= 0;
; 236  : 		this->m_iMapIndex		= -1;
; 237  : 		this->m_iHP				= 0;
; 238  : 		this->m_iOccupyHP		= 0;
; 239  : 		this->m_iPosX			= -1;
; 240  : 		this->m_iPosY			= -1;
; 241  : 		this->m_iMonsterNum		= 0;
; 242  : 		this->m_dwTick			= 0;
; 243  : 		this->m_dwRegenTime		= 0;
; 244  : 		memset(this->m_stAuraInfo, -1, 48);	//sizeof(m_stAuraInfo)?
; 245  : 	};
; 246  : };
; 247  : // -------------------------------------------------------------------------------
; 248  : 
; 249  : struct _tagAURA_STATE
; 250  : {
; 251  :     int		m_iGroupNumber;
; 252  :     BYTE	m_btAuraState;
; 253  :     int		m_iHoverUserIndex;
; 254  :     int		m_iIndex;
; 255  : 	// ----
; 256  : 	_tagAURA_STATE::_tagAURA_STATE() //Line: 302
; 257  : 	{
; 258  : 		this->m_iGroupNumber	= -1;
; 259  : 		this->m_btAuraState		= 0;
; 260  : 		this->m_iHoverUserIndex = 0;
; 261  : 		this->m_iIndex			= -1;
; 262  : 	};
; 263  : };
; 264  : // -------------------------------------------------------------------------------
; 265  : 
; 266  : struct _tagOBELISK_STATE
; 267  : {
; 268  :     int		m_iGroupNumber;
; 269  :     int		m_iMonIndex;
; 270  :     int		m_iAuraState;
; 271  :     int		m_iAuraReleaseGuildNum;
; 272  :     int		m_iObeliskState;
; 273  :     int		m_iOccupyGuildNum;
; 274  :     char	m_szOccupyGuildName[9];
; 275  :     _tagAURA_STATE m_stAuraState[3];
; 276  : 	// ----
; 277  : 	_tagOBELISK_STATE::_tagOBELISK_STATE() //Line: 324
; 278  : 	{
; 279  : 		this->m_iGroupNumber			= -1;
; 280  : 		this->m_iMonIndex				= -1;
; 281  : 		this->m_iAuraState				= 0;
; 282  : 		this->m_iAuraReleaseGuildNum	= -1;
; 283  : 		this->m_iOccupyGuildNum			= -1;
; 284  : 		this->m_iObeliskState			= 0;
; 285  : 		memset(this->m_szOccupyGuildName, 0, 9);
; 286  : 		memset(this->m_stAuraState, -1, 48);
; 287  : 	};
; 288  : 	// ----
; 289  : 	void _tagOBELISK_STATE::Clear() //Line: 338
; 290  : 	{
; 291  : 		this->m_iGroupNumber			= -1;
; 292  : 		this->m_iMonIndex				= -1;
; 293  : 		this->m_iAuraState				= 0;
; 294  : 		this->m_iAuraReleaseGuildNum	= -1;
; 295  : 		this->m_iOccupyGuildNum			= -1;
; 296  : 		this->m_iObeliskState			= 0;
; 297  : 		memset(this->m_szOccupyGuildName, 0, 9);
; 298  : 		memset(this->m_stAuraState, -1, 48);
; 299  : 	};
; 300  : };
; 301  : // -------------------------------------------------------------------------------
; 302  : 
; 303  : struct _tagARCA_BATTLE_RESULT_INFO
; 304  : {
; 305  :     int		iGuildNum;
; 306  :     int		iObeliskAttrKind;
; 307  : 	// ----
; 308  : 	_tagARCA_BATTLE_RESULT_INFO::_tagARCA_BATTLE_RESULT_INFO() //Line: 358
; 309  : 	{
; 310  : 		this->iGuildNum			= 0;
; 311  : 		this->iObeliskAttrKind	= 0;
; 312  : 	};
; 313  : };
; 314  : // -------------------------------------------------------------------------------
; 315  : 
; 316  : struct _tagOccupyGuildInfo
; 317  : {
; 318  :     int		iObeliskGroupNum;
; 319  :     int		iGuildNum;
; 320  :     int		iObeliskAttrKind;
; 321  :     long	nDuration;
; 322  : 	// ----
; 323  : 	_tagOccupyGuildInfo::_tagOccupyGuildInfo() //Line: 373
; 324  : 	{
; 325  : 		//Unfilled
; 326  : 	};
; 327  : };
; 328  : // -------------------------------------------------------------------------------
; 329  : 
; 330  : struct _stABMonAccountNumInfo
; 331  : {
; 332  :     int		m_nIndex;
; 333  :     bool	bItemDrop;
; 334  : 	// ----
; 335  : 	_stABMonAccountNumInfo::_stABMonAccountNumInfo() //Line: 398
; 336  : 	{
; 337  : 		this->bItemDrop = 0;
; 338  : 		this->m_nIndex	= -1;
; 339  : 	};
; 340  : };
; 341  : // -------------------------------------------------------------------------------
; 342  : 
; 343  : struct _stABMonGroupInfo
; 344  : {
; 345  :     int		m_nGroupNumber;
; 346  :     int		m_nMapNumber;
; 347  :     int		m_nCnt;
; 348  :     int		m_nRegenTimeMin;
; 349  :     DWORD	m_dwNextRegenTime;
; 350  :     _stABMonAccountNumInfo m_stMonsterAccountNumInfo[255];
; 351  : 	// ----
; 352  : 	_stABMonGroupInfo::_stABMonGroupInfo() //Line: 417
; 353  : 	{
; 354  : 		this->m_nGroupNumber	= -1;
; 355  : 		this->m_nMapNumber		= -1;
; 356  : 		this->m_nCnt			= 0;
; 357  : 		this->m_nRegenTimeMin	= 0;
; 358  : 		this->m_dwNextRegenTime = 0;
; 359  : 	};
; 360  : };
; 361  : // -------------------------------------------------------------------------------
; 362  : 
; 363  : struct _stABMonIndexInf
; 364  : {
; 365  :     int		m_nMonsterIndex;
; 366  : 	// ----
; 367  : 	_stABMonIndexInf::_stABMonIndexInf() //Line: 431
; 368  : 	{
; 369  : 		this->m_nMonsterIndex = -1;
; 370  : 	};
; 371  : };
; 372  : // -------------------------------------------------------------------------------
; 373  : 
; 374  : struct _stABMonRegenArea
; 375  : {
; 376  :     int		m_nBeginX;
; 377  :     int		m_nBeginY;
; 378  :     int		m_nEndX;
; 379  :     int		m_nEndY;
; 380  : 	// ----
; 381  : 	_stABMonRegenArea::_stABMonRegenArea() //Line: 443
; 382  : 	{
; 383  : 		this->m_nBeginX = -1;
; 384  : 		this->m_nBeginY = -1;
; 385  : 		this->m_nEndX	= -1;
; 386  : 		this->m_nEndY	= -1;
; 387  : 	};
; 388  : };
; 389  : // -------------------------------------------------------------------------------
; 390  : 
; 391  : struct _stABMonPosition
; 392  : {
; 393  :     int		m_nGroupNumber;
; 394  :     int		m_nRegenAreaCnt;
; 395  :     int		m_nMonsterKindCnt;
; 396  :     _stABMonRegenArea m_stRegenArea[AB_MAX_MONGROUP];
; 397  :     _stABMonIndexInf m_stMonsterIndexInfo[20];
; 398  : 	// ----
; 399  : 	_stABMonPosition::_stABMonPosition() //Line: 461
; 400  : 	{
; 401  : 		this->m_nGroupNumber	= -1;
; 402  : 		this->m_nRegenAreaCnt	= 0;
; 403  : 	};
; 404  : };
; 405  : // -------------------------------------------------------------------------------
; 406  : 
; 407  : struct _tagAB_USER_AREA	//Other coder
; 408  : {
; 409  :     int		map_number;
; 410  :     int		beginX;
; 411  :     int		beginY;
; 412  :     int		endX;
; 413  :     int		endY;
; 414  : 	// ----
; 415  : 	_tagAB_USER_AREA::_tagAB_USER_AREA() //Line: 477
; 416  : 	{
; 417  : 		this->map_number	= -1;
; 418  : 		this->beginX		= -1;
; 419  : 		this->beginY		= -1;
; 420  : 		this->endX			= -1;
; 421  : 		this->endY			= -1;
; 422  : 	};
; 423  : };
; 424  : // -------------------------------------------------------------------------------
; 425  : 
; 426  : struct _stAB_USER_POSITION //Other coder
; 427  : {
; 428  :     int		group_number;
; 429  :     int		area_cnt;
; 430  :     _tagAB_USER_AREA stUserPos[10];
; 431  : 	// ----
; 432  : 	_stAB_USER_POSITION::_stAB_USER_POSITION() //Line: 495
; 433  : 	{
; 434  : 		this->group_number	= -1;
; 435  : 		this->area_cnt		= 0;
; 436  : 	};
; 437  : };
; 438  : // -------------------------------------------------------------------------------
; 439  : 
; 440  : struct _stAB_GUILD_MASTER_GATE_INFO
; 441  : {
; 442  :     int		nGuildNum;
; 443  :     int		nGateNum;
; 444  : 	// ----
; 445  : 	_stAB_GUILD_MASTER_GATE_INFO::_stAB_GUILD_MASTER_GATE_INFO() //Line: 507
; 446  : 	{
; 447  : 		this->nGuildNum = -1;
; 448  : 		this->nGateNum	= -1;
; 449  : 	};
; 450  : 	// ---
; 451  :     void _stAB_GUILD_MASTER_GATE_INFO::Clear() //Line: 514
; 452  : 	{
; 453  : 		this->nGuildNum = -1;

  0012c	c7 86 44 75 02
	00 ff ff ff ff	 mov	 DWORD PTR [esi+161092], -1
  00136	c7 86 4c 75 02
	00 ff ff ff ff	 mov	 DWORD PTR [esi+161100], -1

; 454  : 		this->nGateNum	= -1;

  00140	c7 86 48 75 02
	00 ff ff ff ff	 mov	 DWORD PTR [esi+161096], -1
  0014a	c7 86 50 75 02
	00 ff ff ff ff	 mov	 DWORD PTR [esi+161104], -1
  00154	c7 86 54 75 02
	00 ff ff ff ff	 mov	 DWORD PTR [esi+161108], -1
  0015e	c7 86 58 75 02
	00 ff ff ff ff	 mov	 DWORD PTR [esi+161112], -1
  00168	c7 86 5c 75 02
	00 ff ff ff ff	 mov	 DWORD PTR [esi+161116], -1
  00172	c7 86 60 75 02
	00 ff ff ff ff	 mov	 DWORD PTR [esi+161120], -1
  0017c	c7 86 64 75 02
	00 ff ff ff ff	 mov	 DWORD PTR [esi+161124], -1
  00186	c7 86 68 75 02
	00 ff ff ff ff	 mov	 DWORD PTR [esi+161128], -1
  00190	c7 86 6c 75 02
	00 ff ff ff ff	 mov	 DWORD PTR [esi+161132], -1
  0019a	c7 86 70 75 02
	00 ff ff ff ff	 mov	 DWORD PTR [esi+161136], -1
  001a4	c7 86 74 75 02
	00 ff ff ff ff	 mov	 DWORD PTR [esi+161140], -1
  001ae	c7 86 78 75 02
	00 ff ff ff ff	 mov	 DWORD PTR [esi+161144], -1
  001b8	c7 86 7c 75 02
	00 ff ff ff ff	 mov	 DWORD PTR [esi+161148], -1
  001c2	c7 86 80 75 02
	00 ff ff ff ff	 mov	 DWORD PTR [esi+161152], -1
  001cc	c7 86 84 75 02
	00 ff ff ff ff	 mov	 DWORD PTR [esi+161156], -1
  001d6	c7 86 88 75 02
	00 ff ff ff ff	 mov	 DWORD PTR [esi+161160], -1
  001e0	c7 86 8c 75 02
	00 ff ff ff ff	 mov	 DWORD PTR [esi+161164], -1
  001ea	c7 86 90 75 02
	00 ff ff ff ff	 mov	 DWORD PTR [esi+161168], -1
  001f4	5e		 pop	 esi
; File c:\users\michel\desktop\source\gameserver\source\arcabattle.cpp

; 76   : }

  001f5	c3		 ret	 0
?Clear@CArcaBattle@@QAEXXZ ENDP				; CArcaBattle::Clear
_TEXT	ENDS
; Function compile flags: /Ogtp
; File c:\users\michel\desktop\source\gameserver\source\arcabattle.cpp
;	COMDAT ?EnableEvent@CArcaBattle@@QAEXH@Z
_TEXT	SEGMENT
_bDoEvent$ = 8						; size = 4
?EnableEvent@CArcaBattle@@QAEXH@Z PROC			; CArcaBattle::EnableEvent, COMDAT
; _this$ = ecx

; 659  : {

  00000	55		 push	 ebp
  00001	8b ec		 mov	 ebp, esp

; 660  : 	//state defines!!
; 661  : 	this->m_bDoEvent = bDoEvent;

  00003	8b 45 08	 mov	 eax, DWORD PTR _bDoEvent$[ebp]
  00006	56		 push	 esi
  00007	8b f1		 mov	 esi, ecx
  00009	89 06		 mov	 DWORD PTR [esi], eax

; 662  : 	// ----
; 663  : 	if( bDoEvent == 1 )

  0000b	83 f8 01	 cmp	 eax, 1
  0000e	75 14		 jne	 SHORT $LN2@EnableEven

; 664  : 	{
; 665  : 		this->SetState(1);	

  00010	50		 push	 eax
  00011	e8 00 00 00 00	 call	 ?SetState@CArcaBattle@@QAEXH@Z ; CArcaBattle::SetState

; 666  : 		this->GDReqArcaBattleProcMultiCast(1);

  00016	6a 01		 push	 1

; 671  : 		this->GDReqArcaBattleProcMultiCast(0);

  00018	8b ce		 mov	 ecx, esi
  0001a	e8 00 00 00 00	 call	 ?GDReqArcaBattleProcMultiCast@CArcaBattle@@QAEXH@Z ; CArcaBattle::GDReqArcaBattleProcMultiCast
  0001f	5e		 pop	 esi

; 672  : 	}
; 673  : }

  00020	5d		 pop	 ebp
  00021	c2 04 00	 ret	 4
$LN2@EnableEven:

; 667  : 	}
; 668  : 	else
; 669  : 	{
; 670  : 		this->SetState(0);

  00024	6a 00		 push	 0
  00026	e8 00 00 00 00	 call	 ?SetState@CArcaBattle@@QAEXH@Z ; CArcaBattle::SetState

; 671  : 		this->GDReqArcaBattleProcMultiCast(0);

  0002b	6a 00		 push	 0
  0002d	8b ce		 mov	 ecx, esi
  0002f	e8 00 00 00 00	 call	 ?GDReqArcaBattleProcMultiCast@CArcaBattle@@QAEXH@Z ; CArcaBattle::GDReqArcaBattleProcMultiCast
  00034	5e		 pop	 esi

; 672  : 	}
; 673  : }

  00035	5d		 pop	 ebp
  00036	c2 04 00	 ret	 4
?EnableEvent@CArcaBattle@@QAEXH@Z ENDP			; CArcaBattle::EnableEvent
_TEXT	ENDS
; Function compile flags: /Ogtp
; File c:\users\michel\desktop\source\gameserver\source\arcabattle.cpp
;	COMDAT ?PrintGuildMemberLog@CArcaBattle@@QAEXPAU_GUILD_INFO_STRUCT@@@Z
_TEXT	SEGMENT
_this$1$ = -16						; size = 4
_nBlank$1$ = -12					; size = 4
tv321 = -8						; size = 4
_i$1$ = -4						; size = 4
_lpGuild$ = 8						; size = 4
?PrintGuildMemberLog@CArcaBattle@@QAEXPAU_GUILD_INFO_STRUCT@@@Z PROC ; CArcaBattle::PrintGuildMemberLog, COMDAT
; _this$ = ecx

; 2955 : {

  00000	55		 push	 ebp
  00001	8b ec		 mov	 ebp, esp
  00003	83 ec 10	 sub	 esp, 16			; 00000010H
  00006	53		 push	 ebx
  00007	56		 push	 esi

; 2956 : 	if( lpGuild == NULL )

  00008	8b 75 08	 mov	 esi, DWORD PTR _lpGuild$[ebp]
  0000b	8b d9		 mov	 ebx, ecx
  0000d	89 5d f0	 mov	 DWORD PTR _this$1$[ebp], ebx
  00010	85 f6		 test	 esi, esi
  00012	75 16		 jne	 SHORT $LN8@PrintGuild

; 2957 : 	{
; 2958 : 		LogAddTD("[ArcaBattle] Error : lpGuild Is NULL - PrintGuildMemberLog()");

  00014	68 00 00 00 00	 push	 OFFSET ??_C@_0DN@IDGEAHF@?$FLArcaBattle?$FN?5Error?5?3?5lpGuild?5Is?5@
  00019	ff 15 00 00 00
	00		 call	 DWORD PTR ?LogAddTD@@3P6AXPADZZA ; LogAddTD
  0001f	83 c4 04	 add	 esp, 4
  00022	5e		 pop	 esi
  00023	5b		 pop	 ebx

; 2991 : 	}
; 2992 : }

  00024	8b e5		 mov	 esp, ebp
  00026	5d		 pop	 ebp
  00027	c2 04 00	 ret	 4
$LN8@PrintGuild:

; 2959 : 		return;
; 2960 : 	}
; 2961 : 	// ----
; 2962 : 	int nBlank = -1;

  0002a	83 ca ff	 or	 edx, -1
  0002d	8d 83 a8 79 02
	00		 lea	 eax, DWORD PTR [ebx+162216]

; 2963 : 	// ----
; 2964 : 	for( int i = 0; i < AB_MAX_INFOLOG; i++ )

  00033	33 c9		 xor	 ecx, ecx
  00035	89 45 f8	 mov	 DWORD PTR tv321[ebp], eax
  00038	89 4d fc	 mov	 DWORD PTR _i$1$[ebp], ecx
  0003b	57		 push	 edi
  0003c	0f 1f 40 00	 npad	 4
$LL4@PrintGuild:

; 2965 :     {
; 2966 : 		if( this->m_stGuildMemberInfoLog[i].nGuildNum >= 0 )

  00040	8b 00		 mov	 eax, DWORD PTR [eax]
  00042	85 c0		 test	 eax, eax
  00044	78 08		 js	 SHORT $LN10@PrintGuild

; 2967 : 		{
; 2968 : 			if( this->m_stGuildMemberInfoLog[i].nGuildNum == lpGuild->Number )

  00046	3b 06		 cmp	 eax, DWORD PTR [esi]
  00048	0f 84 9c 00 00
	00		 je	 $LN24@PrintGuild
$LN10@PrintGuild:

; 2969 : 			{
; 2970 : 				return;
; 2971 : 			}
; 2972 : 		}
; 2973 : 		// ----
; 2974 : 		if( nBlank < 0 )
; 2975 : 		{
; 2976 : 			nBlank = i;
; 2977 : 		}
; 2978 : 		// ----
; 2979 : 		this->m_stGuildMemberInfoLog[nBlank].nGuildNum = lpGuild->Number;

  0004e	8b 06		 mov	 eax, DWORD PTR [esi]
  00050	85 d2		 test	 edx, edx

; 2980 : 		// ----
; 2981 : 		LogAddTD("************************************************************************");

  00052	68 00 00 00 00	 push	 OFFSET ??_C@_0EJ@COAGCMGM@?$CK?$CK?$CK?$CK?$CK?$CK?$CK?$CK?$CK?$CK?$CK?$CK?$CK?$CK?$CK?$CK?$CK?$CK?$CK?$CK?$CK?$CK?$CK?$CK?$CK?$CK?$CK?$CK?$CK?$CK?$CK?$CK@
  00057	0f 48 d1	 cmovs	 edx, ecx
  0005a	89 55 f4	 mov	 DWORD PTR _nBlank$1$[ebp], edx
  0005d	89 84 d3 a8 79
	02 00		 mov	 DWORD PTR [ebx+edx*8+162216], eax
  00064	ff 15 00 00 00
	00		 call	 DWORD PTR ?LogAddTD@@3P6AXPADZZA ; LogAddTD

; 2982 : 		LogAddTD("[ArcaBattle] Guild Name [%s] GuildMemberCnt [%d]", lpGuild->Name, lpGuild->Count);

  0006a	0f b6 46 2d	 movzx	 eax, BYTE PTR [esi+45]
  0006e	8d 4e 04	 lea	 ecx, DWORD PTR [esi+4]
  00071	50		 push	 eax
  00072	51		 push	 ecx
  00073	68 00 00 00 00	 push	 OFFSET ??_C@_0DB@NIKANANG@?$FLArcaBattle?$FN?5Guild?5Name?5?$FL?$CFs?$FN?5Gui@
  00078	ff 15 00 00 00
	00		 call	 DWORD PTR ?LogAddTD@@3P6AXPADZZA ; LogAddTD
  0007e	8b 4d 08	 mov	 ecx, DWORD PTR _lpGuild$[ebp]
  00081	be 01 00 00 00	 mov	 esi, 1
  00086	83 c4 10	 add	 esp, 16			; 00000010H
  00089	8d 79 2f	 lea	 edi, DWORD PTR [ecx+47]
  0008c	8d 5e 4f	 lea	 ebx, DWORD PTR [esi+79]
  0008f	90		 npad	 1
$LL7@PrintGuild:

; 2984 : 		{
; 2985 : 			if( lpGuild->Use[n] )

  00090	80 bc 31 3f 04
	00 00 00	 cmp	 BYTE PTR [ecx+esi+1087], 0
  00098	74 17		 je	 SHORT $LN5@PrintGuild

; 2986 : 			{
; 2987 : 				LogAddTD("[ArcaBattle] [%s] Guild Member (%d)[%s]", lpGuild->Name, n + 1, lpGuild->Names[n]);

  0009a	57		 push	 edi
  0009b	56		 push	 esi
  0009c	8d 41 04	 lea	 eax, DWORD PTR [ecx+4]
  0009f	50		 push	 eax
  000a0	68 00 00 00 00	 push	 OFFSET ??_C@_0CI@OGNEAKOF@?$FLArcaBattle?$FN?5?$FL?$CFs?$FN?5Guild?5Member?5?$CI@
  000a5	ff 15 00 00 00
	00		 call	 DWORD PTR ?LogAddTD@@3P6AXPADZZA ; LogAddTD
  000ab	8b 4d 08	 mov	 ecx, DWORD PTR _lpGuild$[ebp]
  000ae	83 c4 10	 add	 esp, 16			; 00000010H
$LN5@PrintGuild:

; 2983 : 		for( int n = 0; n < MAX_USER_GUILD; n++ )

  000b1	83 c7 0b	 add	 edi, 11			; 0000000bH
  000b4	46		 inc	 esi
  000b5	83 eb 01	 sub	 ebx, 1
  000b8	75 d6		 jne	 SHORT $LL7@PrintGuild

; 2988 : 			}
; 2989 : 		}
; 2990 : 		LogAddTD("************************************************************************");

  000ba	68 00 00 00 00	 push	 OFFSET ??_C@_0EJ@COAGCMGM@?$CK?$CK?$CK?$CK?$CK?$CK?$CK?$CK?$CK?$CK?$CK?$CK?$CK?$CK?$CK?$CK?$CK?$CK?$CK?$CK?$CK?$CK?$CK?$CK?$CK?$CK?$CK?$CK?$CK?$CK?$CK?$CK@
  000bf	ff 15 00 00 00
	00		 call	 DWORD PTR ?LogAddTD@@3P6AXPADZZA ; LogAddTD
  000c5	8b 4d fc	 mov	 ecx, DWORD PTR _i$1$[ebp]
  000c8	83 c4 04	 add	 esp, 4
  000cb	8b 45 f8	 mov	 eax, DWORD PTR tv321[ebp]
  000ce	41		 inc	 ecx
  000cf	8b 75 08	 mov	 esi, DWORD PTR _lpGuild$[ebp]
  000d2	83 c0 08	 add	 eax, 8
  000d5	8b 55 f4	 mov	 edx, DWORD PTR _nBlank$1$[ebp]
  000d8	8b 5d f0	 mov	 ebx, DWORD PTR _this$1$[ebp]
  000db	89 4d fc	 mov	 DWORD PTR _i$1$[ebp], ecx
  000de	89 45 f8	 mov	 DWORD PTR tv321[ebp], eax
  000e1	83 f9 0a	 cmp	 ecx, 10			; 0000000aH
  000e4	0f 8c 56 ff ff
	ff		 jl	 $LL4@PrintGuild
$LN24@PrintGuild:
  000ea	5f		 pop	 edi
  000eb	5e		 pop	 esi
  000ec	5b		 pop	 ebx

; 2991 : 	}
; 2992 : }

  000ed	8b e5		 mov	 esp, ebp
  000ef	5d		 pop	 ebp
  000f0	c2 04 00	 ret	 4
?PrintGuildMemberLog@CArcaBattle@@QAEXPAU_GUILD_INFO_STRUCT@@@Z ENDP ; CArcaBattle::PrintGuildMemberLog
_TEXT	ENDS
; Function compile flags: /Ogtp
; File c:\users\michel\desktop\source\gameserver\source\arcabattle.cpp
; File c:\program files (x86)\microsoft visual studio 14.0\vc\include\vector
; File c:\program files (x86)\microsoft visual studio 14.0\vc\include\xmemory0
; File c:\program files (x86)\microsoft visual studio 14.0\vc\include\vector
; File c:\program files (x86)\microsoft visual studio 14.0\vc\include\xmemory0
; File c:\program files (x86)\microsoft visual studio 14.0\vc\include\vector
; File c:\users\michel\desktop\source\gameserver\source\arcabattle.cpp
;	COMDAT ??1CArcaBattle@@QAE@XZ
_TEXT	SEGMENT
??1CArcaBattle@@QAE@XZ PROC				; CArcaBattle::~CArcaBattle, COMDAT
; _this$ = ecx

; 81   : {

  00000	56		 push	 esi

; 86   : }

  00001	8d b1 9c 34 00
	00		 lea	 esi, DWORD PTR [ecx+13468]
  00007	57		 push	 edi
; File c:\program files (x86)\microsoft visual studio 14.0\vc\include\vector

; 1656 : 		if (this->_Myfirst() != pointer())

  00008	8b 3e		 mov	 edi, DWORD PTR [esi]
  0000a	85 ff		 test	 edi, edi
  0000c	74 32		 je	 SHORT $LN7@CArcaBattl

; 1660 : 			this->_Getal().deallocate(this->_Myfirst(),

  0000e	8b 4e 08	 mov	 ecx, DWORD PTR [esi+8]
  00011	b8 ab aa aa 2a	 mov	 eax, 715827883		; 2aaaaaabH
  00016	2b cf		 sub	 ecx, edi
  00018	f7 e9		 imul	 ecx
; File c:\program files (x86)\microsoft visual studio 14.0\vc\include\xmemory0

; 909  : 		_Mybase::deallocate(_Ptr, _Count);

  0001a	8b ce		 mov	 ecx, esi
; File c:\program files (x86)\microsoft visual studio 14.0\vc\include\vector

; 1660 : 			this->_Getal().deallocate(this->_Myfirst(),

  0001c	d1 fa		 sar	 edx, 1
  0001e	8b c2		 mov	 eax, edx
  00020	c1 e8 1f	 shr	 eax, 31			; 0000001fH
  00023	03 c2		 add	 eax, edx
; File c:\program files (x86)\microsoft visual studio 14.0\vc\include\xmemory0

; 909  : 		_Mybase::deallocate(_Ptr, _Count);

  00025	50		 push	 eax
  00026	57		 push	 edi
  00027	e8 00 00 00 00	 call	 ?deallocate@?$allocator@U_tagARCA_BATTLE_START_TIME@@@std@@QAEXPAU_tagARCA_BATTLE_START_TIME@@I@Z ; std::allocator<_tagARCA_BATTLE_START_TIME>::deallocate
; File c:\program files (x86)\microsoft visual studio 14.0\vc\include\vector

; 1662 : 			this->_Myfirst() = pointer();

  0002c	c7 06 00 00 00
	00		 mov	 DWORD PTR [esi], 0

; 1663 : 			this->_Mylast() = pointer();

  00032	c7 46 04 00 00
	00 00		 mov	 DWORD PTR [esi+4], 0

; 1664 : 			this->_Myend() = pointer();

  00039	c7 46 08 00 00
	00 00		 mov	 DWORD PTR [esi+8], 0
$LN7@CArcaBattl:
  00040	5f		 pop	 edi
  00041	5e		 pop	 esi
; File c:\users\michel\desktop\source\gameserver\source\arcabattle.cpp

; 86   : }

  00042	c3		 ret	 0
??1CArcaBattle@@QAE@XZ ENDP				; CArcaBattle::~CArcaBattle
_TEXT	ENDS
; Function compile flags: /Ogtp
; File c:\users\michel\desktop\source\gameserver\source\arcabattle.cpp
; File c:\users\michel\desktop\source\gameserver\source\arcabattle.h
; File c:\program files (x86)\microsoft visual studio 14.0\vc\include\vector
; File c:\users\michel\desktop\source\gameserver\source\arcabattle.h
; File c:\program files (x86)\microsoft visual studio 14.0\vc\include\vector
; File c:\users\michel\desktop\source\gameserver\source\arcabattle.h
; File c:\users\michel\desktop\source\gameserver\source\arcabattle.cpp
; File c:\users\michel\desktop\source\gameserver\source\arcabattle.h
; File c:\users\michel\desktop\source\gameserver\source\arcabattle.cpp
;	COMDAT ??0CArcaBattle@@QAE@XZ
_TEXT	SEGMENT
_this$ = -4						; size = 4
??0CArcaBattle@@QAE@XZ PROC				; CArcaBattle::CArcaBattle, COMDAT
; _this$ = ecx

; 24   : {

  00000	55		 push	 ebp
  00001	8b ec		 mov	 ebp, esp
  00003	51		 push	 ecx
  00004	53		 push	 ebx
  00005	56		 push	 esi
  00006	8b f1		 mov	 esi, ecx
  00008	bb 0a 00 00 00	 mov	 ebx, 10			; 0000000aH
  0000d	57		 push	 edi
  0000e	89 75 fc	 mov	 DWORD PTR _this$[ebp], esi
; File c:\users\michel\desktop\source\gameserver\source\arcabattle.h

; 620  : 	BOOL	m_bDoEvent;

  00011	8d 7e 04	 lea	 edi, DWORD PTR [esi+4]
$LL5@CArcaBattl:
  00014	8b cf		 mov	 ecx, edi
  00016	e8 00 00 00 00	 call	 ??0_tagARCA_BATTLE_BOOTY_MIX@@QAE@XZ ; _tagARCA_BATTLE_BOOTY_MIX::_tagARCA_BATTLE_BOOTY_MIX
  0001b	81 c7 f8 01 00
	00		 add	 edi, 504		; 000001f8H
  00021	83 eb 01	 sub	 ebx, 1
  00024	75 ee		 jne	 SHORT $LL5@CArcaBattl

; 621  :     _tagARCA_BATTLE_BOOTY_MIX		m_stBootyMix[AB_MAX_BOOTYMIX];
; 622  :     int		m_iBootyMixCnt;

  00026	8d 8e b8 13 00
	00		 lea	 ecx, DWORD PTR [esi+5048]
  0002c	ba 2c 01 00 00	 mov	 edx, 300		; 0000012cH
  00031	8d 41 14	 lea	 eax, DWORD PTR [ecx+20]
$LL9@CArcaBattl:

; 90   : 		this->dwBootyCnt			= 0;

  00034	c7 40 f8 00 00
	00 00		 mov	 DWORD PTR [eax-8], 0
  0003b	0f 57 c0	 xorps	 xmm0, xmm0

; 91   : 		this->dwContributePoints	= 0;

  0003e	c7 40 fc 00 00
	00 00		 mov	 DWORD PTR [eax-4], 0
  00045	8d 49 18	 lea	 ecx, DWORD PTR [ecx+24]

; 92   : 		this->dwKillPoints			= 0;

  00048	c7 00 00 00 00
	00		 mov	 DWORD PTR [eax], 0
  0004e	8d 40 18	 lea	 eax, DWORD PTR [eax+24]

; 93   : 	};
; 94   : };
; 95   : // -------------------------------------------------------------------------------
; 96   : 
; 97   : struct _tagArcaBattleUserInfo
; 98   : {
; 99   :     char	szCharName[11];
; 100  :     bool	bBootyDrop;
; 101  :     _stABAcquiredPoints m_stAcquiredPoints;
; 102  : 	// ----
; 103  : 	_tagArcaBattleUserInfo::_tagArcaBattleUserInfo() //Line: 121
; 104  : 	{
; 105  : 		memset(this->szCharName, 0, 11);

  00051	66 0f d6 41 e8	 movq	 QWORD PTR [ecx-24], xmm0
  00056	66 c7 41 f0 00
	00		 mov	 WORD PTR [ecx-16], 0
  0005c	c6 41 f2 00	 mov	 BYTE PTR [ecx-14], 0

; 106  : 		this->bBootyDrop = 0;

  00060	c6 40 df 00	 mov	 BYTE PTR [eax-33], 0
  00064	83 ea 01	 sub	 edx, 1
  00067	75 cb		 jne	 SHORT $LL9@CArcaBattl

; 621  :     _tagARCA_BATTLE_BOOTY_MIX		m_stBootyMix[AB_MAX_BOOTYMIX];
; 622  :     int		m_iBootyMixCnt;

  00069	8d be d8 2f 00
	00		 lea	 edi, DWORD PTR [esi+12248]
  0006f	8d 5a 05	 lea	 ebx, DWORD PTR [edx+5]
$LL19@CArcaBattl:
  00072	8b cf		 mov	 ecx, edi
  00074	e8 00 00 00 00	 call	 ??0_tagOBELISK_INFO@@QAE@XZ ; _tagOBELISK_INFO::_tagOBELISK_INFO
  00079	83 c7 58	 add	 edi, 88			; 00000058H
  0007c	83 eb 01	 sub	 ebx, 1
  0007f	75 f1		 jne	 SHORT $LL19@CArcaBattl
  00081	8d be 90 31 00
	00		 lea	 edi, DWORD PTR [esi+12688]
  00087	bb 05 00 00 00	 mov	 ebx, 5
  0008c	0f 1f 40 00	 npad	 4
$LL23@CArcaBattl:
  00090	8b cf		 mov	 ecx, edi
  00092	e8 00 00 00 00	 call	 ??0_tagOBELISK_STATE@@QAE@XZ ; _tagOBELISK_STATE::_tagOBELISK_STATE
  00097	83 c7 54	 add	 edi, 84			; 00000054H
  0009a	83 eb 01	 sub	 ebx, 1
  0009d	75 f1		 jne	 SHORT $LL23@CArcaBattl

; 130  : 		this->wObeliskGroup		= 0;
; 131  : 	};
; 132  : 	// ----
; 133  : 	void _stABWinGuildInfo::Clear() //Line: 155
; 134  : 	{
; 135  : 		memset(this->szGuildName, 0, 9);
; 136  : 		this->dwGuild			= 0;
; 137  : 		this->wOccupyObelisk	= 0;
; 138  : 		this->wObeliskGroup		= 0;
; 139  : 	};
; 140  : };
; 141  : // -------------------------------------------------------------------------------
; 142  : 
; 143  : struct _tagARCA_BATTLE_BOOTY_REWARD
; 144  : {
; 145  :     int		iItemLink;
; 146  :     int		iItemType;
; 147  :     int		iItemIndex;
; 148  :     int		iItemLevel;
; 149  :     int		iDurab;
; 150  :     int		iRate;
; 151  : 	// ----
; 152  : 	_tagARCA_BATTLE_BOOTY_REWARD::_tagARCA_BATTLE_BOOTY_REWARD() //Line: 194
; 153  : 	{
; 154  : 		this->iItemLink		= 0;
; 155  : 		this->iItemType		= 0;
; 156  : 		this->iItemIndex	= 0;
; 157  : 		this->iItemLevel	= 0;
; 158  : 		this->iDurab		= 0;
; 159  : 		this->iRate			= 0;
; 160  : 	};
; 161  : };
; 162  : // -------------------------------------------------------------------------------
; 163  : 
; 164  : struct _tagARCA_BATTLE_BOOTY_MIX
; 165  : {
; 166  :     int		iItemLink;
; 167  :     int		iMinCnt;
; 168  :     int		iMaxCnt;
; 169  :     int		iBaseRate;
; 170  :     int		iAddRate;
; 171  :     int		iBootyRewardCnt;
; 172  :     _tagARCA_BATTLE_BOOTY_REWARD stBootyReward[20];
; 173  : 	// ----
; 174  : 	_tagARCA_BATTLE_BOOTY_MIX::_tagARCA_BATTLE_BOOTY_MIX() //Line: 216
; 175  : 	{
; 176  : 		this->iItemLink			= 0;
; 177  : 		this->iMinCnt			= 0;
; 178  : 		this->iMaxCnt			= 0;
; 179  : 		this->iBaseRate			= 0;
; 180  : 		this->iAddRate			= 0;
; 181  : 		this->iBootyRewardCnt	= 0;
; 182  : 	};
; 183  : };
; 184  : // -------------------------------------------------------------------------------
; 185  : 
; 186  : struct _tagARCA_BATTLE_START_TIME
; 187  : {
; 188  :     int		m_iHour;
; 189  :     int		m_iMinute;
; 190  :     BYTE	m_btEvent;
; 191  : 	// ----
; 192  : 	_tagARCA_BATTLE_START_TIME::_tagARCA_BATTLE_START_TIME() //Line: 237
; 193  : 	{
; 194  : 		this->m_iHour	= 0;
; 195  : 		this->m_iMinute = 0;
; 196  : 		this->m_btEvent = 0;
; 197  : 	};
; 198  : };
; 199  : // -------------------------------------------------------------------------------
; 200  : 
; 201  : struct _tagAURA_INFO
; 202  : {
; 203  :     int		m_iGroupNumber;
; 204  :     int		m_iMapIndex;
; 205  :     int		m_iAuraPosX;
; 206  :     int		m_iAuraPosY;
; 207  : 	// ----
; 208  : 	_tagAURA_INFO::_tagAURA_INFO() //Line: 253
; 209  : 	{
; 210  : 		this->m_iMapIndex		= -1;
; 211  : 		this->m_iGroupNumber	= -1;
; 212  : 		this->m_iAuraPosX		= -1;
; 213  : 		this->m_iAuraPosY		= -1;
; 214  : 	};
; 215  : };
; 216  : // -------------------------------------------------------------------------------
; 217  : 
; 218  : struct _tagOBELISK_INFO
; 219  : {
; 220  :     int		m_iGroupNumber;
; 221  :     int		m_iAttrKind;
; 222  :     int		m_iHP;
; 223  :     int		m_iOccupyHP;
; 224  :     int		m_iMapIndex;
; 225  :     int		m_iPosX;
; 226  :     int		m_iPosY;
; 227  :     int		m_iMonsterNum;
; 228  :     DWORD	m_dwTick;
; 229  :     DWORD	m_dwRegenTime;
; 230  :     _tagAURA_INFO m_stAuraInfo[3];
; 231  : 	// ----
; 232  : 	_tagOBELISK_INFO::_tagOBELISK_INFO() //Line: 278
; 233  : 	{
; 234  : 		this->m_iGroupNumber	= 0;
; 235  : 		this->m_iAttrKind		= 0;
; 236  : 		this->m_iMapIndex		= -1;
; 237  : 		this->m_iHP				= 0;
; 238  : 		this->m_iOccupyHP		= 0;
; 239  : 		this->m_iPosX			= -1;
; 240  : 		this->m_iPosY			= -1;
; 241  : 		this->m_iMonsterNum		= 0;
; 242  : 		this->m_dwTick			= 0;
; 243  : 		this->m_dwRegenTime		= 0;
; 244  : 		memset(this->m_stAuraInfo, -1, 48);	//sizeof(m_stAuraInfo)?
; 245  : 	};
; 246  : };
; 247  : // -------------------------------------------------------------------------------
; 248  : 
; 249  : struct _tagAURA_STATE
; 250  : {
; 251  :     int		m_iGroupNumber;
; 252  :     BYTE	m_btAuraState;
; 253  :     int		m_iHoverUserIndex;
; 254  :     int		m_iIndex;
; 255  : 	// ----
; 256  : 	_tagAURA_STATE::_tagAURA_STATE() //Line: 302
; 257  : 	{
; 258  : 		this->m_iGroupNumber	= -1;
; 259  : 		this->m_btAuraState		= 0;
; 260  : 		this->m_iHoverUserIndex = 0;
; 261  : 		this->m_iIndex			= -1;
; 262  : 	};
; 263  : };
; 264  : // -------------------------------------------------------------------------------
; 265  : 
; 266  : struct _tagOBELISK_STATE
; 267  : {
; 268  :     int		m_iGroupNumber;
; 269  :     int		m_iMonIndex;
; 270  :     int		m_iAuraState;
; 271  :     int		m_iAuraReleaseGuildNum;
; 272  :     int		m_iObeliskState;
; 273  :     int		m_iOccupyGuildNum;
; 274  :     char	m_szOccupyGuildName[9];
; 275  :     _tagAURA_STATE m_stAuraState[3];
; 276  : 	// ----
; 277  : 	_tagOBELISK_STATE::_tagOBELISK_STATE() //Line: 324
; 278  : 	{
; 279  : 		this->m_iGroupNumber			= -1;
; 280  : 		this->m_iMonIndex				= -1;
; 281  : 		this->m_iAuraState				= 0;
; 282  : 		this->m_iAuraReleaseGuildNum	= -1;
; 283  : 		this->m_iOccupyGuildNum			= -1;
; 284  : 		this->m_iObeliskState			= 0;
; 285  : 		memset(this->m_szOccupyGuildName, 0, 9);
; 286  : 		memset(this->m_stAuraState, -1, 48);
; 287  : 	};
; 288  : 	// ----
; 289  : 	void _tagOBELISK_STATE::Clear() //Line: 338
; 290  : 	{
; 291  : 		this->m_iGroupNumber			= -1;
; 292  : 		this->m_iMonIndex				= -1;
; 293  : 		this->m_iAuraState				= 0;
; 294  : 		this->m_iAuraReleaseGuildNum	= -1;
; 295  : 		this->m_iOccupyGuildNum			= -1;
; 296  : 		this->m_iObeliskState			= 0;
; 297  : 		memset(this->m_szOccupyGuildName, 0, 9);
; 298  : 		memset(this->m_stAuraState, -1, 48);
; 299  : 	};
; 300  : };
; 301  : // -------------------------------------------------------------------------------
; 302  : 
; 303  : struct _tagARCA_BATTLE_RESULT_INFO
; 304  : {
; 305  :     int		iGuildNum;
; 306  :     int		iObeliskAttrKind;
; 307  : 	// ----
; 308  : 	_tagARCA_BATTLE_RESULT_INFO::_tagARCA_BATTLE_RESULT_INFO() //Line: 358
; 309  : 	{
; 310  : 		this->iGuildNum			= 0;

  0009f	89 9e 34 33 00
	00		 mov	 DWORD PTR [esi+13108], ebx

; 621  :     _tagARCA_BATTLE_BOOTY_MIX		m_stBootyMix[AB_MAX_BOOTYMIX];
; 622  :     int		m_iBootyMixCnt;

  000a5	8d 86 ac 33 00
	00		 lea	 eax, DWORD PTR [esi+13228]

; 311  : 		this->iObeliskAttrKind	= 0;

  000ab	89 9e 38 33 00
	00		 mov	 DWORD PTR [esi+13112], ebx
  000b1	8d 4b 05	 lea	 ecx, DWORD PTR [ebx+5]

; 130  : 		this->wObeliskGroup		= 0;
; 131  : 	};
; 132  : 	// ----
; 133  : 	void _stABWinGuildInfo::Clear() //Line: 155
; 134  : 	{
; 135  : 		memset(this->szGuildName, 0, 9);
; 136  : 		this->dwGuild			= 0;
; 137  : 		this->wOccupyObelisk	= 0;
; 138  : 		this->wObeliskGroup		= 0;
; 139  : 	};
; 140  : };
; 141  : // -------------------------------------------------------------------------------
; 142  : 
; 143  : struct _tagARCA_BATTLE_BOOTY_REWARD
; 144  : {
; 145  :     int		iItemLink;
; 146  :     int		iItemType;
; 147  :     int		iItemIndex;
; 148  :     int		iItemLevel;
; 149  :     int		iDurab;
; 150  :     int		iRate;
; 151  : 	// ----
; 152  : 	_tagARCA_BATTLE_BOOTY_REWARD::_tagARCA_BATTLE_BOOTY_REWARD() //Line: 194
; 153  : 	{
; 154  : 		this->iItemLink		= 0;
; 155  : 		this->iItemType		= 0;
; 156  : 		this->iItemIndex	= 0;
; 157  : 		this->iItemLevel	= 0;
; 158  : 		this->iDurab		= 0;
; 159  : 		this->iRate			= 0;
; 160  : 	};
; 161  : };
; 162  : // -------------------------------------------------------------------------------
; 163  : 
; 164  : struct _tagARCA_BATTLE_BOOTY_MIX
; 165  : {
; 166  :     int		iItemLink;
; 167  :     int		iMinCnt;
; 168  :     int		iMaxCnt;
; 169  :     int		iBaseRate;
; 170  :     int		iAddRate;
; 171  :     int		iBootyRewardCnt;
; 172  :     _tagARCA_BATTLE_BOOTY_REWARD stBootyReward[20];
; 173  : 	// ----
; 174  : 	_tagARCA_BATTLE_BOOTY_MIX::_tagARCA_BATTLE_BOOTY_MIX() //Line: 216
; 175  : 	{
; 176  : 		this->iItemLink			= 0;
; 177  : 		this->iMinCnt			= 0;
; 178  : 		this->iMaxCnt			= 0;
; 179  : 		this->iBaseRate			= 0;
; 180  : 		this->iAddRate			= 0;
; 181  : 		this->iBootyRewardCnt	= 0;
; 182  : 	};
; 183  : };
; 184  : // -------------------------------------------------------------------------------
; 185  : 
; 186  : struct _tagARCA_BATTLE_START_TIME
; 187  : {
; 188  :     int		m_iHour;
; 189  :     int		m_iMinute;
; 190  :     BYTE	m_btEvent;
; 191  : 	// ----
; 192  : 	_tagARCA_BATTLE_START_TIME::_tagARCA_BATTLE_START_TIME() //Line: 237
; 193  : 	{
; 194  : 		this->m_iHour	= 0;
; 195  : 		this->m_iMinute = 0;
; 196  : 		this->m_btEvent = 0;
; 197  : 	};
; 198  : };
; 199  : // -------------------------------------------------------------------------------
; 200  : 
; 201  : struct _tagAURA_INFO
; 202  : {
; 203  :     int		m_iGroupNumber;
; 204  :     int		m_iMapIndex;
; 205  :     int		m_iAuraPosX;
; 206  :     int		m_iAuraPosY;
; 207  : 	// ----
; 208  : 	_tagAURA_INFO::_tagAURA_INFO() //Line: 253
; 209  : 	{
; 210  : 		this->m_iMapIndex		= -1;
; 211  : 		this->m_iGroupNumber	= -1;
; 212  : 		this->m_iAuraPosX		= -1;
; 213  : 		this->m_iAuraPosY		= -1;
; 214  : 	};
; 215  : };
; 216  : // -------------------------------------------------------------------------------
; 217  : 
; 218  : struct _tagOBELISK_INFO
; 219  : {
; 220  :     int		m_iGroupNumber;
; 221  :     int		m_iAttrKind;
; 222  :     int		m_iHP;
; 223  :     int		m_iOccupyHP;
; 224  :     int		m_iMapIndex;
; 225  :     int		m_iPosX;
; 226  :     int		m_iPosY;
; 227  :     int		m_iMonsterNum;
; 228  :     DWORD	m_dwTick;
; 229  :     DWORD	m_dwRegenTime;
; 230  :     _tagAURA_INFO m_stAuraInfo[3];
; 231  : 	// ----
; 232  : 	_tagOBELISK_INFO::_tagOBELISK_INFO() //Line: 278
; 233  : 	{
; 234  : 		this->m_iGroupNumber	= 0;
; 235  : 		this->m_iAttrKind		= 0;
; 236  : 		this->m_iMapIndex		= -1;
; 237  : 		this->m_iHP				= 0;
; 238  : 		this->m_iOccupyHP		= 0;
; 239  : 		this->m_iPosX			= -1;
; 240  : 		this->m_iPosY			= -1;
; 241  : 		this->m_iMonsterNum		= 0;
; 242  : 		this->m_dwTick			= 0;
; 243  : 		this->m_dwRegenTime		= 0;
; 244  : 		memset(this->m_stAuraInfo, -1, 48);	//sizeof(m_stAuraInfo)?
; 245  : 	};
; 246  : };
; 247  : // -------------------------------------------------------------------------------
; 248  : 
; 249  : struct _tagAURA_STATE
; 250  : {
; 251  :     int		m_iGroupNumber;
; 252  :     BYTE	m_btAuraState;
; 253  :     int		m_iHoverUserIndex;
; 254  :     int		m_iIndex;
; 255  : 	// ----
; 256  : 	_tagAURA_STATE::_tagAURA_STATE() //Line: 302
; 257  : 	{
; 258  : 		this->m_iGroupNumber	= -1;
; 259  : 		this->m_btAuraState		= 0;
; 260  : 		this->m_iHoverUserIndex = 0;
; 261  : 		this->m_iIndex			= -1;
; 262  : 	};
; 263  : };
; 264  : // -------------------------------------------------------------------------------
; 265  : 
; 266  : struct _tagOBELISK_STATE
; 267  : {
; 268  :     int		m_iGroupNumber;
; 269  :     int		m_iMonIndex;
; 270  :     int		m_iAuraState;
; 271  :     int		m_iAuraReleaseGuildNum;
; 272  :     int		m_iObeliskState;
; 273  :     int		m_iOccupyGuildNum;
; 274  :     char	m_szOccupyGuildName[9];
; 275  :     _tagAURA_STATE m_stAuraState[3];
; 276  : 	// ----
; 277  : 	_tagOBELISK_STATE::_tagOBELISK_STATE() //Line: 324
; 278  : 	{
; 279  : 		this->m_iGroupNumber			= -1;
; 280  : 		this->m_iMonIndex				= -1;
; 281  : 		this->m_iAuraState				= 0;
; 282  : 		this->m_iAuraReleaseGuildNum	= -1;
; 283  : 		this->m_iOccupyGuildNum			= -1;
; 284  : 		this->m_iObeliskState			= 0;
; 285  : 		memset(this->m_szOccupyGuildName, 0, 9);
; 286  : 		memset(this->m_stAuraState, -1, 48);
; 287  : 	};
; 288  : 	// ----
; 289  : 	void _tagOBELISK_STATE::Clear() //Line: 338
; 290  : 	{
; 291  : 		this->m_iGroupNumber			= -1;
; 292  : 		this->m_iMonIndex				= -1;
; 293  : 		this->m_iAuraState				= 0;
; 294  : 		this->m_iAuraReleaseGuildNum	= -1;
; 295  : 		this->m_iOccupyGuildNum			= -1;
; 296  : 		this->m_iObeliskState			= 0;
; 297  : 		memset(this->m_szOccupyGuildName, 0, 9);
; 298  : 		memset(this->m_stAuraState, -1, 48);
; 299  : 	};
; 300  : };
; 301  : // -------------------------------------------------------------------------------
; 302  : 
; 303  : struct _tagARCA_BATTLE_RESULT_INFO
; 304  : {
; 305  :     int		iGuildNum;
; 306  :     int		iObeliskAttrKind;
; 307  : 	// ----
; 308  : 	_tagARCA_BATTLE_RESULT_INFO::_tagARCA_BATTLE_RESULT_INFO() //Line: 358
; 309  : 	{
; 310  : 		this->iGuildNum			= 0;

  000b4	89 9e 3c 33 00
	00		 mov	 DWORD PTR [esi+13116], ebx

; 311  : 		this->iObeliskAttrKind	= 0;

  000ba	89 9e 40 33 00
	00		 mov	 DWORD PTR [esi+13120], ebx
  000c0	89 9e 44 33 00
	00		 mov	 DWORD PTR [esi+13124], ebx
  000c6	89 9e 48 33 00
	00		 mov	 DWORD PTR [esi+13128], ebx
  000cc	89 9e 4c 33 00
	00		 mov	 DWORD PTR [esi+13132], ebx
  000d2	89 9e 50 33 00
	00		 mov	 DWORD PTR [esi+13136], ebx
  000d8	89 9e 54 33 00
	00		 mov	 DWORD PTR [esi+13140], ebx
  000de	89 9e 58 33 00
	00		 mov	 DWORD PTR [esi+13144], ebx
$LL39@CArcaBattl:
  000e4	0f 57 c0	 xorps	 xmm0, xmm0
  000e7	8d 40 14	 lea	 eax, DWORD PTR [eax+20]

; 107  : 	};
; 108  : 	// ----
; 109  : 	void _tagArcaBattleUserInfo::Clear() //Line: 128
; 110  : 	{
; 111  : 		memset(this->szCharName, 0, 11);
; 112  : 		this->bBootyDrop = 0;
; 113  : 		this->m_stAcquiredPoints.Clear();
; 114  : 	};
; 115  : };
; 116  : // -------------------------------------------------------------------------------
; 117  : 
; 118  : struct _stABWinGuildInfo
; 119  : {
; 120  : 	char	szGuildName[9];
; 121  : 	DWORD	dwGuild;
; 122  : 	WORD	wOccupyObelisk;
; 123  : 	WORD	wObeliskGroup;
; 124  : 	// ----
; 125  : 	_stABWinGuildInfo::_stABWinGuildInfo() //Line: 145
; 126  : 	{
; 127  : 		memset(this->szGuildName, 0, 9);

  000ea	66 0f d6 40 ec	 movq	 QWORD PTR [eax-20], xmm0

; 128  : 		this->dwGuild			= 0;
; 129  : 		this->wOccupyObelisk	= 0;

  000ef	33 d2		 xor	 edx, edx
  000f1	c6 40 f4 00	 mov	 BYTE PTR [eax-12], 0
  000f5	c7 40 f8 00 00
	00 00		 mov	 DWORD PTR [eax-8], 0
  000fc	89 50 fc	 mov	 DWORD PTR [eax-4], edx
  000ff	83 e9 01	 sub	 ecx, 1
  00102	75 e0		 jne	 SHORT $LL39@CArcaBattl
; File c:\program files (x86)\microsoft visual studio 14.0\vc\include\vector

; 480  : 		_Myfirst = pointer();

  00104	89 96 9c 34 00
	00		 mov	 DWORD PTR [esi+13468], edx
; File c:\users\michel\desktop\source\gameserver\source\arcabattle.h

; 662  :     int		m_iArcaBattleMapIndex;

  0010a	8d be b4 34 00
	00		 lea	 edi, DWORD PTR [esi+13492]
; File c:\program files (x86)\microsoft visual studio 14.0\vc\include\vector

; 481  : 		_Mylast = pointer();

  00110	89 96 a0 34 00
	00		 mov	 DWORD PTR [esi+13472], edx
  00116	8d 5a 32	 lea	 ebx, DWORD PTR [edx+50]

; 482  : 		_Myend = pointer();

  00119	89 96 a4 34 00
	00		 mov	 DWORD PTR [esi+13476], edx
  0011f	90		 npad	 1
$LL60@CArcaBattl:
  00120	8b cf		 mov	 ecx, edi
  00122	e8 00 00 00 00	 call	 ??0_stABMonPosition@@QAE@XZ ; _stABMonPosition::_stABMonPosition
  00127	81 c7 7c 03 00
	00		 add	 edi, 892		; 0000037cH
  0012d	83 eb 01	 sub	 ebx, 1
  00130	75 ee		 jne	 SHORT $LL60@CArcaBattl
; File c:\users\michel\desktop\source\gameserver\source\arcabattle.h

; 662  :     int		m_iArcaBattleMapIndex;

  00132	bf 32 00 00 00	 mov	 edi, 50			; 00000032H
  00137	8d 96 ec e2 00
	00		 lea	 edx, DWORD PTR [esi+58092]
  0013d	0f 1f 00	 npad	 3
$LL64@CArcaBattl:
  00140	4f		 dec	 edi
  00141	8d 42 14	 lea	 eax, DWORD PTR [edx+20]
  00144	b9 ff 00 00 00	 mov	 ecx, 255		; 000000ffH
  00149	0f 1f 80 00 00
	00 00		 npad	 7
$LL70@CArcaBattl:

; 312  : 	};
; 313  : };
; 314  : // -------------------------------------------------------------------------------
; 315  : 
; 316  : struct _tagOccupyGuildInfo
; 317  : {
; 318  :     int		iObeliskGroupNum;
; 319  :     int		iGuildNum;
; 320  :     int		iObeliskAttrKind;
; 321  :     long	nDuration;
; 322  : 	// ----
; 323  : 	_tagOccupyGuildInfo::_tagOccupyGuildInfo() //Line: 373
; 324  : 	{
; 325  : 		//Unfilled
; 326  : 	};
; 327  : };
; 328  : // -------------------------------------------------------------------------------
; 329  : 
; 330  : struct _stABMonAccountNumInfo
; 331  : {
; 332  :     int		m_nIndex;
; 333  :     bool	bItemDrop;
; 334  : 	// ----
; 335  : 	_stABMonAccountNumInfo::_stABMonAccountNumInfo() //Line: 398
; 336  : 	{
; 337  : 		this->bItemDrop = 0;

  00150	c6 40 04 00	 mov	 BYTE PTR [eax+4], 0
  00154	8d 40 08	 lea	 eax, DWORD PTR [eax+8]

; 338  : 		this->m_nIndex	= -1;

  00157	c7 40 f8 ff ff
	ff ff		 mov	 DWORD PTR [eax-8], -1
  0015e	83 e9 01	 sub	 ecx, 1
  00161	75 ed		 jne	 SHORT $LL70@CArcaBattl

; 339  : 	};
; 340  : };
; 341  : // -------------------------------------------------------------------------------
; 342  : 
; 343  : struct _stABMonGroupInfo
; 344  : {
; 345  :     int		m_nGroupNumber;
; 346  :     int		m_nMapNumber;
; 347  :     int		m_nCnt;
; 348  :     int		m_nRegenTimeMin;
; 349  :     DWORD	m_dwNextRegenTime;
; 350  :     _stABMonAccountNumInfo m_stMonsterAccountNumInfo[255];
; 351  : 	// ----
; 352  : 	_stABMonGroupInfo::_stABMonGroupInfo() //Line: 417
; 353  : 	{
; 354  : 		this->m_nGroupNumber	= -1;

  00163	c7 02 ff ff ff
	ff		 mov	 DWORD PTR [edx], -1

; 355  : 		this->m_nMapNumber		= -1;

  00169	c7 42 04 ff ff
	ff ff		 mov	 DWORD PTR [edx+4], -1

; 356  : 		this->m_nCnt			= 0;

  00170	89 4a 08	 mov	 DWORD PTR [edx+8], ecx

; 357  : 		this->m_nRegenTimeMin	= 0;

  00173	89 4a 0c	 mov	 DWORD PTR [edx+12], ecx

; 358  : 		this->m_dwNextRegenTime = 0;

  00176	89 4a 10	 mov	 DWORD PTR [edx+16], ecx
  00179	81 c2 0c 08 00
	00		 add	 edx, 2060		; 0000080cH
  0017f	85 ff		 test	 edi, edi
  00181	75 bd		 jne	 SHORT $LL64@CArcaBattl

; 359  : 	};
; 360  : };
; 361  : // -------------------------------------------------------------------------------
; 362  : 
; 363  : struct _stABMonIndexInf
; 364  : {
; 365  :     int		m_nMonsterIndex;
; 366  : 	// ----
; 367  : 	_stABMonIndexInf::_stABMonIndexInf() //Line: 431
; 368  : 	{
; 369  : 		this->m_nMonsterIndex = -1;
; 370  : 	};
; 371  : };
; 372  : // -------------------------------------------------------------------------------
; 373  : 
; 374  : struct _stABMonRegenArea
; 375  : {
; 376  :     int		m_nBeginX;
; 377  :     int		m_nBeginY;
; 378  :     int		m_nEndX;
; 379  :     int		m_nEndY;
; 380  : 	// ----
; 381  : 	_stABMonRegenArea::_stABMonRegenArea() //Line: 443
; 382  : 	{
; 383  : 		this->m_nBeginX = -1;
; 384  : 		this->m_nBeginY = -1;
; 385  : 		this->m_nEndX	= -1;
; 386  : 		this->m_nEndY	= -1;
; 387  : 	};
; 388  : };
; 389  : // -------------------------------------------------------------------------------
; 390  : 
; 391  : struct _stABMonPosition
; 392  : {
; 393  :     int		m_nGroupNumber;
; 394  :     int		m_nRegenAreaCnt;
; 395  :     int		m_nMonsterKindCnt;
; 396  :     _stABMonRegenArea m_stRegenArea[AB_MAX_MONGROUP];
; 397  :     _stABMonIndexInf m_stMonsterIndexInfo[20];
; 398  : 	// ----
; 399  : 	_stABMonPosition::_stABMonPosition() //Line: 461
; 400  : 	{
; 401  : 		this->m_nGroupNumber	= -1;
; 402  : 		this->m_nRegenAreaCnt	= 0;
; 403  : 	};
; 404  : };
; 405  : // -------------------------------------------------------------------------------
; 406  : 
; 407  : struct _tagAB_USER_AREA	//Other coder
; 408  : {
; 409  :     int		map_number;
; 410  :     int		beginX;
; 411  :     int		beginY;
; 412  :     int		endX;
; 413  :     int		endY;
; 414  : 	// ----
; 415  : 	_tagAB_USER_AREA::_tagAB_USER_AREA() //Line: 477
; 416  : 	{
; 417  : 		this->map_number	= -1;
; 418  : 		this->beginX		= -1;
; 419  : 		this->beginY		= -1;
; 420  : 		this->endX			= -1;
; 421  : 		this->endY			= -1;
; 422  : 	};
; 423  : };
; 424  : // -------------------------------------------------------------------------------
; 425  : 
; 426  : struct _stAB_USER_POSITION //Other coder
; 427  : {
; 428  :     int		group_number;
; 429  :     int		area_cnt;
; 430  :     _tagAB_USER_AREA stUserPos[10];
; 431  : 	// ----
; 432  : 	_stAB_USER_POSITION::_stAB_USER_POSITION() //Line: 495
; 433  : 	{
; 434  : 		this->group_number	= -1;
; 435  : 		this->area_cnt		= 0;
; 436  : 	};
; 437  : };
; 438  : // -------------------------------------------------------------------------------
; 439  : 
; 440  : struct _stAB_GUILD_MASTER_GATE_INFO
; 441  : {
; 442  :     int		nGuildNum;
; 443  :     int		nGateNum;
; 444  : 	// ----
; 445  : 	_stAB_GUILD_MASTER_GATE_INFO::_stAB_GUILD_MASTER_GATE_INFO() //Line: 507
; 446  : 	{
; 447  : 		this->nGuildNum = -1;

  00183	c7 86 44 75 02
	00 ff ff ff ff	 mov	 DWORD PTR [esi+161092], -1

; 662  :     int		m_iArcaBattleMapIndex;

  0018d	8d be 94 75 02
	00		 lea	 edi, DWORD PTR [esi+161172]

; 448  : 		this->nGateNum	= -1;

  00193	c7 86 48 75 02
	00 ff ff ff ff	 mov	 DWORD PTR [esi+161096], -1
  0019d	8d 59 05	 lea	 ebx, DWORD PTR [ecx+5]

; 359  : 	};
; 360  : };
; 361  : // -------------------------------------------------------------------------------
; 362  : 
; 363  : struct _stABMonIndexInf
; 364  : {
; 365  :     int		m_nMonsterIndex;
; 366  : 	// ----
; 367  : 	_stABMonIndexInf::_stABMonIndexInf() //Line: 431
; 368  : 	{
; 369  : 		this->m_nMonsterIndex = -1;
; 370  : 	};
; 371  : };
; 372  : // -------------------------------------------------------------------------------
; 373  : 
; 374  : struct _stABMonRegenArea
; 375  : {
; 376  :     int		m_nBeginX;
; 377  :     int		m_nBeginY;
; 378  :     int		m_nEndX;
; 379  :     int		m_nEndY;
; 380  : 	// ----
; 381  : 	_stABMonRegenArea::_stABMonRegenArea() //Line: 443
; 382  : 	{
; 383  : 		this->m_nBeginX = -1;
; 384  : 		this->m_nBeginY = -1;
; 385  : 		this->m_nEndX	= -1;
; 386  : 		this->m_nEndY	= -1;
; 387  : 	};
; 388  : };
; 389  : // -------------------------------------------------------------------------------
; 390  : 
; 391  : struct _stABMonPosition
; 392  : {
; 393  :     int		m_nGroupNumber;
; 394  :     int		m_nRegenAreaCnt;
; 395  :     int		m_nMonsterKindCnt;
; 396  :     _stABMonRegenArea m_stRegenArea[AB_MAX_MONGROUP];
; 397  :     _stABMonIndexInf m_stMonsterIndexInfo[20];
; 398  : 	// ----
; 399  : 	_stABMonPosition::_stABMonPosition() //Line: 461
; 400  : 	{
; 401  : 		this->m_nGroupNumber	= -1;
; 402  : 		this->m_nRegenAreaCnt	= 0;
; 403  : 	};
; 404  : };
; 405  : // -------------------------------------------------------------------------------
; 406  : 
; 407  : struct _tagAB_USER_AREA	//Other coder
; 408  : {
; 409  :     int		map_number;
; 410  :     int		beginX;
; 411  :     int		beginY;
; 412  :     int		endX;
; 413  :     int		endY;
; 414  : 	// ----
; 415  : 	_tagAB_USER_AREA::_tagAB_USER_AREA() //Line: 477
; 416  : 	{
; 417  : 		this->map_number	= -1;
; 418  : 		this->beginX		= -1;
; 419  : 		this->beginY		= -1;
; 420  : 		this->endX			= -1;
; 421  : 		this->endY			= -1;
; 422  : 	};
; 423  : };
; 424  : // -------------------------------------------------------------------------------
; 425  : 
; 426  : struct _stAB_USER_POSITION //Other coder
; 427  : {
; 428  :     int		group_number;
; 429  :     int		area_cnt;
; 430  :     _tagAB_USER_AREA stUserPos[10];
; 431  : 	// ----
; 432  : 	_stAB_USER_POSITION::_stAB_USER_POSITION() //Line: 495
; 433  : 	{
; 434  : 		this->group_number	= -1;
; 435  : 		this->area_cnt		= 0;
; 436  : 	};
; 437  : };
; 438  : // -------------------------------------------------------------------------------
; 439  : 
; 440  : struct _stAB_GUILD_MASTER_GATE_INFO
; 441  : {
; 442  :     int		nGuildNum;
; 443  :     int		nGateNum;
; 444  : 	// ----
; 445  : 	_stAB_GUILD_MASTER_GATE_INFO::_stAB_GUILD_MASTER_GATE_INFO() //Line: 507
; 446  : 	{
; 447  : 		this->nGuildNum = -1;

  001a0	c7 86 4c 75 02
	00 ff ff ff ff	 mov	 DWORD PTR [esi+161100], -1

; 448  : 		this->nGateNum	= -1;

  001aa	c7 86 50 75 02
	00 ff ff ff ff	 mov	 DWORD PTR [esi+161104], -1
  001b4	c7 86 54 75 02
	00 ff ff ff ff	 mov	 DWORD PTR [esi+161108], -1
  001be	c7 86 58 75 02
	00 ff ff ff ff	 mov	 DWORD PTR [esi+161112], -1
  001c8	c7 86 5c 75 02
	00 ff ff ff ff	 mov	 DWORD PTR [esi+161116], -1
  001d2	c7 86 60 75 02
	00 ff ff ff ff	 mov	 DWORD PTR [esi+161120], -1
  001dc	c7 86 64 75 02
	00 ff ff ff ff	 mov	 DWORD PTR [esi+161124], -1
  001e6	c7 86 68 75 02
	00 ff ff ff ff	 mov	 DWORD PTR [esi+161128], -1
  001f0	c7 86 6c 75 02
	00 ff ff ff ff	 mov	 DWORD PTR [esi+161132], -1
  001fa	c7 86 70 75 02
	00 ff ff ff ff	 mov	 DWORD PTR [esi+161136], -1
  00204	c7 86 74 75 02
	00 ff ff ff ff	 mov	 DWORD PTR [esi+161140], -1
  0020e	c7 86 78 75 02
	00 ff ff ff ff	 mov	 DWORD PTR [esi+161144], -1
  00218	c7 86 7c 75 02
	00 ff ff ff ff	 mov	 DWORD PTR [esi+161148], -1
  00222	c7 86 80 75 02
	00 ff ff ff ff	 mov	 DWORD PTR [esi+161152], -1
  0022c	c7 86 84 75 02
	00 ff ff ff ff	 mov	 DWORD PTR [esi+161156], -1
  00236	c7 86 88 75 02
	00 ff ff ff ff	 mov	 DWORD PTR [esi+161160], -1
  00240	c7 86 8c 75 02
	00 ff ff ff ff	 mov	 DWORD PTR [esi+161164], -1
  0024a	c7 86 90 75 02
	00 ff ff ff ff	 mov	 DWORD PTR [esi+161168], -1
$LL82@CArcaBattl:
  00254	8b cf		 mov	 ecx, edi
  00256	e8 00 00 00 00	 call	 ??0_stAB_USER_POSITION@@QAE@XZ ; _stAB_USER_POSITION::_stAB_USER_POSITION
  0025b	81 c7 d0 00 00
	00		 add	 edi, 208		; 000000d0H
  00261	83 eb 01	 sub	 ebx, 1
  00264	75 ee		 jne	 SHORT $LL82@CArcaBattl

; 467  : 		this->bLogPrint = 0;

  00266	88 9e ac 79 02
	00		 mov	 BYTE PTR [esi+162220], bl
; File c:\users\michel\desktop\source\gameserver\source\arcabattle.cpp

; 40   : }

  0026c	8b c6		 mov	 eax, esi
; File c:\users\michel\desktop\source\gameserver\source\arcabattle.h

; 467  : 		this->bLogPrint = 0;

  0026e	88 9e b4 79 02
	00		 mov	 BYTE PTR [esi+162228], bl
  00274	88 9e bc 79 02
	00		 mov	 BYTE PTR [esi+162236], bl
  0027a	88 9e c4 79 02
	00		 mov	 BYTE PTR [esi+162244], bl
  00280	88 9e cc 79 02
	00		 mov	 BYTE PTR [esi+162252], bl
  00286	88 9e d4 79 02
	00		 mov	 BYTE PTR [esi+162260], bl
  0028c	88 9e dc 79 02
	00		 mov	 BYTE PTR [esi+162268], bl
  00292	88 9e e4 79 02
	00		 mov	 BYTE PTR [esi+162276], bl
  00298	88 9e ec 79 02
	00		 mov	 BYTE PTR [esi+162284], bl
  0029e	88 9e f4 79 02
	00		 mov	 BYTE PTR [esi+162292], bl
  002a4	c7 86 a8 79 02
	00 ff ff ff ff	 mov	 DWORD PTR [esi+162216], -1
  002ae	c7 86 b0 79 02
	00 ff ff ff ff	 mov	 DWORD PTR [esi+162224], -1
  002b8	c7 86 b8 79 02
	00 ff ff ff ff	 mov	 DWORD PTR [esi+162232], -1
  002c2	c7 86 c0 79 02
	00 ff ff ff ff	 mov	 DWORD PTR [esi+162240], -1
  002cc	c7 86 c8 79 02
	00 ff ff ff ff	 mov	 DWORD PTR [esi+162248], -1
  002d6	c7 86 d0 79 02
	00 ff ff ff ff	 mov	 DWORD PTR [esi+162256], -1
  002e0	c7 86 d8 79 02
	00 ff ff ff ff	 mov	 DWORD PTR [esi+162264], -1
  002ea	c7 86 e0 79 02
	00 ff ff ff ff	 mov	 DWORD PTR [esi+162272], -1
  002f4	c7 86 e8 79 02
	00 ff ff ff ff	 mov	 DWORD PTR [esi+162280], -1
  002fe	c7 86 f0 79 02
	00 ff ff ff ff	 mov	 DWORD PTR [esi+162288], -1
  00308	5f		 pop	 edi
; File c:\users\michel\desktop\source\gameserver\source\arcabattle.cpp

; 25   : 	this->m_bReqABWinGuildInfo		= 0;

  00309	89 9e 20 34 00
	00		 mov	 DWORD PTR [esi+13344], ebx

; 26   : 	this->m_iJoinGuildMemberCnt		= 0;

  0030f	89 9e 74 34 00
	00		 mov	 DWORD PTR [esi+13428], ebx

; 27   : 	this->m_dwAB_TICK_COUNT_SEC		= 0;

  00315	89 9e 7c 34 00
	00		 mov	 DWORD PTR [esi+13436], ebx

; 28   : 	//m_vtArcaBattleOpenTime
; 29   : 	this->m_iCurUserCount			= 0;

  0031b	89 9e a8 34 00
	00		 mov	 DWORD PTR [esi+13480], ebx

; 30   : 	this->m_iObeliskCnt				= 0;

  00321	89 9e ac 34 00
	00		 mov	 DWORD PTR [esi+13484], ebx

; 31   : 	this->m_iArcaBattleMapIndex		= 0;

  00327	89 9e b0 34 00
	00		 mov	 DWORD PTR [esi+13488], ebx

; 32   : 	this->m_iBootyMixCnt			= 0;

  0032d	89 9e b4 13 00
	00		 mov	 DWORD PTR [esi+5044], ebx

; 33   : 	this->m_iArcaBattleLoadState	= 0;

  00333	89 9e 1c 34 00
	00		 mov	 DWORD PTR [esi+13340], ebx

; 34   : 	this->m_dwDbDataLoadTickCount	= 0;

  00339	89 9e 44 34 00
	00		 mov	 DWORD PTR [esi+13380], ebx

; 35   : 	this->m_iAB_RegTimeMin			= 0;

  0033f	89 9e 84 34 00
	00		 mov	 DWORD PTR [esi+13444], ebx

; 36   : 	this->m_iAB_PlayTimeMin			= 0;

  00345	89 9e 94 34 00
	00		 mov	 DWORD PTR [esi+13460], ebx

; 37   : 	this->m_iAB_WaitTimeMin			= 0;

  0034b	89 9e 88 34 00
	00		 mov	 DWORD PTR [esi+13448], ebx

; 38   : 	this->m_iAB_ChannelTimeMin		= 0;

  00351	89 9e 98 34 00
	00		 mov	 DWORD PTR [esi+13464], ebx

; 39   : 	this->m_dwAB_TICK_COUNT			= 0;

  00357	89 9e 78 34 00
	00		 mov	 DWORD PTR [esi+13432], ebx
  0035d	5e		 pop	 esi
  0035e	5b		 pop	 ebx

; 40   : }

  0035f	8b e5		 mov	 esp, ebp
  00361	5d		 pop	 ebp
  00362	c3		 ret	 0
??0CArcaBattle@@QAE@XZ ENDP				; CArcaBattle::CArcaBattle
_TEXT	ENDS
; Function compile flags: /Ogtp
; File c:\users\michel\desktop\source\gameserver\source\arcabattle.h
; File c:\users\michel\desktop\source\gameserver\source\arcabattleprotocol.h
; File c:\users\michel\desktop\source\gameserver\source\arcabattle.h
;	COMDAT ??0_tagPMSG_AB_RESULT@@QAE@XZ
_TEXT	SEGMENT
??0_tagPMSG_AB_RESULT@@QAE@XZ PROC			; _tagPMSG_AB_RESULT::_tagPMSG_AB_RESULT, COMDAT
; _this$ = ecx

; 506  :     WORD	wBootyCnt;

  00000	8d 41 16	 lea	 eax, DWORD PTR [ecx+22]
  00003	ba 05 00 00 00	 mov	 edx, 5
  00008	56		 push	 esi
  00009	0f 1f 80 00 00
	00 00		 npad	 7
$LL4@tagPMSG_AB:
; File c:\users\michel\desktop\source\gameserver\source\arcabattleprotocol.h

; 114  : 		this->wObeliskKind = 0;

  00010	33 f6		 xor	 esi, esi
  00012	8d 40 0c	 lea	 eax, DWORD PTR [eax+12]
  00015	66 89 70 f4	 mov	 WORD PTR [eax-12], si
  00019	0f 57 c0	 xorps	 xmm0, xmm0

; 115  : 		memset(this->szGuildName, 0, 9);

  0001c	66 0f d6 40 f6	 movq	 QWORD PTR [eax-10], xmm0
  00021	c6 40 fe 00	 mov	 BYTE PTR [eax-2], 0
  00025	83 ea 01	 sub	 edx, 1
  00028	75 e6		 jne	 SHORT $LL4@tagPMSG_AB
; File c:\users\michel\desktop\source\gameserver\source\arcabattle.h

; 512  : 	}

  0002a	8b c1		 mov	 eax, ecx
  0002c	5e		 pop	 esi
  0002d	c3		 ret	 0
??0_tagPMSG_AB_RESULT@@QAE@XZ ENDP			; _tagPMSG_AB_RESULT::_tagPMSG_AB_RESULT
_TEXT	ENDS
; Function compile flags: /Ogtp
; File c:\users\michel\desktop\source\gameserver\source\arcabattle.h
; File c:\users\michel\desktop\source\gameserver\source\arcabattleprotocol.h
; File c:\users\michel\desktop\source\gameserver\source\arcabattle.h
; File c:\users\michel\desktop\source\gameserver\source\arcabattleprotocol.h
; File c:\users\michel\desktop\source\gameserver\source\arcabattle.h
;	COMDAT ??0_tagPMSG_SEND_OBELISK_LIFE@@QAE@XZ
_TEXT	SEGMENT
??0_tagPMSG_SEND_OBELISK_LIFE@@QAE@XZ PROC		; _tagPMSG_SEND_OBELISK_LIFE::_tagPMSG_SEND_OBELISK_LIFE, COMDAT
; _this$ = ecx
; File c:\users\michel\desktop\source\gameserver\source\arcabattleprotocol.h

; 127  : 		this->btLife		= 0;

  00000	c7 41 04 00 00
	00 00		 mov	 DWORD PTR [ecx+4], 0
; File c:\users\michel\desktop\source\gameserver\source\arcabattle.h

; 486  : 	};

  00007	8b c1		 mov	 eax, ecx
; File c:\users\michel\desktop\source\gameserver\source\arcabattleprotocol.h

; 127  : 		this->btLife		= 0;

  00009	c7 41 08 00 00
	00 00		 mov	 DWORD PTR [ecx+8], 0
  00010	66 c7 41 0c 00
	00		 mov	 WORD PTR [ecx+12], 0
; File c:\users\michel\desktop\source\gameserver\source\arcabattle.h

; 486  : 	};

  00016	c3		 ret	 0
??0_tagPMSG_SEND_OBELISK_LIFE@@QAE@XZ ENDP		; _tagPMSG_SEND_OBELISK_LIFE::_tagPMSG_SEND_OBELISK_LIFE
_TEXT	ENDS
; Function compile flags: /Ogtp
; File c:\users\michel\desktop\source\gameserver\source\arcabattle.h
;	COMDAT ?Clear@_tagAB_GUILD_MEMBER_INFO_LOG@@QAEXXZ
_TEXT	SEGMENT
?Clear@_tagAB_GUILD_MEMBER_INFO_LOG@@QAEXXZ PROC	; _tagAB_GUILD_MEMBER_INFO_LOG::Clear, COMDAT
; _this$ = ecx

; 472  : 		this->nGuildNum = -1;

  00000	c7 01 ff ff ff
	ff		 mov	 DWORD PTR [ecx], -1

; 473  : 		this->bLogPrint = 0;

  00006	c6 41 04 00	 mov	 BYTE PTR [ecx+4], 0

; 474  : 	};

  0000a	c3		 ret	 0
?Clear@_tagAB_GUILD_MEMBER_INFO_LOG@@QAEXXZ ENDP	; _tagAB_GUILD_MEMBER_INFO_LOG::Clear
_TEXT	ENDS
; Function compile flags: /Ogtp
; File c:\users\michel\desktop\source\gameserver\source\arcabattle.h
;	COMDAT ??0_tagAB_GUILD_MEMBER_INFO_LOG@@QAE@XZ
_TEXT	SEGMENT
??0_tagAB_GUILD_MEMBER_INFO_LOG@@QAE@XZ PROC		; _tagAB_GUILD_MEMBER_INFO_LOG::_tagAB_GUILD_MEMBER_INFO_LOG, COMDAT
; _this$ = ecx

; 466  : 		this->nGuildNum = -1;

  00000	c7 01 ff ff ff
	ff		 mov	 DWORD PTR [ecx], -1

; 467  : 		this->bLogPrint = 0;
; 468  : 	};

  00006	8b c1		 mov	 eax, ecx
  00008	c6 41 04 00	 mov	 BYTE PTR [ecx+4], 0
  0000c	c3		 ret	 0
??0_tagAB_GUILD_MEMBER_INFO_LOG@@QAE@XZ ENDP		; _tagAB_GUILD_MEMBER_INFO_LOG::_tagAB_GUILD_MEMBER_INFO_LOG
_TEXT	ENDS
; Function compile flags: /Ogtp
; File c:\users\michel\desktop\source\gameserver\source\arcabattle.h
;	COMDAT ?Clear@_stAB_GUILD_MASTER_GATE_INFO@@QAEXXZ
_TEXT	SEGMENT
?Clear@_stAB_GUILD_MASTER_GATE_INFO@@QAEXXZ PROC	; _stAB_GUILD_MASTER_GATE_INFO::Clear, COMDAT
; _this$ = ecx

; 453  : 		this->nGuildNum = -1;

  00000	c7 01 ff ff ff
	ff		 mov	 DWORD PTR [ecx], -1

; 454  : 		this->nGateNum	= -1;

  00006	c7 41 04 ff ff
	ff ff		 mov	 DWORD PTR [ecx+4], -1

; 455  : 	};

  0000d	c3		 ret	 0
?Clear@_stAB_GUILD_MASTER_GATE_INFO@@QAEXXZ ENDP	; _stAB_GUILD_MASTER_GATE_INFO::Clear
_TEXT	ENDS
; Function compile flags: /Ogtp
; File c:\users\michel\desktop\source\gameserver\source\arcabattle.h
;	COMDAT ??0_stAB_GUILD_MASTER_GATE_INFO@@QAE@XZ
_TEXT	SEGMENT
??0_stAB_GUILD_MASTER_GATE_INFO@@QAE@XZ PROC		; _stAB_GUILD_MASTER_GATE_INFO::_stAB_GUILD_MASTER_GATE_INFO, COMDAT
; _this$ = ecx

; 447  : 		this->nGuildNum = -1;

  00000	c7 01 ff ff ff
	ff		 mov	 DWORD PTR [ecx], -1

; 448  : 		this->nGateNum	= -1;
; 449  : 	};

  00006	8b c1		 mov	 eax, ecx
  00008	c7 41 04 ff ff
	ff ff		 mov	 DWORD PTR [ecx+4], -1
  0000f	c3		 ret	 0
??0_stAB_GUILD_MASTER_GATE_INFO@@QAE@XZ ENDP		; _stAB_GUILD_MASTER_GATE_INFO::_stAB_GUILD_MASTER_GATE_INFO
_TEXT	ENDS
; Function compile flags: /Ogtp
; File c:\users\michel\desktop\source\gameserver\source\arcabattle.h
;	COMDAT ??0_stAB_USER_POSITION@@QAE@XZ
_TEXT	SEGMENT
??0_stAB_USER_POSITION@@QAE@XZ PROC			; _stAB_USER_POSITION::_stAB_USER_POSITION, COMDAT
; _this$ = ecx

; 417  : 		this->map_number	= -1;

  00000	c7 41 08 ff ff
	ff ff		 mov	 DWORD PTR [ecx+8], -1

; 436  : 	};

  00007	8b c1		 mov	 eax, ecx

; 418  : 		this->beginX		= -1;

  00009	c7 41 0c ff ff
	ff ff		 mov	 DWORD PTR [ecx+12], -1

; 419  : 		this->beginY		= -1;

  00010	c7 41 10 ff ff
	ff ff		 mov	 DWORD PTR [ecx+16], -1

; 420  : 		this->endX			= -1;

  00017	c7 41 14 ff ff
	ff ff		 mov	 DWORD PTR [ecx+20], -1

; 421  : 		this->endY			= -1;

  0001e	c7 41 18 ff ff
	ff ff		 mov	 DWORD PTR [ecx+24], -1
  00025	c7 41 1c ff ff
	ff ff		 mov	 DWORD PTR [ecx+28], -1
  0002c	c7 41 20 ff ff
	ff ff		 mov	 DWORD PTR [ecx+32], -1
  00033	c7 41 24 ff ff
	ff ff		 mov	 DWORD PTR [ecx+36], -1
  0003a	c7 41 28 ff ff
	ff ff		 mov	 DWORD PTR [ecx+40], -1
  00041	c7 41 2c ff ff
	ff ff		 mov	 DWORD PTR [ecx+44], -1
  00048	c7 41 30 ff ff
	ff ff		 mov	 DWORD PTR [ecx+48], -1
  0004f	c7 41 34 ff ff
	ff ff		 mov	 DWORD PTR [ecx+52], -1
  00056	c7 41 38 ff ff
	ff ff		 mov	 DWORD PTR [ecx+56], -1
  0005d	c7 41 3c ff ff
	ff ff		 mov	 DWORD PTR [ecx+60], -1
  00064	c7 41 40 ff ff
	ff ff		 mov	 DWORD PTR [ecx+64], -1
  0006b	c7 41 44 ff ff
	ff ff		 mov	 DWORD PTR [ecx+68], -1
  00072	c7 41 48 ff ff
	ff ff		 mov	 DWORD PTR [ecx+72], -1
  00079	c7 41 4c ff ff
	ff ff		 mov	 DWORD PTR [ecx+76], -1
  00080	c7 41 50 ff ff
	ff ff		 mov	 DWORD PTR [ecx+80], -1
  00087	c7 41 54 ff ff
	ff ff		 mov	 DWORD PTR [ecx+84], -1
  0008e	c7 41 58 ff ff
	ff ff		 mov	 DWORD PTR [ecx+88], -1
  00095	c7 41 5c ff ff
	ff ff		 mov	 DWORD PTR [ecx+92], -1
  0009c	c7 41 60 ff ff
	ff ff		 mov	 DWORD PTR [ecx+96], -1
  000a3	c7 41 64 ff ff
	ff ff		 mov	 DWORD PTR [ecx+100], -1
  000aa	c7 41 68 ff ff
	ff ff		 mov	 DWORD PTR [ecx+104], -1
  000b1	c7 41 6c ff ff
	ff ff		 mov	 DWORD PTR [ecx+108], -1
  000b8	c7 41 70 ff ff
	ff ff		 mov	 DWORD PTR [ecx+112], -1
  000bf	c7 41 74 ff ff
	ff ff		 mov	 DWORD PTR [ecx+116], -1
  000c6	c7 41 78 ff ff
	ff ff		 mov	 DWORD PTR [ecx+120], -1
  000cd	c7 41 7c ff ff
	ff ff		 mov	 DWORD PTR [ecx+124], -1
  000d4	c7 81 80 00 00
	00 ff ff ff ff	 mov	 DWORD PTR [ecx+128], -1
  000de	c7 81 84 00 00
	00 ff ff ff ff	 mov	 DWORD PTR [ecx+132], -1
  000e8	c7 81 88 00 00
	00 ff ff ff ff	 mov	 DWORD PTR [ecx+136], -1
  000f2	c7 81 8c 00 00
	00 ff ff ff ff	 mov	 DWORD PTR [ecx+140], -1
  000fc	c7 81 90 00 00
	00 ff ff ff ff	 mov	 DWORD PTR [ecx+144], -1
  00106	c7 81 94 00 00
	00 ff ff ff ff	 mov	 DWORD PTR [ecx+148], -1
  00110	c7 81 98 00 00
	00 ff ff ff ff	 mov	 DWORD PTR [ecx+152], -1
  0011a	c7 81 9c 00 00
	00 ff ff ff ff	 mov	 DWORD PTR [ecx+156], -1
  00124	c7 81 a0 00 00
	00 ff ff ff ff	 mov	 DWORD PTR [ecx+160], -1
  0012e	c7 81 a4 00 00
	00 ff ff ff ff	 mov	 DWORD PTR [ecx+164], -1
  00138	c7 81 a8 00 00
	00 ff ff ff ff	 mov	 DWORD PTR [ecx+168], -1
  00142	c7 81 ac 00 00
	00 ff ff ff ff	 mov	 DWORD PTR [ecx+172], -1
  0014c	c7 81 b0 00 00
	00 ff ff ff ff	 mov	 DWORD PTR [ecx+176], -1
  00156	c7 81 b4 00 00
	00 ff ff ff ff	 mov	 DWORD PTR [ecx+180], -1
  00160	c7 81 b8 00 00
	00 ff ff ff ff	 mov	 DWORD PTR [ecx+184], -1
  0016a	c7 81 bc 00 00
	00 ff ff ff ff	 mov	 DWORD PTR [ecx+188], -1
  00174	c7 81 c0 00 00
	00 ff ff ff ff	 mov	 DWORD PTR [ecx+192], -1
  0017e	c7 81 c4 00 00
	00 ff ff ff ff	 mov	 DWORD PTR [ecx+196], -1
  00188	c7 81 c8 00 00
	00 ff ff ff ff	 mov	 DWORD PTR [ecx+200], -1
  00192	c7 81 cc 00 00
	00 ff ff ff ff	 mov	 DWORD PTR [ecx+204], -1

; 434  : 		this->group_number	= -1;

  0019c	c7 01 ff ff ff
	ff		 mov	 DWORD PTR [ecx], -1

; 435  : 		this->area_cnt		= 0;

  001a2	c7 41 04 00 00
	00 00		 mov	 DWORD PTR [ecx+4], 0

; 436  : 	};

  001a9	c3		 ret	 0
??0_stAB_USER_POSITION@@QAE@XZ ENDP			; _stAB_USER_POSITION::_stAB_USER_POSITION
_TEXT	ENDS
; Function compile flags: /Ogtp
; File c:\users\michel\desktop\source\gameserver\source\arcabattle.h
;	COMDAT ??0_tagAB_USER_AREA@@QAE@XZ
_TEXT	SEGMENT
??0_tagAB_USER_AREA@@QAE@XZ PROC			; _tagAB_USER_AREA::_tagAB_USER_AREA, COMDAT
; _this$ = ecx

; 417  : 		this->map_number	= -1;

  00000	c7 01 ff ff ff
	ff		 mov	 DWORD PTR [ecx], -1

; 418  : 		this->beginX		= -1;
; 419  : 		this->beginY		= -1;
; 420  : 		this->endX			= -1;
; 421  : 		this->endY			= -1;
; 422  : 	};

  00006	8b c1		 mov	 eax, ecx
  00008	c7 41 04 ff ff
	ff ff		 mov	 DWORD PTR [ecx+4], -1
  0000f	c7 41 08 ff ff
	ff ff		 mov	 DWORD PTR [ecx+8], -1
  00016	c7 41 0c ff ff
	ff ff		 mov	 DWORD PTR [ecx+12], -1
  0001d	c7 41 10 ff ff
	ff ff		 mov	 DWORD PTR [ecx+16], -1
  00024	c3		 ret	 0
??0_tagAB_USER_AREA@@QAE@XZ ENDP			; _tagAB_USER_AREA::_tagAB_USER_AREA
_TEXT	ENDS
; Function compile flags: /Ogtp
; File c:\users\michel\desktop\source\gameserver\source\arcabattle.h
;	COMDAT ??0_stABMonPosition@@QAE@XZ
_TEXT	SEGMENT
??0_stABMonPosition@@QAE@XZ PROC			; _stABMonPosition::_stABMonPosition, COMDAT
; _this$ = ecx

; 387  : 	};
; 388  : };
; 389  : // -------------------------------------------------------------------------------
; 390  : 
; 391  : struct _stABMonPosition
; 392  : {
; 393  :     int		m_nGroupNumber;
; 394  :     int		m_nRegenAreaCnt;
; 395  :     int		m_nMonsterKindCnt;

  00000	8d 41 0c	 lea	 eax, DWORD PTR [ecx+12]
  00003	ba 32 00 00 00	 mov	 edx, 50			; 00000032H
  00008	0f 1f 84 00 00
	00 00 00	 npad	 8
$LL4@stABMonPos:

; 370  : 	};
; 371  : };
; 372  : // -------------------------------------------------------------------------------
; 373  : 
; 374  : struct _stABMonRegenArea
; 375  : {
; 376  :     int		m_nBeginX;
; 377  :     int		m_nBeginY;
; 378  :     int		m_nEndX;
; 379  :     int		m_nEndY;
; 380  : 	// ----
; 381  : 	_stABMonRegenArea::_stABMonRegenArea() //Line: 443
; 382  : 	{
; 383  : 		this->m_nBeginX = -1;

  00010	c7 00 ff ff ff
	ff		 mov	 DWORD PTR [eax], -1
  00016	8d 40 10	 lea	 eax, DWORD PTR [eax+16]

; 384  : 		this->m_nBeginY = -1;

  00019	c7 40 f4 ff ff
	ff ff		 mov	 DWORD PTR [eax-12], -1

; 385  : 		this->m_nEndX	= -1;

  00020	c7 40 f8 ff ff
	ff ff		 mov	 DWORD PTR [eax-8], -1

; 386  : 		this->m_nEndY	= -1;

  00027	c7 40 fc ff ff
	ff ff		 mov	 DWORD PTR [eax-4], -1
  0002e	83 ea 01	 sub	 edx, 1
  00031	75 dd		 jne	 SHORT $LL4@stABMonPos

; 369  : 		this->m_nMonsterIndex = -1;

  00033	0f 28 05 00 00
	00 00		 movaps	 xmm0, XMMWORD PTR __xmm@ffffffffffffffffffffffffffffffff

; 403  : 	};

  0003a	8b c1		 mov	 eax, ecx

; 369  : 		this->m_nMonsterIndex = -1;

  0003c	0f 11 81 2c 03
	00 00		 movups	 XMMWORD PTR [ecx+812], xmm0
  00043	0f 11 81 3c 03
	00 00		 movups	 XMMWORD PTR [ecx+828], xmm0
  0004a	0f 11 81 4c 03
	00 00		 movups	 XMMWORD PTR [ecx+844], xmm0
  00051	0f 11 81 5c 03
	00 00		 movups	 XMMWORD PTR [ecx+860], xmm0
  00058	0f 11 81 6c 03
	00 00		 movups	 XMMWORD PTR [ecx+876], xmm0

; 401  : 		this->m_nGroupNumber	= -1;

  0005f	c7 01 ff ff ff
	ff		 mov	 DWORD PTR [ecx], -1

; 402  : 		this->m_nRegenAreaCnt	= 0;

  00065	89 51 04	 mov	 DWORD PTR [ecx+4], edx

; 403  : 	};

  00068	c3		 ret	 0
??0_stABMonPosition@@QAE@XZ ENDP			; _stABMonPosition::_stABMonPosition
_TEXT	ENDS
; Function compile flags: /Ogtp
; File c:\users\michel\desktop\source\gameserver\source\arcabattle.h
;	COMDAT ??0_stABMonRegenArea@@QAE@XZ
_TEXT	SEGMENT
??0_stABMonRegenArea@@QAE@XZ PROC			; _stABMonRegenArea::_stABMonRegenArea, COMDAT
; _this$ = ecx

; 383  : 		this->m_nBeginX = -1;

  00000	c7 01 ff ff ff
	ff		 mov	 DWORD PTR [ecx], -1

; 384  : 		this->m_nBeginY = -1;
; 385  : 		this->m_nEndX	= -1;
; 386  : 		this->m_nEndY	= -1;
; 387  : 	};

  00006	8b c1		 mov	 eax, ecx
  00008	c7 41 04 ff ff
	ff ff		 mov	 DWORD PTR [ecx+4], -1
  0000f	c7 41 08 ff ff
	ff ff		 mov	 DWORD PTR [ecx+8], -1
  00016	c7 41 0c ff ff
	ff ff		 mov	 DWORD PTR [ecx+12], -1
  0001d	c3		 ret	 0
??0_stABMonRegenArea@@QAE@XZ ENDP			; _stABMonRegenArea::_stABMonRegenArea
_TEXT	ENDS
; Function compile flags: /Ogtp
; File c:\users\michel\desktop\source\gameserver\source\arcabattle.h
;	COMDAT ??0_stABMonIndexInf@@QAE@XZ
_TEXT	SEGMENT
??0_stABMonIndexInf@@QAE@XZ PROC			; _stABMonIndexInf::_stABMonIndexInf, COMDAT
; _this$ = ecx

; 369  : 		this->m_nMonsterIndex = -1;

  00000	c7 01 ff ff ff
	ff		 mov	 DWORD PTR [ecx], -1

; 370  : 	};

  00006	8b c1		 mov	 eax, ecx
  00008	c3		 ret	 0
??0_stABMonIndexInf@@QAE@XZ ENDP			; _stABMonIndexInf::_stABMonIndexInf
_TEXT	ENDS
; Function compile flags: /Ogtp
; File c:\users\michel\desktop\source\gameserver\source\arcabattle.h
;	COMDAT ??0_stABMonGroupInfo@@QAE@XZ
_TEXT	SEGMENT
??0_stABMonGroupInfo@@QAE@XZ PROC			; _stABMonGroupInfo::_stABMonGroupInfo, COMDAT
; _this$ = ecx

; 339  : 	};
; 340  : };
; 341  : // -------------------------------------------------------------------------------
; 342  : 
; 343  : struct _stABMonGroupInfo
; 344  : {
; 345  :     int		m_nGroupNumber;
; 346  :     int		m_nMapNumber;
; 347  :     int		m_nCnt;
; 348  :     int		m_nRegenTimeMin;
; 349  :     DWORD	m_dwNextRegenTime;

  00000	8d 41 14	 lea	 eax, DWORD PTR [ecx+20]
  00003	ba ff 00 00 00	 mov	 edx, 255		; 000000ffH
  00008	0f 1f 84 00 00
	00 00 00	 npad	 8
$LL4@stABMonGro:

; 337  : 		this->bItemDrop = 0;

  00010	c6 40 04 00	 mov	 BYTE PTR [eax+4], 0
  00014	8d 40 08	 lea	 eax, DWORD PTR [eax+8]

; 338  : 		this->m_nIndex	= -1;

  00017	c7 40 f8 ff ff
	ff ff		 mov	 DWORD PTR [eax-8], -1
  0001e	83 ea 01	 sub	 edx, 1
  00021	75 ed		 jne	 SHORT $LL4@stABMonGro

; 354  : 		this->m_nGroupNumber	= -1;

  00023	c7 01 ff ff ff
	ff		 mov	 DWORD PTR [ecx], -1

; 355  : 		this->m_nMapNumber		= -1;
; 356  : 		this->m_nCnt			= 0;
; 357  : 		this->m_nRegenTimeMin	= 0;
; 358  : 		this->m_dwNextRegenTime = 0;
; 359  : 	};

  00029	8b c1		 mov	 eax, ecx
  0002b	c7 41 04 ff ff
	ff ff		 mov	 DWORD PTR [ecx+4], -1
  00032	89 51 08	 mov	 DWORD PTR [ecx+8], edx
  00035	89 51 0c	 mov	 DWORD PTR [ecx+12], edx
  00038	89 51 10	 mov	 DWORD PTR [ecx+16], edx
  0003b	c3		 ret	 0
??0_stABMonGroupInfo@@QAE@XZ ENDP			; _stABMonGroupInfo::_stABMonGroupInfo
_TEXT	ENDS
; Function compile flags: /Ogtp
; File c:\users\michel\desktop\source\gameserver\source\arcabattle.h
;	COMDAT ??0_stABMonAccountNumInfo@@QAE@XZ
_TEXT	SEGMENT
??0_stABMonAccountNumInfo@@QAE@XZ PROC			; _stABMonAccountNumInfo::_stABMonAccountNumInfo, COMDAT
; _this$ = ecx

; 337  : 		this->bItemDrop = 0;

  00000	c6 41 04 00	 mov	 BYTE PTR [ecx+4], 0

; 338  : 		this->m_nIndex	= -1;
; 339  : 	};

  00004	8b c1		 mov	 eax, ecx
  00006	c7 01 ff ff ff
	ff		 mov	 DWORD PTR [ecx], -1
  0000c	c3		 ret	 0
??0_stABMonAccountNumInfo@@QAE@XZ ENDP			; _stABMonAccountNumInfo::_stABMonAccountNumInfo
_TEXT	ENDS
; Function compile flags: /Ogtp
; File c:\users\michel\desktop\source\gameserver\source\arcabattle.h
;	COMDAT ??0_tagOccupyGuildInfo@@QAE@XZ
_TEXT	SEGMENT
??0_tagOccupyGuildInfo@@QAE@XZ PROC			; _tagOccupyGuildInfo::_tagOccupyGuildInfo, COMDAT
; _this$ = ecx

; 325  : 		//Unfilled
; 326  : 	};

  00000	8b c1		 mov	 eax, ecx
  00002	c3		 ret	 0
??0_tagOccupyGuildInfo@@QAE@XZ ENDP			; _tagOccupyGuildInfo::_tagOccupyGuildInfo
_TEXT	ENDS
; Function compile flags: /Ogtp
; File c:\users\michel\desktop\source\gameserver\source\arcabattle.h
;	COMDAT ??0_tagARCA_BATTLE_RESULT_INFO@@QAE@XZ
_TEXT	SEGMENT
??0_tagARCA_BATTLE_RESULT_INFO@@QAE@XZ PROC		; _tagARCA_BATTLE_RESULT_INFO::_tagARCA_BATTLE_RESULT_INFO, COMDAT
; _this$ = ecx

; 310  : 		this->iGuildNum			= 0;

  00000	c7 01 00 00 00
	00		 mov	 DWORD PTR [ecx], 0

; 311  : 		this->iObeliskAttrKind	= 0;
; 312  : 	};

  00006	8b c1		 mov	 eax, ecx
  00008	c7 41 04 00 00
	00 00		 mov	 DWORD PTR [ecx+4], 0
  0000f	c3		 ret	 0
??0_tagARCA_BATTLE_RESULT_INFO@@QAE@XZ ENDP		; _tagARCA_BATTLE_RESULT_INFO::_tagARCA_BATTLE_RESULT_INFO
_TEXT	ENDS
; Function compile flags: /Ogtp
; File c:\users\michel\desktop\source\gameserver\source\arcabattle.h
;	COMDAT ?Clear@_tagOBELISK_STATE@@QAEXXZ
_TEXT	SEGMENT
?Clear@_tagOBELISK_STATE@@QAEXXZ PROC			; _tagOBELISK_STATE::Clear, COMDAT
; _this$ = ecx

; 291  : 		this->m_iGroupNumber			= -1;
; 292  : 		this->m_iMonIndex				= -1;
; 293  : 		this->m_iAuraState				= 0;
; 294  : 		this->m_iAuraReleaseGuildNum	= -1;
; 295  : 		this->m_iOccupyGuildNum			= -1;
; 296  : 		this->m_iObeliskState			= 0;
; 297  : 		memset(this->m_szOccupyGuildName, 0, 9);
; 298  : 		memset(this->m_stAuraState, -1, 48);

  00000	6a 30		 push	 48			; 00000030H
  00002	c7 01 ff ff ff
	ff		 mov	 DWORD PTR [ecx], -1
  00008	8d 41 24	 lea	 eax, DWORD PTR [ecx+36]
  0000b	c7 41 04 ff ff
	ff ff		 mov	 DWORD PTR [ecx+4], -1
  00012	0f 57 c0	 xorps	 xmm0, xmm0
  00015	c7 41 08 00 00
	00 00		 mov	 DWORD PTR [ecx+8], 0
  0001c	c7 41 0c ff ff
	ff ff		 mov	 DWORD PTR [ecx+12], -1
  00023	c7 41 14 ff ff
	ff ff		 mov	 DWORD PTR [ecx+20], -1
  0002a	c7 41 10 00 00
	00 00		 mov	 DWORD PTR [ecx+16], 0
  00031	6a ff		 push	 -1
  00033	66 0f d6 41 18	 movq	 QWORD PTR [ecx+24], xmm0
  00038	50		 push	 eax
  00039	c6 41 20 00	 mov	 BYTE PTR [ecx+32], 0
  0003d	e8 00 00 00 00	 call	 _memset
  00042	83 c4 0c	 add	 esp, 12			; 0000000cH

; 299  : 	};

  00045	c3		 ret	 0
?Clear@_tagOBELISK_STATE@@QAEXXZ ENDP			; _tagOBELISK_STATE::Clear
_TEXT	ENDS
; Function compile flags: /Ogtp
; File c:\users\michel\desktop\source\gameserver\source\arcabattle.h
;	COMDAT ??0_tagOBELISK_STATE@@QAE@XZ
_TEXT	SEGMENT
??0_tagOBELISK_STATE@@QAE@XZ PROC			; _tagOBELISK_STATE::_tagOBELISK_STATE, COMDAT
; _this$ = ecx

; 278  : 	{

  00000	56		 push	 esi
  00001	8b f1		 mov	 esi, ecx
  00003	0f 57 c0	 xorps	 xmm0, xmm0

; 262  : 	};
; 263  : };
; 264  : // -------------------------------------------------------------------------------
; 265  : 
; 266  : struct _tagOBELISK_STATE
; 267  : {
; 268  :     int		m_iGroupNumber;
; 269  :     int		m_iMonIndex;
; 270  :     int		m_iAuraState;
; 271  :     int		m_iAuraReleaseGuildNum;
; 272  :     int		m_iObeliskState;
; 273  :     int		m_iOccupyGuildNum;

  00006	8d 46 24	 lea	 eax, DWORD PTR [esi+36]

; 258  : 		this->m_iGroupNumber	= -1;

  00009	c7 00 ff ff ff
	ff		 mov	 DWORD PTR [eax], -1

; 259  : 		this->m_btAuraState		= 0;

  0000f	c6 40 04 00	 mov	 BYTE PTR [eax+4], 0

; 260  : 		this->m_iHoverUserIndex = 0;

  00013	c7 40 08 00 00
	00 00		 mov	 DWORD PTR [eax+8], 0

; 261  : 		this->m_iIndex			= -1;

  0001a	c7 40 0c ff ff
	ff ff		 mov	 DWORD PTR [eax+12], -1
  00021	c7 40 10 ff ff
	ff ff		 mov	 DWORD PTR [eax+16], -1
  00028	c6 40 14 00	 mov	 BYTE PTR [eax+20], 0
  0002c	c7 40 18 00 00
	00 00		 mov	 DWORD PTR [eax+24], 0
  00033	c7 40 1c ff ff
	ff ff		 mov	 DWORD PTR [eax+28], -1
  0003a	c7 40 20 ff ff
	ff ff		 mov	 DWORD PTR [eax+32], -1
  00041	c6 40 24 00	 mov	 BYTE PTR [eax+36], 0
  00045	c7 40 28 00 00
	00 00		 mov	 DWORD PTR [eax+40], 0
  0004c	c7 40 2c ff ff
	ff ff		 mov	 DWORD PTR [eax+44], -1

; 279  : 		this->m_iGroupNumber			= -1;
; 280  : 		this->m_iMonIndex				= -1;
; 281  : 		this->m_iAuraState				= 0;
; 282  : 		this->m_iAuraReleaseGuildNum	= -1;
; 283  : 		this->m_iOccupyGuildNum			= -1;
; 284  : 		this->m_iObeliskState			= 0;
; 285  : 		memset(this->m_szOccupyGuildName, 0, 9);
; 286  : 		memset(this->m_stAuraState, -1, 48);

  00053	6a 30		 push	 48			; 00000030H
  00055	c7 06 ff ff ff
	ff		 mov	 DWORD PTR [esi], -1
  0005b	c7 46 04 ff ff
	ff ff		 mov	 DWORD PTR [esi+4], -1
  00062	c7 46 08 00 00
	00 00		 mov	 DWORD PTR [esi+8], 0
  00069	c7 46 0c ff ff
	ff ff		 mov	 DWORD PTR [esi+12], -1
  00070	c7 46 14 ff ff
	ff ff		 mov	 DWORD PTR [esi+20], -1
  00077	c7 46 10 00 00
	00 00		 mov	 DWORD PTR [esi+16], 0
  0007e	6a ff		 push	 -1
  00080	66 0f d6 46 18	 movq	 QWORD PTR [esi+24], xmm0
  00085	50		 push	 eax
  00086	c6 46 20 00	 mov	 BYTE PTR [esi+32], 0
  0008a	e8 00 00 00 00	 call	 _memset
  0008f	83 c4 0c	 add	 esp, 12			; 0000000cH

; 287  : 	};

  00092	8b c6		 mov	 eax, esi
  00094	5e		 pop	 esi
  00095	c3		 ret	 0
??0_tagOBELISK_STATE@@QAE@XZ ENDP			; _tagOBELISK_STATE::_tagOBELISK_STATE
_TEXT	ENDS
; Function compile flags: /Ogtp
; File c:\users\michel\desktop\source\gameserver\source\arcabattle.h
;	COMDAT ??0_tagAURA_STATE@@QAE@XZ
_TEXT	SEGMENT
??0_tagAURA_STATE@@QAE@XZ PROC				; _tagAURA_STATE::_tagAURA_STATE, COMDAT
; _this$ = ecx

; 258  : 		this->m_iGroupNumber	= -1;

  00000	c7 01 ff ff ff
	ff		 mov	 DWORD PTR [ecx], -1

; 259  : 		this->m_btAuraState		= 0;
; 260  : 		this->m_iHoverUserIndex = 0;
; 261  : 		this->m_iIndex			= -1;
; 262  : 	};

  00006	8b c1		 mov	 eax, ecx
  00008	c6 41 04 00	 mov	 BYTE PTR [ecx+4], 0
  0000c	c7 41 08 00 00
	00 00		 mov	 DWORD PTR [ecx+8], 0
  00013	c7 41 0c ff ff
	ff ff		 mov	 DWORD PTR [ecx+12], -1
  0001a	c3		 ret	 0
??0_tagAURA_STATE@@QAE@XZ ENDP				; _tagAURA_STATE::_tagAURA_STATE
_TEXT	ENDS
; Function compile flags: /Ogtp
; File c:\users\michel\desktop\source\gameserver\source\arcabattle.h
;	COMDAT ??0_tagOBELISK_INFO@@QAE@XZ
_TEXT	SEGMENT
??0_tagOBELISK_INFO@@QAE@XZ PROC			; _tagOBELISK_INFO::_tagOBELISK_INFO, COMDAT
; _this$ = ecx

; 233  : 	{

  00000	56		 push	 esi
  00001	8b f1		 mov	 esi, ecx

; 214  : 	};
; 215  : };
; 216  : // -------------------------------------------------------------------------------
; 217  : 
; 218  : struct _tagOBELISK_INFO
; 219  : {
; 220  :     int		m_iGroupNumber;
; 221  :     int		m_iAttrKind;
; 222  :     int		m_iHP;
; 223  :     int		m_iOccupyHP;
; 224  :     int		m_iMapIndex;
; 225  :     int		m_iPosX;
; 226  :     int		m_iPosY;
; 227  :     int		m_iMonsterNum;
; 228  :     DWORD	m_dwTick;
; 229  :     DWORD	m_dwRegenTime;

  00003	8d 46 28	 lea	 eax, DWORD PTR [esi+40]

; 210  : 		this->m_iMapIndex		= -1;

  00006	c7 40 04 ff ff
	ff ff		 mov	 DWORD PTR [eax+4], -1

; 211  : 		this->m_iGroupNumber	= -1;

  0000d	c7 00 ff ff ff
	ff		 mov	 DWORD PTR [eax], -1

; 212  : 		this->m_iAuraPosX		= -1;

  00013	c7 40 08 ff ff
	ff ff		 mov	 DWORD PTR [eax+8], -1

; 213  : 		this->m_iAuraPosY		= -1;

  0001a	c7 40 0c ff ff
	ff ff		 mov	 DWORD PTR [eax+12], -1
  00021	c7 40 14 ff ff
	ff ff		 mov	 DWORD PTR [eax+20], -1
  00028	c7 40 10 ff ff
	ff ff		 mov	 DWORD PTR [eax+16], -1
  0002f	c7 40 18 ff ff
	ff ff		 mov	 DWORD PTR [eax+24], -1
  00036	c7 40 1c ff ff
	ff ff		 mov	 DWORD PTR [eax+28], -1
  0003d	c7 40 24 ff ff
	ff ff		 mov	 DWORD PTR [eax+36], -1
  00044	c7 40 20 ff ff
	ff ff		 mov	 DWORD PTR [eax+32], -1
  0004b	c7 40 28 ff ff
	ff ff		 mov	 DWORD PTR [eax+40], -1
  00052	c7 40 2c ff ff
	ff ff		 mov	 DWORD PTR [eax+44], -1

; 234  : 		this->m_iGroupNumber	= 0;
; 235  : 		this->m_iAttrKind		= 0;
; 236  : 		this->m_iMapIndex		= -1;
; 237  : 		this->m_iHP				= 0;
; 238  : 		this->m_iOccupyHP		= 0;
; 239  : 		this->m_iPosX			= -1;
; 240  : 		this->m_iPosY			= -1;
; 241  : 		this->m_iMonsterNum		= 0;
; 242  : 		this->m_dwTick			= 0;
; 243  : 		this->m_dwRegenTime		= 0;
; 244  : 		memset(this->m_stAuraInfo, -1, 48);	//sizeof(m_stAuraInfo)?

  00059	6a 30		 push	 48			; 00000030H
  0005b	6a ff		 push	 -1
  0005d	50		 push	 eax
  0005e	c7 06 00 00 00
	00		 mov	 DWORD PTR [esi], 0
  00064	c7 46 04 00 00
	00 00		 mov	 DWORD PTR [esi+4], 0
  0006b	c7 46 10 ff ff
	ff ff		 mov	 DWORD PTR [esi+16], -1
  00072	c7 46 08 00 00
	00 00		 mov	 DWORD PTR [esi+8], 0
  00079	c7 46 0c 00 00
	00 00		 mov	 DWORD PTR [esi+12], 0
  00080	c7 46 14 ff ff
	ff ff		 mov	 DWORD PTR [esi+20], -1
  00087	c7 46 18 ff ff
	ff ff		 mov	 DWORD PTR [esi+24], -1
  0008e	c7 46 1c 00 00
	00 00		 mov	 DWORD PTR [esi+28], 0
  00095	c7 46 20 00 00
	00 00		 mov	 DWORD PTR [esi+32], 0
  0009c	c7 46 24 00 00
	00 00		 mov	 DWORD PTR [esi+36], 0
  000a3	e8 00 00 00 00	 call	 _memset
  000a8	83 c4 0c	 add	 esp, 12			; 0000000cH

; 245  : 	};

  000ab	8b c6		 mov	 eax, esi
  000ad	5e		 pop	 esi
  000ae	c3		 ret	 0
??0_tagOBELISK_INFO@@QAE@XZ ENDP			; _tagOBELISK_INFO::_tagOBELISK_INFO
_TEXT	ENDS
; Function compile flags: /Ogtp
; File c:\users\michel\desktop\source\gameserver\source\arcabattle.h
;	COMDAT ??0_tagAURA_INFO@@QAE@XZ
_TEXT	SEGMENT
??0_tagAURA_INFO@@QAE@XZ PROC				; _tagAURA_INFO::_tagAURA_INFO, COMDAT
; _this$ = ecx

; 210  : 		this->m_iMapIndex		= -1;

  00000	c7 41 04 ff ff
	ff ff		 mov	 DWORD PTR [ecx+4], -1

; 211  : 		this->m_iGroupNumber	= -1;
; 212  : 		this->m_iAuraPosX		= -1;
; 213  : 		this->m_iAuraPosY		= -1;
; 214  : 	};

  00007	8b c1		 mov	 eax, ecx
  00009	c7 01 ff ff ff
	ff		 mov	 DWORD PTR [ecx], -1
  0000f	c7 41 08 ff ff
	ff ff		 mov	 DWORD PTR [ecx+8], -1
  00016	c7 41 0c ff ff
	ff ff		 mov	 DWORD PTR [ecx+12], -1
  0001d	c3		 ret	 0
??0_tagAURA_INFO@@QAE@XZ ENDP				; _tagAURA_INFO::_tagAURA_INFO
_TEXT	ENDS
; Function compile flags: /Ogtp
; File c:\users\michel\desktop\source\gameserver\source\arcabattle.h
;	COMDAT ??0_tagARCA_BATTLE_BOOTY_MIX@@QAE@XZ
_TEXT	SEGMENT
??0_tagARCA_BATTLE_BOOTY_MIX@@QAE@XZ PROC		; _tagARCA_BATTLE_BOOTY_MIX::_tagARCA_BATTLE_BOOTY_MIX, COMDAT
; _this$ = ecx

; 160  : 	};
; 161  : };
; 162  : // -------------------------------------------------------------------------------
; 163  : 
; 164  : struct _tagARCA_BATTLE_BOOTY_MIX
; 165  : {
; 166  :     int		iItemLink;
; 167  :     int		iMinCnt;
; 168  :     int		iMaxCnt;
; 169  :     int		iBaseRate;
; 170  :     int		iAddRate;
; 171  :     int		iBootyRewardCnt;

  00000	8d 41 18	 lea	 eax, DWORD PTR [ecx+24]
  00003	ba 14 00 00 00	 mov	 edx, 20			; 00000014H
  00008	0f 1f 84 00 00
	00 00 00	 npad	 8
$LL4@tagARCA_BA:

; 154  : 		this->iItemLink		= 0;

  00010	c7 00 00 00 00
	00		 mov	 DWORD PTR [eax], 0
  00016	8d 40 18	 lea	 eax, DWORD PTR [eax+24]

; 155  : 		this->iItemType		= 0;

  00019	c7 40 ec 00 00
	00 00		 mov	 DWORD PTR [eax-20], 0

; 156  : 		this->iItemIndex	= 0;

  00020	c7 40 f0 00 00
	00 00		 mov	 DWORD PTR [eax-16], 0

; 157  : 		this->iItemLevel	= 0;

  00027	c7 40 f4 00 00
	00 00		 mov	 DWORD PTR [eax-12], 0

; 158  : 		this->iDurab		= 0;

  0002e	c7 40 f8 00 00
	00 00		 mov	 DWORD PTR [eax-8], 0

; 159  : 		this->iRate			= 0;

  00035	c7 40 fc 00 00
	00 00		 mov	 DWORD PTR [eax-4], 0
  0003c	83 ea 01	 sub	 edx, 1
  0003f	75 cf		 jne	 SHORT $LL4@tagARCA_BA

; 176  : 		this->iItemLink			= 0;

  00041	89 11		 mov	 DWORD PTR [ecx], edx

; 177  : 		this->iMinCnt			= 0;
; 178  : 		this->iMaxCnt			= 0;
; 179  : 		this->iBaseRate			= 0;
; 180  : 		this->iAddRate			= 0;
; 181  : 		this->iBootyRewardCnt	= 0;
; 182  : 	};

  00043	8b c1		 mov	 eax, ecx
  00045	89 51 04	 mov	 DWORD PTR [ecx+4], edx
  00048	89 51 08	 mov	 DWORD PTR [ecx+8], edx
  0004b	89 51 0c	 mov	 DWORD PTR [ecx+12], edx
  0004e	89 51 10	 mov	 DWORD PTR [ecx+16], edx
  00051	89 51 14	 mov	 DWORD PTR [ecx+20], edx
  00054	c3		 ret	 0
??0_tagARCA_BATTLE_BOOTY_MIX@@QAE@XZ ENDP		; _tagARCA_BATTLE_BOOTY_MIX::_tagARCA_BATTLE_BOOTY_MIX
_TEXT	ENDS
; Function compile flags: /Ogtp
; File c:\users\michel\desktop\source\gameserver\source\arcabattle.h
;	COMDAT ??0_tagARCA_BATTLE_BOOTY_REWARD@@QAE@XZ
_TEXT	SEGMENT
??0_tagARCA_BATTLE_BOOTY_REWARD@@QAE@XZ PROC		; _tagARCA_BATTLE_BOOTY_REWARD::_tagARCA_BATTLE_BOOTY_REWARD, COMDAT
; _this$ = ecx

; 154  : 		this->iItemLink		= 0;

  00000	c7 01 00 00 00
	00		 mov	 DWORD PTR [ecx], 0

; 155  : 		this->iItemType		= 0;
; 156  : 		this->iItemIndex	= 0;
; 157  : 		this->iItemLevel	= 0;
; 158  : 		this->iDurab		= 0;
; 159  : 		this->iRate			= 0;
; 160  : 	};

  00006	8b c1		 mov	 eax, ecx
  00008	c7 41 04 00 00
	00 00		 mov	 DWORD PTR [ecx+4], 0
  0000f	c7 41 08 00 00
	00 00		 mov	 DWORD PTR [ecx+8], 0
  00016	c7 41 0c 00 00
	00 00		 mov	 DWORD PTR [ecx+12], 0
  0001d	c7 41 10 00 00
	00 00		 mov	 DWORD PTR [ecx+16], 0
  00024	c7 41 14 00 00
	00 00		 mov	 DWORD PTR [ecx+20], 0
  0002b	c3		 ret	 0
??0_tagARCA_BATTLE_BOOTY_REWARD@@QAE@XZ ENDP		; _tagARCA_BATTLE_BOOTY_REWARD::_tagARCA_BATTLE_BOOTY_REWARD
_TEXT	ENDS
; Function compile flags: /Ogtp
; File c:\users\michel\desktop\source\gameserver\source\arcabattle.h
;	COMDAT ?Clear@_stABWinGuildInfo@@QAEXXZ
_TEXT	SEGMENT
?Clear@_stABWinGuildInfo@@QAEXXZ PROC			; _stABWinGuildInfo::Clear, COMDAT
; _this$ = ecx

; 134  : 	{

  00000	0f 57 c0	 xorps	 xmm0, xmm0

; 135  : 		memset(this->szGuildName, 0, 9);
; 136  : 		this->dwGuild			= 0;
; 137  : 		this->wOccupyObelisk	= 0;

  00003	33 c0		 xor	 eax, eax
  00005	66 0f d6 01	 movq	 QWORD PTR [ecx], xmm0
  00009	c6 41 08 00	 mov	 BYTE PTR [ecx+8], 0
  0000d	c7 41 0c 00 00
	00 00		 mov	 DWORD PTR [ecx+12], 0
  00014	89 41 10	 mov	 DWORD PTR [ecx+16], eax

; 138  : 		this->wObeliskGroup		= 0;
; 139  : 	};

  00017	c3		 ret	 0
?Clear@_stABWinGuildInfo@@QAEXXZ ENDP			; _stABWinGuildInfo::Clear
_TEXT	ENDS
; Function compile flags: /Ogtp
; File c:\users\michel\desktop\source\gameserver\source\arcabattle.h
;	COMDAT ??0_stABWinGuildInfo@@QAE@XZ
_TEXT	SEGMENT
??0_stABWinGuildInfo@@QAE@XZ PROC			; _stABWinGuildInfo::_stABWinGuildInfo, COMDAT
; _this$ = ecx

; 126  : 	{

  00000	0f 57 c0	 xorps	 xmm0, xmm0

; 127  : 		memset(this->szGuildName, 0, 9);
; 128  : 		this->dwGuild			= 0;
; 129  : 		this->wOccupyObelisk	= 0;

  00003	33 c0		 xor	 eax, eax
  00005	66 0f d6 01	 movq	 QWORD PTR [ecx], xmm0
  00009	c6 41 08 00	 mov	 BYTE PTR [ecx+8], 0
  0000d	89 41 10	 mov	 DWORD PTR [ecx+16], eax

; 130  : 		this->wObeliskGroup		= 0;
; 131  : 	};

  00010	8b c1		 mov	 eax, ecx
  00012	c7 41 0c 00 00
	00 00		 mov	 DWORD PTR [ecx+12], 0
  00019	c3		 ret	 0
??0_stABWinGuildInfo@@QAE@XZ ENDP			; _stABWinGuildInfo::_stABWinGuildInfo
_TEXT	ENDS
; Function compile flags: /Ogtp
; File c:\users\michel\desktop\source\gameserver\source\arcabattle.h
;	COMDAT ?Clear@_tagArcaBattleUserInfo@@QAEXXZ
_TEXT	SEGMENT
?Clear@_tagArcaBattleUserInfo@@QAEXXZ PROC		; _tagArcaBattleUserInfo::Clear, COMDAT
; _this$ = ecx

; 110  : 	{

  00000	0f 57 c0	 xorps	 xmm0, xmm0

; 111  : 		memset(this->szCharName, 0, 11);

  00003	66 0f d6 01	 movq	 QWORD PTR [ecx], xmm0
  00007	c7 41 08 00 00
	00 00		 mov	 DWORD PTR [ecx+8], 0

; 90   : 		this->dwBootyCnt			= 0;

  0000e	c7 41 0c 00 00
	00 00		 mov	 DWORD PTR [ecx+12], 0

; 91   : 		this->dwContributePoints	= 0;

  00015	c7 41 10 00 00
	00 00		 mov	 DWORD PTR [ecx+16], 0

; 92   : 		this->dwKillPoints			= 0;

  0001c	c7 41 14 00 00
	00 00		 mov	 DWORD PTR [ecx+20], 0

; 112  : 		this->bBootyDrop = 0;
; 113  : 		this->m_stAcquiredPoints.Clear();
; 114  : 	};

  00023	c3		 ret	 0
?Clear@_tagArcaBattleUserInfo@@QAEXXZ ENDP		; _tagArcaBattleUserInfo::Clear
_TEXT	ENDS
; Function compile flags: /Ogtp
; File c:\users\michel\desktop\source\gameserver\source\arcabattle.h
;	COMDAT ??0_tagArcaBattleUserInfo@@QAE@XZ
_TEXT	SEGMENT
??0_tagArcaBattleUserInfo@@QAE@XZ PROC			; _tagArcaBattleUserInfo::_tagArcaBattleUserInfo, COMDAT
; _this$ = ecx

; 90   : 		this->dwBootyCnt			= 0;

  00000	c7 41 0c 00 00
	00 00		 mov	 DWORD PTR [ecx+12], 0
  00007	0f 57 c0	 xorps	 xmm0, xmm0

; 91   : 		this->dwContributePoints	= 0;

  0000a	c7 41 10 00 00
	00 00		 mov	 DWORD PTR [ecx+16], 0

; 106  : 		this->bBootyDrop = 0;
; 107  : 	};

  00011	8b c1		 mov	 eax, ecx

; 92   : 		this->dwKillPoints			= 0;

  00013	c7 41 14 00 00
	00 00		 mov	 DWORD PTR [ecx+20], 0

; 105  : 		memset(this->szCharName, 0, 11);

  0001a	66 0f d6 01	 movq	 QWORD PTR [ecx], xmm0
  0001e	c7 41 08 00 00
	00 00		 mov	 DWORD PTR [ecx+8], 0

; 106  : 		this->bBootyDrop = 0;
; 107  : 	};

  00025	c3		 ret	 0
??0_tagArcaBattleUserInfo@@QAE@XZ ENDP			; _tagArcaBattleUserInfo::_tagArcaBattleUserInfo
_TEXT	ENDS
; Function compile flags: /Ogtp
; File c:\users\michel\desktop\source\gameserver\source\arcabattle.h
;	COMDAT ?Clear@_stABAcquiredPoints@@QAEXXZ
_TEXT	SEGMENT
?Clear@_stABAcquiredPoints@@QAEXXZ PROC			; _stABAcquiredPoints::Clear, COMDAT
; _this$ = ecx

; 90   : 		this->dwBootyCnt			= 0;

  00000	c7 01 00 00 00
	00		 mov	 DWORD PTR [ecx], 0

; 91   : 		this->dwContributePoints	= 0;

  00006	c7 41 04 00 00
	00 00		 mov	 DWORD PTR [ecx+4], 0

; 92   : 		this->dwKillPoints			= 0;

  0000d	c7 41 08 00 00
	00 00		 mov	 DWORD PTR [ecx+8], 0

; 93   : 	};

  00014	c3		 ret	 0
?Clear@_stABAcquiredPoints@@QAEXXZ ENDP			; _stABAcquiredPoints::Clear
_TEXT	ENDS
; Function compile flags: /Ogtp
; File c:\users\michel\desktop\source\gameserver\source\arcabattle.h
;	COMDAT ??0_stABAcquiredPoints@@QAE@XZ
_TEXT	SEGMENT
??0_stABAcquiredPoints@@QAE@XZ PROC			; _stABAcquiredPoints::_stABAcquiredPoints, COMDAT
; _this$ = ecx

; 87   : 	// ----
; 88   :     void _stABAcquiredPoints::Clear() //Line: 106
; 89   : 	{
; 90   : 		this->dwBootyCnt			= 0;

  00000	c7 01 00 00 00
	00		 mov	 DWORD PTR [ecx], 0

; 85   : 		this->Clear();
; 86   : 	};

  00006	8b c1		 mov	 eax, ecx

; 91   : 		this->dwContributePoints	= 0;

  00008	c7 41 04 00 00
	00 00		 mov	 DWORD PTR [ecx+4], 0

; 92   : 		this->dwKillPoints			= 0;

  0000f	c7 41 08 00 00
	00 00		 mov	 DWORD PTR [ecx+8], 0

; 85   : 		this->Clear();
; 86   : 	};

  00016	c3		 ret	 0
??0_stABAcquiredPoints@@QAE@XZ ENDP			; _stABAcquiredPoints::_stABAcquiredPoints
_TEXT	ENDS
; Function compile flags: /Ogtp
; File c:\users\michel\desktop\source\gameserver\source\arcabattleprotocol.h
;	COMDAT ??0_tagPMSG_REQ_AB_WIN_GUILD_INFO_DS@@QAE@XZ
_TEXT	SEGMENT
??0_tagPMSG_REQ_AB_WIN_GUILD_INFO_DS@@QAE@XZ PROC	; _tagPMSG_REQ_AB_WIN_GUILD_INFO_DS::_tagPMSG_REQ_AB_WIN_GUILD_INFO_DS, COMDAT
; _this$ = ecx

; 238  : 		this->wNumber = 0;

  00000	33 c0		 xor	 eax, eax
  00002	66 89 41 04	 mov	 WORD PTR [ecx+4], ax

; 239  : 	};

  00006	8b c1		 mov	 eax, ecx
  00008	c3		 ret	 0
??0_tagPMSG_REQ_AB_WIN_GUILD_INFO_DS@@QAE@XZ ENDP	; _tagPMSG_REQ_AB_WIN_GUILD_INFO_DS::_tagPMSG_REQ_AB_WIN_GUILD_INFO_DS
_TEXT	ENDS
; Function compile flags: /Ogtp
; File c:\users\michel\desktop\source\gameserver\source\arcabattleprotocol.h
;	COMDAT ??0_tagPMSG_REQ_AB_WIN_GUILD_INFO_INSERT_DS@@QAE@XZ
_TEXT	SEGMENT
??0_tagPMSG_REQ_AB_WIN_GUILD_INFO_INSERT_DS@@QAE@XZ PROC ; _tagPMSG_REQ_AB_WIN_GUILD_INFO_INSERT_DS::_tagPMSG_REQ_AB_WIN_GUILD_INFO_INSERT_DS, COMDAT
; _this$ = ecx

; 211  : 		this->wObeliskGroup		= 0;
; 212  : 	};
; 213  : };
; 214  : // -------------------------------------------------------------------------------
; 215  : 
; 216  : struct _tagPMSG_REQ_AB_WIN_GUILD_INFO_INSERT_DS
; 217  : {
; 218  :     PBMSG_HEAD2 h;
; 219  :     BYTE		btGuildCnt;
; 220  :     WORD		wMapSvrNum;

  00000	8d 41 08	 lea	 eax, DWORD PTR [ecx+8]
  00003	ba 05 00 00 00	 mov	 edx, 5
  00008	56		 push	 esi
  00009	0f 1f 80 00 00
	00 00		 npad	 7
$LL4@tagPMSG_RE:
  00010	0f 57 c0	 xorps	 xmm0, xmm0
  00013	8d 40 14	 lea	 eax, DWORD PTR [eax+20]

; 208  : 		memset(this->szGuildName, 0, 9);

  00016	66 0f d6 40 ec	 movq	 QWORD PTR [eax-20], xmm0

; 209  : 		this->dwGuild			= 0;
; 210  : 		this->wOccupyObelisk	= 0;

  0001b	33 f6		 xor	 esi, esi
  0001d	c6 40 f4 00	 mov	 BYTE PTR [eax-12], 0
  00021	c7 40 f8 00 00
	00 00		 mov	 DWORD PTR [eax-8], 0
  00028	89 70 fc	 mov	 DWORD PTR [eax-4], esi
  0002b	83 ea 01	 sub	 edx, 1
  0002e	75 e0		 jne	 SHORT $LL4@tagPMSG_RE

; 225  : 		this->btGuildCnt = 0;
; 226  : 		this->wMapSvrNum = 0;

  00030	33 c0		 xor	 eax, eax
  00032	88 51 04	 mov	 BYTE PTR [ecx+4], dl
  00035	66 89 41 06	 mov	 WORD PTR [ecx+6], ax

; 227  : 	};

  00039	8b c1		 mov	 eax, ecx
  0003b	5e		 pop	 esi
  0003c	c3		 ret	 0
??0_tagPMSG_REQ_AB_WIN_GUILD_INFO_INSERT_DS@@QAE@XZ ENDP ; _tagPMSG_REQ_AB_WIN_GUILD_INFO_INSERT_DS::_tagPMSG_REQ_AB_WIN_GUILD_INFO_INSERT_DS
_TEXT	ENDS
; Function compile flags: /Ogtp
; File c:\users\michel\desktop\source\gameserver\source\arcabattleprotocol.h
;	COMDAT ??0_stABWinGuildInfoDS@@QAE@XZ
_TEXT	SEGMENT
??0_stABWinGuildInfoDS@@QAE@XZ PROC			; _stABWinGuildInfoDS::_stABWinGuildInfoDS, COMDAT
; _this$ = ecx

; 207  : 	{

  00000	0f 57 c0	 xorps	 xmm0, xmm0

; 208  : 		memset(this->szGuildName, 0, 9);
; 209  : 		this->dwGuild			= 0;
; 210  : 		this->wOccupyObelisk	= 0;

  00003	33 c0		 xor	 eax, eax
  00005	66 0f d6 01	 movq	 QWORD PTR [ecx], xmm0
  00009	c6 41 08 00	 mov	 BYTE PTR [ecx+8], 0
  0000d	89 41 10	 mov	 DWORD PTR [ecx+16], eax

; 211  : 		this->wObeliskGroup		= 0;
; 212  : 	};

  00010	8b c1		 mov	 eax, ecx
  00012	c7 41 0c 00 00
	00 00		 mov	 DWORD PTR [ecx+12], 0
  00019	c3		 ret	 0
??0_stABWinGuildInfoDS@@QAE@XZ ENDP			; _stABWinGuildInfoDS::_stABWinGuildInfoDS
_TEXT	ENDS
; Function compile flags: /Ogtp
; File c:\users\michel\desktop\source\gameserver\source\arcabattleprotocol.h
;	COMDAT ??0_stObeliskLife@@QAE@XZ
_TEXT	SEGMENT
??0_stObeliskLife@@QAE@XZ PROC				; _stObeliskLife::_stObeliskLife, COMDAT
; _this$ = ecx

; 127  : 		this->btLife		= 0;

  00000	66 c7 01 00 00	 mov	 WORD PTR [ecx], 0

; 128  : 		this->btAttribute	= 0;
; 129  : 	};

  00005	8b c1		 mov	 eax, ecx
  00007	c3		 ret	 0
??0_stObeliskLife@@QAE@XZ ENDP				; _stObeliskLife::_stObeliskLife
_TEXT	ENDS
; Function compile flags: /Ogtp
; File c:\users\michel\desktop\source\gameserver\source\arcabattleprotocol.h
;	COMDAT ??0_stABObeliskOccupy@@QAE@XZ
_TEXT	SEGMENT
??0_stABObeliskOccupy@@QAE@XZ PROC			; _stABObeliskOccupy::_stABObeliskOccupy, COMDAT
; _this$ = ecx

; 114  : 		this->wObeliskKind = 0;

  00000	33 c0		 xor	 eax, eax
  00002	0f 57 c0	 xorps	 xmm0, xmm0
  00005	66 89 01	 mov	 WORD PTR [ecx], ax

; 115  : 		memset(this->szGuildName, 0, 9);

  00008	66 0f d6 41 02	 movq	 QWORD PTR [ecx+2], xmm0
  0000d	88 41 0a	 mov	 BYTE PTR [ecx+10], al

; 116  : 	};

  00010	8b c1		 mov	 eax, ecx
  00012	c3		 ret	 0
??0_stABObeliskOccupy@@QAE@XZ ENDP			; _stABObeliskOccupy::_stABObeliskOccupy
_TEXT	ENDS
; Function compile flags: /Ogtp
; File c:\users\michel\desktop\source\gameserver\source\arcabattleprotocol.h
;	COMDAT ??0_tagPMSG_ARCA_BATTLE_PLAY_INFO@@QAE@XZ
_TEXT	SEGMENT
??0_tagPMSG_ARCA_BATTLE_PLAY_INFO@@QAE@XZ PROC		; _tagPMSG_ARCA_BATTLE_PLAY_INFO::_tagPMSG_ARCA_BATTLE_PLAY_INFO, COMDAT
; _this$ = ecx

; 90   : 	};
; 91   : };
; 92   : // -------------------------------------------------------------------------------
; 93   : 
; 94   : struct _tagPMSG_ARCA_BATTLE_PLAY_INFO
; 95   : {
; 96   :     PBMSG_HEAD2 h;
; 97   :     WORD		wGuildGroupNum;

  00000	8d 51 08	 lea	 edx, DWORD PTR [ecx+8]
  00003	56		 push	 esi
  00004	be 05 00 00 00	 mov	 esi, 5
  00009	8d 42 1c	 lea	 eax, DWORD PTR [edx+28]
  0000c	0f 1f 40 00	 npad	 4
$LL4@tagPMSG_AR:

; 68   : 		this->m_iAuraPosX = -1;

  00010	c7 40 f8 ff ff
	ff ff		 mov	 DWORD PTR [eax-8], -1
  00017	8d 52 2c	 lea	 edx, DWORD PTR [edx+44]

; 69   : 		this->m_iAuraPosY = -1;

  0001a	c7 40 fc ff ff
	ff ff		 mov	 DWORD PTR [eax-4], -1
  00021	8d 40 2c	 lea	 eax, DWORD PTR [eax+44]

; 68   : 		this->m_iAuraPosX = -1;

  00024	c7 40 d4 ff ff
	ff ff		 mov	 DWORD PTR [eax-44], -1

; 69   : 		this->m_iAuraPosY = -1;

  0002b	c7 40 d8 ff ff
	ff ff		 mov	 DWORD PTR [eax-40], -1
  00032	c7 40 dc ff ff
	ff ff		 mov	 DWORD PTR [eax-36], -1
  00039	c7 40 e0 ff ff
	ff ff		 mov	 DWORD PTR [eax-32], -1

; 70   : 	};
; 71   : };
; 72   : // -------------------------------------------------------------------------------
; 73   : 
; 74   : struct _stArcaBattleObeliskInfo
; 75   : {
; 76   :     int		iGroupNumber;
; 77   :     int		iAttrKind;
; 78   :     int		iMapIndex;
; 79   :     int		iPosX;
; 80   :     int		iPosY;
; 81   :     _stAuraInfo m_StAuraInfo[3];
; 82   : 	// ----
; 83   : 	_stArcaBattleObeliskInfo::_stArcaBattleObeliskInfo() //Line: 203
; 84   : 	{
; 85   : 		this->iGroupNumber	= -1;

  00040	c7 42 d4 ff ff
	ff ff		 mov	 DWORD PTR [edx-44], -1

; 86   : 		this->iAttrKind		= -1;

  00047	c7 40 bc ff ff
	ff ff		 mov	 DWORD PTR [eax-68], -1

; 87   : 		this->iMapIndex		= -1;

  0004e	c7 40 c0 ff ff
	ff ff		 mov	 DWORD PTR [eax-64], -1

; 88   : 		this->iPosX			= -1;

  00055	c7 40 c4 ff ff
	ff ff		 mov	 DWORD PTR [eax-60], -1

; 89   : 		this->iPosY			= -1;

  0005c	c7 40 c8 ff ff
	ff ff		 mov	 DWORD PTR [eax-56], -1
  00063	83 ee 01	 sub	 esi, 1
  00066	75 a8		 jne	 SHORT $LL4@tagPMSG_AR

; 102  : 		this->wGuildGroupNum = 0;

  00068	33 c0		 xor	 eax, eax
  0006a	66 89 41 04	 mov	 WORD PTR [ecx+4], ax

; 103  : 	};

  0006e	8b c1		 mov	 eax, ecx
  00070	5e		 pop	 esi
  00071	c3		 ret	 0
??0_tagPMSG_ARCA_BATTLE_PLAY_INFO@@QAE@XZ ENDP		; _tagPMSG_ARCA_BATTLE_PLAY_INFO::_tagPMSG_ARCA_BATTLE_PLAY_INFO
_TEXT	ENDS
; Function compile flags: /Ogtp
; File c:\users\michel\desktop\source\gameserver\source\arcabattleprotocol.h
;	COMDAT ??0_stArcaBattleObeliskInfo@@QAE@XZ
_TEXT	SEGMENT
??0_stArcaBattleObeliskInfo@@QAE@XZ PROC		; _stArcaBattleObeliskInfo::_stArcaBattleObeliskInfo, COMDAT
; _this$ = ecx

; 68   : 		this->m_iAuraPosX = -1;

  00000	c7 41 14 ff ff
	ff ff		 mov	 DWORD PTR [ecx+20], -1

; 90   : 	};

  00007	8b c1		 mov	 eax, ecx

; 69   : 		this->m_iAuraPosY = -1;

  00009	c7 41 18 ff ff
	ff ff		 mov	 DWORD PTR [ecx+24], -1
  00010	c7 41 1c ff ff
	ff ff		 mov	 DWORD PTR [ecx+28], -1
  00017	c7 41 20 ff ff
	ff ff		 mov	 DWORD PTR [ecx+32], -1
  0001e	c7 41 24 ff ff
	ff ff		 mov	 DWORD PTR [ecx+36], -1
  00025	c7 41 28 ff ff
	ff ff		 mov	 DWORD PTR [ecx+40], -1

; 85   : 		this->iGroupNumber	= -1;

  0002c	c7 01 ff ff ff
	ff		 mov	 DWORD PTR [ecx], -1

; 86   : 		this->iAttrKind		= -1;

  00032	c7 41 04 ff ff
	ff ff		 mov	 DWORD PTR [ecx+4], -1

; 87   : 		this->iMapIndex		= -1;

  00039	c7 41 08 ff ff
	ff ff		 mov	 DWORD PTR [ecx+8], -1

; 88   : 		this->iPosX			= -1;

  00040	c7 41 0c ff ff
	ff ff		 mov	 DWORD PTR [ecx+12], -1

; 89   : 		this->iPosY			= -1;

  00047	c7 41 10 ff ff
	ff ff		 mov	 DWORD PTR [ecx+16], -1

; 90   : 	};

  0004e	c3		 ret	 0
??0_stArcaBattleObeliskInfo@@QAE@XZ ENDP		; _stArcaBattleObeliskInfo::_stArcaBattleObeliskInfo
_TEXT	ENDS
; Function compile flags: /Ogtp
; File c:\users\michel\desktop\source\gameserver\source\arcabattleprotocol.h
;	COMDAT ??0_stAuraInfo@@QAE@XZ
_TEXT	SEGMENT
??0_stAuraInfo@@QAE@XZ PROC				; _stAuraInfo::_stAuraInfo, COMDAT
; _this$ = ecx

; 68   : 		this->m_iAuraPosX = -1;

  00000	c7 01 ff ff ff
	ff		 mov	 DWORD PTR [ecx], -1

; 69   : 		this->m_iAuraPosY = -1;
; 70   : 	};

  00006	8b c1		 mov	 eax, ecx
  00008	c7 41 04 ff ff
	ff ff		 mov	 DWORD PTR [ecx+4], -1
  0000f	c3		 ret	 0
??0_stAuraInfo@@QAE@XZ ENDP				; _stAuraInfo::_stAuraInfo
_TEXT	ENDS
; Function compile flags: /Ogtp
; File c:\users\michel\desktop\source\gameserver\source\arcabattleprotocol.h
;	COMDAT ??0_tagPMSG_ARCA_BATTLE_STATE@@QAE@XZ
_TEXT	SEGMENT
??0_tagPMSG_ARCA_BATTLE_STATE@@QAE@XZ PROC		; _tagPMSG_ARCA_BATTLE_STATE::_tagPMSG_ARCA_BATTLE_STATE, COMDAT
; _this$ = ecx

; 56   : 		this->m_btArcaBattleState = 0;

  00000	c6 41 04 00	 mov	 BYTE PTR [ecx+4], 0

; 57   : 	};

  00004	8b c1		 mov	 eax, ecx
  00006	c3		 ret	 0
??0_tagPMSG_ARCA_BATTLE_STATE@@QAE@XZ ENDP		; _tagPMSG_ARCA_BATTLE_STATE::_tagPMSG_ARCA_BATTLE_STATE
_TEXT	ENDS
; Function compile flags: /Ogtp
; File c:\users\michel\desktop\source\gameserver\source\arcabattleprotocol.h
;	COMDAT ??0_tagPMSG_ARCA_BATTLE_OBELISK_INFO@@QAE@XZ
_TEXT	SEGMENT
??0_tagPMSG_ARCA_BATTLE_OBELISK_INFO@@QAE@XZ PROC	; _tagPMSG_ARCA_BATTLE_OBELISK_INFO::_tagPMSG_ARCA_BATTLE_OBELISK_INFO, COMDAT
; _this$ = ecx

; 39   : 		this->m_btObeliskAttribute = 0;
; 40   : 		// ----
; 41   : 		for( int i = 0; i < 3; i++ )
; 42   : 		{
; 43   : 			this->m_btAuraState[i] = 0;

  00000	33 c0		 xor	 eax, eax
  00002	c6 41 04 00	 mov	 BYTE PTR [ecx+4], 0
  00006	66 89 41 05	 mov	 WORD PTR [ecx+5], ax
  0000a	88 41 07	 mov	 BYTE PTR [ecx+7], al

; 44   : 		}
; 45   : 	};

  0000d	8b c1		 mov	 eax, ecx
  0000f	c3		 ret	 0
??0_tagPMSG_ARCA_BATTLE_OBELISK_INFO@@QAE@XZ ENDP	; _tagPMSG_ARCA_BATTLE_OBELISK_INFO::_tagPMSG_ARCA_BATTLE_OBELISK_INFO
_TEXT	ENDS
; Function compile flags: /Ogtp
;	COMDAT ??_EOBJECTSTRUCT@@QAEPAXI@Z
_TEXT	SEGMENT
__$EHRec$ = -12						; size = 12
___flags$ = 8						; size = 4
??_EOBJECTSTRUCT@@QAEPAXI@Z PROC			; OBJECTSTRUCT::`vector deleting destructor', COMDAT
; _this$ = ecx
  00000	55		 push	 ebp
  00001	8b ec		 mov	 ebp, esp
  00003	6a ff		 push	 -1
  00005	68 00 00 00 00	 push	 __ehhandler$??_EOBJECTSTRUCT@@QAEPAXI@Z
  0000a	64 a1 00 00 00
	00		 mov	 eax, DWORD PTR fs:0
  00010	50		 push	 eax
  00011	53		 push	 ebx
  00012	56		 push	 esi
  00013	57		 push	 edi
  00014	a1 00 00 00 00	 mov	 eax, DWORD PTR ___security_cookie
  00019	33 c5		 xor	 eax, ebp
  0001b	50		 push	 eax
  0001c	8d 45 f4	 lea	 eax, DWORD PTR __$EHRec$[ebp]
  0001f	64 a3 00 00 00
	00		 mov	 DWORD PTR fs:0, eax
  00025	8b f1		 mov	 esi, ecx
  00027	8b 5d 08	 mov	 ebx, DWORD PTR ___flags$[ebp]
  0002a	f6 c3 02	 test	 bl, 2
  0002d	74 44		 je	 SHORT $LN2@vector
  0002f	68 00 00 00 00	 push	 OFFSET ??1OBJECTSTRUCT@@QAE@XZ
  00034	ff 76 fc	 push	 DWORD PTR [esi-4]
  00037	8d 7e fc	 lea	 edi, DWORD PTR [esi-4]
  0003a	68 40 27 00 00	 push	 10048			; 00002740H
  0003f	56		 push	 esi
  00040	e8 00 00 00 00	 call	 ??_M@YGXPAXIIP6EX0@Z@Z
  00045	f6 c3 01	 test	 bl, 1
  00048	74 13		 je	 SHORT $LN3@vector
  0004a	69 0f 40 27 00
	00		 imul	 ecx, DWORD PTR [edi], 10048
  00050	83 c1 04	 add	 ecx, 4
  00053	51		 push	 ecx
  00054	57		 push	 edi
  00055	e8 00 00 00 00	 call	 ??_V@YAXPAXI@Z		; operator delete[]
  0005a	83 c4 08	 add	 esp, 8
$LN3@vector:
  0005d	8b c7		 mov	 eax, edi
  0005f	8b 4d f4	 mov	 ecx, DWORD PTR __$EHRec$[ebp]
  00062	64 89 0d 00 00
	00 00		 mov	 DWORD PTR fs:0, ecx
  00069	59		 pop	 ecx
  0006a	5f		 pop	 edi
  0006b	5e		 pop	 esi
  0006c	5b		 pop	 ebx
  0006d	8b e5		 mov	 esp, ebp
  0006f	5d		 pop	 ebp
  00070	c2 04 00	 ret	 4
$LN2@vector:
  00073	8d 8e ec 20 00
	00		 lea	 ecx, DWORD PTR [esi+8428]
  00079	e8 00 00 00 00	 call	 ??1TMonsterAIAgro@@UAE@XZ ; TMonsterAIAgro::~TMonsterAIAgro
  0007e	8d 8e 0c 16 00
	00		 lea	 ecx, DWORD PTR [esi+5644]
  00084	e8 00 00 00 00	 call	 ??1CSkillDelay@@UAE@XZ	; CSkillDelay::~CSkillDelay
  00089	f6 c3 01	 test	 bl, 1
  0008c	74 0e		 je	 SHORT $LN4@vector
  0008e	68 40 27 00 00	 push	 10048			; 00002740H
  00093	56		 push	 esi
  00094	e8 00 00 00 00	 call	 ??3@YAXPAXI@Z		; operator delete
  00099	83 c4 08	 add	 esp, 8
$LN4@vector:
  0009c	8b c6		 mov	 eax, esi
  0009e	8b 4d f4	 mov	 ecx, DWORD PTR __$EHRec$[ebp]
  000a1	64 89 0d 00 00
	00 00		 mov	 DWORD PTR fs:0, ecx
  000a8	59		 pop	 ecx
  000a9	5f		 pop	 edi
  000aa	5e		 pop	 esi
  000ab	5b		 pop	 ebx
  000ac	8b e5		 mov	 esp, ebp
  000ae	5d		 pop	 ebp
  000af	c2 04 00	 ret	 4
_TEXT	ENDS
;	COMDAT text$x
text$x	SEGMENT
__ehhandler$??_EOBJECTSTRUCT@@QAEPAXI@Z:
  00000	8b 54 24 08	 mov	 edx, DWORD PTR [esp+8]
  00004	8d 42 0c	 lea	 eax, DWORD PTR [edx+12]
  00007	8b 4a f0	 mov	 ecx, DWORD PTR [edx-16]
  0000a	33 c8		 xor	 ecx, eax
  0000c	e8 00 00 00 00	 call	 @__security_check_cookie@4
  00011	b8 00 00 00 00	 mov	 eax, OFFSET __ehfuncinfo$??_EOBJECTSTRUCT@@QAEPAXI@Z
  00016	e9 00 00 00 00	 jmp	 ___CxxFrameHandler3
text$x	ENDS
??_EOBJECTSTRUCT@@QAEPAXI@Z ENDP			; OBJECTSTRUCT::`vector deleting destructor'
; Function compile flags: /Ogtp
;	COMDAT ??1OBJECTSTRUCT@@QAE@XZ
_TEXT	SEGMENT
??1OBJECTSTRUCT@@QAE@XZ PROC				; OBJECTSTRUCT::~OBJECTSTRUCT, COMDAT
; _this$ = ecx
  00000	56		 push	 esi
  00001	8b f1		 mov	 esi, ecx
  00003	8d 8e ec 20 00
	00		 lea	 ecx, DWORD PTR [esi+8428]
  00009	e8 00 00 00 00	 call	 ??1TMonsterAIAgro@@UAE@XZ ; TMonsterAIAgro::~TMonsterAIAgro
  0000e	8d 8e 0c 16 00
	00		 lea	 ecx, DWORD PTR [esi+5644]
  00014	5e		 pop	 esi
  00015	e9 00 00 00 00	 jmp	 ??1CSkillDelay@@UAE@XZ	; CSkillDelay::~CSkillDelay
??1OBJECTSTRUCT@@QAE@XZ ENDP				; OBJECTSTRUCT::~OBJECTSTRUCT
_TEXT	ENDS
; Function compile flags: /Ogtp
; File c:\program files (x86)\microsoft visual studio 14.0\vc\include\xmemory0
;	COMDAT ?_Deallocate@std@@YAXPAXII@Z
_TEXT	SEGMENT
__Ptr$ = 8						; size = 4
__Count$ = 12						; size = 4
__Sz$ = 16						; size = 4
?_Deallocate@std@@YAXPAXII@Z PROC			; std::_Deallocate, COMDAT

; 98   : 	{	// deallocate storage for _Count elements of size _Sz

  00000	55		 push	 ebp
  00001	8b ec		 mov	 ebp, esp

; 99   :  #if defined(_M_IX86) || defined(_M_X64)
; 100  : 	_SCL_SECURE_ALWAYS_VALIDATE(_Count <= (size_t)(-1) / _Sz);

  00003	83 c8 ff	 or	 eax, -1
  00006	8b 4d 0c	 mov	 ecx, DWORD PTR __Count$[ebp]
  00009	33 d2		 xor	 edx, edx
  0000b	f7 75 10	 div	 DWORD PTR __Sz$[ebp]
  0000e	3b c8		 cmp	 ecx, eax
  00010	0f 87 00 00 00
	00		 ja	 __invalid_parameter_noinfo_noreturn

; 101  : 	const size_t _User_size = _Count * _Sz;

  00016	0f af 4d 10	 imul	 ecx, DWORD PTR __Sz$[ebp]

; 102  : 	if (_BIG_ALLOCATION_THRESHOLD <= _User_size)

  0001a	81 f9 00 10 00
	00		 cmp	 ecx, 4096		; 00001000H
  00020	72 2b		 jb	 SHORT $LN9@Deallocate

; 103  : 		{	// deallocate large block
; 104  : 		const uintptr_t _Ptr_user = reinterpret_cast<uintptr_t>(_Ptr);
; 105  : 		_SCL_SECURE_ALWAYS_VALIDATE(

  00022	8b 45 08	 mov	 eax, DWORD PTR __Ptr$[ebp]
  00025	a8 1f		 test	 al, 31			; 0000001fH
  00027	0f 85 00 00 00
	00		 jne	 __invalid_parameter_noinfo_noreturn

; 106  : 			(_Ptr_user & (_BIG_ALLOCATION_ALIGNMENT - 1)) == 0);
; 107  : 		const uintptr_t _Ptr_ptr = _Ptr_user - sizeof(void *);
; 108  : 		const uintptr_t _Ptr_container =
; 109  : 			*reinterpret_cast<uintptr_t *>(_Ptr_ptr);

  0002d	8b 48 fc	 mov	 ecx, DWORD PTR [eax-4]

; 110  : 
; 111  :  #ifdef _DEBUG
; 112  : 		// If the following asserts, it likely means that we are performing
; 113  : 		// an aligned delete on memory coming from an unaligned allocation.
; 114  : 		_SCL_SECURE_ALWAYS_VALIDATE(
; 115  : 			reinterpret_cast<uintptr_t *>(_Ptr_ptr)[-1] ==
; 116  : 				_BIG_ALLOCATION_SENTINEL);
; 117  :  #endif /* _DEBUG */
; 118  : 
; 119  : 		// Extra paranoia on aligned allocation/deallocation
; 120  : 		_SCL_SECURE_ALWAYS_VALIDATE(_Ptr_container < _Ptr_user);

  00030	3b c8		 cmp	 ecx, eax
  00032	0f 83 00 00 00
	00		 jae	 __invalid_parameter_noinfo_noreturn

; 121  : 
; 122  :  #ifdef _DEBUG
; 123  : 		_SCL_SECURE_ALWAYS_VALIDATE(2 * sizeof(void *)
; 124  : 			<= _Ptr_user - _Ptr_container);
; 125  : 
; 126  :  #else /* _DEBUG */
; 127  : 		_SCL_SECURE_ALWAYS_VALIDATE(sizeof(void *)

  00038	2b c1		 sub	 eax, ecx
  0003a	83 f8 04	 cmp	 eax, 4
  0003d	0f 82 00 00 00
	00		 jb	 __invalid_parameter_noinfo_noreturn

; 128  : 			<= _Ptr_user - _Ptr_container);
; 129  :  #endif /* _DEBUG */
; 130  : 
; 131  : 		_SCL_SECURE_ALWAYS_VALIDATE(_Ptr_user - _Ptr_container

  00043	83 f8 23	 cmp	 eax, 35			; 00000023H
  00046	76 08		 jbe	 SHORT $LN3@Deallocate
  00048	e9 00 00 00 00	 jmp	 __invalid_parameter_noinfo_noreturn
$LN9@Deallocate:

; 132  : 			<= _NON_USER_SIZE);
; 133  : 
; 134  : 		_Ptr = reinterpret_cast<void *>(_Ptr_container);

  0004d	8b 4d 08	 mov	 ecx, DWORD PTR __Ptr$[ebp]
$LN3@Deallocate:

; 135  : 		}
; 136  :  #endif /* defined(_M_IX86) || defined(_M_X64) */
; 137  : 
; 138  : 	::operator delete(_Ptr);

  00050	51		 push	 ecx
  00051	e8 00 00 00 00	 call	 ??3@YAXPAX@Z		; operator delete
  00056	83 c4 04	 add	 esp, 4

; 139  : 	}

  00059	5d		 pop	 ebp
  0005a	c3		 ret	 0
?_Deallocate@std@@YAXPAXII@Z ENDP			; std::_Deallocate
_TEXT	ENDS
; Function compile flags: /Ogtp
; File c:\program files (x86)\microsoft visual studio 14.0\vc\include\xutility
;	COMDAT ?_Orphan_all@_Container_base0@std@@QAEXXZ
_TEXT	SEGMENT
?_Orphan_all@_Container_base0@std@@QAEXXZ PROC		; std::_Container_base0::_Orphan_all, COMDAT
; _this$ = ecx

; 44   : 		}

  00000	c3		 ret	 0
?_Orphan_all@_Container_base0@std@@QAEXXZ ENDP		; std::_Container_base0::_Orphan_all
_TEXT	ENDS
; Function compile flags: /Ogtp
; File c:\program files (x86)\microsoft visual studio 14.0\vc\atlmfc\include\atltime.h
;	COMDAT ?GetTime@CTime@ATL@@QBE_JXZ
_TEXT	SEGMENT
?GetTime@CTime@ATL@@QBE_JXZ PROC			; ATL::CTime::GetTime, COMDAT
; _this$ = ecx

; 653  : 	return( m_time );

  00000	8b 01		 mov	 eax, DWORD PTR [ecx]
  00002	8b 51 04	 mov	 edx, DWORD PTR [ecx+4]

; 654  : }

  00005	c3		 ret	 0
?GetTime@CTime@ATL@@QBE_JXZ ENDP			; ATL::CTime::GetTime
_TEXT	ENDS
; Function compile flags: /Ogtp
; File c:\program files (x86)\microsoft visual studio 14.0\vc\atlmfc\include\atltime.h
;	COMDAT ??GCTime@ATL@@QBE?AV01@VCTimeSpan@1@@Z
_TEXT	SEGMENT
___$ReturnUdt$ = 8					; size = 4
_span$ = 12						; size = 8
??GCTime@ATL@@QBE?AV01@VCTimeSpan@1@@Z PROC		; ATL::CTime::operator-, COMDAT
; _this$ = ecx

; 547  : {

  00000	55		 push	 ebp
  00001	8b ec		 mov	 ebp, esp

; 548  : 	return( CTime( m_time-span.GetTimeSpan() ) );

  00003	8b 11		 mov	 edx, DWORD PTR [ecx]
  00005	2b 55 0c	 sub	 edx, DWORD PTR _span$[ebp]

; 417  : 	m_time( time )

  00008	8b 45 08	 mov	 eax, DWORD PTR ___$ReturnUdt$[ebp]

; 548  : 	return( CTime( m_time-span.GetTimeSpan() ) );

  0000b	8b 49 04	 mov	 ecx, DWORD PTR [ecx+4]
  0000e	1b 4d 10	 sbb	 ecx, DWORD PTR _span$[ebp+4]

; 417  : 	m_time( time )

  00011	89 10		 mov	 DWORD PTR [eax], edx
  00013	89 48 04	 mov	 DWORD PTR [eax+4], ecx

; 549  : }

  00016	5d		 pop	 ebp
  00017	c2 0c 00	 ret	 12			; 0000000cH
??GCTime@ATL@@QBE?AV01@VCTimeSpan@1@@Z ENDP		; ATL::CTime::operator-
_TEXT	ENDS
; Function compile flags: /Ogtp
; File c:\program files (x86)\microsoft visual studio 14.0\vc\atlmfc\include\atltime.h
;	COMDAT ??0CTime@ATL@@QAE@_J@Z
_TEXT	SEGMENT
_time$ = 8						; size = 8
??0CTime@ATL@@QAE@_J@Z PROC				; ATL::CTime::CTime, COMDAT
; _this$ = ecx

; 418  : {

  00000	55		 push	 ebp
  00001	8b ec		 mov	 ebp, esp

; 417  : 	m_time( time )

  00003	8b 45 08	 mov	 eax, DWORD PTR _time$[ebp]
  00006	89 01		 mov	 DWORD PTR [ecx], eax
  00008	8b 45 0c	 mov	 eax, DWORD PTR _time$[ebp+4]
  0000b	89 41 04	 mov	 DWORD PTR [ecx+4], eax

; 419  : }

  0000e	8b c1		 mov	 eax, ecx
  00010	5d		 pop	 ebp
  00011	c2 08 00	 ret	 8
??0CTime@ATL@@QAE@_J@Z ENDP				; ATL::CTime::CTime
_TEXT	ENDS
; Function compile flags: /Ogtp
; File c:\program files (x86)\microsoft visual studio 14.0\vc\atlmfc\include\atltime.h
;	COMDAT ??0CTime@ATL@@QAE@XZ
_TEXT	SEGMENT
??0CTime@ATL@@QAE@XZ PROC				; ATL::CTime::CTime, COMDAT
; _this$ = ecx

; 412  : 	m_time(0)

  00000	c7 01 00 00 00
	00		 mov	 DWORD PTR [ecx], 0

; 414  : }

  00006	8b c1		 mov	 eax, ecx
  00008	c7 41 04 00 00
	00 00		 mov	 DWORD PTR [ecx+4], 0
  0000f	c3		 ret	 0
??0CTime@ATL@@QAE@XZ ENDP				; ATL::CTime::CTime
_TEXT	ENDS
; Function compile flags: /Ogtp
; File c:\program files (x86)\microsoft visual studio 14.0\vc\atlmfc\include\atltime.h
;	COMDAT ?GetTickCount@CTime@ATL@@SG?AV12@XZ
_TEXT	SEGMENT
___$ReturnUdt$ = 8					; size = 4
?GetTickCount@CTime@ATL@@SG?AV12@XZ PROC		; ATL::CTime::GetTickCount, COMDAT

; 373  : {

  00000	55		 push	 ebp
  00001	8b ec		 mov	 ebp, esp

; 374  : 	return( CTime( ::_time64( NULL ) ) );

  00003	6a 00		 push	 0
  00005	e8 00 00 00 00	 call	 __time64

; 376  : 
; 377  : _Success_(return != false) inline bool CTime::GetAsDBTIMESTAMP(_Out_ DBTIMESTAMP& dbts) const throw()
; 378  : {
; 379  : 	struct tm tmLocal;
; 380  : 	if (GetLocalTm(&tmLocal) == nullptr) return false;
; 381  : 
; 382  : 	dbts.year = (SHORT) (1900 + tmLocal.tm_year);
; 383  : 	dbts.month = (USHORT) (1 + tmLocal.tm_mon);
; 384  : 	dbts.day = (USHORT) tmLocal.tm_mday;
; 385  : 	dbts.hour = (USHORT) tmLocal.tm_hour;
; 386  : 	dbts.minute = (USHORT) tmLocal.tm_min;
; 387  : 	dbts.second = (USHORT) tmLocal.tm_sec;
; 388  : 	dbts.fraction = 0;
; 389  : 
; 390  : 	return true;
; 391  : }
; 392  : 
; 393  : inline BOOL WINAPI CTime::IsValidFILETIME(_In_ const FILETIME& fileTime) throw()
; 394  : {
; 395  : 	FILETIME localTime;
; 396  : 	if (!FileTimeToLocalFileTime(&fileTime, &localTime))
; 397  : 	{
; 398  : 		return FALSE;
; 399  : 	}
; 400  : 
; 401  : 	// then convert that time to system time
; 402  : 	SYSTEMTIME sysTime;
; 403  : 	if (!FileTimeToSystemTime(&localTime, &sysTime))
; 404  : 	{
; 405  : 		return FALSE;
; 406  : 	}
; 407  : 
; 408  : 	return TRUE;
; 409  : }
; 410  : 
; 411  : inline CTime::CTime() throw() :
; 412  : 	m_time(0)
; 413  : {
; 414  : }
; 415  : 
; 416  : inline CTime::CTime(_In_ __time64_t time)  throw():
; 417  : 	m_time( time )

  0000a	8b 4d 08	 mov	 ecx, DWORD PTR ___$ReturnUdt$[ebp]

; 374  : 	return( CTime( ::_time64( NULL ) ) );

  0000d	83 c4 04	 add	 esp, 4

; 376  : 
; 377  : _Success_(return != false) inline bool CTime::GetAsDBTIMESTAMP(_Out_ DBTIMESTAMP& dbts) const throw()
; 378  : {
; 379  : 	struct tm tmLocal;
; 380  : 	if (GetLocalTm(&tmLocal) == nullptr) return false;
; 381  : 
; 382  : 	dbts.year = (SHORT) (1900 + tmLocal.tm_year);
; 383  : 	dbts.month = (USHORT) (1 + tmLocal.tm_mon);
; 384  : 	dbts.day = (USHORT) tmLocal.tm_mday;
; 385  : 	dbts.hour = (USHORT) tmLocal.tm_hour;
; 386  : 	dbts.minute = (USHORT) tmLocal.tm_min;
; 387  : 	dbts.second = (USHORT) tmLocal.tm_sec;
; 388  : 	dbts.fraction = 0;
; 389  : 
; 390  : 	return true;
; 391  : }
; 392  : 
; 393  : inline BOOL WINAPI CTime::IsValidFILETIME(_In_ const FILETIME& fileTime) throw()
; 394  : {
; 395  : 	FILETIME localTime;
; 396  : 	if (!FileTimeToLocalFileTime(&fileTime, &localTime))
; 397  : 	{
; 398  : 		return FALSE;
; 399  : 	}
; 400  : 
; 401  : 	// then convert that time to system time
; 402  : 	SYSTEMTIME sysTime;
; 403  : 	if (!FileTimeToSystemTime(&localTime, &sysTime))
; 404  : 	{
; 405  : 		return FALSE;
; 406  : 	}
; 407  : 
; 408  : 	return TRUE;
; 409  : }
; 410  : 
; 411  : inline CTime::CTime() throw() :
; 412  : 	m_time(0)
; 413  : {
; 414  : }
; 415  : 
; 416  : inline CTime::CTime(_In_ __time64_t time)  throw():
; 417  : 	m_time( time )

  00010	89 01		 mov	 DWORD PTR [ecx], eax

; 374  : 	return( CTime( ::_time64( NULL ) ) );

  00012	8b c1		 mov	 eax, ecx

; 376  : 
; 377  : _Success_(return != false) inline bool CTime::GetAsDBTIMESTAMP(_Out_ DBTIMESTAMP& dbts) const throw()
; 378  : {
; 379  : 	struct tm tmLocal;
; 380  : 	if (GetLocalTm(&tmLocal) == nullptr) return false;
; 381  : 
; 382  : 	dbts.year = (SHORT) (1900 + tmLocal.tm_year);
; 383  : 	dbts.month = (USHORT) (1 + tmLocal.tm_mon);
; 384  : 	dbts.day = (USHORT) tmLocal.tm_mday;
; 385  : 	dbts.hour = (USHORT) tmLocal.tm_hour;
; 386  : 	dbts.minute = (USHORT) tmLocal.tm_min;
; 387  : 	dbts.second = (USHORT) tmLocal.tm_sec;
; 388  : 	dbts.fraction = 0;
; 389  : 
; 390  : 	return true;
; 391  : }
; 392  : 
; 393  : inline BOOL WINAPI CTime::IsValidFILETIME(_In_ const FILETIME& fileTime) throw()
; 394  : {
; 395  : 	FILETIME localTime;
; 396  : 	if (!FileTimeToLocalFileTime(&fileTime, &localTime))
; 397  : 	{
; 398  : 		return FALSE;
; 399  : 	}
; 400  : 
; 401  : 	// then convert that time to system time
; 402  : 	SYSTEMTIME sysTime;
; 403  : 	if (!FileTimeToSystemTime(&localTime, &sysTime))
; 404  : 	{
; 405  : 		return FALSE;
; 406  : 	}
; 407  : 
; 408  : 	return TRUE;
; 409  : }
; 410  : 
; 411  : inline CTime::CTime() throw() :
; 412  : 	m_time(0)
; 413  : {
; 414  : }
; 415  : 
; 416  : inline CTime::CTime(_In_ __time64_t time)  throw():
; 417  : 	m_time( time )

  00014	89 51 04	 mov	 DWORD PTR [ecx+4], edx

; 375  : }

  00017	5d		 pop	 ebp
  00018	c2 04 00	 ret	 4
?GetTickCount@CTime@ATL@@SG?AV12@XZ ENDP		; ATL::CTime::GetTickCount
_TEXT	ENDS
; Function compile flags: /Ogtp
; File c:\program files (x86)\microsoft visual studio 14.0\vc\atlmfc\include\atltime.h
;	COMDAT ?GetTimeSpan@CTimeSpan@ATL@@QBE_JXZ
_TEXT	SEGMENT
?GetTimeSpan@CTimeSpan@ATL@@QBE_JXZ PROC		; ATL::CTimeSpan::GetTimeSpan, COMDAT
; _this$ = ecx

; 313  : 	return( m_timeSpan );

  00000	8b 01		 mov	 eax, DWORD PTR [ecx]
  00002	8b 51 04	 mov	 edx, DWORD PTR [ecx+4]

; 314  : }

  00005	c3		 ret	 0
?GetTimeSpan@CTimeSpan@ATL@@QBE_JXZ ENDP		; ATL::CTimeSpan::GetTimeSpan
_TEXT	ENDS
; Function compile flags: /Ogtp
; File c:\program files (x86)\microsoft visual studio 14.0\vc\atlmfc\include\atltime.h
;	COMDAT ??0CTimeSpan@ATL@@QAE@JHHH@Z
_TEXT	SEGMENT
_lDays$ = 8						; size = 4
_nHours$ = 12						; size = 4
_nMins$ = 16						; size = 4
_nSecs$ = 20						; size = 4
??0CTimeSpan@ATL@@QAE@JHHH@Z PROC			; ATL::CTimeSpan::CTimeSpan, COMDAT
; _this$ = ecx

; 272  : {

  00000	55		 push	 ebp
  00001	8b ec		 mov	 ebp, esp

; 273  :  	m_timeSpan = nSecs + 60* (nMins + 60* (nHours + __int64(24) * lDays));

  00003	8b 45 08	 mov	 eax, DWORD PTR _lDays$[ebp]
  00006	56		 push	 esi
  00007	57		 push	 edi
  00008	8b f9		 mov	 edi, ecx
  0000a	b9 18 00 00 00	 mov	 ecx, 24			; 00000018H
  0000f	f7 e9		 imul	 ecx
  00011	6a 00		 push	 0
  00013	68 10 0e 00 00	 push	 3600			; 00000e10H
  00018	52		 push	 edx
  00019	50		 push	 eax
  0001a	e8 00 00 00 00	 call	 __allmul
  0001f	8b c8		 mov	 ecx, eax
  00021	8b f2		 mov	 esi, edx
  00023	8b 45 0c	 mov	 eax, DWORD PTR _nHours$[ebp]
  00026	ba 10 0e 00 00	 mov	 edx, 3600		; 00000e10H
  0002b	f7 ea		 imul	 edx
  0002d	03 c8		 add	 ecx, eax
  0002f	8b 45 10	 mov	 eax, DWORD PTR _nMins$[ebp]
  00032	13 f2		 adc	 esi, edx
  00034	ba 3c 00 00 00	 mov	 edx, 60			; 0000003cH
  00039	f7 ea		 imul	 edx
  0003b	03 c8		 add	 ecx, eax
  0003d	8b 45 14	 mov	 eax, DWORD PTR _nSecs$[ebp]
  00040	13 f2		 adc	 esi, edx
  00042	99		 cdq
  00043	03 c8		 add	 ecx, eax

; 274  : }

  00045	8b c7		 mov	 eax, edi
  00047	89 0f		 mov	 DWORD PTR [edi], ecx
  00049	13 f2		 adc	 esi, edx
  0004b	89 77 04	 mov	 DWORD PTR [edi+4], esi
  0004e	5f		 pop	 edi
  0004f	5e		 pop	 esi
  00050	5d		 pop	 ebp
  00051	c2 10 00	 ret	 16			; 00000010H
??0CTimeSpan@ATL@@QAE@JHHH@Z ENDP			; ATL::CTimeSpan::CTimeSpan
_TEXT	ENDS
; Function compile flags: /Ogtp
; File c:\users\michel\desktop\source\gameserver\source\arcabattle.cpp
;	COMDAT ?__empty_global_delete@@YAXPAXI@Z
_TEXT	SEGMENT
___formal$ = 8						; size = 4
___formal$ = 12						; size = 4
?__empty_global_delete@@YAXPAXI@Z PROC			; __empty_global_delete, COMDAT

; 2994 : // -------------------------------------------------------------------------------

  00000	c3		 ret	 0
?__empty_global_delete@@YAXPAXI@Z ENDP			; __empty_global_delete
_TEXT	ENDS
; Function compile flags: /Ogtp
; File c:\users\michel\desktop\source\gameserver\source\arcabattle.cpp
;	COMDAT ?__empty_global_delete@@YAXPAX@Z
_TEXT	SEGMENT
___formal$ = 8						; size = 4
?__empty_global_delete@@YAXPAX@Z PROC			; __empty_global_delete, COMDAT

; 2994 : // -------------------------------------------------------------------------------

  00000	c3		 ret	 0
?__empty_global_delete@@YAXPAX@Z ENDP			; __empty_global_delete
_TEXT	ENDS
; Function compile flags: /Ogtp
;	COMDAT ??_H@YGXPAXIIP6EPAX0@Z@Z
_TEXT	SEGMENT
___t$ = 8						; size = 4
___s$ = 12						; size = 4
___n$ = 16						; size = 4
___f$ = 20						; size = 4
??_H@YGXPAXIIP6EPAX0@Z@Z PROC				; `vector constructor iterator', COMDAT
  00000	55		 push	 ebp
  00001	8b ec		 mov	 ebp, esp
  00003	56		 push	 esi
  00004	8b 75 10	 mov	 esi, DWORD PTR ___n$[ebp]
  00007	85 f6		 test	 esi, esi
  00009	74 16		 je	 SHORT $LN6@vector
  0000b	53		 push	 ebx
  0000c	8b 5d 14	 mov	 ebx, DWORD PTR ___f$[ebp]
  0000f	57		 push	 edi
  00010	8b 7d 08	 mov	 edi, DWORD PTR ___t$[ebp]
$LL2@vector:
  00013	8b cf		 mov	 ecx, edi
  00015	ff d3		 call	 ebx
  00017	03 7d 0c	 add	 edi, DWORD PTR ___s$[ebp]
  0001a	83 ee 01	 sub	 esi, 1
  0001d	75 f4		 jne	 SHORT $LL2@vector
  0001f	5f		 pop	 edi
  00020	5b		 pop	 ebx
$LN6@vector:
  00021	5e		 pop	 esi
  00022	5d		 pop	 ebp
  00023	c2 10 00	 ret	 16			; 00000010H
??_H@YGXPAXIIP6EPAX0@Z@Z ENDP				; `vector constructor iterator'
_TEXT	ENDS
END
