; Listing generated by Microsoft (R) Optimizing Compiler Version 19.00.23506.0 

	TITLE	C:\Users\Michel\Desktop\Source\GameServer\Source\AttackEvent.cpp
	.686P
	.XMM
	include listing.inc
	.model	flat

INCLUDELIB LIBCMT
INCLUDELIB OLDNAMES

PUBLIC	?__empty_global_delete@@YAXPAX@Z		; __empty_global_delete
PUBLIC	?__empty_global_delete@@YAXPAXI@Z		; __empty_global_delete
PUBLIC	??0CAttackEvent@@QAE@XZ				; CAttackEvent::CAttackEvent
PUBLIC	??1CAttackEvent@@UAE@XZ				; CAttackEvent::~CAttackEvent
PUBLIC	?Init@CAttackEvent@@QAEXXZ			; CAttackEvent::Init
PUBLIC	?Start@CAttackEvent@@QAEXXZ			; CAttackEvent::Start
PUBLIC	?End@CAttackEvent@@QAEXXZ			; CAttackEvent::End
PUBLIC	?Run@CAttackEvent@@QAEXXZ			; CAttackEvent::Run
PUBLIC	?Active@CAttackEvent@@QAEXXZ			; CAttackEvent::Active
PUBLIC	?Start_Menual@CAttackEvent@@QAEXXZ		; CAttackEvent::Start_Menual
PUBLIC	?End_Menual@CAttackEvent@@QAEXXZ		; CAttackEvent::End_Menual
PUBLIC	??_GCAttackEvent@@UAEPAXI@Z			; CAttackEvent::`scalar deleting destructor'
PUBLIC	??1OBJECTSTRUCT@@QAE@XZ				; OBJECTSTRUCT::~OBJECTSTRUCT
PUBLIC	??_EOBJECTSTRUCT@@QAEPAXI@Z			; OBJECTSTRUCT::`vector deleting destructor'
PUBLIC	??_7CAttackEvent@@6B@				; CAttackEvent::`vftable'
PUBLIC	??_C@_0BH@PHJBIBLO@event?5?$CFd?5?$CFd?5?$CFd?5create?5?$AA@ ; `string'
PUBLIC	??_C@_0CN@HDIFLHJI@?$KB?$NL?$KB?$NM?$FLEvent?5Management?$FN?5?$FLStart?$FN?5A@ ; `string'
PUBLIC	??_R4CAttackEvent@@6B@				; CAttackEvent::`RTTI Complete Object Locator'
PUBLIC	??_R0?AVCAttackEvent@@@8			; CAttackEvent `RTTI Type Descriptor'
PUBLIC	??_R3CAttackEvent@@8				; CAttackEvent::`RTTI Class Hierarchy Descriptor'
PUBLIC	??_R2CAttackEvent@@8				; CAttackEvent::`RTTI Base Class Array'
PUBLIC	??_R1A@?0A@EA@CAttackEvent@@8			; CAttackEvent::`RTTI Base Class Descriptor at (0,-1,0,64)'
EXTRN	??_M@YGXPAXIIP6EX0@Z@Z:PROC			; `eh vector destructor iterator'
EXTRN	??3@YAXPAXI@Z:PROC				; operator delete
EXTRN	??_V@YAXPAXI@Z:PROC				; operator delete[]
EXTRN	__imp__GetTickCount@0:PROC
EXTRN	_rand:PROC
EXTRN	??_ECAttackEvent@@UAEPAXI@Z:PROC		; CAttackEvent::`vector deleting destructor'
EXTRN	??1CSkillDelay@@UAE@XZ:PROC			; CSkillDelay::~CSkillDelay
EXTRN	??1TMonsterAIAgro@@UAE@XZ:PROC			; TMonsterAIAgro::~TMonsterAIAgro
EXTRN	?GetBoxPosition@CMonsterSetBase@@QAEHHHHHHAAE0@Z:PROC ; CMonsterSetBase::GetBoxPosition
EXTRN	@__security_check_cookie@4:PROC
EXTRN	___CxxFrameHandler3:PROC
EXTRN	??_7type_info@@6B@:QWORD			; type_info::`vftable'
EXTRN	?LogAdd@@3P6AXPADZZA:DWORD			; LogAdd
EXTRN	?LogAddTD@@3P6AXPADZZA:DWORD			; LogAddTD
EXTRN	?gObj@@3PAUOBJECTSTRUCT@@A:DWORD		; gObj
EXTRN	?gMSetBase@@3VCMonsterSetBase@@A:BYTE		; gMSetBase
EXTRN	___security_cookie:DWORD
;	COMDAT ??_R1A@?0A@EA@CAttackEvent@@8
rdata$r	SEGMENT
??_R1A@?0A@EA@CAttackEvent@@8 DD FLAT:??_R0?AVCAttackEvent@@@8 ; CAttackEvent::`RTTI Base Class Descriptor at (0,-1,0,64)'
	DD	00H
	DD	00H
	DD	0ffffffffH
	DD	00H
	DD	040H
	DD	FLAT:??_R3CAttackEvent@@8
rdata$r	ENDS
;	COMDAT ??_R2CAttackEvent@@8
rdata$r	SEGMENT
??_R2CAttackEvent@@8 DD FLAT:??_R1A@?0A@EA@CAttackEvent@@8 ; CAttackEvent::`RTTI Base Class Array'
rdata$r	ENDS
;	COMDAT ??_R3CAttackEvent@@8
rdata$r	SEGMENT
??_R3CAttackEvent@@8 DD 00H				; CAttackEvent::`RTTI Class Hierarchy Descriptor'
	DD	00H
	DD	01H
	DD	FLAT:??_R2CAttackEvent@@8
rdata$r	ENDS
;	COMDAT ??_R0?AVCAttackEvent@@@8
data$r	SEGMENT
??_R0?AVCAttackEvent@@@8 DD FLAT:??_7type_info@@6B@	; CAttackEvent `RTTI Type Descriptor'
	DD	00H
	DB	'.?AVCAttackEvent@@', 00H
data$r	ENDS
;	COMDAT ??_R4CAttackEvent@@6B@
rdata$r	SEGMENT
??_R4CAttackEvent@@6B@ DD 00H				; CAttackEvent::`RTTI Complete Object Locator'
	DD	00H
	DD	00H
	DD	FLAT:??_R0?AVCAttackEvent@@@8
	DD	FLAT:??_R3CAttackEvent@@8
rdata$r	ENDS
;	COMDAT ??_C@_0CN@HDIFLHJI@?$KB?$NL?$KB?$NM?$FLEvent?5Management?$FN?5?$FLStart?$FN?5A@
CONST	SEGMENT
??_C@_0CN@HDIFLHJI@?$KB?$NL?$KB?$NM?$FLEvent?5Management?$FN?5?$FLStart?$FN?5A@ DB 0a1H
	DB	0dbH, 0a1H, 0dcH, '[Event Management] [Start] Attack Event!', 00H ; `string'
CONST	ENDS
;	COMDAT ??_C@_0BH@PHJBIBLO@event?5?$CFd?5?$CFd?5?$CFd?5create?5?$AA@
CONST	SEGMENT
??_C@_0BH@PHJBIBLO@event?5?$CFd?5?$CFd?5?$CFd?5create?5?$AA@ DB 'event %d'
	DB	' %d %d create ', 00H			; `string'
CONST	ENDS
;	COMDAT ??_7CAttackEvent@@6B@
CONST	SEGMENT
??_7CAttackEvent@@6B@ DD FLAT:??_R4CAttackEvent@@6B@	; CAttackEvent::`vftable'
	DD	FLAT:??_ECAttackEvent@@UAEPAXI@Z
CONST	ENDS
;	COMDAT xdata$x
xdata$x	SEGMENT
__ehfuncinfo$??_EOBJECTSTRUCT@@QAEPAXI@Z DD 019930522H
	DD	00H
	DD	00H
	DD	2 DUP(00H)
	DD	2 DUP(00H)
	DD	00H
	DD	05H
xdata$x	ENDS
; Function compile flags: /Ogtp
;	COMDAT ??_EOBJECTSTRUCT@@QAEPAXI@Z
_TEXT	SEGMENT
__$EHRec$ = -12						; size = 12
___flags$ = 8						; size = 4
??_EOBJECTSTRUCT@@QAEPAXI@Z PROC			; OBJECTSTRUCT::`vector deleting destructor', COMDAT
; _this$ = ecx
  00000	55		 push	 ebp
  00001	8b ec		 mov	 ebp, esp
  00003	6a ff		 push	 -1
  00005	68 00 00 00 00	 push	 __ehhandler$??_EOBJECTSTRUCT@@QAEPAXI@Z
  0000a	64 a1 00 00 00
	00		 mov	 eax, DWORD PTR fs:0
  00010	50		 push	 eax
  00011	53		 push	 ebx
  00012	56		 push	 esi
  00013	57		 push	 edi
  00014	a1 00 00 00 00	 mov	 eax, DWORD PTR ___security_cookie
  00019	33 c5		 xor	 eax, ebp
  0001b	50		 push	 eax
  0001c	8d 45 f4	 lea	 eax, DWORD PTR __$EHRec$[ebp]
  0001f	64 a3 00 00 00
	00		 mov	 DWORD PTR fs:0, eax
  00025	8b f1		 mov	 esi, ecx
  00027	8b 5d 08	 mov	 ebx, DWORD PTR ___flags$[ebp]
  0002a	f6 c3 02	 test	 bl, 2
  0002d	74 44		 je	 SHORT $LN2@vector
  0002f	68 00 00 00 00	 push	 OFFSET ??1OBJECTSTRUCT@@QAE@XZ
  00034	ff 76 fc	 push	 DWORD PTR [esi-4]
  00037	8d 7e fc	 lea	 edi, DWORD PTR [esi-4]
  0003a	68 40 27 00 00	 push	 10048			; 00002740H
  0003f	56		 push	 esi
  00040	e8 00 00 00 00	 call	 ??_M@YGXPAXIIP6EX0@Z@Z
  00045	f6 c3 01	 test	 bl, 1
  00048	74 13		 je	 SHORT $LN3@vector
  0004a	69 0f 40 27 00
	00		 imul	 ecx, DWORD PTR [edi], 10048
  00050	83 c1 04	 add	 ecx, 4
  00053	51		 push	 ecx
  00054	57		 push	 edi
  00055	e8 00 00 00 00	 call	 ??_V@YAXPAXI@Z		; operator delete[]
  0005a	83 c4 08	 add	 esp, 8
$LN3@vector:
  0005d	8b c7		 mov	 eax, edi
  0005f	8b 4d f4	 mov	 ecx, DWORD PTR __$EHRec$[ebp]
  00062	64 89 0d 00 00
	00 00		 mov	 DWORD PTR fs:0, ecx
  00069	59		 pop	 ecx
  0006a	5f		 pop	 edi
  0006b	5e		 pop	 esi
  0006c	5b		 pop	 ebx
  0006d	8b e5		 mov	 esp, ebp
  0006f	5d		 pop	 ebp
  00070	c2 04 00	 ret	 4
$LN2@vector:
  00073	8d 8e ec 20 00
	00		 lea	 ecx, DWORD PTR [esi+8428]
  00079	e8 00 00 00 00	 call	 ??1TMonsterAIAgro@@UAE@XZ ; TMonsterAIAgro::~TMonsterAIAgro
  0007e	8d 8e 0c 16 00
	00		 lea	 ecx, DWORD PTR [esi+5644]
  00084	e8 00 00 00 00	 call	 ??1CSkillDelay@@UAE@XZ	; CSkillDelay::~CSkillDelay
  00089	f6 c3 01	 test	 bl, 1
  0008c	74 0e		 je	 SHORT $LN4@vector
  0008e	68 40 27 00 00	 push	 10048			; 00002740H
  00093	56		 push	 esi
  00094	e8 00 00 00 00	 call	 ??3@YAXPAXI@Z		; operator delete
  00099	83 c4 08	 add	 esp, 8
$LN4@vector:
  0009c	8b c6		 mov	 eax, esi
  0009e	8b 4d f4	 mov	 ecx, DWORD PTR __$EHRec$[ebp]
  000a1	64 89 0d 00 00
	00 00		 mov	 DWORD PTR fs:0, ecx
  000a8	59		 pop	 ecx
  000a9	5f		 pop	 edi
  000aa	5e		 pop	 esi
  000ab	5b		 pop	 ebx
  000ac	8b e5		 mov	 esp, ebp
  000ae	5d		 pop	 ebp
  000af	c2 04 00	 ret	 4
_TEXT	ENDS
;	COMDAT text$x
text$x	SEGMENT
__ehhandler$??_EOBJECTSTRUCT@@QAEPAXI@Z:
  00000	8b 54 24 08	 mov	 edx, DWORD PTR [esp+8]
  00004	8d 42 0c	 lea	 eax, DWORD PTR [edx+12]
  00007	8b 4a f0	 mov	 ecx, DWORD PTR [edx-16]
  0000a	33 c8		 xor	 ecx, eax
  0000c	e8 00 00 00 00	 call	 @__security_check_cookie@4
  00011	b8 00 00 00 00	 mov	 eax, OFFSET __ehfuncinfo$??_EOBJECTSTRUCT@@QAEPAXI@Z
  00016	e9 00 00 00 00	 jmp	 ___CxxFrameHandler3
text$x	ENDS
??_EOBJECTSTRUCT@@QAEPAXI@Z ENDP			; OBJECTSTRUCT::`vector deleting destructor'
; Function compile flags: /Ogtp
;	COMDAT ??1OBJECTSTRUCT@@QAE@XZ
_TEXT	SEGMENT
??1OBJECTSTRUCT@@QAE@XZ PROC				; OBJECTSTRUCT::~OBJECTSTRUCT, COMDAT
; _this$ = ecx
  00000	56		 push	 esi
  00001	8b f1		 mov	 esi, ecx
  00003	8d 8e ec 20 00
	00		 lea	 ecx, DWORD PTR [esi+8428]
  00009	e8 00 00 00 00	 call	 ??1TMonsterAIAgro@@UAE@XZ ; TMonsterAIAgro::~TMonsterAIAgro
  0000e	8d 8e 0c 16 00
	00		 lea	 ecx, DWORD PTR [esi+5644]
  00014	5e		 pop	 esi
  00015	e9 00 00 00 00	 jmp	 ??1CSkillDelay@@UAE@XZ	; CSkillDelay::~CSkillDelay
??1OBJECTSTRUCT@@QAE@XZ ENDP				; OBJECTSTRUCT::~OBJECTSTRUCT
_TEXT	ENDS
; Function compile flags: /Ogtp
;	COMDAT ??_GCAttackEvent@@UAEPAXI@Z
_TEXT	SEGMENT
___flags$ = 8						; size = 4
??_GCAttackEvent@@UAEPAXI@Z PROC			; CAttackEvent::`scalar deleting destructor', COMDAT
; _this$ = ecx
  00000	55		 push	 ebp
  00001	8b ec		 mov	 ebp, esp
  00003	56		 push	 esi
  00004	8b f1		 mov	 esi, ecx
  00006	e8 00 00 00 00	 call	 ??1CAttackEvent@@UAE@XZ	; CAttackEvent::~CAttackEvent
  0000b	f6 45 08 01	 test	 BYTE PTR ___flags$[ebp], 1
  0000f	74 0b		 je	 SHORT $LN4@scalar
  00011	6a 2c		 push	 44			; 0000002cH
  00013	56		 push	 esi
  00014	e8 00 00 00 00	 call	 ??3@YAXPAXI@Z		; operator delete
  00019	83 c4 08	 add	 esp, 8
$LN4@scalar:
  0001c	8b c6		 mov	 eax, esi
  0001e	5e		 pop	 esi
  0001f	5d		 pop	 ebp
  00020	c2 04 00	 ret	 4
??_GCAttackEvent@@UAEPAXI@Z ENDP			; CAttackEvent::`scalar deleting destructor'
_TEXT	ENDS
; Function compile flags: /Ogtp
; File c:\users\michel\desktop\source\gameserver\source\attackevent.cpp
; File c:\users\michel\desktop\source\gameserver\source\attackevent.h
; File c:\users\michel\desktop\source\gameserver\source\attackevent.cpp
;	COMDAT ?End_Menual@CAttackEvent@@QAEXXZ
_TEXT	SEGMENT
?End_Menual@CAttackEvent@@QAEXXZ PROC			; CAttackEvent::End_Menual, COMDAT
; _this$ = ecx
; File c:\users\michel\desktop\source\gameserver\source\attackevent.h

; 26   : 	void SetMenualStart(BOOL bMenualStart){this->m_bMenualStart = bMenualStart;};	// line : 39

  00000	c7 41 28 00 00
	00 00		 mov	 DWORD PTR [ecx+40], 0
; File c:\users\michel\desktop\source\gameserver\source\attackevent.cpp

; 170  : }

  00007	c3		 ret	 0
?End_Menual@CAttackEvent@@QAEXXZ ENDP			; CAttackEvent::End_Menual
_TEXT	ENDS
; Function compile flags: /Ogtp
; File c:\users\michel\desktop\source\gameserver\source\attackevent.h
;	COMDAT ?SetMenualStart@CAttackEvent@@QAEXH@Z
_TEXT	SEGMENT
_bMenualStart$ = 8					; size = 4
?SetMenualStart@CAttackEvent@@QAEXH@Z PROC		; CAttackEvent::SetMenualStart, COMDAT
; _this$ = ecx

; 26   : 	void SetMenualStart(BOOL bMenualStart){this->m_bMenualStart = bMenualStart;};	// line : 39

  00000	55		 push	 ebp
  00001	8b ec		 mov	 ebp, esp
  00003	8b 45 08	 mov	 eax, DWORD PTR _bMenualStart$[ebp]
  00006	89 41 28	 mov	 DWORD PTR [ecx+40], eax
  00009	5d		 pop	 ebp
  0000a	c2 04 00	 ret	 4
?SetMenualStart@CAttackEvent@@QAEXH@Z ENDP		; CAttackEvent::SetMenualStart
_TEXT	ENDS
; Function compile flags: /Ogtp
; File c:\users\michel\desktop\source\gameserver\source\attackevent.cpp
; File c:\users\michel\desktop\source\gameserver\source\attackevent.h
; File c:\users\michel\desktop\source\gameserver\source\attackevent.cpp
;	COMDAT ?Start_Menual@CAttackEvent@@QAEXXZ
_TEXT	SEGMENT
?Start_Menual@CAttackEvent@@QAEXXZ PROC			; CAttackEvent::Start_Menual, COMDAT
; _this$ = ecx

; 153  : {

  00000	56		 push	 esi
  00001	8b f1		 mov	 esi, ecx

; 156  : 	LogAddTD("¡Û¡Ü[Event Management] [Start] Attack Event!");	// Deathway translation here M-[Event Management] [Start] Attack Event! 

  00003	68 00 00 00 00	 push	 OFFSET ??_C@_0CN@HDIFLHJI@?$KB?$NL?$KB?$NM?$FLEvent?5Management?$FN?5?$FLStart?$FN?5A@
; File c:\users\michel\desktop\source\gameserver\source\attackevent.h

; 26   : 	void SetMenualStart(BOOL bMenualStart){this->m_bMenualStart = bMenualStart;};	// line : 39

  00008	c7 46 28 01 00
	00 00		 mov	 DWORD PTR [esi+40], 1
; File c:\users\michel\desktop\source\gameserver\source\attackevent.cpp

; 156  : 	LogAddTD("¡Û¡Ü[Event Management] [Start] Attack Event!");	// Deathway translation here M-[Event Management] [Start] Attack Event! 

  0000f	ff 15 00 00 00
	00		 call	 DWORD PTR ?LogAddTD@@3P6AXPADZZA ; LogAddTD
  00015	83 c4 04	 add	 esp, 4

; 157  : 	this->EventState= false;

  00018	c6 46 04 00	 mov	 BYTE PTR [esi+4], 0

; 158  : 	this->Start();

  0001c	8b ce		 mov	 ecx, esi
  0001e	e8 00 00 00 00	 call	 ?Start@CAttackEvent@@QAEXXZ ; CAttackEvent::Start

; 159  : 	this->Active();

  00023	8b ce		 mov	 ecx, esi
  00025	5e		 pop	 esi
  00026	e9 00 00 00 00	 jmp	 ?Active@CAttackEvent@@QAEXXZ ; CAttackEvent::Active
?Start_Menual@CAttackEvent@@QAEXXZ ENDP			; CAttackEvent::Start_Menual
_TEXT	ENDS
; Function compile flags: /Ogtp
; File c:\users\michel\desktop\source\gameserver\source\attackevent.cpp
;	COMDAT ?Active@CAttackEvent@@QAEXXZ
_TEXT	SEGMENT
?Active@CAttackEvent@@QAEXXZ PROC			; CAttackEvent::Active, COMDAT
; _this$ = ecx

; 51   : {

  00000	53		 push	 ebx
  00001	56		 push	 esi
  00002	57		 push	 edi
  00003	8b f1		 mov	 esi, ecx

; 52   : 	for ( int n = 0; n < OBJ_MAXMONSTER ; n++ )

  00005	33 db		 xor	 ebx, ebx
  00007	66 0f 1f 84 00
	00 00 00 00	 npad	 9
$LL4@Active:

; 53   : 	{
; 54   : 		if ( gObj[n].Class == 53 || gObj[n].Class == 54 )	// Golden Titan + Golden Soldier

  00010	8b 0d 00 00 00
	00		 mov	 ecx, DWORD PTR ?gObj@@3PAUOBJECTSTRUCT@@A ; gObj
  00016	0f b7 84 19 90
	00 00 00	 movzx	 eax, WORD PTR [ecx+ebx+144]
  0001e	83 f8 35	 cmp	 eax, 53			; 00000035H
  00021	0f 84 4f 01 00
	00		 je	 $LN15@Active
  00027	83 f8 36	 cmp	 eax, 54			; 00000036H
  0002a	0f 84 46 01 00
	00		 je	 $LN15@Active

; 93   : 			
; 94   : 		}
; 95   : 		else if ( gObj[n].Class == 55 || gObj[n].Class == 56 )	// Death Bone + Death King

  00030	83 f8 37	 cmp	 eax, 55			; 00000037H
  00033	74 09		 je	 SHORT $LN19@Active
  00035	83 f8 38	 cmp	 eax, 56			; 00000038H
  00038	0f 85 c3 02 00
	00		 jne	 $LN2@Active
$LN19@Active:

; 96   : 		{
; 97   : 			gObj[n].Live = TRUE;

  0003e	c6 44 19 51 01	 mov	 BYTE PTR [ecx+ebx+81], 1

; 98   : 
; 99   : 			if ( gObj[n].Class == 55 )

  00043	a1 00 00 00 00	 mov	 eax, DWORD PTR ?gObj@@3PAUOBJECTSTRUCT@@A ; gObj
  00048	66 83 bc 03 90
	00 00 00 37	 cmp	 WORD PTR [ebx+eax+144], 55 ; 00000037H
  00051	0f 85 bc 00 00
	00		 jne	 $LN20@Active

; 100  : 			{
; 101  : 				if ( (rand() % 2 ) == 0 )

  00057	e8 00 00 00 00	 call	 _rand
  0005c	25 01 00 00 80	 and	 eax, -2147483647	; 80000001H
  00061	79 05		 jns	 SHORT $LN41@Active
  00063	48		 dec	 eax
  00064	83 c8 fe	 or	 eax, -2			; fffffffeH
  00067	40		 inc	 eax
$LN41@Active:
  00068	75 06		 jne	 SHORT $LN22@Active

; 102  : 				{
; 103  : 					this->m_MapNumber = MAP_INDEX_RORENCIA;

  0006a	c6 46 0c 00	 mov	 BYTE PTR [esi+12], 0

; 104  : 				}
; 105  : 				else

  0006e	eb 04		 jmp	 SHORT $LN23@Active
$LN22@Active:

; 106  : 				{
; 107  : 					this->m_MapNumber = MAP_INDEX_NORIA;

  00070	c6 46 0c 03	 mov	 BYTE PTR [esi+12], 3
$LN23@Active:

; 108  : 				}
; 109  : 
; 110  : 				gObj[n].MapNumber = this->m_MapNumber;

  00074	a1 00 00 00 00	 mov	 eax, DWORD PTR ?gObj@@3PAUOBJECTSTRUCT@@A ; gObj
  00079	8a 4e 0c	 mov	 cl, BYTE PTR [esi+12]
  0007c	88 8c 03 23 01
	00 00		 mov	 BYTE PTR [ebx+eax+291], cl
  00083	0f 1f 40 00 66
	0f 1f 84 00 00
	00 00 00	 npad	 13
$LL9@Active:

; 111  : 
; 112  : 
; 113  : 				while ( gMSetBase.GetBoxPosition(this->m_MapNumber, 10, 10, 240, 240, gObj[n].X, gObj[n].Y) == 0 )

  00090	8b 0d 00 00 00
	00		 mov	 ecx, DWORD PTR ?gObj@@3PAUOBJECTSTRUCT@@A ; gObj
  00096	8d 81 21 01 00
	00		 lea	 eax, DWORD PTR [ecx+289]
  0009c	03 c3		 add	 eax, ebx
  0009e	50		 push	 eax
  0009f	8d 81 20 01 00
	00		 lea	 eax, DWORD PTR [ecx+288]
  000a5	b9 00 00 00 00	 mov	 ecx, OFFSET ?gMSetBase@@3VCMonsterSetBase@@A ; gMSetBase
  000aa	03 c3		 add	 eax, ebx
  000ac	50		 push	 eax
  000ad	0f b6 46 0c	 movzx	 eax, BYTE PTR [esi+12]
  000b1	68 f0 00 00 00	 push	 240			; 000000f0H
  000b6	68 f0 00 00 00	 push	 240			; 000000f0H
  000bb	6a 0a		 push	 10			; 0000000aH
  000bd	6a 0a		 push	 10			; 0000000aH
  000bf	50		 push	 eax
  000c0	e8 00 00 00 00	 call	 ?GetBoxPosition@CMonsterSetBase@@QAEHHHHHHAAE0@Z ; CMonsterSetBase::GetBoxPosition
  000c5	85 c0		 test	 eax, eax
  000c7	74 c7		 je	 SHORT $LL9@Active

; 114  : 				{
; 115  : 
; 116  : 				}
; 117  : 
; 118  : 				this->m_BossMap55 = gObj[n].MapNumber;

  000c9	a1 00 00 00 00	 mov	 eax, DWORD PTR ?gObj@@3PAUOBJECTSTRUCT@@A ; gObj
  000ce	0f b6 84 03 23
	01 00 00	 movzx	 eax, BYTE PTR [ebx+eax+291]
  000d6	89 46 10	 mov	 DWORD PTR [esi+16], eax

; 119  : 				this->m_BossMapX55 = gObj[n].X;

  000d9	a1 00 00 00 00	 mov	 eax, DWORD PTR ?gObj@@3PAUOBJECTSTRUCT@@A ; gObj
  000de	0f b6 84 03 20
	01 00 00	 movzx	 eax, BYTE PTR [ebx+eax+288]
  000e6	89 46 14	 mov	 DWORD PTR [esi+20], eax

; 120  : 				this->m_BossMapY55 = gObj[n].Y;

  000e9	a1 00 00 00 00	 mov	 eax, DWORD PTR ?gObj@@3PAUOBJECTSTRUCT@@A ; gObj
  000ee	0f b6 84 03 21
	01 00 00	 movzx	 eax, BYTE PTR [ebx+eax+289]

; 121  : 				LogAdd("event %d %d %d create ", this->m_BossMap55, this->m_BossMapX55, this->m_BossMapY55 );

  000f6	50		 push	 eax
  000f7	ff 76 14	 push	 DWORD PTR [esi+20]
  000fa	89 46 18	 mov	 DWORD PTR [esi+24], eax
  000fd	ff 76 10	 push	 DWORD PTR [esi+16]
  00100	68 00 00 00 00	 push	 OFFSET ??_C@_0BH@PHJBIBLO@event?5?$CFd?5?$CFd?5?$CFd?5create?5?$AA@
  00105	ff 15 00 00 00
	00		 call	 DWORD PTR ?LogAdd@@3P6AXPADZZA ; LogAdd
  0010b	83 c4 10	 add	 esp, 16			; 00000010H

; 122  : 			}
; 123  : 			else

  0010e	e9 60 01 00 00	 jmp	 $LN8@Active
$LN20@Active:

; 124  : 			{
; 125  : 				this->m_MapNumber = this->m_BossMap55;

  00113	8a 4e 10	 mov	 cl, BYTE PTR [esi+16]
  00116	88 4e 0c	 mov	 BYTE PTR [esi+12], cl

; 126  : 				gObj[n].MapNumber = this->m_MapNumber;

  00119	a1 00 00 00 00	 mov	 eax, DWORD PTR ?gObj@@3PAUOBJECTSTRUCT@@A ; gObj
  0011e	88 8c 03 23 01
	00 00		 mov	 BYTE PTR [ebx+eax+291], cl
  00125	66 66 66 0f 1f
	84 00 00 00 00
	00		 npad	 11
$LL11@Active:

; 127  : 
; 128  : 
; 129  : 				while (	gMSetBase.GetBoxPosition(this->m_MapNumber, this->m_BossMapX55 -4, this->m_BossMapY55-4, this->m_BossMapX55+4, this->m_BossMapY55+4, gObj[n].X, gObj[n].Y) == 0 )

  00130	8b 0d 00 00 00
	00		 mov	 ecx, DWORD PTR ?gObj@@3PAUOBJECTSTRUCT@@A ; gObj
  00136	8b 56 18	 mov	 edx, DWORD PTR [esi+24]
  00139	8b 7e 14	 mov	 edi, DWORD PTR [esi+20]
  0013c	8d 81 21 01 00
	00		 lea	 eax, DWORD PTR [ecx+289]
  00142	03 c3		 add	 eax, ebx
  00144	50		 push	 eax
  00145	8d 81 20 01 00
	00		 lea	 eax, DWORD PTR [ecx+288]
  0014b	b9 00 00 00 00	 mov	 ecx, OFFSET ?gMSetBase@@3VCMonsterSetBase@@A ; gMSetBase
  00150	03 c3		 add	 eax, ebx
  00152	50		 push	 eax
  00153	8d 42 04	 lea	 eax, DWORD PTR [edx+4]
  00156	50		 push	 eax
  00157	8d 47 04	 lea	 eax, DWORD PTR [edi+4]
  0015a	50		 push	 eax
  0015b	8d 42 fc	 lea	 eax, DWORD PTR [edx-4]
  0015e	50		 push	 eax
  0015f	8d 47 fc	 lea	 eax, DWORD PTR [edi-4]
  00162	50		 push	 eax
  00163	0f b6 46 0c	 movzx	 eax, BYTE PTR [esi+12]
  00167	50		 push	 eax
  00168	e8 00 00 00 00	 call	 ?GetBoxPosition@CMonsterSetBase@@QAEHHHHHHAAE0@Z ; CMonsterSetBase::GetBoxPosition
  0016d	85 c0		 test	 eax, eax
  0016f	74 bf		 je	 SHORT $LL11@Active

; 130  : 				{
; 131  : 
; 132  : 				}
; 133  : 			}
; 134  : 
; 135  : 			gObj[n].TX = gObj[n].X;
; 136  : 			gObj[n].TY = gObj[n].Y;
; 137  : 			gObj[n].MTX = gObj[n].X;
; 138  : 			gObj[n].MTY = gObj[n].Y;
; 139  : 			gObj[n].StartX = gObj[n].X;
; 140  : 			gObj[n].StartY = gObj[n].Y;
; 141  : 			gObj[n].m_State = 1;

  00171	e9 fd 00 00 00	 jmp	 $LN8@Active
$LN15@Active:

; 55   : 		{
; 56   : 			gObj[n].Live = true;

  00176	c6 44 19 51 01	 mov	 BYTE PTR [ecx+ebx+81], 1

; 57   : 
; 58   : 			if ( gObj[n].Class == 53 )

  0017b	a1 00 00 00 00	 mov	 eax, DWORD PTR ?gObj@@3PAUOBJECTSTRUCT@@A ; gObj
  00180	66 83 bc 03 90
	00 00 00 35	 cmp	 WORD PTR [ebx+eax+144], 53 ; 00000035H
  00189	0f 85 91 00 00
	00		 jne	 $LN16@Active

; 59   : 			{
; 60   : 				this->m_MapNumber = MAP_INDEX_DEVIAS;

  0018f	c6 46 0c 02	 mov	 BYTE PTR [esi+12], 2

; 61   : 				gObj[n].MapNumber = this->m_MapNumber;

  00193	a1 00 00 00 00	 mov	 eax, DWORD PTR ?gObj@@3PAUOBJECTSTRUCT@@A ; gObj
  00198	c6 84 03 23 01
	00 00 02	 mov	 BYTE PTR [ebx+eax+291], 2
$LL5@Active:

; 62   : 
; 63   : 				while (	gMSetBase.GetBoxPosition(this->m_MapNumber, 10, 10, 240, 240, gObj[n].X, gObj[n].Y) == 0 )

  001a0	8b 0d 00 00 00
	00		 mov	 ecx, DWORD PTR ?gObj@@3PAUOBJECTSTRUCT@@A ; gObj
  001a6	8d 81 21 01 00
	00		 lea	 eax, DWORD PTR [ecx+289]
  001ac	03 c3		 add	 eax, ebx
  001ae	50		 push	 eax
  001af	8d 81 20 01 00
	00		 lea	 eax, DWORD PTR [ecx+288]
  001b5	b9 00 00 00 00	 mov	 ecx, OFFSET ?gMSetBase@@3VCMonsterSetBase@@A ; gMSetBase
  001ba	03 c3		 add	 eax, ebx
  001bc	50		 push	 eax
  001bd	0f b6 46 0c	 movzx	 eax, BYTE PTR [esi+12]
  001c1	68 f0 00 00 00	 push	 240			; 000000f0H
  001c6	68 f0 00 00 00	 push	 240			; 000000f0H
  001cb	6a 0a		 push	 10			; 0000000aH
  001cd	6a 0a		 push	 10			; 0000000aH
  001cf	50		 push	 eax
  001d0	e8 00 00 00 00	 call	 ?GetBoxPosition@CMonsterSetBase@@QAEHHHHHHAAE0@Z ; CMonsterSetBase::GetBoxPosition
  001d5	85 c0		 test	 eax, eax
  001d7	74 c7		 je	 SHORT $LL5@Active

; 64   : 				{
; 65   : 
; 66   : 				}
; 67   : 
; 68   : 				this->m_BossMap53 = gObj[n].MapNumber;

  001d9	a1 00 00 00 00	 mov	 eax, DWORD PTR ?gObj@@3PAUOBJECTSTRUCT@@A ; gObj
  001de	0f b6 84 03 23
	01 00 00	 movzx	 eax, BYTE PTR [ebx+eax+291]
  001e6	89 46 1c	 mov	 DWORD PTR [esi+28], eax

; 69   : 				this->m_BossMapX53 = gObj[n].X;

  001e9	a1 00 00 00 00	 mov	 eax, DWORD PTR ?gObj@@3PAUOBJECTSTRUCT@@A ; gObj
  001ee	0f b6 84 03 20
	01 00 00	 movzx	 eax, BYTE PTR [ebx+eax+288]
  001f6	89 46 20	 mov	 DWORD PTR [esi+32], eax

; 70   : 				this->m_BossMapY53 = gObj[n].Y;

  001f9	a1 00 00 00 00	 mov	 eax, DWORD PTR ?gObj@@3PAUOBJECTSTRUCT@@A ; gObj
  001fe	0f b6 84 03 21
	01 00 00	 movzx	 eax, BYTE PTR [ebx+eax+289]

; 71   : 
; 72   : 				LogAdd("event %d %d %d create ", this->m_BossMap53, this->m_BossMapX53, this->m_BossMapY53);

  00206	50		 push	 eax
  00207	ff 76 20	 push	 DWORD PTR [esi+32]
  0020a	89 46 24	 mov	 DWORD PTR [esi+36], eax
  0020d	ff 76 1c	 push	 DWORD PTR [esi+28]
  00210	68 00 00 00 00	 push	 OFFSET ??_C@_0BH@PHJBIBLO@event?5?$CFd?5?$CFd?5?$CFd?5create?5?$AA@
  00215	ff 15 00 00 00
	00		 call	 DWORD PTR ?LogAdd@@3P6AXPADZZA ; LogAdd
  0021b	83 c4 10	 add	 esp, 16			; 00000010H

; 73   : 
; 74   : 			}
; 75   : 			else

  0021e	eb 53		 jmp	 SHORT $LN8@Active
$LN16@Active:

; 76   : 			{
; 77   : 				this->m_MapNumber = this->m_BossMap53;

  00220	8a 4e 1c	 mov	 cl, BYTE PTR [esi+28]
  00223	88 4e 0c	 mov	 BYTE PTR [esi+12], cl

; 78   : 				gObj[n].MapNumber = this->m_MapNumber;

  00226	a1 00 00 00 00	 mov	 eax, DWORD PTR ?gObj@@3PAUOBJECTSTRUCT@@A ; gObj
  0022b	88 8c 03 23 01
	00 00		 mov	 BYTE PTR [ebx+eax+291], cl
$LL7@Active:

; 79   : 
; 80   : 				while (	gMSetBase.GetBoxPosition(this->m_MapNumber, this->m_BossMapX53 -4, this->m_BossMapY53-4, this->m_BossMapX53+4, this->m_BossMapY53+4, gObj[n].X, gObj[n].Y) == 0 )

  00232	8b 0d 00 00 00
	00		 mov	 ecx, DWORD PTR ?gObj@@3PAUOBJECTSTRUCT@@A ; gObj
  00238	8b 56 24	 mov	 edx, DWORD PTR [esi+36]
  0023b	8b 7e 20	 mov	 edi, DWORD PTR [esi+32]
  0023e	8d 81 21 01 00
	00		 lea	 eax, DWORD PTR [ecx+289]
  00244	03 c3		 add	 eax, ebx
  00246	50		 push	 eax
  00247	8d 81 20 01 00
	00		 lea	 eax, DWORD PTR [ecx+288]
  0024d	b9 00 00 00 00	 mov	 ecx, OFFSET ?gMSetBase@@3VCMonsterSetBase@@A ; gMSetBase
  00252	03 c3		 add	 eax, ebx
  00254	50		 push	 eax
  00255	8d 42 04	 lea	 eax, DWORD PTR [edx+4]
  00258	50		 push	 eax
  00259	8d 47 04	 lea	 eax, DWORD PTR [edi+4]
  0025c	50		 push	 eax
  0025d	8d 42 fc	 lea	 eax, DWORD PTR [edx-4]
  00260	50		 push	 eax
  00261	8d 47 fc	 lea	 eax, DWORD PTR [edi-4]
  00264	50		 push	 eax
  00265	0f b6 46 0c	 movzx	 eax, BYTE PTR [esi+12]
  00269	50		 push	 eax
  0026a	e8 00 00 00 00	 call	 ?GetBoxPosition@CMonsterSetBase@@QAEHHHHHHAAE0@Z ; CMonsterSetBase::GetBoxPosition
  0026f	85 c0		 test	 eax, eax
  00271	74 bf		 je	 SHORT $LL7@Active
$LN8@Active:

; 81   : 				{
; 82   : 
; 83   : 				}
; 84   : 			}
; 85   : 				
; 86   : 			gObj[n].TX = gObj[n].X;

  00273	8b 0d 00 00 00
	00		 mov	 ecx, DWORD PTR ?gObj@@3PAUOBJECTSTRUCT@@A ; gObj
  00279	0f b6 84 19 20
	01 00 00	 movzx	 eax, BYTE PTR [ecx+ebx+288]
  00281	88 84 19 52 01
	00 00		 mov	 BYTE PTR [ecx+ebx+338], al

; 87   : 			gObj[n].TY = gObj[n].Y;

  00288	8b 0d 00 00 00
	00		 mov	 ecx, DWORD PTR ?gObj@@3PAUOBJECTSTRUCT@@A ; gObj
  0028e	0f b6 84 19 21
	01 00 00	 movzx	 eax, BYTE PTR [ecx+ebx+289]
  00296	88 84 19 53 01
	00 00		 mov	 BYTE PTR [ecx+ebx+339], al

; 88   : 			gObj[n].MTX = gObj[n].X;

  0029d	8b 0d 00 00 00
	00		 mov	 ecx, DWORD PTR ?gObj@@3PAUOBJECTSTRUCT@@A ; gObj
  002a3	0f b6 84 19 20
	01 00 00	 movzx	 eax, BYTE PTR [ecx+ebx+288]
  002ab	88 84 19 54 01
	00 00		 mov	 BYTE PTR [ecx+ebx+340], al

; 89   : 			gObj[n].MTY = gObj[n].Y;

  002b2	8b 0d 00 00 00
	00		 mov	 ecx, DWORD PTR ?gObj@@3PAUOBJECTSTRUCT@@A ; gObj
  002b8	0f b6 84 19 21
	01 00 00	 movzx	 eax, BYTE PTR [ecx+ebx+289]
  002c0	88 84 19 55 01
	00 00		 mov	 BYTE PTR [ecx+ebx+341], al

; 90   : 			gObj[n].StartX = gObj[n].X;

  002c7	8b 0d 00 00 00
	00		 mov	 ecx, DWORD PTR ?gObj@@3PAUOBJECTSTRUCT@@A ; gObj
  002cd	0f b6 84 19 20
	01 00 00	 movzx	 eax, BYTE PTR [ecx+ebx+288]
  002d5	88 84 19 4e 01
	00 00		 mov	 BYTE PTR [ecx+ebx+334], al

; 91   : 			gObj[n].StartY = gObj[n].Y;

  002dc	8b 0d 00 00 00
	00		 mov	 ecx, DWORD PTR ?gObj@@3PAUOBJECTSTRUCT@@A ; gObj
  002e2	0f b6 84 19 21
	01 00 00	 movzx	 eax, BYTE PTR [ecx+ebx+289]
  002ea	88 84 19 4f 01
	00 00		 mov	 BYTE PTR [ecx+ebx+335], al

; 92   : 			gObj[n].m_State = 1;

  002f1	a1 00 00 00 00	 mov	 eax, DWORD PTR ?gObj@@3PAUOBJECTSTRUCT@@A ; gObj
  002f6	c7 84 03 d0 01
	00 00 01 00 00
	00		 mov	 DWORD PTR [ebx+eax+464], 1
$LN2@Active:

; 52   : 	for ( int n = 0; n < OBJ_MAXMONSTER ; n++ )

  00301	81 c3 40 27 00
	00		 add	 ebx, 10048		; 00002740H
  00307	81 fb 00 dd 49
	06		 cmp	 ebx, 105504000		; 0649dd00H
  0030d	0f 8c fd fc ff
	ff		 jl	 $LL4@Active

; 142  : 		}
; 143  : 	}
; 144  : }

  00313	5f		 pop	 edi
  00314	5e		 pop	 esi
  00315	5b		 pop	 ebx
  00316	c3		 ret	 0
?Active@CAttackEvent@@QAEXXZ ENDP			; CAttackEvent::Active
_TEXT	ENDS
; Function compile flags: /Ogtp
; File c:\users\michel\desktop\source\gameserver\source\attackevent.cpp
;	COMDAT ?Run@CAttackEvent@@QAEXXZ
_TEXT	SEGMENT
?Run@CAttackEvent@@QAEXXZ PROC				; CAttackEvent::Run, COMDAT
; _this$ = ecx

; 47   : 	return;
; 48   : }

  00000	c3		 ret	 0
?Run@CAttackEvent@@QAEXXZ ENDP				; CAttackEvent::Run
_TEXT	ENDS
; Function compile flags: /Ogtp
; File c:\users\michel\desktop\source\gameserver\source\attackevent.cpp
;	COMDAT ?End@CAttackEvent@@QAEXXZ
_TEXT	SEGMENT
?End@CAttackEvent@@QAEXXZ PROC				; CAttackEvent::End, COMDAT
; _this$ = ecx

; 41   : 	return;
; 42   : }

  00000	c3		 ret	 0
?End@CAttackEvent@@QAEXXZ ENDP				; CAttackEvent::End
_TEXT	ENDS
; Function compile flags: /Ogtp
; File c:\users\michel\desktop\source\gameserver\source\attackevent.cpp
;	COMDAT ?Start@CAttackEvent@@QAEXXZ
_TEXT	SEGMENT
?Start@CAttackEvent@@QAEXXZ PROC			; CAttackEvent::Start, COMDAT
; _this$ = ecx

; 34   : {

  00000	56		 push	 esi
  00001	8b f1		 mov	 esi, ecx

; 35   : 	this->EventState = true;

  00003	c6 46 04 01	 mov	 BYTE PTR [esi+4], 1

; 36   : 	this->EventStartTime = GetTickCount();

  00007	ff 15 00 00 00
	00		 call	 DWORD PTR __imp__GetTickCount@0
  0000d	89 46 08	 mov	 DWORD PTR [esi+8], eax
  00010	5e		 pop	 esi

; 37   : }

  00011	c3		 ret	 0
?Start@CAttackEvent@@QAEXXZ ENDP			; CAttackEvent::Start
_TEXT	ENDS
; Function compile flags: /Ogtp
; File c:\users\michel\desktop\source\gameserver\source\attackevent.cpp
;	COMDAT ?Init@CAttackEvent@@QAEXXZ
_TEXT	SEGMENT
?Init@CAttackEvent@@QAEXXZ PROC				; CAttackEvent::Init, COMDAT
; _this$ = ecx

; 26   : {

  00000	56		 push	 esi
  00001	8b f1		 mov	 esi, ecx

; 27   : 	this->EventState = false;

  00003	c6 46 04 00	 mov	 BYTE PTR [esi+4], 0

; 28   : 	this->EventStartTime = GetTickCount();

  00007	ff 15 00 00 00
	00		 call	 DWORD PTR __imp__GetTickCount@0
  0000d	89 46 08	 mov	 DWORD PTR [esi+8], eax

; 29   : 	this->m_MapNumber = MAP_INDEX_RORENCIA;

  00010	c6 46 0c 00	 mov	 BYTE PTR [esi+12], 0
  00014	5e		 pop	 esi

; 30   : }

  00015	c3		 ret	 0
?Init@CAttackEvent@@QAEXXZ ENDP				; CAttackEvent::Init
_TEXT	ENDS
; Function compile flags: /Ogtp
; File c:\users\michel\desktop\source\gameserver\source\attackevent.cpp
;	COMDAT ??1CAttackEvent@@UAE@XZ
_TEXT	SEGMENT
??1CAttackEvent@@UAE@XZ PROC				; CAttackEvent::~CAttackEvent, COMDAT
; _this$ = ecx

; 21   : {

  00000	c7 01 00 00 00
	00		 mov	 DWORD PTR [ecx], OFFSET ??_7CAttackEvent@@6B@

; 22   : 	return;
; 23   : }

  00006	c3		 ret	 0
??1CAttackEvent@@UAE@XZ ENDP				; CAttackEvent::~CAttackEvent
_TEXT	ENDS
; Function compile flags: /Ogtp
; File c:\users\michel\desktop\source\gameserver\source\attackevent.cpp
;	COMDAT ??0CAttackEvent@@QAE@XZ
_TEXT	SEGMENT
??0CAttackEvent@@QAE@XZ PROC				; CAttackEvent::CAttackEvent, COMDAT
; _this$ = ecx

; 15   : {

  00000	56		 push	 esi
  00001	8b f1		 mov	 esi, ecx
  00003	c7 06 00 00 00
	00		 mov	 DWORD PTR [esi], OFFSET ??_7CAttackEvent@@6B@

; 16   : 	this->Init();

  00009	e8 00 00 00 00	 call	 ?Init@CAttackEvent@@QAEXXZ ; CAttackEvent::Init

; 17   : }

  0000e	8b c6		 mov	 eax, esi
  00010	5e		 pop	 esi
  00011	c3		 ret	 0
??0CAttackEvent@@QAE@XZ ENDP				; CAttackEvent::CAttackEvent
_TEXT	ENDS
; Function compile flags: /Ogtp
; File c:\users\michel\desktop\source\gameserver\source\attackevent.cpp
;	COMDAT ?__empty_global_delete@@YAXPAXI@Z
_TEXT	SEGMENT
___formal$ = 8						; size = 4
___formal$ = 12						; size = 4
?__empty_global_delete@@YAXPAXI@Z PROC			; __empty_global_delete, COMDAT

; 171  : }

  00000	c3		 ret	 0
?__empty_global_delete@@YAXPAXI@Z ENDP			; __empty_global_delete
_TEXT	ENDS
; Function compile flags: /Ogtp
; File c:\users\michel\desktop\source\gameserver\source\attackevent.cpp
;	COMDAT ?__empty_global_delete@@YAXPAX@Z
_TEXT	SEGMENT
___formal$ = 8						; size = 4
?__empty_global_delete@@YAXPAX@Z PROC			; __empty_global_delete, COMDAT

; 171  : }

  00000	c3		 ret	 0
?__empty_global_delete@@YAXPAX@Z ENDP			; __empty_global_delete
_TEXT	ENDS
END
