; Listing generated by Microsoft (R) Optimizing Compiler Version 19.00.23506.0 

	TITLE	C:\Users\Michel\Desktop\Source\GameServer\Source\BattleSoccer.cpp
	.686P
	.XMM
	include listing.inc
	.model	flat

INCLUDELIB LIBCMT
INCLUDELIB OLDNAMES

PUBLIC	?gBSGround@@3PAPAVCBattleSoccer@@A		; gBSGround
_BSS	SEGMENT
?gBSGround@@3PAPAVCBattleSoccer@@A DD 01H DUP (?)	; gBSGround
_BSS	ENDS
PUBLIC	?__empty_global_delete@@YAXPAX@Z		; __empty_global_delete
PUBLIC	?__empty_global_delete@@YAXPAXI@Z		; __empty_global_delete
PUBLIC	??0CBattleSoccer@@QAE@XZ			; CBattleSoccer::CBattleSoccer
PUBLIC	??1CBattleSoccer@@UAE@XZ			; CBattleSoccer::~CBattleSoccer
PUBLIC	?SetGoalMove@CBattleSoccer@@QAEXH@Z		; CBattleSoccer::SetGoalMove
PUBLIC	?GetGoalMove@CBattleSoccer@@QAEHXZ		; CBattleSoccer::GetGoalMove
PUBLIC	?SetGoalLeftRect@CBattleSoccer@@QAEXHHHH@Z	; CBattleSoccer::SetGoalLeftRect
PUBLIC	?SetGoalRightRect@CBattleSoccer@@QAEXHHHH@Z	; CBattleSoccer::SetGoalRightRect
PUBLIC	??_GCBattleSoccer@@UAEPAXI@Z			; CBattleSoccer::`scalar deleting destructor'
PUBLIC	??_7CBattleSoccer@@6B@				; CBattleSoccer::`vftable'
PUBLIC	??_R4CBattleSoccer@@6B@				; CBattleSoccer::`RTTI Complete Object Locator'
PUBLIC	??_R0?AVCBattleSoccer@@@8			; CBattleSoccer `RTTI Type Descriptor'
PUBLIC	??_R3CBattleSoccer@@8				; CBattleSoccer::`RTTI Class Hierarchy Descriptor'
PUBLIC	??_R2CBattleSoccer@@8				; CBattleSoccer::`RTTI Base Class Array'
PUBLIC	??_R1A@?0A@EA@CBattleSoccer@@8			; CBattleSoccer::`RTTI Base Class Descriptor at (0,-1,0,64)'
PUBLIC	??_R1A@?0A@EA@CBattleGround@@8			; CBattleGround::`RTTI Base Class Descriptor at (0,-1,0,64)'
PUBLIC	??_R0?AVCBattleGround@@@8			; CBattleGround `RTTI Type Descriptor'
PUBLIC	??_R3CBattleGround@@8				; CBattleGround::`RTTI Class Hierarchy Descriptor'
PUBLIC	??_R2CBattleGround@@8				; CBattleGround::`RTTI Base Class Array'
EXTRN	??3@YAXPAXI@Z:PROC				; operator delete
EXTRN	??0CBattleGround@@QAE@XZ:PROC			; CBattleGround::CBattleGround
EXTRN	??1CBattleGround@@UAE@XZ:PROC			; CBattleGround::~CBattleGround
EXTRN	??_ECBattleSoccer@@UAEPAXI@Z:PROC		; CBattleSoccer::`vector deleting destructor'
EXTRN	??_7type_info@@6B@:QWORD			; type_info::`vftable'
;	COMDAT ??_R2CBattleGround@@8
rdata$r	SEGMENT
??_R2CBattleGround@@8 DD FLAT:??_R1A@?0A@EA@CBattleGround@@8 ; CBattleGround::`RTTI Base Class Array'
rdata$r	ENDS
;	COMDAT ??_R3CBattleGround@@8
rdata$r	SEGMENT
??_R3CBattleGround@@8 DD 00H				; CBattleGround::`RTTI Class Hierarchy Descriptor'
	DD	00H
	DD	01H
	DD	FLAT:??_R2CBattleGround@@8
rdata$r	ENDS
;	COMDAT ??_R0?AVCBattleGround@@@8
data$r	SEGMENT
??_R0?AVCBattleGround@@@8 DD FLAT:??_7type_info@@6B@	; CBattleGround `RTTI Type Descriptor'
	DD	00H
	DB	'.?AVCBattleGround@@', 00H
data$r	ENDS
;	COMDAT ??_R1A@?0A@EA@CBattleGround@@8
rdata$r	SEGMENT
??_R1A@?0A@EA@CBattleGround@@8 DD FLAT:??_R0?AVCBattleGround@@@8 ; CBattleGround::`RTTI Base Class Descriptor at (0,-1,0,64)'
	DD	00H
	DD	00H
	DD	0ffffffffH
	DD	00H
	DD	040H
	DD	FLAT:??_R3CBattleGround@@8
rdata$r	ENDS
;	COMDAT ??_R1A@?0A@EA@CBattleSoccer@@8
rdata$r	SEGMENT
??_R1A@?0A@EA@CBattleSoccer@@8 DD FLAT:??_R0?AVCBattleSoccer@@@8 ; CBattleSoccer::`RTTI Base Class Descriptor at (0,-1,0,64)'
	DD	01H
	DD	00H
	DD	0ffffffffH
	DD	00H
	DD	040H
	DD	FLAT:??_R3CBattleSoccer@@8
rdata$r	ENDS
;	COMDAT ??_R2CBattleSoccer@@8
rdata$r	SEGMENT
??_R2CBattleSoccer@@8 DD FLAT:??_R1A@?0A@EA@CBattleSoccer@@8 ; CBattleSoccer::`RTTI Base Class Array'
	DD	FLAT:??_R1A@?0A@EA@CBattleGround@@8
rdata$r	ENDS
;	COMDAT ??_R3CBattleSoccer@@8
rdata$r	SEGMENT
??_R3CBattleSoccer@@8 DD 00H				; CBattleSoccer::`RTTI Class Hierarchy Descriptor'
	DD	00H
	DD	02H
	DD	FLAT:??_R2CBattleSoccer@@8
rdata$r	ENDS
;	COMDAT ??_R0?AVCBattleSoccer@@@8
data$r	SEGMENT
??_R0?AVCBattleSoccer@@@8 DD FLAT:??_7type_info@@6B@	; CBattleSoccer `RTTI Type Descriptor'
	DD	00H
	DB	'.?AVCBattleSoccer@@', 00H
data$r	ENDS
;	COMDAT ??_R4CBattleSoccer@@6B@
rdata$r	SEGMENT
??_R4CBattleSoccer@@6B@ DD 00H				; CBattleSoccer::`RTTI Complete Object Locator'
	DD	00H
	DD	00H
	DD	FLAT:??_R0?AVCBattleSoccer@@@8
	DD	FLAT:??_R3CBattleSoccer@@8
rdata$r	ENDS
;	COMDAT ??_7CBattleSoccer@@6B@
CONST	SEGMENT
??_7CBattleSoccer@@6B@ DD FLAT:??_R4CBattleSoccer@@6B@	; CBattleSoccer::`vftable'
	DD	FLAT:??_ECBattleSoccer@@UAEPAXI@Z
CONST	ENDS
; Function compile flags: /Ogtp
;	COMDAT ??_GCBattleSoccer@@UAEPAXI@Z
_TEXT	SEGMENT
___flags$ = 8						; size = 4
??_GCBattleSoccer@@UAEPAXI@Z PROC			; CBattleSoccer::`scalar deleting destructor', COMDAT
; _this$ = ecx
  00000	55		 push	 ebp
  00001	8b ec		 mov	 ebp, esp
  00003	56		 push	 esi
  00004	8b f1		 mov	 esi, ecx
  00006	e8 00 00 00 00	 call	 ??1CBattleSoccer@@UAE@XZ ; CBattleSoccer::~CBattleSoccer
  0000b	f6 45 08 01	 test	 BYTE PTR ___flags$[ebp], 1
  0000f	74 0e		 je	 SHORT $LN4@scalar
  00011	68 90 00 00 00	 push	 144			; 00000090H
  00016	56		 push	 esi
  00017	e8 00 00 00 00	 call	 ??3@YAXPAXI@Z		; operator delete
  0001c	83 c4 08	 add	 esp, 8
$LN4@scalar:
  0001f	8b c6		 mov	 eax, esi
  00021	5e		 pop	 esi
  00022	5d		 pop	 ebp
  00023	c2 04 00	 ret	 4
??_GCBattleSoccer@@UAEPAXI@Z ENDP			; CBattleSoccer::`scalar deleting destructor'
_TEXT	ENDS
; Function compile flags: /Ogtp
; File c:\users\michel\desktop\source\gameserver\source\battlesoccer.cpp
;	COMDAT ?SetGoalRightRect@CBattleSoccer@@QAEXHHHH@Z
_TEXT	SEGMENT
_x$ = 8							; size = 4
_y$ = 12						; size = 4
_xl$ = 16						; size = 4
_yl$ = 20						; size = 4
?SetGoalRightRect@CBattleSoccer@@QAEXHHHH@Z PROC	; CBattleSoccer::SetGoalRightRect, COMDAT
; _this$ = ecx

; 40   : {

  00000	55		 push	 ebp
  00001	8b ec		 mov	 ebp, esp

; 41   : 	this->m_GoalRight.left = x;

  00003	8b 45 08	 mov	 eax, DWORD PTR _x$[ebp]
  00006	89 41 78	 mov	 DWORD PTR [ecx+120], eax

; 42   : 	this->m_GoalRight.top = y;

  00009	8b 45 0c	 mov	 eax, DWORD PTR _y$[ebp]
  0000c	89 41 7c	 mov	 DWORD PTR [ecx+124], eax

; 43   : 	this->m_GoalRight.right = xl;

  0000f	8b 45 10	 mov	 eax, DWORD PTR _xl$[ebp]
  00012	89 81 80 00 00
	00		 mov	 DWORD PTR [ecx+128], eax

; 44   : 	this->m_GoalRight.bottom = yl;

  00018	8b 45 14	 mov	 eax, DWORD PTR _yl$[ebp]
  0001b	89 81 84 00 00
	00		 mov	 DWORD PTR [ecx+132], eax

; 45   : }

  00021	5d		 pop	 ebp
  00022	c2 10 00	 ret	 16			; 00000010H
?SetGoalRightRect@CBattleSoccer@@QAEXHHHH@Z ENDP	; CBattleSoccer::SetGoalRightRect
_TEXT	ENDS
; Function compile flags: /Ogtp
; File c:\users\michel\desktop\source\gameserver\source\battlesoccer.cpp
;	COMDAT ?SetGoalLeftRect@CBattleSoccer@@QAEXHHHH@Z
_TEXT	SEGMENT
_x$ = 8							; size = 4
_y$ = 12						; size = 4
_xl$ = 16						; size = 4
_yl$ = 20						; size = 4
?SetGoalLeftRect@CBattleSoccer@@QAEXHHHH@Z PROC		; CBattleSoccer::SetGoalLeftRect, COMDAT
; _this$ = ecx

; 31   : {

  00000	55		 push	 ebp
  00001	8b ec		 mov	 ebp, esp

; 32   : 	this->m_GoalLeft.left = x;

  00003	8b 45 08	 mov	 eax, DWORD PTR _x$[ebp]
  00006	89 41 68	 mov	 DWORD PTR [ecx+104], eax

; 33   : 	this->m_GoalLeft.top = y;

  00009	8b 45 0c	 mov	 eax, DWORD PTR _y$[ebp]
  0000c	89 41 6c	 mov	 DWORD PTR [ecx+108], eax

; 34   : 	this->m_GoalLeft.right = xl;

  0000f	8b 45 10	 mov	 eax, DWORD PTR _xl$[ebp]
  00012	89 41 70	 mov	 DWORD PTR [ecx+112], eax

; 35   : 	this->m_GoalLeft.bottom = yl;

  00015	8b 45 14	 mov	 eax, DWORD PTR _yl$[ebp]
  00018	89 41 74	 mov	 DWORD PTR [ecx+116], eax

; 36   : }

  0001b	5d		 pop	 ebp
  0001c	c2 10 00	 ret	 16			; 00000010H
?SetGoalLeftRect@CBattleSoccer@@QAEXHHHH@Z ENDP		; CBattleSoccer::SetGoalLeftRect
_TEXT	ENDS
; Function compile flags: /Ogtp
; File c:\users\michel\desktop\source\gameserver\source\battlesoccer.cpp
;	COMDAT ?GetGoalMove@CBattleSoccer@@QAEHXZ
_TEXT	SEGMENT
?GetGoalMove@CBattleSoccer@@QAEHXZ PROC			; CBattleSoccer::GetGoalMove, COMDAT
; _this$ = ecx

; 27   : 	return this->m_goalmove;

  00000	8b 41 60	 mov	 eax, DWORD PTR [ecx+96]

; 28   : }

  00003	c3		 ret	 0
?GetGoalMove@CBattleSoccer@@QAEHXZ ENDP			; CBattleSoccer::GetGoalMove
_TEXT	ENDS
; Function compile flags: /Ogtp
; File c:\users\michel\desktop\source\gameserver\source\battlesoccer.cpp
;	COMDAT ?SetGoalMove@CBattleSoccer@@QAEXH@Z
_TEXT	SEGMENT
_set_code$ = 8						; size = 4
?SetGoalMove@CBattleSoccer@@QAEXH@Z PROC		; CBattleSoccer::SetGoalMove, COMDAT
; _this$ = ecx

; 21   : {

  00000	55		 push	 ebp
  00001	8b ec		 mov	 ebp, esp

; 22   : 	this->m_goalmove = set_code;

  00003	8b 45 08	 mov	 eax, DWORD PTR _set_code$[ebp]
  00006	89 41 60	 mov	 DWORD PTR [ecx+96], eax

; 23   : }

  00009	5d		 pop	 ebp
  0000a	c2 04 00	 ret	 4
?SetGoalMove@CBattleSoccer@@QAEXH@Z ENDP		; CBattleSoccer::SetGoalMove
_TEXT	ENDS
; Function compile flags: /Ogtp
; File c:\users\michel\desktop\source\gameserver\source\battlesoccer.cpp
;	COMDAT ??1CBattleSoccer@@UAE@XZ
_TEXT	SEGMENT
??1CBattleSoccer@@UAE@XZ PROC				; CBattleSoccer::~CBattleSoccer, COMDAT
; _this$ = ecx

; 16   : {

  00000	c7 01 00 00 00
	00		 mov	 DWORD PTR [ecx], OFFSET ??_7CBattleSoccer@@6B@

; 17   : 	return;
; 18   : }

  00006	e9 00 00 00 00	 jmp	 ??1CBattleGround@@UAE@XZ ; CBattleGround::~CBattleGround
??1CBattleSoccer@@UAE@XZ ENDP				; CBattleSoccer::~CBattleSoccer
_TEXT	ENDS
; Function compile flags: /Ogtp
; File c:\users\michel\desktop\source\gameserver\source\battlesoccer.cpp
;	COMDAT ??0CBattleSoccer@@QAE@XZ
_TEXT	SEGMENT
_this$ = -4						; size = 4
??0CBattleSoccer@@QAE@XZ PROC				; CBattleSoccer::CBattleSoccer, COMDAT
; _this$ = ecx

; 9    : {

  00000	55		 push	 ebp
  00001	8b ec		 mov	 ebp, esp
  00003	51		 push	 ecx
  00004	56		 push	 esi
  00005	8b f1		 mov	 esi, ecx
  00007	89 75 fc	 mov	 DWORD PTR _this$[ebp], esi
  0000a	e8 00 00 00 00	 call	 ??0CBattleGround@@QAE@XZ ; CBattleGround::CBattleGround
  0000f	c7 06 00 00 00
	00		 mov	 DWORD PTR [esi], OFFSET ??_7CBattleSoccer@@6B@

; 10   : 	this->m_goalmove = 0;
; 11   : 	this->m_BallIndex = 0;
; 12   : }

  00015	8b c6		 mov	 eax, esi
  00017	c7 46 60 00 00
	00 00		 mov	 DWORD PTR [esi+96], 0
  0001e	c7 46 64 00 00
	00 00		 mov	 DWORD PTR [esi+100], 0
  00025	5e		 pop	 esi
  00026	8b e5		 mov	 esp, ebp
  00028	5d		 pop	 ebp
  00029	c3		 ret	 0
??0CBattleSoccer@@QAE@XZ ENDP				; CBattleSoccer::CBattleSoccer
_TEXT	ENDS
; Function compile flags: /Ogtp
; File c:\users\michel\desktop\source\gameserver\source\battlesoccer.cpp
;	COMDAT ?__empty_global_delete@@YAXPAXI@Z
_TEXT	SEGMENT
___formal$ = 8						; size = 4
___formal$ = 12						; size = 4
?__empty_global_delete@@YAXPAXI@Z PROC			; __empty_global_delete, COMDAT

  00000	c3		 ret	 0
?__empty_global_delete@@YAXPAXI@Z ENDP			; __empty_global_delete
_TEXT	ENDS
; Function compile flags: /Ogtp
; File c:\users\michel\desktop\source\gameserver\source\battlesoccer.cpp
;	COMDAT ?__empty_global_delete@@YAXPAX@Z
_TEXT	SEGMENT
___formal$ = 8						; size = 4
?__empty_global_delete@@YAXPAX@Z PROC			; __empty_global_delete, COMDAT

  00000	c3		 ret	 0
?__empty_global_delete@@YAXPAX@Z ENDP			; __empty_global_delete
_TEXT	ENDS
END
