; Listing generated by Microsoft (R) Optimizing Compiler Version 19.00.23506.0 

	TITLE	C:\Users\Michel\Desktop\Source\GameServer\Source\CannonTower.cpp
	.686P
	.XMM
	include listing.inc
	.model	flat

INCLUDELIB LIBCMT
INCLUDELIB OLDNAMES

PUBLIC	?__empty_global_delete@@YAXPAX@Z		; __empty_global_delete
PUBLIC	?__empty_global_delete@@YAXPAXI@Z		; __empty_global_delete
PUBLIC	??0CCannonTower@@QAE@XZ				; CCannonTower::CCannonTower
PUBLIC	??1CCannonTower@@UAE@XZ				; CCannonTower::~CCannonTower
PUBLIC	?CannonTowerAct@CCannonTower@@QAEXH@Z		; CCannonTower::CannonTowerAct
PUBLIC	??_GCCannonTower@@UAEPAXI@Z			; CCannonTower::`scalar deleting destructor'
PUBLIC	??1OBJECTSTRUCT@@QAE@XZ				; OBJECTSTRUCT::~OBJECTSTRUCT
PUBLIC	??_EOBJECTSTRUCT@@QAEPAXI@Z			; OBJECTSTRUCT::`vector deleting destructor'
PUBLIC	??_7CCannonTower@@6B@				; CCannonTower::`vftable'
PUBLIC	?g_CsNPC_CannonTower@@3VCCannonTower@@A		; g_CsNPC_CannonTower
PUBLIC	??_R4CCannonTower@@6B@				; CCannonTower::`RTTI Complete Object Locator'
PUBLIC	??_R0?AVCCannonTower@@@8			; CCannonTower `RTTI Type Descriptor'
PUBLIC	??_R3CCannonTower@@8				; CCannonTower::`RTTI Class Hierarchy Descriptor'
PUBLIC	??_R2CCannonTower@@8				; CCannonTower::`RTTI Base Class Array'
PUBLIC	??_R1A@?0A@EA@CCannonTower@@8			; CCannonTower::`RTTI Base Class Descriptor at (0,-1,0,64)'
EXTRN	??_M@YGXPAXIIP6EX0@Z@Z:PROC			; `eh vector destructor iterator'
EXTRN	??3@YAXPAXI@Z:PROC				; operator delete
EXTRN	??_V@YAXPAXI@Z:PROC				; operator delete[]
EXTRN	_atexit:PROC
EXTRN	_rand:PROC
EXTRN	??_ECCannonTower@@UAEPAXI@Z:PROC		; CCannonTower::`vector deleting destructor'
EXTRN	??1CSkillDelay@@UAE@XZ:PROC			; CSkillDelay::~CSkillDelay
EXTRN	??1TMonsterAIAgro@@UAE@XZ:PROC			; TMonsterAIAgro::~TMonsterAIAgro
EXTRN	?MsgSendV2@@YAXPAUOBJECTSTRUCT@@PAEH@Z:PROC	; MsgSendV2
EXTRN	?CGBeattackRecv@@YAXPAEHH@Z:PROC		; CGBeattackRecv
EXTRN	?gObjCalDistance@@YAHPAUOBJECTSTRUCT@@0@Z:PROC	; gObjCalDistance
EXTRN	?PHeadSetBE@@YAXPAEEH@Z:PROC			; PHeadSetBE
EXTRN	@__security_check_cookie@4:PROC
EXTRN	___CxxFrameHandler3:PROC
EXTRN	??_7type_info@@6B@:QWORD			; type_info::`vftable'
EXTRN	?gObj@@3PAUOBJECTSTRUCT@@A:DWORD		; gObj
EXTRN	___security_cookie:DWORD
_BSS	SEGMENT
?g_CsNPC_CannonTower@@3VCCannonTower@@A DD 01H DUP (?)	; g_CsNPC_CannonTower
_BSS	ENDS
CRT$XCU	SEGMENT
?g_CsNPC_CannonTower$initializer$@@3P6AXXZA DD FLAT:??__Eg_CsNPC_CannonTower@@YAXXZ ; g_CsNPC_CannonTower$initializer$
CRT$XCU	ENDS
;	COMDAT ??_R1A@?0A@EA@CCannonTower@@8
rdata$r	SEGMENT
??_R1A@?0A@EA@CCannonTower@@8 DD FLAT:??_R0?AVCCannonTower@@@8 ; CCannonTower::`RTTI Base Class Descriptor at (0,-1,0,64)'
	DD	00H
	DD	00H
	DD	0ffffffffH
	DD	00H
	DD	040H
	DD	FLAT:??_R3CCannonTower@@8
rdata$r	ENDS
;	COMDAT ??_R2CCannonTower@@8
rdata$r	SEGMENT
??_R2CCannonTower@@8 DD FLAT:??_R1A@?0A@EA@CCannonTower@@8 ; CCannonTower::`RTTI Base Class Array'
rdata$r	ENDS
;	COMDAT ??_R3CCannonTower@@8
rdata$r	SEGMENT
??_R3CCannonTower@@8 DD 00H				; CCannonTower::`RTTI Class Hierarchy Descriptor'
	DD	00H
	DD	01H
	DD	FLAT:??_R2CCannonTower@@8
rdata$r	ENDS
;	COMDAT ??_R0?AVCCannonTower@@@8
data$r	SEGMENT
??_R0?AVCCannonTower@@@8 DD FLAT:??_7type_info@@6B@	; CCannonTower `RTTI Type Descriptor'
	DD	00H
	DB	'.?AVCCannonTower@@', 00H
data$r	ENDS
;	COMDAT ??_R4CCannonTower@@6B@
rdata$r	SEGMENT
??_R4CCannonTower@@6B@ DD 00H				; CCannonTower::`RTTI Complete Object Locator'
	DD	00H
	DD	00H
	DD	FLAT:??_R0?AVCCannonTower@@@8
	DD	FLAT:??_R3CCannonTower@@8
rdata$r	ENDS
;	COMDAT ??_7CCannonTower@@6B@
CONST	SEGMENT
??_7CCannonTower@@6B@ DD FLAT:??_R4CCannonTower@@6B@	; CCannonTower::`vftable'
	DD	FLAT:??_ECCannonTower@@UAEPAXI@Z
CONST	ENDS
;	COMDAT xdata$x
xdata$x	SEGMENT
__ehfuncinfo$??_EOBJECTSTRUCT@@QAEPAXI@Z DD 019930522H
	DD	00H
	DD	00H
	DD	2 DUP(00H)
	DD	2 DUP(00H)
	DD	00H
	DD	05H
xdata$x	ENDS
; Function compile flags: /Ogtp
;	COMDAT ??__Fg_CsNPC_CannonTower@@YAXXZ
text$yd	SEGMENT
??__Fg_CsNPC_CannonTower@@YAXXZ PROC			; `dynamic atexit destructor for 'g_CsNPC_CannonTower'', COMDAT
  00000	b9 00 00 00 00	 mov	 ecx, OFFSET ?g_CsNPC_CannonTower@@3VCCannonTower@@A ; g_CsNPC_CannonTower
  00005	e9 00 00 00 00	 jmp	 ??1CCannonTower@@UAE@XZ	; CCannonTower::~CCannonTower
??__Fg_CsNPC_CannonTower@@YAXXZ ENDP			; `dynamic atexit destructor for 'g_CsNPC_CannonTower''
text$yd	ENDS
; Function compile flags: /Ogtp
; File c:\users\michel\desktop\source\gameserver\source\cannontower.cpp
;	COMDAT ??__Eg_CsNPC_CannonTower@@YAXXZ
text$di	SEGMENT
??__Eg_CsNPC_CannonTower@@YAXXZ PROC			; `dynamic initializer for 'g_CsNPC_CannonTower'', COMDAT

; 15   : CCannonTower g_CsNPC_CannonTower;

  00000	b9 00 00 00 00	 mov	 ecx, OFFSET ?g_CsNPC_CannonTower@@3VCCannonTower@@A ; g_CsNPC_CannonTower
  00005	e8 00 00 00 00	 call	 ??0CCannonTower@@QAE@XZ	; CCannonTower::CCannonTower
  0000a	68 00 00 00 00	 push	 OFFSET ??__Fg_CsNPC_CannonTower@@YAXXZ ; `dynamic atexit destructor for 'g_CsNPC_CannonTower''
  0000f	e8 00 00 00 00	 call	 _atexit
  00014	59		 pop	 ecx
  00015	c3		 ret	 0
??__Eg_CsNPC_CannonTower@@YAXXZ ENDP			; `dynamic initializer for 'g_CsNPC_CannonTower''
text$di	ENDS
; Function compile flags: /Ogtp
;	COMDAT ??_EOBJECTSTRUCT@@QAEPAXI@Z
_TEXT	SEGMENT
__$EHRec$ = -12						; size = 12
___flags$ = 8						; size = 4
??_EOBJECTSTRUCT@@QAEPAXI@Z PROC			; OBJECTSTRUCT::`vector deleting destructor', COMDAT
; _this$ = ecx
  00000	55		 push	 ebp
  00001	8b ec		 mov	 ebp, esp
  00003	6a ff		 push	 -1
  00005	68 00 00 00 00	 push	 __ehhandler$??_EOBJECTSTRUCT@@QAEPAXI@Z
  0000a	64 a1 00 00 00
	00		 mov	 eax, DWORD PTR fs:0
  00010	50		 push	 eax
  00011	53		 push	 ebx
  00012	56		 push	 esi
  00013	57		 push	 edi
  00014	a1 00 00 00 00	 mov	 eax, DWORD PTR ___security_cookie
  00019	33 c5		 xor	 eax, ebp
  0001b	50		 push	 eax
  0001c	8d 45 f4	 lea	 eax, DWORD PTR __$EHRec$[ebp]
  0001f	64 a3 00 00 00
	00		 mov	 DWORD PTR fs:0, eax
  00025	8b f1		 mov	 esi, ecx
  00027	8b 5d 08	 mov	 ebx, DWORD PTR ___flags$[ebp]
  0002a	f6 c3 02	 test	 bl, 2
  0002d	74 44		 je	 SHORT $LN2@vector
  0002f	68 00 00 00 00	 push	 OFFSET ??1OBJECTSTRUCT@@QAE@XZ
  00034	ff 76 fc	 push	 DWORD PTR [esi-4]
  00037	8d 7e fc	 lea	 edi, DWORD PTR [esi-4]
  0003a	68 40 27 00 00	 push	 10048			; 00002740H
  0003f	56		 push	 esi
  00040	e8 00 00 00 00	 call	 ??_M@YGXPAXIIP6EX0@Z@Z
  00045	f6 c3 01	 test	 bl, 1
  00048	74 13		 je	 SHORT $LN3@vector
  0004a	69 0f 40 27 00
	00		 imul	 ecx, DWORD PTR [edi], 10048
  00050	83 c1 04	 add	 ecx, 4
  00053	51		 push	 ecx
  00054	57		 push	 edi
  00055	e8 00 00 00 00	 call	 ??_V@YAXPAXI@Z		; operator delete[]
  0005a	83 c4 08	 add	 esp, 8
$LN3@vector:
  0005d	8b c7		 mov	 eax, edi
  0005f	8b 4d f4	 mov	 ecx, DWORD PTR __$EHRec$[ebp]
  00062	64 89 0d 00 00
	00 00		 mov	 DWORD PTR fs:0, ecx
  00069	59		 pop	 ecx
  0006a	5f		 pop	 edi
  0006b	5e		 pop	 esi
  0006c	5b		 pop	 ebx
  0006d	8b e5		 mov	 esp, ebp
  0006f	5d		 pop	 ebp
  00070	c2 04 00	 ret	 4
$LN2@vector:
  00073	8d 8e ec 20 00
	00		 lea	 ecx, DWORD PTR [esi+8428]
  00079	e8 00 00 00 00	 call	 ??1TMonsterAIAgro@@UAE@XZ ; TMonsterAIAgro::~TMonsterAIAgro
  0007e	8d 8e 0c 16 00
	00		 lea	 ecx, DWORD PTR [esi+5644]
  00084	e8 00 00 00 00	 call	 ??1CSkillDelay@@UAE@XZ	; CSkillDelay::~CSkillDelay
  00089	f6 c3 01	 test	 bl, 1
  0008c	74 0e		 je	 SHORT $LN4@vector
  0008e	68 40 27 00 00	 push	 10048			; 00002740H
  00093	56		 push	 esi
  00094	e8 00 00 00 00	 call	 ??3@YAXPAXI@Z		; operator delete
  00099	83 c4 08	 add	 esp, 8
$LN4@vector:
  0009c	8b c6		 mov	 eax, esi
  0009e	8b 4d f4	 mov	 ecx, DWORD PTR __$EHRec$[ebp]
  000a1	64 89 0d 00 00
	00 00		 mov	 DWORD PTR fs:0, ecx
  000a8	59		 pop	 ecx
  000a9	5f		 pop	 edi
  000aa	5e		 pop	 esi
  000ab	5b		 pop	 ebx
  000ac	8b e5		 mov	 esp, ebp
  000ae	5d		 pop	 ebp
  000af	c2 04 00	 ret	 4
_TEXT	ENDS
;	COMDAT text$x
text$x	SEGMENT
__ehhandler$??_EOBJECTSTRUCT@@QAEPAXI@Z:
  00000	8b 54 24 08	 mov	 edx, DWORD PTR [esp+8]
  00004	8d 42 0c	 lea	 eax, DWORD PTR [edx+12]
  00007	8b 4a f0	 mov	 ecx, DWORD PTR [edx-16]
  0000a	33 c8		 xor	 ecx, eax
  0000c	e8 00 00 00 00	 call	 @__security_check_cookie@4
  00011	b8 00 00 00 00	 mov	 eax, OFFSET __ehfuncinfo$??_EOBJECTSTRUCT@@QAEPAXI@Z
  00016	e9 00 00 00 00	 jmp	 ___CxxFrameHandler3
text$x	ENDS
??_EOBJECTSTRUCT@@QAEPAXI@Z ENDP			; OBJECTSTRUCT::`vector deleting destructor'
; Function compile flags: /Ogtp
;	COMDAT ??1OBJECTSTRUCT@@QAE@XZ
_TEXT	SEGMENT
??1OBJECTSTRUCT@@QAE@XZ PROC				; OBJECTSTRUCT::~OBJECTSTRUCT, COMDAT
; _this$ = ecx
  00000	56		 push	 esi
  00001	8b f1		 mov	 esi, ecx
  00003	8d 8e ec 20 00
	00		 lea	 ecx, DWORD PTR [esi+8428]
  00009	e8 00 00 00 00	 call	 ??1TMonsterAIAgro@@UAE@XZ ; TMonsterAIAgro::~TMonsterAIAgro
  0000e	8d 8e 0c 16 00
	00		 lea	 ecx, DWORD PTR [esi+5644]
  00014	5e		 pop	 esi
  00015	e9 00 00 00 00	 jmp	 ??1CSkillDelay@@UAE@XZ	; CSkillDelay::~CSkillDelay
??1OBJECTSTRUCT@@QAE@XZ ENDP				; OBJECTSTRUCT::~OBJECTSTRUCT
_TEXT	ENDS
; Function compile flags: /Ogtp
;	COMDAT ??_GCCannonTower@@UAEPAXI@Z
_TEXT	SEGMENT
___flags$ = 8						; size = 4
??_GCCannonTower@@UAEPAXI@Z PROC			; CCannonTower::`scalar deleting destructor', COMDAT
; _this$ = ecx
  00000	55		 push	 ebp
  00001	8b ec		 mov	 ebp, esp
  00003	56		 push	 esi
  00004	8b f1		 mov	 esi, ecx
  00006	e8 00 00 00 00	 call	 ??1CCannonTower@@UAE@XZ	; CCannonTower::~CCannonTower
  0000b	f6 45 08 01	 test	 BYTE PTR ___flags$[ebp], 1
  0000f	74 0b		 je	 SHORT $LN4@scalar
  00011	6a 04		 push	 4
  00013	56		 push	 esi
  00014	e8 00 00 00 00	 call	 ??3@YAXPAXI@Z		; operator delete
  00019	83 c4 08	 add	 esp, 8
$LN4@scalar:
  0001c	8b c6		 mov	 eax, esi
  0001e	5e		 pop	 esi
  0001f	5d		 pop	 ebp
  00020	c2 04 00	 ret	 4
??_GCCannonTower@@UAEPAXI@Z ENDP			; CCannonTower::`scalar deleting destructor'
_TEXT	ENDS
; Function compile flags: /Ogtp
; File c:\users\michel\desktop\source\gameserver\source\cannontower.cpp
;	COMDAT ?CannonTowerAct@CCannonTower@@QAEXH@Z
_TEXT	SEGMENT
_iIndex$GSCopy$1$ = -296				; size = 4
_pAttack$ = -292					; size = 3
_lpObj$1$ = -288					; size = 4
tv397 = -284						; size = 4
_ASBOfs$1$ = -280					; size = 4
_pCount$2$ = -273					; size = 1
_pMsg$1 = -272						; size = 10
_pCount$ = -272						; size = 9
_AttackSendBuff$ = -260					; size = 256
__$ArrayPad$ = -4					; size = 4
_iIndex$ = 8						; size = 4
?CannonTowerAct@CCannonTower@@QAEXH@Z PROC		; CCannonTower::CannonTowerAct, COMDAT
; _this$ = ecx

; 30   : {

  00000	55		 push	 ebp
  00001	8b ec		 mov	 ebp, esp
  00003	81 ec 28 01 00
	00		 sub	 esp, 296		; 00000128H
  00009	a1 00 00 00 00	 mov	 eax, DWORD PTR ___security_cookie
  0000e	33 c5		 xor	 eax, ebp
  00010	89 45 fc	 mov	 DWORD PTR __$ArrayPad$[ebp], eax
  00013	53		 push	 ebx
  00014	8b 5d 08	 mov	 ebx, DWORD PTR _iIndex$[ebp]
  00017	89 9d d8 fe ff
	ff		 mov	 DWORD PTR _iIndex$GSCopy$1$[ebp], ebx

; 31   : 	if(rand()%2 != NULL)

  0001d	e8 00 00 00 00	 call	 _rand
  00022	25 01 00 00 80	 and	 eax, -2147483647	; 80000001H
  00027	79 05		 jns	 SHORT $LN19@CannonTowe
  00029	48		 dec	 eax
  0002a	83 c8 fe	 or	 eax, -2			; fffffffeH
  0002d	40		 inc	 eax
$LN19@CannonTowe:
  0002e	0f 85 b6 01 00
	00		 jne	 $LN9@CannonTowe

; 32   : 		return;
; 33   : 
; 34   : 	LPOBJ lpObj = &gObj[iIndex];

  00034	69 db 40 27 00
	00		 imul	 ebx, ebx, 10048
  0003a	ba 4b 00 00 00	 mov	 edx, 75			; 0000004bH
  0003f	56		 push	 esi
  00040	57		 push	 edi

; 35   : 	int tObjNum;
; 36   : 	int count = 0;
; 37   : 	PMSG_BEATTACK_COUNT pCount;
; 38   : 	PMSG_BEATTACK pAttack;
; 39   : 	unsigned char AttackSendBuff[0x100];
; 40   : 	int ASBOfs = 0;
; 41   : 
; 42   : 
; 43   : 	pCount.h.c = 0xC1;

  00041	c7 85 f0 fe ff
	ff c1 00 db 00	 mov	 DWORD PTR _pCount$[ebp], 14352577 ; 00db00c1H
  0004b	8d bd 05 ff ff
	ff		 lea	 edi, DWORD PTR _AttackSendBuff$[ebp+9]

; 44   : #if (__ENG__==1)
; 45   : 	// ENG PROTOCOL
; 46   : 	pCount.h.headcode = 0xDB;
; 47   : #else
; 48   : 	// KOR PROTOCOL
; 49   : 	pCount.h.headcode = 0xD3;
; 50   : #endif
; 51   : 	pCount.h.size = 0;
; 52   : 
; 53   : 	pCount.MagicNumberH = 0;
; 54   : 	pCount.MagicNumberL = 0;
; 55   : 
; 56   : 	pCount.Count = 0;

  00051	66 c7 85 f4 fe
	ff ff 00 00	 mov	 WORD PTR _pCount$[ebp+4], 0
  0005a	03 1d 00 00 00
	00		 add	 ebx, DWORD PTR ?gObj@@3PAUOBJECTSTRUCT@@A ; gObj
  00060	32 c9		 xor	 cl, cl
  00062	89 9d e0 fe ff
	ff		 mov	 DWORD PTR _lpObj$1$[ebp], ebx
  00068	89 95 e4 fe ff
	ff		 mov	 DWORD PTR tv397[ebp], edx

; 57   : 
; 58   : 	pCount.X = lpObj->X;

  0006e	0f b6 83 20 01
	00 00		 movzx	 eax, BYTE PTR [ebx+288]
  00075	8d b3 4c 0c 00
	00		 lea	 esi, DWORD PTR [ebx+3148]
  0007b	88 85 f6 fe ff
	ff		 mov	 BYTE PTR _pCount$[ebp+6], al

; 59   : 	pCount.Y = lpObj->Y;

  00081	8a 83 21 01 00
	00		 mov	 al, BYTE PTR [ebx+289]
  00087	88 85 ef fe ff
	ff		 mov	 BYTE PTR _pCount$2$[ebp], al

; 60   : 
; 61   : 	ASBOfs = sizeof(pCount);

  0008d	b8 09 00 00 00	 mov	 eax, 9
  00092	89 85 e8 fe ff
	ff		 mov	 DWORD PTR _ASBOfs$1$[ebp], eax
  00098	0f 1f 84 00 00
	00 00 00	 npad	 8
$LL2@CannonTowe:

; 62   : 
; 63   : 	while( true )
; 64   : 	{
; 65   : 		if(lpObj->VpPlayer2[count].state != NULL
; 66   : 			&& lpObj->VpPlayer2[count].type == OBJ_USER)

  000a0	80 7e fc 00	 cmp	 BYTE PTR [esi-4], 0
  000a4	0f 84 83 00 00
	00		 je	 $LN16@CannonTowe
  000aa	80 3e 01	 cmp	 BYTE PTR [esi], 1
  000ad	75 7e		 jne	 SHORT $LN16@CannonTowe

; 67   : 		{
; 68   : 			tObjNum = lpObj->VpPlayer2[count].number;

  000af	0f bf 5e fe	 movsx	 ebx, WORD PTR [esi-2]

; 69   : 
; 70   : 			if(tObjNum >= 0)

  000b3	85 db		 test	 ebx, ebx
  000b5	78 76		 js	 SHORT $LN16@CannonTowe

; 71   : 			{
; 72   : 				if(gObj[tObjNum].m_btCsJoinSide != 1 && gObjCalDistance(lpObj,&gObj[tObjNum]) < 7)

  000b7	a1 00 00 00 00	 mov	 eax, DWORD PTR ?gObj@@3PAUOBJECTSTRUCT@@A ; gObj
  000bc	69 cb 40 27 00
	00		 imul	 ecx, ebx, 10048
  000c2	03 c1		 add	 eax, ecx
  000c4	80 b8 5a 20 00
	00 01		 cmp	 BYTE PTR [eax+8282], 1
  000cb	74 54		 je	 SHORT $LN17@CannonTowe
  000cd	50		 push	 eax
  000ce	ff b5 e0 fe ff
	ff		 push	 DWORD PTR _lpObj$1$[ebp]
  000d4	e8 00 00 00 00	 call	 ?gObjCalDistance@@YAHPAUOBJECTSTRUCT@@0@Z ; gObjCalDistance

; 80   : 					pCount.Count++;

  000d9	8a 8d f4 fe ff
	ff		 mov	 cl, BYTE PTR _pCount$[ebp+4]
  000df	83 c4 08	 add	 esp, 8
  000e2	8b 95 e4 fe ff
	ff		 mov	 edx, DWORD PTR tv397[ebp]
  000e8	83 f8 07	 cmp	 eax, 7
  000eb	7d 3a		 jge	 SHORT $LN18@CannonTowe

; 73   : 				{
; 74   : 					pAttack.NumberH = SET_NUMBERH(tObjNum);

  000ed	8b c3		 mov	 eax, ebx
  000ef	c1 e8 08	 shr	 eax, 8
  000f2	88 85 dc fe ff
	ff		 mov	 BYTE PTR _pAttack$[ebp], al

; 75   : 					pAttack.NumberL = SET_NUMBERL(tObjNum);
; 76   : 
; 77   : 					memcpy(&AttackSendBuff[ASBOfs],&pAttack,3);

  000f8	66 8b 85 dc fe
	ff ff		 mov	 ax, WORD PTR _pAttack$[ebp]
  000ff	66 89 07	 mov	 WORD PTR [edi], ax

; 78   : 
; 79   : 					ASBOfs += sizeof(pAttack);

  00102	8b 85 e8 fe ff
	ff		 mov	 eax, DWORD PTR _ASBOfs$1$[ebp]
  00108	88 5f 02	 mov	 BYTE PTR [edi+2], bl
  0010b	83 c0 03	 add	 eax, 3
  0010e	83 c7 03	 add	 edi, 3
  00111	89 85 e8 fe ff
	ff		 mov	 DWORD PTR _ASBOfs$1$[ebp], eax

; 80   : 					pCount.Count++;

  00117	fe c1		 inc	 cl
  00119	88 8d f4 fe ff
	ff		 mov	 BYTE PTR _pCount$[ebp+4], cl
  0011f	eb 0c		 jmp	 SHORT $LN16@CannonTowe
$LN17@CannonTowe:
  00121	8a 8d f4 fe ff
	ff		 mov	 cl, BYTE PTR _pCount$[ebp+4]
$LN18@CannonTowe:
  00127	8b 85 e8 fe ff
	ff		 mov	 eax, DWORD PTR _ASBOfs$1$[ebp]
$LN16@CannonTowe:

; 81   : 				}
; 82   : 			}
; 83   : 		}
; 84   : 
; 85   : 		count++;

  0012d	83 c6 0c	 add	 esi, 12			; 0000000cH

; 86   : 
; 87   : 		if(count > MAX_VIEWPORT - 1)

  00130	83 ea 01	 sub	 edx, 1
  00133	89 95 e4 fe ff
	ff		 mov	 DWORD PTR tv397[ebp], edx
  00139	0f 85 61 ff ff
	ff		 jne	 $LL2@CannonTowe

; 88   : 		{
; 89   : 			break;
; 90   : 		}
; 91   : 	}
; 92   : 
; 93   : 	if(pCount.Count > 0)

  0013f	5f		 pop	 edi
  00140	5e		 pop	 esi
  00141	84 c9		 test	 cl, cl
  00143	0f 84 a1 00 00
	00		 je	 $LN9@CannonTowe

; 94   : 	{
; 95   : 		pCount.h.size = ASBOfs;
; 96   : 
; 97   : 		memcpy(AttackSendBuff,&pCount,sizeof(pCount));
; 98   : 		CGBeattackRecv(AttackSendBuff,lpObj->m_Index,1);

  00149	8b 9d e0 fe ff
	ff		 mov	 ebx, DWORD PTR _lpObj$1$[ebp]
  0014f	88 85 f1 fe ff
	ff		 mov	 BYTE PTR _pCount$[ebp+1], al
  00155	f3 0f 7e 85 f0
	fe ff ff	 movq	 xmm0, QWORD PTR _pCount$[ebp]
  0015d	8a 85 ef fe ff
	ff		 mov	 al, BYTE PTR _pCount$2$[ebp]
  00163	88 85 04 ff ff
	ff		 mov	 BYTE PTR _AttackSendBuff$[ebp+8], al
  00169	8d 85 fc fe ff
	ff		 lea	 eax, DWORD PTR _AttackSendBuff$[ebp]
  0016f	6a 01		 push	 1
  00171	66 0f d6 85 fc
	fe ff ff	 movq	 QWORD PTR _AttackSendBuff$[ebp], xmm0
  00179	ff 33		 push	 DWORD PTR [ebx]
  0017b	50		 push	 eax
  0017c	e8 00 00 00 00	 call	 ?CGBeattackRecv@@YAXPAEHH@Z ; CGBeattackRecv

; 99   : 
; 100  : 		PMSG_DURATION_MAGIC_SEND pMsg;
; 101  : 		PHeadSetBE((PBYTE)&pMsg,0x1E,sizeof(pMsg));

  00181	6a 0a		 push	 10			; 0000000aH
  00183	8d 85 f0 fe ff
	ff		 lea	 eax, DWORD PTR _pMsg$1[ebp]
  00189	6a 1e		 push	 30			; 0000001eH
  0018b	50		 push	 eax
  0018c	e8 00 00 00 00	 call	 ?PHeadSetBE@@YAXPAEEH@Z	; PHeadSetBE

; 102  : 
; 103  : 		pMsg.MagicNumberH = SET_NUMBERH(AT_SKILL_DEVILFIRE);
; 104  : 		pMsg.MagicNumberL = SET_NUMBERL(AT_SKILL_DEVILFIRE);
; 105  : 
; 106  : 		pMsg.X = lpObj->X;

  00191	0f b6 83 20 01
	00 00		 movzx	 eax, BYTE PTR [ebx+288]

; 107  : 		pMsg.Y = lpObj->Y;
; 108  : 		pMsg.Dir = 0;
; 109  : 		pMsg.NumberH = SET_NUMBERH(iIndex);

  00198	8b 8d d8 fe ff
	ff		 mov	 ecx, DWORD PTR _iIndex$GSCopy$1$[ebp]
  0019e	88 85 f3 fe ff
	ff		 mov	 BYTE PTR _pMsg$1[ebp+3], al
  001a4	0f b6 83 21 01
	00 00		 movzx	 eax, BYTE PTR [ebx+289]
  001ab	88 85 f4 fe ff
	ff		 mov	 BYTE PTR _pMsg$1[ebp+4], al
  001b1	8b c1		 mov	 eax, ecx
  001b3	c1 e8 08	 shr	 eax, 8
  001b6	88 85 f7 fe ff
	ff		 mov	 BYTE PTR _pMsg$1[ebp+7], al

; 110  : 		pMsg.NumberL = SET_NUMBERL(iIndex);
; 111  : 
; 112  : 		MsgSendV2(lpObj,(PBYTE)&pMsg,pMsg.h.size);

  001bc	0f b6 85 f1 fe
	ff ff		 movzx	 eax, BYTE PTR _pMsg$1[ebp+1]
  001c3	50		 push	 eax
  001c4	8d 85 f0 fe ff
	ff		 lea	 eax, DWORD PTR _pMsg$1[ebp]
  001ca	66 c7 85 f5 fe
	ff ff 00 00	 mov	 WORD PTR _pMsg$1[ebp+5], 0
  001d3	50		 push	 eax
  001d4	53		 push	 ebx
  001d5	c6 85 f8 fe ff
	ff 32		 mov	 BYTE PTR _pMsg$1[ebp+8], 50 ; 00000032H
  001dc	88 8d f9 fe ff
	ff		 mov	 BYTE PTR _pMsg$1[ebp+9], cl
  001e2	e8 00 00 00 00	 call	 ?MsgSendV2@@YAXPAUOBJECTSTRUCT@@PAEH@Z ; MsgSendV2
  001e7	83 c4 24	 add	 esp, 36			; 00000024H
$LN9@CannonTowe:

; 113  : 	}
; 114  : }

  001ea	8b 4d fc	 mov	 ecx, DWORD PTR __$ArrayPad$[ebp]
  001ed	33 cd		 xor	 ecx, ebp
  001ef	5b		 pop	 ebx
  001f0	e8 00 00 00 00	 call	 @__security_check_cookie@4
  001f5	8b e5		 mov	 esp, ebp
  001f7	5d		 pop	 ebp
  001f8	c2 04 00	 ret	 4
?CannonTowerAct@CCannonTower@@QAEXH@Z ENDP		; CCannonTower::CannonTowerAct
_TEXT	ENDS
; Function compile flags: /Ogtp
; File c:\users\michel\desktop\source\gameserver\source\cannontower.cpp
;	COMDAT ??1CCannonTower@@UAE@XZ
_TEXT	SEGMENT
??1CCannonTower@@UAE@XZ PROC				; CCannonTower::~CCannonTower, COMDAT
; _this$ = ecx

; 23   : {

  00000	c7 01 00 00 00
	00		 mov	 DWORD PTR [ecx], OFFSET ??_7CCannonTower@@6B@

; 24   : 
; 25   : }

  00006	c3		 ret	 0
??1CCannonTower@@UAE@XZ ENDP				; CCannonTower::~CCannonTower
_TEXT	ENDS
; Function compile flags: /Ogtp
; File c:\users\michel\desktop\source\gameserver\source\cannontower.cpp
;	COMDAT ??0CCannonTower@@QAE@XZ
_TEXT	SEGMENT
??0CCannonTower@@QAE@XZ PROC				; CCannonTower::CCannonTower, COMDAT
; _this$ = ecx

; 18   : {

  00000	c7 01 00 00 00
	00		 mov	 DWORD PTR [ecx], OFFSET ??_7CCannonTower@@6B@

; 19   : 
; 20   : }

  00006	8b c1		 mov	 eax, ecx
  00008	c3		 ret	 0
??0CCannonTower@@QAE@XZ ENDP				; CCannonTower::CCannonTower
_TEXT	ENDS
; Function compile flags: /Ogtp
; File c:\users\michel\desktop\source\gameserver\source\cannontower.cpp
;	COMDAT ?__empty_global_delete@@YAXPAXI@Z
_TEXT	SEGMENT
___formal$ = 8						; size = 4
___formal$ = 12						; size = 4
?__empty_global_delete@@YAXPAXI@Z PROC			; __empty_global_delete, COMDAT

; 118  : #endif

  00000	c3		 ret	 0
?__empty_global_delete@@YAXPAXI@Z ENDP			; __empty_global_delete
_TEXT	ENDS
; Function compile flags: /Ogtp
; File c:\users\michel\desktop\source\gameserver\source\cannontower.cpp
;	COMDAT ?__empty_global_delete@@YAXPAX@Z
_TEXT	SEGMENT
___formal$ = 8						; size = 4
?__empty_global_delete@@YAXPAX@Z PROC			; __empty_global_delete, COMDAT

; 118  : #endif

  00000	c3		 ret	 0
?__empty_global_delete@@YAXPAX@Z ENDP			; __empty_global_delete
_TEXT	ENDS
END
