; Listing generated by Microsoft (R) Optimizing Compiler Version 19.00.23506.0 

	TITLE	C:\Users\Michel\Desktop\Source\GameServer\Source\ChaosBox.cpp
	.686P
	.XMM
	include listing.inc
	.model	flat

INCLUDELIB LIBCMT
INCLUDELIB OLDNAMES

PUBLIC	??_H@YGXPAXIIP6EPAX0@Z@Z			; `vector constructor iterator'
PUBLIC	?__empty_global_delete@@YAXPAX@Z		; __empty_global_delete
PUBLIC	?__empty_global_delete@@YAXPAXI@Z		; __empty_global_delete
PUBLIC	??1OBJECTSTRUCT@@QAE@XZ				; OBJECTSTRUCT::~OBJECTSTRUCT
PUBLIC	??_EOBJECTSTRUCT@@QAEPAXI@Z			; OBJECTSTRUCT::`vector deleting destructor'
PUBLIC	??0CChaosBox@@QAE@XZ				; CChaosBox::CChaosBox
PUBLIC	??1CChaosBox@@UAE@XZ				; CChaosBox::~CChaosBox
PUBLIC	?ChaosBoxCheck@CChaosBox@@QAEHPAUOBJECTSTRUCT@@@Z ; CChaosBox::ChaosBoxCheck
PUBLIC	?ChaosBoxInit@CChaosBox@@QAEHPAUOBJECTSTRUCT@@@Z ; CChaosBox::ChaosBoxInit
PUBLIC	?ChaosBoxItemDown@CChaosBox@@QAEHPAUOBJECTSTRUCT@@@Z ; CChaosBox::ChaosBoxItemDown
PUBLIC	?ChaosBoxMix@CChaosBox@@QAEHPAUOBJECTSTRUCT@@AAH1@Z ; CChaosBox::ChaosBoxMix
PUBLIC	?CheckDevilSquareItem@CChaosBox@@QAEHPAUOBJECTSTRUCT@@AAH1@Z ; CChaosBox::CheckDevilSquareItem
PUBLIC	?LogDQChaosItem@CChaosBox@@QAEXPAUOBJECTSTRUCT@@@Z ; CChaosBox::LogDQChaosItem
PUBLIC	?DevilSquareEventChaosMix@CChaosBox@@QAEHPAUOBJECTSTRUCT@@HH@Z ; CChaosBox::DevilSquareEventChaosMix
PUBLIC	?LogPlusItemLevelChaosItem@CChaosBox@@QAEXPAUOBJECTSTRUCT@@H@Z ; CChaosBox::LogPlusItemLevelChaosItem
PUBLIC	?LogChaosItem@CChaosBox@@QAEXPAUOBJECTSTRUCT@@PAD@Z ; CChaosBox::LogChaosItem
PUBLIC	?PlusItemLevelChaosMix@CChaosBox@@QAEHPAUOBJECTSTRUCT@@H@Z ; CChaosBox::PlusItemLevelChaosMix
PUBLIC	?PegasiaChaosMix@CChaosBox@@QAEHPAUOBJECTSTRUCT@@@Z ; CChaosBox::PegasiaChaosMix
PUBLIC	?CircleChaosMix@CChaosBox@@QAEHPAUOBJECTSTRUCT@@@Z ; CChaosBox::CircleChaosMix
PUBLIC	?WingChaosMix@CChaosBox@@QAEHPAUOBJECTSTRUCT@@@Z ; CChaosBox::WingChaosMix
PUBLIC	?DefaultChaosMix@CChaosBox@@QAEXPAUOBJECTSTRUCT@@@Z ; CChaosBox::DefaultChaosMix
PUBLIC	?DevilSquareItemChaosMix@CChaosBox@@QAEXPAUOBJECTSTRUCT@@@Z ; CChaosBox::DevilSquareItemChaosMix
PUBLIC	?BloodCastleItemChaosMix@CChaosBox@@QAEXPAUOBJECTSTRUCT@@@Z ; CChaosBox::BloodCastleItemChaosMix
PUBLIC	?SetItemChaosMix@CChaosBox@@QAEXPAUOBJECTSTRUCT@@@Z ; CChaosBox::SetItemChaosMix
PUBLIC	?DarkHorseChaosMix@CChaosBox@@QAEXPAUOBJECTSTRUCT@@@Z ; CChaosBox::DarkHorseChaosMix
PUBLIC	?DarkSpiritChaosMix@CChaosBox@@QAEXPAUOBJECTSTRUCT@@@Z ; CChaosBox::DarkSpiritChaosMix
PUBLIC	?BlessPotionChaosMix@CChaosBox@@QAEXPAUOBJECTSTRUCT@@@Z ; CChaosBox::BlessPotionChaosMix
PUBLIC	?SoulPotionChaosMix@CChaosBox@@QAEXPAUOBJECTSTRUCT@@@Z ; CChaosBox::SoulPotionChaosMix
PUBLIC	?LifeStoneChaosMix@CChaosBox@@QAEXPAUOBJECTSTRUCT@@@Z ; CChaosBox::LifeStoneChaosMix
PUBLIC	?HiddenTreasureBoxItemMix@CChaosBox@@QAEXPAUOBJECTSTRUCT@@@Z ; CChaosBox::HiddenTreasureBoxItemMix
PUBLIC	?Fenrir_01Level_Mix@CChaosBox@@QAEXPAUOBJECTSTRUCT@@@Z ; CChaosBox::Fenrir_01Level_Mix
PUBLIC	?Fenrir_02Level_Mix@CChaosBox@@QAEXPAUOBJECTSTRUCT@@@Z ; CChaosBox::Fenrir_02Level_Mix
PUBLIC	?Fenrir_03Level_Mix@CChaosBox@@QAEXPAUOBJECTSTRUCT@@@Z ; CChaosBox::Fenrir_03Level_Mix
PUBLIC	?Fenrir_04Upgrade_Mix@CChaosBox@@QAEXPAUOBJECTSTRUCT@@@Z ; CChaosBox::Fenrir_04Upgrade_Mix
PUBLIC	?ShieldPotionLv1_Mix@CChaosBox@@QAEXPAUOBJECTSTRUCT@@@Z ; CChaosBox::ShieldPotionLv1_Mix
PUBLIC	?ShieldPotionLv2_Mix@CChaosBox@@QAEXPAUOBJECTSTRUCT@@@Z ; CChaosBox::ShieldPotionLv2_Mix
PUBLIC	?ShieldPotionLv3_Mix@CChaosBox@@QAEXPAUOBJECTSTRUCT@@@Z ; CChaosBox::ShieldPotionLv3_Mix
PUBLIC	?CondorFeather_Mix@CChaosBox@@QAEXPAUOBJECTSTRUCT@@@Z ; CChaosBox::CondorFeather_Mix
PUBLIC	?NewWingChaos_Mix@CChaosBox@@QAEXPAUOBJECTSTRUCT@@@Z ; CChaosBox::NewWingChaos_Mix
PUBLIC	?LotteryItemMix@CChaosBox@@QAEXPAUOBJECTSTRUCT@@@Z ; CChaosBox::LotteryItemMix
PUBLIC	?CherryBlossomMix@CChaosBox@@QAEXPAUOBJECTSTRUCT@@@Z ; CChaosBox::CherryBlossomMix
PUBLIC	?IllusionTemple_Mix@CChaosBox@@QAEXPAUOBJECTSTRUCT@@@Z ; CChaosBox::IllusionTemple_Mix
PUBLIC	?SeedExtractMix@CChaosBox@@QAEXPAUOBJECTSTRUCT@@@Z ; CChaosBox::SeedExtractMix
PUBLIC	?SeedSphereCompositeMix@CChaosBox@@QAEXPAUOBJECTSTRUCT@@@Z ; CChaosBox::SeedSphereCompositeMix
PUBLIC	?SetSeedSphereMix@CChaosBox@@QAEXPAUOBJECTSTRUCT@@E@Z ; CChaosBox::SetSeedSphereMix
PUBLIC	?RemoveSeedSphereMix@CChaosBox@@QAEXPAUOBJECTSTRUCT@@E@Z ; CChaosBox::RemoveSeedSphereMix
PUBLIC	?SecromiconMix@CChaosBox@@QAEXPAUOBJECTSTRUCT@@@Z ; CChaosBox::SecromiconMix
PUBLIC	?LuckySystemItemCreate@CChaosBox@@QAEXPAUOBJECTSTRUCT@@@Z ; CChaosBox::LuckySystemItemCreate
PUBLIC	?LuckySystemJewelCreate@CChaosBox@@QAEXPAUOBJECTSTRUCT@@@Z ; CChaosBox::LuckySystemJewelCreate
PUBLIC	?GoldenNSilverBoxMix@CChaosBox@@QAEXPAUOBJECTSTRUCT@@@Z ; CChaosBox::GoldenNSilverBoxMix
PUBLIC	?Wing25Mix@CChaosBox@@QAEXPAUOBJECTSTRUCT@@@Z	; CChaosBox::Wing25Mix
PUBLIC	?SocketItemMix@CChaosBox@@QAEXPAUOBJECTSTRUCT@@H@Z ; CChaosBox::SocketItemMix
PUBLIC	?IsPlusItemJewel@CChaosBox@@QAEHH@Z		; CChaosBox::IsPlusItemJewel
PUBLIC	?ChaosBoxSpecialItemDown@CChaosBox@@QAEXPAUOBJECTSTRUCT@@@Z ; CChaosBox::ChaosBoxSpecialItemDown
PUBLIC	?IsCondorItem@CChaosBox@@QAEHH@Z		; CChaosBox::IsCondorItem
PUBLIC	?Is1stLevelWing@CChaosBox@@QAEHH@Z		; CChaosBox::Is1stLevelWing
PUBLIC	?Is2ndLevelWing@CChaosBox@@QAEHH@Z		; CChaosBox::Is2ndLevelWing
PUBLIC	?CheckItemOptions@CChaosBox@@QAEHPAVCItem@@FEEEEE@Z ; CChaosBox::CheckItemOptions
PUBLIC	?ChaosBoxWingMixItemDown@CChaosBox@@QAEXPAUOBJECTSTRUCT@@@Z ; CChaosBox::ChaosBoxWingMixItemDown
PUBLIC	?RandomLevelDown@CChaosBox@@QAEXPAVCItem@@@Z	; CChaosBox::RandomLevelDown
PUBLIC	?CastleSpecialItemMix@CChaosBox@@QAEXPAUOBJECTSTRUCT@@@Z ; CChaosBox::CastleSpecialItemMix
PUBLIC	??_GCChaosBox@@UAEPAXI@Z			; CChaosBox::`scalar deleting destructor'
PUBLIC	??_7CChaosBox@@6B@				; CChaosBox::`vftable'
PUBLIC	?g_ChaosBox@@3VCChaosBox@@A			; g_ChaosBox
PUBLIC	??_C@_0FA@FKHLLHEC@?$FL?$CFs?$FN?$FL?$CFs?$FN?5CBMix?5?$FL?$CFd?0?$CFs?0?$CFd?0?$CFd?0?$CFd?0?$CF@ ; `string'
PUBLIC	??_C@_0DO@PLIHJFD@?$FL?$CFs?$FN?$FL?$CFs?$FN?5CBMix?5need?5Zen?5?3?5?$CFd?5Suc@ ; `string'
PUBLIC	??_C@_0DK@EKDAKNF@?$FLMixSystem?$FN?5WingCharmItemNum?5?$DN?$DO?5@ ; `string'
PUBLIC	??_C@_0CF@NPEOFJKC@?$FL?$CFs?$FN?$FL?$CFs?$FN?5CBMix?5Fail?5?$CFd?5Money?5?3?5?$CF@ ; `string'
PUBLIC	??_C@_0CK@IKEPLJDI@?$FL?$CFs?$FN?$FL?$CFs?$FN?5CBMix?5Success?5Rate?3?$CFd?5M@ ; `string'
PUBLIC	??_C@_0HL@GCCPEJBG@?$FLDevilSquare?0?$CFd?$FN?5?$FL?$CFs?$FN?$FL?$CFs?$FN?5CBMix?5@ ; `string'
PUBLIC	??_C@_0CF@MGDMILOL@?$FLDevilSquare?$FN?5Search?5DevilSquare@ ; `string'
PUBLIC	??_C@_0CC@LINAPAPC@?$FLDevilSquare?$FN?5Other?5DQItems?5Foun@ ; `string'
PUBLIC	??_C@_0CG@FFFDDFEO@?$FLDevilSquare?$FN?5DiffLevel?5DQItems?5@ ; `string'
PUBLIC	??_C@_0CH@EJJKJEAB@?$FLDevilSquare?$FN?5Charm?5Of?5Luck?5Coun@ ; `string'
PUBLIC	??_C@_0CA@IANBADIL@?$FLDevilSquare?$FN?5DQItems?5Not?5Found?$AA@ ; `string'
PUBLIC	??_C@_0BO@MDACFBLC@?$FLDevilSquare?$FN?5Chaos?5Mix?5Start?$AA@ ; `string'
PUBLIC	??_C@_0DB@BMAIOAHL@?$FLDevilSquare?$FN?5?$FL?$CFs?$FN?$FL?$CFs?$FN?5Invalid?5D@ ; `string'
PUBLIC	??_C@_0EB@HHHNMGIM@?$FLDevilSquare?$FN?5?$FL?$CFs?$FN?$FL?$CFs?$FN?5CBMix?5Not@ ; `string'
PUBLIC	??_C@_0DG@KKBIIBFP@?$FLDevilSquare?0?$CFd?$FN?5?$FL?$CFs?$FN?$FL?$CFs?$FN?5CBMix?5@ ; `string'
PUBLIC	??_C@_0DL@ODHCGDBD@?$FLDevilSquare?0?$CFd?$FN?5?$FL?$CFs?$FN?$FL?$CFs?$FN?5CBMix?5@ ; `string'
PUBLIC	??_C@_0DB@DMIHKADD@?$FLDevilSquare?$FN?5DiffLevel?5Devil?8s?5@ ; `string'
PUBLIC	??_C@_0CH@NMBMOEEC@?$FLDevilSquare?$FN?5Not?5Found?5Chaos?5Ge@ ; `string'
PUBLIC	??_C@_0CK@JNMMBAIA@?$FLDevilSquare?$FN?5Charm?5Of?5Luck?5Over@ ; `string'
PUBLIC	??_C@_0DA@FMJGNMLI@?$FLDevilSquare?$FN?5Too?5many?5Devil?8s?5K@ ; `string'
PUBLIC	??_C@_0HO@DGIBLBAF@?$FLPlusItemLevel?0?$CFd?$FN?5?$FL?$CFs?$FN?$FL?$CFs?$FN?5CBMi@ ; `string'
PUBLIC	??_C@_0IF@FONACAKJ@?$FL?$CFs?$FN?5?$FL?$CFs?$FN?$FL?$CFs?$FN?5CBMix?5?$FL?$CFd?0?$CFs?0?$CFd?0?$CFd@ ; `string'
PUBLIC	??_C@_0DL@KGOODEAG@?$FLPlusItemLevel?$FN?5?$FL?$CFs?$FN?$FL?$CFs?$FN?5CBMix?5C@ ; `string'
PUBLIC	??_C@_0CA@BGIGBHFB@?$FLPlusItemLevel?$FN?5Chaos?5Mix?5Start?$AA@ ; `string'
PUBLIC	??_C@_0ED@HJNGDDFB@?$FLPlusItemLevel?$FN?5?$FL?$CFs?$FN?$FL?$CFs?$FN?5CBMix?5N@ ; `string'
PUBLIC	??_C@_0EN@NDGFLPHI@?$FLPlusItemLevel?$FN?5?$FL?$CFs?$FN?$FL?$CFs?$FN?5CBMix?5S@ ; `string'
PUBLIC	??_C@_0EK@JJBHLEGP@?$FLPlusItemLevel?$FN?5?$FL?$CFs?$FN?$FL?$CFs?$FN?5CBMix?5F@ ; `string'
PUBLIC	??_C@_0M@OEKEBNDM@DinorantMix?$AA@		; `string'
PUBLIC	??_C@_0BO@BKFHPCAO@?$FLDinorantMix?$FN?5Chaos?5Mix?5Start?$AA@ ; `string'
PUBLIC	??_C@_0EG@BMPMHKIC@?$FLDinorantMix?$FN?5?$FL?$CFs?$FN?$FL?$CFs?$FN?5CBMix?5Suc@ ; `string'
PUBLIC	??_C@_0ED@JKKAJEKA@?$FLDinorantMix?$FN?5?$FL?$CFs?$FN?$FL?$CFs?$FN?5CBMix?5Fai@ ; `string'
PUBLIC	??_C@_09CKGJGION@CircleMix?$AA@			; `string'
PUBLIC	??_C@_0BM@EFIHICLO@?$FLCircleMix?$FN?5Chaos?5Mix?5Start?$AA@ ; `string'
PUBLIC	??_C@_0EE@PAFLGDEL@?$FLCircleMix?$FN?5?$FL?$CFs?$FN?$FL?$CFs?$FN?5CBMix?5Succe@ ; `string'
PUBLIC	??_C@_0EB@FKBAIBLL@?$FLCircleMix?$FN?5?$FL?$CFs?$FN?$FL?$CFs?$FN?5CBMix?5Fail?5@ ; `string'
PUBLIC	??_C@_09GJEFJCKN@WingMix?02?$AA@		; `string'
PUBLIC	??_C@_0BM@JPABEGNL@?$FLWingMix?02?$FN?5Chaos?5Mix?5Start?$AA@ ; `string'
PUBLIC	??_C@_0EI@LFGBMPMJ@?$FLMixSystem?$FN?$FLWingChaosMix?$FN?5WingCh@ ; `string'
PUBLIC	??_C@_0EE@BHIPJGFK@?$FLWingMix?02?$FN?5?$FL?$CFs?$FN?$FL?$CFs?$FN?5CBMix?5Succe@ ; `string'
PUBLIC	??_C@_0EB@GCGNBAFG@?$FLWingMix?02?$FN?5?$FL?$CFs?$FN?$FL?$CFs?$FN?5CBMix?5Fail?5@ ; `string'
PUBLIC	??_C@_0L@DBFFCLIB@SetItemMix?$AA@		; `string'
PUBLIC	??_C@_0BN@JHMGADIL@?$FLSetItemMix?$FN?5Chaos?5Mix?5Start?$AA@ ; `string'
PUBLIC	??_C@_0EC@BFAACIGE@?$FLSetItemMix?$FN?5?$FL?$CFs?$FN?$FL?$CFs?$FN?5CBMix?5Succ@ ; `string'
PUBLIC	??_C@_0DC@ILPOEBCF@?$FLSetItemMix?$FN?5?$FL?$CFs?$FN?$FL?$CFs?$FN?5CBMix?5Fail@ ; `string'
PUBLIC	??_C@_0N@LDINKAHL@DarkHorseMix?$AA@		; `string'
PUBLIC	??_C@_0BP@IMILBLLO@?$FLDarkHorseMix?$FN?5Chaos?5Mix?5Start?$AA@ ; `string'
PUBLIC	??_C@_0EH@JGHMMOON@?$FLDarkHorseMix?$FN?5?$FL?$CFs?$FN?$FL?$CFs?$FN?5CBMix?5Su@ ; `string'
PUBLIC	??_C@_0EE@MAGJAMAN@?$FLDarkHorseMix?$FN?5?$FL?$CFs?$FN?$FL?$CFs?$FN?5CBMix?5Fa@ ; `string'
PUBLIC	??_C@_0O@OCFEOMDO@DarkSpiritMix?$AA@		; `string'
PUBLIC	??_C@_0CA@HOBPNGGO@?$FLDarkSpiritMix?$FN?5Chaos?5Mix?5Start?$AA@ ; `string'
PUBLIC	??_C@_0EI@DIJHKIBN@?$FLDarkSpiritMix?$FN?5?$FL?$CFs?$FN?$FL?$CFs?$FN?5CBMix?5S@ ; `string'
PUBLIC	??_C@_0EF@ENJLGEHL@?$FLDarkSpiritMix?$FN?5?$FL?$CFs?$FN?$FL?$CFs?$FN?5CBMix?5F@ ; `string'
PUBLIC	??_C@_0P@NBHFIPDI@BlessPotionMix?$AA@		; `string'
PUBLIC	??_C@_0CB@EBJOJCKF@?$FLBlessPotionMix?$FN?5Chaos?5Mix?5Start@ ; `string'
PUBLIC	??_C@_0DJ@CHGCMDK@?$FLBlessPotionMix?$FN?5?$FL?$CFs?$FN?$FL?$CFs?$FN?5CBMix?5@ ; `string'
PUBLIC	??_C@_0DG@ECHLAENJ@?$FLBlessPotionMix?$FN?5?$FL?$CFs?$FN?$FL?$CFs?$FN?5CBMix?5@ ; `string'
PUBLIC	??_C@_0O@KAEODMHN@SoulPotionMix?$AA@		; `string'
PUBLIC	??_C@_0CA@GHNNBMIL@?$FLSoulPotionMix?$FN?5Chaos?5Mix?5Start?$AA@ ; `string'
PUBLIC	??_C@_0DI@OKLEBBAL@?$FLSoulPotionMix?$FN?5?$FL?$CFs?$FN?$FL?$CFs?$FN?5CBMix?5S@ ; `string'
PUBLIC	??_C@_0DF@MJBBEIMO@?$FLSoulPotionMix?$FN?5?$FL?$CFs?$FN?$FL?$CFs?$FN?5CBMix?5F@ ; `string'
PUBLIC	??_C@_0N@FJGBJPII@LifeStoneMix?$AA@		; `string'
PUBLIC	??_C@_0BP@OKAOMBJE@?$FLLifeStoneMix?$FN?5Chaos?5Mix?5Start?$AA@ ; `string'
PUBLIC	??_C@_0DH@GNDOFGHL@?$FLLifeStoneMix?$FN?5?$FL?$CFs?$FN?$FL?$CFs?$FN?5CBMix?5Su@ ; `string'
PUBLIC	??_C@_0DE@PMLDDIAP@?$FLLifeStoneMix?$FN?5?$FL?$CFs?$FN?$FL?$CFs?$FN?5CBMix?5Fa@ ; `string'
PUBLIC	??_C@_0DE@OHGHLCDC@?$FLHidden?5TreasureBox?5Event?$FN?5?$FL?$CFs?$FN?$FL@ ; `string'
PUBLIC	??_C@_0BH@FJMEBBCF@Hidden?5TreasureBox?5Mix?$AA@ ; `string'
PUBLIC	??_C@_0DE@FILNLJPO@?$FLHidden?5TreasureBox?5Event?$FN?5?$FL?$CFs?$FN?$FL@ ; `string'
PUBLIC	??_C@_0FB@PDPGCOFM@?$FLHidden?5TreasureBox?5Event?$FN?5?$FL?$CFs?$FN?$FL@ ; `string'
PUBLIC	??_C@_0DN@CFIDABAI@?$FLHidden?5TreasureBox?5Event?$FN?5?$FL?$CFs?$FN?$FL@ ; `string'
PUBLIC	??_C@_0DH@JBMEKCLH@?$FLHidden?5TreasureBox?5Event?$FN?5?$FL?$CFs?$FN?$FL@ ; `string'
PUBLIC	??_C@_0BD@FNEHOIBM@Fenrir_01Level_Mix?$AA@	; `string'
PUBLIC	??_C@_0CH@FLCJIMPD@?$FLFenrir?5Mix?$FN?$FLLevel?501?$FN?5Chaos?5Mix@ ; `string'
PUBLIC	??_C@_0EP@MODCEFAF@?$FLFenrir?5Mix?$FN?$FLLevel?501?$FN?5?$FL?$CFs?$FN?$FL?$CFs?$FN?5@ ; `string'
PUBLIC	??_C@_0EM@IAKFEJP@?$FLFenrir?5Mix?$FN?$FLLevel?501?$FN?5?$FL?$CFs?$FN?$FL?$CFs?$FN?5@ ; `string'
PUBLIC	??_C@_0BD@MEKFIOBN@Fenrir_02Level_Mix?$AA@	; `string'
PUBLIC	??_C@_0CH@PIHPAKFK@?$FLFenrir?5Mix?$FN?$FLLevel?502?$FN?5Chaos?5Mix@ ; `string'
PUBLIC	??_C@_0EP@HFOGELBG@?$FLFenrir?5Mix?$FN?$FLLevel?502?$FN?5?$FL?$CFs?$FN?$FL?$CFs?$FN?5@ ; `string'
PUBLIC	??_C@_0EM@COLFGAOG@?$FLFenrir?5Mix?$FN?$FLLevel?502?$FN?5?$FL?$CFs?$FN?$FL?$CFs?$FN?5@ ; `string'
PUBLIC	??_C@_0BD@FCLFBNN@Fenrir_03Level_Mix?$AA@	; `string'
PUBLIC	??_C@_0CH@CPJNIKAC@?$FLFenrir?5Mix?$FN?$FLLevel?503?$FN?5Chaos?5Mix@ ; `string'
PUBLIC	??_C@_0EP@BMKKEOOH@?$FLFenrir?5Mix?$FN?$FLLevel?503?$FN?5?$FL?$CFs?$FN?$FL?$CFs?$FN?5@ ; `string'
PUBLIC	??_C@_0EM@DDCAHDDB@?$FLFenrir?5Mix?$FN?$FLLevel?503?$FN?5?$FL?$CFs?$FN?$FL?$CFs?$FN?5@ ; `string'
PUBLIC	??_C@_0BD@CMBAEEFO@Fenrir_04Level_Mix?$AA@	; `string'
PUBLIC	??_C@_0CH@GFKDABEJ@?$FLFenrir?5Mix?$FN?$FLLevel?504?$FN?5Chaos?5Mix@ ; `string'
PUBLIC	??_C@_0EP@NJDPFBHB@?$FLFenrir?5Mix?$FN?$FLLevel?504?$FN?5?$FL?$CFs?$FN?$FL?$CFs?$FN?5@ ; `string'
PUBLIC	??_C@_0EM@GDMLAIBE@?$FLFenrir?5Mix?$FN?$FLLevel?504?$FN?5?$FL?$CFs?$FN?$FL?$CFs?$FN?5@ ; `string'
PUBLIC	??_C@_0CA@MBDGDKKM@PotionMix?$FN?$FLShieldPotion?5Lv1?5Mix?$AA@ ; `string'
PUBLIC	??_C@_0CO@IFFECFCD@?$FLPotionMix?$FN?$FLShieldPotion?5Lv1?5Mix@ ; `string'
PUBLIC	??_C@_0FI@CLIKDBCN@?$FLChaosMix?$FN?$FLShield?5Potion?$FN?5Lv1?5Po@ ; `string'
PUBLIC	??_C@_0FO@MOBDMAKD@?$FLChaosMix?$FN?$FLShield?5Potion?$FN?5Lv1?5Po@ ; `string'
PUBLIC	??_C@_0CA@EHKCEIAC@PotionMix?$FN?$FLShieldPotion?5Lv2?5Mix?$AA@ ; `string'
PUBLIC	??_C@_0CO@CGACKDIK@?$FLPotionMix?$FN?$FLShieldPotion?5Lv2?5Mix@ ; `string'
PUBLIC	??_C@_0FI@KPIPKEPN@?$FLChaosMix?$FN?$FLShield?5Potion?$FN?5Lv2?5Po@ ; `string'
PUBLIC	??_C@_0FO@BECJDHIC@?$FLChaosMix?$FN?$FLShield?5Potion?$FN?5Lv2?5Po@ ; `string'
PUBLIC	??_C@_0CA@IMPOJLKH@PotionMix?$FN?$FLShieldPotion?5Lv3?5Mix?$AA@ ; `string'
PUBLIC	??_C@_0CO@PBOACDNC@?$FLPotionMix?$FN?$FLShieldPotion?5Lv3?5Mix@ ; `string'
PUBLIC	??_C@_0FI@GFFMCKHC@?$FLChaosMix?$FN?$FLShield?5Potion?$FN?5Lv3?5Po@ ; `string'
PUBLIC	??_C@_0FO@FNMAJKJN@?$FLChaosMix?$FN?$FLShield?5Potion?$FN?5Lv3?5Po@ ; `string'
PUBLIC	??_C@_0DG@INONCDCO@?$FLCastleSpecialMix?$FN?5?$FL?$CFs?$FN?$FL?$CFs?$FN?5Item@ ; `string'
PUBLIC	??_C@_0ED@INAPNAEI@?$FLCastleSpecialMix?$FN?5?$FL?$CFs?$FN?$FL?$CFs?$FN?5Item@ ; `string'
PUBLIC	??_C@_0FP@MMBGDNIO@?$FLCastleSpecialMix?$FN?5?$FL?$CFs?$FN?$FL?$CFs?$FN?5Item@ ; `string'
PUBLIC	??_C@_0BD@DBGJDJHA@Castle?5Special?5Mix?$AA@	; `string'
PUBLIC	??_C@_0CM@BFLNDPMH@?$FLCastleSpecialMix?$FN?5?$FL?$CFs?$FN?$FL?$CFs?$FN?5Chao@ ; `string'
PUBLIC	??_C@_0EE@GIAICFLK@?$FLCastleSpecialMix?$FN?5?$FL?$CFs?$FN?$FL?$CFs?$FN?5Item@ ; `string'
PUBLIC	??_C@_0DL@JMGPLGGO@?$FLCastleSpecialMix?$FN?5?$FL?$CFs?$FN?$FL?$CFs?$FN?5CBMi@ ; `string'
PUBLIC	??_C@_0DI@EGPAKGJE@?$FLCastleSpecialMix?$FN?5?$FL?$CFs?$FN?$FL?$CFs?$FN?5CBMi@ ; `string'
PUBLIC	??_C@_0BE@NEOLPNCO@ThirdWingLevel1_Mix?$AA@	; `string'
PUBLIC	??_C@_0CK@EPOMFGLB@?$FLThirdWing?5Mix?$FN?$FLLevel?501?$FN?5Chaos?5@ ; `string'
PUBLIC	??_C@_0FC@NNBKAMKF@?$FLThirdWing?5Mix?$FN?$FLLevel?501?$FN?5?$FL?$CFs?$FN?$FL?$CF@ ; `string'
PUBLIC	??_C@_0EP@LDCANMLN@?$FLThirdWing?5Mix?$FN?$FLLevel?501?$FN?5?$FL?$CFs?$FN?$FL?$CF@ ; `string'
PUBLIC	??_C@_0BE@FCHPIPIA@ThirdWingLevel2_Mix?$AA@	; `string'
PUBLIC	??_C@_0CK@OMLKNABI@?$FLThirdWing?5Mix?$FN?$FLLevel?502?$FN?5Chaos?5@ ; `string'
PUBLIC	??_C@_0FC@GGMOACLG@?$FLThirdWing?5Mix?$FN?$FLLevel?502?$FN?5?$FL?$CFs?$FN?$FL?$CF@ ; `string'
PUBLIC	??_C@_0EP@JFJPOIME@?$FLThirdWing?5Mix?$FN?$FLLevel?502?$FN?5?$FL?$CFs?$FN?$FL?$CF@ ; `string'
PUBLIC	??_C@_0M@JCBFJDIJ@CashLottery?$AA@		; `string'
PUBLIC	??_C@_09KIGHELLC@ChaosCard?$AA@			; `string'
PUBLIC	??_C@_0O@PAMPMNGB@ChaosCardGold?$AA@		; `string'
PUBLIC	??_C@_0O@LHLDBNJL@ChaosCardRare?$AA@		; `string'
PUBLIC	??_C@_0O@CJDOCADP@ChaosCardMini?$AA@		; `string'
PUBLIC	??_C@_0EO@BNKLGMLJ@?$FLChaosMix?$FN?$FLLotteryItemMix?$FN?5Lotte@ ; `string'
PUBLIC	??_C@_0DO@IIKCCCHD@?$FLChaosMix?$FN?$FLChaosCardMix?$FN?5Chaos?5C@ ; `string'
PUBLIC	??_C@_0IK@DOPMBJCB@?$FLCashShop?$FN?$FLChaosCardMix?$FN?5?9?5User?$CI@ ; `string'
PUBLIC	??_C@_0DA@LOGFDBNL@?$FL?$CFs?$FN?$FL?$CFs?$FN?5CherryBlossomMix?5Fail?5?$CF@ ; `string'
PUBLIC	??_C@_0FP@NDMOHONO@?$FLChaosMix?$FN?$FLIllusion?5Temple?$FN?5Illu@ ; `string'
PUBLIC	??_C@_0GB@PMDDOCCB@?$FLChaosMix?$FN?$FLIllusion?5Temple?$FN?5Illu@ ; `string'
PUBLIC	??_C@_0M@PHAOGDNK@SeedExtract?$AA@		; `string'
PUBLIC	??_C@_0CC@FJMAMNGP@?$FL?$CFs?$FN?$FL?$CFs?$FN?5Seed?5Extract?5Mix?5Failed@ ; `string'
PUBLIC	??_C@_0GC@HFAHDNLD@?$FL?$CFs?$FN?$FL?$CFs?$FN?5Seed?5Extract?5Mix?5Succes@ ; `string'
PUBLIC	??_C@_0DE@JCNMJOBM@?$FL?$CFs?$FN?$FL?$CFs?$FN?5Seed?5Extract?5Mix?5Failed@ ; `string'
PUBLIC	??_C@_0BE@GFFNMAOC@SeedSphereComposite?$AA@	; `string'
PUBLIC	??_C@_0CK@CENILOLB@?$FL?$CFs?$FN?$FL?$CFs?$FN?5SeedSphere?5Composite?5Mi@ ; `string'
PUBLIC	??_C@_0HB@BGNJLNEH@?$FL?$CFs?$FN?$FL?$CFs?$FN?5SeedSphere?5Composite?5Mi@ ; `string'
PUBLIC	??_C@_0ED@CPANCMOB@?$FL?$CFs?$FN?$FL?$CFs?$FN?5SeedSphere?5Composite?5Mi@ ; `string'
PUBLIC	??_C@_0O@CGCDEDIJ@SetSeedSphere?$AA@		; `string'
PUBLIC	??_C@_0DC@BKFDMAJM@?$FL?$CFs?$FN?$FL?$CFs?$FN?5Set?5Seed?5Mix?5Failed?5?9?5S@ ; `string'
PUBLIC	??_C@_0DO@KKBOJPIF@?$FL?$CFs?$FN?$FL?$CFs?$FN?5Set?5Seed?5Mix?5Failed?5?9?5W@ ; `string'
PUBLIC	??_C@_0II@KCLKEHBN@?$FL?$CFs?$FN?$FL?$CFs?$FN?5Set?5SeedSphere?5Mix?5Succ@ ; `string'
PUBLIC	??_C@_0BB@CFKCJMNE@SeedSphereRemove?$AA@	; `string'
PUBLIC	??_C@_0IH@MCNGCFGC@?$FL?$CFs?$FN?$FL?$CFs?$FN?5SeedSphere?5Remove?5Succe@ ; `string'
PUBLIC	??_C@_0L@FKBLGOD@Secromicon?$AA@		; `string'
PUBLIC	??_C@_0BN@PDFCNBKK@?$FLSecromicon?$FN?5Chaos?5Mix?5Start?$AA@ ; `string'
PUBLIC	??_C@_0DI@FEKMLFCO@?$FLSecromicon?5Mix?$FN?$FL?$CFs?$FN?$FL?$CFs?$FN?5CBMix?5S@ ; `string'
PUBLIC	??_C@_0DF@GJBOIKGG@?$FLSecromicon?5Mix?$FN?$FL?$CFs?$FN?$FL?$CFs?$FN?5CBMix?5F@ ; `string'
PUBLIC	??_C@_0M@JDLPAJDH@LuckySystem?$AA@		; `string'
PUBLIC	??_C@_0BO@IIPPLEDJ@?$FLLuckySystem?$FN?5Chaos?5Mix?5Start?$AA@ ; `string'
PUBLIC	??_C@_0DM@LHKABBDI@?$FLLuckySystem?$FN?$FLItemMix?$FN?5Chaos?5Car@ ; `string'
PUBLIC	??_C@_0HB@FMOBPLCD@?$FLLuckySystem?$FN?$FLItemMix?$FN?5?9?5User?$CIID@ ; `string'
PUBLIC	??_C@_0DJ@MAMOGFAN@?$FLLuckySystem?$FN?$FLJewelOfExtension?$FN?$FL@ ; `string'
PUBLIC	??_C@_0DG@LBFHIFGE@?$FLLuckySystem?$FN?$FLJewelOfExtension?$FN?$FL@ ; `string'
PUBLIC	??_C@_0O@DEOFBGCG@SocketItemMix?$AA@		; `string'
PUBLIC	??_C@_0CA@JPBHABAH@?$FLSocketItemMix?$FN?5Chaos?5Mix?5Start?$AA@ ; `string'
PUBLIC	??_C@_0FC@BOLCPPFJ@?$FLSocketItemMix?$FN?$FLLevel?502?$FN?5?$FL?$CFs?$FN?$FL?$CF@ ; `string'
PUBLIC	??_C@_0EF@KKFOLCFG@?$FLSocketItemMix?$FN?5?$FL?$CFs?$FN?$FL?$CFs?$FN?5CBMix?5F@ ; `string'
PUBLIC	??_C@_0M@OFDFPMHD@25WingLevel?$AA@		; `string'
PUBLIC	??_C@_0BN@FNIHKHMB@?$FL25Wing?5Mix?$FN?5Chaos?5Mix?5Start?$AA@ ; `string'
PUBLIC	??_C@_0EF@KFBIJMHJ@?$FL25Wing?5Mix?$FN?5?$FL?$CFs?$FN?$FL?$CFs?$FN?5CBMix?5Succ@ ; `string'
PUBLIC	??_C@_0EC@CJEGAMMB@?$FL25Wing?5Mix?$FN?5?$FL?$CFs?$FN?$FL?$CFs?$FN?5CBMix?5Fail@ ; `string'
PUBLIC	??_R4CChaosBox@@6B@				; CChaosBox::`RTTI Complete Object Locator'
PUBLIC	??_R0?AVCChaosBox@@@8				; CChaosBox `RTTI Type Descriptor'
PUBLIC	??_R3CChaosBox@@8				; CChaosBox::`RTTI Class Hierarchy Descriptor'
PUBLIC	??_R2CChaosBox@@8				; CChaosBox::`RTTI Base Class Array'
PUBLIC	??_R1A@?0A@EA@CChaosBox@@8			; CChaosBox::`RTTI Base Class Descriptor at (0,-1,0,64)'
PUBLIC	__real@437f0000
PUBLIC	__xmm@ffffffffffffffffffffffffffffffff
EXTRN	??_M@YGXPAXIIP6EX0@Z@Z:PROC			; `eh vector destructor iterator'
EXTRN	??3@YAXPAXI@Z:PROC				; operator delete
EXTRN	??_U@YAPAXI@Z:PROC				; operator new[]
EXTRN	??_V@YAXPAXI@Z:PROC				; operator delete[]
EXTRN	_atexit:PROC
EXTRN	_rand:PROC
EXTRN	?Get@Message@@QAEPADH@Z:PROC			; Message::Get
EXTRN	??0CItem@@QAE@XZ:PROC				; CItem::CItem
EXTRN	?Convert@CItem@@QAEXHEEEEEEPAEEE@Z:PROC		; CItem::Convert
EXTRN	?OldValue@CItem@@QAEXXZ:PROC			; CItem::OldValue
EXTRN	?Clear@CItem@@QAEXXZ:PROC			; CItem::Clear
EXTRN	?IsItem@CItem@@QAEHXZ:PROC			; CItem::IsItem
EXTRN	?IsSetItem@CItem@@QAEHXZ:PROC			; CItem::IsSetItem
EXTRN	?GetName@CItem@@QAEPADXZ:PROC			; CItem::GetName
EXTRN	?IsExtItem@CItem@@QAEHXZ:PROC			; CItem::IsExtItem
EXTRN	?ItemByteConvert@@YAXPAEVCItem@@@Z:PROC		; ItemByteConvert
EXTRN	?ItemGetDurability@@YAHHHHH@Z:PROC		; ItemGetDurability
EXTRN	??1CSkillDelay@@UAE@XZ:PROC			; CSkillDelay::~CSkillDelay
EXTRN	?DataSend@@YAHHPAEK@Z:PROC			; DataSend
EXTRN	??1TMonsterAIAgro@@UAE@XZ:PROC			; TMonsterAIAgro::~TMonsterAIAgro
EXTRN	?GetItemStrengthenOption@CJewelOfHarmonySystem@@QAEEPAVCItem@@@Z:PROC ; CJewelOfHarmonySystem::GetItemStrengthenOption
EXTRN	?GetItemOptionLevel@CJewelOfHarmonySystem@@QAEEPAVCItem@@@Z:PROC ; CJewelOfHarmonySystem::GetItemOptionLevel
EXTRN	?Is380Item@CItemSystemFor380@@QAEHPBVCItem@@@Z:PROC ; CItemSystemFor380::Is380Item
EXTRN	??0_SOCKET_SPHERE_OPTION@@QAE@XZ:PROC		; _SOCKET_SPHERE_OPTION::_SOCKET_SPHERE_OPTION
EXTRN	??1_SOCKET_SPHERE_OPTION@@QAE@XZ:PROC		; _SOCKET_SPHERE_OPTION::~_SOCKET_SPHERE_OPTION
EXTRN	?IsSocketItem@CSocketItems@@QAE_NH@Z:PROC	; CSocketItems::IsSocketItem
EXTRN	?GetItemOptions@CSocketItems@@QAEXPAVCItem@@PAE1@Z:PROC ; CSocketItems::GetItemOptions
EXTRN	?CheckSocketOption@CSocketItems@@QAE_NPAVCItem@@@Z:PROC ; CSocketItems::CheckSocketOption
EXTRN	?IsSeedItem@CSocketItems@@QAEEH@Z:PROC		; CSocketItems::IsSeedItem
EXTRN	?IsSphereItem@CSocketItems@@QAEEH@Z:PROC	; CSocketItems::IsSphereItem
EXTRN	?IsSeedSphereItem@CSocketItems@@QAEEH@Z:PROC	; CSocketItems::IsSeedSphereItem
EXTRN	?IsItemType@CSocketItems@@QAEEPAVCItem@@E@Z:PROC ; CSocketItems::IsItemType
EXTRN	?IsOptionSet@CSocketItems@@QAEEPAU_SOCKET_SPHERE_OPTION@@EE@Z:PROC ; CSocketItems::IsOptionSet
EXTRN	?GetSeedOption@CSocketItems@@QAEEHE@Z:PROC	; CSocketItems::GetSeedOption
EXTRN	?GetSphereLevel@CSocketItems@@QAEEH@Z:PROC	; CSocketItems::GetSphereLevel
EXTRN	?GetSphereOption@CSocketItems@@QAEEGE@Z:PROC	; CSocketItems::GetSphereOption
EXTRN	?GetSeedOption@CSocketItems@@QAEPAU_SOCKET_SEED_DATA@@E@Z:PROC ; CSocketItems::GetSeedOption
EXTRN	?GetOptionRate@CSocketItems@@QAEEXZ:PROC	; CSocketItems::GetOptionRate
EXTRN	?CheckMountItem@CSocketItems@@QAEEPAVCItem@@GE@Z:PROC ; CSocketItems::CheckMountItem
EXTRN	?ItemSetSeedSphere@CSocketItems@@QAEEPAVCItem@@EE@Z:PROC ; CSocketItems::ItemSetSeedSphere
EXTRN	?ItemRemoveSeedSphere@CSocketItems@@QAEEPAVCItem@@E@Z:PROC ; CSocketItems::ItemRemoveSeedSphere
EXTRN	?ItemIsBufExOption@@YAXPAEPAVCItem@@@Z:PROC	; ItemIsBufExOption
EXTRN	?gObjInventoryCommit@@YAHH@Z:PROC		; gObjInventoryCommit
EXTRN	?CheckInventoryEmptySpace@@YAHPAUOBJECTSTRUCT@@HH@Z:PROC ; CheckInventoryEmptySpace
EXTRN	?gObjChaosItemSet@@YAXHHE@Z:PROC		; gObjChaosItemSet
EXTRN	?gObjChaosBoxInsertItemPos@@YAEHVCItem@@HH@Z:PROC ; gObjChaosBoxInsertItemPos
EXTRN	?MsgOutput@@YAXHPADZZ:PROC			; MsgOutput
EXTRN	?GCMoneySend@@YAXHK@Z:PROC			; GCMoneySend
EXTRN	?GCUserChaosBoxSend@@YAXPAUOBJECTSTRUCT@@H@Z:PROC ; GCUserChaosBoxSend
EXTRN	??_ECChaosBox@@UAEPAXI@Z:PROC			; CChaosBox::`vector deleting destructor'
EXTRN	?PHeadSetB@@YAXPAEEH@Z:PROC			; PHeadSetB
EXTRN	?ItemSerialCreateSend@@YAXHEEEHEEEEEHEEEPAE@Z:PROC ; ItemSerialCreateSend
EXTRN	?PetItemSerialCreateSend@@YAXHEEEHEEEEEHEE@Z:PROC ; PetItemSerialCreateSend
EXTRN	?GetTaxRateChaos@CCastleSiegeSync@@QAEHH@Z:PROC	; CCastleSiegeSync::GetTaxRateChaos
EXTRN	?AddTributeMoney@CCastleSiegeSync@@QAEXH@Z:PROC	; CCastleSiegeSync::AddTributeMoney
EXTRN	?CheckChoasMixItem@CBloodCastle@@QAEHH@Z:PROC	; CBloodCastle::CheckChoasMixItem
EXTRN	?BloodCastleChaosMix@CBloodCastle@@QAE_NHH@Z:PROC ; CBloodCastle::BloodCastleChaosMix
EXTRN	?GetEventMap@CBloodCastle@@QAEHH@Z:PROC		; CBloodCastle::GetEventMap
EXTRN	?IsSetItem@CSetItemOption@@QAEHH@Z:PROC		; CSetItemOption::IsSetItem
EXTRN	?GetSetOptionName@CSetItemOption@@QAEPADHH@Z:PROC ; CSetItemOption::GetSetOptionName
EXTRN	?CheckMixContition@CSetItemOption@@QAEHHH@Z:PROC ; CSetItemOption::CheckMixContition
EXTRN	?MakeSetOption@CSetItemOption@@QAEHHH@Z:PROC	; CSetItemOption::MakeSetOption
EXTRN	?GenSetOption@CSetItemOption@@QAEHH@Z:PROC	; CSetItemOption::GenSetOption
EXTRN	?GetOccupationState@CCrywolfSync@@QAEHXZ:PROC	; CCrywolfSync::GetOccupationState
EXTRN	?GetPlusChaosRate@CCrywolfSync@@QAEHXZ:PROC	; CCrywolfSync::GetPlusChaosRate
EXTRN	?GetItem@CCashLottery@@QAEHPBDPAVCItem@@@Z:PROC	; CCashLottery::GetItem
EXTRN	?CheckCastleOwnerMember@CCastleSiege@@QAEHH@Z:PROC ; CCastleSiege::CheckCastleOwnerMember
EXTRN	?IsPentagram@CElementalSystem@@QAEHH@Z:PROC	; CElementalSystem::IsPentagram
EXTRN	?ClearErtel@CElementalSystem@@QAEXPAUOBJECTSTRUCT@@PAVCItem@@@Z:PROC ; CElementalSystem::ClearErtel
EXTRN	?OpenSpecial@EventItemBagManager@@QAEEEHHEE@Z:PROC ; EventItemBagManager::OpenSpecial
EXTRN	@__security_check_cookie@4:PROC
EXTRN	___CxxFrameHandler3:PROC
EXTRN	__alldiv:PROC
EXTRN	??_7type_info@@6B@:QWORD			; type_info::`vftable'
EXTRN	?lMsg@@3VMessage@@A:BYTE			; lMsg
EXTRN	?ItemAttribute@@3PAUITEM_ATTRIBUTE@@A:BYTE	; ItemAttribute
EXTRN	?LogAdd@@3P6AXPADZZA:DWORD			; LogAdd
EXTRN	?LogAddTD@@3P6AXPADZZA:DWORD			; LogAddTD
EXTRN	?g_kJewelOfHarmonySystem@@3VCJewelOfHarmonySystem@@A:BYTE ; g_kJewelOfHarmonySystem
EXTRN	?g_kItemSystemFor380@@3VCItemSystemFor380@@A:BYTE ; g_kItemSystemFor380
EXTRN	?g_SocketItem@@3VCSocketItems@@A:BYTE		; g_SocketItem
EXTRN	?g_SeedExtractMoney@@3HA:DWORD			; g_SeedExtractMoney
EXTRN	?g_SphereCompositeMoney@@3HA:DWORD		; g_SphereCompositeMoney
EXTRN	?g_SphereSetMoney@@3HA:DWORD			; g_SphereSetMoney
EXTRN	?g_SphereRemoveMoney@@3HA:DWORD			; g_SphereRemoveMoney
EXTRN	?g_iFenrir_01Level_MixRate@@3HA:DWORD		; g_iFenrir_01Level_MixRate
EXTRN	?g_iFenrir_02Level_MixRate@@3HA:DWORD		; g_iFenrir_02Level_MixRate
EXTRN	?g_iFenrir_03Level_MixRate@@3HA:DWORD		; g_iFenrir_03Level_MixRate
EXTRN	?g_iCrywolfApplyMvpBenefit@@3HA:DWORD		; g_iCrywolfApplyMvpBenefit
EXTRN	?g_ShieldSystemOn@@3HA:DWORD			; g_ShieldSystemOn
EXTRN	?g_iShieldPotionLv1MixSuccessRate@@3HA:DWORD	; g_iShieldPotionLv1MixSuccessRate
EXTRN	?g_iShieldPotionLv1MixMoney@@3HA:DWORD		; g_iShieldPotionLv1MixMoney
EXTRN	?g_iShieldPotionLv2MixSuccessRate@@3HA:DWORD	; g_iShieldPotionLv2MixSuccessRate
EXTRN	?g_iShieldPotionLv2MixMoney@@3HA:DWORD		; g_iShieldPotionLv2MixMoney
EXTRN	?g_iShieldPotionLv3MixSuccessRate@@3HA:DWORD	; g_iShieldPotionLv3MixSuccessRate
EXTRN	?g_iShieldPotionLv3MixMoney@@3HA:DWORD		; g_iShieldPotionLv3MixMoney
EXTRN	?gDQChaosSuccessRateLevel1@@3HA:DWORD		; gDQChaosSuccessRateLevel1
EXTRN	?gDQChaosSuccessRateLevel2@@3HA:DWORD		; gDQChaosSuccessRateLevel2
EXTRN	?gDQChaosSuccessRateLevel3@@3HA:DWORD		; gDQChaosSuccessRateLevel3
EXTRN	?gDQChaosSuccessRateLevel4@@3HA:DWORD		; gDQChaosSuccessRateLevel4
EXTRN	?gDQChaosSuccessRateLevel5@@3HA:DWORD		; gDQChaosSuccessRateLevel5
EXTRN	?gDQChaosSuccessRateLevel6@@3HA:DWORD		; gDQChaosSuccessRateLevel6
EXTRN	?gDQChaosSuccessRateLevel7@@3HA:DWORD		; gDQChaosSuccessRateLevel7
EXTRN	?gc_ChaosMixPlusItemLevel_1_1@@3HA:DWORD	; gc_ChaosMixPlusItemLevel_1_1
EXTRN	?gc_ChaosMixPlusItemLevel_2_1@@3HA:DWORD	; gc_ChaosMixPlusItemLevel_2_1
EXTRN	?gc_ChaosMixPlusItemLevel_3_1@@3HA:DWORD	; gc_ChaosMixPlusItemLevel_3_1
EXTRN	?gc_ChaosMixPlusItemLevel_1_2@@3HA:DWORD	; gc_ChaosMixPlusItemLevel_1_2
EXTRN	?gc_ChaosMixPlusItemLevel_2_2@@3HA:DWORD	; gc_ChaosMixPlusItemLevel_2_2
EXTRN	?gc_ChaosMixPlusItemLevel_3_2@@3HA:DWORD	; gc_ChaosMixPlusItemLevel_3_2
EXTRN	?gc_ChaosMixPlusItemLevel_1_3@@3HA:DWORD	; gc_ChaosMixPlusItemLevel_1_3
EXTRN	?gc_ChaosMixPlusItemLevel_2_3@@3HA:DWORD	; gc_ChaosMixPlusItemLevel_2_3
EXTRN	?gc_ChaosMixPlusItemLevel_3_3@@3HA:DWORD	; gc_ChaosMixPlusItemLevel_3_3
EXTRN	?gc_ChaosMixPlusItemLevel_Luck@@3HA:DWORD	; gc_ChaosMixPlusItemLevel_Luck
EXTRN	?gc_ChaosMixPlusItemLevel_Max@@3HA:DWORD	; gc_ChaosMixPlusItemLevel_Max
EXTRN	?gc_ChaosMixCondor_Div@@3HA:DWORD		; gc_ChaosMixCondor_Div
EXTRN	?gc_ChaosMixCondor_Max@@3HA:DWORD		; gc_ChaosMixCondor_Max
EXTRN	?gc_ChaosMix3rdWing_Div@@3HA:DWORD		; gc_ChaosMix3rdWing_Div
EXTRN	?gc_ChaosMix3rdWing_Max@@3HA:DWORD		; gc_ChaosMix3rdWing_Max
EXTRN	?g_CastleSiegeSync@@3VCCastleSiegeSync@@A:BYTE	; g_CastleSiegeSync
EXTRN	?g_BloodCastle@@3VCBloodCastle@@A:BYTE		; g_BloodCastle
EXTRN	?gSetItemOption@@3VCSetItemOption@@A:BYTE	; gSetItemOption
EXTRN	?g_CrywolfSync@@3VCCrywolfSync@@A:BYTE		; g_CrywolfSync
EXTRN	?g_Lottery@@3VCCashLottery@@A:BYTE		; g_Lottery
EXTRN	?g_CastleSiege@@3VCCastleSiege@@A:BYTE		; g_CastleSiege
EXTRN	?g_iCastleItemMixLimit@@3HA:DWORD		; g_iCastleItemMixLimit
EXTRN	?g_ElementalSystem@@3VCElementalSystem@@A:BYTE	; g_ElementalSystem
EXTRN	?g_EventItemBagManager@@3VEventItemBagManager@@A:BYTE ; g_EventItemBagManager
EXTRN	___security_cookie:DWORD
EXTRN	__fltused:DWORD
_BSS	SEGMENT
?g_ChaosBox@@3VCChaosBox@@A DB 044H DUP (?)		; g_ChaosBox
_BSS	ENDS
CRT$XCU	SEGMENT
?g_ChaosBox$initializer$@@3P6AXXZA DD FLAT:??__Eg_ChaosBox@@YAXXZ ; g_ChaosBox$initializer$
CRT$XCU	ENDS
;	COMDAT __xmm@ffffffffffffffffffffffffffffffff
CONST	SEGMENT
__xmm@ffffffffffffffffffffffffffffffff DB 0ffH, 0ffH, 0ffH, 0ffH, 0ffH, 0ffH
	DB	0ffH, 0ffH, 0ffH, 0ffH, 0ffH, 0ffH, 0ffH, 0ffH, 0ffH, 0ffH
CONST	ENDS
;	COMDAT __real@437f0000
CONST	SEGMENT
__real@437f0000 DD 0437f0000r			; 255
CONST	ENDS
;	COMDAT ??_R1A@?0A@EA@CChaosBox@@8
rdata$r	SEGMENT
??_R1A@?0A@EA@CChaosBox@@8 DD FLAT:??_R0?AVCChaosBox@@@8 ; CChaosBox::`RTTI Base Class Descriptor at (0,-1,0,64)'
	DD	00H
	DD	00H
	DD	0ffffffffH
	DD	00H
	DD	040H
	DD	FLAT:??_R3CChaosBox@@8
rdata$r	ENDS
;	COMDAT ??_R2CChaosBox@@8
rdata$r	SEGMENT
??_R2CChaosBox@@8 DD FLAT:??_R1A@?0A@EA@CChaosBox@@8	; CChaosBox::`RTTI Base Class Array'
rdata$r	ENDS
;	COMDAT ??_R3CChaosBox@@8
rdata$r	SEGMENT
??_R3CChaosBox@@8 DD 00H				; CChaosBox::`RTTI Class Hierarchy Descriptor'
	DD	00H
	DD	01H
	DD	FLAT:??_R2CChaosBox@@8
rdata$r	ENDS
;	COMDAT ??_R0?AVCChaosBox@@@8
data$r	SEGMENT
??_R0?AVCChaosBox@@@8 DD FLAT:??_7type_info@@6B@	; CChaosBox `RTTI Type Descriptor'
	DD	00H
	DB	'.?AVCChaosBox@@', 00H
data$r	ENDS
;	COMDAT ??_R4CChaosBox@@6B@
rdata$r	SEGMENT
??_R4CChaosBox@@6B@ DD 00H				; CChaosBox::`RTTI Complete Object Locator'
	DD	00H
	DD	00H
	DD	FLAT:??_R0?AVCChaosBox@@@8
	DD	FLAT:??_R3CChaosBox@@8
rdata$r	ENDS
;	COMDAT ??_C@_0EC@CJEGAMMB@?$FL25Wing?5Mix?$FN?5?$FL?$CFs?$FN?$FL?$CFs?$FN?5CBMix?5Fail@
CONST	SEGMENT
??_C@_0EC@CJEGAMMB@?$FL25Wing?5Mix?$FN?5?$FL?$CFs?$FN?$FL?$CFs?$FN?5CBMix?5Fail@ DB '['
	DB	'25Wing Mix] [%s][%s] CBMix Fail %d Money : %d-%d, CharmRate :'
	DB	' %d', 00H					; `string'
CONST	ENDS
;	COMDAT ??_C@_0EF@KFBIJMHJ@?$FL25Wing?5Mix?$FN?5?$FL?$CFs?$FN?$FL?$CFs?$FN?5CBMix?5Succ@
CONST	SEGMENT
??_C@_0EF@KFBIJMHJ@?$FL25Wing?5Mix?$FN?5?$FL?$CFs?$FN?$FL?$CFs?$FN?5CBMix?5Succ@ DB '['
	DB	'25Wing Mix] [%s][%s] CBMix Success %d Money : %d-%d, CharmRat'
	DB	'e : %d', 00H				; `string'
CONST	ENDS
;	COMDAT ??_C@_0BN@FNIHKHMB@?$FL25Wing?5Mix?$FN?5Chaos?5Mix?5Start?$AA@
CONST	SEGMENT
??_C@_0BN@FNIHKHMB@?$FL25Wing?5Mix?$FN?5Chaos?5Mix?5Start?$AA@ DB '[25Win'
	DB	'g Mix] Chaos Mix Start', 00H		; `string'
CONST	ENDS
;	COMDAT ??_C@_0M@OFDFPMHD@25WingLevel?$AA@
CONST	SEGMENT
??_C@_0M@OFDFPMHD@25WingLevel?$AA@ DB '25WingLevel', 00H ; `string'
CONST	ENDS
;	COMDAT ??_C@_0EF@KKFOLCFG@?$FLSocketItemMix?$FN?5?$FL?$CFs?$FN?$FL?$CFs?$FN?5CBMix?5F@
CONST	SEGMENT
??_C@_0EF@KKFOLCFG@?$FLSocketItemMix?$FN?5?$FL?$CFs?$FN?$FL?$CFs?$FN?5CBMix?5F@ DB '['
	DB	'SocketItemMix] [%s][%s] CBMix Fail %d Money : %d-%d, CharmRat'
	DB	'e : %d', 00H				; `string'
CONST	ENDS
;	COMDAT ??_C@_0FC@BOLCPPFJ@?$FLSocketItemMix?$FN?$FLLevel?502?$FN?5?$FL?$CFs?$FN?$FL?$CF@
CONST	SEGMENT
??_C@_0FC@BOLCPPFJ@?$FLSocketItemMix?$FN?$FLLevel?502?$FN?5?$FL?$CFs?$FN?$FL?$CF@ DB '['
	DB	'SocketItemMix][Level 02] [%s][%s] CBMix Success %d Money : %d'
	DB	'-%d, CharmRate : %d', 00H			; `string'
CONST	ENDS
;	COMDAT ??_C@_0CA@JPBHABAH@?$FLSocketItemMix?$FN?5Chaos?5Mix?5Start?$AA@
CONST	SEGMENT
??_C@_0CA@JPBHABAH@?$FLSocketItemMix?$FN?5Chaos?5Mix?5Start?$AA@ DB '[Soc'
	DB	'ketItemMix] Chaos Mix Start', 00H		; `string'
CONST	ENDS
;	COMDAT ??_C@_0O@DEOFBGCG@SocketItemMix?$AA@
CONST	SEGMENT
??_C@_0O@DEOFBGCG@SocketItemMix?$AA@ DB 'SocketItemMix', 00H ; `string'
CONST	ENDS
;	COMDAT ??_C@_0DG@LBFHIFGE@?$FLLuckySystem?$FN?$FLJewelOfExtension?$FN?$FL@
CONST	SEGMENT
??_C@_0DG@LBFHIFGE@?$FLLuckySystem?$FN?$FLJewelOfExtension?$FN?$FL@ DB '['
	DB	'LuckySystem][JewelOfExtension][%s][%s] CBMix Fail %d', 00H ; `string'
CONST	ENDS
;	COMDAT ??_C@_0DJ@MAMOGFAN@?$FLLuckySystem?$FN?$FLJewelOfExtension?$FN?$FL@
CONST	SEGMENT
??_C@_0DJ@MAMOGFAN@?$FLLuckySystem?$FN?$FLJewelOfExtension?$FN?$FL@ DB '['
	DB	'LuckySystem][JewelOfExtension][%s][%s] CBMix Success %d', 00H ; `string'
CONST	ENDS
;	COMDAT ??_C@_0HB@FMOBPLCD@?$FLLuckySystem?$FN?$FLItemMix?$FN?5?9?5User?$CIID@
CONST	SEGMENT
??_C@_0HB@FMOBPLCD@?$FLLuckySystem?$FN?$FLItemMix?$FN?5?9?5User?$CIID@ DB '['
	DB	'LuckySystem][ItemMix] - User(ID:%s,Name:%s) Item(Name:%s,Type'
	DB	':%d,Level:%d,Dur:%d,Skill:%d,Luck:%d,AddOption:%d)', 00H ; `string'
CONST	ENDS
;	COMDAT ??_C@_0DM@LHKABBDI@?$FLLuckySystem?$FN?$FLItemMix?$FN?5Chaos?5Car@
CONST	SEGMENT
??_C@_0DM@LHKABBDI@?$FLLuckySystem?$FN?$FLItemMix?$FN?5Chaos?5Car@ DB '[L'
	DB	'uckySystem][ItemMix] Chaos Card Item Mix Success [%s][%s]', 00H ; `string'
CONST	ENDS
;	COMDAT ??_C@_0BO@IIPPLEDJ@?$FLLuckySystem?$FN?5Chaos?5Mix?5Start?$AA@
CONST	SEGMENT
??_C@_0BO@IIPPLEDJ@?$FLLuckySystem?$FN?5Chaos?5Mix?5Start?$AA@ DB '[Lucky'
	DB	'System] Chaos Mix Start', 00H		; `string'
CONST	ENDS
;	COMDAT ??_C@_0M@JDLPAJDH@LuckySystem?$AA@
CONST	SEGMENT
??_C@_0M@JDLPAJDH@LuckySystem?$AA@ DB 'LuckySystem', 00H ; `string'
CONST	ENDS
;	COMDAT ??_C@_0DF@GJBOIKGG@?$FLSecromicon?5Mix?$FN?$FL?$CFs?$FN?$FL?$CFs?$FN?5CBMix?5F@
CONST	SEGMENT
??_C@_0DF@GJBOIKGG@?$FLSecromicon?5Mix?$FN?$FL?$CFs?$FN?$FL?$CFs?$FN?5CBMix?5F@ DB '['
	DB	'Secromicon Mix][%s][%s] CBMix Fail %d Money : %d-%d', 00H ; `string'
CONST	ENDS
;	COMDAT ??_C@_0DI@FEKMLFCO@?$FLSecromicon?5Mix?$FN?$FL?$CFs?$FN?$FL?$CFs?$FN?5CBMix?5S@
CONST	SEGMENT
??_C@_0DI@FEKMLFCO@?$FLSecromicon?5Mix?$FN?$FL?$CFs?$FN?$FL?$CFs?$FN?5CBMix?5S@ DB '['
	DB	'Secromicon Mix][%s][%s] CBMix Success %d Money : %d-%d', 00H ; `string'
CONST	ENDS
;	COMDAT ??_C@_0BN@PDFCNBKK@?$FLSecromicon?$FN?5Chaos?5Mix?5Start?$AA@
CONST	SEGMENT
??_C@_0BN@PDFCNBKK@?$FLSecromicon?$FN?5Chaos?5Mix?5Start?$AA@ DB '[Secrom'
	DB	'icon] Chaos Mix Start', 00H			; `string'
CONST	ENDS
;	COMDAT ??_C@_0L@FKBLGOD@Secromicon?$AA@
CONST	SEGMENT
??_C@_0L@FKBLGOD@Secromicon?$AA@ DB 'Secromicon', 00H	; `string'
CONST	ENDS
;	COMDAT ??_C@_0IH@MCNGCFGC@?$FL?$CFs?$FN?$FL?$CFs?$FN?5SeedSphere?5Remove?5Succe@
CONST	SEGMENT
??_C@_0IH@MCNGCFGC@?$FL?$CFs?$FN?$FL?$CFs?$FN?5SeedSphere?5Remove?5Succe@ DB '['
	DB	'%s][%s] SeedSphere Remove Success - ItemInfo ( Name : %s, Ite'
	DB	'mCode : %d, Level : %d, SocketOption[%d,%d,%d,%d,%d], BonusOp'
	DB	'tion : %d )', 00H				; `string'
CONST	ENDS
;	COMDAT ??_C@_0BB@CFKCJMNE@SeedSphereRemove?$AA@
CONST	SEGMENT
??_C@_0BB@CFKCJMNE@SeedSphereRemove?$AA@ DB 'SeedSphereRemove', 00H ; `string'
CONST	ENDS
;	COMDAT ??_C@_0II@KCLKEHBN@?$FL?$CFs?$FN?$FL?$CFs?$FN?5Set?5SeedSphere?5Mix?5Succ@
CONST	SEGMENT
??_C@_0II@KCLKEHBN@?$FL?$CFs?$FN?$FL?$CFs?$FN?5Set?5SeedSphere?5Mix?5Succ@ DB '['
	DB	'%s][%s] Set SeedSphere Mix Success - ItemInfo ( Name : %s, It'
	DB	'emCode : %d, Level : %d, SocketOption[%d,%d,%d,%d,%d], BonusO'
	DB	'ption : %d )', 00H				; `string'
CONST	ENDS
;	COMDAT ??_C@_0DO@KKBOJPIF@?$FL?$CFs?$FN?$FL?$CFs?$FN?5Set?5Seed?5Mix?5Failed?5?9?5W@
CONST	SEGMENT
??_C@_0DO@KKBOJPIF@?$FL?$CFs?$FN?$FL?$CFs?$FN?5Set?5Seed?5Mix?5Failed?5?9?5W@ DB '['
	DB	'%s][%s] Set Seed Mix Failed - Wrong Item Type for Set Socket', 00H ; `string'
CONST	ENDS
;	COMDAT ??_C@_0DC@BKFDMAJM@?$FL?$CFs?$FN?$FL?$CFs?$FN?5Set?5Seed?5Mix?5Failed?5?9?5S@
CONST	SEGMENT
??_C@_0DC@BKFDMAJM@?$FL?$CFs?$FN?$FL?$CFs?$FN?5Set?5Seed?5Mix?5Failed?5?9?5S@ DB '['
	DB	'%s][%s] Set Seed Mix Failed - SeedSphere is NULL', 00H ; `string'
CONST	ENDS
;	COMDAT ??_C@_0O@CGCDEDIJ@SetSeedSphere?$AA@
CONST	SEGMENT
??_C@_0O@CGCDEDIJ@SetSeedSphere?$AA@ DB 'SetSeedSphere', 00H ; `string'
CONST	ENDS
;	COMDAT ??_C@_0ED@CPANCMOB@?$FL?$CFs?$FN?$FL?$CFs?$FN?5SeedSphere?5Composite?5Mi@
CONST	SEGMENT
??_C@_0ED@CPANCMOB@?$FL?$CFs?$FN?$FL?$CFs?$FN?5SeedSphere?5Composite?5Mi@ DB '['
	DB	'%s][%s] SeedSphere Composite Mix Failed - SeedSphere Data is '
	DB	'NULL', 00H					; `string'
CONST	ENDS
;	COMDAT ??_C@_0HB@BGNJLNEH@?$FL?$CFs?$FN?$FL?$CFs?$FN?5SeedSphere?5Composite?5Mi@
CONST	SEGMENT
??_C@_0HB@BGNJLNEH@?$FL?$CFs?$FN?$FL?$CFs?$FN?5SeedSphere?5Composite?5Mi@ DB '['
	DB	'%s][%s] SeedSphere Composite Mix Success - SeedSphere Info ( '
	DB	'Index : %d, Type : %d, Level : %d, ItemCode : %d )', 00H ; `string'
CONST	ENDS
;	COMDAT ??_C@_0CK@CENILOLB@?$FL?$CFs?$FN?$FL?$CFs?$FN?5SeedSphere?5Composite?5Mi@
CONST	SEGMENT
??_C@_0CK@CENILOLB@?$FL?$CFs?$FN?$FL?$CFs?$FN?5SeedSphere?5Composite?5Mi@ DB '['
	DB	'%s][%s] SeedSphere Composite Mix Failed.', 00H ; `string'
CONST	ENDS
;	COMDAT ??_C@_0BE@GFFNMAOC@SeedSphereComposite?$AA@
CONST	SEGMENT
??_C@_0BE@GFFNMAOC@SeedSphereComposite?$AA@ DB 'SeedSphereComposite', 00H ; `string'
CONST	ENDS
;	COMDAT ??_C@_0DE@JCNMJOBM@?$FL?$CFs?$FN?$FL?$CFs?$FN?5Seed?5Extract?5Mix?5Failed@
CONST	SEGMENT
??_C@_0DE@JCNMJOBM@?$FL?$CFs?$FN?$FL?$CFs?$FN?5Seed?5Extract?5Mix?5Failed@ DB '['
	DB	'%s][%s] Seed Extract Mix Failed - SeedData is NULL', 00H ; `string'
CONST	ENDS
;	COMDAT ??_C@_0GC@HFAHDNLD@?$FL?$CFs?$FN?$FL?$CFs?$FN?5Seed?5Extract?5Mix?5Succes@
CONST	SEGMENT
??_C@_0GC@HFAHDNLD@?$FL?$CFs?$FN?$FL?$CFs?$FN?5Seed?5Extract?5Mix?5Succes@ DB '['
	DB	'%s][%s] Seed Extract Mix Success - SeedInfo ( Index : %d, Typ'
	DB	'e : %d, Level : %d, ItemCode : %d )', 00H	; `string'
CONST	ENDS
;	COMDAT ??_C@_0CC@FJMAMNGP@?$FL?$CFs?$FN?$FL?$CFs?$FN?5Seed?5Extract?5Mix?5Failed@
CONST	SEGMENT
??_C@_0CC@FJMAMNGP@?$FL?$CFs?$FN?$FL?$CFs?$FN?5Seed?5Extract?5Mix?5Failed@ DB '['
	DB	'%s][%s] Seed Extract Mix Failed.', 00H	; `string'
CONST	ENDS
;	COMDAT ??_C@_0M@PHAOGDNK@SeedExtract?$AA@
CONST	SEGMENT
??_C@_0M@PHAOGDNK@SeedExtract?$AA@ DB 'SeedExtract', 00H ; `string'
CONST	ENDS
;	COMDAT ??_C@_0GB@PMDDOCCB@?$FLChaosMix?$FN?$FLIllusion?5Temple?$FN?5Illu@
CONST	SEGMENT
??_C@_0GB@PMDDOCCB@?$FLChaosMix?$FN?$FLIllusion?5Temple?$FN?5Illu@ DB '[C'
	DB	'haosMix][Illusion Temple] Illusion Ticket [%s][%s] CBMix Fail'
	DB	' %d Money : %d-%d, CharmRate : %d', 00H	; `string'
CONST	ENDS
;	COMDAT ??_C@_0FP@NDMOHONO@?$FLChaosMix?$FN?$FLIllusion?5Temple?$FN?5Illu@
CONST	SEGMENT
??_C@_0FP@NDMOHONO@?$FLChaosMix?$FN?$FLIllusion?5Temple?$FN?5Illu@ DB '[C'
	DB	'haosMix][Illusion Temple] Illusion Ticket Mix Success [%s][%s'
	DB	'], Money(%d-%d), CharmRate : %d', 00H	; `string'
CONST	ENDS
;	COMDAT ??_C@_0DA@LOGFDBNL@?$FL?$CFs?$FN?$FL?$CFs?$FN?5CherryBlossomMix?5Fail?5?$CF@
CONST	SEGMENT
??_C@_0DA@LOGFDBNL@?$FL?$CFs?$FN?$FL?$CFs?$FN?5CherryBlossomMix?5Fail?5?$CF@ DB '['
	DB	'%s][%s] CherryBlossomMix Fail %d Money : %d-%d', 00H ; `string'
CONST	ENDS
;	COMDAT ??_C@_0IK@DOPMBJCB@?$FLCashShop?$FN?$FLChaosCardMix?$FN?5?9?5User?$CI@
CONST	SEGMENT
??_C@_0IK@DOPMBJCB@?$FLCashShop?$FN?$FLChaosCardMix?$FN?5?9?5User?$CI@ DB '['
	DB	'CashShop][ChaosCardMix] - User(ID:%s,Name:%s) Item(Name:%s,Ty'
	DB	'pe:%d,Level:%d,Dur:%d,Skill:%d,Luck:%d,AddOption:%d,Ex:(%d,%d'
	DB	',%d,%d,%d,%d))', 00H			; `string'
CONST	ENDS
;	COMDAT ??_C@_0DO@IIKCCCHD@?$FLChaosMix?$FN?$FLChaosCardMix?$FN?5Chaos?5C@
CONST	SEGMENT
??_C@_0DO@IIKCCCHD@?$FLChaosMix?$FN?$FLChaosCardMix?$FN?5Chaos?5C@ DB '[C'
	DB	'haosMix][ChaosCardMix] Chaos Card Item Mix Success [%s][%s]', 00H ; `string'
CONST	ENDS
;	COMDAT ??_C@_0EO@BNKLGMLJ@?$FLChaosMix?$FN?$FLLotteryItemMix?$FN?5Lotte@
CONST	SEGMENT
??_C@_0EO@BNKLGMLJ@?$FLChaosMix?$FN?$FLLotteryItemMix?$FN?5Lotte@ DB '[Ch'
	DB	'aosMix][LotteryItemMix] Lottery Item Mix Failed. Can''t Get I'
	DB	'tem from List.', 00H			; `string'
CONST	ENDS
;	COMDAT ??_C@_0O@CJDOCADP@ChaosCardMini?$AA@
CONST	SEGMENT
??_C@_0O@CJDOCADP@ChaosCardMini?$AA@ DB 'ChaosCardMini', 00H ; `string'
CONST	ENDS
;	COMDAT ??_C@_0O@LHLDBNJL@ChaosCardRare?$AA@
CONST	SEGMENT
??_C@_0O@LHLDBNJL@ChaosCardRare?$AA@ DB 'ChaosCardRare', 00H ; `string'
CONST	ENDS
;	COMDAT ??_C@_0O@PAMPMNGB@ChaosCardGold?$AA@
CONST	SEGMENT
??_C@_0O@PAMPMNGB@ChaosCardGold?$AA@ DB 'ChaosCardGold', 00H ; `string'
CONST	ENDS
;	COMDAT ??_C@_09KIGHELLC@ChaosCard?$AA@
CONST	SEGMENT
??_C@_09KIGHELLC@ChaosCard?$AA@ DB 'ChaosCard', 00H	; `string'
CONST	ENDS
;	COMDAT ??_C@_0M@JCBFJDIJ@CashLottery?$AA@
CONST	SEGMENT
??_C@_0M@JCBFJDIJ@CashLottery?$AA@ DB 'CashLottery', 00H ; `string'
CONST	ENDS
;	COMDAT ??_C@_0EP@JFJPOIME@?$FLThirdWing?5Mix?$FN?$FLLevel?502?$FN?5?$FL?$CFs?$FN?$FL?$CF@
CONST	SEGMENT
??_C@_0EP@JFJPOIME@?$FLThirdWing?5Mix?$FN?$FLLevel?502?$FN?5?$FL?$CFs?$FN?$FL?$CF@ DB '['
	DB	'ThirdWing Mix][Level 02] [%s][%s] CBMix Fail %d Money : %d-%d'
	DB	', CharmRate : %d', 00H			; `string'
CONST	ENDS
;	COMDAT ??_C@_0FC@GGMOACLG@?$FLThirdWing?5Mix?$FN?$FLLevel?502?$FN?5?$FL?$CFs?$FN?$FL?$CF@
CONST	SEGMENT
??_C@_0FC@GGMOACLG@?$FLThirdWing?5Mix?$FN?$FLLevel?502?$FN?5?$FL?$CFs?$FN?$FL?$CF@ DB '['
	DB	'ThirdWing Mix][Level 02] [%s][%s] CBMix Success %d Money : %d'
	DB	'-%d, CharmRate : %d', 00H			; `string'
CONST	ENDS
;	COMDAT ??_C@_0CK@OMLKNABI@?$FLThirdWing?5Mix?$FN?$FLLevel?502?$FN?5Chaos?5@
CONST	SEGMENT
??_C@_0CK@OMLKNABI@?$FLThirdWing?5Mix?$FN?$FLLevel?502?$FN?5Chaos?5@ DB '['
	DB	'ThirdWing Mix][Level 02] Chaos Mix Start', 00H ; `string'
CONST	ENDS
;	COMDAT ??_C@_0BE@FCHPIPIA@ThirdWingLevel2_Mix?$AA@
CONST	SEGMENT
??_C@_0BE@FCHPIPIA@ThirdWingLevel2_Mix?$AA@ DB 'ThirdWingLevel2_Mix', 00H ; `string'
CONST	ENDS
;	COMDAT ??_C@_0EP@LDCANMLN@?$FLThirdWing?5Mix?$FN?$FLLevel?501?$FN?5?$FL?$CFs?$FN?$FL?$CF@
CONST	SEGMENT
??_C@_0EP@LDCANMLN@?$FLThirdWing?5Mix?$FN?$FLLevel?501?$FN?5?$FL?$CFs?$FN?$FL?$CF@ DB '['
	DB	'ThirdWing Mix][Level 01] [%s][%s] CBMix Fail %d Money : %d-%d'
	DB	', CharmRate : %d', 00H			; `string'
CONST	ENDS
;	COMDAT ??_C@_0FC@NNBKAMKF@?$FLThirdWing?5Mix?$FN?$FLLevel?501?$FN?5?$FL?$CFs?$FN?$FL?$CF@
CONST	SEGMENT
??_C@_0FC@NNBKAMKF@?$FLThirdWing?5Mix?$FN?$FLLevel?501?$FN?5?$FL?$CFs?$FN?$FL?$CF@ DB '['
	DB	'ThirdWing Mix][Level 01] [%s][%s] CBMix Success %d Money : %d'
	DB	'-%d, CharmRate : %d', 00H			; `string'
CONST	ENDS
;	COMDAT ??_C@_0CK@EPOMFGLB@?$FLThirdWing?5Mix?$FN?$FLLevel?501?$FN?5Chaos?5@
CONST	SEGMENT
??_C@_0CK@EPOMFGLB@?$FLThirdWing?5Mix?$FN?$FLLevel?501?$FN?5Chaos?5@ DB '['
	DB	'ThirdWing Mix][Level 01] Chaos Mix Start', 00H ; `string'
CONST	ENDS
;	COMDAT ??_C@_0BE@NEOLPNCO@ThirdWingLevel1_Mix?$AA@
CONST	SEGMENT
??_C@_0BE@NEOLPNCO@ThirdWingLevel1_Mix?$AA@ DB 'ThirdWingLevel1_Mix', 00H ; `string'
CONST	ENDS
;	COMDAT ??_C@_0DI@EGPAKGJE@?$FLCastleSpecialMix?$FN?5?$FL?$CFs?$FN?$FL?$CFs?$FN?5CBMi@
CONST	SEGMENT
??_C@_0DI@EGPAKGJE@?$FLCastleSpecialMix?$FN?5?$FL?$CFs?$FN?$FL?$CFs?$FN?5CBMi@ DB '['
	DB	'CastleSpecialMix] [%s][%s] CBMix Fail %d Money : %d-%d', 00H ; `string'
CONST	ENDS
;	COMDAT ??_C@_0DL@JMGPLGGO@?$FLCastleSpecialMix?$FN?5?$FL?$CFs?$FN?$FL?$CFs?$FN?5CBMi@
CONST	SEGMENT
??_C@_0DL@JMGPLGGO@?$FLCastleSpecialMix?$FN?5?$FL?$CFs?$FN?$FL?$CFs?$FN?5CBMi@ DB '['
	DB	'CastleSpecialMix] [%s][%s] CBMix Success %d Money : %d-%d', 00H ; `string'
CONST	ENDS
;	COMDAT ??_C@_0EE@GIAICFLK@?$FLCastleSpecialMix?$FN?5?$FL?$CFs?$FN?$FL?$CFs?$FN?5Item@
CONST	SEGMENT
??_C@_0EE@GIAICFLK@?$FLCastleSpecialMix?$FN?5?$FL?$CFs?$FN?$FL?$CFs?$FN?5Item@ DB '['
	DB	'CastleSpecialMix] [%s][%s] Item Mix Failed - Lack of Money (%'
	DB	'd/%d)', 00H					; `string'
CONST	ENDS
;	COMDAT ??_C@_0CM@BFLNDPMH@?$FLCastleSpecialMix?$FN?5?$FL?$CFs?$FN?$FL?$CFs?$FN?5Chao@
CONST	SEGMENT
??_C@_0CM@BFLNDPMH@?$FLCastleSpecialMix?$FN?5?$FL?$CFs?$FN?$FL?$CFs?$FN?5Chao@ DB '['
	DB	'CastleSpecialMix] [%s][%s] Chaos Mix Start', 00H ; `string'
CONST	ENDS
;	COMDAT ??_C@_0BD@DBGJDJHA@Castle?5Special?5Mix?$AA@
CONST	SEGMENT
??_C@_0BD@DBGJDJHA@Castle?5Special?5Mix?$AA@ DB 'Castle Special Mix', 00H ; `string'
CONST	ENDS
;	COMDAT ??_C@_0FP@MMBGDNIO@?$FLCastleSpecialMix?$FN?5?$FL?$CFs?$FN?$FL?$CFs?$FN?5Item@
CONST	SEGMENT
??_C@_0FP@MMBGDNIO@?$FLCastleSpecialMix?$FN?5?$FL?$CFs?$FN?$FL?$CFs?$FN?5Item@ DB '['
	DB	'CastleSpecialMix] [%s][%s] Item Mix Failed - Item Error (DG:%'
	DB	'd, BGx10:%d, SGx10:%d, Other:%d)', 00H	; `string'
CONST	ENDS
;	COMDAT ??_C@_0ED@INAPNAEI@?$FLCastleSpecialMix?$FN?5?$FL?$CFs?$FN?$FL?$CFs?$FN?5Item@
CONST	SEGMENT
??_C@_0ED@INAPNAEI@?$FLCastleSpecialMix?$FN?5?$FL?$CFs?$FN?$FL?$CFs?$FN?5Item@ DB '['
	DB	'CastleSpecialMix] [%s][%s] Item Mix Failed - Mix Count Limit '
	DB	'Over', 00H					; `string'
CONST	ENDS
;	COMDAT ??_C@_0DG@INONCDCO@?$FLCastleSpecialMix?$FN?5?$FL?$CFs?$FN?$FL?$CFs?$FN?5Item@
CONST	SEGMENT
??_C@_0DG@INONCDCO@?$FLCastleSpecialMix?$FN?5?$FL?$CFs?$FN?$FL?$CFs?$FN?5Item@ DB '['
	DB	'CastleSpecialMix] [%s][%s] Item Mix Failed - No Auth', 00H ; `string'
CONST	ENDS
;	COMDAT ??_C@_0FO@FNMAJKJN@?$FLChaosMix?$FN?$FLShield?5Potion?$FN?5Lv3?5Po@
CONST	SEGMENT
??_C@_0FO@FNMAJKJN@?$FLChaosMix?$FN?$FLShield?5Potion?$FN?5Lv3?5Po@ DB '['
	DB	'ChaosMix][Shield Potion] Lv3 Potion Mix [%s][%s] CBMix Fail %'
	DB	'd Money : %d-%d, CharmRate : %d', 00H	; `string'
CONST	ENDS
;	COMDAT ??_C@_0FI@GFFMCKHC@?$FLChaosMix?$FN?$FLShield?5Potion?$FN?5Lv3?5Po@
CONST	SEGMENT
??_C@_0FI@GFFMCKHC@?$FLChaosMix?$FN?$FLShield?5Potion?$FN?5Lv3?5Po@ DB '['
	DB	'ChaosMix][Shield Potion] Lv3 Potion Mix Success [%s][%s], Mon'
	DB	'ey(%d-%d), CharmRate : %d', 00H		; `string'
CONST	ENDS
;	COMDAT ??_C@_0CO@PBOACDNC@?$FLPotionMix?$FN?$FLShieldPotion?5Lv3?5Mix@
CONST	SEGMENT
??_C@_0CO@PBOACDNC@?$FLPotionMix?$FN?$FLShieldPotion?5Lv3?5Mix@ DB '[Poti'
	DB	'onMix][ShieldPotion Lv3 Mix] - Mix Start', 00H ; `string'
CONST	ENDS
;	COMDAT ??_C@_0CA@IMPOJLKH@PotionMix?$FN?$FLShieldPotion?5Lv3?5Mix?$AA@
CONST	SEGMENT
??_C@_0CA@IMPOJLKH@PotionMix?$FN?$FLShieldPotion?5Lv3?5Mix?$AA@ DB 'Potio'
	DB	'nMix][ShieldPotion Lv3 Mix', 00H		; `string'
CONST	ENDS
;	COMDAT ??_C@_0FO@BECJDHIC@?$FLChaosMix?$FN?$FLShield?5Potion?$FN?5Lv2?5Po@
CONST	SEGMENT
??_C@_0FO@BECJDHIC@?$FLChaosMix?$FN?$FLShield?5Potion?$FN?5Lv2?5Po@ DB '['
	DB	'ChaosMix][Shield Potion] Lv2 Potion Mix [%s][%s] CBMix Fail %'
	DB	'd Money : %d-%d, CharmRate : %d', 00H	; `string'
CONST	ENDS
;	COMDAT ??_C@_0FI@KPIPKEPN@?$FLChaosMix?$FN?$FLShield?5Potion?$FN?5Lv2?5Po@
CONST	SEGMENT
??_C@_0FI@KPIPKEPN@?$FLChaosMix?$FN?$FLShield?5Potion?$FN?5Lv2?5Po@ DB '['
	DB	'ChaosMix][Shield Potion] Lv2 Potion Mix Success [%s][%s], Mon'
	DB	'ey(%d-%d), CharmRate : %d', 00H		; `string'
CONST	ENDS
;	COMDAT ??_C@_0CO@CGACKDIK@?$FLPotionMix?$FN?$FLShieldPotion?5Lv2?5Mix@
CONST	SEGMENT
??_C@_0CO@CGACKDIK@?$FLPotionMix?$FN?$FLShieldPotion?5Lv2?5Mix@ DB '[Poti'
	DB	'onMix][ShieldPotion Lv2 Mix] - Mix Start', 00H ; `string'
CONST	ENDS
;	COMDAT ??_C@_0CA@EHKCEIAC@PotionMix?$FN?$FLShieldPotion?5Lv2?5Mix?$AA@
CONST	SEGMENT
??_C@_0CA@EHKCEIAC@PotionMix?$FN?$FLShieldPotion?5Lv2?5Mix?$AA@ DB 'Potio'
	DB	'nMix][ShieldPotion Lv2 Mix', 00H		; `string'
CONST	ENDS
;	COMDAT ??_C@_0FO@MOBDMAKD@?$FLChaosMix?$FN?$FLShield?5Potion?$FN?5Lv1?5Po@
CONST	SEGMENT
??_C@_0FO@MOBDMAKD@?$FLChaosMix?$FN?$FLShield?5Potion?$FN?5Lv1?5Po@ DB '['
	DB	'ChaosMix][Shield Potion] Lv1 Potion Mix [%s][%s] CBMix Fail %'
	DB	'd Money : %d-%d, CharmRate : %d', 00H	; `string'
CONST	ENDS
;	COMDAT ??_C@_0FI@CLIKDBCN@?$FLChaosMix?$FN?$FLShield?5Potion?$FN?5Lv1?5Po@
CONST	SEGMENT
??_C@_0FI@CLIKDBCN@?$FLChaosMix?$FN?$FLShield?5Potion?$FN?5Lv1?5Po@ DB '['
	DB	'ChaosMix][Shield Potion] Lv1 Potion Mix Success [%s][%s], Mon'
	DB	'ey(%d-%d), CharmRate : %d', 00H		; `string'
CONST	ENDS
;	COMDAT ??_C@_0CO@IFFECFCD@?$FLPotionMix?$FN?$FLShieldPotion?5Lv1?5Mix@
CONST	SEGMENT
??_C@_0CO@IFFECFCD@?$FLPotionMix?$FN?$FLShieldPotion?5Lv1?5Mix@ DB '[Poti'
	DB	'onMix][ShieldPotion Lv1 Mix] - Mix Start', 00H ; `string'
CONST	ENDS
;	COMDAT ??_C@_0CA@MBDGDKKM@PotionMix?$FN?$FLShieldPotion?5Lv1?5Mix?$AA@
CONST	SEGMENT
??_C@_0CA@MBDGDKKM@PotionMix?$FN?$FLShieldPotion?5Lv1?5Mix?$AA@ DB 'Potio'
	DB	'nMix][ShieldPotion Lv1 Mix', 00H		; `string'
CONST	ENDS
;	COMDAT ??_C@_0EM@GDMLAIBE@?$FLFenrir?5Mix?$FN?$FLLevel?504?$FN?5?$FL?$CFs?$FN?$FL?$CFs?$FN?5@
CONST	SEGMENT
??_C@_0EM@GDMLAIBE@?$FLFenrir?5Mix?$FN?$FLLevel?504?$FN?5?$FL?$CFs?$FN?$FL?$CFs?$FN?5@ DB '['
	DB	'Fenrir Mix][Level 04] [%s][%s] CBMix Fail %d Money : %d-%d, C'
	DB	'harmRate : %d', 00H				; `string'
CONST	ENDS
;	COMDAT ??_C@_0EP@NJDPFBHB@?$FLFenrir?5Mix?$FN?$FLLevel?504?$FN?5?$FL?$CFs?$FN?$FL?$CFs?$FN?5@
CONST	SEGMENT
??_C@_0EP@NJDPFBHB@?$FLFenrir?5Mix?$FN?$FLLevel?504?$FN?5?$FL?$CFs?$FN?$FL?$CFs?$FN?5@ DB '['
	DB	'Fenrir Mix][Level 04] [%s][%s] CBMix Success %d Money : %d-%d'
	DB	', CharmRate : %d', 00H			; `string'
CONST	ENDS
;	COMDAT ??_C@_0CH@GFKDABEJ@?$FLFenrir?5Mix?$FN?$FLLevel?504?$FN?5Chaos?5Mix@
CONST	SEGMENT
??_C@_0CH@GFKDABEJ@?$FLFenrir?5Mix?$FN?$FLLevel?504?$FN?5Chaos?5Mix@ DB '['
	DB	'Fenrir Mix][Level 04] Chaos Mix Start', 00H	; `string'
CONST	ENDS
;	COMDAT ??_C@_0BD@CMBAEEFO@Fenrir_04Level_Mix?$AA@
CONST	SEGMENT
??_C@_0BD@CMBAEEFO@Fenrir_04Level_Mix?$AA@ DB 'Fenrir_04Level_Mix', 00H ; `string'
CONST	ENDS
;	COMDAT ??_C@_0EM@DDCAHDDB@?$FLFenrir?5Mix?$FN?$FLLevel?503?$FN?5?$FL?$CFs?$FN?$FL?$CFs?$FN?5@
CONST	SEGMENT
??_C@_0EM@DDCAHDDB@?$FLFenrir?5Mix?$FN?$FLLevel?503?$FN?5?$FL?$CFs?$FN?$FL?$CFs?$FN?5@ DB '['
	DB	'Fenrir Mix][Level 03] [%s][%s] CBMix Fail %d Money : %d-%d, C'
	DB	'harmRate : %d', 00H				; `string'
CONST	ENDS
;	COMDAT ??_C@_0EP@BMKKEOOH@?$FLFenrir?5Mix?$FN?$FLLevel?503?$FN?5?$FL?$CFs?$FN?$FL?$CFs?$FN?5@
CONST	SEGMENT
??_C@_0EP@BMKKEOOH@?$FLFenrir?5Mix?$FN?$FLLevel?503?$FN?5?$FL?$CFs?$FN?$FL?$CFs?$FN?5@ DB '['
	DB	'Fenrir Mix][Level 03] [%s][%s] CBMix Success %d Money : %d-%d'
	DB	', CharmRate : %d', 00H			; `string'
CONST	ENDS
;	COMDAT ??_C@_0CH@CPJNIKAC@?$FLFenrir?5Mix?$FN?$FLLevel?503?$FN?5Chaos?5Mix@
CONST	SEGMENT
??_C@_0CH@CPJNIKAC@?$FLFenrir?5Mix?$FN?$FLLevel?503?$FN?5Chaos?5Mix@ DB '['
	DB	'Fenrir Mix][Level 03] Chaos Mix Start', 00H	; `string'
CONST	ENDS
;	COMDAT ??_C@_0BD@FCLFBNN@Fenrir_03Level_Mix?$AA@
CONST	SEGMENT
??_C@_0BD@FCLFBNN@Fenrir_03Level_Mix?$AA@ DB 'Fenrir_03Level_Mix', 00H ; `string'
CONST	ENDS
;	COMDAT ??_C@_0EM@COLFGAOG@?$FLFenrir?5Mix?$FN?$FLLevel?502?$FN?5?$FL?$CFs?$FN?$FL?$CFs?$FN?5@
CONST	SEGMENT
??_C@_0EM@COLFGAOG@?$FLFenrir?5Mix?$FN?$FLLevel?502?$FN?5?$FL?$CFs?$FN?$FL?$CFs?$FN?5@ DB '['
	DB	'Fenrir Mix][Level 02] [%s][%s] CBMix Fail %d Money : %d-%d, C'
	DB	'harmRate : %d', 00H				; `string'
CONST	ENDS
;	COMDAT ??_C@_0EP@HFOGELBG@?$FLFenrir?5Mix?$FN?$FLLevel?502?$FN?5?$FL?$CFs?$FN?$FL?$CFs?$FN?5@
CONST	SEGMENT
??_C@_0EP@HFOGELBG@?$FLFenrir?5Mix?$FN?$FLLevel?502?$FN?5?$FL?$CFs?$FN?$FL?$CFs?$FN?5@ DB '['
	DB	'Fenrir Mix][Level 02] [%s][%s] CBMix Success %d Money : %d-%d'
	DB	', CharmRate : %d', 00H			; `string'
CONST	ENDS
;	COMDAT ??_C@_0CH@PIHPAKFK@?$FLFenrir?5Mix?$FN?$FLLevel?502?$FN?5Chaos?5Mix@
CONST	SEGMENT
??_C@_0CH@PIHPAKFK@?$FLFenrir?5Mix?$FN?$FLLevel?502?$FN?5Chaos?5Mix@ DB '['
	DB	'Fenrir Mix][Level 02] Chaos Mix Start', 00H	; `string'
CONST	ENDS
;	COMDAT ??_C@_0BD@MEKFIOBN@Fenrir_02Level_Mix?$AA@
CONST	SEGMENT
??_C@_0BD@MEKFIOBN@Fenrir_02Level_Mix?$AA@ DB 'Fenrir_02Level_Mix', 00H ; `string'
CONST	ENDS
;	COMDAT ??_C@_0EM@IAKFEJP@?$FLFenrir?5Mix?$FN?$FLLevel?501?$FN?5?$FL?$CFs?$FN?$FL?$CFs?$FN?5@
CONST	SEGMENT
??_C@_0EM@IAKFEJP@?$FLFenrir?5Mix?$FN?$FLLevel?501?$FN?5?$FL?$CFs?$FN?$FL?$CFs?$FN?5@ DB '['
	DB	'Fenrir Mix][Level 01] [%s][%s] CBMix Fail %d Money : %d-%d, C'
	DB	'harmRate : %d', 00H				; `string'
CONST	ENDS
;	COMDAT ??_C@_0EP@MODCEFAF@?$FLFenrir?5Mix?$FN?$FLLevel?501?$FN?5?$FL?$CFs?$FN?$FL?$CFs?$FN?5@
CONST	SEGMENT
??_C@_0EP@MODCEFAF@?$FLFenrir?5Mix?$FN?$FLLevel?501?$FN?5?$FL?$CFs?$FN?$FL?$CFs?$FN?5@ DB '['
	DB	'Fenrir Mix][Level 01] [%s][%s] CBMix Success %d Money : %d-%d'
	DB	', CharmRate : %d', 00H			; `string'
CONST	ENDS
;	COMDAT ??_C@_0CH@FLCJIMPD@?$FLFenrir?5Mix?$FN?$FLLevel?501?$FN?5Chaos?5Mix@
CONST	SEGMENT
??_C@_0CH@FLCJIMPD@?$FLFenrir?5Mix?$FN?$FLLevel?501?$FN?5Chaos?5Mix@ DB '['
	DB	'Fenrir Mix][Level 01] Chaos Mix Start', 00H	; `string'
CONST	ENDS
;	COMDAT ??_C@_0BD@FNEHOIBM@Fenrir_01Level_Mix?$AA@
CONST	SEGMENT
??_C@_0BD@FNEHOIBM@Fenrir_01Level_Mix?$AA@ DB 'Fenrir_01Level_Mix', 00H ; `string'
CONST	ENDS
;	COMDAT ??_C@_0DH@JBMEKCLH@?$FLHidden?5TreasureBox?5Event?$FN?5?$FL?$CFs?$FN?$FL@
CONST	SEGMENT
??_C@_0DH@JBMEKCLH@?$FLHidden?5TreasureBox?5Event?$FN?5?$FL?$CFs?$FN?$FL@ DB '['
	DB	'Hidden TreasureBox Event] [%s][%s] CBMix Fail Rate:%d', 00H ; `string'
CONST	ENDS
;	COMDAT ??_C@_0DN@CFIDABAI@?$FLHidden?5TreasureBox?5Event?$FN?5?$FL?$CFs?$FN?$FL@
CONST	SEGMENT
??_C@_0DN@CFIDABAI@?$FLHidden?5TreasureBox?5Event?$FN?5?$FL?$CFs?$FN?$FL@ DB '['
	DB	'Hidden TreasureBox Event] [%s][%s] CBMix Success:%d Type:%d', 00H ; `string'
CONST	ENDS
;	COMDAT ??_C@_0FB@PDPGCOFM@?$FLHidden?5TreasureBox?5Event?$FN?5?$FL?$CFs?$FN?$FL@
CONST	SEGMENT
??_C@_0FB@PDPGCOFM@?$FLHidden?5TreasureBox?5Event?$FN?5?$FL?$CFs?$FN?$FL@ DB '['
	DB	'Hidden TreasureBox Event] [%s][%s] CBMix Failed - iCrystalMix'
	DB	'Type is wrong : %d', 00H			; `string'
CONST	ENDS
;	COMDAT ??_C@_0DE@FILNLJPO@?$FLHidden?5TreasureBox?5Event?$FN?5?$FL?$CFs?$FN?$FL@
CONST	SEGMENT
??_C@_0DE@FILNLJPO@?$FLHidden?5TreasureBox?5Event?$FN?5?$FL?$CFs?$FN?$FL@ DB '['
	DB	'Hidden TreasureBox Event] [%s][%s] Chaos Mix Start', 00H ; `string'
CONST	ENDS
;	COMDAT ??_C@_0BH@FJMEBBCF@Hidden?5TreasureBox?5Mix?$AA@
CONST	SEGMENT
??_C@_0BH@FJMEBBCF@Hidden?5TreasureBox?5Mix?$AA@ DB 'Hidden TreasureBox M'
	DB	'ix', 00H					; `string'
CONST	ENDS
;	COMDAT ??_C@_0DE@OHGHLCDC@?$FLHidden?5TreasureBox?5Event?$FN?5?$FL?$CFs?$FN?$FL@
CONST	SEGMENT
??_C@_0DE@OHGHLCDC@?$FLHidden?5TreasureBox?5Event?$FN?5?$FL?$CFs?$FN?$FL@ DB '['
	DB	'Hidden TreasureBox Event] [%s][%s] Item Mix Failed', 00H ; `string'
CONST	ENDS
;	COMDAT ??_C@_0DE@PMLDDIAP@?$FLLifeStoneMix?$FN?5?$FL?$CFs?$FN?$FL?$CFs?$FN?5CBMix?5Fa@
CONST	SEGMENT
??_C@_0DE@PMLDDIAP@?$FLLifeStoneMix?$FN?5?$FL?$CFs?$FN?$FL?$CFs?$FN?5CBMix?5Fa@ DB '['
	DB	'LifeStoneMix] [%s][%s] CBMix Fail %d Money : %d-%d', 00H ; `string'
CONST	ENDS
;	COMDAT ??_C@_0DH@GNDOFGHL@?$FLLifeStoneMix?$FN?5?$FL?$CFs?$FN?$FL?$CFs?$FN?5CBMix?5Su@
CONST	SEGMENT
??_C@_0DH@GNDOFGHL@?$FLLifeStoneMix?$FN?5?$FL?$CFs?$FN?$FL?$CFs?$FN?5CBMix?5Su@ DB '['
	DB	'LifeStoneMix] [%s][%s] CBMix Success %d Money : %d-%d', 00H ; `string'
CONST	ENDS
;	COMDAT ??_C@_0BP@OKAOMBJE@?$FLLifeStoneMix?$FN?5Chaos?5Mix?5Start?$AA@
CONST	SEGMENT
??_C@_0BP@OKAOMBJE@?$FLLifeStoneMix?$FN?5Chaos?5Mix?5Start?$AA@ DB '[Life'
	DB	'StoneMix] Chaos Mix Start', 00H		; `string'
CONST	ENDS
;	COMDAT ??_C@_0N@FJGBJPII@LifeStoneMix?$AA@
CONST	SEGMENT
??_C@_0N@FJGBJPII@LifeStoneMix?$AA@ DB 'LifeStoneMix', 00H ; `string'
CONST	ENDS
;	COMDAT ??_C@_0DF@MJBBEIMO@?$FLSoulPotionMix?$FN?5?$FL?$CFs?$FN?$FL?$CFs?$FN?5CBMix?5F@
CONST	SEGMENT
??_C@_0DF@MJBBEIMO@?$FLSoulPotionMix?$FN?5?$FL?$CFs?$FN?$FL?$CFs?$FN?5CBMix?5F@ DB '['
	DB	'SoulPotionMix] [%s][%s] CBMix Fail %d Money : %d-%d', 00H ; `string'
CONST	ENDS
;	COMDAT ??_C@_0DI@OKLEBBAL@?$FLSoulPotionMix?$FN?5?$FL?$CFs?$FN?$FL?$CFs?$FN?5CBMix?5S@
CONST	SEGMENT
??_C@_0DI@OKLEBBAL@?$FLSoulPotionMix?$FN?5?$FL?$CFs?$FN?$FL?$CFs?$FN?5CBMix?5S@ DB '['
	DB	'SoulPotionMix] [%s][%s] CBMix Success %d Money : %d-%d', 00H ; `string'
CONST	ENDS
;	COMDAT ??_C@_0CA@GHNNBMIL@?$FLSoulPotionMix?$FN?5Chaos?5Mix?5Start?$AA@
CONST	SEGMENT
??_C@_0CA@GHNNBMIL@?$FLSoulPotionMix?$FN?5Chaos?5Mix?5Start?$AA@ DB '[Sou'
	DB	'lPotionMix] Chaos Mix Start', 00H		; `string'
CONST	ENDS
;	COMDAT ??_C@_0O@KAEODMHN@SoulPotionMix?$AA@
CONST	SEGMENT
??_C@_0O@KAEODMHN@SoulPotionMix?$AA@ DB 'SoulPotionMix', 00H ; `string'
CONST	ENDS
;	COMDAT ??_C@_0DG@ECHLAENJ@?$FLBlessPotionMix?$FN?5?$FL?$CFs?$FN?$FL?$CFs?$FN?5CBMix?5@
CONST	SEGMENT
??_C@_0DG@ECHLAENJ@?$FLBlessPotionMix?$FN?5?$FL?$CFs?$FN?$FL?$CFs?$FN?5CBMix?5@ DB '['
	DB	'BlessPotionMix] [%s][%s] CBMix Fail %d Money : %d-%d', 00H ; `string'
CONST	ENDS
;	COMDAT ??_C@_0DJ@CHGCMDK@?$FLBlessPotionMix?$FN?5?$FL?$CFs?$FN?$FL?$CFs?$FN?5CBMix?5@
CONST	SEGMENT
??_C@_0DJ@CHGCMDK@?$FLBlessPotionMix?$FN?5?$FL?$CFs?$FN?$FL?$CFs?$FN?5CBMix?5@ DB '['
	DB	'BlessPotionMix] [%s][%s] CBMix Success %d Money : %d-%d', 00H ; `string'
CONST	ENDS
;	COMDAT ??_C@_0CB@EBJOJCKF@?$FLBlessPotionMix?$FN?5Chaos?5Mix?5Start@
CONST	SEGMENT
??_C@_0CB@EBJOJCKF@?$FLBlessPotionMix?$FN?5Chaos?5Mix?5Start@ DB '[BlessP'
	DB	'otionMix] Chaos Mix Start', 00H		; `string'
CONST	ENDS
;	COMDAT ??_C@_0P@NBHFIPDI@BlessPotionMix?$AA@
CONST	SEGMENT
??_C@_0P@NBHFIPDI@BlessPotionMix?$AA@ DB 'BlessPotionMix', 00H ; `string'
CONST	ENDS
;	COMDAT ??_C@_0EF@ENJLGEHL@?$FLDarkSpiritMix?$FN?5?$FL?$CFs?$FN?$FL?$CFs?$FN?5CBMix?5F@
CONST	SEGMENT
??_C@_0EF@ENJLGEHL@?$FLDarkSpiritMix?$FN?5?$FL?$CFs?$FN?$FL?$CFs?$FN?5CBMix?5F@ DB '['
	DB	'DarkSpiritMix] [%s][%s] CBMix Fail %d Money : %d-%d, CharmRat'
	DB	'e : %d', 00H				; `string'
CONST	ENDS
;	COMDAT ??_C@_0EI@DIJHKIBN@?$FLDarkSpiritMix?$FN?5?$FL?$CFs?$FN?$FL?$CFs?$FN?5CBMix?5S@
CONST	SEGMENT
??_C@_0EI@DIJHKIBN@?$FLDarkSpiritMix?$FN?5?$FL?$CFs?$FN?$FL?$CFs?$FN?5CBMix?5S@ DB '['
	DB	'DarkSpiritMix] [%s][%s] CBMix Success %d Money : %d-%d, Charm'
	DB	'Rate : %d', 00H				; `string'
CONST	ENDS
;	COMDAT ??_C@_0CA@HOBPNGGO@?$FLDarkSpiritMix?$FN?5Chaos?5Mix?5Start?$AA@
CONST	SEGMENT
??_C@_0CA@HOBPNGGO@?$FLDarkSpiritMix?$FN?5Chaos?5Mix?5Start?$AA@ DB '[Dar'
	DB	'kSpiritMix] Chaos Mix Start', 00H		; `string'
CONST	ENDS
;	COMDAT ??_C@_0O@OCFEOMDO@DarkSpiritMix?$AA@
CONST	SEGMENT
??_C@_0O@OCFEOMDO@DarkSpiritMix?$AA@ DB 'DarkSpiritMix', 00H ; `string'
CONST	ENDS
;	COMDAT ??_C@_0EE@MAGJAMAN@?$FLDarkHorseMix?$FN?5?$FL?$CFs?$FN?$FL?$CFs?$FN?5CBMix?5Fa@
CONST	SEGMENT
??_C@_0EE@MAGJAMAN@?$FLDarkHorseMix?$FN?5?$FL?$CFs?$FN?$FL?$CFs?$FN?5CBMix?5Fa@ DB '['
	DB	'DarkHorseMix] [%s][%s] CBMix Fail %d Money : %d-%d, CharmRate'
	DB	' : %d', 00H					; `string'
CONST	ENDS
;	COMDAT ??_C@_0EH@JGHMMOON@?$FLDarkHorseMix?$FN?5?$FL?$CFs?$FN?$FL?$CFs?$FN?5CBMix?5Su@
CONST	SEGMENT
??_C@_0EH@JGHMMOON@?$FLDarkHorseMix?$FN?5?$FL?$CFs?$FN?$FL?$CFs?$FN?5CBMix?5Su@ DB '['
	DB	'DarkHorseMix] [%s][%s] CBMix Success %d Money : %d-%d, CharmR'
	DB	'ate : %d', 00H				; `string'
CONST	ENDS
;	COMDAT ??_C@_0BP@IMILBLLO@?$FLDarkHorseMix?$FN?5Chaos?5Mix?5Start?$AA@
CONST	SEGMENT
??_C@_0BP@IMILBLLO@?$FLDarkHorseMix?$FN?5Chaos?5Mix?5Start?$AA@ DB '[Dark'
	DB	'HorseMix] Chaos Mix Start', 00H		; `string'
CONST	ENDS
;	COMDAT ??_C@_0N@LDINKAHL@DarkHorseMix?$AA@
CONST	SEGMENT
??_C@_0N@LDINKAHL@DarkHorseMix?$AA@ DB 'DarkHorseMix', 00H ; `string'
CONST	ENDS
;	COMDAT ??_C@_0DC@ILPOEBCF@?$FLSetItemMix?$FN?5?$FL?$CFs?$FN?$FL?$CFs?$FN?5CBMix?5Fail@
CONST	SEGMENT
??_C@_0DC@ILPOEBCF@?$FLSetItemMix?$FN?5?$FL?$CFs?$FN?$FL?$CFs?$FN?5CBMix?5Fail@ DB '['
	DB	'SetItemMix] [%s][%s] CBMix Fail %d Money : %d-%d', 00H ; `string'
CONST	ENDS
;	COMDAT ??_C@_0EC@BFAACIGE@?$FLSetItemMix?$FN?5?$FL?$CFs?$FN?$FL?$CFs?$FN?5CBMix?5Succ@
CONST	SEGMENT
??_C@_0EC@BFAACIGE@?$FLSetItemMix?$FN?5?$FL?$CFs?$FN?$FL?$CFs?$FN?5CBMix?5Succ@ DB '['
	DB	'SetItemMix] [%s][%s] CBMix Success %d Money : %d-%d (SetName:'
	DB	'%s)', 00H					; `string'
CONST	ENDS
;	COMDAT ??_C@_0BN@JHMGADIL@?$FLSetItemMix?$FN?5Chaos?5Mix?5Start?$AA@
CONST	SEGMENT
??_C@_0BN@JHMGADIL@?$FLSetItemMix?$FN?5Chaos?5Mix?5Start?$AA@ DB '[SetIte'
	DB	'mMix] Chaos Mix Start', 00H			; `string'
CONST	ENDS
;	COMDAT ??_C@_0L@DBFFCLIB@SetItemMix?$AA@
CONST	SEGMENT
??_C@_0L@DBFFCLIB@SetItemMix?$AA@ DB 'SetItemMix', 00H	; `string'
CONST	ENDS
;	COMDAT ??_C@_0EB@GCGNBAFG@?$FLWingMix?02?$FN?5?$FL?$CFs?$FN?$FL?$CFs?$FN?5CBMix?5Fail?5@
CONST	SEGMENT
??_C@_0EB@GCGNBAFG@?$FLWingMix?02?$FN?5?$FL?$CFs?$FN?$FL?$CFs?$FN?5CBMix?5Fail?5@ DB '['
	DB	'WingMix,2] [%s][%s] CBMix Fail %d Money : %d-%d, CharmRate : '
	DB	'%d', 00H					; `string'
CONST	ENDS
;	COMDAT ??_C@_0EE@BHIPJGFK@?$FLWingMix?02?$FN?5?$FL?$CFs?$FN?$FL?$CFs?$FN?5CBMix?5Succe@
CONST	SEGMENT
??_C@_0EE@BHIPJGFK@?$FLWingMix?02?$FN?5?$FL?$CFs?$FN?$FL?$CFs?$FN?5CBMix?5Succe@ DB '['
	DB	'WingMix,2] [%s][%s] CBMix Success %d Money : %d-%d, CharmRate'
	DB	' : %d', 00H					; `string'
CONST	ENDS
;	COMDAT ??_C@_0EI@LFGBMPMJ@?$FLMixSystem?$FN?$FLWingChaosMix?$FN?5WingCh@
CONST	SEGMENT
??_C@_0EI@LFGBMPMJ@?$FLMixSystem?$FN?$FLWingChaosMix?$FN?5WingCh@ DB '[Mi'
	DB	'xSystem][WingChaosMix] WingCharmItemNum => %d , WingCharmInde'
	DB	'x => %d', 00H				; `string'
CONST	ENDS
;	COMDAT ??_C@_0BM@JPABEGNL@?$FLWingMix?02?$FN?5Chaos?5Mix?5Start?$AA@
CONST	SEGMENT
??_C@_0BM@JPABEGNL@?$FLWingMix?02?$FN?5Chaos?5Mix?5Start?$AA@ DB '[WingMi'
	DB	'x,2] Chaos Mix Start', 00H			; `string'
CONST	ENDS
;	COMDAT ??_C@_09GJEFJCKN@WingMix?02?$AA@
CONST	SEGMENT
??_C@_09GJEFJCKN@WingMix?02?$AA@ DB 'WingMix,2', 00H	; `string'
CONST	ENDS
;	COMDAT ??_C@_0EB@FKBAIBLL@?$FLCircleMix?$FN?5?$FL?$CFs?$FN?$FL?$CFs?$FN?5CBMix?5Fail?5@
CONST	SEGMENT
??_C@_0EB@FKBAIBLL@?$FLCircleMix?$FN?5?$FL?$CFs?$FN?$FL?$CFs?$FN?5CBMix?5Fail?5@ DB '['
	DB	'CircleMix] [%s][%s] CBMix Fail %d Money : %d-%d, CharmRate : '
	DB	'%d', 00H					; `string'
CONST	ENDS
;	COMDAT ??_C@_0EE@PAFLGDEL@?$FLCircleMix?$FN?5?$FL?$CFs?$FN?$FL?$CFs?$FN?5CBMix?5Succe@
CONST	SEGMENT
??_C@_0EE@PAFLGDEL@?$FLCircleMix?$FN?5?$FL?$CFs?$FN?$FL?$CFs?$FN?5CBMix?5Succe@ DB '['
	DB	'CircleMix] [%s][%s] CBMix Success %d Money : %d-%d, CharmRate'
	DB	' : %d', 00H					; `string'
CONST	ENDS
;	COMDAT ??_C@_0BM@EFIHICLO@?$FLCircleMix?$FN?5Chaos?5Mix?5Start?$AA@
CONST	SEGMENT
??_C@_0BM@EFIHICLO@?$FLCircleMix?$FN?5Chaos?5Mix?5Start?$AA@ DB '[CircleM'
	DB	'ix] Chaos Mix Start', 00H			; `string'
CONST	ENDS
;	COMDAT ??_C@_09CKGJGION@CircleMix?$AA@
CONST	SEGMENT
??_C@_09CKGJGION@CircleMix?$AA@ DB 'CircleMix', 00H	; `string'
CONST	ENDS
;	COMDAT ??_C@_0ED@JKKAJEKA@?$FLDinorantMix?$FN?5?$FL?$CFs?$FN?$FL?$CFs?$FN?5CBMix?5Fai@
CONST	SEGMENT
??_C@_0ED@JKKAJEKA@?$FLDinorantMix?$FN?5?$FL?$CFs?$FN?$FL?$CFs?$FN?5CBMix?5Fai@ DB '['
	DB	'DinorantMix] [%s][%s] CBMix Fail %d Money : %d-%d, CharmRate '
	DB	': %d', 00H					; `string'
CONST	ENDS
;	COMDAT ??_C@_0EG@BMPMHKIC@?$FLDinorantMix?$FN?5?$FL?$CFs?$FN?$FL?$CFs?$FN?5CBMix?5Suc@
CONST	SEGMENT
??_C@_0EG@BMPMHKIC@?$FLDinorantMix?$FN?5?$FL?$CFs?$FN?$FL?$CFs?$FN?5CBMix?5Suc@ DB '['
	DB	'DinorantMix] [%s][%s] CBMix Success %d Money : %d-%d, CharmRa'
	DB	'te : %d', 00H				; `string'
CONST	ENDS
;	COMDAT ??_C@_0BO@BKFHPCAO@?$FLDinorantMix?$FN?5Chaos?5Mix?5Start?$AA@
CONST	SEGMENT
??_C@_0BO@BKFHPCAO@?$FLDinorantMix?$FN?5Chaos?5Mix?5Start?$AA@ DB '[Dinor'
	DB	'antMix] Chaos Mix Start', 00H		; `string'
CONST	ENDS
;	COMDAT ??_C@_0M@OEKEBNDM@DinorantMix?$AA@
CONST	SEGMENT
??_C@_0M@OEKEBNDM@DinorantMix?$AA@ DB 'DinorantMix', 00H ; `string'
CONST	ENDS
;	COMDAT ??_C@_0EK@JJBHLEGP@?$FLPlusItemLevel?$FN?5?$FL?$CFs?$FN?$FL?$CFs?$FN?5CBMix?5F@
CONST	SEGMENT
??_C@_0EK@JJBHLEGP@?$FLPlusItemLevel?$FN?5?$FL?$CFs?$FN?$FL?$CFs?$FN?5CBMix?5F@ DB '['
	DB	'PlusItemLevel] [%s][%s] CBMix Fail %d Money : %d-%d [%d], Cha'
	DB	'rmRate : %d', 00H				; `string'
CONST	ENDS
;	COMDAT ??_C@_0EN@NDGFLPHI@?$FLPlusItemLevel?$FN?5?$FL?$CFs?$FN?$FL?$CFs?$FN?5CBMix?5S@
CONST	SEGMENT
??_C@_0EN@NDGFLPHI@?$FLPlusItemLevel?$FN?5?$FL?$CFs?$FN?$FL?$CFs?$FN?5CBMix?5S@ DB '['
	DB	'PlusItemLevel] [%s][%s] CBMix Success %d Money : %d-%d [%d], '
	DB	'CharmRate : %d', 00H			; `string'
CONST	ENDS
;	COMDAT ??_C@_0ED@HJNGDDFB@?$FLPlusItemLevel?$FN?5?$FL?$CFs?$FN?$FL?$CFs?$FN?5CBMix?5N@
CONST	SEGMENT
??_C@_0ED@HJNGDDFB@?$FLPlusItemLevel?$FN?5?$FL?$CFs?$FN?$FL?$CFs?$FN?5CBMix?5N@ DB '['
	DB	'PlusItemLevel] [%s][%s] CBMix Not Enough Money [%d] need zen '
	DB	'[%d]', 00H					; `string'
CONST	ENDS
;	COMDAT ??_C@_0CA@BGIGBHFB@?$FLPlusItemLevel?$FN?5Chaos?5Mix?5Start?$AA@
CONST	SEGMENT
??_C@_0CA@BGIGBHFB@?$FLPlusItemLevel?$FN?5Chaos?5Mix?5Start?$AA@ DB '[Plu'
	DB	'sItemLevel] Chaos Mix Start', 00H		; `string'
CONST	ENDS
;	COMDAT ??_C@_0DL@KGOODEAG@?$FLPlusItemLevel?$FN?5?$FL?$CFs?$FN?$FL?$CFs?$FN?5CBMix?5C@
CONST	SEGMENT
??_C@_0DL@KGOODEAG@?$FLPlusItemLevel?$FN?5?$FL?$CFs?$FN?$FL?$CFs?$FN?5CBMix?5C@ DB '['
	DB	'PlusItemLevel] [%s][%s] CBMix Charm of luck over 10% (%d)', 00H ; `string'
CONST	ENDS
;	COMDAT ??_C@_0IF@FONACAKJ@?$FL?$CFs?$FN?5?$FL?$CFs?$FN?$FL?$CFs?$FN?5CBMix?5?$FL?$CFd?0?$CFs?0?$CFd?0?$CFd@
CONST	SEGMENT
??_C@_0IF@FONACAKJ@?$FL?$CFs?$FN?5?$FL?$CFs?$FN?$FL?$CFs?$FN?5CBMix?5?$FL?$CFd?0?$CFs?0?$CFd?0?$CFd@ DB '['
	DB	'%s] [%s][%s] CBMix [%d,%s,%d,%d,%d,%d]serial:[%u][%d] Ex:[%d,'
	DB	'%d,%d,%d,%d,%d,%d] Set:[%d] 380:[%d] HO:[%d,%d] Socket[%d,%d,'
	DB	'%d,%d,%d]', 00H				; `string'
CONST	ENDS
;	COMDAT ??_C@_0HO@DGIBLBAF@?$FLPlusItemLevel?0?$CFd?$FN?5?$FL?$CFs?$FN?$FL?$CFs?$FN?5CBMi@
CONST	SEGMENT
??_C@_0HO@DGIBLBAF@?$FLPlusItemLevel?0?$CFd?$FN?5?$FL?$CFs?$FN?$FL?$CFs?$FN?5CBMi@ DB '['
	DB	'PlusItemLevel,%d] [%s][%s] CBMix [%d,%s,%d,%d,%d,%d]serial:[%'
	DB	'd][%d] Ex:[%d,%d,%d,%d,%d,%d,%d] Set:[%d] 380Ex:[%d] HO:[%d,%'
	DB	'd]', 00H					; `string'
CONST	ENDS
;	COMDAT ??_C@_0DA@FMJGNMLI@?$FLDevilSquare?$FN?5Too?5many?5Devil?8s?5K@
CONST	SEGMENT
??_C@_0DA@FMJGNMLI@?$FLDevilSquare?$FN?5Too?5many?5Devil?8s?5K@ DB '[Devi'
	DB	'lSquare] Too many Devil''s Key or Eyes [%d]', 00H ; `string'
CONST	ENDS
;	COMDAT ??_C@_0CK@JNMMBAIA@?$FLDevilSquare?$FN?5Charm?5Of?5Luck?5Over@
CONST	SEGMENT
??_C@_0CK@JNMMBAIA@?$FLDevilSquare?$FN?5Charm?5Of?5Luck?5Over@ DB '[Devil'
	DB	'Square] Charm Of Luck Over 10% [%d]', 00H	; `string'
CONST	ENDS
;	COMDAT ??_C@_0CH@NMBMOEEC@?$FLDevilSquare?$FN?5Not?5Found?5Chaos?5Ge@
CONST	SEGMENT
??_C@_0CH@NMBMOEEC@?$FLDevilSquare?$FN?5Not?5Found?5Chaos?5Ge@ DB '[Devil'
	DB	'Square] Not Found Chaos Gem [%d]', 00H	; `string'
CONST	ENDS
;	COMDAT ??_C@_0DB@DMIHKADD@?$FLDevilSquare?$FN?5DiffLevel?5Devil?8s?5@
CONST	SEGMENT
??_C@_0DB@DMIHKADD@?$FLDevilSquare?$FN?5DiffLevel?5Devil?8s?5@ DB '[Devil'
	DB	'Square] DiffLevel Devil''s Key or Eyes [%d]', 00H ; `string'
CONST	ENDS
;	COMDAT ??_C@_0DL@ODHCGDBD@?$FLDevilSquare?0?$CFd?$FN?5?$FL?$CFs?$FN?$FL?$CFs?$FN?5CBMix?5@
CONST	SEGMENT
??_C@_0DL@ODHCGDBD@?$FLDevilSquare?0?$CFd?$FN?5?$FL?$CFs?$FN?$FL?$CFs?$FN?5CBMix?5@ DB '['
	DB	'DevilSquare,%d] [%s][%s] CBMix Success Rate:%d Money : %d', 00H ; `string'
CONST	ENDS
;	COMDAT ??_C@_0DG@KKBIIBFP@?$FLDevilSquare?0?$CFd?$FN?5?$FL?$CFs?$FN?$FL?$CFs?$FN?5CBMix?5@
CONST	SEGMENT
??_C@_0DG@KKBIIBFP@?$FLDevilSquare?0?$CFd?$FN?5?$FL?$CFs?$FN?$FL?$CFs?$FN?5CBMix?5@ DB '['
	DB	'DevilSquare,%d] [%s][%s] CBMix Fail %d Money : %d-%d', 00H ; `string'
CONST	ENDS
;	COMDAT ??_C@_0EB@HHHNMGIM@?$FLDevilSquare?$FN?5?$FL?$CFs?$FN?$FL?$CFs?$FN?5CBMix?5Not@
CONST	SEGMENT
??_C@_0EB@HHHNMGIM@?$FLDevilSquare?$FN?5?$FL?$CFs?$FN?$FL?$CFs?$FN?5CBMix?5Not@ DB '['
	DB	'DevilSquare] [%s][%s] CBMix Not Enough Money [%d] need zen [%'
	DB	'd]', 00H					; `string'
CONST	ENDS
;	COMDAT ??_C@_0DB@BMAIOAHL@?$FLDevilSquare?$FN?5?$FL?$CFs?$FN?$FL?$CFs?$FN?5Invalid?5D@
CONST	SEGMENT
??_C@_0DB@BMAIOAHL@?$FLDevilSquare?$FN?5?$FL?$CFs?$FN?$FL?$CFs?$FN?5Invalid?5D@ DB '['
	DB	'DevilSquare] [%s][%s] Invalid DQItem Level [%d]', 00H ; `string'
CONST	ENDS
;	COMDAT ??_C@_0BO@MDACFBLC@?$FLDevilSquare?$FN?5Chaos?5Mix?5Start?$AA@
CONST	SEGMENT
??_C@_0BO@MDACFBLC@?$FLDevilSquare?$FN?5Chaos?5Mix?5Start?$AA@ DB '[Devil'
	DB	'Square] Chaos Mix Start', 00H		; `string'
CONST	ENDS
;	COMDAT ??_C@_0CA@IANBADIL@?$FLDevilSquare?$FN?5DQItems?5Not?5Found?$AA@
CONST	SEGMENT
??_C@_0CA@IANBADIL@?$FLDevilSquare?$FN?5DQItems?5Not?5Found?$AA@ DB '[Dev'
	DB	'ilSquare] DQItems Not Found', 00H		; `string'
CONST	ENDS
;	COMDAT ??_C@_0CH@EJJKJEAB@?$FLDevilSquare?$FN?5Charm?5Of?5Luck?5Coun@
CONST	SEGMENT
??_C@_0CH@EJJKJEAB@?$FLDevilSquare?$FN?5Charm?5Of?5Luck?5Coun@ DB '[Devil'
	DB	'Square] Charm Of Luck Count Over', 00H	; `string'
CONST	ENDS
;	COMDAT ??_C@_0CG@FFFDDFEO@?$FLDevilSquare?$FN?5DiffLevel?5DQItems?5@
CONST	SEGMENT
??_C@_0CG@FFFDDFEO@?$FLDevilSquare?$FN?5DiffLevel?5DQItems?5@ DB '[DevilS'
	DB	'quare] DiffLevel DQItems Found', 00H	; `string'
CONST	ENDS
;	COMDAT ??_C@_0CC@LINAPAPC@?$FLDevilSquare?$FN?5Other?5DQItems?5Foun@
CONST	SEGMENT
??_C@_0CC@LINAPAPC@?$FLDevilSquare?$FN?5Other?5DQItems?5Foun@ DB '[DevilS'
	DB	'quare] Other DQItems Found', 00H		; `string'
CONST	ENDS
;	COMDAT ??_C@_0CF@MGDMILOL@?$FLDevilSquare?$FN?5Search?5DevilSquare@
CONST	SEGMENT
??_C@_0CF@MGDMILOL@?$FLDevilSquare?$FN?5Search?5DevilSquare@ DB '[DevilSq'
	DB	'uare] Search DevilSquareItem', 00H		; `string'
CONST	ENDS
;	COMDAT ??_C@_0HL@GCCPEJBG@?$FLDevilSquare?0?$CFd?$FN?5?$FL?$CFs?$FN?$FL?$CFs?$FN?5CBMix?5@
CONST	SEGMENT
??_C@_0HL@GCCPEJBG@?$FLDevilSquare?0?$CFd?$FN?5?$FL?$CFs?$FN?$FL?$CFs?$FN?5CBMix?5@ DB '['
	DB	'DevilSquare,%d] [%s][%s] CBMix [%d,%s,%d,%d,%d,%d]serial:[%d]'
	DB	'[%d] Ex:[%d,%d,%d,%d,%d,%d,%d] Set:[%d] 380Ex[%d] HO:[%d,%d]', 00H ; `string'
CONST	ENDS
;	COMDAT ??_C@_0CK@IKEPLJDI@?$FL?$CFs?$FN?$FL?$CFs?$FN?5CBMix?5Success?5Rate?3?$CFd?5M@
CONST	SEGMENT
??_C@_0CK@IKEPLJDI@?$FL?$CFs?$FN?$FL?$CFs?$FN?5CBMix?5Success?5Rate?3?$CFd?5M@ DB '['
	DB	'%s][%s] CBMix Success Rate:%d Money : %d', 00H ; `string'
CONST	ENDS
;	COMDAT ??_C@_0CF@NPEOFJKC@?$FL?$CFs?$FN?$FL?$CFs?$FN?5CBMix?5Fail?5?$CFd?5Money?5?3?5?$CF@
CONST	SEGMENT
??_C@_0CF@NPEOFJKC@?$FL?$CFs?$FN?$FL?$CFs?$FN?5CBMix?5Fail?5?$CFd?5Money?5?3?5?$CF@ DB '['
	DB	'%s][%s] CBMix Fail %d Money : %d-%d', 00H	; `string'
CONST	ENDS
;	COMDAT ??_C@_0DK@EKDAKNF@?$FLMixSystem?$FN?5WingCharmItemNum?5?$DN?$DO?5@
CONST	SEGMENT
??_C@_0DK@EKDAKNF@?$FLMixSystem?$FN?5WingCharmItemNum?5?$DN?$DO?5@ DB '[M'
	DB	'ixSystem] WingCharmItemNum => %d , WingCharmIndex => %d', 00H ; `string'
CONST	ENDS
;	COMDAT ??_C@_0DO@PLIHJFD@?$FL?$CFs?$FN?$FL?$CFs?$FN?5CBMix?5need?5Zen?5?3?5?$CFd?5Suc@
CONST	SEGMENT
??_C@_0DO@PLIHJFD@?$FL?$CFs?$FN?$FL?$CFs?$FN?5CBMix?5need?5Zen?5?3?5?$CFd?5Suc@ DB '['
	DB	'%s][%s] CBMix need Zen : %d SuccessRate : %d, CharmRate : %d', 00H ; `string'
CONST	ENDS
;	COMDAT ??_C@_0FA@FKHLLHEC@?$FL?$CFs?$FN?$FL?$CFs?$FN?5CBMix?5?$FL?$CFd?0?$CFs?0?$CFd?0?$CFd?0?$CFd?0?$CF@
CONST	SEGMENT
??_C@_0FA@FKHLLHEC@?$FL?$CFs?$FN?$FL?$CFs?$FN?5CBMix?5?$FL?$CFd?0?$CFs?0?$CFd?0?$CFd?0?$CFd?0?$CF@ DB '['
	DB	'%s][%s] CBMix [%d,%s,%d,%d,%d,%d]serial:[%u][%d][%d] Ex:[%d,%'
	DB	'd,%d,%d,%d,%d,%d]', 00H			; `string'
CONST	ENDS
;	COMDAT ??_7CChaosBox@@6B@
CONST	SEGMENT
??_7CChaosBox@@6B@ DD FLAT:??_R4CChaosBox@@6B@		; CChaosBox::`vftable'
	DD	FLAT:??_ECChaosBox@@UAEPAXI@Z
CONST	ENDS
;	COMDAT xdata$x
xdata$x	SEGMENT
__unwindtable$?SeedSphereCompositeMix@CChaosBox@@QAEXPAUOBJECTSTRUCT@@@Z DD 0ffffffffH
	DD	FLAT:__unwindfunclet$?SeedSphereCompositeMix@CChaosBox@@QAEXPAUOBJECTSTRUCT@@@Z$0
__ehfuncinfo$?SeedSphereCompositeMix@CChaosBox@@QAEXPAUOBJECTSTRUCT@@@Z DD 019930522H
	DD	01H
	DD	FLAT:__unwindtable$?SeedSphereCompositeMix@CChaosBox@@QAEXPAUOBJECTSTRUCT@@@Z
	DD	2 DUP(00H)
	DD	2 DUP(00H)
	DD	00H
	DD	01H
xdata$x	ENDS
;	COMDAT xdata$x
xdata$x	SEGMENT
__unwindtable$?ChaosBoxInit@CChaosBox@@QAEHPAUOBJECTSTRUCT@@@Z DD 0ffffffffH
	DD	FLAT:__unwindfunclet$?ChaosBoxInit@CChaosBox@@QAEHPAUOBJECTSTRUCT@@@Z$0
__ehfuncinfo$?ChaosBoxInit@CChaosBox@@QAEHPAUOBJECTSTRUCT@@@Z DD 019930522H
	DD	01H
	DD	FLAT:__unwindtable$?ChaosBoxInit@CChaosBox@@QAEHPAUOBJECTSTRUCT@@@Z
	DD	2 DUP(00H)
	DD	2 DUP(00H)
	DD	00H
	DD	01H
xdata$x	ENDS
;	COMDAT xdata$x
xdata$x	SEGMENT
__ehfuncinfo$??_EOBJECTSTRUCT@@QAEPAXI@Z DD 019930522H
	DD	00H
	DD	00H
	DD	2 DUP(00H)
	DD	2 DUP(00H)
	DD	00H
	DD	05H
xdata$x	ENDS
; Function compile flags: /Ogtp
;	COMDAT ??__Fg_ChaosBox@@YAXXZ
text$yd	SEGMENT
??__Fg_ChaosBox@@YAXXZ PROC				; `dynamic atexit destructor for 'g_ChaosBox'', COMDAT
  00000	b9 00 00 00 00	 mov	 ecx, OFFSET ?g_ChaosBox@@3VCChaosBox@@A ; g_ChaosBox
  00005	e9 00 00 00 00	 jmp	 ??1CChaosBox@@UAE@XZ	; CChaosBox::~CChaosBox
??__Fg_ChaosBox@@YAXXZ ENDP				; `dynamic atexit destructor for 'g_ChaosBox''
text$yd	ENDS
; Function compile flags: /Ogtp
; File c:\users\michel\desktop\source\gameserver\source\chaosbox.cpp
;	COMDAT ??__Eg_ChaosBox@@YAXXZ
text$di	SEGMENT
??__Eg_ChaosBox@@YAXXZ PROC				; `dynamic initializer for 'g_ChaosBox'', COMDAT

; 24   : CChaosBox g_ChaosBox;

  00000	b9 00 00 00 00	 mov	 ecx, OFFSET ?g_ChaosBox@@3VCChaosBox@@A ; g_ChaosBox
  00005	e8 00 00 00 00	 call	 ??0CChaosBox@@QAE@XZ	; CChaosBox::CChaosBox
  0000a	68 00 00 00 00	 push	 OFFSET ??__Fg_ChaosBox@@YAXXZ ; `dynamic atexit destructor for 'g_ChaosBox''
  0000f	e8 00 00 00 00	 call	 _atexit
  00014	59		 pop	 ecx
  00015	c3		 ret	 0
??__Eg_ChaosBox@@YAXXZ ENDP				; `dynamic initializer for 'g_ChaosBox''
text$di	ENDS
; Function compile flags: /Ogtp
;	COMDAT ??_GCChaosBox@@UAEPAXI@Z
_TEXT	SEGMENT
___flags$ = 8						; size = 4
??_GCChaosBox@@UAEPAXI@Z PROC				; CChaosBox::`scalar deleting destructor', COMDAT
; _this$ = ecx
  00000	55		 push	 ebp
  00001	8b ec		 mov	 ebp, esp
  00003	56		 push	 esi
  00004	8b f1		 mov	 esi, ecx
  00006	e8 00 00 00 00	 call	 ??1CChaosBox@@UAE@XZ	; CChaosBox::~CChaosBox
  0000b	f6 45 08 01	 test	 BYTE PTR ___flags$[ebp], 1
  0000f	74 0b		 je	 SHORT $LN4@scalar
  00011	6a 44		 push	 68			; 00000044H
  00013	56		 push	 esi
  00014	e8 00 00 00 00	 call	 ??3@YAXPAXI@Z		; operator delete
  00019	83 c4 08	 add	 esp, 8
$LN4@scalar:
  0001c	8b c6		 mov	 eax, esi
  0001e	5e		 pop	 esi
  0001f	5d		 pop	 ebp
  00020	c2 04 00	 ret	 4
??_GCChaosBox@@UAEPAXI@Z ENDP				; CChaosBox::`scalar deleting destructor'
_TEXT	ENDS
; Function compile flags: /Ogtp
; File c:\users\michel\desktop\source\gameserver\source\chaosbox.cpp
;	COMDAT ?CastleSpecialItemMix@CChaosBox@@QAEXPAUOBJECTSTRUCT@@@Z
_TEXT	SEGMENT
_this$1$ = -36						; size = 4
_iSoulGemMixCount$1$ = -32				; size = 4
_iBlessGemMixCount$1$ = -28				; size = 4
_iInvalidItemCount$1$ = -24				; size = 4
_pMsg$ = -20						; size = 16
__$ArrayPad$ = -4					; size = 4
_lpObj$ = 8						; size = 4
?CastleSpecialItemMix@CChaosBox@@QAEXPAUOBJECTSTRUCT@@@Z PROC ; CChaosBox::CastleSpecialItemMix, COMDAT
; _this$ = ecx

; 4209 : {

  00000	55		 push	 ebp
  00001	8b ec		 mov	 ebp, esp
  00003	83 ec 24	 sub	 esp, 36			; 00000024H
  00006	a1 00 00 00 00	 mov	 eax, DWORD PTR ___security_cookie
  0000b	33 c5		 xor	 eax, ebp
  0000d	89 45 fc	 mov	 DWORD PTR __$ArrayPad$[ebp], eax
  00010	53		 push	 ebx
  00011	56		 push	 esi
  00012	8b 75 08	 mov	 esi, DWORD PTR _lpObj$[ebp]

; 4210 : 	lpObj->ChaosLock = TRUE;
; 4211 : 	int iDefendGemCount = 0;
; 4212 : 	int iBlessGemMixCount = 0;
; 4213 : 	int iSoulGemMixCount = 0;
; 4214 : 	int iInvalidItemCount =0;
; 4215 : 	int iChaosMoney = 0;
; 4216 : 
; 4217 : 	PMSG_CHAOSMIXRESULT pMsg;
; 4218 : 	PHeadSetB((PBYTE)&pMsg,0x86,sizeof(pMsg));

  00015	8d 45 ec	 lea	 eax, DWORD PTR _pMsg$[ebp]
  00018	6a 10		 push	 16			; 00000010H
  0001a	33 db		 xor	 ebx, ebx
  0001c	89 4d dc	 mov	 DWORD PTR _this$1$[ebp], ecx
  0001f	68 86 00 00 00	 push	 134			; 00000086H
  00024	50		 push	 eax
  00025	c7 86 20 12 00
	00 01 00 00 00	 mov	 DWORD PTR [esi+4640], 1
  0002f	89 5d e4	 mov	 DWORD PTR _iBlessGemMixCount$1$[ebp], ebx
  00032	89 5d e0	 mov	 DWORD PTR _iSoulGemMixCount$1$[ebp], ebx
  00035	89 5d e8	 mov	 DWORD PTR _iInvalidItemCount$1$[ebp], ebx
  00038	e8 00 00 00 00	 call	 ?PHeadSetB@@YAXPAEEH@Z	; PHeadSetB
  0003d	83 c4 0c	 add	 esp, 12			; 0000000cH

; 4219 : 	pMsg.Result = CB_ERROR;

  00040	88 5d ef	 mov	 BYTE PTR _pMsg$[ebp+3], bl

; 4220 : 
; 4221 : 	if(g_CastleSiege.CheckCastleOwnerMember(lpObj->m_Index) != FALSE )

  00043	b9 00 00 00 00	 mov	 ecx, OFFSET ?g_CastleSiege@@3VCCastleSiege@@A ; g_CastleSiege
  00048	ff 36		 push	 DWORD PTR [esi]
  0004a	e8 00 00 00 00	 call	 ?CheckCastleOwnerMember@CCastleSiege@@QAEHH@Z ; CCastleSiege::CheckCastleOwnerMember
  0004f	85 c0		 test	 eax, eax
  00051	74 0c		 je	 SHORT $LN5@CastleSpec

; 4222 : 	{
; 4223 : 		if(lpObj->GuildStatus != G_MASTER)

  00053	81 be 28 06 00
	00 80 00 00 00	 cmp	 DWORD PTR [esi+1576], 128 ; 00000080H
  0005d	74 3e		 je	 SHORT $LN7@CastleSpec
$LN5@CastleSpec:

; 4224 : 		{
; 4225 : 			LogAddTD("[CastleSpecialMix] [%s][%s] Item Mix Failed - No Auth",

  0005f	8d 46 5d	 lea	 eax, DWORD PTR [esi+93]
  00062	50		 push	 eax
  00063	8d 46 52	 lea	 eax, DWORD PTR [esi+82]
  00066	50		 push	 eax
  00067	68 00 00 00 00	 push	 OFFSET ??_C@_0DG@INONCDCO@?$FLCastleSpecialMix?$FN?5?$FL?$CFs?$FN?$FL?$CFs?$FN?5Item@
$LN30@CastleSpec:
  0006c	ff 15 00 00 00
	00		 call	 DWORD PTR ?LogAddTD@@3P6AXPADZZA ; LogAddTD

; 4226 : 				lpObj->AccountID,lpObj->Name);
; 4227 : 			DataSend(lpObj->m_Index,(PBYTE)&pMsg,pMsg.h.size);

  00072	0f b6 45 ed	 movzx	 eax, BYTE PTR _pMsg$[ebp+1]
  00076	50		 push	 eax
  00077	8d 45 ec	 lea	 eax, DWORD PTR _pMsg$[ebp]
  0007a	50		 push	 eax
  0007b	ff 36		 push	 DWORD PTR [esi]
  0007d	e8 00 00 00 00	 call	 ?DataSend@@YAHHPAEK@Z	; DataSend
  00082	83 c4 18	 add	 esp, 24			; 00000018H

; 4228 : 			lpObj->ChaosLock = FALSE;

  00085	89 9e 20 12 00
	00		 mov	 DWORD PTR [esi+4640], ebx
  0008b	5e		 pop	 esi
  0008c	5b		 pop	 ebx

; 4340 : }

  0008d	8b 4d fc	 mov	 ecx, DWORD PTR __$ArrayPad$[ebp]
  00090	33 cd		 xor	 ecx, ebp
  00092	e8 00 00 00 00	 call	 @__security_check_cookie@4
  00097	8b e5		 mov	 esp, ebp
  00099	5d		 pop	 ebp
  0009a	c2 04 00	 ret	 4
$LN7@CastleSpec:

; 4229 : 			return;
; 4230 : 		}
; 4231 : 	}
; 4232 : 	else
; 4233 : 	{
; 4234 : 		LogAddTD("[CastleSpecialMix] [%s][%s] Item Mix Failed - No Auth",
; 4235 : 			lpObj->AccountID,lpObj->Name);
; 4236 : 		DataSend(lpObj->m_Index,(PBYTE)&pMsg,pMsg.h.size);
; 4237 : 		lpObj->ChaosLock = FALSE;
; 4238 : 		return;
; 4239 : 	}
; 4240 : 
; 4241 : 	if(g_iCastleItemMixLimit <= 0)

  0009d	39 1d 00 00 00
	00		 cmp	 DWORD PTR ?g_iCastleItemMixLimit@@3HA, ebx ; g_iCastleItemMixLimit
  000a3	7f 0f		 jg	 SHORT $LN8@CastleSpec

; 4242 : 	{
; 4243 : 		LogAddTD("[CastleSpecialMix] [%s][%s] Item Mix Failed - Mix Count Limit Over",

  000a5	8d 46 5d	 lea	 eax, DWORD PTR [esi+93]
  000a8	50		 push	 eax
  000a9	8d 46 52	 lea	 eax, DWORD PTR [esi+82]
  000ac	50		 push	 eax
  000ad	68 00 00 00 00	 push	 OFFSET ??_C@_0ED@INAPNAEI@?$FLCastleSpecialMix?$FN?5?$FL?$CFs?$FN?$FL?$CFs?$FN?5Item@

; 4244 : 			lpObj->AccountID,lpObj->Name);
; 4245 : 		DataSend(lpObj->m_Index,(PBYTE)&pMsg,pMsg.h.size);
; 4246 : 		lpObj->ChaosLock = FALSE;
; 4247 : 		return;

  000b2	eb b8		 jmp	 SHORT $LN30@CastleSpec
$LN8@CastleSpec:
  000b4	57		 push	 edi

; 4248 : 	}
; 4249 : 
; 4250 : 	for(int n = 0; n < CHAOS_BOX_SIZE; n++)

  000b5	33 ff		 xor	 edi, edi
  000b7	66 0f 1f 84 00
	00 00 00 00	 npad	 9
$LL4@CastleSpec:

; 4251 : 	{
; 4252 : 		if(lpObj->pChaosBox[n].IsItem() == TRUE)

  000c0	8b 8e 10 12 00
	00		 mov	 ecx, DWORD PTR [esi+4624]
  000c6	03 cf		 add	 ecx, edi
  000c8	e8 00 00 00 00	 call	 ?IsItem@CItem@@QAEHXZ	; CItem::IsItem
  000cd	83 f8 01	 cmp	 eax, 1
  000d0	75 5b		 jne	 SHORT $LN26@CastleSpec

; 4253 : 		{
; 4254 : 			if(lpObj->pChaosBox[n].m_Type == ITEMGET(12,30))

  000d2	8b 8e 10 12 00
	00		 mov	 ecx, DWORD PTR [esi+4624]
  000d8	ba 1e 18 00 00	 mov	 edx, 6174		; 0000181eH
  000dd	0f b7 44 39 06	 movzx	 eax, WORD PTR [ecx+edi+6]
  000e2	66 3b c2	 cmp	 ax, dx
  000e5	75 10		 jne	 SHORT $LN10@CastleSpec

; 4255 : 			{
; 4256 : 				iBlessGemMixCount += (lpObj->pChaosBox[n].m_Level + 1);

  000e7	0f bf 44 39 08	 movsx	 eax, WORD PTR [ecx+edi+8]
  000ec	8b 4d e4	 mov	 ecx, DWORD PTR _iBlessGemMixCount$1$[ebp]
  000ef	41		 inc	 ecx
  000f0	03 c8		 add	 ecx, eax
  000f2	89 4d e4	 mov	 DWORD PTR _iBlessGemMixCount$1$[ebp], ecx
  000f5	eb 39		 jmp	 SHORT $LN28@CastleSpec
$LN10@CastleSpec:

; 4257 : 			}
; 4258 : 			else if(lpObj->pChaosBox[n].m_Type == ITEMGET(12,31))

  000f7	ba 1f 18 00 00	 mov	 edx, 6175		; 0000181fH
  000fc	66 3b c2	 cmp	 ax, dx

; 4259 : 			{
; 4260 : 				iSoulGemMixCount += (lpObj->pChaosBox[n].m_Level + 1);

  000ff	8b 55 e0	 mov	 edx, DWORD PTR _iSoulGemMixCount$1$[ebp]
  00102	75 10		 jne	 SHORT $LN12@CastleSpec
  00104	0f bf 44 39 08	 movsx	 eax, WORD PTR [ecx+edi+8]
  00109	42		 inc	 edx
  0010a	8b 4d e4	 mov	 ecx, DWORD PTR _iBlessGemMixCount$1$[ebp]
  0010d	03 d0		 add	 edx, eax
  0010f	89 55 e0	 mov	 DWORD PTR _iSoulGemMixCount$1$[ebp], edx
  00112	eb 1f		 jmp	 SHORT $LN29@CastleSpec
$LN12@CastleSpec:

; 4261 : 			}
; 4262 : #ifdef __NOVUS__
; 4263 : 			else if( lpObj->pChaosBox[n].m_Type == ITEMGET(12, 138) && lpObj->pChaosBox[n].m_Level == 2 )
; 4264 : 			{
; 4265 : 				iDefendGemCount++;
; 4266 : 			}
; 4267 : #else
; 4268 : 			else if(lpObj->pChaosBox[n].m_Type == ITEMGET(14,31))

  00114	b9 1f 1c 00 00	 mov	 ecx, 7199		; 00001c1fH
  00119	66 3b c1	 cmp	 ax, cx

; 4271 : 			}
; 4272 : #endif
; 4273 : 			else

  0011c	8b 45 e8	 mov	 eax, DWORD PTR _iInvalidItemCount$1$[ebp]
  0011f	8b 4d e4	 mov	 ecx, DWORD PTR _iBlessGemMixCount$1$[ebp]
  00122	75 03		 jne	 SHORT $LN14@CastleSpec

; 4269 : 			{
; 4270 : 				iDefendGemCount++;

  00124	43		 inc	 ebx

; 4271 : 			}
; 4272 : #endif
; 4273 : 			else

  00125	eb 0f		 jmp	 SHORT $LN2@CastleSpec
$LN14@CastleSpec:

; 4274 : 			{
; 4275 : 				iInvalidItemCount++;

  00127	40		 inc	 eax
  00128	89 45 e8	 mov	 DWORD PTR _iInvalidItemCount$1$[ebp], eax
  0012b	eb 09		 jmp	 SHORT $LN2@CastleSpec
$LN26@CastleSpec:
  0012d	8b 4d e4	 mov	 ecx, DWORD PTR _iBlessGemMixCount$1$[ebp]
$LN28@CastleSpec:
  00130	8b 55 e0	 mov	 edx, DWORD PTR _iSoulGemMixCount$1$[ebp]
$LN29@CastleSpec:
  00133	8b 45 e8	 mov	 eax, DWORD PTR _iInvalidItemCount$1$[ebp]
$LN2@CastleSpec:

; 4248 : 	}
; 4249 : 
; 4250 : 	for(int n = 0; n < CHAOS_BOX_SIZE; n++)

  00136	81 c7 d4 00 00
	00		 add	 edi, 212		; 000000d4H
  0013c	81 ff 80 1a 00
	00		 cmp	 edi, 6784		; 00001a80H
  00142	0f 8c 78 ff ff
	ff		 jl	 $LL4@CastleSpec

; 4276 : 			}
; 4277 : 		}
; 4278 : 	}
; 4279 : 
; 4280 : 	if(iBlessGemMixCount != 3
; 4281 : 		|| iSoulGemMixCount != 3
; 4282 : #ifdef __NOVUS__
; 4283 : 		|| iDefendGemCount != 1
; 4284 : #else
; 4285 : 		|| iDefendGemCount != 30
; 4286 : #endif
; 4287 : 		|| iInvalidItemCount > 0)

  00148	83 f9 03	 cmp	 ecx, 3
  0014b	0f 85 39 01 00
	00		 jne	 $LN17@CastleSpec
  00151	3b d1		 cmp	 edx, ecx
  00153	0f 85 31 01 00
	00		 jne	 $LN17@CastleSpec
  00159	83 fb 1e	 cmp	 ebx, 30			; 0000001eH
  0015c	0f 85 28 01 00
	00		 jne	 $LN17@CastleSpec
  00162	85 c0		 test	 eax, eax
  00164	0f 8f 20 01 00
	00		 jg	 $LN17@CastleSpec

; 4292 : 		lpObj->ChaosLock = FALSE;
; 4293 : 		return;
; 4294 : 	}
; 4295 : 
; 4296 : 	LogChaosItem(lpObj,"Castle Special Mix");

  0016a	8b 4d dc	 mov	 ecx, DWORD PTR _this$1$[ebp]
  0016d	68 00 00 00 00	 push	 OFFSET ??_C@_0BD@DBGJDJHA@Castle?5Special?5Mix?$AA@
  00172	56		 push	 esi
  00173	e8 00 00 00 00	 call	 ?LogChaosItem@CChaosBox@@QAEXPAUOBJECTSTRUCT@@PAD@Z ; CChaosBox::LogChaosItem

; 4297 : 	LogAddTD("[CastleSpecialMix] [%s][%s] Chaos Mix Start",

  00178	8d 7e 5d	 lea	 edi, DWORD PTR [esi+93]
  0017b	57		 push	 edi
  0017c	8d 5e 52	 lea	 ebx, DWORD PTR [esi+82]
  0017f	53		 push	 ebx
  00180	68 00 00 00 00	 push	 OFFSET ??_C@_0CM@BFLNDPMH@?$FLCastleSpecialMix?$FN?5?$FL?$CFs?$FN?$FL?$CFs?$FN?5Chao@
  00185	ff 15 00 00 00
	00		 call	 DWORD PTR ?LogAddTD@@3P6AXPADZZA ; LogAddTD

; 4298 : 		lpObj->AccountID,lpObj->Name);
; 4299 : 
; 4300 : 	lpObj->ChaosSuccessRate = 100;
; 4301 : 	int nChaosNeedMoney = 1000000000;
; 4302 : 
; 4303 : 	if(lpObj->Money < nChaosNeedMoney)

  0018b	8b 86 cc 00 00
	00		 mov	 eax, DWORD PTR [esi+204]
  00191	83 c4 0c	 add	 esp, 12			; 0000000cH
  00194	c7 86 1c 12 00
	00 64 00 00 00	 mov	 DWORD PTR [esi+4636], 100 ; 00000064H
  0019e	3d 00 ca 9a 3b	 cmp	 eax, 1000000000		; 3b9aca00H
  001a3	7d 2f		 jge	 SHORT $LN18@CastleSpec

; 4304 : 	{
; 4305 : 		LogAddTD("[CastleSpecialMix] [%s][%s] Item Mix Failed - Lack of Money (%d/%d)",

  001a5	68 00 ca 9a 3b	 push	 1000000000		; 3b9aca00H
  001aa	50		 push	 eax
  001ab	57		 push	 edi
  001ac	53		 push	 ebx
  001ad	68 00 00 00 00	 push	 OFFSET ??_C@_0EE@GIAICFLK@?$FLCastleSpecialMix?$FN?5?$FL?$CFs?$FN?$FL?$CFs?$FN?5Item@
  001b2	ff 15 00 00 00
	00		 call	 DWORD PTR ?LogAddTD@@3P6AXPADZZA ; LogAddTD

; 4306 : 			lpObj->AccountID,lpObj->Name,lpObj->Money,nChaosNeedMoney);
; 4307 : 		pMsg.Result = 2;
; 4308 : 		DataSend(lpObj->m_Index,(PBYTE)&pMsg,pMsg.h.size);

  001b8	0f b6 45 ed	 movzx	 eax, BYTE PTR _pMsg$[ebp+1]
  001bc	50		 push	 eax
  001bd	8d 45 ec	 lea	 eax, DWORD PTR _pMsg$[ebp]
  001c0	c6 45 ef 02	 mov	 BYTE PTR _pMsg$[ebp+3], 2
  001c4	50		 push	 eax
  001c5	ff 36		 push	 DWORD PTR [esi]
  001c7	e8 00 00 00 00	 call	 ?DataSend@@YAHHPAEK@Z	; DataSend
  001cc	83 c4 20	 add	 esp, 32			; 00000020H

; 4309 : 		lpObj->ChaosLock = FALSE;
; 4310 : 		return;

  001cf	e9 e0 00 00 00	 jmp	 $LN20@CastleSpec
$LN18@CastleSpec:

; 4311 : 	}
; 4312 : 
; 4313 : 	lpObj->Money -= nChaosNeedMoney;

  001d4	05 00 36 65 c4	 add	 eax, -1000000000	; c4653600H

; 4314 : 	GCMoneySend(lpObj->m_Index,lpObj->Money);

  001d9	50		 push	 eax
  001da	ff 36		 push	 DWORD PTR [esi]
  001dc	89 86 cc 00 00
	00		 mov	 DWORD PTR [esi+204], eax
  001e2	e8 00 00 00 00	 call	 ?GCMoneySend@@YAXHK@Z	; GCMoneySend
  001e7	83 c4 08	 add	 esp, 8

; 4315 : 
; 4316 : 	if(rand() % 100 < lpObj->ChaosSuccessRate)

  001ea	e8 00 00 00 00	 call	 _rand
  001ef	99		 cdq
  001f0	b9 64 00 00 00	 mov	 ecx, 100		; 00000064H
  001f5	f7 f9		 idiv	 ecx
  001f7	3b 96 1c 12 00
	00		 cmp	 edx, DWORD PTR [esi+4636]
  001fd	7d 47		 jge	 SHORT $LN19@CastleSpec

; 4317 : 	{
; 4318 : #if( __4GAMERS__ == 1 )
; 4319 : 			g_Achievements.GD_UpdateMixData(lpObj, true);
; 4320 : #endif
; 4321 : 		g_EventItemBagManager.OpenSpecial(EventBagSpecial::CastleMix, lpObj->m_Index, 255, 0, 0);

  001ff	6a 00		 push	 0
  00201	6a 00		 push	 0
  00203	68 ff 00 00 00	 push	 255			; 000000ffH
  00208	ff 36		 push	 DWORD PTR [esi]
  0020a	b9 00 00 00 00	 mov	 ecx, OFFSET ?g_EventItemBagManager@@3VEventItemBagManager@@A ; g_EventItemBagManager
  0020f	6a 00		 push	 0
  00211	e8 00 00 00 00	 call	 ?OpenSpecial@EventItemBagManager@@QAEEEHHEE@Z ; EventItemBagManager::OpenSpecial

; 4322 : 		gObjInventoryCommit(lpObj->m_Index);

  00216	ff 36		 push	 DWORD PTR [esi]
  00218	e8 00 00 00 00	 call	 ?gObjInventoryCommit@@YAHH@Z ; gObjInventoryCommit

; 4323 : 		LogAddTD("[CastleSpecialMix] [%s][%s] CBMix Success %d Money : %d-%d",

  0021d	68 00 ca 9a 3b	 push	 1000000000		; 3b9aca00H
  00222	ff b6 cc 00 00
	00		 push	 DWORD PTR [esi+204]
  00228	ff b6 1c 12 00
	00		 push	 DWORD PTR [esi+4636]
  0022e	57		 push	 edi
  0022f	53		 push	 ebx
  00230	68 00 00 00 00	 push	 OFFSET ??_C@_0DL@JMGPLGGO@?$FLCastleSpecialMix?$FN?5?$FL?$CFs?$FN?$FL?$CFs?$FN?5CBMi@
  00235	ff 15 00 00 00
	00		 call	 DWORD PTR ?LogAddTD@@3P6AXPADZZA ; LogAddTD
  0023b	83 c4 1c	 add	 esp, 28			; 0000001cH

; 4324 : 			lpObj->AccountID,lpObj->Name,lpObj->ChaosSuccessRate,lpObj->Money,nChaosNeedMoney);
; 4325 : 		g_iCastleItemMixLimit--;

  0023e	ff 0d 00 00 00
	00		 dec	 DWORD PTR ?g_iCastleItemMixLimit@@3HA ; g_iCastleItemMixLimit

; 4326 : 	}
; 4327 : 	else

  00244	eb 6e		 jmp	 SHORT $LN20@CastleSpec
$LN19@CastleSpec:

; 4328 : 	{
; 4329 : #if( __4GAMERS__ == 1 )
; 4330 : 			g_Achievements.GD_UpdateMixData(lpObj, false);
; 4331 : #endif
; 4332 : 		ChaosBoxInit(lpObj);

  00246	8b 4d dc	 mov	 ecx, DWORD PTR _this$1$[ebp]
  00249	56		 push	 esi
  0024a	e8 00 00 00 00	 call	 ?ChaosBoxInit@CChaosBox@@QAEHPAUOBJECTSTRUCT@@@Z ; CChaosBox::ChaosBoxInit

; 4333 : 		GCUserChaosBoxSend(lpObj,1);

  0024f	6a 01		 push	 1
  00251	56		 push	 esi
  00252	e8 00 00 00 00	 call	 ?GCUserChaosBoxSend@@YAXPAUOBJECTSTRUCT@@H@Z ; GCUserChaosBoxSend

; 4334 : 		DataSend(lpObj->m_Index,(PBYTE)&pMsg,pMsg.h.size);

  00257	0f b6 45 ed	 movzx	 eax, BYTE PTR _pMsg$[ebp+1]
  0025b	50		 push	 eax
  0025c	8d 45 ec	 lea	 eax, DWORD PTR _pMsg$[ebp]
  0025f	50		 push	 eax
  00260	ff 36		 push	 DWORD PTR [esi]
  00262	e8 00 00 00 00	 call	 ?DataSend@@YAHHPAEK@Z	; DataSend

; 4335 : 		LogAddTD("[CastleSpecialMix] [%s][%s] CBMix Fail %d Money : %d-%d",

  00267	68 00 ca 9a 3b	 push	 1000000000		; 3b9aca00H
  0026c	ff b6 cc 00 00
	00		 push	 DWORD PTR [esi+204]
  00272	ff b6 1c 12 00
	00		 push	 DWORD PTR [esi+4636]
  00278	57		 push	 edi
  00279	53		 push	 ebx
  0027a	68 00 00 00 00	 push	 OFFSET ??_C@_0DI@EGPAKGJE@?$FLCastleSpecialMix?$FN?5?$FL?$CFs?$FN?$FL?$CFs?$FN?5CBMi@
  0027f	ff 15 00 00 00
	00		 call	 DWORD PTR ?LogAddTD@@3P6AXPADZZA ; LogAddTD
  00285	83 c4 2c	 add	 esp, 44			; 0000002cH

; 4336 : 			lpObj->AccountID,lpObj->Name,lpObj->ChaosSuccessRate,lpObj->Money,nChaosNeedMoney);
; 4337 : 	}
; 4338 : 
; 4339 : 	lpObj->ChaosLock = FALSE;

  00288	eb 2a		 jmp	 SHORT $LN20@CastleSpec
$LN17@CastleSpec:

; 4288 : 	{
; 4289 : 		LogAddTD("[CastleSpecialMix] [%s][%s] Item Mix Failed - Item Error (DG:%d, BGx10:%d, SGx10:%d, Other:%d)",

  0028a	50		 push	 eax
  0028b	53		 push	 ebx
  0028c	52		 push	 edx
  0028d	51		 push	 ecx
  0028e	8d 46 5d	 lea	 eax, DWORD PTR [esi+93]
  00291	50		 push	 eax
  00292	8d 46 52	 lea	 eax, DWORD PTR [esi+82]
  00295	50		 push	 eax
  00296	68 00 00 00 00	 push	 OFFSET ??_C@_0FP@MMBGDNIO@?$FLCastleSpecialMix?$FN?5?$FL?$CFs?$FN?$FL?$CFs?$FN?5Item@
  0029b	ff 15 00 00 00
	00		 call	 DWORD PTR ?LogAddTD@@3P6AXPADZZA ; LogAddTD

; 4290 : 			lpObj->AccountID,lpObj->Name,iBlessGemMixCount,iSoulGemMixCount,iDefendGemCount,iInvalidItemCount);
; 4291 : 		DataSend(lpObj->m_Index,(PBYTE)&pMsg,pMsg.h.size);

  002a1	0f b6 45 ed	 movzx	 eax, BYTE PTR _pMsg$[ebp+1]
  002a5	50		 push	 eax
  002a6	8d 45 ec	 lea	 eax, DWORD PTR _pMsg$[ebp]
  002a9	50		 push	 eax
  002aa	ff 36		 push	 DWORD PTR [esi]
  002ac	e8 00 00 00 00	 call	 ?DataSend@@YAHHPAEK@Z	; DataSend
  002b1	83 c4 28	 add	 esp, 40			; 00000028H
$LN20@CastleSpec:

; 4340 : }

  002b4	8b 4d fc	 mov	 ecx, DWORD PTR __$ArrayPad$[ebp]
  002b7	5f		 pop	 edi
  002b8	c7 86 20 12 00
	00 00 00 00 00	 mov	 DWORD PTR [esi+4640], 0
  002c2	33 cd		 xor	 ecx, ebp
  002c4	5e		 pop	 esi
  002c5	5b		 pop	 ebx
  002c6	e8 00 00 00 00	 call	 @__security_check_cookie@4
  002cb	8b e5		 mov	 esp, ebp
  002cd	5d		 pop	 ebp
  002ce	c2 04 00	 ret	 4
?CastleSpecialItemMix@CChaosBox@@QAEXPAUOBJECTSTRUCT@@@Z ENDP ; CChaosBox::CastleSpecialItemMix
_TEXT	ENDS
; Function compile flags: /Ogtp
; File c:\users\michel\desktop\source\gameserver\source\chaosbox.cpp
;	COMDAT ?RandomLevelDown@CChaosBox@@QAEXPAVCItem@@@Z
_TEXT	SEGMENT
_lpItem$ = 8						; size = 4
?RandomLevelDown@CChaosBox@@QAEXPAVCItem@@@Z PROC	; CChaosBox::RandomLevelDown, COMDAT
; _this$ = ecx

; 4853 : {

  00000	55		 push	 ebp
  00001	8b ec		 mov	 ebp, esp
  00003	56		 push	 esi

; 4854 : 	if( lpItem == FALSE )

  00004	8b 75 08	 mov	 esi, DWORD PTR _lpItem$[ebp]
  00007	85 f6		 test	 esi, esi
  00009	74 70		 je	 SHORT $LN1@RandomLeve

; 4855 : 		return;
; 4856 : 
; 4857 : 	if( rand()%2 < 1 )

  0000b	e8 00 00 00 00	 call	 _rand
  00010	25 01 00 00 80	 and	 eax, -2147483647	; 80000001H
  00015	79 05		 jns	 SHORT $LN6@RandomLeve
  00017	48		 dec	 eax
  00018	83 c8 fe	 or	 eax, -2			; fffffffeH
  0001b	40		 inc	 eax
$LN6@RandomLeve:
  0001c	83 f8 01	 cmp	 eax, 1
  0001f	7d 07		 jge	 SHORT $LN3@RandomLeve

; 4858 : 	{
; 4859 : 		lpItem->m_Level -= 2;

  00021	66 83 46 08 fe	 add	 WORD PTR [esi+8], -2	; fffffffeH

; 4860 : 	}
; 4861 : 	else

  00026	eb 05		 jmp	 SHORT $LN4@RandomLeve
$LN3@RandomLeve:

; 4862 : 	{
; 4863 : 		lpItem->m_Level -= 3;

  00028	66 83 46 08 fd	 add	 WORD PTR [esi+8], -3	; fffffffdH
$LN4@RandomLeve:

; 4864 : 	}
; 4865 : 
; 4866 : 	lpItem->m_Option3 = 0;
; 4867 : 	lpItem->Convert(lpItem->m_Type,lpItem->m_Option1,lpItem->m_Option2,lpItem->m_Option3,lpItem->m_NewOption,lpItem->m_SetOption,lpItem->m_ItemOptionEx, lpItem->m_SocketOption, lpItem->m_SocketBonus,3);

  0002d	0f b6 86 c7 00
	00 00		 movzx	 eax, BYTE PTR [esi+199]
  00034	8b ce		 mov	 ecx, esi
  00036	6a 03		 push	 3
  00038	50		 push	 eax
  00039	8d 86 c8 00 00
	00		 lea	 eax, DWORD PTR [esi+200]
  0003f	c6 86 92 00 00
	00 00		 mov	 BYTE PTR [esi+146], 0
  00046	50		 push	 eax
  00047	0f b6 86 c6 00
	00 00		 movzx	 eax, BYTE PTR [esi+198]
  0004e	50		 push	 eax
  0004f	0f b6 86 aa 00
	00 00		 movzx	 eax, BYTE PTR [esi+170]
  00056	50		 push	 eax
  00057	0f b6 86 93 00
	00 00		 movzx	 eax, BYTE PTR [esi+147]
  0005e	50		 push	 eax
  0005f	0f b6 86 91 00
	00 00		 movzx	 eax, BYTE PTR [esi+145]
  00066	6a 00		 push	 0
  00068	50		 push	 eax
  00069	0f b6 86 90 00
	00 00		 movzx	 eax, BYTE PTR [esi+144]
  00070	50		 push	 eax
  00071	0f bf 46 06	 movsx	 eax, WORD PTR [esi+6]
  00075	50		 push	 eax
  00076	e8 00 00 00 00	 call	 ?Convert@CItem@@QAEXHEEEEEEPAEEE@Z ; CItem::Convert
$LN1@RandomLeve:
  0007b	5e		 pop	 esi

; 4868 : }

  0007c	5d		 pop	 ebp
  0007d	c2 04 00	 ret	 4
?RandomLevelDown@CChaosBox@@QAEXPAVCItem@@@Z ENDP	; CChaosBox::RandomLevelDown
_TEXT	ENDS
; Function compile flags: /Ogtp
; File c:\users\michel\desktop\source\gameserver\source\chaosbox.cpp
;	COMDAT ?ChaosBoxWingMixItemDown@CChaosBox@@QAEXPAUOBJECTSTRUCT@@@Z
_TEXT	SEGMENT
_lpObj$ = 8						; size = 4
?ChaosBoxWingMixItemDown@CChaosBox@@QAEXPAUOBJECTSTRUCT@@@Z PROC ; CChaosBox::ChaosBoxWingMixItemDown, COMDAT
; _this$ = ecx

; 4824 : {

  00000	55		 push	 ebp
  00001	8b ec		 mov	 ebp, esp
  00003	56		 push	 esi

; 4825 : 	if( lpObj->pChaosBox == FALSE )

  00004	8b 75 08	 mov	 esi, DWORD PTR _lpObj$[ebp]
  00007	57		 push	 edi
  00008	8b f9		 mov	 edi, ecx
  0000a	83 be 10 12 00
	00 00		 cmp	 DWORD PTR [esi+4624], 0
  00011	0f 84 9a 00 00
	00		 je	 $LN3@ChaosBoxWi

; 4826 : 		return;
; 4827 : 
; 4828 : 	for(int n = 0; n < CHAOS_BOX_SIZE; n++)

  00017	53		 push	 ebx
  00018	33 db		 xor	 ebx, ebx
  0001a	66 0f 1f 44 00
	00		 npad	 6
$LL4@ChaosBoxWi:

; 4829 : 	{
; 4830 : 		if( lpObj->pChaosBox[n].IsItem() == TRUE )

  00020	8b 8e 10 12 00
	00		 mov	 ecx, DWORD PTR [esi+4624]
  00026	03 cb		 add	 ecx, ebx
  00028	e8 00 00 00 00	 call	 ?IsItem@CItem@@QAEHXZ	; CItem::IsItem
  0002d	83 f8 01	 cmp	 eax, 1
  00030	75 6c		 jne	 SHORT $LN2@ChaosBoxWi

; 4831 : 		{
; 4832 : 			if( Is2ndLevelWing(lpObj->pChaosBox[n].m_Type) != FALSE )

  00032	8b b6 10 12 00
	00		 mov	 esi, DWORD PTR [esi+4624]
  00038	8b cf		 mov	 ecx, edi
  0003a	03 f3		 add	 esi, ebx
  0003c	0f bf 46 06	 movsx	 eax, WORD PTR [esi+6]
  00040	50		 push	 eax
  00041	e8 00 00 00 00	 call	 ?Is2ndLevelWing@CChaosBox@@QAEHH@Z ; CChaosBox::Is2ndLevelWing

; 4833 : 			{
; 4834 : 				RandomLevelDown(&lpObj->pChaosBox[n]);

  00046	8b cf		 mov	 ecx, edi
  00048	85 c0		 test	 eax, eax
  0004a	74 08		 je	 SHORT $LN7@ChaosBoxWi
  0004c	56		 push	 esi
  0004d	e8 00 00 00 00	 call	 ?RandomLevelDown@CChaosBox@@QAEXPAVCItem@@@Z ; CChaosBox::RandomLevelDown
  00052	eb 47		 jmp	 SHORT $LN18@ChaosBoxWi
$LN7@ChaosBoxWi:

; 4835 : 			}
; 4836 : 			else if( CheckItemOptions(&lpObj->pChaosBox[n],0,0,0,0,1,0) != FALSE )

  00054	6a 00		 push	 0
  00056	6a 01		 push	 1
  00058	6a 00		 push	 0
  0005a	6a 00		 push	 0
  0005c	6a 00		 push	 0
  0005e	6a 00		 push	 0
  00060	56		 push	 esi
  00061	e8 00 00 00 00	 call	 ?CheckItemOptions@CChaosBox@@QAEHPAVCItem@@FEEEEE@Z ; CChaosBox::CheckItemOptions

; 4837 : 			{
; 4838 : 				RandomLevelDown(&lpObj->pChaosBox[n]);

  00066	8b cf		 mov	 ecx, edi
  00068	85 c0		 test	 eax, eax
  0006a	74 08		 je	 SHORT $LN9@ChaosBoxWi
  0006c	56		 push	 esi
  0006d	e8 00 00 00 00	 call	 ?RandomLevelDown@CChaosBox@@QAEXPAVCItem@@@Z ; CChaosBox::RandomLevelDown
  00072	eb 27		 jmp	 SHORT $LN18@ChaosBoxWi
$LN9@ChaosBoxWi:

; 4839 : 			}
; 4840 : 			else if( CheckItemOptions(&lpObj->pChaosBox[n],0,0,0,0,0,1) != FALSE )

  00074	6a 01		 push	 1
  00076	6a 00		 push	 0
  00078	6a 00		 push	 0
  0007a	6a 00		 push	 0
  0007c	6a 00		 push	 0
  0007e	6a 00		 push	 0
  00080	56		 push	 esi
  00081	e8 00 00 00 00	 call	 ?CheckItemOptions@CChaosBox@@QAEHPAVCItem@@FEEEEE@Z ; CChaosBox::CheckItemOptions
  00086	85 c0		 test	 eax, eax
  00088	74 0a		 je	 SHORT $LN11@ChaosBoxWi

; 4841 : 			{
; 4842 : 				RandomLevelDown(&lpObj->pChaosBox[n]);

  0008a	56		 push	 esi
  0008b	8b cf		 mov	 ecx, edi
  0008d	e8 00 00 00 00	 call	 ?RandomLevelDown@CChaosBox@@QAEXPAVCItem@@@Z ; CChaosBox::RandomLevelDown

; 4843 : 			}
; 4844 : 			else

  00092	eb 07		 jmp	 SHORT $LN18@ChaosBoxWi
$LN11@ChaosBoxWi:

; 4845 : 			{
; 4846 : 				lpObj->pChaosBox[n].Clear();

  00094	8b ce		 mov	 ecx, esi
  00096	e8 00 00 00 00	 call	 ?Clear@CItem@@QAEXXZ	; CItem::Clear
$LN18@ChaosBoxWi:
  0009b	8b 75 08	 mov	 esi, DWORD PTR _lpObj$[ebp]
$LN2@ChaosBoxWi:

; 4826 : 		return;
; 4827 : 
; 4828 : 	for(int n = 0; n < CHAOS_BOX_SIZE; n++)

  0009e	81 c3 d4 00 00
	00		 add	 ebx, 212		; 000000d4H
  000a4	81 fb 80 1a 00
	00		 cmp	 ebx, 6784		; 00001a80H
  000aa	0f 8c 70 ff ff
	ff		 jl	 $LL4@ChaosBoxWi
  000b0	5b		 pop	 ebx
$LN3@ChaosBoxWi:
  000b1	5f		 pop	 edi
  000b2	5e		 pop	 esi

; 4847 : 			}
; 4848 : 		}
; 4849 : 	}
; 4850 : }

  000b3	5d		 pop	 ebp
  000b4	c2 04 00	 ret	 4
?ChaosBoxWingMixItemDown@CChaosBox@@QAEXPAUOBJECTSTRUCT@@@Z ENDP ; CChaosBox::ChaosBoxWingMixItemDown
_TEXT	ENDS
; Function compile flags: /Ogtp
; File c:\users\michel\desktop\source\gameserver\source\chaosbox.cpp
;	COMDAT ?CheckItemOptions@CChaosBox@@QAEHPAVCItem@@FEEEEE@Z
_TEXT	SEGMENT
_lpItem$ = 8						; size = 4
_iLevel$ = 12						; size = 2
_iOption1$ = 16						; size = 1
_iOption2$ = 20						; size = 1
_iOption3$ = 24						; size = 1
_iSetOption$ = 28					; size = 1
_iExcOption$ = 32					; size = 1
?CheckItemOptions@CChaosBox@@QAEHPAVCItem@@FEEEEE@Z PROC ; CChaosBox::CheckItemOptions, COMDAT
; _this$ = ecx

; 4150 : {

  00000	55		 push	 ebp
  00001	8b ec		 mov	 ebp, esp

; 4151 : 	if( lpItem == FALSE )

  00003	8b 45 08	 mov	 eax, DWORD PTR _lpItem$[ebp]
  00006	85 c0		 test	 eax, eax
  00008	75 06		 jne	 SHORT $LN2@CheckItemO
$LN16@CheckItemO:

; 4152 : 	{
; 4153 : 		return false;

  0000a	33 c0		 xor	 eax, eax

; 4204 : }

  0000c	5d		 pop	 ebp
  0000d	c2 1c 00	 ret	 28			; 0000001cH
$LN2@CheckItemO:

; 4154 : 	}
; 4155 : 
; 4156 : 	if( iLevel != FALSE )

  00010	66 8b 4d 0c	 mov	 cx, WORD PTR _iLevel$[ebp]
  00014	66 85 c9	 test	 cx, cx
  00017	74 06		 je	 SHORT $LN4@CheckItemO

; 4157 : 	{
; 4158 : 		if( lpItem->m_Level < iLevel )

  00019	66 39 48 08	 cmp	 WORD PTR [eax+8], cx
  0001d	7c eb		 jl	 SHORT $LN16@CheckItemO
$LN4@CheckItemO:

; 4159 : 		{
; 4160 : 			return FALSE;
; 4161 : 		}
; 4162 : 	}
; 4163 : 
; 4164 : 	if( iOption1 != FALSE )

  0001f	8a 4d 10	 mov	 cl, BYTE PTR _iOption1$[ebp]
  00022	84 c9		 test	 cl, cl
  00024	74 08		 je	 SHORT $LN6@CheckItemO

; 4165 : 	{
; 4166 : 		if( lpItem->m_Option1 < iOption1 )

  00026	38 88 90 00 00
	00		 cmp	 BYTE PTR [eax+144], cl
  0002c	72 dc		 jb	 SHORT $LN16@CheckItemO
$LN6@CheckItemO:

; 4167 : 		{
; 4168 : 			return FALSE;
; 4169 : 		}
; 4170 : 	}
; 4171 : 
; 4172 : 	if( iOption2 != FALSE )

  0002e	8a 4d 14	 mov	 cl, BYTE PTR _iOption2$[ebp]
  00031	84 c9		 test	 cl, cl
  00033	74 08		 je	 SHORT $LN8@CheckItemO

; 4173 : 	{
; 4174 : 		if( lpItem->m_Option2 < iOption2 )

  00035	38 88 91 00 00
	00		 cmp	 BYTE PTR [eax+145], cl
  0003b	72 cd		 jb	 SHORT $LN16@CheckItemO
$LN8@CheckItemO:

; 4175 : 		{
; 4176 : 			return FALSE;
; 4177 : 		}
; 4178 : 	}
; 4179 : 
; 4180 : 	if( iOption3 != FALSE )

  0003d	8a 4d 18	 mov	 cl, BYTE PTR _iOption3$[ebp]
  00040	84 c9		 test	 cl, cl
  00042	74 08		 je	 SHORT $LN10@CheckItemO

; 4181 : 	{
; 4182 : 		if( lpItem->m_Option3 < iOption3 )

  00044	38 88 92 00 00
	00		 cmp	 BYTE PTR [eax+146], cl
  0004a	72 be		 jb	 SHORT $LN16@CheckItemO
$LN10@CheckItemO:

; 4183 : 		{
; 4184 : 			return FALSE;
; 4185 : 		}
; 4186 : 	}
; 4187 : 
; 4188 : 	if( iSetOption != FALSE )

  0004c	80 7d 1c 00	 cmp	 BYTE PTR _iSetOption$[ebp], 0
  00050	74 09		 je	 SHORT $LN12@CheckItemO

; 4189 : 	{
; 4190 : 		if( lpItem->m_SetOption == FALSE )

  00052	80 b8 aa 00 00
	00 00		 cmp	 BYTE PTR [eax+170], 0
  00059	74 af		 je	 SHORT $LN16@CheckItemO
$LN12@CheckItemO:

; 4191 : 		{
; 4192 : 			return FALSE;
; 4193 : 		}
; 4194 : 	}
; 4195 : 
; 4196 : 	if( iExcOption != FALSE )

  0005b	80 7d 20 00	 cmp	 BYTE PTR _iExcOption$[ebp], 0
  0005f	74 09		 je	 SHORT $LN14@CheckItemO

; 4197 : 	{
; 4198 : 		if( lpItem->m_NewOption == FALSE )

  00061	80 b8 93 00 00
	00 00		 cmp	 BYTE PTR [eax+147], 0
  00068	74 a0		 je	 SHORT $LN16@CheckItemO
$LN14@CheckItemO:

; 4199 : 		{
; 4200 : 			return FALSE;
; 4201 : 		}
; 4202 : 	}
; 4203 : return TRUE;

  0006a	b8 01 00 00 00	 mov	 eax, 1

; 4204 : }

  0006f	5d		 pop	 ebp
  00070	c2 1c 00	 ret	 28			; 0000001cH
?CheckItemOptions@CChaosBox@@QAEHPAVCItem@@FEEEEE@Z ENDP ; CChaosBox::CheckItemOptions
_TEXT	ENDS
; Function compile flags: /Ogtp
; File c:\users\michel\desktop\source\gameserver\source\chaosbox.cpp
;	COMDAT ?Is2ndLevelWing@CChaosBox@@QAEHH@Z
_TEXT	SEGMENT
_iType$ = 8						; size = 4
?Is2ndLevelWing@CChaosBox@@QAEHH@Z PROC			; CChaosBox::Is2ndLevelWing, COMDAT
; _this$ = ecx

; 4135 : {

  00000	55		 push	 ebp
  00001	8b ec		 mov	 ebp, esp

; 4136 : 	if( iType == ITEMGET(12,3) ||
; 4137 : 		iType == ITEMGET(12,4) ||
; 4138 : 		iType == ITEMGET(12,5) ||
; 4139 : 		iType == ITEMGET(12,6) ||
; 4140 : 		iType == ITEMGET(13,30) ||
; 4141 : 		iType == ITEMGET(12,42) ||

  00003	8b 45 08	 mov	 eax, DWORD PTR _iType$[ebp]
  00006	3d 03 18 00 00	 cmp	 eax, 6147		; 00001803H
  0000b	74 30		 je	 SHORT $LN3@Is2ndLevel
  0000d	3d 04 18 00 00	 cmp	 eax, 6148		; 00001804H
  00012	74 29		 je	 SHORT $LN3@Is2ndLevel
  00014	3d 05 18 00 00	 cmp	 eax, 6149		; 00001805H
  00019	74 22		 je	 SHORT $LN3@Is2ndLevel
  0001b	3d 06 18 00 00	 cmp	 eax, 6150		; 00001806H
  00020	74 1b		 je	 SHORT $LN3@Is2ndLevel
  00022	3d 1e 1a 00 00	 cmp	 eax, 6686		; 00001a1eH
  00027	74 14		 je	 SHORT $LN3@Is2ndLevel
  00029	3d 2a 18 00 00	 cmp	 eax, 6186		; 0000182aH
  0002e	74 0d		 je	 SHORT $LN3@Is2ndLevel
  00030	3d 31 18 00 00	 cmp	 eax, 6193		; 00001831H
  00035	74 06		 je	 SHORT $LN3@Is2ndLevel

; 4145 : 	}
; 4146 : return FALSE;

  00037	33 c0		 xor	 eax, eax

; 4147 : }

  00039	5d		 pop	 ebp
  0003a	c2 04 00	 ret	 4
$LN3@Is2ndLevel:

; 4142 : 		iType == ITEMGET(12,49) )
; 4143 : 	{
; 4144 : 		return TRUE;

  0003d	b8 01 00 00 00	 mov	 eax, 1

; 4147 : }

  00042	5d		 pop	 ebp
  00043	c2 04 00	 ret	 4
?Is2ndLevelWing@CChaosBox@@QAEHH@Z ENDP			; CChaosBox::Is2ndLevelWing
_TEXT	ENDS
; Function compile flags: /Ogtp
; File c:\users\michel\desktop\source\gameserver\source\chaosbox.cpp
;	COMDAT ?Is1stLevelWing@CChaosBox@@QAEHH@Z
_TEXT	SEGMENT
_iType$ = 8						; size = 4
?Is1stLevelWing@CChaosBox@@QAEHH@Z PROC			; CChaosBox::Is1stLevelWing, COMDAT
; _this$ = ecx

; 4123 : {

  00000	55		 push	 ebp
  00001	8b ec		 mov	 ebp, esp

; 4124 : 	if( iType == ITEMGET(12,0) ||
; 4125 : 		iType == ITEMGET(12,1) ||
; 4126 : 		iType == ITEMGET(12,2) ||

  00003	8b 45 08	 mov	 eax, DWORD PTR _iType$[ebp]
  00006	3d 00 18 00 00	 cmp	 eax, 6144		; 00001800H
  0000b	74 1b		 je	 SHORT $LN3@Is1stLevel
  0000d	3d 01 18 00 00	 cmp	 eax, 6145		; 00001801H
  00012	74 14		 je	 SHORT $LN3@Is1stLevel
  00014	3d 02 18 00 00	 cmp	 eax, 6146		; 00001802H
  00019	74 0d		 je	 SHORT $LN3@Is1stLevel
  0001b	3d 29 18 00 00	 cmp	 eax, 6185		; 00001829H
  00020	74 06		 je	 SHORT $LN3@Is1stLevel

; 4130 : 	}
; 4131 : return FALSE;

  00022	33 c0		 xor	 eax, eax

; 4132 : }

  00024	5d		 pop	 ebp
  00025	c2 04 00	 ret	 4
$LN3@Is1stLevel:

; 4127 : 		iType == ITEMGET(12,41) )
; 4128 : 	{
; 4129 : 		return TRUE;

  00028	b8 01 00 00 00	 mov	 eax, 1

; 4132 : }

  0002d	5d		 pop	 ebp
  0002e	c2 04 00	 ret	 4
?Is1stLevelWing@CChaosBox@@QAEHH@Z ENDP			; CChaosBox::Is1stLevelWing
_TEXT	ENDS
; Function compile flags: /Ogtp
; File c:\users\michel\desktop\source\gameserver\source\chaosbox.cpp
;	COMDAT ?IsCondorItem@CChaosBox@@QAEHH@Z
_TEXT	SEGMENT
_iType$ = 8						; size = 4
?IsCondorItem@CChaosBox@@QAEHH@Z PROC			; CChaosBox::IsCondorItem, COMDAT
; _this$ = ecx

; 4113 : {

  00000	55		 push	 ebp
  00001	8b ec		 mov	 ebp, esp

; 4114 : 	if( iType == iCondorStone ||

  00003	8b 45 08	 mov	 eax, DWORD PTR _iType$[ebp]
  00006	3b 41 20	 cmp	 eax, DWORD PTR [ecx+32]
  00009	74 0b		 je	 SHORT $LN3@IsCondorIt
  0000b	3b 41 1c	 cmp	 eax, DWORD PTR [ecx+28]
  0000e	74 06		 je	 SHORT $LN3@IsCondorIt

; 4118 : 	}
; 4119 : return FALSE;

  00010	33 c0		 xor	 eax, eax

; 4120 : }

  00012	5d		 pop	 ebp
  00013	c2 04 00	 ret	 4
$LN3@IsCondorIt:

; 4115 : 		iType == iCondorFeather )
; 4116 : 	{
; 4117 : 		return TRUE;

  00016	b8 01 00 00 00	 mov	 eax, 1

; 4120 : }

  0001b	5d		 pop	 ebp
  0001c	c2 04 00	 ret	 4
?IsCondorItem@CChaosBox@@QAEHH@Z ENDP			; CChaosBox::IsCondorItem
_TEXT	ENDS
; Function compile flags: /Ogtp
; File c:\users\michel\desktop\source\gameserver\source\chaosbox.cpp
;	COMDAT ?ChaosBoxSpecialItemDown@CChaosBox@@QAEXPAUOBJECTSTRUCT@@@Z
_TEXT	SEGMENT
_this$1$ = -4						; size = 4
tv210 = 8						; size = 4
_lpObj$ = 8						; size = 4
?ChaosBoxSpecialItemDown@CChaosBox@@QAEXPAUOBJECTSTRUCT@@@Z PROC ; CChaosBox::ChaosBoxSpecialItemDown, COMDAT
; _this$ = ecx

; 1414 : {

  00000	55		 push	 ebp
  00001	8b ec		 mov	 ebp, esp
  00003	51		 push	 ecx
  00004	53		 push	 ebx
  00005	8b 5d 08	 mov	 ebx, DWORD PTR _lpObj$[ebp]
  00008	56		 push	 esi
  00009	57		 push	 edi

; 1415 : 	for ( int n=0;n<CHAOS_BOX_SIZE;n++)

  0000a	33 ff		 xor	 edi, edi
  0000c	89 4d fc	 mov	 DWORD PTR _this$1$[ebp], ecx
  0000f	33 f6		 xor	 esi, esi
$LL4@ChaosBoxSp:

; 1416 : 	{
; 1417 : 		if( lpObj->pChaosBox[n].IsItem() == TRUE )

  00011	8b 8b 10 12 00
	00		 mov	 ecx, DWORD PTR [ebx+4624]
  00017	03 ce		 add	 ecx, esi
  00019	e8 00 00 00 00	 call	 ?IsItem@CItem@@QAEHXZ	; CItem::IsItem
  0001e	83 f8 01	 cmp	 eax, 1
  00021	75 3c		 jne	 SHORT $LN2@ChaosBoxSp

; 1418 : 		{
; 1419 : 			lpObj->pChaosBox[n].m_Level = 0;

  00023	8b 83 10 12 00
	00		 mov	 eax, DWORD PTR [ebx+4624]
  00029	33 c9		 xor	 ecx, ecx
  0002b	66 89 4c 30 08	 mov	 WORD PTR [eax+esi+8], cx

; 1420 : 			int iType = lpObj->pChaosBox[n].m_Type;

  00030	8b 83 10 12 00
	00		 mov	 eax, DWORD PTR [ebx+4624]

; 1421 : 
; 1422 : 			if( IsPlusItemJewel(iType) == TRUE )

  00036	8b 4d fc	 mov	 ecx, DWORD PTR _this$1$[ebp]
  00039	03 c6		 add	 eax, esi
  0003b	89 45 08	 mov	 DWORD PTR tv210[ebp], eax
  0003e	0f bf 40 06	 movsx	 eax, WORD PTR [eax+6]
  00042	50		 push	 eax
  00043	e8 00 00 00 00	 call	 ?IsPlusItemJewel@CChaosBox@@QAEHH@Z ; CChaosBox::IsPlusItemJewel
  00048	83 f8 01	 cmp	 eax, 1
  0004b	75 12		 jne	 SHORT $LN2@ChaosBoxSp

; 1423 : 			{
; 1424 : 				lpObj->pChaosBox[n].Clear();

  0004d	8b 4d 08	 mov	 ecx, DWORD PTR tv210[ebp]
  00050	e8 00 00 00 00	 call	 ?Clear@CItem@@QAEXXZ	; CItem::Clear

; 1425 : 				lpObj->pChaosBoxMap[n] = 0xFF;

  00055	8b 83 14 12 00
	00		 mov	 eax, DWORD PTR [ebx+4628]
  0005b	c6 04 07 ff	 mov	 BYTE PTR [edi+eax], 255	; 000000ffH
$LN2@ChaosBoxSp:

; 1415 : 	for ( int n=0;n<CHAOS_BOX_SIZE;n++)

  0005f	81 c6 d4 00 00
	00		 add	 esi, 212		; 000000d4H
  00065	47		 inc	 edi
  00066	81 fe 80 1a 00
	00		 cmp	 esi, 6784		; 00001a80H
  0006c	7c a3		 jl	 SHORT $LL4@ChaosBoxSp
  0006e	5f		 pop	 edi
  0006f	5e		 pop	 esi
  00070	5b		 pop	 ebx

; 1426 : 			}
; 1427 : 		}
; 1428 : 	}
; 1429 : }

  00071	8b e5		 mov	 esp, ebp
  00073	5d		 pop	 ebp
  00074	c2 04 00	 ret	 4
?ChaosBoxSpecialItemDown@CChaosBox@@QAEXPAUOBJECTSTRUCT@@@Z ENDP ; CChaosBox::ChaosBoxSpecialItemDown
_TEXT	ENDS
; Function compile flags: /Ogtp
; File c:\users\michel\desktop\source\gameserver\source\chaosbox.cpp
;	COMDAT ?IsPlusItemJewel@CChaosBox@@QAEHH@Z
_TEXT	SEGMENT
_iType$ = 8						; size = 4
?IsPlusItemJewel@CChaosBox@@QAEHH@Z PROC		; CChaosBox::IsPlusItemJewel, COMDAT
; _this$ = ecx

; 1432 : {

  00000	55		 push	 ebp
  00001	8b ec		 mov	 ebp, esp

; 1433 : 	switch( iType )

  00003	8b 45 08	 mov	 eax, DWORD PTR _iType$[ebp]
  00006	3d 35 1c 00 00	 cmp	 eax, 7221		; 00001c35H
  0000b	7f 17		 jg	 SHORT $LN7@IsPlusItem
  0000d	74 30		 je	 SHORT $LN4@IsPlusItem
  0000f	3d 0f 18 00 00	 cmp	 eax, 6159		; 0000180fH
  00014	74 29		 je	 SHORT $LN4@IsPlusItem
  00016	3d 0c 1c 00 00	 cmp	 eax, 7180		; 00001c0cH
  0001b	7e 1c		 jle	 SHORT $LN5@IsPlusItem
  0001d	3d 0e 1c 00 00	 cmp	 eax, 7182		; 00001c0eH
  00022	eb 13		 jmp	 SHORT $LN8@IsPlusItem
$LN7@IsPlusItem:
  00024	3d 60 1c 00 00	 cmp	 eax, 7264		; 00001c60H
  00029	74 14		 je	 SHORT $LN4@IsPlusItem
  0002b	3d bc 1c 00 00	 cmp	 eax, 7356		; 00001cbcH
  00030	7e 07		 jle	 SHORT $LN5@IsPlusItem
  00032	3d be 1c 00 00	 cmp	 eax, 7358		; 00001cbeH
$LN8@IsPlusItem:
  00037	7e 06		 jle	 SHORT $LN4@IsPlusItem
$LN5@IsPlusItem:

; 1443 : 	default:
; 1444 : 		return FALSE;

  00039	33 c0		 xor	 eax, eax

; 1445 : 	}
; 1446 : }

  0003b	5d		 pop	 ebp
  0003c	c2 04 00	 ret	 4
$LN4@IsPlusItem:

; 1434 : 	{
; 1435 : 	case ITEMGET(14, 53):
; 1436 : 	case ITEMGET(12, 15):
; 1437 : 	case ITEMGET(14, 13):
; 1438 : 	case ITEMGET(14, 14):
; 1439 : 	case ITEMGET(14, 96):
; 1440 : 	case ITEMGET(14, 189):
; 1441 : 	case ITEMGET(14, 190):
; 1442 : 		return TRUE;

  0003f	b8 01 00 00 00	 mov	 eax, 1

; 1445 : 	}
; 1446 : }

  00044	5d		 pop	 ebp
  00045	c2 04 00	 ret	 4
?IsPlusItemJewel@CChaosBox@@QAEHH@Z ENDP		; CChaosBox::IsPlusItemJewel
_TEXT	ENDS
; Function compile flags: /Ogtp
; File c:\users\michel\desktop\source\gameserver\source\chaosbox.cpp
;	COMDAT ?SocketItemMix@CChaosBox@@QAEXPAUOBJECTSTRUCT@@H@Z
_TEXT	SEGMENT
_lpObj$GSCopy$1$ = -176					; size = 4
tv706 = -172						; size = 4
tv704 = -168						; size = 4
tv702 = -164						; size = 4
tv700 = -160						; size = 4
tv698 = -156						; size = 4
tv696 = -152						; size = 4
tv694 = -148						; size = 4
tv692 = -144						; size = 4
tv690 = -140						; size = 4
tv688 = -136						; size = 4
tv686 = -132						; size = 4
tv684 = -128						; size = 4
tv682 = -124						; size = 4
tv680 = -120						; size = 4
tv678 = -116						; size = 4
tv676 = -112						; size = 4
tv674 = -108						; size = 4
tv671 = -104						; size = 4
tv668 = -100						; size = 4
tv666 = -96						; size = 4
tv664 = -92						; size = 4
tv662 = -88						; size = 4
_this$1$ = -84						; size = 4
_iSocketItemCount$1$ = -80				; size = 4
_iCharmOfLuckCount$1$ = -76				; size = 4
tv762 = -72						; size = 4
_iSocketItem$1$ = -68					; size = 4
_iMaterial2Index$1$ = -64				; size = 4
_iOtherItemCount$1$ = -60				; size = 4
_pMsg$ = -56						; size = 16
_iMaterialCount$ = -40					; size = 36
__$ArrayPad$ = -4					; size = 4
_lpObj$ = 8						; size = 4
_iMixId$ = 12						; size = 4
?SocketItemMix@CChaosBox@@QAEXPAUOBJECTSTRUCT@@H@Z PROC	; CChaosBox::SocketItemMix, COMDAT
; _this$ = ecx

; 6165 : {

  00000	55		 push	 ebp
  00001	8b ec		 mov	 ebp, esp
  00003	81 ec b0 00 00
	00		 sub	 esp, 176		; 000000b0H
  00009	a1 00 00 00 00	 mov	 eax, DWORD PTR ___security_cookie
  0000e	33 c5		 xor	 eax, ebp
  00010	89 45 fc	 mov	 DWORD PTR __$ArrayPad$[ebp], eax
  00013	53		 push	 ebx
  00014	8b 5d 08	 mov	 ebx, DWORD PTR _lpObj$[ebp]

; 6166 : 	lpObj->ChaosLock = TRUE;
; 6167 : 
; 6168 : 	int iSocketItem = -1;

  00017	83 c8 ff	 or	 eax, -1
  0001a	56		 push	 esi
  0001b	57		 push	 edi
  0001c	89 45 bc	 mov	 DWORD PTR _iSocketItem$1$[ebp], eax
  0001f	0f 57 c0	 xorps	 xmm0, xmm0

; 6169 : 	int iNeedChaosMoney;
; 6170 : 
; 6171 : 	int iSocketItemCount = 0;

  00022	33 c0		 xor	 eax, eax
  00024	89 4d ac	 mov	 DWORD PTR _this$1$[ebp], ecx

; 6172 : 	int iRecipeCount = 0;
; 6173 : 	int iMaterial1Index = -1;
; 6174 : 	int iMaterial2Index = -1;
; 6175 : 	int iMaterialCount[9] = {0};
; 6176 : 	int iCharmOfLuckCount = 0;
; 6177 : 	int iOtherItemCount = 0;
; 6178 : 
; 6179 : 	PMSG_CHAOSMIXRESULT pMsg;
; 6180 : 
; 6181 : 	PHeadSetB((LPBYTE)&pMsg.h, 0x86, sizeof(PMSG_CHAOSMIXRESULT));

  00027	6a 10		 push	 16			; 00000010H
  00029	89 45 b0	 mov	 DWORD PTR _iSocketItemCount$1$[ebp], eax
  0002c	83 cf ff	 or	 edi, -1
  0002f	89 45 f8	 mov	 DWORD PTR _iMaterialCount$[ebp+32], eax
  00032	33 f6		 xor	 esi, esi
  00034	89 45 b4	 mov	 DWORD PTR _iCharmOfLuckCount$1$[ebp], eax
  00037	89 45 c4	 mov	 DWORD PTR _iOtherItemCount$1$[ebp], eax
  0003a	8d 45 c8	 lea	 eax, DWORD PTR _pMsg$[ebp]
  0003d	68 86 00 00 00	 push	 134			; 00000086H
  00042	50		 push	 eax
  00043	89 9d 50 ff ff
	ff		 mov	 DWORD PTR _lpObj$GSCopy$1$[ebp], ebx
  00049	c7 83 20 12 00
	00 01 00 00 00	 mov	 DWORD PTR [ebx+4640], 1
  00053	89 7d c0	 mov	 DWORD PTR _iMaterial2Index$1$[ebp], edi
  00056	0f 11 45 d8	 movups	 XMMWORD PTR _iMaterialCount$[ebp], xmm0
  0005a	0f 11 45 e8	 movups	 XMMWORD PTR _iMaterialCount$[ebp+16], xmm0
  0005e	e8 00 00 00 00	 call	 ?PHeadSetB@@YAXPAEEH@Z	; PHeadSetB
  00063	83 c4 0c	 add	 esp, 12			; 0000000cH

; 6182 : 	pMsg.Result = CB_ERROR;

  00066	c6 45 cb 00	 mov	 BYTE PTR _pMsg$[ebp+3], 0
  0006a	33 d2		 xor	 edx, edx
  0006c	c7 45 a8 bf 1c
	00 00		 mov	 DWORD PTR tv662[ebp], 7359 ; 00001cbfH
  00073	89 55 b8	 mov	 DWORD PTR tv762[ebp], edx
  00076	c7 45 a4 c0 1c
	00 00		 mov	 DWORD PTR tv664[ebp], 7360 ; 00001cc0H
  0007d	c7 45 a0 c1 1c
	00 00		 mov	 DWORD PTR tv666[ebp], 7361 ; 00001cc1H
  00084	c7 45 9c c2 1c
	00 00		 mov	 DWORD PTR tv668[ebp], 7362 ; 00001cc2H
  0008b	c7 45 98 c3 1c
	00 00		 mov	 DWORD PTR tv671[ebp], 7363 ; 00001cc3H
  00092	c7 45 94 c4 1c
	00 00		 mov	 DWORD PTR tv674[ebp], 7364 ; 00001cc4H
  00099	c7 45 90 c5 1c
	00 00		 mov	 DWORD PTR tv676[ebp], 7365 ; 00001cc5H
  000a0	c7 45 8c c6 1c
	00 00		 mov	 DWORD PTR tv678[ebp], 7366 ; 00001cc6H
  000a7	c7 45 88 c7 1c
	00 00		 mov	 DWORD PTR tv680[ebp], 7367 ; 00001cc7H
  000ae	c7 45 84 c8 1c
	00 00		 mov	 DWORD PTR tv682[ebp], 7368 ; 00001cc8H
  000b5	c7 45 80 c9 1c
	00 00		 mov	 DWORD PTR tv684[ebp], 7369 ; 00001cc9H
  000bc	c7 85 7c ff ff
	ff ca 1c 00 00	 mov	 DWORD PTR tv686[ebp], 7370 ; 00001ccaH
  000c6	c7 85 78 ff ff
	ff b4 1c 00 00	 mov	 DWORD PTR tv688[ebp], 7348 ; 00001cb4H
  000d0	c7 85 74 ff ff
	ff b5 1c 00 00	 mov	 DWORD PTR tv690[ebp], 7349 ; 00001cb5H
  000da	c7 85 70 ff ff
	ff b6 1c 00 00	 mov	 DWORD PTR tv692[ebp], 7350 ; 00001cb6H
  000e4	c7 85 6c ff ff
	ff b7 1c 00 00	 mov	 DWORD PTR tv694[ebp], 7351 ; 00001cb7H
  000ee	c7 85 68 ff ff
	ff b8 1c 00 00	 mov	 DWORD PTR tv696[ebp], 7352 ; 00001cb8H
  000f8	c7 85 64 ff ff
	ff b9 1c 00 00	 mov	 DWORD PTR tv698[ebp], 7353 ; 00001cb9H
  00102	c7 85 60 ff ff
	ff ba 1c 00 00	 mov	 DWORD PTR tv700[ebp], 7354 ; 00001cbaH
  0010c	c7 85 5c ff ff
	ff bb 1c 00 00	 mov	 DWORD PTR tv702[ebp], 7355 ; 00001cbbH
  00116	c7 85 58 ff ff
	ff bc 1c 00 00	 mov	 DWORD PTR tv704[ebp], 7356 ; 00001cbcH
  00120	c7 85 54 ff ff
	ff 35 1c 00 00	 mov	 DWORD PTR tv706[ebp], 7221 ; 00001c35H
  0012a	66 0f 1f 44 00
	00		 npad	 6
$LL4@SocketItem:

; 6185 : 		if( !lpObj->pChaosBox[n].IsItem() )

  00130	8b 8b 10 12 00
	00		 mov	 ecx, DWORD PTR [ebx+4624]
  00136	03 ca		 add	 ecx, edx
  00138	e8 00 00 00 00	 call	 ?IsItem@CItem@@QAEHXZ	; CItem::IsItem
  0013d	85 c0		 test	 eax, eax
  0013f	0f 84 6c 02 00
	00		 je	 $LN85@SocketItem

; 6186 : 			continue;
; 6187 : 
; 6188 : 		if( g_SocketItem.IsSocketItem(lpObj->pChaosBox[n].m_Type) &&
; 6189 : 			lpObj->pChaosBox[n].m_Level >= 7 &&

  00145	8b 83 10 12 00
	00		 mov	 eax, DWORD PTR [ebx+4624]
  0014b	8b 4d b8	 mov	 ecx, DWORD PTR tv762[ebp]
  0014e	0f bf 44 01 06	 movsx	 eax, WORD PTR [ecx+eax+6]
  00153	b9 00 00 00 00	 mov	 ecx, OFFSET ?g_SocketItem@@3VCSocketItems@@A ; g_SocketItem
  00158	50		 push	 eax
  00159	e8 00 00 00 00	 call	 ?IsSocketItem@CSocketItems@@QAE_NH@Z ; CSocketItems::IsSocketItem
  0015e	8b 55 b8	 mov	 edx, DWORD PTR tv762[ebp]
  00161	84 c0		 test	 al, al
  00163	74 20		 je	 SHORT $LN11@SocketItem
  00165	8b 83 10 12 00
	00		 mov	 eax, DWORD PTR [ebx+4624]
  0016b	66 83 7c 02 08
	07		 cmp	 WORD PTR [edx+eax+8], 7
  00171	7c 12		 jl	 SHORT $LN11@SocketItem
  00173	80 bc 02 92 00
	00 00 01	 cmp	 BYTE PTR [edx+eax+146], 1
  0017b	72 08		 jb	 SHORT $LN11@SocketItem

; 6190 : 			lpObj->pChaosBox[n].m_Option3 >= 1 )
; 6191 : 		{
; 6192 : 			iSocketItemCount++;

  0017d	ff 45 b0	 inc	 DWORD PTR _iSocketItemCount$1$[ebp]
  00180	e9 2f 02 00 00	 jmp	 $LN88@SocketItem
$LN11@SocketItem:

; 6193 : 		}
; 6194 : 		else if( lpObj->pChaosBox[n].m_Type == ITEMGET(14,191) )

  00185	8b 8b 10 12 00
	00		 mov	 ecx, DWORD PTR [ebx+4624]
  0018b	0f b7 44 0a 06	 movzx	 eax, WORD PTR [edx+ecx+6]
  00190	66 3b 45 a8	 cmp	 ax, WORD PTR tv662[ebp]
  00194	75 17		 jne	 SHORT $LN13@SocketItem

; 6195 : 		{
; 6196 : 			iSocketItem = ITEMGET(0,29);
; 6197 : 			iMaterial1Index = 0;
; 6198 : 			iMaterial2Index = 8;

  00196	b9 08 00 00 00	 mov	 ecx, 8
  0019b	c7 45 bc 1d 00
	00 00		 mov	 DWORD PTR _iSocketItem$1$[ebp], 29 ; 0000001dH
  001a2	33 ff		 xor	 edi, edi
  001a4	89 4d c0	 mov	 DWORD PTR _iMaterial2Index$1$[ebp], ecx

; 6199 : 			iRecipeCount++;

  001a7	46		 inc	 esi
  001a8	e9 0a 02 00 00	 jmp	 $LN89@SocketItem
$LN13@SocketItem:

; 6200 : 		}
; 6201 : 		else if( lpObj->pChaosBox[n].m_Type == ITEMGET(14,192) )

  001ad	66 3b 45 a4	 cmp	 ax, WORD PTR tv664[ebp]
  001b1	75 1a		 jne	 SHORT $LN15@SocketItem

; 6202 : 		{
; 6203 : 			iSocketItem = ITEMGET(0,36);
; 6204 : 			iMaterial1Index = 1;
; 6205 : 			iMaterial2Index = 5;

  001b3	b9 05 00 00 00	 mov	 ecx, 5
  001b8	c7 45 bc 24 00
	00 00		 mov	 DWORD PTR _iSocketItem$1$[ebp], 36 ; 00000024H
  001bf	bf 01 00 00 00	 mov	 edi, 1
  001c4	89 4d c0	 mov	 DWORD PTR _iMaterial2Index$1$[ebp], ecx

; 6206 : 			iRecipeCount++;

  001c7	46		 inc	 esi
  001c8	e9 ea 01 00 00	 jmp	 $LN89@SocketItem
$LN15@SocketItem:

; 6207 : 		}
; 6208 : 		else if( lpObj->pChaosBox[n].m_Type == ITEMGET(14,193) )

  001cd	66 3b 45 a0	 cmp	 ax, WORD PTR tv666[ebp]
  001d1	75 1a		 jne	 SHORT $LN17@SocketItem

; 6209 : 		{
; 6210 : 			iSocketItem = ITEMGET(0,37);
; 6211 : 			
; 6212 : 			iMaterial1Index = 2;
; 6213 : 			iMaterial2Index = 8;

  001d3	b9 08 00 00 00	 mov	 ecx, 8
  001d8	c7 45 bc 25 00
	00 00		 mov	 DWORD PTR _iSocketItem$1$[ebp], 37 ; 00000025H
  001df	bf 02 00 00 00	 mov	 edi, 2
  001e4	89 4d c0	 mov	 DWORD PTR _iMaterial2Index$1$[ebp], ecx

; 6214 : 			iRecipeCount++;

  001e7	46		 inc	 esi
  001e8	e9 ca 01 00 00	 jmp	 $LN89@SocketItem
$LN17@SocketItem:

; 6215 : 		}
; 6216 : 		else if( lpObj->pChaosBox[n].m_Type == ITEMGET(14,194) )

  001ed	66 3b 45 9c	 cmp	 ax, WORD PTR tv668[ebp]
  001f1	75 1a		 jne	 SHORT $LN19@SocketItem

; 6217 : 		{
; 6218 : 			iSocketItem = ITEMGET(3,12);
; 6219 : 			iMaterial1Index = 3;
; 6220 : 			iMaterial2Index = 5;

  001f3	b9 05 00 00 00	 mov	 ecx, 5
  001f8	c7 45 bc 0c 06
	00 00		 mov	 DWORD PTR _iSocketItem$1$[ebp], 1548 ; 0000060cH
  001ff	bf 03 00 00 00	 mov	 edi, 3
  00204	89 4d c0	 mov	 DWORD PTR _iMaterial2Index$1$[ebp], ecx

; 6221 : 			iRecipeCount++;

  00207	46		 inc	 esi
  00208	e9 aa 01 00 00	 jmp	 $LN89@SocketItem
$LN19@SocketItem:

; 6222 : 		}
; 6223 : 		else if( lpObj->pChaosBox[n].m_Type == ITEMGET(14,195) )

  0020d	66 3b 45 98	 cmp	 ax, WORD PTR tv671[ebp]
  00211	75 1a		 jne	 SHORT $LN21@SocketItem

; 6224 : 		{
; 6225 : 			iSocketItem = ITEMGET(2,20);
; 6226 : 			iMaterial1Index = 2;
; 6227 : 			iMaterial2Index = 6;

  00213	b9 06 00 00 00	 mov	 ecx, 6
  00218	c7 45 bc 14 04
	00 00		 mov	 DWORD PTR _iSocketItem$1$[ebp], 1044 ; 00000414H
  0021f	bf 02 00 00 00	 mov	 edi, 2
  00224	89 4d c0	 mov	 DWORD PTR _iMaterial2Index$1$[ebp], ecx

; 6228 : 			iRecipeCount++;

  00227	46		 inc	 esi
  00228	e9 8a 01 00 00	 jmp	 $LN89@SocketItem
$LN21@SocketItem:

; 6229 : 		}
; 6230 : 		else if( lpObj->pChaosBox[n].m_Type == ITEMGET(14,196) )

  0022d	66 3b 45 94	 cmp	 ax, WORD PTR tv674[ebp]
  00231	75 17		 jne	 SHORT $LN23@SocketItem

; 6231 : 		{
; 6232 : 			iSocketItem = ITEMGET(4,25);
; 6233 : 			iMaterial1Index = 0;
; 6234 : 			iMaterial2Index = 5;

  00233	b9 05 00 00 00	 mov	 ecx, 5
  00238	c7 45 bc 19 08
	00 00		 mov	 DWORD PTR _iSocketItem$1$[ebp], 2073 ; 00000819H
  0023f	33 ff		 xor	 edi, edi
  00241	89 4d c0	 mov	 DWORD PTR _iMaterial2Index$1$[ebp], ecx

; 6235 : 			iRecipeCount++;

  00244	46		 inc	 esi
  00245	e9 6d 01 00 00	 jmp	 $LN89@SocketItem
$LN23@SocketItem:

; 6236 : 		}
; 6237 : 		else if( lpObj->pChaosBox[n].m_Type == ITEMGET(14,197) )

  0024a	66 3b 45 90	 cmp	 ax, WORD PTR tv676[ebp]
  0024e	75 1a		 jne	 SHORT $LN25@SocketItem

; 6238 : 		{
; 6239 : 			iSocketItem = ITEMGET(4,26);
; 6240 : 			iMaterial1Index = 4;
; 6241 : 			iMaterial2Index = 7;

  00250	b9 07 00 00 00	 mov	 ecx, 7
  00255	c7 45 bc 1a 08
	00 00		 mov	 DWORD PTR _iSocketItem$1$[ebp], 2074 ; 0000081aH
  0025c	bf 04 00 00 00	 mov	 edi, 4
  00261	89 4d c0	 mov	 DWORD PTR _iMaterial2Index$1$[ebp], ecx

; 6242 : 			iRecipeCount++;

  00264	46		 inc	 esi
  00265	e9 4d 01 00 00	 jmp	 $LN89@SocketItem
$LN25@SocketItem:

; 6243 : 		}
; 6244 : 		else if( lpObj->pChaosBox[n].m_Type == ITEMGET(14,198) )

  0026a	66 3b 45 8c	 cmp	 ax, WORD PTR tv678[ebp]
  0026e	75 1a		 jne	 SHORT $LN27@SocketItem

; 6245 : 		{
; 6246 : 			iSocketItem = ITEMGET(5,35);
; 6247 : 			iMaterial1Index = 2;
; 6248 : 			iMaterial2Index = 5;

  00270	b9 05 00 00 00	 mov	 ecx, 5
  00275	c7 45 bc 23 0a
	00 00		 mov	 DWORD PTR _iSocketItem$1$[ebp], 2595 ; 00000a23H
  0027c	bf 02 00 00 00	 mov	 edi, 2
  00281	89 4d c0	 mov	 DWORD PTR _iMaterial2Index$1$[ebp], ecx

; 6249 : 			iRecipeCount++;

  00284	46		 inc	 esi
  00285	e9 2d 01 00 00	 jmp	 $LN89@SocketItem
$LN27@SocketItem:

; 6250 : 		}
; 6251 : 		else if( lpObj->pChaosBox[n].m_Type == ITEMGET(14,199) )

  0028a	66 3b 45 88	 cmp	 ax, WORD PTR tv680[ebp]
  0028e	75 1a		 jne	 SHORT $LN29@SocketItem

; 6252 : 		{
; 6253 : 			iSocketItem = ITEMGET(5,37);
; 6254 : 			iMaterial1Index = 4;
; 6255 : 			iMaterial2Index = 6;

  00290	b9 06 00 00 00	 mov	 ecx, 6
  00295	c7 45 bc 25 0a
	00 00		 mov	 DWORD PTR _iSocketItem$1$[ebp], 2597 ; 00000a25H
  0029c	bf 04 00 00 00	 mov	 edi, 4
  002a1	89 4d c0	 mov	 DWORD PTR _iMaterial2Index$1$[ebp], ecx

; 6256 : 			iRecipeCount++;

  002a4	46		 inc	 esi
  002a5	e9 0d 01 00 00	 jmp	 $LN89@SocketItem
$LN29@SocketItem:

; 6257 : 		}
; 6258 : 		else if( lpObj->pChaosBox[n].m_Type == ITEMGET(14,200) )

  002aa	66 3b 45 84	 cmp	 ax, WORD PTR tv682[ebp]
  002ae	75 1a		 jne	 SHORT $LN31@SocketItem

; 6259 : 		{
; 6260 : 			iSocketItem = ITEMGET(0,30);
; 6261 : 			iMaterial1Index = 4;
; 6262 : 			iMaterial2Index = 8;

  002b0	b9 08 00 00 00	 mov	 ecx, 8
  002b5	c7 45 bc 1e 00
	00 00		 mov	 DWORD PTR _iSocketItem$1$[ebp], 30 ; 0000001eH
  002bc	bf 04 00 00 00	 mov	 edi, 4
  002c1	89 4d c0	 mov	 DWORD PTR _iMaterial2Index$1$[ebp], ecx

; 6263 : 			iRecipeCount++;

  002c4	46		 inc	 esi
  002c5	e9 ed 00 00 00	 jmp	 $LN89@SocketItem
$LN31@SocketItem:

; 6264 : 		}
; 6265 : 		else if( lpObj->pChaosBox[n].m_Type == ITEMGET(14,201) )

  002ca	66 3b 45 80	 cmp	 ax, WORD PTR tv684[ebp]
  002ce	75 1a		 jne	 SHORT $LN33@SocketItem

; 6266 : 		{
; 6267 : 			iSocketItem = ITEMGET(2,19);
; 6268 : 			iMaterial1Index = 1;
; 6269 : 			iMaterial2Index = 7;

  002d0	b9 07 00 00 00	 mov	 ecx, 7
  002d5	c7 45 bc 13 04
	00 00		 mov	 DWORD PTR _iSocketItem$1$[ebp], 1043 ; 00000413H
  002dc	bf 01 00 00 00	 mov	 edi, 1
  002e1	89 4d c0	 mov	 DWORD PTR _iMaterial2Index$1$[ebp], ecx

; 6270 : 			iRecipeCount++;

  002e4	46		 inc	 esi
  002e5	e9 cd 00 00 00	 jmp	 $LN89@SocketItem
$LN33@SocketItem:

; 6271 : 		}
; 6272 : 		else if( lpObj->pChaosBox[n].m_Type == ITEMGET(14,202) )

  002ea	66 3b 85 7c ff
	ff ff		 cmp	 ax, WORD PTR tv686[ebp]
  002f1	75 1a		 jne	 SHORT $LN35@SocketItem

; 6273 : 		{
; 6274 : 			iSocketItem = ITEMGET(5,32);
; 6275 : 			iMaterial1Index = 4;
; 6276 : 			iMaterial2Index = 5;

  002f3	b9 05 00 00 00	 mov	 ecx, 5
  002f8	c7 45 bc 20 0a
	00 00		 mov	 DWORD PTR _iSocketItem$1$[ebp], 2592 ; 00000a20H
  002ff	bf 04 00 00 00	 mov	 edi, 4
  00304	89 4d c0	 mov	 DWORD PTR _iMaterial2Index$1$[ebp], ecx

; 6277 : 			iRecipeCount++;

  00307	46		 inc	 esi
  00308	e9 aa 00 00 00	 jmp	 $LN89@SocketItem
$LN35@SocketItem:

; 6278 : 		}
; 6279 : 		else if( lpObj->pChaosBox[n].m_Type == ITEMGET(14,180) )

  0030d	66 3b 85 78 ff
	ff ff		 cmp	 ax, WORD PTR tv688[ebp]
  00314	75 08		 jne	 SHORT $LN37@SocketItem

; 6280 : 		{
; 6281 : 			iMaterialCount[0]++;

  00316	ff 45 d8	 inc	 DWORD PTR _iMaterialCount$[ebp]
  00319	e9 96 00 00 00	 jmp	 $LN88@SocketItem
$LN37@SocketItem:

; 6282 : 		}
; 6283 : 		else if( lpObj->pChaosBox[n].m_Type == ITEMGET(14,181) )

  0031e	66 3b 85 74 ff
	ff ff		 cmp	 ax, WORD PTR tv690[ebp]
  00325	75 08		 jne	 SHORT $LN39@SocketItem

; 6284 : 		{
; 6285 : 			iMaterialCount[1]++;

  00327	ff 45 dc	 inc	 DWORD PTR _iMaterialCount$[ebp+4]
  0032a	e9 85 00 00 00	 jmp	 $LN88@SocketItem
$LN39@SocketItem:

; 6286 : 		}
; 6287 : 		else if( lpObj->pChaosBox[n].m_Type == ITEMGET(14,182) )

  0032f	66 3b 85 70 ff
	ff ff		 cmp	 ax, WORD PTR tv692[ebp]
  00336	75 05		 jne	 SHORT $LN41@SocketItem

; 6288 : 		{
; 6289 : 			iMaterialCount[2]++;

  00338	ff 45 e0	 inc	 DWORD PTR _iMaterialCount$[ebp+8]
  0033b	eb 77		 jmp	 SHORT $LN88@SocketItem
$LN41@SocketItem:

; 6290 : 		}
; 6291 : 		else if( lpObj->pChaosBox[n].m_Type == ITEMGET(14,183) )

  0033d	66 3b 85 6c ff
	ff ff		 cmp	 ax, WORD PTR tv694[ebp]
  00344	75 05		 jne	 SHORT $LN43@SocketItem

; 6292 : 		{
; 6293 : 			iMaterialCount[3]++;

  00346	ff 45 e4	 inc	 DWORD PTR _iMaterialCount$[ebp+12]
  00349	eb 69		 jmp	 SHORT $LN88@SocketItem
$LN43@SocketItem:

; 6294 : 		}
; 6295 : 		else if( lpObj->pChaosBox[n].m_Type == ITEMGET(14,184) )

  0034b	66 3b 85 68 ff
	ff ff		 cmp	 ax, WORD PTR tv696[ebp]
  00352	75 05		 jne	 SHORT $LN45@SocketItem

; 6296 : 		{
; 6297 : 			iMaterialCount[4]++;

  00354	ff 45 e8	 inc	 DWORD PTR _iMaterialCount$[ebp+16]
  00357	eb 5b		 jmp	 SHORT $LN88@SocketItem
$LN45@SocketItem:

; 6298 : 		}
; 6299 : 		else if( lpObj->pChaosBox[n].m_Type == ITEMGET(14,185) )

  00359	66 3b 85 64 ff
	ff ff		 cmp	 ax, WORD PTR tv698[ebp]
  00360	75 05		 jne	 SHORT $LN47@SocketItem

; 6300 : 		{
; 6301 : 			iMaterialCount[5]++;

  00362	ff 45 ec	 inc	 DWORD PTR _iMaterialCount$[ebp+20]
  00365	eb 4d		 jmp	 SHORT $LN88@SocketItem
$LN47@SocketItem:

; 6302 : 		}
; 6303 : 		else if( lpObj->pChaosBox[n].m_Type == ITEMGET(14,186) )

  00367	66 3b 85 60 ff
	ff ff		 cmp	 ax, WORD PTR tv700[ebp]
  0036e	75 05		 jne	 SHORT $LN49@SocketItem

; 6304 : 		{
; 6305 : 			iMaterialCount[6]++;

  00370	ff 45 f0	 inc	 DWORD PTR _iMaterialCount$[ebp+24]
  00373	eb 3f		 jmp	 SHORT $LN88@SocketItem
$LN49@SocketItem:

; 6306 : 		}
; 6307 : 		else if( lpObj->pChaosBox[n].m_Type == ITEMGET(14,187) )

  00375	66 3b 85 5c ff
	ff ff		 cmp	 ax, WORD PTR tv702[ebp]
  0037c	75 05		 jne	 SHORT $LN51@SocketItem

; 6308 : 		{
; 6309 : 			iMaterialCount[7]++;

  0037e	ff 45 f4	 inc	 DWORD PTR _iMaterialCount$[ebp+28]
  00381	eb 31		 jmp	 SHORT $LN88@SocketItem
$LN51@SocketItem:

; 6310 : 		}
; 6311 : 		else if( lpObj->pChaosBox[n].m_Type == ITEMGET(14,188) )

  00383	66 3b 85 58 ff
	ff ff		 cmp	 ax, WORD PTR tv704[ebp]
  0038a	75 05		 jne	 SHORT $LN53@SocketItem

; 6312 : 		{
; 6313 : 			iMaterialCount[8]++;

  0038c	ff 45 f8	 inc	 DWORD PTR _iMaterialCount$[ebp+32]
  0038f	eb 23		 jmp	 SHORT $LN88@SocketItem
$LN53@SocketItem:

; 6314 : 		}
; 6315 : 		else if( lpObj->pChaosBox[n].m_Type == ITEMGET(14,53) )

  00391	66 3b 85 54 ff
	ff ff		 cmp	 ax, WORD PTR tv706[ebp]
  00398	75 0b		 jne	 SHORT $LN55@SocketItem

; 6316 : 		{
; 6317 : 			iCharmOfLuckCount += (int)lpObj->pChaosBox[n].m_Durability;

  0039a	f3 0f 2c 44 0a
	24		 cvttss2si eax, DWORD PTR [edx+ecx+36]
  003a0	01 45 b4	 add	 DWORD PTR _iCharmOfLuckCount$1$[ebp], eax

; 6318 : 		}
; 6319 : 		else

  003a3	eb 0f		 jmp	 SHORT $LN88@SocketItem
$LN55@SocketItem:

; 6320 : 		{
; 6321 : 			iOtherItemCount++;

  003a5	8b 45 c4	 mov	 eax, DWORD PTR _iOtherItemCount$1$[ebp]
  003a8	8b 4d c0	 mov	 ecx, DWORD PTR _iMaterial2Index$1$[ebp]
  003ab	40		 inc	 eax
  003ac	89 45 c4	 mov	 DWORD PTR _iOtherItemCount$1$[ebp], eax
  003af	eb 09		 jmp	 SHORT $LN2@SocketItem
$LN85@SocketItem:
  003b1	8b 55 b8	 mov	 edx, DWORD PTR tv762[ebp]
$LN88@SocketItem:
  003b4	8b 4d c0	 mov	 ecx, DWORD PTR _iMaterial2Index$1$[ebp]
$LN89@SocketItem:
  003b7	8b 45 c4	 mov	 eax, DWORD PTR _iOtherItemCount$1$[ebp]
$LN2@SocketItem:

; 6183 : 
; 6184 : 	for(int n = 0; n < CHAOS_BOX_SIZE; n++)	{

  003ba	81 c2 d4 00 00
	00		 add	 edx, 212		; 000000d4H
  003c0	89 55 b8	 mov	 DWORD PTR tv762[ebp], edx
  003c3	81 fa 80 1a 00
	00		 cmp	 edx, 6784		; 00001a80H
  003c9	0f 8c 61 fd ff
	ff		 jl	 $LL4@SocketItem

; 6322 : 		}
; 6323 : 	}
; 6324 : 
; 6325 : 	if( iCharmOfLuckCount > 10 )	{

  003cf	83 7d b4 0a	 cmp	 DWORD PTR _iCharmOfLuckCount$1$[ebp], 10 ; 0000000aH
  003d3	7e 09		 jle	 SHORT $LN57@SocketItem

; 6326 : 		pMsg.Result = 0xF0;

  003d5	c6 45 cb f0	 mov	 BYTE PTR _pMsg$[ebp+3], 240 ; 000000f0H

; 6327 : 		DataSend(lpObj->m_Index,(LPBYTE)&pMsg,pMsg.h.size);
; 6328 : 		lpObj->ChaosLock = FALSE;
; 6329 : 		return;

  003d9	e9 29 02 00 00	 jmp	 $LN90@SocketItem
$LN57@SocketItem:

; 6330 : 	}
; 6331 : 
; 6332 : 	if( iOtherItemCount != 0 ||
; 6333 : 		iSocketItemCount != 3 ||
; 6334 : 		iRecipeCount != 1 ||
; 6335 : 		iMaterial1Index == -1 ||

  003de	85 c0		 test	 eax, eax
  003e0	0f 85 1d 02 00
	00		 jne	 $LN59@SocketItem
  003e6	83 7d b0 03	 cmp	 DWORD PTR _iSocketItemCount$1$[ebp], 3
  003ea	0f 85 13 02 00
	00		 jne	 $LN59@SocketItem
  003f0	83 fe 01	 cmp	 esi, 1
  003f3	0f 85 0a 02 00
	00		 jne	 $LN59@SocketItem
  003f9	83 ff ff	 cmp	 edi, -1
  003fc	0f 84 01 02 00
	00		 je	 $LN59@SocketItem
  00402	83 f9 ff	 cmp	 ecx, -1
  00405	0f 84 f8 01 00
	00		 je	 $LN59@SocketItem
  0040b	0f 1f 44 00 00	 npad	 5
$LL7@SocketItem:

; 6345 : 		if( i == iMaterial1Index && iMaterialCount[i] == 2 )

  00410	3b c7		 cmp	 eax, edi
  00412	75 07		 jne	 SHORT $LN60@SocketItem
  00414	83 7c 85 d8 02	 cmp	 DWORD PTR _iMaterialCount$[ebp+eax*4], 2
  00419	74 16		 je	 SHORT $LN5@SocketItem
$LN60@SocketItem:

; 6346 : 			continue;
; 6347 : 
; 6348 : 		if( i == iMaterial2Index && iMaterialCount[i] == 1 )

  0041b	3b c1		 cmp	 eax, ecx
  0041d	75 07		 jne	 SHORT $LN61@SocketItem
  0041f	83 7c 85 d8 01	 cmp	 DWORD PTR _iMaterialCount$[ebp+eax*4], 1
  00424	74 0b		 je	 SHORT $LN5@SocketItem
$LN61@SocketItem:

; 6349 : 			continue;
; 6350 : 
; 6351 : 		if( iMaterialCount[i] != 0 )	{

  00426	83 7c 85 d8 00	 cmp	 DWORD PTR _iMaterialCount$[ebp+eax*4], 0
  0042b	0f 85 d2 01 00
	00		 jne	 $LN59@SocketItem
$LN5@SocketItem:

; 6340 : 		lpObj->ChaosLock = FALSE;
; 6341 : 		return;
; 6342 : 	}
; 6343 : 
; 6344 : 	for(int i = 0; i < 9; i++)	{

  00431	40		 inc	 eax
  00432	83 f8 09	 cmp	 eax, 9
  00435	7c d9		 jl	 SHORT $LL7@SocketItem

; 6352 : 			pMsg.Result = 7;
; 6353 : 			DataSend(lpObj->m_Index,(LPBYTE)&pMsg,pMsg.h.size);
; 6354 : 			lpObj->ChaosLock = FALSE;
; 6355 : 			return;
; 6356 : 		}
; 6357 : 	}
; 6358 : 
; 6359 : 	LogChaosItem(lpObj, "SocketItemMix");

  00437	8b 4d ac	 mov	 ecx, DWORD PTR _this$1$[ebp]
  0043a	68 00 00 00 00	 push	 OFFSET ??_C@_0O@DEOFBGCG@SocketItemMix?$AA@
  0043f	53		 push	 ebx
  00440	e8 00 00 00 00	 call	 ?LogChaosItem@CChaosBox@@QAEXPAUOBJECTSTRUCT@@PAD@Z ; CChaosBox::LogChaosItem

; 6360 : 	LogAddTD("[SocketItemMix] Chaos Mix Start");

  00445	68 00 00 00 00	 push	 OFFSET ??_C@_0CA@JPBHABAH@?$FLSocketItemMix?$FN?5Chaos?5Mix?5Start?$AA@
  0044a	ff 15 00 00 00
	00		 call	 DWORD PTR ?LogAddTD@@3P6AXPADZZA ; LogAddTD

; 6361 : 
; 6362 : 	lpObj->ChaosSuccessRate = 40;
; 6363 : 	iNeedChaosMoney = 1000000;
; 6364 : 	lpObj->ChaosSuccessRate += iCharmOfLuckCount;

  00450	8b 75 b4	 mov	 esi, DWORD PTR _iCharmOfLuckCount$1$[ebp]
  00453	83 c4 04	 add	 esp, 4

; 6365 : 
; 6366 : 	int iChaosTaxMoney = (int)((__int64)iNeedChaosMoney * (__int64)g_CastleSiegeSync.GetTaxRateChaos(lpObj->m_Index) / (__int64)100);

  00456	b9 00 00 00 00	 mov	 ecx, OFFSET ?g_CastleSiegeSync@@3VCCastleSiegeSync@@A ; g_CastleSiegeSync
  0045b	ff 33		 push	 DWORD PTR [ebx]
  0045d	8d 46 28	 lea	 eax, DWORD PTR [esi+40]
  00460	89 83 1c 12 00
	00		 mov	 DWORD PTR [ebx+4636], eax
  00466	e8 00 00 00 00	 call	 ?GetTaxRateChaos@CCastleSiegeSync@@QAEHH@Z ; CCastleSiegeSync::GetTaxRateChaos
  0046b	8b c8		 mov	 ecx, eax
  0046d	b8 40 42 0f 00	 mov	 eax, 1000000		; 000f4240H
  00472	f7 e9		 imul	 ecx
  00474	6a 00		 push	 0
  00476	6a 64		 push	 100			; 00000064H
  00478	52		 push	 edx
  00479	50		 push	 eax
  0047a	e8 00 00 00 00	 call	 __alldiv

; 6367 : 
; 6368 : 	if ( iChaosTaxMoney < 0 )

  0047f	33 c9		 xor	 ecx, ecx
  00481	85 c0		 test	 eax, eax
  00483	0f 48 c1	 cmovs	 eax, ecx

; 6369 : 	{
; 6370 : 		iChaosTaxMoney = 0;
; 6371 : 	}
; 6372 : 
; 6373 : 	iNeedChaosMoney += iChaosTaxMoney;

  00486	8d b8 40 42 0f
	00		 lea	 edi, DWORD PTR [eax+1000000]

; 6374 : 
; 6375 : 	if ( iNeedChaosMoney < 0 )

  0048c	85 ff		 test	 edi, edi
  0048e	0f 48 f9	 cmovs	 edi, ecx

; 6376 : 	{
; 6377 : 		iNeedChaosMoney = 0;
; 6378 : 	}
; 6379 : 
; 6380 : 	if(lpObj->Money < iNeedChaosMoney)

  00491	8b 8b cc 00 00
	00		 mov	 ecx, DWORD PTR [ebx+204]
  00497	3b cf		 cmp	 ecx, edi
  00499	7d 09		 jge	 SHORT $LN65@SocketItem

; 6381 : 	{
; 6382 : 		pMsg.Result = CB_NOT_ENOUGH_ZEN;

  0049b	c6 45 cb 02	 mov	 BYTE PTR _pMsg$[ebp+3], 2

; 6383 : 		DataSend(lpObj->m_Index, (BYTE *)&pMsg, pMsg.h.size);
; 6384 : 		lpObj->ChaosLock = FALSE;
; 6385 : 		return;

  0049f	e9 63 01 00 00	 jmp	 $LN90@SocketItem
$LN65@SocketItem:

; 6386 : 	}
; 6387 : 
; 6388 : 	lpObj->Money -= iNeedChaosMoney;

  004a4	2b cf		 sub	 ecx, edi
  004a6	89 8b cc 00 00
	00		 mov	 DWORD PTR [ebx+204], ecx

; 6389 : 	g_CastleSiegeSync.AddTributeMoney(iChaosTaxMoney);

  004ac	b9 00 00 00 00	 mov	 ecx, OFFSET ?g_CastleSiegeSync@@3VCCastleSiegeSync@@A ; g_CastleSiegeSync
  004b1	50		 push	 eax
  004b2	e8 00 00 00 00	 call	 ?AddTributeMoney@CCastleSiegeSync@@QAEXH@Z ; CCastleSiegeSync::AddTributeMoney

; 6390 : 	GCMoneySend(lpObj->m_Index,lpObj->Money);

  004b7	ff b3 cc 00 00
	00		 push	 DWORD PTR [ebx+204]
  004bd	ff 33		 push	 DWORD PTR [ebx]
  004bf	e8 00 00 00 00	 call	 ?GCMoneySend@@YAXHK@Z	; GCMoneySend
  004c4	83 c4 08	 add	 esp, 8

; 6391 : 
; 6392 : 	if( rand() % 100 < lpObj->ChaosSuccessRate )

  004c7	e8 00 00 00 00	 call	 _rand
  004cc	99		 cdq
  004cd	b9 64 00 00 00	 mov	 ecx, 100		; 00000064H
  004d2	f7 f9		 idiv	 ecx
  004d4	3b 93 1c 12 00
	00		 cmp	 edx, DWORD PTR [ebx+4636]
  004da	0f 8d dc 00 00
	00		 jge	 $LN66@SocketItem

; 6393 : 	{
; 6394 : 		int Option1 = TRUE;
; 6395 : 		int Option2 = 0;

  004e0	33 db		 xor	 ebx, ebx

; 6396 : 
; 6397 : 		if( rand() % 1000 <= 50 )	{

  004e2	e8 00 00 00 00	 call	 _rand
  004e7	99		 cdq
  004e8	b9 e8 03 00 00	 mov	 ecx, 1000		; 000003e8H
  004ed	f7 f9		 idiv	 ecx
  004ef	b8 01 00 00 00	 mov	 eax, 1
  004f4	83 fa 32	 cmp	 edx, 50			; 00000032H
  004f7	0f 4e d8	 cmovle	 ebx, eax

; 6398 : 			Option2 = TRUE;
; 6399 : 		}
; 6400 : 
; 6401 : 		int Rand1 = rand() % 4;

  004fa	e8 00 00 00 00	 call	 _rand
  004ff	8b f0		 mov	 esi, eax
  00501	81 e6 03 00 00
	80		 and	 esi, -2147483645	; 80000003H
  00507	79 05		 jns	 SHORT $LN87@SocketItem
  00509	4e		 dec	 esi
  0050a	83 ce fc	 or	 esi, -4			; fffffffcH
  0050d	46		 inc	 esi
$LN87@SocketItem:

; 6402 : 		int Rand2 = rand() % 1000;

  0050e	e8 00 00 00 00	 call	 _rand
  00513	b9 e8 03 00 00	 mov	 ecx, 1000		; 000003e8H
  00518	99		 cdq
  00519	f7 f9		 idiv	 ecx

; 6403 : 
; 6404 : 		int Option3 = 0;

  0051b	33 c9		 xor	 ecx, ecx

; 6405 : 
; 6406 : 		switch( Rand1 )

  0051d	83 ee 01	 sub	 esi, 1
  00520	74 20		 je	 SHORT $LN69@SocketItem
  00522	83 ee 01	 sub	 esi, 1
  00525	74 0f		 je	 SHORT $LN71@SocketItem
  00527	83 ee 01	 sub	 esi, 1
  0052a	75 21		 jne	 SHORT $LN70@SocketItem

; 6420 : 		case 3:
; 6421 : 			if( Rand2 < 30 )

  0052c	83 fa 1e	 cmp	 edx, 30			; 0000001eH
  0052f	7d 1c		 jge	 SHORT $LN70@SocketItem

; 6422 : 			{
; 6423 : 				Option3 = 3;

  00531	8d 4e 03	 lea	 ecx, DWORD PTR [esi+3]
  00534	eb 17		 jmp	 SHORT $LN70@SocketItem
$LN71@SocketItem:

; 6410 : 			{
; 6411 : 				Option3 = 1;
; 6412 : 			}
; 6413 : 			break;
; 6414 : 		case 2:
; 6415 : 			if( Rand2 < 60 )

  00536	83 fa 3c	 cmp	 edx, 60			; 0000003cH
  00539	7d 12		 jge	 SHORT $LN70@SocketItem

; 6416 : 			{
; 6417 : 				Option3 = 2;

  0053b	b9 02 00 00 00	 mov	 ecx, 2

; 6418 : 			}
; 6419 : 			break;

  00540	eb 0b		 jmp	 SHORT $LN70@SocketItem
$LN69@SocketItem:

; 6407 : 		{
; 6408 : 		case 1:
; 6409 : 			if( Rand2 < 120 )

  00542	83 fa 78	 cmp	 edx, 120		; 00000078H
  00545	b8 01 00 00 00	 mov	 eax, 1
  0054a	0f 4c c8	 cmovl	 ecx, eax
$LN70@SocketItem:

; 6424 : 			}
; 6425 : 			break;
; 6426 : 		}
; 6427 : #if( __4GAMERS__ == 1 )
; 6428 : 			g_Achievements.GD_UpdateMixData(lpObj, true);
; 6429 : #endif
; 6430 : 		ItemSerialCreateSend(lpObj->m_Index,255,0,0,iSocketItem,0,0,Option1,Option2,Option3,-1,0,0);

  0054d	8b 45 bc	 mov	 eax, DWORD PTR _iSocketItem$1$[ebp]
  00550	6a 00		 push	 0
  00552	6a 00		 push	 0
  00554	8b b5 50 ff ff
	ff		 mov	 esi, DWORD PTR _lpObj$GSCopy$1$[ebp]
  0055a	6a 00		 push	 0
  0055c	6a 00		 push	 0
  0055e	6a ff		 push	 -1
  00560	51		 push	 ecx
  00561	53		 push	 ebx
  00562	6a 01		 push	 1
  00564	6a 00		 push	 0
  00566	6a 00		 push	 0
  00568	50		 push	 eax
  00569	6a 00		 push	 0
  0056b	6a 00		 push	 0
  0056d	68 ff 00 00 00	 push	 255			; 000000ffH
  00572	ff 36		 push	 DWORD PTR [esi]
  00574	e8 00 00 00 00	 call	 ?ItemSerialCreateSend@@YAXHEEEHEEEEEHEEEPAE@Z ; ItemSerialCreateSend

; 6431 : 		gObjInventoryCommit(lpObj->m_Index);

  00579	ff 36		 push	 DWORD PTR [esi]
  0057b	e8 00 00 00 00	 call	 ?gObjInventoryCommit@@YAHH@Z ; gObjInventoryCommit
  00580	83 c4 40	 add	 esp, 64			; 00000040H

; 6432 : 		LogAddTD("[SocketItemMix][Level 02] [%s][%s] CBMix Success %d Money : %d-%d, CharmRate : %d",

  00583	8d 46 5d	 lea	 eax, DWORD PTR [esi+93]
  00586	ff 75 b4	 push	 DWORD PTR _iCharmOfLuckCount$1$[ebp]
  00589	57		 push	 edi
  0058a	ff b6 cc 00 00
	00		 push	 DWORD PTR [esi+204]
  00590	ff b6 1c 12 00
	00		 push	 DWORD PTR [esi+4636]
  00596	50		 push	 eax
  00597	8d 46 52	 lea	 eax, DWORD PTR [esi+82]
  0059a	50		 push	 eax
  0059b	68 00 00 00 00	 push	 OFFSET ??_C@_0FC@BOLCPPFJ@?$FLSocketItemMix?$FN?$FLLevel?502?$FN?5?$FL?$CFs?$FN?$FL?$CF@
  005a0	ff 15 00 00 00
	00		 call	 DWORD PTR ?LogAddTD@@3P6AXPADZZA ; LogAddTD
  005a6	83 c4 1c	 add	 esp, 28			; 0000001cH
  005a9	5f		 pop	 edi
  005aa	5e		 pop	 esi
  005ab	5b		 pop	 ebx

; 6448 : 	}
; 6449 : }

  005ac	8b 4d fc	 mov	 ecx, DWORD PTR __$ArrayPad$[ebp]
  005af	33 cd		 xor	 ecx, ebp
  005b1	e8 00 00 00 00	 call	 @__security_check_cookie@4
  005b6	8b e5		 mov	 esp, ebp
  005b8	5d		 pop	 ebp
  005b9	c2 08 00	 ret	 8
$LN66@SocketItem:

; 6433 : 			lpObj->AccountID,lpObj->Name,lpObj->ChaosSuccessRate,lpObj->Money,iNeedChaosMoney,iCharmOfLuckCount);
; 6434 : 	}
; 6435 : 	else
; 6436 : 	{
; 6437 : #if( __4GAMERS__ == 1 )
; 6438 : 			g_Achievements.GD_UpdateMixData(lpObj, false);
; 6439 : #endif
; 6440 : 		ChaosBoxInit(lpObj);

  005bc	8b 4d ac	 mov	 ecx, DWORD PTR _this$1$[ebp]
  005bf	53		 push	 ebx
  005c0	e8 00 00 00 00	 call	 ?ChaosBoxInit@CChaosBox@@QAEHPAUOBJECTSTRUCT@@@Z ; CChaosBox::ChaosBoxInit

; 6441 : 		GCUserChaosBoxSend(lpObj,0);

  005c5	6a 00		 push	 0
  005c7	53		 push	 ebx
  005c8	e8 00 00 00 00	 call	 ?GCUserChaosBoxSend@@YAXPAUOBJECTSTRUCT@@H@Z ; GCUserChaosBoxSend

; 6442 : 
; 6443 : 		DataSend(lpObj->m_Index,(LPBYTE)&pMsg,pMsg.h.size);

  005cd	0f b6 45 c9	 movzx	 eax, BYTE PTR _pMsg$[ebp+1]
  005d1	50		 push	 eax
  005d2	8d 45 c8	 lea	 eax, DWORD PTR _pMsg$[ebp]
  005d5	50		 push	 eax
  005d6	ff 33		 push	 DWORD PTR [ebx]
  005d8	e8 00 00 00 00	 call	 ?DataSend@@YAHHPAEK@Z	; DataSend

; 6444 : 
; 6445 : 		LogAddTD("[SocketItemMix] [%s][%s] CBMix Fail %d Money : %d-%d, CharmRate : %d",

  005dd	56		 push	 esi
  005de	57		 push	 edi
  005df	ff b3 cc 00 00
	00		 push	 DWORD PTR [ebx+204]
  005e5	8d 43 5d	 lea	 eax, DWORD PTR [ebx+93]
  005e8	ff b3 1c 12 00
	00		 push	 DWORD PTR [ebx+4636]
  005ee	50		 push	 eax
  005ef	8d 43 52	 lea	 eax, DWORD PTR [ebx+82]
  005f2	50		 push	 eax
  005f3	68 00 00 00 00	 push	 OFFSET ??_C@_0EF@KKFOLCFG@?$FLSocketItemMix?$FN?5?$FL?$CFs?$FN?$FL?$CFs?$FN?5CBMix?5F@
  005f8	ff 15 00 00 00
	00		 call	 DWORD PTR ?LogAddTD@@3P6AXPADZZA ; LogAddTD
  005fe	83 c4 30	 add	 esp, 48			; 00000030H

; 6446 : 			lpObj->AccountID,lpObj->Name,lpObj->ChaosSuccessRate,lpObj->Money,iNeedChaosMoney,iCharmOfLuckCount);
; 6447 : 		lpObj->ChaosLock = FALSE;

  00601	eb 17		 jmp	 SHORT $LN91@SocketItem
$LN59@SocketItem:

; 6336 : 		iMaterial2Index == -1 )
; 6337 : 	{
; 6338 : 		pMsg.Result = 7;

  00603	c6 45 cb 07	 mov	 BYTE PTR _pMsg$[ebp+3], 7
$LN90@SocketItem:

; 6339 : 		DataSend(lpObj->m_Index,(LPBYTE)&pMsg,pMsg.h.size);

  00607	0f b6 45 c9	 movzx	 eax, BYTE PTR _pMsg$[ebp+1]
  0060b	50		 push	 eax
  0060c	8d 45 c8	 lea	 eax, DWORD PTR _pMsg$[ebp]
  0060f	50		 push	 eax
  00610	ff 33		 push	 DWORD PTR [ebx]
  00612	e8 00 00 00 00	 call	 ?DataSend@@YAHHPAEK@Z	; DataSend
  00617	83 c4 0c	 add	 esp, 12			; 0000000cH
$LN91@SocketItem:

; 6448 : 	}
; 6449 : }

  0061a	8b 4d fc	 mov	 ecx, DWORD PTR __$ArrayPad$[ebp]
  0061d	5f		 pop	 edi
  0061e	5e		 pop	 esi
  0061f	c7 83 20 12 00
	00 00 00 00 00	 mov	 DWORD PTR [ebx+4640], 0
  00629	33 cd		 xor	 ecx, ebp
  0062b	5b		 pop	 ebx
  0062c	e8 00 00 00 00	 call	 @__security_check_cookie@4
  00631	8b e5		 mov	 esp, ebp
  00633	5d		 pop	 ebp
  00634	c2 08 00	 ret	 8
?SocketItemMix@CChaosBox@@QAEXPAUOBJECTSTRUCT@@H@Z ENDP	; CChaosBox::SocketItemMix
_TEXT	ENDS
; Function compile flags: /Ogtp
; File c:\users\michel\desktop\source\gameserver\source\chaosbox.cpp
;	COMDAT ?Wing25Mix@CChaosBox@@QAEXPAUOBJECTSTRUCT@@@Z
_TEXT	SEGMENT
_iMaterialID$1$ = -60					; size = 4
_this$1$ = -56						; size = 4
_iCharmOfLuckCount$1$ = -52				; size = 4
_iWingCount$1$ = -48					; size = 4
_iMaterialCount$1$ = -44				; size = 4
_Option2$2$ = -40					; size = 4
_iWingValue$1$ = -40					; size = 4
_iNeedChaosMoney$2$ = -36				; size = 4
_iWingID$1$ = -36					; size = 4
_iCreationCount$1$ = -32				; size = 4
_iOtherItemCount$1$ = -28				; size = 4
_ExcOption$2$ = -24					; size = 4
_iChaosCount$1$ = -24					; size = 4
_pMsg$ = -20						; size = 16
__$ArrayPad$ = -4					; size = 4
_lpObj$ = 8						; size = 4
?Wing25Mix@CChaosBox@@QAEXPAUOBJECTSTRUCT@@@Z PROC	; CChaosBox::Wing25Mix, COMDAT
; _this$ = ecx

; 6452 : {

  00000	55		 push	 ebp
  00001	8b ec		 mov	 ebp, esp
  00003	83 ec 3c	 sub	 esp, 60			; 0000003cH
  00006	a1 00 00 00 00	 mov	 eax, DWORD PTR ___security_cookie
  0000b	33 c5		 xor	 eax, ebp
  0000d	89 45 fc	 mov	 DWORD PTR __$ArrayPad$[ebp], eax
  00010	53		 push	 ebx
  00011	56		 push	 esi
  00012	8b 75 08	 mov	 esi, DWORD PTR _lpObj$[ebp]

; 6453 : 	lpObj->ChaosLock = TRUE;
; 6454 : 
; 6455 : 	int iNeedChaosMoney;
; 6456 : 	int iWingID = -1;

  00015	83 c8 ff	 or	 eax, -1
  00018	57		 push	 edi
  00019	89 45 dc	 mov	 DWORD PTR _iWingID$1$[ebp], eax

; 6457 : 	int iMaterialID = -1;
; 6458 : 
; 6459 : 	int iWingValue = 0;
; 6460 : 	int iWingCount = 0;
; 6461 : 	int iChaosCount = 0;
; 6462 : 	int iCreationCount = 0;
; 6463 : 	int iMaterialCount = 0;
; 6464 : 	int iOtherItemCount = 0;
; 6465 : 	int iCharmOfLuckCount = 0;

  0001c	33 db		 xor	 ebx, ebx
  0001e	89 45 c4	 mov	 DWORD PTR _iMaterialID$1$[ebp], eax
  00021	33 c0		 xor	 eax, eax

; 6466 : 
; 6467 : 	PMSG_CHAOSMIXRESULT pMsg;
; 6468 : 
; 6469 : 	PHeadSetB((LPBYTE)&pMsg.h, 0x86, sizeof(PMSG_CHAOSMIXRESULT));

  00023	6a 10		 push	 16			; 00000010H
  00025	89 45 d8	 mov	 DWORD PTR _iWingValue$1$[ebp], eax
  00028	89 45 d0	 mov	 DWORD PTR _iWingCount$1$[ebp], eax
  0002b	89 45 e8	 mov	 DWORD PTR _iChaosCount$1$[ebp], eax
  0002e	89 45 e0	 mov	 DWORD PTR _iCreationCount$1$[ebp], eax
  00031	89 45 d4	 mov	 DWORD PTR _iMaterialCount$1$[ebp], eax
  00034	89 45 e4	 mov	 DWORD PTR _iOtherItemCount$1$[ebp], eax
  00037	8d 45 ec	 lea	 eax, DWORD PTR _pMsg$[ebp]
  0003a	68 86 00 00 00	 push	 134			; 00000086H
  0003f	50		 push	 eax
  00040	89 4d c8	 mov	 DWORD PTR _this$1$[ebp], ecx
  00043	c7 86 20 12 00
	00 01 00 00 00	 mov	 DWORD PTR [esi+4640], 1
  0004d	e8 00 00 00 00	 call	 ?PHeadSetB@@YAXPAEEH@Z	; PHeadSetB
  00052	83 c4 0c	 add	 esp, 12			; 0000000cH

; 6470 : 	pMsg.Result = CB_ERROR;

  00055	88 5d ef	 mov	 BYTE PTR _pMsg$[ebp+3], bl
  00058	33 ff		 xor	 edi, edi
  0005a	66 0f 1f 44 00
	00		 npad	 6
$LL4@Wing25Mix:

; 6473 : 
; 6474 : 		if( !lpObj->pChaosBox[n].IsItem() )

  00060	8b 8e 10 12 00
	00		 mov	 ecx, DWORD PTR [esi+4624]
  00066	03 cf		 add	 ecx, edi
  00068	e8 00 00 00 00	 call	 ?IsItem@CItem@@QAEHXZ	; CItem::IsItem
  0006d	85 c0		 test	 eax, eax
  0006f	0f 84 ba 00 00
	00		 je	 $LN54@Wing25Mix

; 6475 : 			continue;
; 6476 : 
; 6477 : 		if( lpObj->pChaosBox[n].m_Type == ITEMGET(12,15) )

  00075	8b 8e 10 12 00
	00		 mov	 ecx, DWORD PTR [esi+4624]
  0007b	ba 0f 18 00 00	 mov	 edx, 6159		; 0000180fH
  00080	0f b7 44 39 06	 movzx	 eax, WORD PTR [ecx+edi+6]
  00085	66 3b c2	 cmp	 ax, dx
  00088	75 0c		 jne	 SHORT $LN10@Wing25Mix

; 6478 : 		{
; 6479 : 			iChaosCount++;

  0008a	8b 55 e8	 mov	 edx, DWORD PTR _iChaosCount$1$[ebp]
  0008d	42		 inc	 edx
  0008e	89 55 e8	 mov	 DWORD PTR _iChaosCount$1$[ebp], edx
  00091	e9 9c 00 00 00	 jmp	 $LN57@Wing25Mix
$LN10@Wing25Mix:

; 6480 : 		}
; 6481 : 		else if( lpObj->pChaosBox[n].m_Type == ITEMGET(14,22) )

  00096	ba 16 1c 00 00	 mov	 edx, 7190		; 00001c16H
  0009b	66 3b c2	 cmp	 ax, dx
  0009e	75 0f		 jne	 SHORT $LN12@Wing25Mix

; 6482 : 		{
; 6483 : 			iCreationCount++;

  000a0	8b 4d e0	 mov	 ecx, DWORD PTR _iCreationCount$1$[ebp]

; 6484 : 		}
; 6485 : 		else if( (lpObj->pChaosBox[n].m_Type >= ITEMGET(12,3) && lpObj->pChaosBox[n].m_Type <= ITEMGET(12,6)) ||

  000a3	8b 55 e8	 mov	 edx, DWORD PTR _iChaosCount$1$[ebp]
  000a6	41		 inc	 ecx
  000a7	89 4d e0	 mov	 DWORD PTR _iCreationCount$1$[ebp], ecx
  000aa	e9 86 00 00 00	 jmp	 $LN58@Wing25Mix
$LN12@Wing25Mix:

; 6486 : 			lpObj->pChaosBox[n].m_Type == ITEMGET(12,42) ||
; 6487 : 			lpObj->pChaosBox[n].m_Type == ITEMGET(12,49) ||

  000af	ba 03 18 00 00	 mov	 edx, 6147		; 00001803H
  000b4	66 3b c2	 cmp	 ax, dx
  000b7	7c 0a		 jl	 SHORT $LN17@Wing25Mix
  000b9	ba 06 18 00 00	 mov	 edx, 6150		; 00001806H
  000be	66 3b c2	 cmp	 ax, dx
  000c1	7e 5e		 jle	 SHORT $LN16@Wing25Mix
$LN17@Wing25Mix:
  000c3	ba 2a 18 00 00	 mov	 edx, 6186		; 0000182aH
  000c8	66 3b c2	 cmp	 ax, dx
  000cb	74 54		 je	 SHORT $LN16@Wing25Mix
  000cd	ba 31 18 00 00	 mov	 edx, 6193		; 00001831H
  000d2	66 3b c2	 cmp	 ax, dx
  000d5	74 4a		 je	 SHORT $LN16@Wing25Mix
  000d7	ba 1e 1a 00 00	 mov	 edx, 6686		; 00001a1eH
  000dc	66 3b c2	 cmp	 ax, dx
  000df	74 40		 je	 SHORT $LN16@Wing25Mix

; 6493 : 		}
; 6494 : 		else if( (lpObj->pChaosBox[n].m_Type >= ITEMGET(14,176) && lpObj->pChaosBox[n].m_Type <= ITEMGET(14,179)) )

  000e1	ba b0 1c 00 00	 mov	 edx, 7344		; 00001cb0H
  000e6	66 3b c2	 cmp	 ax, dx
  000e9	7c 13		 jl	 SHORT $LN18@Wing25Mix
  000eb	ba b3 1c 00 00	 mov	 edx, 7347		; 00001cb3H
  000f0	66 3b c2	 cmp	 ax, dx
  000f3	7f 09		 jg	 SHORT $LN18@Wing25Mix

; 6495 : 		{
; 6496 : 			iMaterialID = lpObj->pChaosBox[n].m_Type;
; 6497 : 			iMaterialCount++;

  000f5	ff 45 d4	 inc	 DWORD PTR _iMaterialCount$1$[ebp]
  000f8	98		 cwde
  000f9	89 45 c4	 mov	 DWORD PTR _iMaterialID$1$[ebp], eax
  000fc	eb 31		 jmp	 SHORT $LN54@Wing25Mix
$LN18@Wing25Mix:

; 6498 : 		}
; 6499 : 		else if( lpObj->pChaosBox[n].m_Type == ITEMGET(14,53) )

  000fe	ba 35 1c 00 00	 mov	 edx, 7221		; 00001c35H
  00103	66 3b c2	 cmp	 ax, dx

; 6502 : 		}
; 6503 : 		else

  00106	8b 55 e8	 mov	 edx, DWORD PTR _iChaosCount$1$[ebp]
  00109	75 0a		 jne	 SHORT $LN20@Wing25Mix

; 6500 : 		{
; 6501 : 			iCharmOfLuckCount += (int)lpObj->pChaosBox[n].m_Durability;

  0010b	f3 0f 2c 44 39
	24		 cvttss2si eax, DWORD PTR [ecx+edi+36]
  00111	03 d8		 add	 ebx, eax

; 6502 : 		}
; 6503 : 		else

  00113	eb 1d		 jmp	 SHORT $LN57@Wing25Mix
$LN20@Wing25Mix:

; 6504 : 		{
; 6505 : 			iOtherItemCount++;

  00115	8b 45 e4	 mov	 eax, DWORD PTR _iOtherItemCount$1$[ebp]
  00118	8b 4d e0	 mov	 ecx, DWORD PTR _iCreationCount$1$[ebp]
  0011b	40		 inc	 eax
  0011c	89 45 e4	 mov	 DWORD PTR _iOtherItemCount$1$[ebp], eax
  0011f	eb 17		 jmp	 SHORT $LN2@Wing25Mix
$LN16@Wing25Mix:

; 6488 : 			lpObj->pChaosBox[n].m_Type == ITEMGET(13,30) )
; 6489 : 		{
; 6490 : 			iWingID = lpObj->pChaosBox[n].m_Type;
; 6491 : 			iWingValue = lpObj->pChaosBox[n].m_BuyMoney;
; 6492 : 			iWingCount++;

  00121	ff 45 d0	 inc	 DWORD PTR _iWingCount$1$[ebp]
  00124	98		 cwde
  00125	89 45 dc	 mov	 DWORD PTR _iWingID$1$[ebp], eax
  00128	8b 44 39 78	 mov	 eax, DWORD PTR [ecx+edi+120]
  0012c	89 45 d8	 mov	 DWORD PTR _iWingValue$1$[ebp], eax
$LN54@Wing25Mix:
  0012f	8b 55 e8	 mov	 edx, DWORD PTR _iChaosCount$1$[ebp]
$LN57@Wing25Mix:
  00132	8b 4d e0	 mov	 ecx, DWORD PTR _iCreationCount$1$[ebp]
$LN58@Wing25Mix:
  00135	8b 45 e4	 mov	 eax, DWORD PTR _iOtherItemCount$1$[ebp]
$LN2@Wing25Mix:

; 6471 : 
; 6472 : 	for(int n = 0; n < CHAOS_BOX_SIZE; n++)	{

  00138	81 c7 d4 00 00
	00		 add	 edi, 212		; 000000d4H
  0013e	81 ff 80 1a 00
	00		 cmp	 edi, 6784		; 00001a80H
  00144	0f 8c 16 ff ff
	ff		 jl	 $LL4@Wing25Mix

; 6506 : 		}
; 6507 : 
; 6508 : 	}
; 6509 : 
; 6510 : 	if( iCharmOfLuckCount > 10 )	{

  0014a	89 5d cc	 mov	 DWORD PTR _iCharmOfLuckCount$1$[ebp], ebx
  0014d	83 fb 0a	 cmp	 ebx, 10			; 0000000aH
  00150	7e 09		 jle	 SHORT $LN22@Wing25Mix

; 6511 : 		pMsg.Result = 0xF0;

  00152	c6 45 ef f0	 mov	 BYTE PTR _pMsg$[ebp+3], 240 ; 000000f0H

; 6512 : 		DataSend(lpObj->m_Index,(LPBYTE)&pMsg,pMsg.h.size);
; 6513 : 		lpObj->ChaosLock = FALSE;
; 6514 : 		return;

  00156	e9 a2 02 00 00	 jmp	 $LN59@Wing25Mix
$LN22@Wing25Mix:

; 6515 : 	}
; 6516 : 
; 6517 : 	if( iOtherItemCount != 0 ||
; 6518 : 		iMaterialCount != 1 ||
; 6519 : 		iWingCount != 1 ||
; 6520 : 		iCreationCount != 1 ||

  0015b	85 c0		 test	 eax, eax
  0015d	0f 85 96 02 00
	00		 jne	 $LN24@Wing25Mix
  00163	83 7d d4 01	 cmp	 DWORD PTR _iMaterialCount$1$[ebp], 1
  00167	0f 85 8c 02 00
	00		 jne	 $LN24@Wing25Mix
  0016d	83 7d d0 01	 cmp	 DWORD PTR _iWingCount$1$[ebp], 1
  00171	0f 85 82 02 00
	00		 jne	 $LN24@Wing25Mix
  00177	83 f9 01	 cmp	 ecx, 1
  0017a	0f 85 79 02 00
	00		 jne	 $LN24@Wing25Mix
  00180	3b d1		 cmp	 edx, ecx
  00182	0f 85 71 02 00
	00		 jne	 $LN24@Wing25Mix

; 6525 : 		lpObj->ChaosLock = FALSE;
; 6526 : 		return;
; 6527 : 	}
; 6528 : 
; 6529 : 	LogChaosItem(lpObj, "25WingLevel");

  00188	8b 4d c8	 mov	 ecx, DWORD PTR _this$1$[ebp]
  0018b	68 00 00 00 00	 push	 OFFSET ??_C@_0M@OFDFPMHD@25WingLevel?$AA@
  00190	56		 push	 esi
  00191	e8 00 00 00 00	 call	 ?LogChaosItem@CChaosBox@@QAEXPAUOBJECTSTRUCT@@PAD@Z ; CChaosBox::LogChaosItem

; 6530 : 	LogAddTD("[25Wing Mix] Chaos Mix Start");

  00196	68 00 00 00 00	 push	 OFFSET ??_C@_0BN@FNIHKHMB@?$FL25Wing?5Mix?$FN?5Chaos?5Mix?5Start?$AA@
  0019b	ff 15 00 00 00
	00		 call	 DWORD PTR ?LogAddTD@@3P6AXPADZZA ; LogAddTD

; 6531 : 
; 6532 : 	int iDivValue = 9000000;
; 6533 : 
; 6534 : 	if( iWingID == ITEMGET(13,30) || iWingID == ITEMGET(12,49) )	

  001a1	8b 45 dc	 mov	 eax, DWORD PTR _iWingID$1$[ebp]
  001a4	83 c4 04	 add	 esp, 4
  001a7	b9 40 54 89 00	 mov	 ecx, 9000000		; 00895440H
  001ac	3d 1e 1a 00 00	 cmp	 eax, 6686		; 00001a1eH
  001b1	74 07		 je	 SHORT $LN26@Wing25Mix
  001b3	3d 31 18 00 00	 cmp	 eax, 6193		; 00001831H
  001b8	75 05		 jne	 SHORT $LN25@Wing25Mix
$LN26@Wing25Mix:

; 6535 : 	{
; 6536 : 		iDivValue = 500000;

  001ba	b9 20 a1 07 00	 mov	 ecx, 500000		; 0007a120H
$LN25@Wing25Mix:

; 6537 : 	}
; 6538 : 
; 6539 : 	lpObj->ChaosSuccessRate = iWingValue/iDivValue;

  001bf	8b 45 d8	 mov	 eax, DWORD PTR _iWingValue$1$[ebp]
  001c2	99		 cdq
  001c3	f7 f9		 idiv	 ecx

; 6540 : 
; 6541 : 	if( lpObj->ChaosSuccessRate < 0 )

  001c5	b9 01 00 00 00	 mov	 ecx, 1
  001ca	85 c0		 test	 eax, eax
  001cc	0f 48 c1	 cmovs	 eax, ecx
  001cf	89 86 1c 12 00
	00		 mov	 DWORD PTR [esi+4636], eax

; 6542 : 		lpObj->ChaosSuccessRate = 1;
; 6543 : 
; 6544 : 	if( lpObj->ChaosSuccessRate > 60 )

  001d5	83 f8 3c	 cmp	 eax, 60			; 0000003cH
  001d8	7e 0a		 jle	 SHORT $LN28@Wing25Mix

; 6545 : 		lpObj->ChaosSuccessRate = 60;

  001da	c7 86 1c 12 00
	00 3c 00 00 00	 mov	 DWORD PTR [esi+4636], 60 ; 0000003cH
$LN28@Wing25Mix:

; 6546 : 
; 6547 : 	iNeedChaosMoney = lpObj->ChaosSuccessRate*100000;

  001e4	8b 86 1c 12 00
	00		 mov	 eax, DWORD PTR [esi+4636]

; 6548 : 	lpObj->ChaosSuccessRate += iCharmOfLuckCount;
; 6549 : 
; 6550 : 	int iChaosTaxMoney = (int)((__int64)iNeedChaosMoney * (__int64)g_CastleSiegeSync.GetTaxRateChaos(lpObj->m_Index) / (__int64)100);

  001ea	b9 00 00 00 00	 mov	 ecx, OFFSET ?g_CastleSiegeSync@@3VCCastleSiegeSync@@A ; g_CastleSiegeSync
  001ef	8b 7d cc	 mov	 edi, DWORD PTR _iCharmOfLuckCount$1$[ebp]
  001f2	ff 36		 push	 DWORD PTR [esi]
  001f4	69 d8 a0 86 01
	00		 imul	 ebx, eax, 100000
  001fa	03 c7		 add	 eax, edi
  001fc	89 86 1c 12 00
	00		 mov	 DWORD PTR [esi+4636], eax
  00202	e8 00 00 00 00	 call	 ?GetTaxRateChaos@CCastleSiegeSync@@QAEHH@Z ; CCastleSiegeSync::GetTaxRateChaos
  00207	8b c8		 mov	 ecx, eax
  00209	8b c3		 mov	 eax, ebx
  0020b	f7 e9		 imul	 ecx
  0020d	6a 00		 push	 0
  0020f	6a 64		 push	 100			; 00000064H
  00211	52		 push	 edx
  00212	50		 push	 eax
  00213	e8 00 00 00 00	 call	 __alldiv
  00218	8b c8		 mov	 ecx, eax

; 6551 : 
; 6552 : 	if ( iChaosTaxMoney < 0 )

  0021a	33 c0		 xor	 eax, eax
  0021c	85 c9		 test	 ecx, ecx
  0021e	0f 48 c8	 cmovs	 ecx, eax

; 6553 : 	{
; 6554 : 		iChaosTaxMoney = 0;
; 6555 : 	}
; 6556 : 
; 6557 : 	iNeedChaosMoney += iChaosTaxMoney;

  00221	03 d9		 add	 ebx, ecx

; 6558 : 
; 6559 : 	if ( iNeedChaosMoney < 0 )

  00223	0f 48 d8	 cmovs	 ebx, eax

; 6560 : 	{
; 6561 : 		iNeedChaosMoney = 0;
; 6562 : 	}
; 6563 : 
; 6564 : 	if(lpObj->Money < iNeedChaosMoney)

  00226	8b 86 cc 00 00
	00		 mov	 eax, DWORD PTR [esi+204]
  0022c	89 5d dc	 mov	 DWORD PTR _iNeedChaosMoney$2$[ebp], ebx
  0022f	3b c3		 cmp	 eax, ebx
  00231	7d 09		 jge	 SHORT $LN31@Wing25Mix

; 6565 : 	{
; 6566 : 		pMsg.Result = CB_NOT_ENOUGH_ZEN;

  00233	c6 45 ef 02	 mov	 BYTE PTR _pMsg$[ebp+3], 2

; 6567 : 		DataSend(lpObj->m_Index, (BYTE *)&pMsg, pMsg.h.size);
; 6568 : 		lpObj->ChaosLock = FALSE;
; 6569 : 		return;

  00237	e9 c1 01 00 00	 jmp	 $LN59@Wing25Mix
$LN31@Wing25Mix:

; 6570 : 	}
; 6571 : 
; 6572 : 	lpObj->Money -= iNeedChaosMoney;

  0023c	2b c3		 sub	 eax, ebx

; 6573 : 	g_CastleSiegeSync.AddTributeMoney(iChaosTaxMoney);

  0023e	51		 push	 ecx
  0023f	b9 00 00 00 00	 mov	 ecx, OFFSET ?g_CastleSiegeSync@@3VCCastleSiegeSync@@A ; g_CastleSiegeSync
  00244	89 86 cc 00 00
	00		 mov	 DWORD PTR [esi+204], eax
  0024a	e8 00 00 00 00	 call	 ?AddTributeMoney@CCastleSiegeSync@@QAEXH@Z ; CCastleSiegeSync::AddTributeMoney

; 6574 : 	GCMoneySend(lpObj->m_Index,lpObj->Money);

  0024f	ff b6 cc 00 00
	00		 push	 DWORD PTR [esi+204]
  00255	ff 36		 push	 DWORD PTR [esi]
  00257	e8 00 00 00 00	 call	 ?GCMoneySend@@YAXHK@Z	; GCMoneySend
  0025c	83 c4 08	 add	 esp, 8

; 6575 : 
; 6576 : 	if( rand() % 100 < lpObj->ChaosSuccessRate )

  0025f	e8 00 00 00 00	 call	 _rand
  00264	99		 cdq
  00265	b9 64 00 00 00	 mov	 ecx, 100		; 00000064H
  0026a	f7 f9		 idiv	 ecx
  0026c	3b 96 1c 12 00
	00		 cmp	 edx, DWORD PTR [esi+4636]
  00272	0f 8d 3a 01 00
	00		 jge	 $LN32@Wing25Mix

; 6577 : 	{
; 6578 : 		int Item = ITEMGET(12,262+(iMaterialID-ITEMGET(14,176)));
; 6579 : 
; 6580 : 		int Option1 = 0;
; 6581 : 		int Option2 = 0;

  00278	33 db		 xor	 ebx, ebx

; 6582 : 
; 6583 : 		if( rand() % 1000 <= iOptionRate )

  0027a	e8 00 00 00 00	 call	 _rand
  0027f	99		 cdq
  00280	bf e8 03 00 00	 mov	 edi, 1000		; 000003e8H
  00285	f7 ff		 idiv	 edi
  00287	8b 45 c8	 mov	 eax, DWORD PTR _this$1$[ebp]
  0028a	3b 50 40	 cmp	 edx, DWORD PTR [eax+64]
  0028d	b8 01 00 00 00	 mov	 eax, 1
  00292	0f 4e d8	 cmovle	 ebx, eax
  00295	89 5d d8	 mov	 DWORD PTR _Option2$2$[ebp], ebx

; 6584 : 		{
; 6585 : 			Option2 = TRUE;
; 6586 : 		}
; 6587 : 
; 6588 : 		int Option3 = 0;
; 6589 : 		int ExcOption = 0;

  00298	33 db		 xor	 ebx, ebx

; 6590 : 
; 6591 : 		int Rand = rand() % 1000;

  0029a	e8 00 00 00 00	 call	 _rand
  0029f	99		 cdq
  002a0	f7 ff		 idiv	 edi

; 6592 : 
; 6593 : 		if( Rand < 400 )

  002a2	b8 10 00 00 00	 mov	 eax, 16			; 00000010H
  002a7	81 fa 90 01 00
	00		 cmp	 edx, 400		; 00000190H
  002ad	0f 4c d8	 cmovl	 ebx, eax
  002b0	89 5d e8	 mov	 DWORD PTR _ExcOption$2$[ebp], ebx

; 6594 : 		{
; 6595 : 			ExcOption |= 0x10;
; 6596 : 		}
; 6597 : 
; 6598 : 		int Rand2 = rand() % 4;

  002b3	e8 00 00 00 00	 call	 _rand
  002b8	8b d8		 mov	 ebx, eax
  002ba	81 e3 03 00 00
	80		 and	 ebx, -2147483645	; 80000003H
  002c0	79 05		 jns	 SHORT $LN55@Wing25Mix
  002c2	4b		 dec	 ebx
  002c3	83 cb fc	 or	 ebx, -4			; fffffffcH
  002c6	43		 inc	 ebx
$LN55@Wing25Mix:

; 6599 : 		int Rand3 = rand() % 1000;

  002c7	e8 00 00 00 00	 call	 _rand
  002cc	99		 cdq
  002cd	f7 ff		 idiv	 edi

; 6600 : 
; 6601 : 		Option3 = 0;

  002cf	33 ff		 xor	 edi, edi

; 6602 : 
; 6603 : 		switch( Rand2 )

  002d1	83 eb 01	 sub	 ebx, 1
  002d4	74 20		 je	 SHORT $LN36@Wing25Mix
  002d6	83 eb 01	 sub	 ebx, 1
  002d9	74 0f		 je	 SHORT $LN38@Wing25Mix
  002db	83 eb 01	 sub	 ebx, 1
  002de	75 21		 jne	 SHORT $LN37@Wing25Mix

; 6613 : 		case 3:
; 6614 : 			if( Rand3 < 30 )

  002e0	83 fa 1e	 cmp	 edx, 30			; 0000001eH
  002e3	7d 1c		 jge	 SHORT $LN37@Wing25Mix

; 6615 : 				Option3 = 3;

  002e5	8d 7b 03	 lea	 edi, DWORD PTR [ebx+3]
  002e8	eb 17		 jmp	 SHORT $LN37@Wing25Mix
$LN38@Wing25Mix:

; 6607 : 				Option3 = 1;
; 6608 : 			break;
; 6609 : 		case 2:
; 6610 : 			if( Rand3 < 60 )

  002ea	83 fa 3c	 cmp	 edx, 60			; 0000003cH
  002ed	7d 12		 jge	 SHORT $LN37@Wing25Mix

; 6611 : 				Option3 = 2;

  002ef	bf 02 00 00 00	 mov	 edi, 2

; 6612 : 			break;

  002f4	eb 0b		 jmp	 SHORT $LN37@Wing25Mix
$LN36@Wing25Mix:

; 6604 : 		{
; 6605 : 		case 1:
; 6606 : 			if( Rand3 < 120 )

  002f6	83 fa 78	 cmp	 edx, 120		; 00000078H
  002f9	b8 01 00 00 00	 mov	 eax, 1
  002fe	0f 4c f8	 cmovl	 edi, eax
$LN37@Wing25Mix:

; 6616 : 			break;
; 6617 : 		}
; 6618 : 
; 6619 : 		int Rand4 = rand() % 2;

  00301	e8 00 00 00 00	 call	 _rand
  00306	8b d8		 mov	 ebx, eax
  00308	81 e3 01 00 00
	80		 and	 ebx, -2147483647	; 80000001H
  0030e	79 05		 jns	 SHORT $LN56@Wing25Mix
  00310	4b		 dec	 ebx
  00311	83 cb fe	 or	 ebx, -2			; fffffffeH
  00314	43		 inc	 ebx
$LN56@Wing25Mix:

; 6620 : 		int Rand5 = rand() % 1000;

  00315	e8 00 00 00 00	 call	 _rand
  0031a	99		 cdq
  0031b	b9 e8 03 00 00	 mov	 ecx, 1000		; 000003e8H
  00320	f7 f9		 idiv	 ecx

; 6632 : 			{
; 6633 : 				ExcOption |= 0x02;

  00322	8b 45 e8	 mov	 eax, DWORD PTR _ExcOption$2$[ebp]
  00325	83 eb 00	 sub	 ebx, 0
  00328	74 0f		 je	 SHORT $LN42@Wing25Mix

; 6621 : 
; 6622 : 		switch( Rand4 )

  0032a	83 eb 01	 sub	 ebx, 1
  0032d	75 12		 jne	 SHORT $LN43@Wing25Mix

; 6628 : 			}
; 6629 : 			break;
; 6630 : 		case 1:
; 6631 : 			if( Rand5 < 20 )

  0032f	83 fa 14	 cmp	 edx, 20			; 00000014H
  00332	7d 0d		 jge	 SHORT $LN43@Wing25Mix

; 6632 : 			{
; 6633 : 				ExcOption |= 0x02;

  00334	83 c8 02	 or	 eax, 2
  00337	eb 08		 jmp	 SHORT $LN43@Wing25Mix
$LN42@Wing25Mix:

; 6623 : 		{
; 6624 : 		case 0:
; 6625 : 			if( Rand5 < 40 )

  00339	83 fa 28	 cmp	 edx, 40			; 00000028H
  0033c	7d 03		 jge	 SHORT $LN43@Wing25Mix

; 6626 : 			{
; 6627 : 				ExcOption |= 0x01;

  0033e	83 c8 01	 or	 eax, 1
$LN43@Wing25Mix:

; 6634 : 			}
; 6635 : 			break;
; 6636 : 		}
; 6637 : #if( __4GAMERS__ == 1 )
; 6638 : 			g_Achievements.GD_UpdateMixData(lpObj, true);
; 6639 : #endif
; 6640 : 		ItemSerialCreateSend(lpObj->m_Index,255,0,0,Item,0,0,Option1,Option2,Option3,-1,ExcOption,0);

  00341	6a 00		 push	 0
  00343	6a 00		 push	 0
  00345	6a 00		 push	 0
  00347	50		 push	 eax
  00348	8b 45 c4	 mov	 eax, DWORD PTR _iMaterialID$1$[ebp]
  0034b	6a ff		 push	 -1
  0034d	57		 push	 edi
  0034e	ff 75 d8	 push	 DWORD PTR _Option2$2$[ebp]
  00351	05 56 fc ff ff	 add	 eax, -938		; fffffc56H
  00356	6a 00		 push	 0
  00358	6a 00		 push	 0
  0035a	6a 00		 push	 0
  0035c	50		 push	 eax
  0035d	6a 00		 push	 0
  0035f	6a 00		 push	 0
  00361	68 ff 00 00 00	 push	 255			; 000000ffH
  00366	ff 36		 push	 DWORD PTR [esi]
  00368	e8 00 00 00 00	 call	 ?ItemSerialCreateSend@@YAXHEEEHEEEEEHEEEPAE@Z ; ItemSerialCreateSend

; 6641 : 		gObjInventoryCommit(lpObj->m_Index);

  0036d	ff 36		 push	 DWORD PTR [esi]
  0036f	e8 00 00 00 00	 call	 ?gObjInventoryCommit@@YAHH@Z ; gObjInventoryCommit
  00374	83 c4 40	 add	 esp, 64			; 00000040H

; 6642 : 		LogAddTD("[25Wing Mix] [%s][%s] CBMix Success %d Money : %d-%d, CharmRate : %d",

  00377	8d 46 5d	 lea	 eax, DWORD PTR [esi+93]
  0037a	ff 75 cc	 push	 DWORD PTR _iCharmOfLuckCount$1$[ebp]
  0037d	ff 75 dc	 push	 DWORD PTR _iNeedChaosMoney$2$[ebp]
  00380	ff b6 cc 00 00
	00		 push	 DWORD PTR [esi+204]
  00386	ff b6 1c 12 00
	00		 push	 DWORD PTR [esi+4636]
  0038c	50		 push	 eax
  0038d	8d 46 52	 lea	 eax, DWORD PTR [esi+82]
  00390	50		 push	 eax
  00391	68 00 00 00 00	 push	 OFFSET ??_C@_0EF@KFBIJMHJ@?$FL25Wing?5Mix?$FN?5?$FL?$CFs?$FN?$FL?$CFs?$FN?5CBMix?5Succ@
  00396	ff 15 00 00 00
	00		 call	 DWORD PTR ?LogAddTD@@3P6AXPADZZA ; LogAddTD
  0039c	83 c4 1c	 add	 esp, 28			; 0000001cH
  0039f	5f		 pop	 edi
  003a0	5e		 pop	 esi
  003a1	5b		 pop	 ebx

; 6659 : 	}
; 6660 : }

  003a2	8b 4d fc	 mov	 ecx, DWORD PTR __$ArrayPad$[ebp]
  003a5	33 cd		 xor	 ecx, ebp
  003a7	e8 00 00 00 00	 call	 @__security_check_cookie@4
  003ac	8b e5		 mov	 esp, ebp
  003ae	5d		 pop	 ebp
  003af	c2 04 00	 ret	 4
$LN32@Wing25Mix:

; 6643 : 			lpObj->AccountID,lpObj->Name,lpObj->ChaosSuccessRate,lpObj->Money,iNeedChaosMoney,iCharmOfLuckCount);
; 6644 : 	}
; 6645 : 	else
; 6646 : 	{
; 6647 : #if( __4GAMERS__ == 1 )
; 6648 : 			g_Achievements.GD_UpdateMixData(lpObj, false);
; 6649 : #endif
; 6650 : 		ChaosBoxInit(lpObj);

  003b2	8b 4d c8	 mov	 ecx, DWORD PTR _this$1$[ebp]
  003b5	56		 push	 esi
  003b6	e8 00 00 00 00	 call	 ?ChaosBoxInit@CChaosBox@@QAEHPAUOBJECTSTRUCT@@@Z ; CChaosBox::ChaosBoxInit

; 6651 : 		GCUserChaosBoxSend(lpObj,0);

  003bb	6a 00		 push	 0
  003bd	56		 push	 esi
  003be	e8 00 00 00 00	 call	 ?GCUserChaosBoxSend@@YAXPAUOBJECTSTRUCT@@H@Z ; GCUserChaosBoxSend

; 6652 : 
; 6653 : 		DataSend(lpObj->m_Index,(LPBYTE)&pMsg,pMsg.h.size);

  003c3	0f b6 45 ed	 movzx	 eax, BYTE PTR _pMsg$[ebp+1]
  003c7	50		 push	 eax
  003c8	8d 45 ec	 lea	 eax, DWORD PTR _pMsg$[ebp]
  003cb	50		 push	 eax
  003cc	ff 36		 push	 DWORD PTR [esi]
  003ce	e8 00 00 00 00	 call	 ?DataSend@@YAHHPAEK@Z	; DataSend

; 6654 : 
; 6655 : 		LogAddTD("[25Wing Mix] [%s][%s] CBMix Fail %d Money : %d-%d, CharmRate : %d",

  003d3	57		 push	 edi
  003d4	53		 push	 ebx
  003d5	ff b6 cc 00 00
	00		 push	 DWORD PTR [esi+204]
  003db	8d 46 5d	 lea	 eax, DWORD PTR [esi+93]
  003de	ff b6 1c 12 00
	00		 push	 DWORD PTR [esi+4636]
  003e4	50		 push	 eax
  003e5	8d 46 52	 lea	 eax, DWORD PTR [esi+82]
  003e8	50		 push	 eax
  003e9	68 00 00 00 00	 push	 OFFSET ??_C@_0EC@CJEGAMMB@?$FL25Wing?5Mix?$FN?5?$FL?$CFs?$FN?$FL?$CFs?$FN?5CBMix?5Fail@
  003ee	ff 15 00 00 00
	00		 call	 DWORD PTR ?LogAddTD@@3P6AXPADZZA ; LogAddTD
  003f4	83 c4 30	 add	 esp, 48			; 00000030H

; 6656 : 			lpObj->AccountID,lpObj->Name,lpObj->ChaosSuccessRate,lpObj->Money,iNeedChaosMoney,iCharmOfLuckCount);
; 6657 : 
; 6658 : 		lpObj->ChaosLock = FALSE;

  003f7	eb 17		 jmp	 SHORT $LN60@Wing25Mix
$LN24@Wing25Mix:

; 6521 : 		iChaosCount != 1 )
; 6522 : 	{
; 6523 : 		pMsg.Result = 7;

  003f9	c6 45 ef 07	 mov	 BYTE PTR _pMsg$[ebp+3], 7
$LN59@Wing25Mix:

; 6524 : 		DataSend(lpObj->m_Index,(LPBYTE)&pMsg,pMsg.h.size);

  003fd	0f b6 45 ed	 movzx	 eax, BYTE PTR _pMsg$[ebp+1]
  00401	50		 push	 eax
  00402	8d 45 ec	 lea	 eax, DWORD PTR _pMsg$[ebp]
  00405	50		 push	 eax
  00406	ff 36		 push	 DWORD PTR [esi]
  00408	e8 00 00 00 00	 call	 ?DataSend@@YAHHPAEK@Z	; DataSend
  0040d	83 c4 0c	 add	 esp, 12			; 0000000cH
$LN60@Wing25Mix:

; 6659 : 	}
; 6660 : }

  00410	8b 4d fc	 mov	 ecx, DWORD PTR __$ArrayPad$[ebp]
  00413	5f		 pop	 edi
  00414	c7 86 20 12 00
	00 00 00 00 00	 mov	 DWORD PTR [esi+4640], 0
  0041e	33 cd		 xor	 ecx, ebp
  00420	5e		 pop	 esi
  00421	5b		 pop	 ebx
  00422	e8 00 00 00 00	 call	 @__security_check_cookie@4
  00427	8b e5		 mov	 esp, ebp
  00429	5d		 pop	 ebp
  0042a	c2 04 00	 ret	 4
?Wing25Mix@CChaosBox@@QAEXPAUOBJECTSTRUCT@@@Z ENDP	; CChaosBox::Wing25Mix
_TEXT	ENDS
; Function compile flags: /Ogtp
; File c:\users\michel\desktop\source\gameserver\source\chaosbox.cpp
;	COMDAT ?GoldenNSilverBoxMix@CChaosBox@@QAEXPAUOBJECTSTRUCT@@@Z
_TEXT	SEGMENT
_nEtcItem$1$ = -36					; size = 4
_nGoldenKey$1$ = -32					; size = 4
_nGoldenBox$1$ = -28					; size = 4
_nSilverBox$1$ = -24					; size = 4
_pMsg$ = -20						; size = 16
__$ArrayPad$ = -4					; size = 4
_lpObj$ = 8						; size = 4
?GoldenNSilverBoxMix@CChaosBox@@QAEXPAUOBJECTSTRUCT@@@Z PROC ; CChaosBox::GoldenNSilverBoxMix, COMDAT
; _this$ = ecx

; 6096 : {

  00000	55		 push	 ebp
  00001	8b ec		 mov	 ebp, esp
  00003	83 ec 24	 sub	 esp, 36			; 00000024H
  00006	a1 00 00 00 00	 mov	 eax, DWORD PTR ___security_cookie
  0000b	33 c5		 xor	 eax, ebp
  0000d	89 45 fc	 mov	 DWORD PTR __$ArrayPad$[ebp], eax
  00010	53		 push	 ebx
  00011	56		 push	 esi
  00012	57		 push	 edi
  00013	8b 7d 08	 mov	 edi, DWORD PTR _lpObj$[ebp]

; 6097 : 	PMSG_CHAOSMIXRESULT pMsg;
; 6098 : 	PHeadSetB((LPBYTE)&pMsg.h, 0x86, sizeof(PMSG_CHAOSMIXRESULT));

  00016	8d 45 ec	 lea	 eax, DWORD PTR _pMsg$[ebp]
  00019	6a 10		 push	 16			; 00000010H
  0001b	68 86 00 00 00	 push	 134			; 00000086H
  00020	50		 push	 eax
  00021	e8 00 00 00 00	 call	 ?PHeadSetB@@YAXPAEEH@Z	; PHeadSetB

; 6099 : 	// ----
; 6100 : 	pMsg.Result				= CB_ERROR;	//ebp-11
; 6101 : 	int nGoldenKey			= 0;		//ebp-18
; 6102 : 	int nSilverKey			= 0;		//ebp-1c

  00026	33 db		 xor	 ebx, ebx
  00028	c6 45 ef 00	 mov	 BYTE PTR _pMsg$[ebp+3], 0
  0002c	83 c4 0c	 add	 esp, 12			; 0000000cH
  0002f	c7 45 e0 00 00
	00 00		 mov	 DWORD PTR _nGoldenKey$1$[ebp], 0

; 6103 : 	int nGoldenBox			= 0;		//ebp-20
; 6104 : 	int nSilverBox			= 0;		//ebp-24
; 6105 : 	int nEtcItem			= 0;		//ebp-28

  00036	33 f6		 xor	 esi, esi
  00038	89 5d e4	 mov	 DWORD PTR _nGoldenBox$1$[ebp], ebx
  0003b	89 5d e8	 mov	 DWORD PTR _nSilverBox$1$[ebp], ebx
  0003e	89 75 dc	 mov	 DWORD PTR _nEtcItem$1$[ebp], esi

; 6106 : 	int nType				= 0;		//ebp-2c
; 6107 : 	bool bCheckSourceItem	= false;	//ebp-30
; 6108 : 	lpObj->ChaosLock		= true;

  00041	c7 87 20 12 00
	00 01 00 00 00	 mov	 DWORD PTR [edi+4640], 1
  0004b	0f 1f 44 00 00	 npad	 5
$LL4@GoldenNSil:

; 6111 : 	{
; 6112 : 		if( lpObj->pChaosBox[i].IsItem() )

  00050	8b 8f 10 12 00
	00		 mov	 ecx, DWORD PTR [edi+4624]
  00056	03 ce		 add	 ecx, esi
  00058	e8 00 00 00 00	 call	 ?IsItem@CItem@@QAEHXZ	; CItem::IsItem
  0005d	85 c0		 test	 eax, eax
  0005f	74 29		 je	 SHORT $LN29@GoldenNSil

; 6113 : 		{
; 6114 : 			if( lpObj->pChaosBox[i].m_Type == ITEMGET(14, 113) )

  00061	8b 87 10 12 00
	00		 mov	 eax, DWORD PTR [edi+4624]
  00067	b9 71 1c 00 00	 mov	 ecx, 7281		; 00001c71H
  0006c	0f b7 44 30 06	 movzx	 eax, WORD PTR [eax+esi+6]
  00071	66 3b c1	 cmp	 ax, cx
  00074	75 09		 jne	 SHORT $LN6@GoldenNSil

; 6115 : 			{
; 6116 : 				nGoldenKey++;

  00076	8b 55 e0	 mov	 edx, DWORD PTR _nGoldenKey$1$[ebp]
  00079	42		 inc	 edx
  0007a	89 55 e0	 mov	 DWORD PTR _nGoldenKey$1$[ebp], edx
  0007d	eb 0e		 jmp	 SHORT $LN30@GoldenNSil
$LN6@GoldenNSil:

; 6117 : 			}
; 6118 : 			else if( lpObj->pChaosBox[i].m_Type == ITEMGET(14, 112) )

  0007f	b9 70 1c 00 00	 mov	 ecx, 7280		; 00001c70H
  00084	66 3b c1	 cmp	 ax, cx
  00087	75 3e		 jne	 SHORT $LN8@GoldenNSil

; 6119 : 			{
; 6120 : 				nSilverKey++;

  00089	43		 inc	 ebx
$LN29@GoldenNSil:
  0008a	8b 55 e0	 mov	 edx, DWORD PTR _nGoldenKey$1$[ebp]
$LN30@GoldenNSil:
  0008d	8b 4d e4	 mov	 ecx, DWORD PTR _nGoldenBox$1$[ebp]
$LN31@GoldenNSil:
  00090	8b 45 e8	 mov	 eax, DWORD PTR _nSilverBox$1$[ebp]
$LN2@GoldenNSil:

; 6109 : 	// ----
; 6110 : 	for( int i = 0; i < CHAOS_BOX_SIZE; i++ )	//ebp-34

  00093	81 c6 d4 00 00
	00		 add	 esi, 212		; 000000d4H
  00099	81 fe 80 1a 00
	00		 cmp	 esi, 6784		; 00001a80H
  0009f	7c af		 jl	 SHORT $LL4@GoldenNSil

; 6133 : 			}
; 6134 : 		}
; 6135 : 	}
; 6136 : 	// ----
; 6137 : 	if( nEtcItem >= 1 || nGoldenKey != 1 && nSilverKey != 1 )

  000a1	83 7d dc 01	 cmp	 DWORD PTR _nEtcItem$1$[ebp], 1
  000a5	0f 8d a5 00 00
	00		 jge	 $LN20@GoldenNSil
  000ab	83 fa 01	 cmp	 edx, 1
  000ae	75 48		 jne	 SHORT $LN17@GoldenNSil

; 6138 : 	{
; 6139 : 		bCheckSourceItem = false;
; 6140 : 	}
; 6141 : 	else if( nGoldenKey == 1 && nGoldenBox == 1 && !nSilverKey && !nSilverBox )

  000b0	3b ca		 cmp	 ecx, edx
  000b2	75 44		 jne	 SHORT $LN17@GoldenNSil
  000b4	85 db		 test	 ebx, ebx
  000b6	75 40		 jne	 SHORT $LN17@GoldenNSil
  000b8	85 c0		 test	 eax, eax
  000ba	0f 85 90 00 00
	00		 jne	 $LN20@GoldenNSil

; 6142 : 	{
; 6143 : 		nType = ITEMGET(14, 123);

  000c0	b8 7b 1c 00 00	 mov	 eax, 7291		; 00001c7bH

; 6144 : 		bCheckSourceItem = true;

  000c5	eb 47		 jmp	 SHORT $LN28@GoldenNSil
$LN8@GoldenNSil:

; 6121 : 			}
; 6122 : 			else if( lpObj->pChaosBox[i].m_Type == ITEMGET(14, 121) )
; 6123 : 			{
; 6124 : 				nGoldenBox++;

  000c7	8b 55 e0	 mov	 edx, DWORD PTR _nGoldenKey$1$[ebp]
  000ca	b9 79 1c 00 00	 mov	 ecx, 7289		; 00001c79H
  000cf	66 3b c1	 cmp	 ax, cx
  000d2	75 09		 jne	 SHORT $LN10@GoldenNSil
  000d4	8b 4d e4	 mov	 ecx, DWORD PTR _nGoldenBox$1$[ebp]
  000d7	41		 inc	 ecx
  000d8	89 4d e4	 mov	 DWORD PTR _nGoldenBox$1$[ebp], ecx
  000db	eb b3		 jmp	 SHORT $LN31@GoldenNSil
$LN10@GoldenNSil:

; 6125 : 			}
; 6126 : 			else if( lpObj->pChaosBox[i].m_Type == ITEMGET(14, 122) )

  000dd	b9 7a 1c 00 00	 mov	 ecx, 7290		; 00001c7aH
  000e2	66 3b c1	 cmp	 ax, cx

; 6127 : 			{
; 6128 : 				nSilverBox++;

  000e5	8b 45 e8	 mov	 eax, DWORD PTR _nSilverBox$1$[ebp]

; 6129 : 			}
; 6130 : 			else

  000e8	8b 4d e4	 mov	 ecx, DWORD PTR _nGoldenBox$1$[ebp]
  000eb	75 06		 jne	 SHORT $LN12@GoldenNSil

; 6127 : 			{
; 6128 : 				nSilverBox++;

  000ed	40		 inc	 eax
  000ee	89 45 e8	 mov	 DWORD PTR _nSilverBox$1$[ebp], eax

; 6129 : 			}
; 6130 : 			else

  000f1	eb a0		 jmp	 SHORT $LN2@GoldenNSil
$LN12@GoldenNSil:

; 6131 : 			{
; 6132 : 				nEtcItem++;

  000f3	ff 45 dc	 inc	 DWORD PTR _nEtcItem$1$[ebp]
  000f6	eb 9b		 jmp	 SHORT $LN2@GoldenNSil
$LN17@GoldenNSil:

; 6145 : 	}
; 6146 : 	else if( nSilverKey == 1 && nSilverBox == 1 && !nGoldenKey && !nGoldenBox )

  000f8	83 fb 01	 cmp	 ebx, 1
  000fb	75 53		 jne	 SHORT $LN20@GoldenNSil
  000fd	3b c3		 cmp	 eax, ebx
  000ff	75 4f		 jne	 SHORT $LN20@GoldenNSil
  00101	85 d2		 test	 edx, edx
  00103	75 4b		 jne	 SHORT $LN20@GoldenNSil
  00105	85 c9		 test	 ecx, ecx
  00107	75 47		 jne	 SHORT $LN20@GoldenNSil

; 6147 : 	{
; 6148 : 		nType = ITEMGET(14, 124);

  00109	b8 7c 1c 00 00	 mov	 eax, 7292		; 00001c7cH
$LN28@GoldenNSil:

; 6149 : 		bCheckSourceItem = true;
; 6150 : 	}
; 6151 : 	// ----
; 6152 : 	if( bCheckSourceItem )
; 6153 : 	{
; 6154 : 		ItemSerialCreateSend(lpObj->m_Index, 0xFF, 0, 0, nType, 0, 0, 0, 0, 0, -1, 0, 0);

  0010e	6a 00		 push	 0
  00110	6a 00		 push	 0
  00112	6a 00		 push	 0
  00114	6a 00		 push	 0
  00116	6a ff		 push	 -1
  00118	6a 00		 push	 0
  0011a	6a 00		 push	 0
  0011c	6a 00		 push	 0
  0011e	6a 00		 push	 0
  00120	6a 00		 push	 0
  00122	50		 push	 eax
  00123	6a 00		 push	 0
  00125	6a 00		 push	 0
  00127	68 ff 00 00 00	 push	 255			; 000000ffH
  0012c	ff 37		 push	 DWORD PTR [edi]
  0012e	e8 00 00 00 00	 call	 ?ItemSerialCreateSend@@YAXHEEEHEEEEEHEEEPAE@Z ; ItemSerialCreateSend

; 6155 : 		gObjInventoryCommit(lpObj->m_Index);

  00133	ff 37		 push	 DWORD PTR [edi]
  00135	e8 00 00 00 00	 call	 ?gObjInventoryCommit@@YAHH@Z ; gObjInventoryCommit
  0013a	83 c4 40	 add	 esp, 64			; 00000040H
  0013d	5f		 pop	 edi
  0013e	5e		 pop	 esi
  0013f	5b		 pop	 ebx

; 6161 : 	lpObj->ChaosLock = false;
; 6162 : }

  00140	8b 4d fc	 mov	 ecx, DWORD PTR __$ArrayPad$[ebp]
  00143	33 cd		 xor	 ecx, ebp
  00145	e8 00 00 00 00	 call	 @__security_check_cookie@4
  0014a	8b e5		 mov	 esp, ebp
  0014c	5d		 pop	 ebp
  0014d	c2 04 00	 ret	 4
$LN20@GoldenNSil:

; 6156 : 		return;
; 6157 : 	}
; 6158 : 	// ----
; 6159 : 	pMsg.Result = 1;
; 6160 : 	DataSend(lpObj->m_Index, (LPBYTE)&pMsg, pMsg.h.size);

  00150	0f b6 45 ed	 movzx	 eax, BYTE PTR _pMsg$[ebp+1]
  00154	50		 push	 eax
  00155	8d 45 ec	 lea	 eax, DWORD PTR _pMsg$[ebp]
  00158	c6 45 ef 01	 mov	 BYTE PTR _pMsg$[ebp+3], 1
  0015c	50		 push	 eax
  0015d	ff 37		 push	 DWORD PTR [edi]
  0015f	e8 00 00 00 00	 call	 ?DataSend@@YAHHPAEK@Z	; DataSend

; 6161 : 	lpObj->ChaosLock = false;
; 6162 : }

  00164	8b 4d fc	 mov	 ecx, DWORD PTR __$ArrayPad$[ebp]
  00167	83 c4 0c	 add	 esp, 12			; 0000000cH
  0016a	c7 87 20 12 00
	00 00 00 00 00	 mov	 DWORD PTR [edi+4640], 0
  00174	33 cd		 xor	 ecx, ebp
  00176	5f		 pop	 edi
  00177	5e		 pop	 esi
  00178	5b		 pop	 ebx
  00179	e8 00 00 00 00	 call	 @__security_check_cookie@4
  0017e	8b e5		 mov	 esp, ebp
  00180	5d		 pop	 ebp
  00181	c2 04 00	 ret	 4
?GoldenNSilverBoxMix@CChaosBox@@QAEXPAUOBJECTSTRUCT@@@Z ENDP ; CChaosBox::GoldenNSilverBoxMix
_TEXT	ENDS
; Function compile flags: /Ogtp
; File c:\users\michel\desktop\source\gameserver\source\chaosbox.cpp
;	COMDAT ?LuckySystemJewelCreate@CChaosBox@@QAEXPAUOBJECTSTRUCT@@@Z
_TEXT	SEGMENT
_this$1$ = -32						; size = 4
_iLuckyItemDurability$1$ = -28				; size = 4
_iLuckyItemCount$1$ = -24				; size = 4
_pMsg$ = -20						; size = 16
__$ArrayPad$ = -4					; size = 4
_lpObj$ = 8						; size = 4
?LuckySystemJewelCreate@CChaosBox@@QAEXPAUOBJECTSTRUCT@@@Z PROC ; CChaosBox::LuckySystemJewelCreate, COMDAT
; _this$ = ecx

; 6020 : {

  00000	55		 push	 ebp
  00001	8b ec		 mov	 ebp, esp
  00003	83 ec 20	 sub	 esp, 32			; 00000020H
  00006	a1 00 00 00 00	 mov	 eax, DWORD PTR ___security_cookie
  0000b	33 c5		 xor	 eax, ebp
  0000d	89 45 fc	 mov	 DWORD PTR __$ArrayPad$[ebp], eax
  00010	53		 push	 ebx
  00011	56		 push	 esi
  00012	8b 75 08	 mov	 esi, DWORD PTR _lpObj$[ebp]

; 6021 : 	lpObj->ChaosLock = TRUE;
; 6022 : 
; 6023 : 	int iLuckyItemCount = 0;
; 6024 : 	float iLuckyItemDurability = 0;
; 6025 : 	int iOtherItemCount = 0;
; 6026 : 
; 6027 : 	PMSG_CHAOSMIXRESULT pMsg;
; 6028 : 
; 6029 : 	PHeadSetB((LPBYTE)&pMsg.h, 0x86, sizeof(PMSG_CHAOSMIXRESULT));

  00015	8d 45 ec	 lea	 eax, DWORD PTR _pMsg$[ebp]
  00018	57		 push	 edi
  00019	6a 10		 push	 16			; 00000010H
  0001b	0f 57 c0	 xorps	 xmm0, xmm0
  0001e	89 4d e0	 mov	 DWORD PTR _this$1$[ebp], ecx
  00021	68 86 00 00 00	 push	 134			; 00000086H
  00026	50		 push	 eax
  00027	c7 86 20 12 00
	00 01 00 00 00	 mov	 DWORD PTR [esi+4640], 1
  00031	33 db		 xor	 ebx, ebx
  00033	c7 45 e8 00 00
	00 00		 mov	 DWORD PTR _iLuckyItemCount$1$[ebp], 0
  0003a	f3 0f 11 45 e4	 movss	 DWORD PTR _iLuckyItemDurability$1$[ebp], xmm0
  0003f	e8 00 00 00 00	 call	 ?PHeadSetB@@YAXPAEEH@Z	; PHeadSetB
  00044	83 c4 0c	 add	 esp, 12			; 0000000cH

; 6030 : 	pMsg.Result = CB_ERROR;

  00047	88 5d ef	 mov	 BYTE PTR _pMsg$[ebp+3], bl
  0004a	33 ff		 xor	 edi, edi
  0004c	0f 1f 40 00	 npad	 4
$LL4@LuckySyste:

; 6033 : 	{
; 6034 : 		if( lpObj->pChaosBox[n].IsItem() )

  00050	8b 8e 10 12 00
	00		 mov	 ecx, DWORD PTR [esi+4624]
  00056	03 cf		 add	 ecx, edi
  00058	e8 00 00 00 00	 call	 ?IsItem@CItem@@QAEHXZ	; CItem::IsItem
  0005d	85 c0		 test	 eax, eax
  0005f	74 25		 je	 SHORT $LN19@LuckySyste

; 6035 : 		{
; 6036 : 			if( lpObj->pChaosBox[n].m_bLuckySet )

  00061	8b 86 10 12 00
	00		 mov	 eax, DWORD PTR [esi+4624]
  00067	80 bc 38 ce 00
	00 00 00	 cmp	 BYTE PTR [eax+edi+206], 0
  0006f	74 14		 je	 SHORT $LN6@LuckySyste

; 6037 : 			{
; 6038 : 				iLuckyItemDurability = lpObj->pChaosBox[n].m_Durability;

  00071	f3 0f 10 44 38
	24		 movss	 xmm0, DWORD PTR [eax+edi+36]

; 6039 : 				iLuckyItemCount++;

  00077	8b 45 e8	 mov	 eax, DWORD PTR _iLuckyItemCount$1$[ebp]
  0007a	40		 inc	 eax
  0007b	f3 0f 11 45 e4	 movss	 DWORD PTR _iLuckyItemDurability$1$[ebp], xmm0
  00080	89 45 e8	 mov	 DWORD PTR _iLuckyItemCount$1$[ebp], eax

; 6040 : 			}
; 6041 : 			else

  00083	eb 04		 jmp	 SHORT $LN2@LuckySyste
$LN6@LuckySyste:

; 6042 : 			{
; 6043 : 				iOtherItemCount++;

  00085	43		 inc	 ebx
$LN19@LuckySyste:
  00086	8b 45 e8	 mov	 eax, DWORD PTR _iLuckyItemCount$1$[ebp]
$LN2@LuckySyste:

; 6031 : 
; 6032 : 	for(int n = 0; n < CHAOS_BOX_SIZE; n++)

  00089	81 c7 d4 00 00
	00		 add	 edi, 212		; 000000d4H
  0008f	81 ff 80 1a 00
	00		 cmp	 edi, 6784		; 00001a80H
  00095	7c b9		 jl	 SHORT $LL4@LuckySyste

; 6044 : 			}
; 6045 : 		}
; 6046 : 	}
; 6047 : 
; 6048 : 	if( iLuckyItemCount != 1 ||

  00097	83 f8 01	 cmp	 eax, 1
  0009a	0f 85 f2 00 00
	00		 jne	 $LN9@LuckySyste
  000a0	85 db		 test	 ebx, ebx
  000a2	0f 85 ea 00 00
	00		 jne	 $LN9@LuckySyste

; 6053 : 		lpObj->ChaosLock = FALSE;
; 6054 : 		return;
; 6055 : 	}
; 6056 : 
; 6057 : 	LogChaosItem(lpObj, "LuckySystem");

  000a8	8b 7d e0	 mov	 edi, DWORD PTR _this$1$[ebp]
  000ab	8b cf		 mov	 ecx, edi
  000ad	68 00 00 00 00	 push	 OFFSET ??_C@_0M@JDLPAJDH@LuckySystem?$AA@
  000b2	56		 push	 esi
  000b3	e8 00 00 00 00	 call	 ?LogChaosItem@CChaosBox@@QAEXPAUOBJECTSTRUCT@@PAD@Z ; CChaosBox::LogChaosItem

; 6058 : 	LogAddTD("[LuckySystem] Chaos Mix Start");

  000b8	68 00 00 00 00	 push	 OFFSET ??_C@_0BO@IIPPLEDJ@?$FLLuckySystem?$FN?5Chaos?5Mix?5Start?$AA@
  000bd	ff 15 00 00 00
	00		 call	 DWORD PTR ?LogAddTD@@3P6AXPADZZA ; LogAddTD

; 6059 : 
; 6060 : 	if( iLuckyItemDurability == 255 )

  000c3	f3 0f 10 45 e4	 movss	 xmm0, DWORD PTR _iLuckyItemDurability$1$[ebp]
  000c8	83 c4 04	 add	 esp, 4
  000cb	0f 2e 05 00 00
	00 00		 ucomiss xmm0, DWORD PTR __real@437f0000
  000d2	9f		 lahf
  000d3	f6 c4 44	 test	 ah, 68			; 00000044H
  000d6	7a 0c		 jp	 SHORT $LN10@LuckySyste

; 6061 : 	{
; 6062 : 		lpObj->ChaosSuccessRate = 60;

  000d8	c7 86 1c 12 00
	00 3c 00 00 00	 mov	 DWORD PTR [esi+4636], 60 ; 0000003cH

; 6063 : 	}
; 6064 : 	else

  000e2	eb 0a		 jmp	 SHORT $LN11@LuckySyste
$LN10@LuckySyste:

; 6065 : 	{
; 6066 : 		lpObj->ChaosSuccessRate = 10;

  000e4	c7 86 1c 12 00
	00 0a 00 00 00	 mov	 DWORD PTR [esi+4636], 10 ; 0000000aH
$LN11@LuckySyste:

; 6067 : 	}
; 6068 : 
; 6069 : 	if( rand()%100 < lpObj->ChaosSuccessRate )

  000ee	e8 00 00 00 00	 call	 _rand
  000f3	99		 cdq
  000f4	b9 64 00 00 00	 mov	 ecx, 100		; 00000064H
  000f9	f7 f9		 idiv	 ecx
  000fb	3b 96 1c 12 00
	00		 cmp	 edx, DWORD PTR [esi+4636]
  00101	7d 51		 jge	 SHORT $LN12@LuckySyste

; 6070 : 	{
; 6071 : 		int Item = ITEMGET(14,160);
; 6072 : #if( __4GAMERS__ == 1 )
; 6073 : 			g_Achievements.GD_UpdateMixData(lpObj, true);
; 6074 : #endif
; 6075 : 		ItemSerialCreateSend(lpObj->m_Index,255,0,0,Item,0,0,0,0,0,-1,0,0);

  00103	6a 00		 push	 0
  00105	6a 00		 push	 0
  00107	6a 00		 push	 0
  00109	6a 00		 push	 0
  0010b	6a ff		 push	 -1
  0010d	6a 00		 push	 0
  0010f	6a 00		 push	 0
  00111	6a 00		 push	 0
  00113	6a 00		 push	 0
  00115	6a 00		 push	 0
  00117	68 a0 1c 00 00	 push	 7328			; 00001ca0H
  0011c	6a 00		 push	 0
  0011e	6a 00		 push	 0
  00120	68 ff 00 00 00	 push	 255			; 000000ffH
  00125	ff 36		 push	 DWORD PTR [esi]
  00127	e8 00 00 00 00	 call	 ?ItemSerialCreateSend@@YAXHEEEHEEEEEHEEEPAE@Z ; ItemSerialCreateSend

; 6076 : 		gObjInventoryCommit(lpObj->m_Index);

  0012c	ff 36		 push	 DWORD PTR [esi]
  0012e	e8 00 00 00 00	 call	 ?gObjInventoryCommit@@YAHH@Z ; gObjInventoryCommit
  00133	83 c4 40	 add	 esp, 64			; 00000040H

; 6077 : 		LogAddTD("[LuckySystem][JewelOfExtension][%s][%s] CBMix Success %d",

  00136	8d 46 5d	 lea	 eax, DWORD PTR [esi+93]
  00139	ff b6 1c 12 00
	00		 push	 DWORD PTR [esi+4636]
  0013f	50		 push	 eax
  00140	8d 46 52	 lea	 eax, DWORD PTR [esi+82]
  00143	50		 push	 eax
  00144	68 00 00 00 00	 push	 OFFSET ??_C@_0DJ@MAMOGFAN@?$FLLuckySystem?$FN?$FLJewelOfExtension?$FN?$FL@
  00149	ff 15 00 00 00
	00		 call	 DWORD PTR ?LogAddTD@@3P6AXPADZZA ; LogAddTD
  0014f	83 c4 10	 add	 esp, 16			; 00000010H

; 6078 : 			lpObj->AccountID,lpObj->Name,lpObj->ChaosSuccessRate);
; 6079 : 	}
; 6080 : 	else

  00152	eb 55		 jmp	 SHORT $LN13@LuckySyste
$LN12@LuckySyste:

; 6081 : 	{
; 6082 : #if( __4GAMERS__ == 1 )
; 6083 : 			g_Achievements.GD_UpdateMixData(lpObj, false);
; 6084 : #endif
; 6085 : 		ChaosBoxInit(lpObj);

  00154	56		 push	 esi
  00155	8b cf		 mov	 ecx, edi
  00157	e8 00 00 00 00	 call	 ?ChaosBoxInit@CChaosBox@@QAEHPAUOBJECTSTRUCT@@@Z ; CChaosBox::ChaosBoxInit

; 6086 : 		GCUserChaosBoxSend(lpObj,0);

  0015c	6a 00		 push	 0
  0015e	56		 push	 esi
  0015f	e8 00 00 00 00	 call	 ?GCUserChaosBoxSend@@YAXPAUOBJECTSTRUCT@@H@Z ; GCUserChaosBoxSend

; 6087 : 		DataSend(lpObj->m_Index,(LPBYTE)&pMsg,pMsg.h.size);

  00164	0f b6 45 ed	 movzx	 eax, BYTE PTR _pMsg$[ebp+1]
  00168	50		 push	 eax
  00169	8d 45 ec	 lea	 eax, DWORD PTR _pMsg$[ebp]
  0016c	50		 push	 eax
  0016d	ff 36		 push	 DWORD PTR [esi]
  0016f	e8 00 00 00 00	 call	 ?DataSend@@YAHHPAEK@Z	; DataSend

; 6088 : 		LogAddTD("[LuckySystem][JewelOfExtension][%s][%s] CBMix Fail %d",

  00174	ff b6 1c 12 00
	00		 push	 DWORD PTR [esi+4636]
  0017a	8d 46 5d	 lea	 eax, DWORD PTR [esi+93]
  0017d	50		 push	 eax
  0017e	8d 46 52	 lea	 eax, DWORD PTR [esi+82]
  00181	50		 push	 eax
  00182	68 00 00 00 00	 push	 OFFSET ??_C@_0DG@LBFHIFGE@?$FLLuckySystem?$FN?$FLJewelOfExtension?$FN?$FL@
  00187	ff 15 00 00 00
	00		 call	 DWORD PTR ?LogAddTD@@3P6AXPADZZA ; LogAddTD
  0018d	83 c4 24	 add	 esp, 36			; 00000024H

; 6089 : 			lpObj->AccountID,lpObj->Name,lpObj->ChaosSuccessRate);
; 6090 : 	}
; 6091 : 
; 6092 : 	lpObj->ChaosLock = FALSE;

  00190	eb 17		 jmp	 SHORT $LN13@LuckySyste
$LN9@LuckySyste:

; 6049 : 		iOtherItemCount != 0 )
; 6050 : 	{
; 6051 : 		pMsg.Result = 7;
; 6052 : 		DataSend(lpObj->m_Index,(LPBYTE)&pMsg,pMsg.h.size);

  00192	0f b6 45 ed	 movzx	 eax, BYTE PTR _pMsg$[ebp+1]
  00196	50		 push	 eax
  00197	8d 45 ec	 lea	 eax, DWORD PTR _pMsg$[ebp]
  0019a	c6 45 ef 07	 mov	 BYTE PTR _pMsg$[ebp+3], 7
  0019e	50		 push	 eax
  0019f	ff 36		 push	 DWORD PTR [esi]
  001a1	e8 00 00 00 00	 call	 ?DataSend@@YAHHPAEK@Z	; DataSend
  001a6	83 c4 0c	 add	 esp, 12			; 0000000cH
$LN13@LuckySyste:

; 6093 : }

  001a9	8b 4d fc	 mov	 ecx, DWORD PTR __$ArrayPad$[ebp]
  001ac	5f		 pop	 edi
  001ad	c7 86 20 12 00
	00 00 00 00 00	 mov	 DWORD PTR [esi+4640], 0
  001b7	33 cd		 xor	 ecx, ebp
  001b9	5e		 pop	 esi
  001ba	5b		 pop	 ebx
  001bb	e8 00 00 00 00	 call	 @__security_check_cookie@4
  001c0	8b e5		 mov	 esp, ebp
  001c2	5d		 pop	 ebp
  001c3	c2 04 00	 ret	 4
?LuckySystemJewelCreate@CChaosBox@@QAEXPAUOBJECTSTRUCT@@@Z ENDP ; CChaosBox::LuckySystemJewelCreate
_TEXT	ENDS
; Function compile flags: /Ogtp
; File c:\users\michel\desktop\source\gameserver\source\chaosbox.cpp
;	COMDAT ?LuckySystemItemCreate@CChaosBox@@QAEXPAUOBJECTSTRUCT@@@Z
_TEXT	SEGMENT
_Option2$1$ = -52					; size = 4
_this$1$ = -48						; size = 4
_Level$1$ = -48						; size = 4
_ItemGroup$ = -48					; size = 4
_Item$1$ = -44						; size = 4
_LuckyCard$1$ = -44					; size = 4
_iLuckyCardCount$1$ = -40				; size = 4
_Option3$1$ = -40					; size = 4
_pMsg$ = -36						; size = 16
_gear_2$ = -20						; size = 7
_gear_1$ = -12						; size = 7
__$ArrayPad$ = -4					; size = 4
_lpObj$ = 8						; size = 4
?LuckySystemItemCreate@CChaosBox@@QAEXPAUOBJECTSTRUCT@@@Z PROC ; CChaosBox::LuckySystemItemCreate, COMDAT
; _this$ = ecx

; 5886 : {

  00000	55		 push	 ebp
  00001	8b ec		 mov	 ebp, esp
  00003	83 ec 34	 sub	 esp, 52			; 00000034H
  00006	a1 00 00 00 00	 mov	 eax, DWORD PTR ___security_cookie
  0000b	33 c5		 xor	 eax, ebp
  0000d	89 45 fc	 mov	 DWORD PTR __$ArrayPad$[ebp], eax
  00010	53		 push	 ebx
  00011	8b 5d 08	 mov	 ebx, DWORD PTR _lpObj$[ebp]

; 5887 : 	lpObj->ChaosLock = TRUE;
; 5888 : 
; 5889 : 	CItem* LuckyCard = NULL;

  00014	33 c0		 xor	 eax, eax
  00016	56		 push	 esi
  00017	57		 push	 edi

; 5890 : 	int iLuckyCardCount = 0;
; 5891 : 	int iOtherItemCount = 0;
; 5892 : 
; 5893 : 	BYTE gear_1[MAX_TYPE_PLAYER] = {64,62,63,62,62,65,62};
; 5894 : 	BYTE gear_2[MAX_TYPE_PLAYER] = {69,67,68,71,66,70,72};
; 5895 : 
; 5896 : 	PMSG_CHAOSMIXRESULT pMsg;
; 5897 : 
; 5898 : 	PHeadSetB((LPBYTE)&pMsg.h, 0x86, sizeof(PMSG_CHAOSMIXRESULT));

  00018	6a 10		 push	 16			; 00000010H
  0001a	89 45 d4	 mov	 DWORD PTR _LuckyCard$1$[ebp], eax
  0001d	33 ff		 xor	 edi, edi
  0001f	89 45 d8	 mov	 DWORD PTR _iLuckyCardCount$1$[ebp], eax
  00022	8d 45 dc	 lea	 eax, DWORD PTR _pMsg$[ebp]
  00025	68 86 00 00 00	 push	 134			; 00000086H
  0002a	50		 push	 eax
  0002b	89 4d d0	 mov	 DWORD PTR _this$1$[ebp], ecx
  0002e	c7 83 20 12 00
	00 01 00 00 00	 mov	 DWORD PTR [ebx+4640], 1
  00038	c7 45 f4 40 3e
	3f 3e		 mov	 DWORD PTR _gear_1$[ebp], 1044332096 ; 3e3f3e40H
  0003f	66 c7 45 f8 3e
	41		 mov	 WORD PTR _gear_1$[ebp+4], 16702 ; 0000413eH
  00045	c6 45 fa 3e	 mov	 BYTE PTR _gear_1$[ebp+6], 62 ; 0000003eH
  00049	c7 45 ec 45 43
	44 47		 mov	 DWORD PTR _gear_2$[ebp], 1195656005 ; 47444345H
  00050	66 c7 45 f0 42
	46		 mov	 WORD PTR _gear_2$[ebp+4], 17986 ; 00004642H
  00056	c6 45 f2 48	 mov	 BYTE PTR _gear_2$[ebp+6], 72 ; 00000048H
  0005a	e8 00 00 00 00	 call	 ?PHeadSetB@@YAXPAEEH@Z	; PHeadSetB
  0005f	83 c4 0c	 add	 esp, 12			; 0000000cH

; 5899 : 	pMsg.Result = CB_ERROR;

  00062	c6 45 df 00	 mov	 BYTE PTR _pMsg$[ebp+3], 0
  00066	33 f6		 xor	 esi, esi
  00068	0f 1f 84 00 00
	00 00 00	 npad	 8
$LL4@LuckySyste:

; 5902 : 	{
; 5903 : 		if( lpObj->pChaosBox[n].IsItem() )

  00070	8b 8b 10 12 00
	00		 mov	 ecx, DWORD PTR [ebx+4624]
  00076	03 ce		 add	 ecx, esi
  00078	e8 00 00 00 00	 call	 ?IsItem@CItem@@QAEHXZ	; CItem::IsItem
  0007d	85 c0		 test	 eax, eax
  0007f	74 2f		 je	 SHORT $LN33@LuckySyste

; 5904 : 		{
; 5905 : 			if( lpObj->pChaosBox[n].m_Type >= ITEMGET(13,135) &&

  00081	8b 83 10 12 00
	00		 mov	 eax, DWORD PTR [ebx+4624]
  00087	ba 87 1a 00 00	 mov	 edx, 6791		; 00001a87H
  0008c	03 c6		 add	 eax, esi
  0008e	0f b7 48 06	 movzx	 ecx, WORD PTR [eax+6]
  00092	66 3b ca	 cmp	 cx, dx
  00095	7c 18		 jl	 SHORT $LN8@LuckySyste
  00097	ba 90 1a 00 00	 mov	 edx, 6800		; 00001a90H
  0009c	66 3b ca	 cmp	 cx, dx
  0009f	7f 0e		 jg	 SHORT $LN8@LuckySyste

; 5906 : 				lpObj->pChaosBox[n].m_Type <= ITEMGET(13,144) )
; 5907 : 			{
; 5908 : 				LuckyCard = &lpObj->pChaosBox[n];

  000a1	8b c8		 mov	 ecx, eax

; 5909 : 				iLuckyCardCount++;

  000a3	8b 45 d8	 mov	 eax, DWORD PTR _iLuckyCardCount$1$[ebp]
  000a6	40		 inc	 eax
  000a7	89 4d d4	 mov	 DWORD PTR _LuckyCard$1$[ebp], ecx
  000aa	89 45 d8	 mov	 DWORD PTR _iLuckyCardCount$1$[ebp], eax

; 5910 : 			}
; 5911 : 			else

  000ad	eb 07		 jmp	 SHORT $LN2@LuckySyste
$LN8@LuckySyste:

; 5912 : 			{
; 5913 : 				iOtherItemCount++;

  000af	47		 inc	 edi
$LN33@LuckySyste:
  000b0	8b 4d d4	 mov	 ecx, DWORD PTR _LuckyCard$1$[ebp]
  000b3	8b 45 d8	 mov	 eax, DWORD PTR _iLuckyCardCount$1$[ebp]
$LN2@LuckySyste:

; 5900 : 
; 5901 : 	for(int n = 0; n < CHAOS_BOX_SIZE; n++)

  000b6	81 c6 d4 00 00
	00		 add	 esi, 212		; 000000d4H
  000bc	81 fe 80 1a 00
	00		 cmp	 esi, 6784		; 00001a80H
  000c2	7c ac		 jl	 SHORT $LL4@LuckySyste

; 5914 : 			}
; 5915 : 		}
; 5916 : 	}
; 5917 : 
; 5918 : 	if( iLuckyCardCount != 1 ||

  000c4	83 f8 01	 cmp	 eax, 1
  000c7	0f 85 fa 01 00
	00		 jne	 $LN11@LuckySyste
  000cd	85 ff		 test	 edi, edi
  000cf	0f 85 f2 01 00
	00		 jne	 $LN11@LuckySyste

; 5923 : 		lpObj->ChaosLock = FALSE;
; 5924 : 		return;
; 5925 : 	}
; 5926 : 
; 5927 : 	if( lpObj->Class == CLASS_MAGUMSA && 

  000d5	0f b7 83 90 00
	00 00		 movzx	 eax, WORD PTR [ebx+144]
  000dc	83 f8 03	 cmp	 eax, 3
  000df	75 20		 jne	 SHORT $LN12@LuckySyste
  000e1	0f b7 51 06	 movzx	 edx, WORD PTR [ecx+6]
  000e5	be 89 1a 00 00	 mov	 esi, 6793		; 00001a89H
  000ea	66 3b d6	 cmp	 dx, si
  000ed	0f 84 d4 01 00
	00		 je	 $LN11@LuckySyste
  000f3	be 8e 1a 00 00	 mov	 esi, 6798		; 00001a8eH
  000f8	66 3b d6	 cmp	 dx, si
  000fb	0f 84 c6 01 00
	00		 je	 $LN11@LuckySyste
$LN12@LuckySyste:

; 5928 : 		(LuckyCard->m_Type == ITEMGET(13, 137) || LuckyCard->m_Type == ITEMGET(13, 142) ) )
; 5929 : 	{
; 5930 : 		pMsg.Result = 0;
; 5931 : 		DataSend(lpObj->m_Index,(LPBYTE)&pMsg,pMsg.h.size);
; 5932 : 		lpObj->ChaosLock = FALSE;
; 5933 : 		return;
; 5934 : 	}
; 5935 : 
; 5936 : 	if( lpObj->Class == CLASS_FIGHTER && 

  00101	83 f8 06	 cmp	 eax, 6
  00104	75 20		 jne	 SHORT $LN14@LuckySyste
  00106	0f b7 41 06	 movzx	 eax, WORD PTR [ecx+6]
  0010a	b9 8a 1a 00 00	 mov	 ecx, 6794		; 00001a8aH
  0010f	66 3b c1	 cmp	 ax, cx
  00112	0f 84 af 01 00
	00		 je	 $LN11@LuckySyste
  00118	b9 8f 1a 00 00	 mov	 ecx, 6799		; 00001a8fH
  0011d	66 3b c1	 cmp	 ax, cx
  00120	0f 84 a1 01 00
	00		 je	 $LN11@LuckySyste
$LN14@LuckySyste:

; 5937 : 		(LuckyCard->m_Type == ITEMGET(13,138) || LuckyCard->m_Type == ITEMGET(13,143) ) )
; 5938 : 	{
; 5939 : 		pMsg.Result = 0;
; 5940 : 		DataSend(lpObj->m_Index,(LPBYTE)&pMsg,pMsg.h.size);
; 5941 : 		lpObj->ChaosLock = FALSE;
; 5942 : 		return;
; 5943 : 	}
; 5944 : 
; 5945 : 	LogChaosItem(lpObj, "LuckySystem");

  00126	8b 4d d0	 mov	 ecx, DWORD PTR _this$1$[ebp]
  00129	68 00 00 00 00	 push	 OFFSET ??_C@_0M@JDLPAJDH@LuckySystem?$AA@
  0012e	53		 push	 ebx
  0012f	e8 00 00 00 00	 call	 ?LogChaosItem@CChaosBox@@QAEXPAUOBJECTSTRUCT@@PAD@Z ; CChaosBox::LogChaosItem

; 5946 : 	LogAddTD("[LuckySystem] Chaos Mix Start");

  00134	68 00 00 00 00	 push	 OFFSET ??_C@_0BO@IIPPLEDJ@?$FLLuckySystem?$FN?5Chaos?5Mix?5Start?$AA@
  00139	ff 15 00 00 00
	00		 call	 DWORD PTR ?LogAddTD@@3P6AXPADZZA ; LogAddTD
  0013f	83 c4 04	 add	 esp, 4

; 5947 : 
; 5948 : 	int ItemGroup;
; 5949 : 	int Item;
; 5950 : 	int Level;
; 5951 : 	int Option1;
; 5952 : 	int Option2;
; 5953 : 	int Option3;
; 5954 : 
; 5955 : 	Option1 = TRUE;
; 5956 : 	Option2 = 0;

  00142	33 f6		 xor	 esi, esi
  00144	89 75 cc	 mov	 DWORD PTR _Option2$1$[ebp], esi

; 5957 : 	Option3 = 0;

  00147	89 75 d8	 mov	 DWORD PTR _Option3$1$[ebp], esi

; 5958 : 	Level = rand()%10;

  0014a	e8 00 00 00 00	 call	 _rand
  0014f	99		 cdq
  00150	b9 0a 00 00 00	 mov	 ecx, 10			; 0000000aH
  00155	f7 f9		 idiv	 ecx
  00157	89 55 d0	 mov	 DWORD PTR _Level$1$[ebp], edx

; 5959 : 
; 5960 : 	if( rand()%2 )	{

  0015a	e8 00 00 00 00	 call	 _rand
  0015f	25 01 00 00 80	 and	 eax, -2147483647	; 80000001H
  00164	79 05		 jns	 SHORT $LN34@LuckySyste
  00166	48		 dec	 eax
  00167	83 c8 fe	 or	 eax, -2			; fffffffeH
  0016a	40		 inc	 eax
$LN34@LuckySyste:
  0016b	74 1c		 je	 SHORT $LN17@LuckySyste

; 5961 : 		if( rand()%2 )	{

  0016d	e8 00 00 00 00	 call	 _rand
  00172	25 01 00 00 80	 and	 eax, -2147483647	; 80000001H
  00177	79 05		 jns	 SHORT $LN35@LuckySyste
  00179	48		 dec	 eax
  0017a	83 c8 fe	 or	 eax, -2			; fffffffeH
  0017d	40		 inc	 eax
$LN35@LuckySyste:
  0017e	b8 01 00 00 00	 mov	 eax, 1
  00183	0f 45 f0	 cmovne	 esi, eax
  00186	89 75 cc	 mov	 DWORD PTR _Option2$1$[ebp], esi
$LN17@LuckySyste:

; 5962 : 			Option2 = TRUE;
; 5963 : 		}
; 5964 : 	}
; 5965 : 
; 5966 : 	if( rand()%2 )	{

  00189	e8 00 00 00 00	 call	 _rand
  0018e	25 01 00 00 80	 and	 eax, -2147483647	; 80000001H
  00193	79 05		 jns	 SHORT $LN36@LuckySyste
  00195	48		 dec	 eax
  00196	83 c8 fe	 or	 eax, -2			; fffffffeH
  00199	40		 inc	 eax
$LN36@LuckySyste:
  0019a	74 13		 je	 SHORT $LN18@LuckySyste

; 5967 : 		Option3 = 1+rand()%3;

  0019c	e8 00 00 00 00	 call	 _rand
  001a1	99		 cdq
  001a2	b9 03 00 00 00	 mov	 ecx, 3
  001a7	f7 f9		 idiv	 ecx
  001a9	8d 7a 01	 lea	 edi, DWORD PTR [edx+1]
  001ac	89 7d d8	 mov	 DWORD PTR _Option3$1$[ebp], edi
$LN18@LuckySyste:

; 5968 : 	}
; 5969 : 
; 5970 : 	if( rand()%2 )	{

  001af	e8 00 00 00 00	 call	 _rand
  001b4	25 01 00 00 80	 and	 eax, -2147483647	; 80000001H
  001b9	79 05		 jns	 SHORT $LN37@LuckySyste
  001bb	48		 dec	 eax
  001bc	83 c8 fe	 or	 eax, -2			; fffffffeH
  001bf	40		 inc	 eax
$LN37@LuckySyste:
  001c0	74 10		 je	 SHORT $LN19@LuckySyste

; 5971 : 		Level = rand()%15;

  001c2	e8 00 00 00 00	 call	 _rand
  001c7	99		 cdq
  001c8	b9 0f 00 00 00	 mov	 ecx, 15			; 0000000fH
  001cd	f7 f9		 idiv	 ecx
  001cf	89 55 d0	 mov	 DWORD PTR _Level$1$[ebp], edx
$LN19@LuckySyste:

; 5972 : 	}
; 5973 : 
; 5974 : 	switch( LuckyCard->m_Type )

  001d2	8b 45 d4	 mov	 eax, DWORD PTR _LuckyCard$1$[ebp]
  001d5	0f b7 50 06	 movzx	 edx, WORD PTR [eax+6]
  001d9	0f bf c2	 movsx	 eax, dx
  001dc	05 79 e5 ff ff	 add	 eax, -6791		; ffffe579H
  001e1	83 f8 09	 cmp	 eax, 9
  001e4	77 2a		 ja	 SHORT $LN32@LuckySyste
  001e6	ff 24 85 00 00
	00 00		 jmp	 DWORD PTR $LN41@LuckySyste[eax*4]
$LN20@LuckySyste:

; 5975 : 	{
; 5976 : 	case ITEMGET(13,135):
; 5977 : 	case ITEMGET(13,140):
; 5978 : 		ItemGroup = 8;

  001ed	b9 08 00 00 00	 mov	 ecx, 8

; 5979 : 		break;

  001f2	eb 1f		 jmp	 SHORT $LN5@LuckySyste
$LN21@LuckySyste:

; 5980 : 	case ITEMGET(13,136):
; 5981 : 	case ITEMGET(13,141):
; 5982 : 		ItemGroup = 9;

  001f4	b9 09 00 00 00	 mov	 ecx, 9

; 5983 : 		break;

  001f9	eb 18		 jmp	 SHORT $LN5@LuckySyste
$LN22@LuckySyste:

; 5984 : 	case ITEMGET(13,137):
; 5985 : 	case ITEMGET(13,142):
; 5986 : 		ItemGroup = 7;

  001fb	b9 07 00 00 00	 mov	 ecx, 7

; 5987 : 		break;

  00200	eb 11		 jmp	 SHORT $LN5@LuckySyste
$LN23@LuckySyste:

; 5988 : 	case ITEMGET(13,138):
; 5989 : 	case ITEMGET(13,143):
; 5990 : 		ItemGroup = 10;

  00202	b9 0a 00 00 00	 mov	 ecx, 10			; 0000000aH

; 5991 : 		break;

  00207	eb 0a		 jmp	 SHORT $LN5@LuckySyste
$LN24@LuckySyste:

; 5992 : 	case ITEMGET(13,139):
; 5993 : 	case ITEMGET(13,144):
; 5994 : 		ItemGroup = 11;

  00209	b9 0b 00 00 00	 mov	 ecx, 11			; 0000000bH
  0020e	eb 03		 jmp	 SHORT $LN5@LuckySyste
$LN32@LuckySyste:
  00210	8b 4d d0	 mov	 ecx, DWORD PTR _ItemGroup$[ebp]
$LN5@LuckySyste:

; 5995 : 		break;
; 5996 : 	}
; 5997 : 
; 5998 : 	if( LuckyCard->m_Type >= ITEMGET(13,135) && LuckyCard->m_Type <= ITEMGET(13,139) )

  00213	b8 87 1a 00 00	 mov	 eax, 6791		; 00001a87H
  00218	66 3b d0	 cmp	 dx, ax
  0021b	7c 18		 jl	 SHORT $LN25@LuckySyste
  0021d	b8 8b 1a 00 00	 mov	 eax, 6795		; 00001a8bH
  00222	66 3b d0	 cmp	 dx, ax
  00225	7f 0e		 jg	 SHORT $LN25@LuckySyste

; 5999 : 	{
; 6000 : 		Item = ITEMGET(ItemGroup,gear_1[lpObj->Class]);

  00227	0f b7 83 90 00
	00 00		 movzx	 eax, WORD PTR [ebx+144]
  0022e	0f b6 7c 05 f4	 movzx	 edi, BYTE PTR _gear_1$[ebp+eax]

; 6001 : 	}
; 6002 : 	else

  00233	eb 0c		 jmp	 SHORT $LN38@LuckySyste
$LN25@LuckySyste:

; 6003 : 	{
; 6004 : 		Item = ITEMGET(ItemGroup,gear_2[lpObj->Class]);

  00235	0f b7 83 90 00
	00 00		 movzx	 eax, WORD PTR [ebx+144]
  0023c	0f b6 7c 05 ec	 movzx	 edi, BYTE PTR _gear_2$[ebp+eax]
$LN38@LuckySyste:

; 6005 : 	}
; 6006 : 
; 6007 : 	ItemSerialCreateSend(lpObj->m_Index,255,0,0,Item,Level,0,Option1,Option2,Option3,lpObj->m_Index,0,gSetItemOption.GenSetOption(Item));

  00241	8b 33		 mov	 esi, DWORD PTR [ebx]
  00243	c1 e1 09	 shl	 ecx, 9
  00246	6a 00		 push	 0
  00248	03 f9		 add	 edi, ecx
  0024a	b9 00 00 00 00	 mov	 ecx, OFFSET ?gSetItemOption@@3VCSetItemOption@@A ; gSetItemOption
  0024f	6a 00		 push	 0
  00251	57		 push	 edi
  00252	89 7d d4	 mov	 DWORD PTR _Item$1$[ebp], edi
  00255	e8 00 00 00 00	 call	 ?GenSetOption@CSetItemOption@@QAEHH@Z ; CSetItemOption::GenSetOption
  0025a	50		 push	 eax
  0025b	6a 00		 push	 0
  0025d	56		 push	 esi
  0025e	ff 75 d8	 push	 DWORD PTR _Option3$1$[ebp]
  00261	ff 75 cc	 push	 DWORD PTR _Option2$1$[ebp]
  00264	6a 01		 push	 1
  00266	6a 00		 push	 0
  00268	ff 75 d0	 push	 DWORD PTR _Level$1$[ebp]
  0026b	57		 push	 edi
  0026c	6a 00		 push	 0
  0026e	6a 00		 push	 0
  00270	68 ff 00 00 00	 push	 255			; 000000ffH
  00275	56		 push	 esi
  00276	e8 00 00 00 00	 call	 ?ItemSerialCreateSend@@YAXHEEEHEEEEEHEEEPAE@Z ; ItemSerialCreateSend

; 6008 : 	gObjInventoryCommit(lpObj->m_Index);

  0027b	ff 33		 push	 DWORD PTR [ebx]
  0027d	e8 00 00 00 00	 call	 ?gObjInventoryCommit@@YAHH@Z ; gObjInventoryCommit
  00282	83 c4 40	 add	 esp, 64			; 00000040H

; 6009 : 
; 6010 : 	LogAddTD("[LuckySystem][ItemMix] Chaos Card Item Mix Success [%s][%s]",lpObj->AccountID,lpObj->Name);

  00285	8d 73 5d	 lea	 esi, DWORD PTR [ebx+93]
  00288	8d 7b 52	 lea	 edi, DWORD PTR [ebx+82]
  0028b	56		 push	 esi
  0028c	57		 push	 edi
  0028d	68 00 00 00 00	 push	 OFFSET ??_C@_0DM@LHKABBDI@?$FLLuckySystem?$FN?$FLItemMix?$FN?5Chaos?5Car@
  00292	ff 15 00 00 00
	00		 call	 DWORD PTR ?LogAddTD@@3P6AXPADZZA ; LogAddTD

; 6011 : 	LogAddTD("[LuckySystem][ItemMix] - User(ID:%s,Name:%s) Item(Name:%s,Type:%d,Level:%d,Dur:%d,Skill:%d,Luck:%d,AddOption:%d)",

  00298	ff 75 d8	 push	 DWORD PTR _Option3$1$[ebp]
  0029b	8b 45 d4	 mov	 eax, DWORD PTR _Item$1$[ebp]
  0029e	ff 75 cc	 push	 DWORD PTR _Option2$1$[ebp]
  002a1	6a 01		 push	 1
  002a3	68 ff 00 00 00	 push	 255			; 000000ffH
  002a8	ff 75 d0	 push	 DWORD PTR _Level$1$[ebp]
  002ab	50		 push	 eax
  002ac	6b c0 70	 imul	 eax, eax, 112
  002af	05 00 00 00 00	 add	 eax, OFFSET ?ItemAttribute@@3PAUITEM_ATTRIBUTE@@A ; ItemAttribute
  002b4	50		 push	 eax
  002b5	56		 push	 esi
  002b6	57		 push	 edi
  002b7	68 00 00 00 00	 push	 OFFSET ??_C@_0HB@FMOBPLCD@?$FLLuckySystem?$FN?$FLItemMix?$FN?5?9?5User?$CIID@
  002bc	ff 15 00 00 00
	00		 call	 DWORD PTR ?LogAddTD@@3P6AXPADZZA ; LogAddTD
  002c2	83 c4 34	 add	 esp, 52			; 00000034H

; 6012 : 		lpObj->AccountID, lpObj->Name, ItemAttribute[Item].Name,
; 6013 : 		Item, Level, (int)255,
; 6014 : 		Option1, Option2, Option3);
; 6015 : 
; 6016 : 	lpObj->ChaosLock = FALSE;

  002c5	eb 17		 jmp	 SHORT $LN39@LuckySyste
$LN11@LuckySyste:

; 5919 : 		iOtherItemCount != 0 )
; 5920 : 	{
; 5921 : 		pMsg.Result = 0;
; 5922 : 		DataSend(lpObj->m_Index,(LPBYTE)&pMsg,pMsg.h.size);

  002c7	0f b6 45 dd	 movzx	 eax, BYTE PTR _pMsg$[ebp+1]
  002cb	50		 push	 eax
  002cc	8d 45 dc	 lea	 eax, DWORD PTR _pMsg$[ebp]
  002cf	c6 45 df 00	 mov	 BYTE PTR _pMsg$[ebp+3], 0
  002d3	50		 push	 eax
  002d4	ff 33		 push	 DWORD PTR [ebx]
  002d6	e8 00 00 00 00	 call	 ?DataSend@@YAHHPAEK@Z	; DataSend
  002db	83 c4 0c	 add	 esp, 12			; 0000000cH
$LN39@LuckySyste:

; 6017 : }

  002de	8b 4d fc	 mov	 ecx, DWORD PTR __$ArrayPad$[ebp]
  002e1	5f		 pop	 edi
  002e2	5e		 pop	 esi
  002e3	c7 83 20 12 00
	00 00 00 00 00	 mov	 DWORD PTR [ebx+4640], 0
  002ed	33 cd		 xor	 ecx, ebp
  002ef	5b		 pop	 ebx
  002f0	e8 00 00 00 00	 call	 @__security_check_cookie@4
  002f5	8b e5		 mov	 esp, ebp
  002f7	5d		 pop	 ebp
  002f8	c2 04 00	 ret	 4
  002fb	90		 npad	 1
$LN41@LuckySyste:
  002fc	00 00 00 00	 DD	 $LN20@LuckySyste
  00300	00 00 00 00	 DD	 $LN21@LuckySyste
  00304	00 00 00 00	 DD	 $LN22@LuckySyste
  00308	00 00 00 00	 DD	 $LN23@LuckySyste
  0030c	00 00 00 00	 DD	 $LN24@LuckySyste
  00310	00 00 00 00	 DD	 $LN20@LuckySyste
  00314	00 00 00 00	 DD	 $LN21@LuckySyste
  00318	00 00 00 00	 DD	 $LN22@LuckySyste
  0031c	00 00 00 00	 DD	 $LN23@LuckySyste
  00320	00 00 00 00	 DD	 $LN24@LuckySyste
?LuckySystemItemCreate@CChaosBox@@QAEXPAUOBJECTSTRUCT@@@Z ENDP ; CChaosBox::LuckySystemItemCreate
_TEXT	ENDS
; Function compile flags: /Ogtp
; File c:\users\michel\desktop\source\gameserver\source\chaosbox.cpp
;	COMDAT ?SecromiconMix@CChaosBox@@QAEXPAUOBJECTSTRUCT@@@Z
_TEXT	SEGMENT
_this$1$ = -44						; size = 4
_iSecromiconPart3$1$ = -40				; size = 4
_iSecromiconPart2$1$ = -36				; size = 4
_iSecromiconPart4$1$ = -32				; size = 4
_iSecromiconPart1$1$ = -28				; size = 4
_iSecromiconPart5$1$ = -24				; size = 4
_pMsg$ = -20						; size = 16
__$ArrayPad$ = -4					; size = 4
_lpObj$ = 8						; size = 4
?SecromiconMix@CChaosBox@@QAEXPAUOBJECTSTRUCT@@@Z PROC	; CChaosBox::SecromiconMix, COMDAT
; _this$ = ecx

; 5759 : {

  00000	55		 push	 ebp
  00001	8b ec		 mov	 ebp, esp
  00003	83 ec 2c	 sub	 esp, 44			; 0000002cH
  00006	a1 00 00 00 00	 mov	 eax, DWORD PTR ___security_cookie
  0000b	33 c5		 xor	 eax, ebp
  0000d	89 45 fc	 mov	 DWORD PTR __$ArrayPad$[ebp], eax
  00010	53		 push	 ebx
  00011	56		 push	 esi
  00012	8b 75 08	 mov	 esi, DWORD PTR _lpObj$[ebp]

; 5760 : 	lpObj->ChaosLock = TRUE;
; 5761 : 
; 5762 : 	int iNeedChaosMoney;
; 5763 : 	int iSecromiconPart1 = 0;
; 5764 : 	int iSecromiconPart2 = 0;
; 5765 : 	int iSecromiconPart3 = 0;
; 5766 : 	int iSecromiconPart4 = 0;
; 5767 : 	int iSecromiconPart5 = 0;
; 5768 : 	int iSecromiconPart6 = 0;
; 5769 : 	int iOtherItemCount = 0;
; 5770 : 
; 5771 : 	PMSG_CHAOSMIXRESULT pMsg;
; 5772 : 
; 5773 : 	PHeadSetB((LPBYTE)&pMsg.h, 0x86, sizeof(PMSG_CHAOSMIXRESULT));

  00015	8d 45 ec	 lea	 eax, DWORD PTR _pMsg$[ebp]
  00018	57		 push	 edi
  00019	6a 10		 push	 16			; 00000010H
  0001b	33 ff		 xor	 edi, edi
  0001d	89 4d d4	 mov	 DWORD PTR _this$1$[ebp], ecx
  00020	68 86 00 00 00	 push	 134			; 00000086H
  00025	50		 push	 eax
  00026	c7 86 20 12 00
	00 01 00 00 00	 mov	 DWORD PTR [esi+4640], 1
  00030	33 db		 xor	 ebx, ebx
  00032	c7 45 e4 00 00
	00 00		 mov	 DWORD PTR _iSecromiconPart1$1$[ebp], 0
  00039	89 7d dc	 mov	 DWORD PTR _iSecromiconPart2$1$[ebp], edi
  0003c	89 7d d8	 mov	 DWORD PTR _iSecromiconPart3$1$[ebp], edi
  0003f	89 7d e0	 mov	 DWORD PTR _iSecromiconPart4$1$[ebp], edi
  00042	89 7d e8	 mov	 DWORD PTR _iSecromiconPart5$1$[ebp], edi
  00045	e8 00 00 00 00	 call	 ?PHeadSetB@@YAXPAEEH@Z	; PHeadSetB
  0004a	83 c4 0c	 add	 esp, 12			; 0000000cH

; 5774 : 	pMsg.Result = CB_ERROR;

  0004d	88 5d ef	 mov	 BYTE PTR _pMsg$[ebp+3], bl
$LL4@Secromicon:

; 5777 : 	{
; 5778 : 		if( lpObj->pChaosBox[n].IsItem() == TRUE )

  00050	8b 8e 10 12 00
	00		 mov	 ecx, DWORD PTR [esi+4624]
  00056	03 cf		 add	 ecx, edi
  00058	e8 00 00 00 00	 call	 ?IsItem@CItem@@QAEHXZ	; CItem::IsItem
  0005d	83 f8 01	 cmp	 eax, 1
  00060	75 2f		 jne	 SHORT $LN32@Secromicon

; 5779 : 		{
; 5780 : 			if( lpObj->pChaosBox[n].m_Type == ITEMGET(14,103) )

  00062	8b 86 10 12 00
	00		 mov	 eax, DWORD PTR [esi+4624]
  00068	b9 67 1c 00 00	 mov	 ecx, 7271		; 00001c67H
  0006d	0f b7 44 38 06	 movzx	 eax, WORD PTR [eax+edi+6]
  00072	66 3b c1	 cmp	 ax, cx
  00075	75 09		 jne	 SHORT $LN6@Secromicon

; 5781 : 			{
; 5782 : 				iSecromiconPart1++;

  00077	8b 4d e4	 mov	 ecx, DWORD PTR _iSecromiconPart1$1$[ebp]
  0007a	41		 inc	 ecx
  0007b	89 4d e4	 mov	 DWORD PTR _iSecromiconPart1$1$[ebp], ecx
  0007e	eb 14		 jmp	 SHORT $LN33@Secromicon
$LN6@Secromicon:

; 5783 : 			}
; 5784 : 			else if( lpObj->pChaosBox[n].m_Type == ITEMGET(14,104) )

  00080	b9 68 1c 00 00	 mov	 ecx, 7272		; 00001c68H
  00085	66 3b c1	 cmp	 ax, cx
  00088	0f 85 bc 00 00
	00		 jne	 $LN8@Secromicon

; 5785 : 			{
; 5786 : 				iSecromiconPart2++;

  0008e	ff 45 dc	 inc	 DWORD PTR _iSecromiconPart2$1$[ebp]
$LN32@Secromicon:
  00091	8b 4d e4	 mov	 ecx, DWORD PTR _iSecromiconPart1$1$[ebp]
$LN33@Secromicon:
  00094	8b 55 e0	 mov	 edx, DWORD PTR _iSecromiconPart4$1$[ebp]
$LN34@Secromicon:
  00097	8b 45 e8	 mov	 eax, DWORD PTR _iSecromiconPart5$1$[ebp]
$LN2@Secromicon:

; 5775 : 
; 5776 : 	for(int n = 0; n < CHAOS_BOX_SIZE; n++)

  0009a	81 c7 d4 00 00
	00		 add	 edi, 212		; 000000d4H
  000a0	81 ff 80 1a 00
	00		 cmp	 edi, 6784		; 00001a80H
  000a6	7c a8		 jl	 SHORT $LL4@Secromicon

; 5803 : 			}
; 5804 : 			else
; 5805 : 			{
; 5806 : 				iOtherItemCount = 0;
; 5807 : 			}
; 5808 : 		}
; 5809 : 	}
; 5810 : 
; 5811 : 	if( iOtherItemCount != 0 ||
; 5812 : 		iSecromiconPart1 != 1 ||
; 5813 : 		iSecromiconPart2 != 1 ||
; 5814 : 		iSecromiconPart3 != 1 ||
; 5815 : 		iSecromiconPart4 != 1 ||
; 5816 : 		iSecromiconPart5 != 1 ||

  000a8	83 f9 01	 cmp	 ecx, 1
  000ab	0f 85 cc 01 00
	00		 jne	 $LN19@Secromicon
  000b1	39 4d dc	 cmp	 DWORD PTR _iSecromiconPart2$1$[ebp], ecx
  000b4	0f 85 c3 01 00
	00		 jne	 $LN19@Secromicon
  000ba	39 4d d8	 cmp	 DWORD PTR _iSecromiconPart3$1$[ebp], ecx
  000bd	0f 85 ba 01 00
	00		 jne	 $LN19@Secromicon
  000c3	3b d1		 cmp	 edx, ecx
  000c5	0f 85 b2 01 00
	00		 jne	 $LN19@Secromicon
  000cb	3b c1		 cmp	 eax, ecx
  000cd	0f 85 aa 01 00
	00		 jne	 $LN19@Secromicon
  000d3	3b d9		 cmp	 ebx, ecx
  000d5	0f 85 a2 01 00
	00		 jne	 $LN19@Secromicon

; 5821 : 		lpObj->ChaosLock = FALSE;
; 5822 : 		return;
; 5823 : 	}
; 5824 : 
; 5825 : 	LogChaosItem(lpObj, "Secromicon");

  000db	8b 5d d4	 mov	 ebx, DWORD PTR _this$1$[ebp]
  000de	8b cb		 mov	 ecx, ebx
  000e0	68 00 00 00 00	 push	 OFFSET ??_C@_0L@FKBLGOD@Secromicon?$AA@
  000e5	56		 push	 esi
  000e6	e8 00 00 00 00	 call	 ?LogChaosItem@CChaosBox@@QAEXPAUOBJECTSTRUCT@@PAD@Z ; CChaosBox::LogChaosItem

; 5826 : 	LogAddTD("[Secromicon] Chaos Mix Start");

  000eb	68 00 00 00 00	 push	 OFFSET ??_C@_0BN@PDFCNBKK@?$FLSecromicon?$FN?5Chaos?5Mix?5Start?$AA@
  000f0	ff 15 00 00 00
	00		 call	 DWORD PTR ?LogAddTD@@3P6AXPADZZA ; LogAddTD
  000f6	83 c4 04	 add	 esp, 4

; 5827 : 
; 5828 : 	lpObj->ChaosSuccessRate = 100;

  000f9	c7 86 1c 12 00
	00 64 00 00 00	 mov	 DWORD PTR [esi+4636], 100 ; 00000064H

; 5829 : 	iNeedChaosMoney = 1000000;
; 5830 : 
; 5831 : 	int iChaosTaxMoney = (int)((__int64)iNeedChaosMoney * (__int64)g_CastleSiegeSync.GetTaxRateChaos(lpObj->m_Index) / (__int64)100);

  00103	b9 00 00 00 00	 mov	 ecx, OFFSET ?g_CastleSiegeSync@@3VCCastleSiegeSync@@A ; g_CastleSiegeSync
  00108	ff 36		 push	 DWORD PTR [esi]
  0010a	e8 00 00 00 00	 call	 ?GetTaxRateChaos@CCastleSiegeSync@@QAEHH@Z ; CCastleSiegeSync::GetTaxRateChaos
  0010f	8b c8		 mov	 ecx, eax
  00111	b8 40 42 0f 00	 mov	 eax, 1000000		; 000f4240H
  00116	f7 e9		 imul	 ecx
  00118	6a 00		 push	 0
  0011a	6a 64		 push	 100			; 00000064H
  0011c	52		 push	 edx
  0011d	50		 push	 eax
  0011e	e8 00 00 00 00	 call	 __alldiv
  00123	8b c8		 mov	 ecx, eax

; 5832 : 
; 5833 : 	if ( iChaosTaxMoney < 0 )

  00125	33 c0		 xor	 eax, eax
  00127	85 c9		 test	 ecx, ecx
  00129	0f 48 c8	 cmovs	 ecx, eax

; 5834 : 	{
; 5835 : 		iChaosTaxMoney = 0;
; 5836 : 	}
; 5837 : 
; 5838 : 	iNeedChaosMoney += iChaosTaxMoney;

  0012c	8d b9 40 42 0f
	00		 lea	 edi, DWORD PTR [ecx+1000000]

; 5839 : 
; 5840 : 	if ( iNeedChaosMoney < 0 )

  00132	85 ff		 test	 edi, edi
  00134	0f 48 f8	 cmovs	 edi, eax

; 5841 : 	{
; 5842 : 		iNeedChaosMoney = 0;
; 5843 : 	}
; 5844 : 
; 5845 : 	if(lpObj->Money < iNeedChaosMoney)

  00137	8b 86 cc 00 00
	00		 mov	 eax, DWORD PTR [esi+204]
  0013d	3b c7		 cmp	 eax, edi
  0013f	7d 67		 jge	 SHORT $LN22@Secromicon

; 5846 : 	{
; 5847 : 		pMsg.Result = CB_NOT_ENOUGH_ZEN;

  00141	c6 45 ef 02	 mov	 BYTE PTR _pMsg$[ebp+3], 2

; 5848 : 		
; 5849 : 		DataSend(lpObj->m_Index, (BYTE *)&pMsg, pMsg.h.size);
; 5850 : 		lpObj->ChaosLock = FALSE;
; 5851 : 		return;

  00145	e9 37 01 00 00	 jmp	 $LN35@Secromicon
$LN8@Secromicon:

; 5787 : 			}
; 5788 : 			else if( lpObj->pChaosBox[n].m_Type == ITEMGET(14,105) )

  0014a	b9 69 1c 00 00	 mov	 ecx, 7273		; 00001c69H
  0014f	66 3b c1	 cmp	 ax, cx
  00152	75 08		 jne	 SHORT $LN10@Secromicon

; 5789 : 			{
; 5790 : 				iSecromiconPart3++;

  00154	ff 45 d8	 inc	 DWORD PTR _iSecromiconPart3$1$[ebp]
  00157	e9 35 ff ff ff	 jmp	 $LN32@Secromicon
$LN10@Secromicon:

; 5791 : 			}
; 5792 : 			else if( lpObj->pChaosBox[n].m_Type == ITEMGET(14,106) )
; 5793 : 			{
; 5794 : 				iSecromiconPart4++;

  0015c	8b 55 e0	 mov	 edx, DWORD PTR _iSecromiconPart4$1$[ebp]
  0015f	b9 6a 1c 00 00	 mov	 ecx, 7274		; 00001c6aH
  00164	66 3b c1	 cmp	 ax, cx
  00167	75 0c		 jne	 SHORT $LN12@Secromicon
  00169	8b 4d e4	 mov	 ecx, DWORD PTR _iSecromiconPart1$1$[ebp]
  0016c	42		 inc	 edx
  0016d	89 55 e0	 mov	 DWORD PTR _iSecromiconPart4$1$[ebp], edx
  00170	e9 22 ff ff ff	 jmp	 $LN34@Secromicon
$LN12@Secromicon:

; 5795 : 			}
; 5796 : 			else if( lpObj->pChaosBox[n].m_Type == ITEMGET(14,107) )

  00175	b9 6b 1c 00 00	 mov	 ecx, 7275		; 00001c6bH
  0017a	66 3b c1	 cmp	 ax, cx
  0017d	75 0f		 jne	 SHORT $LN14@Secromicon

; 5797 : 			{
; 5798 : 				iSecromiconPart5++;

  0017f	8b 45 e8	 mov	 eax, DWORD PTR _iSecromiconPart5$1$[ebp]
  00182	8b 4d e4	 mov	 ecx, DWORD PTR _iSecromiconPart1$1$[ebp]
  00185	40		 inc	 eax
  00186	89 45 e8	 mov	 DWORD PTR _iSecromiconPart5$1$[ebp], eax
  00189	e9 0c ff ff ff	 jmp	 $LN2@Secromicon
$LN14@Secromicon:

; 5799 : 			}
; 5800 : 			else if( lpObj->pChaosBox[n].m_Type == ITEMGET(14,108) )

  0018e	b9 6c 1c 00 00	 mov	 ecx, 7276		; 00001c6cH
  00193	66 3b c1	 cmp	 ax, cx
  00196	8b 45 e8	 mov	 eax, DWORD PTR _iSecromiconPart5$1$[ebp]
  00199	8b 4d e4	 mov	 ecx, DWORD PTR _iSecromiconPart1$1$[ebp]
  0019c	0f 85 f8 fe ff
	ff		 jne	 $LN2@Secromicon

; 5801 : 			{
; 5802 : 				iSecromiconPart6++;

  001a2	43		 inc	 ebx
  001a3	e9 f2 fe ff ff	 jmp	 $LN2@Secromicon
$LN22@Secromicon:

; 5852 : 	}
; 5853 : 
; 5854 : 	lpObj->Money -= iNeedChaosMoney;

  001a8	2b c7		 sub	 eax, edi

; 5855 : 	g_CastleSiegeSync.AddTributeMoney(iChaosTaxMoney);

  001aa	51		 push	 ecx
  001ab	b9 00 00 00 00	 mov	 ecx, OFFSET ?g_CastleSiegeSync@@3VCCastleSiegeSync@@A ; g_CastleSiegeSync
  001b0	89 86 cc 00 00
	00		 mov	 DWORD PTR [esi+204], eax
  001b6	e8 00 00 00 00	 call	 ?AddTributeMoney@CCastleSiegeSync@@QAEXH@Z ; CCastleSiegeSync::AddTributeMoney

; 5856 : 	GCMoneySend(lpObj->m_Index,lpObj->Money);

  001bb	ff b6 cc 00 00
	00		 push	 DWORD PTR [esi+204]
  001c1	ff 36		 push	 DWORD PTR [esi]
  001c3	e8 00 00 00 00	 call	 ?GCMoneySend@@YAXHK@Z	; GCMoneySend
  001c8	83 c4 08	 add	 esp, 8

; 5857 : 
; 5858 : 	if( rand()%100 < lpObj->ChaosSuccessRate )

  001cb	e8 00 00 00 00	 call	 _rand
  001d0	99		 cdq
  001d1	b9 64 00 00 00	 mov	 ecx, 100		; 00000064H
  001d6	f7 f9		 idiv	 ecx
  001d8	3b 96 1c 12 00
	00		 cmp	 edx, DWORD PTR [esi+4636]
  001de	7d 58		 jge	 SHORT $LN23@Secromicon

; 5859 : 	{
; 5860 : 		int Item = ITEMGET(14,109);
; 5861 : #if( __4GAMERS__ == 1 )
; 5862 : 			g_Achievements.GD_UpdateMixData(lpObj, true);
; 5863 : #endif
; 5864 : 		ItemSerialCreateSend(lpObj->m_Index,255,0,0,Item,0,0,0,0,0,-1,0,0);

  001e0	6a 00		 push	 0
  001e2	6a 00		 push	 0
  001e4	6a 00		 push	 0
  001e6	6a 00		 push	 0
  001e8	6a ff		 push	 -1
  001ea	6a 00		 push	 0
  001ec	6a 00		 push	 0
  001ee	6a 00		 push	 0
  001f0	6a 00		 push	 0
  001f2	6a 00		 push	 0
  001f4	68 6d 1c 00 00	 push	 7277			; 00001c6dH
  001f9	6a 00		 push	 0
  001fb	6a 00		 push	 0
  001fd	68 ff 00 00 00	 push	 255			; 000000ffH
  00202	ff 36		 push	 DWORD PTR [esi]
  00204	e8 00 00 00 00	 call	 ?ItemSerialCreateSend@@YAXHEEEHEEEEEHEEEPAE@Z ; ItemSerialCreateSend

; 5865 : 		gObjInventoryCommit(lpObj->m_Index);

  00209	ff 36		 push	 DWORD PTR [esi]
  0020b	e8 00 00 00 00	 call	 ?gObjInventoryCommit@@YAHH@Z ; gObjInventoryCommit
  00210	83 c4 40	 add	 esp, 64			; 00000040H

; 5866 : 		LogAddTD("[Secromicon Mix][%s][%s] CBMix Success %d Money : %d-%d",

  00213	8d 46 5d	 lea	 eax, DWORD PTR [esi+93]
  00216	57		 push	 edi
  00217	ff b6 cc 00 00
	00		 push	 DWORD PTR [esi+204]
  0021d	ff b6 1c 12 00
	00		 push	 DWORD PTR [esi+4636]
  00223	50		 push	 eax
  00224	8d 46 52	 lea	 eax, DWORD PTR [esi+82]
  00227	50		 push	 eax
  00228	68 00 00 00 00	 push	 OFFSET ??_C@_0DI@FEKMLFCO@?$FLSecromicon?5Mix?$FN?$FL?$CFs?$FN?$FL?$CFs?$FN?5CBMix?5S@
  0022d	ff 15 00 00 00
	00		 call	 DWORD PTR ?LogAddTD@@3P6AXPADZZA ; LogAddTD
  00233	83 c4 18	 add	 esp, 24			; 00000018H

; 5867 : 			lpObj->AccountID,lpObj->Name,lpObj->ChaosSuccessRate,lpObj->Money,iNeedChaosMoney);
; 5868 : 	}
; 5869 : 	else

  00236	eb 5c		 jmp	 SHORT $LN24@Secromicon
$LN23@Secromicon:

; 5870 : 	{
; 5871 : #if( __4GAMERS__ == 1 )
; 5872 : 			g_Achievements.GD_UpdateMixData(lpObj, false);
; 5873 : #endif
; 5874 : 		ChaosBoxInit(lpObj);

  00238	56		 push	 esi
  00239	8b cb		 mov	 ecx, ebx
  0023b	e8 00 00 00 00	 call	 ?ChaosBoxInit@CChaosBox@@QAEHPAUOBJECTSTRUCT@@@Z ; CChaosBox::ChaosBoxInit

; 5875 : 		GCUserChaosBoxSend(lpObj,0);

  00240	6a 00		 push	 0
  00242	56		 push	 esi
  00243	e8 00 00 00 00	 call	 ?GCUserChaosBoxSend@@YAXPAUOBJECTSTRUCT@@H@Z ; GCUserChaosBoxSend

; 5876 : 
; 5877 : 		DataSend(lpObj->m_Index,(LPBYTE)&pMsg,pMsg.h.size);

  00248	0f b6 45 ed	 movzx	 eax, BYTE PTR _pMsg$[ebp+1]
  0024c	50		 push	 eax
  0024d	8d 45 ec	 lea	 eax, DWORD PTR _pMsg$[ebp]
  00250	50		 push	 eax
  00251	ff 36		 push	 DWORD PTR [esi]
  00253	e8 00 00 00 00	 call	 ?DataSend@@YAHHPAEK@Z	; DataSend

; 5878 : 
; 5879 : 		LogAddTD("[Secromicon Mix][%s][%s] CBMix Fail %d Money : %d-%d",

  00258	57		 push	 edi
  00259	ff b6 cc 00 00
	00		 push	 DWORD PTR [esi+204]
  0025f	8d 46 5d	 lea	 eax, DWORD PTR [esi+93]
  00262	ff b6 1c 12 00
	00		 push	 DWORD PTR [esi+4636]
  00268	50		 push	 eax
  00269	8d 46 52	 lea	 eax, DWORD PTR [esi+82]
  0026c	50		 push	 eax
  0026d	68 00 00 00 00	 push	 OFFSET ??_C@_0DF@GJBOIKGG@?$FLSecromicon?5Mix?$FN?$FL?$CFs?$FN?$FL?$CFs?$FN?5CBMix?5F@
  00272	ff 15 00 00 00
	00		 call	 DWORD PTR ?LogAddTD@@3P6AXPADZZA ; LogAddTD
  00278	83 c4 2c	 add	 esp, 44			; 0000002cH

; 5880 : 			lpObj->AccountID,lpObj->Name,lpObj->ChaosSuccessRate,lpObj->Money,iNeedChaosMoney);
; 5881 : 	}
; 5882 : 	lpObj->ChaosLock = FALSE;

  0027b	eb 17		 jmp	 SHORT $LN24@Secromicon
$LN19@Secromicon:

; 5817 : 		iSecromiconPart6 != 1 )
; 5818 : 	{
; 5819 : 		pMsg.Result = 7;

  0027d	c6 45 ef 07	 mov	 BYTE PTR _pMsg$[ebp+3], 7
$LN35@Secromicon:

; 5820 : 		DataSend(lpObj->m_Index,(LPBYTE)&pMsg,pMsg.h.size);

  00281	0f b6 45 ed	 movzx	 eax, BYTE PTR _pMsg$[ebp+1]
  00285	50		 push	 eax
  00286	8d 45 ec	 lea	 eax, DWORD PTR _pMsg$[ebp]
  00289	50		 push	 eax
  0028a	ff 36		 push	 DWORD PTR [esi]
  0028c	e8 00 00 00 00	 call	 ?DataSend@@YAHHPAEK@Z	; DataSend
  00291	83 c4 0c	 add	 esp, 12			; 0000000cH
$LN24@Secromicon:

; 5883 : }

  00294	8b 4d fc	 mov	 ecx, DWORD PTR __$ArrayPad$[ebp]
  00297	5f		 pop	 edi
  00298	c7 86 20 12 00
	00 00 00 00 00	 mov	 DWORD PTR [esi+4640], 0
  002a2	33 cd		 xor	 ecx, ebp
  002a4	5e		 pop	 esi
  002a5	5b		 pop	 ebx
  002a6	e8 00 00 00 00	 call	 @__security_check_cookie@4
  002ab	8b e5		 mov	 esp, ebp
  002ad	5d		 pop	 ebp
  002ae	c2 04 00	 ret	 4
?SecromiconMix@CChaosBox@@QAEXPAUOBJECTSTRUCT@@@Z ENDP	; CChaosBox::SecromiconMix
_TEXT	ENDS
; Function compile flags: /Ogtp
; File c:\users\michel\desktop\source\gameserver\source\chaosbox.cpp
;	COMDAT ?RemoveSeedSphereMix@CChaosBox@@QAEXPAUOBJECTSTRUCT@@E@Z
_TEXT	SEGMENT
_Pos$GSCopy$ = -44					; size = 1
_this$1$ = -40						; size = 4
_iItemPos$1$ = -36					; size = 4
_iOtherItemCount$1$ = -32				; size = 4
_iItemCount$1$ = -28					; size = 4
_Pos$GSCopy$1$ = -21					; size = 1
_pMsg$ = -20						; size = 16
__$ArrayPad$ = -4					; size = 4
_lpObj$ = 8						; size = 4
_Pos$ = 12						; size = 1
?RemoveSeedSphereMix@CChaosBox@@QAEXPAUOBJECTSTRUCT@@E@Z PROC ; CChaosBox::RemoveSeedSphereMix, COMDAT
; _this$ = ecx

; 5666 : {

  00000	55		 push	 ebp
  00001	8b ec		 mov	 ebp, esp
  00003	83 ec 2c	 sub	 esp, 44			; 0000002cH
  00006	a1 00 00 00 00	 mov	 eax, DWORD PTR ___security_cookie
  0000b	33 c5		 xor	 eax, ebp
  0000d	89 45 fc	 mov	 DWORD PTR __$ArrayPad$[ebp], eax
  00010	53		 push	 ebx
  00011	8a 5d 0c	 mov	 bl, BYTE PTR _Pos$[ebp]

; 5667 : 	int iItemCount = 0;
; 5668 : 	int iOtherItemCount = 0;
; 5669 : 	int tmp = 0;
; 5670 : 	int iItemPos = 0;

  00014	33 c0		 xor	 eax, eax
  00016	56		 push	 esi
  00017	8b 75 08	 mov	 esi, DWORD PTR _lpObj$[ebp]

; 5671 : 	int tmp2 = 0;
; 5672 : 	int iChaosTaxMoney = 0;
; 5673 : 	int iMixNeedMoney = 0;
; 5674 : 
; 5675 : 	PMSG_CHAOSMIXRESULT pMsg;
; 5676 : 
; 5677 : 	PHeadSetB((LPBYTE)&pMsg.h, 0x86, sizeof(PMSG_CHAOSMIXRESULT));

  0001a	6a 10		 push	 16			; 00000010H
  0001c	89 45 dc	 mov	 DWORD PTR _iItemPos$1$[ebp], eax
  0001f	8d 45 ec	 lea	 eax, DWORD PTR _pMsg$[ebp]
  00022	68 86 00 00 00	 push	 134			; 00000086H
  00027	50		 push	 eax
  00028	89 4d d8	 mov	 DWORD PTR _this$1$[ebp], ecx
  0002b	88 5d eb	 mov	 BYTE PTR _Pos$GSCopy$1$[ebp], bl
  0002e	88 5d d4	 mov	 BYTE PTR _Pos$GSCopy$[ebp], bl
  00031	c7 45 e4 00 00
	00 00		 mov	 DWORD PTR _iItemCount$1$[ebp], 0
  00038	c7 45 e0 00 00
	00 00		 mov	 DWORD PTR _iOtherItemCount$1$[ebp], 0
  0003f	e8 00 00 00 00	 call	 ?PHeadSetB@@YAXPAEEH@Z	; PHeadSetB
  00044	83 c4 0c	 add	 esp, 12			; 0000000cH

; 5678 : 	pMsg.Result = CB_ERROR;

  00047	c6 45 ef 00	 mov	 BYTE PTR _pMsg$[ebp+3], 0

; 5679 : 
; 5680 : 	if( Pos >= MAX_SOCKET_COUNT )

  0004b	80 fb 05	 cmp	 bl, 5
  0004e	72 33		 jb	 SHORT $LN5@RemoveSeed

; 5681 : 	{
; 5682 : 		pMsg.Result = 7;
; 5683 : 		DataSend(lpObj->m_Index,(LPBYTE)&pMsg,pMsg.h.size);

  00050	0f b6 45 ed	 movzx	 eax, BYTE PTR _pMsg$[ebp+1]
  00054	50		 push	 eax
  00055	8d 45 ec	 lea	 eax, DWORD PTR _pMsg$[ebp]
  00058	c6 45 ef 07	 mov	 BYTE PTR _pMsg$[ebp+3], 7
  0005c	50		 push	 eax
  0005d	ff 36		 push	 DWORD PTR [esi]
  0005f	e8 00 00 00 00	 call	 ?DataSend@@YAHHPAEK@Z	; DataSend
  00064	83 c4 0c	 add	 esp, 12			; 0000000cH

; 5684 : 		lpObj->ChaosLock = FALSE;

  00067	c7 86 20 12 00
	00 00 00 00 00	 mov	 DWORD PTR [esi+4640], 0
  00071	5e		 pop	 esi
  00072	5b		 pop	 ebx

; 5756 : }

  00073	8b 4d fc	 mov	 ecx, DWORD PTR __$ArrayPad$[ebp]
  00076	33 cd		 xor	 ecx, ebp
  00078	e8 00 00 00 00	 call	 @__security_check_cookie@4
  0007d	8b e5		 mov	 esp, ebp
  0007f	5d		 pop	 ebp
  00080	c2 08 00	 ret	 8
$LN5@RemoveSeed:
  00083	57		 push	 edi

; 5685 : 		return;
; 5686 : 	}
; 5687 : 
; 5688 : 	lpObj->ChaosLock = TRUE;
; 5689 : 
; 5690 : 	for(int n = 0; n < CHAOS_BOX_SIZE; n++)

  00084	33 db		 xor	 ebx, ebx
  00086	c7 86 20 12 00
	00 01 00 00 00	 mov	 DWORD PTR [esi+4640], 1
  00090	33 ff		 xor	 edi, edi
$LL4@RemoveSeed:

; 5691 : 	{
; 5692 : 		if( lpObj->pChaosBox[n].IsItem() == TRUE )

  00092	8b 8e 10 12 00
	00		 mov	 ecx, DWORD PTR [esi+4624]
  00098	03 cf		 add	 ecx, edi
  0009a	e8 00 00 00 00	 call	 ?IsItem@CItem@@QAEHXZ	; CItem::IsItem
  0009f	83 f8 01	 cmp	 eax, 1
  000a2	75 4b		 jne	 SHORT $LN18@RemoveSeed

; 5693 : 		{
; 5694 : 			if( g_SocketItem.IsSocketItem(lpObj->pChaosBox[n].m_Type) == TRUE &&
; 5695 : 				lpObj->pChaosBox[n].m_SocketOption[Pos] != 0xFF &&

  000a4	8b 86 10 12 00
	00		 mov	 eax, DWORD PTR [esi+4624]
  000aa	b9 00 00 00 00	 mov	 ecx, OFFSET ?g_SocketItem@@3VCSocketItems@@A ; g_SocketItem
  000af	0f bf 44 38 06	 movsx	 eax, WORD PTR [eax+edi+6]
  000b4	50		 push	 eax
  000b5	e8 00 00 00 00	 call	 ?IsSocketItem@CSocketItems@@QAE_NH@Z ; CSocketItems::IsSocketItem
  000ba	3c 01		 cmp	 al, 1
  000bc	75 25		 jne	 SHORT $LN7@RemoveSeed
  000be	0f b6 45 eb	 movzx	 eax, BYTE PTR _Pos$GSCopy$1$[ebp]
  000c2	03 86 10 12 00
	00		 add	 eax, DWORD PTR [esi+4624]
  000c8	8a 84 38 c8 00
	00 00		 mov	 al, BYTE PTR [eax+edi+200]
  000cf	3c ff		 cmp	 al, 255			; 000000ffH
  000d1	74 10		 je	 SHORT $LN7@RemoveSeed
  000d3	3c fe		 cmp	 al, 254			; 000000feH
  000d5	74 0c		 je	 SHORT $LN7@RemoveSeed

; 5696 : 				lpObj->pChaosBox[n].m_SocketOption[Pos] != 0xFE )
; 5697 : 			{
; 5698 : 				iItemCount++;

  000d7	8b 45 e4	 mov	 eax, DWORD PTR _iItemCount$1$[ebp]
  000da	40		 inc	 eax

; 5699 : 				iItemPos = n;

  000db	89 5d dc	 mov	 DWORD PTR _iItemPos$1$[ebp], ebx
  000de	89 45 e4	 mov	 DWORD PTR _iItemCount$1$[ebp], eax

; 5700 : 			}
; 5701 : 			else

  000e1	eb 0f		 jmp	 SHORT $LN20@RemoveSeed
$LN7@RemoveSeed:

; 5702 : 			{
; 5703 : 				iOtherItemCount++;

  000e3	8b 4d e0	 mov	 ecx, DWORD PTR _iOtherItemCount$1$[ebp]
  000e6	8b 45 e4	 mov	 eax, DWORD PTR _iItemCount$1$[ebp]
  000e9	41		 inc	 ecx
  000ea	89 4d e0	 mov	 DWORD PTR _iOtherItemCount$1$[ebp], ecx
  000ed	eb 06		 jmp	 SHORT $LN2@RemoveSeed
$LN18@RemoveSeed:
  000ef	8b 45 e4	 mov	 eax, DWORD PTR _iItemCount$1$[ebp]
$LN20@RemoveSeed:
  000f2	8b 4d e0	 mov	 ecx, DWORD PTR _iOtherItemCount$1$[ebp]
$LN2@RemoveSeed:

; 5685 : 		return;
; 5686 : 	}
; 5687 : 
; 5688 : 	lpObj->ChaosLock = TRUE;
; 5689 : 
; 5690 : 	for(int n = 0; n < CHAOS_BOX_SIZE; n++)

  000f5	81 c7 d4 00 00
	00		 add	 edi, 212		; 000000d4H
  000fb	43		 inc	 ebx
  000fc	81 ff 80 1a 00
	00		 cmp	 edi, 6784		; 00001a80H
  00102	7c 8e		 jl	 SHORT $LL4@RemoveSeed

; 5704 : 			}
; 5705 : 		}
; 5706 : 	}
; 5707 : 
; 5708 : 	if( iOtherItemCount > 0 )

  00104	85 c9		 test	 ecx, ecx
  00106	7f 05		 jg	 SHORT $LN22@RemoveSeed

; 5709 : 	{
; 5710 : 		pMsg.Result = 7;
; 5711 : 		DataSend(lpObj->m_Index,(LPBYTE)&pMsg,pMsg.h.size);
; 5712 : 		lpObj->ChaosLock = FALSE;
; 5713 : 		return;
; 5714 : 	}
; 5715 : 
; 5716 : 	if( iItemCount != 1 )

  00108	83 f8 01	 cmp	 eax, 1
  0010b	74 06		 je	 SHORT $LN10@RemoveSeed
$LN22@RemoveSeed:

; 5717 : 	{
; 5718 : 		pMsg.Result = 7;

  0010d	c6 45 ef 07	 mov	 BYTE PTR _pMsg$[ebp+3], 7

; 5719 : 		DataSend(lpObj->m_Index,(LPBYTE)&pMsg,pMsg.h.size);
; 5720 : 		lpObj->ChaosLock = FALSE;
; 5721 : 		return;

  00111	eb 3b		 jmp	 SHORT $LN21@RemoveSeed
$LN10@RemoveSeed:

; 5722 : 	}
; 5723 : 
; 5724 : 	iChaosTaxMoney = (int)((__int64)g_SphereRemoveMoney * (__int64)g_CastleSiegeSync.GetTaxRateChaos(lpObj->m_Index) / (__int64)100);

  00113	ff 36		 push	 DWORD PTR [esi]
  00115	b9 00 00 00 00	 mov	 ecx, OFFSET ?g_CastleSiegeSync@@3VCCastleSiegeSync@@A ; g_CastleSiegeSync
  0011a	e8 00 00 00 00	 call	 ?GetTaxRateChaos@CCastleSiegeSync@@QAEHH@Z ; CCastleSiegeSync::GetTaxRateChaos
  0011f	8b 3d 00 00 00
	00		 mov	 edi, DWORD PTR ?g_SphereRemoveMoney@@3HA ; g_SphereRemoveMoney
  00125	8b c8		 mov	 ecx, eax
  00127	8b c7		 mov	 eax, edi
  00129	f7 e9		 imul	 ecx
  0012b	6a 00		 push	 0
  0012d	6a 64		 push	 100			; 00000064H
  0012f	52		 push	 edx
  00130	50		 push	 eax
  00131	e8 00 00 00 00	 call	 __alldiv

; 5725 : 
; 5726 : 	if( iChaosTaxMoney < 0 )

  00136	33 c9		 xor	 ecx, ecx
  00138	85 c0		 test	 eax, eax
  0013a	0f 48 c1	 cmovs	 eax, ecx

; 5727 : 		iChaosTaxMoney = 0;
; 5728 : 
; 5729 : 	iMixNeedMoney = g_SphereRemoveMoney +iChaosTaxMoney;
; 5730 : 
; 5731 : 	if( lpObj->Money < iMixNeedMoney )

  0013d	8b 8e cc 00 00
	00		 mov	 ecx, DWORD PTR [esi+204]
  00143	8d 14 07	 lea	 edx, DWORD PTR [edi+eax]
  00146	3b ca		 cmp	 ecx, edx
  00148	7d 34		 jge	 SHORT $LN12@RemoveSeed

; 5732 : 	{
; 5733 : 		pMsg.Result = 2;

  0014a	c6 45 ef 02	 mov	 BYTE PTR _pMsg$[ebp+3], 2
$LN21@RemoveSeed:

; 5734 : 		DataSend(lpObj->m_Index,(LPBYTE)&pMsg,pMsg.h.size);

  0014e	0f b6 45 ed	 movzx	 eax, BYTE PTR _pMsg$[ebp+1]
  00152	50		 push	 eax
  00153	8d 45 ec	 lea	 eax, DWORD PTR _pMsg$[ebp]
  00156	50		 push	 eax
  00157	ff 36		 push	 DWORD PTR [esi]
  00159	e8 00 00 00 00	 call	 ?DataSend@@YAHHPAEK@Z	; DataSend
  0015e	83 c4 0c	 add	 esp, 12			; 0000000cH

; 5735 : 		lpObj->ChaosLock = FALSE;

  00161	c7 86 20 12 00
	00 00 00 00 00	 mov	 DWORD PTR [esi+4640], 0
  0016b	5f		 pop	 edi
  0016c	5e		 pop	 esi
  0016d	5b		 pop	 ebx

; 5756 : }

  0016e	8b 4d fc	 mov	 ecx, DWORD PTR __$ArrayPad$[ebp]
  00171	33 cd		 xor	 ecx, ebp
  00173	e8 00 00 00 00	 call	 @__security_check_cookie@4
  00178	8b e5		 mov	 esp, ebp
  0017a	5d		 pop	 ebp
  0017b	c2 08 00	 ret	 8
$LN12@RemoveSeed:

; 5736 : 		return;
; 5737 : 	}
; 5738 : 
; 5739 : 	lpObj->Money -= iMixNeedMoney;

  0017e	2b ca		 sub	 ecx, edx
  00180	89 8e cc 00 00
	00		 mov	 DWORD PTR [esi+204], ecx

; 5740 : 	g_CastleSiegeSync.AddTributeMoney(iChaosTaxMoney);

  00186	b9 00 00 00 00	 mov	 ecx, OFFSET ?g_CastleSiegeSync@@3VCCastleSiegeSync@@A ; g_CastleSiegeSync
  0018b	50		 push	 eax
  0018c	e8 00 00 00 00	 call	 ?AddTributeMoney@CCastleSiegeSync@@QAEXH@Z ; CCastleSiegeSync::AddTributeMoney

; 5741 : 	GCMoneySend(lpObj->m_Index,lpObj->Money);

  00191	ff b6 cc 00 00
	00		 push	 DWORD PTR [esi+204]
  00197	ff 36		 push	 DWORD PTR [esi]
  00199	e8 00 00 00 00	 call	 ?GCMoneySend@@YAXHK@Z	; GCMoneySend

; 5742 : 
; 5743 : 	LogChaosItem(lpObj,"SeedSphereRemove");

  0019e	8b 4d d8	 mov	 ecx, DWORD PTR _this$1$[ebp]
  001a1	83 c4 08	 add	 esp, 8
  001a4	68 00 00 00 00	 push	 OFFSET ??_C@_0BB@CFKCJMNE@SeedSphereRemove?$AA@
  001a9	56		 push	 esi
  001aa	e8 00 00 00 00	 call	 ?LogChaosItem@CChaosBox@@QAEXPAUOBJECTSTRUCT@@PAD@Z ; CChaosBox::LogChaosItem

; 5744 : 	g_SocketItem.ItemRemoveSeedSphere(&lpObj->pChaosBox[iItemPos],Pos);

  001af	69 7d dc d4 00
	00 00		 imul	 edi, DWORD PTR _iItemPos$1$[ebp], 212
  001b6	b9 00 00 00 00	 mov	 ecx, OFFSET ?g_SocketItem@@3VCSocketItems@@A ; g_SocketItem
  001bb	8b 86 10 12 00
	00		 mov	 eax, DWORD PTR [esi+4624]
  001c1	ff 75 d4	 push	 DWORD PTR _Pos$GSCopy$[ebp]
  001c4	03 c7		 add	 eax, edi
  001c6	50		 push	 eax
  001c7	e8 00 00 00 00	 call	 ?ItemRemoveSeedSphere@CSocketItems@@QAEEPAVCItem@@E@Z ; CSocketItems::ItemRemoveSeedSphere

; 5745 : 	lpObj->ChaosLock = FALSE;
; 5746 : 
; 5747 : 	gObjInventoryCommit(lpObj->m_Index);

  001cc	ff 36		 push	 DWORD PTR [esi]
  001ce	c7 86 20 12 00
	00 00 00 00 00	 mov	 DWORD PTR [esi+4640], 0
  001d8	e8 00 00 00 00	 call	 ?gObjInventoryCommit@@YAHH@Z ; gObjInventoryCommit

; 5748 : 	GCUserChaosBoxSend(lpObj,0);

  001dd	6a 00		 push	 0
  001df	56		 push	 esi
  001e0	e8 00 00 00 00	 call	 ?GCUserChaosBoxSend@@YAXPAUOBJECTSTRUCT@@H@Z ; GCUserChaosBoxSend

; 5749 : 
; 5750 : 	LogAddTD("[%s][%s] SeedSphere Remove Success - ItemInfo ( Name : %s, ItemCode : %d, Level : %d, SocketOption[%d,%d,%d,%d,%d], BonusOption : %d )",

  001e5	8b 8e 10 12 00
	00		 mov	 ecx, DWORD PTR [esi+4624]
  001eb	03 cf		 add	 ecx, edi
  001ed	0f b6 81 c7 00
	00 00		 movzx	 eax, BYTE PTR [ecx+199]
  001f4	50		 push	 eax
  001f5	0f b6 81 cc 00
	00 00		 movzx	 eax, BYTE PTR [ecx+204]
  001fc	0f bf 51 06	 movsx	 edx, WORD PTR [ecx+6]
  00200	50		 push	 eax
  00201	0f b6 81 cb 00
	00 00		 movzx	 eax, BYTE PTR [ecx+203]
  00208	50		 push	 eax
  00209	0f b6 81 ca 00
	00 00		 movzx	 eax, BYTE PTR [ecx+202]
  00210	50		 push	 eax
  00211	0f b6 81 c9 00
	00 00		 movzx	 eax, BYTE PTR [ecx+201]
  00218	50		 push	 eax
  00219	0f b6 81 c8 00
	00 00		 movzx	 eax, BYTE PTR [ecx+200]
  00220	50		 push	 eax
  00221	0f bf 41 08	 movsx	 eax, WORD PTR [ecx+8]
  00225	50		 push	 eax
  00226	6b c2 70	 imul	 eax, edx, 112
  00229	52		 push	 edx
  0022a	05 00 00 00 00	 add	 eax, OFFSET ?ItemAttribute@@3PAUITEM_ATTRIBUTE@@A ; ItemAttribute
  0022f	50		 push	 eax
  00230	8d 46 5d	 lea	 eax, DWORD PTR [esi+93]
  00233	50		 push	 eax
  00234	8d 46 52	 lea	 eax, DWORD PTR [esi+82]
  00237	50		 push	 eax
  00238	68 00 00 00 00	 push	 OFFSET ??_C@_0IH@MCNGCFGC@?$FL?$CFs?$FN?$FL?$CFs?$FN?5SeedSphere?5Remove?5Succe@
  0023d	ff 15 00 00 00
	00		 call	 DWORD PTR ?LogAddTD@@3P6AXPADZZA ; LogAddTD

; 5751 : 		lpObj->AccountID,lpObj->Name,ItemAttribute[lpObj->pChaosBox[iItemPos].m_Type].Name,lpObj->pChaosBox[iItemPos].m_Type,lpObj->pChaosBox[iItemPos].m_Level,
; 5752 : 		lpObj->pChaosBox[iItemPos].m_SocketOption[0],lpObj->pChaosBox[iItemPos].m_SocketOption[1],lpObj->pChaosBox[iItemPos].m_SocketOption[2],lpObj->pChaosBox[iItemPos].m_SocketOption[3],lpObj->pChaosBox[iItemPos].m_SocketOption[4],
; 5753 : 		lpObj->pChaosBox[iItemPos].m_SocketBonus);
; 5754 : 
; 5755 : 	DataSend(lpObj->m_Index,(LPBYTE)&pMsg,pMsg.h.size);

  00243	0f b6 45 ed	 movzx	 eax, BYTE PTR _pMsg$[ebp+1]
  00247	50		 push	 eax
  00248	8d 45 ec	 lea	 eax, DWORD PTR _pMsg$[ebp]
  0024b	50		 push	 eax
  0024c	ff 36		 push	 DWORD PTR [esi]
  0024e	e8 00 00 00 00	 call	 ?DataSend@@YAHHPAEK@Z	; DataSend

; 5756 : }

  00253	8b 4d fc	 mov	 ecx, DWORD PTR __$ArrayPad$[ebp]
  00256	83 c4 48	 add	 esp, 72			; 00000048H
  00259	33 cd		 xor	 ecx, ebp
  0025b	5f		 pop	 edi
  0025c	5e		 pop	 esi
  0025d	5b		 pop	 ebx
  0025e	e8 00 00 00 00	 call	 @__security_check_cookie@4
  00263	8b e5		 mov	 esp, ebp
  00265	5d		 pop	 ebp
  00266	c2 08 00	 ret	 8
?RemoveSeedSphereMix@CChaosBox@@QAEXPAUOBJECTSTRUCT@@E@Z ENDP ; CChaosBox::RemoveSeedSphereMix
_TEXT	ENDS
; Function compile flags: /Ogtp
; File c:\users\michel\desktop\source\gameserver\source\chaosbox.cpp
;	COMDAT ?SetSeedSphereMix@CChaosBox@@QAEXPAUOBJECTSTRUCT@@E@Z
_TEXT	SEGMENT
_Pos$GSCopy$ = -268					; size = 1
_this$1$ = -264						; size = 4
_lpItem$1$ = -260					; size = 4
_iSeedSphereCount$1$ = -256				; size = 4
_btOption$ = -256					; size = 1
_iMixNeedMoney$1$ = -252				; size = 4
_iItemCount$1$ = -252					; size = 4
_iChaosCount$1$ = -248					; size = 4
_iOtherItemCount$1$ = -244				; size = 4
_iChaosTaxMoney$2$ = -240				; size = 4
_iCreationCount$1$ = -240				; size = 4
_Pos$GSCopy$1$ = -233					; size = 1
_tmpItem$ = -232					; size = 212
_pMsg$ = -20						; size = 16
__$ArrayPad$ = -4					; size = 4
_lpObj$ = 8						; size = 4
_Pos$ = 12						; size = 1
?SetSeedSphereMix@CChaosBox@@QAEXPAUOBJECTSTRUCT@@E@Z PROC ; CChaosBox::SetSeedSphereMix, COMDAT
; _this$ = ecx

; 5510 : {

  00000	55		 push	 ebp
  00001	8b ec		 mov	 ebp, esp
  00003	81 ec 0c 01 00
	00		 sub	 esp, 268		; 0000010cH
  00009	a1 00 00 00 00	 mov	 eax, DWORD PTR ___security_cookie
  0000e	33 c5		 xor	 eax, ebp
  00010	89 45 fc	 mov	 DWORD PTR __$ArrayPad$[ebp], eax
  00013	8a 45 0c	 mov	 al, BYTE PTR _Pos$[ebp]
  00016	53		 push	 ebx
  00017	8b 5d 08	 mov	 ebx, DWORD PTR _lpObj$[ebp]
  0001a	56		 push	 esi
  0001b	88 85 17 ff ff
	ff		 mov	 BYTE PTR _Pos$GSCopy$1$[ebp], al
  00021	88 85 f4 fe ff
	ff		 mov	 BYTE PTR _Pos$GSCopy$[ebp], al

; 5511 : 	int iItemCount = 0;

  00027	33 c0		 xor	 eax, eax
  00029	89 8d f8 fe ff
	ff		 mov	 DWORD PTR _this$1$[ebp], ecx

; 5512 : 	int iOtherItemCount = 0;
; 5513 : 	int iSeedSphereCount = 0;
; 5514 : 	int iChaosCount = 0;
; 5515 : 	int iCreationCount = 0;
; 5516 : 	CItem* lpItem = 0;
; 5517 : 	CItem* lpSeedSphere = 0;
; 5518 : 	CItem tmpItem;

  0002f	8d 8d 18 ff ff
	ff		 lea	 ecx, DWORD PTR _tmpItem$[ebp]
  00035	57		 push	 edi
  00036	89 85 04 ff ff
	ff		 mov	 DWORD PTR _iItemCount$1$[ebp], eax
  0003c	33 ff		 xor	 edi, edi
  0003e	89 85 0c ff ff
	ff		 mov	 DWORD PTR _iOtherItemCount$1$[ebp], eax
  00044	89 85 00 ff ff
	ff		 mov	 DWORD PTR _iSeedSphereCount$1$[ebp], eax
  0004a	89 85 08 ff ff
	ff		 mov	 DWORD PTR _iChaosCount$1$[ebp], eax
  00050	89 85 10 ff ff
	ff		 mov	 DWORD PTR _iCreationCount$1$[ebp], eax
  00056	89 85 fc fe ff
	ff		 mov	 DWORD PTR _lpItem$1$[ebp], eax
  0005c	e8 00 00 00 00	 call	 ??0CItem@@QAE@XZ	; CItem::CItem

; 5519 : 	int iChaosTaxMoney = 0;
; 5520 : 	int iMixNeedMoney = 0;
; 5521 : 
; 5522 : 	PMSG_CHAOSMIXRESULT pMsg;
; 5523 : 
; 5524 : 	PHeadSetB((LPBYTE)&pMsg.h, 0x86, sizeof(PMSG_CHAOSMIXRESULT));

  00061	6a 10		 push	 16			; 00000010H
  00063	8d 45 ec	 lea	 eax, DWORD PTR _pMsg$[ebp]
  00066	68 86 00 00 00	 push	 134			; 00000086H
  0006b	50		 push	 eax
  0006c	e8 00 00 00 00	 call	 ?PHeadSetB@@YAXPAEEH@Z	; PHeadSetB
  00071	83 c4 0c	 add	 esp, 12			; 0000000cH

; 5525 : 	pMsg.Result = CB_ERROR;

  00074	c6 45 ef 00	 mov	 BYTE PTR _pMsg$[ebp+3], 0

; 5526 : 
; 5527 : 	if( Pos >= MAX_SOCKET_COUNT )

  00078	80 bd 17 ff ff
	ff 05		 cmp	 BYTE PTR _Pos$GSCopy$1$[ebp], 5
  0007f	72 1f		 jb	 SHORT $LN5@SetSeedSph

; 5528 : 	{
; 5529 : 		pMsg.Result = 7;
; 5530 : 		DataSend(lpObj->m_Index,(LPBYTE)&pMsg,pMsg.h.size);

  00081	0f b6 45 ed	 movzx	 eax, BYTE PTR _pMsg$[ebp+1]
  00085	50		 push	 eax
  00086	8d 45 ec	 lea	 eax, DWORD PTR _pMsg$[ebp]
  00089	c6 45 ef 07	 mov	 BYTE PTR _pMsg$[ebp+3], 7
  0008d	50		 push	 eax
  0008e	ff 33		 push	 DWORD PTR [ebx]
  00090	e8 00 00 00 00	 call	 ?DataSend@@YAHHPAEK@Z	; DataSend

; 5531 : 		lpObj->ChaosLock = FALSE;

  00095	89 bb 20 12 00
	00		 mov	 DWORD PTR [ebx+4640], edi

; 5532 : 		return;

  0009b	e9 82 04 00 00	 jmp	 $LN29@SetSeedSph
$LN5@SetSeedSph:

; 5533 : 	}
; 5534 : 
; 5535 : 	lpObj->ChaosLock = TRUE;

  000a0	c7 83 20 12 00
	00 01 00 00 00	 mov	 DWORD PTR [ebx+4640], 1
  000aa	33 f6		 xor	 esi, esi
  000ac	0f 1f 40 00	 npad	 4
$LL4@SetSeedSph:

; 5538 : 	{
; 5539 : 		if( lpObj->pChaosBox[n].IsItem() == TRUE )

  000b0	8b 8b 10 12 00
	00		 mov	 ecx, DWORD PTR [ebx+4624]
  000b6	03 ce		 add	 ecx, esi
  000b8	e8 00 00 00 00	 call	 ?IsItem@CItem@@QAEHXZ	; CItem::IsItem
  000bd	83 f8 01	 cmp	 eax, 1
  000c0	75 47		 jne	 SHORT $LN28@SetSeedSph

; 5540 : 		{
; 5541 : 			if( g_SocketItem.IsSocketItem(lpObj->pChaosBox[n].m_Type) == TRUE &&

  000c2	8b 83 10 12 00
	00		 mov	 eax, DWORD PTR [ebx+4624]
  000c8	b9 00 00 00 00	 mov	 ecx, OFFSET ?g_SocketItem@@3VCSocketItems@@A ; g_SocketItem
  000cd	0f bf 44 30 06	 movsx	 eax, WORD PTR [eax+esi+6]
  000d2	50		 push	 eax
  000d3	e8 00 00 00 00	 call	 ?IsSocketItem@CSocketItems@@QAE_NH@Z ; CSocketItems::IsSocketItem
  000d8	3c 01		 cmp	 al, 1
  000da	0f 85 ed 00 00
	00		 jne	 $LN7@SetSeedSph
  000e0	8b 8b 10 12 00
	00		 mov	 ecx, DWORD PTR [ebx+4624]
  000e6	0f b6 85 17 ff
	ff ff		 movzx	 eax, BYTE PTR _Pos$GSCopy$1$[ebp]
  000ed	03 ce		 add	 ecx, esi
  000ef	80 bc 08 c8 00
	00 00 fe	 cmp	 BYTE PTR [eax+ecx+200], 254 ; 000000feH
  000f7	0f 85 d0 00 00
	00		 jne	 $LN7@SetSeedSph

; 5542 : 				lpObj->pChaosBox[n].m_SocketOption[Pos] == (BYTE)-2)
; 5543 : 			{
; 5544 : 				iItemCount++;

  000fd	ff 85 04 ff ff
	ff		 inc	 DWORD PTR _iItemCount$1$[ebp]

; 5545 : 				lpItem = &lpObj->pChaosBox[n];

  00103	89 8d fc fe ff
	ff		 mov	 DWORD PTR _lpItem$1$[ebp], ecx
$LN28@SetSeedSph:
  00109	8b 8d 08 ff ff
	ff		 mov	 ecx, DWORD PTR _iChaosCount$1$[ebp]
$LN30@SetSeedSph:
  0010f	8b 95 10 ff ff
	ff		 mov	 edx, DWORD PTR _iCreationCount$1$[ebp]
  00115	8b 85 0c ff ff
	ff		 mov	 eax, DWORD PTR _iOtherItemCount$1$[ebp]
$LN2@SetSeedSph:

; 5536 : 
; 5537 : 	for(int n = 0; n < CHAOS_BOX_SIZE; n++)

  0011b	81 c6 d4 00 00
	00		 add	 esi, 212		; 000000d4H
  00121	81 fe 80 1a 00
	00		 cmp	 esi, 6784		; 00001a80H
  00127	7c 87		 jl	 SHORT $LL4@SetSeedSph

; 5563 : 			}
; 5564 : 		}
; 5565 : 	}
; 5566 : 
; 5567 : 
; 5568 : 	if( iOtherItemCount > 0 )

  00129	85 c0		 test	 eax, eax
  0012b	0f 8f d3 03 00
	00		 jg	 $LN17@SetSeedSph

; 5569 : 	{
; 5570 : 		pMsg.Result = 7;
; 5571 : 		DataSend(lpObj->m_Index,(LPBYTE)&pMsg,pMsg.h.size);
; 5572 : 		lpObj->ChaosLock = FALSE;
; 5573 : 		return;
; 5574 : 	}
; 5575 : 
; 5576 : 	if( iItemCount != 1 ||
; 5577 : 		iSeedSphereCount != 1 ||
; 5578 : 		iChaosCount != 1 ||

  00131	83 bd 04 ff ff
	ff 01		 cmp	 DWORD PTR _iItemCount$1$[ebp], 1
  00138	0f 85 c6 03 00
	00		 jne	 $LN17@SetSeedSph
  0013e	83 bd 00 ff ff
	ff 01		 cmp	 DWORD PTR _iSeedSphereCount$1$[ebp], 1
  00145	0f 85 b9 03 00
	00		 jne	 $LN17@SetSeedSph
  0014b	83 f9 01	 cmp	 ecx, 1
  0014e	0f 85 b0 03 00
	00		 jne	 $LN17@SetSeedSph
  00154	3b d1		 cmp	 edx, ecx
  00156	0f 85 a8 03 00
	00		 jne	 $LN17@SetSeedSph

; 5584 : 		return;
; 5585 : 	}
; 5586 : 
; 5587 : 	if( g_SocketItem.CheckMountItem(lpItem,lpSeedSphere->m_Type,lpSeedSphere->m_Level) == FALSE )

  0015c	0f b6 47 08	 movzx	 eax, BYTE PTR [edi+8]
  00160	b9 00 00 00 00	 mov	 ecx, OFFSET ?g_SocketItem@@3VCSocketItems@@A ; g_SocketItem
  00165	50		 push	 eax
  00166	0f b7 47 06	 movzx	 eax, WORD PTR [edi+6]
  0016a	50		 push	 eax
  0016b	8b 85 fc fe ff
	ff		 mov	 eax, DWORD PTR _lpItem$1$[ebp]
  00171	50		 push	 eax
  00172	e8 00 00 00 00	 call	 ?CheckMountItem@CSocketItems@@QAEEPAVCItem@@GE@Z ; CSocketItems::CheckMountItem
  00177	84 c0		 test	 al, al
  00179	0f 84 85 03 00
	00		 je	 $LN17@SetSeedSph

; 5588 : 	{
; 5589 : 		pMsg.Result = 7;
; 5590 : 		DataSend(lpObj->m_Index,(LPBYTE)&pMsg,pMsg.h.size);
; 5591 : 		lpObj->ChaosLock = FALSE;
; 5592 : 		return;
; 5593 : 	}
; 5594 : 
; 5595 : 	iChaosTaxMoney = (int)((__int64)g_SphereSetMoney * (__int64)g_CastleSiegeSync.GetTaxRateChaos(lpObj->m_Index) / (__int64)100);

  0017f	ff 33		 push	 DWORD PTR [ebx]
  00181	b9 00 00 00 00	 mov	 ecx, OFFSET ?g_CastleSiegeSync@@3VCCastleSiegeSync@@A ; g_CastleSiegeSync
  00186	e8 00 00 00 00	 call	 ?GetTaxRateChaos@CCastleSiegeSync@@QAEHH@Z ; CCastleSiegeSync::GetTaxRateChaos
  0018b	8b c8		 mov	 ecx, eax
  0018d	a1 00 00 00 00	 mov	 eax, DWORD PTR ?g_SphereSetMoney@@3HA ; g_SphereSetMoney
  00192	f7 e9		 imul	 ecx
  00194	6a 00		 push	 0
  00196	6a 64		 push	 100			; 00000064H
  00198	52		 push	 edx
  00199	50		 push	 eax
  0019a	e8 00 00 00 00	 call	 __alldiv

; 5596 : 
; 5597 : 	if( iChaosTaxMoney < 0 )

  0019f	33 c9		 xor	 ecx, ecx
  001a1	85 c0		 test	 eax, eax
  001a3	0f 48 c1	 cmovs	 eax, ecx
  001a6	89 85 10 ff ff
	ff		 mov	 DWORD PTR _iChaosTaxMoney$2$[ebp], eax

; 5598 : 		iChaosTaxMoney = 0;
; 5599 : 
; 5600 : 	iMixNeedMoney = g_SphereSetMoney +iChaosTaxMoney;

  001ac	03 05 00 00 00
	00		 add	 eax, DWORD PTR ?g_SphereSetMoney@@3HA ; g_SphereSetMoney
  001b2	89 85 04 ff ff
	ff		 mov	 DWORD PTR _iMixNeedMoney$1$[ebp], eax

; 5601 : 
; 5602 : 	if( lpObj->Money < iMixNeedMoney )

  001b8	39 83 cc 00 00
	00		 cmp	 DWORD PTR [ebx+204], eax
  001be	0f 8d 91 00 00
	00		 jge	 $LN20@SetSeedSph

; 5603 : 	{
; 5604 : 		pMsg.Result = 2;

  001c4	c6 45 ef 02	 mov	 BYTE PTR _pMsg$[ebp+3], 2

; 5605 : 		DataSend(lpObj->m_Index,(LPBYTE)&pMsg,pMsg.h.size);
; 5606 : 		lpObj->ChaosLock = FALSE;
; 5607 : 		return;

  001c8	e9 3b 03 00 00	 jmp	 $LN31@SetSeedSph
$LN7@SetSeedSph:

; 5546 : 			}
; 5547 : 			else if( g_SocketItem.IsSeedSphereItem(lpObj->pChaosBox[n].m_Type) == TRUE )

  001cd	8b 83 10 12 00
	00		 mov	 eax, DWORD PTR [ebx+4624]
  001d3	b9 00 00 00 00	 mov	 ecx, OFFSET ?g_SocketItem@@3VCSocketItems@@A ; g_SocketItem
  001d8	0f bf 44 30 06	 movsx	 eax, WORD PTR [eax+esi+6]
  001dd	50		 push	 eax
  001de	e8 00 00 00 00	 call	 ?IsSeedSphereItem@CSocketItems@@QAEEH@Z ; CSocketItems::IsSeedSphereItem
  001e3	3c 01		 cmp	 al, 1
  001e5	75 13		 jne	 SHORT $LN9@SetSeedSph

; 5548 : 			{
; 5549 : 				iSeedSphereCount++;
; 5550 : 				lpSeedSphere = &lpObj->pChaosBox[n];

  001e7	8b bb 10 12 00
	00		 mov	 edi, DWORD PTR [ebx+4624]
  001ed	ff 85 00 ff ff
	ff		 inc	 DWORD PTR _iSeedSphereCount$1$[ebp]
  001f3	03 fe		 add	 edi, esi
  001f5	e9 0f ff ff ff	 jmp	 $LN28@SetSeedSph
$LN9@SetSeedSph:

; 5551 : 			}
; 5552 : 			else if( lpObj->pChaosBox[n].m_Type == ITEMGET(12,15) )

  001fa	8b 83 10 12 00
	00		 mov	 eax, DWORD PTR [ebx+4624]
  00200	b9 0f 18 00 00	 mov	 ecx, 6159		; 0000180fH
  00205	0f b7 44 30 06	 movzx	 eax, WORD PTR [eax+esi+6]
  0020a	66 3b c1	 cmp	 ax, cx
  0020d	75 12		 jne	 SHORT $LN11@SetSeedSph

; 5553 : 			{
; 5554 : 				iChaosCount++;

  0020f	8b 8d 08 ff ff
	ff		 mov	 ecx, DWORD PTR _iChaosCount$1$[ebp]
  00215	41		 inc	 ecx
  00216	89 8d 08 ff ff
	ff		 mov	 DWORD PTR _iChaosCount$1$[ebp], ecx
  0021c	e9 ee fe ff ff	 jmp	 $LN30@SetSeedSph
$LN11@SetSeedSph:

; 5555 : 			}
; 5556 : 			else if( lpObj->pChaosBox[n].m_Type == ITEMGET(14,22) )
; 5557 : 			{
; 5558 : 				iCreationCount++;

  00221	8b 95 10 ff ff
	ff		 mov	 edx, DWORD PTR _iCreationCount$1$[ebp]
  00227	b9 16 1c 00 00	 mov	 ecx, 7190		; 00001c16H
  0022c	66 3b c1	 cmp	 ax, cx

; 5559 : 			}
; 5560 : 			else

  0022f	8b 85 0c ff ff
	ff		 mov	 eax, DWORD PTR _iOtherItemCount$1$[ebp]
  00235	8b 8d 08 ff ff
	ff		 mov	 ecx, DWORD PTR _iChaosCount$1$[ebp]
  0023b	75 0c		 jne	 SHORT $LN13@SetSeedSph

; 5555 : 			}
; 5556 : 			else if( lpObj->pChaosBox[n].m_Type == ITEMGET(14,22) )
; 5557 : 			{
; 5558 : 				iCreationCount++;

  0023d	42		 inc	 edx
  0023e	89 95 10 ff ff
	ff		 mov	 DWORD PTR _iCreationCount$1$[ebp], edx

; 5559 : 			}
; 5560 : 			else

  00244	e9 d2 fe ff ff	 jmp	 $LN2@SetSeedSph
$LN13@SetSeedSph:

; 5561 : 			{
; 5562 : 				iOtherItemCount++;

  00249	40		 inc	 eax
  0024a	89 85 0c ff ff
	ff		 mov	 DWORD PTR _iOtherItemCount$1$[ebp], eax
  00250	e9 c6 fe ff ff	 jmp	 $LN2@SetSeedSph
$LN20@SetSeedSph:

; 5608 : 	}
; 5609 : 
; 5610 : 	LogChaosItem(lpObj,"SetSeedSphere");

  00255	8b 8d f8 fe ff
	ff		 mov	 ecx, DWORD PTR _this$1$[ebp]
  0025b	68 00 00 00 00	 push	 OFFSET ??_C@_0O@CGCDEDIJ@SetSeedSphere?$AA@
  00260	53		 push	 ebx
  00261	e8 00 00 00 00	 call	 ?LogChaosItem@CChaosBox@@QAEXPAUOBJECTSTRUCT@@PAD@Z ; CChaosBox::LogChaosItem

; 5611 : 	BYTE btOption = 0;
; 5612 : 
; 5613 : 	btOption = g_SocketItem.GetSphereOption(lpSeedSphere->m_Type,lpSeedSphere->m_Level);

  00266	0f b6 47 08	 movzx	 eax, BYTE PTR [edi+8]
  0026a	b9 00 00 00 00	 mov	 ecx, OFFSET ?g_SocketItem@@3VCSocketItems@@A ; g_SocketItem
  0026f	50		 push	 eax
  00270	0f b7 47 06	 movzx	 eax, WORD PTR [edi+6]
  00274	50		 push	 eax
  00275	e8 00 00 00 00	 call	 ?GetSphereOption@CSocketItems@@QAEEGE@Z ; CSocketItems::GetSphereOption
  0027a	88 85 00 ff ff
	ff		 mov	 BYTE PTR _btOption$[ebp], al

; 5614 : 
; 5615 : 	if( btOption == (BYTE)-1 )

  00280	3c ff		 cmp	 al, 255			; 000000ffH
  00282	75 47		 jne	 SHORT $LN21@SetSeedSph

; 5616 : 	{
; 5617 : 		pMsg.Result = 7;
; 5618 : 		DataSend(lpObj->m_Index,(LPBYTE)&pMsg,pMsg.h.size);

  00284	0f b6 45 ed	 movzx	 eax, BYTE PTR _pMsg$[ebp+1]
  00288	50		 push	 eax
  00289	8d 45 ec	 lea	 eax, DWORD PTR _pMsg$[ebp]
  0028c	c6 45 ef 07	 mov	 BYTE PTR _pMsg$[ebp+3], 7
  00290	50		 push	 eax
  00291	ff 33		 push	 DWORD PTR [ebx]
  00293	e8 00 00 00 00	 call	 ?DataSend@@YAHHPAEK@Z	; DataSend

; 5619 : 		lpObj->ChaosLock = FALSE;
; 5620 : 		LogAddTD("[%s][%s] Set Seed Mix Failed - SeedSphere is NULL",

  00298	8d 43 5d	 lea	 eax, DWORD PTR [ebx+93]
  0029b	c7 83 20 12 00
	00 00 00 00 00	 mov	 DWORD PTR [ebx+4640], 0
  002a5	50		 push	 eax
  002a6	8d 43 52	 lea	 eax, DWORD PTR [ebx+82]
  002a9	50		 push	 eax
  002aa	68 00 00 00 00	 push	 OFFSET ??_C@_0DC@BKFDMAJM@?$FL?$CFs?$FN?$FL?$CFs?$FN?5Set?5Seed?5Mix?5Failed?5?9?5S@
  002af	ff 15 00 00 00
	00		 call	 DWORD PTR ?LogAddTD@@3P6AXPADZZA ; LogAddTD
  002b5	83 c4 18	 add	 esp, 24			; 00000018H

; 5663 : }

  002b8	5f		 pop	 edi
  002b9	5e		 pop	 esi
  002ba	5b		 pop	 ebx
  002bb	8b 4d fc	 mov	 ecx, DWORD PTR __$ArrayPad$[ebp]
  002be	33 cd		 xor	 ecx, ebp
  002c0	e8 00 00 00 00	 call	 @__security_check_cookie@4
  002c5	8b e5		 mov	 esp, ebp
  002c7	5d		 pop	 ebp
  002c8	c2 08 00	 ret	 8
$LN21@SetSeedSph:

; 5621 : 			lpObj->AccountID,lpObj->Name);
; 5622 : 		return;
; 5623 : 	}
; 5624 : 
; 5625 : 	if( g_SocketItem.IsItemType(lpItem,btOption) == FALSE )

  002cb	8b bd 00 ff ff
	ff		 mov	 edi, DWORD PTR _btOption$[ebp]
  002d1	b9 00 00 00 00	 mov	 ecx, OFFSET ?g_SocketItem@@3VCSocketItems@@A ; g_SocketItem
  002d6	8b b5 fc fe ff
	ff		 mov	 esi, DWORD PTR _lpItem$1$[ebp]
  002dc	57		 push	 edi
  002dd	56		 push	 esi
  002de	e8 00 00 00 00	 call	 ?IsItemType@CSocketItems@@QAEEPAVCItem@@E@Z ; CSocketItems::IsItemType
  002e3	84 c0		 test	 al, al
  002e5	75 47		 jne	 SHORT $LN22@SetSeedSph

; 5626 : 	{
; 5627 : 		pMsg.Result = 7;
; 5628 : 		DataSend(lpObj->m_Index,(LPBYTE)&pMsg,pMsg.h.size);

  002e7	0f b6 45 ed	 movzx	 eax, BYTE PTR _pMsg$[ebp+1]
  002eb	50		 push	 eax
  002ec	8d 45 ec	 lea	 eax, DWORD PTR _pMsg$[ebp]
  002ef	c6 45 ef 07	 mov	 BYTE PTR _pMsg$[ebp+3], 7
  002f3	50		 push	 eax
  002f4	ff 33		 push	 DWORD PTR [ebx]
  002f6	e8 00 00 00 00	 call	 ?DataSend@@YAHHPAEK@Z	; DataSend

; 5629 : 		lpObj->ChaosLock = FALSE;
; 5630 : 		LogAddTD("[%s][%s] Set Seed Mix Failed - Wrong Item Type for Set Socket",

  002fb	8d 43 5d	 lea	 eax, DWORD PTR [ebx+93]
  002fe	c7 83 20 12 00
	00 00 00 00 00	 mov	 DWORD PTR [ebx+4640], 0
  00308	50		 push	 eax
  00309	8d 43 52	 lea	 eax, DWORD PTR [ebx+82]
  0030c	50		 push	 eax
  0030d	68 00 00 00 00	 push	 OFFSET ??_C@_0DO@KKBOJPIF@?$FL?$CFs?$FN?$FL?$CFs?$FN?5Set?5Seed?5Mix?5Failed?5?9?5W@
  00312	ff 15 00 00 00
	00		 call	 DWORD PTR ?LogAddTD@@3P6AXPADZZA ; LogAddTD
  00318	83 c4 18	 add	 esp, 24			; 00000018H

; 5663 : }

  0031b	5f		 pop	 edi
  0031c	5e		 pop	 esi
  0031d	5b		 pop	 ebx
  0031e	8b 4d fc	 mov	 ecx, DWORD PTR __$ArrayPad$[ebp]
  00321	33 cd		 xor	 ecx, ebp
  00323	e8 00 00 00 00	 call	 @__security_check_cookie@4
  00328	8b e5		 mov	 esp, ebp
  0032a	5d		 pop	 ebp
  0032b	c2 08 00	 ret	 8
$LN22@SetSeedSph:

; 5631 : 			lpObj->AccountID,lpObj->Name);
; 5632 : 		return;
; 5633 : 	}
; 5634 : 
; 5635 : 	lpObj->Money -= iMixNeedMoney;

  0032e	8b 85 04 ff ff
	ff		 mov	 eax, DWORD PTR _iMixNeedMoney$1$[ebp]

; 5636 : 	g_CastleSiegeSync.AddTributeMoney(iChaosTaxMoney);

  00334	b9 00 00 00 00	 mov	 ecx, OFFSET ?g_CastleSiegeSync@@3VCCastleSiegeSync@@A ; g_CastleSiegeSync
  00339	ff b5 10 ff ff
	ff		 push	 DWORD PTR _iChaosTaxMoney$2$[ebp]
  0033f	29 83 cc 00 00
	00		 sub	 DWORD PTR [ebx+204], eax
  00345	e8 00 00 00 00	 call	 ?AddTributeMoney@CCastleSiegeSync@@QAEXH@Z ; CCastleSiegeSync::AddTributeMoney

; 5637 : 	GCMoneySend(lpObj->m_Index,lpObj->Money);

  0034a	ff b3 cc 00 00
	00		 push	 DWORD PTR [ebx+204]
  00350	ff 33		 push	 DWORD PTR [ebx]
  00352	e8 00 00 00 00	 call	 ?GCMoneySend@@YAXHK@Z	; GCMoneySend
  00357	83 c4 08	 add	 esp, 8

; 5638 : 
; 5639 : 	g_SocketItem.ItemSetSeedSphere(lpItem,btOption,Pos);

  0035a	b9 00 00 00 00	 mov	 ecx, OFFSET ?g_SocketItem@@3VCSocketItems@@A ; g_SocketItem
  0035f	ff b5 f4 fe ff
	ff		 push	 DWORD PTR _Pos$GSCopy$[ebp]
  00365	57		 push	 edi
  00366	56		 push	 esi
  00367	e8 00 00 00 00	 call	 ?ItemSetSeedSphere@CSocketItems@@QAEEPAVCItem@@EE@Z ; CSocketItems::ItemSetSeedSphere

; 5640 : 	float dur = (float)ItemGetDurability(lpItem->m_Type,lpItem->m_Level,lpItem->IsExtItem(),lpItem->IsSetItem());

  0036c	8b ce		 mov	 ecx, esi
