; Listing generated by Microsoft (R) Optimizing Compiler Version 19.00.23506.0 

	TITLE	C:\Users\Michel\Desktop\Source\GameServer\Source\ChaosMachineManager.cpp
	.686P
	.XMM
	include listing.inc
	.model	flat

INCLUDELIB LIBCMT
INCLUDELIB OLDNAMES

PUBLIC	?__empty_global_delete@@YAXPAX@Z		; __empty_global_delete
PUBLIC	?__empty_global_delete@@YAXPAXI@Z		; __empty_global_delete
PUBLIC	??3@YAXPAX0@Z					; operator delete
PUBLIC	___local_stdio_printf_options
PUBLIC	??$__vcrt_va_start_verify_argument_type@QBD@@YAXXZ ; __vcrt_va_start_verify_argument_type<char const * const>
PUBLIC	_sprintf
PUBLIC	??1OBJECTSTRUCT@@QAE@XZ				; OBJECTSTRUCT::~OBJECTSTRUCT
PUBLIC	??_EOBJECTSTRUCT@@QAEPAXI@Z			; OBJECTSTRUCT::`vector deleting destructor'
PUBLIC	?deallocate@?$allocator@UChaosIngredient@@@std@@QAEXPAUChaosIngredient@@I@Z ; std::allocator<ChaosIngredient>::deallocate
PUBLIC	?allocate@?$allocator@UChaosIngredient@@@std@@QAEPAUChaosIngredient@@I@Z ; std::allocator<ChaosIngredient>::allocate
PUBLIC	??0?$vector@UChaosIngredient@@V?$allocator@UChaosIngredient@@@std@@@std@@QAE@ABV01@@Z ; std::vector<ChaosIngredient,std::allocator<ChaosIngredient> >::vector<ChaosIngredient,std::allocator<ChaosIngredient> >
PUBLIC	??1?$vector@UChaosIngredient@@V?$allocator@UChaosIngredient@@@std@@@std@@QAE@XZ ; std::vector<ChaosIngredient,std::allocator<ChaosIngredient> >::~vector<ChaosIngredient,std::allocator<ChaosIngredient> >
PUBLIC	?push_back@?$vector@UChaosIngredient@@V?$allocator@UChaosIngredient@@@std@@@std@@QAEXABUChaosIngredient@@@Z ; std::vector<ChaosIngredient,std::allocator<ChaosIngredient> >::push_back
PUBLIC	?_Buy@?$vector@UChaosIngredient@@V?$allocator@UChaosIngredient@@@std@@@std@@IAE_NI@Z ; std::vector<ChaosIngredient,std::allocator<ChaosIngredient> >::_Buy
PUBLIC	?_Reallocate@?$vector@UChaosIngredient@@V?$allocator@UChaosIngredient@@@std@@@std@@IAEXI@Z ; std::vector<ChaosIngredient,std::allocator<ChaosIngredient> >::_Reallocate
PUBLIC	?_Reserve@?$vector@UChaosIngredient@@V?$allocator@UChaosIngredient@@@std@@@std@@IAEXI@Z ; std::vector<ChaosIngredient,std::allocator<ChaosIngredient> >::_Reserve
PUBLIC	?_Tidy@?$vector@UChaosIngredient@@V?$allocator@UChaosIngredient@@@std@@@std@@IAEXXZ ; std::vector<ChaosIngredient,std::allocator<ChaosIngredient> >::_Tidy
PUBLIC	?deallocate@?$allocator@UChaosProduce@@@std@@QAEXPAUChaosProduce@@I@Z ; std::allocator<ChaosProduce>::deallocate
PUBLIC	?allocate@?$allocator@UChaosProduce@@@std@@QAEPAUChaosProduce@@I@Z ; std::allocator<ChaosProduce>::allocate
PUBLIC	??0?$vector@UChaosProduce@@V?$allocator@UChaosProduce@@@std@@@std@@QAE@ABV01@@Z ; std::vector<ChaosProduce,std::allocator<ChaosProduce> >::vector<ChaosProduce,std::allocator<ChaosProduce> >
PUBLIC	??1?$vector@UChaosProduce@@V?$allocator@UChaosProduce@@@std@@@std@@QAE@XZ ; std::vector<ChaosProduce,std::allocator<ChaosProduce> >::~vector<ChaosProduce,std::allocator<ChaosProduce> >
PUBLIC	?_Reallocate@?$vector@UChaosProduce@@V?$allocator@UChaosProduce@@@std@@@std@@IAEXI@Z ; std::vector<ChaosProduce,std::allocator<ChaosProduce> >::_Reallocate
PUBLIC	?_Tidy@?$vector@UChaosProduce@@V?$allocator@UChaosProduce@@@std@@@std@@IAEXXZ ; std::vector<ChaosProduce,std::allocator<ChaosProduce> >::_Tidy
PUBLIC	?deallocate@?$allocator@UChaosTalisman@@@std@@QAEXPAUChaosTalisman@@I@Z ; std::allocator<ChaosTalisman>::deallocate
PUBLIC	?allocate@?$allocator@UChaosTalisman@@@std@@QAEPAUChaosTalisman@@I@Z ; std::allocator<ChaosTalisman>::allocate
PUBLIC	??0?$vector@UChaosTalisman@@V?$allocator@UChaosTalisman@@@std@@@std@@QAE@ABV01@@Z ; std::vector<ChaosTalisman,std::allocator<ChaosTalisman> >::vector<ChaosTalisman,std::allocator<ChaosTalisman> >
PUBLIC	?_Reallocate@?$vector@UChaosTalisman@@V?$allocator@UChaosTalisman@@@std@@@std@@IAEXI@Z ; std::vector<ChaosTalisman,std::allocator<ChaosTalisman> >::_Reallocate
PUBLIC	?_Tidy@?$vector@UChaosTalisman@@V?$allocator@UChaosTalisman@@@std@@@std@@IAEXXZ ; std::vector<ChaosTalisman,std::allocator<ChaosTalisman> >::_Tidy
PUBLIC	??1ChaosCombination@@QAE@XZ			; ChaosCombination::~ChaosCombination
PUBLIC	??0ChaosCombination@@QAE@$$QAU0@@Z		; ChaosCombination::ChaosCombination
PUBLIC	??0ChaosRecipe@@QAE@F@Z				; ChaosRecipe::ChaosRecipe
PUBLIC	??1ChaosRecipe@@UAE@XZ				; ChaosRecipe::~ChaosRecipe
PUBLIC	?Init@ChaosRecipe@@QAEXXZ			; ChaosRecipe::Init
PUBLIC	?Read@ChaosRecipe@@QAE_NPAD@Z			; ChaosRecipe::Read
PUBLIC	?ActStart@ChaosRecipe@@SAXPAUOBJECTSTRUCT@@PAV1@PAUChaosCombination@@@Z ; ChaosRecipe::ActStart
PUBLIC	?ActCheck@ChaosRecipe@@SA_NPAUOBJECTSTRUCT@@PAV1@PAUChaosCombination@@@Z ; ChaosRecipe::ActCheck
PUBLIC	?ActFail@ChaosRecipe@@SAXPAUOBJECTSTRUCT@@PAV1@PAUChaosCombination@@@Z ; ChaosRecipe::ActFail
PUBLIC	?ActFail@ChaosRecipe@@SAXPAUOBJECTSTRUCT@@PAV1@PAUChaosCombination@@E@Z ; ChaosRecipe::ActFail
PUBLIC	?ActSuccess@ChaosRecipe@@SAXPAUOBJECTSTRUCT@@PAV1@PAUChaosCombination@@PAUChaosProduce@@@Z ; ChaosRecipe::ActSuccess
PUBLIC	?CheckIngredient@ChaosRecipe@@SA_NPAUOBJECTSTRUCT@@FPAUChaosIngredient@@@Z ; ChaosRecipe::CheckIngredient
PUBLIC	?CheckTalisman@ChaosRecipe@@SA_NPAUOBJECTSTRUCT@@FPAUChaosTalisman@@@Z ; ChaosRecipe::CheckTalisman
PUBLIC	?ApplyTalisman@ChaosRecipe@@SA_NPAUOBJECTSTRUCT@@FPAV1@PAUChaosCombination@@PAUChaosTalisman@@@Z ; ChaosRecipe::ApplyTalisman
PUBLIC	?deallocate@?$allocator@UChaosCombination@@@std@@QAEXPAUChaosCombination@@I@Z ; std::allocator<ChaosCombination>::deallocate
PUBLIC	?allocate@?$allocator@UChaosCombination@@@std@@QAEPAUChaosCombination@@I@Z ; std::allocator<ChaosCombination>::allocate
PUBLIC	?_Reallocate@?$vector@UChaosCombination@@V?$allocator@UChaosCombination@@@std@@@std@@IAEXI@Z ; std::vector<ChaosCombination,std::allocator<ChaosCombination> >::_Reallocate
PUBLIC	?_Reserve@?$vector@UChaosCombination@@V?$allocator@UChaosCombination@@@std@@@std@@IAEXI@Z ; std::vector<ChaosCombination,std::allocator<ChaosCombination> >::_Reserve
PUBLIC	?_Tidy@?$vector@UChaosCombination@@V?$allocator@UChaosCombination@@@std@@@std@@IAEXXZ ; std::vector<ChaosCombination,std::allocator<ChaosCombination> >::_Tidy
PUBLIC	??_GChaosRecipe@@UAEPAXI@Z			; ChaosRecipe::`scalar deleting destructor'
PUBLIC	??0ChaosMachineManager@@QAE@XZ			; ChaosMachineManager::ChaosMachineManager
PUBLIC	??1ChaosMachineManager@@UAE@XZ			; ChaosMachineManager::~ChaosMachineManager
PUBLIC	?Init@ChaosMachineManager@@QAEXXZ		; ChaosMachineManager::Init
PUBLIC	?Load@ChaosMachineManager@@QAEXXZ		; ChaosMachineManager::Load
PUBLIC	?Read@ChaosMachineManager@@QAEXPAD@Z		; ChaosMachineManager::Read
PUBLIC	?StartMix@ChaosMachineManager@@QAE_NPAUOBJECTSTRUCT@@F@Z ; ChaosMachineManager::StartMix
PUBLIC	?allocate@?$allocator@PAVChaosRecipe@@@std@@QAEPAPAVChaosRecipe@@I@Z ; std::allocator<ChaosRecipe *>::allocate
PUBLIC	?deallocate@?$_Wrap_alloc@V?$allocator@PAVChaosRecipe@@@std@@@std@@QAEXPAPAVChaosRecipe@@I@Z ; std::_Wrap_alloc<std::allocator<ChaosRecipe *> >::deallocate
PUBLIC	?_Reallocate@?$vector@PAVChaosRecipe@@V?$allocator@PAVChaosRecipe@@@std@@@std@@IAEXI@Z ; std::vector<ChaosRecipe *,std::allocator<ChaosRecipe *> >::_Reallocate
PUBLIC	?_Reserve@?$vector@PAVChaosRecipe@@V?$allocator@PAVChaosRecipe@@@std@@@std@@IAEXI@Z ; std::vector<ChaosRecipe *,std::allocator<ChaosRecipe *> >::_Reserve
PUBLIC	??_GChaosMachineManager@@UAEPAXI@Z		; ChaosMachineManager::`scalar deleting destructor'
PUBLIC	??$_Uninit_move@PAUChaosCombination@@PAU1@V?$allocator@UChaosCombination@@@std@@U1@@std@@YAPAUChaosCombination@@PAU1@00AAU?$_Wrap_alloc@V?$allocator@UChaosCombination@@@std@@@0@0U_Nonscalar_ptr_iterator_tag@0@@Z ; std::_Uninit_move<ChaosCombination *,ChaosCombination *,std::allocator<ChaosCombination>,ChaosCombination>
PUBLIC	??$_Uninit_move@PAUChaosTalisman@@PAU1@V?$allocator@UChaosTalisman@@@std@@U1@@std@@YAPAUChaosTalisman@@PAU1@00AAU?$_Wrap_alloc@V?$allocator@UChaosTalisman@@@std@@@0@0U_Nonscalar_ptr_iterator_tag@0@@Z ; std::_Uninit_move<ChaosTalisman *,ChaosTalisman *,std::allocator<ChaosTalisman>,ChaosTalisman>
PUBLIC	??$_Uninit_move@PAUChaosProduce@@PAU1@V?$allocator@UChaosProduce@@@std@@U1@@std@@YAPAUChaosProduce@@PAU1@00AAU?$_Wrap_alloc@V?$allocator@UChaosProduce@@@std@@@0@0U_Nonscalar_ptr_iterator_tag@0@@Z ; std::_Uninit_move<ChaosProduce *,ChaosProduce *,std::allocator<ChaosProduce>,ChaosProduce>
PUBLIC	??$_Uninit_move@PAUChaosIngredient@@PAU1@V?$allocator@UChaosIngredient@@@std@@U1@@std@@YAPAUChaosIngredient@@PAU1@00AAU?$_Wrap_alloc@V?$allocator@UChaosIngredient@@@std@@@0@0U_Nonscalar_ptr_iterator_tag@0@@Z ; std::_Uninit_move<ChaosIngredient *,ChaosIngredient *,std::allocator<ChaosIngredient>,ChaosIngredient>
PUBLIC	??$_Uninit_copy@PBUChaosTalisman@@PAU1@V?$allocator@UChaosTalisman@@@std@@@std@@YAPAUChaosTalisman@@PBU1@0PAU1@AAU?$_Wrap_alloc@V?$allocator@UChaosTalisman@@@std@@@0@U_Nonscalar_ptr_iterator_tag@0@@Z ; std::_Uninit_copy<ChaosTalisman const *,ChaosTalisman *,std::allocator<ChaosTalisman> >
PUBLIC	??$_Uninit_copy@PBUChaosProduce@@PAU1@V?$allocator@UChaosProduce@@@std@@@std@@YAPAUChaosProduce@@PBU1@0PAU1@AAU?$_Wrap_alloc@V?$allocator@UChaosProduce@@@std@@@0@U_Nonscalar_ptr_iterator_tag@0@@Z ; std::_Uninit_copy<ChaosProduce const *,ChaosProduce *,std::allocator<ChaosProduce> >
PUBLIC	??$_Uninit_copy@PBUChaosIngredient@@PAU1@V?$allocator@UChaosIngredient@@@std@@@std@@YAPAUChaosIngredient@@PBU1@0PAU1@AAU?$_Wrap_alloc@V?$allocator@UChaosIngredient@@@std@@@0@U_Nonscalar_ptr_iterator_tag@0@@Z ; std::_Uninit_copy<ChaosIngredient const *,ChaosIngredient *,std::allocator<ChaosIngredient> >
PUBLIC	?_OptionsStorage@?1??__local_stdio_printf_options@@9@4_KA ; `__local_stdio_printf_options'::`2'::_OptionsStorage
PUBLIC	??_C@_00CNPNBAHC@?$AA@				; `string'
PUBLIC	??_7ChaosRecipe@@6B@				; ChaosRecipe::`vftable'
PUBLIC	??_7ChaosMachineManager@@6B@			; ChaosMachineManager::`vftable'
PUBLIC	?g_ChaosMachineManager@@3VChaosMachineManager@@A ; g_ChaosMachineManager
PUBLIC	??_C@_0CB@OIBDNLKG@?$FLChaosRecipe?$FN?5File?5?$CFs?5not?5found?$CB@ ; `string'
PUBLIC	??_C@_06JFJKDNMM@recipe?$AA@			; `string'
PUBLIC	??_C@_04MEMAJGDJ@name?$AA@			; `string'
PUBLIC	??_C@_0M@GLEKKHBB@combination?$AA@		; `string'
PUBLIC	??_C@_05IKCNOJAA@money?$AA@			; `string'
PUBLIC	??_C@_0M@IEHCPBJG@successrate?$AA@		; `string'
PUBLIC	??_C@_0M@MLNFCMGC@ingredients?$AA@		; `string'
PUBLIC	??_C@_04NHONDGDE@item?$AA@			; `string'
PUBLIC	??_C@_09NFPELJA@starttype?$AA@			; `string'
PUBLIC	??_C@_0L@KFBHKFOO@startindex?$AA@		; `string'
PUBLIC	??_C@_07BMCEKKBG@endtype?$AA@			; `string'
PUBLIC	??_C@_08KBNNPIBK@endindex?$AA@			; `string'
PUBLIC	??_C@_08EHBDOELG@minlevel?$AA@			; `string'
PUBLIC	??_C@_08JAPIFGPH@maxlevel?$AA@			; `string'
PUBLIC	??_C@_09IJJIJIEA@minoption?$AA@			; `string'
PUBLIC	??_C@_09IIJEACPE@maxoption?$AA@			; `string'
PUBLIC	??_C@_06HKHMELIB@mindur?$AA@			; `string'
PUBLIC	??_C@_06HJIPKLMO@maxdur?$AA@			; `string'
PUBLIC	??_C@_08GAAOJGJE@mincount?$AA@			; `string'
PUBLIC	??_C@_08LHOFCENF@maxcount?$AA@			; `string'
PUBLIC	??_C@_03FJEPELFP@tag?$AA@			; `string'
PUBLIC	??_C@_09BIHAALKE@talismans?$AA@			; `string'
PUBLIC	??_C@_07CBPKNJKO@addrate?$AA@			; `string'
PUBLIC	??_C@_08JCJAEOLJ@countmax?$AA@			; `string'
PUBLIC	??_C@_08LLBENLIF@produces?$AA@			; `string'
PUBLIC	??_C@_04GPMDFGEJ@type?$AA@			; `string'
PUBLIC	??_C@_05FKHKFDID@index?$AA@			; `string'
PUBLIC	??_C@_05ODMCMJAJ@skill?$AA@			; `string'
PUBLIC	??_C@_04PFGGAFBF@luck?$AA@			; `string'
PUBLIC	??_C@_06PHMKFIKK@excmin?$AA@			; `string'
PUBLIC	??_C@_06OFEBLMMF@excmax?$AA@			; `string'
PUBLIC	??_C@_07ECLFICCK@ancient?$AA@			; `string'
PUBLIC	??_C@_07NAEKCIBJ@sockmin?$AA@			; `string'
PUBLIC	??_C@_07MCMBMMHG@sockmax?$AA@			; `string'
PUBLIC	??_C@_03CFMMPBHI@dur?$AA@			; `string'
PUBLIC	??_C@_0BK@MOHJAGJL@?$FLDEBUG?$FN?5Produce?5not?5found?$AA@ ; `string'
PUBLIC	??_C@_0FH@DKECJBFG@?$FLChaosRecipe?$FN?5?$FL?$CFs?$FN?5?$FL?$CFs?$FN?5Combinat@ ; `string'
PUBLIC	??_C@_0FJ@KAPJAEMF@?$FLChaosRecipe?$FN?5?$FL?$CFs?$FN?5?$FL?$CFs?$FN?5?$CIWarning@ ; `string'
PUBLIC	??_C@_0FK@LEKIOLJM@?$FLChaosRecipe?$FN?5?$FL?$CFs?$FN?5?$FL?$CFs?$FN?5?$CIWarning@ ; `string'
PUBLIC	??_C@_0FK@KGAONIOC@?$FLChaosRecipe?$FN?5?$FL?$CFs?$FN?5?$FL?$CFs?$FN?5Combinat@ ; `string'
PUBLIC	??_C@_0GP@EHBDBLN@?$FLChaosRecipe?$FN?5?$FL?$CFs?$FN?5?$FL?$CFs?$FN?5Talisman@ ; `string'
PUBLIC	??_C@_0BB@KDPIIDEC@ChaosMachine?4xml?$AA@	; `string'
PUBLIC	??_C@_0CJ@LAHKNGEO@?$FLChaosMachineManager?$FN?5File?5?$CFs?5no@ ; `string'
PUBLIC	??_C@_0N@EIJEIOAM@chaosmachine?$AA@		; `string'
PUBLIC	??_C@_07CPGEFLFI@mixlist?$AA@			; `string'
PUBLIC	??_C@_0O@FAGFDAIG@ChaosMachine?2?$AA@		; `string'
PUBLIC	??_C@_04HDOCAJNK@?$CFs?$CFs?$AA@		; `string'
PUBLIC	??_C@_0CG@JMMLLFJJ@?$FLDEBUG?$FN?5Wrong?5range?5?$CI?$CFd?3?$CFd?0?5?$CFd?1?$CF@ ; `string'
PUBLIC	??_C@_0BO@DJENMCEL@?$FLDEBUG?$FN?5Combination?5not?5found?$AA@ ; `string'
PUBLIC	??_C@_0CB@PFOPGAIL@?$FLDEBUG?$FN?5Produces?5list?5not?5filled@ ; `string'
PUBLIC	??_C@_0BD@OLBABOEK@vector?$DMT?$DO?5too?5long?$AA@ ; `string'
PUBLIC	??_R4ChaosRecipe@@6B@				; ChaosRecipe::`RTTI Complete Object Locator'
PUBLIC	??_R0?AVChaosRecipe@@@8				; ChaosRecipe `RTTI Type Descriptor'
PUBLIC	??_R3ChaosRecipe@@8				; ChaosRecipe::`RTTI Class Hierarchy Descriptor'
PUBLIC	??_R2ChaosRecipe@@8				; ChaosRecipe::`RTTI Base Class Array'
PUBLIC	??_R1A@?0A@EA@ChaosRecipe@@8			; ChaosRecipe::`RTTI Base Class Descriptor at (0,-1,0,64)'
PUBLIC	??_R4ChaosMachineManager@@6B@			; ChaosMachineManager::`RTTI Complete Object Locator'
PUBLIC	??_R0?AVChaosMachineManager@@@8			; ChaosMachineManager `RTTI Type Descriptor'
PUBLIC	??_R3ChaosMachineManager@@8			; ChaosMachineManager::`RTTI Class Hierarchy Descriptor'
PUBLIC	??_R2ChaosMachineManager@@8			; ChaosMachineManager::`RTTI Base Class Array'
PUBLIC	??_R1A@?0A@EA@ChaosMachineManager@@8		; ChaosMachineManager::`RTTI Base Class Descriptor at (0,-1,0,64)'
PUBLIC	__real@00000000
EXTRN	??_M@YGXPAXIIP6EX0@Z@Z:PROC			; `eh vector destructor iterator'
EXTRN	??2@YAPAXI@Z:PROC				; operator new
EXTRN	??3@YAXPAX@Z:PROC				; operator delete
EXTRN	??3@YAXPAXI@Z:PROC				; operator delete
EXTRN	??_V@YAXPAXI@Z:PROC				; operator delete[]
EXTRN	_atexit:PROC
EXTRN	__invalid_parameter_noinfo_noreturn:PROC
EXTRN	_memmove:PROC
EXTRN	_strncpy:PROC
EXTRN	___stdio_common_vsprintf:PROC
EXTRN	_rand:PROC
EXTRN	?_Xbad_alloc@std@@YAXXZ:PROC			; std::_Xbad_alloc
EXTRN	?_Xlength_error@std@@YAXPBD@Z:PROC		; std::_Xlength_error
EXTRN	?IsItem@CItem@@QAEHXZ:PROC			; CItem::IsItem
EXTRN	??1CSkillDelay@@UAE@XZ:PROC			; CSkillDelay::~CSkillDelay
EXTRN	?MsgBox@@YAXPADZZ:PROC				; MsgBox
EXTRN	?DataSend@@YAHHPAEK@Z:PROC			; DataSend
EXTRN	??1TMonsterAIAgro@@UAE@XZ:PROC			; TMonsterAIAgro::~TMonsterAIAgro
EXTRN	?GCMoneySend@@YAXHK@Z:PROC			; GCMoneySend
EXTRN	?GCUserChaosBoxSend@@YAXPAUOBJECTSTRUCT@@H@Z:PROC ; GCUserChaosBoxSend
EXTRN	?gObjInventoryCommit@@YAHH@Z:PROC		; gObjInventoryCommit
EXTRN	??_EChaosRecipe@@UAEPAXI@Z:PROC			; ChaosRecipe::`vector deleting destructor'
EXTRN	??_EChaosMachineManager@@UAEPAXI@Z:PROC		; ChaosMachineManager::`vector deleting destructor'
EXTRN	?as_string@xml_attribute@pugi@@QBEPBDPBD@Z:PROC	; pugi::xml_attribute::as_string
EXTRN	?as_int@xml_attribute@pugi@@QBEHH@Z:PROC	; pugi::xml_attribute::as_int
EXTRN	??Bxml_node@pugi@@QBEP6AXPAPAPAV01@@ZXZ:PROC	; pugi::xml_node::operator void (__cdecl*)(pugi::xml_node * * *)
EXTRN	?next_sibling@xml_node@pugi@@QBE?AV12@XZ:PROC	; pugi::xml_node::next_sibling
EXTRN	?text@xml_node@pugi@@QBE?AVxml_text@2@XZ:PROC	; pugi::xml_node::text
EXTRN	?child@xml_node@pugi@@QBE?AV12@PBD@Z:PROC	; pugi::xml_node::child
EXTRN	?attribute@xml_node@pugi@@QBE?AVxml_attribute@2@PBD@Z:PROC ; pugi::xml_node::attribute
EXTRN	?as_string@xml_text@pugi@@QBEPBDPBD@Z:PROC	; pugi::xml_text::as_string
EXTRN	?as_int@xml_text@pugi@@QBEHH@Z:PROC		; pugi::xml_text::as_int
EXTRN	??0xml_document@pugi@@QAE@XZ:PROC		; pugi::xml_document::xml_document
EXTRN	??1xml_document@pugi@@QAE@XZ:PROC		; pugi::xml_document::~xml_document
EXTRN	?load_file@xml_document@pugi@@QAE?AUxml_parse_result@2@PBDIW4xml_encoding@2@@Z:PROC ; pugi::xml_document::load_file
EXTRN	?GetNewPath@CDirPath@@QAEPADPAD@Z:PROC		; CDirPath::GetNewPath
EXTRN	?ItemSerialCreateSend@@YAXHEEEHEEEEEHEEEPAE@Z:PROC ; ItemSerialCreateSend
EXTRN	?PHeadSetB@@YAXPAEEH@Z:PROC			; PHeadSetB
EXTRN	?ChaosBoxInit@CChaosBox@@QAEHPAUOBJECTSTRUCT@@@Z:PROC ; CChaosBox::ChaosBoxInit
EXTRN	@__security_check_cookie@4:PROC
EXTRN	__CxxThrowException@8:PROC
EXTRN	___CxxFrameHandler3:PROC
EXTRN	_memset:PROC
EXTRN	??_7type_info@@6B@:QWORD			; type_info::`vftable'
EXTRN	?LogAddC@@3P6AXEPADZZA:DWORD			; LogAddC
EXTRN	?LogAddTD@@3P6AXPADZZA:DWORD			; LogAddTD
EXTRN	?gDirPath@@3VCDirPath@@A:BYTE			; gDirPath
EXTRN	?g_ChaosBox@@3VCChaosBox@@A:BYTE		; g_ChaosBox
EXTRN	___security_cookie:DWORD
EXTRN	__fltused:DWORD
;	COMDAT ?_OptionsStorage@?1??__local_stdio_printf_options@@9@4_KA
_BSS	SEGMENT
?_OptionsStorage@?1??__local_stdio_printf_options@@9@4_KA DQ 01H DUP (?) ; `__local_stdio_printf_options'::`2'::_OptionsStorage
_BSS	ENDS
_BSS	SEGMENT
?g_ChaosMachineManager@@3VChaosMachineManager@@A DB 010H DUP (?) ; g_ChaosMachineManager
_BSS	ENDS
CRT$XCU	SEGMENT
?g_ChaosMachineManager$initializer$@@3P6AXXZA DD FLAT:??__Eg_ChaosMachineManager@@YAXXZ ; g_ChaosMachineManager$initializer$
CRT$XCU	ENDS
;	COMDAT __real@00000000
CONST	SEGMENT
__real@00000000 DD 000000000r			; 0
CONST	ENDS
;	COMDAT ??_R1A@?0A@EA@ChaosMachineManager@@8
rdata$r	SEGMENT
??_R1A@?0A@EA@ChaosMachineManager@@8 DD FLAT:??_R0?AVChaosMachineManager@@@8 ; ChaosMachineManager::`RTTI Base Class Descriptor at (0,-1,0,64)'
	DD	00H
	DD	00H
	DD	0ffffffffH
	DD	00H
	DD	040H
	DD	FLAT:??_R3ChaosMachineManager@@8
rdata$r	ENDS
;	COMDAT ??_R2ChaosMachineManager@@8
rdata$r	SEGMENT
??_R2ChaosMachineManager@@8 DD FLAT:??_R1A@?0A@EA@ChaosMachineManager@@8 ; ChaosMachineManager::`RTTI Base Class Array'
rdata$r	ENDS
;	COMDAT ??_R3ChaosMachineManager@@8
rdata$r	SEGMENT
??_R3ChaosMachineManager@@8 DD 00H			; ChaosMachineManager::`RTTI Class Hierarchy Descriptor'
	DD	00H
	DD	01H
	DD	FLAT:??_R2ChaosMachineManager@@8
rdata$r	ENDS
;	COMDAT ??_R0?AVChaosMachineManager@@@8
data$r	SEGMENT
??_R0?AVChaosMachineManager@@@8 DD FLAT:??_7type_info@@6B@ ; ChaosMachineManager `RTTI Type Descriptor'
	DD	00H
	DB	'.?AVChaosMachineManager@@', 00H
data$r	ENDS
;	COMDAT ??_R4ChaosMachineManager@@6B@
rdata$r	SEGMENT
??_R4ChaosMachineManager@@6B@ DD 00H			; ChaosMachineManager::`RTTI Complete Object Locator'
	DD	00H
	DD	00H
	DD	FLAT:??_R0?AVChaosMachineManager@@@8
	DD	FLAT:??_R3ChaosMachineManager@@8
rdata$r	ENDS
;	COMDAT ??_R1A@?0A@EA@ChaosRecipe@@8
rdata$r	SEGMENT
??_R1A@?0A@EA@ChaosRecipe@@8 DD FLAT:??_R0?AVChaosRecipe@@@8 ; ChaosRecipe::`RTTI Base Class Descriptor at (0,-1,0,64)'
	DD	00H
	DD	00H
	DD	0ffffffffH
	DD	00H
	DD	040H
	DD	FLAT:??_R3ChaosRecipe@@8
rdata$r	ENDS
;	COMDAT ??_R2ChaosRecipe@@8
rdata$r	SEGMENT
??_R2ChaosRecipe@@8 DD FLAT:??_R1A@?0A@EA@ChaosRecipe@@8 ; ChaosRecipe::`RTTI Base Class Array'
rdata$r	ENDS
;	COMDAT ??_R3ChaosRecipe@@8
rdata$r	SEGMENT
??_R3ChaosRecipe@@8 DD 00H				; ChaosRecipe::`RTTI Class Hierarchy Descriptor'
	DD	00H
	DD	01H
	DD	FLAT:??_R2ChaosRecipe@@8
rdata$r	ENDS
;	COMDAT ??_R0?AVChaosRecipe@@@8
data$r	SEGMENT
??_R0?AVChaosRecipe@@@8 DD FLAT:??_7type_info@@6B@	; ChaosRecipe `RTTI Type Descriptor'
	DD	00H
	DB	'.?AVChaosRecipe@@', 00H
data$r	ENDS
;	COMDAT ??_R4ChaosRecipe@@6B@
rdata$r	SEGMENT
??_R4ChaosRecipe@@6B@ DD 00H				; ChaosRecipe::`RTTI Complete Object Locator'
	DD	00H
	DD	00H
	DD	FLAT:??_R0?AVChaosRecipe@@@8
	DD	FLAT:??_R3ChaosRecipe@@8
rdata$r	ENDS
;	COMDAT ??_C@_0BD@OLBABOEK@vector?$DMT?$DO?5too?5long?$AA@
CONST	SEGMENT
??_C@_0BD@OLBABOEK@vector?$DMT?$DO?5too?5long?$AA@ DB 'vector<T> too long'
	DB	00H						; `string'
CONST	ENDS
;	COMDAT ??_C@_0CB@PFOPGAIL@?$FLDEBUG?$FN?5Produces?5list?5not?5filled@
CONST	SEGMENT
??_C@_0CB@PFOPGAIL@?$FLDEBUG?$FN?5Produces?5list?5not?5filled@ DB '[DEBUG'
	DB	'] Produces list not filled', 00H		; `string'
CONST	ENDS
;	COMDAT ??_C@_0BO@DJENMCEL@?$FLDEBUG?$FN?5Combination?5not?5found?$AA@
CONST	SEGMENT
??_C@_0BO@DJENMCEL@?$FLDEBUG?$FN?5Combination?5not?5found?$AA@ DB '[DEBUG'
	DB	'] Combination not found', 00H		; `string'
CONST	ENDS
;	COMDAT ??_C@_0CG@JMMLLFJJ@?$FLDEBUG?$FN?5Wrong?5range?5?$CI?$CFd?3?$CFd?0?5?$CFd?1?$CF@
CONST	SEGMENT
??_C@_0CG@JMMLLFJJ@?$FLDEBUG?$FN?5Wrong?5range?5?$CI?$CFd?3?$CFd?0?5?$CFd?1?$CF@ DB '['
	DB	'DEBUG] Wrong range (%d:%d, %d/%d:%d)', 00H	; `string'
CONST	ENDS
;	COMDAT ??_C@_04HDOCAJNK@?$CFs?$CFs?$AA@
CONST	SEGMENT
??_C@_04HDOCAJNK@?$CFs?$CFs?$AA@ DB '%s%s', 00H		; `string'
CONST	ENDS
;	COMDAT ??_C@_0O@FAGFDAIG@ChaosMachine?2?$AA@
CONST	SEGMENT
??_C@_0O@FAGFDAIG@ChaosMachine?2?$AA@ DB 'ChaosMachine\', 00H ; `string'
CONST	ENDS
;	COMDAT ??_C@_07CPGEFLFI@mixlist?$AA@
CONST	SEGMENT
??_C@_07CPGEFLFI@mixlist?$AA@ DB 'mixlist', 00H		; `string'
CONST	ENDS
;	COMDAT ??_C@_0N@EIJEIOAM@chaosmachine?$AA@
CONST	SEGMENT
??_C@_0N@EIJEIOAM@chaosmachine?$AA@ DB 'chaosmachine', 00H ; `string'
CONST	ENDS
;	COMDAT ??_C@_0CJ@LAHKNGEO@?$FLChaosMachineManager?$FN?5File?5?$CFs?5no@
CONST	SEGMENT
??_C@_0CJ@LAHKNGEO@?$FLChaosMachineManager?$FN?5File?5?$CFs?5no@ DB '[Cha'
	DB	'osMachineManager] File %s not found!', 00H	; `string'
CONST	ENDS
;	COMDAT ??_C@_0BB@KDPIIDEC@ChaosMachine?4xml?$AA@
CONST	SEGMENT
??_C@_0BB@KDPIIDEC@ChaosMachine?4xml?$AA@ DB 'ChaosMachine.xml', 00H ; `string'
CONST	ENDS
;	COMDAT ??_C@_0GP@EHBDBLN@?$FLChaosRecipe?$FN?5?$FL?$CFs?$FN?5?$FL?$CFs?$FN?5Talisman@
CONST	SEGMENT
??_C@_0GP@EHBDBLN@?$FLChaosRecipe?$FN?5?$FL?$CFs?$FN?5?$FL?$CFs?$FN?5Talisman@ DB '['
	DB	'ChaosRecipe] [%s] [%s] Talisman has been applied (Recipe: %s,'
	DB	' Combination: %s, Talisman: %d-%d, Increase: %d)', 00H ; `string'
CONST	ENDS
;	COMDAT ??_C@_0FK@KGAONIOC@?$FLChaosRecipe?$FN?5?$FL?$CFs?$FN?5?$FL?$CFs?$FN?5Combinat@
CONST	SEGMENT
??_C@_0FK@KGAONIOC@?$FLChaosRecipe?$FN?5?$FL?$CFs?$FN?5?$FL?$CFs?$FN?5Combinat@ DB '['
	DB	'ChaosRecipe] [%s] [%s] Combination has succeeded (Recipe: %s,'
	DB	' Combination: %s, Rate: %d)', 00H		; `string'
CONST	ENDS
;	COMDAT ??_C@_0FK@LEKIOLJM@?$FLChaosRecipe?$FN?5?$FL?$CFs?$FN?5?$FL?$CFs?$FN?5?$CIWarning@
CONST	SEGMENT
??_C@_0FK@LEKIOLJM@?$FLChaosRecipe?$FN?5?$FL?$CFs?$FN?5?$FL?$CFs?$FN?5?$CIWarning@ DB '['
	DB	'ChaosRecipe] [%s] [%s] (Warning) Produce have wrong option (R'
	DB	'ecipe: %s, Combination: %s)', 00H		; `string'
CONST	ENDS
;	COMDAT ??_C@_0FJ@KAPJAEMF@?$FLChaosRecipe?$FN?5?$FL?$CFs?$FN?5?$FL?$CFs?$FN?5?$CIWarning@
CONST	SEGMENT
??_C@_0FJ@KAPJAEMF@?$FLChaosRecipe?$FN?5?$FL?$CFs?$FN?5?$FL?$CFs?$FN?5?$CIWarning@ DB '['
	DB	'ChaosRecipe] [%s] [%s] (Warning) Produce have wrong level (Re'
	DB	'cipe: %s, Combination: %s)', 00H		; `string'
CONST	ENDS
;	COMDAT ??_C@_0FH@DKECJBFG@?$FLChaosRecipe?$FN?5?$FL?$CFs?$FN?5?$FL?$CFs?$FN?5Combinat@
CONST	SEGMENT
??_C@_0FH@DKECJBFG@?$FLChaosRecipe?$FN?5?$FL?$CFs?$FN?5?$FL?$CFs?$FN?5Combinat@ DB '['
	DB	'ChaosRecipe] [%s] [%s] Combination has failed (Recipe: %s, Co'
	DB	'mbination: %s, Rate: %d)', 00H		; `string'
CONST	ENDS
;	COMDAT ??_C@_0BK@MOHJAGJL@?$FLDEBUG?$FN?5Produce?5not?5found?$AA@
CONST	SEGMENT
??_C@_0BK@MOHJAGJL@?$FLDEBUG?$FN?5Produce?5not?5found?$AA@ DB '[DEBUG] Pr'
	DB	'oduce not found', 00H			; `string'
CONST	ENDS
;	COMDAT ??_C@_03CFMMPBHI@dur?$AA@
CONST	SEGMENT
??_C@_03CFMMPBHI@dur?$AA@ DB 'dur', 00H			; `string'
CONST	ENDS
;	COMDAT ??_C@_07MCMBMMHG@sockmax?$AA@
CONST	SEGMENT
??_C@_07MCMBMMHG@sockmax?$AA@ DB 'sockmax', 00H		; `string'
CONST	ENDS
;	COMDAT ??_C@_07NAEKCIBJ@sockmin?$AA@
CONST	SEGMENT
??_C@_07NAEKCIBJ@sockmin?$AA@ DB 'sockmin', 00H		; `string'
CONST	ENDS
;	COMDAT ??_C@_07ECLFICCK@ancient?$AA@
CONST	SEGMENT
??_C@_07ECLFICCK@ancient?$AA@ DB 'ancient', 00H		; `string'
CONST	ENDS
;	COMDAT ??_C@_06OFEBLMMF@excmax?$AA@
CONST	SEGMENT
??_C@_06OFEBLMMF@excmax?$AA@ DB 'excmax', 00H		; `string'
CONST	ENDS
;	COMDAT ??_C@_06PHMKFIKK@excmin?$AA@
CONST	SEGMENT
??_C@_06PHMKFIKK@excmin?$AA@ DB 'excmin', 00H		; `string'
CONST	ENDS
;	COMDAT ??_C@_04PFGGAFBF@luck?$AA@
CONST	SEGMENT
??_C@_04PFGGAFBF@luck?$AA@ DB 'luck', 00H		; `string'
CONST	ENDS
;	COMDAT ??_C@_05ODMCMJAJ@skill?$AA@
CONST	SEGMENT
??_C@_05ODMCMJAJ@skill?$AA@ DB 'skill', 00H		; `string'
CONST	ENDS
;	COMDAT ??_C@_05FKHKFDID@index?$AA@
CONST	SEGMENT
??_C@_05FKHKFDID@index?$AA@ DB 'index', 00H		; `string'
CONST	ENDS
;	COMDAT ??_C@_04GPMDFGEJ@type?$AA@
CONST	SEGMENT
??_C@_04GPMDFGEJ@type?$AA@ DB 'type', 00H		; `string'
CONST	ENDS
;	COMDAT ??_C@_08LLBENLIF@produces?$AA@
CONST	SEGMENT
??_C@_08LLBENLIF@produces?$AA@ DB 'produces', 00H	; `string'
CONST	ENDS
;	COMDAT ??_C@_08JCJAEOLJ@countmax?$AA@
CONST	SEGMENT
??_C@_08JCJAEOLJ@countmax?$AA@ DB 'countmax', 00H	; `string'
CONST	ENDS
;	COMDAT ??_C@_07CBPKNJKO@addrate?$AA@
CONST	SEGMENT
??_C@_07CBPKNJKO@addrate?$AA@ DB 'addrate', 00H		; `string'
CONST	ENDS
;	COMDAT ??_C@_09BIHAALKE@talismans?$AA@
CONST	SEGMENT
??_C@_09BIHAALKE@talismans?$AA@ DB 'talismans', 00H	; `string'
CONST	ENDS
;	COMDAT ??_C@_03FJEPELFP@tag?$AA@
CONST	SEGMENT
??_C@_03FJEPELFP@tag?$AA@ DB 'tag', 00H			; `string'
CONST	ENDS
;	COMDAT ??_C@_08LHOFCENF@maxcount?$AA@
CONST	SEGMENT
??_C@_08LHOFCENF@maxcount?$AA@ DB 'maxcount', 00H	; `string'
CONST	ENDS
;	COMDAT ??_C@_08GAAOJGJE@mincount?$AA@
CONST	SEGMENT
??_C@_08GAAOJGJE@mincount?$AA@ DB 'mincount', 00H	; `string'
CONST	ENDS
;	COMDAT ??_C@_06HJIPKLMO@maxdur?$AA@
CONST	SEGMENT
??_C@_06HJIPKLMO@maxdur?$AA@ DB 'maxdur', 00H		; `string'
CONST	ENDS
;	COMDAT ??_C@_06HKHMELIB@mindur?$AA@
CONST	SEGMENT
??_C@_06HKHMELIB@mindur?$AA@ DB 'mindur', 00H		; `string'
CONST	ENDS
;	COMDAT ??_C@_09IIJEACPE@maxoption?$AA@
CONST	SEGMENT
??_C@_09IIJEACPE@maxoption?$AA@ DB 'maxoption', 00H	; `string'
CONST	ENDS
;	COMDAT ??_C@_09IJJIJIEA@minoption?$AA@
CONST	SEGMENT
??_C@_09IJJIJIEA@minoption?$AA@ DB 'minoption', 00H	; `string'
CONST	ENDS
;	COMDAT ??_C@_08JAPIFGPH@maxlevel?$AA@
CONST	SEGMENT
??_C@_08JAPIFGPH@maxlevel?$AA@ DB 'maxlevel', 00H	; `string'
CONST	ENDS
;	COMDAT ??_C@_08EHBDOELG@minlevel?$AA@
CONST	SEGMENT
??_C@_08EHBDOELG@minlevel?$AA@ DB 'minlevel', 00H	; `string'
CONST	ENDS
;	COMDAT ??_C@_08KBNNPIBK@endindex?$AA@
CONST	SEGMENT
??_C@_08KBNNPIBK@endindex?$AA@ DB 'endindex', 00H	; `string'
CONST	ENDS
;	COMDAT ??_C@_07BMCEKKBG@endtype?$AA@
CONST	SEGMENT
??_C@_07BMCEKKBG@endtype?$AA@ DB 'endtype', 00H		; `string'
CONST	ENDS
;	COMDAT ??_C@_0L@KFBHKFOO@startindex?$AA@
CONST	SEGMENT
??_C@_0L@KFBHKFOO@startindex?$AA@ DB 'startindex', 00H	; `string'
CONST	ENDS
;	COMDAT ??_C@_09NFPELJA@starttype?$AA@
CONST	SEGMENT
??_C@_09NFPELJA@starttype?$AA@ DB 'starttype', 00H	; `string'
CONST	ENDS
;	COMDAT ??_C@_04NHONDGDE@item?$AA@
CONST	SEGMENT
??_C@_04NHONDGDE@item?$AA@ DB 'item', 00H		; `string'
CONST	ENDS
;	COMDAT ??_C@_0M@MLNFCMGC@ingredients?$AA@
CONST	SEGMENT
??_C@_0M@MLNFCMGC@ingredients?$AA@ DB 'ingredients', 00H ; `string'
CONST	ENDS
;	COMDAT ??_C@_0M@IEHCPBJG@successrate?$AA@
CONST	SEGMENT
??_C@_0M@IEHCPBJG@successrate?$AA@ DB 'successrate', 00H ; `string'
CONST	ENDS
;	COMDAT ??_C@_05IKCNOJAA@money?$AA@
CONST	SEGMENT
??_C@_05IKCNOJAA@money?$AA@ DB 'money', 00H		; `string'
CONST	ENDS
;	COMDAT ??_C@_0M@GLEKKHBB@combination?$AA@
CONST	SEGMENT
??_C@_0M@GLEKKHBB@combination?$AA@ DB 'combination', 00H ; `string'
CONST	ENDS
;	COMDAT ??_C@_04MEMAJGDJ@name?$AA@
CONST	SEGMENT
??_C@_04MEMAJGDJ@name?$AA@ DB 'name', 00H		; `string'
CONST	ENDS
;	COMDAT ??_C@_06JFJKDNMM@recipe?$AA@
CONST	SEGMENT
??_C@_06JFJKDNMM@recipe?$AA@ DB 'recipe', 00H		; `string'
CONST	ENDS
;	COMDAT ??_C@_0CB@OIBDNLKG@?$FLChaosRecipe?$FN?5File?5?$CFs?5not?5found?$CB@
CONST	SEGMENT
??_C@_0CB@OIBDNLKG@?$FLChaosRecipe?$FN?5File?5?$CFs?5not?5found?$CB@ DB '['
	DB	'ChaosRecipe] File %s not found!', 00H	; `string'
CONST	ENDS
;	COMDAT ??_7ChaosMachineManager@@6B@
CONST	SEGMENT
??_7ChaosMachineManager@@6B@ DD FLAT:??_R4ChaosMachineManager@@6B@ ; ChaosMachineManager::`vftable'
	DD	FLAT:??_EChaosMachineManager@@UAEPAXI@Z
CONST	ENDS
;	COMDAT ??_7ChaosRecipe@@6B@
CONST	SEGMENT
??_7ChaosRecipe@@6B@ DD FLAT:??_R4ChaosRecipe@@6B@	; ChaosRecipe::`vftable'
	DD	FLAT:??_EChaosRecipe@@UAEPAXI@Z
CONST	ENDS
;	COMDAT ??_C@_00CNPNBAHC@?$AA@
CONST	SEGMENT
??_C@_00CNPNBAHC@?$AA@ DB 00H				; `string'
CONST	ENDS
;	COMDAT xdata$x
xdata$x	SEGMENT
__unwindtable$??$construct@UChaosCombination@@ABU1@@?$allocator@UChaosCombination@@@std@@QAEXPAUChaosCombination@@ABU2@@Z DD 0ffffffffH
	DD	FLAT:__unwindfunclet$??$construct@UChaosCombination@@ABU1@@?$allocator@UChaosCombination@@@std@@QAEXPAUChaosCombination@@ABU2@@Z$0
__ehfuncinfo$??$construct@UChaosCombination@@ABU1@@?$allocator@UChaosCombination@@@std@@QAEXPAUChaosCombination@@ABU2@@Z DD 019930522H
	DD	01H
	DD	FLAT:__unwindtable$??$construct@UChaosCombination@@ABU1@@?$allocator@UChaosCombination@@@std@@QAEXPAUChaosCombination@@ABU2@@Z
	DD	2 DUP(00H)
	DD	2 DUP(00H)
	DD	00H
	DD	01H
xdata$x	ENDS
;	COMDAT xdata$x
xdata$x	SEGMENT
__unwindtable$??$construct@UChaosCombination@@AAU1@@?$allocator@UChaosCombination@@@std@@QAEXPAUChaosCombination@@AAU2@@Z DD 0ffffffffH
	DD	FLAT:__unwindfunclet$??$construct@UChaosCombination@@AAU1@@?$allocator@UChaosCombination@@@std@@QAEXPAUChaosCombination@@AAU2@@Z$0
__ehfuncinfo$??$construct@UChaosCombination@@AAU1@@?$allocator@UChaosCombination@@@std@@QAEXPAUChaosCombination@@AAU2@@Z DD 019930522H
	DD	01H
	DD	FLAT:__unwindtable$??$construct@UChaosCombination@@AAU1@@?$allocator@UChaosCombination@@@std@@QAEXPAUChaosCombination@@AAU2@@Z
	DD	2 DUP(00H)
	DD	2 DUP(00H)
	DD	00H
	DD	01H
xdata$x	ENDS
;	COMDAT xdata$x
xdata$x	SEGMENT
__unwindtable$??$construct@UChaosCombination@@ABU1@@?$allocator_traits@V?$allocator@UChaosCombination@@@std@@@std@@SAXAAV?$allocator@UChaosCombination@@@1@PAUChaosCombination@@ABU3@@Z DD 0ffffffffH
	DD	FLAT:__unwindfunclet$??$construct@UChaosCombination@@ABU1@@?$allocator_traits@V?$allocator@UChaosCombination@@@std@@@std@@SAXAAV?$allocator@UChaosCombination@@@1@PAUChaosCombination@@ABU3@@Z$1
__ehfuncinfo$??$construct@UChaosCombination@@ABU1@@?$allocator_traits@V?$allocator@UChaosCombination@@@std@@@std@@SAXAAV?$allocator@UChaosCombination@@@1@PAUChaosCombination@@ABU3@@Z DD 019930522H
	DD	01H
	DD	FLAT:__unwindtable$??$construct@UChaosCombination@@ABU1@@?$allocator_traits@V?$allocator@UChaosCombination@@@std@@@std@@SAXAAV?$allocator@UChaosCombination@@@1@PAUChaosCombination@@ABU3@@Z
	DD	2 DUP(00H)
	DD	2 DUP(00H)
	DD	00H
	DD	01H
xdata$x	ENDS
;	COMDAT xdata$x
xdata$x	SEGMENT
__unwindtable$??$construct@UChaosCombination@@AAU1@@?$allocator_traits@V?$allocator@UChaosCombination@@@std@@@std@@SAXAAV?$allocator@UChaosCombination@@@1@PAUChaosCombination@@AAU3@@Z DD 0ffffffffH
	DD	FLAT:__unwindfunclet$??$construct@UChaosCombination@@AAU1@@?$allocator_traits@V?$allocator@UChaosCombination@@@std@@@std@@SAXAAV?$allocator@UChaosCombination@@@1@PAUChaosCombination@@AAU3@@Z$1
__ehfuncinfo$??$construct@UChaosCombination@@AAU1@@?$allocator_traits@V?$allocator@UChaosCombination@@@std@@@std@@SAXAAV?$allocator@UChaosCombination@@@1@PAUChaosCombination@@AAU3@@Z DD 019930522H
	DD	01H
	DD	FLAT:__unwindtable$??$construct@UChaosCombination@@AAU1@@?$allocator_traits@V?$allocator@UChaosCombination@@@std@@@std@@SAXAAV?$allocator@UChaosCombination@@@1@PAUChaosCombination@@AAU3@@Z
	DD	2 DUP(00H)
	DD	2 DUP(00H)
	DD	00H
	DD	01H
xdata$x	ENDS
;	COMDAT xdata$x
xdata$x	SEGMENT
__unwindtable$??$construct@UChaosCombination@@ABU1@@?$_Wrap_alloc@V?$allocator@UChaosCombination@@@std@@@std@@QAEXPAUChaosCombination@@ABU2@@Z DD 0ffffffffH
	DD	FLAT:__unwindfunclet$??$construct@UChaosCombination@@ABU1@@?$_Wrap_alloc@V?$allocator@UChaosCombination@@@std@@@std@@QAEXPAUChaosCombination@@ABU2@@Z$2
__ehfuncinfo$??$construct@UChaosCombination@@ABU1@@?$_Wrap_alloc@V?$allocator@UChaosCombination@@@std@@@std@@QAEXPAUChaosCombination@@ABU2@@Z DD 019930522H
	DD	01H
	DD	FLAT:__unwindtable$??$construct@UChaosCombination@@ABU1@@?$_Wrap_alloc@V?$allocator@UChaosCombination@@@std@@@std@@QAEXPAUChaosCombination@@ABU2@@Z
	DD	2 DUP(00H)
	DD	2 DUP(00H)
	DD	00H
	DD	01H
xdata$x	ENDS
;	COMDAT xdata$x
xdata$x	SEGMENT
__unwindtable$??$construct@UChaosCombination@@AAU1@@?$_Wrap_alloc@V?$allocator@UChaosCombination@@@std@@@std@@QAEXPAUChaosCombination@@AAU2@@Z DD 0ffffffffH
	DD	FLAT:__unwindfunclet$??$construct@UChaosCombination@@AAU1@@?$_Wrap_alloc@V?$allocator@UChaosCombination@@@std@@@std@@QAEXPAUChaosCombination@@AAU2@@Z$2
__ehfuncinfo$??$construct@UChaosCombination@@AAU1@@?$_Wrap_alloc@V?$allocator@UChaosCombination@@@std@@@std@@QAEXPAUChaosCombination@@AAU2@@Z DD 019930522H
	DD	01H
	DD	FLAT:__unwindtable$??$construct@UChaosCombination@@AAU1@@?$_Wrap_alloc@V?$allocator@UChaosCombination@@@std@@@std@@QAEXPAUChaosCombination@@AAU2@@Z
	DD	2 DUP(00H)
	DD	2 DUP(00H)
	DD	00H
	DD	01H
xdata$x	ENDS
;	COMDAT xdata$x
xdata$x	SEGMENT
__unwindtable$?Read@ChaosMachineManager@@QAEXPAD@Z DD 0ffffffffH
	DD	FLAT:__unwindfunclet$?Read@ChaosMachineManager@@QAEXPAD@Z$0
	DD	00H
	DD	FLAT:__unwindfunclet$?Read@ChaosMachineManager@@QAEXPAD@Z$1
__ehfuncinfo$?Read@ChaosMachineManager@@QAEXPAD@Z DD 019930522H
	DD	02H
	DD	FLAT:__unwindtable$?Read@ChaosMachineManager@@QAEXPAD@Z
	DD	2 DUP(00H)
	DD	2 DUP(00H)
	DD	00H
	DD	01H
xdata$x	ENDS
;	COMDAT xdata$x
xdata$x	SEGMENT
__catchsym$?_Reallocate@?$vector@UChaosCombination@@V?$allocator@UChaosCombination@@@std@@@std@@IAEXI@Z$55 DD 040H
	DD	00H
	DD	00H
	DD	FLAT:__catch$?_Reallocate@?$vector@UChaosCombination@@V?$allocator@UChaosCombination@@@std@@@std@@IAEXI@Z$0
__unwindtable$?_Reallocate@?$vector@UChaosCombination@@V?$allocator@UChaosCombination@@@std@@@std@@IAEXI@Z DD 0ffffffffH
	DD	00H
	DD	0ffffffffH
	DD	00H
__tryblocktable$?_Reallocate@?$vector@UChaosCombination@@V?$allocator@UChaosCombination@@@std@@@std@@IAEXI@Z DD 00H
	DD	00H
	DD	01H
	DD	01H
	DD	FLAT:__catchsym$?_Reallocate@?$vector@UChaosCombination@@V?$allocator@UChaosCombination@@@std@@@std@@IAEXI@Z$55
__ehfuncinfo$?_Reallocate@?$vector@UChaosCombination@@V?$allocator@UChaosCombination@@@std@@@std@@IAEXI@Z DD 019930522H
	DD	02H
	DD	FLAT:__unwindtable$?_Reallocate@?$vector@UChaosCombination@@V?$allocator@UChaosCombination@@@std@@@std@@IAEXI@Z
	DD	01H
	DD	FLAT:__tryblocktable$?_Reallocate@?$vector@UChaosCombination@@V?$allocator@UChaosCombination@@@std@@@std@@IAEXI@Z
	DD	2 DUP(00H)
	DD	00H
	DD	01H
xdata$x	ENDS
;	COMDAT xdata$x
xdata$x	SEGMENT
__unwindtable$?push_back@?$vector@UChaosCombination@@V?$allocator@UChaosCombination@@@std@@@std@@QAEXABUChaosCombination@@@Z DD 0ffffffffH
	DD	FLAT:__unwindfunclet$?push_back@?$vector@UChaosCombination@@V?$allocator@UChaosCombination@@@std@@@std@@QAEXABUChaosCombination@@@Z$35
	DD	0ffffffffH
	DD	FLAT:__unwindfunclet$?push_back@?$vector@UChaosCombination@@V?$allocator@UChaosCombination@@@std@@@std@@QAEXABUChaosCombination@@@Z$59
__ehfuncinfo$?push_back@?$vector@UChaosCombination@@V?$allocator@UChaosCombination@@@std@@@std@@QAEXABUChaosCombination@@@Z DD 019930522H
	DD	02H
	DD	FLAT:__unwindtable$?push_back@?$vector@UChaosCombination@@V?$allocator@UChaosCombination@@@std@@@std@@QAEXABUChaosCombination@@@Z
	DD	2 DUP(00H)
	DD	2 DUP(00H)
	DD	00H
	DD	01H
xdata$x	ENDS
;	COMDAT xdata$x
xdata$x	SEGMENT
__ehfuncinfo$?Read@ChaosRecipe@@QAE_NPAD@Z DD 019930522H
	DD	08H
	DD	FLAT:__unwindtable$?Read@ChaosRecipe@@QAE_NPAD@Z
	DD	2 DUP(00H)
	DD	2 DUP(00H)
	DD	00H
	DD	01H
__unwindtable$?Read@ChaosRecipe@@QAE_NPAD@Z DD 0ffffffffH
	DD	FLAT:__unwindfunclet$?Read@ChaosRecipe@@QAE_NPAD@Z$0
	DD	00H
	DD	FLAT:__unwindfunclet$?Read@ChaosRecipe@@QAE_NPAD@Z$1
	DD	01H
	DD	FLAT:__unwindfunclet$?Read@ChaosRecipe@@QAE_NPAD@Z$331
	DD	02H
	DD	FLAT:__unwindfunclet$?Read@ChaosRecipe@@QAE_NPAD@Z$333
	DD	03H
	DD	FLAT:__unwindfunclet$?Read@ChaosRecipe@@QAE_NPAD@Z$334
	DD	01H
	DD	FLAT:__unwindfunclet$?Read@ChaosRecipe@@QAE_NPAD@Z$358
	DD	05H
	DD	FLAT:__unwindfunclet$?Read@ChaosRecipe@@QAE_NPAD@Z$360
	DD	06H
	DD	FLAT:__unwindfunclet$?Read@ChaosRecipe@@QAE_NPAD@Z$361
xdata$x	ENDS
;	COMDAT xdata$x
xdata$x	SEGMENT
__unwindtable$??0ChaosCombination@@QAE@ABU0@@Z DD 0ffffffffH
	DD	FLAT:__unwindfunclet$??0ChaosCombination@@QAE@ABU0@@Z$0
	DD	00H
	DD	FLAT:__unwindfunclet$??0ChaosCombination@@QAE@ABU0@@Z$1
__ehfuncinfo$??0ChaosCombination@@QAE@ABU0@@Z DD 019930522H
	DD	02H
	DD	FLAT:__unwindtable$??0ChaosCombination@@QAE@ABU0@@Z
	DD	2 DUP(00H)
	DD	2 DUP(00H)
	DD	00H
	DD	01H
xdata$x	ENDS
;	COMDAT xdata$x
xdata$x	SEGMENT
__catchsym$?_Reallocate@?$vector@UChaosTalisman@@V?$allocator@UChaosTalisman@@@std@@@std@@IAEXI@Z$50 DD 040H
	DD	00H
	DD	00H
	DD	FLAT:__catch$?_Reallocate@?$vector@UChaosTalisman@@V?$allocator@UChaosTalisman@@@std@@@std@@IAEXI@Z$0
__unwindtable$?_Reallocate@?$vector@UChaosTalisman@@V?$allocator@UChaosTalisman@@@std@@@std@@IAEXI@Z DD 0ffffffffH
	DD	00H
	DD	0ffffffffH
	DD	00H
__tryblocktable$?_Reallocate@?$vector@UChaosTalisman@@V?$allocator@UChaosTalisman@@@std@@@std@@IAEXI@Z DD 00H
	DD	00H
	DD	01H
	DD	01H
	DD	FLAT:__catchsym$?_Reallocate@?$vector@UChaosTalisman@@V?$allocator@UChaosTalisman@@@std@@@std@@IAEXI@Z$50
__ehfuncinfo$?_Reallocate@?$vector@UChaosTalisman@@V?$allocator@UChaosTalisman@@@std@@@std@@IAEXI@Z DD 019930522H
	DD	02H
	DD	FLAT:__unwindtable$?_Reallocate@?$vector@UChaosTalisman@@V?$allocator@UChaosTalisman@@@std@@@std@@IAEXI@Z
	DD	01H
	DD	FLAT:__tryblocktable$?_Reallocate@?$vector@UChaosTalisman@@V?$allocator@UChaosTalisman@@@std@@@std@@IAEXI@Z
	DD	2 DUP(00H)
	DD	00H
	DD	01H
xdata$x	ENDS
;	COMDAT xdata$x
xdata$x	SEGMENT
__catchsym$??0?$vector@UChaosTalisman@@V?$allocator@UChaosTalisman@@@std@@@std@@QAE@ABV01@@Z$66 DD 040H
	DD	00H
	DD	00H
	DD	FLAT:__catch$??0?$vector@UChaosTalisman@@V?$allocator@UChaosTalisman@@@std@@@std@@QAE@ABV01@@Z$0
__unwindtable$??0?$vector@UChaosTalisman@@V?$allocator@UChaosTalisman@@@std@@@std@@QAE@ABV01@@Z DD 0ffffffffH
	DD	00H
	DD	0ffffffffH
	DD	00H
__tryblocktable$??0?$vector@UChaosTalisman@@V?$allocator@UChaosTalisman@@@std@@@std@@QAE@ABV01@@Z DD 00H
	DD	00H
	DD	01H
	DD	01H
	DD	FLAT:__catchsym$??0?$vector@UChaosTalisman@@V?$allocator@UChaosTalisman@@@std@@@std@@QAE@ABV01@@Z$66
__ehfuncinfo$??0?$vector@UChaosTalisman@@V?$allocator@UChaosTalisman@@@std@@@std@@QAE@ABV01@@Z DD 019930522H
	DD	02H
	DD	FLAT:__unwindtable$??0?$vector@UChaosTalisman@@V?$allocator@UChaosTalisman@@@std@@@std@@QAE@ABV01@@Z
	DD	01H
	DD	FLAT:__tryblocktable$??0?$vector@UChaosTalisman@@V?$allocator@UChaosTalisman@@@std@@@std@@QAE@ABV01@@Z
	DD	2 DUP(00H)
	DD	00H
	DD	01H
xdata$x	ENDS
;	COMDAT xdata$x
xdata$x	SEGMENT
__catchsym$?_Reallocate@?$vector@UChaosProduce@@V?$allocator@UChaosProduce@@@std@@@std@@IAEXI@Z$50 DD 040H
	DD	00H
	DD	00H
	DD	FLAT:__catch$?_Reallocate@?$vector@UChaosProduce@@V?$allocator@UChaosProduce@@@std@@@std@@IAEXI@Z$0
__unwindtable$?_Reallocate@?$vector@UChaosProduce@@V?$allocator@UChaosProduce@@@std@@@std@@IAEXI@Z DD 0ffffffffH
	DD	00H
	DD	0ffffffffH
	DD	00H
__tryblocktable$?_Reallocate@?$vector@UChaosProduce@@V?$allocator@UChaosProduce@@@std@@@std@@IAEXI@Z DD 00H
	DD	00H
	DD	01H
	DD	01H
	DD	FLAT:__catchsym$?_Reallocate@?$vector@UChaosProduce@@V?$allocator@UChaosProduce@@@std@@@std@@IAEXI@Z$50
__ehfuncinfo$?_Reallocate@?$vector@UChaosProduce@@V?$allocator@UChaosProduce@@@std@@@std@@IAEXI@Z DD 019930522H
	DD	02H
	DD	FLAT:__unwindtable$?_Reallocate@?$vector@UChaosProduce@@V?$allocator@UChaosProduce@@@std@@@std@@IAEXI@Z
	DD	01H
	DD	FLAT:__tryblocktable$?_Reallocate@?$vector@UChaosProduce@@V?$allocator@UChaosProduce@@@std@@@std@@IAEXI@Z
	DD	2 DUP(00H)
	DD	00H
	DD	01H
xdata$x	ENDS
;	COMDAT xdata$x
xdata$x	SEGMENT
__catchsym$??0?$vector@UChaosProduce@@V?$allocator@UChaosProduce@@@std@@@std@@QAE@ABV01@@Z$66 DD 040H
	DD	00H
	DD	00H
	DD	FLAT:__catch$??0?$vector@UChaosProduce@@V?$allocator@UChaosProduce@@@std@@@std@@QAE@ABV01@@Z$0
__unwindtable$??0?$vector@UChaosProduce@@V?$allocator@UChaosProduce@@@std@@@std@@QAE@ABV01@@Z DD 0ffffffffH
	DD	00H
	DD	0ffffffffH
	DD	00H
__tryblocktable$??0?$vector@UChaosProduce@@V?$allocator@UChaosProduce@@@std@@@std@@QAE@ABV01@@Z DD 00H
	DD	00H
	DD	01H
	DD	01H
	DD	FLAT:__catchsym$??0?$vector@UChaosProduce@@V?$allocator@UChaosProduce@@@std@@@std@@QAE@ABV01@@Z$66
__ehfuncinfo$??0?$vector@UChaosProduce@@V?$allocator@UChaosProduce@@@std@@@std@@QAE@ABV01@@Z DD 019930522H
	DD	02H
	DD	FLAT:__unwindtable$??0?$vector@UChaosProduce@@V?$allocator@UChaosProduce@@@std@@@std@@QAE@ABV01@@Z
	DD	01H
	DD	FLAT:__tryblocktable$??0?$vector@UChaosProduce@@V?$allocator@UChaosProduce@@@std@@@std@@QAE@ABV01@@Z
	DD	2 DUP(00H)
	DD	00H
	DD	01H
xdata$x	ENDS
;	COMDAT xdata$x
xdata$x	SEGMENT
__catchsym$?_Reallocate@?$vector@UChaosIngredient@@V?$allocator@UChaosIngredient@@@std@@@std@@IAEXI@Z$50 DD 040H
	DD	00H
	DD	00H
	DD	FLAT:__catch$?_Reallocate@?$vector@UChaosIngredient@@V?$allocator@UChaosIngredient@@@std@@@std@@IAEXI@Z$0
__unwindtable$?_Reallocate@?$vector@UChaosIngredient@@V?$allocator@UChaosIngredient@@@std@@@std@@IAEXI@Z DD 0ffffffffH
	DD	00H
	DD	0ffffffffH
	DD	00H
__tryblocktable$?_Reallocate@?$vector@UChaosIngredient@@V?$allocator@UChaosIngredient@@@std@@@std@@IAEXI@Z DD 00H
	DD	00H
	DD	01H
	DD	01H
	DD	FLAT:__catchsym$?_Reallocate@?$vector@UChaosIngredient@@V?$allocator@UChaosIngredient@@@std@@@std@@IAEXI@Z$50
__ehfuncinfo$?_Reallocate@?$vector@UChaosIngredient@@V?$allocator@UChaosIngredient@@@std@@@std@@IAEXI@Z DD 019930522H
	DD	02H
	DD	FLAT:__unwindtable$?_Reallocate@?$vector@UChaosIngredient@@V?$allocator@UChaosIngredient@@@std@@@std@@IAEXI@Z
	DD	01H
	DD	FLAT:__tryblocktable$?_Reallocate@?$vector@UChaosIngredient@@V?$allocator@UChaosIngredient@@@std@@@std@@IAEXI@Z
	DD	2 DUP(00H)
	DD	00H
	DD	01H
xdata$x	ENDS
;	COMDAT xdata$x
xdata$x	SEGMENT
__catchsym$??0?$vector@UChaosIngredient@@V?$allocator@UChaosIngredient@@@std@@@std@@QAE@ABV01@@Z$34 DD 040H
	DD	00H
	DD	00H
	DD	FLAT:__catch$??0?$vector@UChaosIngredient@@V?$allocator@UChaosIngredient@@@std@@@std@@QAE@ABV01@@Z$0
__unwindtable$??0?$vector@UChaosIngredient@@V?$allocator@UChaosIngredient@@@std@@@std@@QAE@ABV01@@Z DD 0ffffffffH
	DD	00H
	DD	0ffffffffH
	DD	00H
__tryblocktable$??0?$vector@UChaosIngredient@@V?$allocator@UChaosIngredient@@@std@@@std@@QAE@ABV01@@Z DD 00H
	DD	00H
	DD	01H
	DD	01H
	DD	FLAT:__catchsym$??0?$vector@UChaosIngredient@@V?$allocator@UChaosIngredient@@@std@@@std@@QAE@ABV01@@Z$34
__ehfuncinfo$??0?$vector@UChaosIngredient@@V?$allocator@UChaosIngredient@@@std@@@std@@QAE@ABV01@@Z DD 019930522H
	DD	02H
	DD	FLAT:__unwindtable$??0?$vector@UChaosIngredient@@V?$allocator@UChaosIngredient@@@std@@@std@@QAE@ABV01@@Z
	DD	01H
	DD	FLAT:__tryblocktable$??0?$vector@UChaosIngredient@@V?$allocator@UChaosIngredient@@@std@@@std@@QAE@ABV01@@Z
	DD	2 DUP(00H)
	DD	00H
	DD	01H
xdata$x	ENDS
;	COMDAT xdata$x
xdata$x	SEGMENT
__ehfuncinfo$??_EOBJECTSTRUCT@@QAEPAXI@Z DD 019930522H
	DD	00H
	DD	00H
	DD	2 DUP(00H)
	DD	2 DUP(00H)
	DD	00H
	DD	05H
xdata$x	ENDS
; Function compile flags: /Ogtp
; File c:\program files (x86)\microsoft visual studio 14.0\vc\include\type_traits
;	COMDAT ??$forward@V?$vector@UChaosIngredient@@V?$allocator@UChaosIngredient@@@std@@@std@@@std@@YA$$QAV?$vector@UChaosIngredient@@V?$allocator@UChaosIngredient@@@std@@@0@AAV10@@Z
_TEXT	SEGMENT
__Arg$ = 8						; size = 4
??$forward@V?$vector@UChaosIngredient@@V?$allocator@UChaosIngredient@@@std@@@std@@@std@@YA$$QAV?$vector@UChaosIngredient@@V?$allocator@UChaosIngredient@@@std@@@0@AAV10@@Z PROC ; std::forward<std::vector<ChaosIngredient,std::allocator<ChaosIngredient> > >, COMDAT

; 1233 : 	{	// forward an lvalue as either an lvalue or an rvalue

  00000	55		 push	 ebp
  00001	8b ec		 mov	 ebp, esp

; 1234 : 	return (static_cast<_Ty&&>(_Arg));

  00003	8b 45 08	 mov	 eax, DWORD PTR __Arg$[ebp]

; 1235 : 	}

  00006	5d		 pop	 ebp
  00007	c3		 ret	 0
??$forward@V?$vector@UChaosIngredient@@V?$allocator@UChaosIngredient@@@std@@@std@@@std@@YA$$QAV?$vector@UChaosIngredient@@V?$allocator@UChaosIngredient@@@std@@@0@AAV10@@Z ENDP ; std::forward<std::vector<ChaosIngredient,std::allocator<ChaosIngredient> > >
_TEXT	ENDS
; Function compile flags: /Ogtp
; File c:\program files (x86)\microsoft visual studio 14.0\vc\include\type_traits
;	COMDAT ??$move@AAU?$_Wrap_alloc@V?$allocator@UChaosIngredient@@@std@@@std@@@std@@YA$$QAU?$_Wrap_alloc@V?$allocator@UChaosIngredient@@@std@@@0@AAU10@@Z
_TEXT	SEGMENT
__Arg$ = 8						; size = 4
??$move@AAU?$_Wrap_alloc@V?$allocator@UChaosIngredient@@@std@@@std@@@std@@YA$$QAU?$_Wrap_alloc@V?$allocator@UChaosIngredient@@@std@@@0@AAU10@@Z PROC ; std::move<std::_Wrap_alloc<std::allocator<ChaosIngredient> > &>, COMDAT

; 1249 : 	{	// forward _Arg as movable

  00000	55		 push	 ebp
  00001	8b ec		 mov	 ebp, esp

; 1250 : 	return (static_cast<typename remove_reference<_Ty>::type&&>(_Arg));

  00003	8b 45 08	 mov	 eax, DWORD PTR __Arg$[ebp]

; 1251 : 	}

  00006	5d		 pop	 ebp
  00007	c3		 ret	 0
??$move@AAU?$_Wrap_alloc@V?$allocator@UChaosIngredient@@@std@@@std@@@std@@YA$$QAU?$_Wrap_alloc@V?$allocator@UChaosIngredient@@@std@@@0@AAU10@@Z ENDP ; std::move<std::_Wrap_alloc<std::allocator<ChaosIngredient> > &>
_TEXT	ENDS
; Function compile flags: /Ogtp
; File c:\program files (x86)\microsoft visual studio 14.0\vc\include\type_traits
;	COMDAT ??$forward@V?$vector@UChaosProduce@@V?$allocator@UChaosProduce@@@std@@@std@@@std@@YA$$QAV?$vector@UChaosProduce@@V?$allocator@UChaosProduce@@@std@@@0@AAV10@@Z
_TEXT	SEGMENT
__Arg$ = 8						; size = 4
??$forward@V?$vector@UChaosProduce@@V?$allocator@UChaosProduce@@@std@@@std@@@std@@YA$$QAV?$vector@UChaosProduce@@V?$allocator@UChaosProduce@@@std@@@0@AAV10@@Z PROC ; std::forward<std::vector<ChaosProduce,std::allocator<ChaosProduce> > >, COMDAT

; 1233 : 	{	// forward an lvalue as either an lvalue or an rvalue

  00000	55		 push	 ebp
  00001	8b ec		 mov	 ebp, esp

; 1234 : 	return (static_cast<_Ty&&>(_Arg));

  00003	8b 45 08	 mov	 eax, DWORD PTR __Arg$[ebp]

; 1235 : 	}

  00006	5d		 pop	 ebp
  00007	c3		 ret	 0
??$forward@V?$vector@UChaosProduce@@V?$allocator@UChaosProduce@@@std@@@std@@@std@@YA$$QAV?$vector@UChaosProduce@@V?$allocator@UChaosProduce@@@std@@@0@AAV10@@Z ENDP ; std::forward<std::vector<ChaosProduce,std::allocator<ChaosProduce> > >
_TEXT	ENDS
; Function compile flags: /Ogtp
; File c:\program files (x86)\microsoft visual studio 14.0\vc\include\type_traits
;	COMDAT ??$move@AAU?$_Wrap_alloc@V?$allocator@UChaosProduce@@@std@@@std@@@std@@YA$$QAU?$_Wrap_alloc@V?$allocator@UChaosProduce@@@std@@@0@AAU10@@Z
_TEXT	SEGMENT
__Arg$ = 8						; size = 4
??$move@AAU?$_Wrap_alloc@V?$allocator@UChaosProduce@@@std@@@std@@@std@@YA$$QAU?$_Wrap_alloc@V?$allocator@UChaosProduce@@@std@@@0@AAU10@@Z PROC ; std::move<std::_Wrap_alloc<std::allocator<ChaosProduce> > &>, COMDAT

; 1249 : 	{	// forward _Arg as movable

  00000	55		 push	 ebp
  00001	8b ec		 mov	 ebp, esp

; 1250 : 	return (static_cast<typename remove_reference<_Ty>::type&&>(_Arg));

  00003	8b 45 08	 mov	 eax, DWORD PTR __Arg$[ebp]

; 1251 : 	}

  00006	5d		 pop	 ebp
  00007	c3		 ret	 0
??$move@AAU?$_Wrap_alloc@V?$allocator@UChaosProduce@@@std@@@std@@@std@@YA$$QAU?$_Wrap_alloc@V?$allocator@UChaosProduce@@@std@@@0@AAU10@@Z ENDP ; std::move<std::_Wrap_alloc<std::allocator<ChaosProduce> > &>
_TEXT	ENDS
; Function compile flags: /Ogtp
; File c:\program files (x86)\microsoft visual studio 14.0\vc\include\type_traits
;	COMDAT ??$forward@V?$vector@UChaosTalisman@@V?$allocator@UChaosTalisman@@@std@@@std@@@std@@YA$$QAV?$vector@UChaosTalisman@@V?$allocator@UChaosTalisman@@@std@@@0@AAV10@@Z
_TEXT	SEGMENT
__Arg$ = 8						; size = 4
??$forward@V?$vector@UChaosTalisman@@V?$allocator@UChaosTalisman@@@std@@@std@@@std@@YA$$QAV?$vector@UChaosTalisman@@V?$allocator@UChaosTalisman@@@std@@@0@AAV10@@Z PROC ; std::forward<std::vector<ChaosTalisman,std::allocator<ChaosTalisman> > >, COMDAT

; 1233 : 	{	// forward an lvalue as either an lvalue or an rvalue

  00000	55		 push	 ebp
  00001	8b ec		 mov	 ebp, esp

; 1234 : 	return (static_cast<_Ty&&>(_Arg));

  00003	8b 45 08	 mov	 eax, DWORD PTR __Arg$[ebp]

; 1235 : 	}

  00006	5d		 pop	 ebp
  00007	c3		 ret	 0
??$forward@V?$vector@UChaosTalisman@@V?$allocator@UChaosTalisman@@@std@@@std@@@std@@YA$$QAV?$vector@UChaosTalisman@@V?$allocator@UChaosTalisman@@@std@@@0@AAV10@@Z ENDP ; std::forward<std::vector<ChaosTalisman,std::allocator<ChaosTalisman> > >
_TEXT	ENDS
; Function compile flags: /Ogtp
; File c:\program files (x86)\microsoft visual studio 14.0\vc\include\type_traits
;	COMDAT ??$move@AAU?$_Wrap_alloc@V?$allocator@UChaosTalisman@@@std@@@std@@@std@@YA$$QAU?$_Wrap_alloc@V?$allocator@UChaosTalisman@@@std@@@0@AAU10@@Z
_TEXT	SEGMENT
__Arg$ = 8						; size = 4
??$move@AAU?$_Wrap_alloc@V?$allocator@UChaosTalisman@@@std@@@std@@@std@@YA$$QAU?$_Wrap_alloc@V?$allocator@UChaosTalisman@@@std@@@0@AAU10@@Z PROC ; std::move<std::_Wrap_alloc<std::allocator<ChaosTalisman> > &>, COMDAT

; 1249 : 	{	// forward _Arg as movable

  00000	55		 push	 ebp
  00001	8b ec		 mov	 ebp, esp

; 1250 : 	return (static_cast<typename remove_reference<_Ty>::type&&>(_Arg));

  00003	8b 45 08	 mov	 eax, DWORD PTR __Arg$[ebp]

; 1251 : 	}

  00006	5d		 pop	 ebp
  00007	c3		 ret	 0
??$move@AAU?$_Wrap_alloc@V?$allocator@UChaosTalisman@@@std@@@std@@@std@@YA$$QAU?$_Wrap_alloc@V?$allocator@UChaosTalisman@@@std@@@0@AAU10@@Z ENDP ; std::move<std::_Wrap_alloc<std::allocator<ChaosTalisman> > &>
_TEXT	ENDS
; Function compile flags: /Ogtp
; File c:\program files (x86)\microsoft visual studio 14.0\vc\include\xmemory
; File c:\program files (x86)\microsoft visual studio 14.0\vc\include\xmemory0
; File c:\program files (x86)\microsoft visual studio 14.0\vc\include\xmemory
;	COMDAT ??$_Uninit_copy@PBUChaosIngredient@@PAU1@V?$allocator@UChaosIngredient@@@std@@@std@@YAPAUChaosIngredient@@PBU1@0PAU1@AAU?$_Wrap_alloc@V?$allocator@UChaosIngredient@@@std@@@0@U_Nonscalar_ptr_iterator_tag@0@@Z
_TEXT	SEGMENT
__First$ = 8						; size = 4
__Last$ = 12						; size = 4
__Dest$ = 16						; size = 4
__Al$ = 20						; size = 4
___formal$ = 24						; size = 1
??$_Uninit_copy@PBUChaosIngredient@@PAU1@V?$allocator@UChaosIngredient@@@std@@@std@@YAPAUChaosIngredient@@PBU1@0PAU1@AAU?$_Wrap_alloc@V?$allocator@UChaosIngredient@@@std@@@0@U_Nonscalar_ptr_iterator_tag@0@@Z PROC ; std::_Uninit_copy<ChaosIngredient const *,ChaosIngredient *,std::allocator<ChaosIngredient> >, COMDAT

; 373  : 	{	// copy [_First, _Last) to raw _Dest, using _Al, arbitrary type

  00000	55		 push	 ebp
  00001	8b ec		 mov	 ebp, esp

; 378  : 	for (; _First != _Last; ++_Dest, (void)++_First)

  00003	8b 4d 08	 mov	 ecx, DWORD PTR __First$[ebp]
  00006	8b 45 10	 mov	 eax, DWORD PTR __Dest$[ebp]
  00009	56		 push	 esi
  0000a	8b 75 0c	 mov	 esi, DWORD PTR __Last$[ebp]
  0000d	3b ce		 cmp	 ecx, esi
  0000f	74 34		 je	 SHORT $LN3@Uninit_cop
$LL4@Uninit_cop:
; File c:\program files (x86)\microsoft visual studio 14.0\vc\include\xmemory0

; 655  : 		::new ((void *)_Ptr) _Objty(_STD forward<_Types>(_Args)...);

  00011	85 c0		 test	 eax, eax
  00013	74 26		 je	 SHORT $LN2@Uninit_cop
  00015	0f 10 01	 movups	 xmm0, XMMWORD PTR [ecx]
  00018	0f 11 00	 movups	 XMMWORD PTR [eax], xmm0
  0001b	0f 10 41 10	 movups	 xmm0, XMMWORD PTR [ecx+16]
  0001f	0f 11 40 10	 movups	 XMMWORD PTR [eax+16], xmm0
  00023	0f 10 41 20	 movups	 xmm0, XMMWORD PTR [ecx+32]
  00027	0f 11 40 20	 movups	 XMMWORD PTR [eax+32], xmm0
  0002b	0f 10 41 30	 movups	 xmm0, XMMWORD PTR [ecx+48]
  0002f	0f 11 40 30	 movups	 XMMWORD PTR [eax+48], xmm0
  00033	66 8b 51 40	 mov	 dx, WORD PTR [ecx+64]
  00037	66 89 50 40	 mov	 WORD PTR [eax+64], dx
$LN2@Uninit_cop:
; File c:\program files (x86)\microsoft visual studio 14.0\vc\include\xmemory

; 378  : 	for (; _First != _Last; ++_Dest, (void)++_First)

  0003b	83 c1 42	 add	 ecx, 66			; 00000042H
  0003e	83 c0 42	 add	 eax, 66			; 00000042H
  00041	3b ce		 cmp	 ecx, esi
  00043	75 cc		 jne	 SHORT $LL4@Uninit_cop
$LN3@Uninit_cop:
  00045	5e		 pop	 esi

; 379  : 		_Al.construct(_Dest, *_First);
; 380  : 	_CATCH_ALL
; 381  : 	for (; _Next != _Dest; ++_Next)
; 382  : 		_Al.destroy(_Next);
; 383  : 	_RERAISE;
; 384  : 	_CATCH_END
; 385  : 	return (_Dest);
; 386  : 	}

  00046	5d		 pop	 ebp
  00047	c3		 ret	 0
??$_Uninit_copy@PBUChaosIngredient@@PAU1@V?$allocator@UChaosIngredient@@@std@@@std@@YAPAUChaosIngredient@@PBU1@0PAU1@AAU?$_Wrap_alloc@V?$allocator@UChaosIngredient@@@std@@@0@U_Nonscalar_ptr_iterator_tag@0@@Z ENDP ; std::_Uninit_copy<ChaosIngredient const *,ChaosIngredient *,std::allocator<ChaosIngredient> >
_TEXT	ENDS
; Function compile flags: /Ogtp
; File c:\program files (x86)\microsoft visual studio 14.0\vc\include\xmemory
; File c:\program files (x86)\microsoft visual studio 14.0\vc\include\xmemory0
; File c:\program files (x86)\microsoft visual studio 14.0\vc\include\xmemory
;	COMDAT ??$_Uninit_copy@PBUChaosProduce@@PAU1@V?$allocator@UChaosProduce@@@std@@@std@@YAPAUChaosProduce@@PBU1@0PAU1@AAU?$_Wrap_alloc@V?$allocator@UChaosProduce@@@std@@@0@U_Nonscalar_ptr_iterator_tag@0@@Z
_TEXT	SEGMENT
__First$ = 8						; size = 4
__Last$ = 12						; size = 4
__Dest$ = 16						; size = 4
__Al$ = 20						; size = 4
___formal$ = 24						; size = 1
??$_Uninit_copy@PBUChaosProduce@@PAU1@V?$allocator@UChaosProduce@@@std@@@std@@YAPAUChaosProduce@@PBU1@0PAU1@AAU?$_Wrap_alloc@V?$allocator@UChaosProduce@@@std@@@0@U_Nonscalar_ptr_iterator_tag@0@@Z PROC ; std::_Uninit_copy<ChaosProduce const *,ChaosProduce *,std::allocator<ChaosProduce> >, COMDAT

; 373  : 	{	// copy [_First, _Last) to raw _Dest, using _Al, arbitrary type

  00000	55		 push	 ebp
  00001	8b ec		 mov	 ebp, esp

; 378  : 	for (; _First != _Last; ++_Dest, (void)++_First)

  00003	8b 4d 08	 mov	 ecx, DWORD PTR __First$[ebp]
  00006	8b 55 0c	 mov	 edx, DWORD PTR __Last$[ebp]
  00009	8b 45 10	 mov	 eax, DWORD PTR __Dest$[ebp]
  0000c	3b ca		 cmp	 ecx, edx
  0000e	74 14		 je	 SHORT $LN3@Uninit_cop
$LL4@Uninit_cop:
; File c:\program files (x86)\microsoft visual studio 14.0\vc\include\xmemory0

; 655  : 		::new ((void *)_Ptr) _Objty(_STD forward<_Types>(_Args)...);

  00010	85 c0		 test	 eax, eax
  00012	74 06		 je	 SHORT $LN2@Uninit_cop
  00014	0f 10 01	 movups	 xmm0, XMMWORD PTR [ecx]
  00017	0f 11 00	 movups	 XMMWORD PTR [eax], xmm0
$LN2@Uninit_cop:
; File c:\program files (x86)\microsoft visual studio 14.0\vc\include\xmemory

; 378  : 	for (; _First != _Last; ++_Dest, (void)++_First)

  0001a	83 c1 10	 add	 ecx, 16			; 00000010H
  0001d	83 c0 10	 add	 eax, 16			; 00000010H
  00020	3b ca		 cmp	 ecx, edx
  00022	75 ec		 jne	 SHORT $LL4@Uninit_cop
$LN3@Uninit_cop:

; 379  : 		_Al.construct(_Dest, *_First);
; 380  : 	_CATCH_ALL
; 381  : 	for (; _Next != _Dest; ++_Next)
; 382  : 		_Al.destroy(_Next);
; 383  : 	_RERAISE;
; 384  : 	_CATCH_END
; 385  : 	return (_Dest);
; 386  : 	}

  00024	5d		 pop	 ebp
  00025	c3		 ret	 0
??$_Uninit_copy@PBUChaosProduce@@PAU1@V?$allocator@UChaosProduce@@@std@@@std@@YAPAUChaosProduce@@PBU1@0PAU1@AAU?$_Wrap_alloc@V?$allocator@UChaosProduce@@@std@@@0@U_Nonscalar_ptr_iterator_tag@0@@Z ENDP ; std::_Uninit_copy<ChaosProduce const *,ChaosProduce *,std::allocator<ChaosProduce> >
_TEXT	ENDS
; Function compile flags: /Ogtp
; File c:\program files (x86)\microsoft visual studio 14.0\vc\include\xmemory
; File c:\program files (x86)\microsoft visual studio 14.0\vc\include\xmemory0
; File c:\program files (x86)\microsoft visual studio 14.0\vc\include\xmemory
;	COMDAT ??$_Uninit_copy@PBUChaosTalisman@@PAU1@V?$allocator@UChaosTalisman@@@std@@@std@@YAPAUChaosTalisman@@PBU1@0PAU1@AAU?$_Wrap_alloc@V?$allocator@UChaosTalisman@@@std@@@0@U_Nonscalar_ptr_iterator_tag@0@@Z
_TEXT	SEGMENT
__First$ = 8						; size = 4
__Last$ = 12						; size = 4
__Dest$ = 16						; size = 4
__Al$ = 20						; size = 4
___formal$ = 24						; size = 1
??$_Uninit_copy@PBUChaosTalisman@@PAU1@V?$allocator@UChaosTalisman@@@std@@@std@@YAPAUChaosTalisman@@PBU1@0PAU1@AAU?$_Wrap_alloc@V?$allocator@UChaosTalisman@@@std@@@0@U_Nonscalar_ptr_iterator_tag@0@@Z PROC ; std::_Uninit_copy<ChaosTalisman const *,ChaosTalisman *,std::allocator<ChaosTalisman> >, COMDAT

; 373  : 	{	// copy [_First, _Last) to raw _Dest, using _Al, arbitrary type

  00000	55		 push	 ebp
  00001	8b ec		 mov	 ebp, esp

; 378  : 	for (; _First != _Last; ++_Dest, (void)++_First)

  00003	8b 4d 08	 mov	 ecx, DWORD PTR __First$[ebp]
  00006	8b 55 0c	 mov	 edx, DWORD PTR __Last$[ebp]
  00009	8b 45 10	 mov	 eax, DWORD PTR __Dest$[ebp]
  0000c	3b ca		 cmp	 ecx, edx
  0000e	74 14		 je	 SHORT $LN3@Uninit_cop
$LL4@Uninit_cop:
; File c:\program files (x86)\microsoft visual studio 14.0\vc\include\xmemory0

; 655  : 		::new ((void *)_Ptr) _Objty(_STD forward<_Types>(_Args)...);

  00010	85 c0		 test	 eax, eax
  00012	74 06		 je	 SHORT $LN2@Uninit_cop
  00014	0f 10 01	 movups	 xmm0, XMMWORD PTR [ecx]
  00017	0f 11 00	 movups	 XMMWORD PTR [eax], xmm0
$LN2@Uninit_cop:
; File c:\program files (x86)\microsoft visual studio 14.0\vc\include\xmemory

; 378  : 	for (; _First != _Last; ++_Dest, (void)++_First)

  0001a	83 c1 10	 add	 ecx, 16			; 00000010H
  0001d	83 c0 10	 add	 eax, 16			; 00000010H
  00020	3b ca		 cmp	 ecx, edx
  00022	75 ec		 jne	 SHORT $LL4@Uninit_cop
$LN3@Uninit_cop:

; 379  : 		_Al.construct(_Dest, *_First);
; 380  : 	_CATCH_ALL
; 381  : 	for (; _Next != _Dest; ++_Next)
; 382  : 		_Al.destroy(_Next);
; 383  : 	_RERAISE;
; 384  : 	_CATCH_END
; 385  : 	return (_Dest);
; 386  : 	}

  00024	5d		 pop	 ebp
  00025	c3		 ret	 0
??$_Uninit_copy@PBUChaosTalisman@@PAU1@V?$allocator@UChaosTalisman@@@std@@@std@@YAPAUChaosTalisman@@PBU1@0PAU1@AAU?$_Wrap_alloc@V?$allocator@UChaosTalisman@@@std@@@0@U_Nonscalar_ptr_iterator_tag@0@@Z ENDP ; std::_Uninit_copy<ChaosTalisman const *,ChaosTalisman *,std::allocator<ChaosTalisman> >
_TEXT	ENDS
; Function compile flags: /Ogtp
; File c:\program files (x86)\microsoft visual studio 14.0\vc\include\xmemory0
;	COMDAT ??$construct@UChaosIngredient@@U1@@?$allocator@UChaosIngredient@@@std@@QAEXPAUChaosIngredient@@$$QAU2@@Z
_TEXT	SEGMENT
__Ptr$ = 8						; size = 4
_<_Args_0>$ = 12					; size = 4
??$construct@UChaosIngredient@@U1@@?$allocator@UChaosIngredient@@@std@@QAEXPAUChaosIngredient@@$$QAU2@@Z PROC ; std::allocator<ChaosIngredient>::construct<ChaosIngredient,ChaosIngredient>, COMDAT
; _this$ = ecx

; 654  : 		{	// construct _Objty(_Types...) at _Ptr

  00000	55		 push	 ebp
  00001	8b ec		 mov	 ebp, esp

; 655  : 		::new ((void *)_Ptr) _Objty(_STD forward<_Types>(_Args)...);

  00003	8b 4d 08	 mov	 ecx, DWORD PTR __Ptr$[ebp]
  00006	85 c9		 test	 ecx, ecx
  00008	74 29		 je	 SHORT $LN3@construct
  0000a	8b 45 0c	 mov	 eax, DWORD PTR _<_Args_0>$[ebp]
  0000d	0f 10 00	 movups	 xmm0, XMMWORD PTR [eax]
  00010	0f 11 01	 movups	 XMMWORD PTR [ecx], xmm0
  00013	0f 10 40 10	 movups	 xmm0, XMMWORD PTR [eax+16]
  00017	0f 11 41 10	 movups	 XMMWORD PTR [ecx+16], xmm0
  0001b	0f 10 40 20	 movups	 xmm0, XMMWORD PTR [eax+32]
  0001f	0f 11 41 20	 movups	 XMMWORD PTR [ecx+32], xmm0
  00023	0f 10 40 30	 movups	 xmm0, XMMWORD PTR [eax+48]
  00027	0f 11 41 30	 movups	 XMMWORD PTR [ecx+48], xmm0
  0002b	66 8b 40 40	 mov	 ax, WORD PTR [eax+64]
  0002f	66 89 41 40	 mov	 WORD PTR [ecx+64], ax
$LN3@construct:

; 656  : 		}

  00033	5d		 pop	 ebp
  00034	c2 08 00	 ret	 8
??$construct@UChaosIngredient@@U1@@?$allocator@UChaosIngredient@@@std@@QAEXPAUChaosIngredient@@$$QAU2@@Z ENDP ; std::allocator<ChaosIngredient>::construct<ChaosIngredient,ChaosIngredient>
_TEXT	ENDS
; Function compile flags: /Ogtp
; File c:\program files (x86)\microsoft visual studio 14.0\vc\include\xmemory0
;	COMDAT ??$construct@UChaosProduce@@U1@@?$allocator@UChaosProduce@@@std@@QAEXPAUChaosProduce@@$$QAU2@@Z
_TEXT	SEGMENT
__Ptr$ = 8						; size = 4
_<_Args_0>$ = 12					; size = 4
??$construct@UChaosProduce@@U1@@?$allocator@UChaosProduce@@@std@@QAEXPAUChaosProduce@@$$QAU2@@Z PROC ; std::allocator<ChaosProduce>::construct<ChaosProduce,ChaosProduce>, COMDAT
; _this$ = ecx

; 654  : 		{	// construct _Objty(_Types...) at _Ptr

  00000	55		 push	 ebp
  00001	8b ec		 mov	 ebp, esp

; 655  : 		::new ((void *)_Ptr) _Objty(_STD forward<_Types>(_Args)...);

  00003	8b 4d 08	 mov	 ecx, DWORD PTR __Ptr$[ebp]
  00006	85 c9		 test	 ecx, ecx
  00008	74 09		 je	 SHORT $LN3@construct
  0000a	8b 45 0c	 mov	 eax, DWORD PTR _<_Args_0>$[ebp]
  0000d	0f 10 00	 movups	 xmm0, XMMWORD PTR [eax]
  00010	0f 11 01	 movups	 XMMWORD PTR [ecx], xmm0
$LN3@construct:

; 656  : 		}

  00013	5d		 pop	 ebp
  00014	c2 08 00	 ret	 8
??$construct@UChaosProduce@@U1@@?$allocator@UChaosProduce@@@std@@QAEXPAUChaosProduce@@$$QAU2@@Z ENDP ; std::allocator<ChaosProduce>::construct<ChaosProduce,ChaosProduce>
_TEXT	ENDS
; Function compile flags: /Ogtp
; File c:\program files (x86)\microsoft visual studio 14.0\vc\include\xmemory0
;	COMDAT ??$construct@UChaosTalisman@@U1@@?$allocator@UChaosTalisman@@@std@@QAEXPAUChaosTalisman@@$$QAU2@@Z
_TEXT	SEGMENT
__Ptr$ = 8						; size = 4
_<_Args_0>$ = 12					; size = 4
??$construct@UChaosTalisman@@U1@@?$allocator@UChaosTalisman@@@std@@QAEXPAUChaosTalisman@@$$QAU2@@Z PROC ; std::allocator<ChaosTalisman>::construct<ChaosTalisman,ChaosTalisman>, COMDAT
; _this$ = ecx

; 654  : 		{	// construct _Objty(_Types...) at _Ptr

  00000	55		 push	 ebp
  00001	8b ec		 mov	 ebp, esp

; 655  : 		::new ((void *)_Ptr) _Objty(_STD forward<_Types>(_Args)...);

  00003	8b 4d 08	 mov	 ecx, DWORD PTR __Ptr$[ebp]
  00006	85 c9		 test	 ecx, ecx
  00008	74 09		 je	 SHORT $LN3@construct
  0000a	8b 45 0c	 mov	 eax, DWORD PTR _<_Args_0>$[ebp]
  0000d	0f 10 00	 movups	 xmm0, XMMWORD PTR [eax]
  00010	0f 11 01	 movups	 XMMWORD PTR [ecx], xmm0
$LN3@construct:

; 656  : 		}

  00013	5d		 pop	 ebp
  00014	c2 08 00	 ret	 8
??$construct@UChaosTalisman@@U1@@?$allocator@UChaosTalisman@@@std@@QAEXPAUChaosTalisman@@$$QAU2@@Z ENDP ; std::allocator<ChaosTalisman>::construct<ChaosTalisman,ChaosTalisman>
_TEXT	ENDS
; Function compile flags: /Ogtp
; File c:\program files (x86)\microsoft visual studio 14.0\vc\include\xmemory0
;	COMDAT ??$construct@UChaosCombination@@U1@@?$allocator@UChaosCombination@@@std@@QAEXPAUChaosCombination@@$$QAU2@@Z
_TEXT	SEGMENT
__Ptr$ = 8						; size = 4
_<_Args_0>$ = 12					; size = 4
??$construct@UChaosCombination@@U1@@?$allocator@UChaosCombination@@@std@@QAEXPAUChaosCombination@@$$QAU2@@Z PROC ; std::allocator<ChaosCombination>::construct<ChaosCombination,ChaosCombination>, COMDAT
; _this$ = ecx

; 654  : 		{	// construct _Objty(_Types...) at _Ptr

  00000	55		 push	 ebp
  00001	8b ec		 mov	 ebp, esp

; 655  : 		::new ((void *)_Ptr) _Objty(_STD forward<_Types>(_Args)...);

  00003	8b 4d 08	 mov	 ecx, DWORD PTR __Ptr$[ebp]
  00006	85 c9		 test	 ecx, ecx
  00008	74 08		 je	 SHORT $LN3@construct
  0000a	ff 75 0c	 push	 DWORD PTR _<_Args_0>$[ebp]
  0000d	e8 00 00 00 00	 call	 ??0ChaosCombination@@QAE@$$QAU0@@Z
$LN3@construct:

; 656  : 		}

  00012	5d		 pop	 ebp
  00013	c2 08 00	 ret	 8
??$construct@UChaosCombination@@U1@@?$allocator@UChaosCombination@@@std@@QAEXPAUChaosCombination@@$$QAU2@@Z ENDP ; std::allocator<ChaosCombination>::construct<ChaosCombination,ChaosCombination>
_TEXT	ENDS
; Function compile flags: /Ogtp
; File c:\program files (x86)\microsoft visual studio 14.0\vc\include\xmemory
;	COMDAT ??$_Uninit_copy@PBUChaosIngredient@@PAU1@U?$_Wrap_alloc@V?$allocator@UChaosIngredient@@@std@@@std@@@std@@YAPAUChaosIngredient@@PBU1@0PAU1@AAU?$_Wrap_alloc@V?$allocator@UChaosIngredient@@@std@@@0@@Z
_TEXT	SEGMENT
__Cat$1 = -4						; size = 1
__First$ = 8						; size = 4
__Last$ = 12						; size = 4
__Dest$ = 16						; size = 4
__Al$ = 20						; size = 4
??$_Uninit_copy@PBUChaosIngredient@@PAU1@U?$_Wrap_alloc@V?$allocator@UChaosIngredient@@@std@@@std@@@std@@YAPAUChaosIngredient@@PBU1@0PAU1@AAU?$_Wrap_alloc@V?$allocator@UChaosIngredient@@@std@@@0@@Z PROC ; std::_Uninit_copy<ChaosIngredient const *,ChaosIngredient *,std::_Wrap_alloc<std::allocator<ChaosIngredient> > >, COMDAT

; 414  : 	{	// copy [_First, _Last) to raw _Dest, using _Al

  00000	55		 push	 ebp
  00001	8b ec		 mov	 ebp, esp
  00003	51		 push	 ecx

; 415  : 	return (_Uninit_copy(_First, _Last, _Dest, _Al,

  00004	ff 75 fc	 push	 DWORD PTR __Cat$1[ebp]
  00007	ff 75 14	 push	 DWORD PTR __Al$[ebp]
  0000a	ff 75 10	 push	 DWORD PTR __Dest$[ebp]
  0000d	ff 75 0c	 push	 DWORD PTR __Last$[ebp]
  00010	ff 75 08	 push	 DWORD PTR __First$[ebp]
  00013	e8 00 00 00 00	 call	 ??$_Uninit_copy@PBUChaosIngredient@@PAU1@V?$allocator@UChaosIngredient@@@std@@@std@@YAPAUChaosIngredient@@PBU1@0PAU1@AAU?$_Wrap_alloc@V?$allocator@UChaosIngredient@@@std@@@0@U_Nonscalar_ptr_iterator_tag@0@@Z ; std::_Uninit_copy<ChaosIngredient const *,ChaosIngredient *,std::allocator<ChaosIngredient> >
  00018	83 c4 14	 add	 esp, 20			; 00000014H

; 416  : 		_Ptr_cat(_First, _Dest)));
; 417  : 	}

  0001b	8b e5		 mov	 esp, ebp
  0001d	5d		 pop	 ebp
  0001e	c3		 ret	 0
??$_Uninit_copy@PBUChaosIngredient@@PAU1@U?$_Wrap_alloc@V?$allocator@UChaosIngredient@@@std@@@std@@@std@@YAPAUChaosIngredient@@PBU1@0PAU1@AAU?$_Wrap_alloc@V?$allocator@UChaosIngredient@@@std@@@0@@Z ENDP ; std::_Uninit_copy<ChaosIngredient const *,ChaosIngredient *,std::_Wrap_alloc<std::allocator<ChaosIngredient> > >
_TEXT	ENDS
; Function compile flags: /Ogtp
; File c:\program files (x86)\microsoft visual studio 14.0\vc\include\vector
;	COMDAT ??$_Unchecked@V?$_Vector_val@U?$_Simple_types@UChaosIngredient@@@std@@@std@@@std@@YAPBUChaosIngredient@@V?$_Vector_const_iterator@V?$_Vector_val@U?$_Simple_types@UChaosIngredient@@@std@@@std@@@0@@Z
_TEXT	SEGMENT
__Iter$ = 8						; size = 4
??$_Unchecked@V?$_Vector_val@U?$_Simple_types@UChaosIngredient@@@std@@@std@@@std@@YAPBUChaosIngredient@@V?$_Vector_const_iterator@V?$_Vector_val@U?$_Simple_types@UChaosIngredient@@@std@@@std@@@0@@Z PROC ; std::_Unchecked<std::_Vector_val<std::_Simple_types<ChaosIngredient> > >, COMDAT

; 265  : 	{	// convert to unchecked

  00000	55		 push	 ebp
  00001	8b ec		 mov	 ebp, esp

; 266  : 	return (_Iter._Unchecked());

  00003	8b 45 08	 mov	 eax, DWORD PTR __Iter$[ebp]

; 267  : 	}

  00006	5d		 pop	 ebp
  00007	c3		 ret	 0
??$_Unchecked@V?$_Vector_val@U?$_Simple_types@UChaosIngredient@@@std@@@std@@@std@@YAPBUChaosIngredient@@V?$_Vector_const_iterator@V?$_Vector_val@U?$_Simple_types@UChaosIngredient@@@std@@@std@@@0@@Z ENDP ; std::_Unchecked<std::_Vector_val<std::_Simple_types<ChaosIngredient> > >
_TEXT	ENDS
; Function compile flags: /Ogtp
; File c:\program files (x86)\microsoft visual studio 14.0\vc\include\xmemory
;	COMDAT ??$_Uninit_copy@PBUChaosProduce@@PAU1@U?$_Wrap_alloc@V?$allocator@UChaosProduce@@@std@@@std@@@std@@YAPAUChaosProduce@@PBU1@0PAU1@AAU?$_Wrap_alloc@V?$allocator@UChaosProduce@@@std@@@0@@Z
_TEXT	SEGMENT
__Cat$1 = -4						; size = 1
__First$ = 8						; size = 4
__Last$ = 12						; size = 4
__Dest$ = 16						; size = 4
__Al$ = 20						; size = 4
??$_Uninit_copy@PBUChaosProduce@@PAU1@U?$_Wrap_alloc@V?$allocator@UChaosProduce@@@std@@@std@@@std@@YAPAUChaosProduce@@PBU1@0PAU1@AAU?$_Wrap_alloc@V?$allocator@UChaosProduce@@@std@@@0@@Z PROC ; std::_Uninit_copy<ChaosProduce const *,ChaosProduce *,std::_Wrap_alloc<std::allocator<ChaosProduce> > >, COMDAT

; 414  : 	{	// copy [_First, _Last) to raw _Dest, using _Al

  00000	55		 push	 ebp
  00001	8b ec		 mov	 ebp, esp
  00003	51		 push	 ecx

; 415  : 	return (_Uninit_copy(_First, _Last, _Dest, _Al,

  00004	ff 75 fc	 push	 DWORD PTR __Cat$1[ebp]
  00007	ff 75 14	 push	 DWORD PTR __Al$[ebp]
  0000a	ff 75 10	 push	 DWORD PTR __Dest$[ebp]
  0000d	ff 75 0c	 push	 DWORD PTR __Last$[ebp]
  00010	ff 75 08	 push	 DWORD PTR __First$[ebp]
  00013	e8 00 00 00 00	 call	 ??$_Uninit_copy@PBUChaosProduce@@PAU1@V?$allocator@UChaosProduce@@@std@@@std@@YAPAUChaosProduce@@PBU1@0PAU1@AAU?$_Wrap_alloc@V?$allocator@UChaosProduce@@@std@@@0@U_Nonscalar_ptr_iterator_tag@0@@Z ; std::_Uninit_copy<ChaosProduce const *,ChaosProduce *,std::allocator<ChaosProduce> >
  00018	83 c4 14	 add	 esp, 20			; 00000014H

; 416  : 		_Ptr_cat(_First, _Dest)));
; 417  : 	}

  0001b	8b e5		 mov	 esp, ebp
  0001d	5d		 pop	 ebp
  0001e	c3		 ret	 0
??$_Uninit_copy@PBUChaosProduce@@PAU1@U?$_Wrap_alloc@V?$allocator@UChaosProduce@@@std@@@std@@@std@@YAPAUChaosProduce@@PBU1@0PAU1@AAU?$_Wrap_alloc@V?$allocator@UChaosProduce@@@std@@@0@@Z ENDP ; std::_Uninit_copy<ChaosProduce const *,ChaosProduce *,std::_Wrap_alloc<std::allocator<ChaosProduce> > >
_TEXT	ENDS
; Function compile flags: /Ogtp
; File c:\program files (x86)\microsoft visual studio 14.0\vc\include\vector
;	COMDAT ??$_Unchecked@V?$_Vector_val@U?$_Simple_types@UChaosProduce@@@std@@@std@@@std@@YAPBUChaosProduce@@V?$_Vector_const_iterator@V?$_Vector_val@U?$_Simple_types@UChaosProduce@@@std@@@std@@@0@@Z
_TEXT	SEGMENT
__Iter$ = 8						; size = 4
??$_Unchecked@V?$_Vector_val@U?$_Simple_types@UChaosProduce@@@std@@@std@@@std@@YAPBUChaosProduce@@V?$_Vector_const_iterator@V?$_Vector_val@U?$_Simple_types@UChaosProduce@@@std@@@std@@@0@@Z PROC ; std::_Unchecked<std::_Vector_val<std::_Simple_types<ChaosProduce> > >, COMDAT

; 265  : 	{	// convert to unchecked

  00000	55		 push	 ebp
  00001	8b ec		 mov	 ebp, esp

; 266  : 	return (_Iter._Unchecked());

  00003	8b 45 08	 mov	 eax, DWORD PTR __Iter$[ebp]

; 267  : 	}

  00006	5d		 pop	 ebp
  00007	c3		 ret	 0
??$_Unchecked@V?$_Vector_val@U?$_Simple_types@UChaosProduce@@@std@@@std@@@std@@YAPBUChaosProduce@@V?$_Vector_const_iterator@V?$_Vector_val@U?$_Simple_types@UChaosProduce@@@std@@@std@@@0@@Z ENDP ; std::_Unchecked<std::_Vector_val<std::_Simple_types<ChaosProduce> > >
_TEXT	ENDS
; Function compile flags: /Ogtp
; File c:\program files (x86)\microsoft visual studio 14.0\vc\include\xmemory
;	COMDAT ??$_Uninit_copy@PBUChaosTalisman@@PAU1@U?$_Wrap_alloc@V?$allocator@UChaosTalisman@@@std@@@std@@@std@@YAPAUChaosTalisman@@PBU1@0PAU1@AAU?$_Wrap_alloc@V?$allocator@UChaosTalisman@@@std@@@0@@Z
_TEXT	SEGMENT
__Cat$1 = -4						; size = 1
__First$ = 8						; size = 4
__Last$ = 12						; size = 4
__Dest$ = 16						; size = 4
__Al$ = 20						; size = 4
??$_Uninit_copy@PBUChaosTalisman@@PAU1@U?$_Wrap_alloc@V?$allocator@UChaosTalisman@@@std@@@std@@@std@@YAPAUChaosTalisman@@PBU1@0PAU1@AAU?$_Wrap_alloc@V?$allocator@UChaosTalisman@@@std@@@0@@Z PROC ; std::_Uninit_copy<ChaosTalisman const *,ChaosTalisman *,std::_Wrap_alloc<std::allocator<ChaosTalisman> > >, COMDAT

; 414  : 	{	// copy [_First, _Last) to raw _Dest, using _Al

  00000	55		 push	 ebp
  00001	8b ec		 mov	 ebp, esp
  00003	51		 push	 ecx

; 415  : 	return (_Uninit_copy(_First, _Last, _Dest, _Al,

  00004	ff 75 fc	 push	 DWORD PTR __Cat$1[ebp]
  00007	ff 75 14	 push	 DWORD PTR __Al$[ebp]
  0000a	ff 75 10	 push	 DWORD PTR __Dest$[ebp]
  0000d	ff 75 0c	 push	 DWORD PTR __Last$[ebp]
  00010	ff 75 08	 push	 DWORD PTR __First$[ebp]
  00013	e8 00 00 00 00	 call	 ??$_Uninit_copy@PBUChaosTalisman@@PAU1@V?$allocator@UChaosTalisman@@@std@@@std@@YAPAUChaosTalisman@@PBU1@0PAU1@AAU?$_Wrap_alloc@V?$allocator@UChaosTalisman@@@std@@@0@U_Nonscalar_ptr_iterator_tag@0@@Z ; std::_Uninit_copy<ChaosTalisman const *,ChaosTalisman *,std::allocator<ChaosTalisman> >
  00018	83 c4 14	 add	 esp, 20			; 00000014H

; 416  : 		_Ptr_cat(_First, _Dest)));
; 417  : 	}

  0001b	8b e5		 mov	 esp, ebp
  0001d	5d		 pop	 ebp
  0001e	c3		 ret	 0
??$_Uninit_copy@PBUChaosTalisman@@PAU1@U?$_Wrap_alloc@V?$allocator@UChaosTalisman@@@std@@@std@@@std@@YAPAUChaosTalisman@@PBU1@0PAU1@AAU?$_Wrap_alloc@V?$allocator@UChaosTalisman@@@std@@@0@@Z ENDP ; std::_Uninit_copy<ChaosTalisman const *,ChaosTalisman *,std::_Wrap_alloc<std::allocator<ChaosTalisman> > >
_TEXT	ENDS
; Function compile flags: /Ogtp
; File c:\program files (x86)\microsoft visual studio 14.0\vc\include\vector
;	COMDAT ??$_Unchecked@V?$_Vector_val@U?$_Simple_types@UChaosTalisman@@@std@@@std@@@std@@YAPBUChaosTalisman@@V?$_Vector_const_iterator@V?$_Vector_val@U?$_Simple_types@UChaosTalisman@@@std@@@std@@@0@@Z
_TEXT	SEGMENT
__Iter$ = 8						; size = 4
??$_Unchecked@V?$_Vector_val@U?$_Simple_types@UChaosTalisman@@@std@@@std@@@std@@YAPBUChaosTalisman@@V?$_Vector_const_iterator@V?$_Vector_val@U?$_Simple_types@UChaosTalisman@@@std@@@std@@@0@@Z PROC ; std::_Unchecked<std::_Vector_val<std::_Simple_types<ChaosTalisman> > >, COMDAT

; 265  : 	{	// convert to unchecked

  00000	55		 push	 ebp
  00001	8b ec		 mov	 ebp, esp

; 266  : 	return (_Iter._Unchecked());

  00003	8b 45 08	 mov	 eax, DWORD PTR __Iter$[ebp]

; 267  : 	}

  00006	5d		 pop	 ebp
  00007	c3		 ret	 0
??$_Unchecked@V?$_Vector_val@U?$_Simple_types@UChaosTalisman@@@std@@@std@@@std@@YAPBUChaosTalisman@@V?$_Vector_const_iterator@V?$_Vector_val@U?$_Simple_types@UChaosTalisman@@@std@@@std@@@0@@Z ENDP ; std::_Unchecked<std::_Vector_val<std::_Simple_types<ChaosTalisman> > >
_TEXT	ENDS
; Function compile flags: /Ogtp
; File c:\program files (x86)\microsoft visual studio 14.0\vc\include\xmemory0
;	COMDAT ??$construct@UChaosIngredient@@U1@@?$allocator_traits@V?$allocator@UChaosIngredient@@@std@@@std@@SAXAAV?$allocator@UChaosIngredient@@@1@PAUChaosIngredient@@$$QAU3@@Z
_TEXT	SEGMENT
__Al$ = 8						; size = 4
__Ptr$ = 12						; size = 4
_<_Args_0>$ = 16					; size = 4
??$construct@UChaosIngredient@@U1@@?$allocator_traits@V?$allocator@UChaosIngredient@@@std@@@std@@SAXAAV?$allocator@UChaosIngredient@@@1@PAUChaosIngredient@@$$QAU3@@Z PROC ; std::allocator_traits<std::allocator<ChaosIngredient> >::construct<ChaosIngredient,ChaosIngredient>, COMDAT

; 772  : 		{	// construct _Objty(_Types...) at _Ptr

  00000	55		 push	 ebp
  00001	8b ec		 mov	 ebp, esp

; 655  : 		::new ((void *)_Ptr) _Objty(_STD forward<_Types>(_Args)...);

  00003	8b 4d 0c	 mov	 ecx, DWORD PTR __Ptr$[ebp]
  00006	85 c9		 test	 ecx, ecx
  00008	74 29		 je	 SHORT $LN8@construct
  0000a	8b 45 10	 mov	 eax, DWORD PTR _<_Args_0>$[ebp]
  0000d	0f 10 00	 movups	 xmm0, XMMWORD PTR [eax]
  00010	0f 11 01	 movups	 XMMWORD PTR [ecx], xmm0
  00013	0f 10 40 10	 movups	 xmm0, XMMWORD PTR [eax+16]
  00017	0f 11 41 10	 movups	 XMMWORD PTR [ecx+16], xmm0
  0001b	0f 10 40 20	 movups	 xmm0, XMMWORD PTR [eax+32]
  0001f	0f 11 41 20	 movups	 XMMWORD PTR [ecx+32], xmm0
  00023	0f 10 40 30	 movups	 xmm0, XMMWORD PTR [eax+48]
  00027	0f 11 41 30	 movups	 XMMWORD PTR [ecx+48], xmm0
  0002b	66 8b 40 40	 mov	 ax, WORD PTR [eax+64]
  0002f	66 89 41 40	 mov	 WORD PTR [ecx+64], ax
$LN8@construct:

; 773  : 		_Al.construct(_Ptr, _STD forward<_Types>(_Args)...);
; 774  : 		}

  00033	5d		 pop	 ebp
  00034	c3		 ret	 0
??$construct@UChaosIngredient@@U1@@?$allocator_traits@V?$allocator@UChaosIngredient@@@std@@@std@@SAXAAV?$allocator@UChaosIngredient@@@1@PAUChaosIngredient@@$$QAU3@@Z ENDP ; std::allocator_traits<std::allocator<ChaosIngredient> >::construct<ChaosIngredient,ChaosIngredient>
_TEXT	ENDS
; Function compile flags: /Ogtp
; File c:\program files (x86)\microsoft visual studio 14.0\vc\include\type_traits
;	COMDAT ??$forward@UChaosIngredient@@@std@@YA$$QAUChaosIngredient@@AAU1@@Z
_TEXT	SEGMENT
__Arg$ = 8						; size = 4
??$forward@UChaosIngredient@@@std@@YA$$QAUChaosIngredient@@AAU1@@Z PROC ; std::forward<ChaosIngredient>, COMDAT

; 1233 : 	{	// forward an lvalue as either an lvalue or an rvalue

  00000	55		 push	 ebp
  00001	8b ec		 mov	 ebp, esp

; 1234 : 	return (static_cast<_Ty&&>(_Arg));

  00003	8b 45 08	 mov	 eax, DWORD PTR __Arg$[ebp]

; 1235 : 	}

  00006	5d		 pop	 ebp
  00007	c3		 ret	 0
??$forward@UChaosIngredient@@@std@@YA$$QAUChaosIngredient@@AAU1@@Z ENDP ; std::forward<ChaosIngredient>
_TEXT	ENDS
; Function compile flags: /Ogtp
; File c:\program files (x86)\microsoft visual studio 14.0\vc\include\xmemory0
;	COMDAT ??$construct@UChaosProduce@@U1@@?$allocator_traits@V?$allocator@UChaosProduce@@@std@@@std@@SAXAAV?$allocator@UChaosProduce@@@1@PAUChaosProduce@@$$QAU3@@Z
_TEXT	SEGMENT
__Al$ = 8						; size = 4
__Ptr$ = 12						; size = 4
_<_Args_0>$ = 16					; size = 4
??$construct@UChaosProduce@@U1@@?$allocator_traits@V?$allocator@UChaosProduce@@@std@@@std@@SAXAAV?$allocator@UChaosProduce@@@1@PAUChaosProduce@@$$QAU3@@Z PROC ; std::allocator_traits<std::allocator<ChaosProduce> >::construct<ChaosProduce,ChaosProduce>, COMDAT

; 772  : 		{	// construct _Objty(_Types...) at _Ptr

  00000	55		 push	 ebp
  00001	8b ec		 mov	 ebp, esp

; 655  : 		::new ((void *)_Ptr) _Objty(_STD forward<_Types>(_Args)...);

  00003	8b 4d 0c	 mov	 ecx, DWORD PTR __Ptr$[ebp]
  00006	85 c9		 test	 ecx, ecx
  00008	74 09		 je	 SHORT $LN8@construct
  0000a	8b 45 10	 mov	 eax, DWORD PTR _<_Args_0>$[ebp]
  0000d	0f 10 00	 movups	 xmm0, XMMWORD PTR [eax]
  00010	0f 11 01	 movups	 XMMWORD PTR [ecx], xmm0
$LN8@construct:

; 773  : 		_Al.construct(_Ptr, _STD forward<_Types>(_Args)...);
; 774  : 		}

  00013	5d		 pop	 ebp
  00014	c3		 ret	 0
??$construct@UChaosProduce@@U1@@?$allocator_traits@V?$allocator@UChaosProduce@@@std@@@std@@SAXAAV?$allocator@UChaosProduce@@@1@PAUChaosProduce@@$$QAU3@@Z ENDP ; std::allocator_traits<std::allocator<ChaosProduce> >::construct<ChaosProduce,ChaosProduce>
_TEXT	ENDS
; Function compile flags: /Ogtp
; File c:\program files (x86)\microsoft visual studio 14.0\vc\include\type_traits
;	COMDAT ??$forward@UChaosProduce@@@std@@YA$$QAUChaosProduce@@AAU1@@Z
_TEXT	SEGMENT
__Arg$ = 8						; size = 4
??$forward@UChaosProduce@@@std@@YA$$QAUChaosProduce@@AAU1@@Z PROC ; std::forward<ChaosProduce>, COMDAT

; 1233 : 	{	// forward an lvalue as either an lvalue or an rvalue

  00000	55		 push	 ebp
  00001	8b ec		 mov	 ebp, esp

; 1234 : 	return (static_cast<_Ty&&>(_Arg));

  00003	8b 45 08	 mov	 eax, DWORD PTR __Arg$[ebp]

; 1235 : 	}

  00006	5d		 pop	 ebp
  00007	c3		 ret	 0
??$forward@UChaosProduce@@@std@@YA$$QAUChaosProduce@@AAU1@@Z ENDP ; std::forward<ChaosProduce>
_TEXT	ENDS
; Function compile flags: /Ogtp
; File c:\program files (x86)\microsoft visual studio 14.0\vc\include\xmemory0
;	COMDAT ??$construct@UChaosTalisman@@U1@@?$allocator_traits@V?$allocator@UChaosTalisman@@@std@@@std@@SAXAAV?$allocator@UChaosTalisman@@@1@PAUChaosTalisman@@$$QAU3@@Z
_TEXT	SEGMENT
__Al$ = 8						; size = 4
__Ptr$ = 12						; size = 4
_<_Args_0>$ = 16					; size = 4
??$construct@UChaosTalisman@@U1@@?$allocator_traits@V?$allocator@UChaosTalisman@@@std@@@std@@SAXAAV?$allocator@UChaosTalisman@@@1@PAUChaosTalisman@@$$QAU3@@Z PROC ; std::allocator_traits<std::allocator<ChaosTalisman> >::construct<ChaosTalisman,ChaosTalisman>, COMDAT

; 772  : 		{	// construct _Objty(_Types...) at _Ptr

  00000	55		 push	 ebp
  00001	8b ec		 mov	 ebp, esp

; 655  : 		::new ((void *)_Ptr) _Objty(_STD forward<_Types>(_Args)...);

  00003	8b 4d 0c	 mov	 ecx, DWORD PTR __Ptr$[ebp]
  00006	85 c9		 test	 ecx, ecx
  00008	74 09		 je	 SHORT $LN8@construct
  0000a	8b 45 10	 mov	 eax, DWORD PTR _<_Args_0>$[ebp]
  0000d	0f 10 00	 movups	 xmm0, XMMWORD PTR [eax]
  00010	0f 11 01	 movups	 XMMWORD PTR [ecx], xmm0
$LN8@construct:

; 773  : 		_Al.construct(_Ptr, _STD forward<_Types>(_Args)...);
; 774  : 		}

  00013	5d		 pop	 ebp
  00014	c3		 ret	 0
??$construct@UChaosTalisman@@U1@@?$allocator_traits@V?$allocator@UChaosTalisman@@@std@@@std@@SAXAAV?$allocator@UChaosTalisman@@@1@PAUChaosTalisman@@$$QAU3@@Z ENDP ; std::allocator_traits<std::allocator<ChaosTalisman> >::construct<ChaosTalisman,ChaosTalisman>
_TEXT	ENDS
; Function compile flags: /Ogtp
; File c:\program files (x86)\microsoft visual studio 14.0\vc\include\type_traits
;	COMDAT ??$forward@UChaosTalisman@@@std@@YA$$QAUChaosTalisman@@AAU1@@Z
_TEXT	SEGMENT
__Arg$ = 8						; size = 4
??$forward@UChaosTalisman@@@std@@YA$$QAUChaosTalisman@@AAU1@@Z PROC ; std::forward<ChaosTalisman>, COMDAT

; 1233 : 	{	// forward an lvalue as either an lvalue or an rvalue

  00000	55		 push	 ebp
  00001	8b ec		 mov	 ebp, esp

; 1234 : 	return (static_cast<_Ty&&>(_Arg));

  00003	8b 45 08	 mov	 eax, DWORD PTR __Arg$[ebp]

; 1235 : 	}

  00006	5d		 pop	 ebp
  00007	c3		 ret	 0
??$forward@UChaosTalisman@@@std@@YA$$QAUChaosTalisman@@AAU1@@Z ENDP ; std::forward<ChaosTalisman>
_TEXT	ENDS
; Function compile flags: /Ogtp
; File c:\program files (x86)\microsoft visual studio 14.0\vc\include\xmemory0
;	COMDAT ??$construct@UChaosCombination@@U1@@?$allocator_traits@V?$allocator@UChaosCombination@@@std@@@std@@SAXAAV?$allocator@UChaosCombination@@@1@PAUChaosCombination@@$$QAU3@@Z
_TEXT	SEGMENT
__Al$ = 8						; size = 4
__Ptr$ = 12						; size = 4
_<_Args_0>$ = 16					; size = 4
??$construct@UChaosCombination@@U1@@?$allocator_traits@V?$allocator@UChaosCombination@@@std@@@std@@SAXAAV?$allocator@UChaosCombination@@@1@PAUChaosCombination@@$$QAU3@@Z PROC ; std::allocator_traits<std::allocator<ChaosCombination> >::construct<ChaosCombination,ChaosCombination>, COMDAT

; 772  : 		{	// construct _Objty(_Types...) at _Ptr

  00000	55		 push	 ebp
  00001	8b ec		 mov	 ebp, esp

; 655  : 		::new ((void *)_Ptr) _Objty(_STD forward<_Types>(_Args)...);

  00003	8b 4d 0c	 mov	 ecx, DWORD PTR __Ptr$[ebp]
  00006	85 c9		 test	 ecx, ecx
  00008	74 08		 je	 SHORT $LN8@construct
  0000a	ff 75 10	 push	 DWORD PTR _<_Args_0>$[ebp]
  0000d	e8 00 00 00 00	 call	 ??0ChaosCombination@@QAE@$$QAU0@@Z
$LN8@construct:

; 773  : 		_Al.construct(_Ptr, _STD forward<_Types>(_Args)...);
; 774  : 		}

  00012	5d		 pop	 ebp
  00013	c3		 ret	 0
??$construct@UChaosCombination@@U1@@?$allocator_traits@V?$allocator@UChaosCombination@@@std@@@std@@SAXAAV?$allocator@UChaosCombination@@@1@PAUChaosCombination@@$$QAU3@@Z ENDP ; std::allocator_traits<std::allocator<ChaosCombination> >::construct<ChaosCombination,ChaosCombination>
_TEXT	ENDS
; Function compile flags: /Ogtp
; File c:\program files (x86)\microsoft visual studio 14.0\vc\include\type_traits
;	COMDAT ??$forward@UChaosCombination@@@std@@YA$$QAUChaosCombination@@AAU1@@Z
_TEXT	SEGMENT
__Arg$ = 8						; size = 4
??$forward@UChaosCombination@@@std@@YA$$QAUChaosCombination@@AAU1@@Z PROC ; std::forward<ChaosCombination>, COMDAT

; 1233 : 	{	// forward an lvalue as either an lvalue or an rvalue

  00000	55		 push	 ebp
  00001	8b ec		 mov	 ebp, esp

; 1234 : 	return (static_cast<_Ty&&>(_Arg));

  00003	8b 45 08	 mov	 eax, DWORD PTR __Arg$[ebp]

; 1235 : 	}

  00006	5d		 pop	 ebp
  00007	c3		 ret	 0
??$forward@UChaosCombination@@@std@@YA$$QAUChaosCombination@@AAU1@@Z ENDP ; std::forward<ChaosCombination>
_TEXT	ENDS
; Function compile flags: /Ogtp
; File c:\program files (x86)\microsoft visual studio 14.0\vc\include\type_traits
;	COMDAT ??$forward@V?$allocator@UChaosIngredient@@@std@@@std@@YA$$QAV?$allocator@UChaosIngredient@@@0@AAV10@@Z
_TEXT	SEGMENT
__Arg$ = 8						; size = 4
??$forward@V?$allocator@UChaosIngredient@@@std@@@std@@YA$$QAV?$allocator@UChaosIngredient@@@0@AAV10@@Z PROC ; std::forward<std::allocator<ChaosIngredient> >, COMDAT

; 1233 : 	{	// forward an lvalue as either an lvalue or an rvalue

  00000	55		 push	 ebp
  00001	8b ec		 mov	 ebp, esp

; 1234 : 	return (static_cast<_Ty&&>(_Arg));

  00003	8b 45 08	 mov	 eax, DWORD PTR __Arg$[ebp]

; 1235 : 	}

  00006	5d		 pop	 ebp
  00007	c3		 ret	 0
??$forward@V?$allocator@UChaosIngredient@@@std@@@std@@YA$$QAV?$allocator@UChaosIngredient@@@0@AAV10@@Z ENDP ; std::forward<std::allocator<ChaosIngredient> >
_TEXT	ENDS
; Function compile flags: /Ogtp
; File c:\program files (x86)\microsoft visual studio 14.0\vc\include\type_traits
;	COMDAT ??$forward@V?$allocator@UChaosProduce@@@std@@@std@@YA$$QAV?$allocator@UChaosProduce@@@0@AAV10@@Z
_TEXT	SEGMENT
__Arg$ = 8						; size = 4
??$forward@V?$allocator@UChaosProduce@@@std@@@std@@YA$$QAV?$allocator@UChaosProduce@@@0@AAV10@@Z PROC ; std::forward<std::allocator<ChaosProduce> >, COMDAT

; 1233 : 	{	// forward an lvalue as either an lvalue or an rvalue

  00000	55		 push	 ebp
  00001	8b ec		 mov	 ebp, esp

; 1234 : 	return (static_cast<_Ty&&>(_Arg));

  00003	8b 45 08	 mov	 eax, DWORD PTR __Arg$[ebp]

; 1235 : 	}

  00006	5d		 pop	 ebp
  00007	c3		 ret	 0
??$forward@V?$allocator@UChaosProduce@@@std@@@std@@YA$$QAV?$allocator@UChaosProduce@@@0@AAV10@@Z ENDP ; std::forward<std::allocator<ChaosProduce> >
_TEXT	ENDS
; Function compile flags: /Ogtp
; File c:\program files (x86)\microsoft visual studio 14.0\vc\include\type_traits
;	COMDAT ??$forward@V?$allocator@UChaosTalisman@@@std@@@std@@YA$$QAV?$allocator@UChaosTalisman@@@0@AAV10@@Z
_TEXT	SEGMENT
__Arg$ = 8						; size = 4
??$forward@V?$allocator@UChaosTalisman@@@std@@@std@@YA$$QAV?$allocator@UChaosTalisman@@@0@AAV10@@Z PROC ; std::forward<std::allocator<ChaosTalisman> >, COMDAT

; 1233 : 	{	// forward an lvalue as either an lvalue or an rvalue

  00000	55		 push	 ebp
  00001	8b ec		 mov	 ebp, esp

; 1234 : 	return (static_cast<_Ty&&>(_Arg));

  00003	8b 45 08	 mov	 eax, DWORD PTR __Arg$[ebp]

; 1235 : 	}

  00006	5d		 pop	 ebp
  00007	c3		 ret	 0
??$forward@V?$allocator@UChaosTalisman@@@std@@@std@@YA$$QAV?$allocator@UChaosTalisman@@@0@AAV10@@Z ENDP ; std::forward<std::allocator<ChaosTalisman> >
_TEXT	ENDS
; Function compile flags: /Ogtp
; File c:\program files (x86)\microsoft visual studio 14.0\vc\include\xmemory
;	COMDAT ??$_Uninitialized_copy@V?$_Vector_const_iterator@V?$_Vector_val@U?$_Simple_types@UChaosIngredient@@@std@@@std@@@std@@PAUChaosIngredient@@U?$_Wrap_alloc@V?$allocator@UChaosIngredient@@@std@@@2@@std@@YAPAUChaosIngredient@@V?$_Vector_const_iterator@V?$_Vector_val@U?$_Simple_types@UChaosIngredient@@@std@@@std@@@0@0PAU1@AAU?$_Wrap_alloc@V?$allocator@UChaosIngredient@@@std@@@0@@Z
_TEXT	SEGMENT
__First$ = 8						; size = 4
__Last$ = 12						; size = 4
__Cat$1 = 16						; size = 1
__Dest$ = 16						; size = 4
__Al$ = 20						; size = 4
??$_Uninitialized_copy@V?$_Vector_const_iterator@V?$_Vector_val@U?$_Simple_types@UChaosIngredient@@@std@@@std@@@std@@PAUChaosIngredient@@U?$_Wrap_alloc@V?$allocator@UChaosIngredient@@@std@@@2@@std@@YAPAUChaosIngredient@@V?$_Vector_const_iterator@V?$_Vector_val@U?$_Simple_types@UChaosIngredient@@@std@@@std@@@0@0PAU1@AAU?$_Wrap_alloc@V?$allocator@UChaosIngredient@@@std@@@0@@Z PROC ; std::_Uninitialized_copy<std::_Vector_const_iterator<std::_Vector_val<std::_Simple_types<ChaosIngredient> > >,ChaosIngredient *,std::_Wrap_alloc<std::allocator<ChaosIngredient> > >, COMDAT

; 424  : 	{	// copy [_First, _Last) to raw _Dest, using _Al

  00000	55		 push	 ebp
  00001	8b ec		 mov	 ebp, esp

; 415  : 	return (_Uninit_copy(_First, _Last, _Dest, _Al,

  00003	ff 75 10	 push	 DWORD PTR __Cat$1[ebp]
  00006	ff 75 14	 push	 DWORD PTR __Al$[ebp]
  00009	ff 75 10	 push	 DWORD PTR __Dest$[ebp]
  0000c	ff 75 0c	 push	 DWORD PTR __Last$[ebp]
  0000f	ff 75 08	 push	 DWORD PTR __First$[ebp]
  00012	e8 00 00 00 00	 call	 ??$_Uninit_copy@PBUChaosIngredient@@PAU1@V?$allocator@UChaosIngredient@@@std@@@std@@YAPAUChaosIngredient@@PBU1@0PAU1@AAU?$_Wrap_alloc@V?$allocator@UChaosIngredient@@@std@@@0@U_Nonscalar_ptr_iterator_tag@0@@Z ; std::_Uninit_copy<ChaosIngredient const *,ChaosIngredient *,std::allocator<ChaosIngredient> >
  00017	83 c4 14	 add	 esp, 20			; 00000014H

; 425  : 	return (_Rechecked(_Dest,
; 426  : 		_Uninit_copy(_Unchecked(_First), _Unchecked(_Last),
; 427  : 			_Unchecked(_Dest), _Al)));
; 428  : 	}

  0001a	5d		 pop	 ebp
  0001b	c3		 ret	 0
??$_Uninitialized_copy@V?$_Vector_const_iterator@V?$_Vector_val@U?$_Simple_types@UChaosIngredient@@@std@@@std@@@std@@PAUChaosIngredient@@U?$_Wrap_alloc@V?$allocator@UChaosIngredient@@@std@@@2@@std@@YAPAUChaosIngredient@@V?$_Vector_const_iterator@V?$_Vector_val@U?$_Simple_types@UChaosIngredient@@@std@@@std@@@0@0PAU1@AAU?$_Wrap_alloc@V?$allocator@UChaosIngredient@@@std@@@0@@Z ENDP ; std::_Uninitialized_copy<std::_Vector_const_iterator<std::_Vector_val<std::_Simple_types<ChaosIngredient> > >,ChaosIngredient *,std::_Wrap_alloc<std::allocator<ChaosIngredient> > >
_TEXT	ENDS
; Function compile flags: /Ogtp
; File c:\program files (x86)\microsoft visual studio 14.0\vc\include\xmemory
;	COMDAT ??$_Uninitialized_copy@V?$_Vector_const_iterator@V?$_Vector_val@U?$_Simple_types@UChaosProduce@@@std@@@std@@@std@@PAUChaosProduce@@U?$_Wrap_alloc@V?$allocator@UChaosProduce@@@std@@@2@@std@@YAPAUChaosProduce@@V?$_Vector_const_iterator@V?$_Vector_val@U?$_Simple_types@UChaosProduce@@@std@@@std@@@0@0PAU1@AAU?$_Wrap_alloc@V?$allocator@UChaosProduce@@@std@@@0@@Z
_TEXT	SEGMENT
__First$ = 8						; size = 4
__Last$ = 12						; size = 4
__Cat$1 = 16						; size = 1
__Dest$ = 16						; size = 4
__Al$ = 20						; size = 4
??$_Uninitialized_copy@V?$_Vector_const_iterator@V?$_Vector_val@U?$_Simple_types@UChaosProduce@@@std@@@std@@@std@@PAUChaosProduce@@U?$_Wrap_alloc@V?$allocator@UChaosProduce@@@std@@@2@@std@@YAPAUChaosProduce@@V?$_Vector_const_iterator@V?$_Vector_val@U?$_Simple_types@UChaosProduce@@@std@@@std@@@0@0PAU1@AAU?$_Wrap_alloc@V?$allocator@UChaosProduce@@@std@@@0@@Z PROC ; std::_Uninitialized_copy<std::_Vector_const_iterator<std::_Vector_val<std::_Simple_types<ChaosProduce> > >,ChaosProduce *,std::_Wrap_alloc<std::allocator<ChaosProduce> > >, COMDAT

; 424  : 	{	// copy [_First, _Last) to raw _Dest, using _Al

  00000	55		 push	 ebp
  00001	8b ec		 mov	 ebp, esp

; 415  : 	return (_Uninit_copy(_First, _Last, _Dest, _Al,

  00003	ff 75 10	 push	 DWORD PTR __Cat$1[ebp]
  00006	ff 75 14	 push	 DWORD PTR __Al$[ebp]
  00009	ff 75 10	 push	 DWORD PTR __Dest$[ebp]
  0000c	ff 75 0c	 push	 DWORD PTR __Last$[ebp]
  0000f	ff 75 08	 push	 DWORD PTR __First$[ebp]
  00012	e8 00 00 00 00	 call	 ??$_Uninit_copy@PBUChaosProduce@@PAU1@V?$allocator@UChaosProduce@@@std@@@std@@YAPAUChaosProduce@@PBU1@0PAU1@AAU?$_Wrap_alloc@V?$allocator@UChaosProduce@@@std@@@0@U_Nonscalar_ptr_iterator_tag@0@@Z ; std::_Uninit_copy<ChaosProduce const *,ChaosProduce *,std::allocator<ChaosProduce> >
  00017	83 c4 14	 add	 esp, 20			; 00000014H

; 425  : 	return (_Rechecked(_Dest,
; 426  : 		_Uninit_copy(_Unchecked(_First), _Unchecked(_Last),
; 427  : 			_Unchecked(_Dest), _Al)));
; 428  : 	}

  0001a	5d		 pop	 ebp
  0001b	c3		 ret	 0
??$_Uninitialized_copy@V?$_Vector_const_iterator@V?$_Vector_val@U?$_Simple_types@UChaosProduce@@@std@@@std@@@std@@PAUChaosProduce@@U?$_Wrap_alloc@V?$allocator@UChaosProduce@@@std@@@2@@std@@YAPAUChaosProduce@@V?$_Vector_const_iterator@V?$_Vector_val@U?$_Simple_types@UChaosProduce@@@std@@@std@@@0@0PAU1@AAU?$_Wrap_alloc@V?$allocator@UChaosProduce@@@std@@@0@@Z ENDP ; std::_Uninitialized_copy<std::_Vector_const_iterator<std::_Vector_val<std::_Simple_types<ChaosProduce> > >,ChaosProduce *,std::_Wrap_alloc<std::allocator<ChaosProduce> > >
_TEXT	ENDS
; Function compile flags: /Ogtp
; File c:\program files (x86)\microsoft visual studio 14.0\vc\include\xmemory
;	COMDAT ??$_Uninitialized_copy@V?$_Vector_const_iterator@V?$_Vector_val@U?$_Simple_types@UChaosTalisman@@@std@@@std@@@std@@PAUChaosTalisman@@U?$_Wrap_alloc@V?$allocator@UChaosTalisman@@@std@@@2@@std@@YAPAUChaosTalisman@@V?$_Vector_const_iterator@V?$_Vector_val@U?$_Simple_types@UChaosTalisman@@@std@@@std@@@0@0PAU1@AAU?$_Wrap_alloc@V?$allocator@UChaosTalisman@@@std@@@0@@Z
_TEXT	SEGMENT
__First$ = 8						; size = 4
__Last$ = 12						; size = 4
__Cat$1 = 16						; size = 1
__Dest$ = 16						; size = 4
__Al$ = 20						; size = 4
??$_Uninitialized_copy@V?$_Vector_const_iterator@V?$_Vector_val@U?$_Simple_types@UChaosTalisman@@@std@@@std@@@std@@PAUChaosTalisman@@U?$_Wrap_alloc@V?$allocator@UChaosTalisman@@@std@@@2@@std@@YAPAUChaosTalisman@@V?$_Vector_const_iterator@V?$_Vector_val@U?$_Simple_types@UChaosTalisman@@@std@@@std@@@0@0PAU1@AAU?$_Wrap_alloc@V?$allocator@UChaosTalisman@@@std@@@0@@Z PROC ; std::_Uninitialized_copy<std::_Vector_const_iterator<std::_Vector_val<std::_Simple_types<ChaosTalisman> > >,ChaosTalisman *,std::_Wrap_alloc<std::allocator<ChaosTalisman> > >, COMDAT

; 424  : 	{	// copy [_First, _Last) to raw _Dest, using _Al

  00000	55		 push	 ebp
  00001	8b ec		 mov	 ebp, esp

; 415  : 	return (_Uninit_copy(_First, _Last, _Dest, _Al,

  00003	ff 75 10	 push	 DWORD PTR __Cat$1[ebp]
  00006	ff 75 14	 push	 DWORD PTR __Al$[ebp]
  00009	ff 75 10	 push	 DWORD PTR __Dest$[ebp]
  0000c	ff 75 0c	 push	 DWORD PTR __Last$[ebp]
  0000f	ff 75 08	 push	 DWORD PTR __First$[ebp]
  00012	e8 00 00 00 00	 call	 ??$_Uninit_copy@PBUChaosTalisman@@PAU1@V?$allocator@UChaosTalisman@@@std@@@std@@YAPAUChaosTalisman@@PBU1@0PAU1@AAU?$_Wrap_alloc@V?$allocator@UChaosTalisman@@@std@@@0@U_Nonscalar_ptr_iterator_tag@0@@Z ; std::_Uninit_copy<ChaosTalisman const *,ChaosTalisman *,std::allocator<ChaosTalisman> >
  00017	83 c4 14	 add	 esp, 20			; 00000014H

; 425  : 	return (_Rechecked(_Dest,
; 426  : 		_Uninit_copy(_Unchecked(_First), _Unchecked(_Last),
; 427  : 			_Unchecked(_Dest), _Al)));
; 428  : 	}

  0001a	5d		 pop	 ebp
  0001b	c3		 ret	 0
??$_Uninitialized_copy@V?$_Vector_const_iterator@V?$_Vector_val@U?$_Simple_types@UChaosTalisman@@@std@@@std@@@std@@PAUChaosTalisman@@U?$_Wrap_alloc@V?$allocator@UChaosTalisman@@@std@@@2@@std@@YAPAUChaosTalisman@@V?$_Vector_const_iterator@V?$_Vector_val@U?$_Simple_types@UChaosTalisman@@@std@@@std@@@0@0PAU1@AAU?$_Wrap_alloc@V?$allocator@UChaosTalisman@@@std@@@0@@Z ENDP ; std::_Uninitialized_copy<std::_Vector_const_iterator<std::_Vector_val<std::_Simple_types<ChaosTalisman> > >,ChaosTalisman *,std::_Wrap_alloc<std::allocator<ChaosTalisman> > >
_TEXT	ENDS
; Function compile flags: /Ogtp
; File c:\program files (x86)\microsoft visual studio 14.0\vc\include\xmemory0
;	COMDAT ??$destroy@UChaosIngredient@@@?$allocator@UChaosIngredient@@@std@@QAEXPAUChaosIngredient@@@Z
_TEXT	SEGMENT
__Ptr$ = 8						; size = 4
??$destroy@UChaosIngredient@@@?$allocator@UChaosIngredient@@@std@@QAEXPAUChaosIngredient@@@Z PROC ; std::allocator<ChaosIngredient>::destroy<ChaosIngredient>, COMDAT
; _this$ = ecx

; 662  : 		_Ptr->~_Uty();
; 663  : 		}

  00000	c2 04 00	 ret	 4
??$destroy@UChaosIngredient@@@?$allocator@UChaosIngredient@@@std@@QAEXPAUChaosIngredient@@@Z ENDP ; std::allocator<ChaosIngredient>::destroy<ChaosIngredient>
_TEXT	ENDS
; Function compile flags: /Ogtp
; File c:\program files (x86)\microsoft visual studio 14.0\vc\include\xmemory0
;	COMDAT ??$construct@UChaosIngredient@@U1@@?$_Wrap_alloc@V?$allocator@UChaosIngredient@@@std@@@std@@QAEXPAUChaosIngredient@@$$QAU2@@Z
_TEXT	SEGMENT
__Ptr$ = 8						; size = 4
_<_Args_0>$ = 12					; size = 4
??$construct@UChaosIngredient@@U1@@?$_Wrap_alloc@V?$allocator@UChaosIngredient@@@std@@@std@@QAEXPAUChaosIngredient@@$$QAU2@@Z PROC ; std::_Wrap_alloc<std::allocator<ChaosIngredient> >::construct<ChaosIngredient,ChaosIngredient>, COMDAT
; _this$ = ecx

; 916  : 		{	// construct _Ty(_Types...) at _Ptr

  00000	55		 push	 ebp
  00001	8b ec		 mov	 ebp, esp

; 655  : 		::new ((void *)_Ptr) _Objty(_STD forward<_Types>(_Args)...);

  00003	8b 4d 08	 mov	 ecx, DWORD PTR __Ptr$[ebp]
  00006	85 c9		 test	 ecx, ecx
  00008	74 29		 je	 SHORT $LN13@construct
  0000a	8b 45 0c	 mov	 eax, DWORD PTR _<_Args_0>$[ebp]
  0000d	0f 10 00	 movups	 xmm0, XMMWORD PTR [eax]
  00010	0f 11 01	 movups	 XMMWORD PTR [ecx], xmm0
  00013	0f 10 40 10	 movups	 xmm0, XMMWORD PTR [eax+16]
  00017	0f 11 41 10	 movups	 XMMWORD PTR [ecx+16], xmm0
  0001b	0f 10 40 20	 movups	 xmm0, XMMWORD PTR [eax+32]
  0001f	0f 11 41 20	 movups	 XMMWORD PTR [ecx+32], xmm0
  00023	0f 10 40 30	 movups	 xmm0, XMMWORD PTR [eax+48]
  00027	0f 11 41 30	 movups	 XMMWORD PTR [ecx+48], xmm0
  0002b	66 8b 40 40	 mov	 ax, WORD PTR [eax+64]
  0002f	66 89 41 40	 mov	 WORD PTR [ecx+64], ax
$LN13@construct:

; 917  : 		_Mytraits::construct(*this, _Ptr,
; 918  : 			_STD forward<_Types>(_Args)...);
; 919  : 		}

  00033	5d		 pop	 ebp
  00034	c2 08 00	 ret	 8
??$construct@UChaosIngredient@@U1@@?$_Wrap_alloc@V?$allocator@UChaosIngredient@@@std@@@std@@QAEXPAUChaosIngredient@@$$QAU2@@Z ENDP ; std::_Wrap_alloc<std::allocator<ChaosIngredient> >::construct<ChaosIngredient,ChaosIngredient>
_TEXT	ENDS
; Function compile flags: /Ogtp
; File c:\program files (x86)\microsoft visual studio 14.0\vc\include\xmemory0
;	COMDAT ??$destroy@UChaosProduce@@@?$allocator@UChaosProduce@@@std@@QAEXPAUChaosProduce@@@Z
_TEXT	SEGMENT
__Ptr$ = 8						; size = 4
??$destroy@UChaosProduce@@@?$allocator@UChaosProduce@@@std@@QAEXPAUChaosProduce@@@Z PROC ; std::allocator<ChaosProduce>::destroy<ChaosProduce>, COMDAT
; _this$ = ecx

; 662  : 		_Ptr->~_Uty();
; 663  : 		}

  00000	c2 04 00	 ret	 4
??$destroy@UChaosProduce@@@?$allocator@UChaosProduce@@@std@@QAEXPAUChaosProduce@@@Z ENDP ; std::allocator<ChaosProduce>::destroy<ChaosProduce>
_TEXT	ENDS
; Function compile flags: /Ogtp
; File c:\program files (x86)\microsoft visual studio 14.0\vc\include\xmemory0
;	COMDAT ??$construct@UChaosProduce@@U1@@?$_Wrap_alloc@V?$allocator@UChaosProduce@@@std@@@std@@QAEXPAUChaosProduce@@$$QAU2@@Z
_TEXT	SEGMENT
__Ptr$ = 8						; size = 4
_<_Args_0>$ = 12					; size = 4
??$construct@UChaosProduce@@U1@@?$_Wrap_alloc@V?$allocator@UChaosProduce@@@std@@@std@@QAEXPAUChaosProduce@@$$QAU2@@Z PROC ; std::_Wrap_alloc<std::allocator<ChaosProduce> >::construct<ChaosProduce,ChaosProduce>, COMDAT
; _this$ = ecx

; 916  : 		{	// construct _Ty(_Types...) at _Ptr

  00000	55		 push	 ebp
  00001	8b ec		 mov	 ebp, esp

; 655  : 		::new ((void *)_Ptr) _Objty(_STD forward<_Types>(_Args)...);

  00003	8b 4d 08	 mov	 ecx, DWORD PTR __Ptr$[ebp]
  00006	85 c9		 test	 ecx, ecx
  00008	74 09		 je	 SHORT $LN13@construct
  0000a	8b 45 0c	 mov	 eax, DWORD PTR _<_Args_0>$[ebp]
  0000d	0f 10 00	 movups	 xmm0, XMMWORD PTR [eax]
  00010	0f 11 01	 movups	 XMMWORD PTR [ecx], xmm0
$LN13@construct:

; 917  : 		_Mytraits::construct(*this, _Ptr,
; 918  : 			_STD forward<_Types>(_Args)...);
; 919  : 		}

  00013	5d		 pop	 ebp
  00014	c2 08 00	 ret	 8
??$construct@UChaosProduce@@U1@@?$_Wrap_alloc@V?$allocator@UChaosProduce@@@std@@@std@@QAEXPAUChaosProduce@@$$QAU2@@Z ENDP ; std::_Wrap_alloc<std::allocator<ChaosProduce> >::construct<ChaosProduce,ChaosProduce>
_TEXT	ENDS
; Function compile flags: /Ogtp
; File c:\program files (x86)\microsoft visual studio 14.0\vc\include\xmemory0
;	COMDAT ??$destroy@UChaosTalisman@@@?$allocator@UChaosTalisman@@@std@@QAEXPAUChaosTalisman@@@Z
_TEXT	SEGMENT
__Ptr$ = 8						; size = 4
??$destroy@UChaosTalisman@@@?$allocator@UChaosTalisman@@@std@@QAEXPAUChaosTalisman@@@Z PROC ; std::allocator<ChaosTalisman>::destroy<ChaosTalisman>, COMDAT
; _this$ = ecx

; 662  : 		_Ptr->~_Uty();
; 663  : 		}

  00000	c2 04 00	 ret	 4
??$destroy@UChaosTalisman@@@?$allocator@UChaosTalisman@@@std@@QAEXPAUChaosTalisman@@@Z ENDP ; std::allocator<ChaosTalisman>::destroy<ChaosTalisman>
_TEXT	ENDS
; Function compile flags: /Ogtp
; File c:\program files (x86)\microsoft visual studio 14.0\vc\include\xmemory0
;	COMDAT ??$construct@UChaosTalisman@@U1@@?$_Wrap_alloc@V?$allocator@UChaosTalisman@@@std@@@std@@QAEXPAUChaosTalisman@@$$QAU2@@Z
_TEXT	SEGMENT
__Ptr$ = 8						; size = 4
_<_Args_0>$ = 12					; size = 4
??$construct@UChaosTalisman@@U1@@?$_Wrap_alloc@V?$allocator@UChaosTalisman@@@std@@@std@@QAEXPAUChaosTalisman@@$$QAU2@@Z PROC ; std::_Wrap_alloc<std::allocator<ChaosTalisman> >::construct<ChaosTalisman,ChaosTalisman>, COMDAT
; _this$ = ecx

; 916  : 		{	// construct _Ty(_Types...) at _Ptr

  00000	55		 push	 ebp
  00001	8b ec		 mov	 ebp, esp

; 655  : 		::new ((void *)_Ptr) _Objty(_STD forward<_Types>(_Args)...);

  00003	8b 4d 08	 mov	 ecx, DWORD PTR __Ptr$[ebp]
  00006	85 c9		 test	 ecx, ecx
  00008	74 09		 je	 SHORT $LN13@construct
  0000a	8b 45 0c	 mov	 eax, DWORD PTR _<_Args_0>$[ebp]
  0000d	0f 10 00	 movups	 xmm0, XMMWORD PTR [eax]
  00010	0f 11 01	 movups	 XMMWORD PTR [ecx], xmm0
$LN13@construct:

; 917  : 		_Mytraits::construct(*this, _Ptr,
; 918  : 			_STD forward<_Types>(_Args)...);
; 919  : 		}

  00013	5d		 pop	 ebp
  00014	c2 08 00	 ret	 8
??$construct@UChaosTalisman@@U1@@?$_Wrap_alloc@V?$allocator@UChaosTalisman@@@std@@@std@@QAEXPAUChaosTalisman@@$$QAU2@@Z ENDP ; std::_Wrap_alloc<std::allocator<ChaosTalisman> >::construct<ChaosTalisman,ChaosTalisman>
_TEXT	ENDS
; Function compile flags: /Ogtp
; File c:\program files (x86)\microsoft visual studio 14.0\vc\include\xmemory0
;	COMDAT ??$construct@UChaosCombination@@U1@@?$_Wrap_alloc@V?$allocator@UChaosCombination@@@std@@@std@@QAEXPAUChaosCombination@@$$QAU2@@Z
_TEXT	SEGMENT
__Ptr$ = 8						; size = 4
_<_Args_0>$ = 12					; size = 4
??$construct@UChaosCombination@@U1@@?$_Wrap_alloc@V?$allocator@UChaosCombination@@@std@@@std@@QAEXPAUChaosCombination@@$$QAU2@@Z PROC ; std::_Wrap_alloc<std::allocator<ChaosCombination> >::construct<ChaosCombination,ChaosCombination>, COMDAT
; _this$ = ecx

; 916  : 		{	// construct _Ty(_Types...) at _Ptr

  00000	55		 push	 ebp
  00001	8b ec		 mov	 ebp, esp

; 655  : 		::new ((void *)_Ptr) _Objty(_STD forward<_Types>(_Args)...);

  00003	8b 4d 08	 mov	 ecx, DWORD PTR __Ptr$[ebp]
  00006	85 c9		 test	 ecx, ecx
  00008	74 08		 je	 SHORT $LN13@construct
  0000a	ff 75 0c	 push	 DWORD PTR _<_Args_0>$[ebp]
  0000d	e8 00 00 00 00	 call	 ??0ChaosCombination@@QAE@$$QAU0@@Z
$LN13@construct:

; 917  : 		_Mytraits::construct(*this, _Ptr,
; 918  : 			_STD forward<_Types>(_Args)...);
; 919  : 		}

  00012	5d		 pop	 ebp
  00013	c2 08 00	 ret	 8
??$construct@UChaosCombination@@U1@@?$_Wrap_alloc@V?$allocator@UChaosCombination@@@std@@@std@@QAEXPAUChaosCombination@@$$QAU2@@Z ENDP ; std::_Wrap_alloc<std::allocator<ChaosCombination> >::construct<ChaosCombination,ChaosCombination>
_TEXT	ENDS
; Function compile flags: /Ogtp
; File c:\program files (x86)\microsoft visual studio 14.0\vc\include\xmemory0
;	COMDAT ??$destroy@UChaosCombination@@@?$allocator@UChaosCombination@@@std@@QAEXPAUChaosCombination@@@Z
_TEXT	SEGMENT
__Ptr$ = 8						; size = 4
??$destroy@UChaosCombination@@@?$allocator@UChaosCombination@@@std@@QAEXPAUChaosCombination@@@Z PROC ; std::allocator<ChaosCombination>::destroy<ChaosCombination>, COMDAT
; _this$ = ecx

; 661  : 		{	// destroy object at _Ptr

  00000	55		 push	 ebp
  00001	8b ec		 mov	 ebp, esp
  00003	8b 4d 08	 mov	 ecx, DWORD PTR __Ptr$[ebp]
  00006	e8 00 00 00 00	 call	 ??1ChaosCombination@@QAE@XZ

; 662  : 		_Ptr->~_Uty();
; 663  : 		}

  0000b	5d		 pop	 ebp
  0000c	c2 04 00	 ret	 4
??$destroy@UChaosCombination@@@?$allocator@UChaosCombination@@@std@@QAEXPAUChaosCombination@@@Z ENDP ; std::allocator<ChaosCombination>::destroy<ChaosCombination>
_TEXT	ENDS
; Function compile flags: /Ogtp
; File c:\program files (x86)\microsoft visual studio 14.0\vc\include\xutility
; File c:\program files (x86)\microsoft visual studio 14.0\vc\include\vector
; File c:\program files (x86)\microsoft visual studio 14.0\vc\include\xutility
; File c:\program files (x86)\microsoft visual studio 14.0\vc\include\vector
; File c:\program files (x86)\microsoft visual studio 14.0\vc\include\xutility
;	COMDAT ??$?0V?$allocator@UChaosIngredient@@@std@@$$V@?$_Compressed_pair@U?$_Wrap_alloc@V?$allocator@UChaosIngredient@@@std@@@std@@V?$_Vector_val@U?$_Simple_types@UChaosIngredient@@@std@@@2@$00@std@@QAE@U_One_then_variadic_args_t@1@$$QAV?$allocator@UChaosIngredient@@@1@@Z
_TEXT	SEGMENT
___formal$ = 8						; size = 1
__Val1$ = 12						; size = 4
??$?0V?$allocator@UChaosIngredient@@@std@@$$V@?$_Compressed_pair@U?$_Wrap_alloc@V?$allocator@UChaosIngredient@@@std@@@std@@V?$_Vector_val@U?$_Simple_types@UChaosIngredient@@@std@@@2@$00@std@@QAE@U_One_then_variadic_args_t@1@$$QAV?$allocator@UChaosIngredient@@@1@@Z PROC ; std::_Compressed_pair<std::_Wrap_alloc<std::allocator<ChaosIngredient> >,std::_Vector_val<std::_Simple_types<ChaosIngredient> >,1>::_Compressed_pair<std::_Wrap_alloc<std::allocator<ChaosIngredient> >,std::_Vector_val<std::_Simple_types<ChaosIngredient> >,1><std::allocator<ChaosIngredient> >, COMDAT
; _this$ = ecx
; File c:\program files (x86)\microsoft visual studio 14.0\vc\include\vector

; 480  : 		_Myfirst = pointer();

  00000	c7 01 00 00 00
	00		 mov	 DWORD PTR [ecx], 0
; File c:\program files (x86)\microsoft visual studio 14.0\vc\include\xutility

; 289  : 		}

  00006	8b c1		 mov	 eax, ecx
; File c:\program files (x86)\microsoft visual studio 14.0\vc\include\vector

; 481  : 		_Mylast = pointer();

  00008	c7 41 04 00 00
	00 00		 mov	 DWORD PTR [ecx+4], 0

; 482  : 		_Myend = pointer();

  0000f	c7 41 08 00 00
	00 00		 mov	 DWORD PTR [ecx+8], 0
; File c:\program files (x86)\microsoft visual studio 14.0\vc\include\xutility

; 289  : 		}

  00016	c2 08 00	 ret	 8
??$?0V?$allocator@UChaosIngredient@@@std@@$$V@?$_Compressed_pair@U?$_Wrap_alloc@V?$allocator@UChaosIngredient@@@std@@@std@@V?$_Vector_val@U?$_Simple_types@UChaosIngredient@@@std@@@2@$00@std@@QAE@U_One_then_variadic_args_t@1@$$QAV?$allocator@UChaosIngredient@@@1@@Z ENDP ; std::_Compressed_pair<std::_Wrap_alloc<std::allocator<ChaosIngredient> >,std::_Vector_val<std::_Simple_types<ChaosIngredient> >,1>::_Compressed_pair<std::_Wrap_alloc<std::allocator<ChaosIngredient> >,std::_Vector_val<std::_Simple_types<ChaosIngredient> >,1><std::allocator<ChaosIngredient> >
_TEXT	ENDS
; Function compile flags: /Ogtp
; File c:\program files (x86)\microsoft visual studio 14.0\vc\include\type_traits
;	COMDAT ??$move@AAV?$allocator@UChaosIngredient@@@std@@@std@@YA$$QAV?$allocator@UChaosIngredient@@@0@AAV10@@Z
_TEXT	SEGMENT
__Arg$ = 8						; size = 4
??$move@AAV?$allocator@UChaosIngredient@@@std@@@std@@YA$$QAV?$allocator@UChaosIngredient@@@0@AAV10@@Z PROC ; std::move<std::allocator<ChaosIngredient> &>, COMDAT

; 1249 : 	{	// forward _Arg as movable

  00000	55		 push	 ebp
  00001	8b ec		 mov	 ebp, esp

; 1250 : 	return (static_cast<typename remove_reference<_Ty>::type&&>(_Arg));

  00003	8b 45 08	 mov	 eax, DWORD PTR __Arg$[ebp]

; 1251 : 	}

  00006	5d		 pop	 ebp
  00007	c3		 ret	 0
??$move@AAV?$allocator@UChaosIngredient@@@std@@@std@@YA$$QAV?$allocator@UChaosIngredient@@@0@AAV10@@Z ENDP ; std::move<std::allocator<ChaosIngredient> &>
_TEXT	ENDS
; Function compile flags: /Ogtp
; File c:\program files (x86)\microsoft visual studio 14.0\vc\include\xutility
; File c:\program files (x86)\microsoft visual studio 14.0\vc\include\vector
; File c:\program files (x86)\microsoft visual studio 14.0\vc\include\xutility
; File c:\program files (x86)\microsoft visual studio 14.0\vc\include\vector
; File c:\program files (x86)\microsoft visual studio 14.0\vc\include\xutility
;	COMDAT ??$?0V?$allocator@UChaosProduce@@@std@@$$V@?$_Compressed_pair@U?$_Wrap_alloc@V?$allocator@UChaosProduce@@@std@@@std@@V?$_Vector_val@U?$_Simple_types@UChaosProduce@@@std@@@2@$00@std@@QAE@U_One_then_variadic_args_t@1@$$QAV?$allocator@UChaosProduce@@@1@@Z
_TEXT	SEGMENT
___formal$ = 8						; size = 1
__Val1$ = 12						; size = 4
??$?0V?$allocator@UChaosProduce@@@std@@$$V@?$_Compressed_pair@U?$_Wrap_alloc@V?$allocator@UChaosProduce@@@std@@@std@@V?$_Vector_val@U?$_Simple_types@UChaosProduce@@@std@@@2@$00@std@@QAE@U_One_then_variadic_args_t@1@$$QAV?$allocator@UChaosProduce@@@1@@Z PROC ; std::_Compressed_pair<std::_Wrap_alloc<std::allocator<ChaosProduce> >,std::_Vector_val<std::_Simple_types<ChaosProduce> >,1>::_Compressed_pair<std::_Wrap_alloc<std::allocator<ChaosProduce> >,std::_Vector_val<std::_Simple_types<ChaosProduce> >,1><std::allocator<ChaosProduce> >, COMDAT
; _this$ = ecx
; File c:\program files (x86)\microsoft visual studio 14.0\vc\include\vector

; 480  : 		_Myfirst = pointer();

  00000	c7 01 00 00 00
	00		 mov	 DWORD PTR [ecx], 0
; File c:\program files (x86)\microsoft visual studio 14.0\vc\include\xutility

; 289  : 		}

  00006	8b c1		 mov	 eax, ecx
; File c:\program files (x86)\microsoft visual studio 14.0\vc\include\vector

; 481  : 		_Mylast = pointer();

  00008	c7 41 04 00 00
	00 00		 mov	 DWORD PTR [ecx+4], 0

; 482  : 		_Myend = pointer();

  0000f	c7 41 08 00 00
	00 00		 mov	 DWORD PTR [ecx+8], 0
; File c:\program files (x86)\microsoft visual studio 14.0\vc\include\xutility

; 289  : 		}

  00016	c2 08 00	 ret	 8
??$?0V?$allocator@UChaosProduce@@@std@@$$V@?$_Compressed_pair@U?$_Wrap_alloc@V?$allocator@UChaosProduce@@@std@@@std@@V?$_Vector_val@U?$_Simple_types@UChaosProduce@@@std@@@2@$00@std@@QAE@U_One_then_variadic_args_t@1@$$QAV?$allocator@UChaosProduce@@@1@@Z ENDP ; std::_Compressed_pair<std::_Wrap_alloc<std::allocator<ChaosProduce> >,std::_Vector_val<std::_Simple_types<ChaosProduce> >,1>::_Compressed_pair<std::_Wrap_alloc<std::allocator<ChaosProduce> >,std::_Vector_val<std::_Simple_types<ChaosProduce> >,1><std::allocator<ChaosProduce> >
_TEXT	ENDS
; Function compile flags: /Ogtp
; File c:\program files (x86)\microsoft visual studio 14.0\vc\include\type_traits
;	COMDAT ??$move@AAV?$allocator@UChaosProduce@@@std@@@std@@YA$$QAV?$allocator@UChaosProduce@@@0@AAV10@@Z
_TEXT	SEGMENT
__Arg$ = 8						; size = 4
??$move@AAV?$allocator@UChaosProduce@@@std@@@std@@YA$$QAV?$allocator@UChaosProduce@@@0@AAV10@@Z PROC ; std::move<std::allocator<ChaosProduce> &>, COMDAT

; 1249 : 	{	// forward _Arg as movable

  00000	55		 push	 ebp
  00001	8b ec		 mov	 ebp, esp

; 1250 : 	return (static_cast<typename remove_reference<_Ty>::type&&>(_Arg));

  00003	8b 45 08	 mov	 eax, DWORD PTR __Arg$[ebp]

; 1251 : 	}

  00006	5d		 pop	 ebp
  00007	c3		 ret	 0
??$move@AAV?$allocator@UChaosProduce@@@std@@@std@@YA$$QAV?$allocator@UChaosProduce@@@0@AAV10@@Z ENDP ; std::move<std::allocator<ChaosProduce> &>
_TEXT	ENDS
; Function compile flags: /Ogtp
; File c:\program files (x86)\microsoft visual studio 14.0\vc\include\xutility
; File c:\program files (x86)\microsoft visual studio 14.0\vc\include\vector
; File c:\program files (x86)\microsoft visual studio 14.0\vc\include\xutility
; File c:\program files (x86)\microsoft visual studio 14.0\vc\include\vector
; File c:\program files (x86)\microsoft visual studio 14.0\vc\include\xutility
;	COMDAT ??$?0V?$allocator@UChaosTalisman@@@std@@$$V@?$_Compressed_pair@U?$_Wrap_alloc@V?$allocator@UChaosTalisman@@@std@@@std@@V?$_Vector_val@U?$_Simple_types@UChaosTalisman@@@std@@@2@$00@std@@QAE@U_One_then_variadic_args_t@1@$$QAV?$allocator@UChaosTalisman@@@1@@Z
_TEXT	SEGMENT
___formal$ = 8						; size = 1
__Val1$ = 12						; size = 4
??$?0V?$allocator@UChaosTalisman@@@std@@$$V@?$_Compressed_pair@U?$_Wrap_alloc@V?$allocator@UChaosTalisman@@@std@@@std@@V?$_Vector_val@U?$_Simple_types@UChaosTalisman@@@std@@@2@$00@std@@QAE@U_One_then_variadic_args_t@1@$$QAV?$allocator@UChaosTalisman@@@1@@Z PROC ; std::_Compressed_pair<std::_Wrap_alloc<std::allocator<ChaosTalisman> >,std::_Vector_val<std::_Simple_types<ChaosTalisman> >,1>::_Compressed_pair<std::_Wrap_alloc<std::allocator<ChaosTalisman> >,std::_Vector_val<std::_Simple_types<ChaosTalisman> >,1><std::allocator<ChaosTalisman> >, COMDAT
; _this$ = ecx
; File c:\program files (x86)\microsoft visual studio 14.0\vc\include\vector

; 480  : 		_Myfirst = pointer();

  00000	c7 01 00 00 00
	00		 mov	 DWORD PTR [ecx], 0
; File c:\program files (x86)\microsoft visual studio 14.0\vc\include\xutility

; 289  : 		}

  00006	8b c1		 mov	 eax, ecx
; File c:\program files (x86)\microsoft visual studio 14.0\vc\include\vector

; 481  : 		_Mylast = pointer();

  00008	c7 41 04 00 00
	00 00		 mov	 DWORD PTR [ecx+4], 0

; 482  : 		_Myend = pointer();

  0000f	c7 41 08 00 00
	00 00		 mov	 DWORD PTR [ecx+8], 0
; File c:\program files (x86)\microsoft visual studio 14.0\vc\include\xutility

; 289  : 		}

  00016	c2 08 00	 ret	 8
??$?0V?$allocator@UChaosTalisman@@@std@@$$V@?$_Compressed_pair@U?$_Wrap_alloc@V?$allocator@UChaosTalisman@@@std@@@std@@V?$_Vector_val@U?$_Simple_types@UChaosTalisman@@@std@@@2@$00@std@@QAE@U_One_then_variadic_args_t@1@$$QAV?$allocator@UChaosTalisman@@@1@@Z ENDP ; std::_Compressed_pair<std::_Wrap_alloc<std::allocator<ChaosTalisman> >,std::_Vector_val<std::_Simple_types<ChaosTalisman> >,1>::_Compressed_pair<std::_Wrap_alloc<std::allocator<ChaosTalisman> >,std::_Vector_val<std::_Simple_types<ChaosTalisman> >,1><std::allocator<ChaosTalisman> >
_TEXT	ENDS
; Function compile flags: /Ogtp
; File c:\program files (x86)\microsoft visual studio 14.0\vc\include\type_traits
;	COMDAT ??$move@AAV?$allocator@UChaosTalisman@@@std@@@std@@YA$$QAV?$allocator@UChaosTalisman@@@0@AAV10@@Z
_TEXT	SEGMENT
__Arg$ = 8						; size = 4
??$move@AAV?$allocator@UChaosTalisman@@@std@@@std@@YA$$QAV?$allocator@UChaosTalisman@@@0@AAV10@@Z PROC ; std::move<std::allocator<ChaosTalisman> &>, COMDAT

; 1249 : 	{	// forward _Arg as movable

  00000	55		 push	 ebp
  00001	8b ec		 mov	 ebp, esp

; 1250 : 	return (static_cast<typename remove_reference<_Ty>::type&&>(_Arg));

  00003	8b 45 08	 mov	 eax, DWORD PTR __Arg$[ebp]

; 1251 : 	}

  00006	5d		 pop	 ebp
  00007	c3		 ret	 0
??$move@AAV?$allocator@UChaosTalisman@@@std@@@std@@YA$$QAV?$allocator@UChaosTalisman@@@0@AAV10@@Z ENDP ; std::move<std::allocator<ChaosTalisman> &>
_TEXT	ENDS
; Function compile flags: /Ogtp
; File c:\program files (x86)\microsoft visual studio 14.0\vc\include\vector
; File c:\program files (x86)\microsoft visual studio 14.0\vc\include\xmemory
; File c:\program files (x86)\microsoft visual studio 14.0\vc\include\vector
;	COMDAT ??$_Ucopy@V?$_Vector_const_iterator@V?$_Vector_val@U?$_Simple_types@UChaosIngredient@@@std@@@std@@@std@@@?$vector@UChaosIngredient@@V?$allocator@UChaosIngredient@@@std@@@std@@IAEPAUChaosIngredient@@V?$_Vector_const_iterator@V?$_Vector_val@U?$_Simple_types@UChaosIngredient@@@std@@@std@@@1@0PAU2@@Z
_TEXT	SEGMENT
__First$ = 8						; size = 4
__Last$ = 12						; size = 4
__Cat$1 = 16						; size = 1
__Ptr$ = 16						; size = 4
??$_Ucopy@V?$_Vector_const_iterator@V?$_Vector_val@U?$_Simple_types@UChaosIngredient@@@std@@@std@@@std@@@?$vector@UChaosIngredient@@V?$allocator@UChaosIngredient@@@std@@@std@@IAEPAUChaosIngredient@@V?$_Vector_const_iterator@V?$_Vector_val@U?$_Simple_types@UChaosIngredient@@@std@@@std@@@1@0PAU2@@Z PROC ; std::vector<ChaosIngredient,std::allocator<ChaosIngredient> >::_Ucopy<std::_Vector_const_iterator<std::_Vector_val<std::_Simple_types<ChaosIngredient> > > >, COMDAT
; _this$ = ecx

; 1670 : 		{	// copy initializing [_First, _Last), using allocator

  00000	55		 push	 ebp
  00001	8b ec		 mov	 ebp, esp
; File c:\program files (x86)\microsoft visual studio 14.0\vc\include\xmemory

; 415  : 	return (_Uninit_copy(_First, _Last, _Dest, _Al,

  00003	ff 75 10	 push	 DWORD PTR __Cat$1[ebp]
  00006	51		 push	 ecx
  00007	ff 75 10	 push	 DWORD PTR __Ptr$[ebp]
  0000a	ff 75 0c	 push	 DWORD PTR __Last$[ebp]
  0000d	ff 75 08	 push	 DWORD PTR __First$[ebp]
  00010	e8 00 00 00 00	 call	 ??$_Uninit_copy@PBUChaosIngredient@@PAU1@V?$allocator@UChaosIngredient@@@std@@@std@@YAPAUChaosIngredient@@PBU1@0PAU1@AAU?$_Wrap_alloc@V?$allocator@UChaosIngredient@@@std@@@0@U_Nonscalar_ptr_iterator_tag@0@@Z ; std::_Uninit_copy<ChaosIngredient const *,ChaosIngredient *,std::allocator<ChaosIngredient> >
  00015	83 c4 14	 add	 esp, 20			; 00000014H
; File c:\program files (x86)\microsoft visual studio 14.0\vc\include\vector

; 1673 : 		}

  00018	5d		 pop	 ebp
  00019	c2 0c 00	 ret	 12			; 0000000cH
??$_Ucopy@V?$_Vector_const_iterator@V?$_Vector_val@U?$_Simple_types@UChaosIngredient@@@std@@@std@@@std@@@?$vector@UChaosIngredient@@V?$allocator@UChaosIngredient@@@std@@@std@@IAEPAUChaosIngredient@@V?$_Vector_const_iterator@V?$_Vector_val@U?$_Simple_types@UChaosIngredient@@@std@@@std@@@1@0PAU2@@Z ENDP ; std::vector<ChaosIngredient,std::allocator<ChaosIngredient> >::_Ucopy<std::_Vector_const_iterator<std::_Vector_val<std::_Simple_types<ChaosIngredient> > > >
_TEXT	ENDS
; Function compile flags: /Ogtp
; File c:\program files (x86)\microsoft visual studio 14.0\vc\include\vector
;	COMDAT ?_Unchecked@?$_Vector_const_iterator@V?$_Vector_val@U?$_Simple_types@UChaosIngredient@@@std@@@std@@@std@@QBEPBUChaosIngredient@@XZ
_TEXT	SEGMENT
?_Unchecked@?$_Vector_const_iterator@V?$_Vector_val@U?$_Simple_types@UChaosIngredient@@@std@@@std@@@std@@QBEPBUChaosIngredient@@XZ PROC ; std::_Vector_const_iterator<std::_Vector_val<std::_Simple_types<ChaosIngredient> > >::_Unchecked, COMDAT
; _this$ = ecx

; 61   : 		return (_Unchecked_type(this->_Ptr));

  00000	8b 01		 mov	 eax, DWORD PTR [ecx]

; 62   : 		}

  00002	c3		 ret	 0
?_Unchecked@?$_Vector_const_iterator@V?$_Vector_val@U?$_Simple_types@UChaosIngredient@@@std@@@std@@@std@@QBEPBUChaosIngredient@@XZ ENDP ; std::_Vector_const_iterator<std::_Vector_val<std::_Simple_types<ChaosIngredient> > >::_Unchecked
_TEXT	ENDS
; Function compile flags: /Ogtp
; File c:\program files (x86)\microsoft visual studio 14.0\vc\include\vector
;	COMDAT ??0?$_Vector_const_iterator@V?$_Vector_val@U?$_Simple_types@UChaosIngredient@@@std@@@std@@@std@@QAE@PAUChaosIngredient@@PBU_Container_base0@1@@Z
_TEXT	SEGMENT
__Parg$ = 8						; size = 4
__Pvector$ = 12						; size = 4
??0?$_Vector_const_iterator@V?$_Vector_val@U?$_Simple_types@UChaosIngredient@@@std@@@std@@@std@@QAE@PAUChaosIngredient@@PBU_Container_base0@1@@Z PROC ; std::_Vector_const_iterator<std::_Vector_val<std::_Simple_types<ChaosIngredient> > >::_Vector_const_iterator<std::_Vector_val<std::_Simple_types<ChaosIngredient> > >, COMDAT
; _this$ = ecx

; 47   : 		{	// construct with pointer _Parg

  00000	55		 push	 ebp
  00001	8b ec		 mov	 ebp, esp

; 46   : 		: _Ptr(_Parg)

  00003	8b 45 08	 mov	 eax, DWORD PTR __Parg$[ebp]
  00006	89 01		 mov	 DWORD PTR [ecx], eax

; 48   : 		this->_Adopt(_Pvector);
; 49   : 		}

  00008	8b c1		 mov	 eax, ecx
  0000a	5d		 pop	 ebp
  0000b	c2 08 00	 ret	 8
??0?$_Vector_const_iterator@V?$_Vector_val@U?$_Simple_types@UChaosIngredient@@@std@@@std@@@std@@QAE@PAUChaosIngredient@@PBU_Container_base0@1@@Z ENDP ; std::_Vector_const_iterator<std::_Vector_val<std::_Simple_types<ChaosIngredient> > >::_Vector_const_iterator<std::_Vector_val<std::_Simple_types<ChaosIngredient> > >
_TEXT	ENDS
; Function compile flags: /Ogtp
; File c:\program files (x86)\microsoft visual studio 14.0\vc\include\vector
; File c:\program files (x86)\microsoft visual studio 14.0\vc\include\xmemory
; File c:\program files (x86)\microsoft visual studio 14.0\vc\include\vector
;	COMDAT ??$_Ucopy@V?$_Vector_const_iterator@V?$_Vector_val@U?$_Simple_types@UChaosProduce@@@std@@@std@@@std@@@?$vector@UChaosProduce@@V?$allocator@UChaosProduce@@@std@@@std@@IAEPAUChaosProduce@@V?$_Vector_const_iterator@V?$_Vector_val@U?$_Simple_types@UChaosProduce@@@std@@@std@@@1@0PAU2@@Z
_TEXT	SEGMENT
__First$ = 8						; size = 4
__Last$ = 12						; size = 4
__Cat$1 = 16						; size = 1
__Ptr$ = 16						; size = 4
??$_Ucopy@V?$_Vector_const_iterator@V?$_Vector_val@U?$_Simple_types@UChaosProduce@@@std@@@std@@@std@@@?$vector@UChaosProduce@@V?$allocator@UChaosProduce@@@std@@@std@@IAEPAUChaosProduce@@V?$_Vector_const_iterator@V?$_Vector_val@U?$_Simple_types@UChaosProduce@@@std@@@std@@@1@0PAU2@@Z PROC ; std::vector<ChaosProduce,std::allocator<ChaosProduce> >::_Ucopy<std::_Vector_const_iterator<std::_Vector_val<std::_Simple_types<ChaosProduce> > > >, COMDAT
; _this$ = ecx

; 1670 : 		{	// copy initializing [_First, _Last), using allocator

  00000	55		 push	 ebp
  00001	8b ec		 mov	 ebp, esp
; File c:\program files (x86)\microsoft visual studio 14.0\vc\include\xmemory

; 415  : 	return (_Uninit_copy(_First, _Last, _Dest, _Al,

  00003	ff 75 10	 push	 DWORD PTR __Cat$1[ebp]
  00006	51		 push	 ecx
  00007	ff 75 10	 push	 DWORD PTR __Ptr$[ebp]
  0000a	ff 75 0c	 push	 DWORD PTR __Last$[ebp]
  0000d	ff 75 08	 push	 DWORD PTR __First$[ebp]
  00010	e8 00 00 00 00	 call	 ??$_Uninit_copy@PBUChaosProduce@@PAU1@V?$allocator@UChaosProduce@@@std@@@std@@YAPAUChaosProduce@@PBU1@0PAU1@AAU?$_Wrap_alloc@V?$allocator@UChaosProduce@@@std@@@0@U_Nonscalar_ptr_iterator_tag@0@@Z ; std::_Uninit_copy<ChaosProduce const *,ChaosProduce *,std::allocator<ChaosProduce> >
  00015	83 c4 14	 add	 esp, 20			; 00000014H
; File c:\program files (x86)\microsoft visual studio 14.0\vc\include\vector

; 1673 : 		}

  00018	5d		 pop	 ebp
  00019	c2 0c 00	 ret	 12			; 0000000cH
??$_Ucopy@V?$_Vector_const_iterator@V?$_Vector_val@U?$_Simple_types@UChaosProduce@@@std@@@std@@@std@@@?$vector@UChaosProduce@@V?$allocator@UChaosProduce@@@std@@@std@@IAEPAUChaosProduce@@V?$_Vector_const_iterator@V?$_Vector_val@U?$_Simple_types@UChaosProduce@@@std@@@std@@@1@0PAU2@@Z ENDP ; std::vector<ChaosProduce,std::allocator<ChaosProduce> >::_Ucopy<std::_Vector_const_iterator<std::_Vector_val<std::_Simple_types<ChaosProduce> > > >
_TEXT	ENDS
; Function compile flags: /Ogtp
; File c:\program files (x86)\microsoft visual studio 14.0\vc\include\vector
;	COMDAT ?_Unchecked@?$_Vector_const_iterator@V?$_Vector_val@U?$_Simple_types@UChaosProduce@@@std@@@std@@@std@@QBEPBUChaosProduce@@XZ
_TEXT	SEGMENT
?_Unchecked@?$_Vector_const_iterator@V?$_Vector_val@U?$_Simple_types@UChaosProduce@@@std@@@std@@@std@@QBEPBUChaosProduce@@XZ PROC ; std::_Vector_const_iterator<std::_Vector_val<std::_Simple_types<ChaosProduce> > >::_Unchecked, COMDAT
; _this$ = ecx

; 61   : 		return (_Unchecked_type(this->_Ptr));

  00000	8b 01		 mov	 eax, DWORD PTR [ecx]

; 62   : 		}

  00002	c3		 ret	 0
?_Unchecked@?$_Vector_const_iterator@V?$_Vector_val@U?$_Simple_types@UChaosProduce@@@std@@@std@@@std@@QBEPBUChaosProduce@@XZ ENDP ; std::_Vector_const_iterator<std::_Vector_val<std::_Simple_types<ChaosProduce> > >::_Unchecked
_TEXT	ENDS
; Function compile flags: /Ogtp
; File c:\program files (x86)\microsoft visual studio 14.0\vc\include\vector
;	COMDAT ??0?$_Vector_const_iterator@V?$_Vector_val@U?$_Simple_types@UChaosProduce@@@std@@@std@@@std@@QAE@PAUChaosProduce@@PBU_Container_base0@1@@Z
_TEXT	SEGMENT
__Parg$ = 8						; size = 4
__Pvector$ = 12						; size = 4
??0?$_Vector_const_iterator@V?$_Vector_val@U?$_Simple_types@UChaosProduce@@@std@@@std@@@std@@QAE@PAUChaosProduce@@PBU_Container_base0@1@@Z PROC ; std::_Vector_const_iterator<std::_Vector_val<std::_Simple_types<ChaosProduce> > >::_Vector_const_iterator<std::_Vector_val<std::_Simple_types<ChaosProduce> > >, COMDAT
; _this$ = ecx

; 47   : 		{	// construct with pointer _Parg

  00000	55		 push	 ebp
  00001	8b ec		 mov	 ebp, esp

; 46   : 		: _Ptr(_Parg)

  00003	8b 45 08	 mov	 eax, DWORD PTR __Parg$[ebp]
  00006	89 01		 mov	 DWORD PTR [ecx], eax

; 48   : 		this->_Adopt(_Pvector);
; 49   : 		}

  00008	8b c1		 mov	 eax, ecx
  0000a	5d		 pop	 ebp
  0000b	c2 08 00	 ret	 8
??0?$_Vector_const_iterator@V?$_Vector_val@U?$_Simple_types@UChaosProduce@@@std@@@std@@@std@@QAE@PAUChaosProduce@@PBU_Container_base0@1@@Z ENDP ; std::_Vector_const_iterator<std::_Vector_val<std::_Simple_types<ChaosProduce> > >::_Vector_const_iterator<std::_Vector_val<std::_Simple_types<ChaosProduce> > >
_TEXT	ENDS
; Function compile flags: /Ogtp
; File c:\program files (x86)\microsoft visual studio 14.0\vc\include\vector
; File c:\program files (x86)\microsoft visual studio 14.0\vc\include\xmemory
; File c:\program files (x86)\microsoft visual studio 14.0\vc\include\vector
;	COMDAT ??$_Ucopy@V?$_Vector_const_iterator@V?$_Vector_val@U?$_Simple_types@UChaosTalisman@@@std@@@std@@@std@@@?$vector@UChaosTalisman@@V?$allocator@UChaosTalisman@@@std@@@std@@IAEPAUChaosTalisman@@V?$_Vector_const_iterator@V?$_Vector_val@U?$_Simple_types@UChaosTalisman@@@std@@@std@@@1@0PAU2@@Z
_TEXT	SEGMENT
__First$ = 8						; size = 4
__Last$ = 12						; size = 4
__Cat$1 = 16						; size = 1
__Ptr$ = 16						; size = 4
??$_Ucopy@V?$_Vector_const_iterator@V?$_Vector_val@U?$_Simple_types@UChaosTalisman@@@std@@@std@@@std@@@?$vector@UChaosTalisman@@V?$allocator@UChaosTalisman@@@std@@@std@@IAEPAUChaosTalisman@@V?$_Vector_const_iterator@V?$_Vector_val@U?$_Simple_types@UChaosTalisman@@@std@@@std@@@1@0PAU2@@Z PROC ; std::vector<ChaosTalisman,std::allocator<ChaosTalisman> >::_Ucopy<std::_Vector_const_iterator<std::_Vector_val<std::_Simple_types<ChaosTalisman> > > >, COMDAT
; _this$ = ecx

; 1670 : 		{	// copy initializing [_First, _Last), using allocator

  00000	55		 push	 ebp
  00001	8b ec		 mov	 ebp, esp
; File c:\program files (x86)\microsoft visual studio 14.0\vc\include\xmemory

; 415  : 	return (_Uninit_copy(_First, _Last, _Dest, _Al,

  00003	ff 75 10	 push	 DWORD PTR __Cat$1[ebp]
  00006	51		 push	 ecx
  00007	ff 75 10	 push	 DWORD PTR __Ptr$[ebp]
  0000a	ff 75 0c	 push	 DWORD PTR __Last$[ebp]
  0000d	ff 75 08	 push	 DWORD PTR __First$[ebp]
  00010	e8 00 00 00 00	 call	 ??$_Uninit_copy@PBUChaosTalisman@@PAU1@V?$allocator@UChaosTalisman@@@std@@@std@@YAPAUChaosTalisman@@PBU1@0PAU1@AAU?$_Wrap_alloc@V?$allocator@UChaosTalisman@@@std@@@0@U_Nonscalar_ptr_iterator_tag@0@@Z ; std::_Uninit_copy<ChaosTalisman const *,ChaosTalisman *,std::allocator<ChaosTalisman> >
  00015	83 c4 14	 add	 esp, 20			; 00000014H
; File c:\program files (x86)\microsoft visual studio 14.0\vc\include\vector

; 1673 : 		}

  00018	5d		 pop	 ebp
  00019	c2 0c 00	 ret	 12			; 0000000cH
??$_Ucopy@V?$_Vector_const_iterator@V?$_Vector_val@U?$_Simple_types@UChaosTalisman@@@std@@@std@@@std@@@?$vector@UChaosTalisman@@V?$allocator@UChaosTalisman@@@std@@@std@@IAEPAUChaosTalisman@@V?$_Vector_const_iterator@V?$_Vector_val@U?$_Simple_types@UChaosTalisman@@@std@@@std@@@1@0PAU2@@Z ENDP ; std::vector<ChaosTalisman,std::allocator<ChaosTalisman> >::_Ucopy<std::_Vector_const_iterator<std::_Vector_val<std::_Simple_types<ChaosTalisman> > > >
_TEXT	ENDS
; Function compile flags: /Ogtp
; File c:\program files (x86)\microsoft visual studio 14.0\vc\include\vector
;	COMDAT ?_Unchecked@?$_Vector_const_iterator@V?$_Vector_val@U?$_Simple_types@UChaosTalisman@@@std@@@std@@@std@@QBEPBUChaosTalisman@@XZ
_TEXT	SEGMENT
?_Unchecked@?$_Vector_const_iterator@V?$_Vector_val@U?$_Simple_types@UChaosTalisman@@@std@@@std@@@std@@QBEPBUChaosTalisman@@XZ PROC ; std::_Vector_const_iterator<std::_Vector_val<std::_Simple_types<ChaosTalisman> > >::_Unchecked, COMDAT
; _this$ = ecx

; 61   : 		return (_Unchecked_type(this->_Ptr));

  00000	8b 01		 mov	 eax, DWORD PTR [ecx]

; 62   : 		}

  00002	c3		 ret	 0
?_Unchecked@?$_Vector_const_iterator@V?$_Vector_val@U?$_Simple_types@UChaosTalisman@@@std@@@std@@@std@@QBEPBUChaosTalisman@@XZ ENDP ; std::_Vector_const_iterator<std::_Vector_val<std::_Simple_types<ChaosTalisman> > >::_Unchecked
_TEXT	ENDS
; Function compile flags: /Ogtp
; File c:\program files (x86)\microsoft visual studio 14.0\vc\include\vector
;	COMDAT ??0?$_Vector_const_iterator@V?$_Vector_val@U?$_Simple_types@UChaosTalisman@@@std@@@std@@@std@@QAE@PAUChaosTalisman@@PBU_Container_base0@1@@Z
_TEXT	SEGMENT
__Parg$ = 8						; size = 4
__Pvector$ = 12						; size = 4
??0?$_Vector_const_iterator@V?$_Vector_val@U?$_Simple_types@UChaosTalisman@@@std@@@std@@@std@@QAE@PAUChaosTalisman@@PBU_Container_base0@1@@Z PROC ; std::_Vector_const_iterator<std::_Vector_val<std::_Simple_types<ChaosTalisman> > >::_Vector_const_iterator<std::_Vector_val<std::_Simple_types<ChaosTalisman> > >, COMDAT
; _this$ = ecx

; 47   : 		{	// construct with pointer _Parg

  00000	55		 push	 ebp
  00001	8b ec		 mov	 ebp, esp

; 46   : 		: _Ptr(_Parg)

  00003	8b 45 08	 mov	 eax, DWORD PTR __Parg$[ebp]
  00006	89 01		 mov	 DWORD PTR [ecx], eax

; 48   : 		this->_Adopt(_Pvector);
; 49   : 		}

  00008	8b c1		 mov	 eax, ecx
  0000a	5d		 pop	 ebp
  0000b	c2 08 00	 ret	 8
??0?$_Vector_const_iterator@V?$_Vector_val@U?$_Simple_types@UChaosTalisman@@@std@@@std@@@std@@QAE@PAUChaosTalisman@@PBU_Container_base0@1@@Z ENDP ; std::_Vector_const_iterator<std::_Vector_val<std::_Simple_types<ChaosTalisman> > >::_Vector_const_iterator<std::_Vector_val<std::_Simple_types<ChaosTalisman> > >
_TEXT	ENDS
; Function compile flags: /Ogtp
; File c:\program files (x86)\microsoft visual studio 14.0\vc\include\xmemory0
;	COMDAT ??$destroy@UChaosIngredient@@@?$allocator_traits@V?$allocator@UChaosIngredient@@@std@@@std@@SAXAAV?$allocator@UChaosIngredient@@@1@PAUChaosIngredient@@@Z
_TEXT	SEGMENT
__Al$ = 8						; size = 4
__Ptr$ = 12						; size = 4
??$destroy@UChaosIngredient@@@?$allocator_traits@V?$allocator@UChaosIngredient@@@std@@@std@@SAXAAV?$allocator@UChaosIngredient@@@1@PAUChaosIngredient@@@Z PROC ; std::allocator_traits<std::allocator<ChaosIngredient> >::destroy<ChaosIngredient>, COMDAT

; 780  : 		_Al.destroy(_Ptr);
; 781  : 		}

  00000	c3		 ret	 0
??$destroy@UChaosIngredient@@@?$allocator_traits@V?$allocator@UChaosIngredient@@@std@@@std@@SAXAAV?$allocator@UChaosIngredient@@@1@PAUChaosIngredient@@@Z ENDP ; std::allocator_traits<std::allocator<ChaosIngredient> >::destroy<ChaosIngredient>
_TEXT	ENDS
; Function compile flags: /Ogtp
; File c:\program files (x86)\microsoft visual studio 14.0\vc\include\xstddef
;	COMDAT ??$_Addressof@UChaosIngredient@@@std@@YAPAUChaosIngredient@@AAU1@U?$integral_constant@_N$0A@@0@@Z
_TEXT	SEGMENT
__Val$ = 8						; size = 4
___formal$ = 12						; size = 1
??$_Addressof@UChaosIngredient@@@std@@YAPAUChaosIngredient@@AAU1@U?$integral_constant@_N$0A@@0@@Z PROC ; std::_Addressof<ChaosIngredient>, COMDAT

; 688  : 	{	// return address of object _Val

  00000	55		 push	 ebp
  00001	8b ec		 mov	 ebp, esp

; 689  : 	return (reinterpret_cast<_Ty *>(

  00003	8b 45 08	 mov	 eax, DWORD PTR __Val$[ebp]

; 690  : 		&const_cast<char&>(
; 691  : 		reinterpret_cast<const volatile char&>(_Val))));
; 692  : 	}

  00006	5d		 pop	 ebp
  00007	c3		 ret	 0
??$_Addressof@UChaosIngredient@@@std@@YAPAUChaosIngredient@@AAU1@U?$integral_constant@_N$0A@@0@@Z ENDP ; std::_Addressof<ChaosIngredient>
_TEXT	ENDS
; Function compile flags: /Ogtp
; File c:\program files (x86)\microsoft visual studio 14.0\vc\include\xmemory
; File c:\program files (x86)\microsoft visual studio 14.0\vc\include\xmemory0
; File c:\program files (x86)\microsoft visual studio 14.0\vc\include\xmemory
;	COMDAT ??$_Uninit_move@PAUChaosIngredient@@PAU1@V?$allocator@UChaosIngredient@@@std@@U1@@std@@YAPAUChaosIngredient@@PAU1@00AAU?$_Wrap_alloc@V?$allocator@UChaosIngredient@@@std@@@0@0U_Nonscalar_ptr_iterator_tag@0@@Z
_TEXT	SEGMENT
__First$ = 8						; size = 4
__Last$ = 12						; size = 4
__Dest$ = 16						; size = 4
__Al$ = 20						; size = 4
___formal$ = 24						; size = 4
___formal$ = 28						; size = 1
??$_Uninit_move@PAUChaosIngredient@@PAU1@V?$allocator@UChaosIngredient@@@std@@U1@@std@@YAPAUChaosIngredient@@PAU1@00AAU?$_Wrap_alloc@V?$allocator@UChaosIngredient@@@std@@@0@0U_Nonscalar_ptr_iterator_tag@0@@Z PROC ; std::_Uninit_move<ChaosIngredient *,ChaosIngredient *,std::allocator<ChaosIngredient>,ChaosIngredient>, COMDAT

; 437  : 	{	// move [_First, _Last) to raw _Dest, using _Al, arbitrary type

  00000	55		 push	 ebp
  00001	8b ec		 mov	 ebp, esp

; 442  : 	for (; _First != _Last; ++_Dest, (void)++_First)

  00003	8b 4d 08	 mov	 ecx, DWORD PTR __First$[ebp]
  00006	8b 45 10	 mov	 eax, DWORD PTR __Dest$[ebp]
  00009	56		 push	 esi
  0000a	8b 75 0c	 mov	 esi, DWORD PTR __Last$[ebp]
  0000d	3b ce		 cmp	 ecx, esi
  0000f	74 34		 je	 SHORT $LN3@Uninit_mov
$LL4@Uninit_mov:
; File c:\program files (x86)\microsoft visual studio 14.0\vc\include\xmemory0

; 655  : 		::new ((void *)_Ptr) _Objty(_STD forward<_Types>(_Args)...);

  00011	85 c0		 test	 eax, eax
  00013	74 26		 je	 SHORT $LN2@Uninit_mov
  00015	0f 10 01	 movups	 xmm0, XMMWORD PTR [ecx]
  00018	0f 11 00	 movups	 XMMWORD PTR [eax], xmm0
  0001b	0f 10 41 10	 movups	 xmm0, XMMWORD PTR [ecx+16]
  0001f	0f 11 40 10	 movups	 XMMWORD PTR [eax+16], xmm0
  00023	0f 10 41 20	 movups	 xmm0, XMMWORD PTR [ecx+32]
  00027	0f 11 40 20	 movups	 XMMWORD PTR [eax+32], xmm0
  0002b	0f 10 41 30	 movups	 xmm0, XMMWORD PTR [ecx+48]
  0002f	0f 11 40 30	 movups	 XMMWORD PTR [eax+48], xmm0
  00033	66 8b 51 40	 mov	 dx, WORD PTR [ecx+64]
  00037	66 89 50 40	 mov	 WORD PTR [eax+64], dx
$LN2@Uninit_mov:
; File c:\program files (x86)\microsoft visual studio 14.0\vc\include\xmemory

; 442  : 	for (; _First != _Last; ++_Dest, (void)++_First)

  0003b	83 c1 42	 add	 ecx, 66			; 00000042H
  0003e	83 c0 42	 add	 eax, 66			; 00000042H
  00041	3b ce		 cmp	 ecx, esi
  00043	75 cc		 jne	 SHORT $LL4@Uninit_mov
$LN3@Uninit_mov:
  00045	5e		 pop	 esi

; 443  : 		_Al.construct(_Dest, (_Valty&&)*_First);
; 444  : 	_CATCH_ALL
; 445  : 	for (; _Next != _Dest; ++_Next)
; 446  : 		_Al.destroy(_Next);
; 447  : 	_RERAISE;
; 448  : 	_CATCH_END
; 449  : 	return (_Dest);
; 450  : 	}

  00046	5d		 pop	 ebp
  00047	c3		 ret	 0
??$_Uninit_move@PAUChaosIngredient@@PAU1@V?$allocator@UChaosIngredient@@@std@@U1@@std@@YAPAUChaosIngredient@@PAU1@00AAU?$_Wrap_alloc@V?$allocator@UChaosIngredient@@@std@@@0@0U_Nonscalar_ptr_iterator_tag@0@@Z ENDP ; std::_Uninit_move<ChaosIngredient *,ChaosIngredient *,std::allocator<ChaosIngredient>,ChaosIngredient>
_TEXT	ENDS
; Function compile flags: /Ogtp
; File c:\program files (x86)\microsoft visual studio 14.0\vc\include\xutility
;	COMDAT ??$_Val_type@PAUChaosIngredient@@@std@@YAPAUChaosIngredient@@PAU1@@Z
_TEXT	SEGMENT
___formal$ = 8						; size = 4
??$_Val_type@PAUChaosIngredient@@@std@@YAPAUChaosIngredient@@PAU1@@Z PROC ; std::_Val_type<ChaosIngredient *>, COMDAT

; 875  : 	return (0);

  00000	33 c0		 xor	 eax, eax

; 876  : 	}

  00002	c3		 ret	 0
??$_Val_type@PAUChaosIngredient@@@std@@YAPAUChaosIngredient@@PAU1@@Z ENDP ; std::_Val_type<ChaosIngredient *>
_TEXT	ENDS
; Function compile flags: /Ogtp
; File c:\program files (x86)\microsoft visual studio 14.0\vc\include\xmemory0
;	COMDAT ??$destroy@UChaosProduce@@@?$allocator_traits@V?$allocator@UChaosProduce@@@std@@@std@@SAXAAV?$allocator@UChaosProduce@@@1@PAUChaosProduce@@@Z
_TEXT	SEGMENT
__Al$ = 8						; size = 4
__Ptr$ = 12						; size = 4
??$destroy@UChaosProduce@@@?$allocator_traits@V?$allocator@UChaosProduce@@@std@@@std@@SAXAAV?$allocator@UChaosProduce@@@1@PAUChaosProduce@@@Z PROC ; std::allocator_traits<std::allocator<ChaosProduce> >::destroy<ChaosProduce>, COMDAT

; 780  : 		_Al.destroy(_Ptr);
; 781  : 		}

  00000	c3		 ret	 0
??$destroy@UChaosProduce@@@?$allocator_traits@V?$allocator@UChaosProduce@@@std@@@std@@SAXAAV?$allocator@UChaosProduce@@@1@PAUChaosProduce@@@Z ENDP ; std::allocator_traits<std::allocator<ChaosProduce> >::destroy<ChaosProduce>
_TEXT	ENDS
; Function compile flags: /Ogtp
; File c:\program files (x86)\microsoft visual studio 14.0\vc\include\xstddef
;	COMDAT ??$_Addressof@UChaosProduce@@@std@@YAPAUChaosProduce@@AAU1@U?$integral_constant@_N$0A@@0@@Z
_TEXT	SEGMENT
__Val$ = 8						; size = 4
___formal$ = 12						; size = 1
??$_Addressof@UChaosProduce@@@std@@YAPAUChaosProduce@@AAU1@U?$integral_constant@_N$0A@@0@@Z PROC ; std::_Addressof<ChaosProduce>, COMDAT

; 688  : 	{	// return address of object _Val

  00000	55		 push	 ebp
  00001	8b ec		 mov	 ebp, esp

; 689  : 	return (reinterpret_cast<_Ty *>(

  00003	8b 45 08	 mov	 eax, DWORD PTR __Val$[ebp]

; 690  : 		&const_cast<char&>(
; 691  : 		reinterpret_cast<const volatile char&>(_Val))));
; 692  : 	}

  00006	5d		 pop	 ebp
  00007	c3		 ret	 0
??$_Addressof@UChaosProduce@@@std@@YAPAUChaosProduce@@AAU1@U?$integral_constant@_N$0A@@0@@Z ENDP ; std::_Addressof<ChaosProduce>
_TEXT	ENDS
; Function compile flags: /Ogtp
; File c:\program files (x86)\microsoft visual studio 14.0\vc\include\xmemory
; File c:\program files (x86)\microsoft visual studio 14.0\vc\include\xmemory0
; File c:\program files (x86)\microsoft visual studio 14.0\vc\include\xmemory
;	COMDAT ??$_Uninit_move@PAUChaosProduce@@PAU1@V?$allocator@UChaosProduce@@@std@@U1@@std@@YAPAUChaosProduce@@PAU1@00AAU?$_Wrap_alloc@V?$allocator@UChaosProduce@@@std@@@0@0U_Nonscalar_ptr_iterator_tag@0@@Z
_TEXT	SEGMENT
__First$ = 8						; size = 4
__Last$ = 12						; size = 4
__Dest$ = 16						; size = 4
__Al$ = 20						; size = 4
___formal$ = 24						; size = 4
___formal$ = 28						; size = 1
??$_Uninit_move@PAUChaosProduce@@PAU1@V?$allocator@UChaosProduce@@@std@@U1@@std@@YAPAUChaosProduce@@PAU1@00AAU?$_Wrap_alloc@V?$allocator@UChaosProduce@@@std@@@0@0U_Nonscalar_ptr_iterator_tag@0@@Z PROC ; std::_Uninit_move<ChaosProduce *,ChaosProduce *,std::allocator<ChaosProduce>,ChaosProduce>, COMDAT

; 437  : 	{	// move [_First, _Last) to raw _Dest, using _Al, arbitrary type

  00000	55		 push	 ebp
  00001	8b ec		 mov	 ebp, esp

; 442  : 	for (; _First != _Last; ++_Dest, (void)++_First)

  00003	8b 4d 08	 mov	 ecx, DWORD PTR __First$[ebp]
  00006	8b 55 0c	 mov	 edx, DWORD PTR __Last$[ebp]
  00009	8b 45 10	 mov	 eax, DWORD PTR __Dest$[ebp]
  0000c	3b ca		 cmp	 ecx, edx
  0000e	74 14		 je	 SHORT $LN3@Uninit_mov
$LL4@Uninit_mov:
; File c:\program files (x86)\microsoft visual studio 14.0\vc\include\xmemory0

; 655  : 		::new ((void *)_Ptr) _Objty(_STD forward<_Types>(_Args)...);

  00010	85 c0		 test	 eax, eax
  00012	74 06		 je	 SHORT $LN2@Uninit_mov
  00014	0f 10 01	 movups	 xmm0, XMMWORD PTR [ecx]
  00017	0f 11 00	 movups	 XMMWORD PTR [eax], xmm0
$LN2@Uninit_mov:
; File c:\program files (x86)\microsoft visual studio 14.0\vc\include\xmemory

; 442  : 	for (; _First != _Last; ++_Dest, (void)++_First)

  0001a	83 c1 10	 add	 ecx, 16			; 00000010H
  0001d	83 c0 10	 add	 eax, 16			; 00000010H
  00020	3b ca		 cmp	 ecx, edx
  00022	75 ec		 jne	 SHORT $LL4@Uninit_mov
$LN3@Uninit_mov:

; 443  : 		_Al.construct(_Dest, (_Valty&&)*_First);
; 444  : 	_CATCH_ALL
; 445  : 	for (; _Next != _Dest; ++_Next)
; 446  : 		_Al.destroy(_Next);
; 447  : 	_RERAISE;
; 448  : 	_CATCH_END
; 449  : 	return (_Dest);
; 450  : 	}

  00024	5d		 pop	 ebp
  00025	c3		 ret	 0
??$_Uninit_move@PAUChaosProduce@@PAU1@V?$allocator@UChaosProduce@@@std@@U1@@std@@YAPAUChaosProduce@@PAU1@00AAU?$_Wrap_alloc@V?$allocator@UChaosProduce@@@std@@@0@0U_Nonscalar_ptr_iterator_tag@0@@Z ENDP ; std::_Uninit_move<ChaosProduce *,ChaosProduce *,std::allocator<ChaosProduce>,ChaosProduce>
_TEXT	ENDS
; Function compile flags: /Ogtp
; File c:\program files (x86)\microsoft visual studio 14.0\vc\include\xutility
;	COMDAT ??$_Val_type@PAUChaosProduce@@@std@@YAPAUChaosProduce@@PAU1@@Z
_TEXT	SEGMENT
___formal$ = 8						; size = 4
??$_Val_type@PAUChaosProduce@@@std@@YAPAUChaosProduce@@PAU1@@Z PROC ; std::_Val_type<ChaosProduce *>, COMDAT

; 875  : 	return (0);

  00000	33 c0		 xor	 eax, eax

; 876  : 	}

  00002	c3		 ret	 0
??$_Val_type@PAUChaosProduce@@@std@@YAPAUChaosProduce@@PAU1@@Z ENDP ; std::_Val_type<ChaosProduce *>
_TEXT	ENDS
; Function compile flags: /Ogtp
; File c:\program files (x86)\microsoft visual studio 14.0\vc\include\xmemory0
;	COMDAT ??$destroy@UChaosTalisman@@@?$allocator_traits@V?$allocator@UChaosTalisman@@@std@@@std@@SAXAAV?$allocator@UChaosTalisman@@@1@PAUChaosTalisman@@@Z
_TEXT	SEGMENT
__Al$ = 8						; size = 4
__Ptr$ = 12						; size = 4
??$destroy@UChaosTalisman@@@?$allocator_traits@V?$allocator@UChaosTalisman@@@std@@@std@@SAXAAV?$allocator@UChaosTalisman@@@1@PAUChaosTalisman@@@Z PROC ; std::allocator_traits<std::allocator<ChaosTalisman> >::destroy<ChaosTalisman>, COMDAT

; 780  : 		_Al.destroy(_Ptr);
; 781  : 		}

  00000	c3		 ret	 0
??$destroy@UChaosTalisman@@@?$allocator_traits@V?$allocator@UChaosTalisman@@@std@@@std@@SAXAAV?$allocator@UChaosTalisman@@@1@PAUChaosTalisman@@@Z ENDP ; std::allocator_traits<std::allocator<ChaosTalisman> >::destroy<ChaosTalisman>
_TEXT	ENDS
; Function compile flags: /Ogtp
; File c:\program files (x86)\microsoft visual studio 14.0\vc\include\xstddef
;	COMDAT ??$_Addressof@UChaosTalisman@@@std@@YAPAUChaosTalisman@@AAU1@U?$integral_constant@_N$0A@@0@@Z
_TEXT	SEGMENT
__Val$ = 8						; size = 4
___formal$ = 12						; size = 1
??$_Addressof@UChaosTalisman@@@std@@YAPAUChaosTalisman@@AAU1@U?$integral_constant@_N$0A@@0@@Z PROC ; std::_Addressof<ChaosTalisman>, COMDAT

; 688  : 	{	// return address of object _Val

  00000	55		 push	 ebp
  00001	8b ec		 mov	 ebp, esp

; 689  : 	return (reinterpret_cast<_Ty *>(

  00003	8b 45 08	 mov	 eax, DWORD PTR __Val$[ebp]

; 690  : 		&const_cast<char&>(
; 691  : 		reinterpret_cast<const volatile char&>(_Val))));
; 692  : 	}

  00006	5d		 pop	 ebp
  00007	c3		 ret	 0
??$_Addressof@UChaosTalisman@@@std@@YAPAUChaosTalisman@@AAU1@U?$integral_constant@_N$0A@@0@@Z ENDP ; std::_Addressof<ChaosTalisman>
_TEXT	ENDS
; Function compile flags: /Ogtp
; File c:\program files (x86)\microsoft visual studio 14.0\vc\include\xmemory
; File c:\program files (x86)\microsoft visual studio 14.0\vc\include\xmemory0
; File c:\program files (x86)\microsoft visual studio 14.0\vc\include\xmemory
;	COMDAT ??$_Uninit_move@PAUChaosTalisman@@PAU1@V?$allocator@UChaosTalisman@@@std@@U1@@std@@YAPAUChaosTalisman@@PAU1@00AAU?$_Wrap_alloc@V?$allocator@UChaosTalisman@@@std@@@0@0U_Nonscalar_ptr_iterator_tag@0@@Z
_TEXT	SEGMENT
__First$ = 8						; size = 4
__Last$ = 12						; size = 4
__Dest$ = 16						; size = 4
__Al$ = 20						; size = 4
___formal$ = 24						; size = 4
___formal$ = 28						; size = 1
??$_Uninit_move@PAUChaosTalisman@@PAU1@V?$allocator@UChaosTalisman@@@std@@U1@@std@@YAPAUChaosTalisman@@PAU1@00AAU?$_Wrap_alloc@V?$allocator@UChaosTalisman@@@std@@@0@0U_Nonscalar_ptr_iterator_tag@0@@Z PROC ; std::_Uninit_move<ChaosTalisman *,ChaosTalisman *,std::allocator<ChaosTalisman>,ChaosTalisman>, COMDAT

; 437  : 	{	// move [_First, _Last) to raw _Dest, using _Al, arbitrary type

  00000	55		 push	 ebp
  00001	8b ec		 mov	 ebp, esp

; 442  : 	for (; _First != _Last; ++_Dest, (void)++_First)

  00003	8b 4d 08	 mov	 ecx, DWORD PTR __First$[ebp]
  00006	8b 55 0c	 mov	 edx, DWORD PTR __Last$[ebp]
  00009	8b 45 10	 mov	 eax, DWORD PTR __Dest$[ebp]
  0000c	3b ca		 cmp	 ecx, edx
  0000e	74 14		 je	 SHORT $LN3@Uninit_mov
$LL4@Uninit_mov:
; File c:\program files (x86)\microsoft visual studio 14.0\vc\include\xmemory0

; 655  : 		::new ((void *)_Ptr) _Objty(_STD forward<_Types>(_Args)...);

  00010	85 c0		 test	 eax, eax
  00012	74 06		 je	 SHORT $LN2@Uninit_mov
  00014	0f 10 01	 movups	 xmm0, XMMWORD PTR [ecx]
  00017	0f 11 00	 movups	 XMMWORD PTR [eax], xmm0
$LN2@Uninit_mov:
; File c:\program files (x86)\microsoft visual studio 14.0\vc\include\xmemory

; 442  : 	for (; _First != _Last; ++_Dest, (void)++_First)

  0001a	83 c1 10	 add	 ecx, 16			; 00000010H
  0001d	83 c0 10	 add	 eax, 16			; 00000010H
  00020	3b ca		 cmp	 ecx, edx
  00022	75 ec		 jne	 SHORT $LL4@Uninit_mov
$LN3@Uninit_mov:

; 443  : 		_Al.construct(_Dest, (_Valty&&)*_First);
; 444  : 	_CATCH_ALL
; 445  : 	for (; _Next != _Dest; ++_Next)
; 446  : 		_Al.destroy(_Next);
; 447  : 	_RERAISE;
; 448  : 	_CATCH_END
; 449  : 	return (_Dest);
; 450  : 	}

  00024	5d		 pop	 ebp
  00025	c3		 ret	 0
??$_Uninit_move@PAUChaosTalisman@@PAU1@V?$allocator@UChaosTalisman@@@std@@U1@@std@@YAPAUChaosTalisman@@PAU1@00AAU?$_Wrap_alloc@V?$allocator@UChaosTalisman@@@std@@@0@0U_Nonscalar_ptr_iterator_tag@0@@Z ENDP ; std::_Uninit_move<ChaosTalisman *,ChaosTalisman *,std::allocator<ChaosTalisman>,ChaosTalisman>
_TEXT	ENDS
; Function compile flags: /Ogtp
; File c:\program files (x86)\microsoft visual studio 14.0\vc\include\xutility
;	COMDAT ??$_Val_type@PAUChaosTalisman@@@std@@YAPAUChaosTalisman@@PAU1@@Z
_TEXT	SEGMENT
___formal$ = 8						; size = 4
??$_Val_type@PAUChaosTalisman@@@std@@YAPAUChaosTalisman@@PAU1@@Z PROC ; std::_Val_type<ChaosTalisman *>, COMDAT

; 875  : 	return (0);

  00000	33 c0		 xor	 eax, eax

; 876  : 	}

  00002	c3		 ret	 0
??$_Val_type@PAUChaosTalisman@@@std@@YAPAUChaosTalisman@@PAU1@@Z ENDP ; std::_Val_type<ChaosTalisman *>
_TEXT	ENDS
; Function compile flags: /Ogtp
; File c:\program files (x86)\microsoft visual studio 14.0\vc\include\xmemory
; File c:\program files (x86)\microsoft visual studio 14.0\vc\include\xmemory0
; File c:\program files (x86)\microsoft visual studio 14.0\vc\include\xmemory
;	COMDAT ??$_Uninit_move@PAUChaosCombination@@PAU1@V?$allocator@UChaosCombination@@@std@@U1@@std@@YAPAUChaosCombination@@PAU1@00AAU?$_Wrap_alloc@V?$allocator@UChaosCombination@@@std@@@0@0U_Nonscalar_ptr_iterator_tag@0@@Z
_TEXT	SEGMENT
__First$ = 8						; size = 4
__Last$ = 12						; size = 4
__Dest$ = 16						; size = 4
__Al$ = 20						; size = 4
___formal$ = 24						; size = 4
___formal$ = 28						; size = 1
??$_Uninit_move@PAUChaosCombination@@PAU1@V?$allocator@UChaosCombination@@@std@@U1@@std@@YAPAUChaosCombination@@PAU1@00AAU?$_Wrap_alloc@V?$allocator@UChaosCombination@@@std@@@0@0U_Nonscalar_ptr_iterator_tag@0@@Z PROC ; std::_Uninit_move<ChaosCombination *,ChaosCombination *,std::allocator<ChaosCombination>,ChaosCombination>, COMDAT

; 437  : 	{	// move [_First, _Last) to raw _Dest, using _Al, arbitrary type

  00000	55		 push	 ebp
  00001	8b ec		 mov	 ebp, esp
  00003	53		 push	 ebx

; 442  : 	for (; _First != _Last; ++_Dest, (void)++_First)

  00004	8b 5d 0c	 mov	 ebx, DWORD PTR __Last$[ebp]
  00007	56		 push	 esi
  00008	8b 75 08	 mov	 esi, DWORD PTR __First$[ebp]
  0000b	3b f3		 cmp	 esi, ebx
  0000d	74 27		 je	 SHORT $LN47@Uninit_mov
  0000f	57		 push	 edi
  00010	8b 7d 10	 mov	 edi, DWORD PTR __Dest$[ebp]
$LL4@Uninit_mov:
; File c:\program files (x86)\microsoft visual studio 14.0\vc\include\xmemory0

; 655  : 		::new ((void *)_Ptr) _Objty(_STD forward<_Types>(_Args)...);

  00013	85 ff		 test	 edi, edi
  00015	74 08		 je	 SHORT $LN2@Uninit_mov
  00017	56		 push	 esi
  00018	8b cf		 mov	 ecx, edi
  0001a	e8 00 00 00 00	 call	 ??0ChaosCombination@@QAE@$$QAU0@@Z
$LN2@Uninit_mov:
; File c:\program files (x86)\microsoft visual studio 14.0\vc\include\xmemory

; 442  : 	for (; _First != _Last; ++_Dest, (void)++_First)

  0001f	81 c6 28 01 00
	00		 add	 esi, 296		; 00000128H
  00025	81 c7 28 01 00
	00		 add	 edi, 296		; 00000128H
  0002b	3b f3		 cmp	 esi, ebx
  0002d	75 e4		 jne	 SHORT $LL4@Uninit_mov

; 443  : 		_Al.construct(_Dest, (_Valty&&)*_First);
; 444  : 	_CATCH_ALL
; 445  : 	for (; _Next != _Dest; ++_Next)
; 446  : 		_Al.destroy(_Next);
; 447  : 	_RERAISE;
; 448  : 	_CATCH_END
; 449  : 	return (_Dest);

  0002f	8b c7		 mov	 eax, edi
  00031	5f		 pop	 edi
  00032	5e		 pop	 esi
  00033	5b		 pop	 ebx

; 450  : 	}

  00034	5d		 pop	 ebp
  00035	c3		 ret	 0
$LN47@Uninit_mov:

; 443  : 		_Al.construct(_Dest, (_Valty&&)*_First);
; 444  : 	_CATCH_ALL
; 445  : 	for (; _Next != _Dest; ++_Next)
; 446  : 		_Al.destroy(_Next);
; 447  : 	_RERAISE;
; 448  : 	_CATCH_END
; 449  : 	return (_Dest);

  00036	8b 45 10	 mov	 eax, DWORD PTR __Dest$[ebp]
  00039	5e		 pop	 esi
  0003a	5b		 pop	 ebx

; 450  : 	}

  0003b	5d		 pop	 ebp
  0003c	c3		 ret	 0
??$_Uninit_move@PAUChaosCombination@@PAU1@V?$allocator@UChaosCombination@@@std@@U1@@std@@YAPAUChaosCombination@@PAU1@00AAU?$_Wrap_alloc@V?$allocator@UChaosCombination@@@std@@@0@0U_Nonscalar_ptr_iterator_tag@0@@Z ENDP ; std::_Uninit_move<ChaosCombination *,ChaosCombination *,std::allocator<ChaosCombination>,ChaosCombination>
_TEXT	ENDS
; Function compile flags: /Ogtp
; File c:\program files (x86)\microsoft visual studio 14.0\vc\include\xutility
;	COMDAT ??$_Val_type@PAUChaosCombination@@@std@@YAPAUChaosCombination@@PAU1@@Z
_TEXT	SEGMENT
___formal$ = 8						; size = 4
??$_Val_type@PAUChaosCombination@@@std@@YAPAUChaosCombination@@PAU1@@Z PROC ; std::_Val_type<ChaosCombination *>, COMDAT

; 875  : 	return (0);

  00000	33 c0		 xor	 eax, eax

; 876  : 	}

  00002	c3		 ret	 0
??$_Val_type@PAUChaosCombination@@@std@@YAPAUChaosCombination@@PAU1@@Z ENDP ; std::_Val_type<ChaosCombination *>
_TEXT	ENDS
; Function compile flags: /Ogtp
; File c:\program files (x86)\microsoft visual studio 14.0\vc\include\xmemory
;	COMDAT ??$_Uninit_move@PAVChaosRecipe@@PAV1@PAV1@@std@@YAPAPAVChaosRecipe@@PAPAV1@00AAU?$_Wrap_alloc@V?$allocator@PAVChaosRecipe@@@std@@@0@0U_Scalar_ptr_iterator_tag@0@@Z
_TEXT	SEGMENT
__First$ = 8						; size = 4
__Last$ = 12						; size = 4
__Dest$ = 16						; size = 4
___formal$ = 20						; size = 4
___formal$ = 24						; size = 4
___formal$ = 28						; size = 1
??$_Uninit_move@PAVChaosRecipe@@PAV1@PAV1@@std@@YAPAPAVChaosRecipe@@PAPAV1@00AAU?$_Wrap_alloc@V?$allocator@PAVChaosRecipe@@@std@@@0@0U_Scalar_ptr_iterator_tag@0@@Z PROC ; std::_Uninit_move<ChaosRecipe *,ChaosRecipe *,ChaosRecipe *>, COMDAT

; 468  : 	{	// move [_First, _Last) to raw _Dest, scalar type

  00000	55		 push	 ebp
  00001	8b ec		 mov	 ebp, esp

; 469  : 	_DEBUG_RANGE_PTR(_First, _Last, _Dest);
; 470  : 	size_t _Count = (size_t)(_Last - _First);

  00003	8b 4d 08	 mov	 ecx, DWORD PTR __First$[ebp]
  00006	8b 45 0c	 mov	 eax, DWORD PTR __Last$[ebp]
  00009	2b c1		 sub	 eax, ecx
  0000b	c1 f8 02	 sar	 eax, 2
  0000e	56		 push	 esi

; 471  : 	return ((_Ty2 *)_CSTD memmove(&*_Dest, &*_First,

  0000f	8d 34 85 00 00
	00 00		 lea	 esi, DWORD PTR [eax*4]
  00016	56		 push	 esi
  00017	51		 push	 ecx
  00018	ff 75 10	 push	 DWORD PTR __Dest$[ebp]
  0001b	e8 00 00 00 00	 call	 _memmove
  00020	83 c4 0c	 add	 esp, 12			; 0000000cH
  00023	03 c6		 add	 eax, esi
  00025	5e		 pop	 esi

; 472  : 		_Count * sizeof (*_First)) + _Count);	// NB: non-overlapping move
; 473  : 	}

  00026	5d		 pop	 ebp
  00027	c3		 ret	 0
??$_Uninit_move@PAVChaosRecipe@@PAV1@PAV1@@std@@YAPAPAVChaosRecipe@@PAPAV1@00AAU?$_Wrap_alloc@V?$allocator@PAVChaosRecipe@@@std@@@0@0U_Scalar_ptr_iterator_tag@0@@Z ENDP ; std::_Uninit_move<ChaosRecipe *,ChaosRecipe *,ChaosRecipe *>
_TEXT	ENDS
; Function compile flags: /Ogtp
; File c:\program files (x86)\microsoft visual studio 14.0\vc\include\xutility
;	COMDAT ??$_Val_type@PAPAVChaosRecipe@@@std@@YAPAPAVChaosRecipe@@PAPAV1@@Z
_TEXT	SEGMENT
___formal$ = 8						; size = 4
??$_Val_type@PAPAVChaosRecipe@@@std@@YAPAPAVChaosRecipe@@PAPAV1@@Z PROC ; std::_Val_type<ChaosRecipe * *>, COMDAT

; 875  : 	return (0);

  00000	33 c0		 xor	 eax, eax

; 876  : 	}

  00002	c3		 ret	 0
??$_Val_type@PAPAVChaosRecipe@@@std@@YAPAPAVChaosRecipe@@PAPAV1@@Z ENDP ; std::_Val_type<ChaosRecipe * *>
_TEXT	ENDS
; Function compile flags: /Ogtp
; File c:\program files (x86)\microsoft visual studio 14.0\vc\include\xmemory0
;	COMDAT ??$destroy@UChaosCombination@@@?$allocator_traits@V?$allocator@UChaosCombination@@@std@@@std@@SAXAAV?$allocator@UChaosCombination@@@1@PAUChaosCombination@@@Z
_TEXT	SEGMENT
__Al$ = 8						; size = 4
__Ptr$ = 12						; size = 4
??$destroy@UChaosCombination@@@?$allocator_traits@V?$allocator@UChaosCombination@@@std@@@std@@SAXAAV?$allocator@UChaosCombination@@@1@PAUChaosCombination@@@Z PROC ; std::allocator_traits<std::allocator<ChaosCombination> >::destroy<ChaosCombination>, COMDAT

; 779  : 		{	// destroy object at _Ptr

  00000	55		 push	 ebp
  00001	8b ec		 mov	 ebp, esp
  00003	8b 4d 0c	 mov	 ecx, DWORD PTR __Ptr$[ebp]

; 780  : 		_Al.destroy(_Ptr);
; 781  : 		}

  00006	5d		 pop	 ebp
  00007	e9 00 00 00 00	 jmp	 ??1ChaosCombination@@QAE@XZ
??$destroy@UChaosCombination@@@?$allocator_traits@V?$allocator@UChaosCombination@@@std@@@std@@SAXAAV?$allocator@UChaosCombination@@@1@PAUChaosCombination@@@Z ENDP ; std::allocator_traits<std::allocator<ChaosCombination> >::destroy<ChaosCombination>
_TEXT	ENDS
; Function compile flags: /Ogtp
; File c:\program files (x86)\microsoft visual studio 14.0\vc\include\xstddef
;	COMDAT ??$_Addressof@UChaosCombination@@@std@@YAPAUChaosCombination@@AAU1@U?$integral_constant@_N$0A@@0@@Z
_TEXT	SEGMENT
__Val$ = 8						; size = 4
___formal$ = 12						; size = 1
??$_Addressof@UChaosCombination@@@std@@YAPAUChaosCombination@@AAU1@U?$integral_constant@_N$0A@@0@@Z PROC ; std::_Addressof<ChaosCombination>, COMDAT

; 688  : 	{	// return address of object _Val

  00000	55		 push	 ebp
  00001	8b ec		 mov	 ebp, esp

; 689  : 	return (reinterpret_cast<_Ty *>(

  00003	8b 45 08	 mov	 eax, DWORD PTR __Val$[ebp]

; 690  : 		&const_cast<char&>(
; 691  : 		reinterpret_cast<const volatile char&>(_Val))));
; 692  : 	}

  00006	5d		 pop	 ebp
  00007	c3		 ret	 0
??$_Addressof@UChaosCombination@@@std@@YAPAUChaosCombination@@AAU1@U?$integral_constant@_N$0A@@0@@Z ENDP ; std::_Addressof<ChaosCombination>
_TEXT	ENDS
; Function compile flags: /Ogtp
; File c:\program files (x86)\microsoft visual studio 14.0\vc\include\xmemory0
;	COMDAT ??$destroy@UChaosIngredient@@@?$_Wrap_alloc@V?$allocator@UChaosIngredient@@@std@@@std@@QAEXPAUChaosIngredient@@@Z
_TEXT	SEGMENT
__Ptr$ = 8						; size = 4
??$destroy@UChaosIngredient@@@?$_Wrap_alloc@V?$allocator@UChaosIngredient@@@std@@@std@@QAEXPAUChaosIngredient@@@Z PROC ; std::_Wrap_alloc<std::allocator<ChaosIngredient> >::destroy<ChaosIngredient>, COMDAT
; _this$ = ecx

; 925  : 		_Mytraits::destroy(*this, _Ptr);
; 926  : 		}

  00000	c2 04 00	 ret	 4
??$destroy@UChaosIngredient@@@?$_Wrap_alloc@V?$allocator@UChaosIngredient@@@std@@@std@@QAEXPAUChaosIngredient@@@Z ENDP ; std::_Wrap_alloc<std::allocator<ChaosIngredient> >::destroy<ChaosIngredient>
_TEXT	ENDS
; Function compile flags: /Ogtp
; File c:\program files (x86)\microsoft visual studio 14.0\vc\include\xstddef
;	COMDAT ??$addressof@UChaosIngredient@@@std@@YAPAUChaosIngredient@@AAU1@@Z
_TEXT	SEGMENT
__Val$ = 8						; size = 4
??$addressof@UChaosIngredient@@@std@@YAPAUChaosIngredient@@AAU1@@Z PROC ; std::addressof<ChaosIngredient>, COMDAT

; 696  : 	{	// return address of _Val

  00000	55		 push	 ebp
  00001	8b ec		 mov	 ebp, esp

; 697  : 	return (_Addressof(_Val, is_function<_Ty>()));

  00003	8b 45 08	 mov	 eax, DWORD PTR __Val$[ebp]

; 698  : 	}

  00006	5d		 pop	 ebp
  00007	c3		 ret	 0
??$addressof@UChaosIngredient@@@std@@YAPAUChaosIngredient@@AAU1@@Z ENDP ; std::addressof<ChaosIngredient>
_TEXT	ENDS
; Function compile flags: /Ogtp
; File c:\program files (x86)\microsoft visual studio 14.0\vc\include\xutility
;	COMDAT ??$_Rechecked@PAUChaosIngredient@@PAU1@@std@@YAAAPAUChaosIngredient@@AAPAU1@PAU1@@Z
_TEXT	SEGMENT
__Dest$ = 8						; size = 4
__Src$ = 12						; size = 4
??$_Rechecked@PAUChaosIngredient@@PAU1@@std@@YAAAPAUChaosIngredient@@AAPAU1@PAU1@@Z PROC ; std::_Rechecked<ChaosIngredient *,ChaosIngredient *>, COMDAT

; 446  : 	{	// reset checked from unchecked, generic

  00000	55		 push	 ebp
  00001	8b ec		 mov	 ebp, esp

; 447  : 	_Dest = _Src;

  00003	8b 45 08	 mov	 eax, DWORD PTR __Dest$[ebp]
  00006	8b 4d 0c	 mov	 ecx, DWORD PTR __Src$[ebp]
  00009	89 08		 mov	 DWORD PTR [eax], ecx

; 448  : 	return (_Dest);
; 449  : 	}

  0000b	5d		 pop	 ebp
  0000c	c3		 ret	 0
??$_Rechecked@PAUChaosIngredient@@PAU1@@std@@YAAAPAUChaosIngredient@@AAPAU1@PAU1@@Z ENDP ; std::_Rechecked<ChaosIngredient *,ChaosIngredient *>
_TEXT	ENDS
; Function compile flags: /Ogtp
; File c:\program files (x86)\microsoft visual studio 14.0\vc\include\xmemory
;	COMDAT ??$_Uninit_move@PAUChaosIngredient@@PAU1@U?$_Wrap_alloc@V?$allocator@UChaosIngredient@@@std@@@std@@@std@@YAPAUChaosIngredient@@PAU1@00AAU?$_Wrap_alloc@V?$allocator@UChaosIngredient@@@std@@@0@@Z
_TEXT	SEGMENT
__Cat$1 = -4						; size = 1
__First$ = 8						; size = 4
__Last$ = 12						; size = 4
__Dest$ = 16						; size = 4
__Al$ = 20						; size = 4
??$_Uninit_move@PAUChaosIngredient@@PAU1@U?$_Wrap_alloc@V?$allocator@UChaosIngredient@@@std@@@std@@@std@@YAPAUChaosIngredient@@PAU1@00AAU?$_Wrap_alloc@V?$allocator@UChaosIngredient@@@std@@@0@@Z PROC ; std::_Uninit_move<ChaosIngredient *,ChaosIngredient *,std::_Wrap_alloc<std::allocator<ChaosIngredient> > >, COMDAT

; 480  : 	{	// move [_First, _Last) to raw _Dest, using _Al

  00000	55		 push	 ebp
  00001	8b ec		 mov	 ebp, esp
  00003	51		 push	 ecx

; 481  : 	return (_Uninit_move(_First, _Last, _Dest, _Al,

  00004	ff 75 fc	 push	 DWORD PTR __Cat$1[ebp]
  00007	6a 00		 push	 0
  00009	ff 75 14	 push	 DWORD PTR __Al$[ebp]
  0000c	ff 75 10	 push	 DWORD PTR __Dest$[ebp]
  0000f	ff 75 0c	 push	 DWORD PTR __Last$[ebp]
  00012	ff 75 08	 push	 DWORD PTR __First$[ebp]
  00015	e8 00 00 00 00	 call	 ??$_Uninit_move@PAUChaosIngredient@@PAU1@V?$allocator@UChaosIngredient@@@std@@U1@@std@@YAPAUChaosIngredient@@PAU1@00AAU?$_Wrap_alloc@V?$allocator@UChaosIngredient@@@std@@@0@0U_Nonscalar_ptr_iterator_tag@0@@Z ; std::_Uninit_move<ChaosIngredient *,ChaosIngredient *,std::allocator<ChaosIngredient>,ChaosIngredient>
  0001a	83 c4 18	 add	 esp, 24			; 00000018H

; 482  : 		_Val_type(_First), _Ptr_cat(_First, _Dest)));
; 483  : 	}

  0001d	8b e5		 mov	 esp, ebp
  0001f	5d		 pop	 ebp
  00020	c3		 ret	 0
??$_Uninit_move@PAUChaosIngredient@@PAU1@U?$_Wrap_alloc@V?$allocator@UChaosIngredient@@@std@@@std@@@std@@YAPAUChaosIngredient@@PAU1@00AAU?$_Wrap_alloc@V?$allocator@UChaosIngredient@@@std@@@0@@Z ENDP ; std::_Uninit_move<ChaosIngredient *,ChaosIngredient *,std::_Wrap_alloc<std::allocator<ChaosIngredient> > >
_TEXT	ENDS
; Function compile flags: /Ogtp
; File c:\program files (x86)\microsoft visual studio 14.0\vc\include\xutility
;	COMDAT ??$_Unchecked@PAUChaosIngredient@@@std@@YAPAUChaosIngredient@@PAU1@@Z
_TEXT	SEGMENT
__Src$ = 8						; size = 4
??$_Unchecked@PAUChaosIngredient@@@std@@YAPAUChaosIngredient@@PAU1@@Z PROC ; std::_Unchecked<ChaosIngredient *>, COMDAT

; 438  : 	{	// construct unchecked from checked, generic

  00000	55		 push	 ebp
  00001	8b ec		 mov	 ebp, esp

; 439  : 	return (_Src);

  00003	8b 45 08	 mov	 eax, DWORD PTR __Src$[ebp]

; 440  : 	}

  00006	5d		 pop	 ebp
  00007	c3		 ret	 0
??$_Unchecked@PAUChaosIngredient@@@std@@YAPAUChaosIngredient@@PAU1@@Z ENDP ; std::_Unchecked<ChaosIngredient *>
_TEXT	ENDS
; Function compile flags: /Ogtp
; File c:\program files (x86)\microsoft visual studio 14.0\vc\include\xmemory0
;	COMDAT ??$destroy@UChaosProduce@@@?$_Wrap_alloc@V?$allocator@UChaosProduce@@@std@@@std@@QAEXPAUChaosProduce@@@Z
_TEXT	SEGMENT
__Ptr$ = 8						; size = 4
??$destroy@UChaosProduce@@@?$_Wrap_alloc@V?$allocator@UChaosProduce@@@std@@@std@@QAEXPAUChaosProduce@@@Z PROC ; std::_Wrap_alloc<std::allocator<ChaosProduce> >::destroy<ChaosProduce>, COMDAT
; _this$ = ecx

; 925  : 		_Mytraits::destroy(*this, _Ptr);
; 926  : 		}

  00000	c2 04 00	 ret	 4
??$destroy@UChaosProduce@@@?$_Wrap_alloc@V?$allocator@UChaosProduce@@@std@@@std@@QAEXPAUChaosProduce@@@Z ENDP ; std::_Wrap_alloc<std::allocator<ChaosProduce> >::destroy<ChaosProduce>
_TEXT	ENDS
; Function compile flags: /Ogtp
; File c:\program files (x86)\microsoft visual studio 14.0\vc\include\xstddef
;	COMDAT ??$addressof@UChaosProduce@@@std@@YAPAUChaosProduce@@AAU1@@Z
_TEXT	SEGMENT
__Val$ = 8						; size = 4
??$addressof@UChaosProduce@@@std@@YAPAUChaosProduce@@AAU1@@Z PROC ; std::addressof<ChaosProduce>, COMDAT

; 696  : 	{	// return address of _Val

  00000	55		 push	 ebp
  00001	8b ec		 mov	 ebp, esp

; 697  : 	return (_Addressof(_Val, is_function<_Ty>()));

  00003	8b 45 08	 mov	 eax, DWORD PTR __Val$[ebp]

; 698  : 	}

  00006	5d		 pop	 ebp
  00007	c3		 ret	 0
??$addressof@UChaosProduce@@@std@@YAPAUChaosProduce@@AAU1@@Z ENDP ; std::addressof<ChaosProduce>
_TEXT	ENDS
; Function compile flags: /Ogtp
; File c:\program files (x86)\microsoft visual studio 14.0\vc\include\xutility
;	COMDAT ??$_Rechecked@PAUChaosProduce@@PAU1@@std@@YAAAPAUChaosProduce@@AAPAU1@PAU1@@Z
_TEXT	SEGMENT
__Dest$ = 8						; size = 4
__Src$ = 12						; size = 4
??$_Rechecked@PAUChaosProduce@@PAU1@@std@@YAAAPAUChaosProduce@@AAPAU1@PAU1@@Z PROC ; std::_Rechecked<ChaosProduce *,ChaosProduce *>, COMDAT

; 446  : 	{	// reset checked from unchecked, generic

  00000	55		 push	 ebp
  00001	8b ec		 mov	 ebp, esp

; 447  : 	_Dest = _Src;

  00003	8b 45 08	 mov	 eax, DWORD PTR __Dest$[ebp]
  00006	8b 4d 0c	 mov	 ecx, DWORD PTR __Src$[ebp]
  00009	89 08		 mov	 DWORD PTR [eax], ecx

; 448  : 	return (_Dest);
; 449  : 	}

  0000b	5d		 pop	 ebp
  0000c	c3		 ret	 0
??$_Rechecked@PAUChaosProduce@@PAU1@@std@@YAAAPAUChaosProduce@@AAPAU1@PAU1@@Z ENDP ; std::_Rechecked<ChaosProduce *,ChaosProduce *>
_TEXT	ENDS
; Function compile flags: /Ogtp
; File c:\program files (x86)\microsoft visual studio 14.0\vc\include\xmemory
;	COMDAT ??$_Uninit_move@PAUChaosProduce@@PAU1@U?$_Wrap_alloc@V?$allocator@UChaosProduce@@@std@@@std@@@std@@YAPAUChaosProduce@@PAU1@00AAU?$_Wrap_alloc@V?$allocator@UChaosProduce@@@std@@@0@@Z
_TEXT	SEGMENT
__Cat$1 = -4						; size = 1
__First$ = 8						; size = 4
__Last$ = 12						; size = 4
__Dest$ = 16						; size = 4
__Al$ = 20						; size = 4
??$_Uninit_move@PAUChaosProduce@@PAU1@U?$_Wrap_alloc@V?$allocator@UChaosProduce@@@std@@@std@@@std@@YAPAUChaosProduce@@PAU1@00AAU?$_Wrap_alloc@V?$allocator@UChaosProduce@@@std@@@0@@Z PROC ; std::_Uninit_move<ChaosProduce *,ChaosProduce *,std::_Wrap_alloc<std::allocator<ChaosProduce> > >, COMDAT

; 480  : 	{	// move [_First, _Last) to raw _Dest, using _Al

  00000	55		 push	 ebp
  00001	8b ec		 mov	 ebp, esp
  00003	51		 push	 ecx

; 481  : 	return (_Uninit_move(_First, _Last, _Dest, _Al,

  00004	ff 75 fc	 push	 DWORD PTR __Cat$1[ebp]
  00007	6a 00		 push	 0
  00009	ff 75 14	 push	 DWORD PTR __Al$[ebp]
  0000c	ff 75 10	 push	 DWORD PTR __Dest$[ebp]
  0000f	ff 75 0c	 push	 DWORD PTR __Last$[ebp]
  00012	ff 75 08	 push	 DWORD PTR __First$[ebp]
  00015	e8 00 00 00 00	 call	 ??$_Uninit_move@PAUChaosProduce@@PAU1@V?$allocator@UChaosProduce@@@std@@U1@@std@@YAPAUChaosProduce@@PAU1@00AAU?$_Wrap_alloc@V?$allocator@UChaosProduce@@@std@@@0@0U_Nonscalar_ptr_iterator_tag@0@@Z ; std::_Uninit_move<ChaosProduce *,ChaosProduce *,std::allocator<ChaosProduce>,ChaosProduce>
  0001a	83 c4 18	 add	 esp, 24			; 00000018H

; 482  : 		_Val_type(_First), _Ptr_cat(_First, _Dest)));
; 483  : 	}

  0001d	8b e5		 mov	 esp, ebp
  0001f	5d		 pop	 ebp
  00020	c3		 ret	 0
??$_Uninit_move@PAUChaosProduce@@PAU1@U?$_Wrap_alloc@V?$allocator@UChaosProduce@@@std@@@std@@@std@@YAPAUChaosProduce@@PAU1@00AAU?$_Wrap_alloc@V?$allocator@UChaosProduce@@@std@@@0@@Z ENDP ; std::_Uninit_move<ChaosProduce *,ChaosProduce *,std::_Wrap_alloc<std::allocator<ChaosProduce> > >
_TEXT	ENDS
; Function compile flags: /Ogtp
; File c:\program files (x86)\microsoft visual studio 14.0\vc\include\xutility
;	COMDAT ??$_Unchecked@PAUChaosProduce@@@std@@YAPAUChaosProduce@@PAU1@@Z
_TEXT	SEGMENT
__Src$ = 8						; size = 4
??$_Unchecked@PAUChaosProduce@@@std@@YAPAUChaosProduce@@PAU1@@Z PROC ; std::_Unchecked<ChaosProduce *>, COMDAT

; 438  : 	{	// construct unchecked from checked, generic

  00000	55		 push	 ebp
  00001	8b ec		 mov	 ebp, esp

; 439  : 	return (_Src);

  00003	8b 45 08	 mov	 eax, DWORD PTR __Src$[ebp]

; 440  : 	}

  00006	5d		 pop	 ebp
  00007	c3		 ret	 0
??$_Unchecked@PAUChaosProduce@@@std@@YAPAUChaosProduce@@PAU1@@Z ENDP ; std::_Unchecked<ChaosProduce *>
_TEXT	ENDS
; Function compile flags: /Ogtp
; File c:\program files (x86)\microsoft visual studio 14.0\vc\include\xmemory0
;	COMDAT ??$destroy@UChaosTalisman@@@?$_Wrap_alloc@V?$allocator@UChaosTalisman@@@std@@@std@@QAEXPAUChaosTalisman@@@Z
_TEXT	SEGMENT
__Ptr$ = 8						; size = 4
??$destroy@UChaosTalisman@@@?$_Wrap_alloc@V?$allocator@UChaosTalisman@@@std@@@std@@QAEXPAUChaosTalisman@@@Z PROC ; std::_Wrap_alloc<std::allocator<ChaosTalisman> >::destroy<ChaosTalisman>, COMDAT
; _this$ = ecx

; 925  : 		_Mytraits::destroy(*this, _Ptr);
; 926  : 		}

  00000	c2 04 00	 ret	 4
??$destroy@UChaosTalisman@@@?$_Wrap_alloc@V?$allocator@UChaosTalisman@@@std@@@std@@QAEXPAUChaosTalisman@@@Z ENDP ; std::_Wrap_alloc<std::allocator<ChaosTalisman> >::destroy<ChaosTalisman>
_TEXT	ENDS
; Function compile flags: /Ogtp
; File c:\program files (x86)\microsoft visual studio 14.0\vc\include\xstddef
;	COMDAT ??$addressof@UChaosTalisman@@@std@@YAPAUChaosTalisman@@AAU1@@Z
_TEXT	SEGMENT
__Val$ = 8						; size = 4
??$addressof@UChaosTalisman@@@std@@YAPAUChaosTalisman@@AAU1@@Z PROC ; std::addressof<ChaosTalisman>, COMDAT

; 696  : 	{	// return address of _Val

  00000	55		 push	 ebp
  00001	8b ec		 mov	 ebp, esp

; 697  : 	return (_Addressof(_Val, is_function<_Ty>()));

  00003	8b 45 08	 mov	 eax, DWORD PTR __Val$[ebp]

; 698  : 	}

  00006	5d		 pop	 ebp
  00007	c3		 ret	 0
??$addressof@UChaosTalisman@@@std@@YAPAUChaosTalisman@@AAU1@@Z ENDP ; std::addressof<ChaosTalisman>
_TEXT	ENDS
; Function compile flags: /Ogtp
; File c:\program files (x86)\microsoft visual studio 14.0\vc\include\xutility
;	COMDAT ??$_Rechecked@PAUChaosTalisman@@PAU1@@std@@YAAAPAUChaosTalisman@@AAPAU1@PAU1@@Z
_TEXT	SEGMENT
__Dest$ = 8						; size = 4
__Src$ = 12						; size = 4
??$_Rechecked@PAUChaosTalisman@@PAU1@@std@@YAAAPAUChaosTalisman@@AAPAU1@PAU1@@Z PROC ; std::_Rechecked<ChaosTalisman *,ChaosTalisman *>, COMDAT

; 446  : 	{	// reset checked from unchecked, generic

  00000	55		 push	 ebp
  00001	8b ec		 mov	 ebp, esp

; 447  : 	_Dest = _Src;

  00003	8b 45 08	 mov	 eax, DWORD PTR __Dest$[ebp]
  00006	8b 4d 0c	 mov	 ecx, DWORD PTR __Src$[ebp]
  00009	89 08		 mov	 DWORD PTR [eax], ecx

; 448  : 	return (_Dest);
; 449  : 	}

  0000b	5d		 pop	 ebp
  0000c	c3		 ret	 0
??$_Rechecked@PAUChaosTalisman@@PAU1@@std@@YAAAPAUChaosTalisman@@AAPAU1@PAU1@@Z ENDP ; std::_Rechecked<ChaosTalisman *,ChaosTalisman *>
_TEXT	ENDS
; Function compile flags: /Ogtp
; File c:\program files (x86)\microsoft visual studio 14.0\vc\include\xmemory
;	COMDAT ??$_Uninit_move@PAUChaosTalisman@@PAU1@U?$_Wrap_alloc@V?$allocator@UChaosTalisman@@@std@@@std@@@std@@YAPAUChaosTalisman@@PAU1@00AAU?$_Wrap_alloc@V?$allocator@UChaosTalisman@@@std@@@0@@Z
_TEXT	SEGMENT
__Cat$1 = -4						; size = 1
__First$ = 8						; size = 4
__Last$ = 12						; size = 4
__Dest$ = 16						; size = 4
__Al$ = 20						; size = 4
??$_Uninit_move@PAUChaosTalisman@@PAU1@U?$_Wrap_alloc@V?$allocator@UChaosTalisman@@@std@@@std@@@std@@YAPAUChaosTalisman@@PAU1@00AAU?$_Wrap_alloc@V?$allocator@UChaosTalisman@@@std@@@0@@Z PROC ; std::_Uninit_move<ChaosTalisman *,ChaosTalisman *,std::_Wrap_alloc<std::allocator<ChaosTalisman> > >, COMDAT

; 480  : 	{	// move [_First, _Last) to raw _Dest, using _Al

  00000	55		 push	 ebp
  00001	8b ec		 mov	 ebp, esp
  00003	51		 push	 ecx

; 481  : 	return (_Uninit_move(_First, _Last, _Dest, _Al,

  00004	ff 75 fc	 push	 DWORD PTR __Cat$1[ebp]
  00007	6a 00		 push	 0
  00009	ff 75 14	 push	 DWORD PTR __Al$[ebp]
  0000c	ff 75 10	 push	 DWORD PTR __Dest$[ebp]
  0000f	ff 75 0c	 push	 DWORD PTR __Last$[ebp]
  00012	ff 75 08	 push	 DWORD PTR __First$[ebp]
  00015	e8 00 00 00 00	 call	 ??$_Uninit_move@PAUChaosTalisman@@PAU1@V?$allocator@UChaosTalisman@@@std@@U1@@std@@YAPAUChaosTalisman@@PAU1@00AAU?$_Wrap_alloc@V?$allocator@UChaosTalisman@@@std@@@0@0U_Nonscalar_ptr_iterator_tag@0@@Z ; std::_Uninit_move<ChaosTalisman *,ChaosTalisman *,std::allocator<ChaosTalisman>,ChaosTalisman>
  0001a	83 c4 18	 add	 esp, 24			; 00000018H

; 482  : 		_Val_type(_First), _Ptr_cat(_First, _Dest)));
; 483  : 	}

  0001d	8b e5		 mov	 esp, ebp
  0001f	5d		 pop	 ebp
  00020	c3		 ret	 0
??$_Uninit_move@PAUChaosTalisman@@PAU1@U?$_Wrap_alloc@V?$allocator@UChaosTalisman@@@std@@@std@@@std@@YAPAUChaosTalisman@@PAU1@00AAU?$_Wrap_alloc@V?$allocator@UChaosTalisman@@@std@@@0@@Z ENDP ; std::_Uninit_move<ChaosTalisman *,ChaosTalisman *,std::_Wrap_alloc<std::allocator<ChaosTalisman> > >
_TEXT	ENDS
; Function compile flags: /Ogtp
; File c:\program files (x86)\microsoft visual studio 14.0\vc\include\xutility
;	COMDAT ??$_Unchecked@PAUChaosTalisman@@@std@@YAPAUChaosTalisman@@PAU1@@Z
_TEXT	SEGMENT
__Src$ = 8						; size = 4
??$_Unchecked@PAUChaosTalisman@@@std@@YAPAUChaosTalisman@@PAU1@@Z PROC ; std::_Unchecked<ChaosTalisman *>, COMDAT

; 438  : 	{	// construct unchecked from checked, generic

  00000	55		 push	 ebp
  00001	8b ec		 mov	 ebp, esp

; 439  : 	return (_Src);

  00003	8b 45 08	 mov	 eax, DWORD PTR __Src$[ebp]

; 440  : 	}

  00006	5d		 pop	 ebp
  00007	c3		 ret	 0
??$_Unchecked@PAUChaosTalisman@@@std@@YAPAUChaosTalisman@@PAU1@@Z ENDP ; std::_Unchecked<ChaosTalisman *>
_TEXT	ENDS
; Function compile flags: /Ogtp
; File c:\program files (x86)\microsoft visual studio 14.0\vc\include\xutility
;	COMDAT ??$_Rechecked@PAUChaosCombination@@PAU1@@std@@YAAAPAUChaosCombination@@AAPAU1@PAU1@@Z
_TEXT	SEGMENT
__Dest$ = 8						; size = 4
__Src$ = 12						; size = 4
??$_Rechecked@PAUChaosCombination@@PAU1@@std@@YAAAPAUChaosCombination@@AAPAU1@PAU1@@Z PROC ; std::_Rechecked<ChaosCombination *,ChaosCombination *>, COMDAT

; 446  : 	{	// reset checked from unchecked, generic

  00000	55		 push	 ebp
  00001	8b ec		 mov	 ebp, esp

; 447  : 	_Dest = _Src;

  00003	8b 45 08	 mov	 eax, DWORD PTR __Dest$[ebp]
  00006	8b 4d 0c	 mov	 ecx, DWORD PTR __Src$[ebp]
  00009	89 08		 mov	 DWORD PTR [eax], ecx

; 448  : 	return (_Dest);
; 449  : 	}

  0000b	5d		 pop	 ebp
  0000c	c3		 ret	 0
??$_Rechecked@PAUChaosCombination@@PAU1@@std@@YAAAPAUChaosCombination@@AAPAU1@PAU1@@Z ENDP ; std::_Rechecked<ChaosCombination *,ChaosCombination *>
_TEXT	ENDS
; Function compile flags: /Ogtp
; File c:\program files (x86)\microsoft visual studio 14.0\vc\include\xmemory
;	COMDAT ??$_Uninit_move@PAUChaosCombination@@PAU1@U?$_Wrap_alloc@V?$allocator@UChaosCombination@@@std@@@std@@@std@@YAPAUChaosCombination@@PAU1@00AAU?$_Wrap_alloc@V?$allocator@UChaosCombination@@@std@@@0@@Z
_TEXT	SEGMENT
__Cat$1 = -4						; size = 1
__First$ = 8						; size = 4
__Last$ = 12						; size = 4
__Dest$ = 16						; size = 4
__Al$ = 20						; size = 4
??$_Uninit_move@PAUChaosCombination@@PAU1@U?$_Wrap_alloc@V?$allocator@UChaosCombination@@@std@@@std@@@std@@YAPAUChaosCombination@@PAU1@00AAU?$_Wrap_alloc@V?$allocator@UChaosCombination@@@std@@@0@@Z PROC ; std::_Uninit_move<ChaosCombination *,ChaosCombination *,std::_Wrap_alloc<std::allocator<ChaosCombination> > >, COMDAT

; 480  : 	{	// move [_First, _Last) to raw _Dest, using _Al

  00000	55		 push	 ebp
  00001	8b ec		 mov	 ebp, esp
  00003	51		 push	 ecx

; 481  : 	return (_Uninit_move(_First, _Last, _Dest, _Al,

  00004	ff 75 fc	 push	 DWORD PTR __Cat$1[ebp]
  00007	6a 00		 push	 0
  00009	ff 75 14	 push	 DWORD PTR __Al$[ebp]
  0000c	ff 75 10	 push	 DWORD PTR __Dest$[ebp]
  0000f	ff 75 0c	 push	 DWORD PTR __Last$[ebp]
  00012	ff 75 08	 push	 DWORD PTR __First$[ebp]
  00015	e8 00 00 00 00	 call	 ??$_Uninit_move@PAUChaosCombination@@PAU1@V?$allocator@UChaosCombination@@@std@@U1@@std@@YAPAUChaosCombination@@PAU1@00AAU?$_Wrap_alloc@V?$allocator@UChaosCombination@@@std@@@0@0U_Nonscalar_ptr_iterator_tag@0@@Z ; std::_Uninit_move<ChaosCombination *,ChaosCombination *,std::allocator<ChaosCombination>,ChaosCombination>
  0001a	83 c4 18	 add	 esp, 24			; 00000018H

; 482  : 		_Val_type(_First), _Ptr_cat(_First, _Dest)));
; 483  : 	}

  0001d	8b e5		 mov	 esp, ebp
  0001f	5d		 pop	 ebp
  00020	c3		 ret	 0
??$_Uninit_move@PAUChaosCombination@@PAU1@U?$_Wrap_alloc@V?$allocator@UChaosCombination@@@std@@@std@@@std@@YAPAUChaosCombination@@PAU1@00AAU?$_Wrap_alloc@V?$allocator@UChaosCombination@@@std@@@0@@Z ENDP ; std::_Uninit_move<ChaosCombination *,ChaosCombination *,std::_Wrap_alloc<std::allocator<ChaosCombination> > >
_TEXT	ENDS
; Function compile flags: /Ogtp
; File c:\program files (x86)\microsoft visual studio 14.0\vc\include\xutility
;	COMDAT ??$_Unchecked@PAUChaosCombination@@@std@@YAPAUChaosCombination@@PAU1@@Z
_TEXT	SEGMENT
__Src$ = 8						; size = 4
??$_Unchecked@PAUChaosCombination@@@std@@YAPAUChaosCombination@@PAU1@@Z PROC ; std::_Unchecked<ChaosCombination *>, COMDAT

; 438  : 	{	// construct unchecked from checked, generic

  00000	55		 push	 ebp
  00001	8b ec		 mov	 ebp, esp

; 439  : 	return (_Src);

  00003	8b 45 08	 mov	 eax, DWORD PTR __Src$[ebp]

; 440  : 	}

  00006	5d		 pop	 ebp
  00007	c3		 ret	 0
??$_Unchecked@PAUChaosCombination@@@std@@YAPAUChaosCombination@@PAU1@@Z ENDP ; std::_Unchecked<ChaosCombination *>
_TEXT	ENDS
; Function compile flags: /Ogtp
; File c:\program files (x86)\microsoft visual studio 14.0\vc\include\xutility
;	COMDAT ??$_Rechecked@PAPAVChaosRecipe@@PAPAV1@@std@@YAAAPAPAVChaosRecipe@@AAPAPAV1@PAPAV1@@Z
_TEXT	SEGMENT
__Dest$ = 8						; size = 4
__Src$ = 12						; size = 4
??$_Rechecked@PAPAVChaosRecipe@@PAPAV1@@std@@YAAAPAPAVChaosRecipe@@AAPAPAV1@PAPAV1@@Z PROC ; std::_Rechecked<ChaosRecipe * *,ChaosRecipe * *>, COMDAT

; 446  : 	{	// reset checked from unchecked, generic

  00000	55		 push	 ebp
  00001	8b ec		 mov	 ebp, esp

; 447  : 	_Dest = _Src;

  00003	8b 45 08	 mov	 eax, DWORD PTR __Dest$[ebp]
  00006	8b 4d 0c	 mov	 ecx, DWORD PTR __Src$[ebp]
  00009	89 08		 mov	 DWORD PTR [eax], ecx

; 448  : 	return (_Dest);
; 449  : 	}

  0000b	5d		 pop	 ebp
  0000c	c3		 ret	 0
??$_Rechecked@PAPAVChaosRecipe@@PAPAV1@@std@@YAAAPAPAVChaosRecipe@@AAPAPAV1@PAPAV1@@Z ENDP ; std::_Rechecked<ChaosRecipe * *,ChaosRecipe * *>
_TEXT	ENDS
; Function compile flags: /Ogtp
; File c:\program files (x86)\microsoft visual studio 14.0\vc\include\xmemory
;	COMDAT ??$_Uninit_move@PAPAVChaosRecipe@@PAPAV1@U?$_Wrap_alloc@V?$allocator@PAVChaosRecipe@@@std@@@std@@@std@@YAPAPAVChaosRecipe@@PAPAV1@00AAU?$_Wrap_alloc@V?$allocator@PAVChaosRecipe@@@std@@@0@@Z
_TEXT	SEGMENT
__First$ = 8						; size = 4
__Last$ = 12						; size = 4
__Dest$ = 16						; size = 4
__Al$ = 20						; size = 4
??$_Uninit_move@PAPAVChaosRecipe@@PAPAV1@U?$_Wrap_alloc@V?$allocator@PAVChaosRecipe@@@std@@@std@@@std@@YAPAPAVChaosRecipe@@PAPAV1@00AAU?$_Wrap_alloc@V?$allocator@PAVChaosRecipe@@@std@@@0@@Z PROC ; std::_Uninit_move<ChaosRecipe * *,ChaosRecipe * *,std::_Wrap_alloc<std::allocator<ChaosRecipe *> > >, COMDAT

; 480  : 	{	// move [_First, _Last) to raw _Dest, using _Al

  00000	55		 push	 ebp
  00001	8b ec		 mov	 ebp, esp

; 470  : 	size_t _Count = (size_t)(_Last - _First);

  00003	8b 4d 08	 mov	 ecx, DWORD PTR __First$[ebp]
  00006	8b 45 0c	 mov	 eax, DWORD PTR __Last$[ebp]
  00009	2b c1		 sub	 eax, ecx
  0000b	c1 f8 02	 sar	 eax, 2
  0000e	56		 push	 esi

; 471  : 	return ((_Ty2 *)_CSTD memmove(&*_Dest, &*_First,

  0000f	8d 34 85 00 00
	00 00		 lea	 esi, DWORD PTR [eax*4]
  00016	56		 push	 esi
  00017	51		 push	 ecx
  00018	ff 75 10	 push	 DWORD PTR __Dest$[ebp]
  0001b	e8 00 00 00 00	 call	 _memmove
  00020	83 c4 0c	 add	 esp, 12			; 0000000cH
  00023	03 c6		 add	 eax, esi
  00025	5e		 pop	 esi

; 481  : 	return (_Uninit_move(_First, _Last, _Dest, _Al,
; 482  : 		_Val_type(_First), _Ptr_cat(_First, _Dest)));
; 483  : 	}

  00026	5d		 pop	 ebp
  00027	c3		 ret	 0
??$_Uninit_move@PAPAVChaosRecipe@@PAPAV1@U?$_Wrap_alloc@V?$allocator@PAVChaosRecipe@@@std@@@std@@@std@@YAPAPAVChaosRecipe@@PAPAV1@00AAU?$_Wrap_alloc@V?$allocator@PAVChaosRecipe@@@std@@@0@@Z ENDP ; std::_Uninit_move<ChaosRecipe * *,ChaosRecipe * *,std::_Wrap_alloc<std::allocator<ChaosRecipe *> > >
_TEXT	ENDS
; Function compile flags: /Ogtp
; File c:\program files (x86)\microsoft visual studio 14.0\vc\include\xutility
;	COMDAT ??$_Unchecked@PAPAVChaosRecipe@@@std@@YAPAPAVChaosRecipe@@PAPAV1@@Z
_TEXT	SEGMENT
__Src$ = 8						; size = 4
??$_Unchecked@PAPAVChaosRecipe@@@std@@YAPAPAVChaosRecipe@@PAPAV1@@Z PROC ; std::_Unchecked<ChaosRecipe * *>, COMDAT

; 438  : 	{	// construct unchecked from checked, generic

  00000	55		 push	 ebp
  00001	8b ec		 mov	 ebp, esp

; 439  : 	return (_Src);

  00003	8b 45 08	 mov	 eax, DWORD PTR __Src$[ebp]

; 440  : 	}

  00006	5d		 pop	 ebp
  00007	c3		 ret	 0
??$_Unchecked@PAPAVChaosRecipe@@@std@@YAPAPAVChaosRecipe@@PAPAV1@@Z ENDP ; std::_Unchecked<ChaosRecipe * *>
_TEXT	ENDS
; Function compile flags: /Ogtp
; File c:\program files (x86)\microsoft visual studio 14.0\vc\include\xmemory0
;	COMDAT ??$destroy@UChaosCombination@@@?$_Wrap_alloc@V?$allocator@UChaosCombination@@@std@@@std@@QAEXPAUChaosCombination@@@Z
_TEXT	SEGMENT
__Ptr$ = 8						; size = 4
??$destroy@UChaosCombination@@@?$_Wrap_alloc@V?$allocator@UChaosCombination@@@std@@@std@@QAEXPAUChaosCombination@@@Z PROC ; std::_Wrap_alloc<std::allocator<ChaosCombination> >::destroy<ChaosCombination>, COMDAT
; _this$ = ecx

; 924  : 		{	// destroy object at _Ptr

  00000	55		 push	 ebp
  00001	8b ec		 mov	 ebp, esp
  00003	8b 4d 08	 mov	 ecx, DWORD PTR __Ptr$[ebp]
  00006	e8 00 00 00 00	 call	 ??1ChaosCombination@@QAE@XZ

; 925  : 		_Mytraits::destroy(*this, _Ptr);
; 926  : 		}

  0000b	5d		 pop	 ebp
  0000c	c2 04 00	 ret	 4
??$destroy@UChaosCombination@@@?$_Wrap_alloc@V?$allocator@UChaosCombination@@@std@@@std@@QAEXPAUChaosCombination@@@Z ENDP ; std::_Wrap_alloc<std::allocator<ChaosCombination> >::destroy<ChaosCombination>
_TEXT	ENDS
; Function compile flags: /Ogtp
; File c:\program files (x86)\microsoft visual studio 14.0\vc\include\xstddef
;	COMDAT ??$addressof@UChaosCombination@@@std@@YAPAUChaosCombination@@AAU1@@Z
_TEXT	SEGMENT
__Val$ = 8						; size = 4
??$addressof@UChaosCombination@@@std@@YAPAUChaosCombination@@AAU1@@Z PROC ; std::addressof<ChaosCombination>, COMDAT

; 696  : 	{	// return address of _Val

  00000	55		 push	 ebp
  00001	8b ec		 mov	 ebp, esp

; 697  : 	return (_Addressof(_Val, is_function<_Ty>()));

  00003	8b 45 08	 mov	 eax, DWORD PTR __Val$[ebp]

; 698  : 	}

  00006	5d		 pop	 ebp
  00007	c3		 ret	 0
??$addressof@UChaosCombination@@@std@@YAPAUChaosCombination@@AAU1@@Z ENDP ; std::addressof<ChaosCombination>
_TEXT	ENDS
; Function compile flags: /Ogtp
; File c:\program files (x86)\microsoft visual studio 14.0\vc\include\xmemory0
;	COMDAT ??$construct@UChaosIngredient@@ABU1@@?$allocator@UChaosIngredient@@@std@@QAEXPAUChaosIngredient@@ABU2@@Z
_TEXT	SEGMENT
__Ptr$ = 8						; size = 4
_<_Args_0>$ = 12					; size = 4
??$construct@UChaosIngredient@@ABU1@@?$allocator@UChaosIngredient@@@std@@QAEXPAUChaosIngredient@@ABU2@@Z PROC ; std::allocator<ChaosIngredient>::construct<ChaosIngredient,ChaosIngredient const &>, COMDAT
; _this$ = ecx

; 654  : 		{	// construct _Objty(_Types...) at _Ptr

  00000	55		 push	 ebp
  00001	8b ec		 mov	 ebp, esp

; 655  : 		::new ((void *)_Ptr) _Objty(_STD forward<_Types>(_Args)...);

  00003	8b 4d 08	 mov	 ecx, DWORD PTR __Ptr$[ebp]
  00006	85 c9		 test	 ecx, ecx
  00008	74 29		 je	 SHORT $LN3@construct
  0000a	8b 45 0c	 mov	 eax, DWORD PTR _<_Args_0>$[ebp]
  0000d	0f 10 00	 movups	 xmm0, XMMWORD PTR [eax]
  00010	0f 11 01	 movups	 XMMWORD PTR [ecx], xmm0
  00013	0f 10 40 10	 movups	 xmm0, XMMWORD PTR [eax+16]
  00017	0f 11 41 10	 movups	 XMMWORD PTR [ecx+16], xmm0
  0001b	0f 10 40 20	 movups	 xmm0, XMMWORD PTR [eax+32]
  0001f	0f 11 41 20	 movups	 XMMWORD PTR [ecx+32], xmm0
  00023	0f 10 40 30	 movups	 xmm0, XMMWORD PTR [eax+48]
  00027	0f 11 41 30	 movups	 XMMWORD PTR [ecx+48], xmm0
  0002b	66 8b 40 40	 mov	 ax, WORD PTR [eax+64]
  0002f	66 89 41 40	 mov	 WORD PTR [ecx+64], ax
$LN3@construct:

; 656  : 		}

  00033	5d		 pop	 ebp
  00034	c2 08 00	 ret	 8
??$construct@UChaosIngredient@@ABU1@@?$allocator@UChaosIngredient@@@std@@QAEXPAUChaosIngredient@@ABU2@@Z ENDP ; std::allocator<ChaosIngredient>::construct<ChaosIngredient,ChaosIngredient const &>
_TEXT	ENDS
; Function compile flags: /Ogtp
; File c:\program files (x86)\microsoft visual studio 14.0\vc\include\xmemory0
;	COMDAT ??$construct@UChaosIngredient@@AAU1@@?$allocator@UChaosIngredient@@@std@@QAEXPAUChaosIngredient@@AAU2@@Z
_TEXT	SEGMENT
__Ptr$ = 8						; size = 4
_<_Args_0>$ = 12					; size = 4
??$construct@UChaosIngredient@@AAU1@@?$allocator@UChaosIngredient@@@std@@QAEXPAUChaosIngredient@@AAU2@@Z PROC ; std::allocator<ChaosIngredient>::construct<ChaosIngredient,ChaosIngredient &>, COMDAT
; _this$ = ecx

; 654  : 		{	// construct _Objty(_Types...) at _Ptr

  00000	55		 push	 ebp
  00001	8b ec		 mov	 ebp, esp

; 655  : 		::new ((void *)_Ptr) _Objty(_STD forward<_Types>(_Args)...);

  00003	8b 4d 08	 mov	 ecx, DWORD PTR __Ptr$[ebp]
  00006	85 c9		 test	 ecx, ecx
  00008	74 29		 je	 SHORT $LN3@construct
  0000a	8b 45 0c	 mov	 eax, DWORD PTR _<_Args_0>$[ebp]
  0000d	0f 10 00	 movups	 xmm0, XMMWORD PTR [eax]
  00010	0f 11 01	 movups	 XMMWORD PTR [ecx], xmm0
  00013	0f 10 40 10	 movups	 xmm0, XMMWORD PTR [eax+16]
  00017	0f 11 41 10	 movups	 XMMWORD PTR [ecx+16], xmm0
  0001b	0f 10 40 20	 movups	 xmm0, XMMWORD PTR [eax+32]
  0001f	0f 11 41 20	 movups	 XMMWORD PTR [ecx+32], xmm0
  00023	0f 10 40 30	 movups	 xmm0, XMMWORD PTR [eax+48]
  00027	0f 11 41 30	 movups	 XMMWORD PTR [ecx+48], xmm0
  0002b	66 8b 40 40	 mov	 ax, WORD PTR [eax+64]
  0002f	66 89 41 40	 mov	 WORD PTR [ecx+64], ax
$LN3@construct:

; 656  : 		}

  00033	5d		 pop	 ebp
  00034	c2 08 00	 ret	 8
??$construct@UChaosIngredient@@AAU1@@?$allocator@UChaosIngredient@@@std@@QAEXPAUChaosIngredient@@AAU2@@Z ENDP ; std::allocator<ChaosIngredient>::construct<ChaosIngredient,ChaosIngredient &>
_TEXT	ENDS
; Function compile flags: /Ogtp
; File c:\program files (x86)\microsoft visual studio 14.0\vc\include\xmemory0
;	COMDAT ??$construct@UChaosProduce@@ABU1@@?$allocator@UChaosProduce@@@std@@QAEXPAUChaosProduce@@ABU2@@Z
_TEXT	SEGMENT
__Ptr$ = 8						; size = 4
_<_Args_0>$ = 12					; size = 4
??$construct@UChaosProduce@@ABU1@@?$allocator@UChaosProduce@@@std@@QAEXPAUChaosProduce@@ABU2@@Z PROC ; std::allocator<ChaosProduce>::construct<ChaosProduce,ChaosProduce const &>, COMDAT
; _this$ = ecx

; 654  : 		{	// construct _Objty(_Types...) at _Ptr

  00000	55		 push	 ebp
  00001	8b ec		 mov	 ebp, esp

; 655  : 		::new ((void *)_Ptr) _Objty(_STD forward<_Types>(_Args)...);

  00003	8b 4d 08	 mov	 ecx, DWORD PTR __Ptr$[ebp]
  00006	85 c9		 test	 ecx, ecx
  00008	74 09		 je	 SHORT $LN3@construct
  0000a	8b 45 0c	 mov	 eax, DWORD PTR _<_Args_0>$[ebp]
  0000d	0f 10 00	 movups	 xmm0, XMMWORD PTR [eax]
  00010	0f 11 01	 movups	 XMMWORD PTR [ecx], xmm0
$LN3@construct:

; 656  : 		}

  00013	5d		 pop	 ebp
  00014	c2 08 00	 ret	 8
??$construct@UChaosProduce@@ABU1@@?$allocator@UChaosProduce@@@std@@QAEXPAUChaosProduce@@ABU2@@Z ENDP ; std::allocator<ChaosProduce>::construct<ChaosProduce,ChaosProduce const &>
_TEXT	ENDS
; Function compile flags: /Ogtp
; File c:\program files (x86)\microsoft visual studio 14.0\vc\include\xmemory0
;	COMDAT ??$construct@UChaosProduce@@AAU1@@?$allocator@UChaosProduce@@@std@@QAEXPAUChaosProduce@@AAU2@@Z
_TEXT	SEGMENT
__Ptr$ = 8						; size = 4
_<_Args_0>$ = 12					; size = 4
??$construct@UChaosProduce@@AAU1@@?$allocator@UChaosProduce@@@std@@QAEXPAUChaosProduce@@AAU2@@Z PROC ; std::allocator<ChaosProduce>::construct<ChaosProduce,ChaosProduce &>, COMDAT
; _this$ = ecx

; 654  : 		{	// construct _Objty(_Types...) at _Ptr

  00000	55		 push	 ebp
  00001	8b ec		 mov	 ebp, esp

; 655  : 		::new ((void *)_Ptr) _Objty(_STD forward<_Types>(_Args)...);

  00003	8b 4d 08	 mov	 ecx, DWORD PTR __Ptr$[ebp]
  00006	85 c9		 test	 ecx, ecx
  00008	74 09		 je	 SHORT $LN3@construct
  0000a	8b 45 0c	 mov	 eax, DWORD PTR _<_Args_0>$[ebp]
  0000d	0f 10 00	 movups	 xmm0, XMMWORD PTR [eax]
  00010	0f 11 01	 movups	 XMMWORD PTR [ecx], xmm0
$LN3@construct:

; 656  : 		}

  00013	5d		 pop	 ebp
  00014	c2 08 00	 ret	 8
??$construct@UChaosProduce@@AAU1@@?$allocator@UChaosProduce@@@std@@QAEXPAUChaosProduce@@AAU2@@Z ENDP ; std::allocator<ChaosProduce>::construct<ChaosProduce,ChaosProduce &>
_TEXT	ENDS
; Function compile flags: /Ogtp
; File c:\program files (x86)\microsoft visual studio 14.0\vc\include\xmemory0
;	COMDAT ??$construct@UChaosTalisman@@ABU1@@?$allocator@UChaosTalisman@@@std@@QAEXPAUChaosTalisman@@ABU2@@Z
_TEXT	SEGMENT
__Ptr$ = 8						; size = 4
_<_Args_0>$ = 12					; size = 4
??$construct@UChaosTalisman@@ABU1@@?$allocator@UChaosTalisman@@@std@@QAEXPAUChaosTalisman@@ABU2@@Z PROC ; std::allocator<ChaosTalisman>::construct<ChaosTalisman,ChaosTalisman const &>, COMDAT
; _this$ = ecx

; 654  : 		{	// construct _Objty(_Types...) at _Ptr

  00000	55		 push	 ebp
  00001	8b ec		 mov	 ebp, esp

; 655  : 		::new ((void *)_Ptr) _Objty(_STD forward<_Types>(_Args)...);

  00003	8b 4d 08	 mov	 ecx, DWORD PTR __Ptr$[ebp]
  00006	85 c9		 test	 ecx, ecx
  00008	74 09		 je	 SHORT $LN3@construct
  0000a	8b 45 0c	 mov	 eax, DWORD PTR _<_Args_0>$[ebp]
  0000d	0f 10 00	 movups	 xmm0, XMMWORD PTR [eax]
  00010	0f 11 01	 movups	 XMMWORD PTR [ecx], xmm0
$LN3@construct:

; 656  : 		}

  00013	5d		 pop	 ebp
  00014	c2 08 00	 ret	 8
??$construct@UChaosTalisman@@ABU1@@?$allocator@UChaosTalisman@@@std@@QAEXPAUChaosTalisman@@ABU2@@Z ENDP ; std::allocator<ChaosTalisman>::construct<ChaosTalisman,ChaosTalisman const &>
_TEXT	ENDS
; Function compile flags: /Ogtp
; File c:\program files (x86)\microsoft visual studio 14.0\vc\include\xmemory0
;	COMDAT ??$construct@UChaosTalisman@@AAU1@@?$allocator@UChaosTalisman@@@std@@QAEXPAUChaosTalisman@@AAU2@@Z
_TEXT	SEGMENT
__Ptr$ = 8						; size = 4
_<_Args_0>$ = 12					; size = 4
??$construct@UChaosTalisman@@AAU1@@?$allocator@UChaosTalisman@@@std@@QAEXPAUChaosTalisman@@AAU2@@Z PROC ; std::allocator<ChaosTalisman>::construct<ChaosTalisman,ChaosTalisman &>, COMDAT
; _this$ = ecx

; 654  : 		{	// construct _Objty(_Types...) at _Ptr

  00000	55		 push	 ebp
  00001	8b ec		 mov	 ebp, esp

; 655  : 		::new ((void *)_Ptr) _Objty(_STD forward<_Types>(_Args)...);

  00003	8b 4d 08	 mov	 ecx, DWORD PTR __Ptr$[ebp]
  00006	85 c9		 test	 ecx, ecx
  00008	74 09		 je	 SHORT $LN3@construct
  0000a	8b 45 0c	 mov	 eax, DWORD PTR _<_Args_0>$[ebp]
  0000d	0f 10 00	 movups	 xmm0, XMMWORD PTR [eax]
  00010	0f 11 01	 movups	 XMMWORD PTR [ecx], xmm0
$LN3@construct:

; 656  : 		}

  00013	5d		 pop	 ebp
  00014	c2 08 00	 ret	 8
??$construct@UChaosTalisman@@AAU1@@?$allocator@UChaosTalisman@@@std@@QAEXPAUChaosTalisman@@AAU2@@Z ENDP ; std::allocator<ChaosTalisman>::construct<ChaosTalisman,ChaosTalisman &>
_TEXT	ENDS
; Function compile flags: /Ogtp
; File c:\program files (x86)\microsoft visual studio 14.0\vc\include\xmemory0
;	COMDAT ??$construct@UChaosCombination@@ABU1@@?$allocator@UChaosCombination@@@std@@QAEXPAUChaosCombination@@ABU2@@Z
_TEXT	SEGMENT
$T2 = -16						; size = 4
__$EHRec$ = -12						; size = 12
__Ptr$ = 8						; size = 4
_<_Args_0>$ = 12					; size = 4
??$construct@UChaosCombination@@ABU1@@?$allocator@UChaosCombination@@@std@@QAEXPAUChaosCombination@@ABU2@@Z PROC ; std::allocator<ChaosCombination>::construct<ChaosCombination,ChaosCombination const &>, COMDAT
; _this$ = ecx

; 654  : 		{	// construct _Objty(_Types...) at _Ptr

  00000	55		 push	 ebp
  00001	8b ec		 mov	 ebp, esp
  00003	6a ff		 push	 -1
  00005	68 00 00 00 00	 push	 __ehhandler$??$construct@UChaosCombination@@ABU1@@?$allocator@UChaosCombination@@@std@@QAEXPAUChaosCombination@@ABU2@@Z
  0000a	64 a1 00 00 00
	00		 mov	 eax, DWORD PTR fs:0
  00010	50		 push	 eax
  00011	51		 push	 ecx
  00012	a1 00 00 00 00	 mov	 eax, DWORD PTR ___security_cookie
  00017	33 c5		 xor	 eax, ebp
  00019	50		 push	 eax
  0001a	8d 45 f4	 lea	 eax, DWORD PTR __$EHRec$[ebp]
  0001d	64 a3 00 00 00
	00		 mov	 DWORD PTR fs:0, eax

; 655  : 		::new ((void *)_Ptr) _Objty(_STD forward<_Types>(_Args)...);

  00023	8b 4d 08	 mov	 ecx, DWORD PTR __Ptr$[ebp]
  00026	89 4d f0	 mov	 DWORD PTR $T2[ebp], ecx
  00029	c7 45 fc 00 00
	00 00		 mov	 DWORD PTR __$EHRec$[ebp+8], 0
  00030	85 c9		 test	 ecx, ecx
  00032	74 08		 je	 SHORT $LN3@construct
  00034	ff 75 0c	 push	 DWORD PTR _<_Args_0>$[ebp]
  00037	e8 00 00 00 00	 call	 ??0ChaosCombination@@QAE@ABU0@@Z
$LN3@construct:

; 656  : 		}

  0003c	8b 4d f4	 mov	 ecx, DWORD PTR __$EHRec$[ebp]
  0003f	64 89 0d 00 00
	00 00		 mov	 DWORD PTR fs:0, ecx
  00046	59		 pop	 ecx
  00047	8b e5		 mov	 esp, ebp
  00049	5d		 pop	 ebp
  0004a	c2 08 00	 ret	 8
_TEXT	ENDS
;	COMDAT text$x
text$x	SEGMENT
__unwindfunclet$??$construct@UChaosCombination@@ABU1@@?$allocator@UChaosCombination@@@std@@QAEXPAUChaosCombination@@ABU2@@Z$0:
  00000	8b 45 08	 mov	 eax, DWORD PTR __Ptr$[ebp]
  00003	50		 push	 eax
  00004	8b 45 f0	 mov	 eax, DWORD PTR $T2[ebp]
  00007	50		 push	 eax
  00008	e8 00 00 00 00	 call	 ??3@YAXPAX0@Z		; operator delete
  0000d	83 c4 08	 add	 esp, 8
  00010	c3		 ret	 0
__ehhandler$??$construct@UChaosCombination@@ABU1@@?$allocator@UChaosCombination@@@std@@QAEXPAUChaosCombination@@ABU2@@Z:
  00011	8b 54 24 08	 mov	 edx, DWORD PTR [esp+8]
  00015	8d 42 0c	 lea	 eax, DWORD PTR [edx+12]
  00018	8b 4a f8	 mov	 ecx, DWORD PTR [edx-8]
  0001b	33 c8		 xor	 ecx, eax
  0001d	e8 00 00 00 00	 call	 @__security_check_cookie@4
  00022	b8 00 00 00 00	 mov	 eax, OFFSET __ehfuncinfo$??$construct@UChaosCombination@@ABU1@@?$allocator@UChaosCombination@@@std@@QAEXPAUChaosCombination@@ABU2@@Z
  00027	e9 00 00 00 00	 jmp	 ___CxxFrameHandler3
text$x	ENDS
??$construct@UChaosCombination@@ABU1@@?$allocator@UChaosCombination@@@std@@QAEXPAUChaosCombination@@ABU2@@Z ENDP ; std::allocator<ChaosCombination>::construct<ChaosCombination,ChaosCombination const &>
; Function compile flags: /Ogtp
; File c:\program files (x86)\microsoft visual studio 14.0\vc\include\xmemory0
;	COMDAT ??$construct@UChaosCombination@@AAU1@@?$allocator@UChaosCombination@@@std@@QAEXPAUChaosCombination@@AAU2@@Z
_TEXT	SEGMENT
$T2 = -16						; size = 4
__$EHRec$ = -12						; size = 12
__Ptr$ = 8						; size = 4
_<_Args_0>$ = 12					; size = 4
??$construct@UChaosCombination@@AAU1@@?$allocator@UChaosCombination@@@std@@QAEXPAUChaosCombination@@AAU2@@Z PROC ; std::allocator<ChaosCombination>::construct<ChaosCombination,ChaosCombination &>, COMDAT
; _this$ = ecx

; 654  : 		{	// construct _Objty(_Types...) at _Ptr

  00000	55		 push	 ebp
  00001	8b ec		 mov	 ebp, esp
  00003	6a ff		 push	 -1
  00005	68 00 00 00 00	 push	 __ehhandler$??$construct@UChaosCombination@@AAU1@@?$allocator@UChaosCombination@@@std@@QAEXPAUChaosCombination@@AAU2@@Z
  0000a	64 a1 00 00 00
	00		 mov	 eax, DWORD PTR fs:0
  00010	50		 push	 eax
  00011	51		 push	 ecx
  00012	a1 00 00 00 00	 mov	 eax, DWORD PTR ___security_cookie
  00017	33 c5		 xor	 eax, ebp
  00019	50		 push	 eax
  0001a	8d 45 f4	 lea	 eax, DWORD PTR __$EHRec$[ebp]
  0001d	64 a3 00 00 00
	00		 mov	 DWORD PTR fs:0, eax

; 655  : 		::new ((void *)_Ptr) _Objty(_STD forward<_Types>(_Args)...);

  00023	8b 4d 08	 mov	 ecx, DWORD PTR __Ptr$[ebp]
  00026	89 4d f0	 mov	 DWORD PTR $T2[ebp], ecx
  00029	c7 45 fc 00 00
	00 00		 mov	 DWORD PTR __$EHRec$[ebp+8], 0
  00030	85 c9		 test	 ecx, ecx
  00032	74 08		 je	 SHORT $LN3@construct
  00034	ff 75 0c	 push	 DWORD PTR _<_Args_0>$[ebp]
  00037	e8 00 00 00 00	 call	 ??0ChaosCombination@@QAE@ABU0@@Z
$LN3@construct:

; 656  : 		}

  0003c	8b 4d f4	 mov	 ecx, DWORD PTR __$EHRec$[ebp]
  0003f	64 89 0d 00 00
	00 00		 mov	 DWORD PTR fs:0, ecx
  00046	59		 pop	 ecx
  00047	8b e5		 mov	 esp, ebp
  00049	5d		 pop	 ebp
  0004a	c2 08 00	 ret	 8
_TEXT	ENDS
;	COMDAT text$x
text$x	SEGMENT
__unwindfunclet$??$construct@UChaosCombination@@AAU1@@?$allocator@UChaosCombination@@@std@@QAEXPAUChaosCombination@@AAU2@@Z$0:
  00000	8b 45 08	 mov	 eax, DWORD PTR __Ptr$[ebp]
  00003	50		 push	 eax
  00004	8b 45 f0	 mov	 eax, DWORD PTR $T2[ebp]
  00007	50		 push	 eax
  00008	e8 00 00 00 00	 call	 ??3@YAXPAX0@Z		; operator delete
  0000d	83 c4 08	 add	 esp, 8
  00010	c3		 ret	 0
__ehhandler$??$construct@UChaosCombination@@AAU1@@?$allocator@UChaosCombination@@@std@@QAEXPAUChaosCombination@@AAU2@@Z:
  00011	8b 54 24 08	 mov	 edx, DWORD PTR [esp+8]
  00015	8d 42 0c	 lea	 eax, DWORD PTR [edx+12]
  00018	8b 4a f8	 mov	 ecx, DWORD PTR [edx-8]
  0001b	33 c8		 xor	 ecx, eax
  0001d	e8 00 00 00 00	 call	 @__security_check_cookie@4
  00022	b8 00 00 00 00	 mov	 eax, OFFSET __ehfuncinfo$??$construct@UChaosCombination@@AAU1@@?$allocator@UChaosCombination@@@std@@QAEXPAUChaosCombination@@AAU2@@Z
  00027	e9 00 00 00 00	 jmp	 ___CxxFrameHandler3
text$x	ENDS
??$construct@UChaosCombination@@AAU1@@?$allocator@UChaosCombination@@@std@@QAEXPAUChaosCombination@@AAU2@@Z ENDP ; std::allocator<ChaosCombination>::construct<ChaosCombination,ChaosCombination &>
; Function compile flags: /Ogtp
; File c:\program files (x86)\microsoft visual studio 14.0\vc\include\xmemory0
;	COMDAT ??$construct@PAVChaosRecipe@@ABQAV1@@?$allocator@PAVChaosRecipe@@@std@@QAEXPAPAVChaosRecipe@@ABQAV2@@Z
_TEXT	SEGMENT
__Ptr$ = 8						; size = 4
_<_Args_0>$ = 12					; size = 4
??$construct@PAVChaosRecipe@@ABQAV1@@?$allocator@PAVChaosRecipe@@@std@@QAEXPAPAVChaosRecipe@@ABQAV2@@Z PROC ; std::allocator<ChaosRecipe *>::construct<ChaosRecipe *,ChaosRecipe * const &>, COMDAT
; _this$ = ecx

; 654  : 		{	// construct _Objty(_Types...) at _Ptr

  00000	55		 push	 ebp
  00001	8b ec		 mov	 ebp, esp

; 655  : 		::new ((void *)_Ptr) _Objty(_STD forward<_Types>(_Args)...);

  00003	8b 4d 08	 mov	 ecx, DWORD PTR __Ptr$[ebp]
  00006	85 c9		 test	 ecx, ecx
  00008	74 07		 je	 SHORT $LN3@construct
  0000a	8b 45 0c	 mov	 eax, DWORD PTR _<_Args_0>$[ebp]
  0000d	8b 00		 mov	 eax, DWORD PTR [eax]
  0000f	89 01		 mov	 DWORD PTR [ecx], eax
$LN3@construct:

; 656  : 		}

  00011	5d		 pop	 ebp
  00012	c2 08 00	 ret	 8
??$construct@PAVChaosRecipe@@ABQAV1@@?$allocator@PAVChaosRecipe@@@std@@QAEXPAPAVChaosRecipe@@ABQAV2@@Z ENDP ; std::allocator<ChaosRecipe *>::construct<ChaosRecipe *,ChaosRecipe * const &>
_TEXT	ENDS
; Function compile flags: /Ogtp
; File c:\program files (x86)\microsoft visual studio 14.0\vc\include\xmemory0
;	COMDAT ??$construct@PAVChaosRecipe@@AAPAV1@@?$allocator@PAVChaosRecipe@@@std@@QAEXPAPAVChaosRecipe@@AAPAV2@@Z
_TEXT	SEGMENT
__Ptr$ = 8						; size = 4
_<_Args_0>$ = 12					; size = 4
??$construct@PAVChaosRecipe@@AAPAV1@@?$allocator@PAVChaosRecipe@@@std@@QAEXPAPAVChaosRecipe@@AAPAV2@@Z PROC ; std::allocator<ChaosRecipe *>::construct<ChaosRecipe *,ChaosRecipe * &>, COMDAT
; _this$ = ecx

; 654  : 		{	// construct _Objty(_Types...) at _Ptr

  00000	55		 push	 ebp
  00001	8b ec		 mov	 ebp, esp

; 655  : 		::new ((void *)_Ptr) _Objty(_STD forward<_Types>(_Args)...);

  00003	8b 4d 08	 mov	 ecx, DWORD PTR __Ptr$[ebp]
  00006	85 c9		 test	 ecx, ecx
  00008	74 07		 je	 SHORT $LN3@construct
  0000a	8b 45 0c	 mov	 eax, DWORD PTR _<_Args_0>$[ebp]
  0000d	8b 00		 mov	 eax, DWORD PTR [eax]
  0000f	89 01		 mov	 DWORD PTR [ecx], eax
$LN3@construct:

; 656  : 		}

  00011	5d		 pop	 ebp
  00012	c2 08 00	 ret	 8
??$construct@PAVChaosRecipe@@AAPAV1@@?$allocator@PAVChaosRecipe@@@std@@QAEXPAPAVChaosRecipe@@AAPAV2@@Z ENDP ; std::allocator<ChaosRecipe *>::construct<ChaosRecipe *,ChaosRecipe * &>
_TEXT	ENDS
; Function compile flags: /Ogtp
; File c:\program files (x86)\microsoft visual studio 14.0\vc\include\type_traits
;	COMDAT ??$_Move@AAPAUChaosCombination@@@std@@YA$$QAPAUChaosCombination@@AAPAU1@@Z
_TEXT	SEGMENT
__Arg$ = 8						; size = 4
??$_Move@AAPAUChaosCombination@@@std@@YA$$QAPAUChaosCombination@@AAPAU1@@Z PROC ; std::_Move<ChaosCombination * &>, COMDAT

; 1257 : 	{	// forward _Arg as movable

  00000	55		 push	 ebp
  00001	8b ec		 mov	 ebp, esp

; 1258 : 	return (static_cast<typename remove_reference<_Ty>::type&&>(_Arg));

  00003	8b 45 08	 mov	 eax, DWORD PTR __Arg$[ebp]

; 1259 : 	}

  00006	5d		 pop	 ebp
  00007	c3		 ret	 0
??$_Move@AAPAUChaosCombination@@@std@@YA$$QAPAUChaosCombination@@AAPAU1@@Z ENDP ; std::_Move<ChaosCombination * &>
_TEXT	ENDS
; Function compile flags: /Ogtp
; File c:\program files (x86)\microsoft visual studio 14.0\vc\include\type_traits
;	COMDAT ??$_Move@AAPAPAVChaosRecipe@@@std@@YA$$QAPAPAVChaosRecipe@@AAPAPAV1@@Z
_TEXT	SEGMENT
__Arg$ = 8						; size = 4
??$_Move@AAPAPAVChaosRecipe@@@std@@YA$$QAPAPAVChaosRecipe@@AAPAPAV1@@Z PROC ; std::_Move<ChaosRecipe * * &>, COMDAT

; 1257 : 	{	// forward _Arg as movable

  00000	55		 push	 ebp
  00001	8b ec		 mov	 ebp, esp

; 1258 : 	return (static_cast<typename remove_reference<_Ty>::type&&>(_Arg));

  00003	8b 45 08	 mov	 eax, DWORD PTR __Arg$[ebp]

; 1259 : 	}

  00006	5d		 pop	 ebp
  00007	c3		 ret	 0
??$_Move@AAPAPAVChaosRecipe@@@std@@YA$$QAPAPAVChaosRecipe@@AAPAPAV1@@Z ENDP ; std::_Move<ChaosRecipe * * &>
_TEXT	ENDS
; Function compile flags: /Ogtp
; File c:\program files (x86)\microsoft visual studio 14.0\vc\include\xmemory0
;	COMDAT ??$_Destroy_range@U?$_Wrap_alloc@V?$allocator@UChaosIngredient@@@std@@@std@@@std@@YAXPAUChaosIngredient@@0AAU?$_Wrap_alloc@V?$allocator@UChaosIngredient@@@std@@@0@U_Nonscalar_ptr_iterator_tag@0@@Z
_TEXT	SEGMENT
__First$ = 8						; size = 4
__Last$ = 12						; size = 4
__Al$ = 16						; size = 4
___formal$ = 20						; size = 1
??$_Destroy_range@U?$_Wrap_alloc@V?$allocator@UChaosIngredient@@@std@@@std@@@std@@YAXPAUChaosIngredient@@0AAU?$_Wrap_alloc@V?$allocator@UChaosIngredient@@@std@@@0@U_Nonscalar_ptr_iterator_tag@0@@Z PROC ; std::_Destroy_range<std::_Wrap_alloc<std::allocator<ChaosIngredient> > >, COMDAT

; 171  : 	for (; _First != _Last; ++_First)
; 172  : 		_Al.destroy(_STD addressof(*_First));
; 173  : 	}

  00000	c3		 ret	 0
??$_Destroy_range@U?$_Wrap_alloc@V?$allocator@UChaosIngredient@@@std@@@std@@@std@@YAXPAUChaosIngredient@@0AAU?$_Wrap_alloc@V?$allocator@UChaosIngredient@@@std@@@0@U_Nonscalar_ptr_iterator_tag@0@@Z ENDP ; std::_Destroy_range<std::_Wrap_alloc<std::allocator<ChaosIngredient> > >
_TEXT	ENDS
; Function compile flags: /Ogtp
; File c:\program files (x86)\microsoft visual studio 14.0\vc\include\xutility
;	COMDAT ??$_Ptr_cat@UChaosIngredient@@U1@@std@@YA?AU_Nonscalar_ptr_iterator_tag@0@PAUChaosIngredient@@0@Z
_TEXT	SEGMENT
__Cat$ = -1						; size = 1
___formal$ = 8						; size = 4
___formal$ = 12						; size = 4
??$_Ptr_cat@UChaosIngredient@@U1@@std@@YA?AU_Nonscalar_ptr_iterator_tag@0@PAUChaosIngredient@@0@Z PROC ; std::_Ptr_cat<ChaosIngredient,ChaosIngredient>, COMDAT

; 640  : 	{	// return pointer category from pointers

  00000	55		 push	 ebp
  00001	8b ec		 mov	 ebp, esp
  00003	51		 push	 ecx

; 641  : 	typename _Ptr_cat_helper<_Elem1, _Elem2>::type _Cat;
; 642  : 	return (_Cat);

  00004	8a 45 ff	 mov	 al, BYTE PTR __Cat$[ebp]

; 643  : 	}

  00007	8b e5		 mov	 esp, ebp
  00009	5d		 pop	 ebp
  0000a	c3		 ret	 0
??$_Ptr_cat@UChaosIngredient@@U1@@std@@YA?AU_Nonscalar_ptr_iterator_tag@0@PAUChaosIngredient@@0@Z ENDP ; std::_Ptr_cat<ChaosIngredient,ChaosIngredient>
_TEXT	ENDS
; Function compile flags: /Ogtp
; File c:\program files (x86)\microsoft visual studio 14.0\vc\include\xutility
;	COMDAT ??$_Ptr_cat@UChaosIngredient@@U1@@std@@YA?AU_Nonscalar_ptr_iterator_tag@0@PBUChaosIngredient@@PAU2@@Z
_TEXT	SEGMENT
__Cat$ = -1						; size = 1
___formal$ = 8						; size = 4
___formal$ = 12						; size = 4
??$_Ptr_cat@UChaosIngredient@@U1@@std@@YA?AU_Nonscalar_ptr_iterator_tag@0@PBUChaosIngredient@@PAU2@@Z PROC ; std::_Ptr_cat<ChaosIngredient,ChaosIngredient>, COMDAT

; 649  : 	{	// return pointer category from pointers

  00000	55		 push	 ebp
  00001	8b ec		 mov	 ebp, esp
  00003	51		 push	 ecx

; 650  : 	typename _Ptr_cat_helper<_Elem1, _Elem2>::type _Cat;
; 651  : 	return (_Cat);

  00004	8a 45 ff	 mov	 al, BYTE PTR __Cat$[ebp]

; 652  : 	}

  00007	8b e5		 mov	 esp, ebp
  00009	5d		 pop	 ebp
  0000a	c3		 ret	 0
??$_Ptr_cat@UChaosIngredient@@U1@@std@@YA?AU_Nonscalar_ptr_iterator_tag@0@PBUChaosIngredient@@PAU2@@Z ENDP ; std::_Ptr_cat<ChaosIngredient,ChaosIngredient>
_TEXT	ENDS
; Function compile flags: /Ogtp
; File c:\program files (x86)\microsoft visual studio 14.0\vc\include\xmemory
;	COMDAT ??$_Uninitialized_move@PAUChaosIngredient@@PAU1@U?$_Wrap_alloc@V?$allocator@UChaosIngredient@@@std@@@std@@@std@@YAPAUChaosIngredient@@PAU1@00AAU?$_Wrap_alloc@V?$allocator@UChaosIngredient@@@std@@@0@@Z
_TEXT	SEGMENT
__First$ = 8						; size = 4
__Last$ = 12						; size = 4
__Cat$1 = 16						; size = 1
__Dest$ = 16						; size = 4
__Al$ = 20						; size = 4
??$_Uninitialized_move@PAUChaosIngredient@@PAU1@U?$_Wrap_alloc@V?$allocator@UChaosIngredient@@@std@@@std@@@std@@YAPAUChaosIngredient@@PAU1@00AAU?$_Wrap_alloc@V?$allocator@UChaosIngredient@@@std@@@0@@Z PROC ; std::_Uninitialized_move<ChaosIngredient *,ChaosIngredient *,std::_Wrap_alloc<std::allocator<ChaosIngredient> > >, COMDAT

; 490  : 	{	// move [_First, _Last) to raw _Dest, using _Al

  00000	55		 push	 ebp
  00001	8b ec		 mov	 ebp, esp

; 481  : 	return (_Uninit_move(_First, _Last, _Dest, _Al,

  00003	ff 75 10	 push	 DWORD PTR __Cat$1[ebp]
  00006	6a 00		 push	 0
  00008	ff 75 14	 push	 DWORD PTR __Al$[ebp]
  0000b	ff 75 10	 push	 DWORD PTR __Dest$[ebp]
  0000e	ff 75 0c	 push	 DWORD PTR __Last$[ebp]
  00011	ff 75 08	 push	 DWORD PTR __First$[ebp]
  00014	e8 00 00 00 00	 call	 ??$_Uninit_move@PAUChaosIngredient@@PAU1@V?$allocator@UChaosIngredient@@@std@@U1@@std@@YAPAUChaosIngredient@@PAU1@00AAU?$_Wrap_alloc@V?$allocator@UChaosIngredient@@@std@@@0@0U_Nonscalar_ptr_iterator_tag@0@@Z ; std::_Uninit_move<ChaosIngredient *,ChaosIngredient *,std::allocator<ChaosIngredient>,ChaosIngredient>
  00019	83 c4 18	 add	 esp, 24			; 00000018H

; 491  : 	return (_Rechecked(_Dest,
; 492  : 		_Uninit_move(_Unchecked(_First), _Unchecked(_Last),
; 493  : 			_Unchecked(_Dest), _Al)));
; 494  : 	}

  0001c	5d		 pop	 ebp
  0001d	c3		 ret	 0
??$_Uninitialized_move@PAUChaosIngredient@@PAU1@U?$_Wrap_alloc@V?$allocator@UChaosIngredient@@@std@@@std@@@std@@YAPAUChaosIngredient@@PAU1@00AAU?$_Wrap_alloc@V?$allocator@UChaosIngredient@@@std@@@0@@Z ENDP ; std::_Uninitialized_move<ChaosIngredient *,ChaosIngredient *,std::_Wrap_alloc<std::allocator<ChaosIngredient> > >
_TEXT	ENDS
; Function compile flags: /Ogtp
; File c:\program files (x86)\microsoft visual studio 14.0\vc\include\xmemory0
;	COMDAT ??$_Destroy_range@U?$_Wrap_alloc@V?$allocator@UChaosProduce@@@std@@@std@@@std@@YAXPAUChaosProduce@@0AAU?$_Wrap_alloc@V?$allocator@UChaosProduce@@@std@@@0@U_Nonscalar_ptr_iterator_tag@0@@Z
_TEXT	SEGMENT
__First$ = 8						; size = 4
__Last$ = 12						; size = 4
__Al$ = 16						; size = 4
___formal$ = 20						; size = 1
??$_Destroy_range@U?$_Wrap_alloc@V?$allocator@UChaosProduce@@@std@@@std@@@std@@YAXPAUChaosProduce@@0AAU?$_Wrap_alloc@V?$allocator@UChaosProduce@@@std@@@0@U_Nonscalar_ptr_iterator_tag@0@@Z PROC ; std::_Destroy_range<std::_Wrap_alloc<std::allocator<ChaosProduce> > >, COMDAT

; 171  : 	for (; _First != _Last; ++_First)
; 172  : 		_Al.destroy(_STD addressof(*_First));
; 173  : 	}

  00000	c3		 ret	 0
??$_Destroy_range@U?$_Wrap_alloc@V?$allocator@UChaosProduce@@@std@@@std@@@std@@YAXPAUChaosProduce@@0AAU?$_Wrap_alloc@V?$allocator@UChaosProduce@@@std@@@0@U_Nonscalar_ptr_iterator_tag@0@@Z ENDP ; std::_Destroy_range<std::_Wrap_alloc<std::allocator<ChaosProduce> > >
_TEXT	ENDS
; Function compile flags: /Ogtp
; File c:\program files (x86)\microsoft visual studio 14.0\vc\include\xutility
;	COMDAT ??$_Ptr_cat@UChaosProduce@@U1@@std@@YA?AU_Nonscalar_ptr_iterator_tag@0@PAUChaosProduce@@0@Z
_TEXT	SEGMENT
__Cat$ = -1						; size = 1
___formal$ = 8						; size = 4
___formal$ = 12						; size = 4
??$_Ptr_cat@UChaosProduce@@U1@@std@@YA?AU_Nonscalar_ptr_iterator_tag@0@PAUChaosProduce@@0@Z PROC ; std::_Ptr_cat<ChaosProduce,ChaosProduce>, COMDAT

; 640  : 	{	// return pointer category from pointers

  00000	55		 push	 ebp
  00001	8b ec		 mov	 ebp, esp
  00003	51		 push	 ecx

; 641  : 	typename _Ptr_cat_helper<_Elem1, _Elem2>::type _Cat;
; 642  : 	return (_Cat);

  00004	8a 45 ff	 mov	 al, BYTE PTR __Cat$[ebp]

; 643  : 	}

  00007	8b e5		 mov	 esp, ebp
  00009	5d		 pop	 ebp
  0000a	c3		 ret	 0
??$_Ptr_cat@UChaosProduce@@U1@@std@@YA?AU_Nonscalar_ptr_iterator_tag@0@PAUChaosProduce@@0@Z ENDP ; std::_Ptr_cat<ChaosProduce,ChaosProduce>
_TEXT	ENDS
; Function compile flags: /Ogtp
; File c:\program files (x86)\microsoft visual studio 14.0\vc\include\xutility
;	COMDAT ??$_Ptr_cat@UChaosProduce@@U1@@std@@YA?AU_Nonscalar_ptr_iterator_tag@0@PBUChaosProduce@@PAU2@@Z
_TEXT	SEGMENT
__Cat$ = -1						; size = 1
___formal$ = 8						; size = 4
___formal$ = 12						; size = 4
??$_Ptr_cat@UChaosProduce@@U1@@std@@YA?AU_Nonscalar_ptr_iterator_tag@0@PBUChaosProduce@@PAU2@@Z PROC ; std::_Ptr_cat<ChaosProduce,ChaosProduce>, COMDAT

; 649  : 	{	// return pointer category from pointers

  00000	55		 push	 ebp
  00001	8b ec		 mov	 ebp, esp
  00003	51		 push	 ecx

; 650  : 	typename _Ptr_cat_helper<_Elem1, _Elem2>::type _Cat;
; 651  : 	return (_Cat);

  00004	8a 45 ff	 mov	 al, BYTE PTR __Cat$[ebp]

; 652  : 	}

  00007	8b e5		 mov	 esp, ebp
  00009	5d		 pop	 ebp
  0000a	c3		 ret	 0
??$_Ptr_cat@UChaosProduce@@U1@@std@@YA?AU_Nonscalar_ptr_iterator_tag@0@PBUChaosProduce@@PAU2@@Z ENDP ; std::_Ptr_cat<ChaosProduce,ChaosProduce>
_TEXT	ENDS
; Function compile flags: /Ogtp
; File c:\program files (x86)\microsoft visual studio 14.0\vc\include\xmemory
;	COMDAT ??$_Uninitialized_move@PAUChaosProduce@@PAU1@U?$_Wrap_alloc@V?$allocator@UChaosProduce@@@std@@@std@@@std@@YAPAUChaosProduce@@PAU1@00AAU?$_Wrap_alloc@V?$allocator@UChaosProduce@@@std@@@0@@Z
_TEXT	SEGMENT
__First$ = 8						; size = 4
__Last$ = 12						; size = 4
__Cat$1 = 16						; size = 1
__Dest$ = 16						; size = 4
__Al$ = 20						; size = 4
??$_Uninitialized_move@PAUChaosProduce@@PAU1@U?$_Wrap_alloc@V?$allocator@UChaosProduce@@@std@@@std@@@std@@YAPAUChaosProduce@@PAU1@00AAU?$_Wrap_alloc@V?$allocator@UChaosProduce@@@std@@@0@@Z PROC ; std::_Uninitialized_move<ChaosProduce *,ChaosProduce *,std::_Wrap_alloc<std::allocator<ChaosProduce> > >, COMDAT

; 490  : 	{	// move [_First, _Last) to raw _Dest, using _Al

  00000	55		 push	 ebp
  00001	8b ec		 mov	 ebp, esp

; 481  : 	return (_Uninit_move(_First, _Last, _Dest, _Al,

  00003	ff 75 10	 push	 DWORD PTR __Cat$1[ebp]
  00006	6a 00		 push	 0
  00008	ff 75 14	 push	 DWORD PTR __Al$[ebp]
  0000b	ff 75 10	 push	 DWORD PTR __Dest$[ebp]
  0000e	ff 75 0c	 push	 DWORD PTR __Last$[ebp]
  00011	ff 75 08	 push	 DWORD PTR __First$[ebp]
  00014	e8 00 00 00 00	 call	 ??$_Uninit_move@PAUChaosProduce@@PAU1@V?$allocator@UChaosProduce@@@std@@U1@@std@@YAPAUChaosProduce@@PAU1@00AAU?$_Wrap_alloc@V?$allocator@UChaosProduce@@@std@@@0@0U_Nonscalar_ptr_iterator_tag@0@@Z ; std::_Uninit_move<ChaosProduce *,ChaosProduce *,std::allocator<ChaosProduce>,ChaosProduce>
  00019	83 c4 18	 add	 esp, 24			; 00000018H

; 491  : 	return (_Rechecked(_Dest,
; 492  : 		_Uninit_move(_Unchecked(_First), _Unchecked(_Last),
; 493  : 			_Unchecked(_Dest), _Al)));
; 494  : 	}

  0001c	5d		 pop	 ebp
  0001d	c3		 ret	 0
??$_Uninitialized_move@PAUChaosProduce@@PAU1@U?$_Wrap_alloc@V?$allocator@UChaosProduce@@@std@@@std@@@std@@YAPAUChaosProduce@@PAU1@00AAU?$_Wrap_alloc@V?$allocator@UChaosProduce@@@std@@@0@@Z ENDP ; std::_Uninitialized_move<ChaosProduce *,ChaosProduce *,std::_Wrap_alloc<std::allocator<ChaosProduce> > >
_TEXT	ENDS
; Function compile flags: /Ogtp
; File c:\program files (x86)\microsoft visual studio 14.0\vc\include\xmemory0
;	COMDAT ??$_Destroy_range@U?$_Wrap_alloc@V?$allocator@UChaosTalisman@@@std@@@std@@@std@@YAXPAUChaosTalisman@@0AAU?$_Wrap_alloc@V?$allocator@UChaosTalisman@@@std@@@0@U_Nonscalar_ptr_iterator_tag@0@@Z
_TEXT	SEGMENT
__First$ = 8						; size = 4
__Last$ = 12						; size = 4
__Al$ = 16						; size = 4
___formal$ = 20						; size = 1
??$_Destroy_range@U?$_Wrap_alloc@V?$allocator@UChaosTalisman@@@std@@@std@@@std@@YAXPAUChaosTalisman@@0AAU?$_Wrap_alloc@V?$allocator@UChaosTalisman@@@std@@@0@U_Nonscalar_ptr_iterator_tag@0@@Z PROC ; std::_Destroy_range<std::_Wrap_alloc<std::allocator<ChaosTalisman> > >, COMDAT

; 171  : 	for (; _First != _Last; ++_First)
; 172  : 		_Al.destroy(_STD addressof(*_First));
; 173  : 	}

  00000	c3		 ret	 0
??$_Destroy_range@U?$_Wrap_alloc@V?$allocator@UChaosTalisman@@@std@@@std@@@std@@YAXPAUChaosTalisman@@0AAU?$_Wrap_alloc@V?$allocator@UChaosTalisman@@@std@@@0@U_Nonscalar_ptr_iterator_tag@0@@Z ENDP ; std::_Destroy_range<std::_Wrap_alloc<std::allocator<ChaosTalisman> > >
_TEXT	ENDS
; Function compile flags: /Ogtp
; File c:\program files (x86)\microsoft visual studio 14.0\vc\include\xutility
;	COMDAT ??$_Ptr_cat@UChaosTalisman@@U1@@std@@YA?AU_Nonscalar_ptr_iterator_tag@0@PAUChaosTalisman@@0@Z
_TEXT	SEGMENT
__Cat$ = -1						; size = 1
___formal$ = 8						; size = 4
___formal$ = 12						; size = 4
??$_Ptr_cat@UChaosTalisman@@U1@@std@@YA?AU_Nonscalar_ptr_iterator_tag@0@PAUChaosTalisman@@0@Z PROC ; std::_Ptr_cat<ChaosTalisman,ChaosTalisman>, COMDAT

; 640  : 	{	// return pointer category from pointers

  00000	55		 push	 ebp
  00001	8b ec		 mov	 ebp, esp
  00003	51		 push	 ecx

; 641  : 	typename _Ptr_cat_helper<_Elem1, _Elem2>::type _Cat;
; 642  : 	return (_Cat);

  00004	8a 45 ff	 mov	 al, BYTE PTR __Cat$[ebp]

; 643  : 	}

  00007	8b e5		 mov	 esp, ebp
  00009	5d		 pop	 ebp
  0000a	c3		 ret	 0
??$_Ptr_cat@UChaosTalisman@@U1@@std@@YA?AU_Nonscalar_ptr_iterator_tag@0@PAUChaosTalisman@@0@Z ENDP ; std::_Ptr_cat<ChaosTalisman,ChaosTalisman>
_TEXT	ENDS
; Function compile flags: /Ogtp
; File c:\program files (x86)\microsoft visual studio 14.0\vc\include\xutility
;	COMDAT ??$_Ptr_cat@UChaosTalisman@@U1@@std@@YA?AU_Nonscalar_ptr_iterator_tag@0@PBUChaosTalisman@@PAU2@@Z
_TEXT	SEGMENT
__Cat$ = -1						; size = 1
___formal$ = 8						; size = 4
___formal$ = 12						; size = 4
??$_Ptr_cat@UChaosTalisman@@U1@@std@@YA?AU_Nonscalar_ptr_iterator_tag@0@PBUChaosTalisman@@PAU2@@Z PROC ; std::_Ptr_cat<ChaosTalisman,ChaosTalisman>, COMDAT

; 649  : 	{	// return pointer category from pointers

  00000	55		 push	 ebp
  00001	8b ec		 mov	 ebp, esp
  00003	51		 push	 ecx

; 650  : 	typename _Ptr_cat_helper<_Elem1, _Elem2>::type _Cat;
; 651  : 	return (_Cat);

  00004	8a 45 ff	 mov	 al, BYTE PTR __Cat$[ebp]

; 652  : 	}

  00007	8b e5		 mov	 esp, ebp
  00009	5d		 pop	 ebp
  0000a	c3		 ret	 0
??$_Ptr_cat@UChaosTalisman@@U1@@std@@YA?AU_Nonscalar_ptr_iterator_tag@0@PBUChaosTalisman@@PAU2@@Z ENDP ; std::_Ptr_cat<ChaosTalisman,ChaosTalisman>
_TEXT	ENDS
; Function compile flags: /Ogtp
; File c:\program files (x86)\microsoft visual studio 14.0\vc\include\xmemory
;	COMDAT ??$_Uninitialized_move@PAUChaosTalisman@@PAU1@U?$_Wrap_alloc@V?$allocator@UChaosTalisman@@@std@@@std@@@std@@YAPAUChaosTalisman@@PAU1@00AAU?$_Wrap_alloc@V?$allocator@UChaosTalisman@@@std@@@0@@Z
_TEXT	SEGMENT
__First$ = 8						; size = 4
__Last$ = 12						; size = 4
__Cat$1 = 16						; size = 1
__Dest$ = 16						; size = 4
__Al$ = 20						; size = 4
??$_Uninitialized_move@PAUChaosTalisman@@PAU1@U?$_Wrap_alloc@V?$allocator@UChaosTalisman@@@std@@@std@@@std@@YAPAUChaosTalisman@@PAU1@00AAU?$_Wrap_alloc@V?$allocator@UChaosTalisman@@@std@@@0@@Z PROC ; std::_Uninitialized_move<ChaosTalisman *,ChaosTalisman *,std::_Wrap_alloc<std::allocator<ChaosTalisman> > >, COMDAT

; 490  : 	{	// move [_First, _Last) to raw _Dest, using _Al

  00000	55		 push	 ebp
  00001	8b ec		 mov	 ebp, esp

; 481  : 	return (_Uninit_move(_First, _Last, _Dest, _Al,

  00003	ff 75 10	 push	 DWORD PTR __Cat$1[ebp]
  00006	6a 00		 push	 0
  00008	ff 75 14	 push	 DWORD PTR __Al$[ebp]
  0000b	ff 75 10	 push	 DWORD PTR __Dest$[ebp]
  0000e	ff 75 0c	 push	 DWORD PTR __Last$[ebp]
  00011	ff 75 08	 push	 DWORD PTR __First$[ebp]
  00014	e8 00 00 00 00	 call	 ??$_Uninit_move@PAUChaosTalisman@@PAU1@V?$allocator@UChaosTalisman@@@std@@U1@@std@@YAPAUChaosTalisman@@PAU1@00AAU?$_Wrap_alloc@V?$allocator@UChaosTalisman@@@std@@@0@0U_Nonscalar_ptr_iterator_tag@0@@Z ; std::_Uninit_move<ChaosTalisman *,ChaosTalisman *,std::allocator<ChaosTalisman>,ChaosTalisman>
  00019	83 c4 18	 add	 esp, 24			; 00000018H

; 491  : 	return (_Rechecked(_Dest,
; 492  : 		_Uninit_move(_Unchecked(_First), _Unchecked(_Last),
; 493  : 			_Unchecked(_Dest), _Al)));
; 494  : 	}

  0001c	5d		 pop	 ebp
  0001d	c3		 ret	 0
??$_Uninitialized_move@PAUChaosTalisman@@PAU1@U?$_Wrap_alloc@V?$allocator@UChaosTalisman@@@std@@@std@@@std@@YAPAUChaosTalisman@@PAU1@00AAU?$_Wrap_alloc@V?$allocator@UChaosTalisman@@@std@@@0@@Z ENDP ; std::_Uninitialized_move<ChaosTalisman *,ChaosTalisman *,std::_Wrap_alloc<std::allocator<ChaosTalisman> > >
_TEXT	ENDS
; Function compile flags: /Ogtp
; File c:\program files (x86)\microsoft visual studio 14.0\vc\include\xmemory
;	COMDAT ??$_Uninitialized_move@PAUChaosCombination@@PAU1@U?$_Wrap_alloc@V?$allocator@UChaosCombination@@@std@@@std@@@std@@YAPAUChaosCombination@@PAU1@00AAU?$_Wrap_alloc@V?$allocator@UChaosCombination@@@std@@@0@@Z
_TEXT	SEGMENT
__First$ = 8						; size = 4
__Last$ = 12						; size = 4
__Cat$1 = 16						; size = 1
__Dest$ = 16						; size = 4
__Al$ = 20						; size = 4
??$_Uninitialized_move@PAUChaosCombination@@PAU1@U?$_Wrap_alloc@V?$allocator@UChaosCombination@@@std@@@std@@@std@@YAPAUChaosCombination@@PAU1@00AAU?$_Wrap_alloc@V?$allocator@UChaosCombination@@@std@@@0@@Z PROC ; std::_Uninitialized_move<ChaosCombination *,ChaosCombination *,std::_Wrap_alloc<std::allocator<ChaosCombination> > >, COMDAT

; 490  : 	{	// move [_First, _Last) to raw _Dest, using _Al

  00000	55		 push	 ebp
  00001	8b ec		 mov	 ebp, esp

; 481  : 	return (_Uninit_move(_First, _Last, _Dest, _Al,

  00003	ff 75 10	 push	 DWORD PTR __Cat$1[ebp]
  00006	6a 00		 push	 0
  00008	ff 75 14	 push	 DWORD PTR __Al$[ebp]
  0000b	ff 75 10	 push	 DWORD PTR __Dest$[ebp]
  0000e	ff 75 0c	 push	 DWORD PTR __Last$[ebp]
  00011	ff 75 08	 push	 DWORD PTR __First$[ebp]
  00014	e8 00 00 00 00	 call	 ??$_Uninit_move@PAUChaosCombination@@PAU1@V?$allocator@UChaosCombination@@@std@@U1@@std@@YAPAUChaosCombination@@PAU1@00AAU?$_Wrap_alloc@V?$allocator@UChaosCombination@@@std@@@0@0U_Nonscalar_ptr_iterator_tag@0@@Z ; std::_Uninit_move<ChaosCombination *,ChaosCombination *,std::allocator<ChaosCombination>,ChaosCombination>
  00019	83 c4 18	 add	 esp, 24			; 00000018H

; 491  : 	return (_Rechecked(_Dest,
; 492  : 		_Uninit_move(_Unchecked(_First), _Unchecked(_Last),
; 493  : 			_Unchecked(_Dest), _Al)));
; 494  : 	}

  0001c	5d		 pop	 ebp
  0001d	c3		 ret	 0
??$_Uninitialized_move@PAUChaosCombination@@PAU1@U?$_Wrap_alloc@V?$allocator@UChaosCombination@@@std@@@std@@@std@@YAPAUChaosCombination@@PAU1@00AAU?$_Wrap_alloc@V?$allocator@UChaosCombination@@@std@@@0@@Z ENDP ; std::_Uninitialized_move<ChaosCombination *,ChaosCombination *,std::_Wrap_alloc<std::allocator<ChaosCombination> > >
_TEXT	ENDS
; Function compile flags: /Ogtp
; File c:\program files (x86)\microsoft visual studio 14.0\vc\include\xmemory
;	COMDAT ??$_Uninitialized_move@PAPAVChaosRecipe@@PAPAV1@U?$_Wrap_alloc@V?$allocator@PAVChaosRecipe@@@std@@@std@@@std@@YAPAPAVChaosRecipe@@PAPAV1@00AAU?$_Wrap_alloc@V?$allocator@PAVChaosRecipe@@@std@@@0@@Z
_TEXT	SEGMENT
__First$ = 8						; size = 4
__Last$ = 12						; size = 4
__Dest$ = 16						; size = 4
__Al$ = 20						; size = 4
??$_Uninitialized_move@PAPAVChaosRecipe@@PAPAV1@U?$_Wrap_alloc@V?$allocator@PAVChaosRecipe@@@std@@@std@@@std@@YAPAPAVChaosRecipe@@PAPAV1@00AAU?$_Wrap_alloc@V?$allocator@PAVChaosRecipe@@@std@@@0@@Z PROC ; std::_Uninitialized_move<ChaosRecipe * *,ChaosRecipe * *,std::_Wrap_alloc<std::allocator<ChaosRecipe *> > >, COMDAT

; 490  : 	{	// move [_First, _Last) to raw _Dest, using _Al

  00000	55		 push	 ebp
  00001	8b ec		 mov	 ebp, esp

; 470  : 	size_t _Count = (size_t)(_Last - _First);

  00003	8b 4d 08	 mov	 ecx, DWORD PTR __First$[ebp]
  00006	8b 45 0c	 mov	 eax, DWORD PTR __Last$[ebp]
  00009	2b c1		 sub	 eax, ecx
  0000b	c1 f8 02	 sar	 eax, 2
  0000e	56		 push	 esi

; 471  : 	return ((_Ty2 *)_CSTD memmove(&*_Dest, &*_First,

  0000f	8d 34 85 00 00
	00 00		 lea	 esi, DWORD PTR [eax*4]
  00016	56		 push	 esi
  00017	51		 push	 ecx
  00018	ff 75 10	 push	 DWORD PTR __Dest$[ebp]
  0001b	e8 00 00 00 00	 call	 _memmove
  00020	83 c4 0c	 add	 esp, 12			; 0000000cH
  00023	03 c6		 add	 eax, esi
  00025	5e		 pop	 esi

; 491  : 	return (_Rechecked(_Dest,
; 492  : 		_Uninit_move(_Unchecked(_First), _Unchecked(_Last),
; 493  : 			_Unchecked(_Dest), _Al)));
; 494  : 	}

  00026	5d		 pop	 ebp
  00027	c3		 ret	 0
??$_Uninitialized_move@PAPAVChaosRecipe@@PAPAV1@U?$_Wrap_alloc@V?$allocator@PAVChaosRecipe@@@std@@@std@@@std@@YAPAPAVChaosRecipe@@PAPAV1@00AAU?$_Wrap_alloc@V?$allocator@PAVChaosRecipe@@@std@@@0@@Z ENDP ; std::_Uninitialized_move<ChaosRecipe * *,ChaosRecipe * *,std::_Wrap_alloc<std::allocator<ChaosRecipe *> > >
_TEXT	ENDS
; Function compile flags: /Ogtp
; File c:\program files (x86)\microsoft visual studio 14.0\vc\include\type_traits
;	COMDAT ??$forward@ABV?$allocator@UChaosIngredient@@@std@@@std@@YAABV?$allocator@UChaosIngredient@@@0@ABV10@@Z
_TEXT	SEGMENT
__Arg$ = 8						; size = 4
??$forward@ABV?$allocator@UChaosIngredient@@@std@@@std@@YAABV?$allocator@UChaosIngredient@@@0@ABV10@@Z PROC ; std::forward<std::allocator<ChaosIngredient> const &>, COMDAT

; 1233 : 	{	// forward an lvalue as either an lvalue or an rvalue

  00000	55		 push	 ebp
  00001	8b ec		 mov	 ebp, esp

; 1234 : 	return (static_cast<_Ty&&>(_Arg));

  00003	8b 45 08	 mov	 eax, DWORD PTR __Arg$[ebp]

; 1235 : 	}

  00006	5d		 pop	 ebp
  00007	c3		 ret	 0
??$forward@ABV?$allocator@UChaosIngredient@@@std@@@std@@YAABV?$allocator@UChaosIngredient@@@0@ABV10@@Z ENDP ; std::forward<std::allocator<ChaosIngredient> const &>
_TEXT	ENDS
; Function compile flags: /Ogtp
; File c:\program files (x86)\microsoft visual studio 14.0\vc\include\type_traits
;	COMDAT ??$forward@ABV?$allocator@UChaosProduce@@@std@@@std@@YAABV?$allocator@UChaosProduce@@@0@ABV10@@Z
_TEXT	SEGMENT
__Arg$ = 8						; size = 4
??$forward@ABV?$allocator@UChaosProduce@@@std@@@std@@YAABV?$allocator@UChaosProduce@@@0@ABV10@@Z PROC ; std::forward<std::allocator<ChaosProduce> const &>, COMDAT

; 1233 : 	{	// forward an lvalue as either an lvalue or an rvalue

  00000	55		 push	 ebp
  00001	8b ec		 mov	 ebp, esp

; 1234 : 	return (static_cast<_Ty&&>(_Arg));

  00003	8b 45 08	 mov	 eax, DWORD PTR __Arg$[ebp]

; 1235 : 	}

  00006	5d		 pop	 ebp
  00007	c3		 ret	 0
??$forward@ABV?$allocator@UChaosProduce@@@std@@@std@@YAABV?$allocator@UChaosProduce@@@0@ABV10@@Z ENDP ; std::forward<std::allocator<ChaosProduce> const &>
_TEXT	ENDS
; Function compile flags: /Ogtp
; File c:\program files (x86)\microsoft visual studio 14.0\vc\include\type_traits
;	COMDAT ??$forward@ABV?$allocator@UChaosTalisman@@@std@@@std@@YAABV?$allocator@UChaosTalisman@@@0@ABV10@@Z
_TEXT	SEGMENT
__Arg$ = 8						; size = 4
??$forward@ABV?$allocator@UChaosTalisman@@@std@@@std@@YAABV?$allocator@UChaosTalisman@@@0@ABV10@@Z PROC ; std::forward<std::allocator<ChaosTalisman> const &>, COMDAT

; 1233 : 	{	// forward an lvalue as either an lvalue or an rvalue

  00000	55		 push	 ebp
  00001	8b ec		 mov	 ebp, esp

; 1234 : 	return (static_cast<_Ty&&>(_Arg));

  00003	8b 45 08	 mov	 eax, DWORD PTR __Arg$[ebp]

; 1235 : 	}

  00006	5d		 pop	 ebp
  00007	c3		 ret	 0
??$forward@ABV?$allocator@UChaosTalisman@@@std@@@std@@YAABV?$allocator@UChaosTalisman@@@0@ABV10@@Z ENDP ; std::forward<std::allocator<ChaosTalisman> const &>
_TEXT	ENDS
; Function compile flags: /Ogtp
; File c:\program files (x86)\microsoft visual studio 14.0\vc\include\xmemory0
;	COMDAT ??$_Destroy_range@U?$_Wrap_alloc@V?$allocator@UChaosCombination@@@std@@@std@@@std@@YAXPAUChaosCombination@@0AAU?$_Wrap_alloc@V?$allocator@UChaosCombination@@@std@@@0@U_Nonscalar_ptr_iterator_tag@0@@Z
_TEXT	SEGMENT
__First$ = 8						; size = 4
__Last$ = 12						; size = 4
__Al$ = 16						; size = 4
___formal$ = 20						; size = 1
??$_Destroy_range@U?$_Wrap_alloc@V?$allocator@UChaosCombination@@@std@@@std@@@std@@YAXPAUChaosCombination@@0AAU?$_Wrap_alloc@V?$allocator@UChaosCombination@@@std@@@0@U_Nonscalar_ptr_iterator_tag@0@@Z PROC ; std::_Destroy_range<std::_Wrap_alloc<std::allocator<ChaosCombination> > >, COMDAT

; 170  : 	{	// destroy [_First, _Last), arbitrary type

  00000	55		 push	 ebp
  00001	8b ec		 mov	 ebp, esp
  00003	56		 push	 esi

; 171  : 	for (; _First != _Last; ++_First)

  00004	8b 75 08	 mov	 esi, DWORD PTR __First$[ebp]
  00007	57		 push	 edi
  00008	8b 7d 0c	 mov	 edi, DWORD PTR __Last$[ebp]
  0000b	3b f7		 cmp	 esi, edi
  0000d	74 12		 je	 SHORT $LN3@Destroy_ra
  0000f	90		 npad	 1
$LL4@Destroy_ra:
  00010	8b ce		 mov	 ecx, esi
  00012	e8 00 00 00 00	 call	 ??1ChaosCombination@@QAE@XZ
  00017	81 c6 28 01 00
	00		 add	 esi, 296		; 00000128H
  0001d	3b f7		 cmp	 esi, edi
  0001f	75 ef		 jne	 SHORT $LL4@Destroy_ra
$LN3@Destroy_ra:
  00021	5f		 pop	 edi
  00022	5e		 pop	 esi

; 172  : 		_Al.destroy(_STD addressof(*_First));
; 173  : 	}

  00023	5d		 pop	 ebp
  00024	c3		 ret	 0
??$_Destroy_range@U?$_Wrap_alloc@V?$allocator@UChaosCombination@@@std@@@std@@@std@@YAXPAUChaosCombination@@0AAU?$_Wrap_alloc@V?$allocator@UChaosCombination@@@std@@@0@U_Nonscalar_ptr_iterator_tag@0@@Z ENDP ; std::_Destroy_range<std::_Wrap_alloc<std::allocator<ChaosCombination> > >
_TEXT	ENDS
; Function compile flags: /Ogtp
; File c:\program files (x86)\microsoft visual studio 14.0\vc\include\xutility
;	COMDAT ??$_Ptr_cat@UChaosCombination@@U1@@std@@YA?AU_Nonscalar_ptr_iterator_tag@0@PAUChaosCombination@@0@Z
_TEXT	SEGMENT
__Cat$ = -1						; size = 1
___formal$ = 8						; size = 4
___formal$ = 12						; size = 4
??$_Ptr_cat@UChaosCombination@@U1@@std@@YA?AU_Nonscalar_ptr_iterator_tag@0@PAUChaosCombination@@0@Z PROC ; std::_Ptr_cat<ChaosCombination,ChaosCombination>, COMDAT

; 640  : 	{	// return pointer category from pointers

  00000	55		 push	 ebp
  00001	8b ec		 mov	 ebp, esp
  00003	51		 push	 ecx

; 641  : 	typename _Ptr_cat_helper<_Elem1, _Elem2>::type _Cat;
; 642  : 	return (_Cat);

  00004	8a 45 ff	 mov	 al, BYTE PTR __Cat$[ebp]

; 643  : 	}

  00007	8b e5		 mov	 esp, ebp
  00009	5d		 pop	 ebp
  0000a	c3		 ret	 0
??$_Ptr_cat@UChaosCombination@@U1@@std@@YA?AU_Nonscalar_ptr_iterator_tag@0@PAUChaosCombination@@0@Z ENDP ; std::_Ptr_cat<ChaosCombination,ChaosCombination>
_TEXT	ENDS
; Function compile flags: /Ogtp
; File c:\program files (x86)\microsoft visual studio 14.0\vc\include\type_traits
;	COMDAT ??$forward@ABV?$allocator@UChaosCombination@@@std@@@std@@YAABV?$allocator@UChaosCombination@@@0@ABV10@@Z
_TEXT	SEGMENT
__Arg$ = 8						; size = 4
??$forward@ABV?$allocator@UChaosCombination@@@std@@@std@@YAABV?$allocator@UChaosCombination@@@0@ABV10@@Z PROC ; std::forward<std::allocator<ChaosCombination> const &>, COMDAT

; 1233 : 	{	// forward an lvalue as either an lvalue or an rvalue

  00000	55		 push	 ebp
  00001	8b ec		 mov	 ebp, esp

; 1234 : 	return (static_cast<_Ty&&>(_Arg));

  00003	8b 45 08	 mov	 eax, DWORD PTR __Arg$[ebp]

; 1235 : 	}

  00006	5d		 pop	 ebp
  00007	c3		 ret	 0
??$forward@ABV?$allocator@UChaosCombination@@@std@@@std@@YAABV?$allocator@UChaosCombination@@@0@ABV10@@Z ENDP ; std::forward<std::allocator<ChaosCombination> const &>
_TEXT	ENDS
; Function compile flags: /Ogtp
; File c:\program files (x86)\microsoft visual studio 14.0\vc\include\xmemory0
;	COMDAT ??$_Pocs@U?$_Wrap_alloc@V?$allocator@UChaosCombination@@@std@@@std@@@std@@YAXAAU?$_Wrap_alloc@V?$allocator@UChaosCombination@@@std@@@0@0U?$integral_constant@_N$0A@@0@@Z
_TEXT	SEGMENT
___formal$ = 8						; size = 4
___formal$ = 12						; size = 4
___formal$ = 16						; size = 1
??$_Pocs@U?$_Wrap_alloc@V?$allocator@UChaosCombination@@@std@@@std@@@std@@YAXAAU?$_Wrap_alloc@V?$allocator@UChaosCombination@@@std@@@0@0U?$integral_constant@_N$0A@@0@@Z PROC ; std::_Pocs<std::_Wrap_alloc<std::allocator<ChaosCombination> > >, COMDAT

; 999  : 	}

  00000	c3		 ret	 0
??$_Pocs@U?$_Wrap_alloc@V?$allocator@UChaosCombination@@@std@@@std@@@std@@YAXAAU?$_Wrap_alloc@V?$allocator@UChaosCombination@@@std@@@0@0U?$integral_constant@_N$0A@@0@@Z ENDP ; std::_Pocs<std::_Wrap_alloc<std::allocator<ChaosCombination> > >
_TEXT	ENDS
; Function compile flags: /Ogtp
; File c:\program files (x86)\microsoft visual studio 14.0\vc\include\xmemory0
;	COMDAT ??$_Destroy_range@U?$_Wrap_alloc@V?$allocator@PAVChaosRecipe@@@std@@@std@@@std@@YAXPAPAVChaosRecipe@@0AAU?$_Wrap_alloc@V?$allocator@PAVChaosRecipe@@@std@@@0@U_Scalar_ptr_iterator_tag@0@@Z
_TEXT	SEGMENT
__First$ = 8						; size = 4
__Last$ = 12						; size = 4
__Al$ = 16						; size = 4
___formal$ = 20						; size = 1
??$_Destroy_range@U?$_Wrap_alloc@V?$allocator@PAVChaosRecipe@@@std@@@std@@@std@@YAXPAPAVChaosRecipe@@0AAU?$_Wrap_alloc@V?$allocator@PAVChaosRecipe@@@std@@@0@U_Scalar_ptr_iterator_tag@0@@Z PROC ; std::_Destroy_range<std::_Wrap_alloc<std::allocator<ChaosRecipe *> > >, COMDAT

; 180  : 	}

  00000	c3		 ret	 0
??$_Destroy_range@U?$_Wrap_alloc@V?$allocator@PAVChaosRecipe@@@std@@@std@@@std@@YAXPAPAVChaosRecipe@@0AAU?$_Wrap_alloc@V?$allocator@PAVChaosRecipe@@@std@@@0@U_Scalar_ptr_iterator_tag@0@@Z ENDP ; std::_Destroy_range<std::_Wrap_alloc<std::allocator<ChaosRecipe *> > >
_TEXT	ENDS
; Function compile flags: /Ogtp
; File c:\program files (x86)\microsoft visual studio 14.0\vc\include\xutility
;	COMDAT ??$_Ptr_cat@PAVChaosRecipe@@PAV1@@std@@YA?AU_Scalar_ptr_iterator_tag@0@PAPAVChaosRecipe@@0@Z
_TEXT	SEGMENT
__Cat$ = -1						; size = 1
___formal$ = 8						; size = 4
___formal$ = 12						; size = 4
??$_Ptr_cat@PAVChaosRecipe@@PAV1@@std@@YA?AU_Scalar_ptr_iterator_tag@0@PAPAVChaosRecipe@@0@Z PROC ; std::_Ptr_cat<ChaosRecipe *,ChaosRecipe *>, COMDAT

; 640  : 	{	// return pointer category from pointers

  00000	55		 push	 ebp
  00001	8b ec		 mov	 ebp, esp
  00003	51		 push	 ecx

; 641  : 	typename _Ptr_cat_helper<_Elem1, _Elem2>::type _Cat;
; 642  : 	return (_Cat);

  00004	8a 45 ff	 mov	 al, BYTE PTR __Cat$[ebp]

; 643  : 	}

  00007	8b e5		 mov	 esp, ebp
  00009	5d		 pop	 ebp
  0000a	c3		 ret	 0
??$_Ptr_cat@PAVChaosRecipe@@PAV1@@std@@YA?AU_Scalar_ptr_iterator_tag@0@PAPAVChaosRecipe@@0@Z ENDP ; std::_Ptr_cat<ChaosRecipe *,ChaosRecipe *>
_TEXT	ENDS
; Function compile flags: /Ogtp
; File c:\program files (x86)\microsoft visual studio 14.0\vc\include\type_traits
;	COMDAT ??$forward@ABV?$allocator@PAVChaosRecipe@@@std@@@std@@YAABV?$allocator@PAVChaosRecipe@@@0@ABV10@@Z
_TEXT	SEGMENT
__Arg$ = 8						; size = 4
??$forward@ABV?$allocator@PAVChaosRecipe@@@std@@@std@@YAABV?$allocator@PAVChaosRecipe@@@0@ABV10@@Z PROC ; std::forward<std::allocator<ChaosRecipe *> const &>, COMDAT

; 1233 : 	{	// forward an lvalue as either an lvalue or an rvalue

  00000	55		 push	 ebp
  00001	8b ec		 mov	 ebp, esp

; 1234 : 	return (static_cast<_Ty&&>(_Arg));

  00003	8b 45 08	 mov	 eax, DWORD PTR __Arg$[ebp]

; 1235 : 	}

  00006	5d		 pop	 ebp
  00007	c3		 ret	 0
??$forward@ABV?$allocator@PAVChaosRecipe@@@std@@@std@@YAABV?$allocator@PAVChaosRecipe@@@0@ABV10@@Z ENDP ; std::forward<std::allocator<ChaosRecipe *> const &>
_TEXT	ENDS
; Function compile flags: /Ogtp
; File c:\program files (x86)\microsoft visual studio 14.0\vc\include\xmemory0
;	COMDAT ??$_Pocs@U?$_Wrap_alloc@V?$allocator@PAVChaosRecipe@@@std@@@std@@@std@@YAXAAU?$_Wrap_alloc@V?$allocator@PAVChaosRecipe@@@std@@@0@0U?$integral_constant@_N$0A@@0@@Z
_TEXT	SEGMENT
___formal$ = 8						; size = 4
___formal$ = 12						; size = 4
___formal$ = 16						; size = 1
??$_Pocs@U?$_Wrap_alloc@V?$allocator@PAVChaosRecipe@@@std@@@std@@@std@@YAXAAU?$_Wrap_alloc@V?$allocator@PAVChaosRecipe@@@std@@@0@0U?$integral_constant@_N$0A@@0@@Z PROC ; std::_Pocs<std::_Wrap_alloc<std::allocator<ChaosRecipe *> > >, COMDAT

; 999  : 	}

  00000	c3		 ret	 0
??$_Pocs@U?$_Wrap_alloc@V?$allocator@PAVChaosRecipe@@@std@@@std@@@std@@YAXAAU?$_Wrap_alloc@V?$allocator@PAVChaosRecipe@@@std@@@0@0U?$integral_constant@_N$0A@@0@@Z ENDP ; std::_Pocs<std::_Wrap_alloc<std::allocator<ChaosRecipe *> > >
_TEXT	ENDS
; Function compile flags: /Ogtp
; File c:\program files (x86)\microsoft visual studio 14.0\vc\include\xmemory0
;	COMDAT ??$construct@UChaosIngredient@@ABU1@@?$allocator_traits@V?$allocator@UChaosIngredient@@@std@@@std@@SAXAAV?$allocator@UChaosIngredient@@@1@PAUChaosIngredient@@ABU3@@Z
_TEXT	SEGMENT
__Al$ = 8						; size = 4
__Ptr$ = 12						; size = 4
_<_Args_0>$ = 16					; size = 4
??$construct@UChaosIngredient@@ABU1@@?$allocator_traits@V?$allocator@UChaosIngredient@@@std@@@std@@SAXAAV?$allocator@UChaosIngredient@@@1@PAUChaosIngredient@@ABU3@@Z PROC ; std::allocator_traits<std::allocator<ChaosIngredient> >::construct<ChaosIngredient,ChaosIngredient const &>, COMDAT

; 772  : 		{	// construct _Objty(_Types...) at _Ptr

  00000	55		 push	 ebp
  00001	8b ec		 mov	 ebp, esp

; 655  : 		::new ((void *)_Ptr) _Objty(_STD forward<_Types>(_Args)...);

  00003	8b 4d 0c	 mov	 ecx, DWORD PTR __Ptr$[ebp]
  00006	85 c9		 test	 ecx, ecx
  00008	74 29		 je	 SHORT $LN8@construct
  0000a	8b 45 10	 mov	 eax, DWORD PTR _<_Args_0>$[ebp]
  0000d	0f 10 00	 movups	 xmm0, XMMWORD PTR [eax]
  00010	0f 11 01	 movups	 XMMWORD PTR [ecx], xmm0
  00013	0f 10 40 10	 movups	 xmm0, XMMWORD PTR [eax+16]
  00017	0f 11 41 10	 movups	 XMMWORD PTR [ecx+16], xmm0
  0001b	0f 10 40 20	 movups	 xmm0, XMMWORD PTR [eax+32]
  0001f	0f 11 41 20	 movups	 XMMWORD PTR [ecx+32], xmm0
  00023	0f 10 40 30	 movups	 xmm0, XMMWORD PTR [eax+48]
  00027	0f 11 41 30	 movups	 XMMWORD PTR [ecx+48], xmm0
  0002b	66 8b 40 40	 mov	 ax, WORD PTR [eax+64]
  0002f	66 89 41 40	 mov	 WORD PTR [ecx+64], ax
$LN8@construct:

; 773  : 		_Al.construct(_Ptr, _STD forward<_Types>(_Args)...);
; 774  : 		}

  00033	5d		 pop	 ebp
  00034	c3		 ret	 0
??$construct@UChaosIngredient@@ABU1@@?$allocator_traits@V?$allocator@UChaosIngredient@@@std@@@std@@SAXAAV?$allocator@UChaosIngredient@@@1@PAUChaosIngredient@@ABU3@@Z ENDP ; std::allocator_traits<std::allocator<ChaosIngredient> >::construct<ChaosIngredient,ChaosIngredient const &>
_TEXT	ENDS
; Function compile flags: /Ogtp
; File c:\program files (x86)\microsoft visual studio 14.0\vc\include\type_traits
;	COMDAT ??$forward@ABUChaosIngredient@@@std@@YAABUChaosIngredient@@ABU1@@Z
_TEXT	SEGMENT
__Arg$ = 8						; size = 4
??$forward@ABUChaosIngredient@@@std@@YAABUChaosIngredient@@ABU1@@Z PROC ; std::forward<ChaosIngredient const &>, COMDAT

; 1233 : 	{	// forward an lvalue as either an lvalue or an rvalue

  00000	55		 push	 ebp
  00001	8b ec		 mov	 ebp, esp

; 1234 : 	return (static_cast<_Ty&&>(_Arg));

  00003	8b 45 08	 mov	 eax, DWORD PTR __Arg$[ebp]

; 1235 : 	}

  00006	5d		 pop	 ebp
  00007	c3		 ret	 0
??$forward@ABUChaosIngredient@@@std@@YAABUChaosIngredient@@ABU1@@Z ENDP ; std::forward<ChaosIngredient const &>
_TEXT	ENDS
; Function compile flags: /Ogtp
; File c:\program files (x86)\microsoft visual studio 14.0\vc\include\xmemory0
;	COMDAT ??$construct@UChaosIngredient@@AAU1@@?$allocator_traits@V?$allocator@UChaosIngredient@@@std@@@std@@SAXAAV?$allocator@UChaosIngredient@@@1@PAUChaosIngredient@@AAU3@@Z
_TEXT	SEGMENT
__Al$ = 8						; size = 4
__Ptr$ = 12						; size = 4
_<_Args_0>$ = 16					; size = 4
??$construct@UChaosIngredient@@AAU1@@?$allocator_traits@V?$allocator@UChaosIngredient@@@std@@@std@@SAXAAV?$allocator@UChaosIngredient@@@1@PAUChaosIngredient@@AAU3@@Z PROC ; std::allocator_traits<std::allocator<ChaosIngredient> >::construct<ChaosIngredient,ChaosIngredient &>, COMDAT

; 772  : 		{	// construct _Objty(_Types...) at _Ptr

  00000	55		 push	 ebp
  00001	8b ec		 mov	 ebp, esp

; 655  : 		::new ((void *)_Ptr) _Objty(_STD forward<_Types>(_Args)...);

  00003	8b 4d 0c	 mov	 ecx, DWORD PTR __Ptr$[ebp]
  00006	85 c9		 test	 ecx, ecx
  00008	74 29		 je	 SHORT $LN8@construct
  0000a	8b 45 10	 mov	 eax, DWORD PTR _<_Args_0>$[ebp]
  0000d	0f 10 00	 movups	 xmm0, XMMWORD PTR [eax]
  00010	0f 11 01	 movups	 XMMWORD PTR [ecx], xmm0
  00013	0f 10 40 10	 movups	 xmm0, XMMWORD PTR [eax+16]
  00017	0f 11 41 10	 movups	 XMMWORD PTR [ecx+16], xmm0
  0001b	0f 10 40 20	 movups	 xmm0, XMMWORD PTR [eax+32]
  0001f	0f 11 41 20	 movups	 XMMWORD PTR [ecx+32], xmm0
  00023	0f 10 40 30	 movups	 xmm0, XMMWORD PTR [eax+48]
  00027	0f 11 41 30	 movups	 XMMWORD PTR [ecx+48], xmm0
  0002b	66 8b 40 40	 mov	 ax, WORD PTR [eax+64]
  0002f	66 89 41 40	 mov	 WORD PTR [ecx+64], ax
$LN8@construct:

; 773  : 		_Al.construct(_Ptr, _STD forward<_Types>(_Args)...);
; 774  : 		}

  00033	5d		 pop	 ebp
  00034	c3		 ret	 0
??$construct@UChaosIngredient@@AAU1@@?$allocator_traits@V?$allocator@UChaosIngredient@@@std@@@std@@SAXAAV?$allocator@UChaosIngredient@@@1@PAUChaosIngredient@@AAU3@@Z ENDP ; std::allocator_traits<std::allocator<ChaosIngredient> >::construct<ChaosIngredient,ChaosIngredient &>
_TEXT	ENDS
; Function compile flags: /Ogtp
; File c:\program files (x86)\microsoft visual studio 14.0\vc\include\type_traits
;	COMDAT ??$forward@AAUChaosIngredient@@@std@@YAAAUChaosIngredient@@AAU1@@Z
_TEXT	SEGMENT
__Arg$ = 8						; size = 4
??$forward@AAUChaosIngredient@@@std@@YAAAUChaosIngredient@@AAU1@@Z PROC ; std::forward<ChaosIngredient &>, COMDAT

; 1233 : 	{	// forward an lvalue as either an lvalue or an rvalue

  00000	55		 push	 ebp
  00001	8b ec		 mov	 ebp, esp

; 1234 : 	return (static_cast<_Ty&&>(_Arg));

  00003	8b 45 08	 mov	 eax, DWORD PTR __Arg$[ebp]

; 1235 : 	}

  00006	5d		 pop	 ebp
  00007	c3		 ret	 0
??$forward@AAUChaosIngredient@@@std@@YAAAUChaosIngredient@@AAU1@@Z ENDP ; std::forward<ChaosIngredient &>
_TEXT	ENDS
; Function compile flags: /Ogtp
; File c:\program files (x86)\microsoft visual studio 14.0\vc\include\xstddef
;	COMDAT ??$_Addressof@$$CBUChaosIngredient@@@std@@YAPBUChaosIngredient@@ABU1@U?$integral_constant@_N$0A@@0@@Z
_TEXT	SEGMENT
__Val$ = 8						; size = 4
___formal$ = 12						; size = 1
??$_Addressof@$$CBUChaosIngredient@@@std@@YAPBUChaosIngredient@@ABU1@U?$integral_constant@_N$0A@@0@@Z PROC ; std::_Addressof<ChaosIngredient const >, COMDAT

; 688  : 	{	// return address of object _Val

  00000	55		 push	 ebp
  00001	8b ec		 mov	 ebp, esp

; 689  : 	return (reinterpret_cast<_Ty *>(

  00003	8b 45 08	 mov	 eax, DWORD PTR __Val$[ebp]

; 690  : 		&const_cast<char&>(
; 691  : 		reinterpret_cast<const volatile char&>(_Val))));
; 692  : 	}

  00006	5d		 pop	 ebp
  00007	c3		 ret	 0
??$_Addressof@$$CBUChaosIngredient@@@std@@YAPBUChaosIngredient@@ABU1@U?$integral_constant@_N$0A@@0@@Z ENDP ; std::_Addressof<ChaosIngredient const >
_TEXT	ENDS
; Function compile flags: /Ogtp
; File c:\program files (x86)\microsoft visual studio 14.0\vc\include\xmemory0
;	COMDAT ??$construct@UChaosProduce@@ABU1@@?$allocator_traits@V?$allocator@UChaosProduce@@@std@@@std@@SAXAAV?$allocator@UChaosProduce@@@1@PAUChaosProduce@@ABU3@@Z
_TEXT	SEGMENT
__Al$ = 8						; size = 4
__Ptr$ = 12						; size = 4
_<_Args_0>$ = 16					; size = 4
??$construct@UChaosProduce@@ABU1@@?$allocator_traits@V?$allocator@UChaosProduce@@@std@@@std@@SAXAAV?$allocator@UChaosProduce@@@1@PAUChaosProduce@@ABU3@@Z PROC ; std::allocator_traits<std::allocator<ChaosProduce> >::construct<ChaosProduce,ChaosProduce const &>, COMDAT

; 772  : 		{	// construct _Objty(_Types...) at _Ptr

  00000	55		 push	 ebp
  00001	8b ec		 mov	 ebp, esp

; 655  : 		::new ((void *)_Ptr) _Objty(_STD forward<_Types>(_Args)...);

  00003	8b 4d 0c	 mov	 ecx, DWORD PTR __Ptr$[ebp]
  00006	85 c9		 test	 ecx, ecx
  00008	74 09		 je	 SHORT $LN8@construct
  0000a	8b 45 10	 mov	 eax, DWORD PTR _<_Args_0>$[ebp]
  0000d	0f 10 00	 movups	 xmm0, XMMWORD PTR [eax]
  00010	0f 11 01	 movups	 XMMWORD PTR [ecx], xmm0
$LN8@construct:

; 773  : 		_Al.construct(_Ptr, _STD forward<_Types>(_Args)...);
; 774  : 		}

  00013	5d		 pop	 ebp
  00014	c3		 ret	 0
??$construct@UChaosProduce@@ABU1@@?$allocator_traits@V?$allocator@UChaosProduce@@@std@@@std@@SAXAAV?$allocator@UChaosProduce@@@1@PAUChaosProduce@@ABU3@@Z ENDP ; std::allocator_traits<std::allocator<ChaosProduce> >::construct<ChaosProduce,ChaosProduce const &>
_TEXT	ENDS
; Function compile flags: /Ogtp
; File c:\program files (x86)\microsoft visual studio 14.0\vc\include\type_traits
;	COMDAT ??$forward@ABUChaosProduce@@@std@@YAABUChaosProduce@@ABU1@@Z
_TEXT	SEGMENT
__Arg$ = 8						; size = 4
??$forward@ABUChaosProduce@@@std@@YAABUChaosProduce@@ABU1@@Z PROC ; std::forward<ChaosProduce const &>, COMDAT

; 1233 : 	{	// forward an lvalue as either an lvalue or an rvalue

  00000	55		 push	 ebp
  00001	8b ec		 mov	 ebp, esp

; 1234 : 	return (static_cast<_Ty&&>(_Arg));

  00003	8b 45 08	 mov	 eax, DWORD PTR __Arg$[ebp]

; 1235 : 	}

  00006	5d		 pop	 ebp
  00007	c3		 ret	 0
??$forward@ABUChaosProduce@@@std@@YAABUChaosProduce@@ABU1@@Z ENDP ; std::forward<ChaosProduce const &>
_TEXT	ENDS
; Function compile flags: /Ogtp
; File c:\program files (x86)\microsoft visual studio 14.0\vc\include\xmemory0
;	COMDAT ??$construct@UChaosProduce@@AAU1@@?$allocator_traits@V?$allocator@UChaosProduce@@@std@@@std@@SAXAAV?$allocator@UChaosProduce@@@1@PAUChaosProduce@@AAU3@@Z
_TEXT	SEGMENT
__Al$ = 8						; size = 4
__Ptr$ = 12						; size = 4
_<_Args_0>$ = 16					; size = 4
??$construct@UChaosProduce@@AAU1@@?$allocator_traits@V?$allocator@UChaosProduce@@@std@@@std@@SAXAAV?$allocator@UChaosProduce@@@1@PAUChaosProduce@@AAU3@@Z PROC ; std::allocator_traits<std::allocator<ChaosProduce> >::construct<ChaosProduce,ChaosProduce &>, COMDAT

; 772  : 		{	// construct _Objty(_Types...) at _Ptr

  00000	55		 push	 ebp
  00001	8b ec		 mov	 ebp, esp

; 655  : 		::new ((void *)_Ptr) _Objty(_STD forward<_Types>(_Args)...);

  00003	8b 4d 0c	 mov	 ecx, DWORD PTR __Ptr$[ebp]
  00006	85 c9		 test	 ecx, ecx
  00008	74 09		 je	 SHORT $LN8@construct
  0000a	8b 45 10	 mov	 eax, DWORD PTR _<_Args_0>$[ebp]
  0000d	0f 10 00	 movups	 xmm0, XMMWORD PTR [eax]
  00010	0f 11 01	 movups	 XMMWORD PTR [ecx], xmm0
$LN8@construct:

; 773  : 		_Al.construct(_Ptr, _STD forward<_Types>(_Args)...);
; 774  : 		}

  00013	5d		 pop	 ebp
  00014	c3		 ret	 0
??$construct@UChaosProduce@@AAU1@@?$allocator_traits@V?$allocator@UChaosProduce@@@std@@@std@@SAXAAV?$allocator@UChaosProduce@@@1@PAUChaosProduce@@AAU3@@Z ENDP ; std::allocator_traits<std::allocator<ChaosProduce> >::construct<ChaosProduce,ChaosProduce &>
_TEXT	ENDS
; Function compile flags: /Ogtp
; File c:\program files (x86)\microsoft visual studio 14.0\vc\include\type_traits
;	COMDAT ??$forward@AAUChaosProduce@@@std@@YAAAUChaosProduce@@AAU1@@Z
_TEXT	SEGMENT
__Arg$ = 8						; size = 4
??$forward@AAUChaosProduce@@@std@@YAAAUChaosProduce@@AAU1@@Z PROC ; std::forward<ChaosProduce &>, COMDAT

; 1233 : 	{	// forward an lvalue as either an lvalue or an rvalue

  00000	55		 push	 ebp
  00001	8b ec		 mov	 ebp, esp

; 1234 : 	return (static_cast<_Ty&&>(_Arg));

  00003	8b 45 08	 mov	 eax, DWORD PTR __Arg$[ebp]

; 1235 : 	}

  00006	5d		 pop	 ebp
  00007	c3		 ret	 0
??$forward@AAUChaosProduce@@@std@@YAAAUChaosProduce@@AAU1@@Z ENDP ; std::forward<ChaosProduce &>
_TEXT	ENDS
; Function compile flags: /Ogtp
; File c:\program files (x86)\microsoft visual studio 14.0\vc\include\xstddef
;	COMDAT ??$_Addressof@$$CBUChaosProduce@@@std@@YAPBUChaosProduce@@ABU1@U?$integral_constant@_N$0A@@0@@Z
_TEXT	SEGMENT
__Val$ = 8						; size = 4
___formal$ = 12						; size = 1
??$_Addressof@$$CBUChaosProduce@@@std@@YAPBUChaosProduce@@ABU1@U?$integral_constant@_N$0A@@0@@Z PROC ; std::_Addressof<ChaosProduce const >, COMDAT

; 688  : 	{	// return address of object _Val

  00000	55		 push	 ebp
  00001	8b ec		 mov	 ebp, esp

; 689  : 	return (reinterpret_cast<_Ty *>(

  00003	8b 45 08	 mov	 eax, DWORD PTR __Val$[ebp]

; 690  : 		&const_cast<char&>(
; 691  : 		reinterpret_cast<const volatile char&>(_Val))));
; 692  : 	}

  00006	5d		 pop	 ebp
  00007	c3		 ret	 0
??$_Addressof@$$CBUChaosProduce@@@std@@YAPBUChaosProduce@@ABU1@U?$integral_constant@_N$0A@@0@@Z ENDP ; std::_Addressof<ChaosProduce const >
_TEXT	ENDS
; Function compile flags: /Ogtp
; File c:\program files (x86)\microsoft visual studio 14.0\vc\include\xmemory0
;	COMDAT ??$construct@UChaosTalisman@@ABU1@@?$allocator_traits@V?$allocator@UChaosTalisman@@@std@@@std@@SAXAAV?$allocator@UChaosTalisman@@@1@PAUChaosTalisman@@ABU3@@Z
_TEXT	SEGMENT
__Al$ = 8						; size = 4
__Ptr$ = 12						; size = 4
_<_Args_0>$ = 16					; size = 4
??$construct@UChaosTalisman@@ABU1@@?$allocator_traits@V?$allocator@UChaosTalisman@@@std@@@std@@SAXAAV?$allocator@UChaosTalisman@@@1@PAUChaosTalisman@@ABU3@@Z PROC ; std::allocator_traits<std::allocator<ChaosTalisman> >::construct<ChaosTalisman,ChaosTalisman const &>, COMDAT

; 772  : 		{	// construct _Objty(_Types...) at _Ptr

  00000	55		 push	 ebp
  00001	8b ec		 mov	 ebp, esp

; 655  : 		::new ((void *)_Ptr) _Objty(_STD forward<_Types>(_Args)...);

  00003	8b 4d 0c	 mov	 ecx, DWORD PTR __Ptr$[ebp]
  00006	85 c9		 test	 ecx, ecx
  00008	74 09		 je	 SHORT $LN8@construct
  0000a	8b 45 10	 mov	 eax, DWORD PTR _<_Args_0>$[ebp]
  0000d	0f 10 00	 movups	 xmm0, XMMWORD PTR [eax]
  00010	0f 11 01	 movups	 XMMWORD PTR [ecx], xmm0
$LN8@construct:

; 773  : 		_Al.construct(_Ptr, _STD forward<_Types>(_Args)...);
; 774  : 		}

  00013	5d		 pop	 ebp
  00014	c3		 ret	 0
??$construct@UChaosTalisman@@ABU1@@?$allocator_traits@V?$allocator@UChaosTalisman@@@std@@@std@@SAXAAV?$allocator@UChaosTalisman@@@1@PAUChaosTalisman@@ABU3@@Z ENDP ; std::allocator_traits<std::allocator<ChaosTalisman> >::construct<ChaosTalisman,ChaosTalisman const &>
_TEXT	ENDS
; Function compile flags: /Ogtp
; File c:\program files (x86)\microsoft visual studio 14.0\vc\include\type_traits
;	COMDAT ??$forward@ABUChaosTalisman@@@std@@YAABUChaosTalisman@@ABU1@@Z
_TEXT	SEGMENT
__Arg$ = 8						; size = 4
??$forward@ABUChaosTalisman@@@std@@YAABUChaosTalisman@@ABU1@@Z PROC ; std::forward<ChaosTalisman const &>, COMDAT

; 1233 : 	{	// forward an lvalue as either an lvalue or an rvalue

  00000	55		 push	 ebp
  00001	8b ec		 mov	 ebp, esp

; 1234 : 	return (static_cast<_Ty&&>(_Arg));

  00003	8b 45 08	 mov	 eax, DWORD PTR __Arg$[ebp]

; 1235 : 	}

  00006	5d		 pop	 ebp
  00007	c3		 ret	 0
??$forward@ABUChaosTalisman@@@std@@YAABUChaosTalisman@@ABU1@@Z ENDP ; std::forward<ChaosTalisman const &>
_TEXT	ENDS
; Function compile flags: /Ogtp
; File c:\program files (x86)\microsoft visual studio 14.0\vc\include\xmemory0
;	COMDAT ??$construct@UChaosTalisman@@AAU1@@?$allocator_traits@V?$allocator@UChaosTalisman@@@std@@@std@@SAXAAV?$allocator@UChaosTalisman@@@1@PAUChaosTalisman@@AAU3@@Z
_TEXT	SEGMENT
__Al$ = 8						; size = 4
__Ptr$ = 12						; size = 4
_<_Args_0>$ = 16					; size = 4
??$construct@UChaosTalisman@@AAU1@@?$allocator_traits@V?$allocator@UChaosTalisman@@@std@@@std@@SAXAAV?$allocator@UChaosTalisman@@@1@PAUChaosTalisman@@AAU3@@Z PROC ; std::allocator_traits<std::allocator<ChaosTalisman> >::construct<ChaosTalisman,ChaosTalisman &>, COMDAT

; 772  : 		{	// construct _Objty(_Types...) at _Ptr

  00000	55		 push	 ebp
  00001	8b ec		 mov	 ebp, esp

; 655  : 		::new ((void *)_Ptr) _Objty(_STD forward<_Types>(_Args)...);

  00003	8b 4d 0c	 mov	 ecx, DWORD PTR __Ptr$[ebp]
  00006	85 c9		 test	 ecx, ecx
  00008	74 09		 je	 SHORT $LN8@construct
  0000a	8b 45 10	 mov	 eax, DWORD PTR _<_Args_0>$[ebp]
  0000d	0f 10 00	 movups	 xmm0, XMMWORD PTR [eax]
  00010	0f 11 01	 movups	 XMMWORD PTR [ecx], xmm0
$LN8@construct:

; 773  : 		_Al.construct(_Ptr, _STD forward<_Types>(_Args)...);
; 774  : 		}

  00013	5d		 pop	 ebp
  00014	c3		 ret	 0
??$construct@UChaosTalisman@@AAU1@@?$allocator_traits@V?$allocator@UChaosTalisman@@@std@@@std@@SAXAAV?$allocator@UChaosTalisman@@@1@PAUChaosTalisman@@AAU3@@Z ENDP ; std::allocator_traits<std::allocator<ChaosTalisman> >::construct<ChaosTalisman,ChaosTalisman &>
_TEXT	ENDS
; Function compile flags: /Ogtp
; File c:\program files (x86)\microsoft visual studio 14.0\vc\include\type_traits
;	COMDAT ??$forward@AAUChaosTalisman@@@std@@YAAAUChaosTalisman@@AAU1@@Z
_TEXT	SEGMENT
__Arg$ = 8						; size = 4
??$forward@AAUChaosTalisman@@@std@@YAAAUChaosTalisman@@AAU1@@Z PROC ; std::forward<ChaosTalisman &>, COMDAT

; 1233 : 	{	// forward an lvalue as either an lvalue or an rvalue

  00000	55		 push	 ebp
  00001	8b ec		 mov	 ebp, esp

; 1234 : 	return (static_cast<_Ty&&>(_Arg));

  00003	8b 45 08	 mov	 eax, DWORD PTR __Arg$[ebp]

; 1235 : 	}

  00006	5d		 pop	 ebp
  00007	c3		 ret	 0
??$forward@AAUChaosTalisman@@@std@@YAAAUChaosTalisman@@AAU1@@Z ENDP ; std::forward<ChaosTalisman &>
_TEXT	ENDS
; Function compile flags: /Ogtp
; File c:\program files (x86)\microsoft visual studio 14.0\vc\include\xstddef
;	COMDAT ??$_Addressof@$$CBUChaosTalisman@@@std@@YAPBUChaosTalisman@@ABU1@U?$integral_constant@_N$0A@@0@@Z
_TEXT	SEGMENT
__Val$ = 8						; size = 4
___formal$ = 12						; size = 1
??$_Addressof@$$CBUChaosTalisman@@@std@@YAPBUChaosTalisman@@ABU1@U?$integral_constant@_N$0A@@0@@Z PROC ; std::_Addressof<ChaosTalisman const >, COMDAT

; 688  : 	{	// return address of object _Val

  00000	55		 push	 ebp
  00001	8b ec		 mov	 ebp, esp

; 689  : 	return (reinterpret_cast<_Ty *>(

  00003	8b 45 08	 mov	 eax, DWORD PTR __Val$[ebp]

; 690  : 		&const_cast<char&>(
; 691  : 		reinterpret_cast<const volatile char&>(_Val))));
; 692  : 	}

  00006	5d		 pop	 ebp
  00007	c3		 ret	 0
??$_Addressof@$$CBUChaosTalisman@@@std@@YAPBUChaosTalisman@@ABU1@U?$integral_constant@_N$0A@@0@@Z ENDP ; std::_Addressof<ChaosTalisman const >
_TEXT	ENDS
; Function compile flags: /Ogtp
; File c:\program files (x86)\microsoft visual studio 14.0\vc\include\xmemory0
;	COMDAT ??$construct@UChaosCombination@@ABU1@@?$allocator_traits@V?$allocator@UChaosCombination@@@std@@@std@@SAXAAV?$allocator@UChaosCombination@@@1@PAUChaosCombination@@ABU3@@Z
_TEXT	SEGMENT
$T2 = -16						; size = 4
__$EHRec$ = -12						; size = 12
__Al$ = 8						; size = 4
__Ptr$ = 12						; size = 4
_<_Args_0>$ = 16					; size = 4
??$construct@UChaosCombination@@ABU1@@?$allocator_traits@V?$allocator@UChaosCombination@@@std@@@std@@SAXAAV?$allocator@UChaosCombination@@@1@PAUChaosCombination@@ABU3@@Z PROC ; std::allocator_traits<std::allocator<ChaosCombination> >::construct<ChaosCombination,ChaosCombination const &>, COMDAT

; 772  : 		{	// construct _Objty(_Types...) at _Ptr

  00000	55		 push	 ebp
  00001	8b ec		 mov	 ebp, esp
  00003	6a ff		 push	 -1
  00005	68 00 00 00 00	 push	 __ehhandler$??$construct@UChaosCombination@@ABU1@@?$allocator_traits@V?$allocator@UChaosCombination@@@std@@@std@@SAXAAV?$allocator@UChaosCombination@@@1@PAUChaosCombination@@ABU3@@Z
  0000a	64 a1 00 00 00
	00		 mov	 eax, DWORD PTR fs:0
  00010	50		 push	 eax
  00011	51		 push	 ecx
  00012	a1 00 00 00 00	 mov	 eax, DWORD PTR ___security_cookie
  00017	33 c5		 xor	 eax, ebp
  00019	50		 push	 eax
  0001a	8d 45 f4	 lea	 eax, DWORD PTR __$EHRec$[ebp]
  0001d	64 a3 00 00 00
	00		 mov	 DWORD PTR fs:0, eax

; 655  : 		::new ((void *)_Ptr) _Objty(_STD forward<_Types>(_Args)...);

  00023	8b 4d 0c	 mov	 ecx, DWORD PTR __Ptr$[ebp]
  00026	89 4d f0	 mov	 DWORD PTR $T2[ebp], ecx
  00029	c7 45 fc 00 00
	00 00		 mov	 DWORD PTR __$EHRec$[ebp+8], 0
  00030	85 c9		 test	 ecx, ecx
  00032	74 08		 je	 SHORT $LN8@construct
  00034	ff 75 10	 push	 DWORD PTR _<_Args_0>$[ebp]
  00037	e8 00 00 00 00	 call	 ??0ChaosCombination@@QAE@ABU0@@Z
$LN8@construct:

; 773  : 		_Al.construct(_Ptr, _STD forward<_Types>(_Args)...);
; 774  : 		}

  0003c	8b 4d f4	 mov	 ecx, DWORD PTR __$EHRec$[ebp]
  0003f	64 89 0d 00 00
	00 00		 mov	 DWORD PTR fs:0, ecx
  00046	59		 pop	 ecx
  00047	8b e5		 mov	 esp, ebp
  00049	5d		 pop	 ebp
  0004a	c3		 ret	 0
_TEXT	ENDS
;	COMDAT text$x
text$x	SEGMENT
__unwindfunclet$??$construct@UChaosCombination@@ABU1@@?$allocator_traits@V?$allocator@UChaosCombination@@@std@@@std@@SAXAAV?$allocator@UChaosCombination@@@1@PAUChaosCombination@@ABU3@@Z$1:
  00000	8b 45 0c	 mov	 eax, DWORD PTR __Ptr$[ebp]
  00003	50		 push	 eax
  00004	8b 45 f0	 mov	 eax, DWORD PTR $T2[ebp]
  00007	50		 push	 eax
  00008	e8 00 00 00 00	 call	 ??3@YAXPAX0@Z		; operator delete
  0000d	83 c4 08	 add	 esp, 8
  00010	c3		 ret	 0
__ehhandler$??$construct@UChaosCombination@@ABU1@@?$allocator_traits@V?$allocator@UChaosCombination@@@std@@@std@@SAXAAV?$allocator@UChaosCombination@@@1@PAUChaosCombination@@ABU3@@Z:
  00011	8b 54 24 08	 mov	 edx, DWORD PTR [esp+8]
  00015	8d 42 0c	 lea	 eax, DWORD PTR [edx+12]
  00018	8b 4a f8	 mov	 ecx, DWORD PTR [edx-8]
  0001b	33 c8		 xor	 ecx, eax
  0001d	e8 00 00 00 00	 call	 @__security_check_cookie@4
  00022	b8 00 00 00 00	 mov	 eax, OFFSET __ehfuncinfo$??$construct@UChaosCombination@@ABU1@@?$allocator_traits@V?$allocator@UChaosCombination@@@std@@@std@@SAXAAV?$allocator@UChaosCombination@@@1@PAUChaosCombination@@ABU3@@Z
  00027	e9 00 00 00 00	 jmp	 ___CxxFrameHandler3
text$x	ENDS
??$construct@UChaosCombination@@ABU1@@?$allocator_traits@V?$allocator@UChaosCombination@@@std@@@std@@SAXAAV?$allocator@UChaosCombination@@@1@PAUChaosCombination@@ABU3@@Z ENDP ; std::allocator_traits<std::allocator<ChaosCombination> >::construct<ChaosCombination,ChaosCombination const &>
; Function compile flags: /Ogtp
; File c:\program files (x86)\microsoft visual studio 14.0\vc\include\type_traits
;	COMDAT ??$forward@ABUChaosCombination@@@std@@YAABUChaosCombination@@ABU1@@Z
_TEXT	SEGMENT
__Arg$ = 8						; size = 4
??$forward@ABUChaosCombination@@@std@@YAABUChaosCombination@@ABU1@@Z PROC ; std::forward<ChaosCombination const &>, COMDAT

; 1233 : 	{	// forward an lvalue as either an lvalue or an rvalue

  00000	55		 push	 ebp
  00001	8b ec		 mov	 ebp, esp

; 1234 : 	return (static_cast<_Ty&&>(_Arg));

  00003	8b 45 08	 mov	 eax, DWORD PTR __Arg$[ebp]

; 1235 : 	}

  00006	5d		 pop	 ebp
  00007	c3		 ret	 0
