; Listing generated by Microsoft (R) Optimizing Compiler Version 19.00.23506.0 

	TITLE	C:\Users\Michel\Desktop\Source\GameServer\Source\CrywolfStatue.cpp
	.686P
	.XMM
	include listing.inc
	.model	flat

INCLUDELIB LIBCMT
INCLUDELIB OLDNAMES

PUBLIC	?__empty_global_delete@@YAXPAX@Z		; __empty_global_delete
PUBLIC	?__empty_global_delete@@YAXPAXI@Z		; __empty_global_delete
PUBLIC	??1OBJECTSTRUCT@@QAE@XZ				; OBJECTSTRUCT::~OBJECTSTRUCT
PUBLIC	??_EOBJECTSTRUCT@@QAEPAXI@Z			; OBJECTSTRUCT::`vector deleting destructor'
PUBLIC	??0CCrywolfStatue@@QAE@XZ			; CCrywolfStatue::CCrywolfStatue
PUBLIC	??1CCrywolfStatue@@UAE@XZ			; CCrywolfStatue::~CCrywolfStatue
PUBLIC	?CrywolfStatueAct@CCrywolfStatue@@QAEXH@Z	; CCrywolfStatue::CrywolfStatueAct
PUBLIC	?GetStatueViewState@CCrywolfStatue@@QAEHH@Z	; CCrywolfStatue::GetStatueViewState
PUBLIC	?SetStatueViewState@CCrywolfStatue@@QAEXPAUOBJECTSTRUCT@@H@Z ; CCrywolfStatue::SetStatueViewState
PUBLIC	??_GCCrywolfStatue@@UAEPAXI@Z			; CCrywolfStatue::`scalar deleting destructor'
PUBLIC	??_7CCrywolfStatue@@6B@				; CCrywolfStatue::`vftable'
PUBLIC	?g_CrywolfNPC_Statue@@3VCCrywolfStatue@@A	; g_CrywolfNPC_Statue
PUBLIC	??_R4CCrywolfStatue@@6B@			; CCrywolfStatue::`RTTI Complete Object Locator'
PUBLIC	??_R0?AVCCrywolfStatue@@@8			; CCrywolfStatue `RTTI Type Descriptor'
PUBLIC	??_R3CCrywolfStatue@@8				; CCrywolfStatue::`RTTI Class Hierarchy Descriptor'
PUBLIC	??_R2CCrywolfStatue@@8				; CCrywolfStatue::`RTTI Base Class Array'
PUBLIC	??_R1A@?0A@EA@CCrywolfStatue@@8			; CCrywolfStatue::`RTTI Base Class Descriptor at (0,-1,0,64)'
EXTRN	??_M@YGXPAXIIP6EX0@Z@Z:PROC			; `eh vector destructor iterator'
EXTRN	??3@YAXPAXI@Z:PROC				; operator delete
EXTRN	??_V@YAXPAXI@Z:PROC				; operator delete[]
EXTRN	_atexit:PROC
EXTRN	?Get@Message@@QAEPADH@Z:PROC			; Message::Get
EXTRN	??1CSkillDelay@@UAE@XZ:PROC			; CSkillDelay::~CSkillDelay
EXTRN	??1TMonsterAIAgro@@UAE@XZ:PROC			; TMonsterAIAgro::~TMonsterAIAgro
EXTRN	?gObjIsConnected@@YAHH@Z:PROC			; gObjIsConnected
EXTRN	??_ECCrywolfStatue@@UAEPAXI@Z:PROC		; CCrywolfStatue::`vector deleting destructor'
EXTRN	?GetContractedAltarCount@CCrywolfAltar@@QAEHXZ:PROC ; CCrywolfAltar::GetContractedAltarCount
EXTRN	?GetPriestHPSum@CCrywolfAltar@@QAEHXZ:PROC	; CCrywolfAltar::GetPriestHPSum
EXTRN	?GetPriestMaxHPSum@CCrywolfAltar@@QAEHXZ:PROC	; CCrywolfAltar::GetPriestMaxHPSum
EXTRN	??0CCrywolfUtil@@QAE@XZ:PROC			; CCrywolfUtil::CCrywolfUtil
EXTRN	??1CCrywolfUtil@@UAE@XZ:PROC			; CCrywolfUtil::~CCrywolfUtil
EXTRN	?SendCrywolfUserAnyMsg@CCrywolfUtil@@QAAXHPADZZ:PROC ; CCrywolfUtil::SendCrywolfUserAnyMsg
EXTRN	?gObjAddBuffEffect@@YA_NPAUOBJECTSTRUCT@@HEHEHH@Z:PROC ; gObjAddBuffEffect
EXTRN	@__security_check_cookie@4:PROC
EXTRN	___CxxFrameHandler3:PROC
EXTRN	??_7type_info@@6B@:QWORD			; type_info::`vftable'
EXTRN	?lMsg@@3VMessage@@A:BYTE			; lMsg
EXTRN	?gObj@@3PAUOBJECTSTRUCT@@A:DWORD		; gObj
EXTRN	?g_CrywolfNPC_Altar@@3VCCrywolfAltar@@A:BYTE	; g_CrywolfNPC_Altar
EXTRN	___security_cookie:DWORD
_BSS	SEGMENT
?g_CrywolfNPC_Statue@@3VCCrywolfStatue@@A DB 014H DUP (?) ; g_CrywolfNPC_Statue
?UTIL@@3VCCrywolfUtil@@A DD 01H DUP (?)			; UTIL
_BSS	ENDS
CRT$XCU	SEGMENT
?UTIL$initializer$@@3P6AXXZA DD FLAT:??__EUTIL@@YAXXZ	; UTIL$initializer$
CRT$XCU	ENDS
;	COMDAT ??_R1A@?0A@EA@CCrywolfStatue@@8
rdata$r	SEGMENT
??_R1A@?0A@EA@CCrywolfStatue@@8 DD FLAT:??_R0?AVCCrywolfStatue@@@8 ; CCrywolfStatue::`RTTI Base Class Descriptor at (0,-1,0,64)'
	DD	00H
	DD	00H
	DD	0ffffffffH
	DD	00H
	DD	040H
	DD	FLAT:??_R3CCrywolfStatue@@8
rdata$r	ENDS
;	COMDAT ??_R2CCrywolfStatue@@8
rdata$r	SEGMENT
??_R2CCrywolfStatue@@8 DD FLAT:??_R1A@?0A@EA@CCrywolfStatue@@8 ; CCrywolfStatue::`RTTI Base Class Array'
rdata$r	ENDS
;	COMDAT ??_R3CCrywolfStatue@@8
rdata$r	SEGMENT
??_R3CCrywolfStatue@@8 DD 00H				; CCrywolfStatue::`RTTI Class Hierarchy Descriptor'
	DD	00H
	DD	01H
	DD	FLAT:??_R2CCrywolfStatue@@8
rdata$r	ENDS
;	COMDAT ??_R0?AVCCrywolfStatue@@@8
data$r	SEGMENT
??_R0?AVCCrywolfStatue@@@8 DD FLAT:??_7type_info@@6B@	; CCrywolfStatue `RTTI Type Descriptor'
	DD	00H
	DB	'.?AVCCrywolfStatue@@', 00H
data$r	ENDS
;	COMDAT ??_R4CCrywolfStatue@@6B@
rdata$r	SEGMENT
??_R4CCrywolfStatue@@6B@ DD 00H				; CCrywolfStatue::`RTTI Complete Object Locator'
	DD	00H
	DD	00H
	DD	FLAT:??_R0?AVCCrywolfStatue@@@8
	DD	FLAT:??_R3CCrywolfStatue@@8
rdata$r	ENDS
;	COMDAT ??_7CCrywolfStatue@@6B@
CONST	SEGMENT
??_7CCrywolfStatue@@6B@ DD FLAT:??_R4CCrywolfStatue@@6B@ ; CCrywolfStatue::`vftable'
	DD	FLAT:??_ECCrywolfStatue@@UAEPAXI@Z
CONST	ENDS
;	COMDAT xdata$x
xdata$x	SEGMENT
__ehfuncinfo$??_EOBJECTSTRUCT@@QAEPAXI@Z DD 019930522H
	DD	00H
	DD	00H
	DD	2 DUP(00H)
	DD	2 DUP(00H)
	DD	00H
	DD	05H
xdata$x	ENDS
CRT$XCU	SEGMENT
?g_CrywolfNPC_Statue$initializer$@@3P6AXXZA DD FLAT:??__Eg_CrywolfNPC_Statue@@YAXXZ ; g_CrywolfNPC_Statue$initializer$
CRT$XCU	ENDS
; Function compile flags: /Ogtp
;	COMDAT ??__Fg_CrywolfNPC_Statue@@YAXXZ
text$yd	SEGMENT
??__Fg_CrywolfNPC_Statue@@YAXXZ PROC			; `dynamic atexit destructor for 'g_CrywolfNPC_Statue'', COMDAT
  00000	b9 00 00 00 00	 mov	 ecx, OFFSET ?g_CrywolfNPC_Statue@@3VCCrywolfStatue@@A ; g_CrywolfNPC_Statue
  00005	e9 00 00 00 00	 jmp	 ??1CCrywolfStatue@@UAE@XZ ; CCrywolfStatue::~CCrywolfStatue
??__Fg_CrywolfNPC_Statue@@YAXXZ ENDP			; `dynamic atexit destructor for 'g_CrywolfNPC_Statue''
text$yd	ENDS
; Function compile flags: /Ogtp
; File c:\users\michel\desktop\source\gameserver\source\crywolfstatue.cpp
;	COMDAT ??__Eg_CrywolfNPC_Statue@@YAXXZ
text$di	SEGMENT
??__Eg_CrywolfNPC_Statue@@YAXXZ PROC			; `dynamic initializer for 'g_CrywolfNPC_Statue'', COMDAT

; 14   : CCrywolfStatue g_CrywolfNPC_Statue;

  00000	b9 00 00 00 00	 mov	 ecx, OFFSET ?g_CrywolfNPC_Statue@@3VCCrywolfStatue@@A ; g_CrywolfNPC_Statue
  00005	e8 00 00 00 00	 call	 ??0CCrywolfStatue@@QAE@XZ ; CCrywolfStatue::CCrywolfStatue
  0000a	68 00 00 00 00	 push	 OFFSET ??__Fg_CrywolfNPC_Statue@@YAXXZ ; `dynamic atexit destructor for 'g_CrywolfNPC_Statue''
  0000f	e8 00 00 00 00	 call	 _atexit
  00014	59		 pop	 ecx
  00015	c3		 ret	 0
??__Eg_CrywolfNPC_Statue@@YAXXZ ENDP			; `dynamic initializer for 'g_CrywolfNPC_Statue''
text$di	ENDS
; Function compile flags: /Ogtp
;	COMDAT ??__FUTIL@@YAXXZ
text$yd	SEGMENT
??__FUTIL@@YAXXZ PROC					; `dynamic atexit destructor for 'UTIL'', COMDAT
  00000	b9 00 00 00 00	 mov	 ecx, OFFSET ?UTIL@@3VCCrywolfUtil@@A
  00005	e9 00 00 00 00	 jmp	 ??1CCrywolfUtil@@UAE@XZ	; CCrywolfUtil::~CCrywolfUtil
??__FUTIL@@YAXXZ ENDP					; `dynamic atexit destructor for 'UTIL''
text$yd	ENDS
; Function compile flags: /Ogtp
; File c:\users\michel\desktop\source\gameserver\source\crywolfstatue.cpp
;	COMDAT ??__EUTIL@@YAXXZ
text$di	SEGMENT
??__EUTIL@@YAXXZ PROC					; `dynamic initializer for 'UTIL'', COMDAT

; 13   : static CCrywolfUtil UTIL;

  00000	b9 00 00 00 00	 mov	 ecx, OFFSET ?UTIL@@3VCCrywolfUtil@@A
  00005	e8 00 00 00 00	 call	 ??0CCrywolfUtil@@QAE@XZ	; CCrywolfUtil::CCrywolfUtil
  0000a	68 00 00 00 00	 push	 OFFSET ??__FUTIL@@YAXXZ	; `dynamic atexit destructor for 'UTIL''
  0000f	e8 00 00 00 00	 call	 _atexit
  00014	59		 pop	 ecx
  00015	c3		 ret	 0
??__EUTIL@@YAXXZ ENDP					; `dynamic initializer for 'UTIL''
text$di	ENDS
; Function compile flags: /Ogtp
;	COMDAT ??_GCCrywolfStatue@@UAEPAXI@Z
_TEXT	SEGMENT
___flags$ = 8						; size = 4
??_GCCrywolfStatue@@UAEPAXI@Z PROC			; CCrywolfStatue::`scalar deleting destructor', COMDAT
; _this$ = ecx
  00000	55		 push	 ebp
  00001	8b ec		 mov	 ebp, esp
  00003	56		 push	 esi
  00004	8b f1		 mov	 esi, ecx
  00006	e8 00 00 00 00	 call	 ??1CCrywolfStatue@@UAE@XZ ; CCrywolfStatue::~CCrywolfStatue
  0000b	f6 45 08 01	 test	 BYTE PTR ___flags$[ebp], 1
  0000f	74 0b		 je	 SHORT $LN4@scalar
  00011	6a 14		 push	 20			; 00000014H
  00013	56		 push	 esi
  00014	e8 00 00 00 00	 call	 ??3@YAXPAXI@Z		; operator delete
  00019	83 c4 08	 add	 esp, 8
$LN4@scalar:
  0001c	8b c6		 mov	 eax, esi
  0001e	5e		 pop	 esi
  0001f	5d		 pop	 ebp
  00020	c2 04 00	 ret	 4
??_GCCrywolfStatue@@UAEPAXI@Z ENDP			; CCrywolfStatue::`scalar deleting destructor'
_TEXT	ENDS
; Function compile flags: /Ogtp
; File c:\users\michel\desktop\source\gameserver\source\crywolfstatue.cpp
;	COMDAT ?SetStatueViewState@CCrywolfStatue@@QAEXPAUOBJECTSTRUCT@@H@Z
_TEXT	SEGMENT
_lpObj$ = 8						; size = 4
_iPriestNumber$ = 12					; size = 4
?SetStatueViewState@CCrywolfStatue@@QAEXPAUOBJECTSTRUCT@@H@Z PROC ; CCrywolfStatue::SetStatueViewState, COMDAT
; _this$ = ecx

; 61   : {

  00000	55		 push	 ebp
  00001	8b ec		 mov	 ebp, esp

; 62   : 	switch( iPriestNumber )

  00003	8b 45 0c	 mov	 eax, DWORD PTR _iPriestNumber$[ebp]
  00006	48		 dec	 eax
  00007	83 f8 04	 cmp	 eax, 4
  0000a	0f 87 8a 00 00
	00		 ja	 $LN2@SetStatueV
  00010	ff 24 85 00 00
	00 00		 jmp	 DWORD PTR $LN12@SetStatueV[eax*4]
$LN4@SetStatueV:

; 63   : 	{
; 64   : 	case 1:
; 65   : 		gObjAddBuffEffect(lpObj,BUFF_CRYWOLF_STATUS1,0,0,0,0,-10);

  00017	6a f6		 push	 -10			; fffffff6H
  00019	6a 00		 push	 0
  0001b	6a 00		 push	 0
  0001d	6a 00		 push	 0
  0001f	6a 00		 push	 0
  00021	6a 42		 push	 66			; 00000042H

; 75   : 		break;
; 76   : 	case 5:
; 77   : 		gObjAddBuffEffect(lpObj,BUFF_CRYWOLF_STATUS5,0,0,0,0,-10);

  00023	ff 75 08	 push	 DWORD PTR _lpObj$[ebp]
  00026	e8 00 00 00 00	 call	 ?gObjAddBuffEffect@@YA_NPAUOBJECTSTRUCT@@HEHEHH@Z ; gObjAddBuffEffect
  0002b	83 c4 1c	 add	 esp, 28			; 0000001cH

; 78   : 		break;
; 79   : 	}
; 80   : }

  0002e	5d		 pop	 ebp
  0002f	c2 08 00	 ret	 8
$LN5@SetStatueV:

; 66   : 		break;
; 67   : 	case 2:
; 68   : 		gObjAddBuffEffect(lpObj,BUFF_CRYWOLF_STATUS2,0,0,0,0,-10);

  00032	6a f6		 push	 -10			; fffffff6H
  00034	6a 00		 push	 0
  00036	6a 00		 push	 0
  00038	6a 00		 push	 0
  0003a	6a 00		 push	 0
  0003c	6a 43		 push	 67			; 00000043H

; 75   : 		break;
; 76   : 	case 5:
; 77   : 		gObjAddBuffEffect(lpObj,BUFF_CRYWOLF_STATUS5,0,0,0,0,-10);

  0003e	ff 75 08	 push	 DWORD PTR _lpObj$[ebp]
  00041	e8 00 00 00 00	 call	 ?gObjAddBuffEffect@@YA_NPAUOBJECTSTRUCT@@HEHEHH@Z ; gObjAddBuffEffect
  00046	83 c4 1c	 add	 esp, 28			; 0000001cH

; 78   : 		break;
; 79   : 	}
; 80   : }

  00049	5d		 pop	 ebp
  0004a	c2 08 00	 ret	 8
$LN6@SetStatueV:

; 69   : 		break;
; 70   : 	case 3:
; 71   : 		gObjAddBuffEffect(lpObj,BUFF_CRYWOLF_STATUS3,0,0,0,0,-10);

  0004d	6a f6		 push	 -10			; fffffff6H
  0004f	6a 00		 push	 0
  00051	6a 00		 push	 0
  00053	6a 00		 push	 0
  00055	6a 00		 push	 0
  00057	6a 44		 push	 68			; 00000044H

; 75   : 		break;
; 76   : 	case 5:
; 77   : 		gObjAddBuffEffect(lpObj,BUFF_CRYWOLF_STATUS5,0,0,0,0,-10);

  00059	ff 75 08	 push	 DWORD PTR _lpObj$[ebp]
  0005c	e8 00 00 00 00	 call	 ?gObjAddBuffEffect@@YA_NPAUOBJECTSTRUCT@@HEHEHH@Z ; gObjAddBuffEffect
  00061	83 c4 1c	 add	 esp, 28			; 0000001cH

; 78   : 		break;
; 79   : 	}
; 80   : }

  00064	5d		 pop	 ebp
  00065	c2 08 00	 ret	 8
$LN7@SetStatueV:

; 72   : 		break;
; 73   : 	case 4:
; 74   : 		gObjAddBuffEffect(lpObj,BUFF_CRYWOLF_STATUS4,0,0,0,0,-10);

  00068	6a f6		 push	 -10			; fffffff6H
  0006a	6a 00		 push	 0
  0006c	6a 00		 push	 0
  0006e	6a 00		 push	 0
  00070	6a 00		 push	 0
  00072	6a 45		 push	 69			; 00000045H

; 75   : 		break;
; 76   : 	case 5:
; 77   : 		gObjAddBuffEffect(lpObj,BUFF_CRYWOLF_STATUS5,0,0,0,0,-10);

  00074	ff 75 08	 push	 DWORD PTR _lpObj$[ebp]
  00077	e8 00 00 00 00	 call	 ?gObjAddBuffEffect@@YA_NPAUOBJECTSTRUCT@@HEHEHH@Z ; gObjAddBuffEffect
  0007c	83 c4 1c	 add	 esp, 28			; 0000001cH

; 78   : 		break;
; 79   : 	}
; 80   : }

  0007f	5d		 pop	 ebp
  00080	c2 08 00	 ret	 8
$LN8@SetStatueV:

; 75   : 		break;
; 76   : 	case 5:
; 77   : 		gObjAddBuffEffect(lpObj,BUFF_CRYWOLF_STATUS5,0,0,0,0,-10);

  00083	6a f6		 push	 -10			; fffffff6H
  00085	6a 00		 push	 0
  00087	6a 00		 push	 0
  00089	6a 00		 push	 0
  0008b	6a 00		 push	 0
  0008d	6a 46		 push	 70			; 00000046H
  0008f	ff 75 08	 push	 DWORD PTR _lpObj$[ebp]
  00092	e8 00 00 00 00	 call	 ?gObjAddBuffEffect@@YA_NPAUOBJECTSTRUCT@@HEHEHH@Z ; gObjAddBuffEffect
  00097	83 c4 1c	 add	 esp, 28			; 0000001cH
$LN2@SetStatueV:

; 78   : 		break;
; 79   : 	}
; 80   : }

  0009a	5d		 pop	 ebp
  0009b	c2 08 00	 ret	 8
  0009e	66 90		 npad	 2
$LN12@SetStatueV:
  000a0	00 00 00 00	 DD	 $LN4@SetStatueV
  000a4	00 00 00 00	 DD	 $LN5@SetStatueV
  000a8	00 00 00 00	 DD	 $LN6@SetStatueV
  000ac	00 00 00 00	 DD	 $LN7@SetStatueV
  000b0	00 00 00 00	 DD	 $LN8@SetStatueV
?SetStatueViewState@CCrywolfStatue@@QAEXPAUOBJECTSTRUCT@@H@Z ENDP ; CCrywolfStatue::SetStatueViewState
_TEXT	ENDS
; Function compile flags: /Ogtp
; File c:\users\michel\desktop\source\gameserver\source\crywolfstatue.cpp
;	COMDAT ?GetStatueViewState@CCrywolfStatue@@QAEHH@Z
_TEXT	SEGMENT
_iPriestNumber$ = 8					; size = 4
?GetStatueViewState@CCrywolfStatue@@QAEHH@Z PROC	; CCrywolfStatue::GetStatueViewState, COMDAT
; _this$ = ecx

; 32   : {

  00000	55		 push	 ebp
  00001	8b ec		 mov	 ebp, esp

; 33   : 	int iViewState = 0;
; 34   : 
; 35   : 	switch ( iPriestNumber )

  00003	8b 4d 08	 mov	 ecx, DWORD PTR _iPriestNumber$[ebp]
  00006	33 c0		 xor	 eax, eax
  00008	83 f9 05	 cmp	 ecx, 5
  0000b	77 36		 ja	 SHORT $LN2@GetStatueV
  0000d	ff 24 8d 00 00
	00 00		 jmp	 DWORD PTR $LN12@GetStatueV[ecx*4]
$LN4@GetStatueV:

; 36   : 	{
; 37   : 		case 0:
; 38   : 			iViewState = 0;

  00014	33 c0		 xor	 eax, eax

; 54   : 			break;
; 55   : 	}
; 56   : 
; 57   : 	return iViewState;
; 58   : }

  00016	5d		 pop	 ebp
  00017	c2 04 00	 ret	 4
$LN5@GetStatueV:

; 39   : 			break;
; 40   : 		case 1:
; 41   : 			iViewState = 1;

  0001a	b8 01 00 00 00	 mov	 eax, 1

; 54   : 			break;
; 55   : 	}
; 56   : 
; 57   : 	return iViewState;
; 58   : }

  0001f	5d		 pop	 ebp
  00020	c2 04 00	 ret	 4
$LN6@GetStatueV:

; 42   : 			break;
; 43   : 		case 2:
; 44   : 			iViewState = 2;

  00023	b8 02 00 00 00	 mov	 eax, 2

; 54   : 			break;
; 55   : 	}
; 56   : 
; 57   : 	return iViewState;
; 58   : }

  00028	5d		 pop	 ebp
  00029	c2 04 00	 ret	 4
$LN7@GetStatueV:

; 45   : 			break;
; 46   : 		case 3:
; 47   : 			iViewState = 4;

  0002c	b8 04 00 00 00	 mov	 eax, 4

; 54   : 			break;
; 55   : 	}
; 56   : 
; 57   : 	return iViewState;
; 58   : }

  00031	5d		 pop	 ebp
  00032	c2 04 00	 ret	 4
$LN8@GetStatueV:

; 48   : 			break;
; 49   : 		case 4:
; 50   : 			iViewState = 8;

  00035	b8 08 00 00 00	 mov	 eax, 8

; 54   : 			break;
; 55   : 	}
; 56   : 
; 57   : 	return iViewState;
; 58   : }

  0003a	5d		 pop	 ebp
  0003b	c2 04 00	 ret	 4
$LN9@GetStatueV:

; 51   : 			break;
; 52   : 		case 5:
; 53   : 			iViewState = 256;

  0003e	b8 00 01 00 00	 mov	 eax, 256		; 00000100H
$LN2@GetStatueV:

; 54   : 			break;
; 55   : 	}
; 56   : 
; 57   : 	return iViewState;
; 58   : }

  00043	5d		 pop	 ebp
  00044	c2 04 00	 ret	 4
  00047	90		 npad	 1
$LN12@GetStatueV:
  00048	00 00 00 00	 DD	 $LN4@GetStatueV
  0004c	00 00 00 00	 DD	 $LN5@GetStatueV
  00050	00 00 00 00	 DD	 $LN6@GetStatueV
  00054	00 00 00 00	 DD	 $LN7@GetStatueV
  00058	00 00 00 00	 DD	 $LN8@GetStatueV
  0005c	00 00 00 00	 DD	 $LN9@GetStatueV
?GetStatueViewState@CCrywolfStatue@@QAEHH@Z ENDP	; CCrywolfStatue::GetStatueViewState
_TEXT	ENDS
; Function compile flags: /Ogtp
; File c:\users\michel\desktop\source\gameserver\source\crywolfstatue.cpp
;	COMDAT ?CrywolfStatueAct@CCrywolfStatue@@QAEXH@Z
_TEXT	SEGMENT
_iPriestMaxHPSum$1$ = -4				; size = 4
_iPriestHPSum$1$ = 8					; size = 4
_iIndex$ = 8						; size = 4
?CrywolfStatueAct@CCrywolfStatue@@QAEXH@Z PROC		; CCrywolfStatue::CrywolfStatueAct, COMDAT
; _this$ = ecx

; 84   : {

  00000	55		 push	 ebp
  00001	8b ec		 mov	 ebp, esp
  00003	51		 push	 ecx
  00004	56		 push	 esi
  00005	57		 push	 edi

; 85   : 	if ( !gObjIsConnected(iIndex))

  00006	8b 7d 08	 mov	 edi, DWORD PTR _iIndex$[ebp]
  00009	8b f1		 mov	 esi, ecx
  0000b	57		 push	 edi
  0000c	e8 00 00 00 00	 call	 ?gObjIsConnected@@YAHH@Z ; gObjIsConnected
  00011	83 c4 04	 add	 esp, 4
  00014	85 c0		 test	 eax, eax
  00016	0f 84 65 01 00
	00		 je	 $LN10@CrywolfSta

; 86   : 		return;
; 87   : 
; 88   : 	if ( gObj[iIndex].Type != OBJ_NPC || CHECK_CLASS(204, gObj[iIndex].Class) == FALSE )

  0001c	53		 push	 ebx
  0001d	69 df 40 27 00
	00		 imul	 ebx, edi, 10048
  00023	03 1d 00 00 00
	00		 add	 ebx, DWORD PTR ?gObj@@3PAUOBJECTSTRUCT@@A ; gObj
  00029	80 7b 50 03	 cmp	 BYTE PTR [ebx+80], 3
  0002d	0f 85 4d 01 00
	00		 jne	 $LN15@CrywolfSta
  00033	b8 cc 00 00 00	 mov	 eax, 204		; 000000ccH
  00038	66 3b 83 90 00
	00 00		 cmp	 ax, WORD PTR [ebx+144]
  0003f	0f 85 3b 01 00
	00		 jne	 $LN15@CrywolfSta

; 89   : 		return;
; 90   : 
; 91   : 	LPOBJ lpObj = &gObj[iIndex];
; 92   : 	int iContractedAlterCount = g_CrywolfNPC_Altar.GetContractedAltarCount();

  00045	b9 00 00 00 00	 mov	 ecx, OFFSET ?g_CrywolfNPC_Altar@@3VCCrywolfAltar@@A ; g_CrywolfNPC_Altar
  0004a	e8 00 00 00 00	 call	 ?GetContractedAltarCount@CCrywolfAltar@@QAEHXZ ; CCrywolfAltar::GetContractedAltarCount

; 93   : 	int iPriestHPSum = g_CrywolfNPC_Altar.GetPriestHPSum();

  0004f	b9 00 00 00 00	 mov	 ecx, OFFSET ?g_CrywolfNPC_Altar@@3VCCrywolfAltar@@A ; g_CrywolfNPC_Altar
  00054	8b f8		 mov	 edi, eax
  00056	e8 00 00 00 00	 call	 ?GetPriestHPSum@CCrywolfAltar@@QAEHXZ ; CCrywolfAltar::GetPriestHPSum

; 94   : 	int iPriestMaxHPSum = g_CrywolfNPC_Altar.GetPriestMaxHPSum();

  0005b	b9 00 00 00 00	 mov	 ecx, OFFSET ?g_CrywolfNPC_Altar@@3VCCrywolfAltar@@A ; g_CrywolfNPC_Altar
  00060	89 45 08	 mov	 DWORD PTR _iPriestHPSum$1$[ebp], eax
  00063	e8 00 00 00 00	 call	 ?GetPriestMaxHPSum@CCrywolfAltar@@QAEHXZ ; CCrywolfAltar::GetPriestMaxHPSum
  00068	89 45 fc	 mov	 DWORD PTR _iPriestMaxHPSum$1$[ebp], eax

; 95   : 
; 96   : 	if ( iContractedAlterCount == 0 || this->m_Shield.m_iShieldHP == 0 )

  0006b	85 ff		 test	 edi, edi
  0006d	74 7d		 je	 SHORT $LN7@CrywolfSta
  0006f	83 7e 08 00	 cmp	 DWORD PTR [esi+8], 0
  00073	74 77		 je	 SHORT $LN7@CrywolfSta

; 117  : 		}
; 118  : 
; 119  : 		return;
; 120  : 	}
; 121  : 	else if ( this->m_Shield.m_iShieldState == 0 )

  00075	83 7e 0c 00	 cmp	 DWORD PTR [esi+12], 0
  00079	75 21		 jne	 SHORT $LN11@CrywolfSta

; 122  : 	{
; 123  : 		UTIL.SendCrywolfUserAnyMsg(2, lMsg.Get(MSGGET(13, 7)));

  0007b	68 07 0d 00 00	 push	 3335			; 00000d07H
  00080	b9 00 00 00 00	 mov	 ecx, OFFSET ?lMsg@@3VMessage@@A ; lMsg
  00085	e8 00 00 00 00	 call	 ?Get@Message@@QAEPADH@Z	; Message::Get
  0008a	50		 push	 eax
  0008b	6a 02		 push	 2
  0008d	68 00 00 00 00	 push	 OFFSET ?UTIL@@3VCCrywolfUtil@@A
  00092	e8 00 00 00 00	 call	 ?SendCrywolfUserAnyMsg@CCrywolfUtil@@QAAXHPADZZ ; CCrywolfUtil::SendCrywolfUserAnyMsg
  00097	83 c4 0c	 add	 esp, 12			; 0000000cH

; 124  : 		
; 125  : 		SetStatueViewState(lpObj,iContractedAlterCount);

  0009a	eb 28		 jmp	 SHORT $LN16@CrywolfSta
$LN11@CrywolfSta:

; 126  : 	}
; 127  : 	else if ( this->m_Shield.m_iPriestNumber != iContractedAlterCount )

  0009c	39 7e 10	 cmp	 DWORD PTR [esi+16], edi
  0009f	74 2c		 je	 SHORT $LN13@CrywolfSta

; 128  : 	{
; 129  : 		UTIL.SendCrywolfUserAnyMsg(2, lMsg.Get(MSGGET(13, 6)), iContractedAlterCount, iPriestHPSum);

  000a1	ff 75 08	 push	 DWORD PTR _iPriestHPSum$1$[ebp]
  000a4	b9 00 00 00 00	 mov	 ecx, OFFSET ?lMsg@@3VMessage@@A ; lMsg
  000a9	57		 push	 edi
  000aa	68 06 0d 00 00	 push	 3334			; 00000d06H
  000af	e8 00 00 00 00	 call	 ?Get@Message@@QAEPADH@Z	; Message::Get
  000b4	50		 push	 eax
  000b5	6a 02		 push	 2
  000b7	68 00 00 00 00	 push	 OFFSET ?UTIL@@3VCCrywolfUtil@@A
  000bc	e8 00 00 00 00	 call	 ?SendCrywolfUserAnyMsg@CCrywolfUtil@@QAAXHPADZZ ; CCrywolfUtil::SendCrywolfUserAnyMsg
  000c1	83 c4 14	 add	 esp, 20			; 00000014H
$LN16@CrywolfSta:

; 130  : 		
; 131  : 		SetStatueViewState(lpObj,iContractedAlterCount);

  000c4	57		 push	 edi
  000c5	53		 push	 ebx
  000c6	8b ce		 mov	 ecx, esi
  000c8	e8 00 00 00 00	 call	 ?SetStatueViewState@CCrywolfStatue@@QAEXPAUOBJECTSTRUCT@@H@Z ; CCrywolfStatue::SetStatueViewState
$LN13@CrywolfSta:

; 132  : 	}
; 133  : 
; 134  : 	this->m_Shield.m_iShieldState = 1;
; 135  : 	this->m_Shield.m_iShieldHP = iPriestHPSum;

  000cd	8b 45 08	 mov	 eax, DWORD PTR _iPriestHPSum$1$[ebp]

; 136  : 	this->m_Shield.m_iShieldMaxHP = iPriestMaxHPSum;

  000d0	8b 4d fc	 mov	 ecx, DWORD PTR _iPriestMaxHPSum$1$[ebp]
  000d3	5b		 pop	 ebx

; 137  : 	this->m_Shield.m_iPriestNumber = iContractedAlterCount;

  000d4	89 7e 10	 mov	 DWORD PTR [esi+16], edi
  000d7	5f		 pop	 edi
  000d8	c7 46 0c 01 00
	00 00		 mov	 DWORD PTR [esi+12], 1
  000df	89 46 08	 mov	 DWORD PTR [esi+8], eax
  000e2	89 4e 04	 mov	 DWORD PTR [esi+4], ecx
  000e5	5e		 pop	 esi

; 138  : }

  000e6	8b e5		 mov	 esp, ebp
  000e8	5d		 pop	 ebp
  000e9	c2 04 00	 ret	 4
$LN7@CrywolfSta:

; 97   : 	{
; 98   : 		if ( this->m_Shield.m_iShieldState == 1 )

  000ec	83 7e 0c 01	 cmp	 DWORD PTR [esi+12], 1
  000f0	75 49		 jne	 SHORT $LN8@CrywolfSta

; 99   : 		{
; 100  : 			UTIL.SendCrywolfUserAnyMsg(2, lMsg.Get(MSGGET(13, 5)));

  000f2	68 05 0d 00 00	 push	 3333			; 00000d05H
  000f7	b9 00 00 00 00	 mov	 ecx, OFFSET ?lMsg@@3VMessage@@A ; lMsg
  000fc	e8 00 00 00 00	 call	 ?Get@Message@@QAEPADH@Z	; Message::Get
  00101	50		 push	 eax
  00102	6a 02		 push	 2
  00104	68 00 00 00 00	 push	 OFFSET ?UTIL@@3VCCrywolfUtil@@A
  00109	e8 00 00 00 00	 call	 ?SendCrywolfUserAnyMsg@CCrywolfUtil@@QAAXHPADZZ ; CCrywolfUtil::SendCrywolfUserAnyMsg
  0010e	83 c4 0c	 add	 esp, 12			; 0000000cH

; 101  : 			this->m_Shield.m_iShieldState = 0;

  00111	c7 46 0c 00 00
	00 00		 mov	 DWORD PTR [esi+12], 0

; 115  : 			
; 116  : 			SetStatueViewState(lpObj,iContractedAlterCount);

  00118	8b ce		 mov	 ecx, esi
  0011a	c7 46 08 00 00
	00 00		 mov	 DWORD PTR [esi+8], 0
  00121	c7 46 04 00 00
	00 00		 mov	 DWORD PTR [esi+4], 0
  00128	89 7e 10	 mov	 DWORD PTR [esi+16], edi
  0012b	57		 push	 edi
  0012c	53		 push	 ebx
  0012d	e8 00 00 00 00	 call	 ?SetStatueViewState@CCrywolfStatue@@QAEXPAUOBJECTSTRUCT@@H@Z ; CCrywolfStatue::SetStatueViewState
  00132	5b		 pop	 ebx
  00133	5f		 pop	 edi
  00134	5e		 pop	 esi

; 138  : }

  00135	8b e5		 mov	 esp, ebp
  00137	5d		 pop	 ebp
  00138	c2 04 00	 ret	 4
$LN8@CrywolfSta:

; 102  : 			this->m_Shield.m_iShieldHP = 0;
; 103  : 			this->m_Shield.m_iShieldMaxHP = 0;
; 104  : 			this->m_Shield.m_iPriestNumber = iContractedAlterCount;
; 105  : 
; 106  : 			SetStatueViewState(lpObj,iContractedAlterCount);
; 107  : 		}
; 108  : 		else if ( this->m_Shield.m_iPriestNumber != iContractedAlterCount )

  0013b	39 7e 10	 cmp	 DWORD PTR [esi+16], edi
  0013e	74 40		 je	 SHORT $LN15@CrywolfSta

; 109  : 		{
; 110  : 			this->m_Shield.m_iShieldState = 1;
; 111  : 			this->m_Shield.m_iShieldHP = iPriestHPSum;

  00140	8b 45 08	 mov	 eax, DWORD PTR _iPriestHPSum$1$[ebp]

; 112  : 			this->m_Shield.m_iShieldMaxHP = iPriestMaxHPSum;

  00143	8b 4d fc	 mov	 ecx, DWORD PTR _iPriestMaxHPSum$1$[ebp]

; 113  : 			this->m_Shield.m_iPriestNumber = iContractedAlterCount;
; 114  : 			UTIL.SendCrywolfUserAnyMsg(2, lMsg.Get(MSGGET(13, 6)), iContractedAlterCount, iPriestHPSum);

  00146	50		 push	 eax
  00147	57		 push	 edi
  00148	89 4e 04	 mov	 DWORD PTR [esi+4], ecx
  0014b	b9 00 00 00 00	 mov	 ecx, OFFSET ?lMsg@@3VMessage@@A ; lMsg
  00150	68 06 0d 00 00	 push	 3334			; 00000d06H
  00155	c7 46 0c 01 00
	00 00		 mov	 DWORD PTR [esi+12], 1
  0015c	89 46 08	 mov	 DWORD PTR [esi+8], eax
  0015f	89 7e 10	 mov	 DWORD PTR [esi+16], edi
  00162	e8 00 00 00 00	 call	 ?Get@Message@@QAEPADH@Z	; Message::Get
  00167	50		 push	 eax
  00168	6a 02		 push	 2
  0016a	68 00 00 00 00	 push	 OFFSET ?UTIL@@3VCCrywolfUtil@@A
  0016f	e8 00 00 00 00	 call	 ?SendCrywolfUserAnyMsg@CCrywolfUtil@@QAAXHPADZZ ; CCrywolfUtil::SendCrywolfUserAnyMsg
  00174	83 c4 14	 add	 esp, 20			; 00000014H

; 115  : 			
; 116  : 			SetStatueViewState(lpObj,iContractedAlterCount);

  00177	8b ce		 mov	 ecx, esi
  00179	57		 push	 edi
  0017a	53		 push	 ebx
  0017b	e8 00 00 00 00	 call	 ?SetStatueViewState@CCrywolfStatue@@QAEXPAUOBJECTSTRUCT@@H@Z ; CCrywolfStatue::SetStatueViewState
$LN15@CrywolfSta:
  00180	5b		 pop	 ebx
$LN10@CrywolfSta:
  00181	5f		 pop	 edi
  00182	5e		 pop	 esi

; 138  : }

  00183	8b e5		 mov	 esp, ebp
  00185	5d		 pop	 ebp
  00186	c2 04 00	 ret	 4
?CrywolfStatueAct@CCrywolfStatue@@QAEXH@Z ENDP		; CCrywolfStatue::CrywolfStatueAct
_TEXT	ENDS
; Function compile flags: /Ogtp
; File c:\users\michel\desktop\source\gameserver\source\crywolfstatue.cpp
;	COMDAT ??1CCrywolfStatue@@UAE@XZ
_TEXT	SEGMENT
??1CCrywolfStatue@@UAE@XZ PROC				; CCrywolfStatue::~CCrywolfStatue, COMDAT
; _this$ = ecx

; 25   : {

  00000	c7 01 00 00 00
	00		 mov	 DWORD PTR [ecx], OFFSET ??_7CCrywolfStatue@@6B@

; 26   : 
; 27   : }

  00006	c3		 ret	 0
??1CCrywolfStatue@@UAE@XZ ENDP				; CCrywolfStatue::~CCrywolfStatue
_TEXT	ENDS
; Function compile flags: /Ogtp
; File c:\users\michel\desktop\source\gameserver\source\crywolfstatue.cpp
; File c:\users\michel\desktop\source\gameserver\source\crywolfstatue.h
; File c:\users\michel\desktop\source\gameserver\source\crywolfstatue.cpp
;	COMDAT ??0CCrywolfStatue@@QAE@XZ
_TEXT	SEGMENT
??0CCrywolfStatue@@QAE@XZ PROC				; CCrywolfStatue::CCrywolfStatue, COMDAT
; _this$ = ecx

; 20   : {

  00000	c7 01 00 00 00
	00		 mov	 DWORD PTR [ecx], OFFSET ??_7CCrywolfStatue@@6B@

; 22   : }

  00006	8b c1		 mov	 eax, ecx
; File c:\users\michel\desktop\source\gameserver\source\crywolfstatue.h

; 26   : 		this->m_iPriestNumber = 0;

  00008	c7 41 10 00 00
	00 00		 mov	 DWORD PTR [ecx+16], 0

; 27   : 		this->m_iShieldHP = 0;	

  0000f	c7 41 08 00 00
	00 00		 mov	 DWORD PTR [ecx+8], 0

; 28   : 		this->m_iShieldMaxHP = 0;	

  00016	c7 41 04 00 00
	00 00		 mov	 DWORD PTR [ecx+4], 0

; 29   : 		this->m_iShieldState = 0;	

  0001d	c7 41 0c 00 00
	00 00		 mov	 DWORD PTR [ecx+12], 0
; File c:\users\michel\desktop\source\gameserver\source\crywolfstatue.cpp

; 22   : }

  00024	c3		 ret	 0
??0CCrywolfStatue@@QAE@XZ ENDP				; CCrywolfStatue::CCrywolfStatue
_TEXT	ENDS
; Function compile flags: /Ogtp
; File c:\users\michel\desktop\source\gameserver\source\crywolfstatue.h
;	COMDAT ?Reset@CCrywolfShield@@QAEXXZ
_TEXT	SEGMENT
?Reset@CCrywolfShield@@QAEXXZ PROC			; CCrywolfShield::Reset, COMDAT
; _this$ = ecx

; 26   : 		this->m_iPriestNumber = 0;

  00000	c7 41 0c 00 00
	00 00		 mov	 DWORD PTR [ecx+12], 0

; 27   : 		this->m_iShieldHP = 0;	

  00007	c7 41 04 00 00
	00 00		 mov	 DWORD PTR [ecx+4], 0

; 28   : 		this->m_iShieldMaxHP = 0;	

  0000e	c7 01 00 00 00
	00		 mov	 DWORD PTR [ecx], 0

; 29   : 		this->m_iShieldState = 0;	

  00014	c7 41 08 00 00
	00 00		 mov	 DWORD PTR [ecx+8], 0

; 30   : 	}

  0001b	c3		 ret	 0
?Reset@CCrywolfShield@@QAEXXZ ENDP			; CCrywolfShield::Reset
_TEXT	ENDS
; Function compile flags: /Ogtp
; File c:\users\michel\desktop\source\gameserver\source\crywolfstatue.h
;	COMDAT ??0CCrywolfShield@@QAE@XZ
_TEXT	SEGMENT
??0CCrywolfShield@@QAE@XZ PROC				; CCrywolfShield::CCrywolfShield, COMDAT
; _this$ = ecx

; 23   : 
; 24   : 	void Reset()
; 25   : 	{
; 26   : 		this->m_iPriestNumber = 0;

  00000	c7 41 0c 00 00
	00 00		 mov	 DWORD PTR [ecx+12], 0

; 20   : 	{
; 21   : 		this->Reset();
; 22   : 	}

  00007	8b c1		 mov	 eax, ecx

; 27   : 		this->m_iShieldHP = 0;	

  00009	c7 41 04 00 00
	00 00		 mov	 DWORD PTR [ecx+4], 0

; 28   : 		this->m_iShieldMaxHP = 0;	

  00010	c7 01 00 00 00
	00		 mov	 DWORD PTR [ecx], 0

; 29   : 		this->m_iShieldState = 0;	

  00016	c7 41 08 00 00
	00 00		 mov	 DWORD PTR [ecx+8], 0

; 20   : 	{
; 21   : 		this->Reset();
; 22   : 	}

  0001d	c3		 ret	 0
??0CCrywolfShield@@QAE@XZ ENDP				; CCrywolfShield::CCrywolfShield
_TEXT	ENDS
; Function compile flags: /Ogtp
;	COMDAT ??_EOBJECTSTRUCT@@QAEPAXI@Z
_TEXT	SEGMENT
__$EHRec$ = -12						; size = 12
___flags$ = 8						; size = 4
??_EOBJECTSTRUCT@@QAEPAXI@Z PROC			; OBJECTSTRUCT::`vector deleting destructor', COMDAT
; _this$ = ecx
  00000	55		 push	 ebp
  00001	8b ec		 mov	 ebp, esp
  00003	6a ff		 push	 -1
  00005	68 00 00 00 00	 push	 __ehhandler$??_EOBJECTSTRUCT@@QAEPAXI@Z
  0000a	64 a1 00 00 00
	00		 mov	 eax, DWORD PTR fs:0
  00010	50		 push	 eax
  00011	53		 push	 ebx
  00012	56		 push	 esi
  00013	57		 push	 edi
  00014	a1 00 00 00 00	 mov	 eax, DWORD PTR ___security_cookie
  00019	33 c5		 xor	 eax, ebp
  0001b	50		 push	 eax
  0001c	8d 45 f4	 lea	 eax, DWORD PTR __$EHRec$[ebp]
  0001f	64 a3 00 00 00
	00		 mov	 DWORD PTR fs:0, eax
  00025	8b f1		 mov	 esi, ecx
  00027	8b 5d 08	 mov	 ebx, DWORD PTR ___flags$[ebp]
  0002a	f6 c3 02	 test	 bl, 2
  0002d	74 44		 je	 SHORT $LN2@vector
  0002f	68 00 00 00 00	 push	 OFFSET ??1OBJECTSTRUCT@@QAE@XZ
  00034	ff 76 fc	 push	 DWORD PTR [esi-4]
  00037	8d 7e fc	 lea	 edi, DWORD PTR [esi-4]
  0003a	68 40 27 00 00	 push	 10048			; 00002740H
  0003f	56		 push	 esi
  00040	e8 00 00 00 00	 call	 ??_M@YGXPAXIIP6EX0@Z@Z
  00045	f6 c3 01	 test	 bl, 1
  00048	74 13		 je	 SHORT $LN3@vector
  0004a	69 0f 40 27 00
	00		 imul	 ecx, DWORD PTR [edi], 10048
  00050	83 c1 04	 add	 ecx, 4
  00053	51		 push	 ecx
  00054	57		 push	 edi
  00055	e8 00 00 00 00	 call	 ??_V@YAXPAXI@Z		; operator delete[]
  0005a	83 c4 08	 add	 esp, 8
$LN3@vector:
  0005d	8b c7		 mov	 eax, edi
  0005f	8b 4d f4	 mov	 ecx, DWORD PTR __$EHRec$[ebp]
  00062	64 89 0d 00 00
	00 00		 mov	 DWORD PTR fs:0, ecx
  00069	59		 pop	 ecx
  0006a	5f		 pop	 edi
  0006b	5e		 pop	 esi
  0006c	5b		 pop	 ebx
  0006d	8b e5		 mov	 esp, ebp
  0006f	5d		 pop	 ebp
  00070	c2 04 00	 ret	 4
$LN2@vector:
  00073	8d 8e ec 20 00
	00		 lea	 ecx, DWORD PTR [esi+8428]
  00079	e8 00 00 00 00	 call	 ??1TMonsterAIAgro@@UAE@XZ ; TMonsterAIAgro::~TMonsterAIAgro
  0007e	8d 8e 0c 16 00
	00		 lea	 ecx, DWORD PTR [esi+5644]
  00084	e8 00 00 00 00	 call	 ??1CSkillDelay@@UAE@XZ	; CSkillDelay::~CSkillDelay
  00089	f6 c3 01	 test	 bl, 1
  0008c	74 0e		 je	 SHORT $LN4@vector
  0008e	68 40 27 00 00	 push	 10048			; 00002740H
  00093	56		 push	 esi
  00094	e8 00 00 00 00	 call	 ??3@YAXPAXI@Z		; operator delete
  00099	83 c4 08	 add	 esp, 8
$LN4@vector:
  0009c	8b c6		 mov	 eax, esi
  0009e	8b 4d f4	 mov	 ecx, DWORD PTR __$EHRec$[ebp]
  000a1	64 89 0d 00 00
	00 00		 mov	 DWORD PTR fs:0, ecx
  000a8	59		 pop	 ecx
  000a9	5f		 pop	 edi
  000aa	5e		 pop	 esi
  000ab	5b		 pop	 ebx
  000ac	8b e5		 mov	 esp, ebp
  000ae	5d		 pop	 ebp
  000af	c2 04 00	 ret	 4
_TEXT	ENDS
;	COMDAT text$x
text$x	SEGMENT
__ehhandler$??_EOBJECTSTRUCT@@QAEPAXI@Z:
  00000	8b 54 24 08	 mov	 edx, DWORD PTR [esp+8]
  00004	8d 42 0c	 lea	 eax, DWORD PTR [edx+12]
  00007	8b 4a f0	 mov	 ecx, DWORD PTR [edx-16]
  0000a	33 c8		 xor	 ecx, eax
  0000c	e8 00 00 00 00	 call	 @__security_check_cookie@4
  00011	b8 00 00 00 00	 mov	 eax, OFFSET __ehfuncinfo$??_EOBJECTSTRUCT@@QAEPAXI@Z
  00016	e9 00 00 00 00	 jmp	 ___CxxFrameHandler3
text$x	ENDS
??_EOBJECTSTRUCT@@QAEPAXI@Z ENDP			; OBJECTSTRUCT::`vector deleting destructor'
; Function compile flags: /Ogtp
;	COMDAT ??1OBJECTSTRUCT@@QAE@XZ
_TEXT	SEGMENT
??1OBJECTSTRUCT@@QAE@XZ PROC				; OBJECTSTRUCT::~OBJECTSTRUCT, COMDAT
; _this$ = ecx
  00000	56		 push	 esi
  00001	8b f1		 mov	 esi, ecx
  00003	8d 8e ec 20 00
	00		 lea	 ecx, DWORD PTR [esi+8428]
  00009	e8 00 00 00 00	 call	 ??1TMonsterAIAgro@@UAE@XZ ; TMonsterAIAgro::~TMonsterAIAgro
  0000e	8d 8e 0c 16 00
	00		 lea	 ecx, DWORD PTR [esi+5644]
  00014	5e		 pop	 esi
  00015	e9 00 00 00 00	 jmp	 ??1CSkillDelay@@UAE@XZ	; CSkillDelay::~CSkillDelay
??1OBJECTSTRUCT@@QAE@XZ ENDP				; OBJECTSTRUCT::~OBJECTSTRUCT
_TEXT	ENDS
; Function compile flags: /Ogtp
; File c:\users\michel\desktop\source\gameserver\source\crywolfstatue.cpp
;	COMDAT ?__empty_global_delete@@YAXPAXI@Z
_TEXT	SEGMENT
___formal$ = 8						; size = 4
___formal$ = 12						; size = 4
?__empty_global_delete@@YAXPAXI@Z PROC			; __empty_global_delete, COMDAT

  00000	c3		 ret	 0
?__empty_global_delete@@YAXPAXI@Z ENDP			; __empty_global_delete
_TEXT	ENDS
; Function compile flags: /Ogtp
; File c:\users\michel\desktop\source\gameserver\source\crywolfstatue.cpp
;	COMDAT ?__empty_global_delete@@YAXPAX@Z
_TEXT	SEGMENT
___formal$ = 8						; size = 4
?__empty_global_delete@@YAXPAX@Z PROC			; __empty_global_delete, COMDAT

; 139  : }

  00000	c3		 ret	 0
?__empty_global_delete@@YAXPAX@Z ENDP			; __empty_global_delete
_TEXT	ENDS
END
