; Listing generated by Microsoft (R) Optimizing Compiler Version 19.00.23506.0 

	TITLE	C:\Users\Michel\Desktop\Source\GameServer\Source\CrywolfSync.cpp
	.686P
	.XMM
	include listing.inc
	.model	flat

INCLUDELIB LIBCMT
INCLUDELIB OLDNAMES

PUBLIC	?__empty_global_delete@@YAXPAX@Z		; __empty_global_delete
PUBLIC	?__empty_global_delete@@YAXPAXI@Z		; __empty_global_delete
PUBLIC	??0CCrywolfSync@@QAE@XZ				; CCrywolfSync::CCrywolfSync
PUBLIC	??1CCrywolfSync@@UAE@XZ				; CCrywolfSync::~CCrywolfSync
PUBLIC	?CheckEnableCrywolf@CCrywolfSync@@QAEHXZ	; CCrywolfSync::CheckEnableCrywolf
PUBLIC	?SetEnableCrywolf@CCrywolfSync@@QAEXH@Z		; CCrywolfSync::SetEnableCrywolf
PUBLIC	?GetOccupationState@CCrywolfSync@@QAEHXZ	; CCrywolfSync::GetOccupationState
PUBLIC	?GetCrywolfState@CCrywolfSync@@QAEHXZ		; CCrywolfSync::GetCrywolfState
PUBLIC	?SetOccupationState@CCrywolfSync@@QAEXH@Z	; CCrywolfSync::SetOccupationState
PUBLIC	?SetCrywolfState@CCrywolfSync@@QAEXH@Z		; CCrywolfSync::SetCrywolfState
PUBLIC	?GetPlusChaosRate@CCrywolfSync@@QAEHXZ		; CCrywolfSync::GetPlusChaosRate
PUBLIC	?SetPlusChaosRate@CCrywolfSync@@QAEXH@Z		; CCrywolfSync::SetPlusChaosRate
PUBLIC	?GetGemDropPenaltiyRate@CCrywolfSync@@QAEHXZ	; CCrywolfSync::GetGemDropPenaltiyRate
PUBLIC	?SetGemDropPenaltiyRate@CCrywolfSync@@QAEXH@Z	; CCrywolfSync::SetGemDropPenaltiyRate
PUBLIC	?GetGettingExpPenaltyRate@CCrywolfSync@@QAEHXZ	; CCrywolfSync::GetGettingExpPenaltyRate
PUBLIC	?SetGettingExpPenaltyRate@CCrywolfSync@@QAEXH@Z	; CCrywolfSync::SetGettingExpPenaltyRate
PUBLIC	?GetMonHPBenefitRate@CCrywolfSync@@QAEHXZ	; CCrywolfSync::GetMonHPBenefitRate
PUBLIC	?SetMonHPBenefitRate@CCrywolfSync@@QAEXH@Z	; CCrywolfSync::SetMonHPBenefitRate
PUBLIC	?GetKundunHPRefillState@CCrywolfSync@@QAEHXZ	; CCrywolfSync::GetKundunHPRefillState
PUBLIC	?SetKundunHPRefillState@CCrywolfSync@@QAEXH@Z	; CCrywolfSync::SetKundunHPRefillState
PUBLIC	??_GCCrywolfSync@@UAEPAXI@Z			; CCrywolfSync::`scalar deleting destructor'
PUBLIC	??_7CCrywolfSync@@6B@				; CCrywolfSync::`vftable'
PUBLIC	?g_CrywolfSync@@3VCCrywolfSync@@A		; g_CrywolfSync
PUBLIC	??_R4CCrywolfSync@@6B@				; CCrywolfSync::`RTTI Complete Object Locator'
PUBLIC	??_R0?AVCCrywolfSync@@@8			; CCrywolfSync `RTTI Type Descriptor'
PUBLIC	??_R3CCrywolfSync@@8				; CCrywolfSync::`RTTI Class Hierarchy Descriptor'
PUBLIC	??_R2CCrywolfSync@@8				; CCrywolfSync::`RTTI Base Class Array'
PUBLIC	??_R1A@?0A@EA@CCrywolfSync@@8			; CCrywolfSync::`RTTI Base Class Descriptor at (0,-1,0,64)'
EXTRN	??3@YAXPAXI@Z:PROC				; operator delete
EXTRN	_atexit:PROC
EXTRN	??_ECCrywolfSync@@UAEPAXI@Z:PROC		; CCrywolfSync::`vector deleting destructor'
EXTRN	??_7type_info@@6B@:QWORD			; type_info::`vftable'
_BSS	SEGMENT
?g_CrywolfSync@@3VCCrywolfSync@@A DB 02cH DUP (?)	; g_CrywolfSync
_BSS	ENDS
CRT$XCU	SEGMENT
?g_CrywolfSync$initializer$@@3P6AXXZA DD FLAT:??__Eg_CrywolfSync@@YAXXZ ; g_CrywolfSync$initializer$
CRT$XCU	ENDS
;	COMDAT ??_R1A@?0A@EA@CCrywolfSync@@8
rdata$r	SEGMENT
??_R1A@?0A@EA@CCrywolfSync@@8 DD FLAT:??_R0?AVCCrywolfSync@@@8 ; CCrywolfSync::`RTTI Base Class Descriptor at (0,-1,0,64)'
	DD	00H
	DD	00H
	DD	0ffffffffH
	DD	00H
	DD	040H
	DD	FLAT:??_R3CCrywolfSync@@8
rdata$r	ENDS
;	COMDAT ??_R2CCrywolfSync@@8
rdata$r	SEGMENT
??_R2CCrywolfSync@@8 DD FLAT:??_R1A@?0A@EA@CCrywolfSync@@8 ; CCrywolfSync::`RTTI Base Class Array'
rdata$r	ENDS
;	COMDAT ??_R3CCrywolfSync@@8
rdata$r	SEGMENT
??_R3CCrywolfSync@@8 DD 00H				; CCrywolfSync::`RTTI Class Hierarchy Descriptor'
	DD	00H
	DD	01H
	DD	FLAT:??_R2CCrywolfSync@@8
rdata$r	ENDS
;	COMDAT ??_R0?AVCCrywolfSync@@@8
data$r	SEGMENT
??_R0?AVCCrywolfSync@@@8 DD FLAT:??_7type_info@@6B@	; CCrywolfSync `RTTI Type Descriptor'
	DD	00H
	DB	'.?AVCCrywolfSync@@', 00H
data$r	ENDS
;	COMDAT ??_R4CCrywolfSync@@6B@
rdata$r	SEGMENT
??_R4CCrywolfSync@@6B@ DD 00H				; CCrywolfSync::`RTTI Complete Object Locator'
	DD	00H
	DD	00H
	DD	FLAT:??_R0?AVCCrywolfSync@@@8
	DD	FLAT:??_R3CCrywolfSync@@8
rdata$r	ENDS
;	COMDAT ??_7CCrywolfSync@@6B@
CONST	SEGMENT
??_7CCrywolfSync@@6B@ DD FLAT:??_R4CCrywolfSync@@6B@	; CCrywolfSync::`vftable'
	DD	FLAT:??_ECCrywolfSync@@UAEPAXI@Z
CONST	ENDS
; Function compile flags: /Ogtp
;	COMDAT ??__Fg_CrywolfSync@@YAXXZ
text$yd	SEGMENT
??__Fg_CrywolfSync@@YAXXZ PROC				; `dynamic atexit destructor for 'g_CrywolfSync'', COMDAT
  00000	b9 00 00 00 00	 mov	 ecx, OFFSET ?g_CrywolfSync@@3VCCrywolfSync@@A ; g_CrywolfSync
  00005	e9 00 00 00 00	 jmp	 ??1CCrywolfSync@@UAE@XZ	; CCrywolfSync::~CCrywolfSync
??__Fg_CrywolfSync@@YAXXZ ENDP				; `dynamic atexit destructor for 'g_CrywolfSync''
text$yd	ENDS
; Function compile flags: /Ogtp
; File c:\users\michel\desktop\source\gameserver\source\crywolfsync.cpp
;	COMDAT ??__Eg_CrywolfSync@@YAXXZ
text$di	SEGMENT
??__Eg_CrywolfSync@@YAXXZ PROC				; `dynamic initializer for 'g_CrywolfSync'', COMDAT

; 9    : CCrywolfSync g_CrywolfSync;

  00000	b9 00 00 00 00	 mov	 ecx, OFFSET ?g_CrywolfSync@@3VCCrywolfSync@@A ; g_CrywolfSync
  00005	e8 00 00 00 00	 call	 ??0CCrywolfSync@@QAE@XZ	; CCrywolfSync::CCrywolfSync
  0000a	68 00 00 00 00	 push	 OFFSET ??__Fg_CrywolfSync@@YAXXZ ; `dynamic atexit destructor for 'g_CrywolfSync''
  0000f	e8 00 00 00 00	 call	 _atexit
  00014	59		 pop	 ecx
  00015	c3		 ret	 0
??__Eg_CrywolfSync@@YAXXZ ENDP				; `dynamic initializer for 'g_CrywolfSync''
text$di	ENDS
; Function compile flags: /Ogtp
;	COMDAT ??_GCCrywolfSync@@UAEPAXI@Z
_TEXT	SEGMENT
___flags$ = 8						; size = 4
??_GCCrywolfSync@@UAEPAXI@Z PROC			; CCrywolfSync::`scalar deleting destructor', COMDAT
; _this$ = ecx
  00000	55		 push	 ebp
  00001	8b ec		 mov	 ebp, esp
  00003	56		 push	 esi
  00004	8b f1		 mov	 esi, ecx
  00006	e8 00 00 00 00	 call	 ??1CCrywolfSync@@UAE@XZ	; CCrywolfSync::~CCrywolfSync
  0000b	f6 45 08 01	 test	 BYTE PTR ___flags$[ebp], 1
  0000f	74 0b		 je	 SHORT $LN4@scalar
  00011	6a 2c		 push	 44			; 0000002cH
  00013	56		 push	 esi
  00014	e8 00 00 00 00	 call	 ??3@YAXPAXI@Z		; operator delete
  00019	83 c4 08	 add	 esp, 8
$LN4@scalar:
  0001c	8b c6		 mov	 eax, esi
  0001e	5e		 pop	 esi
  0001f	5d		 pop	 ebp
  00020	c2 04 00	 ret	 4
??_GCCrywolfSync@@UAEPAXI@Z ENDP			; CCrywolfSync::`scalar deleting destructor'
_TEXT	ENDS
; Function compile flags: /Ogtp
; File c:\users\michel\desktop\source\gameserver\source\crywolfsync.cpp
;	COMDAT ?SetKundunHPRefillState@CCrywolfSync@@QAEXH@Z
_TEXT	SEGMENT
_iKundunHPRefillState$ = 8				; size = 4
?SetKundunHPRefillState@CCrywolfSync@@QAEXH@Z PROC	; CCrywolfSync::SetKundunHPRefillState, COMDAT
; _this$ = ecx

; 120  : {

  00000	55		 push	 ebp
  00001	8b ec		 mov	 ebp, esp

; 121  : 	this->m_iKundunHPRefillState = iKundunHPRefillState;

  00003	8b 45 08	 mov	 eax, DWORD PTR _iKundunHPRefillState$[ebp]
  00006	89 41 28	 mov	 DWORD PTR [ecx+40], eax

; 122  : }

  00009	5d		 pop	 ebp
  0000a	c2 04 00	 ret	 4
?SetKundunHPRefillState@CCrywolfSync@@QAEXH@Z ENDP	; CCrywolfSync::SetKundunHPRefillState
_TEXT	ENDS
; Function compile flags: /Ogtp
; File c:\users\michel\desktop\source\gameserver\source\crywolfsync.cpp
;	COMDAT ?GetKundunHPRefillState@CCrywolfSync@@QAEHXZ
_TEXT	SEGMENT
?GetKundunHPRefillState@CCrywolfSync@@QAEHXZ PROC	; CCrywolfSync::GetKundunHPRefillState, COMDAT
; _this$ = ecx

; 115  : 	return this->m_iKundunHPRefillState;

  00000	8b 41 28	 mov	 eax, DWORD PTR [ecx+40]

; 116  : }

  00003	c3		 ret	 0
?GetKundunHPRefillState@CCrywolfSync@@QAEHXZ ENDP	; CCrywolfSync::GetKundunHPRefillState
_TEXT	ENDS
; Function compile flags: /Ogtp
; File c:\users\michel\desktop\source\gameserver\source\crywolfsync.cpp
;	COMDAT ?SetMonHPBenefitRate@CCrywolfSync@@QAEXH@Z
_TEXT	SEGMENT
_iMinusMonHPBenefitRate$ = 8				; size = 4
?SetMonHPBenefitRate@CCrywolfSync@@QAEXH@Z PROC		; CCrywolfSync::SetMonHPBenefitRate, COMDAT
; _this$ = ecx

; 108  : {

  00000	55		 push	 ebp
  00001	8b ec		 mov	 ebp, esp

; 109  : 	this->m_iMinusMonHPBenefitRate = iMinusMonHPBenefitRate;

  00003	8b 45 08	 mov	 eax, DWORD PTR _iMinusMonHPBenefitRate$[ebp]
  00006	89 41 24	 mov	 DWORD PTR [ecx+36], eax

; 110  : }

  00009	5d		 pop	 ebp
  0000a	c2 04 00	 ret	 4
?SetMonHPBenefitRate@CCrywolfSync@@QAEXH@Z ENDP		; CCrywolfSync::SetMonHPBenefitRate
_TEXT	ENDS
; Function compile flags: /Ogtp
; File c:\users\michel\desktop\source\gameserver\source\crywolfsync.cpp
;	COMDAT ?GetMonHPBenefitRate@CCrywolfSync@@QAEHXZ
_TEXT	SEGMENT
?GetMonHPBenefitRate@CCrywolfSync@@QAEHXZ PROC		; CCrywolfSync::GetMonHPBenefitRate, COMDAT
; _this$ = ecx

; 103  : 	return this->m_iMinusMonHPBenefitRate;

  00000	8b 41 24	 mov	 eax, DWORD PTR [ecx+36]

; 104  : }

  00003	c3		 ret	 0
?GetMonHPBenefitRate@CCrywolfSync@@QAEHXZ ENDP		; CCrywolfSync::GetMonHPBenefitRate
_TEXT	ENDS
; Function compile flags: /Ogtp
; File c:\users\michel\desktop\source\gameserver\source\crywolfsync.cpp
;	COMDAT ?SetGettingExpPenaltyRate@CCrywolfSync@@QAEXH@Z
_TEXT	SEGMENT
_iGettingExpPenaltyRate$ = 8				; size = 4
?SetGettingExpPenaltyRate@CCrywolfSync@@QAEXH@Z PROC	; CCrywolfSync::SetGettingExpPenaltyRate, COMDAT
; _this$ = ecx

; 96   : {

  00000	55		 push	 ebp
  00001	8b ec		 mov	 ebp, esp

; 97   : 	this->m_iGettingExpPenaltyRate = iGettingExpPenaltyRate;

  00003	8b 45 08	 mov	 eax, DWORD PTR _iGettingExpPenaltyRate$[ebp]
  00006	89 41 20	 mov	 DWORD PTR [ecx+32], eax

; 98   : }

  00009	5d		 pop	 ebp
  0000a	c2 04 00	 ret	 4
?SetGettingExpPenaltyRate@CCrywolfSync@@QAEXH@Z ENDP	; CCrywolfSync::SetGettingExpPenaltyRate
_TEXT	ENDS
; Function compile flags: /Ogtp
; File c:\users\michel\desktop\source\gameserver\source\crywolfsync.cpp
;	COMDAT ?GetGettingExpPenaltyRate@CCrywolfSync@@QAEHXZ
_TEXT	SEGMENT
?GetGettingExpPenaltyRate@CCrywolfSync@@QAEHXZ PROC	; CCrywolfSync::GetGettingExpPenaltyRate, COMDAT
; _this$ = ecx

; 91   : 	return this->m_iGettingExpPenaltyRate;

  00000	8b 41 20	 mov	 eax, DWORD PTR [ecx+32]

; 92   : }

  00003	c3		 ret	 0
?GetGettingExpPenaltyRate@CCrywolfSync@@QAEHXZ ENDP	; CCrywolfSync::GetGettingExpPenaltyRate
_TEXT	ENDS
; Function compile flags: /Ogtp
; File c:\users\michel\desktop\source\gameserver\source\crywolfsync.cpp
;	COMDAT ?SetGemDropPenaltiyRate@CCrywolfSync@@QAEXH@Z
_TEXT	SEGMENT
_iGemDropPenaltyRate$ = 8				; size = 4
?SetGemDropPenaltiyRate@CCrywolfSync@@QAEXH@Z PROC	; CCrywolfSync::SetGemDropPenaltiyRate, COMDAT
; _this$ = ecx

; 84   : {

  00000	55		 push	 ebp
  00001	8b ec		 mov	 ebp, esp

; 85   : 	this->m_iGemDropPenaltyRate = iGemDropPenaltyRate;

  00003	8b 45 08	 mov	 eax, DWORD PTR _iGemDropPenaltyRate$[ebp]
  00006	89 41 1c	 mov	 DWORD PTR [ecx+28], eax

; 86   : }

  00009	5d		 pop	 ebp
  0000a	c2 04 00	 ret	 4
?SetGemDropPenaltiyRate@CCrywolfSync@@QAEXH@Z ENDP	; CCrywolfSync::SetGemDropPenaltiyRate
_TEXT	ENDS
; Function compile flags: /Ogtp
; File c:\users\michel\desktop\source\gameserver\source\crywolfsync.cpp
;	COMDAT ?GetGemDropPenaltiyRate@CCrywolfSync@@QAEHXZ
_TEXT	SEGMENT
?GetGemDropPenaltiyRate@CCrywolfSync@@QAEHXZ PROC	; CCrywolfSync::GetGemDropPenaltiyRate, COMDAT
; _this$ = ecx

; 79   : 	return this->m_iGemDropPenaltyRate;

  00000	8b 41 1c	 mov	 eax, DWORD PTR [ecx+28]

; 80   : }

  00003	c3		 ret	 0
?GetGemDropPenaltiyRate@CCrywolfSync@@QAEHXZ ENDP	; CCrywolfSync::GetGemDropPenaltiyRate
_TEXT	ENDS
; Function compile flags: /Ogtp
; File c:\users\michel\desktop\source\gameserver\source\crywolfsync.cpp
;	COMDAT ?SetPlusChaosRate@CCrywolfSync@@QAEXH@Z
_TEXT	SEGMENT
_iPlusChaosRate$ = 8					; size = 4
?SetPlusChaosRate@CCrywolfSync@@QAEXH@Z PROC		; CCrywolfSync::SetPlusChaosRate, COMDAT
; _this$ = ecx

; 72   : {

  00000	55		 push	 ebp
  00001	8b ec		 mov	 ebp, esp

; 73   : 	this->m_iPlusChaosRate = iPlusChaosRate;

  00003	8b 45 08	 mov	 eax, DWORD PTR _iPlusChaosRate$[ebp]
  00006	89 41 18	 mov	 DWORD PTR [ecx+24], eax

; 74   : }

  00009	5d		 pop	 ebp
  0000a	c2 04 00	 ret	 4
?SetPlusChaosRate@CCrywolfSync@@QAEXH@Z ENDP		; CCrywolfSync::SetPlusChaosRate
_TEXT	ENDS
; Function compile flags: /Ogtp
; File c:\users\michel\desktop\source\gameserver\source\crywolfsync.cpp
;	COMDAT ?GetPlusChaosRate@CCrywolfSync@@QAEHXZ
_TEXT	SEGMENT
?GetPlusChaosRate@CCrywolfSync@@QAEHXZ PROC		; CCrywolfSync::GetPlusChaosRate, COMDAT
; _this$ = ecx

; 68   : 	return this->m_iPlusChaosRate;

  00000	8b 41 18	 mov	 eax, DWORD PTR [ecx+24]

; 69   : }

  00003	c3		 ret	 0
?GetPlusChaosRate@CCrywolfSync@@QAEHXZ ENDP		; CCrywolfSync::GetPlusChaosRate
_TEXT	ENDS
; Function compile flags: /Ogtp
; File c:\users\michel\desktop\source\gameserver\source\crywolfsync.cpp
;	COMDAT ?SetCrywolfState@CCrywolfSync@@QAEXH@Z
_TEXT	SEGMENT
_iCrywolfState$ = 8					; size = 4
?SetCrywolfState@CCrywolfSync@@QAEXH@Z PROC		; CCrywolfSync::SetCrywolfState, COMDAT
; _this$ = ecx

; 62   : {

  00000	55		 push	 ebp
  00001	8b ec		 mov	 ebp, esp

; 63   : 	this->m_iCrywolfState = iCrywolfState;

  00003	8b 45 08	 mov	 eax, DWORD PTR _iCrywolfState$[ebp]
  00006	89 41 10	 mov	 DWORD PTR [ecx+16], eax

; 64   : }

  00009	5d		 pop	 ebp
  0000a	c2 04 00	 ret	 4
?SetCrywolfState@CCrywolfSync@@QAEXH@Z ENDP		; CCrywolfSync::SetCrywolfState
_TEXT	ENDS
; Function compile flags: /Ogtp
; File c:\users\michel\desktop\source\gameserver\source\crywolfsync.cpp
;	COMDAT ?SetOccupationState@CCrywolfSync@@QAEXH@Z
_TEXT	SEGMENT
_iOccupationState$ = 8					; size = 4
?SetOccupationState@CCrywolfSync@@QAEXH@Z PROC		; CCrywolfSync::SetOccupationState, COMDAT
; _this$ = ecx

; 57   : {

  00000	55		 push	 ebp
  00001	8b ec		 mov	 ebp, esp

; 58   : 	this->m_iOccupationState = iOccupationState;

  00003	8b 45 08	 mov	 eax, DWORD PTR _iOccupationState$[ebp]
  00006	89 41 14	 mov	 DWORD PTR [ecx+20], eax

; 59   : }

  00009	5d		 pop	 ebp
  0000a	c2 04 00	 ret	 4
?SetOccupationState@CCrywolfSync@@QAEXH@Z ENDP		; CCrywolfSync::SetOccupationState
_TEXT	ENDS
; Function compile flags: /Ogtp
; File c:\users\michel\desktop\source\gameserver\source\crywolfsync.cpp
;	COMDAT ?GetCrywolfState@CCrywolfSync@@QAEHXZ
_TEXT	SEGMENT
?GetCrywolfState@CCrywolfSync@@QAEHXZ PROC		; CCrywolfSync::GetCrywolfState, COMDAT
; _this$ = ecx

; 53   : 	return this->m_iCrywolfState;

  00000	8b 41 10	 mov	 eax, DWORD PTR [ecx+16]

; 54   : }

  00003	c3		 ret	 0
?GetCrywolfState@CCrywolfSync@@QAEHXZ ENDP		; CCrywolfSync::GetCrywolfState
_TEXT	ENDS
; Function compile flags: /Ogtp
; File c:\users\michel\desktop\source\gameserver\source\crywolfsync.cpp
;	COMDAT ?GetOccupationState@CCrywolfSync@@QAEHXZ
_TEXT	SEGMENT
?GetOccupationState@CCrywolfSync@@QAEHXZ PROC		; CCrywolfSync::GetOccupationState, COMDAT
; _this$ = ecx

; 48   : 	return this->m_iOccupationState;

  00000	8b 41 14	 mov	 eax, DWORD PTR [ecx+20]

; 49   : }

  00003	c3		 ret	 0
?GetOccupationState@CCrywolfSync@@QAEHXZ ENDP		; CCrywolfSync::GetOccupationState
_TEXT	ENDS
; Function compile flags: /Ogtp
; File c:\users\michel\desktop\source\gameserver\source\crywolfsync.cpp
;	COMDAT ?SetEnableCrywolf@CCrywolfSync@@QAEXH@Z
_TEXT	SEGMENT
_bEnable$ = 8						; size = 4
?SetEnableCrywolf@CCrywolfSync@@QAEXH@Z PROC		; CCrywolfSync::SetEnableCrywolf, COMDAT
; _this$ = ecx

; 42   : {

  00000	55		 push	 ebp
  00001	8b ec		 mov	 ebp, esp

; 43   : 	this->m_bCrywolfEnable = bEnable;

  00003	8b 45 08	 mov	 eax, DWORD PTR _bEnable$[ebp]
  00006	89 41 04	 mov	 DWORD PTR [ecx+4], eax

; 44   : }

  00009	5d		 pop	 ebp
  0000a	c2 04 00	 ret	 4
?SetEnableCrywolf@CCrywolfSync@@QAEXH@Z ENDP		; CCrywolfSync::SetEnableCrywolf
_TEXT	ENDS
; Function compile flags: /Ogtp
; File c:\users\michel\desktop\source\gameserver\source\crywolfsync.cpp
;	COMDAT ?CheckEnableCrywolf@CCrywolfSync@@QAEHXZ
_TEXT	SEGMENT
?CheckEnableCrywolf@CCrywolfSync@@QAEHXZ PROC		; CCrywolfSync::CheckEnableCrywolf, COMDAT
; _this$ = ecx

; 37   : 	return this->m_bCrywolfEnable;

  00000	8b 41 04	 mov	 eax, DWORD PTR [ecx+4]

; 38   : }

  00003	c3		 ret	 0
?CheckEnableCrywolf@CCrywolfSync@@QAEHXZ ENDP		; CCrywolfSync::CheckEnableCrywolf
_TEXT	ENDS
; Function compile flags: /Ogtp
; File c:\users\michel\desktop\source\gameserver\source\crywolfsync.cpp
;	COMDAT ??1CCrywolfSync@@UAE@XZ
_TEXT	SEGMENT
??1CCrywolfSync@@UAE@XZ PROC				; CCrywolfSync::~CCrywolfSync, COMDAT
; _this$ = ecx

; 29   : {

  00000	c7 01 00 00 00
	00		 mov	 DWORD PTR [ecx], OFFSET ??_7CCrywolfSync@@6B@

; 30   : 	return;
; 31   : }

  00006	c3		 ret	 0
??1CCrywolfSync@@UAE@XZ ENDP				; CCrywolfSync::~CCrywolfSync
_TEXT	ENDS
; Function compile flags: /Ogtp
; File c:\users\michel\desktop\source\gameserver\source\crywolfsync.cpp
;	COMDAT ??0CCrywolfSync@@QAE@XZ
_TEXT	SEGMENT
??0CCrywolfSync@@QAE@XZ PROC				; CCrywolfSync::CCrywolfSync, COMDAT
; _this$ = ecx

; 15   : {

  00000	c7 01 00 00 00
	00		 mov	 DWORD PTR [ecx], OFFSET ??_7CCrywolfSync@@6B@

; 16   : 	this->m_bCrywolfEnable = TRUE;
; 17   : 	this->m_bApplyBenefit = FALSE;
; 18   : 	this->m_bApplyPenalty = FALSE;
; 19   : 	this->m_iOccupationState = 1;
; 20   : 	this->m_iCrywolfState = 0;
; 21   : 	this->m_iPlusChaosRate = 0;
; 22   : 	this->m_iGemDropPenaltyRate = 100;
; 23   : 	this->m_iGettingExpPenaltyRate = 100;
; 24   : 	this->m_iMinusMonHPBenefitRate = 100;
; 25   : 	this->m_iKundunHPRefillState = 1;
; 26   : }

  00006	8b c1		 mov	 eax, ecx
  00008	c7 41 04 01 00
	00 00		 mov	 DWORD PTR [ecx+4], 1
  0000f	c7 41 08 00 00
	00 00		 mov	 DWORD PTR [ecx+8], 0
  00016	c7 41 0c 00 00
	00 00		 mov	 DWORD PTR [ecx+12], 0
  0001d	c7 41 14 01 00
	00 00		 mov	 DWORD PTR [ecx+20], 1
  00024	c7 41 10 00 00
	00 00		 mov	 DWORD PTR [ecx+16], 0
  0002b	c7 41 18 00 00
	00 00		 mov	 DWORD PTR [ecx+24], 0
  00032	c7 41 1c 64 00
	00 00		 mov	 DWORD PTR [ecx+28], 100	; 00000064H
  00039	c7 41 20 64 00
	00 00		 mov	 DWORD PTR [ecx+32], 100	; 00000064H
  00040	c7 41 24 64 00
	00 00		 mov	 DWORD PTR [ecx+36], 100	; 00000064H
  00047	c7 41 28 01 00
	00 00		 mov	 DWORD PTR [ecx+40], 1
  0004e	c3		 ret	 0
??0CCrywolfSync@@QAE@XZ ENDP				; CCrywolfSync::CCrywolfSync
_TEXT	ENDS
; Function compile flags: /Ogtp
; File c:\users\michel\desktop\source\gameserver\source\crywolfsync.cpp
;	COMDAT ?__empty_global_delete@@YAXPAXI@Z
_TEXT	SEGMENT
___formal$ = 8						; size = 4
___formal$ = 12						; size = 4
?__empty_global_delete@@YAXPAXI@Z PROC			; __empty_global_delete, COMDAT

; 123  : }

  00000	c3		 ret	 0
?__empty_global_delete@@YAXPAXI@Z ENDP			; __empty_global_delete
_TEXT	ENDS
; Function compile flags: /Ogtp
; File c:\users\michel\desktop\source\gameserver\source\crywolfsync.cpp
;	COMDAT ?__empty_global_delete@@YAXPAX@Z
_TEXT	SEGMENT
___formal$ = 8						; size = 4
?__empty_global_delete@@YAXPAX@Z PROC			; __empty_global_delete, COMDAT

; 123  : }

  00000	c3		 ret	 0
?__empty_global_delete@@YAXPAX@Z ENDP			; __empty_global_delete
_TEXT	ENDS
END
