; Listing generated by Microsoft (R) Optimizing Compiler Version 19.00.23506.0 

	TITLE	C:\Users\Michel\Desktop\Source\GameServer\Source\CustomManager.cpp
	.686P
	.XMM
	include listing.inc
	.model	flat

INCLUDELIB LIBCMT
INCLUDELIB OLDNAMES

PUBLIC	?__empty_global_delete@@YAXPAX@Z		; __empty_global_delete
PUBLIC	?__empty_global_delete@@YAXPAXI@Z		; __empty_global_delete
PUBLIC	??0CustomManager@@QAE@XZ			; CustomManager::CustomManager
PUBLIC	??1CustomManager@@UAE@XZ			; CustomManager::~CustomManager
PUBLIC	?Load@CustomManager@@QAEXXZ			; CustomManager::Load
PUBLIC	??_GCustomManager@@UAEPAXI@Z			; CustomManager::`scalar deleting destructor'
PUBLIC	??1OBJECTSTRUCT@@QAE@XZ				; OBJECTSTRUCT::~OBJECTSTRUCT
PUBLIC	??_EOBJECTSTRUCT@@QAEPAXI@Z			; OBJECTSTRUCT::`vector deleting destructor'
PUBLIC	??_7CustomManager@@6B@				; CustomManager::`vftable'
PUBLIC	?g_CustomManager@@3VCustomManager@@A		; g_CustomManager
PUBLIC	??_C@_0BL@CIACHHKE@Custom?2MonsterStatInfo?4xml?$AA@ ; `string'
PUBLIC	??_R4CustomManager@@6B@				; CustomManager::`RTTI Complete Object Locator'
PUBLIC	??_R0?AVCustomManager@@@8			; CustomManager `RTTI Type Descriptor'
PUBLIC	??_R3CustomManager@@8				; CustomManager::`RTTI Class Hierarchy Descriptor'
PUBLIC	??_R2CustomManager@@8				; CustomManager::`RTTI Base Class Array'
PUBLIC	??_R1A@?0A@EA@CustomManager@@8			; CustomManager::`RTTI Base Class Descriptor at (0,-1,0,64)'
EXTRN	??_M@YGXPAXIIP6EX0@Z@Z:PROC			; `eh vector destructor iterator'
EXTRN	??2@YAPAXI@Z:PROC				; operator new
EXTRN	??3@YAXPAXI@Z:PROC				; operator delete
EXTRN	??_V@YAXPAXI@Z:PROC				; operator delete[]
EXTRN	_atexit:PROC
EXTRN	??_ECustomManager@@UAEPAXI@Z:PROC		; CustomManager::`vector deleting destructor'
EXTRN	??1CSkillDelay@@UAE@XZ:PROC			; CSkillDelay::~CSkillDelay
EXTRN	??1TMonsterAIAgro@@UAE@XZ:PROC			; TMonsterAIAgro::~TMonsterAIAgro
EXTRN	?Load@ClassCalc@@QAEXXZ:PROC			; ClassCalc::Load
EXTRN	?Load@ItemDropRate@@QAEXXZ:PROC			; ItemDropRate::Load
EXTRN	?Load@ItemPrice@@QAEXXZ:PROC			; ItemPrice::Load
EXTRN	?Load@Notice@@QAEXXZ:PROC			; Notice::Load
EXTRN	?Load@CCustomMonsterAttr@@QAEXPAD@Z:PROC	; CCustomMonsterAttr::Load
EXTRN	?GetNewPath@CDirPath@@QAEPADPAD@Z:PROC		; CDirPath::GetNewPath
EXTRN	?Load@UserDieItemDrop@@QAEXXZ:PROC		; UserDieItemDrop::Load
EXTRN	?Load@CommandManager@@QAEXXZ:PROC		; CommandManager::Load
EXTRN	?Load@MapRateInfo@@QAEXXZ:PROC			; MapRateInfo::Load
EXTRN	?Load@BuffSkillEffect@@QAEXXZ:PROC		; BuffSkillEffect::Load
EXTRN	?Load@ItemUpgradeJewels@@QAEXXZ:PROC		; ItemUpgradeJewels::Load
EXTRN	?Load@OfflineTrade@@QAEXXZ:PROC			; OfflineTrade::Load
EXTRN	?Load@HardcoreMode@@QAEXXZ:PROC			; HardcoreMode::Load
EXTRN	?Load@MonsterMoneyDrop@@QAEXXZ:PROC		; MonsterMoneyDrop::Load
EXTRN	?Load@ResetSystem@@QAEXXZ:PROC			; ResetSystem::Load
EXTRN	?Load@CheatGuard@@QAEXXZ:PROC			; CheatGuard::Load
EXTRN	?Load@ItemExcellentOption@@QAEXXZ:PROC		; ItemExcellentOption::Load
EXTRN	?Load@PvPBalance@@QAEXXZ:PROC			; PvPBalance::Load
EXTRN	??0MonsterSpawnerMng@@QAE@XZ:PROC		; MonsterSpawnerMng::MonsterSpawnerMng
EXTRN	?Load@MonsterSpawnerMng@@QAEXXZ:PROC		; MonsterSpawnerMng::Load
EXTRN	@__security_check_cookie@4:PROC
EXTRN	___CxxFrameHandler3:PROC
EXTRN	??_7type_info@@6B@:QWORD			; type_info::`vftable'
EXTRN	?g_ClassCalc@@3VClassCalc@@A:BYTE		; g_ClassCalc
EXTRN	?g_ItemDropRate@@3VItemDropRate@@A:BYTE		; g_ItemDropRate
EXTRN	?g_ItemPrice@@3VItemPrice@@A:BYTE		; g_ItemPrice
EXTRN	?g_Notice@@3VNotice@@A:BYTE			; g_Notice
EXTRN	?gCMAttr@@3VCCustomMonsterAttr@@A:BYTE		; gCMAttr
EXTRN	?gDirPath@@3VCDirPath@@A:BYTE			; gDirPath
EXTRN	?g_UserDieItemDrop@@3VUserDieItemDrop@@A:BYTE	; g_UserDieItemDrop
EXTRN	?g_CommandManager@@3VCommandManager@@A:BYTE	; g_CommandManager
EXTRN	?g_MapRateInfo@@3VMapRateInfo@@A:BYTE		; g_MapRateInfo
EXTRN	?g_BuffSkillEffect@@3VBuffSkillEffect@@A:BYTE	; g_BuffSkillEffect
EXTRN	?g_ItemUpgradeJewels@@3VItemUpgradeJewels@@A:BYTE ; g_ItemUpgradeJewels
EXTRN	?g_OfflineTrade@@3VOfflineTrade@@A:BYTE		; g_OfflineTrade
EXTRN	?g_HardcoreMode@@3VHardcoreMode@@A:BYTE		; g_HardcoreMode
EXTRN	?g_MonsterMoneyDrop@@3VMonsterMoneyDrop@@A:BYTE	; g_MonsterMoneyDrop
EXTRN	?g_ResetSystem@@3VResetSystem@@A:BYTE		; g_ResetSystem
EXTRN	?g_CheatGuard@@3VCheatGuard@@A:BYTE		; g_CheatGuard
EXTRN	?g_ItemExcellentOption@@3VItemExcellentOption@@A:BYTE ; g_ItemExcellentOption
EXTRN	?g_PvPBalance@@3VPvPBalance@@A:BYTE		; g_PvPBalance
EXTRN	?m_Instance@MonsterSpawnerMng@@0PAV1@A:DWORD	; MonsterSpawnerMng::m_Instance
EXTRN	___security_cookie:DWORD
_BSS	SEGMENT
?g_CustomManager@@3VCustomManager@@A DD 01H DUP (?)	; g_CustomManager
_BSS	ENDS
CRT$XCU	SEGMENT
?g_CustomManager$initializer$@@3P6AXXZA DD FLAT:??__Eg_CustomManager@@YAXXZ ; g_CustomManager$initializer$
CRT$XCU	ENDS
;	COMDAT ??_R1A@?0A@EA@CustomManager@@8
rdata$r	SEGMENT
??_R1A@?0A@EA@CustomManager@@8 DD FLAT:??_R0?AVCustomManager@@@8 ; CustomManager::`RTTI Base Class Descriptor at (0,-1,0,64)'
	DD	00H
	DD	00H
	DD	0ffffffffH
	DD	00H
	DD	040H
	DD	FLAT:??_R3CustomManager@@8
rdata$r	ENDS
;	COMDAT ??_R2CustomManager@@8
rdata$r	SEGMENT
??_R2CustomManager@@8 DD FLAT:??_R1A@?0A@EA@CustomManager@@8 ; CustomManager::`RTTI Base Class Array'
rdata$r	ENDS
;	COMDAT ??_R3CustomManager@@8
rdata$r	SEGMENT
??_R3CustomManager@@8 DD 00H				; CustomManager::`RTTI Class Hierarchy Descriptor'
	DD	00H
	DD	01H
	DD	FLAT:??_R2CustomManager@@8
rdata$r	ENDS
;	COMDAT ??_R0?AVCustomManager@@@8
data$r	SEGMENT
??_R0?AVCustomManager@@@8 DD FLAT:??_7type_info@@6B@	; CustomManager `RTTI Type Descriptor'
	DD	00H
	DB	'.?AVCustomManager@@', 00H
data$r	ENDS
;	COMDAT ??_R4CustomManager@@6B@
rdata$r	SEGMENT
??_R4CustomManager@@6B@ DD 00H				; CustomManager::`RTTI Complete Object Locator'
	DD	00H
	DD	00H
	DD	FLAT:??_R0?AVCustomManager@@@8
	DD	FLAT:??_R3CustomManager@@8
rdata$r	ENDS
;	COMDAT ??_C@_0BL@CIACHHKE@Custom?2MonsterStatInfo?4xml?$AA@
CONST	SEGMENT
??_C@_0BL@CIACHHKE@Custom?2MonsterStatInfo?4xml?$AA@ DB 'Custom\MonsterSt'
	DB	'atInfo.xml', 00H				; `string'
CONST	ENDS
;	COMDAT ??_7CustomManager@@6B@
CONST	SEGMENT
??_7CustomManager@@6B@ DD FLAT:??_R4CustomManager@@6B@	; CustomManager::`vftable'
	DD	FLAT:??_ECustomManager@@UAEPAXI@Z
CONST	ENDS
;	COMDAT xdata$x
xdata$x	SEGMENT
__unwindtable$?getInstance@MonsterSpawnerMng@@SAPAV1@XZ DD 0ffffffffH
	DD	FLAT:__unwindfunclet$?getInstance@MonsterSpawnerMng@@SAPAV1@XZ$0
__ehfuncinfo$?getInstance@MonsterSpawnerMng@@SAPAV1@XZ DD 019930522H
	DD	01H
	DD	FLAT:__unwindtable$?getInstance@MonsterSpawnerMng@@SAPAV1@XZ
	DD	2 DUP(00H)
	DD	2 DUP(00H)
	DD	00H
	DD	01H
xdata$x	ENDS
;	COMDAT xdata$x
xdata$x	SEGMENT
__ehfuncinfo$??_EOBJECTSTRUCT@@QAEPAXI@Z DD 019930522H
	DD	00H
	DD	00H
	DD	2 DUP(00H)
	DD	2 DUP(00H)
	DD	00H
	DD	05H
xdata$x	ENDS
;	COMDAT xdata$x
xdata$x	SEGMENT
__unwindtable$?Load@CustomManager@@QAEXXZ DD 0ffffffffH
	DD	FLAT:__unwindfunclet$?Load@CustomManager@@QAEXXZ$0
__ehfuncinfo$?Load@CustomManager@@QAEXXZ DD 019930522H
	DD	01H
	DD	FLAT:__unwindtable$?Load@CustomManager@@QAEXXZ
	DD	2 DUP(00H)
	DD	2 DUP(00H)
	DD	00H
	DD	01H
xdata$x	ENDS
; Function compile flags: /Ogtp
;	COMDAT ??__Fg_CustomManager@@YAXXZ
text$yd	SEGMENT
??__Fg_CustomManager@@YAXXZ PROC			; `dynamic atexit destructor for 'g_CustomManager'', COMDAT
  00000	b9 00 00 00 00	 mov	 ecx, OFFSET ?g_CustomManager@@3VCustomManager@@A ; g_CustomManager
  00005	e9 00 00 00 00	 jmp	 ??1CustomManager@@UAE@XZ ; CustomManager::~CustomManager
??__Fg_CustomManager@@YAXXZ ENDP			; `dynamic atexit destructor for 'g_CustomManager''
text$yd	ENDS
; Function compile flags: /Ogtp
; File c:\users\michel\desktop\source\gameserver\source\custommanager.cpp
;	COMDAT ??__Eg_CustomManager@@YAXXZ
text$di	SEGMENT
??__Eg_CustomManager@@YAXXZ PROC			; `dynamic initializer for 'g_CustomManager'', COMDAT

; 54   : CustomManager g_CustomManager;

  00000	b9 00 00 00 00	 mov	 ecx, OFFSET ?g_CustomManager@@3VCustomManager@@A ; g_CustomManager
  00005	e8 00 00 00 00	 call	 ??0CustomManager@@QAE@XZ ; CustomManager::CustomManager
  0000a	68 00 00 00 00	 push	 OFFSET ??__Fg_CustomManager@@YAXXZ ; `dynamic atexit destructor for 'g_CustomManager''
  0000f	e8 00 00 00 00	 call	 _atexit
  00014	59		 pop	 ecx
  00015	c3		 ret	 0
??__Eg_CustomManager@@YAXXZ ENDP			; `dynamic initializer for 'g_CustomManager''
text$di	ENDS
; Function compile flags: /Ogtp
; File c:\users\michel\desktop\source\gameserver\source\monsterspawner.h
;	COMDAT ?getInstance@MonsterSpawnerMng@@SAPAV1@XZ
_TEXT	SEGMENT
$T2 = -16						; size = 4
__$EHRec$ = -12						; size = 12
?getInstance@MonsterSpawnerMng@@SAPAV1@XZ PROC		; MonsterSpawnerMng::getInstance, COMDAT

; 137  : 	static MonsterSpawnerMng* getInstance() {

  00000	55		 push	 ebp
  00001	8b ec		 mov	 ebp, esp
  00003	6a ff		 push	 -1
  00005	68 00 00 00 00	 push	 __ehhandler$?getInstance@MonsterSpawnerMng@@SAPAV1@XZ
  0000a	64 a1 00 00 00
	00		 mov	 eax, DWORD PTR fs:0
  00010	50		 push	 eax
  00011	51		 push	 ecx
  00012	a1 00 00 00 00	 mov	 eax, DWORD PTR ___security_cookie
  00017	33 c5		 xor	 eax, ebp
  00019	50		 push	 eax
  0001a	8d 45 f4	 lea	 eax, DWORD PTR __$EHRec$[ebp]
  0001d	64 a3 00 00 00
	00		 mov	 DWORD PTR fs:0, eax

; 138  : 		if (m_Instance == NULL) {

  00023	a1 00 00 00 00	 mov	 eax, DWORD PTR ?m_Instance@MonsterSpawnerMng@@0PAV1@A ; MonsterSpawnerMng::m_Instance
  00028	85 c0		 test	 eax, eax
  0002a	75 3a		 jne	 SHORT $LN2@getInstanc

; 139  : 			m_Instance = new MonsterSpawnerMng();

  0002c	6a 1c		 push	 28			; 0000001cH
  0002e	e8 00 00 00 00	 call	 ??2@YAPAXI@Z		; operator new
  00033	83 c4 04	 add	 esp, 4
  00036	89 45 f0	 mov	 DWORD PTR $T2[ebp], eax
  00039	c7 45 fc 00 00
	00 00		 mov	 DWORD PTR __$EHRec$[ebp+8], 0
  00040	85 c0		 test	 eax, eax
  00042	74 1b		 je	 SHORT $LN4@getInstanc
  00044	8b c8		 mov	 ecx, eax
  00046	e8 00 00 00 00	 call	 ??0MonsterSpawnerMng@@QAE@XZ ; MonsterSpawnerMng::MonsterSpawnerMng
  0004b	a3 00 00 00 00	 mov	 DWORD PTR ?m_Instance@MonsterSpawnerMng@@0PAV1@A, eax ; MonsterSpawnerMng::m_Instance

; 140  : 		}
; 141  : 		return m_Instance;
; 142  : 	}

  00050	8b 4d f4	 mov	 ecx, DWORD PTR __$EHRec$[ebp]
  00053	64 89 0d 00 00
	00 00		 mov	 DWORD PTR fs:0, ecx
  0005a	59		 pop	 ecx
  0005b	8b e5		 mov	 esp, ebp
  0005d	5d		 pop	 ebp
  0005e	c3		 ret	 0
$LN4@getInstanc:

; 139  : 			m_Instance = new MonsterSpawnerMng();

  0005f	33 c0		 xor	 eax, eax
  00061	a3 00 00 00 00	 mov	 DWORD PTR ?m_Instance@MonsterSpawnerMng@@0PAV1@A, eax ; MonsterSpawnerMng::m_Instance
$LN2@getInstanc:

; 140  : 		}
; 141  : 		return m_Instance;
; 142  : 	}

  00066	8b 4d f4	 mov	 ecx, DWORD PTR __$EHRec$[ebp]
  00069	64 89 0d 00 00
	00 00		 mov	 DWORD PTR fs:0, ecx
  00070	59		 pop	 ecx
  00071	8b e5		 mov	 esp, ebp
  00073	5d		 pop	 ebp
  00074	c3		 ret	 0
_TEXT	ENDS
;	COMDAT text$x
text$x	SEGMENT
__unwindfunclet$?getInstance@MonsterSpawnerMng@@SAPAV1@XZ$0:
  00000	6a 1c		 push	 28			; 0000001cH
  00002	8b 45 f0	 mov	 eax, DWORD PTR $T2[ebp]
  00005	50		 push	 eax
  00006	e8 00 00 00 00	 call	 ??3@YAXPAXI@Z		; operator delete
  0000b	83 c4 08	 add	 esp, 8
  0000e	c3		 ret	 0
__ehhandler$?getInstance@MonsterSpawnerMng@@SAPAV1@XZ:
  0000f	8b 54 24 08	 mov	 edx, DWORD PTR [esp+8]
  00013	8d 42 0c	 lea	 eax, DWORD PTR [edx+12]
  00016	8b 4a f8	 mov	 ecx, DWORD PTR [edx-8]
  00019	33 c8		 xor	 ecx, eax
  0001b	e8 00 00 00 00	 call	 @__security_check_cookie@4
  00020	b8 00 00 00 00	 mov	 eax, OFFSET __ehfuncinfo$?getInstance@MonsterSpawnerMng@@SAPAV1@XZ
  00025	e9 00 00 00 00	 jmp	 ___CxxFrameHandler3
text$x	ENDS
?getInstance@MonsterSpawnerMng@@SAPAV1@XZ ENDP		; MonsterSpawnerMng::getInstance
; Function compile flags: /Ogtp
;	COMDAT ??_EOBJECTSTRUCT@@QAEPAXI@Z
_TEXT	SEGMENT
__$EHRec$ = -12						; size = 12
___flags$ = 8						; size = 4
??_EOBJECTSTRUCT@@QAEPAXI@Z PROC			; OBJECTSTRUCT::`vector deleting destructor', COMDAT
; _this$ = ecx
  00000	55		 push	 ebp
  00001	8b ec		 mov	 ebp, esp
  00003	6a ff		 push	 -1
  00005	68 00 00 00 00	 push	 __ehhandler$??_EOBJECTSTRUCT@@QAEPAXI@Z
  0000a	64 a1 00 00 00
	00		 mov	 eax, DWORD PTR fs:0
  00010	50		 push	 eax
  00011	53		 push	 ebx
  00012	56		 push	 esi
  00013	57		 push	 edi
  00014	a1 00 00 00 00	 mov	 eax, DWORD PTR ___security_cookie
  00019	33 c5		 xor	 eax, ebp
  0001b	50		 push	 eax
  0001c	8d 45 f4	 lea	 eax, DWORD PTR __$EHRec$[ebp]
  0001f	64 a3 00 00 00
	00		 mov	 DWORD PTR fs:0, eax
  00025	8b f1		 mov	 esi, ecx
  00027	8b 5d 08	 mov	 ebx, DWORD PTR ___flags$[ebp]
  0002a	f6 c3 02	 test	 bl, 2
  0002d	74 44		 je	 SHORT $LN2@vector
  0002f	68 00 00 00 00	 push	 OFFSET ??1OBJECTSTRUCT@@QAE@XZ
  00034	ff 76 fc	 push	 DWORD PTR [esi-4]
  00037	8d 7e fc	 lea	 edi, DWORD PTR [esi-4]
  0003a	68 40 27 00 00	 push	 10048			; 00002740H
  0003f	56		 push	 esi
  00040	e8 00 00 00 00	 call	 ??_M@YGXPAXIIP6EX0@Z@Z
  00045	f6 c3 01	 test	 bl, 1
  00048	74 13		 je	 SHORT $LN3@vector
  0004a	69 0f 40 27 00
	00		 imul	 ecx, DWORD PTR [edi], 10048
  00050	83 c1 04	 add	 ecx, 4
  00053	51		 push	 ecx
  00054	57		 push	 edi
  00055	e8 00 00 00 00	 call	 ??_V@YAXPAXI@Z		; operator delete[]
  0005a	83 c4 08	 add	 esp, 8
$LN3@vector:
  0005d	8b c7		 mov	 eax, edi
  0005f	8b 4d f4	 mov	 ecx, DWORD PTR __$EHRec$[ebp]
  00062	64 89 0d 00 00
	00 00		 mov	 DWORD PTR fs:0, ecx
  00069	59		 pop	 ecx
  0006a	5f		 pop	 edi
  0006b	5e		 pop	 esi
  0006c	5b		 pop	 ebx
  0006d	8b e5		 mov	 esp, ebp
  0006f	5d		 pop	 ebp
  00070	c2 04 00	 ret	 4
$LN2@vector:
  00073	8d 8e ec 20 00
	00		 lea	 ecx, DWORD PTR [esi+8428]
  00079	e8 00 00 00 00	 call	 ??1TMonsterAIAgro@@UAE@XZ ; TMonsterAIAgro::~TMonsterAIAgro
  0007e	8d 8e 0c 16 00
	00		 lea	 ecx, DWORD PTR [esi+5644]
  00084	e8 00 00 00 00	 call	 ??1CSkillDelay@@UAE@XZ	; CSkillDelay::~CSkillDelay
  00089	f6 c3 01	 test	 bl, 1
  0008c	74 0e		 je	 SHORT $LN4@vector
  0008e	68 40 27 00 00	 push	 10048			; 00002740H
  00093	56		 push	 esi
  00094	e8 00 00 00 00	 call	 ??3@YAXPAXI@Z		; operator delete
  00099	83 c4 08	 add	 esp, 8
$LN4@vector:
  0009c	8b c6		 mov	 eax, esi
  0009e	8b 4d f4	 mov	 ecx, DWORD PTR __$EHRec$[ebp]
  000a1	64 89 0d 00 00
	00 00		 mov	 DWORD PTR fs:0, ecx
  000a8	59		 pop	 ecx
  000a9	5f		 pop	 edi
  000aa	5e		 pop	 esi
  000ab	5b		 pop	 ebx
  000ac	8b e5		 mov	 esp, ebp
  000ae	5d		 pop	 ebp
  000af	c2 04 00	 ret	 4
_TEXT	ENDS
;	COMDAT text$x
text$x	SEGMENT
__ehhandler$??_EOBJECTSTRUCT@@QAEPAXI@Z:
  00000	8b 54 24 08	 mov	 edx, DWORD PTR [esp+8]
  00004	8d 42 0c	 lea	 eax, DWORD PTR [edx+12]
  00007	8b 4a f0	 mov	 ecx, DWORD PTR [edx-16]
  0000a	33 c8		 xor	 ecx, eax
  0000c	e8 00 00 00 00	 call	 @__security_check_cookie@4
  00011	b8 00 00 00 00	 mov	 eax, OFFSET __ehfuncinfo$??_EOBJECTSTRUCT@@QAEPAXI@Z
  00016	e9 00 00 00 00	 jmp	 ___CxxFrameHandler3
text$x	ENDS
??_EOBJECTSTRUCT@@QAEPAXI@Z ENDP			; OBJECTSTRUCT::`vector deleting destructor'
; Function compile flags: /Ogtp
;	COMDAT ??1OBJECTSTRUCT@@QAE@XZ
_TEXT	SEGMENT
??1OBJECTSTRUCT@@QAE@XZ PROC				; OBJECTSTRUCT::~OBJECTSTRUCT, COMDAT
; _this$ = ecx
  00000	56		 push	 esi
  00001	8b f1		 mov	 esi, ecx
  00003	8d 8e ec 20 00
	00		 lea	 ecx, DWORD PTR [esi+8428]
  00009	e8 00 00 00 00	 call	 ??1TMonsterAIAgro@@UAE@XZ ; TMonsterAIAgro::~TMonsterAIAgro
  0000e	8d 8e 0c 16 00
	00		 lea	 ecx, DWORD PTR [esi+5644]
  00014	5e		 pop	 esi
  00015	e9 00 00 00 00	 jmp	 ??1CSkillDelay@@UAE@XZ	; CSkillDelay::~CSkillDelay
??1OBJECTSTRUCT@@QAE@XZ ENDP				; OBJECTSTRUCT::~OBJECTSTRUCT
_TEXT	ENDS
; Function compile flags: /Ogtp
;	COMDAT ??_GCustomManager@@UAEPAXI@Z
_TEXT	SEGMENT
___flags$ = 8						; size = 4
??_GCustomManager@@UAEPAXI@Z PROC			; CustomManager::`scalar deleting destructor', COMDAT
; _this$ = ecx
  00000	55		 push	 ebp
  00001	8b ec		 mov	 ebp, esp
  00003	56		 push	 esi
  00004	8b f1		 mov	 esi, ecx
  00006	e8 00 00 00 00	 call	 ??1CustomManager@@UAE@XZ ; CustomManager::~CustomManager
  0000b	f6 45 08 01	 test	 BYTE PTR ___flags$[ebp], 1
  0000f	74 0b		 je	 SHORT $LN4@scalar
  00011	6a 04		 push	 4
  00013	56		 push	 esi
  00014	e8 00 00 00 00	 call	 ??3@YAXPAXI@Z		; operator delete
  00019	83 c4 08	 add	 esp, 8
$LN4@scalar:
  0001c	8b c6		 mov	 eax, esi
  0001e	5e		 pop	 esi
  0001f	5d		 pop	 ebp
  00020	c2 04 00	 ret	 4
??_GCustomManager@@UAEPAXI@Z ENDP			; CustomManager::`scalar deleting destructor'
_TEXT	ENDS
; Function compile flags: /Ogtp
; File c:\users\michel\desktop\source\gameserver\source\custommanager.cpp
; File c:\users\michel\desktop\source\gameserver\source\monsterspawner.h
; File c:\users\michel\desktop\source\gameserver\source\custommanager.cpp
;	COMDAT ?Load@CustomManager@@QAEXXZ
_TEXT	SEGMENT
$T2 = -16						; size = 4
__$EHRec$ = -12						; size = 12
?Load@CustomManager@@QAEXXZ PROC			; CustomManager::Load, COMDAT
; _this$ = ecx

; 70   : {

  00000	55		 push	 ebp
  00001	8b ec		 mov	 ebp, esp
  00003	6a ff		 push	 -1
  00005	68 00 00 00 00	 push	 __ehhandler$?Load@CustomManager@@QAEXXZ
  0000a	64 a1 00 00 00
	00		 mov	 eax, DWORD PTR fs:0
  00010	50		 push	 eax
  00011	51		 push	 ecx
  00012	a1 00 00 00 00	 mov	 eax, DWORD PTR ___security_cookie
  00017	33 c5		 xor	 eax, ebp
  00019	50		 push	 eax
  0001a	8d 45 f4	 lea	 eax, DWORD PTR __$EHRec$[ebp]
  0001d	64 a3 00 00 00
	00		 mov	 DWORD PTR fs:0, eax

; 71   : 	VM_START
; 72   : #if (ENABLETEST_ITEMEXCELLENTOPTION == 1)
; 73   : 	g_ItemExcellentOption.Load();

  00023	b9 00 00 00 00	 mov	 ecx, OFFSET ?g_ItemExcellentOption@@3VItemExcellentOption@@A ; g_ItemExcellentOption
  00028	e8 00 00 00 00	 call	 ?Load@ItemExcellentOption@@QAEXXZ ; ItemExcellentOption::Load

; 74   : #endif
; 75   : 
; 76   : #if (ENABLETEST_ACHERON == 1)
; 77   : 	g_AcheronGuardianEvent.LoadScriptAcheronEvent(gDirPath.GetNewPath("AcheronEventData.txt"));
; 78   : #endif
; 79   : 
; 80   : #if (ENABLE_CUSTOM_OFFLINETRADE == 1)
; 81   : 	g_OfflineTrade.Load();

  0002d	b9 00 00 00 00	 mov	 ecx, OFFSET ?g_OfflineTrade@@3VOfflineTrade@@A ; g_OfflineTrade
  00032	e8 00 00 00 00	 call	 ?Load@OfflineTrade@@QAEXXZ ; OfflineTrade::Load

; 82   : #endif
; 83   : 
; 84   : #if( ENABLETEST_ITEMUPGRADEJEWELS == 1 )
; 85   : 	g_ItemUpgradeJewels.Load();

  00037	b9 00 00 00 00	 mov	 ecx, OFFSET ?g_ItemUpgradeJewels@@3VItemUpgradeJewels@@A ; g_ItemUpgradeJewels
  0003c	e8 00 00 00 00	 call	 ?Load@ItemUpgradeJewels@@QAEXXZ ; ItemUpgradeJewels::Load

; 86   : #endif
; 87   : 	g_ClassCalc.Load();

  00041	b9 00 00 00 00	 mov	 ecx, OFFSET ?g_ClassCalc@@3VClassCalc@@A ; g_ClassCalc
  00046	e8 00 00 00 00	 call	 ?Load@ClassCalc@@QAEXXZ	; ClassCalc::Load

; 88   : 	g_ItemDropRate.Load();

  0004b	b9 00 00 00 00	 mov	 ecx, OFFSET ?g_ItemDropRate@@3VItemDropRate@@A ; g_ItemDropRate
  00050	e8 00 00 00 00	 call	 ?Load@ItemDropRate@@QAEXXZ ; ItemDropRate::Load

; 89   : 	g_ItemPrice.Load();

  00055	b9 00 00 00 00	 mov	 ecx, OFFSET ?g_ItemPrice@@3VItemPrice@@A ; g_ItemPrice
  0005a	e8 00 00 00 00	 call	 ?Load@ItemPrice@@QAEXXZ	; ItemPrice::Load

; 90   : 	g_Notice.Load();

  0005f	b9 00 00 00 00	 mov	 ecx, OFFSET ?g_Notice@@3VNotice@@A ; g_Notice
  00064	e8 00 00 00 00	 call	 ?Load@Notice@@QAEXXZ	; Notice::Load

; 91   : 	g_UserDieItemDrop.Load();

  00069	b9 00 00 00 00	 mov	 ecx, OFFSET ?g_UserDieItemDrop@@3VUserDieItemDrop@@A ; g_UserDieItemDrop
  0006e	e8 00 00 00 00	 call	 ?Load@UserDieItemDrop@@QAEXXZ ; UserDieItemDrop::Load

; 92   : 	g_CommandManager.Load();

  00073	b9 00 00 00 00	 mov	 ecx, OFFSET ?g_CommandManager@@3VCommandManager@@A ; g_CommandManager
  00078	e8 00 00 00 00	 call	 ?Load@CommandManager@@QAEXXZ ; CommandManager::Load

; 93   : 	gCMAttr.Load(gDirPath.GetNewPath(FILE_CUSTOM_MONSTERSTATINFO));

  0007d	68 00 00 00 00	 push	 OFFSET ??_C@_0BL@CIACHHKE@Custom?2MonsterStatInfo?4xml?$AA@
  00082	b9 00 00 00 00	 mov	 ecx, OFFSET ?gDirPath@@3VCDirPath@@A ; gDirPath
  00087	e8 00 00 00 00	 call	 ?GetNewPath@CDirPath@@QAEPADPAD@Z ; CDirPath::GetNewPath
  0008c	50		 push	 eax
  0008d	b9 00 00 00 00	 mov	 ecx, OFFSET ?gCMAttr@@3VCCustomMonsterAttr@@A ; gCMAttr
  00092	e8 00 00 00 00	 call	 ?Load@CCustomMonsterAttr@@QAEXPAD@Z ; CCustomMonsterAttr::Load

; 94   : 	g_MapRateInfo.Load();

  00097	b9 00 00 00 00	 mov	 ecx, OFFSET ?g_MapRateInfo@@3VMapRateInfo@@A ; g_MapRateInfo
  0009c	e8 00 00 00 00	 call	 ?Load@MapRateInfo@@QAEXXZ ; MapRateInfo::Load

; 95   : 	g_BuffSkillEffect.Load();

  000a1	b9 00 00 00 00	 mov	 ecx, OFFSET ?g_BuffSkillEffect@@3VBuffSkillEffect@@A ; g_BuffSkillEffect
  000a6	e8 00 00 00 00	 call	 ?Load@BuffSkillEffect@@QAEXXZ ; BuffSkillEffect::Load

; 96   : #if( ENABLETEST_CHAOSMACHINEMNGR == 1 )
; 97   : 	g_ChaosMachineManager.Load();
; 98   : #endif
; 99   : #if( __4GAMERS__ == 1 )
; 100  : 	g_ExtraClassBalance.Load();
; 101  : 	g_Achievements.Load();
; 102  : #endif
; 103  : #ifdef POINTEX
; 104  : 	g_ShopPointEx.Load();
; 105  : #endif
; 106  : #if( ENABLE_CUSTOM_HARDCORE == 1 )
; 107  : 	g_HardcoreMode.Load();

  000ab	b9 00 00 00 00	 mov	 ecx, OFFSET ?g_HardcoreMode@@3VHardcoreMode@@A ; g_HardcoreMode
  000b0	e8 00 00 00 00	 call	 ?Load@HardcoreMode@@QAEXXZ ; HardcoreMode::Load

; 108  : #endif//ENABLE_CUSTOM_HARDCORE
; 109  : #if( ENABLETEST_MONSTERMONEYDROP == 1 )
; 110  : 	g_MonsterMoneyDrop.Load();

  000b5	b9 00 00 00 00	 mov	 ecx, OFFSET ?g_MonsterMoneyDrop@@3VMonsterMoneyDrop@@A ; g_MonsterMoneyDrop
  000ba	e8 00 00 00 00	 call	 ?Load@MonsterMoneyDrop@@QAEXXZ ; MonsterMoneyDrop::Load

; 111  : #endif//ENABLETEST_MONSTERMONEYDROP
; 112  : 	g_ResetSystem.Load();

  000bf	b9 00 00 00 00	 mov	 ecx, OFFSET ?g_ResetSystem@@3VResetSystem@@A ; g_ResetSystem
  000c4	e8 00 00 00 00	 call	 ?Load@ResetSystem@@QAEXXZ ; ResetSystem::Load

; 113  : 
; 114  : #if (ENABLETEST_CHEATGUARD == 1)
; 115  : 	g_CheatGuard.Load();

  000c9	b9 00 00 00 00	 mov	 ecx, OFFSET ?g_CheatGuard@@3VCheatGuard@@A ; g_CheatGuard
  000ce	e8 00 00 00 00	 call	 ?Load@CheatGuard@@QAEXXZ ; CheatGuard::Load

; 116  : #endif
; 117  : 
; 118  : #if (ENABLE_CUSTOM_PVPBALANCE == 1)
; 119  : 	g_PvPBalance.Load();

  000d3	b9 00 00 00 00	 mov	 ecx, OFFSET ?g_PvPBalance@@3VPvPBalance@@A ; g_PvPBalance
  000d8	e8 00 00 00 00	 call	 ?Load@PvPBalance@@QAEXXZ ; PvPBalance::Load
; File c:\users\michel\desktop\source\gameserver\source\monsterspawner.h

; 138  : 		if (m_Instance == NULL) {

  000dd	a1 00 00 00 00	 mov	 eax, DWORD PTR ?m_Instance@MonsterSpawnerMng@@0PAV1@A ; MonsterSpawnerMng::m_Instance
  000e2	85 c0		 test	 eax, eax
  000e4	75 2f		 jne	 SHORT $LN4@Load

; 139  : 			m_Instance = new MonsterSpawnerMng();

  000e6	6a 1c		 push	 28			; 0000001cH
  000e8	e8 00 00 00 00	 call	 ??2@YAPAXI@Z		; operator new
  000ed	83 c4 04	 add	 esp, 4
  000f0	89 45 f0	 mov	 DWORD PTR $T2[ebp], eax
  000f3	c7 45 fc 00 00
	00 00		 mov	 DWORD PTR __$EHRec$[ebp+8], 0
  000fa	85 c0		 test	 eax, eax
  000fc	74 09		 je	 SHORT $LN6@Load
  000fe	8b c8		 mov	 ecx, eax
  00100	e8 00 00 00 00	 call	 ??0MonsterSpawnerMng@@QAE@XZ ; MonsterSpawnerMng::MonsterSpawnerMng
  00105	eb 02		 jmp	 SHORT $LN7@Load
$LN6@Load:
  00107	33 c0		 xor	 eax, eax
$LN7@Load:
  00109	c7 45 fc ff ff
	ff ff		 mov	 DWORD PTR __$EHRec$[ebp+8], -1
  00110	a3 00 00 00 00	 mov	 DWORD PTR ?m_Instance@MonsterSpawnerMng@@0PAV1@A, eax ; MonsterSpawnerMng::m_Instance
$LN4@Load:
; File c:\users\michel\desktop\source\gameserver\source\custommanager.cpp

; 123  : 	MonsterSpawnerMng::getInstance()->Load();

  00115	8b c8		 mov	 ecx, eax
  00117	e8 00 00 00 00	 call	 ?Load@MonsterSpawnerMng@@QAEXXZ ; MonsterSpawnerMng::Load

; 124  : #endif
; 125  : 	VM_END
; 126  : }

  0011c	8b 4d f4	 mov	 ecx, DWORD PTR __$EHRec$[ebp]
  0011f	64 89 0d 00 00
	00 00		 mov	 DWORD PTR fs:0, ecx
  00126	59		 pop	 ecx
  00127	8b e5		 mov	 esp, ebp
  00129	5d		 pop	 ebp
  0012a	c3		 ret	 0
_TEXT	ENDS
;	COMDAT text$x
text$x	SEGMENT
__unwindfunclet$?Load@CustomManager@@QAEXXZ$0:
  00000	6a 1c		 push	 28			; 0000001cH
  00002	8b 45 f0	 mov	 eax, DWORD PTR $T2[ebp]
  00005	50		 push	 eax
  00006	e8 00 00 00 00	 call	 ??3@YAXPAXI@Z		; operator delete
  0000b	83 c4 08	 add	 esp, 8
  0000e	c3		 ret	 0
__ehhandler$?Load@CustomManager@@QAEXXZ:
  0000f	8b 54 24 08	 mov	 edx, DWORD PTR [esp+8]
  00013	8d 42 0c	 lea	 eax, DWORD PTR [edx+12]
  00016	8b 4a f8	 mov	 ecx, DWORD PTR [edx-8]
  00019	33 c8		 xor	 ecx, eax
  0001b	e8 00 00 00 00	 call	 @__security_check_cookie@4
  00020	b8 00 00 00 00	 mov	 eax, OFFSET __ehfuncinfo$?Load@CustomManager@@QAEXXZ
  00025	e9 00 00 00 00	 jmp	 ___CxxFrameHandler3
text$x	ENDS
?Load@CustomManager@@QAEXXZ ENDP			; CustomManager::Load
; Function compile flags: /Ogtp
; File c:\users\michel\desktop\source\gameserver\source\custommanager.cpp
;	COMDAT ??1CustomManager@@UAE@XZ
_TEXT	SEGMENT
??1CustomManager@@UAE@XZ PROC				; CustomManager::~CustomManager, COMDAT
; _this$ = ecx

; 64   : {

  00000	c7 01 00 00 00
	00		 mov	 DWORD PTR [ecx], OFFSET ??_7CustomManager@@6B@

; 65   : 
; 66   : }

  00006	c3		 ret	 0
??1CustomManager@@UAE@XZ ENDP				; CustomManager::~CustomManager
_TEXT	ENDS
; Function compile flags: /Ogtp
; File c:\users\michel\desktop\source\gameserver\source\custommanager.cpp
;	COMDAT ??0CustomManager@@QAE@XZ
_TEXT	SEGMENT
??0CustomManager@@QAE@XZ PROC				; CustomManager::CustomManager, COMDAT
; _this$ = ecx

; 58   : {

  00000	c7 01 00 00 00
	00		 mov	 DWORD PTR [ecx], OFFSET ??_7CustomManager@@6B@

; 59   : 
; 60   : }

  00006	8b c1		 mov	 eax, ecx
  00008	c3		 ret	 0
??0CustomManager@@QAE@XZ ENDP				; CustomManager::CustomManager
_TEXT	ENDS
; Function compile flags: /Ogtp
; File c:\users\michel\desktop\source\gameserver\source\custommanager.cpp
;	COMDAT ?__empty_global_delete@@YAXPAXI@Z
_TEXT	SEGMENT
___formal$ = 8						; size = 4
___formal$ = 12						; size = 4
?__empty_global_delete@@YAXPAXI@Z PROC			; __empty_global_delete, COMDAT

; 128  : // -------------------------------------------------------------------------------

  00000	c3		 ret	 0
?__empty_global_delete@@YAXPAXI@Z ENDP			; __empty_global_delete
_TEXT	ENDS
; Function compile flags: /Ogtp
; File c:\users\michel\desktop\source\gameserver\source\custommanager.cpp
;	COMDAT ?__empty_global_delete@@YAXPAX@Z
_TEXT	SEGMENT
___formal$ = 8						; size = 4
?__empty_global_delete@@YAXPAX@Z PROC			; __empty_global_delete, COMDAT

; 128  : // -------------------------------------------------------------------------------

  00000	c3		 ret	 0
?__empty_global_delete@@YAXPAX@Z ENDP			; __empty_global_delete
_TEXT	ENDS
END
