; Listing generated by Microsoft (R) Optimizing Compiler Version 19.00.23506.0 

	TITLE	C:\Users\Michel\Desktop\Source\GameServer\Source\DirPath.cpp
	.686P
	.XMM
	include listing.inc
	.model	flat

INCLUDELIB LIBCMT
INCLUDELIB OLDNAMES

PUBLIC	?__empty_global_delete@@YAXPAX@Z		; __empty_global_delete
PUBLIC	?__empty_global_delete@@YAXPAXI@Z		; __empty_global_delete
PUBLIC	??0CDirPath@@QAE@XZ				; CDirPath::CDirPath
PUBLIC	??1CDirPath@@UAE@XZ				; CDirPath::~CDirPath
PUBLIC	?SetFirstPath@CDirPath@@QAEXPAD@Z		; CDirPath::SetFirstPath
PUBLIC	?GetNewPath@CDirPath@@QAEPADPAD@Z		; CDirPath::GetNewPath
PUBLIC	??_GCDirPath@@UAEPAXI@Z				; CDirPath::`scalar deleting destructor'
PUBLIC	??_7CDirPath@@6B@				; CDirPath::`vftable'
PUBLIC	??_R4CDirPath@@6B@				; CDirPath::`RTTI Complete Object Locator'
PUBLIC	??_R0?AVCDirPath@@@8				; CDirPath `RTTI Type Descriptor'
PUBLIC	??_R3CDirPath@@8				; CDirPath::`RTTI Class Hierarchy Descriptor'
PUBLIC	??_R2CDirPath@@8				; CDirPath::`RTTI Base Class Array'
PUBLIC	??_R1A@?0A@EA@CDirPath@@8			; CDirPath::`RTTI Base Class Descriptor at (0,-1,0,64)'
EXTRN	??3@YAXPAXI@Z:PROC				; operator delete
EXTRN	??_ECDirPath@@UAEPAXI@Z:PROC			; CDirPath::`vector deleting destructor'
EXTRN	??_7type_info@@6B@:QWORD			; type_info::`vftable'
;	COMDAT ??_R1A@?0A@EA@CDirPath@@8
rdata$r	SEGMENT
??_R1A@?0A@EA@CDirPath@@8 DD FLAT:??_R0?AVCDirPath@@@8	; CDirPath::`RTTI Base Class Descriptor at (0,-1,0,64)'
	DD	00H
	DD	00H
	DD	0ffffffffH
	DD	00H
	DD	040H
	DD	FLAT:??_R3CDirPath@@8
rdata$r	ENDS
;	COMDAT ??_R2CDirPath@@8
rdata$r	SEGMENT
??_R2CDirPath@@8 DD FLAT:??_R1A@?0A@EA@CDirPath@@8	; CDirPath::`RTTI Base Class Array'
rdata$r	ENDS
;	COMDAT ??_R3CDirPath@@8
rdata$r	SEGMENT
??_R3CDirPath@@8 DD 00H					; CDirPath::`RTTI Class Hierarchy Descriptor'
	DD	00H
	DD	01H
	DD	FLAT:??_R2CDirPath@@8
rdata$r	ENDS
;	COMDAT ??_R0?AVCDirPath@@@8
data$r	SEGMENT
??_R0?AVCDirPath@@@8 DD FLAT:??_7type_info@@6B@		; CDirPath `RTTI Type Descriptor'
	DD	00H
	DB	'.?AVCDirPath@@', 00H
data$r	ENDS
;	COMDAT ??_R4CDirPath@@6B@
rdata$r	SEGMENT
??_R4CDirPath@@6B@ DD 00H				; CDirPath::`RTTI Complete Object Locator'
	DD	00H
	DD	00H
	DD	FLAT:??_R0?AVCDirPath@@@8
	DD	FLAT:??_R3CDirPath@@8
rdata$r	ENDS
;	COMDAT ??_7CDirPath@@6B@
CONST	SEGMENT
??_7CDirPath@@6B@ DD FLAT:??_R4CDirPath@@6B@		; CDirPath::`vftable'
	DD	FLAT:??_ECDirPath@@UAEPAXI@Z
CONST	ENDS
; Function compile flags: /Ogtp
;	COMDAT ??_GCDirPath@@UAEPAXI@Z
_TEXT	SEGMENT
___flags$ = 8						; size = 4
??_GCDirPath@@UAEPAXI@Z PROC				; CDirPath::`scalar deleting destructor', COMDAT
; _this$ = ecx
  00000	55		 push	 ebp
  00001	8b ec		 mov	 ebp, esp
  00003	56		 push	 esi
  00004	8b f1		 mov	 esi, ecx
  00006	e8 00 00 00 00	 call	 ??1CDirPath@@UAE@XZ	; CDirPath::~CDirPath
  0000b	f6 45 08 01	 test	 BYTE PTR ___flags$[ebp], 1
  0000f	74 0e		 je	 SHORT $LN4@scalar
  00011	68 0c 02 00 00	 push	 524			; 0000020cH
  00016	56		 push	 esi
  00017	e8 00 00 00 00	 call	 ??3@YAXPAXI@Z		; operator delete
  0001c	83 c4 08	 add	 esp, 8
$LN4@scalar:
  0001f	8b c6		 mov	 eax, esi
  00021	5e		 pop	 esi
  00022	5d		 pop	 ebp
  00023	c2 04 00	 ret	 4
??_GCDirPath@@UAEPAXI@Z ENDP				; CDirPath::`scalar deleting destructor'
_TEXT	ENDS
; Function compile flags: /Ogtp
; File c:\users\michel\desktop\source\gameserver\source\dirpath.cpp
;	COMDAT ?GetNewPath@CDirPath@@QAEPADPAD@Z
_TEXT	SEGMENT
_npath$ = 8						; size = 4
?GetNewPath@CDirPath@@QAEPADPAD@Z PROC			; CDirPath::GetNewPath, COMDAT
; _this$ = ecx

; 28   : {

  00000	55		 push	 ebp
  00001	8b ec		 mov	 ebp, esp
  00003	53		 push	 ebx

; 29   : 	strcpy(this->m_newpath ,this->m_path);	// NULL

  00004	8d 99 08 01 00
	00		 lea	 ebx, DWORD PTR [ecx+264]
  0000a	56		 push	 esi
  0000b	8d 41 04	 lea	 eax, DWORD PTR [ecx+4]
  0000e	8b d3		 mov	 edx, ebx
  00010	57		 push	 edi
  00011	2b d0		 sub	 edx, eax
$LL3@GetNewPath:
  00013	8a 08		 mov	 cl, BYTE PTR [eax]
  00015	8d 40 01	 lea	 eax, DWORD PTR [eax+1]
  00018	88 4c 02 ff	 mov	 BYTE PTR [edx+eax-1], cl
  0001c	84 c9		 test	 cl, cl
  0001e	75 f3		 jne	 SHORT $LL3@GetNewPath

; 30   : 	strcat(this->m_newpath,npath);	// Derived Path

  00020	8b 55 08	 mov	 edx, DWORD PTR _npath$[ebp]
  00023	8b f2		 mov	 esi, edx
$LL7@GetNewPath:
  00025	8a 02		 mov	 al, BYTE PTR [edx]
  00027	42		 inc	 edx
  00028	84 c0		 test	 al, al
  0002a	75 f9		 jne	 SHORT $LL7@GetNewPath
  0002c	2b d6		 sub	 edx, esi
  0002e	8d 7b ff	 lea	 edi, DWORD PTR [ebx-1]
$LL8@GetNewPath:
  00031	8a 47 01	 mov	 al, BYTE PTR [edi+1]
  00034	47		 inc	 edi
  00035	84 c0		 test	 al, al
  00037	75 f8		 jne	 SHORT $LL8@GetNewPath
  00039	8b ca		 mov	 ecx, edx

; 31   : 
; 32   : 	return this->m_newpath;

  0003b	8b c3		 mov	 eax, ebx
  0003d	c1 e9 02	 shr	 ecx, 2
  00040	f3 a5		 rep movsd
  00042	8b ca		 mov	 ecx, edx
  00044	83 e1 03	 and	 ecx, 3
  00047	f3 a4		 rep movsb
  00049	5f		 pop	 edi
  0004a	5e		 pop	 esi
  0004b	5b		 pop	 ebx

; 33   : }

  0004c	5d		 pop	 ebp
  0004d	c2 04 00	 ret	 4
?GetNewPath@CDirPath@@QAEPADPAD@Z ENDP			; CDirPath::GetNewPath
_TEXT	ENDS
; Function compile flags: /Ogtp
; File c:\users\michel\desktop\source\gameserver\source\dirpath.cpp
;	COMDAT ?SetFirstPath@CDirPath@@QAEXPAD@Z
_TEXT	SEGMENT
_dir_path$ = 8						; size = 4
?SetFirstPath@CDirPath@@QAEXPAD@Z PROC			; CDirPath::SetFirstPath, COMDAT
; _this$ = ecx

; 23   : {

  00000	55		 push	 ebp
  00001	8b ec		 mov	 ebp, esp

; 24   : 	strcpy(this->m_path ,dir_path);

  00003	8b 45 08	 mov	 eax, DWORD PTR _dir_path$[ebp]
  00006	8d 51 04	 lea	 edx, DWORD PTR [ecx+4]
  00009	2b d0		 sub	 edx, eax
  0000b	0f 1f 44 00 00	 npad	 5
$LL3@SetFirstPa:
  00010	8a 08		 mov	 cl, BYTE PTR [eax]
  00012	8d 40 01	 lea	 eax, DWORD PTR [eax+1]
  00015	88 4c 02 ff	 mov	 BYTE PTR [edx+eax-1], cl
  00019	84 c9		 test	 cl, cl
  0001b	75 f3		 jne	 SHORT $LL3@SetFirstPa

; 25   : }

  0001d	5d		 pop	 ebp
  0001e	c2 04 00	 ret	 4
?SetFirstPath@CDirPath@@QAEXPAD@Z ENDP			; CDirPath::SetFirstPath
_TEXT	ENDS
; Function compile flags: /Ogtp
; File c:\users\michel\desktop\source\gameserver\source\dirpath.cpp
;	COMDAT ??1CDirPath@@UAE@XZ
_TEXT	SEGMENT
??1CDirPath@@UAE@XZ PROC				; CDirPath::~CDirPath, COMDAT
; _this$ = ecx

; 18   : {

  00000	c7 01 00 00 00
	00		 mov	 DWORD PTR [ecx], OFFSET ??_7CDirPath@@6B@

; 19   : 
; 20   : }

  00006	c3		 ret	 0
??1CDirPath@@UAE@XZ ENDP				; CDirPath::~CDirPath
_TEXT	ENDS
; Function compile flags: /Ogtp
; File c:\users\michel\desktop\source\gameserver\source\dirpath.cpp
;	COMDAT ??0CDirPath@@QAE@XZ
_TEXT	SEGMENT
??0CDirPath@@QAE@XZ PROC				; CDirPath::CDirPath, COMDAT
; _this$ = ecx

; 13   : {

  00000	c7 01 00 00 00
	00		 mov	 DWORD PTR [ecx], OFFSET ??_7CDirPath@@6B@

; 14   : 
; 15   : }

  00006	8b c1		 mov	 eax, ecx
  00008	c3		 ret	 0
??0CDirPath@@QAE@XZ ENDP				; CDirPath::CDirPath
_TEXT	ENDS
; Function compile flags: /Ogtp
; File c:\users\michel\desktop\source\gameserver\source\dirpath.cpp
;	COMDAT ?__empty_global_delete@@YAXPAXI@Z
_TEXT	SEGMENT
___formal$ = 8						; size = 4
___formal$ = 12						; size = 4
?__empty_global_delete@@YAXPAXI@Z PROC			; __empty_global_delete, COMDAT

; 35   : //

  00000	c3		 ret	 0
?__empty_global_delete@@YAXPAXI@Z ENDP			; __empty_global_delete
_TEXT	ENDS
; Function compile flags: /Ogtp
; File c:\users\michel\desktop\source\gameserver\source\dirpath.cpp
;	COMDAT ?__empty_global_delete@@YAXPAX@Z
_TEXT	SEGMENT
___formal$ = 8						; size = 4
?__empty_global_delete@@YAXPAX@Z PROC			; __empty_global_delete, COMDAT

; 35   : //

  00000	c3		 ret	 0
?__empty_global_delete@@YAXPAX@Z ENDP			; __empty_global_delete
_TEXT	ENDS
END
