; Listing generated by Microsoft (R) Optimizing Compiler Version 19.00.23506.0 

	TITLE	C:\Users\Michel\Desktop\Source\GameServer\Source\DragonEvent.cpp
	.686P
	.XMM
	include listing.inc
	.model	flat

INCLUDELIB LIBCMT
INCLUDELIB OLDNAMES

PUBLIC	?__empty_global_delete@@YAXPAX@Z		; __empty_global_delete
PUBLIC	?__empty_global_delete@@YAXPAXI@Z		; __empty_global_delete
PUBLIC	??0CDragonEvent@@QAE@XZ				; CDragonEvent::CDragonEvent
PUBLIC	??1CDragonEvent@@UAE@XZ				; CDragonEvent::~CDragonEvent
PUBLIC	?Init@CDragonEvent@@QAEXXZ			; CDragonEvent::Init
PUBLIC	?Start@CDragonEvent@@QAEXXZ			; CDragonEvent::Start
PUBLIC	?End@CDragonEvent@@QAEXXZ			; CDragonEvent::End
PUBLIC	?Run@CDragonEvent@@QAEXXZ			; CDragonEvent::Run
PUBLIC	?DragonActive@CDragonEvent@@QAEXXZ		; CDragonEvent::DragonActive
PUBLIC	?Start_Menual@CDragonEvent@@QAEXXZ		; CDragonEvent::Start_Menual
PUBLIC	?End_Menual@CDragonEvent@@QAEXXZ		; CDragonEvent::End_Menual
PUBLIC	??_GCDragonEvent@@UAEPAXI@Z			; CDragonEvent::`scalar deleting destructor'
PUBLIC	??1OBJECTSTRUCT@@QAE@XZ				; OBJECTSTRUCT::~OBJECTSTRUCT
PUBLIC	??_EOBJECTSTRUCT@@QAEPAXI@Z			; OBJECTSTRUCT::`vector deleting destructor'
PUBLIC	??_7CDragonEvent@@6B@				; CDragonEvent::`vftable'
PUBLIC	??_C@_03DMLAHEJO@?$KB?Y?5?$AA@			; `string'
PUBLIC	??_C@_0M@JPEAEJLO@Event?51?5End?$AA@		; `string'
PUBLIC	??_C@_0O@KHDGKEEO@Event?5Start?51?$AA@		; `string'
PUBLIC	??_C@_0CN@HLGGPDEG@?$KB?$NL?$KB?$NM?$FLEvent?5Management?$FN?5?$FLStart?$FN?5D@ ; `string'
PUBLIC	??_R4CDragonEvent@@6B@				; CDragonEvent::`RTTI Complete Object Locator'
PUBLIC	??_R0?AVCDragonEvent@@@8			; CDragonEvent `RTTI Type Descriptor'
PUBLIC	??_R3CDragonEvent@@8				; CDragonEvent::`RTTI Class Hierarchy Descriptor'
PUBLIC	??_R2CDragonEvent@@8				; CDragonEvent::`RTTI Base Class Array'
PUBLIC	??_R1A@?0A@EA@CDragonEvent@@8			; CDragonEvent::`RTTI Base Class Descriptor at (0,-1,0,64)'
EXTRN	??_M@YGXPAXIIP6EX0@Z@Z:PROC			; `eh vector destructor iterator'
EXTRN	??3@YAXPAXI@Z:PROC				; operator delete
EXTRN	??_V@YAXPAXI@Z:PROC				; operator delete[]
EXTRN	__imp__GetTickCount@0:PROC
EXTRN	_rand:PROC
EXTRN	?Get@Message@@QAEPADH@Z:PROC			; Message::Get
EXTRN	??_ECDragonEvent@@UAEPAXI@Z:PROC		; CDragonEvent::`vector deleting destructor'
EXTRN	??1CSkillDelay@@UAE@XZ:PROC			; CSkillDelay::~CSkillDelay
EXTRN	??1TMonsterAIAgro@@UAE@XZ:PROC			; TMonsterAIAgro::~TMonsterAIAgro
EXTRN	?AllSendServerMsg@@YAXPAD@Z:PROC		; AllSendServerMsg
EXTRN	?GCMapEventStateSend@@YAXHEE@Z:PROC		; GCMapEventStateSend
EXTRN	?GetBoxPosition@CMonsterSetBase@@QAEHHHHHHAAE0@Z:PROC ; CMonsterSetBase::GetBoxPosition
EXTRN	@__security_check_cookie@4:PROC
EXTRN	___CxxFrameHandler3:PROC
EXTRN	??_7type_info@@6B@:QWORD			; type_info::`vftable'
EXTRN	?lMsg@@3VMessage@@A:BYTE			; lMsg
EXTRN	?LogAdd@@3P6AXPADZZA:DWORD			; LogAdd
EXTRN	?LogAddTD@@3P6AXPADZZA:DWORD			; LogAddTD
EXTRN	?gObj@@3PAUOBJECTSTRUCT@@A:DWORD		; gObj
EXTRN	?gMSetBase@@3VCMonsterSetBase@@A:BYTE		; gMSetBase
EXTRN	___security_cookie:DWORD
;	COMDAT ??_R1A@?0A@EA@CDragonEvent@@8
rdata$r	SEGMENT
??_R1A@?0A@EA@CDragonEvent@@8 DD FLAT:??_R0?AVCDragonEvent@@@8 ; CDragonEvent::`RTTI Base Class Descriptor at (0,-1,0,64)'
	DD	00H
	DD	00H
	DD	0ffffffffH
	DD	00H
	DD	040H
	DD	FLAT:??_R3CDragonEvent@@8
rdata$r	ENDS
;	COMDAT ??_R2CDragonEvent@@8
rdata$r	SEGMENT
??_R2CDragonEvent@@8 DD FLAT:??_R1A@?0A@EA@CDragonEvent@@8 ; CDragonEvent::`RTTI Base Class Array'
rdata$r	ENDS
;	COMDAT ??_R3CDragonEvent@@8
rdata$r	SEGMENT
??_R3CDragonEvent@@8 DD 00H				; CDragonEvent::`RTTI Class Hierarchy Descriptor'
	DD	00H
	DD	01H
	DD	FLAT:??_R2CDragonEvent@@8
rdata$r	ENDS
;	COMDAT ??_R0?AVCDragonEvent@@@8
data$r	SEGMENT
??_R0?AVCDragonEvent@@@8 DD FLAT:??_7type_info@@6B@	; CDragonEvent `RTTI Type Descriptor'
	DD	00H
	DB	'.?AVCDragonEvent@@', 00H
data$r	ENDS
;	COMDAT ??_R4CDragonEvent@@6B@
rdata$r	SEGMENT
??_R4CDragonEvent@@6B@ DD 00H				; CDragonEvent::`RTTI Complete Object Locator'
	DD	00H
	DD	00H
	DD	FLAT:??_R0?AVCDragonEvent@@@8
	DD	FLAT:??_R3CDragonEvent@@8
rdata$r	ENDS
;	COMDAT ??_C@_0CN@HLGGPDEG@?$KB?$NL?$KB?$NM?$FLEvent?5Management?$FN?5?$FLStart?$FN?5D@
CONST	SEGMENT
??_C@_0CN@HLGGPDEG@?$KB?$NL?$KB?$NM?$FLEvent?5Management?$FN?5?$FLStart?$FN?5D@ DB 0a1H
	DB	0dbH, 0a1H, 0dcH, '[Event Management] [Start] Dragon Event!', 00H ; `string'
CONST	ENDS
;	COMDAT ??_C@_0O@KHDGKEEO@Event?5Start?51?$AA@
CONST	SEGMENT
??_C@_0O@KHDGKEEO@Event?5Start?51?$AA@ DB 'Event Start 1', 00H ; `string'
CONST	ENDS
;	COMDAT ??_C@_0M@JPEAEJLO@Event?51?5End?$AA@
CONST	SEGMENT
??_C@_0M@JPEAEJLO@Event?51?5End?$AA@ DB 'Event 1 End', 00H ; `string'
CONST	ENDS
;	COMDAT ??_C@_03DMLAHEJO@?$KB?Y?5?$AA@
CONST	SEGMENT
??_C@_03DMLAHEJO@?$KB?Y?5?$AA@ DB 0a1H, 0d9H, ' ', 00H	; `string'
CONST	ENDS
;	COMDAT ??_7CDragonEvent@@6B@
CONST	SEGMENT
??_7CDragonEvent@@6B@ DD FLAT:??_R4CDragonEvent@@6B@	; CDragonEvent::`vftable'
	DD	FLAT:??_ECDragonEvent@@UAEPAXI@Z
CONST	ENDS
;	COMDAT xdata$x
xdata$x	SEGMENT
__ehfuncinfo$??_EOBJECTSTRUCT@@QAEPAXI@Z DD 019930522H
	DD	00H
	DD	00H
	DD	2 DUP(00H)
	DD	2 DUP(00H)
	DD	00H
	DD	05H
xdata$x	ENDS
; Function compile flags: /Ogtp
;	COMDAT ??_EOBJECTSTRUCT@@QAEPAXI@Z
_TEXT	SEGMENT
__$EHRec$ = -12						; size = 12
___flags$ = 8						; size = 4
??_EOBJECTSTRUCT@@QAEPAXI@Z PROC			; OBJECTSTRUCT::`vector deleting destructor', COMDAT
; _this$ = ecx
  00000	55		 push	 ebp
  00001	8b ec		 mov	 ebp, esp
  00003	6a ff		 push	 -1
  00005	68 00 00 00 00	 push	 __ehhandler$??_EOBJECTSTRUCT@@QAEPAXI@Z
  0000a	64 a1 00 00 00
	00		 mov	 eax, DWORD PTR fs:0
  00010	50		 push	 eax
  00011	53		 push	 ebx
  00012	56		 push	 esi
  00013	57		 push	 edi
  00014	a1 00 00 00 00	 mov	 eax, DWORD PTR ___security_cookie
  00019	33 c5		 xor	 eax, ebp
  0001b	50		 push	 eax
  0001c	8d 45 f4	 lea	 eax, DWORD PTR __$EHRec$[ebp]
  0001f	64 a3 00 00 00
	00		 mov	 DWORD PTR fs:0, eax
  00025	8b f1		 mov	 esi, ecx
  00027	8b 5d 08	 mov	 ebx, DWORD PTR ___flags$[ebp]
  0002a	f6 c3 02	 test	 bl, 2
  0002d	74 44		 je	 SHORT $LN2@vector
  0002f	68 00 00 00 00	 push	 OFFSET ??1OBJECTSTRUCT@@QAE@XZ
  00034	ff 76 fc	 push	 DWORD PTR [esi-4]
  00037	8d 7e fc	 lea	 edi, DWORD PTR [esi-4]
  0003a	68 40 27 00 00	 push	 10048			; 00002740H
  0003f	56		 push	 esi
  00040	e8 00 00 00 00	 call	 ??_M@YGXPAXIIP6EX0@Z@Z
  00045	f6 c3 01	 test	 bl, 1
  00048	74 13		 je	 SHORT $LN3@vector
  0004a	69 0f 40 27 00
	00		 imul	 ecx, DWORD PTR [edi], 10048
  00050	83 c1 04	 add	 ecx, 4
  00053	51		 push	 ecx
  00054	57		 push	 edi
  00055	e8 00 00 00 00	 call	 ??_V@YAXPAXI@Z		; operator delete[]
  0005a	83 c4 08	 add	 esp, 8
$LN3@vector:
  0005d	8b c7		 mov	 eax, edi
  0005f	8b 4d f4	 mov	 ecx, DWORD PTR __$EHRec$[ebp]
  00062	64 89 0d 00 00
	00 00		 mov	 DWORD PTR fs:0, ecx
  00069	59		 pop	 ecx
  0006a	5f		 pop	 edi
  0006b	5e		 pop	 esi
  0006c	5b		 pop	 ebx
  0006d	8b e5		 mov	 esp, ebp
  0006f	5d		 pop	 ebp
  00070	c2 04 00	 ret	 4
$LN2@vector:
  00073	8d 8e ec 20 00
	00		 lea	 ecx, DWORD PTR [esi+8428]
  00079	e8 00 00 00 00	 call	 ??1TMonsterAIAgro@@UAE@XZ ; TMonsterAIAgro::~TMonsterAIAgro
  0007e	8d 8e 0c 16 00
	00		 lea	 ecx, DWORD PTR [esi+5644]
  00084	e8 00 00 00 00	 call	 ??1CSkillDelay@@UAE@XZ	; CSkillDelay::~CSkillDelay
  00089	f6 c3 01	 test	 bl, 1
  0008c	74 0e		 je	 SHORT $LN4@vector
  0008e	68 40 27 00 00	 push	 10048			; 00002740H
  00093	56		 push	 esi
  00094	e8 00 00 00 00	 call	 ??3@YAXPAXI@Z		; operator delete
  00099	83 c4 08	 add	 esp, 8
$LN4@vector:
  0009c	8b c6		 mov	 eax, esi
  0009e	8b 4d f4	 mov	 ecx, DWORD PTR __$EHRec$[ebp]
  000a1	64 89 0d 00 00
	00 00		 mov	 DWORD PTR fs:0, ecx
  000a8	59		 pop	 ecx
  000a9	5f		 pop	 edi
  000aa	5e		 pop	 esi
  000ab	5b		 pop	 ebx
  000ac	8b e5		 mov	 esp, ebp
  000ae	5d		 pop	 ebp
  000af	c2 04 00	 ret	 4
_TEXT	ENDS
;	COMDAT text$x
text$x	SEGMENT
__ehhandler$??_EOBJECTSTRUCT@@QAEPAXI@Z:
  00000	8b 54 24 08	 mov	 edx, DWORD PTR [esp+8]
  00004	8d 42 0c	 lea	 eax, DWORD PTR [edx+12]
  00007	8b 4a f0	 mov	 ecx, DWORD PTR [edx-16]
  0000a	33 c8		 xor	 ecx, eax
  0000c	e8 00 00 00 00	 call	 @__security_check_cookie@4
  00011	b8 00 00 00 00	 mov	 eax, OFFSET __ehfuncinfo$??_EOBJECTSTRUCT@@QAEPAXI@Z
  00016	e9 00 00 00 00	 jmp	 ___CxxFrameHandler3
text$x	ENDS
??_EOBJECTSTRUCT@@QAEPAXI@Z ENDP			; OBJECTSTRUCT::`vector deleting destructor'
; Function compile flags: /Ogtp
;	COMDAT ??1OBJECTSTRUCT@@QAE@XZ
_TEXT	SEGMENT
??1OBJECTSTRUCT@@QAE@XZ PROC				; OBJECTSTRUCT::~OBJECTSTRUCT, COMDAT
; _this$ = ecx
  00000	56		 push	 esi
  00001	8b f1		 mov	 esi, ecx
  00003	8d 8e ec 20 00
	00		 lea	 ecx, DWORD PTR [esi+8428]
  00009	e8 00 00 00 00	 call	 ??1TMonsterAIAgro@@UAE@XZ ; TMonsterAIAgro::~TMonsterAIAgro
  0000e	8d 8e 0c 16 00
	00		 lea	 ecx, DWORD PTR [esi+5644]
  00014	5e		 pop	 esi
  00015	e9 00 00 00 00	 jmp	 ??1CSkillDelay@@UAE@XZ	; CSkillDelay::~CSkillDelay
??1OBJECTSTRUCT@@QAE@XZ ENDP				; OBJECTSTRUCT::~OBJECTSTRUCT
_TEXT	ENDS
; Function compile flags: /Ogtp
;	COMDAT ??_GCDragonEvent@@UAEPAXI@Z
_TEXT	SEGMENT
___flags$ = 8						; size = 4
??_GCDragonEvent@@UAEPAXI@Z PROC			; CDragonEvent::`scalar deleting destructor', COMDAT
; _this$ = ecx
  00000	55		 push	 ebp
  00001	8b ec		 mov	 ebp, esp
  00003	56		 push	 esi
  00004	8b f1		 mov	 esi, ecx
  00006	e8 00 00 00 00	 call	 ??1CDragonEvent@@UAE@XZ	; CDragonEvent::~CDragonEvent
  0000b	f6 45 08 01	 test	 BYTE PTR ___flags$[ebp], 1
  0000f	74 0b		 je	 SHORT $LN4@scalar
  00011	6a 14		 push	 20			; 00000014H
  00013	56		 push	 esi
  00014	e8 00 00 00 00	 call	 ??3@YAXPAXI@Z		; operator delete
  00019	83 c4 08	 add	 esp, 8
$LN4@scalar:
  0001c	8b c6		 mov	 eax, esi
  0001e	5e		 pop	 esi
  0001f	5d		 pop	 ebp
  00020	c2 04 00	 ret	 4
??_GCDragonEvent@@UAEPAXI@Z ENDP			; CDragonEvent::`scalar deleting destructor'
_TEXT	ENDS
; Function compile flags: /Ogtp
; File c:\users\michel\desktop\source\gameserver\source\dragonevent.cpp
; File c:\users\michel\desktop\source\gameserver\source\dragonevent.h
; File c:\users\michel\desktop\source\gameserver\source\dragonevent.cpp
;	COMDAT ?End_Menual@CDragonEvent@@QAEXXZ
_TEXT	SEGMENT
?End_Menual@CDragonEvent@@QAEXXZ PROC			; CDragonEvent::End_Menual, COMDAT
; _this$ = ecx
; File c:\users\michel\desktop\source\gameserver\source\dragonevent.h

; 27   : 	void SetMenualStart(BOOL bMenualStart){this->m_bMenualStart = bMenualStart;}

  00000	c7 41 10 00 00
	00 00		 mov	 DWORD PTR [ecx+16], 0
; File c:\users\michel\desktop\source\gameserver\source\dragonevent.cpp

; 205  : 	this->End();

  00007	e9 00 00 00 00	 jmp	 ?End@CDragonEvent@@QAEXXZ ; CDragonEvent::End
?End_Menual@CDragonEvent@@QAEXXZ ENDP			; CDragonEvent::End_Menual
_TEXT	ENDS
; Function compile flags: /Ogtp
; File c:\users\michel\desktop\source\gameserver\source\dragonevent.cpp
; File c:\users\michel\desktop\source\gameserver\source\dragonevent.h
; File c:\users\michel\desktop\source\gameserver\source\dragonevent.cpp
;	COMDAT ?Start_Menual@CDragonEvent@@QAEXXZ
_TEXT	SEGMENT
?Start_Menual@CDragonEvent@@QAEXXZ PROC			; CDragonEvent::Start_Menual, COMDAT
; _this$ = ecx

; 192  : {

  00000	56		 push	 esi
  00001	8b f1		 mov	 esi, ecx

; 194  : 	LogAddTD("¡Û¡Ü[Event Management] [Start] Dragon Event!");

  00003	68 00 00 00 00	 push	 OFFSET ??_C@_0CN@HLGGPDEG@?$KB?$NL?$KB?$NM?$FLEvent?5Management?$FN?5?$FLStart?$FN?5D@
; File c:\users\michel\desktop\source\gameserver\source\dragonevent.h

; 27   : 	void SetMenualStart(BOOL bMenualStart){this->m_bMenualStart = bMenualStart;}

  00008	c7 46 10 01 00
	00 00		 mov	 DWORD PTR [esi+16], 1
; File c:\users\michel\desktop\source\gameserver\source\dragonevent.cpp

; 194  : 	LogAddTD("¡Û¡Ü[Event Management] [Start] Dragon Event!");

  0000f	ff 15 00 00 00
	00		 call	 DWORD PTR ?LogAddTD@@3P6AXPADZZA ; LogAddTD
  00015	83 c4 04	 add	 esp, 4

; 195  : 	this->EventState=0;

  00018	c6 46 04 00	 mov	 BYTE PTR [esi+4], 0

; 196  : 	this->Start();

  0001c	8b ce		 mov	 ecx, esi
  0001e	5e		 pop	 esi
  0001f	e9 00 00 00 00	 jmp	 ?Start@CDragonEvent@@QAEXXZ ; CDragonEvent::Start
?Start_Menual@CDragonEvent@@QAEXXZ ENDP			; CDragonEvent::Start_Menual
_TEXT	ENDS
; Function compile flags: /Ogtp
; File c:\users\michel\desktop\source\gameserver\source\dragonevent.h
;	COMDAT ?SetMenualStart@CDragonEvent@@QAEXH@Z
_TEXT	SEGMENT
_bMenualStart$ = 8					; size = 4
?SetMenualStart@CDragonEvent@@QAEXH@Z PROC		; CDragonEvent::SetMenualStart, COMDAT
; _this$ = ecx

; 27   : 	void SetMenualStart(BOOL bMenualStart){this->m_bMenualStart = bMenualStart;}

  00000	55		 push	 ebp
  00001	8b ec		 mov	 ebp, esp
  00003	8b 45 08	 mov	 eax, DWORD PTR _bMenualStart$[ebp]
  00006	89 41 10	 mov	 DWORD PTR [ecx+16], eax
  00009	5d		 pop	 ebp
  0000a	c2 04 00	 ret	 4
?SetMenualStart@CDragonEvent@@QAEXH@Z ENDP		; CDragonEvent::SetMenualStart
_TEXT	ENDS
; Function compile flags: /Ogtp
; File c:\users\michel\desktop\source\gameserver\source\dragonevent.cpp
;	COMDAT ?DragonActive@CDragonEvent@@QAEXXZ
_TEXT	SEGMENT
?DragonActive@CDragonEvent@@QAEXXZ PROC			; CDragonEvent::DragonActive, COMDAT
; _this$ = ecx

; 88   : {

  00000	53		 push	 ebx
  00001	56		 push	 esi

; 89   : #if( __4GAMERS__ == 0 )
; 90   : 	for ( int n = 0; n<OBJ_MAXMONSTER ; n++)

  00002	33 f6		 xor	 esi, esi
  00004	57		 push	 edi
  00005	8b f9		 mov	 edi, ecx
  00007	8d 5e 03	 lea	 ebx, DWORD PTR [esi+3]
  0000a	66 0f 1f 44 00
	00		 npad	 6
$LL4@DragonActi:

; 91   : 	{
; 92   : 		if ( gObj[n].Class == 44 )

  00010	a1 00 00 00 00	 mov	 eax, DWORD PTR ?gObj@@3PAUOBJECTSTRUCT@@A ; gObj
  00015	66 83 bc 06 90
	00 00 00 2c	 cmp	 WORD PTR [esi+eax+144], 44 ; 0000002cH
  0001e	0f 85 7f 01 00
	00		 jne	 $LN2@DragonActi

; 93   : 		{
; 94   : 			gObj[n].Live = TRUE;

  00024	c6 44 06 51 01	 mov	 BYTE PTR [esi+eax+81], 1

; 95   : 			gObj[n].MapNumber = this->m_MapNumber;

  00029	a1 00 00 00 00	 mov	 eax, DWORD PTR ?gObj@@3PAUOBJECTSTRUCT@@A ; gObj
  0002e	8a 4f 0c	 mov	 cl, BYTE PTR [edi+12]
  00031	88 8c 06 23 01
	00 00		 mov	 BYTE PTR [esi+eax+291], cl

; 96   : 
; 97   : 			switch ( this->m_MapNumber )

  00038	0f b6 47 0c	 movzx	 eax, BYTE PTR [edi+12]
  0003c	83 e8 00	 sub	 eax, 0
  0003f	0f 84 cb 00 00
	00		 je	 $LN8@DragonActi
  00045	83 e8 02	 sub	 eax, 2
  00048	74 6c		 je	 SHORT $LN13@DragonActi
  0004a	83 e8 01	 sub	 eax, 1
  0004d	0f 85 40 01 00
	00		 jne	 $LN12@DragonActi

; 127  : 
; 128  : 				case MAP_INDEX_NORIA:
; 129  : 
; 130  : 					if ( (rand()%2) == 0 )

  00053	e8 00 00 00 00	 call	 _rand
  00058	25 01 00 00 80	 and	 eax, -2147483647	; 80000001H
  0005d	79 05		 jns	 SHORT $LN24@DragonActi
  0005f	48		 dec	 eax
  00060	83 c8 fe	 or	 eax, -2			; fffffffeH
  00063	40		 inc	 eax
$LN24@DragonActi:

; 131  : 					{
; 132  : 						gMSetBase.GetBoxPosition(this->m_MapNumber, 198, 161, 223, 175, gObj[n].X, gObj[n].Y);

  00064	8b 0d 00 00 00
	00		 mov	 ecx, DWORD PTR ?gObj@@3PAUOBJECTSTRUCT@@A ; gObj
  0006a	8d 81 21 01 00
	00		 lea	 eax, DWORD PTR [ecx+289]
  00070	75 25		 jne	 SHORT $LN17@DragonActi
  00072	03 c6		 add	 eax, esi
  00074	50		 push	 eax
  00075	8d 81 20 01 00
	00		 lea	 eax, DWORD PTR [ecx+288]
  0007b	03 c6		 add	 eax, esi
  0007d	50		 push	 eax
  0007e	68 af 00 00 00	 push	 175			; 000000afH
  00083	68 df 00 00 00	 push	 223			; 000000dfH
  00088	68 a1 00 00 00	 push	 161			; 000000a1H
  0008d	68 c6 00 00 00	 push	 198			; 000000c6H

; 133  : 					}
; 134  : 					else

  00092	e9 ed 00 00 00	 jmp	 $LN26@DragonActi
$LN17@DragonActi:

; 135  : 					{
; 136  : 						gMSetBase.GetBoxPosition(this->m_MapNumber, 136, 50, 164, 59, gObj[n].X, gObj[n].Y);

  00097	03 c6		 add	 eax, esi
  00099	50		 push	 eax
  0009a	8d 81 20 01 00
	00		 lea	 eax, DWORD PTR [ecx+288]
  000a0	03 c6		 add	 eax, esi
  000a2	50		 push	 eax
  000a3	6a 3b		 push	 59			; 0000003bH
  000a5	68 a4 00 00 00	 push	 164			; 000000a4H
  000aa	6a 32		 push	 50			; 00000032H
  000ac	68 88 00 00 00	 push	 136			; 00000088H
  000b1	e9 ce 00 00 00	 jmp	 $LN26@DragonActi
$LN13@DragonActi:

; 111  : 					}
; 112  : 
; 113  : 					break;
; 114  : 
; 115  : 				case MAP_INDEX_DEVIAS:
; 116  : 					
; 117  : 					if ( (rand()%2) == 0 )

  000b6	e8 00 00 00 00	 call	 _rand
  000bb	25 01 00 00 80	 and	 eax, -2147483647	; 80000001H
  000c0	79 05		 jns	 SHORT $LN25@DragonActi
  000c2	48		 dec	 eax
  000c3	83 c8 fe	 or	 eax, -2			; fffffffeH
  000c6	40		 inc	 eax
$LN25@DragonActi:

; 118  : 					{
; 119  : 						gMSetBase.GetBoxPosition(this->m_MapNumber, 155, 16, 169, 55, gObj[n].X, gObj[n].Y);

  000c7	8b 0d 00 00 00
	00		 mov	 ecx, DWORD PTR ?gObj@@3PAUOBJECTSTRUCT@@A ; gObj
  000cd	8d 81 21 01 00
	00		 lea	 eax, DWORD PTR [ecx+289]
  000d3	75 1f		 jne	 SHORT $LN14@DragonActi
  000d5	03 c6		 add	 eax, esi
  000d7	50		 push	 eax
  000d8	8d 81 20 01 00
	00		 lea	 eax, DWORD PTR [ecx+288]
  000de	03 c6		 add	 eax, esi
  000e0	50		 push	 eax
  000e1	6a 37		 push	 55			; 00000037H
  000e3	68 a9 00 00 00	 push	 169			; 000000a9H
  000e8	6a 10		 push	 16			; 00000010H
  000ea	68 9b 00 00 00	 push	 155			; 0000009bH

; 120  : 					}
; 121  : 					else

  000ef	e9 90 00 00 00	 jmp	 $LN26@DragonActi
$LN14@DragonActi:

; 122  : 					{
; 123  : 						gMSetBase.GetBoxPosition(this->m_MapNumber, 193, 110, 232, 126, gObj[n].X, gObj[n].Y);

  000f4	03 c6		 add	 eax, esi
  000f6	50		 push	 eax
  000f7	8d 81 20 01 00
	00		 lea	 eax, DWORD PTR [ecx+288]
  000fd	03 c6		 add	 eax, esi
  000ff	50		 push	 eax
  00100	6a 7e		 push	 126			; 0000007eH
  00102	68 e8 00 00 00	 push	 232			; 000000e8H
  00107	6a 6e		 push	 110			; 0000006eH
  00109	68 c1 00 00 00	 push	 193			; 000000c1H

; 124  : 					}
; 125  : 
; 126  : 					break;

  0010e	eb 74		 jmp	 SHORT $LN26@DragonActi
$LN8@DragonActi:

; 98   : 			{
; 99   : 				case MAP_INDEX_RORENCIA:
; 100  : 					if ( (rand()%3) == 0 )

  00110	e8 00 00 00 00	 call	 _rand
  00115	99		 cdq
  00116	f7 fb		 idiv	 ebx
  00118	85 d2		 test	 edx, edx
  0011a	75 28		 jne	 SHORT $LN9@DragonActi

; 101  : 					{
; 102  : 						gMSetBase.GetBoxPosition(this->m_MapNumber, 135, 61, 146, 70, gObj[n].X, gObj[n].Y);

  0011c	8b 0d 00 00 00
	00		 mov	 ecx, DWORD PTR ?gObj@@3PAUOBJECTSTRUCT@@A ; gObj
  00122	8d 81 21 01 00
	00		 lea	 eax, DWORD PTR [ecx+289]
  00128	03 c6		 add	 eax, esi
  0012a	50		 push	 eax
  0012b	8d 81 20 01 00
	00		 lea	 eax, DWORD PTR [ecx+288]
  00131	03 c6		 add	 eax, esi
  00133	50		 push	 eax
  00134	6a 46		 push	 70			; 00000046H
  00136	68 92 00 00 00	 push	 146			; 00000092H
  0013b	6a 3d		 push	 61			; 0000003dH
  0013d	68 87 00 00 00	 push	 135			; 00000087H
  00142	eb 40		 jmp	 SHORT $LN26@DragonActi
$LN9@DragonActi:

; 103  : 					}
; 104  : 					else if ( (rand()%3) == 1 )

  00144	e8 00 00 00 00	 call	 _rand
  00149	99		 cdq
  0014a	f7 fb		 idiv	 ebx

; 105  : 					{
; 106  : 						gMSetBase.GetBoxPosition(this->m_MapNumber, 120, 204, 126, 219, gObj[n].X, gObj[n].Y);

  0014c	8b 0d 00 00 00
	00		 mov	 ecx, DWORD PTR ?gObj@@3PAUOBJECTSTRUCT@@A ; gObj
  00152	8d 81 21 01 00
	00		 lea	 eax, DWORD PTR [ecx+289]
  00158	03 c6		 add	 eax, esi
  0015a	50		 push	 eax
  0015b	8d 81 20 01 00
	00		 lea	 eax, DWORD PTR [ecx+288]
  00161	03 c6		 add	 eax, esi
  00163	50		 push	 eax
  00164	83 fa 01	 cmp	 edx, 1
  00167	75 10		 jne	 SHORT $LN11@DragonActi
  00169	68 db 00 00 00	 push	 219			; 000000dbH
  0016e	6a 7e		 push	 126			; 0000007eH
  00170	68 cc 00 00 00	 push	 204			; 000000ccH
  00175	6a 78		 push	 120			; 00000078H

; 107  : 					}
; 108  : 					else

  00177	eb 0b		 jmp	 SHORT $LN26@DragonActi
$LN11@DragonActi:

; 109  : 					{
; 110  : 						gMSetBase.GetBoxPosition(this->m_MapNumber, 67, 116, 77, 131, gObj[n].X, gObj[n].Y);

  00179	68 83 00 00 00	 push	 131			; 00000083H
  0017e	6a 4d		 push	 77			; 0000004dH
  00180	6a 74		 push	 116			; 00000074H
  00182	6a 43		 push	 67			; 00000043H
$LN26@DragonActi:
  00184	0f b6 47 0c	 movzx	 eax, BYTE PTR [edi+12]
  00188	b9 00 00 00 00	 mov	 ecx, OFFSET ?gMSetBase@@3VCMonsterSetBase@@A ; gMSetBase
  0018d	50		 push	 eax
  0018e	e8 00 00 00 00	 call	 ?GetBoxPosition@CMonsterSetBase@@QAEHHHHHHAAE0@Z ; CMonsterSetBase::GetBoxPosition
$LN12@DragonActi:

; 137  : 					}
; 138  : 
; 139  : 					break;
; 140  : 			}
; 141  : 
; 142  : 			gObj[n].m_State = 1;

  00193	a1 00 00 00 00	 mov	 eax, DWORD PTR ?gObj@@3PAUOBJECTSTRUCT@@A ; gObj
  00198	c7 84 06 d0 01
	00 00 01 00 00
	00		 mov	 DWORD PTR [esi+eax+464], 1
$LN2@DragonActi:

; 89   : #if( __4GAMERS__ == 0 )
; 90   : 	for ( int n = 0; n<OBJ_MAXMONSTER ; n++)

  001a3	81 c6 40 27 00
	00		 add	 esi, 10048		; 00002740H
  001a9	81 fe 00 dd 49
	06		 cmp	 esi, 105504000		; 0649dd00H
  001af	0f 8c 5b fe ff
	ff		 jl	 $LL4@DragonActi

; 143  : 		}
; 144  : 	}
; 145  : #endif
; 146  : }

  001b5	5f		 pop	 edi
  001b6	5e		 pop	 esi
  001b7	5b		 pop	 ebx
  001b8	c3		 ret	 0
?DragonActive@CDragonEvent@@QAEXXZ ENDP			; CDragonEvent::DragonActive
_TEXT	ENDS
; Function compile flags: /Ogtp
; File c:\users\michel\desktop\source\gameserver\source\dragonevent.cpp
;	COMDAT ?Run@CDragonEvent@@QAEXXZ
_TEXT	SEGMENT
?Run@CDragonEvent@@QAEXXZ PROC				; CDragonEvent::Run, COMDAT
; _this$ = ecx

; 153  : {

  00000	56		 push	 esi
  00001	8b f1		 mov	 esi, ecx

; 154  : 	if ( this->m_bMenualStart != FALSE )

  00003	83 7e 10 00	 cmp	 DWORD PTR [esi+16], 0
  00007	75 4b		 jne	 SHORT $LN8@Run

; 155  : 	{
; 156  : 		return;
; 157  : 	}
; 158  : 
; 159  : 	if ( this->EventState == 0 )

  00009	8a 46 04	 mov	 al, BYTE PTR [esi+4]
  0000c	84 c0		 test	 al, al
  0000e	74 44		 je	 SHORT $LN8@Run

; 160  : 	{
; 161  : 		return;
; 162  : 	}
; 163  : 
; 164  : 	if ( this->EventState == 1 )

  00010	3c 01		 cmp	 al, 1
  00012	75 42		 jne	 SHORT $LN4@Run

; 165  : 	{
; 166  : 		if ( ( GetTickCount() - this->EventStartTime ) > 3000 )

  00014	ff 15 00 00 00
	00		 call	 DWORD PTR __imp__GetTickCount@0
  0001a	2b 46 08	 sub	 eax, DWORD PTR [esi+8]
  0001d	3d b8 0b 00 00	 cmp	 eax, 3000		; 00000bb8H
  00022	76 30		 jbe	 SHORT $LN8@Run

; 167  : 		{
; 168  : 			this->EventState = 2;
; 169  : 			GCMapEventStateSend(this->m_MapNumber , 1, 1 );

  00024	0f b6 46 0c	 movzx	 eax, BYTE PTR [esi+12]
  00028	6a 01		 push	 1
  0002a	6a 01		 push	 1
  0002c	50		 push	 eax
  0002d	c6 46 04 02	 mov	 BYTE PTR [esi+4], 2
  00031	e8 00 00 00 00	 call	 ?GCMapEventStateSend@@YAXHEE@Z ; GCMapEventStateSend

; 170  : 			LogAdd("Event Start 1");

  00036	68 00 00 00 00	 push	 OFFSET ??_C@_0O@KHDGKEEO@Event?5Start?51?$AA@
  0003b	ff 15 00 00 00
	00		 call	 DWORD PTR ?LogAdd@@3P6AXPADZZA ; LogAdd
  00041	83 c4 10	 add	 esp, 16			; 00000010H

; 171  : 			this->DragonActive();

  00044	8b ce		 mov	 ecx, esi
  00046	e8 00 00 00 00	 call	 ?DragonActive@CDragonEvent@@QAEXXZ ; CDragonEvent::DragonActive

; 172  : 			this->EventStartTime = GetTickCount();

  0004b	ff 15 00 00 00
	00		 call	 DWORD PTR __imp__GetTickCount@0
  00051	89 46 08	 mov	 DWORD PTR [esi+8], eax
$LN8@Run:
  00054	5e		 pop	 esi

; 183  : 			}
; 184  : 		}
; 185  : 	}
; 186  : }

  00055	c3		 ret	 0
$LN4@Run:

; 173  : 			return;
; 174  : 		}
; 175  : 	}
; 176  : 	else
; 177  : 	{
; 178  : 		if ( this->EventState == 2 )

  00056	3c 02		 cmp	 al, 2
  00058	75 fa		 jne	 SHORT $LN8@Run

; 179  : 		{
; 180  : 			if ( (GetTickCount() - this->EventStartTime ) > 300000 )

  0005a	ff 15 00 00 00
	00		 call	 DWORD PTR __imp__GetTickCount@0
  00060	2b 46 08	 sub	 eax, DWORD PTR [esi+8]
  00063	3d e0 93 04 00	 cmp	 eax, 300000		; 000493e0H
  00068	76 ea		 jbe	 SHORT $LN8@Run

; 181  : 			{
; 182  : 				this->End();

  0006a	8b ce		 mov	 ecx, esi
  0006c	5e		 pop	 esi
  0006d	e9 00 00 00 00	 jmp	 ?End@CDragonEvent@@QAEXXZ ; CDragonEvent::End
?Run@CDragonEvent@@QAEXXZ ENDP				; CDragonEvent::Run
_TEXT	ENDS
; Function compile flags: /Ogtp
; File c:\users\michel\desktop\source\gameserver\source\dragonevent.cpp
;	COMDAT ?End@CDragonEvent@@QAEXXZ
_TEXT	SEGMENT
?End@CDragonEvent@@QAEXXZ PROC				; CDragonEvent::End, COMDAT
; _this$ = ecx

; 80   : {

  00000	56		 push	 esi
  00001	8b f1		 mov	 esi, ecx

; 81   : 	GCMapEventStateSend(this->m_MapNumber, 0, 1 );

  00003	6a 01		 push	 1
  00005	6a 00		 push	 0
  00007	0f b6 46 0c	 movzx	 eax, BYTE PTR [esi+12]
  0000b	50		 push	 eax
  0000c	e8 00 00 00 00	 call	 ?GCMapEventStateSend@@YAXHEE@Z ; GCMapEventStateSend

; 82   : 	LogAdd("Event 1 End");

  00011	68 00 00 00 00	 push	 OFFSET ??_C@_0M@JPEAEJLO@Event?51?5End?$AA@
  00016	ff 15 00 00 00
	00		 call	 DWORD PTR ?LogAdd@@3P6AXPADZZA ; LogAdd
  0001c	83 c4 10	 add	 esp, 16			; 00000010H

; 83   : 	this->EventState=0;

  0001f	c6 46 04 00	 mov	 BYTE PTR [esi+4], 0
  00023	5e		 pop	 esi

; 84   : }

  00024	c3		 ret	 0
?End@CDragonEvent@@QAEXXZ ENDP				; CDragonEvent::End
_TEXT	ENDS
; Function compile flags: /Ogtp
; File c:\users\michel\desktop\source\gameserver\source\dragonevent.cpp
;	COMDAT ?Start@CDragonEvent@@QAEXXZ
_TEXT	SEGMENT
_map$ = -264						; size = 3
_szTemp$ = -260						; size = 256
__$ArrayPad$ = -4					; size = 4
?Start@CDragonEvent@@QAEXXZ PROC			; CDragonEvent::Start, COMDAT
; _this$ = ecx

; 35   : {

  00000	55		 push	 ebp
  00001	8b ec		 mov	 ebp, esp
  00003	81 ec 08 01 00
	00		 sub	 esp, 264		; 00000108H
  00009	a1 00 00 00 00	 mov	 eax, DWORD PTR ___security_cookie
  0000e	33 c5		 xor	 eax, ebp
  00010	89 45 fc	 mov	 DWORD PTR __$ArrayPad$[ebp], eax
  00013	53		 push	 ebx
  00014	8b d9		 mov	 ebx, ecx

; 36   : 	char szTemp[256];
; 37   : 	char map[3];
; 38   : 
; 39   : 	if ( this->EventState != 0 )

  00016	80 7b 04 00	 cmp	 BYTE PTR [ebx+4], 0
  0001a	0f 85 7d 01 00
	00		 jne	 $LN1@Start

; 40   : 	{
; 41   : 		return;
; 42   : 	}
; 43   : 
; 44   : 	this->Init();

  00020	e8 00 00 00 00	 call	 ?Init@CDragonEvent@@QAEXXZ ; CDragonEvent::Init

; 45   : 
; 46   : 	map[0]=MAP_INDEX_RORENCIA;

  00025	66 c7 85 f8 fe
	ff ff 00 02	 mov	 WORD PTR _map$[ebp], 512 ; 00000200H

; 47   : 	map[1]=MAP_INDEX_DEVIAS;
; 48   : 	map[2]=MAP_INDEX_NORIA;

  0002e	c6 85 fa fe ff
	ff 03		 mov	 BYTE PTR _map$[ebp+2], 3

; 49   : 
; 50   : 	this->EventState = 1;

  00035	c6 43 04 01	 mov	 BYTE PTR [ebx+4], 1

; 51   : 	this->m_MapNumber  = map [ rand()%3 ];

  00039	e8 00 00 00 00	 call	 _rand
  0003e	b9 03 00 00 00	 mov	 ecx, 3
  00043	99		 cdq
  00044	f7 f9		 idiv	 ecx

; 52   : 
; 53   : 	strcpy(szTemp, "¡Ù ");

  00046	33 c9		 xor	 ecx, ecx
  00048	8a 94 15 f8 fe
	ff ff		 mov	 dl, BYTE PTR _map$[ebp+edx]
  0004f	88 53 0c	 mov	 BYTE PTR [ebx+12], dl
  00052	0f 1f 40 00 66
	66 0f 1f 84 00
	00 00 00 00	 npad	 14
$LL11@Start:
  00060	8a 81 00 00 00
	00		 mov	 al, BYTE PTR ??_C@_03DMLAHEJO@?$KB?Y?5?$AA@[ecx]
  00066	8d 49 01	 lea	 ecx, DWORD PTR [ecx+1]
  00069	88 84 0d fb fe
	ff ff		 mov	 BYTE PTR _szTemp$[ebp+ecx-1], al
  00070	84 c0		 test	 al, al
  00072	75 ec		 jne	 SHORT $LL11@Start

; 54   : 
; 55   : 	switch ( this->m_MapNumber  )

  00074	0f b6 c2	 movzx	 eax, dl
  00077	56		 push	 esi
  00078	57		 push	 edi
  00079	83 e8 00	 sub	 eax, 0
  0007c	74 6c		 je	 SHORT $LN5@Start
  0007e	83 e8 02	 sub	 eax, 2
  00081	74 37		 je	 SHORT $LN6@Start
  00083	83 e8 01	 sub	 eax, 1
  00086	0f 85 9a 00 00
	00		 jne	 $LN2@Start

; 64   : 
; 65   : 		case MAP_INDEX_NORIA:
; 66   : 			strcat(szTemp, lMsg.Get(MSGGET(7, 211)) );

  0008c	68 d3 07 00 00	 push	 2003			; 000007d3H
  00091	b9 00 00 00 00	 mov	 ecx, OFFSET ?lMsg@@3VMessage@@A ; lMsg
  00096	e8 00 00 00 00	 call	 ?Get@Message@@QAEPADH@Z	; Message::Get
  0009b	8b d0		 mov	 edx, eax
  0009d	8b f0		 mov	 esi, eax
  0009f	90		 npad	 1
$LL15@Start:
  000a0	8a 02		 mov	 al, BYTE PTR [edx]
  000a2	42		 inc	 edx
  000a3	84 c0		 test	 al, al
  000a5	75 f9		 jne	 SHORT $LL15@Start
  000a7	8d bd fc fe ff
	ff		 lea	 edi, DWORD PTR _szTemp$[ebp]
  000ad	2b d6		 sub	 edx, esi
  000af	4f		 dec	 edi
$LL16@Start:
  000b0	8a 47 01	 mov	 al, BYTE PTR [edi+1]
  000b3	47		 inc	 edi
  000b4	84 c0		 test	 al, al
  000b6	75 f8		 jne	 SHORT $LL16@Start
  000b8	eb 5e		 jmp	 SHORT $LN24@Start
$LN6@Start:

; 59   : 			break;
; 60   : 
; 61   : 		case MAP_INDEX_DEVIAS:
; 62   : 			strcat(szTemp, lMsg.Get(MSGGET(7, 210)) );

  000ba	68 d2 07 00 00	 push	 2002			; 000007d2H
  000bf	b9 00 00 00 00	 mov	 ecx, OFFSET ?lMsg@@3VMessage@@A ; lMsg
  000c4	e8 00 00 00 00	 call	 ?Get@Message@@QAEPADH@Z	; Message::Get
  000c9	8b d0		 mov	 edx, eax
  000cb	8b f0		 mov	 esi, eax
  000cd	0f 1f 00	 npad	 3
$LL17@Start:
  000d0	8a 02		 mov	 al, BYTE PTR [edx]
  000d2	42		 inc	 edx
  000d3	84 c0		 test	 al, al
  000d5	75 f9		 jne	 SHORT $LL17@Start
  000d7	8d bd fc fe ff
	ff		 lea	 edi, DWORD PTR _szTemp$[ebp]
  000dd	2b d6		 sub	 edx, esi
  000df	4f		 dec	 edi
$LL18@Start:
  000e0	8a 47 01	 mov	 al, BYTE PTR [edi+1]
  000e3	47		 inc	 edi
  000e4	84 c0		 test	 al, al
  000e6	75 f8		 jne	 SHORT $LL18@Start

; 63   : 			break;

  000e8	eb 2e		 jmp	 SHORT $LN24@Start
$LN5@Start:

; 56   : 	{
; 57   : 		case MAP_INDEX_RORENCIA:
; 58   : 			strcat(szTemp, lMsg.Get(MSGGET(7, 208)) );

  000ea	68 d0 07 00 00	 push	 2000			; 000007d0H
  000ef	b9 00 00 00 00	 mov	 ecx, OFFSET ?lMsg@@3VMessage@@A ; lMsg
  000f4	e8 00 00 00 00	 call	 ?Get@Message@@QAEPADH@Z	; Message::Get
  000f9	8b d0		 mov	 edx, eax
  000fb	8b f0		 mov	 esi, eax
  000fd	0f 1f 00	 npad	 3
$LL19@Start:
  00100	8a 02		 mov	 al, BYTE PTR [edx]
  00102	42		 inc	 edx
  00103	84 c0		 test	 al, al
  00105	75 f9		 jne	 SHORT $LL19@Start
  00107	8d bd fc fe ff
	ff		 lea	 edi, DWORD PTR _szTemp$[ebp]
  0010d	2b d6		 sub	 edx, esi
  0010f	4f		 dec	 edi
$LL20@Start:
  00110	8a 47 01	 mov	 al, BYTE PTR [edi+1]
  00113	47		 inc	 edi
  00114	84 c0		 test	 al, al
  00116	75 f8		 jne	 SHORT $LL20@Start
$LN24@Start:
  00118	8b ca		 mov	 ecx, edx
  0011a	c1 e9 02	 shr	 ecx, 2
  0011d	f3 a5		 rep movsd
  0011f	8b ca		 mov	 ecx, edx
  00121	83 e1 03	 and	 ecx, 3
  00124	f3 a4		 rep movsb
$LN2@Start:

; 67   : 			break;
; 68   : 
; 69   : 	}
; 70   : 	
; 71   : 	strcat(szTemp, lMsg.Get(MSGGET(4, 132)) );

  00126	68 84 04 00 00	 push	 1156			; 00000484H
  0012b	b9 00 00 00 00	 mov	 ecx, OFFSET ?lMsg@@3VMessage@@A ; lMsg
  00130	e8 00 00 00 00	 call	 ?Get@Message@@QAEPADH@Z	; Message::Get
  00135	8b d0		 mov	 edx, eax
  00137	8b f0		 mov	 esi, eax
  00139	0f 1f 80 00 00
	00 00		 npad	 7
$LL21@Start:
  00140	8a 02		 mov	 al, BYTE PTR [edx]
  00142	42		 inc	 edx
  00143	84 c0		 test	 al, al
  00145	75 f9		 jne	 SHORT $LL21@Start
  00147	8d bd fc fe ff
	ff		 lea	 edi, DWORD PTR _szTemp$[ebp]
  0014d	2b d6		 sub	 edx, esi
  0014f	4f		 dec	 edi
$LL22@Start:
  00150	8a 47 01	 mov	 al, BYTE PTR [edi+1]
  00153	47		 inc	 edi
  00154	84 c0		 test	 al, al
  00156	75 f8		 jne	 SHORT $LL22@Start
  00158	8b ca		 mov	 ecx, edx
  0015a	c1 e9 02	 shr	 ecx, 2
  0015d	f3 a5		 rep movsd
  0015f	8b ca		 mov	 ecx, edx
  00161	83 e1 03	 and	 ecx, 3
  00164	f3 a4		 rep movsb

; 72   : 	strcat(szTemp, " ¡Ù");

  00166	8d bd fc fe ff
	ff		 lea	 edi, DWORD PTR _szTemp$[ebp]
  0016c	4f		 dec	 edi
  0016d	0f 1f 00	 npad	 3
$LL23@Start:
  00170	8a 47 01	 mov	 al, BYTE PTR [edi+1]
  00173	8d 7f 01	 lea	 edi, DWORD PTR [edi+1]
  00176	84 c0		 test	 al, al
  00178	75 f6		 jne	 SHORT $LL23@Start

; 73   : 
; 74   : 	AllSendServerMsg(lMsg.Get(MSGGET(4, 132)));

  0017a	68 84 04 00 00	 push	 1156			; 00000484H
  0017f	b9 00 00 00 00	 mov	 ecx, OFFSET ?lMsg@@3VMessage@@A ; lMsg
  00184	e8 00 00 00 00	 call	 ?Get@Message@@QAEPADH@Z	; Message::Get
  00189	50		 push	 eax
  0018a	e8 00 00 00 00	 call	 ?AllSendServerMsg@@YAXPAD@Z ; AllSendServerMsg
  0018f	83 c4 04	 add	 esp, 4

; 75   : 	this->EventStartTime  = GetTickCount();

  00192	ff 15 00 00 00
	00		 call	 DWORD PTR __imp__GetTickCount@0
  00198	5f		 pop	 edi
  00199	89 43 08	 mov	 DWORD PTR [ebx+8], eax
  0019c	5e		 pop	 esi
$LN1@Start:

; 76   : }

  0019d	8b 4d fc	 mov	 ecx, DWORD PTR __$ArrayPad$[ebp]
  001a0	33 cd		 xor	 ecx, ebp
  001a2	5b		 pop	 ebx
  001a3	e8 00 00 00 00	 call	 @__security_check_cookie@4
  001a8	8b e5		 mov	 esp, ebp
  001aa	5d		 pop	 ebp
  001ab	c3		 ret	 0
?Start@CDragonEvent@@QAEXXZ ENDP			; CDragonEvent::Start
_TEXT	ENDS
; Function compile flags: /Ogtp
; File c:\users\michel\desktop\source\gameserver\source\dragonevent.cpp
;	COMDAT ?Init@CDragonEvent@@QAEXXZ
_TEXT	SEGMENT
?Init@CDragonEvent@@QAEXXZ PROC				; CDragonEvent::Init, COMDAT
; _this$ = ecx

; 28   : 	this->EventState=0;

  00000	c6 41 04 00	 mov	 BYTE PTR [ecx+4], 0

; 29   : 	this->EventStartTime =0;

  00004	c7 41 08 00 00
	00 00		 mov	 DWORD PTR [ecx+8], 0

; 30   : 	this->m_MapNumber =0;

  0000b	c6 41 0c 00	 mov	 BYTE PTR [ecx+12], 0

; 31   : 	this->m_bMenualStart =0;

  0000f	c7 41 10 00 00
	00 00		 mov	 DWORD PTR [ecx+16], 0

; 32   : }

  00016	c3		 ret	 0
?Init@CDragonEvent@@QAEXXZ ENDP				; CDragonEvent::Init
_TEXT	ENDS
; Function compile flags: /Ogtp
; File c:\users\michel\desktop\source\gameserver\source\dragonevent.cpp
;	COMDAT ??1CDragonEvent@@UAE@XZ
_TEXT	SEGMENT
??1CDragonEvent@@UAE@XZ PROC				; CDragonEvent::~CDragonEvent, COMDAT
; _this$ = ecx

; 21   : {

  00000	c7 01 00 00 00
	00		 mov	 DWORD PTR [ecx], OFFSET ??_7CDragonEvent@@6B@

; 22   : 	return;
; 23   : }

  00006	c3		 ret	 0
??1CDragonEvent@@UAE@XZ ENDP				; CDragonEvent::~CDragonEvent
_TEXT	ENDS
; Function compile flags: /Ogtp
; File c:\users\michel\desktop\source\gameserver\source\dragonevent.cpp
;	COMDAT ??0CDragonEvent@@QAE@XZ
_TEXT	SEGMENT
??0CDragonEvent@@QAE@XZ PROC				; CDragonEvent::CDragonEvent, COMDAT
; _this$ = ecx

; 14   : {

  00000	56		 push	 esi
  00001	8b f1		 mov	 esi, ecx
  00003	c7 06 00 00 00
	00		 mov	 DWORD PTR [esi], OFFSET ??_7CDragonEvent@@6B@

; 15   : 	this->Init();

  00009	e8 00 00 00 00	 call	 ?Init@CDragonEvent@@QAEXXZ ; CDragonEvent::Init

; 16   : }

  0000e	8b c6		 mov	 eax, esi
  00010	5e		 pop	 esi
  00011	c3		 ret	 0
??0CDragonEvent@@QAE@XZ ENDP				; CDragonEvent::CDragonEvent
_TEXT	ENDS
; Function compile flags: /Ogtp
; File c:\users\michel\desktop\source\gameserver\source\dragonevent.cpp
;	COMDAT ?__empty_global_delete@@YAXPAXI@Z
_TEXT	SEGMENT
___formal$ = 8						; size = 4
___formal$ = 12						; size = 4
?__empty_global_delete@@YAXPAXI@Z PROC			; __empty_global_delete, COMDAT

  00000	c3		 ret	 0
?__empty_global_delete@@YAXPAXI@Z ENDP			; __empty_global_delete
_TEXT	ENDS
; Function compile flags: /Ogtp
; File c:\users\michel\desktop\source\gameserver\source\dragonevent.cpp
;	COMDAT ?__empty_global_delete@@YAXPAX@Z
_TEXT	SEGMENT
___formal$ = 8						; size = 4
?__empty_global_delete@@YAXPAX@Z PROC			; __empty_global_delete, COMDAT

  00000	c3		 ret	 0
?__empty_global_delete@@YAXPAX@Z ENDP			; __empty_global_delete
_TEXT	ENDS
END
