; Listing generated by Microsoft (R) Optimizing Compiler Version 19.00.23506.0 

	TITLE	C:\Users\Michel\Desktop\Source\GameServer\Source\DSProtocol.cpp
	.686P
	.XMM
	include listing.inc
	.model	flat

INCLUDELIB LIBCMT
INCLUDELIB OLDNAMES

PUBLIC	?dwCrywolfSyncLogTickCount@@3KA			; dwCrywolfSyncLogTickCount
_BSS	SEGMENT
?dwCrywolfSyncLogTickCount@@3KA DD 01H DUP (?)		; dwCrywolfSyncLogTickCount
_BSS	ENDS
PUBLIC	??_H@YGXPAXIIP6EPAX0@Z@Z			; `vector constructor iterator'
PUBLIC	?__empty_global_delete@@YAXPAX@Z		; __empty_global_delete
PUBLIC	?__empty_global_delete@@YAXPAXI@Z		; __empty_global_delete
PUBLIC	??1OBJECTSTRUCT@@QAE@XZ				; OBJECTSTRUCT::~OBJECTSTRUCT
PUBLIC	??_EOBJECTSTRUCT@@QAEPAXI@Z			; OBJECTSTRUCT::`vector deleting destructor'
PUBLIC	?DataServerProtocolCore@@YAXEPAEH@Z		; DataServerProtocolCore
PUBLIC	?TestDSSend@@YAXXZ				; TestDSSend
PUBLIC	?DataServerLogin@@YAXH@Z			; DataServerLogin
PUBLIC	?DataServerLoginResult@@YAXPAUSDHP_RESULT@@@Z	; DataServerLoginResult
PUBLIC	?JGPGetCharList@@YAXPAE@Z			; JGPGetCharList
PUBLIC	?DataServerGetCharListRequest@@YAXF@Z		; DataServerGetCharListRequest
PUBLIC	?JGCharacterCreateRequest@@YAXPAUSDHP_CREATECHARRESULT@@@Z ; JGCharacterCreateRequest
PUBLIC	?JGCharacterCreateFailSend@@YAXHPAD@Z		; JGCharacterCreateFailSend
PUBLIC	?JGCharDelRequest@@YAXPAUSDHP_CHARDELETERESULT@@@Z ; JGCharDelRequest
PUBLIC	?JGGetCharacterInfo@@YAXPAUSDHP_DBCHAR_INFORESULT@@@Z ; JGGetCharacterInfo
PUBLIC	?GCItemListSend@@YAXH@Z				; GCItemListSend
PUBLIC	?GJSetCharacterInfo@@YAXPAUOBJECTSTRUCT@@HHH@Z	; GJSetCharacterInfo
PUBLIC	?GDGetWarehouseList@@YAXHPAD@Z			; GDGetWarehouseList
PUBLIC	?DGGetWarehouseList@@YAXPAUSDHP_GETWAREHOUSEDB_SAVE@@@Z ; DGGetWarehouseList
PUBLIC	?GDGetWarehouseNoItem@@YAXPAUSDHP_GETWAREHOUSEDB_RESULT@@@Z ; GDGetWarehouseNoItem
PUBLIC	?GDSetWarehouseList@@YAXH@Z			; GDSetWarehouseList
PUBLIC	?GDUserItemSave@@YAXPAUOBJECTSTRUCT@@@Z		; GDUserItemSave
PUBLIC	?GDSetWarehouseMoney@@YAXH@Z			; GDSetWarehouseMoney
PUBLIC	?GDGameServerInfoSave@@YAXXZ			; GDGameServerInfoSave
PUBLIC	?ItemSerialCreateSend@@YAXHEEEHEEEEEHEEEPAE@Z	; ItemSerialCreateSend
PUBLIC	?PetItemSerialCreateSend@@YAXHEEEHEEEEEHEE@Z	; PetItemSerialCreateSend
PUBLIC	?ItemSerialCreateRecv@@YAXPAUSDHP_ITEMCREATERECV@@@Z ; ItemSerialCreateRecv
PUBLIC	?ItemMovePathSave@@YAXPAD0EEEE0EEEK@Z		; ItemMovePathSave
PUBLIC	?DGOptionDataSend@@YAXHPADPAEEEEEEEKD@Z		; DGOptionDataSend
PUBLIC	?DGOptionDataRecv@@YAXPAUSDHP_SKILLKEYDATA_SEND@@@Z ; DGOptionDataRecv
PUBLIC	?DGMoveOtherServer@@YAXPAUSDHP_CHARACTER_TRANSFER_RESULT@@@Z ; DGMoveOtherServer
PUBLIC	?gObjRequestPetItemInfo@@YAXHH@Z		; gObjRequestPetItemInfo
PUBLIC	?DGRecvPetItemInfo@@YAXPAE@Z			; DGRecvPetItemInfo
PUBLIC	?gObjSavePetItemInfo@@YAXHH@Z			; gObjSavePetItemInfo
PUBLIC	?GS_GDReqCastleTotalInfo@@YAXHH@Z		; GS_GDReqCastleTotalInfo
PUBLIC	?GS_GDReqOwnerGuildMaster@@YAXHH@Z		; GS_GDReqOwnerGuildMaster
PUBLIC	?GS_GDReqCastleNpcBuy@@YAXHHHHHHHHEEEH@Z	; GS_GDReqCastleNpcBuy
PUBLIC	?GS_GDReqCastleNpcRepair@@YAXHHHHH@Z		; GS_GDReqCastleNpcRepair
PUBLIC	?GS_GDReqCastleNpcUpgrade@@YAXHHHHHHH@Z		; GS_GDReqCastleNpcUpgrade
PUBLIC	?GS_GDReqTaxInfo@@YAXHH@Z			; GS_GDReqTaxInfo
PUBLIC	?GS_GDReqTaxRateChange@@YAXHHHH@Z		; GS_GDReqTaxRateChange
PUBLIC	?GS_GDReqCastleMoneyChange@@YAXHHH@Z		; GS_GDReqCastleMoneyChange
PUBLIC	?GS_GDReqSiegeDateChange@@YAXHHGEEGEE@Z		; GS_GDReqSiegeDateChange
PUBLIC	?GS_GDReqResetRegSiegeInfo@@YAXH@Z		; GS_GDReqResetRegSiegeInfo
PUBLIC	?GS_GDReqGuildMarkRegInfo@@YAXHH@Z		; GS_GDReqGuildMarkRegInfo
PUBLIC	?GS_GDReqSiegeEndedChange@@YAXHH@Z		; GS_GDReqSiegeEndedChange
PUBLIC	?GS_GDReqCastleOwnerChange@@YAXHHPAD@Z		; GS_GDReqCastleOwnerChange
PUBLIC	?GS_GDReqRegAttackGuild@@YAXHH@Z		; GS_GDReqRegAttackGuild
PUBLIC	?GS_GDReqRestartCastleState@@YAXH@Z		; GS_GDReqRestartCastleState
PUBLIC	?GS_GDReqMapSvrMsgMultiCast@@YAXHPAD@Z		; GS_GDReqMapSvrMsgMultiCast
PUBLIC	?GS_GDReqRegGuildMark@@YAXHHH@Z			; GS_GDReqRegGuildMark
PUBLIC	?GS_GDReqGuildMarkReset@@YAXHHPAD@Z		; GS_GDReqGuildMarkReset
PUBLIC	?GS_GDReqGuildSetGiveUp@@YAXHHH@Z		; GS_GDReqGuildSetGiveUp
PUBLIC	?GS_GDReqNpcRemove@@YAXHHH@Z			; GS_GDReqNpcRemove
PUBLIC	?GS_GDReqCastleStateSync@@YAXHHHHHPAD@Z		; GS_GDReqCastleStateSync
PUBLIC	?GS_GDReqCastleTributeMoney@@YAXHH@Z		; GS_GDReqCastleTributeMoney
PUBLIC	?GS_GDReqResetCastleTaxInfo@@YAXH@Z		; GS_GDReqResetCastleTaxInfo
PUBLIC	?GS_GDReqResetSiegeGuildInfo@@YAXH@Z		; GS_GDReqResetSiegeGuildInfo
PUBLIC	?GS_GDReqCastleInitData@@YAXHH@Z		; GS_GDReqCastleInitData
PUBLIC	?GS_GDReqAllGuildMarkRegInfo@@YAXHH@Z		; GS_GDReqAllGuildMarkRegInfo
PUBLIC	?GS_GDReqCalcRegGuildList@@YAXH@Z		; GS_GDReqCalcRegGuildList
PUBLIC	?GS_GDReqCsLoadTotalGuildInfo@@YAXH@Z		; GS_GDReqCsLoadTotalGuildInfo
PUBLIC	?GS_DGAnsCastleTotalInfo@@YAXPAE@Z		; GS_DGAnsCastleTotalInfo
PUBLIC	?GS_DGAnsOwnerGuildMaster@@YAXPAE@Z		; GS_DGAnsOwnerGuildMaster
PUBLIC	?GS_DGAnsCastleNpcBuy@@YAXPAE@Z			; GS_DGAnsCastleNpcBuy
PUBLIC	?GS_DGAnsCastleNpcRepair@@YAXPAE@Z		; GS_DGAnsCastleNpcRepair
PUBLIC	?GS_DGAnsCastleNpcUpgrade@@YAXPAE@Z		; GS_DGAnsCastleNpcUpgrade
PUBLIC	?GS_DGAnsTaxInfo@@YAXPAE@Z			; GS_DGAnsTaxInfo
PUBLIC	?GS_DGAnsTaxRateChange@@YAXPAE@Z		; GS_DGAnsTaxRateChange
PUBLIC	?GS_DGAnsCastleMoneyChange@@YAXPAE@Z		; GS_DGAnsCastleMoneyChange
PUBLIC	?GS_DGAnsSiegeDateChange@@YAXPAE@Z		; GS_DGAnsSiegeDateChange
PUBLIC	?GS_DGAnsGuildMarkRegInfo@@YAXPAE@Z		; GS_DGAnsGuildMarkRegInfo
PUBLIC	?GS_DGAnsSiegeEndedChange@@YAXPAE@Z		; GS_DGAnsSiegeEndedChange
PUBLIC	?GS_DGAnsCastleOwnerChange@@YAXPAE@Z		; GS_DGAnsCastleOwnerChange
PUBLIC	?GS_DGAnsRegAttackGuild@@YAXPAE@Z		; GS_DGAnsRegAttackGuild
PUBLIC	?GS_DGAnsRestartCastleState@@YAXPAE@Z		; GS_DGAnsRestartCastleState
PUBLIC	?GS_DGAnsMapSvrMsgMultiCast@@YAXPAE@Z		; GS_DGAnsMapSvrMsgMultiCast
PUBLIC	?GS_DGAnsRegGuildMark@@YAXPAE@Z			; GS_DGAnsRegGuildMark
PUBLIC	?GS_DGAnsGuildMarkReset@@YAXPAE@Z		; GS_DGAnsGuildMarkReset
PUBLIC	?GS_DGAnsGuildSetGiveUp@@YAXPAE@Z		; GS_DGAnsGuildSetGiveUp
PUBLIC	?GS_DGAnsNpcRemove@@YAXPAE@Z			; GS_DGAnsNpcRemove
PUBLIC	?GS_DGAnsCastleStateSync@@YAXPAE@Z		; GS_DGAnsCastleStateSync
PUBLIC	?GS_DGAnsCastleTributeMoney@@YAXPAE@Z		; GS_DGAnsCastleTributeMoney
PUBLIC	?GS_DGAnsResetCastleTaxInfo@@YAXPAE@Z		; GS_DGAnsResetCastleTaxInfo
PUBLIC	?GS_DGAnsResetSiegeGuildInfo@@YAXPAE@Z		; GS_DGAnsResetSiegeGuildInfo
PUBLIC	?GS_DGAnsResetRegSiegeInfo@@YAXPAE@Z		; GS_DGAnsResetRegSiegeInfo
PUBLIC	?GS_DGAnsCastleInitData@@YAXPAE@Z		; GS_DGAnsCastleInitData
PUBLIC	?GS_DGAnsCastleNpcInfo@@YAXPAE@Z		; GS_DGAnsCastleNpcInfo
PUBLIC	?GS_DGAnsAllGuildMarkRegInfo@@YAXPAE@Z		; GS_DGAnsAllGuildMarkRegInfo
PUBLIC	?GS_DGAnsFirstCreateNPC@@YAXPAE@Z		; GS_DGAnsFirstCreateNPC
PUBLIC	?GS_DGAnsCalcREgGuildList@@YAXPAE@Z		; GS_DGAnsCalcREgGuildList
PUBLIC	?GS_DGAnsCsGulidUnionInfo@@YAXPAE@Z		; GS_DGAnsCsGulidUnionInfo
PUBLIC	?GS_DGAnsCsSaveTotalGuildInfo@@YAXPAE@Z		; GS_DGAnsCsSaveTotalGuildInfo
PUBLIC	?GS_DGAnsCsLoadTotalGuildInfo@@YAXPAE@Z		; GS_DGAnsCsLoadTotalGuildInfo
PUBLIC	?GS_DGAnsCastleNpcUpdate@@YAXPAE@Z		; GS_DGAnsCastleNpcUpdate
PUBLIC	?GDReqCrywolfSync@@YAXHHH@Z			; GDReqCrywolfSync
PUBLIC	?DGAnsCrywolfSync@@YAXPAE@Z			; DGAnsCrywolfSync
PUBLIC	?GDReqCrywolfInfoLoad@@YAXH@Z			; GDReqCrywolfInfoLoad
PUBLIC	?DGAnsCrywolfInfoLoad@@YAXPAE@Z			; DGAnsCrywolfInfoLoad
PUBLIC	?GDReqCrywolfInfoSave@@YAXHHH@Z			; GDReqCrywolfInfoSave
PUBLIC	?DGAnsCrywolfInfoSave@@YAXPAE@Z			; DGAnsCrywolfInfoSave
PUBLIC	?JGPSummonerInfo@@YAXPAUPMSG_ANS_SUMMONER_CREATE@@@Z ; JGPSummonerInfo
PUBLIC	?DGSetSummonerCreate@@YAXPAUOBJECTSTRUCT@@H@Z	; DGSetSummonerCreate
PUBLIC	?GDExpandWarehouseSend@@YAXPAUOBJECTSTRUCT@@H@Z	; GDExpandWarehouseSend
PUBLIC	?GDExpandInventorySend@@YAXPAUOBJECTSTRUCT@@H@Z	; GDExpandInventorySend
PUBLIC	?DGMuBotSettingsSend@@YAXHPADPAE@Z		; DGMuBotSettingsSend
PUBLIC	?DGMuBotOptionRecv@@YAXPAUMUBOT_SETTINGS_SEND@@@Z ; DGMuBotOptionRecv
PUBLIC	?DGDeleteTempUserInfo@@YAXPAUSDHP_DELETE_TEMPUSERINFO_RESULT@@@Z ; DGDeleteTempUserInfo
PUBLIC	?DGBroadCastGlobalMessage@@YAXPAE@Z		; DGBroadCastGlobalMessage
PUBLIC	?requestDbUpdateCredits@@YAXPAUOBJECTSTRUCT@@FF@Z ; requestDbUpdateCredits
PUBLIC	?answerDbInfo@@YAXPAUpacketDbAnswerInfo@@@Z	; answerDbInfo
PUBLIC	?GS_GDReqCastleDateChange@@YAXHHGEEGEE@Z	; GS_GDReqCastleDateChange
PUBLIC	?GS_GDReqGuildMarkReqInfo@@YAXHH@Z		; GS_GDReqGuildMarkReqInfo
PUBLIC	?GS_GDReqGuildMark@@YAXHHH@Z			; GS_GDReqGuildMark
PUBLIC	?GS_GDReqResetReqSiegeInfo@@YAXH@Z		; GS_GDReqResetReqSiegeInfo
PUBLIC	?GS_GDReqCaslteNpcInfo@@YAXHH@Z			; GS_GDReqCaslteNpcInfo
PUBLIC	??_C@_02DPKJAMEF@?$CFd?$AA@			; `string'
PUBLIC	?DROP_LOG_DEBUG@@3VCLogToFile@@A		; DROP_LOG_DEBUG
PUBLIC	??_C@_0L@OHHLBHJC@?4?2Log?2Drop?$AA@		; `string'
PUBLIC	??_C@_04DJCMGLJH@Drop?$AA@			; `string'
PUBLIC	??_C@_0CC@MBCBAID@error?9L2DataServer?5RECV?5?3?5?$CFd?5?$CI?$CFd@ ; `string'
PUBLIC	??_C@_02DKCKIIND@?$CFs?$AA@			; `string'
PUBLIC	??_C@_0P@GMPEKMII@Test?5Data?5Send?$AA@		; `string'
PUBLIC	??_C@_0P@DNGOKBGI@DSProtocol?4cpp?$AA@		; `string'
PUBLIC	??_C@_0CL@ECFCLMFK@error?9L1?5?3?5Load?5Block?5Character?5@ ; `string'
PUBLIC	??_C@_0FE@JOJGEKKO@?$FLAnti?9HACK?$FN?$FLJGGetCharacterInfo?$FN?5@ ; `string'
PUBLIC	??_C@_0CA@ICFKKJJD@?$FL?5ZEN?5MODIFY?5?$FN?5?$FL?$CFs?$FN?$FL?$CFs?$FN?5?$CFd?5?9?$DO?50?$AA@ ; `string'
PUBLIC	??_C@_0BB@LBNJKNBE@error?9L3?5?3?5?$CFs?5?$CFd?$AA@ ; `string'
PUBLIC	??_C@_0EM@ICCPKMCE@?$FLMapServerMng?$FN?5Map?5Server?5Move?5F@ ; `string'
PUBLIC	??_C@_0EB@KJANBCDD@?$FLMapServerMng?$FN?5Request?5to?5Move?5M@ ; `string'
PUBLIC	??_C@_0EO@MMCPKNFL@?$FLFRUIT?5System?$FN?5?$FL?$CFs?$FN?$FL?$CFs?$FN?5?$CIMinusPo@ ; `string'
PUBLIC	??_C@_0GD@LBDNOPPJ@?$FLFRUIT?5System?$FN?5Character?5Stat?5Er@ ; `string'
PUBLIC	??_C@_0CI@DDIOKKGJ@For?5this?5server?5you?5need?5premium@ ; `string'
PUBLIC	??_C@_0EM@LOGFDPHA@?$FLMapServerMng?$FN?5GJSetCharacterInf@ ; `string'
PUBLIC	??_C@_0FG@OKDBPAON@?$FLMapServerMng?$FN?$FL?$CFs?$FN?$FL?$CFs?$FN?5GJSetChar@ ; `string'
PUBLIC	??_C@_0DP@HCBBCCKB@?$FL380Item?$FN?$FL?$CFs?$FN?$FL?$CFs?$FN?5Invalid?5380?5It@ ; `string'
PUBLIC	??_C@_0CI@MIGOHDHJ@?$FL?$CFs?$FN?$FL?$CFs?$FN?5WareHouse?5Save?5Fail?5?3?5N@ ; `string'
PUBLIC	??_C@_0HO@BMIFLCBN@?$FLSocketItem?$FN?5Generate?5Socket?5Ite@ ; `string'
PUBLIC	??_C@_04CGFJFPFD@none?$AA@			; `string'
PUBLIC	??_C@_0HH@HKJJNFBM@Monster?5Item?5Drop?5Request?5?$FL?$CFs?$FN?5?$FL@ ; `string'
PUBLIC	??_C@_0EP@GIBMCCNN@PACKET_RECIEVED?5?$FL?$CFd?$FN?$FL?$CFd?$FN?$FL?$CFd?$FN?5?3?5s@ ; `string'
PUBLIC	??_C@_0BC@OFCHNMFP@error?9L3?5?$FL?$CFs?$FN?$FL?$CFd?$FN?$AA@ ; `string'
PUBLIC	??_C@_0CD@JBKACADO@error?9L2?3?5DarkTrainerBox?5not?5use@ ; `string'
PUBLIC	??_C@_0BN@BDLDNMBN@error?9L2?3?5ChaosBox?5not?5used?4?$AA@ ; `string'
PUBLIC	??_C@_0GA@EHKFCGJE@?$FL?$CFs?$FN?$FL?$CFs?$FN?5CBMix?5Item?5Create?5Item?3@ ; `string'
PUBLIC	??_C@_0EN@FHICBGBB@?$FLItemCreate?$FN?5Error?5?3?5Failed?5To?5I@ ; `string'
PUBLIC	??_C@_0EL@KDEJKEEJ@?$FLCashShop?$FN?5Error?5?3?5Failed?5To?5Ins@ ; `string'
PUBLIC	??_C@_0EO@CJFPAOBM@?$FLQuestSystem?$FN?5Error?5?3?5Failed?5To?5@ ; `string'
PUBLIC	??_C@_0GD@LMECKDPM@Monster?5Item?5Drop?5?$FL?$CFd?$FN?$FL?$CFd?$FN?$FL?$CFd?$FN?5?3@ ; `string'
PUBLIC	??_C@_0CB@DOBLFOAF@?$FLCharTrasfer?$FN?5Fail?5?$FL?$CFs?$FN?$FL?$CFs?$FN?5?$CI?$CFd?$CJ@ ; `string'
PUBLIC	??_C@_0DI@PPPCGFPL@?$LJ?$KO?A?$KG?5?$LJ?$NP?$LL?$PN?$LN?C?5change?$EAwebzen?4co?4kr?$LH@ ; `string'
PUBLIC	??_C@_0CE@IPHEEDFH@?$FLCharTrasfer?$FN?5Success?5?$FL?$CFs?$FN?$FL?$CFs?$FN?5?$CI@ ; `string'
PUBLIC	??_C@_0BD@IBAEEAEE@?A?$KC?$LM?S?$MA?L?5?A?$LO?$LH?a?$LF?K?$LE?O?$LE?Y?4?$AA@ ; `string'
PUBLIC	??_C@_0CD@HNLEMMHH@?$LK?P?G?R?5?$LM?$KN?$LJ?v?$LH?N?5?A?$KC?$LM?S?G?X?A?V?$LN?C?$LB?b?5?$LJ?Y?$LG?x?$LE?O?$LE@ ; `string'
PUBLIC	??_C@_0EA@PICKNLKN@Request?5to?5receive?5petitem?5infom@ ; `string'
PUBLIC	??_C@_0CP@HBHBBGIF@?$FL?$CFs?$FN?$FL?$CFs?$FN?$FLPI?$FN?$FL?$CFd?0?$CFs?$FNserial?3?$FL?$CFd?$FN?5L@ ; `string'
PUBLIC	??_C@_0CP@HLCJJJIG@?$FL?$CFs?$FN?$FL?$CFs?$FN?$FLPW?$FN?$FL?$CFd?0?$CFs?$FNserial?3?$FL?$CFd?$FN?5L@ ; `string'
PUBLIC	??_C@_0HN@BJMCOPEN@?$FLCastleSiege?$FN?5PACKET?9ERROR?5?$FL0x80@ ; `string'
PUBLIC	??_C@_0HK@OKLAENCI@?$FLCastleSiege?$FN?5PACKET?9ERROR?5?$FL0x80@ ; `string'
PUBLIC	??_C@_0FK@LDEGMOJD@?$FLCastleSiege?$FN?5GS_DGAnsCastleNpcB@ ; `string'
PUBLIC	??_C@_0FO@MKLLBJCJ@?$FLCastleSiege?$FN?5GS_DGAnsCastleNpcB@ ; `string'
PUBLIC	??_C@_0FA@BIAOFLEB@?$FLCastleSiege?$FN?5GS_DGAnsCastleNpcB@ ; `string'
PUBLIC	??_C@_0HN@PMNAMEJH@?$FLCastleSiege?$FN?5PACKET?9ERROR?5?$FL0x80@ ; `string'
PUBLIC	??_C@_0GA@JLLACOMH@?$FLCastleSiege?$FN?5GS_DGAnsCastleNpcR@ ; `string'
PUBLIC	??_C@_0GE@FAGFLPLN@?$FLCastleSiege?$FN?5GS_DGAnsCastleNpcR@ ; `string'
PUBLIC	??_C@_0FD@BEMJCHLC@?$FLCastleSiege?$FN?5GS_DGAnsCastleNpcR@ ; `string'
PUBLIC	??_C@_0HO@HLBFNNIO@?$FLCastleSiege?$FN?5PACKET?9ERROR?5?$FL0x80@ ; `string'
PUBLIC	??_C@_0FG@NIOIKHAG@?$FLCastleSiege?$FN?5ERROR?5?9?5Castle?5NPC@ ; `string'
PUBLIC	??_C@_0GE@HOFNMLEH@?$FLCastleSiege?$FN?5?$FL0x80?$FN?$FL0x06?$FN?5GS_DG@ ; `string'
PUBLIC	??_C@_0HF@NIPKIGMO@?$FLCastleSiege?$FN?5PACKET?9ERROR?5?$FL0x80@ ; `string'
PUBLIC	??_C@_0HL@PMPBBPDM@?$FLCastleSiege?$FN?5PACKET?9ERROR?5?$FL0x80@ ; `string'
PUBLIC	??_C@_0HP@IIFHPCOO@?$FLCastleSiege?$FN?5PACKET?9ERROR?5?$FL0x80@ ; `string'
PUBLIC	??_C@_0HE@CADAABKE@?$FLCastleSiege?$FN?5?$FL0x80?$FN?$FL0x08?$FN?5GS_DG@ ; `string'
PUBLIC	??_C@_0HN@KCDIDGDG@?$FLCastleSiege?$FN?5PACKET?9ERROR?5?$FL0x80@ ; `string'
PUBLIC	??_C@_0HO@JKCCCDJI@?$FLCastleSiege?$FN?5PACKET?9ERROR?5?$FL0x80@ ; `string'
PUBLIC	??_C@_0HO@EGJJDJOF@?$FLCastleSiege?$FN?5PACKET?9ERROR?5?$FL0x80@ ; `string'
PUBLIC	??_C@_0HP@ODLOINGN@?$FLCastleSiege?$FN?5PACKET?9ERROR?5?$FL0x80@ ; `string'
PUBLIC	??_C@_0HM@ENOOGPCP@?$FLCastleSiege?$FN?5PACKET?9ERROR?5?$FL0x80@ ; `string'
PUBLIC	??_C@_0IA@JGOKJONB@?$FLCastleSiege?$FN?5PACKET?9ERROR?5?$FL0x80@ ; `string'
PUBLIC	??_C@_0IA@LNMFDGBP@?$FLCastleSiege?$FN?5PACKET?9ERROR?5?$FL0x80@ ; `string'
PUBLIC	??_C@_0HK@NECBCB@?$FLCastleSiege?$FN?5PACKET?9ERROR?5?$FL0x80@ ; `string'
PUBLIC	??_C@_0HM@JNNIOIKL@?$FLCastleSiege?$FN?5PACKET?9ERROR?5?$FL0x80@ ; `string'
PUBLIC	??_C@_0IA@HBPHMAAG@?$FLCastleSiege?$FN?5PACKET?9ERROR?5?$FL0x80@ ; `string'
PUBLIC	??_C@_0FA@NDMPNFNO@?$FLCastleSiege?$FN?5?$FL0x80?$FN?$FL0x18?$FN?5GS_DG@ ; `string'
PUBLIC	??_C@_0IA@OLLELCLL@?$FLCastleSiege?$FN?5PACKET?9ERROR?5?$FL0x80@ ; `string'
PUBLIC	??_C@_0IB@LEBBPIHB@?$FLCastleSiege?$FN?5PACKET?9ERROR?5?$FL0x80@ ; `string'
PUBLIC	??_C@_0HP@DDPBMEPM@?$FLCastleSiege?$FN?5PACKET?9ERROR?5?$FL0x80@ ; `string'
PUBLIC	??_C@_0HG@CBDKIEJG@?$FLCastleSiege?$FN?5PACKET?9ERROR?5?$FL0x81@ ; `string'
PUBLIC	??_C@_0GO@LJFKFDKN@?$FLCastleSiege?$FN?5CASTLE?5SIEGE?5DATA?5@ ; `string'
PUBLIC	??_C@_0EM@NPBCIFML@?$FLCastleSiege?$FN?5CASTLE?5SIEGE?5DATA?5@ ; `string'
PUBLIC	??_C@_0GD@EAAPMHFJ@?$FLCastleSiege?$FN?5CASTLE?5SIEGE?5DATA?5@ ; `string'
PUBLIC	??_C@_0GC@MGFHIKBL@?$FLCastleSiege?$FN?5CASTLE?5SIEGE?5DATA?5@ ; `string'
PUBLIC	??_C@_0HF@FPJKEGCI@?$FLCastleSiege?$FN?5PACKET?9ERROR?5?$FL0x82@ ; `string'
PUBLIC	??_C@_0HL@PPDLAEKI@?$FLCastleSiege?$FN?5PACKET?9ERROR?5?$FL0x83@ ; `string'
PUBLIC	??_C@_0HG@MMFIPMJM@?$FLCastleSiege?$FN?5PACKET?9ERROR?5?$FL0x84@ ; `string'
PUBLIC	??_C@_0HI@DCOFLPNN@?$FLCastleSiege?$FN?5PACKET?9ERROR?5?$FL0x85@ ; `string'
PUBLIC	??_C@_0FI@CEGBKGAK@?$FLCastleSiege?$FN?5PACKET?9ERROR?5?$FL0x85@ ; `string'
PUBLIC	??_C@_0HI@LIMFILFK@?$FLCastleSiege?$FN?5PACKET?9ERROR?5?$FL0x86@ ; `string'
PUBLIC	??_C@_0HM@DAOCJLIP@?$FLCastleSiege?$FN?5PACKET?9ERROR?5?$FL0x87@ ; `string'
PUBLIC	??_C@_0HM@MGDLGKIP@?$FLCastleSiege?$FN?5PACKET?9ERROR?5?$FL0x88@ ; `string'
PUBLIC	??_C@_0HH@KKMGHAAE@?$FLCastleSiege?$FN?5PACKET?9ERROR?5?$FL0x89@ ; `string'
PUBLIC	??_C@_07OIIICFNN@SUCCEED?$AA@			; `string'
PUBLIC	??_C@_04OOEBCMBF@FAIL?$AA@			; `string'
PUBLIC	??_C@_0EP@HIMGAPIB@?$FLCastleSiege?$FN?5?$FL0x89?$FN?5GS_DGAnsCas@ ; `string'
PUBLIC	??_C@_0CL@BPJMLKLO@?$FL?5CRYWOLF?5?$FN?5SYNC?5Occupation?3?5?$CFd?0@ ; `string'
PUBLIC	??_C@_0CM@OEMLKOCG@?$FL?5Crywolf?5?$FN?5Incorrect?5DB?5Occupat@ ; `string'
PUBLIC	??_C@_07FHODIPOK@?$CFs?5?$HM?5?$CFs?$AA@	; `string'
PUBLIC	__real@41200000
PUBLIC	__real@437f0000
EXTRN	??_M@YGXPAXIIP6EX0@Z@Z:PROC			; `eh vector destructor iterator'
EXTRN	??3@YAXPAXI@Z:PROC				; operator delete
EXTRN	??_V@YAXPAXI@Z:PROC				; operator delete[]
EXTRN	_atexit:PROC
EXTRN	___report_rangecheckfailure:PROC
EXTRN	_strcpy_s:PROC
EXTRN	_strncmp:PROC
EXTRN	__imp__GetTickCount@0:PROC
EXTRN	__imp__wsprintfA:PROC
EXTRN	__imp__SendMessageA@16:PROC
EXTRN	?Get@Message@@QAEPADH@Z:PROC			; Message::Get
EXTRN	??0CItem@@QAE@XZ:PROC				; CItem::CItem
EXTRN	?Convert@CItem@@QAEXHEEEEEEPAEEE@Z:PROC		; CItem::Convert
EXTRN	?Clear@CItem@@QAEXXZ:PROC			; CItem::Clear
EXTRN	?IsItem@CItem@@QAEHXZ:PROC			; CItem::IsItem
EXTRN	?SetPetItemInfo@CItem@@QAEXHH@Z:PROC		; CItem::SetPetItemInfo
EXTRN	?GetName@CItem@@QAEPADXZ:PROC			; CItem::GetName
EXTRN	?ItemByteConvert16@@YAXPAEQAVCItem@@H@Z:PROC	; ItemByteConvert16
EXTRN	?ItemByteConvert@@YAXPAEVCItem@@@Z:PROC		; ItemByteConvert
EXTRN	?ItemGetDurability@@YAHHHHH@Z:PROC		; ItemGetDurability
EXTRN	?IsItem@@YAHH@Z:PROC				; IsItem
EXTRN	??1CSkillDelay@@UAE@XZ:PROC			; CSkillDelay::~CSkillDelay
EXTRN	?MsgBox@@YAXPADZZ:PROC				; MsgBox
EXTRN	?DataSend@@YAHHPAEK@Z:PROC			; DataSend
EXTRN	?CloseClient@@YAXH@Z:PROC			; CloseClient
EXTRN	?MagicByteConvert@@YAXPAEQAVCMagicInf@@H@Z:PROC	; MagicByteConvert
EXTRN	?DGAnswerServerInfo@CGensSystem@@QAEXPAE@Z:PROC	; CGensSystem::DGAnswerServerInfo
EXTRN	?GDReqGensInfo@CGensSystem@@QAEXH@Z:PROC	; CGensSystem::GDReqGensInfo
EXTRN	?DGAnsJoinRequest@CGensSystem@@QAEXPAE@Z:PROC	; CGensSystem::DGAnsJoinRequest
EXTRN	?DGAnsGensInfo@CGensSystem@@QAEXPAE@Z:PROC	; CGensSystem::DGAnsGensInfo
EXTRN	?DGAnsLeaveRequest@CGensSystem@@QAEXPAE@Z:PROC	; CGensSystem::DGAnsLeaveRequest
EXTRN	??1TMonsterAIAgro@@UAE@XZ:PROC			; TMonsterAIAgro::~TMonsterAIAgro
EXTRN	?Is380Item@CItemSystemFor380@@QAEHPBVCItem@@@Z:PROC ; CItemSystemFor380::Is380Item
EXTRN	?IsSocketItem@CSocketItems@@QAE_NH@Z:PROC	; CSocketItems::IsSocketItem
EXTRN	?GetSocketCount@CSocketItems@@QAEEH@Z:PROC	; CSocketItems::GetSocketCount
EXTRN	?MonsterItemDrop@MapClass@@QAEHHHMHHEEEEEHKEPAEE@Z:PROC ; MapClass::MonsterItemDrop
EXTRN	?MapNumberCheck@@YAHH@Z:PROC			; MapNumberCheck
EXTRN	?AllSendServerMsg@@YAXPAD@Z:PROC		; AllSendServerMsg
EXTRN	?GCServerMsgStringSend@@YAXPADHE@Z:PROC		; GCServerMsgStringSend
EXTRN	?GCInventoryItemOneSend@@YAXHH@Z:PROC		; GCInventoryItemOneSend
EXTRN	?GCMagicListMultiSend@@YAXPAUOBJECTSTRUCT@@E@Z:PROC ; GCMagicListMultiSend
EXTRN	?GCSkillKeySend@@YAXHPAEEEEEEEK@Z:PROC		; GCSkillKeySend
EXTRN	?GCMoneySend@@YAXHK@Z:PROC			; GCMoneySend
EXTRN	?GCUserWarehouseSend@@YAXPAUOBJECTSTRUCT@@@Z:PROC ; GCUserWarehouseSend
EXTRN	?GCWarehouseStateSend@@YAXHE@Z:PROC		; GCWarehouseStateSend
EXTRN	?CGRequestQuestInfo@@YAXH@Z:PROC		; CGRequestQuestInfo
EXTRN	?GCAnsCastleSiegeState@@YAXHHPAD0@Z:PROC	; GCAnsCastleSiegeState
EXTRN	?GCAnsRegCastleSiege@@YAXHHPAD@Z:PROC		; GCAnsRegCastleSiege
EXTRN	?GCAnsGuildRegInfo@@YAXHHPAUCSP_ANS_GUILDREGINFO@@@Z:PROC ; GCAnsGuildRegInfo
EXTRN	?GCAnsRegGuildMark@@YAXHHPAUCSP_ANS_GUILDREGMARK@@@Z:PROC ; GCAnsRegGuildMark
EXTRN	?GCAnsNpcBuy@@YAXHHHH@Z:PROC			; GCAnsNpcBuy
EXTRN	?GCAnsNpcRepair@@YAXHHHHHH@Z:PROC		; GCAnsNpcRepair
EXTRN	?GCAnsNpcUpgrade@@YAXHHHHHH@Z:PROC		; GCAnsNpcUpgrade
EXTRN	?GCAnsTaxMoneyInfo@@YAXHHEE_J@Z:PROC		; GCAnsTaxMoneyInfo
EXTRN	?GCAnsTaxRateChange@@YAXHHEH@Z:PROC		; GCAnsTaxRateChange
EXTRN	?GCAnsMoneyDrawOut@@YAXHH_J@Z:PROC		; GCAnsMoneyDrawOut
EXTRN	?GCAnsGiveUpCastleSiege@@YAXHH_NHPAD@Z:PROC	; GCAnsGiveUpCastleSiege
EXTRN	?GCSendMuBotSettings@@YAXHPAE@Z:PROC		; GCSendMuBotSettings
EXTRN	?gObjCalCharacter@@YAXH@Z:PROC			; gObjCalCharacter
EXTRN	?gObjCloseSet@@YAXHH@Z:PROC			; gObjCloseSet
EXTRN	?gObjSetCharacter@@YAHPAEH@Z:PROC		; gObjSetCharacter
EXTRN	?ItemIsBufExOption@@YAXPAEPAVCItem@@@Z:PROC	; ItemIsBufExOption
EXTRN	?gObjStatTextSave@@YAXPAUOBJECTSTRUCT@@@Z:PROC	; gObjStatTextSave
EXTRN	?gObjItemTextSave@@YAXPAUOBJECTSTRUCT@@@Z:PROC	; gObjItemTextSave
EXTRN	?gObjWarehouseTextSave@@YAXPAUOBJECTSTRUCT@@@Z:PROC ; gObjWarehouseTextSave
EXTRN	?gObjDel@@YAFH@Z:PROC				; gObjDel
EXTRN	?gObjIsConnectedGP@@YAHH@Z:PROC			; gObjIsConnectedGP
EXTRN	?gObjIsConnected@@YAHH@Z:PROC			; gObjIsConnected
EXTRN	?gObjIsAccontConnect@@YAHHPAD@Z:PROC		; gObjIsAccontConnect
EXTRN	?gObjGetAccountId@@YAPADH@Z:PROC		; gObjGetAccountId
EXTRN	?gObjInventoryInsertItem@@YAEHVCItem@@@Z:PROC	; gObjInventoryInsertItem
EXTRN	?gObjWarehouseItemSet@@YAXHHE@Z:PROC		; gObjWarehouseItemSet
EXTRN	?gObjChaosItemSet@@YAXHHE@Z:PROC		; gObjChaosItemSet
EXTRN	?gObjChaosBoxInsertItemPos@@YAEHVCItem@@HH@Z:PROC ; gObjChaosBoxInsertItemPos
EXTRN	?gObjWarehouseInsertItemPos@@YAEHVCItem@@HH@Z:PROC ; gObjWarehouseInsertItemPos
EXTRN	?LevelSmallConvert@@YAEH@Z:PROC			; LevelSmallConvert
EXTRN	?PShop_CheckInventoryEmpty@@YA_NF@Z:PROC	; PShop_CheckInventoryEmpty
EXTRN	?gObjViewportListProtocolCreate@@YAXPAUOBJECTSTRUCT@@@Z:PROC ; gObjViewportListProtocolCreate
EXTRN	?gObjGetStatPointState@@YAXHAAF000@Z:PROC	; gObjGetStatPointState
EXTRN	?MsgOutput@@YAXHPADZZ:PROC			; MsgOutput
EXTRN	?Output@CLogToFile@@QAAXPADZZ:PROC		; CLogToFile::Output
EXTRN	??0CLogToFile@@QAE@QAD0H@Z:PROC			; CLogToFile::CLogToFile
EXTRN	??1CLogToFile@@QAE@XZ:PROC			; CLogToFile::~CLogToFile
EXTRN	?Send@DBSockMng@@QAEHHPADH@Z:PROC		; DBSockMng::Send
EXTRN	?Send@DBSockMng@@QAEHPADH@Z:PROC		; DBSockMng::Send
EXTRN	?DGAnsPartyMatchReg@@YAXPAUPMSG_PARTYMATCHING_REG_ANS@@@Z:PROC ; DGAnsPartyMatchReg
EXTRN	?DGAnsPartyMatchInfo@@YAXPAE@Z:PROC		; DGAnsPartyMatchInfo
EXTRN	?DGAnsPartyMatchJoin@@YAXPAUPMSG_PARTYMATCHING_JOIN_ANS@@@Z:PROC ; DGAnsPartyMatchJoin
EXTRN	?DGAnsPartyMatchWaitlist@@YAXPAUPMSG_PARTYMATCHING_WAIT_ANS@@@Z:PROC ; DGAnsPartyMatchWaitlist
EXTRN	?DGAnsPartyMatchCancel@@YAXPAUPMSG_PARTYMATCHING_CANCEL_ANS@@@Z:PROC ; DGAnsPartyMatchCancel
EXTRN	?DGAnsPartyMatchAcceptList@@YAXPAE@Z:PROC	; DGAnsPartyMatchAcceptList
EXTRN	?DGAnsPartyMatchRequestAnswer@@YAXPAUPARTYMATCH_DGANS_REQUESTANSWER@@@Z:PROC ; DGAnsPartyMatchRequestAnswer
EXTRN	?CheckMoveMapSvr@CMapServerManager@@QAEFHHF@Z:PROC ; CMapServerManager::CheckMoveMapSvr
EXTRN	?SetCastleOwnerGuild@CCastleSiegeSync@@QAEXPAD@Z:PROC ; CCastleSiegeSync::SetCastleOwnerGuild
EXTRN	?ResetTributeMoney@CCastleSiegeSync@@QAEXXZ:PROC ; CCastleSiegeSync::ResetTributeMoney
EXTRN	?ChaosBoxInit@CChaosBox@@QAEHPAUOBJECTSTRUCT@@@Z:PROC ; CChaosBox::ChaosBoxInit
EXTRN	?QuestInfoSave@CQuestInfo@@QAEXPAUOBJECTSTRUCT@@@Z:PROC ; CQuestInfo::QuestInfoSave
EXTRN	?DGReqMonsterKillInfo@CQuestMonsterKillInfo@@QAEXPAUOBJECTSTRUCT@@@Z:PROC ; CQuestMonsterKillInfo::DGReqMonsterKillInfo
EXTRN	?GDAnsMonsterKillInfo@CQuestMonsterKillInfo@@QAEXPAE@Z:PROC ; CQuestMonsterKillInfo::GDAnsMonsterKillInfo
EXTRN	?SaveMonsterKillInfo@CQuestMonsterKillInfo@@QAEXPAUOBJECTSTRUCT@@@Z:PROC ; CQuestMonsterKillInfo::SaveMonsterKillInfo
EXTRN	?GDReqQuestInfo@CQuestInfoEx@@QAEXPAUOBJECTSTRUCT@@@Z:PROC ; CQuestInfoEx::GDReqQuestInfo
EXTRN	?DGAnsQuestInfo@CQuestInfoEx@@QAEXPAE@Z:PROC	; CQuestInfoEx::DGAnsQuestInfo
EXTRN	?MakeNoticeMsg@TNotice@@SAXPAXEPAD@Z:PROC	; TNotice::MakeNoticeMsg
EXTRN	?SetNoticeProperty@TNotice@@SAXPAXEKEGE@Z:PROC	; TNotice::SetNoticeProperty
EXTRN	?SendNoticeToAllUser@TNotice@@SAXPAX@Z:PROC	; TNotice::SendNoticeToAllUser
EXTRN	?DGGuildMemberInfoRequest@@YAXH@Z:PROC		; DGGuildMemberInfoRequest
EXTRN	?FriendListRequest@@YAXH@Z:PROC			; FriendListRequest
EXTRN	?GJReqMapSvrMove@@YAXHGGEE@Z:PROC		; GJReqMapSvrMove
EXTRN	?SkillChangeUse@CObjUseSkill@@QAEHH@Z:PROC	; CObjUseSkill::SkillChangeUse
EXTRN	?DGAnsPeriodItemList@CCashItemPeriodSystem@@QAEXPAUPMSG_ANS_PERIODITEM_LIST@@@Z:PROC ; CCashItemPeriodSystem::DGAnsPeriodItemList
EXTRN	?DGAnsPeriodItemInsert@CCashItemPeriodSystem@@QAEXPAUPMSG_ANS_PERIODITEM_INSERT@@@Z:PROC ; CCashItemPeriodSystem::DGAnsPeriodItemInsert
EXTRN	?DGAnsPeriodItemInquiry@CCashItemPeriodSystem@@QAEXPAUPMSG_ANS_PERIODITEM_INQUIRY@@@Z:PROC ; CCashItemPeriodSystem::DGAnsPeriodItemInquiry
EXTRN	?DGAnsPeriodItemUpdate@CCashItemPeriodSystem@@QAEXPAUPMSG_ANS_PERIODITEM_UPDATE@@@Z:PROC ; CCashItemPeriodSystem::DGAnsPeriodItemUpdate
EXTRN	?DGAnsPeriodItemDelete@CCashItemPeriodSystem@@QAEXPAUPMSG_ANS_PERIODITEM_DELETE@@@Z:PROC ; CCashItemPeriodSystem::DGAnsPeriodItemDelete
EXTRN	?GetBridgeLevel@CBloodCastle@@QAEHH@Z:PROC	; CBloodCastle::GetBridgeLevel
EXTRN	?GetItemMap@CBloodCastle@@QAEHH@Z:PROC		; CBloodCastle::GetItemMap
EXTRN	?GetRewardMap@CBloodCastle@@QAEHH@Z:PROC	; CBloodCastle::GetRewardMap
EXTRN	?PHeadSetB@@YAXPAEEH@Z:PROC			; PHeadSetB
EXTRN	?PHeadSetW@@YAXPAEEH@Z:PROC			; PHeadSetW
EXTRN	?GetOccupationState@CCrywolfSync@@QAEHXZ:PROC	; CCrywolfSync::GetOccupationState
EXTRN	?SetOccupationState@CCrywolfSync@@QAEXH@Z:PROC	; CCrywolfSync::SetOccupationState
EXTRN	?SetCrywolfState@CCrywolfSync@@QAEXH@Z:PROC	; CCrywolfSync::SetCrywolfState
EXTRN	?Init@CCastleSiege@@QAEHXZ:PROC			; CCastleSiege::Init
EXTRN	?GetDataLoadState@CCastleSiege@@QAEHXZ:PROC	; CCastleSiege::GetDataLoadState
EXTRN	?SetDataLoadState@CCastleSiege@@QAEXH@Z:PROC	; CCastleSiege::SetDataLoadState
EXTRN	?SetDbDataLoadOK@CCastleSiege@@QAEXH@Z:PROC	; CCastleSiege::SetDbDataLoadOK
EXTRN	?FirstCreateDbNPC@CCastleSiege@@QAEHXZ:PROC	; CCastleSiege::FirstCreateDbNPC
EXTRN	?SetCastleInitData@CCastleSiege@@QAEHPAUCSP_ANS_CSINITDATA@@@Z:PROC ; CCastleSiege::SetCastleInitData
EXTRN	?SetCastleNpcData@CCastleSiege@@QAEHPAUCSP_CSINITDATA@@H@Z:PROC ; CCastleSiege::SetCastleNpcData
EXTRN	?CreateDbNPC@CCastleSiege@@QAEXXZ:PROC		; CCastleSiege::CreateDbNPC
EXTRN	?AddDbNPC@CCastleSiege@@QAEHHH@Z:PROC		; CCastleSiege::AddDbNPC
EXTRN	?RepairDbNPC@CCastleSiege@@QAEHHHHH@Z:PROC	; CCastleSiege::RepairDbNPC
EXTRN	?UpgradeDbNPC@CCastleSiege@@QAEHHHHHHH@Z:PROC	; CCastleSiege::UpgradeDbNPC
EXTRN	?SetTaxRate@CCastleSiege@@QAEXHH@Z:PROC		; CCastleSiege::SetTaxRate
EXTRN	?SetCastleMoney@CCastleSiege@@QAEX_J@Z:PROC	; CCastleSiege::SetCastleMoney
EXTRN	?ResetCastleTaxInfo@CCastleSiege@@QAEXXZ:PROC	; CCastleSiege::ResetCastleTaxInfo
EXTRN	?SetIsSiegeGuildList@CCastleSiege@@QAEXH@Z:PROC	; CCastleSiege::SetIsSiegeGuildList
EXTRN	?GetDbNpcCreated@CCastleSiege@@QAEHXZ:PROC	; CCastleSiege::GetDbNpcCreated
EXTRN	?SetDbNpcCreated@CCastleSiege@@QAEXH@Z:PROC	; CCastleSiege::SetDbNpcCreated
EXTRN	?ResetCastleCycle@CCastleSiege@@QAEXXZ:PROC	; CCastleSiege::ResetCastleCycle
EXTRN	?SetCalcRegGuildList@CCastleSiege@@QAEXPAUCSP_CALCREGGUILDLIST@@H@Z:PROC ; CCastleSiege::SetCalcRegGuildList
EXTRN	?MakeCsTotalGuildInfo@CCastleSiege@@QAEXPAUCSP_CSGUILDUNIONINFO@@H@Z:PROC ; CCastleSiege::MakeCsTotalGuildInfo
EXTRN	?SetCsTotalGuildInfo@CCastleSiege@@QAEXPAUCSP_CSLOADTOTALGUILDINFO@@H@Z:PROC ; CCastleSiege::SetCsTotalGuildInfo
EXTRN	?ApplyCrywolfDBInfo@CCrywolf@@QAEXHH@Z:PROC	; CCrywolf::ApplyCrywolfDBInfo
EXTRN	?IsEnabled@CMasterExperience@@QAEHPAUOBJECTSTRUCT@@@Z:PROC ; CMasterExperience::IsEnabled
EXTRN	?DGReqMasterInfo@CMasterExperience@@QAEXPAUOBJECTSTRUCT@@@Z:PROC ; CMasterExperience::DGReqMasterInfo
EXTRN	?GDAnsMasterInfo@CMasterExperience@@QAEXPAE@Z:PROC ; CMasterExperience::GDAnsMasterInfo
EXTRN	?SaveMasterInfo@CMasterExperience@@QAEXPAUOBJECTSTRUCT@@@Z:PROC ; CMasterExperience::SaveMasterInfo
EXTRN	?GCSendAllItemInfo@CCashShop@@QAEXPAUOBJECTSTRUCT@@@Z:PROC ; CCashShop::GCSendAllItemInfo
EXTRN	?IsElementalItem@CElementalSystem@@QAEHH@Z:PROC	; CElementalSystem::IsElementalItem
EXTRN	?GDReqErtelList@CElementalSystem@@QAEXH@Z:PROC	; CElementalSystem::GDReqErtelList
EXTRN	?DGAnsErtelList@CElementalSystem@@QAEXPAUPMSG_ANS_ERTELLIST@@@Z:PROC ; CElementalSystem::DGAnsErtelList
EXTRN	?GDSaveErtelList@CElementalSystem@@QAEXH@Z:PROC	; CElementalSystem::GDSaveErtelList
EXTRN	?AddToPriviousParty@CTemporaryUserManager@@QAEHHH@Z:PROC ; CTemporaryUserManager::AddToPriviousParty
EXTRN	?DeleteUserInParty@CTemporaryUserManager@@QAEXH@Z:PROC ; CTemporaryUserManager::DeleteUserInParty
EXTRN	?CheckMatchCharacter@CTemporaryUserManager@@QAEHPAD@Z:PROC ; CTemporaryUserManager::CheckMatchCharacter
EXTRN	?SendEventMapInfo@CTemporaryUserManager@@QAEXHH@Z:PROC ; CTemporaryUserManager::SendEventMapInfo
EXTRN	?SendNpcCoordinate@Minimap@@QAEXHEE@Z:PROC	; Minimap::SendNpcCoordinate
EXTRN	?SendPortalCoordinate@Minimap@@QAEXHE@Z:PROC	; Minimap::SendPortalCoordinate
EXTRN	?DGAnsOfferList@GuildMatch@@QAEXPAE@Z:PROC	; GuildMatch::DGAnsOfferList
EXTRN	?DGAnsOfferCreate@GuildMatch@@QAEXPAUGUILDMATCH_DGANS_OFFERCREATE@@@Z:PROC ; GuildMatch::DGAnsOfferCreate
EXTRN	?DGAnsOfferDelete@GuildMatch@@QAEXPAUGUILDMATCH_DGANS_OFFERDELETE@@@Z:PROC ; GuildMatch::DGAnsOfferDelete
EXTRN	?DGAnsJoinReq@GuildMatch@@QAEXPAUGUILDMATCH_DGANS_JOINREQ@@@Z:PROC ; GuildMatch::DGAnsJoinReq
EXTRN	?DGAnsJoinReqDelete@GuildMatch@@QAEXPAUGUILDMATCH_DGANS_OFFERDELETE@@@Z:PROC ; GuildMatch::DGAnsJoinReqDelete
EXTRN	?DGAnsJoinReqAnswer@GuildMatch@@QAEXPAUGUILDMATCH_DGANS_REQUESTANSWER@@@Z:PROC ; GuildMatch::DGAnsJoinReqAnswer
EXTRN	?DGAnsJoinReqList@GuildMatch@@QAEXPAE@Z:PROC	; GuildMatch::DGAnsJoinReqList
EXTRN	?DGAnsJoinReqStatus@GuildMatch@@QAEXPAUGUILDMATCH_DGANS_JOINREQSTATUS@@@Z:PROC ; GuildMatch::DGAnsJoinReqStatus
EXTRN	?SendOnConnect@Notice@@QAEXH@Z:PROC		; Notice::SendOnConnect
EXTRN	?DBSendVaultResult@WareHouseSYSTEM@@QAEXPAUPMSG_VAULT_RESULT@@@Z:PROC ; WareHouseSYSTEM::DBSendVaultResult
EXTRN	?Activate@HardcoreMode@@QAEXXZ:PROC		; HardcoreMode::Activate
EXTRN	@__security_check_cookie@4:PROC
EXTRN	___CxxFrameHandler3:PROC
EXTRN	__chkstk:PROC
EXTRN	_memset:PROC
EXTRN	?lMsg@@3VMessage@@A:BYTE			; lMsg
EXTRN	?ItemAttribute@@3PAUITEM_ATTRIBUTE@@A:BYTE	; ItemAttribute
EXTRN	?LogAdd@@3P6AXPADZZA:DWORD			; LogAdd
EXTRN	?LogAddC@@3P6AXEPADZZA:DWORD			; LogAddC
EXTRN	?LogAddTD@@3P6AXPADZZA:DWORD			; LogAddTD
EXTRN	?gGensSystem@@3VCGensSystem@@A:BYTE		; gGensSystem
EXTRN	?g_kItemSystemFor380@@3VCItemSystemFor380@@A:BYTE ; g_kItemSystemFor380
EXTRN	?g_SocketItem@@3VCSocketItems@@A:BYTE		; g_SocketItem
EXTRN	?gObj@@3PAUOBJECTSTRUCT@@A:DWORD		; gObj
EXTRN	?m_ObjBill@@3PAVBILL_CLASS@@A:BYTE		; m_ObjBill
EXTRN	?gPremiumServer@@3PAEA:DWORD			; gPremiumServer
EXTRN	?iCount@@3HA:DWORD				; iCount
EXTRN	?cDBSMng@@3VDBSockMng@@A:BYTE			; cDBSMng
EXTRN	?DataServerConnected@@3HA:DWORD			; DataServerConnected
EXTRN	?GameServerPort@@3HA:DWORD			; GameServerPort
EXTRN	?MapC@@3PAVMapClass@@A:BYTE			; MapC
EXTRN	?szServerName@@3PADA:BYTE			; szServerName
EXTRN	?gGameServerCode@@3FA:WORD			; gGameServerCode
EXTRN	?bCanWarehouseLock@@3HA:DWORD			; bCanWarehouseLock
EXTRN	?g_CreateCharLevelRF@@3FA:WORD			; g_CreateCharLevelRF
EXTRN	?g_CreateCharLevelSUM@@3FA:WORD			; g_CreateCharLevelSUM
EXTRN	?g_CreateCharLevelDL@@3FA:WORD			; g_CreateCharLevelDL
EXTRN	?g_CreateCharLevelMG@@3FA:WORD			; g_CreateCharLevelMG
EXTRN	?gServerReady@@3HA:DWORD			; gServerReady
EXTRN	?ghWnd@@3PAUHWND__@@A:DWORD			; ghWnd
EXTRN	?g_MapServerManager@@3VCMapServerManager@@A:BYTE ; g_MapServerManager
EXTRN	?g_CastleSiegeSync@@3VCCastleSiegeSync@@A:BYTE	; g_CastleSiegeSync
EXTRN	?g_ChaosBox@@3VCChaosBox@@A:BYTE		; g_ChaosBox
EXTRN	?g_QuestInfo@@3VCQuestInfo@@A:BYTE		; g_QuestInfo
EXTRN	?g_MonsterKillInfo@@3VCQuestMonsterKillInfo@@A:DWORD ; g_MonsterKillInfo
EXTRN	?gQuestInfoEx@@3VCQuestInfoEx@@A:BYTE		; gQuestInfoEx
EXTRN	?gObjUseSkill@@3VCObjUseSkill@@A:DWORD		; gObjUseSkill
EXTRN	?g_CashItemPeriodSystem@@3VCCashItemPeriodSystem@@A:BYTE ; g_CashItemPeriodSystem
EXTRN	?g_BloodCastle@@3VCBloodCastle@@A:BYTE		; g_BloodCastle
EXTRN	?g_CrywolfSync@@3VCCrywolfSync@@A:BYTE		; g_CrywolfSync
EXTRN	?g_CastleSiege@@3VCCastleSiege@@A:BYTE		; g_CastleSiege
EXTRN	?g_Crywolf@@3VCCrywolf@@A:BYTE			; g_Crywolf
EXTRN	?g_MasterExp@@3VCMasterExperience@@A:BYTE	; g_MasterExp
EXTRN	?g_CashShop@@3VCCashShop@@A:BYTE		; g_CashShop
EXTRN	?g_ElementalSystem@@3VCElementalSystem@@A:BYTE	; g_ElementalSystem
EXTRN	?cpDSPTempUserManager@@3PAVCTemporaryUserManager@@A:DWORD ; cpDSPTempUserManager
EXTRN	?g_Minimap@@3VMinimap@@A:BYTE			; g_Minimap
EXTRN	?g_GuildMatch@@3VGuildMatch@@A:BYTE		; g_GuildMatch
EXTRN	?g_Notice@@3VNotice@@A:BYTE			; g_Notice
EXTRN	?gWareHouseSYSTEM@@3VWareHouseSYSTEM@@A:BYTE	; gWareHouseSYSTEM
EXTRN	?g_HardcoreMode@@3VHardcoreMode@@A:BYTE		; g_HardcoreMode
EXTRN	___security_cookie:DWORD
EXTRN	__fltused:DWORD
_BSS	SEGMENT
?DROP_LOG_DEBUG@@3VCLogToFile@@A DB 010228H DUP (?)	; DROP_LOG_DEBUG
_BSS	ENDS
CRT$XCU	SEGMENT
?DROP_LOG_DEBUG$initializer$@@3P6AXXZA DD FLAT:??__EDROP_LOG_DEBUG@@YAXXZ ; DROP_LOG_DEBUG$initializer$
CRT$XCU	ENDS
;	COMDAT __real@437f0000
CONST	SEGMENT
__real@437f0000 DD 0437f0000r			; 255
CONST	ENDS
;	COMDAT __real@41200000
CONST	SEGMENT
__real@41200000 DD 041200000r			; 10
CONST	ENDS
;	COMDAT ??_C@_07FHODIPOK@?$CFs?5?$HM?5?$CFs?$AA@
CONST	SEGMENT
??_C@_07FHODIPOK@?$CFs?5?$HM?5?$CFs?$AA@ DB '%s | %s', 00H ; `string'
CONST	ENDS
;	COMDAT ??_C@_0CM@OEMLKOCG@?$FL?5Crywolf?5?$FN?5Incorrect?5DB?5Occupat@
CONST	SEGMENT
??_C@_0CM@OEMLKOCG@?$FL?5Crywolf?5?$FN?5Incorrect?5DB?5Occupat@ DB '[ Cry'
	DB	'wolf ] Incorrect DB OccupationState!!!', 00H ; `string'
CONST	ENDS
;	COMDAT ??_C@_0CL@BPJMLKLO@?$FL?5CRYWOLF?5?$FN?5SYNC?5Occupation?3?5?$CFd?0@
CONST	SEGMENT
??_C@_0CL@BPJMLKLO@?$FL?5CRYWOLF?5?$FN?5SYNC?5Occupation?3?5?$CFd?0@ DB '['
	DB	' CRYWOLF ] SYNC Occupation: %d, State: %d', 00H ; `string'
CONST	ENDS
;	COMDAT ??_C@_0EP@HIMGAPIB@?$FLCastleSiege?$FN?5?$FL0x89?$FN?5GS_DGAnsCas@
CONST	SEGMENT
??_C@_0EP@HIMGAPIB@?$FLCastleSiege?$FN?5?$FL0x89?$FN?5GS_DGAnsCas@ DB '[C'
	DB	'astleSiege] [0x89] GS_DGAnsCastleNpcUpdate() - Npc Data Updat'
	DB	'e Result : ''%s''', 00H			; `string'
CONST	ENDS
;	COMDAT ??_C@_04OOEBCMBF@FAIL?$AA@
CONST	SEGMENT
??_C@_04OOEBCMBF@FAIL?$AA@ DB 'FAIL', 00H		; `string'
CONST	ENDS
;	COMDAT ??_C@_07OIIICFNN@SUCCEED?$AA@
CONST	SEGMENT
??_C@_07OIIICFNN@SUCCEED?$AA@ DB 'SUCCEED', 00H		; `string'
CONST	ENDS
;	COMDAT ??_C@_0HH@KKMGHAAE@?$FLCastleSiege?$FN?5PACKET?9ERROR?5?$FL0x89@
CONST	SEGMENT
??_C@_0HH@KKMGHAAE@?$FLCastleSiege?$FN?5PACKET?9ERROR?5?$FL0x89@ DB '[Cas'
	DB	'tleSiege] PACKET-ERROR [0x89] GS_DGAnsCastleNpcUpdate() - lpM'
	DB	'sg->wMapSvrNum != g_MapServerManager.GetMapSvrGroup()', 00H ; `string'
CONST	ENDS
;	COMDAT ??_C@_0HM@MGDLGKIP@?$FLCastleSiege?$FN?5PACKET?9ERROR?5?$FL0x88@
CONST	SEGMENT
??_C@_0HM@MGDLGKIP@?$FLCastleSiege?$FN?5PACKET?9ERROR?5?$FL0x88@ DB '[Cas'
	DB	'tleSiege] PACKET-ERROR [0x88] GS_DGAnsCsLoadTotalGuildInfo() '
	DB	'- lpMsg->wMapSvrNum != g_MapServerManager.GetMapSvrGroup()', 00H ; `string'
CONST	ENDS
;	COMDAT ??_C@_0HM@DAOCJLIP@?$FLCastleSiege?$FN?5PACKET?9ERROR?5?$FL0x87@
CONST	SEGMENT
??_C@_0HM@DAOCJLIP@?$FLCastleSiege?$FN?5PACKET?9ERROR?5?$FL0x87@ DB '[Cas'
	DB	'tleSiege] PACKET-ERROR [0x87] GS_DGAnsCsSaveTotalGuildInfo() '
	DB	'- lpMsg->wMapSvrNum != g_MapServerManager.GetMapSvrGroup()', 00H ; `string'
CONST	ENDS
;	COMDAT ??_C@_0HI@LIMFILFK@?$FLCastleSiege?$FN?5PACKET?9ERROR?5?$FL0x86@
CONST	SEGMENT
??_C@_0HI@LIMFILFK@?$FLCastleSiege?$FN?5PACKET?9ERROR?5?$FL0x86@ DB '[Cas'
	DB	'tleSiege] PACKET-ERROR [0x86] GS_DGAnsCsGulidUnionInfo() - lp'
	DB	'Msg->wMapSvrNum != g_MapServerManager.GetMapSvrGroup()', 00H ; `string'
CONST	ENDS
;	COMDAT ??_C@_0FI@CEGBKGAK@?$FLCastleSiege?$FN?5PACKET?9ERROR?5?$FL0x85@
CONST	SEGMENT
??_C@_0FI@CEGBKGAK@?$FLCastleSiege?$FN?5PACKET?9ERROR?5?$FL0x85@ DB '[Cas'
	DB	'tleSiege] PACKET-ERROR [0x85] GS_DGAnsCalcREgGuildList() - lp'
	DB	'Msg->iResult != 1 (%d)', 00H		; `string'
CONST	ENDS
;	COMDAT ??_C@_0HI@DCOFLPNN@?$FLCastleSiege?$FN?5PACKET?9ERROR?5?$FL0x85@
CONST	SEGMENT
??_C@_0HI@DCOFLPNN@?$FLCastleSiege?$FN?5PACKET?9ERROR?5?$FL0x85@ DB '[Cas'
	DB	'tleSiege] PACKET-ERROR [0x85] GS_DGAnsCalcREgGuildList() - lp'
	DB	'Msg->wMapSvrNum != g_MapServerManager.GetMapSvrGroup()', 00H ; `string'
CONST	ENDS
;	COMDAT ??_C@_0HG@MMFIPMJM@?$FLCastleSiege?$FN?5PACKET?9ERROR?5?$FL0x84@
CONST	SEGMENT
??_C@_0HG@MMFIPMJM@?$FLCastleSiege?$FN?5PACKET?9ERROR?5?$FL0x84@ DB '[Cas'
	DB	'tleSiege] PACKET-ERROR [0x84] GS_DGAnsFirstCreateNPC() - lpMs'
	DB	'g->wMapSvrNum != g_MapServerManager.GetMapSvrGroup()', 00H ; `string'
CONST	ENDS
;	COMDAT ??_C@_0HL@PPDLAEKI@?$FLCastleSiege?$FN?5PACKET?9ERROR?5?$FL0x83@
CONST	SEGMENT
??_C@_0HL@PPDLAEKI@?$FLCastleSiege?$FN?5PACKET?9ERROR?5?$FL0x83@ DB '[Cas'
	DB	'tleSiege] PACKET-ERROR [0x83] GS_DGAnsAllGuildMarkRegInfo() -'
	DB	' lpMsg->wMapSvrNum != g_MapServerManager.GetMapSvrGroup()', 00H ; `string'
CONST	ENDS
;	COMDAT ??_C@_0HF@FPJKEGCI@?$FLCastleSiege?$FN?5PACKET?9ERROR?5?$FL0x82@
CONST	SEGMENT
??_C@_0HF@FPJKEGCI@?$FLCastleSiege?$FN?5PACKET?9ERROR?5?$FL0x82@ DB '[Cas'
	DB	'tleSiege] PACKET-ERROR [0x82] GS_DGAnsCastleNpcInfo() - lpMsg'
	DB	'->wMapSvrNum != g_MapServerManager.GetMapSvrGroup()', 00H ; `string'
CONST	ENDS
;	COMDAT ??_C@_0GC@MGFHIKBL@?$FLCastleSiege?$FN?5CASTLE?5SIEGE?5DATA?5@
CONST	SEGMENT
??_C@_0GC@MGFHIKBL@?$FLCastleSiege?$FN?5CASTLE?5SIEGE?5DATA?5@ DB '[Castl'
	DB	'eSiege] CASTLE SIEGE DATA SETTING FAILED [0x81] - g_CastleSie'
	DB	'ge.SetCastleNpcData() == FALSE', 00H	; `string'
CONST	ENDS
;	COMDAT ??_C@_0GD@EAAPMHFJ@?$FLCastleSiege?$FN?5CASTLE?5SIEGE?5DATA?5@
CONST	SEGMENT
??_C@_0GD@EAAPMHFJ@?$FLCastleSiege?$FN?5CASTLE?5SIEGE?5DATA?5@ DB '[Castl'
	DB	'eSiege] CASTLE SIEGE DATA SETTING FAILED [0x81] - g_CastleSie'
	DB	'ge.SetCastleInitData() == FALSE', 00H	; `string'
CONST	ENDS
;	COMDAT ??_C@_0EM@NPBCIFML@?$FLCastleSiege?$FN?5CASTLE?5SIEGE?5DATA?5@
CONST	SEGMENT
??_C@_0EM@NPBCIFML@?$FLCastleSiege?$FN?5CASTLE?5SIEGE?5DATA?5@ DB '[Castl'
	DB	'eSiege] CASTLE SIEGE DATA SETTING FAILED [0x81] - lpMsg->iRes'
	DB	'ult == 0', 00H				; `string'
CONST	ENDS
;	COMDAT ??_C@_0GO@LJFKFDKN@?$FLCastleSiege?$FN?5CASTLE?5SIEGE?5DATA?5@
CONST	SEGMENT
??_C@_0GO@LJFKFDKN@?$FLCastleSiege?$FN?5CASTLE?5SIEGE?5DATA?5@ DB '[Castl'
	DB	'eSiege] CASTLE SIEGE DATA SETTING FAILED [0x81] - m_iCastleDa'
	DB	'taLoadState != CASTLESIEGE_DATALOAD_2 (%d)', 00H ; `string'
CONST	ENDS
;	COMDAT ??_C@_0HG@CBDKIEJG@?$FLCastleSiege?$FN?5PACKET?9ERROR?5?$FL0x81@
CONST	SEGMENT
??_C@_0HG@CBDKIEJG@?$FLCastleSiege?$FN?5PACKET?9ERROR?5?$FL0x81@ DB '[Cas'
	DB	'tleSiege] PACKET-ERROR [0x81] GS_DGAnsCastleInitData() - lpMs'
	DB	'g->wMapSvrNum != g_MapServerManager.GetMapSvrGroup()', 00H ; `string'
CONST	ENDS
;	COMDAT ??_C@_0HP@DDPBMEPM@?$FLCastleSiege?$FN?5PACKET?9ERROR?5?$FL0x80@
CONST	SEGMENT
??_C@_0HP@DDPBMEPM@?$FLCastleSiege?$FN?5PACKET?9ERROR?5?$FL0x80@ DB '[Cas'
	DB	'tleSiege] PACKET-ERROR [0x80][0x1B] GS_DGAnsResetRegSiegeInfo'
	DB	'() - lpMsg->wMapSvrNum != g_MapServerManager.GetMapSvrGroup()'
	DB	00H						; `string'
CONST	ENDS
;	COMDAT ??_C@_0IB@LEBBPIHB@?$FLCastleSiege?$FN?5PACKET?9ERROR?5?$FL0x80@
CONST	SEGMENT
??_C@_0IB@LEBBPIHB@?$FLCastleSiege?$FN?5PACKET?9ERROR?5?$FL0x80@ DB '[Cas'
	DB	'tleSiege] PACKET-ERROR [0x80][0x1A] GS_DGAnsResetSiegeGuildIn'
	DB	'fo() - lpMsg->wMapSvrNum != g_MapServerManager.GetMapSvrGroup'
	DB	'()', 00H					; `string'
CONST	ENDS
;	COMDAT ??_C@_0IA@OLLELCLL@?$FLCastleSiege?$FN?5PACKET?9ERROR?5?$FL0x80@
CONST	SEGMENT
??_C@_0IA@OLLELCLL@?$FLCastleSiege?$FN?5PACKET?9ERROR?5?$FL0x80@ DB '[Cas'
	DB	'tleSiege] PACKET-ERROR [0x80][0x19] GS_DGAnsResetCastleTaxInf'
	DB	'o() - lpMsg->wMapSvrNum != g_MapServerManager.GetMapSvrGroup('
	DB	')', 00H					; `string'
CONST	ENDS
;	COMDAT ??_C@_0FA@NDMPNFNO@?$FLCastleSiege?$FN?5?$FL0x80?$FN?$FL0x18?$FN?5GS_DG@
CONST	SEGMENT
??_C@_0FA@NDMPNFNO@?$FLCastleSiege?$FN?5?$FL0x80?$FN?$FL0x18?$FN?5GS_DG@ DB '['
	DB	'CastleSiege] [0x80][0x18] GS_DGAnsCastleTributeMoney() - Mone'
	DB	'y Tribute OK (%d)', 00H			; `string'
CONST	ENDS
;	COMDAT ??_C@_0IA@HBPHMAAG@?$FLCastleSiege?$FN?5PACKET?9ERROR?5?$FL0x80@
CONST	SEGMENT
??_C@_0IA@HBPHMAAG@?$FLCastleSiege?$FN?5PACKET?9ERROR?5?$FL0x80@ DB '[Cas'
	DB	'tleSiege] PACKET-ERROR [0x80][0x18] GS_DGAnsCastleTributeMone'
	DB	'y() - lpMsg->wMapSvrNum != g_MapServerManager.GetMapSvrGroup('
	DB	')', 00H					; `string'
CONST	ENDS
;	COMDAT ??_C@_0HM@JNNIOIKL@?$FLCastleSiege?$FN?5PACKET?9ERROR?5?$FL0x80@
CONST	SEGMENT
??_C@_0HM@JNNIOIKL@?$FLCastleSiege?$FN?5PACKET?9ERROR?5?$FL0x80@ DB '[Cas'
	DB	'tleSiege] PACKET-ERROR [0x80][0x12] GS_DGAnsGuildSetGiveUp() '
	DB	'- lpMsg->wMapSvrNum != g_MapServerManager.GetMapSvrGroup()', 00H ; `string'
CONST	ENDS
;	COMDAT ??_C@_0HK@NECBCB@?$FLCastleSiege?$FN?5PACKET?9ERROR?5?$FL0x80@
CONST	SEGMENT
??_C@_0HK@NECBCB@?$FLCastleSiege?$FN?5PACKET?9ERROR?5?$FL0x80@ DB '[Castl'
	DB	'eSiege] PACKET-ERROR [0x80][0x10] GS_DGAnsRegGuildMark() - lp'
	DB	'Msg->wMapSvrNum != g_MapServerManager.GetMapSvrGroup()', 00H ; `string'
CONST	ENDS
;	COMDAT ??_C@_0IA@LNMFDGBP@?$FLCastleSiege?$FN?5PACKET?9ERROR?5?$FL0x80@
CONST	SEGMENT
??_C@_0IA@LNMFDGBP@?$FLCastleSiege?$FN?5PACKET?9ERROR?5?$FL0x80@ DB '[Cas'
	DB	'tleSiege] PACKET-ERROR [0x80][0x0F] GS_DGAnsMapSvrMsgMultiCas'
	DB	't() - lpMsg->wMapSvrNum != g_MapServerManager.GetMapSvrGroup('
	DB	')', 00H					; `string'
CONST	ENDS
;	COMDAT ??_C@_0IA@JGOKJONB@?$FLCastleSiege?$FN?5PACKET?9ERROR?5?$FL0x80@
CONST	SEGMENT
??_C@_0IA@JGOKJONB@?$FLCastleSiege?$FN?5PACKET?9ERROR?5?$FL0x80@ DB '[Cas'
	DB	'tleSiege] PACKET-ERROR [0x80][0x0E] GS_DGAnsRestartCastleStat'
	DB	'e() - lpMsg->wMapSvrNum != g_MapServerManager.GetMapSvrGroup('
	DB	')', 00H					; `string'
CONST	ENDS
;	COMDAT ??_C@_0HM@ENOOGPCP@?$FLCastleSiege?$FN?5PACKET?9ERROR?5?$FL0x80@
CONST	SEGMENT
??_C@_0HM@ENOOGPCP@?$FLCastleSiege?$FN?5PACKET?9ERROR?5?$FL0x80@ DB '[Cas'
	DB	'tleSiege] PACKET-ERROR [0x80][0x0D] GS_DGAnsRegAttackGuild() '
	DB	'- lpMsg->wMapSvrNum != g_MapServerManager.GetMapSvrGroup()', 00H ; `string'
CONST	ENDS
;	COMDAT ??_C@_0HP@ODLOINGN@?$FLCastleSiege?$FN?5PACKET?9ERROR?5?$FL0x80@
CONST	SEGMENT
??_C@_0HP@ODLOINGN@?$FLCastleSiege?$FN?5PACKET?9ERROR?5?$FL0x80@ DB '[Cas'
	DB	'tleSiege] PACKET-ERROR [0x80][0x0C] GS_DGAnsCastleOwnerChange'
	DB	'() - lpMsg->wMapSvrNum != g_MapServerManager.GetMapSvrGroup()'
	DB	00H						; `string'
CONST	ENDS
;	COMDAT ??_C@_0HO@EGJJDJOF@?$FLCastleSiege?$FN?5PACKET?9ERROR?5?$FL0x80@
CONST	SEGMENT
??_C@_0HO@EGJJDJOF@?$FLCastleSiege?$FN?5PACKET?9ERROR?5?$FL0x80@ DB '[Cas'
	DB	'tleSiege] PACKET-ERROR [0x80][0x0B] GS_DGAnsSiegeEndedChange('
	DB	') - lpMsg->wMapSvrNum != g_MapServerManager.GetMapSvrGroup()', 00H ; `string'
CONST	ENDS
;	COMDAT ??_C@_0HO@JKCCCDJI@?$FLCastleSiege?$FN?5PACKET?9ERROR?5?$FL0x80@
CONST	SEGMENT
??_C@_0HO@JKCCCDJI@?$FLCastleSiege?$FN?5PACKET?9ERROR?5?$FL0x80@ DB '[Cas'
	DB	'tleSiege] PACKET-ERROR [0x80][0x0A] GS_DGAnsGuildMarkRegInfo('
	DB	') - lpMsg->wMapSvrNum != g_MapServerManager.GetMapSvrGroup()', 00H ; `string'
CONST	ENDS
;	COMDAT ??_C@_0HN@KCDIDGDG@?$FLCastleSiege?$FN?5PACKET?9ERROR?5?$FL0x80@
CONST	SEGMENT
??_C@_0HN@KCDIDGDG@?$FLCastleSiege?$FN?5PACKET?9ERROR?5?$FL0x80@ DB '[Cas'
	DB	'tleSiege] PACKET-ERROR [0x80][0x09] GS_DGAnsSiegeDateChange()'
	DB	' - lpMsg->wMapSvrNum != g_MapServerManager.GetMapSvrGroup()', 00H ; `string'
CONST	ENDS
;	COMDAT ??_C@_0HE@CADAABKE@?$FLCastleSiege?$FN?5?$FL0x80?$FN?$FL0x08?$FN?5GS_DG@
CONST	SEGMENT
??_C@_0HE@CADAABKE@?$FLCastleSiege?$FN?5?$FL0x80?$FN?$FL0x08?$FN?5GS_DG@ DB '['
	DB	'CastleSiege] [0x80][0x08] GS_DGAnsCastleMoneyChange() - Withd'
	DB	'raw Request OK [%s][%s] (ReqMoney:%d, TotMoney:%I64d)', 00H ; `string'
CONST	ENDS
;	COMDAT ??_C@_0HP@IIFHPCOO@?$FLCastleSiege?$FN?5PACKET?9ERROR?5?$FL0x80@
CONST	SEGMENT
??_C@_0HP@IIFHPCOO@?$FLCastleSiege?$FN?5PACKET?9ERROR?5?$FL0x80@ DB '[Cas'
	DB	'tleSiege] PACKET-ERROR [0x80][0x08] GS_DGAnsCastleMoneyChange'
	DB	'() - lpMsg->wMapSvrNum != g_MapServerManager.GetMapSvrGroup()'
	DB	00H						; `string'
CONST	ENDS
;	COMDAT ??_C@_0HL@PMPBBPDM@?$FLCastleSiege?$FN?5PACKET?9ERROR?5?$FL0x80@
CONST	SEGMENT
??_C@_0HL@PMPBBPDM@?$FLCastleSiege?$FN?5PACKET?9ERROR?5?$FL0x80@ DB '[Cas'
	DB	'tleSiege] PACKET-ERROR [0x80][0x07] GS_DGAnsTaxRateChange() -'
	DB	' lpMsg->wMapSvrNum != g_MapServerManager.GetMapSvrGroup()', 00H ; `string'
CONST	ENDS
;	COMDAT ??_C@_0HF@NIPKIGMO@?$FLCastleSiege?$FN?5PACKET?9ERROR?5?$FL0x80@
CONST	SEGMENT
??_C@_0HF@NIPKIGMO@?$FLCastleSiege?$FN?5PACKET?9ERROR?5?$FL0x80@ DB '[Cas'
	DB	'tleSiege] PACKET-ERROR [0x80][0x06] GS_DGAnsTaxInfo() - lpMsg'
	DB	'->wMapSvrNum != g_MapServerManager.GetMapSvrGroup()', 00H ; `string'
CONST	ENDS
;	COMDAT ??_C@_0GE@HOFNMLEH@?$FLCastleSiege?$FN?5?$FL0x80?$FN?$FL0x06?$FN?5GS_DG@
CONST	SEGMENT
??_C@_0GE@HOFNMLEH@?$FLCastleSiege?$FN?5?$FL0x80?$FN?$FL0x06?$FN?5GS_DG@ DB '['
	DB	'CastleSiege] [0x80][0x06] GS_DGAnsTaxInfo() - Npc Upgrade OK '
	DB	'(CLS:%d, IDX:%d, UPTYPE:%d, UPVAL:%d)', 00H	; `string'
CONST	ENDS
;	COMDAT ??_C@_0FG@NIOIKHAG@?$FLCastleSiege?$FN?5ERROR?5?9?5Castle?5NPC@
CONST	SEGMENT
??_C@_0FG@NIOIKHAG@?$FLCastleSiege?$FN?5ERROR?5?9?5Castle?5NPC@ DB '[Cast'
	DB	'leSiege] ERROR - Castle NPC Upgrade Fail() (CLS:%d, IDX:%d, U'
	DB	'PTYPE:%d, UPVAL:%d)', 00H			; `string'
CONST	ENDS
;	COMDAT ??_C@_0HO@HLBFNNIO@?$FLCastleSiege?$FN?5PACKET?9ERROR?5?$FL0x80@
CONST	SEGMENT
??_C@_0HO@HLBFNNIO@?$FLCastleSiege?$FN?5PACKET?9ERROR?5?$FL0x80@ DB '[Cas'
	DB	'tleSiege] PACKET-ERROR [0x80][0x05] GS_DGAnsCastleNpcUpgrade('
	DB	') - lpMsg->wMapSvrNum != g_MapServerManager.GetMapSvrGroup()', 00H ; `string'
CONST	ENDS
;	COMDAT ??_C@_0FD@BEMJCHLC@?$FLCastleSiege?$FN?5GS_DGAnsCastleNpcR@
CONST	SEGMENT
??_C@_0FD@BEMJCHLC@?$FLCastleSiege?$FN?5GS_DGAnsCastleNpcR@ DB '[CastleSi'
	DB	'ege] GS_DGAnsCastleNpcRepair() FAILED - Result:(%d), Npc:(CLS'
	DB	':%d, IDX:%d)', 00H				; `string'
CONST	ENDS
;	COMDAT ??_C@_0GE@FAGFLPLN@?$FLCastleSiege?$FN?5GS_DGAnsCastleNpcR@
CONST	SEGMENT
??_C@_0GE@FAGFLPLN@?$FLCastleSiege?$FN?5GS_DGAnsCastleNpcR@ DB '[CastleSi'
	DB	'ege] GS_DGAnsCastleNpcRepair() - CCastleSiege::RepairDbNPC() '
	DB	'FAILED - Npc:(CLS:%d, IDX:%d)', 00H		; `string'
CONST	ENDS
;	COMDAT ??_C@_0GA@JLLACOMH@?$FLCastleSiege?$FN?5GS_DGAnsCastleNpcR@
CONST	SEGMENT
??_C@_0GA@JLLACOMH@?$FLCastleSiege?$FN?5GS_DGAnsCastleNpcR@ DB '[CastleSi'
	DB	'ege] GS_DGAnsCastleNpcRepair() - CCastleSiege::RepairDbNPC() '
	DB	'OK - Npc:(CLS:%d, IDX:%d)', 00H		; `string'
CONST	ENDS
;	COMDAT ??_C@_0HN@PMNAMEJH@?$FLCastleSiege?$FN?5PACKET?9ERROR?5?$FL0x80@
CONST	SEGMENT
??_C@_0HN@PMNAMEJH@?$FLCastleSiege?$FN?5PACKET?9ERROR?5?$FL0x80@ DB '[Cas'
	DB	'tleSiege] PACKET-ERROR [0x80][0x04] GS_DGAnsCastleNpcRepair()'
	DB	' - lpMsg->wMapSvrNum != g_MapServerManager.GetMapSvrGroup()', 00H ; `string'
CONST	ENDS
;	COMDAT ??_C@_0FA@BIAOFLEB@?$FLCastleSiege?$FN?5GS_DGAnsCastleNpcB@
CONST	SEGMENT
??_C@_0FA@BIAOFLEB@?$FLCastleSiege?$FN?5GS_DGAnsCastleNpcB@ DB '[CastleSi'
	DB	'ege] GS_DGAnsCastleNpcBuy() FAILED - Result:(%d), Npc:(CLS:%d'
	DB	', IDX:%d)', 00H				; `string'
CONST	ENDS
;	COMDAT ??_C@_0FO@MKLLBJCJ@?$FLCastleSiege?$FN?5GS_DGAnsCastleNpcB@
CONST	SEGMENT
??_C@_0FO@MKLLBJCJ@?$FLCastleSiege?$FN?5GS_DGAnsCastleNpcB@ DB '[CastleSi'
	DB	'ege] GS_DGAnsCastleNpcBuy() - CCastleSiege::AddDbNPC() FAILED'
	DB	' - Npc:(CLS:%d, IDX:%d)', 00H		; `string'
CONST	ENDS
;	COMDAT ??_C@_0FK@LDEGMOJD@?$FLCastleSiege?$FN?5GS_DGAnsCastleNpcB@
CONST	SEGMENT
??_C@_0FK@LDEGMOJD@?$FLCastleSiege?$FN?5GS_DGAnsCastleNpcB@ DB '[CastleSi'
	DB	'ege] GS_DGAnsCastleNpcBuy() - CCastleSiege::AddDbNPC() OK - N'
	DB	'pc:(CLS:%d, IDX:%d)', 00H			; `string'
CONST	ENDS
;	COMDAT ??_C@_0HK@OKLAENCI@?$FLCastleSiege?$FN?5PACKET?9ERROR?5?$FL0x80@
CONST	SEGMENT
??_C@_0HK@OKLAENCI@?$FLCastleSiege?$FN?5PACKET?9ERROR?5?$FL0x80@ DB '[Cas'
	DB	'tleSiege] PACKET-ERROR [0x80][0x03] GS_DGAnsCastleNpcBuy() - '
	DB	'lpMsg->wMapSvrNum != g_MapServerManager.GetMapSvrGroup()', 00H ; `string'
CONST	ENDS
;	COMDAT ??_C@_0HN@BJMCOPEN@?$FLCastleSiege?$FN?5PACKET?9ERROR?5?$FL0x80@
CONST	SEGMENT
??_C@_0HN@BJMCOPEN@?$FLCastleSiege?$FN?5PACKET?9ERROR?5?$FL0x80@ DB '[Cas'
	DB	'tleSiege] PACKET-ERROR [0x80][0x00] GS_DGAnsCastleTotalInfo()'
	DB	' - lpMsg->wMapSvrNum != g_MapServerManager.GetMapSvrGroup()', 00H ; `string'
CONST	ENDS
;	COMDAT ??_C@_0CP@HLCJJJIG@?$FL?$CFs?$FN?$FL?$CFs?$FN?$FLPW?$FN?$FL?$CFd?0?$CFs?$FNserial?3?$FL?$CFd?$FN?5L@
CONST	SEGMENT
??_C@_0CP@HLCJJJIG@?$FL?$CFs?$FN?$FL?$CFs?$FN?$FLPW?$FN?$FL?$CFd?0?$CFs?$FNserial?3?$FL?$CFd?$FN?5L@ DB '['
	DB	'%s][%s][PW][%d,%s]serial:[%d] Level:%d Exp:%d', 00H ; `string'
CONST	ENDS
;	COMDAT ??_C@_0CP@HBHBBGIF@?$FL?$CFs?$FN?$FL?$CFs?$FN?$FLPI?$FN?$FL?$CFd?0?$CFs?$FNserial?3?$FL?$CFd?$FN?5L@
CONST	SEGMENT
??_C@_0CP@HBHBBGIF@?$FL?$CFs?$FN?$FL?$CFs?$FN?$FLPI?$FN?$FL?$CFd?0?$CFs?$FNserial?3?$FL?$CFd?$FN?5L@ DB '['
	DB	'%s][%s][PI][%d,%s]serial:[%d] Level:%d Exp:%d', 00H ; `string'
CONST	ENDS
;	COMDAT ??_C@_0EA@PICKNLKN@Request?5to?5receive?5petitem?5infom@
CONST	SEGMENT
??_C@_0EA@PICKNLKN@Request?5to?5receive?5petitem?5infom@ DB 'Request to r'
	DB	'eceive petitem infomation doesn''t match the user %s', 00H ; `string'
CONST	ENDS
;	COMDAT ??_C@_0CD@HNLEMMHH@?$LK?P?G?R?5?$LM?$KN?$LJ?v?$LH?N?5?A?$KC?$LM?S?G?X?A?V?$LN?C?$LB?b?5?$LJ?Y?$LG?x?$LE?O?$LE@
CONST	SEGMENT
??_C@_0CD@HNLEMMHH@?$LK?P?G?R?5?$LM?$KN?$LJ?v?$LH?N?5?A?$KC?$LM?S?G?X?A?V?$LN?C?$LB?b?5?$LJ?Y?$LG?x?$LE?O?$LE@ DB 0baH
	DB	0d0H, 0c7H, 0d2H, ' ', 0bcH, 0adH, 0b9H, 0f6H, 0b7H, 0ceH, ' ', 0c1H
	DB	0a2H, 0bcH, 0d3H, 0c7H, 0d8H, 0c1H, 0d6H, 0bdH, 0c3H, 0b1H, 0e2H
	DB	' ', 0b9H, 0d9H, 0b6H, 0f8H, 0b4H, 0cfH, 0b4H, 0d9H, '.', 00H ; `string'
CONST	ENDS
;	COMDAT ??_C@_0BD@IBAEEAEE@?A?$KC?$LM?S?$MA?L?5?A?$LO?$LH?a?$LF?K?$LE?O?$LE?Y?4?$AA@
CONST	SEGMENT
??_C@_0BD@IBAEEAEE@?A?$KC?$LM?S?$MA?L?5?A?$LO?$LH?a?$LF?K?$LE?O?$LE?Y?4?$AA@ DB 0c1H
	DB	0a2H, 0bcH, 0d3H, 0c0H, 0ccH, ' ', 0c1H, 0beH, 0b7H, 0e1H, 0b5H
	DB	0cbH, 0b4H, 0cfH, 0b4H, 0d9H, '.', 00H	; `string'
CONST	ENDS
;	COMDAT ??_C@_0CE@IPHEEDFH@?$FLCharTrasfer?$FN?5Success?5?$FL?$CFs?$FN?$FL?$CFs?$FN?5?$CI@
CONST	SEGMENT
??_C@_0CE@IPHEEDFH@?$FLCharTrasfer?$FN?5Success?5?$FL?$CFs?$FN?$FL?$CFs?$FN?5?$CI@ DB '['
	DB	'CharTrasfer] Success [%s][%s] (%d)', 00H	; `string'
CONST	ENDS
;	COMDAT ??_C@_0DI@PPPCGFPL@?$LJ?$KO?A?$KG?5?$LJ?$NP?$LL?$PN?$LN?C?5change?$EAwebzen?4co?4kr?$LH@
CONST	SEGMENT
??_C@_0DI@PPPCGFPL@?$LJ?$KO?A?$KG?5?$LJ?$NP?$LL?$PN?$LN?C?5change?$EAwebzen?4co?4kr?$LH@ DB 0b9H
	DB	0aeH, 0c1H, 0a6H, ' ', 0b9H, 0dfH, 0bbH, 0fdH, 0bdH, 0c3H, ' c'
	DB	'hange@webzen.co.kr', 0b7H, 0ceH, ' ', 0b9H, 0aeH, 0c0H, 0c7H, 0c7H
	DB	0d8H, ' ', 0c1H, 0d6H, 0bdH, 0c3H, 0b1H, 0e2H, 0b9H, 0d9H, 0b6H
	DB	0f8H, 0b4H, 0cfH, 0b4H, 0d9H, 00H		; `string'
CONST	ENDS
;	COMDAT ??_C@_0CB@DOBLFOAF@?$FLCharTrasfer?$FN?5Fail?5?$FL?$CFs?$FN?$FL?$CFs?$FN?5?$CI?$CFd?$CJ@
CONST	SEGMENT
??_C@_0CB@DOBLFOAF@?$FLCharTrasfer?$FN?5Fail?5?$FL?$CFs?$FN?$FL?$CFs?$FN?5?$CI?$CFd?$CJ@ DB '['
	DB	'CharTrasfer] Fail [%s][%s] (%d)', 00H	; `string'
CONST	ENDS
;	COMDAT ??_C@_0GD@LMECKDPM@Monster?5Item?5Drop?5?$FL?$CFd?$FN?$FL?$CFd?$FN?$FL?$CFd?$FN?5?3@
CONST	SEGMENT
??_C@_0GD@LMECKDPM@Monster?5Item?5Drop?5?$FL?$CFd?$FN?$FL?$CFd?$FN?$FL?$CFd?$FN?5?3@ DB 'M'
	DB	'onster Item Drop [%d][%d][%d] : serial:%d [%s][%d][%d][%d][%d'
	DB	'] Ex:[%d,%d,%d,%d,%d,%d,%d] Set:[%d]', 00H	; `string'
CONST	ENDS
;	COMDAT ??_C@_0EO@CJFPAOBM@?$FLQuestSystem?$FN?5Error?5?3?5Failed?5To?5@
CONST	SEGMENT
??_C@_0EO@CJFPAOBM@?$FLQuestSystem?$FN?5Error?5?3?5Failed?5To?5@ DB '[Que'
	DB	'stSystem] Error : Failed To Insert Item Type:%d, TypeIndex:%d'
	DB	' to [%s][%s]', 00H				; `string'
CONST	ENDS
;	COMDAT ??_C@_0EL@KDEJKEEJ@?$FLCashShop?$FN?5Error?5?3?5Failed?5To?5Ins@
CONST	SEGMENT
??_C@_0EL@KDEJKEEJ@?$FLCashShop?$FN?5Error?5?3?5Failed?5To?5Ins@ DB '[Cas'
	DB	'hShop] Error : Failed To Insert Item Type:%d, TypeIndex:%d to'
	DB	' [%s][%s]', 00H				; `string'
CONST	ENDS
;	COMDAT ??_C@_0EN@FHICBGBB@?$FLItemCreate?$FN?5Error?5?3?5Failed?5To?5I@
CONST	SEGMENT
??_C@_0EN@FHICBGBB@?$FLItemCreate?$FN?5Error?5?3?5Failed?5To?5I@ DB '[Ite'
	DB	'mCreate] Error : Failed To Insert Item Type:%d, TypeIndex:%d '
	DB	'to [%s][%s]', 00H				; `string'
CONST	ENDS
;	COMDAT ??_C@_0GA@EHKFCGJE@?$FL?$CFs?$FN?$FL?$CFs?$FN?5CBMix?5Item?5Create?5Item?3@
CONST	SEGMENT
??_C@_0GA@EHKFCGJE@?$FL?$CFs?$FN?$FL?$CFs?$FN?5CBMix?5Item?5Create?5Item?3@ DB '['
	DB	'%s][%s] CBMix Item Create Item:%s [%d][%d] [%d][%d][%d][%d] E'
	DB	'x:[%d,%d,%d,%d,%d,%d,%d] Set:[%d]', 00H	; `string'
CONST	ENDS
;	COMDAT ??_C@_0BN@BDLDNMBN@error?9L2?3?5ChaosBox?5not?5used?4?$AA@
CONST	SEGMENT
??_C@_0BN@BDLDNMBN@error?9L2?3?5ChaosBox?5not?5used?4?$AA@ DB 'error-L2: '
	DB	'ChaosBox not used.', 00H			; `string'
CONST	ENDS
;	COMDAT ??_C@_0CD@JBKACADO@error?9L2?3?5DarkTrainerBox?5not?5use@
CONST	SEGMENT
??_C@_0CD@JBKACADO@error?9L2?3?5DarkTrainerBox?5not?5use@ DB 'error-L2: D'
	DB	'arkTrainerBox not used.', 00H		; `string'
CONST	ENDS
;	COMDAT ??_C@_0BC@OFCHNMFP@error?9L3?5?$FL?$CFs?$FN?$FL?$CFd?$FN?$AA@
CONST	SEGMENT
??_C@_0BC@OFCHNMFP@error?9L3?5?$FL?$CFs?$FN?$FL?$CFd?$FN?$AA@ DB 'error-L'
	DB	'3 [%s][%d]', 00H				; `string'
CONST	ENDS
;	COMDAT ??_C@_0EP@GIBMCCNN@PACKET_RECIEVED?5?$FL?$CFd?$FN?$FL?$CFd?$FN?$FL?$CFd?$FN?5?3?5s@
CONST	SEGMENT
??_C@_0EP@GIBMCCNN@PACKET_RECIEVED?5?$FL?$CFd?$FN?$FL?$CFd?$FN?$FL?$CFd?$FN?5?3?5s@ DB 'P'
	DB	'ACKET_RECIEVED [%d][%d][%d] : serial:%d [%s][%d][%d][%d][%d] '
	DB	'Ex:[%d] Set:[%d]', 00H			; `string'
CONST	ENDS
;	COMDAT ??_C@_0HH@HKJJNFBM@Monster?5Item?5Drop?5Request?5?$FL?$CFs?$FN?5?$FL@
CONST	SEGMENT
??_C@_0HH@HKJJNFBM@Monster?5Item?5Drop?5Request?5?$FL?$CFs?$FN?5?$FL@ DB 'M'
	DB	'onster Item Drop Request [%s] [%d][%d][%d] : [%s][%d][%d][%d]'
	DB	'[%d] Ex:[%d,%d,%d,%d,%d,%d,%d] Set:[%d] | LootUser: [%s]', 00H ; `string'
CONST	ENDS
;	COMDAT ??_C@_04CGFJFPFD@none?$AA@
CONST	SEGMENT
??_C@_04CGFJFPFD@none?$AA@ DB 'none', 00H		; `string'
CONST	ENDS
;	COMDAT ??_C@_0HO@BMIFLCBN@?$FLSocketItem?$FN?5Generate?5Socket?5Ite@
CONST	SEGMENT
??_C@_0HO@BMIFLCBN@?$FLSocketItem?$FN?5Generate?5Socket?5Ite@ DB '[Socket'
	DB	'Item] Generate Socket Item ( Socket Slot : %d ) - %s, [%d,%d,'
	DB	'%d,%d], Serial : %u, ItemCode : %d, MapNumber : %d(%d/%d)', 00H ; `string'
CONST	ENDS
;	COMDAT ??_C@_0CI@MIGOHDHJ@?$FL?$CFs?$FN?$FL?$CFs?$FN?5WareHouse?5Save?5Fail?5?3?5N@
CONST	SEGMENT
??_C@_0CI@MIGOHDHJ@?$FL?$CFs?$FN?$FL?$CFs?$FN?5WareHouse?5Save?5Fail?5?3?5N@ DB '['
	DB	'%s][%s] WareHouse Save Fail : Not Open', 00H ; `string'
CONST	ENDS
;	COMDAT ??_C@_0DP@HCBBCCKB@?$FL380Item?$FN?$FL?$CFs?$FN?$FL?$CFs?$FN?5Invalid?5380?5It@
CONST	SEGMENT
??_C@_0DP@HCBBCCKB@?$FL380Item?$FN?$FL?$CFs?$FN?$FL?$CFs?$FN?5Invalid?5380?5It@ DB '['
	DB	'380Item][%s][%s] Invalid 380 Item Option in Warehouse pos[%d]'
	DB	00H						; `string'
CONST	ENDS
;	COMDAT ??_C@_0FG@OKDBPAON@?$FLMapServerMng?$FN?$FL?$CFs?$FN?$FL?$CFs?$FN?5GJSetChar@
CONST	SEGMENT
??_C@_0FG@OKDBPAON@?$FLMapServerMng?$FN?$FL?$CFs?$FN?$FL?$CFs?$FN?5GJSetChar@ DB '['
	DB	'MapServerMng][%s][%s] GJSetCharacterInfo() - MapServerMove Ch'
	DB	'aracter Save Start (%d)', 00H		; `string'
CONST	ENDS
;	COMDAT ??_C@_0EM@LOGFDPHA@?$FLMapServerMng?$FN?5GJSetCharacterInf@
CONST	SEGMENT
??_C@_0EM@LOGFDPHA@?$FLMapServerMng?$FN?5GJSetCharacterInf@ DB '[MapServe'
	DB	'rMng] GJSetCharacterInfo() - Inventory Already Saved [%s][%s]'
	DB	' (%d)', 00H					; `string'
CONST	ENDS
;	COMDAT ??_C@_0CI@DDIOKKGJ@For?5this?5server?5you?5need?5premium@
CONST	SEGMENT
??_C@_0CI@DDIOKKGJ@For?5this?5server?5you?5need?5premium@ DB 'For this se'
	DB	'rver you need premium status', 00H		; `string'
CONST	ENDS
;	COMDAT ??_C@_0GD@LBDNOPPJ@?$FLFRUIT?5System?$FN?5Character?5Stat?5Er@
CONST	SEGMENT
??_C@_0GD@LBDNOPPJ@?$FLFRUIT?5System?$FN?5Character?5Stat?5Er@ DB '[FRUIT'
	DB	' System] Character Stat Error [%s][%s] (MinusPoint:%d/PlusPoi'
	DB	'nt:%d) (MaxMinus:%d/MaxPlus:%d)', 00H	; `string'
CONST	ENDS
;	COMDAT ??_C@_0EO@MMCPKNFL@?$FLFRUIT?5System?$FN?5?$FL?$CFs?$FN?$FL?$CFs?$FN?5?$CIMinusPo@
CONST	SEGMENT
??_C@_0EO@MMCPKNFL@?$FLFRUIT?5System?$FN?5?$FL?$CFs?$FN?$FL?$CFs?$FN?5?$CIMinusPo@ DB '['
	DB	'FRUIT System] [%s][%s] (MinusPoint:%d/PlusPoint:%d) (MaxMinus'
	DB	':%d/MaxPlus:%d)', 00H			; `string'
CONST	ENDS
;	COMDAT ??_C@_0EB@KJANBCDD@?$FLMapServerMng?$FN?5Request?5to?5Move?5M@
CONST	SEGMENT
??_C@_0EB@KJANBCDD@?$FLMapServerMng?$FN?5Request?5to?5Move?5M@ DB '[MapSe'
	DB	'rverMng] Request to Move Map Server : (%d) - [%s][%s] (%d)', 00H ; `string'
CONST	ENDS
;	COMDAT ??_C@_0EM@ICCPKMCE@?$FLMapServerMng?$FN?5Map?5Server?5Move?5F@
CONST	SEGMENT
??_C@_0EM@ICCPKMCE@?$FLMapServerMng?$FN?5Map?5Server?5Move?5F@ DB '[MapSe'
	DB	'rverMng] Map Server Move Fail : CheckMoveMapSvr() == -1 [%s]['
	DB	'%s] (%d)', 00H				; `string'
CONST	ENDS
;	COMDAT ??_C@_0BB@LBNJKNBE@error?9L3?5?3?5?$CFs?5?$CFd?$AA@
CONST	SEGMENT
??_C@_0BB@LBNJKNBE@error?9L3?5?3?5?$CFs?5?$CFd?$AA@ DB 'error-L3 : %s %d', 00H ; `string'
CONST	ENDS
;	COMDAT ??_C@_0CA@ICFKKJJD@?$FL?5ZEN?5MODIFY?5?$FN?5?$FL?$CFs?$FN?$FL?$CFs?$FN?5?$CFd?5?9?$DO?50?$AA@
CONST	SEGMENT
??_C@_0CA@ICFKKJJD@?$FL?5ZEN?5MODIFY?5?$FN?5?$FL?$CFs?$FN?$FL?$CFs?$FN?5?$CFd?5?9?$DO?50?$AA@ DB '['
	DB	' ZEN MODIFY ] [%s][%s] %d -> 0', 00H	; `string'
CONST	ENDS
;	COMDAT ??_C@_0FE@JOJGEKKO@?$FLAnti?9HACK?$FN?$FLJGGetCharacterInfo?$FN?5@
CONST	SEGMENT
??_C@_0FE@JOJGEKKO@?$FLAnti?9HACK?$FN?$FLJGGetCharacterInfo?$FN?5@ DB '[A'
	DB	'nti-HACK][JGGetCharacterInfo] Attempted Character-Copy by dou'
	DB	'ble logging [%s][%s]', 00H			; `string'
CONST	ENDS
;	COMDAT ??_C@_0CL@ECFCLMFK@error?9L1?5?3?5Load?5Block?5Character?5@
CONST	SEGMENT
??_C@_0CL@ECFCLMFK@error?9L1?5?3?5Load?5Block?5Character?5@ DB 'error-L1 '
	DB	': Load Block Character infomation', 00H	; `string'
CONST	ENDS
;	COMDAT ??_C@_0P@DNGOKBGI@DSProtocol?4cpp?$AA@
CONST	SEGMENT
??_C@_0P@DNGOKBGI@DSProtocol?4cpp?$AA@ DB 'DSProtocol.cpp', 00H ; `string'
CONST	ENDS
;	COMDAT ??_C@_0P@GMPEKMII@Test?5Data?5Send?$AA@
CONST	SEGMENT
??_C@_0P@GMPEKMII@Test?5Data?5Send?$AA@ DB 'Test Data Send', 00H ; `string'
CONST	ENDS
;	COMDAT ??_C@_02DKCKIIND@?$CFs?$AA@
CONST	SEGMENT
??_C@_02DKCKIIND@?$CFs?$AA@ DB '%s', 00H		; `string'
CONST	ENDS
;	COMDAT ??_C@_0CC@MBCBAID@error?9L2DataServer?5RECV?5?3?5?$CFd?5?$CI?$CFd@
CONST	SEGMENT
??_C@_0CC@MBCBAID@error?9L2DataServer?5RECV?5?3?5?$CFd?5?$CI?$CFd@ DB 'er'
	DB	'ror-L2DataServer RECV : %d (%d)', 00H	; `string'
CONST	ENDS
;	COMDAT ??_C@_04DJCMGLJH@Drop?$AA@
CONST	SEGMENT
??_C@_04DJCMGLJH@Drop?$AA@ DB 'Drop', 00H		; `string'
CONST	ENDS
;	COMDAT ??_C@_0L@OHHLBHJC@?4?2Log?2Drop?$AA@
CONST	SEGMENT
??_C@_0L@OHHLBHJC@?4?2Log?2Drop?$AA@ DB '.\Log\Drop', 00H ; `string'
CONST	ENDS
;	COMDAT ??_C@_02DPKJAMEF@?$CFd?$AA@
CONST	SEGMENT
??_C@_02DPKJAMEF@?$CFd?$AA@ DB '%d', 00H		; `string'
CONST	ENDS
;	COMDAT xdata$x
xdata$x	SEGMENT
__ehfuncinfo$??_EOBJECTSTRUCT@@QAEPAXI@Z DD 019930522H
	DD	00H
	DD	00H
	DD	2 DUP(00H)
	DD	2 DUP(00H)
	DD	00H
	DD	05H
xdata$x	ENDS
; Function compile flags: /Ogtp
; File c:\users\michel\desktop\source\gameserver\source\dsprotocol.cpp
; File c:\users\michel\desktop\source\gameserver\include\prodef.h
; File c:\users\michel\desktop\source\gameserver\source\dsprotocol.cpp
;	COMDAT ?GS_GDReqCaslteNpcInfo@@YAXHH@Z
_TEXT	SEGMENT
_pMsg$ = -16						; size = 12
__$ArrayPad$ = -4					; size = 4
_iMapSvrGroup$ = 8					; size = 4
_aIndex$ = 12						; size = 4
?GS_GDReqCaslteNpcInfo@@YAXHH@Z PROC			; GS_GDReqCaslteNpcInfo, COMDAT

; 4773 : {

  00000	55		 push	 ebp
  00001	8b ec		 mov	 ebp, esp
  00003	83 ec 10	 sub	 esp, 16			; 00000010H
  00006	a1 00 00 00 00	 mov	 eax, DWORD PTR ___security_cookie
  0000b	33 c5		 xor	 eax, ebp
  0000d	89 45 fc	 mov	 DWORD PTR __$ArrayPad$[ebp], eax

; 4774 : 	if ( iMapSvrGroup < 0 )

  00010	8b 45 08	 mov	 eax, DWORD PTR _iMapSvrGroup$[ebp]
  00013	85 c0		 test	 eax, eax
  00015	78 24		 js	 SHORT $LN1@GS_GDReqCa

; 4775 : 	{
; 4776 : 		return;
; 4777 : 	}
; 4778 : 
; 4779 : 	CSP_REQ_NPCDATA pMsg;
; 4780 : 
; 4781 : 	pMsg.h.set((LPBYTE)&pMsg, 0x82, sizeof(CSP_REQ_NPCDATA));
; 4782 : 	pMsg.wMapSvrNum = iMapSvrGroup;

  00017	66 89 45 f4	 mov	 WORD PTR _pMsg$[ebp+4], ax

; 4785 : 	cDBSMng.Send((char*)&pMsg, pMsg.h.size);

  0001b	b9 00 00 00 00	 mov	 ecx, OFFSET ?cDBSMng@@3VDBSockMng@@A ; cDBSMng
  00020	8b 45 0c	 mov	 eax, DWORD PTR _aIndex$[ebp]
  00023	89 45 f8	 mov	 DWORD PTR _pMsg$[ebp+8], eax
  00026	8d 45 f0	 lea	 eax, DWORD PTR _pMsg$[ebp]
  00029	6a 0c		 push	 12			; 0000000cH
  0002b	50		 push	 eax
; File c:\users\michel\desktop\source\gameserver\include\prodef.h

; 86   : 		lpBuf[0] = 0xC1;

  0002c	66 c7 45 f0 c1
	0c		 mov	 WORD PTR _pMsg$[ebp], 3265 ; 00000cc1H

; 87   : 		lpBuf[1] = size;
; 88   : 		lpBuf[2] = head;

  00032	c6 45 f2 82	 mov	 BYTE PTR _pMsg$[ebp+2], 130 ; 00000082H
; File c:\users\michel\desktop\source\gameserver\source\dsprotocol.cpp

; 4785 : 	cDBSMng.Send((char*)&pMsg, pMsg.h.size);

  00036	e8 00 00 00 00	 call	 ?Send@DBSockMng@@QAEHPADH@Z ; DBSockMng::Send
$LN1@GS_GDReqCa:

; 4786 : }

  0003b	8b 4d fc	 mov	 ecx, DWORD PTR __$ArrayPad$[ebp]
  0003e	33 cd		 xor	 ecx, ebp
  00040	e8 00 00 00 00	 call	 @__security_check_cookie@4
  00045	8b e5		 mov	 esp, ebp
  00047	5d		 pop	 ebp
  00048	c3		 ret	 0
?GS_GDReqCaslteNpcInfo@@YAXHH@Z ENDP			; GS_GDReqCaslteNpcInfo
_TEXT	ENDS
; Function compile flags: /Ogtp
; File c:\users\michel\desktop\source\gameserver\source\dsprotocol.cpp
; File c:\users\michel\desktop\source\gameserver\include\prodef.h
; File c:\users\michel\desktop\source\gameserver\source\dsprotocol.cpp
;	COMDAT ?GS_GDReqResetReqSiegeInfo@@YAXH@Z
_TEXT	SEGMENT
_pMsg$ = -8						; size = 6
_iMapSvrGroup$ = 8					; size = 4
?GS_GDReqResetReqSiegeInfo@@YAXH@Z PROC			; GS_GDReqResetReqSiegeInfo, COMDAT

; 4707 : {

  00000	55		 push	 ebp
  00001	8b ec		 mov	 ebp, esp

; 4708 : 	if ( iMapSvrGroup < 0 )

  00003	8b 45 08	 mov	 eax, DWORD PTR _iMapSvrGroup$[ebp]
  00006	83 ec 08	 sub	 esp, 8
  00009	85 c0		 test	 eax, eax
  0000b	78 1b		 js	 SHORT $LN1@GS_GDReqRe

; 4709 : 	{
; 4710 : 		return;
; 4711 : 	}
; 4712 : 
; 4713 : 	CSP_REQ_RESETREGSIEGEINFO pMsg;
; 4714 : 
; 4715 : 	pMsg.h.set((LPBYTE)&pMsg, 0x80, 0x1B, sizeof(CSP_REQ_RESETREGSIEGEINFO));
; 4716 : 	pMsg.wMapSvrNum = iMapSvrGroup;

  0000d	66 89 45 fc	 mov	 WORD PTR _pMsg$[ebp+4], ax

; 4718 : 	cDBSMng.Send((char*)&pMsg, pMsg.h.size);

  00011	b9 00 00 00 00	 mov	 ecx, OFFSET ?cDBSMng@@3VDBSockMng@@A ; cDBSMng
  00016	6a 06		 push	 6
  00018	8d 45 f8	 lea	 eax, DWORD PTR _pMsg$[ebp]
; File c:\users\michel\desktop\source\gameserver\include\prodef.h

; 140  : 		lpBuf[0] = 0xC1;

  0001b	c7 45 f8 c1 06
	80 1b		 mov	 DWORD PTR _pMsg$[ebp], 461375169 ; 1b8006c1H
; File c:\users\michel\desktop\source\gameserver\source\dsprotocol.cpp

; 4718 : 	cDBSMng.Send((char*)&pMsg, pMsg.h.size);

  00022	50		 push	 eax
  00023	e8 00 00 00 00	 call	 ?Send@DBSockMng@@QAEHPADH@Z ; DBSockMng::Send
$LN1@GS_GDReqRe:

; 4719 : }

  00028	8b e5		 mov	 esp, ebp
  0002a	5d		 pop	 ebp
  0002b	c3		 ret	 0
?GS_GDReqResetReqSiegeInfo@@YAXH@Z ENDP			; GS_GDReqResetReqSiegeInfo
_TEXT	ENDS
; Function compile flags: /Ogtp
; File c:\users\michel\desktop\source\gameserver\source\dsprotocol.cpp
; File c:\users\michel\desktop\source\gameserver\include\prodef.h
; File c:\users\michel\desktop\source\gameserver\source\dsprotocol.cpp
;	COMDAT ?GS_GDReqGuildMark@@YAXHHH@Z
_TEXT	SEGMENT
_pMsg$ = -28						; size = 24
__$ArrayPad$ = -4					; size = 4
_iMapSvrGroup$ = 8					; size = 4
_aIndex$ = 12						; size = 4
_iItemPos$ = 16						; size = 4
?GS_GDReqGuildMark@@YAXHHH@Z PROC			; GS_GDReqGuildMark, COMDAT

; 4405 : {

  00000	55		 push	 ebp
  00001	8b ec		 mov	 ebp, esp
  00003	83 ec 1c	 sub	 esp, 28			; 0000001cH
  00006	a1 00 00 00 00	 mov	 eax, DWORD PTR ___security_cookie
  0000b	33 c5		 xor	 eax, ebp
  0000d	89 45 fc	 mov	 DWORD PTR __$ArrayPad$[ebp], eax

; 4406 : 	if ( iMapSvrGroup < 0 )

  00010	8b 55 08	 mov	 edx, DWORD PTR _iMapSvrGroup$[ebp]
  00013	8b 4d 0c	 mov	 ecx, DWORD PTR _aIndex$[ebp]
  00016	85 d2		 test	 edx, edx
  00018	78 57		 js	 SHORT $LN1@GS_GDReqGu

; 4407 : 	{
; 4408 : 		return;
; 4409 : 	}
; 4410 : 
; 4411 : 	if ( OBJMAX_RANGE(aIndex) == FALSE )

  0001a	85 c9		 test	 ecx, ecx
  0001c	78 53		 js	 SHORT $LN1@GS_GDReqGu
  0001e	33 c0		 xor	 eax, eax
  00020	81 f9 eb 2c 00
	00		 cmp	 ecx, 11499		; 00002cebH
  00026	0f 9e c0	 setle	 al
  00029	85 c0		 test	 eax, eax
  0002b	74 44		 je	 SHORT $LN1@GS_GDReqGu

; 4412 : 	{
; 4413 : 		return;
; 4414 : 	}
; 4415 : 
; 4416 : 
; 4417 : 	CSP_REQ_GUILDREGMARK pMsg;
; 4418 : 
; 4419 : 	pMsg.h.set((LPBYTE)&pMsg, 0x80, 0x10, sizeof(CSP_REQ_GUILDREGMARK));
; 4420 : 	pMsg.wMapSvrNum = iMapSvrGroup;
; 4421 : 	pMsg.iIndex = aIndex;
; 4422 : 	pMsg.iItemPos = iItemPos;

  0002d	8b 45 10	 mov	 eax, DWORD PTR _iItemPos$[ebp]
  00030	66 89 55 e8	 mov	 WORD PTR _pMsg$[ebp+4], dx

; 4423 : 	memcpy(pMsg.szGuildName, gObj[aIndex].GuildName, sizeof(pMsg.szGuildName));

  00034	69 d1 40 27 00
	00		 imul	 edx, ecx, 10048
  0003a	89 4d ec	 mov	 DWORD PTR _pMsg$[ebp+8], ecx
  0003d	8b 0d 00 00 00
	00		 mov	 ecx, DWORD PTR ?gObj@@3PAUOBJECTSTRUCT@@A ; gObj
  00043	89 45 f8	 mov	 DWORD PTR _pMsg$[ebp+20], eax
; File c:\users\michel\desktop\source\gameserver\include\prodef.h

; 140  : 		lpBuf[0] = 0xC1;

  00046	c7 45 e4 c1 18
	80 10		 mov	 DWORD PTR _pMsg$[ebp], 276830401 ; 108018c1H
; File c:\users\michel\desktop\source\gameserver\source\dsprotocol.cpp

; 4425 : 	cDBSMng.Send((char*)&pMsg, pMsg.h.size);

  0004d	6a 18		 push	 24			; 00000018H
  0004f	8b 84 0a 1c 06
	00 00		 mov	 eax, DWORD PTR [edx+ecx+1564]
  00056	89 45 f0	 mov	 DWORD PTR _pMsg$[ebp+12], eax
  00059	8b 84 0a 20 06
	00 00		 mov	 eax, DWORD PTR [edx+ecx+1568]
  00060	b9 00 00 00 00	 mov	 ecx, OFFSET ?cDBSMng@@3VDBSockMng@@A ; cDBSMng
  00065	89 45 f4	 mov	 DWORD PTR _pMsg$[ebp+16], eax
  00068	8d 45 e4	 lea	 eax, DWORD PTR _pMsg$[ebp]
  0006b	50		 push	 eax
  0006c	e8 00 00 00 00	 call	 ?Send@DBSockMng@@QAEHPADH@Z ; DBSockMng::Send
$LN1@GS_GDReqGu:

; 4426 : }

  00071	8b 4d fc	 mov	 ecx, DWORD PTR __$ArrayPad$[ebp]
  00074	33 cd		 xor	 ecx, ebp
  00076	e8 00 00 00 00	 call	 @__security_check_cookie@4
  0007b	8b e5		 mov	 esp, ebp
  0007d	5d		 pop	 ebp
  0007e	c3		 ret	 0
?GS_GDReqGuildMark@@YAXHHH@Z ENDP			; GS_GDReqGuildMark
_TEXT	ENDS
; Function compile flags: /Ogtp
; File c:\users\michel\desktop\source\gameserver\source\dsprotocol.cpp
; File c:\users\michel\desktop\source\gameserver\include\prodef.h
; File c:\users\michel\desktop\source\gameserver\source\dsprotocol.cpp
;	COMDAT ?GS_GDReqGuildMarkReqInfo@@YAXHH@Z
_TEXT	SEGMENT
_pMsg$ = -24						; size = 20
__$ArrayPad$ = -4					; size = 4
_iMapSvrGroup$ = 8					; size = 4
_aIndex$ = 12						; size = 4
?GS_GDReqGuildMarkReqInfo@@YAXHH@Z PROC			; GS_GDReqGuildMarkReqInfo, COMDAT

; 4177 : {

  00000	55		 push	 ebp
  00001	8b ec		 mov	 ebp, esp
  00003	83 ec 18	 sub	 esp, 24			; 00000018H
  00006	a1 00 00 00 00	 mov	 eax, DWORD PTR ___security_cookie
  0000b	33 c5		 xor	 eax, ebp
  0000d	89 45 fc	 mov	 DWORD PTR __$ArrayPad$[ebp], eax

; 4178 : 	if ( iMapSvrGroup < 0 )

  00010	8b 55 08	 mov	 edx, DWORD PTR _iMapSvrGroup$[ebp]
  00013	8b 4d 0c	 mov	 ecx, DWORD PTR _aIndex$[ebp]
  00016	85 d2		 test	 edx, edx
  00018	78 51		 js	 SHORT $LN1@GS_GDReqGu

; 4179 : 	{
; 4180 : 		return;
; 4181 : 	}
; 4182 : 
; 4183 : 	if ( OBJMAX_RANGE(aIndex) == FALSE )

  0001a	85 c9		 test	 ecx, ecx
  0001c	78 4d		 js	 SHORT $LN1@GS_GDReqGu
  0001e	33 c0		 xor	 eax, eax
  00020	81 f9 eb 2c 00
	00		 cmp	 ecx, 11499		; 00002cebH
  00026	0f 9e c0	 setle	 al
  00029	85 c0		 test	 eax, eax
  0002b	74 3e		 je	 SHORT $LN1@GS_GDReqGu

; 4184 : 	{
; 4185 : 		return;
; 4186 : 	}
; 4187 : 
; 4188 : 
; 4189 : 	CSP_REQ_GUILDREGINFO pMsg;
; 4190 : 
; 4191 : 	pMsg.h.set((LPBYTE)&pMsg, 0x80, 0x0A, sizeof(CSP_REQ_GUILDREGINFO));
; 4192 : 	pMsg.wMapSvrNum = iMapSvrGroup;

  0002d	66 89 55 ec	 mov	 WORD PTR _pMsg$[ebp+4], dx

; 4193 : 	pMsg.iIndex = aIndex;
; 4194 : 	memcpy(pMsg.szGuildName, gObj[aIndex].GuildName, 8);

  00031	69 d1 40 27 00
	00		 imul	 edx, ecx, 10048
  00037	89 4d f0	 mov	 DWORD PTR _pMsg$[ebp+8], ecx
  0003a	8b 0d 00 00 00
	00		 mov	 ecx, DWORD PTR ?gObj@@3PAUOBJECTSTRUCT@@A ; gObj
; File c:\users\michel\desktop\source\gameserver\include\prodef.h

; 140  : 		lpBuf[0] = 0xC1;

  00040	c7 45 e8 c1 14
	80 0a		 mov	 DWORD PTR _pMsg$[ebp], 176166081 ; 0a8014c1H
; File c:\users\michel\desktop\source\gameserver\source\dsprotocol.cpp

; 4196 : 	cDBSMng.Send((char*)&pMsg, pMsg.h.size);

  00047	6a 14		 push	 20			; 00000014H
  00049	8b 84 0a 1c 06
	00 00		 mov	 eax, DWORD PTR [edx+ecx+1564]
  00050	89 45 f4	 mov	 DWORD PTR _pMsg$[ebp+12], eax
  00053	8b 84 0a 20 06
	00 00		 mov	 eax, DWORD PTR [edx+ecx+1568]
  0005a	b9 00 00 00 00	 mov	 ecx, OFFSET ?cDBSMng@@3VDBSockMng@@A ; cDBSMng
  0005f	89 45 f8	 mov	 DWORD PTR _pMsg$[ebp+16], eax
  00062	8d 45 e8	 lea	 eax, DWORD PTR _pMsg$[ebp]
  00065	50		 push	 eax
  00066	e8 00 00 00 00	 call	 ?Send@DBSockMng@@QAEHPADH@Z ; DBSockMng::Send
$LN1@GS_GDReqGu:

; 4197 : }

  0006b	8b 4d fc	 mov	 ecx, DWORD PTR __$ArrayPad$[ebp]
  0006e	33 cd		 xor	 ecx, ebp
  00070	e8 00 00 00 00	 call	 @__security_check_cookie@4
  00075	8b e5		 mov	 esp, ebp
  00077	5d		 pop	 ebp
  00078	c3		 ret	 0
?GS_GDReqGuildMarkReqInfo@@YAXHH@Z ENDP			; GS_GDReqGuildMarkReqInfo
_TEXT	ENDS
; Function compile flags: /Ogtp
; File c:\users\michel\desktop\source\gameserver\source\dsprotocol.cpp
; File c:\users\michel\desktop\source\gameserver\include\prodef.h
; File c:\users\michel\desktop\source\gameserver\source\dsprotocol.cpp
;	COMDAT ?GS_GDReqCastleDateChange@@YAXHHGEEGEE@Z
_TEXT	SEGMENT
_pMsg$ = -24						; size = 20
__$ArrayPad$ = -4					; size = 4
_iMapSvrGroup$ = 8					; size = 4
_aIndex$ = 12						; size = 4
_wStartYear$ = 16					; size = 2
_btStartMonth$ = 20					; size = 1
_btStartDay$ = 24					; size = 1
_wEndYear$ = 28						; size = 2
_btEndMonth$ = 32					; size = 1
_btEndDay$ = 36						; size = 1
?GS_GDReqCastleDateChange@@YAXHHGEEGEE@Z PROC		; GS_GDReqCastleDateChange, COMDAT

; 4136 : {

  00000	55		 push	 ebp
  00001	8b ec		 mov	 ebp, esp
  00003	83 ec 18	 sub	 esp, 24			; 00000018H
  00006	a1 00 00 00 00	 mov	 eax, DWORD PTR ___security_cookie
  0000b	33 c5		 xor	 eax, ebp
  0000d	89 45 fc	 mov	 DWORD PTR __$ArrayPad$[ebp], eax

; 4137 : 	if ( iMapSvrGroup < 0 )

  00010	8b 45 08	 mov	 eax, DWORD PTR _iMapSvrGroup$[ebp]
  00013	85 c0		 test	 eax, eax
  00015	78 49		 js	 SHORT $LN1@GS_GDReqCa

; 4138 : 	{
; 4139 : 		return;
; 4140 : 	}
; 4141 : 
; 4142 : 	CSP_REQ_SDEDCHANGE pMsg;
; 4143 : 
; 4144 : 	pMsg.h.set((LPBYTE)&pMsg, 0x80, 0x09, sizeof(CSP_REQ_SDEDCHANGE));
; 4145 : 	pMsg.wMapSvrNum = iMapSvrGroup;

  00017	66 89 45 ec	 mov	 WORD PTR _pMsg$[ebp+4], ax

; 4154 : 	cDBSMng.Send((char*)&pMsg, pMsg.h.size);

  0001b	b9 00 00 00 00	 mov	 ecx, OFFSET ?cDBSMng@@3VDBSockMng@@A ; cDBSMng
  00020	8b 45 0c	 mov	 eax, DWORD PTR _aIndex$[ebp]
  00023	89 45 f0	 mov	 DWORD PTR _pMsg$[ebp+8], eax
  00026	66 8b 45 10	 mov	 ax, WORD PTR _wStartYear$[ebp]
  0002a	66 89 45 f4	 mov	 WORD PTR _pMsg$[ebp+12], ax
  0002e	8a 45 14	 mov	 al, BYTE PTR _btStartMonth$[ebp]
  00031	88 45 f6	 mov	 BYTE PTR _pMsg$[ebp+14], al
  00034	8a 45 18	 mov	 al, BYTE PTR _btStartDay$[ebp]
  00037	88 45 f7	 mov	 BYTE PTR _pMsg$[ebp+15], al
  0003a	66 8b 45 1c	 mov	 ax, WORD PTR _wEndYear$[ebp]
  0003e	66 89 45 f8	 mov	 WORD PTR _pMsg$[ebp+16], ax
  00042	8a 45 20	 mov	 al, BYTE PTR _btEndMonth$[ebp]
  00045	88 45 fa	 mov	 BYTE PTR _pMsg$[ebp+18], al
  00048	8a 45 24	 mov	 al, BYTE PTR _btEndDay$[ebp]
  0004b	88 45 fb	 mov	 BYTE PTR _pMsg$[ebp+19], al
  0004e	8d 45 e8	 lea	 eax, DWORD PTR _pMsg$[ebp]
  00051	6a 14		 push	 20			; 00000014H
  00053	50		 push	 eax
; File c:\users\michel\desktop\source\gameserver\include\prodef.h

; 140  : 		lpBuf[0] = 0xC1;

  00054	c7 45 e8 c1 14
	80 09		 mov	 DWORD PTR _pMsg$[ebp], 159388865 ; 098014c1H
; File c:\users\michel\desktop\source\gameserver\source\dsprotocol.cpp

; 4154 : 	cDBSMng.Send((char*)&pMsg, pMsg.h.size);

  0005b	e8 00 00 00 00	 call	 ?Send@DBSockMng@@QAEHPADH@Z ; DBSockMng::Send
$LN1@GS_GDReqCa:

; 4155 : }

  00060	8b 4d fc	 mov	 ecx, DWORD PTR __$ArrayPad$[ebp]
  00063	33 cd		 xor	 ecx, ebp
  00065	e8 00 00 00 00	 call	 @__security_check_cookie@4
  0006a	8b e5		 mov	 esp, ebp
  0006c	5d		 pop	 ebp
  0006d	c3		 ret	 0
?GS_GDReqCastleDateChange@@YAXHHGEEGEE@Z ENDP		; GS_GDReqCastleDateChange
_TEXT	ENDS
; Function compile flags: /Ogtp
;	COMDAT ??__FDROP_LOG_DEBUG@@YAXXZ
text$yd	SEGMENT
??__FDROP_LOG_DEBUG@@YAXXZ PROC				; `dynamic atexit destructor for 'DROP_LOG_DEBUG'', COMDAT
  00000	b9 00 00 00 00	 mov	 ecx, OFFSET ?DROP_LOG_DEBUG@@3VCLogToFile@@A ; DROP_LOG_DEBUG
  00005	e9 00 00 00 00	 jmp	 ??1CLogToFile@@QAE@XZ	; CLogToFile::~CLogToFile
??__FDROP_LOG_DEBUG@@YAXXZ ENDP				; `dynamic atexit destructor for 'DROP_LOG_DEBUG''
text$yd	ENDS
; Function compile flags: /Ogtp
; File c:\users\michel\desktop\source\gameserver\source\dsprotocol.cpp
;	COMDAT ??__EDROP_LOG_DEBUG@@YAXXZ
text$di	SEGMENT
??__EDROP_LOG_DEBUG@@YAXXZ PROC				; `dynamic initializer for 'DROP_LOG_DEBUG'', COMDAT

; 67   : CLogToFile DROP_LOG_DEBUG(LOG_NAME_DROP, LOG_PATH_DROP, TRUE);

  00000	6a 01		 push	 1
  00002	68 00 00 00 00	 push	 OFFSET ??_C@_0L@OHHLBHJC@?4?2Log?2Drop?$AA@
  00007	68 00 00 00 00	 push	 OFFSET ??_C@_04DJCMGLJH@Drop?$AA@
  0000c	b9 00 00 00 00	 mov	 ecx, OFFSET ?DROP_LOG_DEBUG@@3VCLogToFile@@A ; DROP_LOG_DEBUG
  00011	e8 00 00 00 00	 call	 ??0CLogToFile@@QAE@QAD0H@Z ; CLogToFile::CLogToFile
  00016	68 00 00 00 00	 push	 OFFSET ??__FDROP_LOG_DEBUG@@YAXXZ ; `dynamic atexit destructor for 'DROP_LOG_DEBUG''
  0001b	e8 00 00 00 00	 call	 _atexit
  00020	59		 pop	 ecx
  00021	c3		 ret	 0
??__EDROP_LOG_DEBUG@@YAXXZ ENDP				; `dynamic initializer for 'DROP_LOG_DEBUG''
text$di	ENDS
; Function compile flags: /Ogtp
; File c:\users\michel\desktop\source\gameserver\source\tnotice.h
;	COMDAT ?_ARGB@@YAKEEEE@Z
_TEXT	SEGMENT
_a$ = 8							; size = 1
_r$ = 12						; size = 1
_g$ = 16						; size = 1
_b$ = 20						; size = 1
?_ARGB@@YAKEEEE@Z PROC					; _ARGB, COMDAT

; 9    : __inline DWORD _ARGB(BYTE a, BYTE r, BYTE g, BYTE b){ return a*16777216 + b*65536 + g*256 + r;}; // in tnotice.h : line 8

  00000	55		 push	 ebp
  00001	8b ec		 mov	 ebp, esp
  00003	0f b6 45 08	 movzx	 eax, BYTE PTR _a$[ebp]
  00007	0f b6 4d 14	 movzx	 ecx, BYTE PTR _b$[ebp]
  0000b	c1 e0 08	 shl	 eax, 8
  0000e	03 c1		 add	 eax, ecx
  00010	0f b6 4d 10	 movzx	 ecx, BYTE PTR _g$[ebp]
  00014	c1 e0 08	 shl	 eax, 8
  00017	03 c1		 add	 eax, ecx
  00019	0f b6 4d 0c	 movzx	 ecx, BYTE PTR _r$[ebp]
  0001d	c1 e0 08	 shl	 eax, 8
  00020	03 c1		 add	 eax, ecx
  00022	5d		 pop	 ebp
  00023	c3		 ret	 0
?_ARGB@@YAKEEEE@Z ENDP					; _ARGB
_TEXT	ENDS
; Function compile flags: /Ogtp
; File c:\users\michel\desktop\source\gameserver\source\castlesiegesync.h
;	COMDAT ?GetTributeMoney@CCastleSiegeSync@@QAEHXZ
_TEXT	SEGMENT
?GetTributeMoney@CCastleSiegeSync@@QAEHXZ PROC		; CCastleSiegeSync::GetTributeMoney, COMDAT
; _this$ = ecx

; 35   : 	int GetTributeMoney(){return this->m_lCastleTributeMoney;};	// line : 77

  00000	8b 41 14	 mov	 eax, DWORD PTR [ecx+20]
  00003	c3		 ret	 0
?GetTributeMoney@CCastleSiegeSync@@QAEHXZ ENDP		; CCastleSiegeSync::GetTributeMoney
_TEXT	ENDS
; Function compile flags: /Ogtp
; File c:\users\michel\desktop\source\gameserver\source\castlesiegesync.h
;	COMDAT ?SetTaxHuntZone@CCastleSiegeSync@@QAEXH@Z
_TEXT	SEGMENT
_iTaxRate$ = 8						; size = 4
?SetTaxHuntZone@CCastleSiegeSync@@QAEXH@Z PROC		; CCastleSiegeSync::SetTaxHuntZone, COMDAT
; _this$ = ecx

; 33   : 	void SetTaxHuntZone(int iTaxRate){this->m_iCurTaxHuntZone = iTaxRate;};	// line : 65

  00000	55		 push	 ebp
  00001	8b ec		 mov	 ebp, esp
  00003	8b 45 08	 mov	 eax, DWORD PTR _iTaxRate$[ebp]
  00006	89 41 10	 mov	 DWORD PTR [ecx+16], eax
  00009	5d		 pop	 ebp
  0000a	c2 04 00	 ret	 4
?SetTaxHuntZone@CCastleSiegeSync@@QAEXH@Z ENDP		; CCastleSiegeSync::SetTaxHuntZone
_TEXT	ENDS
; Function compile flags: /Ogtp
; File c:\users\michel\desktop\source\gameserver\source\castlesiegesync.h
;	COMDAT ?SetTaxRateStore@CCastleSiegeSync@@QAEXH@Z
_TEXT	SEGMENT
_iTaxRate$ = 8						; size = 4
?SetTaxRateStore@CCastleSiegeSync@@QAEXH@Z PROC		; CCastleSiegeSync::SetTaxRateStore, COMDAT
; _this$ = ecx

; 32   : 	void SetTaxRateStore(int iTaxRate){this->m_iCurTaxRateStore = iTaxRate;};	// line : 62

  00000	55		 push	 ebp
  00001	8b ec		 mov	 ebp, esp
  00003	8b 45 08	 mov	 eax, DWORD PTR _iTaxRate$[ebp]
  00006	89 41 0c	 mov	 DWORD PTR [ecx+12], eax
  00009	5d		 pop	 ebp
  0000a	c2 04 00	 ret	 4
?SetTaxRateStore@CCastleSiegeSync@@QAEXH@Z ENDP		; CCastleSiegeSync::SetTaxRateStore
_TEXT	ENDS
; Function compile flags: /Ogtp
; File c:\users\michel\desktop\source\gameserver\source\castlesiegesync.h
;	COMDAT ?SetTaxRateChaos@CCastleSiegeSync@@QAEXH@Z
_TEXT	SEGMENT
_iTaxRate$ = 8						; size = 4
?SetTaxRateChaos@CCastleSiegeSync@@QAEXH@Z PROC		; CCastleSiegeSync::SetTaxRateChaos, COMDAT
; _this$ = ecx

; 31   : 	void SetTaxRateChaos(int iTaxRate){this->m_iCurTaxRateChaos = iTaxRate;};	// line : 59

  00000	55		 push	 ebp
  00001	8b ec		 mov	 ebp, esp
  00003	8b 45 08	 mov	 eax, DWORD PTR _iTaxRate$[ebp]
  00006	89 41 08	 mov	 DWORD PTR [ecx+8], eax
  00009	5d		 pop	 ebp
  0000a	c2 04 00	 ret	 4
?SetTaxRateChaos@CCastleSiegeSync@@QAEXH@Z ENDP		; CCastleSiegeSync::SetTaxRateChaos
_TEXT	ENDS
; Function compile flags: /Ogtp
; File c:\users\michel\desktop\source\gameserver\source\castlesiegesync.h
;	COMDAT ?SetCastleState@CCastleSiegeSync@@QAEXH@Z
_TEXT	SEGMENT
_iCastleState$ = 8					; size = 4
?SetCastleState@CCastleSiegeSync@@QAEXH@Z PROC		; CCastleSiegeSync::SetCastleState, COMDAT
; _this$ = ecx

; 30   : 	void SetCastleState(int iCastleState){this->m_iCurCastleState = iCastleState;};	// line : 56

  00000	55		 push	 ebp
  00001	8b ec		 mov	 ebp, esp
  00003	8b 45 08	 mov	 eax, DWORD PTR _iCastleState$[ebp]
  00006	89 41 04	 mov	 DWORD PTR [ecx+4], eax
  00009	5d		 pop	 ebp
  0000a	c2 04 00	 ret	 4
?SetCastleState@CCastleSiegeSync@@QAEXH@Z ENDP		; CCastleSiegeSync::SetCastleState
_TEXT	ENDS
; Function compile flags: /Ogtp
; File c:\users\michel\desktop\source\gameserver\source\mapservermanager.h
;	COMDAT ?GetMapSvrGroup@CMapServerManager@@QAEHXZ
_TEXT	SEGMENT
?GetMapSvrGroup@CMapServerManager@@QAEHXZ PROC		; CMapServerManager::GetMapSvrGroup, COMDAT
; _this$ = ecx

; 55   : 		if ( this->m_lpThisMapSvrData != NULL )

  00000	8b 81 f8 6a 01
	00		 mov	 eax, DWORD PTR [ecx+92920]
  00006	85 c0		 test	 eax, eax
  00008	74 05		 je	 SHORT $LN2@GetMapSvrG

; 56   : 		{
; 57   : 			return m_lpThisMapSvrData->m_btMAPSVR_GROUP;

  0000a	0f b6 40 08	 movzx	 eax, BYTE PTR [eax+8]

; 60   : 	}

  0000e	c3		 ret	 0
$LN2@GetMapSvrG:

; 58   : 		}
; 59   : 		return -1;

  0000f	83 c8 ff	 or	 eax, -1

; 60   : 	}

  00012	c3		 ret	 0
?GetMapSvrGroup@CMapServerManager@@QAEHXZ ENDP		; CMapServerManager::GetMapSvrGroup
_TEXT	ENDS
; Function compile flags: /Ogtp
; File c:\users\michel\desktop\source\gameserver\source\dsprotocol.cpp
;	COMDAT ?answerDbInfo@@YAXPAUpacketDbAnswerInfo@@@Z
_TEXT	SEGMENT
_inPacket$ = 8						; size = 4
?answerDbInfo@@YAXPAUpacketDbAnswerInfo@@@Z PROC	; answerDbInfo, COMDAT

; 6393 : void answerDbInfo(packetDbAnswerInfo* inPacket) {

  00000	55		 push	 ebp
  00001	8b ec		 mov	 ebp, esp

; 6394 : 	MsgOutput(inPacket->UserIndex, "%s | %s", 

  00003	8b 4d 08	 mov	 ecx, DWORD PTR _inPacket$[ebp]
  00006	8d 41 24	 lea	 eax, DWORD PTR [ecx+36]
  00009	50		 push	 eax
  0000a	8d 41 06	 lea	 eax, DWORD PTR [ecx+6]
  0000d	50		 push	 eax
  0000e	0f bf 41 04	 movsx	 eax, WORD PTR [ecx+4]
  00012	68 00 00 00 00	 push	 OFFSET ??_C@_07FHODIPOK@?$CFs?5?$HM?5?$CFs?$AA@
  00017	50		 push	 eax
  00018	e8 00 00 00 00	 call	 ?MsgOutput@@YAXHPADZZ	; MsgOutput
  0001d	83 c4 10	 add	 esp, 16			; 00000010H

; 6395 : 		inPacket->SqlUser, inPacket->SqlPassword);
; 6396 : }

  00020	5d		 pop	 ebp
  00021	c3		 ret	 0
?answerDbInfo@@YAXPAUpacketDbAnswerInfo@@@Z ENDP	; answerDbInfo
_TEXT	ENDS
; Function compile flags: /Ogtp
; File c:\users\michel\desktop\source\gameserver\source\dsprotocol.cpp
; File c:\users\michel\desktop\source\gameserver\include\prodef.h
; File c:\users\michel\desktop\source\gameserver\source\dsprotocol.cpp
;	COMDAT ?requestDbUpdateCredits@@YAXPAUOBJECTSTRUCT@@FF@Z
_TEXT	SEGMENT
_newPacket$ = -24					; size = 19
__$ArrayPad$ = -4					; size = 4
_lpUser$ = 8						; size = 4
_Credits$ = 12						; size = 2
_ItemPrice$ = 16					; size = 2
?requestDbUpdateCredits@@YAXPAUOBJECTSTRUCT@@FF@Z PROC	; requestDbUpdateCredits, COMDAT

; 6384 : void requestDbUpdateCredits(LPOBJ lpUser, short Credits, short ItemPrice) {

  00000	55		 push	 ebp
  00001	8b ec		 mov	 ebp, esp
  00003	83 ec 18	 sub	 esp, 24			; 00000018H
  00006	a1 00 00 00 00	 mov	 eax, DWORD PTR ___security_cookie
  0000b	33 c5		 xor	 eax, ebp
  0000d	89 45 fc	 mov	 DWORD PTR __$ArrayPad$[ebp], eax

; 6385 : 	packetDbUpdateCredits newPacket = { 0 };
; 6386 : 	newPacket.h.set((LPBYTE)&newPacket, 0xFE, 1, sizeof(packetDbUpdateCredits));
; 6387 : 	newPacket.Credits = Credits;

  00010	66 8b 45 0c	 mov	 ax, WORD PTR _Credits$[ebp]
  00014	0f 57 c0	 xorps	 xmm0, xmm0
  00017	8b 4d 08	 mov	 ecx, DWORD PTR _lpUser$[ebp]
  0001a	0f 11 45 e9	 movups	 XMMWORD PTR _newPacket$[ebp+1], xmm0
  0001e	66 89 45 f7	 mov	 WORD PTR _newPacket$[ebp+15], ax

; 6388 : 	newPacket.ItemPrice = ItemPrice;

  00022	66 8b 45 10	 mov	 ax, WORD PTR _ItemPrice$[ebp]
  00026	66 c7 45 f9 00
	00		 mov	 WORD PTR _newPacket$[ebp+17], 0
  0002c	66 89 45 f9	 mov	 WORD PTR _newPacket$[ebp+17], ax

; 6389 : 	strcpy_s(newPacket.AccountName, sizeof(newPacket.AccountName), lpUser->AccountID);

  00030	8d 41 52	 lea	 eax, DWORD PTR [ecx+82]
  00033	50		 push	 eax
  00034	8d 45 ec	 lea	 eax, DWORD PTR _newPacket$[ebp+4]
; File c:\users\michel\desktop\source\gameserver\include\prodef.h

; 140  : 		lpBuf[0] = 0xC1;

  00037	c7 45 e8 c1 13
	fe 01		 mov	 DWORD PTR _newPacket$[ebp], 33428417 ; 01fe13c1H
; File c:\users\michel\desktop\source\gameserver\source\dsprotocol.cpp

; 6389 : 	strcpy_s(newPacket.AccountName, sizeof(newPacket.AccountName), lpUser->AccountID);

  0003e	6a 0b		 push	 11			; 0000000bH
  00040	50		 push	 eax
  00041	e8 00 00 00 00	 call	 _strcpy_s

; 6390 : 	cDBSMng.Send((char*)&newPacket, newPacket.h.size);

  00046	0f b6 45 e9	 movzx	 eax, BYTE PTR _newPacket$[ebp+1]
  0004a	83 c4 0c	 add	 esp, 12			; 0000000cH
  0004d	b9 00 00 00 00	 mov	 ecx, OFFSET ?cDBSMng@@3VDBSockMng@@A ; cDBSMng
  00052	50		 push	 eax
  00053	8d 45 e8	 lea	 eax, DWORD PTR _newPacket$[ebp]
  00056	50		 push	 eax
  00057	e8 00 00 00 00	 call	 ?Send@DBSockMng@@QAEHPADH@Z ; DBSockMng::Send

; 6391 : }

  0005c	8b 4d fc	 mov	 ecx, DWORD PTR __$ArrayPad$[ebp]
  0005f	33 cd		 xor	 ecx, ebp
  00061	e8 00 00 00 00	 call	 @__security_check_cookie@4
  00066	8b e5		 mov	 esp, ebp
  00068	5d		 pop	 ebp
  00069	c3		 ret	 0
?requestDbUpdateCredits@@YAXPAUOBJECTSTRUCT@@FF@Z ENDP	; requestDbUpdateCredits
_TEXT	ENDS
; Function compile flags: /Ogtp
; File c:\users\michel\desktop\source\gameserver\source\dsprotocol.cpp
;	COMDAT ?DGBroadCastGlobalMessage@@YAXPAE@Z
_TEXT	SEGMENT
_lpData$ = 8						; size = 4
?DGBroadCastGlobalMessage@@YAXPAE@Z PROC		; DGBroadCastGlobalMessage, COMDAT

; 6378 : {

  00000	55		 push	 ebp
  00001	8b ec		 mov	 ebp, esp

; 6379 : 	LPMSG_SYS_BROADCAST	lpMsg	= (LPMSG_SYS_BROADCAST)lpData;
; 6380 : 	AllSendServerMsg(&lpMsg->szMessage[1]);

  00003	83 45 08 06	 add	 DWORD PTR _lpData$[ebp], 6

; 6381 : }

  00007	5d		 pop	 ebp

; 6379 : 	LPMSG_SYS_BROADCAST	lpMsg	= (LPMSG_SYS_BROADCAST)lpData;
; 6380 : 	AllSendServerMsg(&lpMsg->szMessage[1]);

  00008	e9 00 00 00 00	 jmp	 ?AllSendServerMsg@@YAXPAD@Z ; AllSendServerMsg
?DGBroadCastGlobalMessage@@YAXPAE@Z ENDP		; DGBroadCastGlobalMessage
_TEXT	ENDS
; Function compile flags: /Ogtp
; File c:\users\michel\desktop\source\gameserver\source\dsprotocol.cpp
;	COMDAT ?DGDeleteTempUserInfo@@YAXPAUSDHP_DELETE_TEMPUSERINFO_RESULT@@@Z
_TEXT	SEGMENT
_lpMsg$ = 8						; size = 4
?DGDeleteTempUserInfo@@YAXPAUSDHP_DELETE_TEMPUSERINFO_RESULT@@@Z PROC ; DGDeleteTempUserInfo, COMDAT

; 6368 : {

  00000	55		 push	 ebp
  00001	8b ec		 mov	 ebp, esp

; 6369 : 	int iTempUserDataSlotIndex = cpDSPTempUserManager->CheckMatchCharacter(lpMsg->szName);

  00003	8b 45 08	 mov	 eax, DWORD PTR _lpMsg$[ebp]
  00006	8b 0d 00 00 00
	00		 mov	 ecx, DWORD PTR ?cpDSPTempUserManager@@3PAVCTemporaryUserManager@@A ; cpDSPTempUserManager
  0000c	83 c0 03	 add	 eax, 3
  0000f	50		 push	 eax
  00010	e8 00 00 00 00	 call	 ?CheckMatchCharacter@CTemporaryUserManager@@QAEHPAD@Z ; CTemporaryUserManager::CheckMatchCharacter

; 6370 : 
; 6371 : 	if( iTempUserDataSlotIndex != -1 )

  00015	83 f8 ff	 cmp	 eax, -1
  00018	74 0c		 je	 SHORT $LN2@DGDeleteTe

; 6372 : 	{
; 6373 : 		cpDSPTempUserManager->DeleteUserInParty(iTempUserDataSlotIndex);

  0001a	8b 0d 00 00 00
	00		 mov	 ecx, DWORD PTR ?cpDSPTempUserManager@@3PAVCTemporaryUserManager@@A ; cpDSPTempUserManager
  00020	50		 push	 eax
  00021	e8 00 00 00 00	 call	 ?DeleteUserInParty@CTemporaryUserManager@@QAEXH@Z ; CTemporaryUserManager::DeleteUserInParty
$LN2@DGDeleteTe:

; 6374 : 	}
; 6375 : }

  00026	5d		 pop	 ebp
  00027	c3		 ret	 0
?DGDeleteTempUserInfo@@YAXPAUSDHP_DELETE_TEMPUSERINFO_RESULT@@@Z ENDP ; DGDeleteTempUserInfo
_TEXT	ENDS
; Function compile flags: /Ogtp
; File c:\users\michel\desktop\source\gameserver\source\dsprotocol.cpp
;	COMDAT ?DGMuBotOptionRecv@@YAXPAUMUBOT_SETTINGS_SEND@@@Z
_TEXT	SEGMENT
_szName$ = -12						; size = 11
_lpMsg$ = 8						; size = 4
?DGMuBotOptionRecv@@YAXPAUMUBOT_SETTINGS_SEND@@@Z PROC	; DGMuBotOptionRecv, COMDAT

; 6347 : {

  00000	55		 push	 ebp
  00001	8b ec		 mov	 ebp, esp
  00003	83 ec 0c	 sub	 esp, 12			; 0000000cH
  00006	56		 push	 esi

; 6348 : 	int aIndex = lpMsg->aIndex;

  00007	8b 75 08	 mov	 esi, DWORD PTR _lpMsg$[ebp]
  0000a	57		 push	 edi
  0000b	8b 7e 04	 mov	 edi, DWORD PTR [esi+4]

; 6349 : 	char szName[MAX_ACCOUNT_LEN+1];
; 6350 : 
; 6351 : 	if ( aIndex < 0 || aIndex >= OBJMAX )

  0000e	81 ff eb 2c 00
	00		 cmp	 edi, 11499		; 00002cebH
  00014	77 70		 ja	 SHORT $LN3@DGMuBotOpt

; 6352 : 	{
; 6353 : 		return;
; 6354 : 	}
; 6355 : 
; 6356 : 	memset(szName, 0, sizeof(szName));
; 6357 : 	memcpy(szName, lpMsg->szName, MAX_ACCOUNT_LEN);

  00016	66 8b 46 10	 mov	 ax, WORD PTR [esi+16]
  0001a	0f 57 c0	 xorps	 xmm0, xmm0

; 6358 : 
; 6359 : 	if ( strcmp(gObj[aIndex].Name, szName) != 0 )

  0001d	8b 0d 00 00 00
	00		 mov	 ecx, DWORD PTR ?gObj@@3PAUOBJECTSTRUCT@@A ; gObj
  00023	69 d7 40 27 00
	00		 imul	 edx, edi, 10048
  00029	83 c1 5d	 add	 ecx, 93			; 0000005dH
  0002c	66 0f d6 45 f4	 movq	 QWORD PTR _szName$[ebp], xmm0
  00031	f3 0f 7e 46 08	 movq	 xmm0, QWORD PTR [esi+8]
  00036	66 c7 45 fc 00
	00		 mov	 WORD PTR _szName$[ebp+8], 0
  0003c	66 89 45 fc	 mov	 WORD PTR _szName$[ebp+8], ax
  00040	8d 45 f4	 lea	 eax, DWORD PTR _szName$[ebp]
  00043	c6 45 fe 00	 mov	 BYTE PTR _szName$[ebp+10], 0
  00047	03 ca		 add	 ecx, edx
  00049	66 0f d6 45 f4	 movq	 QWORD PTR _szName$[ebp], xmm0
  0004e	66 90		 npad	 2
$LL6@DGMuBotOpt:
  00050	8a 11		 mov	 dl, BYTE PTR [ecx]
  00052	3a 10		 cmp	 dl, BYTE PTR [eax]
  00054	75 1a		 jne	 SHORT $LN7@DGMuBotOpt
  00056	84 d2		 test	 dl, dl
  00058	74 12		 je	 SHORT $LN8@DGMuBotOpt
  0005a	8a 51 01	 mov	 dl, BYTE PTR [ecx+1]
  0005d	3a 50 01	 cmp	 dl, BYTE PTR [eax+1]
  00060	75 0e		 jne	 SHORT $LN7@DGMuBotOpt
  00062	83 c1 02	 add	 ecx, 2
  00065	83 c0 02	 add	 eax, 2
  00068	84 d2		 test	 dl, dl
  0006a	75 e4		 jne	 SHORT $LL6@DGMuBotOpt
$LN8@DGMuBotOpt:
  0006c	33 c0		 xor	 eax, eax
  0006e	eb 05		 jmp	 SHORT $LN9@DGMuBotOpt
$LN7@DGMuBotOpt:
  00070	1b c0		 sbb	 eax, eax
  00072	83 c8 01	 or	 eax, 1
$LN9@DGMuBotOpt:
  00075	85 c0		 test	 eax, eax
  00077	75 0d		 jne	 SHORT $LN3@DGMuBotOpt

; 6360 : 	{
; 6361 : 		return;
; 6362 : 	}
; 6363 : 
; 6364 : 	GCSendMuBotSettings(lpMsg->aIndex,lpMsg->btDATA);

  00079	8d 46 13	 lea	 eax, DWORD PTR [esi+19]
  0007c	50		 push	 eax
  0007d	57		 push	 edi
  0007e	e8 00 00 00 00	 call	 ?GCSendMuBotSettings@@YAXHPAE@Z ; GCSendMuBotSettings
  00083	83 c4 08	 add	 esp, 8
$LN3@DGMuBotOpt:
  00086	5f		 pop	 edi
  00087	5e		 pop	 esi

; 6365 : }

  00088	8b e5		 mov	 esp, ebp
  0008a	5d		 pop	 ebp
  0008b	c3		 ret	 0
?DGMuBotOptionRecv@@YAXPAUMUBOT_SETTINGS_SEND@@@Z ENDP	; DGMuBotOptionRecv
_TEXT	ENDS
; Function compile flags: /Ogtp
; File c:\users\michel\desktop\source\gameserver\source\dsprotocol.cpp
;	COMDAT ?DGMuBotSettingsSend@@YAXHPADPAE@Z
_TEXT	SEGMENT
_pMsg$ = -276						; size = 272
__$ArrayPad$ = -4					; size = 4
_aIndex$ = 8						; size = 4
_szName$ = 12						; size = 4
_lpSettings$ = 16					; size = 4
?DGMuBotSettingsSend@@YAXHPADPAE@Z PROC			; DGMuBotSettingsSend, COMDAT

; 6336 : {

  00000	55		 push	 ebp
  00001	8b ec		 mov	 ebp, esp
  00003	81 ec 14 01 00
	00		 sub	 esp, 276		; 00000114H
  00009	a1 00 00 00 00	 mov	 eax, DWORD PTR ___security_cookie
  0000e	33 c5		 xor	 eax, ebp
  00010	89 45 fc	 mov	 DWORD PTR __$ArrayPad$[ebp], eax
  00013	56		 push	 esi
  00014	8b 75 10	 mov	 esi, DWORD PTR _lpSettings$[ebp]
  00017	8d 85 ec fe ff
	ff		 lea	 eax, DWORD PTR _pMsg$[ebp]
  0001d	57		 push	 edi
  0001e	8b 7d 0c	 mov	 edi, DWORD PTR _szName$[ebp]
  00021	68 10 01 00 00	 push	 272			; 00000110H
  00026	6a 00		 push	 0
  00028	50		 push	 eax
  00029	e8 00 00 00 00	 call	 _memset

; 6337 : 	MUBOT_SETTINGS_REQ_SAVE pMsg={0};
; 6338 : 	PHeadSetW((LPBYTE)&pMsg,0x61,sizeof(pMsg));

  0002e	68 10 01 00 00	 push	 272			; 00000110H
  00033	8d 85 ec fe ff
	ff		 lea	 eax, DWORD PTR _pMsg$[ebp]
  00039	6a 61		 push	 97			; 00000061H
  0003b	50		 push	 eax
  0003c	e8 00 00 00 00	 call	 ?PHeadSetW@@YAXPAEEH@Z	; PHeadSetW

; 6339 : 
; 6340 : 	memcpy(pMsg.szName,szName,10);

  00041	66 8b 47 08	 mov	 ax, WORD PTR [edi+8]

; 6341 : 	memcpy(pMsg.btDATA,lpSettings,sizeof(pMsg.btDATA));

  00045	b9 40 00 00 00	 mov	 ecx, 64			; 00000040H
  0004a	f3 0f 7e 07	 movq	 xmm0, QWORD PTR [edi]
  0004e	83 c4 18	 add	 esp, 24			; 00000018H
  00051	66 89 85 f8 fe
	ff ff		 mov	 WORD PTR _pMsg$[ebp+12], ax
  00058	8d bd fb fe ff
	ff		 lea	 edi, DWORD PTR _pMsg$[ebp+15]
  0005e	66 0f d6 85 f0
	fe ff ff	 movq	 QWORD PTR _pMsg$[ebp+4], xmm0

; 6342 : 
; 6343 : 	cDBSMng.Send((char*)&pMsg,sizeof(pMsg));

  00066	8d 85 ec fe ff
	ff		 lea	 eax, DWORD PTR _pMsg$[ebp]
  0006c	f3 a5		 rep movsd
  0006e	68 10 01 00 00	 push	 272			; 00000110H
  00073	50		 push	 eax
  00074	b9 00 00 00 00	 mov	 ecx, OFFSET ?cDBSMng@@3VDBSockMng@@A ; cDBSMng
  00079	a4		 movsb
  0007a	e8 00 00 00 00	 call	 ?Send@DBSockMng@@QAEHPADH@Z ; DBSockMng::Send

; 6344 : }

  0007f	8b 4d fc	 mov	 ecx, DWORD PTR __$ArrayPad$[ebp]
  00082	5f		 pop	 edi
  00083	33 cd		 xor	 ecx, ebp
  00085	5e		 pop	 esi
  00086	e8 00 00 00 00	 call	 @__security_check_cookie@4
  0008b	8b e5		 mov	 esp, ebp
  0008d	5d		 pop	 ebp
  0008e	c3		 ret	 0
?DGMuBotSettingsSend@@YAXHPADPAE@Z ENDP			; DGMuBotSettingsSend
_TEXT	ENDS
; Function compile flags: /Ogtp
; File c:\users\michel\desktop\source\gameserver\source\dsprotocol.cpp
;	COMDAT ?GDExpandInventorySend@@YAXPAUOBJECTSTRUCT@@H@Z
_TEXT	SEGMENT
_pMsg$ = -32						; size = 27
__$ArrayPad$ = -4					; size = 4
_lpObj$ = 8						; size = 4
_count$ = 12						; size = 4
?GDExpandInventorySend@@YAXPAUOBJECTSTRUCT@@H@Z PROC	; GDExpandInventorySend, COMDAT

; 6301 : {

  00000	55		 push	 ebp
  00001	8b ec		 mov	 ebp, esp
  00003	83 ec 20	 sub	 esp, 32			; 00000020H
  00006	a1 00 00 00 00	 mov	 eax, DWORD PTR ___security_cookie
  0000b	33 c5		 xor	 eax, ebp
  0000d	89 45 fc	 mov	 DWORD PTR __$ArrayPad$[ebp], eax
  00010	56		 push	 esi
  00011	8b 75 08	 mov	 esi, DWORD PTR _lpObj$[ebp]

; 6302 : 	CSHOP_SET_EXPANDINVENTORY pMsg = {0};
; 6303 : 	PHeadSetB((LPBYTE)&pMsg,0xA3,sizeof(pMsg));

  00014	8d 45 e0	 lea	 eax, DWORD PTR _pMsg$[ebp]
  00017	6a 1b		 push	 27			; 0000001bH
  00019	0f 57 c0	 xorps	 xmm0, xmm0
  0001c	c6 45 e0 00	 mov	 BYTE PTR _pMsg$[ebp], 0
  00020	68 a3 00 00 00	 push	 163			; 000000a3H
  00025	50		 push	 eax
  00026	0f 11 45 e1	 movups	 XMMWORD PTR _pMsg$[ebp+1], xmm0
  0002a	66 c7 45 f9 00
	00		 mov	 WORD PTR _pMsg$[ebp+25], 0
  00030	66 0f d6 45 f1	 movq	 QWORD PTR _pMsg$[ebp+17], xmm0
  00035	e8 00 00 00 00	 call	 ?PHeadSetB@@YAXPAEEH@Z	; PHeadSetB

; 6304 : 
; 6305 : 	pMsg.btType = 2;
; 6306 : 	pMsg.btCount = count;

  0003a	8a 45 0c	 mov	 al, BYTE PTR _count$[ebp]
  0003d	83 c4 0c	 add	 esp, 12			; 0000000cH

; 6307 : 
; 6308 : 	memcpy(pMsg.szAccountID,lpObj->AccountID,10);

  00040	f3 0f 7e 46 52	 movq	 xmm0, QWORD PTR [esi+82]

; 6309 : 	memcpy(pMsg.szName,lpObj->Name,10);
; 6310 : 
; 6311 : 	cDBSMng.Send((char*)&pMsg,sizeof(pMsg));

  00045	b9 00 00 00 00	 mov	 ecx, OFFSET ?cDBSMng@@3VDBSockMng@@A ; cDBSMng
  0004a	88 45 e4	 mov	 BYTE PTR _pMsg$[ebp+4], al
  0004d	0f b7 46 5a	 movzx	 eax, WORD PTR [esi+90]
  00051	66 89 45 ed	 mov	 WORD PTR _pMsg$[ebp+13], ax
  00055	0f b7 46 65	 movzx	 eax, WORD PTR [esi+101]
  00059	66 89 45 f8	 mov	 WORD PTR _pMsg$[ebp+24], ax
  0005d	8d 45 e0	 lea	 eax, DWORD PTR _pMsg$[ebp]
  00060	66 0f d6 45 e5	 movq	 QWORD PTR _pMsg$[ebp+5], xmm0
  00065	f3 0f 7e 46 5d	 movq	 xmm0, QWORD PTR [esi+93]
  0006a	6a 1b		 push	 27			; 0000001bH
  0006c	50		 push	 eax
  0006d	c6 45 e3 02	 mov	 BYTE PTR _pMsg$[ebp+3], 2
  00071	66 0f d6 45 f0	 movq	 QWORD PTR _pMsg$[ebp+16], xmm0
  00076	e8 00 00 00 00	 call	 ?Send@DBSockMng@@QAEHPADH@Z ; DBSockMng::Send

; 6312 : }

  0007b	8b 4d fc	 mov	 ecx, DWORD PTR __$ArrayPad$[ebp]
  0007e	33 cd		 xor	 ecx, ebp
  00080	5e		 pop	 esi
  00081	e8 00 00 00 00	 call	 @__security_check_cookie@4
  00086	8b e5		 mov	 esp, ebp
  00088	5d		 pop	 ebp
  00089	c3		 ret	 0
?GDExpandInventorySend@@YAXPAUOBJECTSTRUCT@@H@Z ENDP	; GDExpandInventorySend
_TEXT	ENDS
; Function compile flags: /Ogtp
; File c:\users\michel\desktop\source\gameserver\source\dsprotocol.cpp
;	COMDAT ?GDExpandWarehouseSend@@YAXPAUOBJECTSTRUCT@@H@Z
_TEXT	SEGMENT
_pMsg$ = -32						; size = 27
__$ArrayPad$ = -4					; size = 4
_lpObj$ = 8						; size = 4
_count$ = 12						; size = 4
?GDExpandWarehouseSend@@YAXPAUOBJECTSTRUCT@@H@Z PROC	; GDExpandWarehouseSend, COMDAT

; 6315 : {

  00000	55		 push	 ebp
  00001	8b ec		 mov	 ebp, esp
  00003	83 ec 20	 sub	 esp, 32			; 00000020H
  00006	a1 00 00 00 00	 mov	 eax, DWORD PTR ___security_cookie
  0000b	33 c5		 xor	 eax, ebp
  0000d	89 45 fc	 mov	 DWORD PTR __$ArrayPad$[ebp], eax
  00010	56		 push	 esi
  00011	8b 75 08	 mov	 esi, DWORD PTR _lpObj$[ebp]

; 6316 : 	CSHOP_SET_EXPANDINVENTORY pMsg = {0};
; 6317 : 	PHeadSetB((LPBYTE)&pMsg,0xA3,sizeof(pMsg));

  00014	8d 45 e0	 lea	 eax, DWORD PTR _pMsg$[ebp]
  00017	6a 1b		 push	 27			; 0000001bH
  00019	0f 57 c0	 xorps	 xmm0, xmm0
  0001c	c6 45 e0 00	 mov	 BYTE PTR _pMsg$[ebp], 0
  00020	68 a3 00 00 00	 push	 163			; 000000a3H
  00025	50		 push	 eax
  00026	0f 11 45 e1	 movups	 XMMWORD PTR _pMsg$[ebp+1], xmm0
  0002a	66 c7 45 f9 00
	00		 mov	 WORD PTR _pMsg$[ebp+25], 0
  00030	66 0f d6 45 f1	 movq	 QWORD PTR _pMsg$[ebp+17], xmm0
  00035	e8 00 00 00 00	 call	 ?PHeadSetB@@YAXPAEEH@Z	; PHeadSetB

; 6318 : 
; 6319 : 	pMsg.btType = 1;
; 6320 : 	pMsg.btCount = count;

  0003a	8a 45 0c	 mov	 al, BYTE PTR _count$[ebp]
  0003d	83 c4 0c	 add	 esp, 12			; 0000000cH

; 6321 : 
; 6322 : 	memcpy(pMsg.szAccountID,lpObj->AccountID,10);

  00040	f3 0f 7e 46 52	 movq	 xmm0, QWORD PTR [esi+82]

; 6323 : 	memcpy(pMsg.szName,lpObj->Name,10);
; 6324 : 
; 6325 : 	cDBSMng.Send((char*)&pMsg,sizeof(pMsg));

  00045	b9 00 00 00 00	 mov	 ecx, OFFSET ?cDBSMng@@3VDBSockMng@@A ; cDBSMng
  0004a	88 45 e4	 mov	 BYTE PTR _pMsg$[ebp+4], al
  0004d	0f b7 46 5a	 movzx	 eax, WORD PTR [esi+90]
  00051	66 89 45 ed	 mov	 WORD PTR _pMsg$[ebp+13], ax
  00055	0f b7 46 65	 movzx	 eax, WORD PTR [esi+101]
  00059	66 89 45 f8	 mov	 WORD PTR _pMsg$[ebp+24], ax
  0005d	8d 45 e0	 lea	 eax, DWORD PTR _pMsg$[ebp]
  00060	66 0f d6 45 e5	 movq	 QWORD PTR _pMsg$[ebp+5], xmm0
  00065	f3 0f 7e 46 5d	 movq	 xmm0, QWORD PTR [esi+93]
  0006a	6a 1b		 push	 27			; 0000001bH
  0006c	50		 push	 eax
  0006d	c6 45 e3 01	 mov	 BYTE PTR _pMsg$[ebp+3], 1
  00071	66 0f d6 45 f0	 movq	 QWORD PTR _pMsg$[ebp+16], xmm0
  00076	e8 00 00 00 00	 call	 ?Send@DBSockMng@@QAEHPADH@Z ; DBSockMng::Send

; 6326 : }

  0007b	8b 4d fc	 mov	 ecx, DWORD PTR __$ArrayPad$[ebp]
  0007e	33 cd		 xor	 ecx, ebp
  00080	5e		 pop	 esi
  00081	e8 00 00 00 00	 call	 @__security_check_cookie@4
  00086	8b e5		 mov	 esp, ebp
  00088	5d		 pop	 ebp
  00089	c3		 ret	 0
?GDExpandWarehouseSend@@YAXPAUOBJECTSTRUCT@@H@Z ENDP	; GDExpandWarehouseSend
_TEXT	ENDS
; Function compile flags: /Ogtp
; File c:\users\michel\desktop\source\gameserver\source\dsprotocol.cpp
; File c:\users\michel\desktop\source\gameserver\include\prodef.h
; File c:\users\michel\desktop\source\gameserver\source\dsprotocol.cpp
;	COMDAT ?DGSetSummonerCreate@@YAXPAUOBJECTSTRUCT@@H@Z
_TEXT	SEGMENT
_pMsg$ = -20						; size = 16
__$ArrayPad$ = -4					; size = 4
_lpObj$ = 8						; size = 4
_aIndex$ = 12						; size = 4
?DGSetSummonerCreate@@YAXPAUOBJECTSTRUCT@@H@Z PROC	; DGSetSummonerCreate, COMDAT

; 6281 : {

  00000	55		 push	 ebp
  00001	8b ec		 mov	 ebp, esp
  00003	83 ec 14	 sub	 esp, 20			; 00000014H
  00006	a1 00 00 00 00	 mov	 eax, DWORD PTR ___security_cookie
  0000b	33 c5		 xor	 eax, ebp
  0000d	89 45 fc	 mov	 DWORD PTR __$ArrayPad$[ebp], eax
  00010	8b 4d 08	 mov	 ecx, DWORD PTR _lpObj$[ebp]
  00013	0f 57 c0	 xorps	 xmm0, xmm0

; 6284 : 	memset(pMsg.szId,0,sizeof(pMsg.szId));

  00016	66 c7 45 f7 00
	00		 mov	 WORD PTR _pMsg$[ebp+11], 0
  0001c	66 0f d6 45 ef	 movq	 QWORD PTR _pMsg$[ebp+3], xmm0

; 6286 : 	pMsg.Index = lpObj->m_Index;
; 6287 : 
; 6288 : 	cDBSMng.Send((char*)&pMsg,sizeof(pMsg));

  00021	6a 10		 push	 16			; 00000010H
  00023	0f b7 41 5a	 movzx	 eax, WORD PTR [ecx+90]
  00027	f3 0f 7e 41 52	 movq	 xmm0, QWORD PTR [ecx+82]
  0002c	66 89 45 f7	 mov	 WORD PTR _pMsg$[ebp+11], ax
  00030	0f b7 01	 movzx	 eax, WORD PTR [ecx]
  00033	b9 00 00 00 00	 mov	 ecx, OFFSET ?cDBSMng@@3VDBSockMng@@A ; cDBSMng
  00038	66 89 45 fa	 mov	 WORD PTR _pMsg$[ebp+14], ax
  0003c	8d 45 ec	 lea	 eax, DWORD PTR _pMsg$[ebp]
  0003f	50		 push	 eax
; File c:\users\michel\desktop\source\gameserver\include\prodef.h

; 86   : 		lpBuf[0] = 0xC1;

  00040	66 c7 45 ec c1
	10		 mov	 WORD PTR _pMsg$[ebp], 4289 ; 000010c1H

; 87   : 		lpBuf[1] = size;
; 88   : 		lpBuf[2] = head;

  00046	c6 45 ee a2	 mov	 BYTE PTR _pMsg$[ebp+2], 162 ; 000000a2H
; File c:\users\michel\desktop\source\gameserver\source\dsprotocol.cpp

; 6284 : 	memset(pMsg.szId,0,sizeof(pMsg.szId));

  0004a	c6 45 f9 00	 mov	 BYTE PTR _pMsg$[ebp+13], 0

; 6285 : 	memcpy(pMsg.szId,lpObj->AccountID,10);

  0004e	66 0f d6 45 ef	 movq	 QWORD PTR _pMsg$[ebp+3], xmm0

; 6286 : 	pMsg.Index = lpObj->m_Index;
; 6287 : 
; 6288 : 	cDBSMng.Send((char*)&pMsg,sizeof(pMsg));

  00053	e8 00 00 00 00	 call	 ?Send@DBSockMng@@QAEHPADH@Z ; DBSockMng::Send

; 6289 : }

  00058	8b 4d fc	 mov	 ecx, DWORD PTR __$ArrayPad$[ebp]
  0005b	33 cd		 xor	 ecx, ebp
  0005d	e8 00 00 00 00	 call	 @__security_check_cookie@4
  00062	8b e5		 mov	 esp, ebp
  00064	5d		 pop	 ebp
  00065	c3		 ret	 0
?DGSetSummonerCreate@@YAXPAUOBJECTSTRUCT@@H@Z ENDP	; DGSetSummonerCreate
_TEXT	ENDS
; Function compile flags: /Ogtp
; File c:\users\michel\desktop\source\gameserver\source\dsprotocol.cpp
;	COMDAT ?JGPSummonerInfo@@YAXPAUPMSG_ANS_SUMMONER_CREATE@@@Z
_TEXT	SEGMENT
_szId$ = -16						; size = 11
__$ArrayPad$ = -4					; size = 4
_lpMsg$ = 8						; size = 4
?JGPSummonerInfo@@YAXPAUPMSG_ANS_SUMMONER_CREATE@@@Z PROC ; JGPSummonerInfo, COMDAT

; 524  : {

  00000	55		 push	 ebp
  00001	8b ec		 mov	 ebp, esp
  00003	83 ec 10	 sub	 esp, 16			; 00000010H
  00006	a1 00 00 00 00	 mov	 eax, DWORD PTR ___security_cookie
  0000b	33 c5		 xor	 eax, ebp
  0000d	89 45 fc	 mov	 DWORD PTR __$ArrayPad$[ebp], eax
  00010	56		 push	 esi
  00011	57		 push	 edi
  00012	8b 7d 08	 mov	 edi, DWORD PTR _lpMsg$[ebp]

; 525  : 	char szId[11];
; 526  : 	szId[10] = 0;

  00015	c6 45 fa 00	 mov	 BYTE PTR _szId$[ebp+10], 0

; 527  : 	memcpy(szId,lpMsg->szAccount,10);

  00019	66 8b 47 0b	 mov	 ax, WORD PTR [edi+11]

; 528  : 	int aIndex = lpMsg->Number;

  0001d	0f bf 77 0e	 movsx	 esi, WORD PTR [edi+14]
  00021	f3 0f 7e 47 03	 movq	 xmm0, QWORD PTR [edi+3]
  00026	66 89 45 f8	 mov	 WORD PTR _szId$[ebp+8], ax

; 529  : 
; 530  : 	if ( ::gObjIsAccontConnect(aIndex, szId) == FALSE )

  0002a	8d 45 f0	 lea	 eax, DWORD PTR _szId$[ebp]
  0002d	50		 push	 eax
  0002e	56		 push	 esi
  0002f	66 0f d6 45 f0	 movq	 QWORD PTR _szId$[ebp], xmm0
  00034	e8 00 00 00 00	 call	 ?gObjIsAccontConnect@@YAHHPAD@Z ; gObjIsAccontConnect
  00039	83 c4 08	 add	 esp, 8

; 531  : 	{
; 532  : 		LogAddC(2, lMsg.Get(MSGGET(1, 165)), gObj[aIndex].AccountID, szId);

  0003c	69 ce 40 27 00
	00		 imul	 ecx, esi, 10048
  00042	85 c0		 test	 eax, eax
  00044	75 40		 jne	 SHORT $LN2@JGPSummone
  00046	8d 45 f0	 lea	 eax, DWORD PTR _szId$[ebp]
  00049	50		 push	 eax
  0004a	a1 00 00 00 00	 mov	 eax, DWORD PTR ?gObj@@3PAUOBJECTSTRUCT@@A ; gObj
  0004f	83 c0 52	 add	 eax, 82			; 00000052H
  00052	03 c1		 add	 eax, ecx
  00054	b9 00 00 00 00	 mov	 ecx, OFFSET ?lMsg@@3VMessage@@A ; lMsg
  00059	50		 push	 eax
  0005a	68 a5 01 00 00	 push	 421			; 000001a5H
  0005f	e8 00 00 00 00	 call	 ?Get@Message@@QAEPADH@Z	; Message::Get
  00064	50		 push	 eax
  00065	6a 02		 push	 2
  00067	ff 15 00 00 00
	00		 call	 DWORD PTR ?LogAddC@@3P6AXEPADZZA ; LogAddC

; 533  : 		CloseClient(aIndex);

  0006d	56		 push	 esi
  0006e	e8 00 00 00 00	 call	 ?CloseClient@@YAXH@Z	; CloseClient
  00073	83 c4 14	 add	 esp, 20			; 00000014H
  00076	5f		 pop	 edi
  00077	5e		 pop	 esi

; 545  : 	}
; 546  : }

  00078	8b 4d fc	 mov	 ecx, DWORD PTR __$ArrayPad$[ebp]
  0007b	33 cd		 xor	 ecx, ebp
  0007d	e8 00 00 00 00	 call	 @__security_check_cookie@4
  00082	8b e5		 mov	 esp, ebp
  00084	5d		 pop	 ebp
  00085	c3		 ret	 0
$LN2@JGPSummone:
  00086	c6 47 10 01	 mov	 BYTE PTR [edi+16], 1

; 534  : 
; 535  : 		return;
; 536  : 	}
; 537  : 
; 538  : #if (__CUSTOM__ == 1)
; 539  : 	lpMsg->Result = 1;
; 540  : #endif
; 541  : 
; 542  : 	if( lpMsg->Result == TRUE )
; 543  : 	{
; 544  : 		gObj[aIndex].m_iSummonerCreateFlag = TRUE;

  0008a	a1 00 00 00 00	 mov	 eax, DWORD PTR ?gObj@@3PAUOBJECTSTRUCT@@A ; gObj
  0008f	5f		 pop	 edi
  00090	5e		 pop	 esi
  00091	c6 84 01 84 24
	00 00 01	 mov	 BYTE PTR [ecx+eax+9348], 1

; 545  : 	}
; 546  : }

  00099	8b 4d fc	 mov	 ecx, DWORD PTR __$ArrayPad$[ebp]
  0009c	33 cd		 xor	 ecx, ebp
  0009e	e8 00 00 00 00	 call	 @__security_check_cookie@4
  000a3	8b e5		 mov	 esp, ebp
  000a5	5d		 pop	 ebp
  000a6	c3		 ret	 0
?JGPSummonerInfo@@YAXPAUPMSG_ANS_SUMMONER_CREATE@@@Z ENDP ; JGPSummonerInfo
_TEXT	ENDS
; Function compile flags: /Ogtp
; File c:\users\michel\desktop\source\gameserver\source\dsprotocol.cpp
;	COMDAT ?DGAnsCrywolfInfoSave@@YAXPAE@Z
_TEXT	SEGMENT
_lpRecv$ = 8						; size = 4
?DGAnsCrywolfInfoSave@@YAXPAE@Z PROC			; DGAnsCrywolfInfoSave, COMDAT

; 6270 : 	CWP_ANS_CRYWOLFINFOSAVE * lpMsg = (CWP_ANS_CRYWOLFINFOSAVE *)lpRecv;
; 6271 : }

  00000	c3		 ret	 0
?DGAnsCrywolfInfoSave@@YAXPAE@Z ENDP			; DGAnsCrywolfInfoSave
_TEXT	ENDS
; Function compile flags: /Ogtp
; File c:\users\michel\desktop\source\gameserver\source\dsprotocol.cpp
; File c:\users\michel\desktop\source\gameserver\include\prodef.h
; File c:\users\michel\desktop\source\gameserver\source\dsprotocol.cpp
;	COMDAT ?GDReqCrywolfInfoSave@@YAXHHH@Z
_TEXT	SEGMENT
_pMsg$ = -20						; size = 16
__$ArrayPad$ = -4					; size = 4
_iMapSvrGroup$ = 8					; size = 4
_iCrywolfState$ = 12					; size = 4
_iOccupationState$ = 16					; size = 4
?GDReqCrywolfInfoSave@@YAXHHH@Z PROC			; GDReqCrywolfInfoSave, COMDAT

; 6244 : {

  00000	55		 push	 ebp
  00001	8b ec		 mov	 ebp, esp
  00003	83 ec 14	 sub	 esp, 20			; 00000014H
  00006	a1 00 00 00 00	 mov	 eax, DWORD PTR ___security_cookie
  0000b	33 c5		 xor	 eax, ebp
  0000d	89 45 fc	 mov	 DWORD PTR __$ArrayPad$[ebp], eax

; 6245 : 	if ( iMapSvrGroup <0 )

  00010	8b 45 08	 mov	 eax, DWORD PTR _iMapSvrGroup$[ebp]
  00013	85 c0		 test	 eax, eax
  00015	78 2a		 js	 SHORT $LN1@GDReqCrywo

; 6246 : 		return;
; 6247 : 
; 6248 : 	CWP_REQ_CRYWOLFINFOSAVE pMsg;
; 6249 : 
; 6250 : 	pMsg.h.set((LPBYTE)&pMsg, 0xB2, sizeof(CWP_REQ_CRYWOLFINFOSAVE));
; 6251 : 	pMsg.wMapSvrNum = iMapSvrGroup;

  00017	66 89 45 f0	 mov	 WORD PTR _pMsg$[ebp+4], ax

; 6255 : 	cDBSMng.Send((PCHAR)&pMsg, pMsg.h.size);

  0001b	b9 00 00 00 00	 mov	 ecx, OFFSET ?cDBSMng@@3VDBSockMng@@A ; cDBSMng
  00020	8b 45 0c	 mov	 eax, DWORD PTR _iCrywolfState$[ebp]
  00023	89 45 f4	 mov	 DWORD PTR _pMsg$[ebp+8], eax
  00026	8b 45 10	 mov	 eax, DWORD PTR _iOccupationState$[ebp]
  00029	89 45 f8	 mov	 DWORD PTR _pMsg$[ebp+12], eax
  0002c	8d 45 ec	 lea	 eax, DWORD PTR _pMsg$[ebp]
  0002f	6a 10		 push	 16			; 00000010H
  00031	50		 push	 eax
; File c:\users\michel\desktop\source\gameserver\include\prodef.h

; 86   : 		lpBuf[0] = 0xC1;

  00032	66 c7 45 ec c1
	10		 mov	 WORD PTR _pMsg$[ebp], 4289 ; 000010c1H

; 87   : 		lpBuf[1] = size;
; 88   : 		lpBuf[2] = head;

  00038	c6 45 ee b2	 mov	 BYTE PTR _pMsg$[ebp+2], 178 ; 000000b2H
; File c:\users\michel\desktop\source\gameserver\source\dsprotocol.cpp

; 6255 : 	cDBSMng.Send((PCHAR)&pMsg, pMsg.h.size);

  0003c	e8 00 00 00 00	 call	 ?Send@DBSockMng@@QAEHPADH@Z ; DBSockMng::Send
$LN1@GDReqCrywo:

; 6256 : }

  00041	8b 4d fc	 mov	 ecx, DWORD PTR __$ArrayPad$[ebp]
  00044	33 cd		 xor	 ecx, ebp
  00046	e8 00 00 00 00	 call	 @__security_check_cookie@4
  0004b	8b e5		 mov	 esp, ebp
  0004d	5d		 pop	 ebp
  0004e	c3		 ret	 0
?GDReqCrywolfInfoSave@@YAXHHH@Z ENDP			; GDReqCrywolfInfoSave
_TEXT	ENDS
; Function compile flags: /Ogtp
; File c:\users\michel\desktop\source\gameserver\source\dsprotocol.cpp
;	COMDAT ?DGAnsCrywolfInfoLoad@@YAXPAE@Z
_TEXT	SEGMENT
_lpRecv$ = 8						; size = 4
?DGAnsCrywolfInfoLoad@@YAXPAE@Z PROC			; DGAnsCrywolfInfoLoad, COMDAT

; 6203 : {

  00000	55		 push	 ebp
  00001	8b ec		 mov	 ebp, esp

; 6204 : 	CWP_ANS_CRYWOLFINFOLOAD * lpMsg = (CWP_ANS_CRYWOLFINFOLOAD *)lpRecv;
; 6205 : 
; 6206 : 	if(lpMsg == NULL)

  00003	8b 45 08	 mov	 eax, DWORD PTR _lpRecv$[ebp]
  00006	85 c0		 test	 eax, eax
  00008	74 3c		 je	 SHORT $LN6@DGAnsCrywo

; 6207 : 		return;
; 6208 : 
; 6209 : 	int result;
; 6210 : 
; 6211 : 	if(TRUE && lpMsg->iOccupationState >= 0 && lpMsg->iOccupationState <= 2)

  0000a	8b 48 08	 mov	 ecx, DWORD PTR [eax+8]
  0000d	85 c9		 test	 ecx, ecx
  0000f	78 0c		 js	 SHORT $LN3@DGAnsCrywo
  00011	83 f9 02	 cmp	 ecx, 2
  00014	7f 07		 jg	 SHORT $LN3@DGAnsCrywo

; 6212 : 	{
; 6213 : 		result = TRUE;

  00016	ba 01 00 00 00	 mov	 edx, 1

; 6214 : 	}
; 6215 : 	else

  0001b	eb 02		 jmp	 SHORT $LN4@DGAnsCrywo
$LN3@DGAnsCrywo:

; 6216 : 	{
; 6217 : 		result = FALSE;

  0001d	33 d2		 xor	 edx, edx
$LN4@DGAnsCrywo:

; 6218 : 	}
; 6219 : 
; 6220 : 	lpMsg->btResult = result;

  0001f	88 50 03	 mov	 BYTE PTR [eax+3], dl

; 6221 : 
; 6222 : 	if( (result&0xFF) != FALSE )

  00022	84 d2		 test	 dl, dl
  00024	74 10		 je	 SHORT $LN5@DGAnsCrywo

; 6223 : 	{
; 6224 : 		g_Crywolf.ApplyCrywolfDBInfo(lpMsg->iCrywolfState,lpMsg->iOccupationState);

  00026	51		 push	 ecx
  00027	ff 70 04	 push	 DWORD PTR [eax+4]
  0002a	b9 00 00 00 00	 mov	 ecx, OFFSET ?g_Crywolf@@3VCCrywolf@@A ; g_Crywolf
  0002f	e8 00 00 00 00	 call	 ?ApplyCrywolfDBInfo@CCrywolf@@QAEXHH@Z ; CCrywolf::ApplyCrywolfDBInfo

; 6229 : 	}
; 6230 : }

  00034	5d		 pop	 ebp
  00035	c3		 ret	 0
$LN5@DGAnsCrywo:

; 6225 : 	}
; 6226 : 	else
; 6227 : 	{
; 6228 : 		LogAddC(2,"[ Crywolf ] Incorrect DB OccupationState!!!");

  00036	68 00 00 00 00	 push	 OFFSET ??_C@_0CM@OEMLKOCG@?$FL?5Crywolf?5?$FN?5Incorrect?5DB?5Occupat@
  0003b	6a 02		 push	 2
  0003d	ff 15 00 00 00
	00		 call	 DWORD PTR ?LogAddC@@3P6AXEPADZZA ; LogAddC
  00043	83 c4 08	 add	 esp, 8
$LN6@DGAnsCrywo:

; 6229 : 	}
; 6230 : }

  00046	5d		 pop	 ebp
  00047	c3		 ret	 0
?DGAnsCrywolfInfoLoad@@YAXPAE@Z ENDP			; DGAnsCrywolfInfoLoad
_TEXT	ENDS
; Function compile flags: /Ogtp
; File c:\users\michel\desktop\source\gameserver\source\dsprotocol.cpp
; File c:\users\michel\desktop\source\gameserver\include\prodef.h
; File c:\users\michel\desktop\source\gameserver\source\dsprotocol.cpp
; File c:\users\michel\desktop\source\gameserver\include\prodef.h
; File c:\users\michel\desktop\source\gameserver\source\dsprotocol.cpp
;	COMDAT ?GDReqCrywolfInfoLoad@@YAXH@Z
_TEXT	SEGMENT
_pMsg$ = -8						; size = 6
_iMapSvrGroup$ = 8					; size = 4
?GDReqCrywolfInfoLoad@@YAXH@Z PROC			; GDReqCrywolfInfoLoad, COMDAT

; 6179 : {

  00000	55		 push	 ebp
  00001	8b ec		 mov	 ebp, esp

; 6180 : 	if ( iMapSvrGroup <0 )

  00003	8b 45 08	 mov	 eax, DWORD PTR _iMapSvrGroup$[ebp]
  00006	83 ec 08	 sub	 esp, 8
  00009	85 c0		 test	 eax, eax
  0000b	78 1e		 js	 SHORT $LN1@GDReqCrywo

; 6181 : 		return;
; 6182 : 
; 6183 : 	CWP_REQ_CRYWOLFINFOLOAD pMsg;
; 6184 : 
; 6185 : 	pMsg.h.set((LPBYTE)&pMsg, 0xB1, sizeof(CWP_REQ_CRYWOLFINFOLOAD));
; 6186 : 	pMsg.wMapSvrNum = iMapSvrGroup;

  0000d	66 89 45 fc	 mov	 WORD PTR _pMsg$[ebp+4], ax

; 6188 : 	cDBSMng.Send((PCHAR)&pMsg, pMsg.h.size);

  00011	b9 00 00 00 00	 mov	 ecx, OFFSET ?cDBSMng@@3VDBSockMng@@A ; cDBSMng
  00016	6a 06		 push	 6
  00018	8d 45 f8	 lea	 eax, DWORD PTR _pMsg$[ebp]
; File c:\users\michel\desktop\source\gameserver\include\prodef.h

; 86   : 		lpBuf[0] = 0xC1;

  0001b	66 c7 45 f8 c1
	06		 mov	 WORD PTR _pMsg$[ebp], 1729 ; 000006c1H
; File c:\users\michel\desktop\source\gameserver\source\dsprotocol.cpp

; 6188 : 	cDBSMng.Send((PCHAR)&pMsg, pMsg.h.size);

  00021	50		 push	 eax
; File c:\users\michel\desktop\source\gameserver\include\prodef.h

; 88   : 		lpBuf[2] = head;

  00022	c6 45 fa b1	 mov	 BYTE PTR _pMsg$[ebp+2], 177 ; 000000b1H
; File c:\users\michel\desktop\source\gameserver\source\dsprotocol.cpp

; 6188 : 	cDBSMng.Send((PCHAR)&pMsg, pMsg.h.size);

  00026	e8 00 00 00 00	 call	 ?Send@DBSockMng@@QAEHPADH@Z ; DBSockMng::Send
$LN1@GDReqCrywo:

; 6189 : }

  0002b	8b e5		 mov	 esp, ebp
  0002d	5d		 pop	 ebp
  0002e	c3		 ret	 0
?GDReqCrywolfInfoLoad@@YAXH@Z ENDP			; GDReqCrywolfInfoLoad
_TEXT	ENDS
; Function compile flags: /Ogtp
; File c:\users\michel\desktop\source\gameserver\source\dsprotocol.cpp
;	COMDAT ?DGAnsCrywolfSync@@YAXPAE@Z
_TEXT	SEGMENT
_lpRecv$ = 8						; size = 4
?DGAnsCrywolfSync@@YAXPAE@Z PROC			; DGAnsCrywolfSync, COMDAT

; 6153 : {

  00000	55		 push	 ebp
  00001	8b ec		 mov	 ebp, esp
  00003	56		 push	 esi

; 6154 : 	CWP_ANS_CRYWOLFSYNC * lpMsg = (CWP_ANS_CRYWOLFSYNC *)lpRecv;
; 6155 : 
; 6156 : 	if ( lpMsg == NULL )

  00004	8b 75 08	 mov	 esi, DWORD PTR _lpRecv$[ebp]
  00007	85 f6		 test	 esi, esi
  00009	74 5b		 je	 SHORT $LN3@DGAnsCrywo

; 6157 : 		return;
; 6158 : 
; 6159 : 	int iOldOccupationState = g_CrywolfSync.GetOccupationState();

  0000b	b9 00 00 00 00	 mov	 ecx, OFFSET ?g_CrywolfSync@@3VCCrywolfSync@@A ; g_CrywolfSync
  00010	e8 00 00 00 00	 call	 ?GetOccupationState@CCrywolfSync@@QAEHXZ ; CCrywolfSync::GetOccupationState

; 6160 : 	g_CrywolfSync.SetCrywolfState(lpMsg->iCrywolfState);

  00015	ff 76 04	 push	 DWORD PTR [esi+4]
  00018	b9 00 00 00 00	 mov	 ecx, OFFSET ?g_CrywolfSync@@3VCCrywolfSync@@A ; g_CrywolfSync
  0001d	e8 00 00 00 00	 call	 ?SetCrywolfState@CCrywolfSync@@QAEXH@Z ; CCrywolfSync::SetCrywolfState

; 6161 : 	g_CrywolfSync.SetOccupationState(lpMsg->iOccupationState);

  00022	ff 76 08	 push	 DWORD PTR [esi+8]
  00025	b9 00 00 00 00	 mov	 ecx, OFFSET ?g_CrywolfSync@@3VCCrywolfSync@@A ; g_CrywolfSync
  0002a	e8 00 00 00 00	 call	 ?SetOccupationState@CCrywolfSync@@QAEXH@Z ; CCrywolfSync::SetOccupationState

; 6162 : 
; 6163 : 	if ( GetTickCount() > (dwCrywolfSyncLogTickCount+ 60000) )

  0002f	ff 15 00 00 00
	00		 call	 DWORD PTR __imp__GetTickCount@0
  00035	8b 0d 00 00 00
	00		 mov	 ecx, DWORD PTR ?dwCrywolfSyncLogTickCount@@3KA ; dwCrywolfSyncLogTickCount
  0003b	81 c1 60 ea 00
	00		 add	 ecx, 60000		; 0000ea60H
  00041	3b c1		 cmp	 eax, ecx
  00043	76 21		 jbe	 SHORT $LN3@DGAnsCrywo

; 6164 : 	{
; 6165 : 		LogAddC(4, "[ CRYWOLF ] SYNC Occupation: %d, State: %d", lpMsg->iOccupationState, lpMsg->iCrywolfState);

  00045	ff 76 04	 push	 DWORD PTR [esi+4]
  00048	ff 76 08	 push	 DWORD PTR [esi+8]
  0004b	68 00 00 00 00	 push	 OFFSET ??_C@_0CL@BPJMLKLO@?$FL?5CRYWOLF?5?$FN?5SYNC?5Occupation?3?5?$CFd?0@
  00050	6a 04		 push	 4
  00052	ff 15 00 00 00
	00		 call	 DWORD PTR ?LogAddC@@3P6AXEPADZZA ; LogAddC
  00058	83 c4 10	 add	 esp, 16			; 00000010H

; 6166 : 		dwCrywolfSyncLogTickCount = GetTickCount();

  0005b	ff 15 00 00 00
	00		 call	 DWORD PTR __imp__GetTickCount@0
  00061	a3 00 00 00 00	 mov	 DWORD PTR ?dwCrywolfSyncLogTickCount@@3KA, eax ; dwCrywolfSyncLogTickCount
$LN3@DGAnsCrywo:
  00066	5e		 pop	 esi

; 6167 : 	}
; 6168 : }

  00067	5d		 pop	 ebp
  00068	c3		 ret	 0
?DGAnsCrywolfSync@@YAXPAE@Z ENDP			; DGAnsCrywolfSync
_TEXT	ENDS
; Function compile flags: /Ogtp
; File c:\users\michel\desktop\source\gameserver\source\dsprotocol.cpp
; File c:\users\michel\desktop\source\gameserver\include\prodef.h
; File c:\users\michel\desktop\source\gameserver\source\dsprotocol.cpp
;	COMDAT ?GDReqCrywolfSync@@YAXHHH@Z
_TEXT	SEGMENT
_pMsg$ = -20						; size = 16
__$ArrayPad$ = -4					; size = 4
_iMapSvrGroup$ = 8					; size = 4
_iCrywolfState$ = 12					; size = 4
_iOccupationState$ = 16					; size = 4
?GDReqCrywolfSync@@YAXHHH@Z PROC			; GDReqCrywolfSync, COMDAT

; 6122 : {

  00000	55		 push	 ebp
  00001	8b ec		 mov	 ebp, esp
  00003	83 ec 14	 sub	 esp, 20			; 00000014H
  00006	a1 00 00 00 00	 mov	 eax, DWORD PTR ___security_cookie
  0000b	33 c5		 xor	 eax, ebp
  0000d	89 45 fc	 mov	 DWORD PTR __$ArrayPad$[ebp], eax

; 6123 : 	if ( iMapSvrGroup <0 )

  00010	8b 45 08	 mov	 eax, DWORD PTR _iMapSvrGroup$[ebp]
  00013	85 c0		 test	 eax, eax
  00015	78 2a		 js	 SHORT $LN1@GDReqCrywo

; 6124 : 		return;
; 6125 : 
; 6126 : 	CWP_REQ_CRYWOLFSYNC pMsg;
; 6127 : 
; 6128 : 	pMsg.h.set((LPBYTE)&pMsg, 0xB0, sizeof(CWP_REQ_CRYWOLFSYNC));
; 6129 : 	pMsg.wMapSvrNum = iMapSvrGroup;

  00017	66 89 45 f0	 mov	 WORD PTR _pMsg$[ebp+4], ax

; 6133 : 	cDBSMng.Send((PCHAR)&pMsg, pMsg.h.size);

  0001b	b9 00 00 00 00	 mov	 ecx, OFFSET ?cDBSMng@@3VDBSockMng@@A ; cDBSMng
  00020	8b 45 0c	 mov	 eax, DWORD PTR _iCrywolfState$[ebp]
  00023	89 45 f4	 mov	 DWORD PTR _pMsg$[ebp+8], eax
  00026	8b 45 10	 mov	 eax, DWORD PTR _iOccupationState$[ebp]
  00029	89 45 f8	 mov	 DWORD PTR _pMsg$[ebp+12], eax
  0002c	8d 45 ec	 lea	 eax, DWORD PTR _pMsg$[ebp]
  0002f	6a 10		 push	 16			; 00000010H
  00031	50		 push	 eax
; File c:\users\michel\desktop\source\gameserver\include\prodef.h

; 86   : 		lpBuf[0] = 0xC1;

  00032	66 c7 45 ec c1
	10		 mov	 WORD PTR _pMsg$[ebp], 4289 ; 000010c1H

; 87   : 		lpBuf[1] = size;
; 88   : 		lpBuf[2] = head;

  00038	c6 45 ee b0	 mov	 BYTE PTR _pMsg$[ebp+2], 176 ; 000000b0H
; File c:\users\michel\desktop\source\gameserver\source\dsprotocol.cpp

; 6133 : 	cDBSMng.Send((PCHAR)&pMsg, pMsg.h.size);

  0003c	e8 00 00 00 00	 call	 ?Send@DBSockMng@@QAEHPADH@Z ; DBSockMng::Send
$LN1@GDReqCrywo:

; 6134 : }

  00041	8b 4d fc	 mov	 ecx, DWORD PTR __$ArrayPad$[ebp]
  00044	33 cd		 xor	 ecx, ebp
  00046	e8 00 00 00 00	 call	 @__security_check_cookie@4
  0004b	8b e5		 mov	 esp, ebp
  0004d	5d		 pop	 ebp
  0004e	c3		 ret	 0
?GDReqCrywolfSync@@YAXHHH@Z ENDP			; GDReqCrywolfSync
_TEXT	ENDS
; Function compile flags: /Ogtp
; File c:\users\michel\desktop\source\gameserver\source\dsprotocol.cpp
; File c:\users\michel\desktop\source\gameserver\source\mapservermanager.h
; File c:\users\michel\desktop\source\gameserver\source\dsprotocol.cpp
;	COMDAT ?GS_DGAnsCastleNpcUpdate@@YAXPAE@Z
_TEXT	SEGMENT
_lpRecv$ = 8						; size = 4
?GS_DGAnsCastleNpcUpdate@@YAXPAE@Z PROC			; GS_DGAnsCastleNpcUpdate, COMDAT

; 6093 : {

  00000	55		 push	 ebp
  00001	8b ec		 mov	 ebp, esp

; 6094 : #if (GS_CASTLE == 1)
; 6095 : 	CSP_ANS_NPCUPDATEDATA * lpMsg = (CSP_ANS_NPCUPDATEDATA*)lpRecv;
; 6096 : 
; 6097 : 	if(lpMsg == NULL)

  00003	8b 4d 08	 mov	 ecx, DWORD PTR _lpRecv$[ebp]
  00006	85 c9		 test	 ecx, ecx
  00008	74 4c		 je	 SHORT $LN1@GS_DGAnsCa
; File c:\users\michel\desktop\source\gameserver\source\mapservermanager.h

; 55   : 		if ( this->m_lpThisMapSvrData != NULL )

  0000a	a1 f8 6a 01 00	 mov	 eax, DWORD PTR ?g_MapServerManager@@3VCMapServerManager@@A+92920
  0000f	85 c0		 test	 eax, eax
  00011	74 06		 je	 SHORT $LN6@GS_DGAnsCa

; 56   : 		{
; 57   : 			return m_lpThisMapSvrData->m_btMAPSVR_GROUP;

  00013	0f b6 50 08	 movzx	 edx, BYTE PTR [eax+8]
  00017	eb 03		 jmp	 SHORT $LN5@GS_DGAnsCa
$LN6@GS_DGAnsCa:

; 58   : 		}
; 59   : 		return -1;

  00019	83 ca ff	 or	 edx, -1
$LN5@GS_DGAnsCa:
; File c:\users\michel\desktop\source\gameserver\source\dsprotocol.cpp

; 6100 : 	if(lpMsg->wMapSvrNum != g_MapServerManager.GetMapSvrGroup())

  0001c	0f b7 41 08	 movzx	 eax, WORD PTR [ecx+8]
  00020	3b c2		 cmp	 eax, edx
  00022	74 12		 je	 SHORT $LN3@GS_DGAnsCa

; 6101 : 	{
; 6102 : 		LogAddC(2,"[CastleSiege] PACKET-ERROR [0x89] GS_DGAnsCastleNpcUpdate() - lpMsg->wMapSvrNum != g_MapServerManager.GetMapSvrGroup()");

  00024	68 00 00 00 00	 push	 OFFSET ??_C@_0HH@KKMGHAAE@?$FLCastleSiege?$FN?5PACKET?9ERROR?5?$FL0x89@
  00029	6a 02		 push	 2
  0002b	ff 15 00 00 00
	00		 call	 DWORD PTR ?LogAddC@@3P6AXEPADZZA ; LogAddC

; 6103 : 		return;
; 6104 : 	}
; 6105 : 
; 6106 : 	LogAddTD("[CastleSiege] [0x89] GS_DGAnsCastleNpcUpdate() - Npc Data Update Result : '%s'",

  00031	83 c4 08	 add	 esp, 8

; 6107 : 		(lpMsg->iResult != 0) ? "SUCCEED" : "FAIL" );
; 6108 : #endif
; 6109 : }

  00034	5d		 pop	 ebp
  00035	c3		 ret	 0
$LN3@GS_DGAnsCa:

; 6103 : 		return;
; 6104 : 	}
; 6105 : 
; 6106 : 	LogAddTD("[CastleSiege] [0x89] GS_DGAnsCastleNpcUpdate() - Npc Data Update Result : '%s'",

  00036	83 79 04 00	 cmp	 DWORD PTR [ecx+4], 0
  0003a	ba 00 00 00 00	 mov	 edx, OFFSET ??_C@_04OOEBCMBF@FAIL?$AA@
  0003f	b8 00 00 00 00	 mov	 eax, OFFSET ??_C@_07OIIICFNN@SUCCEED?$AA@
  00044	0f 44 c2	 cmove	 eax, edx
  00047	50		 push	 eax
  00048	68 00 00 00 00	 push	 OFFSET ??_C@_0EP@HIMGAPIB@?$FLCastleSiege?$FN?5?$FL0x89?$FN?5GS_DGAnsCas@
  0004d	ff 15 00 00 00
	00		 call	 DWORD PTR ?LogAddTD@@3P6AXPADZZA ; LogAddTD
  00053	83 c4 08	 add	 esp, 8
$LN1@GS_DGAnsCa:

; 6107 : 		(lpMsg->iResult != 0) ? "SUCCEED" : "FAIL" );
; 6108 : #endif
; 6109 : }

  00056	5d		 pop	 ebp
  00057	c3		 ret	 0
?GS_DGAnsCastleNpcUpdate@@YAXPAE@Z ENDP			; GS_DGAnsCastleNpcUpdate
_TEXT	ENDS
; Function compile flags: /Ogtp
; File c:\users\michel\desktop\source\gameserver\source\dsprotocol.cpp
; File c:\users\michel\desktop\source\gameserver\source\mapservermanager.h
; File c:\users\michel\desktop\source\gameserver\source\dsprotocol.cpp
;	COMDAT ?GS_DGAnsCsLoadTotalGuildInfo@@YAXPAE@Z
_TEXT	SEGMENT
_lpRecv$ = 8						; size = 4
?GS_DGAnsCsLoadTotalGuildInfo@@YAXPAE@Z PROC		; GS_DGAnsCsLoadTotalGuildInfo, COMDAT

; 6064 : {

  00000	55		 push	 ebp
  00001	8b ec		 mov	 ebp, esp

; 6065 : #if (GS_CASTLE == 1)
; 6066 : 	CSP_ANS_CSLOADTOTALGUILDINFO * lpMsg = (CSP_ANS_CSLOADTOTALGUILDINFO*)lpRecv;
; 6067 : 	CSP_CSLOADTOTALGUILDINFO * lpMsgBody = (CSP_CSLOADTOTALGUILDINFO*)&lpRecv[sizeof(CSP_ANS_CSLOADTOTALGUILDINFO)];

  00003	8b 4d 08	 mov	 ecx, DWORD PTR _lpRecv$[ebp]
  00006	56		 push	 esi
  00007	8d 71 10	 lea	 esi, DWORD PTR [ecx+16]

; 6068 : 
; 6069 : 	if(lpMsg == NULL)

  0000a	85 c9		 test	 ecx, ecx
  0000c	74 41		 je	 SHORT $LN4@GS_DGAnsCs
; File c:\users\michel\desktop\source\gameserver\source\mapservermanager.h

; 55   : 		if ( this->m_lpThisMapSvrData != NULL )

  0000e	a1 f8 6a 01 00	 mov	 eax, DWORD PTR ?g_MapServerManager@@3VCMapServerManager@@A+92920
  00013	85 c0		 test	 eax, eax
  00015	74 06		 je	 SHORT $LN7@GS_DGAnsCs

; 56   : 		{
; 57   : 			return m_lpThisMapSvrData->m_btMAPSVR_GROUP;

  00017	0f b6 50 08	 movzx	 edx, BYTE PTR [eax+8]
  0001b	eb 03		 jmp	 SHORT $LN6@GS_DGAnsCs
$LN7@GS_DGAnsCs:

; 58   : 		}
; 59   : 		return -1;

  0001d	83 ca ff	 or	 edx, -1
$LN6@GS_DGAnsCs:
; File c:\users\michel\desktop\source\gameserver\source\dsprotocol.cpp

; 6072 : 	if(lpMsg->wMapSvrNum != g_MapServerManager.GetMapSvrGroup())

  00020	0f b7 41 08	 movzx	 eax, WORD PTR [ecx+8]
  00024	3b c2		 cmp	 eax, edx
  00026	74 13		 je	 SHORT $LN3@GS_DGAnsCs

; 6073 : 	{
; 6074 : 		LogAddC(2,"[CastleSiege] PACKET-ERROR [0x88] GS_DGAnsCsLoadTotalGuildInfo() - lpMsg->wMapSvrNum != g_MapServerManager.GetMapSvrGroup()");

  00028	68 00 00 00 00	 push	 OFFSET ??_C@_0HM@MGDLGKIP@?$FLCastleSiege?$FN?5PACKET?9ERROR?5?$FL0x88@
  0002d	6a 02		 push	 2
  0002f	ff 15 00 00 00
	00		 call	 DWORD PTR ?LogAddC@@3P6AXEPADZZA ; LogAddC
  00035	83 c4 08	 add	 esp, 8
  00038	5e		 pop	 esi

; 6081 : 	}
; 6082 : #endif
; 6083 : }

  00039	5d		 pop	 ebp
  0003a	c3		 ret	 0
$LN3@GS_DGAnsCs:

; 6075 : 		return;
; 6076 : 	}
; 6077 : 
; 6078 : 	if(lpMsg->iResult == 1)

  0003b	83 79 04 01	 cmp	 DWORD PTR [ecx+4], 1
  0003f	75 0e		 jne	 SHORT $LN4@GS_DGAnsCs

; 6079 : 	{
; 6080 : 		g_CastleSiege.SetCsTotalGuildInfo(lpMsgBody,lpMsg->iCount);

  00041	ff 71 0c	 push	 DWORD PTR [ecx+12]
  00044	b9 00 00 00 00	 mov	 ecx, OFFSET ?g_CastleSiege@@3VCCastleSiege@@A ; g_CastleSiege
  00049	56		 push	 esi
  0004a	e8 00 00 00 00	 call	 ?SetCsTotalGuildInfo@CCastleSiege@@QAEXPAUCSP_CSLOADTOTALGUILDINFO@@H@Z ; CCastleSiege::SetCsTotalGuildInfo
$LN4@GS_DGAnsCs:
  0004f	5e		 pop	 esi

; 6081 : 	}
; 6082 : #endif
; 6083 : }

  00050	5d		 pop	 ebp
  00051	c3		 ret	 0
?GS_DGAnsCsLoadTotalGuildInfo@@YAXPAE@Z ENDP		; GS_DGAnsCsLoadTotalGuildInfo
_TEXT	ENDS
; Function compile flags: /Ogtp
; File c:\users\michel\desktop\source\gameserver\source\dsprotocol.cpp
; File c:\users\michel\desktop\source\gameserver\source\mapservermanager.h
; File c:\users\michel\desktop\source\gameserver\source\dsprotocol.cpp
;	COMDAT ?GS_DGAnsCsSaveTotalGuildInfo@@YAXPAE@Z
_TEXT	SEGMENT
_lpRecv$ = 8						; size = 4
?GS_DGAnsCsSaveTotalGuildInfo@@YAXPAE@Z PROC		; GS_DGAnsCsSaveTotalGuildInfo, COMDAT

; 6031 : {

  00000	55		 push	 ebp
  00001	8b ec		 mov	 ebp, esp

; 6032 : #if (GS_CASTLE == 1)
; 6033 : 	CSP_ANS_CSSAVETOTALGUILDINFO * lpMsg = (CSP_ANS_CSSAVETOTALGUILDINFO*)lpRecv;
; 6034 : 
; 6035 : 	if(lpMsg == NULL)

  00003	8b 4d 08	 mov	 ecx, DWORD PTR _lpRecv$[ebp]
  00006	85 c9		 test	 ecx, ecx
  00008	74 47		 je	 SHORT $LN5@GS_DGAnsCs
; File c:\users\michel\desktop\source\gameserver\source\mapservermanager.h

; 55   : 		if ( this->m_lpThisMapSvrData != NULL )

  0000a	a1 f8 6a 01 00	 mov	 eax, DWORD PTR ?g_MapServerManager@@3VCMapServerManager@@A+92920
  0000f	85 c0		 test	 eax, eax
  00011	74 06		 je	 SHORT $LN8@GS_DGAnsCs

; 56   : 		{
; 57   : 			return m_lpThisMapSvrData->m_btMAPSVR_GROUP;

  00013	0f b6 50 08	 movzx	 edx, BYTE PTR [eax+8]
  00017	eb 03		 jmp	 SHORT $LN7@GS_DGAnsCs
$LN8@GS_DGAnsCs:

; 58   : 		}
; 59   : 		return -1;

  00019	83 ca ff	 or	 edx, -1
$LN7@GS_DGAnsCs:
; File c:\users\michel\desktop\source\gameserver\source\dsprotocol.cpp

; 6038 : 	if(lpMsg->wMapSvrNum != g_MapServerManager.GetMapSvrGroup())

  0001c	0f b7 41 08	 movzx	 eax, WORD PTR [ecx+8]
  00020	3b c2		 cmp	 eax, edx
  00022	74 12		 je	 SHORT $LN3@GS_DGAnsCs

; 6039 : 	{
; 6040 : 		LogAddC(2,"[CastleSiege] PACKET-ERROR [0x87] GS_DGAnsCsSaveTotalGuildInfo() - lpMsg->wMapSvrNum != g_MapServerManager.GetMapSvrGroup()");

  00024	68 00 00 00 00	 push	 OFFSET ??_C@_0HM@DAOCJLIP@?$FLCastleSiege?$FN?5PACKET?9ERROR?5?$FL0x87@
  00029	6a 02		 push	 2
  0002b	ff 15 00 00 00
	00		 call	 DWORD PTR ?LogAddC@@3P6AXEPADZZA ; LogAddC
  00031	83 c4 08	 add	 esp, 8

; 6051 : 	}
; 6052 : #endif
; 6053 : }

  00034	5d		 pop	 ebp
  00035	c3		 ret	 0
$LN3@GS_DGAnsCs:

; 6041 : 		return;
; 6042 : 	}
; 6043 : 
; 6044 : 	if(lpMsg->iResult == 1)

  00036	83 79 04 01	 cmp	 DWORD PTR [ecx+4], 1

; 6045 : 	{
; 6046 : 		g_CastleSiege.SetIsSiegeGuildList(TRUE);

  0003a	b9 00 00 00 00	 mov	 ecx, OFFSET ?g_CastleSiege@@3VCCastleSiege@@A ; g_CastleSiege
  0003f	75 09		 jne	 SHORT $LN4@GS_DGAnsCs
  00041	6a 01		 push	 1

; 6047 : 	}
; 6048 : 	else
; 6049 : 	{
; 6050 : 		g_CastleSiege.SetIsSiegeGuildList(FALSE);

  00043	e8 00 00 00 00	 call	 ?SetIsSiegeGuildList@CCastleSiege@@QAEXH@Z ; CCastleSiege::SetIsSiegeGuildList

; 6051 : 	}
; 6052 : #endif
; 6053 : }

  00048	5d		 pop	 ebp
  00049	c3		 ret	 0
$LN4@GS_DGAnsCs:

; 6047 : 	}
; 6048 : 	else
; 6049 : 	{
; 6050 : 		g_CastleSiege.SetIsSiegeGuildList(FALSE);

  0004a	6a 00		 push	 0
  0004c	e8 00 00 00 00	 call	 ?SetIsSiegeGuildList@CCastleSiege@@QAEXH@Z ; CCastleSiege::SetIsSiegeGuildList
$LN5@GS_DGAnsCs:

; 6051 : 	}
; 6052 : #endif
; 6053 : }

  00051	5d		 pop	 ebp
  00052	c3		 ret	 0
?GS_DGAnsCsSaveTotalGuildInfo@@YAXPAE@Z ENDP		; GS_DGAnsCsSaveTotalGuildInfo
_TEXT	ENDS
; Function compile flags: /Ogtp
; File c:\users\michel\desktop\source\gameserver\source\dsprotocol.cpp
; File c:\users\michel\desktop\source\gameserver\source\mapservermanager.h
; File c:\users\michel\desktop\source\gameserver\source\dsprotocol.cpp
;	COMDAT ?GS_DGAnsCsGulidUnionInfo@@YAXPAE@Z
_TEXT	SEGMENT
_lpRecv$ = 8						; size = 4
?GS_DGAnsCsGulidUnionInfo@@YAXPAE@Z PROC		; GS_DGAnsCsGulidUnionInfo, COMDAT

; 6002 : {

  00000	55		 push	 ebp
  00001	8b ec		 mov	 ebp, esp

; 6003 : #if (GS_CASTLE == 1)
; 6004 : 	CSP_ANS_CSGUILDUNIONINFO * lpMsg = (CSP_ANS_CSGUILDUNIONINFO*)lpRecv;
; 6005 : 	CSP_CSGUILDUNIONINFO * lpMsgBody = (CSP_CSGUILDUNIONINFO*)&lpRecv[sizeof(CSP_ANS_CSGUILDUNIONINFO)];

  00003	8b 4d 08	 mov	 ecx, DWORD PTR _lpRecv$[ebp]
  00006	56		 push	 esi
  00007	8d 71 10	 lea	 esi, DWORD PTR [ecx+16]

; 6006 : 
; 6007 : 	if(lpMsg == NULL)

  0000a	85 c9		 test	 ecx, ecx
  0000c	74 41		 je	 SHORT $LN4@GS_DGAnsCs
; File c:\users\michel\desktop\source\gameserver\source\mapservermanager.h

; 55   : 		if ( this->m_lpThisMapSvrData != NULL )

  0000e	a1 f8 6a 01 00	 mov	 eax, DWORD PTR ?g_MapServerManager@@3VCMapServerManager@@A+92920
  00013	85 c0		 test	 eax, eax
  00015	74 06		 je	 SHORT $LN7@GS_DGAnsCs

; 56   : 		{
; 57   : 			return m_lpThisMapSvrData->m_btMAPSVR_GROUP;

  00017	0f b6 50 08	 movzx	 edx, BYTE PTR [eax+8]
  0001b	eb 03		 jmp	 SHORT $LN6@GS_DGAnsCs
$LN7@GS_DGAnsCs:

; 58   : 		}
; 59   : 		return -1;

  0001d	83 ca ff	 or	 edx, -1
$LN6@GS_DGAnsCs:
; File c:\users\michel\desktop\source\gameserver\source\dsprotocol.cpp

; 6010 : 	if(lpMsg->wMapSvrNum != g_MapServerManager.GetMapSvrGroup())

  00020	0f b7 41 08	 movzx	 eax, WORD PTR [ecx+8]
  00024	3b c2		 cmp	 eax, edx
  00026	74 13		 je	 SHORT $LN3@GS_DGAnsCs

; 6011 : 	{
; 6012 : 		LogAddC(2,"[CastleSiege] PACKET-ERROR [0x86] GS_DGAnsCsGulidUnionInfo() - lpMsg->wMapSvrNum != g_MapServerManager.GetMapSvrGroup()");

  00028	68 00 00 00 00	 push	 OFFSET ??_C@_0HI@LIMFILFK@?$FLCastleSiege?$FN?5PACKET?9ERROR?5?$FL0x86@
  0002d	6a 02		 push	 2
  0002f	ff 15 00 00 00
	00		 call	 DWORD PTR ?LogAddC@@3P6AXEPADZZA ; LogAddC
  00035	83 c4 08	 add	 esp, 8
  00038	5e		 pop	 esi

; 6019 : 	}
; 6020 : #endif
; 6021 : }

  00039	5d		 pop	 ebp
  0003a	c3		 ret	 0
$LN3@GS_DGAnsCs:

; 6013 : 		return;
; 6014 : 	}
; 6015 : 
; 6016 : 	if(lpMsg->iResult == 1)

  0003b	83 79 04 01	 cmp	 DWORD PTR [ecx+4], 1
  0003f	75 0e		 jne	 SHORT $LN4@GS_DGAnsCs

; 6017 : 	{
; 6018 : 		g_CastleSiege.MakeCsTotalGuildInfo(lpMsgBody,lpMsg->iCount);

  00041	ff 71 0c	 push	 DWORD PTR [ecx+12]
  00044	b9 00 00 00 00	 mov	 ecx, OFFSET ?g_CastleSiege@@3VCCastleSiege@@A ; g_CastleSiege
  00049	56		 push	 esi
  0004a	e8 00 00 00 00	 call	 ?MakeCsTotalGuildInfo@CCastleSiege@@QAEXPAUCSP_CSGUILDUNIONINFO@@H@Z ; CCastleSiege::MakeCsTotalGuildInfo
$LN4@GS_DGAnsCs:
  0004f	5e		 pop	 esi

; 6019 : 	}
; 6020 : #endif
; 6021 : }

  00050	5d		 pop	 ebp
  00051	c3		 ret	 0
?GS_DGAnsCsGulidUnionInfo@@YAXPAE@Z ENDP		; GS_DGAnsCsGulidUnionInfo
_TEXT	ENDS
; Function compile flags: /Ogtp
; File c:\users\michel\desktop\source\gameserver\source\dsprotocol.cpp
; File c:\users\michel\desktop\source\gameserver\source\mapservermanager.h
; File c:\users\michel\desktop\source\gameserver\source\dsprotocol.cpp
;	COMDAT ?GS_DGAnsCalcREgGuildList@@YAXPAE@Z
_TEXT	SEGMENT
_lpRecv$ = 8						; size = 4
?GS_DGAnsCalcREgGuildList@@YAXPAE@Z PROC		; GS_DGAnsCalcREgGuildList, COMDAT

; 5966 : {

  00000	55		 push	 ebp
  00001	8b ec		 mov	 ebp, esp

; 5967 : #if (GS_CASTLE == 1)
; 5968 : 	CSP_ANS_CALCREGGUILDLIST * lpMsg = (CSP_ANS_CALCREGGUILDLIST*)lpRecv;
; 5969 : 	CSP_CALCREGGUILDLIST * lpMsgBody = (CSP_CALCREGGUILDLIST*)&lpRecv[sizeof(CSP_ANS_CALCREGGUILDLIST)];

  00003	8b 4d 08	 mov	 ecx, DWORD PTR _lpRecv$[ebp]
  00006	56		 push	 esi
  00007	8d 71 10	 lea	 esi, DWORD PTR [ecx+16]

; 5970 : 
; 5971 : 	if(lpMsg == NULL)

  0000a	85 c9		 test	 ecx, ecx
  0000c	74 57		 je	 SHORT $LN5@GS_DGAnsCa
; File c:\users\michel\desktop\source\gameserver\source\mapservermanager.h

; 55   : 		if ( this->m_lpThisMapSvrData != NULL )

  0000e	a1 f8 6a 01 00	 mov	 eax, DWORD PTR ?g_MapServerManager@@3VCMapServerManager@@A+92920
  00013	85 c0		 test	 eax, eax
  00015	74 06		 je	 SHORT $LN8@GS_DGAnsCa

; 56   : 		{
; 57   : 			return m_lpThisMapSvrData->m_btMAPSVR_GROUP;

  00017	0f b6 50 08	 movzx	 edx, BYTE PTR [eax+8]
  0001b	eb 03		 jmp	 SHORT $LN7@GS_DGAnsCa
$LN8@GS_DGAnsCa:

; 58   : 		}
; 59   : 		return -1;

  0001d	83 ca ff	 or	 edx, -1
$LN7@GS_DGAnsCa:
; File c:\users\michel\desktop\source\gameserver\source\dsprotocol.cpp

; 5974 : 	if(lpMsg->wMapSvrNum != g_MapServerManager.GetMapSvrGroup())

  00020	0f b7 41 08	 movzx	 eax, WORD PTR [ecx+8]
  00024	3b c2		 cmp	 eax, edx
  00026	74 13		 je	 SHORT $LN3@GS_DGAnsCa

; 5975 : 	{
; 5976 : 		LogAddC(2,"[CastleSiege] PACKET-ERROR [0x85] GS_DGAnsCalcREgGuildList() - lpMsg->wMapSvrNum != g_MapServerManager.GetMapSvrGroup()");

  00028	68 00 00 00 00	 push	 OFFSET ??_C@_0HI@DCOFLPNN@?$FLCastleSiege?$FN?5PACKET?9ERROR?5?$FL0x85@
  0002d	6a 02		 push	 2
  0002f	ff 15 00 00 00
	00		 call	 DWORD PTR ?LogAddC@@3P6AXEPADZZA ; LogAddC
  00035	83 c4 08	 add	 esp, 8
  00038	5e		 pop	 esi

; 5987 : 			lpMsg->iResult);
; 5988 : 	}
; 5989 : 
; 5990 : #endif
; 5991 : }

  00039	5d		 pop	 ebp
  0003a	c3		 ret	 0
$LN3@GS_DGAnsCa:

; 5977 : 		return;
; 5978 : 	}
; 5979 : 
; 5980 : 	if(lpMsg->iResult == 1)

  0003b	8b 41 04	 mov	 eax, DWORD PTR [ecx+4]
  0003e	83 f8 01	 cmp	 eax, 1
  00041	75 11		 jne	 SHORT $LN4@GS_DGAnsCa

; 5981 : 	{
; 5982 : 		g_CastleSiege.SetCalcRegGuildList(lpMsgBody,lpMsg->iCount);

  00043	ff 71 0c	 push	 DWORD PTR [ecx+12]
  00046	b9 00 00 00 00	 mov	 ecx, OFFSET ?g_CastleSiege@@3VCCastleSiege@@A ; g_CastleSiege
  0004b	56		 push	 esi
  0004c	e8 00 00 00 00	 call	 ?SetCalcRegGuildList@CCastleSiege@@QAEXPAUCSP_CALCREGGUILDLIST@@H@Z ; CCastleSiege::SetCalcRegGuildList
  00051	5e		 pop	 esi

; 5987 : 			lpMsg->iResult);
; 5988 : 	}
; 5989 : 
; 5990 : #endif
; 5991 : }

  00052	5d		 pop	 ebp
  00053	c3		 ret	 0
$LN4@GS_DGAnsCa:

; 5983 : 	}
; 5984 : 	else
; 5985 : 	{
; 5986 : 		LogAddC(2,"[CastleSiege] PACKET-ERROR [0x85] GS_DGAnsCalcREgGuildList() - lpMsg->iResult != 1 (%d)",

  00054	50		 push	 eax
  00055	68 00 00 00 00	 push	 OFFSET ??_C@_0FI@CEGBKGAK@?$FLCastleSiege?$FN?5PACKET?9ERROR?5?$FL0x85@
  0005a	6a 02		 push	 2
  0005c	ff 15 00 00 00
	00		 call	 DWORD PTR ?LogAddC@@3P6AXEPADZZA ; LogAddC
  00062	83 c4 0c	 add	 esp, 12			; 0000000cH
$LN5@GS_DGAnsCa:
  00065	5e		 pop	 esi

; 5987 : 			lpMsg->iResult);
; 5988 : 	}
; 5989 : 
; 5990 : #endif
; 5991 : }

  00066	5d		 pop	 ebp
  00067	c3		 ret	 0
?GS_DGAnsCalcREgGuildList@@YAXPAE@Z ENDP		; GS_DGAnsCalcREgGuildList
_TEXT	ENDS
; Function compile flags: /Ogtp
; File c:\users\michel\desktop\source\gameserver\source\dsprotocol.cpp
; File c:\users\michel\desktop\source\gameserver\source\mapservermanager.h
; File c:\users\michel\desktop\source\gameserver\source\dsprotocol.cpp
;	COMDAT ?GS_DGAnsFirstCreateNPC@@YAXPAE@Z
_TEXT	SEGMENT
_lpRecv$ = 8						; size = 4
?GS_DGAnsFirstCreateNPC@@YAXPAE@Z PROC			; GS_DGAnsFirstCreateNPC, COMDAT

; 5933 : {

  00000	55		 push	 ebp
  00001	8b ec		 mov	 ebp, esp

; 5934 : #if (GS_CASTLE == 1)
; 5935 : 	CSP_ANS_NPCSAVEDATA * lpMsg = (CSP_ANS_NPCSAVEDATA*)lpRecv;
; 5936 : 
; 5937 : 	if(lpMsg == NULL)

  00003	8b 4d 08	 mov	 ecx, DWORD PTR _lpRecv$[ebp]
  00006	85 c9		 test	 ecx, ecx
  00008	74 56		 je	 SHORT $LN5@GS_DGAnsFi
; File c:\users\michel\desktop\source\gameserver\source\mapservermanager.h

; 55   : 		if ( this->m_lpThisMapSvrData != NULL )

  0000a	a1 f8 6a 01 00	 mov	 eax, DWORD PTR ?g_MapServerManager@@3VCMapServerManager@@A+92920
  0000f	85 c0		 test	 eax, eax
  00011	74 06		 je	 SHORT $LN8@GS_DGAnsFi

; 56   : 		{
; 57   : 			return m_lpThisMapSvrData->m_btMAPSVR_GROUP;

  00013	0f b6 50 08	 movzx	 edx, BYTE PTR [eax+8]
  00017	eb 03		 jmp	 SHORT $LN7@GS_DGAnsFi
$LN8@GS_DGAnsFi:

; 58   : 		}
; 59   : 		return -1;

  00019	83 ca ff	 or	 edx, -1
$LN7@GS_DGAnsFi:
; File c:\users\michel\desktop\source\gameserver\source\dsprotocol.cpp

; 5940 : 	if(lpMsg->wMapSvrNum != g_MapServerManager.GetMapSvrGroup())

  0001c	0f b7 41 08	 movzx	 eax, WORD PTR [ecx+8]
  00020	3b c2		 cmp	 eax, edx
  00022	74 12		 je	 SHORT $LN3@GS_DGAnsFi

; 5941 : 	{
; 5942 : 		LogAddC(2,"[CastleSiege] PACKET-ERROR [0x84] GS_DGAnsFirstCreateNPC() - lpMsg->wMapSvrNum != g_MapServerManager.GetMapSvrGroup()");

  00024	68 00 00 00 00	 push	 OFFSET ??_C@_0HG@MMFIPMJM@?$FLCastleSiege?$FN?5PACKET?9ERROR?5?$FL0x84@
  00029	6a 02		 push	 2
  0002b	ff 15 00 00 00
	00		 call	 DWORD PTR ?LogAddC@@3P6AXEPADZZA ; LogAddC
  00031	83 c4 08	 add	 esp, 8

; 5952 : 		}
; 5953 : 	}
; 5954 : #endif
; 5955 : }

  00034	5d		 pop	 ebp
  00035	c3		 ret	 0
$LN3@GS_DGAnsFi:

; 5943 : 		return;
; 5944 : 	}
; 5945 : 
; 5946 : 	if(lpMsg->iResult == 1)

  00036	83 79 04 01	 cmp	 DWORD PTR [ecx+4], 1
  0003a	75 24		 jne	 SHORT $LN5@GS_DGAnsFi

; 5947 : 	{
; 5948 : 		if(g_CastleSiege.GetDbNpcCreated() == FALSE)

  0003c	b9 00 00 00 00	 mov	 ecx, OFFSET ?g_CastleSiege@@3VCCastleSiege@@A ; g_CastleSiege
  00041	e8 00 00 00 00	 call	 ?GetDbNpcCreated@CCastleSiege@@QAEHXZ ; CCastleSiege::GetDbNpcCreated
  00046	85 c0		 test	 eax, eax
  00048	75 16		 jne	 SHORT $LN5@GS_DGAnsFi

; 5949 : 		{
; 5950 : 			g_CastleSiege.CreateDbNPC();

  0004a	b9 00 00 00 00	 mov	 ecx, OFFSET ?g_CastleSiege@@3VCCastleSiege@@A ; g_CastleSiege
  0004f	e8 00 00 00 00	 call	 ?CreateDbNPC@CCastleSiege@@QAEXXZ ; CCastleSiege::CreateDbNPC

; 5951 : 			g_CastleSiege.SetDbNpcCreated(TRUE);

  00054	6a 01		 push	 1
  00056	b9 00 00 00 00	 mov	 ecx, OFFSET ?g_CastleSiege@@3VCCastleSiege@@A ; g_CastleSiege
  0005b	e8 00 00 00 00	 call	 ?SetDbNpcCreated@CCastleSiege@@QAEXH@Z ; CCastleSiege::SetDbNpcCreated
$LN5@GS_DGAnsFi:

; 5952 : 		}
; 5953 : 	}
; 5954 : #endif
; 5955 : }

  00060	5d		 pop	 ebp
  00061	c3		 ret	 0
?GS_DGAnsFirstCreateNPC@@YAXPAE@Z ENDP			; GS_DGAnsFirstCreateNPC
_TEXT	ENDS
; Function compile flags: /Ogtp
; File c:\users\michel\desktop\source\gameserver\source\dsprotocol.cpp
; File c:\users\michel\desktop\source\gameserver\source\mapservermanager.h
; File c:\users\michel\desktop\source\gameserver\source\dsprotocol.cpp
; File c:\users\michel\desktop\source\gameserver\include\prodef.h
; File c:\users\michel\desktop\source\gameserver\source\dsprotocol.cpp
; File c:\users\michel\desktop\source\gameserver\include\prodef.h
; File c:\users\michel\desktop\source\gameserver\source\dsprotocol.cpp
; File c:\users\michel\desktop\source\gameserver\include\prodef.h
; File c:\users\michel\desktop\source\gameserver\source\dsprotocol.cpp
;	COMDAT ?GS_DGAnsAllGuildMarkRegInfo@@YAXPAE@Z
_TEXT	SEGMENT
_cBUFFER$ = -1672					; size = 1668
__$ArrayPad$ = -4					; size = 4
_lpRecv$ = 8						; size = 4
?GS_DGAnsAllGuildMarkRegInfo@@YAXPAE@Z PROC		; GS_DGAnsAllGuildMarkRegInfo, COMDAT

; 5877 : {

  00000	55		 push	 ebp
  00001	8b ec		 mov	 ebp, esp
  00003	81 ec 88 06 00
	00		 sub	 esp, 1672		; 00000688H
  00009	a1 00 00 00 00	 mov	 eax, DWORD PTR ___security_cookie
  0000e	33 c5		 xor	 eax, ebp
  00010	89 45 fc	 mov	 DWORD PTR __$ArrayPad$[ebp], eax
  00013	53		 push	 ebx
  00014	8b 5d 08	 mov	 ebx, DWORD PTR _lpRecv$[ebp]

; 5878 : #if (GS_CASTLE == 1)
; 5879 : 	CSP_ANS_ALLGUILDREGINFO * lpMsg = (CSP_ANS_ALLGUILDREGINFO*)lpRecv;
; 5880 : 	CSP_GUILDREGINFO * lpMsgBody = (CSP_GUILDREGINFO*)&lpRecv[sizeof(CSP_ANS_ALLGUILDREGINFO)];
; 5881 : 
; 5882 : 	if(lpMsg == NULL)

  00017	85 db		 test	 ebx, ebx
  00019	0f 84 0f 01 00
	00		 je	 $LN1@GS_DGAnsAl
; File c:\users\michel\desktop\source\gameserver\source\mapservermanager.h

; 55   : 		if ( this->m_lpThisMapSvrData != NULL )

  0001f	a1 f8 6a 01 00	 mov	 eax, DWORD PTR ?g_MapServerManager@@3VCMapServerManager@@A+92920
  00024	85 c0		 test	 eax, eax
  00026	74 06		 je	 SHORT $LN11@GS_DGAnsAl

; 56   : 		{
; 57   : 			return m_lpThisMapSvrData->m_btMAPSVR_GROUP;

  00028	0f b6 48 08	 movzx	 ecx, BYTE PTR [eax+8]
  0002c	eb 03		 jmp	 SHORT $LN10@GS_DGAnsAl
$LN11@GS_DGAnsAl:

; 58   : 		}
; 59   : 		return -1;

  0002e	83 c9 ff	 or	 ecx, -1
$LN10@GS_DGAnsAl:
; File c:\users\michel\desktop\source\gameserver\source\dsprotocol.cpp

; 5885 : 	if(lpMsg->wMapSvrNum != g_MapServerManager.GetMapSvrGroup())

  00031	0f b7 43 08	 movzx	 eax, WORD PTR [ebx+8]
  00035	3b c1		 cmp	 eax, ecx
  00037	74 1f		 je	 SHORT $LN6@GS_DGAnsAl

; 5886 : 	{
; 5887 : 		LogAddC(2,"[CastleSiege] PACKET-ERROR [0x83] GS_DGAnsAllGuildMarkRegInfo() - lpMsg->wMapSvrNum != g_MapServerManager.GetMapSvrGroup()");

  00039	68 00 00 00 00	 push	 OFFSET ??_C@_0HL@PPDLAEKI@?$FLCastleSiege?$FN?5PACKET?9ERROR?5?$FL0x83@
  0003e	6a 02		 push	 2
  00040	ff 15 00 00 00
	00		 call	 DWORD PTR ?LogAddC@@3P6AXEPADZZA ; LogAddC
  00046	83 c4 08	 add	 esp, 8
  00049	5b		 pop	 ebx

; 5922 : #endif
; 5923 : }

  0004a	8b 4d fc	 mov	 ecx, DWORD PTR __$ArrayPad$[ebp]
  0004d	33 cd		 xor	 ecx, ebp
  0004f	e8 00 00 00 00	 call	 @__security_check_cookie@4
  00054	8b e5		 mov	 esp, ebp
  00056	5d		 pop	 ebp
  00057	c3		 ret	 0
$LN6@GS_DGAnsAl:

; 5888 : 		return;
; 5889 : 	}
; 5890 : 
; 5891 : 	if(gObjIsConnected(lpMsg->iIndex) == FALSE)

  00058	ff 73 0c	 push	 DWORD PTR [ebx+12]
  0005b	e8 00 00 00 00	 call	 ?gObjIsConnected@@YAHH@Z ; gObjIsConnected
  00060	83 c4 04	 add	 esp, 4
  00063	85 c0		 test	 eax, eax
  00065	0f 84 c3 00 00
	00		 je	 $LN1@GS_DGAnsAl

; 5892 : 		return;
; 5893 : 
; 5894 : 	char cBUFFER[0x684];
; 5895 : 
; 5896 : 	PMSG_ANS_CSREGGUILDLIST * lpMsgSend = (PMSG_ANS_CSREGGUILDLIST*)cBUFFER;
; 5897 : 	PMSG_CSREGGUILDLIST * lpMsgSendBody = (PMSG_CSREGGUILDLIST*)&cBUFFER[sizeof(PMSG_ANS_CSREGGUILDLIST)];
; 5898 : 
; 5899 : 	lpMsgSend->iCount = 0;
; 5900 : 	lpMsgSend->btResult = lpMsg->iResult;

  0006b	8a 43 04	 mov	 al, BYTE PTR [ebx+4]
  0006e	57		 push	 edi
  0006f	33 ff		 xor	 edi, edi
  00071	88 85 7c f9 ff
	ff		 mov	 BYTE PTR _cBUFFER$[ebp+4], al

; 5901 : 
; 5902 : 	if(lpMsg->iResult == 1)

  00077	83 7b 04 01	 cmp	 DWORD PTR [ebx+4], 1
  0007b	89 bd 80 f9 ff
	ff		 mov	 DWORD PTR _cBUFFER$[ebp+8], edi
  00081	75 68		 jne	 SHORT $LN3@GS_DGAnsAl

; 5903 : 	{
; 5904 : 		lpMsgSend->iCount = lpMsg->iCount;

  00083	8b 7b 10	 mov	 edi, DWORD PTR [ebx+16]
  00086	89 bd 80 f9 ff
	ff		 mov	 DWORD PTR _cBUFFER$[ebp+8], edi

; 5905 : 
; 5906 : 		for(int iCNT = 0; iCNT < lpMsg->iCount; iCNT++)

  0008c	85 ff		 test	 edi, edi
  0008e	7e 5b		 jle	 SHORT $LN3@GS_DGAnsAl

; 5903 : 	{
; 5904 : 		lpMsgSend->iCount = lpMsg->iCount;

  00090	56		 push	 esi
  00091	8d 73 1c	 lea	 esi, DWORD PTR [ebx+28]
  00094	8d 95 8d f9 ff
	ff		 lea	 edx, DWORD PTR _cBUFFER$[ebp+21]
  0009a	66 0f 1f 44 00
	00		 npad	 6
$LL4@GS_DGAnsAl:

; 5907 : 		{
; 5908 : 			lpMsgSendBody[iCNT].btSeqNum = lpMsgBody[iCNT].btRegRank;

  000a0	0f b6 46 05	 movzx	 eax, BYTE PTR [esi+5]
  000a4	8d 76 10	 lea	 esi, DWORD PTR [esi+16]

; 5909 : 			lpMsgSendBody[iCNT].btIsGiveUp = lpMsgBody[iCNT].bIsGiveUp;
; 5910 : 
; 5911 : 			lpMsgSendBody[iCNT].btRegMarks1 = DWORD((DWORD(lpMsgBody[iCNT].iRegMarkCount) >> 16) & 0xFFFF) >> 8;
; 5912 : 			lpMsgSendBody[iCNT].btRegMarks2 = DWORD((DWORD(lpMsgBody[iCNT].iRegMarkCount) >> 16) & 0xFFFF) & 0xFF;

  000a7	8b 4e f0	 mov	 ecx, DWORD PTR [esi-16]
  000aa	8d 52 0e	 lea	 edx, DWORD PTR [edx+14]
  000ad	88 42 f6	 mov	 BYTE PTR [edx-10], al
  000b0	0f b6 46 f4	 movzx	 eax, BYTE PTR [esi-12]
  000b4	88 42 f5	 mov	 BYTE PTR [edx-11], al
  000b7	0f b6 46 f3	 movzx	 eax, BYTE PTR [esi-13]
  000bb	88 42 f1	 mov	 BYTE PTR [edx-15], al
  000be	8b c1		 mov	 eax, ecx
  000c0	c1 e8 10	 shr	 eax, 16			; 00000010H
  000c3	88 42 f2	 mov	 BYTE PTR [edx-14], al

; 5913 : 			lpMsgSendBody[iCNT].btRegMarks3 = DWORD((DWORD(lpMsgBody[iCNT].iRegMarkCount) & 0xFFFF) & 0xFFFF) >> 8;
; 5914 : 			lpMsgSendBody[iCNT].btRegMarks4 = DWORD((DWORD(lpMsgBody[iCNT].iRegMarkCount) & 0xFFFF) & 0xFFFF) & 0xFF;

  000c6	0f b6 46 f0	 movzx	 eax, BYTE PTR [esi-16]
  000ca	88 42 f4	 mov	 BYTE PTR [edx-12], al

; 5915 : 
; 5916 : 			memcpy(lpMsgSendBody[iCNT].szGuildName,lpMsgBody[iCNT].szGuildName,8);

  000cd	8b 46 e8	 mov	 eax, DWORD PTR [esi-24]
  000d0	c1 e9 08	 shr	 ecx, 8
  000d3	89 42 e9	 mov	 DWORD PTR [edx-23], eax
  000d6	8b 46 ec	 mov	 eax, DWORD PTR [esi-20]
  000d9	88 4a f3	 mov	 BYTE PTR [edx-13], cl
  000dc	89 42 ed	 mov	 DWORD PTR [edx-19], eax
  000df	83 ef 01	 sub	 edi, 1
  000e2	75 bc		 jne	 SHORT $LL4@GS_DGAnsAl

; 5905 : 
; 5906 : 		for(int iCNT = 0; iCNT < lpMsg->iCount; iCNT++)

  000e4	8b bd 80 f9 ff
	ff		 mov	 edi, DWORD PTR _cBUFFER$[ebp+8]
  000ea	5e		 pop	 esi
$LN3@GS_DGAnsAl:

; 5920 : 	lpMsgSend->h.set((PBYTE)lpMsgSend,0xB4,sizeof(PMSG_CSREGGUILDLIST) * lpMsgSend->iCount + sizeof(PMSG_ANS_CSREGGUILDLIST));

  000eb	8d 04 fd 00 00
	00 00		 lea	 eax, DWORD PTR [edi*8]
; File c:\users\michel\desktop\source\gameserver\include\prodef.h

; 111  : 		lpBuf[0] = 0xC2;

  000f2	c6 85 78 f9 ff
	ff c2		 mov	 BYTE PTR _cBUFFER$[ebp], 194 ; 000000c2H
; File c:\users\michel\desktop\source\gameserver\source\dsprotocol.cpp

; 5920 : 	lpMsgSend->h.set((PBYTE)lpMsgSend,0xB4,sizeof(PMSG_CSREGGUILDLIST) * lpMsgSend->iCount + sizeof(PMSG_ANS_CSREGGUILDLIST));

  000f9	2b c7		 sub	 eax, edi
; File c:\users\michel\desktop\source\gameserver\include\prodef.h

; 114  : 		lpBuf[3] = head;

  000fb	c6 85 7b f9 ff
	ff b4		 mov	 BYTE PTR _cBUFFER$[ebp+3], 180 ; 000000b4H
; File c:\users\michel\desktop\source\gameserver\source\dsprotocol.cpp

; 5920 : 	lpMsgSend->h.set((PBYTE)lpMsgSend,0xB4,sizeof(PMSG_CSREGGUILDLIST) * lpMsgSend->iCount + sizeof(PMSG_ANS_CSREGGUILDLIST));

  00102	8d 0c 45 0c 00
	00 00		 lea	 ecx, DWORD PTR [eax*2+12]
; File c:\users\michel\desktop\source\gameserver\include\prodef.h

; 112  : 		lpBuf[1] = SET_NUMBERH(size);

  00109	8b c1		 mov	 eax, ecx

; 113  : 		lpBuf[2] = SET_NUMBERL(size);

  0010b	88 8d 7a f9 ff
	ff		 mov	 BYTE PTR _cBUFFER$[ebp+2], cl
  00111	c1 e8 08	 shr	 eax, 8
  00114	88 85 79 f9 ff
	ff		 mov	 BYTE PTR _cBUFFER$[ebp+1], al
; File c:\users\michel\desktop\source\gameserver\source\dsprotocol.cpp

; 5921 : 	DataSend(lpMsg->iIndex,(PBYTE)lpMsgSend,sizeof(PMSG_CSREGGUILDLIST) * lpMsgSend->iCount + sizeof(PMSG_ANS_CSREGGUILDLIST));

  0011a	8d 85 78 f9 ff
	ff		 lea	 eax, DWORD PTR _cBUFFER$[ebp]
  00120	51		 push	 ecx
  00121	50		 push	 eax
  00122	ff 73 0c	 push	 DWORD PTR [ebx+12]
  00125	e8 00 00 00 00	 call	 ?DataSend@@YAHHPAEK@Z	; DataSend
  0012a	83 c4 0c	 add	 esp, 12			; 0000000cH
  0012d	5f		 pop	 edi
$LN1@GS_DGAnsAl:

; 5922 : #endif
; 5923 : }

  0012e	8b 4d fc	 mov	 ecx, DWORD PTR __$ArrayPad$[ebp]
  00131	33 cd		 xor	 ecx, ebp
  00133	5b		 pop	 ebx
  00134	e8 00 00 00 00	 call	 @__security_check_cookie@4
  00139	8b e5		 mov	 esp, ebp
  0013b	5d		 pop	 ebp
  0013c	c3		 ret	 0
?GS_DGAnsAllGuildMarkRegInfo@@YAXPAE@Z ENDP		; GS_DGAnsAllGuildMarkRegInfo
_TEXT	ENDS
; Function compile flags: /Ogtp
; File c:\users\michel\desktop\source\gameserver\source\dsprotocol.cpp
; File c:\users\michel\desktop\source\gameserver\source\mapservermanager.h
; File c:\users\michel\desktop\source\gameserver\source\dsprotocol.cpp
;	COMDAT ?GS_DGAnsCastleNpcInfo@@YAXPAE@Z
_TEXT	SEGMENT
_lpRecv$ = 8						; size = 4
?GS_DGAnsCastleNpcInfo@@YAXPAE@Z PROC			; GS_DGAnsCastleNpcInfo, COMDAT

; 5826 : {

  00000	55		 push	 ebp
  00001	8b ec		 mov	 ebp, esp

; 5827 : #if (GS_CASTLE == 1)
; 5828 : 	CSP_ANS_NPCDATA * lpMsg = (CSP_ANS_NPCDATA*)lpRecv;
; 5829 : 	CSP_NPCDATA * lpMsgBody = (CSP_NPCDATA*)&lpRecv[sizeof(CSP_ANS_NPCDATA)];
; 5830 : 
; 5831 : 	if(lpMsg == NULL)

  00003	8b 45 08	 mov	 eax, DWORD PTR _lpRecv$[ebp]
  00006	85 c0		 test	 eax, eax
  00008	74 2b		 je	 SHORT $LN3@GS_DGAnsCa
; File c:\users\michel\desktop\source\gameserver\source\mapservermanager.h

; 55   : 		if ( this->m_lpThisMapSvrData != NULL )

  0000a	8b 0d f8 6a 01
	00		 mov	 ecx, DWORD PTR ?g_MapServerManager@@3VCMapServerManager@@A+92920
  00010	85 c9		 test	 ecx, ecx
  00012	74 06		 je	 SHORT $LN6@GS_DGAnsCa

; 56   : 		{
; 57   : 			return m_lpThisMapSvrData->m_btMAPSVR_GROUP;

  00014	0f b6 49 08	 movzx	 ecx, BYTE PTR [ecx+8]
  00018	eb 03		 jmp	 SHORT $LN5@GS_DGAnsCa
$LN6@GS_DGAnsCa:

; 58   : 		}
; 59   : 		return -1;

  0001a	83 c9 ff	 or	 ecx, -1
$LN5@GS_DGAnsCa:
; File c:\users\michel\desktop\source\gameserver\source\dsprotocol.cpp

; 5834 : 	if(lpMsg->wMapSvrNum != g_MapServerManager.GetMapSvrGroup())

  0001d	0f b7 40 08	 movzx	 eax, WORD PTR [eax+8]
  00021	3b c1		 cmp	 eax, ecx
  00023	74 10		 je	 SHORT $LN3@GS_DGAnsCa

; 5835 : 	{
; 5836 : 		LogAddC(2,"[CastleSiege] PACKET-ERROR [0x82] GS_DGAnsCastleNpcInfo() - lpMsg->wMapSvrNum != g_MapServerManager.GetMapSvrGroup()");

  00025	68 00 00 00 00	 push	 OFFSET ??_C@_0HF@FPJKEGCI@?$FLCastleSiege?$FN?5PACKET?9ERROR?5?$FL0x82@
  0002a	6a 02		 push	 2
  0002c	ff 15 00 00 00
	00		 call	 DWORD PTR ?LogAddC@@3P6AXEPADZZA ; LogAddC
  00032	83 c4 08	 add	 esp, 8
$LN3@GS_DGAnsCa:

; 5837 : 	}
; 5838 : #endif
; 5839 : }

  00035	5d		 pop	 ebp
  00036	c3		 ret	 0
?GS_DGAnsCastleNpcInfo@@YAXPAE@Z ENDP			; GS_DGAnsCastleNpcInfo
_TEXT	ENDS
; Function compile flags: /Ogtp
; File c:\users\michel\desktop\source\gameserver\source\dsprotocol.cpp
; File c:\users\michel\desktop\source\gameserver\source\mapservermanager.h
; File c:\users\michel\desktop\source\gameserver\source\dsprotocol.cpp
;	COMDAT ?GS_DGAnsCastleInitData@@YAXPAE@Z
_TEXT	SEGMENT
_lpRecv$ = 8						; size = 4
?GS_DGAnsCastleInitData@@YAXPAE@Z PROC			; GS_DGAnsCastleInitData, COMDAT

; 5743 : {

  00000	55		 push	 ebp
  00001	8b ec		 mov	 ebp, esp
  00003	56		 push	 esi

; 5744 : #if (GS_CASTLE == 1)
; 5745 : 	CSP_ANS_CSINITDATA * lpMsg = (CSP_ANS_CSINITDATA*)lpRecv;
; 5746 : 	CSP_CSINITDATA * lpMsgBody = (CSP_CSINITDATA*)&lpRecv[sizeof(CSP_ANS_CSINITDATA)];

  00004	8b 75 08	 mov	 esi, DWORD PTR _lpRecv$[ebp]
  00007	57		 push	 edi
  00008	8d 7e 40	 lea	 edi, DWORD PTR [esi+64]

; 5747 : 
; 5748 : 	if(lpMsg == NULL)

  0000b	85 f6		 test	 esi, esi
  0000d	74 2a		 je	 SHORT $LN1@GS_DGAnsCa
; File c:\users\michel\desktop\source\gameserver\source\mapservermanager.h

; 55   : 		if ( this->m_lpThisMapSvrData != NULL )

  0000f	a1 f8 6a 01 00	 mov	 eax, DWORD PTR ?g_MapServerManager@@3VCMapServerManager@@A+92920
  00014	85 c0		 test	 eax, eax
  00016	74 06		 je	 SHORT $LN11@GS_DGAnsCa

; 56   : 		{
; 57   : 			return m_lpThisMapSvrData->m_btMAPSVR_GROUP;

  00018	0f b6 48 08	 movzx	 ecx, BYTE PTR [eax+8]
  0001c	eb 03		 jmp	 SHORT $LN10@GS_DGAnsCa
$LN11@GS_DGAnsCa:

; 58   : 		}
; 59   : 		return -1;

  0001e	83 c9 ff	 or	 ecx, -1
$LN10@GS_DGAnsCa:
; File c:\users\michel\desktop\source\gameserver\source\dsprotocol.cpp

; 5751 : 	if(lpMsg->wMapSvrNum != g_MapServerManager.GetMapSvrGroup())

  00021	0f b7 46 08	 movzx	 eax, WORD PTR [esi+8]
  00025	3b c1		 cmp	 eax, ecx
  00027	74 14		 je	 SHORT $LN3@GS_DGAnsCa

; 5752 : 	{
; 5753 : 		LogAddC(2,"[CastleSiege] PACKET-ERROR [0x81] GS_DGAnsCastleInitData() - lpMsg->wMapSvrNum != g_MapServerManager.GetMapSvrGroup()");

  00029	68 00 00 00 00	 push	 OFFSET ??_C@_0HG@CBDKIEJG@?$FLCastleSiege?$FN?5PACKET?9ERROR?5?$FL0x81@

; 5778 : 	{
; 5779 : 		LogAddC(2,"[CastleSiege] CASTLE SIEGE DATA SETTING FAILED [0x81] - g_CastleSiege.SetCastleInitData() == FALSE");

  0002e	6a 02		 push	 2
  00030	ff 15 00 00 00
	00		 call	 DWORD PTR ?LogAddC@@3P6AXEPADZZA ; LogAddC
  00036	83 c4 08	 add	 esp, 8
$LN1@GS_DGAnsCa:
  00039	5f		 pop	 edi
  0003a	5e		 pop	 esi

; 5800 : #endif
; 5801 : }

  0003b	5d		 pop	 ebp
  0003c	c3		 ret	 0
$LN3@GS_DGAnsCa:

; 5754 : 		return;
; 5755 : 	}
; 5756 : 
; 5757 : 	if(g_CastleSiege.GetDataLoadState() != 2)

  0003d	b9 00 00 00 00	 mov	 ecx, OFFSET ?g_CastleSiege@@3VCCastleSiege@@A ; g_CastleSiege
  00042	e8 00 00 00 00	 call	 ?GetDataLoadState@CCastleSiege@@QAEHXZ ; CCastleSiege::GetDataLoadState

; 5758 : 	{
; 5759 : 		LogAddC(2,"[CastleSiege] CASTLE SIEGE DATA SETTING FAILED [0x81] - m_iCastleDataLoadState != CASTLESIEGE_DATALOAD_2 (%d)",

  00047	b9 00 00 00 00	 mov	 ecx, OFFSET ?g_CastleSiege@@3VCCastleSiege@@A ; g_CastleSiege
  0004c	83 f8 02	 cmp	 eax, 2
  0004f	74 1a		 je	 SHORT $LN4@GS_DGAnsCa
  00051	e8 00 00 00 00	 call	 ?GetDataLoadState@CCastleSiege@@QAEHXZ ; CCastleSiege::GetDataLoadState
  00056	50		 push	 eax
  00057	68 00 00 00 00	 push	 OFFSET ??_C@_0GO@LJFKFDKN@?$FLCastleSiege?$FN?5CASTLE?5SIEGE?5DATA?5@
  0005c	6a 02		 push	 2
  0005e	ff 15 00 00 00
	00		 call	 DWORD PTR ?LogAddC@@3P6AXEPADZZA ; LogAddC
  00064	83 c4 0c	 add	 esp, 12			; 0000000cH
  00067	5f		 pop	 edi
  00068	5e		 pop	 esi

; 5800 : #endif
; 5801 : }

  00069	5d		 pop	 ebp
  0006a	c3		 ret	 0
$LN4@GS_DGAnsCa:

; 5760 : 			g_CastleSiege.GetDataLoadState());
; 5761 : 		return;
; 5762 : 	}
; 5763 : 
; 5764 : 	g_CastleSiege.SetDataLoadState(3);

  0006b	6a 03		 push	 3
  0006d	e8 00 00 00 00	 call	 ?SetDataLoadState@CCastleSiege@@QAEXH@Z ; CCastleSiege::SetDataLoadState

; 5765 : 
; 5766 : 	if(lpMsg->iResult == 0)

  00072	83 7e 04 00	 cmp	 DWORD PTR [esi+4], 0
  00076	75 1f		 jne	 SHORT $LN5@GS_DGAnsCa

; 5767 : 	{
; 5768 : 		LogAddC(2,"[CastleSiege] CASTLE SIEGE DATA SETTING FAILED [0x81] - lpMsg->iResult == 0");

  00078	68 00 00 00 00	 push	 OFFSET ??_C@_0EM@NPBCIFML@?$FLCastleSiege?$FN?5CASTLE?5SIEGE?5DATA?5@
  0007d	6a 02		 push	 2
  0007f	ff 15 00 00 00
	00		 call	 DWORD PTR ?LogAddC@@3P6AXEPADZZA ; LogAddC
  00085	83 c4 08	 add	 esp, 8
  00088	5f		 pop	 edi
  00089	5e		 pop	 esi

; 5769 : 		MsgBox("[CastleSiege] CASTLE SIEGE DATA SETTING FAILED [0x81] - lpMsg->iResult == 0");

  0008a	c7 45 08 00 00
	00 00		 mov	 DWORD PTR _lpRecv$[ebp], OFFSET ??_C@_0EM@NPBCIFML@?$FLCastleSiege?$FN?5CASTLE?5SIEGE?5DATA?5@

; 5800 : #endif
; 5801 : }

  00091	5d		 pop	 ebp

; 5769 : 		MsgBox("[CastleSiege] CASTLE SIEGE DATA SETTING FAILED [0x81] - lpMsg->iResult == 0");

  00092	e9 00 00 00 00	 jmp	 ?MsgBox@@YAXPADZZ	; MsgBox
$LN5@GS_DGAnsCa:

; 5770 : 		return;
; 5771 : 	}
; 5772 : 
; 5773 : 	int bRET_VAL = FALSE;
; 5774 : 
; 5775 : 	bRET_VAL = g_CastleSiege.SetCastleInitData(lpMsg);

  00097	56		 push	 esi
  00098	b9 00 00 00 00	 mov	 ecx, OFFSET ?g_CastleSiege@@3VCCastleSiege@@A ; g_CastleSiege
  0009d	e8 00 00 00 00	 call	 ?SetCastleInitData@CCastleSiege@@QAEHPAUCSP_ANS_CSINITDATA@@@Z ; CCastleSiege::SetCastleInitData

; 5776 : 
; 5777 : 	if(bRET_VAL == FALSE)

  000a2	85 c0		 test	 eax, eax
  000a4	75 14		 jne	 SHORT $LN6@GS_DGAnsCa

; 5778 : 	{
; 5779 : 		LogAddC(2,"[CastleSiege] CASTLE SIEGE DATA SETTING FAILED [0x81] - g_CastleSiege.SetCastleInitData() == FALSE");

  000a6	68 00 00 00 00	 push	 OFFSET ??_C@_0GD@EAAPMHFJ@?$FLCastleSiege?$FN?5CASTLE?5SIEGE?5DATA?5@
  000ab	6a 02		 push	 2
  000ad	ff 15 00 00 00
	00		 call	 DWORD PTR ?LogAddC@@3P6AXEPADZZA ; LogAddC
  000b3	83 c4 08	 add	 esp, 8
  000b6	5f		 pop	 edi
  000b7	5e		 pop	 esi

; 5800 : #endif
; 5801 : }

  000b8	5d		 pop	 ebp
  000b9	c3		 ret	 0
$LN6@GS_DGAnsCa:

; 5780 : 		return;
; 5781 : 	}
; 5782 : 
; 5783 : 	bRET_VAL = g_CastleSiege.SetCastleNpcData(lpMsgBody,lpMsg->iCount);

  000ba	ff 76 38	 push	 DWORD PTR [esi+56]
  000bd	b9 00 00 00 00	 mov	 ecx, OFFSET ?g_CastleSiege@@3VCCastleSiege@@A ; g_CastleSiege
  000c2	57		 push	 edi
  000c3	e8 00 00 00 00	 call	 ?SetCastleNpcData@CCastleSiege@@QAEHPAUCSP_CSINITDATA@@H@Z ; CCastleSiege::SetCastleNpcData

; 5784 : 
; 5785 : 	if(bRET_VAL == FALSE)

  000c8	85 c0		 test	 eax, eax
  000ca	75 14		 jne	 SHORT $LN7@GS_DGAnsCa

; 5786 : 	{
; 5787 : 		LogAddC(2,"[CastleSiege] CASTLE SIEGE DATA SETTING FAILED [0x81] - g_CastleSiege.SetCastleNpcData() == FALSE");

  000cc	68 00 00 00 00	 push	 OFFSET ??_C@_0GC@MGFHIKBL@?$FLCastleSiege?$FN?5CASTLE?5SIEGE?5DATA?5@
  000d1	6a 02		 push	 2
  000d3	ff 15 00 00 00
	00		 call	 DWORD PTR ?LogAddC@@3P6AXEPADZZA ; LogAddC
  000d9	83 c4 08	 add	 esp, 8
  000dc	5f		 pop	 edi
  000dd	5e		 pop	 esi

; 5800 : #endif
; 5801 : }

  000de	5d		 pop	 ebp
  000df	c3		 ret	 0
$LN7@GS_DGAnsCa:

; 5788 : 		return;
; 5789 : 	}
; 5790 : 
; 5791 : 	g_CastleSiege.SetDbDataLoadOK(TRUE);

  000e0	6a 01		 push	 1
  000e2	b9 00 00 00 00	 mov	 ecx, OFFSET ?g_CastleSiege@@3VCCastleSiege@@A ; g_CastleSiege
  000e7	e8 00 00 00 00	 call	 ?SetDbDataLoadOK@CCastleSiege@@QAEXH@Z ; CCastleSiege::SetDbDataLoadOK

; 5792 : 	g_CastleSiege.SetDataLoadState(4);

  000ec	6a 04		 push	 4
  000ee	b9 00 00 00 00	 mov	 ecx, OFFSET ?g_CastleSiege@@3VCCastleSiege@@A ; g_CastleSiege
  000f3	e8 00 00 00 00	 call	 ?SetDataLoadState@CCastleSiege@@QAEXH@Z ; CCastleSiege::SetDataLoadState

; 5793 : 
; 5794 : 	if(lpMsg->iFirstCreate == TRUE)

  000f8	83 7e 34 01	 cmp	 DWORD PTR [esi+52], 1
  000fc	75 0a		 jne	 SHORT $LN8@GS_DGAnsCa

; 5795 : 	{
; 5796 : 		g_CastleSiege.FirstCreateDbNPC();

  000fe	b9 00 00 00 00	 mov	 ecx, OFFSET ?g_CastleSiege@@3VCCastleSiege@@A ; g_CastleSiege
  00103	e8 00 00 00 00	 call	 ?FirstCreateDbNPC@CCastleSiege@@QAEHXZ ; CCastleSiege::FirstCreateDbNPC
$LN8@GS_DGAnsCa:

; 5797 : 	}
; 5798 : 
; 5799 : 	g_CastleSiege.Init();

  00108	5f		 pop	 edi
  00109	b9 00 00 00 00	 mov	 ecx, OFFSET ?g_CastleSiege@@3VCCastleSiege@@A ; g_CastleSiege
  0010e	5e		 pop	 esi

; 5800 : #endif
; 5801 : }

  0010f	5d		 pop	 ebp

; 5797 : 	}
; 5798 : 
; 5799 : 	g_CastleSiege.Init();

  00110	e9 00 00 00 00	 jmp	 ?Init@CCastleSiege@@QAEHXZ ; CCastleSiege::Init
?GS_DGAnsCastleInitData@@YAXPAE@Z ENDP			; GS_DGAnsCastleInitData
_TEXT	ENDS
; Function compile flags: /Ogtp
; File c:\users\michel\desktop\source\gameserver\source\dsprotocol.cpp
; File c:\users\michel\desktop\source\gameserver\source\mapservermanager.h
; File c:\users\michel\desktop\source\gameserver\source\dsprotocol.cpp
;	COMDAT ?GS_DGAnsResetRegSiegeInfo@@YAXPAE@Z
_TEXT	SEGMENT
_lpRecv$ = 8						; size = 4
?GS_DGAnsResetRegSiegeInfo@@YAXPAE@Z PROC		; GS_DGAnsResetRegSiegeInfo, COMDAT

; 5728 : {

  00000	55		 push	 ebp
  00001	8b ec		 mov	 ebp, esp

; 5729 : #if (GS_CASTLE == 1)
; 5730 : 	CSP_ANS_RESETREGSIEGEINFO * lpMsg = (CSP_ANS_RESETREGSIEGEINFO*)lpRecv;
; 5731 : 
; 5732 : 	if(lpMsg == NULL)

  00003	8b 45 08	 mov	 eax, DWORD PTR _lpRecv$[ebp]
  00006	85 c0		 test	 eax, eax
  00008	74 2b		 je	 SHORT $LN3@GS_DGAnsRe
; File c:\users\michel\desktop\source\gameserver\source\mapservermanager.h

; 55   : 		if ( this->m_lpThisMapSvrData != NULL )

  0000a	8b 0d f8 6a 01
	00		 mov	 ecx, DWORD PTR ?g_MapServerManager@@3VCMapServerManager@@A+92920
  00010	85 c9		 test	 ecx, ecx
  00012	74 06		 je	 SHORT $LN6@GS_DGAnsRe

; 56   : 		{
; 57   : 			return m_lpThisMapSvrData->m_btMAPSVR_GROUP;

  00014	0f b6 49 08	 movzx	 ecx, BYTE PTR [ecx+8]
  00018	eb 03		 jmp	 SHORT $LN5@GS_DGAnsRe
$LN6@GS_DGAnsRe:

; 58   : 		}
; 59   : 		return -1;

  0001a	83 c9 ff	 or	 ecx, -1
$LN5@GS_DGAnsRe:
; File c:\users\michel\desktop\source\gameserver\source\dsprotocol.cpp

; 5735 : 	if(lpMsg->wMapSvrNum != g_MapServerManager.GetMapSvrGroup())

  0001d	0f b7 40 08	 movzx	 eax, WORD PTR [eax+8]
  00021	3b c1		 cmp	 eax, ecx
  00023	74 10		 je	 SHORT $LN3@GS_DGAnsRe

; 5736 : 	{
; 5737 : 		LogAddC(2,"[CastleSiege] PACKET-ERROR [0x80][0x1B] GS_DGAnsResetRegSiegeInfo() - lpMsg->wMapSvrNum != g_MapServerManager.GetMapSvrGroup()");

  00025	68 00 00 00 00	 push	 OFFSET ??_C@_0HP@DDPBMEPM@?$FLCastleSiege?$FN?5PACKET?9ERROR?5?$FL0x80@
  0002a	6a 02		 push	 2
  0002c	ff 15 00 00 00
	00		 call	 DWORD PTR ?LogAddC@@3P6AXEPADZZA ; LogAddC
  00032	83 c4 08	 add	 esp, 8
$LN3@GS_DGAnsRe:

; 5738 : 	}
; 5739 : #endif
; 5740 : }

  00035	5d		 pop	 ebp
  00036	c3		 ret	 0
?GS_DGAnsResetRegSiegeInfo@@YAXPAE@Z ENDP		; GS_DGAnsResetRegSiegeInfo
_TEXT	ENDS
; Function compile flags: /Ogtp
; File c:\users\michel\desktop\source\gameserver\source\dsprotocol.cpp
; File c:\users\michel\desktop\source\gameserver\source\mapservermanager.h
; File c:\users\michel\desktop\source\gameserver\source\dsprotocol.cpp
;	COMDAT ?GS_DGAnsResetSiegeGuildInfo@@YAXPAE@Z
_TEXT	SEGMENT
_lpRecv$ = 8						; size = 4
?GS_DGAnsResetSiegeGuildInfo@@YAXPAE@Z PROC		; GS_DGAnsResetSiegeGuildInfo, COMDAT

; 5706 : {

  00000	55		 push	 ebp
  00001	8b ec		 mov	 ebp, esp

; 5707 : #if (GS_CASTLE == 1)
; 5708 : 	CSP_ANS_RESETSIEGEGUILDINFO * lpMsg = (CSP_ANS_RESETSIEGEGUILDINFO*)lpRecv;
; 5709 : 
; 5710 : 	if(lpMsg == NULL)

  00003	8b 45 08	 mov	 eax, DWORD PTR _lpRecv$[ebp]
  00006	85 c0		 test	 eax, eax
  00008	74 2b		 je	 SHORT $LN3@GS_DGAnsRe
; File c:\users\michel\desktop\source\gameserver\source\mapservermanager.h

; 55   : 		if ( this->m_lpThisMapSvrData != NULL )

  0000a	8b 0d f8 6a 01
	00		 mov	 ecx, DWORD PTR ?g_MapServerManager@@3VCMapServerManager@@A+92920
  00010	85 c9		 test	 ecx, ecx
  00012	74 06		 je	 SHORT $LN6@GS_DGAnsRe

; 56   : 		{
; 57   : 			return m_lpThisMapSvrData->m_btMAPSVR_GROUP;

  00014	0f b6 49 08	 movzx	 ecx, BYTE PTR [ecx+8]
  00018	eb 03		 jmp	 SHORT $LN5@GS_DGAnsRe
$LN6@GS_DGAnsRe:

; 58   : 		}
; 59   : 		return -1;

  0001a	83 c9 ff	 or	 ecx, -1
$LN5@GS_DGAnsRe:
; File c:\users\michel\desktop\source\gameserver\source\dsprotocol.cpp

; 5713 : 	if(lpMsg->wMapSvrNum != g_MapServerManager.GetMapSvrGroup())

  0001d	0f b7 40 08	 movzx	 eax, WORD PTR [eax+8]
  00021	3b c1		 cmp	 eax, ecx
  00023	74 10		 je	 SHORT $LN3@GS_DGAnsRe

; 5714 : 	{
; 5715 : 		LogAddC(2,"[CastleSiege] PACKET-ERROR [0x80][0x1A] GS_DGAnsResetSiegeGuildInfo() - lpMsg->wMapSvrNum != g_MapServerManager.GetMapSvrGroup()");

  00025	68 00 00 00 00	 push	 OFFSET ??_C@_0IB@LEBBPIHB@?$FLCastleSiege?$FN?5PACKET?9ERROR?5?$FL0x80@
  0002a	6a 02		 push	 2
  0002c	ff 15 00 00 00
	00		 call	 DWORD PTR ?LogAddC@@3P6AXEPADZZA ; LogAddC
  00032	83 c4 08	 add	 esp, 8
$LN3@GS_DGAnsRe:

; 5716 : 	}
; 5717 : #endif
; 5718 : }

  00035	5d		 pop	 ebp
  00036	c3		 ret	 0
?GS_DGAnsResetSiegeGuildInfo@@YAXPAE@Z ENDP		; GS_DGAnsResetSiegeGuildInfo
_TEXT	ENDS
; Function compile flags: /Ogtp
; File c:\users\michel\desktop\source\gameserver\source\dsprotocol.cpp
; File c:\users\michel\desktop\source\gameserver\source\mapservermanager.h
; File c:\users\michel\desktop\source\gameserver\source\dsprotocol.cpp
;	COMDAT ?GS_DGAnsResetCastleTaxInfo@@YAXPAE@Z
_TEXT	SEGMENT
_lpRecv$ = 8						; size = 4
?GS_DGAnsResetCastleTaxInfo@@YAXPAE@Z PROC		; GS_DGAnsResetCastleTaxInfo, COMDAT

; 5678 : {

  00000	55		 push	 ebp
  00001	8b ec		 mov	 ebp, esp

; 5679 : #if (GS_CASTLE == 1)
; 5680 : 	CSP_ANS_RESETCASTLETAXINFO * lpMsg = (CSP_ANS_RESETCASTLETAXINFO*)lpRecv;
; 5681 : 
; 5682 : 	if(lpMsg == NULL)

  00003	8b 4d 08	 mov	 ecx, DWORD PTR _lpRecv$[ebp]
  00006	85 c9		 test	 ecx, ecx
  00008	74 2a		 je	 SHORT $LN4@GS_DGAnsRe
; File c:\users\michel\desktop\source\gameserver\source\mapservermanager.h

; 55   : 		if ( this->m_lpThisMapSvrData != NULL )

  0000a	a1 f8 6a 01 00	 mov	 eax, DWORD PTR ?g_MapServerManager@@3VCMapServerManager@@A+92920
  0000f	85 c0		 test	 eax, eax
  00011	74 06		 je	 SHORT $LN7@GS_DGAnsRe

; 56   : 		{
; 57   : 			return m_lpThisMapSvrData->m_btMAPSVR_GROUP;

  00013	0f b6 50 08	 movzx	 edx, BYTE PTR [eax+8]
  00017	eb 03		 jmp	 SHORT $LN6@GS_DGAnsRe
$LN7@GS_DGAnsRe:

; 58   : 		}
; 59   : 		return -1;

  00019	83 ca ff	 or	 edx, -1
$LN6@GS_DGAnsRe:
; File c:\users\michel\desktop\source\gameserver\source\dsprotocol.cpp

; 5685 : 	if(lpMsg->wMapSvrNum != g_MapServerManager.GetMapSvrGroup())

  0001c	0f b7 41 08	 movzx	 eax, WORD PTR [ecx+8]
  00020	3b c2		 cmp	 eax, edx
  00022	74 12		 je	 SHORT $LN3@GS_DGAnsRe

; 5686 : 	{
; 5687 : 		LogAddC(2,"[CastleSiege] PACKET-ERROR [0x80][0x19] GS_DGAnsResetCastleTaxInfo() - lpMsg->wMapSvrNum != g_MapServerManager.GetMapSvrGroup()");

  00024	68 00 00 00 00	 push	 OFFSET ??_C@_0IA@OLLELCLL@?$FLCastleSiege?$FN?5PACKET?9ERROR?5?$FL0x80@
  00029	6a 02		 push	 2
  0002b	ff 15 00 00 00
	00		 call	 DWORD PTR ?LogAddC@@3P6AXEPADZZA ; LogAddC
  00031	83 c4 08	 add	 esp, 8
$LN4@GS_DGAnsRe:

; 5694 : 	}
; 5695 : #endif
; 5696 : }

  00034	5d		 pop	 ebp
  00035	c3		 ret	 0
$LN3@GS_DGAnsRe:

; 5688 : 		return;
; 5689 : 	}
; 5690 : 
; 5691 : 	if(lpMsg->iResult = 1)

  00036	c7 41 04 01 00
	00 00		 mov	 DWORD PTR [ecx+4], 1

; 5692 : 	{
; 5693 : 		g_CastleSiege.ResetCastleTaxInfo();

  0003d	b9 00 00 00 00	 mov	 ecx, OFFSET ?g_CastleSiege@@3VCCastleSiege@@A ; g_CastleSiege

; 5694 : 	}
; 5695 : #endif
; 5696 : }

  00042	5d		 pop	 ebp

; 5692 : 	{
; 5693 : 		g_CastleSiege.ResetCastleTaxInfo();

  00043	e9 00 00 00 00	 jmp	 ?ResetCastleTaxInfo@CCastleSiege@@QAEXXZ ; CCastleSiege::ResetCastleTaxInfo
?GS_DGAnsResetCastleTaxInfo@@YAXPAE@Z ENDP		; GS_DGAnsResetCastleTaxInfo
_TEXT	ENDS
; Function compile flags: /Ogtp
; File c:\users\michel\desktop\source\gameserver\source\dsprotocol.cpp
; File c:\users\michel\desktop\source\gameserver\source\mapservermanager.h
; File c:\users\michel\desktop\source\gameserver\source\dsprotocol.cpp
;	COMDAT ?GS_DGAnsCastleTributeMoney@@YAXPAE@Z
_TEXT	SEGMENT
_lpRecv$ = 8						; size = 4
?GS_DGAnsCastleTributeMoney@@YAXPAE@Z PROC		; GS_DGAnsCastleTributeMoney, COMDAT

; 5650 : {

  00000	55		 push	 ebp
  00001	8b ec		 mov	 ebp, esp

; 5651 : 	CSP_ANS_CASTLETRIBUTEMONEY * lpMsg = (CSP_ANS_CASTLETRIBUTEMONEY *)lpRecv;
; 5652 : 
; 5653 : 	if ( lpMsg == NULL )

  00003	8b 45 08	 mov	 eax, DWORD PTR _lpRecv$[ebp]
  00006	85 c0		 test	 eax, eax
  00008	74 2b		 je	 SHORT $LN1@GS_DGAnsCa
; File c:\users\michel\desktop\source\gameserver\source\mapservermanager.h

; 55   : 		if ( this->m_lpThisMapSvrData != NULL )

  0000a	8b 0d f8 6a 01
	00		 mov	 ecx, DWORD PTR ?g_MapServerManager@@3VCMapServerManager@@A+92920
  00010	85 c9		 test	 ecx, ecx
  00012	74 06		 je	 SHORT $LN6@GS_DGAnsCa

; 56   : 		{
; 57   : 			return m_lpThisMapSvrData->m_btMAPSVR_GROUP;

  00014	0f b6 49 08	 movzx	 ecx, BYTE PTR [ecx+8]
  00018	eb 03		 jmp	 SHORT $LN5@GS_DGAnsCa
$LN6@GS_DGAnsCa:

; 58   : 		}
; 59   : 		return -1;

  0001a	83 c9 ff	 or	 ecx, -1
$LN5@GS_DGAnsCa:
; File c:\users\michel\desktop\source\gameserver\source\dsprotocol.cpp

; 5658 : 	if ( lpMsg->wMapSvrNum != g_MapServerManager.GetMapSvrGroup() )

  0001d	0f b7 40 08	 movzx	 eax, WORD PTR [eax+8]
  00021	3b c1		 cmp	 eax, ecx
  00023	74 12		 je	 SHORT $LN3@GS_DGAnsCa

; 5659 : 	{
; 5660 : 		LogAddC(2, "[CastleSiege] PACKET-ERROR [0x80][0x18] GS_DGAnsCastleTributeMoney() - lpMsg->wMapSvrNum != g_MapServerManager.GetMapSvrGroup()");

  00025	68 00 00 00 00	 push	 OFFSET ??_C@_0IA@HBPHMAAG@?$FLCastleSiege?$FN?5PACKET?9ERROR?5?$FL0x80@
  0002a	6a 02		 push	 2
  0002c	ff 15 00 00 00
	00		 call	 DWORD PTR ?LogAddC@@3P6AXEPADZZA ; LogAddC
  00032	83 c4 08	 add	 esp, 8
$LN1@GS_DGAnsCa:

; 5667 : 	
; 5668 : }

  00035	5d		 pop	 ebp
  00036	c3		 ret	 0
$LN3@GS_DGAnsCa:

; 5661 : 		return;
; 5662 : 	}
; 5663 : 	
; 5664 : 	LogAddTD("[CastleSiege] [0x80][0x18] GS_DGAnsCastleTributeMoney() - Money Tribute OK (%d)",

  00037	ff 35 14 00 00
	00		 push	 DWORD PTR ?g_CastleSiegeSync@@3VCCastleSiegeSync@@A+20
  0003d	68 00 00 00 00	 push	 OFFSET ??_C@_0FA@NDMPNFNO@?$FLCastleSiege?$FN?5?$FL0x80?$FN?$FL0x18?$FN?5GS_DG@
  00042	ff 15 00 00 00
	00		 call	 DWORD PTR ?LogAddTD@@3P6AXPADZZA ; LogAddTD
  00048	83 c4 08	 add	 esp, 8

; 5665 : 		g_CastleSiegeSync.GetTributeMoney());
; 5666 : 	g_CastleSiegeSync.ResetTributeMoney();

  0004b	b9 00 00 00 00	 mov	 ecx, OFFSET ?g_CastleSiegeSync@@3VCCastleSiegeSync@@A ; g_CastleSiegeSync

; 5667 : 	
; 5668 : }

  00050	5d		 pop	 ebp

; 5665 : 		g_CastleSiegeSync.GetTributeMoney());
; 5666 : 	g_CastleSiegeSync.ResetTributeMoney();

  00051	e9 00 00 00 00	 jmp	 ?ResetTributeMoney@CCastleSiegeSync@@QAEXXZ ; CCastleSiegeSync::ResetTributeMoney
?GS_DGAnsCastleTributeMoney@@YAXPAE@Z ENDP		; GS_DGAnsCastleTributeMoney
_TEXT	ENDS
; Function compile flags: /Ogtp
; File c:\users\michel\desktop\source\gameserver\source\dsprotocol.cpp
; File c:\users\michel\desktop\source\gameserver\source\mapservermanager.h
; File c:\users\michel\desktop\source\gameserver\source\dsprotocol.cpp
; File c:\users\michel\desktop\source\gameserver\source\castlesiegesync.h
; File c:\users\michel\desktop\source\gameserver\source\dsprotocol.cpp
;	COMDAT ?GS_DGAnsCastleStateSync@@YAXPAE@Z
_TEXT	SEGMENT
_lpRecv$ = 8						; size = 4
?GS_DGAnsCastleStateSync@@YAXPAE@Z PROC			; GS_DGAnsCastleStateSync, COMDAT

; 5613 : {

  00000	55		 push	 ebp
  00001	8b ec		 mov	 ebp, esp

; 5614 : 	CSP_ANS_CASTLESTATESYNC * lpMsg = (CSP_ANS_CASTLESTATESYNC *)lpRecv;
; 5615 : 
; 5616 : 	if ( lpMsg == NULL )

  00003	8b 4d 08	 mov	 ecx, DWORD PTR _lpRecv$[ebp]
  00006	85 c9		 test	 ecx, ecx
  00008	74 48		 je	 SHORT $LN1@GS_DGAnsCa
; File c:\users\michel\desktop\source\gameserver\source\mapservermanager.h

; 55   : 		if ( this->m_lpThisMapSvrData != NULL )

  0000a	a1 f8 6a 01 00	 mov	 eax, DWORD PTR ?g_MapServerManager@@3VCMapServerManager@@A+92920
  0000f	85 c0		 test	 eax, eax
  00011	74 06		 je	 SHORT $LN6@GS_DGAnsCa

; 56   : 		{
; 57   : 			return m_lpThisMapSvrData->m_btMAPSVR_GROUP;

  00013	0f b6 50 08	 movzx	 edx, BYTE PTR [eax+8]
  00017	eb 03		 jmp	 SHORT $LN5@GS_DGAnsCa
$LN6@GS_DGAnsCa:

; 58   : 		}
; 59   : 		return -1;

  00019	83 ca ff	 or	 edx, -1
$LN5@GS_DGAnsCa:
; File c:\users\michel\desktop\source\gameserver\source\dsprotocol.cpp

; 5621 : 	if ( lpMsg->wMapSvrNum != g_MapServerManager.GetMapSvrGroup() )

  0001c	0f b7 41 04	 movzx	 eax, WORD PTR [ecx+4]
  00020	3b c2		 cmp	 eax, edx
  00022	75 2e		 jne	 SHORT $LN1@GS_DGAnsCa
; File c:\users\michel\desktop\source\gameserver\source\castlesiegesync.h

; 30   : 	void SetCastleState(int iCastleState){this->m_iCurCastleState = iCastleState;};	// line : 56

  00024	8b 41 08	 mov	 eax, DWORD PTR [ecx+8]
  00027	a3 04 00 00 00	 mov	 DWORD PTR ?g_CastleSiegeSync@@3VCCastleSiegeSync@@A+4, eax

; 31   : 	void SetTaxRateChaos(int iTaxRate){this->m_iCurTaxRateChaos = iTaxRate;};	// line : 59

  0002c	8b 41 0c	 mov	 eax, DWORD PTR [ecx+12]
  0002f	a3 08 00 00 00	 mov	 DWORD PTR ?g_CastleSiegeSync@@3VCCastleSiegeSync@@A+8, eax

; 32   : 	void SetTaxRateStore(int iTaxRate){this->m_iCurTaxRateStore = iTaxRate;};	// line : 62

  00034	8b 41 10	 mov	 eax, DWORD PTR [ecx+16]
  00037	a3 0c 00 00 00	 mov	 DWORD PTR ?g_CastleSiegeSync@@3VCCastleSiegeSync@@A+12, eax

; 33   : 	void SetTaxHuntZone(int iTaxRate){this->m_iCurTaxHuntZone = iTaxRate;};	// line : 65

  0003c	8b 41 14	 mov	 eax, DWORD PTR [ecx+20]
  0003f	a3 10 00 00 00	 mov	 DWORD PTR ?g_CastleSiegeSync@@3VCCastleSiegeSync@@A+16, eax
; File c:\users\michel\desktop\source\gameserver\source\dsprotocol.cpp

; 5630 : 	g_CastleSiegeSync.SetCastleOwnerGuild(lpMsg->szOwnerGuildName);

  00044	8d 41 18	 lea	 eax, DWORD PTR [ecx+24]
  00047	50		 push	 eax
  00048	b9 00 00 00 00	 mov	 ecx, OFFSET ?g_CastleSiegeSync@@3VCCastleSiegeSync@@A ; g_CastleSiegeSync
  0004d	e8 00 00 00 00	 call	 ?SetCastleOwnerGuild@CCastleSiegeSync@@QAEXPAD@Z ; CCastleSiegeSync::SetCastleOwnerGuild
$LN1@GS_DGAnsCa:

; 5631 : }

  00052	5d		 pop	 ebp
  00053	c3		 ret	 0
?GS_DGAnsCastleStateSync@@YAXPAE@Z ENDP			; GS_DGAnsCastleStateSync
_TEXT	ENDS
; Function compile flags: /Ogtp
; File c:\users\michel\desktop\source\gameserver\source\dsprotocol.cpp
; File c:\users\michel\desktop\source\gameserver\source\mapservermanager.h
; File c:\users\michel\desktop\source\gameserver\source\dsprotocol.cpp
;	COMDAT ?GS_DGAnsNpcRemove@@YAXPAE@Z
_TEXT	SEGMENT
_lpRecv$ = 8						; size = 4
?GS_DGAnsNpcRemove@@YAXPAE@Z PROC			; GS_DGAnsNpcRemove, COMDAT

; 5577 : {

  00000	55		 push	 ebp
  00001	8b ec		 mov	 ebp, esp

; 5578 : #if (GS_CASTLE == 1)
; 5579 : 	CSP_ANS_NPCREMOVE * lpMsg = (CSP_ANS_NPCREMOVE*)lpRecv;
; 5580 : 
; 5581 : 	if(lpMsg == NULL)

  00003	8b 45 08	 mov	 eax, DWORD PTR _lpRecv$[ebp]
  00006	85 c0		 test	 eax, eax
  00008	74 2b		 je	 SHORT $LN3@GS_DGAnsNp
; File c:\users\michel\desktop\source\gameserver\source\mapservermanager.h

; 55   : 		if ( this->m_lpThisMapSvrData != NULL )

  0000a	8b 0d f8 6a 01
	00		 mov	 ecx, DWORD PTR ?g_MapServerManager@@3VCMapServerManager@@A+92920
  00010	85 c9		 test	 ecx, ecx
  00012	74 06		 je	 SHORT $LN6@GS_DGAnsNp

; 56   : 		{
; 57   : 			return m_lpThisMapSvrData->m_btMAPSVR_GROUP;

  00014	0f b6 49 08	 movzx	 ecx, BYTE PTR [ecx+8]
  00018	eb 03		 jmp	 SHORT $LN5@GS_DGAnsNp
$LN6@GS_DGAnsNp:

; 58   : 		}
; 59   : 		return -1;

  0001a	83 c9 ff	 or	 ecx, -1
$LN5@GS_DGAnsNp:
; File c:\users\michel\desktop\source\gameserver\source\dsprotocol.cpp

; 5584 : 	if(lpMsg->wMapSvrNum != g_MapServerManager.GetMapSvrGroup())

  0001d	0f b7 40 08	 movzx	 eax, WORD PTR [eax+8]
  00021	3b c1		 cmp	 eax, ecx
  00023	74 10		 je	 SHORT $LN3@GS_DGAnsNp

; 5585 : 	{
; 5586 : 		LogAddC(2,"[CastleSiege] PACKET-ERROR [0x80][0x10] GS_DGAnsRegGuildMark() - lpMsg->wMapSvrNum != g_MapServerManager.GetMapSvrGroup()");

  00025	68 00 00 00 00	 push	 OFFSET ??_C@_0HK@NECBCB@?$FLCastleSiege?$FN?5PACKET?9ERROR?5?$FL0x80@
  0002a	6a 02		 push	 2
  0002c	ff 15 00 00 00
	00		 call	 DWORD PTR ?LogAddC@@3P6AXEPADZZA ; LogAddC
  00032	83 c4 08	 add	 esp, 8
$LN3@GS_DGAnsNp:

; 5587 : 	}
; 5588 : #endif
; 5589 : }

  00035	5d		 pop	 ebp
  00036	c3		 ret	 0
?GS_DGAnsNpcRemove@@YAXPAE@Z ENDP			; GS_DGAnsNpcRemove
_TEXT	ENDS
; Function compile flags: /Ogtp
; File c:\users\michel\desktop\source\gameserver\source\dsprotocol.cpp
; File c:\users\michel\desktop\source\gameserver\source\mapservermanager.h
; File c:\users\michel\desktop\source\gameserver\source\dsprotocol.cpp
;	COMDAT ?GS_DGAnsGuildSetGiveUp@@YAXPAE@Z
_TEXT	SEGMENT
_lpRecv$ = 8						; size = 4
?GS_DGAnsGuildSetGiveUp@@YAXPAE@Z PROC			; GS_DGAnsGuildSetGiveUp, COMDAT

; 5549 : {

  00000	55		 push	 ebp
  00001	8b ec		 mov	 ebp, esp

; 5550 : #if (GS_CASTLE == 1)
; 5551 : 	CSP_ANS_GUILDSETGIVEUP * lpMsg = (CSP_ANS_GUILDSETGIVEUP*)lpRecv;
; 5552 : 
; 5553 : 	if(lpMsg == NULL)

  00003	8b 4d 08	 mov	 ecx, DWORD PTR _lpRecv$[ebp]
  00006	85 c9		 test	 ecx, ecx
  00008	74 4c		 je	 SHORT $LN1@GS_DGAnsGu
; File c:\users\michel\desktop\source\gameserver\source\mapservermanager.h

; 55   : 		if ( this->m_lpThisMapSvrData != NULL )

  0000a	a1 f8 6a 01 00	 mov	 eax, DWORD PTR ?g_MapServerManager@@3VCMapServerManager@@A+92920
  0000f	85 c0		 test	 eax, eax
  00011	74 06		 je	 SHORT $LN6@GS_DGAnsGu

; 56   : 		{
; 57   : 			return m_lpThisMapSvrData->m_btMAPSVR_GROUP;

  00013	0f b6 50 08	 movzx	 edx, BYTE PTR [eax+8]
  00017	eb 03		 jmp	 SHORT $LN5@GS_DGAnsGu
$LN6@GS_DGAnsGu:

; 58   : 		}
; 59   : 		return -1;

  00019	83 ca ff	 or	 edx, -1
$LN5@GS_DGAnsGu:
; File c:\users\michel\desktop\source\gameserver\source\dsprotocol.cpp

; 5556 : 	if(lpMsg->wMapSvrNum != g_MapServerManager.GetMapSvrGroup())

  0001c	0f b7 41 08	 movzx	 eax, WORD PTR [ecx+8]
  00020	3b c2		 cmp	 eax, edx
  00022	74 12		 je	 SHORT $LN3@GS_DGAnsGu

; 5557 : 	{
; 5558 : 		LogAddC(2,"[CastleSiege] PACKET-ERROR [0x80][0x12] GS_DGAnsGuildSetGiveUp() - lpMsg->wMapSvrNum != g_MapServerManager.GetMapSvrGroup()");

  00024	68 00 00 00 00	 push	 OFFSET ??_C@_0HM@JNNIOIKL@?$FLCastleSiege?$FN?5PACKET?9ERROR?5?$FL0x80@
  00029	6a 02		 push	 2
  0002b	ff 15 00 00 00
	00		 call	 DWORD PTR ?LogAddC@@3P6AXEPADZZA ; LogAddC
  00031	83 c4 08	 add	 esp, 8

; 5563 : #endif
; 5564 : }

  00034	5d		 pop	 ebp
  00035	c3		 ret	 0
$LN3@GS_DGAnsGu:

; 5559 : 		return;
; 5560 : 	}
; 5561 : 
; 5562 : 	GCAnsGiveUpCastleSiege(lpMsg->iIndex,lpMsg->iResult,lpMsg->bIsGiveUp,lpMsg->iRegMarkCount,lpMsg->szGuildName);

  00036	83 79 18 00	 cmp	 DWORD PTR [ecx+24], 0
  0003a	8d 41 10	 lea	 eax, DWORD PTR [ecx+16]
  0003d	50		 push	 eax
  0003e	ff 71 1c	 push	 DWORD PTR [ecx+28]
  00041	0f 95 c0	 setne	 al
  00044	0f b6 c0	 movzx	 eax, al
  00047	50		 push	 eax
  00048	ff 71 04	 push	 DWORD PTR [ecx+4]
  0004b	ff 71 0c	 push	 DWORD PTR [ecx+12]
  0004e	e8 00 00 00 00	 call	 ?GCAnsGiveUpCastleSiege@@YAXHH_NHPAD@Z ; GCAnsGiveUpCastleSiege
  00053	83 c4 14	 add	 esp, 20			; 00000014H
$LN1@GS_DGAnsGu:

; 5563 : #endif
; 5564 : }

  00056	5d		 pop	 ebp
  00057	c3		 ret	 0
?GS_DGAnsGuildSetGiveUp@@YAXPAE@Z ENDP			; GS_DGAnsGuildSetGiveUp
_TEXT	ENDS
; Function compile flags: /Ogtp
; File c:\users\michel\desktop\source\gameserver\source\dsprotocol.cpp
; File c:\users\michel\desktop\source\gameserver\source\mapservermanager.h
; File c:\users\michel\desktop\source\gameserver\source\dsprotocol.cpp
;	COMDAT ?GS_DGAnsGuildMarkReset@@YAXPAE@Z
_TEXT	SEGMENT
_lpRecv$ = 8						; size = 4
?GS_DGAnsGuildMarkReset@@YAXPAE@Z PROC			; GS_DGAnsGuildMarkReset, COMDAT

; 5522 : {

  00000	55		 push	 ebp
  00001	8b ec		 mov	 ebp, esp

; 5523 : #if (GS_CASTLE == 1)
; 5524 : 	CSP_ANS_GUILDRESETMARK * lpMsg = (CSP_ANS_GUILDRESETMARK*)lpRecv;
; 5525 : 
; 5526 : 	if(lpMsg == NULL)

  00003	8b 45 08	 mov	 eax, DWORD PTR _lpRecv$[ebp]
  00006	85 c0		 test	 eax, eax
  00008	74 2b		 je	 SHORT $LN3@GS_DGAnsGu
; File c:\users\michel\desktop\source\gameserver\source\mapservermanager.h

; 55   : 		if ( this->m_lpThisMapSvrData != NULL )

  0000a	8b 0d f8 6a 01
	00		 mov	 ecx, DWORD PTR ?g_MapServerManager@@3VCMapServerManager@@A+92920
  00010	85 c9		 test	 ecx, ecx
  00012	74 06		 je	 SHORT $LN6@GS_DGAnsGu

; 56   : 		{
; 57   : 			return m_lpThisMapSvrData->m_btMAPSVR_GROUP;

  00014	0f b6 49 08	 movzx	 ecx, BYTE PTR [ecx+8]
  00018	eb 03		 jmp	 SHORT $LN5@GS_DGAnsGu
$LN6@GS_DGAnsGu:

; 58   : 		}
; 59   : 		return -1;

  0001a	83 c9 ff	 or	 ecx, -1
$LN5@GS_DGAnsGu:
; File c:\users\michel\desktop\source\gameserver\source\dsprotocol.cpp

; 5529 : 	if(lpMsg->wMapSvrNum != g_MapServerManager.GetMapSvrGroup())

  0001d	0f b7 40 08	 movzx	 eax, WORD PTR [eax+8]
  00021	3b c1		 cmp	 eax, ecx
  00023	74 10		 je	 SHORT $LN3@GS_DGAnsGu

; 5530 : 	{
; 5531 : 		LogAddC(2,"[CastleSiege] PACKET-ERROR [0x80][0x10] GS_DGAnsRegGuildMark() - lpMsg->wMapSvrNum != g_MapServerManager.GetMapSvrGroup()");

  00025	68 00 00 00 00	 push	 OFFSET ??_C@_0HK@NECBCB@?$FLCastleSiege?$FN?5PACKET?9ERROR?5?$FL0x80@
  0002a	6a 02		 push	 2
  0002c	ff 15 00 00 00
	00		 call	 DWORD PTR ?LogAddC@@3P6AXEPADZZA ; LogAddC
  00032	83 c4 08	 add	 esp, 8
$LN3@GS_DGAnsGu:

; 5532 : 	}
; 5533 : #endif
; 5534 : }

  00035	5d		 pop	 ebp
  00036	c3		 ret	 0
?GS_DGAnsGuildMarkReset@@YAXPAE@Z ENDP			; GS_DGAnsGuildMarkReset
_TEXT	ENDS
; Function compile flags: /Ogtp
; File c:\users\michel\desktop\source\gameserver\source\dsprotocol.cpp
; File c:\users\michel\desktop\source\gameserver\source\mapservermanager.h
; File c:\users\michel\desktop\source\gameserver\source\dsprotocol.cpp
;	COMDAT ?GS_DGAnsRegGuildMark@@YAXPAE@Z
_TEXT	SEGMENT
_lpRecv$ = 8						; size = 4
?GS_DGAnsRegGuildMark@@YAXPAE@Z PROC			; GS_DGAnsRegGuildMark, COMDAT

; 5494 : {

  00000	55		 push	 ebp
  00001	8b ec		 mov	 ebp, esp

; 5495 : #if (GS_CASTLE == 1)
; 5496 : 	CSP_ANS_GUILDREGMARK * lpMsg = (CSP_ANS_GUILDREGMARK*)lpRecv;
; 5497 : 
; 5498 : 	if(lpMsg == NULL)

  00003	8b 4d 08	 mov	 ecx, DWORD PTR _lpRecv$[ebp]
  00006	85 c9		 test	 ecx, ecx
  00008	74 3b		 je	 SHORT $LN1@GS_DGAnsRe
; File c:\users\michel\desktop\source\gameserver\source\mapservermanager.h

; 55   : 		if ( this->m_lpThisMapSvrData != NULL )

  0000a	a1 f8 6a 01 00	 mov	 eax, DWORD PTR ?g_MapServerManager@@3VCMapServerManager@@A+92920
  0000f	85 c0		 test	 eax, eax
  00011	74 06		 je	 SHORT $LN6@GS_DGAnsRe

; 56   : 		{
; 57   : 			return m_lpThisMapSvrData->m_btMAPSVR_GROUP;

  00013	0f b6 50 08	 movzx	 edx, BYTE PTR [eax+8]
  00017	eb 03		 jmp	 SHORT $LN5@GS_DGAnsRe
$LN6@GS_DGAnsRe:

; 58   : 		}
; 59   : 		return -1;

  00019	83 ca ff	 or	 edx, -1
$LN5@GS_DGAnsRe:
; File c:\users\michel\desktop\source\gameserver\source\dsprotocol.cpp

; 5501 : 	if(lpMsg->wMapSvrNum != g_MapServerManager.GetMapSvrGroup())

  0001c	0f b7 41 08	 movzx	 eax, WORD PTR [ecx+8]
  00020	3b c2		 cmp	 eax, edx
  00022	74 12		 je	 SHORT $LN3@GS_DGAnsRe

; 5502 : 	{
; 5503 : 		LogAddC(2,"[CastleSiege] PACKET-ERROR [0x80][0x10] GS_DGAnsRegGuildMark() - lpMsg->wMapSvrNum != g_MapServerManager.GetMapSvrGroup()");

  00024	68 00 00 00 00	 push	 OFFSET ??_C@_0HK@NECBCB@?$FLCastleSiege?$FN?5PACKET?9ERROR?5?$FL0x80@
  00029	6a 02		 push	 2
  0002b	ff 15 00 00 00
	00		 call	 DWORD PTR ?LogAddC@@3P6AXEPADZZA ; LogAddC
  00031	83 c4 08	 add	 esp, 8

; 5508 : #endif
; 5509 : }

  00034	5d		 pop	 ebp
  00035	c3		 ret	 0
$LN3@GS_DGAnsRe:

; 5504 : 		return;
; 5505 : 	}
; 5506 : 
; 5507 : 	GCAnsRegGuildMark(lpMsg->iIndex,lpMsg->iResult,lpMsg);

  00036	51		 push	 ecx
  00037	ff 71 04	 push	 DWORD PTR [ecx+4]
  0003a	ff 71 0c	 push	 DWORD PTR [ecx+12]
  0003d	e8 00 00 00 00	 call	 ?GCAnsRegGuildMark@@YAXHHPAUCSP_ANS_GUILDREGMARK@@@Z ; GCAnsRegGuildMark
  00042	83 c4 0c	 add	 esp, 12			; 0000000cH
$LN1@GS_DGAnsRe:

; 5508 : #endif
; 5509 : }

  00045	5d		 pop	 ebp
  00046	c3		 ret	 0
?GS_DGAnsRegGuildMark@@YAXPAE@Z ENDP			; GS_DGAnsRegGuildMark
_TEXT	ENDS
; Function compile flags: /Ogtp
; File c:\users\michel\desktop\source\gameserver\source\dsprotocol.cpp
; File c:\users\michel\desktop\source\gameserver\source\mapservermanager.h
; File c:\users\michel\desktop\source\gameserver\source\dsprotocol.cpp
;	COMDAT ?GS_DGAnsMapSvrMsgMultiCast@@YAXPAE@Z
_TEXT	SEGMENT
_pNotice$1 = -420					; size = 272
_szNotice$ = -148					; size = 144
__$ArrayPad$ = -4					; size = 4
_lpRecv$ = 8						; size = 4
?GS_DGAnsMapSvrMsgMultiCast@@YAXPAE@Z PROC		; GS_DGAnsMapSvrMsgMultiCast, COMDAT

; 5465 : {

  00000	55		 push	 ebp
  00001	8b ec		 mov	 ebp, esp
  00003	81 ec a4 01 00
	00		 sub	 esp, 420		; 000001a4H
  00009	a1 00 00 00 00	 mov	 eax, DWORD PTR ___security_cookie
  0000e	33 c5		 xor	 eax, ebp
  00010	89 45 fc	 mov	 DWORD PTR __$ArrayPad$[ebp], eax
  00013	56		 push	 esi
  00014	8b 75 08	 mov	 esi, DWORD PTR _lpRecv$[ebp]

; 5466 : 	CSP_ANS_MAPSVRMULTICAST * lpMsg = (CSP_ANS_MAPSVRMULTICAST *)lpRecv;
; 5467 : 
; 5468 : 	if ( lpMsg == NULL )

  00017	85 f6		 test	 esi, esi
  00019	0f 84 bc 00 00
	00		 je	 $LN4@GS_DGAnsMa
; File c:\users\michel\desktop\source\gameserver\source\mapservermanager.h

; 55   : 		if ( this->m_lpThisMapSvrData != NULL )

  0001f	a1 f8 6a 01 00	 mov	 eax, DWORD PTR ?g_MapServerManager@@3VCMapServerManager@@A+92920
  00024	85 c0		 test	 eax, eax
  00026	74 06		 je	 SHORT $LN7@GS_DGAnsMa

; 56   : 		{
; 57   : 			return m_lpThisMapSvrData->m_btMAPSVR_GROUP;

  00028	0f b6 48 08	 movzx	 ecx, BYTE PTR [eax+8]
  0002c	eb 03		 jmp	 SHORT $LN6@GS_DGAnsMa
$LN7@GS_DGAnsMa:

; 58   : 		}
; 59   : 		return -1;

  0002e	83 c9 ff	 or	 ecx, -1
$LN6@GS_DGAnsMa:
; File c:\users\michel\desktop\source\gameserver\source\dsprotocol.cpp

; 5473 : 	if ( lpMsg->wMapSvrNum != g_MapServerManager.GetMapSvrGroup() )

  00031	0f b7 46 04	 movzx	 eax, WORD PTR [esi+4]
  00035	3b c1		 cmp	 eax, ecx
  00037	74 1f		 je	 SHORT $LN3@GS_DGAnsMa

; 5474 : 	{
; 5475 : 		LogAddC(2, "[CastleSiege] PACKET-ERROR [0x80][0x0F] GS_DGAnsMapSvrMsgMultiCast() - lpMsg->wMapSvrNum != g_MapServerManager.GetMapSvrGroup()");

  00039	68 00 00 00 00	 push	 OFFSET ??_C@_0IA@LNMFDGBP@?$FLCastleSiege?$FN?5PACKET?9ERROR?5?$FL0x80@
  0003e	6a 02		 push	 2
  00040	ff 15 00 00 00
	00		 call	 DWORD PTR ?LogAddC@@3P6AXEPADZZA ; LogAddC
  00046	83 c4 08	 add	 esp, 8
  00049	5e		 pop	 esi

; 5489 : 	}
; 5490 : 
; 5491 : }

  0004a	8b 4d fc	 mov	 ecx, DWORD PTR __$ArrayPad$[ebp]
  0004d	33 cd		 xor	 ecx, ebp
  0004f	e8 00 00 00 00	 call	 @__security_check_cookie@4
  00054	8b e5		 mov	 esp, ebp
  00056	5d		 pop	 ebp
  00057	c3		 ret	 0
$LN3@GS_DGAnsMa:
  00058	57		 push	 edi

; 5476 : 		return;
; 5477 : 	}
; 5478 : 
; 5479 : 	char szNotice[144] = {0};

  00059	68 8f 00 00 00	 push	 143			; 0000008fH
  0005e	8d 85 6d ff ff
	ff		 lea	 eax, DWORD PTR _szNotice$[ebp+1]
  00064	6a 00		 push	 0
  00066	50		 push	 eax
  00067	e8 00 00 00 00	 call	 _memset
  0006c	83 c4 0c	 add	 esp, 12			; 0000000cH

; 5480 : 	memcpy(szNotice, lpMsg->szMsgText, 128);

  0006f	8d bd 6c ff ff
	ff		 lea	 edi, DWORD PTR _szNotice$[ebp]
  00075	83 c6 06	 add	 esi, 6
  00078	b9 20 00 00 00	 mov	 ecx, 32			; 00000020H
  0007d	f3 a5		 rep movsd

; 5481 : 
; 5482 : 	if ( strlen(szNotice) > 1 )

  0007f	8d 8d 6c ff ff
	ff		 lea	 ecx, DWORD PTR _szNotice$[ebp]
  00085	8d 51 01	 lea	 edx, DWORD PTR [ecx+1]
  00088	5f		 pop	 edi
  00089	0f 1f 80 00 00
	00 00		 npad	 7
$LL11@GS_DGAnsMa:
  00090	8a 01		 mov	 al, BYTE PTR [ecx]
  00092	41		 inc	 ecx
  00093	84 c0		 test	 al, al
  00095	75 f9		 jne	 SHORT $LL11@GS_DGAnsMa
  00097	2b ca		 sub	 ecx, edx
  00099	83 f9 01	 cmp	 ecx, 1
  0009c	76 3d		 jbe	 SHORT $LN4@GS_DGAnsMa

; 5483 : 	{
; 5484 : 		PMSG_NOTICE pNotice;
; 5485 : 
; 5486 : 		TNotice::MakeNoticeMsg((TNotice *)&pNotice, 0, szNotice);

  0009e	8d 85 6c ff ff
	ff		 lea	 eax, DWORD PTR _szNotice$[ebp]
  000a4	50		 push	 eax
  000a5	8d 85 5c fe ff
	ff		 lea	 eax, DWORD PTR _pNotice$1[ebp]
  000ab	6a 00		 push	 0
  000ad	50		 push	 eax
  000ae	e8 00 00 00 00	 call	 ?MakeNoticeMsg@TNotice@@SAXPAXEPAD@Z ; TNotice::MakeNoticeMsg

; 5487 : 		TNotice::SetNoticeProperty((TNotice *)&pNotice, 0, _ARGB(255, 255, 200, 80), 1, 0, 20);

  000b3	6a 14		 push	 20			; 00000014H
  000b5	6a 00		 push	 0
  000b7	6a 01		 push	 1
  000b9	68 ff c8 50 ff	 push	 -11482881		; ff50c8ffH
  000be	8d 85 5c fe ff
	ff		 lea	 eax, DWORD PTR _pNotice$1[ebp]
  000c4	6a 00		 push	 0
  000c6	50		 push	 eax
  000c7	e8 00 00 00 00	 call	 ?SetNoticeProperty@TNotice@@SAXPAXEKEGE@Z ; TNotice::SetNoticeProperty

; 5488 : 		TNotice::SendNoticeToAllUser((TNotice *)&pNotice);

  000cc	8d 85 5c fe ff
	ff		 lea	 eax, DWORD PTR _pNotice$1[ebp]
  000d2	50		 push	 eax
  000d3	e8 00 00 00 00	 call	 ?SendNoticeToAllUser@TNotice@@SAXPAX@Z ; TNotice::SendNoticeToAllUser
  000d8	83 c4 28	 add	 esp, 40			; 00000028H
$LN4@GS_DGAnsMa:

; 5489 : 	}
; 5490 : 
; 5491 : }

  000db	8b 4d fc	 mov	 ecx, DWORD PTR __$ArrayPad$[ebp]
  000de	33 cd		 xor	 ecx, ebp
  000e0	5e		 pop	 esi
  000e1	e8 00 00 00 00	 call	 @__security_check_cookie@4
  000e6	8b e5		 mov	 esp, ebp
  000e8	5d		 pop	 ebp
  000e9	c3		 ret	 0
?GS_DGAnsMapSvrMsgMultiCast@@YAXPAE@Z ENDP		; GS_DGAnsMapSvrMsgMultiCast
_TEXT	ENDS
; Function compile flags: /Ogtp
; File c:\users\michel\desktop\source\gameserver\source\dsprotocol.cpp
; File c:\users\michel\desktop\source\gameserver\source\mapservermanager.h
; File c:\users\michel\desktop\source\gameserver\source\dsprotocol.cpp
;	COMDAT ?GS_DGAnsRestartCastleState@@YAXPAE@Z
_TEXT	SEGMENT
_lpRecv$ = 8						; size = 4
?GS_DGAnsRestartCastleState@@YAXPAE@Z PROC		; GS_DGAnsRestartCastleState, COMDAT

; 5430 : {

  00000	55		 push	 ebp
  00001	8b ec		 mov	 ebp, esp

; 5431 : #if (GS_CASTLE == 1)
; 5432 : 	CSP_ANS_REGATTACKGUILD * lpMsg = (CSP_ANS_REGATTACKGUILD*)lpRecv;
; 5433 : 
; 5434 : 	if(lpMsg == NULL)

  00003	8b 45 08	 mov	 eax, DWORD PTR _lpRecv$[ebp]
  00006	85 c0		 test	 eax, eax
  00008	74 2b		 je	 SHORT $LN1@GS_DGAnsRe
; File c:\users\michel\desktop\source\gameserver\source\mapservermanager.h

; 55   : 		if ( this->m_lpThisMapSvrData != NULL )

  0000a	8b 0d f8 6a 01
	00		 mov	 ecx, DWORD PTR ?g_MapServerManager@@3VCMapServerManager@@A+92920
  00010	85 c9		 test	 ecx, ecx
  00012	74 06		 je	 SHORT $LN6@GS_DGAnsRe

; 56   : 		{
; 57   : 			return m_lpThisMapSvrData->m_btMAPSVR_GROUP;

  00014	0f b6 49 08	 movzx	 ecx, BYTE PTR [ecx+8]
  00018	eb 03		 jmp	 SHORT $LN5@GS_DGAnsRe
$LN6@GS_DGAnsRe:

; 58   : 		}
; 59   : 		return -1;

  0001a	83 c9 ff	 or	 ecx, -1
$LN5@GS_DGAnsRe:
; File c:\users\michel\desktop\source\gameserver\source\dsprotocol.cpp

; 5437 : 	if(lpMsg->wMapSvrNum != g_MapServerManager.GetMapSvrGroup())

  0001d	0f b7 40 08	 movzx	 eax, WORD PTR [eax+8]
  00021	3b c1		 cmp	 eax, ecx
  00023	74 12		 je	 SHORT $LN3@GS_DGAnsRe

; 5438 : 	{
; 5439 : 		LogAddC(2,"[CastleSiege] PACKET-ERROR [0x80][0x0E] GS_DGAnsRestartCastleState() - lpMsg->wMapSvrNum != g_MapServerManager.GetMapSvrGroup()");

  00025	68 00 00 00 00	 push	 OFFSET ??_C@_0IA@JGOKJONB@?$FLCastleSiege?$FN?5PACKET?9ERROR?5?$FL0x80@
  0002a	6a 02		 push	 2
  0002c	ff 15 00 00 00
	00		 call	 DWORD PTR ?LogAddC@@3P6AXEPADZZA ; LogAddC
  00032	83 c4 08	 add	 esp, 8
$LN1@GS_DGAnsRe:

; 5444 : #endif
; 5445 : }

  00035	5d		 pop	 ebp
  00036	c3		 ret	 0
$LN3@GS_DGAnsRe:

; 5440 : 		return;
; 5441 : 	}
; 5442 : 
; 5443 : 	g_CastleSiege.ResetCastleCycle();

  00037	b9 00 00 00 00	 mov	 ecx, OFFSET ?g_CastleSiege@@3VCCastleSiege@@A ; g_CastleSiege

; 5444 : #endif
; 5445 : }

  0003c	5d		 pop	 ebp

; 5440 : 		return;
; 5441 : 	}
; 5442 : 
; 5443 : 	g_CastleSiege.ResetCastleCycle();

  0003d	e9 00 00 00 00	 jmp	 ?ResetCastleCycle@CCastleSiege@@QAEXXZ ; CCastleSiege::ResetCastleCycle
?GS_DGAnsRestartCastleState@@YAXPAE@Z ENDP		; GS_DGAnsRestartCastleState
_TEXT	ENDS
; Function compile flags: /Ogtp
; File c:\users\michel\desktop\source\gameserver\source\dsprotocol.cpp
; File c:\users\michel\desktop\source\gameserver\source\mapservermanager.h
; File c:\users\michel\desktop\source\gameserver\source\dsprotocol.cpp
;	COMDAT ?GS_DGAnsRegAttackGuild@@YAXPAE@Z
_TEXT	SEGMENT
_lpRecv$ = 8						; size = 4
?GS_DGAnsRegAttackGuild@@YAXPAE@Z PROC			; GS_DGAnsRegAttackGuild, COMDAT

; 5405 : {

  00000	55		 push	 ebp
  00001	8b ec		 mov	 ebp, esp

; 5406 : #if (GS_CASTLE == 1)
; 5407 : 	CSP_ANS_REGATTACKGUILD * lpMsg = (CSP_ANS_REGATTACKGUILD*)lpRecv;
; 5408 : 
; 5409 : 	if(lpMsg == NULL)

  00003	8b 4d 08	 mov	 ecx, DWORD PTR _lpRecv$[ebp]
  00006	85 c9		 test	 ecx, ecx
  00008	74 3e		 je	 SHORT $LN1@GS_DGAnsRe
; File c:\users\michel\desktop\source\gameserver\source\mapservermanager.h

; 55   : 		if ( this->m_lpThisMapSvrData != NULL )

  0000a	a1 f8 6a 01 00	 mov	 eax, DWORD PTR ?g_MapServerManager@@3VCMapServerManager@@A+92920
  0000f	85 c0		 test	 eax, eax
  00011	74 06		 je	 SHORT $LN6@GS_DGAnsRe

; 56   : 		{
; 57   : 			return m_lpThisMapSvrData->m_btMAPSVR_GROUP;

  00013	0f b6 50 08	 movzx	 edx, BYTE PTR [eax+8]
  00017	eb 03		 jmp	 SHORT $LN5@GS_DGAnsRe
$LN6@GS_DGAnsRe:

; 58   : 		}
; 59   : 		return -1;

  00019	83 ca ff	 or	 edx, -1
$LN5@GS_DGAnsRe:
; File c:\users\michel\desktop\source\gameserver\source\dsprotocol.cpp

; 5412 : 	if(lpMsg->wMapSvrNum != g_MapServerManager.GetMapSvrGroup())

  0001c	0f b7 41 08	 movzx	 eax, WORD PTR [ecx+8]
  00020	3b c2		 cmp	 eax, edx
  00022	74 12		 je	 SHORT $LN3@GS_DGAnsRe

; 5413 : 	{
; 5414 : 		LogAddC(2,"[CastleSiege] PACKET-ERROR [0x80][0x0D] GS_DGAnsRegAttackGuild() - lpMsg->wMapSvrNum != g_MapServerManager.GetMapSvrGroup()");

  00024	68 00 00 00 00	 push	 OFFSET ??_C@_0HM@ENOOGPCP@?$FLCastleSiege?$FN?5PACKET?9ERROR?5?$FL0x80@
  00029	6a 02		 push	 2
  0002b	ff 15 00 00 00
	00		 call	 DWORD PTR ?LogAddC@@3P6AXEPADZZA ; LogAddC
  00031	83 c4 08	 add	 esp, 8

; 5419 : #endif
; 5420 : }

  00034	5d		 pop	 ebp
  00035	c3		 ret	 0
$LN3@GS_DGAnsRe:

; 5415 : 		return;
; 5416 : 	}
; 5417 : 
; 5418 : 	GCAnsRegCastleSiege(lpMsg->iIndex,lpMsg->iResult,lpMsg->szEnemyGuildName);

  00036	8d 41 10	 lea	 eax, DWORD PTR [ecx+16]
  00039	50		 push	 eax
  0003a	ff 71 04	 push	 DWORD PTR [ecx+4]
  0003d	ff 71 0c	 push	 DWORD PTR [ecx+12]
  00040	e8 00 00 00 00	 call	 ?GCAnsRegCastleSiege@@YAXHHPAD@Z ; GCAnsRegCastleSiege
  00045	83 c4 0c	 add	 esp, 12			; 0000000cH
$LN1@GS_DGAnsRe:

; 5419 : #endif
; 5420 : }

  00048	5d		 pop	 ebp
  00049	c3		 ret	 0
?GS_DGAnsRegAttackGuild@@YAXPAE@Z ENDP			; GS_DGAnsRegAttackGuild
_TEXT	ENDS
; Function compile flags: /Ogtp
; File c:\users\michel\desktop\source\gameserver\source\dsprotocol.cpp
; File c:\users\michel\desktop\source\gameserver\source\mapservermanager.h
; File c:\users\michel\desktop\source\gameserver\source\dsprotocol.cpp
;	COMDAT ?GS_DGAnsCastleOwnerChange@@YAXPAE@Z
_TEXT	SEGMENT
_lpRecv$ = 8						; size = 4
?GS_DGAnsCastleOwnerChange@@YAXPAE@Z PROC		; GS_DGAnsCastleOwnerChange, COMDAT

; 5381 : {

  00000	55		 push	 ebp
  00001	8b ec		 mov	 ebp, esp

; 5382 : #if (GS_CASTLE == 1)
; 5383 : 	CSP_ANS_CASTLEOWNERCHANGE * lpMsg = (CSP_ANS_CASTLEOWNERCHANGE*)lpRecv;
; 5384 : 
; 5385 : 	if(lpMsg == NULL)

  00003	8b 45 08	 mov	 eax, DWORD PTR _lpRecv$[ebp]
  00006	85 c0		 test	 eax, eax
  00008	74 2b		 je	 SHORT $LN3@GS_DGAnsCa
; File c:\users\michel\desktop\source\gameserver\source\mapservermanager.h

; 55   : 		if ( this->m_lpThisMapSvrData != NULL )

  0000a	8b 0d f8 6a 01
	00		 mov	 ecx, DWORD PTR ?g_MapServerManager@@3VCMapServerManager@@A+92920
  00010	85 c9		 test	 ecx, ecx
  00012	74 06		 je	 SHORT $LN6@GS_DGAnsCa

; 56   : 		{
; 57   : 			return m_lpThisMapSvrData->m_btMAPSVR_GROUP;

  00014	0f b6 49 08	 movzx	 ecx, BYTE PTR [ecx+8]
  00018	eb 03		 jmp	 SHORT $LN5@GS_DGAnsCa
$LN6@GS_DGAnsCa:

; 58   : 		}
; 59   : 		return -1;

  0001a	83 c9 ff	 or	 ecx, -1
$LN5@GS_DGAnsCa:
; File c:\users\michel\desktop\source\gameserver\source\dsprotocol.cpp

; 5388 : 	if(lpMsg->wMapSvrNum != g_MapServerManager.GetMapSvrGroup())

  0001d	0f b7 40 08	 movzx	 eax, WORD PTR [eax+8]
  00021	3b c1		 cmp	 eax, ecx
  00023	74 10		 je	 SHORT $LN3@GS_DGAnsCa

; 5389 : 	{
; 5390 : 		LogAddC(2,"[CastleSiege] PACKET-ERROR [0x80][0x0C] GS_DGAnsCastleOwnerChange() - lpMsg->wMapSvrNum != g_MapServerManager.GetMapSvrGroup()");

  00025	68 00 00 00 00	 push	 OFFSET ??_C@_0HP@ODLOINGN@?$FLCastleSiege?$FN?5PACKET?9ERROR?5?$FL0x80@
  0002a	6a 02		 push	 2
  0002c	ff 15 00 00 00
	00		 call	 DWORD PTR ?LogAddC@@3P6AXEPADZZA ; LogAddC
  00032	83 c4 08	 add	 esp, 8
$LN3@GS_DGAnsCa:

; 5391 : 	}
; 5392 : #endif
; 5393 : }

  00035	5d		 pop	 ebp
  00036	c3		 ret	 0
?GS_DGAnsCastleOwnerChange@@YAXPAE@Z ENDP		; GS_DGAnsCastleOwnerChange
_TEXT	ENDS
; Function compile flags: /Ogtp
; File c:\users\michel\desktop\source\gameserver\source\dsprotocol.cpp
; File c:\users\michel\desktop\source\gameserver\source\mapservermanager.h
; File c:\users\michel\desktop\source\gameserver\source\dsprotocol.cpp
;	COMDAT ?GS_DGAnsSiegeEndedChange@@YAXPAE@Z
_TEXT	SEGMENT
_lpRecv$ = 8						; size = 4
?GS_DGAnsSiegeEndedChange@@YAXPAE@Z PROC		; GS_DGAnsSiegeEndedChange, COMDAT

; 5357 : {

  00000	55		 push	 ebp
  00001	8b ec		 mov	 ebp, esp

; 5358 : #if (GS_CASTLE == 1)
; 5359 : 	CSP_ANS_SIEGEENDCHANGE * lpMsg = (CSP_ANS_SIEGEENDCHANGE*)lpRecv;
; 5360 : 
; 5361 : 	if(lpMsg == NULL)

  00003	8b 45 08	 mov	 eax, DWORD PTR _lpRecv$[ebp]
  00006	85 c0		 test	 eax, eax
  00008	74 2b		 je	 SHORT $LN3@GS_DGAnsSi
; File c:\users\michel\desktop\source\gameserver\source\mapservermanager.h

; 55   : 		if ( this->m_lpThisMapSvrData != NULL )

  0000a	8b 0d f8 6a 01
	00		 mov	 ecx, DWORD PTR ?g_MapServerManager@@3VCMapServerManager@@A+92920
  00010	85 c9		 test	 ecx, ecx
  00012	74 06		 je	 SHORT $LN6@GS_DGAnsSi

; 56   : 		{
; 57   : 			return m_lpThisMapSvrData->m_btMAPSVR_GROUP;

  00014	0f b6 49 08	 movzx	 ecx, BYTE PTR [ecx+8]
  00018	eb 03		 jmp	 SHORT $LN5@GS_DGAnsSi
$LN6@GS_DGAnsSi:

; 58   : 		}
; 59   : 		return -1;

  0001a	83 c9 ff	 or	 ecx, -1
$LN5@GS_DGAnsSi:
; File c:\users\michel\desktop\source\gameserver\source\dsprotocol.cpp

; 5364 : 	if(lpMsg->wMapSvrNum != g_MapServerManager.GetMapSvrGroup())

  0001d	0f b7 40 08	 movzx	 eax, WORD PTR [eax+8]
  00021	3b c1		 cmp	 eax, ecx
  00023	74 10		 je	 SHORT $LN3@GS_DGAnsSi

; 5365 : 	{
; 5366 : 		LogAddC(2,"[CastleSiege] PACKET-ERROR [0x80][0x0B] GS_DGAnsSiegeEndedChange() - lpMsg->wMapSvrNum != g_MapServerManager.GetMapSvrGroup()");

  00025	68 00 00 00 00	 push	 OFFSET ??_C@_0HO@EGJJDJOF@?$FLCastleSiege?$FN?5PACKET?9ERROR?5?$FL0x80@
  0002a	6a 02		 push	 2
  0002c	ff 15 00 00 00
	00		 call	 DWORD PTR ?LogAddC@@3P6AXEPADZZA ; LogAddC
  00032	83 c4 08	 add	 esp, 8
$LN3@GS_DGAnsSi:

; 5367 : 	}
; 5368 : #endif
; 5369 : }

  00035	5d		 pop	 ebp
  00036	c3		 ret	 0
?GS_DGAnsSiegeEndedChange@@YAXPAE@Z ENDP		; GS_DGAnsSiegeEndedChange
_TEXT	ENDS
; Function compile flags: /Ogtp
; File c:\users\michel\desktop\source\gameserver\source\dsprotocol.cpp
; File c:\users\michel\desktop\source\gameserver\source\mapservermanager.h
; File c:\users\michel\desktop\source\gameserver\source\dsprotocol.cpp
;	COMDAT ?GS_DGAnsGuildMarkRegInfo@@YAXPAE@Z
_TEXT	SEGMENT
_lpRecv$ = 8						; size = 4
?GS_DGAnsGuildMarkRegInfo@@YAXPAE@Z PROC		; GS_DGAnsGuildMarkRegInfo, COMDAT

; 5330 : {

  00000	55		 push	 ebp
  00001	8b ec		 mov	 ebp, esp

; 5331 : #if (GS_CASTLE == 1)
; 5332 : 
; 5333 : 	CSP_ANS_GUILDREGINFO * lpMsg = (CSP_ANS_GUILDREGINFO*)lpRecv;
; 5334 : 
; 5335 : 	if(lpMsg == NULL)

  00003	8b 4d 08	 mov	 ecx, DWORD PTR _lpRecv$[ebp]
  00006	85 c9		 test	 ecx, ecx
  00008	74 3b		 je	 SHORT $LN1@GS_DGAnsGu
; File c:\users\michel\desktop\source\gameserver\source\mapservermanager.h

; 55   : 		if ( this->m_lpThisMapSvrData != NULL )

  0000a	a1 f8 6a 01 00	 mov	 eax, DWORD PTR ?g_MapServerManager@@3VCMapServerManager@@A+92920
  0000f	85 c0		 test	 eax, eax
  00011	74 06		 je	 SHORT $LN6@GS_DGAnsGu

; 56   : 		{
; 57   : 			return m_lpThisMapSvrData->m_btMAPSVR_GROUP;

  00013	0f b6 50 08	 movzx	 edx, BYTE PTR [eax+8]
  00017	eb 03		 jmp	 SHORT $LN5@GS_DGAnsGu
$LN6@GS_DGAnsGu:

; 58   : 		}
; 59   : 		return -1;

  00019	83 ca ff	 or	 edx, -1
$LN5@GS_DGAnsGu:
; File c:\users\michel\desktop\source\gameserver\source\dsprotocol.cpp

; 5338 : 	if(lpMsg->wMapSvrNum != g_MapServerManager.GetMapSvrGroup())

  0001c	0f b7 41 08	 movzx	 eax, WORD PTR [ecx+8]
  00020	3b c2		 cmp	 eax, edx
  00022	74 12		 je	 SHORT $LN3@GS_DGAnsGu

; 5339 : 	{
; 5340 : 		LogAddC(2,"[CastleSiege] PACKET-ERROR [0x80][0x0A] GS_DGAnsGuildMarkRegInfo() - lpMsg->wMapSvrNum != g_MapServerManager.GetMapSvrGroup()");

  00024	68 00 00 00 00	 push	 OFFSET ??_C@_0HO@JKCCCDJI@?$FLCastleSiege?$FN?5PACKET?9ERROR?5?$FL0x80@
  00029	6a 02		 push	 2
  0002b	ff 15 00 00 00
	00		 call	 DWORD PTR ?LogAddC@@3P6AXEPADZZA ; LogAddC
  00031	83 c4 08	 add	 esp, 8

; 5345 : #endif
; 5346 : }

  00034	5d		 pop	 ebp
  00035	c3		 ret	 0
$LN3@GS_DGAnsGu:

; 5341 : 		return;
; 5342 : 	}
; 5343 : 
; 5344 : 	GCAnsGuildRegInfo(lpMsg->iIndex,lpMsg->iResult,lpMsg);

  00036	51		 push	 ecx
  00037	ff 71 04	 push	 DWORD PTR [ecx+4]
  0003a	ff 71 0c	 push	 DWORD PTR [ecx+12]
  0003d	e8 00 00 00 00	 call	 ?GCAnsGuildRegInfo@@YAXHHPAUCSP_ANS_GUILDREGINFO@@@Z ; GCAnsGuildRegInfo
  00042	83 c4 0c	 add	 esp, 12			; 0000000cH
$LN1@GS_DGAnsGu:

; 5345 : #endif
; 5346 : }

  00045	5d		 pop	 ebp
  00046	c3		 ret	 0
?GS_DGAnsGuildMarkRegInfo@@YAXPAE@Z ENDP		; GS_DGAnsGuildMarkRegInfo
_TEXT	ENDS
; Function compile flags: /Ogtp
; File c:\users\michel\desktop\source\gameserver\source\dsprotocol.cpp
; File c:\users\michel\desktop\source\gameserver\source\mapservermanager.h
; File c:\users\michel\desktop\source\gameserver\source\dsprotocol.cpp
;	COMDAT ?GS_DGAnsSiegeDateChange@@YAXPAE@Z
_TEXT	SEGMENT
_lpRecv$ = 8						; size = 4
?GS_DGAnsSiegeDateChange@@YAXPAE@Z PROC			; GS_DGAnsSiegeDateChange, COMDAT

; 5315 : {

  00000	55		 push	 ebp
  00001	8b ec		 mov	 ebp, esp

; 5316 : #if (GS_CASTLE == 1)
; 5317 : 	CSP_ANS_SDEDCHANGE * lpMsg = (CSP_ANS_SDEDCHANGE*)lpRecv;
; 5318 : 
; 5319 : 	if(lpMsg == NULL)

  00003	8b 45 08	 mov	 eax, DWORD PTR _lpRecv$[ebp]
  00006	85 c0		 test	 eax, eax
  00008	74 2b		 je	 SHORT $LN3@GS_DGAnsSi
; File c:\users\michel\desktop\source\gameserver\source\mapservermanager.h

; 55   : 		if ( this->m_lpThisMapSvrData != NULL )

  0000a	8b 0d f8 6a 01
	00		 mov	 ecx, DWORD PTR ?g_MapServerManager@@3VCMapServerManager@@A+92920
  00010	85 c9		 test	 ecx, ecx
  00012	74 06		 je	 SHORT $LN6@GS_DGAnsSi

; 56   : 		{
; 57   : 			return m_lpThisMapSvrData->m_btMAPSVR_GROUP;

  00014	0f b6 49 08	 movzx	 ecx, BYTE PTR [ecx+8]
  00018	eb 03		 jmp	 SHORT $LN5@GS_DGAnsSi
$LN6@GS_DGAnsSi:

; 58   : 		}
; 59   : 		return -1;

  0001a	83 c9 ff	 or	 ecx, -1
$LN5@GS_DGAnsSi:
; File c:\users\michel\desktop\source\gameserver\source\dsprotocol.cpp

; 5322 : 	if(lpMsg->wMapSvrNum != g_MapServerManager.GetMapSvrGroup())

  0001d	0f b7 40 08	 movzx	 eax, WORD PTR [eax+8]
  00021	3b c1		 cmp	 eax, ecx
  00023	74 10		 je	 SHORT $LN3@GS_DGAnsSi

; 5323 : 	{
; 5324 : 		LogAddC(2,"[CastleSiege] PACKET-ERROR [0x80][0x09] GS_DGAnsSiegeDateChange() - lpMsg->wMapSvrNum != g_MapServerManager.GetMapSvrGroup()");

  00025	68 00 00 00 00	 push	 OFFSET ??_C@_0HN@KCDIDGDG@?$FLCastleSiege?$FN?5PACKET?9ERROR?5?$FL0x80@
  0002a	6a 02		 push	 2
  0002c	ff 15 00 00 00
	00		 call	 DWORD PTR ?LogAddC@@3P6AXEPADZZA ; LogAddC
  00032	83 c4 08	 add	 esp, 8
$LN3@GS_DGAnsSi:

; 5325 : 	}
; 5326 : #endif
; 5327 : }

  00035	5d		 pop	 ebp
  00036	c3		 ret	 0
?GS_DGAnsSiegeDateChange@@YAXPAE@Z ENDP			; GS_DGAnsSiegeDateChange
_TEXT	ENDS
; Function compile flags: /Ogtp
; File c:\users\michel\desktop\source\gameserver\source\dsprotocol.cpp
; File c:\users\michel\desktop\source\gameserver\source\mapservermanager.h
; File c:\users\michel\desktop\source\gameserver\source\dsprotocol.cpp
;	COMDAT ?GS_DGAnsCastleMoneyChange@@YAXPAE@Z
_TEXT	SEGMENT
_lpRecv$ = 8						; size = 4
?GS_DGAnsCastleMoneyChange@@YAXPAE@Z PROC		; GS_DGAnsCastleMoneyChange, COMDAT

; 5264 : {

  00000	55		 push	 ebp
  00001	8b ec		 mov	 ebp, esp
  00003	56		 push	 esi

; 5265 : #if (GS_CASTLE == 1)
; 5266 : 	CSP_ANS_MONEYCHANGE * lpMsg = (CSP_ANS_MONEYCHANGE*)lpRecv;
; 5267 : 
; 5268 : 	if(lpMsg == NULL)

  00004	8b 75 08	 mov	 esi, DWORD PTR _lpRecv$[ebp]
  00007	85 f6		 test	 esi, esi
  00009	0f 84 f9 00 00
	00		 je	 $LN1@GS_DGAnsCa
; File c:\users\michel\desktop\source\gameserver\source\mapservermanager.h

; 55   : 		if ( this->m_lpThisMapSvrData != NULL )

  0000f	a1 f8 6a 01 00	 mov	 eax, DWORD PTR ?g_MapServerManager@@3VCMapServerManager@@A+92920
  00014	85 c0		 test	 eax, eax
  00016	74 06		 je	 SHORT $LN9@GS_DGAnsCa

; 56   : 		{
; 57   : 			return m_lpThisMapSvrData->m_btMAPSVR_GROUP;

  00018	0f b6 48 08	 movzx	 ecx, BYTE PTR [eax+8]
  0001c	eb 03		 jmp	 SHORT $LN8@GS_DGAnsCa
$LN9@GS_DGAnsCa:

; 58   : 		}
; 59   : 		return -1;

  0001e	83 c9 ff	 or	 ecx, -1
$LN8@GS_DGAnsCa:
; File c:\users\michel\desktop\source\gameserver\source\dsprotocol.cpp

; 5271 : 	if(lpMsg->wMapSvrNum != g_MapServerManager.GetMapSvrGroup())

  00021	0f b7 46 08	 movzx	 eax, WORD PTR [esi+8]
  00025	3b c1		 cmp	 eax, ecx
  00027	74 13		 je	 SHORT $LN3@GS_DGAnsCa

; 5272 : 	{
; 5273 : 		LogAddC(2,"[CastleSiege] PACKET-ERROR [0x80][0x08] GS_DGAnsCastleMoneyChange() - lpMsg->wMapSvrNum != g_MapServerManager.GetMapSvrGroup()");

  00029	68 00 00 00 00	 push	 OFFSET ??_C@_0HP@IIFHPCOO@?$FLCastleSiege?$FN?5PACKET?9ERROR?5?$FL0x80@
  0002e	6a 02		 push	 2
  00030	ff 15 00 00 00
	00		 call	 DWORD PTR ?LogAddC@@3P6AXEPADZZA ; LogAddC
  00036	83 c4 08	 add	 esp, 8
  00039	5e		 pop	 esi

; 5297 : #endif
; 5298 : }

  0003a	5d		 pop	 ebp
  0003b	c3		 ret	 0
$LN3@GS_DGAnsCa:

; 5274 : 		return;
; 5275 : 	}
; 5276 : 
; 5277 : 	if(lpMsg->iResult == 1)

  0003c	83 7e 04 01	 cmp	 DWORD PTR [esi+4], 1
  00040	0f 85 ae 00 00
	00		 jne	 $LN4@GS_DGAnsCa

; 5278 : 	{
; 5279 : 		if(gObjIsConnected(lpMsg->iIndex) && lpMsg->iMoneyChanged < 0)

  00046	ff 76 0c	 push	 DWORD PTR [esi+12]
  00049	e8 00 00 00 00	 call	 ?gObjIsConnected@@YAHH@Z ; gObjIsConnected
  0004e	83 c4 04	 add	 esp, 4
  00051	85 c0		 test	 eax, eax
  00053	0f 84 8b 00 00
	00		 je	 $LN5@GS_DGAnsCa
  00059	8b 56 10	 mov	 edx, DWORD PTR [esi+16]
  0005c	85 d2		 test	 edx, edx
  0005e	0f 89 80 00 00
	00		 jns	 $LN5@GS_DGAnsCa

; 5280 : 		{
; 5281 : 			gObj[lpMsg->iIndex].Money -= lpMsg->iMoneyChanged;

  00064	69 4e 0c 40 27
	00 00		 imul	 ecx, DWORD PTR [esi+12], 10048
  0006b	a1 00 00 00 00	 mov	 eax, DWORD PTR ?gObj@@3PAUOBJECTSTRUCT@@A ; gObj
  00070	29 94 01 cc 00
	00 00		 sub	 DWORD PTR [ecx+eax+204], edx

; 5282 : 
; 5283 : 			if(gObj[lpMsg->iIndex].Money > 2000000000)

  00077	69 46 0c 40 27
	00 00		 imul	 eax, DWORD PTR [esi+12], 10048
  0007e	8b 15 00 00 00
	00		 mov	 edx, DWORD PTR ?gObj@@3PAUOBJECTSTRUCT@@A ; gObj
  00084	81 bc 10 cc 00
	00 00 00 94 35
	77		 cmp	 DWORD PTR [eax+edx+204], 2000000000 ; 77359400H
  0008f	7e 11		 jle	 SHORT $LN6@GS_DGAnsCa

; 5284 : 			{
; 5285 : 				gObj[lpMsg->iIndex].Money = 2000000000;

  00091	c7 84 10 cc 00
	00 00 00 94 35
	77		 mov	 DWORD PTR [eax+edx+204], 2000000000 ; 77359400H
  0009c	8b 15 00 00 00
	00		 mov	 edx, DWORD PTR ?gObj@@3PAUOBJECTSTRUCT@@A ; gObj
$LN6@GS_DGAnsCa:

; 5286 : 			}
; 5287 : 
; 5288 : 			GCMoneySend(lpMsg->iIndex,gObj[lpMsg->iIndex].Money);

  000a2	8b 4e 0c	 mov	 ecx, DWORD PTR [esi+12]
  000a5	69 c1 40 27 00
	00		 imul	 eax, ecx, 10048
  000ab	ff b4 10 cc 00
	00 00		 push	 DWORD PTR [eax+edx+204]
  000b2	51		 push	 ecx
  000b3	e8 00 00 00 00	 call	 ?GCMoneySend@@YAXHK@Z	; GCMoneySend

; 5289 : 			LogAddTD("[CastleSiege] [0x80][0x08] GS_DGAnsCastleMoneyChange() - Withdraw Request OK [%s][%s] (ReqMoney:%d, TotMoney:%I64d)",

  000b8	69 4e 0c 40 27
	00 00		 imul	 ecx, DWORD PTR [esi+12], 10048
  000bf	ff 76 1c	 push	 DWORD PTR [esi+28]
  000c2	ff 76 18	 push	 DWORD PTR [esi+24]
  000c5	03 0d 00 00 00
	00		 add	 ecx, DWORD PTR ?gObj@@3PAUOBJECTSTRUCT@@A ; gObj
  000cb	ff 76 10	 push	 DWORD PTR [esi+16]
  000ce	8d 41 5d	 lea	 eax, DWORD PTR [ecx+93]
  000d1	50		 push	 eax
  000d2	8d 41 52	 lea	 eax, DWORD PTR [ecx+82]
  000d5	50		 push	 eax
  000d6	68 00 00 00 00	 push	 OFFSET ??_C@_0HE@CADAABKE@?$FLCastleSiege?$FN?5?$FL0x80?$FN?$FL0x08?$FN?5GS_DG@
  000db	ff 15 00 00 00
	00		 call	 DWORD PTR ?LogAddTD@@3P6AXPADZZA ; LogAddTD
  000e1	83 c4 20	 add	 esp, 32			; 00000020H
$LN5@GS_DGAnsCa:

; 5290 : 			gObj[lpMsg->iIndex].AccountID,gObj[lpMsg->iIndex].Name,lpMsg->iMoneyChanged,lpMsg->i64CastleMoney);
; 5291 : 		}
; 5292 : 
; 5293 : 		g_CastleSiege.SetCastleMoney(lpMsg->i64CastleMoney);

  000e4	ff 76 1c	 push	 DWORD PTR [esi+28]
  000e7	b9 00 00 00 00	 mov	 ecx, OFFSET ?g_CastleSiege@@3VCCastleSiege@@A ; g_CastleSiege
  000ec	ff 76 18	 push	 DWORD PTR [esi+24]
  000ef	e8 00 00 00 00	 call	 ?SetCastleMoney@CCastleSiege@@QAEX_J@Z ; CCastleSiege::SetCastleMoney
$LN4@GS_DGAnsCa:

; 5294 : 	}
; 5295 : 
; 5296 : 	GCAnsMoneyDrawOut(lpMsg->iIndex,lpMsg->iResult,lpMsg->i64CastleMoney);

  000f4	ff 76 1c	 push	 DWORD PTR [esi+28]
  000f7	ff 76 18	 push	 DWORD PTR [esi+24]
  000fa	ff 76 04	 push	 DWORD PTR [esi+4]
  000fd	ff 76 0c	 push	 DWORD PTR [esi+12]
  00100	e8 00 00 00 00	 call	 ?GCAnsMoneyDrawOut@@YAXHH_J@Z ; GCAnsMoneyDrawOut
  00105	83 c4 10	 add	 esp, 16			; 00000010H
$LN1@GS_DGAnsCa:
  00108	5e		 pop	 esi

; 5297 : #endif
; 5298 : }

  00109	5d		 pop	 ebp
  0010a	c3		 ret	 0
?GS_DGAnsCastleMoneyChange@@YAXPAE@Z ENDP		; GS_DGAnsCastleMoneyChange
_TEXT	ENDS
; Function compile flags: /Ogtp
; File c:\users\michel\desktop\source\gameserver\source\dsprotocol.cpp
; File c:\users\michel\desktop\source\gameserver\source\mapservermanager.h
; File c:\users\michel\desktop\source\gameserver\source\dsprotocol.cpp
;	COMDAT ?GS_DGAnsTaxRateChange@@YAXPAE@Z
_TEXT	SEGMENT
_lpRecv$ = 8						; size = 4
?GS_DGAnsTaxRateChange@@YAXPAE@Z PROC			; GS_DGAnsTaxRateChange, COMDAT

; 5232 : {

  00000	55		 push	 ebp
  00001	8b ec		 mov	 ebp, esp
  00003	56		 push	 esi

; 5233 : #if (GS_CASTLE == 1)
; 5234 : 	CSP_ANS_TAXRATECHANGE * lpMsg = (CSP_ANS_TAXRATECHANGE*)lpRecv;
; 5235 : 
; 5236 : 	if(lpMsg == NULL)

  00004	8b 75 08	 mov	 esi, DWORD PTR _lpRecv$[ebp]
  00007	85 f6		 test	 esi, esi
  00009	74 59		 je	 SHORT $LN4@GS_DGAnsTa
; File c:\users\michel\desktop\source\gameserver\source\mapservermanager.h

; 55   : 		if ( this->m_lpThisMapSvrData != NULL )

  0000b	a1 f8 6a 01 00	 mov	 eax, DWORD PTR ?g_MapServerManager@@3VCMapServerManager@@A+92920
  00010	85 c0		 test	 eax, eax
  00012	74 06		 je	 SHORT $LN7@GS_DGAnsTa

; 56   : 		{
; 57   : 			return m_lpThisMapSvrData->m_btMAPSVR_GROUP;

  00014	0f b6 48 08	 movzx	 ecx, BYTE PTR [eax+8]
  00018	eb 03		 jmp	 SHORT $LN6@GS_DGAnsTa
$LN7@GS_DGAnsTa:

; 58   : 		}
; 59   : 		return -1;

  0001a	83 c9 ff	 or	 ecx, -1
$LN6@GS_DGAnsTa:
; File c:\users\michel\desktop\source\gameserver\source\dsprotocol.cpp

; 5239 : 	if(lpMsg->wMapSvrNum != g_MapServerManager.GetMapSvrGroup())

  0001d	0f b7 46 08	 movzx	 eax, WORD PTR [esi+8]
  00021	3b c1		 cmp	 eax, ecx
  00023	74 13		 je	 SHORT $LN3@GS_DGAnsTa

; 5240 : 	{
; 5241 : 		LogAddC(2,"[CastleSiege] PACKET-ERROR [0x80][0x07] GS_DGAnsTaxRateChange() - lpMsg->wMapSvrNum != g_MapServerManager.GetMapSvrGroup()");

  00025	68 00 00 00 00	 push	 OFFSET ??_C@_0HL@PMPBBPDM@?$FLCastleSiege?$FN?5PACKET?9ERROR?5?$FL0x80@
  0002a	6a 02		 push	 2
  0002c	ff 15 00 00 00
	00		 call	 DWORD PTR ?LogAddC@@3P6AXEPADZZA ; LogAddC
  00032	83 c4 08	 add	 esp, 8
  00035	5e		 pop	 esi

; 5249 : 	}
; 5250 : #endif
; 5251 : }

  00036	5d		 pop	 ebp
  00037	c3		 ret	 0
$LN3@GS_DGAnsTa:

; 5242 : 		return;
; 5243 : 	}
; 5244 : 
; 5245 : 	if(lpMsg->iResult == 1)

  00038	83 7e 04 01	 cmp	 DWORD PTR [esi+4], 1
  0003c	75 26		 jne	 SHORT $LN4@GS_DGAnsTa

; 5246 : 	{
; 5247 : 		g_CastleSiege.SetTaxRate(lpMsg->iTaxKind,lpMsg->iTaxRate);

  0003e	ff 76 14	 push	 DWORD PTR [esi+20]
  00041	b9 00 00 00 00	 mov	 ecx, OFFSET ?g_CastleSiege@@3VCCastleSiege@@A ; g_CastleSiege
  00046	ff 76 10	 push	 DWORD PTR [esi+16]
  00049	e8 00 00 00 00	 call	 ?SetTaxRate@CCastleSiege@@QAEXHH@Z ; CCastleSiege::SetTaxRate

; 5248 : 		GCAnsTaxRateChange(lpMsg->iIndex,lpMsg->iResult,lpMsg->iTaxKind,lpMsg->iTaxRate);

  0004e	ff 76 14	 push	 DWORD PTR [esi+20]
  00051	0f b6 46 10	 movzx	 eax, BYTE PTR [esi+16]
  00055	50		 push	 eax
  00056	ff 76 04	 push	 DWORD PTR [esi+4]
  00059	ff 76 0c	 push	 DWORD PTR [esi+12]
  0005c	e8 00 00 00 00	 call	 ?GCAnsTaxRateChange@@YAXHHEH@Z ; GCAnsTaxRateChange
  00061	83 c4 10	 add	 esp, 16			; 00000010H
$LN4@GS_DGAnsTa:
  00064	5e		 pop	 esi

; 5249 : 	}
; 5250 : #endif
; 5251 : }

  00065	5d		 pop	 ebp
  00066	c3		 ret	 0
?GS_DGAnsTaxRateChange@@YAXPAE@Z ENDP			; GS_DGAnsTaxRateChange
_TEXT	ENDS
; Function compile flags: /Ogtp
; File c:\users\michel\desktop\source\gameserver\source\dsprotocol.cpp
; File c:\users\michel\desktop\source\gameserver\source\mapservermanager.h
; File c:\users\michel\desktop\source\gameserver\source\dsprotocol.cpp
;	COMDAT ?GS_DGAnsTaxInfo@@YAXPAE@Z
_TEXT	SEGMENT
_lpRecv$ = 8						; size = 4
?GS_DGAnsTaxInfo@@YAXPAE@Z PROC				; GS_DGAnsTaxInfo, COMDAT

; 5200 : {

  00000	55		 push	 ebp
  00001	8b ec		 mov	 ebp, esp
  00003	56		 push	 esi

; 5201 : #if (GS_CASTLE == 1)
; 5202 : 	CSP_ANS_TAXINFO * lpMsg = (CSP_ANS_TAXINFO*)lpRecv;
; 5203 : 
; 5204 : 	if(lpMsg == NULL)

  00004	8b 75 08	 mov	 esi, DWORD PTR _lpRecv$[ebp]
  00007	85 f6		 test	 esi, esi
  00009	74 60		 je	 SHORT $LN4@GS_DGAnsTa
; File c:\users\michel\desktop\source\gameserver\source\mapservermanager.h

; 55   : 		if ( this->m_lpThisMapSvrData != NULL )

  0000b	a1 f8 6a 01 00	 mov	 eax, DWORD PTR ?g_MapServerManager@@3VCMapServerManager@@A+92920
  00010	85 c0		 test	 eax, eax
  00012	74 06		 je	 SHORT $LN7@GS_DGAnsTa

; 56   : 		{
; 57   : 			return m_lpThisMapSvrData->m_btMAPSVR_GROUP;

  00014	0f b6 48 08	 movzx	 ecx, BYTE PTR [eax+8]
  00018	eb 03		 jmp	 SHORT $LN6@GS_DGAnsTa
$LN7@GS_DGAnsTa:

; 58   : 		}
; 59   : 		return -1;

  0001a	83 c9 ff	 or	 ecx, -1
$LN6@GS_DGAnsTa:
; File c:\users\michel\desktop\source\gameserver\source\dsprotocol.cpp

; 5207 : 	if(lpMsg->wMapSvrNum != g_MapServerManager.GetMapSvrGroup())

  0001d	0f b7 46 08	 movzx	 eax, WORD PTR [esi+8]
  00021	3b c1		 cmp	 eax, ecx
  00023	74 13		 je	 SHORT $LN3@GS_DGAnsTa

; 5208 : 	{
; 5209 : 		LogAddC(2,"[CastleSiege] PACKET-ERROR [0x80][0x06] GS_DGAnsTaxInfo() - lpMsg->wMapSvrNum != g_MapServerManager.GetMapSvrGroup()");

  00025	68 00 00 00 00	 push	 OFFSET ??_C@_0HF@NIPKIGMO@?$FLCastleSiege?$FN?5PACKET?9ERROR?5?$FL0x80@
  0002a	6a 02		 push	 2
  0002c	ff 15 00 00 00
	00		 call	 DWORD PTR ?LogAddC@@3P6AXEPADZZA ; LogAddC
  00032	83 c4 08	 add	 esp, 8
  00035	5e		 pop	 esi

; 5217 : 	}
; 5218 : #endif
; 5219 : }

  00036	5d		 pop	 ebp
  00037	c3		 ret	 0
$LN3@GS_DGAnsTa:

; 5210 : 		return;
; 5211 : 	}
; 5212 : 
; 5213 : 	if(lpMsg->iResult == 1)

  00038	83 7e 04 01	 cmp	 DWORD PTR [esi+4], 1
  0003c	75 2d		 jne	 SHORT $LN4@GS_DGAnsTa

; 5214 : 	{
; 5215 : 		GCAnsTaxMoneyInfo(lpMsg->iIndex,lpMsg->iResult,lpMsg->iTaxRateChaos,lpMsg->iTaxRateStore,lpMsg->i64CastleMoney);

  0003e	ff 76 14	 push	 DWORD PTR [esi+20]
  00041	0f b6 46 1c	 movzx	 eax, BYTE PTR [esi+28]
  00045	ff 76 10	 push	 DWORD PTR [esi+16]
  00048	50		 push	 eax
  00049	0f b6 46 18	 movzx	 eax, BYTE PTR [esi+24]
  0004d	50		 push	 eax
  0004e	6a 01		 push	 1
  00050	ff 76 0c	 push	 DWORD PTR [esi+12]
  00053	e8 00 00 00 00	 call	 ?GCAnsTaxMoneyInfo@@YAXHHEE_J@Z ; GCAnsTaxMoneyInfo
  00058	83 c4 18	 add	 esp, 24			; 00000018H

; 5216 : 		g_CastleSiege.SetCastleMoney(lpMsg->i64CastleMoney);

  0005b	b9 00 00 00 00	 mov	 ecx, OFFSET ?g_CastleSiege@@3VCCastleSiege@@A ; g_CastleSiege
  00060	ff 76 14	 push	 DWORD PTR [esi+20]
  00063	ff 76 10	 push	 DWORD PTR [esi+16]
  00066	e8 00 00 00 00	 call	 ?SetCastleMoney@CCastleSiege@@QAEX_J@Z ; CCastleSiege::SetCastleMoney
$LN4@GS_DGAnsTa:
  0006b	5e		 pop	 esi

; 5217 : 	}
; 5218 : #endif
; 5219 : }

  0006c	5d		 pop	 ebp
  0006d	c3		 ret	 0
?GS_DGAnsTaxInfo@@YAXPAE@Z ENDP				; GS_DGAnsTaxInfo
_TEXT	ENDS
; Function compile flags: /Ogtp
; File c:\users\michel\desktop\source\gameserver\source\dsprotocol.cpp
; File c:\users\michel\desktop\source\gameserver\source\mapservermanager.h
; File c:\users\michel\desktop\source\gameserver\source\dsprotocol.cpp
;	COMDAT ?GS_DGAnsCastleNpcUpgrade@@YAXPAE@Z
_TEXT	SEGMENT
_lpRecv$ = 8						; size = 4
?GS_DGAnsCastleNpcUpgrade@@YAXPAE@Z PROC		; GS_DGAnsCastleNpcUpgrade, COMDAT

; 5158 : {

  00000	55		 push	 ebp
  00001	8b ec		 mov	 ebp, esp
  00003	56		 push	 esi

; 5159 : #if (GS_CASTLE == 1)
; 5160 : 	CSP_ANS_NPCUPGRADE * lpMsg = (CSP_ANS_NPCUPGRADE*)lpRecv;
; 5161 : 
; 5162 : 	if(lpMsg == NULL)

  00004	8b 75 08	 mov	 esi, DWORD PTR _lpRecv$[ebp]
  00007	85 f6		 test	 esi, esi
  00009	0f 84 a1 00 00
	00		 je	 $LN1@GS_DGAnsCa
; File c:\users\michel\desktop\source\gameserver\source\mapservermanager.h

; 55   : 		if ( this->m_lpThisMapSvrData != NULL )

  0000f	a1 f8 6a 01 00	 mov	 eax, DWORD PTR ?g_MapServerManager@@3VCMapServerManager@@A+92920
  00014	85 c0		 test	 eax, eax
  00016	74 06		 je	 SHORT $LN8@GS_DGAnsCa

; 56   : 		{
; 57   : 			return m_lpThisMapSvrData->m_btMAPSVR_GROUP;

  00018	0f b6 48 08	 movzx	 ecx, BYTE PTR [eax+8]
  0001c	eb 03		 jmp	 SHORT $LN7@GS_DGAnsCa
$LN8@GS_DGAnsCa:

; 58   : 		}
; 59   : 		return -1;

  0001e	83 c9 ff	 or	 ecx, -1
$LN7@GS_DGAnsCa:
; File c:\users\michel\desktop\source\gameserver\source\dsprotocol.cpp

; 5165 : 	if(lpMsg->wMapSvrNum != g_MapServerManager.GetMapSvrGroup())

  00021	0f b7 46 08	 movzx	 eax, WORD PTR [esi+8]
  00025	3b c1		 cmp	 eax, ecx
  00027	74 13		 je	 SHORT $LN3@GS_DGAnsCa

; 5166 : 	{
; 5167 : 		LogAddC(2,"[CastleSiege] PACKET-ERROR [0x80][0x05] GS_DGAnsCastleNpcUpgrade() - lpMsg->wMapSvrNum != g_MapServerManager.GetMapSvrGroup()");

  00029	68 00 00 00 00	 push	 OFFSET ??_C@_0HO@HLBFNNIO@?$FLCastleSiege?$FN?5PACKET?9ERROR?5?$FL0x80@
  0002e	6a 02		 push	 2
  00030	ff 15 00 00 00
	00		 call	 DWORD PTR ?LogAddC@@3P6AXEPADZZA ; LogAddC
  00036	83 c4 08	 add	 esp, 8
  00039	5e		 pop	 esi

; 5184 : #endif
; 5185 : }

  0003a	5d		 pop	 ebp
  0003b	c3		 ret	 0
$LN3@GS_DGAnsCa:

; 5168 : 		return;
; 5169 : 	}
; 5170 : 
; 5171 : 	if(lpMsg->iResult == FALSE)

  0003c	83 7e 04 00	 cmp	 DWORD PTR [esi+4], 0
  00040	75 1e		 jne	 SHORT $LN4@GS_DGAnsCa

; 5172 : 	{
; 5173 : 		LogAddC(2,"[CastleSiege] ERROR - Castle NPC Upgrade Fail() (CLS:%d, IDX:%d, UPTYPE:%d, UPVAL:%d)",

  00042	ff 76 1c	 push	 DWORD PTR [esi+28]
  00045	ff 76 18	 push	 DWORD PTR [esi+24]
  00048	ff 76 14	 push	 DWORD PTR [esi+20]
  0004b	ff 76 10	 push	 DWORD PTR [esi+16]
  0004e	68 00 00 00 00	 push	 OFFSET ??_C@_0FG@NIOIKHAG@?$FLCastleSiege?$FN?5ERROR?5?9?5Castle?5NPC@
  00053	6a 02		 push	 2
  00055	ff 15 00 00 00
	00		 call	 DWORD PTR ?LogAddC@@3P6AXEPADZZA ; LogAddC
  0005b	83 c4 18	 add	 esp, 24			; 00000018H

; 5174 : 			lpMsg->iNpcNumber,lpMsg->iNpcIndex,lpMsg->iNpcUpType,lpMsg->iNpcUpValue);
; 5175 : 	}
; 5176 : 	else

  0005e	eb 36		 jmp	 SHORT $LN5@GS_DGAnsCa
$LN4@GS_DGAnsCa:

; 5177 : 	{
; 5178 : 		g_CastleSiege.UpgradeDbNPC(lpMsg->iIndex,lpMsg->iNpcNumber,lpMsg->iNpcIndex,lpMsg->iNpcUpType,lpMsg->iNpcUpValue,lpMsg->iNpcUpIndex);

  00060	ff 76 20	 push	 DWORD PTR [esi+32]
  00063	b9 00 00 00 00	 mov	 ecx, OFFSET ?g_CastleSiege@@3VCCastleSiege@@A ; g_CastleSiege
  00068	ff 76 1c	 push	 DWORD PTR [esi+28]
  0006b	ff 76 18	 push	 DWORD PTR [esi+24]
  0006e	ff 76 14	 push	 DWORD PTR [esi+20]
  00071	ff 76 10	 push	 DWORD PTR [esi+16]
  00074	ff 76 0c	 push	 DWORD PTR [esi+12]
  00077	e8 00 00 00 00	 call	 ?UpgradeDbNPC@CCastleSiege@@QAEHHHHHHH@Z ; CCastleSiege::UpgradeDbNPC

; 5179 : 		LogAddTD("[CastleSiege] [0x80][0x06] GS_DGAnsTaxInfo() - Npc Upgrade OK (CLS:%d, IDX:%d, UPTYPE:%d, UPVAL:%d)",

  0007c	ff 76 1c	 push	 DWORD PTR [esi+28]
  0007f	ff 76 18	 push	 DWORD PTR [esi+24]
  00082	ff 76 14	 push	 DWORD PTR [esi+20]
  00085	ff 76 10	 push	 DWORD PTR [esi+16]
  00088	68 00 00 00 00	 push	 OFFSET ??_C@_0GE@HOFNMLEH@?$FLCastleSiege?$FN?5?$FL0x80?$FN?$FL0x06?$FN?5GS_DG@
  0008d	ff 15 00 00 00
	00		 call	 DWORD PTR ?LogAddTD@@3P6AXPADZZA ; LogAddTD
  00093	83 c4 14	 add	 esp, 20			; 00000014H
$LN5@GS_DGAnsCa:

; 5180 : 			lpMsg->iNpcNumber,lpMsg->iNpcIndex,lpMsg->iNpcUpType,lpMsg->iNpcUpValue);
; 5181 : 	}
; 5182 : 
; 5183 : 	GCAnsNpcUpgrade(lpMsg->iIndex,lpMsg->iResult,lpMsg->iNpcNumber,lpMsg->iNpcIndex,lpMsg->iNpcUpType,lpMsg->iNpcUpValue);

  00096	ff 76 1c	 push	 DWORD PTR [esi+28]
  00099	ff 76 18	 push	 DWORD PTR [esi+24]
  0009c	ff 76 14	 push	 DWORD PTR [esi+20]
  0009f	ff 76 10	 push	 DWORD PTR [esi+16]
  000a2	ff 76 04	 push	 DWORD PTR [esi+4]
  000a5	ff 76 0c	 push	 DWORD PTR [esi+12]
  000a8	e8 00 00 00 00	 call	 ?GCAnsNpcUpgrade@@YAXHHHHHH@Z ; GCAnsNpcUpgrade
  000ad	83 c4 18	 add	 esp, 24			; 00000018H
$LN1@GS_DGAnsCa:
  000b0	5e		 pop	 esi

; 5184 : #endif
; 5185 : }

  000b1	5d		 pop	 ebp
  000b2	c3		 ret	 0
?GS_DGAnsCastleNpcUpgrade@@YAXPAE@Z ENDP		; GS_DGAnsCastleNpcUpgrade
_TEXT	ENDS
; Function compile flags: /Ogtp
; File c:\users\michel\desktop\source\gameserver\source\dsprotocol.cpp
; File c:\users\michel\desktop\source\gameserver\source\mapservermanager.h
; File c:\users\michel\desktop\source\gameserver\source\dsprotocol.cpp
;	COMDAT ?GS_DGAnsCastleNpcRepair@@YAXPAE@Z
_TEXT	SEGMENT
_lpRecv$ = 8						; size = 4
?GS_DGAnsCastleNpcRepair@@YAXPAE@Z PROC			; GS_DGAnsCastleNpcRepair, COMDAT

; 5097 : {

  00000	55		 push	 ebp
  00001	8b ec		 mov	 ebp, esp
  00003	56		 push	 esi

; 5098 : #if (GS_CASTLE == 1)
; 5099 : 	CSP_ANS_NPCREPAIR * lpMsg = (CSP_ANS_NPCREPAIR*)lpRecv;
; 5100 : 
; 5101 : 	if(lpMsg == NULL)

  00004	8b 75 08	 mov	 esi, DWORD PTR _lpRecv$[ebp]
  00007	85 f6		 test	 esi, esi
  00009	0f 84 14 01 00
	00		 je	 $LN5@GS_DGAnsCa
; File c:\users\michel\desktop\source\gameserver\source\mapservermanager.h

; 55   : 		if ( this->m_lpThisMapSvrData != NULL )

  0000f	a1 f8 6a 01 00	 mov	 eax, DWORD PTR ?g_MapServerManager@@3VCMapServerManager@@A+92920
  00014	85 c0		 test	 eax, eax
  00016	74 06		 je	 SHORT $LN12@GS_DGAnsCa

; 56   : 		{
; 57   : 			return m_lpThisMapSvrData->m_btMAPSVR_GROUP;

  00018	0f b6 48 08	 movzx	 ecx, BYTE PTR [eax+8]
  0001c	eb 03		 jmp	 SHORT $LN11@GS_DGAnsCa
$LN12@GS_DGAnsCa:

; 58   : 		}
; 59   : 		return -1;

  0001e	83 c9 ff	 or	 ecx, -1
$LN11@GS_DGAnsCa:
; File c:\users\michel\desktop\source\gameserver\source\dsprotocol.cpp

; 5104 : 	if(lpMsg->wMapSvrNum != g_MapServerManager.GetMapSvrGroup())

  00021	0f b7 46 08	 movzx	 eax, WORD PTR [esi+8]
  00025	3b c1		 cmp	 eax, ecx
  00027	74 13		 je	 SHORT $LN3@GS_DGAnsCa

; 5105 : 	{
; 5106 : 		LogAddC(2,"[CastleSiege] PACKET-ERROR [0x80][0x04] GS_DGAnsCastleNpcRepair() - lpMsg->wMapSvrNum != g_MapServerManager.GetMapSvrGroup()");

  00029	68 00 00 00 00	 push	 OFFSET ??_C@_0HN@PMNAMEJH@?$FLCastleSiege?$FN?5PACKET?9ERROR?5?$FL0x80@
  0002e	6a 02		 push	 2
  00030	ff 15 00 00 00
	00		 call	 DWORD PTR ?LogAddC@@3P6AXEPADZZA ; LogAddC
  00036	83 c4 08	 add	 esp, 8
  00039	5e		 pop	 esi

; 5140 : 	}
; 5141 : #endif
; 5142 : }

  0003a	5d		 pop	 ebp
  0003b	c3		 ret	 0
$LN3@GS_DGAnsCa:

; 5107 : 		return;
; 5108 : 	}
; 5109 : 
; 5110 : 	if(lpMsg->iResult == 1)

  0003c	8b 46 04	 mov	 eax, DWORD PTR [esi+4]
  0003f	83 f8 01	 cmp	 eax, 1
  00042	0f 85 af 00 00
	00		 jne	 $LN4@GS_DGAnsCa

; 5111 : 	{
; 5112 : 		int bRETVAL = g_CastleSiege.RepairDbNPC(lpMsg->iNpcNumber,lpMsg->iNpcIndex,lpMsg->iNpcHp,lpMsg->iNpcMaxHp);

  00048	ff 76 18	 push	 DWORD PTR [esi+24]
  0004b	b9 00 00 00 00	 mov	 ecx, OFFSET ?g_CastleSiege@@3VCCastleSiege@@A ; g_CastleSiege
  00050	ff 76 1c	 push	 DWORD PTR [esi+28]
  00053	ff 76 14	 push	 DWORD PTR [esi+20]
  00056	ff 76 10	 push	 DWORD PTR [esi+16]
  00059	e8 00 00 00 00	 call	 ?RepairDbNPC@CCastleSiege@@QAEHHHHH@Z ; CCastleSiege::RepairDbNPC

; 5113 : 
; 5114 : 		if(bRETVAL == TRUE)

  0005e	83 f8 01	 cmp	 eax, 1
  00061	75 7d		 jne	 SHORT $LN6@GS_DGAnsCa

; 5115 : 		{
; 5116 : 			if(gObjIsConnected(lpMsg->iIndex))

  00063	ff 76 0c	 push	 DWORD PTR [esi+12]
  00066	e8 00 00 00 00	 call	 ?gObjIsConnected@@YAHH@Z ; gObjIsConnected
  0006b	83 c4 04	 add	 esp, 4
  0006e	85 c0		 test	 eax, eax
  00070	74 57		 je	 SHORT $LN8@GS_DGAnsCa

; 5117 : 			{
; 5118 : 				gObj[lpMsg->iIndex].Money -= lpMsg->iRepairCost;

  00072	69 4e 0c 40 27
	00 00		 imul	 ecx, DWORD PTR [esi+12], 10048
  00079	8b 46 20	 mov	 eax, DWORD PTR [esi+32]
  0007c	03 0d 00 00 00
	00		 add	 ecx, DWORD PTR ?gObj@@3PAUOBJECTSTRUCT@@A ; gObj
  00082	29 81 cc 00 00
	00		 sub	 DWORD PTR [ecx+204], eax

; 5119 : 
; 5120 : 				if(gObj[lpMsg->iIndex].Money < 0)

  00088	69 46 0c 40 27
	00 00		 imul	 eax, DWORD PTR [esi+12], 10048
  0008f	8b 15 00 00 00
	00		 mov	 edx, DWORD PTR ?gObj@@3PAUOBJECTSTRUCT@@A ; gObj
  00095	83 bc 10 cc 00
	00 00 00	 cmp	 DWORD PTR [eax+edx+204], 0
  0009d	7d 11		 jge	 SHORT $LN9@GS_DGAnsCa

; 5121 : 					gObj[lpMsg->iIndex].Money = 0;

  0009f	c7 84 10 cc 00
	00 00 00 00 00
	00		 mov	 DWORD PTR [eax+edx+204], 0
  000aa	8b 15 00 00 00
	00		 mov	 edx, DWORD PTR ?gObj@@3PAUOBJECTSTRUCT@@A ; gObj
$LN9@GS_DGAnsCa:

; 5122 : 
; 5123 : 				GCMoneySend(lpMsg->iIndex,gObj[lpMsg->iIndex].Money);

  000b0	8b 4e 0c	 mov	 ecx, DWORD PTR [esi+12]
  000b3	69 c1 40 27 00
	00		 imul	 eax, ecx, 10048
  000b9	ff b4 10 cc 00
	00 00		 push	 DWORD PTR [eax+edx+204]
  000c0	51		 push	 ecx
  000c1	e8 00 00 00 00	 call	 ?GCMoneySend@@YAXHK@Z	; GCMoneySend
  000c6	83 c4 08	 add	 esp, 8
$LN8@GS_DGAnsCa:

; 5124 : 			}
; 5125 : 
; 5126 : 			LogAddTD("[CastleSiege] GS_DGAnsCastleNpcRepair() - CCastleSiege::RepairDbNPC() OK - Npc:(CLS:%d, IDX:%d)",

  000c9	ff 76 14	 push	 DWORD PTR [esi+20]
  000cc	ff 76 10	 push	 DWORD PTR [esi+16]
  000cf	68 00 00 00 00	 push	 OFFSET ??_C@_0GA@JLLACOMH@?$FLCastleSiege?$FN?5GS_DGAnsCastleNpcR@
  000d4	ff 15 00 00 00
	00		 call	 DWORD PTR ?LogAddTD@@3P6AXPADZZA ; LogAddTD
  000da	83 c4 0c	 add	 esp, 12			; 0000000cH
  000dd	5e		 pop	 esi

; 5140 : 	}
; 5141 : #endif
; 5142 : }

  000de	5d		 pop	 ebp
  000df	c3		 ret	 0
$LN6@GS_DGAnsCa:

; 5127 : 				lpMsg->iNpcNumber,lpMsg->iNpcIndex);
; 5128 : 		}
; 5129 : 		else
; 5130 : 		{
; 5131 : 			LogAddTD("[CastleSiege] GS_DGAnsCastleNpcRepair() - CCastleSiege::RepairDbNPC() FAILED - Npc:(CLS:%d, IDX:%d)",

  000e0	ff 76 14	 push	 DWORD PTR [esi+20]
  000e3	ff 76 10	 push	 DWORD PTR [esi+16]
  000e6	68 00 00 00 00	 push	 OFFSET ??_C@_0GE@FAGFLPLN@?$FLCastleSiege?$FN?5GS_DGAnsCastleNpcR@
  000eb	ff 15 00 00 00
	00		 call	 DWORD PTR ?LogAddTD@@3P6AXPADZZA ; LogAddTD
  000f1	83 c4 0c	 add	 esp, 12			; 0000000cH
  000f4	5e		 pop	 esi

; 5140 : 	}
; 5141 : #endif
; 5142 : }

  000f5	5d		 pop	 ebp
  000f6	c3		 ret	 0
$LN4@GS_DGAnsCa:

; 5132 : 				lpMsg->iNpcNumber,lpMsg->iNpcIndex);
; 5133 : 		}
; 5134 : 	}
; 5135 : 	else
; 5136 : 	{
; 5137 : 		LogAddTD("[CastleSiege] GS_DGAnsCastleNpcRepair() FAILED - Result:(%d), Npc:(CLS:%d, IDX:%d)",

  000f7	ff 76 14	 push	 DWORD PTR [esi+20]
  000fa	ff 76 10	 push	 DWORD PTR [esi+16]
  000fd	50		 push	 eax
  000fe	68 00 00 00 00	 push	 OFFSET ??_C@_0FD@BEMJCHLC@?$FLCastleSiege?$FN?5GS_DGAnsCastleNpcR@
  00103	ff 15 00 00 00
	00		 call	 DWORD PTR ?LogAddTD@@3P6AXPADZZA ; LogAddTD

; 5138 : 			lpMsg->iResult,lpMsg->iNpcNumber,lpMsg->iNpcIndex);
; 5139 : 		GCAnsNpcRepair(lpMsg->iIndex,lpMsg->iResult,lpMsg->iNpcNumber,lpMsg->iNpcIndex,lpMsg->iNpcHp,lpMsg->iNpcMaxHp);

  00109	ff 76 18	 push	 DWORD PTR [esi+24]
  0010c	ff 76 1c	 push	 DWORD PTR [esi+28]
  0010f	ff 76 14	 push	 DWORD PTR [esi+20]
  00112	ff 76 10	 push	 DWORD PTR [esi+16]
  00115	ff 76 04	 push	 DWORD PTR [esi+4]
  00118	ff 76 0c	 push	 DWORD PTR [esi+12]
  0011b	e8 00 00 00 00	 call	 ?GCAnsNpcRepair@@YAXHHHHHH@Z ; GCAnsNpcRepair
  00120	83 c4 28	 add	 esp, 40			; 00000028H
$LN5@GS_DGAnsCa:
  00123	5e		 pop	 esi

; 5140 : 	}
; 5141 : #endif
; 5142 : }

  00124	5d		 pop	 ebp
  00125	c3		 ret	 0
?GS_DGAnsCastleNpcRepair@@YAXPAE@Z ENDP			; GS_DGAnsCastleNpcRepair
_TEXT	ENDS
; Function compile flags: /Ogtp
; File c:\users\michel\desktop\source\gameserver\source\dsprotocol.cpp
; File c:\users\michel\desktop\source\gameserver\source\mapservermanager.h
; File c:\users\michel\desktop\source\gameserver\source\dsprotocol.cpp
;	COMDAT ?GS_DGAnsCastleNpcBuy@@YAXPAE@Z
_TEXT	SEGMENT
_lpRecv$ = 8						; size = 4
?GS_DGAnsCastleNpcBuy@@YAXPAE@Z PROC			; GS_DGAnsCastleNpcBuy, COMDAT

; 5033 : {

  00000	55		 push	 ebp
  00001	8b ec		 mov	 ebp, esp
  00003	56		 push	 esi

; 5034 : #if (GS_CASTLE == 1)
; 5035 : 	CSP_ANS_NPCBUY * lpMsg = (CSP_ANS_NPCBUY *)lpRecv;
; 5036 : 
; 5037 : 	if(lpMsg == NULL)

  00004	8b 75 08	 mov	 esi, DWORD PTR _lpRecv$[ebp]
  00007	85 f6		 test	 esi, esi
  00009	0f 84 03 01 00
	00		 je	 $LN1@GS_DGAnsCa
; File c:\users\michel\desktop\source\gameserver\source\mapservermanager.h

; 55   : 		if ( this->m_lpThisMapSvrData != NULL )

  0000f	a1 f8 6a 01 00	 mov	 eax, DWORD PTR ?g_MapServerManager@@3VCMapServerManager@@A+92920
  00014	85 c0		 test	 eax, eax
  00016	74 06		 je	 SHORT $LN12@GS_DGAnsCa

; 56   : 		{
; 57   : 			return m_lpThisMapSvrData->m_btMAPSVR_GROUP;

  00018	0f b6 48 08	 movzx	 ecx, BYTE PTR [eax+8]
  0001c	eb 03		 jmp	 SHORT $LN11@GS_DGAnsCa
$LN12@GS_DGAnsCa:

; 58   : 		}
; 59   : 		return -1;

  0001e	83 c9 ff	 or	 ecx, -1
$LN11@GS_DGAnsCa:
; File c:\users\michel\desktop\source\gameserver\source\dsprotocol.cpp

; 5040 : 	if(lpMsg->wMapSvrNum != g_MapServerManager.GetMapSvrGroup())

  00021	0f b7 46 08	 movzx	 eax, WORD PTR [esi+8]
  00025	3b c1		 cmp	 eax, ecx
  00027	74 13		 je	 SHORT $LN3@GS_DGAnsCa

; 5041 : 	{
; 5042 : 		LogAddC(2,"[CastleSiege] PACKET-ERROR [0x80][0x03] GS_DGAnsCastleNpcBuy() - lpMsg->wMapSvrNum != g_MapServerManager.GetMapSvrGroup()");

  00029	68 00 00 00 00	 push	 OFFSET ??_C@_0HK@OKLAENCI@?$FLCastleSiege?$FN?5PACKET?9ERROR?5?$FL0x80@
  0002e	6a 02		 push	 2
  00030	ff 15 00 00 00
	00		 call	 DWORD PTR ?LogAddC@@3P6AXEPADZZA ; LogAddC
  00036	83 c4 08	 add	 esp, 8
  00039	5e		 pop	 esi

; 5080 : #endif
; 5081 : }

  0003a	5d		 pop	 ebp
  0003b	c3		 ret	 0
$LN3@GS_DGAnsCa:

; 5043 : 		return;
; 5044 : 	}
; 5045 : 
; 5046 : 	if(lpMsg->iResult == 1)
; 5047 : 	{
; 5048 : 		int bRETVAL = g_CastleSiege.AddDbNPC(lpMsg->iNpcNumber,lpMsg->iNpcIndex);

  0003c	ff 76 14	 push	 DWORD PTR [esi+20]
  0003f	8b 46 04	 mov	 eax, DWORD PTR [esi+4]
  00042	ff 76 10	 push	 DWORD PTR [esi+16]
  00045	83 f8 01	 cmp	 eax, 1
  00048	0f 85 a1 00 00
	00		 jne	 $LN4@GS_DGAnsCa
  0004e	b9 00 00 00 00	 mov	 ecx, OFFSET ?g_CastleSiege@@3VCCastleSiege@@A ; g_CastleSiege
  00053	e8 00 00 00 00	 call	 ?AddDbNPC@CCastleSiege@@QAEHHH@Z ; CCastleSiege::AddDbNPC

; 5049 : 
; 5050 : 		if(bRETVAL == TRUE)

  00058	83 f8 01	 cmp	 eax, 1
  0005b	75 7c		 jne	 SHORT $LN6@GS_DGAnsCa

; 5051 : 		{
; 5052 : 			if(gObjIsConnected(lpMsg->iIndex))

  0005d	ff 76 0c	 push	 DWORD PTR [esi+12]
  00060	e8 00 00 00 00	 call	 ?gObjIsConnected@@YAHH@Z ; gObjIsConnected
  00065	83 c4 04	 add	 esp, 4
  00068	85 c0		 test	 eax, eax
  0006a	74 57		 je	 SHORT $LN8@GS_DGAnsCa

; 5053 : 			{
; 5054 : 				gObj[lpMsg->iIndex].Money -= lpMsg->iBuyCost;

  0006c	69 4e 0c 40 27
	00 00		 imul	 ecx, DWORD PTR [esi+12], 10048
  00073	8b 46 18	 mov	 eax, DWORD PTR [esi+24]
  00076	03 0d 00 00 00
	00		 add	 ecx, DWORD PTR ?gObj@@3PAUOBJECTSTRUCT@@A ; gObj
  0007c	29 81 cc 00 00
	00		 sub	 DWORD PTR [ecx+204], eax

; 5055 : 
; 5056 : 				if(gObj[lpMsg->iIndex].Money < 0)

  00082	69 46 0c 40 27
	00 00		 imul	 eax, DWORD PTR [esi+12], 10048
  00089	8b 15 00 00 00
	00		 mov	 edx, DWORD PTR ?gObj@@3PAUOBJECTSTRUCT@@A ; gObj
  0008f	83 bc 10 cc 00
	00 00 00	 cmp	 DWORD PTR [eax+edx+204], 0
  00097	7d 11		 jge	 SHORT $LN9@GS_DGAnsCa

; 5057 : 				{
; 5058 : 					gObj[lpMsg->iIndex].Money = 0;

  00099	c7 84 10 cc 00
	00 00 00 00 00
	00		 mov	 DWORD PTR [eax+edx+204], 0
  000a4	8b 15 00 00 00
	00		 mov	 edx, DWORD PTR ?gObj@@3PAUOBJECTSTRUCT@@A ; gObj
$LN9@GS_DGAnsCa:

; 5059 : 				}
; 5060 : 
; 5061 : 				GCMoneySend(lpMsg->iIndex,gObj[lpMsg->iIndex].Money);

  000aa	8b 4e 0c	 mov	 ecx, DWORD PTR [esi+12]
  000ad	69 c1 40 27 00
	00		 imul	 eax, ecx, 10048
  000b3	ff b4 10 cc 00
	00 00		 push	 DWORD PTR [eax+edx+204]
  000ba	51		 push	 ecx
  000bb	e8 00 00 00 00	 call	 ?GCMoneySend@@YAXHK@Z	; GCMoneySend
  000c0	83 c4 08	 add	 esp, 8
$LN8@GS_DGAnsCa:

; 5062 : 			}
; 5063 : 
; 5064 : 			LogAddTD("[CastleSiege] GS_DGAnsCastleNpcBuy() - CCastleSiege::AddDbNPC() OK - Npc:(CLS:%d, IDX:%d)",

  000c3	ff 76 14	 push	 DWORD PTR [esi+20]
  000c6	ff 76 10	 push	 DWORD PTR [esi+16]
  000c9	68 00 00 00 00	 push	 OFFSET ??_C@_0FK@LDEGMOJD@?$FLCastleSiege?$FN?5GS_DGAnsCastleNpcB@
  000ce	ff 15 00 00 00
	00		 call	 DWORD PTR ?LogAddTD@@3P6AXPADZZA ; LogAddTD
  000d4	83 c4 0c	 add	 esp, 12			; 0000000cH

; 5065 : 				lpMsg->iNpcNumber,lpMsg->iNpcIndex);
; 5066 : 		}
; 5067 : 		else

  000d7	eb 25		 jmp	 SHORT $LN5@GS_DGAnsCa
$LN6@GS_DGAnsCa:

; 5068 : 		{
; 5069 : 			LogAddTD("[CastleSiege] GS_DGAnsCastleNpcBuy() - CCastleSiege::AddDbNPC() FAILED - Npc:(CLS:%d, IDX:%d)",

  000d9	ff 76 14	 push	 DWORD PTR [esi+20]
  000dc	ff 76 10	 push	 DWORD PTR [esi+16]
  000df	68 00 00 00 00	 push	 OFFSET ??_C@_0FO@MKLLBJCJ@?$FLCastleSiege?$FN?5GS_DGAnsCastleNpcB@
  000e4	ff 15 00 00 00
	00		 call	 DWORD PTR ?LogAddTD@@3P6AXPADZZA ; LogAddTD
  000ea	83 c4 0c	 add	 esp, 12			; 0000000cH

; 5070 : 				lpMsg->iNpcNumber,lpMsg->iNpcIndex);
; 5071 : 		}
; 5072 : 	}
; 5073 : 	else

  000ed	eb 0f		 jmp	 SHORT $LN5@GS_DGAnsCa
$LN4@GS_DGAnsCa:

; 5074 : 	{
; 5075 : 		LogAddTD("[CastleSiege] GS_DGAnsCastleNpcBuy() FAILED - Result:(%d), Npc:(CLS:%d, IDX:%d)",

  000ef	50		 push	 eax
  000f0	68 00 00 00 00	 push	 OFFSET ??_C@_0FA@BIAOFLEB@?$FLCastleSiege?$FN?5GS_DGAnsCastleNpcB@
  000f5	ff 15 00 00 00
	00		 call	 DWORD PTR ?LogAddTD@@3P6AXPADZZA ; LogAddTD
  000fb	83 c4 10	 add	 esp, 16			; 00000010H
$LN5@GS_DGAnsCa:

; 5076 : 			lpMsg->iResult,lpMsg->iNpcNumber,lpMsg->iNpcIndex);
; 5077 : 	}
; 5078 : 
; 5079 : 	GCAnsNpcBuy(lpMsg->iIndex,lpMsg->iResult,lpMsg->iNpcNumber,lpMsg->iNpcIndex);

  000fe	ff 76 14	 push	 DWORD PTR [esi+20]
  00101	ff 76 10	 push	 DWORD PTR [esi+16]
  00104	ff 76 04	 push	 DWORD PTR [esi+4]
  00107	ff 76 0c	 push	 DWORD PTR [esi+12]
  0010a	e8 00 00 00 00	 call	 ?GCAnsNpcBuy@@YAXHHHH@Z	; GCAnsNpcBuy
  0010f	83 c4 10	 add	 esp, 16			; 00000010H
$LN1@GS_DGAnsCa:
  00112	5e		 pop	 esi

; 5080 : #endif
; 5081 : }

  00113	5d		 pop	 ebp
  00114	c3		 ret	 0
?GS_DGAnsCastleNpcBuy@@YAXPAE@Z ENDP			; GS_DGAnsCastleNpcBuy
_TEXT	ENDS
; Function compile flags: /Ogtp
; File c:\users\michel\desktop\source\gameserver\source\dsprotocol.cpp
; File c:\users\michel\desktop\source\gameserver\source\mapservermanager.h
; File c:\users\michel\desktop\source\gameserver\source\dsprotocol.cpp
;	COMDAT ?GS_DGAnsOwnerGuildMaster@@YAXPAE@Z
_TEXT	SEGMENT
_lpRecv$ = 8						; size = 4
?GS_DGAnsOwnerGuildMaster@@YAXPAE@Z PROC		; GS_DGAnsOwnerGuildMaster, COMDAT

; 5003 : {

  00000	55		 push	 ebp
  00001	8b ec		 mov	 ebp, esp

; 5004 : #if (GS_CASTLE == 1)
; 5005 : 	CSP_ANS_OWNERGUILDMASTER * lpMsg = (CSP_ANS_OWNERGUILDMASTER *)lpRecv;
; 5006 : 
; 5007 : 	if(lpMsg == NULL)

  00003	8b 4d 08	 mov	 ecx, DWORD PTR _lpRecv$[ebp]
  00006	85 c9		 test	 ecx, ecx
  00008	74 42		 je	 SHORT $LN1@GS_DGAnsOw
; File c:\users\michel\desktop\source\gameserver\source\mapservermanager.h

; 55   : 		if ( this->m_lpThisMapSvrData != NULL )

  0000a	a1 f8 6a 01 00	 mov	 eax, DWORD PTR ?g_MapServerManager@@3VCMapServerManager@@A+92920
  0000f	85 c0		 test	 eax, eax
  00011	74 06		 je	 SHORT $LN6@GS_DGAnsOw

; 56   : 		{
; 57   : 			return m_lpThisMapSvrData->m_btMAPSVR_GROUP;

  00013	0f b6 50 08	 movzx	 edx, BYTE PTR [eax+8]
  00017	eb 03		 jmp	 SHORT $LN5@GS_DGAnsOw
$LN6@GS_DGAnsOw:

; 58   : 		}
; 59   : 		return -1;

  00019	83 ca ff	 or	 edx, -1
$LN5@GS_DGAnsOw:
; File c:\users\michel\desktop\source\gameserver\source\dsprotocol.cpp

; 5010 : 	if(lpMsg->wMapSvrNum != g_MapServerManager.GetMapSvrGroup())

  0001c	0f b7 41 08	 movzx	 eax, WORD PTR [ecx+8]
  00020	3b c2		 cmp	 eax, edx
  00022	74 12		 je	 SHORT $LN3@GS_DGAnsOw

; 5011 : 	{
; 5012 : 		LogAddC(2,"[CastleSiege] PACKET-ERROR [0x80][0x00] GS_DGAnsCastleTotalInfo() - lpMsg->wMapSvrNum != g_MapServerManager.GetMapSvrGroup()");

  00024	68 00 00 00 00	 push	 OFFSET ??_C@_0HN@BJMCOPEN@?$FLCastleSiege?$FN?5PACKET?9ERROR?5?$FL0x80@
  00029	6a 02		 push	 2
  0002b	ff 15 00 00 00
	00		 call	 DWORD PTR ?LogAddC@@3P6AXEPADZZA ; LogAddC
  00031	83 c4 08	 add	 esp, 8

; 5017 : #endif
; 5018 : }

  00034	5d		 pop	 ebp
  00035	c3		 ret	 0
$LN3@GS_DGAnsOw:

; 5013 : 		return;
; 5014 : 	}
; 5015 : 
; 5016 : 	GCAnsCastleSiegeState(lpMsg->iIndex,lpMsg->iResult,lpMsg->szCastleOwnGuild,lpMsg->szCastleOwnGuildMaster);

  00036	8d 41 18	 lea	 eax, DWORD PTR [ecx+24]
  00039	50		 push	 eax
  0003a	8d 41 10	 lea	 eax, DWORD PTR [ecx+16]
  0003d	50		 push	 eax
  0003e	ff 71 04	 push	 DWORD PTR [ecx+4]
  00041	ff 71 0c	 push	 DWORD PTR [ecx+12]
  00044	e8 00 00 00 00	 call	 ?GCAnsCastleSiegeState@@YAXHHPAD0@Z ; GCAnsCastleSiegeState
  00049	83 c4 10	 add	 esp, 16			; 00000010H
$LN1@GS_DGAnsOw:

; 5017 : #endif
; 5018 : }

  0004c	5d		 pop	 ebp
  0004d	c3		 ret	 0
?GS_DGAnsOwnerGuildMaster@@YAXPAE@Z ENDP		; GS_DGAnsOwnerGuildMaster
_TEXT	ENDS
; Function compile flags: /Ogtp
; File c:\users\michel\desktop\source\gameserver\source\dsprotocol.cpp
; File c:\users\michel\desktop\source\gameserver\source\mapservermanager.h
; File c:\users\michel\desktop\source\gameserver\source\dsprotocol.cpp
;	COMDAT ?GS_DGAnsCastleTotalInfo@@YAXPAE@Z
_TEXT	SEGMENT
_lpRecv$ = 8						; size = 4
?GS_DGAnsCastleTotalInfo@@YAXPAE@Z PROC			; GS_DGAnsCastleTotalInfo, COMDAT

; 4978 : {

  00000	55		 push	 ebp
  00001	8b ec		 mov	 ebp, esp

; 4979 : #if (GS_CASTLE == 1)
; 4980 : 	CSP_ANS_CASTLEDATA * lpMsg = (CSP_ANS_CASTLEDATA *)lpRecv;
; 4981 : 
; 4982 : 	if(lpMsg == NULL)

  00003	8b 45 08	 mov	 eax, DWORD PTR _lpRecv$[ebp]
  00006	85 c0		 test	 eax, eax
  00008	74 2b		 je	 SHORT $LN3@GS_DGAnsCa
; File c:\users\michel\desktop\source\gameserver\source\mapservermanager.h

; 55   : 		if ( this->m_lpThisMapSvrData != NULL )

  0000a	8b 0d f8 6a 01
	00		 mov	 ecx, DWORD PTR ?g_MapServerManager@@3VCMapServerManager@@A+92920
  00010	85 c9		 test	 ecx, ecx
  00012	74 06		 je	 SHORT $LN6@GS_DGAnsCa

; 56   : 		{
; 57   : 			return m_lpThisMapSvrData->m_btMAPSVR_GROUP;

  00014	0f b6 49 08	 movzx	 ecx, BYTE PTR [ecx+8]
  00018	eb 03		 jmp	 SHORT $LN5@GS_DGAnsCa
$LN6@GS_DGAnsCa:

; 58   : 		}
; 59   : 		return -1;

  0001a	83 c9 ff	 or	 ecx, -1
$LN5@GS_DGAnsCa:
; File c:\users\michel\desktop\source\gameserver\source\dsprotocol.cpp

; 4985 : 	if(lpMsg->wMapSvrNum != g_MapServerManager.GetMapSvrGroup())

  0001d	0f b7 40 08	 movzx	 eax, WORD PTR [eax+8]
  00021	3b c1		 cmp	 eax, ecx
  00023	74 10		 je	 SHORT $LN3@GS_DGAnsCa

; 4986 : 	{
; 4987 : 		LogAddC(2,"[CastleSiege] PACKET-ERROR [0x80][0x00] GS_DGAnsCastleTotalInfo() - lpMsg->wMapSvrNum != g_MapServerManager.GetMapSvrGroup()");

  00025	68 00 00 00 00	 push	 OFFSET ??_C@_0HN@BJMCOPEN@?$FLCastleSiege?$FN?5PACKET?9ERROR?5?$FL0x80@
  0002a	6a 02		 push	 2
  0002c	ff 15 00 00 00
	00		 call	 DWORD PTR ?LogAddC@@3P6AXEPADZZA ; LogAddC
  00032	83 c4 08	 add	 esp, 8
$LN3@GS_DGAnsCa:

; 4988 : 	}
; 4989 : #endif
; 4990 : }

  00035	5d		 pop	 ebp
  00036	c3		 ret	 0
?GS_DGAnsCastleTotalInfo@@YAXPAE@Z ENDP			; GS_DGAnsCastleTotalInfo
_TEXT	ENDS
; Function compile flags: /Ogtp
; File c:\users\michel\desktop\source\gameserver\source\dsprotocol.cpp
; File c:\users\michel\desktop\source\gameserver\include\prodef.h
; File c:\users\michel\desktop\source\gameserver\source\dsprotocol.cpp
; File c:\users\michel\desktop\source\gameserver\include\prodef.h
; File c:\users\michel\desktop\source\gameserver\source\dsprotocol.cpp
;	COMDAT ?GS_GDReqCsLoadTotalGuildInfo@@YAXH@Z
_TEXT	SEGMENT
_pMsg$ = -8						; size = 6
_iMapSvrGroup$ = 8					; size = 4
?GS_GDReqCsLoadTotalGuildInfo@@YAXH@Z PROC		; GS_GDReqCsLoadTotalGuildInfo, COMDAT

; 4865 : {

  00000	55		 push	 ebp
  00001	8b ec		 mov	 ebp, esp

; 4866 : 	if ( iMapSvrGroup < 0 )

  00003	8b 45 08	 mov	 eax, DWORD PTR _iMapSvrGroup$[ebp]
  00006	83 ec 08	 sub	 esp, 8
  00009	85 c0		 test	 eax, eax
  0000b	78 1e		 js	 SHORT $LN1@GS_GDReqCs

; 4867 : 	{
; 4868 : 		return;
; 4869 : 	}
; 4870 : 
; 4871 : 	CSP_REQ_CSLOADTOTALGUILDINFO pMsg;
; 4872 : 
; 4873 : 	pMsg.h.set((LPBYTE)&pMsg, 0x88, sizeof(CSP_REQ_CSLOADTOTALGUILDINFO));
; 4874 : 	pMsg.wMapSvrNum = iMapSvrGroup;

  0000d	66 89 45 fc	 mov	 WORD PTR _pMsg$[ebp+4], ax

; 4876 : 	cDBSMng.Send((char*)&pMsg, pMsg.h.size);

  00011	b9 00 00 00 00	 mov	 ecx, OFFSET ?cDBSMng@@3VDBSockMng@@A ; cDBSMng
  00016	6a 06		 push	 6
  00018	8d 45 f8	 lea	 eax, DWORD PTR _pMsg$[ebp]
; File c:\users\michel\desktop\source\gameserver\include\prodef.h

; 86   : 		lpBuf[0] = 0xC1;

  0001b	66 c7 45 f8 c1
	06		 mov	 WORD PTR _pMsg$[ebp], 1729 ; 000006c1H
; File c:\users\michel\desktop\source\gameserver\source\dsprotocol.cpp

; 4876 : 	cDBSMng.Send((char*)&pMsg, pMsg.h.size);

  00021	50		 push	 eax
; File c:\users\michel\desktop\source\gameserver\include\prodef.h

; 88   : 		lpBuf[2] = head;

  00022	c6 45 fa 88	 mov	 BYTE PTR _pMsg$[ebp+2], 136 ; 00000088H
; File c:\users\michel\desktop\source\gameserver\source\dsprotocol.cpp

; 4876 : 	cDBSMng.Send((char*)&pMsg, pMsg.h.size);

  00026	e8 00 00 00 00	 call	 ?Send@DBSockMng@@QAEHPADH@Z ; DBSockMng::Send
$LN1@GS_GDReqCs:

; 4877 : }

  0002b	8b e5		 mov	 esp, ebp
  0002d	5d		 pop	 ebp
  0002e	c3		 ret	 0
?GS_GDReqCsLoadTotalGuildInfo@@YAXH@Z ENDP		; GS_GDReqCsLoadTotalGuildInfo
_TEXT	ENDS
; Function compile flags: /Ogtp
; File c:\users\michel\desktop\source\gameserver\source\dsprotocol.cpp
; File c:\users\michel\desktop\source\gameserver\include\prodef.h
; File c:\users\michel\desktop\source\gameserver\source\dsprotocol.cpp
; File c:\users\michel\desktop\source\gameserver\include\prodef.h
; File c:\users\michel\desktop\source\gameserver\source\dsprotocol.cpp
;	COMDAT ?GS_GDReqCalcRegGuildList@@YAXH@Z
_TEXT	SEGMENT
_pMsg$ = -8						; size = 6
_iMapSvrGroup$ = 8					; size = 4
?GS_GDReqCalcRegGuildList@@YAXH@Z PROC			; GS_GDReqCalcRegGuildList, COMDAT

; 4835 : {

  00000	55		 push	 ebp
  00001	8b ec		 mov	 ebp, esp

; 4836 : 	if ( iMapSvrGroup < 0 )

  00003	8b 45 08	 mov	 eax, DWORD PTR _iMapSvrGroup$[ebp]
  00006	83 ec 08	 sub	 esp, 8
  00009	85 c0		 test	 eax, eax
  0000b	78 1e		 js	 SHORT $LN1@GS_GDReqCa

; 4837 : 	{
; 4838 : 		return;
; 4839 : 	}
; 4840 : 
; 4841 : 	CSP_REQ_CALCREGGUILDLIST pMsg;
; 4842 : 
; 4843 : 	pMsg.h.set((LPBYTE)&pMsg, 0x85, sizeof(CSP_REQ_CALCREGGUILDLIST));
; 4844 : 	pMsg.wMapSvrNum = iMapSvrGroup;

  0000d	66 89 45 fc	 mov	 WORD PTR _pMsg$[ebp+4], ax

; 4846 : 	cDBSMng.Send((char*)&pMsg, pMsg.h.size);

  00011	b9 00 00 00 00	 mov	 ecx, OFFSET ?cDBSMng@@3VDBSockMng@@A ; cDBSMng
  00016	6a 06		 push	 6
  00018	8d 45 f8	 lea	 eax, DWORD PTR _pMsg$[ebp]
; File c:\users\michel\desktop\source\gameserver\include\prodef.h

; 86   : 		lpBuf[0] = 0xC1;

  0001b	66 c7 45 f8 c1
	06		 mov	 WORD PTR _pMsg$[ebp], 1729 ; 000006c1H
; File c:\users\michel\desktop\source\gameserver\source\dsprotocol.cpp

; 4846 : 	cDBSMng.Send((char*)&pMsg, pMsg.h.size);

  00021	50		 push	 eax
; File c:\users\michel\desktop\source\gameserver\include\prodef.h

; 88   : 		lpBuf[2] = head;

  00022	c6 45 fa 85	 mov	 BYTE PTR _pMsg$[ebp+2], 133 ; 00000085H
; File c:\users\michel\desktop\source\gameserver\source\dsprotocol.cpp

; 4846 : 	cDBSMng.Send((char*)&pMsg, pMsg.h.size);

  00026	e8 00 00 00 00	 call	 ?Send@DBSockMng@@QAEHPADH@Z ; DBSockMng::Send
$LN1@GS_GDReqCa:

; 4847 : }

  0002b	8b e5		 mov	 esp, ebp
  0002d	5d		 pop	 ebp
  0002e	c3		 ret	 0
?GS_GDReqCalcRegGuildList@@YAXH@Z ENDP			; GS_GDReqCalcRegGuildList
_TEXT	ENDS
; Function compile flags: /Ogtp
; File c:\users\michel\desktop\source\gameserver\source\dsprotocol.cpp
; File c:\users\michel\desktop\source\gameserver\include\prodef.h
; File c:\users\michel\desktop\source\gameserver\source\dsprotocol.cpp
;	COMDAT ?GS_GDReqAllGuildMarkRegInfo@@YAXHH@Z
_TEXT	SEGMENT
_pMsg$ = -16						; size = 12
__$ArrayPad$ = -4					; size = 4
_iMapSvrGroup$ = 8					; size = 4
_aIndex$ = 12						; size = 4
?GS_GDReqAllGuildMarkRegInfo@@YAXHH@Z PROC		; GS_GDReqAllGuildMarkRegInfo, COMDAT

; 4805 : {

  00000	55		 push	 ebp
  00001	8b ec		 mov	 ebp, esp
  00003	83 ec 10	 sub	 esp, 16			; 00000010H
  00006	a1 00 00 00 00	 mov	 eax, DWORD PTR ___security_cookie
  0000b	33 c5		 xor	 eax, ebp
  0000d	89 45 fc	 mov	 DWORD PTR __$ArrayPad$[ebp], eax

; 4806 : 	if ( iMapSvrGroup < 0 )

  00010	8b 45 08	 mov	 eax, DWORD PTR _iMapSvrGroup$[ebp]
  00013	85 c0		 test	 eax, eax
  00015	78 24		 js	 SHORT $LN1@GS_GDReqAl

; 4807 : 	{
; 4808 : 		return;
; 4809 : 	}
; 4810 : 
; 4811 : 	CSP_REQ_ALLGUILDREGINFO pMsg;
; 4812 : 
; 4813 : 	pMsg.h.set((LPBYTE)&pMsg, 0x83, sizeof(CSP_REQ_ALLGUILDREGINFO));
; 4814 : 	pMsg.wMapSvrNum = iMapSvrGroup;

  00017	66 89 45 f4	 mov	 WORD PTR _pMsg$[ebp+4], ax

; 4817 : 	cDBSMng.Send((char*)&pMsg, pMsg.h.size);

  0001b	b9 00 00 00 00	 mov	 ecx, OFFSET ?cDBSMng@@3VDBSockMng@@A ; cDBSMng
  00020	8b 45 0c	 mov	 eax, DWORD PTR _aIndex$[ebp]
  00023	89 45 f8	 mov	 DWORD PTR _pMsg$[ebp+8], eax
  00026	8d 45 f0	 lea	 eax, DWORD PTR _pMsg$[ebp]
  00029	6a 0c		 push	 12			; 0000000cH
  0002b	50		 push	 eax
; File c:\users\michel\desktop\source\gameserver\include\prodef.h

; 86   : 		lpBuf[0] = 0xC1;

  0002c	66 c7 45 f0 c1
	0c		 mov	 WORD PTR _pMsg$[ebp], 3265 ; 00000cc1H

; 87   : 		lpBuf[1] = size;
; 88   : 		lpBuf[2] = head;

  00032	c6 45 f2 83	 mov	 BYTE PTR _pMsg$[ebp+2], 131 ; 00000083H
; File c:\users\michel\desktop\source\gameserver\source\dsprotocol.cpp

; 4817 : 	cDBSMng.Send((char*)&pMsg, pMsg.h.size);

  00036	e8 00 00 00 00	 call	 ?Send@DBSockMng@@QAEHPADH@Z ; DBSockMng::Send
$LN1@GS_GDReqAl:

; 4818 : }

  0003b	8b 4d fc	 mov	 ecx, DWORD PTR __$ArrayPad$[ebp]
  0003e	33 cd		 xor	 ecx, ebp
  00040	e8 00 00 00 00	 call	 @__security_check_cookie@4
  00045	8b e5		 mov	 esp, ebp
  00047	5d		 pop	 ebp
  00048	c3		 ret	 0
?GS_GDReqAllGuildMarkRegInfo@@YAXHH@Z ENDP		; GS_GDReqAllGuildMarkRegInfo
_TEXT	ENDS
; Function compile flags: /Ogtp
; File c:\users\michel\desktop\source\gameserver\source\dsprotocol.cpp
; File c:\users\michel\desktop\source\gameserver\include\prodef.h
; File c:\users\michel\desktop\source\gameserver\source\dsprotocol.cpp
;	COMDAT ?GS_GDReqCastleInitData@@YAXHH@Z
_TEXT	SEGMENT
_pMsg$ = -16						; size = 12
__$ArrayPad$ = -4					; size = 4
_iMapSvrGroup$ = 8					; size = 4
_iCastleEventCycle$ = 12				; size = 4
?GS_GDReqCastleInitData@@YAXHH@Z PROC			; GS_GDReqCastleInitData, COMDAT

; 4739 : {

  00000	55		 push	 ebp
  00001	8b ec		 mov	 ebp, esp
  00003	83 ec 10	 sub	 esp, 16			; 00000010H
  00006	a1 00 00 00 00	 mov	 eax, DWORD PTR ___security_cookie
  0000b	33 c5		 xor	 eax, ebp
  0000d	89 45 fc	 mov	 DWORD PTR __$ArrayPad$[ebp], eax

; 4740 : 	if ( iMapSvrGroup < 0 )

  00010	8b 45 08	 mov	 eax, DWORD PTR _iMapSvrGroup$[ebp]
  00013	85 c0		 test	 eax, eax
  00015	78 24		 js	 SHORT $LN1@GS_GDReqCa

; 4741 : 	{
; 4742 : 		return;
; 4743 : 	}
; 4744 : 
; 4745 : 	CSP_REQ_CSINITDATA pMsg;
; 4746 : 
; 4747 : 	pMsg.h.set((LPBYTE)&pMsg, 0x81, sizeof(CSP_REQ_CSINITDATA));
; 4748 : 	pMsg.wMapSvrNum = iMapSvrGroup;

  00017	66 89 45 f4	 mov	 WORD PTR _pMsg$[ebp+4], ax

; 4751 : 	cDBSMng.Send((char*)&pMsg, pMsg.h.size);

  0001b	b9 00 00 00 00	 mov	 ecx, OFFSET ?cDBSMng@@3VDBSockMng@@A ; cDBSMng
  00020	8b 45 0c	 mov	 eax, DWORD PTR _iCastleEventCycle$[ebp]
  00023	89 45 f8	 mov	 DWORD PTR _pMsg$[ebp+8], eax
  00026	8d 45 f0	 lea	 eax, DWORD PTR _pMsg$[ebp]
  00029	6a 0c		 push	 12			; 0000000cH
  0002b	50		 push	 eax
; File c:\users\michel\desktop\source\gameserver\include\prodef.h

; 86   : 		lpBuf[0] = 0xC1;

  0002c	66 c7 45 f0 c1
	0c		 mov	 WORD PTR _pMsg$[ebp], 3265 ; 00000cc1H

; 87   : 		lpBuf[1] = size;
; 88   : 		lpBuf[2] = head;

  00032	c6 45 f2 81	 mov	 BYTE PTR _pMsg$[ebp+2], 129 ; 00000081H
; File c:\users\michel\desktop\source\gameserver\source\dsprotocol.cpp

; 4751 : 	cDBSMng.Send((char*)&pMsg, pMsg.h.size);

  00036	e8 00 00 00 00	 call	 ?Send@DBSockMng@@QAEHPADH@Z ; DBSockMng::Send
$LN1@GS_GDReqCa:

; 4752 : }

  0003b	8b 4d fc	 mov	 ecx, DWORD PTR __$ArrayPad$[ebp]
  0003e	33 cd		 xor	 ecx, ebp
  00040	e8 00 00 00 00	 call	 @__security_check_cookie@4
  00045	8b e5		 mov	 esp, ebp
  00047	5d		 pop	 ebp
  00048	c3		 ret	 0
?GS_GDReqCastleInitData@@YAXHH@Z ENDP			; GS_GDReqCastleInitData
_TEXT	ENDS
; Function compile flags: /Ogtp
; File c:\users\michel\desktop\source\gameserver\source\dsprotocol.cpp
; File c:\users\michel\desktop\source\gameserver\include\prodef.h
; File c:\users\michel\desktop\source\gameserver\source\dsprotocol.cpp
;	COMDAT ?GS_GDReqResetSiegeGuildInfo@@YAXH@Z
_TEXT	SEGMENT
_pMsg$ = -8						; size = 6
_iMapSvrGroup$ = 8					; size = 4
?GS_GDReqResetSiegeGuildInfo@@YAXH@Z PROC		; GS_GDReqResetSiegeGuildInfo, COMDAT

; 4675 : {

  00000	55		 push	 ebp
  00001	8b ec		 mov	 ebp, esp

; 4676 : 	if ( iMapSvrGroup < 0 )

  00003	8b 45 08	 mov	 eax, DWORD PTR _iMapSvrGroup$[ebp]
  00006	83 ec 08	 sub	 esp, 8
  00009	85 c0		 test	 eax, eax
  0000b	78 1b		 js	 SHORT $LN1@GS_GDReqRe

; 4677 : 	{
; 4678 : 		return;
; 4679 : 	}
; 4680 : 
; 4681 : 	CSP_REQ_RESETSIEGEGUILDINFO pMsg;
; 4682 : 
; 4683 : 	pMsg.h.set((LPBYTE)&pMsg, 0x80, 0x1A, sizeof(CSP_REQ_RESETSIEGEGUILDINFO));
; 4684 : 	pMsg.wMapSvrNum = iMapSvrGroup;

  0000d	66 89 45 fc	 mov	 WORD PTR _pMsg$[ebp+4], ax

; 4686 : 	cDBSMng.Send((char*)&pMsg, pMsg.h.size);

  00011	b9 00 00 00 00	 mov	 ecx, OFFSET ?cDBSMng@@3VDBSockMng@@A ; cDBSMng
  00016	6a 06		 push	 6
  00018	8d 45 f8	 lea	 eax, DWORD PTR _pMsg$[ebp]
; File c:\users\michel\desktop\source\gameserver\include\prodef.h

; 140  : 		lpBuf[0] = 0xC1;

  0001b	c7 45 f8 c1 06
	80 1a		 mov	 DWORD PTR _pMsg$[ebp], 444597953 ; 1a8006c1H
; File c:\users\michel\desktop\source\gameserver\source\dsprotocol.cpp

; 4686 : 	cDBSMng.Send((char*)&pMsg, pMsg.h.size);

  00022	50		 push	 eax
  00023	e8 00 00 00 00	 call	 ?Send@DBSockMng@@QAEHPADH@Z ; DBSockMng::Send
$LN1@GS_GDReqRe:

; 4687 : }

  00028	8b e5		 mov	 esp, ebp
  0002a	5d		 pop	 ebp
  0002b	c3		 ret	 0
?GS_GDReqResetSiegeGuildInfo@@YAXH@Z ENDP		; GS_GDReqResetSiegeGuildInfo
_TEXT	ENDS
; Function compile flags: /Ogtp
; File c:\users\michel\desktop\source\gameserver\source\dsprotocol.cpp
; File c:\users\michel\desktop\source\gameserver\include\prodef.h
; File c:\users\michel\desktop\source\gameserver\source\dsprotocol.cpp
;	COMDAT ?GS_GDReqResetCastleTaxInfo@@YAXH@Z
_TEXT	SEGMENT
_pMsg$ = -8						; size = 6
_iMapSvrGroup$ = 8					; size = 4
?GS_GDReqResetCastleTaxInfo@@YAXH@Z PROC		; GS_GDReqResetCastleTaxInfo, COMDAT

; 4645 : {

  00000	55		 push	 ebp
  00001	8b ec		 mov	 ebp, esp

; 4646 : 	if ( iMapSvrGroup < 0 )

  00003	8b 45 08	 mov	 eax, DWORD PTR _iMapSvrGroup$[ebp]
  00006	83 ec 08	 sub	 esp, 8
  00009	85 c0		 test	 eax, eax
  0000b	78 1b		 js	 SHORT $LN1@GS_GDReqRe

; 4647 : 	{
; 4648 : 		return;
; 4649 : 	}
; 4650 : 
; 4651 : 	CSP_REQ_RESETCASTLETAXINFO pMsg;
; 4652 : 
