; Listing generated by Microsoft (R) Optimizing Compiler Version 19.00.23506.0 

	TITLE	C:\Users\Michel\Desktop\Source\GameServer\Source\EDSProtocol.cpp
	.686P
	.XMM
	include listing.inc
	.model	flat

INCLUDELIB LIBCMT
INCLUDELIB OLDNAMES

PUBLIC	?gGuildListTotal@@3HA				; gGuildListTotal
PUBLIC	?gGuildListCount@@3HA				; gGuildListCount
PUBLIC	?GuildListhSts@@3PAUHWND__@@A			; GuildListhSts
PUBLIC	?GuildListhPrs@@3PAUHWND__@@A			; GuildListhPrs
PUBLIC	?GuildListhDlg@@3PAUHWND__@@A			; GuildListhDlg
_BSS	SEGMENT
?gGuildListTotal@@3HA DD 01H DUP (?)			; gGuildListTotal
?gGuildListCount@@3HA DD 01H DUP (?)			; gGuildListCount
?GuildListhSts@@3PAUHWND__@@A DD 01H DUP (?)		; GuildListhSts
?GuildListhPrs@@3PAUHWND__@@A DD 01H DUP (?)		; GuildListhPrs
?GuildListhDlg@@3PAUHWND__@@A DD 01H DUP (?)		; GuildListhDlg
_BSS	ENDS
PUBLIC	?__empty_global_delete@@YAXPAX@Z		; __empty_global_delete
PUBLIC	?__empty_global_delete@@YAXPAXI@Z		; __empty_global_delete
PUBLIC	??1OBJECTSTRUCT@@QAE@XZ				; OBJECTSTRUCT::~OBJECTSTRUCT
PUBLIC	??_EOBJECTSTRUCT@@QAEPAXI@Z			; OBJECTSTRUCT::`vector deleting destructor'
PUBLIC	?ExDataServerProtocolCore@@YAXEPAEH@Z		; ExDataServerProtocolCore
PUBLIC	?ExDataServerLogin@@YAXXZ			; ExDataServerLogin
PUBLIC	?GDCharClose@@YAXHPAD0@Z			; GDCharClose
PUBLIC	?ExDataServerLoginResult@@YAXPAUSDHP_RESULT@@@Z	; ExDataServerLoginResult
PUBLIC	?GDCharCloseRecv@@YAXPAUSDHP_USERCLOSE@@@Z	; GDCharCloseRecv
PUBLIC	?GDGuildCreateSend@@YAXHPAD0PAEH@Z		; GDGuildCreateSend
PUBLIC	?GDGuildCreateRecv@@YAXPAUSDHP_GUILDCREATE_RESULT@@@Z ; GDGuildCreateRecv
PUBLIC	?GDGuildDestroySend@@YAXHPAD0@Z			; GDGuildDestroySend
PUBLIC	?GDGuildDestroyRecv@@YAXPAUSDHP_GUILDDESTROY_RESULT@@@Z ; GDGuildDestroyRecv
PUBLIC	?GDGuildMemberAdd@@YAXHPAD0@Z			; GDGuildMemberAdd
PUBLIC	?GDGuildMemberAddResult@@YAXPAUSDHP_GUILDMEMBERADD_RESULT@@@Z ; GDGuildMemberAddResult
PUBLIC	?GDGuildMemberDel@@YAXHPAD0@Z			; GDGuildMemberDel
PUBLIC	?GDGuildMemberDelResult@@YAXPAUSDHP_GUILDMEMBERDEL_RESULT@@@Z ; GDGuildMemberDelResult
PUBLIC	?DGGuildMemberInfoRequest@@YAXH@Z		; DGGuildMemberInfoRequest
PUBLIC	?DGGuildMemberInfo@@YAXPAUSDHP_GUILDMEMBER_INFO@@@Z ; DGGuildMemberInfo
PUBLIC	?DGGuildMasterListRecv@@YAXPAE@Z		; DGGuildMasterListRecv
PUBLIC	?DGGuildScoreUpdate@@YAXPADH@Z			; DGGuildScoreUpdate
PUBLIC	?GDGuildScoreUpdateRecv@@YAXPAUSDHP_GUILDSCOREUPDATE@@@Z ; GDGuildScoreUpdateRecv
PUBLIC	?GDGuildNoticeSave@@YAXPAD0@Z			; GDGuildNoticeSave
PUBLIC	?DGGuildNoticeRecv@@YAXPAUSDHP_GUILDNOTICE@@@Z	; DGGuildNoticeRecv
PUBLIC	?DGGuildListRequest@@YAXXZ			; DGGuildListRequest
PUBLIC	?DGGuildList@@YAXPAUSDHP_GUILDCREATED@@@Z	; DGGuildList
PUBLIC	?GuildListDlgProc@@YGHPAUHWND__@@IIJ@Z		; GuildListDlgProc
PUBLIC	?DGGuildListState@@YAXPAUSDHP_GUILDLISTSTATE@@@Z ; DGGuildListState
PUBLIC	?GDGuildServerGroupChattingSend@@YAXHPAUPMSG_CHATDATA@@@Z ; GDGuildServerGroupChattingSend
PUBLIC	?DGGuildServerGroupChattingRecv@@YAXPAUEXSDHP_SERVERGROUP_GUILD_CHATTING_RECV@@@Z ; DGGuildServerGroupChattingRecv
PUBLIC	?GDUnionServerGroupChattingSend@@YAXHPAUPMSG_CHATDATA@@@Z ; GDUnionServerGroupChattingSend
PUBLIC	?DGUnionServerGroupChattingRecv@@YAXPAUEXSDHP_SERVERGROUP_UNION_CHATTING_RECV@@@Z ; DGUnionServerGroupChattingRecv
PUBLIC	?GDGuildReqAssignStatus@@YAXHHPADH@Z		; GDGuildReqAssignStatus
PUBLIC	?DGGuildAnsAssignStatus@@YAXPAUEXSDHP_GUILD_ASSIGN_STATUS_RESULT@@@Z ; DGGuildAnsAssignStatus
PUBLIC	?GDGuildReqAssignType@@YAXHH@Z			; GDGuildReqAssignType
PUBLIC	?DGGuildAnsAssignType@@YAXPAUEXSDHP_GUILD_ASSIGN_TYPE_RESULT@@@Z ; DGGuildAnsAssignType
PUBLIC	?GDRelationShipReqJoin@@YAXHHH@Z		; GDRelationShipReqJoin
PUBLIC	?DGRelationShipAnsJoin@@YAXPAUEXSDHP_RELATIONSHIP_JOIN_RESULT@@@Z ; DGRelationShipAnsJoin
PUBLIC	?GDUnionBreakOff@@YAXHH@Z			; GDUnionBreakOff
PUBLIC	?DGUnionBreakOff@@YAXPAUEXSDHP_RELATIONSHIP_BREAKOFF_RESULT@@@Z ; DGUnionBreakOff
PUBLIC	?GDRelationShipReqBreakOff@@YAXHHH@Z		; GDRelationShipReqBreakOff
PUBLIC	?DGRelationShipAnsBreakOff@@YAXPAUEXSDHP_RELATIONSHIP_BREAKOFF_RESULT@@@Z ; DGRelationShipAnsBreakOff
PUBLIC	?DGRelationShipNotificationRecv@@YAXPAUEXSDHP_NOTIFICATION_RELATIONSHIP@@@Z ; DGRelationShipNotificationRecv
PUBLIC	?DGRelationShipListRecv@@YAXPAUEXSDHP_UNION_RELATIONSHIP_LIST@@@Z ; DGRelationShipListRecv
PUBLIC	?GDUnionListSend@@YAXHH@Z			; GDUnionListSend
PUBLIC	?DGUnionListRecv@@YAXPAE@Z			; DGUnionListRecv
PUBLIC	?GDRelationShipReqKickOutUnionMember@@YAXHPAD@Z	; GDRelationShipReqKickOutUnionMember
PUBLIC	?DGRelationShipAnsKickOutUnionMember@@YAXPAUEXSDHP_KICKOUT_UNIONMEMBER_RESULT@@@Z ; DGRelationShipAnsKickOutUnionMember
PUBLIC	?FriendListRequest@@YAXH@Z			; FriendListRequest
PUBLIC	?FriendListResult@@YAXPAE@Z			; FriendListResult
PUBLIC	?WaitFriendListResult@@YAXPAUFHP_WAITFRIENDLIST_COUNT@@@Z ; WaitFriendListResult
PUBLIC	?FriendStateClientRecv@@YAXPAUPMSG_FRIEND_STATE_C@@H@Z ; FriendStateClientRecv
PUBLIC	?FriendStateRecv@@YAXPAUFHP_FRIEND_STATE@@@Z	; FriendStateRecv
PUBLIC	?FriendAddRequest@@YAXPAUPMSG_FRIEND_ADD_REQ@@H@Z ; FriendAddRequest
PUBLIC	?FriendAddResult@@YAXPAUFHP_FRIEND_ADD_RESULT@@@Z ; FriendAddResult
PUBLIC	?WaitFriendAddRequest@@YAXPAUPMSG_FRIEND_ADD_SIN_RESULT@@H@Z ; WaitFriendAddRequest
PUBLIC	?WaitFriendAddResult@@YAXPAUFHP_WAITFRIEND_ADD_RESULT@@@Z ; WaitFriendAddResult
PUBLIC	?FriendDelRequest@@YAXPAUPMSG_FRIEND_DEL_REQ@@H@Z ; FriendDelRequest
PUBLIC	?FriendDelResult@@YAXPAUFHP_FRIEND_DEL_RESULT@@@Z ; FriendDelResult
PUBLIC	?FriendChatRoomCreateReq@@YAXPAUPMSG_FRIEND_ROOMCREATE_REQ@@H@Z ; FriendChatRoomCreateReq
PUBLIC	?FriendChatRoomCreateResult@@YAXPAUFHP_FRIEND_CHATROOM_CREATE_RESULT@@@Z ; FriendChatRoomCreateResult
PUBLIC	?FriendMemoSend@@YAXPAUPMSG_FRIEND_MEMO@@H@Z	; FriendMemoSend
PUBLIC	?MngFriendMemoSend@@YAXPAUPMSG_JG_MEMO_SEND@@@Z	; MngFriendMemoSend
PUBLIC	?WithdrawUserMoney@@YAHPADPAUOBJECTSTRUCT@@H@Z	; WithdrawUserMoney
PUBLIC	?FriendMemoSendResult@@YAXPAUFHP_FRIEND_MEMO_SEND_RESULT@@@Z ; FriendMemoSendResult
PUBLIC	?FriendMemoListReq@@YAXH@Z			; FriendMemoListReq
PUBLIC	?FriendMemoList@@YAXPAUFHP_FRIEND_MEMO_LIST@@@Z	; FriendMemoList
PUBLIC	?FriendMemoReadReq@@YAXPAUPMSG_FRIEND_READ_MEMO_REQ@@H@Z ; FriendMemoReadReq
PUBLIC	?FriendMemoRead@@YAXPAUFHP_FRIEND_MEMO_RECV@@@Z	; FriendMemoRead
PUBLIC	?FriendMemoDelReq@@YAXPAUPMSG_FRIEND_MEMO_DEL_REQ@@H@Z ; FriendMemoDelReq
PUBLIC	?FriendMemoDelResult@@YAXPAUFHP_FRIEND_MEMO_DEL_RESULT@@@Z ; FriendMemoDelResult
PUBLIC	?FriendRoomInvitationReq@@YAXPAUPMSG_ROOM_INVITATION@@H@Z ; FriendRoomInvitationReq
PUBLIC	?FriendRoomInvitationRecv@@YAXPAUFHP_FRIEND_INVITATION_RET@@@Z ; FriendRoomInvitationRecv
PUBLIC	?GDGuildUpdate@@YAXPAD0QAEHH@Z			; GDGuildUpdate
PUBLIC	?GDGuildUpdateRecv@@YAXPAE@Z			; GDGuildUpdateRecv
PUBLIC	?CheckSymbol@@YAHPAD@Z				; CheckSymbol
PUBLIC	??_C@_0BL@MLPIPIDH@ExDB?5Server?5Login?5Fail?3?5?$CFd?$AA@ ; `string'
PUBLIC	??_C@_0DE@PMHJKKOP@?$FLU?4System?$FN?5Guild?5is?5Created?5?9?5Gu@ ; `string'
PUBLIC	??_C@_0DK@MKLBBGMP@?$FLU?4System?$FN?$FLGuild?5Status?$FN?$FLInfo?$FN?5G@ ; `string'
PUBLIC	??_C@_01FHEEJDEE@A?$AA@				; `string'
PUBLIC	??_C@_0O@BNCDNIJM@?$CF8s?5?$FL?$CFd?5?1?5?$CFd?$FN?$AA@ ; `string'
PUBLIC	??_C@_0FA@EEENHOBM@?$FLU?4System?$FN?$FLGuild?5Status?$FN?$FLAssign?$FN@ ; `string'
PUBLIC	??_C@_0EN@PFEKLNHO@?$FLU?4System?$FN?$FLUnion?$FN?$FLJoin?$FN?5?$CI?5Union?5@ ; `string'
PUBLIC	??_C@_0CK@CDNGEFAB@?$FLU?4System?$FN?$FLRival?$FN?$FLJoin?$FN?5?$CI?5?5?$CFs?5?$CJ?5@ ; `string'
PUBLIC	??_C@_0EA@EGALHNLI@?$FLGS?$FN?$FLU?4System?$FN?$FLUnion?$FN?$FLBreakOff?$FN?5@ ; `string'
PUBLIC	??_C@_0FF@IACINBOG@?$FLGS?$FN?$FLU?4System?$FN?$FLUnion?$FN?$FLBreakOff?$FN?5@ ; `string'
PUBLIC	??_C@_0CO@FKCLICLC@?$FLU?4System?$FN?$FLRival?$FN?$FLBreakOff?$FN?5?$CI?5?5?$CF@ ; `string'
PUBLIC	??_C@_0FG@CCGCMLDE@?$FLU?4System?$FN?$FLUnion?$FN?$FLAuto?5BreakOff?$FN@ ; `string'
PUBLIC	??_C@_0FE@MHBNIMHI@?$FLGS?$FN?$FLU?4System?$FN?$FLUnion?$FN?$FLKickOut?$FN?5?$CI@ ; `string'
PUBLIC	??_C@_0BA@FCCBMCDG@EDSProtocol?4cpp?$AA@	; `string'
PUBLIC	??_C@_0BH@LCDOHCGD@error?9L2?5?3?5Index?5?$CFs?5?$CFd?$AA@ ; `string'
PUBLIC	??_C@_0DB@ELGELCGP@error?9L3?5?3?5?$FL?$CFs?$FN?$FL?$CFs?$FN?5FriendServer@ ; `string'
PUBLIC	??_C@_0CJ@EJJNCKNG@error?9L3?5?3?5?$FL?$CFs?$FN?$FL?$CFs?$FN?5FriendServer@ ; `string'
PUBLIC	??_C@_0BJ@BDFPCOJL@?$FL?$CFs?$FN?5Friend?5List?5Request?$AA@ ; `string'
PUBLIC	??_C@_0CB@HGMGGPGK@?$FL?$CFs?$FN?5Friend?5List?5Count?5?$CI?$CFd?$CJ?5Send@ ; `string'
PUBLIC	??_C@_0BN@DOMMEPOB@error?9L2?5?3?5?$CI?$CFs?$CJ?5Index?5?$CFs?5?$CFd?5?$AA@ ; `string'
PUBLIC	??_C@_0BK@HLHJLCCE@?$FL?$CFs?$FN?5WaitFriend?5List?5?$FL?$CFs?$FN?$AA@ ; `string'
PUBLIC	??_C@_0BH@OEEJLGGK@?$FL?$CFs?$FN?5Friend?5State?5?$CI?$CFd?$CJ?$AA@ ; `string'
PUBLIC	??_C@_0CD@OOGOJAIC@?$FL?$CFs?$FN?5Friend?5add?5request?5Name?3?5?$FL?$CF@ ; `string'
PUBLIC	??_C@_0CG@JNIACLCP@error?9L3?5?3?5?$FL?$CFs?$FN?5Friend?5add?5?3?5Not@ ; `string'
PUBLIC	??_C@_0DB@NPDFCIKD@?$FL?$CFs?$FN?5Friend?5add?5result?5?3?5?$CI?$CFd?$CJ?5fr@ ; `string'
PUBLIC	??_C@_0CB@IIBIOFAA@?$FL?$CFs?$FN?5WaitFriend?5add?5request?5?$FL?$CFs?$FN@ ; `string'
PUBLIC	??_C@_0CF@CCKIBLLA@?$FL?$CFs?$FN?5WaitFriend?5add?5result?5?$CI?$CFd?$CJ?5@ ; `string'
PUBLIC	??_C@_0BN@HLFBKLAE@?$FL?$CFs?$FN?5Friend?5del?5request?5?$FL?$CFs?$FN?$AA@ ; `string'
PUBLIC	??_C@_0CB@NCMBHLMH@?$FL?$CFs?$FN?5Friend?5del?5result?5?$CI?$CFd?$CJ?5?$FL?$CFs?$FN@ ; `string'
PUBLIC	??_C@_0CC@HAGNMCFJ@?$FL?$CFs?$FN?5Chatroom?5create?5request?5?$FL?$CFs@ ; `string'
PUBLIC	??_C@_0BM@JEKCBGDH@error?9L2?5?3?5Index?5?$CFs?5?$CFd?5?$CI?$CFs?$CJ?$AA@ ; `string'
PUBLIC	??_C@_0CN@LPLKDCJE@?$FL?$CFs?$FN?5Chatroom?5create?5result?5?$CI?$CFd?$CJ@ ; `string'
PUBLIC	??_C@_0CD@HIFGHJCH@?$FL?$CFs?$FN?5Friend?5mail?5send?5?$CFs?5?$CISize?3?$CF@ ; `string'
PUBLIC	??_C@_0CC@MFFMGDDE@JoinServer?5mail?5send?5?$CFs?5?$CISize?3?$CFd@ ; `string'
PUBLIC	??_C@_0DF@HMMPGHMB@?$FL?$CFs?$FN?$FL?$CFs?$FN?5?$CI?$CFs?$CJ?5Pay?5Money?$CIIn?5Inven@ ; `string'
PUBLIC	??_C@_06EBHHHLPK@webzen?$AA@			; `string'
PUBLIC	??_C@_0CD@EFIPOPHK@JoinServer?5Send?5Mail?5result?5?3?5?$CI?$CF@ ; `string'
PUBLIC	??_C@_0CO@FGOJBJPG@?$FL?$CFs?$FN?5Friend?5mail?5Send?5result?5?3?5?$CI@ ; `string'
PUBLIC	??_C@_04JEGKNAHI@Mail?$AA@			; `string'
PUBLIC	??_C@_0BO@BLCCADHK@?$FL?$CFs?$FN?5Friend?5mail?5list?5request?$AA@ ; `string'
PUBLIC	??_C@_0CI@INBOEHDN@?$FL?$CFs?$FN?5Friend?5Mail?5list?5?3?5?$CI?$CFd?3?$CF10s@ ; `string'
PUBLIC	??_C@_0BP@DKLEPGIB@?$FL?$CFs?$FN?5Friend?5Mail?5read?5Index?3?$CFd?$AA@ ; `string'
PUBLIC	??_C@_0CB@LDOIFNPP@error?9L2?5?3?5Friend?5Memo?5Max?5?$CFs?5?$CFd@ ; `string'
PUBLIC	??_C@_0BL@NKLNIHDF@?$FL?$CFs?$FN?5Friend?5Mail?5read?5?$CI?$CFd?$CJ?$AA@ ; `string'
PUBLIC	??_C@_0CL@CONIHEEP@?$FL?$CFs?$FN?5Friend?5mail?5delete?5request?5@ ; `string'
PUBLIC	??_C@_0DA@BCDIIKMO@?$FL?$CFs?$FN?5Friend?5mail?5delete?5request?5@ ; `string'
PUBLIC	??_C@_0DD@OCMMINHH@?$FL?$CFs?$FN?5Friend?5Invistation?5request?5@ ; `string'
PUBLIC	??_C@_0CC@LIINHIPA@?$FL?$CFs?$FN?5Friend?5Invitation?5result?5?3?$CF@ ; `string'
EXTRN	??_M@YGXPAXIIP6EX0@Z@Z:PROC			; `eh vector destructor iterator'
EXTRN	??3@YAXPAXI@Z:PROC				; operator delete
EXTRN	??_V@YAXPAXI@Z:PROC				; operator delete[]
EXTRN	_isalnum:PROC
EXTRN	_strncpy:PROC
EXTRN	__imp__wsprintfA:PROC
EXTRN	__imp__SendMessageA@16:PROC
EXTRN	__imp__IsWindow@4:PROC
EXTRN	__imp__ShowWindow@8:PROC
EXTRN	__imp__CreateDialogParamA@20:PROC
EXTRN	__imp__EndDialog@8:PROC
EXTRN	__imp__GetDlgItem@8:PROC
EXTRN	__imp__SetDlgItemTextA@12:PROC
EXTRN	__imp__MessageBoxA@16:PROC
EXTRN	?Get@Message@@QAEPADH@Z:PROC			; Message::Get
EXTRN	??1CSkillDelay@@UAE@XZ:PROC			; CSkillDelay::~CSkillDelay
EXTRN	?DataSend@@YAHHPAEK@Z:PROC			; DataSend
EXTRN	?AddGuild@CGuildClass@@QAEPAU_GUILD_INFO_STRUCT@@HPADPAE0H@Z:PROC ; CGuildClass::AddGuild
EXTRN	?AddMember@CGuildClass@@QAEPAU_GUILD_INFO_STRUCT@@PAD0HHHH@Z:PROC ; CGuildClass::AddMember
EXTRN	?SetGuildMemberStatus@CGuildClass@@QAEHPAD0H@Z:PROC ; CGuildClass::SetGuildMemberStatus
EXTRN	?SetGuildType@CGuildClass@@QAEHPADH@Z:PROC	; CGuildClass::SetGuildType
EXTRN	?DelMember@CGuildClass@@QAEHPAD0@Z:PROC		; CGuildClass::DelMember
EXTRN	?DeleteGuild@CGuildClass@@QAEHPAD0@Z:PROC	; CGuildClass::DeleteGuild
EXTRN	?ConnectUser@CGuildClass@@QAEHPAU_GUILD_INFO_STRUCT@@PAD1HH@Z:PROC ; CGuildClass::ConnectUser
EXTRN	?SetServer@CGuildClass@@QAEHPAD0H@Z:PROC	; CGuildClass::SetServer
EXTRN	?SearchGuild@CGuildClass@@QAEPAU_GUILD_INFO_STRUCT@@PAD@Z:PROC ; CGuildClass::SearchGuild
EXTRN	?SearchGuild_Number@CGuildClass@@QAEPAU_GUILD_INFO_STRUCT@@H@Z:PROC ; CGuildClass::SearchGuild_Number
EXTRN	?CloseMember@CGuildClass@@QAEHPAD0@Z:PROC	; CGuildClass::CloseMember
EXTRN	??1TMonsterAIAgro@@UAE@XZ:PROC			; TMonsterAIAgro::~TMonsterAIAgro
EXTRN	?GCResultSend@@YAXHEE@Z:PROC			; GCResultSend
EXTRN	?GCServerMsgStringSend@@YAXPADHE@Z:PROC		; GCServerMsgStringSend
EXTRN	?GCMoneySend@@YAXHK@Z:PROC			; GCMoneySend
EXTRN	?GCGuildViewportNowPaint@@YAXHPADPAEH@Z:PROC	; GCGuildViewportNowPaint
EXTRN	?GCGuildViewportDelNow@@YAXHH@Z:PROC		; GCGuildViewportDelNow
EXTRN	?GCGuildWarDeclare@@YAXHPAD@Z:PROC		; GCGuildWarDeclare
EXTRN	?GCGuildWarScore@@YAXH@Z:PROC			; GCGuildWarScore
EXTRN	?gObjIsConnectedGP@@YAHHPAD@Z:PROC		; gObjIsConnectedGP
EXTRN	?gObjIsConnectedGP@@YAHH@Z:PROC			; gObjIsConnectedGP
EXTRN	?gObjIsConnected@@YAHH@Z:PROC			; gObjIsConnected
EXTRN	?gObjNotifyUpdateUnionV1@@YAXPAUOBJECTSTRUCT@@@Z:PROC ; gObjNotifyUpdateUnionV1
EXTRN	?gObjNotifyUpdateUnionV2@@YAXPAUOBJECTSTRUCT@@@Z:PROC ; gObjNotifyUpdateUnionV2
EXTRN	?PHeadSetB@@YAXPAEEH@Z:PROC			; PHeadSetB
EXTRN	?PHeadSetW@@YAXPAEEH@Z:PROC			; PHeadSetW
EXTRN	?SetGuildUnionMemberList@TUnion@@QAEHHHPBH@Z:PROC ; TUnion::SetGuildUnionMemberList
EXTRN	?SetGuildRivalMemberList@TUnion@@QAEHHHPBH@Z:PROC ; TUnion::SetGuildRivalMemberList
EXTRN	?GetGuildUnionMemberList@TUnion@@QAEHHAAHPAH@Z:PROC ; TUnion::GetGuildUnionMemberList
EXTRN	?AddUnion@TUnion@@QAEHHPAD@Z:PROC		; TUnion::AddUnion
EXTRN	?DelUnion@TUnion@@QAEHH@Z:PROC			; TUnion::DelUnion
EXTRN	?DataSend@wsJoinServerCli@@QAEHPADH@Z:PROC	; wsJoinServerCli::DataSend
EXTRN	?GameServerInfoSendStop@@YAXXZ:PROC		; GameServerInfoSendStop
EXTRN	?GameServerInfoSendStart@@YAXXZ:PROC		; GameServerInfoSendStart
EXTRN	??0TNotice@@QAE@E@Z:PROC			; TNotice::TNotice
EXTRN	?SendToUser@TNotice@@QAAXHPADZZ:PROC		; TNotice::SendToUser
EXTRN	?GetCsJoinSide@CCastleSiege@@QAEHPADPAE1@Z:PROC	; CCastleSiege::GetCsJoinSide
EXTRN	?NotifySelfCsJoinSide@CCastleSiege@@QAEXH@Z:PROC ; CCastleSiege::NotifySelfCsJoinSide
EXTRN	@__security_check_cookie@4:PROC
EXTRN	___CxxFrameHandler3:PROC
EXTRN	__chkstk:PROC
EXTRN	_memcpy:PROC
EXTRN	_memset:PROC
EXTRN	?lMsg@@3VMessage@@A:BYTE			; lMsg
EXTRN	?LogAdd@@3P6AXPADZZA:DWORD			; LogAdd
EXTRN	?LogAddTD@@3P6AXPADZZA:DWORD			; LogAddTD
EXTRN	?gObj@@3PAUOBJECTSTRUCT@@A:DWORD		; gObj
EXTRN	?UnionManager@@3VTUnion@@A:BYTE			; UnionManager
EXTRN	?ghWnd@@3PAUHWND__@@A:DWORD			; ghWnd
EXTRN	?GameServerPort@@3HA:DWORD			; GameServerPort
EXTRN	?wsExDbCli@@3VwsJoinServerCli@@A:BYTE		; wsExDbCli
EXTRN	?Guild@@3VCGuildClass@@A:BYTE			; Guild
EXTRN	?szServerName@@3PADA:BYTE			; szServerName
EXTRN	?gGameServerCode@@3FA:WORD			; gGameServerCode
EXTRN	?g_CastleSiege@@3VCCastleSiege@@A:BYTE		; g_CastleSiege
EXTRN	___security_cookie:DWORD
;	COMDAT ??_C@_0CC@LIINHIPA@?$FL?$CFs?$FN?5Friend?5Invitation?5result?5?3?$CF@
CONST	SEGMENT
??_C@_0CC@LIINHIPA@?$FL?$CFs?$FN?5Friend?5Invitation?5result?5?3?$CF@ DB '['
	DB	'%s] Friend Invitation result :%d', 00H	; `string'
CONST	ENDS
;	COMDAT ??_C@_0DD@OCMMINHH@?$FL?$CFs?$FN?5Friend?5Invistation?5request?5@
CONST	SEGMENT
??_C@_0DD@OCMMINHH@?$FL?$CFs?$FN?5Friend?5Invistation?5request?5@ DB '[%s'
	DB	'] Friend Invistation request room:%d winguid:%d', 00H ; `string'
CONST	ENDS
;	COMDAT ??_C@_0DA@BCDIIKMO@?$FL?$CFs?$FN?5Friend?5mail?5delete?5request?5@
CONST	SEGMENT
??_C@_0DA@BCDIIKMO@?$FL?$CFs?$FN?5Friend?5mail?5delete?5request?5@ DB '[%'
	DB	's] Friend mail delete request (%d) index:(%d)', 00H ; `string'
CONST	ENDS
;	COMDAT ??_C@_0CL@CONIHEEP@?$FL?$CFs?$FN?5Friend?5mail?5delete?5request?5@
CONST	SEGMENT
??_C@_0CL@CONIHEEP@?$FL?$CFs?$FN?5Friend?5mail?5delete?5request?5@ DB '[%'
	DB	's] Friend mail delete request Index:(%d)', 00H ; `string'
CONST	ENDS
;	COMDAT ??_C@_0BL@NKLNIHDF@?$FL?$CFs?$FN?5Friend?5Mail?5read?5?$CI?$CFd?$CJ?$AA@
CONST	SEGMENT
??_C@_0BL@NKLNIHDF@?$FL?$CFs?$FN?5Friend?5Mail?5read?5?$CI?$CFd?$CJ?$AA@ DB '['
	DB	'%s] Friend Mail read (%d)', 00H		; `string'
CONST	ENDS
;	COMDAT ??_C@_0CB@LDOIFNPP@error?9L2?5?3?5Friend?5Memo?5Max?5?$CFs?5?$CFd@
CONST	SEGMENT
??_C@_0CB@LDOIFNPP@error?9L2?5?3?5Friend?5Memo?5Max?5?$CFs?5?$CFd@ DB 'er'
	DB	'ror-L2 : Friend Memo Max %s %d', 00H	; `string'
CONST	ENDS
;	COMDAT ??_C@_0BP@DKLEPGIB@?$FL?$CFs?$FN?5Friend?5Mail?5read?5Index?3?$CFd?$AA@
CONST	SEGMENT
??_C@_0BP@DKLEPGIB@?$FL?$CFs?$FN?5Friend?5Mail?5read?5Index?3?$CFd?$AA@ DB '['
	DB	'%s] Friend Mail read Index:%d', 00H		; `string'
CONST	ENDS
;	COMDAT ??_C@_0CI@INBOEHDN@?$FL?$CFs?$FN?5Friend?5Mail?5list?5?3?5?$CI?$CFd?3?$CF10s@
CONST	SEGMENT
??_C@_0CI@INBOEHDN@?$FL?$CFs?$FN?5Friend?5Mail?5list?5?3?5?$CI?$CFd?3?$CF10s@ DB '['
	DB	'%s] Friend Mail list : (%d:%10s:%s:%s)', 00H ; `string'
CONST	ENDS
;	COMDAT ??_C@_0BO@BLCCADHK@?$FL?$CFs?$FN?5Friend?5mail?5list?5request?$AA@
CONST	SEGMENT
??_C@_0BO@BLCCADHK@?$FL?$CFs?$FN?5Friend?5mail?5list?5request?$AA@ DB '[%'
	DB	's] Friend mail list request', 00H		; `string'
CONST	ENDS
;	COMDAT ??_C@_04JEGKNAHI@Mail?$AA@
CONST	SEGMENT
??_C@_04JEGKNAHI@Mail?$AA@ DB 'Mail', 00H		; `string'
CONST	ENDS
;	COMDAT ??_C@_0CO@FGOJBJPG@?$FL?$CFs?$FN?5Friend?5mail?5Send?5result?5?3?5?$CI@
CONST	SEGMENT
??_C@_0CO@FGOJBJPG@?$FL?$CFs?$FN?5Friend?5mail?5Send?5result?5?3?5?$CI@ DB '['
	DB	'%s] Friend mail Send result : (%d) guid:(%d)', 00H ; `string'
CONST	ENDS
;	COMDAT ??_C@_0CD@EFIPOPHK@JoinServer?5Send?5Mail?5result?5?3?5?$CI?$CF@
CONST	SEGMENT
??_C@_0CD@EFIPOPHK@JoinServer?5Send?5Mail?5result?5?3?5?$CI?$CF@ DB 'Join'
	DB	'Server Send Mail result : (%d)', 00H	; `string'
CONST	ENDS
;	COMDAT ??_C@_06EBHHHLPK@webzen?$AA@
CONST	SEGMENT
??_C@_06EBHHHLPK@webzen?$AA@ DB 'webzen', 00H		; `string'
CONST	ENDS
;	COMDAT ??_C@_0DF@HMMPGHMB@?$FL?$CFs?$FN?$FL?$CFs?$FN?5?$CI?$CFs?$CJ?5Pay?5Money?$CIIn?5Inven@
CONST	SEGMENT
??_C@_0DF@HMMPGHMB@?$FL?$CFs?$FN?$FL?$CFs?$FN?5?$CI?$CFs?$CJ?5Pay?5Money?$CIIn?5Inven@ DB '['
	DB	'%s][%s] (%s) Pay Money(In Inventory) : %d - %d = %d', 00H ; `string'
CONST	ENDS
;	COMDAT ??_C@_0CC@MFFMGDDE@JoinServer?5mail?5send?5?$CFs?5?$CISize?3?$CFd@
CONST	SEGMENT
??_C@_0CC@MFFMGDDE@JoinServer?5mail?5send?5?$CFs?5?$CISize?3?$CFd@ DB 'Jo'
	DB	'inServer mail send %s (Size:%d)', 00H	; `string'
CONST	ENDS
;	COMDAT ??_C@_0CD@HIFGHJCH@?$FL?$CFs?$FN?5Friend?5mail?5send?5?$CFs?5?$CISize?3?$CF@
CONST	SEGMENT
??_C@_0CD@HIFGHJCH@?$FL?$CFs?$FN?5Friend?5mail?5send?5?$CFs?5?$CISize?3?$CF@ DB '['
	DB	'%s] Friend mail send %s (Size:%d)', 00H	; `string'
CONST	ENDS
;	COMDAT ??_C@_0CN@LPLKDCJE@?$FL?$CFs?$FN?5Chatroom?5create?5result?5?$CI?$CFd?$CJ@
CONST	SEGMENT
??_C@_0CN@LPLKDCJE@?$FL?$CFs?$FN?5Chatroom?5create?5result?5?$CI?$CFd?$CJ@ DB '['
	DB	'%s] Chatroom create result (%d) ticket:(%d)', 00H ; `string'
CONST	ENDS
;	COMDAT ??_C@_0BM@JEKCBGDH@error?9L2?5?3?5Index?5?$CFs?5?$CFd?5?$CI?$CFs?$CJ?$AA@
CONST	SEGMENT
??_C@_0BM@JEKCBGDH@error?9L2?5?3?5Index?5?$CFs?5?$CFd?5?$CI?$CFs?$CJ?$AA@ DB 'e'
	DB	'rror-L2 : Index %s %d (%s)', 00H		; `string'
CONST	ENDS
;	COMDAT ??_C@_0CC@HAGNMCFJ@?$FL?$CFs?$FN?5Chatroom?5create?5request?5?$FL?$CFs@
CONST	SEGMENT
??_C@_0CC@HAGNMCFJ@?$FL?$CFs?$FN?5Chatroom?5create?5request?5?$FL?$CFs@ DB '['
	DB	'%s] Chatroom create request [%s]', 00H	; `string'
CONST	ENDS
;	COMDAT ??_C@_0CB@NCMBHLMH@?$FL?$CFs?$FN?5Friend?5del?5result?5?$CI?$CFd?$CJ?5?$FL?$CFs?$FN@
CONST	SEGMENT
??_C@_0CB@NCMBHLMH@?$FL?$CFs?$FN?5Friend?5del?5result?5?$CI?$CFd?$CJ?5?$FL?$CFs?$FN@ DB '['
	DB	'%s] Friend del result (%d) [%s]', 00H	; `string'
CONST	ENDS
;	COMDAT ??_C@_0BN@HLFBKLAE@?$FL?$CFs?$FN?5Friend?5del?5request?5?$FL?$CFs?$FN?$AA@
CONST	SEGMENT
??_C@_0BN@HLFBKLAE@?$FL?$CFs?$FN?5Friend?5del?5request?5?$FL?$CFs?$FN?$AA@ DB '['
	DB	'%s] Friend del request [%s]', 00H		; `string'
CONST	ENDS
;	COMDAT ??_C@_0CF@CCKIBLLA@?$FL?$CFs?$FN?5WaitFriend?5add?5result?5?$CI?$CFd?$CJ?5@
CONST	SEGMENT
??_C@_0CF@CCKIBLLA@?$FL?$CFs?$FN?5WaitFriend?5add?5result?5?$CI?$CFd?$CJ?5@ DB '['
	DB	'%s] WaitFriend add result (%d) [%s]', 00H	; `string'
CONST	ENDS
;	COMDAT ??_C@_0CB@IIBIOFAA@?$FL?$CFs?$FN?5WaitFriend?5add?5request?5?$FL?$CFs?$FN@
CONST	SEGMENT
??_C@_0CB@IIBIOFAA@?$FL?$CFs?$FN?5WaitFriend?5add?5request?5?$FL?$CFs?$FN@ DB '['
	DB	'%s] WaitFriend add request [%s]', 00H	; `string'
CONST	ENDS
;	COMDAT ??_C@_0DB@NPDFCIKD@?$FL?$CFs?$FN?5Friend?5add?5result?5?3?5?$CI?$CFd?$CJ?5fr@
CONST	SEGMENT
??_C@_0DB@NPDFCIKD@?$FL?$CFs?$FN?5Friend?5add?5result?5?3?5?$CI?$CFd?$CJ?5fr@ DB '['
	DB	'%s] Friend add result : (%d) friend Name : (%s)', 00H ; `string'
CONST	ENDS
;	COMDAT ??_C@_0CG@JNIACLCP@error?9L3?5?3?5?$FL?$CFs?$FN?5Friend?5add?5?3?5Not@
CONST	SEGMENT
??_C@_0CG@JNIACLCP@error?9L3?5?3?5?$FL?$CFs?$FN?5Friend?5add?5?3?5Not@ DB 'e'
	DB	'rror-L3 : [%s] Friend add : Not self', 00H	; `string'
CONST	ENDS
;	COMDAT ??_C@_0CD@OOGOJAIC@?$FL?$CFs?$FN?5Friend?5add?5request?5Name?3?5?$FL?$CF@
CONST	SEGMENT
??_C@_0CD@OOGOJAIC@?$FL?$CFs?$FN?5Friend?5add?5request?5Name?3?5?$FL?$CF@ DB '['
	DB	'%s] Friend add request Name: [%s]', 00H	; `string'
CONST	ENDS
;	COMDAT ??_C@_0BH@OEEJLGGK@?$FL?$CFs?$FN?5Friend?5State?5?$CI?$CFd?$CJ?$AA@
CONST	SEGMENT
??_C@_0BH@OEEJLGGK@?$FL?$CFs?$FN?5Friend?5State?5?$CI?$CFd?$CJ?$AA@ DB '['
	DB	'%s] Friend State (%d)', 00H			; `string'
CONST	ENDS
;	COMDAT ??_C@_0BK@HLHJLCCE@?$FL?$CFs?$FN?5WaitFriend?5List?5?$FL?$CFs?$FN?$AA@
CONST	SEGMENT
??_C@_0BK@HLHJLCCE@?$FL?$CFs?$FN?5WaitFriend?5List?5?$FL?$CFs?$FN?$AA@ DB '['
	DB	'%s] WaitFriend List [%s]', 00H		; `string'
CONST	ENDS
;	COMDAT ??_C@_0BN@DOMMEPOB@error?9L2?5?3?5?$CI?$CFs?$CJ?5Index?5?$CFs?5?$CFd?5?$AA@
CONST	SEGMENT
??_C@_0BN@DOMMEPOB@error?9L2?5?3?5?$CI?$CFs?$CJ?5Index?5?$CFs?5?$CFd?5?$AA@ DB 'e'
	DB	'rror-L2 : (%s) Index %s %d ', 00H		; `string'
CONST	ENDS
;	COMDAT ??_C@_0CB@HGMGGPGK@?$FL?$CFs?$FN?5Friend?5List?5Count?5?$CI?$CFd?$CJ?5Send@
CONST	SEGMENT
??_C@_0CB@HGMGGPGK@?$FL?$CFs?$FN?5Friend?5List?5Count?5?$CI?$CFd?$CJ?5Send@ DB '['
	DB	'%s] Friend List Count (%d) Send', 00H	; `string'
CONST	ENDS
;	COMDAT ??_C@_0BJ@BDFPCOJL@?$FL?$CFs?$FN?5Friend?5List?5Request?$AA@
CONST	SEGMENT
??_C@_0BJ@BDFPCOJL@?$FL?$CFs?$FN?5Friend?5List?5Request?$AA@ DB '[%s] Fri'
	DB	'end List Request', 00H			; `string'
CONST	ENDS
;	COMDAT ??_C@_0CJ@EJJNCKNG@error?9L3?5?3?5?$FL?$CFs?$FN?$FL?$CFs?$FN?5FriendServer@
CONST	SEGMENT
??_C@_0CJ@EJJNCKNG@error?9L3?5?3?5?$FL?$CFs?$FN?$FL?$CFs?$FN?5FriendServer@ DB 'e'
	DB	'rror-L3 : [%s][%s] FriendServer Offline', 00H ; `string'
CONST	ENDS
;	COMDAT ??_C@_0DB@ELGELCGP@error?9L3?5?3?5?$FL?$CFs?$FN?$FL?$CFs?$FN?5FriendServer@
CONST	SEGMENT
??_C@_0DB@ELGELCGP@error?9L3?5?3?5?$FL?$CFs?$FN?$FL?$CFs?$FN?5FriendServer@ DB 'e'
	DB	'rror-L3 : [%s][%s] FriendServer Online Request ', 00H ; `string'
CONST	ENDS
;	COMDAT ??_C@_0BH@LCDOHCGD@error?9L2?5?3?5Index?5?$CFs?5?$CFd?$AA@
CONST	SEGMENT
??_C@_0BH@LCDOHCGD@error?9L2?5?3?5Index?5?$CFs?5?$CFd?$AA@ DB 'error-L2 :'
	DB	' Index %s %d', 00H				; `string'
CONST	ENDS
;	COMDAT ??_C@_0BA@FCCBMCDG@EDSProtocol?4cpp?$AA@
CONST	SEGMENT
??_C@_0BA@FCCBMCDG@EDSProtocol?4cpp?$AA@ DB 'EDSProtocol.cpp', 00H ; `string'
CONST	ENDS
;	COMDAT ??_C@_0FE@MHBNIMHI@?$FLGS?$FN?$FLU?4System?$FN?$FLUnion?$FN?$FLKickOut?$FN?5?$CI@
CONST	SEGMENT
??_C@_0FE@MHBNIMHI@?$FLGS?$FN?$FLU?4System?$FN?$FLUnion?$FN?$FLKickOut?$FN?5?$CI@ DB '['
	DB	'GS][U.System][Union][KickOut] ( Union Master Guild: %s ), (Un'
	DB	'ion Member Guild: %s)', 00H			; `string'
CONST	ENDS
;	COMDAT ??_C@_0FG@CCGCMLDE@?$FLU?4System?$FN?$FLUnion?$FN?$FLAuto?5BreakOff?$FN@
CONST	SEGMENT
??_C@_0FG@CCGCMLDE@?$FLU?4System?$FN?$FLUnion?$FN?$FLAuto?5BreakOff?$FN@ DB '['
	DB	'U.System][Union][Auto BreakOff] ( Union Master Guild: %s ), ('
	DB	'Union Member Guild: %s)', 00H		; `string'
CONST	ENDS
;	COMDAT ??_C@_0CO@FKCLICLC@?$FLU?4System?$FN?$FLRival?$FN?$FLBreakOff?$FN?5?$CI?5?5?$CF@
CONST	SEGMENT
??_C@_0CO@FKCLICLC@?$FLU?4System?$FN?$FLRival?$FN?$FLBreakOff?$FN?5?$CI?5?5?$CF@ DB '['
	DB	'U.System][Rival][BreakOff] (  %s ) vs ( %s )', 00H ; `string'
CONST	ENDS
;	COMDAT ??_C@_0FF@IACINBOG@?$FLGS?$FN?$FLU?4System?$FN?$FLUnion?$FN?$FLBreakOff?$FN?5@
CONST	SEGMENT
??_C@_0FF@IACINBOG@?$FLGS?$FN?$FLU?4System?$FN?$FLUnion?$FN?$FLBreakOff?$FN?5@ DB '['
	DB	'GS][U.System][Union][BreakOff] ( Union Master Guild: %s ), (U'
	DB	'nion Member Guild: %s)', 00H		; `string'
CONST	ENDS
;	COMDAT ??_C@_0EA@EGALHNLI@?$FLGS?$FN?$FLU?4System?$FN?$FLUnion?$FN?$FLBreakOff?$FN?5@
CONST	SEGMENT
??_C@_0EA@EGALHNLI@?$FLGS?$FN?$FLU?4System?$FN?$FLUnion?$FN?$FLBreakOff?$FN?5@ DB '['
	DB	'GS][U.System][Union][BreakOff] Request Union Member Guild: %s'
	DB	')', 00H					; `string'
CONST	ENDS
;	COMDAT ??_C@_0CK@CDNGEFAB@?$FLU?4System?$FN?$FLRival?$FN?$FLJoin?$FN?5?$CI?5?5?$CFs?5?$CJ?5@
CONST	SEGMENT
??_C@_0CK@CDNGEFAB@?$FLU?4System?$FN?$FLRival?$FN?$FLJoin?$FN?5?$CI?5?5?$CFs?5?$CJ?5@ DB '['
	DB	'U.System][Rival][Join] (  %s ) vs ( %s )', 00H ; `string'
CONST	ENDS
;	COMDAT ??_C@_0EN@PFEKLNHO@?$FLU?4System?$FN?$FLUnion?$FN?$FLJoin?$FN?5?$CI?5Union?5@
CONST	SEGMENT
??_C@_0EN@PFEKLNHO@?$FLU?4System?$FN?$FLUnion?$FN?$FLJoin?$FN?5?$CI?5Union?5@ DB '['
	DB	'U.System][Union][Join] ( Union Master Guild: %s ), (Union Mem'
	DB	'ber Guild: %s)', 00H			; `string'
CONST	ENDS
;	COMDAT ??_C@_0FA@EEENHOBM@?$FLU?4System?$FN?$FLGuild?5Status?$FN?$FLAssign?$FN@
CONST	SEGMENT
??_C@_0FA@EEENHOBM@?$FLU?4System?$FN?$FLGuild?5Status?$FN?$FLAssign?$FN@ DB '['
	DB	'U.System][Guild Status][Assign] Guild : ( %s ) Member : ( %s '
	DB	') Status : ( %d )', 00H			; `string'
CONST	ENDS
;	COMDAT ??_C@_0O@BNCDNIJM@?$CF8s?5?$FL?$CFd?5?1?5?$CFd?$FN?$AA@
CONST	SEGMENT
??_C@_0O@BNCDNIJM@?$CF8s?5?$FL?$CFd?5?1?5?$CFd?$FN?$AA@ DB '%8s [%d / %d]'
	DB	00H						; `string'
CONST	ENDS
;	COMDAT ??_C@_01FHEEJDEE@A?$AA@
CONST	SEGMENT
??_C@_01FHEEJDEE@A?$AA@ DB 'A', 00H			; `string'
CONST	ENDS
;	COMDAT ??_C@_0DK@MKLBBGMP@?$FLU?4System?$FN?$FLGuild?5Status?$FN?$FLInfo?$FN?5G@
CONST	SEGMENT
??_C@_0DK@MKLBBGMP@?$FLU?4System?$FN?$FLGuild?5Status?$FN?$FLInfo?$FN?5G@ DB '['
	DB	'U.System][Guild Status][Info] Guild : %s / [%s][%s] / %d', 00H ; `string'
CONST	ENDS
;	COMDAT ??_C@_0DE@PMHJKKOP@?$FLU?4System?$FN?5Guild?5is?5Created?5?9?5Gu@
CONST	SEGMENT
??_C@_0DE@PMHJKKOP@?$FLU?4System?$FN?5Guild?5is?5Created?5?9?5Gu@ DB '[U.'
	DB	'System] Guild is Created - Guild : %s / [%s][%s]', 00H ; `string'
CONST	ENDS
;	COMDAT ??_C@_0BL@MLPIPIDH@ExDB?5Server?5Login?5Fail?3?5?$CFd?$AA@
CONST	SEGMENT
??_C@_0BL@MLPIPIDH@ExDB?5Server?5Login?5Fail?3?5?$CFd?$AA@ DB 'ExDB Serve'
	DB	'r Login Fail: %d', 00H			; `string'
CONST	ENDS
;	COMDAT xdata$x
xdata$x	SEGMENT
__ehfuncinfo$??_EOBJECTSTRUCT@@QAEPAXI@Z DD 019930522H
	DD	00H
	DD	00H
	DD	2 DUP(00H)
	DD	2 DUP(00H)
	DD	00H
	DD	05H
xdata$x	ENDS
; Function compile flags: /Ogtp
; File c:\users\michel\desktop\source\gameserver\source\edsprotocol.cpp
;	COMDAT ?CheckSymbol@@YAHPAD@Z
_TEXT	SEGMENT
_szString$ = 8						; size = 4
?CheckSymbol@@YAHPAD@Z PROC				; CheckSymbol, COMDAT

; 991  : {

  00000	55		 push	 ebp
  00001	8b ec		 mov	 ebp, esp
  00003	53		 push	 ebx

; 992  : 	if(szString == NULL)

  00004	8b 5d 08	 mov	 ebx, DWORD PTR _szString$[ebp]
  00007	85 db		 test	 ebx, ebx
  00009	75 06		 jne	 SHORT $LN5@CheckSymbo

; 993  : 		return TRUE;

  0000b	8d 43 01	 lea	 eax, DWORD PTR [ebx+1]
  0000e	5b		 pop	 ebx

; 1003 : }

  0000f	5d		 pop	 ebp
  00010	c3		 ret	 0
$LN5@CheckSymbo:
  00011	57		 push	 edi

; 994  : 
; 995  : 	int len = strlen(szString);

  00012	8b fb		 mov	 edi, ebx
  00014	8d 4f 01	 lea	 ecx, DWORD PTR [edi+1]
$LL13@CheckSymbo:
  00017	8a 07		 mov	 al, BYTE PTR [edi]
  00019	47		 inc	 edi
  0001a	84 c0		 test	 al, al
  0001c	75 f9		 jne	 SHORT $LL13@CheckSymbo
  0001e	56		 push	 esi
  0001f	2b f9		 sub	 edi, ecx

; 996  : 
; 997  : 	for(int i = 0; i < len;i++)

  00021	33 f6		 xor	 esi, esi
  00023	85 ff		 test	 edi, edi
  00025	7e 1f		 jle	 SHORT $LN3@CheckSymbo
  00027	66 0f 1f 84 00
	00 00 00 00	 npad	 9
$LL4@CheckSymbo:

; 998  : 	{
; 999  : 		if(isalnum(szString[i]) == FALSE)

  00030	0f be 04 1e	 movsx	 eax, BYTE PTR [esi+ebx]
  00034	50		 push	 eax
  00035	e8 00 00 00 00	 call	 _isalnum
  0003a	83 c4 04	 add	 esp, 4
  0003d	85 c0		 test	 eax, eax
  0003f	74 0c		 je	 SHORT $LN9@CheckSymbo

; 996  : 
; 997  : 	for(int i = 0; i < len;i++)

  00041	46		 inc	 esi
  00042	3b f7		 cmp	 esi, edi
  00044	7c ea		 jl	 SHORT $LL4@CheckSymbo
$LN3@CheckSymbo:
  00046	5e		 pop	 esi
  00047	5f		 pop	 edi

; 1001 : 	}
; 1002 : return FALSE;

  00048	33 c0		 xor	 eax, eax
  0004a	5b		 pop	 ebx

; 1003 : }

  0004b	5d		 pop	 ebp
  0004c	c3		 ret	 0
$LN9@CheckSymbo:
  0004d	5e		 pop	 esi
  0004e	5f		 pop	 edi

; 1000 : 			return TRUE;

  0004f	b8 01 00 00 00	 mov	 eax, 1
  00054	5b		 pop	 ebx

; 1003 : }

  00055	5d		 pop	 ebp
  00056	c3		 ret	 0
?CheckSymbol@@YAHPAD@Z ENDP				; CheckSymbol
_TEXT	ENDS
; Function compile flags: /Ogtp
; File c:\users\michel\desktop\source\gameserver\source\edsprotocol.cpp
;	COMDAT ?GDGuildUpdateRecv@@YAXPAE@Z
_TEXT	SEGMENT
_lpMsg$ = 8						; size = 4
?GDGuildUpdateRecv@@YAXPAE@Z PROC			; GDGuildUpdateRecv, COMDAT

; 723  : 	return;	// NO MAcro
; 724  : }

  00000	c3		 ret	 0
?GDGuildUpdateRecv@@YAXPAE@Z ENDP			; GDGuildUpdateRecv
_TEXT	ENDS
; Function compile flags: /Ogtp
; File c:\users\michel\desktop\source\gameserver\source\edsprotocol.cpp
;	COMDAT ?GDGuildUpdate@@YAXPAD0QAEHH@Z
_TEXT	SEGMENT
_pMsg$ = -68						; size = 64
__$ArrayPad$ = -4					; size = 4
_Name$ = 8						; size = 4
_Master$ = 12						; size = 4
_Mark$ = 16						; size = 4
_score$ = 20						; size = 4
_count$ = 24						; size = 4
?GDGuildUpdate@@YAXPAD0QAEHH@Z PROC			; GDGuildUpdate, COMDAT

; 705  : {

  00000	55		 push	 ebp
  00001	8b ec		 mov	 ebp, esp
  00003	83 ec 44	 sub	 esp, 68			; 00000044H
  00006	a1 00 00 00 00	 mov	 eax, DWORD PTR ___security_cookie
  0000b	33 c5		 xor	 eax, ebp
  0000d	89 45 fc	 mov	 DWORD PTR __$ArrayPad$[ebp], eax
  00010	8b 4d 08	 mov	 ecx, DWORD PTR _Name$[ebp]
  00013	8b 55 10	 mov	 edx, DWORD PTR _Mark$[ebp]
  00016	56		 push	 esi
  00017	8b 75 0c	 mov	 esi, DWORD PTR _Master$[ebp]

; 706  : 	SDHP_GUILDUPDATE pMsg;
; 707  : 
; 708  : 	pMsg.h.c = 0xC1;
; 709  : 	pMsg.h.headcode = 0x34;
; 710  : 	pMsg.h.size = sizeof(pMsg);
; 711  : 	memcpy(pMsg.GuildName, Name, MAX_GUILD_LEN);

  0001a	8b 01		 mov	 eax, DWORD PTR [ecx]

; 712  : 	memcpy(pMsg.Mark, Mark, sizeof(pMsg.Mark));

  0001c	0f 10 02	 movups	 xmm0, XMMWORD PTR [edx]
  0001f	89 45 bf	 mov	 DWORD PTR _pMsg$[ebp+3], eax
  00022	8b 41 04	 mov	 eax, DWORD PTR [ecx+4]

; 713  : 	memcpy(pMsg.Master, Master, MAX_ACCOUNT_LEN);
; 714  : 	pMsg.Score = score;
; 715  : 	pMsg.Count = count;
; 716  : 
; 717  : 	wsExDbCli.DataSend((char*)&pMsg, pMsg.h.size);

  00025	b9 00 00 00 00	 mov	 ecx, OFFSET ?wsExDbCli@@3VwsJoinServerCli@@A ; wsExDbCli
  0002a	89 45 c3	 mov	 DWORD PTR _pMsg$[ebp+7], eax
  0002d	66 8b 46 08	 mov	 ax, WORD PTR [esi+8]
  00031	66 89 45 d0	 mov	 WORD PTR _pMsg$[ebp+20], ax
  00035	8b 45 14	 mov	 eax, DWORD PTR _score$[ebp]
  00038	0f 11 45 d3	 movups	 XMMWORD PTR _pMsg$[ebp+23], xmm0
  0003c	89 45 f4	 mov	 DWORD PTR _pMsg$[ebp+56], eax
  0003f	0f 10 42 10	 movups	 xmm0, XMMWORD PTR [edx+16]
  00043	8a 45 18	 mov	 al, BYTE PTR _count$[ebp]
  00046	88 45 f8	 mov	 BYTE PTR _pMsg$[ebp+60], al
  00049	8d 45 bc	 lea	 eax, DWORD PTR _pMsg$[ebp]
  0004c	0f 11 45 e3	 movups	 XMMWORD PTR _pMsg$[ebp+39], xmm0
  00050	6a 40		 push	 64			; 00000040H
  00052	f3 0f 7e 06	 movq	 xmm0, QWORD PTR [esi]
  00056	50		 push	 eax
  00057	66 c7 45 bc c1
	40		 mov	 WORD PTR _pMsg$[ebp], 16577 ; 000040c1H
  0005d	c6 45 be 34	 mov	 BYTE PTR _pMsg$[ebp+2], 52 ; 00000034H
  00061	66 0f d6 45 c8	 movq	 QWORD PTR _pMsg$[ebp+12], xmm0
  00066	e8 00 00 00 00	 call	 ?DataSend@wsJoinServerCli@@QAEHPADH@Z ; wsJoinServerCli::DataSend

; 718  : }

  0006b	8b 4d fc	 mov	 ecx, DWORD PTR __$ArrayPad$[ebp]
  0006e	33 cd		 xor	 ecx, ebp
  00070	5e		 pop	 esi
  00071	e8 00 00 00 00	 call	 @__security_check_cookie@4
  00076	8b e5		 mov	 esp, ebp
  00078	5d		 pop	 ebp
  00079	c3		 ret	 0
?GDGuildUpdate@@YAXPAD0QAEHH@Z ENDP			; GDGuildUpdate
_TEXT	ENDS
; Function compile flags: /Ogtp
; File c:\users\michel\desktop\source\gameserver\common\winutil.h
;	COMDAT ?GetLength@char_ID@@QAEHXZ
_TEXT	SEGMENT
?GetLength@char_ID@@QAEHXZ PROC				; char_ID::GetLength, COMDAT
; _this$ = ecx

; 60   : 		return strlen(this->Name);

  00000	8d 51 01	 lea	 edx, DWORD PTR [ecx+1]
$LL3@GetLength:
  00003	8a 01		 mov	 al, BYTE PTR [ecx]
  00005	41		 inc	 ecx
  00006	84 c0		 test	 al, al
  00008	75 f9		 jne	 SHORT $LL3@GetLength
  0000a	2b ca		 sub	 ecx, edx
  0000c	8b c1		 mov	 eax, ecx

; 61   : 	}	// line : 65

  0000e	c3		 ret	 0
?GetLength@char_ID@@QAEHXZ ENDP				; char_ID::GetLength
_TEXT	ENDS
; Function compile flags: /Ogtp
; File c:\users\michel\desktop\source\gameserver\common\winutil.h
;	COMDAT ?GetBuffer@char_ID@@QAEPADXZ
_TEXT	SEGMENT
?GetBuffer@char_ID@@QAEPADXZ PROC			; char_ID::GetBuffer, COMDAT
; _this$ = ecx

; 55   : 		return this->Name;

  00000	8b c1		 mov	 eax, ecx

; 56   : 	}	// line : 54

  00002	c3		 ret	 0
?GetBuffer@char_ID@@QAEPADXZ ENDP			; char_ID::GetBuffer
_TEXT	ENDS
; Function compile flags: /Ogtp
; File c:\users\michel\desktop\source\gameserver\common\winutil.h
;	COMDAT ??0char_ID@@QAE@PAD@Z
_TEXT	SEGMENT
_szName$ = 8						; size = 4
??0char_ID@@QAE@PAD@Z PROC				; char_ID::char_ID, COMDAT
; _this$ = ecx

; 43   : 	char_ID(LPSTR szName)	// line : 44

  00000	55		 push	 ebp
  00001	8b ec		 mov	 ebp, esp

; 44   : 	{
; 45   : 		memset(this->Name, 0, sizeof(this->Name));
; 46   : 
; 47   : 		if ( szName != NULL )

  00003	8b 45 08	 mov	 eax, DWORD PTR _szName$[ebp]
  00006	0f 57 c0	 xorps	 xmm0, xmm0
  00009	66 0f d6 01	 movq	 QWORD PTR [ecx], xmm0
  0000d	66 c7 41 08 00
	00		 mov	 WORD PTR [ecx+8], 0
  00013	c6 41 0a 00	 mov	 BYTE PTR [ecx+10], 0
  00017	85 c0		 test	 eax, eax
  00019	74 10		 je	 SHORT $LN4@char_ID

; 48   : 		{
; 49   : 			memcpy(this->Name, szName, MAX_ACCOUNT_LEN);

  0001b	f3 0f 7e 00	 movq	 xmm0, QWORD PTR [eax]
  0001f	66 0f d6 01	 movq	 QWORD PTR [ecx], xmm0
  00023	66 8b 40 08	 mov	 ax, WORD PTR [eax+8]
  00027	66 89 41 08	 mov	 WORD PTR [ecx+8], ax
$LN4@char_ID:

; 50   : 		}
; 51   : 	}	// line : 49

  0002b	8b c1		 mov	 eax, ecx
  0002d	5d		 pop	 ebp
  0002e	c2 04 00	 ret	 4
??0char_ID@@QAE@PAD@Z ENDP				; char_ID::char_ID
_TEXT	ENDS
; Function compile flags: /Ogtp
; File c:\users\michel\desktop\source\gameserver\source\edsprotocol.cpp
; File c:\users\michel\desktop\source\gameserver\common\winutil.h
; File c:\users\michel\desktop\source\gameserver\source\edsprotocol.cpp
; File c:\users\michel\desktop\source\gameserver\common\winutil.h
; File c:\users\michel\desktop\source\gameserver\source\edsprotocol.cpp
; File c:\users\michel\desktop\source\gameserver\include\prodef.h
; File c:\users\michel\desktop\source\gameserver\source\edsprotocol.cpp
;	COMDAT ?FriendRoomInvitationRecv@@YAXPAUFHP_FRIEND_INVITATION_RET@@@Z
_TEXT	SEGMENT
_pMsg$ = -24						; size = 8
_Name$ = -16						; size = 11
__$ArrayPad$ = -4					; size = 4
_lpMsg$ = 8						; size = 4
?FriendRoomInvitationRecv@@YAXPAUFHP_FRIEND_INVITATION_RET@@@Z PROC ; FriendRoomInvitationRecv, COMDAT

; 3118 : {

  00000	55		 push	 ebp
  00001	8b ec		 mov	 ebp, esp
  00003	83 ec 18	 sub	 esp, 24			; 00000018H
  00006	a1 00 00 00 00	 mov	 eax, DWORD PTR ___security_cookie
  0000b	33 c5		 xor	 eax, ebp
  0000d	89 45 fc	 mov	 DWORD PTR __$ArrayPad$[ebp], eax
  00010	56		 push	 esi
  00011	8b 75 08	 mov	 esi, DWORD PTR _lpMsg$[ebp]
  00014	0f 57 c0	 xorps	 xmm0, xmm0
; File c:\users\michel\desktop\source\gameserver\common\winutil.h

; 45   : 		memset(this->Name, 0, sizeof(this->Name));

  00017	66 0f d6 45 f0	 movq	 QWORD PTR _Name$[ebp], xmm0
  0001c	66 c7 45 f8 00
	00		 mov	 WORD PTR _Name$[ebp+8], 0
  00022	c6 45 fa 00	 mov	 BYTE PTR _Name$[ebp+10], 0
; File c:\users\michel\desktop\source\gameserver\source\edsprotocol.cpp

; 3119 : 	char_ID Name(lpMsg->Name);

  00026	8d 46 06	 lea	 eax, DWORD PTR [esi+6]
; File c:\users\michel\desktop\source\gameserver\common\winutil.h

; 47   : 		if ( szName != NULL )

  00029	85 c0		 test	 eax, eax
  0002b	74 11		 je	 SHORT $LN5@FriendRoom

; 48   : 		{
; 49   : 			memcpy(this->Name, szName, MAX_ACCOUNT_LEN);

  0002d	f3 0f 7e 00	 movq	 xmm0, QWORD PTR [eax]
  00031	66 8b 40 08	 mov	 ax, WORD PTR [eax+8]
  00035	66 0f d6 45 f0	 movq	 QWORD PTR _Name$[ebp], xmm0
  0003a	66 89 45 f8	 mov	 WORD PTR _Name$[ebp+8], ax
$LN5@FriendRoom:
; File c:\users\michel\desktop\source\gameserver\source\edsprotocol.cpp

; 3121 : 	if ( !gObjIsConnectedGP(lpMsg->Number, Name.GetBuffer()))

  0003e	8d 45 f0	 lea	 eax, DWORD PTR _Name$[ebp]
  00041	50		 push	 eax
  00042	0f bf 46 04	 movsx	 eax, WORD PTR [esi+4]
  00046	50		 push	 eax
  00047	e8 00 00 00 00	 call	 ?gObjIsConnectedGP@@YAHHPAD@Z ; gObjIsConnectedGP
  0004c	83 c4 08	 add	 esp, 8
  0004f	85 c0		 test	 eax, eax
  00051	75 27		 jne	 SHORT $LN2@FriendRoom

; 3122 : 	{
; 3123 : 		LogAddTD("error-L2 : Index %s %d", __FILE__, __LINE__);

  00053	68 33 0c 00 00	 push	 3123			; 00000c33H
  00058	68 00 00 00 00	 push	 OFFSET ??_C@_0BA@FCCBMCDG@EDSProtocol?4cpp?$AA@
  0005d	68 00 00 00 00	 push	 OFFSET ??_C@_0BH@LCDOHCGD@error?9L2?5?3?5Index?5?$CFs?5?$CFd?$AA@
  00062	ff 15 00 00 00
	00		 call	 DWORD PTR ?LogAddTD@@3P6AXPADZZA ; LogAddTD
  00068	83 c4 0c	 add	 esp, 12			; 0000000cH
  0006b	5e		 pop	 esi

; 3136 : 		Name.GetBuffer(), pMsg.Result);
; 3137 : }

  0006c	8b 4d fc	 mov	 ecx, DWORD PTR __$ArrayPad$[ebp]
  0006f	33 cd		 xor	 ecx, ebp
  00071	e8 00 00 00 00	 call	 @__security_check_cookie@4
  00076	8b e5		 mov	 esp, ebp
  00078	5d		 pop	 ebp
  00079	c3		 ret	 0
$LN2@FriendRoom:

; 3124 : 		return;
; 3125 : 	}
; 3126 : 
; 3127 : 	PMSG_ROOM_INVITATION_RESULT pMsg;
; 3128 : 
; 3129 : 	pMsg.h.set((LPBYTE)&pMsg, 0xCB, sizeof(pMsg));
; 3130 : 	pMsg.Result = lpMsg->Result;

  0007a	8a 46 03	 mov	 al, BYTE PTR [esi+3]
  0007d	88 45 eb	 mov	 BYTE PTR _pMsg$[ebp+3], al

; 3131 : 	pMsg.WindowGuid = lpMsg->WindowGuid;

  00080	8b 46 10	 mov	 eax, DWORD PTR [esi+16]
  00083	89 45 ec	 mov	 DWORD PTR _pMsg$[ebp+4], eax

; 3133 : 	DataSend(lpMsg->Number, (LPBYTE)&pMsg, sizeof(pMsg));

  00086	8d 45 e8	 lea	 eax, DWORD PTR _pMsg$[ebp]
  00089	6a 08		 push	 8
  0008b	50		 push	 eax
  0008c	0f bf 46 04	 movsx	 eax, WORD PTR [esi+4]
  00090	50		 push	 eax
; File c:\users\michel\desktop\source\gameserver\include\prodef.h

; 86   : 		lpBuf[0] = 0xC1;

  00091	66 c7 45 e8 c1
	08		 mov	 WORD PTR _pMsg$[ebp], 2241 ; 000008c1H

; 87   : 		lpBuf[1] = size;
; 88   : 		lpBuf[2] = head;

  00097	c6 45 ea cb	 mov	 BYTE PTR _pMsg$[ebp+2], 203 ; 000000cbH
; File c:\users\michel\desktop\source\gameserver\source\edsprotocol.cpp

; 3133 : 	DataSend(lpMsg->Number, (LPBYTE)&pMsg, sizeof(pMsg));

  0009b	e8 00 00 00 00	 call	 ?DataSend@@YAHHPAEK@Z	; DataSend

; 3134 : 
; 3135 : 	LogAdd("[%s] Friend Invitation result :%d",

  000a0	0f b6 45 eb	 movzx	 eax, BYTE PTR _pMsg$[ebp+3]
  000a4	50		 push	 eax
  000a5	8d 45 f0	 lea	 eax, DWORD PTR _Name$[ebp]
  000a8	50		 push	 eax
  000a9	68 00 00 00 00	 push	 OFFSET ??_C@_0CC@LIINHIPA@?$FL?$CFs?$FN?5Friend?5Invitation?5result?5?3?$CF@
  000ae	ff 15 00 00 00
	00		 call	 DWORD PTR ?LogAdd@@3P6AXPADZZA ; LogAdd

; 3136 : 		Name.GetBuffer(), pMsg.Result);
; 3137 : }

  000b4	8b 4d fc	 mov	 ecx, DWORD PTR __$ArrayPad$[ebp]
  000b7	83 c4 18	 add	 esp, 24			; 00000018H
  000ba	33 cd		 xor	 ecx, ebp
  000bc	5e		 pop	 esi
  000bd	e8 00 00 00 00	 call	 @__security_check_cookie@4
  000c2	8b e5		 mov	 esp, ebp
  000c4	5d		 pop	 ebp
  000c5	c3		 ret	 0
?FriendRoomInvitationRecv@@YAXPAUFHP_FRIEND_INVITATION_RET@@@Z ENDP ; FriendRoomInvitationRecv
_TEXT	ENDS
; Function compile flags: /Ogtp
; File c:\users\michel\desktop\source\gameserver\source\edsprotocol.cpp
; File c:\users\michel\desktop\source\gameserver\include\prodef.h
; File c:\users\michel\desktop\source\gameserver\source\edsprotocol.cpp
;	COMDAT ?FriendRoomInvitationReq@@YAXPAUPMSG_ROOM_INVITATION@@H@Z
_TEXT	SEGMENT
_pMsg$ = -36						; size = 32
__$ArrayPad$ = -4					; size = 4
_lpMsg$ = 8						; size = 4
_aIndex$ = 12						; size = 4
?FriendRoomInvitationReq@@YAXPAUPMSG_ROOM_INVITATION@@H@Z PROC ; FriendRoomInvitationReq, COMDAT

; 3083 : {

  00000	55		 push	 ebp
  00001	8b ec		 mov	 ebp, esp
  00003	83 ec 24	 sub	 esp, 36			; 00000024H
  00006	a1 00 00 00 00	 mov	 eax, DWORD PTR ___security_cookie
  0000b	33 c5		 xor	 eax, ebp
  0000d	89 45 fc	 mov	 DWORD PTR __$ArrayPad$[ebp], eax
  00010	56		 push	 esi
  00011	8b 75 0c	 mov	 esi, DWORD PTR _aIndex$[ebp]
  00014	57		 push	 edi
  00015	8b 7d 08	 mov	 edi, DWORD PTR _lpMsg$[ebp]

; 3084 : 	if ( !gObjIsConnectedGP(aIndex))

  00018	56		 push	 esi
  00019	e8 00 00 00 00	 call	 ?gObjIsConnectedGP@@YAHH@Z ; gObjIsConnectedGP
  0001e	83 c4 04	 add	 esp, 4
  00021	85 c0		 test	 eax, eax
  00023	75 28		 jne	 SHORT $LN2@FriendRoom

; 3085 : 	{
; 3086 : 		LogAddTD("error-L2 : Index %s %d", __FILE__, __LINE__);

  00025	68 0e 0c 00 00	 push	 3086			; 00000c0eH
  0002a	68 00 00 00 00	 push	 OFFSET ??_C@_0BA@FCCBMCDG@EDSProtocol?4cpp?$AA@
  0002f	68 00 00 00 00	 push	 OFFSET ??_C@_0BH@LCDOHCGD@error?9L2?5?3?5Index?5?$CFs?5?$CFd?$AA@
  00034	ff 15 00 00 00
	00		 call	 DWORD PTR ?LogAddTD@@3P6AXPADZZA ; LogAddTD
  0003a	83 c4 0c	 add	 esp, 12			; 0000000cH
  0003d	5f		 pop	 edi
  0003e	5e		 pop	 esi

; 3102 : 		gObj[aIndex].Name, lpMsg->RoomNumber, lpMsg->WindowGuid);
; 3103 : }

  0003f	8b 4d fc	 mov	 ecx, DWORD PTR __$ArrayPad$[ebp]
  00042	33 cd		 xor	 ecx, ebp
  00044	e8 00 00 00 00	 call	 @__security_check_cookie@4
  00049	8b e5		 mov	 esp, ebp
  0004b	5d		 pop	 ebp
  0004c	c3		 ret	 0
$LN2@FriendRoom:

; 3087 : 		return;
; 3088 : 	}
; 3089 : 
; 3090 : 	FHP_FRIEND_INVITATION_REQ pMsg;
; 3091 : 
; 3092 : 	pMsg.h.set((LPBYTE)&pMsg, 0x74, sizeof(pMsg));
; 3093 : 	pMsg.Number = aIndex;
; 3094 : 	pMsg.RoomNumber = lpMsg->RoomNumber;

  0004d	0f b7 47 0e	 movzx	 eax, WORD PTR [edi+14]

; 3097 : 	memcpy(pMsg.Name, gObj[aIndex].Name, sizeof(pMsg.Name));
; 3098 : 
; 3099 : 	wsExDbCli.DataSend((PCHAR)&pMsg, pMsg.h.size);

  00051	b9 00 00 00 00	 mov	 ecx, OFFSET ?wsExDbCli@@3VwsJoinServerCli@@A ; wsExDbCli
  00056	f3 0f 7e 47 03	 movq	 xmm0, QWORD PTR [edi+3]
  0005b	66 89 45 f6	 mov	 WORD PTR _pMsg$[ebp+26], ax
  0005f	8b 47 10	 mov	 eax, DWORD PTR [edi+16]
  00062	89 45 f8	 mov	 DWORD PTR _pMsg$[ebp+28], eax
  00065	0f b7 47 0b	 movzx	 eax, WORD PTR [edi+11]
  00069	66 89 75 e0	 mov	 WORD PTR _pMsg$[ebp+4], si
  0006d	66 89 45 f4	 mov	 WORD PTR _pMsg$[ebp+24], ax
  00071	a1 00 00 00 00	 mov	 eax, DWORD PTR ?gObj@@3PAUOBJECTSTRUCT@@A ; gObj
  00076	69 f6 40 27 00
	00		 imul	 esi, esi, 10048
; File c:\users\michel\desktop\source\gameserver\include\prodef.h

; 86   : 		lpBuf[0] = 0xC1;

  0007c	66 c7 45 dc c1
	20		 mov	 WORD PTR _pMsg$[ebp], 8385 ; 000020c1H

; 87   : 		lpBuf[1] = size;
; 88   : 		lpBuf[2] = head;

  00082	c6 45 de 74	 mov	 BYTE PTR _pMsg$[ebp+2], 116 ; 00000074H
; File c:\users\michel\desktop\source\gameserver\source\edsprotocol.cpp

; 3096 : 	memcpy(pMsg.FriendName, lpMsg->Name, sizeof(pMsg.FriendName));

  00086	66 0f d6 45 ec	 movq	 QWORD PTR _pMsg$[ebp+16], xmm0

; 3097 : 	memcpy(pMsg.Name, gObj[aIndex].Name, sizeof(pMsg.Name));
; 3098 : 
; 3099 : 	wsExDbCli.DataSend((PCHAR)&pMsg, pMsg.h.size);

  0008b	6a 20		 push	 32			; 00000020H
  0008d	f3 0f 7e 44 06
	5d		 movq	 xmm0, QWORD PTR [esi+eax+93]
  00093	66 0f d6 45 e2	 movq	 QWORD PTR _pMsg$[ebp+6], xmm0
  00098	0f b7 44 06 65	 movzx	 eax, WORD PTR [esi+eax+101]
  0009d	66 89 45 ea	 mov	 WORD PTR _pMsg$[ebp+14], ax
  000a1	8d 45 dc	 lea	 eax, DWORD PTR _pMsg$[ebp]
  000a4	50		 push	 eax
  000a5	e8 00 00 00 00	 call	 ?DataSend@wsJoinServerCli@@QAEHPADH@Z ; wsJoinServerCli::DataSend

; 3100 : 
; 3101 : 	LogAdd("[%s] Friend Invistation request room:%d winguid:%d",

  000aa	ff 77 10	 push	 DWORD PTR [edi+16]
  000ad	0f b7 47 0e	 movzx	 eax, WORD PTR [edi+14]
  000b1	50		 push	 eax
  000b2	a1 00 00 00 00	 mov	 eax, DWORD PTR ?gObj@@3PAUOBJECTSTRUCT@@A ; gObj
  000b7	83 c0 5d	 add	 eax, 93			; 0000005dH
  000ba	03 c6		 add	 eax, esi
  000bc	50		 push	 eax
  000bd	68 00 00 00 00	 push	 OFFSET ??_C@_0DD@OCMMINHH@?$FL?$CFs?$FN?5Friend?5Invistation?5request?5@
  000c2	ff 15 00 00 00
	00		 call	 DWORD PTR ?LogAdd@@3P6AXPADZZA ; LogAdd

; 3102 : 		gObj[aIndex].Name, lpMsg->RoomNumber, lpMsg->WindowGuid);
; 3103 : }

  000c8	8b 4d fc	 mov	 ecx, DWORD PTR __$ArrayPad$[ebp]
  000cb	83 c4 10	 add	 esp, 16			; 00000010H
  000ce	33 cd		 xor	 ecx, ebp
  000d0	5f		 pop	 edi
  000d1	5e		 pop	 esi
  000d2	e8 00 00 00 00	 call	 @__security_check_cookie@4
  000d7	8b e5		 mov	 esp, ebp
  000d9	5d		 pop	 ebp
  000da	c3		 ret	 0
?FriendRoomInvitationReq@@YAXPAUPMSG_ROOM_INVITATION@@H@Z ENDP ; FriendRoomInvitationReq
_TEXT	ENDS
; Function compile flags: /Ogtp
; File c:\users\michel\desktop\source\gameserver\source\edsprotocol.cpp
; File c:\users\michel\desktop\source\gameserver\common\winutil.h
; File c:\users\michel\desktop\source\gameserver\source\edsprotocol.cpp
; File c:\users\michel\desktop\source\gameserver\common\winutil.h
; File c:\users\michel\desktop\source\gameserver\source\edsprotocol.cpp
; File c:\users\michel\desktop\source\gameserver\include\prodef.h
; File c:\users\michel\desktop\source\gameserver\source\edsprotocol.cpp
;	COMDAT ?FriendMemoDelResult@@YAXPAUFHP_FRIEND_MEMO_DEL_RESULT@@@Z
_TEXT	SEGMENT
_pMsg$ = -24						; size = 6
_Name$ = -16						; size = 11
__$ArrayPad$ = -4					; size = 4
_lpMsg$ = 8						; size = 4
?FriendMemoDelResult@@YAXPAUFHP_FRIEND_MEMO_DEL_RESULT@@@Z PROC ; FriendMemoDelResult, COMDAT

; 3048 : {

  00000	55		 push	 ebp
  00001	8b ec		 mov	 ebp, esp
  00003	83 ec 18	 sub	 esp, 24			; 00000018H
  00006	a1 00 00 00 00	 mov	 eax, DWORD PTR ___security_cookie
  0000b	33 c5		 xor	 eax, ebp
  0000d	89 45 fc	 mov	 DWORD PTR __$ArrayPad$[ebp], eax
  00010	56		 push	 esi
  00011	8b 75 08	 mov	 esi, DWORD PTR _lpMsg$[ebp]
  00014	0f 57 c0	 xorps	 xmm0, xmm0
; File c:\users\michel\desktop\source\gameserver\common\winutil.h

; 45   : 		memset(this->Name, 0, sizeof(this->Name));

  00017	66 0f d6 45 f0	 movq	 QWORD PTR _Name$[ebp], xmm0
  0001c	66 c7 45 f8 00
	00		 mov	 WORD PTR _Name$[ebp+8], 0
  00022	c6 45 fa 00	 mov	 BYTE PTR _Name$[ebp+10], 0
; File c:\users\michel\desktop\source\gameserver\source\edsprotocol.cpp

; 3049 : 	char_ID Name(lpMsg->Name);

  00026	8d 46 08	 lea	 eax, DWORD PTR [esi+8]
; File c:\users\michel\desktop\source\gameserver\common\winutil.h

; 47   : 		if ( szName != NULL )

  00029	85 c0		 test	 eax, eax
  0002b	74 11		 je	 SHORT $LN5@FriendMemo

; 48   : 		{
; 49   : 			memcpy(this->Name, szName, MAX_ACCOUNT_LEN);

  0002d	f3 0f 7e 00	 movq	 xmm0, QWORD PTR [eax]
  00031	66 8b 40 08	 mov	 ax, WORD PTR [eax+8]
  00035	66 0f d6 45 f0	 movq	 QWORD PTR _Name$[ebp], xmm0
  0003a	66 89 45 f8	 mov	 WORD PTR _Name$[ebp+8], ax
$LN5@FriendMemo:
; File c:\users\michel\desktop\source\gameserver\source\edsprotocol.cpp

; 3051 : 	if ( !gObjIsConnectedGP(lpMsg->Number, Name.GetBuffer()))

  0003e	8d 45 f0	 lea	 eax, DWORD PTR _Name$[ebp]
  00041	50		 push	 eax
  00042	0f bf 46 06	 movsx	 eax, WORD PTR [esi+6]
  00046	50		 push	 eax
  00047	e8 00 00 00 00	 call	 ?gObjIsConnectedGP@@YAHHPAD@Z ; gObjIsConnectedGP
  0004c	83 c4 08	 add	 esp, 8
  0004f	85 c0		 test	 eax, eax
  00051	75 27		 jne	 SHORT $LN2@FriendMemo

; 3052 : 	{
; 3053 : 		LogAddTD("error-L2 : Index %s %d", __FILE__, __LINE__);

  00053	68 ed 0b 00 00	 push	 3053			; 00000bedH
  00058	68 00 00 00 00	 push	 OFFSET ??_C@_0BA@FCCBMCDG@EDSProtocol?4cpp?$AA@
  0005d	68 00 00 00 00	 push	 OFFSET ??_C@_0BH@LCDOHCGD@error?9L2?5?3?5Index?5?$CFs?5?$CFd?$AA@
  00062	ff 15 00 00 00
	00		 call	 DWORD PTR ?LogAddTD@@3P6AXPADZZA ; LogAddTD
  00068	83 c4 0c	 add	 esp, 12			; 0000000cH
  0006b	5e		 pop	 esi

; 3066 : 		Name.GetBuffer(), lpMsg->Result, lpMsg->MemoIndex);
; 3067 : }

  0006c	8b 4d fc	 mov	 ecx, DWORD PTR __$ArrayPad$[ebp]
  0006f	33 cd		 xor	 ecx, ebp
  00071	e8 00 00 00 00	 call	 @__security_check_cookie@4
  00076	8b e5		 mov	 esp, ebp
  00078	5d		 pop	 ebp
  00079	c3		 ret	 0
$LN2@FriendMemo:

; 3054 : 		return;
; 3055 : 	}
; 3056 : 
; 3057 : 	PMSG_FRIEND_MEMO_DEL_RESULT pMsg;
; 3058 : 
; 3059 : 	pMsg.h.set((LPBYTE)&pMsg, 0xC8, sizeof(pMsg));
; 3060 : 	pMsg.MemoIndex = lpMsg->MemoIndex;

  0007a	66 8b 46 04	 mov	 ax, WORD PTR [esi+4]
  0007e	66 89 45 ec	 mov	 WORD PTR _pMsg$[ebp+4], ax

; 3061 : 	pMsg.Result = lpMsg->Result;

  00082	8a 46 03	 mov	 al, BYTE PTR [esi+3]
  00085	88 45 eb	 mov	 BYTE PTR _pMsg$[ebp+3], al

; 3063 : 	DataSend(lpMsg->Number, (LPBYTE)&pMsg, sizeof(pMsg));

  00088	8d 45 e8	 lea	 eax, DWORD PTR _pMsg$[ebp]
  0008b	6a 06		 push	 6
  0008d	50		 push	 eax
  0008e	0f bf 46 06	 movsx	 eax, WORD PTR [esi+6]
  00092	50		 push	 eax
; File c:\users\michel\desktop\source\gameserver\include\prodef.h

; 86   : 		lpBuf[0] = 0xC1;

  00093	66 c7 45 e8 c1
	06		 mov	 WORD PTR _pMsg$[ebp], 1729 ; 000006c1H

; 87   : 		lpBuf[1] = size;
; 88   : 		lpBuf[2] = head;

  00099	c6 45 ea c8	 mov	 BYTE PTR _pMsg$[ebp+2], 200 ; 000000c8H
; File c:\users\michel\desktop\source\gameserver\source\edsprotocol.cpp

; 3063 : 	DataSend(lpMsg->Number, (LPBYTE)&pMsg, sizeof(pMsg));

  0009d	e8 00 00 00 00	 call	 ?DataSend@@YAHHPAEK@Z	; DataSend

; 3064 : 
; 3065 : 	LogAdd("[%s] Friend mail delete request (%d) index:(%d)",

  000a2	0f b7 46 04	 movzx	 eax, WORD PTR [esi+4]
  000a6	50		 push	 eax
  000a7	0f b6 46 03	 movzx	 eax, BYTE PTR [esi+3]
  000ab	50		 push	 eax
  000ac	8d 45 f0	 lea	 eax, DWORD PTR _Name$[ebp]
  000af	50		 push	 eax
  000b0	68 00 00 00 00	 push	 OFFSET ??_C@_0DA@BCDIIKMO@?$FL?$CFs?$FN?5Friend?5mail?5delete?5request?5@
  000b5	ff 15 00 00 00
	00		 call	 DWORD PTR ?LogAdd@@3P6AXPADZZA ; LogAdd

; 3066 : 		Name.GetBuffer(), lpMsg->Result, lpMsg->MemoIndex);
; 3067 : }

  000bb	8b 4d fc	 mov	 ecx, DWORD PTR __$ArrayPad$[ebp]
  000be	83 c4 1c	 add	 esp, 28			; 0000001cH
  000c1	33 cd		 xor	 ecx, ebp
  000c3	5e		 pop	 esi
  000c4	e8 00 00 00 00	 call	 @__security_check_cookie@4
  000c9	8b e5		 mov	 esp, ebp
  000cb	5d		 pop	 ebp
  000cc	c3		 ret	 0
?FriendMemoDelResult@@YAXPAUFHP_FRIEND_MEMO_DEL_RESULT@@@Z ENDP ; FriendMemoDelResult
_TEXT	ENDS
; Function compile flags: /Ogtp
; File c:\users\michel\desktop\source\gameserver\source\edsprotocol.cpp
; File c:\users\michel\desktop\source\gameserver\include\prodef.h
; File c:\users\michel\desktop\source\gameserver\source\edsprotocol.cpp
;	COMDAT ?FriendMemoDelReq@@YAXPAUPMSG_FRIEND_MEMO_DEL_REQ@@H@Z
_TEXT	SEGMENT
_pMsg$ = -24						; size = 18
__$ArrayPad$ = -4					; size = 4
_lpMsg$ = 8						; size = 4
_aIndex$ = 12						; size = 4
?FriendMemoDelReq@@YAXPAUPMSG_FRIEND_MEMO_DEL_REQ@@H@Z PROC ; FriendMemoDelReq, COMDAT

; 3017 : {

  00000	55		 push	 ebp
  00001	8b ec		 mov	 ebp, esp
  00003	83 ec 18	 sub	 esp, 24			; 00000018H
  00006	a1 00 00 00 00	 mov	 eax, DWORD PTR ___security_cookie
  0000b	33 c5		 xor	 eax, ebp
  0000d	89 45 fc	 mov	 DWORD PTR __$ArrayPad$[ebp], eax
  00010	56		 push	 esi
  00011	8b 75 0c	 mov	 esi, DWORD PTR _aIndex$[ebp]
  00014	57		 push	 edi
  00015	8b 7d 08	 mov	 edi, DWORD PTR _lpMsg$[ebp]

; 3018 : 	if ( !gObjIsConnectedGP(aIndex))

  00018	56		 push	 esi
  00019	e8 00 00 00 00	 call	 ?gObjIsConnectedGP@@YAHH@Z ; gObjIsConnectedGP
  0001e	83 c4 04	 add	 esp, 4
  00021	85 c0		 test	 eax, eax
  00023	75 28		 jne	 SHORT $LN2@FriendMemo

; 3019 : 	{
; 3020 : 		LogAddTD("error-L2 : Index %s %d", __FILE__, __LINE__);

  00025	68 cc 0b 00 00	 push	 3020			; 00000bccH
  0002a	68 00 00 00 00	 push	 OFFSET ??_C@_0BA@FCCBMCDG@EDSProtocol?4cpp?$AA@
  0002f	68 00 00 00 00	 push	 OFFSET ??_C@_0BH@LCDOHCGD@error?9L2?5?3?5Index?5?$CFs?5?$CFd?$AA@
  00034	ff 15 00 00 00
	00		 call	 DWORD PTR ?LogAddTD@@3P6AXPADZZA ; LogAddTD

; 3032 : 
; 3033 : 	LogAdd("[%s] Friend mail delete request Index:(%d)",

  0003a	83 c4 0c	 add	 esp, 12			; 0000000cH
  0003d	5f		 pop	 edi
  0003e	5e		 pop	 esi

; 3034 : 		gObj[aIndex].Name, lpMsg->MemoIndex);
; 3035 : }

  0003f	8b 4d fc	 mov	 ecx, DWORD PTR __$ArrayPad$[ebp]
  00042	33 cd		 xor	 ecx, ebp
  00044	e8 00 00 00 00	 call	 @__security_check_cookie@4
  00049	8b e5		 mov	 esp, ebp
  0004b	5d		 pop	 ebp
  0004c	c3		 ret	 0
$LN2@FriendMemo:

; 3021 : 		return;
; 3022 : 	}
; 3023 : 
; 3024 : 	FHP_FRIEND_MEMO_DEL_REQ pMsg;
; 3025 : 
; 3026 : 	pMsg.h.set((LPBYTE)&pMsg, 0x73, sizeof(pMsg));
; 3027 : 	pMsg.MemoIndex = lpMsg->MemoIndex;

  0004d	0f b7 47 04	 movzx	 eax, WORD PTR [edi+4]

; 3031 : 	wsExDbCli.DataSend((PCHAR)&pMsg, pMsg.h.size);

  00051	b9 00 00 00 00	 mov	 ecx, OFFSET ?wsExDbCli@@3VwsJoinServerCli@@A ; wsExDbCli
  00056	66 89 75 ec	 mov	 WORD PTR _pMsg$[ebp+4], si
  0005a	66 89 45 ee	 mov	 WORD PTR _pMsg$[ebp+6], ax
  0005e	a1 00 00 00 00	 mov	 eax, DWORD PTR ?gObj@@3PAUOBJECTSTRUCT@@A ; gObj
  00063	69 f6 40 27 00
	00		 imul	 esi, esi, 10048
; File c:\users\michel\desktop\source\gameserver\include\prodef.h

; 86   : 		lpBuf[0] = 0xC1;

  00069	66 c7 45 e8 c1
	12		 mov	 WORD PTR _pMsg$[ebp], 4801 ; 000012c1H

; 87   : 		lpBuf[1] = size;
; 88   : 		lpBuf[2] = head;

  0006f	c6 45 ea 73	 mov	 BYTE PTR _pMsg$[ebp+2], 115 ; 00000073H
; File c:\users\michel\desktop\source\gameserver\source\edsprotocol.cpp

; 3031 : 	wsExDbCli.DataSend((PCHAR)&pMsg, pMsg.h.size);

  00073	6a 12		 push	 18			; 00000012H
  00075	f3 0f 7e 44 06
	5d		 movq	 xmm0, QWORD PTR [esi+eax+93]
  0007b	66 0f d6 45 f0	 movq	 QWORD PTR _pMsg$[ebp+8], xmm0
  00080	0f b7 44 06 65	 movzx	 eax, WORD PTR [esi+eax+101]
  00085	66 89 45 f8	 mov	 WORD PTR _pMsg$[ebp+16], ax
  00089	8d 45 e8	 lea	 eax, DWORD PTR _pMsg$[ebp]
  0008c	50		 push	 eax
  0008d	e8 00 00 00 00	 call	 ?DataSend@wsJoinServerCli@@QAEHPADH@Z ; wsJoinServerCli::DataSend

; 3032 : 
; 3033 : 	LogAdd("[%s] Friend mail delete request Index:(%d)",

  00092	0f b7 47 04	 movzx	 eax, WORD PTR [edi+4]
  00096	50		 push	 eax
  00097	a1 00 00 00 00	 mov	 eax, DWORD PTR ?gObj@@3PAUOBJECTSTRUCT@@A ; gObj
  0009c	83 c0 5d	 add	 eax, 93			; 0000005dH
  0009f	03 c6		 add	 eax, esi
  000a1	50		 push	 eax
  000a2	68 00 00 00 00	 push	 OFFSET ??_C@_0CL@CONIHEEP@?$FL?$CFs?$FN?5Friend?5mail?5delete?5request?5@
  000a7	ff 15 00 00 00
	00		 call	 DWORD PTR ?LogAdd@@3P6AXPADZZA ; LogAdd

; 3034 : 		gObj[aIndex].Name, lpMsg->MemoIndex);
; 3035 : }

  000ad	8b 4d fc	 mov	 ecx, DWORD PTR __$ArrayPad$[ebp]
  000b0	83 c4 0c	 add	 esp, 12			; 0000000cH
  000b3	33 cd		 xor	 ecx, ebp
  000b5	5f		 pop	 edi
  000b6	5e		 pop	 esi
  000b7	e8 00 00 00 00	 call	 @__security_check_cookie@4
  000bc	8b e5		 mov	 esp, ebp
  000be	5d		 pop	 ebp
  000bf	c3		 ret	 0
?FriendMemoDelReq@@YAXPAUPMSG_FRIEND_MEMO_DEL_REQ@@H@Z ENDP ; FriendMemoDelReq
_TEXT	ENDS
; Function compile flags: /Ogtp
; File c:\users\michel\desktop\source\gameserver\source\edsprotocol.cpp
; File c:\users\michel\desktop\source\gameserver\common\winutil.h
; File c:\users\michel\desktop\source\gameserver\source\edsprotocol.cpp
; File c:\users\michel\desktop\source\gameserver\common\winutil.h
; File c:\users\michel\desktop\source\gameserver\source\edsprotocol.cpp
; File c:\users\michel\desktop\source\gameserver\include\prodef.h
; File c:\users\michel\desktop\source\gameserver\source\edsprotocol.cpp
; File c:\users\michel\desktop\source\gameserver\include\prodef.h
; File c:\users\michel\desktop\source\gameserver\source\edsprotocol.cpp
;	COMDAT ?FriendMemoRead@@YAXPAUFHP_FRIEND_MEMO_RECV@@@Z
_TEXT	SEGMENT
_pMsg$ = -1044						; size = 1028
_Name$ = -16						; size = 11
__$ArrayPad$ = -4					; size = 4
_lpMsg$ = 8						; size = 4
?FriendMemoRead@@YAXPAUFHP_FRIEND_MEMO_RECV@@@Z PROC	; FriendMemoRead, COMDAT

; 2970 : {

  00000	55		 push	 ebp
  00001	8b ec		 mov	 ebp, esp
  00003	81 ec 14 04 00
	00		 sub	 esp, 1044		; 00000414H
  00009	a1 00 00 00 00	 mov	 eax, DWORD PTR ___security_cookie
  0000e	33 c5		 xor	 eax, ebp
  00010	89 45 fc	 mov	 DWORD PTR __$ArrayPad$[ebp], eax
  00013	56		 push	 esi
  00014	8b 75 08	 mov	 esi, DWORD PTR _lpMsg$[ebp]
  00017	0f 57 c0	 xorps	 xmm0, xmm0
; File c:\users\michel\desktop\source\gameserver\common\winutil.h

; 45   : 		memset(this->Name, 0, sizeof(this->Name));

  0001a	66 0f d6 45 f0	 movq	 QWORD PTR _Name$[ebp], xmm0
  0001f	66 c7 45 f8 00
	00		 mov	 WORD PTR _Name$[ebp+8], 0
  00025	c6 45 fa 00	 mov	 BYTE PTR _Name$[ebp+10], 0
; File c:\users\michel\desktop\source\gameserver\source\edsprotocol.cpp

; 2971 : 	char_ID Name(lpMsg->Name);

  00029	8d 46 06	 lea	 eax, DWORD PTR [esi+6]
; File c:\users\michel\desktop\source\gameserver\common\winutil.h

; 47   : 		if ( szName != NULL )

  0002c	85 c0		 test	 eax, eax
  0002e	74 11		 je	 SHORT $LN6@FriendMemo

; 48   : 		{
; 49   : 			memcpy(this->Name, szName, MAX_ACCOUNT_LEN);

  00030	f3 0f 7e 00	 movq	 xmm0, QWORD PTR [eax]
  00034	66 8b 40 08	 mov	 ax, WORD PTR [eax+8]
  00038	66 0f d6 45 f0	 movq	 QWORD PTR _Name$[ebp], xmm0
  0003d	66 89 45 f8	 mov	 WORD PTR _Name$[ebp+8], ax
$LN6@FriendMemo:
; File c:\users\michel\desktop\source\gameserver\source\edsprotocol.cpp

; 2973 : 	if ( !gObjIsConnectedGP(lpMsg->Number, Name.GetBuffer()))

  00041	8d 45 f0	 lea	 eax, DWORD PTR _Name$[ebp]
  00044	50		 push	 eax
  00045	0f bf 46 04	 movsx	 eax, WORD PTR [esi+4]
  00049	50		 push	 eax
  0004a	e8 00 00 00 00	 call	 ?gObjIsConnectedGP@@YAHHPAD@Z ; gObjIsConnectedGP
  0004f	83 c4 08	 add	 esp, 8
  00052	85 c0		 test	 eax, eax
  00054	75 27		 jne	 SHORT $LN2@FriendMemo

; 2974 : 	{
; 2975 : 		LogAddTD("error-L2 : Index %s %d", __FILE__, __LINE__);

  00056	68 9f 0b 00 00	 push	 2975			; 00000b9fH
  0005b	68 00 00 00 00	 push	 OFFSET ??_C@_0BA@FCCBMCDG@EDSProtocol?4cpp?$AA@
  00060	68 00 00 00 00	 push	 OFFSET ??_C@_0BH@LCDOHCGD@error?9L2?5?3?5Index?5?$CFs?5?$CFd?$AA@
  00065	ff 15 00 00 00
	00		 call	 DWORD PTR ?LogAddTD@@3P6AXPADZZA ; LogAddTD
  0006b	83 c4 0c	 add	 esp, 12			; 0000000cH
  0006e	5e		 pop	 esi

; 3002 : 		gObj[lpMsg->Number].Name, lpMsg->MemoIndex);
; 3003 : }

  0006f	8b 4d fc	 mov	 ecx, DWORD PTR __$ArrayPad$[ebp]
  00072	33 cd		 xor	 ecx, ebp
  00074	e8 00 00 00 00	 call	 @__security_check_cookie@4
  00079	8b e5		 mov	 esp, ebp
  0007b	5d		 pop	 ebp
  0007c	c3		 ret	 0
$LN2@FriendMemo:

; 2976 : 		return;
; 2977 : 	}
; 2978 : 
; 2979 : 	PMSG_FRIEND_READ_MEMO pMsg;
; 2980 : 
; 2981 : 	int nsize = sizeof(pMsg)-1000;
; 2982 : 
; 2983 : 	if ( lpMsg->MemoSize > 1000 )

  0007d	0f b7 56 12	 movzx	 edx, WORD PTR [esi+18]
  00081	b8 e8 03 00 00	 mov	 eax, 1000		; 000003e8H
  00086	66 3b d0	 cmp	 dx, ax
  00089	7e 27		 jle	 SHORT $LN3@FriendMemo

; 2984 : 	{
; 2985 : 		LogAddTD("error-L2 : Friend Memo Max %s %d", __FILE__, __LINE__);

  0008b	68 a9 0b 00 00	 push	 2985			; 00000ba9H
  00090	68 00 00 00 00	 push	 OFFSET ??_C@_0BA@FCCBMCDG@EDSProtocol?4cpp?$AA@
  00095	68 00 00 00 00	 push	 OFFSET ??_C@_0CB@LDOIFNPP@error?9L2?5?3?5Friend?5Memo?5Max?5?$CFs?5?$CFd@
  0009a	ff 15 00 00 00
	00		 call	 DWORD PTR ?LogAddTD@@3P6AXPADZZA ; LogAddTD
  000a0	83 c4 0c	 add	 esp, 12			; 0000000cH
  000a3	5e		 pop	 esi

; 3002 : 		gObj[lpMsg->Number].Name, lpMsg->MemoIndex);
; 3003 : }

  000a4	8b 4d fc	 mov	 ecx, DWORD PTR __$ArrayPad$[ebp]
  000a7	33 cd		 xor	 ecx, ebp
  000a9	e8 00 00 00 00	 call	 @__security_check_cookie@4
  000ae	8b e5		 mov	 esp, ebp
  000b0	5d		 pop	 ebp
  000b1	c3		 ret	 0
$LN3@FriendMemo:

; 2996 : 	memcpy(pMsg.Photo, lpMsg->Photo,sizeof(pMsg.Photo));

  000b2	0f 10 46 14	 movups	 xmm0, XMMWORD PTR [esi+20]
  000b6	0f bf ca	 movsx	 ecx, dx
  000b9	53		 push	 ebx

; 2997 : 	memcpy(pMsg.Memo, lpMsg->Memo, lpMsg->MemoSize);

  000ba	51		 push	 ecx
; File c:\users\michel\desktop\source\gameserver\include\prodef.h

; 119  : 		lpBuf[0] = 0xC4;

  000bb	c6 85 ec fb ff
	ff c4		 mov	 BYTE PTR _pMsg$[ebp], 196 ; 000000c4H
; File c:\users\michel\desktop\source\gameserver\source\edsprotocol.cpp

; 2989 : 	nsize += lpMsg->MemoSize;

  000c2	8d 59 1c	 lea	 ebx, DWORD PTR [ecx+28]
; File c:\users\michel\desktop\source\gameserver\include\prodef.h

; 122  : 		lpBuf[3] = head;

  000c5	c6 85 ef fb ff
	ff c7		 mov	 BYTE PTR _pMsg$[ebp+3], 199 ; 000000c7H
  000cc	8b c3		 mov	 eax, ebx
  000ce	88 9d ee fb ff
	ff		 mov	 BYTE PTR _pMsg$[ebp+2], bl
  000d4	c1 e8 08	 shr	 eax, 8
  000d7	88 85 ed fb ff
	ff		 mov	 BYTE PTR _pMsg$[ebp+1], al
; File c:\users\michel\desktop\source\gameserver\source\edsprotocol.cpp

; 2992 : 	pMsg.MemoIndex = lpMsg->MemoIndex;

  000dd	0f b7 46 10	 movzx	 eax, WORD PTR [esi+16]
  000e1	66 89 85 f0 fb
	ff ff		 mov	 WORD PTR _pMsg$[ebp+4], ax

; 2993 : 	pMsg.MemoSize = lpMsg->MemoSize;
; 2994 : 	pMsg.Dir = lpMsg->Dir;

  000e8	0f b6 46 26	 movzx	 eax, BYTE PTR [esi+38]
  000ec	88 85 06 fc ff
	ff		 mov	 BYTE PTR _pMsg$[ebp+26], al

; 2995 : 	pMsg.Action = lpMsg->Action;

  000f2	0f b6 46 27	 movzx	 eax, BYTE PTR [esi+39]
  000f6	88 85 07 fc ff
	ff		 mov	 BYTE PTR _pMsg$[ebp+27], al

; 2996 : 	memcpy(pMsg.Photo, lpMsg->Photo,sizeof(pMsg.Photo));

  000fc	0f b7 46 24	 movzx	 eax, WORD PTR [esi+36]
  00100	66 89 85 04 fc
	ff ff		 mov	 WORD PTR _pMsg$[ebp+24], ax

; 2997 : 	memcpy(pMsg.Memo, lpMsg->Memo, lpMsg->MemoSize);

  00107	8d 46 28	 lea	 eax, DWORD PTR [esi+40]
  0010a	50		 push	 eax
  0010b	8d 85 08 fc ff
	ff		 lea	 eax, DWORD PTR _pMsg$[ebp+28]
  00111	66 89 95 f2 fb
	ff ff		 mov	 WORD PTR _pMsg$[ebp+6], dx
  00118	50		 push	 eax
  00119	0f 11 85 f4 fb
	ff ff		 movups	 XMMWORD PTR _pMsg$[ebp+8], xmm0
  00120	e8 00 00 00 00	 call	 _memcpy

; 2998 : 
; 2999 : 	DataSend(lpMsg->Number, (LPBYTE)&pMsg, nsize);

  00125	53		 push	 ebx
  00126	8d 85 ec fb ff
	ff		 lea	 eax, DWORD PTR _pMsg$[ebp]
  0012c	50		 push	 eax
  0012d	0f bf 46 04	 movsx	 eax, WORD PTR [esi+4]
  00131	50		 push	 eax
  00132	e8 00 00 00 00	 call	 ?DataSend@@YAHHPAEK@Z	; DataSend

; 3000 : 
; 3001 : 	LogAdd("[%s] Friend Mail read (%d)",

  00137	0f b7 46 10	 movzx	 eax, WORD PTR [esi+16]
  0013b	50		 push	 eax
  0013c	0f bf 46 04	 movsx	 eax, WORD PTR [esi+4]
  00140	69 c8 40 27 00
	00		 imul	 ecx, eax, 10048
  00146	a1 00 00 00 00	 mov	 eax, DWORD PTR ?gObj@@3PAUOBJECTSTRUCT@@A ; gObj
  0014b	83 c0 5d	 add	 eax, 93			; 0000005dH
  0014e	03 c1		 add	 eax, ecx
  00150	50		 push	 eax
  00151	68 00 00 00 00	 push	 OFFSET ??_C@_0BL@NKLNIHDF@?$FL?$CFs?$FN?5Friend?5Mail?5read?5?$CI?$CFd?$CJ?$AA@
  00156	ff 15 00 00 00
	00		 call	 DWORD PTR ?LogAdd@@3P6AXPADZZA ; LogAdd

; 3002 : 		gObj[lpMsg->Number].Name, lpMsg->MemoIndex);
; 3003 : }

  0015c	8b 4d fc	 mov	 ecx, DWORD PTR __$ArrayPad$[ebp]
  0015f	83 c4 24	 add	 esp, 36			; 00000024H
  00162	33 cd		 xor	 ecx, ebp
  00164	5b		 pop	 ebx
  00165	5e		 pop	 esi
  00166	e8 00 00 00 00	 call	 @__security_check_cookie@4
  0016b	8b e5		 mov	 esp, ebp
  0016d	5d		 pop	 ebp
  0016e	c3		 ret	 0
?FriendMemoRead@@YAXPAUFHP_FRIEND_MEMO_RECV@@@Z ENDP	; FriendMemoRead
_TEXT	ENDS
; Function compile flags: /Ogtp
; File c:\users\michel\desktop\source\gameserver\source\edsprotocol.cpp
; File c:\users\michel\desktop\source\gameserver\include\prodef.h
; File c:\users\michel\desktop\source\gameserver\source\edsprotocol.cpp
;	COMDAT ?FriendMemoReadReq@@YAXPAUPMSG_FRIEND_READ_MEMO_REQ@@H@Z
_TEXT	SEGMENT
_pMsg$ = -24						; size = 18
__$ArrayPad$ = -4					; size = 4
_lpMsg$ = 8						; size = 4
_aIndex$ = 12						; size = 4
?FriendMemoReadReq@@YAXPAUPMSG_FRIEND_READ_MEMO_REQ@@H@Z PROC ; FriendMemoReadReq, COMDAT

; 2934 : {

  00000	55		 push	 ebp
  00001	8b ec		 mov	 ebp, esp
  00003	83 ec 18	 sub	 esp, 24			; 00000018H
  00006	a1 00 00 00 00	 mov	 eax, DWORD PTR ___security_cookie
  0000b	33 c5		 xor	 eax, ebp
  0000d	89 45 fc	 mov	 DWORD PTR __$ArrayPad$[ebp], eax
  00010	56		 push	 esi
  00011	8b 75 0c	 mov	 esi, DWORD PTR _aIndex$[ebp]
  00014	57		 push	 edi
  00015	8b 7d 08	 mov	 edi, DWORD PTR _lpMsg$[ebp]

; 2935 : 	if ( !gObjIsConnectedGP(aIndex))

  00018	56		 push	 esi
  00019	e8 00 00 00 00	 call	 ?gObjIsConnectedGP@@YAHH@Z ; gObjIsConnectedGP
  0001e	83 c4 04	 add	 esp, 4
  00021	85 c0		 test	 eax, eax
  00023	75 28		 jne	 SHORT $LN2@FriendMemo

; 2936 : 	{
; 2937 : 		LogAddTD("error-L2 : Index %s %d", __FILE__, __LINE__);

  00025	68 79 0b 00 00	 push	 2937			; 00000b79H
  0002a	68 00 00 00 00	 push	 OFFSET ??_C@_0BA@FCCBMCDG@EDSProtocol?4cpp?$AA@
  0002f	68 00 00 00 00	 push	 OFFSET ??_C@_0BH@LCDOHCGD@error?9L2?5?3?5Index?5?$CFs?5?$CFd?$AA@
  00034	ff 15 00 00 00
	00		 call	 DWORD PTR ?LogAddTD@@3P6AXPADZZA ; LogAddTD

; 2949 : 
; 2950 : 	LogAdd("[%s] Friend Mail read Index:%d", 

  0003a	83 c4 0c	 add	 esp, 12			; 0000000cH
  0003d	5f		 pop	 edi
  0003e	5e		 pop	 esi

; 2951 : 		gObj[aIndex].Name, lpMsg->MemoIndex);
; 2952 : 
; 2953 : }

  0003f	8b 4d fc	 mov	 ecx, DWORD PTR __$ArrayPad$[ebp]
  00042	33 cd		 xor	 ecx, ebp
  00044	e8 00 00 00 00	 call	 @__security_check_cookie@4
  00049	8b e5		 mov	 esp, ebp
  0004b	5d		 pop	 ebp
  0004c	c3		 ret	 0
$LN2@FriendMemo:

; 2938 : 		return;
; 2939 : 	}
; 2940 : 
; 2941 : 	FHP_FRIEND_MEMO_RECV_REQ pMsg;
; 2942 : 
; 2943 : 	pMsg.h.set((LPBYTE)&pMsg, 0x72, sizeof(pMsg));
; 2944 : 	pMsg.MemoIndex = lpMsg->MemoIndex;

  0004d	0f b7 47 04	 movzx	 eax, WORD PTR [edi+4]

; 2948 : 	wsExDbCli.DataSend((PCHAR)&pMsg, pMsg.h.size);

  00051	b9 00 00 00 00	 mov	 ecx, OFFSET ?wsExDbCli@@3VwsJoinServerCli@@A ; wsExDbCli
  00056	66 89 75 ec	 mov	 WORD PTR _pMsg$[ebp+4], si
  0005a	66 89 45 ee	 mov	 WORD PTR _pMsg$[ebp+6], ax
  0005e	a1 00 00 00 00	 mov	 eax, DWORD PTR ?gObj@@3PAUOBJECTSTRUCT@@A ; gObj
  00063	69 f6 40 27 00
	00		 imul	 esi, esi, 10048
; File c:\users\michel\desktop\source\gameserver\include\prodef.h

; 86   : 		lpBuf[0] = 0xC1;

  00069	66 c7 45 e8 c1
	12		 mov	 WORD PTR _pMsg$[ebp], 4801 ; 000012c1H

; 87   : 		lpBuf[1] = size;
; 88   : 		lpBuf[2] = head;

  0006f	c6 45 ea 72	 mov	 BYTE PTR _pMsg$[ebp+2], 114 ; 00000072H
; File c:\users\michel\desktop\source\gameserver\source\edsprotocol.cpp

; 2948 : 	wsExDbCli.DataSend((PCHAR)&pMsg, pMsg.h.size);

  00073	6a 12		 push	 18			; 00000012H
  00075	f3 0f 7e 44 06
	5d		 movq	 xmm0, QWORD PTR [esi+eax+93]
  0007b	66 0f d6 45 f0	 movq	 QWORD PTR _pMsg$[ebp+8], xmm0
  00080	0f b7 44 06 65	 movzx	 eax, WORD PTR [esi+eax+101]
  00085	66 89 45 f8	 mov	 WORD PTR _pMsg$[ebp+16], ax
  00089	8d 45 e8	 lea	 eax, DWORD PTR _pMsg$[ebp]
  0008c	50		 push	 eax
  0008d	e8 00 00 00 00	 call	 ?DataSend@wsJoinServerCli@@QAEHPADH@Z ; wsJoinServerCli::DataSend

; 2949 : 
; 2950 : 	LogAdd("[%s] Friend Mail read Index:%d", 

  00092	0f b7 47 04	 movzx	 eax, WORD PTR [edi+4]
  00096	50		 push	 eax
  00097	a1 00 00 00 00	 mov	 eax, DWORD PTR ?gObj@@3PAUOBJECTSTRUCT@@A ; gObj
  0009c	83 c0 5d	 add	 eax, 93			; 0000005dH
  0009f	03 c6		 add	 eax, esi
  000a1	50		 push	 eax
  000a2	68 00 00 00 00	 push	 OFFSET ??_C@_0BP@DKLEPGIB@?$FL?$CFs?$FN?5Friend?5Mail?5read?5Index?3?$CFd?$AA@
  000a7	ff 15 00 00 00
	00		 call	 DWORD PTR ?LogAdd@@3P6AXPADZZA ; LogAdd

; 2951 : 		gObj[aIndex].Name, lpMsg->MemoIndex);
; 2952 : 
; 2953 : }

  000ad	8b 4d fc	 mov	 ecx, DWORD PTR __$ArrayPad$[ebp]
  000b0	83 c4 0c	 add	 esp, 12			; 0000000cH
  000b3	33 cd		 xor	 ecx, ebp
  000b5	5f		 pop	 edi
  000b6	5e		 pop	 esi
  000b7	e8 00 00 00 00	 call	 @__security_check_cookie@4
  000bc	8b e5		 mov	 esp, ebp
  000be	5d		 pop	 ebp
  000bf	c3		 ret	 0
?FriendMemoReadReq@@YAXPAUPMSG_FRIEND_READ_MEMO_REQ@@H@Z ENDP ; FriendMemoReadReq
_TEXT	ENDS
; Function compile flags: /Ogtp
; File c:\users\michel\desktop\source\gameserver\source\edsprotocol.cpp
; File c:\users\michel\desktop\source\gameserver\common\winutil.h
; File c:\users\michel\desktop\source\gameserver\source\edsprotocol.cpp
; File c:\users\michel\desktop\source\gameserver\common\winutil.h
; File c:\users\michel\desktop\source\gameserver\source\edsprotocol.cpp
; File c:\users\michel\desktop\source\gameserver\common\winutil.h
; File c:\users\michel\desktop\source\gameserver\source\edsprotocol.cpp
; File c:\users\michel\desktop\source\gameserver\include\prodef.h
; File c:\users\michel\desktop\source\gameserver\source\edsprotocol.cpp
;	COMDAT ?FriendMemoList@@YAXPAUFHP_FRIEND_MEMO_LIST@@@Z
_TEXT	SEGMENT
_pMsg$ = -204						; size = 108
_SendName$ = -96					; size = 11
_RecvName$ = -84					; size = 11
_subject$ = -72						; size = 33
_date$ = -36						; size = 31
__$ArrayPad$ = -4					; size = 4
_lpMsg$ = 8						; size = 4
?FriendMemoList@@YAXPAUFHP_FRIEND_MEMO_LIST@@@Z PROC	; FriendMemoList, COMDAT

; 2889 : {

  00000	55		 push	 ebp
  00001	8b ec		 mov	 ebp, esp
  00003	81 ec cc 00 00
	00		 sub	 esp, 204		; 000000ccH
  00009	a1 00 00 00 00	 mov	 eax, DWORD PTR ___security_cookie
  0000e	33 c5		 xor	 eax, ebp
  00010	89 45 fc	 mov	 DWORD PTR __$ArrayPad$[ebp], eax
  00013	53		 push	 ebx
  00014	57		 push	 edi
  00015	8b 7d 08	 mov	 edi, DWORD PTR _lpMsg$[ebp]
  00018	0f 57 c0	 xorps	 xmm0, xmm0
; File c:\users\michel\desktop\source\gameserver\common\winutil.h

; 45   : 		memset(this->Name, 0, sizeof(this->Name));

  0001b	66 0f d6 45 a0	 movq	 QWORD PTR _SendName$[ebp], xmm0
  00020	66 c7 45 a8 00
	00		 mov	 WORD PTR _SendName$[ebp+8], 0
  00026	c6 45 aa 00	 mov	 BYTE PTR _SendName$[ebp+10], 0
; File c:\users\michel\desktop\source\gameserver\source\edsprotocol.cpp

; 2890 : 	char_ID SendName(lpMsg->SendName);

  0002a	8d 5f 08	 lea	 ebx, DWORD PTR [edi+8]
; File c:\users\michel\desktop\source\gameserver\common\winutil.h

; 47   : 		if ( szName != NULL )

  0002d	85 db		 test	 ebx, ebx
  0002f	74 11		 je	 SHORT $LN5@FriendMemo

; 48   : 		{
; 49   : 			memcpy(this->Name, szName, MAX_ACCOUNT_LEN);

  00031	f3 0f 7e 03	 movq	 xmm0, QWORD PTR [ebx]
  00035	66 8b 43 08	 mov	 ax, WORD PTR [ebx+8]
  00039	66 0f d6 45 a0	 movq	 QWORD PTR _SendName$[ebp], xmm0
  0003e	66 89 45 a8	 mov	 WORD PTR _SendName$[ebp+8], ax
$LN5@FriendMemo:
; File c:\users\michel\desktop\source\gameserver\source\edsprotocol.cpp

; 2891 : 	char_ID RecvName(lpMsg->RecvName);

  00042	8d 47 12	 lea	 eax, DWORD PTR [edi+18]
; File c:\users\michel\desktop\source\gameserver\common\winutil.h

; 45   : 		memset(this->Name, 0, sizeof(this->Name));

  00045	66 c7 45 b4 00
	00		 mov	 WORD PTR _RecvName$[ebp+8], 0
  0004b	c6 45 b6 00	 mov	 BYTE PTR _RecvName$[ebp+10], 0
  0004f	0f 57 c0	 xorps	 xmm0, xmm0
  00052	66 0f d6 45 ac	 movq	 QWORD PTR _RecvName$[ebp], xmm0

; 47   : 		if ( szName != NULL )

  00057	85 c0		 test	 eax, eax
  00059	74 11		 je	 SHORT $LN8@FriendMemo

; 48   : 		{
; 49   : 			memcpy(this->Name, szName, MAX_ACCOUNT_LEN);

  0005b	f3 0f 7e 00	 movq	 xmm0, QWORD PTR [eax]
  0005f	66 8b 40 08	 mov	 ax, WORD PTR [eax+8]
  00063	66 0f d6 45 ac	 movq	 QWORD PTR _RecvName$[ebp], xmm0
  00068	66 89 45 b4	 mov	 WORD PTR _RecvName$[ebp+8], ax
$LN8@FriendMemo:
; File c:\users\michel\desktop\source\gameserver\source\edsprotocol.cpp

; 2893 : 	if ( !gObjIsConnectedGP(lpMsg->Number, RecvName.GetBuffer()))

  0006c	8d 45 ac	 lea	 eax, DWORD PTR _RecvName$[ebp]
  0006f	50		 push	 eax
  00070	0f b7 47 04	 movzx	 eax, WORD PTR [edi+4]
  00074	50		 push	 eax
  00075	e8 00 00 00 00	 call	 ?gObjIsConnectedGP@@YAHHPAD@Z ; gObjIsConnectedGP
  0007a	83 c4 08	 add	 esp, 8
  0007d	85 c0		 test	 eax, eax
  0007f	75 28		 jne	 SHORT $LN2@FriendMemo

; 2894 : 	{
; 2895 : 		LogAddTD("error-L2 : Index %s %d", __FILE__, __LINE__);

  00081	68 4f 0b 00 00	 push	 2895			; 00000b4fH
  00086	68 00 00 00 00	 push	 OFFSET ??_C@_0BA@FCCBMCDG@EDSProtocol?4cpp?$AA@
  0008b	68 00 00 00 00	 push	 OFFSET ??_C@_0BH@LCDOHCGD@error?9L2?5?3?5Index?5?$CFs?5?$CFd?$AA@
  00090	ff 15 00 00 00
	00		 call	 DWORD PTR ?LogAddTD@@3P6AXPADZZA ; LogAddTD
  00096	83 c4 0c	 add	 esp, 12			; 0000000cH
  00099	5f		 pop	 edi
  0009a	5b		 pop	 ebx

; 2919 : 		SendName.GetBuffer(), memoindex, date, RecvName.GetBuffer(), subject);
; 2920 : }

  0009b	8b 4d fc	 mov	 ecx, DWORD PTR __$ArrayPad$[ebp]
  0009e	33 cd		 xor	 ecx, ebp
  000a0	e8 00 00 00 00	 call	 @__security_check_cookie@4
  000a5	8b e5		 mov	 esp, ebp
  000a7	5d		 pop	 ebp
  000a8	c3		 ret	 0
$LN2@FriendMemo:
  000a9	0f 57 c0	 xorps	 xmm0, xmm0

; 2896 : 		return;
; 2897 : 	}
; 2898 : 
; 2899 : 	int memoindex;
; 2900 : 	char subject[33]="";
; 2901 : 	char date[31]="";
; 2902 : 
; 2903 : 	memoindex = lpMsg->MemoIndex;
; 2904 : 	memcpy(subject, lpMsg->Subject, sizeof(lpMsg->Subject));
; 2905 : 	memcpy(date, lpMsg->Date, sizeof(lpMsg->Date));

  000ac	8b 47 34	 mov	 eax, DWORD PTR [edi+52]
  000af	0f 11 45 b9	 movups	 XMMWORD PTR _subject$[ebp+1], xmm0
  000b3	c7 45 f5 00 00
	00 00		 mov	 DWORD PTR _date$[ebp+25], 0
  000ba	0f 11 45 dd	 movups	 XMMWORD PTR _date$[ebp+1], xmm0
  000be	66 c7 45 f9 00
	00		 mov	 WORD PTR _date$[ebp+29], 0
  000c4	66 0f d6 45 ed	 movq	 QWORD PTR _date$[ebp+17], xmm0
  000c9	0f 11 45 c9	 movups	 XMMWORD PTR _subject$[ebp+17], xmm0
  000cd	89 45 f4	 mov	 DWORD PTR _date$[ebp+24], eax
  000d0	0f 10 47 3a	 movups	 xmm0, XMMWORD PTR [edi+58]
  000d4	0f b7 47 38	 movzx	 eax, WORD PTR [edi+56]
  000d8	66 89 45 f8	 mov	 WORD PTR _date$[ebp+28], ax

; 2906 : 
; 2907 : 	PMSG_FRIEND_MEMO_LIST pMsg;
; 2908 : 
; 2909 : 	pMsg.h.setE((LPBYTE)&pMsg, 0xC6, sizeof(pMsg));
; 2910 : 	memcpy(pMsg.Date, lpMsg->Date, sizeof(pMsg.Date));

  000dc	8b 47 34	 mov	 eax, DWORD PTR [edi+52]
  000df	0f 11 45 b8	 movups	 XMMWORD PTR _subject$[ebp], xmm0
  000e3	89 85 5c ff ff
	ff		 mov	 DWORD PTR _pMsg$[ebp+40], eax
  000e9	0f 10 47 4a	 movups	 xmm0, XMMWORD PTR [edi+74]
  000ed	0f b7 47 38	 movzx	 eax, WORD PTR [edi+56]
  000f1	66 89 85 60 ff
	ff ff		 mov	 WORD PTR _pMsg$[ebp+44], ax

; 2911 : 	memcpy(pMsg.Name, lpMsg->SendName, sizeof(pMsg.Name));

  000f8	0f b7 43 08	 movzx	 eax, WORD PTR [ebx+8]
  000fc	0f 11 45 c8	 movups	 XMMWORD PTR _subject$[ebp+16], xmm0
  00100	66 89 85 42 ff
	ff ff		 mov	 WORD PTR _pMsg$[ebp+14], ax
  00107	0f 10 47 1c	 movups	 xmm0, XMMWORD PTR [edi+28]

; 2912 : 	memcpy(pMsg.Subject, lpMsg->Subject, sizeof(pMsg.Subject));

  0010b	8b 47 72	 mov	 eax, DWORD PTR [edi+114]
  0010e	89 45 9a	 mov	 DWORD PTR _pMsg$[ebp+102], eax

; 2914 : 	pMsg.read = lpMsg->read;

  00111	8a 47 5a	 mov	 al, BYTE PTR [edi+90]
  00114	0f 11 45 dc	 movups	 XMMWORD PTR _date$[ebp], xmm0
  00118	56		 push	 esi
  00119	f3 0f 7e 47 2c	 movq	 xmm0, QWORD PTR [edi+44]
  0011e	66 0f d6 45 ec	 movq	 QWORD PTR _date$[ebp+16], xmm0
  00123	0f 10 47 1c	 movups	 xmm0, XMMWORD PTR [edi+28]
  00127	0f b7 77 06	 movzx	 esi, WORD PTR [edi+6]
  0012b	88 45 9e	 mov	 BYTE PTR _pMsg$[ebp+106], al

; 2915 : 
; 2916 : 	DataSend(lpMsg->Number, (LPBYTE)&pMsg, sizeof(pMsg));

  0012e	8d 85 34 ff ff
	ff		 lea	 eax, DWORD PTR _pMsg$[ebp]
  00134	0f 11 85 44 ff
	ff ff		 movups	 XMMWORD PTR _pMsg$[ebp+16], xmm0
  0013b	6a 6c		 push	 108			; 0000006cH
  0013d	f3 0f 7e 47 2c	 movq	 xmm0, QWORD PTR [edi+44]
  00142	66 0f d6 85 54
	ff ff ff	 movq	 QWORD PTR _pMsg$[ebp+32], xmm0
  0014a	f3 0f 7e 03	 movq	 xmm0, QWORD PTR [ebx]
  0014e	66 0f d6 85 3a
	ff ff ff	 movq	 QWORD PTR _pMsg$[ebp+6], xmm0
  00156	0f 10 47 3a	 movups	 xmm0, XMMWORD PTR [edi+58]
  0015a	50		 push	 eax
  0015b	0f b7 47 04	 movzx	 eax, WORD PTR [edi+4]
  0015f	0f 11 85 62 ff
	ff ff		 movups	 XMMWORD PTR _pMsg$[ebp+46], xmm0
  00166	50		 push	 eax
  00167	0f 10 47 4a	 movups	 xmm0, XMMWORD PTR [edi+74]
; File c:\users\michel\desktop\source\gameserver\include\prodef.h

; 93   : 		lpBuf[0] = 0xC3;

  0016b	66 c7 85 34 ff
	ff ff c3 6c	 mov	 WORD PTR _pMsg$[ebp], 27843 ; 00006cc3H

; 94   : 		lpBuf[1] = size;
; 95   : 		lpBuf[2] = head;

  00174	c6 85 36 ff ff
	ff c6		 mov	 BYTE PTR _pMsg$[ebp+2], 198 ; 000000c6H
; File c:\users\michel\desktop\source\gameserver\source\edsprotocol.cpp

; 2912 : 	memcpy(pMsg.Subject, lpMsg->Subject, sizeof(pMsg.Subject));

  0017b	0f 11 85 72 ff
	ff ff		 movups	 XMMWORD PTR _pMsg$[ebp+62], xmm0

; 2913 : 	pMsg.Number = memoindex;	// #warning maybe here and error Deathway

  00182	66 89 b5 38 ff
	ff ff		 mov	 WORD PTR _pMsg$[ebp+4], si
  00189	0f 10 47 5a	 movups	 xmm0, XMMWORD PTR [edi+90]
  0018d	0f 11 45 82	 movups	 XMMWORD PTR _pMsg$[ebp+78], xmm0
  00191	f3 0f 7e 47 6a	 movq	 xmm0, QWORD PTR [edi+106]
  00196	66 0f d6 45 92	 movq	 QWORD PTR _pMsg$[ebp+94], xmm0

; 2915 : 
; 2916 : 	DataSend(lpMsg->Number, (LPBYTE)&pMsg, sizeof(pMsg));

  0019b	e8 00 00 00 00	 call	 ?DataSend@@YAHHPAEK@Z	; DataSend

; 2917 : 	
; 2918 : 	LogAdd("[%s] Friend Mail list : (%d:%10s:%s:%s)",

  001a0	8d 45 b8	 lea	 eax, DWORD PTR _subject$[ebp]
  001a3	50		 push	 eax
  001a4	8d 45 ac	 lea	 eax, DWORD PTR _RecvName$[ebp]
  001a7	50		 push	 eax
  001a8	8d 45 dc	 lea	 eax, DWORD PTR _date$[ebp]
  001ab	50		 push	 eax
  001ac	56		 push	 esi
  001ad	8d 45 a0	 lea	 eax, DWORD PTR _SendName$[ebp]
  001b0	50		 push	 eax
  001b1	68 00 00 00 00	 push	 OFFSET ??_C@_0CI@INBOEHDN@?$FL?$CFs?$FN?5Friend?5Mail?5list?5?3?5?$CI?$CFd?3?$CF10s@
  001b6	ff 15 00 00 00
	00		 call	 DWORD PTR ?LogAdd@@3P6AXPADZZA ; LogAdd

; 2919 : 		SendName.GetBuffer(), memoindex, date, RecvName.GetBuffer(), subject);
; 2920 : }

  001bc	8b 4d fc	 mov	 ecx, DWORD PTR __$ArrayPad$[ebp]
  001bf	83 c4 24	 add	 esp, 36			; 00000024H
  001c2	33 cd		 xor	 ecx, ebp
  001c4	5e		 pop	 esi
  001c5	5f		 pop	 edi
  001c6	5b		 pop	 ebx
  001c7	e8 00 00 00 00	 call	 @__security_check_cookie@4
  001cc	8b e5		 mov	 esp, ebp
  001ce	5d		 pop	 ebp
  001cf	c3		 ret	 0
?FriendMemoList@@YAXPAUFHP_FRIEND_MEMO_LIST@@@Z ENDP	; FriendMemoList
_TEXT	ENDS
; Function compile flags: /Ogtp
; File c:\users\michel\desktop\source\gameserver\source\edsprotocol.cpp
; File c:\users\michel\desktop\source\gameserver\include\prodef.h
; File c:\users\michel\desktop\source\gameserver\source\edsprotocol.cpp
;	COMDAT ?FriendMemoListReq@@YAXH@Z
_TEXT	SEGMENT
_pMsg$ = -20						; size = 16
__$ArrayPad$ = -4					; size = 4
_aIndex$ = 8						; size = 4
?FriendMemoListReq@@YAXH@Z PROC				; FriendMemoListReq, COMDAT

; 2857 : {

  00000	55		 push	 ebp
  00001	8b ec		 mov	 ebp, esp
  00003	83 ec 14	 sub	 esp, 20			; 00000014H
  00006	a1 00 00 00 00	 mov	 eax, DWORD PTR ___security_cookie
  0000b	33 c5		 xor	 eax, ebp
  0000d	89 45 fc	 mov	 DWORD PTR __$ArrayPad$[ebp], eax
  00010	56		 push	 esi
  00011	8b 75 08	 mov	 esi, DWORD PTR _aIndex$[ebp]

; 2858 : 	if ( !gObjIsConnectedGP(aIndex))

  00014	56		 push	 esi
  00015	e8 00 00 00 00	 call	 ?gObjIsConnectedGP@@YAHH@Z ; gObjIsConnectedGP
  0001a	83 c4 04	 add	 esp, 4
  0001d	85 c0		 test	 eax, eax
  0001f	75 27		 jne	 SHORT $LN2@FriendMemo

; 2859 : 	{
; 2860 : 		LogAddTD("error-L2 : Index %s %d", __FILE__, __LINE__);

  00021	68 2c 0b 00 00	 push	 2860			; 00000b2cH
  00026	68 00 00 00 00	 push	 OFFSET ??_C@_0BA@FCCBMCDG@EDSProtocol?4cpp?$AA@
  0002b	68 00 00 00 00	 push	 OFFSET ??_C@_0BH@LCDOHCGD@error?9L2?5?3?5Index?5?$CFs?5?$CFd?$AA@
  00030	ff 15 00 00 00
	00		 call	 DWORD PTR ?LogAddTD@@3P6AXPADZZA ; LogAddTD
  00036	83 c4 0c	 add	 esp, 12			; 0000000cH
  00039	5e		 pop	 esi

; 2873 : }

  0003a	8b 4d fc	 mov	 ecx, DWORD PTR __$ArrayPad$[ebp]
  0003d	33 cd		 xor	 ecx, ebp
  0003f	e8 00 00 00 00	 call	 @__security_check_cookie@4
  00044	8b e5		 mov	 esp, ebp
  00046	5d		 pop	 ebp
  00047	c3		 ret	 0
$LN2@FriendMemo:

; 2861 : 		return;
; 2862 : 	}
; 2863 : 
; 2864 : 	FHP_FRIEND_MEMO_LIST_REQ pMsg;
; 2865 : 
; 2866 : 	pMsg.h.set((LPBYTE)&pMsg, 0x71, sizeof(pMsg));
; 2867 : 	pMsg.Number = aIndex;
; 2868 : 	memcpy(pMsg.Name, gObj[aIndex].Name, sizeof(pMsg.Name));

  00048	a1 00 00 00 00	 mov	 eax, DWORD PTR ?gObj@@3PAUOBJECTSTRUCT@@A ; gObj

; 2870 : 	wsExDbCli.DataSend((PCHAR)&pMsg, pMsg.h.size);

  0004d	b9 00 00 00 00	 mov	 ecx, OFFSET ?wsExDbCli@@3VwsJoinServerCli@@A ; wsExDbCli
  00052	66 89 75 f0	 mov	 WORD PTR _pMsg$[ebp+4], si
  00056	69 f6 40 27 00
	00		 imul	 esi, esi, 10048
; File c:\users\michel\desktop\source\gameserver\include\prodef.h

; 86   : 		lpBuf[0] = 0xC1;

  0005c	66 c7 45 ec c1
	10		 mov	 WORD PTR _pMsg$[ebp], 4289 ; 000010c1H

; 87   : 		lpBuf[1] = size;
; 88   : 		lpBuf[2] = head;

  00062	c6 45 ee 71	 mov	 BYTE PTR _pMsg$[ebp+2], 113 ; 00000071H
; File c:\users\michel\desktop\source\gameserver\source\edsprotocol.cpp

; 2870 : 	wsExDbCli.DataSend((PCHAR)&pMsg, pMsg.h.size);

  00066	6a 10		 push	 16			; 00000010H
  00068	f3 0f 7e 44 06
	5d		 movq	 xmm0, QWORD PTR [esi+eax+93]
  0006e	66 0f d6 45 f2	 movq	 QWORD PTR _pMsg$[ebp+6], xmm0
  00073	66 8b 44 06 65	 mov	 ax, WORD PTR [esi+eax+101]
  00078	66 89 45 fa	 mov	 WORD PTR _pMsg$[ebp+14], ax
  0007c	8d 45 ec	 lea	 eax, DWORD PTR _pMsg$[ebp]
  0007f	50		 push	 eax
  00080	e8 00 00 00 00	 call	 ?DataSend@wsJoinServerCli@@QAEHPADH@Z ; wsJoinServerCli::DataSend

; 2871 : 
; 2872 : 	LogAdd("[%s] Friend mail list request", gObj[aIndex].Name);

  00085	a1 00 00 00 00	 mov	 eax, DWORD PTR ?gObj@@3PAUOBJECTSTRUCT@@A ; gObj
  0008a	83 c0 5d	 add	 eax, 93			; 0000005dH
  0008d	03 c6		 add	 eax, esi
  0008f	50		 push	 eax
  00090	68 00 00 00 00	 push	 OFFSET ??_C@_0BO@BLCCADHK@?$FL?$CFs?$FN?5Friend?5mail?5list?5request?$AA@
  00095	ff 15 00 00 00
	00		 call	 DWORD PTR ?LogAdd@@3P6AXPADZZA ; LogAdd

; 2873 : }

  0009b	8b 4d fc	 mov	 ecx, DWORD PTR __$ArrayPad$[ebp]
  0009e	83 c4 08	 add	 esp, 8
  000a1	33 cd		 xor	 ecx, ebp
  000a3	5e		 pop	 esi
  000a4	e8 00 00 00 00	 call	 @__security_check_cookie@4
  000a9	8b e5		 mov	 esp, ebp
  000ab	5d		 pop	 ebp
  000ac	c3		 ret	 0
?FriendMemoListReq@@YAXH@Z ENDP				; FriendMemoListReq
_TEXT	ENDS
; Function compile flags: /Ogtp
; File c:\users\michel\desktop\source\gameserver\source\edsprotocol.cpp
; File c:\users\michel\desktop\source\gameserver\common\winutil.h
; File c:\users\michel\desktop\source\gameserver\source\edsprotocol.cpp
; File c:\users\michel\desktop\source\gameserver\common\winutil.h
; File c:\users\michel\desktop\source\gameserver\source\edsprotocol.cpp
; File c:\users\michel\desktop\source\gameserver\include\prodef.h
; File c:\users\michel\desktop\source\gameserver\source\edsprotocol.cpp
;	COMDAT ?FriendMemoSendResult@@YAXPAUFHP_FRIEND_MEMO_SEND_RESULT@@@Z
_TEXT	SEGMENT
_pMsg$ = -24						; size = 8
_Name$ = -16						; size = 11
__$ArrayPad$ = -4					; size = 4
_lpMsg$ = 8						; size = 4
?FriendMemoSendResult@@YAXPAUFHP_FRIEND_MEMO_SEND_RESULT@@@Z PROC ; FriendMemoSendResult, COMDAT

; 2814 : {

  00000	55		 push	 ebp
  00001	8b ec		 mov	 ebp, esp
  00003	83 ec 18	 sub	 esp, 24			; 00000018H
  00006	a1 00 00 00 00	 mov	 eax, DWORD PTR ___security_cookie
  0000b	33 c5		 xor	 eax, ebp
  0000d	89 45 fc	 mov	 DWORD PTR __$ArrayPad$[ebp], eax
  00010	56		 push	 esi
  00011	8b 75 08	 mov	 esi, DWORD PTR _lpMsg$[ebp]
  00014	0f 57 c0	 xorps	 xmm0, xmm0
; File c:\users\michel\desktop\source\gameserver\common\winutil.h

; 45   : 		memset(this->Name, 0, sizeof(this->Name));

  00017	66 0f d6 45 f0	 movq	 QWORD PTR _Name$[ebp], xmm0
  0001c	66 c7 45 f8 00
	00		 mov	 WORD PTR _Name$[ebp+8], 0
  00022	c6 45 fa 00	 mov	 BYTE PTR _Name$[ebp+10], 0
; File c:\users\michel\desktop\source\gameserver\source\edsprotocol.cpp

; 2815 : 	char_ID Name(lpMsg->Name);

  00026	8d 46 06	 lea	 eax, DWORD PTR [esi+6]
; File c:\users\michel\desktop\source\gameserver\common\winutil.h

; 47   : 		if ( szName != NULL )

  00029	85 c0		 test	 eax, eax
  0002b	74 11		 je	 SHORT $LN7@FriendMemo

; 48   : 		{
; 49   : 			memcpy(this->Name, szName, MAX_ACCOUNT_LEN);

  0002d	f3 0f 7e 00	 movq	 xmm0, QWORD PTR [eax]
  00031	66 8b 40 08	 mov	 ax, WORD PTR [eax+8]
  00035	66 0f d6 45 f0	 movq	 QWORD PTR _Name$[ebp], xmm0
  0003a	66 89 45 f8	 mov	 WORD PTR _Name$[ebp+8], ax
$LN7@FriendMemo:
; File c:\users\michel\desktop\source\gameserver\source\edsprotocol.cpp

; 2817 : 	if ( !strcmp(Name.GetBuffer(), "webzen"))	// #warning Deathway

  0003e	b9 00 00 00 00	 mov	 ecx, OFFSET ??_C@_06EBHHHLPK@webzen?$AA@
  00043	8d 45 f0	 lea	 eax, DWORD PTR _Name$[ebp]
$LL15@FriendMemo:
  00046	8a 10		 mov	 dl, BYTE PTR [eax]
  00048	3a 11		 cmp	 dl, BYTE PTR [ecx]
  0004a	75 1a		 jne	 SHORT $LN16@FriendMemo
  0004c	84 d2		 test	 dl, dl
  0004e	74 12		 je	 SHORT $LN17@FriendMemo
  00050	8a 50 01	 mov	 dl, BYTE PTR [eax+1]
  00053	3a 51 01	 cmp	 dl, BYTE PTR [ecx+1]
  00056	75 0e		 jne	 SHORT $LN16@FriendMemo
  00058	83 c0 02	 add	 eax, 2
  0005b	83 c1 02	 add	 ecx, 2
  0005e	84 d2		 test	 dl, dl
  00060	75 e4		 jne	 SHORT $LL15@FriendMemo
$LN17@FriendMemo:
  00062	33 c0		 xor	 eax, eax
  00064	eb 05		 jmp	 SHORT $LN18@FriendMemo
$LN16@FriendMemo:
  00066	1b c0		 sbb	 eax, eax
  00068	83 c8 01	 or	 eax, 1
$LN18@FriendMemo:
  0006b	85 c0		 test	 eax, eax
  0006d	75 22		 jne	 SHORT $LN2@FriendMemo

; 2818 : 	{
; 2819 : 		LogAdd("JoinServer Send Mail result : (%d)", lpMsg->Result);

  0006f	0f b6 46 10	 movzx	 eax, BYTE PTR [esi+16]
  00073	50		 push	 eax
  00074	68 00 00 00 00	 push	 OFFSET ??_C@_0CD@EFIPOPHK@JoinServer?5Send?5Mail?5result?5?3?5?$CI?$CF@
  00079	ff 15 00 00 00
	00		 call	 DWORD PTR ?LogAdd@@3P6AXPADZZA ; LogAdd
  0007f	83 c4 08	 add	 esp, 8
  00082	5e		 pop	 esi

; 2843 : 	}
; 2844 : }

  00083	8b 4d fc	 mov	 ecx, DWORD PTR __$ArrayPad$[ebp]
  00086	33 cd		 xor	 ecx, ebp
  00088	e8 00 00 00 00	 call	 @__security_check_cookie@4
  0008d	8b e5		 mov	 esp, ebp
  0008f	5d		 pop	 ebp
  00090	c3		 ret	 0
$LN2@FriendMemo:

; 2820 : 		return;
; 2821 : 	}
; 2822 : 
; 2823 : 	if ( !gObjIsConnectedGP(lpMsg->Number, Name.GetBuffer()))

  00091	8d 45 f0	 lea	 eax, DWORD PTR _Name$[ebp]
  00094	50		 push	 eax
  00095	0f bf 46 04	 movsx	 eax, WORD PTR [esi+4]
  00099	50		 push	 eax
  0009a	e8 00 00 00 00	 call	 ?gObjIsConnectedGP@@YAHHPAD@Z ; gObjIsConnectedGP
  0009f	83 c4 08	 add	 esp, 8
  000a2	85 c0		 test	 eax, eax
  000a4	75 27		 jne	 SHORT $LN3@FriendMemo

; 2824 : 	{
; 2825 : 		LogAddTD("error-L2 : Index %s %d", __FILE__, __LINE__);

  000a6	68 09 0b 00 00	 push	 2825			; 00000b09H
  000ab	68 00 00 00 00	 push	 OFFSET ??_C@_0BA@FCCBMCDG@EDSProtocol?4cpp?$AA@
  000b0	68 00 00 00 00	 push	 OFFSET ??_C@_0BH@LCDOHCGD@error?9L2?5?3?5Index?5?$CFs?5?$CFd?$AA@
  000b5	ff 15 00 00 00
	00		 call	 DWORD PTR ?LogAddTD@@3P6AXPADZZA ; LogAddTD

; 2841 : 	{
; 2842 : 		WithdrawUserMoney("Mail", &gObj[lpMsg->Number], 1000);

  000bb	83 c4 0c	 add	 esp, 12			; 0000000cH
  000be	5e		 pop	 esi

; 2843 : 	}
; 2844 : }

  000bf	8b 4d fc	 mov	 ecx, DWORD PTR __$ArrayPad$[ebp]
  000c2	33 cd		 xor	 ecx, ebp
  000c4	e8 00 00 00 00	 call	 @__security_check_cookie@4
  000c9	8b e5		 mov	 esp, ebp
  000cb	5d		 pop	 ebp
  000cc	c3		 ret	 0
$LN3@FriendMemo:

; 2826 : 		return;
; 2827 : 	}
; 2828 : 
; 2829 : 	PMSG_FRIEND_MEMO_RESULT pMsg;
; 2830 : 
; 2831 : 	pMsg.h.set((LPBYTE)&pMsg, 0xC5, sizeof(pMsg));
; 2832 : 	pMsg.Result = lpMsg->Result;

  000cd	8a 46 10	 mov	 al, BYTE PTR [esi+16]
  000d0	88 45 eb	 mov	 BYTE PTR _pMsg$[ebp+3], al

; 2833 : 	pMsg.WindowGuid = lpMsg->WindowGuid;

  000d3	8b 46 14	 mov	 eax, DWORD PTR [esi+20]
  000d6	89 45 ec	 mov	 DWORD PTR _pMsg$[ebp+4], eax

; 2835 : 	DataSend(lpMsg->Number, (LPBYTE)&pMsg, sizeof(pMsg));

  000d9	8d 45 e8	 lea	 eax, DWORD PTR _pMsg$[ebp]
  000dc	6a 08		 push	 8
  000de	50		 push	 eax
  000df	0f bf 46 04	 movsx	 eax, WORD PTR [esi+4]
  000e3	50		 push	 eax
; File c:\users\michel\desktop\source\gameserver\include\prodef.h

; 86   : 		lpBuf[0] = 0xC1;

  000e4	66 c7 45 e8 c1
	08		 mov	 WORD PTR _pMsg$[ebp], 2241 ; 000008c1H

; 87   : 		lpBuf[1] = size;
; 88   : 		lpBuf[2] = head;

  000ea	c6 45 ea c5	 mov	 BYTE PTR _pMsg$[ebp+2], 197 ; 000000c5H
; File c:\users\michel\desktop\source\gameserver\source\edsprotocol.cpp

; 2835 : 	DataSend(lpMsg->Number, (LPBYTE)&pMsg, sizeof(pMsg));

  000ee	e8 00 00 00 00	 call	 ?DataSend@@YAHHPAEK@Z	; DataSend

; 2836 : 
; 2837 : 	LogAdd("[%s] Friend mail Send result : (%d) guid:(%d)",

  000f3	ff 76 14	 push	 DWORD PTR [esi+20]
  000f6	0f b6 46 10	 movzx	 eax, BYTE PTR [esi+16]
  000fa	50		 push	 eax
  000fb	0f bf 46 04	 movsx	 eax, WORD PTR [esi+4]
  000ff	69 c8 40 27 00
	00		 imul	 ecx, eax, 10048
  00105	a1 00 00 00 00	 mov	 eax, DWORD PTR ?gObj@@3PAUOBJECTSTRUCT@@A ; gObj
  0010a	83 c0 5d	 add	 eax, 93			; 0000005dH
  0010d	03 c1		 add	 eax, ecx
  0010f	50		 push	 eax
  00110	68 00 00 00 00	 push	 OFFSET ??_C@_0CO@FGOJBJPG@?$FL?$CFs?$FN?5Friend?5mail?5Send?5result?5?3?5?$CI@
  00115	ff 15 00 00 00
	00		 call	 DWORD PTR ?LogAdd@@3P6AXPADZZA ; LogAdd
  0011b	83 c4 1c	 add	 esp, 28			; 0000001cH

; 2838 : 		gObj[lpMsg->Number].Name, lpMsg->Result, lpMsg->WindowGuid);
; 2839 : 
; 2840 : 	if ( pMsg.Result == 1 )

  0011e	80 7d eb 01	 cmp	 BYTE PTR _pMsg$[ebp+3], 1
  00122	75 23		 jne	 SHORT $LN4@FriendMemo

; 2841 : 	{
; 2842 : 		WithdrawUserMoney("Mail", &gObj[lpMsg->Number], 1000);

  00124	0f bf 46 04	 movsx	 eax, WORD PTR [esi+4]
  00128	69 c0 40 27 00
	00		 imul	 eax, eax, 10048
  0012e	68 e8 03 00 00	 push	 1000			; 000003e8H
  00133	03 05 00 00 00
	00		 add	 eax, DWORD PTR ?gObj@@3PAUOBJECTSTRUCT@@A ; gObj
  00139	50		 push	 eax
  0013a	68 00 00 00 00	 push	 OFFSET ??_C@_04JEGKNAHI@Mail?$AA@
  0013f	e8 00 00 00 00	 call	 ?WithdrawUserMoney@@YAHPADPAUOBJECTSTRUCT@@H@Z ; WithdrawUserMoney
  00144	83 c4 0c	 add	 esp, 12			; 0000000cH
$LN4@FriendMemo:

; 2843 : 	}
; 2844 : }

  00147	8b 4d fc	 mov	 ecx, DWORD PTR __$ArrayPad$[ebp]
  0014a	33 cd		 xor	 ecx, ebp
  0014c	5e		 pop	 esi
  0014d	e8 00 00 00 00	 call	 @__security_check_cookie@4
  00152	8b e5		 mov	 esp, ebp
  00154	5d		 pop	 ebp
  00155	c3		 ret	 0
?FriendMemoSendResult@@YAXPAUFHP_FRIEND_MEMO_SEND_RESULT@@@Z ENDP ; FriendMemoSendResult
_TEXT	ENDS
; Function compile flags: /Ogtp
; File c:\users\michel\desktop\source\gameserver\source\edsprotocol.cpp
;	COMDAT ?WithdrawUserMoney@@YAHPADPAUOBJECTSTRUCT@@H@Z
_TEXT	SEGMENT
_Type$ = 8						; size = 4
_lpObj$ = 12						; size = 4
_Withdraw_Money$ = 16					; size = 4
?WithdrawUserMoney@@YAHPADPAUOBJECTSTRUCT@@H@Z PROC	; WithdrawUserMoney, COMDAT

; 2784 : {

  00000	55		 push	 ebp
  00001	8b ec		 mov	 ebp, esp
  00003	53		 push	 ebx
  00004	56		 push	 esi

; 2785 : 	int oldmoney;
; 2786 : 
; 2787 : 	if ( (lpObj->Money - Withdraw_Money) >= 0 )

  00005	8b 75 0c	 mov	 esi, DWORD PTR _lpObj$[ebp]
  00008	8b 9e cc 00 00
	00		 mov	 ebx, DWORD PTR [esi+204]
  0000e	8b c3		 mov	 eax, ebx
  00010	2b 45 10	 sub	 eax, DWORD PTR _Withdraw_Money$[ebp]
  00013	78 3a		 js	 SHORT $LN2@WithdrawUs

; 2788 : 	{
; 2789 : 		oldmoney = lpObj->Money;
; 2790 : 		lpObj->Money -= Withdraw_Money;
; 2791 : 
; 2792 : 		GCMoneySend(lpObj->m_Index, lpObj->Money);

  00015	50		 push	 eax
  00016	ff 36		 push	 DWORD PTR [esi]
  00018	89 86 cc 00 00
	00		 mov	 DWORD PTR [esi+204], eax
  0001e	e8 00 00 00 00	 call	 ?GCMoneySend@@YAXHK@Z	; GCMoneySend

; 2793 : 		
; 2794 : 		LogAdd("[%s][%s] (%s) Pay Money(In Inventory) : %d - %d = %d",

  00023	ff b6 cc 00 00
	00		 push	 DWORD PTR [esi+204]
  00029	8d 46 5d	 lea	 eax, DWORD PTR [esi+93]
  0002c	ff 75 10	 push	 DWORD PTR _Withdraw_Money$[ebp]
  0002f	53		 push	 ebx
  00030	ff 75 08	 push	 DWORD PTR _Type$[ebp]
  00033	50		 push	 eax
  00034	8d 46 52	 lea	 eax, DWORD PTR [esi+82]
  00037	50		 push	 eax
  00038	68 00 00 00 00	 push	 OFFSET ??_C@_0DF@HMMPGHMB@?$FL?$CFs?$FN?$FL?$CFs?$FN?5?$CI?$CFs?$CJ?5Pay?5Money?$CIIn?5Inven@
  0003d	ff 15 00 00 00
	00		 call	 DWORD PTR ?LogAdd@@3P6AXPADZZA ; LogAdd
  00043	83 c4 24	 add	 esp, 36			; 00000024H

; 2795 : 			lpObj->AccountID, lpObj->Name, Type, oldmoney, Withdraw_Money, lpObj->Money);
; 2796 : 
; 2797 : 		return TRUE;

  00046	b8 01 00 00 00	 mov	 eax, 1
  0004b	5e		 pop	 esi
  0004c	5b		 pop	 ebx

; 2801 : }

  0004d	5d		 pop	 ebp
  0004e	c3		 ret	 0
$LN2@WithdrawUs:
  0004f	5e		 pop	 esi

; 2798 : 	}
; 2799 : 
; 2800 : 	return FALSE;

  00050	33 c0		 xor	 eax, eax
  00052	5b		 pop	 ebx

; 2801 : }

  00053	5d		 pop	 ebp
  00054	c3		 ret	 0
?WithdrawUserMoney@@YAHPADPAUOBJECTSTRUCT@@H@Z ENDP	; WithdrawUserMoney
_TEXT	ENDS
; Function compile flags: /Ogtp
; File c:\users\michel\desktop\source\gameserver\source\edsprotocol.cpp
; File c:\users\michel\desktop\source\gameserver\common\winutil.h
; File c:\users\michel\desktop\source\gameserver\source\edsprotocol.cpp
; File c:\users\michel\desktop\source\gameserver\common\winutil.h
; File c:\users\michel\desktop\source\gameserver\source\edsprotocol.cpp
; File c:\users\michel\desktop\source\gameserver\common\winutil.h
; File c:\users\michel\desktop\source\gameserver\source\edsprotocol.cpp
; File c:\users\michel\desktop\source\gameserver\include\prodef.h
; File c:\users\michel\desktop\source\gameserver\source\edsprotocol.cpp
; File c:\users\michel\desktop\source\gameserver\include\prodef.h
; File c:\users\michel\desktop\source\gameserver\source\edsprotocol.cpp
;	COMDAT ?MngFriendMemoSend@@YAXPAUPMSG_JG_MEMO_SEND@@@Z
_TEXT	SEGMENT
_pMsg$ = -1104						; size = 1088
_Name$ = -16						; size = 11
__$ArrayPad$ = -4					; size = 4
_lpMsg$ = 8						; size = 4
?MngFriendMemoSend@@YAXPAUPMSG_JG_MEMO_SEND@@@Z PROC	; MngFriendMemoSend, COMDAT

; 2749 : {

  00000	55		 push	 ebp
  00001	8b ec		 mov	 ebp, esp
  00003	81 ec 50 04 00
	00		 sub	 esp, 1104		; 00000450H
  00009	a1 00 00 00 00	 mov	 eax, DWORD PTR ___security_cookie
  0000e	33 c5		 xor	 eax, ebp
  00010	89 45 fc	 mov	 DWORD PTR __$ArrayPad$[ebp], eax
  00013	56		 push	 esi
  00014	8b 75 08	 mov	 esi, DWORD PTR _lpMsg$[ebp]
  00017	0f 57 c0	 xorps	 xmm0, xmm0
  0001a	57		 push	 edi
; File c:\users\michel\desktop\source\gameserver\common\winutil.h

; 45   : 		memset(this->Name, 0, sizeof(this->Name));

  0001b	66 0f d6 45 f0	 movq	 QWORD PTR _Name$[ebp], xmm0
  00020	66 c7 45 f8 00
	00		 mov	 WORD PTR _Name$[ebp+8], 0
; File c:\users\michel\desktop\source\gameserver\source\edsprotocol.cpp

; 2750 : 	char_ID Name(lpMsg->Name);

  00026	8d 56 04	 lea	 edx, DWORD PTR [esi+4]
; File c:\users\michel\desktop\source\gameserver\common\winutil.h

; 45   : 		memset(this->Name, 0, sizeof(this->Name));

  00029	c6 45 fa 00	 mov	 BYTE PTR _Name$[ebp+10], 0

; 46   : 
; 47   : 		if ( szName != NULL )

  0002d	85 d2		 test	 edx, edx
  0002f	74 11		 je	 SHORT $LN7@MngFriendM

; 48   : 		{
; 49   : 			memcpy(this->Name, szName, MAX_ACCOUNT_LEN);

  00031	f3 0f 7e 02	 movq	 xmm0, QWORD PTR [edx]
  00035	66 8b 42 08	 mov	 ax, WORD PTR [edx+8]
  00039	66 0f d6 45 f0	 movq	 QWORD PTR _Name$[ebp], xmm0
  0003e	66 89 45 f8	 mov	 WORD PTR _Name$[ebp+8], ax
$LN7@MngFriendM:
; File c:\users\michel\desktop\source\gameserver\source\edsprotocol.cpp

; 2752 : 	if ( lpMsg->MemoSize < 0 || lpMsg->MemoSize > 1000 )

  00042	0f b7 7e 38	 movzx	 edi, WORD PTR [esi+56]
  00046	66 85 ff	 test	 di, di
  00049	0f 88 02 01 00
	00		 js	 $LN3@MngFriendM
  0004f	b8 e8 03 00 00	 mov	 eax, 1000		; 000003e8H
  00054	66 3b f8	 cmp	 di, ax
  00057	0f 8f f4 00 00
	00		 jg	 $LN3@MngFriendM
; File c:\users\michel\desktop\source\gameserver\common\winutil.h

; 60   : 		return strlen(this->Name);

  0005d	8d 45 f0	 lea	 eax, DWORD PTR _Name$[ebp]
  00060	53		 push	 ebx
  00061	8d 58 01	 lea	 ebx, DWORD PTR [eax+1]
$LL15@MngFriendM:
  00064	8a 08		 mov	 cl, BYTE PTR [eax]
  00066	40		 inc	 eax
  00067	84 c9		 test	 cl, cl
  00069	75 f9		 jne	 SHORT $LL15@MngFriendM
  0006b	2b c3		 sub	 eax, ebx
; File c:\users\michel\desktop\source\gameserver\source\edsprotocol.cpp

; 2755 : 	if ( Name.GetLength() < 1 )

  0006d	83 f8 01	 cmp	 eax, 1
  00070	0f 8c da 00 00
	00		 jl	 $LN16@MngFriendM

; 2768 : 	memcpy(pMsg.Subject, lpMsg->Subject, sizeof(pMsg.Subject));

  00076	0f 10 46 18	 movups	 xmm0, XMMWORD PTR [esi+24]
  0007a	0f bf cf	 movsx	 ecx, di

; 2772 : 	memcpy(pMsg.Memo, lpMsg->Memo, lpMsg->MemoSize);

  0007d	51		 push	 ecx
  0007e	0f 11 85 d0 fb
	ff ff		 movups	 XMMWORD PTR _pMsg$[ebp+32], xmm0
; File c:\users\michel\desktop\source\gameserver\include\prodef.h

; 111  : 		lpBuf[0] = 0xC2;

  00085	c6 85 b0 fb ff
	ff c2		 mov	 BYTE PTR _pMsg$[ebp], 194 ; 000000c2H
; File c:\users\michel\desktop\source\gameserver\source\edsprotocol.cpp

; 2768 : 	memcpy(pMsg.Subject, lpMsg->Subject, sizeof(pMsg.Subject));

  0008c	0f 10 46 28	 movups	 xmm0, XMMWORD PTR [esi+40]
  00090	8d 59 58	 lea	 ebx, DWORD PTR [ecx+88]
; File c:\users\michel\desktop\source\gameserver\include\prodef.h

; 114  : 		lpBuf[3] = head;

  00093	c6 85 b3 fb ff
	ff 70		 mov	 BYTE PTR _pMsg$[ebp+3], 112 ; 00000070H
  0009a	8b c3		 mov	 eax, ebx
  0009c	88 9d b2 fb ff
	ff		 mov	 BYTE PTR _pMsg$[ebp+2], bl
  000a2	c1 e8 08	 shr	 eax, 8
  000a5	88 85 b1 fb ff
	ff		 mov	 BYTE PTR _pMsg$[ebp+1], al
; File c:\users\michel\desktop\source\gameserver\source\edsprotocol.cpp

; 2765 : 	pMsg.Number = -1;

  000ab	83 c8 ff	 or	 eax, -1
  000ae	66 89 85 b4 fb
	ff ff		 mov	 WORD PTR _pMsg$[ebp+4], ax

; 2769 : 	memcpy(pMsg.Name, lpMsg->Name , sizeof(pMsg.Name));

  000b5	0f b7 42 08	 movzx	 eax, WORD PTR [edx+8]
  000b9	66 89 85 c4 fb
	ff ff		 mov	 WORD PTR _pMsg$[ebp+20], ax

; 2770 : 	memset(pMsg.Photo, 0, sizeof(pMsg.Photo));
; 2771 : 	memcpy(pMsg.ToName, lpMsg->TargetName, sizeof(pMsg.ToName));

  000c0	0f b7 46 16	 movzx	 eax, WORD PTR [esi+22]
  000c4	0f 11 85 e0 fb
	ff ff		 movups	 XMMWORD PTR _pMsg$[ebp+48], xmm0
  000cb	66 89 85 ce fb
	ff ff		 mov	 WORD PTR _pMsg$[ebp+30], ax

; 2772 : 	memcpy(pMsg.Memo, lpMsg->Memo, lpMsg->MemoSize);

  000d2	8d 46 3a	 lea	 eax, DWORD PTR [esi+58]
  000d5	f3 0f 7e 02	 movq	 xmm0, QWORD PTR [edx]
  000d9	66 0f d6 85 bc
	fb ff ff	 movq	 QWORD PTR _pMsg$[ebp+12], xmm0
  000e1	0f 57 c0	 xorps	 xmm0, xmm0
  000e4	50		 push	 eax
  000e5	0f 11 85 f4 fb
	ff ff		 movups	 XMMWORD PTR _pMsg$[ebp+68], xmm0
  000ec	8d 85 06 fc ff
	ff		 lea	 eax, DWORD PTR _pMsg$[ebp+86]
  000f2	c7 85 b8 fb ff
	ff 00 00 00 00	 mov	 DWORD PTR _pMsg$[ebp+8], 0
  000fc	f3 0f 7e 46 0e	 movq	 xmm0, QWORD PTR [esi+14]
  00101	50		 push	 eax
  00102	66 89 bd f2 fb
	ff ff		 mov	 WORD PTR _pMsg$[ebp+66], di
  00109	66 c7 85 f0 fb
	ff ff 00 00	 mov	 WORD PTR _pMsg$[ebp+64], 0
  00112	66 c7 85 04 fc
	ff ff 00 00	 mov	 WORD PTR _pMsg$[ebp+84], 0
  0011b	66 0f d6 85 c6
	fb ff ff	 movq	 QWORD PTR _pMsg$[ebp+22], xmm0
  00123	e8 00 00 00 00	 call	 _memcpy
  00128	83 c4 0c	 add	 esp, 12			; 0000000cH

; 2773 : 
; 2774 : 	wsExDbCli.DataSend((PCHAR)&pMsg, bsize);

  0012b	8d 85 b0 fb ff
	ff		 lea	 eax, DWORD PTR _pMsg$[ebp]
  00131	b9 00 00 00 00	 mov	 ecx, OFFSET ?wsExDbCli@@3VwsJoinServerCli@@A ; wsExDbCli
  00136	53		 push	 ebx
  00137	50		 push	 eax
  00138	e8 00 00 00 00	 call	 ?DataSend@wsJoinServerCli@@QAEHPADH@Z ; wsJoinServerCli::DataSend

; 2775 : 
; 2776 : 	LogAdd("JoinServer mail send %s (Size:%d)", Name.GetBuffer(), bsize);

  0013d	53		 push	 ebx
  0013e	8d 45 f0	 lea	 eax, DWORD PTR _Name$[ebp]
  00141	50		 push	 eax
  00142	68 00 00 00 00	 push	 OFFSET ??_C@_0CC@MFFMGDDE@JoinServer?5mail?5send?5?$CFs?5?$CISize?3?$CFd@
  00147	ff 15 00 00 00
	00		 call	 DWORD PTR ?LogAdd@@3P6AXPADZZA ; LogAdd
  0014d	83 c4 0c	 add	 esp, 12			; 0000000cH
$LN16@MngFriendM:
  00150	5b		 pop	 ebx
$LN3@MngFriendM:

; 2777 : }

  00151	8b 4d fc	 mov	 ecx, DWORD PTR __$ArrayPad$[ebp]
  00154	5f		 pop	 edi
  00155	33 cd		 xor	 ecx, ebp
  00157	5e		 pop	 esi
  00158	e8 00 00 00 00	 call	 @__security_check_cookie@4
  0015d	8b e5		 mov	 esp, ebp
  0015f	5d		 pop	 ebp
  00160	c3		 ret	 0
?MngFriendMemoSend@@YAXPAUPMSG_JG_MEMO_SEND@@@Z ENDP	; MngFriendMemoSend
_TEXT	ENDS
; Function compile flags: /Ogtp
; File c:\users\michel\desktop\source\gameserver\source\edsprotocol.cpp
; File c:\users\michel\desktop\source\gameserver\common\winutil.h
; File c:\users\michel\desktop\source\gameserver\source\edsprotocol.cpp
; File c:\users\michel\desktop\source\gameserver\common\winutil.h
; File c:\users\michel\desktop\source\gameserver\source\edsprotocol.cpp
; File c:\users\michel\desktop\source\gameserver\include\prodef.h
; File c:\users\michel\desktop\source\gameserver\source\edsprotocol.cpp
; File c:\users\michel\desktop\source\gameserver\include\prodef.h
; File c:\users\michel\desktop\source\gameserver\source\edsprotocol.cpp
; File c:\users\michel\desktop\source\gameserver\include\prodef.h
; File c:\users\michel\desktop\source\gameserver\source\edsprotocol.cpp
;	COMDAT ?FriendMemoSend@@YAXPAUPMSG_FRIEND_MEMO@@H@Z
_TEXT	SEGMENT
tv219 = -1136						; size = 4
tv215 = -1132						; size = 4
_pResult$1 = -1128					; size = 24
_pResult$2 = -1128					; size = 24
_pMsg$ = -1104						; size = 1088
_Name$ = -16						; size = 11
__$ArrayPad$ = -4					; size = 4
_lpMsg$ = 8						; size = 4
_aIndex$ = 12						; size = 4
?FriendMemoSend@@YAXPAUPMSG_FRIEND_MEMO@@H@Z PROC	; FriendMemoSend, COMDAT

; 2673 : {

  00000	55		 push	 ebp
  00001	8b ec		 mov	 ebp, esp
  00003	81 ec 70 04 00
	00		 sub	 esp, 1136		; 00000470H
  00009	a1 00 00 00 00	 mov	 eax, DWORD PTR ___security_cookie
  0000e	33 c5		 xor	 eax, ebp
  00010	89 45 fc	 mov	 DWORD PTR __$ArrayPad$[ebp], eax
  00013	56		 push	 esi
  00014	8b 75 08	 mov	 esi, DWORD PTR _lpMsg$[ebp]
  00017	57		 push	 edi
  00018	8b 7d 0c	 mov	 edi, DWORD PTR _aIndex$[ebp]

; 2674 : 	if ( !gObjIsConnectedGP(aIndex))

  0001b	57		 push	 edi
  0001c	e8 00 00 00 00	 call	 ?gObjIsConnectedGP@@YAHH@Z ; gObjIsConnectedGP
  00021	83 c4 04	 add	 esp, 4
  00024	85 c0		 test	 eax, eax
  00026	75 28		 jne	 SHORT $LN2@FriendMemo

; 2675 : 	{
; 2676 : 		LogAddTD("error-L2 : Index %s %d", __FILE__, __LINE__);

  00028	68 74 0a 00 00	 push	 2676			; 00000a74H
  0002d	68 00 00 00 00	 push	 OFFSET ??_C@_0BA@FCCBMCDG@EDSProtocol?4cpp?$AA@
  00032	68 00 00 00 00	 push	 OFFSET ??_C@_0BH@LCDOHCGD@error?9L2?5?3?5Index?5?$CFs?5?$CFd?$AA@
  00037	ff 15 00 00 00
	00		 call	 DWORD PTR ?LogAddTD@@3P6AXPADZZA ; LogAddTD
  0003d	83 c4 0c	 add	 esp, 12			; 0000000cH
  00040	5f		 pop	 edi
  00041	5e		 pop	 esi

; 2742 : }

  00042	8b 4d fc	 mov	 ecx, DWORD PTR __$ArrayPad$[ebp]
  00045	33 cd		 xor	 ecx, ebp
  00047	e8 00 00 00 00	 call	 @__security_check_cookie@4
  0004c	8b e5		 mov	 esp, ebp
  0004e	5d		 pop	 ebp
  0004f	c3		 ret	 0
$LN2@FriendMemo:

; 2677 : 		return;
; 2678 : 	}
; 2679 : 
; 2680 : 	char_ID Name(lpMsg->Name);

  00050	8d 46 08	 lea	 eax, DWORD PTR [esi+8]
; File c:\users\michel\desktop\source\gameserver\common\winutil.h

; 45   : 		memset(this->Name, 0, sizeof(this->Name));

  00053	66 c7 45 f8 00
	00		 mov	 WORD PTR _Name$[ebp+8], 0
  00059	c6 45 fa 00	 mov	 BYTE PTR _Name$[ebp+10], 0
  0005d	0f 57 c0	 xorps	 xmm0, xmm0
  00060	66 0f d6 45 f0	 movq	 QWORD PTR _Name$[ebp], xmm0

; 46   : 
; 47   : 		if ( szName != NULL )

  00065	85 c0		 test	 eax, eax
  00067	74 11		 je	 SHORT $LN9@FriendMemo

; 48   : 		{
; 49   : 			memcpy(this->Name, szName, MAX_ACCOUNT_LEN);

  00069	f3 0f 7e 00	 movq	 xmm0, QWORD PTR [eax]
  0006d	66 8b 40 08	 mov	 ax, WORD PTR [eax+8]
  00071	66 0f d6 45 f0	 movq	 QWORD PTR _Name$[ebp], xmm0
  00076	66 89 45 f8	 mov	 WORD PTR _Name$[ebp+8], ax
$LN9@FriendMemo:
; File c:\users\michel\desktop\source\gameserver\source\edsprotocol.cpp

; 2682 : 	if ( gObj[aIndex].Money < 1000 )

  0007a	8b 15 00 00 00
	00		 mov	 edx, DWORD PTR ?gObj@@3PAUOBJECTSTRUCT@@A ; gObj
  00080	69 cf 40 27 00
	00		 imul	 ecx, edi, 10048
  00086	03 d1		 add	 edx, ecx
  00088	89 8d 90 fb ff
	ff		 mov	 DWORD PTR tv219[ebp], ecx
  0008e	81 ba cc 00 00
	00 e8 03 00 00	 cmp	 DWORD PTR [edx+204], 1000 ; 000003e8H
  00098	7d 4e		 jge	 SHORT $LN3@FriendMemo

; 2683 : 	{
; 2684 : 		FHP_FRIEND_MEMO_SEND_RESULT pResult;
; 2685 : 
; 2686 : 		pResult.Number = aIndex;
; 2687 : 		pResult.Result = 7;
; 2688 : 		pResult.WindowGuid = lpMsg->WindowGuid;

  0009a	8b 46 04	 mov	 eax, DWORD PTR [esi+4]

; 2689 : 		memcpy(pResult.Name, gObj[aIndex].Name, sizeof(pResult.Name));

  0009d	f3 0f 7e 42 5d	 movq	 xmm0, QWORD PTR [edx+93]
  000a2	89 85 ac fb ff
	ff		 mov	 DWORD PTR _pResult$2[ebp+20], eax
  000a8	66 8b 42 65	 mov	 ax, WORD PTR [edx+101]
  000ac	66 89 85 a6 fb
	ff ff		 mov	 WORD PTR _pResult$2[ebp+14], ax

; 2690 : 
; 2691 : 		FriendMemoSendResult(&pResult);

  000b3	8d 85 98 fb ff
	ff		 lea	 eax, DWORD PTR _pResult$2[ebp]
  000b9	50		 push	 eax
  000ba	66 89 bd 9c fb
	ff ff		 mov	 WORD PTR _pResult$2[ebp+4], di
  000c1	c6 85 a8 fb ff
	ff 07		 mov	 BYTE PTR _pResult$2[ebp+16], 7
  000c8	66 0f d6 85 9e
	fb ff ff	 movq	 QWORD PTR _pResult$2[ebp+6], xmm0
  000d0	e8 00 00 00 00	 call	 ?FriendMemoSendResult@@YAXPAUFHP_FRIEND_MEMO_SEND_RESULT@@@Z ; FriendMemoSendResult
  000d5	83 c4 04	 add	 esp, 4
  000d8	5f		 pop	 edi
  000d9	5e		 pop	 esi

; 2742 : }

  000da	8b 4d fc	 mov	 ecx, DWORD PTR __$ArrayPad$[ebp]
  000dd	33 cd		 xor	 ecx, ebp
  000df	e8 00 00 00 00	 call	 @__security_check_cookie@4
  000e4	8b e5		 mov	 esp, ebp
  000e6	5d		 pop	 ebp
  000e7	c3		 ret	 0
$LN3@FriendMemo:
  000e8	53		 push	 ebx

; 2692 : 
; 2693 : 		return;
; 2694 : 	}
; 2695 : 
; 2696 : 	if ( lpMsg->MemoSize < 0 || lpMsg->MemoSize > 1000 )

  000e9	0f b7 5e 50	 movzx	 ebx, WORD PTR [esi+80]
  000ed	66 85 db	 test	 bx, bx
  000f0	0f 88 3f 01 00
	00		 js	 $LN5@FriendMemo
  000f6	b8 e8 03 00 00	 mov	 eax, 1000		; 000003e8H
  000fb	66 3b d8	 cmp	 bx, ax
  000fe	0f 8f 31 01 00
	00		 jg	 $LN5@FriendMemo
; File c:\users\michel\desktop\source\gameserver\common\winutil.h

; 60   : 		return strlen(this->Name);

  00104	8d 45 f0	 lea	 eax, DWORD PTR _Name$[ebp]
  00107	8d 48 01	 lea	 ecx, DWORD PTR [eax+1]
  0010a	89 8d 94 fb ff
	ff		 mov	 DWORD PTR tv215[ebp], ecx
$LL17@FriendMemo:
  00110	8a 08		 mov	 cl, BYTE PTR [eax]
  00112	40		 inc	 eax
  00113	84 c9		 test	 cl, cl
  00115	75 f9		 jne	 SHORT $LL17@FriendMemo
  00117	2b 85 94 fb ff
	ff		 sub	 eax, DWORD PTR tv215[ebp]
; File c:\users\michel\desktop\source\gameserver\source\edsprotocol.cpp

; 2710 : 	if ( Name.GetLength() < 1 )

  0011d	83 f8 01	 cmp	 eax, 1
  00120	0f 8c 0f 01 00
	00		 jl	 $LN5@FriendMemo

; 2733 : 	memcpy(pMsg.Subject, lpMsg->Subject, sizeof(pMsg.Subject));

  00126	0f 10 46 12	 movups	 xmm0, XMMWORD PTR [esi+18]
  0012a	0f bf cb	 movsx	 ecx, bx
; File c:\users\michel\desktop\source\gameserver\include\prodef.h

; 111  : 		lpBuf[0] = 0xC2;

  0012d	c6 85 b0 fb ff
	ff c2		 mov	 BYTE PTR _pMsg$[ebp], 194 ; 000000c2H
; File c:\users\michel\desktop\source\gameserver\source\edsprotocol.cpp

; 2733 : 	memcpy(pMsg.Subject, lpMsg->Subject, sizeof(pMsg.Subject));

  00134	0f 11 85 d0 fb
	ff ff		 movups	 XMMWORD PTR _pMsg$[ebp+32], xmm0
; File c:\users\michel\desktop\source\gameserver\include\prodef.h

; 114  : 		lpBuf[3] = head;

  0013b	c6 85 b3 fb ff
	ff 70		 mov	 BYTE PTR _pMsg$[ebp+3], 112 ; 00000070H
; File c:\users\michel\desktop\source\gameserver\source\edsprotocol.cpp

; 2733 : 	memcpy(pMsg.Subject, lpMsg->Subject, sizeof(pMsg.Subject));

  00142	0f 10 46 22	 movups	 xmm0, XMMWORD PTR [esi+34]
  00146	8d 59 58	 lea	 ebx, DWORD PTR [ecx+88]
  00149	66 89 bd b4 fb
	ff ff		 mov	 WORD PTR _pMsg$[ebp+4], di
; File c:\users\michel\desktop\source\gameserver\include\prodef.h

; 112  : 		lpBuf[1] = SET_NUMBERH(size);

  00150	8b c3		 mov	 eax, ebx

; 113  : 		lpBuf[2] = SET_NUMBERL(size);

  00152	88 9d b2 fb ff
	ff		 mov	 BYTE PTR _pMsg$[ebp+2], bl
  00158	c1 e8 08	 shr	 eax, 8
  0015b	88 85 b1 fb ff
	ff		 mov	 BYTE PTR _pMsg$[ebp+1], al
; File c:\users\michel\desktop\source\gameserver\source\edsprotocol.cpp

; 2728 : 	pMsg.WindowGuid = lpMsg->WindowGuid;

  00161	8b 46 04	 mov	 eax, DWORD PTR [esi+4]
  00164	89 85 b8 fb ff
	ff		 mov	 DWORD PTR _pMsg$[ebp+8], eax

; 2729 : 	pMsg.MemoSize = lpMsg->MemoSize;

  0016a	0f b7 46 50	 movzx	 eax, WORD PTR [esi+80]
  0016e	66 89 85 f2 fb
	ff ff		 mov	 WORD PTR _pMsg$[ebp+66], ax

; 2730 : 	pMsg.Number = aIndex;
; 2731 : 	pMsg.Dir = lpMsg->Dir;

  00175	0f b6 46 4e	 movzx	 eax, BYTE PTR [esi+78]
  00179	88 85 f0 fb ff
	ff		 mov	 BYTE PTR _pMsg$[ebp+64], al

; 2732 : 	pMsg.Action = lpMsg->Action;

  0017f	0f b6 46 4f	 movzx	 eax, BYTE PTR [esi+79]
  00183	88 85 f1 fb ff
	ff		 mov	 BYTE PTR _pMsg$[ebp+65], al

; 2733 : 	memcpy(pMsg.Subject, lpMsg->Subject, sizeof(pMsg.Subject));

  00189	0f 11 85 e0 fb
	ff ff		 movups	 XMMWORD PTR _pMsg$[ebp+48], xmm0

; 2734 : 	memcpy(pMsg.Name, gObj[aIndex].Name, sizeof(pMsg.Name));
; 2735 : 	memcpy(pMsg.Photo, gObj[aIndex].CharSet, sizeof(pMsg.Photo));
; 2736 : 	memcpy(pMsg.ToName, lpMsg->Name, sizeof(pMsg.ToName));
; 2737 : 	memcpy(pMsg.Memo, lpMsg->Memo, lpMsg->MemoSize);

  00190	51		 push	 ecx
  00191	f3 0f 7e 42 5d	 movq	 xmm0, QWORD PTR [edx+93]
  00196	66 0f d6 85 bc
	fb ff ff	 movq	 QWORD PTR _pMsg$[ebp+12], xmm0
  0019e	0f b7 42 65	 movzx	 eax, WORD PTR [edx+101]
  001a2	66 89 85 c4 fb
	ff ff		 mov	 WORD PTR _pMsg$[ebp+20], ax
  001a9	0f 10 82 84 08
	00 00		 movups	 xmm0, XMMWORD PTR [edx+2180]
  001b0	0f 11 85 f4 fb
	ff ff		 movups	 XMMWORD PTR _pMsg$[ebp+68], xmm0
  001b7	0f b7 82 94 08
	00 00		 movzx	 eax, WORD PTR [edx+2196]
  001be	f3 0f 7e 46 08	 movq	 xmm0, QWORD PTR [esi+8]
  001c3	66 89 85 04 fc
	ff ff		 mov	 WORD PTR _pMsg$[ebp+84], ax
  001ca	0f b7 46 10	 movzx	 eax, WORD PTR [esi+16]
  001ce	66 89 85 ce fb
	ff ff		 mov	 WORD PTR _pMsg$[ebp+30], ax
  001d5	8d 46 52	 lea	 eax, DWORD PTR [esi+82]
  001d8	50		 push	 eax
  001d9	8d 85 06 fc ff
	ff		 lea	 eax, DWORD PTR _pMsg$[ebp+86]
  001df	66 0f d6 85 c6
	fb ff ff	 movq	 QWORD PTR _pMsg$[ebp+22], xmm0
  001e7	50		 push	 eax
  001e8	e8 00 00 00 00	 call	 _memcpy
  001ed	83 c4 0c	 add	 esp, 12			; 0000000cH

; 2738 : 
; 2739 : 	wsExDbCli.DataSend((PCHAR)&pMsg, bsize);

  001f0	8d 85 b0 fb ff
	ff		 lea	 eax, DWORD PTR _pMsg$[ebp]
  001f6	b9 00 00 00 00	 mov	 ecx, OFFSET ?wsExDbCli@@3VwsJoinServerCli@@A ; wsExDbCli
  001fb	53		 push	 ebx
  001fc	50		 push	 eax
  001fd	e8 00 00 00 00	 call	 ?DataSend@wsJoinServerCli@@QAEHPADH@Z ; wsJoinServerCli::DataSend

; 2740 : 
; 2741 : 	LogAdd("[%s] Friend mail send %s (Size:%d)", gObj[aIndex].Name, Name.GetBuffer(), bsize);

  00202	53		 push	 ebx
  00203	8d 45 f0	 lea	 eax, DWORD PTR _Name$[ebp]
  00206	50		 push	 eax
  00207	a1 00 00 00 00	 mov	 eax, DWORD PTR ?gObj@@3PAUOBJECTSTRUCT@@A ; gObj
  0020c	83 c0 5d	 add	 eax, 93			; 0000005dH
  0020f	03 85 90 fb ff
	ff		 add	 eax, DWORD PTR tv219[ebp]
  00215	50		 push	 eax
  00216	68 00 00 00 00	 push	 OFFSET ??_C@_0CD@HIFGHJCH@?$FL?$CFs?$FN?5Friend?5mail?5send?5?$CFs?5?$CISize?3?$CF@
  0021b	ff 15 00 00 00
	00		 call	 DWORD PTR ?LogAdd@@3P6AXPADZZA ; LogAdd
  00221	83 c4 10	 add	 esp, 16			; 00000010H
  00224	5b		 pop	 ebx
  00225	5f		 pop	 edi
  00226	5e		 pop	 esi

; 2742 : }

  00227	8b 4d fc	 mov	 ecx, DWORD PTR __$ArrayPad$[ebp]
  0022a	33 cd		 xor	 ecx, ebp
  0022c	e8 00 00 00 00	 call	 @__security_check_cookie@4
  00231	8b e5		 mov	 esp, ebp
  00233	5d		 pop	 ebp
  00234	c3		 ret	 0
$LN5@FriendMemo:

; 2697 : 	{
; 2698 : 		FHP_FRIEND_MEMO_SEND_RESULT pResult;
; 2699 : 
; 2700 : 		pResult.Number = aIndex;
; 2701 : 		pResult.Result = 0;
; 2702 : 		pResult.WindowGuid = lpMsg->WindowGuid;

  00235	8b 46 04	 mov	 eax, DWORD PTR [esi+4]

; 2703 : 		memcpy(pResult.Name, gObj[aIndex].Name, sizeof(pResult.Name));

  00238	f3 0f 7e 42 5d	 movq	 xmm0, QWORD PTR [edx+93]
  0023d	89 85 ac fb ff
	ff		 mov	 DWORD PTR _pResult$1[ebp+20], eax
  00243	66 8b 42 65	 mov	 ax, WORD PTR [edx+101]
  00247	66 89 85 a6 fb
	ff ff		 mov	 WORD PTR _pResult$1[ebp+14], ax

; 2704 : 
; 2705 : 		FriendMemoSendResult(&pResult);

  0024e	8d 85 98 fb ff
	ff		 lea	 eax, DWORD PTR _pResult$1[ebp]
  00254	50		 push	 eax
  00255	66 89 bd 9c fb
	ff ff		 mov	 WORD PTR _pResult$1[ebp+4], di
  0025c	c6 85 a8 fb ff
	ff 00		 mov	 BYTE PTR _pResult$1[ebp+16], 0
  00263	66 0f d6 85 9e
	fb ff ff	 movq	 QWORD PTR _pResult$1[ebp+6], xmm0
  0026b	e8 00 00 00 00	 call	 ?FriendMemoSendResult@@YAXPAUFHP_FRIEND_MEMO_SEND_RESULT@@@Z ; FriendMemoSendResult

; 2742 : }

  00270	8b 4d fc	 mov	 ecx, DWORD PTR __$ArrayPad$[ebp]
  00273	83 c4 04	 add	 esp, 4
  00276	33 cd		 xor	 ecx, ebp
  00278	5b		 pop	 ebx
  00279	5f		 pop	 edi
  0027a	5e		 pop	 esi
  0027b	e8 00 00 00 00	 call	 @__security_check_cookie@4
  00280	8b e5		 mov	 esp, ebp
  00282	5d		 pop	 ebp
  00283	c3		 ret	 0
?FriendMemoSend@@YAXPAUPMSG_FRIEND_MEMO@@H@Z ENDP	; FriendMemoSend
_TEXT	ENDS
; Function compile flags: /Ogtp
; File c:\users\michel\desktop\source\gameserver\source\edsprotocol.cpp
; File c:\users\michel\desktop\source\gameserver\common\winutil.h
; File c:\users\michel\desktop\source\gameserver\source\edsprotocol.cpp
; File c:\users\michel\desktop\source\gameserver\common\winutil.h
; File c:\users\michel\desktop\source\gameserver\source\edsprotocol.cpp
; File c:\users\michel\desktop\source\gameserver\include\prodef.h
; File c:\users\michel\desktop\source\gameserver\source\edsprotocol.cpp
;	COMDAT ?FriendChatRoomCreateResult@@YAXPAUFHP_FRIEND_CHATROOM_CREATE_RESULT@@@Z
_TEXT	SEGMENT
_pMsg$ = -52						; size = 36
_Name$ = -16						; size = 11
__$ArrayPad$ = -4					; size = 4
_lpMsg$ = 8						; size = 4
?FriendChatRoomCreateResult@@YAXPAUFHP_FRIEND_CHATROOM_CREATE_RESULT@@@Z PROC ; FriendChatRoomCreateResult, COMDAT

; 2628 : {

  00000	55		 push	 ebp
  00001	8b ec		 mov	 ebp, esp
  00003	83 ec 34	 sub	 esp, 52			; 00000034H
  00006	a1 00 00 00 00	 mov	 eax, DWORD PTR ___security_cookie
  0000b	33 c5		 xor	 eax, ebp
  0000d	89 45 fc	 mov	 DWORD PTR __$ArrayPad$[ebp], eax
  00010	56		 push	 esi
  00011	8b 75 08	 mov	 esi, DWORD PTR _lpMsg$[ebp]
  00014	0f 57 c0	 xorps	 xmm0, xmm0
; File c:\users\michel\desktop\source\gameserver\common\winutil.h

; 45   : 		memset(this->Name, 0, sizeof(this->Name));

  00017	66 0f d6 45 f0	 movq	 QWORD PTR _Name$[ebp], xmm0
  0001c	66 c7 45 f8 00
	00		 mov	 WORD PTR _Name$[ebp+8], 0
  00022	c6 45 fa 00	 mov	 BYTE PTR _Name$[ebp+10], 0
; File c:\users\michel\desktop\source\gameserver\source\edsprotocol.cpp

; 2629 : 	char_ID Name(lpMsg->Name);

  00026	8d 46 06	 lea	 eax, DWORD PTR [esi+6]
; File c:\users\michel\desktop\source\gameserver\common\winutil.h

; 47   : 		if ( szName != NULL )

  00029	85 c0		 test	 eax, eax
  0002b	74 11		 je	 SHORT $LN5@FriendChat

; 48   : 		{
; 49   : 			memcpy(this->Name, szName, MAX_ACCOUNT_LEN);

  0002d	f3 0f 7e 00	 movq	 xmm0, QWORD PTR [eax]
  00031	66 8b 40 08	 mov	 ax, WORD PTR [eax+8]
  00035	66 0f d6 45 f0	 movq	 QWORD PTR _Name$[ebp], xmm0
  0003a	66 89 45 f8	 mov	 WORD PTR _Name$[ebp+8], ax
$LN5@FriendChat:
; File c:\users\michel\desktop\source\gameserver\source\edsprotocol.cpp

; 2631 : 	if ( !gObjIsConnectedGP(lpMsg->Number, Name.GetBuffer()))

  0003e	8d 45 f0	 lea	 eax, DWORD PTR _Name$[ebp]
  00041	50		 push	 eax
  00042	0f bf 46 04	 movsx	 eax, WORD PTR [esi+4]
  00046	50		 push	 eax
  00047	e8 00 00 00 00	 call	 ?gObjIsConnectedGP@@YAHHPAD@Z ; gObjIsConnectedGP
  0004c	83 c4 08	 add	 esp, 8
  0004f	85 c0		 test	 eax, eax
  00051	75 2b		 jne	 SHORT $LN2@FriendChat

; 2632 : 	{
; 2633 : 		LogAddTD("error-L2 : Index %s %d (%s)", __FILE__, __LINE__, Name.GetBuffer());

  00053	8d 45 f0	 lea	 eax, DWORD PTR _Name$[ebp]
  00056	50		 push	 eax
  00057	68 49 0a 00 00	 push	 2633			; 00000a49H
  0005c	68 00 00 00 00	 push	 OFFSET ??_C@_0BA@FCCBMCDG@EDSProtocol?4cpp?$AA@
  00061	68 00 00 00 00	 push	 OFFSET ??_C@_0BM@JEKCBGDH@error?9L2?5?3?5Index?5?$CFs?5?$CFd?5?$CI?$CFs?$CJ?$AA@
  00066	ff 15 00 00 00
	00		 call	 DWORD PTR ?LogAddTD@@3P6AXPADZZA ; LogAddTD
  0006c	83 c4 10	 add	 esp, 16			; 00000010H
  0006f	5e		 pop	 esi

; 2650 : 		gObj[lpMsg->Number].Name, lpMsg->Result, lpMsg->Ticket);
; 2651 : }

  00070	8b 4d fc	 mov	 ecx, DWORD PTR __$ArrayPad$[ebp]
  00073	33 cd		 xor	 ecx, ebp
  00075	e8 00 00 00 00	 call	 @__security_check_cookie@4
  0007a	8b e5		 mov	 esp, ebp
  0007c	5d		 pop	 ebp
  0007d	c3		 ret	 0
$LN2@FriendChat:

; 2634 : 		return;
; 2635 : 	}
; 2636 : 
; 2637 : 	PMSG_FRIEND_ROOMCREATE_RESULT pMsg;
; 2638 : 
; 2639 : 	pMsg.h.setE((LPBYTE)&pMsg, 0xCA, sizeof(pMsg));
; 2640 : 	memcpy(pMsg.ServerIp, lpMsg->ServerIp, sizeof(pMsg.ServerIp));

  0007e	8b 46 22	 mov	 eax, DWORD PTR [esi+34]
  00081	f3 0f 7e 46 1a	 movq	 xmm0, QWORD PTR [esi+26]
  00086	89 45 d7	 mov	 DWORD PTR _pMsg$[ebp+11], eax
  00089	0f b7 46 26	 movzx	 eax, WORD PTR [esi+38]
  0008d	66 89 45 db	 mov	 WORD PTR _pMsg$[ebp+15], ax
  00091	0f b6 46 28	 movzx	 eax, BYTE PTR [esi+40]
  00095	88 45 dd	 mov	 BYTE PTR _pMsg$[ebp+17], al

; 2641 : 	pMsg.RoomNumber = lpMsg->RoomNumber;

  00098	0f b7 46 2a	 movzx	 eax, WORD PTR [esi+42]
  0009c	66 89 45 de	 mov	 WORD PTR _pMsg$[ebp+18], ax

; 2642 : 	pMsg.Ticket = lpMsg->Ticket;

  000a0	8b 46 2c	 mov	 eax, DWORD PTR [esi+44]
  000a3	89 45 e0	 mov	 DWORD PTR _pMsg$[ebp+20], eax

; 2643 : 	pMsg.Type = lpMsg->Type;

  000a6	0f b6 46 30	 movzx	 eax, BYTE PTR [esi+48]
  000aa	88 45 e4	 mov	 BYTE PTR _pMsg$[ebp+24], al

; 2644 : 	pMsg.Result = lpMsg->Result;

  000ad	0f b6 46 03	 movzx	 eax, BYTE PTR [esi+3]
  000b1	88 45 ef	 mov	 BYTE PTR _pMsg$[ebp+35], al

; 2645 : 	memcpy(pMsg.Name, lpMsg->FriendName, sizeof(pMsg.Name));

  000b4	0f b7 46 18	 movzx	 eax, WORD PTR [esi+24]
  000b8	66 89 45 ed	 mov	 WORD PTR _pMsg$[ebp+33], ax

; 2646 : 
; 2647 : 	DataSend(lpMsg->Number, (LPBYTE)&pMsg, sizeof(pMsg));

  000bc	8d 45 cc	 lea	 eax, DWORD PTR _pMsg$[ebp]
  000bf	6a 24		 push	 36			; 00000024H
  000c1	50		 push	 eax
  000c2	0f bf 46 04	 movsx	 eax, WORD PTR [esi+4]
  000c6	66 0f d6 45 cf	 movq	 QWORD PTR _pMsg$[ebp+3], xmm0
  000cb	f3 0f 7e 46 10	 movq	 xmm0, QWORD PTR [esi+16]
  000d0	50		 push	 eax
; File c:\users\michel\desktop\source\gameserver\include\prodef.h

; 93   : 		lpBuf[0] = 0xC3;

  000d1	66 c7 45 cc c3
	24		 mov	 WORD PTR _pMsg$[ebp], 9411 ; 000024c3H

; 94   : 		lpBuf[1] = size;
; 95   : 		lpBuf[2] = head;

  000d7	c6 45 ce ca	 mov	 BYTE PTR _pMsg$[ebp+2], 202 ; 000000caH
; File c:\users\michel\desktop\source\gameserver\source\edsprotocol.cpp

; 2645 : 	memcpy(pMsg.Name, lpMsg->FriendName, sizeof(pMsg.Name));

  000db	66 0f d6 45 e5	 movq	 QWORD PTR _pMsg$[ebp+25], xmm0

; 2646 : 
; 2647 : 	DataSend(lpMsg->Number, (LPBYTE)&pMsg, sizeof(pMsg));

  000e0	e8 00 00 00 00	 call	 ?DataSend@@YAHHPAEK@Z	; DataSend

; 2648 : 
; 2649 : 	LogAdd("[%s] Chatroom create result (%d) ticket:(%d)",

  000e5	ff 76 2c	 push	 DWORD PTR [esi+44]
  000e8	0f b6 46 03	 movzx	 eax, BYTE PTR [esi+3]
  000ec	50		 push	 eax
  000ed	0f bf 46 04	 movsx	 eax, WORD PTR [esi+4]
  000f1	69 c8 40 27 00
	00		 imul	 ecx, eax, 10048
  000f7	a1 00 00 00 00	 mov	 eax, DWORD PTR ?gObj@@3PAUOBJECTSTRUCT@@A ; gObj
  000fc	83 c0 5d	 add	 eax, 93			; 0000005dH
  000ff	03 c1		 add	 eax, ecx
  00101	50		 push	 eax
  00102	68 00 00 00 00	 push	 OFFSET ??_C@_0CN@LPLKDCJE@?$FL?$CFs?$FN?5Chatroom?5create?5result?5?$CI?$CFd?$CJ@
  00107	ff 15 00 00 00
	00		 call	 DWORD PTR ?LogAdd@@3P6AXPADZZA ; LogAdd

; 2650 : 		gObj[lpMsg->Number].Name, lpMsg->Result, lpMsg->Ticket);
; 2651 : }

  0010d	8b 4d fc	 mov	 ecx, DWORD PTR __$ArrayPad$[ebp]
  00110	83 c4 1c	 add	 esp, 28			; 0000001cH
  00113	33 cd		 xor	 ecx, ebp
  00115	5e		 pop	 esi
  00116	e8 00 00 00 00	 call	 @__security_check_cookie@4
  0011b	8b e5		 mov	 esp, ebp
  0011d	5d		 pop	 ebp
  0011e	c3		 ret	 0
?FriendChatRoomCreateResult@@YAXPAUFHP_FRIEND_CHATROOM_CREATE_RESULT@@@Z ENDP ; FriendChatRoomCreateResult
_TEXT	ENDS
; Function compile flags: /Ogtp
; File c:\users\michel\desktop\source\gameserver\source\edsprotocol.cpp
; File c:\users\michel\desktop\source\gameserver\include\prodef.h
; File c:\users\michel\desktop\source\gameserver\source\edsprotocol.cpp
; File c:\users\michel\desktop\source\gameserver\common\winutil.h
; File c:\users\michel\desktop\source\gameserver\source\edsprotocol.cpp
;	COMDAT ?FriendChatRoomCreateReq@@YAXPAUPMSG_FRIEND_ROOMCREATE_REQ@@H@Z
_TEXT	SEGMENT
_pMsg$ = -44						; size = 26
_szName$ = -16						; size = 11
__$ArrayPad$ = -4					; size = 4
_lpMsg$ = 8						; size = 4
_aIndex$ = 12						; size = 4
?FriendChatRoomCreateReq@@YAXPAUPMSG_FRIEND_ROOMCREATE_REQ@@H@Z PROC ; FriendChatRoomCreateReq, COMDAT

; 2591 : {

  00000	55		 push	 ebp
  00001	8b ec		 mov	 ebp, esp
  00003	83 ec 2c	 sub	 esp, 44			; 0000002cH
  00006	a1 00 00 00 00	 mov	 eax, DWORD PTR ___security_cookie
  0000b	33 c5		 xor	 eax, ebp
  0000d	89 45 fc	 mov	 DWORD PTR __$ArrayPad$[ebp], eax
  00010	53		 push	 ebx
  00011	8b 5d 08	 mov	 ebx, DWORD PTR _lpMsg$[ebp]
  00014	56		 push	 esi
  00015	8b 75 0c	 mov	 esi, DWORD PTR _aIndex$[ebp]

; 2592 : 	if ( !gObjIsConnectedGP(aIndex))

  00018	56		 push	 esi
  00019	e8 00 00 00 00	 call	 ?gObjIsConnectedGP@@YAHH@Z ; gObjIsConnectedGP
  0001e	83 c4 04	 add	 esp, 4
  00021	85 c0		 test	 eax, eax
  00023	75 28		 jne	 SHORT $LN2@FriendChat

; 2593 : 	{
; 2594 : 		LogAddTD("error-L2 : Index %s %d", __FILE__, __LINE__);

  00025	68 22 0a 00 00	 push	 2594			; 00000a22H
  0002a	68 00 00 00 00	 push	 OFFSET ??_C@_0BA@FCCBMCDG@EDSProtocol?4cpp?$AA@
  0002f	68 00 00 00 00	 push	 OFFSET ??_C@_0BH@LCDOHCGD@error?9L2?5?3?5Index?5?$CFs?5?$CFd?$AA@
  00034	ff 15 00 00 00
	00		 call	 DWORD PTR ?LogAddTD@@3P6AXPADZZA ; LogAddTD
  0003a	83 c4 0c	 add	 esp, 12			; 0000000cH
  0003d	5e		 pop	 esi
  0003e	5b		 pop	 ebx

; 2610 : }

  0003f	8b 4d fc	 mov	 ecx, DWORD PTR __$ArrayPad$[ebp]
  00042	33 cd		 xor	 ecx, ebp
  00044	e8 00 00 00 00	 call	 @__security_check_cookie@4
  00049	8b e5		 mov	 esp, ebp
  0004b	5d		 pop	 ebp
  0004c	c3		 ret	 0
$LN2@FriendChat:

; 2595 : 		return;
; 2596 : 	}
; 2597 : 
; 2598 : 	FHP_FRIEND_CHATROOM_CREATE_REQ pMsg;
; 2599 : 
; 2600 : 	pMsg.h.set((LPBYTE)&pMsg, 0x66, sizeof(pMsg));
; 2601 : 	memcpy(pMsg.Name, gObj[aIndex].Name, sizeof(pMsg.Name));

  0004d	a1 00 00 00 00	 mov	 eax, DWORD PTR ?gObj@@3PAUOBJECTSTRUCT@@A ; gObj

; 2605 : 	wsExDbCli.DataSend((PCHAR)&pMsg, pMsg.h.size);

  00052	b9 00 00 00 00	 mov	 ecx, OFFSET ?wsExDbCli@@3VwsJoinServerCli@@A ; wsExDbCli
  00057	57		 push	 edi
  00058	69 fe 40 27 00
	00		 imul	 edi, esi, 10048
; File c:\users\michel\desktop\source\gameserver\include\prodef.h

; 86   : 		lpBuf[0] = 0xC1;

  0005e	66 c7 45 d4 c1
	1a		 mov	 WORD PTR _pMsg$[ebp], 6849 ; 00001ac1H

; 87   : 		lpBuf[1] = size;
; 88   : 		lpBuf[2] = head;

  00064	c6 45 d6 66	 mov	 BYTE PTR _pMsg$[ebp+2], 102 ; 00000066H
; File c:\users\michel\desktop\source\gameserver\source\edsprotocol.cpp

; 2605 : 	wsExDbCli.DataSend((PCHAR)&pMsg, pMsg.h.size);

  00068	6a 1a		 push	 26			; 0000001aH
  0006a	f3 0f 7e 44 07
	5d		 movq	 xmm0, QWORD PTR [edi+eax+93]
  00070	66 0f d6 45 da	 movq	 QWORD PTR _pMsg$[ebp+6], xmm0
  00075	0f b7 44 07 65	 movzx	 eax, WORD PTR [edi+eax+101]
  0007a	f3 0f 7e 43 03	 movq	 xmm0, QWORD PTR [ebx+3]
  0007f	66 89 75 d8	 mov	 WORD PTR _pMsg$[ebp+4], si
  00083	8d 73 03	 lea	 esi, DWORD PTR [ebx+3]
  00086	66 89 45 e2	 mov	 WORD PTR _pMsg$[ebp+14], ax
  0008a	0f b7 46 08	 movzx	 eax, WORD PTR [esi+8]
  0008e	66 89 45 ec	 mov	 WORD PTR _pMsg$[ebp+24], ax
  00092	8d 45 d4	 lea	 eax, DWORD PTR _pMsg$[ebp]
  00095	50		 push	 eax
  00096	66 0f d6 45 e4	 movq	 QWORD PTR _pMsg$[ebp+16], xmm0
  0009b	e8 00 00 00 00	 call	 ?DataSend@wsJoinServerCli@@QAEHPADH@Z ; wsJoinServerCli::DataSend
; File c:\users\michel\desktop\source\gameserver\common\winutil.h

; 45   : 		memset(this->Name, 0, sizeof(this->Name));

  000a0	66 c7 45 f8 00
	00		 mov	 WORD PTR _szName$[ebp+8], 0
  000a6	0f 57 c0	 xorps	 xmm0, xmm0
  000a9	66 0f d6 45 f0	 movq	 QWORD PTR _szName$[ebp], xmm0
  000ae	c6 45 fa 00	 mov	 BYTE PTR _szName$[ebp+10], 0

; 46   : 
; 47   : 		if ( szName != NULL )

  000b2	85 f6		 test	 esi, esi
  000b4	74 11		 je	 SHORT $LN7@FriendChat

; 48   : 		{
; 49   : 			memcpy(this->Name, szName, MAX_ACCOUNT_LEN);

  000b6	f3 0f 7e 06	 movq	 xmm0, QWORD PTR [esi]
  000ba	66 8b 46 08	 mov	 ax, WORD PTR [esi+8]
  000be	66 0f d6 45 f0	 movq	 QWORD PTR _szName$[ebp], xmm0
  000c3	66 89 45 f8	 mov	 WORD PTR _szName$[ebp+8], ax
$LN7@FriendChat:
; File c:\users\michel\desktop\source\gameserver\source\edsprotocol.cpp

; 2609 : 	LogAdd("[%s] Chatroom create request [%s]", gObj[aIndex].Name, szName.GetBuffer());

  000c7	8d 45 f0	 lea	 eax, DWORD PTR _szName$[ebp]
  000ca	50		 push	 eax
  000cb	a1 00 00 00 00	 mov	 eax, DWORD PTR ?gObj@@3PAUOBJECTSTRUCT@@A ; gObj
  000d0	83 c0 5d	 add	 eax, 93			; 0000005dH
  000d3	03 c7		 add	 eax, edi
  000d5	50		 push	 eax
  000d6	68 00 00 00 00	 push	 OFFSET ??_C@_0CC@HAGNMCFJ@?$FL?$CFs?$FN?5Chatroom?5create?5request?5?$FL?$CFs@
  000db	ff 15 00 00 00
	00		 call	 DWORD PTR ?LogAdd@@3P6AXPADZZA ; LogAdd

; 2610 : }

  000e1	8b 4d fc	 mov	 ecx, DWORD PTR __$ArrayPad$[ebp]
  000e4	83 c4 0c	 add	 esp, 12			; 0000000cH
  000e7	33 cd		 xor	 ecx, ebp
  000e9	5f		 pop	 edi
  000ea	5e		 pop	 esi
  000eb	5b		 pop	 ebx
  000ec	e8 00 00 00 00	 call	 @__security_check_cookie@4
  000f1	8b e5		 mov	 esp, ebp
  000f3	5d		 pop	 ebp
  000f4	c3		 ret	 0
?FriendChatRoomCreateReq@@YAXPAUPMSG_FRIEND_ROOMCREATE_REQ@@H@Z ENDP ; FriendChatRoomCreateReq
_TEXT	ENDS
; Function compile flags: /Ogtp
; File c:\users\michel\desktop\source\gameserver\source\edsprotocol.cpp
; File c:\users\michel\desktop\source\gameserver\common\winutil.h
; File c:\users\michel\desktop\source\gameserver\source\edsprotocol.cpp
; File c:\users\michel\desktop\source\gameserver\common\winutil.h
; File c:\users\michel\desktop\source\gameserver\source\edsprotocol.cpp
; File c:\users\michel\desktop\source\gameserver\common\winutil.h
; File c:\users\michel\desktop\source\gameserver\source\edsprotocol.cpp
; File c:\users\michel\desktop\source\gameserver\include\prodef.h
; File c:\users\michel\desktop\source\gameserver\source\edsprotocol.cpp
; File c:\users\michel\desktop\source\gameserver\include\prodef.h
; File c:\users\michel\desktop\source\gameserver\source\edsprotocol.cpp
;	COMDAT ?FriendDelResult@@YAXPAUFHP_FRIEND_DEL_RESULT@@@Z
_TEXT	SEGMENT
_pMsg$ = -44						; size = 14
_FriendName$ = -28					; size = 11
_Name$ = -16						; size = 11
__$ArrayPad$ = -4					; size = 4
_lpMsg$ = 8						; size = 4
?FriendDelResult@@YAXPAUFHP_FRIEND_DEL_RESULT@@@Z PROC	; FriendDelResult, COMDAT

; 2557 : {

  00000	55		 push	 ebp
  00001	8b ec		 mov	 ebp, esp
  00003	83 ec 2c	 sub	 esp, 44			; 0000002cH
  00006	a1 00 00 00 00	 mov	 eax, DWORD PTR ___security_cookie
  0000b	33 c5		 xor	 eax, ebp
  0000d	89 45 fc	 mov	 DWORD PTR __$ArrayPad$[ebp], eax
  00010	56		 push	 esi
  00011	8b 75 08	 mov	 esi, DWORD PTR _lpMsg$[ebp]
  00014	0f 57 c0	 xorps	 xmm0, xmm0
; File c:\users\michel\desktop\source\gameserver\common\winutil.h

; 45   : 		memset(this->Name, 0, sizeof(this->Name));

  00017	66 0f d6 45 f0	 movq	 QWORD PTR _Name$[ebp], xmm0
  0001c	66 c7 45 f8 00
	00		 mov	 WORD PTR _Name$[ebp+8], 0
  00022	c6 45 fa 00	 mov	 BYTE PTR _Name$[ebp+10], 0
; File c:\users\michel\desktop\source\gameserver\source\edsprotocol.cpp

; 2558 : 	char_ID Name(lpMsg->Name);

  00026	8d 46 07	 lea	 eax, DWORD PTR [esi+7]
; File c:\users\michel\desktop\source\gameserver\common\winutil.h

; 47   : 		if ( szName != NULL )

  00029	85 c0		 test	 eax, eax
  0002b	74 11		 je	 SHORT $LN5@FriendDelR

; 48   : 		{
; 49   : 			memcpy(this->Name, szName, MAX_ACCOUNT_LEN);

  0002d	f3 0f 7e 00	 movq	 xmm0, QWORD PTR [eax]
  00031	66 8b 40 08	 mov	 ax, WORD PTR [eax+8]
  00035	66 0f d6 45 f0	 movq	 QWORD PTR _Name$[ebp], xmm0
  0003a	66 89 45 f8	 mov	 WORD PTR _Name$[ebp+8], ax
$LN5@FriendDelR:
; File c:\users\michel\desktop\source\gameserver\source\edsprotocol.cpp

; 2560 : 	if ( !gObjIsConnectedGP(lpMsg->Number, Name.GetBuffer()))

  0003e	8d 45 f0	 lea	 eax, DWORD PTR _Name$[ebp]
  00041	50		 push	 eax
  00042	0f bf 46 04	 movsx	 eax, WORD PTR [esi+4]
  00046	50		 push	 eax
  00047	e8 00 00 00 00	 call	 ?gObjIsConnectedGP@@YAHHPAD@Z ; gObjIsConnectedGP
  0004c	83 c4 08	 add	 esp, 8
  0004f	85 c0		 test	 eax, eax
  00051	75 27		 jne	 SHORT $LN2@FriendDelR

; 2561 : 	{
; 2562 : 		LogAddTD("error-L2 : Index %s %d", __FILE__, __LINE__);

  00053	68 02 0a 00 00	 push	 2562			; 00000a02H
  00058	68 00 00 00 00	 push	 OFFSET ??_C@_0BA@FCCBMCDG@EDSProtocol?4cpp?$AA@
  0005d	68 00 00 00 00	 push	 OFFSET ??_C@_0BH@LCDOHCGD@error?9L2?5?3?5Index?5?$CFs?5?$CFd?$AA@
  00062	ff 15 00 00 00
	00		 call	 DWORD PTR ?LogAddTD@@3P6AXPADZZA ; LogAddTD
  00068	83 c4 0c	 add	 esp, 12			; 0000000cH
  0006b	5e		 pop	 esi

; 2577 : }

  0006c	8b 4d fc	 mov	 ecx, DWORD PTR __$ArrayPad$[ebp]
  0006f	33 cd		 xor	 ecx, ebp
  00071	e8 00 00 00 00	 call	 @__security_check_cookie@4
  00076	8b e5		 mov	 esp, ebp
  00078	5d		 pop	 ebp
  00079	c3		 ret	 0
$LN2@FriendDelR:

; 2563 : 		return;
; 2564 : 	}
; 2565 : 
; 2566 : 	PMSG_FRIEND_DEL_RESULT pMsg;
; 2567 : 	char_ID FriendName(lpMsg->FriendName);

  0007a	8d 4e 11	 lea	 ecx, DWORD PTR [esi+17]
; File c:\users\michel\desktop\source\gameserver\common\winutil.h

; 45   : 		memset(this->Name, 0, sizeof(this->Name));

  0007d	66 c7 45 ec 00
	00		 mov	 WORD PTR _FriendName$[ebp+8], 0
  00083	c6 45 ee 00	 mov	 BYTE PTR _FriendName$[ebp+10], 0
  00087	0f 57 c0	 xorps	 xmm0, xmm0
  0008a	66 0f d6 45 e4	 movq	 QWORD PTR _FriendName$[ebp], xmm0

; 47   : 		if ( szName != NULL )

  0008f	85 c9		 test	 ecx, ecx
  00091	74 11		 je	 SHORT $LN10@FriendDelR

; 48   : 		{
; 49   : 			memcpy(this->Name, szName, MAX_ACCOUNT_LEN);

  00093	f3 0f 7e 01	 movq	 xmm0, QWORD PTR [ecx]
  00097	66 8b 41 08	 mov	 ax, WORD PTR [ecx+8]
  0009b	66 0f d6 45 e4	 movq	 QWORD PTR _FriendName$[ebp], xmm0
  000a0	66 89 45 ec	 mov	 WORD PTR _FriendName$[ebp+8], ax
$LN10@FriendDelR:
; File c:\users\michel\desktop\source\gameserver\source\edsprotocol.cpp

; 2570 : 	memcpy(pMsg.Name, lpMsg->FriendName, sizeof(pMsg.Name));

  000a4	66 8b 41 08	 mov	 ax, WORD PTR [ecx+8]
  000a8	f3 0f 7e 01	 movq	 xmm0, QWORD PTR [ecx]

; 2573 : 	LogAdd("[%s] Friend del result (%d) [%s]",

  000ac	8d 4d e4	 lea	 ecx, DWORD PTR _FriendName$[ebp]
  000af	66 89 45 e0	 mov	 WORD PTR _pMsg$[ebp+12], ax
  000b3	8a 46 06	 mov	 al, BYTE PTR [esi+6]
  000b6	88 45 d7	 mov	 BYTE PTR _pMsg$[ebp+3], al
  000b9	51		 push	 ecx
  000ba	0f b6 c0	 movzx	 eax, al
  000bd	50		 push	 eax
  000be	8d 45 f0	 lea	 eax, DWORD PTR _Name$[ebp]
; File c:\users\michel\desktop\source\gameserver\include\prodef.h

; 86   : 		lpBuf[0] = 0xC1;

  000c1	66 c7 45 d4 c1
	0e		 mov	 WORD PTR _pMsg$[ebp], 3777 ; 00000ec1H
; File c:\users\michel\desktop\source\gameserver\source\edsprotocol.cpp

; 2573 : 	LogAdd("[%s] Friend del result (%d) [%s]",

  000c7	50		 push	 eax
  000c8	68 00 00 00 00	 push	 OFFSET ??_C@_0CB@NCMBHLMH@?$FL?$CFs?$FN?5Friend?5del?5result?5?$CI?$CFd?$CJ?5?$FL?$CFs?$FN@
; File c:\users\michel\desktop\source\gameserver\include\prodef.h

; 88   : 		lpBuf[2] = head;

  000cd	c6 45 d6 c3	 mov	 BYTE PTR _pMsg$[ebp+2], 195 ; 000000c3H
; File c:\users\michel\desktop\source\gameserver\source\edsprotocol.cpp

; 2570 : 	memcpy(pMsg.Name, lpMsg->FriendName, sizeof(pMsg.Name));

  000d1	66 0f d6 45 d8	 movq	 QWORD PTR _pMsg$[ebp+4], xmm0

; 2573 : 	LogAdd("[%s] Friend del result (%d) [%s]",

  000d6	ff 15 00 00 00
	00		 call	 DWORD PTR ?LogAdd@@3P6AXPADZZA ; LogAdd

; 2574 : 		Name.GetBuffer(), lpMsg->Result, FriendName.GetBuffer());
; 2575 : 
; 2576 : 	DataSend(lpMsg->Number, (LPBYTE)&pMsg, sizeof(pMsg));

  000dc	6a 0e		 push	 14			; 0000000eH
  000de	8d 45 d4	 lea	 eax, DWORD PTR _pMsg$[ebp]
  000e1	50		 push	 eax
  000e2	0f bf 46 04	 movsx	 eax, WORD PTR [esi+4]
  000e6	50		 push	 eax
  000e7	e8 00 00 00 00	 call	 ?DataSend@@YAHHPAEK@Z	; DataSend

; 2577 : }

  000ec	8b 4d fc	 mov	 ecx, DWORD PTR __$ArrayPad$[ebp]
  000ef	83 c4 1c	 add	 esp, 28			; 0000001cH
  000f2	33 cd		 xor	 ecx, ebp
  000f4	5e		 pop	 esi
  000f5	e8 00 00 00 00	 call	 @__security_check_cookie@4
  000fa	8b e5		 mov	 esp, ebp
  000fc	5d		 pop	 ebp
  000fd	c3		 ret	 0
?FriendDelResult@@YAXPAUFHP_FRIEND_DEL_RESULT@@@Z ENDP	; FriendDelResult
_TEXT	ENDS
; Function compile flags: /Ogtp
; File c:\users\michel\desktop\source\gameserver\source\edsprotocol.cpp
; File c:\users\michel\desktop\source\gameserver\common\winutil.h
; File c:\users\michel\desktop\source\gameserver\source\edsprotocol.cpp
; File c:\users\michel\desktop\source\gameserver\common\winutil.h
; File c:\users\michel\desktop\source\gameserver\source\edsprotocol.cpp
; File c:\users\michel\desktop\source\gameserver\include\prodef.h
; File c:\users\michel\desktop\source\gameserver\source\edsprotocol.cpp
;	COMDAT ?FriendDelRequest@@YAXPAUPMSG_FRIEND_DEL_REQ@@H@Z
_TEXT	SEGMENT
_pMsg$ = -44						; size = 26
_Name$ = -16						; size = 11
__$ArrayPad$ = -4					; size = 4
_lpMsg$ = 8						; size = 4
_aIndex$ = 12						; size = 4
?FriendDelRequest@@YAXPAUPMSG_FRIEND_DEL_REQ@@H@Z PROC	; FriendDelRequest, COMDAT

; 2526 : {

  00000	55		 push	 ebp
  00001	8b ec		 mov	 ebp, esp
  00003	83 ec 2c	 sub	 esp, 44			; 0000002cH
  00006	a1 00 00 00 00	 mov	 eax, DWORD PTR ___security_cookie
  0000b	33 c5		 xor	 eax, ebp
  0000d	89 45 fc	 mov	 DWORD PTR __$ArrayPad$[ebp], eax
  00010	57		 push	 edi
  00011	8b 7d 0c	 mov	 edi, DWORD PTR _aIndex$[ebp]

; 2527 : 	if ( !gObjIsConnectedGP(aIndex))

  00014	57		 push	 edi
  00015	e8 00 00 00 00	 call	 ?gObjIsConnectedGP@@YAHH@Z ; gObjIsConnectedGP
  0001a	83 c4 04	 add	 esp, 4
  0001d	85 c0		 test	 eax, eax
  0001f	75 27		 jne	 SHORT $LN2@FriendDelR

; 2528 : 	{
; 2529 : 		LogAddTD("error-L2 : Index %s %d", __FILE__, __LINE__);

  00021	68 e1 09 00 00	 push	 2529			; 000009e1H
  00026	68 00 00 00 00	 push	 OFFSET ??_C@_0BA@FCCBMCDG@EDSProtocol?4cpp?$AA@
  0002b	68 00 00 00 00	 push	 OFFSET ??_C@_0BH@LCDOHCGD@error?9L2?5?3?5Index?5?$CFs?5?$CFd?$AA@
  00030	ff 15 00 00 00
	00		 call	 DWORD PTR ?LogAddTD@@3P6AXPADZZA ; LogAddTD
  00036	83 c4 0c	 add	 esp, 12			; 0000000cH
  00039	5f		 pop	 edi

; 2544 : }

  0003a	8b 4d fc	 mov	 ecx, DWORD PTR __$ArrayPad$[ebp]
  0003d	33 cd		 xor	 ecx, ebp
  0003f	e8 00 00 00 00	 call	 @__security_check_cookie@4
  00044	8b e5		 mov	 esp, ebp
  00046	5d		 pop	 ebp
  00047	c3		 ret	 0
$LN2@FriendDelR:

; 2534 : 	char_ID Name(lpMsg->Name);

  00048	8b 45 08	 mov	 eax, DWORD PTR _lpMsg$[ebp]
; File c:\users\michel\desktop\source\gameserver\common\winutil.h

; 45   : 		memset(this->Name, 0, sizeof(this->Name));

  0004b	66 33 c9	 xor	 cx, cx
  0004e	66 89 4d f8	 mov	 WORD PTR _Name$[ebp+8], cx
  00052	0f 57 c9	 xorps	 xmm1, xmm1
  00055	66 0f d6 4d f0	 movq	 QWORD PTR _Name$[ebp], xmm1
  0005a	88 4d fa	 mov	 BYTE PTR _Name$[ebp+10], cl
; File c:\users\michel\desktop\source\gameserver\source\edsprotocol.cpp

; 2534 : 	char_ID Name(lpMsg->Name);

  0005d	83 c0 03	 add	 eax, 3
; File c:\users\michel\desktop\source\gameserver\common\winutil.h

; 47   : 		if ( szName != NULL )

  00060	74 11		 je	 SHORT $LN5@FriendDelR

; 48   : 		{
; 49   : 			memcpy(this->Name, szName, MAX_ACCOUNT_LEN);

  00062	f3 0f 7e 08	 movq	 xmm1, QWORD PTR [eax]
  00066	66 8b 48 08	 mov	 cx, WORD PTR [eax+8]
  0006a	66 0f d6 4d f0	 movq	 QWORD PTR _Name$[ebp], xmm1
  0006f	66 89 4d f8	 mov	 WORD PTR _Name$[ebp+8], cx
$LN5@FriendDelR:
; File c:\users\michel\desktop\source\gameserver\source\edsprotocol.cpp

; 2537 : 	memcpy(pMsg.Name, gObj[aIndex].Name, sizeof(pMsg.Name));

  00073	a1 00 00 00 00	 mov	 eax, DWORD PTR ?gObj@@3PAUOBJECTSTRUCT@@A ; gObj
  00078	56		 push	 esi
  00079	69 f7 40 27 00
	00		 imul	 esi, edi, 10048
; File c:\users\michel\desktop\source\gameserver\include\prodef.h

; 86   : 		lpBuf[0] = 0xC1;

  0007f	66 c7 45 d4 c1
	1a		 mov	 WORD PTR _pMsg$[ebp], 6849 ; 00001ac1H

; 87   : 		lpBuf[1] = size;
; 88   : 		lpBuf[2] = head;

  00085	c6 45 d6 65	 mov	 BYTE PTR _pMsg$[ebp+2], 101 ; 00000065H
; File c:\users\michel\desktop\source\gameserver\source\edsprotocol.cpp

; 2541 : 	wsExDbCli.DataSend((PCHAR)&pMsg, pMsg.h.size);

  00089	6a 1a		 push	 26			; 0000001aH
  0008b	f3 0f 7e 44 06
	5d		 movq	 xmm0, QWORD PTR [esi+eax+93]
  00091	66 0f d6 45 da	 movq	 QWORD PTR _pMsg$[ebp+6], xmm0
  00096	66 8b 44 06 65	 mov	 ax, WORD PTR [esi+eax+101]
  0009b	66 89 45 e2	 mov	 WORD PTR _pMsg$[ebp+14], ax
  0009f	8d 45 d4	 lea	 eax, DWORD PTR _pMsg$[ebp]
  000a2	66 89 4d ec	 mov	 WORD PTR _pMsg$[ebp+24], cx
  000a6	b9 00 00 00 00	 mov	 ecx, OFFSET ?wsExDbCli@@3VwsJoinServerCli@@A ; wsExDbCli
  000ab	50		 push	 eax
  000ac	66 0f d6 4d e4	 movq	 QWORD PTR _pMsg$[ebp+16], xmm1
  000b1	66 89 7d d8	 mov	 WORD PTR _pMsg$[ebp+4], di
  000b5	e8 00 00 00 00	 call	 ?DataSend@wsJoinServerCli@@QAEHPADH@Z ; wsJoinServerCli::DataSend

; 2542 : 
; 2543 : 	LogAddTD("[%s] Friend del request [%s]", gObj[aIndex].Name, Name.GetBuffer());

  000ba	8d 45 f0	 lea	 eax, DWORD PTR _Name$[ebp]
  000bd	50		 push	 eax
  000be	a1 00 00 00 00	 mov	 eax, DWORD PTR ?gObj@@3PAUOBJECTSTRUCT@@A ; gObj
  000c3	83 c0 5d	 add	 eax, 93			; 0000005dH
  000c6	03 c6		 add	 eax, esi
  000c8	50		 push	 eax
  000c9	68 00 00 00 00	 push	 OFFSET ??_C@_0BN@HLFBKLAE@?$FL?$CFs?$FN?5Friend?5del?5request?5?$FL?$CFs?$FN?$AA@
  000ce	ff 15 00 00 00
	00		 call	 DWORD PTR ?LogAddTD@@3P6AXPADZZA ; LogAddTD

; 2544 : }

  000d4	8b 4d fc	 mov	 ecx, DWORD PTR __$ArrayPad$[ebp]
  000d7	83 c4 0c	 add	 esp, 12			; 0000000cH
  000da	33 cd		 xor	 ecx, ebp
  000dc	5e		 pop	 esi
  000dd	5f		 pop	 edi
  000de	e8 00 00 00 00	 call	 @__security_check_cookie@4
  000e3	8b e5		 mov	 esp, ebp
  000e5	5d		 pop	 ebp
  000e6	c3		 ret	 0
?FriendDelRequest@@YAXPAUPMSG_FRIEND_DEL_REQ@@H@Z ENDP	; FriendDelRequest
_TEXT	ENDS
; Function compile flags: /Ogtp
; File c:\users\michel\desktop\source\gameserver\source\edsprotocol.cpp
; File c:\users\michel\desktop\source\gameserver\common\winutil.h
; File c:\users\michel\desktop\source\gameserver\source\edsprotocol.cpp
; File c:\users\michel\desktop\source\gameserver\common\winutil.h
; File c:\users\michel\desktop\source\gameserver\source\edsprotocol.cpp
; File c:\users\michel\desktop\source\gameserver\include\prodef.h
; File c:\users\michel\desktop\source\gameserver\source\edsprotocol.cpp
; File c:\users\michel\desktop\source\gameserver\common\winutil.h
; File c:\users\michel\desktop\source\gameserver\source\edsprotocol.cpp
;	COMDAT ?WaitFriendAddResult@@YAXPAUFHP_WAITFRIEND_ADD_RESULT@@@Z
_TEXT	SEGMENT
_pMsg$ = -44						; size = 15
_szFriendName$ = -28					; size = 11
_Name$ = -16						; size = 11
__$ArrayPad$ = -4					; size = 4
_lpMsg$ = 8						; size = 4
?WaitFriendAddResult@@YAXPAUFHP_WAITFRIEND_ADD_RESULT@@@Z PROC ; WaitFriendAddResult, COMDAT

; 2497 : {

  00000	55		 push	 ebp
  00001	8b ec		 mov	 ebp, esp
  00003	83 ec 2c	 sub	 esp, 44			; 0000002cH
  00006	a1 00 00 00 00	 mov	 eax, DWORD PTR ___security_cookie
  0000b	33 c5		 xor	 eax, ebp
  0000d	89 45 fc	 mov	 DWORD PTR __$ArrayPad$[ebp], eax
  00010	56		 push	 esi
  00011	8b 75 08	 mov	 esi, DWORD PTR _lpMsg$[ebp]
  00014	0f 57 c0	 xorps	 xmm0, xmm0
; File c:\users\michel\desktop\source\gameserver\common\winutil.h

; 45   : 		memset(this->Name, 0, sizeof(this->Name));

  00017	66 0f d6 45 f0	 movq	 QWORD PTR _Name$[ebp], xmm0
  0001c	66 c7 45 f8 00
	00		 mov	 WORD PTR _Name$[ebp+8], 0
  00022	c6 45 fa 00	 mov	 BYTE PTR _Name$[ebp+10], 0
; File c:\users\michel\desktop\source\gameserver\source\edsprotocol.cpp

; 2498 : 	char_ID Name(lpMsg->Name);

  00026	8d 46 07	 lea	 eax, DWORD PTR [esi+7]
; File c:\users\michel\desktop\source\gameserver\common\winutil.h

; 47   : 		if ( szName != NULL )

  00029	85 c0		 test	 eax, eax
  0002b	74 11		 je	 SHORT $LN5@WaitFriend

; 48   : 		{
; 49   : 			memcpy(this->Name, szName, MAX_ACCOUNT_LEN);

  0002d	f3 0f 7e 00	 movq	 xmm0, QWORD PTR [eax]
  00031	66 8b 40 08	 mov	 ax, WORD PTR [eax+8]
  00035	66 0f d6 45 f0	 movq	 QWORD PTR _Name$[ebp], xmm0
  0003a	66 89 45 f8	 mov	 WORD PTR _Name$[ebp+8], ax
$LN5@WaitFriend:
; File c:\users\michel\desktop\source\gameserver\source\edsprotocol.cpp

; 2500 : 	if ( !gObjIsConnectedGP(lpMsg->Number, Name.GetBuffer()))

  0003e	8d 45 f0	 lea	 eax, DWORD PTR _Name$[ebp]
  00041	50		 push	 eax
  00042	0f bf 46 04	 movsx	 eax, WORD PTR [esi+4]
  00046	50		 push	 eax
  00047	e8 00 00 00 00	 call	 ?gObjIsConnectedGP@@YAHHPAD@Z ; gObjIsConnectedGP
  0004c	83 c4 08	 add	 esp, 8
  0004f	85 c0		 test	 eax, eax
  00051	75 27		 jne	 SHORT $LN2@WaitFriend

; 2501 : 	{
; 2502 : 		LogAddTD("error-L2 : Index %s %d", __FILE__, __LINE__);

  00053	68 c6 09 00 00	 push	 2502			; 000009c6H
  00058	68 00 00 00 00	 push	 OFFSET ??_C@_0BA@FCCBMCDG@EDSProtocol?4cpp?$AA@
  0005d	68 00 00 00 00	 push	 OFFSET ??_C@_0BH@LCDOHCGD@error?9L2?5?3?5Index?5?$CFs?5?$CFd?$AA@
  00062	ff 15 00 00 00
	00		 call	 DWORD PTR ?LogAddTD@@3P6AXPADZZA ; LogAddTD
  00068	83 c4 0c	 add	 esp, 12			; 0000000cH
  0006b	5e		 pop	 esi

; 2519 : }

  0006c	8b 4d fc	 mov	 ecx, DWORD PTR __$ArrayPad$[ebp]
  0006f	33 cd		 xor	 ecx, ebp
  00071	e8 00 00 00 00	 call	 @__security_check_cookie@4
  00076	8b e5		 mov	 esp, ebp
  00078	5d		 pop	 ebp
  00079	c3		 ret	 0
$LN2@WaitFriend:

; 2503 : 		return;
; 2504 : 	}
; 2505 : 
; 2506 : 	PMSG_FRIEND_ADD_RESULT pMsg;
; 2507 : 
; 2508 : 	pMsg.h.set((LPBYTE)&pMsg, 0xC1, sizeof(pMsg));
; 2509 : 	memcpy(pMsg.Name, lpMsg->FriendName, sizeof(pMsg.Name));

  0007a	f3 0f 7e 46 11	 movq	 xmm0, QWORD PTR [esi+17]
  0007f	8d 4e 11	 lea	 ecx, DWORD PTR [esi+17]
  00082	66 8b 41 08	 mov	 ax, WORD PTR [ecx+8]

; 2510 : 	pMsg.Result = lpMsg->Result;

  00086	8a 56 06	 mov	 dl, BYTE PTR [esi+6]
  00089	66 0f d6 45 d8	 movq	 QWORD PTR _pMsg$[ebp+4], xmm0
  0008e	0f 57 c0	 xorps	 xmm0, xmm0
  00091	66 89 45 e0	 mov	 WORD PTR _pMsg$[ebp+12], ax

; 2511 : 	pMsg.State = lpMsg->pServer;

  00095	8a 46 1b	 mov	 al, BYTE PTR [esi+27]
; File c:\users\michel\desktop\source\gameserver\include\prodef.h

; 86   : 		lpBuf[0] = 0xC1;

  00098	66 c7 45 d4 c1
	0f		 mov	 WORD PTR _pMsg$[ebp], 4033 ; 00000fc1H

; 87   : 		lpBuf[1] = size;
; 88   : 		lpBuf[2] = head;

  0009e	c6 45 d6 c1	 mov	 BYTE PTR _pMsg$[ebp+2], 193 ; 000000c1H
; File c:\users\michel\desktop\source\gameserver\source\edsprotocol.cpp

; 2510 : 	pMsg.Result = lpMsg->Result;

  000a2	88 55 d7	 mov	 BYTE PTR _pMsg$[ebp+3], dl

; 2511 : 	pMsg.State = lpMsg->pServer;

  000a5	88 45 e2	 mov	 BYTE PTR _pMsg$[ebp+14], al
; File c:\users\michel\desktop\source\gameserver\common\winutil.h

; 45   : 		memset(this->Name, 0, sizeof(this->Name));

  000a8	66 0f d6 45 e4	 movq	 QWORD PTR _szFriendName$[ebp], xmm0
  000ad	66 c7 45 ec 00
	00		 mov	 WORD PTR _szFriendName$[ebp+8], 0
  000b3	c6 45 ee 00	 mov	 BYTE PTR _szFriendName$[ebp+10], 0

; 47   : 		if ( szName != NULL )

  000b7	85 c9		 test	 ecx, ecx
  000b9	74 11		 je	 SHORT $LN12@WaitFriend

; 48   : 		{
; 49   : 			memcpy(this->Name, szName, MAX_ACCOUNT_LEN);

  000bb	f3 0f 7e 01	 movq	 xmm0, QWORD PTR [ecx]
  000bf	66 8b 41 08	 mov	 ax, WORD PTR [ecx+8]
  000c3	66 0f d6 45 e4	 movq	 QWORD PTR _szFriendName$[ebp], xmm0
  000c8	66 89 45 ec	 mov	 WORD PTR _szFriendName$[ebp+8], ax
$LN12@WaitFriend:
; File c:\users\michel\desktop\source\gameserver\source\edsprotocol.cpp

; 2515 : 	LogAdd("[%s] WaitFriend add result (%d) [%s]",

  000cc	8d 45 e4	 lea	 eax, DWORD PTR _szFriendName$[ebp]
  000cf	50		 push	 eax
  000d0	0f b6 c2	 movzx	 eax, dl
  000d3	50		 push	 eax
  000d4	8d 45 f0	 lea	 eax, DWORD PTR _Name$[ebp]
  000d7	50		 push	 eax
  000d8	68 00 00 00 00	 push	 OFFSET ??_C@_0CF@CCKIBLLA@?$FL?$CFs?$FN?5WaitFriend?5add?5result?5?$CI?$CFd?$CJ?5@
  000dd	ff 15 00 00 00
	00		 call	 DWORD PTR ?LogAdd@@3P6AXPADZZA ; LogAdd

; 2516 : 		Name.GetBuffer(), lpMsg->Result, szFriendName.GetBuffer());
; 2517 : 
; 2518 : 	DataSend(lpMsg->Number, (LPBYTE)&pMsg, sizeof(pMsg));

  000e3	6a 0f		 push	 15			; 0000000fH
  000e5	8d 45 d4	 lea	 eax, DWORD PTR _pMsg$[ebp]
  000e8	50		 push	 eax
  000e9	0f bf 46 04	 movsx	 eax, WORD PTR [esi+4]
  000ed	50		 push	 eax
  000ee	e8 00 00 00 00	 call	 ?DataSend@@YAHHPAEK@Z	; DataSend

; 2519 : }

  000f3	8b 4d fc	 mov	 ecx, DWORD PTR __$ArrayPad$[ebp]
  000f6	83 c4 1c	 add	 esp, 28			; 0000001cH
  000f9	33 cd		 xor	 ecx, ebp
  000fb	5e		 pop	 esi
  000fc	e8 00 00 00 00	 call	 @__security_check_cookie@4
  00101	8b e5		 mov	 esp, ebp
  00103	5d		 pop	 ebp
  00104	c3		 ret	 0
?WaitFriendAddResult@@YAXPAUFHP_WAITFRIEND_ADD_RESULT@@@Z ENDP ; WaitFriendAddResult
_TEXT	ENDS
; Function compile flags: /Ogtp
; File c:\users\michel\desktop\source\gameserver\source\edsprotocol.cpp
; File c:\users\michel\desktop\source\gameserver\include\prodef.h
; File c:\users\michel\desktop\source\gameserver\source\edsprotocol.cpp
; File c:\users\michel\desktop\source\gameserver\common\winutil.h
; File c:\users\michel\desktop\source\gameserver\source\edsprotocol.cpp
;	COMDAT ?WaitFriendAddRequest@@YAXPAUPMSG_FRIEND_ADD_SIN_RESULT@@H@Z
_TEXT	SEGMENT
tv131 = -48						; size = 4
_pMsg$ = -44						; size = 26
_fname$1 = -16						; size = 11
__$ArrayPad$ = -4					; size = 4
_lpMsg$ = 8						; size = 4
_aIndex$ = 12						; size = 4
?WaitFriendAddRequest@@YAXPAUPMSG_FRIEND_ADD_SIN_RESULT@@H@Z PROC ; WaitFriendAddRequest, COMDAT

; 2469 : {

  00000	55		 push	 ebp
  00001	8b ec		 mov	 ebp, esp
  00003	83 ec 30	 sub	 esp, 48			; 00000030H
  00006	a1 00 00 00 00	 mov	 eax, DWORD PTR ___security_cookie
  0000b	33 c5		 xor	 eax, ebp
  0000d	89 45 fc	 mov	 DWORD PTR __$ArrayPad$[ebp], eax
  00010	53		 push	 ebx
  00011	8b 5d 08	 mov	 ebx, DWORD PTR _lpMsg$[ebp]
  00014	57		 push	 edi
  00015	8b 7d 0c	 mov	 edi, DWORD PTR _aIndex$[ebp]

; 2470 : 	if ( !gObjIsConnectedGP(aIndex))

  00018	57		 push	 edi
  00019	e8 00 00 00 00	 call	 ?gObjIsConnectedGP@@YAHH@Z ; gObjIsConnectedGP
  0001e	83 c4 04	 add	 esp, 4
  00021	85 c0		 test	 eax, eax
  00023	75 28		 jne	 SHORT $LN2@WaitFriend

; 2471 : 	{
; 2472 : 		LogAddTD("error-L2 : Index %s %d", __FILE__, __LINE__);

  00025	68 a8 09 00 00	 push	 2472			; 000009a8H
  0002a	68 00 00 00 00	 push	 OFFSET ??_C@_0BA@FCCBMCDG@EDSProtocol?4cpp?$AA@
  0002f	68 00 00 00 00	 push	 OFFSET ??_C@_0BH@LCDOHCGD@error?9L2?5?3?5Index?5?$CFs?5?$CFd?$AA@
  00034	ff 15 00 00 00
	00		 call	 DWORD PTR ?LogAddTD@@3P6AXPADZZA ; LogAddTD
  0003a	83 c4 0c	 add	 esp, 12			; 0000000cH
  0003d	5f		 pop	 edi
  0003e	5b		 pop	 ebx

; 2489 : 	}
; 2490 : }

  0003f	8b 4d fc	 mov	 ecx, DWORD PTR __$ArrayPad$[ebp]
  00042	33 cd		 xor	 ecx, ebp
  00044	e8 00 00 00 00	 call	 @__security_check_cookie@4
  00049	8b e5		 mov	 esp, ebp
  0004b	5d		 pop	 ebp
  0004c	c3		 ret	 0
$LN2@WaitFriend:

; 2473 : 		return;
; 2474 : 	}
; 2475 : 
; 2476 : 	FHP_WAITFRIEND_ADD_REQ pMsg;
; 2477 : 
; 2478 : 	pMsg.h.set((LPBYTE)&pMsg, 0x64, sizeof(pMsg));
; 2479 : 	memcpy(pMsg.Name, gObj[aIndex].Name, sizeof(pMsg.Name));

  0004d	a1 00 00 00 00	 mov	 eax, DWORD PTR ?gObj@@3PAUOBJECTSTRUCT@@A ; gObj
  00052	69 cf 40 27 00
	00		 imul	 ecx, edi, 10048
; File c:\users\michel\desktop\source\gameserver\include\prodef.h

; 86   : 		lpBuf[0] = 0xC1;

  00058	66 c7 45 d4 c1
	1a		 mov	 WORD PTR _pMsg$[ebp], 6849 ; 00001ac1H

; 87   : 		lpBuf[1] = size;
; 88   : 		lpBuf[2] = head;

  0005e	c6 45 d6 64	 mov	 BYTE PTR _pMsg$[ebp+2], 100 ; 00000064H
  00062	56		 push	 esi
; File c:\users\michel\desktop\source\gameserver\source\edsprotocol.cpp

; 2480 : 	memcpy(pMsg.FriendName, lpMsg->Name, sizeof(pMsg.FriendName));

  00063	8d 73 04	 lea	 esi, DWORD PTR [ebx+4]

; 2481 : 	pMsg.Result = lpMsg->Result;
; 2482 : 	pMsg.Number = aIndex;
; 2483 : 
; 2484 : 	wsExDbCli.DataSend((PCHAR)&pMsg, pMsg.h.size);

  00066	6a 1a		 push	 26			; 0000001aH
  00068	89 4d d0	 mov	 DWORD PTR tv131[ebp], ecx
  0006b	f3 0f 7e 44 01
	5d		 movq	 xmm0, QWORD PTR [ecx+eax+93]
  00071	66 0f d6 45 da	 movq	 QWORD PTR _pMsg$[ebp+6], xmm0
  00076	0f b7 44 01 65	 movzx	 eax, WORD PTR [ecx+eax+101]
  0007b	b9 00 00 00 00	 mov	 ecx, OFFSET ?wsExDbCli@@3VwsJoinServerCli@@A ; wsExDbCli
  00080	f3 0f 7e 06	 movq	 xmm0, QWORD PTR [esi]
  00084	66 89 45 e2	 mov	 WORD PTR _pMsg$[ebp+14], ax
  00088	0f b7 46 08	 movzx	 eax, WORD PTR [esi+8]
  0008c	66 89 45 ec	 mov	 WORD PTR _pMsg$[ebp+24], ax
  00090	8a 43 03	 mov	 al, BYTE PTR [ebx+3]
  00093	88 45 d7	 mov	 BYTE PTR _pMsg$[ebp+3], al
  00096	8d 45 d4	 lea	 eax, DWORD PTR _pMsg$[ebp]
  00099	50		 push	 eax
  0009a	66 0f d6 45 e4	 movq	 QWORD PTR _pMsg$[ebp+16], xmm0
  0009f	66 89 7d d8	 mov	 WORD PTR _pMsg$[ebp+4], di
  000a3	e8 00 00 00 00	 call	 ?DataSend@wsJoinServerCli@@QAEHPADH@Z ; wsJoinServerCli::DataSend
; File c:\users\michel\desktop\source\gameserver\common\winutil.h

; 45   : 		memset(this->Name, 0, sizeof(this->Name));

  000a8	66 c7 45 f8 00
	00		 mov	 WORD PTR _fname$1[ebp+8], 0
  000ae	0f 57 c0	 xorps	 xmm0, xmm0
  000b1	66 0f d6 45 f0	 movq	 QWORD PTR _fname$1[ebp], xmm0
  000b6	c6 45 fa 00	 mov	 BYTE PTR _fname$1[ebp+10], 0

; 46   : 
; 47   : 		if ( szName != NULL )

  000ba	85 f6		 test	 esi, esi
  000bc	74 11		 je	 SHORT $LN7@WaitFriend

; 48   : 		{
; 49   : 			memcpy(this->Name, szName, MAX_ACCOUNT_LEN);

  000be	f3 0f 7e 06	 movq	 xmm0, QWORD PTR [esi]
  000c2	66 8b 46 08	 mov	 ax, WORD PTR [esi+8]
  000c6	66 0f d6 45 f0	 movq	 QWORD PTR _fname$1[ebp], xmm0
  000cb	66 89 45 f8	 mov	 WORD PTR _fname$1[ebp+8], ax
$LN7@WaitFriend:
; File c:\users\michel\desktop\source\gameserver\source\edsprotocol.cpp

; 2488 : 		LogAdd("[%s] WaitFriend add request [%s]", gObj[aIndex].Name, fname.GetBuffer());

  000cf	8d 45 f0	 lea	 eax, DWORD PTR _fname$1[ebp]
  000d2	50		 push	 eax
  000d3	a1 00 00 00 00	 mov	 eax, DWORD PTR ?gObj@@3PAUOBJECTSTRUCT@@A ; gObj
  000d8	83 c0 5d	 add	 eax, 93			; 0000005dH
  000db	03 45 d0	 add	 eax, DWORD PTR tv131[ebp]
  000de	50		 push	 eax
  000df	68 00 00 00 00	 push	 OFFSET ??_C@_0CB@IIBIOFAA@?$FL?$CFs?$FN?5WaitFriend?5add?5request?5?$FL?$CFs?$FN@
  000e4	ff 15 00 00 00
	00		 call	 DWORD PTR ?LogAdd@@3P6AXPADZZA ; LogAdd

; 2489 : 	}
; 2490 : }

  000ea	8b 4d fc	 mov	 ecx, DWORD PTR __$ArrayPad$[ebp]
  000ed	83 c4 0c	 add	 esp, 12			; 0000000cH
  000f0	33 cd		 xor	 ecx, ebp
  000f2	5e		 pop	 esi
  000f3	5f		 pop	 edi
  000f4	5b		 pop	 ebx
  000f5	e8 00 00 00 00	 call	 @__security_check_cookie@4
  000fa	8b e5		 mov	 esp, ebp
  000fc	5d		 pop	 ebp
  000fd	c3		 ret	 0
?WaitFriendAddRequest@@YAXPAUPMSG_FRIEND_ADD_SIN_RESULT@@H@Z ENDP ; WaitFriendAddRequest
_TEXT	ENDS
; Function compile flags: /Ogtp
; File c:\users\michel\desktop\source\gameserver\source\edsprotocol.cpp
; File c:\users\michel\desktop\source\gameserver\common\winutil.h
; File c:\users\michel\desktop\source\gameserver\source\edsprotocol.cpp
; File c:\users\michel\desktop\source\gameserver\common\winutil.h
; File c:\users\michel\desktop\source\gameserver\source\edsprotocol.cpp
; File c:\users\michel\desktop\source\gameserver\common\winutil.h
; File c:\users\michel\desktop\source\gameserver\source\edsprotocol.cpp
; File c:\users\michel\desktop\source\gameserver\include\prodef.h
; File c:\users\michel\desktop\source\gameserver\source\edsprotocol.cpp
;	COMDAT ?FriendAddResult@@YAXPAUFHP_FRIEND_ADD_RESULT@@@Z
_TEXT	SEGMENT
_pMsg$ = -44						; size = 15
_szFriendName$ = -28					; size = 11
_Name$ = -16						; size = 11
__$ArrayPad$ = -4					; size = 4
_lpMsg$ = 8						; size = 4
?FriendAddResult@@YAXPAUFHP_FRIEND_ADD_RESULT@@@Z PROC	; FriendAddResult, COMDAT

; 2433 : {

  00000	55		 push	 ebp
  00001	8b ec		 mov	 ebp, esp
  00003	83 ec 2c	 sub	 esp, 44			; 0000002cH
  00006	a1 00 00 00 00	 mov	 eax, DWORD PTR ___security_cookie
  0000b	33 c5		 xor	 eax, ebp
  0000d	89 45 fc	 mov	 DWORD PTR __$ArrayPad$[ebp], eax
  00010	56		 push	 esi
  00011	8b 75 08	 mov	 esi, DWORD PTR _lpMsg$[ebp]
  00014	0f 57 c0	 xorps	 xmm0, xmm0
; File c:\users\michel\desktop\source\gameserver\common\winutil.h

; 45   : 		memset(this->Name, 0, sizeof(this->Name));

  00017	66 0f d6 45 f0	 movq	 QWORD PTR _Name$[ebp], xmm0
  0001c	66 c7 45 f8 00
	00		 mov	 WORD PTR _Name$[ebp+8], 0
  00022	c6 45 fa 00	 mov	 BYTE PTR _Name$[ebp+10], 0
; File c:\users\michel\desktop\source\gameserver\source\edsprotocol.cpp

; 2434 : 	char_ID Name(lpMsg->Name);

  00026	8d 46 07	 lea	 eax, DWORD PTR [esi+7]
; File c:\users\michel\desktop\source\gameserver\common\winutil.h

; 47   : 		if ( szName != NULL )

  00029	85 c0		 test	 eax, eax
  0002b	74 11		 je	 SHORT $LN5@FriendAddR

; 48   : 		{
; 49   : 			memcpy(this->Name, szName, MAX_ACCOUNT_LEN);

  0002d	f3 0f 7e 00	 movq	 xmm0, QWORD PTR [eax]
  00031	66 8b 40 08	 mov	 ax, WORD PTR [eax+8]
  00035	66 0f d6 45 f0	 movq	 QWORD PTR _Name$[ebp], xmm0
  0003a	66 89 45 f8	 mov	 WORD PTR _Name$[ebp+8], ax
$LN5@FriendAddR:
; File c:\users\michel\desktop\source\gameserver\source\edsprotocol.cpp

; 2436 : 	if ( !gObjIsConnectedGP(lpMsg->Number, Name.GetBuffer()))

  0003e	8d 45 f0	 lea	 eax, DWORD PTR _Name$[ebp]
  00041	50		 push	 eax
  00042	0f bf 46 04	 movsx	 eax, WORD PTR [esi+4]
  00046	50		 push	 eax
  00047	e8 00 00 00 00	 call	 ?gObjIsConnectedGP@@YAHHPAD@Z ; gObjIsConnectedGP
  0004c	83 c4 08	 add	 esp, 8
  0004f	85 c0		 test	 eax, eax
  00051	75 27		 jne	 SHORT $LN2@FriendAddR

; 2437 : 	{
; 2438 : 		LogAddTD("error-L2 : Index %s %d", __FILE__, __LINE__);

  00053	68 86 09 00 00	 push	 2438			; 00000986H
  00058	68 00 00 00 00	 push	 OFFSET ??_C@_0BA@FCCBMCDG@EDSProtocol?4cpp?$AA@
  0005d	68 00 00 00 00	 push	 OFFSET ??_C@_0BH@LCDOHCGD@error?9L2?5?3?5Index?5?$CFs?5?$CFd?$AA@
  00062	ff 15 00 00 00
	00		 call	 DWORD PTR ?LogAddTD@@3P6AXPADZZA ; LogAddTD
  00068	83 c4 0c	 add	 esp, 12			; 0000000cH
  0006b	5e		 pop	 esi

; 2453 : 		Name.GetBuffer(), lpMsg->Result, szFriendName.GetBuffer());
; 2454 : }

  0006c	8b 4d fc	 mov	 ecx, DWORD PTR __$ArrayPad$[ebp]
  0006f	33 cd		 xor	 ecx, ebp
  00071	e8 00 00 00 00	 call	 @__security_check_cookie@4
  00076	8b e5		 mov	 esp, ebp
  00078	5d		 pop	 ebp
  00079	c3		 ret	 0
$LN2@FriendAddR:

; 2439 : 		return;
; 2440 : 	}
; 2441 : 
; 2442 : 	PMSG_FRIEND_ADD_RESULT pMsg;
; 2443 : 	char_ID szFriendName(lpMsg->FriendName);

  0007a	8d 4e 11	 lea	 ecx, DWORD PTR [esi+17]
; File c:\users\michel\desktop\source\gameserver\common\winutil.h

; 45   : 		memset(this->Name, 0, sizeof(this->Name));

  0007d	66 c7 45 ec 00
	00		 mov	 WORD PTR _szFriendName$[ebp+8], 0
  00083	c6 45 ee 00	 mov	 BYTE PTR _szFriendName$[ebp+10], 0
  00087	0f 57 c0	 xorps	 xmm0, xmm0
  0008a	66 0f d6 45 e4	 movq	 QWORD PTR _szFriendName$[ebp], xmm0

; 47   : 		if ( szName != NULL )

  0008f	85 c9		 test	 ecx, ecx
  00091	74 11		 je	 SHORT $LN10@FriendAddR

; 48   : 		{
; 49   : 			memcpy(this->Name, szName, MAX_ACCOUNT_LEN);

  00093	f3 0f 7e 01	 movq	 xmm0, QWORD PTR [ecx]
  00097	66 8b 41 08	 mov	 ax, WORD PTR [ecx+8]
  0009b	66 0f d6 45 e4	 movq	 QWORD PTR _szFriendName$[ebp], xmm0
  000a0	66 89 45 ec	 mov	 WORD PTR _szFriendName$[ebp+8], ax
$LN10@FriendAddR:
; File c:\users\michel\desktop\source\gameserver\source\edsprotocol.cpp

; 2446 : 	memcpy(pMsg.Name, lpMsg->FriendName, sizeof(pMsg.Name));

  000a4	66 8b 41 08	 mov	 ax, WORD PTR [ecx+8]
  000a8	f3 0f 7e 01	 movq	 xmm0, QWORD PTR [ecx]
  000ac	66 89 45 e0	 mov	 WORD PTR _pMsg$[ebp+12], ax

; 2447 : 	pMsg.Result = lpMsg->Result;

  000b0	0f b6 46 06	 movzx	 eax, BYTE PTR [esi+6]
  000b4	88 45 d7	 mov	 BYTE PTR _pMsg$[ebp+3], al

; 2448 : 	pMsg.State = lpMsg->Server;

  000b7	0f b6 46 1b	 movzx	 eax, BYTE PTR [esi+27]
  000bb	88 45 e2	 mov	 BYTE PTR _pMsg$[ebp+14], al

; 2449 : 
; 2450 : 	DataSend(lpMsg->Number, (LPBYTE)&pMsg, sizeof(pMsg));

  000be	8d 45 d4	 lea	 eax, DWORD PTR _pMsg$[ebp]
  000c1	6a 0f		 push	 15			; 0000000fH
  000c3	50		 push	 eax
  000c4	0f bf 46 04	 movsx	 eax, WORD PTR [esi+4]
  000c8	50		 push	 eax
; File c:\users\michel\desktop\source\gameserver\include\prodef.h

; 86   : 		lpBuf[0] = 0xC1;

  000c9	66 c7 45 d4 c1
	0f		 mov	 WORD PTR _pMsg$[ebp], 4033 ; 00000fc1H

; 87   : 		lpBuf[1] = size;
; 88   : 		lpBuf[2] = head;

  000cf	c6 45 d6 c1	 mov	 BYTE PTR _pMsg$[ebp+2], 193 ; 000000c1H
; File c:\users\michel\desktop\source\gameserver\source\edsprotocol.cpp

; 2446 : 	memcpy(pMsg.Name, lpMsg->FriendName, sizeof(pMsg.Name));

  000d3	66 0f d6 45 d8	 movq	 QWORD PTR _pMsg$[ebp+4], xmm0

; 2449 : 
; 2450 : 	DataSend(lpMsg->Number, (LPBYTE)&pMsg, sizeof(pMsg));

  000d8	e8 00 00 00 00	 call	 ?DataSend@@YAHHPAEK@Z	; DataSend

; 2451 : 
; 2452 : 	LogAdd("[%s] Friend add result : (%d) friend Name : (%s)",

  000dd	8d 45 e4	 lea	 eax, DWORD PTR _szFriendName$[ebp]
  000e0	50		 push	 eax
  000e1	0f b6 46 06	 movzx	 eax, BYTE PTR [esi+6]
  000e5	50		 push	 eax
  000e6	8d 45 f0	 lea	 eax, DWORD PTR _Name$[ebp]
  000e9	50		 push	 eax
  000ea	68 00 00 00 00	 push	 OFFSET ??_C@_0DB@NPDFCIKD@?$FL?$CFs?$FN?5Friend?5add?5result?5?3?5?$CI?$CFd?$CJ?5fr@
  000ef	ff 15 00 00 00
	00		 call	 DWORD PTR ?LogAdd@@3P6AXPADZZA ; LogAdd

; 2453 : 		Name.GetBuffer(), lpMsg->Result, szFriendName.GetBuffer());
; 2454 : }

  000f5	8b 4d fc	 mov	 ecx, DWORD PTR __$ArrayPad$[ebp]
  000f8	83 c4 1c	 add	 esp, 28			; 0000001cH
  000fb	33 cd		 xor	 ecx, ebp
  000fd	5e		 pop	 esi
  000fe	e8 00 00 00 00	 call	 @__security_check_cookie@4
  00103	8b e5		 mov	 esp, ebp
  00105	5d		 pop	 ebp
  00106	c3		 ret	 0
?FriendAddResult@@YAXPAUFHP_FRIEND_ADD_RESULT@@@Z ENDP	; FriendAddResult
_TEXT	ENDS
; Function compile flags: /Ogtp
; File c:\users\michel\desktop\source\gameserver\source\edsprotocol.cpp
; File c:\users\michel\desktop\source\gameserver\include\prodef.h
; File c:\users\michel\desktop\source\gameserver\source\edsprotocol.cpp
; File c:\users\michel\desktop\source\gameserver\include\prodef.h
; File c:\users\michel\desktop\source\gameserver\source\edsprotocol.cpp
; File c:\users\michel\desktop\source\gameserver\common\winutil.h
; File c:\users\michel\desktop\source\gameserver\source\edsprotocol.cpp
; File c:\users\michel\desktop\source\gameserver\include\prodef.h
; File c:\users\michel\desktop\source\gameserver\source\edsprotocol.cpp
;	COMDAT ?FriendAddRequest@@YAXPAUPMSG_FRIEND_ADD_REQ@@H@Z
_TEXT	SEGMENT
_pMsg$ = -60						; size = 26
_pResult$1 = -32					; size = 15
_szFriendName$ = -16					; size = 11
__$ArrayPad$ = -4					; size = 4
_lpMsg$ = 8						; size = 4
_aIndex$ = 12						; size = 4
?FriendAddRequest@@YAXPAUPMSG_FRIEND_ADD_REQ@@H@Z PROC	; FriendAddRequest, COMDAT

; 2392 : {

  00000	55		 push	 ebp
  00001	8b ec		 mov	 ebp, esp
  00003	83 ec 3c	 sub	 esp, 60			; 0000003cH
  00006	a1 00 00 00 00	 mov	 eax, DWORD PTR ___security_cookie
  0000b	33 c5		 xor	 eax, ebp
  0000d	89 45 fc	 mov	 DWORD PTR __$ArrayPad$[ebp], eax
  00010	56		 push	 esi
  00011	8b 75 08	 mov	 esi, DWORD PTR _lpMsg$[ebp]
  00014	57		 push	 edi
  00015	8b 7d 0c	 mov	 edi, DWORD PTR _aIndex$[ebp]

; 2393 : 	if ( !gObjIsConnectedGP(aIndex))

  00018	57		 push	 edi
  00019	e8 00 00 00 00	 call	 ?gObjIsConnectedGP@@YAHH@Z ; gObjIsConnectedGP
  0001e	83 c4 04	 add	 esp, 4
  00021	85 c0		 test	 eax, eax
  00023	75 28		 jne	 SHORT $LN2@FriendAddR

; 2394 : 	{
; 2395 : 		LogAddTD("error-L2 : Index %s %d", __FILE__, __LINE__);

  00025	68 5b 09 00 00	 push	 2395			; 0000095bH
  0002a	68 00 00 00 00	 push	 OFFSET ??_C@_0BA@FCCBMCDG@EDSProtocol?4cpp?$AA@
  0002f	68 00 00 00 00	 push	 OFFSET ??_C@_0BH@LCDOHCGD@error?9L2?5?3?5Index?5?$CFs?5?$CFd?$AA@
  00034	ff 15 00 00 00
	00		 call	 DWORD PTR ?LogAddTD@@3P6AXPADZZA ; LogAddTD
  0003a	83 c4 0c	 add	 esp, 12			; 0000000cH
  0003d	5f		 pop	 edi
  0003e	5e		 pop	 esi

; 2425 : 	}
; 2426 : }		

  0003f	8b 4d fc	 mov	 ecx, DWORD PTR __$ArrayPad$[ebp]
  00042	33 cd		 xor	 ecx, ebp
  00044	e8 00 00 00 00	 call	 @__security_check_cookie@4
  00049	8b e5		 mov	 esp, ebp
  0004b	5d		 pop	 ebp
  0004c	c3		 ret	 0
$LN2@FriendAddR:

; 2402 : 	memcpy(pMsg.Name, gObj[aIndex].Name, sizeof(pMsg.Name));

  0004d	8b 0d 00 00 00
	00		 mov	 ecx, DWORD PTR ?gObj@@3PAUOBJECTSTRUCT@@A ; gObj
  00053	53		 push	 ebx
  00054	69 df 40 27 00
	00		 imul	 ebx, edi, 10048
  0005a	83 c1 5d	 add	 ecx, 93			; 0000005dH
  0005d	03 cb		 add	 ecx, ebx
; File c:\users\michel\desktop\source\gameserver\include\prodef.h

; 86   : 		lpBuf[0] = 0xC1;

  0005f	66 c7 45 c4 c1
	1a		 mov	 WORD PTR _pMsg$[ebp], 6849 ; 00001ac1H
; File c:\users\michel\desktop\source\gameserver\source\edsprotocol.cpp

; 2403 : 	memcpy(pMsg.FriendName, lpMsg->Name, sizeof(pMsg.FriendName));

  00065	83 c6 03	 add	 esi, 3
; File c:\users\michel\desktop\source\gameserver\include\prodef.h

; 88   : 		lpBuf[2] = head;

  00068	c6 45 c6 63	 mov	 BYTE PTR _pMsg$[ebp+2], 99 ; 00000063H
; File c:\users\michel\desktop\source\gameserver\source\edsprotocol.cpp

; 2402 : 	memcpy(pMsg.Name, gObj[aIndex].Name, sizeof(pMsg.Name));

  0006c	f3 0f 7e 01	 movq	 xmm0, QWORD PTR [ecx]
  00070	66 0f d6 45 ca	 movq	 QWORD PTR _pMsg$[ebp+6], xmm0
  00075	0f b7 41 08	 movzx	 eax, WORD PTR [ecx+8]

; 2403 : 	memcpy(pMsg.FriendName, lpMsg->Name, sizeof(pMsg.FriendName));

  00079	f3 0f 7e 06	 movq	 xmm0, QWORD PTR [esi]
  0007d	66 89 45 d2	 mov	 WORD PTR _pMsg$[ebp+14], ax
  00081	0f b7 46 08	 movzx	 eax, WORD PTR [esi+8]
  00085	66 0f d6 45 d4	 movq	 QWORD PTR _pMsg$[ebp+16], xmm0
  0008a	0f 57 c0	 xorps	 xmm0, xmm0
  0008d	66 89 45 dc	 mov	 WORD PTR _pMsg$[ebp+24], ax

; 2404 : 	pMsg.Number = aIndex;

  00091	66 89 7d c8	 mov	 WORD PTR _pMsg$[ebp+4], di
; File c:\users\michel\desktop\source\gameserver\common\winutil.h

; 45   : 		memset(this->Name, 0, sizeof(this->Name));

  00095	66 0f d6 45 f0	 movq	 QWORD PTR _szFriendName$[ebp], xmm0
  0009a	66 c7 45 f8 00
	00		 mov	 WORD PTR _szFriendName$[ebp+8], 0
  000a0	c6 45 fa 00	 mov	 BYTE PTR _szFriendName$[ebp+10], 0

; 46   : 
; 47   : 		if ( szName != NULL )

  000a4	74 11		 je	 SHORT $LN9@FriendAddR

; 48   : 		{
; 49   : 			memcpy(this->Name, szName, MAX_ACCOUNT_LEN);

  000a6	f3 0f 7e 06	 movq	 xmm0, QWORD PTR [esi]
  000aa	66 8b 46 08	 mov	 ax, WORD PTR [esi+8]
  000ae	66 0f d6 45 f0	 movq	 QWORD PTR _szFriendName$[ebp], xmm0
  000b3	66 89 45 f8	 mov	 WORD PTR _szFriendName$[ebp+8], ax
$LN9@FriendAddR:
; File c:\users\michel\desktop\source\gameserver\source\edsprotocol.cpp

; 2407 : 	LogAdd("[%s] Friend add request Name: [%s]", gObj[aIndex].Name,		szFriendName.GetBuffer());

  000b7	8d 45 f0	 lea	 eax, DWORD PTR _szFriendName$[ebp]
  000ba	50		 push	 eax
  000bb	51		 push	 ecx
  000bc	68 00 00 00 00	 push	 OFFSET ??_C@_0CD@OOGOJAIC@?$FL?$CFs?$FN?5Friend?5add?5request?5Name?3?5?$FL?$CF@
  000c1	ff 15 00 00 00
	00		 call	 DWORD PTR ?LogAdd@@3P6AXPADZZA ; LogAdd

; 2408 : 
; 2409 : 	if ( !strcmp(gObj[aIndex].Name, szFriendName.GetBuffer()))

  000c7	a1 00 00 00 00	 mov	 eax, DWORD PTR ?gObj@@3PAUOBJECTSTRUCT@@A ; gObj
  000cc	8d 4d f0	 lea	 ecx, DWORD PTR _szFriendName$[ebp]
  000cf	83 c0 5d	 add	 eax, 93			; 0000005dH
  000d2	83 c4 0c	 add	 esp, 12			; 0000000cH
  000d5	03 d8		 add	 ebx, eax
  000d7	8b c3		 mov	 eax, ebx
  000d9	0f 1f 80 00 00
	00 00		 npad	 7
$LL17@FriendAddR:
  000e0	8a 10		 mov	 dl, BYTE PTR [eax]
  000e2	3a 11		 cmp	 dl, BYTE PTR [ecx]
  000e4	75 1a		 jne	 SHORT $LN18@FriendAddR
  000e6	84 d2		 test	 dl, dl
  000e8	74 12		 je	 SHORT $LN19@FriendAddR
  000ea	8a 50 01	 mov	 dl, BYTE PTR [eax+1]
  000ed	3a 51 01	 cmp	 dl, BYTE PTR [ecx+1]
  000f0	75 0e		 jne	 SHORT $LN18@FriendAddR
  000f2	83 c0 02	 add	 eax, 2
  000f5	83 c1 02	 add	 ecx, 2
  000f8	84 d2		 test	 dl, dl
  000fa	75 e4		 jne	 SHORT $LL17@FriendAddR
$LN19@FriendAddR:
  000fc	33 c0		 xor	 eax, eax
  000fe	eb 05		 jmp	 SHORT $LN20@FriendAddR
$LN18@FriendAddR:
  00100	1b c0		 sbb	 eax, eax
  00102	83 c8 01	 or	 eax, 1
$LN20@FriendAddR:
  00105	85 c0		 test	 eax, eax
  00107	75 48		 jne	 SHORT $LN3@FriendAddR

; 2410 : 	{
; 2411 : 		LogAdd("error-L3 : [%s] Friend add : Not self", gObj[aIndex].Name);

  00109	53		 push	 ebx
  0010a	68 00 00 00 00	 push	 OFFSET ??_C@_0CG@JNIACLCP@error?9L3?5?3?5?$FL?$CFs?$FN?5Friend?5add?5?3?5Not@
  0010f	ff 15 00 00 00
	00		 call	 DWORD PTR ?LogAdd@@3P6AXPADZZA ; LogAdd

; 2416 : 		memcpy(pResult.Name, lpMsg->Name, sizeof(pMsg.Name));

  00115	66 8b 46 08	 mov	 ax, WORD PTR [esi+8]
  00119	f3 0f 7e 06	 movq	 xmm0, QWORD PTR [esi]
  0011d	66 89 45 ec	 mov	 WORD PTR _pResult$1[ebp+12], ax

; 2419 : 
; 2420 : 		DataSend(aIndex, (LPBYTE)&pResult, sizeof(pResult));

  00121	8d 45 e0	 lea	 eax, DWORD PTR _pResult$1[ebp]
  00124	6a 0f		 push	 15			; 0000000fH
  00126	50		 push	 eax
  00127	57		 push	 edi
; File c:\users\michel\desktop\source\gameserver\include\prodef.h

; 86   : 		lpBuf[0] = 0xC1;

  00128	c7 45 e0 c1 0f
	c1 05		 mov	 DWORD PTR _pResult$1[ebp], 96538561 ; 05c10fc1H
; File c:\users\michel\desktop\source\gameserver\source\edsprotocol.cpp

; 2416 : 		memcpy(pResult.Name, lpMsg->Name, sizeof(pMsg.Name));

  0012f	66 0f d6 45 e4	 movq	 QWORD PTR _pResult$1[ebp+4], xmm0

; 2417 : 		pResult.Result = 5;
; 2418 : 		pResult.State = -1;

  00134	c6 45 ee ff	 mov	 BYTE PTR _pResult$1[ebp+14], 255 ; 000000ffH

; 2419 : 
; 2420 : 		DataSend(aIndex, (LPBYTE)&pResult, sizeof(pResult));

  00138	e8 00 00 00 00	 call	 ?DataSend@@YAHHPAEK@Z	; DataSend
  0013d	83 c4 14	 add	 esp, 20			; 00000014H
  00140	5b		 pop	 ebx
  00141	5f		 pop	 edi
  00142	5e		 pop	 esi

; 2425 : 	}
; 2426 : }		

  00143	8b 4d fc	 mov	 ecx, DWORD PTR __$ArrayPad$[ebp]
  00146	33 cd		 xor	 ecx, ebp
  00148	e8 00 00 00 00	 call	 @__security_check_cookie@4
  0014d	8b e5		 mov	 esp, ebp
  0014f	5d		 pop	 ebp
  00150	c3		 ret	 0
$LN3@FriendAddR:

; 2421 : 	}
; 2422 : 	else
; 2423 : 	{
; 2424 : 		wsExDbCli.DataSend((PCHAR)&pMsg, pMsg.h.size);

  00151	0f b6 45 c5	 movzx	 eax, BYTE PTR _pMsg$[ebp+1]
  00155	b9 00 00 00 00	 mov	 ecx, OFFSET ?wsExDbCli@@3VwsJoinServerCli@@A ; wsExDbCli
  0015a	50		 push	 eax
  0015b	8d 45 c4	 lea	 eax, DWORD PTR _pMsg$[ebp]
  0015e	50		 push	 eax
  0015f	e8 00 00 00 00	 call	 ?DataSend@wsJoinServerCli@@QAEHPADH@Z ; wsJoinServerCli::DataSend

; 2425 : 	}
; 2426 : }		

  00164	8b 4d fc	 mov	 ecx, DWORD PTR __$ArrayPad$[ebp]
  00167	5b		 pop	 ebx
  00168	5f		 pop	 edi
  00169	33 cd		 xor	 ecx, ebp
  0016b	5e		 pop	 esi
  0016c	e8 00 00 00 00	 call	 @__security_check_cookie@4
  00171	8b e5		 mov	 esp, ebp
  00173	5d		 pop	 ebp
  00174	c3		 ret	 0
?FriendAddRequest@@YAXPAUPMSG_FRIEND_ADD_REQ@@H@Z ENDP	; FriendAddRequest
_TEXT	ENDS
; Function compile flags: /Ogtp
; File c:\users\michel\desktop\source\gameserver\source\edsprotocol.cpp
; File c:\users\michel\desktop\source\gameserver\common\winutil.h
; File c:\users\michel\desktop\source\gameserver\source\edsprotocol.cpp
; File c:\users\michel\desktop\source\gameserver\common\winutil.h
; File c:\users\michel\desktop\source\gameserver\source\edsprotocol.cpp
; File c:\users\michel\desktop\source\gameserver\include\prodef.h
; File c:\users\michel\desktop\source\gameserver\source\edsprotocol.cpp
;	COMDAT ?FriendStateRecv@@YAXPAUFHP_FRIEND_STATE@@@Z
_TEXT	SEGMENT
_pMsg$ = -32						; size = 14
_Name$ = -16						; size = 11
__$ArrayPad$ = -4					; size = 4
_lpMsg$ = 8						; size = 4
?FriendStateRecv@@YAXPAUFHP_FRIEND_STATE@@@Z PROC	; FriendStateRecv, COMDAT

; 2347 : {

  00000	55		 push	 ebp
  00001	8b ec		 mov	 ebp, esp
  00003	83 ec 20	 sub	 esp, 32			; 00000020H
  00006	a1 00 00 00 00	 mov	 eax, DWORD PTR ___security_cookie
  0000b	33 c5		 xor	 eax, ebp
  0000d	89 45 fc	 mov	 DWORD PTR __$ArrayPad$[ebp], eax
  00010	56		 push	 esi
  00011	8b 75 08	 mov	 esi, DWORD PTR _lpMsg$[ebp]
  00014	0f 57 c0	 xorps	 xmm0, xmm0
; File c:\users\michel\desktop\source\gameserver\common\winutil.h

; 45   : 		memset(this->Name, 0, sizeof(this->Name));

  00017	66 0f d6 45 f0	 movq	 QWORD PTR _Name$[ebp], xmm0
  0001c	66 c7 45 f8 00
	00		 mov	 WORD PTR _Name$[ebp+8], 0
  00022	c6 45 fa 00	 mov	 BYTE PTR _Name$[ebp+10], 0
; File c:\users\michel\desktop\source\gameserver\source\edsprotocol.cpp

; 2348 : 	char_ID Name(lpMsg->Name);

  00026	8d 46 06	 lea	 eax, DWORD PTR [esi+6]
; File c:\users\michel\desktop\source\gameserver\common\winutil.h

; 47   : 		if ( szName != NULL )

  00029	85 c0		 test	 eax, eax
  0002b	74 11		 je	 SHORT $LN5@FriendStat

; 48   : 		{
; 49   : 			memcpy(this->Name, szName, MAX_ACCOUNT_LEN);

  0002d	f3 0f 7e 00	 movq	 xmm0, QWORD PTR [eax]
  00031	66 8b 40 08	 mov	 ax, WORD PTR [eax+8]
  00035	66 0f d6 45 f0	 movq	 QWORD PTR _Name$[ebp], xmm0
  0003a	66 89 45 f8	 mov	 WORD PTR _Name$[ebp+8], ax
$LN5@FriendStat:
; File c:\users\michel\desktop\source\gameserver\source\edsprotocol.cpp

; 2350 : 	if ( !gObjIsConnectedGP(lpMsg->Number, Name.GetBuffer()))

  0003e	8d 45 f0	 lea	 eax, DWORD PTR _Name$[ebp]
  00041	50		 push	 eax
  00042	0f bf 46 04	 movsx	 eax, WORD PTR [esi+4]
  00046	50		 push	 eax
  00047	e8 00 00 00 00	 call	 ?gObjIsConnectedGP@@YAHHPAD@Z ; gObjIsConnectedGP
  0004c	83 c4 08	 add	 esp, 8
  0004f	85 c0		 test	 eax, eax
  00051	75 2b		 jne	 SHORT $LN2@FriendStat

; 2351 : 	{
; 2352 : 		LogAddTD("error-L2 : (%s) Index %s %d ", Name.GetBuffer(), __FILE__, __LINE__);

  00053	68 30 09 00 00	 push	 2352			; 00000930H
  00058	68 00 00 00 00	 push	 OFFSET ??_C@_0BA@FCCBMCDG@EDSProtocol?4cpp?$AA@
  0005d	8d 45 f0	 lea	 eax, DWORD PTR _Name$[ebp]
  00060	50		 push	 eax
  00061	68 00 00 00 00	 push	 OFFSET ??_C@_0BN@DOMMEPOB@error?9L2?5?3?5?$CI?$CFs?$CJ?5Index?5?$CFs?5?$CFd?5?$AA@
  00066	ff 15 00 00 00
	00		 call	 DWORD PTR ?LogAddTD@@3P6AXPADZZA ; LogAddTD
  0006c	83 c4 10	 add	 esp, 16			; 00000010H
  0006f	5e		 pop	 esi

; 2365 : }

  00070	8b 4d fc	 mov	 ecx, DWORD PTR __$ArrayPad$[ebp]
  00073	33 cd		 xor	 ecx, ebp
  00075	e8 00 00 00 00	 call	 @__security_check_cookie@4
  0007a	8b e5		 mov	 esp, ebp
  0007c	5d		 pop	 ebp
  0007d	c3		 ret	 0
$LN2@FriendStat:

; 2359 : 	memcpy(pMsg.Name, lpMsg->FriendName, sizeof(pMsg.Name));

  0007e	66 8b 46 18	 mov	 ax, WORD PTR [esi+24]
  00082	f3 0f 7e 46 10	 movq	 xmm0, QWORD PTR [esi+16]
  00087	66 89 45 eb	 mov	 WORD PTR _pMsg$[ebp+11], ax

; 2360 : 	pMsg.State = lpMsg->State;

  0008b	8a 46 1a	 mov	 al, BYTE PTR [esi+26]
  0008e	88 45 ed	 mov	 BYTE PTR _pMsg$[ebp+13], al

; 2361 : 
; 2362 : 	DataSend(lpMsg->Number, (LPBYTE)&pMsg, sizeof(pMsg));

  00091	8d 45 e0	 lea	 eax, DWORD PTR _pMsg$[ebp]
  00094	6a 0e		 push	 14			; 0000000eH
  00096	50		 push	 eax
  00097	0f bf 46 04	 movsx	 eax, WORD PTR [esi+4]
  0009b	50		 push	 eax
; File c:\users\michel\desktop\source\gameserver\include\prodef.h

; 86   : 		lpBuf[0] = 0xC1;

  0009c	66 c7 45 e0 c1
	0e		 mov	 WORD PTR _pMsg$[ebp], 3777 ; 00000ec1H

; 87   : 		lpBuf[1] = size;
; 88   : 		lpBuf[2] = head;

  000a2	c6 45 e2 c4	 mov	 BYTE PTR _pMsg$[ebp+2], 196 ; 000000c4H
; File c:\users\michel\desktop\source\gameserver\source\edsprotocol.cpp

; 2359 : 	memcpy(pMsg.Name, lpMsg->FriendName, sizeof(pMsg.Name));

  000a6	66 0f d6 45 e3	 movq	 QWORD PTR _pMsg$[ebp+3], xmm0

; 2361 : 
; 2362 : 	DataSend(lpMsg->Number, (LPBYTE)&pMsg, sizeof(pMsg));

  000ab	e8 00 00 00 00	 call	 ?DataSend@@YAHHPAEK@Z	; DataSend

; 2363 : 
; 2364 : 	LogAdd("[%s] Friend State (%d)", gObj[lpMsg->Number].Name, lpMsg->State);

  000b0	0f b6 46 1a	 movzx	 eax, BYTE PTR [esi+26]
  000b4	50		 push	 eax
  000b5	0f bf 46 04	 movsx	 eax, WORD PTR [esi+4]
  000b9	69 c8 40 27 00
	00		 imul	 ecx, eax, 10048
  000bf	a1 00 00 00 00	 mov	 eax, DWORD PTR ?gObj@@3PAUOBJECTSTRUCT@@A ; gObj
  000c4	83 c0 5d	 add	 eax, 93			; 0000005dH
  000c7	03 c1		 add	 eax, ecx
  000c9	50		 push	 eax
  000ca	68 00 00 00 00	 push	 OFFSET ??_C@_0BH@OEEJLGGK@?$FL?$CFs?$FN?5Friend?5State?5?$CI?$CFd?$CJ?$AA@
  000cf	ff 15 00 00 00
	00		 call	 DWORD PTR ?LogAdd@@3P6AXPADZZA ; LogAdd

; 2365 : }

  000d5	8b 4d fc	 mov	 ecx, DWORD PTR __$ArrayPad$[ebp]
  000d8	83 c4 18	 add	 esp, 24			; 00000018H
  000db	33 cd		 xor	 ecx, ebp
  000dd	5e		 pop	 esi
  000de	e8 00 00 00 00	 call	 @__security_check_cookie@4
  000e3	8b e5		 mov	 esp, ebp
  000e5	5d		 pop	 ebp
  000e6	c3		 ret	 0
?FriendStateRecv@@YAXPAUFHP_FRIEND_STATE@@@Z ENDP	; FriendStateRecv
_TEXT	ENDS
; Function compile flags: /Ogtp
; File c:\users\michel\desktop\source\gameserver\source\edsprotocol.cpp
; File c:\users\michel\desktop\source\gameserver\include\prodef.h
; File c:\users\michel\desktop\source\gameserver\source\edsprotocol.cpp
;	COMDAT ?FriendStateClientRecv@@YAXPAUPMSG_FRIEND_STATE_C@@H@Z
_TEXT	SEGMENT
_pMsg$ = -24						; size = 18
__$ArrayPad$ = -4					; size = 4
_lpMsg$ = 8						; size = 4
_aIndex$ = 12						; size = 4
?FriendStateClientRecv@@YAXPAUPMSG_FRIEND_STATE_C@@H@Z PROC ; FriendStateClientRecv, COMDAT

; 2326 : {

  00000	55		 push	 ebp
  00001	8b ec		 mov	 ebp, esp
  00003	83 ec 18	 sub	 esp, 24			; 00000018H
  00006	a1 00 00 00 00	 mov	 eax, DWORD PTR ___security_cookie
  0000b	33 c5		 xor	 eax, ebp
  0000d	89 45 fc	 mov	 DWORD PTR __$ArrayPad$[ebp], eax
  00010	56		 push	 esi
  00011	8b 75 0c	 mov	 esi, DWORD PTR _aIndex$[ebp]
  00014	57		 push	 edi
  00015	8b 7d 08	 mov	 edi, DWORD PTR _lpMsg$[ebp]

; 2327 : 	if ( !gObjIsConnectedGP(aIndex))

  00018	56		 push	 esi
  00019	e8 00 00 00 00	 call	 ?gObjIsConnectedGP@@YAHH@Z ; gObjIsConnectedGP
  0001e	83 c4 04	 add	 esp, 4
  00021	85 c0		 test	 eax, eax
  00023	75 28		 jne	 SHORT $LN2@FriendStat

; 2328 : 	{
; 2329 : 		LogAddTD("error-L2 : Index %s %d", __FILE__, __LINE__);

  00025	68 19 09 00 00	 push	 2329			; 00000919H
  0002a	68 00 00 00 00	 push	 OFFSET ??_C@_0BA@FCCBMCDG@EDSProtocol?4cpp?$AA@
  0002f	68 00 00 00 00	 push	 OFFSET ??_C@_0BH@LCDOHCGD@error?9L2?5?3?5Index?5?$CFs?5?$CFd?$AA@
  00034	ff 15 00 00 00
	00		 call	 DWORD PTR ?LogAddTD@@3P6AXPADZZA ; LogAddTD
  0003a	83 c4 0c	 add	 esp, 12			; 0000000cH
  0003d	5f		 pop	 edi
  0003e	5e		 pop	 esi

; 2340 : }

  0003f	8b 4d fc	 mov	 ecx, DWORD PTR __$ArrayPad$[ebp]
  00042	33 cd		 xor	 ecx, ebp
  00044	e8 00 00 00 00	 call	 @__security_check_cookie@4
  00049	8b e5		 mov	 esp, ebp
  0004b	5d		 pop	 ebp
  0004c	c3		 ret	 0
$LN2@FriendStat:

; 2330 : 		return;
; 2331 : 	}
; 2332 : 
; 2333 : 	FHP_FRIEND_STATE_C pMsg;
; 2334 : 
; 2335 : 	pMsg.h.set((LPBYTE)&pMsg, 0x62, sizeof(pMsg));
; 2336 : 	memcpy(pMsg.Name, gObj[aIndex].Name, sizeof(pMsg.Name));

  0004d	a1 00 00 00 00	 mov	 eax, DWORD PTR ?gObj@@3PAUOBJECTSTRUCT@@A ; gObj
  00052	69 ce 40 27 00
	00		 imul	 ecx, esi, 10048
; File c:\users\michel\desktop\source\gameserver\include\prodef.h

; 86   : 		lpBuf[0] = 0xC1;

  00058	66 c7 45 e8 c1
	12		 mov	 WORD PTR _pMsg$[ebp], 4801 ; 000012c1H

; 87   : 		lpBuf[1] = size;
; 88   : 		lpBuf[2] = head;

  0005e	c6 45 ea 62	 mov	 BYTE PTR _pMsg$[ebp+2], 98 ; 00000062H
; File c:\users\michel\desktop\source\gameserver\source\edsprotocol.cpp

; 2339 : 	wsExDbCli.DataSend((PCHAR)&pMsg, pMsg.h.size);

  00062	6a 12		 push	 18			; 00000012H
  00064	f3 0f 7e 44 01
	5d		 movq	 xmm0, QWORD PTR [ecx+eax+93]
  0006a	66 0f d6 45 ee	 movq	 QWORD PTR _pMsg$[ebp+6], xmm0
  0006f	66 8b 44 01 65	 mov	 ax, WORD PTR [ecx+eax+101]
  00074	b9 00 00 00 00	 mov	 ecx, OFFSET ?wsExDbCli@@3VwsJoinServerCli@@A ; wsExDbCli
  00079	66 89 45 f6	 mov	 WORD PTR _pMsg$[ebp+14], ax
  0007d	8a 47 03	 mov	 al, BYTE PTR [edi+3]
  00080	88 45 f8	 mov	 BYTE PTR _pMsg$[ebp+16], al
  00083	8d 45 e8	 lea	 eax, DWORD PTR _pMsg$[ebp]
  00086	50		 push	 eax
  00087	e8 00 00 00 00	 call	 ?DataSend@wsJoinServerCli@@QAEHPADH@Z ; wsJoinServerCli::DataSend

; 2340 : }

  0008c	8b 4d fc	 mov	 ecx, DWORD PTR __$ArrayPad$[ebp]
  0008f	5f		 pop	 edi
  00090	33 cd		 xor	 ecx, ebp
  00092	5e		 pop	 esi
  00093	e8 00 00 00 00	 call	 @__security_check_cookie@4
  00098	8b e5		 mov	 esp, ebp
  0009a	5d		 pop	 ebp
  0009b	c3		 ret	 0
?FriendStateClientRecv@@YAXPAUPMSG_FRIEND_STATE_C@@H@Z ENDP ; FriendStateClientRecv
_TEXT	ENDS
; Function compile flags: /Ogtp
; File c:\users\michel\desktop\source\gameserver\source\edsprotocol.cpp
; File c:\users\michel\desktop\source\gameserver\common\winutil.h
; File c:\users\michel\desktop\source\gameserver\source\edsprotocol.cpp
; File c:\users\michel\desktop\source\gameserver\common\winutil.h
; File c:\users\michel\desktop\source\gameserver\source\edsprotocol.cpp
; File c:\users\michel\desktop\source\gameserver\common\winutil.h
; File c:\users\michel\desktop\source\gameserver\source\edsprotocol.cpp
; File c:\users\michel\desktop\source\gameserver\include\prodef.h
; File c:\users\michel\desktop\source\gameserver\source\edsprotocol.cpp
;	COMDAT ?WaitFriendListResult@@YAXPAUFHP_WAITFRIENDLIST_COUNT@@@Z
_TEXT	SEGMENT
_pMsg$ = -32						; size = 13
_Name$ = -16						; size = 11
__$ArrayPad$ = -4					; size = 4
_lpMsg$ = 8						; size = 4
?WaitFriendListResult@@YAXPAUFHP_WAITFRIENDLIST_COUNT@@@Z PROC ; WaitFriendListResult, COMDAT

; 2292 : {

  00000	55		 push	 ebp
  00001	8b ec		 mov	 ebp, esp
  00003	83 ec 20	 sub	 esp, 32			; 00000020H
  00006	a1 00 00 00 00	 mov	 eax, DWORD PTR ___security_cookie
  0000b	33 c5		 xor	 eax, ebp
  0000d	89 45 fc	 mov	 DWORD PTR __$ArrayPad$[ebp], eax
  00010	56		 push	 esi
  00011	8b 75 08	 mov	 esi, DWORD PTR _lpMsg$[ebp]
  00014	0f 57 c0	 xorps	 xmm0, xmm0
; File c:\users\michel\desktop\source\gameserver\common\winutil.h

; 45   : 		memset(this->Name, 0, sizeof(this->Name));

  00017	66 0f d6 45 f0	 movq	 QWORD PTR _Name$[ebp], xmm0
  0001c	66 c7 45 f8 00
	00		 mov	 WORD PTR _Name$[ebp+8], 0
  00022	c6 45 fa 00	 mov	 BYTE PTR _Name$[ebp+10], 0
; File c:\users\michel\desktop\source\gameserver\source\edsprotocol.cpp

; 2294 : 	char_ID Name(lpMsg->Name);

  00026	8d 46 06	 lea	 eax, DWORD PTR [esi+6]
; File c:\users\michel\desktop\source\gameserver\common\winutil.h

; 47   : 		if ( szName != NULL )

  00029	85 c0		 test	 eax, eax
  0002b	74 11		 je	 SHORT $LN6@WaitFriend

; 48   : 		{
; 49   : 			memcpy(this->Name, szName, MAX_ACCOUNT_LEN);

  0002d	f3 0f 7e 00	 movq	 xmm0, QWORD PTR [eax]
  00031	66 8b 40 08	 mov	 ax, WORD PTR [eax+8]
  00035	66 0f d6 45 f0	 movq	 QWORD PTR _Name$[ebp], xmm0
  0003a	66 89 45 f8	 mov	 WORD PTR _Name$[ebp+8], ax
$LN6@WaitFriend:
; File c:\users\michel\desktop\source\gameserver\source\edsprotocol.cpp

; 2296 : 	if ( !gObjIsConnectedGP(lpMsg->Number, Name.GetBuffer()))

  0003e	8d 45 f0	 lea	 eax, DWORD PTR _Name$[ebp]
  00041	50		 push	 eax
  00042	0f bf 46 04	 movsx	 eax, WORD PTR [esi+4]
  00046	50		 push	 eax
  00047	e8 00 00 00 00	 call	 ?gObjIsConnectedGP@@YAHHPAD@Z ; gObjIsConnectedGP
  0004c	83 c4 08	 add	 esp, 8
  0004f	85 c0		 test	 eax, eax
  00051	75 2b		 jne	 SHORT $LN2@WaitFriend

; 2297 : 	{
; 2298 : 		LogAddTD("error-L2 : (%s) Index %s %d ",

  00053	68 fb 08 00 00	 push	 2299			; 000008fbH
  00058	68 00 00 00 00	 push	 OFFSET ??_C@_0BA@FCCBMCDG@EDSProtocol?4cpp?$AA@
  0005d	8d 45 f0	 lea	 eax, DWORD PTR _Name$[ebp]
  00060	50		 push	 eax
  00061	68 00 00 00 00	 push	 OFFSET ??_C@_0BN@DOMMEPOB@error?9L2?5?3?5?$CI?$CFs?$CJ?5Index?5?$CFs?5?$CFd?5?$AA@
  00066	ff 15 00 00 00
	00		 call	 DWORD PTR ?LogAddTD@@3P6AXPADZZA ; LogAddTD
  0006c	83 c4 10	 add	 esp, 16			; 00000010H
  0006f	5e		 pop	 esi

; 2312 : }

  00070	8b 4d fc	 mov	 ecx, DWORD PTR __$ArrayPad$[ebp]
  00073	33 cd		 xor	 ecx, ebp
  00075	e8 00 00 00 00	 call	 @__security_check_cookie@4
  0007a	8b e5		 mov	 esp, ebp
  0007c	5d		 pop	 ebp
  0007d	c3		 ret	 0
$LN2@WaitFriend:
; File c:\users\michel\desktop\source\gameserver\common\winutil.h

; 60   : 		return strlen(this->Name);

  0007e	8d 4d f0	 lea	 ecx, DWORD PTR _Name$[ebp]
  00081	8d 51 01	 lea	 edx, DWORD PTR [ecx+1]
$LL18@WaitFriend:
  00084	8a 01		 mov	 al, BYTE PTR [ecx]
  00086	41		 inc	 ecx
  00087	84 c0		 test	 al, al
  00089	75 f9		 jne	 SHORT $LL18@WaitFriend
  0008b	2b ca		 sub	 ecx, edx
; File c:\users\michel\desktop\source\gameserver\source\edsprotocol.cpp

; 2303 : 	if ( Name.GetLength() < 1 )

  0008d	83 f9 01	 cmp	 ecx, 1
  00090	7c 53		 jl	 SHORT $LN1@WaitFriend

; 2307 : 	memcpy(pMsg.Name, lpMsg->FriendName, sizeof(pMsg.Name));

  00092	66 8b 46 18	 mov	 ax, WORD PTR [esi+24]
  00096	f3 0f 7e 46 10	 movq	 xmm0, QWORD PTR [esi+16]
  0009b	66 89 45 eb	 mov	 WORD PTR _pMsg$[ebp+11], ax

; 2308 : 
; 2309 : 	DataSend(lpMsg->Number, (LPBYTE)&pMsg, sizeof(pMsg));

  0009f	8d 45 e0	 lea	 eax, DWORD PTR _pMsg$[ebp]
  000a2	6a 0d		 push	 13			; 0000000dH
  000a4	50		 push	 eax
  000a5	0f bf 46 04	 movsx	 eax, WORD PTR [esi+4]
  000a9	50		 push	 eax
; File c:\users\michel\desktop\source\gameserver\include\prodef.h

; 86   : 		lpBuf[0] = 0xC1;

  000aa	66 c7 45 e0 c1
	0d		 mov	 WORD PTR _pMsg$[ebp], 3521 ; 00000dc1H

; 87   : 		lpBuf[1] = size;
; 88   : 		lpBuf[2] = head;

  000b0	c6 45 e2 c2	 mov	 BYTE PTR _pMsg$[ebp+2], 194 ; 000000c2H
; File c:\users\michel\desktop\source\gameserver\source\edsprotocol.cpp

; 2307 : 	memcpy(pMsg.Name, lpMsg->FriendName, sizeof(pMsg.Name));

  000b4	66 0f d6 45 e3	 movq	 QWORD PTR _pMsg$[ebp+3], xmm0

; 2308 : 
; 2309 : 	DataSend(lpMsg->Number, (LPBYTE)&pMsg, sizeof(pMsg));

  000b9	e8 00 00 00 00	 call	 ?DataSend@@YAHHPAEK@Z	; DataSend

; 2310 : 
; 2311 : 	LogAdd("[%s] WaitFriend List [%s]", gObj[lpMsg->Number].Name, Name.GetBuffer());

  000be	8d 45 f0	 lea	 eax, DWORD PTR _Name$[ebp]
  000c1	50		 push	 eax
  000c2	0f bf 46 04	 movsx	 eax, WORD PTR [esi+4]
  000c6	69 c8 40 27 00
	00		 imul	 ecx, eax, 10048
  000cc	a1 00 00 00 00	 mov	 eax, DWORD PTR ?gObj@@3PAUOBJECTSTRUCT@@A ; gObj
  000d1	83 c0 5d	 add	 eax, 93			; 0000005dH
  000d4	03 c1		 add	 eax, ecx
  000d6	50		 push	 eax
  000d7	68 00 00 00 00	 push	 OFFSET ??_C@_0BK@HLHJLCCE@?$FL?$CFs?$FN?5WaitFriend?5List?5?$FL?$CFs?$FN?$AA@
  000dc	ff 15 00 00 00
	00		 call	 DWORD PTR ?LogAdd@@3P6AXPADZZA ; LogAdd
  000e2	83 c4 18	 add	 esp, 24			; 00000018H
$LN1@WaitFriend:

; 2312 : }

  000e5	8b 4d fc	 mov	 ecx, DWORD PTR __$ArrayPad$[ebp]
  000e8	33 cd		 xor	 ecx, ebp
  000ea	5e		 pop	 esi
  000eb	e8 00 00 00 00	 call	 @__security_check_cookie@4
  000f0	8b e5		 mov	 esp, ebp
  000f2	5d		 pop	 ebp
  000f3	c3		 ret	 0
?WaitFriendListResult@@YAXPAUFHP_WAITFRIENDLIST_COUNT@@@Z ENDP ; WaitFriendListResult
_TEXT	ENDS
; Function compile flags: /Ogtp
; File c:\users\michel\desktop\source\gameserver\source\edsprotocol.cpp
; File c:\users\michel\desktop\source\gameserver\common\winutil.h
; File c:\users\michel\desktop\source\gameserver\source\edsprotocol.cpp
; File c:\users\michel\desktop\source\gameserver\common\winutil.h
; File c:\users\michel\desktop\source\gameserver\source\edsprotocol.cpp
; File c:\users\michel\desktop\source\gameserver\include\prodef.h
; File c:\users\michel\desktop\source\gameserver\source\edsprotocol.cpp
;	COMDAT ?FriendListResult@@YAXPAE@Z
_TEXT	SEGMENT
_pCount$ = -2028					; size = 7
_pCount$1$ = -2017					; size = 1
_Name$ = -2016						; size = 11
_TmpSendBuf$ = -2004					; size = 2000
__$ArrayPad$ = -4					; size = 4
_lpMsg$ = 8						; size = 4
?FriendListResult@@YAXPAE@Z PROC			; FriendListResult, COMDAT

; 2237 : {

  00000	55		 push	 ebp
  00001	8b ec		 mov	 ebp, esp
  00003	81 ec ec 07 00
	00		 sub	 esp, 2028		; 000007ecH
  00009	a1 00 00 00 00	 mov	 eax, DWORD PTR ___security_cookie
  0000e	33 c5		 xor	 eax, ebp
  00010	89 45 fc	 mov	 DWORD PTR __$ArrayPad$[ebp], eax
  00013	53		 push	 ebx
  00014	57		 push	 edi
  00015	8b 7d 08	 mov	 edi, DWORD PTR _lpMsg$[ebp]
  00018	0f 57 c0	 xorps	 xmm0, xmm0

; 2238 : 
; 2239 : 	FHP_FRIENDLIST_COUNT * lpCount;
; 2240 : 	FHP_FRIENDLIST * lpList;
; 2241 : 	int lOfs = sizeof(FHP_FRIENDLIST_COUNT);
; 2242 : 	PMSG_FRIEND_LIST_COUNT pCount;
; 2243 : 	int pOfs = sizeof(PMSG_FRIEND_LIST_COUNT);

  0001b	bb 07 00 00 00	 mov	 ebx, 7
; File c:\users\michel\desktop\source\gameserver\common\winutil.h

; 45   : 		memset(this->Name, 0, sizeof(this->Name));

  00020	66 0f d6 85 20
	f8 ff ff	 movq	 QWORD PTR _Name$[ebp], xmm0
  00028	66 c7 85 28 f8
	ff ff 00 00	 mov	 WORD PTR _Name$[ebp+8], 0
  00031	c6 85 2a f8 ff
	ff 00		 mov	 BYTE PTR _Name$[ebp+10], 0
; File c:\users\michel\desktop\source\gameserver\source\edsprotocol.cpp

; 2248 : 	char_ID Name( lpCount->Name);

  00038	8d 47 06	 lea	 eax, DWORD PTR [edi+6]
; File c:\users\michel\desktop\source\gameserver\common\winutil.h

; 47   : 		if ( szName != NULL )

  0003b	85 c0		 test	 eax, eax
  0003d	74 17		 je	 SHORT $LN9@FriendList

; 48   : 		{
; 49   : 			memcpy(this->Name, szName, MAX_ACCOUNT_LEN);

  0003f	f3 0f 7e 00	 movq	 xmm0, QWORD PTR [eax]
  00043	66 8b 40 08	 mov	 ax, WORD PTR [eax+8]
  00047	66 0f d6 85 20
	f8 ff ff	 movq	 QWORD PTR _Name$[ebp], xmm0
  0004f	66 89 85 28 f8
	ff ff		 mov	 WORD PTR _Name$[ebp+8], ax
$LN9@FriendList:
; File c:\users\michel\desktop\source\gameserver\source\edsprotocol.cpp

; 2251 : 	if ( !gObjIsConnectedGP(lpCount->Number, Name.GetBuffer()))

  00056	8d 85 20 f8 ff
	ff		 lea	 eax, DWORD PTR _Name$[ebp]
  0005c	50		 push	 eax
  0005d	0f bf 47 04	 movsx	 eax, WORD PTR [edi+4]
  00061	50		 push	 eax
  00062	e8 00 00 00 00	 call	 ?gObjIsConnectedGP@@YAHHPAD@Z ; gObjIsConnectedGP
  00067	83 c4 08	 add	 esp, 8
  0006a	85 c0		 test	 eax, eax
  0006c	75 28		 jne	 SHORT $LN5@FriendList

; 2252 : 	{
; 2253 : 		LogAddTD("error-L2 : Index %s %d", __FILE__, __LINE__);

  0006e	68 cd 08 00 00	 push	 2253			; 000008cdH
  00073	68 00 00 00 00	 push	 OFFSET ??_C@_0BA@FCCBMCDG@EDSProtocol?4cpp?$AA@
  00078	68 00 00 00 00	 push	 OFFSET ??_C@_0BH@LCDOHCGD@error?9L2?5?3?5Index?5?$CFs?5?$CFd?$AA@
  0007d	ff 15 00 00 00
	00		 call	 DWORD PTR ?LogAddTD@@3P6AXPADZZA ; LogAddTD
  00083	83 c4 0c	 add	 esp, 12			; 0000000cH
  00086	5f		 pop	 edi
  00087	5b		 pop	 ebx

; 2279 : 		gObj[lpCount->Number].Name, pCount.Count);
; 2280 : }

  00088	8b 4d fc	 mov	 ecx, DWORD PTR __$ArrayPad$[ebp]
  0008b	33 cd		 xor	 ecx, ebp
  0008d	e8 00 00 00 00	 call	 @__security_check_cookie@4
  00092	8b e5		 mov	 esp, ebp
  00094	5d		 pop	 ebp
  00095	c3		 ret	 0
$LN5@FriendList:

; 2254 : 		return;
; 2255 : 	}
; 2256 : 
; 2257 : 	gObj[lpCount->Number].m_FriendServerOnline = 0;

  00096	0f bf 47 04	 movsx	 eax, WORD PTR [edi+4]
  0009a	69 c8 40 27 00
	00		 imul	 ecx, eax, 10048
  000a0	a1 00 00 00 00	 mov	 eax, DWORD PTR ?gObj@@3PAUOBJECTSTRUCT@@A ; gObj

; 2258 : 	pCount.Count = lpCount->Count;
; 2259 : 	pCount.MemoCount = lpCount->MailCount;
; 2260 : 	pCount.MailTotal = 50;

  000a5	c6 85 19 f8 ff
	ff 32		 mov	 BYTE PTR _pCount$[ebp+5], 50 ; 00000032H
  000ac	c6 84 01 60 05
	00 00 00	 mov	 BYTE PTR [ecx+eax+1376], 0
  000b4	8a 4f 10	 mov	 cl, BYTE PTR [edi+16]
  000b7	8a 47 11	 mov	 al, BYTE PTR [edi+17]
  000ba	88 8d 1f f8 ff
	ff		 mov	 BYTE PTR _pCount$1$[ebp], cl
  000c0	88 85 18 f8 ff
	ff		 mov	 BYTE PTR _pCount$[ebp+4], al

; 2261 : 
; 2262 : 	if ( pCount.Count != 0 )

  000c6	84 c9		 test	 cl, cl
  000c8	74 3f		 je	 SHORT $LN3@FriendList

; 2263 : 	{
; 2264 : 		for ( int n=0;n<pCount.Count;n++)

  000ca	56		 push	 esi
  000cb	0f b6 f1	 movzx	 esi, cl
  000ce	85 f6		 test	 esi, esi
  000d0	7e 36		 jle	 SHORT $LN19@FriendList
  000d2	6b de 0b	 imul	 ebx, esi, 11
  000d5	8d 8d 33 f8 ff
	ff		 lea	 ecx, DWORD PTR _TmpSendBuf$[ebp+7]
  000db	8d 57 12	 lea	 edx, DWORD PTR [edi+18]
  000de	83 c3 07	 add	 ebx, 7
$LL4@FriendList:

; 2265 : 		{
; 2266 : 			lpList = (FHP_FRIENDLIST *)&lpMsg[lOfs];
; 2267 : 			memcpy(&TmpSendBuf[pOfs], lpList, sizeof(FHP_FRIENDLIST));

  000e1	f3 0f 7e 02	 movq	 xmm0, QWORD PTR [edx]

; 2268 : 			lOfs+=sizeof(FHP_FRIENDLIST);
; 2269 : 			pOfs+=sizeof(FHP_FRIENDLIST);	// #warning why plus that??

  000e5	8d 52 0b	 lea	 edx, DWORD PTR [edx+11]
  000e8	66 0f d6 01	 movq	 QWORD PTR [ecx], xmm0
  000ec	66 8b 42 fd	 mov	 ax, WORD PTR [edx-3]
  000f0	66 89 41 08	 mov	 WORD PTR [ecx+8], ax
  000f4	8a 42 ff	 mov	 al, BYTE PTR [edx-1]
  000f7	88 41 0a	 mov	 BYTE PTR [ecx+10], al
  000fa	83 c1 0b	 add	 ecx, 11			; 0000000bH
  000fd	83 ee 01	 sub	 esi, 1
  00100	75 df		 jne	 SHORT $LL4@FriendList
  00102	8a 8d 1f f8 ff
	ff		 mov	 cl, BYTE PTR _pCount$1$[ebp]
$LN19@FriendList:
  00108	5e		 pop	 esi
$LN3@FriendList:
; File c:\users\michel\desktop\source\gameserver\include\prodef.h

; 112  : 		lpBuf[1] = SET_NUMBERH(size);

  00109	8b c3		 mov	 eax, ebx
  0010b	c6 85 14 f8 ff
	ff c2		 mov	 BYTE PTR _pCount$[ebp], 194 ; 000000c2H
  00112	c1 e8 08	 shr	 eax, 8
  00115	88 85 15 f8 ff
	ff		 mov	 BYTE PTR _pCount$[ebp+1], al

; 113  : 		lpBuf[2] = SET_NUMBERL(size);

  0011b	88 9d 16 f8 ff
	ff		 mov	 BYTE PTR _pCount$[ebp+2], bl

; 114  : 		lpBuf[3] = head;

  00121	c6 85 17 f8 ff
	ff c0		 mov	 BYTE PTR _pCount$[ebp+3], 192 ; 000000c0H
; File c:\users\michel\desktop\source\gameserver\source\edsprotocol.cpp

; 2274 : 	memcpy(TmpSendBuf, &pCount, sizeof(PMSG_FRIEND_LIST_COUNT));

  00128	8b 85 14 f8 ff
	ff		 mov	 eax, DWORD PTR _pCount$[ebp]
  0012e	89 85 2c f8 ff
	ff		 mov	 DWORD PTR _TmpSendBuf$[ebp], eax
  00134	66 8b 85 18 f8
	ff ff		 mov	 ax, WORD PTR _pCount$[ebp+4]
  0013b	66 89 85 30 f8
	ff ff		 mov	 WORD PTR _TmpSendBuf$[ebp+4], ax

; 2275 : 
; 2276 : 	DataSend(lpCount->Number, TmpSendBuf, pOfs);

  00142	8d 85 2c f8 ff
	ff		 lea	 eax, DWORD PTR _TmpSendBuf$[ebp]
  00148	53		 push	 ebx
  00149	50		 push	 eax
  0014a	0f bf 47 04	 movsx	 eax, WORD PTR [edi+4]
  0014e	50		 push	 eax
  0014f	88 8d 32 f8 ff
	ff		 mov	 BYTE PTR _TmpSendBuf$[ebp+6], cl
  00155	e8 00 00 00 00	 call	 ?DataSend@@YAHHPAEK@Z	; DataSend

; 2277 : 
; 2278 : 	LogAdd("[%s] Friend List Count (%d) Send",

  0015a	0f b6 85 1f f8
	ff ff		 movzx	 eax, BYTE PTR _pCount$1$[ebp]
  00161	50		 push	 eax
  00162	0f bf 47 04	 movsx	 eax, WORD PTR [edi+4]
  00166	69 c8 40 27 00
	00		 imul	 ecx, eax, 10048
  0016c	a1 00 00 00 00	 mov	 eax, DWORD PTR ?gObj@@3PAUOBJECTSTRUCT@@A ; gObj
  00171	83 c0 5d	 add	 eax, 93			; 0000005dH
  00174	03 c1		 add	 eax, ecx
  00176	50		 push	 eax
  00177	68 00 00 00 00	 push	 OFFSET ??_C@_0CB@HGMGGPGK@?$FL?$CFs?$FN?5Friend?5List?5Count?5?$CI?$CFd?$CJ?5Send@
  0017c	ff 15 00 00 00
	00		 call	 DWORD PTR ?LogAdd@@3P6AXPADZZA ; LogAdd

; 2279 : 		gObj[lpCount->Number].Name, pCount.Count);
; 2280 : }

  00182	8b 4d fc	 mov	 ecx, DWORD PTR __$ArrayPad$[ebp]
  00185	83 c4 18	 add	 esp, 24			; 00000018H
  00188	33 cd		 xor	 ecx, ebp
  0018a	5f		 pop	 edi
  0018b	5b		 pop	 ebx
  0018c	e8 00 00 00 00	 call	 @__security_check_cookie@4
  00191	8b e5		 mov	 esp, ebp
  00193	5d		 pop	 ebp
  00194	c3		 ret	 0
?FriendListResult@@YAXPAE@Z ENDP			; FriendListResult
_TEXT	ENDS
; Function compile flags: /Ogtp
; File c:\users\michel\desktop\source\gameserver\source\edsprotocol.cpp
; File c:\users\michel\desktop\source\gameserver\include\prodef.h
; File c:\users\michel\desktop\source\gameserver\source\edsprotocol.cpp
;	COMDAT ?FriendListRequest@@YAXH@Z
_TEXT	SEGMENT
_pMsg$ = -24						; size = 18
__$ArrayPad$ = -4					; size = 4
_aIndex$ = 8						; size = 4
?FriendListRequest@@YAXH@Z PROC				; FriendListRequest, COMDAT

; 2174 : {

  00000	55		 push	 ebp
  00001	8b ec		 mov	 ebp, esp
  00003	83 ec 18	 sub	 esp, 24			; 00000018H
  00006	a1 00 00 00 00	 mov	 eax, DWORD PTR ___security_cookie
  0000b	33 c5		 xor	 eax, ebp
  0000d	89 45 fc	 mov	 DWORD PTR __$ArrayPad$[ebp], eax
  00010	56		 push	 esi
  00011	8b 75 08	 mov	 esi, DWORD PTR _aIndex$[ebp]

; 2175 : 	if ( gObjIsConnectedGP(aIndex) == FALSE )

  00014	56		 push	 esi
  00015	e8 00 00 00 00	 call	 ?gObjIsConnectedGP@@YAHH@Z ; gObjIsConnectedGP
  0001a	83 c4 04	 add	 esp, 4
  0001d	85 c0		 test	 eax, eax
  0001f	75 27		 jne	 SHORT $LN2@FriendList

; 2176 : 	{
; 2177 : 		LogAddTD("error-L2 : Index %s %d", __FILE__, __LINE__);

  00021	68 81 08 00 00	 push	 2177			; 00000881H
  00026	68 00 00 00 00	 push	 OFFSET ??_C@_0BA@FCCBMCDG@EDSProtocol?4cpp?$AA@
  0002b	68 00 00 00 00	 push	 OFFSET ??_C@_0BH@LCDOHCGD@error?9L2?5?3?5Index?5?$CFs?5?$CFd?$AA@
  00030	ff 15 00 00 00
	00		 call	 DWORD PTR ?LogAddTD@@3P6AXPADZZA ; LogAddTD
  00036	83 c4 0c	 add	 esp, 12			; 0000000cH
  00039	5e		 pop	 esi

; 2205 : 
; 2206 : }

  0003a	8b 4d fc	 mov	 ecx, DWORD PTR __$ArrayPad$[ebp]
  0003d	33 cd		 xor	 ecx, ebp
  0003f	e8 00 00 00 00	 call	 @__security_check_cookie@4
  00044	8b e5		 mov	 esp, ebp
  00046	5d		 pop	 ebp
  00047	c3		 ret	 0
$LN2@FriendList:

; 2178 : 		return;
; 2179 : 	}
; 2180 : 
; 2181 : 	if (gObj[aIndex].m_FriendServerOnline == 2 )

  00048	a1 00 00 00 00	 mov	 eax, DWORD PTR ?gObj@@3PAUOBJECTSTRUCT@@A ; gObj
  0004d	57		 push	 edi
  0004e	69 fe 40 27 00
	00		 imul	 edi, esi, 10048
  00054	8d 0c 07	 lea	 ecx, DWORD PTR [edi+eax]
  00057	8a 81 60 05 00
	00		 mov	 al, BYTE PTR [ecx+1376]
  0005d	3c 02		 cmp	 al, 2
  0005f	75 26		 jne	 SHORT $LN3@FriendList

; 2182 : 	{
; 2183 : 		LogAddTD("error-L3 : [%s][%s] FriendServer Online Request ", gObj[aIndex].AccountID, gObj[aIndex].Name);

  00061	8d 41 5d	 lea	 eax, DWORD PTR [ecx+93]
  00064	50		 push	 eax
  00065	8d 41 52	 lea	 eax, DWORD PTR [ecx+82]
  00068	50		 push	 eax
  00069	68 00 00 00 00	 push	 OFFSET ??_C@_0DB@ELGELCGP@error?9L3?5?3?5?$FL?$CFs?$FN?$FL?$CFs?$FN?5FriendServer@
  0006e	ff 15 00 00 00
	00		 call	 DWORD PTR ?LogAddTD@@3P6AXPADZZA ; LogAddTD
  00074	83 c4 0c	 add	 esp, 12			; 0000000cH
  00077	5f		 pop	 edi
  00078	5e		 pop	 esi

; 2205 : 
; 2206 : }

  00079	8b 4d fc	 mov	 ecx, DWORD PTR __$ArrayPad$[ebp]
  0007c	33 cd		 xor	 ecx, ebp
  0007e	e8 00 00 00 00	 call	 @__security_check_cookie@4
  00083	8b e5		 mov	 esp, ebp
  00085	5d		 pop	 ebp
  00086	c3		 ret	 0
$LN3@FriendList:

; 2184 : 		return;
; 2185 : 	}
; 2186 : 
; 2187 : 	if (gObj[aIndex].m_FriendServerOnline == FRIEND_SERVER_STATE_OFFLINE )

  00087	3c 01		 cmp	 al, 1
  00089	75 26		 jne	 SHORT $LN4@FriendList

; 2188 : 	{
; 2189 : 		LogAddTD("error-L3 : [%s][%s] FriendServer Offline", gObj[aIndex].AccountID, gObj[aIndex].Name);

  0008b	8d 41 5d	 lea	 eax, DWORD PTR [ecx+93]
  0008e	50		 push	 eax
  0008f	8d 41 52	 lea	 eax, DWORD PTR [ecx+82]
  00092	50		 push	 eax
  00093	68 00 00 00 00	 push	 OFFSET ??_C@_0CJ@EJJNCKNG@error?9L3?5?3?5?$FL?$CFs?$FN?$FL?$CFs?$FN?5FriendServer@
  00098	ff 15 00 00 00
	00		 call	 DWORD PTR ?LogAddTD@@3P6AXPADZZA ; LogAddTD
  0009e	83 c4 0c	 add	 esp, 12			; 0000000cH
  000a1	5f		 pop	 edi
  000a2	5e		 pop	 esi

; 2205 : 
; 2206 : }

  000a3	8b 4d fc	 mov	 ecx, DWORD PTR __$ArrayPad$[ebp]
  000a6	33 cd		 xor	 ecx, ebp
  000a8	e8 00 00 00 00	 call	 @__security_check_cookie@4
  000ad	8b e5		 mov	 esp, ebp
  000af	5d		 pop	 ebp
  000b0	c3		 ret	 0
$LN4@FriendList:
; File c:\users\michel\desktop\source\gameserver\include\prodef.h

; 86   : 		lpBuf[0] = 0xC1;

  000b1	66 c7 45 e8 c1
	12		 mov	 WORD PTR _pMsg$[ebp], 4801 ; 000012c1H

; 87   : 		lpBuf[1] = size;
; 88   : 		lpBuf[2] = head;

  000b7	c6 45 ea 60	 mov	 BYTE PTR _pMsg$[ebp+2], 96 ; 00000060H
; File c:\users\michel\desktop\source\gameserver\source\edsprotocol.cpp

; 2196 : 	memcpy(pMsg.Name, gObj[aIndex].Name, sizeof(pMsg.Name));

  000bb	f3 0f 7e 41 5d	 movq	 xmm0, QWORD PTR [ecx+93]
  000c0	66 0f d6 45 ee	 movq	 QWORD PTR _pMsg$[ebp+6], xmm0
  000c5	66 8b 41 65	 mov	 ax, WORD PTR [ecx+101]

; 2197 : 	pMsg.Number = aIndex;
; 2198 : 	pMsg.pServer = (BYTE)gGameServerCode;
; 2199 : 	
; 2200 : 	wsExDbCli.DataSend((char*)&pMsg, pMsg.h.size);

  000c9	b9 00 00 00 00	 mov	 ecx, OFFSET ?wsExDbCli@@3VwsJoinServerCli@@A ; wsExDbCli
  000ce	66 89 45 f6	 mov	 WORD PTR _pMsg$[ebp+14], ax
  000d2	a0 00 00 00 00	 mov	 al, BYTE PTR ?gGameServerCode@@3FA
  000d7	88 45 f8	 mov	 BYTE PTR _pMsg$[ebp+16], al
  000da	8d 45 e8	 lea	 eax, DWORD PTR _pMsg$[ebp]
  000dd	6a 12		 push	 18			; 00000012H
  000df	50		 push	 eax
  000e0	66 89 75 ec	 mov	 WORD PTR _pMsg$[ebp+4], si
  000e4	e8 00 00 00 00	 call	 ?DataSend@wsJoinServerCli@@QAEHPADH@Z ; wsJoinServerCli::DataSend

; 2201 : 
; 2202 : 	LogAdd("[%s] Friend List Request", gObj[aIndex].Name);

  000e9	a1 00 00 00 00	 mov	 eax, DWORD PTR ?gObj@@3PAUOBJECTSTRUCT@@A ; gObj
  000ee	83 c0 5d	 add	 eax, 93			; 0000005dH
  000f1	03 c7		 add	 eax, edi
  000f3	50		 push	 eax
  000f4	68 00 00 00 00	 push	 OFFSET ??_C@_0BJ@BDFPCOJL@?$FL?$CFs?$FN?5Friend?5List?5Request?$AA@
  000f9	ff 15 00 00 00
	00		 call	 DWORD PTR ?LogAdd@@3P6AXPADZZA ; LogAdd

; 2203 : 
; 2204 : 	gObj[aIndex].m_FriendServerOnline = 2;

  000ff	a1 00 00 00 00	 mov	 eax, DWORD PTR ?gObj@@3PAUOBJECTSTRUCT@@A ; gObj
  00104	83 c4 08	 add	 esp, 8

; 2205 : 
; 2206 : }

  00107	8b 4d fc	 mov	 ecx, DWORD PTR __$ArrayPad$[ebp]
  0010a	33 cd		 xor	 ecx, ebp
  0010c	c6 84 07 60 05
	00 00 02	 mov	 BYTE PTR [edi+eax+1376], 2
  00114	5f		 pop	 edi
  00115	5e		 pop	 esi
  00116	e8 00 00 00 00	 call	 @__security_check_cookie@4
  0011b	8b e5		 mov	 esp, ebp
  0011d	5d		 pop	 ebp
  0011e	c3		 ret	 0
?FriendListRequest@@YAXH@Z ENDP				; FriendListRequest
_TEXT	ENDS
; Function compile flags: /Ogtp
; File c:\users\michel\desktop\source\gameserver\source\edsprotocol.cpp
; File c:\users\michel\desktop\source\gameserver\include\prodef.h
; File c:\users\michel\desktop\source\gameserver\source\edsprotocol.cpp
; File c:\users\michel\desktop\source\gameserver\source\guildclass.h
; File c:\users\michel\desktop\source\gameserver\source\edsprotocol.cpp
;	COMDAT ?DGRelationShipAnsKickOutUnionMember@@YAXPAUEXSDHP_KICKOUT_UNIONMEMBER_RESULT@@@Z
_TEXT	SEGMENT
_lpUnionMemberGuild$1$ = -300				; size = 4
tv401 = -296						; size = 4
tv400 = -292						; size = 4
tv395 = -288						; size = 4
_lpUnionMasterGuild$1$ = -288				; size = 4
_pMsg$1 = -284						; size = 7
__Notice$2 = -276					; size = 272
__Notice$3 = -276					; size = 272
__$ArrayPad$ = -4					; size = 4
_lpMsg$ = 8						; size = 4
?DGRelationShipAnsKickOutUnionMember@@YAXPAUEXSDHP_KICKOUT_UNIONMEMBER_RESULT@@@Z PROC ; DGRelationShipAnsKickOutUnionMember, COMDAT

; 2086 : {

  00000	55		 push	 ebp
  00001	8b ec		 mov	 ebp, esp
  00003	81 ec 2c 01 00
	00		 sub	 esp, 300		; 0000012cH
  00009	a1 00 00 00 00	 mov	 eax, DWORD PTR ___security_cookie
  0000e	33 c5		 xor	 eax, ebp
  00010	89 45 fc	 mov	 DWORD PTR __$ArrayPad$[ebp], eax
  00013	53		 push	 ebx
  00014	56		 push	 esi
  00015	8b 75 08	 mov	 esi, DWORD PTR _lpMsg$[ebp]

; 2087 : 
; 2088 : 	_GUILD_INFO_STRUCT * lpUnionMasterGuild = Guild.SearchGuild(lpMsg->szUnionMasterGuildName);

  00018	b9 00 00 00 00	 mov	 ecx, OFFSET ?Guild@@3VCGuildClass@@A ; Guild
  0001d	57		 push	 edi
  0001e	8d 46 0a	 lea	 eax, DWORD PTR [esi+10]
  00021	50		 push	 eax
  00022	89 85 d8 fe ff
	ff		 mov	 DWORD PTR tv401[ebp], eax
  00028	e8 00 00 00 00	 call	 ?SearchGuild@CGuildClass@@QAEPAU_GUILD_INFO_STRUCT@@PAD@Z ; CGuildClass::SearchGuild
  0002d	8b f8		 mov	 edi, eax

; 2089 : 	_GUILD_INFO_STRUCT * lpUnionMemberGuild = Guild.SearchGuild(lpMsg->szUnionMemberGuildName);

  0002f	b9 00 00 00 00	 mov	 ecx, OFFSET ?Guild@@3VCGuildClass@@A ; Guild
  00034	8d 46 13	 lea	 eax, DWORD PTR [esi+19]
  00037	89 bd e0 fe ff
	ff		 mov	 DWORD PTR _lpUnionMasterGuild$1$[ebp], edi
  0003d	50		 push	 eax
  0003e	89 85 dc fe ff
	ff		 mov	 DWORD PTR tv400[ebp], eax
  00044	e8 00 00 00 00	 call	 ?SearchGuild@CGuildClass@@QAEPAU_GUILD_INFO_STRUCT@@PAD@Z ; CGuildClass::SearchGuild
  00049	8b d8		 mov	 ebx, eax

; 2090 : 
; 2091 : 	if ( lpMsg->btFlag == 1 )

  0004b	8a 46 04	 mov	 al, BYTE PTR [esi+4]
  0004e	89 9d d4 fe ff
	ff		 mov	 DWORD PTR _lpUnionMemberGuild$1$[ebp], ebx
  00054	3c 01		 cmp	 al, 1
  00056	75 63		 jne	 SHORT $LN8@DGRelation

; 2092 : 	{
; 2093 : 		if ( !lpUnionMasterGuild )

  00058	85 ff		 test	 edi, edi
  0005a	75 04		 jne	 SHORT $LN10@DGRelation

; 2094 : 		{
; 2095 : 			lpMsg->btResult = 0;

  0005c	c6 46 09 00	 mov	 BYTE PTR [esi+9], 0
$LN10@DGRelation:

; 2096 : 		}
; 2097 : 
; 2098 : 		PMSG_KICKOUT_UNIONMEMBER_RESULT pMsg ={0};

  00060	33 c0		 xor	 eax, eax

; 2099 : 
; 2100 : 		pMsg.h.set((LPBYTE)&pMsg, 0xEB, 0x01, sizeof(pMsg));
; 2101 : 		pMsg.btResult = lpMsg->btResult;
; 2102 : 		pMsg.btRequestType = 2;

  00062	66 c7 85 e9 fe
	ff ff 02 01	 mov	 WORD PTR _pMsg$1[ebp+5], 258 ; 00000102H
  0006b	89 85 e5 fe ff
	ff		 mov	 DWORD PTR _pMsg$1[ebp+1], eax
  00071	0f b6 46 09	 movzx	 eax, BYTE PTR [esi+9]
  00075	88 85 e8 fe ff
	ff		 mov	 BYTE PTR _pMsg$1[ebp+4], al

; 2105 : 		DataSend(lpMsg->wRequestUserIndex, (LPBYTE)&pMsg, sizeof(pMsg));

  0007b	8d 85 e4 fe ff
	ff		 lea	 eax, DWORD PTR _pMsg$1[ebp]
  00081	6a 07		 push	 7
  00083	50		 push	 eax
  00084	0f b7 46 06	 movzx	 eax, WORD PTR [esi+6]
  00088	50		 push	 eax
; File c:\users\michel\desktop\source\gameserver\include\prodef.h

; 140  : 		lpBuf[0] = 0xC1;

  00089	c7 85 e4 fe ff
	ff c1 07 eb 01	 mov	 DWORD PTR _pMsg$1[ebp], 32180161 ; 01eb07c1H
; File c:\users\michel\desktop\source\gameserver\source\edsprotocol.cpp

; 2105 : 		DataSend(lpMsg->wRequestUserIndex, (LPBYTE)&pMsg, sizeof(pMsg));

  00093	e8 00 00 00 00	 call	 ?DataSend@@YAHHPAEK@Z	; DataSend

; 2106 : 
; 2107 : 		if ( lpMsg->btResult == 0 || lpMsg->btResult == 0x10 )

  00098	8a 46 09	 mov	 al, BYTE PTR [esi+9]
  0009b	83 c4 0c	 add	 esp, 12			; 0000000cH
  0009e	84 c0		 test	 al, al
  000a0	0f 84 33 01 00
	00		 je	 $LN6@DGRelation
  000a6	3c 10		 cmp	 al, 16			; 00000010H
  000a8	75 30		 jne	 SHORT $LN15@DGRelation
  000aa	5f		 pop	 edi
  000ab	5e		 pop	 esi
  000ac	5b		 pop	 ebx

; 2151 : 			}
; 2152 : 		}
; 2153 : 	}
; 2154 : 
; 2155 : }

  000ad	8b 4d fc	 mov	 ecx, DWORD PTR __$ArrayPad$[ebp]
  000b0	33 cd		 xor	 ecx, ebp
  000b2	e8 00 00 00 00	 call	 @__security_check_cookie@4
  000b7	8b e5		 mov	 esp, ebp
  000b9	5d		 pop	 ebp
  000ba	c3		 ret	 0
$LN8@DGRelation:

; 2108 : 			return;
; 2109 : 	}
; 2110 : 	else if ( lpMsg->btFlag == 0 )

  000bb	84 c0		 test	 al, al
  000bd	75 1b		 jne	 SHORT $LN15@DGRelation

; 2111 : 	{
; 2112 : 		if ( !lpUnionMemberGuild )

  000bf	85 db		 test	 ebx, ebx
  000c1	0f 84 12 01 00
	00		 je	 $LN6@DGRelation

; 2113 : 			return;
; 2114 : 
; 2115 : 		if ( lpMsg->btResult == 0 || lpMsg->btResult == 0x10 )

  000c7	8a 46 09	 mov	 al, BYTE PTR [esi+9]
  000ca	84 c0		 test	 al, al
  000cc	0f 84 07 01 00
	00		 je	 $LN6@DGRelation
  000d2	3c 10		 cmp	 al, 16			; 00000010H
  000d4	0f 84 ff 00 00
	00		 je	 $LN6@DGRelation
$LN15@DGRelation:

; 2116 : 			return;
; 2117 : 	}		
; 2118 : 
; 2119 : 	if ( lpUnionMasterGuild )

  000da	85 ff		 test	 edi, edi
  000dc	74 7a		 je	 SHORT $LN3@DGRelation

; 2120 : 	{
; 2121 : 		for ( int n=0;n<MAX_USER_GUILD;n++)

  000de	8b 85 e0 fe ff
	ff		 mov	 eax, DWORD PTR _lpUnionMasterGuild$1$[ebp]
  000e4	33 f6		 xor	 esi, esi
  000e6	8b 9d d8 fe ff
	ff		 mov	 ebx, DWORD PTR tv401[ebp]
  000ec	81 c7 a0 03 00
	00		 add	 edi, 928		; 000003a0H
  000f2	05 40 04 00 00	 add	 eax, 1088		; 00000440H
  000f7	89 85 e0 fe ff
	ff		 mov	 DWORD PTR tv395[ebp], eax
  000fd	0f 1f 00	 npad	 3
$LL4@DGRelation:

; 2122 : 		{
; 2123 : 			if ( lpUnionMasterGuild->Use[n] > 0 )

  00100	80 3c 30 00	 cmp	 BYTE PTR [eax+esi], 0
  00104	76 43		 jbe	 SHORT $LN2@DGRelation

; 2124 : 			{
; 2125 : 				if ( lpUnionMasterGuild->Index[n] >= 0 )

  00106	66 83 3f 00	 cmp	 WORD PTR [edi], 0
  0010a	7c 3d		 jl	 SHORT $LN2@DGRelation

; 2126 : 				{
; 2127 : 					TNotice _Notice(1);

  0010c	6a 01		 push	 1
  0010e	8d 8d ec fe ff
	ff		 lea	 ecx, DWORD PTR __Notice$3[ebp]
  00114	e8 00 00 00 00	 call	 ??0TNotice@@QAE@E@Z	; TNotice::TNotice

; 2128 : 					_Notice.SendToUser(lpUnionMasterGuild->Index[n], lMsg.Get(MSGGET(6, 169)),

  00119	53		 push	 ebx
  0011a	ff b5 dc fe ff
	ff		 push	 DWORD PTR tv400[ebp]
  00120	b9 00 00 00 00	 mov	 ecx, OFFSET ?lMsg@@3VMessage@@A ; lMsg
  00125	68 a9 06 00 00	 push	 1705			; 000006a9H
  0012a	e8 00 00 00 00	 call	 ?Get@Message@@QAEPADH@Z	; Message::Get
  0012f	50		 push	 eax
  00130	0f bf 07	 movsx	 eax, WORD PTR [edi]
  00133	50		 push	 eax
  00134	8d 85 ec fe ff
	ff		 lea	 eax, DWORD PTR __Notice$3[ebp]
  0013a	50		 push	 eax
  0013b	e8 00 00 00 00	 call	 ?SendToUser@TNotice@@QAAXHPADZZ ; TNotice::SendToUser
  00140	8b 85 e0 fe ff
	ff		 mov	 eax, DWORD PTR tv395[ebp]
  00146	83 c4 14	 add	 esp, 20			; 00000014H
$LN2@DGRelation:

; 2120 : 	{
; 2121 : 		for ( int n=0;n<MAX_USER_GUILD;n++)

  00149	46		 inc	 esi
  0014a	83 c7 02	 add	 edi, 2
  0014d	83 fe 50	 cmp	 esi, 80			; 00000050H
  00150	7c ae		 jl	 SHORT $LL4@DGRelation
  00152	8b 9d d4 fe ff
	ff		 mov	 ebx, DWORD PTR _lpUnionMemberGuild$1$[ebp]
$LN3@DGRelation:

; 2129 : 						lpMsg->szUnionMemberGuildName, lpMsg->szUnionMasterGuildName);
; 2130 : 				}
; 2131 : 			}
; 2132 : 		}
; 2133 : 	}
; 2134 : 
; 2135 : 	LogAddTD("[GS][U.System][Union][KickOut] ( Union Master Guild: %s ), (Union Member Guild: %s)",

  00158	ff b5 dc fe ff
	ff		 push	 DWORD PTR tv400[ebp]
  0015e	ff b5 d8 fe ff
	ff		 push	 DWORD PTR tv401[ebp]
  00164	68 00 00 00 00	 push	 OFFSET ??_C@_0FE@MHBNIMHI@?$FLGS?$FN?$FLU?4System?$FN?$FLUnion?$FN?$FLKickOut?$FN?5?$CI@
  00169	ff 15 00 00 00
	00		 call	 DWORD PTR ?LogAddTD@@3P6AXPADZZA ; LogAddTD
  0016f	83 c4 0c	 add	 esp, 12			; 0000000cH

; 2136 : 		lpMsg->szUnionMasterGuildName, lpMsg->szUnionMemberGuildName);
; 2137 : 
; 2138 : 	if ( !lpUnionMemberGuild )

  00172	85 db		 test	 ebx, ebx
  00174	74 63		 je	 SHORT $LN6@DGRelation
; File c:\users\michel\desktop\source\gameserver\source\guildclass.h

; 150  : 		this->iTimeStamp++;

  00176	ff 83 4c 07 00
	00		 inc	 DWORD PTR [ebx+1868]

; 138  : 		this->iGuildUnion = iGuildNumber;

  0017c	8d bb a0 03 00
	00		 lea	 edi, DWORD PTR [ebx+928]
  00182	c7 83 44 07 00
	00 00 00 00 00	 mov	 DWORD PTR [ebx+1860], 0
; File c:\users\michel\desktop\source\gameserver\source\edsprotocol.cpp

; 2143 : 	for ( int n=0;n<MAX_USER_GUILD;n++)

  0018c	33 f6		 xor	 esi, esi
  0018e	66 90		 npad	 2
$LL7@DGRelation:

; 2144 : 	{
; 2145 : 		if ( lpUnionMemberGuild->Use[n] > 0 )

  00190	80 bc 33 40 04
	00 00 00	 cmp	 BYTE PTR [ebx+esi+1088], 0
  00198	76 36		 jbe	 SHORT $LN5@DGRelation

; 2146 : 		{
; 2147 : 			if ( lpUnionMemberGuild->Index[n] >= 0 )

  0019a	66 83 3f 00	 cmp	 WORD PTR [edi], 0
  0019e	7c 30		 jl	 SHORT $LN5@DGRelation

; 2148 : 			{
; 2149 : 				TNotice _Notice(1);

  001a0	6a 01		 push	 1
  001a2	8d 8d ec fe ff
	ff		 lea	 ecx, DWORD PTR __Notice$2[ebp]
  001a8	e8 00 00 00 00	 call	 ??0TNotice@@QAE@E@Z	; TNotice::TNotice

; 2150 : 				_Notice.SendToUser(lpUnionMemberGuild->Index[n], lMsg.Get(MSGGET(6, 168)));

  001ad	68 a8 06 00 00	 push	 1704			; 000006a8H
  001b2	b9 00 00 00 00	 mov	 ecx, OFFSET ?lMsg@@3VMessage@@A ; lMsg
  001b7	e8 00 00 00 00	 call	 ?Get@Message@@QAEPADH@Z	; Message::Get
  001bc	50		 push	 eax
  001bd	0f bf 07	 movsx	 eax, WORD PTR [edi]
  001c0	50		 push	 eax
  001c1	8d 85 ec fe ff
	ff		 lea	 eax, DWORD PTR __Notice$2[ebp]
  001c7	50		 push	 eax
  001c8	e8 00 00 00 00	 call	 ?SendToUser@TNotice@@QAAXHPADZZ ; TNotice::SendToUser
  001cd	83 c4 0c	 add	 esp, 12			; 0000000cH
$LN5@DGRelation:

; 2143 : 	for ( int n=0;n<MAX_USER_GUILD;n++)

  001d0	46		 inc	 esi
  001d1	83 c7 02	 add	 edi, 2
  001d4	83 fe 50	 cmp	 esi, 80			; 00000050H
  001d7	7c b7		 jl	 SHORT $LL7@DGRelation
$LN6@DGRelation:

; 2151 : 			}
; 2152 : 		}
; 2153 : 	}
; 2154 : 
; 2155 : }

  001d9	8b 4d fc	 mov	 ecx, DWORD PTR __$ArrayPad$[ebp]
  001dc	5f		 pop	 edi
  001dd	5e		 pop	 esi
  001de	33 cd		 xor	 ecx, ebp
  001e0	5b		 pop	 ebx
  001e1	e8 00 00 00 00	 call	 @__security_check_cookie@4
  001e6	8b e5		 mov	 esp, ebp
  001e8	5d		 pop	 ebp
  001e9	c3		 ret	 0
?DGRelationShipAnsKickOutUnionMember@@YAXPAUEXSDHP_KICKOUT_UNIONMEMBER_RESULT@@@Z ENDP ; DGRelationShipAnsKickOutUnionMember
_TEXT	ENDS
; Function compile flags: /Ogtp
; File c:\users\michel\desktop\source\gameserver\source\edsprotocol.cpp
; File c:\users\michel\desktop\source\gameserver\include\prodef.h
; File c:\users\michel\desktop\source\gameserver\source\edsprotocol.cpp
;	COMDAT ?GDRelationShipReqKickOutUnionMember@@YAXHPAD@Z
_TEXT	SEGMENT
_pMsg$ = -28						; size = 24
__$ArrayPad$ = -4					; size = 4
_aIndex$ = 8						; size = 4
_szTargetGuildName$ = 12				; size = 4
?GDRelationShipReqKickOutUnionMember@@YAXHPAD@Z PROC	; GDRelationShipReqKickOutUnionMember, COMDAT

; 2055 : {

  00000	55		 push	 ebp
  00001	8b ec		 mov	 ebp, esp
  00003	83 ec 1c	 sub	 esp, 28			; 0000001cH
  00006	a1 00 00 00 00	 mov	 eax, DWORD PTR ___security_cookie
  0000b	33 c5		 xor	 eax, ebp
  0000d	89 45 fc	 mov	 DWORD PTR __$ArrayPad$[ebp], eax
  00010	8b 55 08	 mov	 edx, DWORD PTR _aIndex$[ebp]

; 2056 : 	_GUILD_INFO_STRUCT * lpGuildInfo = gObj[aIndex].lpGuild;

  00013	a1 00 00 00 00	 mov	 eax, DWORD PTR ?gObj@@3PAUOBJECTSTRUCT@@A ; gObj
  00018	69 ca 40 27 00
	00		 imul	 ecx, edx, 10048
  0001e	56		 push	 esi
  0001f	8b 75 0c	 mov	 esi, DWORD PTR _szTargetGuildName$[ebp]
  00022	8b 8c 01 18 06
	00 00		 mov	 ecx, DWORD PTR [ecx+eax+1560]

; 2057 : 
; 2058 : 	if ( lpGuildInfo == NULL )

  00029	85 c9		 test	 ecx, ecx
  0002b	74 4e		 je	 SHORT $LN1@GDRelation

; 2059 : 	{
; 2060 : 		return;
; 2061 : 	}
; 2062 : 
; 2063 : 
; 2064 : 	EXSDHP_KICKOUT_UNIONMEMBER_REQ pMsg = {0};

  0002d	0f 57 c0	 xorps	 xmm0, xmm0
  00030	c7 45 f5 00 00
	00 00		 mov	 DWORD PTR _pMsg$[ebp+17], 0
  00037	0f 11 45 e5	 movups	 XMMWORD PTR _pMsg$[ebp+1], xmm0
  0003b	66 c7 45 f9 00
	00		 mov	 WORD PTR _pMsg$[ebp+21], 0
  00041	c6 45 fb 00	 mov	 BYTE PTR _pMsg$[ebp+23], 0
; File c:\users\michel\desktop\source\gameserver\include\prodef.h

; 140  : 		lpBuf[0] = 0xC1;

  00045	c7 45 e4 c1 18
	eb 01		 mov	 DWORD PTR _pMsg$[ebp], 32184513 ; 01eb18c1H
; File c:\users\michel\desktop\source\gameserver\source\edsprotocol.cpp

; 2066 : 	pMsg.wRequestUserIndex = aIndex;

  0004c	66 89 55 e8	 mov	 WORD PTR _pMsg$[ebp+4], dx

; 2067 : 	pMsg.btRelationShipType = GUILD_RELATION_UNION;

  00050	c6 45 ea 01	 mov	 BYTE PTR _pMsg$[ebp+6], 1

; 2068 : 	memcpy(pMsg.szUnionMasterGuildName, lpGuildInfo->Name, sizeof(pMsg.szUnionMasterGuildName));

  00054	8b 41 04	 mov	 eax, DWORD PTR [ecx+4]
  00057	89 45 eb	 mov	 DWORD PTR _pMsg$[ebp+7], eax
  0005a	8b 41 08	 mov	 eax, DWORD PTR [ecx+8]

; 2069 : 	memcpy(pMsg.szUnionMemberGuildName, szTargetGuildName, sizeof(pMsg.szUnionMemberGuildName));
; 2070 : 
; 2071 : 	wsExDbCli.DataSend((char*)&pMsg, pMsg.h.size);

  0005d	b9 00 00 00 00	 mov	 ecx, OFFSET ?wsExDbCli@@3VwsJoinServerCli@@A ; wsExDbCli
  00062	89 45 ef	 mov	 DWORD PTR _pMsg$[ebp+11], eax
  00065	8b 06		 mov	 eax, DWORD PTR [esi]
  00067	89 45 f3	 mov	 DWORD PTR _pMsg$[ebp+15], eax
  0006a	8b 46 04	 mov	 eax, DWORD PTR [esi+4]
  0006d	89 45 f7	 mov	 DWORD PTR _pMsg$[ebp+19], eax
  00070	8d 45 e4	 lea	 eax, DWORD PTR _pMsg$[ebp]
  00073	6a 18		 push	 24			; 00000018H
  00075	50		 push	 eax
  00076	e8 00 00 00 00	 call	 ?DataSend@wsJoinServerCli@@QAEHPADH@Z ; wsJoinServerCli::DataSend
$LN1@GDRelation:

; 2072 : }

  0007b	8b 4d fc	 mov	 ecx, DWORD PTR __$ArrayPad$[ebp]
  0007e	33 cd		 xor	 ecx, ebp
  00080	5e		 pop	 esi
  00081	e8 00 00 00 00	 call	 @__security_check_cookie@4
  00086	8b e5		 mov	 esp, ebp
  00088	5d		 pop	 ebp
  00089	c3		 ret	 0
?GDRelationShipReqKickOutUnionMember@@YAXHPAD@Z ENDP	; GDRelationShipReqKickOutUnionMember
_TEXT	ENDS
; Function compile flags: /Ogtp
; File c:\users\michel\desktop\source\gameserver\source\edsprotocol.cpp
;	COMDAT ?DGUnionListRecv@@YAXPAE@Z
_TEXT	SEGMENT
_aRecv$GSCopy$1$ = -6012				; size = 4
tv491 = -6008						; size = 4
_cBUFFER_V1$ = -6004					; size = 6000
__$ArrayPad$ = -4					; size = 4
_aRecv$ = 8						; size = 4
?DGUnionListRecv@@YAXPAE@Z PROC				; DGUnionListRecv, COMDAT

; 2004 : {

  00000	55		 push	 ebp
  00001	8b ec		 mov	 ebp, esp
  00003	b8 7c 17 00 00	 mov	 eax, 6012		; 0000177cH
  00008	e8 00 00 00 00	 call	 __chkstk
  0000d	a1 00 00 00 00	 mov	 eax, DWORD PTR ___security_cookie
  00012	33 c5		 xor	 eax, ebp
  00014	89 45 fc	 mov	 DWORD PTR __$ArrayPad$[ebp], eax
  00017	56		 push	 esi
  00018	8b 75 08	 mov	 esi, DWORD PTR _aRecv$[ebp]

; 2005 : 	EXSDHP_UNION_LIST_COUNT * lpRecvMsg = (EXSDHP_UNION_LIST_COUNT *)aRecv;
; 2006 : 	EXSDHP_UNION_LIST * lpRecvMsgBody = (EXSDHP_UNION_LIST *)((DWORD)aRecv + 0x10 ) ;	// #error it 0x10 ???
; 2007 : 	char cBUFFER_V1[6000];
; 2008 : 	memset(cBUFFER_V1, 0, sizeof(cBUFFER_V1));

  0001b	8d 85 8c e8 ff
	ff		 lea	 eax, DWORD PTR _cBUFFER_V1$[ebp]
  00021	68 70 17 00 00	 push	 6000			; 00001770H
  00026	6a 00		 push	 0
  00028	50		 push	 eax
  00029	89 b5 84 e8 ff
	ff		 mov	 DWORD PTR _aRecv$GSCopy$1$[ebp], esi
  0002f	e8 00 00 00 00	 call	 _memset

; 2009 : 	int iSize = MAKE_NUMBERW(lpRecvMsg->h.sizeH, lpRecvMsg->h.sizeL);

  00034	0f b6 46 01	 movzx	 eax, BYTE PTR [esi+1]
  00038	83 c4 0c	 add	 esp, 12			; 0000000cH
  0003b	66 c1 e0 08	 shl	 ax, 8

; 2010 : 	int iBodySize = iSize - 0x10;	// #error

  0003f	0f b7 c8	 movzx	 ecx, ax
  00042	0f b6 46 02	 movzx	 eax, BYTE PTR [esi+2]
  00046	0b c8		 or	 ecx, eax
  00048	83 e9 10	 sub	 ecx, 16			; 00000010H

; 2011 : 
; 2012 : 	if ( iBodySize < 0 )

  0004b	81 f9 20 4e 00
	00		 cmp	 ecx, 20000		; 00004e20H
  00051	0f 87 f5 00 00
	00		 ja	 $LN8@DGUnionLis

; 2013 : 		return;
; 2014 : 
; 2015 : 	//if ( iBodySize > MAX_BUFF_SIZE )
; 2016 : 	if ( iBodySize > MAX_BUFF_SIZE )
; 2017 : 		return;
; 2018 : 
; 2019 : 	if ( lpRecvMsg->btCount < 0 || lpRecvMsg->btCount > 100 )

  00057	8a 56 04	 mov	 dl, BYTE PTR [esi+4]
  0005a	80 fa 64	 cmp	 dl, 100			; 00000064H
  0005d	0f 87 e9 00 00
	00		 ja	 $LN8@DGUnionLis

; 2020 : 		return;
; 2021 : 
; 2022 : 	PMSG_UNIONLIST_COUNT * lpMsg = (PMSG_UNIONLIST_COUNT *)cBUFFER_V1;
; 2023 : 	PMSG_UNIONLIST * lpMsgBody = (PMSG_UNIONLIST *)((DWORD)cBUFFER_V1+sizeof(PMSG_UNIONLIST_COUNT));
; 2024 : 	lpMsg->btResult = lpRecvMsg->btResult;

  00063	0f b6 46 05	 movzx	 eax, BYTE PTR [esi+5]
  00067	88 85 91 e8 ff
	ff		 mov	 BYTE PTR _cBUFFER_V1$[ebp+5], al

; 2025 : 	lpMsg->btCount = lpRecvMsg->btCount;
; 2026 : 	lpMsg->btRivalMemberNum = lpRecvMsg->btRivalMemberNum;

  0006d	0f b6 46 0c	 movzx	 eax, BYTE PTR [esi+12]
  00071	53		 push	 ebx
  00072	88 85 92 e8 ff
	ff		 mov	 BYTE PTR _cBUFFER_V1$[ebp+6], al

; 2027 : 	lpMsg->btUnionMemberNum = lpRecvMsg->btUnionMemberNum;
; 2028 : 
; 2029 : 	for (int i=0;i<lpMsg->btCount;i++)

  00078	33 db		 xor	 ebx, ebx
  0007a	0f b6 46 0d	 movzx	 eax, BYTE PTR [esi+13]
  0007e	88 95 90 e8 ff
	ff		 mov	 BYTE PTR _cBUFFER_V1$[ebp+4], dl
  00084	88 85 93 e8 ff
	ff		 mov	 BYTE PTR _cBUFFER_V1$[ebp+7], al
  0008a	84 d2		 test	 dl, dl
  0008c	74 76		 je	 SHORT $LN3@DGUnionLis
  0008e	8d 46 10	 lea	 eax, DWORD PTR [esi+16]
  00091	57		 push	 edi
  00092	8d bd b4 e8 ff
	ff		 lea	 edi, DWORD PTR _cBUFFER_V1$[ebp+40]
  00098	8d b5 93 e8 ff
	ff		 lea	 esi, DWORD PTR _cBUFFER_V1$[ebp+7]
  0009e	2b f8		 sub	 edi, eax
  000a0	8d 95 94 e8 ff
	ff		 lea	 edx, DWORD PTR _cBUFFER_V1$[ebp+8]
  000a6	2b f0		 sub	 esi, eax
  000a8	2b d0		 sub	 edx, eax
  000aa	8d 48 01	 lea	 ecx, DWORD PTR [eax+1]
  000ad	89 95 88 e8 ff
	ff		 mov	 DWORD PTR tv491[ebp], edx
  000b3	eb 11		 jmp	 SHORT $LN4@DGUnionLis
  000b5	66 66 66 0f 1f
	84 00 00 00 00
	00		 npad	 11
$LL14@DGUnionLis:
  000c0	8b 95 88 e8 ff
	ff		 mov	 edx, DWORD PTR tv491[ebp]
$LN4@DGUnionLis:

; 2030 : 	{
; 2031 : 		lpMsgBody[i].btMemberNum = lpRecvMsgBody[i].btMemberNum;
; 2032 : 		memcpy(lpMsgBody[i].szGuildName, lpRecvMsgBody[i].szGuildName, sizeof(lpMsgBody->szGuildName));
; 2033 : 		memcpy(lpMsgBody[i].Mark, lpRecvMsgBody[i].Mark, sizeof(lpMsgBody->Mark));

  000c6	0f 10 01	 movups	 xmm0, XMMWORD PTR [ecx]
  000c9	8a 41 ff	 mov	 al, BYTE PTR [ecx-1]
  000cc	8d 49 29	 lea	 ecx, DWORD PTR [ecx+41]
  000cf	88 44 0e d7	 mov	 BYTE PTR [esi+ecx-41], al
  000d3	43		 inc	 ebx
  000d4	8b 41 f7	 mov	 eax, DWORD PTR [ecx-9]
  000d7	0f 11 44 0a d7	 movups	 XMMWORD PTR [edx+ecx-41], xmm0
  000dc	89 44 0f d7	 mov	 DWORD PTR [edi+ecx-41], eax
  000e0	0f 10 41 e7	 movups	 xmm0, XMMWORD PTR [ecx-25]
  000e4	8b 41 fb	 mov	 eax, DWORD PTR [ecx-5]
  000e7	89 44 0f db	 mov	 DWORD PTR [edi+ecx-37], eax
  000eb	0f 11 44 0a e7	 movups	 XMMWORD PTR [edx+ecx-25], xmm0
  000f0	8a 95 90 e8 ff
	ff		 mov	 dl, BYTE PTR _cBUFFER_V1$[ebp+4]
  000f6	0f b6 c2	 movzx	 eax, dl
  000f9	3b d8		 cmp	 ebx, eax
  000fb	7c c3		 jl	 SHORT $LL14@DGUnionLis
  000fd	8b b5 84 e8 ff
	ff		 mov	 esi, DWORD PTR _aRecv$GSCopy$1$[ebp]
  00103	5f		 pop	 edi
$LN3@DGUnionLis:

; 2034 : 	}
; 2035 : 
; 2036 : 	PHeadSetW((LPBYTE)lpMsg, 0xE9, lpMsg->btCount * sizeof(PMSG_UNIONLIST) + 0x10);	// #warning Check plus operation ( why 0x10 ??? )

  00104	0f b6 c2	 movzx	 eax, dl
  00107	6b c0 29	 imul	 eax, eax, 41
  0010a	83 c0 10	 add	 eax, 16			; 00000010H
  0010d	50		 push	 eax
  0010e	8d 85 8c e8 ff
	ff		 lea	 eax, DWORD PTR _cBUFFER_V1$[ebp]
  00114	68 e9 00 00 00	 push	 233			; 000000e9H
  00119	50		 push	 eax
  0011a	e8 00 00 00 00	 call	 ?PHeadSetW@@YAXPAEEH@Z	; PHeadSetW

; 2037 : 	DataSend(lpRecvMsg->wRequestUserIndex, (LPBYTE)lpMsg, MAKE_NUMBERW(lpMsg->h.sizeH, lpMsg->h.sizeL));

  0011f	0f b6 85 8d e8
	ff ff		 movzx	 eax, BYTE PTR _cBUFFER_V1$[ebp+1]
  00126	66 c1 e0 08	 shl	 ax, 8
  0012a	0f b7 c8	 movzx	 ecx, ax
  0012d	0f b6 85 8e e8
	ff ff		 movzx	 eax, BYTE PTR _cBUFFER_V1$[ebp+2]
  00134	0b c8		 or	 ecx, eax
  00136	8d 85 8c e8 ff
	ff		 lea	 eax, DWORD PTR _cBUFFER_V1$[ebp]
  0013c	51		 push	 ecx
  0013d	50		 push	 eax
  0013e	0f b7 46 06	 movzx	 eax, WORD PTR [esi+6]
  00142	50		 push	 eax
  00143	e8 00 00 00 00	 call	 ?DataSend@@YAHHPAEK@Z	; DataSend
  00148	83 c4 18	 add	 esp, 24			; 00000018H
  0014b	5b		 pop	 ebx
$LN8@DGUnionLis:

; 2038 : }

  0014c	8b 4d fc	 mov	 ecx, DWORD PTR __$ArrayPad$[ebp]
  0014f	33 cd		 xor	 ecx, ebp
  00151	5e		 pop	 esi
  00152	e8 00 00 00 00	 call	 @__security_check_cookie@4
  00157	8b e5		 mov	 esp, ebp
  00159	5d		 pop	 ebp
  0015a	c3		 ret	 0
?DGUnionListRecv@@YAXPAE@Z ENDP				; DGUnionListRecv
_TEXT	ENDS
; Function compile flags: /Ogtp
; File c:\users\michel\desktop\source\gameserver\source\edsprotocol.cpp
; File c:\users\michel\desktop\source\gameserver\include\prodef.h
; File c:\users\michel\desktop\source\gameserver\source\edsprotocol.cpp
;	COMDAT ?GDUnionListSend@@YAXHH@Z
_TEXT	SEGMENT
_pMsg$ = -16						; size = 12
__$ArrayPad$ = -4					; size = 4
_iUserIndex$ = 8					; size = 4
_iUnionMasterGuildNumber$ = 12				; size = 4
?GDUnionListSend@@YAXHH@Z PROC				; GDUnionListSend, COMDAT

; 1952 : {

  00000	55		 push	 ebp
  00001	8b ec		 mov	 ebp, esp
  00003	83 ec 10	 sub	 esp, 16			; 00000010H
  00006	a1 00 00 00 00	 mov	 eax, DWORD PTR ___security_cookie
  0000b	33 c5		 xor	 eax, ebp
  0000d	89 45 fc	 mov	 DWORD PTR __$ArrayPad$[ebp], eax

; 1953 : 	EXSDHP_UNION_LIST_REQ pMsg = {0};
; 1954 : 
; 1955 : 	pMsg.h.set((LPBYTE)&pMsg, 0xE9, sizeof(EXSDHP_UNION_LIST_REQ));
; 1956 : 	pMsg.wRequestUserIndex = iUserIndex;

  00010	66 8b 45 08	 mov	 ax, WORD PTR _iUserIndex$[ebp]
  00014	0f 57 c0	 xorps	 xmm0, xmm0
  00017	66 0f d6 45 f1	 movq	 QWORD PTR _pMsg$[ebp+1], xmm0

; 1959 : 	wsExDbCli.DataSend((char*)&pMsg, pMsg.h.size);

  0001c	b9 00 00 00 00	 mov	 ecx, OFFSET ?wsExDbCli@@3VwsJoinServerCli@@A ; wsExDbCli
  00021	66 89 45 f4	 mov	 WORD PTR _pMsg$[ebp+4], ax
  00025	8b 45 0c	 mov	 eax, DWORD PTR _iUnionMasterGuildNumber$[ebp]
  00028	66 c7 45 f9 00
	00		 mov	 WORD PTR _pMsg$[ebp+9], 0
  0002e	c6 45 fb 00	 mov	 BYTE PTR _pMsg$[ebp+11], 0
  00032	89 45 f8	 mov	 DWORD PTR _pMsg$[ebp+8], eax
  00035	8d 45 f0	 lea	 eax, DWORD PTR _pMsg$[ebp]
  00038	6a 0c		 push	 12			; 0000000cH
  0003a	50		 push	 eax
; File c:\users\michel\desktop\source\gameserver\include\prodef.h

; 86   : 		lpBuf[0] = 0xC1;

  0003b	66 c7 45 f0 c1
	0c		 mov	 WORD PTR _pMsg$[ebp], 3265 ; 00000cc1H

; 87   : 		lpBuf[1] = size;
; 88   : 		lpBuf[2] = head;

  00041	c6 45 f2 e9	 mov	 BYTE PTR _pMsg$[ebp+2], 233 ; 000000e9H
; File c:\users\michel\desktop\source\gameserver\source\edsprotocol.cpp

; 1959 : 	wsExDbCli.DataSend((char*)&pMsg, pMsg.h.size);

  00045	e8 00 00 00 00	 call	 ?DataSend@wsJoinServerCli@@QAEHPADH@Z ; wsJoinServerCli::DataSend

; 1960 : }

  0004a	8b 4d fc	 mov	 ecx, DWORD PTR __$ArrayPad$[ebp]
  0004d	33 cd		 xor	 ecx, ebp
  0004f	e8 00 00 00 00	 call	 @__security_check_cookie@4
  00054	8b e5		 mov	 esp, ebp
  00056	5d		 pop	 ebp
  00057	c3		 ret	 0
?GDUnionListSend@@YAXHH@Z ENDP				; GDUnionListSend
_TEXT	ENDS
; Function compile flags: /Ogtp
; File c:\users\michel\desktop\source\gameserver\source\edsprotocol.cpp
;	COMDAT ?DGRelationShipListRecv@@YAXPAUEXSDHP_UNION_RELATIONSHIP_LIST@@@Z
_TEXT	SEGMENT
_lpMsg$ = 8						; size = 4
?DGRelationShipListRecv@@YAXPAUEXSDHP_UNION_RELATIONSHIP_LIST@@@Z PROC ; DGRelationShipListRecv, COMDAT

; 1928 : {

  00000	55		 push	 ebp
  00001	8b ec		 mov	 ebp, esp
  00003	56		 push	 esi

; 1929 : 	if ( lpMsg->btRelationShipType == G_RELATIONSHIP_UNION )

  00004	8b 75 08	 mov	 esi, DWORD PTR _lpMsg$[ebp]
  00007	8a 46 05	 mov	 al, BYTE PTR [esi+5]
  0000a	3c 01		 cmp	 al, 1
  0000c	75 2a		 jne	 SHORT $LN2@DGRelation

; 1930 : 	{
; 1931 : 		UnionManager.AddUnion(lpMsg->iUnionMasterGuildNumber, lpMsg->szUnionMasterGuildName);

  0000e	8d 46 07	 lea	 eax, DWORD PTR [esi+7]
  00011	b9 00 00 00 00	 mov	 ecx, OFFSET ?UnionManager@@3VTUnion@@A ; UnionManager
  00016	50		 push	 eax
  00017	ff 76 10	 push	 DWORD PTR [esi+16]
  0001a	e8 00 00 00 00	 call	 ?AddUnion@TUnion@@QAEHHPAD@Z ; TUnion::AddUnion

; 1932 : 		UnionManager.SetGuildUnionMemberList(lpMsg->iUnionMasterGuildNumber, lpMsg->btRelationShipMemberCount, lpMsg->iRelationShipMember);

  0001f	8d 46 14	 lea	 eax, DWORD PTR [esi+20]
  00022	b9 00 00 00 00	 mov	 ecx, OFFSET ?UnionManager@@3VTUnion@@A ; UnionManager
  00027	50		 push	 eax
  00028	0f b6 46 06	 movzx	 eax, BYTE PTR [esi+6]
  0002c	50		 push	 eax
  0002d	ff 76 10	 push	 DWORD PTR [esi+16]
  00030	e8 00 00 00 00	 call	 ?SetGuildUnionMemberList@TUnion@@QAEHHHPBH@Z ; TUnion::SetGuildUnionMemberList
  00035	5e		 pop	 esi

; 1938 : 	}
; 1939 : }

  00036	5d		 pop	 ebp
  00037	c3		 ret	 0
$LN2@DGRelation:

; 1933 : 	}
; 1934 : 	else if ( lpMsg->btRelationShipType == G_RELATIONSHIP_RIVAL )

  00038	3c 02		 cmp	 al, 2
  0003a	75 27		 jne	 SHORT $LN4@DGRelation

; 1935 : 	{
; 1936 : 		UnionManager.AddUnion(lpMsg->iUnionMasterGuildNumber, lpMsg->szUnionMasterGuildName);

  0003c	8d 46 07	 lea	 eax, DWORD PTR [esi+7]
  0003f	b9 00 00 00 00	 mov	 ecx, OFFSET ?UnionManager@@3VTUnion@@A ; UnionManager
  00044	50		 push	 eax
  00045	ff 76 10	 push	 DWORD PTR [esi+16]
  00048	e8 00 00 00 00	 call	 ?AddUnion@TUnion@@QAEHHPAD@Z ; TUnion::AddUnion

; 1937 : 		UnionManager.SetGuildRivalMemberList(lpMsg->iUnionMasterGuildNumber, lpMsg->btRelationShipMemberCount, lpMsg->iRelationShipMember);

  0004d	8d 46 14	 lea	 eax, DWORD PTR [esi+20]
  00050	b9 00 00 00 00	 mov	 ecx, OFFSET ?UnionManager@@3VTUnion@@A ; UnionManager
  00055	50		 push	 eax
  00056	0f b6 46 06	 movzx	 eax, BYTE PTR [esi+6]
  0005a	50		 push	 eax
  0005b	ff 76 10	 push	 DWORD PTR [esi+16]
  0005e	e8 00 00 00 00	 call	 ?SetGuildRivalMemberList@TUnion@@QAEHHHPBH@Z ; TUnion::SetGuildRivalMemberList
$LN4@DGRelation:
  00063	5e		 pop	 esi

; 1938 : 	}
; 1939 : }

  00064	5d		 pop	 ebp
  00065	c3		 ret	 0
?DGRelationShipListRecv@@YAXPAUEXSDHP_UNION_RELATIONSHIP_LIST@@@Z ENDP ; DGRelationShipListRecv
_TEXT	ENDS
; Function compile flags: /Ogtp
; File c:\users\michel\desktop\source\gameserver\source\edsprotocol.cpp
; File c:\users\michel\desktop\source\gameserver\source\guildclass.h
; File c:\users\michel\desktop\source\gameserver\source\edsprotocol.cpp
; File c:\users\michel\desktop\source\gameserver\source\guildclass.h
; File c:\users\michel\desktop\source\gameserver\source\edsprotocol.cpp
;	COMDAT ?DGRelationShipNotificationRecv@@YAXPAUEXSDHP_NOTIFICATION_RELATIONSHIP@@@Z
_TEXT	SEGMENT
_lpMsg$GSCopy$1$ = -288					; size = 4
tv323 = -284						; size = 4
tv322 = -280						; size = 4
_lpGuildInfo$1$ = -280					; size = 4
__Notice$1 = -276					; size = 272
__$ArrayPad$ = -4					; size = 4
_lpMsg$ = 8						; size = 4
?DGRelationShipNotificationRecv@@YAXPAUEXSDHP_NOTIFICATION_RELATIONSHIP@@@Z PROC ; DGRelationShipNotificationRecv, COMDAT

; 1885 : {

  00000	55		 push	 ebp
  00001	8b ec		 mov	 ebp, esp
  00003	81 ec 20 01 00
	00		 sub	 esp, 288		; 00000120H
  00009	a1 00 00 00 00	 mov	 eax, DWORD PTR ___security_cookie
  0000e	33 c5		 xor	 eax, ebp
  00010	89 45 fc	 mov	 DWORD PTR __$ArrayPad$[ebp], eax
  00013	53		 push	 ebx
  00014	8b 5d 08	 mov	 ebx, DWORD PTR _lpMsg$[ebp]
  00017	56		 push	 esi
  00018	57		 push	 edi
  00019	89 9d e0 fe ff
	ff		 mov	 DWORD PTR _lpMsg$GSCopy$1$[ebp], ebx

; 1886 : 	if ( lpMsg->btUpdateFlag == EX_RESULT_FAIL_FOR_CASTLE )

  0001f	80 7b 05 10	 cmp	 BYTE PTR [ebx+5], 16	; 00000010H
  00023	0f 85 b9 00 00
	00		 jne	 $LN3@DGRelation

; 1887 : 	{
; 1888 : 		_GUILD_INFO_STRUCT * lpGuildInfo = Guild.SearchGuild_Number(lpMsg->iGuildList[0]);

  00029	ff 73 08	 push	 DWORD PTR [ebx+8]
  0002c	b9 00 00 00 00	 mov	 ecx, OFFSET ?Guild@@3VCGuildClass@@A ; Guild
  00031	e8 00 00 00 00	 call	 ?SearchGuild_Number@CGuildClass@@QAEPAU_GUILD_INFO_STRUCT@@H@Z ; CGuildClass::SearchGuild_Number
  00036	8b f8		 mov	 edi, eax
  00038	89 bd e8 fe ff
	ff		 mov	 DWORD PTR _lpGuildInfo$1$[ebp], edi

; 1889 : 
; 1890 : 		if ( lpGuildInfo )

  0003e	85 ff		 test	 edi, edi
  00040	0f 84 9c 00 00
	00		 je	 $LN3@DGRelation
; File c:\users\michel\desktop\source\gameserver\source\guildclass.h

; 150  : 		this->iTimeStamp++;

  00046	ff 87 4c 07 00
	00		 inc	 DWORD PTR [edi+1868]
; File c:\users\michel\desktop\source\gameserver\source\edsprotocol.cpp

; 1895 : 			LogAddTD("[U.System][Union][Auto BreakOff] ( Union Master Guild: %s ), (Union Member Guild: %s)",

  0004c	8d 47 04	 lea	 eax, DWORD PTR [edi+4]
  0004f	50		 push	 eax
  00050	50		 push	 eax
  00051	68 00 00 00 00	 push	 OFFSET ??_C@_0FG@CCGCMLDE@?$FLU?4System?$FN?$FLUnion?$FN?$FLAuto?5BreakOff?$FN@
  00056	c7 87 44 07 00
	00 00 00 00 00	 mov	 DWORD PTR [edi+1860], 0
  00060	89 85 e4 fe ff
	ff		 mov	 DWORD PTR tv323[ebp], eax
  00066	ff 15 00 00 00
	00		 call	 DWORD PTR ?LogAddTD@@3P6AXPADZZA ; LogAddTD

; 1896 : 				lpGuildInfo->Name, lpGuildInfo->Name);
; 1897 : 
; 1898 : 			for ( int n=0;n<MAX_USER_GUILD;n++)

  0006c	8b 85 e8 fe ff
	ff		 mov	 eax, DWORD PTR _lpGuildInfo$1$[ebp]
  00072	83 c4 0c	 add	 esp, 12			; 0000000cH
  00075	8b 9d e4 fe ff
	ff		 mov	 ebx, DWORD PTR tv323[ebp]
  0007b	33 f6		 xor	 esi, esi
  0007d	81 c7 a0 03 00
	00		 add	 edi, 928		; 000003a0H
  00083	05 40 04 00 00	 add	 eax, 1088		; 00000440H
  00088	89 85 e8 fe ff
	ff		 mov	 DWORD PTR tv322[ebp], eax
  0008e	66 90		 npad	 2
$LL4@DGRelation:

; 1899 : 			{
; 1900 : 				if ( lpGuildInfo->Use[n] > 0 )

  00090	80 3c 30 00	 cmp	 BYTE PTR [eax+esi], 0
  00094	76 3d		 jbe	 SHORT $LN2@DGRelation

; 1901 : 				{
; 1902 : 					if ( lpGuildInfo->Index[n] >= 0 )

  00096	66 83 3f 00	 cmp	 WORD PTR [edi], 0
  0009a	7c 37		 jl	 SHORT $LN2@DGRelation

; 1903 : 					{
; 1904 : 						TNotice _Notice(1);

  0009c	6a 01		 push	 1
  0009e	8d 8d ec fe ff
	ff		 lea	 ecx, DWORD PTR __Notice$1[ebp]
  000a4	e8 00 00 00 00	 call	 ??0TNotice@@QAE@E@Z	; TNotice::TNotice

; 1905 : 						_Notice.SendToUser(lpGuildInfo->Index[n], lMsg.Get(MSGGET(6, 172)), lpGuildInfo->Name);

  000a9	53		 push	 ebx
  000aa	68 ac 06 00 00	 push	 1708			; 000006acH
  000af	b9 00 00 00 00	 mov	 ecx, OFFSET ?lMsg@@3VMessage@@A ; lMsg
  000b4	e8 00 00 00 00	 call	 ?Get@Message@@QAEPADH@Z	; Message::Get
  000b9	50		 push	 eax
  000ba	0f bf 07	 movsx	 eax, WORD PTR [edi]
  000bd	50		 push	 eax
  000be	8d 85 ec fe ff
	ff		 lea	 eax, DWORD PTR __Notice$1[ebp]
  000c4	50		 push	 eax
  000c5	e8 00 00 00 00	 call	 ?SendToUser@TNotice@@QAAXHPADZZ ; TNotice::SendToUser
  000ca	8b 85 e8 fe ff
	ff		 mov	 eax, DWORD PTR tv322[ebp]
  000d0	83 c4 10	 add	 esp, 16			; 00000010H
$LN2@DGRelation:

; 1896 : 				lpGuildInfo->Name, lpGuildInfo->Name);
; 1897 : 
; 1898 : 			for ( int n=0;n<MAX_USER_GUILD;n++)

  000d3	46		 inc	 esi
  000d4	83 c7 02	 add	 edi, 2
  000d7	83 fe 50	 cmp	 esi, 80			; 00000050H
  000da	7c b4		 jl	 SHORT $LL4@DGRelation
  000dc	8b 9d e0 fe ff
	ff		 mov	 ebx, DWORD PTR _lpMsg$GSCopy$1$[ebp]
$LN3@DGRelation:

; 1912 : 	for ( int i=0;i<lpMsg->btGuildListCount;i++)

  000e2	33 f6		 xor	 esi, esi
  000e4	80 7b 06 00	 cmp	 BYTE PTR [ebx+6], 0
  000e8	76 28		 jbe	 SHORT $LN6@DGRelation
  000ea	8d 7b 08	 lea	 edi, DWORD PTR [ebx+8]
  000ed	0f 1f 00	 npad	 3
$LL7@DGRelation:

; 1913 : 	{
; 1914 : 		_GUILD_INFO_STRUCT * lpGuildInfo = Guild.SearchGuild_Number(lpMsg->iGuildList[i]);

  000f0	ff 37		 push	 DWORD PTR [edi]
  000f2	b9 00 00 00 00	 mov	 ecx, OFFSET ?Guild@@3VCGuildClass@@A ; Guild
  000f7	e8 00 00 00 00	 call	 ?SearchGuild_Number@CGuildClass@@QAEPAU_GUILD_INFO_STRUCT@@H@Z ; CGuildClass::SearchGuild_Number

; 1915 : 
; 1916 : 		if ( lpGuildInfo )

  000fc	85 c0		 test	 eax, eax
  000fe	74 06		 je	 SHORT $LN5@DGRelation
; File c:\users\michel\desktop\source\gameserver\source\guildclass.h

; 150  : 		this->iTimeStamp++;

  00100	ff 80 4c 07 00
	00		 inc	 DWORD PTR [eax+1868]
$LN5@DGRelation:
; File c:\users\michel\desktop\source\gameserver\source\edsprotocol.cpp

; 1912 : 	for ( int i=0;i<lpMsg->btGuildListCount;i++)

  00106	0f b6 43 06	 movzx	 eax, BYTE PTR [ebx+6]
  0010a	46		 inc	 esi
  0010b	83 c7 04	 add	 edi, 4
  0010e	3b f0		 cmp	 esi, eax
  00110	7c de		 jl	 SHORT $LL7@DGRelation
$LN6@DGRelation:

; 1917 : 		{
; 1918 : 			lpGuildInfo->SetTimeStamp();
; 1919 : 		}
; 1920 : 	}
; 1921 : }

  00112	8b 4d fc	 mov	 ecx, DWORD PTR __$ArrayPad$[ebp]
  00115	5f		 pop	 edi
  00116	5e		 pop	 esi
  00117	33 cd		 xor	 ecx, ebp
  00119	5b		 pop	 ebx
  0011a	e8 00 00 00 00	 call	 @__security_check_cookie@4
  0011f	8b e5		 mov	 esp, ebp
  00121	5d		 pop	 ebp
  00122	c3		 ret	 0
?DGRelationShipNotificationRecv@@YAXPAUEXSDHP_NOTIFICATION_RELATIONSHIP@@@Z ENDP ; DGRelationShipNotificationRecv
_TEXT	ENDS
; Function compile flags: /Ogtp
; File c:\users\michel\desktop\source\gameserver\source\edsprotocol.cpp
; File c:\users\michel\desktop\source\gameserver\include\prodef.h
; File c:\users\michel\desktop\source\gameserver\source\edsprotocol.cpp
; File c:\users\michel\desktop\source\gameserver\source\guildclass.h
; File c:\users\michel\desktop\source\gameserver\source\edsprotocol.cpp
;	COMDAT ?DGRelationShipAnsBreakOff@@YAXPAUEXSDHP_RELATIONSHIP_BREAKOFF_RESULT@@@Z
_TEXT	SEGMENT
tv396 = -288						; size = 4
_lpReqGuild$1$ = -288					; size = 4
_pMsg$1 = -284						; size = 8
tv397 = -280						; size = 4
__Notice$2 = -276					; size = 272
__$ArrayPad$ = -4					; size = 4
_lpMsg$ = 8						; size = 4
?DGRelationShipAnsBreakOff@@YAXPAUEXSDHP_RELATIONSHIP_BREAKOFF_RESULT@@@Z PROC ; DGRelationShipAnsBreakOff, COMDAT

; 1799 : {

  00000	55		 push	 ebp
  00001	8b ec		 mov	 ebp, esp
  00003	81 ec 20 01 00
	00		 sub	 esp, 288		; 00000120H
  00009	a1 00 00 00 00	 mov	 eax, DWORD PTR ___security_cookie
  0000e	33 c5		 xor	 eax, ebp
  00010	89 45 fc	 mov	 DWORD PTR __$ArrayPad$[ebp], eax
  00013	53		 push	 ebx
  00014	8b 5d 08	 mov	 ebx, DWORD PTR _lpMsg$[ebp]

; 1800 : 	if ( lpMsg->btRelationShipType == G_RELATIONSHIP_UNION )

  00017	80 7b 09 01	 cmp	 BYTE PTR [ebx+9], 1
  0001b	75 18		 jne	 SHORT $LN5@DGRelation

; 1801 : 	{
; 1802 : 		DGUnionBreakOff(lpMsg);

  0001d	53		 push	 ebx
  0001e	e8 00 00 00 00	 call	 ?DGUnionBreakOff@@YAXPAUEXSDHP_RELATIONSHIP_BREAKOFF_RESULT@@@Z ; DGUnionBreakOff
  00023	83 c4 04	 add	 esp, 4
  00026	5b		 pop	 ebx

; 1875 : 				}
; 1876 : 			}
; 1877 : 		}
; 1878 : 	}
; 1879 : }

  00027	8b 4d fc	 mov	 ecx, DWORD PTR __$ArrayPad$[ebp]
  0002a	33 cd		 xor	 ecx, ebp
  0002c	e8 00 00 00 00	 call	 @__security_check_cookie@4
  00031	8b e5		 mov	 esp, ebp
  00033	5d		 pop	 ebp
  00034	c3		 ret	 0
$LN5@DGRelation:
  00035	56		 push	 esi
  00036	57		 push	 edi

; 1803 : 		return;
; 1804 : 	}
; 1805 : 
; 1806 : 
; 1807 : 	_GUILD_INFO_STRUCT * lpReqGuild = Guild.SearchGuild_Number(lpMsg->iRequestGuildNum);

  00037	ff 73 0c	 push	 DWORD PTR [ebx+12]
  0003a	b9 00 00 00 00	 mov	 ecx, OFFSET ?Guild@@3VCGuildClass@@A ; Guild
  0003f	e8 00 00 00 00	 call	 ?SearchGuild_Number@CGuildClass@@QAEPAU_GUILD_INFO_STRUCT@@H@Z ; CGuildClass::SearchGuild_Number

; 1808 : 	_GUILD_INFO_STRUCT * lpTargetGuild = Guild.SearchGuild_Number(lpMsg->iTargetGuildNum);

  00044	ff 73 10	 push	 DWORD PTR [ebx+16]
  00047	8b f0		 mov	 esi, eax
  00049	b9 00 00 00 00	 mov	 ecx, OFFSET ?Guild@@3VCGuildClass@@A ; Guild
  0004e	89 b5 e0 fe ff
	ff		 mov	 DWORD PTR _lpReqGuild$1$[ebp], esi
  00054	e8 00 00 00 00	 call	 ?SearchGuild_Number@CGuildClass@@QAEPAU_GUILD_INFO_STRUCT@@H@Z ; CGuildClass::SearchGuild_Number
  00059	8b f8		 mov	 edi, eax

; 1809 : 
; 1810 : 	if ( lpMsg->btFlag == 1 )

  0005b	8a 43 03	 mov	 al, BYTE PTR [ebx+3]
  0005e	3c 01		 cmp	 al, 1
  00060	0f 85 a6 00 00
	00		 jne	 $LN6@DGRelation

; 1811 : 	{
; 1812 : 		if ( !lpReqGuild || !lpTargetGuild )

  00066	85 f6		 test	 esi, esi
  00068	74 04		 je	 SHORT $LN9@DGRelation
  0006a	85 ff		 test	 edi, edi
  0006c	75 04		 jne	 SHORT $LN8@DGRelation
$LN9@DGRelation:

; 1813 : 		{
; 1814 : 			lpMsg->btResult = 0;

  0006e	c6 43 08 00	 mov	 BYTE PTR [ebx+8], 0
$LN8@DGRelation:

; 1815 : 		}
; 1816 : 
; 1817 : 		PMSG_RELATIONSHIP_JOIN_BREAKOFF_ANS pMsg ={0};

  00072	33 c0		 xor	 eax, eax
  00074	89 85 e5 fe ff
	ff		 mov	 DWORD PTR _pMsg$1[ebp+1], eax
  0007a	66 89 85 e9 fe
	ff ff		 mov	 WORD PTR _pMsg$1[ebp+5], ax

; 1818 : 
; 1819 : 		pMsg.h.set((LPBYTE)&pMsg, 0xE6, sizeof(pMsg));
; 1820 : 		pMsg.btResult = lpMsg->btResult;

  00081	0f b6 43 08	 movzx	 eax, BYTE PTR [ebx+8]
  00085	88 85 e9 fe ff
	ff		 mov	 BYTE PTR _pMsg$1[ebp+5], al

; 1822 : 		pMsg.btRelationShipType = lpMsg->btRelationShipType;

  0008b	0f b6 43 09	 movzx	 eax, BYTE PTR [ebx+9]
  0008f	88 85 e7 fe ff
	ff		 mov	 BYTE PTR _pMsg$1[ebp+3], al

; 1823 : 		pMsg.btTargetUserIndexH = SET_NUMBERH(lpMsg->wTargetUserIndex);

  00095	0f b6 43 07	 movzx	 eax, BYTE PTR [ebx+7]
  00099	88 85 ea fe ff
	ff		 mov	 BYTE PTR _pMsg$1[ebp+6], al

; 1824 : 		pMsg.btTargetUserIndexL = SET_NUMBERL(lpMsg->wTargetUserIndex);

  0009f	0f b6 43 06	 movzx	 eax, BYTE PTR [ebx+6]
  000a3	88 85 eb fe ff
	ff		 mov	 BYTE PTR _pMsg$1[ebp+7], al

; 1825 : 
; 1826 : 		if ( lpMsg->wRequestUserIndex != -1 )

  000a9	0f b7 43 04	 movzx	 eax, WORD PTR [ebx+4]
; File c:\users\michel\desktop\source\gameserver\include\prodef.h

; 86   : 		lpBuf[0] = 0xC1;

  000ad	66 c7 85 e4 fe
	ff ff c1 08	 mov	 WORD PTR _pMsg$1[ebp], 2241 ; 000008c1H

; 87   : 		lpBuf[1] = size;
; 88   : 		lpBuf[2] = head;

  000b6	c6 85 e6 fe ff
	ff e6		 mov	 BYTE PTR _pMsg$1[ebp+2], 230 ; 000000e6H
; File c:\users\michel\desktop\source\gameserver\source\edsprotocol.cpp

; 1821 : 		pMsg.btRequestType = 2;

  000bd	c6 85 e8 fe ff
	ff 02		 mov	 BYTE PTR _pMsg$1[ebp+4], 2

; 1825 : 
; 1826 : 		if ( lpMsg->wRequestUserIndex != -1 )

  000c4	83 f8 ff	 cmp	 eax, -1
  000c7	74 12		 je	 SHORT $LN10@DGRelation

; 1827 : 			DataSend(lpMsg->wRequestUserIndex, (LPBYTE)&pMsg, sizeof(pMsg));

  000c9	6a 08		 push	 8
  000cb	8d 8d e4 fe ff
	ff		 lea	 ecx, DWORD PTR _pMsg$1[ebp]
  000d1	51		 push	 ecx
  000d2	50		 push	 eax
  000d3	e8 00 00 00 00	 call	 ?DataSend@@YAHHPAEK@Z	; DataSend
  000d8	83 c4 0c	 add	 esp, 12			; 0000000cH
$LN10@DGRelation:

; 1828 : 
; 1829 : 		pMsg.btTargetUserIndexH = SET_NUMBERH(lpMsg->wRequestUserIndex);

  000db	0f b6 43 05	 movzx	 eax, BYTE PTR [ebx+5]
  000df	88 85 ea fe ff
	ff		 mov	 BYTE PTR _pMsg$1[ebp+6], al

; 1830 : 		pMsg.btTargetUserIndexL = SET_NUMBERL(lpMsg->wRequestUserIndex);

  000e5	0f b6 43 04	 movzx	 eax, BYTE PTR [ebx+4]
  000e9	88 85 eb fe ff
	ff		 mov	 BYTE PTR _pMsg$1[ebp+7], al

; 1831 : 
; 1832 : 		if ( lpMsg->wTargetUserIndex != -1 )

  000ef	0f b7 43 06	 movzx	 eax, WORD PTR [ebx+6]
  000f3	83 f8 ff	 cmp	 eax, -1
  000f6	74 28		 je	 SHORT $LN11@DGRelation

; 1833 : 			DataSend(lpMsg->wTargetUserIndex, (LPBYTE)&pMsg, sizeof(pMsg));

  000f8	6a 08		 push	 8
  000fa	8d 8d e4 fe ff
	ff		 lea	 ecx, DWORD PTR _pMsg$1[ebp]
  00100	51		 push	 ecx
  00101	50		 push	 eax
  00102	e8 00 00 00 00	 call	 ?DataSend@@YAHHPAEK@Z	; DataSend
  00107	83 c4 0c	 add	 esp, 12			; 0000000cH

; 1834 : 
; 1835 : 		if ( lpMsg->btResult == EX_RESULT_FAIL ||lpMsg->btResult == EX_RESULT_FAIL_FOR_CASTLE )
; 1836 : 			return;

  0010a	eb 14		 jmp	 SHORT $LN11@DGRelation
$LN6@DGRelation:

; 1837 : 
; 1838 : 	}
; 1839 : 	else if ( lpMsg->btFlag == 0 )

  0010c	84 c0		 test	 al, al
  0010e	75 23		 jne	 SHORT $LN17@DGRelation

; 1840 : 	{
; 1841 : 		if ( !lpReqGuild || !lpTargetGuild )

  00110	85 f6		 test	 esi, esi
  00112	0f 84 f1 00 00
	00		 je	 $LN41@DGRelation
  00118	85 ff		 test	 edi, edi
  0011a	0f 84 e9 00 00
	00		 je	 $LN41@DGRelation
$LN11@DGRelation:

; 1842 : 			return;
; 1843 : 
; 1844 : 		if ( lpMsg->btResult == EX_RESULT_FAIL ||lpMsg->btResult == EX_RESULT_FAIL_FOR_CASTLE )

  00120	8a 43 08	 mov	 al, BYTE PTR [ebx+8]
  00123	84 c0		 test	 al, al
  00125	0f 84 de 00 00
	00		 je	 $LN41@DGRelation
  0012b	3c 10		 cmp	 al, 16			; 00000010H
  0012d	0f 84 d6 00 00
	00		 je	 $LN41@DGRelation
$LN17@DGRelation:

; 1845 : 			return;
; 1846 : 
; 1847 : 	}
; 1848 : 
; 1849 : 	if ( lpMsg->btRelationShipType == G_RELATIONSHIP_RIVAL )

  00133	80 7b 09 02	 cmp	 BYTE PTR [ebx+9], 2
  00137	75 2e		 jne	 SHORT $LN19@DGRelation
; File c:\users\michel\desktop\source\gameserver\source\guildclass.h

; 150  : 		this->iTimeStamp++;

  00139	ff 86 4c 07 00
	00		 inc	 DWORD PTR [esi+1868]

; 144  : 		this->iGuildRival = iGuildNumber;

  0013f	c7 86 48 07 00
	00 00 00 00 00	 mov	 DWORD PTR [esi+1864], 0

; 150  : 		this->iTimeStamp++;

  00149	ff 87 4c 07 00
	00		 inc	 DWORD PTR [edi+1868]

; 144  : 		this->iGuildRival = iGuildNumber;

  0014f	c7 87 48 07 00
	00 00 00 00 00	 mov	 DWORD PTR [edi+1864], 0
; File c:\users\michel\desktop\source\gameserver\source\edsprotocol.cpp

; 1853 : 		lpReqGuild->szGuildRivalName[0]=0;

  00159	c6 86 50 07 00
	00 00		 mov	 BYTE PTR [esi+1872], 0

; 1854 : 		lpTargetGuild->szGuildRivalName[0]=0;

  00160	c6 87 50 07 00
	00 00		 mov	 BYTE PTR [edi+1872], 0
$LN19@DGRelation:

; 1855 : 	}
; 1856 : 
; 1857 : 	LogAddTD("[U.System][Rival][BreakOff] (  %s ) vs ( %s )",

  00167	8d 47 04	 lea	 eax, DWORD PTR [edi+4]
  0016a	50		 push	 eax
  0016b	89 85 e8 fe ff
	ff		 mov	 DWORD PTR tv397[ebp], eax
  00171	8d 46 04	 lea	 eax, DWORD PTR [esi+4]
  00174	50		 push	 eax
  00175	68 00 00 00 00	 push	 OFFSET ??_C@_0CO@FKCLICLC@?$FLU?4System?$FN?$FLRival?$FN?$FLBreakOff?$FN?5?$CI?5?5?$CF@
  0017a	ff 15 00 00 00
	00		 call	 DWORD PTR ?LogAddTD@@3P6AXPADZZA ; LogAddTD

; 1858 : 		lpReqGuild->Name, lpTargetGuild->Name);
; 1859 : 
; 1860 : 	for ( int n=0;n<MAX_USER_GUILD;n++)

  00180	8b 85 e0 fe ff
	ff		 mov	 eax, DWORD PTR _lpReqGuild$1$[ebp]
  00186	83 c4 0c	 add	 esp, 12			; 0000000cH
  00189	33 ff		 xor	 edi, edi
  0018b	81 c6 a0 03 00
	00		 add	 esi, 928		; 000003a0H
  00191	05 40 04 00 00	 add	 eax, 1088		; 00000440H
  00196	89 85 e0 fe ff
	ff		 mov	 DWORD PTR tv396[ebp], eax
  0019c	0f 1f 40 00	 npad	 4
$LL4@DGRelation:

; 1861 : 	{
; 1862 : 		if ( lpReqGuild->Use[n] > 0 )

  001a0	80 3c 38 00	 cmp	 BYTE PTR [eax+edi], 0
  001a4	76 5a		 jbe	 SHORT $LN2@DGRelation

; 1863 : 		{
; 1864 : 			if ( lpReqGuild->Index[n] >= 0 )

  001a6	66 83 3e 00	 cmp	 WORD PTR [esi], 0
  001aa	7c 54		 jl	 SHORT $LN2@DGRelation

; 1865 : 			{
; 1866 : 				TNotice _Notice(1);

  001ac	6a 01		 push	 1
  001ae	8d 8d ec fe ff
	ff		 lea	 ecx, DWORD PTR __Notice$2[ebp]
  001b4	e8 00 00 00 00	 call	 ??0TNotice@@QAE@E@Z	; TNotice::TNotice

; 1867 : 
; 1868 : 				if ( lpMsg->btRelationShipType == G_RELATIONSHIP_UNION )

  001b9	8a 43 09	 mov	 al, BYTE PTR [ebx+9]
  001bc	3c 01		 cmp	 al, 1
  001be	75 0d		 jne	 SHORT $LN22@DGRelation

; 1869 : 				{
; 1870 : 					_Notice.SendToUser(lpReqGuild->Index[n], lMsg.Get(MSGGET(6, 170)), lpTargetGuild->Name);

  001c0	ff b5 e8 fe ff
	ff		 push	 DWORD PTR tv397[ebp]
  001c6	68 aa 06 00 00	 push	 1706			; 000006aaH
  001cb	eb 0f		 jmp	 SHORT $LN45@DGRelation
$LN22@DGRelation:

; 1871 : 				}
; 1872 : 				else if ( lpMsg->btRelationShipType == G_RELATIONSHIP_RIVAL )

  001cd	3c 02		 cmp	 al, 2
  001cf	75 29		 jne	 SHORT $LN40@DGRelation

; 1873 : 				{
; 1874 : 					_Notice.SendToUser(lpReqGuild->Index[n], lMsg.Get(MSGGET(6, 171)), lpTargetGuild->Name);

  001d1	ff b5 e8 fe ff
	ff		 push	 DWORD PTR tv397[ebp]
  001d7	68 ab 06 00 00	 push	 1707			; 000006abH
$LN45@DGRelation:
  001dc	b9 00 00 00 00	 mov	 ecx, OFFSET ?lMsg@@3VMessage@@A ; lMsg
  001e1	e8 00 00 00 00	 call	 ?Get@Message@@QAEPADH@Z	; Message::Get
  001e6	50		 push	 eax
  001e7	0f bf 06	 movsx	 eax, WORD PTR [esi]
  001ea	50		 push	 eax
  001eb	8d 85 ec fe ff
	ff		 lea	 eax, DWORD PTR __Notice$2[ebp]
  001f1	50		 push	 eax
  001f2	e8 00 00 00 00	 call	 ?SendToUser@TNotice@@QAAXHPADZZ ; TNotice::SendToUser
  001f7	83 c4 10	 add	 esp, 16			; 00000010H
$LN40@DGRelation:
  001fa	8b 85 e0 fe ff
	ff		 mov	 eax, DWORD PTR tv396[ebp]
$LN2@DGRelation:

; 1858 : 		lpReqGuild->Name, lpTargetGuild->Name);
; 1859 : 
; 1860 : 	for ( int n=0;n<MAX_USER_GUILD;n++)

  00200	47		 inc	 edi
  00201	83 c6 02	 add	 esi, 2
  00204	83 ff 50	 cmp	 edi, 80			; 00000050H
  00207	7c 97		 jl	 SHORT $LL4@DGRelation
$LN41@DGRelation:

; 1875 : 				}
; 1876 : 			}
; 1877 : 		}
; 1878 : 	}
; 1879 : }

  00209	8b 4d fc	 mov	 ecx, DWORD PTR __$ArrayPad$[ebp]
  0020c	5f		 pop	 edi
  0020d	5e		 pop	 esi
  0020e	33 cd		 xor	 ecx, ebp
  00210	5b		 pop	 ebx
  00211	e8 00 00 00 00	 call	 @__security_check_cookie@4
  00216	8b e5		 mov	 esp, ebp
  00218	5d		 pop	 ebp
  00219	c3		 ret	 0
?DGRelationShipAnsBreakOff@@YAXPAUEXSDHP_RELATIONSHIP_BREAKOFF_RESULT@@@Z ENDP ; DGRelationShipAnsBreakOff
_TEXT	ENDS
; Function compile flags: /Ogtp
; File c:\users\michel\desktop\source\gameserver\source\edsprotocol.cpp
; File c:\users\michel\desktop\source\gameserver\include\prodef.h
; File c:\users\michel\desktop\source\gameserver\source\edsprotocol.cpp
;	COMDAT ?GDRelationShipReqBreakOff@@YAXHHH@Z
_TEXT	SEGMENT
_pMsg$ = -24						; size = 20
__$ArrayPad$ = -4					; size = 4
_aIndex$ = 8						; size = 4
_iTargetUserIndex$ = 12					; size = 4
_iRelationShipType$ = 16				; size = 4
?GDRelationShipReqBreakOff@@YAXHHH@Z PROC		; GDRelationShipReqBreakOff, COMDAT

; 1775 : {

  00000	55		 push	 ebp
  00001	8b ec		 mov	 ebp, esp
  00003	83 ec 18	 sub	 esp, 24			; 00000018H
  00006	a1 00 00 00 00	 mov	 eax, DWORD PTR ___security_cookie
  0000b	33 c5		 xor	 eax, ebp
  0000d	89 45 fc	 mov	 DWORD PTR __$ArrayPad$[ebp], eax
  00010	8b 55 08	 mov	 edx, DWORD PTR _aIndex$[ebp]

; 1776 : 	_GUILD_INFO_STRUCT * lpGuildInfo = gObj[aIndex].lpGuild;

  00013	8b 0d 00 00 00
	00		 mov	 ecx, DWORD PTR ?gObj@@3PAUOBJECTSTRUCT@@A ; gObj
  00019	69 c2 40 27 00
	00		 imul	 eax, edx, 10048
  0001f	56		 push	 esi
  00020	8b 75 0c	 mov	 esi, DWORD PTR _iTargetUserIndex$[ebp]
  00023	57		 push	 edi
  00024	8b bc 08 18 06
	00 00		 mov	 edi, DWORD PTR [eax+ecx+1560]

; 1777 : 	_GUILD_INFO_STRUCT * lpTargetGuildInfo = gObj[iTargetUserIndex].lpGuild;

  0002b	69 c6 40 27 00
	00		 imul	 eax, esi, 10048
  00031	8b 8c 08 18 06
	00 00		 mov	 ecx, DWORD PTR [eax+ecx+1560]

; 1778 : 
; 1779 : 	if ( !lpGuildInfo || !lpTargetGuildInfo )

  00038	85 ff		 test	 edi, edi
  0003a	74 47		 je	 SHORT $LN3@GDRelation
  0003c	85 c9		 test	 ecx, ecx
  0003e	74 43		 je	 SHORT $LN3@GDRelation

; 1787 : 	pMsg.btRelationShipType = iRelationShipType;

  00040	8a 45 10	 mov	 al, BYTE PTR _iRelationShipType$[ebp]
  00043	0f 57 c0	 xorps	 xmm0, xmm0
  00046	0f 11 45 e9	 movups	 XMMWORD PTR _pMsg$[ebp+1], xmm0
  0004a	66 c7 45 f9 00
	00		 mov	 WORD PTR _pMsg$[ebp+17], 0
  00050	c6 45 fb 00	 mov	 BYTE PTR _pMsg$[ebp+19], 0
  00054	88 45 f0	 mov	 BYTE PTR _pMsg$[ebp+8], al
; File c:\users\michel\desktop\source\gameserver\include\prodef.h

; 86   : 		lpBuf[0] = 0xC1;

  00057	66 c7 45 e8 c1
	14		 mov	 WORD PTR _pMsg$[ebp], 5313 ; 000014c1H

; 87   : 		lpBuf[1] = size;
; 88   : 		lpBuf[2] = head;

  0005d	c6 45 ea e6	 mov	 BYTE PTR _pMsg$[ebp+2], 230 ; 000000e6H
; File c:\users\michel\desktop\source\gameserver\source\edsprotocol.cpp

; 1785 : 	pMsg.wRequestUserIndex = aIndex;

  00061	66 89 55 ec	 mov	 WORD PTR _pMsg$[ebp+4], dx

; 1786 : 	pMsg.wTargetUserIndex = iTargetUserIndex;

  00065	66 89 75 ee	 mov	 WORD PTR _pMsg$[ebp+6], si

; 1788 : 	pMsg.iRequestGuildNum = lpGuildInfo->Number;

  00069	8b 07		 mov	 eax, DWORD PTR [edi]
  0006b	89 45 f4	 mov	 DWORD PTR _pMsg$[ebp+12], eax

; 1789 : 	pMsg.iTargetGuildNum = lpTargetGuildInfo->Number;

  0006e	8b 01		 mov	 eax, DWORD PTR [ecx]

; 1790 : 
; 1791 : 	wsExDbCli.DataSend((char*)&pMsg, pMsg.h.size);

  00070	b9 00 00 00 00	 mov	 ecx, OFFSET ?wsExDbCli@@3VwsJoinServerCli@@A ; wsExDbCli
  00075	89 45 f8	 mov	 DWORD PTR _pMsg$[ebp+16], eax
  00078	8d 45 e8	 lea	 eax, DWORD PTR _pMsg$[ebp]
  0007b	6a 14		 push	 20			; 00000014H
  0007d	50		 push	 eax
  0007e	e8 00 00 00 00	 call	 ?DataSend@wsJoinServerCli@@QAEHPADH@Z ; wsJoinServerCli::DataSend
$LN3@GDRelation:

; 1792 : }

  00083	8b 4d fc	 mov	 ecx, DWORD PTR __$ArrayPad$[ebp]
  00086	5f		 pop	 edi
  00087	33 cd		 xor	 ecx, ebp
  00089	5e		 pop	 esi
  0008a	e8 00 00 00 00	 call	 @__security_check_cookie@4
  0008f	8b e5		 mov	 esp, ebp
  00091	5d		 pop	 ebp
  00092	c3		 ret	 0
?GDRelationShipReqBreakOff@@YAXHHH@Z ENDP		; GDRelationShipReqBreakOff
_TEXT	ENDS
; Function compile flags: /Ogtp
; File c:\users\michel\desktop\source\gameserver\source\edsprotocol.cpp
; File c:\users\michel\desktop\source\gameserver\include\prodef.h
