; Listing generated by Microsoft (R) Optimizing Compiler Version 19.00.23506.0 

	TITLE	C:\Users\Michel\Desktop\Source\GameServer\Source\EledoradoEvent.cpp
	.686P
	.XMM
	include listing.inc
	.model	flat

INCLUDELIB LIBCMT
INCLUDELIB OLDNAMES

PUBLIC	?__empty_global_delete@@YAXPAX@Z		; __empty_global_delete
PUBLIC	?__empty_global_delete@@YAXPAXI@Z		; __empty_global_delete
PUBLIC	??0CEledoradoEvent@@QAE@XZ			; CEledoradoEvent::CEledoradoEvent
PUBLIC	??1CEledoradoEvent@@UAE@XZ			; CEledoradoEvent::~CEledoradoEvent
PUBLIC	?Init@CEledoradoEvent@@QAEXXZ			; CEledoradoEvent::Init
PUBLIC	?SetEventState@CEledoradoEvent@@QAEXH@Z		; CEledoradoEvent::SetEventState
PUBLIC	?Run@CEledoradoEvent@@QAEXXZ			; CEledoradoEvent::Run
PUBLIC	?RegenGoldGoblen@CEledoradoEvent@@QAEXXZ	; CEledoradoEvent::RegenGoldGoblen
PUBLIC	?RegenTitan@CEledoradoEvent@@QAEXXZ		; CEledoradoEvent::RegenTitan
PUBLIC	?RegenGoldDercon@CEledoradoEvent@@QAEXXZ	; CEledoradoEvent::RegenGoldDercon
PUBLIC	?RegenDevilLizardKing@CEledoradoEvent@@QAEXXZ	; CEledoradoEvent::RegenDevilLizardKing
PUBLIC	?RegenKantur@CEledoradoEvent@@QAEXXZ		; CEledoradoEvent::RegenKantur
PUBLIC	?RegenRabbit@CEledoradoEvent@@QAEXXZ		; CEledoradoEvent::RegenRabbit
PUBLIC	?RegenDarkKnight@CEledoradoEvent@@QAEXXZ	; CEledoradoEvent::RegenDarkKnight
PUBLIC	?RegenDevil@CEledoradoEvent@@QAEXXZ		; CEledoradoEvent::RegenDevil
PUBLIC	?RegenMonster@CEledoradoEvent@@QAEXXZ		; CEledoradoEvent::RegenMonster
PUBLIC	?RegenCrust@CEledoradoEvent@@QAEXXZ		; CEledoradoEvent::RegenCrust
PUBLIC	?RegenSatiros@CEledoradoEvent@@QAEXXZ		; CEledoradoEvent::RegenSatiros
PUBLIC	?RegenTwintail@CEledoradoEvent@@QAEXXZ		; CEledoradoEvent::RegenTwintail
PUBLIC	?RegenIronKnight@CEledoradoEvent@@QAEXXZ	; CEledoradoEvent::RegenIronKnight
PUBLIC	?RegenNeipin@CEledoradoEvent@@QAEXXZ		; CEledoradoEvent::RegenNeipin
PUBLIC	?RegenGreatDragon@CEledoradoEvent@@QAEXXZ	; CEledoradoEvent::RegenGreatDragon
PUBLIC	?CheckGoldDercon@CEledoradoEvent@@QAEXH@Z	; CEledoradoEvent::CheckGoldDercon
PUBLIC	?Start_Menual@CEledoradoEvent@@QAEXXZ		; CEledoradoEvent::Start_Menual
PUBLIC	?End_Menual@CEledoradoEvent@@QAEXXZ		; CEledoradoEvent::End_Menual
PUBLIC	??_GCEledoradoEvent@@UAEPAXI@Z			; CEledoradoEvent::`scalar deleting destructor'
PUBLIC	??1OBJECTSTRUCT@@QAE@XZ				; OBJECTSTRUCT::~OBJECTSTRUCT
PUBLIC	??_EOBJECTSTRUCT@@QAEPAXI@Z			; OBJECTSTRUCT::`vector deleting destructor'
PUBLIC	??_7CEledoradoEvent@@6B@			; CEledoradoEvent::`vftable'
PUBLIC	?gEledoradoEvent@@3VCEledoradoEvent@@A		; gEledoradoEvent
PUBLIC	??_C@_0BM@CBOPIOL@Make?5GoldGoblen?5?3?5?$CFd?0?5?$CFd?0?$CFd?$AA@ ; `string'
PUBLIC	??_C@_0BM@BOFIHGJ@Make?5GoldTaitan?5?3?5?$CFd?0?5?$CFd?0?$CFd?$AA@ ; `string'
PUBLIC	??_C@_0BM@ENHJDIJM@Make?5GoldDercon?5?3?5?$CFd?0?5?$CFd?0?$CFd?$AA@ ; `string'
PUBLIC	??_C@_01CLKCMJKC@?5?$AA@			; `string'
PUBLIC	??_C@_0BP@HMGNFLDB@Make?5GoldLizarKing?5?3?5?$CFd?0?5?$CFd?0?$CFd?$AA@ ; `string'
PUBLIC	??_C@_0BO@HFHPKCLG@Make?5GoldTantarus?5?3?5?$CFd?0?5?$CFd?0?$CFd?$AA@ ; `string'
PUBLIC	??_C@_0DF@GIAPPI@?$KB?$NL?$KB?$NM?$FLEvent?5Management?$FN?5?$FLStart?$FN?5E@ ; `string'
PUBLIC	??_C@_0BP@FBHIBBIJ@Make?5Golden?5rabbit?5?3?5?$CFd?0?5?$CFd?0?$CFd?$AA@ ; `string'
PUBLIC	??_C@_0CD@LGNFBEEH@Make?5Golden?5DarkKnight?5?3?5?$CFd?0?5?$CFd?0@ ; `string'
PUBLIC	??_C@_0BO@HGAOKNNC@Make?5Golden?5Devil?5?3?5?$CFd?0?5?$CFd?0?$CFd?$AA@ ; `string'
PUBLIC	??_C@_0CA@HHLBJALN@Make?5Golden?5Monster?5?3?5?$CFd?0?5?$CFd?0?$CFd?$AA@ ; `string'
PUBLIC	??_C@_0BO@PPKNDGHB@Make?5Golden?5Crust?5?3?5?$CFd?0?5?$CFd?0?$CFd?$AA@ ; `string'
PUBLIC	??_C@_0CA@KKDIEMFO@Make?5Golden?5Satiros?5?3?5?$CFd?0?5?$CFd?0?$CFd?$AA@ ; `string'
PUBLIC	??_C@_0CB@CCGIMCLF@Make?5Golden?5Twintail?5?3?5?$CFd?0?5?$CFd?0?$CFd@ ; `string'
PUBLIC	??_C@_0CD@HFHDLHIH@Make?5Golden?5IronKnight?5?3?5?$CFd?0?5?$CFd?0@ ; `string'
PUBLIC	??_C@_0BP@OPFHHCOG@Make?5Golden?5Neipin?5?3?5?$CFd?0?5?$CFd?0?$CFd?$AA@ ; `string'
PUBLIC	??_C@_0CF@NFLGABAN@Make?5Golden?5Great?5Dragon?5?3?5?$CFd?0?5?$CF@ ; `string'
PUBLIC	??_R4CEledoradoEvent@@6B@			; CEledoradoEvent::`RTTI Complete Object Locator'
PUBLIC	??_R0?AVCEledoradoEvent@@@8			; CEledoradoEvent `RTTI Type Descriptor'
PUBLIC	??_R3CEledoradoEvent@@8				; CEledoradoEvent::`RTTI Class Hierarchy Descriptor'
PUBLIC	??_R2CEledoradoEvent@@8				; CEledoradoEvent::`RTTI Base Class Array'
PUBLIC	??_R1A@?0A@EA@CEledoradoEvent@@8		; CEledoradoEvent::`RTTI Base Class Descriptor at (0,-1,0,64)'
EXTRN	??_M@YGXPAXIIP6EX0@Z@Z:PROC			; `eh vector destructor iterator'
EXTRN	??3@YAXPAXI@Z:PROC				; operator delete
EXTRN	??_V@YAXPAXI@Z:PROC				; operator delete[]
EXTRN	_atexit:PROC
EXTRN	__imp__GetTickCount@0:PROC
EXTRN	_rand:PROC
EXTRN	__localtime64:PROC
EXTRN	__time64:PROC
EXTRN	?Get@Message@@QAEPADH@Z:PROC			; Message::Get
EXTRN	??_ECEledoradoEvent@@UAEPAXI@Z:PROC		; CEledoradoEvent::`vector deleting destructor'
EXTRN	??1CSkillDelay@@UAE@XZ:PROC			; CSkillDelay::~CSkillDelay
EXTRN	??1TMonsterAIAgro@@UAE@XZ:PROC			; TMonsterAIAgro::~TMonsterAIAgro
EXTRN	?GCMapEventStateSend@@YAXHEE@Z:PROC		; GCMapEventStateSend
EXTRN	?GetBoxPosition@CMonsterSetBase@@QAEHHHHHHAAE0@Z:PROC ; CMonsterSetBase::GetBoxPosition
EXTRN	?AllSendServerMsg@TNotice@@SAXPAD@Z:PROC	; TNotice::AllSendServerMsg
EXTRN	?gObjClearBuffEffect@@YA_NPAUOBJECTSTRUCT@@W4eBuffClearType@@@Z:PROC ; gObjClearBuffEffect
EXTRN	?gObjMonsterHitDamageInit@@YAXPAUOBJECTSTRUCT@@@Z:PROC ; gObjMonsterHitDamageInit
EXTRN	@__security_check_cookie@4:PROC
EXTRN	___CxxFrameHandler3:PROC
EXTRN	??_7type_info@@6B@:QWORD			; type_info::`vftable'
EXTRN	?lMsg@@3VMessage@@A:BYTE			; lMsg
EXTRN	?LogAddTD@@3P6AXPADZZA:DWORD			; LogAddTD
EXTRN	?gObj@@3PAUOBJECTSTRUCT@@A:DWORD		; gObj
EXTRN	?gMSetBase@@3VCMonsterSetBase@@A:BYTE		; gMSetBase
EXTRN	?gMapName@@3PAY0EA@DA:BYTE			; gMapName
EXTRN	?gEledoradoGoldGoblenRegenTime@@3KA:DWORD	; gEledoradoGoldGoblenRegenTime
EXTRN	?gEledoradoTitanRegenTime@@3KA:DWORD		; gEledoradoTitanRegenTime
EXTRN	?gEledoradoGoldDerconRegenTime@@3KA:DWORD	; gEledoradoGoldDerconRegenTime
EXTRN	?gEledoradoDevilLizardKingRegenTime@@3KA:DWORD	; gEledoradoDevilLizardKingRegenTime
EXTRN	?gEledoradoDevilTantarosRegenTime@@3KA:DWORD	; gEledoradoDevilTantarosRegenTime
EXTRN	?gEledoradoGoldenRabbitRegenTime@@3KA:DWORD	; gEledoradoGoldenRabbitRegenTime
EXTRN	?gEledoradoGoldenDarkKnightRegenTime@@3KA:DWORD	; gEledoradoGoldenDarkKnightRegenTime
EXTRN	?gEledoradoGoldenDevilRegenTime@@3KA:DWORD	; gEledoradoGoldenDevilRegenTime
EXTRN	?gEledoradoGoldenMonsterRegenTime@@3KA:DWORD	; gEledoradoGoldenMonsterRegenTime
EXTRN	?gEledoradoGoldenCrustRegenTime@@3KA:DWORD	; gEledoradoGoldenCrustRegenTime
EXTRN	?gEledoradoGoldenSatirosRegenTime@@3KA:DWORD	; gEledoradoGoldenSatirosRegenTime
EXTRN	?gEledoradoGoldenTwintailRegenTime@@3KA:DWORD	; gEledoradoGoldenTwintailRegenTime
EXTRN	?gEledoradoGoldenIronKnightRegenTime@@3KA:DWORD	; gEledoradoGoldenIronKnightRegenTime
EXTRN	?gEledoradoGoldenNeipinRegenTime@@3KA:DWORD	; gEledoradoGoldenNeipinRegenTime
EXTRN	?gEledoradoGoldenGreatDragonRegenTime@@3KA:DWORD ; gEledoradoGoldenGreatDragonRegenTime
EXTRN	___security_cookie:DWORD
EXTRN	__fltused:DWORD
_BSS	SEGMENT
?gEledoradoEvent@@3VCEledoradoEvent@@A DB 078H DUP (?)	; gEledoradoEvent
_BSS	ENDS
CRT$XCU	SEGMENT
?gEledoradoEvent$initializer$@@3P6AXXZA DD FLAT:??__EgEledoradoEvent@@YAXXZ ; gEledoradoEvent$initializer$
CRT$XCU	ENDS
;	COMDAT ??_R1A@?0A@EA@CEledoradoEvent@@8
rdata$r	SEGMENT
??_R1A@?0A@EA@CEledoradoEvent@@8 DD FLAT:??_R0?AVCEledoradoEvent@@@8 ; CEledoradoEvent::`RTTI Base Class Descriptor at (0,-1,0,64)'
	DD	00H
	DD	00H
	DD	0ffffffffH
	DD	00H
	DD	040H
	DD	FLAT:??_R3CEledoradoEvent@@8
rdata$r	ENDS
;	COMDAT ??_R2CEledoradoEvent@@8
rdata$r	SEGMENT
??_R2CEledoradoEvent@@8 DD FLAT:??_R1A@?0A@EA@CEledoradoEvent@@8 ; CEledoradoEvent::`RTTI Base Class Array'
rdata$r	ENDS
;	COMDAT ??_R3CEledoradoEvent@@8
rdata$r	SEGMENT
??_R3CEledoradoEvent@@8 DD 00H				; CEledoradoEvent::`RTTI Class Hierarchy Descriptor'
	DD	00H
	DD	01H
	DD	FLAT:??_R2CEledoradoEvent@@8
rdata$r	ENDS
;	COMDAT ??_R0?AVCEledoradoEvent@@@8
data$r	SEGMENT
??_R0?AVCEledoradoEvent@@@8 DD FLAT:??_7type_info@@6B@	; CEledoradoEvent `RTTI Type Descriptor'
	DD	00H
	DB	'.?AVCEledoradoEvent@@', 00H
data$r	ENDS
;	COMDAT ??_R4CEledoradoEvent@@6B@
rdata$r	SEGMENT
??_R4CEledoradoEvent@@6B@ DD 00H			; CEledoradoEvent::`RTTI Complete Object Locator'
	DD	00H
	DD	00H
	DD	FLAT:??_R0?AVCEledoradoEvent@@@8
	DD	FLAT:??_R3CEledoradoEvent@@8
rdata$r	ENDS
;	COMDAT ??_C@_0CF@NFLGABAN@Make?5Golden?5Great?5Dragon?5?3?5?$CFd?0?5?$CF@
CONST	SEGMENT
??_C@_0CF@NFLGABAN@Make?5Golden?5Great?5Dragon?5?3?5?$CFd?0?5?$CF@ DB 'Ma'
	DB	'ke Golden Great Dragon : %d, %d,%d', 00H	; `string'
CONST	ENDS
;	COMDAT ??_C@_0BP@OPFHHCOG@Make?5Golden?5Neipin?5?3?5?$CFd?0?5?$CFd?0?$CFd?$AA@
CONST	SEGMENT
??_C@_0BP@OPFHHCOG@Make?5Golden?5Neipin?5?3?5?$CFd?0?5?$CFd?0?$CFd?$AA@ DB 'M'
	DB	'ake Golden Neipin : %d, %d,%d', 00H		; `string'
CONST	ENDS
;	COMDAT ??_C@_0CD@HFHDLHIH@Make?5Golden?5IronKnight?5?3?5?$CFd?0?5?$CFd?0@
CONST	SEGMENT
??_C@_0CD@HFHDLHIH@Make?5Golden?5IronKnight?5?3?5?$CFd?0?5?$CFd?0@ DB 'Ma'
	DB	'ke Golden IronKnight : %d, %d,%d', 00H	; `string'
CONST	ENDS
;	COMDAT ??_C@_0CB@CCGIMCLF@Make?5Golden?5Twintail?5?3?5?$CFd?0?5?$CFd?0?$CFd@
CONST	SEGMENT
??_C@_0CB@CCGIMCLF@Make?5Golden?5Twintail?5?3?5?$CFd?0?5?$CFd?0?$CFd@ DB 'M'
	DB	'ake Golden Twintail : %d, %d,%d', 00H	; `string'
CONST	ENDS
;	COMDAT ??_C@_0CA@KKDIEMFO@Make?5Golden?5Satiros?5?3?5?$CFd?0?5?$CFd?0?$CFd?$AA@
CONST	SEGMENT
??_C@_0CA@KKDIEMFO@Make?5Golden?5Satiros?5?3?5?$CFd?0?5?$CFd?0?$CFd?$AA@ DB 'M'
	DB	'ake Golden Satiros : %d, %d,%d', 00H	; `string'
CONST	ENDS
;	COMDAT ??_C@_0BO@PPKNDGHB@Make?5Golden?5Crust?5?3?5?$CFd?0?5?$CFd?0?$CFd?$AA@
CONST	SEGMENT
??_C@_0BO@PPKNDGHB@Make?5Golden?5Crust?5?3?5?$CFd?0?5?$CFd?0?$CFd?$AA@ DB 'M'
	DB	'ake Golden Crust : %d, %d,%d', 00H		; `string'
CONST	ENDS
;	COMDAT ??_C@_0CA@HHLBJALN@Make?5Golden?5Monster?5?3?5?$CFd?0?5?$CFd?0?$CFd?$AA@
CONST	SEGMENT
??_C@_0CA@HHLBJALN@Make?5Golden?5Monster?5?3?5?$CFd?0?5?$CFd?0?$CFd?$AA@ DB 'M'
	DB	'ake Golden Monster : %d, %d,%d', 00H	; `string'
CONST	ENDS
;	COMDAT ??_C@_0BO@HGAOKNNC@Make?5Golden?5Devil?5?3?5?$CFd?0?5?$CFd?0?$CFd?$AA@
CONST	SEGMENT
??_C@_0BO@HGAOKNNC@Make?5Golden?5Devil?5?3?5?$CFd?0?5?$CFd?0?$CFd?$AA@ DB 'M'
	DB	'ake Golden Devil : %d, %d,%d', 00H		; `string'
CONST	ENDS
;	COMDAT ??_C@_0CD@LGNFBEEH@Make?5Golden?5DarkKnight?5?3?5?$CFd?0?5?$CFd?0@
CONST	SEGMENT
??_C@_0CD@LGNFBEEH@Make?5Golden?5DarkKnight?5?3?5?$CFd?0?5?$CFd?0@ DB 'Ma'
	DB	'ke Golden DarkKnight : %d, %d,%d', 00H	; `string'
CONST	ENDS
;	COMDAT ??_C@_0BP@FBHIBBIJ@Make?5Golden?5rabbit?5?3?5?$CFd?0?5?$CFd?0?$CFd?$AA@
CONST	SEGMENT
??_C@_0BP@FBHIBBIJ@Make?5Golden?5rabbit?5?3?5?$CFd?0?5?$CFd?0?$CFd?$AA@ DB 'M'
	DB	'ake Golden rabbit : %d, %d,%d', 00H		; `string'
CONST	ENDS
;	COMDAT ??_C@_0DF@GIAPPI@?$KB?$NL?$KB?$NM?$FLEvent?5Management?$FN?5?$FLStart?$FN?5E@
CONST	SEGMENT
??_C@_0DF@GIAPPI@?$KB?$NL?$KB?$NM?$FLEvent?5Management?$FN?5?$FLStart?$FN?5E@ DB 0a1H
	DB	0dbH, 0a1H, 0dcH, '[Event Management] [Start] EledoradoEvent E'
	DB	'vent!', 00H					; `string'
CONST	ENDS
;	COMDAT ??_C@_0BO@HFHPKCLG@Make?5GoldTantarus?5?3?5?$CFd?0?5?$CFd?0?$CFd?$AA@
CONST	SEGMENT
??_C@_0BO@HFHPKCLG@Make?5GoldTantarus?5?3?5?$CFd?0?5?$CFd?0?$CFd?$AA@ DB 'M'
	DB	'ake GoldTantarus : %d, %d,%d', 00H		; `string'
CONST	ENDS
;	COMDAT ??_C@_0BP@HMGNFLDB@Make?5GoldLizarKing?5?3?5?$CFd?0?5?$CFd?0?$CFd?$AA@
CONST	SEGMENT
??_C@_0BP@HMGNFLDB@Make?5GoldLizarKing?5?3?5?$CFd?0?5?$CFd?0?$CFd?$AA@ DB 'M'
	DB	'ake GoldLizarKing : %d, %d,%d', 00H		; `string'
CONST	ENDS
;	COMDAT ??_C@_01CLKCMJKC@?5?$AA@
CONST	SEGMENT
??_C@_01CLKCMJKC@?5?$AA@ DB ' ', 00H			; `string'
CONST	ENDS
;	COMDAT ??_C@_0BM@ENHJDIJM@Make?5GoldDercon?5?3?5?$CFd?0?5?$CFd?0?$CFd?$AA@
CONST	SEGMENT
??_C@_0BM@ENHJDIJM@Make?5GoldDercon?5?3?5?$CFd?0?5?$CFd?0?$CFd?$AA@ DB 'M'
	DB	'ake GoldDercon : %d, %d,%d', 00H		; `string'
CONST	ENDS
;	COMDAT ??_C@_0BM@BOFIHGJ@Make?5GoldTaitan?5?3?5?$CFd?0?5?$CFd?0?$CFd?$AA@
CONST	SEGMENT
??_C@_0BM@BOFIHGJ@Make?5GoldTaitan?5?3?5?$CFd?0?5?$CFd?0?$CFd?$AA@ DB 'Ma'
	DB	'ke GoldTaitan : %d, %d,%d', 00H		; `string'
CONST	ENDS
;	COMDAT ??_C@_0BM@CBOPIOL@Make?5GoldGoblen?5?3?5?$CFd?0?5?$CFd?0?$CFd?$AA@
CONST	SEGMENT
??_C@_0BM@CBOPIOL@Make?5GoldGoblen?5?3?5?$CFd?0?5?$CFd?0?$CFd?$AA@ DB 'Ma'
	DB	'ke GoldGoblen : %d, %d,%d', 00H		; `string'
CONST	ENDS
;	COMDAT ??_7CEledoradoEvent@@6B@
CONST	SEGMENT
??_7CEledoradoEvent@@6B@ DD FLAT:??_R4CEledoradoEvent@@6B@ ; CEledoradoEvent::`vftable'
	DD	FLAT:??_ECEledoradoEvent@@UAEPAXI@Z
CONST	ENDS
;	COMDAT xdata$x
xdata$x	SEGMENT
__ehfuncinfo$??_EOBJECTSTRUCT@@QAEPAXI@Z DD 019930522H
	DD	00H
	DD	00H
	DD	2 DUP(00H)
	DD	2 DUP(00H)
	DD	00H
	DD	05H
xdata$x	ENDS
; Function compile flags: /Ogtp
;	COMDAT ??__FgEledoradoEvent@@YAXXZ
text$yd	SEGMENT
??__FgEledoradoEvent@@YAXXZ PROC			; `dynamic atexit destructor for 'gEledoradoEvent'', COMDAT
  00000	b9 00 00 00 00	 mov	 ecx, OFFSET ?gEledoradoEvent@@3VCEledoradoEvent@@A ; gEledoradoEvent
  00005	e9 00 00 00 00	 jmp	 ??1CEledoradoEvent@@UAE@XZ ; CEledoradoEvent::~CEledoradoEvent
??__FgEledoradoEvent@@YAXXZ ENDP			; `dynamic atexit destructor for 'gEledoradoEvent''
text$yd	ENDS
; Function compile flags: /Ogtp
; File c:\users\michel\desktop\source\gameserver\source\eledoradoevent.cpp
;	COMDAT ??__EgEledoradoEvent@@YAXXZ
text$di	SEGMENT
??__EgEledoradoEvent@@YAXXZ PROC			; `dynamic initializer for 'gEledoradoEvent'', COMDAT

; 10   : CEledoradoEvent gEledoradoEvent;

  00000	b9 00 00 00 00	 mov	 ecx, OFFSET ?gEledoradoEvent@@3VCEledoradoEvent@@A ; gEledoradoEvent
  00005	e8 00 00 00 00	 call	 ??0CEledoradoEvent@@QAE@XZ ; CEledoradoEvent::CEledoradoEvent
  0000a	68 00 00 00 00	 push	 OFFSET ??__FgEledoradoEvent@@YAXXZ ; `dynamic atexit destructor for 'gEledoradoEvent''
  0000f	e8 00 00 00 00	 call	 _atexit
  00014	59		 pop	 ecx
  00015	c3		 ret	 0
??__EgEledoradoEvent@@YAXXZ ENDP			; `dynamic initializer for 'gEledoradoEvent''
text$di	ENDS
; Function compile flags: /Ogtp
;	COMDAT ??_EOBJECTSTRUCT@@QAEPAXI@Z
_TEXT	SEGMENT
__$EHRec$ = -12						; size = 12
___flags$ = 8						; size = 4
??_EOBJECTSTRUCT@@QAEPAXI@Z PROC			; OBJECTSTRUCT::`vector deleting destructor', COMDAT
; _this$ = ecx
  00000	55		 push	 ebp
  00001	8b ec		 mov	 ebp, esp
  00003	6a ff		 push	 -1
  00005	68 00 00 00 00	 push	 __ehhandler$??_EOBJECTSTRUCT@@QAEPAXI@Z
  0000a	64 a1 00 00 00
	00		 mov	 eax, DWORD PTR fs:0
  00010	50		 push	 eax
  00011	53		 push	 ebx
  00012	56		 push	 esi
  00013	57		 push	 edi
  00014	a1 00 00 00 00	 mov	 eax, DWORD PTR ___security_cookie
  00019	33 c5		 xor	 eax, ebp
  0001b	50		 push	 eax
  0001c	8d 45 f4	 lea	 eax, DWORD PTR __$EHRec$[ebp]
  0001f	64 a3 00 00 00
	00		 mov	 DWORD PTR fs:0, eax
  00025	8b f1		 mov	 esi, ecx
  00027	8b 5d 08	 mov	 ebx, DWORD PTR ___flags$[ebp]
  0002a	f6 c3 02	 test	 bl, 2
  0002d	74 44		 je	 SHORT $LN2@vector
  0002f	68 00 00 00 00	 push	 OFFSET ??1OBJECTSTRUCT@@QAE@XZ
  00034	ff 76 fc	 push	 DWORD PTR [esi-4]
  00037	8d 7e fc	 lea	 edi, DWORD PTR [esi-4]
  0003a	68 40 27 00 00	 push	 10048			; 00002740H
  0003f	56		 push	 esi
  00040	e8 00 00 00 00	 call	 ??_M@YGXPAXIIP6EX0@Z@Z
  00045	f6 c3 01	 test	 bl, 1
  00048	74 13		 je	 SHORT $LN3@vector
  0004a	69 0f 40 27 00
	00		 imul	 ecx, DWORD PTR [edi], 10048
  00050	83 c1 04	 add	 ecx, 4
  00053	51		 push	 ecx
  00054	57		 push	 edi
  00055	e8 00 00 00 00	 call	 ??_V@YAXPAXI@Z		; operator delete[]
  0005a	83 c4 08	 add	 esp, 8
$LN3@vector:
  0005d	8b c7		 mov	 eax, edi
  0005f	8b 4d f4	 mov	 ecx, DWORD PTR __$EHRec$[ebp]
  00062	64 89 0d 00 00
	00 00		 mov	 DWORD PTR fs:0, ecx
  00069	59		 pop	 ecx
  0006a	5f		 pop	 edi
  0006b	5e		 pop	 esi
  0006c	5b		 pop	 ebx
  0006d	8b e5		 mov	 esp, ebp
  0006f	5d		 pop	 ebp
  00070	c2 04 00	 ret	 4
$LN2@vector:
  00073	8d 8e ec 20 00
	00		 lea	 ecx, DWORD PTR [esi+8428]
  00079	e8 00 00 00 00	 call	 ??1TMonsterAIAgro@@UAE@XZ ; TMonsterAIAgro::~TMonsterAIAgro
  0007e	8d 8e 0c 16 00
	00		 lea	 ecx, DWORD PTR [esi+5644]
  00084	e8 00 00 00 00	 call	 ??1CSkillDelay@@UAE@XZ	; CSkillDelay::~CSkillDelay
  00089	f6 c3 01	 test	 bl, 1
  0008c	74 0e		 je	 SHORT $LN4@vector
  0008e	68 40 27 00 00	 push	 10048			; 00002740H
  00093	56		 push	 esi
  00094	e8 00 00 00 00	 call	 ??3@YAXPAXI@Z		; operator delete
  00099	83 c4 08	 add	 esp, 8
$LN4@vector:
  0009c	8b c6		 mov	 eax, esi
  0009e	8b 4d f4	 mov	 ecx, DWORD PTR __$EHRec$[ebp]
  000a1	64 89 0d 00 00
	00 00		 mov	 DWORD PTR fs:0, ecx
  000a8	59		 pop	 ecx
  000a9	5f		 pop	 edi
  000aa	5e		 pop	 esi
  000ab	5b		 pop	 ebx
  000ac	8b e5		 mov	 esp, ebp
  000ae	5d		 pop	 ebp
  000af	c2 04 00	 ret	 4
_TEXT	ENDS
;	COMDAT text$x
text$x	SEGMENT
__ehhandler$??_EOBJECTSTRUCT@@QAEPAXI@Z:
  00000	8b 54 24 08	 mov	 edx, DWORD PTR [esp+8]
  00004	8d 42 0c	 lea	 eax, DWORD PTR [edx+12]
  00007	8b 4a f0	 mov	 ecx, DWORD PTR [edx-16]
  0000a	33 c8		 xor	 ecx, eax
  0000c	e8 00 00 00 00	 call	 @__security_check_cookie@4
  00011	b8 00 00 00 00	 mov	 eax, OFFSET __ehfuncinfo$??_EOBJECTSTRUCT@@QAEPAXI@Z
  00016	e9 00 00 00 00	 jmp	 ___CxxFrameHandler3
text$x	ENDS
??_EOBJECTSTRUCT@@QAEPAXI@Z ENDP			; OBJECTSTRUCT::`vector deleting destructor'
; Function compile flags: /Ogtp
;	COMDAT ??1OBJECTSTRUCT@@QAE@XZ
_TEXT	SEGMENT
??1OBJECTSTRUCT@@QAE@XZ PROC				; OBJECTSTRUCT::~OBJECTSTRUCT, COMDAT
; _this$ = ecx
  00000	56		 push	 esi
  00001	8b f1		 mov	 esi, ecx
  00003	8d 8e ec 20 00
	00		 lea	 ecx, DWORD PTR [esi+8428]
  00009	e8 00 00 00 00	 call	 ??1TMonsterAIAgro@@UAE@XZ ; TMonsterAIAgro::~TMonsterAIAgro
  0000e	8d 8e 0c 16 00
	00		 lea	 ecx, DWORD PTR [esi+5644]
  00014	5e		 pop	 esi
  00015	e9 00 00 00 00	 jmp	 ??1CSkillDelay@@UAE@XZ	; CSkillDelay::~CSkillDelay
??1OBJECTSTRUCT@@QAE@XZ ENDP				; OBJECTSTRUCT::~OBJECTSTRUCT
_TEXT	ENDS
; Function compile flags: /Ogtp
;	COMDAT ??_GCEledoradoEvent@@UAEPAXI@Z
_TEXT	SEGMENT
___flags$ = 8						; size = 4
??_GCEledoradoEvent@@UAEPAXI@Z PROC			; CEledoradoEvent::`scalar deleting destructor', COMDAT
; _this$ = ecx
  00000	55		 push	 ebp
  00001	8b ec		 mov	 ebp, esp
  00003	56		 push	 esi
  00004	8b f1		 mov	 esi, ecx
  00006	e8 00 00 00 00	 call	 ??1CEledoradoEvent@@UAE@XZ ; CEledoradoEvent::~CEledoradoEvent
  0000b	f6 45 08 01	 test	 BYTE PTR ___flags$[ebp], 1
  0000f	74 0b		 je	 SHORT $LN4@scalar
  00011	6a 78		 push	 120			; 00000078H
  00013	56		 push	 esi
  00014	e8 00 00 00 00	 call	 ??3@YAXPAXI@Z		; operator delete
  00019	83 c4 08	 add	 esp, 8
$LN4@scalar:
  0001c	8b c6		 mov	 eax, esi
  0001e	5e		 pop	 esi
  0001f	5d		 pop	 ebp
  00020	c2 04 00	 ret	 4
??_GCEledoradoEvent@@UAEPAXI@Z ENDP			; CEledoradoEvent::`scalar deleting destructor'
_TEXT	ENDS
; Function compile flags: /Ogtp
; File c:\users\michel\desktop\source\gameserver\source\eledoradoevent.cpp
; File c:\users\michel\desktop\source\gameserver\source\eledoradoevent.h
; File c:\users\michel\desktop\source\gameserver\source\eledoradoevent.cpp
;	COMDAT ?End_Menual@CEledoradoEvent@@QAEXXZ
_TEXT	SEGMENT
?End_Menual@CEledoradoEvent@@QAEXXZ PROC		; CEledoradoEvent::End_Menual, COMDAT
; _this$ = ecx
; File c:\users\michel\desktop\source\gameserver\source\eledoradoevent.h

; 41   : 	void SetMenualStart(BOOL bMenualStart){this->m_bMenualStart = bMenualStart;}	// line : 57

  00000	c7 41 68 00 00
	00 00		 mov	 DWORD PTR [ecx+104], 0
; File c:\users\michel\desktop\source\gameserver\source\eledoradoevent.cpp

; 638  : }

  00007	c3		 ret	 0
?End_Menual@CEledoradoEvent@@QAEXXZ ENDP		; CEledoradoEvent::End_Menual
_TEXT	ENDS
; Function compile flags: /Ogtp
; File c:\users\michel\desktop\source\gameserver\source\eledoradoevent.cpp
; File c:\users\michel\desktop\source\gameserver\source\eledoradoevent.h
; File c:\users\michel\desktop\source\gameserver\source\eledoradoevent.cpp
;	COMDAT ?Start_Menual@CEledoradoEvent@@QAEXXZ
_TEXT	SEGMENT
?Start_Menual@CEledoradoEvent@@QAEXXZ PROC		; CEledoradoEvent::Start_Menual, COMDAT
; _this$ = ecx

; 583  : {

  00000	56		 push	 esi
  00001	57		 push	 edi
  00002	8b f9		 mov	 edi, ecx

; 586  : 	LogAddTD("¡Û¡Ü[Event Management] [Start] EledoradoEvent Event!");

  00004	68 00 00 00 00	 push	 OFFSET ??_C@_0DF@GIAPPI@?$KB?$NL?$KB?$NM?$FLEvent?5Management?$FN?5?$FLStart?$FN?5E@
; File c:\users\michel\desktop\source\gameserver\source\eledoradoevent.h

; 41   : 	void SetMenualStart(BOOL bMenualStart){this->m_bMenualStart = bMenualStart;}	// line : 57

  00009	c7 47 68 01 00
	00 00		 mov	 DWORD PTR [edi+104], 1
; File c:\users\michel\desktop\source\gameserver\source\eledoradoevent.cpp

; 586  : 	LogAddTD("¡Û¡Ü[Event Management] [Start] EledoradoEvent Event!");

  00010	ff 15 00 00 00
	00		 call	 DWORD PTR ?LogAddTD@@3P6AXPADZZA ; LogAddTD
  00016	83 c4 04	 add	 esp, 4

; 587  : 
; 588  : 	DWORD TickCount = GetTickCount();

  00019	ff 15 00 00 00
	00		 call	 DWORD PTR __imp__GetTickCount@0
  0001f	8b f0		 mov	 esi, eax

; 589  : 
; 590  : 	this->GoldGoblenEventStartTime = TickCount;
; 591  : 	this->RegenGoldGoblen();

  00021	8b cf		 mov	 ecx, edi
  00023	89 77 08	 mov	 DWORD PTR [edi+8], esi
  00026	e8 00 00 00 00	 call	 ?RegenGoldGoblen@CEledoradoEvent@@QAEXXZ ; CEledoradoEvent::RegenGoldGoblen

; 592  : 
; 593  : 	this->TitanEventStartTime = TickCount;
; 594  : 	this->RegenTitan();

  0002b	8b cf		 mov	 ecx, edi
  0002d	89 77 0c	 mov	 DWORD PTR [edi+12], esi
  00030	e8 00 00 00 00	 call	 ?RegenTitan@CEledoradoEvent@@QAEXXZ ; CEledoradoEvent::RegenTitan

; 595  : 
; 596  : 	this->GoldDerconEventStartTime = TickCount;
; 597  : 	this->RegenGoldDercon();

  00035	8b cf		 mov	 ecx, edi
  00037	89 77 10	 mov	 DWORD PTR [edi+16], esi
  0003a	e8 00 00 00 00	 call	 ?RegenGoldDercon@CEledoradoEvent@@QAEXXZ ; CEledoradoEvent::RegenGoldDercon

; 598  : 
; 599  : 	this->DevilLizardKingEventStartTime = TickCount;
; 600  : 	this->RegenDevilLizardKing();

  0003f	8b cf		 mov	 ecx, edi
  00041	89 77 14	 mov	 DWORD PTR [edi+20], esi
  00044	e8 00 00 00 00	 call	 ?RegenDevilLizardKing@CEledoradoEvent@@QAEXXZ ; CEledoradoEvent::RegenDevilLizardKing

; 601  : 
; 602  : 	this->KanturEventStartTime = TickCount;
; 603  : 	this->RegenKantur();

  00049	8b cf		 mov	 ecx, edi
  0004b	89 77 18	 mov	 DWORD PTR [edi+24], esi
  0004e	e8 00 00 00 00	 call	 ?RegenKantur@CEledoradoEvent@@QAEXXZ ; CEledoradoEvent::RegenKantur

; 604  : 
; 605  : 	this->RabbitEventStartTime = TickCount;
; 606  : 	this->RegenRabbit();

  00053	8b cf		 mov	 ecx, edi
  00055	89 77 1c	 mov	 DWORD PTR [edi+28], esi
  00058	e8 00 00 00 00	 call	 ?RegenRabbit@CEledoradoEvent@@QAEXXZ ; CEledoradoEvent::RegenRabbit

; 607  : 
; 608  : 	this->DarkKnightEventStartTime = TickCount;
; 609  : 	this->RegenDarkKnight();

  0005d	8b cf		 mov	 ecx, edi
  0005f	89 77 20	 mov	 DWORD PTR [edi+32], esi
  00062	e8 00 00 00 00	 call	 ?RegenDarkKnight@CEledoradoEvent@@QAEXXZ ; CEledoradoEvent::RegenDarkKnight

; 610  : 
; 611  : 	this->DevilEventStartTime = TickCount;
; 612  : 	this->RegenDevil();

  00067	8b cf		 mov	 ecx, edi
  00069	89 77 24	 mov	 DWORD PTR [edi+36], esi
  0006c	e8 00 00 00 00	 call	 ?RegenDevil@CEledoradoEvent@@QAEXXZ ; CEledoradoEvent::RegenDevil

; 613  : 
; 614  : 	this->MonsterEventStartTime = TickCount;
; 615  : 	this->RegenMonster();

  00071	8b cf		 mov	 ecx, edi
  00073	89 77 28	 mov	 DWORD PTR [edi+40], esi
  00076	e8 00 00 00 00	 call	 ?RegenMonster@CEledoradoEvent@@QAEXXZ ; CEledoradoEvent::RegenMonster

; 616  : 
; 617  : 	this->CrustEventStartTime = TickCount;
; 618  : 	this->RegenCrust();

  0007b	8b cf		 mov	 ecx, edi
  0007d	89 77 2c	 mov	 DWORD PTR [edi+44], esi
  00080	e8 00 00 00 00	 call	 ?RegenCrust@CEledoradoEvent@@QAEXXZ ; CEledoradoEvent::RegenCrust

; 619  : 
; 620  : 	this->SatirosEventStartTime = TickCount;
; 621  : 	this->RegenSatiros();

  00085	8b cf		 mov	 ecx, edi
  00087	89 77 30	 mov	 DWORD PTR [edi+48], esi
  0008a	e8 00 00 00 00	 call	 ?RegenSatiros@CEledoradoEvent@@QAEXXZ ; CEledoradoEvent::RegenSatiros

; 622  : 
; 623  : 	this->TwintailEventStartTime = TickCount;
; 624  : 	this->RegenTwintail();

  0008f	8b cf		 mov	 ecx, edi
  00091	89 77 34	 mov	 DWORD PTR [edi+52], esi
  00094	e8 00 00 00 00	 call	 ?RegenTwintail@CEledoradoEvent@@QAEXXZ ; CEledoradoEvent::RegenTwintail

; 625  : 
; 626  : 	this->IronKnightEventStartTime = TickCount;
; 627  : 	this->RegenIronKnight();

  00099	8b cf		 mov	 ecx, edi
  0009b	89 77 38	 mov	 DWORD PTR [edi+56], esi
  0009e	e8 00 00 00 00	 call	 ?RegenIronKnight@CEledoradoEvent@@QAEXXZ ; CEledoradoEvent::RegenIronKnight

; 628  : 
; 629  : 	this->NeipinEventStartTime = TickCount;
; 630  : 	this->RegenNeipin();

  000a3	8b cf		 mov	 ecx, edi
  000a5	89 77 3c	 mov	 DWORD PTR [edi+60], esi
  000a8	e8 00 00 00 00	 call	 ?RegenNeipin@CEledoradoEvent@@QAEXXZ ; CEledoradoEvent::RegenNeipin

; 631  : 
; 632  : 	this->GreatDragonEventStartTime = TickCount;

  000ad	89 77 40	 mov	 DWORD PTR [edi+64], esi

; 633  : 	this->RegenGreatDragon();

  000b0	8b cf		 mov	 ecx, edi
  000b2	5f		 pop	 edi
  000b3	5e		 pop	 esi
  000b4	e9 00 00 00 00	 jmp	 ?RegenGreatDragon@CEledoradoEvent@@QAEXXZ ; CEledoradoEvent::RegenGreatDragon
?Start_Menual@CEledoradoEvent@@QAEXXZ ENDP		; CEledoradoEvent::Start_Menual
_TEXT	ENDS
; Function compile flags: /Ogtp
; File c:\users\michel\desktop\source\gameserver\source\eledoradoevent.h
;	COMDAT ?SetMenualStart@CEledoradoEvent@@QAEXH@Z
_TEXT	SEGMENT
_bMenualStart$ = 8					; size = 4
?SetMenualStart@CEledoradoEvent@@QAEXH@Z PROC		; CEledoradoEvent::SetMenualStart, COMDAT
; _this$ = ecx

; 41   : 	void SetMenualStart(BOOL bMenualStart){this->m_bMenualStart = bMenualStart;}	// line : 57

  00000	55		 push	 ebp
  00001	8b ec		 mov	 ebp, esp
  00003	8b 45 08	 mov	 eax, DWORD PTR _bMenualStart$[ebp]
  00006	89 41 68	 mov	 DWORD PTR [ecx+104], eax
  00009	5d		 pop	 ebp
  0000a	c2 04 00	 ret	 4
?SetMenualStart@CEledoradoEvent@@QAEXH@Z ENDP		; CEledoradoEvent::SetMenualStart
_TEXT	ENDS
; Function compile flags: /Ogtp
; File c:\users\michel\desktop\source\gameserver\source\eledoradoevent.cpp
;	COMDAT ?CheckGoldDercon@CEledoradoEvent@@QAEXH@Z
_TEXT	SEGMENT
_MapNumber$ = 8						; size = 4
?CheckGoldDercon@CEledoradoEvent@@QAEXH@Z PROC		; CEledoradoEvent::CheckGoldDercon, COMDAT
; _this$ = ecx

; 543  : {

  00000	55		 push	 ebp
  00001	8b ec		 mov	 ebp, esp

; 544  : 	if ( EventState == 0 )

  00003	83 79 04 00	 cmp	 DWORD PTR [ecx+4], 0
  00007	74 7c		 je	 SHORT $LN11@CheckGoldD

; 545  : 		return;
; 546  : 
; 547  : 	BOOL EventOn = FALSE;
; 548  : 	int EventClearMapNumber = -1;
; 549  : 
; 550  : 	for ( int i=0;i<3;i++)
; 551  : 	{
; 552  : 		if ( m_BossGoldDerconMapNumber[i] != -1 )

  00009	8b 51 6c	 mov	 edx, DWORD PTR [ecx+108]
  0000c	83 c8 ff	 or	 eax, -1
  0000f	56		 push	 esi
  00010	8b 75 08	 mov	 esi, DWORD PTR _MapNumber$[ebp]
  00013	57		 push	 edi
  00014	33 ff		 xor	 edi, edi
  00016	3b d0		 cmp	 edx, eax
  00018	74 0b		 je	 SHORT $LN2@CheckGoldD

; 553  : 		{
; 554  : 			if ( m_BossGoldDerconMapNumber[i] == MapNumber )

  0001a	3b d6		 cmp	 edx, esi
  0001c	75 05		 jne	 SHORT $LN7@CheckGoldD

; 555  : 			{
; 556  : 				EventOn = TRUE;

  0001e	8d 78 02	 lea	 edi, DWORD PTR [eax+2]

; 557  : 			}
; 558  : 			else

  00021	eb 02		 jmp	 SHORT $LN2@CheckGoldD
$LN7@CheckGoldD:

; 559  : 			{
; 560  : 				EventClearMapNumber = this->m_BossGoldDerconMapNumber[i];

  00023	8b c2		 mov	 eax, edx
$LN2@CheckGoldD:

; 545  : 		return;
; 546  : 
; 547  : 	BOOL EventOn = FALSE;
; 548  : 	int EventClearMapNumber = -1;
; 549  : 
; 550  : 	for ( int i=0;i<3;i++)
; 551  : 	{
; 552  : 		if ( m_BossGoldDerconMapNumber[i] != -1 )

  00025	8b 51 70	 mov	 edx, DWORD PTR [ecx+112]
  00028	83 fa ff	 cmp	 edx, -1
  0002b	74 0d		 je	 SHORT $LN22@CheckGoldD

; 553  : 		{
; 554  : 			if ( m_BossGoldDerconMapNumber[i] == MapNumber )

  0002d	3b d6		 cmp	 edx, esi
  0002f	75 07		 jne	 SHORT $LN21@CheckGoldD

; 555  : 			{
; 556  : 				EventOn = TRUE;

  00031	bf 01 00 00 00	 mov	 edi, 1

; 557  : 			}
; 558  : 			else

  00036	eb 02		 jmp	 SHORT $LN22@CheckGoldD
$LN21@CheckGoldD:

; 559  : 			{
; 560  : 				EventClearMapNumber = this->m_BossGoldDerconMapNumber[i];

  00038	8b c2		 mov	 eax, edx
$LN22@CheckGoldD:

; 545  : 		return;
; 546  : 
; 547  : 	BOOL EventOn = FALSE;
; 548  : 	int EventClearMapNumber = -1;
; 549  : 
; 550  : 	for ( int i=0;i<3;i++)
; 551  : 	{
; 552  : 		if ( m_BossGoldDerconMapNumber[i] != -1 )

  0003a	8b 49 74	 mov	 ecx, DWORD PTR [ecx+116]
  0003d	83 f9 ff	 cmp	 ecx, -1
  00040	74 0d		 je	 SHORT $LN25@CheckGoldD

; 553  : 		{
; 554  : 			if ( m_BossGoldDerconMapNumber[i] == MapNumber )

  00042	3b ce		 cmp	 ecx, esi
  00044	75 07		 jne	 SHORT $LN24@CheckGoldD

; 555  : 			{
; 556  : 				EventOn = TRUE;

  00046	bf 01 00 00 00	 mov	 edi, 1

; 557  : 			}
; 558  : 			else

  0004b	eb 02		 jmp	 SHORT $LN25@CheckGoldD
$LN24@CheckGoldD:

; 559  : 			{
; 560  : 				EventClearMapNumber = this->m_BossGoldDerconMapNumber[i];

  0004d	8b c1		 mov	 eax, ecx
$LN25@CheckGoldD:

; 561  : 			}
; 562  : 		}
; 563  : 	}
; 564  : 
; 565  : 	if( EventClearMapNumber != -1 )

  0004f	83 f8 ff	 cmp	 eax, -1
  00052	74 0d		 je	 SHORT $LN9@CheckGoldD

; 566  : 	{
; 567  : 		GCMapEventStateSend(EventClearMapNumber, 0, 3);

  00054	6a 03		 push	 3
  00056	6a 00		 push	 0
  00058	50		 push	 eax
  00059	e8 00 00 00 00	 call	 ?GCMapEventStateSend@@YAXHEE@Z ; GCMapEventStateSend
  0005e	83 c4 0c	 add	 esp, 12			; 0000000cH
$LN9@CheckGoldD:

; 568  : 	}
; 569  : 
; 570  : 	if ( EventOn != FALSE )
; 571  : 	{
; 572  : 		GCMapEventStateSend(MapNumber, 1, 3);

  00061	6a 03		 push	 3
  00063	85 ff		 test	 edi, edi
  00065	74 11		 je	 SHORT $LN10@CheckGoldD
  00067	6a 01		 push	 1

; 573  : 	}
; 574  : 	else
; 575  : 	{
; 576  : 		GCMapEventStateSend(MapNumber, 0, 3);

  00069	56		 push	 esi
  0006a	e8 00 00 00 00	 call	 ?GCMapEventStateSend@@YAXHEE@Z ; GCMapEventStateSend
  0006f	83 c4 0c	 add	 esp, 12			; 0000000cH
  00072	5f		 pop	 edi
  00073	5e		 pop	 esi

; 577  : 	}
; 578  : }

  00074	5d		 pop	 ebp
  00075	c2 04 00	 ret	 4
$LN10@CheckGoldD:

; 573  : 	}
; 574  : 	else
; 575  : 	{
; 576  : 		GCMapEventStateSend(MapNumber, 0, 3);

  00078	6a 00		 push	 0
  0007a	56		 push	 esi
  0007b	e8 00 00 00 00	 call	 ?GCMapEventStateSend@@YAXHEE@Z ; GCMapEventStateSend
  00080	83 c4 0c	 add	 esp, 12			; 0000000cH
  00083	5f		 pop	 edi
  00084	5e		 pop	 esi
$LN11@CheckGoldD:

; 577  : 	}
; 578  : }

  00085	5d		 pop	 ebp
  00086	c2 04 00	 ret	 4
?CheckGoldDercon@CEledoradoEvent@@QAEXH@Z ENDP		; CEledoradoEvent::CheckGoldDercon
_TEXT	ENDS
; Function compile flags: /Ogtp
; File c:\users\michel\desktop\source\gameserver\source\eledoradoevent.cpp
;	COMDAT ?RegenGreatDragon@CEledoradoEvent@@QAEXXZ
_TEXT	SEGMENT
_Map$ = -8						; size = 8
?RegenGreatDragon@CEledoradoEvent@@QAEXXZ PROC		; CEledoradoEvent::RegenGreatDragon, COMDAT
; _this$ = ecx

; 963  : {

  00000	55		 push	 ebp
  00001	8b ec		 mov	 ebp, esp
  00003	83 ec 08	 sub	 esp, 8
  00006	53		 push	 ebx
  00007	56		 push	 esi
  00008	57		 push	 edi

; 964  : 	int n=0;
; 965  : 	int MapNumber;
; 966  : 	int Map[2] = {MAP_INDEX_KANTURU1,MAP_INDEX_RAKLION};

  00009	c7 45 f8 25 00
	00 00		 mov	 DWORD PTR _Map$[ebp], 37 ; 00000025H
  00010	33 f6		 xor	 esi, esi
  00012	c7 45 fc 39 00
	00 00		 mov	 DWORD PTR _Map$[ebp+4], 57 ; 00000039H
  00019	bf f5 01 00 00	 mov	 edi, 501		; 000001f5H
  0001e	66 90		 npad	 2
$LL4@RegenGreat:

; 969  : 	{
; 970  : 		if ( gObj[n].Class == 501 )

  00020	a1 00 00 00 00	 mov	 eax, DWORD PTR ?gObj@@3PAUOBJECTSTRUCT@@A ; gObj
  00025	66 39 bc 06 90
	00 00 00	 cmp	 WORD PTR [esi+eax+144], di
  0002d	0f 85 48 01 00
	00		 jne	 $LN2@RegenGreat

; 971  : 		{
; 972  : 			gObj[n].Live = TRUE;

  00033	c6 44 06 51 01	 mov	 BYTE PTR [esi+eax+81], 1

; 973  : 			MapNumber = Map[rand()%2];

  00038	e8 00 00 00 00	 call	 _rand
  0003d	25 01 00 00 80	 and	 eax, -2147483647	; 80000001H
  00042	79 05		 jns	 SHORT $LN16@RegenGreat
  00044	48		 dec	 eax
  00045	83 c8 fe	 or	 eax, -2			; fffffffeH
  00048	40		 inc	 eax
$LN16@RegenGreat:
  00049	8b 5c 85 f8	 mov	 ebx, DWORD PTR _Map$[ebp+eax*4]

; 974  : 			gObj[n].MapNumber = MapNumber;

  0004d	a1 00 00 00 00	 mov	 eax, DWORD PTR ?gObj@@3PAUOBJECTSTRUCT@@A ; gObj
  00052	88 9c 06 23 01
	00 00		 mov	 BYTE PTR [esi+eax+291], bl
  00059	0f 1f 80 00 00
	00 00		 npad	 7
$LL5@RegenGreat:

; 975  : 
; 976  : 			while ( gMSetBase.GetBoxPosition(MapNumber, 1, 1, 255, 255, gObj[n].X, gObj[n].Y) == 0 )

  00060	8b 0d 00 00 00
	00		 mov	 ecx, DWORD PTR ?gObj@@3PAUOBJECTSTRUCT@@A ; gObj
  00066	8d 81 21 01 00
	00		 lea	 eax, DWORD PTR [ecx+289]
  0006c	03 c6		 add	 eax, esi
  0006e	50		 push	 eax
  0006f	8d 81 20 01 00
	00		 lea	 eax, DWORD PTR [ecx+288]
  00075	b9 00 00 00 00	 mov	 ecx, OFFSET ?gMSetBase@@3VCMonsterSetBase@@A ; gMSetBase
  0007a	03 c6		 add	 eax, esi
  0007c	50		 push	 eax
  0007d	68 ff 00 00 00	 push	 255			; 000000ffH
  00082	68 ff 00 00 00	 push	 255			; 000000ffH
  00087	6a 01		 push	 1
  00089	6a 01		 push	 1
  0008b	53		 push	 ebx
  0008c	e8 00 00 00 00	 call	 ?GetBoxPosition@CMonsterSetBase@@QAEHHHHHHAAE0@Z ; CMonsterSetBase::GetBoxPosition
  00091	85 c0		 test	 eax, eax
  00093	74 cb		 je	 SHORT $LL5@RegenGreat

; 977  : 			{
; 978  : 
; 979  : 			}
; 980  : 
; 981  : 			gObj[n].Life = gObj[n].MaxLife;

  00095	8b 0d 00 00 00
	00		 mov	 ecx, DWORD PTR ?gObj@@3PAUOBJECTSTRUCT@@A ; gObj
  0009b	8b 84 0e dc 00
	00 00		 mov	 eax, DWORD PTR [esi+ecx+220]
  000a2	89 84 0e d8 00
	00 00		 mov	 DWORD PTR [esi+ecx+216], eax

; 982  : 			gObj[n].TX = gObj[n].X;

  000a9	8b 0d 00 00 00
	00		 mov	 ecx, DWORD PTR ?gObj@@3PAUOBJECTSTRUCT@@A ; gObj
  000af	0f b6 84 0e 20
	01 00 00	 movzx	 eax, BYTE PTR [esi+ecx+288]
  000b7	88 84 0e 52 01
	00 00		 mov	 BYTE PTR [esi+ecx+338], al

; 983  : 			gObj[n].TY = gObj[n].Y;

  000be	8b 0d 00 00 00
	00		 mov	 ecx, DWORD PTR ?gObj@@3PAUOBJECTSTRUCT@@A ; gObj
  000c4	0f b6 84 0e 21
	01 00 00	 movzx	 eax, BYTE PTR [esi+ecx+289]
  000cc	88 84 0e 53 01
	00 00		 mov	 BYTE PTR [esi+ecx+339], al

; 984  : 			gObj[n].MTX = gObj[n].X;

  000d3	8b 0d 00 00 00
	00		 mov	 ecx, DWORD PTR ?gObj@@3PAUOBJECTSTRUCT@@A ; gObj
  000d9	0f b6 84 0e 20
	01 00 00	 movzx	 eax, BYTE PTR [esi+ecx+288]
  000e1	88 84 0e 54 01
	00 00		 mov	 BYTE PTR [esi+ecx+340], al

; 985  : 			gObj[n].MTY = gObj[n].Y;

  000e8	8b 0d 00 00 00
	00		 mov	 ecx, DWORD PTR ?gObj@@3PAUOBJECTSTRUCT@@A ; gObj
  000ee	0f b6 84 0e 21
	01 00 00	 movzx	 eax, BYTE PTR [esi+ecx+289]
  000f6	88 84 0e 55 01
	00 00		 mov	 BYTE PTR [esi+ecx+341], al

; 986  : 			gObj[n].StartX = gObj[n].X;

  000fd	8b 0d 00 00 00
	00		 mov	 ecx, DWORD PTR ?gObj@@3PAUOBJECTSTRUCT@@A ; gObj
  00103	0f b6 84 0e 20
	01 00 00	 movzx	 eax, BYTE PTR [esi+ecx+288]
  0010b	88 84 0e 4e 01
	00 00		 mov	 BYTE PTR [esi+ecx+334], al

; 987  : 			gObj[n].StartY = gObj[n].Y;

  00112	8b 0d 00 00 00
	00		 mov	 ecx, DWORD PTR ?gObj@@3PAUOBJECTSTRUCT@@A ; gObj
  00118	0f b6 84 0e 21
	01 00 00	 movzx	 eax, BYTE PTR [esi+ecx+289]
  00120	88 84 0e 4f 01
	00 00		 mov	 BYTE PTR [esi+ecx+335], al

; 988  : 			gObj[n].m_State = 1;

  00127	a1 00 00 00 00	 mov	 eax, DWORD PTR ?gObj@@3PAUOBJECTSTRUCT@@A ; gObj
  0012c	c7 84 06 d0 01
	00 00 01 00 00
	00		 mov	 DWORD PTR [esi+eax+464], 1

; 989  : 			gObj[n].PathCount = 0;

  00137	a1 00 00 00 00	 mov	 eax, DWORD PTR ?gObj@@3PAUOBJECTSTRUCT@@A ; gObj
  0013c	c7 84 06 58 01
	00 00 00 00 00
	00		 mov	 DWORD PTR [esi+eax+344], 0

; 990  : 
; 991  : 			LogAddTD("Make Golden Great Dragon : %d, %d,%d",

  00147	8b 0d 00 00 00
	00		 mov	 ecx, DWORD PTR ?gObj@@3PAUOBJECTSTRUCT@@A ; gObj
  0014d	0f b6 84 0e 21
	01 00 00	 movzx	 eax, BYTE PTR [esi+ecx+289]
  00155	50		 push	 eax
  00156	0f b6 84 0e 20
	01 00 00	 movzx	 eax, BYTE PTR [esi+ecx+288]
  0015e	50		 push	 eax
  0015f	53		 push	 ebx
  00160	68 00 00 00 00	 push	 OFFSET ??_C@_0CF@NFLGABAN@Make?5Golden?5Great?5Dragon?5?3?5?$CFd?0?5?$CF@
  00165	ff 15 00 00 00
	00		 call	 DWORD PTR ?LogAddTD@@3P6AXPADZZA ; LogAddTD

; 992  : 				MapNumber, gObj[n].X, gObj[n].Y);
; 993  : 
; 994  : 			gObjMonsterHitDamageInit(&gObj[n]);

  0016b	a1 00 00 00 00	 mov	 eax, DWORD PTR ?gObj@@3PAUOBJECTSTRUCT@@A ; gObj
  00170	03 c6		 add	 eax, esi
  00172	50		 push	 eax
  00173	e8 00 00 00 00	 call	 ?gObjMonsterHitDamageInit@@YAXPAUOBJECTSTRUCT@@@Z ; gObjMonsterHitDamageInit
  00178	83 c4 14	 add	 esp, 20			; 00000014H
$LN2@RegenGreat:

; 967  : 
; 968  : 	for (n=0;n<OBJ_MAXMONSTER;n++)

  0017b	81 c6 40 27 00
	00		 add	 esi, 10048		; 00002740H
  00181	81 fe 00 dd 49
	06		 cmp	 esi, 105504000		; 0649dd00H
  00187	0f 8c 93 fe ff
	ff		 jl	 $LL4@RegenGreat
  0018d	5f		 pop	 edi
  0018e	5e		 pop	 esi
  0018f	5b		 pop	 ebx

; 995  : 		}
; 996  : 	}
; 997  : }

  00190	8b e5		 mov	 esp, ebp
  00192	5d		 pop	 ebp
  00193	c3		 ret	 0
?RegenGreatDragon@CEledoradoEvent@@QAEXXZ ENDP		; CEledoradoEvent::RegenGreatDragon
_TEXT	ENDS
; Function compile flags: /Ogtp
; File c:\users\michel\desktop\source\gameserver\source\eledoradoevent.cpp
;	COMDAT ?RegenNeipin@CEledoradoEvent@@QAEXXZ
_TEXT	SEGMENT
?RegenNeipin@CEledoradoEvent@@QAEXXZ PROC		; CEledoradoEvent::RegenNeipin, COMDAT
; _this$ = ecx

; 928  : {

  00000	56		 push	 esi
  00001	57		 push	 edi

; 929  : 	int n=0;
; 930  : 	int MapNumber;
; 931  : 
; 932  : 	for (n=0;n<OBJ_MAXMONSTER;n++)

  00002	33 f6		 xor	 esi, esi
  00004	bf f4 01 00 00	 mov	 edi, 500		; 000001f4H
  00009	0f 1f 80 00 00
	00 00		 npad	 7
$LL4@RegenNeipi:

; 933  : 	{
; 934  : 		if ( gObj[n].Class == 500 )

  00010	a1 00 00 00 00	 mov	 eax, DWORD PTR ?gObj@@3PAUOBJECTSTRUCT@@A ; gObj
  00015	66 39 bc 06 90
	00 00 00	 cmp	 WORD PTR [esi+eax+144], di
  0001d	0f 85 3a 01 00
	00		 jne	 $LN2@RegenNeipi

; 935  : 		{
; 936  : 			gObj[n].Live = TRUE;

  00023	c6 44 06 51 01	 mov	 BYTE PTR [esi+eax+81], 1

; 937  : 			MapNumber = MAP_INDEX_SWAMPOFCALMNESS;
; 938  : 			gObj[n].MapNumber = MapNumber;

  00028	a1 00 00 00 00	 mov	 eax, DWORD PTR ?gObj@@3PAUOBJECTSTRUCT@@A ; gObj
  0002d	c6 84 06 23 01
	00 00 38	 mov	 BYTE PTR [esi+eax+291], 56 ; 00000038H
  00035	66 66 66 0f 1f
	84 00 00 00 00
	00		 npad	 11
$LL5@RegenNeipi:

; 939  : 
; 940  : 			while ( gMSetBase.GetBoxPosition(MapNumber, 1, 1, 255, 255, gObj[n].X, gObj[n].Y) == 0 )

  00040	8b 0d 00 00 00
	00		 mov	 ecx, DWORD PTR ?gObj@@3PAUOBJECTSTRUCT@@A ; gObj
  00046	8d 81 21 01 00
	00		 lea	 eax, DWORD PTR [ecx+289]
  0004c	03 c6		 add	 eax, esi
  0004e	50		 push	 eax
  0004f	8d 81 20 01 00
	00		 lea	 eax, DWORD PTR [ecx+288]
  00055	b9 00 00 00 00	 mov	 ecx, OFFSET ?gMSetBase@@3VCMonsterSetBase@@A ; gMSetBase
  0005a	03 c6		 add	 eax, esi
  0005c	50		 push	 eax
  0005d	68 ff 00 00 00	 push	 255			; 000000ffH
  00062	68 ff 00 00 00	 push	 255			; 000000ffH
  00067	6a 01		 push	 1
  00069	6a 01		 push	 1
  0006b	6a 38		 push	 56			; 00000038H
  0006d	e8 00 00 00 00	 call	 ?GetBoxPosition@CMonsterSetBase@@QAEHHHHHHAAE0@Z ; CMonsterSetBase::GetBoxPosition
  00072	85 c0		 test	 eax, eax
  00074	74 ca		 je	 SHORT $LL5@RegenNeipi

; 941  : 			{
; 942  : 
; 943  : 			}
; 944  : 
; 945  : 			gObj[n].Life = gObj[n].MaxLife;

  00076	8b 0d 00 00 00
	00		 mov	 ecx, DWORD PTR ?gObj@@3PAUOBJECTSTRUCT@@A ; gObj
  0007c	8b 84 0e dc 00
	00 00		 mov	 eax, DWORD PTR [esi+ecx+220]
  00083	89 84 0e d8 00
	00 00		 mov	 DWORD PTR [esi+ecx+216], eax

; 946  : 			gObj[n].TX = gObj[n].X;

  0008a	8b 0d 00 00 00
	00		 mov	 ecx, DWORD PTR ?gObj@@3PAUOBJECTSTRUCT@@A ; gObj
  00090	0f b6 84 0e 20
	01 00 00	 movzx	 eax, BYTE PTR [esi+ecx+288]
  00098	88 84 0e 52 01
	00 00		 mov	 BYTE PTR [esi+ecx+338], al

; 947  : 			gObj[n].TY = gObj[n].Y;

  0009f	8b 0d 00 00 00
	00		 mov	 ecx, DWORD PTR ?gObj@@3PAUOBJECTSTRUCT@@A ; gObj
  000a5	0f b6 84 0e 21
	01 00 00	 movzx	 eax, BYTE PTR [esi+ecx+289]
  000ad	88 84 0e 53 01
	00 00		 mov	 BYTE PTR [esi+ecx+339], al

; 948  : 			gObj[n].MTX = gObj[n].X;

  000b4	8b 0d 00 00 00
	00		 mov	 ecx, DWORD PTR ?gObj@@3PAUOBJECTSTRUCT@@A ; gObj
  000ba	0f b6 84 0e 20
	01 00 00	 movzx	 eax, BYTE PTR [esi+ecx+288]
  000c2	88 84 0e 54 01
	00 00		 mov	 BYTE PTR [esi+ecx+340], al

; 949  : 			gObj[n].MTY = gObj[n].Y;

  000c9	8b 0d 00 00 00
	00		 mov	 ecx, DWORD PTR ?gObj@@3PAUOBJECTSTRUCT@@A ; gObj
  000cf	0f b6 84 0e 21
	01 00 00	 movzx	 eax, BYTE PTR [esi+ecx+289]
  000d7	88 84 0e 55 01
	00 00		 mov	 BYTE PTR [esi+ecx+341], al

; 950  : 			gObj[n].StartX = gObj[n].X;

  000de	8b 0d 00 00 00
	00		 mov	 ecx, DWORD PTR ?gObj@@3PAUOBJECTSTRUCT@@A ; gObj
  000e4	0f b6 84 0e 20
	01 00 00	 movzx	 eax, BYTE PTR [esi+ecx+288]
  000ec	88 84 0e 4e 01
	00 00		 mov	 BYTE PTR [esi+ecx+334], al

; 951  : 			gObj[n].StartY = gObj[n].Y;

  000f3	8b 0d 00 00 00
	00		 mov	 ecx, DWORD PTR ?gObj@@3PAUOBJECTSTRUCT@@A ; gObj
  000f9	0f b6 84 0e 21
	01 00 00	 movzx	 eax, BYTE PTR [esi+ecx+289]
  00101	88 84 0e 4f 01
	00 00		 mov	 BYTE PTR [esi+ecx+335], al

; 952  : 			gObj[n].m_State = 1;

  00108	a1 00 00 00 00	 mov	 eax, DWORD PTR ?gObj@@3PAUOBJECTSTRUCT@@A ; gObj
  0010d	c7 84 06 d0 01
	00 00 01 00 00
	00		 mov	 DWORD PTR [esi+eax+464], 1

; 953  : 			gObj[n].PathCount = 0;

  00118	a1 00 00 00 00	 mov	 eax, DWORD PTR ?gObj@@3PAUOBJECTSTRUCT@@A ; gObj
  0011d	c7 84 06 58 01
	00 00 00 00 00
	00		 mov	 DWORD PTR [esi+eax+344], 0

; 954  : 
; 955  : 			LogAddTD("Make Golden Neipin : %d, %d,%d",

  00128	8b 0d 00 00 00
	00		 mov	 ecx, DWORD PTR ?gObj@@3PAUOBJECTSTRUCT@@A ; gObj
  0012e	0f b6 84 0e 21
	01 00 00	 movzx	 eax, BYTE PTR [esi+ecx+289]
  00136	50		 push	 eax
  00137	0f b6 84 0e 20
	01 00 00	 movzx	 eax, BYTE PTR [esi+ecx+288]
  0013f	50		 push	 eax
  00140	6a 38		 push	 56			; 00000038H
  00142	68 00 00 00 00	 push	 OFFSET ??_C@_0BP@OPFHHCOG@Make?5Golden?5Neipin?5?3?5?$CFd?0?5?$CFd?0?$CFd?$AA@
  00147	ff 15 00 00 00
	00		 call	 DWORD PTR ?LogAddTD@@3P6AXPADZZA ; LogAddTD

; 956  : 				MapNumber, gObj[n].X, gObj[n].Y);
; 957  : 
; 958  : 			gObjMonsterHitDamageInit(&gObj[n]);

  0014d	a1 00 00 00 00	 mov	 eax, DWORD PTR ?gObj@@3PAUOBJECTSTRUCT@@A ; gObj
  00152	03 c6		 add	 eax, esi
  00154	50		 push	 eax
  00155	e8 00 00 00 00	 call	 ?gObjMonsterHitDamageInit@@YAXPAUOBJECTSTRUCT@@@Z ; gObjMonsterHitDamageInit
  0015a	83 c4 14	 add	 esp, 20			; 00000014H
$LN2@RegenNeipi:

; 929  : 	int n=0;
; 930  : 	int MapNumber;
; 931  : 
; 932  : 	for (n=0;n<OBJ_MAXMONSTER;n++)

  0015d	81 c6 40 27 00
	00		 add	 esi, 10048		; 00002740H
  00163	81 fe 00 dd 49
	06		 cmp	 esi, 105504000		; 0649dd00H
  00169	0f 8c a1 fe ff
	ff		 jl	 $LL4@RegenNeipi

; 959  : 		}
; 960  : 	}
; 961  : }

  0016f	5f		 pop	 edi
  00170	5e		 pop	 esi
  00171	c3		 ret	 0
?RegenNeipin@CEledoradoEvent@@QAEXXZ ENDP		; CEledoradoEvent::RegenNeipin
_TEXT	ENDS
; Function compile flags: /Ogtp
; File c:\users\michel\desktop\source\gameserver\source\eledoradoevent.cpp
;	COMDAT ?RegenIronKnight@CEledoradoEvent@@QAEXXZ
_TEXT	SEGMENT
?RegenIronKnight@CEledoradoEvent@@QAEXXZ PROC		; CEledoradoEvent::RegenIronKnight, COMDAT
; _this$ = ecx

; 891  : {

  00000	56		 push	 esi
  00001	57		 push	 edi

; 892  : 	int n=0;
; 893  : 	int MapNumber;
; 894  : 
; 895  : 	for (n=0;n<OBJ_MAXMONSTER;n++)

  00002	33 f6		 xor	 esi, esi
  00004	bf f3 01 00 00	 mov	 edi, 499		; 000001f3H
  00009	0f 1f 80 00 00
	00 00		 npad	 7
$LL4@RegenIronK:

; 896  : 	{
; 897  : 		if ( gObj[n].Class == 499 )

  00010	a1 00 00 00 00	 mov	 eax, DWORD PTR ?gObj@@3PAUOBJECTSTRUCT@@A ; gObj
  00015	66 39 bc 06 90
	00 00 00	 cmp	 WORD PTR [esi+eax+144], di
  0001d	0f 85 3a 01 00
	00		 jne	 $LN2@RegenIronK

; 898  : 		{
; 899  : 			gObj[n].Live = TRUE;

  00023	c6 44 06 51 01	 mov	 BYTE PTR [esi+eax+81], 1

; 900  : 			MapNumber = MAP_INDEX_RAKLION;
; 901  : 			gObj[n].MapNumber = MapNumber;

  00028	a1 00 00 00 00	 mov	 eax, DWORD PTR ?gObj@@3PAUOBJECTSTRUCT@@A ; gObj
  0002d	c6 84 06 23 01
	00 00 39	 mov	 BYTE PTR [esi+eax+291], 57 ; 00000039H
  00035	66 66 66 0f 1f
	84 00 00 00 00
	00		 npad	 11
$LL5@RegenIronK:

; 902  : 
; 903  : 			while ( gMSetBase.GetBoxPosition(MapNumber, 1, 1, 255, 255, gObj[n].X, gObj[n].Y) == 0 )

  00040	8b 0d 00 00 00
	00		 mov	 ecx, DWORD PTR ?gObj@@3PAUOBJECTSTRUCT@@A ; gObj
  00046	8d 81 21 01 00
	00		 lea	 eax, DWORD PTR [ecx+289]
  0004c	03 c6		 add	 eax, esi
  0004e	50		 push	 eax
  0004f	8d 81 20 01 00
	00		 lea	 eax, DWORD PTR [ecx+288]
  00055	b9 00 00 00 00	 mov	 ecx, OFFSET ?gMSetBase@@3VCMonsterSetBase@@A ; gMSetBase
  0005a	03 c6		 add	 eax, esi
  0005c	50		 push	 eax
  0005d	68 ff 00 00 00	 push	 255			; 000000ffH
  00062	68 ff 00 00 00	 push	 255			; 000000ffH
  00067	6a 01		 push	 1
  00069	6a 01		 push	 1
  0006b	6a 39		 push	 57			; 00000039H
  0006d	e8 00 00 00 00	 call	 ?GetBoxPosition@CMonsterSetBase@@QAEHHHHHHAAE0@Z ; CMonsterSetBase::GetBoxPosition
  00072	85 c0		 test	 eax, eax
  00074	74 ca		 je	 SHORT $LL5@RegenIronK

; 904  : 			{
; 905  : 
; 906  : 			}
; 907  : 
; 908  : 			gObj[n].Life = gObj[n].MaxLife;

  00076	8b 0d 00 00 00
	00		 mov	 ecx, DWORD PTR ?gObj@@3PAUOBJECTSTRUCT@@A ; gObj
  0007c	8b 84 0e dc 00
	00 00		 mov	 eax, DWORD PTR [esi+ecx+220]
  00083	89 84 0e d8 00
	00 00		 mov	 DWORD PTR [esi+ecx+216], eax

; 909  : 			gObj[n].TX = gObj[n].X;

  0008a	8b 0d 00 00 00
	00		 mov	 ecx, DWORD PTR ?gObj@@3PAUOBJECTSTRUCT@@A ; gObj
  00090	0f b6 84 0e 20
	01 00 00	 movzx	 eax, BYTE PTR [esi+ecx+288]
  00098	88 84 0e 52 01
	00 00		 mov	 BYTE PTR [esi+ecx+338], al

; 910  : 			gObj[n].TY = gObj[n].Y;

  0009f	8b 0d 00 00 00
	00		 mov	 ecx, DWORD PTR ?gObj@@3PAUOBJECTSTRUCT@@A ; gObj
  000a5	0f b6 84 0e 21
	01 00 00	 movzx	 eax, BYTE PTR [esi+ecx+289]
  000ad	88 84 0e 53 01
	00 00		 mov	 BYTE PTR [esi+ecx+339], al

; 911  : 			gObj[n].MTX = gObj[n].X;

  000b4	8b 0d 00 00 00
	00		 mov	 ecx, DWORD PTR ?gObj@@3PAUOBJECTSTRUCT@@A ; gObj
  000ba	0f b6 84 0e 20
	01 00 00	 movzx	 eax, BYTE PTR [esi+ecx+288]
  000c2	88 84 0e 54 01
	00 00		 mov	 BYTE PTR [esi+ecx+340], al

; 912  : 			gObj[n].MTY = gObj[n].Y;

  000c9	8b 0d 00 00 00
	00		 mov	 ecx, DWORD PTR ?gObj@@3PAUOBJECTSTRUCT@@A ; gObj
  000cf	0f b6 84 0e 21
	01 00 00	 movzx	 eax, BYTE PTR [esi+ecx+289]
  000d7	88 84 0e 55 01
	00 00		 mov	 BYTE PTR [esi+ecx+341], al

; 913  : 			gObj[n].StartX = gObj[n].X;

  000de	8b 0d 00 00 00
	00		 mov	 ecx, DWORD PTR ?gObj@@3PAUOBJECTSTRUCT@@A ; gObj
  000e4	0f b6 84 0e 20
	01 00 00	 movzx	 eax, BYTE PTR [esi+ecx+288]
  000ec	88 84 0e 4e 01
	00 00		 mov	 BYTE PTR [esi+ecx+334], al

; 914  : 			gObj[n].StartY = gObj[n].Y;

  000f3	8b 0d 00 00 00
	00		 mov	 ecx, DWORD PTR ?gObj@@3PAUOBJECTSTRUCT@@A ; gObj
  000f9	0f b6 84 0e 21
	01 00 00	 movzx	 eax, BYTE PTR [esi+ecx+289]
  00101	88 84 0e 4f 01
	00 00		 mov	 BYTE PTR [esi+ecx+335], al

; 915  : 			gObj[n].m_State = 1;

  00108	a1 00 00 00 00	 mov	 eax, DWORD PTR ?gObj@@3PAUOBJECTSTRUCT@@A ; gObj
  0010d	c7 84 06 d0 01
	00 00 01 00 00
	00		 mov	 DWORD PTR [esi+eax+464], 1

; 916  : 			gObj[n].PathCount = 0;

  00118	a1 00 00 00 00	 mov	 eax, DWORD PTR ?gObj@@3PAUOBJECTSTRUCT@@A ; gObj
  0011d	c7 84 06 58 01
	00 00 00 00 00
	00		 mov	 DWORD PTR [esi+eax+344], 0

; 917  : 
; 918  : 			LogAddTD("Make Golden IronKnight : %d, %d,%d",

  00128	8b 0d 00 00 00
	00		 mov	 ecx, DWORD PTR ?gObj@@3PAUOBJECTSTRUCT@@A ; gObj
  0012e	0f b6 84 0e 21
	01 00 00	 movzx	 eax, BYTE PTR [esi+ecx+289]
  00136	50		 push	 eax
  00137	0f b6 84 0e 20
	01 00 00	 movzx	 eax, BYTE PTR [esi+ecx+288]
  0013f	50		 push	 eax
  00140	6a 39		 push	 57			; 00000039H
  00142	68 00 00 00 00	 push	 OFFSET ??_C@_0CD@HFHDLHIH@Make?5Golden?5IronKnight?5?3?5?$CFd?0?5?$CFd?0@
  00147	ff 15 00 00 00
	00		 call	 DWORD PTR ?LogAddTD@@3P6AXPADZZA ; LogAddTD

; 919  : 				MapNumber, gObj[n].X, gObj[n].Y);
; 920  : 
; 921  : 			gObjMonsterHitDamageInit(&gObj[n]);

  0014d	a1 00 00 00 00	 mov	 eax, DWORD PTR ?gObj@@3PAUOBJECTSTRUCT@@A ; gObj
  00152	03 c6		 add	 eax, esi
  00154	50		 push	 eax
  00155	e8 00 00 00 00	 call	 ?gObjMonsterHitDamageInit@@YAXPAUOBJECTSTRUCT@@@Z ; gObjMonsterHitDamageInit
  0015a	83 c4 14	 add	 esp, 20			; 00000014H
$LN2@RegenIronK:

; 892  : 	int n=0;
; 893  : 	int MapNumber;
; 894  : 
; 895  : 	for (n=0;n<OBJ_MAXMONSTER;n++)

  0015d	81 c6 40 27 00
	00		 add	 esi, 10048		; 00002740H
  00163	81 fe 00 dd 49
	06		 cmp	 esi, 105504000		; 0649dd00H
  00169	0f 8c a1 fe ff
	ff		 jl	 $LL4@RegenIronK

; 922  : 		}
; 923  : 	}
; 924  : }

  0016f	5f		 pop	 edi
  00170	5e		 pop	 esi
  00171	c3		 ret	 0
?RegenIronKnight@CEledoradoEvent@@QAEXXZ ENDP		; CEledoradoEvent::RegenIronKnight
_TEXT	ENDS
; Function compile flags: /Ogtp
; File c:\users\michel\desktop\source\gameserver\source\eledoradoevent.cpp
;	COMDAT ?RegenTwintail@CEledoradoEvent@@QAEXXZ
_TEXT	SEGMENT
?RegenTwintail@CEledoradoEvent@@QAEXXZ PROC		; CEledoradoEvent::RegenTwintail, COMDAT
; _this$ = ecx

; 855  : {

  00000	56		 push	 esi
  00001	57		 push	 edi

; 856  : 	int n=0;
; 857  : 	int MapNumber;
; 858  : 
; 859  : 	for (n=0;n<OBJ_MAXMONSTER;n++)

  00002	33 f6		 xor	 esi, esi
  00004	bf f2 01 00 00	 mov	 edi, 498		; 000001f2H
  00009	0f 1f 80 00 00
	00 00		 npad	 7
$LL4@RegenTwint:

; 860  : 	{
; 861  : 		if ( gObj[n].Class == 498 )

  00010	a1 00 00 00 00	 mov	 eax, DWORD PTR ?gObj@@3PAUOBJECTSTRUCT@@A ; gObj
  00015	66 39 bc 06 90
	00 00 00	 cmp	 WORD PTR [esi+eax+144], di
  0001d	0f 85 3a 01 00
	00		 jne	 $LN2@RegenTwint

; 862  : 		{
; 863  : 			gObj[n].Live = TRUE;

  00023	c6 44 06 51 01	 mov	 BYTE PTR [esi+eax+81], 1

; 864  : 			MapNumber = MAP_INDEX_KANTURU2;
; 865  : 			gObj[n].MapNumber = MapNumber;

  00028	a1 00 00 00 00	 mov	 eax, DWORD PTR ?gObj@@3PAUOBJECTSTRUCT@@A ; gObj
  0002d	c6 84 06 23 01
	00 00 26	 mov	 BYTE PTR [esi+eax+291], 38 ; 00000026H
  00035	66 66 66 0f 1f
	84 00 00 00 00
	00		 npad	 11
$LL5@RegenTwint:

; 866  : 
; 867  : 			while ( gMSetBase.GetBoxPosition(MapNumber, 1, 1, 255, 255, gObj[n].X, gObj[n].Y) == 0 )

  00040	8b 0d 00 00 00
	00		 mov	 ecx, DWORD PTR ?gObj@@3PAUOBJECTSTRUCT@@A ; gObj
  00046	8d 81 21 01 00
	00		 lea	 eax, DWORD PTR [ecx+289]
  0004c	03 c6		 add	 eax, esi
  0004e	50		 push	 eax
  0004f	8d 81 20 01 00
	00		 lea	 eax, DWORD PTR [ecx+288]
  00055	b9 00 00 00 00	 mov	 ecx, OFFSET ?gMSetBase@@3VCMonsterSetBase@@A ; gMSetBase
  0005a	03 c6		 add	 eax, esi
  0005c	50		 push	 eax
  0005d	68 ff 00 00 00	 push	 255			; 000000ffH
  00062	68 ff 00 00 00	 push	 255			; 000000ffH
  00067	6a 01		 push	 1
  00069	6a 01		 push	 1
  0006b	6a 26		 push	 38			; 00000026H
  0006d	e8 00 00 00 00	 call	 ?GetBoxPosition@CMonsterSetBase@@QAEHHHHHHAAE0@Z ; CMonsterSetBase::GetBoxPosition
  00072	85 c0		 test	 eax, eax
  00074	74 ca		 je	 SHORT $LL5@RegenTwint

; 868  : 			{
; 869  : 
; 870  : 			}
; 871  : 
; 872  : 			gObj[n].Life = gObj[n].MaxLife;

  00076	8b 0d 00 00 00
	00		 mov	 ecx, DWORD PTR ?gObj@@3PAUOBJECTSTRUCT@@A ; gObj
  0007c	8b 84 0e dc 00
	00 00		 mov	 eax, DWORD PTR [esi+ecx+220]
  00083	89 84 0e d8 00
	00 00		 mov	 DWORD PTR [esi+ecx+216], eax

; 873  : 			gObj[n].TX = gObj[n].X;

  0008a	8b 0d 00 00 00
	00		 mov	 ecx, DWORD PTR ?gObj@@3PAUOBJECTSTRUCT@@A ; gObj
  00090	0f b6 84 0e 20
	01 00 00	 movzx	 eax, BYTE PTR [esi+ecx+288]
  00098	88 84 0e 52 01
	00 00		 mov	 BYTE PTR [esi+ecx+338], al

; 874  : 			gObj[n].TY = gObj[n].Y;

  0009f	8b 0d 00 00 00
	00		 mov	 ecx, DWORD PTR ?gObj@@3PAUOBJECTSTRUCT@@A ; gObj
  000a5	0f b6 84 0e 21
	01 00 00	 movzx	 eax, BYTE PTR [esi+ecx+289]
  000ad	88 84 0e 53 01
	00 00		 mov	 BYTE PTR [esi+ecx+339], al

; 875  : 			gObj[n].MTX = gObj[n].X;

  000b4	8b 0d 00 00 00
	00		 mov	 ecx, DWORD PTR ?gObj@@3PAUOBJECTSTRUCT@@A ; gObj
  000ba	0f b6 84 0e 20
	01 00 00	 movzx	 eax, BYTE PTR [esi+ecx+288]
  000c2	88 84 0e 54 01
	00 00		 mov	 BYTE PTR [esi+ecx+340], al

; 876  : 			gObj[n].MTY = gObj[n].Y;

  000c9	8b 0d 00 00 00
	00		 mov	 ecx, DWORD PTR ?gObj@@3PAUOBJECTSTRUCT@@A ; gObj
  000cf	0f b6 84 0e 21
	01 00 00	 movzx	 eax, BYTE PTR [esi+ecx+289]
  000d7	88 84 0e 55 01
	00 00		 mov	 BYTE PTR [esi+ecx+341], al

; 877  : 			gObj[n].StartX = gObj[n].X;

  000de	8b 0d 00 00 00
	00		 mov	 ecx, DWORD PTR ?gObj@@3PAUOBJECTSTRUCT@@A ; gObj
  000e4	0f b6 84 0e 20
	01 00 00	 movzx	 eax, BYTE PTR [esi+ecx+288]
  000ec	88 84 0e 4e 01
	00 00		 mov	 BYTE PTR [esi+ecx+334], al

; 878  : 			gObj[n].StartY = gObj[n].Y;

  000f3	8b 0d 00 00 00
	00		 mov	 ecx, DWORD PTR ?gObj@@3PAUOBJECTSTRUCT@@A ; gObj
  000f9	0f b6 84 0e 21
	01 00 00	 movzx	 eax, BYTE PTR [esi+ecx+289]
  00101	88 84 0e 4f 01
	00 00		 mov	 BYTE PTR [esi+ecx+335], al

; 879  : 			gObj[n].m_State = 1;

  00108	a1 00 00 00 00	 mov	 eax, DWORD PTR ?gObj@@3PAUOBJECTSTRUCT@@A ; gObj
  0010d	c7 84 06 d0 01
	00 00 01 00 00
	00		 mov	 DWORD PTR [esi+eax+464], 1

; 880  : 			gObj[n].PathCount = 0;

  00118	a1 00 00 00 00	 mov	 eax, DWORD PTR ?gObj@@3PAUOBJECTSTRUCT@@A ; gObj
  0011d	c7 84 06 58 01
	00 00 00 00 00
	00		 mov	 DWORD PTR [esi+eax+344], 0

; 881  : 
; 882  : 			LogAddTD("Make Golden Twintail : %d, %d,%d",

  00128	8b 0d 00 00 00
	00		 mov	 ecx, DWORD PTR ?gObj@@3PAUOBJECTSTRUCT@@A ; gObj
  0012e	0f b6 84 0e 21
	01 00 00	 movzx	 eax, BYTE PTR [esi+ecx+289]
  00136	50		 push	 eax
  00137	0f b6 84 0e 20
	01 00 00	 movzx	 eax, BYTE PTR [esi+ecx+288]
  0013f	50		 push	 eax
  00140	6a 26		 push	 38			; 00000026H
  00142	68 00 00 00 00	 push	 OFFSET ??_C@_0CB@CCGIMCLF@Make?5Golden?5Twintail?5?3?5?$CFd?0?5?$CFd?0?$CFd@
  00147	ff 15 00 00 00
	00		 call	 DWORD PTR ?LogAddTD@@3P6AXPADZZA ; LogAddTD

; 883  : 				MapNumber, gObj[n].X, gObj[n].Y);
; 884  : 
; 885  : 			gObjMonsterHitDamageInit(&gObj[n]);

  0014d	a1 00 00 00 00	 mov	 eax, DWORD PTR ?gObj@@3PAUOBJECTSTRUCT@@A ; gObj
  00152	03 c6		 add	 eax, esi
  00154	50		 push	 eax
  00155	e8 00 00 00 00	 call	 ?gObjMonsterHitDamageInit@@YAXPAUOBJECTSTRUCT@@@Z ; gObjMonsterHitDamageInit
  0015a	83 c4 14	 add	 esp, 20			; 00000014H
$LN2@RegenTwint:

; 856  : 	int n=0;
; 857  : 	int MapNumber;
; 858  : 
; 859  : 	for (n=0;n<OBJ_MAXMONSTER;n++)

  0015d	81 c6 40 27 00
	00		 add	 esi, 10048		; 00002740H
  00163	81 fe 00 dd 49
	06		 cmp	 esi, 105504000		; 0649dd00H
  00169	0f 8c a1 fe ff
	ff		 jl	 $LL4@RegenTwint

; 886  : 		}
; 887  : 	}
; 888  : }

  0016f	5f		 pop	 edi
  00170	5e		 pop	 esi
  00171	c3		 ret	 0
?RegenTwintail@CEledoradoEvent@@QAEXXZ ENDP		; CEledoradoEvent::RegenTwintail
_TEXT	ENDS
; Function compile flags: /Ogtp
; File c:\users\michel\desktop\source\gameserver\source\eledoradoevent.cpp
;	COMDAT ?RegenSatiros@CEledoradoEvent@@QAEXXZ
_TEXT	SEGMENT
?RegenSatiros@CEledoradoEvent@@QAEXXZ PROC		; CEledoradoEvent::RegenSatiros, COMDAT
; _this$ = ecx

; 820  : {

  00000	56		 push	 esi
  00001	57		 push	 edi

; 821  : 	int n=0;
; 822  : 	int MapNumber;
; 823  : 
; 824  : 	for (n=0;n<OBJ_MAXMONSTER;n++)

  00002	33 f6		 xor	 esi, esi
  00004	bf f1 01 00 00	 mov	 edi, 497		; 000001f1H
  00009	0f 1f 80 00 00
	00 00		 npad	 7
$LL4@RegenSatir:

; 825  : 	{
; 826  : 		if ( gObj[n].Class == 497 )

  00010	a1 00 00 00 00	 mov	 eax, DWORD PTR ?gObj@@3PAUOBJECTSTRUCT@@A ; gObj
  00015	66 39 bc 06 90
	00 00 00	 cmp	 WORD PTR [esi+eax+144], di
  0001d	0f 85 3a 01 00
	00		 jne	 $LN2@RegenSatir

; 827  : 		{
; 828  : 			gObj[n].Live = TRUE;

  00023	c6 44 06 51 01	 mov	 BYTE PTR [esi+eax+81], 1

; 829  : 			MapNumber = MAP_INDEX_KANTURU1;
; 830  : 			gObj[n].MapNumber = MapNumber;

  00028	a1 00 00 00 00	 mov	 eax, DWORD PTR ?gObj@@3PAUOBJECTSTRUCT@@A ; gObj
  0002d	c6 84 06 23 01
	00 00 25	 mov	 BYTE PTR [esi+eax+291], 37 ; 00000025H
  00035	66 66 66 0f 1f
	84 00 00 00 00
	00		 npad	 11
$LL5@RegenSatir:

; 831  : 
; 832  : 			while ( gMSetBase.GetBoxPosition(MapNumber, 1, 1, 255, 255, gObj[n].X, gObj[n].Y) == 0 )

  00040	8b 0d 00 00 00
	00		 mov	 ecx, DWORD PTR ?gObj@@3PAUOBJECTSTRUCT@@A ; gObj
  00046	8d 81 21 01 00
	00		 lea	 eax, DWORD PTR [ecx+289]
  0004c	03 c6		 add	 eax, esi
  0004e	50		 push	 eax
  0004f	8d 81 20 01 00
	00		 lea	 eax, DWORD PTR [ecx+288]
  00055	b9 00 00 00 00	 mov	 ecx, OFFSET ?gMSetBase@@3VCMonsterSetBase@@A ; gMSetBase
  0005a	03 c6		 add	 eax, esi
  0005c	50		 push	 eax
  0005d	68 ff 00 00 00	 push	 255			; 000000ffH
  00062	68 ff 00 00 00	 push	 255			; 000000ffH
  00067	6a 01		 push	 1
  00069	6a 01		 push	 1
  0006b	6a 25		 push	 37			; 00000025H
  0006d	e8 00 00 00 00	 call	 ?GetBoxPosition@CMonsterSetBase@@QAEHHHHHHAAE0@Z ; CMonsterSetBase::GetBoxPosition
  00072	85 c0		 test	 eax, eax
  00074	74 ca		 je	 SHORT $LL5@RegenSatir

; 833  : 			{
; 834  : 
; 835  : 			}
; 836  : 
; 837  : 			gObj[n].Life = gObj[n].MaxLife;

  00076	8b 0d 00 00 00
	00		 mov	 ecx, DWORD PTR ?gObj@@3PAUOBJECTSTRUCT@@A ; gObj
  0007c	8b 84 0e dc 00
	00 00		 mov	 eax, DWORD PTR [esi+ecx+220]
  00083	89 84 0e d8 00
	00 00		 mov	 DWORD PTR [esi+ecx+216], eax

; 838  : 			gObj[n].TX = gObj[n].X;

  0008a	8b 0d 00 00 00
	00		 mov	 ecx, DWORD PTR ?gObj@@3PAUOBJECTSTRUCT@@A ; gObj
  00090	0f b6 84 0e 20
	01 00 00	 movzx	 eax, BYTE PTR [esi+ecx+288]
  00098	88 84 0e 52 01
	00 00		 mov	 BYTE PTR [esi+ecx+338], al

; 839  : 			gObj[n].TY = gObj[n].Y;

  0009f	8b 0d 00 00 00
	00		 mov	 ecx, DWORD PTR ?gObj@@3PAUOBJECTSTRUCT@@A ; gObj
  000a5	0f b6 84 0e 21
	01 00 00	 movzx	 eax, BYTE PTR [esi+ecx+289]
  000ad	88 84 0e 53 01
	00 00		 mov	 BYTE PTR [esi+ecx+339], al

; 840  : 			gObj[n].MTX = gObj[n].X;

  000b4	8b 0d 00 00 00
	00		 mov	 ecx, DWORD PTR ?gObj@@3PAUOBJECTSTRUCT@@A ; gObj
  000ba	0f b6 84 0e 20
	01 00 00	 movzx	 eax, BYTE PTR [esi+ecx+288]
  000c2	88 84 0e 54 01
	00 00		 mov	 BYTE PTR [esi+ecx+340], al

; 841  : 			gObj[n].MTY = gObj[n].Y;

  000c9	8b 0d 00 00 00
	00		 mov	 ecx, DWORD PTR ?gObj@@3PAUOBJECTSTRUCT@@A ; gObj
  000cf	0f b6 84 0e 21
	01 00 00	 movzx	 eax, BYTE PTR [esi+ecx+289]
  000d7	88 84 0e 55 01
	00 00		 mov	 BYTE PTR [esi+ecx+341], al

; 842  : 			gObj[n].StartX = gObj[n].X;

  000de	8b 0d 00 00 00
	00		 mov	 ecx, DWORD PTR ?gObj@@3PAUOBJECTSTRUCT@@A ; gObj
  000e4	0f b6 84 0e 20
	01 00 00	 movzx	 eax, BYTE PTR [esi+ecx+288]
  000ec	88 84 0e 4e 01
	00 00		 mov	 BYTE PTR [esi+ecx+334], al

; 843  : 			gObj[n].StartY = gObj[n].Y;

  000f3	8b 0d 00 00 00
	00		 mov	 ecx, DWORD PTR ?gObj@@3PAUOBJECTSTRUCT@@A ; gObj
  000f9	0f b6 84 0e 21
	01 00 00	 movzx	 eax, BYTE PTR [esi+ecx+289]
  00101	88 84 0e 4f 01
	00 00		 mov	 BYTE PTR [esi+ecx+335], al

; 844  : 			gObj[n].m_State = 1;

  00108	a1 00 00 00 00	 mov	 eax, DWORD PTR ?gObj@@3PAUOBJECTSTRUCT@@A ; gObj
  0010d	c7 84 06 d0 01
	00 00 01 00 00
	00		 mov	 DWORD PTR [esi+eax+464], 1

; 845  : 			gObj[n].PathCount = 0;

  00118	a1 00 00 00 00	 mov	 eax, DWORD PTR ?gObj@@3PAUOBJECTSTRUCT@@A ; gObj
  0011d	c7 84 06 58 01
	00 00 00 00 00
	00		 mov	 DWORD PTR [esi+eax+344], 0

; 846  : 
; 847  : 			LogAddTD("Make Golden Satiros : %d, %d,%d",

  00128	8b 0d 00 00 00
	00		 mov	 ecx, DWORD PTR ?gObj@@3PAUOBJECTSTRUCT@@A ; gObj
  0012e	0f b6 84 0e 21
	01 00 00	 movzx	 eax, BYTE PTR [esi+ecx+289]
  00136	50		 push	 eax
  00137	0f b6 84 0e 20
	01 00 00	 movzx	 eax, BYTE PTR [esi+ecx+288]
  0013f	50		 push	 eax
  00140	6a 25		 push	 37			; 00000025H
  00142	68 00 00 00 00	 push	 OFFSET ??_C@_0CA@KKDIEMFO@Make?5Golden?5Satiros?5?3?5?$CFd?0?5?$CFd?0?$CFd?$AA@
  00147	ff 15 00 00 00
	00		 call	 DWORD PTR ?LogAddTD@@3P6AXPADZZA ; LogAddTD

; 848  : 				MapNumber, gObj[n].X, gObj[n].Y);
; 849  : 
; 850  : 			gObjMonsterHitDamageInit(&gObj[n]);

  0014d	a1 00 00 00 00	 mov	 eax, DWORD PTR ?gObj@@3PAUOBJECTSTRUCT@@A ; gObj
  00152	03 c6		 add	 eax, esi
  00154	50		 push	 eax
  00155	e8 00 00 00 00	 call	 ?gObjMonsterHitDamageInit@@YAXPAUOBJECTSTRUCT@@@Z ; gObjMonsterHitDamageInit
  0015a	83 c4 14	 add	 esp, 20			; 00000014H
$LN2@RegenSatir:

; 821  : 	int n=0;
; 822  : 	int MapNumber;
; 823  : 
; 824  : 	for (n=0;n<OBJ_MAXMONSTER;n++)

  0015d	81 c6 40 27 00
	00		 add	 esi, 10048		; 00002740H
  00163	81 fe 00 dd 49
	06		 cmp	 esi, 105504000		; 0649dd00H
  00169	0f 8c a1 fe ff
	ff		 jl	 $LL4@RegenSatir

; 851  : 		}
; 852  : 	}
; 853  : }

  0016f	5f		 pop	 edi
  00170	5e		 pop	 esi
  00171	c3		 ret	 0
?RegenSatiros@CEledoradoEvent@@QAEXXZ ENDP		; CEledoradoEvent::RegenSatiros
_TEXT	ENDS
; Function compile flags: /Ogtp
; File c:\users\michel\desktop\source\gameserver\source\eledoradoevent.cpp
;	COMDAT ?RegenCrust@CEledoradoEvent@@QAEXXZ
_TEXT	SEGMENT
?RegenCrust@CEledoradoEvent@@QAEXXZ PROC		; CEledoradoEvent::RegenCrust, COMDAT
; _this$ = ecx

; 784  : {

  00000	56		 push	 esi
  00001	57		 push	 edi

; 785  : 	int n=0;
; 786  : 	int MapNumber;
; 787  : 
; 788  : 	for (n=0;n<OBJ_MAXMONSTER;n++)

  00002	33 f6		 xor	 esi, esi
  00004	bf f0 01 00 00	 mov	 edi, 496		; 000001f0H
  00009	0f 1f 80 00 00
	00 00		 npad	 7
$LL4@RegenCrust:

; 789  : 	{
; 790  : 		if ( gObj[n].Class == 496 )

  00010	a1 00 00 00 00	 mov	 eax, DWORD PTR ?gObj@@3PAUOBJECTSTRUCT@@A ; gObj
  00015	66 39 bc 06 90
	00 00 00	 cmp	 WORD PTR [esi+eax+144], di
  0001d	0f 85 3a 01 00
	00		 jne	 $LN2@RegenCrust

; 791  : 		{
; 792  : 			gObj[n].Live = TRUE;

  00023	c6 44 06 51 01	 mov	 BYTE PTR [esi+eax+81], 1

; 793  : 			MapNumber = MAP_INDEX_ICARUS;
; 794  : 			gObj[n].MapNumber = MapNumber;

  00028	a1 00 00 00 00	 mov	 eax, DWORD PTR ?gObj@@3PAUOBJECTSTRUCT@@A ; gObj
  0002d	c6 84 06 23 01
	00 00 0a	 mov	 BYTE PTR [esi+eax+291], 10 ; 0000000aH
  00035	66 66 66 0f 1f
	84 00 00 00 00
	00		 npad	 11
$LL5@RegenCrust:

; 795  : 
; 796  : 			while ( gMSetBase.GetBoxPosition(MapNumber, 1, 1, 255, 255, gObj[n].X, gObj[n].Y) == 0 )

  00040	8b 0d 00 00 00
	00		 mov	 ecx, DWORD PTR ?gObj@@3PAUOBJECTSTRUCT@@A ; gObj
  00046	8d 81 21 01 00
	00		 lea	 eax, DWORD PTR [ecx+289]
  0004c	03 c6		 add	 eax, esi
  0004e	50		 push	 eax
  0004f	8d 81 20 01 00
	00		 lea	 eax, DWORD PTR [ecx+288]
  00055	b9 00 00 00 00	 mov	 ecx, OFFSET ?gMSetBase@@3VCMonsterSetBase@@A ; gMSetBase
  0005a	03 c6		 add	 eax, esi
  0005c	50		 push	 eax
  0005d	68 ff 00 00 00	 push	 255			; 000000ffH
  00062	68 ff 00 00 00	 push	 255			; 000000ffH
  00067	6a 01		 push	 1
  00069	6a 01		 push	 1
  0006b	6a 0a		 push	 10			; 0000000aH
  0006d	e8 00 00 00 00	 call	 ?GetBoxPosition@CMonsterSetBase@@QAEHHHHHHAAE0@Z ; CMonsterSetBase::GetBoxPosition
  00072	85 c0		 test	 eax, eax
  00074	74 ca		 je	 SHORT $LL5@RegenCrust

; 797  : 			{
; 798  : 
; 799  : 			}
; 800  : 
; 801  : 			gObj[n].Life = gObj[n].MaxLife;

  00076	8b 0d 00 00 00
	00		 mov	 ecx, DWORD PTR ?gObj@@3PAUOBJECTSTRUCT@@A ; gObj
  0007c	8b 84 0e dc 00
	00 00		 mov	 eax, DWORD PTR [esi+ecx+220]
  00083	89 84 0e d8 00
	00 00		 mov	 DWORD PTR [esi+ecx+216], eax

; 802  : 			gObj[n].TX = gObj[n].X;

  0008a	8b 0d 00 00 00
	00		 mov	 ecx, DWORD PTR ?gObj@@3PAUOBJECTSTRUCT@@A ; gObj
  00090	0f b6 84 0e 20
	01 00 00	 movzx	 eax, BYTE PTR [esi+ecx+288]
  00098	88 84 0e 52 01
	00 00		 mov	 BYTE PTR [esi+ecx+338], al

; 803  : 			gObj[n].TY = gObj[n].Y;

  0009f	8b 0d 00 00 00
	00		 mov	 ecx, DWORD PTR ?gObj@@3PAUOBJECTSTRUCT@@A ; gObj
  000a5	0f b6 84 0e 21
	01 00 00	 movzx	 eax, BYTE PTR [esi+ecx+289]
  000ad	88 84 0e 53 01
	00 00		 mov	 BYTE PTR [esi+ecx+339], al

; 804  : 			gObj[n].MTX = gObj[n].X;

  000b4	8b 0d 00 00 00
	00		 mov	 ecx, DWORD PTR ?gObj@@3PAUOBJECTSTRUCT@@A ; gObj
  000ba	0f b6 84 0e 20
	01 00 00	 movzx	 eax, BYTE PTR [esi+ecx+288]
  000c2	88 84 0e 54 01
	00 00		 mov	 BYTE PTR [esi+ecx+340], al

; 805  : 			gObj[n].MTY = gObj[n].Y;

  000c9	8b 0d 00 00 00
	00		 mov	 ecx, DWORD PTR ?gObj@@3PAUOBJECTSTRUCT@@A ; gObj
  000cf	0f b6 84 0e 21
	01 00 00	 movzx	 eax, BYTE PTR [esi+ecx+289]
  000d7	88 84 0e 55 01
	00 00		 mov	 BYTE PTR [esi+ecx+341], al

; 806  : 			gObj[n].StartX = gObj[n].X;

  000de	8b 0d 00 00 00
	00		 mov	 ecx, DWORD PTR ?gObj@@3PAUOBJECTSTRUCT@@A ; gObj
  000e4	0f b6 84 0e 20
	01 00 00	 movzx	 eax, BYTE PTR [esi+ecx+288]
  000ec	88 84 0e 4e 01
	00 00		 mov	 BYTE PTR [esi+ecx+334], al

; 807  : 			gObj[n].StartY = gObj[n].Y;

  000f3	8b 0d 00 00 00
	00		 mov	 ecx, DWORD PTR ?gObj@@3PAUOBJECTSTRUCT@@A ; gObj
  000f9	0f b6 84 0e 21
	01 00 00	 movzx	 eax, BYTE PTR [esi+ecx+289]
  00101	88 84 0e 4f 01
	00 00		 mov	 BYTE PTR [esi+ecx+335], al

; 808  : 			gObj[n].m_State = 1;

  00108	a1 00 00 00 00	 mov	 eax, DWORD PTR ?gObj@@3PAUOBJECTSTRUCT@@A ; gObj
  0010d	c7 84 06 d0 01
	00 00 01 00 00
	00		 mov	 DWORD PTR [esi+eax+464], 1

; 809  : 			gObj[n].PathCount = 0;

  00118	a1 00 00 00 00	 mov	 eax, DWORD PTR ?gObj@@3PAUOBJECTSTRUCT@@A ; gObj
  0011d	c7 84 06 58 01
	00 00 00 00 00
	00		 mov	 DWORD PTR [esi+eax+344], 0

; 810  : 
; 811  : 			LogAddTD("Make Golden Crust : %d, %d,%d",

  00128	8b 0d 00 00 00
	00		 mov	 ecx, DWORD PTR ?gObj@@3PAUOBJECTSTRUCT@@A ; gObj
  0012e	0f b6 84 0e 21
	01 00 00	 movzx	 eax, BYTE PTR [esi+ecx+289]
  00136	50		 push	 eax
  00137	0f b6 84 0e 20
	01 00 00	 movzx	 eax, BYTE PTR [esi+ecx+288]
  0013f	50		 push	 eax
  00140	6a 0a		 push	 10			; 0000000aH
  00142	68 00 00 00 00	 push	 OFFSET ??_C@_0BO@PPKNDGHB@Make?5Golden?5Crust?5?3?5?$CFd?0?5?$CFd?0?$CFd?$AA@
  00147	ff 15 00 00 00
	00		 call	 DWORD PTR ?LogAddTD@@3P6AXPADZZA ; LogAddTD

; 812  : 				MapNumber, gObj[n].X, gObj[n].Y);
; 813  : 
; 814  : 			gObjMonsterHitDamageInit(&gObj[n]);

  0014d	a1 00 00 00 00	 mov	 eax, DWORD PTR ?gObj@@3PAUOBJECTSTRUCT@@A ; gObj
  00152	03 c6		 add	 eax, esi
  00154	50		 push	 eax
  00155	e8 00 00 00 00	 call	 ?gObjMonsterHitDamageInit@@YAXPAUOBJECTSTRUCT@@@Z ; gObjMonsterHitDamageInit
  0015a	83 c4 14	 add	 esp, 20			; 00000014H
$LN2@RegenCrust:

; 785  : 	int n=0;
; 786  : 	int MapNumber;
; 787  : 
; 788  : 	for (n=0;n<OBJ_MAXMONSTER;n++)

  0015d	81 c6 40 27 00
	00		 add	 esi, 10048		; 00002740H
  00163	81 fe 00 dd 49
	06		 cmp	 esi, 105504000		; 0649dd00H
  00169	0f 8c a1 fe ff
	ff		 jl	 $LL4@RegenCrust

; 815  : 		}
; 816  : 	}
; 817  : }

  0016f	5f		 pop	 edi
  00170	5e		 pop	 esi
  00171	c3		 ret	 0
?RegenCrust@CEledoradoEvent@@QAEXXZ ENDP		; CEledoradoEvent::RegenCrust
_TEXT	ENDS
; Function compile flags: /Ogtp
; File c:\users\michel\desktop\source\gameserver\source\eledoradoevent.cpp
;	COMDAT ?RegenMonster@CEledoradoEvent@@QAEXXZ
_TEXT	SEGMENT
?RegenMonster@CEledoradoEvent@@QAEXXZ PROC		; CEledoradoEvent::RegenMonster, COMDAT
; _this$ = ecx

; 747  : {

  00000	56		 push	 esi
  00001	57		 push	 edi

; 748  : 	int n=0;
; 749  : 	int MapNumber;
; 750  : 
; 751  : 	for (n=0;n<OBJ_MAXMONSTER;n++)

  00002	33 f6		 xor	 esi, esi
  00004	bf ef 01 00 00	 mov	 edi, 495		; 000001efH
  00009	0f 1f 80 00 00
	00 00		 npad	 7
$LL4@RegenMonst:

; 752  : 	{
; 753  : 		if ( gObj[n].Class == 495 )

  00010	a1 00 00 00 00	 mov	 eax, DWORD PTR ?gObj@@3PAUOBJECTSTRUCT@@A ; gObj
  00015	66 39 bc 06 90
	00 00 00	 cmp	 WORD PTR [esi+eax+144], di
  0001d	0f 85 3a 01 00
	00		 jne	 $LN2@RegenMonst

; 754  : 		{
; 755  : 			gObj[n].Live = TRUE;

  00023	c6 44 06 51 01	 mov	 BYTE PTR [esi+eax+81], 1

; 756  : 			MapNumber = MAP_INDEX_AIDA;
; 757  : 			gObj[n].MapNumber = MapNumber;

  00028	a1 00 00 00 00	 mov	 eax, DWORD PTR ?gObj@@3PAUOBJECTSTRUCT@@A ; gObj
  0002d	c6 84 06 23 01
	00 00 21	 mov	 BYTE PTR [esi+eax+291], 33 ; 00000021H
  00035	66 66 66 0f 1f
	84 00 00 00 00
	00		 npad	 11
$LL5@RegenMonst:

; 758  : 
; 759  : 
; 760  : 			while ( gMSetBase.GetBoxPosition(MapNumber, 1, 1, 255, 255, gObj[n].X, gObj[n].Y) == 0 )

  00040	8b 0d 00 00 00
	00		 mov	 ecx, DWORD PTR ?gObj@@3PAUOBJECTSTRUCT@@A ; gObj
  00046	8d 81 21 01 00
	00		 lea	 eax, DWORD PTR [ecx+289]
  0004c	03 c6		 add	 eax, esi
  0004e	50		 push	 eax
  0004f	8d 81 20 01 00
	00		 lea	 eax, DWORD PTR [ecx+288]
  00055	b9 00 00 00 00	 mov	 ecx, OFFSET ?gMSetBase@@3VCMonsterSetBase@@A ; gMSetBase
  0005a	03 c6		 add	 eax, esi
  0005c	50		 push	 eax
  0005d	68 ff 00 00 00	 push	 255			; 000000ffH
  00062	68 ff 00 00 00	 push	 255			; 000000ffH
  00067	6a 01		 push	 1
  00069	6a 01		 push	 1
  0006b	6a 21		 push	 33			; 00000021H
  0006d	e8 00 00 00 00	 call	 ?GetBoxPosition@CMonsterSetBase@@QAEHHHHHHAAE0@Z ; CMonsterSetBase::GetBoxPosition
  00072	85 c0		 test	 eax, eax
  00074	74 ca		 je	 SHORT $LL5@RegenMonst

; 761  : 			{
; 762  : 
; 763  : 			}
; 764  : 
; 765  : 			gObj[n].Life = gObj[n].MaxLife;

  00076	8b 0d 00 00 00
	00		 mov	 ecx, DWORD PTR ?gObj@@3PAUOBJECTSTRUCT@@A ; gObj
  0007c	8b 84 0e dc 00
	00 00		 mov	 eax, DWORD PTR [esi+ecx+220]
  00083	89 84 0e d8 00
	00 00		 mov	 DWORD PTR [esi+ecx+216], eax

; 766  : 			gObj[n].TX = gObj[n].X;

  0008a	8b 0d 00 00 00
	00		 mov	 ecx, DWORD PTR ?gObj@@3PAUOBJECTSTRUCT@@A ; gObj
  00090	0f b6 84 0e 20
	01 00 00	 movzx	 eax, BYTE PTR [esi+ecx+288]
  00098	88 84 0e 52 01
	00 00		 mov	 BYTE PTR [esi+ecx+338], al

; 767  : 			gObj[n].TY = gObj[n].Y;

  0009f	8b 0d 00 00 00
	00		 mov	 ecx, DWORD PTR ?gObj@@3PAUOBJECTSTRUCT@@A ; gObj
  000a5	0f b6 84 0e 21
	01 00 00	 movzx	 eax, BYTE PTR [esi+ecx+289]
  000ad	88 84 0e 53 01
	00 00		 mov	 BYTE PTR [esi+ecx+339], al

; 768  : 			gObj[n].MTX = gObj[n].X;

  000b4	8b 0d 00 00 00
	00		 mov	 ecx, DWORD PTR ?gObj@@3PAUOBJECTSTRUCT@@A ; gObj
  000ba	0f b6 84 0e 20
	01 00 00	 movzx	 eax, BYTE PTR [esi+ecx+288]
  000c2	88 84 0e 54 01
	00 00		 mov	 BYTE PTR [esi+ecx+340], al

; 769  : 			gObj[n].MTY = gObj[n].Y;

  000c9	8b 0d 00 00 00
	00		 mov	 ecx, DWORD PTR ?gObj@@3PAUOBJECTSTRUCT@@A ; gObj
  000cf	0f b6 84 0e 21
	01 00 00	 movzx	 eax, BYTE PTR [esi+ecx+289]
  000d7	88 84 0e 55 01
	00 00		 mov	 BYTE PTR [esi+ecx+341], al

; 770  : 			gObj[n].StartX = gObj[n].X;

  000de	8b 0d 00 00 00
	00		 mov	 ecx, DWORD PTR ?gObj@@3PAUOBJECTSTRUCT@@A ; gObj
  000e4	0f b6 84 0e 20
	01 00 00	 movzx	 eax, BYTE PTR [esi+ecx+288]
  000ec	88 84 0e 4e 01
	00 00		 mov	 BYTE PTR [esi+ecx+334], al

; 771  : 			gObj[n].StartY = gObj[n].Y;

  000f3	8b 0d 00 00 00
	00		 mov	 ecx, DWORD PTR ?gObj@@3PAUOBJECTSTRUCT@@A ; gObj
  000f9	0f b6 84 0e 21
	01 00 00	 movzx	 eax, BYTE PTR [esi+ecx+289]
  00101	88 84 0e 4f 01
	00 00		 mov	 BYTE PTR [esi+ecx+335], al

; 772  : 			gObj[n].m_State = 1;

  00108	a1 00 00 00 00	 mov	 eax, DWORD PTR ?gObj@@3PAUOBJECTSTRUCT@@A ; gObj
  0010d	c7 84 06 d0 01
	00 00 01 00 00
	00		 mov	 DWORD PTR [esi+eax+464], 1

; 773  : 			gObj[n].PathCount = 0;

  00118	a1 00 00 00 00	 mov	 eax, DWORD PTR ?gObj@@3PAUOBJECTSTRUCT@@A ; gObj
  0011d	c7 84 06 58 01
	00 00 00 00 00
	00		 mov	 DWORD PTR [esi+eax+344], 0

; 774  : 
; 775  : 			LogAddTD("Make Golden Monster : %d, %d,%d",

  00128	8b 0d 00 00 00
	00		 mov	 ecx, DWORD PTR ?gObj@@3PAUOBJECTSTRUCT@@A ; gObj
  0012e	0f b6 84 0e 21
	01 00 00	 movzx	 eax, BYTE PTR [esi+ecx+289]
  00136	50		 push	 eax
  00137	0f b6 84 0e 20
	01 00 00	 movzx	 eax, BYTE PTR [esi+ecx+288]
  0013f	50		 push	 eax
  00140	6a 21		 push	 33			; 00000021H
  00142	68 00 00 00 00	 push	 OFFSET ??_C@_0CA@HHLBJALN@Make?5Golden?5Monster?5?3?5?$CFd?0?5?$CFd?0?$CFd?$AA@
  00147	ff 15 00 00 00
	00		 call	 DWORD PTR ?LogAddTD@@3P6AXPADZZA ; LogAddTD

; 776  : 				MapNumber, gObj[n].X, gObj[n].Y);
; 777  : 
; 778  : 			gObjMonsterHitDamageInit(&gObj[n]);

  0014d	a1 00 00 00 00	 mov	 eax, DWORD PTR ?gObj@@3PAUOBJECTSTRUCT@@A ; gObj
  00152	03 c6		 add	 eax, esi
  00154	50		 push	 eax
  00155	e8 00 00 00 00	 call	 ?gObjMonsterHitDamageInit@@YAXPAUOBJECTSTRUCT@@@Z ; gObjMonsterHitDamageInit
  0015a	83 c4 14	 add	 esp, 20			; 00000014H
$LN2@RegenMonst:

; 748  : 	int n=0;
; 749  : 	int MapNumber;
; 750  : 
; 751  : 	for (n=0;n<OBJ_MAXMONSTER;n++)

  0015d	81 c6 40 27 00
	00		 add	 esi, 10048		; 00002740H
  00163	81 fe 00 dd 49
	06		 cmp	 esi, 105504000		; 0649dd00H
  00169	0f 8c a1 fe ff
	ff		 jl	 $LL4@RegenMonst

; 779  : 		}
; 780  : 	}
; 781  : }

  0016f	5f		 pop	 edi
  00170	5e		 pop	 esi
  00171	c3		 ret	 0
?RegenMonster@CEledoradoEvent@@QAEXXZ ENDP		; CEledoradoEvent::RegenMonster
_TEXT	ENDS
; Function compile flags: /Ogtp
; File c:\users\michel\desktop\source\gameserver\source\eledoradoevent.cpp
;	COMDAT ?RegenDevil@CEledoradoEvent@@QAEXXZ
_TEXT	SEGMENT
?RegenDevil@CEledoradoEvent@@QAEXXZ PROC		; CEledoradoEvent::RegenDevil, COMDAT
; _this$ = ecx

; 712  : {

  00000	56		 push	 esi
  00001	57		 push	 edi

; 713  : 	int n=0;
; 714  : 	int MapNumber;
; 715  : 
; 716  : 	for (n=0;n<OBJ_MAXMONSTER;n++)

  00002	33 f6		 xor	 esi, esi
  00004	bf ee 01 00 00	 mov	 edi, 494		; 000001eeH
  00009	0f 1f 80 00 00
	00 00		 npad	 7
$LL4@RegenDevil:

; 717  : 	{
; 718  : 		if ( gObj[n].Class == 494 )

  00010	a1 00 00 00 00	 mov	 eax, DWORD PTR ?gObj@@3PAUOBJECTSTRUCT@@A ; gObj
  00015	66 39 bc 06 90
	00 00 00	 cmp	 WORD PTR [esi+eax+144], di
  0001d	0f 85 3a 01 00
	00		 jne	 $LN2@RegenDevil

; 719  : 		{
; 720  : 			gObj[n].Live = TRUE;

  00023	c6 44 06 51 01	 mov	 BYTE PTR [esi+eax+81], 1

; 721  : 			MapNumber = MAP_INDEX_LOSTTOWER;
; 722  : 			gObj[n].MapNumber = MapNumber;

  00028	a1 00 00 00 00	 mov	 eax, DWORD PTR ?gObj@@3PAUOBJECTSTRUCT@@A ; gObj
  0002d	c6 84 06 23 01
	00 00 04	 mov	 BYTE PTR [esi+eax+291], 4
  00035	66 66 66 0f 1f
	84 00 00 00 00
	00		 npad	 11
$LL5@RegenDevil:

; 723  : 
; 724  : 			while ( gMSetBase.GetBoxPosition(MapNumber, 1, 1, 255, 255, gObj[n].X, gObj[n].Y) == 0 )

  00040	8b 0d 00 00 00
	00		 mov	 ecx, DWORD PTR ?gObj@@3PAUOBJECTSTRUCT@@A ; gObj
  00046	8d 81 21 01 00
	00		 lea	 eax, DWORD PTR [ecx+289]
  0004c	03 c6		 add	 eax, esi
  0004e	50		 push	 eax
  0004f	8d 81 20 01 00
	00		 lea	 eax, DWORD PTR [ecx+288]
  00055	b9 00 00 00 00	 mov	 ecx, OFFSET ?gMSetBase@@3VCMonsterSetBase@@A ; gMSetBase
  0005a	03 c6		 add	 eax, esi
  0005c	50		 push	 eax
  0005d	68 ff 00 00 00	 push	 255			; 000000ffH
  00062	68 ff 00 00 00	 push	 255			; 000000ffH
  00067	6a 01		 push	 1
  00069	6a 01		 push	 1
  0006b	6a 04		 push	 4
  0006d	e8 00 00 00 00	 call	 ?GetBoxPosition@CMonsterSetBase@@QAEHHHHHHAAE0@Z ; CMonsterSetBase::GetBoxPosition
  00072	85 c0		 test	 eax, eax
  00074	74 ca		 je	 SHORT $LL5@RegenDevil

; 725  : 			{
; 726  : 
; 727  : 			}
; 728  : 
; 729  : 			gObj[n].Life = gObj[n].MaxLife;

  00076	8b 0d 00 00 00
	00		 mov	 ecx, DWORD PTR ?gObj@@3PAUOBJECTSTRUCT@@A ; gObj
  0007c	8b 84 0e dc 00
	00 00		 mov	 eax, DWORD PTR [esi+ecx+220]
  00083	89 84 0e d8 00
	00 00		 mov	 DWORD PTR [esi+ecx+216], eax

; 730  : 			gObj[n].TX = gObj[n].X;

  0008a	8b 0d 00 00 00
	00		 mov	 ecx, DWORD PTR ?gObj@@3PAUOBJECTSTRUCT@@A ; gObj
  00090	0f b6 84 0e 20
	01 00 00	 movzx	 eax, BYTE PTR [esi+ecx+288]
  00098	88 84 0e 52 01
	00 00		 mov	 BYTE PTR [esi+ecx+338], al

; 731  : 			gObj[n].TY = gObj[n].Y;

  0009f	8b 0d 00 00 00
	00		 mov	 ecx, DWORD PTR ?gObj@@3PAUOBJECTSTRUCT@@A ; gObj
  000a5	0f b6 84 0e 21
	01 00 00	 movzx	 eax, BYTE PTR [esi+ecx+289]
  000ad	88 84 0e 53 01
	00 00		 mov	 BYTE PTR [esi+ecx+339], al

; 732  : 			gObj[n].MTX = gObj[n].X;

  000b4	8b 0d 00 00 00
	00		 mov	 ecx, DWORD PTR ?gObj@@3PAUOBJECTSTRUCT@@A ; gObj
  000ba	0f b6 84 0e 20
	01 00 00	 movzx	 eax, BYTE PTR [esi+ecx+288]
  000c2	88 84 0e 54 01
	00 00		 mov	 BYTE PTR [esi+ecx+340], al

; 733  : 			gObj[n].MTY = gObj[n].Y;

  000c9	8b 0d 00 00 00
	00		 mov	 ecx, DWORD PTR ?gObj@@3PAUOBJECTSTRUCT@@A ; gObj
  000cf	0f b6 84 0e 21
	01 00 00	 movzx	 eax, BYTE PTR [esi+ecx+289]
  000d7	88 84 0e 55 01
	00 00		 mov	 BYTE PTR [esi+ecx+341], al

; 734  : 			gObj[n].StartX = gObj[n].X;

  000de	8b 0d 00 00 00
	00		 mov	 ecx, DWORD PTR ?gObj@@3PAUOBJECTSTRUCT@@A ; gObj
  000e4	0f b6 84 0e 20
	01 00 00	 movzx	 eax, BYTE PTR [esi+ecx+288]
  000ec	88 84 0e 4e 01
	00 00		 mov	 BYTE PTR [esi+ecx+334], al

; 735  : 			gObj[n].StartY = gObj[n].Y;

  000f3	8b 0d 00 00 00
	00		 mov	 ecx, DWORD PTR ?gObj@@3PAUOBJECTSTRUCT@@A ; gObj
  000f9	0f b6 84 0e 21
	01 00 00	 movzx	 eax, BYTE PTR [esi+ecx+289]
  00101	88 84 0e 4f 01
	00 00		 mov	 BYTE PTR [esi+ecx+335], al

; 736  : 			gObj[n].m_State = 1;

  00108	a1 00 00 00 00	 mov	 eax, DWORD PTR ?gObj@@3PAUOBJECTSTRUCT@@A ; gObj
  0010d	c7 84 06 d0 01
	00 00 01 00 00
	00		 mov	 DWORD PTR [esi+eax+464], 1

; 737  : 			gObj[n].PathCount = 0;

  00118	a1 00 00 00 00	 mov	 eax, DWORD PTR ?gObj@@3PAUOBJECTSTRUCT@@A ; gObj
  0011d	c7 84 06 58 01
	00 00 00 00 00
	00		 mov	 DWORD PTR [esi+eax+344], 0

; 738  : 
; 739  : 			LogAddTD("Make Golden Devil : %d, %d,%d",

  00128	8b 0d 00 00 00
	00		 mov	 ecx, DWORD PTR ?gObj@@3PAUOBJECTSTRUCT@@A ; gObj
  0012e	0f b6 84 0e 21
	01 00 00	 movzx	 eax, BYTE PTR [esi+ecx+289]
  00136	50		 push	 eax
  00137	0f b6 84 0e 20
	01 00 00	 movzx	 eax, BYTE PTR [esi+ecx+288]
  0013f	50		 push	 eax
  00140	6a 04		 push	 4
  00142	68 00 00 00 00	 push	 OFFSET ??_C@_0BO@HGAOKNNC@Make?5Golden?5Devil?5?3?5?$CFd?0?5?$CFd?0?$CFd?$AA@
  00147	ff 15 00 00 00
	00		 call	 DWORD PTR ?LogAddTD@@3P6AXPADZZA ; LogAddTD

; 740  : 				MapNumber, gObj[n].X, gObj[n].Y);
; 741  : 
; 742  : 			gObjMonsterHitDamageInit(&gObj[n]);

  0014d	a1 00 00 00 00	 mov	 eax, DWORD PTR ?gObj@@3PAUOBJECTSTRUCT@@A ; gObj
  00152	03 c6		 add	 eax, esi
  00154	50		 push	 eax
  00155	e8 00 00 00 00	 call	 ?gObjMonsterHitDamageInit@@YAXPAUOBJECTSTRUCT@@@Z ; gObjMonsterHitDamageInit
  0015a	83 c4 14	 add	 esp, 20			; 00000014H
$LN2@RegenDevil:

; 713  : 	int n=0;
; 714  : 	int MapNumber;
; 715  : 
; 716  : 	for (n=0;n<OBJ_MAXMONSTER;n++)

  0015d	81 c6 40 27 00
	00		 add	 esi, 10048		; 00002740H
  00163	81 fe 00 dd 49
	06		 cmp	 esi, 105504000		; 0649dd00H
  00169	0f 8c a1 fe ff
	ff		 jl	 $LL4@RegenDevil

; 743  : 		}
; 744  : 	}
; 745  : }

  0016f	5f		 pop	 edi
  00170	5e		 pop	 esi
  00171	c3		 ret	 0
?RegenDevil@CEledoradoEvent@@QAEXXZ ENDP		; CEledoradoEvent::RegenDevil
_TEXT	ENDS
; Function compile flags: /Ogtp
; File c:\users\michel\desktop\source\gameserver\source\eledoradoevent.cpp
;	COMDAT ?RegenDarkKnight@CEledoradoEvent@@QAEXXZ
_TEXT	SEGMENT
?RegenDarkKnight@CEledoradoEvent@@QAEXXZ PROC		; CEledoradoEvent::RegenDarkKnight, COMDAT
; _this$ = ecx

; 677  : {

  00000	56		 push	 esi
  00001	57		 push	 edi

; 678  : 	int n=0;
; 679  : 	int MapNumber;
; 680  : 
; 681  : 	for (n=0;n<OBJ_MAXMONSTER;n++)

  00002	33 f6		 xor	 esi, esi
  00004	bf ed 01 00 00	 mov	 edi, 493		; 000001edH
  00009	0f 1f 80 00 00
	00 00		 npad	 7
$LL4@RegenDarkK:

; 682  : 	{
; 683  : 		if ( gObj[n].Class == 493 )

  00010	a1 00 00 00 00	 mov	 eax, DWORD PTR ?gObj@@3PAUOBJECTSTRUCT@@A ; gObj
  00015	66 39 bc 06 90
	00 00 00	 cmp	 WORD PTR [esi+eax+144], di
  0001d	0f 85 3a 01 00
	00		 jne	 $LN2@RegenDarkK

; 684  : 		{
; 685  : 			gObj[n].Live = TRUE;

  00023	c6 44 06 51 01	 mov	 BYTE PTR [esi+eax+81], 1

; 686  : 			MapNumber = MAP_INDEX_DUNGEON;
; 687  : 			gObj[n].MapNumber = MapNumber;

  00028	a1 00 00 00 00	 mov	 eax, DWORD PTR ?gObj@@3PAUOBJECTSTRUCT@@A ; gObj
  0002d	c6 84 06 23 01
	00 00 01	 mov	 BYTE PTR [esi+eax+291], 1
  00035	66 66 66 0f 1f
	84 00 00 00 00
	00		 npad	 11
$LL5@RegenDarkK:

; 688  : 
; 689  : 			while ( gMSetBase.GetBoxPosition(MapNumber, 1, 1, 255, 255, gObj[n].X, gObj[n].Y) == 0 )

  00040	8b 0d 00 00 00
	00		 mov	 ecx, DWORD PTR ?gObj@@3PAUOBJECTSTRUCT@@A ; gObj
  00046	8d 81 21 01 00
	00		 lea	 eax, DWORD PTR [ecx+289]
  0004c	03 c6		 add	 eax, esi
  0004e	50		 push	 eax
  0004f	8d 81 20 01 00
	00		 lea	 eax, DWORD PTR [ecx+288]
  00055	b9 00 00 00 00	 mov	 ecx, OFFSET ?gMSetBase@@3VCMonsterSetBase@@A ; gMSetBase
  0005a	03 c6		 add	 eax, esi
  0005c	50		 push	 eax
  0005d	68 ff 00 00 00	 push	 255			; 000000ffH
  00062	68 ff 00 00 00	 push	 255			; 000000ffH
  00067	6a 01		 push	 1
  00069	6a 01		 push	 1
  0006b	6a 01		 push	 1
  0006d	e8 00 00 00 00	 call	 ?GetBoxPosition@CMonsterSetBase@@QAEHHHHHHAAE0@Z ; CMonsterSetBase::GetBoxPosition
  00072	85 c0		 test	 eax, eax
  00074	74 ca		 je	 SHORT $LL5@RegenDarkK

; 690  : 			{
; 691  : 
; 692  : 			}
; 693  : 
; 694  : 			gObj[n].Life = gObj[n].MaxLife;

  00076	8b 0d 00 00 00
	00		 mov	 ecx, DWORD PTR ?gObj@@3PAUOBJECTSTRUCT@@A ; gObj
  0007c	8b 84 0e dc 00
	00 00		 mov	 eax, DWORD PTR [esi+ecx+220]
  00083	89 84 0e d8 00
	00 00		 mov	 DWORD PTR [esi+ecx+216], eax

; 695  : 			gObj[n].TX = gObj[n].X;

  0008a	8b 0d 00 00 00
	00		 mov	 ecx, DWORD PTR ?gObj@@3PAUOBJECTSTRUCT@@A ; gObj
  00090	0f b6 84 0e 20
	01 00 00	 movzx	 eax, BYTE PTR [esi+ecx+288]
  00098	88 84 0e 52 01
	00 00		 mov	 BYTE PTR [esi+ecx+338], al

; 696  : 			gObj[n].TY = gObj[n].Y;

  0009f	8b 0d 00 00 00
	00		 mov	 ecx, DWORD PTR ?gObj@@3PAUOBJECTSTRUCT@@A ; gObj
  000a5	0f b6 84 0e 21
	01 00 00	 movzx	 eax, BYTE PTR [esi+ecx+289]
  000ad	88 84 0e 53 01
	00 00		 mov	 BYTE PTR [esi+ecx+339], al

; 697  : 			gObj[n].MTX = gObj[n].X;

  000b4	8b 0d 00 00 00
	00		 mov	 ecx, DWORD PTR ?gObj@@3PAUOBJECTSTRUCT@@A ; gObj
  000ba	0f b6 84 0e 20
	01 00 00	 movzx	 eax, BYTE PTR [esi+ecx+288]
  000c2	88 84 0e 54 01
	00 00		 mov	 BYTE PTR [esi+ecx+340], al

; 698  : 			gObj[n].MTY = gObj[n].Y;

  000c9	8b 0d 00 00 00
	00		 mov	 ecx, DWORD PTR ?gObj@@3PAUOBJECTSTRUCT@@A ; gObj
  000cf	0f b6 84 0e 21
	01 00 00	 movzx	 eax, BYTE PTR [esi+ecx+289]
  000d7	88 84 0e 55 01
	00 00		 mov	 BYTE PTR [esi+ecx+341], al

; 699  : 			gObj[n].StartX = gObj[n].X;

  000de	8b 0d 00 00 00
	00		 mov	 ecx, DWORD PTR ?gObj@@3PAUOBJECTSTRUCT@@A ; gObj
  000e4	0f b6 84 0e 20
	01 00 00	 movzx	 eax, BYTE PTR [esi+ecx+288]
  000ec	88 84 0e 4e 01
	00 00		 mov	 BYTE PTR [esi+ecx+334], al

; 700  : 			gObj[n].StartY = gObj[n].Y;

  000f3	8b 0d 00 00 00
	00		 mov	 ecx, DWORD PTR ?gObj@@3PAUOBJECTSTRUCT@@A ; gObj
  000f9	0f b6 84 0e 21
	01 00 00	 movzx	 eax, BYTE PTR [esi+ecx+289]
  00101	88 84 0e 4f 01
	00 00		 mov	 BYTE PTR [esi+ecx+335], al

; 701  : 			gObj[n].m_State = 1;

  00108	a1 00 00 00 00	 mov	 eax, DWORD PTR ?gObj@@3PAUOBJECTSTRUCT@@A ; gObj
  0010d	c7 84 06 d0 01
	00 00 01 00 00
	00		 mov	 DWORD PTR [esi+eax+464], 1

; 702  : 			gObj[n].PathCount = 0;

  00118	a1 00 00 00 00	 mov	 eax, DWORD PTR ?gObj@@3PAUOBJECTSTRUCT@@A ; gObj
  0011d	c7 84 06 58 01
	00 00 00 00 00
	00		 mov	 DWORD PTR [esi+eax+344], 0

; 703  : 
; 704  : 			LogAddTD("Make Golden DarkKnight : %d, %d,%d",

  00128	8b 0d 00 00 00
	00		 mov	 ecx, DWORD PTR ?gObj@@3PAUOBJECTSTRUCT@@A ; gObj
  0012e	0f b6 84 0e 21
	01 00 00	 movzx	 eax, BYTE PTR [esi+ecx+289]
  00136	50		 push	 eax
  00137	0f b6 84 0e 20
	01 00 00	 movzx	 eax, BYTE PTR [esi+ecx+288]
  0013f	50		 push	 eax
  00140	6a 01		 push	 1
  00142	68 00 00 00 00	 push	 OFFSET ??_C@_0CD@LGNFBEEH@Make?5Golden?5DarkKnight?5?3?5?$CFd?0?5?$CFd?0@
  00147	ff 15 00 00 00
	00		 call	 DWORD PTR ?LogAddTD@@3P6AXPADZZA ; LogAddTD

; 705  : 				MapNumber, gObj[n].X, gObj[n].Y);
; 706  : 
; 707  : 			gObjMonsterHitDamageInit(&gObj[n]);

  0014d	a1 00 00 00 00	 mov	 eax, DWORD PTR ?gObj@@3PAUOBJECTSTRUCT@@A ; gObj
  00152	03 c6		 add	 eax, esi
  00154	50		 push	 eax
  00155	e8 00 00 00 00	 call	 ?gObjMonsterHitDamageInit@@YAXPAUOBJECTSTRUCT@@@Z ; gObjMonsterHitDamageInit
  0015a	83 c4 14	 add	 esp, 20			; 00000014H
$LN2@RegenDarkK:

; 678  : 	int n=0;
; 679  : 	int MapNumber;
; 680  : 
; 681  : 	for (n=0;n<OBJ_MAXMONSTER;n++)

  0015d	81 c6 40 27 00
	00		 add	 esi, 10048		; 00002740H
  00163	81 fe 00 dd 49
	06		 cmp	 esi, 105504000		; 0649dd00H
  00169	0f 8c a1 fe ff
	ff		 jl	 $LL4@RegenDarkK

; 708  : 		}
; 709  : 	}
; 710  : }

  0016f	5f		 pop	 edi
  00170	5e		 pop	 esi
  00171	c3		 ret	 0
?RegenDarkKnight@CEledoradoEvent@@QAEXXZ ENDP		; CEledoradoEvent::RegenDarkKnight
_TEXT	ENDS
; Function compile flags: /Ogtp
; File c:\users\michel\desktop\source\gameserver\source\eledoradoevent.cpp
;	COMDAT ?RegenRabbit@CEledoradoEvent@@QAEXXZ
_TEXT	SEGMENT
?RegenRabbit@CEledoradoEvent@@QAEXXZ PROC		; CEledoradoEvent::RegenRabbit, COMDAT
; _this$ = ecx

; 641  : {

  00000	56		 push	 esi
  00001	57		 push	 edi

; 642  : 	int n=0;
; 643  : 	int MapNumber;
; 644  : 
; 645  : 	for (n=0;n<OBJ_MAXMONSTER;n++)

  00002	33 f6		 xor	 esi, esi
  00004	bf f6 01 00 00	 mov	 edi, 502		; 000001f6H
  00009	0f 1f 80 00 00
	00 00		 npad	 7
$LL4@RegenRabbi:

; 646  : 	{
; 647  : 		if ( gObj[n].Class == 502 )

  00010	a1 00 00 00 00	 mov	 eax, DWORD PTR ?gObj@@3PAUOBJECTSTRUCT@@A ; gObj
  00015	66 39 bc 06 90
	00 00 00	 cmp	 WORD PTR [esi+eax+144], di
  0001d	0f 85 3a 01 00
	00		 jne	 $LN2@RegenRabbi

; 648  : 		{
; 649  : 			gObj[n].Live = TRUE;

  00023	c6 44 06 51 01	 mov	 BYTE PTR [esi+eax+81], 1

; 650  : 			MapNumber = MAP_INDEX_ELBELAND;
; 651  : 			gObj[n].MapNumber = MapNumber;

  00028	a1 00 00 00 00	 mov	 eax, DWORD PTR ?gObj@@3PAUOBJECTSTRUCT@@A ; gObj
  0002d	c6 84 06 23 01
	00 00 33	 mov	 BYTE PTR [esi+eax+291], 51 ; 00000033H
  00035	66 66 66 0f 1f
	84 00 00 00 00
	00		 npad	 11
$LL5@RegenRabbi:

; 652  : 
; 653  : 			while ( gMSetBase.GetBoxPosition(MapNumber, 1, 1, 255, 255, gObj[n].X, gObj[n].Y) == 0 )

  00040	8b 0d 00 00 00
	00		 mov	 ecx, DWORD PTR ?gObj@@3PAUOBJECTSTRUCT@@A ; gObj
  00046	8d 81 21 01 00
	00		 lea	 eax, DWORD PTR [ecx+289]
  0004c	03 c6		 add	 eax, esi
  0004e	50		 push	 eax
  0004f	8d 81 20 01 00
	00		 lea	 eax, DWORD PTR [ecx+288]
  00055	b9 00 00 00 00	 mov	 ecx, OFFSET ?gMSetBase@@3VCMonsterSetBase@@A ; gMSetBase
  0005a	03 c6		 add	 eax, esi
  0005c	50		 push	 eax
  0005d	68 ff 00 00 00	 push	 255			; 000000ffH
  00062	68 ff 00 00 00	 push	 255			; 000000ffH
  00067	6a 01		 push	 1
  00069	6a 01		 push	 1
  0006b	6a 33		 push	 51			; 00000033H
  0006d	e8 00 00 00 00	 call	 ?GetBoxPosition@CMonsterSetBase@@QAEHHHHHHAAE0@Z ; CMonsterSetBase::GetBoxPosition
  00072	85 c0		 test	 eax, eax
  00074	74 ca		 je	 SHORT $LL5@RegenRabbi

; 654  : 			{
; 655  : 
; 656  : 			}
; 657  : 
; 658  : 			gObj[n].Life = gObj[n].MaxLife;

  00076	8b 0d 00 00 00
	00		 mov	 ecx, DWORD PTR ?gObj@@3PAUOBJECTSTRUCT@@A ; gObj
  0007c	8b 84 0e dc 00
	00 00		 mov	 eax, DWORD PTR [esi+ecx+220]
  00083	89 84 0e d8 00
	00 00		 mov	 DWORD PTR [esi+ecx+216], eax

; 659  : 			gObj[n].TX = gObj[n].X;

  0008a	8b 0d 00 00 00
	00		 mov	 ecx, DWORD PTR ?gObj@@3PAUOBJECTSTRUCT@@A ; gObj
  00090	0f b6 84 0e 20
	01 00 00	 movzx	 eax, BYTE PTR [esi+ecx+288]
  00098	88 84 0e 52 01
	00 00		 mov	 BYTE PTR [esi+ecx+338], al

; 660  : 			gObj[n].TY = gObj[n].Y;

  0009f	8b 0d 00 00 00
	00		 mov	 ecx, DWORD PTR ?gObj@@3PAUOBJECTSTRUCT@@A ; gObj
  000a5	0f b6 84 0e 21
	01 00 00	 movzx	 eax, BYTE PTR [esi+ecx+289]
  000ad	88 84 0e 53 01
	00 00		 mov	 BYTE PTR [esi+ecx+339], al

; 661  : 			gObj[n].MTX = gObj[n].X;

  000b4	8b 0d 00 00 00
	00		 mov	 ecx, DWORD PTR ?gObj@@3PAUOBJECTSTRUCT@@A ; gObj
  000ba	0f b6 84 0e 20
	01 00 00	 movzx	 eax, BYTE PTR [esi+ecx+288]
  000c2	88 84 0e 54 01
	00 00		 mov	 BYTE PTR [esi+ecx+340], al

; 662  : 			gObj[n].MTY = gObj[n].Y;

  000c9	8b 0d 00 00 00
	00		 mov	 ecx, DWORD PTR ?gObj@@3PAUOBJECTSTRUCT@@A ; gObj
  000cf	0f b6 84 0e 21
	01 00 00	 movzx	 eax, BYTE PTR [esi+ecx+289]
  000d7	88 84 0e 55 01
	00 00		 mov	 BYTE PTR [esi+ecx+341], al

; 663  : 			gObj[n].StartX = gObj[n].X;

  000de	8b 0d 00 00 00
	00		 mov	 ecx, DWORD PTR ?gObj@@3PAUOBJECTSTRUCT@@A ; gObj
  000e4	0f b6 84 0e 20
	01 00 00	 movzx	 eax, BYTE PTR [esi+ecx+288]
  000ec	88 84 0e 4e 01
	00 00		 mov	 BYTE PTR [esi+ecx+334], al

; 664  : 			gObj[n].StartY = gObj[n].Y;

  000f3	8b 0d 00 00 00
	00		 mov	 ecx, DWORD PTR ?gObj@@3PAUOBJECTSTRUCT@@A ; gObj
  000f9	0f b6 84 0e 21
	01 00 00	 movzx	 eax, BYTE PTR [esi+ecx+289]
  00101	88 84 0e 4f 01
	00 00		 mov	 BYTE PTR [esi+ecx+335], al

; 665  : 			gObj[n].m_State = 1;

  00108	a1 00 00 00 00	 mov	 eax, DWORD PTR ?gObj@@3PAUOBJECTSTRUCT@@A ; gObj
  0010d	c7 84 06 d0 01
	00 00 01 00 00
	00		 mov	 DWORD PTR [esi+eax+464], 1

; 666  : 			gObj[n].PathCount = 0;

  00118	a1 00 00 00 00	 mov	 eax, DWORD PTR ?gObj@@3PAUOBJECTSTRUCT@@A ; gObj
  0011d	c7 84 06 58 01
	00 00 00 00 00
	00		 mov	 DWORD PTR [esi+eax+344], 0

; 667  : 
; 668  : 			LogAddTD("Make Golden rabbit : %d, %d,%d",

  00128	8b 0d 00 00 00
	00		 mov	 ecx, DWORD PTR ?gObj@@3PAUOBJECTSTRUCT@@A ; gObj
  0012e	0f b6 84 0e 21
	01 00 00	 movzx	 eax, BYTE PTR [esi+ecx+289]
  00136	50		 push	 eax
  00137	0f b6 84 0e 20
	01 00 00	 movzx	 eax, BYTE PTR [esi+ecx+288]
  0013f	50		 push	 eax
  00140	6a 33		 push	 51			; 00000033H
  00142	68 00 00 00 00	 push	 OFFSET ??_C@_0BP@FBHIBBIJ@Make?5Golden?5rabbit?5?3?5?$CFd?0?5?$CFd?0?$CFd?$AA@
  00147	ff 15 00 00 00
	00		 call	 DWORD PTR ?LogAddTD@@3P6AXPADZZA ; LogAddTD

; 669  : 				MapNumber, gObj[n].X, gObj[n].Y);
; 670  : 
; 671  : 			gObjMonsterHitDamageInit(&gObj[n]);

  0014d	a1 00 00 00 00	 mov	 eax, DWORD PTR ?gObj@@3PAUOBJECTSTRUCT@@A ; gObj
  00152	03 c6		 add	 eax, esi
  00154	50		 push	 eax
  00155	e8 00 00 00 00	 call	 ?gObjMonsterHitDamageInit@@YAXPAUOBJECTSTRUCT@@@Z ; gObjMonsterHitDamageInit
  0015a	83 c4 14	 add	 esp, 20			; 00000014H
$LN2@RegenRabbi:

; 642  : 	int n=0;
; 643  : 	int MapNumber;
; 644  : 
; 645  : 	for (n=0;n<OBJ_MAXMONSTER;n++)

  0015d	81 c6 40 27 00
	00		 add	 esi, 10048		; 00002740H
  00163	81 fe 00 dd 49
	06		 cmp	 esi, 105504000		; 0649dd00H
  00169	0f 8c a1 fe ff
	ff		 jl	 $LL4@RegenRabbi

; 672  : 		}
; 673  : 	}
; 674  : }

  0016f	5f		 pop	 edi
  00170	5e		 pop	 esi
  00171	c3		 ret	 0
?RegenRabbit@CEledoradoEvent@@QAEXXZ ENDP		; CEledoradoEvent::RegenRabbit
_TEXT	ENDS
; Function compile flags: /Ogtp
; File c:\users\michel\desktop\source\gameserver\source\eledoradoevent.cpp
;	COMDAT ?RegenKantur@CEledoradoEvent@@QAEXXZ
_TEXT	SEGMENT
_this$1$ = -4						; size = 4
?RegenKantur@CEledoradoEvent@@QAEXXZ PROC		; CEledoradoEvent::RegenKantur, COMDAT
; _this$ = ecx

; 478  : {

  00000	55		 push	 ebp
  00001	8b ec		 mov	 ebp, esp
  00003	51		 push	 ecx
  00004	53		 push	 ebx
  00005	56		 push	 esi
  00006	8b f1		 mov	 esi, ecx
  00008	57		 push	 edi
  00009	89 75 fc	 mov	 DWORD PTR _this$1$[ebp], esi

; 479  : 	int n=0;
; 480  : 	int MapNumber;
; 481  : 
; 482  : 	for (n=0;n<OBJ_MAXMONSTER;n++)

  0000c	33 ff		 xor	 edi, edi
  0000e	66 90		 npad	 2
$LL4@RegenKantu:

; 483  : 	{
; 484  : 		if ( gObj[n].Class == 82 )	// Gold Tantalos

  00010	a1 00 00 00 00	 mov	 eax, DWORD PTR ?gObj@@3PAUOBJECTSTRUCT@@A ; gObj
  00015	0f b7 94 07 90
	00 00 00	 movzx	 edx, WORD PTR [edi+eax+144]
  0001d	83 fa 52	 cmp	 edx, 82			; 00000052H
  00020	0f 85 95 01 00
	00		 jne	 $LN7@RegenKantu

; 485  : 		{
; 486  : 			gObj[n].Live = TRUE;

  00026	c6 44 07 51 01	 mov	 BYTE PTR [edi+eax+81], 1

; 487  : 			MapNumber = 8;
; 488  : 			gObj[n].MapNumber = MapNumber;

  0002b	a1 00 00 00 00	 mov	 eax, DWORD PTR ?gObj@@3PAUOBJECTSTRUCT@@A ; gObj
  00030	c6 84 07 23 01
	00 00 08	 mov	 BYTE PTR [edi+eax+291], 8
  00038	0f 1f 84 00 00
	00 00 00	 npad	 8
$LL5@RegenKantu:

; 489  : 
; 490  : 			while ( gMSetBase.GetBoxPosition(MapNumber, 50, 50, 200, 200, gObj[n].X, gObj[n].Y) == 0 )

  00040	8b 0d 00 00 00
	00		 mov	 ecx, DWORD PTR ?gObj@@3PAUOBJECTSTRUCT@@A ; gObj
  00046	8d 81 21 01 00
	00		 lea	 eax, DWORD PTR [ecx+289]
  0004c	03 c7		 add	 eax, edi
  0004e	50		 push	 eax
  0004f	8d 81 20 01 00
	00		 lea	 eax, DWORD PTR [ecx+288]
  00055	b9 00 00 00 00	 mov	 ecx, OFFSET ?gMSetBase@@3VCMonsterSetBase@@A ; gMSetBase
  0005a	03 c7		 add	 eax, edi
  0005c	50		 push	 eax
  0005d	68 c8 00 00 00	 push	 200			; 000000c8H
  00062	68 c8 00 00 00	 push	 200			; 000000c8H
  00067	6a 32		 push	 50			; 00000032H
  00069	6a 32		 push	 50			; 00000032H
  0006b	6a 08		 push	 8
  0006d	e8 00 00 00 00	 call	 ?GetBoxPosition@CMonsterSetBase@@QAEHHHHHHAAE0@Z ; CMonsterSetBase::GetBoxPosition
  00072	85 c0		 test	 eax, eax
  00074	74 ca		 je	 SHORT $LL5@RegenKantu

; 491  : 			{
; 492  : 
; 493  : 			}
; 494  : 
; 495  : 			this->m_BossKanturMapNumber = gObj[n].MapNumber;

  00076	a1 00 00 00 00	 mov	 eax, DWORD PTR ?gObj@@3PAUOBJECTSTRUCT@@A ; gObj

; 496  : 			this->m_BossKanturMapX = gObj[n].X;
; 497  : 			this->m_BossKanturMapY = gObj[n].Y;
; 498  : 
; 499  : 			gObj[n].Life = gObj[n].MaxLife;
; 500  : 			gObj[n].TX = gObj[n].X;
; 501  : 			gObj[n].TY = gObj[n].Y;
; 502  : 			gObj[n].MTX = gObj[n].X;
; 503  : 			gObj[n].MTY = gObj[n].Y;
; 504  : 			gObj[n].StartX = gObj[n].X;
; 505  : 			gObj[n].StartY = gObj[n].Y;
; 506  : 
; 507  : 			gObjClearBuffEffect(&gObj[n],CLEAR_TYPE_DIEREGEN);

  0007b	6a 01		 push	 1
  0007d	0f b6 84 07 23
	01 00 00	 movzx	 eax, BYTE PTR [edi+eax+291]
  00085	89 46 5c	 mov	 DWORD PTR [esi+92], eax
  00088	a1 00 00 00 00	 mov	 eax, DWORD PTR ?gObj@@3PAUOBJECTSTRUCT@@A ; gObj
  0008d	0f b6 84 07 20
	01 00 00	 movzx	 eax, BYTE PTR [edi+eax+288]
  00095	89 46 60	 mov	 DWORD PTR [esi+96], eax
  00098	a1 00 00 00 00	 mov	 eax, DWORD PTR ?gObj@@3PAUOBJECTSTRUCT@@A ; gObj
  0009d	0f b6 84 07 21
	01 00 00	 movzx	 eax, BYTE PTR [edi+eax+289]
  000a5	89 46 64	 mov	 DWORD PTR [esi+100], eax
  000a8	8b 0d 00 00 00
	00		 mov	 ecx, DWORD PTR ?gObj@@3PAUOBJECTSTRUCT@@A ; gObj
  000ae	8b 84 0f dc 00
	00 00		 mov	 eax, DWORD PTR [edi+ecx+220]
  000b5	89 84 0f d8 00
	00 00		 mov	 DWORD PTR [edi+ecx+216], eax
  000bc	8b 0d 00 00 00
	00		 mov	 ecx, DWORD PTR ?gObj@@3PAUOBJECTSTRUCT@@A ; gObj
  000c2	0f b6 84 0f 20
	01 00 00	 movzx	 eax, BYTE PTR [edi+ecx+288]
  000ca	88 84 0f 52 01
	00 00		 mov	 BYTE PTR [edi+ecx+338], al
  000d1	8b 0d 00 00 00
	00		 mov	 ecx, DWORD PTR ?gObj@@3PAUOBJECTSTRUCT@@A ; gObj
  000d7	0f b6 84 0f 21
	01 00 00	 movzx	 eax, BYTE PTR [edi+ecx+289]
  000df	88 84 0f 53 01
	00 00		 mov	 BYTE PTR [edi+ecx+339], al
  000e6	8b 0d 00 00 00
	00		 mov	 ecx, DWORD PTR ?gObj@@3PAUOBJECTSTRUCT@@A ; gObj
  000ec	0f b6 84 0f 20
	01 00 00	 movzx	 eax, BYTE PTR [edi+ecx+288]
  000f4	88 84 0f 54 01
	00 00		 mov	 BYTE PTR [edi+ecx+340], al
  000fb	8b 0d 00 00 00
	00		 mov	 ecx, DWORD PTR ?gObj@@3PAUOBJECTSTRUCT@@A ; gObj
  00101	0f b6 84 0f 21
	01 00 00	 movzx	 eax, BYTE PTR [edi+ecx+289]
  00109	88 84 0f 55 01
	00 00		 mov	 BYTE PTR [edi+ecx+341], al
  00110	8b 0d 00 00 00
	00		 mov	 ecx, DWORD PTR ?gObj@@3PAUOBJECTSTRUCT@@A ; gObj
  00116	0f b6 84 0f 20
	01 00 00	 movzx	 eax, BYTE PTR [edi+ecx+288]
  0011e	88 84 0f 4e 01
	00 00		 mov	 BYTE PTR [edi+ecx+334], al
  00125	8b 0d 00 00 00
	00		 mov	 ecx, DWORD PTR ?gObj@@3PAUOBJECTSTRUCT@@A ; gObj
  0012b	0f b6 84 0f 21
	01 00 00	 movzx	 eax, BYTE PTR [edi+ecx+289]
  00133	88 84 0f 4f 01
	00 00		 mov	 BYTE PTR [edi+ecx+335], al
  0013a	a1 00 00 00 00	 mov	 eax, DWORD PTR ?gObj@@3PAUOBJECTSTRUCT@@A ; gObj
  0013f	03 c7		 add	 eax, edi
  00141	50		 push	 eax
  00142	e8 00 00 00 00	 call	 ?gObjClearBuffEffect@@YA_NPAUOBJECTSTRUCT@@W4eBuffClearType@@@Z ; gObjClearBuffEffect

; 508  : 
; 509  : 			gObj[n].m_ViewState = 0;

  00147	a1 00 00 00 00	 mov	 eax, DWORD PTR ?gObj@@3PAUOBJECTSTRUCT@@A ; gObj
  0014c	c6 84 07 d5 01
	00 00 00	 mov	 BYTE PTR [edi+eax+469], 0

; 510  : 			gObj[n].Teleport = 0;

  00154	a1 00 00 00 00	 mov	 eax, DWORD PTR ?gObj@@3PAUOBJECTSTRUCT@@A ; gObj
  00159	c6 84 07 88 05
	00 00 00	 mov	 BYTE PTR [edi+eax+1416], 0

; 511  : 			gObj[n].m_State = 1;

  00161	a1 00 00 00 00	 mov	 eax, DWORD PTR ?gObj@@3PAUOBJECTSTRUCT@@A ; gObj
  00166	c7 84 07 d0 01
	00 00 01 00 00
	00		 mov	 DWORD PTR [edi+eax+464], 1

; 512  : 			gObj[n].PathCount = 0;

  00171	a1 00 00 00 00	 mov	 eax, DWORD PTR ?gObj@@3PAUOBJECTSTRUCT@@A ; gObj
  00176	c7 84 07 58 01
	00 00 00 00 00
	00		 mov	 DWORD PTR [edi+eax+344], 0

; 513  : 
; 514  : 			LogAddTD("Make GoldTantarus : %d, %d,%d",

  00181	8b 0d 00 00 00
	00		 mov	 ecx, DWORD PTR ?gObj@@3PAUOBJECTSTRUCT@@A ; gObj
  00187	0f b6 84 0f 21
	01 00 00	 movzx	 eax, BYTE PTR [edi+ecx+289]
  0018f	50		 push	 eax
  00190	0f b6 84 0f 20
	01 00 00	 movzx	 eax, BYTE PTR [edi+ecx+288]
  00198	50		 push	 eax
  00199	6a 08		 push	 8
  0019b	68 00 00 00 00	 push	 OFFSET ??_C@_0BO@HFHPKCLG@Make?5GoldTantarus?5?3?5?$CFd?0?5?$CFd?0?$CFd?$AA@
  001a0	ff 15 00 00 00
	00		 call	 DWORD PTR ?LogAddTD@@3P6AXPADZZA ; LogAddTD

; 515  : 				MapNumber, gObj[n].X, gObj[n].Y);
; 516  : 
; 517  : 			gObjMonsterHitDamageInit(&gObj[n]);

  001a6	a1 00 00 00 00	 mov	 eax, DWORD PTR ?gObj@@3PAUOBJECTSTRUCT@@A ; gObj
  001ab	03 c7		 add	 eax, edi
  001ad	50		 push	 eax
  001ae	e8 00 00 00 00	 call	 ?gObjMonsterHitDamageInit@@YAXPAUOBJECTSTRUCT@@@Z ; gObjMonsterHitDamageInit
  001b3	83 c4 1c	 add	 esp, 28			; 0000001cH
  001b6	e9 0b 01 00 00	 jmp	 $LN2@RegenKantu
$LN7@RegenKantu:

; 518  : 		}
; 519  : 		else if ( gObj[n].Class == 83 ) // Gold Iron Wheel

  001bb	83 fa 53	 cmp	 edx, 83			; 00000053H
  001be	0f 85 02 01 00
	00		 jne	 $LN2@RegenKantu

; 520  : 		{
; 521  : 			gObj[n].Live = TRUE;

  001c4	c6 44 07 51 01	 mov	 BYTE PTR [edi+eax+81], 1

; 522  : 			MapNumber = this->m_BossKanturMapNumber;
; 523  : 			gObj[n].MapNumber = MapNumber;

  001c9	a1 00 00 00 00	 mov	 eax, DWORD PTR ?gObj@@3PAUOBJECTSTRUCT@@A ; gObj
  001ce	8b 5e 5c	 mov	 ebx, DWORD PTR [esi+92]
  001d1	88 9c 07 23 01
	00 00		 mov	 BYTE PTR [edi+eax+291], bl

; 524  : 
; 525  : 
; 526  : 			gMSetBase.GetBoxPosition(MapNumber, this->m_BossKanturMapX-10, this->m_BossKanturMapY-10,

  001d8	8b 0d 00 00 00
	00		 mov	 ecx, DWORD PTR ?gObj@@3PAUOBJECTSTRUCT@@A ; gObj
  001de	8b 56 64	 mov	 edx, DWORD PTR [esi+100]
  001e1	8b 76 60	 mov	 esi, DWORD PTR [esi+96]
  001e4	8d 81 21 01 00
	00		 lea	 eax, DWORD PTR [ecx+289]
  001ea	03 c7		 add	 eax, edi
  001ec	50		 push	 eax
  001ed	8d 81 20 01 00
	00		 lea	 eax, DWORD PTR [ecx+288]
  001f3	b9 00 00 00 00	 mov	 ecx, OFFSET ?gMSetBase@@3VCMonsterSetBase@@A ; gMSetBase
  001f8	03 c7		 add	 eax, edi
  001fa	50		 push	 eax
  001fb	8d 42 0a	 lea	 eax, DWORD PTR [edx+10]
  001fe	50		 push	 eax
  001ff	8d 46 0a	 lea	 eax, DWORD PTR [esi+10]
  00202	50		 push	 eax
  00203	8d 42 f6	 lea	 eax, DWORD PTR [edx-10]
  00206	50		 push	 eax
  00207	8d 46 f6	 lea	 eax, DWORD PTR [esi-10]
  0020a	50		 push	 eax
  0020b	53		 push	 ebx
  0020c	e8 00 00 00 00	 call	 ?GetBoxPosition@CMonsterSetBase@@QAEHHHHHHAAE0@Z ; CMonsterSetBase::GetBoxPosition

; 527  : 				this->m_BossKanturMapX+10, this->m_BossKanturMapY+10, gObj[n].X, gObj[n].Y);
; 528  : 
; 529  : 			gObj[n].Life = gObj[n].MaxLife;

  00211	8b 0d 00 00 00
	00		 mov	 ecx, DWORD PTR ?gObj@@3PAUOBJECTSTRUCT@@A ; gObj
  00217	8b 75 fc	 mov	 esi, DWORD PTR _this$1$[ebp]
  0021a	8b 84 0f dc 00
	00 00		 mov	 eax, DWORD PTR [edi+ecx+220]
  00221	89 84 0f d8 00
	00 00		 mov	 DWORD PTR [edi+ecx+216], eax

; 530  : 			gObj[n].TX = gObj[n].X;

  00228	8b 0d 00 00 00
	00		 mov	 ecx, DWORD PTR ?gObj@@3PAUOBJECTSTRUCT@@A ; gObj
  0022e	0f b6 84 0f 20
	01 00 00	 movzx	 eax, BYTE PTR [edi+ecx+288]
  00236	88 84 0f 52 01
	00 00		 mov	 BYTE PTR [edi+ecx+338], al

; 531  : 			gObj[n].TY = gObj[n].Y;

  0023d	8b 0d 00 00 00
	00		 mov	 ecx, DWORD PTR ?gObj@@3PAUOBJECTSTRUCT@@A ; gObj
  00243	0f b6 84 0f 21
	01 00 00	 movzx	 eax, BYTE PTR [edi+ecx+289]
  0024b	88 84 0f 53 01
	00 00		 mov	 BYTE PTR [edi+ecx+339], al

; 532  : 			gObj[n].MTX = gObj[n].X;

  00252	8b 0d 00 00 00
	00		 mov	 ecx, DWORD PTR ?gObj@@3PAUOBJECTSTRUCT@@A ; gObj
  00258	0f b6 84 0f 20
	01 00 00	 movzx	 eax, BYTE PTR [edi+ecx+288]
  00260	88 84 0f 54 01
	00 00		 mov	 BYTE PTR [edi+ecx+340], al

; 533  : 			gObj[n].MTY = gObj[n].Y;

  00267	8b 0d 00 00 00
	00		 mov	 ecx, DWORD PTR ?gObj@@3PAUOBJECTSTRUCT@@A ; gObj
  0026d	0f b6 84 0f 21
	01 00 00	 movzx	 eax, BYTE PTR [edi+ecx+289]
  00275	88 84 0f 55 01
	00 00		 mov	 BYTE PTR [edi+ecx+341], al

; 534  : 			gObj[n].StartX = gObj[n].X;

  0027c	8b 0d 00 00 00
	00		 mov	 ecx, DWORD PTR ?gObj@@3PAUOBJECTSTRUCT@@A ; gObj
  00282	0f b6 84 0f 20
	01 00 00	 movzx	 eax, BYTE PTR [edi+ecx+288]
  0028a	88 84 0f 4e 01
	00 00		 mov	 BYTE PTR [edi+ecx+334], al

; 535  : 			gObj[n].StartY = gObj[n].Y;

  00291	8b 0d 00 00 00
	00		 mov	 ecx, DWORD PTR ?gObj@@3PAUOBJECTSTRUCT@@A ; gObj
  00297	0f b6 84 0f 21
	01 00 00	 movzx	 eax, BYTE PTR [edi+ecx+289]
  0029f	88 84 0f 4f 01
	00 00		 mov	 BYTE PTR [edi+ecx+335], al

; 536  : 			gObj[n].m_State = 1;

  002a6	a1 00 00 00 00	 mov	 eax, DWORD PTR ?gObj@@3PAUOBJECTSTRUCT@@A ; gObj
  002ab	c7 84 07 d0 01
	00 00 01 00 00
	00		 mov	 DWORD PTR [edi+eax+464], 1

; 537  : 			gObj[n].PathCount = 0;

  002b6	a1 00 00 00 00	 mov	 eax, DWORD PTR ?gObj@@3PAUOBJECTSTRUCT@@A ; gObj
  002bb	c7 84 07 58 01
	00 00 00 00 00
	00		 mov	 DWORD PTR [edi+eax+344], 0
$LN2@RegenKantu:

; 479  : 	int n=0;
; 480  : 	int MapNumber;
; 481  : 
; 482  : 	for (n=0;n<OBJ_MAXMONSTER;n++)

  002c6	81 c7 40 27 00
	00		 add	 edi, 10048		; 00002740H
  002cc	81 ff 00 dd 49
	06		 cmp	 edi, 105504000		; 0649dd00H
  002d2	0f 8c 38 fd ff
	ff		 jl	 $LL4@RegenKantu
  002d8	5f		 pop	 edi
  002d9	5e		 pop	 esi
  002da	5b		 pop	 ebx

; 538  : 		}
; 539  : 	}
; 540  : }

  002db	8b e5		 mov	 esp, ebp
  002dd	5d		 pop	 ebp
  002de	c3		 ret	 0
?RegenKantur@CEledoradoEvent@@QAEXXZ ENDP		; CEledoradoEvent::RegenKantur
_TEXT	ENDS
; Function compile flags: /Ogtp
; File c:\users\michel\desktop\source\gameserver\source\eledoradoevent.cpp
;	COMDAT ?RegenDevilLizardKing@CEledoradoEvent@@QAEXXZ
_TEXT	SEGMENT
?RegenDevilLizardKing@CEledoradoEvent@@QAEXXZ PROC	; CEledoradoEvent::RegenDevilLizardKing, COMDAT
; _this$ = ecx

; 417  : {

  00000	53		 push	 ebx
  00001	56		 push	 esi
  00002	57		 push	 edi
  00003	8b f9		 mov	 edi, ecx

; 418  : 	int n=0;
; 419  : 	int MapNumber;
; 420  : 
; 421  : 	for (n=0;n<OBJ_MAXMONSTER;n++)

  00005	33 f6		 xor	 esi, esi
  00007	66 0f 1f 84 00
	00 00 00 00	 npad	 9
$LL4@RegenDevil:

; 422  : 	{
; 423  : 		MapNumber = 7;
; 424  : 		if ( gObj[n].Class == 80 )	// Devil Lizard King

  00010	a1 00 00 00 00	 mov	 eax, DWORD PTR ?gObj@@3PAUOBJECTSTRUCT@@A ; gObj
  00015	0f b7 94 06 90
	00 00 00	 movzx	 edx, WORD PTR [esi+eax+144]
  0001d	83 fa 50	 cmp	 edx, 80			; 00000050H
  00020	0f 85 6c 01 00
	00		 jne	 $LN9@RegenDevil

; 425  : 		{
; 426  : 			gObj[n].Live = TRUE;

  00026	c6 44 06 51 01	 mov	 BYTE PTR [esi+eax+81], 1

; 427  : 			gObj[n].MapNumber = MapNumber;

  0002b	a1 00 00 00 00	 mov	 eax, DWORD PTR ?gObj@@3PAUOBJECTSTRUCT@@A ; gObj
  00030	c6 84 06 23 01
	00 00 07	 mov	 BYTE PTR [esi+eax+291], 7
  00038	0f 1f 84 00 00
	00 00 00	 npad	 8
$LL5@RegenDevil:

; 428  : 
; 429  : 			while ( gMSetBase.GetBoxPosition(MapNumber, 50, 10, 250, 200, gObj[n].X, gObj[n].Y) == 0 )

  00040	8b 0d 00 00 00
	00		 mov	 ecx, DWORD PTR ?gObj@@3PAUOBJECTSTRUCT@@A ; gObj
  00046	8d 81 21 01 00
	00		 lea	 eax, DWORD PTR [ecx+289]
  0004c	03 c6		 add	 eax, esi
  0004e	50		 push	 eax
  0004f	8d 81 20 01 00
	00		 lea	 eax, DWORD PTR [ecx+288]
  00055	b9 00 00 00 00	 mov	 ecx, OFFSET ?gMSetBase@@3VCMonsterSetBase@@A ; gMSetBase
  0005a	03 c6		 add	 eax, esi
  0005c	50		 push	 eax
  0005d	68 c8 00 00 00	 push	 200			; 000000c8H
  00062	68 fa 00 00 00	 push	 250			; 000000faH
  00067	6a 0a		 push	 10			; 0000000aH
  00069	6a 32		 push	 50			; 00000032H
  0006b	6a 07		 push	 7
  0006d	e8 00 00 00 00	 call	 ?GetBoxPosition@CMonsterSetBase@@QAEHHHHHHAAE0@Z ; CMonsterSetBase::GetBoxPosition
  00072	85 c0		 test	 eax, eax
  00074	74 ca		 je	 SHORT $LL5@RegenDevil

; 430  : 			{
; 431  : 
; 432  : 			}
; 433  : 
; 434  : 			this->m_BossDevilLizardKingMapNumber = gObj[n].MapNumber;

  00076	a1 00 00 00 00	 mov	 eax, DWORD PTR ?gObj@@3PAUOBJECTSTRUCT@@A ; gObj
  0007b	0f b6 84 06 23
	01 00 00	 movzx	 eax, BYTE PTR [esi+eax+291]
  00083	89 47 50	 mov	 DWORD PTR [edi+80], eax

; 435  : 			this->m_BossDevilLizardKingMapX = gObj[n].X;

  00086	a1 00 00 00 00	 mov	 eax, DWORD PTR ?gObj@@3PAUOBJECTSTRUCT@@A ; gObj
  0008b	0f b6 84 06 20
	01 00 00	 movzx	 eax, BYTE PTR [esi+eax+288]
  00093	89 47 54	 mov	 DWORD PTR [edi+84], eax

; 436  : 			this->m_BossDevilLizardKingMapY = gObj[n].Y;

  00096	a1 00 00 00 00	 mov	 eax, DWORD PTR ?gObj@@3PAUOBJECTSTRUCT@@A ; gObj
  0009b	0f b6 84 06 21
	01 00 00	 movzx	 eax, BYTE PTR [esi+eax+289]
  000a3	89 47 58	 mov	 DWORD PTR [edi+88], eax

; 437  : 
; 438  : 			gObj[n].Life = gObj[n].MaxLife;

  000a6	8b 0d 00 00 00
	00		 mov	 ecx, DWORD PTR ?gObj@@3PAUOBJECTSTRUCT@@A ; gObj
  000ac	8b 84 0e dc 00
	00 00		 mov	 eax, DWORD PTR [esi+ecx+220]
  000b3	89 84 0e d8 00
	00 00		 mov	 DWORD PTR [esi+ecx+216], eax

; 439  : 			gObj[n].TX = gObj[n].X;

  000ba	8b 0d 00 00 00
	00		 mov	 ecx, DWORD PTR ?gObj@@3PAUOBJECTSTRUCT@@A ; gObj
  000c0	0f b6 84 0e 20
	01 00 00	 movzx	 eax, BYTE PTR [esi+ecx+288]
  000c8	88 84 0e 52 01
	00 00		 mov	 BYTE PTR [esi+ecx+338], al

; 440  : 			gObj[n].TY = gObj[n].Y;

  000cf	8b 0d 00 00 00
	00		 mov	 ecx, DWORD PTR ?gObj@@3PAUOBJECTSTRUCT@@A ; gObj
  000d5	0f b6 84 0e 21
	01 00 00	 movzx	 eax, BYTE PTR [esi+ecx+289]
  000dd	88 84 0e 53 01
	00 00		 mov	 BYTE PTR [esi+ecx+339], al

; 441  : 			gObj[n].MTX = gObj[n].X;

  000e4	8b 0d 00 00 00
	00		 mov	 ecx, DWORD PTR ?gObj@@3PAUOBJECTSTRUCT@@A ; gObj
  000ea	0f b6 84 0e 20
	01 00 00	 movzx	 eax, BYTE PTR [esi+ecx+288]
  000f2	88 84 0e 54 01
	00 00		 mov	 BYTE PTR [esi+ecx+340], al

; 442  : 			gObj[n].MTY = gObj[n].Y;

  000f9	8b 0d 00 00 00
	00		 mov	 ecx, DWORD PTR ?gObj@@3PAUOBJECTSTRUCT@@A ; gObj
  000ff	0f b6 84 0e 21
	01 00 00	 movzx	 eax, BYTE PTR [esi+ecx+289]
  00107	88 84 0e 55 01
	00 00		 mov	 BYTE PTR [esi+ecx+341], al

; 443  : 			gObj[n].StartX = gObj[n].X;

  0010e	8b 0d 00 00 00
	00		 mov	 ecx, DWORD PTR ?gObj@@3PAUOBJECTSTRUCT@@A ; gObj
  00114	0f b6 84 0e 20
	01 00 00	 movzx	 eax, BYTE PTR [esi+ecx+288]
  0011c	88 84 0e 4e 01
	00 00		 mov	 BYTE PTR [esi+ecx+334], al

; 444  : 			gObj[n].StartY = gObj[n].Y;

  00123	8b 0d 00 00 00
	00		 mov	 ecx, DWORD PTR ?gObj@@3PAUOBJECTSTRUCT@@A ; gObj
  00129	0f b6 84 0e 21
	01 00 00	 movzx	 eax, BYTE PTR [esi+ecx+289]
  00131	88 84 0e 4f 01
	00 00		 mov	 BYTE PTR [esi+ecx+335], al

; 445  : 			gObj[n].m_State = 1;

  00138	a1 00 00 00 00	 mov	 eax, DWORD PTR ?gObj@@3PAUOBJECTSTRUCT@@A ; gObj
  0013d	c7 84 06 d0 01
	00 00 01 00 00
	00		 mov	 DWORD PTR [esi+eax+464], 1

; 446  : 			gObj[n].PathCount = 0;

  00148	a1 00 00 00 00	 mov	 eax, DWORD PTR ?gObj@@3PAUOBJECTSTRUCT@@A ; gObj
  0014d	c7 84 06 58 01
	00 00 00 00 00
	00		 mov	 DWORD PTR [esi+eax+344], 0

; 447  : 
; 448  : 			LogAddTD("Make GoldLizarKing : %d, %d,%d",

  00158	8b 0d 00 00 00
	00		 mov	 ecx, DWORD PTR ?gObj@@3PAUOBJECTSTRUCT@@A ; gObj
  0015e	0f b6 84 0e 21
	01 00 00	 movzx	 eax, BYTE PTR [esi+ecx+289]
  00166	50		 push	 eax
  00167	0f b6 84 0e 20
	01 00 00	 movzx	 eax, BYTE PTR [esi+ecx+288]
  0016f	50		 push	 eax
  00170	6a 07		 push	 7
  00172	68 00 00 00 00	 push	 OFFSET ??_C@_0BP@HMGNFLDB@Make?5GoldLizarKing?5?3?5?$CFd?0?5?$CFd?0?$CFd?$AA@
  00177	ff 15 00 00 00
	00		 call	 DWORD PTR ?LogAddTD@@3P6AXPADZZA ; LogAddTD

; 449  : 				MapNumber, gObj[n].X, gObj[n].Y);
; 450  : 
; 451  : 			gObjMonsterHitDamageInit(&gObj[n]);

  0017d	a1 00 00 00 00	 mov	 eax, DWORD PTR ?gObj@@3PAUOBJECTSTRUCT@@A ; gObj
  00182	03 c6		 add	 eax, esi
  00184	50		 push	 eax
  00185	e8 00 00 00 00	 call	 ?gObjMonsterHitDamageInit@@YAXPAUOBJECTSTRUCT@@@Z ; gObjMonsterHitDamageInit
  0018a	83 c4 14	 add	 esp, 20			; 00000014H
  0018d	e9 05 01 00 00	 jmp	 $LN2@RegenDevil
$LN9@RegenDevil:

; 452  : 		}
; 453  : 		else if ( gObj[n].Class == 81 ) // Golden Velparie

  00192	83 fa 51	 cmp	 edx, 81			; 00000051H
  00195	0f 85 fc 00 00
	00		 jne	 $LN2@RegenDevil

; 454  : 		{
; 455  : 			gObj[n].Live = TRUE;

  0019b	c6 44 06 51 01	 mov	 BYTE PTR [esi+eax+81], 1

; 456  : 			MapNumber = this->m_BossDevilLizardKingMapNumber;
; 457  : 			gObj[n].MapNumber = MapNumber;

  001a0	a1 00 00 00 00	 mov	 eax, DWORD PTR ?gObj@@3PAUOBJECTSTRUCT@@A ; gObj
  001a5	8b 5f 50	 mov	 ebx, DWORD PTR [edi+80]
  001a8	88 9c 06 23 01
	00 00		 mov	 BYTE PTR [esi+eax+291], bl
  001af	90		 npad	 1
$LL7@RegenDevil:

; 458  : 
; 459  : 			while( gMSetBase.GetBoxPosition(MapNumber, 15,50, 250, 200, gObj[n].X, gObj[n].Y ) == 0 )

  001b0	8b 0d 00 00 00
	00		 mov	 ecx, DWORD PTR ?gObj@@3PAUOBJECTSTRUCT@@A ; gObj
  001b6	8d 81 21 01 00
	00		 lea	 eax, DWORD PTR [ecx+289]
  001bc	03 c6		 add	 eax, esi
  001be	50		 push	 eax
  001bf	8d 81 20 01 00
	00		 lea	 eax, DWORD PTR [ecx+288]
  001c5	b9 00 00 00 00	 mov	 ecx, OFFSET ?gMSetBase@@3VCMonsterSetBase@@A ; gMSetBase
  001ca	03 c6		 add	 eax, esi
  001cc	50		 push	 eax
  001cd	68 c8 00 00 00	 push	 200			; 000000c8H
  001d2	68 fa 00 00 00	 push	 250			; 000000faH
  001d7	6a 32		 push	 50			; 00000032H
  001d9	6a 0f		 push	 15			; 0000000fH
  001db	53		 push	 ebx
  001dc	e8 00 00 00 00	 call	 ?GetBoxPosition@CMonsterSetBase@@QAEHHHHHHAAE0@Z ; CMonsterSetBase::GetBoxPosition
  001e1	85 c0		 test	 eax, eax
  001e3	74 cb		 je	 SHORT $LL7@RegenDevil

; 460  : 			{
; 461  : 
; 462  : 			}
; 463  : 
; 464  : 			gObj[n].Life = gObj[n].MaxLife;

  001e5	8b 0d 00 00 00
	00		 mov	 ecx, DWORD PTR ?gObj@@3PAUOBJECTSTRUCT@@A ; gObj
  001eb	8b 84 0e dc 00
	00 00		 mov	 eax, DWORD PTR [esi+ecx+220]
  001f2	89 84 0e d8 00
	00 00		 mov	 DWORD PTR [esi+ecx+216], eax

; 465  : 			gObj[n].TX = gObj[n].X;

  001f9	8b 0d 00 00 00
	00		 mov	 ecx, DWORD PTR ?gObj@@3PAUOBJECTSTRUCT@@A ; gObj
  001ff	0f b6 84 0e 20
	01 00 00	 movzx	 eax, BYTE PTR [esi+ecx+288]
  00207	88 84 0e 52 01
	00 00		 mov	 BYTE PTR [esi+ecx+338], al

; 466  : 			gObj[n].TY = gObj[n].Y;

  0020e	8b 0d 00 00 00
	00		 mov	 ecx, DWORD PTR ?gObj@@3PAUOBJECTSTRUCT@@A ; gObj
  00214	0f b6 84 0e 21
	01 00 00	 movzx	 eax, BYTE PTR [esi+ecx+289]
  0021c	88 84 0e 53 01
	00 00		 mov	 BYTE PTR [esi+ecx+339], al

; 467  : 			gObj[n].MTX = gObj[n].X;

  00223	8b 0d 00 00 00
	00		 mov	 ecx, DWORD PTR ?gObj@@3PAUOBJECTSTRUCT@@A ; gObj
  00229	0f b6 84 0e 20
	01 00 00	 movzx	 eax, BYTE PTR [esi+ecx+288]
  00231	88 84 0e 54 01
	00 00		 mov	 BYTE PTR [esi+ecx+340], al

; 468  : 			gObj[n].MTY = gObj[n].Y;

  00238	8b 0d 00 00 00
	00		 mov	 ecx, DWORD PTR ?gObj@@3PAUOBJECTSTRUCT@@A ; gObj
  0023e	0f b6 84 0e 21
	01 00 00	 movzx	 eax, BYTE PTR [esi+ecx+289]
  00246	88 84 0e 55 01
	00 00		 mov	 BYTE PTR [esi+ecx+341], al

; 469  : 			gObj[n].StartX = gObj[n].X;

  0024d	8b 0d 00 00 00
	00		 mov	 ecx, DWORD PTR ?gObj@@3PAUOBJECTSTRUCT@@A ; gObj
  00253	0f b6 84 0e 20
	01 00 00	 movzx	 eax, BYTE PTR [esi+ecx+288]
  0025b	88 84 0e 4e 01
	00 00		 mov	 BYTE PTR [esi+ecx+334], al

; 470  : 			gObj[n].StartY = gObj[n].Y;

  00262	8b 0d 00 00 00
	00		 mov	 ecx, DWORD PTR ?gObj@@3PAUOBJECTSTRUCT@@A ; gObj
  00268	0f b6 84 0e 21
	01 00 00	 movzx	 eax, BYTE PTR [esi+ecx+289]
  00270	88 84 0e 4f 01
	00 00		 mov	 BYTE PTR [esi+ecx+335], al

; 471  : 			gObj[n].m_State = 1;

  00277	a1 00 00 00 00	 mov	 eax, DWORD PTR ?gObj@@3PAUOBJECTSTRUCT@@A ; gObj
  0027c	c7 84 06 d0 01
	00 00 01 00 00
	00		 mov	 DWORD PTR [esi+eax+464], 1

; 472  : 			gObj[n].PathCount = 0;

  00287	a1 00 00 00 00	 mov	 eax, DWORD PTR ?gObj@@3PAUOBJECTSTRUCT@@A ; gObj
  0028c	c7 84 06 58 01
	00 00 00 00 00
	00		 mov	 DWORD PTR [esi+eax+344], 0
$LN2@RegenDevil:

; 418  : 	int n=0;
; 419  : 	int MapNumber;
; 420  : 
; 421  : 	for (n=0;n<OBJ_MAXMONSTER;n++)

  00297	81 c6 40 27 00
	00		 add	 esi, 10048		; 00002740H
  0029d	81 fe 00 dd 49
	06		 cmp	 esi, 105504000		; 0649dd00H
  002a3	0f 8c 67 fd ff
	ff		 jl	 $LL4@RegenDevil

; 473  : 		}
; 474  : 	}
; 475  : }

  002a9	5f		 pop	 edi
  002aa	5e		 pop	 esi
  002ab	5b		 pop	 ebx
  002ac	c3		 ret	 0
?RegenDevilLizardKing@CEledoradoEvent@@QAEXXZ ENDP	; CEledoradoEvent::RegenDevilLizardKing
_TEXT	ENDS
; Function compile flags: /Ogtp
; File c:\users\michel\desktop\source\gameserver\source\eledoradoevent.cpp
;	COMDAT ?RegenGoldDercon@CEledoradoEvent@@QAEXXZ
_TEXT	SEGMENT
_this$GSCopy$1$ = -288					; size = 4
tv440 = -284						; size = 4
_count$1$ = -280					; size = 4
_MapNumber$1$ = -276					; size = 4
_Map$ = -272						; size = 12
_szTemp$1 = -260					; size = 256
__$ArrayPad$ = -4					; size = 4
?RegenGoldDercon@CEledoradoEvent@@QAEXXZ PROC		; CEledoradoEvent::RegenGoldDercon, COMDAT
; _this$ = ecx

; 348  : {

  00000	55		 push	 ebp
  00001	8b ec		 mov	 ebp, esp
  00003	81 ec 20 01 00
	00		 sub	 esp, 288		; 00000120H
  00009	a1 00 00 00 00	 mov	 eax, DWORD PTR ___security_cookie
  0000e	33 c5		 xor	 eax, ebp
  00010	89 45 fc	 mov	 DWORD PTR __$ArrayPad$[ebp], eax
  00013	53		 push	 ebx
  00014	56		 push	 esi
  00015	57		 push	 edi

; 349  : 	int n=0;
; 350  : 	int MapNumber=-1;

  00016	83 ce ff	 or	 esi, -1

; 351  : 	int Map[3]={MAP_INDEX_RORENCIA,MAP_INDEX_DEVIAS,MAP_INDEX_NORIA};

  00019	c7 85 f0 fe ff
	ff 00 00 00 00	 mov	 DWORD PTR _Map$[ebp], 0
  00023	8b c1		 mov	 eax, ecx
  00025	c7 85 f4 fe ff
	ff 02 00 00 00	 mov	 DWORD PTR _Map$[ebp+4], 2

; 352  : 	int SelMap = -1;
; 353  : 	int count = 0;
; 354  : 
; 355  : 	this->CheckGoldDercon(MapNumber);

  0002f	56		 push	 esi
  00030	89 85 e0 fe ff
	ff		 mov	 DWORD PTR _this$GSCopy$1$[ebp], eax
  00036	0b fe		 or	 edi, esi
  00038	c7 85 f8 fe ff
	ff 03 00 00 00	 mov	 DWORD PTR _Map$[ebp+8], 3
  00042	c7 85 e8 fe ff
	ff 00 00 00 00	 mov	 DWORD PTR _count$1$[ebp], 0
  0004c	e8 00 00 00 00	 call	 ?CheckGoldDercon@CEledoradoEvent@@QAEXH@Z ; CEledoradoEvent::CheckGoldDercon
  00051	8b 85 e0 fe ff
	ff		 mov	 eax, DWORD PTR _this$GSCopy$1$[ebp]
  00057	33 db		 xor	 ebx, ebx
  00059	83 c0 6c	 add	 eax, 108		; 0000006cH
  0005c	89 85 e4 fe ff
	ff		 mov	 DWORD PTR tv440[ebp], eax
$LL4@RegenGoldD:

; 358  : 	{
; 359  : 		if ( gObj[n].Class == 79 )

  00062	a1 00 00 00 00	 mov	 eax, DWORD PTR ?gObj@@3PAUOBJECTSTRUCT@@A ; gObj
  00067	66 83 bc 03 90
	00 00 00 4f	 cmp	 WORD PTR [ebx+eax+144], 79 ; 0000004fH
  00070	0f 85 41 02 00
	00		 jne	 $LN2@RegenGoldD

; 360  : 		{
; 361  : 			gObj[n].Live = TRUE;

  00076	c6 44 03 51 01	 mov	 BYTE PTR [ebx+eax+81], 1

; 362  : 
; 363  : 			if ( SelMap == -1 )	

  0007b	83 ff ff	 cmp	 edi, -1
  0007e	75 16		 jne	 SHORT $LN8@RegenGoldD

; 364  : 			{
; 365  : 				MapNumber = Map[rand()%3];

  00080	e8 00 00 00 00	 call	 _rand
  00085	99		 cdq
  00086	b9 03 00 00 00	 mov	 ecx, 3
  0008b	f7 f9		 idiv	 ecx
  0008d	8b 94 95 f0 fe
	ff ff		 mov	 edx, DWORD PTR _Map$[ebp+edx*4]

; 366  : 			}
; 367  : 			else

  00094	eb 02		 jmp	 SHORT $LN27@RegenGoldD
$LN8@RegenGoldD:

; 368  : 			{
; 369  : 				MapNumber = SelMap;

  00096	8b d7		 mov	 edx, edi
$LN27@RegenGoldD:

; 370  : 			}
; 371  : 
; 372  : 			gObj[n].MapNumber = MapNumber;

  00098	a1 00 00 00 00	 mov	 eax, DWORD PTR ?gObj@@3PAUOBJECTSTRUCT@@A ; gObj
  0009d	89 95 ec fe ff
	ff		 mov	 DWORD PTR _MapNumber$1$[ebp], edx
  000a3	88 94 03 23 01
	00 00		 mov	 BYTE PTR [ebx+eax+291], dl
  000aa	66 0f 1f 44 00
	00		 npad	 6
$LL5@RegenGoldD:

; 373  : 
; 374  : 			while ( gMSetBase.GetBoxPosition(MapNumber, 80, 80, 170, 170, gObj[n].X, gObj[n].Y) == 0 )

  000b0	8b 0d 00 00 00
	00		 mov	 ecx, DWORD PTR ?gObj@@3PAUOBJECTSTRUCT@@A ; gObj
  000b6	8d 81 21 01 00
	00		 lea	 eax, DWORD PTR [ecx+289]
  000bc	03 c3		 add	 eax, ebx
  000be	50		 push	 eax
  000bf	8d 81 20 01 00
	00		 lea	 eax, DWORD PTR [ecx+288]
  000c5	b9 00 00 00 00	 mov	 ecx, OFFSET ?gMSetBase@@3VCMonsterSetBase@@A ; gMSetBase
  000ca	03 c3		 add	 eax, ebx
  000cc	50		 push	 eax
  000cd	68 aa 00 00 00	 push	 170			; 000000aaH
  000d2	68 aa 00 00 00	 push	 170			; 000000aaH
  000d7	6a 50		 push	 80			; 00000050H
  000d9	6a 50		 push	 80			; 00000050H
  000db	52		 push	 edx
  000dc	e8 00 00 00 00	 call	 ?GetBoxPosition@CMonsterSetBase@@QAEHHHHHHAAE0@Z ; CMonsterSetBase::GetBoxPosition
  000e1	8b 95 ec fe ff
	ff		 mov	 edx, DWORD PTR _MapNumber$1$[ebp]
  000e7	85 c0		 test	 eax, eax
  000e9	74 c5		 je	 SHORT $LL5@RegenGoldD

; 375  : 			{
; 376  : 
; 377  : 			}
; 378  : 
; 379  : 			gObj[n].Life = gObj[n].MaxLife;

  000eb	8b 0d 00 00 00
	00		 mov	 ecx, DWORD PTR ?gObj@@3PAUOBJECTSTRUCT@@A ; gObj

; 380  : 			gObj[n].TX = gObj[n].X;
; 381  : 			gObj[n].TY = gObj[n].Y;
; 382  : 			gObj[n].MTX = gObj[n].X;
; 383  : 			gObj[n].MTY = gObj[n].Y;
; 384  : 			gObj[n].StartX = gObj[n].X;
; 385  : 			gObj[n].StartY = gObj[n].Y;
; 386  : 			gObj[n].m_State = 1;
; 387  : 			gObj[n].PathCount = 0;
; 388  : 
; 389  : 			LogAddTD("Make GoldDercon : %d, %d,%d",

  000f1	8b f2		 mov	 esi, edx
  000f3	8b 84 0b dc 00
	00 00		 mov	 eax, DWORD PTR [ebx+ecx+220]
  000fa	89 84 0b d8 00
	00 00		 mov	 DWORD PTR [ebx+ecx+216], eax
  00101	8b 0d 00 00 00
	00		 mov	 ecx, DWORD PTR ?gObj@@3PAUOBJECTSTRUCT@@A ; gObj
  00107	0f b6 84 0b 20
	01 00 00	 movzx	 eax, BYTE PTR [ebx+ecx+288]
  0010f	88 84 0b 52 01
	00 00		 mov	 BYTE PTR [ebx+ecx+338], al
  00116	8b 0d 00 00 00
	00		 mov	 ecx, DWORD PTR ?gObj@@3PAUOBJECTSTRUCT@@A ; gObj
  0011c	0f b6 84 0b 21
	01 00 00	 movzx	 eax, BYTE PTR [ebx+ecx+289]
  00124	88 84 0b 53 01
	00 00		 mov	 BYTE PTR [ebx+ecx+339], al
  0012b	8b 0d 00 00 00
	00		 mov	 ecx, DWORD PTR ?gObj@@3PAUOBJECTSTRUCT@@A ; gObj
  00131	0f b6 84 0b 20
	01 00 00	 movzx	 eax, BYTE PTR [ebx+ecx+288]
  00139	88 84 0b 54 01
	00 00		 mov	 BYTE PTR [ebx+ecx+340], al
  00140	8b 0d 00 00 00
	00		 mov	 ecx, DWORD PTR ?gObj@@3PAUOBJECTSTRUCT@@A ; gObj
  00146	0f b6 84 0b 21
	01 00 00	 movzx	 eax, BYTE PTR [ebx+ecx+289]
  0014e	88 84 0b 55 01
	00 00		 mov	 BYTE PTR [ebx+ecx+341], al
  00155	8b 0d 00 00 00
	00		 mov	 ecx, DWORD PTR ?gObj@@3PAUOBJECTSTRUCT@@A ; gObj
  0015b	0f b6 84 0b 20
	01 00 00	 movzx	 eax, BYTE PTR [ebx+ecx+288]
  00163	88 84 0b 4e 01
	00 00		 mov	 BYTE PTR [ebx+ecx+334], al
  0016a	8b 0d 00 00 00
	00		 mov	 ecx, DWORD PTR ?gObj@@3PAUOBJECTSTRUCT@@A ; gObj
  00170	0f b6 84 0b 21
	01 00 00	 movzx	 eax, BYTE PTR [ebx+ecx+289]
  00178	88 84 0b 4f 01
	00 00		 mov	 BYTE PTR [ebx+ecx+335], al
  0017f	a1 00 00 00 00	 mov	 eax, DWORD PTR ?gObj@@3PAUOBJECTSTRUCT@@A ; gObj
  00184	c7 84 03 d0 01
	00 00 01 00 00
	00		 mov	 DWORD PTR [ebx+eax+464], 1
  0018f	a1 00 00 00 00	 mov	 eax, DWORD PTR ?gObj@@3PAUOBJECTSTRUCT@@A ; gObj
  00194	c7 84 03 58 01
	00 00 00 00 00
	00		 mov	 DWORD PTR [ebx+eax+344], 0
  0019f	8b 0d 00 00 00
	00		 mov	 ecx, DWORD PTR ?gObj@@3PAUOBJECTSTRUCT@@A ; gObj
  001a5	0f b6 84 0b 21
	01 00 00	 movzx	 eax, BYTE PTR [ebx+ecx+289]
  001ad	50		 push	 eax
  001ae	0f b6 84 0b 20
	01 00 00	 movzx	 eax, BYTE PTR [ebx+ecx+288]
  001b6	50		 push	 eax
  001b7	56		 push	 esi
  001b8	68 00 00 00 00	 push	 OFFSET ??_C@_0BM@ENHJDIJM@Make?5GoldDercon?5?3?5?$CFd?0?5?$CFd?0?$CFd?$AA@
  001bd	ff 15 00 00 00
	00		 call	 DWORD PTR ?LogAddTD@@3P6AXPADZZA ; LogAddTD
  001c3	83 c4 10	 add	 esp, 16			; 00000010H

; 390  : 				MapNumber, gObj[n].X, gObj[n].Y);
; 391  : 
; 392  : 			if ( SelMap == -1 )

  001c6	83 ff ff	 cmp	 edi, -1
  001c9	0f 85 ac 00 00
	00		 jne	 $LN10@RegenGoldD

; 393  : 			{
; 394  : 				char szTemp[256];
; 395  : 				strcpy(szTemp, " ");

  001cf	33 c9		 xor	 ecx, ecx
  001d1	0f 1f 40 00 66
	66 66 0f 1f 84
	00 00 00 00 00	 npad	 15
$LL12@RegenGoldD:
  001e0	8a 81 00 00 00
	00		 mov	 al, BYTE PTR ??_C@_01CLKCMJKC@?5?$AA@[ecx]
  001e6	8d 49 01	 lea	 ecx, DWORD PTR [ecx+1]
  001e9	88 84 0d fb fe
	ff ff		 mov	 BYTE PTR _szTemp$1[ebp+ecx-1], al
  001f0	84 c0		 test	 al, al
  001f2	75 ec		 jne	 SHORT $LL12@RegenGoldD

; 396  : 				strcat(szTemp, gMapName[MapNumber]);

  001f4	8b d6		 mov	 edx, esi
  001f6	c1 e2 06	 shl	 edx, 6
  001f9	81 c2 00 00 00
	00		 add	 edx, OFFSET ?gMapName@@3PAY0EA@DA ; gMapName
  001ff	8b f2		 mov	 esi, edx
$LL23@RegenGoldD:
  00201	8a 02		 mov	 al, BYTE PTR [edx]
  00203	42		 inc	 edx
  00204	84 c0		 test	 al, al
  00206	75 f9		 jne	 SHORT $LL23@RegenGoldD
  00208	8d bd fc fe ff
	ff		 lea	 edi, DWORD PTR _szTemp$1[ebp]
  0020e	2b d6		 sub	 edx, esi
  00210	4f		 dec	 edi
$LL24@RegenGoldD:
  00211	8a 47 01	 mov	 al, BYTE PTR [edi+1]
  00214	47		 inc	 edi
  00215	84 c0		 test	 al, al
  00217	75 f8		 jne	 SHORT $LL24@RegenGoldD
  00219	8b ca		 mov	 ecx, edx
  0021b	c1 e9 02	 shr	 ecx, 2
  0021e	f3 a5		 rep movsd
  00220	8b ca		 mov	 ecx, edx
  00222	83 e1 03	 and	 ecx, 3
  00225	f3 a4		 rep movsb

; 397  : 				strcat(szTemp, lMsg.Get(MSGGET(4, 134)));

  00227	68 86 04 00 00	 push	 1158			; 00000486H
  0022c	b9 00 00 00 00	 mov	 ecx, OFFSET ?lMsg@@3VMessage@@A ; lMsg
  00231	e8 00 00 00 00	 call	 ?Get@Message@@QAEPADH@Z	; Message::Get
  00236	8b d0		 mov	 edx, eax
  00238	8b f0		 mov	 esi, eax
  0023a	66 0f 1f 44 00
	00		 npad	 6
$LL25@RegenGoldD:
  00240	8a 02		 mov	 al, BYTE PTR [edx]
  00242	42		 inc	 edx
  00243	84 c0		 test	 al, al
  00245	75 f9		 jne	 SHORT $LL25@RegenGoldD
  00247	8d bd fc fe ff
	ff		 lea	 edi, DWORD PTR _szTemp$1[ebp]
  0024d	2b d6		 sub	 edx, esi
  0024f	4f		 dec	 edi
$LL26@RegenGoldD:
  00250	8a 47 01	 mov	 al, BYTE PTR [edi+1]
  00253	47		 inc	 edi
  00254	84 c0		 test	 al, al
  00256	75 f8		 jne	 SHORT $LL26@RegenGoldD
  00258	8b ca		 mov	 ecx, edx

; 398  : 
; 399  : 				TNotice::AllSendServerMsg(szTemp);

  0025a	8d 85 fc fe ff
	ff		 lea	 eax, DWORD PTR _szTemp$1[ebp]
  00260	c1 e9 02	 shr	 ecx, 2
  00263	f3 a5		 rep movsd
  00265	8b ca		 mov	 ecx, edx
  00267	83 e1 03	 and	 ecx, 3
  0026a	f3 a4		 rep movsb
  0026c	50		 push	 eax
  0026d	e8 00 00 00 00	 call	 ?AllSendServerMsg@TNotice@@SAXPAD@Z ; TNotice::AllSendServerMsg
  00272	8b b5 ec fe ff
	ff		 mov	 esi, DWORD PTR _MapNumber$1$[ebp]
  00278	83 c4 04	 add	 esp, 4
$LN10@RegenGoldD:

; 400  : 			}
; 401  : 
; 402  : 			this->m_BossGoldDerconMapNumber[count] = MapNumber;

  0027b	8b 95 e4 fe ff
	ff		 mov	 edx, DWORD PTR tv440[ebp]

; 403  : 			gObj[n].m_BossGoldDerconMapNumber = count;
; 404  : 			count++;
; 405  : 			SelMap = MapNumber;

  00281	8b fe		 mov	 edi, esi
  00283	8b 8d e8 fe ff
	ff		 mov	 ecx, DWORD PTR _count$1$[ebp]
  00289	89 32		 mov	 DWORD PTR [edx], esi
  0028b	83 c2 04	 add	 edx, 4
  0028e	a1 00 00 00 00	 mov	 eax, DWORD PTR ?gObj@@3PAUOBJECTSTRUCT@@A ; gObj
  00293	89 95 e4 fe ff
	ff		 mov	 DWORD PTR tv440[ebp], edx
  00299	88 8c 03 74 14
	00 00		 mov	 BYTE PTR [ebx+eax+5236], cl
  002a0	41		 inc	 ecx

; 406  : 
; 407  : 			gObjMonsterHitDamageInit(&gObj[n]);

  002a1	a1 00 00 00 00	 mov	 eax, DWORD PTR ?gObj@@3PAUOBJECTSTRUCT@@A ; gObj
  002a6	03 c3		 add	 eax, ebx
  002a8	89 8d e8 fe ff
	ff		 mov	 DWORD PTR _count$1$[ebp], ecx
  002ae	50		 push	 eax
  002af	e8 00 00 00 00	 call	 ?gObjMonsterHitDamageInit@@YAXPAUOBJECTSTRUCT@@@Z ; gObjMonsterHitDamageInit
  002b4	83 c4 04	 add	 esp, 4
$LN2@RegenGoldD:

; 356  : 
; 357  : 	for (n=0;n<OBJ_MAXMONSTER;n++)

  002b7	81 c3 40 27 00
	00		 add	 ebx, 10048		; 00002740H
  002bd	81 fb 00 dd 49
	06		 cmp	 ebx, 105504000		; 0649dd00H
  002c3	0f 8c 99 fd ff
	ff		 jl	 $LL4@RegenGoldD

; 408  : 		}
; 409  : 	}
; 410  : 
; 411  : 	this->CheckGoldDercon(MapNumber);

  002c9	8b 8d e0 fe ff
	ff		 mov	 ecx, DWORD PTR _this$GSCopy$1$[ebp]
  002cf	56		 push	 esi
  002d0	e8 00 00 00 00	 call	 ?CheckGoldDercon@CEledoradoEvent@@QAEXH@Z ; CEledoradoEvent::CheckGoldDercon

; 412  : }

  002d5	8b 4d fc	 mov	 ecx, DWORD PTR __$ArrayPad$[ebp]
  002d8	5f		 pop	 edi
  002d9	5e		 pop	 esi
  002da	33 cd		 xor	 ecx, ebp
  002dc	5b		 pop	 ebx
  002dd	e8 00 00 00 00	 call	 @__security_check_cookie@4
  002e2	8b e5		 mov	 esp, ebp
  002e4	5d		 pop	 ebp
  002e5	c3		 ret	 0
?RegenGoldDercon@CEledoradoEvent@@QAEXXZ ENDP		; CEledoradoEvent::RegenGoldDercon
_TEXT	ENDS
; Function compile flags: /Ogtp
; File c:\users\michel\desktop\source\gameserver\source\eledoradoevent.cpp
;	COMDAT ?RegenTitan@CEledoradoEvent@@QAEXXZ
_TEXT	SEGMENT
_this$1$ = -4						; size = 4
?RegenTitan@CEledoradoEvent@@QAEXXZ PROC		; CEledoradoEvent::RegenTitan, COMDAT
; _this$ = ecx

; 288  : {

  00000	55		 push	 ebp
  00001	8b ec		 mov	 ebp, esp
  00003	51		 push	 ecx
  00004	53		 push	 ebx
  00005	56		 push	 esi
  00006	8b f1		 mov	 esi, ecx
  00008	57		 push	 edi
  00009	89 75 fc	 mov	 DWORD PTR _this$1$[ebp], esi

; 289  : 	int n=0;
; 290  : 	int MapNumber;
; 291  : 
; 292  : 	for (n=0;n<OBJ_MAXMONSTER;n++)

  0000c	33 ff		 xor	 edi, edi
  0000e	66 90		 npad	 2
$LL4@RegenTitan:

; 293  : 	{
; 294  : 		if ( gObj[n].Class == 53 )	// Golden Titan

  00010	a1 00 00 00 00	 mov	 eax, DWORD PTR ?gObj@@3PAUOBJECTSTRUCT@@A ; gObj
  00015	0f b7 94 07 90
	00 00 00	 movzx	 edx, WORD PTR [edi+eax+144]
  0001d	83 fa 35	 cmp	 edx, 53			; 00000035H
  00020	0f 85 6c 01 00
	00		 jne	 $LN7@RegenTitan

; 295  : 		{
; 296  : 			gObj[n].Live = TRUE;

  00026	c6 44 07 51 01	 mov	 BYTE PTR [edi+eax+81], 1

; 297  : 			MapNumber = 2;
; 298  : 			gObj[n].MapNumber = MapNumber;

  0002b	a1 00 00 00 00	 mov	 eax, DWORD PTR ?gObj@@3PAUOBJECTSTRUCT@@A ; gObj
  00030	c6 84 07 23 01
	00 00 02	 mov	 BYTE PTR [edi+eax+291], 2
  00038	0f 1f 84 00 00
	00 00 00	 npad	 8
$LL5@RegenTitan:

; 299  : 
; 300  : 			while ( gMSetBase.GetBoxPosition(MapNumber, 50, 50, 200, 200, gObj[n].X, gObj[n].Y) == 0 )

  00040	8b 0d 00 00 00
	00		 mov	 ecx, DWORD PTR ?gObj@@3PAUOBJECTSTRUCT@@A ; gObj
  00046	8d 81 21 01 00
	00		 lea	 eax, DWORD PTR [ecx+289]
  0004c	03 c7		 add	 eax, edi
  0004e	50		 push	 eax
  0004f	8d 81 20 01 00
	00		 lea	 eax, DWORD PTR [ecx+288]
  00055	b9 00 00 00 00	 mov	 ecx, OFFSET ?gMSetBase@@3VCMonsterSetBase@@A ; gMSetBase
  0005a	03 c7		 add	 eax, edi
  0005c	50		 push	 eax
  0005d	68 c8 00 00 00	 push	 200			; 000000c8H
  00062	68 c8 00 00 00	 push	 200			; 000000c8H
  00067	6a 32		 push	 50			; 00000032H
  00069	6a 32		 push	 50			; 00000032H
  0006b	6a 02		 push	 2
  0006d	e8 00 00 00 00	 call	 ?GetBoxPosition@CMonsterSetBase@@QAEHHHHHHAAE0@Z ; CMonsterSetBase::GetBoxPosition
  00072	85 c0		 test	 eax, eax
  00074	74 ca		 je	 SHORT $LL5@RegenTitan

; 301  : 			{
; 302  : 
; 303  : 			}
; 304  : 
; 305  : 			this->m_BossTitanMapNumber = gObj[n].MapNumber;

  00076	a1 00 00 00 00	 mov	 eax, DWORD PTR ?gObj@@3PAUOBJECTSTRUCT@@A ; gObj
  0007b	0f b6 84 07 23
	01 00 00	 movzx	 eax, BYTE PTR [edi+eax+291]
  00083	89 46 44	 mov	 DWORD PTR [esi+68], eax

; 306  : 			this->m_BossTitanMapX = gObj[n].X;

  00086	a1 00 00 00 00	 mov	 eax, DWORD PTR ?gObj@@3PAUOBJECTSTRUCT@@A ; gObj
  0008b	0f b6 84 07 20
	01 00 00	 movzx	 eax, BYTE PTR [edi+eax+288]
  00093	89 46 48	 mov	 DWORD PTR [esi+72], eax

; 307  : 			this->m_BossTitanMapY = gObj[n].Y;

  00096	a1 00 00 00 00	 mov	 eax, DWORD PTR ?gObj@@3PAUOBJECTSTRUCT@@A ; gObj
  0009b	0f b6 84 07 21
	01 00 00	 movzx	 eax, BYTE PTR [edi+eax+289]
  000a3	89 46 4c	 mov	 DWORD PTR [esi+76], eax

; 308  : 
; 309  : 			gObj[n].Life = gObj[n].MaxLife;

  000a6	8b 0d 00 00 00
	00		 mov	 ecx, DWORD PTR ?gObj@@3PAUOBJECTSTRUCT@@A ; gObj
  000ac	8b 84 0f dc 00
	00 00		 mov	 eax, DWORD PTR [edi+ecx+220]
  000b3	89 84 0f d8 00
	00 00		 mov	 DWORD PTR [edi+ecx+216], eax

; 310  : 			gObj[n].TX = gObj[n].X;

  000ba	8b 0d 00 00 00
	00		 mov	 ecx, DWORD PTR ?gObj@@3PAUOBJECTSTRUCT@@A ; gObj
  000c0	0f b6 84 0f 20
	01 00 00	 movzx	 eax, BYTE PTR [edi+ecx+288]
  000c8	88 84 0f 52 01
	00 00		 mov	 BYTE PTR [edi+ecx+338], al

; 311  : 			gObj[n].TY = gObj[n].Y;

  000cf	8b 0d 00 00 00
	00		 mov	 ecx, DWORD PTR ?gObj@@3PAUOBJECTSTRUCT@@A ; gObj
  000d5	0f b6 84 0f 21
	01 00 00	 movzx	 eax, BYTE PTR [edi+ecx+289]
  000dd	88 84 0f 53 01
	00 00		 mov	 BYTE PTR [edi+ecx+339], al

; 312  : 			gObj[n].MTX = gObj[n].X;

  000e4	8b 0d 00 00 00
	00		 mov	 ecx, DWORD PTR ?gObj@@3PAUOBJECTSTRUCT@@A ; gObj
  000ea	0f b6 84 0f 20
	01 00 00	 movzx	 eax, BYTE PTR [edi+ecx+288]
  000f2	88 84 0f 54 01
	00 00		 mov	 BYTE PTR [edi+ecx+340], al

; 313  : 			gObj[n].MTY = gObj[n].Y;

  000f9	8b 0d 00 00 00
	00		 mov	 ecx, DWORD PTR ?gObj@@3PAUOBJECTSTRUCT@@A ; gObj
  000ff	0f b6 84 0f 21
	01 00 00	 movzx	 eax, BYTE PTR [edi+ecx+289]
  00107	88 84 0f 55 01
	00 00		 mov	 BYTE PTR [edi+ecx+341], al

; 314  : 			gObj[n].StartX = gObj[n].X;

  0010e	8b 0d 00 00 00
	00		 mov	 ecx, DWORD PTR ?gObj@@3PAUOBJECTSTRUCT@@A ; gObj
  00114	0f b6 84 0f 20
	01 00 00	 movzx	 eax, BYTE PTR [edi+ecx+288]
  0011c	88 84 0f 4e 01
	00 00		 mov	 BYTE PTR [edi+ecx+334], al

; 315  : 			gObj[n].StartY = gObj[n].Y;

  00123	8b 0d 00 00 00
	00		 mov	 ecx, DWORD PTR ?gObj@@3PAUOBJECTSTRUCT@@A ; gObj
  00129	0f b6 84 0f 21
	01 00 00	 movzx	 eax, BYTE PTR [edi+ecx+289]
  00131	88 84 0f 4f 01
	00 00		 mov	 BYTE PTR [edi+ecx+335], al

; 316  : 			gObj[n].m_State = 1;

  00138	a1 00 00 00 00	 mov	 eax, DWORD PTR ?gObj@@3PAUOBJECTSTRUCT@@A ; gObj
  0013d	c7 84 07 d0 01
	00 00 01 00 00
	00		 mov	 DWORD PTR [edi+eax+464], 1

; 317  : 			gObj[n].PathCount = 0;

  00148	a1 00 00 00 00	 mov	 eax, DWORD PTR ?gObj@@3PAUOBJECTSTRUCT@@A ; gObj
  0014d	c7 84 07 58 01
	00 00 00 00 00
	00		 mov	 DWORD PTR [edi+eax+344], 0

; 318  : 
; 319  : 			LogAddTD("Make GoldTaitan : %d, %d,%d",

  00158	8b 0d 00 00 00
	00		 mov	 ecx, DWORD PTR ?gObj@@3PAUOBJECTSTRUCT@@A ; gObj
  0015e	0f b6 84 0f 21
	01 00 00	 movzx	 eax, BYTE PTR [edi+ecx+289]
  00166	50		 push	 eax
  00167	0f b6 84 0f 20
	01 00 00	 movzx	 eax, BYTE PTR [edi+ecx+288]
  0016f	50		 push	 eax
  00170	6a 02		 push	 2
  00172	68 00 00 00 00	 push	 OFFSET ??_C@_0BM@BOFIHGJ@Make?5GoldTaitan?5?3?5?$CFd?0?5?$CFd?0?$CFd?$AA@
  00177	ff 15 00 00 00
	00		 call	 DWORD PTR ?LogAddTD@@3P6AXPADZZA ; LogAddTD

; 320  : 				MapNumber, gObj[n].X, gObj[n].Y);
; 321  : 
; 322  : 			gObjMonsterHitDamageInit(&gObj[n]);

  0017d	a1 00 00 00 00	 mov	 eax, DWORD PTR ?gObj@@3PAUOBJECTSTRUCT@@A ; gObj
  00182	03 c7		 add	 eax, edi
  00184	50		 push	 eax
  00185	e8 00 00 00 00	 call	 ?gObjMonsterHitDamageInit@@YAXPAUOBJECTSTRUCT@@@Z ; gObjMonsterHitDamageInit
  0018a	83 c4 14	 add	 esp, 20			; 00000014H
  0018d	e9 0b 01 00 00	 jmp	 $LN2@RegenTitan
$LN7@RegenTitan:

; 323  : 		}
; 324  : 		else if ( gObj[n].Class == 54 )

  00192	83 fa 36	 cmp	 edx, 54			; 00000036H
  00195	0f 85 02 01 00
	00		 jne	 $LN2@RegenTitan

; 325  : 		{
; 326  : 			gObj[n].Live = TRUE;

  0019b	c6 44 07 51 01	 mov	 BYTE PTR [edi+eax+81], 1

; 327  : 			MapNumber = this->m_BossTitanMapNumber;
; 328  : 			gObj[n].MapNumber = MapNumber;

  001a0	a1 00 00 00 00	 mov	 eax, DWORD PTR ?gObj@@3PAUOBJECTSTRUCT@@A ; gObj
  001a5	8b 5e 44	 mov	 ebx, DWORD PTR [esi+68]
  001a8	88 9c 07 23 01
	00 00		 mov	 BYTE PTR [edi+eax+291], bl

; 329  : 
; 330  : 			gMSetBase.GetBoxPosition(MapNumber, this->m_BossTitanMapX-4, this->m_BossTitanMapY-4,

  001af	8b 0d 00 00 00
	00		 mov	 ecx, DWORD PTR ?gObj@@3PAUOBJECTSTRUCT@@A ; gObj
  001b5	8b 56 4c	 mov	 edx, DWORD PTR [esi+76]
  001b8	8b 76 48	 mov	 esi, DWORD PTR [esi+72]
  001bb	8d 81 21 01 00
	00		 lea	 eax, DWORD PTR [ecx+289]
  001c1	03 c7		 add	 eax, edi
  001c3	50		 push	 eax
  001c4	8d 81 20 01 00
	00		 lea	 eax, DWORD PTR [ecx+288]
  001ca	b9 00 00 00 00	 mov	 ecx, OFFSET ?gMSetBase@@3VCMonsterSetBase@@A ; gMSetBase
  001cf	03 c7		 add	 eax, edi
  001d1	50		 push	 eax
  001d2	8d 42 04	 lea	 eax, DWORD PTR [edx+4]
  001d5	50		 push	 eax
  001d6	8d 46 04	 lea	 eax, DWORD PTR [esi+4]
  001d9	50		 push	 eax
  001da	8d 42 fc	 lea	 eax, DWORD PTR [edx-4]
  001dd	50		 push	 eax
  001de	8d 46 fc	 lea	 eax, DWORD PTR [esi-4]
  001e1	50		 push	 eax
  001e2	53		 push	 ebx
  001e3	e8 00 00 00 00	 call	 ?GetBoxPosition@CMonsterSetBase@@QAEHHHHHHAAE0@Z ; CMonsterSetBase::GetBoxPosition

; 331  : 				this->m_BossTitanMapX+4, this->m_BossTitanMapY+4, gObj[n].X, gObj[n].Y);
; 332  : 
; 333  : 						gObj[n].Life = gObj[n].MaxLife;

  001e8	8b 0d 00 00 00
	00		 mov	 ecx, DWORD PTR ?gObj@@3PAUOBJECTSTRUCT@@A ; gObj
  001ee	8b 75 fc	 mov	 esi, DWORD PTR _this$1$[ebp]
  001f1	8b 84 0f dc 00
	00 00		 mov	 eax, DWORD PTR [edi+ecx+220]
  001f8	89 84 0f d8 00
	00 00		 mov	 DWORD PTR [edi+ecx+216], eax

; 334  : 			gObj[n].TX = gObj[n].X;

  001ff	8b 0d 00 00 00
	00		 mov	 ecx, DWORD PTR ?gObj@@3PAUOBJECTSTRUCT@@A ; gObj
  00205	0f b6 84 0f 20
	01 00 00	 movzx	 eax, BYTE PTR [edi+ecx+288]
  0020d	88 84 0f 52 01
	00 00		 mov	 BYTE PTR [edi+ecx+338], al

; 335  : 			gObj[n].TY = gObj[n].Y;

  00214	8b 0d 00 00 00
	00		 mov	 ecx, DWORD PTR ?gObj@@3PAUOBJECTSTRUCT@@A ; gObj
  0021a	0f b6 84 0f 21
	01 00 00	 movzx	 eax, BYTE PTR [edi+ecx+289]
  00222	88 84 0f 53 01
	00 00		 mov	 BYTE PTR [edi+ecx+339], al

; 336  : 			gObj[n].MTX = gObj[n].X;

  00229	8b 0d 00 00 00
	00		 mov	 ecx, DWORD PTR ?gObj@@3PAUOBJECTSTRUCT@@A ; gObj
  0022f	0f b6 84 0f 20
	01 00 00	 movzx	 eax, BYTE PTR [edi+ecx+288]
  00237	88 84 0f 54 01
	00 00		 mov	 BYTE PTR [edi+ecx+340], al

; 337  : 			gObj[n].MTY = gObj[n].Y;

  0023e	8b 0d 00 00 00
	00		 mov	 ecx, DWORD PTR ?gObj@@3PAUOBJECTSTRUCT@@A ; gObj
  00244	0f b6 84 0f 21
	01 00 00	 movzx	 eax, BYTE PTR [edi+ecx+289]
  0024c	88 84 0f 55 01
	00 00		 mov	 BYTE PTR [edi+ecx+341], al

; 338  : 			gObj[n].StartX = gObj[n].X;

  00253	8b 0d 00 00 00
	00		 mov	 ecx, DWORD PTR ?gObj@@3PAUOBJECTSTRUCT@@A ; gObj
  00259	0f b6 84 0f 20
	01 00 00	 movzx	 eax, BYTE PTR [edi+ecx+288]
  00261	88 84 0f 4e 01
	00 00		 mov	 BYTE PTR [edi+ecx+334], al

; 339  : 			gObj[n].StartY = gObj[n].Y;

  00268	8b 0d 00 00 00
	00		 mov	 ecx, DWORD PTR ?gObj@@3PAUOBJECTSTRUCT@@A ; gObj
  0026e	0f b6 84 0f 21
	01 00 00	 movzx	 eax, BYTE PTR [edi+ecx+289]
  00276	88 84 0f 4f 01
	00 00		 mov	 BYTE PTR [edi+ecx+335], al

; 340  : 			gObj[n].m_State = 1;

  0027d	a1 00 00 00 00	 mov	 eax, DWORD PTR ?gObj@@3PAUOBJECTSTRUCT@@A ; gObj
  00282	c7 84 07 d0 01
	00 00 01 00 00
	00		 mov	 DWORD PTR [edi+eax+464], 1

; 341  : 			gObj[n].PathCount = 0;

  0028d	a1 00 00 00 00	 mov	 eax, DWORD PTR ?gObj@@3PAUOBJECTSTRUCT@@A ; gObj
  00292	c7 84 07 58 01
	00 00 00 00 00
	00		 mov	 DWORD PTR [edi+eax+344], 0
$LN2@RegenTitan:

; 289  : 	int n=0;
; 290  : 	int MapNumber;
; 291  : 
; 292  : 	for (n=0;n<OBJ_MAXMONSTER;n++)

  0029d	81 c7 40 27 00
	00		 add	 edi, 10048		; 00002740H
  002a3	81 ff 00 dd 49
	06		 cmp	 edi, 105504000		; 0649dd00H
  002a9	0f 8c 61 fd ff
	ff		 jl	 $LL4@RegenTitan
  002af	5f		 pop	 edi
  002b0	5e		 pop	 esi
  002b1	5b		 pop	 ebx

; 342  : 		}
; 343  : 	}
; 344  : }

  002b2	8b e5		 mov	 esp, ebp
  002b4	5d		 pop	 ebp
  002b5	c3		 ret	 0
?RegenTitan@CEledoradoEvent@@QAEXXZ ENDP		; CEledoradoEvent::RegenTitan
_TEXT	ENDS
; Function compile flags: /Ogtp
; File c:\users\michel\desktop\source\gameserver\source\eledoradoevent.cpp
;	COMDAT ?RegenGoldGoblen@CEledoradoEvent@@QAEXXZ
_TEXT	SEGMENT
_Map$ = -8						; size = 8
?RegenGoldGoblen@CEledoradoEvent@@QAEXXZ PROC		; CEledoradoEvent::RegenGoldGoblen, COMDAT
; _this$ = ecx

; 238  : {

  00000	55		 push	 ebp
  00001	8b ec		 mov	 ebp, esp
  00003	83 ec 08	 sub	 esp, 8
  00006	53		 push	 ebx
  00007	56		 push	 esi

; 239  : 	int n=0;
; 240  : 	int MapNumber;
; 241  : 	int Map[2]={MAP_INDEX_RORENCIA,MAP_INDEX_NORIA};

  00008	c7 45 f8 00 00
	00 00		 mov	 DWORD PTR _Map$[ebp], 0
  0000f	33 f6		 xor	 esi, esi
  00011	c7 45 fc 03 00
	00 00		 mov	 DWORD PTR _Map$[ebp+4], 3
  00018	0f 1f 84 00 00
	00 00 00	 npad	 8
$LL4@RegenGoldG:

; 245  : 	{
; 246  : 		if ( gObj[n].Class == 78 )

  00020	a1 00 00 00 00	 mov	 eax, DWORD PTR ?gObj@@3PAUOBJECTSTRUCT@@A ; gObj
  00025	66 83 bc 06 90
	00 00 00 4e	 cmp	 WORD PTR [esi+eax+144], 78 ; 0000004eH
  0002e	0f 85 47 01 00
	00		 jne	 $LN2@RegenGoldG

; 247  : 		{
; 248  : 			gObj[n].Live = TRUE;

  00034	c6 44 06 51 01	 mov	 BYTE PTR [esi+eax+81], 1

; 249  : 
; 250  : 			if( SelMap == -1 )
; 251  : 			{
; 252  : 				MapNumber = Map[rand()%2];

  00039	e8 00 00 00 00	 call	 _rand
  0003e	25 01 00 00 80	 and	 eax, -2147483647	; 80000001H
  00043	79 05		 jns	 SHORT $LN18@RegenGoldG
  00045	48		 dec	 eax
  00046	83 c8 fe	 or	 eax, -2			; fffffffeH
  00049	40		 inc	 eax
$LN18@RegenGoldG:
  0004a	8b 5c 85 f8	 mov	 ebx, DWORD PTR _Map$[ebp+eax*4]

; 253  : 			}
; 254  : 			else
; 255  : 			{
; 256  : 				MapNumber = SelMap;
; 257  : 			}
; 258  : 
; 259  : 			gObj[n].MapNumber = MapNumber;

  0004e	a1 00 00 00 00	 mov	 eax, DWORD PTR ?gObj@@3PAUOBJECTSTRUCT@@A ; gObj
  00053	88 9c 06 23 01
	00 00		 mov	 BYTE PTR [esi+eax+291], bl
  0005a	66 0f 1f 44 00
	00		 npad	 6
$LL5@RegenGoldG:

; 260  : 
; 261  : 
; 262  : 			while ( gMSetBase.GetBoxPosition(MapNumber, 50, 50, 200, 200, gObj[n].X, gObj[n].Y) == 0 )

  00060	8b 0d 00 00 00
	00		 mov	 ecx, DWORD PTR ?gObj@@3PAUOBJECTSTRUCT@@A ; gObj
  00066	8d 81 21 01 00
	00		 lea	 eax, DWORD PTR [ecx+289]
  0006c	03 c6		 add	 eax, esi
  0006e	50		 push	 eax
  0006f	8d 81 20 01 00
	00		 lea	 eax, DWORD PTR [ecx+288]
  00075	b9 00 00 00 00	 mov	 ecx, OFFSET ?gMSetBase@@3VCMonsterSetBase@@A ; gMSetBase
  0007a	03 c6		 add	 eax, esi
  0007c	50		 push	 eax
  0007d	68 c8 00 00 00	 push	 200			; 000000c8H
  00082	68 c8 00 00 00	 push	 200			; 000000c8H
  00087	6a 32		 push	 50			; 00000032H
  00089	6a 32		 push	 50			; 00000032H
  0008b	53		 push	 ebx
  0008c	e8 00 00 00 00	 call	 ?GetBoxPosition@CMonsterSetBase@@QAEHHHHHHAAE0@Z ; CMonsterSetBase::GetBoxPosition
  00091	85 c0		 test	 eax, eax
  00093	74 cb		 je	 SHORT $LL5@RegenGoldG

; 263  : 			{
; 264  : 
; 265  : 			}
; 266  : 
; 267  : 			gObj[n].Life = gObj[n].MaxLife;

  00095	8b 0d 00 00 00
	00		 mov	 ecx, DWORD PTR ?gObj@@3PAUOBJECTSTRUCT@@A ; gObj
  0009b	8b 84 0e dc 00
	00 00		 mov	 eax, DWORD PTR [esi+ecx+220]
  000a2	89 84 0e d8 00
	00 00		 mov	 DWORD PTR [esi+ecx+216], eax

; 268  : 			gObj[n].TX = gObj[n].X;

  000a9	8b 0d 00 00 00
	00		 mov	 ecx, DWORD PTR ?gObj@@3PAUOBJECTSTRUCT@@A ; gObj
  000af	0f b6 84 0e 20
	01 00 00	 movzx	 eax, BYTE PTR [esi+ecx+288]
  000b7	88 84 0e 52 01
	00 00		 mov	 BYTE PTR [esi+ecx+338], al

; 269  : 			gObj[n].TY = gObj[n].Y;

  000be	8b 0d 00 00 00
	00		 mov	 ecx, DWORD PTR ?gObj@@3PAUOBJECTSTRUCT@@A ; gObj
  000c4	0f b6 84 0e 21
	01 00 00	 movzx	 eax, BYTE PTR [esi+ecx+289]
  000cc	88 84 0e 53 01
	00 00		 mov	 BYTE PTR [esi+ecx+339], al

; 270  : 			gObj[n].MTX = gObj[n].X;

  000d3	8b 0d 00 00 00
	00		 mov	 ecx, DWORD PTR ?gObj@@3PAUOBJECTSTRUCT@@A ; gObj
  000d9	0f b6 84 0e 20
	01 00 00	 movzx	 eax, BYTE PTR [esi+ecx+288]
  000e1	88 84 0e 54 01
	00 00		 mov	 BYTE PTR [esi+ecx+340], al

; 271  : 			gObj[n].MTY = gObj[n].Y;

  000e8	8b 0d 00 00 00
	00		 mov	 ecx, DWORD PTR ?gObj@@3PAUOBJECTSTRUCT@@A ; gObj
  000ee	0f b6 84 0e 21
	01 00 00	 movzx	 eax, BYTE PTR [esi+ecx+289]
  000f6	88 84 0e 55 01
	00 00		 mov	 BYTE PTR [esi+ecx+341], al

; 272  : 			gObj[n].StartX = gObj[n].X;

  000fd	8b 0d 00 00 00
	00		 mov	 ecx, DWORD PTR ?gObj@@3PAUOBJECTSTRUCT@@A ; gObj
  00103	0f b6 84 0e 20
	01 00 00	 movzx	 eax, BYTE PTR [esi+ecx+288]
  0010b	88 84 0e 4e 01
	00 00		 mov	 BYTE PTR [esi+ecx+334], al

; 273  : 			gObj[n].StartY = gObj[n].Y;

  00112	8b 0d 00 00 00
	00		 mov	 ecx, DWORD PTR ?gObj@@3PAUOBJECTSTRUCT@@A ; gObj
  00118	0f b6 84 0e 21
	01 00 00	 movzx	 eax, BYTE PTR [esi+ecx+289]
  00120	88 84 0e 4f 01
	00 00		 mov	 BYTE PTR [esi+ecx+335], al

; 274  : 			gObj[n].m_State = 1;

  00127	a1 00 00 00 00	 mov	 eax, DWORD PTR ?gObj@@3PAUOBJECTSTRUCT@@A ; gObj
  0012c	c7 84 06 d0 01
	00 00 01 00 00
	00		 mov	 DWORD PTR [esi+eax+464], 1

; 275  : 			gObj[n].PathCount = 0;

  00137	a1 00 00 00 00	 mov	 eax, DWORD PTR ?gObj@@3PAUOBJECTSTRUCT@@A ; gObj
  0013c	c7 84 06 58 01
	00 00 00 00 00
	00		 mov	 DWORD PTR [esi+eax+344], 0

; 276  : 
; 277  : 			LogAddTD("Make GoldGoblen : %d, %d,%d",

  00147	8b 0d 00 00 00
	00		 mov	 ecx, DWORD PTR ?gObj@@3PAUOBJECTSTRUCT@@A ; gObj
  0014d	0f b6 84 0e 21
	01 00 00	 movzx	 eax, BYTE PTR [esi+ecx+289]
  00155	50		 push	 eax
  00156	0f b6 84 0e 20
	01 00 00	 movzx	 eax, BYTE PTR [esi+ecx+288]
  0015e	50		 push	 eax
  0015f	53		 push	 ebx
  00160	68 00 00 00 00	 push	 OFFSET ??_C@_0BM@CBOPIOL@Make?5GoldGoblen?5?3?5?$CFd?0?5?$CFd?0?$CFd?$AA@
  00165	ff 15 00 00 00
	00		 call	 DWORD PTR ?LogAddTD@@3P6AXPADZZA ; LogAddTD

; 278  : 				MapNumber, gObj[n].X, gObj[n].Y);
; 279  : 
; 280  : 			gObjMonsterHitDamageInit(&gObj[n]);

  0016b	a1 00 00 00 00	 mov	 eax, DWORD PTR ?gObj@@3PAUOBJECTSTRUCT@@A ; gObj
  00170	03 c6		 add	 eax, esi
  00172	50		 push	 eax
  00173	e8 00 00 00 00	 call	 ?gObjMonsterHitDamageInit@@YAXPAUOBJECTSTRUCT@@@Z ; gObjMonsterHitDamageInit
  00178	83 c4 14	 add	 esp, 20			; 00000014H
$LN2@RegenGoldG:

; 242  : 	int SelMap = -1;
; 243  : 
; 244  : 	for (n=0;n<OBJ_MAXMONSTER;n++)

  0017b	81 c6 40 27 00
	00		 add	 esi, 10048		; 00002740H
  00181	81 fe 00 dd 49
	06		 cmp	 esi, 105504000		; 0649dd00H
  00187	0f 8c 93 fe ff
	ff		 jl	 $LL4@RegenGoldG
  0018d	5e		 pop	 esi
  0018e	5b		 pop	 ebx

; 281  : 		}
; 282  : 	}
; 283  : }

  0018f	8b e5		 mov	 esp, ebp
  00191	5d		 pop	 ebp
  00192	c3		 ret	 0
?RegenGoldGoblen@CEledoradoEvent@@QAEXXZ ENDP		; CEledoradoEvent::RegenGoldGoblen
_TEXT	ENDS
; Function compile flags: /Ogtp
; File c:\users\michel\desktop\source\gameserver\source\eledoradoevent.cpp
; File c:\program files (x86)\windows kits\10\include\10.0.10240.0\ucrt\time.h
; File c:\users\michel\desktop\source\gameserver\source\eledoradoevent.cpp
;	COMDAT ?Run@CEledoradoEvent@@QAEXXZ
_TEXT	SEGMENT
_ltime$1 = -8						; size = 8
?Run@CEledoradoEvent@@QAEXXZ PROC			; CEledoradoEvent::Run, COMDAT
; _this$ = ecx

; 66   : {

  00000	55		 push	 ebp
  00001	8b ec		 mov	 ebp, esp
  00003	83 ec 08	 sub	 esp, 8
  00006	57		 push	 edi
  00007	8b f9		 mov	 edi, ecx

; 67   : 	if ( this->m_bMenualStart != FALSE )

  00009	83 7f 68 00	 cmp	 DWORD PTR [edi+104], 0
  0000d	0f 85 9f 02 00
	00		 jne	 $LN21@Run

; 68   : 	{
; 69   : 		return;
; 70   : 	}
; 71   : 
; 72   : 	if ( this->EventState == 0 )

  00013	83 7f 04 00	 cmp	 DWORD PTR [edi+4], 0
  00017	0f 84 95 02 00
	00		 je	 $LN21@Run

; 73   : 	{
; 74   : 		return;
; 75   : 	}
; 76   : 
; 77   : 	if ( this->GoldGoblenEventStartTime == 0 )

  0001d	83 7f 08 00	 cmp	 DWORD PTR [edi+8], 0
  00021	56		 push	 esi
  00022	0f 85 ce 00 00
	00		 jne	 $LN4@Run
; File c:\program files (x86)\windows kits\10\include\10.0.10240.0\ucrt\time.h

; 535  :             return _time64(_Time);

  00028	8d 45 f8	 lea	 eax, DWORD PTR _ltime$1[ebp]
  0002b	50		 push	 eax
  0002c	e8 00 00 00 00	 call	 __time64

; 511  :             return _localtime64(_Time);

  00031	8d 45 f8	 lea	 eax, DWORD PTR _ltime$1[ebp]
  00034	50		 push	 eax
  00035	e8 00 00 00 00	 call	 __localtime64
  0003a	83 c4 08	 add	 esp, 8
; File c:\users\michel\desktop\source\gameserver\source\eledoradoevent.cpp

; 85   : 		if ( today->tm_min >= 30 && today->tm_min  <= 35 )

  0003d	8b 40 04	 mov	 eax, DWORD PTR [eax+4]
  00040	83 f8 1e	 cmp	 eax, 30			; 0000001eH
  00043	0f 8c 68 02 00
	00		 jl	 $LN27@Run
  00049	83 f8 23	 cmp	 eax, 35			; 00000023H
  0004c	0f 8f 5f 02 00
	00		 jg	 $LN27@Run

; 86   : 		{
; 87   : 			int Time = GetTickCount();

  00052	ff 15 00 00 00
	00		 call	 DWORD PTR __imp__GetTickCount@0
  00058	8b f0		 mov	 esi, eax

; 88   : 
; 89   : 			this->GoldGoblenEventStartTime = Time;
; 90   : 			this->RegenGoldGoblen();

  0005a	8b cf		 mov	 ecx, edi
  0005c	89 77 08	 mov	 DWORD PTR [edi+8], esi
  0005f	e8 00 00 00 00	 call	 ?RegenGoldGoblen@CEledoradoEvent@@QAEXXZ ; CEledoradoEvent::RegenGoldGoblen

; 91   : 
; 92   : 			this->TitanEventStartTime = Time;
; 93   : 			this->RegenTitan();

  00064	8b cf		 mov	 ecx, edi
  00066	89 77 0c	 mov	 DWORD PTR [edi+12], esi
  00069	e8 00 00 00 00	 call	 ?RegenTitan@CEledoradoEvent@@QAEXXZ ; CEledoradoEvent::RegenTitan

; 94   : 
; 95   : 			this->GoldDerconEventStartTime = Time;
; 96   : 			this->RegenGoldDercon();

  0006e	8b cf		 mov	 ecx, edi
  00070	89 77 10	 mov	 DWORD PTR [edi+16], esi
  00073	e8 00 00 00 00	 call	 ?RegenGoldDercon@CEledoradoEvent@@QAEXXZ ; CEledoradoEvent::RegenGoldDercon

; 97   : 
; 98   : 			this->DevilLizardKingEventStartTime = Time;
; 99   : 			this->RegenDevilLizardKing();

  00078	8b cf		 mov	 ecx, edi
  0007a	89 77 14	 mov	 DWORD PTR [edi+20], esi
  0007d	e8 00 00 00 00	 call	 ?RegenDevilLizardKing@CEledoradoEvent@@QAEXXZ ; CEledoradoEvent::RegenDevilLizardKing

; 100  : 
; 101  : 			this->KanturEventStartTime = Time;
; 102  : 			this->RegenKantur();

  00082	8b cf		 mov	 ecx, edi
  00084	89 77 18	 mov	 DWORD PTR [edi+24], esi
  00087	e8 00 00 00 00	 call	 ?RegenKantur@CEledoradoEvent@@QAEXXZ ; CEledoradoEvent::RegenKantur

; 103  : 
; 104  : 			this->RabbitEventStartTime = Time;
; 105  : 			this->RegenRabbit();

  0008c	8b cf		 mov	 ecx, edi
  0008e	89 77 1c	 mov	 DWORD PTR [edi+28], esi
  00091	e8 00 00 00 00	 call	 ?RegenRabbit@CEledoradoEvent@@QAEXXZ ; CEledoradoEvent::RegenRabbit

; 106  : 
; 107  : 			this->DarkKnightEventStartTime = Time;
; 108  : 			this->RegenDarkKnight();

  00096	8b cf		 mov	 ecx, edi
  00098	89 77 20	 mov	 DWORD PTR [edi+32], esi
  0009b	e8 00 00 00 00	 call	 ?RegenDarkKnight@CEledoradoEvent@@QAEXXZ ; CEledoradoEvent::RegenDarkKnight

; 109  : 
; 110  : 			this->DevilEventStartTime = Time;
; 111  : 			this->RegenDevil();

  000a0	8b cf		 mov	 ecx, edi
  000a2	89 77 24	 mov	 DWORD PTR [edi+36], esi
  000a5	e8 00 00 00 00	 call	 ?RegenDevil@CEledoradoEvent@@QAEXXZ ; CEledoradoEvent::RegenDevil

; 112  : 
; 113  : 			this->MonsterEventStartTime = Time;
; 114  : 			this->RegenMonster();

  000aa	8b cf		 mov	 ecx, edi
  000ac	89 77 28	 mov	 DWORD PTR [edi+40], esi
  000af	e8 00 00 00 00	 call	 ?RegenMonster@CEledoradoEvent@@QAEXXZ ; CEledoradoEvent::RegenMonster

; 115  : 
; 116  : 			this->CrustEventStartTime = Time;
; 117  : 			this->RegenCrust();

  000b4	8b cf		 mov	 ecx, edi
  000b6	89 77 2c	 mov	 DWORD PTR [edi+44], esi
  000b9	e8 00 00 00 00	 call	 ?RegenCrust@CEledoradoEvent@@QAEXXZ ; CEledoradoEvent::RegenCrust

; 118  : 
; 119  : 			this->SatirosEventStartTime = Time;
; 120  : 			this->RegenSatiros();

  000be	8b cf		 mov	 ecx, edi
  000c0	89 77 30	 mov	 DWORD PTR [edi+48], esi
  000c3	e8 00 00 00 00	 call	 ?RegenSatiros@CEledoradoEvent@@QAEXXZ ; CEledoradoEvent::RegenSatiros

; 121  : 
; 122  : 			this->TwintailEventStartTime = Time;
; 123  : 			this->RegenTwintail();

  000c8	8b cf		 mov	 ecx, edi
  000ca	89 77 34	 mov	 DWORD PTR [edi+52], esi
  000cd	e8 00 00 00 00	 call	 ?RegenTwintail@CEledoradoEvent@@QAEXXZ ; CEledoradoEvent::RegenTwintail

; 124  : 
; 125  : 			this->IronKnightEventStartTime = Time;
; 126  : 			this->RegenIronKnight();

  000d2	8b cf		 mov	 ecx, edi
  000d4	89 77 38	 mov	 DWORD PTR [edi+56], esi
  000d7	e8 00 00 00 00	 call	 ?RegenIronKnight@CEledoradoEvent@@QAEXXZ ; CEledoradoEvent::RegenIronKnight

; 127  : 
; 128  : 			this->NeipinEventStartTime = Time;
; 129  : 			this->RegenNeipin();

  000dc	8b cf		 mov	 ecx, edi
  000de	89 77 3c	 mov	 DWORD PTR [edi+60], esi
  000e1	e8 00 00 00 00	 call	 ?RegenNeipin@CEledoradoEvent@@QAEXXZ ; CEledoradoEvent::RegenNeipin

; 224  : 		{
; 225  : 			this->GreatDragonEventStartTime = Time;
; 226  : 			this->RegenGreatDragon();

  000e6	8b cf		 mov	 ecx, edi
  000e8	89 77 40	 mov	 DWORD PTR [edi+64], esi
  000eb	e8 00 00 00 00	 call	 ?RegenGreatDragon@CEledoradoEvent@@QAEXXZ ; CEledoradoEvent::RegenGreatDragon
  000f0	5e		 pop	 esi
  000f1	5f		 pop	 edi

; 227  : 		}
; 228  : 	}
; 229  : }

  000f2	8b e5		 mov	 esp, ebp
  000f4	5d		 pop	 ebp
  000f5	c3		 ret	 0
$LN4@Run:

; 130  : 
; 131  : 			this->GreatDragonEventStartTime = Time;
; 132  : 			this->RegenGreatDragon();
; 133  : 		}
; 134  : 	}
; 135  : 	else
; 136  : 	{
; 137  : 		DWORD Time = GetTickCount();

  000f6	ff 15 00 00 00
	00		 call	 DWORD PTR __imp__GetTickCount@0

; 138  : 
; 139  : 		if ( ( Time - this->GoldGoblenEventStartTime ) > gEledoradoGoldGoblenRegenTime * 60000 )

  000fc	69 0d 00 00 00
	00 60 ea 00 00	 imul	 ecx, DWORD PTR ?gEledoradoGoldGoblenRegenTime@@3KA, 60000 ; gEledoradoGoldGoblenRegenTime
  00106	8b f0		 mov	 esi, eax
  00108	8b d6		 mov	 edx, esi
  0010a	2b 57 08	 sub	 edx, DWORD PTR [edi+8]
  0010d	3b d1		 cmp	 edx, ecx
  0010f	76 0a		 jbe	 SHORT $LN7@Run

; 140  : 		{
; 141  : 			this->GoldGoblenEventStartTime = Time;
; 142  : 			this->RegenGoldGoblen();

  00111	8b cf		 mov	 ecx, edi
  00113	89 77 08	 mov	 DWORD PTR [edi+8], esi
  00116	e8 00 00 00 00	 call	 ?RegenGoldGoblen@CEledoradoEvent@@QAEXXZ ; CEledoradoEvent::RegenGoldGoblen
$LN7@Run:

; 143  : 		}
; 144  : 
; 145  : 		if ( ( Time - this->TitanEventStartTime ) > gEledoradoTitanRegenTime * 60000 )

  0011b	69 05 00 00 00
	00 60 ea 00 00	 imul	 eax, DWORD PTR ?gEledoradoTitanRegenTime@@3KA, 60000 ; gEledoradoTitanRegenTime
  00125	8b ce		 mov	 ecx, esi
  00127	2b 4f 0c	 sub	 ecx, DWORD PTR [edi+12]
  0012a	3b c8		 cmp	 ecx, eax
  0012c	76 0a		 jbe	 SHORT $LN8@Run

; 146  : 		{
; 147  : 			this->TitanEventStartTime = Time;
; 148  : 			this->RegenTitan();

  0012e	8b cf		 mov	 ecx, edi
  00130	89 77 0c	 mov	 DWORD PTR [edi+12], esi
  00133	e8 00 00 00 00	 call	 ?RegenTitan@CEledoradoEvent@@QAEXXZ ; CEledoradoEvent::RegenTitan
$LN8@Run:

; 149  : 		}
; 150  : 
; 151  : 		if ( ( Time - this->GoldDerconEventStartTime ) > gEledoradoGoldDerconRegenTime * 60000 )

  00138	69 05 00 00 00
	00 60 ea 00 00	 imul	 eax, DWORD PTR ?gEledoradoGoldDerconRegenTime@@3KA, 60000 ; gEledoradoGoldDerconRegenTime
  00142	8b ce		 mov	 ecx, esi
  00144	2b 4f 10	 sub	 ecx, DWORD PTR [edi+16]
  00147	3b c8		 cmp	 ecx, eax
  00149	76 0a		 jbe	 SHORT $LN9@Run

; 152  : 		{
; 153  : 			this->GoldDerconEventStartTime = Time;
; 154  : 			this->RegenGoldDercon();

  0014b	8b cf		 mov	 ecx, edi
  0014d	89 77 10	 mov	 DWORD PTR [edi+16], esi
  00150	e8 00 00 00 00	 call	 ?RegenGoldDercon@CEledoradoEvent@@QAEXXZ ; CEledoradoEvent::RegenGoldDercon
$LN9@Run:

; 155  : 		}
; 156  : 
; 157  : 		if ( ( Time - this->DevilLizardKingEventStartTime ) > gEledoradoDevilLizardKingRegenTime * 60000 )

  00155	69 05 00 00 00
	00 60 ea 00 00	 imul	 eax, DWORD PTR ?gEledoradoDevilLizardKingRegenTime@@3KA, 60000 ; gEledoradoDevilLizardKingRegenTime
  0015f	8b ce		 mov	 ecx, esi
  00161	2b 4f 14	 sub	 ecx, DWORD PTR [edi+20]
  00164	3b c8		 cmp	 ecx, eax
  00166	76 0a		 jbe	 SHORT $LN10@Run

; 158  : 		{
; 159  : 			this->DevilLizardKingEventStartTime = Time;
; 160  : 			this->RegenDevilLizardKing();

  00168	8b cf		 mov	 ecx, edi
  0016a	89 77 14	 mov	 DWORD PTR [edi+20], esi
  0016d	e8 00 00 00 00	 call	 ?RegenDevilLizardKing@CEledoradoEvent@@QAEXXZ ; CEledoradoEvent::RegenDevilLizardKing
$LN10@Run:

; 161  : 		}
; 162  : 
; 163  : 		if ( ( Time - this->KanturEventStartTime ) > gEledoradoDevilTantarosRegenTime * 60000 )

  00172	69 05 00 00 00
	00 60 ea 00 00	 imul	 eax, DWORD PTR ?gEledoradoDevilTantarosRegenTime@@3KA, 60000 ; gEledoradoDevilTantarosRegenTime
  0017c	8b ce		 mov	 ecx, esi
  0017e	2b 4f 18	 sub	 ecx, DWORD PTR [edi+24]
  00181	3b c8		 cmp	 ecx, eax
  00183	76 0a		 jbe	 SHORT $LN11@Run

; 164  : 		{
; 165  : 			this->KanturEventStartTime = Time;
; 166  : 			this->RegenKantur();

  00185	8b cf		 mov	 ecx, edi
  00187	89 77 18	 mov	 DWORD PTR [edi+24], esi
  0018a	e8 00 00 00 00	 call	 ?RegenKantur@CEledoradoEvent@@QAEXXZ ; CEledoradoEvent::RegenKantur
$LN11@Run:

; 167  : 		}
; 168  : 
; 169  : 		if ( ( Time - this->RabbitEventStartTime ) > gEledoradoGoldenRabbitRegenTime * 60000 )

  0018f	69 05 00 00 00
	00 60 ea 00 00	 imul	 eax, DWORD PTR ?gEledoradoGoldenRabbitRegenTime@@3KA, 60000 ; gEledoradoGoldenRabbitRegenTime
  00199	8b ce		 mov	 ecx, esi
  0019b	2b 4f 1c	 sub	 ecx, DWORD PTR [edi+28]
  0019e	3b c8		 cmp	 ecx, eax
  001a0	76 0a		 jbe	 SHORT $LN12@Run

; 170  : 		{
; 171  : 			this->RabbitEventStartTime = Time;
; 172  : 			this->RegenRabbit();

  001a2	8b cf		 mov	 ecx, edi
  001a4	89 77 1c	 mov	 DWORD PTR [edi+28], esi
  001a7	e8 00 00 00 00	 call	 ?RegenRabbit@CEledoradoEvent@@QAEXXZ ; CEledoradoEvent::RegenRabbit
$LN12@Run:

; 173  : 		}
; 174  : 
; 175  : 		if ( ( Time - this->DarkKnightEventStartTime ) > gEledoradoGoldenDarkKnightRegenTime * 60000 )

  001ac	69 05 00 00 00
	00 60 ea 00 00	 imul	 eax, DWORD PTR ?gEledoradoGoldenDarkKnightRegenTime@@3KA, 60000 ; gEledoradoGoldenDarkKnightRegenTime
  001b6	8b ce		 mov	 ecx, esi
  001b8	2b 4f 20	 sub	 ecx, DWORD PTR [edi+32]
  001bb	3b c8		 cmp	 ecx, eax
  001bd	76 0a		 jbe	 SHORT $LN13@Run

; 176  : 		{
; 177  : 			this->DarkKnightEventStartTime = Time;
; 178  : 			this->RegenDarkKnight();

  001bf	8b cf		 mov	 ecx, edi
  001c1	89 77 20	 mov	 DWORD PTR [edi+32], esi
  001c4	e8 00 00 00 00	 call	 ?RegenDarkKnight@CEledoradoEvent@@QAEXXZ ; CEledoradoEvent::RegenDarkKnight
$LN13@Run:

; 179  : 		}
; 180  : 
; 181  : 		if ( ( Time - this->DevilEventStartTime ) > gEledoradoGoldenDevilRegenTime * 60000 )

  001c9	69 05 00 00 00
	00 60 ea 00 00	 imul	 eax, DWORD PTR ?gEledoradoGoldenDevilRegenTime@@3KA, 60000 ; gEledoradoGoldenDevilRegenTime
  001d3	8b ce		 mov	 ecx, esi
  001d5	2b 4f 24	 sub	 ecx, DWORD PTR [edi+36]
  001d8	3b c8		 cmp	 ecx, eax
  001da	76 0a		 jbe	 SHORT $LN14@Run

; 182  : 		{
; 183  : 			this->DevilEventStartTime = Time;
; 184  : 			this->RegenDevil();

  001dc	8b cf		 mov	 ecx, edi
  001de	89 77 24	 mov	 DWORD PTR [edi+36], esi
  001e1	e8 00 00 00 00	 call	 ?RegenDevil@CEledoradoEvent@@QAEXXZ ; CEledoradoEvent::RegenDevil
$LN14@Run:

; 185  : 		}
; 186  : 
; 187  : 		if ( ( Time - this->MonsterEventStartTime ) > gEledoradoGoldenMonsterRegenTime * 60000 )

  001e6	69 05 00 00 00
	00 60 ea 00 00	 imul	 eax, DWORD PTR ?gEledoradoGoldenMonsterRegenTime@@3KA, 60000 ; gEledoradoGoldenMonsterRegenTime
  001f0	8b ce		 mov	 ecx, esi
  001f2	2b 4f 28	 sub	 ecx, DWORD PTR [edi+40]
  001f5	3b c8		 cmp	 ecx, eax
  001f7	76 0a		 jbe	 SHORT $LN15@Run

; 188  : 		{
; 189  : 			this->MonsterEventStartTime = Time;
; 190  : 			this->RegenMonster();

  001f9	8b cf		 mov	 ecx, edi
  001fb	89 77 28	 mov	 DWORD PTR [edi+40], esi
  001fe	e8 00 00 00 00	 call	 ?RegenMonster@CEledoradoEvent@@QAEXXZ ; CEledoradoEvent::RegenMonster
$LN15@Run:

; 191  : 		}
; 192  : 
; 193  : 		if ( ( Time - this->CrustEventStartTime ) > gEledoradoGoldenCrustRegenTime * 60000 )

  00203	69 05 00 00 00
	00 60 ea 00 00	 imul	 eax, DWORD PTR ?gEledoradoGoldenCrustRegenTime@@3KA, 60000 ; gEledoradoGoldenCrustRegenTime
  0020d	8b ce		 mov	 ecx, esi
  0020f	2b 4f 2c	 sub	 ecx, DWORD PTR [edi+44]
  00212	3b c8		 cmp	 ecx, eax
  00214	76 0a		 jbe	 SHORT $LN16@Run

; 194  : 		{
; 195  : 			this->CrustEventStartTime = Time;
; 196  : 			this->RegenCrust();

  00216	8b cf		 mov	 ecx, edi
  00218	89 77 2c	 mov	 DWORD PTR [edi+44], esi
  0021b	e8 00 00 00 00	 call	 ?RegenCrust@CEledoradoEvent@@QAEXXZ ; CEledoradoEvent::RegenCrust
$LN16@Run:

; 197  : 		}
; 198  : 
; 199  : 		if ( ( Time - this->SatirosEventStartTime ) > gEledoradoGoldenSatirosRegenTime * 60000 )

  00220	69 05 00 00 00
	00 60 ea 00 00	 imul	 eax, DWORD PTR ?gEledoradoGoldenSatirosRegenTime@@3KA, 60000 ; gEledoradoGoldenSatirosRegenTime
  0022a	8b ce		 mov	 ecx, esi
  0022c	2b 4f 30	 sub	 ecx, DWORD PTR [edi+48]
  0022f	3b c8		 cmp	 ecx, eax
  00231	76 0a		 jbe	 SHORT $LN17@Run

; 200  : 		{
; 201  : 			this->SatirosEventStartTime = Time;
; 202  : 			this->RegenSatiros();

  00233	8b cf		 mov	 ecx, edi
  00235	89 77 30	 mov	 DWORD PTR [edi+48], esi
  00238	e8 00 00 00 00	 call	 ?RegenSatiros@CEledoradoEvent@@QAEXXZ ; CEledoradoEvent::RegenSatiros
$LN17@Run:

; 203  : 		}
; 204  : 
; 205  : 		if ( ( Time - this->TwintailEventStartTime ) > gEledoradoGoldenTwintailRegenTime * 60000 )

  0023d	69 05 00 00 00
	00 60 ea 00 00	 imul	 eax, DWORD PTR ?gEledoradoGoldenTwintailRegenTime@@3KA, 60000 ; gEledoradoGoldenTwintailRegenTime
  00247	8b ce		 mov	 ecx, esi
  00249	2b 4f 34	 sub	 ecx, DWORD PTR [edi+52]
  0024c	3b c8		 cmp	 ecx, eax
  0024e	76 0a		 jbe	 SHORT $LN18@Run

; 206  : 		{
; 207  : 			this->TwintailEventStartTime = Time;
; 208  : 			this->RegenTwintail();

  00250	8b cf		 mov	 ecx, edi
  00252	89 77 34	 mov	 DWORD PTR [edi+52], esi
  00255	e8 00 00 00 00	 call	 ?RegenTwintail@CEledoradoEvent@@QAEXXZ ; CEledoradoEvent::RegenTwintail
$LN18@Run:

; 209  : 		}
; 210  : 
; 211  : 		if ( ( Time - this->IronKnightEventStartTime ) > gEledoradoGoldenIronKnightRegenTime * 60000 )

  0025a	69 05 00 00 00
	00 60 ea 00 00	 imul	 eax, DWORD PTR ?gEledoradoGoldenIronKnightRegenTime@@3KA, 60000 ; gEledoradoGoldenIronKnightRegenTime
  00264	8b ce		 mov	 ecx, esi
  00266	2b 4f 38	 sub	 ecx, DWORD PTR [edi+56]
  00269	3b c8		 cmp	 ecx, eax
  0026b	76 0a		 jbe	 SHORT $LN19@Run

; 212  : 		{
; 213  : 			this->IronKnightEventStartTime = Time;
; 214  : 			this->RegenIronKnight();

  0026d	8b cf		 mov	 ecx, edi
  0026f	89 77 38	 mov	 DWORD PTR [edi+56], esi
  00272	e8 00 00 00 00	 call	 ?RegenIronKnight@CEledoradoEvent@@QAEXXZ ; CEledoradoEvent::RegenIronKnight
$LN19@Run:

; 215  : 		}
; 216  : 
; 217  : 		if ( ( Time - this->NeipinEventStartTime ) > gEledoradoGoldenNeipinRegenTime * 60000 )

  00277	69 05 00 00 00
	00 60 ea 00 00	 imul	 eax, DWORD PTR ?gEledoradoGoldenNeipinRegenTime@@3KA, 60000 ; gEledoradoGoldenNeipinRegenTime
  00281	8b ce		 mov	 ecx, esi
  00283	2b 4f 3c	 sub	 ecx, DWORD PTR [edi+60]
  00286	3b c8		 cmp	 ecx, eax
  00288	76 0a		 jbe	 SHORT $LN20@Run

; 218  : 		{
; 219  : 			this->NeipinEventStartTime = Time;
; 220  : 			this->RegenNeipin();

  0028a	8b cf		 mov	 ecx, edi
  0028c	89 77 3c	 mov	 DWORD PTR [edi+60], esi
  0028f	e8 00 00 00 00	 call	 ?RegenNeipin@CEledoradoEvent@@QAEXXZ ; CEledoradoEvent::RegenNeipin
$LN20@Run:

; 221  : 		}
; 222  : 
; 223  : 		if ( ( Time - this->GreatDragonEventStartTime ) > gEledoradoGoldenGreatDragonRegenTime * 60000 )

  00294	69 05 00 00 00
	00 60 ea 00 00	 imul	 eax, DWORD PTR ?gEledoradoGoldenGreatDragonRegenTime@@3KA, 60000 ; gEledoradoGoldenGreatDragonRegenTime
  0029e	8b ce		 mov	 ecx, esi
  002a0	2b 4f 40	 sub	 ecx, DWORD PTR [edi+64]
  002a3	3b c8		 cmp	 ecx, eax
  002a5	76 0a		 jbe	 SHORT $LN27@Run

; 224  : 		{
; 225  : 			this->GreatDragonEventStartTime = Time;
; 226  : 			this->RegenGreatDragon();

  002a7	8b cf		 mov	 ecx, edi
  002a9	89 77 40	 mov	 DWORD PTR [edi+64], esi
  002ac	e8 00 00 00 00	 call	 ?RegenGreatDragon@CEledoradoEvent@@QAEXXZ ; CEledoradoEvent::RegenGreatDragon
$LN27@Run:
  002b1	5e		 pop	 esi
$LN21@Run:
  002b2	5f		 pop	 edi

; 227  : 		}
; 228  : 	}
; 229  : }

  002b3	8b e5		 mov	 esp, ebp
  002b5	5d		 pop	 ebp
  002b6	c3		 ret	 0
?Run@CEledoradoEvent@@QAEXXZ ENDP			; CEledoradoEvent::Run
_TEXT	ENDS
; Function compile flags: /Ogtp
; File c:\users\michel\desktop\source\gameserver\source\eledoradoevent.cpp
;	COMDAT ?SetEventState@CEledoradoEvent@@QAEXH@Z
_TEXT	SEGMENT
_State$ = 8						; size = 4
?SetEventState@CEledoradoEvent@@QAEXH@Z PROC		; CEledoradoEvent::SetEventState, COMDAT
; _this$ = ecx

; 59   : {

  00000	55		 push	 ebp
  00001	8b ec		 mov	 ebp, esp

; 60   : 	this->EventState = State;

  00003	8b 45 08	 mov	 eax, DWORD PTR _State$[ebp]
  00006	89 41 04	 mov	 DWORD PTR [ecx+4], eax

; 61   : }

  00009	5d		 pop	 ebp
  0000a	c2 04 00	 ret	 4
?SetEventState@CEledoradoEvent@@QAEXH@Z ENDP		; CEledoradoEvent::SetEventState
_TEXT	ENDS
; Function compile flags: /Ogtp
; File c:\users\michel\desktop\source\gameserver\source\eledoradoevent.cpp
;	COMDAT ?Init@CEledoradoEvent@@QAEXXZ
_TEXT	SEGMENT
?Init@CEledoradoEvent@@QAEXXZ PROC			; CEledoradoEvent::Init, COMDAT
; _this$ = ecx

; 49   : #if (__ABYSS__ == 1)
; 50   : 	m_mGoldenMobs_HP.clear();
; 51   : #endif
; 52   : 	return;
; 53   : }

  00000	c3		 ret	 0
?Init@CEledoradoEvent@@QAEXXZ ENDP			; CEledoradoEvent::Init
_TEXT	ENDS
; Function compile flags: /Ogtp
; File c:\users\michel\desktop\source\gameserver\source\eledoradoevent.cpp
;	COMDAT ??1CEledoradoEvent@@UAE@XZ
_TEXT	SEGMENT
??1CEledoradoEvent@@UAE@XZ PROC				; CEledoradoEvent::~CEledoradoEvent, COMDAT
; _this$ = ecx

; 39   : {

  00000	c7 01 00 00 00
	00		 mov	 DWORD PTR [ecx], OFFSET ??_7CEledoradoEvent@@6B@

; 40   : 	return;
; 41   : }

  00006	c3		 ret	 0
??1CEledoradoEvent@@UAE@XZ ENDP				; CEledoradoEvent::~CEledoradoEvent
_TEXT	ENDS
; Function compile flags: /Ogtp
; File c:\users\michel\desktop\source\gameserver\source\eledoradoevent.cpp
;	COMDAT ??0CEledoradoEvent@@QAE@XZ
_TEXT	SEGMENT
??0CEledoradoEvent@@QAE@XZ PROC				; CEledoradoEvent::CEledoradoEvent, COMDAT
; _this$ = ecx

; 14   : {

  00000	c7 01 00 00 00
	00		 mov	 DWORD PTR [ecx], OFFSET ??_7CEledoradoEvent@@6B@

; 15   : 	this->GoldGoblenEventStartTime = 0;
; 16   : 	this->TitanEventStartTime = 0;
; 17   : 	this->GoldDerconEventStartTime = 0;
; 18   : 	this->DevilLizardKingEventStartTime = 0;
; 19   : 	this->KanturEventStartTime = 0;
; 20   : 	this->RabbitEventStartTime = 0;
; 21   : 	this->DarkKnightEventStartTime = 0;
; 22   : 	this->DevilEventStartTime = 0;
; 23   : 	this->MonsterEventStartTime = 0;
; 24   : 	this->CrustEventStartTime = 0;
; 25   : 	this->SatirosEventStartTime = 0;
; 26   : 	this->TwintailEventStartTime = 0;
; 27   : 	this->IronKnightEventStartTime = 0;
; 28   : 	this->NeipinEventStartTime = 0;
; 29   : 	this->GreatDragonEventStartTime = 0;
; 30   : 	this->m_BossGoldDerconMapNumber[0] = -1;
; 31   : 	this->m_BossGoldDerconMapNumber[1] = -1;
; 32   : 	this->m_BossGoldDerconMapNumber[2] = -1;
; 33   : }

  00006	8b c1		 mov	 eax, ecx
  00008	c7 41 08 00 00
	00 00		 mov	 DWORD PTR [ecx+8], 0
  0000f	c7 41 0c 00 00
	00 00		 mov	 DWORD PTR [ecx+12], 0
  00016	c7 41 10 00 00
	00 00		 mov	 DWORD PTR [ecx+16], 0
  0001d	c7 41 14 00 00
	00 00		 mov	 DWORD PTR [ecx+20], 0
  00024	c7 41 18 00 00
	00 00		 mov	 DWORD PTR [ecx+24], 0
  0002b	c7 41 1c 00 00
	00 00		 mov	 DWORD PTR [ecx+28], 0
  00032	c7 41 20 00 00
	00 00		 mov	 DWORD PTR [ecx+32], 0
  00039	c7 41 24 00 00
	00 00		 mov	 DWORD PTR [ecx+36], 0
  00040	c7 41 28 00 00
	00 00		 mov	 DWORD PTR [ecx+40], 0
  00047	c7 41 2c 00 00
	00 00		 mov	 DWORD PTR [ecx+44], 0
  0004e	c7 41 30 00 00
	00 00		 mov	 DWORD PTR [ecx+48], 0
  00055	c7 41 34 00 00
	00 00		 mov	 DWORD PTR [ecx+52], 0
  0005c	c7 41 38 00 00
	00 00		 mov	 DWORD PTR [ecx+56], 0
  00063	c7 41 3c 00 00
	00 00		 mov	 DWORD PTR [ecx+60], 0
  0006a	c7 41 40 00 00
	00 00		 mov	 DWORD PTR [ecx+64], 0
  00071	c7 41 6c ff ff
	ff ff		 mov	 DWORD PTR [ecx+108], -1
  00078	c7 41 70 ff ff
	ff ff		 mov	 DWORD PTR [ecx+112], -1
  0007f	c7 41 74 ff ff
	ff ff		 mov	 DWORD PTR [ecx+116], -1
  00086	c3		 ret	 0
??0CEledoradoEvent@@QAE@XZ ENDP				; CEledoradoEvent::CEledoradoEvent
_TEXT	ENDS
; Function compile flags: /Ogtp
; File c:\program files (x86)\windows kits\10\include\10.0.10240.0\ucrt\time.h
;	COMDAT _time
_TEXT	SEGMENT
__Time$ = 8						; size = 4
_time	PROC						; COMDAT

; 534  :         {

  00000	55		 push	 ebp
  00001	8b ec		 mov	 ebp, esp

; 536  :         }

  00003	5d		 pop	 ebp

; 535  :             return _time64(_Time);

  00004	e9 00 00 00 00	 jmp	 __time64
_time	ENDP
_TEXT	ENDS
; Function compile flags: /Ogtp
; File c:\program files (x86)\windows kits\10\include\10.0.10240.0\ucrt\time.h
;	COMDAT _localtime
_TEXT	SEGMENT
__Time$ = 8						; size = 4
_localtime PROC						; COMDAT

; 508  :         {

  00000	55		 push	 ebp
  00001	8b ec		 mov	 ebp, esp

; 512  :             #pragma warning(pop)
; 513  :         }

  00003	5d		 pop	 ebp

; 509  :             #pragma warning(push)
; 510  :             #pragma warning(disable: 4996)
; 511  :             return _localtime64(_Time);

  00004	e9 00 00 00 00	 jmp	 __localtime64
_localtime ENDP
_TEXT	ENDS
; Function compile flags: /Ogtp
; File c:\users\michel\desktop\source\gameserver\source\eledoradoevent.cpp
;	COMDAT ?__empty_global_delete@@YAXPAXI@Z
_TEXT	SEGMENT
___formal$ = 8						; size = 4
___formal$ = 12						; size = 4
?__empty_global_delete@@YAXPAXI@Z PROC			; __empty_global_delete, COMDAT

  00000	c3		 ret	 0
?__empty_global_delete@@YAXPAXI@Z ENDP			; __empty_global_delete
_TEXT	ENDS
; Function compile flags: /Ogtp
; File c:\users\michel\desktop\source\gameserver\source\eledoradoevent.cpp
;	COMDAT ?__empty_global_delete@@YAXPAX@Z
_TEXT	SEGMENT
___formal$ = 8						; size = 4
?__empty_global_delete@@YAXPAX@Z PROC			; __empty_global_delete, COMDAT

; 998  : }

  00000	c3		 ret	 0
?__empty_global_delete@@YAXPAX@Z ENDP			; __empty_global_delete
_TEXT	ENDS
END
