; Listing generated by Microsoft (R) Optimizing Compiler Version 19.00.23506.0 

	TITLE	C:\Users\Michel\Desktop\Source\GameServer\Source\ExtraClassBalance.cpp
	.686P
	.XMM
	include listing.inc
	.model	flat

INCLUDELIB LIBCMT
INCLUDELIB OLDNAMES

PUBLIC	?__empty_global_delete@@YAXPAX@Z		; __empty_global_delete
PUBLIC	?__empty_global_delete@@YAXPAXI@Z		; __empty_global_delete
PUBLIC	??1OBJECTSTRUCT@@QAE@XZ				; OBJECTSTRUCT::~OBJECTSTRUCT
PUBLIC	??_EOBJECTSTRUCT@@QAEPAXI@Z			; OBJECTSTRUCT::`vector deleting destructor'
PUBLIC	??0ExtraClassBalance@@QAE@XZ			; ExtraClassBalance::ExtraClassBalance
PUBLIC	??1ExtraClassBalance@@UAE@XZ			; ExtraClassBalance::~ExtraClassBalance
PUBLIC	?Init@ExtraClassBalance@@QAEXXZ			; ExtraClassBalance::Init
PUBLIC	?Load@ExtraClassBalance@@QAEXXZ			; ExtraClassBalance::Load
PUBLIC	?Read@ExtraClassBalance@@QAEXPAD@Z		; ExtraClassBalance::Read
PUBLIC	?Apply@ExtraClassBalance@@QAEXPAUOBJECTSTRUCT@@@Z ; ExtraClassBalance::Apply
PUBLIC	?allocate@?$allocator@UExtraClassAttack@@@std@@QAEPAUExtraClassAttack@@I@Z ; std::allocator<ExtraClassAttack>::allocate
PUBLIC	?deallocate@?$_Wrap_alloc@V?$allocator@UExtraClassAttack@@@std@@@std@@QAEXPAUExtraClassAttack@@I@Z ; std::_Wrap_alloc<std::allocator<ExtraClassAttack> >::deallocate
PUBLIC	?_Reallocate@?$vector@UExtraClassAttack@@V?$allocator@UExtraClassAttack@@@std@@@std@@IAEXI@Z ; std::vector<ExtraClassAttack,std::allocator<ExtraClassAttack> >::_Reallocate
PUBLIC	?_Reserve@?$vector@UExtraClassAttack@@V?$allocator@UExtraClassAttack@@@std@@@std@@IAEXI@Z ; std::vector<ExtraClassAttack,std::allocator<ExtraClassAttack> >::_Reserve
PUBLIC	??_GExtraClassBalance@@UAEPAXI@Z		; ExtraClassBalance::`scalar deleting destructor'
PUBLIC	??$_Uninit_move@PAUExtraClassAttack@@PAU1@V?$allocator@UExtraClassAttack@@@std@@U1@@std@@YAPAUExtraClassAttack@@PAU1@00AAU?$_Wrap_alloc@V?$allocator@UExtraClassAttack@@@std@@@0@0U_Nonscalar_ptr_iterator_tag@0@@Z ; std::_Uninit_move<ExtraClassAttack *,ExtraClassAttack *,std::allocator<ExtraClassAttack>,ExtraClassAttack>
PUBLIC	??_7ExtraClassBalance@@6B@			; ExtraClassBalance::`vftable'
PUBLIC	?g_ExtraClassBalance@@3VExtraClassBalance@@A	; g_ExtraClassBalance
PUBLIC	??_C@_0BN@BHCJIOMH@Custom?2ExtraClassBalance?4xml?$AA@ ; `string'
PUBLIC	??_C@_0CH@NIEIEANO@?$FLExtraClassBalance?$FN?5File?5?$CFs?5not?5@ ; `string'
PUBLIC	??_C@_0BC@JLMMOGJO@extraclassbalance?$AA@	; `string'
PUBLIC	??_C@_0P@FMMBDJPC@attackincrease?$AA@		; `string'
PUBLIC	??_C@_08EMJGLFCF@increase?$AA@			; `string'
PUBLIC	??_C@_05ENKANFLO@class?$AA@			; `string'
PUBLIC	??_C@_05CFMALAOA@reset?$AA@			; `string'
PUBLIC	??_C@_06GJOIPFFF@damage?$AA@			; `string'
PUBLIC	??_C@_06NHOHABNA@absorb?$AA@			; `string'
PUBLIC	??_C@_0BD@OLBABOEK@vector?$DMT?$DO?5too?5long?$AA@ ; `string'
PUBLIC	??_R4ExtraClassBalance@@6B@			; ExtraClassBalance::`RTTI Complete Object Locator'
PUBLIC	??_R0?AVExtraClassBalance@@@8			; ExtraClassBalance `RTTI Type Descriptor'
PUBLIC	??_R3ExtraClassBalance@@8			; ExtraClassBalance::`RTTI Class Hierarchy Descriptor'
PUBLIC	??_R2ExtraClassBalance@@8			; ExtraClassBalance::`RTTI Base Class Array'
PUBLIC	??_R1A@?0A@EA@ExtraClassBalance@@8		; ExtraClassBalance::`RTTI Base Class Descriptor at (0,-1,0,64)'
EXTRN	??_M@YGXPAXIIP6EX0@Z@Z:PROC			; `eh vector destructor iterator'
EXTRN	??2@YAPAXI@Z:PROC				; operator new
EXTRN	??3@YAXPAX@Z:PROC				; operator delete
EXTRN	??3@YAXPAXI@Z:PROC				; operator delete
EXTRN	??_V@YAXPAXI@Z:PROC				; operator delete[]
EXTRN	_atexit:PROC
EXTRN	__invalid_parameter_noinfo_noreturn:PROC
EXTRN	?_Xbad_alloc@std@@YAXXZ:PROC			; std::_Xbad_alloc
EXTRN	?_Xlength_error@std@@YAXPBD@Z:PROC		; std::_Xlength_error
EXTRN	??1CSkillDelay@@UAE@XZ:PROC			; CSkillDelay::~CSkillDelay
EXTRN	?MsgBox@@YAXPADZZ:PROC				; MsgBox
EXTRN	??1TMonsterAIAgro@@UAE@XZ:PROC			; TMonsterAIAgro::~TMonsterAIAgro
EXTRN	??_EExtraClassBalance@@UAEPAXI@Z:PROC		; ExtraClassBalance::`vector deleting destructor'
EXTRN	?as_int@xml_attribute@pugi@@QBEHH@Z:PROC	; pugi::xml_attribute::as_int
EXTRN	??Bxml_node@pugi@@QBEP6AXPAPAPAV01@@ZXZ:PROC	; pugi::xml_node::operator void (__cdecl*)(pugi::xml_node * * *)
EXTRN	?next_sibling@xml_node@pugi@@QBE?AV12@XZ:PROC	; pugi::xml_node::next_sibling
EXTRN	?child@xml_node@pugi@@QBE?AV12@PBD@Z:PROC	; pugi::xml_node::child
EXTRN	?attribute@xml_node@pugi@@QBE?AVxml_attribute@2@PBD@Z:PROC ; pugi::xml_node::attribute
EXTRN	??0xml_document@pugi@@QAE@XZ:PROC		; pugi::xml_document::xml_document
EXTRN	??1xml_document@pugi@@QAE@XZ:PROC		; pugi::xml_document::~xml_document
EXTRN	?load_file@xml_document@pugi@@QAE?AUxml_parse_result@2@PBDIW4xml_encoding@2@@Z:PROC ; pugi::xml_document::load_file
EXTRN	?GetNewPath@CDirPath@@QAEPADPAD@Z:PROC		; CDirPath::GetNewPath
EXTRN	@__security_check_cookie@4:PROC
EXTRN	__CxxThrowException@8:PROC
EXTRN	___CxxFrameHandler3:PROC
EXTRN	??_7type_info@@6B@:QWORD			; type_info::`vftable'
EXTRN	?gDirPath@@3VCDirPath@@A:BYTE			; gDirPath
EXTRN	___security_cookie:DWORD
_BSS	SEGMENT
?g_ExtraClassBalance@@3VExtraClassBalance@@A DB 010H DUP (?) ; g_ExtraClassBalance
_BSS	ENDS
CRT$XCU	SEGMENT
?g_ExtraClassBalance$initializer$@@3P6AXXZA DD FLAT:??__Eg_ExtraClassBalance@@YAXXZ ; g_ExtraClassBalance$initializer$
CRT$XCU	ENDS
;	COMDAT ??_R1A@?0A@EA@ExtraClassBalance@@8
rdata$r	SEGMENT
??_R1A@?0A@EA@ExtraClassBalance@@8 DD FLAT:??_R0?AVExtraClassBalance@@@8 ; ExtraClassBalance::`RTTI Base Class Descriptor at (0,-1,0,64)'
	DD	00H
	DD	00H
	DD	0ffffffffH
	DD	00H
	DD	040H
	DD	FLAT:??_R3ExtraClassBalance@@8
rdata$r	ENDS
;	COMDAT ??_R2ExtraClassBalance@@8
rdata$r	SEGMENT
??_R2ExtraClassBalance@@8 DD FLAT:??_R1A@?0A@EA@ExtraClassBalance@@8 ; ExtraClassBalance::`RTTI Base Class Array'
rdata$r	ENDS
;	COMDAT ??_R3ExtraClassBalance@@8
rdata$r	SEGMENT
??_R3ExtraClassBalance@@8 DD 00H			; ExtraClassBalance::`RTTI Class Hierarchy Descriptor'
	DD	00H
	DD	01H
	DD	FLAT:??_R2ExtraClassBalance@@8
rdata$r	ENDS
;	COMDAT ??_R0?AVExtraClassBalance@@@8
data$r	SEGMENT
??_R0?AVExtraClassBalance@@@8 DD FLAT:??_7type_info@@6B@ ; ExtraClassBalance `RTTI Type Descriptor'
	DD	00H
	DB	'.?AVExtraClassBalance@@', 00H
data$r	ENDS
;	COMDAT ??_R4ExtraClassBalance@@6B@
rdata$r	SEGMENT
??_R4ExtraClassBalance@@6B@ DD 00H			; ExtraClassBalance::`RTTI Complete Object Locator'
	DD	00H
	DD	00H
	DD	FLAT:??_R0?AVExtraClassBalance@@@8
	DD	FLAT:??_R3ExtraClassBalance@@8
rdata$r	ENDS
;	COMDAT ??_C@_0BD@OLBABOEK@vector?$DMT?$DO?5too?5long?$AA@
CONST	SEGMENT
??_C@_0BD@OLBABOEK@vector?$DMT?$DO?5too?5long?$AA@ DB 'vector<T> too long'
	DB	00H						; `string'
CONST	ENDS
;	COMDAT ??_C@_06NHOHABNA@absorb?$AA@
CONST	SEGMENT
??_C@_06NHOHABNA@absorb?$AA@ DB 'absorb', 00H		; `string'
CONST	ENDS
;	COMDAT ??_C@_06GJOIPFFF@damage?$AA@
CONST	SEGMENT
??_C@_06GJOIPFFF@damage?$AA@ DB 'damage', 00H		; `string'
CONST	ENDS
;	COMDAT ??_C@_05CFMALAOA@reset?$AA@
CONST	SEGMENT
??_C@_05CFMALAOA@reset?$AA@ DB 'reset', 00H		; `string'
CONST	ENDS
;	COMDAT ??_C@_05ENKANFLO@class?$AA@
CONST	SEGMENT
??_C@_05ENKANFLO@class?$AA@ DB 'class', 00H		; `string'
CONST	ENDS
;	COMDAT ??_C@_08EMJGLFCF@increase?$AA@
CONST	SEGMENT
??_C@_08EMJGLFCF@increase?$AA@ DB 'increase', 00H	; `string'
CONST	ENDS
;	COMDAT ??_C@_0P@FMMBDJPC@attackincrease?$AA@
CONST	SEGMENT
??_C@_0P@FMMBDJPC@attackincrease?$AA@ DB 'attackincrease', 00H ; `string'
CONST	ENDS
;	COMDAT ??_C@_0BC@JLMMOGJO@extraclassbalance?$AA@
CONST	SEGMENT
??_C@_0BC@JLMMOGJO@extraclassbalance?$AA@ DB 'extraclassbalance', 00H ; `string'
CONST	ENDS
;	COMDAT ??_C@_0CH@NIEIEANO@?$FLExtraClassBalance?$FN?5File?5?$CFs?5not?5@
CONST	SEGMENT
??_C@_0CH@NIEIEANO@?$FLExtraClassBalance?$FN?5File?5?$CFs?5not?5@ DB '[Ex'
	DB	'traClassBalance] File %s not found!', 00H	; `string'
CONST	ENDS
;	COMDAT ??_C@_0BN@BHCJIOMH@Custom?2ExtraClassBalance?4xml?$AA@
CONST	SEGMENT
??_C@_0BN@BHCJIOMH@Custom?2ExtraClassBalance?4xml?$AA@ DB 'Custom\ExtraCl'
	DB	'assBalance.xml', 00H			; `string'
CONST	ENDS
;	COMDAT ??_7ExtraClassBalance@@6B@
CONST	SEGMENT
??_7ExtraClassBalance@@6B@ DD FLAT:??_R4ExtraClassBalance@@6B@ ; ExtraClassBalance::`vftable'
	DD	FLAT:??_EExtraClassBalance@@UAEPAXI@Z
CONST	ENDS
;	COMDAT xdata$x
xdata$x	SEGMENT
__catchsym$?_Reallocate@?$vector@UExtraClassAttack@@V?$allocator@UExtraClassAttack@@@std@@@std@@IAEXI@Z$50 DD 040H
	DD	00H
	DD	00H
	DD	FLAT:__catch$?_Reallocate@?$vector@UExtraClassAttack@@V?$allocator@UExtraClassAttack@@@std@@@std@@IAEXI@Z$0
__unwindtable$?_Reallocate@?$vector@UExtraClassAttack@@V?$allocator@UExtraClassAttack@@@std@@@std@@IAEXI@Z DD 0ffffffffH
	DD	00H
	DD	0ffffffffH
	DD	00H
__tryblocktable$?_Reallocate@?$vector@UExtraClassAttack@@V?$allocator@UExtraClassAttack@@@std@@@std@@IAEXI@Z DD 00H
	DD	00H
	DD	01H
	DD	01H
	DD	FLAT:__catchsym$?_Reallocate@?$vector@UExtraClassAttack@@V?$allocator@UExtraClassAttack@@@std@@@std@@IAEXI@Z$50
__ehfuncinfo$?_Reallocate@?$vector@UExtraClassAttack@@V?$allocator@UExtraClassAttack@@@std@@@std@@IAEXI@Z DD 019930522H
	DD	02H
	DD	FLAT:__unwindtable$?_Reallocate@?$vector@UExtraClassAttack@@V?$allocator@UExtraClassAttack@@@std@@@std@@IAEXI@Z
	DD	01H
	DD	FLAT:__tryblocktable$?_Reallocate@?$vector@UExtraClassAttack@@V?$allocator@UExtraClassAttack@@@std@@@std@@IAEXI@Z
	DD	2 DUP(00H)
	DD	00H
	DD	01H
xdata$x	ENDS
;	COMDAT xdata$x
xdata$x	SEGMENT
__unwindtable$?Read@ExtraClassBalance@@QAEXPAD@Z DD 0ffffffffH
	DD	FLAT:__unwindfunclet$?Read@ExtraClassBalance@@QAEXPAD@Z$0
__ehfuncinfo$?Read@ExtraClassBalance@@QAEXPAD@Z DD 019930522H
	DD	01H
	DD	FLAT:__unwindtable$?Read@ExtraClassBalance@@QAEXPAD@Z
	DD	2 DUP(00H)
	DD	2 DUP(00H)
	DD	00H
	DD	01H
xdata$x	ENDS
;	COMDAT xdata$x
xdata$x	SEGMENT
__ehfuncinfo$??_EOBJECTSTRUCT@@QAEPAXI@Z DD 019930522H
	DD	00H
	DD	00H
	DD	2 DUP(00H)
	DD	2 DUP(00H)
	DD	00H
	DD	05H
xdata$x	ENDS
; Function compile flags: /Ogtp
; File c:\program files (x86)\microsoft visual studio 14.0\vc\include\xmemory0
;	COMDAT ??$construct@UExtraClassAttack@@U1@@?$allocator@UExtraClassAttack@@@std@@QAEXPAUExtraClassAttack@@$$QAU2@@Z
_TEXT	SEGMENT
__Ptr$ = 8						; size = 4
_<_Args_0>$ = 12					; size = 4
??$construct@UExtraClassAttack@@U1@@?$allocator@UExtraClassAttack@@@std@@QAEXPAUExtraClassAttack@@$$QAU2@@Z PROC ; std::allocator<ExtraClassAttack>::construct<ExtraClassAttack,ExtraClassAttack>, COMDAT
; _this$ = ecx

; 654  : 		{	// construct _Objty(_Types...) at _Ptr

  00000	55		 push	 ebp
  00001	8b ec		 mov	 ebp, esp

; 655  : 		::new ((void *)_Ptr) _Objty(_STD forward<_Types>(_Args)...);

  00003	8b 55 08	 mov	 edx, DWORD PTR __Ptr$[ebp]
  00006	85 d2		 test	 edx, edx
  00008	74 0d		 je	 SHORT $LN3@construct
  0000a	8b 4d 0c	 mov	 ecx, DWORD PTR _<_Args_0>$[ebp]
  0000d	8b 01		 mov	 eax, DWORD PTR [ecx]
  0000f	89 02		 mov	 DWORD PTR [edx], eax
  00011	8b 41 04	 mov	 eax, DWORD PTR [ecx+4]
  00014	89 42 04	 mov	 DWORD PTR [edx+4], eax
$LN3@construct:

; 656  : 		}

  00017	5d		 pop	 ebp
  00018	c2 08 00	 ret	 8
??$construct@UExtraClassAttack@@U1@@?$allocator@UExtraClassAttack@@@std@@QAEXPAUExtraClassAttack@@$$QAU2@@Z ENDP ; std::allocator<ExtraClassAttack>::construct<ExtraClassAttack,ExtraClassAttack>
_TEXT	ENDS
; Function compile flags: /Ogtp
; File c:\program files (x86)\microsoft visual studio 14.0\vc\include\xmemory0
;	COMDAT ??$construct@UExtraClassAttack@@U1@@?$allocator_traits@V?$allocator@UExtraClassAttack@@@std@@@std@@SAXAAV?$allocator@UExtraClassAttack@@@1@PAUExtraClassAttack@@$$QAU3@@Z
_TEXT	SEGMENT
__Al$ = 8						; size = 4
__Ptr$ = 12						; size = 4
_<_Args_0>$ = 16					; size = 4
??$construct@UExtraClassAttack@@U1@@?$allocator_traits@V?$allocator@UExtraClassAttack@@@std@@@std@@SAXAAV?$allocator@UExtraClassAttack@@@1@PAUExtraClassAttack@@$$QAU3@@Z PROC ; std::allocator_traits<std::allocator<ExtraClassAttack> >::construct<ExtraClassAttack,ExtraClassAttack>, COMDAT

; 772  : 		{	// construct _Objty(_Types...) at _Ptr

  00000	55		 push	 ebp
  00001	8b ec		 mov	 ebp, esp

; 655  : 		::new ((void *)_Ptr) _Objty(_STD forward<_Types>(_Args)...);

  00003	8b 55 0c	 mov	 edx, DWORD PTR __Ptr$[ebp]
  00006	85 d2		 test	 edx, edx
  00008	74 0d		 je	 SHORT $LN8@construct
  0000a	8b 4d 10	 mov	 ecx, DWORD PTR _<_Args_0>$[ebp]
  0000d	8b 01		 mov	 eax, DWORD PTR [ecx]
  0000f	89 02		 mov	 DWORD PTR [edx], eax
  00011	8b 41 04	 mov	 eax, DWORD PTR [ecx+4]
  00014	89 42 04	 mov	 DWORD PTR [edx+4], eax
$LN8@construct:

; 773  : 		_Al.construct(_Ptr, _STD forward<_Types>(_Args)...);
; 774  : 		}

  00017	5d		 pop	 ebp
  00018	c3		 ret	 0
??$construct@UExtraClassAttack@@U1@@?$allocator_traits@V?$allocator@UExtraClassAttack@@@std@@@std@@SAXAAV?$allocator@UExtraClassAttack@@@1@PAUExtraClassAttack@@$$QAU3@@Z ENDP ; std::allocator_traits<std::allocator<ExtraClassAttack> >::construct<ExtraClassAttack,ExtraClassAttack>
_TEXT	ENDS
; Function compile flags: /Ogtp
; File c:\program files (x86)\microsoft visual studio 14.0\vc\include\type_traits
;	COMDAT ??$forward@UExtraClassAttack@@@std@@YA$$QAUExtraClassAttack@@AAU1@@Z
_TEXT	SEGMENT
__Arg$ = 8						; size = 4
??$forward@UExtraClassAttack@@@std@@YA$$QAUExtraClassAttack@@AAU1@@Z PROC ; std::forward<ExtraClassAttack>, COMDAT

; 1233 : 	{	// forward an lvalue as either an lvalue or an rvalue

  00000	55		 push	 ebp
  00001	8b ec		 mov	 ebp, esp

; 1234 : 	return (static_cast<_Ty&&>(_Arg));

  00003	8b 45 08	 mov	 eax, DWORD PTR __Arg$[ebp]

; 1235 : 	}

  00006	5d		 pop	 ebp
  00007	c3		 ret	 0
??$forward@UExtraClassAttack@@@std@@YA$$QAUExtraClassAttack@@AAU1@@Z ENDP ; std::forward<ExtraClassAttack>
_TEXT	ENDS
; Function compile flags: /Ogtp
; File c:\program files (x86)\microsoft visual studio 14.0\vc\include\xmemory0
;	COMDAT ??$construct@UExtraClassAttack@@U1@@?$_Wrap_alloc@V?$allocator@UExtraClassAttack@@@std@@@std@@QAEXPAUExtraClassAttack@@$$QAU2@@Z
_TEXT	SEGMENT
__Ptr$ = 8						; size = 4
_<_Args_0>$ = 12					; size = 4
??$construct@UExtraClassAttack@@U1@@?$_Wrap_alloc@V?$allocator@UExtraClassAttack@@@std@@@std@@QAEXPAUExtraClassAttack@@$$QAU2@@Z PROC ; std::_Wrap_alloc<std::allocator<ExtraClassAttack> >::construct<ExtraClassAttack,ExtraClassAttack>, COMDAT
; _this$ = ecx

; 916  : 		{	// construct _Ty(_Types...) at _Ptr

  00000	55		 push	 ebp
  00001	8b ec		 mov	 ebp, esp

; 655  : 		::new ((void *)_Ptr) _Objty(_STD forward<_Types>(_Args)...);

  00003	8b 55 08	 mov	 edx, DWORD PTR __Ptr$[ebp]
  00006	85 d2		 test	 edx, edx
  00008	74 0d		 je	 SHORT $LN13@construct
  0000a	8b 4d 0c	 mov	 ecx, DWORD PTR _<_Args_0>$[ebp]
  0000d	8b 01		 mov	 eax, DWORD PTR [ecx]
  0000f	89 02		 mov	 DWORD PTR [edx], eax
  00011	8b 41 04	 mov	 eax, DWORD PTR [ecx+4]
  00014	89 42 04	 mov	 DWORD PTR [edx+4], eax
$LN13@construct:

; 917  : 		_Mytraits::construct(*this, _Ptr,
; 918  : 			_STD forward<_Types>(_Args)...);
; 919  : 		}

  00017	5d		 pop	 ebp
  00018	c2 08 00	 ret	 8
??$construct@UExtraClassAttack@@U1@@?$_Wrap_alloc@V?$allocator@UExtraClassAttack@@@std@@@std@@QAEXPAUExtraClassAttack@@$$QAU2@@Z ENDP ; std::_Wrap_alloc<std::allocator<ExtraClassAttack> >::construct<ExtraClassAttack,ExtraClassAttack>
_TEXT	ENDS
; Function compile flags: /Ogtp
; File c:\program files (x86)\microsoft visual studio 14.0\vc\include\xmemory0
;	COMDAT ??$destroy@UExtraClassAttack@@@?$allocator@UExtraClassAttack@@@std@@QAEXPAUExtraClassAttack@@@Z
_TEXT	SEGMENT
__Ptr$ = 8						; size = 4
??$destroy@UExtraClassAttack@@@?$allocator@UExtraClassAttack@@@std@@QAEXPAUExtraClassAttack@@@Z PROC ; std::allocator<ExtraClassAttack>::destroy<ExtraClassAttack>, COMDAT
; _this$ = ecx

; 662  : 		_Ptr->~_Uty();
; 663  : 		}

  00000	c2 04 00	 ret	 4
??$destroy@UExtraClassAttack@@@?$allocator@UExtraClassAttack@@@std@@QAEXPAUExtraClassAttack@@@Z ENDP ; std::allocator<ExtraClassAttack>::destroy<ExtraClassAttack>
_TEXT	ENDS
; Function compile flags: /Ogtp
; File c:\program files (x86)\microsoft visual studio 14.0\vc\include\xmemory
; File c:\program files (x86)\microsoft visual studio 14.0\vc\include\xmemory0
; File c:\program files (x86)\microsoft visual studio 14.0\vc\include\xmemory
;	COMDAT ??$_Uninit_move@PAUExtraClassAttack@@PAU1@V?$allocator@UExtraClassAttack@@@std@@U1@@std@@YAPAUExtraClassAttack@@PAU1@00AAU?$_Wrap_alloc@V?$allocator@UExtraClassAttack@@@std@@@0@0U_Nonscalar_ptr_iterator_tag@0@@Z
_TEXT	SEGMENT
__First$ = 8						; size = 4
__Last$ = 12						; size = 4
__Dest$ = 16						; size = 4
__Al$ = 20						; size = 4
___formal$ = 24						; size = 4
___formal$ = 28						; size = 1
??$_Uninit_move@PAUExtraClassAttack@@PAU1@V?$allocator@UExtraClassAttack@@@std@@U1@@std@@YAPAUExtraClassAttack@@PAU1@00AAU?$_Wrap_alloc@V?$allocator@UExtraClassAttack@@@std@@@0@0U_Nonscalar_ptr_iterator_tag@0@@Z PROC ; std::_Uninit_move<ExtraClassAttack *,ExtraClassAttack *,std::allocator<ExtraClassAttack>,ExtraClassAttack>, COMDAT

; 437  : 	{	// move [_First, _Last) to raw _Dest, using _Al, arbitrary type

  00000	55		 push	 ebp
  00001	8b ec		 mov	 ebp, esp

; 442  : 	for (; _First != _Last; ++_Dest, (void)++_First)

  00003	8b 4d 08	 mov	 ecx, DWORD PTR __First$[ebp]
  00006	57		 push	 edi
  00007	8b 7d 0c	 mov	 edi, DWORD PTR __Last$[ebp]
  0000a	3b cf		 cmp	 ecx, edi
  0000c	74 22		 je	 SHORT $LN37@Uninit_mov
  0000e	56		 push	 esi
  0000f	8b 75 10	 mov	 esi, DWORD PTR __Dest$[ebp]
$LL4@Uninit_mov:
; File c:\program files (x86)\microsoft visual studio 14.0\vc\include\xmemory0

; 655  : 		::new ((void *)_Ptr) _Objty(_STD forward<_Types>(_Args)...);

  00012	85 f6		 test	 esi, esi
  00014	74 0a		 je	 SHORT $LN2@Uninit_mov
  00016	8b 01		 mov	 eax, DWORD PTR [ecx]
  00018	89 06		 mov	 DWORD PTR [esi], eax
  0001a	8b 51 04	 mov	 edx, DWORD PTR [ecx+4]
  0001d	89 56 04	 mov	 DWORD PTR [esi+4], edx
$LN2@Uninit_mov:
; File c:\program files (x86)\microsoft visual studio 14.0\vc\include\xmemory

; 442  : 	for (; _First != _Last; ++_Dest, (void)++_First)

  00020	83 c1 08	 add	 ecx, 8
  00023	83 c6 08	 add	 esi, 8
  00026	3b cf		 cmp	 ecx, edi
  00028	75 e8		 jne	 SHORT $LL4@Uninit_mov

; 443  : 		_Al.construct(_Dest, (_Valty&&)*_First);
; 444  : 	_CATCH_ALL
; 445  : 	for (; _Next != _Dest; ++_Next)
; 446  : 		_Al.destroy(_Next);
; 447  : 	_RERAISE;
; 448  : 	_CATCH_END
; 449  : 	return (_Dest);

  0002a	8b c6		 mov	 eax, esi
  0002c	5e		 pop	 esi
  0002d	5f		 pop	 edi

; 450  : 	}

  0002e	5d		 pop	 ebp
  0002f	c3		 ret	 0
$LN37@Uninit_mov:

; 443  : 		_Al.construct(_Dest, (_Valty&&)*_First);
; 444  : 	_CATCH_ALL
; 445  : 	for (; _Next != _Dest; ++_Next)
; 446  : 		_Al.destroy(_Next);
; 447  : 	_RERAISE;
; 448  : 	_CATCH_END
; 449  : 	return (_Dest);

  00030	8b 45 10	 mov	 eax, DWORD PTR __Dest$[ebp]
  00033	5f		 pop	 edi

; 450  : 	}

  00034	5d		 pop	 ebp
  00035	c3		 ret	 0
??$_Uninit_move@PAUExtraClassAttack@@PAU1@V?$allocator@UExtraClassAttack@@@std@@U1@@std@@YAPAUExtraClassAttack@@PAU1@00AAU?$_Wrap_alloc@V?$allocator@UExtraClassAttack@@@std@@@0@0U_Nonscalar_ptr_iterator_tag@0@@Z ENDP ; std::_Uninit_move<ExtraClassAttack *,ExtraClassAttack *,std::allocator<ExtraClassAttack>,ExtraClassAttack>
_TEXT	ENDS
; Function compile flags: /Ogtp
; File c:\program files (x86)\microsoft visual studio 14.0\vc\include\xutility
;	COMDAT ??$_Val_type@PAUExtraClassAttack@@@std@@YAPAUExtraClassAttack@@PAU1@@Z
_TEXT	SEGMENT
___formal$ = 8						; size = 4
??$_Val_type@PAUExtraClassAttack@@@std@@YAPAUExtraClassAttack@@PAU1@@Z PROC ; std::_Val_type<ExtraClassAttack *>, COMDAT

; 875  : 	return (0);

  00000	33 c0		 xor	 eax, eax

; 876  : 	}

  00002	c3		 ret	 0
??$_Val_type@PAUExtraClassAttack@@@std@@YAPAUExtraClassAttack@@PAU1@@Z ENDP ; std::_Val_type<ExtraClassAttack *>
_TEXT	ENDS
; Function compile flags: /Ogtp
; File c:\program files (x86)\microsoft visual studio 14.0\vc\include\xmemory0
;	COMDAT ??$destroy@UExtraClassAttack@@@?$allocator_traits@V?$allocator@UExtraClassAttack@@@std@@@std@@SAXAAV?$allocator@UExtraClassAttack@@@1@PAUExtraClassAttack@@@Z
_TEXT	SEGMENT
__Al$ = 8						; size = 4
__Ptr$ = 12						; size = 4
??$destroy@UExtraClassAttack@@@?$allocator_traits@V?$allocator@UExtraClassAttack@@@std@@@std@@SAXAAV?$allocator@UExtraClassAttack@@@1@PAUExtraClassAttack@@@Z PROC ; std::allocator_traits<std::allocator<ExtraClassAttack> >::destroy<ExtraClassAttack>, COMDAT

; 780  : 		_Al.destroy(_Ptr);
; 781  : 		}

  00000	c3		 ret	 0
??$destroy@UExtraClassAttack@@@?$allocator_traits@V?$allocator@UExtraClassAttack@@@std@@@std@@SAXAAV?$allocator@UExtraClassAttack@@@1@PAUExtraClassAttack@@@Z ENDP ; std::allocator_traits<std::allocator<ExtraClassAttack> >::destroy<ExtraClassAttack>
_TEXT	ENDS
; Function compile flags: /Ogtp
; File c:\program files (x86)\microsoft visual studio 14.0\vc\include\xstddef
;	COMDAT ??$_Addressof@UExtraClassAttack@@@std@@YAPAUExtraClassAttack@@AAU1@U?$integral_constant@_N$0A@@0@@Z
_TEXT	SEGMENT
__Val$ = 8						; size = 4
___formal$ = 12						; size = 1
??$_Addressof@UExtraClassAttack@@@std@@YAPAUExtraClassAttack@@AAU1@U?$integral_constant@_N$0A@@0@@Z PROC ; std::_Addressof<ExtraClassAttack>, COMDAT

; 688  : 	{	// return address of object _Val

  00000	55		 push	 ebp
  00001	8b ec		 mov	 ebp, esp

; 689  : 	return (reinterpret_cast<_Ty *>(

  00003	8b 45 08	 mov	 eax, DWORD PTR __Val$[ebp]

; 690  : 		&const_cast<char&>(
; 691  : 		reinterpret_cast<const volatile char&>(_Val))));
; 692  : 	}

  00006	5d		 pop	 ebp
  00007	c3		 ret	 0
??$_Addressof@UExtraClassAttack@@@std@@YAPAUExtraClassAttack@@AAU1@U?$integral_constant@_N$0A@@0@@Z ENDP ; std::_Addressof<ExtraClassAttack>
_TEXT	ENDS
; Function compile flags: /Ogtp
; File c:\program files (x86)\microsoft visual studio 14.0\vc\include\xutility
;	COMDAT ??$_Rechecked@PAUExtraClassAttack@@PAU1@@std@@YAAAPAUExtraClassAttack@@AAPAU1@PAU1@@Z
_TEXT	SEGMENT
__Dest$ = 8						; size = 4
__Src$ = 12						; size = 4
??$_Rechecked@PAUExtraClassAttack@@PAU1@@std@@YAAAPAUExtraClassAttack@@AAPAU1@PAU1@@Z PROC ; std::_Rechecked<ExtraClassAttack *,ExtraClassAttack *>, COMDAT

; 446  : 	{	// reset checked from unchecked, generic

  00000	55		 push	 ebp
  00001	8b ec		 mov	 ebp, esp

; 447  : 	_Dest = _Src;

  00003	8b 45 08	 mov	 eax, DWORD PTR __Dest$[ebp]
  00006	8b 4d 0c	 mov	 ecx, DWORD PTR __Src$[ebp]
  00009	89 08		 mov	 DWORD PTR [eax], ecx

; 448  : 	return (_Dest);
; 449  : 	}

  0000b	5d		 pop	 ebp
  0000c	c3		 ret	 0
??$_Rechecked@PAUExtraClassAttack@@PAU1@@std@@YAAAPAUExtraClassAttack@@AAPAU1@PAU1@@Z ENDP ; std::_Rechecked<ExtraClassAttack *,ExtraClassAttack *>
_TEXT	ENDS
; Function compile flags: /Ogtp
; File c:\program files (x86)\microsoft visual studio 14.0\vc\include\xmemory
;	COMDAT ??$_Uninit_move@PAUExtraClassAttack@@PAU1@U?$_Wrap_alloc@V?$allocator@UExtraClassAttack@@@std@@@std@@@std@@YAPAUExtraClassAttack@@PAU1@00AAU?$_Wrap_alloc@V?$allocator@UExtraClassAttack@@@std@@@0@@Z
_TEXT	SEGMENT
__Cat$1 = -4						; size = 1
__First$ = 8						; size = 4
__Last$ = 12						; size = 4
__Dest$ = 16						; size = 4
__Al$ = 20						; size = 4
??$_Uninit_move@PAUExtraClassAttack@@PAU1@U?$_Wrap_alloc@V?$allocator@UExtraClassAttack@@@std@@@std@@@std@@YAPAUExtraClassAttack@@PAU1@00AAU?$_Wrap_alloc@V?$allocator@UExtraClassAttack@@@std@@@0@@Z PROC ; std::_Uninit_move<ExtraClassAttack *,ExtraClassAttack *,std::_Wrap_alloc<std::allocator<ExtraClassAttack> > >, COMDAT

; 480  : 	{	// move [_First, _Last) to raw _Dest, using _Al

  00000	55		 push	 ebp
  00001	8b ec		 mov	 ebp, esp
  00003	51		 push	 ecx

; 481  : 	return (_Uninit_move(_First, _Last, _Dest, _Al,

  00004	ff 75 fc	 push	 DWORD PTR __Cat$1[ebp]
  00007	6a 00		 push	 0
  00009	ff 75 14	 push	 DWORD PTR __Al$[ebp]
  0000c	ff 75 10	 push	 DWORD PTR __Dest$[ebp]
  0000f	ff 75 0c	 push	 DWORD PTR __Last$[ebp]
  00012	ff 75 08	 push	 DWORD PTR __First$[ebp]
  00015	e8 00 00 00 00	 call	 ??$_Uninit_move@PAUExtraClassAttack@@PAU1@V?$allocator@UExtraClassAttack@@@std@@U1@@std@@YAPAUExtraClassAttack@@PAU1@00AAU?$_Wrap_alloc@V?$allocator@UExtraClassAttack@@@std@@@0@0U_Nonscalar_ptr_iterator_tag@0@@Z ; std::_Uninit_move<ExtraClassAttack *,ExtraClassAttack *,std::allocator<ExtraClassAttack>,ExtraClassAttack>
  0001a	83 c4 18	 add	 esp, 24			; 00000018H

; 482  : 		_Val_type(_First), _Ptr_cat(_First, _Dest)));
; 483  : 	}

  0001d	8b e5		 mov	 esp, ebp
  0001f	5d		 pop	 ebp
  00020	c3		 ret	 0
??$_Uninit_move@PAUExtraClassAttack@@PAU1@U?$_Wrap_alloc@V?$allocator@UExtraClassAttack@@@std@@@std@@@std@@YAPAUExtraClassAttack@@PAU1@00AAU?$_Wrap_alloc@V?$allocator@UExtraClassAttack@@@std@@@0@@Z ENDP ; std::_Uninit_move<ExtraClassAttack *,ExtraClassAttack *,std::_Wrap_alloc<std::allocator<ExtraClassAttack> > >
_TEXT	ENDS
; Function compile flags: /Ogtp
; File c:\program files (x86)\microsoft visual studio 14.0\vc\include\xutility
;	COMDAT ??$_Unchecked@PAUExtraClassAttack@@@std@@YAPAUExtraClassAttack@@PAU1@@Z
_TEXT	SEGMENT
__Src$ = 8						; size = 4
??$_Unchecked@PAUExtraClassAttack@@@std@@YAPAUExtraClassAttack@@PAU1@@Z PROC ; std::_Unchecked<ExtraClassAttack *>, COMDAT

; 438  : 	{	// construct unchecked from checked, generic

  00000	55		 push	 ebp
  00001	8b ec		 mov	 ebp, esp

; 439  : 	return (_Src);

  00003	8b 45 08	 mov	 eax, DWORD PTR __Src$[ebp]

; 440  : 	}

  00006	5d		 pop	 ebp
  00007	c3		 ret	 0
??$_Unchecked@PAUExtraClassAttack@@@std@@YAPAUExtraClassAttack@@PAU1@@Z ENDP ; std::_Unchecked<ExtraClassAttack *>
_TEXT	ENDS
; Function compile flags: /Ogtp
; File c:\program files (x86)\microsoft visual studio 14.0\vc\include\xmemory0
;	COMDAT ??$destroy@UExtraClassAttack@@@?$_Wrap_alloc@V?$allocator@UExtraClassAttack@@@std@@@std@@QAEXPAUExtraClassAttack@@@Z
_TEXT	SEGMENT
__Ptr$ = 8						; size = 4
??$destroy@UExtraClassAttack@@@?$_Wrap_alloc@V?$allocator@UExtraClassAttack@@@std@@@std@@QAEXPAUExtraClassAttack@@@Z PROC ; std::_Wrap_alloc<std::allocator<ExtraClassAttack> >::destroy<ExtraClassAttack>, COMDAT
; _this$ = ecx

; 925  : 		_Mytraits::destroy(*this, _Ptr);
; 926  : 		}

  00000	c2 04 00	 ret	 4
??$destroy@UExtraClassAttack@@@?$_Wrap_alloc@V?$allocator@UExtraClassAttack@@@std@@@std@@QAEXPAUExtraClassAttack@@@Z ENDP ; std::_Wrap_alloc<std::allocator<ExtraClassAttack> >::destroy<ExtraClassAttack>
_TEXT	ENDS
; Function compile flags: /Ogtp
; File c:\program files (x86)\microsoft visual studio 14.0\vc\include\xstddef
;	COMDAT ??$addressof@UExtraClassAttack@@@std@@YAPAUExtraClassAttack@@AAU1@@Z
_TEXT	SEGMENT
__Val$ = 8						; size = 4
??$addressof@UExtraClassAttack@@@std@@YAPAUExtraClassAttack@@AAU1@@Z PROC ; std::addressof<ExtraClassAttack>, COMDAT

; 696  : 	{	// return address of _Val

  00000	55		 push	 ebp
  00001	8b ec		 mov	 ebp, esp

; 697  : 	return (_Addressof(_Val, is_function<_Ty>()));

  00003	8b 45 08	 mov	 eax, DWORD PTR __Val$[ebp]

; 698  : 	}

  00006	5d		 pop	 ebp
  00007	c3		 ret	 0
??$addressof@UExtraClassAttack@@@std@@YAPAUExtraClassAttack@@AAU1@@Z ENDP ; std::addressof<ExtraClassAttack>
_TEXT	ENDS
; Function compile flags: /Ogtp
; File c:\program files (x86)\microsoft visual studio 14.0\vc\include\xmemory0
;	COMDAT ??$construct@UExtraClassAttack@@ABU1@@?$allocator@UExtraClassAttack@@@std@@QAEXPAUExtraClassAttack@@ABU2@@Z
_TEXT	SEGMENT
__Ptr$ = 8						; size = 4
_<_Args_0>$ = 12					; size = 4
??$construct@UExtraClassAttack@@ABU1@@?$allocator@UExtraClassAttack@@@std@@QAEXPAUExtraClassAttack@@ABU2@@Z PROC ; std::allocator<ExtraClassAttack>::construct<ExtraClassAttack,ExtraClassAttack const &>, COMDAT
; _this$ = ecx

; 654  : 		{	// construct _Objty(_Types...) at _Ptr

  00000	55		 push	 ebp
  00001	8b ec		 mov	 ebp, esp

; 655  : 		::new ((void *)_Ptr) _Objty(_STD forward<_Types>(_Args)...);

  00003	8b 55 08	 mov	 edx, DWORD PTR __Ptr$[ebp]
  00006	85 d2		 test	 edx, edx
  00008	74 0d		 je	 SHORT $LN3@construct
  0000a	8b 4d 0c	 mov	 ecx, DWORD PTR _<_Args_0>$[ebp]
  0000d	8b 01		 mov	 eax, DWORD PTR [ecx]
  0000f	89 02		 mov	 DWORD PTR [edx], eax
  00011	8b 41 04	 mov	 eax, DWORD PTR [ecx+4]
  00014	89 42 04	 mov	 DWORD PTR [edx+4], eax
$LN3@construct:

; 656  : 		}

  00017	5d		 pop	 ebp
  00018	c2 08 00	 ret	 8
??$construct@UExtraClassAttack@@ABU1@@?$allocator@UExtraClassAttack@@@std@@QAEXPAUExtraClassAttack@@ABU2@@Z ENDP ; std::allocator<ExtraClassAttack>::construct<ExtraClassAttack,ExtraClassAttack const &>
_TEXT	ENDS
; Function compile flags: /Ogtp
; File c:\program files (x86)\microsoft visual studio 14.0\vc\include\xmemory0
;	COMDAT ??$construct@UExtraClassAttack@@AAU1@@?$allocator@UExtraClassAttack@@@std@@QAEXPAUExtraClassAttack@@AAU2@@Z
_TEXT	SEGMENT
__Ptr$ = 8						; size = 4
_<_Args_0>$ = 12					; size = 4
??$construct@UExtraClassAttack@@AAU1@@?$allocator@UExtraClassAttack@@@std@@QAEXPAUExtraClassAttack@@AAU2@@Z PROC ; std::allocator<ExtraClassAttack>::construct<ExtraClassAttack,ExtraClassAttack &>, COMDAT
; _this$ = ecx

; 654  : 		{	// construct _Objty(_Types...) at _Ptr

  00000	55		 push	 ebp
  00001	8b ec		 mov	 ebp, esp

; 655  : 		::new ((void *)_Ptr) _Objty(_STD forward<_Types>(_Args)...);

  00003	8b 55 08	 mov	 edx, DWORD PTR __Ptr$[ebp]
  00006	85 d2		 test	 edx, edx
  00008	74 0d		 je	 SHORT $LN3@construct
  0000a	8b 4d 0c	 mov	 ecx, DWORD PTR _<_Args_0>$[ebp]
  0000d	8b 01		 mov	 eax, DWORD PTR [ecx]
  0000f	89 02		 mov	 DWORD PTR [edx], eax
  00011	8b 41 04	 mov	 eax, DWORD PTR [ecx+4]
  00014	89 42 04	 mov	 DWORD PTR [edx+4], eax
$LN3@construct:

; 656  : 		}

  00017	5d		 pop	 ebp
  00018	c2 08 00	 ret	 8
??$construct@UExtraClassAttack@@AAU1@@?$allocator@UExtraClassAttack@@@std@@QAEXPAUExtraClassAttack@@AAU2@@Z ENDP ; std::allocator<ExtraClassAttack>::construct<ExtraClassAttack,ExtraClassAttack &>
_TEXT	ENDS
; Function compile flags: /Ogtp
; File c:\program files (x86)\microsoft visual studio 14.0\vc\include\type_traits
;	COMDAT ??$_Move@AAPAUExtraClassAttack@@@std@@YA$$QAPAUExtraClassAttack@@AAPAU1@@Z
_TEXT	SEGMENT
__Arg$ = 8						; size = 4
??$_Move@AAPAUExtraClassAttack@@@std@@YA$$QAPAUExtraClassAttack@@AAPAU1@@Z PROC ; std::_Move<ExtraClassAttack * &>, COMDAT

; 1257 : 	{	// forward _Arg as movable

  00000	55		 push	 ebp
  00001	8b ec		 mov	 ebp, esp

; 1258 : 	return (static_cast<typename remove_reference<_Ty>::type&&>(_Arg));

  00003	8b 45 08	 mov	 eax, DWORD PTR __Arg$[ebp]

; 1259 : 	}

  00006	5d		 pop	 ebp
  00007	c3		 ret	 0
??$_Move@AAPAUExtraClassAttack@@@std@@YA$$QAPAUExtraClassAttack@@AAPAU1@@Z ENDP ; std::_Move<ExtraClassAttack * &>
_TEXT	ENDS
; Function compile flags: /Ogtp
; File c:\program files (x86)\microsoft visual studio 14.0\vc\include\xmemory
;	COMDAT ??$_Uninitialized_move@PAUExtraClassAttack@@PAU1@U?$_Wrap_alloc@V?$allocator@UExtraClassAttack@@@std@@@std@@@std@@YAPAUExtraClassAttack@@PAU1@00AAU?$_Wrap_alloc@V?$allocator@UExtraClassAttack@@@std@@@0@@Z
_TEXT	SEGMENT
__First$ = 8						; size = 4
__Last$ = 12						; size = 4
__Cat$1 = 16						; size = 1
__Dest$ = 16						; size = 4
__Al$ = 20						; size = 4
??$_Uninitialized_move@PAUExtraClassAttack@@PAU1@U?$_Wrap_alloc@V?$allocator@UExtraClassAttack@@@std@@@std@@@std@@YAPAUExtraClassAttack@@PAU1@00AAU?$_Wrap_alloc@V?$allocator@UExtraClassAttack@@@std@@@0@@Z PROC ; std::_Uninitialized_move<ExtraClassAttack *,ExtraClassAttack *,std::_Wrap_alloc<std::allocator<ExtraClassAttack> > >, COMDAT

; 490  : 	{	// move [_First, _Last) to raw _Dest, using _Al

  00000	55		 push	 ebp
  00001	8b ec		 mov	 ebp, esp

; 481  : 	return (_Uninit_move(_First, _Last, _Dest, _Al,

  00003	ff 75 10	 push	 DWORD PTR __Cat$1[ebp]
  00006	6a 00		 push	 0
  00008	ff 75 14	 push	 DWORD PTR __Al$[ebp]
  0000b	ff 75 10	 push	 DWORD PTR __Dest$[ebp]
  0000e	ff 75 0c	 push	 DWORD PTR __Last$[ebp]
  00011	ff 75 08	 push	 DWORD PTR __First$[ebp]
  00014	e8 00 00 00 00	 call	 ??$_Uninit_move@PAUExtraClassAttack@@PAU1@V?$allocator@UExtraClassAttack@@@std@@U1@@std@@YAPAUExtraClassAttack@@PAU1@00AAU?$_Wrap_alloc@V?$allocator@UExtraClassAttack@@@std@@@0@0U_Nonscalar_ptr_iterator_tag@0@@Z ; std::_Uninit_move<ExtraClassAttack *,ExtraClassAttack *,std::allocator<ExtraClassAttack>,ExtraClassAttack>
  00019	83 c4 18	 add	 esp, 24			; 00000018H

; 491  : 	return (_Rechecked(_Dest,
; 492  : 		_Uninit_move(_Unchecked(_First), _Unchecked(_Last),
; 493  : 			_Unchecked(_Dest), _Al)));
; 494  : 	}

  0001c	5d		 pop	 ebp
  0001d	c3		 ret	 0
??$_Uninitialized_move@PAUExtraClassAttack@@PAU1@U?$_Wrap_alloc@V?$allocator@UExtraClassAttack@@@std@@@std@@@std@@YAPAUExtraClassAttack@@PAU1@00AAU?$_Wrap_alloc@V?$allocator@UExtraClassAttack@@@std@@@0@@Z ENDP ; std::_Uninitialized_move<ExtraClassAttack *,ExtraClassAttack *,std::_Wrap_alloc<std::allocator<ExtraClassAttack> > >
_TEXT	ENDS
; Function compile flags: /Ogtp
; File c:\program files (x86)\microsoft visual studio 14.0\vc\include\xmemory0
;	COMDAT ??$_Destroy_range@U?$_Wrap_alloc@V?$allocator@UExtraClassAttack@@@std@@@std@@@std@@YAXPAUExtraClassAttack@@0AAU?$_Wrap_alloc@V?$allocator@UExtraClassAttack@@@std@@@0@U_Nonscalar_ptr_iterator_tag@0@@Z
_TEXT	SEGMENT
__First$ = 8						; size = 4
__Last$ = 12						; size = 4
__Al$ = 16						; size = 4
___formal$ = 20						; size = 1
??$_Destroy_range@U?$_Wrap_alloc@V?$allocator@UExtraClassAttack@@@std@@@std@@@std@@YAXPAUExtraClassAttack@@0AAU?$_Wrap_alloc@V?$allocator@UExtraClassAttack@@@std@@@0@U_Nonscalar_ptr_iterator_tag@0@@Z PROC ; std::_Destroy_range<std::_Wrap_alloc<std::allocator<ExtraClassAttack> > >, COMDAT

; 171  : 	for (; _First != _Last; ++_First)
; 172  : 		_Al.destroy(_STD addressof(*_First));
; 173  : 	}

  00000	c3		 ret	 0
??$_Destroy_range@U?$_Wrap_alloc@V?$allocator@UExtraClassAttack@@@std@@@std@@@std@@YAXPAUExtraClassAttack@@0AAU?$_Wrap_alloc@V?$allocator@UExtraClassAttack@@@std@@@0@U_Nonscalar_ptr_iterator_tag@0@@Z ENDP ; std::_Destroy_range<std::_Wrap_alloc<std::allocator<ExtraClassAttack> > >
_TEXT	ENDS
; Function compile flags: /Ogtp
; File c:\program files (x86)\microsoft visual studio 14.0\vc\include\xutility
;	COMDAT ??$_Ptr_cat@UExtraClassAttack@@U1@@std@@YA?AU_Nonscalar_ptr_iterator_tag@0@PAUExtraClassAttack@@0@Z
_TEXT	SEGMENT
__Cat$ = -1						; size = 1
___formal$ = 8						; size = 4
___formal$ = 12						; size = 4
??$_Ptr_cat@UExtraClassAttack@@U1@@std@@YA?AU_Nonscalar_ptr_iterator_tag@0@PAUExtraClassAttack@@0@Z PROC ; std::_Ptr_cat<ExtraClassAttack,ExtraClassAttack>, COMDAT

; 640  : 	{	// return pointer category from pointers

  00000	55		 push	 ebp
  00001	8b ec		 mov	 ebp, esp
  00003	51		 push	 ecx

; 641  : 	typename _Ptr_cat_helper<_Elem1, _Elem2>::type _Cat;
; 642  : 	return (_Cat);

  00004	8a 45 ff	 mov	 al, BYTE PTR __Cat$[ebp]

; 643  : 	}

  00007	8b e5		 mov	 esp, ebp
  00009	5d		 pop	 ebp
  0000a	c3		 ret	 0
??$_Ptr_cat@UExtraClassAttack@@U1@@std@@YA?AU_Nonscalar_ptr_iterator_tag@0@PAUExtraClassAttack@@0@Z ENDP ; std::_Ptr_cat<ExtraClassAttack,ExtraClassAttack>
_TEXT	ENDS
; Function compile flags: /Ogtp
; File c:\program files (x86)\microsoft visual studio 14.0\vc\include\type_traits
;	COMDAT ??$forward@ABV?$allocator@UExtraClassAttack@@@std@@@std@@YAABV?$allocator@UExtraClassAttack@@@0@ABV10@@Z
_TEXT	SEGMENT
__Arg$ = 8						; size = 4
??$forward@ABV?$allocator@UExtraClassAttack@@@std@@@std@@YAABV?$allocator@UExtraClassAttack@@@0@ABV10@@Z PROC ; std::forward<std::allocator<ExtraClassAttack> const &>, COMDAT

; 1233 : 	{	// forward an lvalue as either an lvalue or an rvalue

  00000	55		 push	 ebp
  00001	8b ec		 mov	 ebp, esp

; 1234 : 	return (static_cast<_Ty&&>(_Arg));

  00003	8b 45 08	 mov	 eax, DWORD PTR __Arg$[ebp]

; 1235 : 	}

  00006	5d		 pop	 ebp
  00007	c3		 ret	 0
??$forward@ABV?$allocator@UExtraClassAttack@@@std@@@std@@YAABV?$allocator@UExtraClassAttack@@@0@ABV10@@Z ENDP ; std::forward<std::allocator<ExtraClassAttack> const &>
_TEXT	ENDS
; Function compile flags: /Ogtp
; File c:\program files (x86)\microsoft visual studio 14.0\vc\include\xmemory0
;	COMDAT ??$_Pocs@U?$_Wrap_alloc@V?$allocator@UExtraClassAttack@@@std@@@std@@@std@@YAXAAU?$_Wrap_alloc@V?$allocator@UExtraClassAttack@@@std@@@0@0U?$integral_constant@_N$0A@@0@@Z
_TEXT	SEGMENT
___formal$ = 8						; size = 4
___formal$ = 12						; size = 4
___formal$ = 16						; size = 1
??$_Pocs@U?$_Wrap_alloc@V?$allocator@UExtraClassAttack@@@std@@@std@@@std@@YAXAAU?$_Wrap_alloc@V?$allocator@UExtraClassAttack@@@std@@@0@0U?$integral_constant@_N$0A@@0@@Z PROC ; std::_Pocs<std::_Wrap_alloc<std::allocator<ExtraClassAttack> > >, COMDAT

; 999  : 	}

  00000	c3		 ret	 0
??$_Pocs@U?$_Wrap_alloc@V?$allocator@UExtraClassAttack@@@std@@@std@@@std@@YAXAAU?$_Wrap_alloc@V?$allocator@UExtraClassAttack@@@std@@@0@0U?$integral_constant@_N$0A@@0@@Z ENDP ; std::_Pocs<std::_Wrap_alloc<std::allocator<ExtraClassAttack> > >
_TEXT	ENDS
; Function compile flags: /Ogtp
; File c:\program files (x86)\microsoft visual studio 14.0\vc\include\xmemory0
;	COMDAT ??$construct@UExtraClassAttack@@ABU1@@?$allocator_traits@V?$allocator@UExtraClassAttack@@@std@@@std@@SAXAAV?$allocator@UExtraClassAttack@@@1@PAUExtraClassAttack@@ABU3@@Z
_TEXT	SEGMENT
__Al$ = 8						; size = 4
__Ptr$ = 12						; size = 4
_<_Args_0>$ = 16					; size = 4
??$construct@UExtraClassAttack@@ABU1@@?$allocator_traits@V?$allocator@UExtraClassAttack@@@std@@@std@@SAXAAV?$allocator@UExtraClassAttack@@@1@PAUExtraClassAttack@@ABU3@@Z PROC ; std::allocator_traits<std::allocator<ExtraClassAttack> >::construct<ExtraClassAttack,ExtraClassAttack const &>, COMDAT

; 772  : 		{	// construct _Objty(_Types...) at _Ptr

  00000	55		 push	 ebp
  00001	8b ec		 mov	 ebp, esp

; 655  : 		::new ((void *)_Ptr) _Objty(_STD forward<_Types>(_Args)...);

  00003	8b 55 0c	 mov	 edx, DWORD PTR __Ptr$[ebp]
  00006	85 d2		 test	 edx, edx
  00008	74 0d		 je	 SHORT $LN8@construct
  0000a	8b 4d 10	 mov	 ecx, DWORD PTR _<_Args_0>$[ebp]
  0000d	8b 01		 mov	 eax, DWORD PTR [ecx]
  0000f	89 02		 mov	 DWORD PTR [edx], eax
  00011	8b 41 04	 mov	 eax, DWORD PTR [ecx+4]
  00014	89 42 04	 mov	 DWORD PTR [edx+4], eax
$LN8@construct:

; 773  : 		_Al.construct(_Ptr, _STD forward<_Types>(_Args)...);
; 774  : 		}

  00017	5d		 pop	 ebp
  00018	c3		 ret	 0
??$construct@UExtraClassAttack@@ABU1@@?$allocator_traits@V?$allocator@UExtraClassAttack@@@std@@@std@@SAXAAV?$allocator@UExtraClassAttack@@@1@PAUExtraClassAttack@@ABU3@@Z ENDP ; std::allocator_traits<std::allocator<ExtraClassAttack> >::construct<ExtraClassAttack,ExtraClassAttack const &>
_TEXT	ENDS
; Function compile flags: /Ogtp
; File c:\program files (x86)\microsoft visual studio 14.0\vc\include\type_traits
;	COMDAT ??$forward@ABUExtraClassAttack@@@std@@YAABUExtraClassAttack@@ABU1@@Z
_TEXT	SEGMENT
__Arg$ = 8						; size = 4
??$forward@ABUExtraClassAttack@@@std@@YAABUExtraClassAttack@@ABU1@@Z PROC ; std::forward<ExtraClassAttack const &>, COMDAT

; 1233 : 	{	// forward an lvalue as either an lvalue or an rvalue

  00000	55		 push	 ebp
  00001	8b ec		 mov	 ebp, esp

; 1234 : 	return (static_cast<_Ty&&>(_Arg));

  00003	8b 45 08	 mov	 eax, DWORD PTR __Arg$[ebp]

; 1235 : 	}

  00006	5d		 pop	 ebp
  00007	c3		 ret	 0
??$forward@ABUExtraClassAttack@@@std@@YAABUExtraClassAttack@@ABU1@@Z ENDP ; std::forward<ExtraClassAttack const &>
_TEXT	ENDS
; Function compile flags: /Ogtp
; File c:\program files (x86)\microsoft visual studio 14.0\vc\include\xmemory0
;	COMDAT ??$construct@UExtraClassAttack@@AAU1@@?$allocator_traits@V?$allocator@UExtraClassAttack@@@std@@@std@@SAXAAV?$allocator@UExtraClassAttack@@@1@PAUExtraClassAttack@@AAU3@@Z
_TEXT	SEGMENT
__Al$ = 8						; size = 4
__Ptr$ = 12						; size = 4
_<_Args_0>$ = 16					; size = 4
??$construct@UExtraClassAttack@@AAU1@@?$allocator_traits@V?$allocator@UExtraClassAttack@@@std@@@std@@SAXAAV?$allocator@UExtraClassAttack@@@1@PAUExtraClassAttack@@AAU3@@Z PROC ; std::allocator_traits<std::allocator<ExtraClassAttack> >::construct<ExtraClassAttack,ExtraClassAttack &>, COMDAT

; 772  : 		{	// construct _Objty(_Types...) at _Ptr

  00000	55		 push	 ebp
  00001	8b ec		 mov	 ebp, esp

; 655  : 		::new ((void *)_Ptr) _Objty(_STD forward<_Types>(_Args)...);

  00003	8b 55 0c	 mov	 edx, DWORD PTR __Ptr$[ebp]
  00006	85 d2		 test	 edx, edx
  00008	74 0d		 je	 SHORT $LN8@construct
  0000a	8b 4d 10	 mov	 ecx, DWORD PTR _<_Args_0>$[ebp]
  0000d	8b 01		 mov	 eax, DWORD PTR [ecx]
  0000f	89 02		 mov	 DWORD PTR [edx], eax
  00011	8b 41 04	 mov	 eax, DWORD PTR [ecx+4]
  00014	89 42 04	 mov	 DWORD PTR [edx+4], eax
$LN8@construct:

; 773  : 		_Al.construct(_Ptr, _STD forward<_Types>(_Args)...);
; 774  : 		}

  00017	5d		 pop	 ebp
  00018	c3		 ret	 0
??$construct@UExtraClassAttack@@AAU1@@?$allocator_traits@V?$allocator@UExtraClassAttack@@@std@@@std@@SAXAAV?$allocator@UExtraClassAttack@@@1@PAUExtraClassAttack@@AAU3@@Z ENDP ; std::allocator_traits<std::allocator<ExtraClassAttack> >::construct<ExtraClassAttack,ExtraClassAttack &>
_TEXT	ENDS
; Function compile flags: /Ogtp
; File c:\program files (x86)\microsoft visual studio 14.0\vc\include\type_traits
;	COMDAT ??$forward@AAUExtraClassAttack@@@std@@YAAAUExtraClassAttack@@AAU1@@Z
_TEXT	SEGMENT
__Arg$ = 8						; size = 4
??$forward@AAUExtraClassAttack@@@std@@YAAAUExtraClassAttack@@AAU1@@Z PROC ; std::forward<ExtraClassAttack &>, COMDAT

; 1233 : 	{	// forward an lvalue as either an lvalue or an rvalue

  00000	55		 push	 ebp
  00001	8b ec		 mov	 ebp, esp

; 1234 : 	return (static_cast<_Ty&&>(_Arg));

  00003	8b 45 08	 mov	 eax, DWORD PTR __Arg$[ebp]

; 1235 : 	}

  00006	5d		 pop	 ebp
  00007	c3		 ret	 0
??$forward@AAUExtraClassAttack@@@std@@YAAAUExtraClassAttack@@AAU1@@Z ENDP ; std::forward<ExtraClassAttack &>
_TEXT	ENDS
; Function compile flags: /Ogtp
; File c:\program files (x86)\microsoft visual studio 14.0\vc\include\xstddef
;	COMDAT ??$_Addressof@$$CBUExtraClassAttack@@@std@@YAPBUExtraClassAttack@@ABU1@U?$integral_constant@_N$0A@@0@@Z
_TEXT	SEGMENT
__Val$ = 8						; size = 4
___formal$ = 12						; size = 1
??$_Addressof@$$CBUExtraClassAttack@@@std@@YAPBUExtraClassAttack@@ABU1@U?$integral_constant@_N$0A@@0@@Z PROC ; std::_Addressof<ExtraClassAttack const >, COMDAT

; 688  : 	{	// return address of object _Val

  00000	55		 push	 ebp
  00001	8b ec		 mov	 ebp, esp

; 689  : 	return (reinterpret_cast<_Ty *>(

  00003	8b 45 08	 mov	 eax, DWORD PTR __Val$[ebp]

; 690  : 		&const_cast<char&>(
; 691  : 		reinterpret_cast<const volatile char&>(_Val))));
; 692  : 	}

  00006	5d		 pop	 ebp
  00007	c3		 ret	 0
??$_Addressof@$$CBUExtraClassAttack@@@std@@YAPBUExtraClassAttack@@ABU1@U?$integral_constant@_N$0A@@0@@Z ENDP ; std::_Addressof<ExtraClassAttack const >
_TEXT	ENDS
; Function compile flags: /Ogtp
; File c:\program files (x86)\microsoft visual studio 14.0\vc\include\vector
; File c:\program files (x86)\microsoft visual studio 14.0\vc\include\xmemory
; File c:\program files (x86)\microsoft visual studio 14.0\vc\include\vector
;	COMDAT ??$_Umove@PAUExtraClassAttack@@@?$vector@UExtraClassAttack@@V?$allocator@UExtraClassAttack@@@std@@@std@@IAEPAUExtraClassAttack@@PAU2@00@Z
_TEXT	SEGMENT
__First$ = 8						; size = 4
__Last$ = 12						; size = 4
__Cat$1 = 16						; size = 1
__Ptr$ = 16						; size = 4
??$_Umove@PAUExtraClassAttack@@@?$vector@UExtraClassAttack@@V?$allocator@UExtraClassAttack@@@std@@@std@@IAEPAUExtraClassAttack@@PAU2@00@Z PROC ; std::vector<ExtraClassAttack,std::allocator<ExtraClassAttack> >::_Umove<ExtraClassAttack *>, COMDAT
; _this$ = ecx

; 1677 : 		{	// move initializing [_First, _Last), using allocator

  00000	55		 push	 ebp
  00001	8b ec		 mov	 ebp, esp
; File c:\program files (x86)\microsoft visual studio 14.0\vc\include\xmemory

; 481  : 	return (_Uninit_move(_First, _Last, _Dest, _Al,

  00003	ff 75 10	 push	 DWORD PTR __Cat$1[ebp]
  00006	6a 00		 push	 0
  00008	51		 push	 ecx
  00009	ff 75 10	 push	 DWORD PTR __Ptr$[ebp]
  0000c	ff 75 0c	 push	 DWORD PTR __Last$[ebp]
  0000f	ff 75 08	 push	 DWORD PTR __First$[ebp]
  00012	e8 00 00 00 00	 call	 ??$_Uninit_move@PAUExtraClassAttack@@PAU1@V?$allocator@UExtraClassAttack@@@std@@U1@@std@@YAPAUExtraClassAttack@@PAU1@00AAU?$_Wrap_alloc@V?$allocator@UExtraClassAttack@@@std@@@0@0U_Nonscalar_ptr_iterator_tag@0@@Z ; std::_Uninit_move<ExtraClassAttack *,ExtraClassAttack *,std::allocator<ExtraClassAttack>,ExtraClassAttack>
  00017	83 c4 18	 add	 esp, 24			; 00000018H
; File c:\program files (x86)\microsoft visual studio 14.0\vc\include\vector

; 1680 : 		}

  0001a	5d		 pop	 ebp
  0001b	c2 0c 00	 ret	 12			; 0000000cH
??$_Umove@PAUExtraClassAttack@@@?$vector@UExtraClassAttack@@V?$allocator@UExtraClassAttack@@@std@@@std@@IAEPAUExtraClassAttack@@PAU2@00@Z ENDP ; std::vector<ExtraClassAttack,std::allocator<ExtraClassAttack> >::_Umove<ExtraClassAttack *>
_TEXT	ENDS
; Function compile flags: /Ogtp
; File c:\program files (x86)\microsoft visual studio 14.0\vc\include\xmemory0
;	COMDAT ??$_Destroy_range@U?$_Wrap_alloc@V?$allocator@UExtraClassAttack@@@std@@@std@@@std@@YAXPAUExtraClassAttack@@0AAU?$_Wrap_alloc@V?$allocator@UExtraClassAttack@@@std@@@0@@Z
_TEXT	SEGMENT
__First$ = 8						; size = 4
__Last$ = 12						; size = 4
__Al$ = 16						; size = 4
??$_Destroy_range@U?$_Wrap_alloc@V?$allocator@UExtraClassAttack@@@std@@@std@@@std@@YAXPAUExtraClassAttack@@0AAU?$_Wrap_alloc@V?$allocator@UExtraClassAttack@@@std@@@0@@Z PROC ; std::_Destroy_range<std::_Wrap_alloc<std::allocator<ExtraClassAttack> > >, COMDAT

; 186  : 	_Destroy_range(_First, _Last, _Al, _Ptr_cat(_First, _Last));
; 187  : 	}

  00000	c3		 ret	 0
??$_Destroy_range@U?$_Wrap_alloc@V?$allocator@UExtraClassAttack@@@std@@@std@@@std@@YAXPAUExtraClassAttack@@0AAU?$_Wrap_alloc@V?$allocator@UExtraClassAttack@@@std@@@0@@Z ENDP ; std::_Destroy_range<std::_Wrap_alloc<std::allocator<ExtraClassAttack> > >
_TEXT	ENDS
; Function compile flags: /Ogtp
; File c:\program files (x86)\microsoft visual studio 14.0\vc\include\xutility
; File c:\program files (x86)\microsoft visual studio 14.0\vc\include\vector
; File c:\program files (x86)\microsoft visual studio 14.0\vc\include\xutility
; File c:\program files (x86)\microsoft visual studio 14.0\vc\include\vector
; File c:\program files (x86)\microsoft visual studio 14.0\vc\include\xutility
;	COMDAT ??$?0ABV?$allocator@UExtraClassAttack@@@std@@$$V@?$_Compressed_pair@U?$_Wrap_alloc@V?$allocator@UExtraClassAttack@@@std@@@std@@V?$_Vector_val@U?$_Simple_types@UExtraClassAttack@@@std@@@2@$00@std@@QAE@U_One_then_variadic_args_t@1@ABV?$allocator@UExtraClassAttack@@@1@@Z
_TEXT	SEGMENT
___formal$ = 8						; size = 1
__Val1$ = 12						; size = 4
??$?0ABV?$allocator@UExtraClassAttack@@@std@@$$V@?$_Compressed_pair@U?$_Wrap_alloc@V?$allocator@UExtraClassAttack@@@std@@@std@@V?$_Vector_val@U?$_Simple_types@UExtraClassAttack@@@std@@@2@$00@std@@QAE@U_One_then_variadic_args_t@1@ABV?$allocator@UExtraClassAttack@@@1@@Z PROC ; std::_Compressed_pair<std::_Wrap_alloc<std::allocator<ExtraClassAttack> >,std::_Vector_val<std::_Simple_types<ExtraClassAttack> >,1>::_Compressed_pair<std::_Wrap_alloc<std::allocator<ExtraClassAttack> >,std::_Vector_val<std::_Simple_types<ExtraClassAttack> >,1><std::allocator<ExtraClassAttack> const &>, COMDAT
; _this$ = ecx
; File c:\program files (x86)\microsoft visual studio 14.0\vc\include\vector

; 480  : 		_Myfirst = pointer();

  00000	c7 01 00 00 00
	00		 mov	 DWORD PTR [ecx], 0
; File c:\program files (x86)\microsoft visual studio 14.0\vc\include\xutility

; 289  : 		}

  00006	8b c1		 mov	 eax, ecx
; File c:\program files (x86)\microsoft visual studio 14.0\vc\include\vector

; 481  : 		_Mylast = pointer();

  00008	c7 41 04 00 00
	00 00		 mov	 DWORD PTR [ecx+4], 0

; 482  : 		_Myend = pointer();

  0000f	c7 41 08 00 00
	00 00		 mov	 DWORD PTR [ecx+8], 0
; File c:\program files (x86)\microsoft visual studio 14.0\vc\include\xutility

; 289  : 		}

  00016	c2 08 00	 ret	 8
??$?0ABV?$allocator@UExtraClassAttack@@@std@@$$V@?$_Compressed_pair@U?$_Wrap_alloc@V?$allocator@UExtraClassAttack@@@std@@@std@@V?$_Vector_val@U?$_Simple_types@UExtraClassAttack@@@std@@@2@$00@std@@QAE@U_One_then_variadic_args_t@1@ABV?$allocator@UExtraClassAttack@@@1@@Z ENDP ; std::_Compressed_pair<std::_Wrap_alloc<std::allocator<ExtraClassAttack> >,std::_Vector_val<std::_Simple_types<ExtraClassAttack> >,1>::_Compressed_pair<std::_Wrap_alloc<std::allocator<ExtraClassAttack> >,std::_Vector_val<std::_Simple_types<ExtraClassAttack> >,1><std::allocator<ExtraClassAttack> const &>
_TEXT	ENDS
; Function compile flags: /Ogtp
; File c:\program files (x86)\microsoft visual studio 14.0\vc\include\xmemory0
;	COMDAT ??$_Pocs@U?$_Wrap_alloc@V?$allocator@UExtraClassAttack@@@std@@@std@@@std@@YAXAAU?$_Wrap_alloc@V?$allocator@UExtraClassAttack@@@std@@@0@0@Z
_TEXT	SEGMENT
__Left$ = 8						; size = 4
__Right$ = 12						; size = 4
??$_Pocs@U?$_Wrap_alloc@V?$allocator@UExtraClassAttack@@@std@@@std@@@std@@YAXAAU?$_Wrap_alloc@V?$allocator@UExtraClassAttack@@@std@@@0@0@Z PROC ; std::_Pocs<std::_Wrap_alloc<std::allocator<ExtraClassAttack> > >, COMDAT

; 1004 : 	typename _Alty::propagate_on_container_swap _Tag;
; 1005 : 	_Pocs(_Left, _Right, _Tag);
; 1006 : 	}

  00000	c3		 ret	 0
??$_Pocs@U?$_Wrap_alloc@V?$allocator@UExtraClassAttack@@@std@@@std@@@std@@YAXAAU?$_Wrap_alloc@V?$allocator@UExtraClassAttack@@@std@@@0@0@Z ENDP ; std::_Pocs<std::_Wrap_alloc<std::allocator<ExtraClassAttack> > >
_TEXT	ENDS
; Function compile flags: /Ogtp
; File c:\program files (x86)\microsoft visual studio 14.0\vc\include\xmemory0
;	COMDAT ??$construct@UExtraClassAttack@@ABU1@@?$_Wrap_alloc@V?$allocator@UExtraClassAttack@@@std@@@std@@QAEXPAUExtraClassAttack@@ABU2@@Z
_TEXT	SEGMENT
__Ptr$ = 8						; size = 4
_<_Args_0>$ = 12					; size = 4
??$construct@UExtraClassAttack@@ABU1@@?$_Wrap_alloc@V?$allocator@UExtraClassAttack@@@std@@@std@@QAEXPAUExtraClassAttack@@ABU2@@Z PROC ; std::_Wrap_alloc<std::allocator<ExtraClassAttack> >::construct<ExtraClassAttack,ExtraClassAttack const &>, COMDAT
; _this$ = ecx

; 916  : 		{	// construct _Ty(_Types...) at _Ptr

  00000	55		 push	 ebp
  00001	8b ec		 mov	 ebp, esp

; 655  : 		::new ((void *)_Ptr) _Objty(_STD forward<_Types>(_Args)...);

  00003	8b 55 08	 mov	 edx, DWORD PTR __Ptr$[ebp]
  00006	85 d2		 test	 edx, edx
  00008	74 0d		 je	 SHORT $LN13@construct
  0000a	8b 4d 0c	 mov	 ecx, DWORD PTR _<_Args_0>$[ebp]
  0000d	8b 01		 mov	 eax, DWORD PTR [ecx]
  0000f	89 02		 mov	 DWORD PTR [edx], eax
  00011	8b 41 04	 mov	 eax, DWORD PTR [ecx+4]
  00014	89 42 04	 mov	 DWORD PTR [edx+4], eax
$LN13@construct:

; 917  : 		_Mytraits::construct(*this, _Ptr,
; 918  : 			_STD forward<_Types>(_Args)...);
; 919  : 		}

  00017	5d		 pop	 ebp
  00018	c2 08 00	 ret	 8
??$construct@UExtraClassAttack@@ABU1@@?$_Wrap_alloc@V?$allocator@UExtraClassAttack@@@std@@@std@@QAEXPAUExtraClassAttack@@ABU2@@Z ENDP ; std::_Wrap_alloc<std::allocator<ExtraClassAttack> >::construct<ExtraClassAttack,ExtraClassAttack const &>
_TEXT	ENDS
; Function compile flags: /Ogtp
; File c:\program files (x86)\microsoft visual studio 14.0\vc\include\xmemory0
;	COMDAT ??$construct@UExtraClassAttack@@AAU1@@?$_Wrap_alloc@V?$allocator@UExtraClassAttack@@@std@@@std@@QAEXPAUExtraClassAttack@@AAU2@@Z
_TEXT	SEGMENT
__Ptr$ = 8						; size = 4
_<_Args_0>$ = 12					; size = 4
??$construct@UExtraClassAttack@@AAU1@@?$_Wrap_alloc@V?$allocator@UExtraClassAttack@@@std@@@std@@QAEXPAUExtraClassAttack@@AAU2@@Z PROC ; std::_Wrap_alloc<std::allocator<ExtraClassAttack> >::construct<ExtraClassAttack,ExtraClassAttack &>, COMDAT
; _this$ = ecx

; 916  : 		{	// construct _Ty(_Types...) at _Ptr

  00000	55		 push	 ebp
  00001	8b ec		 mov	 ebp, esp

; 655  : 		::new ((void *)_Ptr) _Objty(_STD forward<_Types>(_Args)...);

  00003	8b 55 08	 mov	 edx, DWORD PTR __Ptr$[ebp]
  00006	85 d2		 test	 edx, edx
  00008	74 0d		 je	 SHORT $LN13@construct
  0000a	8b 4d 0c	 mov	 ecx, DWORD PTR _<_Args_0>$[ebp]
  0000d	8b 01		 mov	 eax, DWORD PTR [ecx]
  0000f	89 02		 mov	 DWORD PTR [edx], eax
  00011	8b 41 04	 mov	 eax, DWORD PTR [ecx+4]
  00014	89 42 04	 mov	 DWORD PTR [edx+4], eax
$LN13@construct:

; 917  : 		_Mytraits::construct(*this, _Ptr,
; 918  : 			_STD forward<_Types>(_Args)...);
; 919  : 		}

  00017	5d		 pop	 ebp
  00018	c2 08 00	 ret	 8
??$construct@UExtraClassAttack@@AAU1@@?$_Wrap_alloc@V?$allocator@UExtraClassAttack@@@std@@@std@@QAEXPAUExtraClassAttack@@AAU2@@Z ENDP ; std::_Wrap_alloc<std::allocator<ExtraClassAttack> >::construct<ExtraClassAttack,ExtraClassAttack &>
_TEXT	ENDS
; Function compile flags: /Ogtp
; File c:\program files (x86)\microsoft visual studio 14.0\vc\include\xstddef
;	COMDAT ??$addressof@$$CBUExtraClassAttack@@@std@@YAPBUExtraClassAttack@@ABU1@@Z
_TEXT	SEGMENT
__Val$ = 8						; size = 4
??$addressof@$$CBUExtraClassAttack@@@std@@YAPBUExtraClassAttack@@ABU1@@Z PROC ; std::addressof<ExtraClassAttack const >, COMDAT

; 696  : 	{	// return address of _Val

  00000	55		 push	 ebp
  00001	8b ec		 mov	 ebp, esp

; 697  : 	return (_Addressof(_Val, is_function<_Ty>()));

  00003	8b 45 08	 mov	 eax, DWORD PTR __Val$[ebp]

; 698  : 	}

  00006	5d		 pop	 ebp
  00007	c3		 ret	 0
??$addressof@$$CBUExtraClassAttack@@@std@@YAPBUExtraClassAttack@@ABU1@@Z ENDP ; std::addressof<ExtraClassAttack const >
_TEXT	ENDS
; Function compile flags: /Ogtp
; File c:\program files (x86)\microsoft visual studio 14.0\vc\include\utility
;	COMDAT ??$swap@PAUExtraClassAttack@@@std@@YAXAAPAUExtraClassAttack@@0@Z
_TEXT	SEGMENT
__Left$ = 8						; size = 4
__Right$ = 12						; size = 4
??$swap@PAUExtraClassAttack@@@std@@YAXAAPAUExtraClassAttack@@0@Z PROC ; std::swap<ExtraClassAttack *>, COMDAT

; 51   : 	{	// exchange values stored at _Left and _Right

  00000	55		 push	 ebp
  00001	8b ec		 mov	 ebp, esp

; 52   : 	_Ty _Tmp = _Move(_Left);

  00003	8b 55 08	 mov	 edx, DWORD PTR __Left$[ebp]

; 53   : 	_Left = _Move(_Right);

  00006	8b 4d 0c	 mov	 ecx, DWORD PTR __Right$[ebp]
  00009	56		 push	 esi
  0000a	8b 32		 mov	 esi, DWORD PTR [edx]
  0000c	8b 01		 mov	 eax, DWORD PTR [ecx]
  0000e	89 02		 mov	 DWORD PTR [edx], eax

; 54   : 	_Right = _Move(_Tmp);

  00010	89 31		 mov	 DWORD PTR [ecx], esi
  00012	5e		 pop	 esi

; 55   : 	}

  00013	5d		 pop	 ebp
  00014	c3		 ret	 0
??$swap@PAUExtraClassAttack@@@std@@YAXAAPAUExtraClassAttack@@0@Z ENDP ; std::swap<ExtraClassAttack *>
_TEXT	ENDS
; Function compile flags: /Ogtp
; File c:\program files (x86)\microsoft visual studio 14.0\vc\include\utility
;	COMDAT ??$_Swap_adl@PAUExtraClassAttack@@@std@@YAXAAPAUExtraClassAttack@@0@Z
_TEXT	SEGMENT
__Left$ = 8						; size = 4
__Right$ = 12						; size = 4
??$_Swap_adl@PAUExtraClassAttack@@@std@@YAXAAPAUExtraClassAttack@@0@Z PROC ; std::_Swap_adl<ExtraClassAttack *>, COMDAT

; 61   : 	{	// exchange values stored at _Left and _Right, using ADL

  00000	55		 push	 ebp
  00001	8b ec		 mov	 ebp, esp

; 52   : 	_Ty _Tmp = _Move(_Left);

  00003	8b 55 08	 mov	 edx, DWORD PTR __Left$[ebp]

; 53   : 	_Left = _Move(_Right);

  00006	8b 4d 0c	 mov	 ecx, DWORD PTR __Right$[ebp]
  00009	56		 push	 esi

; 52   : 	_Ty _Tmp = _Move(_Left);

  0000a	8b 32		 mov	 esi, DWORD PTR [edx]

; 53   : 	_Left = _Move(_Right);

  0000c	8b 01		 mov	 eax, DWORD PTR [ecx]
  0000e	89 02		 mov	 DWORD PTR [edx], eax

; 54   : 	_Right = _Move(_Tmp);

  00010	89 31		 mov	 DWORD PTR [ecx], esi
  00012	5e		 pop	 esi

; 62   : 	swap(_Left, _Right);
; 63   : 	}

  00013	5d		 pop	 ebp
  00014	c3		 ret	 0
??$_Swap_adl@PAUExtraClassAttack@@@std@@YAXAAPAUExtraClassAttack@@0@Z ENDP ; std::_Swap_adl<ExtraClassAttack *>
_TEXT	ENDS
; Function compile flags: /Ogtp
; File c:\program files (x86)\microsoft visual studio 14.0\vc\include\xmemory0
;	COMDAT ??$?8UExtraClassAttack@@U0@@std@@YA_NABV?$allocator@UExtraClassAttack@@@0@0@Z
_TEXT	SEGMENT
___formal$ = 8						; size = 4
___formal$ = 12						; size = 4
??$?8UExtraClassAttack@@U0@@std@@YA_NABV?$allocator@UExtraClassAttack@@@0@0@Z PROC ; std::operator==<ExtraClassAttack,ExtraClassAttack>, COMDAT

; 712  : 	return (true);

  00000	b0 01		 mov	 al, 1

; 713  : 	}

  00002	c3		 ret	 0
??$?8UExtraClassAttack@@U0@@std@@YA_NABV?$allocator@UExtraClassAttack@@@0@0@Z ENDP ; std::operator==<ExtraClassAttack,ExtraClassAttack>
_TEXT	ENDS
; Function compile flags: /Ogtp
; File c:\program files (x86)\microsoft visual studio 14.0\vc\include\xmemory0
;	COMDAT ??$?8V?$allocator@UExtraClassAttack@@@std@@V01@@std@@YA_NABU?$_Wrap_alloc@V?$allocator@UExtraClassAttack@@@std@@@0@0@Z
_TEXT	SEGMENT
__Left$ = 8						; size = 4
__Right$ = 12						; size = 4
??$?8V?$allocator@UExtraClassAttack@@@std@@V01@@std@@YA_NABU?$_Wrap_alloc@V?$allocator@UExtraClassAttack@@@std@@@0@0@Z PROC ; std::operator==<std::allocator<ExtraClassAttack>,std::allocator<ExtraClassAttack> >, COMDAT

; 939  : 	return (static_cast<const _Ty&>(_Left)

  00000	b0 01		 mov	 al, 1

; 940  : 		== static_cast<const _Other&>(_Right));
; 941  : 	}

  00002	c3		 ret	 0
??$?8V?$allocator@UExtraClassAttack@@@std@@V01@@std@@YA_NABU?$_Wrap_alloc@V?$allocator@UExtraClassAttack@@@std@@@0@0@Z ENDP ; std::operator==<std::allocator<ExtraClassAttack>,std::allocator<ExtraClassAttack> >
_TEXT	ENDS
; Function compile flags: /Ogtp
;	COMDAT ??__Fg_ExtraClassBalance@@YAXXZ
text$yd	SEGMENT
??__Fg_ExtraClassBalance@@YAXXZ PROC			; `dynamic atexit destructor for 'g_ExtraClassBalance'', COMDAT
  00000	b9 00 00 00 00	 mov	 ecx, OFFSET ?g_ExtraClassBalance@@3VExtraClassBalance@@A ; g_ExtraClassBalance
  00005	e9 00 00 00 00	 jmp	 ??1ExtraClassBalance@@UAE@XZ ; ExtraClassBalance::~ExtraClassBalance
??__Fg_ExtraClassBalance@@YAXXZ ENDP			; `dynamic atexit destructor for 'g_ExtraClassBalance''
text$yd	ENDS
; Function compile flags: /Ogtp
; File c:\users\michel\desktop\source\gameserver\source\extraclassbalance.cpp
;	COMDAT ??__Eg_ExtraClassBalance@@YAXXZ
text$di	SEGMENT
??__Eg_ExtraClassBalance@@YAXXZ PROC			; `dynamic initializer for 'g_ExtraClassBalance'', COMDAT

; 11   : ExtraClassBalance g_ExtraClassBalance;

  00000	b9 00 00 00 00	 mov	 ecx, OFFSET ?g_ExtraClassBalance@@3VExtraClassBalance@@A ; g_ExtraClassBalance
  00005	e8 00 00 00 00	 call	 ??0ExtraClassBalance@@QAE@XZ ; ExtraClassBalance::ExtraClassBalance
  0000a	68 00 00 00 00	 push	 OFFSET ??__Fg_ExtraClassBalance@@YAXXZ ; `dynamic atexit destructor for 'g_ExtraClassBalance''
  0000f	e8 00 00 00 00	 call	 _atexit
  00014	59		 pop	 ecx
  00015	c3		 ret	 0
??__Eg_ExtraClassBalance@@YAXXZ ENDP			; `dynamic initializer for 'g_ExtraClassBalance''
text$di	ENDS
; Function compile flags: /Ogtp
;	COMDAT ??_GExtraClassBalance@@UAEPAXI@Z
_TEXT	SEGMENT
___flags$ = 8						; size = 4
??_GExtraClassBalance@@UAEPAXI@Z PROC			; ExtraClassBalance::`scalar deleting destructor', COMDAT
; _this$ = ecx
  00000	55		 push	 ebp
  00001	8b ec		 mov	 ebp, esp
  00003	56		 push	 esi
  00004	8b f1		 mov	 esi, ecx
  00006	e8 00 00 00 00	 call	 ??1ExtraClassBalance@@UAE@XZ ; ExtraClassBalance::~ExtraClassBalance
  0000b	f6 45 08 01	 test	 BYTE PTR ___flags$[ebp], 1
  0000f	74 0b		 je	 SHORT $LN4@scalar
  00011	6a 10		 push	 16			; 00000010H
  00013	56		 push	 esi
  00014	e8 00 00 00 00	 call	 ??3@YAXPAXI@Z		; operator delete
  00019	83 c4 08	 add	 esp, 8
$LN4@scalar:
  0001c	8b c6		 mov	 eax, esi
  0001e	5e		 pop	 esi
  0001f	5d		 pop	 ebp
  00020	c2 04 00	 ret	 4
??_GExtraClassBalance@@UAEPAXI@Z ENDP			; ExtraClassBalance::`scalar deleting destructor'
_TEXT	ENDS
; Function compile flags: /Ogtp
; File c:\program files (x86)\microsoft visual studio 14.0\vc\include\vector
;	COMDAT ?_Orphan_range@?$vector@UExtraClassAttack@@V?$allocator@UExtraClassAttack@@@std@@@std@@IBEXPAUExtraClassAttack@@0@Z
_TEXT	SEGMENT
___formal$ = 8						; size = 4
___formal$ = 12						; size = 4
?_Orphan_range@?$vector@UExtraClassAttack@@V?$allocator@UExtraClassAttack@@@std@@@std@@IBEXPAUExtraClassAttack@@0@Z PROC ; std::vector<ExtraClassAttack,std::allocator<ExtraClassAttack> >::_Orphan_range, COMDAT
; _this$ = ecx

; 1813 : 		}

  00000	c2 08 00	 ret	 8
?_Orphan_range@?$vector@UExtraClassAttack@@V?$allocator@UExtraClassAttack@@@std@@@std@@IBEXPAUExtraClassAttack@@0@Z ENDP ; std::vector<ExtraClassAttack,std::allocator<ExtraClassAttack> >::_Orphan_range
_TEXT	ENDS
; Function compile flags: /Ogtp
; File c:\program files (x86)\microsoft visual studio 14.0\vc\include\vector
;	COMDAT ?_Xlen@?$vector@UExtraClassAttack@@V?$allocator@UExtraClassAttack@@@std@@@std@@IBEXXZ
_TEXT	SEGMENT
?_Xlen@?$vector@UExtraClassAttack@@V?$allocator@UExtraClassAttack@@@std@@@std@@IBEXXZ PROC ; std::vector<ExtraClassAttack,std::allocator<ExtraClassAttack> >::_Xlen, COMDAT
; _this$ = ecx

; 1784 : 		_Xlength_error("vector<T> too long");

  00000	68 00 00 00 00	 push	 OFFSET ??_C@_0BD@OLBABOEK@vector?$DMT?$DO?5too?5long?$AA@
  00005	e8 00 00 00 00	 call	 ?_Xlength_error@std@@YAXPBD@Z ; std::_Xlength_error
$LN4@Xlen:
$LN3@Xlen:
  0000a	cc		 int	 3
?_Xlen@?$vector@UExtraClassAttack@@V?$allocator@UExtraClassAttack@@@std@@@std@@IBEXXZ ENDP ; std::vector<ExtraClassAttack,std::allocator<ExtraClassAttack> >::_Xlen
_TEXT	ENDS
; Function compile flags: /Ogtp
; File c:\program files (x86)\microsoft visual studio 14.0\vc\include\vector
;	COMDAT ?_Tidy@?$vector@UExtraClassAttack@@V?$allocator@UExtraClassAttack@@@std@@@std@@IAEXXZ
_TEXT	SEGMENT
?_Tidy@?$vector@UExtraClassAttack@@V?$allocator@UExtraClassAttack@@@std@@@std@@IAEXXZ PROC ; std::vector<ExtraClassAttack,std::allocator<ExtraClassAttack> >::_Tidy, COMDAT
; _this$ = ecx

; 1655 : 		{	// free all storage

  00000	56		 push	 esi
  00001	8b f1		 mov	 esi, ecx

; 1656 : 		if (this->_Myfirst() != pointer())

  00003	8b 0e		 mov	 ecx, DWORD PTR [esi]
  00005	85 c9		 test	 ecx, ecx
  00007	74 25		 je	 SHORT $LN2@Tidy

; 1657 : 			{	// something to free, destroy and deallocate it
; 1658 : 			this->_Orphan_all();
; 1659 : 			_Destroy(this->_Myfirst(), this->_Mylast());
; 1660 : 			this->_Getal().deallocate(this->_Myfirst(),

  00009	8b 46 08	 mov	 eax, DWORD PTR [esi+8]
  0000c	2b c1		 sub	 eax, ecx
  0000e	c1 f8 03	 sar	 eax, 3
  00011	50		 push	 eax
  00012	51		 push	 ecx
  00013	8b ce		 mov	 ecx, esi
  00015	e8 00 00 00 00	 call	 ?deallocate@?$_Wrap_alloc@V?$allocator@UExtraClassAttack@@@std@@@std@@QAEXPAUExtraClassAttack@@I@Z ; std::_Wrap_alloc<std::allocator<ExtraClassAttack> >::deallocate

; 1661 : 				this->_Myend() - this->_Myfirst());
; 1662 : 			this->_Myfirst() = pointer();

  0001a	c7 06 00 00 00
	00		 mov	 DWORD PTR [esi], 0

; 1663 : 			this->_Mylast() = pointer();

  00020	c7 46 04 00 00
	00 00		 mov	 DWORD PTR [esi+4], 0

; 1664 : 			this->_Myend() = pointer();

  00027	c7 46 08 00 00
	00 00		 mov	 DWORD PTR [esi+8], 0
$LN2@Tidy:
  0002e	5e		 pop	 esi

; 1665 : 			}
; 1666 : 		}

  0002f	c3		 ret	 0
?_Tidy@?$vector@UExtraClassAttack@@V?$allocator@UExtraClassAttack@@@std@@@std@@IAEXXZ ENDP ; std::vector<ExtraClassAttack,std::allocator<ExtraClassAttack> >::_Tidy
_TEXT	ENDS
; Function compile flags: /Ogtp
; File c:\program files (x86)\microsoft visual studio 14.0\vc\include\vector
;	COMDAT ?_Reserve@?$vector@UExtraClassAttack@@V?$allocator@UExtraClassAttack@@@std@@@std@@IAEXI@Z
_TEXT	SEGMENT
__Count$ = 8						; size = 4
?_Reserve@?$vector@UExtraClassAttack@@V?$allocator@UExtraClassAttack@@@std@@@std@@IAEXI@Z PROC ; std::vector<ExtraClassAttack,std::allocator<ExtraClassAttack> >::_Reserve, COMDAT
; _this$ = ecx

; 1645 : 		{	// ensure room for _Count new elements, grow exponentially

  00000	55		 push	 ebp
  00001	8b ec		 mov	 ebp, esp
  00003	56		 push	 esi
  00004	8b f1		 mov	 esi, ecx

; 1646 : 		if (_Unused_capacity() < _Count)

  00006	8b 4d 08	 mov	 ecx, DWORD PTR __Count$[ebp]
  00009	57		 push	 edi

; 1043 : 		}
; 1044 : 
; 1045 : 	size_type _Unused_capacity() const _NOEXCEPT
; 1046 : 		{	// micro-optimization for capacity() - size()
; 1047 : 		return (this->_Myend() - this->_Mylast());

  0000a	8b 7e 08	 mov	 edi, DWORD PTR [esi+8]
  0000d	8b c7		 mov	 eax, edi
  0000f	8b 56 04	 mov	 edx, DWORD PTR [esi+4]
  00012	2b c2		 sub	 eax, edx
  00014	c1 f8 03	 sar	 eax, 3

; 1646 : 		if (_Unused_capacity() < _Count)

  00017	3b c1		 cmp	 eax, ecx
  00019	73 3b		 jae	 SHORT $LN2@Reserve

; 1048 : 		}
; 1049 : 
; 1050 : 	size_type _Has_unused_capacity() const _NOEXCEPT
; 1051 : 		{	// micro-optimization for capacity() != size()
; 1052 : 		return (this->_Myend() != this->_Mylast());
; 1053 : 		}
; 1054 : 
; 1055 : 	iterator begin() _NOEXCEPT
; 1056 : 		{	// return iterator for beginning of mutable sequence
; 1057 : 		return (iterator(this->_Myfirst(), &this->_Get_data()));
; 1058 : 		}
; 1059 : 
; 1060 : 	const_iterator begin() const _NOEXCEPT
; 1061 : 		{	// return iterator for beginning of nonmutable sequence
; 1062 : 		return (const_iterator(this->_Myfirst(), &this->_Get_data()));
; 1063 : 		}
; 1064 : 
; 1065 : 	iterator end() _NOEXCEPT
; 1066 : 		{	// return iterator for end of mutable sequence
; 1067 : 		return (iterator(this->_Mylast(), &this->_Get_data()));
; 1068 : 		}
; 1069 : 
; 1070 : 	const_iterator end() const _NOEXCEPT
; 1071 : 		{	// return iterator for end of nonmutable sequence
; 1072 : 		return (const_iterator(this->_Mylast(), &this->_Get_data()));
; 1073 : 		}
; 1074 : 
; 1075 : 	iterator _Make_iter(const_iterator _Where) const
; 1076 : 		{	// make iterator from const_iterator
; 1077 : 		return (iterator(_Where._Ptr, &this->_Get_data()));
; 1078 : 		}
; 1079 : 
; 1080 : 	reverse_iterator rbegin() _NOEXCEPT
; 1081 : 		{	// return iterator for beginning of reversed mutable sequence
; 1082 : 		return (reverse_iterator(end()));
; 1083 : 		}
; 1084 : 
; 1085 : 	const_reverse_iterator rbegin() const _NOEXCEPT
; 1086 : 		{	// return iterator for beginning of reversed nonmutable sequence
; 1087 : 		return (const_reverse_iterator(end()));
; 1088 : 		}
; 1089 : 
; 1090 : 	reverse_iterator rend() _NOEXCEPT
; 1091 : 		{	// return iterator for end of reversed mutable sequence
; 1092 : 		return (reverse_iterator(begin()));
; 1093 : 		}
; 1094 : 
; 1095 : 	const_reverse_iterator rend() const _NOEXCEPT
; 1096 : 		{	// return iterator for end of reversed nonmutable sequence
; 1097 : 		return (const_reverse_iterator(begin()));
; 1098 : 		}
; 1099 : 
; 1100 : 	const_iterator cbegin() const _NOEXCEPT
; 1101 : 		{	// return iterator for beginning of nonmutable sequence
; 1102 : 		return (begin());
; 1103 : 		}
; 1104 : 
; 1105 : 	const_iterator cend() const _NOEXCEPT
; 1106 : 		{	// return iterator for end of nonmutable sequence
; 1107 : 		return (end());
; 1108 : 		}
; 1109 : 
; 1110 : 	const_reverse_iterator crbegin() const _NOEXCEPT
; 1111 : 		{	// return iterator for beginning of reversed nonmutable sequence
; 1112 : 		return (rbegin());
; 1113 : 		}
; 1114 : 
; 1115 : 	const_reverse_iterator crend() const _NOEXCEPT
; 1116 : 		{	// return iterator for end of reversed nonmutable sequence
; 1117 : 		return (rend());
; 1118 : 		}
; 1119 : 
; 1120 : 	void shrink_to_fit()
; 1121 : 		{	// reduce capacity
; 1122 : 		if (_Has_unused_capacity())
; 1123 : 			{	// worth shrinking, do it
; 1124 : 			if (empty())
; 1125 : 				_Tidy();
; 1126 : 			else
; 1127 : 				_Reallocate(size());
; 1128 : 			}
; 1129 : 		}
; 1130 : 
; 1131 : 	void resize(size_type _Newsize)
; 1132 : 		{	// determine new length, padding as needed
; 1133 : 		if (_Newsize < size())
; 1134 : 			_Pop_back_n(size() - _Newsize);
; 1135 : 		else if (size() < _Newsize)
; 1136 : 			{	// pad as needed
; 1137 : 			_Reserve(_Newsize - size());
; 1138 : 			_TRY_BEGIN
; 1139 : 			_Uninitialized_default_fill_n(this->_Mylast(), _Newsize - size(),
; 1140 : 				this->_Getal());
; 1141 : 			_CATCH_ALL
; 1142 : 			_Tidy();
; 1143 : 			_RERAISE;
; 1144 : 			_CATCH_END
; 1145 : 			this->_Mylast() += _Newsize - size();
; 1146 : 			}
; 1147 : 		}
; 1148 : 
; 1149 : 	void resize(size_type _Newsize, const value_type& _Val)
; 1150 : 		{	// determine new length, padding with _Val elements as needed
; 1151 : 		if (_Newsize < size())
; 1152 : 			_Pop_back_n(size() - _Newsize);
; 1153 : 		else if (size() < _Newsize)
; 1154 : 			{	// pad as needed
; 1155 : 			const value_type *_Ptr = _STD addressof(_Val);
; 1156 : 
; 1157 : 			if (_Inside(_Ptr))
; 1158 : 				{	// padding is inside vector, recompute _Ptr after reserve
; 1159 : 				const difference_type _Idx = _Ptr
; 1160 : 					- _STD addressof(*this->_Myfirst());
; 1161 : 				_Reserve(_Newsize - size());
; 1162 : 				_Ptr = _STD addressof(*this->_Myfirst()) + _Idx;
; 1163 : 				}
; 1164 : 			else
; 1165 : 				_Reserve(_Newsize - size());
; 1166 : 
; 1167 : 			_TRY_BEGIN
; 1168 : 			_Ufill(this->_Mylast(), _Newsize - size(), _Ptr);
; 1169 : 			_CATCH_ALL
; 1170 : 			_Tidy();
; 1171 : 			_RERAISE;
; 1172 : 			_CATCH_END
; 1173 : 			this->_Mylast() += _Newsize - size();
; 1174 : 			}
; 1175 : 		}
; 1176 : 
; 1177 : 	size_type size() const _NOEXCEPT
; 1178 : 		{	// return length of sequence
; 1179 : 		return (this->_Mylast() - this->_Myfirst());

  0001b	2b 16		 sub	 edx, DWORD PTR [esi]
  0001d	53		 push	 ebx

; 1647 : 			{	// need more room, try to get it
; 1648 : 			if (max_size() - size() < _Count)

  0001e	bb ff ff ff 1f	 mov	 ebx, 536870911		; 1fffffffH

; 1048 : 		}
; 1049 : 
; 1050 : 	size_type _Has_unused_capacity() const _NOEXCEPT
; 1051 : 		{	// micro-optimization for capacity() != size()
; 1052 : 		return (this->_Myend() != this->_Mylast());
; 1053 : 		}
; 1054 : 
; 1055 : 	iterator begin() _NOEXCEPT
; 1056 : 		{	// return iterator for beginning of mutable sequence
; 1057 : 		return (iterator(this->_Myfirst(), &this->_Get_data()));
; 1058 : 		}
; 1059 : 
; 1060 : 	const_iterator begin() const _NOEXCEPT
; 1061 : 		{	// return iterator for beginning of nonmutable sequence
; 1062 : 		return (const_iterator(this->_Myfirst(), &this->_Get_data()));
; 1063 : 		}
; 1064 : 
; 1065 : 	iterator end() _NOEXCEPT
; 1066 : 		{	// return iterator for end of mutable sequence
; 1067 : 		return (iterator(this->_Mylast(), &this->_Get_data()));
; 1068 : 		}
; 1069 : 
; 1070 : 	const_iterator end() const _NOEXCEPT
; 1071 : 		{	// return iterator for end of nonmutable sequence
; 1072 : 		return (const_iterator(this->_Mylast(), &this->_Get_data()));
; 1073 : 		}
; 1074 : 
; 1075 : 	iterator _Make_iter(const_iterator _Where) const
; 1076 : 		{	// make iterator from const_iterator
; 1077 : 		return (iterator(_Where._Ptr, &this->_Get_data()));
; 1078 : 		}
; 1079 : 
; 1080 : 	reverse_iterator rbegin() _NOEXCEPT
; 1081 : 		{	// return iterator for beginning of reversed mutable sequence
; 1082 : 		return (reverse_iterator(end()));
; 1083 : 		}
; 1084 : 
; 1085 : 	const_reverse_iterator rbegin() const _NOEXCEPT
; 1086 : 		{	// return iterator for beginning of reversed nonmutable sequence
; 1087 : 		return (const_reverse_iterator(end()));
; 1088 : 		}
; 1089 : 
; 1090 : 	reverse_iterator rend() _NOEXCEPT
; 1091 : 		{	// return iterator for end of reversed mutable sequence
; 1092 : 		return (reverse_iterator(begin()));
; 1093 : 		}
; 1094 : 
; 1095 : 	const_reverse_iterator rend() const _NOEXCEPT
; 1096 : 		{	// return iterator for end of reversed nonmutable sequence
; 1097 : 		return (const_reverse_iterator(begin()));
; 1098 : 		}
; 1099 : 
; 1100 : 	const_iterator cbegin() const _NOEXCEPT
; 1101 : 		{	// return iterator for beginning of nonmutable sequence
; 1102 : 		return (begin());
; 1103 : 		}
; 1104 : 
; 1105 : 	const_iterator cend() const _NOEXCEPT
; 1106 : 		{	// return iterator for end of nonmutable sequence
; 1107 : 		return (end());
; 1108 : 		}
; 1109 : 
; 1110 : 	const_reverse_iterator crbegin() const _NOEXCEPT
; 1111 : 		{	// return iterator for beginning of reversed nonmutable sequence
; 1112 : 		return (rbegin());
; 1113 : 		}
; 1114 : 
; 1115 : 	const_reverse_iterator crend() const _NOEXCEPT
; 1116 : 		{	// return iterator for end of reversed nonmutable sequence
; 1117 : 		return (rend());
; 1118 : 		}
; 1119 : 
; 1120 : 	void shrink_to_fit()
; 1121 : 		{	// reduce capacity
; 1122 : 		if (_Has_unused_capacity())
; 1123 : 			{	// worth shrinking, do it
; 1124 : 			if (empty())
; 1125 : 				_Tidy();
; 1126 : 			else
; 1127 : 				_Reallocate(size());
; 1128 : 			}
; 1129 : 		}
; 1130 : 
; 1131 : 	void resize(size_type _Newsize)
; 1132 : 		{	// determine new length, padding as needed
; 1133 : 		if (_Newsize < size())
; 1134 : 			_Pop_back_n(size() - _Newsize);
; 1135 : 		else if (size() < _Newsize)
; 1136 : 			{	// pad as needed
; 1137 : 			_Reserve(_Newsize - size());
; 1138 : 			_TRY_BEGIN
; 1139 : 			_Uninitialized_default_fill_n(this->_Mylast(), _Newsize - size(),
; 1140 : 				this->_Getal());
; 1141 : 			_CATCH_ALL
; 1142 : 			_Tidy();
; 1143 : 			_RERAISE;
; 1144 : 			_CATCH_END
; 1145 : 			this->_Mylast() += _Newsize - size();
; 1146 : 			}
; 1147 : 		}
; 1148 : 
; 1149 : 	void resize(size_type _Newsize, const value_type& _Val)
; 1150 : 		{	// determine new length, padding with _Val elements as needed
; 1151 : 		if (_Newsize < size())
; 1152 : 			_Pop_back_n(size() - _Newsize);
; 1153 : 		else if (size() < _Newsize)
; 1154 : 			{	// pad as needed
; 1155 : 			const value_type *_Ptr = _STD addressof(_Val);
; 1156 : 
; 1157 : 			if (_Inside(_Ptr))
; 1158 : 				{	// padding is inside vector, recompute _Ptr after reserve
; 1159 : 				const difference_type _Idx = _Ptr
; 1160 : 					- _STD addressof(*this->_Myfirst());
; 1161 : 				_Reserve(_Newsize - size());
; 1162 : 				_Ptr = _STD addressof(*this->_Myfirst()) + _Idx;
; 1163 : 				}
; 1164 : 			else
; 1165 : 				_Reserve(_Newsize - size());
; 1166 : 
; 1167 : 			_TRY_BEGIN
; 1168 : 			_Ufill(this->_Mylast(), _Newsize - size(), _Ptr);
; 1169 : 			_CATCH_ALL
; 1170 : 			_Tidy();
; 1171 : 			_RERAISE;
; 1172 : 			_CATCH_END
; 1173 : 			this->_Mylast() += _Newsize - size();
; 1174 : 			}
; 1175 : 		}
; 1176 : 
; 1177 : 	size_type size() const _NOEXCEPT
; 1178 : 		{	// return length of sequence
; 1179 : 		return (this->_Mylast() - this->_Myfirst());

  00023	c1 fa 03	 sar	 edx, 3

; 1647 : 			{	// need more room, try to get it
; 1648 : 			if (max_size() - size() < _Count)

  00026	8b c3		 mov	 eax, ebx
  00028	2b c2		 sub	 eax, edx
  0002a	3b c1		 cmp	 eax, ecx
  0002c	72 2e		 jb	 SHORT $LN134@Reserve

; 1042 : 		return (this->_Myend() - this->_Myfirst());

  0002e	2b 3e		 sub	 edi, DWORD PTR [esi]

; 1649 : 				_Xlen();
; 1650 : 			_Reallocate(_Grow_to(size() + _Count));

  00030	03 d1		 add	 edx, ecx

; 1042 : 		return (this->_Myend() - this->_Myfirst());

  00032	c1 ff 03	 sar	 edi, 3

; 1180 : 		}
; 1181 : 
; 1182 : 	size_type max_size() const _NOEXCEPT
; 1183 : 		{	// return maximum possible length of sequence
; 1184 : 		return (this->_Getal().max_size());
; 1185 : 		}
; 1186 : 
; 1187 : 	bool empty() const _NOEXCEPT
; 1188 : 		{	// test if sequence is empty
; 1189 : 		return (this->_Myfirst() == this->_Mylast());
; 1190 : 		}
; 1191 : 
; 1192 : 	_Alloc get_allocator() const _NOEXCEPT
; 1193 : 		{	// return allocator object for values
; 1194 : 		return (this->_Getal());
; 1195 : 		}
; 1196 : 
; 1197 : 	const_reference at(size_type _Pos) const
; 1198 : 		{	// subscript nonmutable sequence with checking
; 1199 : 		if (size() <= _Pos)
; 1200 : 			_Xran();
; 1201 : 		return (*(this->_Myfirst() + _Pos));
; 1202 : 		}
; 1203 : 
; 1204 : 	reference at(size_type _Pos)
; 1205 : 		{	// subscript mutable sequence with checking
; 1206 : 		if (size() <= _Pos)
; 1207 : 			_Xran();
; 1208 : 		return (*(this->_Myfirst() + _Pos));
; 1209 : 		}
; 1210 : 
; 1211 : 	const_reference operator[](size_type _Pos) const
; 1212 : 		{	// subscript nonmutable sequence
; 1213 :  #if _ITERATOR_DEBUG_LEVEL == 2
; 1214 : 		if (size() <= _Pos)
; 1215 : 			{	// report error
; 1216 : 			_DEBUG_ERROR("vector subscript out of range");
; 1217 : 			_SCL_SECURE_OUT_OF_RANGE;
; 1218 : 			}
; 1219 : 
; 1220 :  #elif _ITERATOR_DEBUG_LEVEL == 1
; 1221 : 		_SCL_SECURE_VALIDATE_RANGE(_Pos < size());
; 1222 :  #endif /* _ITERATOR_DEBUG_LEVEL */
; 1223 : 
; 1224 : 		return (*(this->_Myfirst() + _Pos));
; 1225 : 		}
; 1226 : 
; 1227 : 	reference operator[](size_type _Pos)
; 1228 : 		{	// subscript mutable sequence
; 1229 :  #if _ITERATOR_DEBUG_LEVEL == 2
; 1230 : 		if (size() <= _Pos)
; 1231 : 			{	// report error
; 1232 : 			_DEBUG_ERROR("vector subscript out of range");
; 1233 : 			_SCL_SECURE_OUT_OF_RANGE;
; 1234 : 			}
; 1235 : 
; 1236 :  #elif _ITERATOR_DEBUG_LEVEL == 1
; 1237 : 		_SCL_SECURE_VALIDATE_RANGE(_Pos < size());
; 1238 :  #endif /* _ITERATOR_DEBUG_LEVEL */
; 1239 : 
; 1240 : 		return (*(this->_Myfirst() + _Pos));
; 1241 : 		}
; 1242 : 
; 1243 : 	pointer data() _NOEXCEPT
; 1244 : 		{	// return address of first element
; 1245 : 		return (this->_Myfirst());
; 1246 : 		}
; 1247 : 
; 1248 : 	const_pointer data() const _NOEXCEPT
; 1249 : 		{	// return address of first element
; 1250 : 		return (this->_Myfirst());
; 1251 : 		}
; 1252 : 
; 1253 : 	reference front()
; 1254 : 		{	// return first element of mutable sequence
; 1255 : 		return (*begin());
; 1256 : 		}
; 1257 : 
; 1258 : 	const_reference front() const
; 1259 : 		{	// return first element of nonmutable sequence
; 1260 : 		return (*begin());
; 1261 : 		}
; 1262 : 
; 1263 : 	reference back()
; 1264 : 		{	// return last element of mutable sequence
; 1265 : 		return (*(end() - 1));
; 1266 : 		}
; 1267 : 
; 1268 : 	const_reference back() const
; 1269 : 		{	// return last element of nonmutable sequence
; 1270 : 		return (*(end() - 1));
; 1271 : 		}
; 1272 : 
; 1273 : 	void push_back(const value_type& _Val)
; 1274 : 		{	// insert element at end
; 1275 : 		if (_Inside(_STD addressof(_Val)))
; 1276 : 			{	// push back an element
; 1277 : 			size_type _Idx = _STD addressof(_Val) - this->_Myfirst();
; 1278 : 			if (this->_Mylast() == this->_Myend())
; 1279 : 				_Reserve(1);
; 1280 : 			_Orphan_range(this->_Mylast(), this->_Mylast());
; 1281 : 			this->_Getal().construct(this->_Mylast(),
; 1282 : 				this->_Myfirst()[_Idx]);
; 1283 : 			++this->_Mylast();
; 1284 : 			}
; 1285 : 		else
; 1286 : 			{	// push back a non-element
; 1287 : 			if (this->_Mylast() == this->_Myend())
; 1288 : 				_Reserve(1);
; 1289 : 			_Orphan_range(this->_Mylast(), this->_Mylast());
; 1290 : 			this->_Getal().construct(this->_Mylast(),
; 1291 : 				_Val);
; 1292 : 			++this->_Mylast();
; 1293 : 			}
; 1294 : 		}
; 1295 : 
; 1296 :  #if _ITERATOR_DEBUG_LEVEL == 2
; 1297 : 	void pop_back()
; 1298 : 		{	// erase element at end
; 1299 : 		if (empty())
; 1300 : 			_DEBUG_ERROR("vector empty before pop");
; 1301 : 		else
; 1302 : 			{	// erase last element
; 1303 : 			_Orphan_range(this->_Mylast() - 1, this->_Mylast());
; 1304 : 			this->_Getal().destroy(this->_Mylast() - 1);
; 1305 : 			--this->_Mylast();
; 1306 : 			}
; 1307 : 		}
; 1308 : 
; 1309 :  #else /* _ITERATOR_DEBUG_LEVEL == 2 */
; 1310 : 	void pop_back()
; 1311 : 		{	// erase element at end
; 1312 : 		this->_Getal().destroy(this->_Mylast() - 1);
; 1313 : 		--this->_Mylast();
; 1314 : 		}
; 1315 :  #endif /* _ITERATOR_DEBUG_LEVEL == 2 */
; 1316 : 
; 1317 : 	template<class _Iter>
; 1318 : 		typename enable_if<_Is_iterator<_Iter>::value,
; 1319 : 			void>::type
; 1320 : 		assign(_Iter _First, _Iter _Last)
; 1321 : 		{	// assign [_First, _Last)
; 1322 : 		clear();
; 1323 : 		_Assign(_First, _Last, _Iter_cat(_First));
; 1324 : 		}
; 1325 : 
; 1326 : 	template<class _Iter>
; 1327 : 		void _Assign(_Iter _First, _Iter _Last,
; 1328 : 			input_iterator_tag)
; 1329 : 		{	// assign [_First, _Last), input iterators
; 1330 : 		for (; _First != _Last; ++_First)
; 1331 : 			emplace_back(*_First);
; 1332 : 		}
; 1333 : 
; 1334 : 	template<class _Iter>
; 1335 : 		void _Assign(_Iter _First, _Iter _Last,
; 1336 : 			forward_iterator_tag)
; 1337 : 		{	// assign [_First, _Last), forward iterators
; 1338 : 		size_type _Newsize = _STD distance(_First, _Last);
; 1339 : 
; 1340 : 		if (capacity() < _Newsize)
; 1341 : 			{	// need more room, try to get it
; 1342 : 			size_type _Newcapacity = _Grow_to(_Newsize);
; 1343 : 			_Tidy();
; 1344 : 			_Buy(_Newcapacity);
; 1345 : 			}
; 1346 : 
; 1347 : 		this->_Mylast() = _Ucopy(_First, _Last, this->_Myfirst());
; 1348 : 		}
; 1349 : 
; 1350 : 	void assign(size_type _Count, const value_type& _Val)
; 1351 : 		{	// assign _Count * _Val
; 1352 : 		clear();
; 1353 : 		insert(begin(), _Count, _Val);
; 1354 : 		}
; 1355 : 
; 1356 : 	iterator insert(const_iterator _Where, const _Ty& _Val)
; 1357 : 		{	// insert _Val at _Where
; 1358 : 		return (_Insert_n(_Where, (size_type)1, _Val));
; 1359 : 		}
; 1360 : 
; 1361 : 	iterator insert(const_iterator _Where, size_type _Count,
; 1362 : 		const _Ty& _Val)
; 1363 : 		{	// insert _Count * _Val at _Where
; 1364 : 		return (_Insert_n(_Where, _Count, _Val));
; 1365 : 		}
; 1366 : 
; 1367 : 	template<class _Iter>
; 1368 : 		typename enable_if<_Is_iterator<_Iter>::value,
; 1369 : 			iterator>::type
; 1370 : 		insert(const_iterator _Where, _Iter _First, _Iter _Last)
; 1371 : 		{	// insert [_First, _Last) at _Where
; 1372 : 		size_type _Off = _VIPTR(_Where) - this->_Myfirst();
; 1373 : 		_Insert(_Where, _First, _Last, _Iter_cat(_First));
; 1374 : 		return (begin() + _Off);
; 1375 : 		}
; 1376 : 
; 1377 : 	template<class _Iter>
; 1378 : 		void _Insert(const_iterator _Where,
; 1379 : 			_Iter _First, _Iter _Last,
; 1380 : 				input_iterator_tag)
; 1381 : 		{	// insert [_First, _Last) at _Where, input iterators
; 1382 : 		size_type _Off = _VIPTR(_Where) - this->_Myfirst();
; 1383 : 
; 1384 :  #if _ITERATOR_DEBUG_LEVEL == 2
; 1385 : 		if (size() < _Off)
; 1386 : 			_DEBUG_ERROR("vector insert iterator outside range");
; 1387 :  #endif /* _ITERATOR_DEBUG_LEVEL == 2 */
; 1388 : 
; 1389 : 		if (_First != _Last)
; 1390 : 			{	// worth doing, gather at end and rotate into place
; 1391 : 			size_type _Oldsize = size();
; 1392 : 
; 1393 : 			_TRY_BEGIN
; 1394 : 			for (; _First != _Last; ++_First)
; 1395 : 				push_back(*_First);	// append
; 1396 : 
; 1397 : 			_CATCH_ALL
; 1398 : 			erase(begin() + _Oldsize, end());
; 1399 : 			_RERAISE;
; 1400 : 			_CATCH_END
; 1401 : 
; 1402 : 			_STD rotate(begin() + _Off, begin() + _Oldsize, end());
; 1403 : 			}
; 1404 : 		}
; 1405 : 
; 1406 : 	template<class _Iter>
; 1407 : 		void _Insert(const_iterator _Where,
; 1408 : 			_Iter _First, _Iter _Last,
; 1409 : 				forward_iterator_tag)
; 1410 : 		{	// insert [_First, _Last) at _Where, forward iterators
; 1411 :  #if _ITERATOR_DEBUG_LEVEL == 2
; 1412 : 		if (_VICONT(_Where) != &this->_Get_data()
; 1413 : 			|| _VIPTR(_Where) < this->_Myfirst()
; 1414 : 			|| this->_Mylast() < _VIPTR(_Where))
; 1415 : 			_DEBUG_ERROR("vector insert iterator outside range");
; 1416 : 		_DEBUG_RANGE(_First, _Last);
; 1417 :  #endif /* _ITERATOR_DEBUG_LEVEL == 2 */
; 1418 : 
; 1419 : 		size_type _Count = 0;
; 1420 : 		_Distance(_First, _Last, _Count);
; 1421 : 
; 1422 : 		if (_Count == 0)
; 1423 : 			;
; 1424 : 		else if (_Unused_capacity() < _Count)
; 1425 : 			{	// not enough room, reallocate
; 1426 : 			if (max_size() - size() < _Count)
; 1427 : 				_Xlen();	// result too long
; 1428 : 
; 1429 : 			size_type _Capacity = _Grow_to(size() + _Count);
; 1430 : 			pointer _Newvec = this->_Getal().allocate(_Capacity);
; 1431 : 			pointer _Ptr = _Newvec;
; 1432 : 
; 1433 : 			_TRY_BEGIN
; 1434 : 			_Ptr = _Umove(this->_Myfirst(), _VIPTR(_Where),
; 1435 : 				_Newvec);	// copy prefix
; 1436 : 			_Ptr = _Ucopy(_First, _Last, _Ptr);	// add new stuff
; 1437 : 			_Umove(_VIPTR(_Where), this->_Mylast(),
; 1438 : 				_Ptr);	// copy suffix
; 1439 : 			_CATCH_ALL
; 1440 : 			_Destroy(_Newvec, _Ptr);
; 1441 : 			this->_Getal().deallocate(_Newvec, _Capacity);
; 1442 : 			_RERAISE;
; 1443 : 			_CATCH_END
; 1444 : 
; 1445 : 			_Count += size();
; 1446 : 			if (this->_Myfirst() != pointer())
; 1447 : 				{	// destroy and deallocate old array
; 1448 : 				_Destroy(this->_Myfirst(), this->_Mylast());
; 1449 : 				this->_Getal().deallocate(this->_Myfirst(),
; 1450 : 					this->_Myend() - this->_Myfirst());
; 1451 : 				}
; 1452 : 
; 1453 : 			this->_Orphan_all();
; 1454 : 			this->_Myend() = _Newvec + _Capacity;
; 1455 : 			this->_Mylast() = _Newvec + _Count;
; 1456 : 			this->_Myfirst() = _Newvec;
; 1457 : 			}
; 1458 : 		else
; 1459 : 			{	// new stuff fits, append and rotate into place
; 1460 : 			_Ucopy(_First, _Last, this->_Mylast());
; 1461 : 			_STD rotate(_VIPTR(_Where), this->_Mylast(),
; 1462 : 				this->_Mylast() + _Count);
; 1463 : 			this->_Mylast() += _Count;
; 1464 : 			_Orphan_range(_VIPTR(_Where), this->_Mylast());
; 1465 : 			}
; 1466 : 		}
; 1467 : 
; 1468 :  #if _ITERATOR_DEBUG_LEVEL == 2
; 1469 : 	iterator erase(const_iterator _Where)
; 1470 : 		{	// erase element at where
; 1471 : 		if (_VICONT(_Where) != &this->_Get_data()
; 1472 : 			|| _VIPTR(_Where) < this->_Myfirst()
; 1473 : 			|| this->_Mylast() <= _VIPTR(_Where))
; 1474 : 			_DEBUG_ERROR("vector erase iterator outside range");
; 1475 : 		_Move(_VIPTR(_Where) + 1, this->_Mylast(), _VIPTR(_Where));
; 1476 : 		_Destroy(this->_Mylast() - 1, this->_Mylast());
; 1477 : 		_Orphan_range(_VIPTR(_Where), this->_Mylast());
; 1478 : 		--this->_Mylast();
; 1479 : 		return (_Make_iter(_Where));
; 1480 : 		}
; 1481 : 
; 1482 :  #else /* _ITERATOR_DEBUG_LEVEL == 2 */
; 1483 : 	iterator erase(const_iterator _Where)
; 1484 : 		{	// erase element at where
; 1485 : 		_Move(_VIPTR(_Where) + 1, this->_Mylast(),
; 1486 : 			_VIPTR(_Where));
; 1487 : 		_Destroy(this->_Mylast() - 1, this->_Mylast());
; 1488 : 		--this->_Mylast();
; 1489 : 		return (_Make_iter(_Where));
; 1490 : 		}
; 1491 :  #endif /* _ITERATOR_DEBUG_LEVEL == 2 */
; 1492 : 
; 1493 : 	iterator erase(const_iterator _First_arg,
; 1494 : 		const_iterator _Last_arg)
; 1495 : 		{	// erase [_First, _Last)
; 1496 : 		if (_First_arg == begin() && _Last_arg == end())
; 1497 : 			clear();
; 1498 : 		else if (_First_arg != _Last_arg)
; 1499 : 			{	// clear partial
; 1500 : 			iterator _First = _Make_iter(_First_arg);
; 1501 : 			iterator _Last = _Make_iter(_Last_arg);
; 1502 : 
; 1503 : 			if (_First != _Last)
; 1504 : 				{	// worth doing, copy down over hole
; 1505 :  #if _ITERATOR_DEBUG_LEVEL == 2
; 1506 : 				if (_Last < _First || _VICONT(_First) != &this->_Get_data()
; 1507 : 					|| _VIPTR(_First) < this->_Myfirst()
; 1508 : 					|| this->_Mylast() < _VIPTR(_Last))
; 1509 : 					_DEBUG_ERROR("vector erase iterator outside range");
; 1510 : 				pointer _Ptr = _Move(_VIPTR(_Last), this->_Mylast(),
; 1511 : 					_VIPTR(_First));
; 1512 : 				_Orphan_range(_VIPTR(_First), this->_Mylast());
; 1513 : 
; 1514 :  #else /* _ITERATOR_DEBUG_LEVEL == 2 */
; 1515 : 				pointer _Ptr = _Move(_VIPTR(_Last), this->_Mylast(),
; 1516 : 					_VIPTR(_First));
; 1517 :  #endif /* _ITERATOR_DEBUG_LEVEL == 2 */
; 1518 : 
; 1519 : 				_Destroy(_Ptr, this->_Mylast());
; 1520 : 				this->_Mylast() = _Ptr;
; 1521 : 				}
; 1522 : 			}
; 1523 : 		return (_Make_iter(_First_arg));
; 1524 : 		}
; 1525 : 
; 1526 : 	void _Pop_back_n(size_type _Count)
; 1527 : 		{	// erase _Count elements at end
; 1528 : 		pointer _Ptr = this->_Mylast() - _Count;
; 1529 : 
; 1530 :  #if _ITERATOR_DEBUG_LEVEL == 2
; 1531 : 		_Orphan_range(_Ptr, this->_Mylast());
; 1532 :  #endif /* _ITERATOR_DEBUG_LEVEL == 2 */
; 1533 : 
; 1534 : 		_Destroy(_Ptr, this->_Mylast());
; 1535 : 		this->_Mylast() = _Ptr;
; 1536 : 		}
; 1537 : 
; 1538 : 	void clear() _NOEXCEPT
; 1539 : 		{	// erase all
; 1540 : 		this->_Orphan_all();
; 1541 : 		_Destroy(this->_Myfirst(), this->_Mylast());
; 1542 : 		this->_Mylast() = this->_Myfirst();
; 1543 : 		}
; 1544 : 
; 1545 : 	void swap(_Myt& _Right)
; 1546 : 		_NOEXCEPT_OP(_Alty::propagate_on_container_swap::value
; 1547 : 			|| _Alty::is_always_equal::value)
; 1548 : 		{	// exchange contents with _Right
; 1549 : 		if (this == &_Right)
; 1550 : 			;	// same object, do nothing
; 1551 : 		else if (this->_Getal() == _Right._Getal())
; 1552 : 			{	// same allocator, swap control information
; 1553 : 			this->_Swap_all(_Right);
; 1554 : 			_Swap_adl(this->_Myfirst(), _Right._Myfirst());
; 1555 : 			_Swap_adl(this->_Mylast(), _Right._Mylast());
; 1556 : 			_Swap_adl(this->_Myend(), _Right._Myend());
; 1557 : 			}
; 1558 : 
; 1559 : 		else if (_Alty::propagate_on_container_swap::value)
; 1560 : 			{	// swap allocators and control information
; 1561 : 			this->_Swap_alloc(_Right);
; 1562 : 			_Swap_adl(this->_Myfirst(), _Right._Myfirst());
; 1563 : 			_Swap_adl(this->_Mylast(), _Right._Mylast());
; 1564 : 			_Swap_adl(this->_Myend(), _Right._Myend());
; 1565 : 			}
; 1566 : 
; 1567 : 		else
; 1568 : 			{	// containers are incompatible
; 1569 :  #if _ITERATOR_DEBUG_LEVEL == 2
; 1570 : 			_DEBUG_ERROR("vector containers incompatible for swap");
; 1571 : 
; 1572 :  #else /* ITERATOR_DEBUG_LEVEL == 2 */
; 1573 : 			_XSTD terminate();
; 1574 :  #endif /* ITERATOR_DEBUG_LEVEL == 2 */
; 1575 : 			}
; 1576 : 		}
; 1577 : 
; 1578 : protected:
; 1579 : 	bool _Buy(size_type _Capacity)
; 1580 : 		{	// allocate array with _Capacity elements
; 1581 : 		this->_Myfirst() = pointer();
; 1582 : 		this->_Mylast() = pointer();
; 1583 : 		this->_Myend() = pointer();
; 1584 : 
; 1585 : 		if (_Capacity == 0)
; 1586 : 			return (false);
; 1587 : 		else if (max_size() < _Capacity)
; 1588 : 			_Xlen();	// result too long
; 1589 : 		else
; 1590 : 			{	// nonempty array, allocate storage
; 1591 : 			this->_Myfirst() = this->_Getal().allocate(_Capacity);
; 1592 : 			this->_Mylast() = this->_Myfirst();
; 1593 : 			this->_Myend() = this->_Myfirst() + _Capacity;
; 1594 : 			}
; 1595 : 		return (true);
; 1596 : 		}
; 1597 : 
; 1598 : 	void _Destroy(pointer _First, pointer _Last)
; 1599 : 		{	// destroy [_First, _Last) using allocator
; 1600 : 		_Destroy_range(_First, _Last, this->_Getal());
; 1601 : 		}
; 1602 : 
; 1603 : 	size_type _Grow_to(size_type _Count) const
; 1604 : 		{	// grow by 50% or at least to _Count
; 1605 : 		size_type _Capacity = capacity();
; 1606 : 
; 1607 : 		_Capacity = max_size() - _Capacity / 2 < _Capacity

  00035	8b c7		 mov	 eax, edi
  00037	d1 e8		 shr	 eax, 1
  00039	2b d8		 sub	 ebx, eax
  0003b	3b df		 cmp	 ebx, edi
  0003d	8d 0c 38	 lea	 ecx, DWORD PTR [eax+edi]
  00040	b8 00 00 00 00	 mov	 eax, 0
  00045	0f 42 c8	 cmovb	 ecx, eax

; 1608 : 			? 0 : _Capacity + _Capacity / 2;	// try to grow by 50%
; 1609 : 		if (_Capacity < _Count)

  00048	3b ca		 cmp	 ecx, edx
  0004a	0f 42 ca	 cmovb	 ecx, edx

; 1649 : 				_Xlen();
; 1650 : 			_Reallocate(_Grow_to(size() + _Count));

  0004d	51		 push	 ecx
  0004e	8b ce		 mov	 ecx, esi
  00050	e8 00 00 00 00	 call	 ?_Reallocate@?$vector@UExtraClassAttack@@V?$allocator@UExtraClassAttack@@@std@@@std@@IAEXI@Z ; std::vector<ExtraClassAttack,std::allocator<ExtraClassAttack> >::_Reallocate
  00055	5b		 pop	 ebx
$LN2@Reserve:
  00056	5f		 pop	 edi
  00057	5e		 pop	 esi

; 1651 : 			}
; 1652 : 		}

  00058	5d		 pop	 ebp
  00059	c2 04 00	 ret	 4
$LN134@Reserve:

; 1653 : 
; 1654 : 	void _Tidy()
; 1655 : 		{	// free all storage
; 1656 : 		if (this->_Myfirst() != pointer())
; 1657 : 			{	// something to free, destroy and deallocate it
; 1658 : 			this->_Orphan_all();
; 1659 : 			_Destroy(this->_Myfirst(), this->_Mylast());
; 1660 : 			this->_Getal().deallocate(this->_Myfirst(),
; 1661 : 				this->_Myend() - this->_Myfirst());
; 1662 : 			this->_Myfirst() = pointer();
; 1663 : 			this->_Mylast() = pointer();
; 1664 : 			this->_Myend() = pointer();
; 1665 : 			}
; 1666 : 		}
; 1667 : 
; 1668 : 	template<class _Iter>
; 1669 : 		pointer _Ucopy(_Iter _First, _Iter _Last, pointer _Ptr)
; 1670 : 		{	// copy initializing [_First, _Last), using allocator
; 1671 : 		return (_Uninitialized_copy(_First, _Last,
; 1672 : 			_Ptr, this->_Getal()));
; 1673 : 		}
; 1674 : 
; 1675 : 	template<class _Iter>
; 1676 : 		pointer _Umove(_Iter _First, _Iter _Last, pointer _Ptr)
; 1677 : 		{	// move initializing [_First, _Last), using allocator
; 1678 : 		return (_Uninitialized_move(_First, _Last,
; 1679 : 			_Ptr, this->_Getal()));
; 1680 : 		}
; 1681 : 
; 1682 : 	iterator _Insert_n(const_iterator _Where,
; 1683 : 		size_type _Count, const value_type& _Val)
; 1684 : 		{	// insert _Count * _Val at _Where
; 1685 :  #if _ITERATOR_DEBUG_LEVEL == 2
; 1686 : 		if (_VICONT(_Where) != &this->_Get_data()
; 1687 : 			|| _VIPTR(_Where) < this->_Myfirst()
; 1688 : 			|| this->_Mylast() < _VIPTR(_Where))
; 1689 : 			_DEBUG_ERROR("vector insert iterator outside range");
; 1690 :  #endif /* _ITERATOR_DEBUG_LEVEL == 2 */
; 1691 : 
; 1692 : 		size_type _Off = _VIPTR(_Where) - this->_Myfirst();
; 1693 : 		if (_Count == 0)
; 1694 : 			;
; 1695 : 		else if (_Unused_capacity() < _Count)
; 1696 : 			{	// not enough room, reallocate
; 1697 : 			if (max_size() - size() < _Count)
; 1698 : 				_Xlen();	// result too long
; 1699 : 
; 1700 : 			size_type _Capacity = _Grow_to(size() + _Count);
; 1701 : 			pointer _Newvec = this->_Getal().allocate(_Capacity);
; 1702 : 			size_type _Whereoff = _VIPTR(_Where) - this->_Myfirst();
; 1703 : 			int _Ncopied = 0;
; 1704 : 
; 1705 : 			_TRY_BEGIN
; 1706 : 			_Ufill(_Newvec + _Whereoff, _Count,
; 1707 : 				_STD addressof(_Val));	// add new stuff
; 1708 : 			++_Ncopied;
; 1709 : 			_Umove(this->_Myfirst(), _VIPTR(_Where),
; 1710 : 				_Newvec);	// copy prefix
; 1711 : 			++_Ncopied;
; 1712 : 			_Umove(_VIPTR(_Where), this->_Mylast(),
; 1713 : 				_Newvec + (_Whereoff + _Count));	// copy suffix
; 1714 : 			_CATCH_ALL
; 1715 : 			if (1 < _Ncopied)
; 1716 : 				_Destroy(_Newvec, _Newvec + _Whereoff);
; 1717 : 			if (0 < _Ncopied)
; 1718 : 				_Destroy(_Newvec + _Whereoff, _Newvec + _Whereoff + _Count);
; 1719 : 			this->_Getal().deallocate(_Newvec, _Capacity);
; 1720 : 			_RERAISE;
; 1721 : 			_CATCH_END
; 1722 : 
; 1723 : 			_Count += size();
; 1724 : 			if (this->_Myfirst() != pointer())
; 1725 : 				{	// destroy and deallocate old array
; 1726 : 				_Destroy(this->_Myfirst(), this->_Mylast());
; 1727 : 				this->_Getal().deallocate(this->_Myfirst(),
; 1728 : 					this->_Myend() - this->_Myfirst());
; 1729 : 				}
; 1730 : 
; 1731 : 			this->_Orphan_all();
; 1732 : 			this->_Myend() = _Newvec + _Capacity;
; 1733 : 			this->_Mylast() = _Newvec + _Count;
; 1734 : 			this->_Myfirst() = _Newvec;
; 1735 : 			}
; 1736 : 		else if ((size_type)(this->_Mylast() - _VIPTR(_Where))
; 1737 : 			< _Count)
; 1738 : 			{	// new stuff spills off end
; 1739 : 			value_type _Tmp = _Val;	// in case _Val is in sequence
; 1740 : 
; 1741 : 			_Umove(_VIPTR(_Where), this->_Mylast(),
; 1742 : 				_VIPTR(_Where) + _Count);	// copy suffix
; 1743 : 
; 1744 : 			_TRY_BEGIN
; 1745 : 			_Ufill(this->_Mylast(),
; 1746 : 				_Count - (this->_Mylast() - _VIPTR(_Where)),
; 1747 : 				_STD addressof(_Tmp));	// insert new stuff off end
; 1748 : 			_CATCH_ALL
; 1749 : 			_Destroy(_VIPTR(_Where) + _Count,
; 1750 : 				this->_Mylast() + _Count);
; 1751 : 			_RERAISE;
; 1752 : 			_CATCH_END
; 1753 : 
; 1754 : 			this->_Mylast() += _Count;
; 1755 : 			_Orphan_range(_VIPTR(_Where), this->_Mylast());
; 1756 : 			_STD fill(_VIPTR(_Where), this->_Mylast() - _Count,
; 1757 : 				_Tmp);	// insert up to old end
; 1758 : 			}
; 1759 : 		else
; 1760 : 			{	// new stuff can all be assigned
; 1761 : 			value_type _Tmp = _Val;	// in case _Val is in sequence
; 1762 : 
; 1763 : 			pointer _Oldend = this->_Mylast();
; 1764 : 			this->_Mylast() = _Umove(_Oldend - _Count, _Oldend,
; 1765 : 				this->_Mylast());	// copy suffix
; 1766 : 
; 1767 : 			_Orphan_range(_VIPTR(_Where), this->_Mylast());
; 1768 : 			_Move_backward(_VIPTR(_Where), _Oldend - _Count,
; 1769 : 				_Oldend);	// copy hole
; 1770 : 			_STD fill(_VIPTR(_Where),
; 1771 : 				_VIPTR(_Where) + _Count, _Tmp);	// insert into hole
; 1772 : 			}
; 1773 : 		return (begin() + _Off);
; 1774 : 		}
; 1775 : 
; 1776 : 	pointer _Ufill(pointer _Ptr, size_type _Count, const value_type *_Pval)
; 1777 : 		{	// copy initializing _Count * _Val, using allocator
; 1778 : 		_Uninitialized_fill_n(_Ptr, _Count, _Pval, this->_Getal());
; 1779 : 		return (_Ptr + _Count);
; 1780 : 		}
; 1781 : 
; 1782 : 	[[noreturn]] void _Xlen() const
; 1783 : 		{	// report a length_error
; 1784 : 		_Xlength_error("vector<T> too long");

  0005c	68 00 00 00 00	 push	 OFFSET ??_C@_0BD@OLBABOEK@vector?$DMT?$DO?5too?5long?$AA@
  00061	e8 00 00 00 00	 call	 ?_Xlength_error@std@@YAXPBD@Z ; std::_Xlength_error
$LN136@Reserve:
$LN133@Reserve:
  00066	cc		 int	 3
?_Reserve@?$vector@UExtraClassAttack@@V?$allocator@UExtraClassAttack@@@std@@@std@@IAEXI@Z ENDP ; std::vector<ExtraClassAttack,std::allocator<ExtraClassAttack> >::_Reserve
_TEXT	ENDS
; Function compile flags: /Ogtp
; File c:\program files (x86)\microsoft visual studio 14.0\vc\include\vector
; File c:\program files (x86)\microsoft visual studio 14.0\vc\include\xmemory0
; File c:\program files (x86)\microsoft visual studio 14.0\vc\include\xmemory
; File c:\program files (x86)\microsoft visual studio 14.0\vc\include\vector
; File c:\program files (x86)\microsoft visual studio 14.0\vc\include\xmemory
; File c:\program files (x86)\microsoft visual studio 14.0\vc\include\vector
; File c:\program files (x86)\microsoft visual studio 14.0\vc\include\xmemory
; File c:\program files (x86)\microsoft visual studio 14.0\vc\include\vector
; File c:\program files (x86)\microsoft visual studio 14.0\vc\include\xmemory
; File c:\program files (x86)\microsoft visual studio 14.0\vc\include\vector
;	COMDAT ?_Reallocate@?$vector@UExtraClassAttack@@V?$allocator@UExtraClassAttack@@@std@@@std@@IAEXI@Z
_TEXT	SEGMENT
_this$ = -24						; size = 4
__Ptr$ = -20						; size = 4
__$EHRec$ = -16						; size = 16
__Cat$2 = 8						; size = 1
__Count$ = 8						; size = 4
?_Reallocate@?$vector@UExtraClassAttack@@V?$allocator@UExtraClassAttack@@@std@@@std@@IAEXI@Z PROC ; std::vector<ExtraClassAttack,std::allocator<ExtraClassAttack> >::_Reallocate, COMDAT
; _this$ = ecx

; 1620 : 		{	// move to array of exactly _Count elements

  00000	55		 push	 ebp
  00001	8b ec		 mov	 ebp, esp
  00003	6a ff		 push	 -1
  00005	68 00 00 00 00	 push	 __ehhandler$?_Reallocate@?$vector@UExtraClassAttack@@V?$allocator@UExtraClassAttack@@@std@@@std@@IAEXI@Z
  0000a	64 a1 00 00 00
	00		 mov	 eax, DWORD PTR fs:0
  00010	50		 push	 eax
  00011	83 ec 0c	 sub	 esp, 12			; 0000000cH
  00014	53		 push	 ebx
  00015	56		 push	 esi
  00016	57		 push	 edi
  00017	a1 00 00 00 00	 mov	 eax, DWORD PTR ___security_cookie
  0001c	33 c5		 xor	 eax, ebp
  0001e	50		 push	 eax
  0001f	8d 45 f4	 lea	 eax, DWORD PTR __$EHRec$[ebp+4]
  00022	64 a3 00 00 00
	00		 mov	 DWORD PTR fs:0, eax
  00028	89 65 f0	 mov	 DWORD PTR __$EHRec$[ebp], esp
  0002b	8b f1		 mov	 esi, ecx
  0002d	89 75 e8	 mov	 DWORD PTR _this$[ebp], esi
; File c:\program files (x86)\microsoft visual studio 14.0\vc\include\xmemory0

; 898  : 		return (_Mybase::allocate(_Count));

  00030	ff 75 08	 push	 DWORD PTR __Count$[ebp]
  00033	e8 00 00 00 00	 call	 ?allocate@?$allocator@UExtraClassAttack@@@std@@QAEPAUExtraClassAttack@@I@Z ; std::allocator<ExtraClassAttack>::allocate
; File c:\program files (x86)\microsoft visual studio 14.0\vc\include\xmemory

; 481  : 	return (_Uninit_move(_First, _Last, _Dest, _Al,

  00038	ff 75 08	 push	 DWORD PTR __Cat$2[ebp]
; File c:\program files (x86)\microsoft visual studio 14.0\vc\include\vector

; 1621 : 		pointer _Ptr = this->_Getal().allocate(_Count);

  0003b	8b f8		 mov	 edi, eax

; 1622 : 
; 1623 : 		_TRY_BEGIN

  0003d	c7 45 fc 00 00
	00 00		 mov	 DWORD PTR __$EHRec$[ebp+12], 0
; File c:\program files (x86)\microsoft visual studio 14.0\vc\include\xmemory

; 481  : 	return (_Uninit_move(_First, _Last, _Dest, _Al,

  00044	6a 00		 push	 0
  00046	56		 push	 esi
  00047	57		 push	 edi
  00048	ff 76 04	 push	 DWORD PTR [esi+4]
; File c:\program files (x86)\microsoft visual studio 14.0\vc\include\vector

; 1621 : 		pointer _Ptr = this->_Getal().allocate(_Count);

  0004b	89 7d ec	 mov	 DWORD PTR __Ptr$[ebp], edi
; File c:\program files (x86)\microsoft visual studio 14.0\vc\include\xmemory

; 481  : 	return (_Uninit_move(_First, _Last, _Dest, _Al,

  0004e	ff 36		 push	 DWORD PTR [esi]
  00050	e8 00 00 00 00	 call	 ??$_Uninit_move@PAUExtraClassAttack@@PAU1@V?$allocator@UExtraClassAttack@@@std@@U1@@std@@YAPAUExtraClassAttack@@PAU1@00AAU?$_Wrap_alloc@V?$allocator@UExtraClassAttack@@@std@@@0@0U_Nonscalar_ptr_iterator_tag@0@@Z ; std::_Uninit_move<ExtraClassAttack *,ExtraClassAttack *,std::allocator<ExtraClassAttack>,ExtraClassAttack>
; File c:\program files (x86)\microsoft visual studio 14.0\vc\include\vector

; 1179 : 		return (this->_Mylast() - this->_Myfirst());

  00055	8b 0e		 mov	 ecx, DWORD PTR [esi]
; File c:\program files (x86)\microsoft visual studio 14.0\vc\include\xmemory

; 481  : 	return (_Uninit_move(_First, _Last, _Dest, _Al,

  00057	83 c4 18	 add	 esp, 24			; 00000018H
; File c:\program files (x86)\microsoft visual studio 14.0\vc\include\vector

; 1179 : 		return (this->_Mylast() - this->_Myfirst());

  0005a	8b 5e 04	 mov	 ebx, DWORD PTR [esi+4]
  0005d	2b d9		 sub	 ebx, ecx
  0005f	c1 fb 03	 sar	 ebx, 3

; 1628 : 		_CATCH_END
; 1629 : 
; 1630 : 		size_type _Size = size();
; 1631 : 		if (this->_Myfirst() != pointer())

  00062	85 c9		 test	 ecx, ecx
  00064	74 11		 je	 SHORT $LN3@Reallocate

; 1632 : 			{	// destroy and deallocate old array
; 1633 : 			_Destroy(this->_Myfirst(), this->_Mylast());
; 1634 : 			this->_Getal().deallocate(this->_Myfirst(),

  00066	8b 46 08	 mov	 eax, DWORD PTR [esi+8]
  00069	2b c1		 sub	 eax, ecx
  0006b	c1 f8 03	 sar	 eax, 3
  0006e	50		 push	 eax
  0006f	51		 push	 ecx
  00070	8b ce		 mov	 ecx, esi
  00072	e8 00 00 00 00	 call	 ?deallocate@?$_Wrap_alloc@V?$allocator@UExtraClassAttack@@@std@@@std@@QAEXPAUExtraClassAttack@@I@Z ; std::_Wrap_alloc<std::allocator<ExtraClassAttack> >::deallocate
$LN3@Reallocate:

; 1635 : 				this->_Myend() - this->_Myfirst());
; 1636 : 			}
; 1637 : 
; 1638 : 		this->_Orphan_all();
; 1639 : 		this->_Myend() = _Ptr + _Count;

  00077	8b 45 08	 mov	 eax, DWORD PTR __Count$[ebp]
  0007a	8d 04 c7	 lea	 eax, DWORD PTR [edi+eax*8]
  0007d	89 46 08	 mov	 DWORD PTR [esi+8], eax

; 1640 : 		this->_Mylast() = _Ptr + _Size;

  00080	8d 04 df	 lea	 eax, DWORD PTR [edi+ebx*8]
  00083	89 46 04	 mov	 DWORD PTR [esi+4], eax

; 1641 : 		this->_Myfirst() = _Ptr;

  00086	89 3e		 mov	 DWORD PTR [esi], edi

; 1642 : 		}

  00088	8b 4d f4	 mov	 ecx, DWORD PTR __$EHRec$[ebp+4]
  0008b	64 89 0d 00 00
	00 00		 mov	 DWORD PTR fs:0, ecx
  00092	59		 pop	 ecx
  00093	5f		 pop	 edi
  00094	5e		 pop	 esi
  00095	5b		 pop	 ebx
  00096	8b e5		 mov	 esp, ebp
  00098	5d		 pop	 ebp
  00099	c2 04 00	 ret	 4
__catch$?_Reallocate@?$vector@UExtraClassAttack@@V?$allocator@UExtraClassAttack@@@std@@@std@@IAEXI@Z$0:

; 1624 : 		_Umove(this->_Myfirst(), this->_Mylast(), _Ptr);
; 1625 : 		_CATCH_ALL
; 1626 : 		this->_Getal().deallocate(_Ptr, _Count);

  0009c	ff 75 08	 push	 DWORD PTR __Count$[ebp]
  0009f	8b 4d e8	 mov	 ecx, DWORD PTR _this$[ebp]
  000a2	ff 75 ec	 push	 DWORD PTR __Ptr$[ebp]
  000a5	e8 00 00 00 00	 call	 ?deallocate@?$_Wrap_alloc@V?$allocator@UExtraClassAttack@@@std@@@std@@QAEXPAUExtraClassAttack@@I@Z ; std::_Wrap_alloc<std::allocator<ExtraClassAttack> >::deallocate

; 1627 : 		_RERAISE;

  000aa	6a 00		 push	 0
  000ac	6a 00		 push	 0
  000ae	e8 00 00 00 00	 call	 __CxxThrowException@8
$LN175@Reallocate:
$LN174@Reallocate:
  000b3	cc		 int	 3
_TEXT	ENDS
;	COMDAT text$x
text$x	SEGMENT
__ehhandler$?_Reallocate@?$vector@UExtraClassAttack@@V?$allocator@UExtraClassAttack@@@std@@@std@@IAEXI@Z:
  00000	8b 54 24 08	 mov	 edx, DWORD PTR [esp+8]
  00004	8d 42 0c	 lea	 eax, DWORD PTR [edx+12]
  00007	8b 4a e4	 mov	 ecx, DWORD PTR [edx-28]
  0000a	33 c8		 xor	 ecx, eax
  0000c	e8 00 00 00 00	 call	 @__security_check_cookie@4
  00011	b8 00 00 00 00	 mov	 eax, OFFSET __ehfuncinfo$?_Reallocate@?$vector@UExtraClassAttack@@V?$allocator@UExtraClassAttack@@@std@@@std@@IAEXI@Z
  00016	e9 00 00 00 00	 jmp	 ___CxxFrameHandler3
text$x	ENDS
?_Reallocate@?$vector@UExtraClassAttack@@V?$allocator@UExtraClassAttack@@@std@@@std@@IAEXI@Z ENDP ; std::vector<ExtraClassAttack,std::allocator<ExtraClassAttack> >::_Reallocate
; Function compile flags: /Ogtp
; File c:\program files (x86)\microsoft visual studio 14.0\vc\include\vector
;	COMDAT ?_Inside@?$vector@UExtraClassAttack@@V?$allocator@UExtraClassAttack@@@std@@@std@@IBE_NPBUExtraClassAttack@@@Z
_TEXT	SEGMENT
__Ptr$ = 8						; size = 4
?_Inside@?$vector@UExtraClassAttack@@V?$allocator@UExtraClassAttack@@@std@@@std@@IBE_NPBUExtraClassAttack@@@Z PROC ; std::vector<ExtraClassAttack,std::allocator<ExtraClassAttack> >::_Inside, COMDAT
; _this$ = ecx

; 1615 : 		{	// test if _Ptr points inside vector

  00000	55		 push	 ebp
  00001	8b ec		 mov	 ebp, esp

; 1616 : 		return (_Ptr < this->_Mylast() && this->_Myfirst() <= _Ptr);

  00003	8b 45 08	 mov	 eax, DWORD PTR __Ptr$[ebp]
  00006	3b 41 04	 cmp	 eax, DWORD PTR [ecx+4]
  00009	73 0a		 jae	 SHORT $LN3@Inside
  0000b	39 01		 cmp	 DWORD PTR [ecx], eax
  0000d	77 06		 ja	 SHORT $LN3@Inside
  0000f	b0 01		 mov	 al, 1

; 1617 : 		}

  00011	5d		 pop	 ebp
  00012	c2 04 00	 ret	 4
$LN3@Inside:

; 1616 : 		return (_Ptr < this->_Mylast() && this->_Myfirst() <= _Ptr);

  00015	32 c0		 xor	 al, al

; 1617 : 		}

  00017	5d		 pop	 ebp
  00018	c2 04 00	 ret	 4
?_Inside@?$vector@UExtraClassAttack@@V?$allocator@UExtraClassAttack@@@std@@@std@@IBE_NPBUExtraClassAttack@@@Z ENDP ; std::vector<ExtraClassAttack,std::allocator<ExtraClassAttack> >::_Inside
_TEXT	ENDS
; Function compile flags: /Ogtp
; File c:\program files (x86)\microsoft visual studio 14.0\vc\include\vector
;	COMDAT ?_Grow_to@?$vector@UExtraClassAttack@@V?$allocator@UExtraClassAttack@@@std@@@std@@IBEII@Z
_TEXT	SEGMENT
__Count$ = 8						; size = 4
?_Grow_to@?$vector@UExtraClassAttack@@V?$allocator@UExtraClassAttack@@@std@@@std@@IBEII@Z PROC ; std::vector<ExtraClassAttack,std::allocator<ExtraClassAttack> >::_Grow_to, COMDAT
; _this$ = ecx

; 1604 : 		{	// grow by 50% or at least to _Count

  00000	55		 push	 ebp
  00001	8b ec		 mov	 ebp, esp
  00003	56		 push	 esi

; 1042 : 		return (this->_Myend() - this->_Myfirst());

  00004	8b 71 08	 mov	 esi, DWORD PTR [ecx+8]
  00007	2b 31		 sub	 esi, DWORD PTR [ecx]

; 1605 : 		size_type _Capacity = capacity();
; 1606 : 
; 1607 : 		_Capacity = max_size() - _Capacity / 2 < _Capacity

  00009	b9 ff ff ff 1f	 mov	 ecx, 536870911		; 1fffffffH

; 1042 : 		return (this->_Myend() - this->_Myfirst());

  0000e	c1 fe 03	 sar	 esi, 3

; 1605 : 		size_type _Capacity = capacity();
; 1606 : 
; 1607 : 		_Capacity = max_size() - _Capacity / 2 < _Capacity

  00011	8b c6		 mov	 eax, esi
  00013	d1 e8		 shr	 eax, 1
  00015	57		 push	 edi
  00016	2b c8		 sub	 ecx, eax
  00018	33 ff		 xor	 edi, edi
  0001a	3b ce		 cmp	 ecx, esi
  0001c	8d 14 30	 lea	 edx, DWORD PTR [eax+esi]
  0001f	0f 42 d7	 cmovb	 edx, edi

; 1608 : 			? 0 : _Capacity + _Capacity / 2;	// try to grow by 50%
; 1609 : 		if (_Capacity < _Count)

  00022	3b 55 08	 cmp	 edx, DWORD PTR __Count$[ebp]
  00025	5f		 pop	 edi
  00026	0f 42 55 08	 cmovb	 edx, DWORD PTR __Count$[ebp]

; 1610 : 			_Capacity = _Count;
; 1611 : 		return (_Capacity);

  0002a	8b c2		 mov	 eax, edx
  0002c	5e		 pop	 esi

; 1612 : 		}

  0002d	5d		 pop	 ebp
  0002e	c2 04 00	 ret	 4
?_Grow_to@?$vector@UExtraClassAttack@@V?$allocator@UExtraClassAttack@@@std@@@std@@IBEII@Z ENDP ; std::vector<ExtraClassAttack,std::allocator<ExtraClassAttack> >::_Grow_to
_TEXT	ENDS
; Function compile flags: /Ogtp
; File c:\program files (x86)\microsoft visual studio 14.0\vc\include\vector
;	COMDAT ?_Destroy@?$vector@UExtraClassAttack@@V?$allocator@UExtraClassAttack@@@std@@@std@@IAEXPAUExtraClassAttack@@0@Z
_TEXT	SEGMENT
__First$ = 8						; size = 4
__Last$ = 12						; size = 4
?_Destroy@?$vector@UExtraClassAttack@@V?$allocator@UExtraClassAttack@@@std@@@std@@IAEXPAUExtraClassAttack@@0@Z PROC ; std::vector<ExtraClassAttack,std::allocator<ExtraClassAttack> >::_Destroy, COMDAT
; _this$ = ecx

; 1600 : 		_Destroy_range(_First, _Last, this->_Getal());
; 1601 : 		}

  00000	c2 08 00	 ret	 8
?_Destroy@?$vector@UExtraClassAttack@@V?$allocator@UExtraClassAttack@@@std@@@std@@IAEXPAUExtraClassAttack@@0@Z ENDP ; std::vector<ExtraClassAttack,std::allocator<ExtraClassAttack> >::_Destroy
_TEXT	ENDS
; Function compile flags: /Ogtp
; File c:\program files (x86)\microsoft visual studio 14.0\vc\include\vector
; File c:\program files (x86)\microsoft visual studio 14.0\vc\include\utility
; File c:\program files (x86)\microsoft visual studio 14.0\vc\include\vector
;	COMDAT ?swap@?$vector@UExtraClassAttack@@V?$allocator@UExtraClassAttack@@@std@@@std@@QAEXAAV12@@Z
_TEXT	SEGMENT
__Right$ = 8						; size = 4
?swap@?$vector@UExtraClassAttack@@V?$allocator@UExtraClassAttack@@@std@@@std@@QAEXAAV12@@Z PROC ; std::vector<ExtraClassAttack,std::allocator<ExtraClassAttack> >::swap, COMDAT
; _this$ = ecx

; 1548 : 		{	// exchange contents with _Right

  00000	55		 push	 ebp
  00001	8b ec		 mov	 ebp, esp
  00003	56		 push	 esi
  00004	57		 push	 edi

; 1549 : 		if (this == &_Right)

  00005	8b 7d 08	 mov	 edi, DWORD PTR __Right$[ebp]
  00008	8b f1		 mov	 esi, ecx
  0000a	3b f7		 cmp	 esi, edi
  0000c	74 20		 je	 SHORT $LN7@swap
; File c:\program files (x86)\microsoft visual studio 14.0\vc\include\utility

; 53   : 	_Left = _Move(_Right);

  0000e	8b 07		 mov	 eax, DWORD PTR [edi]
  00010	8b 16		 mov	 edx, DWORD PTR [esi]
  00012	89 06		 mov	 DWORD PTR [esi], eax

; 54   : 	_Right = _Move(_Tmp);

  00014	89 17		 mov	 DWORD PTR [edi], edx

; 52   : 	_Ty _Tmp = _Move(_Left);

  00016	8b 4e 04	 mov	 ecx, DWORD PTR [esi+4]

; 53   : 	_Left = _Move(_Right);

  00019	8b 47 04	 mov	 eax, DWORD PTR [edi+4]
  0001c	89 46 04	 mov	 DWORD PTR [esi+4], eax

; 54   : 	_Right = _Move(_Tmp);

  0001f	89 4f 04	 mov	 DWORD PTR [edi+4], ecx

; 52   : 	_Ty _Tmp = _Move(_Left);

  00022	8b 4e 08	 mov	 ecx, DWORD PTR [esi+8]

; 53   : 	_Left = _Move(_Right);

  00025	8b 47 08	 mov	 eax, DWORD PTR [edi+8]
  00028	89 46 08	 mov	 DWORD PTR [esi+8], eax

; 54   : 	_Right = _Move(_Tmp);

  0002b	89 4f 08	 mov	 DWORD PTR [edi+8], ecx
$LN7@swap:
  0002e	5f		 pop	 edi
  0002f	5e		 pop	 esi
; File c:\program files (x86)\microsoft visual studio 14.0\vc\include\vector

; 1576 : 		}

  00030	5d		 pop	 ebp
  00031	c2 04 00	 ret	 4
?swap@?$vector@UExtraClassAttack@@V?$allocator@UExtraClassAttack@@@std@@@std@@QAEXAAV12@@Z ENDP ; std::vector<ExtraClassAttack,std::allocator<ExtraClassAttack> >::swap
_TEXT	ENDS
; Function compile flags: /Ogtp
; File c:\program files (x86)\microsoft visual studio 14.0\vc\include\vector
;	COMDAT ?clear@?$vector@UExtraClassAttack@@V?$allocator@UExtraClassAttack@@@std@@@std@@QAEXXZ
_TEXT	SEGMENT
?clear@?$vector@UExtraClassAttack@@V?$allocator@UExtraClassAttack@@@std@@@std@@QAEXXZ PROC ; std::vector<ExtraClassAttack,std::allocator<ExtraClassAttack> >::clear, COMDAT
; _this$ = ecx

; 1540 : 		this->_Orphan_all();
; 1541 : 		_Destroy(this->_Myfirst(), this->_Mylast());
; 1542 : 		this->_Mylast() = this->_Myfirst();

  00000	8b 01		 mov	 eax, DWORD PTR [ecx]
  00002	89 41 04	 mov	 DWORD PTR [ecx+4], eax

; 1543 : 		}

  00005	c3		 ret	 0
?clear@?$vector@UExtraClassAttack@@V?$allocator@UExtraClassAttack@@@std@@@std@@QAEXXZ ENDP ; std::vector<ExtraClassAttack,std::allocator<ExtraClassAttack> >::clear
_TEXT	ENDS
; Function compile flags: /Ogtp
; File c:\program files (x86)\microsoft visual studio 14.0\vc\include\vector
; File c:\program files (x86)\microsoft visual studio 14.0\vc\include\xmemory0
; File c:\program files (x86)\microsoft visual studio 14.0\vc\include\vector
; File c:\program files (x86)\microsoft visual studio 14.0\vc\include\xmemory0
; File c:\program files (x86)\microsoft visual studio 14.0\vc\include\vector
;	COMDAT ?push_back@?$vector@UExtraClassAttack@@V?$allocator@UExtraClassAttack@@@std@@@std@@QAEXABUExtraClassAttack@@@Z
_TEXT	SEGMENT
__Val$ = 8						; size = 4
?push_back@?$vector@UExtraClassAttack@@V?$allocator@UExtraClassAttack@@@std@@@std@@QAEXABUExtraClassAttack@@@Z PROC ; std::vector<ExtraClassAttack,std::allocator<ExtraClassAttack> >::push_back, COMDAT
; _this$ = ecx

; 1274 : 		{	// insert element at end

  00000	55		 push	 ebp
  00001	8b ec		 mov	 ebp, esp
  00003	56		 push	 esi
  00004	8b f1		 mov	 esi, ecx
  00006	57		 push	 edi

; 1295 : 
; 1296 :  #if _ITERATOR_DEBUG_LEVEL == 2
; 1297 : 	void pop_back()
; 1298 : 		{	// erase element at end
; 1299 : 		if (empty())
; 1300 : 			_DEBUG_ERROR("vector empty before pop");
; 1301 : 		else
; 1302 : 			{	// erase last element
; 1303 : 			_Orphan_range(this->_Mylast() - 1, this->_Mylast());
; 1304 : 			this->_Getal().destroy(this->_Mylast() - 1);
; 1305 : 			--this->_Mylast();
; 1306 : 			}
; 1307 : 		}
; 1308 : 
; 1309 :  #else /* _ITERATOR_DEBUG_LEVEL == 2 */
; 1310 : 	void pop_back()
; 1311 : 		{	// erase element at end
; 1312 : 		this->_Getal().destroy(this->_Mylast() - 1);
; 1313 : 		--this->_Mylast();
; 1314 : 		}
; 1315 :  #endif /* _ITERATOR_DEBUG_LEVEL == 2 */
; 1316 : 
; 1317 : 	template<class _Iter>
; 1318 : 		typename enable_if<_Is_iterator<_Iter>::value,
; 1319 : 			void>::type
; 1320 : 		assign(_Iter _First, _Iter _Last)
; 1321 : 		{	// assign [_First, _Last)
; 1322 : 		clear();
; 1323 : 		_Assign(_First, _Last, _Iter_cat(_First));
; 1324 : 		}
; 1325 : 
; 1326 : 	template<class _Iter>
; 1327 : 		void _Assign(_Iter _First, _Iter _Last,
; 1328 : 			input_iterator_tag)
; 1329 : 		{	// assign [_First, _Last), input iterators
; 1330 : 		for (; _First != _Last; ++_First)
; 1331 : 			emplace_back(*_First);
; 1332 : 		}
; 1333 : 
; 1334 : 	template<class _Iter>
; 1335 : 		void _Assign(_Iter _First, _Iter _Last,
; 1336 : 			forward_iterator_tag)
; 1337 : 		{	// assign [_First, _Last), forward iterators
; 1338 : 		size_type _Newsize = _STD distance(_First, _Last);
; 1339 : 
; 1340 : 		if (capacity() < _Newsize)
; 1341 : 			{	// need more room, try to get it
; 1342 : 			size_type _Newcapacity = _Grow_to(_Newsize);
; 1343 : 			_Tidy();
; 1344 : 			_Buy(_Newcapacity);
; 1345 : 			}
; 1346 : 
; 1347 : 		this->_Mylast() = _Ucopy(_First, _Last, this->_Myfirst());
; 1348 : 		}
; 1349 : 
; 1350 : 	void assign(size_type _Count, const value_type& _Val)
; 1351 : 		{	// assign _Count * _Val
; 1352 : 		clear();
; 1353 : 		insert(begin(), _Count, _Val);
; 1354 : 		}
; 1355 : 
; 1356 : 	iterator insert(const_iterator _Where, const _Ty& _Val)
; 1357 : 		{	// insert _Val at _Where
; 1358 : 		return (_Insert_n(_Where, (size_type)1, _Val));
; 1359 : 		}
; 1360 : 
; 1361 : 	iterator insert(const_iterator _Where, size_type _Count,
; 1362 : 		const _Ty& _Val)
; 1363 : 		{	// insert _Count * _Val at _Where
; 1364 : 		return (_Insert_n(_Where, _Count, _Val));
; 1365 : 		}
; 1366 : 
; 1367 : 	template<class _Iter>
; 1368 : 		typename enable_if<_Is_iterator<_Iter>::value,
; 1369 : 			iterator>::type
; 1370 : 		insert(const_iterator _Where, _Iter _First, _Iter _Last)
; 1371 : 		{	// insert [_First, _Last) at _Where
; 1372 : 		size_type _Off = _VIPTR(_Where) - this->_Myfirst();
; 1373 : 		_Insert(_Where, _First, _Last, _Iter_cat(_First));
; 1374 : 		return (begin() + _Off);
; 1375 : 		}
; 1376 : 
; 1377 : 	template<class _Iter>
; 1378 : 		void _Insert(const_iterator _Where,
; 1379 : 			_Iter _First, _Iter _Last,
; 1380 : 				input_iterator_tag)
; 1381 : 		{	// insert [_First, _Last) at _Where, input iterators
; 1382 : 		size_type _Off = _VIPTR(_Where) - this->_Myfirst();
; 1383 : 
; 1384 :  #if _ITERATOR_DEBUG_LEVEL == 2
; 1385 : 		if (size() < _Off)
; 1386 : 			_DEBUG_ERROR("vector insert iterator outside range");
; 1387 :  #endif /* _ITERATOR_DEBUG_LEVEL == 2 */
; 1388 : 
; 1389 : 		if (_First != _Last)
; 1390 : 			{	// worth doing, gather at end and rotate into place
; 1391 : 			size_type _Oldsize = size();
; 1392 : 
; 1393 : 			_TRY_BEGIN
; 1394 : 			for (; _First != _Last; ++_First)
; 1395 : 				push_back(*_First);	// append
; 1396 : 
; 1397 : 			_CATCH_ALL
; 1398 : 			erase(begin() + _Oldsize, end());
; 1399 : 			_RERAISE;
; 1400 : 			_CATCH_END
; 1401 : 
; 1402 : 			_STD rotate(begin() + _Off, begin() + _Oldsize, end());
; 1403 : 			}
; 1404 : 		}
; 1405 : 
; 1406 : 	template<class _Iter>
; 1407 : 		void _Insert(const_iterator _Where,
; 1408 : 			_Iter _First, _Iter _Last,
; 1409 : 				forward_iterator_tag)
; 1410 : 		{	// insert [_First, _Last) at _Where, forward iterators
; 1411 :  #if _ITERATOR_DEBUG_LEVEL == 2
; 1412 : 		if (_VICONT(_Where) != &this->_Get_data()
; 1413 : 			|| _VIPTR(_Where) < this->_Myfirst()
; 1414 : 			|| this->_Mylast() < _VIPTR(_Where))
; 1415 : 			_DEBUG_ERROR("vector insert iterator outside range");
; 1416 : 		_DEBUG_RANGE(_First, _Last);
; 1417 :  #endif /* _ITERATOR_DEBUG_LEVEL == 2 */
; 1418 : 
; 1419 : 		size_type _Count = 0;
; 1420 : 		_Distance(_First, _Last, _Count);
; 1421 : 
; 1422 : 		if (_Count == 0)
; 1423 : 			;
; 1424 : 		else if (_Unused_capacity() < _Count)
; 1425 : 			{	// not enough room, reallocate
; 1426 : 			if (max_size() - size() < _Count)
; 1427 : 				_Xlen();	// result too long
; 1428 : 
; 1429 : 			size_type _Capacity = _Grow_to(size() + _Count);
; 1430 : 			pointer _Newvec = this->_Getal().allocate(_Capacity);
; 1431 : 			pointer _Ptr = _Newvec;
; 1432 : 
; 1433 : 			_TRY_BEGIN
; 1434 : 			_Ptr = _Umove(this->_Myfirst(), _VIPTR(_Where),
; 1435 : 				_Newvec);	// copy prefix
; 1436 : 			_Ptr = _Ucopy(_First, _Last, _Ptr);	// add new stuff
; 1437 : 			_Umove(_VIPTR(_Where), this->_Mylast(),
; 1438 : 				_Ptr);	// copy suffix
; 1439 : 			_CATCH_ALL
; 1440 : 			_Destroy(_Newvec, _Ptr);
; 1441 : 			this->_Getal().deallocate(_Newvec, _Capacity);
; 1442 : 			_RERAISE;
; 1443 : 			_CATCH_END
; 1444 : 
; 1445 : 			_Count += size();
; 1446 : 			if (this->_Myfirst() != pointer())
; 1447 : 				{	// destroy and deallocate old array
; 1448 : 				_Destroy(this->_Myfirst(), this->_Mylast());
; 1449 : 				this->_Getal().deallocate(this->_Myfirst(),
; 1450 : 					this->_Myend() - this->_Myfirst());
; 1451 : 				}
; 1452 : 
; 1453 : 			this->_Orphan_all();
; 1454 : 			this->_Myend() = _Newvec + _Capacity;
; 1455 : 			this->_Mylast() = _Newvec + _Count;
; 1456 : 			this->_Myfirst() = _Newvec;
; 1457 : 			}
; 1458 : 		else
; 1459 : 			{	// new stuff fits, append and rotate into place
; 1460 : 			_Ucopy(_First, _Last, this->_Mylast());
; 1461 : 			_STD rotate(_VIPTR(_Where), this->_Mylast(),
; 1462 : 				this->_Mylast() + _Count);
; 1463 : 			this->_Mylast() += _Count;
; 1464 : 			_Orphan_range(_VIPTR(_Where), this->_Mylast());
; 1465 : 			}
; 1466 : 		}
; 1467 : 
; 1468 :  #if _ITERATOR_DEBUG_LEVEL == 2
; 1469 : 	iterator erase(const_iterator _Where)
; 1470 : 		{	// erase element at where
; 1471 : 		if (_VICONT(_Where) != &this->_Get_data()
; 1472 : 			|| _VIPTR(_Where) < this->_Myfirst()
; 1473 : 			|| this->_Mylast() <= _VIPTR(_Where))
; 1474 : 			_DEBUG_ERROR("vector erase iterator outside range");
; 1475 : 		_Move(_VIPTR(_Where) + 1, this->_Mylast(), _VIPTR(_Where));
; 1476 : 		_Destroy(this->_Mylast() - 1, this->_Mylast());
; 1477 : 		_Orphan_range(_VIPTR(_Where), this->_Mylast());
; 1478 : 		--this->_Mylast();
; 1479 : 		return (_Make_iter(_Where));
; 1480 : 		}
; 1481 : 
; 1482 :  #else /* _ITERATOR_DEBUG_LEVEL == 2 */
; 1483 : 	iterator erase(const_iterator _Where)
; 1484 : 		{	// erase element at where
; 1485 : 		_Move(_VIPTR(_Where) + 1, this->_Mylast(),
; 1486 : 			_VIPTR(_Where));
; 1487 : 		_Destroy(this->_Mylast() - 1, this->_Mylast());
; 1488 : 		--this->_Mylast();
; 1489 : 		return (_Make_iter(_Where));
; 1490 : 		}
; 1491 :  #endif /* _ITERATOR_DEBUG_LEVEL == 2 */
; 1492 : 
; 1493 : 	iterator erase(const_iterator _First_arg,
; 1494 : 		const_iterator _Last_arg)
; 1495 : 		{	// erase [_First, _Last)
; 1496 : 		if (_First_arg == begin() && _Last_arg == end())
; 1497 : 			clear();
; 1498 : 		else if (_First_arg != _Last_arg)
; 1499 : 			{	// clear partial
; 1500 : 			iterator _First = _Make_iter(_First_arg);
; 1501 : 			iterator _Last = _Make_iter(_Last_arg);
; 1502 : 
; 1503 : 			if (_First != _Last)
; 1504 : 				{	// worth doing, copy down over hole
; 1505 :  #if _ITERATOR_DEBUG_LEVEL == 2
; 1506 : 				if (_Last < _First || _VICONT(_First) != &this->_Get_data()
; 1507 : 					|| _VIPTR(_First) < this->_Myfirst()
; 1508 : 					|| this->_Mylast() < _VIPTR(_Last))
; 1509 : 					_DEBUG_ERROR("vector erase iterator outside range");
; 1510 : 				pointer _Ptr = _Move(_VIPTR(_Last), this->_Mylast(),
; 1511 : 					_VIPTR(_First));
; 1512 : 				_Orphan_range(_VIPTR(_First), this->_Mylast());
; 1513 : 
; 1514 :  #else /* _ITERATOR_DEBUG_LEVEL == 2 */
; 1515 : 				pointer _Ptr = _Move(_VIPTR(_Last), this->_Mylast(),
; 1516 : 					_VIPTR(_First));
; 1517 :  #endif /* _ITERATOR_DEBUG_LEVEL == 2 */
; 1518 : 
; 1519 : 				_Destroy(_Ptr, this->_Mylast());
; 1520 : 				this->_Mylast() = _Ptr;
; 1521 : 				}
; 1522 : 			}
; 1523 : 		return (_Make_iter(_First_arg));
; 1524 : 		}
; 1525 : 
; 1526 : 	void _Pop_back_n(size_type _Count)
; 1527 : 		{	// erase _Count elements at end
; 1528 : 		pointer _Ptr = this->_Mylast() - _Count;
; 1529 : 
; 1530 :  #if _ITERATOR_DEBUG_LEVEL == 2
; 1531 : 		_Orphan_range(_Ptr, this->_Mylast());
; 1532 :  #endif /* _ITERATOR_DEBUG_LEVEL == 2 */
; 1533 : 
; 1534 : 		_Destroy(_Ptr, this->_Mylast());
; 1535 : 		this->_Mylast() = _Ptr;
; 1536 : 		}
; 1537 : 
; 1538 : 	void clear() _NOEXCEPT
; 1539 : 		{	// erase all
; 1540 : 		this->_Orphan_all();
; 1541 : 		_Destroy(this->_Myfirst(), this->_Mylast());
; 1542 : 		this->_Mylast() = this->_Myfirst();
; 1543 : 		}
; 1544 : 
; 1545 : 	void swap(_Myt& _Right)
; 1546 : 		_NOEXCEPT_OP(_Alty::propagate_on_container_swap::value
; 1547 : 			|| _Alty::is_always_equal::value)
; 1548 : 		{	// exchange contents with _Right
; 1549 : 		if (this == &_Right)
; 1550 : 			;	// same object, do nothing
; 1551 : 		else if (this->_Getal() == _Right._Getal())
; 1552 : 			{	// same allocator, swap control information
; 1553 : 			this->_Swap_all(_Right);
; 1554 : 			_Swap_adl(this->_Myfirst(), _Right._Myfirst());
; 1555 : 			_Swap_adl(this->_Mylast(), _Right._Mylast());
; 1556 : 			_Swap_adl(this->_Myend(), _Right._Myend());
; 1557 : 			}
; 1558 : 
; 1559 : 		else if (_Alty::propagate_on_container_swap::value)
; 1560 : 			{	// swap allocators and control information
; 1561 : 			this->_Swap_alloc(_Right);
; 1562 : 			_Swap_adl(this->_Myfirst(), _Right._Myfirst());
; 1563 : 			_Swap_adl(this->_Mylast(), _Right._Mylast());
; 1564 : 			_Swap_adl(this->_Myend(), _Right._Myend());
; 1565 : 			}
; 1566 : 
; 1567 : 		else
; 1568 : 			{	// containers are incompatible
; 1569 :  #if _ITERATOR_DEBUG_LEVEL == 2
; 1570 : 			_DEBUG_ERROR("vector containers incompatible for swap");
; 1571 : 
; 1572 :  #else /* ITERATOR_DEBUG_LEVEL == 2 */
; 1573 : 			_XSTD terminate();
; 1574 :  #endif /* ITERATOR_DEBUG_LEVEL == 2 */
; 1575 : 			}
; 1576 : 		}
; 1577 : 
; 1578 : protected:
; 1579 : 	bool _Buy(size_type _Capacity)
; 1580 : 		{	// allocate array with _Capacity elements
; 1581 : 		this->_Myfirst() = pointer();
; 1582 : 		this->_Mylast() = pointer();
; 1583 : 		this->_Myend() = pointer();
; 1584 : 
; 1585 : 		if (_Capacity == 0)
; 1586 : 			return (false);
; 1587 : 		else if (max_size() < _Capacity)
; 1588 : 			_Xlen();	// result too long
; 1589 : 		else
; 1590 : 			{	// nonempty array, allocate storage
; 1591 : 			this->_Myfirst() = this->_Getal().allocate(_Capacity);
; 1592 : 			this->_Mylast() = this->_Myfirst();
; 1593 : 			this->_Myend() = this->_Myfirst() + _Capacity;
; 1594 : 			}
; 1595 : 		return (true);
; 1596 : 		}
; 1597 : 
; 1598 : 	void _Destroy(pointer _First, pointer _Last)
; 1599 : 		{	// destroy [_First, _Last) using allocator
; 1600 : 		_Destroy_range(_First, _Last, this->_Getal());
; 1601 : 		}
; 1602 : 
; 1603 : 	size_type _Grow_to(size_type _Count) const
; 1604 : 		{	// grow by 50% or at least to _Count
; 1605 : 		size_type _Capacity = capacity();
; 1606 : 
; 1607 : 		_Capacity = max_size() - _Capacity / 2 < _Capacity
; 1608 : 			? 0 : _Capacity + _Capacity / 2;	// try to grow by 50%
; 1609 : 		if (_Capacity < _Count)
; 1610 : 			_Capacity = _Count;
; 1611 : 		return (_Capacity);
; 1612 : 		}
; 1613 : 
; 1614 : 	bool _Inside(const value_type *_Ptr) const
; 1615 : 		{	// test if _Ptr points inside vector
; 1616 : 		return (_Ptr < this->_Mylast() && this->_Myfirst() <= _Ptr);

  00007	8b 7d 08	 mov	 edi, DWORD PTR __Val$[ebp]
  0000a	8b 46 04	 mov	 eax, DWORD PTR [esi+4]
  0000d	3b f8		 cmp	 edi, eax
  0000f	73 38		 jae	 SHORT $LN2@push_back
  00011	8b 0e		 mov	 ecx, DWORD PTR [esi]
  00013	3b cf		 cmp	 ecx, edi
  00015	77 32		 ja	 SHORT $LN2@push_back

; 1275 : 		if (_Inside(_STD addressof(_Val)))
; 1276 : 			{	// push back an element
; 1277 : 			size_type _Idx = _STD addressof(_Val) - this->_Myfirst();

  00017	2b f9		 sub	 edi, ecx
  00019	c1 ff 03	 sar	 edi, 3

; 1278 : 			if (this->_Mylast() == this->_Myend())

  0001c	3b 46 08	 cmp	 eax, DWORD PTR [esi+8]
  0001f	75 09		 jne	 SHORT $LN4@push_back

; 1279 : 				_Reserve(1);

  00021	6a 01		 push	 1
  00023	8b ce		 mov	 ecx, esi
  00025	e8 00 00 00 00	 call	 ?_Reserve@?$vector@UExtraClassAttack@@V?$allocator@UExtraClassAttack@@@std@@@std@@IAEXI@Z ; std::vector<ExtraClassAttack,std::allocator<ExtraClassAttack> >::_Reserve
$LN4@push_back:
; File c:\program files (x86)\microsoft visual studio 14.0\vc\include\xmemory0

; 655  : 		::new ((void *)_Ptr) _Objty(_STD forward<_Types>(_Args)...);

  0002a	8b 56 04	 mov	 edx, DWORD PTR [esi+4]
  0002d	85 d2		 test	 edx, edx
  0002f	74 37		 je	 SHORT $LN205@push_back
  00031	8b 0e		 mov	 ecx, DWORD PTR [esi]
  00033	8b 04 f9	 mov	 eax, DWORD PTR [ecx+edi*8]
  00036	89 02		 mov	 DWORD PTR [edx], eax
  00038	8b 44 f9 04	 mov	 eax, DWORD PTR [ecx+edi*8+4]
  0003c	89 42 04	 mov	 DWORD PTR [edx+4], eax
; File c:\program files (x86)\microsoft visual studio 14.0\vc\include\vector

; 1292 : 			++this->_Mylast();

  0003f	83 46 04 08	 add	 DWORD PTR [esi+4], 8
  00043	5f		 pop	 edi
  00044	5e		 pop	 esi

; 1293 : 			}
; 1294 : 		}

  00045	5d		 pop	 ebp
  00046	c2 04 00	 ret	 4
$LN2@push_back:

; 1280 : 			_Orphan_range(this->_Mylast(), this->_Mylast());
; 1281 : 			this->_Getal().construct(this->_Mylast(),
; 1282 : 				this->_Myfirst()[_Idx]);
; 1283 : 			++this->_Mylast();
; 1284 : 			}
; 1285 : 		else
; 1286 : 			{	// push back a non-element
; 1287 : 			if (this->_Mylast() == this->_Myend())

  00049	3b 46 08	 cmp	 eax, DWORD PTR [esi+8]
  0004c	75 09		 jne	 SHORT $LN5@push_back

; 1288 : 				_Reserve(1);

  0004e	6a 01		 push	 1
  00050	8b ce		 mov	 ecx, esi
  00052	e8 00 00 00 00	 call	 ?_Reserve@?$vector@UExtraClassAttack@@V?$allocator@UExtraClassAttack@@@std@@@std@@IAEXI@Z ; std::vector<ExtraClassAttack,std::allocator<ExtraClassAttack> >::_Reserve
$LN5@push_back:
; File c:\program files (x86)\microsoft visual studio 14.0\vc\include\xmemory0

; 655  : 		::new ((void *)_Ptr) _Objty(_STD forward<_Types>(_Args)...);

  00057	8b 4e 04	 mov	 ecx, DWORD PTR [esi+4]
  0005a	85 c9		 test	 ecx, ecx
  0005c	74 0a		 je	 SHORT $LN205@push_back
  0005e	8b 07		 mov	 eax, DWORD PTR [edi]
  00060	89 01		 mov	 DWORD PTR [ecx], eax
  00062	8b 47 04	 mov	 eax, DWORD PTR [edi+4]
  00065	89 41 04	 mov	 DWORD PTR [ecx+4], eax
$LN205@push_back:
; File c:\program files (x86)\microsoft visual studio 14.0\vc\include\vector

; 1292 : 			++this->_Mylast();

  00068	83 46 04 08	 add	 DWORD PTR [esi+4], 8
  0006c	5f		 pop	 edi
  0006d	5e		 pop	 esi

; 1293 : 			}
; 1294 : 		}

  0006e	5d		 pop	 ebp
  0006f	c2 04 00	 ret	 4
?push_back@?$vector@UExtraClassAttack@@V?$allocator@UExtraClassAttack@@@std@@@std@@QAEXABUExtraClassAttack@@@Z ENDP ; std::vector<ExtraClassAttack,std::allocator<ExtraClassAttack> >::push_back
_TEXT	ENDS
; Function compile flags: /Ogtp
; File c:\program files (x86)\microsoft visual studio 14.0\vc\include\vector
;	COMDAT ??A?$vector@UExtraClassAttack@@V?$allocator@UExtraClassAttack@@@std@@@std@@QAEAAUExtraClassAttack@@I@Z
_TEXT	SEGMENT
__Pos$ = 8						; size = 4
??A?$vector@UExtraClassAttack@@V?$allocator@UExtraClassAttack@@@std@@@std@@QAEAAUExtraClassAttack@@I@Z PROC ; std::vector<ExtraClassAttack,std::allocator<ExtraClassAttack> >::operator[], COMDAT
; _this$ = ecx

; 1228 : 		{	// subscript mutable sequence

  00000	55		 push	 ebp
  00001	8b ec		 mov	 ebp, esp

; 1229 :  #if _ITERATOR_DEBUG_LEVEL == 2
; 1230 : 		if (size() <= _Pos)
; 1231 : 			{	// report error
; 1232 : 			_DEBUG_ERROR("vector subscript out of range");
; 1233 : 			_SCL_SECURE_OUT_OF_RANGE;
; 1234 : 			}
; 1235 : 
; 1236 :  #elif _ITERATOR_DEBUG_LEVEL == 1
; 1237 : 		_SCL_SECURE_VALIDATE_RANGE(_Pos < size());
; 1238 :  #endif /* _ITERATOR_DEBUG_LEVEL */
; 1239 : 
; 1240 : 		return (*(this->_Myfirst() + _Pos));

  00003	8b 09		 mov	 ecx, DWORD PTR [ecx]
  00005	8b 45 08	 mov	 eax, DWORD PTR __Pos$[ebp]
  00008	8d 04 c1	 lea	 eax, DWORD PTR [ecx+eax*8]

; 1241 : 		}

  0000b	5d		 pop	 ebp
  0000c	c2 04 00	 ret	 4
??A?$vector@UExtraClassAttack@@V?$allocator@UExtraClassAttack@@@std@@@std@@QAEAAUExtraClassAttack@@I@Z ENDP ; std::vector<ExtraClassAttack,std::allocator<ExtraClassAttack> >::operator[]
_TEXT	ENDS
; Function compile flags: /Ogtp
; File c:\program files (x86)\microsoft visual studio 14.0\vc\include\vector
;	COMDAT ?max_size@?$vector@UExtraClassAttack@@V?$allocator@UExtraClassAttack@@@std@@@std@@QBEIXZ
_TEXT	SEGMENT
?max_size@?$vector@UExtraClassAttack@@V?$allocator@UExtraClassAttack@@@std@@@std@@QBEIXZ PROC ; std::vector<ExtraClassAttack,std::allocator<ExtraClassAttack> >::max_size, COMDAT
; _this$ = ecx

; 1184 : 		return (this->_Getal().max_size());

  00000	b8 ff ff ff 1f	 mov	 eax, 536870911		; 1fffffffH

; 1185 : 		}

  00005	c3		 ret	 0
?max_size@?$vector@UExtraClassAttack@@V?$allocator@UExtraClassAttack@@@std@@@std@@QBEIXZ ENDP ; std::vector<ExtraClassAttack,std::allocator<ExtraClassAttack> >::max_size
_TEXT	ENDS
; Function compile flags: /Ogtp
; File c:\program files (x86)\microsoft visual studio 14.0\vc\include\vector
;	COMDAT ?size@?$vector@UExtraClassAttack@@V?$allocator@UExtraClassAttack@@@std@@@std@@QBEIXZ
_TEXT	SEGMENT
?size@?$vector@UExtraClassAttack@@V?$allocator@UExtraClassAttack@@@std@@@std@@QBEIXZ PROC ; std::vector<ExtraClassAttack,std::allocator<ExtraClassAttack> >::size, COMDAT
; _this$ = ecx

; 1179 : 		return (this->_Mylast() - this->_Myfirst());

  00000	8b 41 04	 mov	 eax, DWORD PTR [ecx+4]
  00003	2b 01		 sub	 eax, DWORD PTR [ecx]
  00005	c1 f8 03	 sar	 eax, 3

; 1180 : 		}

  00008	c3		 ret	 0
?size@?$vector@UExtraClassAttack@@V?$allocator@UExtraClassAttack@@@std@@@std@@QBEIXZ ENDP ; std::vector<ExtraClassAttack,std::allocator<ExtraClassAttack> >::size
_TEXT	ENDS
; Function compile flags: /Ogtp
; File c:\program files (x86)\microsoft visual studio 14.0\vc\include\vector
;	COMDAT ?_Unused_capacity@?$vector@UExtraClassAttack@@V?$allocator@UExtraClassAttack@@@std@@@std@@QBEIXZ
_TEXT	SEGMENT
?_Unused_capacity@?$vector@UExtraClassAttack@@V?$allocator@UExtraClassAttack@@@std@@@std@@QBEIXZ PROC ; std::vector<ExtraClassAttack,std::allocator<ExtraClassAttack> >::_Unused_capacity, COMDAT
; _this$ = ecx

; 1047 : 		return (this->_Myend() - this->_Mylast());

  00000	8b 41 08	 mov	 eax, DWORD PTR [ecx+8]
  00003	2b 41 04	 sub	 eax, DWORD PTR [ecx+4]
  00006	c1 f8 03	 sar	 eax, 3

; 1048 : 		}

  00009	c3		 ret	 0
?_Unused_capacity@?$vector@UExtraClassAttack@@V?$allocator@UExtraClassAttack@@@std@@@std@@QBEIXZ ENDP ; std::vector<ExtraClassAttack,std::allocator<ExtraClassAttack> >::_Unused_capacity
_TEXT	ENDS
; Function compile flags: /Ogtp
; File c:\program files (x86)\microsoft visual studio 14.0\vc\include\vector
;	COMDAT ?capacity@?$vector@UExtraClassAttack@@V?$allocator@UExtraClassAttack@@@std@@@std@@QBEIXZ
_TEXT	SEGMENT
?capacity@?$vector@UExtraClassAttack@@V?$allocator@UExtraClassAttack@@@std@@@std@@QBEIXZ PROC ; std::vector<ExtraClassAttack,std::allocator<ExtraClassAttack> >::capacity, COMDAT
; _this$ = ecx

; 1042 : 		return (this->_Myend() - this->_Myfirst());

  00000	8b 41 08	 mov	 eax, DWORD PTR [ecx+8]
  00003	2b 01		 sub	 eax, DWORD PTR [ecx]
  00005	c1 f8 03	 sar	 eax, 3

; 1043 : 		}

  00008	c3		 ret	 0
?capacity@?$vector@UExtraClassAttack@@V?$allocator@UExtraClassAttack@@@std@@@std@@QBEIXZ ENDP ; std::vector<ExtraClassAttack,std::allocator<ExtraClassAttack> >::capacity
_TEXT	ENDS
; Function compile flags: /Ogtp
; File c:\program files (x86)\microsoft visual studio 14.0\vc\include\vector
;	COMDAT ??1?$vector@UExtraClassAttack@@V?$allocator@UExtraClassAttack@@@std@@@std@@QAE@XZ
_TEXT	SEGMENT
??1?$vector@UExtraClassAttack@@V?$allocator@UExtraClassAttack@@@std@@@std@@QAE@XZ PROC ; std::vector<ExtraClassAttack,std::allocator<ExtraClassAttack> >::~vector<ExtraClassAttack,std::allocator<ExtraClassAttack> >, COMDAT
; _this$ = ecx

; 974  : 		{	// destroy the object

  00000	56		 push	 esi
  00001	8b f1		 mov	 esi, ecx

; 977  : 
; 978  : 	_Myt& operator=(const _Myt& _Right)
; 979  : 		{	// assign _Right
; 980  : 		if (this != &_Right)
; 981  : 			{	// different, assign it
; 982  : 			if (this->_Getal() != _Right._Getal()
; 983  : 				&& _Alty::propagate_on_container_copy_assignment::value)
; 984  : 				{	// change allocator before copying
; 985  : 				_Tidy();
; 986  : 				this->_Copy_alloc(_Right._Getal());
; 987  : 				}
; 988  : 
; 989  : 			this->_Orphan_all();
; 990  : 
; 991  : 			if (_Right.empty())
; 992  : 				clear();	// new sequence empty, erase existing sequence
; 993  : 			else if (_Right.size() <= size())
; 994  : 				{	// enough elements, copy new and destroy old
; 995  : 				pointer _Ptr = _Copy_impl(_Right._Myfirst(),
; 996  : 					_Right._Mylast(), this->_Myfirst());	// copy new
; 997  : 				_Destroy(_Ptr, this->_Mylast());	// destroy old
; 998  : 				this->_Mylast() = this->_Myfirst() + _Right.size();
; 999  : 				}
; 1000 : 			else if (_Right.size() <= capacity())
; 1001 : 				{	// enough room, copy and construct new
; 1002 : 				pointer _Ptr = _Right._Myfirst() + size();
; 1003 : 				_Copy_impl(_Right._Myfirst(),
; 1004 : 					_Ptr, this->_Myfirst());
; 1005 : 				this->_Mylast() = _Ucopy(_Ptr, _Right._Mylast(),
; 1006 : 					this->_Mylast());
; 1007 : 				}
; 1008 : 			else
; 1009 : 				{	// not enough room, allocate new array and construct new
; 1010 : 				if (this->_Myfirst() != pointer())
; 1011 : 					{	// discard old array
; 1012 : 					_Destroy(this->_Myfirst(), this->_Mylast());
; 1013 : 					this->_Getal().deallocate(this->_Myfirst(),
; 1014 : 						this->_Myend() - this->_Myfirst());
; 1015 : 					}
; 1016 : 				if (_Buy(_Right.size()))
; 1017 : 					_TRY_BEGIN
; 1018 : 					this->_Mylast() =
; 1019 : 						_Ucopy(_Right._Myfirst(), _Right._Mylast(),
; 1020 : 						this->_Myfirst());
; 1021 : 					_CATCH_ALL
; 1022 : 					_Tidy();
; 1023 : 					_RERAISE;
; 1024 : 					_CATCH_END
; 1025 : 				}
; 1026 : 			}
; 1027 : 		return (*this);
; 1028 : 		}
; 1029 : 
; 1030 : 	void reserve(size_type _Count)
; 1031 : 		{	// determine new minimum length of allocated storage
; 1032 : 		if (capacity() < _Count)
; 1033 : 			{	// something to do, check and reallocate
; 1034 : 			if (max_size() < _Count)
; 1035 : 				_Xlen();
; 1036 : 			_Reallocate(_Count);
; 1037 : 			}
; 1038 : 		}
; 1039 : 
; 1040 : 	size_type capacity() const _NOEXCEPT
; 1041 : 		{	// return current length of allocated storage
; 1042 : 		return (this->_Myend() - this->_Myfirst());
; 1043 : 		}
; 1044 : 
; 1045 : 	size_type _Unused_capacity() const _NOEXCEPT
; 1046 : 		{	// micro-optimization for capacity() - size()
; 1047 : 		return (this->_Myend() - this->_Mylast());
; 1048 : 		}
; 1049 : 
; 1050 : 	size_type _Has_unused_capacity() const _NOEXCEPT
; 1051 : 		{	// micro-optimization for capacity() != size()
; 1052 : 		return (this->_Myend() != this->_Mylast());
; 1053 : 		}
; 1054 : 
; 1055 : 	iterator begin() _NOEXCEPT
; 1056 : 		{	// return iterator for beginning of mutable sequence
; 1057 : 		return (iterator(this->_Myfirst(), &this->_Get_data()));
; 1058 : 		}
; 1059 : 
; 1060 : 	const_iterator begin() const _NOEXCEPT
; 1061 : 		{	// return iterator for beginning of nonmutable sequence
; 1062 : 		return (const_iterator(this->_Myfirst(), &this->_Get_data()));
; 1063 : 		}
; 1064 : 
; 1065 : 	iterator end() _NOEXCEPT
; 1066 : 		{	// return iterator for end of mutable sequence
; 1067 : 		return (iterator(this->_Mylast(), &this->_Get_data()));
; 1068 : 		}
; 1069 : 
; 1070 : 	const_iterator end() const _NOEXCEPT
; 1071 : 		{	// return iterator for end of nonmutable sequence
; 1072 : 		return (const_iterator(this->_Mylast(), &this->_Get_data()));
; 1073 : 		}
; 1074 : 
; 1075 : 	iterator _Make_iter(const_iterator _Where) const
; 1076 : 		{	// make iterator from const_iterator
; 1077 : 		return (iterator(_Where._Ptr, &this->_Get_data()));
; 1078 : 		}
; 1079 : 
; 1080 : 	reverse_iterator rbegin() _NOEXCEPT
; 1081 : 		{	// return iterator for beginning of reversed mutable sequence
; 1082 : 		return (reverse_iterator(end()));
; 1083 : 		}
; 1084 : 
; 1085 : 	const_reverse_iterator rbegin() const _NOEXCEPT
; 1086 : 		{	// return iterator for beginning of reversed nonmutable sequence
; 1087 : 		return (const_reverse_iterator(end()));
; 1088 : 		}
; 1089 : 
; 1090 : 	reverse_iterator rend() _NOEXCEPT
; 1091 : 		{	// return iterator for end of reversed mutable sequence
; 1092 : 		return (reverse_iterator(begin()));
; 1093 : 		}
; 1094 : 
; 1095 : 	const_reverse_iterator rend() const _NOEXCEPT
; 1096 : 		{	// return iterator for end of reversed nonmutable sequence
; 1097 : 		return (const_reverse_iterator(begin()));
; 1098 : 		}
; 1099 : 
; 1100 : 	const_iterator cbegin() const _NOEXCEPT
; 1101 : 		{	// return iterator for beginning of nonmutable sequence
; 1102 : 		return (begin());
; 1103 : 		}
; 1104 : 
; 1105 : 	const_iterator cend() const _NOEXCEPT
; 1106 : 		{	// return iterator for end of nonmutable sequence
; 1107 : 		return (end());
; 1108 : 		}
; 1109 : 
; 1110 : 	const_reverse_iterator crbegin() const _NOEXCEPT
; 1111 : 		{	// return iterator for beginning of reversed nonmutable sequence
; 1112 : 		return (rbegin());
; 1113 : 		}
; 1114 : 
; 1115 : 	const_reverse_iterator crend() const _NOEXCEPT
; 1116 : 		{	// return iterator for end of reversed nonmutable sequence
; 1117 : 		return (rend());
; 1118 : 		}
; 1119 : 
; 1120 : 	void shrink_to_fit()
; 1121 : 		{	// reduce capacity
; 1122 : 		if (_Has_unused_capacity())
; 1123 : 			{	// worth shrinking, do it
; 1124 : 			if (empty())
; 1125 : 				_Tidy();
; 1126 : 			else
; 1127 : 				_Reallocate(size());
; 1128 : 			}
; 1129 : 		}
; 1130 : 
; 1131 : 	void resize(size_type _Newsize)
; 1132 : 		{	// determine new length, padding as needed
; 1133 : 		if (_Newsize < size())
; 1134 : 			_Pop_back_n(size() - _Newsize);
; 1135 : 		else if (size() < _Newsize)
; 1136 : 			{	// pad as needed
; 1137 : 			_Reserve(_Newsize - size());
; 1138 : 			_TRY_BEGIN
; 1139 : 			_Uninitialized_default_fill_n(this->_Mylast(), _Newsize - size(),
; 1140 : 				this->_Getal());
; 1141 : 			_CATCH_ALL
; 1142 : 			_Tidy();
; 1143 : 			_RERAISE;
; 1144 : 			_CATCH_END
; 1145 : 			this->_Mylast() += _Newsize - size();
; 1146 : 			}
; 1147 : 		}
; 1148 : 
; 1149 : 	void resize(size_type _Newsize, const value_type& _Val)
; 1150 : 		{	// determine new length, padding with _Val elements as needed
; 1151 : 		if (_Newsize < size())
; 1152 : 			_Pop_back_n(size() - _Newsize);
; 1153 : 		else if (size() < _Newsize)
; 1154 : 			{	// pad as needed
; 1155 : 			const value_type *_Ptr = _STD addressof(_Val);
; 1156 : 
; 1157 : 			if (_Inside(_Ptr))
; 1158 : 				{	// padding is inside vector, recompute _Ptr after reserve
; 1159 : 				const difference_type _Idx = _Ptr
; 1160 : 					- _STD addressof(*this->_Myfirst());
; 1161 : 				_Reserve(_Newsize - size());
; 1162 : 				_Ptr = _STD addressof(*this->_Myfirst()) + _Idx;
; 1163 : 				}
; 1164 : 			else
; 1165 : 				_Reserve(_Newsize - size());
; 1166 : 
; 1167 : 			_TRY_BEGIN
; 1168 : 			_Ufill(this->_Mylast(), _Newsize - size(), _Ptr);
; 1169 : 			_CATCH_ALL
; 1170 : 			_Tidy();
; 1171 : 			_RERAISE;
; 1172 : 			_CATCH_END
; 1173 : 			this->_Mylast() += _Newsize - size();
; 1174 : 			}
; 1175 : 		}
; 1176 : 
; 1177 : 	size_type size() const _NOEXCEPT
; 1178 : 		{	// return length of sequence
; 1179 : 		return (this->_Mylast() - this->_Myfirst());
; 1180 : 		}
; 1181 : 
; 1182 : 	size_type max_size() const _NOEXCEPT
; 1183 : 		{	// return maximum possible length of sequence
; 1184 : 		return (this->_Getal().max_size());
; 1185 : 		}
; 1186 : 
; 1187 : 	bool empty() const _NOEXCEPT
; 1188 : 		{	// test if sequence is empty
; 1189 : 		return (this->_Myfirst() == this->_Mylast());
; 1190 : 		}
; 1191 : 
; 1192 : 	_Alloc get_allocator() const _NOEXCEPT
; 1193 : 		{	// return allocator object for values
; 1194 : 		return (this->_Getal());
; 1195 : 		}
; 1196 : 
; 1197 : 	const_reference at(size_type _Pos) const
; 1198 : 		{	// subscript nonmutable sequence with checking
; 1199 : 		if (size() <= _Pos)
; 1200 : 			_Xran();
; 1201 : 		return (*(this->_Myfirst() + _Pos));
; 1202 : 		}
; 1203 : 
; 1204 : 	reference at(size_type _Pos)
; 1205 : 		{	// subscript mutable sequence with checking
; 1206 : 		if (size() <= _Pos)
; 1207 : 			_Xran();
; 1208 : 		return (*(this->_Myfirst() + _Pos));
; 1209 : 		}
; 1210 : 
; 1211 : 	const_reference operator[](size_type _Pos) const
; 1212 : 		{	// subscript nonmutable sequence
; 1213 :  #if _ITERATOR_DEBUG_LEVEL == 2
; 1214 : 		if (size() <= _Pos)
; 1215 : 			{	// report error
; 1216 : 			_DEBUG_ERROR("vector subscript out of range");
; 1217 : 			_SCL_SECURE_OUT_OF_RANGE;
; 1218 : 			}
; 1219 : 
; 1220 :  #elif _ITERATOR_DEBUG_LEVEL == 1
; 1221 : 		_SCL_SECURE_VALIDATE_RANGE(_Pos < size());
; 1222 :  #endif /* _ITERATOR_DEBUG_LEVEL */
; 1223 : 
; 1224 : 		return (*(this->_Myfirst() + _Pos));
; 1225 : 		}
; 1226 : 
; 1227 : 	reference operator[](size_type _Pos)
; 1228 : 		{	// subscript mutable sequence
; 1229 :  #if _ITERATOR_DEBUG_LEVEL == 2
; 1230 : 		if (size() <= _Pos)
; 1231 : 			{	// report error
; 1232 : 			_DEBUG_ERROR("vector subscript out of range");
; 1233 : 			_SCL_SECURE_OUT_OF_RANGE;
; 1234 : 			}
; 1235 : 
; 1236 :  #elif _ITERATOR_DEBUG_LEVEL == 1
; 1237 : 		_SCL_SECURE_VALIDATE_RANGE(_Pos < size());
; 1238 :  #endif /* _ITERATOR_DEBUG_LEVEL */
; 1239 : 
; 1240 : 		return (*(this->_Myfirst() + _Pos));
; 1241 : 		}
; 1242 : 
; 1243 : 	pointer data() _NOEXCEPT
; 1244 : 		{	// return address of first element
; 1245 : 		return (this->_Myfirst());
; 1246 : 		}
; 1247 : 
; 1248 : 	const_pointer data() const _NOEXCEPT
; 1249 : 		{	// return address of first element
; 1250 : 		return (this->_Myfirst());
; 1251 : 		}
; 1252 : 
; 1253 : 	reference front()
; 1254 : 		{	// return first element of mutable sequence
; 1255 : 		return (*begin());
; 1256 : 		}
; 1257 : 
; 1258 : 	const_reference front() const
; 1259 : 		{	// return first element of nonmutable sequence
; 1260 : 		return (*begin());
; 1261 : 		}
; 1262 : 
; 1263 : 	reference back()
; 1264 : 		{	// return last element of mutable sequence
; 1265 : 		return (*(end() - 1));
; 1266 : 		}
; 1267 : 
; 1268 : 	const_reference back() const
; 1269 : 		{	// return last element of nonmutable sequence
; 1270 : 		return (*(end() - 1));
; 1271 : 		}
; 1272 : 
; 1273 : 	void push_back(const value_type& _Val)
; 1274 : 		{	// insert element at end
; 1275 : 		if (_Inside(_STD addressof(_Val)))
; 1276 : 			{	// push back an element
; 1277 : 			size_type _Idx = _STD addressof(_Val) - this->_Myfirst();
; 1278 : 			if (this->_Mylast() == this->_Myend())
; 1279 : 				_Reserve(1);
; 1280 : 			_Orphan_range(this->_Mylast(), this->_Mylast());
; 1281 : 			this->_Getal().construct(this->_Mylast(),
; 1282 : 				this->_Myfirst()[_Idx]);
; 1283 : 			++this->_Mylast();
; 1284 : 			}
; 1285 : 		else
; 1286 : 			{	// push back a non-element
; 1287 : 			if (this->_Mylast() == this->_Myend())
; 1288 : 				_Reserve(1);
; 1289 : 			_Orphan_range(this->_Mylast(), this->_Mylast());
; 1290 : 			this->_Getal().construct(this->_Mylast(),
; 1291 : 				_Val);
; 1292 : 			++this->_Mylast();
; 1293 : 			}
; 1294 : 		}
; 1295 : 
; 1296 :  #if _ITERATOR_DEBUG_LEVEL == 2
; 1297 : 	void pop_back()
; 1298 : 		{	// erase element at end
; 1299 : 		if (empty())
; 1300 : 			_DEBUG_ERROR("vector empty before pop");
; 1301 : 		else
; 1302 : 			{	// erase last element
; 1303 : 			_Orphan_range(this->_Mylast() - 1, this->_Mylast());
; 1304 : 			this->_Getal().destroy(this->_Mylast() - 1);
; 1305 : 			--this->_Mylast();
; 1306 : 			}
; 1307 : 		}
; 1308 : 
; 1309 :  #else /* _ITERATOR_DEBUG_LEVEL == 2 */
; 1310 : 	void pop_back()
; 1311 : 		{	// erase element at end
; 1312 : 		this->_Getal().destroy(this->_Mylast() - 1);
; 1313 : 		--this->_Mylast();
; 1314 : 		}
; 1315 :  #endif /* _ITERATOR_DEBUG_LEVEL == 2 */
; 1316 : 
; 1317 : 	template<class _Iter>
; 1318 : 		typename enable_if<_Is_iterator<_Iter>::value,
; 1319 : 			void>::type
; 1320 : 		assign(_Iter _First, _Iter _Last)
; 1321 : 		{	// assign [_First, _Last)
; 1322 : 		clear();
; 1323 : 		_Assign(_First, _Last, _Iter_cat(_First));
; 1324 : 		}
; 1325 : 
; 1326 : 	template<class _Iter>
; 1327 : 		void _Assign(_Iter _First, _Iter _Last,
; 1328 : 			input_iterator_tag)
; 1329 : 		{	// assign [_First, _Last), input iterators
; 1330 : 		for (; _First != _Last; ++_First)
; 1331 : 			emplace_back(*_First);
; 1332 : 		}
; 1333 : 
; 1334 : 	template<class _Iter>
; 1335 : 		void _Assign(_Iter _First, _Iter _Last,
; 1336 : 			forward_iterator_tag)
; 1337 : 		{	// assign [_First, _Last), forward iterators
; 1338 : 		size_type _Newsize = _STD distance(_First, _Last);
; 1339 : 
; 1340 : 		if (capacity() < _Newsize)
; 1341 : 			{	// need more room, try to get it
; 1342 : 			size_type _Newcapacity = _Grow_to(_Newsize);
; 1343 : 			_Tidy();
; 1344 : 			_Buy(_Newcapacity);
; 1345 : 			}
; 1346 : 
; 1347 : 		this->_Mylast() = _Ucopy(_First, _Last, this->_Myfirst());
; 1348 : 		}
; 1349 : 
; 1350 : 	void assign(size_type _Count, const value_type& _Val)
; 1351 : 		{	// assign _Count * _Val
; 1352 : 		clear();
; 1353 : 		insert(begin(), _Count, _Val);
; 1354 : 		}
; 1355 : 
; 1356 : 	iterator insert(const_iterator _Where, const _Ty& _Val)
; 1357 : 		{	// insert _Val at _Where
; 1358 : 		return (_Insert_n(_Where, (size_type)1, _Val));
; 1359 : 		}
; 1360 : 
; 1361 : 	iterator insert(const_iterator _Where, size_type _Count,
; 1362 : 		const _Ty& _Val)
; 1363 : 		{	// insert _Count * _Val at _Where
; 1364 : 		return (_Insert_n(_Where, _Count, _Val));
; 1365 : 		}
; 1366 : 
; 1367 : 	template<class _Iter>
; 1368 : 		typename enable_if<_Is_iterator<_Iter>::value,
; 1369 : 			iterator>::type
; 1370 : 		insert(const_iterator _Where, _Iter _First, _Iter _Last)
; 1371 : 		{	// insert [_First, _Last) at _Where
; 1372 : 		size_type _Off = _VIPTR(_Where) - this->_Myfirst();
; 1373 : 		_Insert(_Where, _First, _Last, _Iter_cat(_First));
; 1374 : 		return (begin() + _Off);
; 1375 : 		}
; 1376 : 
; 1377 : 	template<class _Iter>
; 1378 : 		void _Insert(const_iterator _Where,
; 1379 : 			_Iter _First, _Iter _Last,
; 1380 : 				input_iterator_tag)
; 1381 : 		{	// insert [_First, _Last) at _Where, input iterators
; 1382 : 		size_type _Off = _VIPTR(_Where) - this->_Myfirst();
; 1383 : 
; 1384 :  #if _ITERATOR_DEBUG_LEVEL == 2
; 1385 : 		if (size() < _Off)
; 1386 : 			_DEBUG_ERROR("vector insert iterator outside range");
; 1387 :  #endif /* _ITERATOR_DEBUG_LEVEL == 2 */
; 1388 : 
; 1389 : 		if (_First != _Last)
; 1390 : 			{	// worth doing, gather at end and rotate into place
; 1391 : 			size_type _Oldsize = size();
; 1392 : 
; 1393 : 			_TRY_BEGIN
; 1394 : 			for (; _First != _Last; ++_First)
; 1395 : 				push_back(*_First);	// append
; 1396 : 
; 1397 : 			_CATCH_ALL
; 1398 : 			erase(begin() + _Oldsize, end());
; 1399 : 			_RERAISE;
; 1400 : 			_CATCH_END
; 1401 : 
; 1402 : 			_STD rotate(begin() + _Off, begin() + _Oldsize, end());
; 1403 : 			}
; 1404 : 		}
; 1405 : 
; 1406 : 	template<class _Iter>
; 1407 : 		void _Insert(const_iterator _Where,
; 1408 : 			_Iter _First, _Iter _Last,
; 1409 : 				forward_iterator_tag)
; 1410 : 		{	// insert [_First, _Last) at _Where, forward iterators
; 1411 :  #if _ITERATOR_DEBUG_LEVEL == 2
; 1412 : 		if (_VICONT(_Where) != &this->_Get_data()
; 1413 : 			|| _VIPTR(_Where) < this->_Myfirst()
; 1414 : 			|| this->_Mylast() < _VIPTR(_Where))
; 1415 : 			_DEBUG_ERROR("vector insert iterator outside range");
; 1416 : 		_DEBUG_RANGE(_First, _Last);
; 1417 :  #endif /* _ITERATOR_DEBUG_LEVEL == 2 */
; 1418 : 
; 1419 : 		size_type _Count = 0;
; 1420 : 		_Distance(_First, _Last, _Count);
; 1421 : 
; 1422 : 		if (_Count == 0)
; 1423 : 			;
; 1424 : 		else if (_Unused_capacity() < _Count)
; 1425 : 			{	// not enough room, reallocate
; 1426 : 			if (max_size() - size() < _Count)
; 1427 : 				_Xlen();	// result too long
; 1428 : 
; 1429 : 			size_type _Capacity = _Grow_to(size() + _Count);
; 1430 : 			pointer _Newvec = this->_Getal().allocate(_Capacity);
; 1431 : 			pointer _Ptr = _Newvec;
; 1432 : 
; 1433 : 			_TRY_BEGIN
; 1434 : 			_Ptr = _Umove(this->_Myfirst(), _VIPTR(_Where),
; 1435 : 				_Newvec);	// copy prefix
; 1436 : 			_Ptr = _Ucopy(_First, _Last, _Ptr);	// add new stuff
; 1437 : 			_Umove(_VIPTR(_Where), this->_Mylast(),
; 1438 : 				_Ptr);	// copy suffix
; 1439 : 			_CATCH_ALL
; 1440 : 			_Destroy(_Newvec, _Ptr);
; 1441 : 			this->_Getal().deallocate(_Newvec, _Capacity);
; 1442 : 			_RERAISE;
; 1443 : 			_CATCH_END
; 1444 : 
; 1445 : 			_Count += size();
; 1446 : 			if (this->_Myfirst() != pointer())
; 1447 : 				{	// destroy and deallocate old array
; 1448 : 				_Destroy(this->_Myfirst(), this->_Mylast());
; 1449 : 				this->_Getal().deallocate(this->_Myfirst(),
; 1450 : 					this->_Myend() - this->_Myfirst());
; 1451 : 				}
; 1452 : 
; 1453 : 			this->_Orphan_all();
; 1454 : 			this->_Myend() = _Newvec + _Capacity;
; 1455 : 			this->_Mylast() = _Newvec + _Count;
; 1456 : 			this->_Myfirst() = _Newvec;
; 1457 : 			}
; 1458 : 		else
; 1459 : 			{	// new stuff fits, append and rotate into place
; 1460 : 			_Ucopy(_First, _Last, this->_Mylast());
; 1461 : 			_STD rotate(_VIPTR(_Where), this->_Mylast(),
; 1462 : 				this->_Mylast() + _Count);
; 1463 : 			this->_Mylast() += _Count;
; 1464 : 			_Orphan_range(_VIPTR(_Where), this->_Mylast());
; 1465 : 			}
; 1466 : 		}
; 1467 : 
; 1468 :  #if _ITERATOR_DEBUG_LEVEL == 2
; 1469 : 	iterator erase(const_iterator _Where)
; 1470 : 		{	// erase element at where
; 1471 : 		if (_VICONT(_Where) != &this->_Get_data()
; 1472 : 			|| _VIPTR(_Where) < this->_Myfirst()
; 1473 : 			|| this->_Mylast() <= _VIPTR(_Where))
; 1474 : 			_DEBUG_ERROR("vector erase iterator outside range");
; 1475 : 		_Move(_VIPTR(_Where) + 1, this->_Mylast(), _VIPTR(_Where));
; 1476 : 		_Destroy(this->_Mylast() - 1, this->_Mylast());
; 1477 : 		_Orphan_range(_VIPTR(_Where), this->_Mylast());
; 1478 : 		--this->_Mylast();
; 1479 : 		return (_Make_iter(_Where));
; 1480 : 		}
; 1481 : 
; 1482 :  #else /* _ITERATOR_DEBUG_LEVEL == 2 */
; 1483 : 	iterator erase(const_iterator _Where)
; 1484 : 		{	// erase element at where
; 1485 : 		_Move(_VIPTR(_Where) + 1, this->_Mylast(),
; 1486 : 			_VIPTR(_Where));
; 1487 : 		_Destroy(this->_Mylast() - 1, this->_Mylast());
; 1488 : 		--this->_Mylast();
; 1489 : 		return (_Make_iter(_Where));
; 1490 : 		}
; 1491 :  #endif /* _ITERATOR_DEBUG_LEVEL == 2 */
; 1492 : 
; 1493 : 	iterator erase(const_iterator _First_arg,
; 1494 : 		const_iterator _Last_arg)
; 1495 : 		{	// erase [_First, _Last)
; 1496 : 		if (_First_arg == begin() && _Last_arg == end())
; 1497 : 			clear();
; 1498 : 		else if (_First_arg != _Last_arg)
; 1499 : 			{	// clear partial
; 1500 : 			iterator _First = _Make_iter(_First_arg);
; 1501 : 			iterator _Last = _Make_iter(_Last_arg);
; 1502 : 
; 1503 : 			if (_First != _Last)
; 1504 : 				{	// worth doing, copy down over hole
; 1505 :  #if _ITERATOR_DEBUG_LEVEL == 2
; 1506 : 				if (_Last < _First || _VICONT(_First) != &this->_Get_data()
; 1507 : 					|| _VIPTR(_First) < this->_Myfirst()
; 1508 : 					|| this->_Mylast() < _VIPTR(_Last))
; 1509 : 					_DEBUG_ERROR("vector erase iterator outside range");
; 1510 : 				pointer _Ptr = _Move(_VIPTR(_Last), this->_Mylast(),
; 1511 : 					_VIPTR(_First));
; 1512 : 				_Orphan_range(_VIPTR(_First), this->_Mylast());
; 1513 : 
; 1514 :  #else /* _ITERATOR_DEBUG_LEVEL == 2 */
; 1515 : 				pointer _Ptr = _Move(_VIPTR(_Last), this->_Mylast(),
; 1516 : 					_VIPTR(_First));
; 1517 :  #endif /* _ITERATOR_DEBUG_LEVEL == 2 */
; 1518 : 
; 1519 : 				_Destroy(_Ptr, this->_Mylast());
; 1520 : 				this->_Mylast() = _Ptr;
; 1521 : 				}
; 1522 : 			}
; 1523 : 		return (_Make_iter(_First_arg));
; 1524 : 		}
; 1525 : 
; 1526 : 	void _Pop_back_n(size_type _Count)
; 1527 : 		{	// erase _Count elements at end
; 1528 : 		pointer _Ptr = this->_Mylast() - _Count;
; 1529 : 
; 1530 :  #if _ITERATOR_DEBUG_LEVEL == 2
; 1531 : 		_Orphan_range(_Ptr, this->_Mylast());
; 1532 :  #endif /* _ITERATOR_DEBUG_LEVEL == 2 */
; 1533 : 
; 1534 : 		_Destroy(_Ptr, this->_Mylast());
; 1535 : 		this->_Mylast() = _Ptr;
; 1536 : 		}
; 1537 : 
; 1538 : 	void clear() _NOEXCEPT
; 1539 : 		{	// erase all
; 1540 : 		this->_Orphan_all();
; 1541 : 		_Destroy(this->_Myfirst(), this->_Mylast());
; 1542 : 		this->_Mylast() = this->_Myfirst();
; 1543 : 		}
; 1544 : 
; 1545 : 	void swap(_Myt& _Right)
; 1546 : 		_NOEXCEPT_OP(_Alty::propagate_on_container_swap::value
; 1547 : 			|| _Alty::is_always_equal::value)
; 1548 : 		{	// exchange contents with _Right
; 1549 : 		if (this == &_Right)
; 1550 : 			;	// same object, do nothing
; 1551 : 		else if (this->_Getal() == _Right._Getal())
; 1552 : 			{	// same allocator, swap control information
; 1553 : 			this->_Swap_all(_Right);
; 1554 : 			_Swap_adl(this->_Myfirst(), _Right._Myfirst());
; 1555 : 			_Swap_adl(this->_Mylast(), _Right._Mylast());
; 1556 : 			_Swap_adl(this->_Myend(), _Right._Myend());
; 1557 : 			}
; 1558 : 
; 1559 : 		else if (_Alty::propagate_on_container_swap::value)
; 1560 : 			{	// swap allocators and control information
; 1561 : 			this->_Swap_alloc(_Right);
; 1562 : 			_Swap_adl(this->_Myfirst(), _Right._Myfirst());
; 1563 : 			_Swap_adl(this->_Mylast(), _Right._Mylast());
; 1564 : 			_Swap_adl(this->_Myend(), _Right._Myend());
; 1565 : 			}
; 1566 : 
; 1567 : 		else
; 1568 : 			{	// containers are incompatible
; 1569 :  #if _ITERATOR_DEBUG_LEVEL == 2
; 1570 : 			_DEBUG_ERROR("vector containers incompatible for swap");
; 1571 : 
; 1572 :  #else /* ITERATOR_DEBUG_LEVEL == 2 */
; 1573 : 			_XSTD terminate();
; 1574 :  #endif /* ITERATOR_DEBUG_LEVEL == 2 */
; 1575 : 			}
; 1576 : 		}
; 1577 : 
; 1578 : protected:
; 1579 : 	bool _Buy(size_type _Capacity)
; 1580 : 		{	// allocate array with _Capacity elements
; 1581 : 		this->_Myfirst() = pointer();
; 1582 : 		this->_Mylast() = pointer();
; 1583 : 		this->_Myend() = pointer();
; 1584 : 
; 1585 : 		if (_Capacity == 0)
; 1586 : 			return (false);
; 1587 : 		else if (max_size() < _Capacity)
; 1588 : 			_Xlen();	// result too long
; 1589 : 		else
; 1590 : 			{	// nonempty array, allocate storage
; 1591 : 			this->_Myfirst() = this->_Getal().allocate(_Capacity);
; 1592 : 			this->_Mylast() = this->_Myfirst();
; 1593 : 			this->_Myend() = this->_Myfirst() + _Capacity;
; 1594 : 			}
; 1595 : 		return (true);
; 1596 : 		}
; 1597 : 
; 1598 : 	void _Destroy(pointer _First, pointer _Last)
; 1599 : 		{	// destroy [_First, _Last) using allocator
; 1600 : 		_Destroy_range(_First, _Last, this->_Getal());
; 1601 : 		}
; 1602 : 
; 1603 : 	size_type _Grow_to(size_type _Count) const
; 1604 : 		{	// grow by 50% or at least to _Count
; 1605 : 		size_type _Capacity = capacity();
; 1606 : 
; 1607 : 		_Capacity = max_size() - _Capacity / 2 < _Capacity
; 1608 : 			? 0 : _Capacity + _Capacity / 2;	// try to grow by 50%
; 1609 : 		if (_Capacity < _Count)
; 1610 : 			_Capacity = _Count;
; 1611 : 		return (_Capacity);
; 1612 : 		}
; 1613 : 
; 1614 : 	bool _Inside(const value_type *_Ptr) const
; 1615 : 		{	// test if _Ptr points inside vector
; 1616 : 		return (_Ptr < this->_Mylast() && this->_Myfirst() <= _Ptr);
; 1617 : 		}
; 1618 : 
; 1619 : 	void _Reallocate(size_type _Count)
; 1620 : 		{	// move to array of exactly _Count elements
; 1621 : 		pointer _Ptr = this->_Getal().allocate(_Count);
; 1622 : 
; 1623 : 		_TRY_BEGIN
; 1624 : 		_Umove(this->_Myfirst(), this->_Mylast(), _Ptr);
; 1625 : 		_CATCH_ALL
; 1626 : 		this->_Getal().deallocate(_Ptr, _Count);
; 1627 : 		_RERAISE;
; 1628 : 		_CATCH_END
; 1629 : 
; 1630 : 		size_type _Size = size();
; 1631 : 		if (this->_Myfirst() != pointer())
; 1632 : 			{	// destroy and deallocate old array
; 1633 : 			_Destroy(this->_Myfirst(), this->_Mylast());
; 1634 : 			this->_Getal().deallocate(this->_Myfirst(),
; 1635 : 				this->_Myend() - this->_Myfirst());
; 1636 : 			}
; 1637 : 
; 1638 : 		this->_Orphan_all();
; 1639 : 		this->_Myend() = _Ptr + _Count;
; 1640 : 		this->_Mylast() = _Ptr + _Size;
; 1641 : 		this->_Myfirst() = _Ptr;
; 1642 : 		}
; 1643 : 
; 1644 : 	void _Reserve(size_type _Count)
; 1645 : 		{	// ensure room for _Count new elements, grow exponentially
; 1646 : 		if (_Unused_capacity() < _Count)
; 1647 : 			{	// need more room, try to get it
; 1648 : 			if (max_size() - size() < _Count)
; 1649 : 				_Xlen();
; 1650 : 			_Reallocate(_Grow_to(size() + _Count));
; 1651 : 			}
; 1652 : 		}
; 1653 : 
; 1654 : 	void _Tidy()
; 1655 : 		{	// free all storage
; 1656 : 		if (this->_Myfirst() != pointer())

  00003	8b 0e		 mov	 ecx, DWORD PTR [esi]
  00005	85 c9		 test	 ecx, ecx
  00007	74 25		 je	 SHORT $LN4@vector

; 1657 : 			{	// something to free, destroy and deallocate it
; 1658 : 			this->_Orphan_all();
; 1659 : 			_Destroy(this->_Myfirst(), this->_Mylast());
; 1660 : 			this->_Getal().deallocate(this->_Myfirst(),

  00009	8b 46 08	 mov	 eax, DWORD PTR [esi+8]
  0000c	2b c1		 sub	 eax, ecx
  0000e	c1 f8 03	 sar	 eax, 3
  00011	50		 push	 eax
  00012	51		 push	 ecx
  00013	8b ce		 mov	 ecx, esi
  00015	e8 00 00 00 00	 call	 ?deallocate@?$_Wrap_alloc@V?$allocator@UExtraClassAttack@@@std@@@std@@QAEXPAUExtraClassAttack@@I@Z ; std::_Wrap_alloc<std::allocator<ExtraClassAttack> >::deallocate

; 1661 : 				this->_Myend() - this->_Myfirst());
; 1662 : 			this->_Myfirst() = pointer();

  0001a	c7 06 00 00 00
	00		 mov	 DWORD PTR [esi], 0

; 1663 : 			this->_Mylast() = pointer();

  00020	c7 46 04 00 00
	00 00		 mov	 DWORD PTR [esi+4], 0

; 1664 : 			this->_Myend() = pointer();

  00027	c7 46 08 00 00
	00 00		 mov	 DWORD PTR [esi+8], 0
$LN4@vector:
  0002e	5e		 pop	 esi

; 975  : 		_Tidy();
; 976  : 		}

  0002f	c3		 ret	 0
??1?$vector@UExtraClassAttack@@V?$allocator@UExtraClassAttack@@@std@@@std@@QAE@XZ ENDP ; std::vector<ExtraClassAttack,std::allocator<ExtraClassAttack> >::~vector<ExtraClassAttack,std::allocator<ExtraClassAttack> >
_TEXT	ENDS
; Function compile flags: /Ogtp
; File c:\program files (x86)\microsoft visual studio 14.0\vc\include\vector
;	COMDAT ??0?$vector@UExtraClassAttack@@V?$allocator@UExtraClassAttack@@@std@@@std@@QAE@XZ
_TEXT	SEGMENT
??0?$vector@UExtraClassAttack@@V?$allocator@UExtraClassAttack@@@std@@@std@@QAE@XZ PROC ; std::vector<ExtraClassAttack,std::allocator<ExtraClassAttack> >::vector<ExtraClassAttack,std::allocator<ExtraClassAttack> >, COMDAT
; _this$ = ecx

; 480  : 		_Myfirst = pointer();

  00000	c7 01 00 00 00
	00		 mov	 DWORD PTR [ecx], 0

; 707  : 		}

  00006	8b c1		 mov	 eax, ecx

; 481  : 		_Mylast = pointer();

  00008	c7 41 04 00 00
	00 00		 mov	 DWORD PTR [ecx+4], 0

; 482  : 		_Myend = pointer();

  0000f	c7 41 08 00 00
	00 00		 mov	 DWORD PTR [ecx+8], 0

; 707  : 		}

  00016	c3		 ret	 0
??0?$vector@UExtraClassAttack@@V?$allocator@UExtraClassAttack@@@std@@@std@@QAE@XZ ENDP ; std::vector<ExtraClassAttack,std::allocator<ExtraClassAttack> >::vector<ExtraClassAttack,std::allocator<ExtraClassAttack> >
_TEXT	ENDS
; Function compile flags: /Ogtp
; File c:\program files (x86)\microsoft visual studio 14.0\vc\include\xutility
;	COMDAT ?_Get_second@?$_Compressed_pair@U?$_Wrap_alloc@V?$allocator@UExtraClassAttack@@@std@@@std@@V?$_Vector_val@U?$_Simple_types@UExtraClassAttack@@@std@@@2@$00@std@@QBEABV?$_Vector_val@U?$_Simple_types@UExtraClassAttack@@@std@@@2@XZ
_TEXT	SEGMENT
?_Get_second@?$_Compressed_pair@U?$_Wrap_alloc@V?$allocator@UExtraClassAttack@@@std@@@std@@V?$_Vector_val@U?$_Simple_types@UExtraClassAttack@@@std@@@2@$00@std@@QBEABV?$_Vector_val@U?$_Simple_types@UExtraClassAttack@@@std@@@2@XZ PROC ; std::_Compressed_pair<std::_Wrap_alloc<std::allocator<ExtraClassAttack> >,std::_Vector_val<std::_Simple_types<ExtraClassAttack> >,1>::_Get_second, COMDAT
; _this$ = ecx

; 319  : 		return (_Myval2);

  00000	8b c1		 mov	 eax, ecx

; 320  : 		}

  00002	c3		 ret	 0
?_Get_second@?$_Compressed_pair@U?$_Wrap_alloc@V?$allocator@UExtraClassAttack@@@std@@@std@@V?$_Vector_val@U?$_Simple_types@UExtraClassAttack@@@std@@@2@$00@std@@QBEABV?$_Vector_val@U?$_Simple_types@UExtraClassAttack@@@std@@@2@XZ ENDP ; std::_Compressed_pair<std::_Wrap_alloc<std::allocator<ExtraClassAttack> >,std::_Vector_val<std::_Simple_types<ExtraClassAttack> >,1>::_Get_second
_TEXT	ENDS
; Function compile flags: /Ogtp
; File c:\program files (x86)\microsoft visual studio 14.0\vc\include\xutility
;	COMDAT ?_Get_second@?$_Compressed_pair@U?$_Wrap_alloc@V?$allocator@UExtraClassAttack@@@std@@@std@@V?$_Vector_val@U?$_Simple_types@UExtraClassAttack@@@std@@@2@$00@std@@QAEAAV?$_Vector_val@U?$_Simple_types@UExtraClassAttack@@@std@@@2@XZ
_TEXT	SEGMENT
?_Get_second@?$_Compressed_pair@U?$_Wrap_alloc@V?$allocator@UExtraClassAttack@@@std@@@std@@V?$_Vector_val@U?$_Simple_types@UExtraClassAttack@@@std@@@2@$00@std@@QAEAAV?$_Vector_val@U?$_Simple_types@UExtraClassAttack@@@std@@@2@XZ PROC ; std::_Compressed_pair<std::_Wrap_alloc<std::allocator<ExtraClassAttack> >,std::_Vector_val<std::_Simple_types<ExtraClassAttack> >,1>::_Get_second, COMDAT
; _this$ = ecx

; 314  : 		return (_Myval2);

  00000	8b c1		 mov	 eax, ecx

; 315  : 		}

  00002	c3		 ret	 0
?_Get_second@?$_Compressed_pair@U?$_Wrap_alloc@V?$allocator@UExtraClassAttack@@@std@@@std@@V?$_Vector_val@U?$_Simple_types@UExtraClassAttack@@@std@@@2@$00@std@@QAEAAV?$_Vector_val@U?$_Simple_types@UExtraClassAttack@@@std@@@2@XZ ENDP ; std::_Compressed_pair<std::_Wrap_alloc<std::allocator<ExtraClassAttack> >,std::_Vector_val<std::_Simple_types<ExtraClassAttack> >,1>::_Get_second
_TEXT	ENDS
; Function compile flags: /Ogtp
; File c:\program files (x86)\microsoft visual studio 14.0\vc\include\xutility
;	COMDAT ?_Get_first@?$_Compressed_pair@U?$_Wrap_alloc@V?$allocator@UExtraClassAttack@@@std@@@std@@V?$_Vector_val@U?$_Simple_types@UExtraClassAttack@@@std@@@2@$00@std@@QBEABU?$_Wrap_alloc@V?$allocator@UExtraClassAttack@@@std@@@2@XZ
_TEXT	SEGMENT
?_Get_first@?$_Compressed_pair@U?$_Wrap_alloc@V?$allocator@UExtraClassAttack@@@std@@@std@@V?$_Vector_val@U?$_Simple_types@UExtraClassAttack@@@std@@@2@$00@std@@QBEABU?$_Wrap_alloc@V?$allocator@UExtraClassAttack@@@std@@@2@XZ PROC ; std::_Compressed_pair<std::_Wrap_alloc<std::allocator<ExtraClassAttack> >,std::_Vector_val<std::_Simple_types<ExtraClassAttack> >,1>::_Get_first, COMDAT
; _this$ = ecx

; 299  : 		return (*this);

  00000	8b c1		 mov	 eax, ecx

; 300  : 		}

  00002	c3		 ret	 0
?_Get_first@?$_Compressed_pair@U?$_Wrap_alloc@V?$allocator@UExtraClassAttack@@@std@@@std@@V?$_Vector_val@U?$_Simple_types@UExtraClassAttack@@@std@@@2@$00@std@@QBEABU?$_Wrap_alloc@V?$allocator@UExtraClassAttack@@@std@@@2@XZ ENDP ; std::_Compressed_pair<std::_Wrap_alloc<std::allocator<ExtraClassAttack> >,std::_Vector_val<std::_Simple_types<ExtraClassAttack> >,1>::_Get_first
_TEXT	ENDS
; Function compile flags: /Ogtp
; File c:\program files (x86)\microsoft visual studio 14.0\vc\include\xutility
;	COMDAT ?_Get_first@?$_Compressed_pair@U?$_Wrap_alloc@V?$allocator@UExtraClassAttack@@@std@@@std@@V?$_Vector_val@U?$_Simple_types@UExtraClassAttack@@@std@@@2@$00@std@@QAEAAU?$_Wrap_alloc@V?$allocator@UExtraClassAttack@@@std@@@2@XZ
_TEXT	SEGMENT
?_Get_first@?$_Compressed_pair@U?$_Wrap_alloc@V?$allocator@UExtraClassAttack@@@std@@@std@@V?$_Vector_val@U?$_Simple_types@UExtraClassAttack@@@std@@@2@$00@std@@QAEAAU?$_Wrap_alloc@V?$allocator@UExtraClassAttack@@@std@@@2@XZ PROC ; std::_Compressed_pair<std::_Wrap_alloc<std::allocator<ExtraClassAttack> >,std::_Vector_val<std::_Simple_types<ExtraClassAttack> >,1>::_Get_first, COMDAT
; _this$ = ecx

; 294  : 		return (*this);

  00000	8b c1		 mov	 eax, ecx

; 295  : 		}

  00002	c3		 ret	 0
?_Get_first@?$_Compressed_pair@U?$_Wrap_alloc@V?$allocator@UExtraClassAttack@@@std@@@std@@V?$_Vector_val@U?$_Simple_types@UExtraClassAttack@@@std@@@2@$00@std@@QAEAAU?$_Wrap_alloc@V?$allocator@UExtraClassAttack@@@std@@@2@XZ ENDP ; std::_Compressed_pair<std::_Wrap_alloc<std::allocator<ExtraClassAttack> >,std::_Vector_val<std::_Simple_types<ExtraClassAttack> >,1>::_Get_first
_TEXT	ENDS
; Function compile flags: /Ogtp
; File c:\program files (x86)\microsoft visual studio 14.0\vc\include\vector
;	COMDAT ??0?$_Vector_val@U?$_Simple_types@UExtraClassAttack@@@std@@@std@@QAE@XZ
_TEXT	SEGMENT
??0?$_Vector_val@U?$_Simple_types@UExtraClassAttack@@@std@@@std@@QAE@XZ PROC ; std::_Vector_val<std::_Simple_types<ExtraClassAttack> >::_Vector_val<std::_Simple_types<ExtraClassAttack> >, COMDAT
; _this$ = ecx

; 479  : 		{	// initialize values
; 480  : 		_Myfirst = pointer();

  00000	c7 01 00 00 00
	00		 mov	 DWORD PTR [ecx], 0

; 481  : 		_Mylast = pointer();
; 482  : 		_Myend = pointer();
; 483  : 		}

  00006	8b c1		 mov	 eax, ecx
  00008	c7 41 04 00 00
	00 00		 mov	 DWORD PTR [ecx+4], 0
  0000f	c7 41 08 00 00
	00 00		 mov	 DWORD PTR [ecx+8], 0
  00016	c3		 ret	 0
??0?$_Vector_val@U?$_Simple_types@UExtraClassAttack@@@std@@@std@@QAE@XZ ENDP ; std::_Vector_val<std::_Simple_types<ExtraClassAttack> >::_Vector_val<std::_Simple_types<ExtraClassAttack> >
_TEXT	ENDS
; Function compile flags: /Ogtp
; File c:\program files (x86)\microsoft visual studio 14.0\vc\include\vector
;	COMDAT ?_Myend@?$_Vector_alloc@U?$_Vec_base_types@UExtraClassAttack@@V?$allocator@UExtraClassAttack@@@std@@@std@@@std@@QBEABQAUExtraClassAttack@@XZ
_TEXT	SEGMENT
?_Myend@?$_Vector_alloc@U?$_Vec_base_types@UExtraClassAttack@@V?$allocator@UExtraClassAttack@@@std@@@std@@@std@@QBEABQAUExtraClassAttack@@XZ PROC ; std::_Vector_alloc<std::_Vec_base_types<ExtraClassAttack,std::allocator<ExtraClassAttack> > >::_Myend, COMDAT
; _this$ = ecx

; 667  : 		return (_Get_data()._Myend);

  00000	8d 41 08	 lea	 eax, DWORD PTR [ecx+8]

; 668  : 		}

  00003	c3		 ret	 0
?_Myend@?$_Vector_alloc@U?$_Vec_base_types@UExtraClassAttack@@V?$allocator@UExtraClassAttack@@@std@@@std@@@std@@QBEABQAUExtraClassAttack@@XZ ENDP ; std::_Vector_alloc<std::_Vec_base_types<ExtraClassAttack,std::allocator<ExtraClassAttack> > >::_Myend
_TEXT	ENDS
; Function compile flags: /Ogtp
; File c:\program files (x86)\microsoft visual studio 14.0\vc\include\vector
;	COMDAT ?_Myend@?$_Vector_alloc@U?$_Vec_base_types@UExtraClassAttack@@V?$allocator@UExtraClassAttack@@@std@@@std@@@std@@QAEAAPAUExtraClassAttack@@XZ
_TEXT	SEGMENT
?_Myend@?$_Vector_alloc@U?$_Vec_base_types@UExtraClassAttack@@V?$allocator@UExtraClassAttack@@@std@@@std@@@std@@QAEAAPAUExtraClassAttack@@XZ PROC ; std::_Vector_alloc<std::_Vec_base_types<ExtraClassAttack,std::allocator<ExtraClassAttack> > >::_Myend, COMDAT
; _this$ = ecx

; 662  : 		return (_Get_data()._Myend);

  00000	8d 41 08	 lea	 eax, DWORD PTR [ecx+8]

; 663  : 		}

  00003	c3		 ret	 0
?_Myend@?$_Vector_alloc@U?$_Vec_base_types@UExtraClassAttack@@V?$allocator@UExtraClassAttack@@@std@@@std@@@std@@QAEAAPAUExtraClassAttack@@XZ ENDP ; std::_Vector_alloc<std::_Vec_base_types<ExtraClassAttack,std::allocator<ExtraClassAttack> > >::_Myend
_TEXT	ENDS
; Function compile flags: /Ogtp
; File c:\program files (x86)\microsoft visual studio 14.0\vc\include\vector
;	COMDAT ?_Mylast@?$_Vector_alloc@U?$_Vec_base_types@UExtraClassAttack@@V?$allocator@UExtraClassAttack@@@std@@@std@@@std@@QBEABQAUExtraClassAttack@@XZ
_TEXT	SEGMENT
?_Mylast@?$_Vector_alloc@U?$_Vec_base_types@UExtraClassAttack@@V?$allocator@UExtraClassAttack@@@std@@@std@@@std@@QBEABQAUExtraClassAttack@@XZ PROC ; std::_Vector_alloc<std::_Vec_base_types<ExtraClassAttack,std::allocator<ExtraClassAttack> > >::_Mylast, COMDAT
; _this$ = ecx

; 657  : 		return (_Get_data()._Mylast);

  00000	8d 41 04	 lea	 eax, DWORD PTR [ecx+4]

; 658  : 		}

  00003	c3		 ret	 0
?_Mylast@?$_Vector_alloc@U?$_Vec_base_types@UExtraClassAttack@@V?$allocator@UExtraClassAttack@@@std@@@std@@@std@@QBEABQAUExtraClassAttack@@XZ ENDP ; std::_Vector_alloc<std::_Vec_base_types<ExtraClassAttack,std::allocator<ExtraClassAttack> > >::_Mylast
_TEXT	ENDS
; Function compile flags: /Ogtp
; File c:\program files (x86)\microsoft visual studio 14.0\vc\include\vector
;	COMDAT ?_Mylast@?$_Vector_alloc@U?$_Vec_base_types@UExtraClassAttack@@V?$allocator@UExtraClassAttack@@@std@@@std@@@std@@QAEAAPAUExtraClassAttack@@XZ
_TEXT	SEGMENT
?_Mylast@?$_Vector_alloc@U?$_Vec_base_types@UExtraClassAttack@@V?$allocator@UExtraClassAttack@@@std@@@std@@@std@@QAEAAPAUExtraClassAttack@@XZ PROC ; std::_Vector_alloc<std::_Vec_base_types<ExtraClassAttack,std::allocator<ExtraClassAttack> > >::_Mylast, COMDAT
; _this$ = ecx

; 652  : 		return (_Get_data()._Mylast);

  00000	8d 41 04	 lea	 eax, DWORD PTR [ecx+4]

; 653  : 		}

  00003	c3		 ret	 0
?_Mylast@?$_Vector_alloc@U?$_Vec_base_types@UExtraClassAttack@@V?$allocator@UExtraClassAttack@@@std@@@std@@@std@@QAEAAPAUExtraClassAttack@@XZ ENDP ; std::_Vector_alloc<std::_Vec_base_types<ExtraClassAttack,std::allocator<ExtraClassAttack> > >::_Mylast
_TEXT	ENDS
; Function compile flags: /Ogtp
; File c:\program files (x86)\microsoft visual studio 14.0\vc\include\vector
;	COMDAT ?_Myfirst@?$_Vector_alloc@U?$_Vec_base_types@UExtraClassAttack@@V?$allocator@UExtraClassAttack@@@std@@@std@@@std@@QBEABQAUExtraClassAttack@@XZ
_TEXT	SEGMENT
?_Myfirst@?$_Vector_alloc@U?$_Vec_base_types@UExtraClassAttack@@V?$allocator@UExtraClassAttack@@@std@@@std@@@std@@QBEABQAUExtraClassAttack@@XZ PROC ; std::_Vector_alloc<std::_Vec_base_types<ExtraClassAttack,std::allocator<ExtraClassAttack> > >::_Myfirst, COMDAT
; _this$ = ecx

; 647  : 		return (_Get_data()._Myfirst);

  00000	8b c1		 mov	 eax, ecx

; 648  : 		}

  00002	c3		 ret	 0
?_Myfirst@?$_Vector_alloc@U?$_Vec_base_types@UExtraClassAttack@@V?$allocator@UExtraClassAttack@@@std@@@std@@@std@@QBEABQAUExtraClassAttack@@XZ ENDP ; std::_Vector_alloc<std::_Vec_base_types<ExtraClassAttack,std::allocator<ExtraClassAttack> > >::_Myfirst
_TEXT	ENDS
; Function compile flags: /Ogtp
; File c:\program files (x86)\microsoft visual studio 14.0\vc\include\vector
;	COMDAT ?_Myfirst@?$_Vector_alloc@U?$_Vec_base_types@UExtraClassAttack@@V?$allocator@UExtraClassAttack@@@std@@@std@@@std@@QAEAAPAUExtraClassAttack@@XZ
_TEXT	SEGMENT
?_Myfirst@?$_Vector_alloc@U?$_Vec_base_types@UExtraClassAttack@@V?$allocator@UExtraClassAttack@@@std@@@std@@@std@@QAEAAPAUExtraClassAttack@@XZ PROC ; std::_Vector_alloc<std::_Vec_base_types<ExtraClassAttack,std::allocator<ExtraClassAttack> > >::_Myfirst, COMDAT
; _this$ = ecx

; 642  : 		return (_Get_data()._Myfirst);

  00000	8b c1		 mov	 eax, ecx

; 643  : 		}

  00002	c3		 ret	 0
?_Myfirst@?$_Vector_alloc@U?$_Vec_base_types@UExtraClassAttack@@V?$allocator@UExtraClassAttack@@@std@@@std@@@std@@QAEAAPAUExtraClassAttack@@XZ ENDP ; std::_Vector_alloc<std::_Vec_base_types<ExtraClassAttack,std::allocator<ExtraClassAttack> > >::_Myfirst
_TEXT	ENDS
; Function compile flags: /Ogtp
; File c:\program files (x86)\microsoft visual studio 14.0\vc\include\vector
;	COMDAT ?_Get_data@?$_Vector_alloc@U?$_Vec_base_types@UExtraClassAttack@@V?$allocator@UExtraClassAttack@@@std@@@std@@@std@@QBEABV?$_Vector_val@U?$_Simple_types@UExtraClassAttack@@@std@@@2@XZ
_TEXT	SEGMENT
?_Get_data@?$_Vector_alloc@U?$_Vec_base_types@UExtraClassAttack@@V?$allocator@UExtraClassAttack@@@std@@@std@@@std@@QBEABV?$_Vector_val@U?$_Simple_types@UExtraClassAttack@@@std@@@2@XZ PROC ; std::_Vector_alloc<std::_Vec_base_types<ExtraClassAttack,std::allocator<ExtraClassAttack> > >::_Get_data, COMDAT
; _this$ = ecx

; 637  : 		return (_Mypair._Get_second());

  00000	8b c1		 mov	 eax, ecx

; 638  : 		}

  00002	c3		 ret	 0
?_Get_data@?$_Vector_alloc@U?$_Vec_base_types@UExtraClassAttack@@V?$allocator@UExtraClassAttack@@@std@@@std@@@std@@QBEABV?$_Vector_val@U?$_Simple_types@UExtraClassAttack@@@std@@@2@XZ ENDP ; std::_Vector_alloc<std::_Vec_base_types<ExtraClassAttack,std::allocator<ExtraClassAttack> > >::_Get_data
_TEXT	ENDS
; Function compile flags: /Ogtp
; File c:\program files (x86)\microsoft visual studio 14.0\vc\include\vector
;	COMDAT ?_Get_data@?$_Vector_alloc@U?$_Vec_base_types@UExtraClassAttack@@V?$allocator@UExtraClassAttack@@@std@@@std@@@std@@QAEAAV?$_Vector_val@U?$_Simple_types@UExtraClassAttack@@@std@@@2@XZ
_TEXT	SEGMENT
?_Get_data@?$_Vector_alloc@U?$_Vec_base_types@UExtraClassAttack@@V?$allocator@UExtraClassAttack@@@std@@@std@@@std@@QAEAAV?$_Vector_val@U?$_Simple_types@UExtraClassAttack@@@std@@@2@XZ PROC ; std::_Vector_alloc<std::_Vec_base_types<ExtraClassAttack,std::allocator<ExtraClassAttack> > >::_Get_data, COMDAT
; _this$ = ecx

; 632  : 		return (_Mypair._Get_second());

  00000	8b c1		 mov	 eax, ecx

; 633  : 		}

  00002	c3		 ret	 0
?_Get_data@?$_Vector_alloc@U?$_Vec_base_types@UExtraClassAttack@@V?$allocator@UExtraClassAttack@@@std@@@std@@@std@@QAEAAV?$_Vector_val@U?$_Simple_types@UExtraClassAttack@@@std@@@2@XZ ENDP ; std::_Vector_alloc<std::_Vec_base_types<ExtraClassAttack,std::allocator<ExtraClassAttack> > >::_Get_data
_TEXT	ENDS
; Function compile flags: /Ogtp
; File c:\program files (x86)\microsoft visual studio 14.0\vc\include\vector
;	COMDAT ?_Getal@?$_Vector_alloc@U?$_Vec_base_types@UExtraClassAttack@@V?$allocator@UExtraClassAttack@@@std@@@std@@@std@@QBEABU?$_Wrap_alloc@V?$allocator@UExtraClassAttack@@@std@@@2@XZ
_TEXT	SEGMENT
?_Getal@?$_Vector_alloc@U?$_Vec_base_types@UExtraClassAttack@@V?$allocator@UExtraClassAttack@@@std@@@std@@@std@@QBEABU?$_Wrap_alloc@V?$allocator@UExtraClassAttack@@@std@@@2@XZ PROC ; std::_Vector_alloc<std::_Vec_base_types<ExtraClassAttack,std::allocator<ExtraClassAttack> > >::_Getal, COMDAT
; _this$ = ecx

; 627  : 		return (_Mypair._Get_first());

  00000	8b c1		 mov	 eax, ecx

; 628  : 		}

  00002	c3		 ret	 0
?_Getal@?$_Vector_alloc@U?$_Vec_base_types@UExtraClassAttack@@V?$allocator@UExtraClassAttack@@@std@@@std@@@std@@QBEABU?$_Wrap_alloc@V?$allocator@UExtraClassAttack@@@std@@@2@XZ ENDP ; std::_Vector_alloc<std::_Vec_base_types<ExtraClassAttack,std::allocator<ExtraClassAttack> > >::_Getal
_TEXT	ENDS
; Function compile flags: /Ogtp
; File c:\program files (x86)\microsoft visual studio 14.0\vc\include\vector
;	COMDAT ?_Getal@?$_Vector_alloc@U?$_Vec_base_types@UExtraClassAttack@@V?$allocator@UExtraClassAttack@@@std@@@std@@@std@@QAEAAU?$_Wrap_alloc@V?$allocator@UExtraClassAttack@@@std@@@2@XZ
_TEXT	SEGMENT
?_Getal@?$_Vector_alloc@U?$_Vec_base_types@UExtraClassAttack@@V?$allocator@UExtraClassAttack@@@std@@@std@@@std@@QAEAAU?$_Wrap_alloc@V?$allocator@UExtraClassAttack@@@std@@@2@XZ PROC ; std::_Vector_alloc<std::_Vec_base_types<ExtraClassAttack,std::allocator<ExtraClassAttack> > >::_Getal, COMDAT
; _this$ = ecx

; 622  : 		return (_Mypair._Get_first());

  00000	8b c1		 mov	 eax, ecx

; 623  : 		}

  00002	c3		 ret	 0
?_Getal@?$_Vector_alloc@U?$_Vec_base_types@UExtraClassAttack@@V?$allocator@UExtraClassAttack@@@std@@@std@@@std@@QAEAAU?$_Wrap_alloc@V?$allocator@UExtraClassAttack@@@std@@@2@XZ ENDP ; std::_Vector_alloc<std::_Vec_base_types<ExtraClassAttack,std::allocator<ExtraClassAttack> > >::_Getal
_TEXT	ENDS
; Function compile flags: /Ogtp
; File c:\program files (x86)\microsoft visual studio 14.0\vc\include\vector
;	COMDAT ?_Swap_all@?$_Vector_alloc@U?$_Vec_base_types@UExtraClassAttack@@V?$allocator@UExtraClassAttack@@@std@@@std@@@std@@QAEXAAV12@@Z
_TEXT	SEGMENT
__Right$ = 8						; size = 4
?_Swap_all@?$_Vector_alloc@U?$_Vec_base_types@UExtraClassAttack@@V?$allocator@UExtraClassAttack@@@std@@@std@@@std@@QAEXAAV12@@Z PROC ; std::_Vector_alloc<std::_Vec_base_types<ExtraClassAttack,std::allocator<ExtraClassAttack> > >::_Swap_all, COMDAT
; _this$ = ecx

; 617  : 		_Get_data()._Swap_all(_Right._Get_data());
; 618  : 		}

  00000	c2 04 00	 ret	 4
?_Swap_all@?$_Vector_alloc@U?$_Vec_base_types@UExtraClassAttack@@V?$allocator@UExtraClassAttack@@@std@@@std@@@std@@QAEXAAV12@@Z ENDP ; std::_Vector_alloc<std::_Vec_base_types<ExtraClassAttack,std::allocator<ExtraClassAttack> > >::_Swap_all
_TEXT	ENDS
; Function compile flags: /Ogtp
; File c:\program files (x86)\microsoft visual studio 14.0\vc\include\vector
;	COMDAT ?_Orphan_all@?$_Vector_alloc@U?$_Vec_base_types@UExtraClassAttack@@V?$allocator@UExtraClassAttack@@@std@@@std@@@std@@QAEXXZ
_TEXT	SEGMENT
?_Orphan_all@?$_Vector_alloc@U?$_Vec_base_types@UExtraClassAttack@@V?$allocator@UExtraClassAttack@@@std@@@std@@@std@@QAEXXZ PROC ; std::_Vector_alloc<std::_Vec_base_types<ExtraClassAttack,std::allocator<ExtraClassAttack> > >::_Orphan_all, COMDAT
; _this$ = ecx

; 612  : 		_Get_data()._Orphan_all();
; 613  : 		}

  00000	c3		 ret	 0
?_Orphan_all@?$_Vector_alloc@U?$_Vec_base_types@UExtraClassAttack@@V?$allocator@UExtraClassAttack@@@std@@@std@@@std@@QAEXXZ ENDP ; std::_Vector_alloc<std::_Vec_base_types<ExtraClassAttack,std::allocator<ExtraClassAttack> > >::_Orphan_all
_TEXT	ENDS
; Function compile flags: /Ogtp
; File c:\program files (x86)\microsoft visual studio 14.0\vc\include\vector
;	COMDAT ?_Swap_alloc@?$_Vector_alloc@U?$_Vec_base_types@UExtraClassAttack@@V?$allocator@UExtraClassAttack@@@std@@@std@@@std@@QAEXAAV12@@Z
_TEXT	SEGMENT
__Right$ = 8						; size = 4
?_Swap_alloc@?$_Vector_alloc@U?$_Vec_base_types@UExtraClassAttack@@V?$allocator@UExtraClassAttack@@@std@@@std@@@std@@QAEXAAV12@@Z PROC ; std::_Vector_alloc<std::_Vec_base_types<ExtraClassAttack,std::allocator<ExtraClassAttack> > >::_Swap_alloc, COMDAT
; _this$ = ecx

; 534  : 		_Pocs(_Getal(), _Right._Getal());
; 535  : 		}

  00000	c2 04 00	 ret	 4
?_Swap_alloc@?$_Vector_alloc@U?$_Vec_base_types@UExtraClassAttack@@V?$allocator@UExtraClassAttack@@@std@@@std@@@std@@QAEXAAV12@@Z ENDP ; std::_Vector_alloc<std::_Vec_base_types<ExtraClassAttack,std::allocator<ExtraClassAttack> > >::_Swap_alloc
_TEXT	ENDS
; Function compile flags: /Ogtp
; File c:\program files (x86)\microsoft visual studio 14.0\vc\include\vector
;	COMDAT ??0?$_Vector_alloc@U?$_Vec_base_types@UExtraClassAttack@@V?$allocator@UExtraClassAttack@@@std@@@std@@@std@@QAE@ABV?$allocator@UExtraClassAttack@@@1@@Z
_TEXT	SEGMENT
__Al$ = 8						; size = 4
??0?$_Vector_alloc@U?$_Vec_base_types@UExtraClassAttack@@V?$allocator@UExtraClassAttack@@@std@@@std@@@std@@QAE@ABV?$allocator@UExtraClassAttack@@@1@@Z PROC ; std::_Vector_alloc<std::_Vec_base_types<ExtraClassAttack,std::allocator<ExtraClassAttack> > >::_Vector_alloc<std::_Vec_base_types<ExtraClassAttack,std::allocator<ExtraClassAttack> > >, COMDAT
; _this$ = ecx

; 480  : 		_Myfirst = pointer();

  00000	c7 01 00 00 00
	00		 mov	 DWORD PTR [ecx], 0

; 515  : 		}

  00006	8b c1		 mov	 eax, ecx

; 481  : 		_Mylast = pointer();

  00008	c7 41 04 00 00
	00 00		 mov	 DWORD PTR [ecx+4], 0

; 482  : 		_Myend = pointer();

  0000f	c7 41 08 00 00
	00 00		 mov	 DWORD PTR [ecx+8], 0

; 515  : 		}

  00016	c2 04 00	 ret	 4
??0?$_Vector_alloc@U?$_Vec_base_types@UExtraClassAttack@@V?$allocator@UExtraClassAttack@@@std@@@std@@@std@@QAE@ABV?$allocator@UExtraClassAttack@@@1@@Z ENDP ; std::_Vector_alloc<std::_Vec_base_types<ExtraClassAttack,std::allocator<ExtraClassAttack> > >::_Vector_alloc<std::_Vec_base_types<ExtraClassAttack,std::allocator<ExtraClassAttack> > >
_TEXT	ENDS
; Function compile flags: /Ogtp
; File c:\program files (x86)\microsoft visual studio 14.0\vc\include\xmemory0
;	COMDAT ?max_size@?$_Wrap_alloc@V?$allocator@UExtraClassAttack@@@std@@@std@@QBEIU_Nil@2@@Z
_TEXT	SEGMENT
___formal$ = 8						; size = 1
?max_size@?$_Wrap_alloc@V?$allocator@UExtraClassAttack@@@std@@@std@@QBEIU_Nil@2@@Z PROC ; std::_Wrap_alloc<std::allocator<ExtraClassAttack> >::max_size, COMDAT
; _this$ = ecx

; 930  : 		return (_Mytraits::max_size(*this));

  00000	b8 ff ff ff 1f	 mov	 eax, 536870911		; 1fffffffH

; 931  : 		}

  00005	c2 04 00	 ret	 4
?max_size@?$_Wrap_alloc@V?$allocator@UExtraClassAttack@@@std@@@std@@QBEIU_Nil@2@@Z ENDP ; std::_Wrap_alloc<std::allocator<ExtraClassAttack> >::max_size
_TEXT	ENDS
; Function compile flags: /Ogtp
; File c:\program files (x86)\microsoft visual studio 14.0\vc\include\xmemory0
;	COMDAT ?deallocate@?$_Wrap_alloc@V?$allocator@UExtraClassAttack@@@std@@@std@@QAEXPAUExtraClassAttack@@I@Z
_TEXT	SEGMENT
__Ptr$ = 8						; size = 4
__Count$ = 12						; size = 4
?deallocate@?$_Wrap_alloc@V?$allocator@UExtraClassAttack@@@std@@@std@@QAEXPAUExtraClassAttack@@I@Z PROC ; std::_Wrap_alloc<std::allocator<ExtraClassAttack> >::deallocate, COMDAT
; _this$ = ecx

; 908  : 		{	// deallocate object at _Ptr, ignore size

  00000	55		 push	 ebp
  00001	8b ec		 mov	 ebp, esp

; 100  : 	_SCL_SECURE_ALWAYS_VALIDATE(_Count <= (size_t)(-1) / _Sz);

  00003	8b 45 0c	 mov	 eax, DWORD PTR __Count$[ebp]

; 139  : 	}
; 140  : 
; 141  : 		// TEMPLATE FUNCTION _Construct
; 142  : template<class _Ty1,
; 143  : 	class _Ty2> inline
; 144  : 	void _Construct(_Ty1 *_Ptr, _Ty2&& _Val)
; 145  : 	{	// construct object at _Ptr with value _Val
; 146  : 	void *_Vptr = _Ptr;
; 147  : 	::new (_Vptr) _Ty1(_STD forward<_Ty2>(_Val));
; 148  : 	}
; 149  : 
; 150  : template<class _Ty1> inline
; 151  : 	void _Construct(_Ty1 *_Ptr)
; 152  : 	{	// construct object at _Ptr with default value
; 153  : 	void *_Vptr = _Ptr;
; 154  : 
; 155  : 	::new (_Vptr) _Ty1();
; 156  : 	}
; 157  : 
; 158  : 		// TEMPLATE FUNCTION _Destroy
; 159  : template<class _Ty> inline
; 160  : 	void _Destroy(_Ty *_Ptr)
; 161  : 	{	// destroy object at _Ptr
; 162  : 	_Ptr->~_Ty();
; 163  : 	}
; 164  : 
; 165  : 		// TEMPLATE FUNCTION _Destroy_range
; 166  : template<class _Alloc> inline
; 167  : 	void _Destroy_range(typename _Alloc::pointer _First,
; 168  : 		typename _Alloc::pointer _Last, _Alloc& _Al,
; 169  : 		_Nonscalar_ptr_iterator_tag)
; 170  : 	{	// destroy [_First, _Last), arbitrary type
; 171  : 	for (; _First != _Last; ++_First)
; 172  : 		_Al.destroy(_STD addressof(*_First));
; 173  : 	}
; 174  : 
; 175  : template<class _Alloc> inline
; 176  : 	void _Destroy_range(typename _Alloc::pointer _First,
; 177  : 		typename _Alloc::pointer _Last, _Alloc& _Al,
; 178  : 		_Scalar_ptr_iterator_tag)
; 179  : 	{	// destroy [_First, _Last), scalar type (do nothing)
; 180  : 	}
; 181  : 
; 182  : template<class _Alloc> inline
; 183  : 	void _Destroy_range(typename _Alloc::pointer _First,
; 184  : 		typename _Alloc::pointer _Last, _Alloc& _Al)
; 185  : 	{	// destroy [_First, _Last)
; 186  : 	_Destroy_range(_First, _Last, _Al, _Ptr_cat(_First, _Last));
; 187  : 	}
; 188  : 
; 189  : 		// TEMPLATE CLASS _Is_simple_alloc
; 190  : template<class _Alty>
; 191  : 	struct _Is_simple_alloc
; 192  : 		: _Cat_base<is_same<typename _Alty::size_type, size_t>::value
; 193  : 		&& is_same<typename _Alty::difference_type, ptrdiff_t>::value
; 194  : 		&& is_same<typename _Alty::pointer,
; 195  : 			typename _Alty::value_type *>::value
; 196  : 		&& is_same<typename _Alty::const_pointer,
; 197  : 			const typename _Alty::value_type *>::value
; 198  : 		&& is_same<typename _Alty::reference,
; 199  : 			typename _Alty::value_type&>::value
; 200  : 		&& is_same<typename _Alty::const_reference,
; 201  : 			const typename _Alty::value_type&>::value>
; 202  : 	{	// tests if allocator has simple addressing
; 203  : 	};
; 204  : 
; 205  : 		// TEMPLATE CLASS _Simple_types
; 206  : template<class _Value_type>
; 207  : 	struct _Simple_types
; 208  : 	{	// wraps types needed by iterators
; 209  : 	typedef _Value_type value_type;
; 210  : 	typedef size_t size_type;
; 211  : 	typedef ptrdiff_t difference_type;
; 212  : 	typedef value_type *pointer;
; 213  : 	typedef const value_type *const_pointer;
; 214  : 	typedef value_type& reference;
; 215  : 	typedef const value_type& const_reference;
; 216  : 	};
; 217  : 
; 218  : 		// TEMPLATE CLASS _Get_voidptr
; 219  : template<class _Alty,
; 220  : 	class _Pointer>
; 221  : 	struct _Get_voidptr
; 222  : 	{	// get void pointer for allocator
; 223  : 	typedef typename _Alty::template rebind<void>::other _Alvoid;
; 224  : 	typedef typename _Alvoid::pointer type;
; 225  : 	};
; 226  : 
; 227  : template<class _Alty,
; 228  : 	class _Ty>
; 229  : 	struct _Get_voidptr<_Alty, _Ty *>
; 230  : 	{	// get raw void pointer for allocator
; 231  : 	typedef void *type;
; 232  : 	};
; 233  : 
; 234  : 		// TEMPLATE STRUCT _Get_first_parameter
; 235  : template<class _Ty>
; 236  : 	struct _Get_first_parameter;
; 237  : 
; 238  : template<template<class, class...> class _Ty,
; 239  : 	class _First,
; 240  : 	class... _Rest>
; 241  : 	struct _Get_first_parameter<_Ty<_First, _Rest...> >
; 242  : 	{	// given _Ty<_First, _Rest...>, extract _First
; 243  : 	typedef _First type;
; 244  : 	};
; 245  : 
; 246  : 		// TEMPLATE STRUCT _Replace_first_parameter
; 247  : template<class _Newfirst,
; 248  : 	class _Ty>
; 249  : 	struct _Replace_first_parameter;
; 250  : 
; 251  : template<class _Newfirst,
; 252  : 	template<class, class...> class _Ty,
; 253  : 	class _First,
; 254  : 	class... _Rest>
; 255  : 	struct _Replace_first_parameter<_Newfirst, _Ty<_First, _Rest...> >
; 256  : 	{	// given _Ty<_First, _Rest...>, replace _First
; 257  : 	typedef _Ty<_Newfirst, _Rest...> type;
; 258  : 	};
; 259  : 
; 260  : 		// TEMPLATE STRUCT _Get_element_type
; 261  : template<class _Ty>
; 262  : 	struct _Get_element_type
; 263  : 	_GET_TYPE_OR_DEFAULT(element_type,
; 264  : 		typename _Get_first_parameter<_Uty>::type);
; 265  : 
; 266  : 		// TEMPLATE STRUCT _Get_ptr_difference_type
; 267  : template<class _Ty>
; 268  : 	struct _Get_ptr_difference_type
; 269  : 	_GET_TYPE_OR_DEFAULT(difference_type,
; 270  : 		ptrdiff_t);
; 271  : 
; 272  : 		// TEMPLATE STRUCT _Get_rebind_type
; 273  : template<class _Ty,
; 274  : 	class _Other>
; 275  : 	struct _Get_rebind_type
; 276  : 	_GET_TYPE_OR_DEFAULT(template rebind<_Other>::other,
; 277  : 		typename _Replace_first_parameter<_Other _COMMA _Uty>::type);
; 278  : 
; 279  : 		// TEMPLATE CLASS pointer_traits
; 280  : template<class _Ty>
; 281  : 	struct pointer_traits
; 282  : 	{	// defines traits for arbitrary pointers
; 283  : 	typedef typename _Get_element_type<_Ty>::type element_type;
; 284  : 	typedef _Ty pointer;
; 285  : 	typedef typename _Get_ptr_difference_type<_Ty>::type difference_type;
; 286  : 
; 287  : 	template<class _Other>
; 288  : 		using rebind = typename _Get_rebind_type<_Ty, _Other>::type;
; 289  : 
; 290  : 	typedef typename _If<is_void<element_type>::value,
; 291  : 		char&,
; 292  : 		typename add_lvalue_reference<element_type>::type>::type _Reftype;
; 293  : 
; 294  : 	static pointer pointer_to(_Reftype _Val)
; 295  : 		{	// convert raw reference to pointer
; 296  : 		return (_Ty::pointer_to(_Val));
; 297  : 		}
; 298  : 	};
; 299  : 
; 300  : 		// TEMPLATE CLASS pointer_traits<_Ty *>
; 301  : template<class _Ty>
; 302  : 	struct pointer_traits<_Ty *>
; 303  : 	{	// defines traits for raw pointers
; 304  : 	typedef _Ty element_type;
; 305  : 	typedef _Ty *pointer;
; 306  : 	typedef ptrdiff_t difference_type;
; 307  : 
; 308  : 	template<class _Other>
; 309  : 		using rebind = _Other *;
; 310  : 
; 311  : 	typedef typename _If<is_void<_Ty>::value,
; 312  : 		char&,
; 313  : 		typename add_lvalue_reference<_Ty>::type>::type _Reftype;
; 314  : 
; 315  : 	static pointer pointer_to(_Reftype _Val)
; 316  : 		{	// convert raw reference to pointer
; 317  : 		return (_STD addressof(_Val));
; 318  : 		}
; 319  : 	};
; 320  : 
; 321  : 		// TEMPLATE STRUCT _Get_pointer_type
; 322  : template<class _Ty>
; 323  : 	struct _Get_pointer_type
; 324  : 	_GET_TYPE_OR_DEFAULT(pointer,
; 325  : 		typename _Ty::value_type *);
; 326  : 
; 327  : 		// TEMPLATE STRUCT _Get_const_pointer_type
; 328  : template<class _Ty>
; 329  : 	struct _Get_const_pointer_type
; 330  : 	_GET_TYPE_OR_DEFAULT(const_pointer,
; 331  : 		typename pointer_traits<typename _Get_pointer_type<_Ty>::type>
; 332  : 			::template rebind<const typename _Ty::value_type>);
; 333  : 
; 334  : 		// TEMPLATE STRUCT _Get_void_pointer_type
; 335  : template<class _Ty>
; 336  : 	struct _Get_void_pointer_type
; 337  : 	_GET_TYPE_OR_DEFAULT(void_pointer,
; 338  : 		typename pointer_traits<typename _Get_pointer_type<_Ty>::type>
; 339  : 			::template rebind<void>);
; 340  : 
; 341  : 		// TEMPLATE STRUCT _Get_const_void_pointer_type
; 342  : template<class _Ty>
; 343  : 	struct _Get_const_void_pointer_type
; 344  : 	_GET_TYPE_OR_DEFAULT(const_void_pointer,
; 345  : 		typename pointer_traits<typename _Get_pointer_type<_Ty>::type>
; 346  : 			::template rebind<const void>);
; 347  : 
; 348  : 		// TEMPLATE STRUCT _Get_difference_type
; 349  : template<class _Ty>
; 350  : 	struct _Get_difference_type
; 351  : 	_GET_TYPE_OR_DEFAULT(difference_type,
; 352  : 		typename _Get_ptr_difference_type<
; 353  : 			typename _Get_pointer_type<_Ty>::type>::type);
; 354  : 
; 355  : 		// TEMPLATE STRUCT _Get_size_type
; 356  : template<class _Ty>
; 357  : 	struct _Get_size_type
; 358  : 	_GET_TYPE_OR_DEFAULT(size_type,
; 359  : 		typename make_unsigned<
; 360  : 			typename _Get_difference_type<_Ty>::type>::type);
; 361  : 
; 362  : 		// TEMPLATE STRUCT _Get_propagate_on_container_copy
; 363  : template<class _Ty>
; 364  : 	struct _Get_propagate_on_container_copy
; 365  : 	_GET_TYPE_OR_DEFAULT(propagate_on_container_copy_assignment,
; 366  : 		false_type);
; 367  : 
; 368  : 		// TEMPLATE STRUCT _Get_propagate_on_container_move
; 369  : template<class _Ty>
; 370  : 	struct _Get_propagate_on_container_move
; 371  : 	_GET_TYPE_OR_DEFAULT(propagate_on_container_move_assignment,
; 372  : 		false_type);
; 373  : 
; 374  : 		// TEMPLATE STRUCT _Get_propagate_on_container_swap
; 375  : template<class _Ty>
; 376  : 	struct _Get_propagate_on_container_swap
; 377  : 	_GET_TYPE_OR_DEFAULT(propagate_on_container_swap,
; 378  : 		false_type);
; 379  : 
; 380  : 		// TEMPLATE STRUCT _Get_is_always_equal
; 381  : template<class _Ty>
; 382  : 	struct _Get_is_always_equal
; 383  : 	_GET_TYPE_OR_DEFAULT(is_always_equal,
; 384  : 		typename is_empty<_Ty>::type);
; 385  : 
; 386  : 		// STRUCT _Alloc_allocate
; 387  : struct _Alloc_allocate
; 388  : 	{	// determines allocator_traits<_Alloc>
; 389  : 		// ::allocate(size_type, const_void_pointer)
; 390  : 
; 391  : 	template<class _Alloc,
; 392  : 		class _Size_type,
; 393  : 		class _Const_void_pointer>
; 394  : 		static auto _Fn(int, _Alloc& _Al,
; 395  : 			_Size_type _Count,
; 396  : 			_Const_void_pointer _Hint)
; 397  : 			-> decltype(_Al.allocate(_Count, _Hint))
; 398  : 		{	// call allocator supplied version
; 399  : 		return (_Al.allocate(_Count, _Hint));
; 400  : 		}
; 401  : 
; 402  : 	template<class _Alloc,
; 403  : 		class _Size_type,
; 404  : 		class _Const_void_pointer>
; 405  : 		static auto _Fn(_Wrap_int, _Alloc& _Al,
; 406  : 			_Size_type _Count,
; 407  : 			_Const_void_pointer)
; 408  : 			-> decltype(_Al.allocate(_Count))
; 409  : 		{	// call default version
; 410  : 		return (_Al.allocate(_Count));
; 411  : 		}
; 412  : 	};
; 413  : 
; 414  : 		// STRUCT _Alloc_construct
; 415  : struct _Alloc_construct
; 416  : 	{	// determines allocator_traits<_Ty>
; 417  : 		// ::construct(_Ty&, _Objty *, _Types&&...)
; 418  : 
; 419  : 	template<class _Ty,
; 420  : 		class _Objty,
; 421  : 		class... _Types>
; 422  : 		static auto _Fn(int, _Ty& _Al, _Objty *_Ptr,
; 423  : 			_Types&&... _Args)
; 424  : 			-> void_t<decltype(
; 425  : 				_Al.construct(_Ptr, _STD forward<_Types>(_Args)...))>
; 426  : 		{	// call allocator supplied version
; 427  : 		_Al.construct(_Ptr, _STD forward<_Types>(_Args)...);
; 428  : 		}
; 429  : 
; 430  : 	template<class _Ty,
; 431  : 		class _Objty,
; 432  : 		class... _Types>
; 433  : 		static void _Fn(_Wrap_int, _Ty&, _Objty *_Ptr,
; 434  : 			_Types&&... _Args)
; 435  : 		{	// call default version
; 436  : 		::new (static_cast<void *>(_Ptr))
; 437  : 			_Objty(_STD forward<_Types>(_Args)...);
; 438  : 		}
; 439  : 
; 440  : 	};
; 441  : 
; 442  : 		// STRUCT _Alloc_destroy
; 443  : struct _Alloc_destroy
; 444  : 	{	// determines allocator_traits<_Ty>::destroy(_Ty&, _Objty *)
; 445  : 	template<class _Ty,
; 446  : 		class _Objty>
; 447  : 		static auto _Fn(int, _Ty& _Al, _Objty *_Ptr)
; 448  : 			-> void_t<decltype(_Al.destroy(_Ptr))>
; 449  : 		{	// call allocator supplied version
; 450  : 		_Al.destroy(_Ptr);
; 451  : 		}
; 452  : 
; 453  : 	template<class _Ty,
; 454  : 		class _Objty>
; 455  : 		static void _Fn(_Wrap_int, _Ty&, _Objty *_Ptr)
; 456  : 		{	// call default version
; 457  : 		_Ptr->~_Objty();
; 458  : 		}
; 459  : 	};
; 460  : 
; 461  : 		// STRUCT _Alloc_max_size
; 462  : struct _Alloc_max_size
; 463  : 	{	// determines allocator_traits<_Ty>::max_size(const _Ty&)
; 464  : 	template<class _Ty>
; 465  : 		static auto _Fn(int, const _Ty& _Al) _NOEXCEPT
; 466  : 			-> decltype(_Al.max_size())
; 467  : 		{	// call allocator supplied version
; 468  : 		return (_Al.max_size());
; 469  : 		}
; 470  : 
; 471  : 	template<class _Ty>
; 472  : 		static auto _Fn(_Wrap_int, const _Ty&) _NOEXCEPT
; 473  : 			-> typename _Get_size_type<_Ty>::type
; 474  : 		{	// call default version
; 475  : 		return ((numeric_limits<typename _Get_size_type<_Ty>::type>::max)());
; 476  : 		}
; 477  : 	};
; 478  : 
; 479  : 		// STRUCT _Alloc_select
; 480  : struct _Alloc_select
; 481  : 	{	// determines allocator_traits<_Ty>
; 482  : 		// ::select_on_container_copy_construction(const _Alloc&)
; 483  : 
; 484  : 	template<class _Ty>
; 485  : 		static auto _Fn(int, const _Ty& _Al)
; 486  : 			-> decltype((_Ty)_Al.select_on_container_copy_construction())
; 487  : 		{	// call allocator supplied version
; 488  : 		return (_Al.select_on_container_copy_construction());
; 489  : 		}
; 490  : 
; 491  : 	template<class _Ty>
; 492  : 		static auto _Fn(_Wrap_int, const _Ty& _Al)
; 493  : 			-> _Ty
; 494  : 		{	// call default version
; 495  : 		return (_Al);
; 496  : 		}
; 497  : 	};
; 498  : 
; 499  : 		// TEMPLATE CLASS allocator_traits
; 500  : template<class _Alloc>
; 501  : 	struct allocator_traits
; 502  : 	{	// defines traits for allocators
; 503  : 	typedef _Alloc allocator_type;
; 504  : 	typedef typename _Alloc::value_type value_type;
; 505  : 
; 506  : 	typedef typename _Get_pointer_type<_Alloc>::type
; 507  : 		pointer;
; 508  : 	typedef typename _Get_const_pointer_type<_Alloc>::type
; 509  : 		const_pointer;
; 510  : 	typedef typename _Get_void_pointer_type<_Alloc>::type
; 511  : 		void_pointer;
; 512  : 	typedef typename _Get_const_void_pointer_type<_Alloc>::type
; 513  : 		const_void_pointer;
; 514  : 
; 515  : 	typedef typename _Get_size_type<_Alloc>::type size_type;
; 516  : 	typedef typename _Get_difference_type<_Alloc>::type difference_type;
; 517  : 
; 518  : 	typedef typename _Get_propagate_on_container_copy<_Alloc>::type
; 519  : 		propagate_on_container_copy_assignment;
; 520  : 	typedef typename _Get_propagate_on_container_move<_Alloc>::type
; 521  : 		propagate_on_container_move_assignment;
; 522  : 	typedef typename _Get_propagate_on_container_swap<_Alloc>::type
; 523  : 		propagate_on_container_swap;
; 524  : 	typedef typename _Get_is_always_equal<_Alloc>::type
; 525  : 		is_always_equal;
; 526  : 
; 527  : 	template<class _Other>
; 528  : 		using rebind_alloc = typename _Get_rebind_type<_Alloc, _Other>::type;
; 529  : 
; 530  : 	template<class _Other>
; 531  : 		using rebind_traits = allocator_traits<rebind_alloc<_Other> >;
; 532  : 
; 533  : 	static _DECLSPEC_ALLOCATOR pointer allocate(_Alloc& _Al, size_type _Count)
; 534  : 		{	// allocate array of _Count elements
; 535  : 		return (_Al.allocate(_Count));
; 536  : 		}
; 537  : 
; 538  : 	static _DECLSPEC_ALLOCATOR pointer allocate(_Alloc& _Al, size_type _Count,
; 539  : 		const_void_pointer _Hint)
; 540  : 		{	// allocate array of _Count elements, with hint
; 541  : 		return (_Alloc_allocate::_Fn(0, _Al, _Count, _Hint));
; 542  : 		}
; 543  : 
; 544  : 	static void deallocate(_Alloc& _Al,
; 545  : 		pointer _Ptr, size_type _Count)
; 546  : 		{	// deallocate _Count elements at _Ptr
; 547  : 		_Al.deallocate(_Ptr, _Count);
; 548  : 		}
; 549  : 
; 550  : 	template<class _Ty,
; 551  : 		class... _Types>
; 552  : 		static void construct(_Alloc& _Al, _Ty *_Ptr,
; 553  : 			_Types&&... _Args)
; 554  : 		{	// construct _Ty(_Types...) at _Ptr
; 555  : 		_Alloc_construct::_Fn(0, _Al, _Ptr,
; 556  : 			_STD forward<_Types>(_Args)...);
; 557  : 		}
; 558  : 
; 559  : 
; 560  : 	template<class _Ty>
; 561  : 		static void destroy(_Alloc& _Al, _Ty *_Ptr)
; 562  : 		{	// destroy object at _Ptr
; 563  : 		_Alloc_destroy::_Fn(0, _Al, _Ptr);
; 564  : 		}
; 565  : 
; 566  : 	static size_type max_size(const _Alloc& _Al) _NOEXCEPT
; 567  : 		{	// get maximum size
; 568  : 		return (_Alloc_max_size::_Fn(0, _Al));
; 569  : 		}
; 570  : 
; 571  : 	static _Alloc select_on_container_copy_construction(
; 572  : 		const _Alloc& _Al)
; 573  : 		{	// get allocator to use
; 574  : 		return (_Alloc_select::_Fn(0, _Al));
; 575  : 		}
; 576  : 	};
; 577  : 
; 578  : 		// TEMPLATE CLASS allocator
; 579  : template<class _Ty>
; 580  : 	class allocator
; 581  : 	{	// generic allocator for objects of class _Ty
; 582  : public:
; 583  : 	static_assert(!is_const<_Ty>::value,
; 584  : 		"The C++ Standard forbids containers of const elements "
; 585  : 		"because allocator<const T> is ill-formed.");
; 586  : 
; 587  : 	typedef _Ty value_type;
; 588  : 
; 589  : 	typedef value_type *pointer;
; 590  : 	typedef const value_type *const_pointer;
; 591  : 
; 592  : 	typedef value_type& reference;
; 593  : 	typedef const value_type& const_reference;
; 594  : 
; 595  : 	typedef size_t size_type;
; 596  : 	typedef ptrdiff_t difference_type;
; 597  : 
; 598  : 	typedef true_type propagate_on_container_move_assignment;
; 599  : 	typedef true_type is_always_equal;
; 600  : 
; 601  : 	template<class _Other>
; 602  : 		struct rebind
; 603  : 		{	// convert this type to allocator<_Other>
; 604  : 		typedef allocator<_Other> other;
; 605  : 		};
; 606  : 
; 607  : 	pointer address(reference _Val) const _NOEXCEPT
; 608  : 		{	// return address of mutable _Val
; 609  : 		return (_STD addressof(_Val));
; 610  : 		}
; 611  : 
; 612  : 	const_pointer address(const_reference _Val) const _NOEXCEPT
; 613  : 		{	// return address of nonmutable _Val
; 614  : 		return (_STD addressof(_Val));
; 615  : 		}
; 616  : 
; 617  : 	allocator() _THROW0()
; 618  : 		{	// construct default allocator (do nothing)
; 619  : 		}
; 620  : 
; 621  : 	allocator(const allocator<_Ty>&) _THROW0()
; 622  : 		{	// construct by copying (do nothing)
; 623  : 		}
; 624  : 
; 625  : 	template<class _Other>
; 626  : 		allocator(const allocator<_Other>&) _THROW0()
; 627  : 		{	// construct from a related allocator (do nothing)
; 628  : 		}
; 629  : 
; 630  : 	template<class _Other>
; 631  : 		allocator<_Ty>& operator=(const allocator<_Other>&)
; 632  : 		{	// assign from a related allocator (do nothing)
; 633  : 		return (*this);
; 634  : 		}
; 635  : 
; 636  : 	void deallocate(pointer _Ptr, size_type _Count)
; 637  : 		{	// deallocate object at _Ptr
; 638  : 		_Deallocate(_Ptr, _Count, sizeof (_Ty));

  00006	8b 4d 08	 mov	 ecx, DWORD PTR __Ptr$[ebp]

; 100  : 	_SCL_SECURE_ALWAYS_VALIDATE(_Count <= (size_t)(-1) / _Sz);

  00009	3d ff ff ff 1f	 cmp	 eax, 536870911		; 1fffffffH
  0000e	77 31		 ja	 SHORT $LN16@deallocate

; 101  : 	const size_t _User_size = _Count * _Sz;

  00010	c1 e0 03	 shl	 eax, 3

; 102  : 	if (_BIG_ALLOCATION_THRESHOLD <= _User_size)

  00013	3d 00 10 00 00	 cmp	 eax, 4096		; 00001000H
  00018	72 1a		 jb	 SHORT $LN7@deallocate

; 103  : 		{	// deallocate large block
; 104  : 		const uintptr_t _Ptr_user = reinterpret_cast<uintptr_t>(_Ptr);
; 105  : 		_SCL_SECURE_ALWAYS_VALIDATE(

  0001a	f6 c1 1f	 test	 cl, 31			; 0000001fH
  0001d	75 27		 jne	 SHORT $LN18@deallocate

; 106  : 			(_Ptr_user & (_BIG_ALLOCATION_ALIGNMENT - 1)) == 0);
; 107  : 		const uintptr_t _Ptr_ptr = _Ptr_user - sizeof(void *);
; 108  : 		const uintptr_t _Ptr_container =
; 109  : 			*reinterpret_cast<uintptr_t *>(_Ptr_ptr);

  0001f	8b 41 fc	 mov	 eax, DWORD PTR [ecx-4]

; 110  : 
; 111  :  #ifdef _DEBUG
; 112  : 		// If the following asserts, it likely means that we are performing
; 113  : 		// an aligned delete on memory coming from an unaligned allocation.
; 114  : 		_SCL_SECURE_ALWAYS_VALIDATE(
; 115  : 			reinterpret_cast<uintptr_t *>(_Ptr_ptr)[-1] ==
; 116  : 				_BIG_ALLOCATION_SENTINEL);
; 117  :  #endif /* _DEBUG */
; 118  : 
; 119  : 		// Extra paranoia on aligned allocation/deallocation
; 120  : 		_SCL_SECURE_ALWAYS_VALIDATE(_Ptr_container < _Ptr_user);

  00022	3b c1		 cmp	 eax, ecx
  00024	73 25		 jae	 SHORT $LN19@deallocate

; 121  : 
; 122  :  #ifdef _DEBUG
; 123  : 		_SCL_SECURE_ALWAYS_VALIDATE(2 * sizeof(void *)
; 124  : 			<= _Ptr_user - _Ptr_container);
; 125  : 
; 126  :  #else /* _DEBUG */
; 127  : 		_SCL_SECURE_ALWAYS_VALIDATE(sizeof(void *)

  00026	2b c8		 sub	 ecx, eax
  00028	83 f9 04	 cmp	 ecx, 4
  0002b	72 23		 jb	 SHORT $LN20@deallocate

; 128  : 			<= _Ptr_user - _Ptr_container);
; 129  :  #endif /* _DEBUG */
; 130  : 
; 131  : 		_SCL_SECURE_ALWAYS_VALIDATE(_Ptr_user - _Ptr_container

  0002d	83 f9 23	 cmp	 ecx, 35			; 00000023H
  00030	77 23		 ja	 SHORT $LN21@deallocate

; 132  : 			<= _NON_USER_SIZE);
; 133  : 
; 134  : 		_Ptr = reinterpret_cast<void *>(_Ptr_container);

  00032	8b c8		 mov	 ecx, eax
$LN7@deallocate:

; 135  : 		}
; 136  :  #endif /* defined(_M_IX86) || defined(_M_X64) */
; 137  : 
; 138  : 	::operator delete(_Ptr);

  00034	51		 push	 ecx
  00035	e8 00 00 00 00	 call	 ??3@YAXPAX@Z		; operator delete
  0003a	83 c4 04	 add	 esp, 4

; 909  : 		_Mybase::deallocate(_Ptr, _Count);
; 910  : 		}

  0003d	5d		 pop	 ebp
  0003e	c2 08 00	 ret	 8
$LN16@deallocate:

; 100  : 	_SCL_SECURE_ALWAYS_VALIDATE(_Count <= (size_t)(-1) / _Sz);

  00041	e8 00 00 00 00	 call	 __invalid_parameter_noinfo_noreturn
$LN22@deallocate:
$LN18@deallocate:

; 103  : 		{	// deallocate large block
; 104  : 		const uintptr_t _Ptr_user = reinterpret_cast<uintptr_t>(_Ptr);
; 105  : 		_SCL_SECURE_ALWAYS_VALIDATE(

  00046	e8 00 00 00 00	 call	 __invalid_parameter_noinfo_noreturn
$LN23@deallocate:
$LN19@deallocate:

; 110  : 
; 111  :  #ifdef _DEBUG
; 112  : 		// If the following asserts, it likely means that we are performing
; 113  : 		// an aligned delete on memory coming from an unaligned allocation.
; 114  : 		_SCL_SECURE_ALWAYS_VALIDATE(
; 115  : 			reinterpret_cast<uintptr_t *>(_Ptr_ptr)[-1] ==
; 116  : 				_BIG_ALLOCATION_SENTINEL);
; 117  :  #endif /* _DEBUG */
; 118  : 
; 119  : 		// Extra paranoia on aligned allocation/deallocation
; 120  : 		_SCL_SECURE_ALWAYS_VALIDATE(_Ptr_container < _Ptr_user);

  0004b	e8 00 00 00 00	 call	 __invalid_parameter_noinfo_noreturn
$LN24@deallocate:
$LN20@deallocate:

; 121  : 
; 122  :  #ifdef _DEBUG
; 123  : 		_SCL_SECURE_ALWAYS_VALIDATE(2 * sizeof(void *)
; 124  : 			<= _Ptr_user - _Ptr_container);
; 125  : 
; 126  :  #else /* _DEBUG */
; 127  : 		_SCL_SECURE_ALWAYS_VALIDATE(sizeof(void *)

  00050	e8 00 00 00 00	 call	 __invalid_parameter_noinfo_noreturn
$LN25@deallocate:
$LN21@deallocate:

; 128  : 			<= _Ptr_user - _Ptr_container);
; 129  :  #endif /* _DEBUG */
; 130  : 
; 131  : 		_SCL_SECURE_ALWAYS_VALIDATE(_Ptr_user - _Ptr_container

  00055	e8 00 00 00 00	 call	 __invalid_parameter_noinfo_noreturn
$LN26@deallocate:
$LN15@deallocate:
  0005a	cc		 int	 3
?deallocate@?$_Wrap_alloc@V?$allocator@UExtraClassAttack@@@std@@@std@@QAEXPAUExtraClassAttack@@I@Z ENDP ; std::_Wrap_alloc<std::allocator<ExtraClassAttack> >::deallocate
_TEXT	ENDS
; Function compile flags: /Ogtp
; File c:\program files (x86)\microsoft visual studio 14.0\vc\include\xmemory0
;	COMDAT ?allocate@?$_Wrap_alloc@V?$allocator@UExtraClassAttack@@@std@@@std@@QAEPAUExtraClassAttack@@I@Z
_TEXT	SEGMENT
__Count$ = 8						; size = 4
?allocate@?$_Wrap_alloc@V?$allocator@UExtraClassAttack@@@std@@@std@@QAEPAUExtraClassAttack@@I@Z PROC ; std::_Wrap_alloc<std::allocator<ExtraClassAttack> >::allocate, COMDAT
; _this$ = ecx

; 897  : 		{	// allocate array of _Count elements

  00000	55		 push	 ebp
  00001	8b ec		 mov	 ebp, esp

; 899  : 		}

  00003	5d		 pop	 ebp

; 898  : 		return (_Mybase::allocate(_Count));

  00004	e9 00 00 00 00	 jmp	 ?allocate@?$allocator@UExtraClassAttack@@@std@@QAEPAUExtraClassAttack@@I@Z ; std::allocator<ExtraClassAttack>::allocate
?allocate@?$_Wrap_alloc@V?$allocator@UExtraClassAttack@@@std@@@std@@QAEPAUExtraClassAttack@@I@Z ENDP ; std::_Wrap_alloc<std::allocator<ExtraClassAttack> >::allocate
_TEXT	ENDS
; Function compile flags: /Ogtp
; File c:\program files (x86)\microsoft visual studio 14.0\vc\include\xmemory0
;	COMDAT ??0?$_Wrap_alloc@V?$allocator@UExtraClassAttack@@@std@@@std@@QAE@ABV?$allocator@UExtraClassAttack@@@1@@Z
_TEXT	SEGMENT
__Right$ = 8						; size = 4
??0?$_Wrap_alloc@V?$allocator@UExtraClassAttack@@@std@@@std@@QAE@ABV?$allocator@UExtraClassAttack@@@1@@Z PROC ; std::_Wrap_alloc<std::allocator<ExtraClassAttack> >::_Wrap_alloc<std::allocator<ExtraClassAttack> >, COMDAT
; _this$ = ecx

; 858  : 		}

  00000	8b c1		 mov	 eax, ecx
  00002	c2 04 00	 ret	 4
??0?$_Wrap_alloc@V?$allocator@UExtraClassAttack@@@std@@@std@@QAE@ABV?$allocator@UExtraClassAttack@@@1@@Z ENDP ; std::_Wrap_alloc<std::allocator<ExtraClassAttack> >::_Wrap_alloc<std::allocator<ExtraClassAttack> >
_TEXT	ENDS
; Function compile flags: /Ogtp
; File c:\program files (x86)\microsoft visual studio 14.0\vc\include\xmemory0
;	COMDAT ?max_size@?$allocator_traits@V?$allocator@UExtraClassAttack@@@std@@@std@@SAIABV?$allocator@UExtraClassAttack@@@2@@Z
_TEXT	SEGMENT
__Al$ = 8						; size = 4
?max_size@?$allocator_traits@V?$allocator@UExtraClassAttack@@@std@@@std@@SAIABV?$allocator@UExtraClassAttack@@@2@@Z PROC ; std::allocator_traits<std::allocator<ExtraClassAttack> >::max_size, COMDAT

; 785  : 		return (_Al.max_size());

  00000	b8 ff ff ff 1f	 mov	 eax, 536870911		; 1fffffffH

; 786  : 		}

  00005	c3		 ret	 0
?max_size@?$allocator_traits@V?$allocator@UExtraClassAttack@@@std@@@std@@SAIABV?$allocator@UExtraClassAttack@@@2@@Z ENDP ; std::allocator_traits<std::allocator<ExtraClassAttack> >::max_size
_TEXT	ENDS
; Function compile flags: /Ogtp
; File c:\program files (x86)\microsoft visual studio 14.0\vc\include\xmemory0
;	COMDAT ?max_size@?$allocator@UExtraClassAttack@@@std@@QBEIXZ
_TEXT	SEGMENT
?max_size@?$allocator@UExtraClassAttack@@@std@@QBEIXZ PROC ; std::allocator<ExtraClassAttack>::max_size, COMDAT
; _this$ = ecx

; 667  : 		return ((size_t)(-1) / sizeof (_Ty));

  00000	b8 ff ff ff 1f	 mov	 eax, 536870911		; 1fffffffH

; 668  : 		}

  00005	c3		 ret	 0
?max_size@?$allocator@UExtraClassAttack@@@std@@QBEIXZ ENDP ; std::allocator<ExtraClassAttack>::max_size
_TEXT	ENDS
; Function compile flags: /Ogtp
; File c:\program files (x86)\microsoft visual studio 14.0\vc\include\xmemory0
;	COMDAT ?allocate@?$allocator@UExtraClassAttack@@@std@@QAEPAUExtraClassAttack@@I@Z
_TEXT	SEGMENT
__Count$ = 8						; size = 4
?allocate@?$allocator@UExtraClassAttack@@@std@@QAEPAUExtraClassAttack@@I@Z PROC ; std::allocator<ExtraClassAttack>::allocate, COMDAT
; _this$ = ecx

; 642  : 		{	// allocate array of _Count elements

  00000	55		 push	 ebp
  00001	8b ec		 mov	 ebp, esp

; 57   : 	if (_Count == 0)

  00003	8b 45 08	 mov	 eax, DWORD PTR __Count$[ebp]
  00006	85 c0		 test	 eax, eax
  00008	75 04		 jne	 SHORT $LN4@allocate
$LN12@allocate:

; 643  : 		return (static_cast<pointer>(_Allocate(_Count, sizeof (_Ty))));
; 644  : 		}

  0000a	5d		 pop	 ebp
  0000b	c2 04 00	 ret	 4
$LN4@allocate:

; 58   : 		return (_Ptr);
; 59   : 
; 60   : 	// check overflow of multiply
; 61   : 	if ((size_t)(-1) / _Sz < _Count)

  0000e	3d ff ff ff 1f	 cmp	 eax, 536870911		; 1fffffffH
  00013	77 3c		 ja	 SHORT $LN14@allocate

; 63   : 	const size_t _User_size = _Count * _Sz;

  00015	c1 e0 03	 shl	 eax, 3

; 64   : 
; 65   :  #if defined(_M_IX86) || defined(_M_X64)
; 66   : 	if (_Try_aligned_allocation
; 67   : 		&& _BIG_ALLOCATION_THRESHOLD <= _User_size)

  00018	3d 00 10 00 00	 cmp	 eax, 4096		; 00001000H
  0001d	72 23		 jb	 SHORT $LN6@allocate

; 68   : 		{	// allocate large block
; 69   : 		static_assert(sizeof (void *) < _BIG_ALLOCATION_ALIGNMENT,
; 70   : 			"Big allocations should at least match vector register size");
; 71   : 		const size_t _Block_size = _NON_USER_SIZE + _User_size;

  0001f	8d 48 23	 lea	 ecx, DWORD PTR [eax+35]

; 72   : 		if (_Block_size <= _User_size)

  00022	3b c8		 cmp	 ecx, eax
  00024	76 30		 jbe	 SHORT $LN16@allocate

; 74   : 		const uintptr_t _Ptr_container =
; 75   : 			reinterpret_cast<uintptr_t>(::operator new(_Block_size));

  00026	51		 push	 ecx
  00027	e8 00 00 00 00	 call	 ??2@YAPAXI@Z		; operator new
  0002c	8b c8		 mov	 ecx, eax
  0002e	83 c4 04	 add	 esp, 4

; 76   : 		_SCL_SECURE_ALWAYS_VALIDATE(_Ptr_container != 0);

  00031	85 c9		 test	 ecx, ecx
  00033	74 26		 je	 SHORT $LN17@allocate

; 77   : 		_Ptr = reinterpret_cast<void *>((_Ptr_container + _NON_USER_SIZE)

  00035	8d 41 23	 lea	 eax, DWORD PTR [ecx+35]
  00038	83 e0 e0	 and	 eax, -32		; ffffffe0H

; 78   : 			& ~(_BIG_ALLOCATION_ALIGNMENT - 1));
; 79   : 		static_cast<uintptr_t *>(_Ptr)[-1] = _Ptr_container;

  0003b	89 48 fc	 mov	 DWORD PTR [eax-4], ecx

; 643  : 		return (static_cast<pointer>(_Allocate(_Count, sizeof (_Ty))));
; 644  : 		}

  0003e	5d		 pop	 ebp
  0003f	c2 04 00	 ret	 4
$LN6@allocate:

; 80   : 
; 81   :  #ifdef _DEBUG
; 82   : 		static_cast<uintptr_t *>(_Ptr)[-2] = _BIG_ALLOCATION_SENTINEL;
; 83   :  #endif /* _DEBUG */
; 84   : 		}
; 85   : 	else
; 86   :  #endif /* defined(_M_IX86) || defined(_M_X64) */
; 87   : 
; 88   : 		{	// allocate normal block
; 89   : 		_Ptr = ::operator new(_User_size);

  00042	50		 push	 eax
  00043	e8 00 00 00 00	 call	 ??2@YAPAXI@Z		; operator new
  00048	83 c4 04	 add	 esp, 4

; 90   : 		_SCL_SECURE_ALWAYS_VALIDATE(_Ptr != 0);

  0004b	85 c0		 test	 eax, eax
  0004d	75 bb		 jne	 SHORT $LN12@allocate
  0004f	eb 0f		 jmp	 SHORT $LN18@allocate
$LN14@allocate:

; 62   : 		_Xbad_alloc();	// report no memory

  00051	e8 00 00 00 00	 call	 ?_Xbad_alloc@std@@YAXXZ	; std::_Xbad_alloc
$LN19@allocate:
$LN16@allocate:

; 73   : 			_Xbad_alloc();	// report no memory

  00056	e8 00 00 00 00	 call	 ?_Xbad_alloc@std@@YAXXZ	; std::_Xbad_alloc
$LN20@allocate:
$LN17@allocate:

; 76   : 		_SCL_SECURE_ALWAYS_VALIDATE(_Ptr_container != 0);

  0005b	e8 00 00 00 00	 call	 __invalid_parameter_noinfo_noreturn
$LN21@allocate:
$LN18@allocate:

; 90   : 		_SCL_SECURE_ALWAYS_VALIDATE(_Ptr != 0);

  00060	e8 00 00 00 00	 call	 __invalid_parameter_noinfo_noreturn
$LN22@allocate:
$LN13@allocate:
  00065	cc		 int	 3
?allocate@?$allocator@UExtraClassAttack@@@std@@QAEPAUExtraClassAttack@@I@Z ENDP ; std::allocator<ExtraClassAttack>::allocate
_TEXT	ENDS
; Function compile flags: /Ogtp
; File c:\program files (x86)\microsoft visual studio 14.0\vc\include\xmemory0
;	COMDAT ?deallocate@?$allocator@UExtraClassAttack@@@std@@QAEXPAUExtraClassAttack@@I@Z
_TEXT	SEGMENT
__Ptr$ = 8						; size = 4
__Count$ = 12						; size = 4
?deallocate@?$allocator@UExtraClassAttack@@@std@@QAEXPAUExtraClassAttack@@I@Z PROC ; std::allocator<ExtraClassAttack>::deallocate, COMDAT
; _this$ = ecx

; 637  : 		{	// deallocate object at _Ptr

  00000	55		 push	 ebp
  00001	8b ec		 mov	 ebp, esp

; 100  : 	_SCL_SECURE_ALWAYS_VALIDATE(_Count <= (size_t)(-1) / _Sz);

  00003	8b 45 0c	 mov	 eax, DWORD PTR __Count$[ebp]

; 638  : 		_Deallocate(_Ptr, _Count, sizeof (_Ty));

  00006	8b 4d 08	 mov	 ecx, DWORD PTR __Ptr$[ebp]

; 100  : 	_SCL_SECURE_ALWAYS_VALIDATE(_Count <= (size_t)(-1) / _Sz);

  00009	3d ff ff ff 1f	 cmp	 eax, 536870911		; 1fffffffH
  0000e	77 31		 ja	 SHORT $LN13@deallocate

; 101  : 	const size_t _User_size = _Count * _Sz;

  00010	c1 e0 03	 shl	 eax, 3

; 102  : 	if (_BIG_ALLOCATION_THRESHOLD <= _User_size)

  00013	3d 00 10 00 00	 cmp	 eax, 4096		; 00001000H
  00018	72 1a		 jb	 SHORT $LN5@deallocate

; 103  : 		{	// deallocate large block
; 104  : 		const uintptr_t _Ptr_user = reinterpret_cast<uintptr_t>(_Ptr);
; 105  : 		_SCL_SECURE_ALWAYS_VALIDATE(

  0001a	f6 c1 1f	 test	 cl, 31			; 0000001fH
  0001d	75 27		 jne	 SHORT $LN15@deallocate

; 106  : 			(_Ptr_user & (_BIG_ALLOCATION_ALIGNMENT - 1)) == 0);
; 107  : 		const uintptr_t _Ptr_ptr = _Ptr_user - sizeof(void *);
; 108  : 		const uintptr_t _Ptr_container =
; 109  : 			*reinterpret_cast<uintptr_t *>(_Ptr_ptr);

  0001f	8b 41 fc	 mov	 eax, DWORD PTR [ecx-4]

; 110  : 
; 111  :  #ifdef _DEBUG
; 112  : 		// If the following asserts, it likely means that we are performing
; 113  : 		// an aligned delete on memory coming from an unaligned allocation.
; 114  : 		_SCL_SECURE_ALWAYS_VALIDATE(
; 115  : 			reinterpret_cast<uintptr_t *>(_Ptr_ptr)[-1] ==
; 116  : 				_BIG_ALLOCATION_SENTINEL);
; 117  :  #endif /* _DEBUG */
; 118  : 
; 119  : 		// Extra paranoia on aligned allocation/deallocation
; 120  : 		_SCL_SECURE_ALWAYS_VALIDATE(_Ptr_container < _Ptr_user);

  00022	3b c1		 cmp	 eax, ecx
  00024	73 25		 jae	 SHORT $LN16@deallocate

; 121  : 
; 122  :  #ifdef _DEBUG
; 123  : 		_SCL_SECURE_ALWAYS_VALIDATE(2 * sizeof(void *)
; 124  : 			<= _Ptr_user - _Ptr_container);
; 125  : 
; 126  :  #else /* _DEBUG */
; 127  : 		_SCL_SECURE_ALWAYS_VALIDATE(sizeof(void *)

  00026	2b c8		 sub	 ecx, eax
  00028	83 f9 04	 cmp	 ecx, 4
  0002b	72 23		 jb	 SHORT $LN17@deallocate

; 128  : 			<= _Ptr_user - _Ptr_container);
; 129  :  #endif /* _DEBUG */
; 130  : 
; 131  : 		_SCL_SECURE_ALWAYS_VALIDATE(_Ptr_user - _Ptr_container

  0002d	83 f9 23	 cmp	 ecx, 35			; 00000023H
  00030	77 23		 ja	 SHORT $LN18@deallocate

; 132  : 			<= _NON_USER_SIZE);
; 133  : 
; 134  : 		_Ptr = reinterpret_cast<void *>(_Ptr_container);

  00032	8b c8		 mov	 ecx, eax
$LN5@deallocate:

; 135  : 		}
; 136  :  #endif /* defined(_M_IX86) || defined(_M_X64) */
; 137  : 
; 138  : 	::operator delete(_Ptr);

  00034	51		 push	 ecx
  00035	e8 00 00 00 00	 call	 ??3@YAXPAX@Z		; operator delete
  0003a	83 c4 04	 add	 esp, 4

; 639  : 		}

  0003d	5d		 pop	 ebp
  0003e	c2 08 00	 ret	 8
$LN13@deallocate:

; 100  : 	_SCL_SECURE_ALWAYS_VALIDATE(_Count <= (size_t)(-1) / _Sz);

  00041	e8 00 00 00 00	 call	 __invalid_parameter_noinfo_noreturn
$LN19@deallocate:
$LN15@deallocate:

; 103  : 		{	// deallocate large block
; 104  : 		const uintptr_t _Ptr_user = reinterpret_cast<uintptr_t>(_Ptr);
; 105  : 		_SCL_SECURE_ALWAYS_VALIDATE(

  00046	e8 00 00 00 00	 call	 __invalid_parameter_noinfo_noreturn
$LN20@deallocate:
$LN16@deallocate:

; 110  : 
; 111  :  #ifdef _DEBUG
; 112  : 		// If the following asserts, it likely means that we are performing
; 113  : 		// an aligned delete on memory coming from an unaligned allocation.
; 114  : 		_SCL_SECURE_ALWAYS_VALIDATE(
; 115  : 			reinterpret_cast<uintptr_t *>(_Ptr_ptr)[-1] ==
; 116  : 				_BIG_ALLOCATION_SENTINEL);
; 117  :  #endif /* _DEBUG */
; 118  : 
; 119  : 		// Extra paranoia on aligned allocation/deallocation
; 120  : 		_SCL_SECURE_ALWAYS_VALIDATE(_Ptr_container < _Ptr_user);

  0004b	e8 00 00 00 00	 call	 __invalid_parameter_noinfo_noreturn
$LN21@deallocate:
$LN17@deallocate:

; 121  : 
; 122  :  #ifdef _DEBUG
; 123  : 		_SCL_SECURE_ALWAYS_VALIDATE(2 * sizeof(void *)
; 124  : 			<= _Ptr_user - _Ptr_container);
; 125  : 
; 126  :  #else /* _DEBUG */
; 127  : 		_SCL_SECURE_ALWAYS_VALIDATE(sizeof(void *)

  00050	e8 00 00 00 00	 call	 __invalid_parameter_noinfo_noreturn
$LN22@deallocate:
$LN18@deallocate:

; 128  : 			<= _Ptr_user - _Ptr_container);
; 129  :  #endif /* _DEBUG */
; 130  : 
; 131  : 		_SCL_SECURE_ALWAYS_VALIDATE(_Ptr_user - _Ptr_container

  00055	e8 00 00 00 00	 call	 __invalid_parameter_noinfo_noreturn
$LN23@deallocate:
$LN12@deallocate:
  0005a	cc		 int	 3
?deallocate@?$allocator@UExtraClassAttack@@@std@@QAEXPAUExtraClassAttack@@I@Z ENDP ; std::allocator<ExtraClassAttack>::deallocate
_TEXT	ENDS
; Function compile flags: /Ogtp
; File c:\program files (x86)\microsoft visual studio 14.0\vc\include\xmemory0
;	COMDAT ??0?$allocator@UExtraClassAttack@@@std@@QAE@ABV01@@Z
_TEXT	SEGMENT
___formal$ = 8						; size = 4
??0?$allocator@UExtraClassAttack@@@std@@QAE@ABV01@@Z PROC ; std::allocator<ExtraClassAttack>::allocator<ExtraClassAttack>, COMDAT
; _this$ = ecx

; 622  : 		{	// construct by copying (do nothing)
; 623  : 		}

  00000	8b c1		 mov	 eax, ecx
  00002	c2 04 00	 ret	 4
??0?$allocator@UExtraClassAttack@@@std@@QAE@ABV01@@Z ENDP ; std::allocator<ExtraClassAttack>::allocator<ExtraClassAttack>
_TEXT	ENDS
; Function compile flags: /Ogtp
; File c:\program files (x86)\microsoft visual studio 14.0\vc\include\xmemory0
;	COMDAT ??0?$allocator@UExtraClassAttack@@@std@@QAE@XZ
_TEXT	SEGMENT
??0?$allocator@UExtraClassAttack@@@std@@QAE@XZ PROC	; std::allocator<ExtraClassAttack>::allocator<ExtraClassAttack>, COMDAT
; _this$ = ecx

; 618  : 		{	// construct default allocator (do nothing)
; 619  : 		}

  00000	8b c1		 mov	 eax, ecx
  00002	c3		 ret	 0
??0?$allocator@UExtraClassAttack@@@std@@QAE@XZ ENDP	; std::allocator<ExtraClassAttack>::allocator<ExtraClassAttack>
_TEXT	ENDS
; Function compile flags: /Ogtp
; File c:\users\michel\desktop\source\gameserver\source\extraclassbalance.cpp
; File c:\program files (x86)\microsoft visual studio 14.0\vc\include\vector
; File c:\users\michel\desktop\source\gameserver\source\extraclassbalance.cpp
; File c:\program files (x86)\microsoft visual studio 14.0\vc\include\vector
; File c:\users\michel\desktop\source\gameserver\source\extraclassbalance.cpp
; File c:\program files (x86)\microsoft visual studio 14.0\vc\include\vector
; File c:\users\michel\desktop\source\gameserver\source\extraclassbalance.cpp
;	COMDAT ?Apply@ExtraClassBalance@@QAEXPAUOBJECTSTRUCT@@@Z
_TEXT	SEGMENT
_lpUser$ = 8						; size = 4
?Apply@ExtraClassBalance@@QAEXPAUOBJECTSTRUCT@@@Z PROC	; ExtraClassBalance::Apply, COMDAT
; _this$ = ecx

; 64   : {

  00000	55		 push	 ebp
  00001	8b ec		 mov	 ebp, esp
; File c:\program files (x86)\microsoft visual studio 14.0\vc\include\vector

; 1179 : 		return (this->_Mylast() - this->_Myfirst());

  00003	8b 41 08	 mov	 eax, DWORD PTR [ecx+8]
  00006	2b 41 04	 sub	 eax, DWORD PTR [ecx+4]
  00009	53		 push	 ebx
  0000a	c1 f8 03	 sar	 eax, 3
; File c:\users\michel\desktop\source\gameserver\source\extraclassbalance.cpp

; 65   : 	for( int i = 0; i < this->m_AttackInfo.size(); i++ )

  0000d	33 db		 xor	 ebx, ebx
  0000f	85 c0		 test	 eax, eax
  00011	0f 84 af 01 00
	00		 je	 $LN3@Apply
  00017	56		 push	 esi
  00018	57		 push	 edi
  00019	8b 7d 08	 mov	 edi, DWORD PTR _lpUser$[ebp]
  0001c	0f 1f 40 00	 npad	 4
$LL4@Apply:
  00020	8b 41 04	 mov	 eax, DWORD PTR [ecx+4]
  00023	8d 14 d8	 lea	 edx, DWORD PTR [eax+ebx*8]

; 66   : 	{
; 67   : 		if( lpUser->Class == this->m_AttackInfo[i].Class
; 68   : 			&& lpUser->iResetCount == this->m_AttackInfo[i].Reset )

  00026	0f b6 02	 movzx	 eax, BYTE PTR [edx]
  00029	66 39 87 90 00
	00 00		 cmp	 WORD PTR [edi+144], ax
  00030	0f 85 7c 01 00
	00		 jne	 $LN2@Apply
  00036	0f bf 42 02	 movsx	 eax, WORD PTR [edx+2]
  0003a	39 87 20 27 00
	00		 cmp	 DWORD PTR [edi+10016], eax
  00040	0f 85 6c 01 00
	00		 jne	 $LN2@Apply

; 69   : 		{
; 70   : 			if( this->m_AttackInfo[i].Absorb )

  00046	66 83 7a 06 00	 cmp	 WORD PTR [edx+6], 0
  0004b	74 09		 je	 SHORT $LN6@Apply

; 71   : 			{
; 72   : 				lpUser->DamageMinus += this->m_AttackInfo[i].Absorb;

  0004d	8a 42 06	 mov	 al, BYTE PTR [edx+6]
  00050	00 87 48 01 00
	00		 add	 BYTE PTR [edi+328], al
$LN6@Apply:

; 73   : 			}
; 74   : 			if( this->m_AttackInfo[i].Damage )

  00056	8b 41 04	 mov	 eax, DWORD PTR [ecx+4]
  00059	0f b7 44 d8 04	 movzx	 eax, WORD PTR [eax+ebx*8+4]
  0005e	66 85 c0	 test	 ax, ax
  00061	0f 84 4b 01 00
	00		 je	 $LN2@Apply

; 75   : 			{
; 76   : 				lpUser->m_AttackDamageMaxLeft += lpUser->m_AttackDamageMaxLeft * this->m_AttackInfo[i].Damage / 100;

  00067	0f bf d0	 movsx	 edx, ax
  0006a	b8 1f 85 eb 51	 mov	 eax, 1374389535		; 51eb851fH
  0006f	8b b7 58 06 00
	00		 mov	 esi, DWORD PTR [edi+1624]
  00075	0f af d6	 imul	 edx, esi
  00078	f7 ea		 imul	 edx
  0007a	c1 fa 05	 sar	 edx, 5
  0007d	8b c2		 mov	 eax, edx
  0007f	c1 e8 1f	 shr	 eax, 31			; 0000001fH
  00082	03 c2		 add	 eax, edx
  00084	03 c6		 add	 eax, esi
  00086	89 87 58 06 00
	00		 mov	 DWORD PTR [edi+1624], eax
  0008c	8b 41 04	 mov	 eax, DWORD PTR [ecx+4]
  0008f	8b b7 5c 06 00
	00		 mov	 esi, DWORD PTR [edi+1628]
  00095	0f bf 54 d8 04	 movsx	 edx, WORD PTR [eax+ebx*8+4]
  0009a	b8 1f 85 eb 51	 mov	 eax, 1374389535		; 51eb851fH
  0009f	0f af d6	 imul	 edx, esi
  000a2	f7 ea		 imul	 edx
  000a4	c1 fa 05	 sar	 edx, 5
  000a7	8b c2		 mov	 eax, edx
  000a9	c1 e8 1f	 shr	 eax, 31			; 0000001fH
  000ac	03 c2		 add	 eax, edx
  000ae	03 c6		 add	 eax, esi
  000b0	89 87 5c 06 00
	00		 mov	 DWORD PTR [edi+1628], eax
  000b6	8b 41 04	 mov	 eax, DWORD PTR [ecx+4]
  000b9	8b b7 60 06 00
	00		 mov	 esi, DWORD PTR [edi+1632]
  000bf	0f bf 54 d8 04	 movsx	 edx, WORD PTR [eax+ebx*8+4]
  000c4	b8 1f 85 eb 51	 mov	 eax, 1374389535		; 51eb851fH
  000c9	0f af d6	 imul	 edx, esi
  000cc	f7 ea		 imul	 edx
  000ce	c1 fa 05	 sar	 edx, 5
  000d1	8b c2		 mov	 eax, edx
  000d3	c1 e8 1f	 shr	 eax, 31			; 0000001fH
  000d6	03 c2		 add	 eax, edx
  000d8	03 c6		 add	 eax, esi
  000da	89 87 60 06 00
	00		 mov	 DWORD PTR [edi+1632], eax
  000e0	8b 41 04	 mov	 eax, DWORD PTR [ecx+4]
  000e3	8b b7 64 06 00
	00		 mov	 esi, DWORD PTR [edi+1636]
  000e9	0f bf 54 d8 04	 movsx	 edx, WORD PTR [eax+ebx*8+4]
  000ee	b8 1f 85 eb 51	 mov	 eax, 1374389535		; 51eb851fH
  000f3	0f af d6	 imul	 edx, esi
  000f6	f7 ea		 imul	 edx
  000f8	c1 fa 05	 sar	 edx, 5
  000fb	8b c2		 mov	 eax, edx
  000fd	c1 e8 1f	 shr	 eax, 31			; 0000001fH
  00100	03 c2		 add	 eax, edx
  00102	03 c6		 add	 eax, esi
  00104	89 87 64 06 00
	00		 mov	 DWORD PTR [edi+1636], eax

; 77   : 				lpUser->m_AttackDamageMinLeft += lpUser->m_AttackDamageMinLeft * this->m_AttackInfo[i].Damage / 100;
; 78   : 				lpUser->m_AttackDamageMaxRight += lpUser->m_AttackDamageMaxRight * this->m_AttackInfo[i].Damage / 100;
; 79   : 				lpUser->m_AttackDamageMinRight += lpUser->m_AttackDamageMinRight * this->m_AttackInfo[i].Damage / 100;
; 80   : 				lpUser->m_MagicDamageMin += lpUser->m_MagicDamageMin * this->m_AttackInfo[i].Damage / 100;

  0010a	8b 41 04	 mov	 eax, DWORD PTR [ecx+4]
  0010d	8b b7 48 06 00
	00		 mov	 esi, DWORD PTR [edi+1608]
  00113	0f bf 54 d8 04	 movsx	 edx, WORD PTR [eax+ebx*8+4]
  00118	b8 1f 85 eb 51	 mov	 eax, 1374389535		; 51eb851fH
  0011d	0f af d6	 imul	 edx, esi
  00120	f7 ea		 imul	 edx
  00122	c1 fa 05	 sar	 edx, 5
  00125	8b c2		 mov	 eax, edx
  00127	c1 e8 1f	 shr	 eax, 31			; 0000001fH
  0012a	03 c2		 add	 eax, edx
  0012c	03 c6		 add	 eax, esi

; 81   : 				lpUser->m_MagicDamageMax += lpUser->m_MagicDamageMax * this->m_AttackInfo[i].Damage / 100;

  0012e	8b b7 4c 06 00
	00		 mov	 esi, DWORD PTR [edi+1612]
  00134	89 87 48 06 00
	00		 mov	 DWORD PTR [edi+1608], eax
  0013a	8b 41 04	 mov	 eax, DWORD PTR [ecx+4]
  0013d	0f bf 54 d8 04	 movsx	 edx, WORD PTR [eax+ebx*8+4]
  00142	b8 1f 85 eb 51	 mov	 eax, 1374389535		; 51eb851fH
  00147	0f af d6	 imul	 edx, esi
  0014a	f7 ea		 imul	 edx
  0014c	c1 fa 05	 sar	 edx, 5
  0014f	8b c2		 mov	 eax, edx
  00151	c1 e8 1f	 shr	 eax, 31			; 0000001fH
  00154	03 c2		 add	 eax, edx
  00156	03 c6		 add	 eax, esi

; 82   : 				lpUser->m_CurseDamageMin += lpUser->m_CurseDamageMin * this->m_AttackInfo[i].Damage / 100;

  00158	8b b7 84 06 00
	00		 mov	 esi, DWORD PTR [edi+1668]
  0015e	89 87 4c 06 00
	00		 mov	 DWORD PTR [edi+1612], eax
  00164	8b 41 04	 mov	 eax, DWORD PTR [ecx+4]
  00167	0f bf 54 d8 04	 movsx	 edx, WORD PTR [eax+ebx*8+4]
  0016c	b8 1f 85 eb 51	 mov	 eax, 1374389535		; 51eb851fH
  00171	0f af d6	 imul	 edx, esi
  00174	f7 ea		 imul	 edx
  00176	c1 fa 05	 sar	 edx, 5
  00179	8b c2		 mov	 eax, edx
  0017b	c1 e8 1f	 shr	 eax, 31			; 0000001fH
  0017e	03 c2		 add	 eax, edx
  00180	03 c6		 add	 eax, esi

; 83   : 				lpUser->m_CurseDamageMax += lpUser->m_CurseDamageMax * this->m_AttackInfo[i].Damage / 100;

  00182	8b b7 88 06 00
	00		 mov	 esi, DWORD PTR [edi+1672]
  00188	89 87 84 06 00
	00		 mov	 DWORD PTR [edi+1668], eax
  0018e	8b 41 04	 mov	 eax, DWORD PTR [ecx+4]
  00191	0f bf 54 d8 04	 movsx	 edx, WORD PTR [eax+ebx*8+4]
  00196	b8 1f 85 eb 51	 mov	 eax, 1374389535		; 51eb851fH
  0019b	0f af d6	 imul	 edx, esi
  0019e	f7 ea		 imul	 edx
  001a0	c1 fa 05	 sar	 edx, 5
  001a3	8b c2		 mov	 eax, edx
  001a5	c1 e8 1f	 shr	 eax, 31			; 0000001fH
  001a8	03 c2		 add	 eax, edx
  001aa	03 c6		 add	 eax, esi
  001ac	89 87 88 06 00
	00		 mov	 DWORD PTR [edi+1672], eax
$LN2@Apply:
; File c:\program files (x86)\microsoft visual studio 14.0\vc\include\vector

; 1179 : 		return (this->_Mylast() - this->_Myfirst());

  001b2	8b 41 08	 mov	 eax, DWORD PTR [ecx+8]
; File c:\users\michel\desktop\source\gameserver\source\extraclassbalance.cpp

; 65   : 	for( int i = 0; i < this->m_AttackInfo.size(); i++ )

  001b5	43		 inc	 ebx
; File c:\program files (x86)\microsoft visual studio 14.0\vc\include\vector

; 1179 : 		return (this->_Mylast() - this->_Myfirst());

  001b6	2b 41 04	 sub	 eax, DWORD PTR [ecx+4]
  001b9	c1 f8 03	 sar	 eax, 3
; File c:\users\michel\desktop\source\gameserver\source\extraclassbalance.cpp

; 65   : 	for( int i = 0; i < this->m_AttackInfo.size(); i++ )

  001bc	3b d8		 cmp	 ebx, eax
  001be	0f 82 5c fe ff
	ff		 jb	 $LL4@Apply
  001c4	5f		 pop	 edi
  001c5	5e		 pop	 esi
$LN3@Apply:
  001c6	5b		 pop	 ebx

; 84   : 			}
; 85   : 		}
; 86   : 	}
; 87   : }

  001c7	5d		 pop	 ebp
  001c8	c2 04 00	 ret	 4
?Apply@ExtraClassBalance@@QAEXPAUOBJECTSTRUCT@@@Z ENDP	; ExtraClassBalance::Apply
_TEXT	ENDS
; Function compile flags: /Ogtp
; File c:\users\michel\desktop\source\gameserver\source\extraclassbalance.cpp
; File c:\program files (x86)\microsoft visual studio 14.0\vc\include\vector
; File c:\users\michel\desktop\source\gameserver\source\extraclassbalance.cpp
; File c:\program files (x86)\microsoft visual studio 14.0\vc\include\vector
; File c:\program files (x86)\microsoft visual studio 14.0\vc\include\xmemory0
; File c:\program files (x86)\microsoft visual studio 14.0\vc\include\vector
; File c:\program files (x86)\microsoft visual studio 14.0\vc\include\xmemory0
; File c:\program files (x86)\microsoft visual studio 14.0\vc\include\vector
; File c:\users\michel\desktop\source\gameserver\source\extraclassbalance.cpp
;	COMDAT ?Read@ExtraClassBalance@@QAEXPAD@Z
_TEXT	SEGMENT
_Result$ = -268						; size = 12
$T2 = -256						; size = 4
$T3 = -252						; size = 4
$T4 = -248						; size = 4
$T5 = -244						; size = 4
$T6 = -240						; size = 4
_AttackList$ = -236					; size = 4
_ExtraClassBalance$ = -232				; size = 4
_lpAttackInfo$7 = -228					; size = 8
_Node$8 = -220						; size = 4
_Document$ = -216					; size = 200
__$ArrayPad$ = -16					; size = 4
__$EHRec$ = -12						; size = 12
_File$ = 8						; size = 4
?Read@ExtraClassBalance@@QAEXPAD@Z PROC			; ExtraClassBalance::Read, COMDAT
; _this$ = ecx

; 39   : {

  00000	55		 push	 ebp
  00001	8b ec		 mov	 ebp, esp
  00003	6a ff		 push	 -1
  00005	68 00 00 00 00	 push	 __ehhandler$?Read@ExtraClassBalance@@QAEXPAD@Z
  0000a	64 a1 00 00 00
	00		 mov	 eax, DWORD PTR fs:0
  00010	50		 push	 eax
  00011	81 ec 00 01 00
	00		 sub	 esp, 256		; 00000100H
  00017	a1 00 00 00 00	 mov	 eax, DWORD PTR ___security_cookie
  0001c	33 c5		 xor	 eax, ebp
  0001e	89 45 f0	 mov	 DWORD PTR __$ArrayPad$[ebp], eax
  00021	56		 push	 esi
  00022	57		 push	 edi
  00023	50		 push	 eax
  00024	8d 45 f4	 lea	 eax, DWORD PTR __$EHRec$[ebp]
  00027	64 a3 00 00 00
	00		 mov	 DWORD PTR fs:0, eax
  0002d	8b f9		 mov	 edi, ecx
  0002f	8b 75 08	 mov	 esi, DWORD PTR _File$[ebp]

; 40   : 	xml_document Document;

  00032	8d 8d 28 ff ff
	ff		 lea	 ecx, DWORD PTR _Document$[ebp]
  00038	e8 00 00 00 00	 call	 ??0xml_document@pugi@@QAE@XZ ; pugi::xml_document::xml_document

; 41   : 	xml_parse_result Result = Document.load_file(File);

  0003d	6a 00		 push	 0
  0003f	6a 74		 push	 116			; 00000074H
  00041	56		 push	 esi
  00042	8d 85 f4 fe ff
	ff		 lea	 eax, DWORD PTR _Result$[ebp]
  00048	c7 45 fc 00 00
	00 00		 mov	 DWORD PTR __$EHRec$[ebp+8], 0
  0004f	50		 push	 eax
  00050	8d 8d 28 ff ff
	ff		 lea	 ecx, DWORD PTR _Document$[ebp]
  00056	e8 00 00 00 00	 call	 ?load_file@xml_document@pugi@@QAE?AUxml_parse_result@2@PBDIW4xml_encoding@2@@Z ; pugi::xml_document::load_file

; 42   : 	// ----
; 43   : 	if( Result.status != status_ok )

  0005b	83 bd f4 fe ff
	ff 00		 cmp	 DWORD PTR _Result$[ebp], 0
  00062	74 13		 je	 SHORT $LN5@Read

; 44   : 	{
; 45   : 		MsgBox("[ExtraClassBalance] File %s not found!", File);

  00064	56		 push	 esi
  00065	68 00 00 00 00	 push	 OFFSET ??_C@_0CH@NIEIEANO@?$FLExtraClassBalance?$FN?5File?5?$CFs?5not?5@
  0006a	e8 00 00 00 00	 call	 ?MsgBox@@YAXPADZZ	; MsgBox
  0006f	83 c4 08	 add	 esp, 8
  00072	e9 92 01 00 00	 jmp	 $LN3@Read
$LN5@Read:

; 46   : 		return;
; 47   : 	}
; 48   : 	// ----
; 49   : 	xml_node ExtraClassBalance = Document.child("extraclassbalance");

  00077	68 00 00 00 00	 push	 OFFSET ??_C@_0BC@JLMMOGJO@extraclassbalance?$AA@
  0007c	8d 85 18 ff ff
	ff		 lea	 eax, DWORD PTR _ExtraClassBalance$[ebp]
  00082	50		 push	 eax
  00083	8d 8d 28 ff ff
	ff		 lea	 ecx, DWORD PTR _Document$[ebp]
  00089	e8 00 00 00 00	 call	 ?child@xml_node@pugi@@QBE?AV12@PBD@Z ; pugi::xml_node::child

; 50   : 	xml_node AttackList = ExtraClassBalance.child("attackincrease");

  0008e	68 00 00 00 00	 push	 OFFSET ??_C@_0P@FMMBDJPC@attackincrease?$AA@
  00093	8d 85 14 ff ff
	ff		 lea	 eax, DWORD PTR _AttackList$[ebp]
  00099	50		 push	 eax
  0009a	8d 8d 18 ff ff
	ff		 lea	 ecx, DWORD PTR _ExtraClassBalance$[ebp]
  000a0	e8 00 00 00 00	 call	 ?child@xml_node@pugi@@QBE?AV12@PBD@Z ; pugi::xml_node::child

; 52   : 	for( xml_node Node = AttackList.child("increase"); Node; Node = Node.next_sibling() )

  000a5	68 00 00 00 00	 push	 OFFSET ??_C@_08EMJGLFCF@increase?$AA@
  000aa	8d 85 24 ff ff
	ff		 lea	 eax, DWORD PTR _Node$8[ebp]
  000b0	50		 push	 eax
  000b1	8d 8d 14 ff ff
	ff		 lea	 ecx, DWORD PTR _AttackList$[ebp]
  000b7	e8 00 00 00 00	 call	 ?child@xml_node@pugi@@QBE?AV12@PBD@Z ; pugi::xml_node::child
  000bc	8d 8d 24 ff ff
	ff		 lea	 ecx, DWORD PTR _Node$8[ebp]
  000c2	e8 00 00 00 00	 call	 ??Bxml_node@pugi@@QBEP6AXPAPAPAV01@@ZXZ ; pugi::xml_node::operator void (__cdecl*)(pugi::xml_node * * *)
  000c7	85 c0		 test	 eax, eax
  000c9	0f 84 3a 01 00
	00		 je	 $LN3@Read
  000cf	8d 77 04	 lea	 esi, DWORD PTR [edi+4]
$LL4@Read:

; 53   : 	{
; 54   : 		ExtraClassAttack lpAttackInfo;
; 55   : 		lpAttackInfo.Class = Node.attribute("class").as_int();

  000d2	6a 00		 push	 0
  000d4	68 00 00 00 00	 push	 OFFSET ??_C@_05ENKANFLO@class?$AA@
  000d9	8d 85 10 ff ff
	ff		 lea	 eax, DWORD PTR $T6[ebp]
  000df	50		 push	 eax
  000e0	8d 8d 24 ff ff
	ff		 lea	 ecx, DWORD PTR _Node$8[ebp]
  000e6	e8 00 00 00 00	 call	 ?attribute@xml_node@pugi@@QBE?AVxml_attribute@2@PBD@Z ; pugi::xml_node::attribute
  000eb	8b c8		 mov	 ecx, eax
  000ed	e8 00 00 00 00	 call	 ?as_int@xml_attribute@pugi@@QBEHH@Z ; pugi::xml_attribute::as_int

; 56   : 		lpAttackInfo.Reset = Node.attribute("reset").as_int();

  000f2	6a 00		 push	 0
  000f4	88 85 1c ff ff
	ff		 mov	 BYTE PTR _lpAttackInfo$7[ebp], al
  000fa	8d 8d 24 ff ff
	ff		 lea	 ecx, DWORD PTR _Node$8[ebp]
  00100	68 00 00 00 00	 push	 OFFSET ??_C@_05CFMALAOA@reset?$AA@
  00105	8d 85 0c ff ff
	ff		 lea	 eax, DWORD PTR $T5[ebp]
  0010b	50		 push	 eax
  0010c	e8 00 00 00 00	 call	 ?attribute@xml_node@pugi@@QBE?AVxml_attribute@2@PBD@Z ; pugi::xml_node::attribute
  00111	8b c8		 mov	 ecx, eax
  00113	e8 00 00 00 00	 call	 ?as_int@xml_attribute@pugi@@QBEHH@Z ; pugi::xml_attribute::as_int

; 57   : 		lpAttackInfo.Damage = Node.attribute("damage").as_int();

  00118	6a 00		 push	 0
  0011a	66 89 85 1e ff
	ff ff		 mov	 WORD PTR _lpAttackInfo$7[ebp+2], ax
  00121	8d 8d 24 ff ff
	ff		 lea	 ecx, DWORD PTR _Node$8[ebp]
  00127	68 00 00 00 00	 push	 OFFSET ??_C@_06GJOIPFFF@damage?$AA@
  0012c	8d 85 08 ff ff
	ff		 lea	 eax, DWORD PTR $T4[ebp]
  00132	50		 push	 eax
  00133	e8 00 00 00 00	 call	 ?attribute@xml_node@pugi@@QBE?AVxml_attribute@2@PBD@Z ; pugi::xml_node::attribute
  00138	8b c8		 mov	 ecx, eax
  0013a	e8 00 00 00 00	 call	 ?as_int@xml_attribute@pugi@@QBEHH@Z ; pugi::xml_attribute::as_int

; 58   : 		lpAttackInfo.Absorb = Node.attribute("absorb").as_int();

  0013f	6a 00		 push	 0
  00141	66 89 85 20 ff
	ff ff		 mov	 WORD PTR _lpAttackInfo$7[ebp+4], ax
  00148	8d 8d 24 ff ff
	ff		 lea	 ecx, DWORD PTR _Node$8[ebp]
  0014e	68 00 00 00 00	 push	 OFFSET ??_C@_06NHOHABNA@absorb?$AA@
  00153	8d 85 04 ff ff
	ff		 lea	 eax, DWORD PTR $T3[ebp]
  00159	50		 push	 eax
  0015a	e8 00 00 00 00	 call	 ?attribute@xml_node@pugi@@QBE?AVxml_attribute@2@PBD@Z ; pugi::xml_node::attribute
  0015f	8b c8		 mov	 ecx, eax
  00161	e8 00 00 00 00	 call	 ?as_int@xml_attribute@pugi@@QBEHH@Z ; pugi::xml_attribute::as_int
; File c:\program files (x86)\microsoft visual studio 14.0\vc\include\vector

; 1616 : 		return (_Ptr < this->_Mylast() && this->_Myfirst() <= _Ptr);

  00166	8b 4e 04	 mov	 ecx, DWORD PTR [esi+4]
; File c:\users\michel\desktop\source\gameserver\source\extraclassbalance.cpp

; 58   : 		lpAttackInfo.Absorb = Node.attribute("absorb").as_int();

  00169	66 89 85 22 ff
	ff ff		 mov	 WORD PTR _lpAttackInfo$7[ebp+6], ax
; File c:\program files (x86)\microsoft visual studio 14.0\vc\include\vector

; 1616 : 		return (_Ptr < this->_Mylast() && this->_Myfirst() <= _Ptr);

  00170	8d 85 1c ff ff
	ff		 lea	 eax, DWORD PTR _lpAttackInfo$7[ebp]
  00176	3b c1		 cmp	 eax, ecx
  00178	73 38		 jae	 SHORT $LN10@Read
  0017a	8b 06		 mov	 eax, DWORD PTR [esi]
  0017c	8d 95 1c ff ff
	ff		 lea	 edx, DWORD PTR _lpAttackInfo$7[ebp]
  00182	3b c2		 cmp	 eax, edx
  00184	77 2c		 ja	 SHORT $LN10@Read

; 1277 : 			size_type _Idx = _STD addressof(_Val) - this->_Myfirst();

  00186	8b fa		 mov	 edi, edx
  00188	2b f8		 sub	 edi, eax
  0018a	c1 ff 03	 sar	 edi, 3

; 1278 : 			if (this->_Mylast() == this->_Myend())

  0018d	3b 4e 08	 cmp	 ecx, DWORD PTR [esi+8]
  00190	75 09		 jne	 SHORT $LN12@Read

; 1279 : 				_Reserve(1);

  00192	6a 01		 push	 1
  00194	8b ce		 mov	 ecx, esi
  00196	e8 00 00 00 00	 call	 ?_Reserve@?$vector@UExtraClassAttack@@V?$allocator@UExtraClassAttack@@@std@@@std@@IAEXI@Z ; std::vector<ExtraClassAttack,std::allocator<ExtraClassAttack> >::_Reserve
$LN12@Read:
; File c:\program files (x86)\microsoft visual studio 14.0\vc\include\xmemory0

; 655  : 		::new ((void *)_Ptr) _Objty(_STD forward<_Types>(_Args)...);

  0019b	8b 56 04	 mov	 edx, DWORD PTR [esi+4]
  0019e	85 d2		 test	 edx, edx
  001a0	74 36		 je	 SHORT $LN213@Read
  001a2	8b 0e		 mov	 ecx, DWORD PTR [esi]
  001a4	8b 04 f9	 mov	 eax, DWORD PTR [ecx+edi*8]
  001a7	89 02		 mov	 DWORD PTR [edx], eax
  001a9	8b 44 f9 04	 mov	 eax, DWORD PTR [ecx+edi*8+4]
  001ad	89 42 04	 mov	 DWORD PTR [edx+4], eax
; File c:\program files (x86)\microsoft visual studio 14.0\vc\include\vector

; 1285 : 		else

  001b0	eb 26		 jmp	 SHORT $LN213@Read
$LN10@Read:

; 1286 : 			{	// push back a non-element
; 1287 : 			if (this->_Mylast() == this->_Myend())

  001b2	3b 4e 08	 cmp	 ecx, DWORD PTR [esi+8]
  001b5	75 09		 jne	 SHORT $LN13@Read

; 1288 : 				_Reserve(1);

  001b7	6a 01		 push	 1
  001b9	8b ce		 mov	 ecx, esi
  001bb	e8 00 00 00 00	 call	 ?_Reserve@?$vector@UExtraClassAttack@@V?$allocator@UExtraClassAttack@@@std@@@std@@IAEXI@Z ; std::vector<ExtraClassAttack,std::allocator<ExtraClassAttack> >::_Reserve
$LN13@Read:
; File c:\program files (x86)\microsoft visual studio 14.0\vc\include\xmemory0

; 655  : 		::new ((void *)_Ptr) _Objty(_STD forward<_Types>(_Args)...);

  001c0	8b 4e 04	 mov	 ecx, DWORD PTR [esi+4]
  001c3	85 c9		 test	 ecx, ecx
  001c5	74 11		 je	 SHORT $LN213@Read
  001c7	8b 85 1c ff ff
	ff		 mov	 eax, DWORD PTR _lpAttackInfo$7[ebp]
  001cd	89 01		 mov	 DWORD PTR [ecx], eax
  001cf	8b 85 20 ff ff
	ff		 mov	 eax, DWORD PTR _lpAttackInfo$7[ebp+4]
  001d5	89 41 04	 mov	 DWORD PTR [ecx+4], eax
$LN213@Read:
; File c:\program files (x86)\microsoft visual studio 14.0\vc\include\vector

; 1292 : 			++this->_Mylast();

  001d8	83 46 04 08	 add	 DWORD PTR [esi+4], 8
; File c:\users\michel\desktop\source\gameserver\source\extraclassbalance.cpp

; 52   : 	for( xml_node Node = AttackList.child("increase"); Node; Node = Node.next_sibling() )

  001dc	8d 85 00 ff ff
	ff		 lea	 eax, DWORD PTR $T2[ebp]
  001e2	50		 push	 eax
  001e3	8d 8d 24 ff ff
	ff		 lea	 ecx, DWORD PTR _Node$8[ebp]
  001e9	e8 00 00 00 00	 call	 ?next_sibling@xml_node@pugi@@QBE?AV12@XZ ; pugi::xml_node::next_sibling
  001ee	8d 8d 24 ff ff
	ff		 lea	 ecx, DWORD PTR _Node$8[ebp]
  001f4	8b 00		 mov	 eax, DWORD PTR [eax]
  001f6	89 85 24 ff ff
	ff		 mov	 DWORD PTR _Node$8[ebp], eax
  001fc	e8 00 00 00 00	 call	 ??Bxml_node@pugi@@QBEP6AXPAPAPAV01@@ZXZ ; pugi::xml_node::operator void (__cdecl*)(pugi::xml_node * * *)
  00201	85 c0		 test	 eax, eax
  00203	0f 85 c9 fe ff
	ff		 jne	 $LL4@Read
$LN3@Read:

; 59   : 		this->m_AttackInfo.push_back(lpAttackInfo);
; 60   : 	}
; 61   : }

  00209	8d 8d 28 ff ff
	ff		 lea	 ecx, DWORD PTR _Document$[ebp]
  0020f	e8 00 00 00 00	 call	 ??1xml_document@pugi@@QAE@XZ ; pugi::xml_document::~xml_document
  00214	8b 4d f4	 mov	 ecx, DWORD PTR __$EHRec$[ebp]
  00217	64 89 0d 00 00
	00 00		 mov	 DWORD PTR fs:0, ecx
  0021e	59		 pop	 ecx
  0021f	5f		 pop	 edi
  00220	5e		 pop	 esi
  00221	8b 4d f0	 mov	 ecx, DWORD PTR __$ArrayPad$[ebp]
  00224	33 cd		 xor	 ecx, ebp
  00226	e8 00 00 00 00	 call	 @__security_check_cookie@4
  0022b	8b e5		 mov	 esp, ebp
  0022d	5d		 pop	 ebp
  0022e	c2 04 00	 ret	 4
_TEXT	ENDS
;	COMDAT text$x
text$x	SEGMENT
__unwindfunclet$?Read@ExtraClassBalance@@QAEXPAD@Z$0:
  00000	8d 8d 28 ff ff
	ff		 lea	 ecx, DWORD PTR _Document$[ebp]
  00006	e9 00 00 00 00	 jmp	 ??1xml_document@pugi@@QAE@XZ ; pugi::xml_document::~xml_document
__ehhandler$?Read@ExtraClassBalance@@QAEXPAD@Z:
  0000b	8b 54 24 08	 mov	 edx, DWORD PTR [esp+8]
  0000f	8d 42 0c	 lea	 eax, DWORD PTR [edx+12]
  00012	8b 8a f4 fe ff
	ff		 mov	 ecx, DWORD PTR [edx-268]
  00018	33 c8		 xor	 ecx, eax
  0001a	e8 00 00 00 00	 call	 @__security_check_cookie@4
  0001f	8b 4a fc	 mov	 ecx, DWORD PTR [edx-4]
  00022	33 c8		 xor	 ecx, eax
  00024	e8 00 00 00 00	 call	 @__security_check_cookie@4
  00029	b8 00 00 00 00	 mov	 eax, OFFSET __ehfuncinfo$?Read@ExtraClassBalance@@QAEXPAD@Z
  0002e	e9 00 00 00 00	 jmp	 ___CxxFrameHandler3
text$x	ENDS
?Read@ExtraClassBalance@@QAEXPAD@Z ENDP			; ExtraClassBalance::Read
; Function compile flags: /Ogtp
; File c:\users\michel\desktop\source\gameserver\source\extraclassbalance.cpp
;	COMDAT ?Load@ExtraClassBalance@@QAEXXZ
_TEXT	SEGMENT
?Load@ExtraClassBalance@@QAEXXZ PROC			; ExtraClassBalance::Load, COMDAT
; _this$ = ecx

; 33   : {

  00000	56		 push	 esi
  00001	8b f1		 mov	 esi, ecx

; 34   : 	this->Init();

  00003	e8 00 00 00 00	 call	 ?Init@ExtraClassBalance@@QAEXXZ ; ExtraClassBalance::Init

; 35   : 	this->Read(gDirPath.GetNewPath(FILE_CUSTOM_EXTRACLASSBALANCE));

  00008	68 00 00 00 00	 push	 OFFSET ??_C@_0BN@BHCJIOMH@Custom?2ExtraClassBalance?4xml?$AA@
  0000d	b9 00 00 00 00	 mov	 ecx, OFFSET ?gDirPath@@3VCDirPath@@A ; gDirPath
  00012	e8 00 00 00 00	 call	 ?GetNewPath@CDirPath@@QAEPADPAD@Z ; CDirPath::GetNewPath
  00017	50		 push	 eax
  00018	8b ce		 mov	 ecx, esi
  0001a	e8 00 00 00 00	 call	 ?Read@ExtraClassBalance@@QAEXPAD@Z ; ExtraClassBalance::Read
  0001f	5e		 pop	 esi

; 36   : }

  00020	c3		 ret	 0
?Load@ExtraClassBalance@@QAEXXZ ENDP			; ExtraClassBalance::Load
_TEXT	ENDS
; Function compile flags: /Ogtp
; File c:\users\michel\desktop\source\gameserver\source\extraclassbalance.cpp
; File c:\program files (x86)\microsoft visual studio 14.0\vc\include\vector
; File c:\users\michel\desktop\source\gameserver\source\extraclassbalance.cpp
; File c:\program files (x86)\microsoft visual studio 14.0\vc\include\vector
; File c:\users\michel\desktop\source\gameserver\source\extraclassbalance.cpp
; File c:\program files (x86)\microsoft visual studio 14.0\vc\include\vector
; File c:\program files (x86)\microsoft visual studio 14.0\vc\include\utility
; File c:\program files (x86)\microsoft visual studio 14.0\vc\include\vector
; File c:\users\michel\desktop\source\gameserver\source\extraclassbalance.cpp
;	COMDAT ?Init@ExtraClassBalance@@QAEXXZ
_TEXT	SEGMENT
$T1 = -12						; size = 12
?Init@ExtraClassBalance@@QAEXXZ PROC			; ExtraClassBalance::Init, COMDAT
; _this$ = ecx

; 24   : {

  00000	55		 push	 ebp
  00001	8b ec		 mov	 ebp, esp
; File c:\program files (x86)\microsoft visual studio 14.0\vc\include\vector

; 1542 : 		this->_Mylast() = this->_Myfirst();

  00003	8b 41 04	 mov	 eax, DWORD PTR [ecx+4]
; File c:\users\michel\desktop\source\gameserver\source\extraclassbalance.cpp

; 25   : 	this->m_AttackInfo.clear();

  00006	83 c1 04	 add	 ecx, 4
  00009	83 ec 0c	 sub	 esp, 12			; 0000000cH
; File c:\program files (x86)\microsoft visual studio 14.0\vc\include\vector

; 1542 : 		this->_Mylast() = this->_Myfirst();

  0000c	89 41 04	 mov	 DWORD PTR [ecx+4], eax

; 1042 : 		return (this->_Myend() - this->_Myfirst());

  0000f	8b 41 08	 mov	 eax, DWORD PTR [ecx+8]
  00012	2b 01		 sub	 eax, DWORD PTR [ecx]
  00014	c1 f8 03	 sar	 eax, 3
; File c:\users\michel\desktop\source\gameserver\source\extraclassbalance.cpp

; 26   : 	if( this->m_AttackInfo.capacity() > 0 )

  00017	85 c0		 test	 eax, eax
  00019	74 33		 je	 SHORT $LN310@Init
; File c:\program files (x86)\microsoft visual studio 14.0\vc\include\vector

; 1549 : 		if (this == &_Right)

  0001b	8d 45 f4	 lea	 eax, DWORD PTR $T1[ebp]
  0001e	3b c1		 cmp	 eax, ecx
  00020	74 2c		 je	 SHORT $LN310@Init
; File c:\program files (x86)\microsoft visual studio 14.0\vc\include\utility

; 53   : 	_Left = _Move(_Right);

  00022	8b 11		 mov	 edx, DWORD PTR [ecx]

; 54   : 	_Right = _Move(_Tmp);

  00024	c7 01 00 00 00
	00		 mov	 DWORD PTR [ecx], 0
  0002a	c7 41 04 00 00
	00 00		 mov	 DWORD PTR [ecx+4], 0

; 53   : 	_Left = _Move(_Right);

  00031	8b 41 08	 mov	 eax, DWORD PTR [ecx+8]

; 54   : 	_Right = _Move(_Tmp);

  00034	c7 41 08 00 00
	00 00		 mov	 DWORD PTR [ecx+8], 0
; File c:\program files (x86)\microsoft visual studio 14.0\vc\include\vector

; 1656 : 		if (this->_Myfirst() != pointer())

  0003b	85 d2		 test	 edx, edx
  0003d	74 0f		 je	 SHORT $LN310@Init

; 1657 : 			{	// something to free, destroy and deallocate it
; 1658 : 			this->_Orphan_all();
; 1659 : 			_Destroy(this->_Myfirst(), this->_Mylast());
; 1660 : 			this->_Getal().deallocate(this->_Myfirst(),

  0003f	2b c2		 sub	 eax, edx
  00041	8d 4d f4	 lea	 ecx, DWORD PTR $T1[ebp]
  00044	c1 f8 03	 sar	 eax, 3
  00047	50		 push	 eax
  00048	52		 push	 edx
  00049	e8 00 00 00 00	 call	 ?deallocate@?$_Wrap_alloc@V?$allocator@UExtraClassAttack@@@std@@@std@@QAEXPAUExtraClassAttack@@I@Z ; std::_Wrap_alloc<std::allocator<ExtraClassAttack> >::deallocate
$LN310@Init:
; File c:\users\michel\desktop\source\gameserver\source\extraclassbalance.cpp

; 30   : }

  0004e	8b e5		 mov	 esp, ebp
  00050	5d		 pop	 ebp
  00051	c3		 ret	 0
?Init@ExtraClassBalance@@QAEXXZ ENDP			; ExtraClassBalance::Init
_TEXT	ENDS
; Function compile flags: /Ogtp
; File c:\users\michel\desktop\source\gameserver\source\extraclassbalance.cpp
; File c:\program files (x86)\microsoft visual studio 14.0\vc\include\vector
; File c:\users\michel\desktop\source\gameserver\source\extraclassbalance.cpp
;	COMDAT ??1ExtraClassBalance@@UAE@XZ
_TEXT	SEGMENT
??1ExtraClassBalance@@UAE@XZ PROC			; ExtraClassBalance::~ExtraClassBalance, COMDAT
; _this$ = ecx

; 19   : {

  00000	56		 push	 esi

; 21   : }

  00001	8d 71 04	 lea	 esi, DWORD PTR [ecx+4]
  00004	c7 01 00 00 00
	00		 mov	 DWORD PTR [ecx], OFFSET ??_7ExtraClassBalance@@6B@
; File c:\program files (x86)\microsoft visual studio 14.0\vc\include\vector

; 1656 : 		if (this->_Myfirst() != pointer())

  0000a	8b 0e		 mov	 ecx, DWORD PTR [esi]
  0000c	85 c9		 test	 ecx, ecx
  0000e	74 25		 je	 SHORT $LN7@ExtraClass

; 1657 : 			{	// something to free, destroy and deallocate it
; 1658 : 			this->_Orphan_all();
; 1659 : 			_Destroy(this->_Myfirst(), this->_Mylast());
; 1660 : 			this->_Getal().deallocate(this->_Myfirst(),

  00010	8b 46 08	 mov	 eax, DWORD PTR [esi+8]
  00013	2b c1		 sub	 eax, ecx
  00015	c1 f8 03	 sar	 eax, 3
  00018	50		 push	 eax
  00019	51		 push	 ecx
  0001a	8b ce		 mov	 ecx, esi
  0001c	e8 00 00 00 00	 call	 ?deallocate@?$_Wrap_alloc@V?$allocator@UExtraClassAttack@@@std@@@std@@QAEXPAUExtraClassAttack@@I@Z ; std::_Wrap_alloc<std::allocator<ExtraClassAttack> >::deallocate

; 1661 : 				this->_Myend() - this->_Myfirst());
; 1662 : 			this->_Myfirst() = pointer();

  00021	c7 06 00 00 00
	00		 mov	 DWORD PTR [esi], 0

; 1663 : 			this->_Mylast() = pointer();

  00027	c7 46 04 00 00
	00 00		 mov	 DWORD PTR [esi+4], 0

; 1664 : 			this->_Myend() = pointer();

  0002e	c7 46 08 00 00
	00 00		 mov	 DWORD PTR [esi+8], 0
$LN7@ExtraClass:
  00035	5e		 pop	 esi
; File c:\users\michel\desktop\source\gameserver\source\extraclassbalance.cpp

; 21   : }

  00036	c3		 ret	 0
