; Listing generated by Microsoft (R) Optimizing Compiler Version 19.00.23506.0 

	TITLE	C:\Users\Michel\Desktop\Source\GameServer\Source\gObjMonster.cpp
	.686P
	.XMM
	include listing.inc
	.model	flat

INCLUDELIB LIBCMT
INCLUDELIB OLDNAMES

PUBLIC	??_H@YGXPAXIIP6EPAX0@Z@Z			; `vector constructor iterator'
PUBLIC	?__empty_global_delete@@YAXPAX@Z		; __empty_global_delete
PUBLIC	?__empty_global_delete@@YAXPAXI@Z		; __empty_global_delete
PUBLIC	??1OBJECTSTRUCT@@QAE@XZ				; OBJECTSTRUCT::~OBJECTSTRUCT
PUBLIC	??_EOBJECTSTRUCT@@QAEPAXI@Z			; OBJECTSTRUCT::`vector deleting destructor'
PUBLIC	?Run@CQeustNpcTeleport@@QAEXH@Z			; CQeustNpcTeleport::Run
PUBLIC	?gObjMonsterMoveRegen@@YAXHHPAUOBJECTSTRUCT@@@Z	; gObjMonsterMoveRegen
PUBLIC	?gObjMonsterRegen@@YAHPAUOBJECTSTRUCT@@@Z	; gObjMonsterRegen
PUBLIC	?gObjMonsterViewportIsCharacter@@YAHPAUOBJECTSTRUCT@@@Z ; gObjMonsterViewportIsCharacter
PUBLIC	?gObjMonsterHitDamageInit@@YAXPAUOBJECTSTRUCT@@@Z ; gObjMonsterHitDamageInit
PUBLIC	?gObjMonsterHitDamageUserDel@@YAHPAUOBJECTSTRUCT@@@Z ; gObjMonsterHitDamageUserDel
PUBLIC	?gObjMonsterSetHitDamage@@YAXPAUOBJECTSTRUCT@@HH@Z ; gObjMonsterSetHitDamage
PUBLIC	?gObjMonsterTopHitDamageUser@@YAHPAUOBJECTSTRUCT@@@Z ; gObjMonsterTopHitDamageUser
PUBLIC	?gObjMonsterLastHitDamageUser@@YAHPAUOBJECTSTRUCT@@AAH@Z ; gObjMonsterLastHitDamageUser
PUBLIC	?gObjMonsterMoveCheck@@YAHPAUOBJECTSTRUCT@@HH@Z	; gObjMonsterMoveCheck
PUBLIC	?gObjMonsterGetTargetPos@@YAHPAUOBJECTSTRUCT@@@Z ; gObjMonsterGetTargetPos
PUBLIC	?gObjGetTargetPos@@YAHPAUOBJECTSTRUCT@@HHAAH1@Z	; gObjGetTargetPos
PUBLIC	?gObjCallMonsterSetEnemy@@YAHPAUOBJECTSTRUCT@@H@Z ; gObjCallMonsterSetEnemy
PUBLIC	?gObjMonsterSearchEnemy@@YAHPAUOBJECTSTRUCT@@E@Z ; gObjMonsterSearchEnemy
PUBLIC	?gObjGuardSearchEnemy@@YAHPAUOBJECTSTRUCT@@@Z	; gObjGuardSearchEnemy
PUBLIC	?gObjMonsterStateProc@@YAXPAUOBJECTSTRUCT@@HHH@Z ; gObjMonsterStateProc
PUBLIC	?gObjMonsterProcess@@YAXPAUOBJECTSTRUCT@@@Z	; gObjMonsterProcess
PUBLIC	?gObjMonsterMagicAttack@@YAXPAUOBJECTSTRUCT@@H@Z ; gObjMonsterMagicAttack
PUBLIC	?gObjUseMonsterSpecialAbillity@@YAXPAUOBJECTSTRUCT@@@Z ; gObjUseMonsterSpecialAbillity
PUBLIC	?gObjMonsterBeattackRecv@@YAXPAEH@Z		; gObjMonsterBeattackRecv
PUBLIC	?gObjMonsterAttack@@YAXPAUOBJECTSTRUCT@@0@Z	; gObjMonsterAttack
PUBLIC	?PathFindMoveMsgSend@@YAHPAUOBJECTSTRUCT@@@Z	; PathFindMoveMsgSend
PUBLIC	?gObjMonsterMoveAction@@YAXPAUOBJECTSTRUCT@@@Z	; gObjMonsterMoveAction
PUBLIC	?gObjMonsterBaseAct@@YAXPAUOBJECTSTRUCT@@@Z	; gObjMonsterBaseAct
PUBLIC	?gObjTrapAttackEnemySearchX@@YAXPAUOBJECTSTRUCT@@H@Z ; gObjTrapAttackEnemySearchX
PUBLIC	?gObjTrapAttackEnemySearchY@@YAXPAUOBJECTSTRUCT@@H@Z ; gObjTrapAttackEnemySearchY
PUBLIC	?gObjTrapAttackEnemySearch@@YAXPAUOBJECTSTRUCT@@@Z ; gObjTrapAttackEnemySearch
PUBLIC	?gObjTrapAttackEnemySearchRange@@YAXPAUOBJECTSTRUCT@@H@Z ; gObjTrapAttackEnemySearchRange
PUBLIC	?gObjMonsterTrapAct@@YAXPAUOBJECTSTRUCT@@@Z	; gObjMonsterTrapAct
PUBLIC	?NewOptionRand@@YAEH@Z				; NewOptionRand
PUBLIC	?gObjSkylandBossSheildAttack@@YAXPAUOBJECTSTRUCT@@@Z ; gObjSkylandBossSheildAttack
PUBLIC	?IsCanNotItemDtopInDevilSquare@@YAHH@Z		; IsCanNotItemDtopInDevilSquare
PUBLIC	?gObjRefillMonsterHP@@YAXPAUOBJECTSTRUCT@@H@Z	; gObjRefillMonsterHP
PUBLIC	?gObjMonsterDieGiveItem@@YAXPAUOBJECTSTRUCT@@0@Z ; gObjMonsterDieGiveItem
PUBLIC	?gEventMonsterItemDrop@@YAHPAUOBJECTSTRUCT@@0@Z	; gEventMonsterItemDrop
PUBLIC	?gObjMonsterSelectSkillForMedusa@@YAHPAUOBJECTSTRUCT@@@Z ; gObjMonsterSelectSkillForMedusa
PUBLIC	?getInstance@MonsterSpawnerMng@@SAPAV1@XZ	; MonsterSpawnerMng::getInstance
PUBLIC	?gQeustNpcTeleport@@3VCQeustNpcTeleport@@A	; gQeustNpcTeleport
PUBLIC	?KUNDUN_EVENT_LOG@@3VCLogToFile@@A		; KUNDUN_EVENT_LOG
PUBLIC	??_C@_0M@BCGMCOPG@?4?2Log?2Event?$AA@		; `string'
PUBLIC	??_C@_06EEHCNIJK@Kundun?$AA@			; `string'
PUBLIC	??_C@_0BA@OAKCBJLL@gObjMonster?4cpp?$AA@	; `string'
PUBLIC	??_C@_0N@DOCIPDEL@ERROR?3?5?$CFs?5?$CFd?$AA@	; `string'
PUBLIC	??_C@_0CA@MINPGEPL@error?9L2?5?3?5Hit?5Damage?5Set?5error?$AA@ ; `string'
PUBLIC	??_C@_0EJ@LOBMAKBH@?$FL?5KANTURU?5?$FN?$FL?5Debug?5?9?5m_PosNum?5?$FN?5@ ; `string'
PUBLIC	??_C@_0DI@FKJGCAAF@?$FLBlood?5Castle?$FN?5?$CI?$CFd?$CJ?5All?5of?5the?5M@ ; `string'
PUBLIC	??_C@_0DN@OMDKGOEJ@?$FLBlood?5Castle?$FN?5?$CI?$CFd?$CJ?5All?5of?5the?5B@ ; `string'
PUBLIC	??_C@_0P@EEHIDPGB@error?9L3?5?$CFs?5?$CFd?$AA@	; `string'
PUBLIC	??_C@_0DD@MDNPGPML@?G?O?F?$KO?5?$LO?F?$MA?L?E?$NL?$MA?$LL?5?$LL?s?A?$KB?$LP?$KB?5?A?V?$LM?$LM?$LP?d?4?5?G?$KK?A@ ; `string'
PUBLIC	??_C@_0DJ@LBLCMLBJ@?$FLKUNDUN?$FN?5HP?5Log?5?9?$DO?5?$FL?$CFd?$FN?H?$LI?$LK?$LJ?5?5?$FL?$CFd@ ; `string'
PUBLIC	??_C@_0DI@BCGOHKAP@?$FLKUNDUN?$FN?$FLStatus?5Log?$FN?5HP?3?$CFd?5Refil@ ; `string'
PUBLIC	??_C@_0DH@PKHNCCG@?$FLKUNDUN?$FN?$FLAttacker?5Info?$FN?5?$FL?$CFs?$FN?$FL?$CFs?$FN@ ; `string'
PUBLIC	??_C@_0CI@JDPIHCJH@?$FLCastle?5HuntZone?$FN?5Drop?5SetItem?5?$FL@ ; `string'
PUBLIC	??_C@_0O@PGINOIGE@NPC?5?$CFd?$LH?N?5?$MA?L?$LF?$LP?$AA@ ; `string'
PUBLIC	__real@00000000
PUBLIC	__real@3f800000
PUBLIC	__real@3fd3333333333333
PUBLIC	__real@40a00000
PUBLIC	__real@40c00000
PUBLIC	__real@41c80000
PUBLIC	__real@42c80000
PUBLIC	__xmm@00000001000000570000008900000000
PUBLIC	__xmm@00000002000000190000001100000007
PUBLIC	__xmm@000000020000002f000000c600000002
PUBLIC	__xmm@0000000200000059000000a900000003
EXTRN	??_M@YGXPAXIIP6EX0@Z@Z:PROC			; `eh vector destructor iterator'
EXTRN	??2@YAPAXI@Z:PROC				; operator new
EXTRN	??3@YAXPAXI@Z:PROC				; operator delete
EXTRN	??_V@YAXPAXI@Z:PROC				; operator delete[]
EXTRN	_atexit:PROC
EXTRN	__imp__InitializeCriticalSection@4:PROC
EXTRN	__imp__DeleteCriticalSection@4:PROC
EXTRN	__imp__GetTickCount@0:PROC
EXTRN	_rand:PROC
EXTRN	?Get@Message@@QAEPADH@Z:PROC			; Message::Get
EXTRN	?IsItem@CItem@@QAEHXZ:PROC			; CItem::IsItem
EXTRN	?ItemGetNumberMake@@YAHHH@Z:PROC		; ItemGetNumberMake
EXTRN	?ItemGetDurability@@YAHHHHH@Z:PROC		; ItemGetDurability
EXTRN	?zzzItemLevel@@YAHHHH@Z:PROC			; zzzItemLevel
EXTRN	??1CSkillDelay@@UAE@XZ:PROC			; CSkillDelay::~CSkillDelay
EXTRN	??0CMagicInf@@QAE@XZ:PROC			; CMagicInf::CMagicInf
EXTRN	??1CMagicInf@@UAE@XZ:PROC			; CMagicInf::~CMagicInf
EXTRN	??1TMonsterAIAgro@@UAE@XZ:PROC			; TMonsterAIAgro::~TMonsterAIAgro
EXTRN	?Is380OptionItem@CItemSystemFor380@@QAEHPBVCItem@@@Z:PROC ; CItemSystemFor380::Is380OptionItem
EXTRN	?IsSocketItem@CSocketItems@@QAE_NH@Z:PROC	; CSocketItems::IsSocketItem
EXTRN	?IsDropMap@CSocketItems@@QAEEH@Z:PROC		; CSocketItems::IsDropMap
EXTRN	?GetSphereDrop@CSocketItems@@QAEHH@Z:PROC	; CSocketItems::GetSphereDrop
EXTRN	?CheckWall@MapClass@@QAEHHHHH@Z:PROC		; MapClass::CheckWall
EXTRN	?CheckWall2@MapClass@@QAEEHHHH@Z:PROC		; MapClass::CheckWall2
EXTRN	?MonsterItemDrop@MapClass@@QAEHHHMHHEEEEEHKEPAEE@Z:PROC ; MapClass::MonsterItemDrop
EXTRN	?MoneyItemDrop@MapClass@@QAEHHHH@Z:PROC		; MapClass::MoneyItemDrop
EXTRN	?PathFinding2@MapClass@@QAE_NHHHHPAUPATH_t@@@Z:PROC ; MapClass::PathFinding2
EXTRN	?PathFinding3@MapClass@@QAE_NHHHHPAUPATH_t@@@Z:PROC ; MapClass::PathFinding3
EXTRN	?PathFinding4@MapClass@@QAE_NHHHHPAUPATH_t@@@Z:PROC ; MapClass::PathFinding4
EXTRN	?SetStandAttr@MapClass@@QAEXHH@Z:PROC		; MapClass::SetStandAttr
EXTRN	?ClearStandAttr@MapClass@@QAEXHH@Z:PROC		; MapClass::ClearStandAttr
EXTRN	?GetStandAttr@MapClass@@QAEHHH@Z:PROC		; MapClass::GetStandAttr
EXTRN	?GetAttr@MapClass@@QAEEHH@Z:PROC		; MapClass::GetAttr
EXTRN	?MsgSendV2@@YAXPAUOBJECTSTRUCT@@PAEH@Z:PROC	; MsgSendV2
EXTRN	?ChatSend@@YAXPAUOBJECTSTRUCT@@PAD@Z:PROC	; ChatSend
EXTRN	?PMoveProc@@YAXPAUPMSG_MOVE@@H@Z:PROC		; PMoveProc
EXTRN	?CGAttack@@YAXPAUPMSG_ATTACK@@H@Z:PROC		; CGAttack
EXTRN	?GCActionSend@@YAXPAUOBJECTSTRUCT@@EHH@Z:PROC	; GCActionSend
EXTRN	?CGMagicAttack@@YAXPAUPMSG_MAGICATTACK@@H@Z:PROC ; CGMagicAttack
EXTRN	?GCUseMonsterSkillSend@@YAXPAUOBJECTSTRUCT@@0H@Z:PROC ; GCUseMonsterSkillSend
EXTRN	?CGBeattackRecv@@YAXPAEHH@Z:PROC		; CGBeattackRecv
EXTRN	?CGDurationMagicRecv@@YAXPAUPMSG_DURATION_MAGIC_RECV@@H@Z:PROC ; CGDurationMagicRecv
EXTRN	?gObjClearViewport@@YAXPAUOBJECTSTRUCT@@@Z:PROC	; gObjClearViewport
EXTRN	?gObjMemFree@@YAFH@Z:PROC			; gObjMemFree
EXTRN	?gObjDel@@YAFH@Z:PROC				; gObjDel
EXTRN	?gObjIsConnected@@YAHH@Z:PROC			; gObjIsConnected
EXTRN	?GetPathPacketDirPos@@YAEHH@Z:PROC		; GetPathPacketDirPos
EXTRN	?gObjCalDistance@@YAHPAUOBJECTSTRUCT@@0@Z:PROC	; gObjCalDistance
EXTRN	?gObjCheckTileArea@@YAHHHHH@Z:PROC		; gObjCheckTileArea
EXTRN	?gObjMsgProc@@YAXPAUOBJECTSTRUCT@@@Z:PROC	; gObjMsgProc
EXTRN	?gObjBackSpring@@YAHPAUOBJECTSTRUCT@@0@Z:PROC	; gObjBackSpring
EXTRN	?gObjBackSpring2@@YAHPAUOBJECTSTRUCT@@0H@Z:PROC	; gObjBackSpring2
EXTRN	?retResistance@@YAHPAUOBJECTSTRUCT@@H@Z:PROC	; retResistance
EXTRN	?gObjAttack@@YAXPAUOBJECTSTRUCT@@0PAVCMagicInf@@HEHHEE@Z:PROC ; gObjAttack
EXTRN	?CreateFrustrum@@YAXHHH@Z:PROC			; CreateFrustrum
EXTRN	?gObjViewportClose@@YAXPAUOBJECTSTRUCT@@@Z:PROC	; gObjViewportClose
EXTRN	?gObjViewportListCreate@@YAXF@Z:PROC		; gObjViewportListCreate
EXTRN	?gObjViewportListProtocolDestroy@@YAXPAUOBJECTSTRUCT@@@Z:PROC ; gObjViewportListProtocolDestroy
EXTRN	?gObjViewportListProtocolCreate@@YAXPAUOBJECTSTRUCT@@@Z:PROC ; gObjViewportListProtocolCreate
EXTRN	?gObjTeleportMagicUse@@YAXHEE@Z:PROC		; gObjTeleportMagicUse
EXTRN	?gObjGetMagic@@YAPAVCMagicInf@@PAUOBJECTSTRUCT@@H@Z:PROC ; gObjGetMagic
EXTRN	?gObjMonsterCallKill@@YAXH@Z:PROC		; gObjMonsterCallKill
EXTRN	?MakeRewardSetItem@@YAXHEEHH@Z:PROC		; MakeRewardSetItem
EXTRN	?gObjGetRandomItemDropLocation@@YAHHAAE0HHH@Z:PROC ; gObjGetRandomItemDropLocation
EXTRN	?gObjGetRandomFreeLocation@@YAHHAAE0HHH@Z:PROC	; gObjGetRandomFreeLocation
EXTRN	?gObjUnicornSprite@@YAHPAUOBJECTSTRUCT@@@Z:PROC	; gObjUnicornSprite
EXTRN	?Output@CLogToFile@@QAAXPADZZ:PROC		; CLogToFile::Output
EXTRN	??0CLogToFile@@QAE@QAD0H@Z:PROC			; CLogToFile::CLogToFile
EXTRN	??1CLogToFile@@QAE@XZ:PROC			; CLogToFile::~CLogToFile
EXTRN	?GetPosition@CMonsterSetBase@@QAEHHFAAE0@Z:PROC	; CMonsterSetBase::GetPosition
EXTRN	?GetBoxPosition@CMonsterSetBase@@QAEHHHHHHAAE0@Z:PROC ; CMonsterSetBase::GetBoxPosition
EXTRN	?GetAttr@CMonsterAttr@@QAEPAUMONSTER_ATTRIBUTE@@H@Z:PROC ; CMonsterAttr::GetAttr
EXTRN	?PHeadSetB@@YAXPAEEH@Z:PROC			; PHeadSetB
EXTRN	?PHeadSetBE@@YAXPAEEH@Z:PROC			; PHeadSetBE
EXTRN	?gBattleSoccerScoreUpdate@@YAHHH@Z:PROC		; gBattleSoccerScoreUpdate
EXTRN	?gCheckGoal@@YAHHHAAH@Z:PROC			; gCheckGoal
EXTRN	?DeleteMercenary@CMercenary@@QAEHH@Z:PROC	; CMercenary::DeleteMercenary
EXTRN	?MercenaryAct@CMercenary@@QAEXH@Z:PROC		; CMercenary::MercenaryAct
EXTRN	?ItemSerialCreateSend@@YAXHEEEHEEEEEHEEEPAE@Z:PROC ; ItemSerialCreateSend
EXTRN	?SendBridgeAnyMsg@CBloodCastle@@QAEXPAEHH@Z:PROC ; CBloodCastle::SendBridgeAnyMsg
EXTRN	?SendNoticeMessage@CBloodCastle@@QAEXHPAD@Z:PROC ; CBloodCastle::SendNoticeMessage
EXTRN	?ReleaseCastleBridge@CBloodCastle@@QAEXH@Z:PROC	; CBloodCastle::ReleaseCastleBridge
EXTRN	?CheckMonsterKillCount@CBloodCastle@@QAE_NH@Z:PROC ; CBloodCastle::CheckMonsterKillCount
EXTRN	?CheckBossKillCount@CBloodCastle@@QAE_NH@Z:PROC	; CBloodCastle::CheckBossKillCount
EXTRN	?GetCurrentLiveUserCount@CBloodCastle@@QAEHH@Z:PROC ; CBloodCastle::GetCurrentLiveUserCount
EXTRN	?SetSaintStatue@CBloodCastle@@QAEXH@Z:PROC	; CBloodCastle::SetSaintStatue
EXTRN	?GetBridgeLevel@CBloodCastle@@QAEHH@Z:PROC	; CBloodCastle::GetBridgeLevel
EXTRN	?KalimaGateAct@CKalimaGate@@QAEXH@Z:PROC	; CKalimaGate::KalimaGateAct
EXTRN	?CreateKalimaGate2@CKalimaGate@@QAEHHHEE@Z:PROC	; CKalimaGate::CreateKalimaGate2
EXTRN	?KalimaGateAct2@CKalimaGate@@QAEXH@Z:PROC	; CKalimaGate::KalimaGateAct2
EXTRN	?GetOccupationState@CCrywolfSync@@QAEHXZ:PROC	; CCrywolfSync::GetOccupationState
EXTRN	?GetCrywolfState@CCrywolfSync@@QAEHXZ:PROC	; CCrywolfSync::GetCrywolfState
EXTRN	?GetGemDropPenaltiyRate@CCrywolfSync@@QAEHXZ:PROC ; CCrywolfSync::GetGemDropPenaltiyRate
EXTRN	?GetMonHPBenefitRate@CCrywolfSync@@QAEHXZ:PROC	; CCrywolfSync::GetMonHPBenefitRate
EXTRN	?GetKundunHPRefillState@CCrywolfSync@@QAEHXZ:PROC ; CCrywolfSync::GetKundunHPRefillState
EXTRN	?CheckMonsterSkill@TMonsterSkillManager@@SAHH@Z:PROC ; TMonsterSkillManager::CheckMonsterSkill
EXTRN	?UseMonsterSkill@TMonsterSkillManager@@SAXHHHHPAVCMagicInf@@@Z:PROC ; TMonsterSkillManager::UseMonsterSkill
EXTRN	?GetItemEx@CMonsterItemMngEx@@QAEPAVCItem@@H@Z:PROC ; CMonsterItemMngEx::GetItemEx
EXTRN	?SearchNDropMonsterItem@CChaosCastle@@QAEXHHH@Z:PROC ; CChaosCastle::SearchNDropMonsterItem
EXTRN	?GetFloor@CChaosCastle@@QAEHH@Z:PROC		; CChaosCastle::GetFloor
EXTRN	?MonsterKill@CQuestInfo@@QAEHPAUOBJECTSTRUCT@@0@Z:PROC ; CQuestInfo::MonsterKill
EXTRN	?MonsterItemDrop@CQuestInfo@@QAEHPAUOBJECTSTRUCT@@@Z:PROC ; CQuestInfo::MonsterItemDrop
EXTRN	?MonsterKill@CQuestInfoEx@@QAEHPAUOBJECTSTRUCT@@0@Z:PROC ; CQuestInfoEx::MonsterKill
EXTRN	?ItemDrop@CIllusionTempleEvent@@QAEXPAUOBJECTSTRUCT@@@Z:PROC ; CIllusionTempleEvent::ItemDrop
EXTRN	?DelNPC@CCastleSiege@@QAEHHHHH@Z:PROC		; CCastleSiege::DelNPC
EXTRN	?DeleteLifeStone@CLifeStone@@QAEHH@Z:PROC	; CLifeStone::DeleteLifeStone
EXTRN	?gObjAddBuffEffect@@YA_NPAUOBJECTSTRUCT@@HEHEHH@Z:PROC ; gObjAddBuffEffect
EXTRN	?gObjCheckUsedBuffEffect@@YA_NPAUOBJECTSTRUCT@@H@Z:PROC ; gObjCheckUsedBuffEffect
EXTRN	?gObjGetTotalValueOfEffect@@YAHPAUOBJECTSTRUCT@@H@Z:PROC ; gObjGetTotalValueOfEffect
EXTRN	?GetRaklionState@CRaklion@@QAEHXZ:PROC		; CRaklion::GetRaklionState
EXTRN	?OpenMonster@EventItemBagManager@@QAEEH@Z:PROC	; EventItemBagManager::OpenMonster
EXTRN	?IsAttackAbleMonster@CImperialGuardian@@QAE_NH@Z:PROC ; CImperialGuardian::IsAttackAbleMonster
EXTRN	?SetTargetMoveAllMonster@CImperialGuardian@@QAEXHH@Z:PROC ; CImperialGuardian::SetTargetMoveAllMonster
EXTRN	?MonsterBaseAct@CImperialGuardian@@QAEXPAUOBJECTSTRUCT@@@Z:PROC ; CImperialGuardian::MonsterBaseAct
EXTRN	?Drop@CElementalSystem@@QAEHPAUOBJECTSTRUCT@@0@Z:PROC ; CElementalSystem::Drop
EXTRN	?SkillBerserker@CObjUseSkill@@QAEHHPAVCMagicInf@@@Z:PROC ; CObjUseSkill::SkillBerserker
EXTRN	??0TMonsterAIUtil@@QAE@XZ:PROC			; TMonsterAIUtil::TMonsterAIUtil
EXTRN	??1TMonsterAIUtil@@UAE@XZ:PROC			; TMonsterAIUtil::~TMonsterAIUtil
EXTRN	?MonsterDieHandle@CDoubleGoerEvent@@QAEXPAUOBJECTSTRUCT@@@Z:PROC ; CDoubleGoerEvent::MonsterDieHandle
EXTRN	?gObjMonsterMove@CDoubleGoerEvent@@QAEXPAUOBJECTSTRUCT@@@Z:PROC ; CDoubleGoerEvent::gObjMonsterMove
EXTRN	?MonsterItemDrop@@YAXPAUOBJECTSTRUCT@@@Z:PROC	; MonsterItemDrop
EXTRN	?GetMoney@MapRateInfo@@QAEMF@Z:PROC		; MapRateInfo::GetMoney
EXTRN	?Run@MonsterMoneyDrop@@QAEHPAUOBJECTSTRUCT@@0@Z:PROC ; MonsterMoneyDrop::Run
EXTRN	?IsObserver@CNewPVP@@QAEHAAUOBJECTSTRUCT@@@Z:PROC ; CNewPVP::IsObserver
EXTRN	??0MonsterSpawnerMng@@QAE@XZ:PROC		; MonsterSpawnerMng::MonsterSpawnerMng
EXTRN	?isEventMonster@MonsterSpawnerMng@@QAE_NF@Z:PROC ; MonsterSpawnerMng::isEventMonster
EXTRN	@__security_check_cookie@4:PROC
EXTRN	___CxxFrameHandler3:PROC
EXTRN	__except_handler4:PROC
EXTRN	__libm_sse2_sqrt_precise:PROC
EXTRN	?lMsg@@3VMessage@@A:BYTE			; lMsg
EXTRN	?ItemAttribute@@3PAUITEM_ATTRIBUTE@@A:BYTE	; ItemAttribute
EXTRN	?LogAdd@@3P6AXPADZZA:DWORD			; LogAdd
EXTRN	?LogAddTD@@3P6AXPADZZA:DWORD			; LogAddTD
EXTRN	?g_kItemSystemFor380@@3VCItemSystemFor380@@A:BYTE ; g_kItemSystemFor380
EXTRN	?g_SocketItem@@3VCSocketItems@@A:BYTE		; g_SocketItem
EXTRN	?g_SocketRecipe_DropLevel@@3HA:DWORD		; g_SocketRecipe_DropLevel
EXTRN	?g_SocketRecipe_DropRate@@3HA:DWORD		; g_SocketRecipe_DropRate
EXTRN	?g_SocketMaterial_Lv1@@3HA:DWORD		; g_SocketMaterial_Lv1
EXTRN	?g_SocketMaterial_Lv2@@3HA:DWORD		; g_SocketMaterial_Lv2
EXTRN	?RoadPathTable@@3PAFA:BYTE			; RoadPathTable
EXTRN	?gObj@@3PAUOBJECTSTRUCT@@A:DWORD		; gObj
EXTRN	?m_ObjBill@@3PAVBILL_CLASS@@A:BYTE		; m_ObjBill
EXTRN	?gEnableEventNPCTalk@@3HA:DWORD			; gEnableEventNPCTalk
EXTRN	?gFireCrackerEvent@@3HA:DWORD			; gFireCrackerEvent
EXTRN	?gHeartOfLoveEvent@@3HA:DWORD			; gHeartOfLoveEvent
EXTRN	?gMedalEvent@@3HA:DWORD				; gMedalEvent
EXTRN	?gEventChipEvent@@3HA:DWORD			; gEventChipEvent
EXTRN	?gDevilSquareEvent@@3HA:DWORD			; gDevilSquareEvent
EXTRN	?g_iKundunMarkDropRate@@3HA:DWORD		; g_iKundunMarkDropRate
EXTRN	?g_iMarkOfTheLord@@3HA:DWORD			; g_iMarkOfTheLord
EXTRN	?g_iDarkLordHeartDropRate@@3HA:DWORD		; g_iDarkLordHeartDropRate
EXTRN	?g_iMysteriousBeadDropRate1@@3HA:DWORD		; g_iMysteriousBeadDropRate1
EXTRN	?g_iMysteriousBeadDropRate2@@3HA:DWORD		; g_iMysteriousBeadDropRate2
EXTRN	?gIsItemDropRingOfTransform@@3HA:DWORD		; gIsItemDropRingOfTransform
EXTRN	?MapC@@3PAVMapClass@@A:BYTE			; MapC
EXTRN	?gMAttr@@3VCMonsterAttr@@A:BYTE			; gMAttr
EXTRN	?gMSetBase@@3VCMonsterSetBase@@A:BYTE		; gMSetBase
EXTRN	?gIsDropDarkLordItem@@3HA:DWORD			; gIsDropDarkLordItem
EXTRN	?gSleeveOfLordDropRate@@3HA:DWORD		; gSleeveOfLordDropRate
EXTRN	?gSleeveOfLordDropLevel@@3HA:DWORD		; gSleeveOfLordDropLevel
EXTRN	?gSoulOfDarkHorseDropRate@@3HA:DWORD		; gSoulOfDarkHorseDropRate
EXTRN	?gSoulOfDarkHorseropLevel@@3HA:DWORD		; gSoulOfDarkHorseropLevel
EXTRN	?gSoulOfDarkSpiritDropRate@@3HA:DWORD		; gSoulOfDarkSpiritDropRate
EXTRN	?gSoulOfDarkSpiritDropLevel@@3HA:DWORD		; gSoulOfDarkSpiritDropLevel
EXTRN	?gIsDropGemOfDefend@@3HA:DWORD			; gIsDropGemOfDefend
EXTRN	?gGemOfDefendDropRate@@3HA:DWORD		; gGemOfDefendDropRate
EXTRN	?gGemOfDefendDropLevel@@3HA:DWORD		; gGemOfDefendDropLevel
EXTRN	?g_bRibbonBoxEvent@@3HA:DWORD			; g_bRibbonBoxEvent
EXTRN	?g_iRedRibbonBoxDropLevelMin@@3HA:DWORD		; g_iRedRibbonBoxDropLevelMin
EXTRN	?g_iRedRibbonBoxDropLevelMax@@3HA:DWORD		; g_iRedRibbonBoxDropLevelMax
EXTRN	?g_iRedRibbonBoxDropRate@@3HA:DWORD		; g_iRedRibbonBoxDropRate
EXTRN	?g_iGreenRibbonBoxDropLevelMin@@3HA:DWORD	; g_iGreenRibbonBoxDropLevelMin
EXTRN	?g_iGreenRibbonBoxDropLevelMax@@3HA:DWORD	; g_iGreenRibbonBoxDropLevelMax
EXTRN	?g_iGreenRibbonBoxDropRate@@3HA:DWORD		; g_iGreenRibbonBoxDropRate
EXTRN	?g_iBlueRibbonBoxDropLevelMin@@3HA:DWORD	; g_iBlueRibbonBoxDropLevelMin
EXTRN	?g_iBlueRibbonBoxDropLevelMax@@3HA:DWORD	; g_iBlueRibbonBoxDropLevelMax
EXTRN	?g_iBlueRibbonBoxDropRate@@3HA:DWORD		; g_iBlueRibbonBoxDropRate
EXTRN	?g_bChocolateBoxEvent@@3HA:DWORD		; g_bChocolateBoxEvent
EXTRN	?g_iPinkChocolateBoxDropLevelMin@@3HA:DWORD	; g_iPinkChocolateBoxDropLevelMin
EXTRN	?g_iPinkChocolateBoxDropLevelMax@@3HA:DWORD	; g_iPinkChocolateBoxDropLevelMax
EXTRN	?g_iPinkChocolateBoxDropRate@@3HA:DWORD		; g_iPinkChocolateBoxDropRate
EXTRN	?g_iRedChocolateBoxDropLevelMin@@3HA:DWORD	; g_iRedChocolateBoxDropLevelMin
EXTRN	?g_iRedChocolateBoxDropLevelMax@@3HA:DWORD	; g_iRedChocolateBoxDropLevelMax
EXTRN	?g_iRedChocolateBoxDropRate@@3HA:DWORD		; g_iRedChocolateBoxDropRate
EXTRN	?g_iBlueChocolateBoxDropLevelMin@@3HA:DWORD	; g_iBlueChocolateBoxDropLevelMin
EXTRN	?g_iBlueChocolateBoxDropLevelMax@@3HA:DWORD	; g_iBlueChocolateBoxDropLevelMax
EXTRN	?g_iBlueChocolateBoxDropRate@@3HA:DWORD		; g_iBlueChocolateBoxDropRate
EXTRN	?g_bCandyBoxEvent@@3HA:DWORD			; g_bCandyBoxEvent
EXTRN	?g_iLightPurpleCandyBoxDropLevelMin@@3HA:DWORD	; g_iLightPurpleCandyBoxDropLevelMin
EXTRN	?g_iLightPurpleCandyBoxDropLevelMax@@3HA:DWORD	; g_iLightPurpleCandyBoxDropLevelMax
EXTRN	?g_iLightPurpleCandyBoxDropRate@@3HA:DWORD	; g_iLightPurpleCandyBoxDropRate
EXTRN	?g_iVermilionCandyBoxDropLevelMin@@3HA:DWORD	; g_iVermilionCandyBoxDropLevelMin
EXTRN	?g_iVermilionCandyBoxDropLevelMax@@3HA:DWORD	; g_iVermilionCandyBoxDropLevelMax
EXTRN	?g_iVermilionCandyBoxDropRate@@3HA:DWORD	; g_iVermilionCandyBoxDropRate
EXTRN	?g_iDeepBlueCandyBoxDropLevelMin@@3HA:DWORD	; g_iDeepBlueCandyBoxDropLevelMin
EXTRN	?g_iDeepBlueCandyBoxDropLevelMax@@3HA:DWORD	; g_iDeepBlueCandyBoxDropLevelMax
EXTRN	?g_iDeepBlueCandyBoxDropRate@@3HA:DWORD		; g_iDeepBlueCandyBoxDropRate
EXTRN	?g_bFenrirStuffItemDrop@@3HA:DWORD		; g_bFenrirStuffItemDrop
EXTRN	?g_iFenrirStuff_01_DropLv_Min@@3HA:DWORD	; g_iFenrirStuff_01_DropLv_Min
EXTRN	?g_iFenrirStuff_01_DropLv_Max@@3HA:DWORD	; g_iFenrirStuff_01_DropLv_Max
EXTRN	?g_iFenrirStuff_01_DropMap@@3HA:DWORD		; g_iFenrirStuff_01_DropMap
EXTRN	?g_iFenrirStuff_01_DropRate@@3HA:DWORD		; g_iFenrirStuff_01_DropRate
EXTRN	?g_iFenrirStuff_02_DropLv_Min@@3HA:DWORD	; g_iFenrirStuff_02_DropLv_Min
EXTRN	?g_iFenrirStuff_02_DropLv_Max@@3HA:DWORD	; g_iFenrirStuff_02_DropLv_Max
EXTRN	?g_iFenrirStuff_02_DropMap@@3HA:DWORD		; g_iFenrirStuff_02_DropMap
EXTRN	?g_iFenrirStuff_02_DropRate@@3HA:DWORD		; g_iFenrirStuff_02_DropRate
EXTRN	?g_iFenrirStuff_03_DropLv_Min@@3HA:DWORD	; g_iFenrirStuff_03_DropLv_Min
EXTRN	?g_iFenrirStuff_03_DropLv_Max@@3HA:DWORD	; g_iFenrirStuff_03_DropLv_Max
EXTRN	?g_iFenrirStuff_03_DropMap@@3HA:DWORD		; g_iFenrirStuff_03_DropMap
EXTRN	?g_iFenrirStuff_03_DropRate@@3HA:DWORD		; g_iFenrirStuff_03_DropRate
EXTRN	?g_iCrywolfApplyMvpBenefit@@3HA:DWORD		; g_iCrywolfApplyMvpBenefit
EXTRN	?g_iCrywolfApplyMvpPenalty@@3HA:DWORD		; g_iCrywolfApplyMvpPenalty
EXTRN	?g_bKanturuSpecialItemDropOn@@3HA:DWORD		; g_bKanturuSpecialItemDropOn
EXTRN	?g_iKanturuMoonStoneDropRate@@3HA:DWORD		; g_iKanturuMoonStoneDropRate
EXTRN	?g_iKanturuJewelOfHarmonyDropRate@@3HA:DWORD	; g_iKanturuJewelOfHarmonyDropRate
EXTRN	?g_bHallowinDayEventOn@@3HA:DWORD		; g_bHallowinDayEventOn
EXTRN	?g_iHallowinDayEventItemDropRate@@3HA:DWORD	; g_iHallowinDayEventItemDropRate
EXTRN	?giKundunRefillHP@@3HA:DWORD			; giKundunRefillHP
EXTRN	?giKundunRefillHPTime@@3HA:DWORD		; giKundunRefillHPTime
EXTRN	?giKundunHPLogSaveTime@@3HA:DWORD		; giKundunHPLogSaveTime
EXTRN	?g_CompoundPotionDropOn@@3HA:DWORD		; g_CompoundPotionDropOn
EXTRN	?g_iCompoundPotionLv1DropRate@@3HA:DWORD	; g_iCompoundPotionLv1DropRate
EXTRN	?g_iCompoundPotionLv2DropRate@@3HA:DWORD	; g_iCompoundPotionLv2DropRate
EXTRN	?g_iCompoundPotionLv3DropRate@@3HA:DWORD	; g_iCompoundPotionLv3DropRate
EXTRN	?g_iCompoundPotionLv1DropLevel@@3HA:DWORD	; g_iCompoundPotionLv1DropLevel
EXTRN	?g_iCompoundPotionLv2DropLevel@@3HA:DWORD	; g_iCompoundPotionLv2DropLevel
EXTRN	?g_iCompoundPotionLv3DropLevel@@3HA:DWORD	; g_iCompoundPotionLv3DropLevel
EXTRN	?gItemDropPer@@3HA:DWORD			; gItemDropPer
EXTRN	?gFireCrackerDropRate@@3HA:DWORD		; gFireCrackerDropRate
EXTRN	?gHeartOfLoveDropRate@@3HA:DWORD		; gHeartOfLoveDropRate
EXTRN	?gGoldMedalDropRate@@3HA:DWORD			; gGoldMedalDropRate
EXTRN	?gSilverMedalDropRate@@3HA:DWORD		; gSilverMedalDropRate
EXTRN	?gBoxOfGoldDropRate@@3HA:DWORD			; gBoxOfGoldDropRate
EXTRN	?g_bBloodCastle@@3HA:DWORD			; g_bBloodCastle
EXTRN	?g_iAngelKingsPaperDropRate@@3HA:DWORD		; g_iAngelKingsPaperDropRate
EXTRN	?g_iBloodBoneDropRate@@3HA:DWORD		; g_iBloodBoneDropRate
EXTRN	?gItemDropRingOfTransform@@3HA:DWORD		; gItemDropRingOfTransform
EXTRN	?gQuestNPCTeleportTime@@3HA:DWORD		; gQuestNPCTeleportTime
EXTRN	?g_bIllusionTemple@@3HA:DWORD			; g_bIllusionTemple
EXTRN	?g_OldScrollDropRate@@3HA:DWORD			; g_OldScrollDropRate
EXTRN	?g_CovenantDropRate@@3HA:DWORD			; g_CovenantDropRate
EXTRN	?g_bMaxLevelIllusion@@3HA:DWORD			; g_bMaxLevelIllusion
EXTRN	?g_bSantaRingDrop@@3HA:DWORD			; g_bSantaRingDrop
EXTRN	?g_iSantaRingDropRate@@3HA:DWORD		; g_iSantaRingDropRate
EXTRN	?g_iStoneOfCondorDropRate@@3HA:DWORD		; g_iStoneOfCondorDropRate
EXTRN	?g_bCherryBlossomEvent@@3HA:DWORD		; g_bCherryBlossomEvent
EXTRN	?g_iCherryBlossomDropRate@@3HA:DWORD		; g_iCherryBlossomDropRate
EXTRN	?g_iML_OldScrollDropRate@@3HA:DWORD		; g_iML_OldScrollDropRate
EXTRN	?g_iML_CovenantOfIllusionDropRate@@3HA:DWORD	; g_iML_CovenantOfIllusionDropRate
EXTRN	?g_iML_AngelKingsPaperDropRate@@3HA:DWORD	; g_iML_AngelKingsPaperDropRate
EXTRN	?g_iML_BloodBoneDropRate@@3HA:DWORD		; g_iML_BloodBoneDropRate
EXTRN	?g_iML_EyesOfDevilSquareDropRate@@3HA:DWORD	; g_iML_EyesOfDevilSquareDropRate
EXTRN	?g_iML_KeyOfDevilSquareDropRate@@3HA:DWORD	; g_iML_KeyOfDevilSquareDropRate
EXTRN	?gIsDropSetItemInCastleHuntZone@@3HA:DWORD	; gIsDropSetItemInCastleHuntZone
EXTRN	?gSetItemInCastleHuntZoneDropRate@@3HA:DWORD	; gSetItemInCastleHuntZoneDropRate
EXTRN	?gSetItemInCastleHuntZoneDropLevel@@3HA:DWORD	; gSetItemInCastleHuntZoneDropLevel
EXTRN	?g_iDeathKingBoneRate@@3HA:DWORD		; g_iDeathKingBoneRate
EXTRN	?g_iHellMaineLeatherRate@@3HA:DWORD		; g_iHellMaineLeatherRate
EXTRN	?g_iFlameOfPhoenixRate@@3HA:DWORD		; g_iFlameOfPhoenixRate
EXTRN	?g_iDeathBeamKnightSoulRate@@3HA:DWORD		; g_iDeathBeamKnightSoulRate
EXTRN	?g_MonsterLuckItemRollRate@@3HA:DWORD		; g_MonsterLuckItemRollRate
EXTRN	?g_MonsterSkillItemRollRate@@3HA:DWORD		; g_MonsterSkillItemRollRate
EXTRN	?g_MonsterOptionItemRollRate@@3HA:DWORD		; g_MonsterOptionItemRollRate
EXTRN	?g_ExcDropPerc@@3HA:DWORD			; g_ExcDropPerc
EXTRN	?g_CsNPC_Mercenary@@3VCMercenary@@A:QWORD	; g_CsNPC_Mercenary
EXTRN	?g_BloodCastle@@3VCBloodCastle@@A:BYTE		; g_BloodCastle
EXTRN	?g_KalimaGate@@3VCKalimaGate@@A:BYTE		; g_KalimaGate
EXTRN	?g_CrywolfSync@@3VCCrywolfSync@@A:BYTE		; g_CrywolfSync
EXTRN	?g_MonsterItemMngEx@@3VCMonsterItemMngEx@@A:BYTE ; g_MonsterItemMngEx
EXTRN	?g_ChaosCastle@@3VCChaosCastle@@A:BYTE		; g_ChaosCastle
EXTRN	?g_QuestInfo@@3VCQuestInfo@@A:BYTE		; g_QuestInfo
EXTRN	?gQuestInfoEx@@3VCQuestInfoEx@@A:BYTE		; gQuestInfoEx
EXTRN	?g_IllusionTemple@@3VCIllusionTempleEvent@@A:BYTE ; g_IllusionTemple
EXTRN	?g_CastleSiege@@3VCCastleSiege@@A:BYTE		; g_CastleSiege
EXTRN	?g_CsNPC_LifeStone@@3VCLifeStone@@A:DWORD	; g_CsNPC_LifeStone
EXTRN	?g_Raklion@@3VCRaklion@@A:BYTE			; g_Raklion
EXTRN	?g_EventItemBagManager@@3VEventItemBagManager@@A:BYTE ; g_EventItemBagManager
EXTRN	?g_ImperialGuardian@@3VCImperialGuardian@@A:BYTE ; g_ImperialGuardian
EXTRN	?g_nMysteriousPaperDropRate@@3HA:DWORD		; g_nMysteriousPaperDropRate
EXTRN	?g_ElementalSystem@@3VCElementalSystem@@A:BYTE	; g_ElementalSystem
EXTRN	?gObjUseSkill@@3VCObjUseSkill@@A:DWORD		; gObjUseSkill
EXTRN	?gDoubleGoer@@3VCDoubleGoerEvent@@A:BYTE	; gDoubleGoer
EXTRN	?g_MapRateInfo@@3VMapRateInfo@@A:BYTE		; g_MapRateInfo
EXTRN	?g_MonsterMoneyDrop@@3VMonsterMoneyDrop@@A:BYTE	; g_MonsterMoneyDrop
EXTRN	?g_NewPVP@@3VCNewPVP@@A:BYTE			; g_NewPVP
EXTRN	?m_Instance@MonsterSpawnerMng@@0PAV1@A:DWORD	; MonsterSpawnerMng::m_Instance
EXTRN	___security_cookie:DWORD
EXTRN	__fltused:DWORD
_BSS	SEGMENT
?KUNDUN_EVENT_LOG@@3VCLogToFile@@A DB 010228H DUP (?)	; KUNDUN_EVENT_LOG
?MONSTER_UTIL@@3VTMonsterAIUtil@@A DD 01H DUP (?)	; MONSTER_UTIL
_BSS	ENDS
CRT$XCU	SEGMENT
?KUNDUN_EVENT_LOG$initializer$@@3P6AXXZA DD FLAT:??__EKUNDUN_EVENT_LOG@@YAXXZ ; KUNDUN_EVENT_LOG$initializer$
CRT$XCU	ENDS
;	COMDAT __xmm@0000000200000059000000a900000003
CONST	SEGMENT
__xmm@0000000200000059000000a900000003 DB 03H, 00H, 00H, 00H, 0a9H, 00H, 00H
	DB	00H, 'Y', 00H, 00H, 00H, 02H, 00H, 00H, 00H
CONST	ENDS
;	COMDAT __xmm@000000020000002f000000c600000002
CONST	SEGMENT
__xmm@000000020000002f000000c600000002 DB 02H, 00H, 00H, 00H, 0c6H, 00H, 00H
	DB	00H, '/', 00H, 00H, 00H, 02H, 00H, 00H, 00H
CONST	ENDS
;	COMDAT __xmm@00000002000000190000001100000007
CONST	SEGMENT
__xmm@00000002000000190000001100000007 DB 07H, 00H, 00H, 00H, 011H, 00H, 00H
	DB	00H, 019H, 00H, 00H, 00H, 02H, 00H, 00H, 00H
CONST	ENDS
;	COMDAT __xmm@00000001000000570000008900000000
CONST	SEGMENT
__xmm@00000001000000570000008900000000 DB 00H, 00H, 00H, 00H, 089H, 00H, 00H
	DB	00H, 'W', 00H, 00H, 00H, 01H, 00H, 00H, 00H
CONST	ENDS
;	COMDAT __real@42c80000
CONST	SEGMENT
__real@42c80000 DD 042c80000r			; 100
CONST	ENDS
;	COMDAT __real@41c80000
CONST	SEGMENT
__real@41c80000 DD 041c80000r			; 25
CONST	ENDS
;	COMDAT __real@40c00000
CONST	SEGMENT
__real@40c00000 DD 040c00000r			; 6
CONST	ENDS
;	COMDAT __real@40a00000
CONST	SEGMENT
__real@40a00000 DD 040a00000r			; 5
CONST	ENDS
;	COMDAT __real@3fd3333333333333
CONST	SEGMENT
__real@3fd3333333333333 DQ 03fd3333333333333r	; 0.3
CONST	ENDS
;	COMDAT __real@3f800000
CONST	SEGMENT
__real@3f800000 DD 03f800000r			; 1
CONST	ENDS
;	COMDAT __real@00000000
CONST	SEGMENT
__real@00000000 DD 000000000r			; 0
CONST	ENDS
;	COMDAT ??_C@_0O@PGINOIGE@NPC?5?$CFd?$LH?N?5?$MA?L?$LF?$LP?$AA@
CONST	SEGMENT
??_C@_0O@PGINOIGE@NPC?5?$CFd?$LH?N?5?$MA?L?$LF?$LP?$AA@ DB 'NPC %d', 0b7H
	DB	0ceH, ' ', 0c0H, 0ccH, 0b5H, 0bfH, 00H	; `string'
CONST	ENDS
;	COMDAT ??_C@_0CI@JDPIHCJH@?$FLCastle?5HuntZone?$FN?5Drop?5SetItem?5?$FL@
CONST	SEGMENT
??_C@_0CI@JDPIHCJH@?$FLCastle?5HuntZone?$FN?5Drop?5SetItem?5?$FL@ DB '[Ca'
	DB	'stle HuntZone] Drop SetItem [%s][%s]', 00H	; `string'
CONST	ENDS
;	COMDAT ??_C@_0DH@PKHNCCG@?$FLKUNDUN?$FN?$FLAttacker?5Info?$FN?5?$FL?$CFs?$FN?$FL?$CFs?$FN@
CONST	SEGMENT
??_C@_0DH@PKHNCCG@?$FLKUNDUN?$FN?$FLAttacker?5Info?$FN?5?$FL?$CFs?$FN?$FL?$CFs?$FN@ DB '['
	DB	'KUNDUN][Attacker Info] [%s][%s] HP:%d MP:%d X:%d Y:%d', 00H ; `string'
CONST	ENDS
;	COMDAT ??_C@_0DI@BCGOHKAP@?$FLKUNDUN?$FN?$FLStatus?5Log?$FN?5HP?3?$CFd?5Refil@
CONST	SEGMENT
??_C@_0DI@BCGOHKAP@?$FLKUNDUN?$FN?$FLStatus?5Log?$FN?5HP?3?$CFd?5Refil@ DB '['
	DB	'KUNDUN][Status Log] HP:%d RefillHP:%d Map:%d X:%d Y:%d', 00H ; `string'
CONST	ENDS
;	COMDAT ??_C@_0DJ@LBLCMLBJ@?$FLKUNDUN?$FN?5HP?5Log?5?9?$DO?5?$FL?$CFd?$FN?H?$LI?$LK?$LJ?5?5?$FL?$CFd@
CONST	SEGMENT
??_C@_0DJ@LBLCMLBJ@?$FLKUNDUN?$FN?5HP?5Log?5?9?$DO?5?$FL?$CFd?$FN?H?$LI?$LK?$LJ?5?5?$FL?$CFd@ DB '['
	DB	'KUNDUN] HP Log -> [%d]', 0c8H, 0b8H, 0baH, 0b9H, '  [%d]', 0c8H
	DB	0b8H, 0baH, 0b9H, 0bdH, 0c3H, 0b0H, 0a3H, '  [%7.0f]', 0c7H, 0f6H
	DB	0c0H, 0e7H, 'HP', 00H			; `string'
CONST	ENDS
;	COMDAT ??_C@_0DD@MDNPGPML@?G?O?F?$KO?5?$LO?F?$MA?L?E?$NL?$MA?$LL?5?$LL?s?A?$KB?$LP?$KB?5?A?V?$LM?$LM?$LP?d?4?5?G?$KK?A@
CONST	SEGMENT
??_C@_0DD@MDNPGPML@?G?O?F?$KO?5?$LO?F?$MA?L?E?$NL?$MA?$LL?5?$LL?s?A?$KB?$LP?$KB?5?A?V?$LM?$LM?$LP?d?4?5?G?$KK?A@ DB 0c7H
	DB	0cfH, 0c6H, 0aeH, ' ', 0beH, 0c6H, 0c0H, 0ccH, 0c5H, 0dbH, 0c0H
	DB	0bbH, ' ', 0bbH, 0f3H, 0c1H, 0a1H, 0bfH, 0a1H, ' ', 0c1H, 0d6H
	DB	0bcH, 0bcH, 0bfH, 0e4H, '. ', 0c7H, 0aaH, 0c1H, 0fcH, 0c7H, 0d1H
	DB	' ', 0b0H, 0e6H, 0c7H, 0b0H, ' ', 0c0H, 0ccH, 0baH, 0a5H, 0c6H
	DB	0aeH, ' ', 0c1H, 0dfH, 00H			; `string'
CONST	ENDS
;	COMDAT ??_C@_0P@EEHIDPGB@error?9L3?5?$CFs?5?$CFd?$AA@
CONST	SEGMENT
??_C@_0P@EEHIDPGB@error?9L3?5?$CFs?5?$CFd?$AA@ DB 'error-L3 %s %d', 00H ; `string'
CONST	ENDS
;	COMDAT ??_C@_0DN@OMDKGOEJ@?$FLBlood?5Castle?$FN?5?$CI?$CFd?$CJ?5All?5of?5the?5B@
CONST	SEGMENT
??_C@_0DN@OMDKGOEJ@?$FLBlood?5Castle?$FN?5?$CI?$CFd?$CJ?5All?5of?5the?5B@ DB '['
	DB	'Blood Castle] (%d) All of the Boss Monster Terminated -> %d', 00H ; `string'
CONST	ENDS
;	COMDAT ??_C@_0DI@FKJGCAAF@?$FLBlood?5Castle?$FN?5?$CI?$CFd?$CJ?5All?5of?5the?5M@
CONST	SEGMENT
??_C@_0DI@FKJGCAAF@?$FLBlood?5Castle?$FN?5?$CI?$CFd?$CJ?5All?5of?5the?5M@ DB '['
	DB	'Blood Castle] (%d) All of the Monster Terminated -> %d', 00H ; `string'
CONST	ENDS
;	COMDAT ??_C@_0EJ@LOBMAKBH@?$FL?5KANTURU?5?$FN?$FL?5Debug?5?9?5m_PosNum?5?$FN?5@
CONST	SEGMENT
??_C@_0EJ@LOBMAKBH@?$FL?5KANTURU?5?$FN?$FL?5Debug?5?9?5m_PosNum?5?$FN?5@ DB '['
	DB	' KANTURU ][ Debug - m_PosNum ] Fail %s(Index:%d) X%d-Y%d -> X'
	DB	'%d-Y%d(%d)', 00H				; `string'
CONST	ENDS
;	COMDAT ??_C@_0CA@MINPGEPL@error?9L2?5?3?5Hit?5Damage?5Set?5error?$AA@
CONST	SEGMENT
??_C@_0CA@MINPGEPL@error?9L2?5?3?5Hit?5Damage?5Set?5error?$AA@ DB 'error-'
	DB	'L2 : Hit Damage Set error', 00H		; `string'
CONST	ENDS
;	COMDAT ??_C@_0N@DOCIPDEL@ERROR?3?5?$CFs?5?$CFd?$AA@
CONST	SEGMENT
??_C@_0N@DOCIPDEL@ERROR?3?5?$CFs?5?$CFd?$AA@ DB 'ERROR: %s %d', 00H ; `string'
CONST	ENDS
;	COMDAT ??_C@_0BA@OAKCBJLL@gObjMonster?4cpp?$AA@
CONST	SEGMENT
??_C@_0BA@OAKCBJLL@gObjMonster?4cpp?$AA@ DB 'gObjMonster.cpp', 00H ; `string'
CONST	ENDS
;	COMDAT ??_C@_06EEHCNIJK@Kundun?$AA@
CONST	SEGMENT
??_C@_06EEHCNIJK@Kundun?$AA@ DB 'Kundun', 00H		; `string'
CONST	ENDS
;	COMDAT ??_C@_0M@BCGMCOPG@?4?2Log?2Event?$AA@
CONST	SEGMENT
??_C@_0M@BCGMCOPG@?4?2Log?2Event?$AA@ DB '.\Log\Event', 00H ; `string'
CONST	ENDS
_DATA	SEGMENT
?gQeustNpcTeleport@@3VCQeustNpcTeleport@@A DD 00H	; gQeustNpcTeleport
	DB	28 DUP(00H)
	DD	0ffffffffH
_DATA	ENDS
;	COMDAT xdata$x
xdata$x	SEGMENT
__unwindtable$?getInstance@MonsterSpawnerMng@@SAPAV1@XZ DD 0ffffffffH
	DD	FLAT:__unwindfunclet$?getInstance@MonsterSpawnerMng@@SAPAV1@XZ$0
__ehfuncinfo$?getInstance@MonsterSpawnerMng@@SAPAV1@XZ DD 019930522H
	DD	01H
	DD	FLAT:__unwindtable$?getInstance@MonsterSpawnerMng@@SAPAV1@XZ
	DD	2 DUP(00H)
	DD	2 DUP(00H)
	DD	00H
	DD	01H
xdata$x	ENDS
;	COMDAT xdata$x
xdata$x	SEGMENT
__sehtable$?gObjMonsterMoveAction@@YAXPAUOBJECTSTRUCT@@@Z DD 0fffffffeH
	DD	00H
	DD	0ffffffc4H
	DD	00H
	DD	0fffffffeH
	DD	FLAT:$LN26@gObjMonste
	DD	FLAT:$LN18@gObjMonste
xdata$x	ENDS
;	COMDAT xdata$x
xdata$x	SEGMENT
__unwindtable$?gObjMonsterStateProc@@YAXPAUOBJECTSTRUCT@@HHH@Z DD 0ffffffffH
	DD	FLAT:__unwindfunclet$?gObjMonsterStateProc@@YAXPAUOBJECTSTRUCT@@HHH@Z$0
__ehfuncinfo$?gObjMonsterStateProc@@YAXPAUOBJECTSTRUCT@@HHH@Z DD 019930522H
	DD	01H
	DD	FLAT:__unwindtable$?gObjMonsterStateProc@@YAXPAUOBJECTSTRUCT@@HHH@Z
	DD	2 DUP(00H)
	DD	2 DUP(00H)
	DD	00H
	DD	01H
xdata$x	ENDS
;	COMDAT xdata$x
xdata$x	SEGMENT
__ehfuncinfo$??_EOBJECTSTRUCT@@QAEPAXI@Z DD 019930522H
	DD	00H
	DD	00H
	DD	2 DUP(00H)
	DD	2 DUP(00H)
	DD	00H
	DD	05H
xdata$x	ENDS
CRT$XCU	SEGMENT
?gQeustNpcTeleport$initializer$@@3P6AXXZA DD FLAT:??__EgQeustNpcTeleport@@YAXXZ ; gQeustNpcTeleport$initializer$
CRT$XCU	ENDS
CRT$XCU	SEGMENT
?MONSTER_UTIL$initializer$@@3P6AXXZA DD FLAT:??__EMONSTER_UTIL@@YAXXZ ; MONSTER_UTIL$initializer$
CRT$XCU	ENDS
; Function compile flags: /Ogtp
;	COMDAT ??__FMONSTER_UTIL@@YAXXZ
text$yd	SEGMENT
??__FMONSTER_UTIL@@YAXXZ PROC				; `dynamic atexit destructor for 'MONSTER_UTIL'', COMDAT
  00000	b9 00 00 00 00	 mov	 ecx, OFFSET ?MONSTER_UTIL@@3VTMonsterAIUtil@@A
  00005	e9 00 00 00 00	 jmp	 ??1TMonsterAIUtil@@UAE@XZ ; TMonsterAIUtil::~TMonsterAIUtil
??__FMONSTER_UTIL@@YAXXZ ENDP				; `dynamic atexit destructor for 'MONSTER_UTIL''
text$yd	ENDS
; Function compile flags: /Ogtp
; File c:\users\michel\desktop\source\gameserver\source\gobjmonster.cpp
;	COMDAT ??__EMONSTER_UTIL@@YAXXZ
text$di	SEGMENT
??__EMONSTER_UTIL@@YAXXZ PROC				; `dynamic initializer for 'MONSTER_UTIL'', COMDAT

; 70   : static TMonsterAIUtil MONSTER_UTIL;

  00000	b9 00 00 00 00	 mov	 ecx, OFFSET ?MONSTER_UTIL@@3VTMonsterAIUtil@@A
  00005	e8 00 00 00 00	 call	 ??0TMonsterAIUtil@@QAE@XZ ; TMonsterAIUtil::TMonsterAIUtil
  0000a	68 00 00 00 00	 push	 OFFSET ??__FMONSTER_UTIL@@YAXXZ ; `dynamic atexit destructor for 'MONSTER_UTIL''
  0000f	e8 00 00 00 00	 call	 _atexit
  00014	59		 pop	 ecx
  00015	c3		 ret	 0
??__EMONSTER_UTIL@@YAXXZ ENDP				; `dynamic initializer for 'MONSTER_UTIL''
text$di	ENDS
; Function compile flags: /Ogtp
; File c:\users\michel\desktop\source\gameserver\source\gobjmonster.h
;	COMDAT ??__FgQeustNpcTeleport@@YAXXZ
text$yd	SEGMENT
??__FgQeustNpcTeleport@@YAXXZ PROC			; `dynamic atexit destructor for 'gQeustNpcTeleport'', COMDAT

; 61   : 		DeleteCriticalSection(&this->CsRef);

  00000	68 04 00 00 00	 push	 OFFSET ?gQeustNpcTeleport@@3VCQeustNpcTeleport@@A+4
  00005	ff 15 00 00 00
	00		 call	 DWORD PTR __imp__DeleteCriticalSection@4
  0000b	c3		 ret	 0
??__FgQeustNpcTeleport@@YAXXZ ENDP			; `dynamic atexit destructor for 'gQeustNpcTeleport''
text$yd	ENDS
; Function compile flags: /Ogtp
; File c:\users\michel\desktop\source\gameserver\source\gobjmonster.cpp
; File c:\users\michel\desktop\source\gameserver\source\gobjmonster.h
; File c:\users\michel\desktop\source\gameserver\source\gobjmonster.cpp
; File c:\users\michel\desktop\source\gameserver\source\gobjmonster.h
; File c:\users\michel\desktop\source\gameserver\source\gobjmonster.cpp
;	COMDAT ??__EgQeustNpcTeleport@@YAXXZ
text$di	SEGMENT
??__EgQeustNpcTeleport@@YAXXZ PROC			; `dynamic initializer for 'gQeustNpcTeleport'', COMDAT
; File c:\users\michel\desktop\source\gameserver\source\gobjmonster.h

; 39   : 		InitializeCriticalSection(&this->CsRef);

  00000	68 04 00 00 00	 push	 OFFSET ?gQeustNpcTeleport@@3VCQeustNpcTeleport@@A+4
  00005	ff 15 00 00 00
	00		 call	 DWORD PTR __imp__InitializeCriticalSection@4
  0000b	0f 28 05 00 00
	00 00		 movaps	 xmm0, XMMWORD PTR __xmm@000000020000002f000000c600000002
  00012	0f 11 05 24 00
	00 00		 movups	 XMMWORD PTR ?gQeustNpcTeleport@@3VCQeustNpcTeleport@@A+36, xmm0
; File c:\users\michel\desktop\source\gameserver\source\gobjmonster.cpp

; 69   : CQeustNpcTeleport gQeustNpcTeleport;

  00019	68 00 00 00 00	 push	 OFFSET ??__FgQeustNpcTeleport@@YAXXZ ; `dynamic atexit destructor for 'gQeustNpcTeleport''
  0001e	0f 28 05 00 00
	00 00		 movaps	 xmm0, XMMWORD PTR __xmm@00000001000000570000008900000000
  00025	0f 11 05 34 00
	00 00		 movups	 XMMWORD PTR ?gQeustNpcTeleport@@3VCQeustNpcTeleport@@A+52, xmm0
; File c:\users\michel\desktop\source\gameserver\source\gobjmonster.h

; 40   : 		this->TimeCount = 0;

  0002c	c7 05 1c 00 00
	00 00 00 00 00	 mov	 DWORD PTR ?gQeustNpcTeleport@@3VCQeustNpcTeleport@@A+28, 0
  00036	0f 28 05 00 00
	00 00		 movaps	 xmm0, XMMWORD PTR __xmm@0000000200000059000000a900000003
  0003d	0f 11 05 44 00
	00 00		 movups	 XMMWORD PTR ?gQeustNpcTeleport@@3VCQeustNpcTeleport@@A+68, xmm0
  00044	0f 28 05 00 00
	00 00		 movaps	 xmm0, XMMWORD PTR __xmm@00000002000000190000001100000007
  0004b	0f 11 05 54 00
	00 00		 movups	 XMMWORD PTR ?gQeustNpcTeleport@@3VCQeustNpcTeleport@@A+84, xmm0
; File c:\users\michel\desktop\source\gameserver\source\gobjmonster.cpp

; 69   : CQeustNpcTeleport gQeustNpcTeleport;

  00052	e8 00 00 00 00	 call	 _atexit
  00057	59		 pop	 ecx
  00058	c3		 ret	 0
??__EgQeustNpcTeleport@@YAXXZ ENDP			; `dynamic initializer for 'gQeustNpcTeleport''
text$di	ENDS
; Function compile flags: /Ogtp
;	COMDAT ??__FKUNDUN_EVENT_LOG@@YAXXZ
text$yd	SEGMENT
??__FKUNDUN_EVENT_LOG@@YAXXZ PROC			; `dynamic atexit destructor for 'KUNDUN_EVENT_LOG'', COMDAT
  00000	b9 00 00 00 00	 mov	 ecx, OFFSET ?KUNDUN_EVENT_LOG@@3VCLogToFile@@A ; KUNDUN_EVENT_LOG
  00005	e9 00 00 00 00	 jmp	 ??1CLogToFile@@QAE@XZ	; CLogToFile::~CLogToFile
??__FKUNDUN_EVENT_LOG@@YAXXZ ENDP			; `dynamic atexit destructor for 'KUNDUN_EVENT_LOG''
text$yd	ENDS
; Function compile flags: /Ogtp
; File c:\users\michel\desktop\source\gameserver\source\gobjmonster.cpp
;	COMDAT ??__EKUNDUN_EVENT_LOG@@YAXXZ
text$di	SEGMENT
??__EKUNDUN_EVENT_LOG@@YAXXZ PROC			; `dynamic initializer for 'KUNDUN_EVENT_LOG'', COMDAT

; 68   : CLogToFile KUNDUN_EVENT_LOG(LOG_NAME_KUNDUN, LOG_PATH_KUNDUN, 1);

  00000	6a 01		 push	 1
  00002	68 00 00 00 00	 push	 OFFSET ??_C@_0M@BCGMCOPG@?4?2Log?2Event?$AA@
  00007	68 00 00 00 00	 push	 OFFSET ??_C@_06EEHCNIJK@Kundun?$AA@
  0000c	b9 00 00 00 00	 mov	 ecx, OFFSET ?KUNDUN_EVENT_LOG@@3VCLogToFile@@A ; KUNDUN_EVENT_LOG
  00011	e8 00 00 00 00	 call	 ??0CLogToFile@@QAE@QAD0H@Z ; CLogToFile::CLogToFile
  00016	68 00 00 00 00	 push	 OFFSET ??__FKUNDUN_EVENT_LOG@@YAXXZ ; `dynamic atexit destructor for 'KUNDUN_EVENT_LOG''
  0001b	e8 00 00 00 00	 call	 _atexit
  00020	59		 pop	 ecx
  00021	c3		 ret	 0
??__EKUNDUN_EVENT_LOG@@YAXXZ ENDP			; `dynamic initializer for 'KUNDUN_EVENT_LOG''
text$di	ENDS
; Function compile flags: /Ogtp
; File c:\users\michel\desktop\source\gameserver\source\monsterspawner.h
;	COMDAT ?getInstance@MonsterSpawnerMng@@SAPAV1@XZ
_TEXT	SEGMENT
$T2 = -16						; size = 4
__$EHRec$ = -12						; size = 12
?getInstance@MonsterSpawnerMng@@SAPAV1@XZ PROC		; MonsterSpawnerMng::getInstance, COMDAT

; 137  : 	static MonsterSpawnerMng* getInstance() {

  00000	55		 push	 ebp
  00001	8b ec		 mov	 ebp, esp
  00003	6a ff		 push	 -1
  00005	68 00 00 00 00	 push	 __ehhandler$?getInstance@MonsterSpawnerMng@@SAPAV1@XZ
  0000a	64 a1 00 00 00
	00		 mov	 eax, DWORD PTR fs:0
  00010	50		 push	 eax
  00011	51		 push	 ecx
  00012	a1 00 00 00 00	 mov	 eax, DWORD PTR ___security_cookie
  00017	33 c5		 xor	 eax, ebp
  00019	50		 push	 eax
  0001a	8d 45 f4	 lea	 eax, DWORD PTR __$EHRec$[ebp]
  0001d	64 a3 00 00 00
	00		 mov	 DWORD PTR fs:0, eax

; 138  : 		if (m_Instance == NULL) {

  00023	a1 00 00 00 00	 mov	 eax, DWORD PTR ?m_Instance@MonsterSpawnerMng@@0PAV1@A ; MonsterSpawnerMng::m_Instance
  00028	85 c0		 test	 eax, eax
  0002a	75 3a		 jne	 SHORT $LN2@getInstanc

; 139  : 			m_Instance = new MonsterSpawnerMng();

  0002c	6a 1c		 push	 28			; 0000001cH
  0002e	e8 00 00 00 00	 call	 ??2@YAPAXI@Z		; operator new
  00033	83 c4 04	 add	 esp, 4
  00036	89 45 f0	 mov	 DWORD PTR $T2[ebp], eax
  00039	c7 45 fc 00 00
	00 00		 mov	 DWORD PTR __$EHRec$[ebp+8], 0
  00040	85 c0		 test	 eax, eax
  00042	74 1b		 je	 SHORT $LN4@getInstanc
  00044	8b c8		 mov	 ecx, eax
  00046	e8 00 00 00 00	 call	 ??0MonsterSpawnerMng@@QAE@XZ ; MonsterSpawnerMng::MonsterSpawnerMng
  0004b	a3 00 00 00 00	 mov	 DWORD PTR ?m_Instance@MonsterSpawnerMng@@0PAV1@A, eax ; MonsterSpawnerMng::m_Instance

; 140  : 		}
; 141  : 		return m_Instance;
; 142  : 	}

  00050	8b 4d f4	 mov	 ecx, DWORD PTR __$EHRec$[ebp]
  00053	64 89 0d 00 00
	00 00		 mov	 DWORD PTR fs:0, ecx
  0005a	59		 pop	 ecx
  0005b	8b e5		 mov	 esp, ebp
  0005d	5d		 pop	 ebp
  0005e	c3		 ret	 0
$LN4@getInstanc:

; 139  : 			m_Instance = new MonsterSpawnerMng();

  0005f	33 c0		 xor	 eax, eax
  00061	a3 00 00 00 00	 mov	 DWORD PTR ?m_Instance@MonsterSpawnerMng@@0PAV1@A, eax ; MonsterSpawnerMng::m_Instance
$LN2@getInstanc:

; 140  : 		}
; 141  : 		return m_Instance;
; 142  : 	}

  00066	8b 4d f4	 mov	 ecx, DWORD PTR __$EHRec$[ebp]
  00069	64 89 0d 00 00
	00 00		 mov	 DWORD PTR fs:0, ecx
  00070	59		 pop	 ecx
  00071	8b e5		 mov	 esp, ebp
  00073	5d		 pop	 ebp
  00074	c3		 ret	 0
_TEXT	ENDS
;	COMDAT text$x
text$x	SEGMENT
__unwindfunclet$?getInstance@MonsterSpawnerMng@@SAPAV1@XZ$0:
  00000	6a 1c		 push	 28			; 0000001cH
  00002	8b 45 f0	 mov	 eax, DWORD PTR $T2[ebp]
  00005	50		 push	 eax
  00006	e8 00 00 00 00	 call	 ??3@YAXPAXI@Z		; operator delete
  0000b	83 c4 08	 add	 esp, 8
  0000e	c3		 ret	 0
__ehhandler$?getInstance@MonsterSpawnerMng@@SAPAV1@XZ:
  0000f	8b 54 24 08	 mov	 edx, DWORD PTR [esp+8]
  00013	8d 42 0c	 lea	 eax, DWORD PTR [edx+12]
  00016	8b 4a f8	 mov	 ecx, DWORD PTR [edx-8]
  00019	33 c8		 xor	 ecx, eax
  0001b	e8 00 00 00 00	 call	 @__security_check_cookie@4
  00020	b8 00 00 00 00	 mov	 eax, OFFSET __ehfuncinfo$?getInstance@MonsterSpawnerMng@@SAPAV1@XZ
  00025	e9 00 00 00 00	 jmp	 ___CxxFrameHandler3
text$x	ENDS
?getInstance@MonsterSpawnerMng@@SAPAV1@XZ ENDP		; MonsterSpawnerMng::getInstance
; Function compile flags: /Ogtp
; File c:\users\michel\desktop\source\gameserver\source\snakebegins.h
;	COMDAT ?IsSnake@SnakeBegins@@QAE_NH@Z
_TEXT	SEGMENT
_MonsterType$ = 8					; size = 4
?IsSnake@SnakeBegins@@QAE_NH@Z PROC			; SnakeBegins::IsSnake, COMDAT
; _this$ = ecx

; 17   : 	bool	IsSnake(int MonsterType) { return MonsterType >= 647 && MonsterType <= 650; };

  00000	55		 push	 ebp
  00001	8b ec		 mov	 ebp, esp
  00003	8b 45 08	 mov	 eax, DWORD PTR _MonsterType$[ebp]
  00006	b9 03 00 00 00	 mov	 ecx, 3
  0000b	05 79 fd ff ff	 add	 eax, -647		; fffffd79H
  00010	3b c8		 cmp	 ecx, eax
  00012	1b c0		 sbb	 eax, eax
  00014	40		 inc	 eax
  00015	5d		 pop	 ebp
  00016	c2 04 00	 ret	 4
?IsSnake@SnakeBegins@@QAE_NH@Z ENDP			; SnakeBegins::IsSnake
_TEXT	ENDS
; Function compile flags: /Ogtp
; File c:\users\michel\desktop\source\gameserver\source\imperialguardian.h
;	COMDAT ?IsEnableEvent@CImperialGuardian@@QAE_NXZ
_TEXT	SEGMENT
?IsEnableEvent@CImperialGuardian@@QAE_NXZ PROC		; CImperialGuardian::IsEnableEvent, COMDAT
; _this$ = ecx

; 81   : 	bool IsEnableEvent() { return this->m_bEnabled; }

  00000	8a 41 11	 mov	 al, BYTE PTR [ecx+17]
  00003	c3		 ret	 0
?IsEnableEvent@CImperialGuardian@@QAE_NXZ ENDP		; CImperialGuardian::IsEnableEvent
_TEXT	ENDS
; Function compile flags: /Ogtp
; File c:\users\michel\desktop\source\gameserver\source\gobjmonster.cpp
;	COMDAT ?gObjMonsterSelectSkillForMedusa@@YAHPAUOBJECTSTRUCT@@@Z
_TEXT	SEGMENT
_nTargetCnt$1$ = -8					; size = 4
_nSplashTargetCnt$1$ = -4				; size = 4
_lpObj$ = 8						; size = 4
?gObjMonsterSelectSkillForMedusa@@YAHPAUOBJECTSTRUCT@@@Z PROC ; gObjMonsterSelectSkillForMedusa, COMDAT

; 5134 : {

  00000	55		 push	 ebp
  00001	8b ec		 mov	 ebp, esp
  00003	83 ec 08	 sub	 esp, 8
  00006	53		 push	 ebx

; 5135 : 	int nSkillNumber; 
; 5136 : 	int nSplashTargetCnt;
; 5137 : 	int nObjNum;
; 5138 : 	int nTargetCnt;
; 5139 : 	
; 5140 : 	nTargetCnt = 0;

  00007	8b 5d 08	 mov	 ebx, DWORD PTR _lpObj$[ebp]
  0000a	33 d2		 xor	 edx, edx
  0000c	56		 push	 esi

; 5141 : 	nSplashTargetCnt = 0;

  0000d	33 c9		 xor	 ecx, ecx
  0000f	89 55 f8	 mov	 DWORD PTR _nTargetCnt$1$[ebp], edx
  00012	57		 push	 edi

; 5142 : 	
; 5143 : 	for (int i = 0; i < MAX_VIEWPORT; i++)

  00013	33 ff		 xor	 edi, edi
  00015	89 4d fc	 mov	 DWORD PTR _nSplashTargetCnt$1$[ebp], ecx
  00018	81 c3 4a 0c 00
	00		 add	 ebx, 3146		; 00000c4aH
  0001e	66 90		 npad	 2
$LL4@gObjMonste:

; 5144 : 	{
; 5145 : 		nObjNum = lpObj->VpPlayer2[i].number;

  00020	0f bf 33	 movsx	 esi, WORD PTR [ebx]

; 5146 : 		
; 5147 : 		if (nObjNum < 0)

  00023	85 f6		 test	 esi, esi
  00025	78 5c		 js	 SHORT $LN18@gObjMonste

; 5148 : 		{
; 5149 : 			break;
; 5150 : 		}
; 5151 : 		
; 5152 : 		if (gObj[nObjNum].Type == 1 && gObj[nObjNum].Live)

  00027	8b 0d 00 00 00
	00		 mov	 ecx, DWORD PTR ?gObj@@3PAUOBJECTSTRUCT@@A ; gObj
  0002d	69 c6 40 27 00
	00		 imul	 eax, esi, 10048
  00033	03 c1		 add	 eax, ecx
  00035	80 78 50 01	 cmp	 BYTE PTR [eax+80], 1
  00039	75 0a		 jne	 SHORT $LN6@gObjMonste
  0003b	80 78 51 00	 cmp	 BYTE PTR [eax+81], 0
  0003f	74 04		 je	 SHORT $LN6@gObjMonste

; 5153 : 		{
; 5154 : 			nTargetCnt++;

  00041	42		 inc	 edx
  00042	89 55 f8	 mov	 DWORD PTR _nTargetCnt$1$[ebp], edx
$LN6@gObjMonste:

; 5155 : 		}
; 5156 : 		
; 5157 : 		int iSkillDistance = gObjCalDistance(&gObj[lpObj->TargetNumber], &gObj[nObjNum]);

  00045	50		 push	 eax
  00046	8b 45 08	 mov	 eax, DWORD PTR _lpObj$[ebp]
  00049	0f bf 80 38 06
	00 00		 movsx	 eax, WORD PTR [eax+1592]
  00050	69 c0 40 27 00
	00		 imul	 eax, eax, 10048
  00056	03 c1		 add	 eax, ecx
  00058	50		 push	 eax
  00059	e8 00 00 00 00	 call	 ?gObjCalDistance@@YAHPAUOBJECTSTRUCT@@0@Z ; gObjCalDistance
  0005e	83 c4 08	 add	 esp, 8

; 5158 : 		
; 5159 : 		if (iSkillDistance <= 3)

  00061	83 f8 03	 cmp	 eax, 3
  00064	7f 11		 jg	 SHORT $LN2@gObjMonste

; 5160 : 		{
; 5161 : 			if (lpObj->TargetNumber != nObjNum)

  00066	8b 45 08	 mov	 eax, DWORD PTR _lpObj$[ebp]
  00069	0f bf 80 38 06
	00 00		 movsx	 eax, WORD PTR [eax+1592]
  00070	3b c6		 cmp	 eax, esi
  00072	74 03		 je	 SHORT $LN2@gObjMonste

; 5162 : 			{
; 5163 : 				nSplashTargetCnt++;

  00074	ff 45 fc	 inc	 DWORD PTR _nSplashTargetCnt$1$[ebp]
$LN2@gObjMonste:

; 5142 : 	
; 5143 : 	for (int i = 0; i < MAX_VIEWPORT; i++)

  00077	8b 55 f8	 mov	 edx, DWORD PTR _nTargetCnt$1$[ebp]
  0007a	47		 inc	 edi
  0007b	83 c3 0c	 add	 ebx, 12			; 0000000cH
  0007e	83 ff 4b	 cmp	 edi, 75			; 0000004bH
  00081	7c 9d		 jl	 SHORT $LL4@gObjMonste
$LN18@gObjMonste:

; 5164 : 			}
; 5165 : 		}
; 5166 : 	}
; 5167 : 	
; 5168 : 	if (nTargetCnt >= 2)

  00083	bf 0a 00 00 00	 mov	 edi, 10			; 0000000aH
  00088	83 fa 02	 cmp	 edx, 2
  0008b	7c 1a		 jl	 SHORT $LN9@gObjMonste

; 5169 : 	{
; 5170 : 		nSkillNumber = rand() % 20 + 1;

  0008d	e8 00 00 00 00	 call	 _rand
  00092	99		 cdq
  00093	b9 14 00 00 00	 mov	 ecx, 20			; 00000014H
  00098	f7 f9		 idiv	 ecx
  0009a	8d 72 01	 lea	 esi, DWORD PTR [edx+1]

; 5171 : 		
; 5172 : 		if (nSkillNumber > 4)

  0009d	83 fe 04	 cmp	 esi, 4
  000a0	7e 1b		 jle	 SHORT $LN12@gObjMonste

; 5173 : 		{
; 5174 : 			nSkillNumber = 4;

  000a2	8d 77 fa	 lea	 esi, DWORD PTR [edi-6]

; 5175 : 		}
; 5176 : 	}
; 5177 : 	else

  000a5	eb 16		 jmp	 SHORT $LN12@gObjMonste
$LN9@gObjMonste:

; 5178 : 	{
; 5179 : 		nSkillNumber = rand() % 10 + 1;

  000a7	e8 00 00 00 00	 call	 _rand
  000ac	99		 cdq
  000ad	f7 ff		 idiv	 edi

; 5180 : 		
; 5181 : 		if (nSkillNumber > 4)

  000af	b8 01 00 00 00	 mov	 eax, 1
  000b4	8d 72 01	 lea	 esi, DWORD PTR [edx+1]
  000b7	83 fe 04	 cmp	 esi, 4
  000ba	0f 4f f0	 cmovg	 esi, eax
$LN12@gObjMonste:

; 5182 : 		{
; 5183 : 			nSkillNumber = 1;
; 5184 : 		}
; 5185 : 	}
; 5186 : 	
; 5187 : 	if (nSplashTargetCnt > 0)

  000bd	8b 4d fc	 mov	 ecx, DWORD PTR _nSplashTargetCnt$1$[ebp]
  000c0	85 c9		 test	 ecx, ecx
  000c2	7e 1f		 jle	 SHORT $LN23@gObjMonste

; 5188 : 	{
; 5189 : 		if (nSplashTargetCnt >= nTargetCnt / 2)

  000c4	8b 45 f8	 mov	 eax, DWORD PTR _nTargetCnt$1$[ebp]
  000c7	99		 cdq
  000c8	2b c2		 sub	 eax, edx
  000ca	d1 f8		 sar	 eax, 1
  000cc	3b c8		 cmp	 ecx, eax
  000ce	7c 13		 jl	 SHORT $LN23@gObjMonste

; 5190 : 		{
; 5191 : 			if (rand() % 10 < 7)

  000d0	e8 00 00 00 00	 call	 _rand
  000d5	99		 cdq
  000d6	f7 ff		 idiv	 edi
  000d8	b8 03 00 00 00	 mov	 eax, 3
  000dd	83 fa 07	 cmp	 edx, 7
  000e0	0f 4c f0	 cmovl	 esi, eax
$LN23@gObjMonste:

; 5192 : 				nSkillNumber = 3;
; 5193 : 		}
; 5194 : 	}
; 5195 : 	return nSkillNumber;

  000e3	5f		 pop	 edi
  000e4	8b c6		 mov	 eax, esi
  000e6	5e		 pop	 esi
  000e7	5b		 pop	 ebx

; 5196 : }

  000e8	8b e5		 mov	 esp, ebp
  000ea	5d		 pop	 ebp
  000eb	c3		 ret	 0
?gObjMonsterSelectSkillForMedusa@@YAHPAUOBJECTSTRUCT@@@Z ENDP ; gObjMonsterSelectSkillForMedusa
_TEXT	ENDS
; Function compile flags: /Ogtp
; File c:\users\michel\desktop\source\gameserver\source\gobjmonster.cpp
;	COMDAT ?gEventMonsterItemDrop@@YAHPAUOBJECTSTRUCT@@0@Z
_TEXT	SEGMENT
_y$19$ = -16						; size = 4
_x$17$ = -16						; size = 4
_type$39$ = -16						; size = 4
_type$ = -16						; size = 4
_y$18$ = -12						; size = 4
_y$16$ = -12						; size = 4
_y$15$ = -12						; size = 4
_y$14$ = -12						; size = 4
_y$13$ = -12						; size = 4
_y$12$ = -12						; size = 4
_y$11$ = -12						; size = 4
_y$10$ = -12						; size = 4
_y$9$ = -12						; size = 4
_y$8$ = -12						; size = 4
_y$7$ = -12						; size = 4
_y$6$ = -12						; size = 4
_y$5$ = -12						; size = 4
_y$4$ = -12						; size = 4
_y$3$ = -12						; size = 4
_y$2$ = -12						; size = 4
_x$19$ = -12						; size = 4
_x$1$ = -12						; size = 4
_type$38$ = -12						; size = 4
_y$17$ = -8						; size = 4
_y$1$ = -8						; size = 4
_x$18$ = -8						; size = 4
_x$16$ = -8						; size = 4
_x$15$ = -8						; size = 4
_x$7$ = -8						; size = 4
_dur$ = -4						; size = 1
_lpObj$ = 8						; size = 4
_lpTargetObj$ = 12					; size = 4
?gEventMonsterItemDrop@@YAHPAUOBJECTSTRUCT@@0@Z PROC	; gEventMonsterItemDrop, COMDAT

; 3743 : {

  00000	55		 push	 ebp
  00001	8b ec		 mov	 ebp, esp
  00003	83 ec 10	 sub	 esp, 16			; 00000010H

; 3744 : 	int type;
; 3745 : 	int level;
; 3746 : 	int x;
; 3747 : 	int y;
; 3748 : 	BYTE dur=0;
; 3749 : 	int Option1=0;
; 3750 : 	int Option2=0;
; 3751 : 	int Option3=0;
; 3752 : 
; 3753 : 	if ( g_bFenrirStuffItemDrop )

  00006	83 3d 00 00 00
	00 00		 cmp	 DWORD PTR ?g_bFenrirStuffItemDrop@@3HA, 0 ; g_bFenrirStuffItemDrop
  0000d	53		 push	 ebx
  0000e	56		 push	 esi
  0000f	8b 75 08	 mov	 esi, DWORD PTR _lpObj$[ebp]
  00012	bb 10 27 00 00	 mov	 ebx, 10000		; 00002710H
  00017	57		 push	 edi
  00018	c6 45 fc 00	 mov	 BYTE PTR _dur$[ebp], 0
  0001c	0f 84 55 01 00
	00		 je	 $LN14@gEventMons

; 3754 : 	{
; 3755 : 		Option1=0;
; 3756 : 		Option2=0;
; 3757 : 		Option3=0;
; 3758 : 		BOOL bDropStuff=FALSE;
; 3759 : 
; 3760 : 		if ( lpObj->Level >= g_iFenrirStuff_01_DropLv_Min && lpObj->Level <= g_iFenrirStuff_01_DropLv_Max &&
; 3761 : 			lpObj->MapNumber == g_iFenrirStuff_01_DropMap &&

  00022	0f bf 86 96 00
	00 00		 movsx	 eax, WORD PTR [esi+150]
  00029	33 ff		 xor	 edi, edi
  0002b	3b 05 00 00 00
	00		 cmp	 eax, DWORD PTR ?g_iFenrirStuff_01_DropLv_Min@@3HA ; g_iFenrirStuff_01_DropLv_Min
  00031	7c 3c		 jl	 SHORT $LN321@gEventMons
  00033	3b 05 00 00 00
	00		 cmp	 eax, DWORD PTR ?g_iFenrirStuff_01_DropLv_Max@@3HA ; g_iFenrirStuff_01_DropLv_Max
  00039	7f 34		 jg	 SHORT $LN321@gEventMons
  0003b	0f b6 86 23 01
	00 00		 movzx	 eax, BYTE PTR [esi+291]
  00042	3b 05 00 00 00
	00		 cmp	 eax, DWORD PTR ?g_iFenrirStuff_01_DropMap@@3HA ; g_iFenrirStuff_01_DropMap
  00048	75 25		 jne	 SHORT $LN321@gEventMons

; 3762 : 			bDropStuff == FALSE )
; 3763 : 		{
; 3764 : 			if ( (rand()%10000) < g_iFenrirStuff_01_DropRate ) 

  0004a	e8 00 00 00 00	 call	 _rand
  0004f	99		 cdq
  00050	f7 fb		 idiv	 ebx
  00052	3b 15 00 00 00
	00		 cmp	 edx, DWORD PTR ?g_iFenrirStuff_01_DropRate@@3HA ; g_iFenrirStuff_01_DropRate
  00058	7d 15		 jge	 SHORT $LN321@gEventMons

; 3765 : 			{
; 3766 : 				bDropStuff = TRUE;
; 3767 : 				type = ItemGetNumberMake(13, 32);

  0005a	6a 20		 push	 32			; 00000020H
  0005c	6a 0d		 push	 13			; 0000000dH
  0005e	bf 01 00 00 00	 mov	 edi, 1
  00063	e8 00 00 00 00	 call	 ?ItemGetNumberMake@@YAHHH@Z ; ItemGetNumberMake
  00068	83 c4 08	 add	 esp, 8
  0006b	8b d8		 mov	 ebx, eax
  0006d	eb 03		 jmp	 SHORT $LN8@gEventMons
$LN321@gEventMons:
  0006f	8b 5d f0	 mov	 ebx, DWORD PTR _type$[ebp]
$LN8@gEventMons:

; 3768 : 			}
; 3769 : 		}
; 3770 : 
; 3771 : 		if ( lpObj->Level >= g_iFenrirStuff_02_DropLv_Min && lpObj->Level <= g_iFenrirStuff_02_DropLv_Max &&
; 3772 : 			lpObj->MapNumber == g_iFenrirStuff_02_DropMap &&

  00072	0f bf 86 96 00
	00 00		 movsx	 eax, WORD PTR [esi+150]
  00079	3b 05 00 00 00
	00		 cmp	 eax, DWORD PTR ?g_iFenrirStuff_02_DropLv_Min@@3HA ; g_iFenrirStuff_02_DropLv_Min
  0007f	7c 43		 jl	 SHORT $LN10@gEventMons
  00081	3b 05 00 00 00
	00		 cmp	 eax, DWORD PTR ?g_iFenrirStuff_02_DropLv_Max@@3HA ; g_iFenrirStuff_02_DropLv_Max
  00087	7f 3b		 jg	 SHORT $LN10@gEventMons
  00089	0f b6 86 23 01
	00 00		 movzx	 eax, BYTE PTR [esi+291]
  00090	3b 05 00 00 00
	00		 cmp	 eax, DWORD PTR ?g_iFenrirStuff_02_DropMap@@3HA ; g_iFenrirStuff_02_DropMap
  00096	75 2c		 jne	 SHORT $LN10@gEventMons
  00098	85 ff		 test	 edi, edi
  0009a	75 28		 jne	 SHORT $LN10@gEventMons

; 3773 : 			bDropStuff == FALSE )
; 3774 : 		{
; 3775 : 			if ( (rand()%10000) < g_iFenrirStuff_02_DropRate ) 

  0009c	e8 00 00 00 00	 call	 _rand
  000a1	99		 cdq
  000a2	b9 10 27 00 00	 mov	 ecx, 10000		; 00002710H
  000a7	f7 f9		 idiv	 ecx
  000a9	3b 15 00 00 00
	00		 cmp	 edx, DWORD PTR ?g_iFenrirStuff_02_DropRate@@3HA ; g_iFenrirStuff_02_DropRate
  000af	7d 13		 jge	 SHORT $LN10@gEventMons

; 3776 : 			{
; 3777 : 				bDropStuff = TRUE;
; 3778 : 				type = ItemGetNumberMake(13, 33);

  000b1	6a 21		 push	 33			; 00000021H
  000b3	6a 0d		 push	 13			; 0000000dH
  000b5	bf 01 00 00 00	 mov	 edi, 1
  000ba	e8 00 00 00 00	 call	 ?ItemGetNumberMake@@YAHHH@Z ; ItemGetNumberMake
  000bf	83 c4 08	 add	 esp, 8
  000c2	8b d8		 mov	 ebx, eax
$LN10@gEventMons:

; 3779 : 			}
; 3780 : 		}
; 3781 : 
; 3782 : 		if ( lpObj->Level >= g_iFenrirStuff_03_DropLv_Min && lpObj->Level <= g_iFenrirStuff_03_DropLv_Max &&
; 3783 : 			lpObj->MapNumber == g_iFenrirStuff_03_DropMap &&

  000c4	0f bf 86 96 00
	00 00		 movsx	 eax, WORD PTR [esi+150]
  000cb	3b 05 00 00 00
	00		 cmp	 eax, DWORD PTR ?g_iFenrirStuff_03_DropLv_Min@@3HA ; g_iFenrirStuff_03_DropLv_Min
  000d1	7c 40		 jl	 SHORT $LN12@gEventMons
  000d3	3b 05 00 00 00
	00		 cmp	 eax, DWORD PTR ?g_iFenrirStuff_03_DropLv_Max@@3HA ; g_iFenrirStuff_03_DropLv_Max
  000d9	7f 38		 jg	 SHORT $LN12@gEventMons
  000db	0f b6 86 23 01
	00 00		 movzx	 eax, BYTE PTR [esi+291]
  000e2	3b 05 00 00 00
	00		 cmp	 eax, DWORD PTR ?g_iFenrirStuff_03_DropMap@@3HA ; g_iFenrirStuff_03_DropMap
  000e8	75 29		 jne	 SHORT $LN12@gEventMons
  000ea	85 ff		 test	 edi, edi
  000ec	75 29		 jne	 SHORT $LN299@gEventMons

; 3784 : 			bDropStuff == FALSE )
; 3785 : 		{
; 3786 : 			if ( (rand()%10000) < g_iFenrirStuff_03_DropRate ) 

  000ee	e8 00 00 00 00	 call	 _rand
  000f3	99		 cdq
  000f4	bb 10 27 00 00	 mov	 ebx, 10000		; 00002710H
  000f9	f7 fb		 idiv	 ebx
  000fb	3b 15 00 00 00
	00		 cmp	 edx, DWORD PTR ?g_iFenrirStuff_03_DropRate@@3HA ; g_iFenrirStuff_03_DropRate
  00101	7d 74		 jge	 SHORT $LN14@gEventMons

; 3787 : 			{
; 3788 : 				bDropStuff = TRUE;
; 3789 : 				type = ItemGetNumberMake(13, 34);

  00103	6a 22		 push	 34			; 00000022H
  00105	6a 0d		 push	 13			; 0000000dH
  00107	e8 00 00 00 00	 call	 ?ItemGetNumberMake@@YAHHH@Z ; ItemGetNumberMake
  0010c	83 c4 08	 add	 esp, 8
  0010f	8b d8		 mov	 ebx, eax

; 3790 : 			}
; 3791 : 		}
; 3792 : 
; 3793 : 		if ( bDropStuff )

  00111	eb 04		 jmp	 SHORT $LN299@gEventMons
$LN12@gEventMons:
  00113	85 ff		 test	 edi, edi
  00115	74 5b		 je	 SHORT $LN364@gEventMons
$LN299@gEventMons:

; 3794 : 		{
; 3795 : 			level = 0;
; 3796 : 			x = lpObj->X;
; 3797 : 			y = lpObj->Y;
; 3798 : 			dur = 1;
; 3799 : 			int MaxHitUser = gObjMonsterTopHitDamageUser(lpObj);
; 3800 : 			
; 3801 : 			if( ItemAttribute[type].MondownFlag != 0 )

  00117	6b c3 70	 imul	 eax, ebx, 112
  0011a	c6 45 fc 01	 mov	 BYTE PTR _dur$[ebp], 1
  0011e	80 b8 27 00 00
	00 00		 cmp	 BYTE PTR ?ItemAttribute@@3PAUITEM_ATTRIBUTE@@A[eax+39], 0
  00125	74 4b		 je	 SHORT $LN364@gEventMons

; 3802 : 			{
; 3803 : 				ItemSerialCreateSend(lpObj->m_Index, lpObj->MapNumber, x, y, type, level, dur,

  00127	6a 00		 push	 0
  00129	6a 00		 push	 0
  0012b	6a 00		 push	 0
  0012d	6a 00		 push	 0
  0012f	56		 push	 esi
  00130	e8 00 00 00 00	 call	 ?gObjMonsterTopHitDamageUser@@YAHPAUOBJECTSTRUCT@@@Z ; gObjMonsterTopHitDamageUser
  00135	83 c4 04	 add	 esp, 4
  00138	50		 push	 eax
  00139	6a 00		 push	 0
  0013b	6a 00		 push	 0
  0013d	6a 00		 push	 0
  0013f	6a 01		 push	 1
  00141	6a 00		 push	 0
$LN376@gEventMons:
  00143	53		 push	 ebx
$LN373@gEventMons:
  00144	0f b6 86 21 01
	00 00		 movzx	 eax, BYTE PTR [esi+289]
  0014b	50		 push	 eax
  0014c	0f b6 86 20 01
	00 00		 movzx	 eax, BYTE PTR [esi+288]
  00153	50		 push	 eax
$LN374@gEventMons:
  00154	0f b6 86 23 01
	00 00		 movzx	 eax, BYTE PTR [esi+291]
  0015b	50		 push	 eax
  0015c	ff 36		 push	 DWORD PTR [esi]
  0015e	e8 00 00 00 00	 call	 ?ItemSerialCreateSend@@YAXHEEEHEEEEEHEEEPAE@Z ; ItemSerialCreateSend
  00163	83 c4 3c	 add	 esp, 60			; 0000003cH

; 3804 : 					Option1, Option2, Option3, MaxHitUser, 0, 0);
; 3805 : 
; 3806 : 				return TRUE;

  00166	b8 01 00 00 00	 mov	 eax, 1
  0016b	5f		 pop	 edi
  0016c	5e		 pop	 esi
  0016d	5b		 pop	 ebx

; 5066 : }

  0016e	8b e5		 mov	 esp, ebp
  00170	5d		 pop	 ebp
  00171	c3		 ret	 0
$LN364@gEventMons:
  00172	bb 10 27 00 00	 mov	 ebx, 10000		; 00002710H
$LN14@gEventMons:

; 3807 : 			}
; 3808 : 		}
; 3809 : 	}
; 3810 : 
; 3811 : 	int SphereDrop = 0;
; 3812 : 	SphereDrop = g_SocketItem.GetSphereDrop(lpObj->Level);

  00177	0f bf 86 96 00
	00 00		 movsx	 eax, WORD PTR [esi+150]
  0017e	b9 00 00 00 00	 mov	 ecx, OFFSET ?g_SocketItem@@3VCSocketItems@@A ; g_SocketItem
  00183	50		 push	 eax
  00184	e8 00 00 00 00	 call	 ?GetSphereDrop@CSocketItems@@QAEHH@Z ; CSocketItems::GetSphereDrop
  00189	8b f8		 mov	 edi, eax

; 3813 : 
; 3814 : 	if ( SphereDrop != -1 )

  0018b	83 ff ff	 cmp	 edi, -1
  0018e	74 2b		 je	 SHORT $LN16@gEventMons

; 3815 : 	{
; 3816 : 		int iMaxHitUser = gObjMonsterTopHitDamageUser(lpObj);
; 3817 : 		
; 3818 : 		if( ItemAttribute[SphereDrop].MondownFlag != 0 )

  00190	6b cf 70	 imul	 ecx, edi, 112
  00193	80 b9 27 00 00
	00 00		 cmp	 BYTE PTR ?ItemAttribute@@3PAUITEM_ATTRIBUTE@@A[ecx+39], 0
  0019a	74 1f		 je	 SHORT $LN16@gEventMons
$LN378@gEventMons:

; 3819 : 		{
; 3820 : 			ItemSerialCreateSend(lpObj->m_Index, lpObj->MapNumber, lpObj->X, lpObj->Y, SphereDrop, 0, 1,

  0019c	6a 00		 push	 0
  0019e	6a 00		 push	 0
  001a0	6a 00		 push	 0
  001a2	6a 00		 push	 0
  001a4	56		 push	 esi
  001a5	e8 00 00 00 00	 call	 ?gObjMonsterTopHitDamageUser@@YAHPAUOBJECTSTRUCT@@@Z ; gObjMonsterTopHitDamageUser
  001aa	83 c4 04	 add	 esp, 4
  001ad	50		 push	 eax
  001ae	6a 00		 push	 0
  001b0	6a 00		 push	 0
  001b2	6a 00		 push	 0
  001b4	6a 01		 push	 1
  001b6	6a 00		 push	 0
  001b8	57		 push	 edi

; 3821 : 				0, 0, 0, iMaxHitUser, 0, 0);
; 3822 : 			return TRUE;

  001b9	eb 89		 jmp	 SHORT $LN373@gEventMons
$LN16@gEventMons:

; 3823 : 		}
; 3824 : 	}
; 3825 : 
; 3826 : 	if ( g_CompoundPotionDropOn == TRUE )

  001bb	83 3d 00 00 00
	00 01		 cmp	 DWORD PTR ?g_CompoundPotionDropOn@@3HA, 1 ; g_CompoundPotionDropOn
  001c2	0f 85 83 00 00
	00		 jne	 $LN23@gEventMons

; 3827 : 	{
; 3828 : 		BOOL bDropStuff = FALSE;
; 3829 : 		int iType = 0;
; 3830 : 
; 3831 : 		if ( lpObj->Level >= g_iCompoundPotionLv1DropLevel && (rand()%10000) <= g_iCompoundPotionLv1DropRate &&

  001c8	0f bf 86 96 00
	00 00		 movsx	 eax, WORD PTR [esi+150]
  001cf	3b 05 00 00 00
	00		 cmp	 eax, DWORD PTR ?g_iCompoundPotionLv1DropLevel@@3HA ; g_iCompoundPotionLv1DropLevel
  001d5	7c 14		 jl	 SHORT $LN301@gEventMons
  001d7	e8 00 00 00 00	 call	 _rand
  001dc	99		 cdq
  001dd	f7 fb		 idiv	 ebx
  001df	3b 15 00 00 00
	00		 cmp	 edx, DWORD PTR ?g_iCompoundPotionLv1DropRate@@3HA ; g_iCompoundPotionLv1DropRate
  001e5	7f 04		 jg	 SHORT $LN301@gEventMons

; 3832 : 			bDropStuff == FALSE )
; 3833 : 		{
; 3834 : 			bDropStuff = TRUE;
; 3835 : 			iType = ItemGetNumberMake(14, 38);

  001e7	6a 26		 push	 38			; 00000026H

; 3836 : 		}
; 3837 : 
; 3838 : 		if ( bDropStuff == FALSE && lpObj->Level >= g_iCompoundPotionLv2DropLevel && (rand()%10000) <= g_iCompoundPotionLv2DropRate  )

  001e9	eb 44		 jmp	 SHORT $LN368@gEventMons
$LN301@gEventMons:
  001eb	0f bf 86 96 00
	00 00		 movsx	 eax, WORD PTR [esi+150]
  001f2	3b 05 00 00 00
	00		 cmp	 eax, DWORD PTR ?g_iCompoundPotionLv2DropLevel@@3HA ; g_iCompoundPotionLv2DropLevel
  001f8	7c 14		 jl	 SHORT $LN304@gEventMons
  001fa	e8 00 00 00 00	 call	 _rand
  001ff	99		 cdq
  00200	f7 fb		 idiv	 ebx
  00202	3b 15 00 00 00
	00		 cmp	 edx, DWORD PTR ?g_iCompoundPotionLv2DropRate@@3HA ; g_iCompoundPotionLv2DropRate
  00208	7f 04		 jg	 SHORT $LN304@gEventMons

; 3839 : 		{
; 3840 : 			bDropStuff = TRUE;
; 3841 : 			iType = ItemGetNumberMake(14, 39);

  0020a	6a 27		 push	 39			; 00000027H

; 3842 : 		}
; 3843 : 		
; 3844 : 
; 3845 : 		if ( !bDropStuff )

  0020c	eb 21		 jmp	 SHORT $LN368@gEventMons
$LN304@gEventMons:

; 3846 : 		{
; 3847 : 			if ( lpObj->Level >= g_iCompoundPotionLv3DropLevel && (rand()%10000) <= g_iCompoundPotionLv3DropRate )

  0020e	0f bf 86 96 00
	00 00		 movsx	 eax, WORD PTR [esi+150]
  00215	3b 05 00 00 00
	00		 cmp	 eax, DWORD PTR ?g_iCompoundPotionLv3DropLevel@@3HA ; g_iCompoundPotionLv3DropLevel
  0021b	7c 2e		 jl	 SHORT $LN23@gEventMons
  0021d	e8 00 00 00 00	 call	 _rand
  00222	99		 cdq
  00223	f7 fb		 idiv	 ebx
  00225	3b 15 00 00 00
	00		 cmp	 edx, DWORD PTR ?g_iCompoundPotionLv3DropRate@@3HA ; g_iCompoundPotionLv3DropRate
  0022b	7f 1e		 jg	 SHORT $LN23@gEventMons

; 3848 : 			{
; 3849 : 				bDropStuff = TRUE;
; 3850 : 				iType = ItemGetNumberMake(14, 40);

  0022d	6a 28		 push	 40			; 00000028H
$LN368@gEventMons:
  0022f	6a 0e		 push	 14			; 0000000eH
  00231	e8 00 00 00 00	 call	 ?ItemGetNumberMake@@YAHHH@Z ; ItemGetNumberMake
  00236	8b f8		 mov	 edi, eax
  00238	83 c4 08	 add	 esp, 8

; 3851 : 			}
; 3852 : 		}
; 3853 : 
; 3854 : 		if ( bDropStuff == 1 )
; 3855 : 		{
; 3856 : 			int level = 0;
; 3857 : 			int dur = 1;
; 3858 : 			int iMaxHitUser = gObjMonsterTopHitDamageUser(lpObj);
; 3859 : 			
; 3860 : 			if( ItemAttribute[iType].MondownFlag != 0 )

  0023b	6b c7 70	 imul	 eax, edi, 112
  0023e	80 b8 27 00 00
	00 00		 cmp	 BYTE PTR ?ItemAttribute@@3PAUITEM_ATTRIBUTE@@A[eax+39], 0
  00245	0f 85 51 ff ff
	ff		 jne	 $LN378@gEventMons
$LN23@gEventMons:

; 3861 : 			{
; 3862 : 				ItemSerialCreateSend(lpObj->m_Index, lpObj->MapNumber, lpObj->X, lpObj->Y, iType, level, dur,
; 3863 : 					0,0,0, iMaxHitUser, 0, 0);
; 3864 : 
; 3865 : 				return TRUE;
; 3866 : 			}
; 3867 : 		}
; 3868 : 	}
; 3869 : 
; 3870 : 	if ( gIsItemDropRingOfTransform )

  0024b	83 3d 00 00 00
	00 00		 cmp	 DWORD PTR ?gIsItemDropRingOfTransform@@3HA, 0 ; gIsItemDropRingOfTransform
  00252	0f 84 d1 00 00
	00		 je	 $LN30@gEventMons

; 3871 : 	{
; 3872 : 		if ( (rand()%10000) < gItemDropRingOfTransform )

  00258	e8 00 00 00 00	 call	 _rand
  0025d	99		 cdq
  0025e	f7 fb		 idiv	 ebx
  00260	3b 15 00 00 00
	00		 cmp	 edx, DWORD PTR ?gItemDropRingOfTransform@@3HA ; gItemDropRingOfTransform
  00266	0f 8d bd 00 00
	00		 jge	 $LN30@gEventMons

; 3873 : 		{
; 3874 : 			LPMONSTER_ATTRIBUTE lpattr = gMAttr.GetAttr(lpObj->Class);

  0026c	0f b7 86 90 00
	00 00		 movzx	 eax, WORD PTR [esi+144]
  00273	b9 00 00 00 00	 mov	 ecx, OFFSET ?gMAttr@@3VCMonsterAttr@@A ; gMAttr
  00278	50		 push	 eax
  00279	e8 00 00 00 00	 call	 ?GetAttr@CMonsterAttr@@QAEPAUMONSTER_ATTRIBUTE@@H@Z ; CMonsterAttr::GetAttr

; 3875 : 
; 3876 : 			if ( lpattr )

  0027e	85 c0		 test	 eax, eax
  00280	0f 84 a3 00 00
	00		 je	 $LN30@gEventMons

; 3877 : 			{
; 3878 : 				int level = lpattr->m_Level;

  00286	8b 48 44	 mov	 ecx, DWORD PTR [eax+68]

; 3879 : 				int callbead_level = 0;
; 3880 : 
; 3881 : 				if ( level < 0 )

  00289	33 c0		 xor	 eax, eax
  0028b	85 c9		 test	 ecx, ecx
  0028d	0f 48 c8	 cmovs	 ecx, eax

; 3882 : 					level = 0;
; 3883 : 
; 3884 : 				callbead_level = level / 10;

  00290	b8 67 66 66 66	 mov	 eax, 1717986919		; 66666667H
  00295	f7 e9		 imul	 ecx
  00297	c1 fa 02	 sar	 edx, 2
  0029a	8b fa		 mov	 edi, edx
  0029c	c1 ef 1f	 shr	 edi, 31			; 0000001fH
  0029f	03 fa		 add	 edi, edx

; 3885 : 
; 3886 : 				if ( callbead_level > 0 )

  002a1	85 ff		 test	 edi, edi
  002a3	7e 01		 jle	 SHORT $LN28@gEventMons

; 3887 : 					callbead_level--;

  002a5	4f		 dec	 edi
$LN28@gEventMons:

; 3888 : 
; 3889 : 				if ( callbead_level > 5 )

  002a6	b8 05 00 00 00	 mov	 eax, 5
  002ab	3b f8		 cmp	 edi, eax
  002ad	0f 4f f8	 cmovg	 edi, eax

; 3890 : 					callbead_level = 5;
; 3891 : 
; 3892 : 				dur = (BYTE)(rand()%100+100.0f);

  002b0	e8 00 00 00 00	 call	 _rand
  002b5	99		 cdq
  002b6	b9 64 00 00 00	 mov	 ecx, 100		; 00000064H
  002bb	f7 f9		 idiv	 ecx

; 3893 : 				x = lpObj->X;
; 3894 : 				y = lpObj->Y;
; 3895 : 				level = callbead_level;
; 3896 : 				type = ItemGetNumberMake(13, 10);

  002bd	6a 0a		 push	 10			; 0000000aH
  002bf	6a 0d		 push	 13			; 0000000dH
  002c1	66 0f 6e c2	 movd	 xmm0, edx
  002c5	0f 5b c0	 cvtdq2ps xmm0, xmm0
  002c8	f3 0f 58 05 00
	00 00 00	 addss	 xmm0, DWORD PTR __real@42c80000
  002d0	f3 0f 2c c0	 cvttss2si eax, xmm0
  002d4	88 45 fc	 mov	 BYTE PTR _dur$[ebp], al
  002d7	0f b6 86 20 01
	00 00		 movzx	 eax, BYTE PTR [esi+288]
  002de	89 45 f4	 mov	 DWORD PTR _x$1$[ebp], eax
  002e1	0f b6 86 21 01
	00 00		 movzx	 eax, BYTE PTR [esi+289]
  002e8	89 45 f8	 mov	 DWORD PTR _y$1$[ebp], eax
  002eb	e8 00 00 00 00	 call	 ?ItemGetNumberMake@@YAHHH@Z ; ItemGetNumberMake
  002f0	8b d8		 mov	 ebx, eax
  002f2	83 c4 08	 add	 esp, 8

; 3897 : 				int MaxHitUser = gObjMonsterTopHitDamageUser(lpObj);
; 3898 : 				
; 3899 : 				if( ItemAttribute[type].MondownFlag != 0 )

  002f5	6b cb 70	 imul	 ecx, ebx, 112
  002f8	80 b9 27 00 00
	00 00		 cmp	 BYTE PTR ?ItemAttribute@@3PAUITEM_ATTRIBUTE@@A[ecx+39], 0
  002ff	74 28		 je	 SHORT $LN30@gEventMons

; 3900 : 				{
; 3901 : 					ItemSerialCreateSend(lpObj->m_Index, lpObj->MapNumber, x, y, type, level, dur,

  00301	6a 00		 push	 0
  00303	6a 00		 push	 0
  00305	6a 00		 push	 0
  00307	6a 00		 push	 0
  00309	56		 push	 esi
  0030a	e8 00 00 00 00	 call	 ?gObjMonsterTopHitDamageUser@@YAHPAUOBJECTSTRUCT@@@Z ; gObjMonsterTopHitDamageUser
  0030f	83 c4 04	 add	 esp, 4
  00312	50		 push	 eax
  00313	6a 00		 push	 0
  00315	6a 00		 push	 0
  00317	6a 00		 push	 0
  00319	ff 75 fc	 push	 DWORD PTR _dur$[ebp]
  0031c	57		 push	 edi
  0031d	53		 push	 ebx
  0031e	ff 75 f8	 push	 DWORD PTR _y$1$[ebp]
  00321	ff 75 f4	 push	 DWORD PTR _x$1$[ebp]

; 3902 : 						Option1,Option2,Option3, MaxHitUser, 0, 0);
; 3903 : 
; 3904 : 					return TRUE;

  00324	e9 2b fe ff ff	 jmp	 $LN374@gEventMons
$LN30@gEventMons:

; 3905 : 				}
; 3906 : 			}
; 3907 : 		}
; 3908 : 	}
; 3909 : 
; 3910 : 	if ( gFireCrackerEvent ) 

  00329	83 3d 00 00 00
	00 00		 cmp	 DWORD PTR ?gFireCrackerEvent@@3HA, 0 ; gFireCrackerEvent
  00330	0f 84 93 00 00
	00		 je	 $LN327@gEventMons

; 3911 : 	{
; 3912 : 		if ( lpObj->MapNumber < 7 )

  00336	80 be 23 01 00
	00 07		 cmp	 BYTE PTR [esi+291], 7
  0033d	0f 83 86 00 00
	00		 jae	 $LN327@gEventMons

; 3913 : 		{
; 3914 : 			LPMONSTER_ATTRIBUTE lpattr = gMAttr.GetAttr(lpObj->Class);

  00343	0f b7 86 90 00
	00 00		 movzx	 eax, WORD PTR [esi+144]
  0034a	b9 00 00 00 00	 mov	 ecx, OFFSET ?gMAttr@@3VCMonsterAttr@@A ; gMAttr
  0034f	50		 push	 eax
  00350	e8 00 00 00 00	 call	 ?GetAttr@CMonsterAttr@@QAEPAUMONSTER_ATTRIBUTE@@H@Z ; CMonsterAttr::GetAttr

; 3915 : 
; 3916 : 			if ( lpattr )

  00355	85 c0		 test	 eax, eax
  00357	74 70		 je	 SHORT $LN327@gEventMons

; 3917 : 			{
; 3918 : 				if ( lpattr->m_Level >= 17 )

  00359	83 78 44 11	 cmp	 DWORD PTR [eax+68], 17	; 00000011H
  0035d	7c 6a		 jl	 SHORT $LN327@gEventMons

; 3919 : 				{
; 3920 : 					if ( (rand()%10000) < gFireCrackerDropRate )

  0035f	e8 00 00 00 00	 call	 _rand
  00364	99		 cdq
  00365	bb 10 27 00 00	 mov	 ebx, 10000		; 00002710H
  0036a	f7 fb		 idiv	 ebx
  0036c	3b 15 00 00 00
	00		 cmp	 edx, DWORD PTR ?gFireCrackerDropRate@@3HA ; gFireCrackerDropRate
  00372	7d 5a		 jge	 SHORT $LN36@gEventMons

; 3921 : 					{
; 3922 : 						dur = 1;
; 3923 : 						x = lpObj->X;
; 3924 : 						y = lpObj->Y;

  00374	0f b6 86 21 01
	00 00		 movzx	 eax, BYTE PTR [esi+289]
  0037b	0f b6 9e 20 01
	00 00		 movzx	 ebx, BYTE PTR [esi+288]

; 3925 : 						level = 2;
; 3926 : 						type = ItemGetNumberMake(14, 11);

  00382	6a 0b		 push	 11			; 0000000bH
  00384	6a 0e		 push	 14			; 0000000eH
  00386	c6 45 fc 01	 mov	 BYTE PTR _dur$[ebp], 1
  0038a	89 45 f4	 mov	 DWORD PTR _y$2$[ebp], eax
  0038d	e8 00 00 00 00	 call	 ?ItemGetNumberMake@@YAHHH@Z ; ItemGetNumberMake
  00392	8b f8		 mov	 edi, eax
  00394	83 c4 08	 add	 esp, 8

; 3927 : 						int MaxHitUser = gObjMonsterTopHitDamageUser(lpObj);
; 3928 : 						
; 3929 : 						if( ItemAttribute[type].MondownFlag != 0 )

  00397	6b cf 70	 imul	 ecx, edi, 112
  0039a	80 b9 27 00 00
	00 00		 cmp	 BYTE PTR ?ItemAttribute@@3PAUITEM_ATTRIBUTE@@A[ecx+39], 0
  003a1	74 26		 je	 SHORT $LN327@gEventMons

; 3930 : 						{
; 3931 : 							ItemSerialCreateSend(lpObj->m_Index, lpObj->MapNumber, x, y, type, level, dur,

  003a3	6a 00		 push	 0
  003a5	6a 00		 push	 0
  003a7	6a 00		 push	 0
  003a9	6a 00		 push	 0
  003ab	56		 push	 esi
  003ac	e8 00 00 00 00	 call	 ?gObjMonsterTopHitDamageUser@@YAHPAUOBJECTSTRUCT@@@Z ; gObjMonsterTopHitDamageUser
  003b1	83 c4 04	 add	 esp, 4
  003b4	50		 push	 eax
  003b5	6a 00		 push	 0
  003b7	6a 00		 push	 0
  003b9	6a 00		 push	 0
  003bb	6a 01		 push	 1
  003bd	6a 02		 push	 2
  003bf	57		 push	 edi
  003c0	ff 75 f4	 push	 DWORD PTR _y$2$[ebp]
  003c3	53		 push	 ebx

; 3932 : 								Option1,Option2,Option3, MaxHitUser, 0, 0);
; 3933 : 
; 3934 : 							return TRUE;

  003c4	e9 8b fd ff ff	 jmp	 $LN374@gEventMons
$LN327@gEventMons:
  003c9	bb 10 27 00 00	 mov	 ebx, 10000		; 00002710H
$LN36@gEventMons:

; 3935 : 						}
; 3936 : 					}
; 3937 : 				}
; 3938 : 			}
; 3939 : 		}
; 3940 : 	}
; 3941 : 
; 3942 : 	if ( gHeartOfLoveEvent )

  003ce	83 3d 00 00 00
	00 00		 cmp	 DWORD PTR ?gHeartOfLoveEvent@@3HA, 0 ; gHeartOfLoveEvent
  003d5	0f 84 8e 00 00
	00		 je	 $LN42@gEventMons

; 3943 : 	{
; 3944 : 		
; 3945 : 		if( lpObj->MapNumber < 7 )

  003db	80 be 23 01 00
	00 07		 cmp	 BYTE PTR [esi+291], 7
  003e2	0f 83 81 00 00
	00		 jae	 $LN42@gEventMons

; 3946 : 		{
; 3947 : 			LPMONSTER_ATTRIBUTE lpattr = gMAttr.GetAttr(lpObj->Class);

  003e8	0f b7 86 90 00
	00 00		 movzx	 eax, WORD PTR [esi+144]
  003ef	b9 00 00 00 00	 mov	 ecx, OFFSET ?gMAttr@@3VCMonsterAttr@@A ; gMAttr
  003f4	50		 push	 eax
  003f5	e8 00 00 00 00	 call	 ?GetAttr@CMonsterAttr@@QAEPAUMONSTER_ATTRIBUTE@@H@Z ; CMonsterAttr::GetAttr

; 3948 : 
; 3949 : 			if ( lpattr )

  003fa	85 c0		 test	 eax, eax
  003fc	74 6b		 je	 SHORT $LN42@gEventMons

; 3950 : 			{
; 3951 : 				if ( lpattr->m_Level >=17 )

  003fe	83 78 44 11	 cmp	 DWORD PTR [eax+68], 17	; 00000011H
  00402	7c 65		 jl	 SHORT $LN42@gEventMons

; 3952 : 				{
; 3953 : 					if ( (rand()%10000) < gHeartOfLoveDropRate )

  00404	e8 00 00 00 00	 call	 _rand
  00409	99		 cdq
  0040a	f7 fb		 idiv	 ebx
  0040c	3b 15 00 00 00
	00		 cmp	 edx, DWORD PTR ?gHeartOfLoveDropRate@@3HA ; gHeartOfLoveDropRate
  00412	7d 55		 jge	 SHORT $LN42@gEventMons

; 3954 : 					{
; 3955 : 						dur = 1;
; 3956 : 						x = lpObj->X;
; 3957 : 						y = lpObj->Y;

  00414	0f b6 86 21 01
	00 00		 movzx	 eax, BYTE PTR [esi+289]
  0041b	0f b6 9e 20 01
	00 00		 movzx	 ebx, BYTE PTR [esi+288]

; 3958 : 						level = 3;
; 3959 : 						type = ItemGetNumberMake(14, 11);

  00422	6a 0b		 push	 11			; 0000000bH
  00424	6a 0e		 push	 14			; 0000000eH
  00426	c6 45 fc 01	 mov	 BYTE PTR _dur$[ebp], 1
  0042a	89 45 f4	 mov	 DWORD PTR _y$3$[ebp], eax
  0042d	e8 00 00 00 00	 call	 ?ItemGetNumberMake@@YAHHH@Z ; ItemGetNumberMake
  00432	8b f8		 mov	 edi, eax
  00434	83 c4 08	 add	 esp, 8

; 3960 : 						int MaxHitUser = gObjMonsterTopHitDamageUser(lpObj);
; 3961 : 						
; 3962 : 						if( ItemAttribute[type].MondownFlag != 0 )

  00437	6b cf 70	 imul	 ecx, edi, 112
  0043a	80 b9 27 00 00
	00 00		 cmp	 BYTE PTR ?ItemAttribute@@3PAUITEM_ATTRIBUTE@@A[ecx+39], 0
  00441	74 26		 je	 SHORT $LN42@gEventMons
$LN381@gEventMons:

; 3963 : 						{
; 3964 : 							ItemSerialCreateSend(lpObj->m_Index, lpObj->MapNumber, x, y, type, level, dur,

  00443	6a 00		 push	 0
  00445	6a 00		 push	 0
  00447	6a 00		 push	 0
  00449	6a 00		 push	 0
  0044b	56		 push	 esi
  0044c	e8 00 00 00 00	 call	 ?gObjMonsterTopHitDamageUser@@YAHPAUOBJECTSTRUCT@@@Z ; gObjMonsterTopHitDamageUser
  00451	83 c4 04	 add	 esp, 4
  00454	50		 push	 eax
  00455	6a 00		 push	 0
  00457	6a 00		 push	 0
  00459	6a 00		 push	 0
  0045b	6a 01		 push	 1
  0045d	6a 03		 push	 3
  0045f	57		 push	 edi
  00460	ff 75 f4	 push	 DWORD PTR _y$3$[ebp]
  00463	53		 push	 ebx

; 3965 : 								Option1,Option2,Option3, MaxHitUser, 0, 0);
; 3966 : 
; 3967 : 							return TRUE;

  00464	e9 eb fc ff ff	 jmp	 $LN374@gEventMons
$LN42@gEventMons:

; 3968 : 						}
; 3969 : 					}
; 3970 : 				}
; 3971 : 			}
; 3972 : 		}
; 3973 : 	}
; 3974 : 	
; 3975 : 	if ( gMedalEvent )

  00469	83 3d 00 00 00
	00 00		 cmp	 DWORD PTR ?gMedalEvent@@3HA, 0 ; gMedalEvent
  00470	0f 84 02 01 00
	00		 je	 $LN331@gEventMons

; 3976 : 	{
; 3977 : 		if ( lpObj->MapNumber == 1 || lpObj->MapNumber == 2 )

  00476	8a 86 23 01 00
	00		 mov	 al, BYTE PTR [esi+291]
  0047c	3c 01		 cmp	 al, 1
  0047e	0f 84 8a 00 00
	00		 je	 $LN46@gEventMons
  00484	3c 02		 cmp	 al, 2
  00486	0f 84 82 00 00
	00		 je	 $LN46@gEventMons

; 3994 : 				}
; 3995 : 			}
; 3996 : 		}
; 3997 : 		else if ( lpObj->MapNumber == 4 || lpObj->MapNumber == 7 || lpObj->MapNumber == 8 )

  0048c	3c 04		 cmp	 al, 4
  0048e	74 0c		 je	 SHORT $LN50@gEventMons
  00490	3c 07		 cmp	 al, 7
  00492	74 08		 je	 SHORT $LN50@gEventMons
  00494	3c 08		 cmp	 al, 8
  00496	0f 85 dc 00 00
	00		 jne	 $LN331@gEventMons
$LN50@gEventMons:

; 3998 : 		{
; 3999 : 			if ( (rand()%10000) < gGoldMedalDropRate )

  0049c	e8 00 00 00 00	 call	 _rand
  004a1	99		 cdq
  004a2	bb 10 27 00 00	 mov	 ebx, 10000		; 00002710H
  004a7	f7 fb		 idiv	 ebx
  004a9	3b 15 00 00 00
	00		 cmp	 edx, DWORD PTR ?gGoldMedalDropRate@@3HA ; gGoldMedalDropRate
  004af	0f 8d c8 00 00
	00		 jge	 $LN48@gEventMons

; 4000 : 			{
; 4001 : 				dur = 1;
; 4002 : 				x = lpObj->X;
; 4003 : 				y = lpObj->Y;

  004b5	0f b6 86 21 01
	00 00		 movzx	 eax, BYTE PTR [esi+289]
  004bc	0f b6 9e 20 01
	00 00		 movzx	 ebx, BYTE PTR [esi+288]

; 4004 : 				level = 6;
; 4005 : 				type = ItemGetNumberMake(14, 11);

  004c3	6a 0b		 push	 11			; 0000000bH
  004c5	6a 0e		 push	 14			; 0000000eH
  004c7	c6 45 fc 01	 mov	 BYTE PTR _dur$[ebp], 1
  004cb	89 45 f4	 mov	 DWORD PTR _y$4$[ebp], eax
  004ce	e8 00 00 00 00	 call	 ?ItemGetNumberMake@@YAHHH@Z ; ItemGetNumberMake
  004d3	8b f8		 mov	 edi, eax
  004d5	83 c4 08	 add	 esp, 8

; 4006 : 				int MaxHitUser = gObjMonsterTopHitDamageUser(lpObj);
; 4007 : 				
; 4008 : 				if( ItemAttribute[type].MondownFlag != 0 )

  004d8	6b cf 70	 imul	 ecx, edi, 112
  004db	80 b9 27 00 00
	00 00		 cmp	 BYTE PTR ?ItemAttribute@@3PAUITEM_ATTRIBUTE@@A[ecx+39], 0
  004e2	0f 84 90 00 00
	00		 je	 $LN331@gEventMons

; 4009 : 				{
; 4010 : 					ItemSerialCreateSend(lpObj->m_Index, lpObj->MapNumber, x, y, type, level, dur,

  004e8	6a 00		 push	 0
  004ea	6a 00		 push	 0
  004ec	6a 00		 push	 0
  004ee	6a 00		 push	 0
  004f0	56		 push	 esi
  004f1	e8 00 00 00 00	 call	 ?gObjMonsterTopHitDamageUser@@YAHPAUOBJECTSTRUCT@@@Z ; gObjMonsterTopHitDamageUser
  004f6	83 c4 04	 add	 esp, 4
  004f9	50		 push	 eax
  004fa	6a 00		 push	 0
  004fc	6a 00		 push	 0
  004fe	6a 00		 push	 0
  00500	6a 01		 push	 1
  00502	6a 06		 push	 6
  00504	57		 push	 edi
  00505	ff 75 f4	 push	 DWORD PTR _y$4$[ebp]
  00508	53		 push	 ebx

; 4011 : 						Option1,Option2,Option3, MaxHitUser, 0, 0);
; 4012 : 
; 4013 : 					return TRUE;

  00509	e9 46 fc ff ff	 jmp	 $LN374@gEventMons
$LN46@gEventMons:

; 3978 : 		{
; 3979 : 			if ( (rand()%10000) < gSilverMedalDropRate )

  0050e	e8 00 00 00 00	 call	 _rand
  00513	99		 cdq
  00514	bb 10 27 00 00	 mov	 ebx, 10000		; 00002710H
  00519	f7 fb		 idiv	 ebx
  0051b	3b 15 00 00 00
	00		 cmp	 edx, DWORD PTR ?gSilverMedalDropRate@@3HA ; gSilverMedalDropRate
  00521	7d 5a		 jge	 SHORT $LN48@gEventMons

; 3980 : 			{
; 3981 : 				dur = 1;
; 3982 : 				x = lpObj->X;
; 3983 : 				y = lpObj->Y;

  00523	0f b6 86 21 01
	00 00		 movzx	 eax, BYTE PTR [esi+289]
  0052a	0f b6 9e 20 01
	00 00		 movzx	 ebx, BYTE PTR [esi+288]

; 3984 : 				level = 5;
; 3985 : 				type = ItemGetNumberMake(14, 11);

  00531	6a 0b		 push	 11			; 0000000bH
  00533	6a 0e		 push	 14			; 0000000eH
  00535	c6 45 fc 01	 mov	 BYTE PTR _dur$[ebp], 1
  00539	89 45 f4	 mov	 DWORD PTR _y$5$[ebp], eax
  0053c	e8 00 00 00 00	 call	 ?ItemGetNumberMake@@YAHHH@Z ; ItemGetNumberMake
  00541	8b f8		 mov	 edi, eax
  00543	83 c4 08	 add	 esp, 8

; 3986 : 				int MaxHitUser = gObjMonsterTopHitDamageUser(lpObj);
; 3987 : 				
; 3988 : 				if( ItemAttribute[type].MondownFlag != 0 )

  00546	6b cf 70	 imul	 ecx, edi, 112
  00549	80 b9 27 00 00
	00 00		 cmp	 BYTE PTR ?ItemAttribute@@3PAUITEM_ATTRIBUTE@@A[ecx+39], 0
  00550	74 26		 je	 SHORT $LN331@gEventMons

; 3989 : 				{
; 3990 : 					ItemSerialCreateSend(lpObj->m_Index, lpObj->MapNumber, x, y, type, level, dur,

  00552	6a 00		 push	 0
  00554	6a 00		 push	 0
  00556	6a 00		 push	 0
  00558	6a 00		 push	 0
  0055a	56		 push	 esi
  0055b	e8 00 00 00 00	 call	 ?gObjMonsterTopHitDamageUser@@YAHPAUOBJECTSTRUCT@@@Z ; gObjMonsterTopHitDamageUser
  00560	83 c4 04	 add	 esp, 4
  00563	50		 push	 eax
  00564	6a 00		 push	 0
  00566	6a 00		 push	 0
  00568	6a 00		 push	 0
  0056a	6a 01		 push	 1
  0056c	6a 05		 push	 5
  0056e	57		 push	 edi
  0056f	ff 75 f4	 push	 DWORD PTR _y$5$[ebp]
  00572	53		 push	 ebx

; 3991 : 						Option1,Option2,Option3, MaxHitUser, 0, 0);
; 3992 : 
; 3993 : 					return TRUE;

  00573	e9 dc fb ff ff	 jmp	 $LN374@gEventMons
$LN331@gEventMons:
  00578	bb 10 27 00 00	 mov	 ebx, 10000		; 00002710H
$LN48@gEventMons:

; 4014 : 				}
; 4015 : 			}
; 4016 : 		}
; 4017 : 	}
; 4018 : 
; 4019 : 	if ( gEventChipEvent )

  0057d	83 3d 00 00 00
	00 00		 cmp	 DWORD PTR ?gEventChipEvent@@3HA, 0 ; gEventChipEvent
  00584	74 65		 je	 SHORT $LN55@gEventMons

; 4020 : 	{
; 4021 : 		if ( (rand()%10000) < gBoxOfGoldDropRate )

  00586	e8 00 00 00 00	 call	 _rand
  0058b	99		 cdq
  0058c	f7 fb		 idiv	 ebx
  0058e	3b 15 00 00 00
	00		 cmp	 edx, DWORD PTR ?gBoxOfGoldDropRate@@3HA ; gBoxOfGoldDropRate
  00594	7d 55		 jge	 SHORT $LN55@gEventMons

; 4022 : 		{
; 4023 : 			dur = 1;
; 4024 : 			x = lpObj->X;
; 4025 : 			y = lpObj->Y;

  00596	0f b6 86 21 01
	00 00		 movzx	 eax, BYTE PTR [esi+289]
  0059d	0f b6 9e 20 01
	00 00		 movzx	 ebx, BYTE PTR [esi+288]

; 4026 : 			level = 7;
; 4027 : 			type = ItemGetNumberMake(14, 11);

  005a4	6a 0b		 push	 11			; 0000000bH
  005a6	6a 0e		 push	 14			; 0000000eH
  005a8	c6 45 fc 01	 mov	 BYTE PTR _dur$[ebp], 1
  005ac	89 45 f4	 mov	 DWORD PTR _y$6$[ebp], eax
  005af	e8 00 00 00 00	 call	 ?ItemGetNumberMake@@YAHHH@Z ; ItemGetNumberMake
  005b4	8b f8		 mov	 edi, eax
  005b6	83 c4 08	 add	 esp, 8

; 4028 : 			int MaxHitUser = gObjMonsterTopHitDamageUser(lpObj);
; 4029 : 			
; 4030 : 			if( ItemAttribute[type].MondownFlag != 0 )

  005b9	6b cf 70	 imul	 ecx, edi, 112
  005bc	80 b9 27 00 00
	00 00		 cmp	 BYTE PTR ?ItemAttribute@@3PAUITEM_ATTRIBUTE@@A[ecx+39], 0
  005c3	74 26		 je	 SHORT $LN55@gEventMons
$LN382@gEventMons:

; 4031 : 			{
; 4032 : 				ItemSerialCreateSend(lpObj->m_Index, lpObj->MapNumber, x, y, type, level, dur,

  005c5	6a 00		 push	 0
  005c7	6a 00		 push	 0
  005c9	6a 00		 push	 0
  005cb	6a 00		 push	 0
  005cd	56		 push	 esi
  005ce	e8 00 00 00 00	 call	 ?gObjMonsterTopHitDamageUser@@YAHPAUOBJECTSTRUCT@@@Z ; gObjMonsterTopHitDamageUser
  005d3	83 c4 04	 add	 esp, 4
  005d6	50		 push	 eax
  005d7	6a 00		 push	 0
  005d9	6a 00		 push	 0
  005db	6a 00		 push	 0
  005dd	6a 01		 push	 1
  005df	6a 07		 push	 7
  005e1	57		 push	 edi
  005e2	ff 75 f4	 push	 DWORD PTR _y$6$[ebp]
  005e5	53		 push	 ebx

; 4033 : 					Option1,Option2,Option3, MaxHitUser, 0, 0);
; 4034 : 
; 4035 : 				return TRUE;

  005e6	e9 69 fb ff ff	 jmp	 $LN374@gEventMons
$LN55@gEventMons:

; 4036 : 			}
; 4037 : 		}
; 4038 : 	}
; 4039 : 
; 4040 : 	if ( (rand()%10000) < g_iKundunMarkDropRate )

  005eb	e8 00 00 00 00	 call	 _rand
  005f0	99		 cdq
  005f1	bb 10 27 00 00	 mov	 ebx, 10000		; 00002710H
  005f6	f7 fb		 idiv	 ebx
  005f8	3b 15 00 00 00
	00		 cmp	 edx, DWORD PTR ?g_iKundunMarkDropRate@@3HA ; g_iKundunMarkDropRate
  005fe	0f 8d f3 00 00
	00		 jge	 $LN73@gEventMons

; 4041 : 	{
; 4042 : 		Option1=0;
; 4043 : 		Option2=0;
; 4044 : 		Option3=0;
; 4045 : 		dur = 1;
; 4046 : 		x = lpObj->X;

  00604	0f b6 86 20 01
	00 00		 movzx	 eax, BYTE PTR [esi+288]
  0060b	89 45 f8	 mov	 DWORD PTR _x$7$[ebp], eax

; 4047 : 		y = lpObj->Y;

  0060e	0f b6 86 21 01
	00 00		 movzx	 eax, BYTE PTR [esi+289]
  00615	89 45 f4	 mov	 DWORD PTR _y$7$[ebp], eax

; 4048 : 		level = 0;
; 4049 : 
; 4050 : 		if ( lpObj->Level < 25 )

  00618	0f b7 86 96 00
	00 00		 movzx	 eax, WORD PTR [esi+150]
  0061f	c6 45 fc 01	 mov	 BYTE PTR _dur$[ebp], 1
  00623	66 83 f8 19	 cmp	 ax, 25			; 00000019H
  00627	0f 8c 5e 11 00
	00		 jl	 $LN277@gEventMons

; 4051 : 			level = 0;
; 4052 : 		else if ( lpObj->Level < 47 )

  0062d	66 83 f8 2f	 cmp	 ax, 47			; 0000002fH
  00631	7d 07		 jge	 SHORT $LN59@gEventMons

; 4053 : 			level = 1;

  00633	bf 01 00 00 00	 mov	 edi, 1
  00638	eb 5e		 jmp	 SHORT $LN72@gEventMons
$LN59@gEventMons:

; 4054 : 		else if ( lpObj->Level < 66 )

  0063a	66 83 f8 42	 cmp	 ax, 66			; 00000042H
  0063e	7d 07		 jge	 SHORT $LN61@gEventMons

; 4055 : 			level = 2;

  00640	bf 02 00 00 00	 mov	 edi, 2
  00645	eb 51		 jmp	 SHORT $LN72@gEventMons
$LN61@gEventMons:

; 4056 : 		else if ( lpObj->Level < 78 )

  00647	66 83 f8 4e	 cmp	 ax, 78			; 0000004eH
  0064b	7d 07		 jge	 SHORT $LN63@gEventMons

; 4057 : 			level = 3;

  0064d	bf 03 00 00 00	 mov	 edi, 3
  00652	eb 44		 jmp	 SHORT $LN72@gEventMons
$LN63@gEventMons:

; 4058 : 		else if ( lpObj->Level < 84 )

  00654	66 83 f8 54	 cmp	 ax, 84			; 00000054H
  00658	7d 07		 jge	 SHORT $LN65@gEventMons

; 4059 : 			level = 4;

  0065a	bf 04 00 00 00	 mov	 edi, 4
  0065f	eb 37		 jmp	 SHORT $LN72@gEventMons
$LN65@gEventMons:

; 4060 : 		else if ( lpObj->Level < 92 )

  00661	66 83 f8 5c	 cmp	 ax, 92			; 0000005cH
  00665	7d 07		 jge	 SHORT $LN67@gEventMons

; 4061 : 			level = 5;

  00667	bf 05 00 00 00	 mov	 edi, 5
  0066c	eb 2a		 jmp	 SHORT $LN72@gEventMons
$LN67@gEventMons:

; 4062 : 		else if ( lpObj->Level < 114 )

  0066e	66 83 f8 72	 cmp	 ax, 114			; 00000072H
  00672	7d 07		 jge	 SHORT $LN69@gEventMons

; 4063 : 			level = 6;

  00674	bf 06 00 00 00	 mov	 edi, 6
  00679	eb 1d		 jmp	 SHORT $LN72@gEventMons
$LN69@gEventMons:

; 4064 : 		else if ( lpObj->Level > 115 && lpObj->Level < MAX_CHAR_LEVEL+1 )

  0067b	66 83 f8 73	 cmp	 ax, 115			; 00000073H
  0067f	0f 8e 06 11 00
	00		 jle	 $LN277@gEventMons
  00685	b9 91 01 00 00	 mov	 ecx, 401		; 00000191H
  0068a	66 3b c1	 cmp	 ax, cx
  0068d	0f 8d f8 10 00
	00		 jge	 $LN277@gEventMons

; 4065 : 			level = 7;

  00693	bf 07 00 00 00	 mov	 edi, 7
$LN72@gEventMons:

; 4066 : 
; 4067 : 		if ( level == 0 )
; 4068 : 			return FALSE;
; 4069 : 
; 4070 : #ifdef __NOVUS__
; 4071 : 		if( level < 7 )
; 4072 : 		{
; 4073 : 			return FALSE;
; 4074 : 		}
; 4075 : #endif
; 4076 : 
; 4077 : 		type = ItemGetNumberMake(14, 29);

  00698	6a 1d		 push	 29			; 0000001dH
  0069a	6a 0e		 push	 14			; 0000000eH
  0069c	e8 00 00 00 00	 call	 ?ItemGetNumberMake@@YAHHH@Z ; ItemGetNumberMake
  006a1	8b d8		 mov	 ebx, eax
  006a3	83 c4 08	 add	 esp, 8

; 4078 : 		int MaxHitUser = gObjMonsterTopHitDamageUser(lpObj);
; 4079 : 
; 4080 : 		if( ItemAttribute[type].MondownFlag != 0 )

  006a6	6b cb 70	 imul	 ecx, ebx, 112
  006a9	80 b9 27 00 00
	00 00		 cmp	 BYTE PTR ?ItemAttribute@@3PAUITEM_ATTRIBUTE@@A[ecx+39], 0
  006b0	74 40		 je	 SHORT $LN367@gEventMons

; 4081 : 		{
; 4082 : 			ItemSerialCreateSend(lpObj->m_Index, lpObj->MapNumber, x, y, type, level, dur,

  006b2	6a 00		 push	 0
  006b4	6a 00		 push	 0
  006b6	6a 00		 push	 0
  006b8	6a 00		 push	 0
  006ba	56		 push	 esi
  006bb	e8 00 00 00 00	 call	 ?gObjMonsterTopHitDamageUser@@YAHPAUOBJECTSTRUCT@@@Z ; gObjMonsterTopHitDamageUser
  006c0	83 c4 04	 add	 esp, 4
  006c3	50		 push	 eax
  006c4	0f b6 86 23 01
	00 00		 movzx	 eax, BYTE PTR [esi+291]
  006cb	6a 00		 push	 0
  006cd	6a 00		 push	 0
  006cf	6a 00		 push	 0
  006d1	6a 01		 push	 1
  006d3	57		 push	 edi
  006d4	53		 push	 ebx
  006d5	ff 75 f4	 push	 DWORD PTR _y$7$[ebp]
  006d8	ff 75 f8	 push	 DWORD PTR _x$7$[ebp]
  006db	50		 push	 eax
  006dc	ff 36		 push	 DWORD PTR [esi]

; 5055 : 				{
; 5056 : 					ItemSerialCreateSend(lpTargetObj->m_Index, lpObj->MapNumber, x, y, type, level, dur,

  006de	e8 00 00 00 00	 call	 ?ItemSerialCreateSend@@YAXHEEEHEEEEEHEEEPAE@Z ; ItemSerialCreateSend
  006e3	83 c4 3c	 add	 esp, 60			; 0000003cH

; 5057 : 						Option1,Option2,Option3, iMaxHitUser, 0, 0);
; 5058 : 					return TRUE;

  006e6	b8 01 00 00 00	 mov	 eax, 1
  006eb	5f		 pop	 edi
  006ec	5e		 pop	 esi
  006ed	5b		 pop	 ebx

; 5066 : }

  006ee	8b e5		 mov	 esp, ebp
  006f0	5d		 pop	 ebp
  006f1	c3		 ret	 0
$LN367@gEventMons:
  006f2	bb 10 27 00 00	 mov	 ebx, 10000		; 00002710H
$LN73@gEventMons:

; 4083 : 				Option1,Option2,Option3, MaxHitUser, 0, 0);
; 4084 : 
; 4085 : 			return TRUE;
; 4086 : 		}
; 4087 : 	}
; 4088 : 
; 4089 : 	if ( (rand()%10000) < g_iMarkOfTheLord )

  006f7	e8 00 00 00 00	 call	 _rand
  006fc	99		 cdq
  006fd	f7 fb		 idiv	 ebx
  006ff	3b 15 00 00 00
	00		 cmp	 edx, DWORD PTR ?g_iMarkOfTheLord@@3HA ; g_iMarkOfTheLord
  00705	7d 38		 jge	 SHORT $LN75@gEventMons

; 4090 : 	{
; 4091 : 		Option1=0;
; 4092 : 		Option2=0;
; 4093 : 		Option3=0;
; 4094 : 		level = 3;
; 4095 : 		dur = 1;
; 4096 : 		x = lpObj->X;
; 4097 : 		y = lpObj->Y;

  00707	0f b6 86 21 01
	00 00		 movzx	 eax, BYTE PTR [esi+289]
  0070e	0f b6 9e 20 01
	00 00		 movzx	 ebx, BYTE PTR [esi+288]

; 4098 : 		type = ItemGetNumberMake(14, 21);

  00715	6a 15		 push	 21			; 00000015H
  00717	6a 0e		 push	 14			; 0000000eH
  00719	c6 45 fc 01	 mov	 BYTE PTR _dur$[ebp], 1
  0071d	89 45 f4	 mov	 DWORD PTR _y$8$[ebp], eax
  00720	e8 00 00 00 00	 call	 ?ItemGetNumberMake@@YAHHH@Z ; ItemGetNumberMake
  00725	8b f8		 mov	 edi, eax
  00727	83 c4 08	 add	 esp, 8

; 4099 : 		int MaxHitUser = gObjMonsterTopHitDamageUser(lpObj);
; 4100 : 		
; 4101 : 		if( ItemAttribute[type].MondownFlag != 0 )

  0072a	6b cf 70	 imul	 ecx, edi, 112
  0072d	80 b9 27 00 00
	00 00		 cmp	 BYTE PTR ?ItemAttribute@@3PAUITEM_ATTRIBUTE@@A[ecx+39], 0
  00734	0f 85 09 fd ff
	ff		 jne	 $LN381@gEventMons
  0073a	bb 10 27 00 00	 mov	 ebx, 10000		; 00002710H
$LN75@gEventMons:

; 4102 : 		{
; 4103 : 			ItemSerialCreateSend(lpObj->m_Index, lpObj->MapNumber, x, y, type, level, dur,
; 4104 : 				Option1,Option2,Option3, MaxHitUser, 0, 0);
; 4105 : 
; 4106 : 			return TRUE;
; 4107 : 		}
; 4108 : 	}
; 4109 : 
; 4110 : 	if ( gIsDropDarkLordItem )

  0073f	83 3d 00 00 00
	00 00		 cmp	 DWORD PTR ?gIsDropDarkLordItem@@3HA, 0 ; gIsDropDarkLordItem
  00746	0f 84 f5 00 00
	00		 je	 $LN85@gEventMons

; 4111 : 	{
; 4112 : 		if ( lpObj->Level >= gSleeveOfLordDropLevel )

  0074c	0f bf 86 96 00
	00 00		 movsx	 eax, WORD PTR [esi+150]
  00753	3b 05 00 00 00
	00		 cmp	 eax, DWORD PTR ?gSleeveOfLordDropLevel@@3HA ; gSleeveOfLordDropLevel
  00759	7c 4d		 jl	 SHORT $LN79@gEventMons

; 4113 : 		{
; 4114 : 			if ( (rand()%10000) < gSleeveOfLordDropRate)

  0075b	e8 00 00 00 00	 call	 _rand
  00760	99		 cdq
  00761	f7 fb		 idiv	 ebx
  00763	3b 15 00 00 00
	00		 cmp	 edx, DWORD PTR ?gSleeveOfLordDropRate@@3HA ; gSleeveOfLordDropRate
  00769	7d 3d		 jge	 SHORT $LN79@gEventMons

; 4115 : 			{
; 4116 : 				type = ItemGetNumberMake(13,14);

  0076b	6a 0e		 push	 14			; 0000000eH
  0076d	6a 0d		 push	 13			; 0000000dH
  0076f	e8 00 00 00 00	 call	 ?ItemGetNumberMake@@YAHHH@Z ; ItemGetNumberMake
  00774	8b f8		 mov	 edi, eax
  00776	83 c4 08	 add	 esp, 8

; 4117 : 				level = 1;
; 4118 : 				x = lpObj->X;
; 4119 : 				y = lpObj->Y;
; 4120 : 				int MaxHitUser = gObjMonsterTopHitDamageUser(lpObj);
; 4121 : 				
; 4122 : 				if( ItemAttribute[type].MondownFlag != 0 )

  00779	6b cf 70	 imul	 ecx, edi, 112
  0077c	80 b9 27 00 00
	00 00		 cmp	 BYTE PTR ?ItemAttribute@@3PAUITEM_ATTRIBUTE@@A[ecx+39], 0
  00783	74 23		 je	 SHORT $LN79@gEventMons
$LN379@gEventMons:

; 4123 : 				{
; 4124 : 					ItemSerialCreateSend(lpObj->m_Index, lpObj->MapNumber, x, y, type, level, dur,

  00785	6a 00		 push	 0
  00787	6a 00		 push	 0
  00789	6a 00		 push	 0
  0078b	6a 00		 push	 0
  0078d	56		 push	 esi
  0078e	e8 00 00 00 00	 call	 ?gObjMonsterTopHitDamageUser@@YAHPAUOBJECTSTRUCT@@@Z ; gObjMonsterTopHitDamageUser
  00793	83 c4 04	 add	 esp, 4
  00796	50		 push	 eax
  00797	6a 00		 push	 0
  00799	6a 00		 push	 0
  0079b	6a 00		 push	 0
  0079d	ff 75 fc	 push	 DWORD PTR _dur$[ebp]
  007a0	6a 01		 push	 1
  007a2	57		 push	 edi

; 4125 : 						Option1,Option2,Option3, MaxHitUser, 0, 0);
; 4126 : 					return TRUE;

  007a3	e9 9c f9 ff ff	 jmp	 $LN373@gEventMons
$LN79@gEventMons:

; 4127 : 				}
; 4128 : 			}
; 4129 : 		}
; 4130 : 
; 4131 : 		if ( lpObj->Level >= gSoulOfDarkHorseropLevel )

  007a8	0f bf 86 96 00
	00 00		 movsx	 eax, WORD PTR [esi+150]
  007af	3b 05 00 00 00
	00		 cmp	 eax, DWORD PTR ?gSoulOfDarkHorseropLevel@@3HA ; gSoulOfDarkHorseropLevel
  007b5	7c 4d		 jl	 SHORT $LN82@gEventMons

; 4132 : 		{
; 4133 : 			if ( (rand()%10000) < gSoulOfDarkHorseDropRate)

  007b7	e8 00 00 00 00	 call	 _rand
  007bc	99		 cdq
  007bd	f7 fb		 idiv	 ebx
  007bf	3b 15 00 00 00
	00		 cmp	 edx, DWORD PTR ?gSoulOfDarkHorseDropRate@@3HA ; gSoulOfDarkHorseDropRate
  007c5	7d 3d		 jge	 SHORT $LN82@gEventMons

; 4134 : 			{
; 4135 : 				type = ItemGetNumberMake(13,31);

  007c7	6a 1f		 push	 31			; 0000001fH
  007c9	6a 0d		 push	 13			; 0000000dH
  007cb	e8 00 00 00 00	 call	 ?ItemGetNumberMake@@YAHHH@Z ; ItemGetNumberMake
  007d0	8b f8		 mov	 edi, eax
  007d2	83 c4 08	 add	 esp, 8

; 4136 : 				level = 0;
; 4137 : 				x = lpObj->X;
; 4138 : 				y = lpObj->Y;
; 4139 : 				int MaxHitUser = gObjMonsterTopHitDamageUser(lpObj);
; 4140 : 				
; 4141 : 				if( ItemAttribute[type].MondownFlag != 0 )

  007d5	6b cf 70	 imul	 ecx, edi, 112
  007d8	80 b9 27 00 00
	00 00		 cmp	 BYTE PTR ?ItemAttribute@@3PAUITEM_ATTRIBUTE@@A[ecx+39], 0
  007df	74 23		 je	 SHORT $LN82@gEventMons
$LN380@gEventMons:

; 4142 : 				{
; 4143 : 					ItemSerialCreateSend(lpObj->m_Index, lpObj->MapNumber, x, y, type, level, dur,

  007e1	6a 00		 push	 0
  007e3	6a 00		 push	 0
  007e5	6a 00		 push	 0
  007e7	6a 00		 push	 0
  007e9	56		 push	 esi
  007ea	e8 00 00 00 00	 call	 ?gObjMonsterTopHitDamageUser@@YAHPAUOBJECTSTRUCT@@@Z ; gObjMonsterTopHitDamageUser
  007ef	83 c4 04	 add	 esp, 4
  007f2	50		 push	 eax
  007f3	6a 00		 push	 0
  007f5	6a 00		 push	 0
  007f7	6a 00		 push	 0
  007f9	ff 75 fc	 push	 DWORD PTR _dur$[ebp]
  007fc	6a 00		 push	 0
  007fe	57		 push	 edi

; 4144 : 						Option1,Option2,Option3, MaxHitUser, 0, 0);
; 4145 : 
; 4146 : 					return TRUE;

  007ff	e9 40 f9 ff ff	 jmp	 $LN373@gEventMons
$LN82@gEventMons:

; 4147 : 				}
; 4148 : 			}
; 4149 : 		}
; 4150 : 
; 4151 : 		if ( lpObj->Level >= gSoulOfDarkSpiritDropLevel )

  00804	0f bf 86 96 00
	00 00		 movsx	 eax, WORD PTR [esi+150]
  0080b	3b 05 00 00 00
	00		 cmp	 eax, DWORD PTR ?gSoulOfDarkSpiritDropLevel@@3HA ; gSoulOfDarkSpiritDropLevel
  00811	7c 2e		 jl	 SHORT $LN85@gEventMons

; 4152 : 		{
; 4153 : 			if ( (rand()%10000) < gSoulOfDarkSpiritDropRate )

  00813	e8 00 00 00 00	 call	 _rand
  00818	99		 cdq
  00819	f7 fb		 idiv	 ebx
  0081b	3b 15 00 00 00
	00		 cmp	 edx, DWORD PTR ?gSoulOfDarkSpiritDropRate@@3HA ; gSoulOfDarkSpiritDropRate
  00821	7d 1e		 jge	 SHORT $LN85@gEventMons

; 4154 : 			{
; 4155 : 				type = ItemGetNumberMake(13,31);

  00823	6a 1f		 push	 31			; 0000001fH
  00825	6a 0d		 push	 13			; 0000000dH
  00827	e8 00 00 00 00	 call	 ?ItemGetNumberMake@@YAHHH@Z ; ItemGetNumberMake
  0082c	8b f8		 mov	 edi, eax
  0082e	83 c4 08	 add	 esp, 8

; 4156 : 				level = 1;
; 4157 : 				x = lpObj->X;
; 4158 : 				y = lpObj->Y;
; 4159 : 				int MaxHitUser = gObjMonsterTopHitDamageUser(lpObj);
; 4160 : 
; 4161 : 				if( ItemAttribute[type].MondownFlag != 0 )

  00831	6b cf 70	 imul	 ecx, edi, 112
  00834	80 b9 27 00 00
	00 00		 cmp	 BYTE PTR ?ItemAttribute@@3PAUITEM_ATTRIBUTE@@A[ecx+39], 0
  0083b	0f 85 44 ff ff
	ff		 jne	 $LN379@gEventMons
$LN85@gEventMons:

; 4162 : 				{
; 4163 : 					ItemSerialCreateSend(lpObj->m_Index, lpObj->MapNumber, x, y, type, level, dur,
; 4164 : 						Option1,Option2,Option3, MaxHitUser, 0, 0);
; 4165 : 
; 4166 : 					return TRUE;
; 4167 : 				}
; 4168 : 			}
; 4169 : 		}
; 4170 : 	}
; 4171 : 
; 4172 : 	if ( gIsDropGemOfDefend )

  00841	83 3d 00 00 00
	00 00		 cmp	 DWORD PTR ?gIsDropGemOfDefend@@3HA, 0 ; gIsDropGemOfDefend
  00848	74 4b		 je	 SHORT $LN91@gEventMons

; 4173 : 	{
; 4174 : 		if ( lpObj->MapNumber != MAP_INDEX_KALIMA7 && lpObj->MapNumber != MAP_INDEX_CASTLEHUNTZONE )

  0084a	8a 86 23 01 00
	00		 mov	 al, BYTE PTR [esi+291]
  00850	3c 24		 cmp	 al, 36			; 00000024H
  00852	74 04		 je	 SHORT $LN87@gEventMons
  00854	3c 1f		 cmp	 al, 31			; 0000001fH
  00856	75 3d		 jne	 SHORT $LN91@gEventMons
$LN87@gEventMons:

; 4175 : 		{
; 4176 : 		}
; 4177 : 		else
; 4178 : 		{
; 4179 : 			if ( lpObj->Level >= gGemOfDefendDropLevel )

  00858	0f bf 86 96 00
	00 00		 movsx	 eax, WORD PTR [esi+150]
  0085f	3b 05 00 00 00
	00		 cmp	 eax, DWORD PTR ?gGemOfDefendDropLevel@@3HA ; gGemOfDefendDropLevel
  00865	7c 2e		 jl	 SHORT $LN91@gEventMons

; 4180 : 			{
; 4181 : 				if ( (rand()%10000)< gGemOfDefendDropRate )

  00867	e8 00 00 00 00	 call	 _rand
  0086c	99		 cdq
  0086d	f7 fb		 idiv	 ebx
  0086f	3b 15 00 00 00
	00		 cmp	 edx, DWORD PTR ?gGemOfDefendDropRate@@3HA ; gGemOfDefendDropRate
  00875	7d 1e		 jge	 SHORT $LN91@gEventMons

; 4182 : 				{
; 4183 : 					type = ItemGetNumberMake(14,31);

  00877	6a 1f		 push	 31			; 0000001fH
  00879	6a 0e		 push	 14			; 0000000eH
  0087b	e8 00 00 00 00	 call	 ?ItemGetNumberMake@@YAHHH@Z ; ItemGetNumberMake
  00880	8b f8		 mov	 edi, eax
  00882	83 c4 08	 add	 esp, 8

; 4184 : 					level = 0;
; 4185 : 					x = lpObj->X;
; 4186 : 					y = lpObj->Y;
; 4187 : 					int MaxHitUser = gObjMonsterTopHitDamageUser(lpObj);
; 4188 : 
; 4189 : 					if( ItemAttribute[type].MondownFlag != 0 )

  00885	6b cf 70	 imul	 ecx, edi, 112
  00888	80 b9 27 00 00
	00 00		 cmp	 BYTE PTR ?ItemAttribute@@3PAUITEM_ATTRIBUTE@@A[ecx+39], 0
  0088f	0f 85 4c ff ff
	ff		 jne	 $LN380@gEventMons
$LN91@gEventMons:

; 4190 : 					{
; 4191 : 						ItemSerialCreateSend(lpObj->m_Index, lpObj->MapNumber, x, y, type, level, dur,
; 4192 : 							Option1,Option2,Option3, MaxHitUser, 0, 0);
; 4193 : 
; 4194 : 						return TRUE;
; 4195 : 					}
; 4196 : 				}
; 4197 : 			}
; 4198 : 		}
; 4199 : 	}
; 4200 : 
; 4201 : 	if( lpObj->MapNumber == MAP_INDEX_BARRACKS )

  00895	80 be 23 01 00
	00 29		 cmp	 BYTE PTR [esi+291], 41	; 00000029H
  0089c	75 2e		 jne	 SHORT $LN94@gEventMons

; 4202 : 	{
; 4203 : 		if( rand() % 10000 < g_iStoneOfCondorDropRate )

  0089e	e8 00 00 00 00	 call	 _rand
  008a3	99		 cdq
  008a4	f7 fb		 idiv	 ebx
  008a6	3b 15 00 00 00
	00		 cmp	 edx, DWORD PTR ?g_iStoneOfCondorDropRate@@3HA ; g_iStoneOfCondorDropRate
  008ac	7d 1e		 jge	 SHORT $LN94@gEventMons

; 4204 : 		{
; 4205 : 			type = ItemGetNumberMake(13,52);

  008ae	6a 34		 push	 52			; 00000034H
  008b0	6a 0d		 push	 13			; 0000000dH
  008b2	e8 00 00 00 00	 call	 ?ItemGetNumberMake@@YAHHH@Z ; ItemGetNumberMake
  008b7	8b f8		 mov	 edi, eax
  008b9	83 c4 08	 add	 esp, 8

; 4206 : 			level = 0;
; 4207 : 			x = lpObj->X;
; 4208 : 			y = lpObj->Y;
; 4209 : 
; 4210 : 			int MaxHitUser = gObjMonsterTopHitDamageUser(lpObj);
; 4211 : 
; 4212 : 			if( ItemAttribute[type].MondownFlag != 0 )

  008bc	6b cf 70	 imul	 ecx, edi, 112
  008bf	80 b9 27 00 00
	00 00		 cmp	 BYTE PTR ?ItemAttribute@@3PAUITEM_ATTRIBUTE@@A[ecx+39], 0
  008c6	0f 85 15 ff ff
	ff		 jne	 $LN380@gEventMons
$LN94@gEventMons:

; 4213 : 			{
; 4214 : 				ItemSerialCreateSend(lpObj->m_Index, lpObj->MapNumber, x, y, type, level, dur,
; 4215 : 					Option1,Option2,Option3, MaxHitUser, 0, 0);
; 4216 : 				return TRUE;
; 4217 : 			}
; 4218 : 		}
; 4219 : 	}
; 4220 : 
; 4221 : 	if ( g_bKanturuSpecialItemDropOn )

  008cc	83 3d 00 00 00
	00 00		 cmp	 DWORD PTR ?g_bKanturuSpecialItemDropOn@@3HA, 0 ; g_bKanturuSpecialItemDropOn
  008d3	74 77		 je	 SHORT $LN102@gEventMons

; 4222 : 	{
; 4223 : 		if ( lpObj->MapNumber == MAP_INDEX_KANTURU2 )

  008d5	80 be 23 01 00
	00 26		 cmp	 BYTE PTR [esi+291], 38	; 00000026H
  008dc	75 2e		 jne	 SHORT $LN98@gEventMons

; 4224 : 		{
; 4225 : 			if ( (rand()%10000) < g_iKanturuMoonStoneDropRate )

  008de	e8 00 00 00 00	 call	 _rand
  008e3	99		 cdq
  008e4	f7 fb		 idiv	 ebx
  008e6	3b 15 00 00 00
	00		 cmp	 edx, DWORD PTR ?g_iKanturuMoonStoneDropRate@@3HA ; g_iKanturuMoonStoneDropRate
  008ec	7d 1e		 jge	 SHORT $LN98@gEventMons

; 4226 : 			{
; 4227 : 				type = ItemGetNumberMake(13,38);	// Moon Stone

  008ee	6a 26		 push	 38			; 00000026H
  008f0	6a 0d		 push	 13			; 0000000dH
  008f2	e8 00 00 00 00	 call	 ?ItemGetNumberMake@@YAHHH@Z ; ItemGetNumberMake
  008f7	8b f8		 mov	 edi, eax
  008f9	83 c4 08	 add	 esp, 8

; 4228 : 				level = 0;
; 4229 : 				x = lpObj->X;
; 4230 : 				y = lpObj->Y;
; 4231 : 				int MaxHitUser = gObjMonsterTopHitDamageUser(lpObj);
; 4232 : 
; 4233 : 				if( ItemAttribute[type].MondownFlag != 0 )

  008fc	6b cf 70	 imul	 ecx, edi, 112
  008ff	80 b9 27 00 00
	00 00		 cmp	 BYTE PTR ?ItemAttribute@@3PAUITEM_ATTRIBUTE@@A[ecx+39], 0
  00906	0f 85 d5 fe ff
	ff		 jne	 $LN380@gEventMons
$LN98@gEventMons:

; 4234 : 				{
; 4235 : 					ItemSerialCreateSend(lpObj->m_Index, lpObj->MapNumber, x, y, type, level, dur,
; 4236 : 						Option1,Option2,Option3, MaxHitUser, 0, 0);
; 4237 : 
; 4238 : 					return TRUE;
; 4239 : 				}
; 4240 : 			}
; 4241 : 		}
; 4242 : 
; 4243 : 		if ( lpObj->MapNumber == MAP_INDEX_KANTURU1 ||
; 4244 : 			 lpObj->MapNumber == MAP_INDEX_KANTURU2 ||

  0090c	8a 86 23 01 00
	00		 mov	 al, BYTE PTR [esi+291]
  00912	3c 25		 cmp	 al, 37			; 00000025H
  00914	74 08		 je	 SHORT $LN100@gEventMons
  00916	3c 26		 cmp	 al, 38			; 00000026H
  00918	74 04		 je	 SHORT $LN100@gEventMons
  0091a	3c 27		 cmp	 al, 39			; 00000027H
  0091c	75 2e		 jne	 SHORT $LN102@gEventMons
$LN100@gEventMons:

; 4245 : 			 lpObj->MapNumber == MAP_INDEX_KANTURU_BOSS )
; 4246 : 		{
; 4247 : 			if ( (rand()%10000) < g_iKanturuJewelOfHarmonyDropRate )

  0091e	e8 00 00 00 00	 call	 _rand
  00923	99		 cdq
  00924	f7 fb		 idiv	 ebx
  00926	3b 15 00 00 00
	00		 cmp	 edx, DWORD PTR ?g_iKanturuJewelOfHarmonyDropRate@@3HA ; g_iKanturuJewelOfHarmonyDropRate
  0092c	7d 1e		 jge	 SHORT $LN102@gEventMons

; 4248 : 			{
; 4249 : 				type = ItemGetNumberMake(14,41);

  0092e	6a 29		 push	 41			; 00000029H
  00930	6a 0e		 push	 14			; 0000000eH
  00932	e8 00 00 00 00	 call	 ?ItemGetNumberMake@@YAHHH@Z ; ItemGetNumberMake
  00937	8b f8		 mov	 edi, eax
  00939	83 c4 08	 add	 esp, 8

; 4250 : 				level = 0;
; 4251 : 				x = lpObj->X;
; 4252 : 				y = lpObj->Y;
; 4253 : 				int MaxHitUser = gObjMonsterTopHitDamageUser(lpObj);
; 4254 : 
; 4255 : 				if( ItemAttribute[type].MondownFlag != 0 )

  0093c	6b cf 70	 imul	 ecx, edi, 112
  0093f	80 b9 27 00 00
	00 00		 cmp	 BYTE PTR ?ItemAttribute@@3PAUITEM_ATTRIBUTE@@A[ecx+39], 0
  00946	0f 85 95 fe ff
	ff		 jne	 $LN380@gEventMons
$LN102@gEventMons:

; 4256 : 				{
; 4257 : 					ItemSerialCreateSend(lpObj->m_Index, lpObj->MapNumber, x, y, type, level, dur,
; 4258 : 						Option1,Option2,Option3, MaxHitUser, 0, 0);
; 4259 : 
; 4260 : 					return TRUE;
; 4261 : 				}
; 4262 : 			}
; 4263 : 		}
; 4264 : 	}
; 4265 : 
; 4266 : #if (GS_CASTLE == 1)
; 4267 : 
; 4268 : 
; 4269 : #define TRIAL_ANC_RATE 10000
; 4270 : 
; 4271 : 	if( gIsDropSetItemInCastleHuntZone != FALSE)

  0094c	83 3d 00 00 00
	00 00		 cmp	 DWORD PTR ?gIsDropSetItemInCastleHuntZone@@3HA, 0 ; gIsDropSetItemInCastleHuntZone
  00953	0f 84 a0 00 00
	00		 je	 $LN107@gEventMons

; 4272 : 	{
; 4273 : 
; 4274 : 		if( lpObj->MapNumber != MAP_INDEX_CASTLEHUNTZONE )

  00959	80 be 23 01 00
	00 1f		 cmp	 BYTE PTR [esi+291], 31	; 0000001fH
  00960	0f 85 93 00 00
	00		 jne	 $LN107@gEventMons

; 4275 : 		{
; 4276 : 		}
; 4277 : 		else
; 4278 : 		{
; 4279 : 			if( lpObj->Level >= gSetItemInCastleHuntZoneDropLevel &&

  00966	0f bf 86 96 00
	00 00		 movsx	 eax, WORD PTR [esi+150]
  0096d	3b 05 00 00 00
	00		 cmp	 eax, DWORD PTR ?gSetItemInCastleHuntZoneDropLevel@@3HA ; gSetItemInCastleHuntZoneDropLevel
  00973	0f 8c 80 00 00
	00		 jl	 $LN107@gEventMons
  00979	e8 00 00 00 00	 call	 _rand
  0097e	99		 cdq
  0097f	f7 fb		 idiv	 ebx
  00981	3b 15 00 00 00
	00		 cmp	 edx, DWORD PTR ?gSetItemInCastleHuntZoneDropRate@@3HA ; gSetItemInCastleHuntZoneDropRate
  00987	7d 70		 jge	 SHORT $LN107@gEventMons

; 4280 : 				rand() % TRIAL_ANC_RATE < gSetItemInCastleHuntZoneDropRate )
; 4281 : 			{
; 4282 : 				int MaxHitUser = gObjMonsterTopHitDamageUser(lpObj);

  00989	56		 push	 esi
  0098a	e8 00 00 00 00	 call	 ?gObjMonsterTopHitDamageUser@@YAHPAUOBJECTSTRUCT@@@Z ; gObjMonsterTopHitDamageUser
  0098f	8b f8		 mov	 edi, eax
  00991	83 c4 04	 add	 esp, 4

; 4283 : 
; 4284 : 				if(OBJMAX_RANGE(MaxHitUser) != FALSE)

  00994	85 ff		 test	 edi, edi
  00996	78 61		 js	 SHORT $LN107@gEventMons
  00998	33 c9		 xor	 ecx, ecx
  0099a	81 ff eb 2c 00
	00		 cmp	 edi, 11499		; 00002cebH
  009a0	0f 9e c1	 setle	 cl
  009a3	85 c9		 test	 ecx, ecx
  009a5	74 52		 je	 SHORT $LN107@gEventMons

; 4285 : 				{
; 4286 : 					LogAddTD("[Castle HuntZone] Drop SetItem [%s][%s]",gObj[MaxHitUser].AccountID,gObj[MaxHitUser].Name);

  009a7	8b 0d 00 00 00
	00		 mov	 ecx, DWORD PTR ?gObj@@3PAUOBJECTSTRUCT@@A ; gObj
  009ad	69 d7 40 27 00
	00		 imul	 edx, edi, 10048
  009b3	8d 41 5d	 lea	 eax, DWORD PTR [ecx+93]
  009b6	03 c2		 add	 eax, edx
  009b8	50		 push	 eax
  009b9	8d 41 52	 lea	 eax, DWORD PTR [ecx+82]
  009bc	03 c2		 add	 eax, edx
  009be	50		 push	 eax
  009bf	68 00 00 00 00	 push	 OFFSET ??_C@_0CI@JDPIHCJH@?$FLCastle?5HuntZone?$FN?5Drop?5SetItem?5?$FL@
  009c4	ff 15 00 00 00
	00		 call	 DWORD PTR ?LogAddTD@@3P6AXPADZZA ; LogAddTD

; 4287 : 					MakeRewardSetItem(MaxHitUser,lpObj->X,lpObj->Y,0,lpObj->MapNumber);

  009ca	0f b6 86 23 01
	00 00		 movzx	 eax, BYTE PTR [esi+291]
  009d1	50		 push	 eax
  009d2	0f b6 86 21 01
	00 00		 movzx	 eax, BYTE PTR [esi+289]
  009d9	6a 00		 push	 0
  009db	50		 push	 eax
  009dc	0f b6 86 20 01
	00 00		 movzx	 eax, BYTE PTR [esi+288]
  009e3	50		 push	 eax
  009e4	57		 push	 edi
  009e5	e8 00 00 00 00	 call	 ?MakeRewardSetItem@@YAXHEEHH@Z ; MakeRewardSetItem
  009ea	83 c4 20	 add	 esp, 32			; 00000020H
  009ed	b8 01 00 00 00	 mov	 eax, 1
  009f2	5f		 pop	 edi
  009f3	5e		 pop	 esi
  009f4	5b		 pop	 ebx

; 5066 : }

  009f5	8b e5		 mov	 esp, ebp
  009f7	5d		 pop	 ebp
  009f8	c3		 ret	 0
$LN107@gEventMons:

; 4288 : 					return TRUE;
; 4289 : 				}
; 4290 : 			}
; 4291 : 		}
; 4292 : 	}
; 4293 : 
; 4294 : #endif
; 4295 : 
; 4296 : 	if ( lpObj->MapNumber == MAP_INDEX_AIDA || lpObj->MapNumber == MAP_INDEX_CRYWOLF_FIRSTZONE)

  009f9	8a 86 23 01 00
	00		 mov	 al, BYTE PTR [esi+291]
  009ff	3c 21		 cmp	 al, 33			; 00000021H
  00a01	74 04		 je	 SHORT $LN109@gEventMons
  00a03	3c 22		 cmp	 al, 34			; 00000022H
  00a05	75 5d		 jne	 SHORT $LN115@gEventMons
$LN109@gEventMons:

; 4297 : 	{
; 4298 : 		bool bDropMysteriousBead = false;
; 4299 : 
; 4300 : 		switch ( lpObj->Class )

  00a07	0f b7 86 90 00
	00 00		 movzx	 eax, WORD PTR [esi+144]
  00a0e	05 d0 fe ff ff	 add	 eax, -304		; fffffed0H
  00a13	83 f8 09	 cmp	 eax, 9
  00a16	77 4c		 ja	 SHORT $LN115@gEventMons
  00a18	0f b6 80 00 00
	00 00		 movzx	 eax, BYTE PTR $LN319@gEventMons[eax]
  00a1f	ff 24 85 00 00
	00 00		 jmp	 DWORD PTR $LN396@gEventMons[eax*4]
$LN110@gEventMons:

; 4301 : 		{
; 4302 : 			case 304:	case 305:	case 306:
; 4303 : 			case 307:	case 308:	case 309:
; 4304 : 				if ( (rand()%10000) < g_iMysteriousBeadDropRate1 )

  00a26	e8 00 00 00 00	 call	 _rand
  00a2b	99		 cdq
  00a2c	f7 fb		 idiv	 ebx
  00a2e	3b 15 00 00 00
	00		 cmp	 edx, DWORD PTR ?g_iMysteriousBeadDropRate1@@3HA ; g_iMysteriousBeadDropRate1

; 4305 : 					bDropMysteriousBead = true;
; 4306 : 				break;

  00a34	eb 0e		 jmp	 SHORT $LN370@gEventMons
$LN112@gEventMons:

; 4307 : 
; 4308 : 			case 310:	case 311:	case 312:	case 313:
; 4309 : 				if ( (rand()%10000) < g_iMysteriousBeadDropRate2 )

  00a36	e8 00 00 00 00	 call	 _rand
  00a3b	99		 cdq
  00a3c	f7 fb		 idiv	 ebx
  00a3e	3b 15 00 00 00
	00		 cmp	 edx, DWORD PTR ?g_iMysteriousBeadDropRate2@@3HA ; g_iMysteriousBeadDropRate2
$LN370@gEventMons:
  00a44	7d 1e		 jge	 SHORT $LN115@gEventMons

; 4310 : 					bDropMysteriousBead = true;
; 4311 : 				break;
; 4312 : 		}
; 4313 : 
; 4314 : 		if ( bDropMysteriousBead == true )
; 4315 : 		{
; 4316 : 			type = ItemGetNumberMake(12,26);

  00a46	6a 1a		 push	 26			; 0000001aH
  00a48	6a 0c		 push	 12			; 0000000cH
  00a4a	e8 00 00 00 00	 call	 ?ItemGetNumberMake@@YAHHH@Z ; ItemGetNumberMake
  00a4f	8b f8		 mov	 edi, eax
  00a51	83 c4 08	 add	 esp, 8

; 4317 : 			level = 0;
; 4318 : 			x = lpObj->X;
; 4319 : 			y = lpObj->Y;
; 4320 : 			int MaxHitUser = gObjMonsterTopHitDamageUser(lpObj);
; 4321 : 
; 4322 : 			if( ItemAttribute[type].MondownFlag != 0 )

  00a54	6b cf 70	 imul	 ecx, edi, 112
  00a57	80 b9 27 00 00
	00 00		 cmp	 BYTE PTR ?ItemAttribute@@3PAUITEM_ATTRIBUTE@@A[ecx+39], 0
  00a5e	0f 85 7d fd ff
	ff		 jne	 $LN380@gEventMons
$LN115@gEventMons:

; 4323 : 			{
; 4324 : 				ItemSerialCreateSend(lpObj->m_Index, lpObj->MapNumber, x, y, type, level, dur,
; 4325 : 					Option1,Option2,Option3, MaxHitUser, 0, 0);
; 4326 : 
; 4327 : 				return TRUE;
; 4328 : 			}
; 4329 : 		}
; 4330 : 	}
; 4331 : 
; 4332 : 	if ( gDevilSquareEvent )

  00a64	83 3d 00 00 00
	00 00		 cmp	 DWORD PTR ?gDevilSquareEvent@@3HA, 0 ; gDevilSquareEvent
  00a6b	0f 84 be 00 00
	00		 je	 $LN121@gEventMons

; 4333 : 	{
; 4334 : 		if( DS_MAP_RANGE( lpObj->MapNumber ) == FALSE )

  00a71	8a 8e 23 01 00
	00		 mov	 cl, BYTE PTR [esi+291]
  00a77	80 f9 09	 cmp	 cl, 9
  00a7a	0f 84 af 00 00
	00		 je	 $LN121@gEventMons
  00a80	33 c0		 xor	 eax, eax
  00a82	80 f9 20	 cmp	 cl, 32			; 00000020H
  00a85	0f 94 c0	 sete	 al
  00a88	85 c0		 test	 eax, eax
  00a8a	0f 85 9f 00 00
	00		 jne	 $LN121@gEventMons

; 4335 : 		{
; 4336 : 			if( rand() % 10000 <  g_iML_EyesOfDevilSquareDropRate &&

  00a90	e8 00 00 00 00	 call	 _rand
  00a95	99		 cdq
  00a96	f7 fb		 idiv	 ebx
  00a98	3b 15 00 00 00
	00		 cmp	 edx, DWORD PTR ?g_iML_EyesOfDevilSquareDropRate@@3HA ; g_iML_EyesOfDevilSquareDropRate
  00a9e	7d 42		 jge	 SHORT $LN119@gEventMons
  00aa0	66 83 be 96 00
	00 00 5a	 cmp	 WORD PTR [esi+150], 90	; 0000005aH
  00aa8	7c 38		 jl	 SHORT $LN119@gEventMons

; 4337 : 				lpObj->Level >= 90 )
; 4338 : 			{
; 4339 : 				Option1 = 0;
; 4340 : 				Option2 = 0;
; 4341 : 				Option3 = 0;
; 4342 : 				dur = 1;
; 4343 : 				level = 7;
; 4344 : 				x = lpObj->X;
; 4345 : 				y = lpObj->Y;

  00aaa	0f b6 86 21 01
	00 00		 movzx	 eax, BYTE PTR [esi+289]
  00ab1	0f b6 9e 20 01
	00 00		 movzx	 ebx, BYTE PTR [esi+288]

; 4346 : 				type = ItemGetNumberMake(14,17);

  00ab8	6a 11		 push	 17			; 00000011H
  00aba	6a 0e		 push	 14			; 0000000eH
  00abc	c6 45 fc 01	 mov	 BYTE PTR _dur$[ebp], 1
  00ac0	89 45 f4	 mov	 DWORD PTR _y$9$[ebp], eax
  00ac3	e8 00 00 00 00	 call	 ?ItemGetNumberMake@@YAHHH@Z ; ItemGetNumberMake
  00ac8	8b f8		 mov	 edi, eax
  00aca	83 c4 08	 add	 esp, 8

; 4347 : 
; 4348 : 				int MaxHitUser = gObjMonsterTopHitDamageUser(lpObj);
; 4349 : 
; 4350 : 				if( ItemAttribute[type].MondownFlag != 0 )

  00acd	6b cf 70	 imul	 ecx, edi, 112
  00ad0	80 b9 27 00 00
	00 00		 cmp	 BYTE PTR ?ItemAttribute@@3PAUITEM_ATTRIBUTE@@A[ecx+39], 0
  00ad7	0f 85 e8 fa ff
	ff		 jne	 $LN382@gEventMons
  00add	bb 10 27 00 00	 mov	 ebx, 10000		; 00002710H
$LN119@gEventMons:

; 4351 : 				{
; 4352 : 					ItemSerialCreateSend(lpObj->m_Index, lpObj->MapNumber, x, y, type, level, dur,
; 4353 : 						Option1,Option2,Option3, MaxHitUser, 0, 0);
; 4354 : 					return TRUE;
; 4355 : 				}
; 4356 : 			}
; 4357 : 
; 4358 : 			if( rand() % 10000 < g_iML_KeyOfDevilSquareDropRate &&

  00ae2	e8 00 00 00 00	 call	 _rand
  00ae7	99		 cdq
  00ae8	f7 fb		 idiv	 ebx
  00aea	3b 15 00 00 00
	00		 cmp	 edx, DWORD PTR ?g_iML_KeyOfDevilSquareDropRate@@3HA ; g_iML_KeyOfDevilSquareDropRate
  00af0	7d 3d		 jge	 SHORT $LN121@gEventMons
  00af2	66 83 be 96 00
	00 00 5a	 cmp	 WORD PTR [esi+150], 90	; 0000005aH
  00afa	7c 33		 jl	 SHORT $LN121@gEventMons

; 4359 : 				lpObj->Level >= 90 )
; 4360 : 			{
; 4361 : 				Option1 = 0;
; 4362 : 				Option2 = 0;
; 4363 : 				Option3 = 0;
; 4364 : 				dur = 1;
; 4365 : 				level = 7;
; 4366 : 				x = lpObj->X;
; 4367 : 				y = lpObj->Y;

  00afc	0f b6 86 21 01
	00 00		 movzx	 eax, BYTE PTR [esi+289]
  00b03	0f b6 9e 20 01
	00 00		 movzx	 ebx, BYTE PTR [esi+288]

; 4368 : 				type = ItemGetNumberMake(14,18);

  00b0a	6a 12		 push	 18			; 00000012H
  00b0c	6a 0e		 push	 14			; 0000000eH
  00b0e	c6 45 fc 01	 mov	 BYTE PTR _dur$[ebp], 1
  00b12	89 45 f4	 mov	 DWORD PTR _y$10$[ebp], eax
  00b15	e8 00 00 00 00	 call	 ?ItemGetNumberMake@@YAHHH@Z ; ItemGetNumberMake
  00b1a	8b f8		 mov	 edi, eax
  00b1c	83 c4 08	 add	 esp, 8

; 4369 : 
; 4370 : 				int MaxHitUser = gObjMonsterTopHitDamageUser(lpObj);
; 4371 : 
; 4372 : 				if( ItemAttribute[type].MondownFlag != 0 )

  00b1f	6b cf 70	 imul	 ecx, edi, 112
  00b22	80 b9 27 00 00
	00 00		 cmp	 BYTE PTR ?ItemAttribute@@3PAUITEM_ATTRIBUTE@@A[ecx+39], 0
  00b29	0f 85 96 fa ff
	ff		 jne	 $LN382@gEventMons
$LN121@gEventMons:

; 4373 : 				{
; 4374 : 					ItemSerialCreateSend(lpObj->m_Index, lpObj->MapNumber, x, y, type, level, dur,
; 4375 : 						Option1,Option2,Option3, MaxHitUser, 0, 0);
; 4376 : 					return TRUE;
; 4377 : 				}
; 4378 : 			}
; 4379 : 		}
; 4380 : 	}
; 4381 : 
; 4382 : 	if ( g_bIllusionTemple )

  00b2f	83 3d 00 00 00
	00 00		 cmp	 DWORD PTR ?g_bIllusionTemple@@3HA, 0 ; g_bIllusionTemple
  00b36	0f 84 db 00 00
	00		 je	 $LN352@gEventMons

; 4383 : 	{
; 4384 : 		if( IT_MAP_RANGE( lpObj->MapNumber ) == FALSE )

  00b3c	8a 86 23 01 00
	00		 mov	 al, BYTE PTR [esi+291]
  00b42	3c 2d		 cmp	 al, 45			; 0000002dH
  00b44	72 0f		 jb	 SHORT $LN307@gEventMons
  00b46	b1 32		 mov	 cl, 50			; 00000032H
  00b48	3a c8		 cmp	 cl, al
  00b4a	1b c0		 sbb	 eax, eax
  00b4c	83 c0 01	 add	 eax, 1
  00b4f	0f 85 c2 00 00
	00		 jne	 $LN352@gEventMons
$LN307@gEventMons:

; 4385 : 		{
; 4386 : 			if( rand() % 10000 < g_iML_OldScrollDropRate &&

  00b55	e8 00 00 00 00	 call	 _rand
  00b5a	99		 cdq
  00b5b	bb 10 27 00 00	 mov	 ebx, 10000		; 00002710H
  00b60	f7 fb		 idiv	 ebx
  00b62	3b 15 00 00 00
	00		 cmp	 edx, DWORD PTR ?g_iML_OldScrollDropRate@@3HA ; g_iML_OldScrollDropRate
  00b68	7d 64		 jge	 SHORT $LN125@gEventMons
  00b6a	66 83 be 96 00
	00 00 60	 cmp	 WORD PTR [esi+150], 96	; 00000060H
  00b72	7c 5a		 jl	 SHORT $LN125@gEventMons

; 4387 : 				lpObj->Level >= 96 )
; 4388 : 			{
; 4389 : 				Option1 = 0;
; 4390 : 				Option2 = 0;
; 4391 : 				Option3 = 0;
; 4392 : 				dur = 0;
; 4393 : 				level = 6;
; 4394 : 				x = lpObj->X;
; 4395 : 				y = lpObj->Y;

  00b74	0f b6 86 21 01
	00 00		 movzx	 eax, BYTE PTR [esi+289]
  00b7b	0f b6 9e 20 01
	00 00		 movzx	 ebx, BYTE PTR [esi+288]

; 4396 : 				type = ItemGetNumberMake(13,49);

  00b82	6a 31		 push	 49			; 00000031H
  00b84	6a 0d		 push	 13			; 0000000dH
  00b86	c6 45 fc 00	 mov	 BYTE PTR _dur$[ebp], 0
  00b8a	89 45 f4	 mov	 DWORD PTR _y$11$[ebp], eax
  00b8d	e8 00 00 00 00	 call	 ?ItemGetNumberMake@@YAHHH@Z ; ItemGetNumberMake
  00b92	8b f8		 mov	 edi, eax
  00b94	83 c4 08	 add	 esp, 8

; 4397 : 
; 4398 : 				int MaxHitUser = gObjMonsterTopHitDamageUser(lpObj);
; 4399 : 
; 4400 : 				if( ItemAttribute[type].MondownFlag != 0 )

  00b97	6b cf 70	 imul	 ecx, edi, 112
  00b9a	80 b9 27 00 00
	00 00		 cmp	 BYTE PTR ?ItemAttribute@@3PAUITEM_ATTRIBUTE@@A[ecx+39], 0
  00ba1	74 26		 je	 SHORT $LN353@gEventMons
$LN383@gEventMons:

; 4401 : 				{
; 4402 : 					ItemSerialCreateSend(lpObj->m_Index, lpObj->MapNumber, x, y, type, level, dur,

  00ba3	6a 00		 push	 0
  00ba5	6a 00		 push	 0
  00ba7	6a 00		 push	 0
  00ba9	6a 00		 push	 0
  00bab	56		 push	 esi
  00bac	e8 00 00 00 00	 call	 ?gObjMonsterTopHitDamageUser@@YAHPAUOBJECTSTRUCT@@@Z ; gObjMonsterTopHitDamageUser
  00bb1	83 c4 04	 add	 esp, 4
  00bb4	50		 push	 eax
  00bb5	6a 00		 push	 0
  00bb7	6a 00		 push	 0
  00bb9	6a 00		 push	 0
  00bbb	6a 00		 push	 0
  00bbd	6a 06		 push	 6
  00bbf	57		 push	 edi
  00bc0	ff 75 f4	 push	 DWORD PTR _y$11$[ebp]
  00bc3	53		 push	 ebx

; 4403 : 						Option1,Option2,Option3, MaxHitUser, 0, 0);
; 4404 : 					return TRUE;

  00bc4	e9 8b f5 ff ff	 jmp	 $LN374@gEventMons
$LN353@gEventMons:
  00bc9	bb 10 27 00 00	 mov	 ebx, 10000		; 00002710H
$LN125@gEventMons:

; 4405 : 				}
; 4406 : 			}
; 4407 : 
; 4408 : 			if( rand() % 10000 < g_iML_CovenantOfIllusionDropRate &&

  00bce	e8 00 00 00 00	 call	 _rand
  00bd3	99		 cdq
  00bd4	f7 fb		 idiv	 ebx
  00bd6	3b 15 00 00 00
	00		 cmp	 edx, DWORD PTR ?g_iML_CovenantOfIllusionDropRate@@3HA ; g_iML_CovenantOfIllusionDropRate
  00bdc	7d 3e		 jge	 SHORT $LN127@gEventMons
  00bde	66 83 be 96 00
	00 00 60	 cmp	 WORD PTR [esi+150], 96	; 00000060H
  00be6	7c 34		 jl	 SHORT $LN127@gEventMons

; 4409 : 				lpObj->Level >= 96 )
; 4410 : 			{
; 4411 : 				Option1 = 0;
; 4412 : 				Option2 = 0;
; 4413 : 				Option3 = 0;
; 4414 : 				dur = 0;
; 4415 : 				level = 6;
; 4416 : 				x = lpObj->X;
; 4417 : 				y = lpObj->Y;

  00be8	0f b6 86 21 01
	00 00		 movzx	 eax, BYTE PTR [esi+289]
  00bef	0f b6 9e 20 01
	00 00		 movzx	 ebx, BYTE PTR [esi+288]

; 4418 : 				type = ItemGetNumberMake(13,50);

  00bf6	6a 32		 push	 50			; 00000032H
  00bf8	6a 0d		 push	 13			; 0000000dH
  00bfa	c6 45 fc 00	 mov	 BYTE PTR _dur$[ebp], 0
  00bfe	89 45 f4	 mov	 DWORD PTR _y$12$[ebp], eax
  00c01	e8 00 00 00 00	 call	 ?ItemGetNumberMake@@YAHHH@Z ; ItemGetNumberMake
  00c06	8b f8		 mov	 edi, eax
  00c08	83 c4 08	 add	 esp, 8

; 4419 : 
; 4420 : 				int MaxHitUser = gObjMonsterTopHitDamageUser(lpObj);
; 4421 : 
; 4422 : 				if( ItemAttribute[type].MondownFlag != 0 )

  00c0b	6b cf 70	 imul	 ecx, edi, 112
  00c0e	80 b9 27 00 00
	00 00		 cmp	 BYTE PTR ?ItemAttribute@@3PAUITEM_ATTRIBUTE@@A[ecx+39], 0
  00c15	75 8c		 jne	 SHORT $LN383@gEventMons
$LN352@gEventMons:
  00c17	bb 10 27 00 00	 mov	 ebx, 10000		; 00002710H
$LN127@gEventMons:

; 4423 : 				{
; 4424 : 					ItemSerialCreateSend(lpObj->m_Index, lpObj->MapNumber, x, y, type, level, dur,
; 4425 : 						Option1,Option2,Option3, MaxHitUser, 0, 0);
; 4426 : 					return TRUE;
; 4427 : 				}
; 4428 : 			}
; 4429 : 		}
; 4430 : 	}
; 4431 : 
; 4432 : 	if ( g_bBloodCastle )

  00c1c	8b 0d 00 00 00
	00		 mov	 ecx, DWORD PTR ?g_bBloodCastle@@3HA ; g_bBloodCastle
  00c22	85 c9		 test	 ecx, ecx
  00c24	0f 84 8e 02 00
	00		 je	 $LN169@gEventMons

; 4433 : 	{
; 4434 : 		if( BC_MAP_RANGE( lpObj->MapNumber ) == FALSE )

  00c2a	8a 86 23 01 00
	00		 mov	 al, BYTE PTR [esi+291]
  00c30	3c 34		 cmp	 al, 52			; 00000034H
  00c32	0f 84 db 00 00
	00		 je	 $LN133@gEventMons
  00c38	3c 0b		 cmp	 al, 11			; 0000000bH
  00c3a	72 0f		 jb	 SHORT $LN308@gEventMons
  00c3c	b2 11		 mov	 dl, 17			; 00000011H
  00c3e	3a d0		 cmp	 dl, al
  00c40	1b c0		 sbb	 eax, eax
  00c42	83 c0 01	 add	 eax, 1
  00c45	0f 85 c8 00 00
	00		 jne	 $LN133@gEventMons
$LN308@gEventMons:

; 4435 : 		{
; 4436 : 			if( rand() % 10000 < g_iML_AngelKingsPaperDropRate &&

  00c4b	e8 00 00 00 00	 call	 _rand
  00c50	99		 cdq
  00c51	f7 fb		 idiv	 ebx
  00c53	3b 15 00 00 00
	00		 cmp	 edx, DWORD PTR ?g_iML_AngelKingsPaperDropRate@@3HA ; g_iML_AngelKingsPaperDropRate
  00c59	7d 64		 jge	 SHORT $LN131@gEventMons
  00c5b	66 83 be 96 00
	00 00 5a	 cmp	 WORD PTR [esi+150], 90	; 0000005aH
  00c63	7c 5a		 jl	 SHORT $LN131@gEventMons

; 4437 : 				lpObj->Level >= 90 )
; 4438 : 			{
; 4439 : 				Option1 = 0;
; 4440 : 				Option2 = 0;
; 4441 : 				Option3 = 0;
; 4442 : 				dur = 1;
; 4443 : 				level = 8;
; 4444 : 				x = lpObj->X;
; 4445 : 				y = lpObj->Y;

  00c65	0f b6 86 21 01
	00 00		 movzx	 eax, BYTE PTR [esi+289]
  00c6c	0f b6 9e 20 01
	00 00		 movzx	 ebx, BYTE PTR [esi+288]

; 4446 : 				type = ItemGetNumberMake(13,16);

  00c73	6a 10		 push	 16			; 00000010H
  00c75	6a 0d		 push	 13			; 0000000dH
  00c77	c6 45 fc 01	 mov	 BYTE PTR _dur$[ebp], 1
  00c7b	89 45 f4	 mov	 DWORD PTR _y$13$[ebp], eax
  00c7e	e8 00 00 00 00	 call	 ?ItemGetNumberMake@@YAHHH@Z ; ItemGetNumberMake
  00c83	8b f8		 mov	 edi, eax
  00c85	83 c4 08	 add	 esp, 8

; 4447 : 
; 4448 : 				int MaxHitUser = gObjMonsterTopHitDamageUser(lpObj);
; 4449 : 
; 4450 : 				if( ItemAttribute[type].MondownFlag != 0 )

  00c88	6b cf 70	 imul	 ecx, edi, 112
  00c8b	80 b9 27 00 00
	00 00		 cmp	 BYTE PTR ?ItemAttribute@@3PAUITEM_ATTRIBUTE@@A[ecx+39], 0
  00c92	74 26		 je	 SHORT $LN349@gEventMons
$LN384@gEventMons:

; 4451 : 				{
; 4452 : 					ItemSerialCreateSend(lpObj->m_Index, lpObj->MapNumber, x, y, type, level, dur,

  00c94	6a 00		 push	 0
  00c96	6a 00		 push	 0
  00c98	6a 00		 push	 0
  00c9a	6a 00		 push	 0
  00c9c	56		 push	 esi
  00c9d	e8 00 00 00 00	 call	 ?gObjMonsterTopHitDamageUser@@YAHPAUOBJECTSTRUCT@@@Z ; gObjMonsterTopHitDamageUser
  00ca2	83 c4 04	 add	 esp, 4
  00ca5	50		 push	 eax
  00ca6	6a 00		 push	 0
  00ca8	6a 00		 push	 0
  00caa	6a 00		 push	 0
  00cac	6a 01		 push	 1
  00cae	6a 08		 push	 8
  00cb0	57		 push	 edi
  00cb1	ff 75 f4	 push	 DWORD PTR _y$13$[ebp]
  00cb4	53		 push	 ebx

; 4453 : 						Option1,Option2,Option3, MaxHitUser, 0, 0);
; 4454 : 					return TRUE;

  00cb5	e9 9a f4 ff ff	 jmp	 $LN374@gEventMons
$LN349@gEventMons:
  00cba	bb 10 27 00 00	 mov	 ebx, 10000		; 00002710H
$LN131@gEventMons:

; 4455 : 				}
; 4456 : 			}
; 4457 : 
; 4458 : 			if( rand() % 10000 < g_iML_BloodBoneDropRate &&

  00cbf	e8 00 00 00 00	 call	 _rand
  00cc4	99		 cdq
  00cc5	f7 fb		 idiv	 ebx
  00cc7	3b 15 00 00 00
	00		 cmp	 edx, DWORD PTR ?g_iML_BloodBoneDropRate@@3HA ; g_iML_BloodBoneDropRate
  00ccd	7d 3e		 jge	 SHORT $LN322@gEventMons
  00ccf	66 83 be 96 00
	00 00 5a	 cmp	 WORD PTR [esi+150], 90	; 0000005aH
  00cd7	7c 34		 jl	 SHORT $LN322@gEventMons

; 4459 : 				lpObj->Level >= 90 )
; 4460 : 			{
; 4461 : 				Option1 = 0;
; 4462 : 				Option2 = 0;
; 4463 : 				Option3 = 0;
; 4464 : 				dur = 1;
; 4465 : 				level = 8;
; 4466 : 				x = lpObj->X;
; 4467 : 				y = lpObj->Y;

  00cd9	0f b6 86 21 01
	00 00		 movzx	 eax, BYTE PTR [esi+289]
  00ce0	0f b6 9e 20 01
	00 00		 movzx	 ebx, BYTE PTR [esi+288]

; 4468 : 				type = ItemGetNumberMake(13,17);

  00ce7	6a 11		 push	 17			; 00000011H
  00ce9	6a 0d		 push	 13			; 0000000dH
  00ceb	c6 45 fc 01	 mov	 BYTE PTR _dur$[ebp], 1
  00cef	89 45 f4	 mov	 DWORD PTR _y$14$[ebp], eax
  00cf2	e8 00 00 00 00	 call	 ?ItemGetNumberMake@@YAHHH@Z ; ItemGetNumberMake
  00cf7	8b f8		 mov	 edi, eax
  00cf9	83 c4 08	 add	 esp, 8

; 4469 : 
; 4470 : 				int MaxHitUser = gObjMonsterTopHitDamageUser(lpObj);
; 4471 : 
; 4472 : 				if( ItemAttribute[type].MondownFlag != 0 )

  00cfc	6b cf 70	 imul	 ecx, edi, 112
  00cff	80 b9 27 00 00
	00 00		 cmp	 BYTE PTR ?ItemAttribute@@3PAUITEM_ATTRIBUTE@@A[ecx+39], 0
  00d06	75 8c		 jne	 SHORT $LN384@gEventMons
  00d08	bb 10 27 00 00	 mov	 ebx, 10000		; 00002710H
$LN322@gEventMons:

; 4473 : 				{
; 4474 : 					ItemSerialCreateSend(lpObj->m_Index, lpObj->MapNumber, x, y, type, level, dur,
; 4475 : 						Option1,Option2,Option3, MaxHitUser, 0, 0);
; 4476 : 					return TRUE;

  00d0d	8b 0d 00 00 00
	00		 mov	 ecx, DWORD PTR ?g_bBloodCastle@@3HA ; g_bBloodCastle
$LN133@gEventMons:

; 4477 : 				}
; 4478 : 			}
; 4479 : 		}
; 4480 : 	}
; 4481 : 
; 4482 : 	if ( g_bBloodCastle )

  00d13	85 c9		 test	 ecx, ecx
  00d15	0f 84 9d 01 00
	00		 je	 $LN169@gEventMons

; 4483 : 	{
; 4484 : 		if ( !BC_MAP_RANGE(lpObj->MapNumber ) )

  00d1b	8a 86 23 01 00
	00		 mov	 al, BYTE PTR [esi+291]
  00d21	3c 34		 cmp	 al, 52			; 00000034H
  00d23	0f 84 8f 01 00
	00		 je	 $LN169@gEventMons
  00d29	3c 0b		 cmp	 al, 11			; 0000000bH
  00d2b	72 0f		 jb	 SHORT $LN309@gEventMons
  00d2d	b1 11		 mov	 cl, 17			; 00000011H
  00d2f	3a c8		 cmp	 cl, al
  00d31	1b c0		 sbb	 eax, eax
  00d33	83 c0 01	 add	 eax, 1
  00d36	0f 85 7c 01 00
	00		 jne	 $LN169@gEventMons
$LN309@gEventMons:

; 4485 : 		{
; 4486 : 			Option1=0;
; 4487 : 			Option2=0;
; 4488 : 			Option3=0;
; 4489 : 
; 4490 : 			if ( (rand()%10000) < g_iAngelKingsPaperDropRate )

  00d3c	e8 00 00 00 00	 call	 _rand
  00d41	99		 cdq
  00d42	f7 fb		 idiv	 ebx
  00d44	3b 15 00 00 00
	00		 cmp	 edx, DWORD PTR ?g_iAngelKingsPaperDropRate@@3HA ; g_iAngelKingsPaperDropRate
  00d4a	0f 8d be 00 00
	00		 jge	 $LN152@gEventMons

; 4491 : 			{
; 4492 : 				dur = 1;
; 4493 : 				x = lpObj->X;

  00d50	0f b6 86 20 01
	00 00		 movzx	 eax, BYTE PTR [esi+288]
  00d57	89 45 f8	 mov	 DWORD PTR _x$15$[ebp], eax

; 4494 : 				y = lpObj->Y;

  00d5a	0f b6 86 21 01
	00 00		 movzx	 eax, BYTE PTR [esi+289]
  00d61	89 45 f4	 mov	 DWORD PTR _y$15$[ebp], eax

; 4495 : 
; 4496 : 				if ( lpObj->Level < 32 )

  00d64	0f b7 86 96 00
	00 00		 movzx	 eax, WORD PTR [esi+150]
  00d6b	c6 45 fc 01	 mov	 BYTE PTR _dur$[ebp], 1
  00d6f	66 83 f8 20	 cmp	 ax, 32			; 00000020H
  00d73	7d 07		 jge	 SHORT $LN137@gEventMons

; 4497 : 					level = 1;

  00d75	bf 01 00 00 00	 mov	 edi, 1
  00d7a	eb 4c		 jmp	 SHORT $LN310@gEventMons
$LN137@gEventMons:

; 4498 : 				else if ( lpObj->Level < 45 )

  00d7c	66 83 f8 2d	 cmp	 ax, 45			; 0000002dH
  00d80	7d 07		 jge	 SHORT $LN139@gEventMons

; 4499 : 					level = 2;

  00d82	bf 02 00 00 00	 mov	 edi, 2
  00d87	eb 3f		 jmp	 SHORT $LN310@gEventMons
$LN139@gEventMons:

; 4500 : 				else if ( lpObj->Level < 57 )

  00d89	66 83 f8 39	 cmp	 ax, 57			; 00000039H
  00d8d	7d 07		 jge	 SHORT $LN141@gEventMons

; 4501 : 					level = 3;

  00d8f	bf 03 00 00 00	 mov	 edi, 3
  00d94	eb 32		 jmp	 SHORT $LN310@gEventMons
$LN141@gEventMons:

; 4502 : 				else if ( lpObj->Level < 68 )

  00d96	66 83 f8 44	 cmp	 ax, 68			; 00000044H
  00d9a	7d 07		 jge	 SHORT $LN143@gEventMons

; 4503 : 					level = 4;

  00d9c	bf 04 00 00 00	 mov	 edi, 4
  00da1	eb 25		 jmp	 SHORT $LN310@gEventMons
$LN143@gEventMons:

; 4504 : 				else if ( lpObj->Level < 76 )

  00da3	66 83 f8 4c	 cmp	 ax, 76			; 0000004cH
  00da7	7d 07		 jge	 SHORT $LN145@gEventMons

; 4505 : 					level = 5;

  00da9	bf 05 00 00 00	 mov	 edi, 5
  00dae	eb 18		 jmp	 SHORT $LN310@gEventMons
$LN145@gEventMons:

; 4506 : 				else if ( lpObj->Level < 84 )

  00db0	66 83 f8 54	 cmp	 ax, 84			; 00000054H
  00db4	7d 07		 jge	 SHORT $LN147@gEventMons

; 4507 : 					level = 6;

  00db6	bf 06 00 00 00	 mov	 edi, 6
  00dbb	eb 0b		 jmp	 SHORT $LN310@gEventMons
$LN147@gEventMons:

; 4508 : 				else if ( lpObj->Level < 90 )

  00dbd	66 83 f8 5a	 cmp	 ax, 90			; 0000005aH
  00dc1	7d 4b		 jge	 SHORT $LN152@gEventMons

; 4509 : 					level = 7;

  00dc3	bf 07 00 00 00	 mov	 edi, 7
$LN310@gEventMons:

; 4510 : 				else
; 4511 : 					level = 8;
; 4512 : 
; 4513 : 				if( level != 8 )
; 4514 : 				{
; 4515 : 					type = ItemGetNumberMake(13,16);

  00dc8	6a 10		 push	 16			; 00000010H
  00dca	6a 0d		 push	 13			; 0000000dH
  00dcc	e8 00 00 00 00	 call	 ?ItemGetNumberMake@@YAHHH@Z ; ItemGetNumberMake
  00dd1	8b d8		 mov	 ebx, eax
  00dd3	83 c4 08	 add	 esp, 8

; 4516 : 					int MaxHitUser = gObjMonsterTopHitDamageUser(lpObj);
; 4517 : 
; 4518 : 					if( ItemAttribute[type].MondownFlag != 0 )

  00dd6	6b cb 70	 imul	 ecx, ebx, 112
  00dd9	80 b9 27 00 00
	00 00		 cmp	 BYTE PTR ?ItemAttribute@@3PAUITEM_ATTRIBUTE@@A[ecx+39], 0
  00de0	74 27		 je	 SHORT $LN347@gEventMons
$LN385@gEventMons:

; 4519 : 					{
; 4520 : 						ItemSerialCreateSend(lpObj->m_Index, lpObj->MapNumber, x, y, type, level, dur,

  00de2	6a 00		 push	 0
  00de4	6a 00		 push	 0
  00de6	6a 00		 push	 0
  00de8	6a 00		 push	 0
  00dea	56		 push	 esi
  00deb	e8 00 00 00 00	 call	 ?gObjMonsterTopHitDamageUser@@YAHPAUOBJECTSTRUCT@@@Z ; gObjMonsterTopHitDamageUser
  00df0	83 c4 04	 add	 esp, 4
  00df3	50		 push	 eax
  00df4	6a 00		 push	 0
  00df6	6a 00		 push	 0
  00df8	6a 00		 push	 0
  00dfa	6a 01		 push	 1
  00dfc	57		 push	 edi
  00dfd	53		 push	 ebx
  00dfe	ff 75 f4	 push	 DWORD PTR _y$15$[ebp]
  00e01	ff 75 f8	 push	 DWORD PTR _x$15$[ebp]

; 4521 : 							Option1,Option2,Option3, MaxHitUser, 0, 0);
; 4522 : 						return TRUE;

  00e04	e9 4b f3 ff ff	 jmp	 $LN374@gEventMons
$LN347@gEventMons:
  00e09	bb 10 27 00 00	 mov	 ebx, 10000		; 00002710H
$LN152@gEventMons:

; 4523 : 					}
; 4524 : 				}
; 4525 : 			}
; 4526 : 
; 4527 : 			if ( (rand()%10000) < g_iBloodBoneDropRate )

  00e0e	e8 00 00 00 00	 call	 _rand
  00e13	99		 cdq
  00e14	f7 fb		 idiv	 ebx
  00e16	3b 15 00 00 00
	00		 cmp	 edx, DWORD PTR ?g_iBloodBoneDropRate@@3HA ; g_iBloodBoneDropRate
  00e1c	0f 8d 96 00 00
	00		 jge	 $LN169@gEventMons

; 4528 : 			{
; 4529 : 				dur = 1;
; 4530 : 				x = lpObj->X;

  00e22	0f b6 86 20 01
	00 00		 movzx	 eax, BYTE PTR [esi+288]
  00e29	89 45 f8	 mov	 DWORD PTR _x$16$[ebp], eax

; 4531 : 				y = lpObj->Y;

  00e2c	0f b6 86 21 01
	00 00		 movzx	 eax, BYTE PTR [esi+289]
  00e33	89 45 f4	 mov	 DWORD PTR _y$16$[ebp], eax

; 4532 : 
; 4533 : 				if ( lpObj->Level < 32 )

  00e36	0f b7 86 96 00
	00 00		 movzx	 eax, WORD PTR [esi+150]
  00e3d	c6 45 fc 01	 mov	 BYTE PTR _dur$[ebp], 1
  00e41	66 83 f8 20	 cmp	 ax, 32			; 00000020H
  00e45	7d 07		 jge	 SHORT $LN154@gEventMons

; 4534 : 					level = 1;

  00e47	bf 01 00 00 00	 mov	 edi, 1
  00e4c	eb 4c		 jmp	 SHORT $LN311@gEventMons
$LN154@gEventMons:

; 4535 : 				else if ( lpObj->Level < 45 )

  00e4e	66 83 f8 2d	 cmp	 ax, 45			; 0000002dH
  00e52	7d 07		 jge	 SHORT $LN156@gEventMons

; 4536 : 					level = 2;

  00e54	bf 02 00 00 00	 mov	 edi, 2
  00e59	eb 3f		 jmp	 SHORT $LN311@gEventMons
$LN156@gEventMons:

; 4537 : 				else if ( lpObj->Level < 57 )

  00e5b	66 83 f8 39	 cmp	 ax, 57			; 00000039H
  00e5f	7d 07		 jge	 SHORT $LN158@gEventMons

; 4538 : 					level = 3;

  00e61	bf 03 00 00 00	 mov	 edi, 3
  00e66	eb 32		 jmp	 SHORT $LN311@gEventMons
$LN158@gEventMons:

; 4539 : 				else if ( lpObj->Level < 68 )

  00e68	66 83 f8 44	 cmp	 ax, 68			; 00000044H
  00e6c	7d 07		 jge	 SHORT $LN160@gEventMons

; 4540 : 					level = 4;

  00e6e	bf 04 00 00 00	 mov	 edi, 4
  00e73	eb 25		 jmp	 SHORT $LN311@gEventMons
$LN160@gEventMons:

; 4541 : 				else if ( lpObj->Level < 76 )

  00e75	66 83 f8 4c	 cmp	 ax, 76			; 0000004cH
  00e79	7d 07		 jge	 SHORT $LN162@gEventMons

; 4542 : 					level = 5;

  00e7b	bf 05 00 00 00	 mov	 edi, 5
  00e80	eb 18		 jmp	 SHORT $LN311@gEventMons
$LN162@gEventMons:

; 4543 : 				else if ( lpObj->Level < 84 )

  00e82	66 83 f8 54	 cmp	 ax, 84			; 00000054H
  00e86	7d 07		 jge	 SHORT $LN164@gEventMons

; 4544 : 					level = 6;

  00e88	bf 06 00 00 00	 mov	 edi, 6
  00e8d	eb 0b		 jmp	 SHORT $LN311@gEventMons
$LN164@gEventMons:

; 4545 : 				else if ( lpObj->Level < 90 )

  00e8f	66 83 f8 5a	 cmp	 ax, 90			; 0000005aH
  00e93	7d 23		 jge	 SHORT $LN169@gEventMons

; 4546 : 					level = 7;

  00e95	bf 07 00 00 00	 mov	 edi, 7
$LN311@gEventMons:

; 4547 : 				else
; 4548 : 					level = 8;
; 4549 : 
; 4550 : 				if( level != 8 )
; 4551 : 				{
; 4552 : 					type = ItemGetNumberMake(13,17);

  00e9a	6a 11		 push	 17			; 00000011H
  00e9c	6a 0d		 push	 13			; 0000000dH
  00e9e	e8 00 00 00 00	 call	 ?ItemGetNumberMake@@YAHHH@Z ; ItemGetNumberMake
  00ea3	8b d8		 mov	 ebx, eax
  00ea5	83 c4 08	 add	 esp, 8

; 4553 : 					int MaxHitUser = gObjMonsterTopHitDamageUser(lpObj);
; 4554 : 
; 4555 : 					if( ItemAttribute[type].MondownFlag != 0 )

  00ea8	6b cb 70	 imul	 ecx, ebx, 112
  00eab	80 b9 27 00 00
	00 00		 cmp	 BYTE PTR ?ItemAttribute@@3PAUITEM_ATTRIBUTE@@A[ecx+39], 0
  00eb2	0f 85 2a ff ff
	ff		 jne	 $LN385@gEventMons
$LN169@gEventMons:

; 4556 : 					{
; 4557 : 						ItemSerialCreateSend(lpObj->m_Index, lpObj->MapNumber, x, y, type, level, dur,
; 4558 : 							Option1,Option2,Option3, MaxHitUser, 0, 0);
; 4559 : 						return TRUE;
; 4560 : 					}
; 4561 : 				}
; 4562 : 			}
; 4563 : 		}
; 4564 : 	}
; 4565 : 
; 4566 : 	if ( (rand()%10000) < g_iDarkLordHeartDropRate )

  00eb8	e8 00 00 00 00	 call	 _rand
  00ebd	99		 cdq
  00ebe	bb 10 27 00 00	 mov	 ebx, 10000		; 00002710H
  00ec3	f7 fb		 idiv	 ebx
  00ec5	8b 7d 0c	 mov	 edi, DWORD PTR _lpTargetObj$[ebp]
  00ec8	3b 15 00 00 00
	00		 cmp	 edx, DWORD PTR ?g_iDarkLordHeartDropRate@@3HA ; g_iDarkLordHeartDropRate
  00ece	7d 56		 jge	 SHORT $LN173@gEventMons

; 4567 : 	{
; 4568 : 		int iDropRate = 0;
; 4569 : 
; 4570 : 		if ( lpTargetObj->MapNumber == 0 || lpTargetObj->MapNumber == 3 || lpTargetObj->MapNumber == 2 )

  00ed0	8a 87 23 01 00
	00		 mov	 al, BYTE PTR [edi+291]
  00ed6	84 c0		 test	 al, al
  00ed8	74 08		 je	 SHORT $LN172@gEventMons
  00eda	3c 03		 cmp	 al, 3
  00edc	74 04		 je	 SHORT $LN172@gEventMons
  00ede	3c 02		 cmp	 al, 2
  00ee0	75 44		 jne	 SHORT $LN173@gEventMons
$LN172@gEventMons:

; 4571 : 		{
; 4572 : 			type = ItemGetNumberMake(14,11);

  00ee2	6a 0b		 push	 11			; 0000000bH
  00ee4	6a 0e		 push	 14			; 0000000eH
  00ee6	e8 00 00 00 00	 call	 ?ItemGetNumberMake@@YAHHH@Z ; ItemGetNumberMake
  00eeb	8b d8		 mov	 ebx, eax

; 4573 : 			level = 13;
; 4574 : 			x = lpObj->X;
; 4575 : 			y = lpObj->Y;
; 4576 : 			dur = 0;

  00eed	c6 45 fc 00	 mov	 BYTE PTR _dur$[ebp], 0

; 4577 : 			int MaxHitUser = gObjMonsterTopHitDamageUser(lpObj);
; 4578 : 
; 4579 : 			if( ItemAttribute[type].MondownFlag != 0 )

  00ef1	6b cb 70	 imul	 ecx, ebx, 112
  00ef4	83 c4 08	 add	 esp, 8
  00ef7	80 b9 27 00 00
	00 00		 cmp	 BYTE PTR ?ItemAttribute@@3PAUITEM_ATTRIBUTE@@A[ecx+39], 0
  00efe	74 21		 je	 SHORT $LN356@gEventMons

; 4580 : 			{
; 4581 : 				ItemSerialCreateSend(lpObj->m_Index, lpObj->MapNumber, x, y, type, level, dur,

  00f00	6a 00		 push	 0
  00f02	6a 00		 push	 0
  00f04	6a 00		 push	 0
  00f06	6a 00		 push	 0
  00f08	56		 push	 esi
  00f09	e8 00 00 00 00	 call	 ?gObjMonsterTopHitDamageUser@@YAHPAUOBJECTSTRUCT@@@Z ; gObjMonsterTopHitDamageUser
  00f0e	83 c4 04	 add	 esp, 4
  00f11	50		 push	 eax
  00f12	6a 00		 push	 0
  00f14	6a 00		 push	 0
  00f16	6a 00		 push	 0
  00f18	6a 00		 push	 0
  00f1a	6a 0d		 push	 13			; 0000000dH

; 4582 : 					Option1,Option2,Option3, MaxHitUser, 0, 0);
; 4583 : 
; 4584 : 				return TRUE;

  00f1c	e9 22 f2 ff ff	 jmp	 $LN376@gEventMons
$LN356@gEventMons:
  00f21	bb 10 27 00 00	 mov	 ebx, 10000		; 00002710H
$LN173@gEventMons:

; 4585 : 			}
; 4586 : 		}
; 4587 : 	}
; 4588 : 
; 4589 : 	if ( g_bRibbonBoxEvent )

  00f26	83 3d 00 00 00
	00 00		 cmp	 DWORD PTR ?g_bRibbonBoxEvent@@3HA, 0 ; g_bRibbonBoxEvent
  00f2d	0f 84 e7 00 00
	00		 je	 $LN185@gEventMons

; 4590 : 	{
; 4591 : 		if ( lpObj->Level >= g_iRedRibbonBoxDropLevelMin && lpObj->Level <= g_iRedRibbonBoxDropLevelMax )

  00f33	0f bf 86 96 00
	00 00		 movsx	 eax, WORD PTR [esi+150]
  00f3a	3b 05 00 00 00
	00		 cmp	 eax, DWORD PTR ?g_iRedRibbonBoxDropLevelMin@@3HA ; g_iRedRibbonBoxDropLevelMin
  00f40	0f 8c 86 00 00
	00		 jl	 $LN175@gEventMons
  00f46	3b 05 00 00 00
	00		 cmp	 eax, DWORD PTR ?g_iRedRibbonBoxDropLevelMax@@3HA ; g_iRedRibbonBoxDropLevelMax
  00f4c	7f 7e		 jg	 SHORT $LN175@gEventMons

; 4592 : 		{
; 4593 : 			if ( (rand()%10000) < g_iRedRibbonBoxDropRate )

  00f4e	e8 00 00 00 00	 call	 _rand
  00f53	99		 cdq
  00f54	f7 fb		 idiv	 ebx
  00f56	3b 15 00 00 00
	00		 cmp	 edx, DWORD PTR ?g_iRedRibbonBoxDropRate@@3HA ; g_iRedRibbonBoxDropRate
  00f5c	0f 8d b8 00 00
	00		 jge	 $LN185@gEventMons

; 4594 : 			{
; 4595 : 				type = ItemGetNumberMake(12,32);

  00f62	6a 20		 push	 32			; 00000020H
$LN386@gEventMons:
  00f64	6a 0c		 push	 12			; 0000000cH
  00f66	e8 00 00 00 00	 call	 ?ItemGetNumberMake@@YAHHH@Z ; ItemGetNumberMake
  00f6b	8b d8		 mov	 ebx, eax
  00f6d	83 c4 08	 add	 esp, 8

; 4596 : 				level = 0;
; 4597 : 				x = lpObj->X;
; 4598 : 				y = lpObj->Y;
; 4599 : 				int MaxHitUser = gObjMonsterTopHitDamageUser(lpObj);
; 4600 : 
; 4601 : 				if( ItemAttribute[type].MondownFlag != 0 )

  00f70	6b cb 70	 imul	 ecx, ebx, 112
  00f73	80 b9 27 00 00
	00 00		 cmp	 BYTE PTR ?ItemAttribute@@3PAUITEM_ATTRIBUTE@@A[ecx+39], 0
  00f7a	0f 84 9a 00 00
	00		 je	 $LN185@gEventMons
$LN387@gEventMons:

; 4602 : 				{
; 4603 : 					ItemSerialCreateSend(lpTargetObj->m_Index, lpTargetObj->MapNumber, x, y, type, level, dur,

  00f80	6a 00		 push	 0
  00f82	6a 00		 push	 0
  00f84	6a 00		 push	 0
  00f86	6a 00		 push	 0
  00f88	56		 push	 esi
  00f89	e8 00 00 00 00	 call	 ?gObjMonsterTopHitDamageUser@@YAHPAUOBJECTSTRUCT@@@Z ; gObjMonsterTopHitDamageUser
  00f8e	83 c4 04	 add	 esp, 4
  00f91	50		 push	 eax
  00f92	6a 00		 push	 0
  00f94	6a 00		 push	 0
  00f96	6a 00		 push	 0
  00f98	ff 75 fc	 push	 DWORD PTR _dur$[ebp]
  00f9b	6a 00		 push	 0
$LN388@gEventMons:
  00f9d	0f b6 86 21 01
	00 00		 movzx	 eax, BYTE PTR [esi+289]
  00fa4	53		 push	 ebx
  00fa5	50		 push	 eax
  00fa6	0f b6 86 20 01
	00 00		 movzx	 eax, BYTE PTR [esi+288]
  00fad	50		 push	 eax
  00fae	0f b6 87 23 01
	00 00		 movzx	 eax, BYTE PTR [edi+291]
$LN389@gEventMons:
  00fb5	50		 push	 eax
  00fb6	ff 37		 push	 DWORD PTR [edi]
  00fb8	e8 00 00 00 00	 call	 ?ItemSerialCreateSend@@YAXHEEEHEEEEEHEEEPAE@Z ; ItemSerialCreateSend
  00fbd	83 c4 3c	 add	 esp, 60			; 0000003cH
  00fc0	b8 01 00 00 00	 mov	 eax, 1
  00fc5	5f		 pop	 edi
  00fc6	5e		 pop	 esi
  00fc7	5b		 pop	 ebx

; 5066 : }

  00fc8	8b e5		 mov	 esp, ebp
  00fca	5d		 pop	 ebp
  00fcb	c3		 ret	 0
$LN175@gEventMons:

; 4604 : 						Option1,Option2,Option3, MaxHitUser, 0, 0);
; 4605 : 
; 4606 : 					return TRUE;
; 4607 : 				}
; 4608 : 			}
; 4609 : 		}
; 4610 : 		else if ( lpObj->Level >= g_iGreenRibbonBoxDropLevelMin && lpObj->Level <= g_iGreenRibbonBoxDropLevelMax )

  00fcc	3b 05 00 00 00
	00		 cmp	 eax, DWORD PTR ?g_iGreenRibbonBoxDropLevelMin@@3HA ; g_iGreenRibbonBoxDropLevelMin
  00fd2	7c 1f		 jl	 SHORT $LN179@gEventMons
  00fd4	3b 05 00 00 00
	00		 cmp	 eax, DWORD PTR ?g_iGreenRibbonBoxDropLevelMax@@3HA ; g_iGreenRibbonBoxDropLevelMax
  00fda	7f 17		 jg	 SHORT $LN179@gEventMons

; 4611 : 		{
; 4612 : 			if ( (rand()%10000) < g_iGreenRibbonBoxDropRate )

  00fdc	e8 00 00 00 00	 call	 _rand
  00fe1	99		 cdq
  00fe2	f7 fb		 idiv	 ebx
  00fe4	3b 15 00 00 00
	00		 cmp	 edx, DWORD PTR ?g_iGreenRibbonBoxDropRate@@3HA ; g_iGreenRibbonBoxDropRate
  00fea	7d 2e		 jge	 SHORT $LN185@gEventMons

; 4613 : 			{
; 4614 : 				type = ItemGetNumberMake(12,33);

  00fec	6a 21		 push	 33			; 00000021H

; 4615 : 				level = 0;
; 4616 : 				x = lpObj->X;
; 4617 : 				y = lpObj->Y;
; 4618 : 				int MaxHitUser = gObjMonsterTopHitDamageUser(lpObj);
; 4619 : 
; 4620 : 				if( ItemAttribute[type].MondownFlag != 0 )
; 4621 : 				{
; 4622 : 					ItemSerialCreateSend(lpTargetObj->m_Index, lpTargetObj->MapNumber, x, y, type, level, dur,
; 4623 : 						Option1,Option2,Option3, MaxHitUser, 0, 0);
; 4624 : 
; 4625 : 					return TRUE;

  00fee	e9 71 ff ff ff	 jmp	 $LN386@gEventMons
$LN179@gEventMons:

; 4626 : 				}
; 4627 : 			}
; 4628 : 		}
; 4629 : 		else if ( lpObj->Level >= g_iBlueRibbonBoxDropLevelMin && lpObj->Level <= g_iBlueRibbonBoxDropLevelMax )

  00ff3	3b 05 00 00 00
	00		 cmp	 eax, DWORD PTR ?g_iBlueRibbonBoxDropLevelMin@@3HA ; g_iBlueRibbonBoxDropLevelMin
  00ff9	7c 1f		 jl	 SHORT $LN185@gEventMons
  00ffb	3b 05 00 00 00
	00		 cmp	 eax, DWORD PTR ?g_iBlueRibbonBoxDropLevelMax@@3HA ; g_iBlueRibbonBoxDropLevelMax
  01001	7f 17		 jg	 SHORT $LN185@gEventMons

; 4630 : 		{
; 4631 : 			if ( (rand()%10000) < g_iBlueRibbonBoxDropRate )

  01003	e8 00 00 00 00	 call	 _rand
  01008	99		 cdq
  01009	f7 fb		 idiv	 ebx
  0100b	3b 15 00 00 00
	00		 cmp	 edx, DWORD PTR ?g_iBlueRibbonBoxDropRate@@3HA ; g_iBlueRibbonBoxDropRate
  01011	7d 07		 jge	 SHORT $LN185@gEventMons

; 4632 : 			{
; 4633 : 				type = ItemGetNumberMake(12,34);

  01013	6a 22		 push	 34			; 00000022H

; 4634 : 				level = 0;
; 4635 : 				x = lpObj->X;
; 4636 : 				y = lpObj->Y;
; 4637 : 				int MaxHitUser = gObjMonsterTopHitDamageUser(lpObj);
; 4638 : 
; 4639 : 				if( ItemAttribute[type].MondownFlag != 0 )
; 4640 : 				{
; 4641 : 					ItemSerialCreateSend(lpTargetObj->m_Index, lpTargetObj->MapNumber, x, y, type, level, dur,
; 4642 : 						Option1,Option2,Option3, MaxHitUser, 0, 0);
; 4643 : 
; 4644 : 					return TRUE;

  01015	e9 4a ff ff ff	 jmp	 $LN386@gEventMons
$LN185@gEventMons:

; 4645 : 				}
; 4646 : 			}
; 4647 : 		}
; 4648 : 	}
; 4649 : 
; 4650 : 	if ( g_bChocolateBoxEvent )

  0101a	83 3d 00 00 00
	00 00		 cmp	 DWORD PTR ?g_bChocolateBoxEvent@@3HA, 0 ; g_bChocolateBoxEvent
  01021	74 52		 je	 SHORT $LN362@gEventMons

; 4651 : 	{
; 4652 : 		if ( lpObj->Level >= g_iPinkChocolateBoxDropLevelMin && lpObj->Level <= g_iPinkChocolateBoxDropLevelMax )

  01023	0f bf 86 96 00
	00 00		 movsx	 eax, WORD PTR [esi+150]
  0102a	3b 05 00 00 00
	00		 cmp	 eax, DWORD PTR ?g_iPinkChocolateBoxDropLevelMin@@3HA ; g_iPinkChocolateBoxDropLevelMin
  01030	0f 8c c4 00 00
	00		 jl	 $LN187@gEventMons
  01036	3b 05 00 00 00
	00		 cmp	 eax, DWORD PTR ?g_iPinkChocolateBoxDropLevelMax@@3HA ; g_iPinkChocolateBoxDropLevelMax
  0103c	0f 8f b8 00 00
	00		 jg	 $LN187@gEventMons

; 4653 : 		{
; 4654 : 			if ( (rand()%10000) < g_iPinkChocolateBoxDropRate )

  01042	e8 00 00 00 00	 call	 _rand
  01047	99		 cdq
  01048	bb 10 27 00 00	 mov	 ebx, 10000		; 00002710H
  0104d	f7 fb		 idiv	 ebx
  0104f	3b 15 00 00 00
	00		 cmp	 edx, DWORD PTR ?g_iPinkChocolateBoxDropRate@@3HA ; g_iPinkChocolateBoxDropRate
  01055	7d 23		 jge	 SHORT $LN197@gEventMons

; 4655 : 			{
; 4656 : 				type = ItemGetNumberMake(14,32);

  01057	6a 20		 push	 32			; 00000020H
$LN390@gEventMons:
  01059	6a 0e		 push	 14			; 0000000eH
  0105b	e8 00 00 00 00	 call	 ?ItemGetNumberMake@@YAHHH@Z ; ItemGetNumberMake
  01060	8b d8		 mov	 ebx, eax
  01062	83 c4 08	 add	 esp, 8

; 4657 : 				level = 0;
; 4658 : 				x = lpObj->X;
; 4659 : 				y = lpObj->Y;
; 4660 : 				int MaxHitUser = gObjMonsterTopHitDamageUser(lpObj);
; 4661 : 
; 4662 : 				if( ItemAttribute[type].MondownFlag != 0 )

  01065	6b cb 70	 imul	 ecx, ebx, 112
  01068	80 b9 27 00 00
	00 00		 cmp	 BYTE PTR ?ItemAttribute@@3PAUITEM_ATTRIBUTE@@A[ecx+39], 0
  0106f	0f 85 0b ff ff
	ff		 jne	 $LN387@gEventMons
$LN362@gEventMons:
  01075	bb 10 27 00 00	 mov	 ebx, 10000		; 00002710H
$LN197@gEventMons:

; 4706 : 				}
; 4707 : 			}
; 4708 : 		}
; 4709 : 	}
; 4710 : 
; 4711 : 	if ( g_bCandyBoxEvent )

  0107a	83 3d 00 00 00
	00 00		 cmp	 DWORD PTR ?g_bCandyBoxEvent@@3HA, 0 ; g_bCandyBoxEvent
  01081	0f 84 29 01 00
	00		 je	 $LN209@gEventMons

; 4712 : 	{
; 4713 : 		if ( lpObj->Level >= g_iLightPurpleCandyBoxDropLevelMin && lpObj->Level <= g_iLightPurpleCandyBoxDropLevelMax )

  01087	0f bf 86 96 00
	00 00		 movsx	 eax, WORD PTR [esi+150]
  0108e	3b 05 00 00 00
	00		 cmp	 eax, DWORD PTR ?g_iLightPurpleCandyBoxDropLevelMin@@3HA ; g_iLightPurpleCandyBoxDropLevelMin
  01094	0f 8c c8 00 00
	00		 jl	 $LN199@gEventMons
  0109a	3b 05 00 00 00
	00		 cmp	 eax, DWORD PTR ?g_iLightPurpleCandyBoxDropLevelMax@@3HA ; g_iLightPurpleCandyBoxDropLevelMax
  010a0	0f 8f bc 00 00
	00		 jg	 $LN199@gEventMons

; 4714 : 		{
; 4715 : 			if ( (rand()%10000) < g_iLightPurpleCandyBoxDropRate )

  010a6	e8 00 00 00 00	 call	 _rand
  010ab	99		 cdq
  010ac	f7 fb		 idiv	 ebx
  010ae	3b 15 00 00 00
	00		 cmp	 edx, DWORD PTR ?g_iLightPurpleCandyBoxDropRate@@3HA ; g_iLightPurpleCandyBoxDropRate
  010b4	0f 8d f6 00 00
	00		 jge	 $LN209@gEventMons

; 4716 : 			{
; 4717 : 				type = ItemGetNumberMake(14,32);

  010ba	6a 20		 push	 32			; 00000020H
$LN391@gEventMons:
  010bc	6a 0e		 push	 14			; 0000000eH
  010be	e8 00 00 00 00	 call	 ?ItemGetNumberMake@@YAHHH@Z ; ItemGetNumberMake
  010c3	8b d8		 mov	 ebx, eax
  010c5	83 c4 08	 add	 esp, 8

; 4718 : 				level = 1;
; 4719 : 				x = lpObj->X;
; 4720 : 				y = lpObj->Y;
; 4721 : 				int MaxHitUser = gObjMonsterTopHitDamageUser(lpObj);
; 4722 : 
; 4723 : 				if( ItemAttribute[type].MondownFlag != 0 )

  010c8	6b cb 70	 imul	 ecx, ebx, 112
  010cb	80 b9 27 00 00
	00 00		 cmp	 BYTE PTR ?ItemAttribute@@3PAUITEM_ATTRIBUTE@@A[ecx+39], 0
  010d2	0f 84 d8 00 00
	00		 je	 $LN209@gEventMons

; 4724 : 				{
; 4725 : 					ItemSerialCreateSend(lpTargetObj->m_Index, lpTargetObj->MapNumber, x, y, type, level, dur,

  010d8	6a 00		 push	 0
  010da	6a 00		 push	 0
  010dc	6a 00		 push	 0
  010de	6a 00		 push	 0
  010e0	56		 push	 esi
  010e1	e8 00 00 00 00	 call	 ?gObjMonsterTopHitDamageUser@@YAHPAUOBJECTSTRUCT@@@Z ; gObjMonsterTopHitDamageUser
  010e6	83 c4 04	 add	 esp, 4
  010e9	50		 push	 eax
  010ea	6a 00		 push	 0
  010ec	6a 00		 push	 0
  010ee	6a 00		 push	 0
  010f0	ff 75 fc	 push	 DWORD PTR _dur$[ebp]
  010f3	6a 01		 push	 1

; 4726 : 						Option1,Option2,Option3, MaxHitUser, 0, 0);
; 4727 : 
; 4728 : 					return TRUE;

  010f5	e9 a3 fe ff ff	 jmp	 $LN388@gEventMons
$LN187@gEventMons:

; 4663 : 				{
; 4664 : 					ItemSerialCreateSend(lpTargetObj->m_Index, lpTargetObj->MapNumber, x, y, type, level, dur,
; 4665 : 						Option1,Option2,Option3, MaxHitUser, 0, 0);
; 4666 : 
; 4667 : 					return TRUE;
; 4668 : 				}
; 4669 : 			}
; 4670 : 		}
; 4671 : 		else if ( lpObj->Level >= g_iRedChocolateBoxDropLevelMin && lpObj->Level <= g_iRedChocolateBoxDropLevelMax )

  010fa	3b 05 00 00 00
	00		 cmp	 eax, DWORD PTR ?g_iRedChocolateBoxDropLevelMin@@3HA ; g_iRedChocolateBoxDropLevelMin
  01100	7c 28		 jl	 SHORT $LN191@gEventMons
  01102	3b 05 00 00 00
	00		 cmp	 eax, DWORD PTR ?g_iRedChocolateBoxDropLevelMax@@3HA ; g_iRedChocolateBoxDropLevelMax
  01108	7f 20		 jg	 SHORT $LN191@gEventMons

; 4672 : 		{
; 4673 : 			if ( (rand()%10000) < g_iRedChocolateBoxDropRate )

  0110a	e8 00 00 00 00	 call	 _rand
  0110f	99		 cdq
  01110	bb 10 27 00 00	 mov	 ebx, 10000		; 00002710H
  01115	f7 fb		 idiv	 ebx
  01117	3b 15 00 00 00
	00		 cmp	 edx, DWORD PTR ?g_iRedChocolateBoxDropRate@@3HA ; g_iRedChocolateBoxDropRate
  0111d	0f 8d 57 ff ff
	ff		 jge	 $LN197@gEventMons

; 4674 : 			{
; 4675 : 				type = ItemGetNumberMake(14,33);

  01123	6a 21		 push	 33			; 00000021H

; 4676 : 				level = 0;
; 4677 : 				x = lpObj->X;
; 4678 : 				y = lpObj->Y;
; 4679 : 				int MaxHitUser = gObjMonsterTopHitDamageUser(lpObj);
; 4680 : 
; 4681 : 				if( ItemAttribute[type].MondownFlag != 0 )
; 4682 : 				{
; 4683 : 					ItemSerialCreateSend(lpTargetObj->m_Index, lpTargetObj->MapNumber, x, y, type, level, dur,
; 4684 : 						Option1,Option2,Option3, MaxHitUser, 0, 0);
; 4685 : 
; 4686 : 					return TRUE;

  01125	e9 2f ff ff ff	 jmp	 $LN390@gEventMons
$LN191@gEventMons:

; 4687 : 				}
; 4688 : 			}
; 4689 : 		}
; 4690 : 		else if ( lpObj->Level >= g_iBlueChocolateBoxDropLevelMin && lpObj->Level <= g_iBlueChocolateBoxDropLevelMax )

  0112a	3b 05 00 00 00
	00		 cmp	 eax, DWORD PTR ?g_iBlueChocolateBoxDropLevelMin@@3HA ; g_iBlueChocolateBoxDropLevelMin
  01130	0f 8c 3f ff ff
	ff		 jl	 $LN362@gEventMons
  01136	3b 05 00 00 00
	00		 cmp	 eax, DWORD PTR ?g_iBlueChocolateBoxDropLevelMax@@3HA ; g_iBlueChocolateBoxDropLevelMax
  0113c	0f 8f 33 ff ff
	ff		 jg	 $LN362@gEventMons

; 4691 : 		{
; 4692 : 			if ( (rand()%10000) < g_iBlueChocolateBoxDropRate )

  01142	e8 00 00 00 00	 call	 _rand
  01147	99		 cdq
  01148	bb 10 27 00 00	 mov	 ebx, 10000		; 00002710H
  0114d	f7 fb		 idiv	 ebx
  0114f	3b 15 00 00 00
	00		 cmp	 edx, DWORD PTR ?g_iBlueChocolateBoxDropRate@@3HA ; g_iBlueChocolateBoxDropRate
  01155	0f 8d 1f ff ff
	ff		 jge	 $LN197@gEventMons

; 4693 : 			{
; 4694 : 				type = ItemGetNumberMake(14,34);

  0115b	6a 22		 push	 34			; 00000022H

; 4695 : 				level = 0;
; 4696 : 				x = lpObj->X;
; 4697 : 				y = lpObj->Y;
; 4698 : 				int MaxHitUser = gObjMonsterTopHitDamageUser(lpObj);
; 4699 : 
; 4700 : 				if( ItemAttribute[type].MondownFlag != 0 )
; 4701 : 				{
; 4702 : 					ItemSerialCreateSend(lpTargetObj->m_Index, lpTargetObj->MapNumber, x, y, type, level, dur,
; 4703 : 						Option1,Option2,Option3, MaxHitUser, 0, 0);
; 4704 : 
; 4705 : 					return TRUE;

  0115d	e9 f7 fe ff ff	 jmp	 $LN390@gEventMons
$LN199@gEventMons:

; 4729 : 				}
; 4730 : 			}
; 4731 : 		}
; 4732 : 		else if ( lpObj->Level >= g_iVermilionCandyBoxDropLevelMin && lpObj->Level <= g_iVermilionCandyBoxDropLevelMax )

  01162	3b 05 00 00 00
	00		 cmp	 eax, DWORD PTR ?g_iVermilionCandyBoxDropLevelMin@@3HA ; g_iVermilionCandyBoxDropLevelMin
  01168	7c 1f		 jl	 SHORT $LN203@gEventMons
  0116a	3b 05 00 00 00
	00		 cmp	 eax, DWORD PTR ?g_iVermilionCandyBoxDropLevelMax@@3HA ; g_iVermilionCandyBoxDropLevelMax
  01170	7f 17		 jg	 SHORT $LN203@gEventMons

; 4733 : 		{
; 4734 : 			if ( (rand()%10000) < g_iVermilionCandyBoxDropRate )

  01172	e8 00 00 00 00	 call	 _rand
  01177	99		 cdq
  01178	f7 fb		 idiv	 ebx
  0117a	3b 15 00 00 00
	00		 cmp	 edx, DWORD PTR ?g_iVermilionCandyBoxDropRate@@3HA ; g_iVermilionCandyBoxDropRate
  01180	7d 2e		 jge	 SHORT $LN209@gEventMons

; 4735 : 			{
; 4736 : 				type = ItemGetNumberMake(14,33);

  01182	6a 21		 push	 33			; 00000021H

; 4737 : 				level = 1;
; 4738 : 				x = lpObj->X;
; 4739 : 				y = lpObj->Y;
; 4740 : 				int MaxHitUser = gObjMonsterTopHitDamageUser(lpObj);
; 4741 : 
; 4742 : 				if( ItemAttribute[type].MondownFlag != 0 )
; 4743 : 				{
; 4744 : 					ItemSerialCreateSend(lpTargetObj->m_Index, lpTargetObj->MapNumber, x, y, type, level, dur,
; 4745 : 						Option1,Option2,Option3, MaxHitUser, 0, 0);
; 4746 : 
; 4747 : 					return TRUE;

  01184	e9 33 ff ff ff	 jmp	 $LN391@gEventMons
$LN203@gEventMons:

; 4748 : 				}
; 4749 : 			}
; 4750 : 		}
; 4751 : 		else if ( lpObj->Level >= g_iDeepBlueCandyBoxDropLevelMin && lpObj->Level <= g_iDeepBlueCandyBoxDropLevelMax )

  01189	3b 05 00 00 00
	00		 cmp	 eax, DWORD PTR ?g_iDeepBlueCandyBoxDropLevelMin@@3HA ; g_iDeepBlueCandyBoxDropLevelMin
  0118f	7c 1f		 jl	 SHORT $LN209@gEventMons
  01191	3b 05 00 00 00
	00		 cmp	 eax, DWORD PTR ?g_iDeepBlueCandyBoxDropLevelMax@@3HA ; g_iDeepBlueCandyBoxDropLevelMax
  01197	7f 17		 jg	 SHORT $LN209@gEventMons

; 4752 : 		{
; 4753 : 			if ( (rand()%10000) < g_iDeepBlueCandyBoxDropRate )

  01199	e8 00 00 00 00	 call	 _rand
  0119e	99		 cdq
  0119f	f7 fb		 idiv	 ebx
  011a1	3b 15 00 00 00
	00		 cmp	 edx, DWORD PTR ?g_iDeepBlueCandyBoxDropRate@@3HA ; g_iDeepBlueCandyBoxDropRate
  011a7	7d 07		 jge	 SHORT $LN209@gEventMons

; 4754 : 			{
; 4755 : 				type = ItemGetNumberMake(14,34);

  011a9	6a 22		 push	 34			; 00000022H

; 4756 : 				level = 1;
; 4757 : 				x = lpObj->X;
; 4758 : 				y = lpObj->Y;
; 4759 : 				int MaxHitUser = gObjMonsterTopHitDamageUser(lpObj);
; 4760 : 
; 4761 : 				if( ItemAttribute[type].MondownFlag != 0 )
; 4762 : 				{
; 4763 : 					ItemSerialCreateSend(lpTargetObj->m_Index, lpTargetObj->MapNumber, x, y, type, level, dur,
; 4764 : 						Option1,Option2,Option3, MaxHitUser, 0, 0);
; 4765 : 
; 4766 : 					return TRUE;

  011ab	e9 0c ff ff ff	 jmp	 $LN391@gEventMons
$LN209@gEventMons:

; 4767 : 				}
; 4768 : 			}
; 4769 : 		}
; 4770 : 	}
; 4771 : 
; 4772 : 	if ( g_bHallowinDayEventOn )

  011b0	83 3d 00 00 00
	00 00		 cmp	 DWORD PTR ?g_bHallowinDayEventOn@@3HA, 0 ; g_bHallowinDayEventOn
  011b7	0f 84 bb 00 00
	00		 je	 $LN338@gEventMons

; 4773 : 	{
; 4774 : 		bool bIsBossMonster = false;
; 4775 : 
; 4776 : 		if ( lpObj->m_Index == 349 || lpObj->m_Index == 364 || lpObj->m_Index == 361 ||
; 4777 : 			 lpObj->m_Index == 362 || lpObj->m_Index == 363 )

  011bd	8b 06		 mov	 eax, DWORD PTR [esi]
  011bf	3d 5d 01 00 00	 cmp	 eax, 349		; 0000015dH
  011c4	0f 84 ae 00 00
	00		 je	 $LN338@gEventMons
  011ca	3d 6c 01 00 00	 cmp	 eax, 364		; 0000016cH
  011cf	0f 84 a3 00 00
	00		 je	 $LN338@gEventMons
  011d5	3d 69 01 00 00	 cmp	 eax, 361		; 00000169H
  011da	0f 84 98 00 00
	00		 je	 $LN338@gEventMons
  011e0	3d 6a 01 00 00	 cmp	 eax, 362		; 0000016aH
  011e5	0f 84 8d 00 00
	00		 je	 $LN338@gEventMons
  011eb	3d 6b 01 00 00	 cmp	 eax, 363		; 0000016bH
  011f0	0f 84 82 00 00
	00		 je	 $LN338@gEventMons

; 4778 : 			bIsBossMonster = true;
; 4779 : 
; 4780 : 		if ( !bIsBossMonster )
; 4781 : 		{
; 4782 : 			if ( (rand()%10000) < g_iHallowinDayEventItemDropRate &&

  011f6	e8 00 00 00 00	 call	 _rand
  011fb	99		 cdq
  011fc	bb 10 27 00 00	 mov	 ebx, 10000		; 00002710H
  01201	f7 fb		 idiv	 ebx
  01203	3b 15 00 00 00
	00		 cmp	 edx, DWORD PTR ?g_iHallowinDayEventItemDropRate@@3HA ; g_iHallowinDayEventItemDropRate
  01209	7d 72		 jge	 SHORT $LN215@gEventMons
  0120b	0f bf 86 96 00
	00 00		 movsx	 eax, WORD PTR [esi+150]
  01212	40		 inc	 eax
  01213	50		 push	 eax
  01214	6a 2d		 push	 45			; 0000002dH
  01216	6a 0e		 push	 14			; 0000000eH
  01218	e8 00 00 00 00	 call	 ?zzzItemLevel@@YAHHHH@Z	; zzzItemLevel
  0121d	83 c4 0c	 add	 esp, 12			; 0000000cH
  01220	85 c0		 test	 eax, eax
  01222	74 59		 je	 SHORT $LN215@gEventMons

; 4783 : 				 zzzItemLevel(14,45,lpObj->Level + 1) )
; 4784 : 			{
; 4785 : 				type = ItemGetNumberMake(14,45);

  01224	6a 2d		 push	 45			; 0000002dH
  01226	6a 0e		 push	 14			; 0000000eH
  01228	e8 00 00 00 00	 call	 ?ItemGetNumberMake@@YAHHH@Z ; ItemGetNumberMake
  0122d	8b d8		 mov	 ebx, eax
  0122f	83 c4 08	 add	 esp, 8

; 4786 : 				level = 0;
; 4787 : 				x = lpObj->X;
; 4788 : 				y = lpObj->Y;
; 4789 : 				int iMaxHitUser = gObjMonsterTopHitDamageUser(lpObj);
; 4790 : 	
; 4791 : 				if( ItemAttribute[type].MondownFlag != 0 )

  01232	6b cb 70	 imul	 ecx, ebx, 112
  01235	80 b9 27 00 00
	00 00		 cmp	 BYTE PTR ?ItemAttribute@@3PAUITEM_ATTRIBUTE@@A[ecx+39], 0
  0123c	74 3a		 je	 SHORT $LN338@gEventMons
$LN392@gEventMons:

; 4792 : 				{
; 4793 : 					ItemSerialCreateSend(lpTargetObj->m_Index, lpObj->MapNumber, x, y, type, level, dur,

  0123e	6a 00		 push	 0
  01240	6a 00		 push	 0
  01242	6a 00		 push	 0
  01244	6a 00		 push	 0
  01246	56		 push	 esi
  01247	e8 00 00 00 00	 call	 ?gObjMonsterTopHitDamageUser@@YAHPAUOBJECTSTRUCT@@@Z ; gObjMonsterTopHitDamageUser
  0124c	83 c4 04	 add	 esp, 4
  0124f	50		 push	 eax
  01250	6a 00		 push	 0
  01252	6a 00		 push	 0
  01254	6a 00		 push	 0
  01256	ff 75 fc	 push	 DWORD PTR _dur$[ebp]
$LN393@gEventMons:
  01259	0f b6 86 21 01
	00 00		 movzx	 eax, BYTE PTR [esi+289]
  01260	6a 00		 push	 0
  01262	53		 push	 ebx
  01263	50		 push	 eax
  01264	0f b6 86 20 01
	00 00		 movzx	 eax, BYTE PTR [esi+288]
  0126b	50		 push	 eax
  0126c	0f b6 86 23 01
	00 00		 movzx	 eax, BYTE PTR [esi+291]

; 4794 : 						Option1,Option2,Option3, iMaxHitUser, 0, 0);
; 4795 : 					return TRUE;

  01273	e9 3d fd ff ff	 jmp	 $LN389@gEventMons
$LN338@gEventMons:
  01278	bb 10 27 00 00	 mov	 ebx, 10000		; 00002710H
$LN215@gEventMons:

; 4796 : 				}
; 4797 : 			}
; 4798 : 		}
; 4799 : 	}
; 4800 : 
; 4801 : 	if ( g_bSantaRingDrop )

  0127d	83 3d 00 00 00
	00 00		 cmp	 DWORD PTR ?g_bSantaRingDrop@@3HA, 0 ; g_bSantaRingDrop
  01284	0f 84 9a 00 00
	00		 je	 $LN221@gEventMons

; 4802 : 	{
; 4803 : 		bool bIsBossMonster = false;
; 4804 : 
; 4805 : 		if ( lpObj->m_Index == 349 || lpObj->m_Index == 364 || lpObj->m_Index == 361 ||
; 4806 : 			 lpObj->m_Index == 362 || lpObj->m_Index == 363 )

  0128a	8b 06		 mov	 eax, DWORD PTR [esi]
  0128c	3d 5d 01 00 00	 cmp	 eax, 349		; 0000015dH
  01291	0f 84 8d 00 00
	00		 je	 $LN221@gEventMons
  01297	3d 6c 01 00 00	 cmp	 eax, 364		; 0000016cH
  0129c	0f 84 82 00 00
	00		 je	 $LN221@gEventMons
  012a2	3d 69 01 00 00	 cmp	 eax, 361		; 00000169H
  012a7	74 7b		 je	 SHORT $LN221@gEventMons
  012a9	3d 6a 01 00 00	 cmp	 eax, 362		; 0000016aH
  012ae	74 74		 je	 SHORT $LN221@gEventMons
  012b0	3d 6b 01 00 00	 cmp	 eax, 363		; 0000016bH
  012b5	74 6d		 je	 SHORT $LN221@gEventMons

; 4807 : 			bIsBossMonster = true;
; 4808 : 
; 4809 : 		if ( !bIsBossMonster )
; 4810 : 		{
; 4811 : 			if ( (rand()%10000) < g_iSantaRingDropRate )

  012b7	e8 00 00 00 00	 call	 _rand
  012bc	99		 cdq
  012bd	f7 fb		 idiv	 ebx
  012bf	3b 15 00 00 00
	00		 cmp	 edx, DWORD PTR ?g_iSantaRingDropRate@@3HA ; g_iSantaRingDropRate
  012c5	7d 5d		 jge	 SHORT $LN221@gEventMons

; 4812 : 			{
; 4813 : 				type = ItemGetNumberMake(13,41);

  012c7	6a 29		 push	 41			; 00000029H
  012c9	6a 0d		 push	 13			; 0000000dH
  012cb	e8 00 00 00 00	 call	 ?ItemGetNumberMake@@YAHHH@Z ; ItemGetNumberMake
  012d0	8b d8		 mov	 ebx, eax

; 4814 : 				level = 0;
; 4815 : 				dur = 100;

  012d2	c6 45 fc 64	 mov	 BYTE PTR _dur$[ebp], 100 ; 00000064H

; 4816 : 				x = lpObj->X;
; 4817 : 				y = lpObj->Y;
; 4818 : 				int iMaxHitUser = gObjMonsterTopHitDamageUser(lpObj);
; 4819 : 	
; 4820 : 				if( ItemAttribute[type].MondownFlag != 0 )

  012d6	6b cb 70	 imul	 ecx, ebx, 112
  012d9	83 c4 08	 add	 esp, 8
  012dc	80 b9 27 00 00
	00 00		 cmp	 BYTE PTR ?ItemAttribute@@3PAUITEM_ATTRIBUTE@@A[ecx+39], 0
  012e3	74 3f		 je	 SHORT $LN221@gEventMons

; 4821 : 				{
; 4822 : 					ItemSerialCreateSend(lpTargetObj->m_Index, lpObj->MapNumber, x, y, type, level, dur,

  012e5	6a 00		 push	 0
  012e7	6a 00		 push	 0
  012e9	6a 00		 push	 0
  012eb	6a 00		 push	 0
  012ed	56		 push	 esi
  012ee	e8 00 00 00 00	 call	 ?gObjMonsterTopHitDamageUser@@YAHPAUOBJECTSTRUCT@@@Z ; gObjMonsterTopHitDamageUser
  012f3	83 c4 04	 add	 esp, 4
  012f6	50		 push	 eax
  012f7	0f b6 86 21 01
	00 00		 movzx	 eax, BYTE PTR [esi+289]
  012fe	6a 00		 push	 0
  01300	6a 00		 push	 0
  01302	6a 00		 push	 0
  01304	6a 64		 push	 100			; 00000064H
  01306	6a 00		 push	 0
  01308	53		 push	 ebx
  01309	50		 push	 eax
  0130a	0f b6 86 20 01
	00 00		 movzx	 eax, BYTE PTR [esi+288]
  01311	50		 push	 eax
  01312	0f b6 86 23 01
	00 00		 movzx	 eax, BYTE PTR [esi+291]
  01319	50		 push	 eax
  0131a	ff 37		 push	 DWORD PTR [edi]
  0131c	e8 00 00 00 00	 call	 ?ItemSerialCreateSend@@YAXHEEEHEEEEEHEEEPAE@Z ; ItemSerialCreateSend
  01321	83 c4 3c	 add	 esp, 60			; 0000003cH
$LN221@gEventMons:

; 4823 : 						Option1,Option2,Option3, iMaxHitUser, 0, 0);
; 4824 : 				}
; 4825 : 			}
; 4826 : 		}
; 4827 : 	}
; 4828 : 
; 4829 : 	if( g_bIllusionTemple )

  01324	83 3d 00 00 00
	00 00		 cmp	 DWORD PTR ?g_bIllusionTemple@@3HA, 0 ; g_bIllusionTemple
  0132b	0f 84 c3 01 00
	00		 je	 $LN341@gEventMons

; 4830 : 	{
; 4831 : 		if( IT_MAP_RANGE(lpObj->MapNumber) == FALSE )

  01331	8a 86 23 01 00
	00		 mov	 al, BYTE PTR [esi+291]
  01337	3c 2d		 cmp	 al, 45			; 0000002dH
  01339	72 0f		 jb	 SHORT $LN314@gEventMons
  0133b	b1 32		 mov	 cl, 50			; 00000032H
  0133d	3a c8		 cmp	 cl, al
  0133f	1b c0		 sbb	 eax, eax
  01341	83 c0 01	 add	 eax, 1
  01344	0f 85 aa 01 00
	00		 jne	 $LN341@gEventMons
$LN314@gEventMons:

; 4832 : 		{
; 4833 : 			Option1 = 0;
; 4834 : 			Option2 = 0;
; 4835 : 			Option3 = 0;
; 4836 : 
; 4837 : 			if( rand() %10000 < g_OldScrollDropRate )

  0134a	e8 00 00 00 00	 call	 _rand
  0134f	99		 cdq
  01350	bb 10 27 00 00	 mov	 ebx, 10000		; 00002710H
  01355	f7 fb		 idiv	 ebx
  01357	3b 15 00 00 00
	00		 cmp	 edx, DWORD PTR ?g_OldScrollDropRate@@3HA ; g_OldScrollDropRate
  0135d	0f 8d c1 00 00
	00		 jge	 $LN239@gEventMons

; 4838 : 			{
; 4839 : 				dur = 0;
; 4840 : 				x = lpObj->X;

  01363	0f b6 86 20 01
	00 00		 movzx	 eax, BYTE PTR [esi+288]
  0136a	89 45 f0	 mov	 DWORD PTR _x$17$[ebp], eax

; 4841 : 				y = lpObj->Y;

  0136d	0f b6 86 21 01
	00 00		 movzx	 eax, BYTE PTR [esi+289]
  01374	89 45 f8	 mov	 DWORD PTR _y$17$[ebp], eax

; 4842 : 
; 4843 : 				if( lpObj->Level >= 66 )

  01377	0f b7 86 96 00
	00 00		 movzx	 eax, WORD PTR [esi+150]
  0137e	c6 45 fc 00	 mov	 BYTE PTR _dur$[ebp], 0
  01382	66 83 f8 42	 cmp	 ax, 66			; 00000042H
  01386	0f 8c 98 00 00
	00		 jl	 $LN239@gEventMons

; 4844 : 				{
; 4845 : 					if( lpObj->Level < 72 )

  0138c	66 83 f8 48	 cmp	 ax, 72			; 00000048H
  01390	7d 07		 jge	 SHORT $LN226@gEventMons

; 4846 : 						level = 1;

  01392	bb 01 00 00 00	 mov	 ebx, 1
  01397	eb 3b		 jmp	 SHORT $LN315@gEventMons
$LN226@gEventMons:

; 4847 : 					else if( lpObj->Level < 78 )

  01399	66 83 f8 4e	 cmp	 ax, 78			; 0000004eH
  0139d	7d 07		 jge	 SHORT $LN228@gEventMons

; 4848 : 						level = 2;

  0139f	bb 02 00 00 00	 mov	 ebx, 2
  013a4	eb 2e		 jmp	 SHORT $LN315@gEventMons
$LN228@gEventMons:

; 4849 : 					else if( lpObj->Level < 84 )

  013a6	66 83 f8 54	 cmp	 ax, 84			; 00000054H
  013aa	7d 07		 jge	 SHORT $LN230@gEventMons

; 4850 : 						level = 3;

  013ac	bb 03 00 00 00	 mov	 ebx, 3
  013b1	eb 21		 jmp	 SHORT $LN315@gEventMons
$LN230@gEventMons:

; 4851 : 					else if( lpObj->Level < 90 )

  013b3	66 83 f8 5a	 cmp	 ax, 90			; 0000005aH
  013b7	7d 07		 jge	 SHORT $LN232@gEventMons

; 4852 : 						level = 4;

  013b9	bb 04 00 00 00	 mov	 ebx, 4
  013be	eb 14		 jmp	 SHORT $LN315@gEventMons
$LN232@gEventMons:

; 4853 : 					else if( lpObj->Level < 96 )

  013c0	66 83 f8 60	 cmp	 ax, 96			; 00000060H
  013c4	7c 09		 jl	 SHORT $LN371@gEventMons

; 4854 : 						level = 5;
; 4855 : 					else
; 4856 : 						if( g_bMaxLevelIllusion )

  013c6	83 3d 00 00 00
	00 00		 cmp	 DWORD PTR ?g_bMaxLevelIllusion@@3HA, 0 ; g_bMaxLevelIllusion
  013cd	75 55		 jne	 SHORT $LN239@gEventMons
$LN371@gEventMons:

; 4857 : 							level = 6;
; 4858 : 						else
; 4859 : 							level = 5;

  013cf	bb 05 00 00 00	 mov	 ebx, 5
$LN315@gEventMons:

; 4860 : 
; 4861 : 					if( level != 6 )
; 4862 : 					{
; 4863 : 						type = ItemGetNumberMake(13,49);

  013d4	6a 31		 push	 49			; 00000031H
  013d6	6a 0d		 push	 13			; 0000000dH
  013d8	e8 00 00 00 00	 call	 ?ItemGetNumberMake@@YAHHH@Z ; ItemGetNumberMake

; 4864 : 
; 4865 : 						int iMaxHitUser = gObjMonsterTopHitDamageUser(lpObj);
; 4866 : 	
; 4867 : 						if( ItemAttribute[type].MondownFlag != 0 )

  013dd	6b c8 70	 imul	 ecx, eax, 112
  013e0	83 c4 08	 add	 esp, 8
  013e3	89 45 f4	 mov	 DWORD PTR _type$38$[ebp], eax
  013e6	80 b9 27 00 00
	00 00		 cmp	 BYTE PTR ?ItemAttribute@@3PAUITEM_ATTRIBUTE@@A[ecx+39], 0
  013ed	74 30		 je	 SHORT $LN342@gEventMons

; 4868 : 						{
; 4869 : 							ItemSerialCreateSend(lpTargetObj->m_Index, lpObj->MapNumber, x, y, type, level, dur,

  013ef	6a 00		 push	 0
  013f1	6a 00		 push	 0
  013f3	6a 00		 push	 0
  013f5	6a 00		 push	 0
  013f7	56		 push	 esi
  013f8	e8 00 00 00 00	 call	 ?gObjMonsterTopHitDamageUser@@YAHPAUOBJECTSTRUCT@@@Z ; gObjMonsterTopHitDamageUser
  013fd	83 c4 04	 add	 esp, 4
  01400	50		 push	 eax
  01401	0f b6 86 23 01
	00 00		 movzx	 eax, BYTE PTR [esi+291]
  01408	6a 00		 push	 0
  0140a	6a 00		 push	 0
  0140c	6a 00		 push	 0
  0140e	6a 00		 push	 0
  01410	53		 push	 ebx
  01411	ff 75 f4	 push	 DWORD PTR _type$38$[ebp]
  01414	ff 75 f8	 push	 DWORD PTR _y$17$[ebp]
  01417	ff 75 f0	 push	 DWORD PTR _x$17$[ebp]

; 4870 : 								Option1,Option2,Option3, iMaxHitUser, 0, 0);
; 4871 : 							return TRUE;

  0141a	e9 96 fb ff ff	 jmp	 $LN389@gEventMons
$LN342@gEventMons:
  0141f	bb 10 27 00 00	 mov	 ebx, 10000		; 00002710H
$LN239@gEventMons:

; 4872 : 						}
; 4873 : 					}
; 4874 : 				}
; 4875 : 			}
; 4876 : 
; 4877 : 			if( rand() %10000 < g_CovenantDropRate )

  01424	e8 00 00 00 00	 call	 _rand
  01429	99		 cdq
  0142a	f7 fb		 idiv	 ebx
  0142c	3b 15 00 00 00
	00		 cmp	 edx, DWORD PTR ?g_CovenantDropRate@@3HA ; g_CovenantDropRate
  01432	0f 8d c1 00 00
	00		 jge	 $LN255@gEventMons

; 4878 : 			{
; 4879 : 				dur = 0;
; 4880 : 				x = lpObj->X;

  01438	0f b6 86 20 01
	00 00		 movzx	 eax, BYTE PTR [esi+288]
  0143f	89 45 f8	 mov	 DWORD PTR _x$18$[ebp], eax

; 4881 : 				y = lpObj->Y;

  01442	0f b6 86 21 01
	00 00		 movzx	 eax, BYTE PTR [esi+289]
  01449	89 45 f4	 mov	 DWORD PTR _y$18$[ebp], eax

; 4882 : 
; 4883 : 				if( lpObj->Level >= 70 )

  0144c	0f b7 86 96 00
	00 00		 movzx	 eax, WORD PTR [esi+150]
  01453	c6 45 fc 00	 mov	 BYTE PTR _dur$[ebp], 0
  01457	66 83 f8 46	 cmp	 ax, 70			; 00000046H
  0145b	0f 8c 98 00 00
	00		 jl	 $LN255@gEventMons

; 4884 : 				{
; 4885 : 					if( lpObj->Level < 76 )

  01461	66 83 f8 4c	 cmp	 ax, 76			; 0000004cH
  01465	7d 07		 jge	 SHORT $LN242@gEventMons

; 4886 : 						level = 1;

  01467	bb 01 00 00 00	 mov	 ebx, 1
  0146c	eb 3b		 jmp	 SHORT $LN316@gEventMons
$LN242@gEventMons:

; 4887 : 					else if( lpObj->Level < 82 )

  0146e	66 83 f8 52	 cmp	 ax, 82			; 00000052H
  01472	7d 07		 jge	 SHORT $LN244@gEventMons

; 4888 : 						level = 2;

  01474	bb 02 00 00 00	 mov	 ebx, 2
  01479	eb 2e		 jmp	 SHORT $LN316@gEventMons
$LN244@gEventMons:

; 4889 : 					else if( lpObj->Level < 88 )

  0147b	66 83 f8 58	 cmp	 ax, 88			; 00000058H
  0147f	7d 07		 jge	 SHORT $LN246@gEventMons

; 4890 : 						level = 3;

  01481	bb 03 00 00 00	 mov	 ebx, 3
  01486	eb 21		 jmp	 SHORT $LN316@gEventMons
$LN246@gEventMons:

; 4891 : 					else if( lpObj->Level < 94 )

  01488	66 83 f8 5e	 cmp	 ax, 94			; 0000005eH
  0148c	7d 07		 jge	 SHORT $LN248@gEventMons

; 4892 : 						level = 4;

  0148e	bb 04 00 00 00	 mov	 ebx, 4
  01493	eb 14		 jmp	 SHORT $LN316@gEventMons
$LN248@gEventMons:

; 4893 : 					else if( lpObj->Level < 100 )

  01495	66 83 f8 64	 cmp	 ax, 100			; 00000064H
  01499	7c 09		 jl	 SHORT $LN372@gEventMons

; 4894 : 						level = 5;
; 4895 : 					else
; 4896 : 						if( g_bMaxLevelIllusion )

  0149b	83 3d 00 00 00
	00 00		 cmp	 DWORD PTR ?g_bMaxLevelIllusion@@3HA, 0 ; g_bMaxLevelIllusion
  014a2	75 55		 jne	 SHORT $LN255@gEventMons
$LN372@gEventMons:

; 4897 : 							level = 6;
; 4898 : 						else
; 4899 : 							level = 5;

  014a4	bb 05 00 00 00	 mov	 ebx, 5
$LN316@gEventMons:

; 4900 : 
; 4901 : 					if( level != 6 )
; 4902 : 					{
; 4903 : 						type = ItemGetNumberMake(13,50);

  014a9	6a 32		 push	 50			; 00000032H
  014ab	6a 0d		 push	 13			; 0000000dH
  014ad	e8 00 00 00 00	 call	 ?ItemGetNumberMake@@YAHHH@Z ; ItemGetNumberMake

; 4904 : 
; 4905 : 						int iMaxHitUser = gObjMonsterTopHitDamageUser(lpObj);
; 4906 : 	
; 4907 : 						if( ItemAttribute[type].MondownFlag != 0 )

  014b2	6b c8 70	 imul	 ecx, eax, 112
  014b5	83 c4 08	 add	 esp, 8
  014b8	89 45 f0	 mov	 DWORD PTR _type$39$[ebp], eax
  014bb	80 b9 27 00 00
	00 00		 cmp	 BYTE PTR ?ItemAttribute@@3PAUITEM_ATTRIBUTE@@A[ecx+39], 0
  014c2	74 30		 je	 SHORT $LN341@gEventMons

; 4908 : 						{
; 4909 : 							ItemSerialCreateSend(lpTargetObj->m_Index, lpObj->MapNumber, x, y, type, level, dur,

  014c4	6a 00		 push	 0
  014c6	6a 00		 push	 0
  014c8	6a 00		 push	 0
  014ca	6a 00		 push	 0
  014cc	56		 push	 esi
  014cd	e8 00 00 00 00	 call	 ?gObjMonsterTopHitDamageUser@@YAHPAUOBJECTSTRUCT@@@Z ; gObjMonsterTopHitDamageUser
  014d2	83 c4 04	 add	 esp, 4
  014d5	50		 push	 eax
  014d6	0f b6 86 23 01
	00 00		 movzx	 eax, BYTE PTR [esi+291]
  014dd	6a 00		 push	 0
  014df	6a 00		 push	 0
  014e1	6a 00		 push	 0
  014e3	6a 00		 push	 0
  014e5	53		 push	 ebx
  014e6	ff 75 f0	 push	 DWORD PTR _type$39$[ebp]
  014e9	ff 75 f4	 push	 DWORD PTR _y$18$[ebp]
  014ec	ff 75 f8	 push	 DWORD PTR _x$18$[ebp]

; 4910 : 								Option1,Option2,Option3, iMaxHitUser, 0, 0);
; 4911 : 							return TRUE;

  014ef	e9 c1 fa ff ff	 jmp	 $LN389@gEventMons
$LN341@gEventMons:
  014f4	bb 10 27 00 00	 mov	 ebx, 10000		; 00002710H
$LN255@gEventMons:

; 4912 : 						}
; 4913 : 					}
; 4914 : 				}
; 4915 : 			}
; 4916 : 		}
; 4917 : 	}
; 4918 : 
; 4919 : 	if( g_bCherryBlossomEvent )

  014f9	83 3d 00 00 00
	00 00		 cmp	 DWORD PTR ?g_bCherryBlossomEvent@@3HA, 0 ; g_bCherryBlossomEvent
  01500	74 53		 je	 SHORT $LN261@gEventMons

; 4920 : 	{
; 4921 : 		bool bIsBossMonster = false;
; 4922 : 
; 4923 : 		if ( lpObj->m_Index == 349 || lpObj->m_Index == 364 || lpObj->m_Index == 361 ||
; 4924 : 			 lpObj->m_Index == 362 || lpObj->m_Index == 363 )

  01502	8b 06		 mov	 eax, DWORD PTR [esi]
  01504	3d 5d 01 00 00	 cmp	 eax, 349		; 0000015dH
  01509	74 4a		 je	 SHORT $LN261@gEventMons
  0150b	3d 6c 01 00 00	 cmp	 eax, 364		; 0000016cH
  01510	74 43		 je	 SHORT $LN261@gEventMons
  01512	3d 69 01 00 00	 cmp	 eax, 361		; 00000169H
  01517	74 3c		 je	 SHORT $LN261@gEventMons
  01519	3d 6a 01 00 00	 cmp	 eax, 362		; 0000016aH
  0151e	74 35		 je	 SHORT $LN261@gEventMons
  01520	3d 6b 01 00 00	 cmp	 eax, 363		; 0000016bH
  01525	74 2e		 je	 SHORT $LN261@gEventMons

; 4925 : 			bIsBossMonster = true;
; 4926 : 
; 4927 : 		if ( !bIsBossMonster )
; 4928 : 		{
; 4929 : 			if ( (rand()%10000) < g_iCherryBlossomDropRate )

  01527	e8 00 00 00 00	 call	 _rand
  0152c	99		 cdq
  0152d	f7 fb		 idiv	 ebx
  0152f	3b 15 00 00 00
	00		 cmp	 edx, DWORD PTR ?g_iCherryBlossomDropRate@@3HA ; g_iCherryBlossomDropRate
  01535	7d 1e		 jge	 SHORT $LN261@gEventMons

; 4930 : 			{
; 4931 : 				type = ItemGetNumberMake(14,84);

  01537	6a 54		 push	 84			; 00000054H
  01539	6a 0e		 push	 14			; 0000000eH
  0153b	e8 00 00 00 00	 call	 ?ItemGetNumberMake@@YAHHH@Z ; ItemGetNumberMake
  01540	8b d8		 mov	 ebx, eax
  01542	83 c4 08	 add	 esp, 8

; 4932 : 				level = 0;
; 4933 : 				x = lpObj->X;
; 4934 : 				y = lpObj->Y;
; 4935 : 				int iMaxHitUser = gObjMonsterTopHitDamageUser(lpObj);
; 4936 : 	
; 4937 : 				if( ItemAttribute[type].MondownFlag != 0 )

  01545	6b cb 70	 imul	 ecx, ebx, 112
  01548	80 b9 27 00 00
	00 00		 cmp	 BYTE PTR ?ItemAttribute@@3PAUITEM_ATTRIBUTE@@A[ecx+39], 0
  0154f	0f 85 e9 fc ff
	ff		 jne	 $LN392@gEventMons
$LN261@gEventMons:

; 4938 : 				{
; 4939 : 					ItemSerialCreateSend(lpTargetObj->m_Index, lpObj->MapNumber, x, y, type, level, dur,
; 4940 : 						Option1,Option2,Option3, iMaxHitUser, 0, 0);
; 4941 : 					return TRUE;
; 4942 : 				}
; 4943 : 			}
; 4944 : 		}
; 4945 : 	}
; 4946 : 
; 4947 : 	if( g_ImperialGuardian.IsEnableEvent() )

  01555	80 3d 11 00 00
	00 00		 cmp	 BYTE PTR ?g_ImperialGuardian@@3VCImperialGuardian@@A+17, 0
  0155c	0f 84 92 00 00
	00		 je	 $LN346@gEventMons

; 4948 : 	{
; 4949 : 		LPMONSTER_ATTRIBUTE lpAttr = gMAttr.GetAttr(lpObj->Class);

  01562	0f b7 86 90 00
	00 00		 movzx	 eax, WORD PTR [esi+144]
  01569	b9 00 00 00 00	 mov	 ecx, OFFSET ?gMAttr@@3VCMonsterAttr@@A ; gMAttr
  0156e	50		 push	 eax
  0156f	e8 00 00 00 00	 call	 ?GetAttr@CMonsterAttr@@QAEPAUMONSTER_ATTRIBUTE@@H@Z ; CMonsterAttr::GetAttr

; 4950 : 
; 4951 : 		if( lpAttr != 0 && lpAttr->m_Level > 30 )

  01574	85 c0		 test	 eax, eax
  01576	74 7c		 je	 SHORT $LN346@gEventMons
  01578	83 78 44 1e	 cmp	 DWORD PTR [eax+68], 30	; 0000001eH
  0157c	7e 76		 jle	 SHORT $LN346@gEventMons

; 4952 : 		{
; 4953 : 			if( rand()%10000 < g_nMysteriousPaperDropRate )

  0157e	e8 00 00 00 00	 call	 _rand
  01583	99		 cdq
  01584	bb 10 27 00 00	 mov	 ebx, 10000		; 00002710H
  01589	f7 fb		 idiv	 ebx
  0158b	3b 15 00 00 00
	00		 cmp	 edx, DWORD PTR ?g_nMysteriousPaperDropRate@@3HA ; g_nMysteriousPaperDropRate
  01591	7d 66		 jge	 SHORT $LN265@gEventMons

; 4954 : 			{
; 4955 : 				Option1 = 0;
; 4956 : 				Option2 = 0;
; 4957 : 				Option3 = 0;
; 4958 : 				level = 0;
; 4959 : 				dur = 1;
; 4960 : 				x = lpObj->X;

  01593	0f b6 86 20 01
	00 00		 movzx	 eax, BYTE PTR [esi+288]
  0159a	89 45 f4	 mov	 DWORD PTR _x$19$[ebp], eax

; 4961 : 				y = lpObj->Y;

  0159d	0f b6 86 21 01
	00 00		 movzx	 eax, BYTE PTR [esi+289]

; 4962 : 				type = ItemGetNumberMake(14,101);

  015a4	6a 65		 push	 101			; 00000065H
  015a6	6a 0e		 push	 14			; 0000000eH
  015a8	c6 45 fc 01	 mov	 BYTE PTR _dur$[ebp], 1
  015ac	89 45 f0	 mov	 DWORD PTR _y$19$[ebp], eax
  015af	e8 00 00 00 00	 call	 ?ItemGetNumberMake@@YAHHH@Z ; ItemGetNumberMake
  015b4	8b d8		 mov	 ebx, eax
  015b6	83 c4 08	 add	 esp, 8

; 4963 : 				int iMaxHitUser = gObjMonsterTopHitDamageUser(lpObj);
; 4964 : 
; 4965 : 				if( ItemAttribute[type].MondownFlag != 0 )

  015b9	6b cb 70	 imul	 ecx, ebx, 112
  015bc	80 b9 27 00 00
	00 00		 cmp	 BYTE PTR ?ItemAttribute@@3PAUITEM_ATTRIBUTE@@A[ecx+39], 0
  015c3	74 2f		 je	 SHORT $LN346@gEventMons

; 4966 : 				{
; 4967 : 					ItemSerialCreateSend(lpTargetObj->m_Index, lpObj->MapNumber, x, y, type, level, dur,

  015c5	6a 00		 push	 0
  015c7	6a 00		 push	 0
  015c9	6a 00		 push	 0
  015cb	6a 00		 push	 0
  015cd	56		 push	 esi
  015ce	e8 00 00 00 00	 call	 ?gObjMonsterTopHitDamageUser@@YAHPAUOBJECTSTRUCT@@@Z ; gObjMonsterTopHitDamageUser
  015d3	83 c4 04	 add	 esp, 4
  015d6	50		 push	 eax
  015d7	0f b6 86 23 01
	00 00		 movzx	 eax, BYTE PTR [esi+291]
  015de	6a 00		 push	 0
  015e0	6a 00		 push	 0
  015e2	6a 00		 push	 0
  015e4	6a 01		 push	 1
  015e6	6a 00		 push	 0
  015e8	53		 push	 ebx
  015e9	ff 75 f0	 push	 DWORD PTR _y$19$[ebp]
  015ec	ff 75 f4	 push	 DWORD PTR _x$19$[ebp]

; 4968 : 							Option1,Option2,Option3, iMaxHitUser, 0, 0);
; 4969 : 					return TRUE;

  015ef	e9 c1 f9 ff ff	 jmp	 $LN389@gEventMons
$LN346@gEventMons:
  015f4	bb 10 27 00 00	 mov	 ebx, 10000		; 00002710H
$LN265@gEventMons:

; 4970 : 				}
; 4971 : 			}
; 4972 : 		}
; 4973 : 	}
; 4974 : 
; 4975 : 	if( gDoubleGoer.bEnabled && !DG_MAP_RANGE(lpObj->MapNumber) )

  015f9	83 3d 04 00 00
	00 00		 cmp	 DWORD PTR ?gDoubleGoer@@3VCDoubleGoerEvent@@A+4, 0
  01600	74 4d		 je	 SHORT $LN268@gEventMons
  01602	8a 86 23 01 00
	00		 mov	 al, BYTE PTR [esi+291]
  01608	3c 41		 cmp	 al, 65			; 00000041H
  0160a	72 0b		 jb	 SHORT $LN318@gEventMons
  0160c	b1 44		 mov	 cl, 68			; 00000044H
  0160e	3a c8		 cmp	 cl, al
  01610	1b c0		 sbb	 eax, eax
  01612	83 c0 01	 add	 eax, 1
  01615	75 38		 jne	 SHORT $LN268@gEventMons
$LN318@gEventMons:

; 4976 : 	{
; 4977 : 		if( lpObj->Level > 35 && (rand()%10000) < gDoubleGoer.m_iMirrorDropRate )

  01617	66 83 be 96 00
	00 00 23	 cmp	 WORD PTR [esi+150], 35	; 00000023H
  0161f	7e 2e		 jle	 SHORT $LN268@gEventMons
  01621	e8 00 00 00 00	 call	 _rand
  01626	99		 cdq
  01627	f7 fb		 idiv	 ebx
  01629	3b 15 0c 00 00
	00		 cmp	 edx, DWORD PTR ?gDoubleGoer@@3VCDoubleGoerEvent@@A+12
  0162f	7d 1e		 jge	 SHORT $LN268@gEventMons

; 4978 : 		{
; 4979 : 			type = ItemGetNumberMake(14,110);

  01631	6a 6e		 push	 110			; 0000006eH
  01633	6a 0e		 push	 14			; 0000000eH
  01635	e8 00 00 00 00	 call	 ?ItemGetNumberMake@@YAHHH@Z ; ItemGetNumberMake
  0163a	8b d8		 mov	 ebx, eax
  0163c	83 c4 08	 add	 esp, 8

; 4980 : 			level = 0;
; 4981 : 			x = lpObj->X;
; 4982 : 			y = lpObj->Y;
; 4983 : 			int iMaxHitUser = gObjMonsterTopHitDamageUser(lpObj);
; 4984 : 	
; 4985 : 			if( ItemAttribute[type].MondownFlag != 0 )

  0163f	6b cb 70	 imul	 ecx, ebx, 112
  01642	80 b9 27 00 00
	00 00		 cmp	 BYTE PTR ?ItemAttribute@@3PAUITEM_ATTRIBUTE@@A[ecx+39], 0
  01649	0f 85 ef fb ff
	ff		 jne	 $LN392@gEventMons
$LN268@gEventMons:

; 4986 : 			{
; 4987 : 				ItemSerialCreateSend(lpTargetObj->m_Index, lpObj->MapNumber, x, y, type, level, dur,
; 4988 : 					Option1,Option2,Option3, iMaxHitUser, 0, 0);
; 4989 : 				return TRUE;
; 4990 : 			}
; 4991 : 		}
; 4992 : 	}
; 4993 : 
; 4994 : 	if( lpObj->MapNumber == MAP_INDEX_RAKLION )

  0164f	80 be 23 01 00
	00 39		 cmp	 BYTE PTR [esi+291], 57	; 00000039H
  01656	0f 85 2f 01 00
	00		 jne	 $LN277@gEventMons

; 4995 : 	{
; 4996 : 		if( lpObj->Level >= g_SocketRecipe_DropLevel && 

  0165c	0f bf 86 96 00
	00 00		 movsx	 eax, WORD PTR [esi+150]
  01663	3b 05 00 00 00
	00		 cmp	 eax, DWORD PTR ?g_SocketRecipe_DropLevel@@3HA ; g_SocketRecipe_DropLevel
  01669	7c 34		 jl	 SHORT $LN355@gEventMons
  0166b	e8 00 00 00 00	 call	 _rand
  01670	99		 cdq
  01671	bb 10 27 00 00	 mov	 ebx, 10000		; 00002710H
  01676	f7 fb		 idiv	 ebx
  01678	3b 15 00 00 00
	00		 cmp	 edx, DWORD PTR ?g_SocketRecipe_DropRate@@3HA ; g_SocketRecipe_DropRate
  0167e	7d 24		 jge	 SHORT $LN271@gEventMons

; 4997 : 			(rand()%10000) < g_SocketRecipe_DropRate )
; 4998 : 		{
; 4999 : 			type = ITEMGET(14,191+(rand()%12));

  01680	e8 00 00 00 00	 call	 _rand
  01685	99		 cdq
  01686	b9 0c 00 00 00	 mov	 ecx, 12			; 0000000cH
  0168b	f7 f9		 idiv	 ecx
  0168d	8d 9a bf 1c 00
	00		 lea	 ebx, DWORD PTR [edx+7359]

; 5000 : 			level = 0;
; 5001 : 			x = lpObj->X;
; 5002 : 			y = lpObj->Y;
; 5003 : 			dur = 1;
; 5004 : 
; 5005 : 			int iMaxHitUser = gObjMonsterTopHitDamageUser(lpObj);
; 5006 : 			
; 5007 : 			if( ItemAttribute[type].MondownFlag != 0 )

  01693	6b c3 70	 imul	 eax, ebx, 112
  01696	80 b8 27 00 00
	00 00		 cmp	 BYTE PTR ?ItemAttribute@@3PAUITEM_ATTRIBUTE@@A[eax+39], 0
  0169d	75 59		 jne	 SHORT $LN394@gEventMons
$LN355@gEventMons:
  0169f	bb 10 27 00 00	 mov	 ebx, 10000		; 00002710H
$LN271@gEventMons:

; 5008 : 			{
; 5009 : 				ItemSerialCreateSend(lpTargetObj->m_Index, lpObj->MapNumber, x, y, type, level, dur,
; 5010 : 					Option1,Option2,Option3, iMaxHitUser, 0, 0);
; 5011 : 				return TRUE;
; 5012 : 			}
; 5013 : 		}
; 5014 : 
; 5015 : 		switch( lpObj->Class )

  016a4	0f b7 86 90 00
	00 00		 movzx	 eax, WORD PTR [esi+144]
  016ab	05 3a fe ff ff	 add	 eax, -454		; fffffe3aH
  016b0	83 f8 6f	 cmp	 eax, 111		; 0000006fH
  016b3	0f 87 d2 00 00
	00		 ja	 $LN277@gEventMons
  016b9	0f b6 80 00 00
	00 00		 movzx	 eax, BYTE PTR $LN320@gEventMons[eax]
  016c0	ff 24 85 00 00
	00 00		 jmp	 DWORD PTR $LN397@gEventMons[eax*4]
$LN272@gEventMons:

; 5016 : 		{
; 5017 : 		case 454:
; 5018 : 		case 455:
; 5019 : 		case 456:
; 5020 : 		case 457:
; 5021 : 		case 458:
; 5022 : 			if( (rand()%10000) < g_SocketMaterial_Lv1 )

  016c7	e8 00 00 00 00	 call	 _rand
  016cc	99		 cdq
  016cd	f7 fb		 idiv	 ebx
  016cf	3b 15 00 00 00
	00		 cmp	 edx, DWORD PTR ?g_SocketMaterial_Lv1@@3HA ; g_SocketMaterial_Lv1
  016d5	0f 8d b0 00 00
	00		 jge	 $LN277@gEventMons

; 5023 : 			{
; 5024 : 				type = ITEMGET(14,180+(lpObj->Class-454));

  016db	0f b7 9e 90 00
	00 00		 movzx	 ebx, WORD PTR [esi+144]
  016e2	81 c3 ee 1a 00
	00		 add	 ebx, 6894		; 00001aeeH

; 5025 : 				level = 0;
; 5026 : 				x = lpObj->X;
; 5027 : 				y = lpObj->Y;
; 5028 : 				dur = 1;
; 5029 : 
; 5030 : 				int iMaxHitUser = gObjMonsterTopHitDamageUser(lpObj);
; 5031 : 
; 5032 : 				if( ItemAttribute[type].MondownFlag != 0 )

  016e8	6b c3 70	 imul	 eax, ebx, 112
  016eb	80 b8 27 00 00
	00 00		 cmp	 BYTE PTR ?ItemAttribute@@3PAUITEM_ATTRIBUTE@@A[eax+39], 0
  016f2	0f 84 93 00 00
	00		 je	 $LN277@gEventMons
$LN394@gEventMons:

; 5033 : 				{
; 5034 : 					ItemSerialCreateSend(lpTargetObj->m_Index, lpObj->MapNumber, x, y, type, level, dur,

  016f8	6a 00		 push	 0
  016fa	6a 00		 push	 0
  016fc	6a 00		 push	 0
  016fe	6a 00		 push	 0
  01700	56		 push	 esi
  01701	e8 00 00 00 00	 call	 ?gObjMonsterTopHitDamageUser@@YAHPAUOBJECTSTRUCT@@@Z ; gObjMonsterTopHitDamageUser
  01706	83 c4 04	 add	 esp, 4
  01709	50		 push	 eax
  0170a	6a 00		 push	 0
  0170c	6a 00		 push	 0
  0170e	6a 00		 push	 0
  01710	6a 01		 push	 1

; 5035 : 						Option1,Option2,Option3, iMaxHitUser, 0, 0);
; 5036 : 					return TRUE;

  01712	e9 42 fb ff ff	 jmp	 $LN393@gEventMons
$LN275@gEventMons:

; 5037 : 				}
; 5038 : 			}
; 5039 : 			break;
; 5040 : 		case 562:
; 5041 : 		case 563:
; 5042 : 		case 564:
; 5043 : 		case 565:
; 5044 : 			if( (rand()%10000) < g_SocketMaterial_Lv2 )

  01717	e8 00 00 00 00	 call	 _rand
  0171c	99		 cdq
  0171d	f7 fb		 idiv	 ebx
  0171f	3b 15 00 00 00
	00		 cmp	 edx, DWORD PTR ?g_SocketMaterial_Lv2@@3HA ; g_SocketMaterial_Lv2
  01725	7d 64		 jge	 SHORT $LN277@gEventMons

; 5045 : 			{
; 5046 : 				type = ITEMGET(14,185+(lpObj->Class-562));

  01727	0f b7 9e 90 00
	00 00		 movzx	 ebx, WORD PTR [esi+144]
  0172e	81 c3 87 1a 00
	00		 add	 ebx, 6791		; 00001a87H

; 5047 : 				level = 0;
; 5048 : 				x = lpObj->X;
; 5049 : 				y = lpObj->Y;
; 5050 : 				dur = 1;
; 5051 : 
; 5052 : 				int iMaxHitUser = gObjMonsterTopHitDamageUser(lpObj);
; 5053 : 
; 5054 : 				if( ItemAttribute[type].MondownFlag != 0 )

  01734	6b c3 70	 imul	 eax, ebx, 112
  01737	80 b8 27 00 00
	00 00		 cmp	 BYTE PTR ?ItemAttribute@@3PAUITEM_ATTRIBUTE@@A[eax+39], 0
  0173e	74 4b		 je	 SHORT $LN277@gEventMons

; 5055 : 				{
; 5056 : 					ItemSerialCreateSend(lpTargetObj->m_Index, lpObj->MapNumber, x, y, type, level, dur,

  01740	6a 00		 push	 0
  01742	6a 00		 push	 0
  01744	6a 00		 push	 0
  01746	6a 00		 push	 0
  01748	56		 push	 esi
  01749	e8 00 00 00 00	 call	 ?gObjMonsterTopHitDamageUser@@YAHPAUOBJECTSTRUCT@@@Z ; gObjMonsterTopHitDamageUser
  0174e	83 c4 04	 add	 esp, 4
  01751	50		 push	 eax
  01752	0f b6 86 21 01
	00 00		 movzx	 eax, BYTE PTR [esi+289]
  01759	6a 00		 push	 0
  0175b	6a 00		 push	 0
  0175d	6a 00		 push	 0
  0175f	6a 01		 push	 1
  01761	6a 00		 push	 0
  01763	53		 push	 ebx
  01764	50		 push	 eax
  01765	0f b6 86 20 01
	00 00		 movzx	 eax, BYTE PTR [esi+288]
  0176c	50		 push	 eax
  0176d	0f b6 86 23 01
	00 00		 movzx	 eax, BYTE PTR [esi+291]
  01774	50		 push	 eax
  01775	ff 37		 push	 DWORD PTR [edi]
  01777	e8 00 00 00 00	 call	 ?ItemSerialCreateSend@@YAXHEEEHEEEEEHEEEPAE@Z ; ItemSerialCreateSend
  0177c	83 c4 3c	 add	 esp, 60			; 0000003cH

; 5057 : 						Option1,Option2,Option3, iMaxHitUser, 0, 0);
; 5058 : 					return TRUE;

  0177f	b8 01 00 00 00	 mov	 eax, 1
  01784	5f		 pop	 edi
  01785	5e		 pop	 esi
  01786	5b		 pop	 ebx

; 5066 : }

  01787	8b e5		 mov	 esp, ebp
  01789	5d		 pop	 ebp
  0178a	c3		 ret	 0
$LN277@gEventMons:
  0178b	5f		 pop	 edi
  0178c	5e		 pop	 esi

; 5059 : 				}
; 5060 : 			}
; 5061 : 			break;
; 5062 : 		}
; 5063 : 	}
; 5064 : 
; 5065 : 	return FALSE;

  0178d	33 c0		 xor	 eax, eax
  0178f	5b		 pop	 ebx

; 5066 : }

  01790	8b e5		 mov	 esp, ebp
  01792	5d		 pop	 ebp
  01793	c3		 ret	 0
$LN396@gEventMons:
  01794	00 00 00 00	 DD	 $LN110@gEventMons
  01798	00 00 00 00	 DD	 $LN112@gEventMons
$LN319@gEventMons:
  0179c	00		 DB	 0
  0179d	00		 DB	 0
  0179e	00		 DB	 0
  0179f	00		 DB	 0
  017a0	00		 DB	 0
  017a1	00		 DB	 0
  017a2	01		 DB	 1
  017a3	01		 DB	 1
  017a4	01		 DB	 1
  017a5	01		 DB	 1
  017a6	66 90		 npad	 2
$LN397@gEventMons:
  017a8	00 00 00 00	 DD	 $LN272@gEventMons
  017ac	00 00 00 00	 DD	 $LN275@gEventMons
  017b0	00 00 00 00	 DD	 $LN277@gEventMons
$LN320@gEventMons:
  017b4	00		 DB	 0
  017b5	00		 DB	 0
  017b6	00		 DB	 0
  017b7	00		 DB	 0
  017b8	00		 DB	 0
  017b9	02		 DB	 2
  017ba	02		 DB	 2
  017bb	02		 DB	 2
  017bc	02		 DB	 2
  017bd	02		 DB	 2
  017be	02		 DB	 2
  017bf	02		 DB	 2
  017c0	02		 DB	 2
  017c1	02		 DB	 2
  017c2	02		 DB	 2
  017c3	02		 DB	 2
  017c4	02		 DB	 2
  017c5	02		 DB	 2
  017c6	02		 DB	 2
  017c7	02		 DB	 2
  017c8	02		 DB	 2
  017c9	02		 DB	 2
  017ca	02		 DB	 2
  017cb	02		 DB	 2
  017cc	02		 DB	 2
  017cd	02		 DB	 2
  017ce	02		 DB	 2
  017cf	02		 DB	 2
  017d0	02		 DB	 2
  017d1	02		 DB	 2
  017d2	02		 DB	 2
  017d3	02		 DB	 2
  017d4	02		 DB	 2
  017d5	02		 DB	 2
  017d6	02		 DB	 2
  017d7	02		 DB	 2
  017d8	02		 DB	 2
  017d9	02		 DB	 2
  017da	02		 DB	 2
  017db	02		 DB	 2
  017dc	02		 DB	 2
  017dd	02		 DB	 2
  017de	02		 DB	 2
  017df	02		 DB	 2
  017e0	02		 DB	 2
  017e1	02		 DB	 2
  017e2	02		 DB	 2
  017e3	02		 DB	 2
  017e4	02		 DB	 2
  017e5	02		 DB	 2
  017e6	02		 DB	 2
  017e7	02		 DB	 2
  017e8	02		 DB	 2
  017e9	02		 DB	 2
  017ea	02		 DB	 2
  017eb	02		 DB	 2
  017ec	02		 DB	 2
  017ed	02		 DB	 2
  017ee	02		 DB	 2
  017ef	02		 DB	 2
  017f0	02		 DB	 2
  017f1	02		 DB	 2
  017f2	02		 DB	 2
  017f3	02		 DB	 2
  017f4	02		 DB	 2
  017f5	02		 DB	 2
  017f6	02		 DB	 2
  017f7	02		 DB	 2
  017f8	02		 DB	 2
  017f9	02		 DB	 2
  017fa	02		 DB	 2
  017fb	02		 DB	 2
  017fc	02		 DB	 2
  017fd	02		 DB	 2
  017fe	02		 DB	 2
  017ff	02		 DB	 2
  01800	02		 DB	 2
  01801	02		 DB	 2
  01802	02		 DB	 2
  01803	02		 DB	 2
  01804	02		 DB	 2
  01805	02		 DB	 2
  01806	02		 DB	 2
  01807	02		 DB	 2
  01808	02		 DB	 2
  01809	02		 DB	 2
  0180a	02		 DB	 2
  0180b	02		 DB	 2
  0180c	02		 DB	 2
  0180d	02		 DB	 2
  0180e	02		 DB	 2
  0180f	02		 DB	 2
  01810	02		 DB	 2
  01811	02		 DB	 2
  01812	02		 DB	 2
  01813	02		 DB	 2
  01814	02		 DB	 2
  01815	02		 DB	 2
  01816	02		 DB	 2
  01817	02		 DB	 2
  01818	02		 DB	 2
  01819	02		 DB	 2
  0181a	02		 DB	 2
  0181b	02		 DB	 2
  0181c	02		 DB	 2
  0181d	02		 DB	 2
  0181e	02		 DB	 2
  0181f	02		 DB	 2
  01820	01		 DB	 1
  01821	01		 DB	 1
  01822	01		 DB	 1
  01823	01		 DB	 1
?gEventMonsterItemDrop@@YAHPAUOBJECTSTRUCT@@0@Z ENDP	; gEventMonsterItemDrop
_TEXT	ENDS
; Function compile flags: /Ogtp
; File c:\users\michel\desktop\source\gameserver\source\gobjmonster.cpp
;	COMDAT ?gObjMonsterDieGiveItem@@YAXPAUOBJECTSTRUCT@@0@Z
_TEXT	SEGMENT
_y$3$ = -60						; size = 4
tv1491 = -60						; size = 4
_Option1$1$ = -56					; size = 4
_Option2$1$ = -52					; size = 4
_Option3$1$ = -48					; size = 4
_MoneyControl$1$ = -41					; size = 1
_level$3$ = -40						; size = 4
_DropItem$1$ = -40					; size = 4
_ItemDropPer$1$ = -36					; size = 4
_y$1$ = -36						; size = 4
_x$3$ = -36						; size = 4
tv1553 = -36						; size = 4
_x$1$ = -32						; size = 4
_MaxHitUser$1$ = -32					; size = 4
_MaxHitUser$1$ = -32					; size = 4
_itemrate$2$ = -32					; size = 4
_dur$ = -32						; size = 1
tv1551 = -32						; size = 4
tv1331 = -32						; size = 4
_money$3$ = -28						; size = 4
_lpObj$GSCopy$1$ = -28					; size = 4
_ExtDropPer$1$ = -28					; size = 4
_item_drop$2$ = -24					; size = 4
_NOption$ = -24						; size = 1
_cDropX$1 = -24						; size = 1
_cDropX$2 = -24						; size = 1
_cDropX$3 = -24						; size = 1
_cDropX$4 = -24						; size = 1
_cDropX$5 = -24						; size = 1
_cDropX$6 = -24						; size = 1
_lpTargetObj$GSCopy$1$ = -20				; size = 4
_cDropY$7 = -20						; size = 1
_cDropY$8 = -20						; size = 1
_cDropY$9 = -20						; size = 1
_cDropY$10 = -20					; size = 1
_cDropY$11 = -20					; size = 1
_cDropY$12 = -20					; size = 1
tv1367 = -20						; size = 4
_money$13 = -20						; size = 4
_Level$14 = -16						; size = 12
_Level$15 = -12						; size = 8
_y$1$ = -8						; size = 4
_moneyrate$1$ = -8					; size = 4
__$ArrayPad$ = -4					; size = 4
_lpObj$ = 8						; size = 4
_lpTargetObj$ = 12					; size = 4
?gObjMonsterDieGiveItem@@YAXPAUOBJECTSTRUCT@@0@Z PROC	; gObjMonsterDieGiveItem, COMDAT

; 2979 : {

  00000	55		 push	 ebp
  00001	8b ec		 mov	 ebp, esp
  00003	83 ec 3c	 sub	 esp, 60			; 0000003cH
  00006	a1 00 00 00 00	 mov	 eax, DWORD PTR ___security_cookie
  0000b	33 c5		 xor	 eax, ebp
  0000d	89 45 fc	 mov	 DWORD PTR __$ArrayPad$[ebp], eax
  00010	53		 push	 ebx
  00011	8b 5d 08	 mov	 ebx, DWORD PTR _lpObj$[ebp]
  00014	56		 push	 esi
  00015	8b 75 0c	 mov	 esi, DWORD PTR _lpTargetObj$[ebp]
  00018	57		 push	 edi

; 2980 : 
; 2981 : 	int store_count=0;
; 2982 : 	int ExtDropPer=0;
; 2983 : 	int DropItemNum=0;
; 2984 : 	int type;
; 2985 : 	int level;
; 2986 : 	int x;
; 2987 : 	int y;
; 2988 : 	BYTE dur=0;
; 2989 : 	int Option1=0;
; 2990 : 	int Option2=0;
; 2991 : 	int Option3=0;
; 2992 : 	unsigned char NOption=0;
; 2993 : 	BOOL item_drop=0;
; 2994 : 	int n;
; 2995 : 	CItem * DropItem=NULL;

  00019	33 ff		 xor	 edi, edi
  0001b	89 5d e4	 mov	 DWORD PTR _lpObj$GSCopy$1$[ebp], ebx

; 2996 : 
; 2997 : #ifdef POINTEX
; 2998 : 	g_ShopPointEx.AddMonsterBonus(lpTargetObj->m_Index, lpObj->m_Index);
; 2999 : #endif
; 3000 : 
; 3001 : 	if( lpObj->Class == 55 )

  0001e	66 83 bb 90 00
	00 00 37	 cmp	 WORD PTR [ebx+144], 55	; 00000037H
  00026	89 75 ec	 mov	 DWORD PTR _lpTargetObj$GSCopy$1$[ebp], esi
  00029	c7 45 c8 00 00
	00 00		 mov	 DWORD PTR _Option1$1$[ebp], 0
  00030	c7 45 cc 00 00
	00 00		 mov	 DWORD PTR _Option2$1$[ebp], 0
  00037	c7 45 d0 00 00
	00 00		 mov	 DWORD PTR _Option3$1$[ebp], 0
  0003e	c7 45 e8 00 00
	00 00		 mov	 DWORD PTR _item_drop$2$[ebp], 0
  00045	89 7d d8	 mov	 DWORD PTR _DropItem$1$[ebp], edi
  00048	0f 85 b2 00 00
	00		 jne	 $LN18@gObjMonste

; 3002 : 	{
; 3003 : 		if ( rand()%10000 < g_iDeathKingBoneRate )

  0004e	e8 00 00 00 00	 call	 _rand
  00053	99		 cdq
  00054	b9 10 27 00 00	 mov	 ecx, 10000		; 00002710H
  00059	f7 f9		 idiv	 ecx
  0005b	3b 15 00 00 00
	00		 cmp	 edx, DWORD PTR ?g_iDeathKingBoneRate@@3HA ; g_iDeathKingBoneRate
  00061	0f 8d 99 00 00
	00		 jge	 $LN18@gObjMonste

; 3004 : 		{
; 3005 : 			int MaxHitUser = gObjMonsterTopHitDamageUser(lpObj);

  00067	53		 push	 ebx
  00068	e8 00 00 00 00	 call	 ?gObjMonsterTopHitDamageUser@@YAHPAUOBJECTSTRUCT@@@Z ; gObjMonsterTopHitDamageUser

; 3006 : 			type = ItemGetNumberMake(14, 176);

  0006d	68 b0 00 00 00	 push	 176			; 000000b0H
  00072	6a 0e		 push	 14			; 0000000eH
  00074	8b f0		 mov	 esi, eax
  00076	e8 00 00 00 00	 call	 ?ItemGetNumberMake@@YAHHH@Z ; ItemGetNumberMake
  0007b	8b f8		 mov	 edi, eax

; 3007 : 			BYTE cDropX = lpObj->X;

  0007d	8a 83 20 01 00
	00		 mov	 al, BYTE PTR [ebx+288]
  00083	88 45 e8	 mov	 BYTE PTR _cDropX$6[ebp], al

; 3008 : 			BYTE cDropY = lpObj->Y;

  00086	8a 83 21 01 00
	00		 mov	 al, BYTE PTR [ebx+289]

; 3009 : 			dur = 1;
; 3010 : 			level = 0;
; 3011 : 
; 3012 : 			if(!gObjGetRandomItemDropLocation(lpObj->MapNumber,cDropX,cDropY,2,2,10))

  0008c	6a 0a		 push	 10			; 0000000aH
  0008e	6a 02		 push	 2
  00090	88 45 ec	 mov	 BYTE PTR _cDropY$12[ebp], al
  00093	8d 45 ec	 lea	 eax, DWORD PTR _cDropY$12[ebp]
  00096	6a 02		 push	 2
  00098	50		 push	 eax
  00099	8d 45 e8	 lea	 eax, DWORD PTR _cDropX$6[ebp]
  0009c	50		 push	 eax
  0009d	0f b6 83 23 01
	00 00		 movzx	 eax, BYTE PTR [ebx+291]
  000a4	50		 push	 eax
  000a5	e8 00 00 00 00	 call	 ?gObjGetRandomItemDropLocation@@YAHHAAE0HHH@Z ; gObjGetRandomItemDropLocation
  000aa	83 c4 24	 add	 esp, 36			; 00000024H
  000ad	85 c0		 test	 eax, eax
  000af	75 12		 jne	 SHORT $LN19@gObjMonste

; 3013 : 			{
; 3014 : 				cDropX = lpObj->X;

  000b1	8a 83 20 01 00
	00		 mov	 al, BYTE PTR [ebx+288]
  000b7	88 45 e8	 mov	 BYTE PTR _cDropX$6[ebp], al

; 3015 : 				cDropY = lpObj->Y;

  000ba	8a 83 21 01 00
	00		 mov	 al, BYTE PTR [ebx+289]
  000c0	88 45 ec	 mov	 BYTE PTR _cDropY$12[ebp], al
$LN19@gObjMonste:

; 3016 : 			}
; 3017 : 
; 3018 : 			ItemSerialCreateSend(lpObj->m_Index, lpObj->MapNumber, cDropX, cDropY, type, level, dur,

  000c3	6a 00		 push	 0
  000c5	6a 00		 push	 0
  000c7	6a 00		 push	 0
  000c9	0f b6 83 23 01
	00 00		 movzx	 eax, BYTE PTR [ebx+291]
  000d0	6a 00		 push	 0
  000d2	56		 push	 esi
  000d3	6a 00		 push	 0
  000d5	6a 00		 push	 0
  000d7	6a 00		 push	 0
  000d9	6a 01		 push	 1
  000db	6a 00		 push	 0
  000dd	57		 push	 edi
  000de	ff 75 ec	 push	 DWORD PTR _cDropY$12[ebp]
  000e1	ff 75 e8	 push	 DWORD PTR _cDropX$6[ebp]
  000e4	50		 push	 eax
  000e5	ff 33		 push	 DWORD PTR [ebx]
  000e7	e8 00 00 00 00	 call	 ?ItemSerialCreateSend@@YAXHEEEHEEEEEHEEEPAE@Z ; ItemSerialCreateSend
  000ec	83 c4 3c	 add	 esp, 60			; 0000003cH
  000ef	5f		 pop	 edi
  000f0	5e		 pop	 esi
  000f1	5b		 pop	 ebx

; 3736 : 		}
; 3737 : 	}
; 3738 : }

  000f2	8b 4d fc	 mov	 ecx, DWORD PTR __$ArrayPad$[ebp]
  000f5	33 cd		 xor	 ecx, ebp
  000f7	e8 00 00 00 00	 call	 @__security_check_cookie@4
  000fc	8b e5		 mov	 esp, ebp
  000fe	5d		 pop	 ebp
  000ff	c3		 ret	 0
$LN18@gObjMonste:

; 3019 : 				Option1, Option2, Option3, MaxHitUser, 0, 0);
; 3020 : 			return;
; 3021 : 		}
; 3022 : 	}
; 3023 : 
; 3024 : 	if( g_EventItemBagManager.OpenMonster(lpObj->m_Index) )

  00100	ff 33		 push	 DWORD PTR [ebx]
  00102	b9 00 00 00 00	 mov	 ecx, OFFSET ?g_EventItemBagManager@@3VEventItemBagManager@@A ; g_EventItemBagManager
  00107	e8 00 00 00 00	 call	 ?OpenMonster@EventItemBagManager@@QAEEH@Z ; EventItemBagManager::OpenMonster
  0010c	84 c0		 test	 al, al
  0010e	0f 85 eb 10 00
	00		 jne	 $LN28@gObjMonste

; 3025 : 	{
; 3026 : 		return;
; 3027 : 	}
; 3028 : 
; 3029 : #if (ENABLETEST_ARCA == 1)
; 3030 : 	if( lpObj->MapNumber == MAP_INDEX_ACHERON )
; 3031 : 	{
; 3032 : 		int nMaxHitUser = gObjMonsterTopHitDamageUser(lpObj);
; 3033 : 		BYTE X = lpObj->X;
; 3034 : 		BYTE Y = lpObj->Y;
; 3035 : 		// ----
; 3036 : 		if( g_ArcaBattle.DropItem(lpTargetObj, lpObj->MapNumber, X, Y, nMaxHitUser) ) //Maybe not need check return
; 3037 : 		{
; 3038 : 			return;
; 3039 : 		}
; 3040 : 	}
; 3041 : #endif
; 3042 : 
; 3043 : #if (ENABLETEST_ACHERON == 1)
; 3044 : 	if (lpObj->Class >= 627 && lpObj->Class <= 631)
; 3045 : 	{
; 3046 : 		int nMaxHitUser = gObjMonsterTopHitDamageUser(lpObj);
; 3047 : 		LogAdd("[AcheronGuardianEvent] BossName: %s, CharacterName: %s", lpObj->Name, gObj[nMaxHitUser].Name);
; 3048 :         g_AcheronGuardianEvent.DestoryObelisk(&gObj[nMaxHitUser], lpObj->MapNumber, lpObj->X, lpObj->Y, nMaxHitUser);  
; 3049 : 		return;
; 3050 : 	}
; 3051 : #endif
; 3052 : 
; 3053 : #pragma message("CHECK ME!!!")
; 3054 : 	if( lpObj->Class >= 605 && lpObj->Class <= 607 )

  00114	0f b7 8b 90 00
	00 00		 movzx	 ecx, WORD PTR [ebx+144]
  0011b	b8 5d 02 00 00	 mov	 eax, 605		; 0000025dH
  00120	66 3b c8	 cmp	 cx, ax
  00123	72 0e		 jb	 SHORT $LN21@gObjMonste
  00125	b8 5f 02 00 00	 mov	 eax, 607		; 0000025fH
  0012a	66 3b c8	 cmp	 cx, ax
  0012d	0f 86 cc 10 00
	00		 jbe	 $LN28@gObjMonste
$LN21@gObjMonste:

; 3055 : 		return;
; 3056 : 	
; 3057 : 	if ( lpObj->Class == 249 || lpTargetObj->Class == 249 ||	// Guard
; 3058 : 		lpObj->Class == 247 || lpTargetObj->Class == 247 )	// Guard

  00133	ba f9 00 00 00	 mov	 edx, 249		; 000000f9H
  00138	66 3b ca	 cmp	 cx, dx
  0013b	0f 84 be 10 00
	00		 je	 $LN28@gObjMonste
  00141	0f b7 86 90 00
	00 00		 movzx	 eax, WORD PTR [esi+144]
  00148	66 3b c2	 cmp	 ax, dx
  0014b	0f 84 ae 10 00
	00		 je	 $LN28@gObjMonste
  00151	ba f7 00 00 00	 mov	 edx, 247		; 000000f7H
  00156	66 3b ca	 cmp	 cx, dx
  00159	0f 84 a0 10 00
	00		 je	 $LN28@gObjMonste
  0015f	66 3b c2	 cmp	 ax, dx
  00162	0f 84 97 10 00
	00		 je	 $LN28@gObjMonste

; 3059 : 	{
; 3060 : 		return;
; 3061 : 	}
; 3062 : 
; 3063 : 	if ( lpObj->m_RecallMon >= 0 )

  00168	39 bb 30 06 00
	00		 cmp	 DWORD PTR [ebx+1584], edi
  0016e	0f 8d 8b 10 00
	00		 jge	 $LN28@gObjMonste

; 3064 : 	{
; 3065 : 		return;
; 3066 : 	}
; 3067 : 	
; 3068 : 	if ( lpObj->Class == 131 )	// Castle Gate

  00174	b8 83 00 00 00	 mov	 eax, 131		; 00000083H
  00179	66 3b c8	 cmp	 cx, ax
  0017c	0f 84 7d 10 00
	00		 je	 $LN28@gObjMonste

; 3069 : 	{
; 3070 : 		return;
; 3071 : 	}
; 3072 : 	
; 3073 : 	if ( BC_STATUE_RANGE(lpObj->Class-132) )	// Blood Castle Statue

  00182	8b d1		 mov	 edx, ecx
  00184	81 c2 7c ff ff
	ff		 add	 edx, -132		; ffffff7cH
  0018a	78 10		 js	 SHORT $LN177@gObjMonste
  0018c	33 c0		 xor	 eax, eax
  0018e	83 fa 02	 cmp	 edx, 2
  00191	0f 9e c0	 setle	 al
  00194	85 c0		 test	 eax, eax
  00196	0f 85 63 10 00
	00		 jne	 $LN28@gObjMonste
$LN177@gObjMonste:

; 3074 : 	{
; 3075 : 		return;
; 3076 : 	}
; 3077 : 
; 3078 : 	if ( lpObj->Class == 460 ||
; 3079 : 		 lpObj->Class == 461 ||

  0019c	b8 cc 01 00 00	 mov	 eax, 460		; 000001ccH
  001a1	66 3b c8	 cmp	 cx, ax
  001a4	0f 84 55 10 00
	00		 je	 $LN28@gObjMonste
  001aa	b8 cd 01 00 00	 mov	 eax, 461		; 000001cdH
  001af	66 3b c8	 cmp	 cx, ax
  001b2	0f 84 47 10 00
	00		 je	 $LN28@gObjMonste
  001b8	b8 ce 01 00 00	 mov	 eax, 462		; 000001ceH
  001bd	66 3b c8	 cmp	 cx, ax
  001c0	0f 84 39 10 00
	00		 je	 $LN28@gObjMonste

; 3080 : 		 lpObj->Class == 462 )
; 3081 : 	{
; 3082 : 		return;
; 3083 : 	}
; 3084 : 
; 3085 : 	if ( lpObj->Class >= 524 && lpObj->Class <= 528 )

  001c6	b8 0c 02 00 00	 mov	 eax, 524		; 0000020cH
  001cb	66 3b c8	 cmp	 cx, ax
  001ce	72 0e		 jb	 SHORT $LN29@gObjMonste
  001d0	b8 10 02 00 00	 mov	 eax, 528		; 00000210H
  001d5	66 3b c8	 cmp	 cx, ax
  001d8	0f 86 21 10 00
	00		 jbe	 $LN28@gObjMonste
$LN29@gObjMonste:

; 3086 : 	{
; 3087 : 		return;
; 3088 : 	}
; 3089 : 
; 3090 : 	if ( CC_MAP_RANGE(lpObj->MapNumber) )

  001de	8a 8b 23 01 00
	00		 mov	 cl, BYTE PTR [ebx+291]
  001e4	80 f9 35	 cmp	 cl, 53			; 00000035H
  001e7	0f 84 eb 0f 00
	00		 je	 $LN178@gObjMonste
  001ed	80 f9 12	 cmp	 cl, 18			; 00000012H
  001f0	72 0f		 jb	 SHORT $LN30@gObjMonste
  001f2	b0 17		 mov	 al, 23			; 00000017H
  001f4	3a c1		 cmp	 al, cl
  001f6	1b c0		 sbb	 eax, eax
  001f8	83 c0 01	 add	 eax, 1
  001fb	0f 85 d7 0f 00
	00		 jne	 $LN178@gObjMonste
$LN30@gObjMonste:

; 3094 : 		return;
; 3095 : 	}
; 3096 : 
; 3097 : 	if ( lpObj->m_bIsInMonsterHerd )

  00201	39 bb 78 14 00
	00		 cmp	 DWORD PTR [ebx+5240], edi
  00207	74 18		 je	 SHORT $LN33@gObjMonste

; 3098 : 	{
; 3099 : 		MonsterHerd * lpMH = lpObj->m_lpMonsterHerd;

  00209	8b 8b 80 14 00
	00		 mov	 ecx, DWORD PTR [ebx+5248]

; 3100 : 
; 3101 : 		if ( lpMH )

  0020f	85 c9		 test	 ecx, ecx
  00211	74 0e		 je	 SHORT $LN33@gObjMonste

; 3102 : 		{
; 3103 : 			if ( lpMH->MonsterHerdItemDrop(lpObj) )

  00213	8b 01		 mov	 eax, DWORD PTR [ecx]
  00215	53		 push	 ebx
  00216	ff 50 30	 call	 DWORD PTR [eax+48]
  00219	85 c0		 test	 eax, eax
  0021b	0f 85 de 0f 00
	00		 jne	 $LN28@gObjMonste
$LN33@gObjMonste:

; 3104 : 			{
; 3105 : 				return;
; 3106 : 			}
; 3107 : 		}
; 3108 : 	}
; 3109 : 
; 3110 : 	if ( IT_MAP_RANGE(lpObj->MapNumber) )

  00221	8a 83 23 01 00
	00		 mov	 al, BYTE PTR [ebx+291]
  00227	3c 2d		 cmp	 al, 45			; 0000002dH
  00229	72 27		 jb	 SHORT $LN34@gObjMonste
  0022b	b1 32		 mov	 cl, 50			; 00000032H
  0022d	3a c8		 cmp	 cl, al
  0022f	1b c0		 sbb	 eax, eax
  00231	83 c0 01	 add	 eax, 1
  00234	74 1c		 je	 SHORT $LN34@gObjMonste

; 3111 : 	{
; 3112 : 		int iMaxHitUser = gObjMonsterTopHitDamageUser(lpObj);
; 3113 : 		g_IllusionTemple.ItemDrop(lpTargetObj);

  00236	56		 push	 esi
  00237	b9 00 00 00 00	 mov	 ecx, OFFSET ?g_IllusionTemple@@3VCIllusionTempleEvent@@A ; g_IllusionTemple
  0023c	e8 00 00 00 00	 call	 ?ItemDrop@CIllusionTempleEvent@@QAEXPAUOBJECTSTRUCT@@@Z ; CIllusionTempleEvent::ItemDrop
  00241	5f		 pop	 edi
  00242	5e		 pop	 esi
  00243	5b		 pop	 ebx

; 3736 : 		}
; 3737 : 	}
; 3738 : }

  00244	8b 4d fc	 mov	 ecx, DWORD PTR __$ArrayPad$[ebp]
  00247	33 cd		 xor	 ecx, ebp
  00249	e8 00 00 00 00	 call	 @__security_check_cookie@4
  0024e	8b e5		 mov	 esp, ebp
  00250	5d		 pop	 ebp
  00251	c3		 ret	 0
$LN34@gObjMonste:

; 3114 : 		return;
; 3115 : 	}
; 3116 : 	
; 3117 : 	int itemrate = lpObj->m_ItemRate;

  00252	0f bf 83 98 06
	00 00		 movsx	 eax, WORD PTR [ebx+1688]

; 3118 : 	int moneyrate = lpObj->m_MoneyRate;
; 3119 : 
; 3120 : 	if ( itemrate < 1 )

  00259	ba 01 00 00 00	 mov	 edx, 1
  0025e	0f bf 8b 9a 06
	00 00		 movsx	 ecx, WORD PTR [ebx+1690]
  00265	3b c2		 cmp	 eax, edx
  00267	0f 4c c2	 cmovl	 eax, edx

; 3121 : 		itemrate = 1;
; 3122 : 
; 3123 : 	if ( moneyrate < 1 )

  0026a	3b ca		 cmp	 ecx, edx
  0026c	89 45 e0	 mov	 DWORD PTR _itemrate$2$[ebp], eax

; 3124 : 		moneyrate = 1;
; 3125 : #if( __4GAMERS__ == 0 )
; 3126 : 	if ( lpObj->Class == 44 ) // Dragon

  0026f	0f b7 83 90 00
	00 00		 movzx	 eax, WORD PTR [ebx+144]
  00276	0f 4c ca	 cmovl	 ecx, edx
  00279	89 4d f8	 mov	 DWORD PTR _moneyrate$1$[ebp], ecx
  0027c	83 f8 2c	 cmp	 eax, 44			; 0000002cH
  0027f	0f 85 3e 01 00
	00		 jne	 $LN37@gObjMonste

; 3127 : 	{
; 3128 : 		dur = 0;
; 3129 : 		x = lpObj->X;
; 3130 : 		y = lpObj->Y;

  00285	0f b6 83 21 01
	00 00		 movzx	 eax, BYTE PTR [ebx+289]
  0028c	0f b6 bb 20 01
	00 00		 movzx	 edi, BYTE PTR [ebx+288]
  00293	89 45 dc	 mov	 DWORD PTR _y$1$[ebp], eax

; 3131 : 		level = 0;
; 3132 : 
; 3133 : 		if ( (rand()%4) > 0 )

  00296	e8 00 00 00 00	 call	 _rand
  0029b	25 03 00 00 80	 and	 eax, -2147483645	; 80000003H
  002a0	79 05		 jns	 SHORT $LN190@gObjMonste
  002a2	48		 dec	 eax
  002a3	83 c8 fc	 or	 eax, -4			; fffffffcH
  002a6	40		 inc	 eax
$LN190@gObjMonste:
  002a7	85 c0		 test	 eax, eax
  002a9	7e 6f		 jle	 SHORT $LN38@gObjMonste

; 3134 : 		{
; 3135 : 			for ( int n=0;n<4;n++)

  002ab	c7 45 dc 04 00
	00 00		 mov	 DWORD PTR tv1553[ebp], 4
$LL4@gObjMonste:

; 3136 : 			{
; 3137 : 				int x = lpObj->X-2;

  002b2	0f b6 bb 20 01
	00 00		 movzx	 edi, BYTE PTR [ebx+288]

; 3138 : 				int y = lpObj->Y-2;

  002b9	0f b6 b3 21 01
	00 00		 movzx	 esi, BYTE PTR [ebx+289]
  002c0	83 ef 02	 sub	 edi, 2
  002c3	83 ee 02	 sub	 esi, 2

; 3139 : 				x+= rand()%3;

  002c6	e8 00 00 00 00	 call	 _rand
  002cb	99		 cdq
  002cc	b9 03 00 00 00	 mov	 ecx, 3
  002d1	f7 f9		 idiv	 ecx
  002d3	03 fa		 add	 edi, edx

; 3140 : 				y+= rand()%3;

  002d5	e8 00 00 00 00	 call	 _rand
  002da	99		 cdq
  002db	b9 03 00 00 00	 mov	 ecx, 3
  002e0	f7 f9		 idiv	 ecx

; 3141 : 
; 3142 : 				MapC[lpObj->MapNumber].MoneyItemDrop(10000, x, y);

  002e2	0f b6 83 23 01
	00 00		 movzx	 eax, BYTE PTR [ebx+291]
  002e9	03 f2		 add	 esi, edx
  002eb	69 c8 28 38 05
	00		 imul	 ecx, eax, 342056
  002f1	56		 push	 esi
  002f2	57		 push	 edi
  002f3	68 10 27 00 00	 push	 10000			; 00002710H
  002f8	81 c1 00 00 00
	00		 add	 ecx, OFFSET ?MapC@@3PAVMapClass@@A ; MapC
  002fe	e8 00 00 00 00	 call	 ?MoneyItemDrop@MapClass@@QAEHHHH@Z ; MapClass::MoneyItemDrop
  00303	83 6d dc 01	 sub	 DWORD PTR tv1553[ebp], 1
  00307	75 a9		 jne	 SHORT $LL4@gObjMonste
  00309	5f		 pop	 edi
  0030a	5e		 pop	 esi
  0030b	5b		 pop	 ebx

; 3736 : 		}
; 3737 : 	}
; 3738 : }

  0030c	8b 4d fc	 mov	 ecx, DWORD PTR __$ArrayPad$[ebp]
  0030f	33 cd		 xor	 ecx, ebp
  00311	e8 00 00 00 00	 call	 @__security_check_cookie@4
  00316	8b e5		 mov	 esp, ebp
  00318	5d		 pop	 ebp
  00319	c3		 ret	 0
$LN38@gObjMonste:

; 3143 : 			}
; 3144 : 
; 3145 : 			return;
; 3146 : 		}
; 3147 : 		
; 3148 : 		if ( (rand()%3) < 2 )

  0031a	e8 00 00 00 00	 call	 _rand
  0031f	99		 cdq
  00320	b9 03 00 00 00	 mov	 ecx, 3
  00325	f7 f9		 idiv	 ecx

; 3149 : 		{
; 3150 : 			int MaxHitUser = gObjMonsterTopHitDamageUser(lpObj);

  00327	53		 push	 ebx
  00328	83 fa 02	 cmp	 edx, 2
  0032b	7d 4b		 jge	 SHORT $LN39@gObjMonste
  0032d	e8 00 00 00 00	 call	 ?gObjMonsterTopHitDamageUser@@YAHPAUOBJECTSTRUCT@@@Z ; gObjMonsterTopHitDamageUser

; 3151 : 			type = ItemGetNumberMake(14, 13);

  00332	6a 0d		 push	 13			; 0000000dH
  00334	6a 0e		 push	 14			; 0000000eH
  00336	8b f0		 mov	 esi, eax
  00338	e8 00 00 00 00	 call	 ?ItemGetNumberMake@@YAHHH@Z ; ItemGetNumberMake

; 3152 : 			ItemSerialCreateSend(lpObj->m_Index, lpObj->MapNumber, x, y, type, level, dur,

  0033d	6a 00		 push	 0
  0033f	6a 00		 push	 0
  00341	6a 00		 push	 0
  00343	6a 00		 push	 0
  00345	56		 push	 esi
  00346	6a 00		 push	 0
  00348	6a 00		 push	 0
  0034a	6a 00		 push	 0
  0034c	6a 00		 push	 0
  0034e	6a 00		 push	 0
  00350	50		 push	 eax
  00351	ff 75 dc	 push	 DWORD PTR _y$1$[ebp]
  00354	0f b6 83 23 01
	00 00		 movzx	 eax, BYTE PTR [ebx+291]
  0035b	57		 push	 edi
  0035c	50		 push	 eax
  0035d	ff 33		 push	 DWORD PTR [ebx]

; 3249 : 		ItemSerialCreateSend(lpObj->m_Index, lpObj->MapNumber, x, y, type, level, dur,

  0035f	e8 00 00 00 00	 call	 ?ItemSerialCreateSend@@YAXHEEEHEEEEEHEEEPAE@Z ; ItemSerialCreateSend
  00364	83 c4 48	 add	 esp, 72			; 00000048H
  00367	5f		 pop	 edi
  00368	5e		 pop	 esi
  00369	5b		 pop	 ebx

; 3736 : 		}
; 3737 : 	}
; 3738 : }

  0036a	8b 4d fc	 mov	 ecx, DWORD PTR __$ArrayPad$[ebp]
  0036d	33 cd		 xor	 ecx, ebp
  0036f	e8 00 00 00 00	 call	 @__security_check_cookie@4
  00374	8b e5		 mov	 esp, ebp
  00376	5d		 pop	 ebp
  00377	c3		 ret	 0
$LN39@gObjMonste:

; 3153 : 				Option1, Option2, Option3, MaxHitUser, 0, 0);
; 3154 : 
; 3155 : 			return;
; 3156 : 		}
; 3157 : 
; 3158 : 		int MaxHitUser = gObjMonsterTopHitDamageUser(lpObj);

  00378	e8 00 00 00 00	 call	 ?gObjMonsterTopHitDamageUser@@YAHPAUOBJECTSTRUCT@@@Z ; gObjMonsterTopHitDamageUser

; 3159 : 		type = ItemGetNumberMake(14, 14);

  0037d	6a 0e		 push	 14			; 0000000eH
  0037f	6a 0e		 push	 14			; 0000000eH
  00381	8b f0		 mov	 esi, eax
  00383	e8 00 00 00 00	 call	 ?ItemGetNumberMake@@YAHHH@Z ; ItemGetNumberMake

; 3160 : 		ItemSerialCreateSend(lpObj->m_Index, lpObj->MapNumber, x, y, type, level, dur,

  00388	6a 00		 push	 0
  0038a	6a 00		 push	 0
  0038c	6a 00		 push	 0
  0038e	6a 00		 push	 0
  00390	56		 push	 esi
  00391	6a 00		 push	 0
  00393	6a 00		 push	 0
  00395	6a 00		 push	 0
  00397	6a 00		 push	 0
  00399	6a 00		 push	 0
  0039b	50		 push	 eax
  0039c	ff 75 dc	 push	 DWORD PTR _y$1$[ebp]
  0039f	0f b6 83 23 01
	00 00		 movzx	 eax, BYTE PTR [ebx+291]
  003a6	57		 push	 edi
  003a7	50		 push	 eax
  003a8	ff 33		 push	 DWORD PTR [ebx]

; 3249 : 		ItemSerialCreateSend(lpObj->m_Index, lpObj->MapNumber, x, y, type, level, dur,

  003aa	e8 00 00 00 00	 call	 ?ItemSerialCreateSend@@YAXHEEEHEEEEEHEEEPAE@Z ; ItemSerialCreateSend
  003af	83 c4 48	 add	 esp, 72			; 00000048H
  003b2	5f		 pop	 edi
  003b3	5e		 pop	 esi
  003b4	5b		 pop	 ebx

; 3736 : 		}
; 3737 : 	}
; 3738 : }

  003b5	8b 4d fc	 mov	 ecx, DWORD PTR __$ArrayPad$[ebp]
  003b8	33 cd		 xor	 ecx, ebp
  003ba	e8 00 00 00 00	 call	 @__security_check_cookie@4
  003bf	8b e5		 mov	 esp, ebp
  003c1	5d		 pop	 ebp
  003c2	c3		 ret	 0
$LN37@gObjMonste:

; 3161 : 			Option1, Option2, Option3, MaxHitUser, 0, 0);
; 3162 : 
; 3163 : 		return;
; 3164 : 	}
; 3165 : 
; 3166 : #endif
; 3167 : 
; 3168 : 	if ( lpObj->Class == 43 ||
; 3169 : 		 lpObj->Class == 78 || 
; 3170 : 		 lpObj->Class == 502 ||

  003c3	83 f8 2b	 cmp	 eax, 43			; 0000002bH
  003c6	0f 84 a6 0d 00
	00		 je	 $LN43@gObjMonste
  003cc	83 f8 4e	 cmp	 eax, 78			; 0000004eH
  003cf	0f 84 9d 0d 00
	00		 je	 $LN43@gObjMonste
  003d5	b9 f6 01 00 00	 mov	 ecx, 502		; 000001f6H
  003da	66 3b c1	 cmp	 ax, cx
  003dd	0f 84 8f 0d 00
	00		 je	 $LN43@gObjMonste
  003e3	b9 ed 01 00 00	 mov	 ecx, 493		; 000001edH
  003e8	66 3b c1	 cmp	 ax, cx
  003eb	0f 84 81 0d 00
	00		 je	 $LN43@gObjMonste

; 3171 : 		 lpObj->Class == 493 )
; 3172 : 	{
; 3173 : 		dur = 1;
; 3174 : 		x = lpObj->X;
; 3175 : 		y = lpObj->Y;
; 3176 : 		level = 8;
; 3177 : 		type = ItemGetNumberMake(14, 11);
; 3178 : 		int MaxHitUser = gObjMonsterTopHitDamageUser(lpObj);
; 3179 : 		ItemSerialCreateSend(lpObj->m_Index, lpObj->MapNumber, x, y, type, level, dur,
; 3180 : 			Option1, Option2, Option3, MaxHitUser, 0, 0);
; 3181 : 
; 3182 : 		return;
; 3183 : 	}
; 3184 : 
; 3185 : 	if ( lpObj->Class == 53 || lpObj->Class == 54 )

  003f1	83 f8 35	 cmp	 eax, 53			; 00000035H
  003f4	0f 84 78 0d 00
	00		 je	 $LN43@gObjMonste
  003fa	83 f8 36	 cmp	 eax, 54			; 00000036H
  003fd	0f 84 6f 0d 00
	00		 je	 $LN43@gObjMonste

; 3194 : 			Option1, Option2, Option3, MaxHitUser, 0, 0);
; 3195 : 
; 3196 : 		return;
; 3197 : 	}
; 3198 : 
; 3199 : 	if ( lpObj->Class == 80 || lpObj->Class == 81 || lpObj->Class == 494 )

  00403	83 f8 50	 cmp	 eax, 80			; 00000050H
  00406	0f 84 2c 0d 00
	00		 je	 $LN45@gObjMonste
  0040c	83 f8 51	 cmp	 eax, 81			; 00000051H
  0040f	0f 84 23 0d 00
	00		 je	 $LN45@gObjMonste
  00415	b9 ee 01 00 00	 mov	 ecx, 494		; 000001eeH
  0041a	66 3b c1	 cmp	 ax, cx
  0041d	0f 84 15 0d 00
	00		 je	 $LN45@gObjMonste

; 3211 : 	}
; 3212 : 	
; 3213 : 	
; 3214 : 	if ( lpObj->Class == 82 || lpObj->Class == 83 || lpObj->Class == 495 || lpObj->Class == 496 )

  00423	83 f8 52	 cmp	 eax, 82			; 00000052H
  00426	0f 84 d2 0c 00
	00		 je	 $LN47@gObjMonste
  0042c	83 f8 53	 cmp	 eax, 83			; 00000053H
  0042f	0f 84 c9 0c 00
	00		 je	 $LN47@gObjMonste
  00435	b9 ef 01 00 00	 mov	 ecx, 495		; 000001efH
  0043a	66 3b c1	 cmp	 ax, cx
  0043d	0f 84 bb 0c 00
	00		 je	 $LN47@gObjMonste
  00443	b9 f0 01 00 00	 mov	 ecx, 496		; 000001f0H
  00448	66 3b c1	 cmp	 ax, cx
  0044b	0f 84 ad 0c 00
	00		 je	 $LN47@gObjMonste

; 3225 : 	}
; 3226 : 	
; 3227 : 	if ( lpObj->Class == 497 || lpObj->Class == 498 )

  00451	b9 f1 01 00 00	 mov	 ecx, 497		; 000001f1H
  00456	66 3b c1	 cmp	 ax, cx
  00459	0f 84 68 0c 00
	00		 je	 $LN49@gObjMonste
  0045f	b9 f2 01 00 00	 mov	 ecx, 498		; 000001f2H
  00464	66 3b c1	 cmp	 ax, cx
  00467	0f 84 5a 0c 00
	00		 je	 $LN49@gObjMonste

; 3239 : 	}
; 3240 : 	
; 3241 : 	if ( lpObj->Class == 499 || lpObj->Class == 500 )

  0046d	b9 f3 01 00 00	 mov	 ecx, 499		; 000001f3H
  00472	66 3b c1	 cmp	 ax, cx
  00475	0f 84 ee 0b 00
	00		 je	 $LN51@gObjMonste
  0047b	b9 f4 01 00 00	 mov	 ecx, 500		; 000001f4H
  00480	66 3b c1	 cmp	 ax, cx
  00483	0f 84 e0 0b 00
	00		 je	 $LN51@gObjMonste

; 3250 : 			Option1, Option2, Option3, MaxHitUser, 0, 0);
; 3251 : 
; 3252 : 		return;	
; 3253 : 	}
; 3254 : 
; 3255 : 	if ( lpObj->Class == 79 )

  00489	83 f8 4f	 cmp	 eax, 79			; 0000004fH
  0048c	0f 85 cf 00 00
	00		 jne	 $LN52@gObjMonste

; 3256 : 	{
; 3257 : 		int MaxHitUser = gObjMonsterTopHitDamageUser(lpObj);

  00492	53		 push	 ebx
  00493	e8 00 00 00 00	 call	 ?gObjMonsterTopHitDamageUser@@YAHPAUOBJECTSTRUCT@@@Z ; gObjMonsterTopHitDamageUser
  00498	89 45 e0	 mov	 DWORD PTR _MaxHitUser$1$[ebp], eax
  0049b	bf 05 00 00 00	 mov	 edi, 5

; 3258 : 		BYTE cDropX = lpObj->X;

  004a0	8a 83 20 01 00
	00		 mov	 al, BYTE PTR [ebx+288]
  004a6	83 c4 04	 add	 esp, 4
  004a9	88 45 e8	 mov	 BYTE PTR _cDropX$5[ebp], al

; 3259 : 		BYTE cDropY = lpObj->Y;

  004ac	8a 83 21 01 00
	00		 mov	 al, BYTE PTR [ebx+289]
  004b2	88 45 ec	 mov	 BYTE PTR _cDropY$11[ebp], al
  004b5	8d 77 fe	 lea	 esi, DWORD PTR [edi-2]

; 3260 : 		dur = 1;
; 3261 : 
; 3262 : 		int Level[3] = {8,9,10};

  004b8	c7 45 f0 08 00
	00 00		 mov	 DWORD PTR _Level$14[ebp], 8
  004bf	c7 45 f4 09 00
	00 00		 mov	 DWORD PTR _Level$14[ebp+4], 9
  004c6	c7 45 f8 0a 00
	00 00		 mov	 DWORD PTR _Level$14[ebp+8], 10 ; 0000000aH
  004cd	0f 1f 00	 npad	 3
$LL7@gObjMonste:

; 3263 : 
; 3264 : 		for(int i = 0; i < 5; i ++)
; 3265 : 		{
; 3266 : 			if(!gObjGetRandomItemDropLocation(lpObj->MapNumber,cDropX,cDropY,2,2,10))

  004d0	6a 0a		 push	 10			; 0000000aH
  004d2	6a 02		 push	 2
  004d4	6a 02		 push	 2
  004d6	8d 45 ec	 lea	 eax, DWORD PTR _cDropY$11[ebp]
  004d9	50		 push	 eax
  004da	8d 45 e8	 lea	 eax, DWORD PTR _cDropX$5[ebp]
  004dd	50		 push	 eax
  004de	0f b6 83 23 01
	00 00		 movzx	 eax, BYTE PTR [ebx+291]
  004e5	50		 push	 eax
  004e6	e8 00 00 00 00	 call	 ?gObjGetRandomItemDropLocation@@YAHHAAE0HHH@Z ; gObjGetRandomItemDropLocation
  004eb	83 c4 18	 add	 esp, 24			; 00000018H
  004ee	85 c0		 test	 eax, eax
  004f0	75 12		 jne	 SHORT $LN53@gObjMonste

; 3267 : 			{
; 3268 : 				cDropX = lpObj->X;

  004f2	8a 83 20 01 00
	00		 mov	 al, BYTE PTR [ebx+288]
  004f8	88 45 e8	 mov	 BYTE PTR _cDropX$5[ebp], al

; 3269 : 				cDropY = lpObj->Y;

  004fb	8a 83 21 01 00
	00		 mov	 al, BYTE PTR [ebx+289]
  00501	88 45 ec	 mov	 BYTE PTR _cDropY$11[ebp], al
$LN53@gObjMonste:

; 3270 : 			}
; 3271 : 
; 3272 : 			level = Level[rand()%3];

  00504	e8 00 00 00 00	 call	 _rand
  00509	99		 cdq
  0050a	f7 fe		 idiv	 esi

; 3273 : 			type = ItemGetNumberMake(14, 11);

  0050c	6a 0b		 push	 11			; 0000000bH
  0050e	6a 0e		 push	 14			; 0000000eH
  00510	8b 74 95 f0	 mov	 esi, DWORD PTR _Level$14[ebp+edx*4]
  00514	e8 00 00 00 00	 call	 ?ItemGetNumberMake@@YAHHH@Z ; ItemGetNumberMake

; 3274 : 
; 3275 : 			ItemSerialCreateSend(lpObj->m_Index, lpObj->MapNumber, cDropX, cDropY, type, level, dur,

  00519	6a 00		 push	 0
  0051b	6a 00		 push	 0
  0051d	6a 00		 push	 0
  0051f	6a 00		 push	 0
  00521	ff 75 e0	 push	 DWORD PTR _MaxHitUser$1$[ebp]
  00524	6a 00		 push	 0
  00526	6a 00		 push	 0
  00528	6a 00		 push	 0
  0052a	6a 01		 push	 1
  0052c	56		 push	 esi
  0052d	50		 push	 eax
  0052e	ff 75 ec	 push	 DWORD PTR _cDropY$11[ebp]
  00531	0f b6 83 23 01
	00 00		 movzx	 eax, BYTE PTR [ebx+291]
  00538	ff 75 e8	 push	 DWORD PTR _cDropX$5[ebp]
  0053b	50		 push	 eax
  0053c	ff 33		 push	 DWORD PTR [ebx]
  0053e	e8 00 00 00 00	 call	 ?ItemSerialCreateSend@@YAXHEEEHEEEEEHEEEPAE@Z ; ItemSerialCreateSend
  00543	83 c4 44	 add	 esp, 68			; 00000044H
  00546	be 03 00 00 00	 mov	 esi, 3
  0054b	83 ef 01	 sub	 edi, 1
  0054e	75 80		 jne	 SHORT $LL7@gObjMonste
  00550	5f		 pop	 edi
  00551	5e		 pop	 esi
  00552	5b		 pop	 ebx

; 3736 : 		}
; 3737 : 	}
; 3738 : }

  00553	8b 4d fc	 mov	 ecx, DWORD PTR __$ArrayPad$[ebp]
  00556	33 cd		 xor	 ecx, ebp
  00558	e8 00 00 00 00	 call	 @__security_check_cookie@4
  0055d	8b e5		 mov	 esp, ebp
  0055f	5d		 pop	 ebp
  00560	c3		 ret	 0
$LN52@gObjMonste:

; 3276 : 				Option1, Option2, Option3, MaxHitUser, 0, 0);
; 3277 : 		}
; 3278 : 		return;
; 3279 : 	}
; 3280 : 
; 3281 : 	if ( lpObj->Class == 501 )

  00561	b9 f5 01 00 00	 mov	 ecx, 501		; 000001f5H
  00566	66 3b c1	 cmp	 ax, cx
  00569	0f 85 ca 00 00
	00		 jne	 $LN54@gObjMonste

; 3282 : 	{
; 3283 : 		int MaxHitUser = gObjMonsterTopHitDamageUser(lpObj);

  0056f	53		 push	 ebx
  00570	e8 00 00 00 00	 call	 ?gObjMonsterTopHitDamageUser@@YAHPAUOBJECTSTRUCT@@@Z ; gObjMonsterTopHitDamageUser
  00575	89 45 e0	 mov	 DWORD PTR _MaxHitUser$1$[ebp], eax
  00578	83 c4 04	 add	 esp, 4

; 3284 : 		BYTE cDropX = lpObj->X;

  0057b	8a 83 20 01 00
	00		 mov	 al, BYTE PTR [ebx+288]
  00581	bf 05 00 00 00	 mov	 edi, 5
  00586	88 45 e8	 mov	 BYTE PTR _cDropX$4[ebp], al

; 3285 : 		BYTE cDropY = lpObj->Y;

  00589	8a 83 21 01 00
	00		 mov	 al, BYTE PTR [ebx+289]
  0058f	88 45 ec	 mov	 BYTE PTR _cDropY$10[ebp], al

; 3286 : 		dur = 1;
; 3287 : 
; 3288 : 		int Level[2] = {11,12};

  00592	c7 45 f4 0b 00
	00 00		 mov	 DWORD PTR _Level$15[ebp], 11 ; 0000000bH
  00599	c7 45 f8 0c 00
	00 00		 mov	 DWORD PTR _Level$15[ebp+4], 12 ; 0000000cH
$LL10@gObjMonste:

; 3289 : 
; 3290 : 		for(int i = 0; i < 5; i ++)
; 3291 : 		{
; 3292 : 			if(!gObjGetRandomItemDropLocation(lpObj->MapNumber,cDropX,cDropY,2,2,10))

  005a0	6a 0a		 push	 10			; 0000000aH
  005a2	6a 02		 push	 2
  005a4	6a 02		 push	 2
  005a6	8d 45 ec	 lea	 eax, DWORD PTR _cDropY$10[ebp]
  005a9	50		 push	 eax
  005aa	8d 45 e8	 lea	 eax, DWORD PTR _cDropX$4[ebp]
  005ad	50		 push	 eax
  005ae	0f b6 83 23 01
	00 00		 movzx	 eax, BYTE PTR [ebx+291]
  005b5	50		 push	 eax
  005b6	e8 00 00 00 00	 call	 ?gObjGetRandomItemDropLocation@@YAHHAAE0HHH@Z ; gObjGetRandomItemDropLocation
  005bb	83 c4 18	 add	 esp, 24			; 00000018H
  005be	85 c0		 test	 eax, eax
  005c0	75 12		 jne	 SHORT $LN55@gObjMonste

; 3293 : 			{
; 3294 : 				cDropX = lpObj->X;

  005c2	8a 83 20 01 00
	00		 mov	 al, BYTE PTR [ebx+288]
  005c8	88 45 e8	 mov	 BYTE PTR _cDropX$4[ebp], al

; 3295 : 				cDropY = lpObj->Y;

  005cb	8a 83 21 01 00
	00		 mov	 al, BYTE PTR [ebx+289]
  005d1	88 45 ec	 mov	 BYTE PTR _cDropY$10[ebp], al
$LN55@gObjMonste:

; 3296 : 			}
; 3297 : 
; 3298 : 			level = Level[rand()%2];

  005d4	e8 00 00 00 00	 call	 _rand
  005d9	25 01 00 00 80	 and	 eax, -2147483647	; 80000001H
  005de	79 05		 jns	 SHORT $LN191@gObjMonste
  005e0	48		 dec	 eax
  005e1	83 c8 fe	 or	 eax, -2			; fffffffeH
  005e4	40		 inc	 eax
$LN191@gObjMonste:
  005e5	8b 74 85 f4	 mov	 esi, DWORD PTR _Level$15[ebp+eax*4]

; 3299 : 			type = ItemGetNumberMake(14, 11);

  005e9	6a 0b		 push	 11			; 0000000bH
  005eb	6a 0e		 push	 14			; 0000000eH
  005ed	e8 00 00 00 00	 call	 ?ItemGetNumberMake@@YAHHH@Z ; ItemGetNumberMake

; 3300 : 
; 3301 : 			ItemSerialCreateSend(lpObj->m_Index, lpObj->MapNumber, cDropX, cDropY, type, level, dur,

  005f2	6a 00		 push	 0
  005f4	6a 00		 push	 0
  005f6	6a 00		 push	 0
  005f8	6a 00		 push	 0
  005fa	ff 75 e0	 push	 DWORD PTR _MaxHitUser$1$[ebp]
  005fd	6a 00		 push	 0
  005ff	6a 00		 push	 0
  00601	6a 00		 push	 0
  00603	6a 01		 push	 1
  00605	56		 push	 esi
  00606	50		 push	 eax
  00607	ff 75 ec	 push	 DWORD PTR _cDropY$10[ebp]
  0060a	0f b6 83 23 01
	00 00		 movzx	 eax, BYTE PTR [ebx+291]
  00611	ff 75 e8	 push	 DWORD PTR _cDropX$4[ebp]
  00614	50		 push	 eax
  00615	ff 33		 push	 DWORD PTR [ebx]
  00617	e8 00 00 00 00	 call	 ?ItemSerialCreateSend@@YAXHEEEHEEEEEHEEEPAE@Z ; ItemSerialCreateSend
  0061c	83 c4 44	 add	 esp, 68			; 00000044H
  0061f	83 ef 01	 sub	 edi, 1
  00622	0f 85 78 ff ff
	ff		 jne	 $LL10@gObjMonste
  00628	5f		 pop	 edi
  00629	5e		 pop	 esi
  0062a	5b		 pop	 ebx

; 3736 : 		}
; 3737 : 	}
; 3738 : }

  0062b	8b 4d fc	 mov	 ecx, DWORD PTR __$ArrayPad$[ebp]
  0062e	33 cd		 xor	 ecx, ebp
  00630	e8 00 00 00 00	 call	 @__security_check_cookie@4
  00635	8b e5		 mov	 esp, ebp
  00637	5d		 pop	 ebp
  00638	c3		 ret	 0
$LN54@gObjMonste:

; 3302 : 				Option1, Option2, Option3, MaxHitUser, 0, 0);
; 3303 : 		}
; 3304 : 		return;
; 3305 : 	}
; 3306 : 
; 3307 : 	
; 3308 : 	if( lpObj->Class == 309 )	// Hell Maine

  00639	b9 35 01 00 00	 mov	 ecx, 309		; 00000135H
  0063e	66 3b c1	 cmp	 ax, cx
  00641	0f 85 b2 00 00
	00		 jne	 $LN57@gObjMonste

; 3309 : 	{
; 3310 : 		if ( rand()%10000 < g_iHellMaineLeatherRate )

  00647	e8 00 00 00 00	 call	 _rand
  0064c	99		 cdq
  0064d	b9 10 27 00 00	 mov	 ecx, 10000		; 00002710H
  00652	f7 f9		 idiv	 ecx
  00654	3b 15 00 00 00
	00		 cmp	 edx, DWORD PTR ?g_iHellMaineLeatherRate@@3HA ; g_iHellMaineLeatherRate
  0065a	0f 8d 99 00 00
	00		 jge	 $LN57@gObjMonste

; 3311 : 		{
; 3312 : 			int MaxHitUser = gObjMonsterTopHitDamageUser(lpObj);

  00660	53		 push	 ebx
  00661	e8 00 00 00 00	 call	 ?gObjMonsterTopHitDamageUser@@YAHPAUOBJECTSTRUCT@@@Z ; gObjMonsterTopHitDamageUser

; 3313 : 			type = ItemGetNumberMake(14, 177);

  00666	68 b1 00 00 00	 push	 177			; 000000b1H
  0066b	6a 0e		 push	 14			; 0000000eH
  0066d	8b f0		 mov	 esi, eax
  0066f	e8 00 00 00 00	 call	 ?ItemGetNumberMake@@YAHHH@Z ; ItemGetNumberMake
  00674	8b f8		 mov	 edi, eax

; 3314 : 			BYTE cDropX = lpObj->X;

  00676	8a 83 20 01 00
	00		 mov	 al, BYTE PTR [ebx+288]
  0067c	88 45 e8	 mov	 BYTE PTR _cDropX$3[ebp], al

; 3315 : 			BYTE cDropY = lpObj->Y;

  0067f	8a 83 21 01 00
	00		 mov	 al, BYTE PTR [ebx+289]

; 3316 : 			dur = 1;
; 3317 : 			level = 0;
; 3318 : 
; 3319 : 			if(!gObjGetRandomItemDropLocation(lpObj->MapNumber,cDropX,cDropY,2,2,10))

  00685	6a 0a		 push	 10			; 0000000aH
  00687	6a 02		 push	 2
  00689	88 45 ec	 mov	 BYTE PTR _cDropY$9[ebp], al
  0068c	8d 45 ec	 lea	 eax, DWORD PTR _cDropY$9[ebp]
  0068f	6a 02		 push	 2
  00691	50		 push	 eax
  00692	8d 45 e8	 lea	 eax, DWORD PTR _cDropX$3[ebp]
  00695	50		 push	 eax
  00696	0f b6 83 23 01
	00 00		 movzx	 eax, BYTE PTR [ebx+291]
  0069d	50		 push	 eax
  0069e	e8 00 00 00 00	 call	 ?gObjGetRandomItemDropLocation@@YAHHAAE0HHH@Z ; gObjGetRandomItemDropLocation
  006a3	83 c4 24	 add	 esp, 36			; 00000024H
  006a6	85 c0		 test	 eax, eax
  006a8	75 12		 jne	 SHORT $LN58@gObjMonste

; 3320 : 			{
; 3321 : 				cDropX = lpObj->X;

  006aa	8a 83 20 01 00
	00		 mov	 al, BYTE PTR [ebx+288]
  006b0	88 45 e8	 mov	 BYTE PTR _cDropX$3[ebp], al

; 3322 : 				cDropY = lpObj->Y;

  006b3	8a 83 21 01 00
	00		 mov	 al, BYTE PTR [ebx+289]
  006b9	88 45 ec	 mov	 BYTE PTR _cDropY$9[ebp], al
$LN58@gObjMonste:

; 3323 : 			}
; 3324 : 
; 3325 : 			ItemSerialCreateSend(lpObj->m_Index, lpObj->MapNumber, cDropX, cDropY, type, level, dur,

  006bc	6a 00		 push	 0
  006be	6a 00		 push	 0
  006c0	6a 00		 push	 0
  006c2	0f b6 83 23 01
	00 00		 movzx	 eax, BYTE PTR [ebx+291]
  006c9	6a 00		 push	 0
  006cb	56		 push	 esi
  006cc	6a 00		 push	 0
  006ce	6a 00		 push	 0
  006d0	6a 00		 push	 0
  006d2	6a 01		 push	 1
  006d4	6a 00		 push	 0
  006d6	57		 push	 edi
  006d7	ff 75 ec	 push	 DWORD PTR _cDropY$9[ebp]
  006da	ff 75 e8	 push	 DWORD PTR _cDropX$3[ebp]
  006dd	50		 push	 eax
  006de	ff 33		 push	 DWORD PTR [ebx]
  006e0	e8 00 00 00 00	 call	 ?ItemSerialCreateSend@@YAXHEEEHEEEEEHEEEPAE@Z ; ItemSerialCreateSend
  006e5	83 c4 3c	 add	 esp, 60			; 0000003cH
  006e8	5f		 pop	 edi
  006e9	5e		 pop	 esi
  006ea	5b		 pop	 ebx

; 3736 : 		}
; 3737 : 	}
; 3738 : }

  006eb	8b 4d fc	 mov	 ecx, DWORD PTR __$ArrayPad$[ebp]
  006ee	33 cd		 xor	 ecx, ebp
  006f0	e8 00 00 00 00	 call	 @__security_check_cookie@4
  006f5	8b e5		 mov	 esp, ebp
  006f7	5d		 pop	 ebp
  006f8	c3		 ret	 0
$LN57@gObjMonste:

; 3326 : 				Option1, Option2, Option3, MaxHitUser, 0, 0);
; 3327 : 			return;
; 3328 : 		}
; 3329 : 	}
; 3330 : 
; 3331 : 	if( lpObj->Class == 77 )	// Phoenix

  006f9	66 83 bb 90 00
	00 00 4d	 cmp	 WORD PTR [ebx+144], 77	; 0000004dH
  00701	0f 85 b2 00 00
	00		 jne	 $LN60@gObjMonste

; 3332 : 	{
; 3333 : 		if ( rand()%10000 < g_iFlameOfPhoenixRate )

  00707	e8 00 00 00 00	 call	 _rand
  0070c	99		 cdq
  0070d	b9 10 27 00 00	 mov	 ecx, 10000		; 00002710H
  00712	f7 f9		 idiv	 ecx
  00714	3b 15 00 00 00
	00		 cmp	 edx, DWORD PTR ?g_iFlameOfPhoenixRate@@3HA ; g_iFlameOfPhoenixRate
  0071a	0f 8d 99 00 00
	00		 jge	 $LN60@gObjMonste

; 3334 : 		{
; 3335 : 			int MaxHitUser = gObjMonsterTopHitDamageUser(lpObj);

  00720	53		 push	 ebx
  00721	e8 00 00 00 00	 call	 ?gObjMonsterTopHitDamageUser@@YAHPAUOBJECTSTRUCT@@@Z ; gObjMonsterTopHitDamageUser

; 3336 : 			type = ItemGetNumberMake(14, 178);

  00726	68 b2 00 00 00	 push	 178			; 000000b2H
  0072b	6a 0e		 push	 14			; 0000000eH
  0072d	8b f0		 mov	 esi, eax
  0072f	e8 00 00 00 00	 call	 ?ItemGetNumberMake@@YAHHH@Z ; ItemGetNumberMake
  00734	8b f8		 mov	 edi, eax

; 3337 : 			BYTE cDropX = lpObj->X;

  00736	8a 83 20 01 00
	00		 mov	 al, BYTE PTR [ebx+288]
  0073c	88 45 e8	 mov	 BYTE PTR _cDropX$2[ebp], al

; 3338 : 			BYTE cDropY = lpObj->Y;

  0073f	8a 83 21 01 00
	00		 mov	 al, BYTE PTR [ebx+289]

; 3339 : 			dur = 1;
; 3340 : 			level = 0;
; 3341 : 
; 3342 : 			if(!gObjGetRandomItemDropLocation(lpObj->MapNumber,cDropX,cDropY,2,2,10))

  00745	6a 0a		 push	 10			; 0000000aH
  00747	6a 02		 push	 2
  00749	88 45 ec	 mov	 BYTE PTR _cDropY$8[ebp], al
  0074c	8d 45 ec	 lea	 eax, DWORD PTR _cDropY$8[ebp]
  0074f	6a 02		 push	 2
  00751	50		 push	 eax
  00752	8d 45 e8	 lea	 eax, DWORD PTR _cDropX$2[ebp]
  00755	50		 push	 eax
  00756	0f b6 83 23 01
	00 00		 movzx	 eax, BYTE PTR [ebx+291]
  0075d	50		 push	 eax
  0075e	e8 00 00 00 00	 call	 ?gObjGetRandomItemDropLocation@@YAHHAAE0HHH@Z ; gObjGetRandomItemDropLocation
  00763	83 c4 24	 add	 esp, 36			; 00000024H
  00766	85 c0		 test	 eax, eax
  00768	75 12		 jne	 SHORT $LN61@gObjMonste

; 3343 : 			{
; 3344 : 				cDropX = lpObj->X;

  0076a	8a 83 20 01 00
	00		 mov	 al, BYTE PTR [ebx+288]
  00770	88 45 e8	 mov	 BYTE PTR _cDropX$2[ebp], al

; 3345 : 				cDropY = lpObj->Y;

  00773	8a 83 21 01 00
	00		 mov	 al, BYTE PTR [ebx+289]
  00779	88 45 ec	 mov	 BYTE PTR _cDropY$8[ebp], al
$LN61@gObjMonste:

; 3346 : 			}
; 3347 : 
; 3348 : 			ItemSerialCreateSend(lpObj->m_Index, lpObj->MapNumber, cDropX, cDropY, type, level, dur,

  0077c	6a 00		 push	 0
  0077e	6a 00		 push	 0
  00780	6a 00		 push	 0
  00782	0f b6 83 23 01
	00 00		 movzx	 eax, BYTE PTR [ebx+291]
  00789	6a 00		 push	 0
  0078b	56		 push	 esi
  0078c	6a 00		 push	 0
  0078e	6a 00		 push	 0
  00790	6a 00		 push	 0
  00792	6a 01		 push	 1
  00794	6a 00		 push	 0
  00796	57		 push	 edi
  00797	ff 75 ec	 push	 DWORD PTR _cDropY$8[ebp]
  0079a	ff 75 e8	 push	 DWORD PTR _cDropX$2[ebp]
  0079d	50		 push	 eax
  0079e	ff 33		 push	 DWORD PTR [ebx]
  007a0	e8 00 00 00 00	 call	 ?ItemSerialCreateSend@@YAXHEEEHEEEEEHEEEPAE@Z ; ItemSerialCreateSend
  007a5	83 c4 3c	 add	 esp, 60			; 0000003cH
  007a8	5f		 pop	 edi
  007a9	5e		 pop	 esi
  007aa	5b		 pop	 ebx

; 3736 : 		}
; 3737 : 	}
; 3738 : }

  007ab	8b 4d fc	 mov	 ecx, DWORD PTR __$ArrayPad$[ebp]
  007ae	33 cd		 xor	 ecx, ebp
  007b0	e8 00 00 00 00	 call	 @__security_check_cookie@4
  007b5	8b e5		 mov	 esp, ebp
  007b7	5d		 pop	 ebp
  007b8	c3		 ret	 0
$LN60@gObjMonste:

; 3349 : 				Option1, Option2, Option3, MaxHitUser, 0, 0);
; 3350 : 			return;
; 3351 : 		}
; 3352 : 	}
; 3353 : 
; 3354 : 	if( lpObj->Class == 63 )	// Death Beam Knight

  007b9	66 83 bb 90 00
	00 00 3f	 cmp	 WORD PTR [ebx+144], 63	; 0000003fH
  007c1	0f 85 b2 00 00
	00		 jne	 $LN63@gObjMonste

; 3355 : 	{
; 3356 : 		if ( rand()%10000 < g_iDeathBeamKnightSoulRate )

  007c7	e8 00 00 00 00	 call	 _rand
  007cc	99		 cdq
  007cd	b9 10 27 00 00	 mov	 ecx, 10000		; 00002710H
  007d2	f7 f9		 idiv	 ecx
  007d4	3b 15 00 00 00
	00		 cmp	 edx, DWORD PTR ?g_iDeathBeamKnightSoulRate@@3HA ; g_iDeathBeamKnightSoulRate
  007da	0f 8d 99 00 00
	00		 jge	 $LN63@gObjMonste

; 3357 : 		{
; 3358 : 			int MaxHitUser = gObjMonsterTopHitDamageUser(lpObj);

  007e0	53		 push	 ebx
  007e1	e8 00 00 00 00	 call	 ?gObjMonsterTopHitDamageUser@@YAHPAUOBJECTSTRUCT@@@Z ; gObjMonsterTopHitDamageUser

; 3359 : 			type = ItemGetNumberMake(14, 179);

  007e6	68 b3 00 00 00	 push	 179			; 000000b3H
  007eb	6a 0e		 push	 14			; 0000000eH
  007ed	8b f0		 mov	 esi, eax
  007ef	e8 00 00 00 00	 call	 ?ItemGetNumberMake@@YAHHH@Z ; ItemGetNumberMake
  007f4	8b f8		 mov	 edi, eax

; 3360 : 			BYTE cDropX = lpObj->X;

  007f6	8a 83 20 01 00
	00		 mov	 al, BYTE PTR [ebx+288]
  007fc	88 45 e8	 mov	 BYTE PTR _cDropX$1[ebp], al

; 3361 : 			BYTE cDropY = lpObj->Y;

  007ff	8a 83 21 01 00
	00		 mov	 al, BYTE PTR [ebx+289]

; 3362 : 			dur = 1;
; 3363 : 			level = 0;
; 3364 : 
; 3365 : 			if(!gObjGetRandomItemDropLocation(lpObj->MapNumber,cDropX,cDropY,2,2,10))

  00805	6a 0a		 push	 10			; 0000000aH
  00807	6a 02		 push	 2
  00809	88 45 ec	 mov	 BYTE PTR _cDropY$7[ebp], al
  0080c	8d 45 ec	 lea	 eax, DWORD PTR _cDropY$7[ebp]
  0080f	6a 02		 push	 2
  00811	50		 push	 eax
  00812	8d 45 e8	 lea	 eax, DWORD PTR _cDropX$1[ebp]
  00815	50		 push	 eax
  00816	0f b6 83 23 01
	00 00		 movzx	 eax, BYTE PTR [ebx+291]
  0081d	50		 push	 eax
  0081e	e8 00 00 00 00	 call	 ?gObjGetRandomItemDropLocation@@YAHHAAE0HHH@Z ; gObjGetRandomItemDropLocation
  00823	83 c4 24	 add	 esp, 36			; 00000024H
  00826	85 c0		 test	 eax, eax
  00828	75 12		 jne	 SHORT $LN64@gObjMonste

; 3366 : 			{
; 3367 : 				cDropX = lpObj->X;

  0082a	8a 83 20 01 00
	00		 mov	 al, BYTE PTR [ebx+288]
  00830	88 45 e8	 mov	 BYTE PTR _cDropX$1[ebp], al

; 3368 : 				cDropY = lpObj->Y;

  00833	8a 83 21 01 00
	00		 mov	 al, BYTE PTR [ebx+289]
  00839	88 45 ec	 mov	 BYTE PTR _cDropY$7[ebp], al
$LN64@gObjMonste:

; 3369 : 			}
; 3370 : 
; 3371 : 			ItemSerialCreateSend(lpObj->m_Index, lpObj->MapNumber, cDropX, cDropY, type, level, dur,

  0083c	6a 00		 push	 0
  0083e	6a 00		 push	 0
  00840	6a 00		 push	 0
  00842	0f b6 83 23 01
	00 00		 movzx	 eax, BYTE PTR [ebx+291]
  00849	6a 00		 push	 0
  0084b	56		 push	 esi
  0084c	6a 00		 push	 0
  0084e	6a 00		 push	 0
  00850	6a 00		 push	 0
  00852	6a 01		 push	 1
  00854	6a 00		 push	 0
  00856	57		 push	 edi
  00857	ff 75 ec	 push	 DWORD PTR _cDropY$7[ebp]
  0085a	ff 75 e8	 push	 DWORD PTR _cDropX$1[ebp]
  0085d	50		 push	 eax
  0085e	ff 33		 push	 DWORD PTR [ebx]
  00860	e8 00 00 00 00	 call	 ?ItemSerialCreateSend@@YAXHEEEHEEEEEHEEEPAE@Z ; ItemSerialCreateSend
  00865	83 c4 3c	 add	 esp, 60			; 0000003cH
  00868	5f		 pop	 edi
  00869	5e		 pop	 esi
  0086a	5b		 pop	 ebx

; 3736 : 		}
; 3737 : 	}
; 3738 : }

  0086b	8b 4d fc	 mov	 ecx, DWORD PTR __$ArrayPad$[ebp]
  0086e	33 cd		 xor	 ecx, ebp
  00870	e8 00 00 00 00	 call	 @__security_check_cookie@4
  00875	8b e5		 mov	 esp, ebp
  00877	5d		 pop	 ebp
  00878	c3		 ret	 0
$LN63@gObjMonste:

; 3372 : 				Option1, Option2, Option3, MaxHitUser, 0, 0);
; 3373 : 			return;
; 3374 : 		}
; 3375 : 	}
; 3376 : 
; 3377 : 	if ( gEventMonsterItemDrop(lpObj, lpTargetObj) )

  00879	56		 push	 esi
  0087a	53		 push	 ebx
  0087b	e8 00 00 00 00	 call	 ?gEventMonsterItemDrop@@YAHPAUOBJECTSTRUCT@@0@Z ; gEventMonsterItemDrop
  00880	83 c4 08	 add	 esp, 8
  00883	85 c0		 test	 eax, eax
  00885	0f 85 74 09 00
	00		 jne	 $LN28@gObjMonste

; 3378 : 		return;
; 3379 : 
; 3380 : 	if ( g_ElementalSystem.Drop(lpObj,lpTargetObj) )

  0088b	56		 push	 esi
  0088c	53		 push	 ebx
  0088d	b9 00 00 00 00	 mov	 ecx, OFFSET ?g_ElementalSystem@@3VCElementalSystem@@A ; g_ElementalSystem
  00892	e8 00 00 00 00	 call	 ?Drop@CElementalSystem@@QAEHPAUOBJECTSTRUCT@@0@Z ; CElementalSystem::Drop
  00897	85 c0		 test	 eax, eax
  00899	0f 85 60 09 00
	00		 jne	 $LN28@gObjMonste

; 3381 : 		return;
; 3382 : 
; 3383 : 	if ( g_QuestInfo.MonsterItemDrop(lpObj) )

  0089f	53		 push	 ebx
  008a0	b9 00 00 00 00	 mov	 ecx, OFFSET ?g_QuestInfo@@3VCQuestInfo@@A ; g_QuestInfo
  008a5	e8 00 00 00 00	 call	 ?MonsterItemDrop@CQuestInfo@@QAEHPAUOBJECTSTRUCT@@@Z ; CQuestInfo::MonsterItemDrop
  008aa	85 c0		 test	 eax, eax
  008ac	0f 85 4d 09 00
	00		 jne	 $LN28@gObjMonste

; 3384 : 		return;
; 3385 : 
; 3386 : 	MonsterItemDrop(lpObj);

  008b2	53		 push	 ebx
  008b3	e8 00 00 00 00	 call	 ?MonsterItemDrop@@YAXPAUOBJECTSTRUCT@@@Z ; MonsterItemDrop
  008b8	83 c4 04	 add	 esp, 4

; 3387 : 
; 3388 : 	if ( lpTargetObj->Level <= 20 )

  008bb	66 83 be 96 00
	00 00 14	 cmp	 WORD PTR [esi+150], 20	; 00000014H
  008c3	7f 67		 jg	 SHORT $LN69@gObjMonste

; 3389 : 	{
; 3390 : 		if ( (rand()%10000) < 2000 )

  008c5	e8 00 00 00 00	 call	 _rand
  008ca	99		 cdq
  008cb	b9 10 27 00 00	 mov	 ecx, 10000		; 00002710H
  008d0	f7 f9		 idiv	 ecx
  008d2	81 fa d0 07 00
	00		 cmp	 edx, 2000		; 000007d0H
  008d8	7d 52		 jge	 SHORT $LN69@gObjMonste

; 3391 : 		{
; 3392 : 			int MaxHitUser = gObjMonsterTopHitDamageUser(lpObj);

  008da	53		 push	 ebx
  008db	e8 00 00 00 00	 call	 ?gObjMonsterTopHitDamageUser@@YAHPAUOBJECTSTRUCT@@@Z ; gObjMonsterTopHitDamageUser

; 3393 : 			x = lpObj->X;

  008e0	0f b6 9b 20 01
	00 00		 movzx	 ebx, BYTE PTR [ebx+288]
  008e7	8b f0		 mov	 esi, eax

; 3394 : 			y = lpObj->Y;

  008e9	8b 45 e4	 mov	 eax, DWORD PTR _lpObj$GSCopy$1$[ebp]

; 3395 : 			dur = 1;
; 3396 : 			level = 0;
; 3397 : 			type = ItemGetNumberMake(14, 0);	// Apple

  008ec	6a 00		 push	 0
  008ee	6a 0e		 push	 14			; 0000000eH
  008f0	0f b6 b8 21 01
	00 00		 movzx	 edi, BYTE PTR [eax+289]
  008f7	e8 00 00 00 00	 call	 ?ItemGetNumberMake@@YAHHH@Z ; ItemGetNumberMake

; 3398 : 			ItemSerialCreateSend(lpObj->m_Index, lpObj->MapNumber, x, y, type, level, dur,

  008fc	6a 00		 push	 0
  008fe	6a 00		 push	 0
  00900	6a 00		 push	 0
  00902	6a 00		 push	 0
  00904	56		 push	 esi
  00905	6a 00		 push	 0
  00907	6a 00		 push	 0
  00909	6a 00		 push	 0
  0090b	6a 01		 push	 1
  0090d	6a 00		 push	 0
  0090f	50		 push	 eax
  00910	57		 push	 edi
  00911	53		 push	 ebx
  00912	8b 5d e4	 mov	 ebx, DWORD PTR _lpObj$GSCopy$1$[ebp]
  00915	0f b6 83 23 01
	00 00		 movzx	 eax, BYTE PTR [ebx+291]
  0091c	50		 push	 eax
  0091d	ff 33		 push	 DWORD PTR [ebx]
  0091f	e8 00 00 00 00	 call	 ?ItemSerialCreateSend@@YAXHEEEHEEEEEHEEEPAE@Z ; ItemSerialCreateSend
  00924	8b 75 ec	 mov	 esi, DWORD PTR _lpTargetObj$GSCopy$1$[ebp]
  00927	83 c4 48	 add	 esp, 72			; 00000048H
  0092a	33 ff		 xor	 edi, edi
$LN69@gObjMonste:

; 3399 : 				Option1, Option2, Option3, MaxHitUser, 0, 0);
; 3400 : 		}
; 3401 : 	}
; 3402 : 
; 3403 : 
; 3404 : #if (__CUSTOM__ == 1)
; 3405 : 	if( g_ExcDropPerc )

  0092c	83 3d 00 00 00
	00 00		 cmp	 DWORD PTR ?g_ExcDropPerc@@3HA, 0 ; g_ExcDropPerc
  00933	74 0e		 je	 SHORT $LN70@gObjMonste

; 3406 : 		ExtDropPer = rand()%g_ExcDropPerc;

  00935	e8 00 00 00 00	 call	 _rand
  0093a	99		 cdq
  0093b	f7 3d 00 00 00
	00		 idiv	 DWORD PTR ?g_ExcDropPerc@@3HA ; g_ExcDropPerc

; 3407 : 	else

  00941	eb 0d		 jmp	 SHORT $LN192@gObjMonste
$LN70@gObjMonste:

; 3408 : 		ExtDropPer = rand()%2000;

  00943	e8 00 00 00 00	 call	 _rand
  00948	99		 cdq
  00949	b9 d0 07 00 00	 mov	 ecx, 2000		; 000007d0H
  0094e	f7 f9		 idiv	 ecx
$LN192@gObjMonste:

; 3409 : #else
; 3410 : 	ExtDropPer = rand()%2000;	// Excellent Drop Percent #warning
; 3411 : #endif
; 3412 : 
; 3413 : 
; 3414 : #if (__CUSTOM__ == 1)
; 3415 : 	int ItemDropPer = gItemDropPer + m_ObjBill[lpTargetObj->m_Index].GetDrop();
; 3416 : #else
; 3417 : 	int ItemDropPer = gItemDropPer;
; 3418 : #endif
; 3419 : 	ItemDropPer += gItemDropPer * lpTargetObj->SetOpImproveItemDropRate / 100;

  00950	0f b6 8e d3 14
	00 00		 movzx	 ecx, BYTE PTR [esi+5331]
  00957	b8 1f 85 eb 51	 mov	 eax, 1374389535		; 51eb851fH
  0095c	0f af 0d 00 00
	00 00		 imul	 ecx, DWORD PTR ?gItemDropPer@@3HA ; gItemDropPer
  00963	89 55 e4	 mov	 DWORD PTR _ExtDropPer$1$[ebp], edx

; 3420 : 
; 3421 : 	int MaxHitUser = gObjMonsterTopHitDamageUser(lpObj);

  00966	53		 push	 ebx
  00967	f7 e9		 imul	 ecx
  00969	8b 45 ec	 mov	 eax, DWORD PTR _lpTargetObj$GSCopy$1$[ebp]
  0096c	c1 fa 05	 sar	 edx, 5
  0096f	8b ca		 mov	 ecx, edx
  00971	c1 e9 1f	 shr	 ecx, 31			; 0000001fH
  00974	8b 00		 mov	 eax, DWORD PTR [eax]
  00976	03 ca		 add	 ecx, edx
  00978	8d 04 40	 lea	 eax, DWORD PTR [eax+eax*2]
  0097b	c1 e0 04	 shl	 eax, 4
  0097e	03 88 20 00 00
	00		 add	 ecx, DWORD PTR ?m_ObjBill@@3PAVBILL_CLASS@@A[eax+32]
  00984	03 0d 00 00 00
	00		 add	 ecx, DWORD PTR ?gItemDropPer@@3HA ; gItemDropPer
  0098a	89 4d dc	 mov	 DWORD PTR _ItemDropPer$1$[ebp], ecx
  0098d	e8 00 00 00 00	 call	 ?gObjMonsterTopHitDamageUser@@YAHPAUOBJECTSTRUCT@@@Z ; gObjMonsterTopHitDamageUser
  00992	83 c4 04	 add	 esp, 4

; 3422 : 
; 3423 : 	if( MaxHitUser >= 0 )

  00995	85 c0		 test	 eax, eax
  00997	78 61		 js	 SHORT $LN187@gObjMonste

; 3424 : 	{
; 3425 : 		int IncDrop = gObjGetTotalValueOfEffect(&gObj[MaxHitUser],ADD_OPTION_DROP_RATE);

  00999	69 c8 40 27 00
	00		 imul	 ecx, eax, 10048
  0099f	a1 00 00 00 00	 mov	 eax, DWORD PTR ?gObj@@3PAUOBJECTSTRUCT@@A ; gObj
  009a4	6a 07		 push	 7
  009a6	03 c1		 add	 eax, ecx
  009a8	89 4d c4	 mov	 DWORD PTR tv1491[ebp], ecx
  009ab	50		 push	 eax
  009ac	e8 00 00 00 00	 call	 ?gObjGetTotalValueOfEffect@@YAHPAUOBJECTSTRUCT@@H@Z ; gObjGetTotalValueOfEffect
  009b1	8b f0		 mov	 esi, eax

; 3426 : 
; 3427 : #if (CUSTOM_OLYMP!=1)
; 3428 : 		if( gObjCheckUsedBuffEffect(&gObj[MaxHitUser],BUFF_GLADIATOR_HONOR) && gObj[MaxHitUser].MapNumber == MAP_INDEX_VULCANUS )

  009b3	a1 00 00 00 00	 mov	 eax, DWORD PTR ?gObj@@3PAUOBJECTSTRUCT@@A ; gObj
  009b8	03 45 c4	 add	 eax, DWORD PTR tv1491[ebp]
  009bb	6a 67		 push	 103			; 00000067H
  009bd	50		 push	 eax
  009be	e8 00 00 00 00	 call	 ?gObjCheckUsedBuffEffect@@YA_NPAUOBJECTSTRUCT@@H@Z ; gObjCheckUsedBuffEffect
  009c3	83 c4 10	 add	 esp, 16			; 00000010H
  009c6	84 c0		 test	 al, al
  009c8	74 15		 je	 SHORT $LN73@gObjMonste
  009ca	a1 00 00 00 00	 mov	 eax, DWORD PTR ?gObj@@3PAUOBJECTSTRUCT@@A ; gObj
  009cf	8b 4d c4	 mov	 ecx, DWORD PTR tv1491[ebp]
  009d2	80 bc 01 23 01
	00 00 3f	 cmp	 BYTE PTR [ecx+eax+291], 63 ; 0000003fH
  009da	75 03		 jne	 SHORT $LN73@gObjMonste

; 3429 : 		{
; 3430 : 			IncDrop += 20;

  009dc	83 c6 14	 add	 esi, 20			; 00000014H
$LN73@gObjMonste:

; 3431 : 		}
; 3432 : #endif
; 3433 : 	
; 3434 : 		if( IncDrop > 0 )

  009df	85 f6		 test	 esi, esi
  009e1	7e 17		 jle	 SHORT $LN187@gObjMonste

; 3435 : 		{
; 3436 : 			ItemDropPer = ItemDropPer* IncDrop / 100;

  009e3	0f af 75 dc	 imul	 esi, DWORD PTR _ItemDropPer$1$[ebp]
  009e7	b8 1f 85 eb 51	 mov	 eax, 1374389535		; 51eb851fH
  009ec	f7 ee		 imul	 esi
  009ee	c1 fa 05	 sar	 edx, 5
  009f1	8b f2		 mov	 esi, edx
  009f3	c1 ee 1f	 shr	 esi, 31			; 0000001fH
  009f6	03 f2		 add	 esi, edx
  009f8	eb 03		 jmp	 SHORT $LN74@gObjMonste
$LN187@gObjMonste:
  009fa	8b 75 dc	 mov	 esi, DWORD PTR _ItemDropPer$1$[ebp]
$LN74@gObjMonste:

; 3437 : 			//ExtDropPer = rand() % ((2000 / IncDrop) * 100);
; 3438 : 			//g_MonsterExcellentItemRollRate += g_MonsterExcellentItemRollRate * IncDrop / 100;
; 3439 : 		}
; 3440 : 	}
; 3441 : 	
; 3442 : 	if ( ExtDropPer == TRUE )

  009fd	83 7d e4 01	 cmp	 DWORD PTR _ExtDropPer$1$[ebp], 1
  00a01	0f 85 78 00 00
	00		 jne	 $LN75@gObjMonste

; 3443 : 	{
; 3444 : #if( ENABLETEST_MONSTERITEMDROPEX == 1 )
; 3445 : 		DropItem = g_MonsterItemMngEx.GetItemEx(lpObj->Level-25);

  00a07	0f bf 83 96 00
	00 00		 movsx	 eax, WORD PTR [ebx+150]
  00a0e	b9 00 00 00 00	 mov	 ecx, OFFSET ?g_MonsterItemMngEx@@3VCMonsterItemMngEx@@A ; g_MonsterItemMngEx
  00a13	83 e8 19	 sub	 eax, 25			; 00000019H
  00a16	50		 push	 eax
  00a17	e8 00 00 00 00	 call	 ?GetItemEx@CMonsterItemMngEx@@QAEPAVCItem@@H@Z ; CMonsterItemMngEx::GetItemEx
  00a1c	8b f8		 mov	 edi, eax
  00a1e	89 7d d8	 mov	 DWORD PTR _DropItem$1$[ebp], edi

; 3446 : #else
; 3447 : 		DropItem = g_MonsterItemMng.GetItem(lpObj->Level-25);
; 3448 : #endif//ENABLETEST_MONSTERITEMDROPEX
; 3449 : 
; 3450 : 		if ( DropItem && g_kItemSystemFor380.Is380OptionItem(DropItem) )

  00a21	85 ff		 test	 edi, edi
  00a23	74 14		 je	 SHORT $LN176@gObjMonste
  00a25	57		 push	 edi
  00a26	b9 00 00 00 00	 mov	 ecx, OFFSET ?g_kItemSystemFor380@@3VCItemSystemFor380@@A ; g_kItemSystemFor380
  00a2b	e8 00 00 00 00	 call	 ?Is380OptionItem@CItemSystemFor380@@QAEHPBVCItem@@@Z ; CItemSystemFor380::Is380OptionItem
  00a30	85 c0		 test	 eax, eax
  00a32	74 0e		 je	 SHORT $LN78@gObjMonste

; 3451 : 			DropItem = FALSE;

  00a34	33 ff		 xor	 edi, edi
  00a36	89 7d d8	 mov	 DWORD PTR _DropItem$1$[ebp], edi
$LN176@gObjMonste:

; 3452 : 
; 3453 : 		if ( !DropItem )
; 3454 : 		{
; 3455 : 			item_drop = FALSE;

  00a39	c7 45 e8 00 00
	00 00		 mov	 DWORD PTR _item_drop$2$[ebp], 0

; 3456 : 		}
; 3457 : 		else

  00a40	eb 6b		 jmp	 SHORT $LN85@gObjMonste
$LN78@gObjMonste:

; 3458 : 		{
; 3459 : 			int foundChangeupitem=0;
; 3460 : 			
; 3461 : 			for ( int i=0;i<MAX_TYPE_PLAYER;i++)

  00a42	33 c0		 xor	 eax, eax
$LL13@gObjMonste:

; 3462 : 			{
; 3463 : 				if ( DropItem->m_RequireClass[i] > 1 )

  00a44	80 7c 07 60 01	 cmp	 BYTE PTR [edi+eax+96], 1
  00a49	77 08		 ja	 SHORT $LN160@gObjMonste

; 3458 : 		{
; 3459 : 			int foundChangeupitem=0;
; 3460 : 			
; 3461 : 			for ( int i=0;i<MAX_TYPE_PLAYER;i++)

  00a4b	40		 inc	 eax
  00a4c	83 f8 07	 cmp	 eax, 7
  00a4f	7c f3		 jl	 SHORT $LL13@gObjMonste

; 3462 : 			{
; 3463 : 				if ( DropItem->m_RequireClass[i] > 1 )

  00a51	eb 16		 jmp	 SHORT $LN179@gObjMonste
$LN160@gObjMonste:

; 3464 : 				{
; 3465 : 					foundChangeupitem = TRUE;
; 3466 : 					break;
; 3467 : 				}
; 3468 : 			}
; 3469 : 
; 3470 : 			if ( foundChangeupitem )
; 3471 : 				ExtDropPer = rand()%100;

  00a53	e8 00 00 00 00	 call	 _rand
  00a58	99		 cdq
  00a59	b9 64 00 00 00	 mov	 ecx, 100		; 00000064H
  00a5e	f7 f9		 idiv	 ecx
  00a60	8b c2		 mov	 eax, edx
  00a62	89 45 e4	 mov	 DWORD PTR _ExtDropPer$1$[ebp], eax

; 3472 : 
; 3473 : 			if ( ExtDropPer )

  00a65	85 c0		 test	 eax, eax
  00a67	74 44		 je	 SHORT $LN85@gObjMonste
$LN179@gObjMonste:

; 3474 : 				if ( (rand()%itemrate) < ItemDropPer )

  00a69	e8 00 00 00 00	 call	 _rand
  00a6e	99		 cdq
  00a6f	f7 7d e0	 idiv	 DWORD PTR _itemrate$2$[ebp]
  00a72	3b d6		 cmp	 edx, esi
  00a74	7d 37		 jge	 SHORT $LN85@gObjMonste

; 3475 : 					item_drop=TRUE;

  00a76	c7 45 e8 01 00
	00 00		 mov	 DWORD PTR _item_drop$2$[ebp], 1

; 3476 : 		}
; 3477 : 	}
; 3478 : 	else

  00a7d	eb 2e		 jmp	 SHORT $LN85@gObjMonste
$LN75@gObjMonste:

; 3479 : 	{
; 3480 : 		if ( (rand()%itemrate) < ItemDropPer )

  00a7f	e8 00 00 00 00	 call	 _rand
  00a84	99		 cdq
  00a85	f7 7d e0	 idiv	 DWORD PTR _itemrate$2$[ebp]
  00a88	3b d6		 cmp	 edx, esi
  00a8a	7d 21		 jge	 SHORT $LN85@gObjMonste

; 3481 : 		{
; 3482 : #if( ENABLETEST_MONSTERITEMDROPEX == 1 )
; 3483 : 			DropItem = g_MonsterItemMngEx.GetItemEx(lpObj->Level);

  00a8c	0f bf 83 96 00
	00 00		 movsx	 eax, WORD PTR [ebx+150]
  00a93	b9 00 00 00 00	 mov	 ecx, OFFSET ?g_MonsterItemMngEx@@3VCMonsterItemMngEx@@A ; g_MonsterItemMngEx
  00a98	50		 push	 eax
  00a99	e8 00 00 00 00	 call	 ?GetItemEx@CMonsterItemMngEx@@QAEPAVCItem@@H@Z ; CMonsterItemMngEx::GetItemEx
  00a9e	8b f8		 mov	 edi, eax

; 3484 : #else
; 3485 : 			DropItem = g_MonsterItemMng.GetItem(lpObj->Level);
; 3486 : #endif//ENABLETEST_MONSTERITEMDROPEX
; 3487 : 
; 3488 : 			if ( !DropItem )

  00aa0	33 c0		 xor	 eax, eax
  00aa2	85 ff		 test	 edi, edi
  00aa4	89 7d d8	 mov	 DWORD PTR _DropItem$1$[ebp], edi
  00aa7	0f 95 c0	 setne	 al
  00aaa	89 45 e8	 mov	 DWORD PTR _item_drop$2$[ebp], eax
$LN85@gObjMonste:

; 3489 : 				item_drop = FALSE;
; 3490 : 			else
; 3491 : 				item_drop = TRUE;
; 3492 : 
; 3493 : 		}
; 3494 : 	}
; 3495 : 
; 3496 : #if( ENABLETEST_MONSTERMONEYDROP == 1 )
; 3497 : 	bool MoneyControl = false;
; 3498 : 
; 3499 : 	if( g_MonsterMoneyDrop.Run(lpTargetObj, lpObj) != 0 )

  00aad	53		 push	 ebx
  00aae	ff 75 ec	 push	 DWORD PTR _lpTargetObj$GSCopy$1$[ebp]
  00ab1	b9 00 00 00 00	 mov	 ecx, OFFSET ?g_MonsterMoneyDrop@@3VMonsterMoneyDrop@@A ; g_MonsterMoneyDrop
  00ab6	c6 45 d7 00	 mov	 BYTE PTR _MoneyControl$1$[ebp], 0
  00aba	e8 00 00 00 00	 call	 ?Run@MonsterMoneyDrop@@QAEHPAUOBJECTSTRUCT@@0@Z ; MonsterMoneyDrop::Run
  00abf	0f b6 4d d7	 movzx	 ecx, BYTE PTR _MoneyControl$1$[ebp]
  00ac3	85 c0		 test	 eax, eax

; 3500 : 	{
; 3501 : 		MoneyControl = true;
; 3502 : 	}
; 3503 : #endif//ENABLETEST_MONSTERMONEYDROP
; 3504 : 
; 3505 : 	if ( item_drop )

  00ac5	8b 75 e8	 mov	 esi, DWORD PTR _item_drop$2$[ebp]
  00ac8	b8 01 00 00 00	 mov	 eax, 1
  00acd	0f 45 c8	 cmovne	 ecx, eax
  00ad0	89 4d e0	 mov	 DWORD PTR tv1331[ebp], ecx
  00ad3	85 f6		 test	 esi, esi
  00ad5	0f 84 2c 03 00
	00		 je	 $LN100@gObjMonste

; 3506 : 	{
; 3507 : 		if ( !DropItem->IsItem() )

  00adb	8b cf		 mov	 ecx, edi
  00add	e8 00 00 00 00	 call	 ?IsItem@CItem@@QAEHXZ	; CItem::IsItem
  00ae2	8b f8		 mov	 edi, eax

; 3508 : 		{
; 3509 : 			item_drop = FALSE;
; 3510 : 		}
; 3511 : 
; 3512 : 		int I;
; 3513 : 
; 3514 : 		if ( DropItem->m_Type >= ITEMGET(15,0)  && DropItem->m_Type <= ITEMGET(16,0) )
; 3515 : 		{
; 3516 : 			I = 0;
; 3517 : 		}
; 3518 : 
; 3519 : 		if ( DS_MAP_RANGE(lpObj->MapNumber ) )

  00ae4	8a 83 23 01 00
	00		 mov	 al, BYTE PTR [ebx+291]
  00aea	f7 df		 neg	 edi
  00aec	1b ff		 sbb	 edi, edi
  00aee	23 fe		 and	 edi, esi
  00af0	3c 09		 cmp	 al, 9
  00af2	74 0b		 je	 SHORT $LN181@gObjMonste
  00af4	33 c9		 xor	 ecx, ecx
  00af6	3c 20		 cmp	 al, 32			; 00000020H
  00af8	0f 94 c1	 sete	 cl
  00afb	85 c9		 test	 ecx, ecx
  00afd	74 2a		 je	 SHORT $LN185@gObjMonste
$LN181@gObjMonste:

; 3520 : 		{
; 3521 : 			if ( !IsCanNotItemDtopInDevilSquare(DropItem->m_Type) )

  00aff	8b 75 d8	 mov	 esi, DWORD PTR _DropItem$1$[ebp]
  00b02	0f bf 46 06	 movsx	 eax, WORD PTR [esi+6]
  00b06	50		 push	 eax
  00b07	e8 00 00 00 00	 call	 ?IsCanNotItemDtopInDevilSquare@@YAHH@Z ; IsCanNotItemDtopInDevilSquare
  00b0c	83 c4 04	 add	 esp, 4
  00b0f	85 c0		 test	 eax, eax
  00b11	75 19		 jne	 SHORT $LN93@gObjMonste

; 3522 : 			{
; 3523 : 				if ( (rand()%10) )

  00b13	e8 00 00 00 00	 call	 _rand
  00b18	99		 cdq
  00b19	b9 0a 00 00 00	 mov	 ecx, 10			; 0000000aH
  00b1e	f7 f9		 idiv	 ecx
  00b20	33 c0		 xor	 eax, eax
  00b22	85 d2		 test	 edx, edx
  00b24	0f 45 f8	 cmovne	 edi, eax
  00b27	eb 03		 jmp	 SHORT $LN93@gObjMonste
$LN185@gObjMonste:
  00b29	8b 75 d8	 mov	 esi, DWORD PTR _DropItem$1$[ebp]
$LN93@gObjMonste:

; 3524 : 				{
; 3525 : 					item_drop = FALSE;
; 3526 : 				}
; 3527 : 			}
; 3528 : 		}
; 3529 : 
; 3530 : 		if ( g_SocketItem.IsSocketItem(DropItem->m_Type) == TRUE && !g_SocketItem.IsDropMap(lpObj->MapNumber) )

  00b2c	0f bf 46 06	 movsx	 eax, WORD PTR [esi+6]
  00b30	b9 00 00 00 00	 mov	 ecx, OFFSET ?g_SocketItem@@3VCSocketItems@@A ; g_SocketItem
  00b35	50		 push	 eax
  00b36	e8 00 00 00 00	 call	 ?IsSocketItem@CSocketItems@@QAE_NH@Z ; CSocketItems::IsSocketItem
  00b3b	3c 01		 cmp	 al, 1
  00b3d	75 19		 jne	 SHORT $LN94@gObjMonste
  00b3f	0f b6 83 23 01
	00 00		 movzx	 eax, BYTE PTR [ebx+291]
  00b46	b9 00 00 00 00	 mov	 ecx, OFFSET ?g_SocketItem@@3VCSocketItems@@A ; g_SocketItem
  00b4b	50		 push	 eax
  00b4c	e8 00 00 00 00	 call	 ?IsDropMap@CSocketItems@@QAEEH@Z ; CSocketItems::IsDropMap
  00b51	33 c9		 xor	 ecx, ecx
  00b53	84 c0		 test	 al, al
  00b55	0f 44 f9	 cmove	 edi, ecx
$LN94@gObjMonste:

; 3531 : 		{
; 3532 : 			item_drop = FALSE;
; 3533 : 		}
; 3534 : 
; 3535 : 		if ( DropItem->m_Type == ITEMGET(13,14) && lpObj->MapNumber != MAP_INDEX_ICARUS) // Loch Feather

  00b58	b8 0e 1a 00 00	 mov	 eax, 6670		; 00001a0eH
  00b5d	66 39 46 06	 cmp	 WORD PTR [esi+6], ax
  00b61	75 0c		 jne	 SHORT $LN95@gObjMonste
  00b63	33 c0		 xor	 eax, eax
  00b65	80 bb 23 01 00
	00 0a		 cmp	 BYTE PTR [ebx+291], 10	; 0000000aH
  00b6c	0f 45 f8	 cmovne	 edi, eax
$LN95@gObjMonste:

; 3536 : 			item_drop = FALSE;
; 3537 : 
; 3538 : 		if ( g_CrywolfSync.GetOccupationState() == 1 && g_iCrywolfApplyMvpPenalty )

  00b6f	b9 00 00 00 00	 mov	 ecx, OFFSET ?g_CrywolfSync@@3VCCrywolfSync@@A ; g_CrywolfSync
  00b74	e8 00 00 00 00	 call	 ?GetOccupationState@CCrywolfSync@@QAEHXZ ; CCrywolfSync::GetOccupationState
  00b79	83 f8 01	 cmp	 eax, 1
  00b7c	75 6a		 jne	 SHORT $LN99@gObjMonste
  00b7e	83 3d 00 00 00
	00 00		 cmp	 DWORD PTR ?g_iCrywolfApplyMvpPenalty@@3HA, 0 ; g_iCrywolfApplyMvpPenalty
  00b85	74 61		 je	 SHORT $LN99@gObjMonste

; 3539 : 		{
; 3540 : 			// Jewels
; 3541 : 			if ( DropItem->m_Type == ITEMGET(14,13) ||  DropItem->m_Type == ITEMGET(14,14) ||  DropItem->m_Type == ITEMGET(14,16) ||
; 3542 : 				 DropItem->m_Type == ITEMGET(14,22) ||  DropItem->m_Type == ITEMGET(12,15) ||  DropItem->m_Type == ITEMGET(14,31) )

  00b87	0f b7 46 06	 movzx	 eax, WORD PTR [esi+6]
  00b8b	b9 0d 1c 00 00	 mov	 ecx, 7181		; 00001c0dH
  00b90	66 3b c1	 cmp	 ax, cx
  00b93	74 32		 je	 SHORT $LN98@gObjMonste
  00b95	b9 0e 1c 00 00	 mov	 ecx, 7182		; 00001c0eH
  00b9a	66 3b c1	 cmp	 ax, cx
  00b9d	74 28		 je	 SHORT $LN98@gObjMonste
  00b9f	b9 10 1c 00 00	 mov	 ecx, 7184		; 00001c10H
  00ba4	66 3b c1	 cmp	 ax, cx
  00ba7	74 1e		 je	 SHORT $LN98@gObjMonste
  00ba9	b9 16 1c 00 00	 mov	 ecx, 7190		; 00001c16H
  00bae	66 3b c1	 cmp	 ax, cx
  00bb1	74 14		 je	 SHORT $LN98@gObjMonste
  00bb3	ba 0f 18 00 00	 mov	 edx, 6159		; 0000180fH
  00bb8	66 3b c2	 cmp	 ax, dx
  00bbb	74 0a		 je	 SHORT $LN98@gObjMonste
  00bbd	ba 1f 1c 00 00	 mov	 edx, 7199		; 00001c1fH
  00bc2	66 3b c2	 cmp	 ax, dx
  00bc5	75 21		 jne	 SHORT $LN99@gObjMonste
$LN98@gObjMonste:

; 3543 : 			{
; 3544 : 				if ( (rand()%100) > g_CrywolfSync.GetGemDropPenaltiyRate() )

  00bc7	b9 00 00 00 00	 mov	 ecx, OFFSET ?g_CrywolfSync@@3VCCrywolfSync@@A ; g_CrywolfSync
  00bcc	e8 00 00 00 00	 call	 ?GetGemDropPenaltiyRate@CCrywolfSync@@QAEHXZ ; CCrywolfSync::GetGemDropPenaltiyRate
  00bd1	8b f0		 mov	 esi, eax
  00bd3	e8 00 00 00 00	 call	 _rand
  00bd8	99		 cdq
  00bd9	b9 64 00 00 00	 mov	 ecx, 100		; 00000064H
  00bde	f7 f9		 idiv	 ecx
  00be0	3b d6		 cmp	 edx, esi
  00be2	0f 8f 1c 02 00
	00		 jg	 $LN189@gObjMonste
$LN99@gObjMonste:

; 3545 : 				{
; 3546 : 					item_drop = FALSE;
; 3547 : 				}
; 3548 : 
; 3549 : 			}
; 3550 : 		}
; 3551 : 	}
; 3552 : 
; 3553 : 	if ( item_drop)

  00be8	85 ff		 test	 edi, edi
  00bea	0f 84 14 02 00
	00		 je	 $LN189@gObjMonste

; 3554 : 	{
; 3555 : 		type = DropItem->m_Type;
; 3556 : 		level = DropItem->m_Level;
; 3557 : 
; 3558 : 		if ( ExtDropPer == TRUE )

  00bf0	83 7d e4 01	 cmp	 DWORD PTR _ExtDropPer$1$[ebp], 1
  00bf4	8b 7d d8	 mov	 edi, DWORD PTR _DropItem$1$[ebp]
  00bf7	0f bf 4f 08	 movsx	 ecx, WORD PTR [edi+8]
  00bfb	0f bf 77 06	 movsx	 esi, WORD PTR [edi+6]
  00bff	89 4d d8	 mov	 DWORD PTR _level$3$[ebp], ecx
  00c02	75 2b		 jne	 SHORT $LN102@gObjMonste

; 3559 : 		{
; 3560 : 			dur = ItemGetDurability(DropItem->m_Type, 0, 1, 0);

  00c04	6a 00		 push	 0
  00c06	6a 01		 push	 1
  00c08	6a 00		 push	 0
  00c0a	56		 push	 esi
  00c0b	e8 00 00 00 00	 call	 ?ItemGetDurability@@YAHHHHH@Z ; ItemGetDurability

; 3561 : 			NOption = NewOptionRand(lpObj->Level);

  00c10	0f bf 8b 96 00
	00 00		 movsx	 ecx, WORD PTR [ebx+150]
  00c17	51		 push	 ecx
  00c18	89 45 ec	 mov	 DWORD PTR tv1367[ebp], eax
  00c1b	88 45 e0	 mov	 BYTE PTR _dur$[ebp], al
  00c1e	e8 00 00 00 00	 call	 ?NewOptionRand@@YAEH@Z	; NewOptionRand
  00c23	83 c4 14	 add	 esp, 20			; 00000014H

; 3562 : 			level = 0;

  00c26	c7 45 d8 00 00
	00 00		 mov	 DWORD PTR _level$3$[ebp], 0

; 3563 : 
; 3564 : 		}
; 3565 : 		else

  00c2d	eb 0b		 jmp	 SHORT $LN103@gObjMonste
$LN102@gObjMonste:

; 3566 : 		{
; 3567 : 			dur = (BYTE)DropItem->m_Durability;

  00c2f	f3 0f 2c 47 24	 cvttss2si eax, DWORD PTR [edi+36]
  00c34	89 45 ec	 mov	 DWORD PTR tv1367[ebp], eax
  00c37	88 45 e0	 mov	 BYTE PTR _dur$[ebp], al
$LN103@gObjMonste:

; 3568 : 		}
; 3569 : 
; 3570 : 		x = lpObj->X;

  00c3a	0f b6 83 20 01
	00 00		 movzx	 eax, BYTE PTR [ebx+288]
