; Listing generated by Microsoft (R) Optimizing Compiler Version 19.00.23506.0 

	TITLE	C:\Users\Michel\Desktop\Source\GameServer\Source\Guardian.cpp
	.686P
	.XMM
	include listing.inc
	.model	flat

INCLUDELIB LIBCMT
INCLUDELIB OLDNAMES

PUBLIC	?__empty_global_delete@@YAXPAX@Z		; __empty_global_delete
PUBLIC	?__empty_global_delete@@YAXPAXI@Z		; __empty_global_delete
PUBLIC	??0CGuardian@@QAE@XZ				; CGuardian::CGuardian
PUBLIC	??1CGuardian@@UAE@XZ				; CGuardian::~CGuardian
PUBLIC	?CreateGuardian@CGuardian@@QAEHH@Z		; CGuardian::CreateGuardian
PUBLIC	?GuardianAct@CGuardian@@QAEXH@Z			; CGuardian::GuardianAct
PUBLIC	??_GCGuardian@@UAEPAXI@Z			; CGuardian::`scalar deleting destructor'
PUBLIC	??1OBJECTSTRUCT@@QAE@XZ				; OBJECTSTRUCT::~OBJECTSTRUCT
PUBLIC	??_EOBJECTSTRUCT@@QAEPAXI@Z			; OBJECTSTRUCT::`vector deleting destructor'
PUBLIC	??_7CGuardian@@6B@				; CGuardian::`vftable'
PUBLIC	?g_CsNPC_Guardian@@3VCGuardian@@A		; g_CsNPC_Guardian
PUBLIC	??_R4CGuardian@@6B@				; CGuardian::`RTTI Complete Object Locator'
PUBLIC	??_R0?AVCGuardian@@@8				; CGuardian `RTTI Type Descriptor'
PUBLIC	??_R3CGuardian@@8				; CGuardian::`RTTI Class Hierarchy Descriptor'
PUBLIC	??_R2CGuardian@@8				; CGuardian::`RTTI Base Class Array'
PUBLIC	??_R1A@?0A@EA@CGuardian@@8			; CGuardian::`RTTI Base Class Descriptor at (0,-1,0,64)'
PUBLIC	__real@42c80000
EXTRN	??_M@YGXPAXIIP6EX0@Z@Z:PROC			; `eh vector destructor iterator'
EXTRN	??3@YAXPAXI@Z:PROC				; operator delete
EXTRN	??_V@YAXPAXI@Z:PROC				; operator delete[]
EXTRN	_atexit:PROC
EXTRN	?Get@Message@@QAEPADH@Z:PROC			; Message::Get
EXTRN	??_ECGuardian@@UAEPAXI@Z:PROC			; CGuardian::`vector deleting destructor'
EXTRN	??1CSkillDelay@@UAE@XZ:PROC			; CSkillDelay::~CSkillDelay
EXTRN	??1TMonsterAIAgro@@UAE@XZ:PROC			; TMonsterAIAgro::~TMonsterAIAgro
EXTRN	?GCReFillSend@@YAXHGEEG@Z:PROC			; GCReFillSend
EXTRN	?GCManaSend@@YAXHFEEG@Z:PROC			; GCManaSend
EXTRN	?gObjIsConnected@@YAHH@Z:PROC			; gObjIsConnected
EXTRN	?MsgOutput@@YAXHPADZZ:PROC			; MsgOutput
EXTRN	@__security_check_cookie@4:PROC
EXTRN	___CxxFrameHandler3:PROC
EXTRN	??_7type_info@@6B@:QWORD			; type_info::`vftable'
EXTRN	?lMsg@@3VMessage@@A:BYTE			; lMsg
EXTRN	?gObj@@3PAUOBJECTSTRUCT@@A:DWORD		; gObj
EXTRN	___security_cookie:DWORD
EXTRN	__fltused:DWORD
_BSS	SEGMENT
?g_CsNPC_Guardian@@3VCGuardian@@A DD 01H DUP (?)	; g_CsNPC_Guardian
_BSS	ENDS
CRT$XCU	SEGMENT
?g_CsNPC_Guardian$initializer$@@3P6AXXZA DD FLAT:??__Eg_CsNPC_Guardian@@YAXXZ ; g_CsNPC_Guardian$initializer$
CRT$XCU	ENDS
;	COMDAT __real@42c80000
CONST	SEGMENT
__real@42c80000 DD 042c80000r			; 100
CONST	ENDS
;	COMDAT ??_R1A@?0A@EA@CGuardian@@8
rdata$r	SEGMENT
??_R1A@?0A@EA@CGuardian@@8 DD FLAT:??_R0?AVCGuardian@@@8 ; CGuardian::`RTTI Base Class Descriptor at (0,-1,0,64)'
	DD	00H
	DD	00H
	DD	0ffffffffH
	DD	00H
	DD	040H
	DD	FLAT:??_R3CGuardian@@8
rdata$r	ENDS
;	COMDAT ??_R2CGuardian@@8
rdata$r	SEGMENT
??_R2CGuardian@@8 DD FLAT:??_R1A@?0A@EA@CGuardian@@8	; CGuardian::`RTTI Base Class Array'
rdata$r	ENDS
;	COMDAT ??_R3CGuardian@@8
rdata$r	SEGMENT
??_R3CGuardian@@8 DD 00H				; CGuardian::`RTTI Class Hierarchy Descriptor'
	DD	00H
	DD	01H
	DD	FLAT:??_R2CGuardian@@8
rdata$r	ENDS
;	COMDAT ??_R0?AVCGuardian@@@8
data$r	SEGMENT
??_R0?AVCGuardian@@@8 DD FLAT:??_7type_info@@6B@	; CGuardian `RTTI Type Descriptor'
	DD	00H
	DB	'.?AVCGuardian@@', 00H
data$r	ENDS
;	COMDAT ??_R4CGuardian@@6B@
rdata$r	SEGMENT
??_R4CGuardian@@6B@ DD 00H				; CGuardian::`RTTI Complete Object Locator'
	DD	00H
	DD	00H
	DD	FLAT:??_R0?AVCGuardian@@@8
	DD	FLAT:??_R3CGuardian@@8
rdata$r	ENDS
;	COMDAT ??_7CGuardian@@6B@
CONST	SEGMENT
??_7CGuardian@@6B@ DD FLAT:??_R4CGuardian@@6B@		; CGuardian::`vftable'
	DD	FLAT:??_ECGuardian@@UAEPAXI@Z
CONST	ENDS
;	COMDAT xdata$x
xdata$x	SEGMENT
__ehfuncinfo$??_EOBJECTSTRUCT@@QAEPAXI@Z DD 019930522H
	DD	00H
	DD	00H
	DD	2 DUP(00H)
	DD	2 DUP(00H)
	DD	00H
	DD	05H
xdata$x	ENDS
; Function compile flags: /Ogtp
;	COMDAT ??__Fg_CsNPC_Guardian@@YAXXZ
text$yd	SEGMENT
??__Fg_CsNPC_Guardian@@YAXXZ PROC			; `dynamic atexit destructor for 'g_CsNPC_Guardian'', COMDAT
  00000	b9 00 00 00 00	 mov	 ecx, OFFSET ?g_CsNPC_Guardian@@3VCGuardian@@A ; g_CsNPC_Guardian
  00005	e9 00 00 00 00	 jmp	 ??1CGuardian@@UAE@XZ	; CGuardian::~CGuardian
??__Fg_CsNPC_Guardian@@YAXXZ ENDP			; `dynamic atexit destructor for 'g_CsNPC_Guardian''
text$yd	ENDS
; Function compile flags: /Ogtp
; File c:\users\michel\desktop\source\gameserver\source\guardian.cpp
;	COMDAT ??__Eg_CsNPC_Guardian@@YAXXZ
text$di	SEGMENT
??__Eg_CsNPC_Guardian@@YAXXZ PROC			; `dynamic initializer for 'g_CsNPC_Guardian'', COMDAT

; 11   : CGuardian g_CsNPC_Guardian;

  00000	b9 00 00 00 00	 mov	 ecx, OFFSET ?g_CsNPC_Guardian@@3VCGuardian@@A ; g_CsNPC_Guardian
  00005	e8 00 00 00 00	 call	 ??0CGuardian@@QAE@XZ	; CGuardian::CGuardian
  0000a	68 00 00 00 00	 push	 OFFSET ??__Fg_CsNPC_Guardian@@YAXXZ ; `dynamic atexit destructor for 'g_CsNPC_Guardian''
  0000f	e8 00 00 00 00	 call	 _atexit
  00014	59		 pop	 ecx
  00015	c3		 ret	 0
??__Eg_CsNPC_Guardian@@YAXXZ ENDP			; `dynamic initializer for 'g_CsNPC_Guardian''
text$di	ENDS
; Function compile flags: /Ogtp
;	COMDAT ??_EOBJECTSTRUCT@@QAEPAXI@Z
_TEXT	SEGMENT
__$EHRec$ = -12						; size = 12
___flags$ = 8						; size = 4
??_EOBJECTSTRUCT@@QAEPAXI@Z PROC			; OBJECTSTRUCT::`vector deleting destructor', COMDAT
; _this$ = ecx
  00000	55		 push	 ebp
  00001	8b ec		 mov	 ebp, esp
  00003	6a ff		 push	 -1
  00005	68 00 00 00 00	 push	 __ehhandler$??_EOBJECTSTRUCT@@QAEPAXI@Z
  0000a	64 a1 00 00 00
	00		 mov	 eax, DWORD PTR fs:0
  00010	50		 push	 eax
  00011	53		 push	 ebx
  00012	56		 push	 esi
  00013	57		 push	 edi
  00014	a1 00 00 00 00	 mov	 eax, DWORD PTR ___security_cookie
  00019	33 c5		 xor	 eax, ebp
  0001b	50		 push	 eax
  0001c	8d 45 f4	 lea	 eax, DWORD PTR __$EHRec$[ebp]
  0001f	64 a3 00 00 00
	00		 mov	 DWORD PTR fs:0, eax
  00025	8b f1		 mov	 esi, ecx
  00027	8b 5d 08	 mov	 ebx, DWORD PTR ___flags$[ebp]
  0002a	f6 c3 02	 test	 bl, 2
  0002d	74 44		 je	 SHORT $LN2@vector
  0002f	68 00 00 00 00	 push	 OFFSET ??1OBJECTSTRUCT@@QAE@XZ
  00034	ff 76 fc	 push	 DWORD PTR [esi-4]
  00037	8d 7e fc	 lea	 edi, DWORD PTR [esi-4]
  0003a	68 40 27 00 00	 push	 10048			; 00002740H
  0003f	56		 push	 esi
  00040	e8 00 00 00 00	 call	 ??_M@YGXPAXIIP6EX0@Z@Z
  00045	f6 c3 01	 test	 bl, 1
  00048	74 13		 je	 SHORT $LN3@vector
  0004a	69 0f 40 27 00
	00		 imul	 ecx, DWORD PTR [edi], 10048
  00050	83 c1 04	 add	 ecx, 4
  00053	51		 push	 ecx
  00054	57		 push	 edi
  00055	e8 00 00 00 00	 call	 ??_V@YAXPAXI@Z		; operator delete[]
  0005a	83 c4 08	 add	 esp, 8
$LN3@vector:
  0005d	8b c7		 mov	 eax, edi
  0005f	8b 4d f4	 mov	 ecx, DWORD PTR __$EHRec$[ebp]
  00062	64 89 0d 00 00
	00 00		 mov	 DWORD PTR fs:0, ecx
  00069	59		 pop	 ecx
  0006a	5f		 pop	 edi
  0006b	5e		 pop	 esi
  0006c	5b		 pop	 ebx
  0006d	8b e5		 mov	 esp, ebp
  0006f	5d		 pop	 ebp
  00070	c2 04 00	 ret	 4
$LN2@vector:
  00073	8d 8e ec 20 00
	00		 lea	 ecx, DWORD PTR [esi+8428]
  00079	e8 00 00 00 00	 call	 ??1TMonsterAIAgro@@UAE@XZ ; TMonsterAIAgro::~TMonsterAIAgro
  0007e	8d 8e 0c 16 00
	00		 lea	 ecx, DWORD PTR [esi+5644]
  00084	e8 00 00 00 00	 call	 ??1CSkillDelay@@UAE@XZ	; CSkillDelay::~CSkillDelay
  00089	f6 c3 01	 test	 bl, 1
  0008c	74 0e		 je	 SHORT $LN4@vector
  0008e	68 40 27 00 00	 push	 10048			; 00002740H
  00093	56		 push	 esi
  00094	e8 00 00 00 00	 call	 ??3@YAXPAXI@Z		; operator delete
  00099	83 c4 08	 add	 esp, 8
$LN4@vector:
  0009c	8b c6		 mov	 eax, esi
  0009e	8b 4d f4	 mov	 ecx, DWORD PTR __$EHRec$[ebp]
  000a1	64 89 0d 00 00
	00 00		 mov	 DWORD PTR fs:0, ecx
  000a8	59		 pop	 ecx
  000a9	5f		 pop	 edi
  000aa	5e		 pop	 esi
  000ab	5b		 pop	 ebx
  000ac	8b e5		 mov	 esp, ebp
  000ae	5d		 pop	 ebp
  000af	c2 04 00	 ret	 4
_TEXT	ENDS
;	COMDAT text$x
text$x	SEGMENT
__ehhandler$??_EOBJECTSTRUCT@@QAEPAXI@Z:
  00000	8b 54 24 08	 mov	 edx, DWORD PTR [esp+8]
  00004	8d 42 0c	 lea	 eax, DWORD PTR [edx+12]
  00007	8b 4a f0	 mov	 ecx, DWORD PTR [edx-16]
  0000a	33 c8		 xor	 ecx, eax
  0000c	e8 00 00 00 00	 call	 @__security_check_cookie@4
  00011	b8 00 00 00 00	 mov	 eax, OFFSET __ehfuncinfo$??_EOBJECTSTRUCT@@QAEPAXI@Z
  00016	e9 00 00 00 00	 jmp	 ___CxxFrameHandler3
text$x	ENDS
??_EOBJECTSTRUCT@@QAEPAXI@Z ENDP			; OBJECTSTRUCT::`vector deleting destructor'
; Function compile flags: /Ogtp
;	COMDAT ??1OBJECTSTRUCT@@QAE@XZ
_TEXT	SEGMENT
??1OBJECTSTRUCT@@QAE@XZ PROC				; OBJECTSTRUCT::~OBJECTSTRUCT, COMDAT
; _this$ = ecx
  00000	56		 push	 esi
  00001	8b f1		 mov	 esi, ecx
  00003	8d 8e ec 20 00
	00		 lea	 ecx, DWORD PTR [esi+8428]
  00009	e8 00 00 00 00	 call	 ??1TMonsterAIAgro@@UAE@XZ ; TMonsterAIAgro::~TMonsterAIAgro
  0000e	8d 8e 0c 16 00
	00		 lea	 ecx, DWORD PTR [esi+5644]
  00014	5e		 pop	 esi
  00015	e9 00 00 00 00	 jmp	 ??1CSkillDelay@@UAE@XZ	; CSkillDelay::~CSkillDelay
??1OBJECTSTRUCT@@QAE@XZ ENDP				; OBJECTSTRUCT::~OBJECTSTRUCT
_TEXT	ENDS
; Function compile flags: /Ogtp
;	COMDAT ??_GCGuardian@@UAEPAXI@Z
_TEXT	SEGMENT
___flags$ = 8						; size = 4
??_GCGuardian@@UAEPAXI@Z PROC				; CGuardian::`scalar deleting destructor', COMDAT
; _this$ = ecx
  00000	55		 push	 ebp
  00001	8b ec		 mov	 ebp, esp
  00003	56		 push	 esi
  00004	8b f1		 mov	 esi, ecx
  00006	e8 00 00 00 00	 call	 ??1CGuardian@@UAE@XZ	; CGuardian::~CGuardian
  0000b	f6 45 08 01	 test	 BYTE PTR ___flags$[ebp], 1
  0000f	74 0b		 je	 SHORT $LN4@scalar
  00011	6a 04		 push	 4
  00013	56		 push	 esi
  00014	e8 00 00 00 00	 call	 ??3@YAXPAXI@Z		; operator delete
  00019	83 c4 08	 add	 esp, 8
$LN4@scalar:
  0001c	8b c6		 mov	 eax, esi
  0001e	5e		 pop	 esi
  0001f	5d		 pop	 ebp
  00020	c2 04 00	 ret	 4
??_GCGuardian@@UAEPAXI@Z ENDP				; CGuardian::`scalar deleting destructor'
_TEXT	ENDS
; Function compile flags: /Ogtp
; File c:\users\michel\desktop\source\gameserver\source\guardian.cpp
;	COMDAT ?GuardianAct@CGuardian@@QAEXH@Z
_TEXT	SEGMENT
tv411 = -8						; size = 4
tv426 = -4						; size = 4
_lpObj$1$ = 8						; size = 4
_iIndex$ = 8						; size = 4
?GuardianAct@CGuardian@@QAEXH@Z PROC			; CGuardian::GuardianAct, COMDAT
; _this$ = ecx

; 30   : {

  00000	55		 push	 ebp
  00001	8b ec		 mov	 ebp, esp
  00003	83 ec 08	 sub	 esp, 8
  00006	56		 push	 esi

; 31   : #if (GS_CASTLE==1)
; 32   : 	if ( !gObjIsConnected(iIndex))

  00007	8b 75 08	 mov	 esi, DWORD PTR _iIndex$[ebp]
  0000a	56		 push	 esi
  0000b	e8 00 00 00 00	 call	 ?gObjIsConnected@@YAHH@Z ; gObjIsConnected
  00010	83 c4 04	 add	 esp, 4
  00013	85 c0		 test	 eax, eax
  00015	0f 84 db 01 00
	00		 je	 $LN3@GuardianAc

; 33   : 		return;
; 34   : 
; 35   : 	LPOBJ lpObj = &gObj[iIndex];

  0001b	69 d6 40 27 00
	00		 imul	 edx, esi, 10048
  00021	57		 push	 edi
  00022	8b 3d 00 00 00
	00		 mov	 edi, DWORD PTR ?gObj@@3PAUOBJECTSTRUCT@@A ; gObj
  00028	03 d7		 add	 edx, edi
  0002a	89 55 08	 mov	 DWORD PTR _lpObj$1$[ebp], edx

; 36   : 
; 37   : 	if ( lpObj->VPCount < 1 ) 

  0002d	83 ba cc 0f 00
	00 01		 cmp	 DWORD PTR [edx+4044], 1
  00034	0f 8c bb 01 00
	00		 jl	 $LN21@GuardianAc

; 38   : 		return;
; 39   : 
; 40   : 	int tObjNum = -1;
; 41   : 
; 42   : 	for (int i=0;i<MAX_VIEWPORT;i++)

  0003a	f3 0f 10 0d 00
	00 00 00	 movss	 xmm1, DWORD PTR __real@42c80000
  00042	b9 4b 00 00 00	 mov	 ecx, 75			; 0000004bH
  00047	53		 push	 ebx
  00048	8d 9a c6 08 00
	00		 lea	 ebx, DWORD PTR [edx+2246]
  0004e	89 4d fc	 mov	 DWORD PTR tv426[ebp], ecx
  00051	89 5d f8	 mov	 DWORD PTR tv411[ebp], ebx
$LL4@GuardianAc:

; 43   : 	{
; 44   : 		tObjNum = lpObj->VpPlayer[i].number;

  00054	0f bf 1b	 movsx	 ebx, WORD PTR [ebx]

; 45   : 
; 46   : 		if ( tObjNum >= 0 )

  00057	85 db		 test	 ebx, ebx
  00059	0f 88 80 01 00
	00		 js	 $LN2@GuardianAc

; 47   : 		{
; 48   : 			if ( gObj[tObjNum].Type == OBJ_USER && gObj[tObjNum].Live )

  0005f	69 f3 40 27 00
	00		 imul	 esi, ebx, 10048
  00065	80 7c 3e 50 01	 cmp	 BYTE PTR [esi+edi+80], 1
  0006a	0f 85 6f 01 00
	00		 jne	 $LN2@GuardianAc
  00070	80 7c 3e 51 00	 cmp	 BYTE PTR [esi+edi+81], 0
  00075	0f 84 64 01 00
	00		 je	 $LN2@GuardianAc

; 49   : 			{
; 50   : 				if ( gObj[tObjNum].m_btCsJoinSide == lpObj->m_btCsJoinSide )

  0007b	8a 84 3e 5a 20
	00 00		 mov	 al, BYTE PTR [esi+edi+8282]
  00082	3a 82 5a 20 00
	00		 cmp	 al, BYTE PTR [edx+8282]
  00088	0f 85 51 01 00
	00		 jne	 $LN2@GuardianAc

; 51   : 				{
; 52   : 					if ( abs(lpObj->Y - gObj[tObjNum].Y) <= 3 &&

  0008e	0f b6 82 21 01
	00 00		 movzx	 eax, BYTE PTR [edx+289]
  00095	0f b6 8c 3e 21
	01 00 00	 movzx	 ecx, BYTE PTR [esi+edi+289]
  0009d	2b c1		 sub	 eax, ecx
  0009f	99		 cdq
  000a0	33 c2		 xor	 eax, edx
  000a2	2b c2		 sub	 eax, edx
  000a4	83 f8 03	 cmp	 eax, 3
  000a7	0f 8f 2c 01 00
	00		 jg	 $LN20@GuardianAc
  000ad	8b 45 08	 mov	 eax, DWORD PTR _lpObj$1$[ebp]
  000b0	0f b6 8c 3e 20
	01 00 00	 movzx	 ecx, BYTE PTR [esi+edi+288]
  000b8	0f b6 80 20 01
	00 00		 movzx	 eax, BYTE PTR [eax+288]
  000bf	2b c1		 sub	 eax, ecx
  000c1	99		 cdq
  000c2	33 c2		 xor	 eax, edx
  000c4	2b c2		 sub	 eax, edx
  000c6	83 f8 03	 cmp	 eax, 3
  000c9	0f 8f 0a 01 00
	00		 jg	 $LN20@GuardianAc

; 53   : 						 abs(lpObj->X - gObj[tObjNum].X) <= 3 )
; 54   : 					{
; 55   : 						gObj[tObjNum].Life += 100.0f;

  000cf	f3 0f 10 84 3e
	d8 00 00 00	 movss	 xmm0, DWORD PTR [esi+edi+216]
  000d8	f3 0f 58 c1	 addss	 xmm0, xmm1
  000dc	f3 0f 11 84 3e
	d8 00 00 00	 movss	 DWORD PTR [esi+edi+216], xmm0

; 56   : 						gObj[tObjNum].Mana += 100.0f;

  000e5	a1 00 00 00 00	 mov	 eax, DWORD PTR ?gObj@@3PAUOBJECTSTRUCT@@A ; gObj
  000ea	f3 0f 10 84 06
	ec 00 00 00	 movss	 xmm0, DWORD PTR [esi+eax+236]
  000f3	f3 0f 58 c1	 addss	 xmm0, xmm1
  000f7	f3 0f 11 84 06
	ec 00 00 00	 movss	 DWORD PTR [esi+eax+236], xmm0

; 57   : 						gObj[tObjNum].BP += 100;

  00100	a1 00 00 00 00	 mov	 eax, DWORD PTR ?gObj@@3PAUOBJECTSTRUCT@@A ; gObj
  00105	83 84 06 04 01
	00 00 64	 add	 DWORD PTR [esi+eax+260], 100 ; 00000064H

; 58   : 
; 59   : 						if ( gObj[tObjNum].Life > gObj[tObjNum].MaxLife )

  0010d	8b 0d 00 00 00
	00		 mov	 ecx, DWORD PTR ?gObj@@3PAUOBJECTSTRUCT@@A ; gObj
  00113	f3 0f 10 8c 0e
	dc 00 00 00	 movss	 xmm1, DWORD PTR [esi+ecx+220]
  0011c	f3 0f 10 84 0e
	d8 00 00 00	 movss	 xmm0, DWORD PTR [esi+ecx+216]
  00125	0f 2f c1	 comiss	 xmm0, xmm1
  00128	76 0f		 jbe	 SHORT $LN11@GuardianAc

; 60   : 							gObj[tObjNum].Life = gObj[tObjNum].MaxLife;

  0012a	f3 0f 11 8c 0e
	d8 00 00 00	 movss	 DWORD PTR [esi+ecx+216], xmm1
  00133	8b 0d 00 00 00
	00		 mov	 ecx, DWORD PTR ?gObj@@3PAUOBJECTSTRUCT@@A ; gObj
$LN11@GuardianAc:

; 61   : 
; 62   : 						if ( gObj[tObjNum].Mana > gObj[tObjNum].MaxMana )

  00139	f3 0f 10 8c 0e
	f0 00 00 00	 movss	 xmm1, DWORD PTR [esi+ecx+240]
  00142	f3 0f 10 84 0e
	ec 00 00 00	 movss	 xmm0, DWORD PTR [esi+ecx+236]
  0014b	0f 2f c1	 comiss	 xmm0, xmm1
  0014e	76 0f		 jbe	 SHORT $LN12@GuardianAc

; 63   : 							gObj[tObjNum].Mana = gObj[tObjNum].MaxMana;

  00150	f3 0f 11 8c 0e
	ec 00 00 00	 movss	 DWORD PTR [esi+ecx+236], xmm1
  00159	8b 0d 00 00 00
	00		 mov	 ecx, DWORD PTR ?gObj@@3PAUOBJECTSTRUCT@@A ; gObj
$LN12@GuardianAc:

; 64   : 
; 65   : 						if ( gObj[tObjNum].BP > gObj[tObjNum].MaxBP )

  0015f	8b 84 0e 08 01
	00 00		 mov	 eax, DWORD PTR [esi+ecx+264]
  00166	39 84 0e 04 01
	00 00		 cmp	 DWORD PTR [esi+ecx+260], eax
  0016d	7e 0d		 jle	 SHORT $LN13@GuardianAc

; 66   : 							gObj[tObjNum].BP = gObj[tObjNum].MaxBP;

  0016f	89 84 0e 04 01
	00 00		 mov	 DWORD PTR [esi+ecx+260], eax
  00176	8b 0d 00 00 00
	00		 mov	 ecx, DWORD PTR ?gObj@@3PAUOBJECTSTRUCT@@A ; gObj
$LN13@GuardianAc:

; 67   : 
; 68   : 						GCReFillSend(tObjNum, (WORD)gObj[tObjNum].Life, 0xFF, 1, gObj[tObjNum].iShield);

  0017c	0f b7 84 0e 2c
	01 00 00	 movzx	 eax, WORD PTR [esi+ecx+300]
  00184	50		 push	 eax
  00185	f3 0f 2c 84 0e
	d8 00 00 00	 cvttss2si eax, DWORD PTR [esi+ecx+216]
  0018e	6a 01		 push	 1
  00190	68 ff 00 00 00	 push	 255			; 000000ffH
  00195	0f b7 c0	 movzx	 eax, ax
  00198	50		 push	 eax
  00199	53		 push	 ebx
  0019a	e8 00 00 00 00	 call	 ?GCReFillSend@@YAXHGEEG@Z ; GCReFillSend

; 69   : 						GCManaSend(tObjNum, (WORD)gObj[tObjNum].Mana, 0xFF, 0, gObj[tObjNum].BP);

  0019f	8b 0d 00 00 00
	00		 mov	 ecx, DWORD PTR ?gObj@@3PAUOBJECTSTRUCT@@A ; gObj
  001a5	0f b7 84 0e 04
	01 00 00	 movzx	 eax, WORD PTR [esi+ecx+260]
  001ad	50		 push	 eax
  001ae	f3 0f 2c 84 0e
	ec 00 00 00	 cvttss2si eax, DWORD PTR [esi+ecx+236]
  001b7	6a 00		 push	 0
  001b9	68 ff 00 00 00	 push	 255			; 000000ffH
  001be	0f b7 c0	 movzx	 eax, ax
  001c1	50		 push	 eax
  001c2	53		 push	 ebx
  001c3	e8 00 00 00 00	 call	 ?GCManaSend@@YAXHFEEG@Z	; GCManaSend
  001c8	8b 3d 00 00 00
	00		 mov	 edi, DWORD PTR ?gObj@@3PAUOBJECTSTRUCT@@A ; gObj
  001ce	83 c4 28	 add	 esp, 40			; 00000028H
  001d1	f3 0f 10 0d 00
	00 00 00	 movss	 xmm1, DWORD PTR __real@42c80000
$LN20@GuardianAc:
  001d9	8b 55 08	 mov	 edx, DWORD PTR _lpObj$1$[ebp]
  001dc	8b 4d fc	 mov	 ecx, DWORD PTR tv426[ebp]
$LN2@GuardianAc:

; 38   : 		return;
; 39   : 
; 40   : 	int tObjNum = -1;
; 41   : 
; 42   : 	for (int i=0;i<MAX_VIEWPORT;i++)

  001df	8b 5d f8	 mov	 ebx, DWORD PTR tv411[ebp]
  001e2	83 c3 0c	 add	 ebx, 12			; 0000000cH
  001e5	83 e9 01	 sub	 ecx, 1
  001e8	89 5d f8	 mov	 DWORD PTR tv411[ebp], ebx
  001eb	89 4d fc	 mov	 DWORD PTR tv426[ebp], ecx
  001ee	0f 85 60 fe ff
	ff		 jne	 $LL4@GuardianAc
  001f4	5b		 pop	 ebx
$LN21@GuardianAc:
  001f5	5f		 pop	 edi
$LN3@GuardianAc:
  001f6	5e		 pop	 esi

; 70   : 					}
; 71   : 				}
; 72   : 			}
; 73   : 		}
; 74   : 	}
; 75   : 
; 76   : #endif
; 77   : 	return;
; 78   : }

  001f7	8b e5		 mov	 esp, ebp
  001f9	5d		 pop	 ebp
  001fa	c2 04 00	 ret	 4
?GuardianAct@CGuardian@@QAEXH@Z ENDP			; CGuardian::GuardianAct
_TEXT	ENDS
; Function compile flags: /Ogtp
; File c:\users\michel\desktop\source\gameserver\source\guardian.cpp
;	COMDAT ?CreateGuardian@CGuardian@@QAEHH@Z
_TEXT	SEGMENT
_iIndex$ = 8						; size = 4
?CreateGuardian@CGuardian@@QAEHH@Z PROC			; CGuardian::CreateGuardian, COMDAT
; _this$ = ecx

; 24   : {	

  00000	55		 push	 ebp
  00001	8b ec		 mov	 ebp, esp

; 25   : 	MsgOutput(iIndex, lMsg.Get( MSGGET(6,104) ));

  00003	68 68 06 00 00	 push	 1640			; 00000668H
  00008	b9 00 00 00 00	 mov	 ecx, OFFSET ?lMsg@@3VMessage@@A ; lMsg
  0000d	e8 00 00 00 00	 call	 ?Get@Message@@QAEPADH@Z	; Message::Get
  00012	50		 push	 eax
  00013	ff 75 08	 push	 DWORD PTR _iIndex$[ebp]
  00016	e8 00 00 00 00	 call	 ?MsgOutput@@YAXHPADZZ	; MsgOutput
  0001b	83 c4 08	 add	 esp, 8

; 26   : 	return true;

  0001e	b8 01 00 00 00	 mov	 eax, 1

; 27   : }

  00023	5d		 pop	 ebp
  00024	c2 04 00	 ret	 4
?CreateGuardian@CGuardian@@QAEHH@Z ENDP			; CGuardian::CreateGuardian
_TEXT	ENDS
; Function compile flags: /Ogtp
; File c:\users\michel\desktop\source\gameserver\source\guardian.cpp
;	COMDAT ??1CGuardian@@UAE@XZ
_TEXT	SEGMENT
??1CGuardian@@UAE@XZ PROC				; CGuardian::~CGuardian, COMDAT
; _this$ = ecx

; 19   : {

  00000	c7 01 00 00 00
	00		 mov	 DWORD PTR [ecx], OFFSET ??_7CGuardian@@6B@

; 20   : 	return;
; 21   : }

  00006	c3		 ret	 0
??1CGuardian@@UAE@XZ ENDP				; CGuardian::~CGuardian
_TEXT	ENDS
; Function compile flags: /Ogtp
; File c:\users\michel\desktop\source\gameserver\source\guardian.cpp
;	COMDAT ??0CGuardian@@QAE@XZ
_TEXT	SEGMENT
??0CGuardian@@QAE@XZ PROC				; CGuardian::CGuardian, COMDAT
; _this$ = ecx

; 14   : {

  00000	c7 01 00 00 00
	00		 mov	 DWORD PTR [ecx], OFFSET ??_7CGuardian@@6B@

; 15   : 	return;
; 16   : }

  00006	8b c1		 mov	 eax, ecx
  00008	c3		 ret	 0
??0CGuardian@@QAE@XZ ENDP				; CGuardian::CGuardian
_TEXT	ENDS
; Function compile flags: /Ogtp
; File c:\users\michel\desktop\source\gameserver\source\guardian.cpp
;	COMDAT ?__empty_global_delete@@YAXPAXI@Z
_TEXT	SEGMENT
___formal$ = 8						; size = 4
___formal$ = 12						; size = 4
?__empty_global_delete@@YAXPAXI@Z PROC			; __empty_global_delete, COMDAT

  00000	c3		 ret	 0
?__empty_global_delete@@YAXPAXI@Z ENDP			; __empty_global_delete
_TEXT	ENDS
; Function compile flags: /Ogtp
; File c:\users\michel\desktop\source\gameserver\source\guardian.cpp
;	COMDAT ?__empty_global_delete@@YAXPAX@Z
_TEXT	SEGMENT
___formal$ = 8						; size = 4
?__empty_global_delete@@YAXPAX@Z PROC			; __empty_global_delete, COMDAT

  00000	c3		 ret	 0
?__empty_global_delete@@YAXPAX@Z ENDP			; __empty_global_delete
_TEXT	ENDS
END
