; Listing generated by Microsoft (R) Optimizing Compiler Version 19.00.23506.0 

	TITLE	C:\Users\Michel\Desktop\Source\GameServer\Source\GuardianStatue.cpp
	.686P
	.XMM
	include listing.inc
	.model	flat

INCLUDELIB LIBCMT
INCLUDELIB OLDNAMES

PUBLIC	?__empty_global_delete@@YAXPAX@Z		; __empty_global_delete
PUBLIC	?__empty_global_delete@@YAXPAXI@Z		; __empty_global_delete
PUBLIC	??0CGuardianStatue@@QAE@XZ			; CGuardianStatue::CGuardianStatue
PUBLIC	??1CGuardianStatue@@UAE@XZ			; CGuardianStatue::~CGuardianStatue
PUBLIC	?GuardianStatueAct@CGuardianStatue@@QAEXH@Z	; CGuardianStatue::GuardianStatueAct
PUBLIC	??_GCGuardianStatue@@UAEPAXI@Z			; CGuardianStatue::`scalar deleting destructor'
PUBLIC	??1OBJECTSTRUCT@@QAE@XZ				; OBJECTSTRUCT::~OBJECTSTRUCT
PUBLIC	??_EOBJECTSTRUCT@@QAEPAXI@Z			; OBJECTSTRUCT::`vector deleting destructor'
PUBLIC	??_7CGuardianStatue@@6B@			; CGuardianStatue::`vftable'
PUBLIC	?g_CsNPC_GuardianStatue@@3VCGuardianStatue@@A	; g_CsNPC_GuardianStatue
PUBLIC	??_R4CGuardianStatue@@6B@			; CGuardianStatue::`RTTI Complete Object Locator'
PUBLIC	??_R0?AVCGuardianStatue@@@8			; CGuardianStatue `RTTI Type Descriptor'
PUBLIC	??_R3CGuardianStatue@@8				; CGuardianStatue::`RTTI Class Hierarchy Descriptor'
PUBLIC	??_R2CGuardianStatue@@8				; CGuardianStatue::`RTTI Base Class Array'
PUBLIC	??_R1A@?0A@EA@CGuardianStatue@@8		; CGuardianStatue::`RTTI Base Class Descriptor at (0,-1,0,64)'
PUBLIC	__real@42c80000
EXTRN	??_M@YGXPAXIIP6EX0@Z@Z:PROC			; `eh vector destructor iterator'
EXTRN	??3@YAXPAXI@Z:PROC				; operator delete
EXTRN	??_V@YAXPAXI@Z:PROC				; operator delete[]
EXTRN	_atexit:PROC
EXTRN	??_ECGuardianStatue@@UAEPAXI@Z:PROC		; CGuardianStatue::`vector deleting destructor'
EXTRN	??1CSkillDelay@@UAE@XZ:PROC			; CSkillDelay::~CSkillDelay
EXTRN	??1TMonsterAIAgro@@UAE@XZ:PROC			; TMonsterAIAgro::~TMonsterAIAgro
EXTRN	?GCReFillSend@@YAXHGEEG@Z:PROC			; GCReFillSend
EXTRN	?GCManaSend@@YAXHFEEG@Z:PROC			; GCManaSend
EXTRN	?gObjIsConnected@@YAHH@Z:PROC			; gObjIsConnected
EXTRN	@__security_check_cookie@4:PROC
EXTRN	___CxxFrameHandler3:PROC
EXTRN	??_7type_info@@6B@:QWORD			; type_info::`vftable'
EXTRN	?gObj@@3PAUOBJECTSTRUCT@@A:DWORD		; gObj
EXTRN	___security_cookie:DWORD
EXTRN	__fltused:DWORD
_BSS	SEGMENT
?g_CsNPC_GuardianStatue@@3VCGuardianStatue@@A DD 01H DUP (?) ; g_CsNPC_GuardianStatue
_BSS	ENDS
CRT$XCU	SEGMENT
?g_CsNPC_GuardianStatue$initializer$@@3P6AXXZA DD FLAT:??__Eg_CsNPC_GuardianStatue@@YAXXZ ; g_CsNPC_GuardianStatue$initializer$
CRT$XCU	ENDS
;	COMDAT __real@42c80000
CONST	SEGMENT
__real@42c80000 DD 042c80000r			; 100
CONST	ENDS
;	COMDAT ??_R1A@?0A@EA@CGuardianStatue@@8
rdata$r	SEGMENT
??_R1A@?0A@EA@CGuardianStatue@@8 DD FLAT:??_R0?AVCGuardianStatue@@@8 ; CGuardianStatue::`RTTI Base Class Descriptor at (0,-1,0,64)'
	DD	00H
	DD	00H
	DD	0ffffffffH
	DD	00H
	DD	040H
	DD	FLAT:??_R3CGuardianStatue@@8
rdata$r	ENDS
;	COMDAT ??_R2CGuardianStatue@@8
rdata$r	SEGMENT
??_R2CGuardianStatue@@8 DD FLAT:??_R1A@?0A@EA@CGuardianStatue@@8 ; CGuardianStatue::`RTTI Base Class Array'
rdata$r	ENDS
;	COMDAT ??_R3CGuardianStatue@@8
rdata$r	SEGMENT
??_R3CGuardianStatue@@8 DD 00H				; CGuardianStatue::`RTTI Class Hierarchy Descriptor'
	DD	00H
	DD	01H
	DD	FLAT:??_R2CGuardianStatue@@8
rdata$r	ENDS
;	COMDAT ??_R0?AVCGuardianStatue@@@8
data$r	SEGMENT
??_R0?AVCGuardianStatue@@@8 DD FLAT:??_7type_info@@6B@	; CGuardianStatue `RTTI Type Descriptor'
	DD	00H
	DB	'.?AVCGuardianStatue@@', 00H
data$r	ENDS
;	COMDAT ??_R4CGuardianStatue@@6B@
rdata$r	SEGMENT
??_R4CGuardianStatue@@6B@ DD 00H			; CGuardianStatue::`RTTI Complete Object Locator'
	DD	00H
	DD	00H
	DD	FLAT:??_R0?AVCGuardianStatue@@@8
	DD	FLAT:??_R3CGuardianStatue@@8
rdata$r	ENDS
;	COMDAT ??_7CGuardianStatue@@6B@
CONST	SEGMENT
??_7CGuardianStatue@@6B@ DD FLAT:??_R4CGuardianStatue@@6B@ ; CGuardianStatue::`vftable'
	DD	FLAT:??_ECGuardianStatue@@UAEPAXI@Z
CONST	ENDS
;	COMDAT xdata$x
xdata$x	SEGMENT
__ehfuncinfo$??_EOBJECTSTRUCT@@QAEPAXI@Z DD 019930522H
	DD	00H
	DD	00H
	DD	2 DUP(00H)
	DD	2 DUP(00H)
	DD	00H
	DD	05H
xdata$x	ENDS
; Function compile flags: /Ogtp
;	COMDAT ??__Fg_CsNPC_GuardianStatue@@YAXXZ
text$yd	SEGMENT
??__Fg_CsNPC_GuardianStatue@@YAXXZ PROC			; `dynamic atexit destructor for 'g_CsNPC_GuardianStatue'', COMDAT
  00000	b9 00 00 00 00	 mov	 ecx, OFFSET ?g_CsNPC_GuardianStatue@@3VCGuardianStatue@@A ; g_CsNPC_GuardianStatue
  00005	e9 00 00 00 00	 jmp	 ??1CGuardianStatue@@UAE@XZ ; CGuardianStatue::~CGuardianStatue
??__Fg_CsNPC_GuardianStatue@@YAXXZ ENDP			; `dynamic atexit destructor for 'g_CsNPC_GuardianStatue''
text$yd	ENDS
; Function compile flags: /Ogtp
; File c:\users\michel\desktop\source\gameserver\source\guardianstatue.cpp
;	COMDAT ??__Eg_CsNPC_GuardianStatue@@YAXXZ
text$di	SEGMENT
??__Eg_CsNPC_GuardianStatue@@YAXXZ PROC			; `dynamic initializer for 'g_CsNPC_GuardianStatue'', COMDAT

; 15   : CGuardianStatue g_CsNPC_GuardianStatue;

  00000	b9 00 00 00 00	 mov	 ecx, OFFSET ?g_CsNPC_GuardianStatue@@3VCGuardianStatue@@A ; g_CsNPC_GuardianStatue
  00005	e8 00 00 00 00	 call	 ??0CGuardianStatue@@QAE@XZ ; CGuardianStatue::CGuardianStatue
  0000a	68 00 00 00 00	 push	 OFFSET ??__Fg_CsNPC_GuardianStatue@@YAXXZ ; `dynamic atexit destructor for 'g_CsNPC_GuardianStatue''
  0000f	e8 00 00 00 00	 call	 _atexit
  00014	59		 pop	 ecx
  00015	c3		 ret	 0
??__Eg_CsNPC_GuardianStatue@@YAXXZ ENDP			; `dynamic initializer for 'g_CsNPC_GuardianStatue''
text$di	ENDS
; Function compile flags: /Ogtp
;	COMDAT ??_EOBJECTSTRUCT@@QAEPAXI@Z
_TEXT	SEGMENT
__$EHRec$ = -12						; size = 12
___flags$ = 8						; size = 4
??_EOBJECTSTRUCT@@QAEPAXI@Z PROC			; OBJECTSTRUCT::`vector deleting destructor', COMDAT
; _this$ = ecx
  00000	55		 push	 ebp
  00001	8b ec		 mov	 ebp, esp
  00003	6a ff		 push	 -1
  00005	68 00 00 00 00	 push	 __ehhandler$??_EOBJECTSTRUCT@@QAEPAXI@Z
  0000a	64 a1 00 00 00
	00		 mov	 eax, DWORD PTR fs:0
  00010	50		 push	 eax
  00011	53		 push	 ebx
  00012	56		 push	 esi
  00013	57		 push	 edi
  00014	a1 00 00 00 00	 mov	 eax, DWORD PTR ___security_cookie
  00019	33 c5		 xor	 eax, ebp
  0001b	50		 push	 eax
  0001c	8d 45 f4	 lea	 eax, DWORD PTR __$EHRec$[ebp]
  0001f	64 a3 00 00 00
	00		 mov	 DWORD PTR fs:0, eax
  00025	8b f1		 mov	 esi, ecx
  00027	8b 5d 08	 mov	 ebx, DWORD PTR ___flags$[ebp]
  0002a	f6 c3 02	 test	 bl, 2
  0002d	74 44		 je	 SHORT $LN2@vector
  0002f	68 00 00 00 00	 push	 OFFSET ??1OBJECTSTRUCT@@QAE@XZ
  00034	ff 76 fc	 push	 DWORD PTR [esi-4]
  00037	8d 7e fc	 lea	 edi, DWORD PTR [esi-4]
  0003a	68 40 27 00 00	 push	 10048			; 00002740H
  0003f	56		 push	 esi
  00040	e8 00 00 00 00	 call	 ??_M@YGXPAXIIP6EX0@Z@Z
  00045	f6 c3 01	 test	 bl, 1
  00048	74 13		 je	 SHORT $LN3@vector
  0004a	69 0f 40 27 00
	00		 imul	 ecx, DWORD PTR [edi], 10048
  00050	83 c1 04	 add	 ecx, 4
  00053	51		 push	 ecx
  00054	57		 push	 edi
  00055	e8 00 00 00 00	 call	 ??_V@YAXPAXI@Z		; operator delete[]
  0005a	83 c4 08	 add	 esp, 8
$LN3@vector:
  0005d	8b c7		 mov	 eax, edi
  0005f	8b 4d f4	 mov	 ecx, DWORD PTR __$EHRec$[ebp]
  00062	64 89 0d 00 00
	00 00		 mov	 DWORD PTR fs:0, ecx
  00069	59		 pop	 ecx
  0006a	5f		 pop	 edi
  0006b	5e		 pop	 esi
  0006c	5b		 pop	 ebx
  0006d	8b e5		 mov	 esp, ebp
  0006f	5d		 pop	 ebp
  00070	c2 04 00	 ret	 4
$LN2@vector:
  00073	8d 8e ec 20 00
	00		 lea	 ecx, DWORD PTR [esi+8428]
  00079	e8 00 00 00 00	 call	 ??1TMonsterAIAgro@@UAE@XZ ; TMonsterAIAgro::~TMonsterAIAgro
  0007e	8d 8e 0c 16 00
	00		 lea	 ecx, DWORD PTR [esi+5644]
  00084	e8 00 00 00 00	 call	 ??1CSkillDelay@@UAE@XZ	; CSkillDelay::~CSkillDelay
  00089	f6 c3 01	 test	 bl, 1
  0008c	74 0e		 je	 SHORT $LN4@vector
  0008e	68 40 27 00 00	 push	 10048			; 00002740H
  00093	56		 push	 esi
  00094	e8 00 00 00 00	 call	 ??3@YAXPAXI@Z		; operator delete
  00099	83 c4 08	 add	 esp, 8
$LN4@vector:
  0009c	8b c6		 mov	 eax, esi
  0009e	8b 4d f4	 mov	 ecx, DWORD PTR __$EHRec$[ebp]
  000a1	64 89 0d 00 00
	00 00		 mov	 DWORD PTR fs:0, ecx
  000a8	59		 pop	 ecx
  000a9	5f		 pop	 edi
  000aa	5e		 pop	 esi
  000ab	5b		 pop	 ebx
  000ac	8b e5		 mov	 esp, ebp
  000ae	5d		 pop	 ebp
  000af	c2 04 00	 ret	 4
_TEXT	ENDS
;	COMDAT text$x
text$x	SEGMENT
__ehhandler$??_EOBJECTSTRUCT@@QAEPAXI@Z:
  00000	8b 54 24 08	 mov	 edx, DWORD PTR [esp+8]
  00004	8d 42 0c	 lea	 eax, DWORD PTR [edx+12]
  00007	8b 4a f0	 mov	 ecx, DWORD PTR [edx-16]
  0000a	33 c8		 xor	 ecx, eax
  0000c	e8 00 00 00 00	 call	 @__security_check_cookie@4
  00011	b8 00 00 00 00	 mov	 eax, OFFSET __ehfuncinfo$??_EOBJECTSTRUCT@@QAEPAXI@Z
  00016	e9 00 00 00 00	 jmp	 ___CxxFrameHandler3
text$x	ENDS
??_EOBJECTSTRUCT@@QAEPAXI@Z ENDP			; OBJECTSTRUCT::`vector deleting destructor'
; Function compile flags: /Ogtp
;	COMDAT ??1OBJECTSTRUCT@@QAE@XZ
_TEXT	SEGMENT
??1OBJECTSTRUCT@@QAE@XZ PROC				; OBJECTSTRUCT::~OBJECTSTRUCT, COMDAT
; _this$ = ecx
  00000	56		 push	 esi
  00001	8b f1		 mov	 esi, ecx
  00003	8d 8e ec 20 00
	00		 lea	 ecx, DWORD PTR [esi+8428]
  00009	e8 00 00 00 00	 call	 ??1TMonsterAIAgro@@UAE@XZ ; TMonsterAIAgro::~TMonsterAIAgro
  0000e	8d 8e 0c 16 00
	00		 lea	 ecx, DWORD PTR [esi+5644]
  00014	5e		 pop	 esi
  00015	e9 00 00 00 00	 jmp	 ??1CSkillDelay@@UAE@XZ	; CSkillDelay::~CSkillDelay
??1OBJECTSTRUCT@@QAE@XZ ENDP				; OBJECTSTRUCT::~OBJECTSTRUCT
_TEXT	ENDS
; Function compile flags: /Ogtp
;	COMDAT ??_GCGuardianStatue@@UAEPAXI@Z
_TEXT	SEGMENT
___flags$ = 8						; size = 4
??_GCGuardianStatue@@UAEPAXI@Z PROC			; CGuardianStatue::`scalar deleting destructor', COMDAT
; _this$ = ecx
  00000	55		 push	 ebp
  00001	8b ec		 mov	 ebp, esp
  00003	56		 push	 esi
  00004	8b f1		 mov	 esi, ecx
  00006	e8 00 00 00 00	 call	 ??1CGuardianStatue@@UAE@XZ ; CGuardianStatue::~CGuardianStatue
  0000b	f6 45 08 01	 test	 BYTE PTR ___flags$[ebp], 1
  0000f	74 0b		 je	 SHORT $LN4@scalar
  00011	6a 04		 push	 4
  00013	56		 push	 esi
  00014	e8 00 00 00 00	 call	 ??3@YAXPAXI@Z		; operator delete
  00019	83 c4 08	 add	 esp, 8
$LN4@scalar:
  0001c	8b c6		 mov	 eax, esi
  0001e	5e		 pop	 esi
  0001f	5d		 pop	 ebp
  00020	c2 04 00	 ret	 4
??_GCGuardianStatue@@UAEPAXI@Z ENDP			; CGuardianStatue::`scalar deleting destructor'
_TEXT	ENDS
; Function compile flags: /Ogtp
; File c:\users\michel\desktop\source\gameserver\source\guardianstatue.cpp
;	COMDAT ?GuardianStatueAct@CGuardianStatue@@QAEXH@Z
_TEXT	SEGMENT
tv584 = -20						; size = 4
_bBpChange$1$ = -16					; size = 4
_bManaChange$1$ = -12					; size = 4
_bLifeChange$1$ = -8					; size = 4
tv610 = -4						; size = 4
_lpObj$1$ = 8						; size = 4
_iIndex$ = 8						; size = 4
?GuardianStatueAct@CGuardianStatue@@QAEXH@Z PROC	; CGuardianStatue::GuardianStatueAct, COMDAT
; _this$ = ecx

; 32   : {

  00000	55		 push	 ebp
  00001	8b ec		 mov	 ebp, esp
  00003	83 ec 14	 sub	 esp, 20			; 00000014H
  00006	56		 push	 esi

; 33   : 	if ( !gObjIsConnected(iIndex))

  00007	8b 75 08	 mov	 esi, DWORD PTR _iIndex$[ebp]
  0000a	56		 push	 esi
  0000b	e8 00 00 00 00	 call	 ?gObjIsConnected@@YAHH@Z ; gObjIsConnected
  00010	83 c4 04	 add	 esp, 4
  00013	85 c0		 test	 eax, eax
  00015	0f 84 cd 02 00
	00		 je	 $LN3@GuardianSt

; 34   : 		return;
; 35   : 
; 36   : 	LPOBJ lpObj = &gObj[iIndex];

  0001b	69 c6 40 27 00
	00		 imul	 eax, esi, 10048
  00021	8b 35 00 00 00
	00		 mov	 esi, DWORD PTR ?gObj@@3PAUOBJECTSTRUCT@@A ; gObj
  00027	03 c6		 add	 eax, esi
  00029	89 45 08	 mov	 DWORD PTR _lpObj$1$[ebp], eax

; 37   : 
; 38   : 	if ( lpObj->VPCount < 1 ) 

  0002c	83 b8 cc 0f 00
	00 01		 cmp	 DWORD PTR [eax+4044], 1
  00033	0f 8c af 02 00
	00		 jl	 $LN3@GuardianSt

; 39   : 		return;
; 40   : 
; 41   : 	int tObjNum = -1;
; 42   : 
; 43   : 	for (int i=0;i<MAX_VIEWPORT;i++)

  00039	f3 0f 10 1d 00
	00 00 00	 movss	 xmm3, DWORD PTR __real@42c80000
  00041	b9 4b 00 00 00	 mov	 ecx, 75			; 0000004bH
  00046	53		 push	 ebx
  00047	8d 98 c6 08 00
	00		 lea	 ebx, DWORD PTR [eax+2246]
  0004d	89 4d fc	 mov	 DWORD PTR tv610[ebp], ecx
  00050	57		 push	 edi
  00051	89 5d ec	 mov	 DWORD PTR tv584[ebp], ebx
$LL4@GuardianSt:

; 44   : 	{
; 45   : 		tObjNum = lpObj->VpPlayer[i].number;

  00054	0f bf 1b	 movsx	 ebx, WORD PTR [ebx]

; 46   : 
; 47   : 		if ( tObjNum >= 0 )

  00057	85 db		 test	 ebx, ebx
  00059	0f 88 6a 02 00
	00		 js	 $LN2@GuardianSt

; 48   : 		{
; 49   : 			if ( gObj[tObjNum].Type == OBJ_USER && gObj[tObjNum].Live )

  0005f	69 fb 40 27 00
	00		 imul	 edi, ebx, 10048
  00065	80 7c 37 50 01	 cmp	 BYTE PTR [edi+esi+80], 1
  0006a	0f 85 59 02 00
	00		 jne	 $LN2@GuardianSt
  00070	80 7c 37 51 00	 cmp	 BYTE PTR [edi+esi+81], 0
  00075	0f 84 4e 02 00
	00		 je	 $LN2@GuardianSt

; 50   : 			{
; 51   : 				if ( gObj[tObjNum].m_btCsJoinSide == 1 )

  0007b	80 bc 37 5a 20
	00 00 01	 cmp	 BYTE PTR [edi+esi+8282], 1
  00083	0f 85 40 02 00
	00		 jne	 $LN2@GuardianSt

; 52   : 				{
; 53   : 					if ( abs(lpObj->Y - gObj[tObjNum].Y) <= 3 &&

  00089	0f b6 80 21 01
	00 00		 movzx	 eax, BYTE PTR [eax+289]
  00090	0f b6 8c 37 21
	01 00 00	 movzx	 ecx, BYTE PTR [edi+esi+289]
  00098	2b c1		 sub	 eax, ecx
  0009a	99		 cdq
  0009b	33 c2		 xor	 eax, edx
  0009d	2b c2		 sub	 eax, edx
  0009f	83 f8 03	 cmp	 eax, 3
  000a2	8b 45 08	 mov	 eax, DWORD PTR _lpObj$1$[ebp]
  000a5	0f 8f 1b 02 00
	00		 jg	 $LN27@GuardianSt
  000ab	0f b6 80 20 01
	00 00		 movzx	 eax, BYTE PTR [eax+288]
  000b2	0f b6 8c 37 20
	01 00 00	 movzx	 ecx, BYTE PTR [edi+esi+288]
  000ba	2b c1		 sub	 eax, ecx
  000bc	99		 cdq
  000bd	33 c2		 xor	 eax, edx
  000bf	2b c2		 sub	 eax, edx
  000c1	83 f8 03	 cmp	 eax, 3
  000c4	0f 8f f9 01 00
	00		 jg	 $LN28@GuardianSt

; 54   : 						 abs(lpObj->X - gObj[tObjNum].X) <= 3 )
; 55   : 					{
; 56   : 						BOOL bLifeChange = FALSE;
; 57   : 						BOOL bManaChange = FALSE;
; 58   : 						BOOL bBpChange = FALSE;
; 59   : 
; 60   : 						/*gObj[tObjNum].Life += 100.0f;
; 61   : 						gObj[tObjNum].Mana += 100.0f;
; 62   : 						gObj[tObjNum].BP += 100;*/
; 63   : 
; 64   : 						if ( gObj[tObjNum].Life < (gObj[tObjNum].MaxLife + gObj[tObjNum].AddLife))

  000ca	66 0f 6e 8c 37
	24 01 00 00	 movd	 xmm1, DWORD PTR [edi+esi+292]
  000d3	f3 0f 10 94 37
	d8 00 00 00	 movss	 xmm2, DWORD PTR [edi+esi+216]

; 65   : 						{
; 66   : 							gObj[tObjNum].Life += ( ( gObj[tObjNum].MaxLife + gObj[tObjNum].AddLife ) * (lpObj->m_btCsNpcRgLevel+1) ) / 100.0f;

  000dc	8b 55 08	 mov	 edx, DWORD PTR _lpObj$1$[ebp]
  000df	0f 5b c9	 cvtdq2ps xmm1, xmm1
  000e2	c7 45 f8 00 00
	00 00		 mov	 DWORD PTR _bLifeChange$1$[ebp], 0
  000e9	c7 45 f4 00 00
	00 00		 mov	 DWORD PTR _bManaChange$1$[ebp], 0
  000f0	c7 45 f0 00 00
	00 00		 mov	 DWORD PTR _bBpChange$1$[ebp], 0
  000f7	f3 0f 58 8c 37
	dc 00 00 00	 addss	 xmm1, DWORD PTR [edi+esi+220]
  00100	0f 2f ca	 comiss	 xmm1, xmm2
  00103	76 63		 jbe	 SHORT $LN11@GuardianSt
  00105	0f b6 82 59 20
	00 00		 movzx	 eax, BYTE PTR [edx+8281]
  0010c	40		 inc	 eax
  0010d	66 0f 6e c0	 movd	 xmm0, eax
  00111	0f 5b c0	 cvtdq2ps xmm0, xmm0
  00114	f3 0f 59 c1	 mulss	 xmm0, xmm1
  00118	f3 0f 5e c3	 divss	 xmm0, xmm3
  0011c	f3 0f 58 c2	 addss	 xmm0, xmm2
  00120	f3 0f 11 84 37
	d8 00 00 00	 movss	 DWORD PTR [edi+esi+216], xmm0

; 67   : 
; 68   : 							if ( gObj[tObjNum].Life > (gObj[tObjNum].MaxLife + gObj[tObjNum].AddLife))

  00129	8b 35 00 00 00
	00		 mov	 esi, DWORD PTR ?gObj@@3PAUOBJECTSTRUCT@@A ; gObj
  0012f	66 0f 6e 8c 37
	24 01 00 00	 movd	 xmm1, DWORD PTR [edi+esi+292]
  00138	f3 0f 10 84 37
	d8 00 00 00	 movss	 xmm0, DWORD PTR [edi+esi+216]
  00141	0f 5b c9	 cvtdq2ps xmm1, xmm1
  00144	f3 0f 58 8c 37
	dc 00 00 00	 addss	 xmm1, DWORD PTR [edi+esi+220]
  0014d	0f 2f c1	 comiss	 xmm0, xmm1
  00150	76 0f		 jbe	 SHORT $LN12@GuardianSt

; 69   : 								gObj[tObjNum].Life = gObj[tObjNum].MaxLife + gObj[tObjNum].AddLife;

  00152	f3 0f 11 8c 37
	d8 00 00 00	 movss	 DWORD PTR [edi+esi+216], xmm1
  0015b	8b 35 00 00 00
	00		 mov	 esi, DWORD PTR ?gObj@@3PAUOBJECTSTRUCT@@A ; gObj
$LN12@GuardianSt:

; 70   : 
; 71   : 							bLifeChange = TRUE;

  00161	c7 45 f8 01 00
	00 00		 mov	 DWORD PTR _bLifeChange$1$[ebp], 1
$LN11@GuardianSt:
  00168	66 0f 6e 8c 37
	28 01 00 00	 movd	 xmm1, DWORD PTR [edi+esi+296]

; 72   : 						}
; 73   : 
; 74   : 						if ( gObj[tObjNum].Mana < (gObj[tObjNum].MaxMana + gObj[tObjNum].AddMana))

  00171	f3 0f 10 94 37
	ec 00 00 00	 movss	 xmm2, DWORD PTR [edi+esi+236]
  0017a	0f 5b c9	 cvtdq2ps xmm1, xmm1
  0017d	f3 0f 58 8c 37
	f0 00 00 00	 addss	 xmm1, DWORD PTR [edi+esi+240]
  00186	0f 2f ca	 comiss	 xmm1, xmm2
  00189	76 63		 jbe	 SHORT $LN13@GuardianSt

; 75   : 						{
; 76   : 							gObj[tObjNum].Mana += ( ( gObj[tObjNum].MaxMana + gObj[tObjNum].AddMana ) * (lpObj->m_btCsNpcRgLevel+1) ) / 100.0f;

  0018b	0f b6 82 59 20
	00 00		 movzx	 eax, BYTE PTR [edx+8281]
  00192	40		 inc	 eax
  00193	66 0f 6e c0	 movd	 xmm0, eax
  00197	0f 5b c0	 cvtdq2ps xmm0, xmm0
  0019a	f3 0f 59 c1	 mulss	 xmm0, xmm1
  0019e	f3 0f 5e c3	 divss	 xmm0, xmm3
  001a2	f3 0f 58 c2	 addss	 xmm0, xmm2
  001a6	f3 0f 11 84 37
	ec 00 00 00	 movss	 DWORD PTR [edi+esi+236], xmm0

; 77   : 
; 78   : 							if ( gObj[tObjNum].Mana > (gObj[tObjNum].MaxMana + gObj[tObjNum].AddMana))

  001af	8b 35 00 00 00
	00		 mov	 esi, DWORD PTR ?gObj@@3PAUOBJECTSTRUCT@@A ; gObj
  001b5	66 0f 6e 8c 37
	28 01 00 00	 movd	 xmm1, DWORD PTR [edi+esi+296]
  001be	f3 0f 10 84 37
	ec 00 00 00	 movss	 xmm0, DWORD PTR [edi+esi+236]
  001c7	0f 5b c9	 cvtdq2ps xmm1, xmm1
  001ca	f3 0f 58 8c 37
	f0 00 00 00	 addss	 xmm1, DWORD PTR [edi+esi+240]
  001d3	0f 2f c1	 comiss	 xmm0, xmm1
  001d6	76 0f		 jbe	 SHORT $LN14@GuardianSt

; 79   : 								gObj[tObjNum].Mana = gObj[tObjNum].MaxMana + gObj[tObjNum].AddMana;

  001d8	f3 0f 11 8c 37
	ec 00 00 00	 movss	 DWORD PTR [edi+esi+236], xmm1
  001e1	8b 35 00 00 00
	00		 mov	 esi, DWORD PTR ?gObj@@3PAUOBJECTSTRUCT@@A ; gObj
$LN14@GuardianSt:

; 80   : 
; 81   : 							bManaChange = TRUE;

  001e7	c7 45 f4 01 00
	00 00		 mov	 DWORD PTR _bManaChange$1$[ebp], 1
$LN13@GuardianSt:

; 82   : 						}
; 83   : 
; 84   : 						if ( gObj[tObjNum].BP < (gObj[tObjNum].MaxBP + gObj[tObjNum].AddBP))

  001ee	8b 84 37 08 01
	00 00		 mov	 eax, DWORD PTR [edi+esi+264]
  001f5	03 84 37 0c 01
	00 00		 add	 eax, DWORD PTR [edi+esi+268]
  001fc	39 84 37 04 01
	00 00		 cmp	 DWORD PTR [edi+esi+260], eax
  00203	7d 54		 jge	 SHORT $LN15@GuardianSt

; 85   : 						{
; 86   : 							gObj[tObjNum].BP += ( ( gObj[tObjNum].MaxBP + gObj[tObjNum].AddBP ) * (lpObj->m_btCsNpcRgLevel+1) ) / 100;

  00205	0f b6 8a 59 20
	00 00		 movzx	 ecx, BYTE PTR [edx+8281]
  0020c	41		 inc	 ecx
  0020d	0f af c8	 imul	 ecx, eax
  00210	b8 1f 85 eb 51	 mov	 eax, 1374389535		; 51eb851fH
  00215	f7 e9		 imul	 ecx
  00217	c1 fa 05	 sar	 edx, 5
  0021a	8b c2		 mov	 eax, edx
  0021c	c1 e8 1f	 shr	 eax, 31			; 0000001fH
  0021f	03 c2		 add	 eax, edx
  00221	01 84 37 04 01
	00 00		 add	 DWORD PTR [edi+esi+260], eax

; 87   : 
; 88   : 							if ( gObj[tObjNum].BP > (gObj[tObjNum].MaxBP + gObj[tObjNum].AddBP))

  00228	8b 35 00 00 00
	00		 mov	 esi, DWORD PTR ?gObj@@3PAUOBJECTSTRUCT@@A ; gObj
  0022e	8b 84 37 08 01
	00 00		 mov	 eax, DWORD PTR [edi+esi+264]
  00235	03 84 37 0c 01
	00 00		 add	 eax, DWORD PTR [edi+esi+268]
  0023c	39 84 37 04 01
	00 00		 cmp	 DWORD PTR [edi+esi+260], eax
  00243	7e 0d		 jle	 SHORT $LN16@GuardianSt

; 89   : 								gObj[tObjNum].BP = gObj[tObjNum].MaxBP + gObj[tObjNum].AddBP;

  00245	89 84 37 04 01
	00 00		 mov	 DWORD PTR [edi+esi+260], eax
  0024c	8b 35 00 00 00
	00		 mov	 esi, DWORD PTR ?gObj@@3PAUOBJECTSTRUCT@@A ; gObj
$LN16@GuardianSt:

; 90   : 
; 91   : 							bBpChange = TRUE;

  00252	c7 45 f0 01 00
	00 00		 mov	 DWORD PTR _bBpChange$1$[ebp], 1
$LN15@GuardianSt:

; 92   : 						}
; 93   : 
; 94   : 						if (bLifeChange )

  00259	83 7d f8 00	 cmp	 DWORD PTR _bLifeChange$1$[ebp], 0
  0025d	74 2c		 je	 SHORT $LN17@GuardianSt

; 95   : 							GCReFillSend(tObjNum, (WORD)gObj[tObjNum].Life, 0xFF, 1, gObj[tObjNum].iShield);

  0025f	0f b7 84 37 2c
	01 00 00	 movzx	 eax, WORD PTR [edi+esi+300]
  00267	50		 push	 eax
  00268	f3 0f 2c 84 37
	d8 00 00 00	 cvttss2si eax, DWORD PTR [edi+esi+216]
  00271	6a 01		 push	 1
  00273	68 ff 00 00 00	 push	 255			; 000000ffH
  00278	0f b7 c0	 movzx	 eax, ax
  0027b	50		 push	 eax
  0027c	53		 push	 ebx
  0027d	e8 00 00 00 00	 call	 ?GCReFillSend@@YAXHGEEG@Z ; GCReFillSend
  00282	8b 35 00 00 00
	00		 mov	 esi, DWORD PTR ?gObj@@3PAUOBJECTSTRUCT@@A ; gObj
  00288	83 c4 14	 add	 esp, 20			; 00000014H
$LN17@GuardianSt:

; 96   : 
; 97   : 						if (bManaChange ||bBpChange ) 

  0028b	83 7d f4 00	 cmp	 DWORD PTR _bManaChange$1$[ebp], 0
  0028f	75 06		 jne	 SHORT $LN19@GuardianSt
  00291	83 7d f0 00	 cmp	 DWORD PTR _bBpChange$1$[ebp], 0
  00295	74 2c		 je	 SHORT $LN28@GuardianSt
$LN19@GuardianSt:

; 98   : 							GCManaSend(tObjNum, (WORD)gObj[tObjNum].Mana, 0xFF, 0, gObj[tObjNum].BP);

  00297	0f b7 84 37 04
	01 00 00	 movzx	 eax, WORD PTR [edi+esi+260]
  0029f	50		 push	 eax
  002a0	f3 0f 2c 84 37
	ec 00 00 00	 cvttss2si eax, DWORD PTR [edi+esi+236]
  002a9	6a 00		 push	 0
  002ab	68 ff 00 00 00	 push	 255			; 000000ffH
  002b0	0f b7 c0	 movzx	 eax, ax
  002b3	50		 push	 eax
  002b4	53		 push	 ebx
  002b5	e8 00 00 00 00	 call	 ?GCManaSend@@YAXHFEEG@Z	; GCManaSend
  002ba	8b 35 00 00 00
	00		 mov	 esi, DWORD PTR ?gObj@@3PAUOBJECTSTRUCT@@A ; gObj
  002c0	83 c4 14	 add	 esp, 20			; 00000014H
$LN28@GuardianSt:
  002c3	8b 45 08	 mov	 eax, DWORD PTR _lpObj$1$[ebp]
$LN27@GuardianSt:
  002c6	8b 4d fc	 mov	 ecx, DWORD PTR tv610[ebp]
$LN2@GuardianSt:

; 39   : 		return;
; 40   : 
; 41   : 	int tObjNum = -1;
; 42   : 
; 43   : 	for (int i=0;i<MAX_VIEWPORT;i++)

  002c9	8b 5d ec	 mov	 ebx, DWORD PTR tv584[ebp]
  002cc	f3 0f 10 1d 00
	00 00 00	 movss	 xmm3, DWORD PTR __real@42c80000
  002d4	83 c3 0c	 add	 ebx, 12			; 0000000cH
  002d7	83 e9 01	 sub	 ecx, 1
  002da	89 5d ec	 mov	 DWORD PTR tv584[ebp], ebx
  002dd	89 4d fc	 mov	 DWORD PTR tv610[ebp], ecx
  002e0	0f 85 6e fd ff
	ff		 jne	 $LL4@GuardianSt
  002e6	5f		 pop	 edi
  002e7	5b		 pop	 ebx
$LN3@GuardianSt:
  002e8	5e		 pop	 esi

; 99   : 					}
; 100  : 				}
; 101  : 			}
; 102  : 		}
; 103  : 	}
; 104  : }

  002e9	8b e5		 mov	 esp, ebp
  002eb	5d		 pop	 ebp
  002ec	c2 04 00	 ret	 4
?GuardianStatueAct@CGuardianStatue@@QAEXH@Z ENDP	; CGuardianStatue::GuardianStatueAct
_TEXT	ENDS
; Function compile flags: /Ogtp
; File c:\users\michel\desktop\source\gameserver\source\guardianstatue.cpp
;	COMDAT ??1CGuardianStatue@@UAE@XZ
_TEXT	SEGMENT
??1CGuardianStatue@@UAE@XZ PROC				; CGuardianStatue::~CGuardianStatue, COMDAT
; _this$ = ecx

; 26   : {

  00000	c7 01 00 00 00
	00		 mov	 DWORD PTR [ecx], OFFSET ??_7CGuardianStatue@@6B@

; 27   : 	return;
; 28   : }

  00006	c3		 ret	 0
??1CGuardianStatue@@UAE@XZ ENDP				; CGuardianStatue::~CGuardianStatue
_TEXT	ENDS
; Function compile flags: /Ogtp
; File c:\users\michel\desktop\source\gameserver\source\guardianstatue.cpp
;	COMDAT ??0CGuardianStatue@@QAE@XZ
_TEXT	SEGMENT
??0CGuardianStatue@@QAE@XZ PROC				; CGuardianStatue::CGuardianStatue, COMDAT
; _this$ = ecx

; 21   : {

  00000	c7 01 00 00 00
	00		 mov	 DWORD PTR [ecx], OFFSET ??_7CGuardianStatue@@6B@

; 22   : 	return;
; 23   : }

  00006	8b c1		 mov	 eax, ecx
  00008	c3		 ret	 0
??0CGuardianStatue@@QAE@XZ ENDP				; CGuardianStatue::CGuardianStatue
_TEXT	ENDS
; Function compile flags: /Ogtp
; File c:\users\michel\desktop\source\gameserver\source\guardianstatue.cpp
;	COMDAT ?__empty_global_delete@@YAXPAXI@Z
_TEXT	SEGMENT
___formal$ = 8						; size = 4
___formal$ = 12						; size = 4
?__empty_global_delete@@YAXPAXI@Z PROC			; __empty_global_delete, COMDAT

; 108  : #endif

  00000	c3		 ret	 0
?__empty_global_delete@@YAXPAXI@Z ENDP			; __empty_global_delete
_TEXT	ENDS
; Function compile flags: /Ogtp
; File c:\users\michel\desktop\source\gameserver\source\guardianstatue.cpp
;	COMDAT ?__empty_global_delete@@YAXPAX@Z
_TEXT	SEGMENT
___formal$ = 8						; size = 4
?__empty_global_delete@@YAXPAX@Z PROC			; __empty_global_delete, COMDAT

; 108  : #endif

  00000	c3		 ret	 0
?__empty_global_delete@@YAXPAX@Z ENDP			; __empty_global_delete
_TEXT	ENDS
END
