; Listing generated by Microsoft (R) Optimizing Compiler Version 19.00.23506.0 

	TITLE	C:\Users\Michel\Desktop\Source\GameServer\Source\HardcoreMode.cpp
	.686P
	.XMM
	include listing.inc
	.model	flat

INCLUDELIB LIBCMT
INCLUDELIB OLDNAMES

PUBLIC	?__empty_global_delete@@YAXPAX@Z		; __empty_global_delete
PUBLIC	?__empty_global_delete@@YAXPAXI@Z		; __empty_global_delete
PUBLIC	___local_stdio_printf_options
PUBLIC	??$__vcrt_va_start_verify_argument_type@QBD@@YAXXZ ; __vcrt_va_start_verify_argument_type<char const * const>
PUBLIC	_sprintf
PUBLIC	??1OBJECTSTRUCT@@QAE@XZ				; OBJECTSTRUCT::~OBJECTSTRUCT
PUBLIC	??_EOBJECTSTRUCT@@QAEPAXI@Z			; OBJECTSTRUCT::`vector deleting destructor'
PUBLIC	??0HardcoreMode@@QAE@XZ				; HardcoreMode::HardcoreMode
PUBLIC	??1HardcoreMode@@UAE@XZ				; HardcoreMode::~HardcoreMode
PUBLIC	?Init@HardcoreMode@@QAEXXZ			; HardcoreMode::Init
PUBLIC	?Load@HardcoreMode@@QAEXXZ			; HardcoreMode::Load
PUBLIC	?Read@HardcoreMode@@QAEXPAD@Z			; HardcoreMode::Read
PUBLIC	?Activate@HardcoreMode@@QAEXXZ			; HardcoreMode::Activate
PUBLIC	?ProcDie@HardcoreMode@@QAEXPAUOBJECTSTRUCT@@0@Z	; HardcoreMode::ProcDie
PUBLIC	??_GHardcoreMode@@UAEPAXI@Z			; HardcoreMode::`scalar deleting destructor'
PUBLIC	?_OptionsStorage@?1??__local_stdio_printf_options@@9@4_KA ; `__local_stdio_printf_options'::`2'::_OptionsStorage
PUBLIC	??_7HardcoreMode@@6B@				; HardcoreMode::`vftable'
PUBLIC	?g_HardcoreMode@@3VHardcoreMode@@A		; g_HardcoreMode
PUBLIC	??_C@_0BI@OHEPLANN@Custom?2HardcoreMode?4xml?$AA@ ; `string'
PUBLIC	??_C@_0DO@FFNIGNML@?$FLHardcoreMode?$FN?5?$FL?$CFs?$FN?$FL?$CFs?$FN?5?$CILife?3?5?$CF@ ; `string'
PUBLIC	??_C@_0P@CJOJBOFN@Lives?5left?3?5?$CFd?$AA@	; `string'
PUBLIC	??_R4HardcoreMode@@6B@				; HardcoreMode::`RTTI Complete Object Locator'
PUBLIC	??_R0?AVHardcoreMode@@@8			; HardcoreMode `RTTI Type Descriptor'
PUBLIC	??_R3HardcoreMode@@8				; HardcoreMode::`RTTI Class Hierarchy Descriptor'
PUBLIC	??_R2HardcoreMode@@8				; HardcoreMode::`RTTI Base Class Array'
PUBLIC	??_R1A@?0A@EA@HardcoreMode@@8			; HardcoreMode::`RTTI Base Class Descriptor at (0,-1,0,64)'
EXTRN	??_M@YGXPAXIIP6EX0@Z@Z:PROC			; `eh vector destructor iterator'
EXTRN	??3@YAXPAXI@Z:PROC				; operator delete
EXTRN	??_V@YAXPAXI@Z:PROC				; operator delete[]
EXTRN	_atexit:PROC
EXTRN	___stdio_common_vsprintf:PROC
EXTRN	??1CSkillDelay@@UAE@XZ:PROC			; CSkillDelay::~CSkillDelay
EXTRN	??1TMonsterAIAgro@@UAE@XZ:PROC			; TMonsterAIAgro::~TMonsterAIAgro
EXTRN	?gObjCloseSet@@YAXHH@Z:PROC			; gObjCloseSet
EXTRN	?MsgOutput@@YAXHPADZZ:PROC			; MsgOutput
EXTRN	??_EHardcoreMode@@UAEPAXI@Z:PROC		; HardcoreMode::`vector deleting destructor'
EXTRN	?GetNewPath@CDirPath@@QAEPADPAD@Z:PROC		; CDirPath::GetNewPath
EXTRN	?GetAttr@CMonsterAttr@@QAEPAUMONSTER_ATTRIBUTE@@H@Z:PROC ; CMonsterAttr::GetAttr
EXTRN	?Send@DBSockMng@@QAEHPADH@Z:PROC		; DBSockMng::Send
EXTRN	@__security_check_cookie@4:PROC
EXTRN	___CxxFrameHandler3:PROC
EXTRN	??_7type_info@@6B@:QWORD			; type_info::`vftable'
EXTRN	?LogAddTD@@3P6AXPADZZA:DWORD			; LogAddTD
EXTRN	?gDirPath@@3VCDirPath@@A:BYTE			; gDirPath
EXTRN	?gMAttr@@3VCMonsterAttr@@A:BYTE			; gMAttr
EXTRN	?cDBSMng@@3VDBSockMng@@A:BYTE			; cDBSMng
EXTRN	___security_cookie:DWORD
;	COMDAT ?_OptionsStorage@?1??__local_stdio_printf_options@@9@4_KA
_BSS	SEGMENT
?_OptionsStorage@?1??__local_stdio_printf_options@@9@4_KA DQ 01H DUP (?) ; `__local_stdio_printf_options'::`2'::_OptionsStorage
_BSS	ENDS
_BSS	SEGMENT
?g_HardcoreMode@@3VHardcoreMode@@A DB 014cH DUP (?)	; g_HardcoreMode
_BSS	ENDS
CRT$XCU	SEGMENT
?g_HardcoreMode$initializer$@@3P6AXXZA DD FLAT:??__Eg_HardcoreMode@@YAXXZ ; g_HardcoreMode$initializer$
CRT$XCU	ENDS
;	COMDAT ??_R1A@?0A@EA@HardcoreMode@@8
rdata$r	SEGMENT
??_R1A@?0A@EA@HardcoreMode@@8 DD FLAT:??_R0?AVHardcoreMode@@@8 ; HardcoreMode::`RTTI Base Class Descriptor at (0,-1,0,64)'
	DD	00H
	DD	00H
	DD	0ffffffffH
	DD	00H
	DD	040H
	DD	FLAT:??_R3HardcoreMode@@8
rdata$r	ENDS
;	COMDAT ??_R2HardcoreMode@@8
rdata$r	SEGMENT
??_R2HardcoreMode@@8 DD FLAT:??_R1A@?0A@EA@HardcoreMode@@8 ; HardcoreMode::`RTTI Base Class Array'
rdata$r	ENDS
;	COMDAT ??_R3HardcoreMode@@8
rdata$r	SEGMENT
??_R3HardcoreMode@@8 DD 00H				; HardcoreMode::`RTTI Class Hierarchy Descriptor'
	DD	00H
	DD	01H
	DD	FLAT:??_R2HardcoreMode@@8
rdata$r	ENDS
;	COMDAT ??_R0?AVHardcoreMode@@@8
data$r	SEGMENT
??_R0?AVHardcoreMode@@@8 DD FLAT:??_7type_info@@6B@	; HardcoreMode `RTTI Type Descriptor'
	DD	00H
	DB	'.?AVHardcoreMode@@', 00H
data$r	ENDS
;	COMDAT ??_R4HardcoreMode@@6B@
rdata$r	SEGMENT
??_R4HardcoreMode@@6B@ DD 00H				; HardcoreMode::`RTTI Complete Object Locator'
	DD	00H
	DD	00H
	DD	FLAT:??_R0?AVHardcoreMode@@@8
	DD	FLAT:??_R3HardcoreMode@@8
rdata$r	ENDS
;	COMDAT ??_C@_0P@CJOJBOFN@Lives?5left?3?5?$CFd?$AA@
CONST	SEGMENT
??_C@_0P@CJOJBOFN@Lives?5left?3?5?$CFd?$AA@ DB 'Lives left: %d', 00H ; `string'
CONST	ENDS
;	COMDAT ??_C@_0DO@FFNIGNML@?$FLHardcoreMode?$FN?5?$FL?$CFs?$FN?$FL?$CFs?$FN?5?$CILife?3?5?$CF@
CONST	SEGMENT
??_C@_0DO@FFNIGNML@?$FLHardcoreMode?$FN?5?$FL?$CFs?$FN?$FL?$CFs?$FN?5?$CILife?3?5?$CF@ DB '['
	DB	'HardcoreMode] [%s][%s] (Life: %d) User has been killed by %s', 00H ; `string'
CONST	ENDS
;	COMDAT ??_C@_0BI@OHEPLANN@Custom?2HardcoreMode?4xml?$AA@
CONST	SEGMENT
??_C@_0BI@OHEPLANN@Custom?2HardcoreMode?4xml?$AA@ DB 'Custom\HardcoreMode'
	DB	'.xml', 00H					; `string'
CONST	ENDS
;	COMDAT ??_7HardcoreMode@@6B@
CONST	SEGMENT
??_7HardcoreMode@@6B@ DD FLAT:??_R4HardcoreMode@@6B@	; HardcoreMode::`vftable'
	DD	FLAT:??_EHardcoreMode@@UAEPAXI@Z
CONST	ENDS
;	COMDAT xdata$x
xdata$x	SEGMENT
__ehfuncinfo$??_EOBJECTSTRUCT@@QAEPAXI@Z DD 019930522H
	DD	00H
	DD	00H
	DD	2 DUP(00H)
	DD	2 DUP(00H)
	DD	00H
	DD	05H
xdata$x	ENDS
; Function compile flags: /Ogtp
;	COMDAT ??__Fg_HardcoreMode@@YAXXZ
text$yd	SEGMENT
??__Fg_HardcoreMode@@YAXXZ PROC				; `dynamic atexit destructor for 'g_HardcoreMode'', COMDAT
  00000	b9 00 00 00 00	 mov	 ecx, OFFSET ?g_HardcoreMode@@3VHardcoreMode@@A ; g_HardcoreMode
  00005	e9 00 00 00 00	 jmp	 ??1HardcoreMode@@UAE@XZ	; HardcoreMode::~HardcoreMode
??__Fg_HardcoreMode@@YAXXZ ENDP				; `dynamic atexit destructor for 'g_HardcoreMode''
text$yd	ENDS
; Function compile flags: /Ogtp
; File c:\users\michel\desktop\source\gameserver\source\hardcoremode.cpp
;	COMDAT ??__Eg_HardcoreMode@@YAXXZ
text$di	SEGMENT
??__Eg_HardcoreMode@@YAXXZ PROC				; `dynamic initializer for 'g_HardcoreMode'', COMDAT

; 8    : HardcoreMode g_HardcoreMode;

  00000	b9 00 00 00 00	 mov	 ecx, OFFSET ?g_HardcoreMode@@3VHardcoreMode@@A ; g_HardcoreMode
  00005	e8 00 00 00 00	 call	 ??0HardcoreMode@@QAE@XZ	; HardcoreMode::HardcoreMode
  0000a	68 00 00 00 00	 push	 OFFSET ??__Fg_HardcoreMode@@YAXXZ ; `dynamic atexit destructor for 'g_HardcoreMode''
  0000f	e8 00 00 00 00	 call	 _atexit
  00014	59		 pop	 ecx
  00015	c3		 ret	 0
??__Eg_HardcoreMode@@YAXXZ ENDP				; `dynamic initializer for 'g_HardcoreMode''
text$di	ENDS
; Function compile flags: /Ogtp
;	COMDAT ??_GHardcoreMode@@UAEPAXI@Z
_TEXT	SEGMENT
___flags$ = 8						; size = 4
??_GHardcoreMode@@UAEPAXI@Z PROC			; HardcoreMode::`scalar deleting destructor', COMDAT
; _this$ = ecx
  00000	55		 push	 ebp
  00001	8b ec		 mov	 ebp, esp
  00003	56		 push	 esi
  00004	8b f1		 mov	 esi, ecx
  00006	e8 00 00 00 00	 call	 ??1HardcoreMode@@UAE@XZ	; HardcoreMode::~HardcoreMode
  0000b	f6 45 08 01	 test	 BYTE PTR ___flags$[ebp], 1
  0000f	74 0e		 je	 SHORT $LN4@scalar
  00011	68 4c 01 00 00	 push	 332			; 0000014cH
  00016	56		 push	 esi
  00017	e8 00 00 00 00	 call	 ??3@YAXPAXI@Z		; operator delete
  0001c	83 c4 08	 add	 esp, 8
$LN4@scalar:
  0001f	8b c6		 mov	 eax, esi
  00021	5e		 pop	 esi
  00022	5d		 pop	 ebp
  00023	c2 04 00	 ret	 4
??_GHardcoreMode@@UAEPAXI@Z ENDP			; HardcoreMode::`scalar deleting destructor'
_TEXT	ENDS
; Function compile flags: /Ogtp
; File c:\users\michel\desktop\source\gameserver\source\hardcoremode.cpp
;	COMDAT ?ProcDie@HardcoreMode@@QAEXPAUOBJECTSTRUCT@@0@Z
_TEXT	SEGMENT
_Text$1 = -104						; size = 100
__$ArrayPad$ = -4					; size = 4
_lpUser$ = 8						; size = 4
_lpKiller$ = 12						; size = 4
?ProcDie@HardcoreMode@@QAEXPAUOBJECTSTRUCT@@0@Z PROC	; HardcoreMode::ProcDie, COMDAT
; _this$ = ecx

; 83   : {

  00000	55		 push	 ebp
  00001	8b ec		 mov	 ebp, esp
  00003	83 ec 68	 sub	 esp, 104		; 00000068H
  00006	a1 00 00 00 00	 mov	 eax, DWORD PTR ___security_cookie
  0000b	33 c5		 xor	 eax, ebp
  0000d	89 45 fc	 mov	 DWORD PTR __$ArrayPad$[ebp], eax

; 84   : 	if( !this->m_IsActive )

  00010	80 79 04 00	 cmp	 BYTE PTR [ecx+4], 0
  00014	8b 45 0c	 mov	 eax, DWORD PTR _lpKiller$[ebp]
  00017	56		 push	 esi
  00018	8b 75 08	 mov	 esi, DWORD PTR _lpUser$[ebp]
  0001b	0f 84 d2 00 00
	00		 je	 $LN11@ProcDie

; 85   : 	{
; 86   : 		return;
; 87   : 	}
; 88   : 
; 89   : 	if( lpUser->Authority == 32 )

  00021	83 be bc 01 00
	00 20		 cmp	 DWORD PTR [esi+444], 32	; 00000020H
  00028	0f 84 c5 00 00
	00		 je	 $LN11@ProcDie

; 90   : 	{
; 91   : 		return;
; 92   : 	}
; 93   : 
; 94   : 	if( lpKiller->Type == OBJ_USER && !this->m_LifeDecreaseByPvP )

  0002e	8a 50 50	 mov	 dl, BYTE PTR [eax+80]
  00031	80 fa 01	 cmp	 dl, 1
  00034	75 0a		 jne	 SHORT $LN4@ProcDie
  00036	80 79 05 00	 cmp	 BYTE PTR [ecx+5], 0
  0003a	0f 84 b3 00 00
	00		 je	 $LN11@ProcDie
$LN4@ProcDie:

; 95   : 	{
; 96   : 		return;
; 97   : 	}
; 98   : 
; 99   : 	if( lpKiller->Type == OBJ_MONSTER && !this->m_LifeDecreaseByPvM )

  00040	80 fa 02	 cmp	 dl, 2
  00043	75 0a		 jne	 SHORT $LN5@ProcDie
  00045	80 79 06 00	 cmp	 BYTE PTR [ecx+6], 0
  00049	0f 84 a4 00 00
	00		 je	 $LN11@ProcDie
$LN5@ProcDie:

; 100  : 	{
; 101  : 		return;
; 102  : 	}
; 103  : 	
; 104  : 	lpUser->m_HardcoreLife--;

  0004f	66 ff 8e 3c 27
	00 00		 dec	 WORD PTR [esi+10044]

; 105  : 	
; 106  : 	if( lpKiller->Type == OBJ_MONSTER )

  00056	8a 48 50	 mov	 cl, BYTE PTR [eax+80]
  00059	66 8b 96 3c 27
	00 00		 mov	 dx, WORD PTR [esi+10044]
  00060	80 f9 02	 cmp	 cl, 2
  00063	75 23		 jne	 SHORT $LN6@ProcDie

; 107  : 	{
; 108  : 		LPMONSTER_ATTRIBUTE MonAttr = gMAttr.GetAttr(lpKiller->Class);

  00065	0f b7 80 90 00
	00 00		 movzx	 eax, WORD PTR [eax+144]
  0006c	b9 00 00 00 00	 mov	 ecx, OFFSET ?gMAttr@@3VCMonsterAttr@@A ; gMAttr
  00071	50		 push	 eax
  00072	e8 00 00 00 00	 call	 ?GetAttr@CMonsterAttr@@QAEPAUMONSTER_ATTRIBUTE@@H@Z ; CMonsterAttr::GetAttr

; 109  : 		
; 110  : 		if( MonAttr != NULL )

  00077	85 c0		 test	 eax, eax
  00079	74 30		 je	 SHORT $LN9@ProcDie

; 111  : 		{
; 112  : 			LogAddTD("[HardcoreMode] [%s][%s] (Life: %d) User has been killed by %s", 

  0007b	83 c0 08	 add	 eax, 8
  0007e	50		 push	 eax
  0007f	0f bf 86 3c 27
	00 00		 movsx	 eax, WORD PTR [esi+10044]

; 113  : 				lpUser->AccountID, lpUser->Name, lpUser->m_HardcoreLife, MonAttr->m_Name);
; 114  : 		}
; 115  : 	}

  00086	eb 0c		 jmp	 SHORT $LN13@ProcDie
$LN6@ProcDie:

; 116  : 	else if( lpKiller->Type == OBJ_USER )

  00088	80 f9 01	 cmp	 cl, 1
  0008b	75 1e		 jne	 SHORT $LN9@ProcDie

; 117  : 	{
; 118  : 		LogAddTD("[HardcoreMode] [%s][%s] (Life: %d) User has been killed by %s", 

  0008d	83 c0 5d	 add	 eax, 93			; 0000005dH
  00090	50		 push	 eax
  00091	0f bf c2	 movsx	 eax, dx
$LN13@ProcDie:
  00094	50		 push	 eax
  00095	8d 46 5d	 lea	 eax, DWORD PTR [esi+93]
  00098	50		 push	 eax
  00099	8d 46 52	 lea	 eax, DWORD PTR [esi+82]
  0009c	50		 push	 eax
  0009d	68 00 00 00 00	 push	 OFFSET ??_C@_0DO@FFNIGNML@?$FLHardcoreMode?$FN?5?$FL?$CFs?$FN?$FL?$CFs?$FN?5?$CILife?3?5?$CF@
  000a2	ff 15 00 00 00
	00		 call	 DWORD PTR ?LogAddTD@@3P6AXPADZZA ; LogAddTD
  000a8	83 c4 14	 add	 esp, 20			; 00000014H
$LN9@ProcDie:

; 119  : 			lpUser->AccountID, lpUser->Name, lpUser->m_HardcoreLife, lpKiller->Name);
; 120  : 	}
; 121  : 
; 122  : 	if( lpUser->m_HardcoreLife < 1 )

  000ab	0f b7 86 3c 27
	00 00		 movzx	 eax, WORD PTR [esi+10044]
  000b2	66 83 f8 01	 cmp	 ax, 1
  000b6	7d 1d		 jge	 SHORT $LN10@ProcDie

; 123  : 	{
; 124  : 		gObjCloseSet(lpUser->m_Index, 1);

  000b8	6a 01		 push	 1
  000ba	ff 36		 push	 DWORD PTR [esi]
  000bc	e8 00 00 00 00	 call	 ?gObjCloseSet@@YAXHH@Z	; gObjCloseSet
  000c1	83 c4 08	 add	 esp, 8
  000c4	5e		 pop	 esi

; 131  : 	}
; 132  : }

  000c5	8b 4d fc	 mov	 ecx, DWORD PTR __$ArrayPad$[ebp]
  000c8	33 cd		 xor	 ecx, ebp
  000ca	e8 00 00 00 00	 call	 @__security_check_cookie@4
  000cf	8b e5		 mov	 esp, ebp
  000d1	5d		 pop	 ebp
  000d2	c2 08 00	 ret	 8
$LN10@ProcDie:

; 125  : 	}
; 126  : 	else
; 127  : 	{
; 128  : 		char Text[100];
; 129  : 		sprintf(Text, "Lives left: %d", lpUser->m_HardcoreLife);

  000d5	98		 cwde
  000d6	50		 push	 eax
  000d7	8d 45 98	 lea	 eax, DWORD PTR _Text$1[ebp]
  000da	68 00 00 00 00	 push	 OFFSET ??_C@_0P@CJOJBOFN@Lives?5left?3?5?$CFd?$AA@
  000df	50		 push	 eax
  000e0	e8 00 00 00 00	 call	 _sprintf

; 130  : 		MsgOutput(lpUser->m_Index, Text);

  000e5	8d 45 98	 lea	 eax, DWORD PTR _Text$1[ebp]
  000e8	50		 push	 eax
  000e9	ff 36		 push	 DWORD PTR [esi]
  000eb	e8 00 00 00 00	 call	 ?MsgOutput@@YAXHPADZZ	; MsgOutput
  000f0	83 c4 14	 add	 esp, 20			; 00000014H
$LN11@ProcDie:

; 131  : 	}
; 132  : }

  000f3	8b 4d fc	 mov	 ecx, DWORD PTR __$ArrayPad$[ebp]
  000f6	33 cd		 xor	 ecx, ebp
  000f8	5e		 pop	 esi
  000f9	e8 00 00 00 00	 call	 @__security_check_cookie@4
  000fe	8b e5		 mov	 esp, ebp
  00100	5d		 pop	 ebp
  00101	c2 08 00	 ret	 8
?ProcDie@HardcoreMode@@QAEXPAUOBJECTSTRUCT@@0@Z ENDP	; HardcoreMode::ProcDie
_TEXT	ENDS
; Function compile flags: /Ogtp
; File c:\users\michel\desktop\source\gameserver\source\hardcoremode.cpp
; File c:\users\michel\desktop\source\gameserver\include\prodef.h
; File c:\users\michel\desktop\source\gameserver\source\hardcoremode.cpp
;	COMDAT ?Activate@HardcoreMode@@QAEXXZ
_TEXT	SEGMENT
_lpRequest$ = -8					; size = 7
?Activate@HardcoreMode@@QAEXXZ PROC			; HardcoreMode::Activate, COMDAT
; _this$ = ecx

; 69   : {

  00000	55		 push	 ebp
  00001	8b ec		 mov	 ebp, esp

; 70   : 	if( !this->m_IsActive )

  00003	8a 41 04	 mov	 al, BYTE PTR [ecx+4]
  00006	83 ec 08	 sub	 esp, 8
  00009	84 c0		 test	 al, al
  0000b	74 27		 je	 SHORT $LN1@Activate

; 71   : 	{
; 72   : 		return;
; 73   : 	}
; 74   : 
; 75   : 	GD_HardcoreMode_Activate lpRequest = { 0 };

  0000d	33 d2		 xor	 edx, edx
  0000f	89 55 f9	 mov	 DWORD PTR _lpRequest$[ebp+1], edx

; 76   : 	lpRequest.Header.set((LPBYTE)&lpRequest, 0xFE, 0x00, sizeof(lpRequest));
; 77   : 	lpRequest.Status = this->m_IsActive;

  00012	88 45 fc	 mov	 BYTE PTR _lpRequest$[ebp+4], al

; 78   : 	lpRequest.LifeCount = this->m_LifeDefaultCount;

  00015	66 8b 41 08	 mov	 ax, WORD PTR [ecx+8]

; 79   : 	cDBSMng.Send((PCHAR)&lpRequest, sizeof(lpRequest));

  00019	b9 00 00 00 00	 mov	 ecx, OFFSET ?cDBSMng@@3VDBSockMng@@A ; cDBSMng
  0001e	66 89 45 fd	 mov	 WORD PTR _lpRequest$[ebp+5], ax
  00022	8d 45 f8	 lea	 eax, DWORD PTR _lpRequest$[ebp]
  00025	6a 07		 push	 7
  00027	50		 push	 eax
; File c:\users\michel\desktop\source\gameserver\include\prodef.h

; 140  : 		lpBuf[0] = 0xC1;

  00028	c7 45 f8 c1 07
	fe 00		 mov	 DWORD PTR _lpRequest$[ebp], 16648129 ; 00fe07c1H
; File c:\users\michel\desktop\source\gameserver\source\hardcoremode.cpp

; 79   : 	cDBSMng.Send((PCHAR)&lpRequest, sizeof(lpRequest));

  0002f	e8 00 00 00 00	 call	 ?Send@DBSockMng@@QAEHPADH@Z ; DBSockMng::Send
$LN1@Activate:

; 80   : }

  00034	8b e5		 mov	 esp, ebp
  00036	5d		 pop	 ebp
  00037	c3		 ret	 0
?Activate@HardcoreMode@@QAEXXZ ENDP			; HardcoreMode::Activate
_TEXT	ENDS
; Function compile flags: /Ogtp
; File c:\users\michel\desktop\source\gameserver\source\hardcoremode.cpp
;	COMDAT ?Read@HardcoreMode@@QAEXPAD@Z
_TEXT	SEGMENT
_File$ = 8						; size = 4
?Read@HardcoreMode@@QAEXPAD@Z PROC			; HardcoreMode::Read, COMDAT
; _this$ = ecx

; 41   : 	
; 42   : 	return;
; 43   : 	
; 44   : 
; 45   : 	xml_document Document;
; 46   : 	xml_parse_result Result = Document.load_file(File);
; 47   : 
; 48   : 	if( Result.status != status_ok )
; 49   : 	{
; 50   : 		MsgBox("[HardcoreMode] File %s not found!", File);
; 51   : 		return;
; 52   : 	}
; 53   : 
; 54   : 	xml_node ChildCommon = Document.child("hardcore");
; 55   : 
; 56   : 	this->m_IsActive = ChildCommon.child("enabled").text().as_int(0);
; 57   : 	this->m_LifeDefaultCount = ChildCommon.child("defaultlifecount").text().as_int(0);
; 58   : 
; 59   : 	strcpy(this->m_ManagerCommandAdd, ChildCommon.child("opcommandadd").text().as_string());
; 60   : 	strcpy(this->m_ManagerCommandDec, ChildCommon.child("opcommanddec").text().as_string());
; 61   : 	strcpy(this->m_ManagerCommandSet, ChildCommon.child("opcommandset").text().as_string());
; 62   : 	strcpy(this->m_ManagerCommandInfo, ChildCommon.child("opcommandinfo").text().as_string());
; 63   : 
; 64   : 	this->m_LifeDecreaseByPvP = ChildCommon.child("rules").child("pvplifedec").text().as_int(0);
; 65   : 	this->m_LifeDecreaseByPvM = ChildCommon.child("rules").child("pvmlifedec").text().as_int(0);
; 66   : }

  00000	c2 04 00	 ret	 4
?Read@HardcoreMode@@QAEXPAD@Z ENDP			; HardcoreMode::Read
_TEXT	ENDS
; Function compile flags: /Ogtp
; File c:\users\michel\desktop\source\gameserver\source\hardcoremode.cpp
;	COMDAT ?Load@HardcoreMode@@QAEXXZ
_TEXT	SEGMENT
?Load@HardcoreMode@@QAEXXZ PROC				; HardcoreMode::Load, COMDAT
; _this$ = ecx

; 34   : {

  00000	56		 push	 esi
  00001	8b f1		 mov	 esi, ecx

; 35   : 	this->Init();

  00003	e8 00 00 00 00	 call	 ?Init@HardcoreMode@@QAEXXZ ; HardcoreMode::Init

; 36   : 	this->Read(gDirPath.GetNewPath(FILE_CUSTOM_HARDCOREMODE));

  00008	68 00 00 00 00	 push	 OFFSET ??_C@_0BI@OHEPLANN@Custom?2HardcoreMode?4xml?$AA@
  0000d	b9 00 00 00 00	 mov	 ecx, OFFSET ?gDirPath@@3VCDirPath@@A ; gDirPath
  00012	e8 00 00 00 00	 call	 ?GetNewPath@CDirPath@@QAEPADPAD@Z ; CDirPath::GetNewPath
  00017	50		 push	 eax
  00018	8b ce		 mov	 ecx, esi
  0001a	e8 00 00 00 00	 call	 ?Read@HardcoreMode@@QAEXPAD@Z ; HardcoreMode::Read
  0001f	5e		 pop	 esi

; 37   : }

  00020	c3		 ret	 0
?Load@HardcoreMode@@QAEXXZ ENDP				; HardcoreMode::Load
_TEXT	ENDS
; Function compile flags: /Ogtp
; File c:\users\michel\desktop\source\gameserver\source\hardcoremode.cpp
;	COMDAT ?Init@HardcoreMode@@QAEXXZ
_TEXT	SEGMENT
?Init@HardcoreMode@@QAEXXZ PROC				; HardcoreMode::Init, COMDAT
; _this$ = ecx

; 23   : 	this->m_IsActive = false;
; 24   : 	this->m_LifeDecreaseByPvP = false;
; 25   : 	this->m_LifeDecreaseByPvM = false;
; 26   : 	this->m_LifeDefaultCount = 0;

  00000	33 c0		 xor	 eax, eax
  00002	66 c7 41 04 00
	00		 mov	 WORD PTR [ecx+4], 0
  00008	c6 41 06 00	 mov	 BYTE PTR [ecx+6], 0
  0000c	66 89 41 08	 mov	 WORD PTR [ecx+8], ax

; 27   : 	ZeroMemory(this->m_ManagerCommandAdd, 0);
; 28   : 	ZeroMemory(this->m_ManagerCommandDec, 0);
; 29   : 	ZeroMemory(this->m_ManagerCommandSet, 0);
; 30   : 	ZeroMemory(this->m_ManagerCommandInfo, 0);
; 31   : }

  00010	c3		 ret	 0
?Init@HardcoreMode@@QAEXXZ ENDP				; HardcoreMode::Init
_TEXT	ENDS
; Function compile flags: /Ogtp
; File c:\users\michel\desktop\source\gameserver\source\hardcoremode.cpp
;	COMDAT ??1HardcoreMode@@UAE@XZ
_TEXT	SEGMENT
??1HardcoreMode@@UAE@XZ PROC				; HardcoreMode::~HardcoreMode, COMDAT
; _this$ = ecx

; 17   : {

  00000	c7 01 00 00 00
	00		 mov	 DWORD PTR [ecx], OFFSET ??_7HardcoreMode@@6B@

; 18   : 
; 19   : }

  00006	c3		 ret	 0
??1HardcoreMode@@UAE@XZ ENDP				; HardcoreMode::~HardcoreMode
_TEXT	ENDS
; Function compile flags: /Ogtp
; File c:\users\michel\desktop\source\gameserver\source\hardcoremode.cpp
;	COMDAT ??0HardcoreMode@@QAE@XZ
_TEXT	SEGMENT
??0HardcoreMode@@QAE@XZ PROC				; HardcoreMode::HardcoreMode, COMDAT
; _this$ = ecx

; 12   : {

  00000	c7 01 00 00 00
	00		 mov	 DWORD PTR [ecx], OFFSET ??_7HardcoreMode@@6B@

; 13   : 
; 14   : }

  00006	8b c1		 mov	 eax, ecx
  00008	c3		 ret	 0
??0HardcoreMode@@QAE@XZ ENDP				; HardcoreMode::HardcoreMode
_TEXT	ENDS
; Function compile flags: /Ogtp
; File c:\users\michel\desktop\source\gameserver\include\prodef.h
;	COMDAT ?set@PBMSG_HEAD2@@QAEXPAEEEE@Z
_TEXT	SEGMENT
_lpBuf$ = 8						; size = 4
_head$ = 12						; size = 1
_sub$ = 16						; size = 1
_size$ = 20						; size = 1
?set@PBMSG_HEAD2@@QAEXPAEEEE@Z PROC			; PBMSG_HEAD2::set, COMDAT
; _this$ = ecx

; 139  : 	{

  00000	55		 push	 ebp
  00001	8b ec		 mov	 ebp, esp

; 140  : 		lpBuf[0] = 0xC1;

  00003	8b 4d 08	 mov	 ecx, DWORD PTR _lpBuf$[ebp]

; 141  : 		lpBuf[1] = size;

  00006	8a 45 14	 mov	 al, BYTE PTR _size$[ebp]
  00009	88 41 01	 mov	 BYTE PTR [ecx+1], al

; 142  : 		lpBuf[2] = head;

  0000c	8a 45 0c	 mov	 al, BYTE PTR _head$[ebp]
  0000f	88 41 02	 mov	 BYTE PTR [ecx+2], al

; 143  : 		lpBuf[3] = sub;

  00012	8a 45 10	 mov	 al, BYTE PTR _sub$[ebp]
  00015	c6 01 c1	 mov	 BYTE PTR [ecx], 193	; 000000c1H
  00018	88 41 03	 mov	 BYTE PTR [ecx+3], al

; 144  : 	};

  0001b	5d		 pop	 ebp
  0001c	c2 10 00	 ret	 16			; 00000010H
?set@PBMSG_HEAD2@@QAEXPAEEEE@Z ENDP			; PBMSG_HEAD2::set
_TEXT	ENDS
; Function compile flags: /Ogtp
;	COMDAT ??_EOBJECTSTRUCT@@QAEPAXI@Z
_TEXT	SEGMENT
__$EHRec$ = -12						; size = 12
___flags$ = 8						; size = 4
??_EOBJECTSTRUCT@@QAEPAXI@Z PROC			; OBJECTSTRUCT::`vector deleting destructor', COMDAT
; _this$ = ecx
  00000	55		 push	 ebp
  00001	8b ec		 mov	 ebp, esp
  00003	6a ff		 push	 -1
  00005	68 00 00 00 00	 push	 __ehhandler$??_EOBJECTSTRUCT@@QAEPAXI@Z
  0000a	64 a1 00 00 00
	00		 mov	 eax, DWORD PTR fs:0
  00010	50		 push	 eax
  00011	53		 push	 ebx
  00012	56		 push	 esi
  00013	57		 push	 edi
  00014	a1 00 00 00 00	 mov	 eax, DWORD PTR ___security_cookie
  00019	33 c5		 xor	 eax, ebp
  0001b	50		 push	 eax
  0001c	8d 45 f4	 lea	 eax, DWORD PTR __$EHRec$[ebp]
  0001f	64 a3 00 00 00
	00		 mov	 DWORD PTR fs:0, eax
  00025	8b f1		 mov	 esi, ecx
  00027	8b 5d 08	 mov	 ebx, DWORD PTR ___flags$[ebp]
  0002a	f6 c3 02	 test	 bl, 2
  0002d	74 44		 je	 SHORT $LN2@vector
  0002f	68 00 00 00 00	 push	 OFFSET ??1OBJECTSTRUCT@@QAE@XZ
  00034	ff 76 fc	 push	 DWORD PTR [esi-4]
  00037	8d 7e fc	 lea	 edi, DWORD PTR [esi-4]
  0003a	68 40 27 00 00	 push	 10048			; 00002740H
  0003f	56		 push	 esi
  00040	e8 00 00 00 00	 call	 ??_M@YGXPAXIIP6EX0@Z@Z
  00045	f6 c3 01	 test	 bl, 1
  00048	74 13		 je	 SHORT $LN3@vector
  0004a	69 0f 40 27 00
	00		 imul	 ecx, DWORD PTR [edi], 10048
  00050	83 c1 04	 add	 ecx, 4
  00053	51		 push	 ecx
  00054	57		 push	 edi
  00055	e8 00 00 00 00	 call	 ??_V@YAXPAXI@Z		; operator delete[]
  0005a	83 c4 08	 add	 esp, 8
$LN3@vector:
  0005d	8b c7		 mov	 eax, edi
  0005f	8b 4d f4	 mov	 ecx, DWORD PTR __$EHRec$[ebp]
  00062	64 89 0d 00 00
	00 00		 mov	 DWORD PTR fs:0, ecx
  00069	59		 pop	 ecx
  0006a	5f		 pop	 edi
  0006b	5e		 pop	 esi
  0006c	5b		 pop	 ebx
  0006d	8b e5		 mov	 esp, ebp
  0006f	5d		 pop	 ebp
  00070	c2 04 00	 ret	 4
$LN2@vector:
  00073	8d 8e ec 20 00
	00		 lea	 ecx, DWORD PTR [esi+8428]
  00079	e8 00 00 00 00	 call	 ??1TMonsterAIAgro@@UAE@XZ ; TMonsterAIAgro::~TMonsterAIAgro
  0007e	8d 8e 0c 16 00
	00		 lea	 ecx, DWORD PTR [esi+5644]
  00084	e8 00 00 00 00	 call	 ??1CSkillDelay@@UAE@XZ	; CSkillDelay::~CSkillDelay
  00089	f6 c3 01	 test	 bl, 1
  0008c	74 0e		 je	 SHORT $LN4@vector
  0008e	68 40 27 00 00	 push	 10048			; 00002740H
  00093	56		 push	 esi
  00094	e8 00 00 00 00	 call	 ??3@YAXPAXI@Z		; operator delete
  00099	83 c4 08	 add	 esp, 8
$LN4@vector:
  0009c	8b c6		 mov	 eax, esi
  0009e	8b 4d f4	 mov	 ecx, DWORD PTR __$EHRec$[ebp]
  000a1	64 89 0d 00 00
	00 00		 mov	 DWORD PTR fs:0, ecx
  000a8	59		 pop	 ecx
  000a9	5f		 pop	 edi
  000aa	5e		 pop	 esi
  000ab	5b		 pop	 ebx
  000ac	8b e5		 mov	 esp, ebp
  000ae	5d		 pop	 ebp
  000af	c2 04 00	 ret	 4
_TEXT	ENDS
;	COMDAT text$x
text$x	SEGMENT
__ehhandler$??_EOBJECTSTRUCT@@QAEPAXI@Z:
  00000	8b 54 24 08	 mov	 edx, DWORD PTR [esp+8]
  00004	8d 42 0c	 lea	 eax, DWORD PTR [edx+12]
  00007	8b 4a f0	 mov	 ecx, DWORD PTR [edx-16]
  0000a	33 c8		 xor	 ecx, eax
  0000c	e8 00 00 00 00	 call	 @__security_check_cookie@4
  00011	b8 00 00 00 00	 mov	 eax, OFFSET __ehfuncinfo$??_EOBJECTSTRUCT@@QAEPAXI@Z
  00016	e9 00 00 00 00	 jmp	 ___CxxFrameHandler3
text$x	ENDS
??_EOBJECTSTRUCT@@QAEPAXI@Z ENDP			; OBJECTSTRUCT::`vector deleting destructor'
; Function compile flags: /Ogtp
;	COMDAT ??1OBJECTSTRUCT@@QAE@XZ
_TEXT	SEGMENT
??1OBJECTSTRUCT@@QAE@XZ PROC				; OBJECTSTRUCT::~OBJECTSTRUCT, COMDAT
; _this$ = ecx
  00000	56		 push	 esi
  00001	8b f1		 mov	 esi, ecx
  00003	8d 8e ec 20 00
	00		 lea	 ecx, DWORD PTR [esi+8428]
  00009	e8 00 00 00 00	 call	 ??1TMonsterAIAgro@@UAE@XZ ; TMonsterAIAgro::~TMonsterAIAgro
  0000e	8d 8e 0c 16 00
	00		 lea	 ecx, DWORD PTR [esi+5644]
  00014	5e		 pop	 esi
  00015	e9 00 00 00 00	 jmp	 ??1CSkillDelay@@UAE@XZ	; CSkillDelay::~CSkillDelay
??1OBJECTSTRUCT@@QAE@XZ ENDP				; OBJECTSTRUCT::~OBJECTSTRUCT
_TEXT	ENDS
; Function compile flags: /Ogtp
; File c:\program files (x86)\windows kits\10\include\10.0.10240.0\ucrt\stdio.h
;	COMDAT _sprintf
_TEXT	SEGMENT
__Buffer$ = 8						; size = 4
__Format$ = 12						; size = 4
_sprintf PROC						; COMDAT

; 1776 : {

  00000	55		 push	 ebp
  00001	8b ec		 mov	 ebp, esp

; 1386 :     int const _Result = __stdio_common_vsprintf(

  00003	8d 45 10	 lea	 eax, DWORD PTR __Format$[ebp+4]
  00006	50		 push	 eax
  00007	6a 00		 push	 0
  00009	ff 75 0c	 push	 DWORD PTR __Format$[ebp]
  0000c	6a ff		 push	 -1
  0000e	ff 75 08	 push	 DWORD PTR __Buffer$[ebp]
  00011	e8 00 00 00 00	 call	 ___local_stdio_printf_options
  00016	8b 08		 mov	 ecx, DWORD PTR [eax]
  00018	ff 70 04	 push	 DWORD PTR [eax+4]
  0001b	83 c9 01	 or	 ecx, 1
  0001e	51		 push	 ecx
  0001f	e8 00 00 00 00	 call	 ___stdio_common_vsprintf

; 1387 :         _CRT_INTERNAL_LOCAL_PRINTF_OPTIONS | _CRT_INTERNAL_PRINTF_LEGACY_VSPRINTF_NULL_TERMINATION,
; 1388 :         _Buffer, _BufferCount, _Format, _Locale, _ArgList);
; 1389 : 
; 1390 :     return _Result < 0 ? -1 : _Result;

  00024	83 c9 ff	 or	 ecx, -1
  00027	83 c4 1c	 add	 esp, 28			; 0000001cH
  0002a	85 c0		 test	 eax, eax
  0002c	0f 48 c1	 cmovs	 eax, ecx

; 1777 :     int _Result;
; 1778 :     va_list _ArgList;
; 1779 :     __crt_va_start(_ArgList, _Format);
; 1780 : 
; 1781 :     #pragma warning(push)
; 1782 :     #pragma warning(disable: 4996) // Deprecation
; 1783 :     _Result = _vsprintf_l(_Buffer, _Format, NULL, _ArgList);
; 1784 :     #pragma warning(pop)
; 1785 : 
; 1786 :     __crt_va_end(_ArgList);
; 1787 :     return _Result;
; 1788 : }

  0002f	5d		 pop	 ebp
  00030	c3		 ret	 0
_sprintf ENDP
_TEXT	ENDS
; Function compile flags: /Ogtp
; File c:\program files (x86)\windows kits\10\include\10.0.10240.0\ucrt\stdio.h
;	COMDAT __vsprintf_l
_TEXT	SEGMENT
__Buffer$ = 8						; size = 4
__Format$ = 12						; size = 4
__Locale$ = 16						; size = 4
__ArgList$ = 20						; size = 4
__vsprintf_l PROC					; COMDAT

; 1455 : {

  00000	55		 push	 ebp
  00001	8b ec		 mov	 ebp, esp

; 1386 :     int const _Result = __stdio_common_vsprintf(

  00003	ff 75 14	 push	 DWORD PTR __ArgList$[ebp]
  00006	ff 75 10	 push	 DWORD PTR __Locale$[ebp]
  00009	ff 75 0c	 push	 DWORD PTR __Format$[ebp]
  0000c	6a ff		 push	 -1
  0000e	ff 75 08	 push	 DWORD PTR __Buffer$[ebp]
  00011	e8 00 00 00 00	 call	 ___local_stdio_printf_options
  00016	8b 08		 mov	 ecx, DWORD PTR [eax]
  00018	ff 70 04	 push	 DWORD PTR [eax+4]
  0001b	83 c9 01	 or	 ecx, 1
  0001e	51		 push	 ecx
  0001f	e8 00 00 00 00	 call	 ___stdio_common_vsprintf

; 1387 :         _CRT_INTERNAL_LOCAL_PRINTF_OPTIONS | _CRT_INTERNAL_PRINTF_LEGACY_VSPRINTF_NULL_TERMINATION,
; 1388 :         _Buffer, _BufferCount, _Format, _Locale, _ArgList);
; 1389 : 
; 1390 :     return _Result < 0 ? -1 : _Result;

  00024	83 c9 ff	 or	 ecx, -1
  00027	83 c4 1c	 add	 esp, 28			; 0000001cH
  0002a	85 c0		 test	 eax, eax
  0002c	0f 48 c1	 cmovs	 eax, ecx

; 1456 :     #pragma warning(push)
; 1457 :     #pragma warning(disable: 4996) // Deprecation
; 1458 :     return _vsnprintf_l(_Buffer, (size_t)-1, _Format, _Locale, _ArgList);
; 1459 :     #pragma warning(pop)
; 1460 : }

  0002f	5d		 pop	 ebp
  00030	c3		 ret	 0
__vsprintf_l ENDP
_TEXT	ENDS
; Function compile flags: /Ogtp
; File c:\program files (x86)\windows kits\10\include\10.0.10240.0\ucrt\stdio.h
;	COMDAT __vsnprintf_l
_TEXT	SEGMENT
__Buffer$ = 8						; size = 4
__BufferCount$ = 12					; size = 4
__Format$ = 16						; size = 4
__Locale$ = 20						; size = 4
__ArgList$ = 24						; size = 4
__vsnprintf_l PROC					; COMDAT

; 1385 : {

  00000	55		 push	 ebp
  00001	8b ec		 mov	 ebp, esp

; 1386 :     int const _Result = __stdio_common_vsprintf(

  00003	ff 75 18	 push	 DWORD PTR __ArgList$[ebp]
  00006	ff 75 14	 push	 DWORD PTR __Locale$[ebp]
  00009	ff 75 10	 push	 DWORD PTR __Format$[ebp]
  0000c	ff 75 0c	 push	 DWORD PTR __BufferCount$[ebp]
  0000f	ff 75 08	 push	 DWORD PTR __Buffer$[ebp]
  00012	e8 00 00 00 00	 call	 ___local_stdio_printf_options
  00017	8b 08		 mov	 ecx, DWORD PTR [eax]
  00019	ff 70 04	 push	 DWORD PTR [eax+4]
  0001c	83 c9 01	 or	 ecx, 1
  0001f	51		 push	 ecx
  00020	e8 00 00 00 00	 call	 ___stdio_common_vsprintf

; 1387 :         _CRT_INTERNAL_LOCAL_PRINTF_OPTIONS | _CRT_INTERNAL_PRINTF_LEGACY_VSPRINTF_NULL_TERMINATION,
; 1388 :         _Buffer, _BufferCount, _Format, _Locale, _ArgList);
; 1389 : 
; 1390 :     return _Result < 0 ? -1 : _Result;

  00025	83 c9 ff	 or	 ecx, -1
  00028	83 c4 1c	 add	 esp, 28			; 0000001cH
  0002b	85 c0		 test	 eax, eax
  0002d	0f 48 c1	 cmovs	 eax, ecx

; 1391 : }

  00030	5d		 pop	 ebp
  00031	c3		 ret	 0
__vsnprintf_l ENDP
_TEXT	ENDS
; Function compile flags: /Ogtp
; File c:\program files (x86)\microsoft visual studio 14.0\vc\include\vadefs.h
;	COMDAT ??$__vcrt_va_start_verify_argument_type@QBD@@YAXXZ
_TEXT	SEGMENT
??$__vcrt_va_start_verify_argument_type@QBD@@YAXXZ PROC	; __vcrt_va_start_verify_argument_type<char const * const>, COMDAT

; 145  :             static_assert(!__vcrt_va_list_is_reference<_Ty>::__the_value, "va_start argument must not have reference type and must not be parenthesized");
; 146  :         }

  00000	c3		 ret	 0
??$__vcrt_va_start_verify_argument_type@QBD@@YAXXZ ENDP	; __vcrt_va_start_verify_argument_type<char const * const>
_TEXT	ENDS
; Function compile flags: /Ogtp
; File c:\program files (x86)\windows kits\10\include\10.0.10240.0\ucrt\corecrt_stdio_config.h
;	COMDAT ___local_stdio_printf_options
_TEXT	SEGMENT
___local_stdio_printf_options PROC			; COMDAT

; 74   :     static unsigned __int64 _OptionsStorage;
; 75   :     return &_OptionsStorage;

  00000	b8 00 00 00 00	 mov	 eax, OFFSET ?_OptionsStorage@?1??__local_stdio_printf_options@@9@4_KA ; `__local_stdio_printf_options'::`2'::_OptionsStorage

; 76   : }

  00005	c3		 ret	 0
___local_stdio_printf_options ENDP
_TEXT	ENDS
; Function compile flags: /Ogtp
; File c:\users\michel\desktop\source\gameserver\source\hardcoremode.cpp
;	COMDAT ?__empty_global_delete@@YAXPAXI@Z
_TEXT	SEGMENT
___formal$ = 8						; size = 4
___formal$ = 12						; size = 4
?__empty_global_delete@@YAXPAXI@Z PROC			; __empty_global_delete, COMDAT

  00000	c3		 ret	 0
?__empty_global_delete@@YAXPAXI@Z ENDP			; __empty_global_delete
_TEXT	ENDS
; Function compile flags: /Ogtp
; File c:\users\michel\desktop\source\gameserver\source\hardcoremode.cpp
;	COMDAT ?__empty_global_delete@@YAXPAX@Z
_TEXT	SEGMENT
___formal$ = 8						; size = 4
?__empty_global_delete@@YAXPAX@Z PROC			; __empty_global_delete, COMDAT

  00000	c3		 ret	 0
?__empty_global_delete@@YAXPAX@Z ENDP			; __empty_global_delete
_TEXT	ENDS
END
