; Listing generated by Microsoft (R) Optimizing Compiler Version 19.00.23506.0 

	TITLE	C:\Users\Michel\Desktop\Source\GameServer\Source\IllusionTempleProcess.cpp
	.686P
	.XMM
	include listing.inc
	.model	flat

INCLUDELIB LIBCMT
INCLUDELIB OLDNAMES

PUBLIC	??_H@YGXPAXIIP6EPAX0@Z@Z			; `vector constructor iterator'
PUBLIC	?__empty_global_delete@@YAXPAX@Z		; __empty_global_delete
PUBLIC	?__empty_global_delete@@YAXPAXI@Z		; __empty_global_delete
PUBLIC	___local_stdio_printf_options
PUBLIC	??$__vcrt_va_start_verify_argument_type@QBD@@YAXXZ ; __vcrt_va_start_verify_argument_type<char const * const>
PUBLIC	_sprintf
PUBLIC	??1OBJECTSTRUCT@@QAE@XZ				; OBJECTSTRUCT::~OBJECTSTRUCT
PUBLIC	??_EOBJECTSTRUCT@@QAEPAXI@Z			; OBJECTSTRUCT::`vector deleting destructor'
PUBLIC	?Reset@CIllusionTempleProcess@@QAEXH@Z		; CIllusionTempleProcess::Reset
PUBLIC	?UserInit@CIllusionTempleProcess@@QAEXH@Z	; CIllusionTempleProcess::UserInit
PUBLIC	?CheckSync@CIllusionTempleProcess@@QAEXXZ	; CIllusionTempleProcess::CheckSync
PUBLIC	?Run@CIllusionTempleProcess@@QAEXH@Z		; CIllusionTempleProcess::Run
PUBLIC	?ProcState_CLOSE@CIllusionTempleProcess@@QAEXH@Z ; CIllusionTempleProcess::ProcState_CLOSE
PUBLIC	?ProcState_PREPARE@CIllusionTempleProcess@@QAEXH@Z ; CIllusionTempleProcess::ProcState_PREPARE
PUBLIC	?ProcState_PLAY@CIllusionTempleProcess@@QAEXH@Z	; CIllusionTempleProcess::ProcState_PLAY
PUBLIC	?ProcState_PLAYEND@CIllusionTempleProcess@@QAEXH@Z ; CIllusionTempleProcess::ProcState_PLAYEND
PUBLIC	?SetState@CIllusionTempleProcess@@QAEXH@Z	; CIllusionTempleProcess::SetState
PUBLIC	?SetState_CLOSED@CIllusionTempleProcess@@QAEXXZ	; CIllusionTempleProcess::SetState_CLOSED
PUBLIC	?SetState_PREPARE@CIllusionTempleProcess@@QAEXXZ ; CIllusionTempleProcess::SetState_PREPARE
PUBLIC	?SetState_PLAY@CIllusionTempleProcess@@QAEXXZ	; CIllusionTempleProcess::SetState_PLAY
PUBLIC	?SetState_PLAYEND@CIllusionTempleProcess@@QAEXXZ ; CIllusionTempleProcess::SetState_PLAYEND
PUBLIC	?UserResetPoints@CIllusionTempleProcess@@QAEXXZ	; CIllusionTempleProcess::UserResetPoints
PUBLIC	?GetRemainTime@CIllusionTempleProcess@@QAEEXZ	; CIllusionTempleProcess::GetRemainTime
PUBLIC	?GetRemainTime2@CIllusionTempleProcess@@QAEEXZ	; CIllusionTempleProcess::GetRemainTime2
PUBLIC	?PickUpRelic@CIllusionTempleProcess@@QAEXHE@Z	; CIllusionTempleProcess::PickUpRelic
PUBLIC	?PickUpRelicSend@CIllusionTempleProcess@@QAEXPAUOBJECTSTRUCT@@@Z ; CIllusionTempleProcess::PickUpRelicSend
PUBLIC	?GetState@CIllusionTempleProcess@@QAEEXZ	; CIllusionTempleProcess::GetState
PUBLIC	?CheckUsers@CIllusionTempleProcess@@QAEXXZ	; CIllusionTempleProcess::CheckUsers
PUBLIC	?EnterUser@CIllusionTempleProcess@@QAEHHEE@Z	; CIllusionTempleProcess::EnterUser
PUBLIC	?SendState@CIllusionTempleProcess@@QAEXEH@Z	; CIllusionTempleProcess::SendState
PUBLIC	?ClickToStatus@CIllusionTempleProcess@@QAEXPAUOBJECTSTRUCT@@0@Z ; CIllusionTempleProcess::ClickToStatus
PUBLIC	?ClickAlliedNpc@CIllusionTempleProcess@@QAEXPAUOBJECTSTRUCT@@0@Z ; CIllusionTempleProcess::ClickAlliedNpc
PUBLIC	?ClickIllusionNpc@CIllusionTempleProcess@@QAEXPAUOBJECTSTRUCT@@0@Z ; CIllusionTempleProcess::ClickIllusionNpc
PUBLIC	?GetEnterItem@CIllusionTempleProcess@@QAEHH@Z	; CIllusionTempleProcess::GetEnterItem
PUBLIC	?DeleteRelic@CIllusionTempleProcess@@QAEXPAUOBJECTSTRUCT@@@Z ; CIllusionTempleProcess::DeleteRelic
PUBLIC	?DropRelic@CIllusionTempleProcess@@QAEXH@Z	; CIllusionTempleProcess::DropRelic
PUBLIC	?AddNpc@CIllusionTempleProcess@@QAEXHH@Z	; CIllusionTempleProcess::AddNpc
PUBLIC	?AddMonster@CIllusionTempleProcess@@QAEXHH@Z	; CIllusionTempleProcess::AddMonster
PUBLIC	?ResetObject@CIllusionTempleProcess@@QAEXXZ	; CIllusionTempleProcess::ResetObject
PUBLIC	?AddPlayerKillCount@CIllusionTempleProcess@@QAEXH@Z ; CIllusionTempleProcess::AddPlayerKillCount
PUBLIC	?AddMonsterKillCount@CIllusionTempleProcess@@QAEXH@Z ; CIllusionTempleProcess::AddMonsterKillCount
PUBLIC	?AddUseSkillCnt@CIllusionTempleProcess@@QAEXH@Z	; CIllusionTempleProcess::AddUseSkillCnt
PUBLIC	?AddKillPts@CIllusionTempleProcess@@QAEEHE@Z	; CIllusionTempleProcess::AddKillPts
PUBLIC	?GetKillPts@CIllusionTempleProcess@@QAEEH@Z	; CIllusionTempleProcess::GetKillPts
PUBLIC	?SetKillPts@CIllusionTempleProcess@@QAEHHE@Z	; CIllusionTempleProcess::SetKillPts
PUBLIC	?UseSkill@CIllusionTempleProcess@@QAEXHGHE@Z	; CIllusionTempleProcess::UseSkill
PUBLIC	?SkillProc@CIllusionTempleProcess@@QAEXPAUOBJECTSTRUCT@@@Z ; CIllusionTempleProcess::SkillProc
PUBLIC	?UserDie@CIllusionTempleProcess@@QAEXPAUOBJECTSTRUCT@@@Z ; CIllusionTempleProcess::UserDie
PUBLIC	?SetProtect@CIllusionTempleProcess@@QAEHPAUOBJECTSTRUCT@@@Z ; CIllusionTempleProcess::SetProtect
PUBLIC	?SetImobilize@CIllusionTempleProcess@@QAEHPAUOBJECTSTRUCT@@0@Z ; CIllusionTempleProcess::SetImobilize
PUBLIC	?SetTeleport@CIllusionTempleProcess@@QAEHPAUOBJECTSTRUCT@@@Z ; CIllusionTempleProcess::SetTeleport
PUBLIC	?SetShield@CIllusionTempleProcess@@QAEHPAUOBJECTSTRUCT@@0@Z ; CIllusionTempleProcess::SetShield
PUBLIC	?ItemDrop@CIllusionTempleProcess@@QAEXPAUOBJECTSTRUCT@@@Z ; CIllusionTempleProcess::ItemDrop
PUBLIC	?DropReward@CIllusionTempleProcess@@QAEXH@Z	; CIllusionTempleProcess::DropReward
PUBLIC	?GetLeftTime@CIllusionTempleProcess@@QAEEXZ	; CIllusionTempleProcess::GetLeftTime
PUBLIC	?Is1stSkillActive@CIllusionTempleProcess@@QAEHH@Z ; CIllusionTempleProcess::Is1stSkillActive
PUBLIC	?Is2ndSkillActive@CIllusionTempleProcess@@QAEHH@Z ; CIllusionTempleProcess::Is2ndSkillActive
PUBLIC	?GetTeam@CIllusionTempleProcess@@QAEEH@Z	; CIllusionTempleProcess::GetTeam
PUBLIC	?LeaveUser@CIllusionTempleProcess@@QAEHH@Z	; CIllusionTempleProcess::LeaveUser
PUBLIC	?MonsterRegen@CIllusionTempleProcess@@QAEXXZ	; CIllusionTempleProcess::MonsterRegen
PUBLIC	?SendAllUserAnyMsg@CIllusionTempleProcess@@QAEXPAEH@Z ; CIllusionTempleProcess::SendAllUserAnyMsg
PUBLIC	?OperateMiniMap@CIllusionTempleProcess@@QAEXE@Z	; CIllusionTempleProcess::OperateMiniMap
PUBLIC	?RegetStatue@CIllusionTempleProcess@@QAEXXZ	; CIllusionTempleProcess::RegetStatue
PUBLIC	?CalcWinRewardExp@CIllusionTempleProcess@@QAEXXZ ; CIllusionTempleProcess::CalcWinRewardExp
PUBLIC	?SendRewardExp@CIllusionTempleProcess@@QAEXXZ	; CIllusionTempleProcess::SendRewardExp
PUBLIC	?LevelUp@CIllusionTempleProcess@@QAEHHH@Z	; CIllusionTempleProcess::LevelUp
PUBLIC	?SpawnStatue@CIllusionTempleProcess@@QAEXXZ	; CIllusionTempleProcess::SpawnStatue
PUBLIC	?SpawnTeamNpc@CIllusionTempleProcess@@QAEXXZ	; CIllusionTempleProcess::SpawnTeamNpc
PUBLIC	?SpawnMonster@CIllusionTempleProcess@@QAEXXZ	; CIllusionTempleProcess::SpawnMonster
PUBLIC	?SetStatueTime@CIllusionTempleProcess@@QAEXXZ	; CIllusionTempleProcess::SetStatueTime
PUBLIC	?GCSendUseSkill@CIllusionTempleProcess@@QAEXPAUOBJECTSTRUCT@@H@Z ; CIllusionTempleProcess::GCSendUseSkill
PUBLIC	?GCSendUseSkill@CIllusionTempleProcess@@QAEXHHGH@Z ; CIllusionTempleProcess::GCSendUseSkill
PUBLIC	?RemoveEventInfo@CIllusionTempleProcess@@QAEXXZ	; CIllusionTempleProcess::RemoveEventInfo
PUBLIC	?AddSuccessRelic@CIllusionTempleProcess@@QAEXH@Z ; CIllusionTempleProcess::AddSuccessRelic
PUBLIC	?GetRelicPos@CIllusionTempleProcess@@QAEHH@Z	; CIllusionTempleProcess::GetRelicPos
PUBLIC	?ChangeTempleUserInformation@CIllusionTempleProcess@@QAEHHHH@Z ; CIllusionTempleProcess::ChangeTempleUserInformation
PUBLIC	?GetSkillPoint@CIllusionTempleProcess@@QAEEH@Z	; CIllusionTempleProcess::GetSkillPoint
PUBLIC	?_OptionsStorage@?1??__local_stdio_printf_options@@9@4_KA ; `__local_stdio_printf_options'::`2'::_OptionsStorage
PUBLIC	??_C@_0BK@DMGNFDO@IllusionTempleProcess?4cpp?$AA@ ; `string'
PUBLIC	??_C@_0N@GGPGOPEN@return?5?$CFs?5?$CFd?$AA@	; `string'
PUBLIC	??_C@_0CM@GMBNLABJ@Error?5?3?5Illusion?5Temple?5StartTim@ ; `string'
PUBLIC	??_C@_0DG@NJOPLNIL@?$FLIllusion?5Temple?$FN?5?$CI?$CFd?$CJ?5Sync?5Open@ ; `string'
PUBLIC	??_C@_0ED@OJGCKKPO@?$FLIllusion?5Temple?$FN?5?$CI?$CFd?$CJ?5Payback?5t@ ; `string'
PUBLIC	??_C@_0EI@LKEJODBE@?$FLIllusion?5Temple?$FN?5?$CI?$CFd?$CJ?5Payback?5t@ ; `string'
PUBLIC	??_C@_0EH@FBNKCLFD@?$FLIllusion?5Temple?$FN?5?$CI?$CFd?$CJ?5Failed?5to@ ; `string'
PUBLIC	??_C@_0CF@JIFCGMEK@?$FLIllusion?5Temple?$FN?5?$CI?$CFd?$CJ?5?$FLAlliedTe@ ; `string'
PUBLIC	??_C@_0CI@JGHENCNJ@?$FLIllusion?5Temple?$FN?5?$CI?$CFd?$CJ?5?$FLIllusion@ ; `string'
PUBLIC	??_C@_0DG@NEAACFEP@?$FLIllusion?5Temple?$FN?5?$CI?$CFd?$CJ?5Party?5Cre@ ; `string'
PUBLIC	??_C@_0DD@OHOGJPCE@?$FLIllusion?5Temple?$FN?5?$CI?$CFd?$CJ?5Party?5Add@ ; `string'
PUBLIC	??_C@_09MJCPIION@?$CI?$CFs?$CJ?$CI?$CFs?$CJ?5?$AA@ ; `string'
PUBLIC	??_C@_0GG@JOEGADPL@?$FLIllusion?5Temple?$FN?5?$CI?$CFd?$CJ?5Allied?5Te@ ; `string'
PUBLIC	??_C@_0GI@CGKCOMHN@?$FLIllusion?5Temple?$FN?5?$CI?$CFd?$CJ?5Illusion?5@ ; `string'
PUBLIC	??_C@_0CG@IGMLEOMK@Enter?5Error?3?5IllusionTempleIndex@ ; `string'
PUBLIC	??_C@_0CL@PJKIAECJ@?$FLIllusion?5Temple?$FN?5?$CI?$CFd?$CJ?5LeaveUser@ ; `string'
PUBLIC	??_C@_0DN@KNCFCJAC@?$FLIllusion?5Temple?$FN?5?$CI?$CFd?$CJ?5?$FL?$CFs?$FN?$FL?$CFs?$FN?5@ ; `string'
PUBLIC	??_C@_0EM@NAJEPMDL@?$FLIllusion?5Temple?$FN?5?$CI?$CFd?$CJ?5Increase?5@ ; `string'
PUBLIC	??_C@_0EO@HGHKGJCL@?$FLIllusion?5Temple?$FN?5?$CI?$CFd?$CJ?5Increase?5@ ; `string'
PUBLIC	??_C@_0EC@KBKIJFJA@?$FLIllusion?5Temple?$FN?5?$CI?$CFd?$CJ?5?$CI?$CFs?$CJ?$CI?$CFs?$CJ?5@ ; `string'
PUBLIC	??_C@_04BGCMBJDA@Item?$AA@			; `string'
PUBLIC	??_C@_0EA@DBPKHFEA@?$FLIllusion?5Temple?$FN?5?$CI?$CFd?$CJ?5?$CI?$CFs?$CJ?$CI?$CFs?$CJ?5@ ; `string'
PUBLIC	??_C@_0DP@FKJKOPFE@?$FLIllusion?5Temple?$FN?5?$CI?$CFd?$CJ?5Create?5NP@ ; `string'
PUBLIC	??_C@_0CI@HGNLGIPA@?$FLIllusion?5Temple?$FN?5?$CI?$CFd?$CJ?5Add?5Statu@ ; `string'
PUBLIC	??_C@_0EI@FFEIEJHB@?$FLIllusion?5Temple?$FN?5?$CI?$CFd?$CJ?5Create?5NP@ ; `string'
PUBLIC	??_C@_0DB@DDAFNEAA@?$FLIllusion?5Temple?$FN?5?$CI?$CFd?$CJ?5Add?5Allie@ ; `string'
PUBLIC	??_C@_0EK@PBPNIPFI@?$FLIllusion?5Temple?$FN?5?$CI?$CFd?$CJ?5Create?5NP@ ; `string'
PUBLIC	??_C@_0DD@CJHIKDCG@?$FLIllusion?5Temple?$FN?5?$CI?$CFd?$CJ?5Add?5Illus@ ; `string'
PUBLIC	??_C@_0CJ@ILDHLMNE@?$FLIllusion?5Temple?$FN?5?$CI?$CFd?$CJ?5Add?5Monst@ ; `string'
PUBLIC	??_C@_0DK@GOBHOKIP@?$FLIllusion?5Temple?$FN?5?$CI?$CFd?$CJ?5RemoveSta@ ; `string'
PUBLIC	??_C@_0ED@JCDEDHOA@?$FLIllusion?5Temple?$FN?5?$CI?$CFd?$CJ?5RemoveAll@ ; `string'
PUBLIC	??_C@_0EF@COBKKPEE@?$FLIllusion?5Temple?$FN?5?$CI?$CFd?$CJ?5RemoveIll@ ; `string'
PUBLIC	??_C@_0CJ@NGMJKIGG@?$FLIllusion?5Temple?$FN?5?$CI?$CFd?$CJ?5Remove?5Al@ ; `string'
PUBLIC	??_C@_0DN@NHMDPHGH@?$FLIllusion?5Temple?$FN?5RegenStatue?5Fa@ ; `string'
PUBLIC	??_C@_0FD@FFJHAHAN@?$FLIllusion?5Temple?$FN?5?$CI?$CFd?$CJ?5RegenStat@ ; `string'
PUBLIC	??_C@_0DM@DBHFAIH@?$FLIllusion?5Temple?$FN?5?$CI?$CFd?$CJ?5Use?5Skill@ ; `string'
PUBLIC	??_C@_0DG@DAAGPJBE@?$FLIllusion?5Temple?$FN?5?$CI?$CFd?$CJ?5Use?5Skill@ ; `string'
PUBLIC	??_C@_0DM@JLNJCFEN@?$FLIllusion?5Temple?$FN?5?$CI?$CFd?$CJ?5Result?5?$CIW@ ; `string'
PUBLIC	??_C@_0DA@OJELECPN@Experience?5?3?5Map?$FL?$CFd?$FN?9?$CI?$CFd?0?$CFd?$CJ?5?$FL?$CFs@ ; `string'
PUBLIC	??_C@_0DA@KDBPKGIM@?$FL?$CFs?$FN?$FL?$CFs?$FN?5LevelUp?5PlusStatQuest?5C@ ; `string'
PUBLIC	??_C@_0BM@DJAOLMAF@400?5LevelUp?5?$CI?$CFs?$CJ?$CI?$CFs?$CJ?5Party?5?$AA@ ; `string'
PUBLIC	??_C@_0L@MNKEEMGH@?0?$CI?$CFs?$CJ?$CI?$CFs?$CJ?5?$AA@ ; `string'
PUBLIC	??_C@_0JI@DILJDNAH@?$FLIllusion?5Temple?$FN?5?$CI?$CFd?$CJ?5RewardExp@ ; `string'
PUBLIC	__real@3f800000
EXTRN	??_M@YGXPAXIIP6EX0@Z@Z:PROC			; `eh vector destructor iterator'
EXTRN	??3@YAXPAXI@Z:PROC				; operator delete
EXTRN	??_V@YAXPAXI@Z:PROC				; operator delete[]
EXTRN	__imp__EnterCriticalSection@4:PROC
EXTRN	__imp__LeaveCriticalSection@4:PROC
EXTRN	__imp__GetTickCount@0:PROC
EXTRN	___stdio_common_vsprintf:PROC
EXTRN	_rand:PROC
EXTRN	__localtime64:PROC
EXTRN	__time64:PROC
EXTRN	?Get@Message@@QAEPADH@Z:PROC			; Message::Get
EXTRN	?IsItem@CItem@@QAEHXZ:PROC			; CItem::IsItem
EXTRN	?ItemGetNumberMake@@YAHHH@Z:PROC		; ItemGetNumberMake
EXTRN	?CheckKillCount@CMagicDamage@@QAEHHH@Z:PROC	; CMagicDamage::CheckKillCount
EXTRN	??1CSkillDelay@@UAE@XZ:PROC			; CSkillDelay::~CSkillDelay
EXTRN	?MsgBox@@YAXPADZZ:PROC				; MsgBox
EXTRN	?DataSend@@YAHHPAEK@Z:PROC			; DataSend
EXTRN	??1TMonsterAIAgro@@UAE@XZ:PROC			; TMonsterAIAgro::~TMonsterAIAgro
EXTRN	?GetItemStrengthenOption@CJewelOfHarmonySystem@@QAEEPAVCItem@@@Z:PROC ; CJewelOfHarmonySystem::GetItemStrengthenOption
EXTRN	?GetItemOptionLevel@CJewelOfHarmonySystem@@QAEEPAVCItem@@@Z:PROC ; CJewelOfHarmonySystem::GetItemOptionLevel
EXTRN	?GetItemOptions@CSocketItems@@QAEXPAVCItem@@PAE1@Z:PROC ; CSocketItems::GetItemOptions
EXTRN	?ItemDrop@MapClass@@QAEHHHMHHEEEEEKHHHEPAEE@Z:PROC ; MapClass::ItemDrop
EXTRN	?GetAttr@MapClass@@QAEEHH@Z:PROC		; MapClass::GetAttr
EXTRN	?MsgSendV2@@YAXPAUOBJECTSTRUCT@@PAEH@Z:PROC	; MsgSendV2
EXTRN	?GCServerMsgStringSend@@YAXPADHE@Z:PROC		; GCServerMsgStringSend
EXTRN	?GCLevelUpMsgSend@@YAXHH@Z:PROC			; GCLevelUpMsgSend
EXTRN	?CGPartyListAll@@YAXH@Z:PROC			; CGPartyListAll
EXTRN	?CGPartyDelUser@@YAXPAUPMSG_PARTYDELUSER@@H@Z:PROC ; CGPartyDelUser
EXTRN	?GCDamageSend@@YAXHHHHHH@Z:PROC			; GCDamageSend
EXTRN	?GCInventoryItemDeleteSend@@YAXHEE@Z:PROC	; GCInventoryItemDeleteSend
EXTRN	?GCItemDurSend@@YAXHEEE@Z:PROC			; GCItemDurSend
EXTRN	?GCIllusionSendPoint@@YAXHE@Z:PROC		; GCIllusionSendPoint
EXTRN	?GCSendExp@@YAXHH_JHH@Z:PROC			; GCSendExp
EXTRN	?gObjSetBP@@YAXH@Z:PROC				; gObjSetBP
EXTRN	?ItemIsBufExOption@@YAXPAEPAVCItem@@@Z:PROC	; ItemIsBufExOption
EXTRN	?gObjSetPosMonster@@YAHHH@Z:PROC		; gObjSetPosMonster
EXTRN	?gObjSetMonster@@YAHHH@Z:PROC			; gObjSetMonster
EXTRN	?gObjAddMonster@@YAFH@Z:PROC			; gObjAddMonster
EXTRN	?gObjDel@@YAFH@Z:PROC				; gObjDel
EXTRN	?gObjIsConnected@@YAHH@Z:PROC			; gObjIsConnected
EXTRN	?gObjNextExpCal@@YAXPAUOBJECTSTRUCT@@@Z:PROC	; gObjNextExpCal
EXTRN	?gObjLifeCheck@@YAXPAUOBJECTSTRUCT@@0HHHHGH@Z:PROC ; gObjLifeCheck
EXTRN	?gObjInventoryDeleteItem@@YAEHH@Z:PROC		; gObjInventoryDeleteItem
EXTRN	?gObjViewportListProtocolCreate@@YAXPAUOBJECTSTRUCT@@@Z:PROC ; gObjViewportListProtocolCreate
EXTRN	?gObjTeleportMagicUse@@YAXHEE@Z:PROC		; gObjTeleportMagicUse
EXTRN	?gObjMoveGate@@YAHHH@Z:PROC			; gObjMoveGate
EXTRN	?gObjCheckTeleportArea@@YAHHEE@Z:PROC		; gObjCheckTeleportArea
EXTRN	?gObjSetPosition@@YAXHHH@Z:PROC			; gObjSetPosition
EXTRN	?gObjSetExpPetItem@@YAXHH@Z:PROC		; gObjSetExpPetItem
EXTRN	?gCheckSkillDistance@@YAHHHH@Z:PROC		; gCheckSkillDistance
EXTRN	?OpenState@CIllusionTempleProcess@@QAEHXZ:PROC	; CIllusionTempleProcess::OpenState
EXTRN	?Create@PartyClass@@QAEHHHH@Z:PROC		; PartyClass::Create
EXTRN	?Add@PartyClass@@QAEHHHHH@Z:PROC		; PartyClass::Add
EXTRN	?GetPartyCount@PartyClass@@QAEHH@Z:PROC		; PartyClass::GetPartyCount
EXTRN	?GetIndex@PartyClass@@QAEHHHH@Z:PROC		; PartyClass::GetIndex
EXTRN	?MakeNoticeMsgEx@TNotice@@SAXPAXEPADZZ:PROC	; TNotice::MakeNoticeMsgEx
EXTRN	?PHeadSetB@@YAXPAEEH@Z:PROC			; PHeadSetB
EXTRN	?PHeadSubSetB@@YAXPAEEEH@Z:PROC			; PHeadSubSetB
EXTRN	?gObjAddBuffEffect@@YA_NPAUOBJECTSTRUCT@@HEHEHH@Z:PROC ; gObjAddBuffEffect
EXTRN	?gObjRemoveBuffEffect@@YA_NPAUOBJECTSTRUCT@@H@Z:PROC ; gObjRemoveBuffEffect
EXTRN	?gObjCheckUsedBuffEffect@@YA_NPAUOBJECTSTRUCT@@H@Z:PROC ; gObjCheckUsedBuffEffect
EXTRN	?CheckItemOptForGetExpEx@@YAXPAUOBJECTSTRUCT@@AA_JH@Z:PROC ; CheckItemOptForGetExpEx
EXTRN	?LevelUp@CMasterExperience@@QAEHPAUOBJECTSTRUCT@@_J@Z:PROC ; CMasterExperience::LevelUp
EXTRN	?IsEnabled@CMasterExperience@@QAEHPAUOBJECTSTRUCT@@@Z:PROC ; CMasterExperience::IsEnabled
EXTRN	?ItemSerialCreateSend@@YAXHEEEHEEEEEHEEEPAE@Z:PROC ; ItemSerialCreateSend
EXTRN	?GetLevelPoint@ClassCalc@@QAEGPAUOBJECTSTRUCT@@EE@Z:PROC ; ClassCalc::GetLevelPoint
EXTRN	?OpenSpecial@EventItemBagManager@@QAEEEHHEE@Z:PROC ; EventItemBagManager::OpenSpecial
EXTRN	@__security_check_cookie@4:PROC
EXTRN	___CxxFrameHandler3:PROC
EXTRN	__alldiv:PROC
EXTRN	__allmul:PROC
EXTRN	_memset:PROC
EXTRN	?lMsg@@3VMessage@@A:BYTE			; lMsg
EXTRN	?MagicDamageC@@3VCMagicDamage@@A:BYTE		; MagicDamageC
EXTRN	?LogAdd@@3P6AXPADZZA:DWORD			; LogAdd
EXTRN	?LogAddTD@@3P6AXPADZZA:DWORD			; LogAddTD
EXTRN	?g_kJewelOfHarmonySystem@@3VCJewelOfHarmonySystem@@A:BYTE ; g_kJewelOfHarmonySystem
EXTRN	?g_SocketItem@@3VCSocketItems@@A:BYTE		; g_SocketItem
EXTRN	?gObj@@3PAUOBJECTSTRUCT@@A:DWORD		; gObj
EXTRN	?m_IllusionStartTime@@3V?$list@UILLUSION_TIME@@V?$allocator@UILLUSION_TIME@@@std@@@std@@A:QWORD ; m_IllusionStartTime
EXTRN	?m_iIT_TIME_MIN_OPEN@@3HA:DWORD			; m_iIT_TIME_MIN_OPEN
EXTRN	?m_iIT_TIME_MIN_PREPARE@@3HA:DWORD		; m_iIT_TIME_MIN_PREPARE
EXTRN	?m_iIT_TIME_MIN_PLAY@@3HA:DWORD			; m_iIT_TIME_MIN_PLAY
EXTRN	?m_iIT_TIME_MIN_CLOSE@@3HA:DWORD		; m_iIT_TIME_MIN_CLOSE
EXTRN	?MapC@@3PAVMapClass@@A:BYTE			; MapC
EXTRN	?gMSetBase@@3VCMonsterSetBase@@A:BYTE		; gMSetBase
EXTRN	?DCInfo@@3Vclassdef@@A:BYTE			; DCInfo
EXTRN	?gParty@@3VPartyClass@@A:BYTE			; gParty
EXTRN	?g_IllusionRewardPerc@@3HA:DWORD		; g_IllusionRewardPerc
EXTRN	?g_IllusionUseSkillCnt@@3HA:DWORD		; g_IllusionUseSkillCnt
EXTRN	?g_MasterExp@@3VCMasterExperience@@A:BYTE	; g_MasterExp
EXTRN	?g_ClassCalc@@3VClassCalc@@A:BYTE		; g_ClassCalc
EXTRN	?g_EventItemBagManager@@3VEventItemBagManager@@A:BYTE ; g_EventItemBagManager
EXTRN	___security_cookie:DWORD
EXTRN	__fltused:DWORD
;	COMDAT ?_OptionsStorage@?1??__local_stdio_printf_options@@9@4_KA
_BSS	SEGMENT
?_OptionsStorage@?1??__local_stdio_printf_options@@9@4_KA DQ 01H DUP (?) ; `__local_stdio_printf_options'::`2'::_OptionsStorage
_BSS	ENDS
;	COMDAT __real@3f800000
CONST	SEGMENT
__real@3f800000 DD 03f800000r			; 1
CONST	ENDS
;	COMDAT ??_C@_0JI@DILJDNAH@?$FLIllusion?5Temple?$FN?5?$CI?$CFd?$CJ?5RewardExp@
CONST	SEGMENT
??_C@_0JI@DILJDNAH@?$FLIllusion?5Temple?$FN?5?$CI?$CFd?$CJ?5RewardExp@ DB '['
	DB	'Illusion Temple] (%d) RewardExp Result  (Account:%s, Name:%s,'
	DB	' Team:%d, Class:%d, UserKillCount:%d, RelicsMoveCount:%d, Rew'
	DB	'ardExp:%d, RankingPoint: %d)', 00H		; `string'
CONST	ENDS
;	COMDAT ??_C@_0L@MNKEEMGH@?0?$CI?$CFs?$CJ?$CI?$CFs?$CJ?5?$AA@
CONST	SEGMENT
??_C@_0L@MNKEEMGH@?0?$CI?$CFs?$CJ?$CI?$CFs?$CJ?5?$AA@ DB ',(%s)(%s) ', 00H ; `string'
CONST	ENDS
;	COMDAT ??_C@_0BM@DJAOLMAF@400?5LevelUp?5?$CI?$CFs?$CJ?$CI?$CFs?$CJ?5Party?5?$AA@
CONST	SEGMENT
??_C@_0BM@DJAOLMAF@400?5LevelUp?5?$CI?$CFs?$CJ?$CI?$CFs?$CJ?5Party?5?$AA@ DB '4'
	DB	'00 LevelUp (%s)(%s) Party ', 00H		; `string'
CONST	ENDS
;	COMDAT ??_C@_0DA@KDBPKGIM@?$FL?$CFs?$FN?$FL?$CFs?$FN?5LevelUp?5PlusStatQuest?5C@
CONST	SEGMENT
??_C@_0DA@KDBPKGIM@?$FL?$CFs?$FN?$FL?$CFs?$FN?5LevelUp?5PlusStatQuest?5C@ DB '['
	DB	'%s][%s] LevelUp PlusStatQuest Clear AddStat %d', 00H ; `string'
CONST	ENDS
;	COMDAT ??_C@_0DA@OJELECPN@Experience?5?3?5Map?$FL?$CFd?$FN?9?$CI?$CFd?0?$CFd?$CJ?5?$FL?$CFs@
CONST	SEGMENT
??_C@_0DA@OJELECPN@Experience?5?3?5Map?$FL?$CFd?$FN?9?$CI?$CFd?0?$CFd?$CJ?5?$FL?$CFs@ DB 'E'
	DB	'xperience : Map[%d]-(%d,%d) [%s][%s](%d) %u %d', 00H ; `string'
CONST	ENDS
;	COMDAT ??_C@_0DM@JLNJCFEN@?$FLIllusion?5Temple?$FN?5?$CI?$CFd?$CJ?5Result?5?$CIW@
CONST	SEGMENT
??_C@_0DM@JLNJCFEN@?$FLIllusion?5Temple?$FN?5?$CI?$CFd?$CJ?5Result?5?$CIW@ DB '['
	DB	'Illusion Temple] (%d) Result (WinTeam: %d)(Score:[%d][%d])', 00H ; `string'
CONST	ENDS
;	COMDAT ??_C@_0DG@DAAGPJBE@?$FLIllusion?5Temple?$FN?5?$CI?$CFd?$CJ?5Use?5Skill@
CONST	SEGMENT
??_C@_0DG@DAAGPJBE@?$FLIllusion?5Temple?$FN?5?$CI?$CFd?$CJ?5Use?5Skill@ DB '['
	DB	'Illusion Temple] (%d) Use Skill (%d), (%s)(%s), (%d)', 00H ; `string'
CONST	ENDS
;	COMDAT ??_C@_0DM@DBHFAIH@?$FLIllusion?5Temple?$FN?5?$CI?$CFd?$CJ?5Use?5Skill@
CONST	SEGMENT
??_C@_0DM@DBHFAIH@?$FLIllusion?5Temple?$FN?5?$CI?$CFd?$CJ?5Use?5Skill@ DB '['
	DB	'Illusion Temple] (%d) Use Skill KillCount Error (Skill:%d)', 00H ; `string'
CONST	ENDS
;	COMDAT ??_C@_0FD@FFJHAHAN@?$FLIllusion?5Temple?$FN?5?$CI?$CFd?$CJ?5RegenStat@
CONST	SEGMENT
??_C@_0FD@FFJHAHAN@?$FLIllusion?5Temple?$FN?5?$CI?$CFd?$CJ?5RegenStat@ DB '['
	DB	'Illusion Temple] (%d) RegenStatus Name: %s, (%d: %d/%d), PosN'
	DB	'um(%d), connected:%d', 00H			; `string'
CONST	ENDS
;	COMDAT ??_C@_0DN@NHMDPHGH@?$FLIllusion?5Temple?$FN?5RegenStatue?5Fa@
CONST	SEGMENT
??_C@_0DN@NHMDPHGH@?$FLIllusion?5Temple?$FN?5RegenStatue?5Fa@ DB '[Illusi'
	DB	'on Temple] RegenStatue Failed m_STATUE_NPC_COUNT <= 0', 00H ; `string'
CONST	ENDS
;	COMDAT ??_C@_0CJ@NGMJKIGG@?$FLIllusion?5Temple?$FN?5?$CI?$CFd?$CJ?5Remove?5Al@
CONST	SEGMENT
??_C@_0CJ@NGMJKIGG@?$FLIllusion?5Temple?$FN?5?$CI?$CFd?$CJ?5Remove?5Al@ DB '['
	DB	'Illusion Temple] (%d) Remove All Object', 00H ; `string'
CONST	ENDS
;	COMDAT ??_C@_0EF@COBKKPEE@?$FLIllusion?5Temple?$FN?5?$CI?$CFd?$CJ?5RemoveIll@
CONST	SEGMENT
??_C@_0EF@COBKKPEE@?$FLIllusion?5Temple?$FN?5?$CI?$CFd?$CJ?5RemoveIll@ DB '['
	DB	'Illusion Temple] (%d) RemoveIllusionRelicsBox Name: %s, (%d: '
	DB	'%d/%d)', 00H				; `string'
CONST	ENDS
;	COMDAT ??_C@_0ED@JCDEDHOA@?$FLIllusion?5Temple?$FN?5?$CI?$CFd?$CJ?5RemoveAll@
CONST	SEGMENT
??_C@_0ED@JCDEDHOA@?$FLIllusion?5Temple?$FN?5?$CI?$CFd?$CJ?5RemoveAll@ DB '['
	DB	'Illusion Temple] (%d) RemoveAlliedRelicsBox Name: %s, (%d: %d'
	DB	'/%d)', 00H					; `string'
CONST	ENDS
;	COMDAT ??_C@_0DK@GOBHOKIP@?$FLIllusion?5Temple?$FN?5?$CI?$CFd?$CJ?5RemoveSta@
CONST	SEGMENT
??_C@_0DK@GOBHOKIP@?$FLIllusion?5Temple?$FN?5?$CI?$CFd?$CJ?5RemoveSta@ DB '['
	DB	'Illusion Temple] (%d) RemoveStatus Name: %s, (%d: %d/%d)', 00H ; `string'
CONST	ENDS
;	COMDAT ??_C@_0CJ@ILDHLMNE@?$FLIllusion?5Temple?$FN?5?$CI?$CFd?$CJ?5Add?5Monst@
CONST	SEGMENT
??_C@_0CJ@ILDHLMNE@?$FLIllusion?5Temple?$FN?5?$CI?$CFd?$CJ?5Add?5Monst@ DB '['
	DB	'Illusion Temple] (%d) Add Monster Error', 00H ; `string'
CONST	ENDS
;	COMDAT ??_C@_0DD@CJHIKDCG@?$FLIllusion?5Temple?$FN?5?$CI?$CFd?$CJ?5Add?5Illus@
CONST	SEGMENT
??_C@_0DD@CJHIKDCG@?$FLIllusion?5Temple?$FN?5?$CI?$CFd?$CJ?5Add?5Illus@ DB '['
	DB	'Illusion Temple] (%d) Add IllusionRelicsBox Error', 00H ; `string'
CONST	ENDS
;	COMDAT ??_C@_0EK@PBPNIPFI@?$FLIllusion?5Temple?$FN?5?$CI?$CFd?$CJ?5Create?5NP@
CONST	SEGMENT
??_C@_0EK@PBPNIPFI@?$FLIllusion?5Temple?$FN?5?$CI?$CFd?$CJ?5Create?5NP@ DB '['
	DB	'Illusion Temple] (%d) Create NPC IllusionRelicsBox Name: %s, '
	DB	'(%d: %d/%d)', 00H				; `string'
CONST	ENDS
;	COMDAT ??_C@_0DB@DDAFNEAA@?$FLIllusion?5Temple?$FN?5?$CI?$CFd?$CJ?5Add?5Allie@
CONST	SEGMENT
??_C@_0DB@DDAFNEAA@?$FLIllusion?5Temple?$FN?5?$CI?$CFd?$CJ?5Add?5Allie@ DB '['
	DB	'Illusion Temple] (%d) Add AlliedRelicsBox Error', 00H ; `string'
CONST	ENDS
;	COMDAT ??_C@_0EI@FFEIEJHB@?$FLIllusion?5Temple?$FN?5?$CI?$CFd?$CJ?5Create?5NP@
CONST	SEGMENT
??_C@_0EI@FFEIEJHB@?$FLIllusion?5Temple?$FN?5?$CI?$CFd?$CJ?5Create?5NP@ DB '['
	DB	'Illusion Temple] (%d) Create NPC AlliedRelicsBox Name: %s, (%'
	DB	'd: %d/%d)', 00H				; `string'
CONST	ENDS
;	COMDAT ??_C@_0CI@HGNLGIPA@?$FLIllusion?5Temple?$FN?5?$CI?$CFd?$CJ?5Add?5Statu@
CONST	SEGMENT
??_C@_0CI@HGNLGIPA@?$FLIllusion?5Temple?$FN?5?$CI?$CFd?$CJ?5Add?5Statu@ DB '['
	DB	'Illusion Temple] (%d) Add Statue Error', 00H ; `string'
CONST	ENDS
;	COMDAT ??_C@_0DP@FKJKOPFE@?$FLIllusion?5Temple?$FN?5?$CI?$CFd?$CJ?5Create?5NP@
CONST	SEGMENT
??_C@_0DP@FKJKOPFE@?$FLIllusion?5Temple?$FN?5?$CI?$CFd?$CJ?5Create?5NP@ DB '['
	DB	'Illusion Temple] (%d) Create NPC Statue Name: %s, (%d: %d/%d)'
	DB	00H						; `string'
CONST	ENDS
;	COMDAT ??_C@_0EA@DBPKHFEA@?$FLIllusion?5Temple?$FN?5?$CI?$CFd?$CJ?5?$CI?$CFs?$CJ?$CI?$CFs?$CJ?5@
CONST	SEGMENT
??_C@_0EA@DBPKHFEA@?$FLIllusion?5Temple?$FN?5?$CI?$CFd?$CJ?5?$CI?$CFs?$CJ?$CI?$CFs?$CJ?5@ DB '['
	DB	'Illusion Temple] (%d) (%s)(%s) to Drop Relics Item [Serial:%u'
	DB	']', 00H					; `string'
CONST	ENDS
;	COMDAT ??_C@_04BGCMBJDA@Item?$AA@
CONST	SEGMENT
??_C@_04BGCMBJDA@Item?$AA@ DB 'Item', 00H		; `string'
CONST	ENDS
;	COMDAT ??_C@_0EC@KBKIJFJA@?$FLIllusion?5Temple?$FN?5?$CI?$CFd?$CJ?5?$CI?$CFs?$CJ?$CI?$CFs?$CJ?5@
CONST	SEGMENT
??_C@_0EC@KBKIJFJA@?$FLIllusion?5Temple?$FN?5?$CI?$CFd?$CJ?5?$CI?$CFs?$CJ?$CI?$CFs?$CJ?5@ DB '['
	DB	'Illusion Temple] (%d) (%s)(%s) to Delete Relics Item [Serial:'
	DB	'%u]', 00H					; `string'
CONST	ENDS
;	COMDAT ??_C@_0EO@HGHKGJCL@?$FLIllusion?5Temple?$FN?5?$CI?$CFd?$CJ?5Increase?5@
CONST	SEGMENT
??_C@_0EO@HGHKGJCL@?$FLIllusion?5Temple?$FN?5?$CI?$CFd?$CJ?5Increase?5@ DB '['
	DB	'Illusion Temple] (%d) Increase IllusionTeam Relics Point: (%s'
	DB	')(%s)(Score:%d)', 00H			; `string'
CONST	ENDS
;	COMDAT ??_C@_0EM@NAJEPMDL@?$FLIllusion?5Temple?$FN?5?$CI?$CFd?$CJ?5Increase?5@
CONST	SEGMENT
??_C@_0EM@NAJEPMDL@?$FLIllusion?5Temple?$FN?5?$CI?$CFd?$CJ?5Increase?5@ DB '['
	DB	'Illusion Temple] (%d) Increase AlliedTeam Relics Point: (%s)('
	DB	'%s)(Score:%d)', 00H				; `string'
CONST	ENDS
;	COMDAT ??_C@_0DN@KNCFCJAC@?$FLIllusion?5Temple?$FN?5?$CI?$CFd?$CJ?5?$FL?$CFs?$FN?$FL?$CFs?$FN?5@
CONST	SEGMENT
??_C@_0DN@KNCFCJAC@?$FLIllusion?5Temple?$FN?5?$CI?$CFd?$CJ?5?$FL?$CFs?$FN?$FL?$CFs?$FN?5@ DB '['
	DB	'Illusion Temple] (%d) [%s][%s] Click To Status (X:%d, Y:%d)', 00H ; `string'
CONST	ENDS
;	COMDAT ??_C@_0CL@PJKIAECJ@?$FLIllusion?5Temple?$FN?5?$CI?$CFd?$CJ?5LeaveUser@
CONST	SEGMENT
??_C@_0CL@PJKIAECJ@?$FLIllusion?5Temple?$FN?5?$CI?$CFd?$CJ?5LeaveUser@ DB '['
	DB	'Illusion Temple] (%d) LeaveUser: (%s)(%s)', 00H ; `string'
CONST	ENDS
;	COMDAT ??_C@_0CG@IGMLEOMK@Enter?5Error?3?5IllusionTempleIndex@
CONST	SEGMENT
??_C@_0CG@IGMLEOMK@Enter?5Error?3?5IllusionTempleIndex@ DB 'Enter Error: '
	DB	'IllusionTempleIndex Fail', 00H		; `string'
CONST	ENDS
;	COMDAT ??_C@_0GI@CGKCOMHN@?$FLIllusion?5Temple?$FN?5?$CI?$CFd?$CJ?5Illusion?5@
CONST	SEGMENT
??_C@_0GI@CGKCOMHN@?$FLIllusion?5Temple?$FN?5?$CI?$CFd?$CJ?5Illusion?5@ DB '['
	DB	'Illusion Temple] (%d) Illusion Team CLASS_DW(%d),CLASS_DK(%d)'
	DB	', CLASS_FE(%d),CLASS_MG(%d), CLASS_DL(%d)', 00H ; `string'
CONST	ENDS
;	COMDAT ??_C@_0GG@JOEGADPL@?$FLIllusion?5Temple?$FN?5?$CI?$CFd?$CJ?5Allied?5Te@
CONST	SEGMENT
??_C@_0GG@JOEGADPL@?$FLIllusion?5Temple?$FN?5?$CI?$CFd?$CJ?5Allied?5Te@ DB '['
	DB	'Illusion Temple] (%d) Allied Team CLASS_DW(%d),CLASS_DK(%d), '
	DB	'CLASS_FE(%d),CLASS_MG(%d), CLASS_DL(%d)', 00H ; `string'
CONST	ENDS
;	COMDAT ??_C@_09MJCPIION@?$CI?$CFs?$CJ?$CI?$CFs?$CJ?5?$AA@
CONST	SEGMENT
??_C@_09MJCPIION@?$CI?$CFs?$CJ?$CI?$CFs?$CJ?5?$AA@ DB '(%s)(%s) ', 00H ; `string'
CONST	ENDS
;	COMDAT ??_C@_0DD@OHOGJPCE@?$FLIllusion?5Temple?$FN?5?$CI?$CFd?$CJ?5Party?5Add@
CONST	SEGMENT
??_C@_0DD@OHOGJPCE@?$FLIllusion?5Temple?$FN?5?$CI?$CFd?$CJ?5Party?5Add@ DB '['
	DB	'Illusion Temple] (%d) Party Add Error, (Team: %d)', 00H ; `string'
CONST	ENDS
;	COMDAT ??_C@_0DG@NEAACFEP@?$FLIllusion?5Temple?$FN?5?$CI?$CFd?$CJ?5Party?5Cre@
CONST	SEGMENT
??_C@_0DG@NEAACFEP@?$FLIllusion?5Temple?$FN?5?$CI?$CFd?$CJ?5Party?5Cre@ DB '['
	DB	'Illusion Temple] (%d) Party Create Error, (Team: %d)', 00H ; `string'
CONST	ENDS
;	COMDAT ??_C@_0CI@JGHENCNJ@?$FLIllusion?5Temple?$FN?5?$CI?$CFd?$CJ?5?$FLIllusion@
CONST	SEGMENT
??_C@_0CI@JGHENCNJ@?$FLIllusion?5Temple?$FN?5?$CI?$CFd?$CJ?5?$FLIllusion@ DB '['
	DB	'Illusion Temple] (%d) [IllusiondTeam] ', 00H ; `string'
CONST	ENDS
;	COMDAT ??_C@_0CF@JIFCGMEK@?$FLIllusion?5Temple?$FN?5?$CI?$CFd?$CJ?5?$FLAlliedTe@
CONST	SEGMENT
??_C@_0CF@JIFCGMEK@?$FLIllusion?5Temple?$FN?5?$CI?$CFd?$CJ?5?$FLAlliedTe@ DB '['
	DB	'Illusion Temple] (%d) [AlliedTeam] ', 00H	; `string'
CONST	ENDS
;	COMDAT ??_C@_0EH@FBNKCLFD@?$FLIllusion?5Temple?$FN?5?$CI?$CFd?$CJ?5Failed?5to@
CONST	SEGMENT
??_C@_0EH@FBNKCLFD@?$FLIllusion?5Temple?$FN?5?$CI?$CFd?$CJ?5Failed?5to@ DB '['
	DB	'Illusion Temple] (%d) Failed to Start Illusion Temple (UserCo'
	DB	'unt: %d)', 00H				; `string'
CONST	ENDS
;	COMDAT ??_C@_0EI@LKEJODBE@?$FLIllusion?5Temple?$FN?5?$CI?$CFd?$CJ?5Payback?5t@
CONST	SEGMENT
??_C@_0EI@LKEJODBE@?$FLIllusion?5Temple?$FN?5?$CI?$CFd?$CJ?5Payback?5t@ DB '['
	DB	'Illusion Temple] (%d) Payback to User Failed (%s)(%s) Scroll '
	DB	'Not Found', 00H				; `string'
CONST	ENDS
;	COMDAT ??_C@_0ED@OJGCKKPO@?$FLIllusion?5Temple?$FN?5?$CI?$CFd?$CJ?5Payback?5t@
CONST	SEGMENT
??_C@_0ED@OJGCKKPO@?$FLIllusion?5Temple?$FN?5?$CI?$CFd?$CJ?5Payback?5t@ DB '['
	DB	'Illusion Temple] (%d) Payback to User (%s)(%s) Ticket (Serial'
	DB	':%u)', 00H					; `string'
CONST	ENDS
;	COMDAT ??_C@_0DG@NJOPLNIL@?$FLIllusion?5Temple?$FN?5?$CI?$CFd?$CJ?5Sync?5Open@
CONST	SEGMENT
??_C@_0DG@NJOPLNIL@?$FLIllusion?5Temple?$FN?5?$CI?$CFd?$CJ?5Sync?5Open@ DB '['
	DB	'Illusion Temple] (%d) Sync Open Time. [%d]min remain', 00H ; `string'
CONST	ENDS
;	COMDAT ??_C@_0CM@GMBNLABJ@Error?5?3?5Illusion?5Temple?5StartTim@
CONST	SEGMENT
??_C@_0CM@GMBNLABJ@Error?5?3?5Illusion?5Temple?5StartTim@ DB 'Error : Ill'
	DB	'usion Temple StartTime size is 0', 00H	; `string'
CONST	ENDS
;	COMDAT ??_C@_0N@GGPGOPEN@return?5?$CFs?5?$CFd?$AA@
CONST	SEGMENT
??_C@_0N@GGPGOPEN@return?5?$CFs?5?$CFd?$AA@ DB 'return %s %d', 00H ; `string'
CONST	ENDS
;	COMDAT ??_C@_0BK@DMGNFDO@IllusionTempleProcess?4cpp?$AA@
CONST	SEGMENT
??_C@_0BK@DMGNFDO@IllusionTempleProcess?4cpp?$AA@ DB 'IllusionTempleProce'
	DB	'ss.cpp', 00H				; `string'
CONST	ENDS
_DATA	SEGMENT
?IT_REWARD_A@@3PAHA DD 0493e0H				; IT_REWARD_A
	DD	053020H
	DD	05cc60H
	DD	0668a0H
	DD	0704e0H
	DD	07a120H
?IT_REWARD_B@@3PAHA DD 0c350H				; IT_REWARD_B
	DD	0ea60H
	DD	011170H
	DD	013880H
	DD	015f90H
	DD	0186a0H
?IT_REWARD_C@@3PAHA DD 0258H				; IT_REWARD_C
	DD	04b0H
	DD	0708H
	DD	0960H
	DD	0bb8H
	DD	0e10H
?IT_REWARD_D@@3PAHA DD 04b0H				; IT_REWARD_D
	DD	0960H
	DD	0e10H
	DD	012c0H
	DD	01770H
	DD	01c20H
?IT_REWARD_E@@3PAHA DD 0aH				; IT_REWARD_E
	DD	014H
	DD	01eH
	DD	028H
	DD	032H
	DD	03cH
_DATA	ENDS
;	COMDAT xdata$x
xdata$x	SEGMENT
__ehfuncinfo$??_EOBJECTSTRUCT@@QAEPAXI@Z DD 019930522H
	DD	00H
	DD	00H
	DD	2 DUP(00H)
	DD	2 DUP(00H)
	DD	00H
	DD	05H
xdata$x	ENDS
; Function compile flags: /Ogtp
; File c:\program files (x86)\microsoft visual studio 14.0\vc\include\list
;	COMDAT ??E?$_List_iterator@V?$_List_val@U?$_List_simple_types@UILLUSION_TIME@@@std@@@std@@@std@@QAE?AV01@H@Z
_TEXT	SEGMENT
___$ReturnUdt$ = 8					; size = 4
___formal$ = 12						; size = 4
??E?$_List_iterator@V?$_List_val@U?$_List_simple_types@UILLUSION_TIME@@@std@@@std@@@std@@QAE?AV01@H@Z PROC ; std::_List_iterator<std::_List_val<std::_List_simple_types<ILLUSION_TIME> > >::operator++, COMDAT
; _this$ = ecx

; 376  : 		{	// postincrement

  00000	55		 push	 ebp
  00001	8b ec		 mov	 ebp, esp

; 377  : 		_Myiter _Tmp = *this;

  00003	8b 11		 mov	 edx, DWORD PTR [ecx]
  00005	8b 45 08	 mov	 eax, DWORD PTR ___$ReturnUdt$[ebp]
  00008	89 10		 mov	 DWORD PTR [eax], edx

; 240  : 		this->_Ptr = _Mylist::_Nextnode(this->_Ptr);

  0000a	8b 12		 mov	 edx, DWORD PTR [edx]
  0000c	89 11		 mov	 DWORD PTR [ecx], edx

; 378  : 		++*this;
; 379  : 		return (_Tmp);
; 380  : 		}

  0000e	5d		 pop	 ebp
  0000f	c2 08 00	 ret	 8
??E?$_List_iterator@V?$_List_val@U?$_List_simple_types@UILLUSION_TIME@@@std@@@std@@@std@@QAE?AV01@H@Z ENDP ; std::_List_iterator<std::_List_val<std::_List_simple_types<ILLUSION_TIME> > >::operator++
_TEXT	ENDS
; Function compile flags: /Ogtp
; File c:\program files (x86)\microsoft visual studio 14.0\vc\include\list
;	COMDAT ??E?$_List_iterator@V?$_List_val@U?$_List_simple_types@UILLUSION_TIME@@@std@@@std@@@std@@QAEAAV01@XZ
_TEXT	SEGMENT
??E?$_List_iterator@V?$_List_val@U?$_List_simple_types@UILLUSION_TIME@@@std@@@std@@@std@@QAEAAV01@XZ PROC ; std::_List_iterator<std::_List_val<std::_List_simple_types<ILLUSION_TIME> > >::operator++, COMDAT
; _this$ = ecx

; 374  : 
; 375  : 	_Myiter operator++(int)
; 376  : 		{	// postincrement
; 377  : 		_Myiter _Tmp = *this;
; 378  : 		++*this;
; 379  : 		return (_Tmp);
; 380  : 		}
; 381  : 
; 382  : 	_Myiter& operator--()
; 383  : 		{	// predecrement
; 384  : 		--(*(_Mybase *)this);
; 385  : 		return (*this);
; 386  : 		}
; 387  : 
; 388  : 	_Myiter operator--(int)
; 389  : 		{	// postdecrement
; 390  : 		_Myiter _Tmp = *this;
; 391  : 		--*this;
; 392  : 		return (_Tmp);
; 393  : 		}
; 394  : 	};
; 395  : 
; 396  : template<class _Mylist> inline
; 397  : 	typename _List_iterator<_Mylist>::_Unchecked_type
; 398  : 		_Unchecked(_List_iterator<_Mylist> _Iter)
; 399  : 	{	// convert to unchecked
; 400  : 	return (_Iter._Unchecked());
; 401  : 	}
; 402  : 
; 403  : template<class _Mylist> inline
; 404  : 	_List_iterator<_Mylist>&
; 405  : 		_Rechecked(_List_iterator<_Mylist>& _Iter,
; 406  : 			typename _List_iterator<_Mylist>
; 407  : 				::_Unchecked_type _Right)
; 408  : 	{	// convert to checked
; 409  : 	return (_Iter._Rechecked(_Right));
; 410  : 	}
; 411  : 
; 412  : 		// list TYPE WRAPPERS
; 413  : template<class _Value_type,
; 414  : 	class _Size_type,
; 415  : 	class _Difference_type,
; 416  : 	class _Pointer,
; 417  : 	class _Const_pointer,
; 418  : 	class _Reference,
; 419  : 	class _Const_reference,
; 420  : 	class _Nodeptr_type>
; 421  : 	struct _List_iter_types
; 422  : 	{	// wraps types needed by iterators
; 423  : 	typedef _Value_type value_type;
; 424  : 	typedef _Size_type size_type;
; 425  : 	typedef _Difference_type difference_type;
; 426  : 	typedef _Pointer pointer;
; 427  : 	typedef _Const_pointer const_pointer;
; 428  : 	typedef _Reference reference;
; 429  : 	typedef _Const_reference const_reference;
; 430  : 	typedef _Nodeptr_type _Nodeptr;
; 431  : 	};
; 432  : 
; 433  : template<class _Value_type,
; 434  : 	class _Voidptr>
; 435  : 	struct _List_node
; 436  : 		{	// list node
; 437  : 		_Voidptr _Next;	// successor node, or first element if head
; 438  : 		_Voidptr _Prev;	// predecessor node, or last element if head
; 439  : 		_Value_type _Myval;	// the stored value, unused if head
; 440  : 
; 441  : 	private:
; 442  : 		_List_node& operator=(const _List_node&);
; 443  : 		};
; 444  : 
; 445  : template<class _Value_type>
; 446  : 	struct _List_node<_Value_type, void *>
; 447  : 		{	// list node
; 448  : 		typedef _List_node<_Value_type, void *> *_Nodeptr;
; 449  : 		_Nodeptr _Next;	// successor node, or first element if head
; 450  : 		_Nodeptr _Prev;	// predecessor node, or last element if head
; 451  : 		_Value_type _Myval;	// the stored value, unused if head
; 452  : 
; 453  : 	private:
; 454  : 		_List_node& operator=(const _List_node&);
; 455  : 		};
; 456  : 
; 457  : template<class _Ty>
; 458  : 	struct _List_simple_types
; 459  : 		: public _Simple_types<_Ty>
; 460  : 	{	// wraps types needed by iterators
; 461  : 	typedef _List_node<_Ty, void *> _Node;
; 462  : 	typedef _Node *_Nodeptr;
; 463  : 	};
; 464  : 
; 465  : template<class _Ty,
; 466  : 	class _Alloc0>
; 467  : 	struct _List_base_types
; 468  : 	{	// types needed for a container base
; 469  : 	typedef _Alloc0 _Alloc;
; 470  : 	typedef _List_base_types<_Ty, _Alloc> _Myt;
; 471  : 
; 472  : 	typedef _Wrap_alloc<_Alloc> _Alty0;
; 473  : 	typedef typename _Alty0::template rebind<_Ty>::other _Alty;
; 474  : 
; 475  : 
; 476  : 	typedef typename _Get_voidptr<_Alty, typename _Alty::pointer>::type
; 477  : 		_Voidptr;
; 478  : 	typedef _List_node<typename _Alty::value_type,
; 479  : 		_Voidptr> _Node;
; 480  : 
; 481  : 	typedef typename _Alty::template rebind<_Node>::other _Alnod_type;
; 482  : 	typedef typename _Alnod_type::pointer _Nodeptr;
; 483  : 	typedef _Nodeptr& _Nodepref;
; 484  : 
; 485  : 	typedef typename _If<_Is_simple_alloc<_Alty>::value,
; 486  : 		_List_simple_types<typename _Alty::value_type>,
; 487  : 		_List_iter_types<typename _Alty::value_type,
; 488  : 			typename _Alty::size_type,
; 489  : 			typename _Alty::difference_type,
; 490  : 			typename _Alty::pointer,
; 491  : 			typename _Alty::const_pointer,
; 492  : 			typename _Alty::reference,
; 493  : 			typename _Alty::const_reference,
; 494  : 			_Nodeptr> >::type
; 495  : 		_Val_types;
; 496  : 	};
; 497  : 
; 498  : 		// TEMPLATE CLASS _List_val
; 499  : template<class _Val_types>
; 500  : 	class _List_val
; 501  : 		: public _Container_base
; 502  : 	{	// base class for list to hold data
; 503  : public:
; 504  : 	typedef _List_val<_Val_types> _Myt;
; 505  : 
; 506  : 	typedef typename _Val_types::_Nodeptr _Nodeptr;
; 507  : 	typedef _Nodeptr& _Nodepref;
; 508  : 
; 509  : 	typedef typename _Val_types::value_type value_type;
; 510  : 	typedef typename _Val_types::size_type size_type;
; 511  : 	typedef typename _Val_types::difference_type difference_type;
; 512  : 	typedef typename _Val_types::pointer pointer;
; 513  : 	typedef typename _Val_types::const_pointer const_pointer;
; 514  : 	typedef typename _Val_types::reference reference;
; 515  : 	typedef typename _Val_types::const_reference const_reference;
; 516  : 
; 517  : 	typedef _List_const_iterator<_Myt> const_iterator;
; 518  : 	typedef _List_iterator<_Myt> iterator;
; 519  : 
; 520  : 	typedef _List_unchecked_const_iterator<_Myt> _Unchecked_const_iterator;
; 521  : 	typedef _List_unchecked_iterator<_Myt> _Unchecked_iterator;
; 522  : 
; 523  : 	_List_val()
; 524  : 		{	// initialize data
; 525  : 		this->_Myhead = 0;
; 526  : 		this->_Mysize = 0;
; 527  : 		}
; 528  : 
; 529  : 	static _Nodepref _Nextnode(_Nodeptr _Pnode)
; 530  : 		{	// return reference to successor pointer in node
; 531  : 		return ((_Nodepref)_Pnode->_Next);

  00000	8b 01		 mov	 eax, DWORD PTR [ecx]

; 240  : 		this->_Ptr = _Mylist::_Nextnode(this->_Ptr);

  00002	8b 00		 mov	 eax, DWORD PTR [eax]
  00004	89 01		 mov	 DWORD PTR [ecx], eax

; 371  : 		++(*(_Mybase *)this);
; 372  : 		return (*this);

  00006	8b c1		 mov	 eax, ecx

; 373  : 		}

  00008	c3		 ret	 0
??E?$_List_iterator@V?$_List_val@U?$_List_simple_types@UILLUSION_TIME@@@std@@@std@@@std@@QAEAAV01@XZ ENDP ; std::_List_iterator<std::_List_val<std::_List_simple_types<ILLUSION_TIME> > >::operator++
_TEXT	ENDS
; Function compile flags: /Ogtp
; File c:\program files (x86)\microsoft visual studio 14.0\vc\include\list
;	COMDAT ??D?$_List_iterator@V?$_List_val@U?$_List_simple_types@UILLUSION_TIME@@@std@@@std@@@std@@QBEAAUILLUSION_TIME@@XZ
_TEXT	SEGMENT
??D?$_List_iterator@V?$_List_val@U?$_List_simple_types@UILLUSION_TIME@@@std@@@std@@@std@@QBEAAUILLUSION_TIME@@XZ PROC ; std::_List_iterator<std::_List_val<std::_List_simple_types<ILLUSION_TIME> > >::operator*, COMDAT
; _this$ = ecx

; 363  : 
; 364  : 	pointer operator->() const
; 365  : 		{	// return pointer to class object
; 366  : 		return (_STD pointer_traits<pointer>::pointer_to(**this));
; 367  : 		}
; 368  : 
; 369  : 	_Myiter& operator++()
; 370  : 		{	// preincrement
; 371  : 		++(*(_Mybase *)this);
; 372  : 		return (*this);
; 373  : 		}
; 374  : 
; 375  : 	_Myiter operator++(int)
; 376  : 		{	// postincrement
; 377  : 		_Myiter _Tmp = *this;
; 378  : 		++*this;
; 379  : 		return (_Tmp);
; 380  : 		}
; 381  : 
; 382  : 	_Myiter& operator--()
; 383  : 		{	// predecrement
; 384  : 		--(*(_Mybase *)this);
; 385  : 		return (*this);
; 386  : 		}
; 387  : 
; 388  : 	_Myiter operator--(int)
; 389  : 		{	// postdecrement
; 390  : 		_Myiter _Tmp = *this;
; 391  : 		--*this;
; 392  : 		return (_Tmp);
; 393  : 		}
; 394  : 	};
; 395  : 
; 396  : template<class _Mylist> inline
; 397  : 	typename _List_iterator<_Mylist>::_Unchecked_type
; 398  : 		_Unchecked(_List_iterator<_Mylist> _Iter)
; 399  : 	{	// convert to unchecked
; 400  : 	return (_Iter._Unchecked());
; 401  : 	}
; 402  : 
; 403  : template<class _Mylist> inline
; 404  : 	_List_iterator<_Mylist>&
; 405  : 		_Rechecked(_List_iterator<_Mylist>& _Iter,
; 406  : 			typename _List_iterator<_Mylist>
; 407  : 				::_Unchecked_type _Right)
; 408  : 	{	// convert to checked
; 409  : 	return (_Iter._Rechecked(_Right));
; 410  : 	}
; 411  : 
; 412  : 		// list TYPE WRAPPERS
; 413  : template<class _Value_type,
; 414  : 	class _Size_type,
; 415  : 	class _Difference_type,
; 416  : 	class _Pointer,
; 417  : 	class _Const_pointer,
; 418  : 	class _Reference,
; 419  : 	class _Const_reference,
; 420  : 	class _Nodeptr_type>
; 421  : 	struct _List_iter_types
; 422  : 	{	// wraps types needed by iterators
; 423  : 	typedef _Value_type value_type;
; 424  : 	typedef _Size_type size_type;
; 425  : 	typedef _Difference_type difference_type;
; 426  : 	typedef _Pointer pointer;
; 427  : 	typedef _Const_pointer const_pointer;
; 428  : 	typedef _Reference reference;
; 429  : 	typedef _Const_reference const_reference;
; 430  : 	typedef _Nodeptr_type _Nodeptr;
; 431  : 	};
; 432  : 
; 433  : template<class _Value_type,
; 434  : 	class _Voidptr>
; 435  : 	struct _List_node
; 436  : 		{	// list node
; 437  : 		_Voidptr _Next;	// successor node, or first element if head
; 438  : 		_Voidptr _Prev;	// predecessor node, or last element if head
; 439  : 		_Value_type _Myval;	// the stored value, unused if head
; 440  : 
; 441  : 	private:
; 442  : 		_List_node& operator=(const _List_node&);
; 443  : 		};
; 444  : 
; 445  : template<class _Value_type>
; 446  : 	struct _List_node<_Value_type, void *>
; 447  : 		{	// list node
; 448  : 		typedef _List_node<_Value_type, void *> *_Nodeptr;
; 449  : 		_Nodeptr _Next;	// successor node, or first element if head
; 450  : 		_Nodeptr _Prev;	// predecessor node, or last element if head
; 451  : 		_Value_type _Myval;	// the stored value, unused if head
; 452  : 
; 453  : 	private:
; 454  : 		_List_node& operator=(const _List_node&);
; 455  : 		};
; 456  : 
; 457  : template<class _Ty>
; 458  : 	struct _List_simple_types
; 459  : 		: public _Simple_types<_Ty>
; 460  : 	{	// wraps types needed by iterators
; 461  : 	typedef _List_node<_Ty, void *> _Node;
; 462  : 	typedef _Node *_Nodeptr;
; 463  : 	};
; 464  : 
; 465  : template<class _Ty,
; 466  : 	class _Alloc0>
; 467  : 	struct _List_base_types
; 468  : 	{	// types needed for a container base
; 469  : 	typedef _Alloc0 _Alloc;
; 470  : 	typedef _List_base_types<_Ty, _Alloc> _Myt;
; 471  : 
; 472  : 	typedef _Wrap_alloc<_Alloc> _Alty0;
; 473  : 	typedef typename _Alty0::template rebind<_Ty>::other _Alty;
; 474  : 
; 475  : 
; 476  : 	typedef typename _Get_voidptr<_Alty, typename _Alty::pointer>::type
; 477  : 		_Voidptr;
; 478  : 	typedef _List_node<typename _Alty::value_type,
; 479  : 		_Voidptr> _Node;
; 480  : 
; 481  : 	typedef typename _Alty::template rebind<_Node>::other _Alnod_type;
; 482  : 	typedef typename _Alnod_type::pointer _Nodeptr;
; 483  : 	typedef _Nodeptr& _Nodepref;
; 484  : 
; 485  : 	typedef typename _If<_Is_simple_alloc<_Alty>::value,
; 486  : 		_List_simple_types<typename _Alty::value_type>,
; 487  : 		_List_iter_types<typename _Alty::value_type,
; 488  : 			typename _Alty::size_type,
; 489  : 			typename _Alty::difference_type,
; 490  : 			typename _Alty::pointer,
; 491  : 			typename _Alty::const_pointer,
; 492  : 			typename _Alty::reference,
; 493  : 			typename _Alty::const_reference,
; 494  : 			_Nodeptr> >::type
; 495  : 		_Val_types;
; 496  : 	};
; 497  : 
; 498  : 		// TEMPLATE CLASS _List_val
; 499  : template<class _Val_types>
; 500  : 	class _List_val
; 501  : 		: public _Container_base
; 502  : 	{	// base class for list to hold data
; 503  : public:
; 504  : 	typedef _List_val<_Val_types> _Myt;
; 505  : 
; 506  : 	typedef typename _Val_types::_Nodeptr _Nodeptr;
; 507  : 	typedef _Nodeptr& _Nodepref;
; 508  : 
; 509  : 	typedef typename _Val_types::value_type value_type;
; 510  : 	typedef typename _Val_types::size_type size_type;
; 511  : 	typedef typename _Val_types::difference_type difference_type;
; 512  : 	typedef typename _Val_types::pointer pointer;
; 513  : 	typedef typename _Val_types::const_pointer const_pointer;
; 514  : 	typedef typename _Val_types::reference reference;
; 515  : 	typedef typename _Val_types::const_reference const_reference;
; 516  : 
; 517  : 	typedef _List_const_iterator<_Myt> const_iterator;
; 518  : 	typedef _List_iterator<_Myt> iterator;
; 519  : 
; 520  : 	typedef _List_unchecked_const_iterator<_Myt> _Unchecked_const_iterator;
; 521  : 	typedef _List_unchecked_iterator<_Myt> _Unchecked_iterator;
; 522  : 
; 523  : 	_List_val()
; 524  : 		{	// initialize data
; 525  : 		this->_Myhead = 0;
; 526  : 		this->_Mysize = 0;
; 527  : 		}
; 528  : 
; 529  : 	static _Nodepref _Nextnode(_Nodeptr _Pnode)
; 530  : 		{	// return reference to successor pointer in node
; 531  : 		return ((_Nodepref)_Pnode->_Next);
; 532  : 		}
; 533  : 
; 534  : 	static _Nodepref _Prevnode(_Nodeptr _Pnode)
; 535  : 		{	// return reference to predecessor pointer in node
; 536  : 		return ((_Nodepref)_Pnode->_Prev);
; 537  : 		}
; 538  : 
; 539  : 	static reference _Myval(_Nodeptr _Pnode)
; 540  : 		{	// return reference to value in node
; 541  : 		return ((reference)_Pnode->_Myval);

  00000	8b 01		 mov	 eax, DWORD PTR [ecx]
  00002	83 c0 08	 add	 eax, 8

; 361  : 		return ((reference)**(_Mybase *)this);
; 362  : 		}

  00005	c3		 ret	 0
??D?$_List_iterator@V?$_List_val@U?$_List_simple_types@UILLUSION_TIME@@@std@@@std@@@std@@QBEAAUILLUSION_TIME@@XZ ENDP ; std::_List_iterator<std::_List_val<std::_List_simple_types<ILLUSION_TIME> > >::operator*
_TEXT	ENDS
; Function compile flags: /Ogtp
; File c:\program files (x86)\microsoft visual studio 14.0\vc\include\list
;	COMDAT ??0?$_List_iterator@V?$_List_val@U?$_List_simple_types@UILLUSION_TIME@@@std@@@std@@@std@@QAE@PAU?$_List_node@UILLUSION_TIME@@PAX@1@PBV?$_List_val@U?$_List_simple_types@UILLUSION_TIME@@@std@@@1@@Z
_TEXT	SEGMENT
__Pnode$ = 8						; size = 4
__Plist$ = 12						; size = 4
??0?$_List_iterator@V?$_List_val@U?$_List_simple_types@UILLUSION_TIME@@@std@@@std@@@std@@QAE@PAU?$_List_node@UILLUSION_TIME@@PAX@1@PBV?$_List_val@U?$_List_simple_types@UILLUSION_TIME@@@std@@@1@@Z PROC ; std::_List_iterator<std::_List_val<std::_List_simple_types<ILLUSION_TIME> > >::_List_iterator<std::_List_val<std::_List_simple_types<ILLUSION_TIME> > >, COMDAT
; _this$ = ecx

; 343  : 		{	// construct with node pointer _Pnode

  00000	55		 push	 ebp
  00001	8b ec		 mov	 ebp, esp

; 43   : 		: _Ptr(_Pnode)

  00003	8b 45 08	 mov	 eax, DWORD PTR __Pnode$[ebp]
  00006	89 01		 mov	 DWORD PTR [ecx], eax

; 344  : 		}

  00008	8b c1		 mov	 eax, ecx
  0000a	5d		 pop	 ebp
  0000b	c2 08 00	 ret	 8
??0?$_List_iterator@V?$_List_val@U?$_List_simple_types@UILLUSION_TIME@@@std@@@std@@@std@@QAE@PAU?$_List_node@UILLUSION_TIME@@PAX@1@PBV?$_List_val@U?$_List_simple_types@UILLUSION_TIME@@@std@@@1@@Z ENDP ; std::_List_iterator<std::_List_val<std::_List_simple_types<ILLUSION_TIME> > >::_List_iterator<std::_List_val<std::_List_simple_types<ILLUSION_TIME> > >
_TEXT	ENDS
; Function compile flags: /Ogtp
; File c:\program files (x86)\microsoft visual studio 14.0\vc\include\list
;	COMDAT ??0?$_List_iterator@V?$_List_val@U?$_List_simple_types@UILLUSION_TIME@@@std@@@std@@@std@@QAE@XZ
_TEXT	SEGMENT
??0?$_List_iterator@V?$_List_val@U?$_List_simple_types@UILLUSION_TIME@@@std@@@std@@@std@@QAE@XZ PROC ; std::_List_iterator<std::_List_val<std::_List_simple_types<ILLUSION_TIME> > >::_List_iterator<std::_List_val<std::_List_simple_types<ILLUSION_TIME> > >, COMDAT
; _this$ = ecx

; 38   : 		: _Ptr(0)

  00000	c7 01 00 00 00
	00		 mov	 DWORD PTR [ecx], 0

; 338  : 		{	// construct with null node
; 339  : 		}

  00006	8b c1		 mov	 eax, ecx
  00008	c3		 ret	 0
??0?$_List_iterator@V?$_List_val@U?$_List_simple_types@UILLUSION_TIME@@@std@@@std@@@std@@QAE@XZ ENDP ; std::_List_iterator<std::_List_val<std::_List_simple_types<ILLUSION_TIME> > >::_List_iterator<std::_List_val<std::_List_simple_types<ILLUSION_TIME> > >
_TEXT	ENDS
; Function compile flags: /Ogtp
; File c:\program files (x86)\microsoft visual studio 14.0\vc\include\list
;	COMDAT ??9?$_List_const_iterator@V?$_List_val@U?$_List_simple_types@UILLUSION_TIME@@@std@@@std@@@std@@QBE_NABV01@@Z
_TEXT	SEGMENT
__Right$ = 8						; size = 4
??9?$_List_const_iterator@V?$_List_val@U?$_List_simple_types@UILLUSION_TIME@@@std@@@std@@@std@@QBE_NABV01@@Z PROC ; std::_List_const_iterator<std::_List_val<std::_List_simple_types<ILLUSION_TIME> > >::operator!=, COMDAT
; _this$ = ecx

; 300  : 		{	// test for iterator inequality

  00000	55		 push	 ebp
  00001	8b ec		 mov	 ebp, esp

; 296  : 		return (this->_Ptr == _Right._Ptr);

  00003	8b 11		 mov	 edx, DWORD PTR [ecx]

; 301  : 		return (!(*this == _Right));

  00005	33 c0		 xor	 eax, eax

; 296  : 		return (this->_Ptr == _Right._Ptr);

  00007	8b 4d 08	 mov	 ecx, DWORD PTR __Right$[ebp]
  0000a	3b 11		 cmp	 edx, DWORD PTR [ecx]

; 301  : 		return (!(*this == _Right));

  0000c	0f 95 c0	 setne	 al

; 302  : 		}

  0000f	5d		 pop	 ebp
  00010	c2 04 00	 ret	 4
??9?$_List_const_iterator@V?$_List_val@U?$_List_simple_types@UILLUSION_TIME@@@std@@@std@@@std@@QBE_NABV01@@Z ENDP ; std::_List_const_iterator<std::_List_val<std::_List_simple_types<ILLUSION_TIME> > >::operator!=
_TEXT	ENDS
; Function compile flags: /Ogtp
; File c:\program files (x86)\microsoft visual studio 14.0\vc\include\list
;	COMDAT ??8?$_List_const_iterator@V?$_List_val@U?$_List_simple_types@UILLUSION_TIME@@@std@@@std@@@std@@QBE_NABV01@@Z
_TEXT	SEGMENT
__Right$ = 8						; size = 4
??8?$_List_const_iterator@V?$_List_val@U?$_List_simple_types@UILLUSION_TIME@@@std@@@std@@@std@@QBE_NABV01@@Z PROC ; std::_List_const_iterator<std::_List_val<std::_List_simple_types<ILLUSION_TIME> > >::operator==, COMDAT
; _this$ = ecx

; 284  : 		{	// test for iterator equality

  00000	55		 push	 ebp
  00001	8b ec		 mov	 ebp, esp

; 285  :  #if _ITERATOR_DEBUG_LEVEL == 2
; 286  : 		if (this->_Getcont() != _Right._Getcont())
; 287  : 			{	// report error
; 288  : 			_DEBUG_ERROR("list iterators incompatible");
; 289  : 			_SCL_SECURE_INVALID_ARGUMENT;
; 290  : 			}
; 291  : 
; 292  :  #elif _ITERATOR_DEBUG_LEVEL == 1
; 293  : 		_SCL_SECURE_VALIDATE(this->_Getcont() == _Right._Getcont());
; 294  :  #endif /* _ITERATOR_DEBUG_LEVEL */
; 295  : 
; 296  : 		return (this->_Ptr == _Right._Ptr);

  00003	8b 11		 mov	 edx, DWORD PTR [ecx]
  00005	33 c0		 xor	 eax, eax
  00007	8b 4d 08	 mov	 ecx, DWORD PTR __Right$[ebp]
  0000a	3b 11		 cmp	 edx, DWORD PTR [ecx]
  0000c	0f 94 c0	 sete	 al

; 297  : 		}

  0000f	5d		 pop	 ebp
  00010	c2 04 00	 ret	 4
??8?$_List_const_iterator@V?$_List_val@U?$_List_simple_types@UILLUSION_TIME@@@std@@@std@@@std@@QBE_NABV01@@Z ENDP ; std::_List_const_iterator<std::_List_val<std::_List_simple_types<ILLUSION_TIME> > >::operator==
_TEXT	ENDS
; Function compile flags: /Ogtp
; File c:\program files (x86)\microsoft visual studio 14.0\vc\include\list
;	COMDAT ??E?$_List_const_iterator@V?$_List_val@U?$_List_simple_types@UILLUSION_TIME@@@std@@@std@@@std@@QAEAAV01@XZ
_TEXT	SEGMENT
??E?$_List_const_iterator@V?$_List_val@U?$_List_simple_types@UILLUSION_TIME@@@std@@@std@@@std@@QAEAAV01@XZ PROC ; std::_List_const_iterator<std::_List_val<std::_List_simple_types<ILLUSION_TIME> > >::operator++, COMDAT
; _this$ = ecx

; 243  : 
; 244  : 	_Myiter operator++(int)
; 245  : 		{	// postincrement
; 246  : 		_Myiter _Tmp = *this;
; 247  : 		++*this;
; 248  : 		return (_Tmp);
; 249  : 		}
; 250  : 
; 251  : 	_Myiter& operator--()
; 252  : 		{	// predecrement
; 253  :  #if _ITERATOR_DEBUG_LEVEL == 2
; 254  : 		if (this->_Getcont() == 0
; 255  : 			|| this->_Ptr == 0
; 256  : 			|| (this->_Ptr = _Mylist::_Prevnode(this->_Ptr))
; 257  : 				== ((_Mylist *)this->_Getcont())->_Myhead)
; 258  : 			{	// report error
; 259  : 			_DEBUG_ERROR("list iterator not decrementable");
; 260  : 			_SCL_SECURE_OUT_OF_RANGE;
; 261  : 			}
; 262  : 
; 263  :  #elif _ITERATOR_DEBUG_LEVEL == 1
; 264  : 		_SCL_SECURE_VALIDATE(this->_Getcont() != 0 && this->_Ptr != 0);
; 265  : 		this->_Ptr = _Mylist::_Prevnode(this->_Ptr);
; 266  : 		_SCL_SECURE_VALIDATE_RANGE(this->_Ptr !=
; 267  : 			((_Mylist *)this->_Getcont())->_Myhead);
; 268  : 
; 269  :  #else /* _ITERATOR_DEBUG_LEVEL */
; 270  : 		this->_Ptr = _Mylist::_Prevnode(this->_Ptr);
; 271  :  #endif /* _ITERATOR_DEBUG_LEVEL */
; 272  : 
; 273  : 		return (*this);
; 274  : 		}
; 275  : 
; 276  : 	_Myiter operator--(int)
; 277  : 		{	// postdecrement
; 278  : 		_Myiter _Tmp = *this;
; 279  : 		--*this;
; 280  : 		return (_Tmp);
; 281  : 		}
; 282  : 
; 283  : 	bool operator==(const _Myiter& _Right) const
; 284  : 		{	// test for iterator equality
; 285  :  #if _ITERATOR_DEBUG_LEVEL == 2
; 286  : 		if (this->_Getcont() != _Right._Getcont())
; 287  : 			{	// report error
; 288  : 			_DEBUG_ERROR("list iterators incompatible");
; 289  : 			_SCL_SECURE_INVALID_ARGUMENT;
; 290  : 			}
; 291  : 
; 292  :  #elif _ITERATOR_DEBUG_LEVEL == 1
; 293  : 		_SCL_SECURE_VALIDATE(this->_Getcont() == _Right._Getcont());
; 294  :  #endif /* _ITERATOR_DEBUG_LEVEL */
; 295  : 
; 296  : 		return (this->_Ptr == _Right._Ptr);
; 297  : 		}
; 298  : 
; 299  : 	bool operator!=(const _Myiter& _Right) const
; 300  : 		{	// test for iterator inequality
; 301  : 		return (!(*this == _Right));
; 302  : 		}
; 303  : 	};
; 304  : 
; 305  : template<class _Mylist> inline
; 306  : 	typename _List_const_iterator<_Mylist>::_Unchecked_type
; 307  : 		_Unchecked(_List_const_iterator<_Mylist> _Iter)
; 308  : 	{	// convert to unchecked
; 309  : 	return (_Iter._Unchecked());
; 310  : 	}
; 311  : 
; 312  : template<class _Mylist> inline
; 313  : 	_List_const_iterator<_Mylist>&
; 314  : 		_Rechecked(_List_const_iterator<_Mylist>& _Iter,
; 315  : 			typename _List_const_iterator<_Mylist>
; 316  : 				::_Unchecked_type _Right)
; 317  : 	{	// convert to checked
; 318  : 	return (_Iter._Rechecked(_Right));
; 319  : 	}
; 320  : 
; 321  : 	// TEMPLATE CLASS _List_iterator
; 322  : template<class _Mylist>
; 323  : 	class _List_iterator
; 324  : 		: public _List_const_iterator<_Mylist>
; 325  : 	{	// iterator for mutable list
; 326  : public:
; 327  : 	typedef _List_iterator<_Mylist> _Myiter;
; 328  : 	typedef _List_const_iterator<_Mylist> _Mybase;
; 329  : 	typedef bidirectional_iterator_tag iterator_category;
; 330  : 
; 331  : 	typedef typename _Mylist::_Nodeptr _Nodeptr;
; 332  : 	typedef typename _Mylist::value_type value_type;
; 333  : 	typedef typename _Mylist::difference_type difference_type;
; 334  : 	typedef typename _Mylist::pointer pointer;
; 335  : 	typedef typename _Mylist::reference reference;
; 336  : 
; 337  : 	_List_iterator()
; 338  : 		{	// construct with null node
; 339  : 		}
; 340  : 
; 341  : 	_List_iterator(_Nodeptr _Pnode, const _Mylist *_Plist)
; 342  : 		: _Mybase(_Pnode, _Plist)
; 343  : 		{	// construct with node pointer _Pnode
; 344  : 		}
; 345  : 
; 346  : 	typedef _List_unchecked_iterator<_Mylist> _Unchecked_type;
; 347  : 
; 348  : 	_Myiter& _Rechecked(_Unchecked_type _Right)
; 349  : 		{	// reset from unchecked iterator
; 350  : 		this->_Ptr = _Right._Ptr;
; 351  : 		return (*this);
; 352  : 		}
; 353  : 
; 354  : 	_Unchecked_type _Unchecked() const
; 355  : 		{	// make an unchecked iterator
; 356  : 		return (_Unchecked_type(this->_Ptr, (_Mylist *)this->_Getcont()));
; 357  : 		}
; 358  : 
; 359  : 	reference operator*() const
; 360  : 		{	// return designated value
; 361  : 		return ((reference)**(_Mybase *)this);
; 362  : 		}
; 363  : 
; 364  : 	pointer operator->() const
; 365  : 		{	// return pointer to class object
; 366  : 		return (_STD pointer_traits<pointer>::pointer_to(**this));
; 367  : 		}
; 368  : 
; 369  : 	_Myiter& operator++()
; 370  : 		{	// preincrement
; 371  : 		++(*(_Mybase *)this);
; 372  : 		return (*this);
; 373  : 		}
; 374  : 
; 375  : 	_Myiter operator++(int)
; 376  : 		{	// postincrement
; 377  : 		_Myiter _Tmp = *this;
; 378  : 		++*this;
; 379  : 		return (_Tmp);
; 380  : 		}
; 381  : 
; 382  : 	_Myiter& operator--()
; 383  : 		{	// predecrement
; 384  : 		--(*(_Mybase *)this);
; 385  : 		return (*this);
; 386  : 		}
; 387  : 
; 388  : 	_Myiter operator--(int)
; 389  : 		{	// postdecrement
; 390  : 		_Myiter _Tmp = *this;
; 391  : 		--*this;
; 392  : 		return (_Tmp);
; 393  : 		}
; 394  : 	};
; 395  : 
; 396  : template<class _Mylist> inline
; 397  : 	typename _List_iterator<_Mylist>::_Unchecked_type
; 398  : 		_Unchecked(_List_iterator<_Mylist> _Iter)
; 399  : 	{	// convert to unchecked
; 400  : 	return (_Iter._Unchecked());
; 401  : 	}
; 402  : 
; 403  : template<class _Mylist> inline
; 404  : 	_List_iterator<_Mylist>&
; 405  : 		_Rechecked(_List_iterator<_Mylist>& _Iter,
; 406  : 			typename _List_iterator<_Mylist>
; 407  : 				::_Unchecked_type _Right)
; 408  : 	{	// convert to checked
; 409  : 	return (_Iter._Rechecked(_Right));
; 410  : 	}
; 411  : 
; 412  : 		// list TYPE WRAPPERS
; 413  : template<class _Value_type,
; 414  : 	class _Size_type,
; 415  : 	class _Difference_type,
; 416  : 	class _Pointer,
; 417  : 	class _Const_pointer,
; 418  : 	class _Reference,
; 419  : 	class _Const_reference,
; 420  : 	class _Nodeptr_type>
; 421  : 	struct _List_iter_types
; 422  : 	{	// wraps types needed by iterators
; 423  : 	typedef _Value_type value_type;
; 424  : 	typedef _Size_type size_type;
; 425  : 	typedef _Difference_type difference_type;
; 426  : 	typedef _Pointer pointer;
; 427  : 	typedef _Const_pointer const_pointer;
; 428  : 	typedef _Reference reference;
; 429  : 	typedef _Const_reference const_reference;
; 430  : 	typedef _Nodeptr_type _Nodeptr;
; 431  : 	};
; 432  : 
; 433  : template<class _Value_type,
; 434  : 	class _Voidptr>
; 435  : 	struct _List_node
; 436  : 		{	// list node
; 437  : 		_Voidptr _Next;	// successor node, or first element if head
; 438  : 		_Voidptr _Prev;	// predecessor node, or last element if head
; 439  : 		_Value_type _Myval;	// the stored value, unused if head
; 440  : 
; 441  : 	private:
; 442  : 		_List_node& operator=(const _List_node&);
; 443  : 		};
; 444  : 
; 445  : template<class _Value_type>
; 446  : 	struct _List_node<_Value_type, void *>
; 447  : 		{	// list node
; 448  : 		typedef _List_node<_Value_type, void *> *_Nodeptr;
; 449  : 		_Nodeptr _Next;	// successor node, or first element if head
; 450  : 		_Nodeptr _Prev;	// predecessor node, or last element if head
; 451  : 		_Value_type _Myval;	// the stored value, unused if head
; 452  : 
; 453  : 	private:
; 454  : 		_List_node& operator=(const _List_node&);
; 455  : 		};
; 456  : 
; 457  : template<class _Ty>
; 458  : 	struct _List_simple_types
; 459  : 		: public _Simple_types<_Ty>
; 460  : 	{	// wraps types needed by iterators
; 461  : 	typedef _List_node<_Ty, void *> _Node;
; 462  : 	typedef _Node *_Nodeptr;
; 463  : 	};
; 464  : 
; 465  : template<class _Ty,
; 466  : 	class _Alloc0>
; 467  : 	struct _List_base_types
; 468  : 	{	// types needed for a container base
; 469  : 	typedef _Alloc0 _Alloc;
; 470  : 	typedef _List_base_types<_Ty, _Alloc> _Myt;
; 471  : 
; 472  : 	typedef _Wrap_alloc<_Alloc> _Alty0;
; 473  : 	typedef typename _Alty0::template rebind<_Ty>::other _Alty;
; 474  : 
; 475  : 
; 476  : 	typedef typename _Get_voidptr<_Alty, typename _Alty::pointer>::type
; 477  : 		_Voidptr;
; 478  : 	typedef _List_node<typename _Alty::value_type,
; 479  : 		_Voidptr> _Node;
; 480  : 
; 481  : 	typedef typename _Alty::template rebind<_Node>::other _Alnod_type;
; 482  : 	typedef typename _Alnod_type::pointer _Nodeptr;
; 483  : 	typedef _Nodeptr& _Nodepref;
; 484  : 
; 485  : 	typedef typename _If<_Is_simple_alloc<_Alty>::value,
; 486  : 		_List_simple_types<typename _Alty::value_type>,
; 487  : 		_List_iter_types<typename _Alty::value_type,
; 488  : 			typename _Alty::size_type,
; 489  : 			typename _Alty::difference_type,
; 490  : 			typename _Alty::pointer,
; 491  : 			typename _Alty::const_pointer,
; 492  : 			typename _Alty::reference,
; 493  : 			typename _Alty::const_reference,
; 494  : 			_Nodeptr> >::type
; 495  : 		_Val_types;
; 496  : 	};
; 497  : 
; 498  : 		// TEMPLATE CLASS _List_val
; 499  : template<class _Val_types>
; 500  : 	class _List_val
; 501  : 		: public _Container_base
; 502  : 	{	// base class for list to hold data
; 503  : public:
; 504  : 	typedef _List_val<_Val_types> _Myt;
; 505  : 
; 506  : 	typedef typename _Val_types::_Nodeptr _Nodeptr;
; 507  : 	typedef _Nodeptr& _Nodepref;
; 508  : 
; 509  : 	typedef typename _Val_types::value_type value_type;
; 510  : 	typedef typename _Val_types::size_type size_type;
; 511  : 	typedef typename _Val_types::difference_type difference_type;
; 512  : 	typedef typename _Val_types::pointer pointer;
; 513  : 	typedef typename _Val_types::const_pointer const_pointer;
; 514  : 	typedef typename _Val_types::reference reference;
; 515  : 	typedef typename _Val_types::const_reference const_reference;
; 516  : 
; 517  : 	typedef _List_const_iterator<_Myt> const_iterator;
; 518  : 	typedef _List_iterator<_Myt> iterator;
; 519  : 
; 520  : 	typedef _List_unchecked_const_iterator<_Myt> _Unchecked_const_iterator;
; 521  : 	typedef _List_unchecked_iterator<_Myt> _Unchecked_iterator;
; 522  : 
; 523  : 	_List_val()
; 524  : 		{	// initialize data
; 525  : 		this->_Myhead = 0;
; 526  : 		this->_Mysize = 0;
; 527  : 		}
; 528  : 
; 529  : 	static _Nodepref _Nextnode(_Nodeptr _Pnode)
; 530  : 		{	// return reference to successor pointer in node
; 531  : 		return ((_Nodepref)_Pnode->_Next);

  00000	8b 01		 mov	 eax, DWORD PTR [ecx]

; 225  :  #if _ITERATOR_DEBUG_LEVEL == 2
; 226  : 		if (this->_Getcont() == 0
; 227  : 			|| this->_Ptr == 0
; 228  : 			|| this->_Ptr == ((_Mylist *)this->_Getcont())->_Myhead)
; 229  : 			{	// report error
; 230  : 			_DEBUG_ERROR("list iterator not incrementable");
; 231  : 			_SCL_SECURE_OUT_OF_RANGE;
; 232  : 			}
; 233  : 
; 234  :  #elif _ITERATOR_DEBUG_LEVEL == 1
; 235  : 		_SCL_SECURE_VALIDATE(this->_Getcont() != 0 && this->_Ptr != 0);
; 236  : 		_SCL_SECURE_VALIDATE_RANGE(this->_Ptr !=
; 237  : 			((_Mylist *)this->_Getcont())->_Myhead);
; 238  :  #endif /* _ITERATOR_DEBUG_LEVEL */
; 239  : 
; 240  : 		this->_Ptr = _Mylist::_Nextnode(this->_Ptr);

  00002	8b 00		 mov	 eax, DWORD PTR [eax]
  00004	89 01		 mov	 DWORD PTR [ecx], eax

; 241  : 		return (*this);

  00006	8b c1		 mov	 eax, ecx

; 242  : 		}

  00008	c3		 ret	 0
??E?$_List_const_iterator@V?$_List_val@U?$_List_simple_types@UILLUSION_TIME@@@std@@@std@@@std@@QAEAAV01@XZ ENDP ; std::_List_const_iterator<std::_List_val<std::_List_simple_types<ILLUSION_TIME> > >::operator++
_TEXT	ENDS
; Function compile flags: /Ogtp
; File c:\program files (x86)\microsoft visual studio 14.0\vc\include\list
;	COMDAT ??D?$_List_const_iterator@V?$_List_val@U?$_List_simple_types@UILLUSION_TIME@@@std@@@std@@@std@@QBEABUILLUSION_TIME@@XZ
_TEXT	SEGMENT
??D?$_List_const_iterator@V?$_List_val@U?$_List_simple_types@UILLUSION_TIME@@@std@@@std@@@std@@QBEABUILLUSION_TIME@@XZ PROC ; std::_List_const_iterator<std::_List_val<std::_List_simple_types<ILLUSION_TIME> > >::operator*, COMDAT
; _this$ = ecx

; 222  : 
; 223  : 	_Myiter& operator++()
; 224  : 		{	// preincrement
; 225  :  #if _ITERATOR_DEBUG_LEVEL == 2
; 226  : 		if (this->_Getcont() == 0
; 227  : 			|| this->_Ptr == 0
; 228  : 			|| this->_Ptr == ((_Mylist *)this->_Getcont())->_Myhead)
; 229  : 			{	// report error
; 230  : 			_DEBUG_ERROR("list iterator not incrementable");
; 231  : 			_SCL_SECURE_OUT_OF_RANGE;
; 232  : 			}
; 233  : 
; 234  :  #elif _ITERATOR_DEBUG_LEVEL == 1
; 235  : 		_SCL_SECURE_VALIDATE(this->_Getcont() != 0 && this->_Ptr != 0);
; 236  : 		_SCL_SECURE_VALIDATE_RANGE(this->_Ptr !=
; 237  : 			((_Mylist *)this->_Getcont())->_Myhead);
; 238  :  #endif /* _ITERATOR_DEBUG_LEVEL */
; 239  : 
; 240  : 		this->_Ptr = _Mylist::_Nextnode(this->_Ptr);
; 241  : 		return (*this);
; 242  : 		}
; 243  : 
; 244  : 	_Myiter operator++(int)
; 245  : 		{	// postincrement
; 246  : 		_Myiter _Tmp = *this;
; 247  : 		++*this;
; 248  : 		return (_Tmp);
; 249  : 		}
; 250  : 
; 251  : 	_Myiter& operator--()
; 252  : 		{	// predecrement
; 253  :  #if _ITERATOR_DEBUG_LEVEL == 2
; 254  : 		if (this->_Getcont() == 0
; 255  : 			|| this->_Ptr == 0
; 256  : 			|| (this->_Ptr = _Mylist::_Prevnode(this->_Ptr))
; 257  : 				== ((_Mylist *)this->_Getcont())->_Myhead)
; 258  : 			{	// report error
; 259  : 			_DEBUG_ERROR("list iterator not decrementable");
; 260  : 			_SCL_SECURE_OUT_OF_RANGE;
; 261  : 			}
; 262  : 
; 263  :  #elif _ITERATOR_DEBUG_LEVEL == 1
; 264  : 		_SCL_SECURE_VALIDATE(this->_Getcont() != 0 && this->_Ptr != 0);
; 265  : 		this->_Ptr = _Mylist::_Prevnode(this->_Ptr);
; 266  : 		_SCL_SECURE_VALIDATE_RANGE(this->_Ptr !=
; 267  : 			((_Mylist *)this->_Getcont())->_Myhead);
; 268  : 
; 269  :  #else /* _ITERATOR_DEBUG_LEVEL */
; 270  : 		this->_Ptr = _Mylist::_Prevnode(this->_Ptr);
; 271  :  #endif /* _ITERATOR_DEBUG_LEVEL */
; 272  : 
; 273  : 		return (*this);
; 274  : 		}
; 275  : 
; 276  : 	_Myiter operator--(int)
; 277  : 		{	// postdecrement
; 278  : 		_Myiter _Tmp = *this;
; 279  : 		--*this;
; 280  : 		return (_Tmp);
; 281  : 		}
; 282  : 
; 283  : 	bool operator==(const _Myiter& _Right) const
; 284  : 		{	// test for iterator equality
; 285  :  #if _ITERATOR_DEBUG_LEVEL == 2
; 286  : 		if (this->_Getcont() != _Right._Getcont())
; 287  : 			{	// report error
; 288  : 			_DEBUG_ERROR("list iterators incompatible");
; 289  : 			_SCL_SECURE_INVALID_ARGUMENT;
; 290  : 			}
; 291  : 
; 292  :  #elif _ITERATOR_DEBUG_LEVEL == 1
; 293  : 		_SCL_SECURE_VALIDATE(this->_Getcont() == _Right._Getcont());
; 294  :  #endif /* _ITERATOR_DEBUG_LEVEL */
; 295  : 
; 296  : 		return (this->_Ptr == _Right._Ptr);
; 297  : 		}
; 298  : 
; 299  : 	bool operator!=(const _Myiter& _Right) const
; 300  : 		{	// test for iterator inequality
; 301  : 		return (!(*this == _Right));
; 302  : 		}
; 303  : 	};
; 304  : 
; 305  : template<class _Mylist> inline
; 306  : 	typename _List_const_iterator<_Mylist>::_Unchecked_type
; 307  : 		_Unchecked(_List_const_iterator<_Mylist> _Iter)
; 308  : 	{	// convert to unchecked
; 309  : 	return (_Iter._Unchecked());
; 310  : 	}
; 311  : 
; 312  : template<class _Mylist> inline
; 313  : 	_List_const_iterator<_Mylist>&
; 314  : 		_Rechecked(_List_const_iterator<_Mylist>& _Iter,
; 315  : 			typename _List_const_iterator<_Mylist>
; 316  : 				::_Unchecked_type _Right)
; 317  : 	{	// convert to checked
; 318  : 	return (_Iter._Rechecked(_Right));
; 319  : 	}
; 320  : 
; 321  : 	// TEMPLATE CLASS _List_iterator
; 322  : template<class _Mylist>
; 323  : 	class _List_iterator
; 324  : 		: public _List_const_iterator<_Mylist>
; 325  : 	{	// iterator for mutable list
; 326  : public:
; 327  : 	typedef _List_iterator<_Mylist> _Myiter;
; 328  : 	typedef _List_const_iterator<_Mylist> _Mybase;
; 329  : 	typedef bidirectional_iterator_tag iterator_category;
; 330  : 
; 331  : 	typedef typename _Mylist::_Nodeptr _Nodeptr;
; 332  : 	typedef typename _Mylist::value_type value_type;
; 333  : 	typedef typename _Mylist::difference_type difference_type;
; 334  : 	typedef typename _Mylist::pointer pointer;
; 335  : 	typedef typename _Mylist::reference reference;
; 336  : 
; 337  : 	_List_iterator()
; 338  : 		{	// construct with null node
; 339  : 		}
; 340  : 
; 341  : 	_List_iterator(_Nodeptr _Pnode, const _Mylist *_Plist)
; 342  : 		: _Mybase(_Pnode, _Plist)
; 343  : 		{	// construct with node pointer _Pnode
; 344  : 		}
; 345  : 
; 346  : 	typedef _List_unchecked_iterator<_Mylist> _Unchecked_type;
; 347  : 
; 348  : 	_Myiter& _Rechecked(_Unchecked_type _Right)
; 349  : 		{	// reset from unchecked iterator
; 350  : 		this->_Ptr = _Right._Ptr;
; 351  : 		return (*this);
; 352  : 		}
; 353  : 
; 354  : 	_Unchecked_type _Unchecked() const
; 355  : 		{	// make an unchecked iterator
; 356  : 		return (_Unchecked_type(this->_Ptr, (_Mylist *)this->_Getcont()));
; 357  : 		}
; 358  : 
; 359  : 	reference operator*() const
; 360  : 		{	// return designated value
; 361  : 		return ((reference)**(_Mybase *)this);
; 362  : 		}
; 363  : 
; 364  : 	pointer operator->() const
; 365  : 		{	// return pointer to class object
; 366  : 		return (_STD pointer_traits<pointer>::pointer_to(**this));
; 367  : 		}
; 368  : 
; 369  : 	_Myiter& operator++()
; 370  : 		{	// preincrement
; 371  : 		++(*(_Mybase *)this);
; 372  : 		return (*this);
; 373  : 		}
; 374  : 
; 375  : 	_Myiter operator++(int)
; 376  : 		{	// postincrement
; 377  : 		_Myiter _Tmp = *this;
; 378  : 		++*this;
; 379  : 		return (_Tmp);
; 380  : 		}
; 381  : 
; 382  : 	_Myiter& operator--()
; 383  : 		{	// predecrement
; 384  : 		--(*(_Mybase *)this);
; 385  : 		return (*this);
; 386  : 		}
; 387  : 
; 388  : 	_Myiter operator--(int)
; 389  : 		{	// postdecrement
; 390  : 		_Myiter _Tmp = *this;
; 391  : 		--*this;
; 392  : 		return (_Tmp);
; 393  : 		}
; 394  : 	};
; 395  : 
; 396  : template<class _Mylist> inline
; 397  : 	typename _List_iterator<_Mylist>::_Unchecked_type
; 398  : 		_Unchecked(_List_iterator<_Mylist> _Iter)
; 399  : 	{	// convert to unchecked
; 400  : 	return (_Iter._Unchecked());
; 401  : 	}
; 402  : 
; 403  : template<class _Mylist> inline
; 404  : 	_List_iterator<_Mylist>&
; 405  : 		_Rechecked(_List_iterator<_Mylist>& _Iter,
; 406  : 			typename _List_iterator<_Mylist>
; 407  : 				::_Unchecked_type _Right)
; 408  : 	{	// convert to checked
; 409  : 	return (_Iter._Rechecked(_Right));
; 410  : 	}
; 411  : 
; 412  : 		// list TYPE WRAPPERS
; 413  : template<class _Value_type,
; 414  : 	class _Size_type,
; 415  : 	class _Difference_type,
; 416  : 	class _Pointer,
; 417  : 	class _Const_pointer,
; 418  : 	class _Reference,
; 419  : 	class _Const_reference,
; 420  : 	class _Nodeptr_type>
; 421  : 	struct _List_iter_types
; 422  : 	{	// wraps types needed by iterators
; 423  : 	typedef _Value_type value_type;
; 424  : 	typedef _Size_type size_type;
; 425  : 	typedef _Difference_type difference_type;
; 426  : 	typedef _Pointer pointer;
; 427  : 	typedef _Const_pointer const_pointer;
; 428  : 	typedef _Reference reference;
; 429  : 	typedef _Const_reference const_reference;
; 430  : 	typedef _Nodeptr_type _Nodeptr;
; 431  : 	};
; 432  : 
; 433  : template<class _Value_type,
; 434  : 	class _Voidptr>
; 435  : 	struct _List_node
; 436  : 		{	// list node
; 437  : 		_Voidptr _Next;	// successor node, or first element if head
; 438  : 		_Voidptr _Prev;	// predecessor node, or last element if head
; 439  : 		_Value_type _Myval;	// the stored value, unused if head
; 440  : 
; 441  : 	private:
; 442  : 		_List_node& operator=(const _List_node&);
; 443  : 		};
; 444  : 
; 445  : template<class _Value_type>
; 446  : 	struct _List_node<_Value_type, void *>
; 447  : 		{	// list node
; 448  : 		typedef _List_node<_Value_type, void *> *_Nodeptr;
; 449  : 		_Nodeptr _Next;	// successor node, or first element if head
; 450  : 		_Nodeptr _Prev;	// predecessor node, or last element if head
; 451  : 		_Value_type _Myval;	// the stored value, unused if head
; 452  : 
; 453  : 	private:
; 454  : 		_List_node& operator=(const _List_node&);
; 455  : 		};
; 456  : 
; 457  : template<class _Ty>
; 458  : 	struct _List_simple_types
; 459  : 		: public _Simple_types<_Ty>
; 460  : 	{	// wraps types needed by iterators
; 461  : 	typedef _List_node<_Ty, void *> _Node;
; 462  : 	typedef _Node *_Nodeptr;
; 463  : 	};
; 464  : 
; 465  : template<class _Ty,
; 466  : 	class _Alloc0>
; 467  : 	struct _List_base_types
; 468  : 	{	// types needed for a container base
; 469  : 	typedef _Alloc0 _Alloc;
; 470  : 	typedef _List_base_types<_Ty, _Alloc> _Myt;
; 471  : 
; 472  : 	typedef _Wrap_alloc<_Alloc> _Alty0;
; 473  : 	typedef typename _Alty0::template rebind<_Ty>::other _Alty;
; 474  : 
; 475  : 
; 476  : 	typedef typename _Get_voidptr<_Alty, typename _Alty::pointer>::type
; 477  : 		_Voidptr;
; 478  : 	typedef _List_node<typename _Alty::value_type,
; 479  : 		_Voidptr> _Node;
; 480  : 
; 481  : 	typedef typename _Alty::template rebind<_Node>::other _Alnod_type;
; 482  : 	typedef typename _Alnod_type::pointer _Nodeptr;
; 483  : 	typedef _Nodeptr& _Nodepref;
; 484  : 
; 485  : 	typedef typename _If<_Is_simple_alloc<_Alty>::value,
; 486  : 		_List_simple_types<typename _Alty::value_type>,
; 487  : 		_List_iter_types<typename _Alty::value_type,
; 488  : 			typename _Alty::size_type,
; 489  : 			typename _Alty::difference_type,
; 490  : 			typename _Alty::pointer,
; 491  : 			typename _Alty::const_pointer,
; 492  : 			typename _Alty::reference,
; 493  : 			typename _Alty::const_reference,
; 494  : 			_Nodeptr> >::type
; 495  : 		_Val_types;
; 496  : 	};
; 497  : 
; 498  : 		// TEMPLATE CLASS _List_val
; 499  : template<class _Val_types>
; 500  : 	class _List_val
; 501  : 		: public _Container_base
; 502  : 	{	// base class for list to hold data
; 503  : public:
; 504  : 	typedef _List_val<_Val_types> _Myt;
; 505  : 
; 506  : 	typedef typename _Val_types::_Nodeptr _Nodeptr;
; 507  : 	typedef _Nodeptr& _Nodepref;
; 508  : 
; 509  : 	typedef typename _Val_types::value_type value_type;
; 510  : 	typedef typename _Val_types::size_type size_type;
; 511  : 	typedef typename _Val_types::difference_type difference_type;
; 512  : 	typedef typename _Val_types::pointer pointer;
; 513  : 	typedef typename _Val_types::const_pointer const_pointer;
; 514  : 	typedef typename _Val_types::reference reference;
; 515  : 	typedef typename _Val_types::const_reference const_reference;
; 516  : 
; 517  : 	typedef _List_const_iterator<_Myt> const_iterator;
; 518  : 	typedef _List_iterator<_Myt> iterator;
; 519  : 
; 520  : 	typedef _List_unchecked_const_iterator<_Myt> _Unchecked_const_iterator;
; 521  : 	typedef _List_unchecked_iterator<_Myt> _Unchecked_iterator;
; 522  : 
; 523  : 	_List_val()
; 524  : 		{	// initialize data
; 525  : 		this->_Myhead = 0;
; 526  : 		this->_Mysize = 0;
; 527  : 		}
; 528  : 
; 529  : 	static _Nodepref _Nextnode(_Nodeptr _Pnode)
; 530  : 		{	// return reference to successor pointer in node
; 531  : 		return ((_Nodepref)_Pnode->_Next);
; 532  : 		}
; 533  : 
; 534  : 	static _Nodepref _Prevnode(_Nodeptr _Pnode)
; 535  : 		{	// return reference to predecessor pointer in node
; 536  : 		return ((_Nodepref)_Pnode->_Prev);
; 537  : 		}
; 538  : 
; 539  : 	static reference _Myval(_Nodeptr _Pnode)
; 540  : 		{	// return reference to value in node
; 541  : 		return ((reference)_Pnode->_Myval);

  00000	8b 01		 mov	 eax, DWORD PTR [ecx]
  00002	83 c0 08	 add	 eax, 8

; 205  :  #if _ITERATOR_DEBUG_LEVEL == 2
; 206  : 		if (this->_Getcont() == 0
; 207  : 			|| this->_Ptr == 0
; 208  : 			|| this->_Ptr == ((_Mylist *)this->_Getcont())->_Myhead)
; 209  : 			{	// report error
; 210  : 			_DEBUG_ERROR("list iterator not dereferencable");
; 211  : 			_SCL_SECURE_OUT_OF_RANGE;
; 212  : 			}
; 213  : 
; 214  :  #elif _ITERATOR_DEBUG_LEVEL == 1
; 215  : 		_SCL_SECURE_VALIDATE(this->_Getcont() != 0 && this->_Ptr != 0);
; 216  : 		_SCL_SECURE_VALIDATE_RANGE(this->_Ptr !=
; 217  : 			((_Mylist *)this->_Getcont())->_Myhead);
; 218  :  #endif /* _ITERATOR_DEBUG_LEVEL */
; 219  : 
; 220  : 		return (_Mylist::_Myval(this->_Ptr));
; 221  : 		}

  00005	c3		 ret	 0
??D?$_List_const_iterator@V?$_List_val@U?$_List_simple_types@UILLUSION_TIME@@@std@@@std@@@std@@QBEABUILLUSION_TIME@@XZ ENDP ; std::_List_const_iterator<std::_List_val<std::_List_simple_types<ILLUSION_TIME> > >::operator*
_TEXT	ENDS
; Function compile flags: /Ogtp
; File c:\program files (x86)\microsoft visual studio 14.0\vc\include\list
;	COMDAT ??0?$_List_const_iterator@V?$_List_val@U?$_List_simple_types@UILLUSION_TIME@@@std@@@std@@@std@@QAE@PAU?$_List_node@UILLUSION_TIME@@PAX@1@PBV?$_List_val@U?$_List_simple_types@UILLUSION_TIME@@@std@@@1@@Z
_TEXT	SEGMENT
__Pnode$ = 8						; size = 4
__Plist$ = 12						; size = 4
??0?$_List_const_iterator@V?$_List_val@U?$_List_simple_types@UILLUSION_TIME@@@std@@@std@@@std@@QAE@PAU?$_List_node@UILLUSION_TIME@@PAX@1@PBV?$_List_val@U?$_List_simple_types@UILLUSION_TIME@@@std@@@1@@Z PROC ; std::_List_const_iterator<std::_List_val<std::_List_simple_types<ILLUSION_TIME> > >::_List_const_iterator<std::_List_val<std::_List_simple_types<ILLUSION_TIME> > >, COMDAT
; _this$ = ecx

; 187  : 		{	// construct with node pointer _Pnode

  00000	55		 push	 ebp
  00001	8b ec		 mov	 ebp, esp

; 43   : 		: _Ptr(_Pnode)

  00003	8b 45 08	 mov	 eax, DWORD PTR __Pnode$[ebp]
  00006	89 01		 mov	 DWORD PTR [ecx], eax

; 188  : 		}

  00008	8b c1		 mov	 eax, ecx
  0000a	5d		 pop	 ebp
  0000b	c2 08 00	 ret	 8
??0?$_List_const_iterator@V?$_List_val@U?$_List_simple_types@UILLUSION_TIME@@@std@@@std@@@std@@QAE@PAU?$_List_node@UILLUSION_TIME@@PAX@1@PBV?$_List_val@U?$_List_simple_types@UILLUSION_TIME@@@std@@@1@@Z ENDP ; std::_List_const_iterator<std::_List_val<std::_List_simple_types<ILLUSION_TIME> > >::_List_const_iterator<std::_List_val<std::_List_simple_types<ILLUSION_TIME> > >
_TEXT	ENDS
; Function compile flags: /Ogtp
; File c:\program files (x86)\microsoft visual studio 14.0\vc\include\list
;	COMDAT ??0?$_List_const_iterator@V?$_List_val@U?$_List_simple_types@UILLUSION_TIME@@@std@@@std@@@std@@QAE@XZ
_TEXT	SEGMENT
??0?$_List_const_iterator@V?$_List_val@U?$_List_simple_types@UILLUSION_TIME@@@std@@@std@@@std@@QAE@XZ PROC ; std::_List_const_iterator<std::_List_val<std::_List_simple_types<ILLUSION_TIME> > >::_List_const_iterator<std::_List_val<std::_List_simple_types<ILLUSION_TIME> > >, COMDAT
; _this$ = ecx

; 38   : 		: _Ptr(0)

  00000	c7 01 00 00 00
	00		 mov	 DWORD PTR [ecx], 0

; 183  : 		}

  00006	8b c1		 mov	 eax, ecx
  00008	c3		 ret	 0
??0?$_List_const_iterator@V?$_List_val@U?$_List_simple_types@UILLUSION_TIME@@@std@@@std@@@std@@QAE@XZ ENDP ; std::_List_const_iterator<std::_List_val<std::_List_simple_types<ILLUSION_TIME> > >::_List_const_iterator<std::_List_val<std::_List_simple_types<ILLUSION_TIME> > >
_TEXT	ENDS
; Function compile flags: /Ogtp
; File c:\program files (x86)\microsoft visual studio 14.0\vc\include\list
;	COMDAT ??0?$_List_unchecked_const_iterator@V?$_List_val@U?$_List_simple_types@UILLUSION_TIME@@@std@@@std@@U_Iterator_base0@2@@std@@QAE@PAU?$_List_node@UILLUSION_TIME@@PAX@1@PBV?$_List_val@U?$_List_simple_types@UILLUSION_TIME@@@std@@@1@@Z
_TEXT	SEGMENT
__Pnode$ = 8						; size = 4
__Plist$ = 12						; size = 4
??0?$_List_unchecked_const_iterator@V?$_List_val@U?$_List_simple_types@UILLUSION_TIME@@@std@@@std@@U_Iterator_base0@2@@std@@QAE@PAU?$_List_node@UILLUSION_TIME@@PAX@1@PBV?$_List_val@U?$_List_simple_types@UILLUSION_TIME@@@std@@@1@@Z PROC ; std::_List_unchecked_const_iterator<std::_List_val<std::_List_simple_types<ILLUSION_TIME> >,std::_Iterator_base0>::_List_unchecked_const_iterator<std::_List_val<std::_List_simple_types<ILLUSION_TIME> >,std::_Iterator_base0>, COMDAT
; _this$ = ecx

; 44   : 		{	// construct with node pointer _Pnode

  00000	55		 push	 ebp
  00001	8b ec		 mov	 ebp, esp

; 43   : 		: _Ptr(_Pnode)

  00003	8b 45 08	 mov	 eax, DWORD PTR __Pnode$[ebp]
  00006	89 01		 mov	 DWORD PTR [ecx], eax

; 45   : 		this->_Adopt(_Plist);
; 46   : 		}

  00008	8b c1		 mov	 eax, ecx
  0000a	5d		 pop	 ebp
  0000b	c2 08 00	 ret	 8
??0?$_List_unchecked_const_iterator@V?$_List_val@U?$_List_simple_types@UILLUSION_TIME@@@std@@@std@@U_Iterator_base0@2@@std@@QAE@PAU?$_List_node@UILLUSION_TIME@@PAX@1@PBV?$_List_val@U?$_List_simple_types@UILLUSION_TIME@@@std@@@1@@Z ENDP ; std::_List_unchecked_const_iterator<std::_List_val<std::_List_simple_types<ILLUSION_TIME> >,std::_Iterator_base0>::_List_unchecked_const_iterator<std::_List_val<std::_List_simple_types<ILLUSION_TIME> >,std::_Iterator_base0>
_TEXT	ENDS
; Function compile flags: /Ogtp
; File c:\program files (x86)\microsoft visual studio 14.0\vc\include\list
;	COMDAT ??0?$_List_unchecked_const_iterator@V?$_List_val@U?$_List_simple_types@UILLUSION_TIME@@@std@@@std@@U_Iterator_base0@2@@std@@QAE@XZ
_TEXT	SEGMENT
??0?$_List_unchecked_const_iterator@V?$_List_val@U?$_List_simple_types@UILLUSION_TIME@@@std@@@std@@U_Iterator_base0@2@@std@@QAE@XZ PROC ; std::_List_unchecked_const_iterator<std::_List_val<std::_List_simple_types<ILLUSION_TIME> >,std::_Iterator_base0>::_List_unchecked_const_iterator<std::_List_val<std::_List_simple_types<ILLUSION_TIME> >,std::_Iterator_base0>, COMDAT
; _this$ = ecx

; 38   : 		: _Ptr(0)

  00000	c7 01 00 00 00
	00		 mov	 DWORD PTR [ecx], 0

; 40   : 		}

  00006	8b c1		 mov	 eax, ecx
  00008	c3		 ret	 0
??0?$_List_unchecked_const_iterator@V?$_List_val@U?$_List_simple_types@UILLUSION_TIME@@@std@@@std@@U_Iterator_base0@2@@std@@QAE@XZ ENDP ; std::_List_unchecked_const_iterator<std::_List_val<std::_List_simple_types<ILLUSION_TIME> >,std::_Iterator_base0>::_List_unchecked_const_iterator<std::_List_val<std::_List_simple_types<ILLUSION_TIME> >,std::_Iterator_base0>
_TEXT	ENDS
; Function compile flags: /Ogtp
; File c:\program files (x86)\microsoft visual studio 14.0\vc\include\list
;	COMDAT ?size@?$list@UILLUSION_TIME@@V?$allocator@UILLUSION_TIME@@@std@@@std@@QBEIXZ
_TEXT	SEGMENT
?size@?$list@UILLUSION_TIME@@V?$allocator@UILLUSION_TIME@@@std@@@std@@QBEIXZ PROC ; std::list<ILLUSION_TIME,std::allocator<ILLUSION_TIME> >::size, COMDAT
; _this$ = ecx

; 1239 : 		return (this->_Mysize());

  00000	8b 41 04	 mov	 eax, DWORD PTR [ecx+4]

; 1240 : 		}

  00003	c3		 ret	 0
?size@?$list@UILLUSION_TIME@@V?$allocator@UILLUSION_TIME@@@std@@@std@@QBEIXZ ENDP ; std::list<ILLUSION_TIME,std::allocator<ILLUSION_TIME> >::size
_TEXT	ENDS
; Function compile flags: /Ogtp
; File c:\program files (x86)\microsoft visual studio 14.0\vc\include\list
;	COMDAT ?end@?$list@UILLUSION_TIME@@V?$allocator@UILLUSION_TIME@@@std@@@std@@QAE?AV?$_List_iterator@V?$_List_val@U?$_List_simple_types@UILLUSION_TIME@@@std@@@std@@@2@XZ
_TEXT	SEGMENT
___$ReturnUdt$ = 8					; size = 4
?end@?$list@UILLUSION_TIME@@V?$allocator@UILLUSION_TIME@@@std@@@std@@QAE?AV?$_List_iterator@V?$_List_val@U?$_List_simple_types@UILLUSION_TIME@@@std@@@std@@@2@XZ PROC ; std::list<ILLUSION_TIME,std::allocator<ILLUSION_TIME> >::end, COMDAT
; _this$ = ecx

; 1127 : 		{	// return iterator for end of mutable sequence

  00000	55		 push	 ebp
  00001	8b ec		 mov	 ebp, esp

; 43   : 		: _Ptr(_Pnode)

  00003	8b 45 08	 mov	 eax, DWORD PTR ___$ReturnUdt$[ebp]
  00006	8b 09		 mov	 ecx, DWORD PTR [ecx]
  00008	89 08		 mov	 DWORD PTR [eax], ecx

; 1128 : 		return (iterator(this->_Myhead(), &this->_Get_data()));
; 1129 : 		}

  0000a	5d		 pop	 ebp
  0000b	c2 04 00	 ret	 4
?end@?$list@UILLUSION_TIME@@V?$allocator@UILLUSION_TIME@@@std@@@std@@QAE?AV?$_List_iterator@V?$_List_val@U?$_List_simple_types@UILLUSION_TIME@@@std@@@std@@@2@XZ ENDP ; std::list<ILLUSION_TIME,std::allocator<ILLUSION_TIME> >::end
_TEXT	ENDS
; Function compile flags: /Ogtp
; File c:\program files (x86)\microsoft visual studio 14.0\vc\include\list
;	COMDAT ?begin@?$list@UILLUSION_TIME@@V?$allocator@UILLUSION_TIME@@@std@@@std@@QAE?AV?$_List_iterator@V?$_List_val@U?$_List_simple_types@UILLUSION_TIME@@@std@@@std@@@2@XZ
_TEXT	SEGMENT
___$ReturnUdt$ = 8					; size = 4
?begin@?$list@UILLUSION_TIME@@V?$allocator@UILLUSION_TIME@@@std@@@std@@QAE?AV?$_List_iterator@V?$_List_val@U?$_List_simple_types@UILLUSION_TIME@@@std@@@std@@@2@XZ PROC ; std::list<ILLUSION_TIME,std::allocator<ILLUSION_TIME> >::begin, COMDAT
; _this$ = ecx

; 1115 : 		{	// return iterator for beginning of mutable sequence

  00000	55		 push	 ebp
  00001	8b ec		 mov	 ebp, esp

; 44   : 		{	// construct with node pointer _Pnode
; 45   : 		this->_Adopt(_Plist);
; 46   : 		}
; 47   : 
; 48   : 	reference operator*() const
; 49   : 		{	// return designated value
; 50   : 		return (_Mylist::_Myval(_Ptr));
; 51   : 		}
; 52   : 
; 53   : 	pointer operator->() const
; 54   : 		{	// return pointer to class object
; 55   : 		return (_STD pointer_traits<pointer>::pointer_to(**this));
; 56   : 		}
; 57   : 
; 58   : 	_Myiter& operator++()
; 59   : 		{	// preincrement
; 60   : 		_Ptr = _Mylist::_Nextnode(_Ptr);
; 61   : 		return (*this);
; 62   : 		}
; 63   : 
; 64   : 	_Myiter operator++(int)
; 65   : 		{	// postincrement
; 66   : 		_Myiter _Tmp = *this;
; 67   : 		++*this;
; 68   : 		return (_Tmp);
; 69   : 		}
; 70   : 
; 71   : 	_Myiter& operator--()
; 72   : 		{	// predecrement
; 73   : 		_Ptr = _Mylist::_Prevnode(_Ptr);
; 74   : 		return (*this);
; 75   : 		}
; 76   : 
; 77   : 	_Myiter operator--(int)
; 78   : 		{	// postdecrement
; 79   : 		_Myiter _Tmp = *this;
; 80   : 		--*this;
; 81   : 		return (_Tmp);
; 82   : 		}
; 83   : 
; 84   : 	bool operator==(const _Myiter& _Right) const
; 85   : 		{	// test for iterator equality
; 86   : 		return (_Ptr == _Right._Ptr);
; 87   : 		}
; 88   : 
; 89   : 	bool operator!=(const _Myiter& _Right) const
; 90   : 		{	// test for iterator inequality
; 91   : 		return (!(*this == _Right));
; 92   : 		}
; 93   : 
; 94   : 	_Nodeptr _Mynode() const
; 95   : 		{	// return node pointer
; 96   : 		return (_Ptr);
; 97   : 		}
; 98   : 
; 99   : 	_Nodeptr _Ptr;	// pointer to node
; 100  : 	};
; 101  : 
; 102  : 	// TEMPLATE CLASS _List_unchecked_iterator
; 103  : template<class _Mylist>
; 104  : 	class _List_unchecked_iterator
; 105  : 		: public _List_unchecked_const_iterator<_Mylist>
; 106  : 	{	// unchecked iterator for mutable list
; 107  : public:
; 108  : 	typedef _List_unchecked_iterator<_Mylist> _Myiter;
; 109  : 	typedef _List_unchecked_const_iterator<_Mylist> _Mybase;
; 110  : 	typedef bidirectional_iterator_tag iterator_category;
; 111  : 
; 112  : 	typedef typename _Mylist::_Nodeptr _Nodeptr;
; 113  : 	typedef typename _Mylist::value_type value_type;
; 114  : 	typedef typename _Mylist::difference_type difference_type;
; 115  : 	typedef typename _Mylist::pointer pointer;
; 116  : 	typedef typename _Mylist::reference reference;
; 117  : 
; 118  : 	_List_unchecked_iterator()
; 119  : 		{	// construct with null node
; 120  : 		}
; 121  : 
; 122  : 	_List_unchecked_iterator(_Nodeptr _Pnode, const _Mylist *_Plist)
; 123  : 		: _Mybase(_Pnode, _Plist)
; 124  : 		{	// construct with node pointer _Pnode
; 125  : 		}
; 126  : 
; 127  : 	reference operator*() const
; 128  : 		{	// return designated value
; 129  : 		return ((reference)**(_Mybase *)this);
; 130  : 		}
; 131  : 
; 132  : 	pointer operator->() const
; 133  : 		{	// return pointer to class object
; 134  : 		return (_STD pointer_traits<pointer>::pointer_to(**this));
; 135  : 		}
; 136  : 
; 137  : 	_Myiter& operator++()
; 138  : 		{	// preincrement
; 139  : 		++(*(_Mybase *)this);
; 140  : 		return (*this);
; 141  : 		}
; 142  : 
; 143  : 	_Myiter operator++(int)
; 144  : 		{	// postincrement
; 145  : 		_Myiter _Tmp = *this;
; 146  : 		++*this;
; 147  : 		return (_Tmp);
; 148  : 		}
; 149  : 
; 150  : 	_Myiter& operator--()
; 151  : 		{	// predecrement
; 152  : 		--(*(_Mybase *)this);
; 153  : 		return (*this);
; 154  : 		}
; 155  : 
; 156  : 	_Myiter operator--(int)
; 157  : 		{	// postdecrement
; 158  : 		_Myiter _Tmp = *this;
; 159  : 		--*this;
; 160  : 		return (_Tmp);
; 161  : 		}
; 162  : 	};
; 163  : 
; 164  : 	// TEMPLATE CLASS _List_const_iterator
; 165  : template<class _Mylist>
; 166  : 	class _List_const_iterator
; 167  : 		: public _List_unchecked_const_iterator<_Mylist, _Iterator_base>
; 168  : 	{	// iterator for nonmutable list
; 169  : public:
; 170  : 	typedef _List_const_iterator<_Mylist> _Myiter;
; 171  : 	typedef _List_unchecked_const_iterator<_Mylist, _Iterator_base> _Mybase;
; 172  : 	typedef bidirectional_iterator_tag iterator_category;
; 173  : 
; 174  : 	typedef typename _Mylist::_Nodeptr _Nodeptr;
; 175  : 	typedef typename _Mylist::value_type value_type;
; 176  : 	typedef typename _Mylist::difference_type difference_type;
; 177  : 	typedef typename _Mylist::const_pointer pointer;
; 178  : 	typedef typename _Mylist::const_reference reference;
; 179  : 
; 180  : 	_List_const_iterator()
; 181  : 		: _Mybase()
; 182  : 		{	// construct with null node pointer
; 183  : 		}
; 184  : 
; 185  : 	_List_const_iterator(_Nodeptr _Pnode, const _Mylist *_Plist)
; 186  : 		: _Mybase(_Pnode, _Plist)
; 187  : 		{	// construct with node pointer _Pnode
; 188  : 		}
; 189  : 
; 190  : 	typedef _List_unchecked_const_iterator<_Mylist> _Unchecked_type;
; 191  : 
; 192  : 	_Myiter& _Rechecked(_Unchecked_type _Right)
; 193  : 		{	// reset from unchecked iterator
; 194  : 		this->_Ptr = _Right._Ptr;
; 195  : 		return (*this);
; 196  : 		}
; 197  : 
; 198  : 	_Unchecked_type _Unchecked() const
; 199  : 		{	// make an unchecked iterator
; 200  : 		return (_Unchecked_type(this->_Ptr, (_Mylist *)this->_Getcont()));
; 201  : 		}
; 202  : 
; 203  : 	reference operator*() const
; 204  : 		{	// return designated value
; 205  :  #if _ITERATOR_DEBUG_LEVEL == 2
; 206  : 		if (this->_Getcont() == 0
; 207  : 			|| this->_Ptr == 0
; 208  : 			|| this->_Ptr == ((_Mylist *)this->_Getcont())->_Myhead)
; 209  : 			{	// report error
; 210  : 			_DEBUG_ERROR("list iterator not dereferencable");
; 211  : 			_SCL_SECURE_OUT_OF_RANGE;
; 212  : 			}
; 213  : 
; 214  :  #elif _ITERATOR_DEBUG_LEVEL == 1
; 215  : 		_SCL_SECURE_VALIDATE(this->_Getcont() != 0 && this->_Ptr != 0);
; 216  : 		_SCL_SECURE_VALIDATE_RANGE(this->_Ptr !=
; 217  : 			((_Mylist *)this->_Getcont())->_Myhead);
; 218  :  #endif /* _ITERATOR_DEBUG_LEVEL */
; 219  : 
; 220  : 		return (_Mylist::_Myval(this->_Ptr));
; 221  : 		}
; 222  : 
; 223  : 	_Myiter& operator++()
; 224  : 		{	// preincrement
; 225  :  #if _ITERATOR_DEBUG_LEVEL == 2
; 226  : 		if (this->_Getcont() == 0
; 227  : 			|| this->_Ptr == 0
; 228  : 			|| this->_Ptr == ((_Mylist *)this->_Getcont())->_Myhead)
; 229  : 			{	// report error
; 230  : 			_DEBUG_ERROR("list iterator not incrementable");
; 231  : 			_SCL_SECURE_OUT_OF_RANGE;
; 232  : 			}
; 233  : 
; 234  :  #elif _ITERATOR_DEBUG_LEVEL == 1
; 235  : 		_SCL_SECURE_VALIDATE(this->_Getcont() != 0 && this->_Ptr != 0);
; 236  : 		_SCL_SECURE_VALIDATE_RANGE(this->_Ptr !=
; 237  : 			((_Mylist *)this->_Getcont())->_Myhead);
; 238  :  #endif /* _ITERATOR_DEBUG_LEVEL */
; 239  : 
; 240  : 		this->_Ptr = _Mylist::_Nextnode(this->_Ptr);
; 241  : 		return (*this);
; 242  : 		}
; 243  : 
; 244  : 	_Myiter operator++(int)
; 245  : 		{	// postincrement
; 246  : 		_Myiter _Tmp = *this;
; 247  : 		++*this;
; 248  : 		return (_Tmp);
; 249  : 		}
; 250  : 
; 251  : 	_Myiter& operator--()
; 252  : 		{	// predecrement
; 253  :  #if _ITERATOR_DEBUG_LEVEL == 2
; 254  : 		if (this->_Getcont() == 0
; 255  : 			|| this->_Ptr == 0
; 256  : 			|| (this->_Ptr = _Mylist::_Prevnode(this->_Ptr))
; 257  : 				== ((_Mylist *)this->_Getcont())->_Myhead)
; 258  : 			{	// report error
; 259  : 			_DEBUG_ERROR("list iterator not decrementable");
; 260  : 			_SCL_SECURE_OUT_OF_RANGE;
; 261  : 			}
; 262  : 
; 263  :  #elif _ITERATOR_DEBUG_LEVEL == 1
; 264  : 		_SCL_SECURE_VALIDATE(this->_Getcont() != 0 && this->_Ptr != 0);
; 265  : 		this->_Ptr = _Mylist::_Prevnode(this->_Ptr);
; 266  : 		_SCL_SECURE_VALIDATE_RANGE(this->_Ptr !=
; 267  : 			((_Mylist *)this->_Getcont())->_Myhead);
; 268  : 
; 269  :  #else /* _ITERATOR_DEBUG_LEVEL */
; 270  : 		this->_Ptr = _Mylist::_Prevnode(this->_Ptr);
; 271  :  #endif /* _ITERATOR_DEBUG_LEVEL */
; 272  : 
; 273  : 		return (*this);
; 274  : 		}
; 275  : 
; 276  : 	_Myiter operator--(int)
; 277  : 		{	// postdecrement
; 278  : 		_Myiter _Tmp = *this;
; 279  : 		--*this;
; 280  : 		return (_Tmp);
; 281  : 		}
; 282  : 
; 283  : 	bool operator==(const _Myiter& _Right) const
; 284  : 		{	// test for iterator equality
; 285  :  #if _ITERATOR_DEBUG_LEVEL == 2
; 286  : 		if (this->_Getcont() != _Right._Getcont())
; 287  : 			{	// report error
; 288  : 			_DEBUG_ERROR("list iterators incompatible");
; 289  : 			_SCL_SECURE_INVALID_ARGUMENT;
; 290  : 			}
; 291  : 
; 292  :  #elif _ITERATOR_DEBUG_LEVEL == 1
; 293  : 		_SCL_SECURE_VALIDATE(this->_Getcont() == _Right._Getcont());
; 294  :  #endif /* _ITERATOR_DEBUG_LEVEL */
; 295  : 
; 296  : 		return (this->_Ptr == _Right._Ptr);
; 297  : 		}
; 298  : 
; 299  : 	bool operator!=(const _Myiter& _Right) const
; 300  : 		{	// test for iterator inequality
; 301  : 		return (!(*this == _Right));
; 302  : 		}
; 303  : 	};
; 304  : 
; 305  : template<class _Mylist> inline
; 306  : 	typename _List_const_iterator<_Mylist>::_Unchecked_type
; 307  : 		_Unchecked(_List_const_iterator<_Mylist> _Iter)
; 308  : 	{	// convert to unchecked
; 309  : 	return (_Iter._Unchecked());
; 310  : 	}
; 311  : 
; 312  : template<class _Mylist> inline
; 313  : 	_List_const_iterator<_Mylist>&
; 314  : 		_Rechecked(_List_const_iterator<_Mylist>& _Iter,
; 315  : 			typename _List_const_iterator<_Mylist>
; 316  : 				::_Unchecked_type _Right)
; 317  : 	{	// convert to checked
; 318  : 	return (_Iter._Rechecked(_Right));
; 319  : 	}
; 320  : 
; 321  : 	// TEMPLATE CLASS _List_iterator
; 322  : template<class _Mylist>
; 323  : 	class _List_iterator
; 324  : 		: public _List_const_iterator<_Mylist>
; 325  : 	{	// iterator for mutable list
; 326  : public:
; 327  : 	typedef _List_iterator<_Mylist> _Myiter;
; 328  : 	typedef _List_const_iterator<_Mylist> _Mybase;
; 329  : 	typedef bidirectional_iterator_tag iterator_category;
; 330  : 
; 331  : 	typedef typename _Mylist::_Nodeptr _Nodeptr;
; 332  : 	typedef typename _Mylist::value_type value_type;
; 333  : 	typedef typename _Mylist::difference_type difference_type;
; 334  : 	typedef typename _Mylist::pointer pointer;
; 335  : 	typedef typename _Mylist::reference reference;
; 336  : 
; 337  : 	_List_iterator()
; 338  : 		{	// construct with null node
; 339  : 		}
; 340  : 
; 341  : 	_List_iterator(_Nodeptr _Pnode, const _Mylist *_Plist)
; 342  : 		: _Mybase(_Pnode, _Plist)
; 343  : 		{	// construct with node pointer _Pnode
; 344  : 		}
; 345  : 
; 346  : 	typedef _List_unchecked_iterator<_Mylist> _Unchecked_type;
; 347  : 
; 348  : 	_Myiter& _Rechecked(_Unchecked_type _Right)
; 349  : 		{	// reset from unchecked iterator
; 350  : 		this->_Ptr = _Right._Ptr;
; 351  : 		return (*this);
; 352  : 		}
; 353  : 
; 354  : 	_Unchecked_type _Unchecked() const
; 355  : 		{	// make an unchecked iterator
; 356  : 		return (_Unchecked_type(this->_Ptr, (_Mylist *)this->_Getcont()));
; 357  : 		}
; 358  : 
; 359  : 	reference operator*() const
; 360  : 		{	// return designated value
; 361  : 		return ((reference)**(_Mybase *)this);
; 362  : 		}
; 363  : 
; 364  : 	pointer operator->() const
; 365  : 		{	// return pointer to class object
; 366  : 		return (_STD pointer_traits<pointer>::pointer_to(**this));
; 367  : 		}
; 368  : 
; 369  : 	_Myiter& operator++()
; 370  : 		{	// preincrement
; 371  : 		++(*(_Mybase *)this);
; 372  : 		return (*this);
; 373  : 		}
; 374  : 
; 375  : 	_Myiter operator++(int)
; 376  : 		{	// postincrement
; 377  : 		_Myiter _Tmp = *this;
; 378  : 		++*this;
; 379  : 		return (_Tmp);
; 380  : 		}
; 381  : 
; 382  : 	_Myiter& operator--()
; 383  : 		{	// predecrement
; 384  : 		--(*(_Mybase *)this);
; 385  : 		return (*this);
; 386  : 		}
; 387  : 
; 388  : 	_Myiter operator--(int)
; 389  : 		{	// postdecrement
; 390  : 		_Myiter _Tmp = *this;
; 391  : 		--*this;
; 392  : 		return (_Tmp);
; 393  : 		}
; 394  : 	};
; 395  : 
; 396  : template<class _Mylist> inline
; 397  : 	typename _List_iterator<_Mylist>::_Unchecked_type
; 398  : 		_Unchecked(_List_iterator<_Mylist> _Iter)
; 399  : 	{	// convert to unchecked
; 400  : 	return (_Iter._Unchecked());
; 401  : 	}
; 402  : 
; 403  : template<class _Mylist> inline
; 404  : 	_List_iterator<_Mylist>&
; 405  : 		_Rechecked(_List_iterator<_Mylist>& _Iter,
; 406  : 			typename _List_iterator<_Mylist>
; 407  : 				::_Unchecked_type _Right)
; 408  : 	{	// convert to checked
; 409  : 	return (_Iter._Rechecked(_Right));
; 410  : 	}
; 411  : 
; 412  : 		// list TYPE WRAPPERS
; 413  : template<class _Value_type,
; 414  : 	class _Size_type,
; 415  : 	class _Difference_type,
; 416  : 	class _Pointer,
; 417  : 	class _Const_pointer,
; 418  : 	class _Reference,
; 419  : 	class _Const_reference,
; 420  : 	class _Nodeptr_type>
; 421  : 	struct _List_iter_types
; 422  : 	{	// wraps types needed by iterators
; 423  : 	typedef _Value_type value_type;
; 424  : 	typedef _Size_type size_type;
; 425  : 	typedef _Difference_type difference_type;
; 426  : 	typedef _Pointer pointer;
; 427  : 	typedef _Const_pointer const_pointer;
; 428  : 	typedef _Reference reference;
; 429  : 	typedef _Const_reference const_reference;
; 430  : 	typedef _Nodeptr_type _Nodeptr;
; 431  : 	};
; 432  : 
; 433  : template<class _Value_type,
; 434  : 	class _Voidptr>
; 435  : 	struct _List_node
; 436  : 		{	// list node
; 437  : 		_Voidptr _Next;	// successor node, or first element if head
; 438  : 		_Voidptr _Prev;	// predecessor node, or last element if head
; 439  : 		_Value_type _Myval;	// the stored value, unused if head
; 440  : 
; 441  : 	private:
; 442  : 		_List_node& operator=(const _List_node&);
; 443  : 		};
; 444  : 
; 445  : template<class _Value_type>
; 446  : 	struct _List_node<_Value_type, void *>
; 447  : 		{	// list node
; 448  : 		typedef _List_node<_Value_type, void *> *_Nodeptr;
; 449  : 		_Nodeptr _Next;	// successor node, or first element if head
; 450  : 		_Nodeptr _Prev;	// predecessor node, or last element if head
; 451  : 		_Value_type _Myval;	// the stored value, unused if head
; 452  : 
; 453  : 	private:
; 454  : 		_List_node& operator=(const _List_node&);
; 455  : 		};
; 456  : 
; 457  : template<class _Ty>
; 458  : 	struct _List_simple_types
; 459  : 		: public _Simple_types<_Ty>
; 460  : 	{	// wraps types needed by iterators
; 461  : 	typedef _List_node<_Ty, void *> _Node;
; 462  : 	typedef _Node *_Nodeptr;
; 463  : 	};
; 464  : 
; 465  : template<class _Ty,
; 466  : 	class _Alloc0>
; 467  : 	struct _List_base_types
; 468  : 	{	// types needed for a container base
; 469  : 	typedef _Alloc0 _Alloc;
; 470  : 	typedef _List_base_types<_Ty, _Alloc> _Myt;
; 471  : 
; 472  : 	typedef _Wrap_alloc<_Alloc> _Alty0;
; 473  : 	typedef typename _Alty0::template rebind<_Ty>::other _Alty;
; 474  : 
; 475  : 
; 476  : 	typedef typename _Get_voidptr<_Alty, typename _Alty::pointer>::type
; 477  : 		_Voidptr;
; 478  : 	typedef _List_node<typename _Alty::value_type,
; 479  : 		_Voidptr> _Node;
; 480  : 
; 481  : 	typedef typename _Alty::template rebind<_Node>::other _Alnod_type;
; 482  : 	typedef typename _Alnod_type::pointer _Nodeptr;
; 483  : 	typedef _Nodeptr& _Nodepref;
; 484  : 
; 485  : 	typedef typename _If<_Is_simple_alloc<_Alty>::value,
; 486  : 		_List_simple_types<typename _Alty::value_type>,
; 487  : 		_List_iter_types<typename _Alty::value_type,
; 488  : 			typename _Alty::size_type,
; 489  : 			typename _Alty::difference_type,
; 490  : 			typename _Alty::pointer,
; 491  : 			typename _Alty::const_pointer,
; 492  : 			typename _Alty::reference,
; 493  : 			typename _Alty::const_reference,
; 494  : 			_Nodeptr> >::type
; 495  : 		_Val_types;
; 496  : 	};
; 497  : 
; 498  : 		// TEMPLATE CLASS _List_val
; 499  : template<class _Val_types>
; 500  : 	class _List_val
; 501  : 		: public _Container_base
; 502  : 	{	// base class for list to hold data
; 503  : public:
; 504  : 	typedef _List_val<_Val_types> _Myt;
; 505  : 
; 506  : 	typedef typename _Val_types::_Nodeptr _Nodeptr;
; 507  : 	typedef _Nodeptr& _Nodepref;
; 508  : 
; 509  : 	typedef typename _Val_types::value_type value_type;
; 510  : 	typedef typename _Val_types::size_type size_type;
; 511  : 	typedef typename _Val_types::difference_type difference_type;
; 512  : 	typedef typename _Val_types::pointer pointer;
; 513  : 	typedef typename _Val_types::const_pointer const_pointer;
; 514  : 	typedef typename _Val_types::reference reference;
; 515  : 	typedef typename _Val_types::const_reference const_reference;
; 516  : 
; 517  : 	typedef _List_const_iterator<_Myt> const_iterator;
; 518  : 	typedef _List_iterator<_Myt> iterator;
; 519  : 
; 520  : 	typedef _List_unchecked_const_iterator<_Myt> _Unchecked_const_iterator;
; 521  : 	typedef _List_unchecked_iterator<_Myt> _Unchecked_iterator;
; 522  : 
; 523  : 	_List_val()
; 524  : 		{	// initialize data
; 525  : 		this->_Myhead = 0;
; 526  : 		this->_Mysize = 0;
; 527  : 		}
; 528  : 
; 529  : 	static _Nodepref _Nextnode(_Nodeptr _Pnode)
; 530  : 		{	// return reference to successor pointer in node
; 531  : 		return ((_Nodepref)_Pnode->_Next);

  00003	8b 01		 mov	 eax, DWORD PTR [ecx]

; 43   : 		: _Ptr(_Pnode)

  00005	8b 08		 mov	 ecx, DWORD PTR [eax]
  00007	8b 45 08	 mov	 eax, DWORD PTR ___$ReturnUdt$[ebp]
  0000a	89 08		 mov	 DWORD PTR [eax], ecx

; 1116 : 		return (iterator(this->_Nextnode(this->_Myhead()),
; 1117 : 			&this->_Get_data()));
; 1118 : 		}

  0000c	5d		 pop	 ebp
  0000d	c2 04 00	 ret	 4
?begin@?$list@UILLUSION_TIME@@V?$allocator@UILLUSION_TIME@@@std@@@std@@QAE?AV?$_List_iterator@V?$_List_val@U?$_List_simple_types@UILLUSION_TIME@@@std@@@std@@@2@XZ ENDP ; std::list<ILLUSION_TIME,std::allocator<ILLUSION_TIME> >::begin
_TEXT	ENDS
; Function compile flags: /Ogtp
; File c:\program files (x86)\microsoft visual studio 14.0\vc\include\xutility
;	COMDAT ?_Get_second@?$_Compressed_pair@U?$_Wrap_alloc@V?$allocator@U?$_List_node@UILLUSION_TIME@@PAX@std@@@std@@@std@@V?$_List_val@U?$_List_simple_types@UILLUSION_TIME@@@std@@@2@$00@std@@QBEABV?$_List_val@U?$_List_simple_types@UILLUSION_TIME@@@std@@@2@XZ
_TEXT	SEGMENT
?_Get_second@?$_Compressed_pair@U?$_Wrap_alloc@V?$allocator@U?$_List_node@UILLUSION_TIME@@PAX@std@@@std@@@std@@V?$_List_val@U?$_List_simple_types@UILLUSION_TIME@@@std@@@2@$00@std@@QBEABV?$_List_val@U?$_List_simple_types@UILLUSION_TIME@@@std@@@2@XZ PROC ; std::_Compressed_pair<std::_Wrap_alloc<std::allocator<std::_List_node<ILLUSION_TIME,void *> > >,std::_List_val<std::_List_simple_types<ILLUSION_TIME> >,1>::_Get_second, COMDAT
; _this$ = ecx

; 319  : 		return (_Myval2);

  00000	8b c1		 mov	 eax, ecx

; 320  : 		}

  00002	c3		 ret	 0
?_Get_second@?$_Compressed_pair@U?$_Wrap_alloc@V?$allocator@U?$_List_node@UILLUSION_TIME@@PAX@std@@@std@@@std@@V?$_List_val@U?$_List_simple_types@UILLUSION_TIME@@@std@@@2@$00@std@@QBEABV?$_List_val@U?$_List_simple_types@UILLUSION_TIME@@@std@@@2@XZ ENDP ; std::_Compressed_pair<std::_Wrap_alloc<std::allocator<std::_List_node<ILLUSION_TIME,void *> > >,std::_List_val<std::_List_simple_types<ILLUSION_TIME> >,1>::_Get_second
_TEXT	ENDS
; Function compile flags: /Ogtp
; File c:\program files (x86)\microsoft visual studio 14.0\vc\include\xutility
;	COMDAT ?_Get_second@?$_Compressed_pair@U?$_Wrap_alloc@V?$allocator@U?$_List_node@UILLUSION_TIME@@PAX@std@@@std@@@std@@V?$_List_val@U?$_List_simple_types@UILLUSION_TIME@@@std@@@2@$00@std@@QAEAAV?$_List_val@U?$_List_simple_types@UILLUSION_TIME@@@std@@@2@XZ
_TEXT	SEGMENT
?_Get_second@?$_Compressed_pair@U?$_Wrap_alloc@V?$allocator@U?$_List_node@UILLUSION_TIME@@PAX@std@@@std@@@std@@V?$_List_val@U?$_List_simple_types@UILLUSION_TIME@@@std@@@2@$00@std@@QAEAAV?$_List_val@U?$_List_simple_types@UILLUSION_TIME@@@std@@@2@XZ PROC ; std::_Compressed_pair<std::_Wrap_alloc<std::allocator<std::_List_node<ILLUSION_TIME,void *> > >,std::_List_val<std::_List_simple_types<ILLUSION_TIME> >,1>::_Get_second, COMDAT
; _this$ = ecx

; 314  : 		return (_Myval2);

  00000	8b c1		 mov	 eax, ecx

; 315  : 		}

  00002	c3		 ret	 0
?_Get_second@?$_Compressed_pair@U?$_Wrap_alloc@V?$allocator@U?$_List_node@UILLUSION_TIME@@PAX@std@@@std@@@std@@V?$_List_val@U?$_List_simple_types@UILLUSION_TIME@@@std@@@2@$00@std@@QAEAAV?$_List_val@U?$_List_simple_types@UILLUSION_TIME@@@std@@@2@XZ ENDP ; std::_Compressed_pair<std::_Wrap_alloc<std::allocator<std::_List_node<ILLUSION_TIME,void *> > >,std::_List_val<std::_List_simple_types<ILLUSION_TIME> >,1>::_Get_second
_TEXT	ENDS
; Function compile flags: /Ogtp
; File c:\program files (x86)\microsoft visual studio 14.0\vc\include\list
;	COMDAT ?_Myval@?$_List_val@U?$_List_simple_types@UILLUSION_TIME@@@std@@@std@@SAAAUILLUSION_TIME@@PAU?$_List_node@UILLUSION_TIME@@PAX@2@@Z
_TEXT	SEGMENT
__Pnode$ = 8						; size = 4
?_Myval@?$_List_val@U?$_List_simple_types@UILLUSION_TIME@@@std@@@std@@SAAAUILLUSION_TIME@@PAU?$_List_node@UILLUSION_TIME@@PAX@2@@Z PROC ; std::_List_val<std::_List_simple_types<ILLUSION_TIME> >::_Myval, COMDAT

; 540  : 		{	// return reference to value in node

  00000	55		 push	 ebp
  00001	8b ec		 mov	 ebp, esp

; 541  : 		return ((reference)_Pnode->_Myval);

  00003	8b 45 08	 mov	 eax, DWORD PTR __Pnode$[ebp]
  00006	83 c0 08	 add	 eax, 8

; 542  : 		}

  00009	5d		 pop	 ebp
  0000a	c3		 ret	 0
?_Myval@?$_List_val@U?$_List_simple_types@UILLUSION_TIME@@@std@@@std@@SAAAUILLUSION_TIME@@PAU?$_List_node@UILLUSION_TIME@@PAX@2@@Z ENDP ; std::_List_val<std::_List_simple_types<ILLUSION_TIME> >::_Myval
_TEXT	ENDS
; Function compile flags: /Ogtp
; File c:\program files (x86)\microsoft visual studio 14.0\vc\include\list
;	COMDAT ?_Nextnode@?$_List_val@U?$_List_simple_types@UILLUSION_TIME@@@std@@@std@@SAAAPAU?$_List_node@UILLUSION_TIME@@PAX@2@PAU32@@Z
_TEXT	SEGMENT
__Pnode$ = 8						; size = 4
?_Nextnode@?$_List_val@U?$_List_simple_types@UILLUSION_TIME@@@std@@@std@@SAAAPAU?$_List_node@UILLUSION_TIME@@PAX@2@PAU32@@Z PROC ; std::_List_val<std::_List_simple_types<ILLUSION_TIME> >::_Nextnode, COMDAT

; 530  : 		{	// return reference to successor pointer in node

  00000	55		 push	 ebp
  00001	8b ec		 mov	 ebp, esp

; 531  : 		return ((_Nodepref)_Pnode->_Next);

  00003	8b 45 08	 mov	 eax, DWORD PTR __Pnode$[ebp]

; 532  : 		}

  00006	5d		 pop	 ebp
  00007	c3		 ret	 0
?_Nextnode@?$_List_val@U?$_List_simple_types@UILLUSION_TIME@@@std@@@std@@SAAAPAU?$_List_node@UILLUSION_TIME@@PAX@2@PAU32@@Z ENDP ; std::_List_val<std::_List_simple_types<ILLUSION_TIME> >::_Nextnode
_TEXT	ENDS
; Function compile flags: /Ogtp
; File c:\program files (x86)\microsoft visual studio 14.0\vc\include\list
;	COMDAT ?_Mysize@?$_List_alloc@U?$_List_base_types@UILLUSION_TIME@@V?$allocator@UILLUSION_TIME@@@std@@@std@@@std@@QBEABIXZ
_TEXT	SEGMENT
?_Mysize@?$_List_alloc@U?$_List_base_types@UILLUSION_TIME@@V?$allocator@UILLUSION_TIME@@@std@@@std@@@std@@QBEABIXZ PROC ; std::_List_alloc<std::_List_base_types<ILLUSION_TIME,std::allocator<ILLUSION_TIME> > >::_Mysize, COMDAT
; _this$ = ecx

; 797  : 		return (_Get_data()._Mysize);

  00000	8d 41 04	 lea	 eax, DWORD PTR [ecx+4]

; 798  : 		}

  00003	c3		 ret	 0
?_Mysize@?$_List_alloc@U?$_List_base_types@UILLUSION_TIME@@V?$allocator@UILLUSION_TIME@@@std@@@std@@@std@@QBEABIXZ ENDP ; std::_List_alloc<std::_List_base_types<ILLUSION_TIME,std::allocator<ILLUSION_TIME> > >::_Mysize
_TEXT	ENDS
; Function compile flags: /Ogtp
; File c:\program files (x86)\microsoft visual studio 14.0\vc\include\list
;	COMDAT ?_Myhead@?$_List_alloc@U?$_List_base_types@UILLUSION_TIME@@V?$allocator@UILLUSION_TIME@@@std@@@std@@@std@@QAEAAPAU?$_List_node@UILLUSION_TIME@@PAX@2@XZ
_TEXT	SEGMENT
?_Myhead@?$_List_alloc@U?$_List_base_types@UILLUSION_TIME@@V?$allocator@UILLUSION_TIME@@@std@@@std@@@std@@QAEAAPAU?$_List_node@UILLUSION_TIME@@PAX@2@XZ PROC ; std::_List_alloc<std::_List_base_types<ILLUSION_TIME,std::allocator<ILLUSION_TIME> > >::_Myhead, COMDAT
; _this$ = ecx

; 782  : 		return (_Get_data()._Myhead);

  00000	8b c1		 mov	 eax, ecx

; 783  : 		}

  00002	c3		 ret	 0
?_Myhead@?$_List_alloc@U?$_List_base_types@UILLUSION_TIME@@V?$allocator@UILLUSION_TIME@@@std@@@std@@@std@@QAEAAPAU?$_List_node@UILLUSION_TIME@@PAX@2@XZ ENDP ; std::_List_alloc<std::_List_base_types<ILLUSION_TIME,std::allocator<ILLUSION_TIME> > >::_Myhead
_TEXT	ENDS
; Function compile flags: /Ogtp
; File c:\program files (x86)\microsoft visual studio 14.0\vc\include\list
;	COMDAT ?_Get_data@?$_List_alloc@U?$_List_base_types@UILLUSION_TIME@@V?$allocator@UILLUSION_TIME@@@std@@@std@@@std@@QBEABV?$_List_val@U?$_List_simple_types@UILLUSION_TIME@@@std@@@2@XZ
_TEXT	SEGMENT
?_Get_data@?$_List_alloc@U?$_List_base_types@UILLUSION_TIME@@V?$allocator@UILLUSION_TIME@@@std@@@std@@@std@@QBEABV?$_List_val@U?$_List_simple_types@UILLUSION_TIME@@@std@@@2@XZ PROC ; std::_List_alloc<std::_List_base_types<ILLUSION_TIME,std::allocator<ILLUSION_TIME> > >::_Get_data, COMDAT
; _this$ = ecx

; 777  : 		return (_Mypair._Get_second());

  00000	8b c1		 mov	 eax, ecx

; 778  : 		}

  00002	c3		 ret	 0
?_Get_data@?$_List_alloc@U?$_List_base_types@UILLUSION_TIME@@V?$allocator@UILLUSION_TIME@@@std@@@std@@@std@@QBEABV?$_List_val@U?$_List_simple_types@UILLUSION_TIME@@@std@@@2@XZ ENDP ; std::_List_alloc<std::_List_base_types<ILLUSION_TIME,std::allocator<ILLUSION_TIME> > >::_Get_data
_TEXT	ENDS
; Function compile flags: /Ogtp
; File c:\program files (x86)\microsoft visual studio 14.0\vc\include\list
;	COMDAT ?_Get_data@?$_List_alloc@U?$_List_base_types@UILLUSION_TIME@@V?$allocator@UILLUSION_TIME@@@std@@@std@@@std@@QAEAAV?$_List_val@U?$_List_simple_types@UILLUSION_TIME@@@std@@@2@XZ
_TEXT	SEGMENT
?_Get_data@?$_List_alloc@U?$_List_base_types@UILLUSION_TIME@@V?$allocator@UILLUSION_TIME@@@std@@@std@@@std@@QAEAAV?$_List_val@U?$_List_simple_types@UILLUSION_TIME@@@std@@@2@XZ PROC ; std::_List_alloc<std::_List_base_types<ILLUSION_TIME,std::allocator<ILLUSION_TIME> > >::_Get_data, COMDAT
; _this$ = ecx

; 772  : 		return (_Mypair._Get_second());

  00000	8b c1		 mov	 eax, ecx

; 773  : 		}

  00002	c3		 ret	 0
?_Get_data@?$_List_alloc@U?$_List_base_types@UILLUSION_TIME@@V?$allocator@UILLUSION_TIME@@@std@@@std@@@std@@QAEAAV?$_List_val@U?$_List_simple_types@UILLUSION_TIME@@@std@@@2@XZ ENDP ; std::_List_alloc<std::_List_base_types<ILLUSION_TIME,std::allocator<ILLUSION_TIME> > >::_Get_data
_TEXT	ENDS
; Function compile flags: /Ogtp
; File c:\program files (x86)\microsoft visual studio 14.0\vc\include\list
;	COMDAT ?_Nextnode@?$_List_alloc@U?$_List_base_types@UILLUSION_TIME@@V?$allocator@UILLUSION_TIME@@@std@@@std@@@std@@SAAAPAU?$_List_node@UILLUSION_TIME@@PAX@2@PAU32@@Z
_TEXT	SEGMENT
__Pnode$ = 8						; size = 4
?_Nextnode@?$_List_alloc@U?$_List_base_types@UILLUSION_TIME@@V?$allocator@UILLUSION_TIME@@@std@@@std@@@std@@SAAAPAU?$_List_node@UILLUSION_TIME@@PAX@2@PAU32@@Z PROC ; std::_List_alloc<std::_List_base_types<ILLUSION_TIME,std::allocator<ILLUSION_TIME> > >::_Nextnode, COMDAT

; 580  : 		{	// return reference to successor pointer in node

  00000	55		 push	 ebp
  00001	8b ec		 mov	 ebp, esp

; 581  : 		return (_List_val<_Val_types>::_Nextnode(_Pnode));

  00003	8b 45 08	 mov	 eax, DWORD PTR __Pnode$[ebp]

; 582  : 		}

  00006	5d		 pop	 ebp
  00007	c3		 ret	 0
?_Nextnode@?$_List_alloc@U?$_List_base_types@UILLUSION_TIME@@V?$allocator@UILLUSION_TIME@@@std@@@std@@@std@@SAAAPAU?$_List_node@UILLUSION_TIME@@PAX@2@PAU32@@Z ENDP ; std::_List_alloc<std::_List_base_types<ILLUSION_TIME,std::allocator<ILLUSION_TIME> > >::_Nextnode
_TEXT	ENDS
; Function compile flags: /Ogtp
; File c:\users\michel\desktop\source\gameserver\source\illusiontempleprocess.cpp
;	COMDAT ?GetSkillPoint@CIllusionTempleProcess@@QAEEH@Z
_TEXT	SEGMENT
_nIndex$ = 8						; size = 4
?GetSkillPoint@CIllusionTempleProcess@@QAEEH@Z PROC	; CIllusionTempleProcess::GetSkillPoint, COMDAT
; _this$ = ecx

; 2674 : {

  00000	55		 push	 ebp
  00001	8b ec		 mov	 ebp, esp

; 2675 : 	if( !OBJMAX_RANGE(nIndex) )

  00003	8b 55 08	 mov	 edx, DWORD PTR _nIndex$[ebp]
  00006	56		 push	 esi
  00007	8b f1		 mov	 esi, ecx
  00009	85 d2		 test	 edx, edx
  0000b	78 41		 js	 SHORT $LN7@GetSkillPo
  0000d	33 c0		 xor	 eax, eax
  0000f	81 fa eb 2c 00
	00		 cmp	 edx, 11499		; 00002cebH
  00015	0f 9e c0	 setle	 al
  00018	85 c0		 test	 eax, eax
  0001a	74 32		 je	 SHORT $LN7@GetSkillPo

; 2679 : 	}
; 2680 : 
; 2681 : 	if( gObj[nIndex].iTempleIndex != -1 &&
; 2682 : 		this->m_PlayerData[gObj[nIndex].iTempleIndex].m_Index == nIndex &&

  0001c	69 ca 40 27 00
	00		 imul	 ecx, edx, 10048
  00022	03 0d 00 00 00
	00		 add	 ecx, DWORD PTR ?gObj@@3PAUOBJECTSTRUCT@@A ; gObj
  00028	8b 81 78 24 00
	00		 mov	 eax, DWORD PTR [ecx+9336]
  0002e	83 f8 ff	 cmp	 eax, -1
  00031	74 33		 je	 SHORT $LN3@GetSkillPo
  00033	8d 04 40	 lea	 eax, DWORD PTR [eax+eax*2]
  00036	c1 e0 04	 shl	 eax, 4
  00039	39 54 30 20	 cmp	 DWORD PTR [eax+esi+32], edx
  0003d	75 27		 jne	 SHORT $LN3@GetSkillPo
  0003f	83 79 04 02	 cmp	 DWORD PTR [ecx+4], 2
  00043	7e 21		 jle	 SHORT $LN3@GetSkillPo

; 2683 : 		gObj[nIndex].Connected > PLAYER_LOGGED )
; 2684 : 	{
; 2685 : 		return this->m_PlayerData[gObj[nIndex].iTempleIndex].m_SkillPts;

  00045	8a 44 30 25	 mov	 al, BYTE PTR [eax+esi+37]
  00049	5e		 pop	 esi

; 2686 : 	}
; 2687 : 	return 0;
; 2688 : }

  0004a	5d		 pop	 ebp
  0004b	c2 04 00	 ret	 4
$LN7@GetSkillPo:

; 2676 : 	{
; 2677 : 		LogAdd("return %s %d",__FILE__,__LINE__);

  0004e	68 75 0a 00 00	 push	 2677			; 00000a75H
  00053	68 00 00 00 00	 push	 OFFSET ??_C@_0BK@DMGNFDO@IllusionTempleProcess?4cpp?$AA@
  00058	68 00 00 00 00	 push	 OFFSET ??_C@_0N@GGPGOPEN@return?5?$CFs?5?$CFd?$AA@
  0005d	ff 15 00 00 00
	00		 call	 DWORD PTR ?LogAdd@@3P6AXPADZZA ; LogAdd
  00063	83 c4 0c	 add	 esp, 12			; 0000000cH
$LN3@GetSkillPo:

; 2678 : 		return 0;

  00066	32 c0		 xor	 al, al
  00068	5e		 pop	 esi

; 2686 : 	}
; 2687 : 	return 0;
; 2688 : }

  00069	5d		 pop	 ebp
  0006a	c2 04 00	 ret	 4
?GetSkillPoint@CIllusionTempleProcess@@QAEEH@Z ENDP	; CIllusionTempleProcess::GetSkillPoint
_TEXT	ENDS
; Function compile flags: /Ogtp
; File c:\users\michel\desktop\source\gameserver\source\illusiontempleprocess.cpp
;	COMDAT ?ChangeTempleUserInformation@CIllusionTempleProcess@@QAEHHHH@Z
_TEXT	SEGMENT
_iUserIndex$ = 8					; size = 4
_iIllusionTempleIndex$ = 12				; size = 4
_iCurIndex$ = 16					; size = 4
?ChangeTempleUserInformation@CIllusionTempleProcess@@QAEHHHH@Z PROC ; CIllusionTempleProcess::ChangeTempleUserInformation, COMDAT
; _this$ = ecx

; 2659 : {

  00000	55		 push	 ebp
  00001	8b ec		 mov	 ebp, esp
  00003	56		 push	 esi
  00004	8b f1		 mov	 esi, ecx
  00006	57		 push	 edi

; 2660 : 	EnterCriticalSection(&this->m_CritSec);

  00007	8d 7e 08	 lea	 edi, DWORD PTR [esi+8]
  0000a	57		 push	 edi
  0000b	ff 15 00 00 00
	00		 call	 DWORD PTR __imp__EnterCriticalSection@4

; 2661 : 
; 2662 : 	if( this->m_PlayerData[iIllusionTempleIndex].m_Index == iUserIndex )

  00011	8b 45 0c	 mov	 eax, DWORD PTR _iIllusionTempleIndex$[ebp]

; 2665 : 		LeaveCriticalSection(&this->m_CritSec);

  00014	57		 push	 edi
  00015	8d 0c 40	 lea	 ecx, DWORD PTR [eax+eax*2]
  00018	03 c9		 add	 ecx, ecx
  0001a	8b 44 ce 20	 mov	 eax, DWORD PTR [esi+ecx*8+32]
  0001e	3b 45 08	 cmp	 eax, DWORD PTR _iUserIndex$[ebp]
  00021	75 18		 jne	 SHORT $LN2@ChangeTemp

; 2663 : 	{
; 2664 : 		this->m_PlayerData[iIllusionTempleIndex].m_Index = iCurIndex;

  00023	8b 45 10	 mov	 eax, DWORD PTR _iCurIndex$[ebp]
  00026	89 44 ce 20	 mov	 DWORD PTR [esi+ecx*8+32], eax

; 2665 : 		LeaveCriticalSection(&this->m_CritSec);

  0002a	ff 15 00 00 00
	00		 call	 DWORD PTR __imp__LeaveCriticalSection@4
  00030	5f		 pop	 edi

; 2666 : 		return true;

  00031	b8 01 00 00 00	 mov	 eax, 1
  00036	5e		 pop	 esi

; 2671 : }

  00037	5d		 pop	 ebp
  00038	c2 0c 00	 ret	 12			; 0000000cH
$LN2@ChangeTemp:

; 2667 : 	}
; 2668 : 
; 2669 : 	LeaveCriticalSection(&this->m_CritSec);

  0003b	ff 15 00 00 00
	00		 call	 DWORD PTR __imp__LeaveCriticalSection@4
  00041	5f		 pop	 edi

; 2670 : 	return false;

  00042	33 c0		 xor	 eax, eax
  00044	5e		 pop	 esi

; 2671 : }

  00045	5d		 pop	 ebp
  00046	c2 0c 00	 ret	 12			; 0000000cH
?ChangeTempleUserInformation@CIllusionTempleProcess@@QAEHHHH@Z ENDP ; CIllusionTempleProcess::ChangeTempleUserInformation
_TEXT	ENDS
; Function compile flags: /Ogtp
; File c:\users\michel\desktop\source\gameserver\source\illusiontempleprocess.cpp
;	COMDAT ?GetRelicPos@CIllusionTempleProcess@@QAEHH@Z
_TEXT	SEGMENT
_aIndex$ = 8						; size = 4
?GetRelicPos@CIllusionTempleProcess@@QAEHH@Z PROC	; CIllusionTempleProcess::GetRelicPos, COMDAT
; _this$ = ecx

; 1132 : {

  00000	55		 push	 ebp
  00001	8b ec		 mov	 ebp, esp

; 1133 : 	if( OBJMAX_RANGE(aIndex) == FALSE )

  00003	8b 4d 08	 mov	 ecx, DWORD PTR _aIndex$[ebp]
  00006	85 c9		 test	 ecx, ecx
  00008	78 74		 js	 SHORT $LN15@GetRelicPo
  0000a	33 c0		 xor	 eax, eax
  0000c	81 f9 eb 2c 00
	00		 cmp	 ecx, 11499		; 00002cebH
  00012	0f 9e c0	 setle	 al
  00015	85 c0		 test	 eax, eax
  00017	74 65		 je	 SHORT $LN15@GetRelicPo

; 1137 : 	}
; 1138 : 
; 1139 : 	for(int i = 0; i < INVENTORY_SIZE; i++)

  00019	53		 push	 ebx
  0001a	56		 push	 esi
  0001b	57		 push	 edi
  0001c	69 d9 40 27 00
	00		 imul	 ebx, ecx, 10048
  00022	33 ff		 xor	 edi, edi
  00024	8b 0d 00 00 00
	00		 mov	 ecx, DWORD PTR ?gObj@@3PAUOBJECTSTRUCT@@A ; gObj
  0002a	33 f6		 xor	 esi, esi
  0002c	0f 1f 40 00	 npad	 4
$LL4@GetRelicPo:

; 1140 : 	{
; 1141 : 		if( gObj[aIndex].pInventory[i].IsItem() == TRUE &&

  00030	8b 8c 0b c0 11
	00 00		 mov	 ecx, DWORD PTR [ebx+ecx+4544]
  00037	03 ce		 add	 ecx, esi
  00039	e8 00 00 00 00	 call	 ?IsItem@CItem@@QAEHXZ	; CItem::IsItem
  0003e	8b 0d 00 00 00
	00		 mov	 ecx, DWORD PTR ?gObj@@3PAUOBJECTSTRUCT@@A ; gObj
  00044	83 f8 01	 cmp	 eax, 1
  00047	75 13		 jne	 SHORT $LN2@GetRelicPo
  00049	8b 84 0b c0 11
	00 00		 mov	 eax, DWORD PTR [ebx+ecx+4544]
  00050	ba 40 1c 00 00	 mov	 edx, 7232		; 00001c40H
  00055	66 39 54 30 06	 cmp	 WORD PTR [eax+esi+6], dx
  0005a	74 19		 je	 SHORT $LN11@GetRelicPo
$LN2@GetRelicPo:

; 1137 : 	}
; 1138 : 
; 1139 : 	for(int i = 0; i < INVENTORY_SIZE; i++)

  0005c	81 c6 d4 00 00
	00		 add	 esi, 212		; 000000d4H
  00062	47		 inc	 edi
  00063	81 fe 44 c4 00
	00		 cmp	 esi, 50244		; 0000c444H
  00069	7c c5		 jl	 SHORT $LL4@GetRelicPo

; 1145 : 		}
; 1146 : 	}
; 1147 : return -1;

  0006b	5f		 pop	 edi
  0006c	5e		 pop	 esi
  0006d	83 c8 ff	 or	 eax, -1
  00070	5b		 pop	 ebx

; 1148 : }

  00071	5d		 pop	 ebp
  00072	c2 04 00	 ret	 4
$LN11@GetRelicPo:

; 1142 : 			gObj[aIndex].pInventory[i].m_Type == ITEMGET(14,64) )
; 1143 : 		{
; 1144 : 			return i;

  00075	8b c7		 mov	 eax, edi
  00077	5f		 pop	 edi
  00078	5e		 pop	 esi
  00079	5b		 pop	 ebx

; 1148 : }

  0007a	5d		 pop	 ebp
  0007b	c2 04 00	 ret	 4
$LN15@GetRelicPo:

; 1134 : 	{
; 1135 : 		LogAdd("return %s %d",__FILE__,__LINE__);

  0007e	68 6f 04 00 00	 push	 1135			; 0000046fH
  00083	68 00 00 00 00	 push	 OFFSET ??_C@_0BK@DMGNFDO@IllusionTempleProcess?4cpp?$AA@
  00088	68 00 00 00 00	 push	 OFFSET ??_C@_0N@GGPGOPEN@return?5?$CFs?5?$CFd?$AA@
  0008d	ff 15 00 00 00
	00		 call	 DWORD PTR ?LogAdd@@3P6AXPADZZA ; LogAdd
  00093	83 c4 0c	 add	 esp, 12			; 0000000cH

; 1136 : 		return -1;

  00096	83 c8 ff	 or	 eax, -1

; 1148 : }

  00099	5d		 pop	 ebp
  0009a	c2 04 00	 ret	 4
?GetRelicPos@CIllusionTempleProcess@@QAEHH@Z ENDP	; CIllusionTempleProcess::GetRelicPos
_TEXT	ENDS
; Function compile flags: /Ogtp
; File c:\users\michel\desktop\source\gameserver\source\illusiontempleprocess.cpp
;	COMDAT ?AddSuccessRelic@CIllusionTempleProcess@@QAEXH@Z
_TEXT	SEGMENT
_iIndex$ = 8						; size = 4
?AddSuccessRelic@CIllusionTempleProcess@@QAEXH@Z PROC	; CIllusionTempleProcess::AddSuccessRelic, COMDAT
; _this$ = ecx

; 1818 : {

  00000	55		 push	 ebp
  00001	8b ec		 mov	 ebp, esp

; 1819 : 	if( OBJMAX_RANGE(iIndex) == FALSE )

  00003	8b 55 08	 mov	 edx, DWORD PTR _iIndex$[ebp]
  00006	57		 push	 edi
  00007	8b f9		 mov	 edi, ecx
  00009	85 d2		 test	 edx, edx
  0000b	78 4e		 js	 SHORT $LN9@AddSuccess
  0000d	33 c0		 xor	 eax, eax
  0000f	81 fa eb 2c 00
	00		 cmp	 edx, 11499		; 00002cebH
  00015	0f 9e c0	 setle	 al
  00018	85 c0		 test	 eax, eax
  0001a	74 3f		 je	 SHORT $LN9@AddSuccess

; 1822 : 		return;
; 1823 : 	}
; 1824 : 
; 1825 : 	if( gObj[iIndex].iTempleIndex != -1 &&

  0001c	56		 push	 esi
  0001d	69 f2 40 27 00
	00		 imul	 esi, edx, 10048
  00023	03 35 00 00 00
	00		 add	 esi, DWORD PTR ?gObj@@3PAUOBJECTSTRUCT@@A ; gObj
  00029	8b 86 78 24 00
	00		 mov	 eax, DWORD PTR [esi+9336]
  0002f	83 f8 ff	 cmp	 eax, -1
  00032	74 21		 je	 SHORT $LN10@AddSuccess
  00034	8d 04 40	 lea	 eax, DWORD PTR [eax+eax*2]
  00037	c1 e0 04	 shl	 eax, 4
  0003a	39 54 38 20	 cmp	 DWORD PTR [eax+edi+32], edx
  0003e	8d 0c 38	 lea	 ecx, DWORD PTR [eax+edi]
  00041	74 06		 je	 SHORT $LN4@AddSuccess
  00043	83 7e 04 02	 cmp	 DWORD PTR [esi+4], 2
  00047	7e 0c		 jle	 SHORT $LN10@AddSuccess
$LN4@AddSuccess:

; 1826 : 		( m_PlayerData[gObj[iIndex].iTempleIndex].m_Index == iIndex || gObj[iIndex].Connected > PLAYER_LOGGED ) )
; 1827 : 	{
; 1828 : 		if( m_PlayerData[gObj[iIndex].iTempleIndex].m_RelicSuccess >= 255 )

  00049	8a 41 32	 mov	 al, BYTE PTR [ecx+50]
  0004c	3c ff		 cmp	 al, 255			; 000000ffH
  0004e	73 05		 jae	 SHORT $LN10@AddSuccess

; 1829 : 		{
; 1830 : 			return;
; 1831 : 		}
; 1832 : 
; 1833 : 		m_PlayerData[gObj[iIndex].iTempleIndex].m_RelicSuccess++;

  00050	fe c0		 inc	 al
  00052	88 41 32	 mov	 BYTE PTR [ecx+50], al
$LN10@AddSuccess:
  00055	5e		 pop	 esi
  00056	5f		 pop	 edi

; 1834 : 	}
; 1835 : }

  00057	5d		 pop	 ebp
  00058	c2 04 00	 ret	 4
$LN9@AddSuccess:

; 1820 : 	{
; 1821 : 		LogAdd("return %s %d",__FILE__,__LINE__);

  0005b	68 1d 07 00 00	 push	 1821			; 0000071dH
  00060	68 00 00 00 00	 push	 OFFSET ??_C@_0BK@DMGNFDO@IllusionTempleProcess?4cpp?$AA@
  00065	68 00 00 00 00	 push	 OFFSET ??_C@_0N@GGPGOPEN@return?5?$CFs?5?$CFd?$AA@
  0006a	ff 15 00 00 00
	00		 call	 DWORD PTR ?LogAdd@@3P6AXPADZZA ; LogAdd
  00070	83 c4 0c	 add	 esp, 12			; 0000000cH
  00073	5f		 pop	 edi

; 1834 : 	}
; 1835 : }

  00074	5d		 pop	 ebp
  00075	c2 04 00	 ret	 4
?AddSuccessRelic@CIllusionTempleProcess@@QAEXH@Z ENDP	; CIllusionTempleProcess::AddSuccessRelic
_TEXT	ENDS
; Function compile flags: /Ogtp
; File c:\users\michel\desktop\source\gameserver\source\illusiontempleprocess.cpp
;	COMDAT ?RemoveEventInfo@CIllusionTempleProcess@@QAEXXZ
_TEXT	SEGMENT
?RemoveEventInfo@CIllusionTempleProcess@@QAEXXZ PROC	; CIllusionTempleProcess::RemoveEventInfo, COMDAT
; _this$ = ecx

; 1481 : {

  00000	53		 push	 ebx
  00001	56		 push	 esi
  00002	8b f1		 mov	 esi, ecx

; 1482 : 	int i;
; 1483 : 	for(i = 0; i < m_STATUE_NPC_COUNT; i++)

  00004	33 db		 xor	 ebx, ebx
  00006	57		 push	 edi
  00007	39 9e c0 03 00
	00		 cmp	 DWORD PTR [esi+960], ebx
  0000d	7e 65		 jle	 SHORT $LN3@RemoveEven
  0000f	8d be 30 02 00
	00		 lea	 edi, DWORD PTR [esi+560]
$LL4@RemoveEven:

; 1484 : 	{
; 1485 : 		if( m_STATUE_NPC[i].m_Index != -1 )

  00015	8b 07		 mov	 eax, DWORD PTR [edi]
  00017	83 f8 ff	 cmp	 eax, -1
  0001a	74 4c		 je	 SHORT $LN2@RemoveEven

; 1486 : 		{
; 1487 : 			LogAddTD("[Illusion Temple] (%d) RemoveStatus Name: %s, (%d: %d/%d)",

  0001c	69 c8 40 27 00
	00		 imul	 ecx, eax, 10048
  00022	03 0d 00 00 00
	00		 add	 ecx, DWORD PTR ?gObj@@3PAUOBJECTSTRUCT@@A ; gObj
  00028	0f b6 81 21 01
	00 00		 movzx	 eax, BYTE PTR [ecx+289]
  0002f	50		 push	 eax
  00030	0f b6 81 20 01
	00 00		 movzx	 eax, BYTE PTR [ecx+288]
  00037	50		 push	 eax
  00038	0f b6 81 23 01
	00 00		 movzx	 eax, BYTE PTR [ecx+291]
  0003f	50		 push	 eax
  00040	8d 41 5d	 lea	 eax, DWORD PTR [ecx+93]
  00043	50		 push	 eax
  00044	0f b6 86 2c 02
	00 00		 movzx	 eax, BYTE PTR [esi+556]
  0004b	40		 inc	 eax
  0004c	50		 push	 eax
  0004d	68 00 00 00 00	 push	 OFFSET ??_C@_0DK@GOBHOKIP@?$FLIllusion?5Temple?$FN?5?$CI?$CFd?$CJ?5RemoveSta@
  00052	ff 15 00 00 00
	00		 call	 DWORD PTR ?LogAddTD@@3P6AXPADZZA ; LogAddTD

; 1488 : 				Temple+1,gObj[m_STATUE_NPC[i].m_Index].Name,gObj[m_STATUE_NPC[i].m_Index].MapNumber,
; 1489 : 				gObj[m_STATUE_NPC[i].m_Index].X,gObj[m_STATUE_NPC[i].m_Index].Y);
; 1490 : 
; 1491 : 			gObjDel(m_STATUE_NPC[i].m_Index);

  00058	ff 37		 push	 DWORD PTR [edi]
  0005a	e8 00 00 00 00	 call	 ?gObjDel@@YAFH@Z	; gObjDel
  0005f	83 c4 1c	 add	 esp, 28			; 0000001cH

; 1492 : 			m_STATUE_NPC[i].m_Index = -1;

  00062	c7 07 ff ff ff
	ff		 mov	 DWORD PTR [edi], -1
$LN2@RemoveEven:

; 1482 : 	int i;
; 1483 : 	for(i = 0; i < m_STATUE_NPC_COUNT; i++)

  00068	43		 inc	 ebx
  00069	83 c7 08	 add	 edi, 8
  0006c	3b 9e c0 03 00
	00		 cmp	 ebx, DWORD PTR [esi+960]
  00072	7c a1		 jl	 SHORT $LL4@RemoveEven
$LN3@RemoveEven:

; 1493 : 		}
; 1494 : 	}
; 1495 : 
; 1496 : 	if( m_ALLIED_NPC.m_Index != -1 )

  00074	8b 86 40 02 00
	00		 mov	 eax, DWORD PTR [esi+576]
  0007a	83 f8 ff	 cmp	 eax, -1
  0007d	74 54		 je	 SHORT $LN9@RemoveEven

; 1497 : 	{
; 1498 : 		LogAddTD("[Illusion Temple] (%d) RemoveAlliedRelicsBox Name: %s, (%d: %d/%d)",

  0007f	69 c8 40 27 00
	00		 imul	 ecx, eax, 10048
  00085	03 0d 00 00 00
	00		 add	 ecx, DWORD PTR ?gObj@@3PAUOBJECTSTRUCT@@A ; gObj
  0008b	0f b6 81 21 01
	00 00		 movzx	 eax, BYTE PTR [ecx+289]
  00092	50		 push	 eax
  00093	0f b6 81 20 01
	00 00		 movzx	 eax, BYTE PTR [ecx+288]
  0009a	50		 push	 eax
  0009b	0f b6 81 23 01
	00 00		 movzx	 eax, BYTE PTR [ecx+291]
  000a2	50		 push	 eax
  000a3	8d 41 5d	 lea	 eax, DWORD PTR [ecx+93]
  000a6	50		 push	 eax
  000a7	0f b6 86 2c 02
	00 00		 movzx	 eax, BYTE PTR [esi+556]
  000ae	40		 inc	 eax
  000af	50		 push	 eax
  000b0	68 00 00 00 00	 push	 OFFSET ??_C@_0ED@JCDEDHOA@?$FLIllusion?5Temple?$FN?5?$CI?$CFd?$CJ?5RemoveAll@
  000b5	ff 15 00 00 00
	00		 call	 DWORD PTR ?LogAddTD@@3P6AXPADZZA ; LogAddTD

; 1499 : 			Temple+1,gObj[m_ALLIED_NPC.m_Index].Name,gObj[m_ALLIED_NPC.m_Index].MapNumber,
; 1500 : 			gObj[m_ALLIED_NPC.m_Index].X,gObj[m_ALLIED_NPC.m_Index].Y);
; 1501 : 		gObjDel(m_ALLIED_NPC.m_Index);

  000bb	ff b6 40 02 00
	00		 push	 DWORD PTR [esi+576]
  000c1	e8 00 00 00 00	 call	 ?gObjDel@@YAFH@Z	; gObjDel
  000c6	83 c4 1c	 add	 esp, 28			; 0000001cH

; 1502 : 		m_ALLIED_NPC.m_Index = -1;

  000c9	c7 86 40 02 00
	00 ff ff ff ff	 mov	 DWORD PTR [esi+576], -1
$LN9@RemoveEven:

; 1503 : 	}
; 1504 : 
; 1505 : 	if( m_ILLUSION_NPC.m_Index != -1 )

  000d3	8b 86 48 02 00
	00		 mov	 eax, DWORD PTR [esi+584]
  000d9	83 f8 ff	 cmp	 eax, -1
  000dc	74 54		 je	 SHORT $LN10@RemoveEven

; 1506 : 	{
; 1507 : 		LogAddTD("[Illusion Temple] (%d) RemoveIllusionRelicsBox Name: %s, (%d: %d/%d)",

  000de	69 c8 40 27 00
	00		 imul	 ecx, eax, 10048
  000e4	03 0d 00 00 00
	00		 add	 ecx, DWORD PTR ?gObj@@3PAUOBJECTSTRUCT@@A ; gObj
  000ea	0f b6 81 21 01
	00 00		 movzx	 eax, BYTE PTR [ecx+289]
  000f1	50		 push	 eax
  000f2	0f b6 81 20 01
	00 00		 movzx	 eax, BYTE PTR [ecx+288]
  000f9	50		 push	 eax
  000fa	0f b6 81 23 01
	00 00		 movzx	 eax, BYTE PTR [ecx+291]
  00101	50		 push	 eax
  00102	8d 41 5d	 lea	 eax, DWORD PTR [ecx+93]
  00105	50		 push	 eax
  00106	0f b6 86 2c 02
	00 00		 movzx	 eax, BYTE PTR [esi+556]
  0010d	40		 inc	 eax
  0010e	50		 push	 eax
  0010f	68 00 00 00 00	 push	 OFFSET ??_C@_0EF@COBKKPEE@?$FLIllusion?5Temple?$FN?5?$CI?$CFd?$CJ?5RemoveIll@
  00114	ff 15 00 00 00
	00		 call	 DWORD PTR ?LogAddTD@@3P6AXPADZZA ; LogAddTD

; 1508 : 			Temple+1,gObj[m_ILLUSION_NPC.m_Index].Name,gObj[m_ILLUSION_NPC.m_Index].MapNumber,
; 1509 : 			gObj[m_ILLUSION_NPC.m_Index].X,gObj[m_ILLUSION_NPC.m_Index].Y);
; 1510 : 		gObjDel(m_ILLUSION_NPC.m_Index);

  0011a	ff b6 48 02 00
	00		 push	 DWORD PTR [esi+584]
  00120	e8 00 00 00 00	 call	 ?gObjDel@@YAFH@Z	; gObjDel
  00125	83 c4 1c	 add	 esp, 28			; 0000001cH

; 1511 : 		m_ILLUSION_NPC.m_Index = -1;

  00128	c7 86 48 02 00
	00 ff ff ff ff	 mov	 DWORD PTR [esi+584], -1
$LN10@RemoveEven:

; 1512 : 	}
; 1513 : 
; 1514 : 	for(i = 0; i < m_NPC_COUNT; i++)

  00132	33 db		 xor	 ebx, ebx
  00134	39 9e c4 03 00
	00		 cmp	 DWORD PTR [esi+964], ebx
  0013a	7e 28		 jle	 SHORT $LN6@RemoveEven
  0013c	8d be 50 02 00
	00		 lea	 edi, DWORD PTR [esi+592]
$LL7@RemoveEven:

; 1515 : 	{
; 1516 : 		if( m_MONSTER_NPC[i].m_Index != -1 )

  00142	8b 07		 mov	 eax, DWORD PTR [edi]
  00144	83 f8 ff	 cmp	 eax, -1
  00147	74 0f		 je	 SHORT $LN5@RemoveEven

; 1517 : 		{
; 1518 : 			gObjDel(m_MONSTER_NPC[i].m_Index);

  00149	50		 push	 eax
  0014a	e8 00 00 00 00	 call	 ?gObjDel@@YAFH@Z	; gObjDel
  0014f	83 c4 04	 add	 esp, 4

; 1519 : 			m_MONSTER_NPC[i].m_Index = -1;

  00152	c7 07 ff ff ff
	ff		 mov	 DWORD PTR [edi], -1
$LN5@RemoveEven:

; 1512 : 	}
; 1513 : 
; 1514 : 	for(i = 0; i < m_NPC_COUNT; i++)

  00158	43		 inc	 ebx
  00159	83 c7 08	 add	 edi, 8
  0015c	3b 9e c4 03 00
	00		 cmp	 ebx, DWORD PTR [esi+964]
  00162	7c de		 jl	 SHORT $LL7@RemoveEven
$LN6@RemoveEven:

; 1520 : 		}
; 1521 : 	}
; 1522 : 
; 1523 : 	LogAddTD("[Illusion Temple] (%d) Remove All Object",Temple+1);

  00164	0f b6 86 2c 02
	00 00		 movzx	 eax, BYTE PTR [esi+556]
  0016b	40		 inc	 eax
  0016c	50		 push	 eax
  0016d	68 00 00 00 00	 push	 OFFSET ??_C@_0CJ@NGMJKIGG@?$FLIllusion?5Temple?$FN?5?$CI?$CFd?$CJ?5Remove?5Al@
  00172	ff 15 00 00 00
	00		 call	 DWORD PTR ?LogAddTD@@3P6AXPADZZA ; LogAddTD
  00178	83 c4 08	 add	 esp, 8
  0017b	5f		 pop	 edi
  0017c	5e		 pop	 esi
  0017d	5b		 pop	 ebx

; 1524 : }

  0017e	c3		 ret	 0
?RemoveEventInfo@CIllusionTempleProcess@@QAEXXZ ENDP	; CIllusionTempleProcess::RemoveEventInfo
_TEXT	ENDS
; Function compile flags: /Ogtp
; File c:\users\michel\desktop\source\gameserver\source\illusiontempleprocess.cpp
;	COMDAT ?GCSendUseSkill@CIllusionTempleProcess@@QAEXHHGH@Z
_TEXT	SEGMENT
_pMsg$ = -16						; size = 12
__$ArrayPad$ = -4					; size = 4
_iIndex$ = 8						; size = 4
_iTargetIndex$ = 12					; size = 4
_skill$ = 16						; size = 2
_bSuccess$ = 20						; size = 4
?GCSendUseSkill@CIllusionTempleProcess@@QAEXHHGH@Z PROC	; CIllusionTempleProcess::GCSendUseSkill, COMDAT
; _this$ = ecx

; 2153 : {

  00000	55		 push	 ebp
  00001	8b ec		 mov	 ebp, esp
  00003	83 ec 10	 sub	 esp, 16			; 00000010H
  00006	a1 00 00 00 00	 mov	 eax, DWORD PTR ___security_cookie
  0000b	33 c5		 xor	 eax, ebp
  0000d	89 45 fc	 mov	 DWORD PTR __$ArrayPad$[ebp], eax
  00010	53		 push	 ebx
  00011	56		 push	 esi
  00012	8b 75 08	 mov	 esi, DWORD PTR _iIndex$[ebp]

; 2154 : 	PMSG_ILLUSIONTEMPLE_USESKILL pMsg;
; 2155 : 	PHeadSubSetB((LPBYTE)&pMsg,0xBF,0x02,sizeof(pMsg));

  00015	8d 45 f0	 lea	 eax, DWORD PTR _pMsg$[ebp]
  00018	6a 0c		 push	 12			; 0000000cH
  0001a	6a 02		 push	 2
  0001c	68 bf 00 00 00	 push	 191			; 000000bfH
  00021	50		 push	 eax
  00022	e8 00 00 00 00	 call	 ?PHeadSubSetB@@YAXPAEEEH@Z ; PHeadSubSetB

; 2156 : 	pMsg.result = bSuccess;
; 2157 : 	pMsg.MagicH = SET_NUMBERH(skill);

  00027	8b 4d 10	 mov	 ecx, DWORD PTR _skill$[ebp]
  0002a	8b c1		 mov	 eax, ecx
  0002c	8b 5d 14	 mov	 ebx, DWORD PTR _bSuccess$[ebp]
  0002f	c1 e8 08	 shr	 eax, 8
  00032	88 45 f5	 mov	 BYTE PTR _pMsg$[ebp+5], al

; 2158 : 	pMsg.MagicL = SET_NUMBERL(skill);
; 2159 : 	pMsg.Index = iIndex;
; 2160 : 	pMsg.TargetIndex = iTargetIndex;

  00035	66 8b 45 0c	 mov	 ax, WORD PTR _iTargetIndex$[ebp]
  00039	66 89 45 fa	 mov	 WORD PTR _pMsg$[ebp+10], ax

; 2161 : 
; 2162 : 	DataSend(iIndex,(LPBYTE)&pMsg,pMsg.h.size);

  0003d	0f b6 45 f1	 movzx	 eax, BYTE PTR _pMsg$[ebp+1]
  00041	50		 push	 eax
  00042	8d 45 f0	 lea	 eax, DWORD PTR _pMsg$[ebp]
  00045	88 5d f4	 mov	 BYTE PTR _pMsg$[ebp+4], bl
  00048	50		 push	 eax
  00049	56		 push	 esi
  0004a	88 4d f6	 mov	 BYTE PTR _pMsg$[ebp+6], cl
  0004d	66 89 75 f8	 mov	 WORD PTR _pMsg$[ebp+8], si
  00051	e8 00 00 00 00	 call	 ?DataSend@@YAHHPAEK@Z	; DataSend
  00056	83 c4 1c	 add	 esp, 28			; 0000001cH

; 2163 : 	if( bSuccess == TRUE )

  00059	83 fb 01	 cmp	 ebx, 1
  0005c	75 1e		 jne	 SHORT $LN2@GCSendUseS

; 2164 : 	{
; 2165 : 		MsgSendV2(&gObj[iIndex],(LPBYTE)&pMsg,pMsg.h.size);

  0005e	0f b6 45 f1	 movzx	 eax, BYTE PTR _pMsg$[ebp+1]
  00062	50		 push	 eax
  00063	8d 45 f0	 lea	 eax, DWORD PTR _pMsg$[ebp]
  00066	50		 push	 eax
  00067	69 c6 40 27 00
	00		 imul	 eax, esi, 10048
  0006d	03 05 00 00 00
	00		 add	 eax, DWORD PTR ?gObj@@3PAUOBJECTSTRUCT@@A ; gObj
  00073	50		 push	 eax
  00074	e8 00 00 00 00	 call	 ?MsgSendV2@@YAXPAUOBJECTSTRUCT@@PAEH@Z ; MsgSendV2
  00079	83 c4 0c	 add	 esp, 12			; 0000000cH
$LN2@GCSendUseS:

; 2166 : 	}
; 2167 : }

  0007c	8b 4d fc	 mov	 ecx, DWORD PTR __$ArrayPad$[ebp]
  0007f	5e		 pop	 esi
  00080	33 cd		 xor	 ecx, ebp
  00082	5b		 pop	 ebx
  00083	e8 00 00 00 00	 call	 @__security_check_cookie@4
  00088	8b e5		 mov	 esp, ebp
  0008a	5d		 pop	 ebp
  0008b	c2 10 00	 ret	 16			; 00000010H
?GCSendUseSkill@CIllusionTempleProcess@@QAEXHHGH@Z ENDP	; CIllusionTempleProcess::GCSendUseSkill
_TEXT	ENDS
; Function compile flags: /Ogtp
; File c:\users\michel\desktop\source\gameserver\source\illusiontempleprocess.cpp
;	COMDAT ?GCSendUseSkill@CIllusionTempleProcess@@QAEXPAUOBJECTSTRUCT@@H@Z
_TEXT	SEGMENT
_pMsg$ = -8						; size = 8
_lpObj$ = 8						; size = 4
_skill$ = 12						; size = 4
?GCSendUseSkill@CIllusionTempleProcess@@QAEXPAUOBJECTSTRUCT@@H@Z PROC ; CIllusionTempleProcess::GCSendUseSkill, COMDAT
; _this$ = ecx

; 2029 : {

  00000	55		 push	 ebp
  00001	8b ec		 mov	 ebp, esp
  00003	83 ec 08	 sub	 esp, 8
  00006	56		 push	 esi

; 2030 : 	PMSG_ILLUSIONTEMPLE_USESKILLEND pMsg;
; 2031 : 	PHeadSubSetB((LPBYTE)&pMsg,0xBF,0x07,sizeof(pMsg));

  00007	6a 08		 push	 8
  00009	6a 07		 push	 7
  0000b	8d 45 f8	 lea	 eax, DWORD PTR _pMsg$[ebp]
  0000e	68 bf 00 00 00	 push	 191			; 000000bfH
  00013	50		 push	 eax
  00014	e8 00 00 00 00	 call	 ?PHeadSubSetB@@YAXPAEEEH@Z ; PHeadSubSetB

; 2032 : 
; 2033 : 	pMsg.MagicH = SET_NUMBERH(skill);

  00019	8b 4d 0c	 mov	 ecx, DWORD PTR _skill$[ebp]
  0001c	8b c1		 mov	 eax, ecx

; 2034 : 	pMsg.MagicL = SET_NUMBERL(skill);
; 2035 : 	pMsg.Index = lpObj->m_Index;

  0001e	8b 75 08	 mov	 esi, DWORD PTR _lpObj$[ebp]
  00021	c1 e8 08	 shr	 eax, 8
  00024	88 45 fc	 mov	 BYTE PTR _pMsg$[ebp+4], al
  00027	88 4d fd	 mov	 BYTE PTR _pMsg$[ebp+5], cl
  0002a	66 8b 06	 mov	 ax, WORD PTR [esi]
  0002d	66 89 45 fe	 mov	 WORD PTR _pMsg$[ebp+6], ax

; 2036 : 
; 2037 : 	DataSend(lpObj->m_Index,(LPBYTE)&pMsg,pMsg.h.size);

  00031	0f b6 45 f9	 movzx	 eax, BYTE PTR _pMsg$[ebp+1]
  00035	50		 push	 eax
  00036	8d 45 f8	 lea	 eax, DWORD PTR _pMsg$[ebp]
  00039	50		 push	 eax
  0003a	ff 36		 push	 DWORD PTR [esi]
  0003c	e8 00 00 00 00	 call	 ?DataSend@@YAHHPAEK@Z	; DataSend

; 2038 : 	MsgSendV2(lpObj,(LPBYTE)&pMsg,pMsg.h.size);

  00041	0f b6 45 f9	 movzx	 eax, BYTE PTR _pMsg$[ebp+1]
  00045	50		 push	 eax
  00046	8d 45 f8	 lea	 eax, DWORD PTR _pMsg$[ebp]
  00049	50		 push	 eax
  0004a	56		 push	 esi
  0004b	e8 00 00 00 00	 call	 ?MsgSendV2@@YAXPAUOBJECTSTRUCT@@PAEH@Z ; MsgSendV2
  00050	83 c4 28	 add	 esp, 40			; 00000028H
  00053	5e		 pop	 esi

; 2039 : }

  00054	8b e5		 mov	 esp, ebp
  00056	5d		 pop	 ebp
  00057	c2 08 00	 ret	 8
?GCSendUseSkill@CIllusionTempleProcess@@QAEXPAUOBJECTSTRUCT@@H@Z ENDP ; CIllusionTempleProcess::GCSendUseSkill
_TEXT	ENDS
; Function compile flags: /Ogtp
; File c:\users\michel\desktop\source\gameserver\source\illusiontempleprocess.cpp
;	COMDAT ?SetStatueTime@CIllusionTempleProcess@@QAEXXZ
_TEXT	SEGMENT
?SetStatueTime@CIllusionTempleProcess@@QAEXXZ PROC	; CIllusionTempleProcess::SetStatueTime, COMDAT
; _this$ = ecx

; 1527 : {

  00000	56		 push	 esi
  00001	8b f1		 mov	 esi, ecx

; 1528 : 	iNPC_TICK_COUNT = GetTickCount() + 5000;

  00003	ff 15 00 00 00
	00		 call	 DWORD PTR __imp__GetTickCount@0
  00009	05 88 13 00 00	 add	 eax, 5000		; 00001388H
  0000e	89 86 94 03 00
	00		 mov	 DWORD PTR [esi+916], eax
  00014	5e		 pop	 esi

; 1529 : }

  00015	c3		 ret	 0
?SetStatueTime@CIllusionTempleProcess@@QAEXXZ ENDP	; CIllusionTempleProcess::SetStatueTime
_TEXT	ENDS
; Function compile flags: /Ogtp
; File c:\users\michel\desktop\source\gameserver\source\illusiontempleprocess.cpp
;	COMDAT ?SpawnMonster@CIllusionTempleProcess@@QAEXXZ
_TEXT	SEGMENT
tv297 = -8						; size = 4
_result$1$ = -4						; size = 4
?SpawnMonster@CIllusionTempleProcess@@QAEXXZ PROC	; CIllusionTempleProcess::SpawnMonster, COMDAT
; _this$ = ecx

; 1452 : {

  00000	55		 push	 ebp
  00001	8b ec		 mov	 ebp, esp
  00003	83 ec 08	 sub	 esp, 8
  00006	53		 push	 ebx
  00007	56		 push	 esi
  00008	8b f1		 mov	 esi, ecx

; 1453 : 	for(int i = 0; i < m_NPC_COUNT; i++)

  0000a	33 db		 xor	 ebx, ebx
  0000c	39 9e c4 03 00
	00		 cmp	 DWORD PTR [esi+964], ebx
  00012	0f 8e e3 00 00
	00		 jle	 $LN3@SpawnMonst
  00018	57		 push	 edi
  00019	8d be 54 02 00
	00		 lea	 edi, DWORD PTR [esi+596]
  0001f	89 7d f8	 mov	 DWORD PTR tv297[ebp], edi
$LL4@SpawnMonst:

; 1454 : 	{
; 1455 : 		int result = gObjAddMonster(Temple+MAP_INDEX_ILLUSIONTEMPLE1);

  00022	0f b6 86 2c 02
	00 00		 movzx	 eax, BYTE PTR [esi+556]
  00029	83 c0 2d	 add	 eax, 45			; 0000002dH
  0002c	50		 push	 eax
  0002d	e8 00 00 00 00	 call	 ?gObjAddMonster@@YAFH@Z	; gObjAddMonster
  00032	0f bf c8	 movsx	 ecx, ax
  00035	83 c4 04	 add	 esp, 4
  00038	89 4d fc	 mov	 DWORD PTR _result$1$[ebp], ecx

; 1456 : 
; 1457 : 		if( result >= 0 )

  0003b	85 c9		 test	 ecx, ecx
  0003d	0f 88 8d 00 00
	00		 js	 $LN5@SpawnMonst

; 1458 : 		{
; 1459 : 			gObjSetPosMonster(result,m_MONSTER_NPC[i].m_Num);

  00043	0f bf 07	 movsx	 eax, WORD PTR [edi]
  00046	50		 push	 eax
  00047	51		 push	 ecx
  00048	e8 00 00 00 00	 call	 ?gObjSetPosMonster@@YAHHH@Z ; gObjSetPosMonster

; 1460 : 			gObjSetMonster(result,gMSetBase.m_Mp[m_MONSTER_NPC[i].m_Num].m_Type);

  0004d	0f bf 07	 movsx	 eax, WORD PTR [edi]
  00050	8b 7d fc	 mov	 edi, DWORD PTR _result$1$[ebp]
  00053	8d 04 80	 lea	 eax, DWORD PTR [eax+eax*4]
  00056	0f b7 04 85 06
	00 00 00	 movzx	 eax, WORD PTR ?gMSetBase@@3VCMonsterSetBase@@A[eax*4+6]
  0005e	50		 push	 eax
  0005f	57		 push	 edi
  00060	e8 00 00 00 00	 call	 ?gObjSetMonster@@YAHHH@Z ; gObjSetMonster

; 1461 : 
; 1462 : 			gObj[result].Dir = 1;

  00065	a1 00 00 00 00	 mov	 eax, DWORD PTR ?gObj@@3PAUOBJECTSTRUCT@@A ; gObj

; 1463 : 			gObj[result].m_PosNum = (short)-1;

  0006a	83 c9 ff	 or	 ecx, -1
  0006d	69 ff 40 27 00
	00		 imul	 edi, edi, 10048
  00073	83 c4 10	 add	 esp, 16			; 00000010H
  00076	c6 84 07 22 01
	00 00 01	 mov	 BYTE PTR [edi+eax+290], 1
  0007e	a1 00 00 00 00	 mov	 eax, DWORD PTR ?gObj@@3PAUOBJECTSTRUCT@@A ; gObj
  00083	66 89 8c 07 98
	05 00 00	 mov	 WORD PTR [edi+eax+1432], cx

; 1464 : 			gObj[result].Live = 0;

  0008b	a1 00 00 00 00	 mov	 eax, DWORD PTR ?gObj@@3PAUOBJECTSTRUCT@@A ; gObj
  00090	c6 44 07 51 00	 mov	 BYTE PTR [edi+eax+81], 0

; 1465 : 			gObj[result].DieRegen = 0;

  00095	a1 00 00 00 00	 mov	 eax, DWORD PTR ?gObj@@3PAUOBJECTSTRUCT@@A ; gObj
  0009a	c6 84 07 8a 05
	00 00 00	 mov	 BYTE PTR [edi+eax+1418], 0

; 1466 : 			gObj[result].m_State = 4;

  000a2	a1 00 00 00 00	 mov	 eax, DWORD PTR ?gObj@@3PAUOBJECTSTRUCT@@A ; gObj
  000a7	c7 84 07 d0 01
	00 00 04 00 00
	00		 mov	 DWORD PTR [edi+eax+464], 4

; 1467 : 			gObj[result].RegenTime = GetTickCount();

  000b2	ff 15 00 00 00
	00		 call	 DWORD PTR __imp__GetTickCount@0
  000b8	8b 0d 00 00 00
	00		 mov	 ecx, DWORD PTR ?gObj@@3PAUOBJECTSTRUCT@@A ; gObj
  000be	89 84 0f 90 05
	00 00		 mov	 DWORD PTR [edi+ecx+1424], eax

; 1468 : 
; 1469 : 			m_MONSTER_NPC[i].m_Index = result;

  000c5	8b 7d f8	 mov	 edi, DWORD PTR tv297[ebp]
  000c8	8b 45 fc	 mov	 eax, DWORD PTR _result$1$[ebp]
  000cb	89 47 fc	 mov	 DWORD PTR [edi-4], eax

; 1470 : 
; 1471 : 
; 1472 : 		}
; 1473 : 		else

  000ce	eb 17		 jmp	 SHORT $LN2@SpawnMonst
$LN5@SpawnMonst:

; 1474 : 		{
; 1475 : 			LogAddTD("[Illusion Temple] (%d) Add Monster Error",Temple+1);

  000d0	0f b6 86 2c 02
	00 00		 movzx	 eax, BYTE PTR [esi+556]
  000d7	40		 inc	 eax
  000d8	50		 push	 eax
  000d9	68 00 00 00 00	 push	 OFFSET ??_C@_0CJ@ILDHLMNE@?$FLIllusion?5Temple?$FN?5?$CI?$CFd?$CJ?5Add?5Monst@
  000de	ff 15 00 00 00
	00		 call	 DWORD PTR ?LogAddTD@@3P6AXPADZZA ; LogAddTD
  000e4	83 c4 08	 add	 esp, 8
$LN2@SpawnMonst:

; 1453 : 	for(int i = 0; i < m_NPC_COUNT; i++)

  000e7	43		 inc	 ebx
  000e8	83 c7 08	 add	 edi, 8
  000eb	89 7d f8	 mov	 DWORD PTR tv297[ebp], edi
  000ee	3b 9e c4 03 00
	00		 cmp	 ebx, DWORD PTR [esi+964]
  000f4	0f 8c 28 ff ff
	ff		 jl	 $LL4@SpawnMonst
  000fa	5f		 pop	 edi
$LN3@SpawnMonst:
  000fb	5e		 pop	 esi
  000fc	5b		 pop	 ebx

; 1476 : 		}
; 1477 : 	}
; 1478 : }

  000fd	8b e5		 mov	 esp, ebp
  000ff	5d		 pop	 ebp
  00100	c3		 ret	 0
?SpawnMonster@CIllusionTempleProcess@@QAEXXZ ENDP	; CIllusionTempleProcess::SpawnMonster
_TEXT	ENDS
; Function compile flags: /Ogtp
; File c:\users\michel\desktop\source\gameserver\source\illusiontempleprocess.cpp
;	COMDAT ?SpawnTeamNpc@CIllusionTempleProcess@@QAEXXZ
_TEXT	SEGMENT
?SpawnTeamNpc@CIllusionTempleProcess@@QAEXXZ PROC	; CIllusionTempleProcess::SpawnTeamNpc, COMDAT
; _this$ = ecx

; 1401 : {

  00000	53		 push	 ebx
  00001	56		 push	 esi
  00002	8b f1		 mov	 esi, ecx
  00004	57		 push	 edi

; 1402 : 	int result = gObjAddMonster(Temple+MAP_INDEX_ILLUSIONTEMPLE1);

  00005	0f b6 86 2c 02
	00 00		 movzx	 eax, BYTE PTR [esi+556]
  0000c	83 c0 2d	 add	 eax, 45			; 0000002dH
  0000f	50		 push	 eax
  00010	e8 00 00 00 00	 call	 ?gObjAddMonster@@YAFH@Z	; gObjAddMonster
  00015	0f bf f8	 movsx	 edi, ax
  00018	83 c4 04	 add	 esp, 4

; 1403 : 
; 1404 : 	if( result >= 0 )

  0001b	83 cb ff	 or	 ebx, -1
  0001e	85 ff		 test	 edi, edi
  00020	0f 88 a1 00 00
	00		 js	 $LN2@SpawnTeamN

; 1405 : 	{
; 1406 : 		gObjSetPosMonster(result,m_ALLIED_NPC.m_Num);

  00026	0f bf 86 44 02
	00 00		 movsx	 eax, WORD PTR [esi+580]
  0002d	50		 push	 eax
  0002e	57		 push	 edi
  0002f	e8 00 00 00 00	 call	 ?gObjSetPosMonster@@YAHHH@Z ; gObjSetPosMonster

; 1407 : 		gObjSetMonster(result,383);

  00034	68 7f 01 00 00	 push	 383			; 0000017fH
  00039	57		 push	 edi
  0003a	e8 00 00 00 00	 call	 ?gObjSetMonster@@YAHHH@Z ; gObjSetMonster

; 1408 : 
; 1409 : 		gObj[result].Dir = 1;

  0003f	a1 00 00 00 00	 mov	 eax, DWORD PTR ?gObj@@3PAUOBJECTSTRUCT@@A ; gObj
  00044	69 cf 40 27 00
	00		 imul	 ecx, edi, 10048
  0004a	c6 84 01 22 01
	00 00 01	 mov	 BYTE PTR [ecx+eax+290], 1

; 1410 : 		gObj[result].m_PosNum = (short)-1;

  00052	a1 00 00 00 00	 mov	 eax, DWORD PTR ?gObj@@3PAUOBJECTSTRUCT@@A ; gObj
  00057	66 89 9c 01 98
	05 00 00	 mov	 WORD PTR [ecx+eax+1432], bx

; 1411 : 		gObj[result].Live = TRUE;

  0005f	a1 00 00 00 00	 mov	 eax, DWORD PTR ?gObj@@3PAUOBJECTSTRUCT@@A ; gObj
  00064	c6 44 01 51 01	 mov	 BYTE PTR [ecx+eax+81], 1

; 1412 : 		gObj[result].DieRegen = FALSE;

  00069	a1 00 00 00 00	 mov	 eax, DWORD PTR ?gObj@@3PAUOBJECTSTRUCT@@A ; gObj
  0006e	c6 84 01 8a 05
	00 00 00	 mov	 BYTE PTR [ecx+eax+1418], 0

; 1413 : 		gObj[result].m_State = 1;

  00076	a1 00 00 00 00	 mov	 eax, DWORD PTR ?gObj@@3PAUOBJECTSTRUCT@@A ; gObj
  0007b	c7 84 01 d0 01
	00 00 01 00 00
	00		 mov	 DWORD PTR [ecx+eax+464], 1

; 1414 : 
; 1415 : 		m_ALLIED_NPC.m_Index = result;

  00086	89 be 40 02 00
	00		 mov	 DWORD PTR [esi+576], edi

; 1416 : 
; 1417 : 
; 1418 : 		LogAddTD("[Illusion Temple] (%d) Create NPC AlliedRelicsBox Name: %s, (%d: %d/%d)",

  0008c	03 0d 00 00 00
	00		 add	 ecx, DWORD PTR ?gObj@@3PAUOBJECTSTRUCT@@A ; gObj
  00092	0f b6 81 21 01
	00 00		 movzx	 eax, BYTE PTR [ecx+289]
  00099	50		 push	 eax
  0009a	0f b6 81 20 01
	00 00		 movzx	 eax, BYTE PTR [ecx+288]
  000a1	50		 push	 eax
  000a2	0f b6 81 23 01
	00 00		 movzx	 eax, BYTE PTR [ecx+291]
  000a9	50		 push	 eax
  000aa	8d 41 5d	 lea	 eax, DWORD PTR [ecx+93]
  000ad	50		 push	 eax
  000ae	0f b6 86 2c 02
	00 00		 movzx	 eax, BYTE PTR [esi+556]
  000b5	40		 inc	 eax
  000b6	50		 push	 eax
  000b7	68 00 00 00 00	 push	 OFFSET ??_C@_0EI@FFEIEJHB@?$FLIllusion?5Temple?$FN?5?$CI?$CFd?$CJ?5Create?5NP@
  000bc	ff 15 00 00 00
	00		 call	 DWORD PTR ?LogAddTD@@3P6AXPADZZA ; LogAddTD
  000c2	83 c4 28	 add	 esp, 40			; 00000028H

; 1419 : 			Temple+1,gObj[result].Name,gObj[result].MapNumber,gObj[result].X,gObj[result].Y);
; 1420 : 	}
; 1421 : 	else

  000c5	eb 17		 jmp	 SHORT $LN3@SpawnTeamN
$LN2@SpawnTeamN:

; 1422 : 	{
; 1423 : 		LogAddTD("[Illusion Temple] (%d) Add AlliedRelicsBox Error",Temple+1);

  000c7	0f b6 86 2c 02
	00 00		 movzx	 eax, BYTE PTR [esi+556]
  000ce	40		 inc	 eax
  000cf	50		 push	 eax
  000d0	68 00 00 00 00	 push	 OFFSET ??_C@_0DB@DDAFNEAA@?$FLIllusion?5Temple?$FN?5?$CI?$CFd?$CJ?5Add?5Allie@
  000d5	ff 15 00 00 00
	00		 call	 DWORD PTR ?LogAddTD@@3P6AXPADZZA ; LogAddTD
  000db	83 c4 08	 add	 esp, 8
$LN3@SpawnTeamN:

; 1424 : 	}
; 1425 : 
; 1426 : 	result = gObjAddMonster(Temple+MAP_INDEX_ILLUSIONTEMPLE1);

  000de	0f b6 86 2c 02
	00 00		 movzx	 eax, BYTE PTR [esi+556]
  000e5	83 c0 2d	 add	 eax, 45			; 0000002dH
  000e8	50		 push	 eax
  000e9	e8 00 00 00 00	 call	 ?gObjAddMonster@@YAFH@Z	; gObjAddMonster
  000ee	0f bf f8	 movsx	 edi, ax
  000f1	83 c4 04	 add	 esp, 4

; 1427 : 
; 1428 : 	if( result >= 0 )

  000f4	85 ff		 test	 edi, edi
  000f6	0f 88 a3 00 00
	00		 js	 $LN4@SpawnTeamN

; 1429 : 	{
; 1430 : 		gObjSetPosMonster(result,m_ILLUSION_NPC.m_Num);

  000fc	0f bf 86 4c 02
	00 00		 movsx	 eax, WORD PTR [esi+588]
  00103	50		 push	 eax
  00104	57		 push	 edi
  00105	e8 00 00 00 00	 call	 ?gObjSetPosMonster@@YAHHH@Z ; gObjSetPosMonster

; 1431 : 		gObjSetMonster(result,384);

  0010a	68 80 01 00 00	 push	 384			; 00000180H
  0010f	57		 push	 edi
  00110	e8 00 00 00 00	 call	 ?gObjSetMonster@@YAHHH@Z ; gObjSetMonster

; 1432 : 
; 1433 : 		gObj[result].Dir = 1;

  00115	a1 00 00 00 00	 mov	 eax, DWORD PTR ?gObj@@3PAUOBJECTSTRUCT@@A ; gObj
  0011a	69 cf 40 27 00
	00		 imul	 ecx, edi, 10048
  00120	c6 84 01 22 01
	00 00 01	 mov	 BYTE PTR [ecx+eax+290], 1

; 1434 : 		gObj[result].m_PosNum = (short)-1;

  00128	a1 00 00 00 00	 mov	 eax, DWORD PTR ?gObj@@3PAUOBJECTSTRUCT@@A ; gObj
  0012d	66 89 9c 01 98
	05 00 00	 mov	 WORD PTR [ecx+eax+1432], bx

; 1435 : 		gObj[result].Live = TRUE;

  00135	a1 00 00 00 00	 mov	 eax, DWORD PTR ?gObj@@3PAUOBJECTSTRUCT@@A ; gObj
  0013a	c6 44 01 51 01	 mov	 BYTE PTR [ecx+eax+81], 1

; 1436 : 		gObj[result].DieRegen = FALSE;

  0013f	a1 00 00 00 00	 mov	 eax, DWORD PTR ?gObj@@3PAUOBJECTSTRUCT@@A ; gObj
  00144	c6 84 01 8a 05
	00 00 00	 mov	 BYTE PTR [ecx+eax+1418], 0

; 1437 : 		gObj[result].m_State = 1;

  0014c	a1 00 00 00 00	 mov	 eax, DWORD PTR ?gObj@@3PAUOBJECTSTRUCT@@A ; gObj
  00151	c7 84 01 d0 01
	00 00 01 00 00
	00		 mov	 DWORD PTR [ecx+eax+464], 1

; 1438 : 
; 1439 : 		m_ILLUSION_NPC.m_Index = result;

  0015c	89 be 48 02 00
	00		 mov	 DWORD PTR [esi+584], edi

; 1440 : 
; 1441 : 
; 1442 : 		LogAddTD("[Illusion Temple] (%d) Create NPC IllusionRelicsBox Name: %s, (%d: %d/%d)",

  00162	03 0d 00 00 00
	00		 add	 ecx, DWORD PTR ?gObj@@3PAUOBJECTSTRUCT@@A ; gObj
  00168	0f b6 81 21 01
	00 00		 movzx	 eax, BYTE PTR [ecx+289]
  0016f	50		 push	 eax
  00170	0f b6 81 20 01
	00 00		 movzx	 eax, BYTE PTR [ecx+288]
  00177	50		 push	 eax
  00178	0f b6 81 23 01
	00 00		 movzx	 eax, BYTE PTR [ecx+291]
  0017f	50		 push	 eax
  00180	8d 41 5d	 lea	 eax, DWORD PTR [ecx+93]
  00183	50		 push	 eax
  00184	0f b6 86 2c 02
	00 00		 movzx	 eax, BYTE PTR [esi+556]
  0018b	40		 inc	 eax
  0018c	50		 push	 eax
  0018d	68 00 00 00 00	 push	 OFFSET ??_C@_0EK@PBPNIPFI@?$FLIllusion?5Temple?$FN?5?$CI?$CFd?$CJ?5Create?5NP@
  00192	ff 15 00 00 00
	00		 call	 DWORD PTR ?LogAddTD@@3P6AXPADZZA ; LogAddTD
  00198	83 c4 28	 add	 esp, 40			; 00000028H
  0019b	5f		 pop	 edi
  0019c	5e		 pop	 esi
  0019d	5b		 pop	 ebx

; 1448 : 	}
; 1449 : }

  0019e	c3		 ret	 0
$LN4@SpawnTeamN:

; 1443 : 			Temple+1,gObj[result].Name,gObj[result].MapNumber,gObj[result].X,gObj[result].Y);
; 1444 : 	}
; 1445 : 	else
; 1446 : 	{
; 1447 : 		LogAddTD("[Illusion Temple] (%d) Add IllusionRelicsBox Error",Temple+1);

  0019f	0f b6 86 2c 02
	00 00		 movzx	 eax, BYTE PTR [esi+556]
  001a6	40		 inc	 eax
  001a7	50		 push	 eax
  001a8	68 00 00 00 00	 push	 OFFSET ??_C@_0DD@CJHIKDCG@?$FLIllusion?5Temple?$FN?5?$CI?$CFd?$CJ?5Add?5Illus@
  001ad	ff 15 00 00 00
	00		 call	 DWORD PTR ?LogAddTD@@3P6AXPADZZA ; LogAddTD
  001b3	83 c4 08	 add	 esp, 8
  001b6	5f		 pop	 edi
  001b7	5e		 pop	 esi
  001b8	5b		 pop	 ebx

; 1448 : 	}
; 1449 : }

  001b9	c3		 ret	 0
?SpawnTeamNpc@CIllusionTempleProcess@@QAEXXZ ENDP	; CIllusionTempleProcess::SpawnTeamNpc
_TEXT	ENDS
; Function compile flags: /Ogtp
; File c:\users\michel\desktop\source\gameserver\source\illusiontempleprocess.cpp
;	COMDAT ?SpawnStatue@CIllusionTempleProcess@@QAEXXZ
_TEXT	SEGMENT
_result$1$ = -8						; size = 4
tv314 = -4						; size = 4
?SpawnStatue@CIllusionTempleProcess@@QAEXXZ PROC	; CIllusionTempleProcess::SpawnStatue, COMDAT
; _this$ = ecx

; 1372 : {

  00000	55		 push	 ebp
  00001	8b ec		 mov	 ebp, esp
  00003	83 ec 08	 sub	 esp, 8
  00006	53		 push	 ebx
  00007	56		 push	 esi
  00008	8b f1		 mov	 esi, ecx

; 1373 : 	for(int i = 0; i < m_STATUE_NPC_COUNT; i++)

  0000a	33 db		 xor	 ebx, ebx
  0000c	39 9e c0 03 00
	00		 cmp	 DWORD PTR [esi+960], ebx
  00012	0f 8e 0a 01 00
	00		 jle	 $LN3@SpawnStatu
  00018	57		 push	 edi
  00019	8d be 30 02 00
	00		 lea	 edi, DWORD PTR [esi+560]
  0001f	89 7d fc	 mov	 DWORD PTR tv314[ebp], edi
$LL4@SpawnStatu:

; 1374 : 	{
; 1375 : 		int result = gObjAddMonster(Temple+ MAP_INDEX_ILLUSIONTEMPLE1);

  00022	0f b6 86 2c 02
	00 00		 movzx	 eax, BYTE PTR [esi+556]
  00029	83 c0 2d	 add	 eax, 45			; 0000002dH
  0002c	50		 push	 eax
  0002d	e8 00 00 00 00	 call	 ?gObjAddMonster@@YAFH@Z	; gObjAddMonster
  00032	0f bf c8	 movsx	 ecx, ax
  00035	83 c4 04	 add	 esp, 4
  00038	89 4d f8	 mov	 DWORD PTR _result$1$[ebp], ecx

; 1376 : 
; 1377 : 		if( result >= 0 )

  0003b	85 c9		 test	 ecx, ecx
  0003d	0f 88 b4 00 00
	00		 js	 $LN5@SpawnStatu

; 1378 : 		{
; 1379 : 			gObjSetPosMonster(result,m_STATUE_NPC[i].m_Num);

  00043	0f bf 47 04	 movsx	 eax, WORD PTR [edi+4]
  00047	50		 push	 eax
  00048	51		 push	 ecx
  00049	e8 00 00 00 00	 call	 ?gObjSetPosMonster@@YAHHH@Z ; gObjSetPosMonster

; 1380 : 			gObjSetMonster(result,380);

  0004e	8b 7d f8	 mov	 edi, DWORD PTR _result$1$[ebp]
  00051	68 7c 01 00 00	 push	 380			; 0000017cH
  00056	57		 push	 edi
  00057	e8 00 00 00 00	 call	 ?gObjSetMonster@@YAHHH@Z ; gObjSetMonster

; 1381 : 
; 1382 : 			gObj[result].m_PosNum = (WORD)-1;

  0005c	a1 00 00 00 00	 mov	 eax, DWORD PTR ?gObj@@3PAUOBJECTSTRUCT@@A ; gObj
  00061	83 c9 ff	 or	 ecx, -1
  00064	69 ff 40 27 00
	00		 imul	 edi, edi, 10048
  0006a	83 c4 10	 add	 esp, 16			; 00000010H
  0006d	66 89 8c 07 98
	05 00 00	 mov	 WORD PTR [edi+eax+1432], cx

; 1383 : 			gObj[result].Live = FALSE;

  00075	a1 00 00 00 00	 mov	 eax, DWORD PTR ?gObj@@3PAUOBJECTSTRUCT@@A ; gObj
  0007a	c6 44 07 51 00	 mov	 BYTE PTR [edi+eax+81], 0

; 1384 : 			gObj[result].DieRegen = 2;

  0007f	a1 00 00 00 00	 mov	 eax, DWORD PTR ?gObj@@3PAUOBJECTSTRUCT@@A ; gObj
  00084	c6 84 07 8a 05
	00 00 02	 mov	 BYTE PTR [edi+eax+1418], 2

; 1385 : 			gObj[result].m_State = 4;

  0008c	a1 00 00 00 00	 mov	 eax, DWORD PTR ?gObj@@3PAUOBJECTSTRUCT@@A ; gObj
  00091	c7 84 07 d0 01
	00 00 04 00 00
	00		 mov	 DWORD PTR [edi+eax+464], 4

; 1386 : 			gObj[result].RegenTime = GetTickCount();

  0009c	ff 15 00 00 00
	00		 call	 DWORD PTR __imp__GetTickCount@0
  000a2	8b 0d 00 00 00
	00		 mov	 ecx, DWORD PTR ?gObj@@3PAUOBJECTSTRUCT@@A ; gObj
  000a8	89 84 0f 90 05
	00 00		 mov	 DWORD PTR [edi+ecx+1424], eax

; 1387 : 
; 1388 : 			m_STATUE_NPC[i].m_Index = result;

  000af	8b 45 fc	 mov	 eax, DWORD PTR tv314[ebp]
  000b2	8b 4d f8	 mov	 ecx, DWORD PTR _result$1$[ebp]
  000b5	89 08		 mov	 DWORD PTR [eax], ecx

; 1389 : 
; 1390 : 			LogAddTD("[Illusion Temple] (%d) Create NPC Statue Name: %s, (%d: %d/%d)",

  000b7	8b 0d 00 00 00
	00		 mov	 ecx, DWORD PTR ?gObj@@3PAUOBJECTSTRUCT@@A ; gObj
  000bd	03 cf		 add	 ecx, edi
  000bf	0f b6 81 21 01
	00 00		 movzx	 eax, BYTE PTR [ecx+289]
  000c6	50		 push	 eax
  000c7	0f b6 81 20 01
	00 00		 movzx	 eax, BYTE PTR [ecx+288]
  000ce	50		 push	 eax
  000cf	0f b6 81 23 01
	00 00		 movzx	 eax, BYTE PTR [ecx+291]
  000d6	50		 push	 eax
  000d7	8d 41 5d	 lea	 eax, DWORD PTR [ecx+93]
  000da	50		 push	 eax
  000db	0f b6 86 2c 02
	00 00		 movzx	 eax, BYTE PTR [esi+556]
  000e2	40		 inc	 eax
  000e3	50		 push	 eax
  000e4	68 00 00 00 00	 push	 OFFSET ??_C@_0DP@FKJKOPFE@?$FLIllusion?5Temple?$FN?5?$CI?$CFd?$CJ?5Create?5NP@
  000e9	ff 15 00 00 00
	00		 call	 DWORD PTR ?LogAddTD@@3P6AXPADZZA ; LogAddTD

; 1391 : 				Temple+1,gObj[result].Name,gObj[result].MapNumber,gObj[result].X,gObj[result].Y);
; 1392 : 		}
; 1393 : 		else

  000ef	8b 7d fc	 mov	 edi, DWORD PTR tv314[ebp]
  000f2	83 c4 18	 add	 esp, 24			; 00000018H
  000f5	eb 17		 jmp	 SHORT $LN2@SpawnStatu
$LN5@SpawnStatu:

; 1394 : 		{
; 1395 : 			LogAddTD("[Illusion Temple] (%d) Add Statue Error",Temple+1);

  000f7	0f b6 86 2c 02
	00 00		 movzx	 eax, BYTE PTR [esi+556]
  000fe	40		 inc	 eax
  000ff	50		 push	 eax
  00100	68 00 00 00 00	 push	 OFFSET ??_C@_0CI@HGNLGIPA@?$FLIllusion?5Temple?$FN?5?$CI?$CFd?$CJ?5Add?5Statu@
  00105	ff 15 00 00 00
	00		 call	 DWORD PTR ?LogAddTD@@3P6AXPADZZA ; LogAddTD
  0010b	83 c4 08	 add	 esp, 8
$LN2@SpawnStatu:

; 1373 : 	for(int i = 0; i < m_STATUE_NPC_COUNT; i++)

  0010e	43		 inc	 ebx
  0010f	83 c7 08	 add	 edi, 8
  00112	89 7d fc	 mov	 DWORD PTR tv314[ebp], edi
  00115	3b 9e c0 03 00
	00		 cmp	 ebx, DWORD PTR [esi+960]
  0011b	0f 8c 01 ff ff
	ff		 jl	 $LL4@SpawnStatu
  00121	5f		 pop	 edi
$LN3@SpawnStatu:
  00122	5e		 pop	 esi
  00123	5b		 pop	 ebx

; 1396 : 		}
; 1397 : 	}
; 1398 : }

  00124	8b e5		 mov	 esp, ebp
  00126	5d		 pop	 ebp
  00127	c3		 ret	 0
?SpawnStatue@CIllusionTempleProcess@@QAEXXZ ENDP	; CIllusionTempleProcess::SpawnStatue
_TEXT	ENDS
; Function compile flags: /Ogtp
; File c:\users\michel\desktop\source\gameserver\source\illusiontempleprocess.cpp
;	COMDAT ?LevelUp@CIllusionTempleProcess@@QAEHHH@Z
_TEXT	SEGMENT
_iLEFT_EXP$1$ = -264					; size = 4
_szTmp$1 = -260						; size = 256
__$ArrayPad$ = -4					; size = 4
_iUserIndex$ = 8					; size = 4
_iAddExp$ = 12						; size = 4
?LevelUp@CIllusionTempleProcess@@QAEHHH@Z PROC		; CIllusionTempleProcess::LevelUp, COMDAT
; _this$ = ecx

; 2447 : {

  00000	55		 push	 ebp
  00001	8b ec		 mov	 ebp, esp
  00003	81 ec 08 01 00
	00		 sub	 esp, 264		; 00000108H
  00009	a1 00 00 00 00	 mov	 eax, DWORD PTR ___security_cookie
  0000e	33 c5		 xor	 eax, ebp
  00010	89 45 fc	 mov	 DWORD PTR __$ArrayPad$[ebp], eax
  00013	56		 push	 esi
  00014	8b 75 08	 mov	 esi, DWORD PTR _iUserIndex$[ebp]

; 2448 : 	if ( !OBJMAX_RANGE(iUserIndex ) )

  00017	85 f6		 test	 esi, esi
  00019	0f 88 5b 03 00
	00		 js	 $LN20@LevelUp
  0001f	33 c0		 xor	 eax, eax
  00021	81 fe eb 2c 00
	00		 cmp	 esi, 11499		; 00002cebH
  00027	0f 9e c0	 setle	 al
  0002a	85 c0		 test	 eax, eax
  0002c	0f 84 48 03 00
	00		 je	 $LN20@LevelUp

; 2449 : 		return 0;
; 2450 : 
; 2451 : 	if( g_MasterExp.LevelUp(&gObj[iUserIndex],iAddExp) )

  00032	53		 push	 ebx
  00033	8b 5d 0c	 mov	 ebx, DWORD PTR _iAddExp$[ebp]
  00036	b9 00 00 00 00	 mov	 ecx, OFFSET ?g_MasterExp@@3VCMasterExperience@@A ; g_MasterExp
  0003b	57		 push	 edi
  0003c	8b c3		 mov	 eax, ebx
  0003e	69 fe 40 27 00
	00		 imul	 edi, esi, 10048
  00044	99		 cdq
  00045	52		 push	 edx
  00046	50		 push	 eax
  00047	a1 00 00 00 00	 mov	 eax, DWORD PTR ?gObj@@3PAUOBJECTSTRUCT@@A ; gObj
  0004c	03 c7		 add	 eax, edi
  0004e	50		 push	 eax
  0004f	e8 00 00 00 00	 call	 ?LevelUp@CMasterExperience@@QAEHPAUOBJECTSTRUCT@@_J@Z ; CMasterExperience::LevelUp
  00054	85 c0		 test	 eax, eax
  00056	0f 85 86 00 00
	00		 jne	 $LN26@LevelUp

; 2452 : 	{
; 2453 : 		return FALSE;
; 2454 : 	}
; 2455 : 
; 2456 : 	gObjSetExpPetItem(iUserIndex, iAddExp);

  0005c	53		 push	 ebx
  0005d	56		 push	 esi
  0005e	e8 00 00 00 00	 call	 ?gObjSetExpPetItem@@YAXHH@Z ; gObjSetExpPetItem

; 2457 : 	int iLEFT_EXP = 0;
; 2458 : 
; 2459 : 	LogAddTD("Experience : Map[%d]-(%d,%d) [%s][%s](%d) %u %d",

  00063	8b 0d 00 00 00
	00		 mov	 ecx, DWORD PTR ?gObj@@3PAUOBJECTSTRUCT@@A ; gObj
  00069	33 f6		 xor	 esi, esi
  0006b	53		 push	 ebx
  0006c	ff b4 0f a0 00
	00 00		 push	 DWORD PTR [edi+ecx+160]
  00073	0f bf 84 0f 96
	00 00 00	 movsx	 eax, WORD PTR [edi+ecx+150]
  0007b	50		 push	 eax
  0007c	8d 41 5d	 lea	 eax, DWORD PTR [ecx+93]
  0007f	03 c7		 add	 eax, edi
  00081	50		 push	 eax
  00082	8d 41 52	 lea	 eax, DWORD PTR [ecx+82]
  00085	03 c7		 add	 eax, edi
  00087	50		 push	 eax
  00088	0f b6 84 0f 21
	01 00 00	 movzx	 eax, BYTE PTR [edi+ecx+289]
  00090	50		 push	 eax
  00091	0f b6 84 0f 20
	01 00 00	 movzx	 eax, BYTE PTR [edi+ecx+288]
  00099	50		 push	 eax
  0009a	0f b6 84 0f 23
	01 00 00	 movzx	 eax, BYTE PTR [edi+ecx+291]
  000a2	50		 push	 eax
  000a3	68 00 00 00 00	 push	 OFFSET ??_C@_0DA@OJELECPN@Experience?5?3?5Map?$FL?$CFd?$FN?9?$CI?$CFd?0?$CFd?$CJ?5?$FL?$CFs@
  000a8	ff 15 00 00 00
	00		 call	 DWORD PTR ?LogAddTD@@3P6AXPADZZA ; LogAddTD

; 2460 : 		gObj[iUserIndex].MapNumber, gObj[iUserIndex].X, gObj[iUserIndex].Y,
; 2461 : 		gObj[iUserIndex].AccountID, gObj[iUserIndex].Name,
; 2462 : 		gObj[iUserIndex].Level, gObj[iUserIndex].Experience, iAddExp);
; 2463 : 
; 2464 : 	if ( gObj[iUserIndex].Level >= MAX_CHAR_LEVEL )

  000ae	a1 00 00 00 00	 mov	 eax, DWORD PTR ?gObj@@3PAUOBJECTSTRUCT@@A ; gObj
  000b3	b9 90 01 00 00	 mov	 ecx, 400		; 00000190H
  000b8	83 c4 2c	 add	 esp, 44			; 0000002cH
  000bb	66 39 8c 07 96
	00 00 00	 cmp	 WORD PTR [edi+eax+150], cx
  000c3	7c 32		 jl	 SHORT $LN7@LevelUp

; 2465 : 	{
; 2466 : 		GCServerMsgStringSend(lMsg.Get(MSGGET(4, 112)), gObj[iUserIndex].m_Index, 1);

  000c5	6a 01		 push	 1
  000c7	ff 34 07	 push	 DWORD PTR [edi+eax]
  000ca	b9 00 00 00 00	 mov	 ecx, OFFSET ?lMsg@@3VMessage@@A ; lMsg
  000cf	68 70 04 00 00	 push	 1136			; 00000470H
  000d4	e8 00 00 00 00	 call	 ?Get@Message@@QAEPADH@Z	; Message::Get
  000d9	50		 push	 eax
  000da	e8 00 00 00 00	 call	 ?GCServerMsgStringSend@@YAXPADHE@Z ; GCServerMsgStringSend
  000df	83 c4 0c	 add	 esp, 12			; 0000000cH
$LN26@LevelUp:

; 2467 : 		return 0;

  000e2	5f		 pop	 edi
  000e3	5b		 pop	 ebx
  000e4	33 c0		 xor	 eax, eax
  000e6	5e		 pop	 esi

; 2549 : }

  000e7	8b 4d fc	 mov	 ecx, DWORD PTR __$ArrayPad$[ebp]
  000ea	33 cd		 xor	 ecx, ebp
  000ec	e8 00 00 00 00	 call	 @__security_check_cookie@4
  000f1	8b e5		 mov	 esp, ebp
  000f3	5d		 pop	 ebp
  000f4	c2 08 00	 ret	 8
$LN7@LevelUp:

; 2468 : 	}
; 2469 : 
; 2470 : 	if ( (gObj[iUserIndex].Experience + iAddExp) < gObj[iUserIndex].NextExp )

  000f7	8b 8c 07 a0 00
	00 00		 mov	 ecx, DWORD PTR [edi+eax+160]
  000fe	8b 94 07 a4 00
	00 00		 mov	 edx, DWORD PTR [edi+eax+164]
  00105	03 cb		 add	 ecx, ebx
  00107	3b ca		 cmp	 ecx, edx
  00109	73 1c		 jae	 SHORT $LN8@LevelUp

; 2471 : 	{
; 2472 : 		gObj[iUserIndex].Experience += iAddExp;

  0010b	89 8c 07 a0 00
	00 00		 mov	 DWORD PTR [edi+eax+160], ecx

; 2545 : 		}
; 2546 : 	}
; 2547 : 
; 2548 : 	return iLEFT_EXP;

  00112	8b c6		 mov	 eax, esi
  00114	5f		 pop	 edi
  00115	5b		 pop	 ebx
  00116	5e		 pop	 esi

; 2549 : }

  00117	8b 4d fc	 mov	 ecx, DWORD PTR __$ArrayPad$[ebp]
  0011a	33 cd		 xor	 ecx, ebp
  0011c	e8 00 00 00 00	 call	 @__security_check_cookie@4
  00121	8b e5		 mov	 esp, ebp
  00123	5d		 pop	 ebp
  00124	c2 08 00	 ret	 8
$LN8@LevelUp:

; 2473 : 	}
; 2474 : 	else
; 2475 : 	{
; 2476 : 		iLEFT_EXP = gObj[iUserIndex].Experience + iAddExp - gObj[iUserIndex].NextExp;

  00127	8b 8c 07 a0 00
	00 00		 mov	 ecx, DWORD PTR [edi+eax+160]

; 2477 : 		gObj[iUserIndex].Experience = gObj[iUserIndex].NextExp;

  0012e	89 94 07 a0 00
	00 00		 mov	 DWORD PTR [edi+eax+160], edx
  00135	2b ca		 sub	 ecx, edx

; 2478 : 		gObj[iUserIndex].Level++;

  00137	a1 00 00 00 00	 mov	 eax, DWORD PTR ?gObj@@3PAUOBJECTSTRUCT@@A ; gObj
  0013c	03 cb		 add	 ecx, ebx

; 2479 : #if (ENABLE_CUSTOM_CLASSCALC == 1)
; 2480 : 		gObj[iUserIndex].LevelUpPoint += g_ClassCalc.GetLevelPoint(&gObj[iUserIndex], 0, 0);

  0013e	6a 00		 push	 0
  00140	6a 00		 push	 0
  00142	89 8d f8 fe ff
	ff		 mov	 DWORD PTR _iLEFT_EXP$1$[ebp], ecx
  00148	b9 00 00 00 00	 mov	 ecx, OFFSET ?g_ClassCalc@@3VClassCalc@@A ; g_ClassCalc
  0014d	66 ff 84 07 96
	00 00 00	 inc	 WORD PTR [edi+eax+150]
  00155	8b 35 00 00 00
	00		 mov	 esi, DWORD PTR ?gObj@@3PAUOBJECTSTRUCT@@A ; gObj
  0015b	8d 04 37	 lea	 eax, DWORD PTR [edi+esi]
  0015e	50		 push	 eax
  0015f	e8 00 00 00 00	 call	 ?GetLevelPoint@ClassCalc@@QAEGPAUOBJECTSTRUCT@@EE@Z ; ClassCalc::GetLevelPoint
  00164	0f b7 c0	 movzx	 eax, ax
  00167	01 84 37 98 00
	00 00		 add	 DWORD PTR [edi+esi+152], eax

; 2481 : #else
; 2482 : 		if( gObj[iUserIndex].Class == CLASS_DARKLORD )
; 2483 : 		{
; 2484 : 			gObj[iUserIndex].LevelUpPoint += 7;
; 2485 : 		}
; 2486 : 		else if( gObj[iUserIndex].Class == CLASS_MAGUMSA )
; 2487 : 		{
; 2488 : 			gObj[iUserIndex].LevelUpPoint += 7;
; 2489 : 		}
; 2490 : 		else if( gObj[iUserIndex].Class == CLASS_FIGHTER )
; 2491 : 		{
; 2492 : 			gObj[iUserIndex].LevelUpPoint += 7;
; 2493 : 		}
; 2494 : 		else
; 2495 : 		{
; 2496 : 			gObj[iUserIndex].LevelUpPoint += 5;
; 2497 : 		}
; 2498 : #endif
; 2499 : 
; 2500 : 		if( gObj[iUserIndex].PlusStatQuestClear != false )

  0016e	8b 35 00 00 00
	00		 mov	 esi, DWORD PTR ?gObj@@3PAUOBJECTSTRUCT@@A ; gObj
  00174	80 7c 37 7c 00	 cmp	 BYTE PTR [edi+esi+124], 0
  00179	8d 04 37	 lea	 eax, DWORD PTR [edi+esi]
  0017c	74 46		 je	 SHORT $LN10@LevelUp

; 2501 : 		{
; 2502 : #if (ENABLE_CUSTOM_CLASSCALC == 1)
; 2503 : 			gObj[iUserIndex].LevelUpPoint += g_ClassCalc.GetLevelPoint(&gObj[iUserIndex], 0, 1);

  0017e	6a 01		 push	 1
  00180	6a 00		 push	 0
  00182	50		 push	 eax
  00183	b9 00 00 00 00	 mov	 ecx, OFFSET ?g_ClassCalc@@3VClassCalc@@A ; g_ClassCalc
  00188	e8 00 00 00 00	 call	 ?GetLevelPoint@ClassCalc@@QAEGPAUOBJECTSTRUCT@@EE@Z ; ClassCalc::GetLevelPoint
  0018d	0f b7 c0	 movzx	 eax, ax
  00190	01 84 37 98 00
	00 00		 add	 DWORD PTR [edi+esi+152], eax

; 2504 : #else
; 2505 : 			gObj[iUserIndex].LevelUpPoint += 1;
; 2506 : #endif
; 2507 : 			LogAddTD("[%s][%s] LevelUp PlusStatQuest Clear AddStat %d",

  00197	8b 0d 00 00 00
	00		 mov	 ecx, DWORD PTR ?gObj@@3PAUOBJECTSTRUCT@@A ; gObj
  0019d	ff b4 0f 98 00
	00 00		 push	 DWORD PTR [edi+ecx+152]
  001a4	8d 41 5d	 lea	 eax, DWORD PTR [ecx+93]
  001a7	03 c7		 add	 eax, edi
  001a9	50		 push	 eax
  001aa	8d 41 52	 lea	 eax, DWORD PTR [ecx+82]
  001ad	03 c7		 add	 eax, edi
  001af	50		 push	 eax
  001b0	68 00 00 00 00	 push	 OFFSET ??_C@_0DA@KDBPKGIM@?$FL?$CFs?$FN?$FL?$CFs?$FN?5LevelUp?5PlusStatQuest?5C@
  001b5	ff 15 00 00 00
	00		 call	 DWORD PTR ?LogAddTD@@3P6AXPADZZA ; LogAddTD
  001bb	8b 35 00 00 00
	00		 mov	 esi, DWORD PTR ?gObj@@3PAUOBJECTSTRUCT@@A ; gObj
  001c1	83 c4 10	 add	 esp, 16			; 00000010H
$LN10@LevelUp:

; 2508 : 				gObj[iUserIndex].AccountID, gObj[iUserIndex].Name,
; 2509 : 				gObj[iUserIndex].LevelUpPoint);
; 2510 : 		}
; 2511 : 
; 2512 : 		gObj[iUserIndex].MaxLife += DCInfo.DefClass[gObj[iUserIndex].Class].LevelLife;

  001c4	0f b7 84 37 90
	00 00 00	 movzx	 eax, WORD PTR [edi+esi+144]
  001cc	69 c0 c8 0b 00
	00		 imul	 eax, eax, 3016
  001d2	f3 0f 10 80 10
	00 00 00	 movss	 xmm0, DWORD PTR ?DCInfo@@3Vclassdef@@A[eax+16]
  001da	f3 0f 58 84 37
	dc 00 00 00	 addss	 xmm0, DWORD PTR [edi+esi+220]
  001e3	f3 0f 11 84 37
	dc 00 00 00	 movss	 DWORD PTR [edi+esi+220], xmm0

; 2513 : 		gObj[iUserIndex].MaxMana += DCInfo.DefClass[gObj[iUserIndex].Class].LevelMana;

  001ec	8b 0d 00 00 00
	00		 mov	 ecx, DWORD PTR ?gObj@@3PAUOBJECTSTRUCT@@A ; gObj
  001f2	0f b7 84 0f 90
	00 00 00	 movzx	 eax, WORD PTR [edi+ecx+144]
  001fa	69 c0 c8 0b 00
	00		 imul	 eax, eax, 3016
  00200	f3 0f 10 80 1c
	00 00 00	 movss	 xmm0, DWORD PTR ?DCInfo@@3Vclassdef@@A[eax+28]
  00208	f3 0f 58 84 0f
	f0 00 00 00	 addss	 xmm0, DWORD PTR [edi+ecx+240]
  00211	f3 0f 11 84 0f
	f0 00 00 00	 movss	 DWORD PTR [edi+ecx+240], xmm0

; 2514 : 		gObj[iUserIndex].Life = gObj[iUserIndex].MaxLife;

  0021a	8b 0d 00 00 00
	00		 mov	 ecx, DWORD PTR ?gObj@@3PAUOBJECTSTRUCT@@A ; gObj
  00220	8b 84 0f dc 00
	00 00		 mov	 eax, DWORD PTR [edi+ecx+220]
  00227	89 84 0f d8 00
	00 00		 mov	 DWORD PTR [edi+ecx+216], eax

; 2515 : 		gObj[iUserIndex].Mana = gObj[iUserIndex].MaxMana;

  0022e	8b 0d 00 00 00
	00		 mov	 ecx, DWORD PTR ?gObj@@3PAUOBJECTSTRUCT@@A ; gObj
  00234	8b 84 0f f0 00
	00 00		 mov	 eax, DWORD PTR [edi+ecx+240]
  0023b	89 84 0f ec 00
	00 00		 mov	 DWORD PTR [edi+ecx+236], eax

; 2516 : 		gObjNextExpCal(&gObj[iUserIndex]);

  00242	a1 00 00 00 00	 mov	 eax, DWORD PTR ?gObj@@3PAUOBJECTSTRUCT@@A ; gObj
  00247	03 c7		 add	 eax, edi
  00249	50		 push	 eax
  0024a	e8 00 00 00 00	 call	 ?gObjNextExpCal@@YAXPAUOBJECTSTRUCT@@@Z ; gObjNextExpCal

; 2517 : 		gObjSetBP(gObj[iUserIndex].m_Index);

  0024f	a1 00 00 00 00	 mov	 eax, DWORD PTR ?gObj@@3PAUOBJECTSTRUCT@@A ; gObj
  00254	ff 34 07	 push	 DWORD PTR [edi+eax]
  00257	e8 00 00 00 00	 call	 ?gObjSetBP@@YAXH@Z	; gObjSetBP

; 2518 : 		GCLevelUpMsgSend(gObj[iUserIndex].m_Index, 1);

  0025c	a1 00 00 00 00	 mov	 eax, DWORD PTR ?gObj@@3PAUOBJECTSTRUCT@@A ; gObj
  00261	6a 01		 push	 1
  00263	ff 34 07	 push	 DWORD PTR [edi+eax]
  00266	e8 00 00 00 00	 call	 ?GCLevelUpMsgSend@@YAXHH@Z ; GCLevelUpMsgSend

; 2519 : //		gObjCalcMaxLifePower(gObj[iUserIndex].m_Index);
; 2520 : 
; 2521 : 		LogAddTD(lMsg.Get(MSGGET(2, 8)), gObj[iUserIndex].AccountID,

  0026b	8b 0d 00 00 00
	00		 mov	 ecx, DWORD PTR ?gObj@@3PAUOBJECTSTRUCT@@A ; gObj
  00271	83 c4 10	 add	 esp, 16			; 00000010H
  00274	0f bf 84 0f 96
	00 00 00	 movsx	 eax, WORD PTR [edi+ecx+150]
  0027c	50		 push	 eax
  0027d	8d 41 5d	 lea	 eax, DWORD PTR [ecx+93]
  00280	03 c7		 add	 eax, edi
  00282	50		 push	 eax
  00283	8d 41 52	 lea	 eax, DWORD PTR [ecx+82]
  00286	b9 00 00 00 00	 mov	 ecx, OFFSET ?lMsg@@3VMessage@@A ; lMsg
  0028b	03 c7		 add	 eax, edi
  0028d	50		 push	 eax
  0028e	68 08 02 00 00	 push	 520			; 00000208H
  00293	e8 00 00 00 00	 call	 ?Get@Message@@QAEPADH@Z	; Message::Get
  00298	50		 push	 eax
  00299	ff 15 00 00 00
	00		 call	 DWORD PTR ?LogAddTD@@3P6AXPADZZA ; LogAddTD

; 2522 : 			gObj[iUserIndex].Name, gObj[iUserIndex].Level);
; 2523 : 
; 2524 : 
; 2525 : 		if( gObj[iUserIndex].Level == 400 && gObj[iUserIndex].PartyNumber >= 0 )

  0029f	8b 0d 00 00 00
	00		 mov	 ecx, DWORD PTR ?gObj@@3PAUOBJECTSTRUCT@@A ; gObj
  002a5	b8 90 01 00 00	 mov	 eax, 400		; 00000190H
  002aa	83 c4 10	 add	 esp, 16			; 00000010H
  002ad	66 39 84 0f 96
	00 00 00	 cmp	 WORD PTR [edi+ecx+150], ax
  002b5	0f 85 a4 00 00
	00		 jne	 $LN23@LevelUp
  002bb	8b b4 0f 0c 06
	00 00		 mov	 esi, DWORD PTR [edi+ecx+1548]
  002c2	85 f6		 test	 esi, esi
  002c4	0f 88 95 00 00
	00		 js	 $LN23@LevelUp

; 2526 : 		{
; 2527 : 			int partynumber = gObj[iUserIndex].PartyNumber;
; 2528 : 			char szTmp[256];
; 2529 : 
; 2530 : 			sprintf(szTmp,"400 LevelUp (%s)(%s) Party ",gObj[iUserIndex].AccountID,gObj[iUserIndex].Name);

  002ca	8d 41 5d	 lea	 eax, DWORD PTR [ecx+93]
  002cd	03 c7		 add	 eax, edi
  002cf	50		 push	 eax
  002d0	8d 41 52	 lea	 eax, DWORD PTR [ecx+82]
  002d3	03 c7		 add	 eax, edi
  002d5	50		 push	 eax
  002d6	8d 85 fc fe ff
	ff		 lea	 eax, DWORD PTR _szTmp$1[ebp]
  002dc	68 00 00 00 00	 push	 OFFSET ??_C@_0BM@DJAOLMAF@400?5LevelUp?5?$CI?$CFs?$CJ?$CI?$CFs?$CJ?5Party?5?$AA@
  002e1	50		 push	 eax
  002e2	e8 00 00 00 00	 call	 _sprintf
  002e7	8b c6		 mov	 eax, esi
  002e9	83 c4 10	 add	 esp, 16			; 00000010H
  002ec	c1 e0 04	 shl	 eax, 4
  002ef	bb 05 00 00 00	 mov	 ebx, 5
  002f4	2b c6		 sub	 eax, esi
  002f6	8d 3c 85 0c 00
	00 00		 lea	 edi, DWORD PTR ?gParty@@3VPartyClass@@A[eax*4+12]
  002fd	0f 1f 00	 npad	 3
$LL4@LevelUp:

; 2535 : 			{
; 2536 : 				tObjNum = gParty.m_PartyS[partynumber].Number[i];

  00300	8b 0f		 mov	 ecx, DWORD PTR [edi]

; 2537 : 				if( tObjNum >= 0 )

  00302	85 c9		 test	 ecx, ecx
  00304	78 41		 js	 SHORT $LN2@LevelUp

; 2538 : 				{
; 2539 : 					int len = strlen(szTmp);

  00306	8d b5 fc fe ff
	ff		 lea	 esi, DWORD PTR _szTmp$1[ebp]
  0030c	8d 56 01	 lea	 edx, DWORD PTR [esi+1]
  0030f	90		 npad	 1
$LL21@LevelUp:
  00310	8a 06		 mov	 al, BYTE PTR [esi]
  00312	46		 inc	 esi
  00313	84 c0		 test	 al, al
  00315	75 f9		 jne	 SHORT $LL21@LevelUp
  00317	2b f2		 sub	 esi, edx

; 2540 : 					sprintf(&szTmp[len],",(%s)(%s) ",gObj[tObjNum].AccountID,gObj[tObjNum].Name);

  00319	69 d1 40 27 00
	00		 imul	 edx, ecx, 10048
  0031f	8b 0d 00 00 00
	00		 mov	 ecx, DWORD PTR ?gObj@@3PAUOBJECTSTRUCT@@A ; gObj
  00325	8d 41 5d	 lea	 eax, DWORD PTR [ecx+93]
  00328	03 c2		 add	 eax, edx
  0032a	50		 push	 eax
  0032b	8d 41 52	 lea	 eax, DWORD PTR [ecx+82]
  0032e	03 c2		 add	 eax, edx
  00330	50		 push	 eax
  00331	8d 85 fc fe ff
	ff		 lea	 eax, DWORD PTR _szTmp$1[ebp]
  00337	03 c6		 add	 eax, esi
  00339	68 00 00 00 00	 push	 OFFSET ??_C@_0L@MNKEEMGH@?0?$CI?$CFs?$CJ?$CI?$CFs?$CJ?5?$AA@
  0033e	50		 push	 eax
  0033f	e8 00 00 00 00	 call	 _sprintf
  00344	83 c4 10	 add	 esp, 16			; 00000010H
$LN2@LevelUp:

; 2531 : 
; 2532 : 			int tObjNum;
; 2533 : 
; 2534 : 			for(int i = 0; i < 5; i++)

  00347	83 c7 04	 add	 edi, 4
  0034a	83 eb 01	 sub	 ebx, 1
  0034d	75 b1		 jne	 SHORT $LL4@LevelUp

; 2541 : 				}
; 2542 : 			}
; 2543 : 
; 2544 : 			LogAddTD(szTmp);

  0034f	8d 85 fc fe ff
	ff		 lea	 eax, DWORD PTR _szTmp$1[ebp]
  00355	50		 push	 eax
  00356	ff 15 00 00 00
	00		 call	 DWORD PTR ?LogAddTD@@3P6AXPADZZA ; LogAddTD
  0035c	83 c4 04	 add	 esp, 4
$LN23@LevelUp:

; 2545 : 		}
; 2546 : 	}
; 2547 : 
; 2548 : 	return iLEFT_EXP;

  0035f	8b b5 f8 fe ff
	ff		 mov	 esi, DWORD PTR _iLEFT_EXP$1$[ebp]
  00365	8b c6		 mov	 eax, esi
  00367	5f		 pop	 edi
  00368	5b		 pop	 ebx
  00369	5e		 pop	 esi

; 2549 : }

  0036a	8b 4d fc	 mov	 ecx, DWORD PTR __$ArrayPad$[ebp]
  0036d	33 cd		 xor	 ecx, ebp
  0036f	e8 00 00 00 00	 call	 @__security_check_cookie@4
  00374	8b e5		 mov	 esp, ebp
  00376	5d		 pop	 ebp
  00377	c2 08 00	 ret	 8
$LN20@LevelUp:
  0037a	8b 4d fc	 mov	 ecx, DWORD PTR __$ArrayPad$[ebp]
  0037d	33 c0		 xor	 eax, eax
  0037f	33 cd		 xor	 ecx, ebp
  00381	5e		 pop	 esi
  00382	e8 00 00 00 00	 call	 @__security_check_cookie@4
  00387	8b e5		 mov	 esp, ebp
  00389	5d		 pop	 ebp
  0038a	c2 08 00	 ret	 8
?LevelUp@CIllusionTempleProcess@@QAEHHH@Z ENDP		; CIllusionTempleProcess::LevelUp
_TEXT	ENDS
; Function compile flags: /Ogtp
; File c:\users\michel\desktop\source\gameserver\source\illusiontempleprocess.cpp
;	COMDAT ?SendRewardExp@CIllusionTempleProcess@@QAEXXZ
_TEXT	SEGMENT
_pMsgBody$1 = -312					; size = 20
tv791 = -292						; size = 4
tv802 = -288						; size = 4
_this$GSCopy$1$ = -284					; size = 4
_lOfs$1$ = -280						; size = 4
tv797 = -276						; size = 4
tv800 = -272						; size = 4
_pMsg$ = -268						; size = 7
_SendData$ = -260					; size = 256
__$ArrayPad$ = -4					; size = 4
?SendRewardExp@CIllusionTempleProcess@@QAEXXZ PROC	; CIllusionTempleProcess::SendRewardExp, COMDAT
; _this$ = ecx

; 2608 : {

  00000	55		 push	 ebp
  00001	8b ec		 mov	 ebp, esp
  00003	81 ec 38 01 00
	00		 sub	 esp, 312		; 00000138H
  00009	a1 00 00 00 00	 mov	 eax, DWORD PTR ___security_cookie
  0000e	33 c5		 xor	 eax, ebp
  00010	89 45 fc	 mov	 DWORD PTR __$ArrayPad$[ebp], eax

; 2609 : 	int lOfs = 0;
; 2610 : 	BYTE SendData[256];
; 2611 : 	PMSG_ILLUSIONTEMPLE_SCOREINFO pMsg;
; 2612 : 
; 2613 : 	pMsg.Score[0] = m_ALLIED_TEAM_PTS;

  00013	0f b6 81 d0 03
	00 00		 movzx	 eax, BYTE PTR [ecx+976]
  0001a	ba 0a 00 00 00	 mov	 edx, 10			; 0000000aH
  0001f	88 85 f8 fe ff
	ff		 mov	 BYTE PTR _pMsg$[ebp+4], al

; 2614 : 	pMsg.Score[1] = m_ILLUSION_TEAM_PTS;

  00025	0f b6 81 d1 03
	00 00		 movzx	 eax, BYTE PTR [ecx+977]
  0002c	53		 push	 ebx
  0002d	88 85 f9 fe ff
	ff		 mov	 BYTE PTR _pMsg$[ebp+5], al

; 2615 : 	pMsg.count = UserCount;

  00033	0f b6 81 28 02
	00 00		 movzx	 eax, BYTE PTR [ecx+552]
  0003a	56		 push	 esi
  0003b	8d 71 20	 lea	 esi, DWORD PTR [ecx+32]
  0003e	88 85 fa fe ff
	ff		 mov	 BYTE PTR _pMsg$[ebp+6], al
  00044	8d 85 03 ff ff
	ff		 lea	 eax, DWORD PTR _SendData$[ebp+7]
  0004a	89 b5 dc fe ff
	ff		 mov	 DWORD PTR tv791[ebp], esi
  00050	8b de		 mov	 ebx, esi
  00052	89 8d e4 fe ff
	ff		 mov	 DWORD PTR _this$GSCopy$1$[ebp], ecx
  00058	57		 push	 edi

; 2616 : 
; 2617 : 	lOfs += sizeof(pMsg);

  00059	c7 85 e8 fe ff
	ff 07 00 00 00	 mov	 DWORD PTR _lOfs$1$[ebp], 7
  00063	8b f1		 mov	 esi, ecx
  00065	89 85 f0 fe ff
	ff		 mov	 DWORD PTR tv800[ebp], eax
  0006b	89 95 e0 fe ff
	ff		 mov	 DWORD PTR tv802[ebp], edx
$LL4@SendReward:

; 2621 : 	{
; 2622 : 		if( m_PlayerData[i].m_Index != -1 &&

  00071	8b 03		 mov	 eax, DWORD PTR [ebx]
  00073	83 f8 ff	 cmp	 eax, -1
  00076	0f 84 d2 00 00
	00		 je	 $LN2@SendReward
  0007c	69 c8 40 27 00
	00		 imul	 ecx, eax, 10048
  00082	a1 00 00 00 00	 mov	 eax, DWORD PTR ?gObj@@3PAUOBJECTSTRUCT@@A ; gObj
  00087	03 c1		 add	 eax, ecx
  00089	89 85 ec fe ff
	ff		 mov	 DWORD PTR tv797[ebp], eax
  0008f	83 78 04 02	 cmp	 DWORD PTR [eax+4], 2
  00093	0f 8e b5 00 00
	00		 jle	 $LN2@SendReward

; 2623 : 			gObj[m_PlayerData[i].m_Index].Connected > PLAYER_LOGGED)
; 2624 : 		{
; 2625 : 			ILLUSIONTEMPLE_SCOREINFO pMsgBody;
; 2626 : 			memcpy(pMsgBody.Name,gObj[m_PlayerData[i].m_Index].Name,10);
; 2627 : 			pMsgBody.Map = Temple + MAP_INDEX_ILLUSIONTEMPLE1;

  00099	8a 96 2c 02 00
	00		 mov	 dl, BYTE PTR [esi+556]
  0009f	8d 78 5d	 lea	 edi, DWORD PTR [eax+93]
  000a2	66 8b 47 08	 mov	 ax, WORD PTR [edi+8]

; 2628 : 			pMsgBody.Team = m_PlayerData[i].m_Team;
; 2629 : 			pMsgBody.Class = (BYTE)gObj[m_PlayerData[i].m_Index].Class;
; 2630 : 			pMsgBody.Exp = (int)m_PlayerData[i].m_RewardExp;
; 2631 : 
; 2632 : 			memcpy(&SendData[lOfs],&pMsgBody,sizeof(pMsgBody));
; 2633 : 			lOfs += sizeof(pMsgBody);
; 2634 : 
; 2635 : 			LogAddTD("[Illusion Temple] (%d) RewardExp Result  (Account:%s, Name:%s, Team:%d, Class:%d, UserKillCount:%d, RelicsMoveCount:%d, RewardExp:%d, RankingPoint: %d)",

  000a6	ff 73 20	 push	 DWORD PTR [ebx+32]
  000a9	f3 0f 7e 07	 movq	 xmm0, QWORD PTR [edi]
  000ad	ff 73 1c	 push	 DWORD PTR [ebx+28]
  000b0	8a 4b 04	 mov	 cl, BYTE PTR [ebx+4]
  000b3	8b b5 f0 fe ff
	ff		 mov	 esi, DWORD PTR tv800[ebp]
  000b9	66 89 85 d0 fe
	ff ff		 mov	 WORD PTR _pMsgBody$1[ebp+8], ax
  000c0	8d 42 2d	 lea	 eax, DWORD PTR [edx+45]
  000c3	88 85 d2 fe ff
	ff		 mov	 BYTE PTR _pMsgBody$1[ebp+10], al
  000c9	8b 85 ec fe ff
	ff		 mov	 eax, DWORD PTR tv797[ebp]
  000cf	66 0f d6 85 c8
	fe ff ff	 movq	 QWORD PTR _pMsgBody$1[ebp], xmm0
  000d7	88 8d d3 fe ff
	ff		 mov	 BYTE PTR _pMsgBody$1[ebp+11], cl
  000dd	83 85 e8 fe ff
	ff 14		 add	 DWORD PTR _lOfs$1$[ebp], 20 ; 00000014H
  000e4	8a 80 90 00 00
	00		 mov	 al, BYTE PTR [eax+144]
  000ea	88 85 d4 fe ff
	ff		 mov	 BYTE PTR _pMsgBody$1[ebp+12], al
  000f0	0f 10 85 c8 fe
	ff ff		 movups	 xmm0, XMMWORD PTR _pMsgBody$1[ebp]
  000f7	8b 43 18	 mov	 eax, DWORD PTR [ebx+24]
  000fa	50		 push	 eax
  000fb	0f 11 06	 movups	 XMMWORD PTR [esi], xmm0
  000fe	89 46 10	 mov	 DWORD PTR [esi+16], eax
  00101	0f b6 43 12	 movzx	 eax, BYTE PTR [ebx+18]
  00105	50		 push	 eax
  00106	0f b6 43 10	 movzx	 eax, BYTE PTR [ebx+16]
  0010a	50		 push	 eax
  0010b	8b 85 ec fe ff
	ff		 mov	 eax, DWORD PTR tv797[ebp]
  00111	83 85 f0 fe ff
	ff 14		 add	 DWORD PTR tv800[ebp], 20 ; 00000014H
  00118	0f b6 80 92 00
	00 00		 movzx	 eax, BYTE PTR [eax+146]
  0011f	50		 push	 eax
  00120	0f b6 c1	 movzx	 eax, cl
  00123	50		 push	 eax
  00124	8b 85 ec fe ff
	ff		 mov	 eax, DWORD PTR tv797[ebp]
  0012a	83 c0 52	 add	 eax, 82			; 00000052H
  0012d	57		 push	 edi
  0012e	50		 push	 eax
  0012f	0f b6 c2	 movzx	 eax, dl
  00132	40		 inc	 eax
  00133	50		 push	 eax
  00134	68 00 00 00 00	 push	 OFFSET ??_C@_0JI@DILJDNAH@?$FLIllusion?5Temple?$FN?5?$CI?$CFd?$CJ?5RewardExp@
  00139	ff 15 00 00 00
	00		 call	 DWORD PTR ?LogAddTD@@3P6AXPADZZA ; LogAddTD
  0013f	8b 95 e0 fe ff
	ff		 mov	 edx, DWORD PTR tv802[ebp]
  00145	83 c4 2c	 add	 esp, 44			; 0000002cH
  00148	8b b5 e4 fe ff
	ff		 mov	 esi, DWORD PTR _this$GSCopy$1$[ebp]
$LN2@SendReward:

; 2618 : 
; 2619 : 	int i;
; 2620 : 	for(i = 0; i < IT_MAXPLAYER; i++)

  0014e	83 c3 30	 add	 ebx, 48			; 00000030H
  00151	83 ea 01	 sub	 edx, 1
  00154	89 95 e0 fe ff
	ff		 mov	 DWORD PTR tv802[ebp], edx
  0015a	0f 85 11 ff ff
	ff		 jne	 $LL4@SendReward

; 2636 : 				Temple+1,gObj[m_PlayerData[i].m_Index].AccountID,gObj[m_PlayerData[i].m_Index].Name,
; 2637 : 				m_PlayerData[i].m_Team,gObj[m_PlayerData[i].m_Index].DbClass,m_PlayerData[i].m_PlayerKillCount,
; 2638 : 				m_PlayerData[i].m_RelicSuccess,m_PlayerData[i].m_RewardExp,m_PlayerData[i].m_RankPoint);
; 2639 : 		}
; 2640 : 	}
; 2641 : 
; 2642 : 	PHeadSubSetB((LPBYTE)&pMsg,0xBF,0x04,lOfs);

  00160	8b 85 e8 fe ff
	ff		 mov	 eax, DWORD PTR _lOfs$1$[ebp]
  00166	50		 push	 eax
  00167	6a 04		 push	 4
  00169	8d 85 f4 fe ff
	ff		 lea	 eax, DWORD PTR _pMsg$[ebp]
  0016f	68 bf 00 00 00	 push	 191			; 000000bfH
  00174	50		 push	 eax
  00175	e8 00 00 00 00	 call	 ?PHeadSubSetB@@YAXPAEEEH@Z ; PHeadSubSetB

; 2643 : 	memcpy(&SendData[0],&pMsg,sizeof(pMsg));

  0017a	8b 85 f4 fe ff
	ff		 mov	 eax, DWORD PTR _pMsg$[ebp]
  00180	83 c4 10	 add	 esp, 16			; 00000010H
  00183	8b b5 dc fe ff
	ff		 mov	 esi, DWORD PTR tv791[ebp]
  00189	bf 0a 00 00 00	 mov	 edi, 10			; 0000000aH
  0018e	89 85 fc fe ff
	ff		 mov	 DWORD PTR _SendData$[ebp], eax
  00194	66 8b 85 f8 fe
	ff ff		 mov	 ax, WORD PTR _pMsg$[ebp+4]
  0019b	66 89 85 00 ff
	ff ff		 mov	 WORD PTR _SendData$[ebp+4], ax
  001a2	8a 85 fa fe ff
	ff		 mov	 al, BYTE PTR _pMsg$[ebp+6]
  001a8	88 85 02 ff ff
	ff		 mov	 BYTE PTR _SendData$[ebp+6], al
  001ae	66 90		 npad	 2
$LL7@SendReward:

; 2646 : 	{
; 2647 : 		if( m_PlayerData[i].m_Team == (BYTE)-1 )

  001b0	80 7e 04 ff	 cmp	 BYTE PTR [esi+4], 255	; 000000ffH
  001b4	74 31		 je	 SHORT $LN5@SendReward

; 2648 : 			continue;
; 2649 : 
; 2650 : 		if( m_PlayerData[i].m_Index != -1 &&

  001b6	8b 16		 mov	 edx, DWORD PTR [esi]
  001b8	83 fa ff	 cmp	 edx, -1
  001bb	74 2a		 je	 SHORT $LN5@SendReward
  001bd	a1 00 00 00 00	 mov	 eax, DWORD PTR ?gObj@@3PAUOBJECTSTRUCT@@A ; gObj
  001c2	69 ca 40 27 00
	00		 imul	 ecx, edx, 10048
  001c8	83 7c 01 04 02	 cmp	 DWORD PTR [ecx+eax+4], 2
  001cd	7e 18		 jle	 SHORT $LN5@SendReward

; 2651 : 			gObj[m_PlayerData[i].m_Index].Connected > PLAYER_LOGGED)
; 2652 : 		{
; 2653 : 			DataSend(m_PlayerData[i].m_Index,SendData,pMsg.h.size);

  001cf	0f b6 85 f5 fe
	ff ff		 movzx	 eax, BYTE PTR _pMsg$[ebp+1]
  001d6	50		 push	 eax
  001d7	8d 85 fc fe ff
	ff		 lea	 eax, DWORD PTR _SendData$[ebp]
  001dd	50		 push	 eax
  001de	52		 push	 edx
  001df	e8 00 00 00 00	 call	 ?DataSend@@YAHHPAEK@Z	; DataSend
  001e4	83 c4 0c	 add	 esp, 12			; 0000000cH
$LN5@SendReward:

; 2644 : 
; 2645 : 	for(i = 0; i < IT_MAXPLAYER; i++)

  001e7	83 c6 30	 add	 esi, 48			; 00000030H
  001ea	83 ef 01	 sub	 edi, 1
  001ed	75 c1		 jne	 SHORT $LL7@SendReward

; 2654 : 		}
; 2655 : 	}
; 2656 : }

  001ef	8b 4d fc	 mov	 ecx, DWORD PTR __$ArrayPad$[ebp]
  001f2	5f		 pop	 edi
  001f3	5e		 pop	 esi
  001f4	33 cd		 xor	 ecx, ebp
  001f6	5b		 pop	 ebx
  001f7	e8 00 00 00 00	 call	 @__security_check_cookie@4
  001fc	8b e5		 mov	 esp, ebp
  001fe	5d		 pop	 ebp
  001ff	c3		 ret	 0
?SendRewardExp@CIllusionTempleProcess@@QAEXXZ ENDP	; CIllusionTempleProcess::SendRewardExp
_TEXT	ENDS
; Function compile flags: /Ogtp
; File c:\users\michel\desktop\source\gameserver\source\illusiontempleprocess.cpp
;	COMDAT ?CalcWinRewardExp@CIllusionTempleProcess@@QAEXXZ
_TEXT	SEGMENT
tv1052 = -16						; size = 4
tv1048 = -12						; size = 4
tv1047 = -12						; size = 4
tv1029 = -12						; size = 4
_iRET_EXP$1$ = -12					; size = 4
_PartyCount$1$ = -12					; size = 4
_AlliedReward$1$ = -8					; size = 4
_IllusionReward$1$ = -4					; size = 4
?CalcWinRewardExp@CIllusionTempleProcess@@QAEXXZ PROC	; CIllusionTempleProcess::CalcWinRewardExp, COMDAT
; _this$ = ecx

; 2197 : {

  00000	55		 push	 ebp
  00001	8b ec		 mov	 ebp, esp
  00003	83 ec 10	 sub	 esp, 16			; 00000010H
  00006	53		 push	 ebx
  00007	56		 push	 esi
  00008	57		 push	 edi
  00009	8b d9		 mov	 ebx, ecx

; 2198 : 	CheckUsers();

  0000b	e8 00 00 00 00	 call	 ?CheckUsers@CIllusionTempleProcess@@QAEXXZ ; CIllusionTempleProcess::CheckUsers

; 2199 : 	int AlliedReward = 0;
; 2200 : 	int IllusionReward = 0;
; 2201 : 
; 2202 : 	if( m_ALLIED_TEAM_PTS >= 2 && m_ALLIED_TEAM_PTS > m_ILLUSION_TEAM_PTS )

  00010	8a ab d0 03 00
	00		 mov	 ch, BYTE PTR [ebx+976]
  00016	80 fd 02	 cmp	 ch, 2
  00019	72 52		 jb	 SHORT $LN9@CalcWinRew
  0001b	8a 8b d1 03 00
	00		 mov	 cl, BYTE PTR [ebx+977]
  00021	3a e9		 cmp	 ch, cl
  00023	76 48		 jbe	 SHORT $LN9@CalcWinRew

; 2203 : 	{
; 2204 : 		m_WinTeam = IT_ALLIED_TEAM;
; 2205 : 		AlliedReward = (IT_REWARD_A[Temple] + (m_ALLIED_TEAM_PTS - m_ILLUSION_TEAM_PTS)*IT_REWARD_B[Temple])*2;

  00025	0f b6 93 2c 02
	00 00		 movzx	 edx, BYTE PTR [ebx+556]
  0002c	0f b6 c1	 movzx	 eax, cl
  0002f	89 45 f4	 mov	 DWORD PTR tv1048[ebp], eax
  00032	0f b6 c5	 movzx	 eax, ch
  00035	2b 45 f4	 sub	 eax, DWORD PTR tv1048[ebp]
  00038	8b 34 95 00 00
	00 00		 mov	 esi, DWORD PTR ?IT_REWARD_B@@3PAHA[edx*4]
  0003f	8b 3c 95 00 00
	00 00		 mov	 edi, DWORD PTR ?IT_REWARD_A@@3PAHA[edx*4]
  00046	0f af c6	 imul	 eax, esi
  00049	c6 83 d2 03 00
	00 00		 mov	 BYTE PTR [ebx+978], 0
  00050	89 7d fc	 mov	 DWORD PTR _IllusionReward$1$[ebp], edi
  00053	03 c7		 add	 eax, edi
  00055	03 c0		 add	 eax, eax
  00057	89 45 f8	 mov	 DWORD PTR _AlliedReward$1$[ebp], eax

; 2206 : 
; 2207 : 		if( m_ILLUSION_TEAM_PTS == 0 )

  0005a	84 c9		 test	 cl, cl
  0005c	0f 84 9c 00 00
	00		 je	 $LN20@CalcWinRew

; 2208 : 		{
; 2209 : 			IllusionReward = IT_REWARD_A[Temple];
; 2210 : 		}
; 2211 : 		else
; 2212 : 		{
; 2213 : 			IllusionReward = IT_REWARD_A[Temple] + m_ILLUSION_TEAM_PTS*IT_REWARD_B[Temple];

  00062	0f af 75 f4	 imul	 esi, DWORD PTR tv1048[ebp]
  00066	03 fe		 add	 edi, esi

; 2214 : 		}

  00068	e9 8e 00 00 00	 jmp	 $LN38@CalcWinRew
$LN9@CalcWinRew:

; 2215 : 	}
; 2216 : 	else if( m_ILLUSION_TEAM_PTS >= 2 && m_ILLUSION_TEAM_PTS > m_ALLIED_TEAM_PTS)

  0006d	8a 8b d1 03 00
	00		 mov	 cl, BYTE PTR [ebx+977]
  00073	80 f9 02	 cmp	 cl, 2
  00076	72 48		 jb	 SHORT $LN13@CalcWinRew
  00078	3a cd		 cmp	 cl, ch
  0007a	76 44		 jbe	 SHORT $LN13@CalcWinRew

; 2217 : 	{
; 2218 : 		m_WinTeam = IT_ILLUSION_TEAM;
; 2219 : 		IllusionReward = (IT_REWARD_A[Temple] + (m_ILLUSION_TEAM_PTS - m_ALLIED_TEAM_PTS)*IT_REWARD_B[Temple])*2;

  0007c	0f b6 93 2c 02
	00 00		 movzx	 edx, BYTE PTR [ebx+556]
  00083	0f b6 c5	 movzx	 eax, ch
  00086	89 45 f4	 mov	 DWORD PTR tv1047[ebp], eax
  00089	0f b6 f9	 movzx	 edi, cl
  0008c	2b 7d f4	 sub	 edi, DWORD PTR tv1047[ebp]
  0008f	8b 34 95 00 00
	00 00		 mov	 esi, DWORD PTR ?IT_REWARD_B@@3PAHA[edx*4]
  00096	8b 04 95 00 00
	00 00		 mov	 eax, DWORD PTR ?IT_REWARD_A@@3PAHA[edx*4]
  0009d	0f af fe	 imul	 edi, esi
  000a0	c6 83 d2 03 00
	00 01		 mov	 BYTE PTR [ebx+978], 1
  000a7	89 45 f8	 mov	 DWORD PTR _AlliedReward$1$[ebp], eax
  000aa	03 f8		 add	 edi, eax
  000ac	03 ff		 add	 edi, edi
  000ae	89 7d fc	 mov	 DWORD PTR _IllusionReward$1$[ebp], edi

; 2220 : 
; 2221 : 		if( m_ALLIED_TEAM_PTS == 0 )

  000b1	84 ed		 test	 ch, ch
  000b3	74 49		 je	 SHORT $LN20@CalcWinRew

; 2222 : 		{
; 2223 : 			AlliedReward = IT_REWARD_A[Temple];
; 2224 : 		}
; 2225 : 		else
; 2226 : 		{
; 2227 : 			AlliedReward = IT_REWARD_A[Temple] + m_ALLIED_TEAM_PTS*IT_REWARD_B[Temple];

  000b5	0f af 75 f4	 imul	 esi, DWORD PTR tv1047[ebp]
  000b9	03 c6		 add	 eax, esi
  000bb	89 45 f8	 mov	 DWORD PTR _AlliedReward$1$[ebp], eax

; 2228 : 		}
; 2229 : 	}
; 2230 : 	else

  000be	eb 3e		 jmp	 SHORT $LN20@CalcWinRew
$LN13@CalcWinRew:

; 2231 : 	{
; 2232 : 		if( m_ALLIED_TEAM_PTS == 0 )
; 2233 : 		{
; 2234 : 			AlliedReward = IT_REWARD_A[Temple];

  000c0	0f b6 93 2c 02
	00 00		 movzx	 edx, BYTE PTR [ebx+556]
  000c7	8b 3c 95 00 00
	00 00		 mov	 edi, DWORD PTR ?IT_REWARD_A@@3PAHA[edx*4]
  000ce	89 7d fc	 mov	 DWORD PTR _IllusionReward$1$[ebp], edi
  000d1	84 ed		 test	 ch, ch
  000d3	75 05		 jne	 SHORT $LN17@CalcWinRew
  000d5	89 7d f8	 mov	 DWORD PTR _AlliedReward$1$[ebp], edi

; 2235 : 		}
; 2236 : 		else

  000d8	eb 10		 jmp	 SHORT $LN18@CalcWinRew
$LN17@CalcWinRew:

; 2237 : 		{
; 2238 : 			AlliedReward = IT_REWARD_A[Temple] + m_ALLIED_TEAM_PTS*IT_REWARD_B[Temple];

  000da	0f b6 c5	 movzx	 eax, ch
  000dd	0f af 04 95 00
	00 00 00	 imul	 eax, DWORD PTR ?IT_REWARD_B@@3PAHA[edx*4]
  000e5	03 c7		 add	 eax, edi
  000e7	89 45 f8	 mov	 DWORD PTR _AlliedReward$1$[ebp], eax
$LN18@CalcWinRew:

; 2239 : 		}
; 2240 : 
; 2241 : 		if( m_ILLUSION_TEAM_PTS == 0 )

  000ea	84 c9		 test	 cl, cl
  000ec	74 10		 je	 SHORT $LN20@CalcWinRew

; 2242 : 		{
; 2243 : 			IllusionReward = IT_REWARD_A[Temple];
; 2244 : 		}
; 2245 : 		else
; 2246 : 		{
; 2247 : 			IllusionReward = IT_REWARD_A[Temple] + m_ILLUSION_TEAM_PTS*IT_REWARD_B[Temple];

  000ee	0f b6 c1	 movzx	 eax, cl
  000f1	0f af 04 95 00
	00 00 00	 imul	 eax, DWORD PTR ?IT_REWARD_B@@3PAHA[edx*4]
  000f9	03 f8		 add	 edi, eax
$LN38@CalcWinRew:
  000fb	89 7d fc	 mov	 DWORD PTR _IllusionReward$1$[ebp], edi
$LN20@CalcWinRew:

; 2248 : 		}
; 2249 : 	}
; 2250 : 	LogAddTD("[Illusion Temple] (%d) Result (WinTeam: %d)(Score:[%d][%d])",

  000fe	0f b6 c1	 movzx	 eax, cl
  00101	50		 push	 eax
  00102	0f b6 c5	 movzx	 eax, ch
  00105	50		 push	 eax
  00106	0f b6 83 d2 03
	00 00		 movzx	 eax, BYTE PTR [ebx+978]
  0010d	50		 push	 eax
  0010e	8d 42 01	 lea	 eax, DWORD PTR [edx+1]
  00111	50		 push	 eax
  00112	68 00 00 00 00	 push	 OFFSET ??_C@_0DM@JLNJCFEN@?$FLIllusion?5Temple?$FN?5?$CI?$CFd?$CJ?5Result?5?$CIW@
  00117	ff 15 00 00 00
	00		 call	 DWORD PTR ?LogAddTD@@3P6AXPADZZA ; LogAddTD
  0011d	83 c4 14	 add	 esp, 20			; 00000014H
  00120	c7 45 f0 0a 00
	00 00		 mov	 DWORD PTR tv1052[ebp], 10 ; 0000000aH
  00127	8d 73 38	 lea	 esi, DWORD PTR [ebx+56]
  0012a	66 0f 1f 44 00
	00		 npad	 6
$LL4@CalcWinRew:

; 2254 : 	{
; 2255 : 		if( m_PlayerData[i].m_Team == (BYTE)-1 )

  00130	8a 56 ec	 mov	 dl, BYTE PTR [esi-20]
  00133	80 fa ff	 cmp	 dl, 255			; 000000ffH
  00136	0f 84 5c 01 00
	00		 je	 $LN2@CalcWinRew

; 2256 : 		{
; 2257 : 			continue;
; 2258 : 		}
; 2259 : 
; 2260 : 		if( m_PlayerData[i].m_Index != -1 &&
; 2261 : 			gObj[m_PlayerData[i].m_Index].Connected > PLAYER_LOGGED &&
; 2262 : 			gObj[m_PlayerData[i].m_Index].MapNumber == Temple + MAP_INDEX_ILLUSIONTEMPLE1 &&

  0013c	8b 46 e8	 mov	 eax, DWORD PTR [esi-24]
  0013f	83 f8 ff	 cmp	 eax, -1
  00142	0f 84 50 01 00
	00		 je	 $LN2@CalcWinRew
  00148	69 c8 40 27 00
	00		 imul	 ecx, eax, 10048
  0014e	a1 00 00 00 00	 mov	 eax, DWORD PTR ?gObj@@3PAUOBJECTSTRUCT@@A ; gObj
  00153	89 4d f4	 mov	 DWORD PTR tv1029[ebp], ecx
  00156	83 7c 01 04 02	 cmp	 DWORD PTR [ecx+eax+4], 2
  0015b	0f 8e 37 01 00
	00		 jle	 $LN2@CalcWinRew
  00161	8b 7d f4	 mov	 edi, DWORD PTR tv1029[ebp]
  00164	0f b6 8b 2c 02
	00 00		 movzx	 ecx, BYTE PTR [ebx+556]
  0016b	83 c1 2d	 add	 ecx, 45			; 0000002dH
  0016e	0f b6 84 07 23
	01 00 00	 movzx	 eax, BYTE PTR [edi+eax+291]
  00176	8b 7d fc	 mov	 edi, DWORD PTR _IllusionReward$1$[ebp]
  00179	3b c1		 cmp	 eax, ecx
  0017b	0f 85 17 01 00
	00		 jne	 $LN2@CalcWinRew
  00181	0f b6 46 fb	 movzx	 eax, BYTE PTR [esi-5]
  00185	3b 05 00 00 00
	00		 cmp	 eax, DWORD PTR ?g_IllusionUseSkillCnt@@3HA ; g_IllusionUseSkillCnt
  0018b	0f 8c 07 01 00
	00		 jl	 $LN2@CalcWinRew

; 2263 : 			m_PlayerData[i].m_UseSkillCnt >= g_IllusionUseSkillCnt)
; 2264 : 		{
; 2265 : 			switch( m_PlayerData[i].m_Team )

  00191	0f b6 c2	 movzx	 eax, dl
  00194	83 e8 00	 sub	 eax, 0
  00197	74 09		 je	 SHORT $LN23@CalcWinRew
  00199	83 e8 01	 sub	 eax, 1
  0019c	75 0d		 jne	 SHORT $LN5@CalcWinRew

; 2269 : 				break;
; 2270 : 			case IT_ILLUSION_TEAM:
; 2271 : 				m_PlayerData[i].m_RewardExp = IllusionReward;

  0019e	8b c7		 mov	 eax, edi
  001a0	eb 03		 jmp	 SHORT $LN39@CalcWinRew
$LN23@CalcWinRew:

; 2266 : 			{
; 2267 : 			case IT_ALLIED_TEAM:
; 2268 : 				m_PlayerData[i].m_RewardExp = AlliedReward;

  001a2	8b 45 f8	 mov	 eax, DWORD PTR _AlliedReward$1$[ebp]
$LN39@CalcWinRew:
  001a5	99		 cdq
  001a6	89 56 04	 mov	 DWORD PTR [esi+4], edx
  001a9	89 06		 mov	 DWORD PTR [esi], eax
$LN5@CalcWinRew:

; 2272 : 				break;
; 2273 : 			}
; 2274 : 
; 2275 : 			m_PlayerData[i].m_RewardExp = m_PlayerData[i].m_RewardExp * g_IllusionRewardPerc / 100;

  001ab	ff 76 04	 push	 DWORD PTR [esi+4]
  001ae	a1 00 00 00 00	 mov	 eax, DWORD PTR ?g_IllusionRewardPerc@@3HA ; g_IllusionRewardPerc
  001b3	ff 36		 push	 DWORD PTR [esi]
  001b5	99		 cdq
  001b6	52		 push	 edx
  001b7	50		 push	 eax
  001b8	e8 00 00 00 00	 call	 __allmul
  001bd	6a 00		 push	 0
  001bf	6a 64		 push	 100			; 00000064H
  001c1	52		 push	 edx
  001c2	50		 push	 eax
  001c3	e8 00 00 00 00	 call	 __alldiv
  001c8	89 06		 mov	 DWORD PTR [esi], eax
  001ca	89 56 04	 mov	 DWORD PTR [esi+4], edx

; 2276 : 			CheckItemOptForGetExpEx(&gObj[m_PlayerData[i].m_Index],m_PlayerData[i].m_RewardExp,TRUE);

  001cd	a1 00 00 00 00	 mov	 eax, DWORD PTR ?gObj@@3PAUOBJECTSTRUCT@@A ; gObj
  001d2	03 45 f4	 add	 eax, DWORD PTR tv1029[ebp]
  001d5	6a 01		 push	 1
  001d7	56		 push	 esi
  001d8	50		 push	 eax
  001d9	e8 00 00 00 00	 call	 ?CheckItemOptForGetExpEx@@YAXPAUOBJECTSTRUCT@@AA_JH@Z ; CheckItemOptForGetExpEx

; 2277 : 
; 2278 : 			int PartyCount = 0;
; 2279 : 
; 2280 : 			if( gObj[m_PlayerData[i].m_Index].PartyNumber >= 0 )

  001de	69 4e e8 40 27
	00 00		 imul	 ecx, DWORD PTR [esi-24], 10048
  001e5	83 c4 0c	 add	 esp, 12			; 0000000cH
  001e8	a1 00 00 00 00	 mov	 eax, DWORD PTR ?gObj@@3PAUOBJECTSTRUCT@@A ; gObj
  001ed	8b 84 01 0c 06
	00 00		 mov	 eax, DWORD PTR [ecx+eax+1548]
  001f4	85 c0		 test	 eax, eax
  001f6	78 10		 js	 SHORT $LN25@CalcWinRew

; 2281 : 			{
; 2282 : 				PartyCount = gParty.GetPartyCount(gObj[m_PlayerData[i].m_Index].PartyNumber);

  001f8	50		 push	 eax
  001f9	b9 00 00 00 00	 mov	 ecx, OFFSET ?gParty@@3VPartyClass@@A ; gParty
  001fe	e8 00 00 00 00	 call	 ?GetPartyCount@PartyClass@@QAEHH@Z ; PartyClass::GetPartyCount
  00203	89 45 f4	 mov	 DWORD PTR _PartyCount$1$[ebp], eax

; 2283 : 			}
; 2284 : 			else

  00206	eb 07		 jmp	 SHORT $LN26@CalcWinRew
$LN25@CalcWinRew:

; 2285 : 			{
; 2286 : 				PartyCount = 1;

  00208	c7 45 f4 01 00
	00 00		 mov	 DWORD PTR _PartyCount$1$[ebp], 1
$LN26@CalcWinRew:

; 2287 : 			}
; 2288 : 
; 2289 : 			m_PlayerData[i].m_RankPoint = (int)(m_PlayerData[i].m_RewardExp + m_PlayerData[i].m_PlayerKillCount * IT_REWARD_C[Temple] + m_PlayerData[i].m_RelicSuccess * IT_REWARD_D[Temple] + IT_REWARD_E[PartyCount]);

  0020f	0f b6 8b 2c 02
	00 00		 movzx	 ecx, BYTE PTR [ebx+556]
  00216	0f b6 56 fa	 movzx	 edx, BYTE PTR [esi-6]
  0021a	0f b6 46 f8	 movzx	 eax, BYTE PTR [esi-8]
  0021e	8b 3e		 mov	 edi, DWORD PTR [esi]
  00220	0f af 14 8d 00
	00 00 00	 imul	 edx, DWORD PTR ?IT_REWARD_D@@3PAHA[ecx*4]
  00228	0f af 04 8d 00
	00 00 00	 imul	 eax, DWORD PTR ?IT_REWARD_C@@3PAHA[ecx*4]
  00230	03 d0		 add	 edx, eax
  00232	8b 45 f4	 mov	 eax, DWORD PTR _PartyCount$1$[ebp]

; 2290 : 
; 2291 : 			int iCAL_EXP = (int)m_PlayerData[i].m_RewardExp;
; 2292 : 			int iRET_EXP = 0;

  00235	c7 45 f4 00 00
	00 00		 mov	 DWORD PTR _iRET_EXP$1$[ebp], 0
  0023c	03 14 85 00 00
	00 00		 add	 edx, DWORD PTR ?IT_REWARD_E@@3PAHA[eax*4]
  00243	03 d7		 add	 edx, edi
  00245	89 56 08	 mov	 DWORD PTR [esi+8], edx

; 2293 : 
; 2294 : 			while( iCAL_EXP > 0 )

  00248	85 ff		 test	 edi, edi
  0024a	7e 18		 jle	 SHORT $LN8@CalcWinRew
  0024c	0f 1f 40 00	 npad	 4
$LL7@CalcWinRew:

; 2295 : 			{
; 2296 : 				iRET_EXP = iCAL_EXP;
; 2297 : 				iCAL_EXP = LevelUp(m_PlayerData[i].m_Index,iCAL_EXP);

  00250	57		 push	 edi
  00251	ff 76 e8	 push	 DWORD PTR [esi-24]
  00254	8b cb		 mov	 ecx, ebx
  00256	89 7d f4	 mov	 DWORD PTR _iRET_EXP$1$[ebp], edi
  00259	e8 00 00 00 00	 call	 ?LevelUp@CIllusionTempleProcess@@QAEHHH@Z ; CIllusionTempleProcess::LevelUp
  0025e	8b f8		 mov	 edi, eax
  00260	85 ff		 test	 edi, edi
  00262	7f ec		 jg	 SHORT $LL7@CalcWinRew
$LN8@CalcWinRew:

; 2298 : 			}
; 2299 : 
; 2300 : 			int iIndex = m_PlayerData[i].m_Index;

  00264	8b 7e e8	 mov	 edi, DWORD PTR [esi-24]

; 2301 : 			if( g_MasterExp.IsEnabled(&gObj[iIndex]) == FALSE )

  00267	69 cf 40 27 00
	00		 imul	 ecx, edi, 10048
  0026d	03 0d 00 00 00
	00		 add	 ecx, DWORD PTR ?gObj@@3PAUOBJECTSTRUCT@@A ; gObj
  00273	51		 push	 ecx
  00274	b9 00 00 00 00	 mov	 ecx, OFFSET ?g_MasterExp@@3VCMasterExperience@@A ; g_MasterExp
  00279	e8 00 00 00 00	 call	 ?IsEnabled@CMasterExperience@@QAEHPAUOBJECTSTRUCT@@@Z ; CMasterExperience::IsEnabled
  0027e	85 c0		 test	 eax, eax
  00280	75 16		 jne	 SHORT $LN2@CalcWinRew

; 2302 : 			{
; 2303 : 				GCSendExp(iIndex,(WORD)-1,iRET_EXP,0,0);

  00282	50		 push	 eax
  00283	50		 push	 eax
  00284	8b 45 f4	 mov	 eax, DWORD PTR _iRET_EXP$1$[ebp]
  00287	99		 cdq
  00288	52		 push	 edx
  00289	50		 push	 eax
  0028a	68 ff ff 00 00	 push	 65535			; 0000ffffH
  0028f	57		 push	 edi
  00290	e8 00 00 00 00	 call	 ?GCSendExp@@YAXHH_JHH@Z	; GCSendExp
  00295	83 c4 18	 add	 esp, 24			; 00000018H
$LN2@CalcWinRew:

; 2251 : 		Temple+1,m_WinTeam,m_ALLIED_TEAM_PTS,m_ILLUSION_TEAM_PTS);
; 2252 : 
; 2253 : 	for(int i = 0; i < IT_MAXPLAYER; i++)

  00298	83 c6 30	 add	 esi, 48			; 00000030H
  0029b	83 6d f0 01	 sub	 DWORD PTR tv1052[ebp], 1
  0029f	0f 85 8b fe ff
	ff		 jne	 $LL4@CalcWinRew
  002a5	5f		 pop	 edi
  002a6	5e		 pop	 esi
  002a7	5b		 pop	 ebx

; 2304 : 			}
; 2305 : 		}
; 2306 : 	}
; 2307 : }

  002a8	8b e5		 mov	 esp, ebp
  002aa	5d		 pop	 ebp
  002ab	c3		 ret	 0
?CalcWinRewardExp@CIllusionTempleProcess@@QAEXXZ ENDP	; CIllusionTempleProcess::CalcWinRewardExp
_TEXT	ENDS
; Function compile flags: /Ogtp
; File c:\users\michel\desktop\source\gameserver\source\illusiontempleprocess.cpp
;	COMDAT ?RegetStatue@CIllusionTempleProcess@@QAEXXZ
_TEXT	SEGMENT
?RegetStatue@CIllusionTempleProcess@@QAEXXZ PROC	; CIllusionTempleProcess::RegetStatue, COMDAT
; _this$ = ecx

; 1532 : {

  00000	56		 push	 esi
  00001	8b f1		 mov	 esi, ecx

; 1533 : 	if( m_RELIC_PLAYER >= 0 )

  00003	83 be b8 03 00
	00 00		 cmp	 DWORD PTR [esi+952], 0
  0000a	0f 8d 9b 00 00
	00		 jge	 $LN1@RegetStatu

; 1534 : 		return;
; 1535 : 
; 1536 : 	if( m_STATUE_NPC_COUNT <= 0 )

  00010	83 be c0 03 00
	00 00		 cmp	 DWORD PTR [esi+960], 0
  00017	7f 10		 jg	 SHORT $LN3@RegetStatu

; 1537 : 	{
; 1538 : 		LogAddTD("[Illusion Temple] RegenStatue Failed m_STATUE_NPC_COUNT <= 0");

  00019	68 00 00 00 00	 push	 OFFSET ??_C@_0DN@NHMDPHGH@?$FLIllusion?5Temple?$FN?5RegenStatue?5Fa@
  0001e	ff 15 00 00 00
	00		 call	 DWORD PTR ?LogAddTD@@3P6AXPADZZA ; LogAddTD
  00024	83 c4 04	 add	 esp, 4
  00027	5e		 pop	 esi

; 1553 : 		Temple+1,lpObj->Name,lpObj->MapNumber,lpObj->X,lpObj->Y,lpObj->m_PosNum,lpObj->Connected);
; 1554 : }

  00028	c3		 ret	 0
$LN3@RegetStatu:

; 1539 : 		return;
; 1540 : 	}
; 1541 : 
; 1542 : 	int StatuePos = rand()%m_STATUE_NPC_COUNT;

  00029	e8 00 00 00 00	 call	 _rand
  0002e	99		 cdq
  0002f	f7 be c0 03 00
	00		 idiv	 DWORD PTR [esi+960]

; 1543 : 
; 1544 : 	if( m_STATUE_NPC[StatuePos].m_Index == -1 )

  00035	8b 84 d6 30 02
	00 00		 mov	 eax, DWORD PTR [esi+edx*8+560]
  0003c	83 f8 ff	 cmp	 eax, -1
  0003f	74 6a		 je	 SHORT $LN1@RegetStatu

; 1545 : 		return;
; 1546 : 
; 1547 : 	LPOBJ lpObj = &gObj[m_STATUE_NPC[StatuePos].m_Index];

  00041	69 c8 40 27 00
	00		 imul	 ecx, eax, 10048

; 1548 : 	lpObj->m_PosNum = m_STATUE_NPC[StatuePos].m_Num;

  00047	66 8b 84 d6 34
	02 00 00	 mov	 ax, WORD PTR [esi+edx*8+564]
  0004f	03 0d 00 00 00
	00		 add	 ecx, DWORD PTR ?gObj@@3PAUOBJECTSTRUCT@@A ; gObj
  00055	66 89 81 98 05
	00 00		 mov	 WORD PTR [ecx+1432], ax

; 1549 : 	lpObj->DieRegen = 2;

  0005c	c6 81 8a 05 00
	00 02		 mov	 BYTE PTR [ecx+1418], 2

; 1550 : 	iNPC_TICK_COUNT = -1;

  00063	c7 86 94 03 00
	00 ff ff ff ff	 mov	 DWORD PTR [esi+916], -1

; 1551 : 
; 1552 : 	LogAddTD("[Illusion Temple] (%d) RegenStatus Name: %s, (%d: %d/%d), PosNum(%d), connected:%d",

  0006d	ff 71 04	 push	 DWORD PTR [ecx+4]
  00070	0f bf 81 98 05
	00 00		 movsx	 eax, WORD PTR [ecx+1432]
  00077	50		 push	 eax
  00078	0f b6 81 21 01
	00 00		 movzx	 eax, BYTE PTR [ecx+289]
  0007f	50		 push	 eax
  00080	0f b6 81 20 01
	00 00		 movzx	 eax, BYTE PTR [ecx+288]
  00087	50		 push	 eax
  00088	0f b6 81 23 01
	00 00		 movzx	 eax, BYTE PTR [ecx+291]
  0008f	50		 push	 eax
  00090	8d 41 5d	 lea	 eax, DWORD PTR [ecx+93]
  00093	50		 push	 eax
  00094	0f b6 86 2c 02
	00 00		 movzx	 eax, BYTE PTR [esi+556]
  0009b	40		 inc	 eax
  0009c	50		 push	 eax
  0009d	68 00 00 00 00	 push	 OFFSET ??_C@_0FD@FFJHAHAN@?$FLIllusion?5Temple?$FN?5?$CI?$CFd?$CJ?5RegenStat@
  000a2	ff 15 00 00 00
	00		 call	 DWORD PTR ?LogAddTD@@3P6AXPADZZA ; LogAddTD
  000a8	83 c4 20	 add	 esp, 32			; 00000020H
$LN1@RegetStatu:
  000ab	5e		 pop	 esi

; 1553 : 		Temple+1,lpObj->Name,lpObj->MapNumber,lpObj->X,lpObj->Y,lpObj->m_PosNum,lpObj->Connected);
; 1554 : }

  000ac	c3		 ret	 0
?RegetStatue@CIllusionTempleProcess@@QAEXXZ ENDP	; CIllusionTempleProcess::RegetStatue
_TEXT	ENDS
; Function compile flags: /Ogtp
; File c:\users\michel\desktop\source\gameserver\source\illusiontempleprocess.cpp
;	COMDAT ?OperateMiniMap@CIllusionTempleProcess@@QAEXE@Z
_TEXT	SEGMENT
_this$GSCopy$1$ = -292					; size = 4
tv2273 = -288						; size = 4
tv2270 = -288						; size = 4
tv2267 = -288						; size = 4
tv2264 = -288						; size = 4
tv2260 = -288						; size = 4
tv2257 = -288						; size = 4
tv2254 = -288						; size = 4
tv2251 = -288						; size = 4
tv2247 = -288						; size = 4
tv2243 = -288						; size = 4
_pPlayerInfo$1 = -284					; size = 6
_pMsg$ = -276						; size = 14
_SENDBUFF$ = -260					; size = 256
__$ArrayPad$ = -4					; size = 4
_TEAM$ = 8						; size = 1
?OperateMiniMap@CIllusionTempleProcess@@QAEXE@Z PROC	; CIllusionTempleProcess::OperateMiniMap, COMDAT
; _this$ = ecx

; 1592 : {

  00000	55		 push	 ebp
  00001	8b ec		 mov	 ebp, esp
  00003	81 ec 24 01 00
	00		 sub	 esp, 292		; 00000124H
  00009	a1 00 00 00 00	 mov	 eax, DWORD PTR ___security_cookie
  0000e	33 c5		 xor	 eax, ebp
  00010	89 45 fc	 mov	 DWORD PTR __$ArrayPad$[ebp], eax
  00013	53		 push	 ebx
  00014	56		 push	 esi
  00015	8b f1		 mov	 esi, ecx
  00017	57		 push	 edi
  00018	89 b5 dc fe ff
	ff		 mov	 DWORD PTR _this$GSCopy$1$[ebp], esi

; 1593 : 	int lOfs = 0;
; 1594 : 	BYTE SENDBUFF[256];
; 1595 : 	PMSG_ILLUSIONTEMPLE_INFO pMsg;
; 1596 : 
; 1597 : 	if( dwTICK_COUNT < 0 )

  0001e	83 be 9c 03 00
	00 00		 cmp	 DWORD PTR [esi+924], 0
  00025	7d 0a		 jge	 SHORT $LN8@OperateMin

; 1598 : 	{
; 1599 : 		dwTICK_COUNT = 0;

  00027	c7 86 9c 03 00
	00 00 00 00 00	 mov	 DWORD PTR [esi+924], 0
$LN8@OperateMin:

; 1600 : 	}
; 1601 : 
; 1602 : 	pMsg.Timer = dwTICK_COUNT / 1000;
; 1603 : 
; 1604 : 	if( m_RELIC_PLAYER != -1 )

  00031	8b 8e b8 03 00
	00		 mov	 ecx, DWORD PTR [esi+952]
  00037	b8 d3 4d 62 10	 mov	 eax, 274877907		; 10624dd3H
  0003c	f7 ae 9c 03 00
	00		 imul	 DWORD PTR [esi+924]
  00042	c1 fa 06	 sar	 edx, 6
  00045	8b c2		 mov	 eax, edx
  00047	c1 e8 1f	 shr	 eax, 31			; 0000001fH
  0004a	03 c2		 add	 eax, edx
  0004c	66 89 85 f0 fe
	ff ff		 mov	 WORD PTR _pMsg$[ebp+4], ax
  00053	83 f9 ff	 cmp	 ecx, -1
  00056	74 34		 je	 SHORT $LN9@OperateMin

; 1605 : 	{
; 1606 : 		pMsg.hIndex = m_RELIC_PLAYER;

  00058	66 8b c1	 mov	 ax, cx
  0005b	66 89 85 f2 fe
	ff ff		 mov	 WORD PTR _pMsg$[ebp+6], ax

; 1607 : 		pMsg.hX = gObj[m_RELIC_PLAYER].X;

  00062	69 c1 40 27 00
	00		 imul	 eax, ecx, 10048
  00068	8b 0d 00 00 00
	00		 mov	 ecx, DWORD PTR ?gObj@@3PAUOBJECTSTRUCT@@A ; gObj
  0006e	03 c8		 add	 ecx, eax
  00070	0f b6 81 20 01
	00 00		 movzx	 eax, BYTE PTR [ecx+288]
  00077	88 85 f4 fe ff
	ff		 mov	 BYTE PTR _pMsg$[ebp+8], al

; 1608 : 		pMsg.hY = gObj[m_RELIC_PLAYER].Y;

  0007d	0f b6 81 21 01
	00 00		 movzx	 eax, BYTE PTR [ecx+289]
  00084	88 85 f5 fe ff
	ff		 mov	 BYTE PTR _pMsg$[ebp+9], al

; 1609 : 	}
; 1610 : 	else

  0008a	eb 13		 jmp	 SHORT $LN10@OperateMin
$LN9@OperateMin:

; 1611 : 	{
; 1612 : 		pMsg.hIndex = -1;

  0008c	83 c8 ff	 or	 eax, -1

; 1613 : 		pMsg.hX = -1;

  0008f	66 c7 85 f4 fe
	ff ff ff ff	 mov	 WORD PTR _pMsg$[ebp+8], 65535 ; 0000ffffH
  00098	66 89 85 f2 fe
	ff ff		 mov	 WORD PTR _pMsg$[ebp+6], ax
$LN10@OperateMin:

; 1614 : 		pMsg.hY = -1;
; 1615 : 	}
; 1616 : 
; 1617 : 	pMsg.AlliedPts = m_ALLIED_TEAM_PTS;

  0009f	0f b6 86 d0 03
	00 00		 movzx	 eax, BYTE PTR [esi+976]

; 1618 : 	pMsg.IllusionPts = m_ILLUSION_TEAM_PTS;
; 1619 : 	pMsg.Team = TEAM;
; 1620 : 
; 1621 : 	lOfs += sizeof(pMsg);
; 1622 : 	int count = 0;
; 1623 : 
; 1624 : 	int i;
; 1625 : 	for(i = 0; i < IT_MAXPLAYER;i++)
; 1626 : 	{
; 1627 : 		ILLUSIONTEMPLE_PLAYERINFO pPlayerInfo;
; 1628 : 
; 1629 : 		if( m_PlayerData[i].m_Index != -1 &&
; 1630 : 			m_PlayerData[i].m_Team == TEAM &&

  000a6	8d 7e 20	 lea	 edi, DWORD PTR [esi+32]
  000a9	8a 5d 08	 mov	 bl, BYTE PTR _TEAM$[ebp]
  000ac	33 c9		 xor	 ecx, ecx
  000ae	88 85 f6 fe ff
	ff		 mov	 BYTE PTR _pMsg$[ebp+10], al
  000b4	ba 0e 00 00 00	 mov	 edx, 14			; 0000000eH
  000b9	0f b6 86 d1 03
	00 00		 movzx	 eax, BYTE PTR [esi+977]
  000c0	88 85 f7 fe ff
	ff		 mov	 BYTE PTR _pMsg$[ebp+11], al
  000c6	8b 07		 mov	 eax, DWORD PTR [edi]
  000c8	88 9d f8 fe ff
	ff		 mov	 BYTE PTR _pMsg$[ebp+12], bl
  000ce	83 f8 ff	 cmp	 eax, -1
  000d1	74 74		 je	 SHORT $LN2@OperateMin
  000d3	38 5e 24	 cmp	 BYTE PTR [esi+36], bl
  000d6	75 6f		 jne	 SHORT $LN2@OperateMin
  000d8	69 c0 40 27 00
	00		 imul	 eax, eax, 10048
  000de	03 05 00 00 00
	00		 add	 eax, DWORD PTR ?gObj@@3PAUOBJECTSTRUCT@@A ; gObj
  000e4	89 85 e0 fe ff
	ff		 mov	 DWORD PTR tv2273[ebp], eax
  000ea	83 78 04 02	 cmp	 DWORD PTR [eax+4], 2
  000ee	7e 57		 jle	 SHORT $LN2@OperateMin

; 1634 : 			pPlayerInfo.MapNumber = gObj[m_PlayerData[i].m_Index].MapNumber;

  000f0	8b 8d e0 fe ff
	ff		 mov	 ecx, DWORD PTR tv2273[ebp]
  000f6	0f b7 07	 movzx	 eax, WORD PTR [edi]
  000f9	66 89 85 e4 fe
	ff ff		 mov	 WORD PTR _pPlayerInfo$1[ebp], ax
  00100	0f b6 81 23 01
	00 00		 movzx	 eax, BYTE PTR [ecx+291]
  00107	88 85 e6 fe ff
	ff		 mov	 BYTE PTR _pPlayerInfo$1[ebp+2], al

; 1635 : 			pPlayerInfo.X = gObj[m_PlayerData[i].m_Index].X;

  0010d	0f b6 81 20 01
	00 00		 movzx	 eax, BYTE PTR [ecx+288]
  00114	88 85 e7 fe ff
	ff		 mov	 BYTE PTR _pPlayerInfo$1[ebp+3], al

; 1636 : 			pPlayerInfo.Y = gObj[m_PlayerData[i].m_Index].Y;

  0011a	0f b6 81 21 01
	00 00		 movzx	 eax, BYTE PTR [ecx+289]

; 1637 : 			count++;

  00121	8d 4a f3	 lea	 ecx, DWORD PTR [edx-13]
  00124	88 85 e8 fe ff
	ff		 mov	 BYTE PTR _pPlayerInfo$1[ebp+4], al

; 1640 : 			lOfs += sizeof(pPlayerInfo);

  0012a	8d 51 13	 lea	 edx, DWORD PTR [ecx+19]
  0012d	8b 85 e4 fe ff
	ff		 mov	 eax, DWORD PTR _pPlayerInfo$1[ebp]
  00133	89 85 0a ff ff
	ff		 mov	 DWORD PTR _SENDBUFF$[ebp+14], eax
  00139	0f b7 85 e8 fe
	ff ff		 movzx	 eax, WORD PTR _pPlayerInfo$1[ebp+4]
  00140	66 89 85 0e ff
	ff ff		 mov	 WORD PTR _SENDBUFF$[ebp+18], ax
$LN2@OperateMin:

; 1618 : 	pMsg.IllusionPts = m_ILLUSION_TEAM_PTS;
; 1619 : 	pMsg.Team = TEAM;
; 1620 : 
; 1621 : 	lOfs += sizeof(pMsg);
; 1622 : 	int count = 0;
; 1623 : 
; 1624 : 	int i;
; 1625 : 	for(i = 0; i < IT_MAXPLAYER;i++)
; 1626 : 	{
; 1627 : 		ILLUSIONTEMPLE_PLAYERINFO pPlayerInfo;
; 1628 : 
; 1629 : 		if( m_PlayerData[i].m_Index != -1 &&
; 1630 : 			m_PlayerData[i].m_Team == TEAM &&

  00147	8b 46 50	 mov	 eax, DWORD PTR [esi+80]
  0014a	83 f8 ff	 cmp	 eax, -1
  0014d	0f 84 8b 00 00
	00		 je	 $LN28@OperateMin
  00153	38 5e 54	 cmp	 BYTE PTR [esi+84], bl
  00156	0f 85 82 00 00
	00		 jne	 $LN28@OperateMin
  0015c	8b b5 dc fe ff
	ff		 mov	 esi, DWORD PTR _this$GSCopy$1$[ebp]
  00162	69 c0 40 27 00
	00		 imul	 eax, eax, 10048
  00168	03 05 00 00 00
	00		 add	 eax, DWORD PTR ?gObj@@3PAUOBJECTSTRUCT@@A ; gObj
  0016e	89 85 e0 fe ff
	ff		 mov	 DWORD PTR tv2270[ebp], eax
  00174	83 78 04 02	 cmp	 DWORD PTR [eax+4], 2
  00178	7e 64		 jle	 SHORT $LN28@OperateMin

; 1631 : 			gObj[m_PlayerData[i].m_Index].Connected > PLAYER_LOGGED )
; 1632 : 		{
; 1633 : 			pPlayerInfo.aIndex = m_PlayerData[i].m_Index;

  0017a	0f b7 46 50	 movzx	 eax, WORD PTR [esi+80]

; 1637 : 			count++;

  0017e	41		 inc	 ecx
  0017f	66 89 85 e4 fe
	ff ff		 mov	 WORD PTR _pPlayerInfo$1[ebp], ax
  00186	8b 85 e0 fe ff
	ff		 mov	 eax, DWORD PTR tv2270[ebp]
  0018c	0f b6 80 23 01
	00 00		 movzx	 eax, BYTE PTR [eax+291]
  00193	88 85 e6 fe ff
	ff		 mov	 BYTE PTR _pPlayerInfo$1[ebp+2], al
  00199	8b 85 e0 fe ff
	ff		 mov	 eax, DWORD PTR tv2270[ebp]
  0019f	0f b6 80 20 01
	00 00		 movzx	 eax, BYTE PTR [eax+288]
  001a6	88 85 e7 fe ff
	ff		 mov	 BYTE PTR _pPlayerInfo$1[ebp+3], al
  001ac	8b 85 e0 fe ff
	ff		 mov	 eax, DWORD PTR tv2270[ebp]
  001b2	0f b6 80 21 01
	00 00		 movzx	 eax, BYTE PTR [eax+289]
  001b9	88 85 e8 fe ff
	ff		 mov	 BYTE PTR _pPlayerInfo$1[ebp+4], al

; 1638 : 
; 1639 : 			memcpy(&SENDBUFF[lOfs],&pPlayerInfo,sizeof(pPlayerInfo));

  001bf	8b 85 e4 fe ff
	ff		 mov	 eax, DWORD PTR _pPlayerInfo$1[ebp]
  001c5	89 84 15 fc fe
	ff ff		 mov	 DWORD PTR _SENDBUFF$[ebp+edx], eax
  001cc	0f b7 85 e8 fe
	ff ff		 movzx	 eax, WORD PTR _pPlayerInfo$1[ebp+4]
  001d3	66 89 84 15 00
	ff ff ff	 mov	 WORD PTR _SENDBUFF$[ebp+edx+4], ax

; 1640 : 			lOfs += sizeof(pPlayerInfo);

  001db	83 c2 06	 add	 edx, 6
$LN28@OperateMin:

; 1618 : 	pMsg.IllusionPts = m_ILLUSION_TEAM_PTS;
; 1619 : 	pMsg.Team = TEAM;
; 1620 : 
; 1621 : 	lOfs += sizeof(pMsg);
; 1622 : 	int count = 0;
; 1623 : 
; 1624 : 	int i;
; 1625 : 	for(i = 0; i < IT_MAXPLAYER;i++)
; 1626 : 	{
; 1627 : 		ILLUSIONTEMPLE_PLAYERINFO pPlayerInfo;
; 1628 : 
; 1629 : 		if( m_PlayerData[i].m_Index != -1 &&
; 1630 : 			m_PlayerData[i].m_Team == TEAM &&

  001de	8b 86 80 00 00
	00		 mov	 eax, DWORD PTR [esi+128]
  001e4	83 f8 ff	 cmp	 eax, -1
  001e7	0f 84 91 00 00
	00		 je	 $LN30@OperateMin
  001ed	38 9e 84 00 00
	00		 cmp	 BYTE PTR [esi+132], bl
  001f3	0f 85 85 00 00
	00		 jne	 $LN30@OperateMin
  001f9	8b b5 dc fe ff
	ff		 mov	 esi, DWORD PTR _this$GSCopy$1$[ebp]
  001ff	69 c0 40 27 00
	00		 imul	 eax, eax, 10048
  00205	03 05 00 00 00
	00		 add	 eax, DWORD PTR ?gObj@@3PAUOBJECTSTRUCT@@A ; gObj
  0020b	89 85 e0 fe ff
	ff		 mov	 DWORD PTR tv2267[ebp], eax
  00211	83 78 04 02	 cmp	 DWORD PTR [eax+4], 2
  00215	7e 67		 jle	 SHORT $LN30@OperateMin

; 1631 : 			gObj[m_PlayerData[i].m_Index].Connected > PLAYER_LOGGED )
; 1632 : 		{
; 1633 : 			pPlayerInfo.aIndex = m_PlayerData[i].m_Index;

  00217	0f b7 86 80 00
	00 00		 movzx	 eax, WORD PTR [esi+128]

; 1637 : 			count++;

  0021e	41		 inc	 ecx
  0021f	66 89 85 e4 fe
	ff ff		 mov	 WORD PTR _pPlayerInfo$1[ebp], ax
  00226	8b 85 e0 fe ff
	ff		 mov	 eax, DWORD PTR tv2267[ebp]
  0022c	0f b6 80 23 01
	00 00		 movzx	 eax, BYTE PTR [eax+291]
  00233	88 85 e6 fe ff
	ff		 mov	 BYTE PTR _pPlayerInfo$1[ebp+2], al
  00239	8b 85 e0 fe ff
	ff		 mov	 eax, DWORD PTR tv2267[ebp]
  0023f	0f b6 80 20 01
	00 00		 movzx	 eax, BYTE PTR [eax+288]
  00246	88 85 e7 fe ff
	ff		 mov	 BYTE PTR _pPlayerInfo$1[ebp+3], al
  0024c	8b 85 e0 fe ff
	ff		 mov	 eax, DWORD PTR tv2267[ebp]
  00252	0f b6 80 21 01
	00 00		 movzx	 eax, BYTE PTR [eax+289]
  00259	88 85 e8 fe ff
	ff		 mov	 BYTE PTR _pPlayerInfo$1[ebp+4], al

; 1638 : 
; 1639 : 			memcpy(&SENDBUFF[lOfs],&pPlayerInfo,sizeof(pPlayerInfo));

  0025f	8b 85 e4 fe ff
	ff		 mov	 eax, DWORD PTR _pPlayerInfo$1[ebp]
  00265	89 84 15 fc fe
	ff ff		 mov	 DWORD PTR _SENDBUFF$[ebp+edx], eax
  0026c	0f b7 85 e8 fe
	ff ff		 movzx	 eax, WORD PTR _pPlayerInfo$1[ebp+4]
  00273	66 89 84 15 00
	ff ff ff	 mov	 WORD PTR _SENDBUFF$[ebp+edx+4], ax

; 1640 : 			lOfs += sizeof(pPlayerInfo);

  0027b	83 c2 06	 add	 edx, 6
$LN30@OperateMin:

; 1618 : 	pMsg.IllusionPts = m_ILLUSION_TEAM_PTS;
; 1619 : 	pMsg.Team = TEAM;
; 1620 : 
; 1621 : 	lOfs += sizeof(pMsg);
; 1622 : 	int count = 0;
; 1623 : 
; 1624 : 	int i;
; 1625 : 	for(i = 0; i < IT_MAXPLAYER;i++)
; 1626 : 	{
; 1627 : 		ILLUSIONTEMPLE_PLAYERINFO pPlayerInfo;
; 1628 : 
; 1629 : 		if( m_PlayerData[i].m_Index != -1 &&
; 1630 : 			m_PlayerData[i].m_Team == TEAM &&

  0027e	8b 86 b0 00 00
	00		 mov	 eax, DWORD PTR [esi+176]
  00284	83 f8 ff	 cmp	 eax, -1
  00287	0f 84 91 00 00
	00		 je	 $LN32@OperateMin
  0028d	38 9e b4 00 00
	00		 cmp	 BYTE PTR [esi+180], bl
  00293	0f 85 85 00 00
	00		 jne	 $LN32@OperateMin
  00299	8b b5 dc fe ff
	ff		 mov	 esi, DWORD PTR _this$GSCopy$1$[ebp]
  0029f	69 c0 40 27 00
	00		 imul	 eax, eax, 10048
  002a5	03 05 00 00 00
	00		 add	 eax, DWORD PTR ?gObj@@3PAUOBJECTSTRUCT@@A ; gObj
  002ab	89 85 e0 fe ff
	ff		 mov	 DWORD PTR tv2264[ebp], eax
  002b1	83 78 04 02	 cmp	 DWORD PTR [eax+4], 2
  002b5	7e 67		 jle	 SHORT $LN32@OperateMin

; 1631 : 			gObj[m_PlayerData[i].m_Index].Connected > PLAYER_LOGGED )
; 1632 : 		{
; 1633 : 			pPlayerInfo.aIndex = m_PlayerData[i].m_Index;

  002b7	0f b7 86 b0 00
	00 00		 movzx	 eax, WORD PTR [esi+176]

; 1637 : 			count++;

  002be	41		 inc	 ecx
  002bf	66 89 85 e4 fe
	ff ff		 mov	 WORD PTR _pPlayerInfo$1[ebp], ax
  002c6	8b 85 e0 fe ff
	ff		 mov	 eax, DWORD PTR tv2264[ebp]
  002cc	0f b6 80 23 01
	00 00		 movzx	 eax, BYTE PTR [eax+291]
  002d3	88 85 e6 fe ff
	ff		 mov	 BYTE PTR _pPlayerInfo$1[ebp+2], al
  002d9	8b 85 e0 fe ff
	ff		 mov	 eax, DWORD PTR tv2264[ebp]
  002df	0f b6 80 20 01
	00 00		 movzx	 eax, BYTE PTR [eax+288]
  002e6	88 85 e7 fe ff
	ff		 mov	 BYTE PTR _pPlayerInfo$1[ebp+3], al
  002ec	8b 85 e0 fe ff
	ff		 mov	 eax, DWORD PTR tv2264[ebp]
  002f2	0f b6 80 21 01
	00 00		 movzx	 eax, BYTE PTR [eax+289]
  002f9	88 85 e8 fe ff
	ff		 mov	 BYTE PTR _pPlayerInfo$1[ebp+4], al

; 1638 : 
; 1639 : 			memcpy(&SENDBUFF[lOfs],&pPlayerInfo,sizeof(pPlayerInfo));

  002ff	8b 85 e4 fe ff
	ff		 mov	 eax, DWORD PTR _pPlayerInfo$1[ebp]
  00305	89 84 15 fc fe
	ff ff		 mov	 DWORD PTR _SENDBUFF$[ebp+edx], eax
  0030c	0f b7 85 e8 fe
	ff ff		 movzx	 eax, WORD PTR _pPlayerInfo$1[ebp+4]
  00313	66 89 84 15 00
	ff ff ff	 mov	 WORD PTR _SENDBUFF$[ebp+edx+4], ax

; 1640 : 			lOfs += sizeof(pPlayerInfo);

  0031b	83 c2 06	 add	 edx, 6
$LN32@OperateMin:

; 1618 : 	pMsg.IllusionPts = m_ILLUSION_TEAM_PTS;
; 1619 : 	pMsg.Team = TEAM;
; 1620 : 
; 1621 : 	lOfs += sizeof(pMsg);
; 1622 : 	int count = 0;
; 1623 : 
; 1624 : 	int i;
; 1625 : 	for(i = 0; i < IT_MAXPLAYER;i++)
; 1626 : 	{
; 1627 : 		ILLUSIONTEMPLE_PLAYERINFO pPlayerInfo;
; 1628 : 
; 1629 : 		if( m_PlayerData[i].m_Index != -1 &&
; 1630 : 			m_PlayerData[i].m_Team == TEAM &&

  0031e	8b 86 e0 00 00
	00		 mov	 eax, DWORD PTR [esi+224]
  00324	83 f8 ff	 cmp	 eax, -1
  00327	0f 84 91 00 00
	00		 je	 $LN34@OperateMin
  0032d	38 9e e4 00 00
	00		 cmp	 BYTE PTR [esi+228], bl
  00333	0f 85 85 00 00
	00		 jne	 $LN34@OperateMin
  00339	8b b5 dc fe ff
	ff		 mov	 esi, DWORD PTR _this$GSCopy$1$[ebp]
  0033f	69 c0 40 27 00
	00		 imul	 eax, eax, 10048
  00345	03 05 00 00 00
	00		 add	 eax, DWORD PTR ?gObj@@3PAUOBJECTSTRUCT@@A ; gObj
  0034b	89 85 e0 fe ff
	ff		 mov	 DWORD PTR tv2260[ebp], eax
  00351	83 78 04 02	 cmp	 DWORD PTR [eax+4], 2
  00355	7e 67		 jle	 SHORT $LN34@OperateMin

; 1631 : 			gObj[m_PlayerData[i].m_Index].Connected > PLAYER_LOGGED )
; 1632 : 		{
; 1633 : 			pPlayerInfo.aIndex = m_PlayerData[i].m_Index;

  00357	0f b7 86 e0 00
	00 00		 movzx	 eax, WORD PTR [esi+224]

; 1637 : 			count++;

  0035e	41		 inc	 ecx
  0035f	66 89 85 e4 fe
	ff ff		 mov	 WORD PTR _pPlayerInfo$1[ebp], ax
  00366	8b 85 e0 fe ff
	ff		 mov	 eax, DWORD PTR tv2260[ebp]
  0036c	0f b6 80 23 01
	00 00		 movzx	 eax, BYTE PTR [eax+291]
  00373	88 85 e6 fe ff
	ff		 mov	 BYTE PTR _pPlayerInfo$1[ebp+2], al
  00379	8b 85 e0 fe ff
	ff		 mov	 eax, DWORD PTR tv2260[ebp]
  0037f	0f b6 80 20 01
	00 00		 movzx	 eax, BYTE PTR [eax+288]
  00386	88 85 e7 fe ff
	ff		 mov	 BYTE PTR _pPlayerInfo$1[ebp+3], al
  0038c	8b 85 e0 fe ff
	ff		 mov	 eax, DWORD PTR tv2260[ebp]
  00392	0f b6 80 21 01
	00 00		 movzx	 eax, BYTE PTR [eax+289]
  00399	88 85 e8 fe ff
	ff		 mov	 BYTE PTR _pPlayerInfo$1[ebp+4], al

; 1638 : 
; 1639 : 			memcpy(&SENDBUFF[lOfs],&pPlayerInfo,sizeof(pPlayerInfo));

  0039f	8b 85 e4 fe ff
	ff		 mov	 eax, DWORD PTR _pPlayerInfo$1[ebp]
  003a5	89 84 15 fc fe
	ff ff		 mov	 DWORD PTR _SENDBUFF$[ebp+edx], eax
  003ac	0f b7 85 e8 fe
	ff ff		 movzx	 eax, WORD PTR _pPlayerInfo$1[ebp+4]
  003b3	66 89 84 15 00
	ff ff ff	 mov	 WORD PTR _SENDBUFF$[ebp+edx+4], ax

; 1640 : 			lOfs += sizeof(pPlayerInfo);

  003bb	83 c2 06	 add	 edx, 6
$LN34@OperateMin:

; 1618 : 	pMsg.IllusionPts = m_ILLUSION_TEAM_PTS;
; 1619 : 	pMsg.Team = TEAM;
; 1620 : 
; 1621 : 	lOfs += sizeof(pMsg);
; 1622 : 	int count = 0;
; 1623 : 
; 1624 : 	int i;
; 1625 : 	for(i = 0; i < IT_MAXPLAYER;i++)
; 1626 : 	{
; 1627 : 		ILLUSIONTEMPLE_PLAYERINFO pPlayerInfo;
; 1628 : 
; 1629 : 		if( m_PlayerData[i].m_Index != -1 &&
; 1630 : 			m_PlayerData[i].m_Team == TEAM &&

  003be	8b 86 10 01 00
	00		 mov	 eax, DWORD PTR [esi+272]
  003c4	83 f8 ff	 cmp	 eax, -1
  003c7	0f 84 91 00 00
	00		 je	 $LN36@OperateMin
  003cd	38 9e 14 01 00
	00		 cmp	 BYTE PTR [esi+276], bl
  003d3	0f 85 85 00 00
	00		 jne	 $LN36@OperateMin
  003d9	8b b5 dc fe ff
	ff		 mov	 esi, DWORD PTR _this$GSCopy$1$[ebp]
  003df	69 c0 40 27 00
	00		 imul	 eax, eax, 10048
  003e5	03 05 00 00 00
	00		 add	 eax, DWORD PTR ?gObj@@3PAUOBJECTSTRUCT@@A ; gObj
  003eb	89 85 e0 fe ff
	ff		 mov	 DWORD PTR tv2257[ebp], eax
  003f1	83 78 04 02	 cmp	 DWORD PTR [eax+4], 2
  003f5	7e 67		 jle	 SHORT $LN36@OperateMin

; 1631 : 			gObj[m_PlayerData[i].m_Index].Connected > PLAYER_LOGGED )
; 1632 : 		{
; 1633 : 			pPlayerInfo.aIndex = m_PlayerData[i].m_Index;

  003f7	0f b7 86 10 01
	00 00		 movzx	 eax, WORD PTR [esi+272]

; 1637 : 			count++;

  003fe	41		 inc	 ecx
  003ff	66 89 85 e4 fe
	ff ff		 mov	 WORD PTR _pPlayerInfo$1[ebp], ax
  00406	8b 85 e0 fe ff
	ff		 mov	 eax, DWORD PTR tv2257[ebp]
  0040c	0f b6 80 23 01
	00 00		 movzx	 eax, BYTE PTR [eax+291]
  00413	88 85 e6 fe ff
	ff		 mov	 BYTE PTR _pPlayerInfo$1[ebp+2], al
  00419	8b 85 e0 fe ff
	ff		 mov	 eax, DWORD PTR tv2257[ebp]
  0041f	0f b6 80 20 01
	00 00		 movzx	 eax, BYTE PTR [eax+288]
  00426	88 85 e7 fe ff
	ff		 mov	 BYTE PTR _pPlayerInfo$1[ebp+3], al
  0042c	8b 85 e0 fe ff
	ff		 mov	 eax, DWORD PTR tv2257[ebp]
  00432	0f b6 80 21 01
	00 00		 movzx	 eax, BYTE PTR [eax+289]
  00439	88 85 e8 fe ff
	ff		 mov	 BYTE PTR _pPlayerInfo$1[ebp+4], al

; 1638 : 
; 1639 : 			memcpy(&SENDBUFF[lOfs],&pPlayerInfo,sizeof(pPlayerInfo));

  0043f	8b 85 e4 fe ff
	ff		 mov	 eax, DWORD PTR _pPlayerInfo$1[ebp]
  00445	89 84 15 fc fe
	ff ff		 mov	 DWORD PTR _SENDBUFF$[ebp+edx], eax
  0044c	0f b7 85 e8 fe
	ff ff		 movzx	 eax, WORD PTR _pPlayerInfo$1[ebp+4]
  00453	66 89 84 15 00
	ff ff ff	 mov	 WORD PTR _SENDBUFF$[ebp+edx+4], ax

; 1640 : 			lOfs += sizeof(pPlayerInfo);

  0045b	83 c2 06	 add	 edx, 6
$LN36@OperateMin:

; 1618 : 	pMsg.IllusionPts = m_ILLUSION_TEAM_PTS;
; 1619 : 	pMsg.Team = TEAM;
; 1620 : 
; 1621 : 	lOfs += sizeof(pMsg);
; 1622 : 	int count = 0;
; 1623 : 
; 1624 : 	int i;
; 1625 : 	for(i = 0; i < IT_MAXPLAYER;i++)
; 1626 : 	{
; 1627 : 		ILLUSIONTEMPLE_PLAYERINFO pPlayerInfo;
; 1628 : 
; 1629 : 		if( m_PlayerData[i].m_Index != -1 &&
; 1630 : 			m_PlayerData[i].m_Team == TEAM &&

  0045e	8b 86 40 01 00
	00		 mov	 eax, DWORD PTR [esi+320]
  00464	83 f8 ff	 cmp	 eax, -1
  00467	0f 84 91 00 00
	00		 je	 $LN38@OperateMin
  0046d	38 9e 44 01 00
	00		 cmp	 BYTE PTR [esi+324], bl
  00473	0f 85 85 00 00
	00		 jne	 $LN38@OperateMin
  00479	8b b5 dc fe ff
	ff		 mov	 esi, DWORD PTR _this$GSCopy$1$[ebp]
  0047f	69 c0 40 27 00
	00		 imul	 eax, eax, 10048
  00485	03 05 00 00 00
	00		 add	 eax, DWORD PTR ?gObj@@3PAUOBJECTSTRUCT@@A ; gObj
  0048b	89 85 e0 fe ff
	ff		 mov	 DWORD PTR tv2254[ebp], eax
  00491	83 78 04 02	 cmp	 DWORD PTR [eax+4], 2
  00495	7e 67		 jle	 SHORT $LN38@OperateMin

; 1631 : 			gObj[m_PlayerData[i].m_Index].Connected > PLAYER_LOGGED )
; 1632 : 		{
; 1633 : 			pPlayerInfo.aIndex = m_PlayerData[i].m_Index;

  00497	0f b7 86 40 01
	00 00		 movzx	 eax, WORD PTR [esi+320]

; 1637 : 			count++;

  0049e	41		 inc	 ecx
  0049f	66 89 85 e4 fe
	ff ff		 mov	 WORD PTR _pPlayerInfo$1[ebp], ax
  004a6	8b 85 e0 fe ff
	ff		 mov	 eax, DWORD PTR tv2254[ebp]
  004ac	0f b6 80 23 01
	00 00		 movzx	 eax, BYTE PTR [eax+291]
  004b3	88 85 e6 fe ff
	ff		 mov	 BYTE PTR _pPlayerInfo$1[ebp+2], al
  004b9	8b 85 e0 fe ff
	ff		 mov	 eax, DWORD PTR tv2254[ebp]
  004bf	0f b6 80 20 01
	00 00		 movzx	 eax, BYTE PTR [eax+288]
  004c6	88 85 e7 fe ff
	ff		 mov	 BYTE PTR _pPlayerInfo$1[ebp+3], al
  004cc	8b 85 e0 fe ff
	ff		 mov	 eax, DWORD PTR tv2254[ebp]
  004d2	0f b6 80 21 01
	00 00		 movzx	 eax, BYTE PTR [eax+289]
  004d9	88 85 e8 fe ff
	ff		 mov	 BYTE PTR _pPlayerInfo$1[ebp+4], al

; 1638 : 
; 1639 : 			memcpy(&SENDBUFF[lOfs],&pPlayerInfo,sizeof(pPlayerInfo));

  004df	8b 85 e4 fe ff
	ff		 mov	 eax, DWORD PTR _pPlayerInfo$1[ebp]
  004e5	89 84 15 fc fe
	ff ff		 mov	 DWORD PTR _SENDBUFF$[ebp+edx], eax
  004ec	0f b7 85 e8 fe
	ff ff		 movzx	 eax, WORD PTR _pPlayerInfo$1[ebp+4]
  004f3	66 89 84 15 00
	ff ff ff	 mov	 WORD PTR _SENDBUFF$[ebp+edx+4], ax

; 1640 : 			lOfs += sizeof(pPlayerInfo);

  004fb	83 c2 06	 add	 edx, 6
$LN38@OperateMin:

; 1618 : 	pMsg.IllusionPts = m_ILLUSION_TEAM_PTS;
; 1619 : 	pMsg.Team = TEAM;
; 1620 : 
; 1621 : 	lOfs += sizeof(pMsg);
; 1622 : 	int count = 0;
; 1623 : 
; 1624 : 	int i;
; 1625 : 	for(i = 0; i < IT_MAXPLAYER;i++)
; 1626 : 	{
; 1627 : 		ILLUSIONTEMPLE_PLAYERINFO pPlayerInfo;
; 1628 : 
; 1629 : 		if( m_PlayerData[i].m_Index != -1 &&
; 1630 : 			m_PlayerData[i].m_Team == TEAM &&

  004fe	8b 86 70 01 00
	00		 mov	 eax, DWORD PTR [esi+368]
  00504	83 f8 ff	 cmp	 eax, -1
  00507	0f 84 91 00 00
	00		 je	 $LN40@OperateMin
  0050d	38 9e 74 01 00
	00		 cmp	 BYTE PTR [esi+372], bl
  00513	0f 85 85 00 00
	00		 jne	 $LN40@OperateMin
  00519	8b b5 dc fe ff
	ff		 mov	 esi, DWORD PTR _this$GSCopy$1$[ebp]
  0051f	69 c0 40 27 00
	00		 imul	 eax, eax, 10048
  00525	03 05 00 00 00
	00		 add	 eax, DWORD PTR ?gObj@@3PAUOBJECTSTRUCT@@A ; gObj
  0052b	89 85 e0 fe ff
	ff		 mov	 DWORD PTR tv2251[ebp], eax
  00531	83 78 04 02	 cmp	 DWORD PTR [eax+4], 2
  00535	7e 67		 jle	 SHORT $LN40@OperateMin

; 1631 : 			gObj[m_PlayerData[i].m_Index].Connected > PLAYER_LOGGED )
; 1632 : 		{
; 1633 : 			pPlayerInfo.aIndex = m_PlayerData[i].m_Index;

  00537	0f b7 86 70 01
	00 00		 movzx	 eax, WORD PTR [esi+368]

; 1637 : 			count++;

  0053e	41		 inc	 ecx
  0053f	66 89 85 e4 fe
	ff ff		 mov	 WORD PTR _pPlayerInfo$1[ebp], ax
  00546	8b 85 e0 fe ff
	ff		 mov	 eax, DWORD PTR tv2251[ebp]
  0054c	0f b6 80 23 01
	00 00		 movzx	 eax, BYTE PTR [eax+291]
  00553	88 85 e6 fe ff
	ff		 mov	 BYTE PTR _pPlayerInfo$1[ebp+2], al
  00559	8b 85 e0 fe ff
	ff		 mov	 eax, DWORD PTR tv2251[ebp]
  0055f	0f b6 80 20 01
	00 00		 movzx	 eax, BYTE PTR [eax+288]
  00566	88 85 e7 fe ff
	ff		 mov	 BYTE PTR _pPlayerInfo$1[ebp+3], al
  0056c	8b 85 e0 fe ff
	ff		 mov	 eax, DWORD PTR tv2251[ebp]
  00572	0f b6 80 21 01
	00 00		 movzx	 eax, BYTE PTR [eax+289]
  00579	88 85 e8 fe ff
	ff		 mov	 BYTE PTR _pPlayerInfo$1[ebp+4], al

; 1638 : 
; 1639 : 			memcpy(&SENDBUFF[lOfs],&pPlayerInfo,sizeof(pPlayerInfo));

  0057f	8b 85 e4 fe ff
	ff		 mov	 eax, DWORD PTR _pPlayerInfo$1[ebp]
  00585	89 84 15 fc fe
	ff ff		 mov	 DWORD PTR _SENDBUFF$[ebp+edx], eax
  0058c	0f b7 85 e8 fe
	ff ff		 movzx	 eax, WORD PTR _pPlayerInfo$1[ebp+4]
  00593	66 89 84 15 00
	ff ff ff	 mov	 WORD PTR _SENDBUFF$[ebp+edx+4], ax

; 1640 : 			lOfs += sizeof(pPlayerInfo);

  0059b	83 c2 06	 add	 edx, 6
$LN40@OperateMin:

; 1618 : 	pMsg.IllusionPts = m_ILLUSION_TEAM_PTS;
; 1619 : 	pMsg.Team = TEAM;
; 1620 : 
; 1621 : 	lOfs += sizeof(pMsg);
; 1622 : 	int count = 0;
; 1623 : 
; 1624 : 	int i;
; 1625 : 	for(i = 0; i < IT_MAXPLAYER;i++)
; 1626 : 	{
; 1627 : 		ILLUSIONTEMPLE_PLAYERINFO pPlayerInfo;
; 1628 : 
; 1629 : 		if( m_PlayerData[i].m_Index != -1 &&
; 1630 : 			m_PlayerData[i].m_Team == TEAM &&

  0059e	8b 86 a0 01 00
	00		 mov	 eax, DWORD PTR [esi+416]
  005a4	83 f8 ff	 cmp	 eax, -1
  005a7	0f 84 91 00 00
	00		 je	 $LN42@OperateMin
  005ad	38 9e a4 01 00
	00		 cmp	 BYTE PTR [esi+420], bl
  005b3	0f 85 85 00 00
	00		 jne	 $LN42@OperateMin
  005b9	8b b5 dc fe ff
	ff		 mov	 esi, DWORD PTR _this$GSCopy$1$[ebp]
  005bf	69 c0 40 27 00
	00		 imul	 eax, eax, 10048
  005c5	03 05 00 00 00
	00		 add	 eax, DWORD PTR ?gObj@@3PAUOBJECTSTRUCT@@A ; gObj
  005cb	89 85 e0 fe ff
	ff		 mov	 DWORD PTR tv2247[ebp], eax
  005d1	83 78 04 02	 cmp	 DWORD PTR [eax+4], 2
  005d5	7e 67		 jle	 SHORT $LN42@OperateMin

; 1631 : 			gObj[m_PlayerData[i].m_Index].Connected > PLAYER_LOGGED )
; 1632 : 		{
; 1633 : 			pPlayerInfo.aIndex = m_PlayerData[i].m_Index;

  005d7	0f b7 86 a0 01
	00 00		 movzx	 eax, WORD PTR [esi+416]

; 1637 : 			count++;

  005de	41		 inc	 ecx
  005df	66 89 85 e4 fe
	ff ff		 mov	 WORD PTR _pPlayerInfo$1[ebp], ax
  005e6	8b 85 e0 fe ff
	ff		 mov	 eax, DWORD PTR tv2247[ebp]
  005ec	0f b6 80 23 01
	00 00		 movzx	 eax, BYTE PTR [eax+291]
  005f3	88 85 e6 fe ff
	ff		 mov	 BYTE PTR _pPlayerInfo$1[ebp+2], al
  005f9	8b 85 e0 fe ff
	ff		 mov	 eax, DWORD PTR tv2247[ebp]
  005ff	0f b6 80 20 01
	00 00		 movzx	 eax, BYTE PTR [eax+288]
  00606	88 85 e7 fe ff
	ff		 mov	 BYTE PTR _pPlayerInfo$1[ebp+3], al
  0060c	8b 85 e0 fe ff
	ff		 mov	 eax, DWORD PTR tv2247[ebp]
  00612	0f b6 80 21 01
	00 00		 movzx	 eax, BYTE PTR [eax+289]
  00619	88 85 e8 fe ff
	ff		 mov	 BYTE PTR _pPlayerInfo$1[ebp+4], al

; 1638 : 
; 1639 : 			memcpy(&SENDBUFF[lOfs],&pPlayerInfo,sizeof(pPlayerInfo));

  0061f	8b 85 e4 fe ff
	ff		 mov	 eax, DWORD PTR _pPlayerInfo$1[ebp]
  00625	89 84 15 fc fe
	ff ff		 mov	 DWORD PTR _SENDBUFF$[ebp+edx], eax
  0062c	0f b7 85 e8 fe
	ff ff		 movzx	 eax, WORD PTR _pPlayerInfo$1[ebp+4]
  00633	66 89 84 15 00
	ff ff ff	 mov	 WORD PTR _SENDBUFF$[ebp+edx+4], ax

; 1640 : 			lOfs += sizeof(pPlayerInfo);

  0063b	83 c2 06	 add	 edx, 6
$LN42@OperateMin:

; 1618 : 	pMsg.IllusionPts = m_ILLUSION_TEAM_PTS;
; 1619 : 	pMsg.Team = TEAM;
; 1620 : 
; 1621 : 	lOfs += sizeof(pMsg);
; 1622 : 	int count = 0;
; 1623 : 
; 1624 : 	int i;
; 1625 : 	for(i = 0; i < IT_MAXPLAYER;i++)
; 1626 : 	{
; 1627 : 		ILLUSIONTEMPLE_PLAYERINFO pPlayerInfo;
; 1628 : 
; 1629 : 		if( m_PlayerData[i].m_Index != -1 &&
; 1630 : 			m_PlayerData[i].m_Team == TEAM &&

  0063e	8b 86 d0 01 00
	00		 mov	 eax, DWORD PTR [esi+464]
  00644	83 f8 ff	 cmp	 eax, -1
  00647	0f 84 91 00 00
	00		 je	 $LN44@OperateMin
  0064d	38 9e d4 01 00
	00		 cmp	 BYTE PTR [esi+468], bl
  00653	0f 85 85 00 00
	00		 jne	 $LN44@OperateMin
  00659	8b b5 dc fe ff
	ff		 mov	 esi, DWORD PTR _this$GSCopy$1$[ebp]
  0065f	69 c0 40 27 00
	00		 imul	 eax, eax, 10048
  00665	03 05 00 00 00
	00		 add	 eax, DWORD PTR ?gObj@@3PAUOBJECTSTRUCT@@A ; gObj
  0066b	89 85 e0 fe ff
	ff		 mov	 DWORD PTR tv2243[ebp], eax
  00671	83 78 04 02	 cmp	 DWORD PTR [eax+4], 2
  00675	7e 67		 jle	 SHORT $LN44@OperateMin

; 1631 : 			gObj[m_PlayerData[i].m_Index].Connected > PLAYER_LOGGED )
; 1632 : 		{
; 1633 : 			pPlayerInfo.aIndex = m_PlayerData[i].m_Index;

  00677	0f b7 86 d0 01
	00 00		 movzx	 eax, WORD PTR [esi+464]

; 1637 : 			count++;

  0067e	41		 inc	 ecx
  0067f	66 89 85 e4 fe
	ff ff		 mov	 WORD PTR _pPlayerInfo$1[ebp], ax
  00686	8b 85 e0 fe ff
	ff		 mov	 eax, DWORD PTR tv2243[ebp]
  0068c	0f b6 80 23 01
	00 00		 movzx	 eax, BYTE PTR [eax+291]
  00693	88 85 e6 fe ff
	ff		 mov	 BYTE PTR _pPlayerInfo$1[ebp+2], al
  00699	8b 85 e0 fe ff
	ff		 mov	 eax, DWORD PTR tv2243[ebp]
  0069f	0f b6 80 20 01
	00 00		 movzx	 eax, BYTE PTR [eax+288]
  006a6	88 85 e7 fe ff
	ff		 mov	 BYTE PTR _pPlayerInfo$1[ebp+3], al
  006ac	8b 85 e0 fe ff
	ff		 mov	 eax, DWORD PTR tv2243[ebp]
  006b2	0f b6 80 21 01
	00 00		 movzx	 eax, BYTE PTR [eax+289]
  006b9	88 85 e8 fe ff
	ff		 mov	 BYTE PTR _pPlayerInfo$1[ebp+4], al

; 1638 : 
; 1639 : 			memcpy(&SENDBUFF[lOfs],&pPlayerInfo,sizeof(pPlayerInfo));

  006bf	8b 85 e4 fe ff
	ff		 mov	 eax, DWORD PTR _pPlayerInfo$1[ebp]
  006c5	89 84 15 fc fe
	ff ff		 mov	 DWORD PTR _SENDBUFF$[ebp+edx], eax
  006cc	0f b7 85 e8 fe
	ff ff		 movzx	 eax, WORD PTR _pPlayerInfo$1[ebp+4]
  006d3	66 89 84 15 00
	ff ff ff	 mov	 WORD PTR _SENDBUFF$[ebp+edx+4], ax

; 1640 : 			lOfs += sizeof(pPlayerInfo);

  006db	83 c2 06	 add	 edx, 6
$LN44@OperateMin:

; 1641 : 		}
; 1642 : 	}
; 1643 : 
; 1644 : 	if( TEAM == IT_ALLIED_TEAM )

  006de	84 db		 test	 bl, bl
  006e0	75 16		 jne	 SHORT $LN12@OperateMin

; 1645 : 	{
; 1646 : 		if( m_ALLIED_TEAM_COUNT != count )

  006e2	39 8e c8 03 00
	00		 cmp	 DWORD PTR [esi+968], ecx
  006e8	74 06		 je	 SHORT $LN14@OperateMin

; 1647 : 		{
; 1648 : 			m_ALLIED_TEAM_COUNT = count;

  006ea	89 8e c8 03 00
	00		 mov	 DWORD PTR [esi+968], ecx
$LN14@OperateMin:

; 1649 : 		}
; 1650 : 		pMsg.pCount = m_ALLIED_TEAM_COUNT;

  006f0	8a 86 c8 03 00
	00		 mov	 al, BYTE PTR [esi+968]

; 1651 : 	}
; 1652 : 	else

  006f6	eb 14		 jmp	 SHORT $LN46@OperateMin
$LN12@OperateMin:

; 1653 : 	{
; 1654 : 		if( m_ILLUSION_TEAM_COUNT != count )

  006f8	39 8e cc 03 00
	00		 cmp	 DWORD PTR [esi+972], ecx
  006fe	74 06		 je	 SHORT $LN15@OperateMin

; 1655 : 		{
; 1656 : 			m_ILLUSION_TEAM_COUNT = count;

  00700	89 8e cc 03 00
	00		 mov	 DWORD PTR [esi+972], ecx
$LN15@OperateMin:

; 1657 : 		}
; 1658 : 		pMsg.pCount = m_ILLUSION_TEAM_COUNT;

  00706	8a 86 cc 03 00
	00		 mov	 al, BYTE PTR [esi+972]
$LN46@OperateMin:

; 1659 : 	}
; 1660 : 
; 1661 : 	PHeadSubSetB((LPBYTE)&pMsg,0xBF,1,lOfs);

  0070c	52		 push	 edx
  0070d	6a 01		 push	 1
  0070f	88 85 f9 fe ff
	ff		 mov	 BYTE PTR _pMsg$[ebp+13], al
  00715	8d 85 ec fe ff
	ff		 lea	 eax, DWORD PTR _pMsg$[ebp]
  0071b	68 bf 00 00 00	 push	 191			; 000000bfH
  00720	50		 push	 eax
  00721	e8 00 00 00 00	 call	 ?PHeadSubSetB@@YAXPAEEEH@Z ; PHeadSubSetB

; 1662 : 	memcpy(&SENDBUFF[0],&pMsg,sizeof(pMsg));

  00726	8b 85 f4 fe ff
	ff		 mov	 eax, DWORD PTR _pMsg$[ebp+8]
  0072c	83 c4 10	 add	 esp, 16			; 00000010H
  0072f	f3 0f 7e 85 ec
	fe ff ff	 movq	 xmm0, QWORD PTR _pMsg$[ebp]
  00737	be 0a 00 00 00	 mov	 esi, 10			; 0000000aH
  0073c	89 85 04 ff ff
	ff		 mov	 DWORD PTR _SENDBUFF$[ebp+8], eax
  00742	66 8b 85 f8 fe
	ff ff		 mov	 ax, WORD PTR _pMsg$[ebp+12]
  00749	66 0f d6 85 fc
	fe ff ff	 movq	 QWORD PTR _SENDBUFF$[ebp], xmm0
  00751	66 89 85 08 ff
	ff ff		 mov	 WORD PTR _SENDBUFF$[ebp+12], ax
$LL7@OperateMin:

; 1665 : 	{
; 1666 : 		if( m_PlayerData[i].m_Index != -1 &&
; 1667 : 			gObj[m_PlayerData[i].m_Index].Connected > PLAYER_LOGGED &&

  00758	8b 17		 mov	 edx, DWORD PTR [edi]
  0075a	83 fa ff	 cmp	 edx, -1
  0075d	74 2f		 je	 SHORT $LN5@OperateMin
  0075f	a1 00 00 00 00	 mov	 eax, DWORD PTR ?gObj@@3PAUOBJECTSTRUCT@@A ; gObj
  00764	69 ca 40 27 00
	00		 imul	 ecx, edx, 10048
  0076a	83 7c 01 04 02	 cmp	 DWORD PTR [ecx+eax+4], 2
  0076f	7e 1d		 jle	 SHORT $LN5@OperateMin
  00771	38 5f 04	 cmp	 BYTE PTR [edi+4], bl
  00774	75 18		 jne	 SHORT $LN5@OperateMin

; 1668 : 			m_PlayerData[i].m_Team == TEAM )
; 1669 : 		{
; 1670 : 			DataSend(m_PlayerData[i].m_Index,(LPBYTE)&SENDBUFF[0],pMsg.h.size);

  00776	0f b6 85 ed fe
	ff ff		 movzx	 eax, BYTE PTR _pMsg$[ebp+1]
  0077d	50		 push	 eax
  0077e	8d 85 fc fe ff
	ff		 lea	 eax, DWORD PTR _SENDBUFF$[ebp]
  00784	50		 push	 eax
  00785	52		 push	 edx
  00786	e8 00 00 00 00	 call	 ?DataSend@@YAHHPAEK@Z	; DataSend
  0078b	83 c4 0c	 add	 esp, 12			; 0000000cH
$LN5@OperateMin:

; 1663 : 
; 1664 : 	for( i = 0; i < IT_MAXPLAYER; i++)

  0078e	83 c7 30	 add	 edi, 48			; 00000030H
  00791	83 ee 01	 sub	 esi, 1
  00794	75 c2		 jne	 SHORT $LL7@OperateMin

; 1671 : 		}
; 1672 : 	}
; 1673 : }

  00796	8b 4d fc	 mov	 ecx, DWORD PTR __$ArrayPad$[ebp]
  00799	5f		 pop	 edi
  0079a	5e		 pop	 esi
  0079b	33 cd		 xor	 ecx, ebp
  0079d	5b		 pop	 ebx
  0079e	e8 00 00 00 00	 call	 @__security_check_cookie@4
  007a3	8b e5		 mov	 esp, ebp
  007a5	5d		 pop	 ebp
  007a6	c2 04 00	 ret	 4
?OperateMiniMap@CIllusionTempleProcess@@QAEXE@Z ENDP	; CIllusionTempleProcess::OperateMiniMap
_TEXT	ENDS
; Function compile flags: /Ogtp
; File c:\users\michel\desktop\source\gameserver\source\illusiontempleprocess.cpp
;	COMDAT ?SendAllUserAnyMsg@CIllusionTempleProcess@@QAEXPAEH@Z
_TEXT	SEGMENT
_lpMsg$ = 8						; size = 4
_size$ = 12						; size = 4
?SendAllUserAnyMsg@CIllusionTempleProcess@@QAEXPAEH@Z PROC ; CIllusionTempleProcess::SendAllUserAnyMsg, COMDAT
; _this$ = ecx

; 2435 : {

  00000	55		 push	 ebp
  00001	8b ec		 mov	 ebp, esp
  00003	53		 push	 ebx

; 2436 : 	for(int i = OBJ_STARTUSERINDEX; i < OBJMAX; i++)

  00004	8b 5d 0c	 mov	 ebx, DWORD PTR _size$[ebp]
  00007	56		 push	 esi
  00008	57		 push	 edi
  00009	bf 04 29 00 00	 mov	 edi, 10500		; 00002904H
  0000e	be 00 dd 49 06	 mov	 esi, 105504000		; 0649dd00H
$LL4@SendAllUse:

; 2437 : 	{
; 2438 : 		if( gObj[i].Connected == PLAYER_PLAYING &&

  00013	a1 00 00 00 00	 mov	 eax, DWORD PTR ?gObj@@3PAUOBJECTSTRUCT@@A ; gObj
  00018	83 7c 06 04 03	 cmp	 DWORD PTR [esi+eax+4], 3
  0001d	75 14		 jne	 SHORT $LN2@SendAllUse
  0001f	80 7c 06 50 01	 cmp	 BYTE PTR [esi+eax+80], 1
  00024	75 0d		 jne	 SHORT $LN2@SendAllUse

; 2439 : 			gObj[i].Type == OBJ_USER)
; 2440 : 		{
; 2441 : 			DataSend(i,lpMsg,size);

  00026	53		 push	 ebx
  00027	ff 75 08	 push	 DWORD PTR _lpMsg$[ebp]
  0002a	57		 push	 edi
  0002b	e8 00 00 00 00	 call	 ?DataSend@@YAHHPAEK@Z	; DataSend
  00030	83 c4 0c	 add	 esp, 12			; 0000000cH
$LN2@SendAllUse:

; 2436 : 	for(int i = OBJ_STARTUSERINDEX; i < OBJMAX; i++)

  00033	81 c6 40 27 00
	00		 add	 esi, 10048		; 00002740H
  00039	47		 inc	 edi
  0003a	81 fe 00 2f e3
	06		 cmp	 esi, 115552000		; 06e32f00H
  00040	7c d1		 jl	 SHORT $LL4@SendAllUse
  00042	5f		 pop	 edi
  00043	5e		 pop	 esi
  00044	5b		 pop	 ebx

; 2442 : 		}
; 2443 : 	}
; 2444 : }

  00045	5d		 pop	 ebp
  00046	c2 08 00	 ret	 8
?SendAllUserAnyMsg@CIllusionTempleProcess@@QAEXPAEH@Z ENDP ; CIllusionTempleProcess::SendAllUserAnyMsg
_TEXT	ENDS
; Function compile flags: /Ogtp
; File c:\users\michel\desktop\source\gameserver\source\illusiontempleprocess.cpp
;	COMDAT ?MonsterRegen@CIllusionTempleProcess@@QAEXXZ
_TEXT	SEGMENT
?MonsterRegen@CIllusionTempleProcess@@QAEXXZ PROC	; CIllusionTempleProcess::MonsterRegen, COMDAT
; _this$ = ecx

; 1557 : {

  00000	56		 push	 esi

; 1558 : 	for(int i = 0; i < IT_MAXMONSTER; i++)

  00001	8d 81 50 02 00
	00		 lea	 eax, DWORD PTR [ecx+592]
  00007	be 28 00 00 00	 mov	 esi, 40			; 00000028H
  0000c	0f 1f 40 00	 npad	 4
$LL4@MonsterReg:

; 1559 : 	{
; 1560 : 		if( m_MONSTER_NPC[i].m_Index != -1 &&

  00010	8b 08		 mov	 ecx, DWORD PTR [eax]
  00012	83 f9 ff	 cmp	 ecx, -1
  00015	74 35		 je	 SHORT $LN2@MonsterReg
  00017	69 d1 40 27 00
	00		 imul	 edx, ecx, 10048
  0001d	03 15 00 00 00
	00		 add	 edx, DWORD PTR ?gObj@@3PAUOBJECTSTRUCT@@A ; gObj
  00023	66 83 ba 98 05
	00 00 ff	 cmp	 WORD PTR [edx+1432], -1
  0002b	75 1f		 jne	 SHORT $LN2@MonsterReg

; 1561 : 			gObj[m_MONSTER_NPC[i].m_Index].m_PosNum == -1 )
; 1562 : 		{
; 1563 : 			gObj[m_MONSTER_NPC[i].m_Index].m_PosNum = m_MONSTER_NPC[i].m_Num;

  0002d	66 8b 48 04	 mov	 cx, WORD PTR [eax+4]
  00031	66 89 8a 98 05
	00 00		 mov	 WORD PTR [edx+1432], cx

; 1564 : 			gObj[m_MONSTER_NPC[i].m_Index].DieRegen = 2;

  00038	69 10 40 27 00
	00		 imul	 edx, DWORD PTR [eax], 10048
  0003e	8b 0d 00 00 00
	00		 mov	 ecx, DWORD PTR ?gObj@@3PAUOBJECTSTRUCT@@A ; gObj
  00044	c6 84 0a 8a 05
	00 00 02	 mov	 BYTE PTR [edx+ecx+1418], 2
$LN2@MonsterReg:

; 1558 : 	for(int i = 0; i < IT_MAXMONSTER; i++)

  0004c	83 c0 08	 add	 eax, 8
  0004f	83 ee 01	 sub	 esi, 1
  00052	75 bc		 jne	 SHORT $LL4@MonsterReg
  00054	5e		 pop	 esi

; 1565 : 		}
; 1566 : 	}
; 1567 : }

  00055	c3		 ret	 0
?MonsterRegen@CIllusionTempleProcess@@QAEXXZ ENDP	; CIllusionTempleProcess::MonsterRegen
_TEXT	ENDS
; Function compile flags: /Ogtp
; File c:\users\michel\desktop\source\gameserver\source\illusiontempleprocess.cpp
;	COMDAT ?LeaveUser@CIllusionTempleProcess@@QAEHH@Z
_TEXT	SEGMENT
_lpItem$1$ = -4						; size = 4
tv189 = 8						; size = 4
_pMsg$1 = 8						; size = 4
_aIndex$ = 8						; size = 4
?LeaveUser@CIllusionTempleProcess@@QAEHH@Z PROC		; CIllusionTempleProcess::LeaveUser, COMDAT
; _this$ = ecx

; 816  : {

  00000	55		 push	 ebp
  00001	8b ec		 mov	 ebp, esp
  00003	51		 push	 ecx
  00004	53		 push	 ebx

; 817  : 	if( OBJMAX_RANGE(aIndex) == FALSE )

  00005	8b 5d 08	 mov	 ebx, DWORD PTR _aIndex$[ebp]
  00008	56		 push	 esi
  00009	8b f1		 mov	 esi, ecx
  0000b	85 db		 test	 ebx, ebx
  0000d	0f 88 0e 02 00
	00		 js	 $LN16@LeaveUser
  00013	33 c0		 xor	 eax, eax
  00015	81 fb eb 2c 00
	00		 cmp	 ebx, 11499		; 00002cebH
  0001b	0f 9e c0	 setle	 al
  0001e	85 c0		 test	 eax, eax
  00020	0f 84 fb 01 00
	00		 je	 $LN16@LeaveUser

; 821  : 	}
; 822  : 
; 823  : 	EnterCriticalSection(&this->m_CritSec);

  00026	57		 push	 edi
  00027	8d 46 08	 lea	 eax, DWORD PTR [esi+8]
  0002a	50		 push	 eax
  0002b	ff 15 00 00 00
	00		 call	 DWORD PTR __imp__EnterCriticalSection@4

; 824  : 
; 825  : 	if( gObj[aIndex].iTempleIndex != -1 &&

  00031	8b 0d 00 00 00
	00		 mov	 ecx, DWORD PTR ?gObj@@3PAUOBJECTSTRUCT@@A ; gObj
  00037	69 fb 40 27 00
	00		 imul	 edi, ebx, 10048
  0003d	8b 84 0f 78 24
	00 00		 mov	 eax, DWORD PTR [edi+ecx+9336]
  00044	83 f8 ff	 cmp	 eax, -1
  00047	0f 84 5f 01 00
	00		 je	 $LN3@LeaveUser
  0004d	8d 04 40	 lea	 eax, DWORD PTR [eax+eax*2]
  00050	c1 e0 04	 shl	 eax, 4
  00053	89 45 08	 mov	 DWORD PTR tv189[ebp], eax
  00056	3b 5c 30 20	 cmp	 ebx, DWORD PTR [eax+esi+32]
  0005a	0f 85 4c 01 00
	00		 jne	 $LN3@LeaveUser

; 826  : 		 aIndex == m_PlayerData[gObj[aIndex].iTempleIndex].m_Index )
; 827  : 	{
; 828  : 		IT_PLAYER_STRUCT* lpData = &m_PlayerData[gObj[aIndex].iTempleIndex];
; 829  : 
; 830  : 		if( lpData->m_TicketPos > -1 )

  00060	0f b6 44 30 48	 movzx	 eax, BYTE PTR [eax+esi+72]
  00065	83 f8 ff	 cmp	 eax, -1
  00068	7e 52		 jle	 SHORT $LN17@LeaveUser

; 831  : 		{
; 832  : 			CItem* lpItem = &gObj[aIndex].pInventory[lpData->m_TicketPos];

  0006a	69 c0 d4 00 00
	00		 imul	 eax, eax, 212
  00070	03 84 0f c0 11
	00 00		 add	 eax, DWORD PTR [edi+ecx+4544]
  00077	89 45 fc	 mov	 DWORD PTR _lpItem$1$[ebp], eax

; 833  : 
; 834  : 			if( lpItem != NULL && lpItem->IsItem() == TRUE && lpItem->m_Durability < 1.0f)

  0007a	74 40		 je	 SHORT $LN17@LeaveUser
  0007c	8b c8		 mov	 ecx, eax
  0007e	e8 00 00 00 00	 call	 ?IsItem@CItem@@QAEHXZ	; CItem::IsItem
  00083	83 f8 01	 cmp	 eax, 1
  00086	75 34		 jne	 SHORT $LN17@LeaveUser
  00088	8b 45 fc	 mov	 eax, DWORD PTR _lpItem$1$[ebp]
  0008b	f3 0f 10 05 00
	00 00 00	 movss	 xmm0, DWORD PTR __real@3f800000
  00093	0f 2f 40 24	 comiss	 xmm0, DWORD PTR [eax+36]
  00097	76 23		 jbe	 SHORT $LN17@LeaveUser

; 835  : 			{
; 836  : 				gObjInventoryDeleteItem(aIndex,lpData->m_TicketPos);

  00099	8b 45 08	 mov	 eax, DWORD PTR tv189[ebp]
  0009c	0f b6 44 30 48	 movzx	 eax, BYTE PTR [eax+esi+72]
  000a1	50		 push	 eax
  000a2	53		 push	 ebx
  000a3	e8 00 00 00 00	 call	 ?gObjInventoryDeleteItem@@YAEHH@Z ; gObjInventoryDeleteItem

; 837  : 				GCInventoryItemDeleteSend(aIndex,lpData->m_TicketPos,0);

  000a8	8b 45 08	 mov	 eax, DWORD PTR tv189[ebp]
  000ab	6a 00		 push	 0
  000ad	0f b6 44 30 48	 movzx	 eax, BYTE PTR [eax+esi+72]
  000b2	50		 push	 eax
  000b3	53		 push	 ebx
  000b4	e8 00 00 00 00	 call	 ?GCInventoryItemDeleteSend@@YAXHEE@Z ; GCInventoryItemDeleteSend
  000b9	83 c4 14	 add	 esp, 20			; 00000014H
$LN17@LeaveUser:

; 838  : 			}
; 839  : 		}
; 840  : 
; 841  : 		if( m_PlayerData[gObj[aIndex].iTempleIndex].m_Skill1Time > 0 )

  000bc	8b 0d 00 00 00
	00		 mov	 ecx, DWORD PTR ?gObj@@3PAUOBJECTSTRUCT@@A ; gObj
  000c2	03 cf		 add	 ecx, edi
  000c4	8b 81 78 24 00
	00		 mov	 eax, DWORD PTR [ecx+9336]
  000ca	8d 04 40	 lea	 eax, DWORD PTR [eax+eax*2]
  000cd	03 c0		 add	 eax, eax
  000cf	83 7c c6 28 00	 cmp	 DWORD PTR [esi+eax*8+40], 0
  000d4	76 1f		 jbe	 SHORT $LN6@LeaveUser

; 842  : 		{
; 843  : 			gObjRemoveBuffEffect(&gObj[aIndex],BUFF_IT_PROTECTION);

  000d6	6a 22		 push	 34			; 00000022H
  000d8	51		 push	 ecx
  000d9	e8 00 00 00 00	 call	 ?gObjRemoveBuffEffect@@YA_NPAUOBJECTSTRUCT@@H@Z ; gObjRemoveBuffEffect

; 844  : 			GCSendUseSkill(&gObj[aIndex],0xD2);

  000de	a1 00 00 00 00	 mov	 eax, DWORD PTR ?gObj@@3PAUOBJECTSTRUCT@@A ; gObj
  000e3	83 c4 08	 add	 esp, 8
  000e6	03 c7		 add	 eax, edi
  000e8	8b ce		 mov	 ecx, esi
  000ea	68 d2 00 00 00	 push	 210			; 000000d2H
  000ef	50		 push	 eax
  000f0	e8 00 00 00 00	 call	 ?GCSendUseSkill@CIllusionTempleProcess@@QAEXPAUOBJECTSTRUCT@@H@Z ; CIllusionTempleProcess::GCSendUseSkill
$LN6@LeaveUser:

; 845  : 		}
; 846  : 
; 847  : 		if( m_PlayerData[gObj[aIndex].iTempleIndex].m_Skill2Time > 0 )

  000f5	8b 0d 00 00 00
	00		 mov	 ecx, DWORD PTR ?gObj@@3PAUOBJECTSTRUCT@@A ; gObj
  000fb	03 cf		 add	 ecx, edi
  000fd	8b 81 78 24 00
	00		 mov	 eax, DWORD PTR [ecx+9336]
  00103	8d 04 40	 lea	 eax, DWORD PTR [eax+eax*2]
  00106	03 c0		 add	 eax, eax
  00108	83 7c c6 2c 00	 cmp	 DWORD PTR [esi+eax*8+44], 0
  0010d	76 1f		 jbe	 SHORT $LN7@LeaveUser

; 848  : 		{
; 849  : 			gObjRemoveBuffEffect(&gObj[aIndex],BUFF_RESTRICTION);

  0010f	6a 41		 push	 65			; 00000041H
  00111	51		 push	 ecx
  00112	e8 00 00 00 00	 call	 ?gObjRemoveBuffEffect@@YA_NPAUOBJECTSTRUCT@@H@Z ; gObjRemoveBuffEffect

; 850  : 			GCSendUseSkill(&gObj[aIndex],0xD3);

  00117	a1 00 00 00 00	 mov	 eax, DWORD PTR ?gObj@@3PAUOBJECTSTRUCT@@A ; gObj
  0011c	83 c4 08	 add	 esp, 8
  0011f	03 c7		 add	 eax, edi
  00121	8b ce		 mov	 ecx, esi
  00123	68 d3 00 00 00	 push	 211			; 000000d3H
  00128	50		 push	 eax
  00129	e8 00 00 00 00	 call	 ?GCSendUseSkill@CIllusionTempleProcess@@QAEXPAUOBJECTSTRUCT@@H@Z ; CIllusionTempleProcess::GCSendUseSkill
$LN7@LeaveUser:

; 851  : 		}
; 852  : 
; 853  : 		if( m_PlayerData[gObj[aIndex].iTempleIndex].m_Team == IT_ALLIED_TEAM )

  0012e	a1 00 00 00 00	 mov	 eax, DWORD PTR ?gObj@@3PAUOBJECTSTRUCT@@A ; gObj
  00133	8b 84 07 78 24
	00 00		 mov	 eax, DWORD PTR [edi+eax+9336]
  0013a	8d 04 40	 lea	 eax, DWORD PTR [eax+eax*2]
  0013d	c1 e0 04	 shl	 eax, 4
  00140	8a 44 30 24	 mov	 al, BYTE PTR [eax+esi+36]
  00144	84 c0		 test	 al, al
  00146	75 08		 jne	 SHORT $LN8@LeaveUser

; 854  : 		{
; 855  : 			m_ALLIED_TEAM_COUNT--;

  00148	ff 8e c8 03 00
	00		 dec	 DWORD PTR [esi+968]
  0014e	eb 0a		 jmp	 SHORT $LN10@LeaveUser
$LN8@LeaveUser:

; 856  : 		}
; 857  : 		else if( m_PlayerData[gObj[aIndex].iTempleIndex].m_Team == IT_ILLUSION_TEAM )

  00150	3c 01		 cmp	 al, 1
  00152	75 06		 jne	 SHORT $LN10@LeaveUser

; 858  : 		{
; 859  : 			m_ILLUSION_TEAM_COUNT--;

  00154	ff 8e cc 03 00
	00		 dec	 DWORD PTR [esi+972]
$LN10@LeaveUser:

; 860  : 		}
; 861  : 
; 862  : 		UserInit(gObj[aIndex].iTempleIndex);

  0015a	a1 00 00 00 00	 mov	 eax, DWORD PTR ?gObj@@3PAUOBJECTSTRUCT@@A ; gObj
  0015f	8b ce		 mov	 ecx, esi
  00161	ff b4 07 78 24
	00 00		 push	 DWORD PTR [edi+eax+9336]
  00168	e8 00 00 00 00	 call	 ?UserInit@CIllusionTempleProcess@@QAEXH@Z ; CIllusionTempleProcess::UserInit

; 863  : 		gObj[aIndex].iTempleIndex = -1;

  0016d	a1 00 00 00 00	 mov	 eax, DWORD PTR ?gObj@@3PAUOBJECTSTRUCT@@A ; gObj
  00172	c7 84 07 78 24
	00 00 ff ff ff
	ff		 mov	 DWORD PTR [edi+eax+9336], -1

; 864  : 		UserCount--;

  0017d	ff 8e 28 02 00
	00		 dec	 DWORD PTR [esi+552]

; 865  : 
; 866  : 		LogAddTD("[Illusion Temple] (%d) LeaveUser: (%s)(%s)",

  00183	8b 0d 00 00 00
	00		 mov	 ecx, DWORD PTR ?gObj@@3PAUOBJECTSTRUCT@@A ; gObj
  00189	8d 41 5d	 lea	 eax, DWORD PTR [ecx+93]
  0018c	03 c7		 add	 eax, edi
  0018e	50		 push	 eax
  0018f	8d 41 52	 lea	 eax, DWORD PTR [ecx+82]
  00192	03 c7		 add	 eax, edi
  00194	50		 push	 eax
  00195	0f b6 86 2c 02
	00 00		 movzx	 eax, BYTE PTR [esi+556]
  0019c	40		 inc	 eax
  0019d	50		 push	 eax
  0019e	68 00 00 00 00	 push	 OFFSET ??_C@_0CL@PJKIAECJ@?$FLIllusion?5Temple?$FN?5?$CI?$CFd?$CJ?5LeaveUser@
  001a3	ff 15 00 00 00
	00		 call	 DWORD PTR ?LogAddTD@@3P6AXPADZZA ; LogAddTD
  001a9	83 c4 10	 add	 esp, 16			; 00000010H
$LN3@LeaveUser:

; 867  : 			Temple+1,gObj[aIndex].AccountID,gObj[aIndex].Name);
; 868  : 	}
; 869  : 
; 870  : 	LeaveCriticalSection(&this->m_CritSec);

  001ac	8d 46 08	 lea	 eax, DWORD PTR [esi+8]
  001af	50		 push	 eax
  001b0	ff 15 00 00 00
	00		 call	 DWORD PTR __imp__LeaveCriticalSection@4

; 871  : 
; 872  : 
; 873  : 	if( gObj[aIndex].PartyNumber >= 0 )

  001b6	a1 00 00 00 00	 mov	 eax, DWORD PTR ?gObj@@3PAUOBJECTSTRUCT@@A ; gObj
  001bb	8b 8c 07 0c 06
	00 00		 mov	 ecx, DWORD PTR [edi+eax+1548]
  001c2	85 c9		 test	 ecx, ecx
  001c4	78 2d		 js	 SHORT $LN18@LeaveUser

; 874  : 	{
; 875  : 		PMSG_PARTYDELUSER pMsg;
; 876  : 		int index = gParty.GetIndex(gObj[aIndex].PartyNumber,gObj[aIndex].m_Index,gObj[aIndex].DBNumber);

  001c6	ff 74 07 30	 push	 DWORD PTR [edi+eax+48]
  001ca	ff 34 07	 push	 DWORD PTR [edi+eax]
  001cd	51		 push	 ecx
  001ce	b9 00 00 00 00	 mov	 ecx, OFFSET ?gParty@@3VPartyClass@@A ; gParty
  001d3	e8 00 00 00 00	 call	 ?GetIndex@PartyClass@@QAEHHHH@Z ; PartyClass::GetIndex

; 877  : 
; 878  : 		if( index >= 0 )

  001d8	85 c0		 test	 eax, eax
  001da	78 17		 js	 SHORT $LN18@LeaveUser

; 879  : 		{
; 880  : 			pMsg.Number = index;

  001dc	88 45 0b	 mov	 BYTE PTR _pMsg$1[ebp+3], al

; 881  : 
; 882  : 			CGPartyDelUser(&pMsg,gObj[aIndex].m_Index);

  001df	a1 00 00 00 00	 mov	 eax, DWORD PTR ?gObj@@3PAUOBJECTSTRUCT@@A ; gObj
  001e4	ff 34 07	 push	 DWORD PTR [edi+eax]
  001e7	8d 45 08	 lea	 eax, DWORD PTR _pMsg$1[ebp]
  001ea	50		 push	 eax
  001eb	e8 00 00 00 00	 call	 ?CGPartyDelUser@@YAXPAUPMSG_PARTYDELUSER@@H@Z ; CGPartyDelUser
  001f0	83 c4 08	 add	 esp, 8
$LN18@LeaveUser:

; 883  : 		}
; 884  : 	}
; 885  : 
; 886  : 	gObj[aIndex].m_Change = -1;

  001f3	a1 00 00 00 00	 mov	 eax, DWORD PTR ?gObj@@3PAUOBJECTSTRUCT@@A ; gObj
  001f8	c7 84 07 34 06
	00 00 ff ff ff
	ff		 mov	 DWORD PTR [edi+eax+1588], -1

; 887  : 	gObjViewportListProtocolCreate(&gObj[aIndex]);

  00203	a1 00 00 00 00	 mov	 eax, DWORD PTR ?gObj@@3PAUOBJECTSTRUCT@@A ; gObj
  00208	03 c7		 add	 eax, edi
  0020a	50		 push	 eax
  0020b	e8 00 00 00 00	 call	 ?gObjViewportListProtocolCreate@@YAXPAUOBJECTSTRUCT@@@Z ; gObjViewportListProtocolCreate
  00210	83 c4 04	 add	 esp, 4

; 888  : 	return true;

  00213	b8 01 00 00 00	 mov	 eax, 1
  00218	5f		 pop	 edi
  00219	5e		 pop	 esi
  0021a	5b		 pop	 ebx

; 889  : }

  0021b	8b e5		 mov	 esp, ebp
  0021d	5d		 pop	 ebp
  0021e	c2 04 00	 ret	 4
$LN16@LeaveUser:

; 818  : 	{
; 819  : 		LogAdd("return %s %d",__FILE__,__LINE__);

  00221	68 33 03 00 00	 push	 819			; 00000333H
  00226	68 00 00 00 00	 push	 OFFSET ??_C@_0BK@DMGNFDO@IllusionTempleProcess?4cpp?$AA@
  0022b	68 00 00 00 00	 push	 OFFSET ??_C@_0N@GGPGOPEN@return?5?$CFs?5?$CFd?$AA@
  00230	ff 15 00 00 00
	00		 call	 DWORD PTR ?LogAdd@@3P6AXPADZZA ; LogAdd
  00236	83 c4 0c	 add	 esp, 12			; 0000000cH

; 820  : 		return false;

  00239	33 c0		 xor	 eax, eax
  0023b	5e		 pop	 esi
  0023c	5b		 pop	 ebx

; 889  : }

  0023d	8b e5		 mov	 esp, ebp
  0023f	5d		 pop	 ebp
  00240	c2 04 00	 ret	 4
?LeaveUser@CIllusionTempleProcess@@QAEHH@Z ENDP		; CIllusionTempleProcess::LeaveUser
_TEXT	ENDS
; Function compile flags: /Ogtp
; File c:\users\michel\desktop\source\gameserver\source\illusiontempleprocess.cpp
;	COMDAT ?GetTeam@CIllusionTempleProcess@@QAEEH@Z
_TEXT	SEGMENT
_aIndex$ = 8						; size = 4
?GetTeam@CIllusionTempleProcess@@QAEEH@Z PROC		; CIllusionTempleProcess::GetTeam, COMDAT
; _this$ = ecx

; 1699 : {

  00000	55		 push	 ebp
  00001	8b ec		 mov	 ebp, esp

; 1700 : 	if( OBJMAX_RANGE(aIndex) == FALSE )

  00003	8b 55 08	 mov	 edx, DWORD PTR _aIndex$[ebp]
  00006	56		 push	 esi
  00007	8b f1		 mov	 esi, ecx
  00009	85 d2		 test	 edx, edx
  0000b	78 41		 js	 SHORT $LN8@GetTeam
  0000d	33 c0		 xor	 eax, eax
  0000f	81 fa eb 2c 00
	00		 cmp	 edx, 11499		; 00002cebH
  00015	0f 9e c0	 setle	 al
  00018	85 c0		 test	 eax, eax
  0001a	74 32		 je	 SHORT $LN8@GetTeam

; 1704 : 	}
; 1705 : 
; 1706 : 	if( gObj[aIndex].iTempleIndex != -1 &&

  0001c	69 ca 40 27 00
	00		 imul	 ecx, edx, 10048
  00022	03 0d 00 00 00
	00		 add	 ecx, DWORD PTR ?gObj@@3PAUOBJECTSTRUCT@@A ; gObj
  00028	8b 81 78 24 00
	00		 mov	 eax, DWORD PTR [ecx+9336]
  0002e	83 f8 ff	 cmp	 eax, -1
  00031	74 33		 je	 SHORT $LN3@GetTeam
  00033	8d 04 40	 lea	 eax, DWORD PTR [eax+eax*2]
  00036	c1 e0 04	 shl	 eax, 4
  00039	39 54 30 20	 cmp	 DWORD PTR [eax+esi+32], edx
  0003d	74 06		 je	 SHORT $LN4@GetTeam
  0003f	83 79 04 02	 cmp	 DWORD PTR [ecx+4], 2
  00043	7e 21		 jle	 SHORT $LN3@GetTeam
$LN4@GetTeam:

; 1707 : 		(m_PlayerData[gObj[aIndex].iTempleIndex].m_Index == aIndex ||
; 1708 : 		gObj[aIndex].Connected > PLAYER_LOGGED ))
; 1709 : 	{
; 1710 : 		return m_PlayerData[gObj[aIndex].iTempleIndex].m_Team;

  00045	8a 44 30 24	 mov	 al, BYTE PTR [eax+esi+36]
  00049	5e		 pop	 esi

; 1711 : 	}
; 1712 : 	return -1;
; 1713 : }

  0004a	5d		 pop	 ebp
  0004b	c2 04 00	 ret	 4
$LN8@GetTeam:

; 1701 : 	{
; 1702 : 		LogAdd("return %s %d",__FILE__,__LINE__);

  0004e	68 a6 06 00 00	 push	 1702			; 000006a6H
  00053	68 00 00 00 00	 push	 OFFSET ??_C@_0BK@DMGNFDO@IllusionTempleProcess?4cpp?$AA@
  00058	68 00 00 00 00	 push	 OFFSET ??_C@_0N@GGPGOPEN@return?5?$CFs?5?$CFd?$AA@
  0005d	ff 15 00 00 00
	00		 call	 DWORD PTR ?LogAdd@@3P6AXPADZZA ; LogAdd
  00063	83 c4 0c	 add	 esp, 12			; 0000000cH
$LN3@GetTeam:

; 1703 : 		return -1;

  00066	0c ff		 or	 al, 255			; 000000ffH
  00068	5e		 pop	 esi

; 1711 : 	}
; 1712 : 	return -1;
; 1713 : }

  00069	5d		 pop	 ebp
  0006a	c2 04 00	 ret	 4
?GetTeam@CIllusionTempleProcess@@QAEEH@Z ENDP		; CIllusionTempleProcess::GetTeam
_TEXT	ENDS
; Function compile flags: /Ogtp
; File c:\users\michel\desktop\source\gameserver\source\illusiontempleprocess.cpp
;	COMDAT ?Is2ndSkillActive@CIllusionTempleProcess@@QAEHH@Z
_TEXT	SEGMENT
_iEventIndex$ = 8					; size = 4
?Is2ndSkillActive@CIllusionTempleProcess@@QAEHH@Z PROC	; CIllusionTempleProcess::Is2ndSkillActive, COMDAT
; _this$ = ecx

; 2576 : {

  00000	55		 push	 ebp
  00001	8b ec		 mov	 ebp, esp

; 2577 : 	if( IT_PLAYER_RANGE(iEventIndex) == FALSE )

  00003	8b 55 08	 mov	 edx, DWORD PTR _iEventIndex$[ebp]
  00006	85 d2		 test	 edx, edx
  00008	78 28		 js	 SHORT $LN7@Is2ndSkill
  0000a	33 c0		 xor	 eax, eax
  0000c	83 fa 09	 cmp	 edx, 9
  0000f	0f 9e c0	 setle	 al
