; Listing generated by Microsoft (R) Optimizing Compiler Version 19.00.23506.0 

	TITLE	C:\Users\Michel\Desktop\Source\GameServer\Source\ImperialGuardian.cpp
	.686P
	.XMM
	include listing.inc
	.model	flat

INCLUDELIB LIBCMT
INCLUDELIB OLDNAMES

PUBLIC	?gFreeServer@@3HA				; gFreeServer
PUBLIC	?g_nMysteriousPaperDropRate@@3HA		; g_nMysteriousPaperDropRate
_BSS	SEGMENT
?gFreeServer@@3HA DD 01H DUP (?)			; gFreeServer
?g_nMysteriousPaperDropRate@@3HA DD 01H DUP (?)		; g_nMysteriousPaperDropRate
_BSS	ENDS
PUBLIC	?__empty_global_delete@@YAXPAX@Z		; __empty_global_delete
PUBLIC	?__empty_global_delete@@YAXPAXI@Z		; __empty_global_delete
PUBLIC	___local_stdio_printf_options
PUBLIC	??$__vcrt_va_start_verify_argument_type@QBD@@YAXXZ ; __vcrt_va_start_verify_argument_type<char const * const>
PUBLIC	_sprintf
PUBLIC	?AtlThrowImpl@ATL@@YGXJ@Z			; ATL::AtlThrowImpl
PUBLIC	?GetLocalTm@CTime@ATL@@QBEPAUtm@@PAU3@@Z	; ATL::CTime::GetLocalTm
PUBLIC	??1OBJECTSTRUCT@@QAE@XZ				; OBJECTSTRUCT::~OBJECTSTRUCT
PUBLIC	??_EOBJECTSTRUCT@@QAEPAXI@Z			; OBJECTSTRUCT::`vector deleting destructor'
PUBLIC	??0_stZoneInfo@@QAE@XZ				; _stZoneInfo::_stZoneInfo
PUBLIC	?allocate@?$allocator@U_stMonsterIndexInfo@@@std@@QAEPAU_stMonsterIndexInfo@@I@Z ; std::allocator<_stMonsterIndexInfo>::allocate
PUBLIC	?deallocate@?$_Wrap_alloc@V?$allocator@U_stMonsterIndexInfo@@@std@@@std@@QAEXPAU_stMonsterIndexInfo@@I@Z ; std::_Wrap_alloc<std::allocator<_stMonsterIndexInfo> >::deallocate
PUBLIC	??0?$vector@U_stMonsterIndexInfo@@V?$allocator@U_stMonsterIndexInfo@@@std@@@std@@QAE@ABV01@@Z ; std::vector<_stMonsterIndexInfo,std::allocator<_stMonsterIndexInfo> >::vector<_stMonsterIndexInfo,std::allocator<_stMonsterIndexInfo> >
PUBLIC	??1?$vector@U_stMonsterIndexInfo@@V?$allocator@U_stMonsterIndexInfo@@@std@@@std@@QAE@XZ ; std::vector<_stMonsterIndexInfo,std::allocator<_stMonsterIndexInfo> >::~vector<_stMonsterIndexInfo,std::allocator<_stMonsterIndexInfo> >
PUBLIC	?push_back@?$vector@U_stMonsterIndexInfo@@V?$allocator@U_stMonsterIndexInfo@@@std@@@std@@QAEXABU_stMonsterIndexInfo@@@Z ; std::vector<_stMonsterIndexInfo,std::allocator<_stMonsterIndexInfo> >::push_back
PUBLIC	?_Reallocate@?$vector@U_stMonsterIndexInfo@@V?$allocator@U_stMonsterIndexInfo@@@std@@@std@@IAEXI@Z ; std::vector<_stMonsterIndexInfo,std::allocator<_stMonsterIndexInfo> >::_Reallocate
PUBLIC	?_Reserve@?$vector@U_stMonsterIndexInfo@@V?$allocator@U_stMonsterIndexInfo@@@std@@@std@@IAEXI@Z ; std::vector<_stMonsterIndexInfo,std::allocator<_stMonsterIndexInfo> >::_Reserve
PUBLIC	?_Tidy@?$vector@U_stMonsterIndexInfo@@V?$allocator@U_stMonsterIndexInfo@@@std@@@std@@IAEXXZ ; std::vector<_stMonsterIndexInfo,std::allocator<_stMonsterIndexInfo> >::_Tidy
PUBLIC	?allocate@?$allocator@H@std@@QAEPAHI@Z		; std::allocator<int>::allocate
PUBLIC	?deallocate@?$_Wrap_alloc@V?$allocator@H@std@@@std@@QAEXPAHI@Z ; std::_Wrap_alloc<std::allocator<int> >::deallocate
PUBLIC	??0?$vector@HV?$allocator@H@std@@@std@@QAE@ABV01@@Z ; std::vector<int,std::allocator<int> >::vector<int,std::allocator<int> >
PUBLIC	??1?$vector@HV?$allocator@H@std@@@std@@QAE@XZ	; std::vector<int,std::allocator<int> >::~vector<int,std::allocator<int> >
PUBLIC	?_Reallocate@?$vector@HV?$allocator@H@std@@@std@@IAEXI@Z ; std::vector<int,std::allocator<int> >::_Reallocate
PUBLIC	?_Reserve@?$vector@HV?$allocator@H@std@@@std@@IAEXI@Z ; std::vector<int,std::allocator<int> >::_Reserve
PUBLIC	??1_stZoneInfo@@QAE@XZ				; _stZoneInfo::~_stZoneInfo
PUBLIC	??0_stZoneInfo@@QAE@ABU0@@Z			; _stZoneInfo::_stZoneInfo
PUBLIC	??0CImperialGuardian@@QAE@XZ			; CImperialGuardian::CImperialGuardian
PUBLIC	??1CImperialGuardian@@UAE@XZ			; CImperialGuardian::~CImperialGuardian
PUBLIC	?Init@CImperialGuardian@@QAEXXZ			; CImperialGuardian::Init
PUBLIC	?InitEventDungeon@CImperialGuardian@@QAEXXZ	; CImperialGuardian::InitEventDungeon
PUBLIC	?LoadScript@CImperialGuardian@@QAEXPBD@Z	; CImperialGuardian::LoadScript
PUBLIC	?Run@CImperialGuardian@@QAEXXZ			; CImperialGuardian::Run
PUBLIC	?ProcReady@CImperialGuardian@@QAEXH@Z		; CImperialGuardian::ProcReady
PUBLIC	?ProcBeginTimeAttack@CImperialGuardian@@QAEXH@Z	; CImperialGuardian::ProcBeginTimeAttack
PUBLIC	?ProcBeginLootTime@CImperialGuardian@@QAEXH@Z	; CImperialGuardian::ProcBeginLootTime
PUBLIC	?ProcBeginWaitPlayer@CImperialGuardian@@QAEXH@Z	; CImperialGuardian::ProcBeginWaitPlayer
PUBLIC	?ProcAllWarpNextZone@CImperialGuardian@@QAEXH@Z	; CImperialGuardian::ProcAllWarpNextZone
PUBLIC	?ProcAllKick@CImperialGuardian@@QAEXH@Z		; CImperialGuardian::ProcAllKick
PUBLIC	?ProcMissionFail@CImperialGuardian@@QAEXH@Z	; CImperialGuardian::ProcMissionFail
PUBLIC	?ProcMissionClear@CImperialGuardian@@QAEXH@Z	; CImperialGuardian::ProcMissionClear
PUBLIC	?IsEmptyZone@CImperialGuardian@@QAE_NH@Z	; CImperialGuardian::IsEmptyZone
PUBLIC	?KickInvalidUser@CImperialGuardian@@QAEXXZ	; CImperialGuardian::KickInvalidUser
PUBLIC	?CheckValidUser@CImperialGuardian@@QAE_NH@Z	; CImperialGuardian::CheckValidUser
PUBLIC	?GetZoneState@CImperialGuardian@@QAEHH@Z	; CImperialGuardian::GetZoneState
PUBLIC	?SetZoneState@CImperialGuardian@@QAE_NHH@Z	; CImperialGuardian::SetZoneState
PUBLIC	?CGEnterPortal@CImperialGuardian@@QAEXHH@Z	; CImperialGuardian::CGEnterPortal
PUBLIC	?RegenMonster@CImperialGuardian@@QAEXHHH_N@Z	; CImperialGuardian::RegenMonster
PUBLIC	?DeleteMonster@CImperialGuardian@@QAEXHH@Z	; CImperialGuardian::DeleteMonster
PUBLIC	?InitZone@CImperialGuardian@@QAEXH@Z		; CImperialGuardian::InitZone
PUBLIC	?SetMonster@CImperialGuardian@@QAE_NHHH@Z	; CImperialGuardian::SetMonster
PUBLIC	?GetGateNumber@CImperialGuardian@@QAEHHH@Z	; CImperialGuardian::GetGateNumber
PUBLIC	?GetMapNumber@CImperialGuardian@@QAEHH@Z	; CImperialGuardian::GetMapNumber
PUBLIC	?ProcCheckDungeon@CImperialGuardian@@QAEXH@Z	; CImperialGuardian::ProcCheckDungeon
PUBLIC	?GetLiveMonsterCount@CImperialGuardian@@QAEHH@Z	; CImperialGuardian::GetLiveMonsterCount
PUBLIC	?CheckLiveMonster@CImperialGuardian@@QAEXH@Z	; CImperialGuardian::CheckLiveMonster
PUBLIC	?GetCurrentZoneIndex@CImperialGuardian@@QAEHH@Z	; CImperialGuardian::GetCurrentZoneIndex
PUBLIC	?AddUserInZone@CImperialGuardian@@QAE_NHH@Z	; CImperialGuardian::AddUserInZone
PUBLIC	?RemoveUserInZone@CImperialGuardian@@QAEXHH@Z	; CImperialGuardian::RemoveUserInZone
PUBLIC	?RemoveUserInAllZone@CImperialGuardian@@QAEXH@Z	; CImperialGuardian::RemoveUserInAllZone
PUBLIC	?GetPlayerCount@CImperialGuardian@@QAEHH@Z	; CImperialGuardian::GetPlayerCount
PUBLIC	?GetTotalPlayerCount@CImperialGuardian@@QAEHXZ	; CImperialGuardian::GetTotalPlayerCount
PUBLIC	?IsLastZone@CImperialGuardian@@QAE_NH@Z		; CImperialGuardian::IsLastZone
PUBLIC	?GCNotifyZoneClear@CImperialGuardian@@QAE_NH@Z	; CImperialGuardian::GCNotifyZoneClear
PUBLIC	?GCNotifyAllZoneClear@CImperialGuardian@@QAE_NH@Z ; CImperialGuardian::GCNotifyAllZoneClear
PUBLIC	?GCMissionFail@CImperialGuardian@@QAEXH@Z	; CImperialGuardian::GCMissionFail
PUBLIC	?GCMissionFailUseDie@CImperialGuardian@@QAEXH@Z	; CImperialGuardian::GCMissionFailUseDie
PUBLIC	?GCSendDataToUser@CImperialGuardian@@QAEXHPAEH@Z ; CImperialGuardian::GCSendDataToUser
PUBLIC	?GCNotifyRemainTickCount@CImperialGuardian@@QAE_NHEK@Z ; CImperialGuardian::GCNotifyRemainTickCount
PUBLIC	?SetGateBlockState@CImperialGuardian@@QAEXHHHHHH@Z ; CImperialGuardian::SetGateBlockState
PUBLIC	?GCSendCastleGateInfo@CImperialGuardian@@QAEXHHH@Z ; CImperialGuardian::GCSendCastleGateInfo
PUBLIC	?DropItem@CImperialGuardian@@QAEXHH@Z		; CImperialGuardian::DropItem
PUBLIC	?CheckOverlapMysteriousPaper@CImperialGuardian@@QAEHHH@Z ; CImperialGuardian::CheckOverlapMysteriousPaper
PUBLIC	?RollBackUserPos@CImperialGuardian@@QAEXH@Z	; CImperialGuardian::RollBackUserPos
PUBLIC	?CheckGaionOrderPaper@CImperialGuardian@@QAEHH@Z ; CImperialGuardian::CheckGaionOrderPaper
PUBLIC	?CheckFullSecromicon@CImperialGuardian@@QAEHH@Z	; CImperialGuardian::CheckFullSecromicon
PUBLIC	?IsAttackAbleMonster@CImperialGuardian@@QAE_NH@Z ; CImperialGuardian::IsAttackAbleMonster
PUBLIC	?SetAtackAbleState@CImperialGuardian@@QAEXHH_N@Z ; CImperialGuardian::SetAtackAbleState
PUBLIC	?SetDayOfWeekGM@CImperialGuardian@@QAEXH@Z	; CImperialGuardian::SetDayOfWeekGM
PUBLIC	?SetCheatModeGM@CImperialGuardian@@QAEXF@Z	; CImperialGuardian::SetCheatModeGM
PUBLIC	?WarpZoneGM@CImperialGuardian@@QAEXHH@Z		; CImperialGuardian::WarpZoneGM
PUBLIC	?SetTargetMoveAllMonster@CImperialGuardian@@QAEXHH@Z ; CImperialGuardian::SetTargetMoveAllMonster
PUBLIC	?DestroyGate@CImperialGuardian@@QAEXHHH@Z	; CImperialGuardian::DestroyGate
PUBLIC	?GetZoneInfo@CImperialGuardian@@QAE?AU_stZoneInfo@@H@Z ; CImperialGuardian::GetZoneInfo
PUBLIC	?GCSendServerMsgAll@CImperialGuardian@@QAEXHPAD@Z ; CImperialGuardian::GCSendServerMsgAll
PUBLIC	?ImperialGuardianLevelUp@CImperialGuardian@@QAEHHH@Z ; CImperialGuardian::ImperialGuardianLevelUp
PUBLIC	?RegAllPartyUser@CImperialGuardian@@QAEXHH@Z	; CImperialGuardian::RegAllPartyUser
PUBLIC	?IsRegPartyUser@CImperialGuardian@@QAE_NHH@Z	; CImperialGuardian::IsRegPartyUser
PUBLIC	?UserMonsterCountCheck@CImperialGuardian@@QAEXXZ ; CImperialGuardian::UserMonsterCountCheck
PUBLIC	?MonsterBaseAct@CImperialGuardian@@QAEXPAUOBJECTSTRUCT@@@Z ; CImperialGuardian::MonsterBaseAct
PUBLIC	?ChangeUserIndex@CImperialGuardian@@QAEHHHH@Z	; CImperialGuardian::ChangeUserIndex
PUBLIC	?SendCurStateToUser@CImperialGuardian@@QAEHHH@Z	; CImperialGuardian::SendCurStateToUser
PUBLIC	?SendCurGateInfoToUser@CImperialGuardian@@QAEHHH@Z ; CImperialGuardian::SendCurGateInfoToUser
PUBLIC	?GetPlayUserCountRightNow@CImperialGuardian@@QAEHH@Z ; CImperialGuardian::GetPlayUserCountRightNow
PUBLIC	??_GCImperialGuardian@@UAEPAXI@Z		; CImperialGuardian::`scalar deleting destructor'
PUBLIC	?gGetPartyMaxLevel@@YAHH@Z			; gGetPartyMaxLevel
PUBLIC	??$_Uninit_copy@PBU_stMonsterIndexInfo@@PAU1@V?$allocator@U_stMonsterIndexInfo@@@std@@@std@@YAPAU_stMonsterIndexInfo@@PBU1@0PAU1@AAU?$_Wrap_alloc@V?$allocator@U_stMonsterIndexInfo@@@std@@@0@U_Nonscalar_ptr_iterator_tag@0@@Z ; std::_Uninit_copy<_stMonsterIndexInfo const *,_stMonsterIndexInfo *,std::allocator<_stMonsterIndexInfo> >
PUBLIC	??$_Uninit_move@PAU_stMonsterIndexInfo@@PAU1@V?$allocator@U_stMonsterIndexInfo@@@std@@U1@@std@@YAPAU_stMonsterIndexInfo@@PAU1@00AAU?$_Wrap_alloc@V?$allocator@U_stMonsterIndexInfo@@@std@@@0@0U_Nonscalar_ptr_iterator_tag@0@@Z ; std::_Uninit_move<_stMonsterIndexInfo *,_stMonsterIndexInfo *,std::allocator<_stMonsterIndexInfo>,_stMonsterIndexInfo>
PUBLIC	?_OptionsStorage@?1??__local_stdio_printf_options@@9@4_KA ; `__local_stdio_printf_options'::`2'::_OptionsStorage
PUBLIC	??_7CImperialGuardian@@6B@			; CImperialGuardian::`vftable'
PUBLIC	?g_ImperialGuardian@@3VCImperialGuardian@@A	; g_ImperialGuardian
PUBLIC	??_C@_09DADCBAGP@IGEventOn?$AA@			; `string'
PUBLIC	??_C@_0P@EMJDPFDH@GameServerInfo?$AA@		; `string'
PUBLIC	??_C@_08BGOOMMJN@LootTime?$AA@			; `string'
PUBLIC	??_C@_0P@IFHCOMEP@WaitPlayerTime?$AA@		; `string'
PUBLIC	??_C@_0P@KFFDMCNL@TimeAttackTime?$AA@		; `string'
PUBLIC	??_C@_0L@CPONAIFB@MixNeedZen?$AA@		; `string'
PUBLIC	??_C@_0BI@LHIDHHFN@MysteriousPaperDropRate?$AA@	; `string'
PUBLIC	??_C@_0O@GIJEGFIP@IGPromotionOn?$AA@		; `string'
PUBLIC	??_C@_0CB@KDEFHMMJ@Event?2ImperialGuardianReward?4dat@ ; `string'
PUBLIC	??_C@_0BF@PJIOLJJJ@ImperialGuardian?4cpp?$AA@	; `string'
PUBLIC	??_C@_0O@CKAEPJAF@error?5?3?5?$CFs?5?$CFd?$AA@	; `string'
PUBLIC	??_C@_0DC@GLEDMLHG@?$FLIMPERIALGUARDIAN?$FN?5BEGIN?5TIMEATT@ ; `string'
PUBLIC	??_C@_0DI@KMNKLEEH@?$FLIMPERIALGUARDIAN?$FN?5OBJECT?5COUNT?5@ ; `string'
PUBLIC	??_C@_0DA@DCFNIECJ@?$FLIMPERIALGUARDIAN?$FN?5END?5TIMEATTAC@ ; `string'
PUBLIC	??_C@_0DA@EDOFHFCG@?$FLIMPERIALGUARDIAN?$FN?5BEGIN?5LOOTTIM@ ; `string'
PUBLIC	??_C@_0CO@FGCFEPEM@?$FLIMPERIALGUARDIAN?$FN?5END?5LOOTTIME?5@ ; `string'
PUBLIC	??_C@_0DC@BDFBOBIA@?$FLIMPERIALGUARDIAN?$FN?5BEGIN?5WAITPLA@ ; `string'
PUBLIC	??_C@_0EM@KDFOBECC@?$FLIMPERIALGUARDIAN?$FN?5Leave?5Player?5@ ; `string'
PUBLIC	??_C@_0CP@HMEEDDK@?$FLIMPERIALGUARDIAN?$FN?5ALL?5KICK?5USER@ ; `string'
PUBLIC	??_C@_0CO@HOFCCJKC@?$FLIMPERIALGUARDIAN?$FN?5MISSION?5FAIL?5@ ; `string'
PUBLIC	??_C@_0EC@LFDAMNEF@?$FLIMPERIALGUARDIAN?$FN?5MISSION?5CLEAR@ ; `string'
PUBLIC	??_C@_0CN@EBJLDAME@?$FLIMPERIALGUARDIAN?$FN?$FL?5Invalid?5User@ ; `string'
PUBLIC	??_C@_0EB@JMFDLKOB@?$FLIMPERIALGUARDIAN?$FN?$FL?5Invalid?5User@ ; `string'
PUBLIC	??_C@_0EK@OILHLBMJ@?$FLIMPERIALGUARDIAN?$FN?5Enter?5Zone?5Us@ ; `string'
PUBLIC	??_C@_0CP@EJIDDFJD@?$FLIMPERIALGUARDIAN?$FN?5?$FL?$CFd?5ZONE?5USER@ ; `string'
PUBLIC	??_C@_0EA@OPEPFPC@?$FLIMPERIALGUARDIAN?$FN?$FLRegenMonsterF@ ; `string'
PUBLIC	??_C@_0EN@DCMGCKOE@?$FLIMPERIALGUARDIAN?$FN?$FLRegenMonsterF@ ; `string'
PUBLIC	??_C@_0FG@KMFHIHOJ@?$FLIMPERIALGUARDIAN?$FN?5AddGate?5?$DN?$DO?5?$CFs@ ; `string'
PUBLIC	??_C@_0HH@NPLECNJH@?$FLIMPERIALGUARDIAN?$FN?5AddMonster?5?$DN?$DO@ ; `string'
PUBLIC	??_C@_0FL@DNMPJOJF@?$FLIMPERIALGUARDIAN?$FN?$FLRegenMonsterF@ ; `string'
PUBLIC	??_C@_0DP@HBNLDLKJ@?$FLIMPERIALGUARDIAN?$FN?5DELETE?5ALL?5MO@ ; `string'
PUBLIC	??_C@_0CG@PIAPLIPD@?$FLEVENTDUNGEON?$FN?5script?5file?5not?5l@ ; `string'
PUBLIC	??_C@_0DO@ELCKLNIA@?$FLIMPERIALGUARDIAN?$FN?$FLGetGateNumber@ ; `string'
PUBLIC	??_C@_0EG@MJKDFELM@?$FLIMPERIALGUARDIAN?$FN?$FLRESTORE?$FN?5?$FLNAM@ ; `string'
PUBLIC	??_C@_0EK@BDGBBCGM@?$FLIMPERIALGUARDIAN?$FN?5Leave?5Player?5@ ; `string'
PUBLIC	??_C@_0EB@JAMFMLDI@?$FLIMPERIALGUARDIAN?$FN?5?$FLACCOUNTID?$FN?3?$CF@ ; `string'
PUBLIC	??_C@_0EG@HBDBBIDA@?$FLIMPERIALGUARDIAN?$FN?$FLGCNotifyRemai@ ; `string'
PUBLIC	??_C@_0FF@BCELDKGP@?$FLIMPERIALGUARDIAN?$FN?5SEND?5GATE?5STA@ ; `string'
PUBLIC	??_C@_0ED@BNJJBHBK@?$FLIMPERIALGUARDIAN?$FN?5beginX?5?3?5?$CFd?0?5@ ; `string'
PUBLIC	??_C@_0FC@NEILDHCA@?$FLIMPERIALGUARDIAN?$FN?5Kill?5the?5boss@ ; `string'
PUBLIC	??_C@_0EK@DHNAFKCL@?$FLIMPERIALGUARDIAN?$FN?5Broken?5Statue@ ; `string'
PUBLIC	??_C@_0FF@DICKNCPB@?$FLIMPERIALGUARDIAN?$FN?5Drop?5Item?5?3?5?$CI@ ; `string'
PUBLIC	??_C@_0GK@NPJHELF@?$FLIMPERIALGUARDIAN?$FN?5DestroyGate?5?9@ ; `string'
PUBLIC	??_C@_0DE@DKMMCBLO@Experience?5?3?5Map?$FL?$CFd?$FN?9?$CI?$CFd?0?$CFd?$CJ?5?$FL?$CFs@ ; `string'
PUBLIC	??_C@_0DA@KDBPKGIM@?$FL?$CFs?$FN?$FL?$CFs?$FN?5LevelUp?5PlusStatQuest?5C@ ; `string'
PUBLIC	??_C@_0BM@DJAOLMAF@400?5LevelUp?5?$CI?$CFs?$CJ?$CI?$CFs?$CJ?5Party?5?$AA@ ; `string'
PUBLIC	??_C@_0L@MNKEEMGH@?0?$CI?$CFs?$CJ?$CI?$CFs?$CJ?5?$AA@ ; `string'
PUBLIC	??_C@_0BM@NMJKDPPO@invalid?5vector?$DMT?$DO?5subscript?$AA@ ; `string'
PUBLIC	??_C@_0BD@OLBABOEK@vector?$DMT?$DO?5too?5long?$AA@ ; `string'
PUBLIC	??_R4CImperialGuardian@@6B@			; CImperialGuardian::`RTTI Complete Object Locator'
PUBLIC	??_R0?AVCImperialGuardian@@@8			; CImperialGuardian `RTTI Type Descriptor'
PUBLIC	??_R3CImperialGuardian@@8			; CImperialGuardian::`RTTI Class Hierarchy Descriptor'
PUBLIC	??_R2CImperialGuardian@@8			; CImperialGuardian::`RTTI Base Class Array'
PUBLIC	??_R1A@?0A@EA@CImperialGuardian@@8		; CImperialGuardian::`RTTI Base Class Descriptor at (0,-1,0,64)'
PUBLIC	__real@3f800000
EXTRN	??_L@YGXPAXIIP6EX0@Z1@Z:PROC			; `eh vector constructor iterator'
EXTRN	??_M@YGXPAXIIP6EX0@Z@Z:PROC			; `eh vector destructor iterator'
EXTRN	??2@YAPAXI@Z:PROC				; operator new
EXTRN	??3@YAXPAX@Z:PROC				; operator delete
EXTRN	??3@YAXPAXI@Z:PROC				; operator delete
EXTRN	??_V@YAXPAXI@Z:PROC				; operator delete[]
EXTRN	_atexit:PROC
EXTRN	__invalid_parameter_noinfo_noreturn:PROC
EXTRN	_memmove:PROC
EXTRN	__imp__InitializeCriticalSection@4:PROC
EXTRN	__imp__EnterCriticalSection@4:PROC
EXTRN	__imp__LeaveCriticalSection@4:PROC
EXTRN	__imp__DeleteCriticalSection@4:PROC
EXTRN	__imp__GetTickCount@0:PROC
EXTRN	__imp__GetPrivateProfileIntA@16:PROC
EXTRN	__imp__wsprintfA:PROC
EXTRN	___stdio_common_vsprintf:PROC
EXTRN	_rand:PROC
EXTRN	__localtime64_s:PROC
EXTRN	__time64:PROC
EXTRN	?AfxThrowMemoryException@@YGXXZ:PROC		; AfxThrowMemoryException
EXTRN	?AfxThrowOleException@@YGXJ@Z:PROC		; AfxThrowOleException
EXTRN	?_Xbad_alloc@std@@YAXXZ:PROC			; std::_Xbad_alloc
EXTRN	?_Xlength_error@std@@YAXPBD@Z:PROC		; std::_Xlength_error
EXTRN	?_Xout_of_range@std@@YAXPBD@Z:PROC		; std::_Xout_of_range
EXTRN	?Get@Message@@QAEPADH@Z:PROC			; Message::Get
EXTRN	??0CImperialGuardianRewardExp@@QAE@XZ:PROC	; CImperialGuardianRewardExp::CImperialGuardianRewardExp
EXTRN	??1CImperialGuardianRewardExp@@UAE@XZ:PROC	; CImperialGuardianRewardExp::~CImperialGuardianRewardExp
EXTRN	?LoadScript@CImperialGuardianRewardExp@@QAEXPAD@Z:PROC ; CImperialGuardianRewardExp::LoadScript
EXTRN	?GetRewardExp@CImperialGuardianRewardExp@@QAEHH@Z:PROC ; CImperialGuardianRewardExp::GetRewardExp
EXTRN	?DropReward@CImperialGuardianRewardExp@@QAEXHH@Z:PROC ; CImperialGuardianRewardExp::DropReward
EXTRN	?IsItem@CItem@@QAEHXZ:PROC			; CItem::IsItem
EXTRN	?ItemGetNumberMake@@YAHHH@Z:PROC		; ItemGetNumberMake
EXTRN	??1CSkillDelay@@UAE@XZ:PROC			; CSkillDelay::~CSkillDelay
EXTRN	?MsgBox@@YAXPADZZ:PROC				; MsgBox
EXTRN	?DataSend@@YAHHPAEK@Z:PROC			; DataSend
EXTRN	??1TMonsterAIAgro@@UAE@XZ:PROC			; TMonsterAIAgro::~TMonsterAIAgro
EXTRN	?CheckWall@MapClass@@QAEHHHHH@Z:PROC		; MapClass::CheckWall
EXTRN	?SetStandAttr@MapClass@@QAEXHH@Z:PROC		; MapClass::SetStandAttr
EXTRN	?GetAttr@MapClass@@QAEEHH@Z:PROC		; MapClass::GetAttr
EXTRN	?GCServerMsgStringSend@@YAXPADHE@Z:PROC		; GCServerMsgStringSend
EXTRN	?GCLevelUpMsgSend@@YAXHH@Z:PROC			; GCLevelUpMsgSend
EXTRN	?CGPShopReqClose@@YAXH@Z:PROC			; CGPShopReqClose
EXTRN	?GCTeleportSend@@YAXPAUOBJECTSTRUCT@@HEEEE@Z:PROC ; GCTeleportSend
EXTRN	?GCInventoryItemDeleteSend@@YAXHEE@Z:PROC	; GCInventoryItemDeleteSend
EXTRN	?GCItemDurSend2@@YAXHEEE@Z:PROC			; GCItemDurSend2
EXTRN	?GCSendExp@@YAXHH_JHH@Z:PROC			; GCSendExp
EXTRN	?gObjClearViewport@@YAXPAUOBJECTSTRUCT@@@Z:PROC	; gObjClearViewport
EXTRN	?gObjSetBP@@YAXH@Z:PROC				; gObjSetBP
EXTRN	?gObjSetPosMonster@@YAHHH@Z:PROC		; gObjSetPosMonster
EXTRN	?gObjAddMonster@@YAFH@Z:PROC			; gObjAddMonster
EXTRN	?gObjDel@@YAFH@Z:PROC				; gObjDel
EXTRN	?GetPathPacketDirPos@@YAEHH@Z:PROC		; GetPathPacketDirPos
EXTRN	?gObjCalDistance@@YAHPAUOBJECTSTRUCT@@0@Z:PROC	; gObjCalDistance
EXTRN	?gObjSetInventory1Pointer@@YAXPAUOBJECTSTRUCT@@@Z:PROC ; gObjSetInventory1Pointer
EXTRN	?gObjNextExpCal@@YAXPAUOBJECTSTRUCT@@@Z:PROC	; gObjNextExpCal
EXTRN	?gObjInventoryDeleteItem@@YAEHH@Z:PROC		; gObjInventoryDeleteItem
EXTRN	?CreateFrustrum@@YAXHHH@Z:PROC			; CreateFrustrum
EXTRN	?gObjViewportListProtocolCreate@@YAXPAUOBJECTSTRUCT@@@Z:PROC ; gObjViewportListProtocolCreate
EXTRN	?gObjMoveGate@@YAHHH@Z:PROC			; gObjMoveGate
EXTRN	?gObjMonsterMagicAdd@@YAHPAUOBJECTSTRUCT@@GE@Z:PROC ; gObjMonsterMagicAdd
EXTRN	?gObjSetExpPetItem@@YAXHH@Z:PROC		; gObjSetExpPetItem
EXTRN	?gObjGetRandomItemDropLocation@@YAHHAAE0HHH@Z:PROC ; gObjGetRandomItemDropLocation
EXTRN	??_ECImperialGuardian@@UAEPAXI@Z:PROC		; CImperialGuardian::`vector deleting destructor'
EXTRN	?GetNewPath@CDirPath@@QAEPADPAD@Z:PROC		; CDirPath::GetNewPath
EXTRN	?GetPartyCount@PartyClass@@QAEHH@Z:PROC		; PartyClass::GetPartyCount
EXTRN	?gObjRemoveBuffEffect@@YA_NPAUOBJECTSTRUCT@@H@Z:PROC ; gObjRemoveBuffEffect
EXTRN	?gObjCheckUsedBuffEffect@@YA_NPAUOBJECTSTRUCT@@H@Z:PROC ; gObjCheckUsedBuffEffect
EXTRN	?ConvertMonsterStat@CMonsterStatCalc@@QAEHPAUOBJECTSTRUCT@@HH@Z:PROC ; CMonsterStatCalc::ConvertMonsterStat
EXTRN	?gObjMonsterHitDamageInit@@YAXPAUOBJECTSTRUCT@@@Z:PROC ; gObjMonsterHitDamageInit
EXTRN	?gObjMonsterGetTargetPos@@YAHPAUOBJECTSTRUCT@@@Z:PROC ; gObjMonsterGetTargetPos
EXTRN	?gObjGetTargetPos@@YAHPAUOBJECTSTRUCT@@HHAAH1@Z:PROC ; gObjGetTargetPos
EXTRN	?gObjMonsterSearchEnemy@@YAHPAUOBJECTSTRUCT@@E@Z:PROC ; gObjMonsterSearchEnemy
EXTRN	?gObjMonsterMoveAction@@YAXPAUOBJECTSTRUCT@@@Z:PROC ; gObjMonsterMoveAction
EXTRN	?LevelUp@CMasterExperience@@QAEHPAUOBJECTSTRUCT@@_J@Z:PROC ; CMasterExperience::LevelUp
EXTRN	?IsEnabled@CMasterExperience@@QAEHPAUOBJECTSTRUCT@@@Z:PROC ; CMasterExperience::IsEnabled
EXTRN	?GJSetCharacterInfo@@YAXPAUOBJECTSTRUCT@@HHH@Z:PROC ; GJSetCharacterInfo
EXTRN	?ItemSerialCreateSend@@YAXHEEEHEEEEEHEEEPAE@Z:PROC ; ItemSerialCreateSend
EXTRN	?PHeadSetB@@YAXPAEEH@Z:PROC			; PHeadSetB
EXTRN	?PHeadSubSetB@@YAXPAEEEH@Z:PROC			; PHeadSubSetB
EXTRN	?GetLevelPoint@ClassCalc@@QAEGPAUOBJECTSTRUCT@@EE@Z:PROC ; ClassCalc::GetLevelPoint
EXTRN	@__security_check_cookie@4:PROC
EXTRN	__CxxThrowException@8:PROC
EXTRN	___CxxFrameHandler3:PROC
EXTRN	_memset:PROC
EXTRN	??_7type_info@@6B@:QWORD			; type_info::`vftable'
EXTRN	?lMsg@@3VMessage@@A:BYTE			; lMsg
EXTRN	?ItemAttribute@@3PAUITEM_ATTRIBUTE@@A:BYTE	; ItemAttribute
EXTRN	?LogAdd@@3P6AXPADZZA:DWORD			; LogAdd
EXTRN	?LogAddTD@@3P6AXPADZZA:DWORD			; LogAddTD
EXTRN	?gObj@@3PAUOBJECTSTRUCT@@A:DWORD		; gObj
EXTRN	?gDirPath@@3VCDirPath@@A:BYTE			; gDirPath
EXTRN	?MapC@@3PAVMapClass@@A:BYTE			; MapC
EXTRN	?gMSetBase@@3VCMonsterSetBase@@A:BYTE		; gMSetBase
EXTRN	?DCInfo@@3Vclassdef@@A:BYTE			; DCInfo
EXTRN	?gParty@@3VPartyClass@@A:BYTE			; gParty
EXTRN	?g_MonsterStatCalc@@3VCMonsterStatCalc@@A:BYTE	; g_MonsterStatCalc
EXTRN	?g_MasterExp@@3VCMasterExperience@@A:BYTE	; g_MasterExp
EXTRN	?g_ClassCalc@@3VClassCalc@@A:BYTE		; g_ClassCalc
EXTRN	___security_cookie:DWORD
EXTRN	__fltused:DWORD
;	COMDAT ?_OptionsStorage@?1??__local_stdio_printf_options@@9@4_KA
_BSS	SEGMENT
?_OptionsStorage@?1??__local_stdio_printf_options@@9@4_KA DQ 01H DUP (?) ; `__local_stdio_printf_options'::`2'::_OptionsStorage
_BSS	ENDS
_BSS	SEGMENT
?g_ImperialGuardian@@3VCImperialGuardian@@A DB 01e4H DUP (?) ; g_ImperialGuardian
_BSS	ENDS
CRT$XCU	SEGMENT
?g_ImperialGuardian$initializer$@@3P6AXXZA DD FLAT:??__Eg_ImperialGuardian@@YAXXZ ; g_ImperialGuardian$initializer$
CRT$XCU	ENDS
;	COMDAT __real@3f800000
CONST	SEGMENT
__real@3f800000 DD 03f800000r			; 1
CONST	ENDS
;	COMDAT ??_R1A@?0A@EA@CImperialGuardian@@8
rdata$r	SEGMENT
??_R1A@?0A@EA@CImperialGuardian@@8 DD FLAT:??_R0?AVCImperialGuardian@@@8 ; CImperialGuardian::`RTTI Base Class Descriptor at (0,-1,0,64)'
	DD	00H
	DD	00H
	DD	0ffffffffH
	DD	00H
	DD	040H
	DD	FLAT:??_R3CImperialGuardian@@8
rdata$r	ENDS
;	COMDAT ??_R2CImperialGuardian@@8
rdata$r	SEGMENT
??_R2CImperialGuardian@@8 DD FLAT:??_R1A@?0A@EA@CImperialGuardian@@8 ; CImperialGuardian::`RTTI Base Class Array'
rdata$r	ENDS
;	COMDAT ??_R3CImperialGuardian@@8
rdata$r	SEGMENT
??_R3CImperialGuardian@@8 DD 00H			; CImperialGuardian::`RTTI Class Hierarchy Descriptor'
	DD	00H
	DD	01H
	DD	FLAT:??_R2CImperialGuardian@@8
rdata$r	ENDS
;	COMDAT ??_R0?AVCImperialGuardian@@@8
data$r	SEGMENT
??_R0?AVCImperialGuardian@@@8 DD FLAT:??_7type_info@@6B@ ; CImperialGuardian `RTTI Type Descriptor'
	DD	00H
	DB	'.?AVCImperialGuardian@@', 00H
data$r	ENDS
;	COMDAT ??_R4CImperialGuardian@@6B@
rdata$r	SEGMENT
??_R4CImperialGuardian@@6B@ DD 00H			; CImperialGuardian::`RTTI Complete Object Locator'
	DD	00H
	DD	00H
	DD	FLAT:??_R0?AVCImperialGuardian@@@8
	DD	FLAT:??_R3CImperialGuardian@@8
rdata$r	ENDS
;	COMDAT ??_C@_0BD@OLBABOEK@vector?$DMT?$DO?5too?5long?$AA@
CONST	SEGMENT
??_C@_0BD@OLBABOEK@vector?$DMT?$DO?5too?5long?$AA@ DB 'vector<T> too long'
	DB	00H						; `string'
CONST	ENDS
;	COMDAT ??_C@_0BM@NMJKDPPO@invalid?5vector?$DMT?$DO?5subscript?$AA@
CONST	SEGMENT
??_C@_0BM@NMJKDPPO@invalid?5vector?$DMT?$DO?5subscript?$AA@ DB 'invalid v'
	DB	'ector<T> subscript', 00H			; `string'
CONST	ENDS
;	COMDAT ??_C@_0L@MNKEEMGH@?0?$CI?$CFs?$CJ?$CI?$CFs?$CJ?5?$AA@
CONST	SEGMENT
??_C@_0L@MNKEEMGH@?0?$CI?$CFs?$CJ?$CI?$CFs?$CJ?5?$AA@ DB ',(%s)(%s) ', 00H ; `string'
CONST	ENDS
;	COMDAT ??_C@_0BM@DJAOLMAF@400?5LevelUp?5?$CI?$CFs?$CJ?$CI?$CFs?$CJ?5Party?5?$AA@
CONST	SEGMENT
??_C@_0BM@DJAOLMAF@400?5LevelUp?5?$CI?$CFs?$CJ?$CI?$CFs?$CJ?5Party?5?$AA@ DB '4'
	DB	'00 LevelUp (%s)(%s) Party ', 00H		; `string'
CONST	ENDS
;	COMDAT ??_C@_0DA@KDBPKGIM@?$FL?$CFs?$FN?$FL?$CFs?$FN?5LevelUp?5PlusStatQuest?5C@
CONST	SEGMENT
??_C@_0DA@KDBPKGIM@?$FL?$CFs?$FN?$FL?$CFs?$FN?5LevelUp?5PlusStatQuest?5C@ DB '['
	DB	'%s][%s] LevelUp PlusStatQuest Clear AddStat %d', 00H ; `string'
CONST	ENDS
;	COMDAT ??_C@_0DE@DKMMCBLO@Experience?5?3?5Map?$FL?$CFd?$FN?9?$CI?$CFd?0?$CFd?$CJ?5?$FL?$CFs@
CONST	SEGMENT
??_C@_0DE@DKMMCBLO@Experience?5?3?5Map?$FL?$CFd?$FN?9?$CI?$CFd?0?$CFd?$CJ?5?$FL?$CFs@ DB 'E'
	DB	'xperience : Map[%d]-(%d,%d) [%s][%s](%d) %I64u %d ', 00H ; `string'
CONST	ENDS
;	COMDAT ??_C@_0GK@NPJHELF@?$FLIMPERIALGUARDIAN?$FN?5DestroyGate?5?9@
CONST	SEGMENT
??_C@_0GK@NPJHELF@?$FLIMPERIALGUARDIAN?$FN?5DestroyGate?5?9@ DB '[IMPERIA'
	DB	'LGUARDIAN] DestroyGate -> [ZONE]:%d, [AccountID]:%s, [NAME]:%'
	DB	's, [GATE INDEX]:%d, [USER COUNT]:%d ', 00H	; `string'
CONST	ENDS
;	COMDAT ??_C@_0FF@DICKNCPB@?$FLIMPERIALGUARDIAN?$FN?5Drop?5Item?5?3?5?$CI@
CONST	SEGMENT
??_C@_0FF@DICKNCPB@?$FLIMPERIALGUARDIAN?$FN?5Drop?5Item?5?3?5?$CI@ DB '[I'
	DB	'MPERIALGUARDIAN] Drop Item : (%d)(%d/%d) Item:(%s)%d Level:%d'
	DB	' op1:%d op2:%d op3:%d', 00H			; `string'
CONST	ENDS
;	COMDAT ??_C@_0EK@DHNAFKCL@?$FLIMPERIALGUARDIAN?$FN?5Broken?5Statue@
CONST	SEGMENT
??_C@_0EK@DHNAFKCL@?$FLIMPERIALGUARDIAN?$FN?5Broken?5Statue@ DB '[IMPERIA'
	DB	'LGUARDIAN] Broken Statue => %s [ZONE]:%d [AccountID]:%s [Name'
	DB	']:%s', 00H					; `string'
CONST	ENDS
;	COMDAT ??_C@_0FC@NEILDHCA@?$FLIMPERIALGUARDIAN?$FN?5Kill?5the?5boss@
CONST	SEGMENT
??_C@_0FC@NEILDHCA@?$FLIMPERIALGUARDIAN?$FN?5Kill?5the?5boss@ DB '[IMPERI'
	DB	'ALGUARDIAN] Kill the boss monster => %s [ZONE]:%d [AccountID]'
	DB	':%s [Name]:%s', 00H				; `string'
CONST	ENDS
;	COMDAT ??_C@_0ED@BNJJBHBK@?$FLIMPERIALGUARDIAN?$FN?5beginX?5?3?5?$CFd?0?5@
CONST	SEGMENT
??_C@_0ED@BNJJBHBK@?$FLIMPERIALGUARDIAN?$FN?5beginX?5?3?5?$CFd?0?5@ DB '['
	DB	'IMPERIALGUARDIAN] beginX : %d, beginY : %d , endX :%d , endY '
	DB	': %d', 00H					; `string'
CONST	ENDS
;	COMDAT ??_C@_0FF@BCELDKGP@?$FLIMPERIALGUARDIAN?$FN?5SEND?5GATE?5STA@
CONST	SEGMENT
??_C@_0FF@BCELDKGP@?$FLIMPERIALGUARDIAN?$FN?5SEND?5GATE?5STA@ DB '[IMPERI'
	DB	'ALGUARDIAN] SEND GATE STATE -> [ZONE]:%d [AccountID]:%s, [NAM'
	DB	'E]:%s [STATE]:%d', 00H			; `string'
CONST	ENDS
;	COMDAT ??_C@_0EG@HBDBBIDA@?$FLIMPERIALGUARDIAN?$FN?$FLGCNotifyRemai@
CONST	SEGMENT
??_C@_0EG@HBDBBIDA@?$FLIMPERIALGUARDIAN?$FN?$FLGCNotifyRemai@ DB '[IMPERI'
	DB	'ALGUARDIAN][GCNotifyRemainTickCountFunc] Invalid MsgType : %d'
	DB	' ', 00H					; `string'
CONST	ENDS
;	COMDAT ??_C@_0EB@JAMFMLDI@?$FLIMPERIALGUARDIAN?$FN?5?$FLACCOUNTID?$FN?3?$CF@
CONST	SEGMENT
??_C@_0EB@JAMFMLDI@?$FLIMPERIALGUARDIAN?$FN?5?$FLACCOUNTID?$FN?3?$CF@ DB '['
	DB	'IMPERIALGUARDIAN] [ACCOUNTID]:%s, [NAME]:%s, [Reward Exp] : %'
	DB	'd ', 00H					; `string'
CONST	ENDS
;	COMDAT ??_C@_0EK@BDGBBCGM@?$FLIMPERIALGUARDIAN?$FN?5Leave?5Player?5@
CONST	SEGMENT
??_C@_0EK@BDGBBCGM@?$FLIMPERIALGUARDIAN?$FN?5Leave?5Player?5@ DB '[IMPERI'
	DB	'ALGUARDIAN] Leave Player Zone [ZONE]:%d, [AccountID]:%s, [Nam'
	DB	'e]:%s', 00H					; `string'
CONST	ENDS
;	COMDAT ??_C@_0EG@MJKDFELM@?$FLIMPERIALGUARDIAN?$FN?$FLRESTORE?$FN?5?$FLNAM@
CONST	SEGMENT
??_C@_0EG@MJKDFELM@?$FLIMPERIALGUARDIAN?$FN?$FLRESTORE?$FN?5?$FLNAM@ DB '['
	DB	'IMPERIALGUARDIAN][RESTORE] [NAME]:%s [INDEX]:%d [TYPE]:%d [ST'
	DB	'ATE]:%d', 00H				; `string'
CONST	ENDS
;	COMDAT ??_C@_0DO@ELCKLNIA@?$FLIMPERIALGUARDIAN?$FN?$FLGetGateNumber@
CONST	SEGMENT
??_C@_0DO@ELCKLNIA@?$FLIMPERIALGUARDIAN?$FN?$FLGetGateNumber@ DB '[IMPERI'
	DB	'ALGUARDIAN][GetGateNumberFunc] Invalid zoneIndex : %d ', 00H ; `string'
CONST	ENDS
;	COMDAT ??_C@_0CG@PIAPLIPD@?$FLEVENTDUNGEON?$FN?5script?5file?5not?5l@
CONST	SEGMENT
??_C@_0CG@PIAPLIPD@?$FLEVENTDUNGEON?$FN?5script?5file?5not?5l@ DB '[EVENT'
	DB	'DUNGEON] script file not loaded', 00H	; `string'
CONST	ENDS
;	COMDAT ??_C@_0DP@HBNLDLKJ@?$FLIMPERIALGUARDIAN?$FN?5DELETE?5ALL?5MO@
CONST	SEGMENT
??_C@_0DP@HBNLDLKJ@?$FLIMPERIALGUARDIAN?$FN?5DELETE?5ALL?5MO@ DB '[IMPERI'
	DB	'ALGUARDIAN] DELETE ALL MONSTER -> [ZONE]:%d [COUNT]:%d ', 00H ; `string'
CONST	ENDS
;	COMDAT ??_C@_0FL@DNMPJOJF@?$FLIMPERIALGUARDIAN?$FN?$FLRegenMonsterF@
CONST	SEGMENT
??_C@_0FL@DNMPJOJF@?$FLIMPERIALGUARDIAN?$FN?$FLRegenMonsterF@ DB '[IMPERI'
	DB	'ALGUARDIAN][RegenMonsterFunc] gObjAddMonster fail (ErrorCode:'
	DB	' %d, MonsterClass: %d)', 00H		; `string'
CONST	ENDS
;	COMDAT ??_C@_0HH@NPLECNJH@?$FLIMPERIALGUARDIAN?$FN?5AddMonster?5?$DN?$DO@
CONST	SEGMENT
??_C@_0HH@NPLECNJH@?$FLIMPERIALGUARDIAN?$FN?5AddMonster?5?$DN?$DO@ DB '[I'
	DB	'MPERIALGUARDIAN] AddMonster => %s, MapNumber => %d ,Zone => %'
	DB	'd PosX => %d, PosY => %d, Connected => %d, STATE => %d ', 00H ; `string'
CONST	ENDS
;	COMDAT ??_C@_0FG@KMFHIHOJ@?$FLIMPERIALGUARDIAN?$FN?5AddGate?5?$DN?$DO?5?$CFs@
CONST	SEGMENT
??_C@_0FG@KMFHIHOJ@?$FLIMPERIALGUARDIAN?$FN?5AddGate?5?$DN?$DO?5?$CFs@ DB '['
	DB	'IMPERIALGUARDIAN] AddGate => %s, MapNumber => %d ,Zone => %d '
	DB	'PosX => %d, PosY => %d ', 00H		; `string'
CONST	ENDS
;	COMDAT ??_C@_0EN@DCMGCKOE@?$FLIMPERIALGUARDIAN?$FN?$FLRegenMonsterF@
CONST	SEGMENT
??_C@_0EN@DCMGCKOE@?$FLIMPERIALGUARDIAN?$FN?$FLRegenMonsterF@ DB '[IMPERI'
	DB	'ALGUARDIAN][RegenMonsterFunc] Invalid MonsterRegenTable Index'
	DB	' => %d  ', 00H				; `string'
CONST	ENDS
;	COMDAT ??_C@_0EA@OPEPFPC@?$FLIMPERIALGUARDIAN?$FN?$FLRegenMonsterF@
CONST	SEGMENT
??_C@_0EA@OPEPFPC@?$FLIMPERIALGUARDIAN?$FN?$FLRegenMonsterF@ DB '[IMPERIA'
	DB	'LGUARDIAN][RegenMonsterFunc] Invalid zone index => %d  ', 00H ; `string'
CONST	ENDS
;	COMDAT ??_C@_0CP@EJIDDFJD@?$FLIMPERIALGUARDIAN?$FN?5?$FL?$CFd?5ZONE?5USER@
CONST	SEGMENT
??_C@_0CP@EJIDDFJD@?$FLIMPERIALGUARDIAN?$FN?5?$FL?$CFd?5ZONE?5USER@ DB '['
	DB	'IMPERIALGUARDIAN] [%d ZONE USER COUNT] : %d  ', 00H ; `string'
CONST	ENDS
;	COMDAT ??_C@_0EK@OILHLBMJ@?$FLIMPERIALGUARDIAN?$FN?5Enter?5Zone?5Us@
CONST	SEGMENT
??_C@_0EK@OILHLBMJ@?$FLIMPERIALGUARDIAN?$FN?5Enter?5Zone?5Us@ DB '[IMPERI'
	DB	'ALGUARDIAN] Enter Zone User -> [AccountID]:%s [NAME]:%s [ZONE'
	DB	']:%d ', 00H					; `string'
CONST	ENDS
;	COMDAT ??_C@_0EB@JMFDLKOB@?$FLIMPERIALGUARDIAN?$FN?$FL?5Invalid?5User@
CONST	SEGMENT
??_C@_0EB@JMFDLKOB@?$FLIMPERIALGUARDIAN?$FN?$FL?5Invalid?5User@ DB '[IMPE'
	DB	'RIALGUARDIAN][ Invalid User ] User is not a party [%s][%s] ', 00H ; `string'
CONST	ENDS
;	COMDAT ??_C@_0CN@EBJLDAME@?$FLIMPERIALGUARDIAN?$FN?$FL?5Invalid?5User@
CONST	SEGMENT
??_C@_0CN@EBJLDAME@?$FLIMPERIALGUARDIAN?$FN?$FL?5Invalid?5User@ DB '[IMPE'
	DB	'RIALGUARDIAN][ Invalid User ] [%s][%s] ', 00H ; `string'
CONST	ENDS
;	COMDAT ??_C@_0EC@LFDAMNEF@?$FLIMPERIALGUARDIAN?$FN?5MISSION?5CLEAR@
CONST	SEGMENT
??_C@_0EC@LFDAMNEF@?$FLIMPERIALGUARDIAN?$FN?5MISSION?5CLEAR@ DB '[IMPERIA'
	DB	'LGUARDIAN] MISSION CLEAR USER ->[AccountID]:%s [Name]:%s ', 00H ; `string'
CONST	ENDS
;	COMDAT ??_C@_0CO@HOFCCJKC@?$FLIMPERIALGUARDIAN?$FN?5MISSION?5FAIL?5@
CONST	SEGMENT
??_C@_0CO@HOFCCJKC@?$FLIMPERIALGUARDIAN?$FN?5MISSION?5FAIL?5@ DB '[IMPERI'
	DB	'ALGUARDIAN] MISSION FAIL -> [ZONE]:%d ', 00H ; `string'
CONST	ENDS
;	COMDAT ??_C@_0CP@HMEEDDK@?$FLIMPERIALGUARDIAN?$FN?5ALL?5KICK?5USER@
CONST	SEGMENT
??_C@_0CP@HMEEDDK@?$FLIMPERIALGUARDIAN?$FN?5ALL?5KICK?5USER@ DB '[IMPERIA'
	DB	'LGUARDIAN] ALL KICK USER -> [ZONE]:%d ', 00H ; `string'
CONST	ENDS
;	COMDAT ??_C@_0EM@KDFOBECC@?$FLIMPERIALGUARDIAN?$FN?5Leave?5Player?5@
CONST	SEGMENT
??_C@_0EM@KDFOBECC@?$FLIMPERIALGUARDIAN?$FN?5Leave?5Player?5@ DB '[IMPERI'
	DB	'ALGUARDIAN] Leave Player Zone -> [ZONE]:%d [AccountID]:%s [Na'
	DB	'me]:%s ', 00H				; `string'
CONST	ENDS
;	COMDAT ??_C@_0DC@BDFBOBIA@?$FLIMPERIALGUARDIAN?$FN?5BEGIN?5WAITPLA@
CONST	SEGMENT
??_C@_0DC@BDFBOBIA@?$FLIMPERIALGUARDIAN?$FN?5BEGIN?5WAITPLA@ DB '[IMPERIA'
	DB	'LGUARDIAN] BEGIN WAITPLAYER -> [ZONE]:%d ', 00H ; `string'
CONST	ENDS
;	COMDAT ??_C@_0CO@FGCFEPEM@?$FLIMPERIALGUARDIAN?$FN?5END?5LOOTTIME?5@
CONST	SEGMENT
??_C@_0CO@FGCFEPEM@?$FLIMPERIALGUARDIAN?$FN?5END?5LOOTTIME?5@ DB '[IMPERI'
	DB	'ALGUARDIAN] END LOOTTIME -> [ZONE]:%d ', 00H ; `string'
CONST	ENDS
;	COMDAT ??_C@_0DA@EDOFHFCG@?$FLIMPERIALGUARDIAN?$FN?5BEGIN?5LOOTTIM@
CONST	SEGMENT
??_C@_0DA@EDOFHFCG@?$FLIMPERIALGUARDIAN?$FN?5BEGIN?5LOOTTIM@ DB '[IMPERIA'
	DB	'LGUARDIAN] BEGIN LOOTTIME -> [ZONE]:%d ', 00H ; `string'
CONST	ENDS
;	COMDAT ??_C@_0DA@DCFNIECJ@?$FLIMPERIALGUARDIAN?$FN?5END?5TIMEATTAC@
CONST	SEGMENT
??_C@_0DA@DCFNIECJ@?$FLIMPERIALGUARDIAN?$FN?5END?5TIMEATTAC@ DB '[IMPERIA'
	DB	'LGUARDIAN] END TIMEATTACK -> [ZONE]:%d ', 00H ; `string'
CONST	ENDS
;	COMDAT ??_C@_0DI@KMNKLEEH@?$FLIMPERIALGUARDIAN?$FN?5OBJECT?5COUNT?5@
CONST	SEGMENT
??_C@_0DI@KMNKLEEH@?$FLIMPERIALGUARDIAN?$FN?5OBJECT?5COUNT?5@ DB '[IMPERI'
	DB	'ALGUARDIAN] OBJECT COUNT -> [ZONE]:%d [COUNT]:%d', 00H ; `string'
CONST	ENDS
;	COMDAT ??_C@_0DC@GLEDMLHG@?$FLIMPERIALGUARDIAN?$FN?5BEGIN?5TIMEATT@
CONST	SEGMENT
??_C@_0DC@GLEDMLHG@?$FLIMPERIALGUARDIAN?$FN?5BEGIN?5TIMEATT@ DB '[IMPERIA'
	DB	'LGUARDIAN] BEGIN TIMEATTACK -> [ZONE]:%d ', 00H ; `string'
CONST	ENDS
;	COMDAT ??_C@_0O@CKAEPJAF@error?5?3?5?$CFs?5?$CFd?$AA@
CONST	SEGMENT
??_C@_0O@CKAEPJAF@error?5?3?5?$CFs?5?$CFd?$AA@ DB 'error : %s %d', 00H ; `string'
CONST	ENDS
;	COMDAT ??_C@_0BF@PJIOLJJJ@ImperialGuardian?4cpp?$AA@
CONST	SEGMENT
??_C@_0BF@PJIOLJJJ@ImperialGuardian?4cpp?$AA@ DB 'ImperialGuardian.cpp', 00H ; `string'
CONST	ENDS
;	COMDAT ??_C@_0CB@KDEFHMMJ@Event?2ImperialGuardianReward?4dat@
CONST	SEGMENT
??_C@_0CB@KDEFHMMJ@Event?2ImperialGuardianReward?4dat@ DB 'Event\Imperial'
	DB	'GuardianReward.dat', 00H			; `string'
CONST	ENDS
;	COMDAT ??_C@_0O@GIJEGFIP@IGPromotionOn?$AA@
CONST	SEGMENT
??_C@_0O@GIJEGFIP@IGPromotionOn?$AA@ DB 'IGPromotionOn', 00H ; `string'
CONST	ENDS
;	COMDAT ??_C@_0BI@LHIDHHFN@MysteriousPaperDropRate?$AA@
CONST	SEGMENT
??_C@_0BI@LHIDHHFN@MysteriousPaperDropRate?$AA@ DB 'MysteriousPaperDropRa'
	DB	'te', 00H					; `string'
CONST	ENDS
;	COMDAT ??_C@_0L@CPONAIFB@MixNeedZen?$AA@
CONST	SEGMENT
??_C@_0L@CPONAIFB@MixNeedZen?$AA@ DB 'MixNeedZen', 00H	; `string'
CONST	ENDS
;	COMDAT ??_C@_0P@KFFDMCNL@TimeAttackTime?$AA@
CONST	SEGMENT
??_C@_0P@KFFDMCNL@TimeAttackTime?$AA@ DB 'TimeAttackTime', 00H ; `string'
CONST	ENDS
;	COMDAT ??_C@_0P@IFHCOMEP@WaitPlayerTime?$AA@
CONST	SEGMENT
??_C@_0P@IFHCOMEP@WaitPlayerTime?$AA@ DB 'WaitPlayerTime', 00H ; `string'
CONST	ENDS
;	COMDAT ??_C@_08BGOOMMJN@LootTime?$AA@
CONST	SEGMENT
??_C@_08BGOOMMJN@LootTime?$AA@ DB 'LootTime', 00H	; `string'
CONST	ENDS
;	COMDAT ??_C@_0P@EMJDPFDH@GameServerInfo?$AA@
CONST	SEGMENT
??_C@_0P@EMJDPFDH@GameServerInfo?$AA@ DB 'GameServerInfo', 00H ; `string'
CONST	ENDS
;	COMDAT ??_C@_09DADCBAGP@IGEventOn?$AA@
CONST	SEGMENT
??_C@_09DADCBAGP@IGEventOn?$AA@ DB 'IGEventOn', 00H	; `string'
CONST	ENDS
;	COMDAT ??_7CImperialGuardian@@6B@
CONST	SEGMENT
??_7CImperialGuardian@@6B@ DD FLAT:??_R4CImperialGuardian@@6B@ ; CImperialGuardian::`vftable'
	DD	FLAT:??_ECImperialGuardian@@UAEPAXI@Z
CONST	ENDS
;	COMDAT xdata$x
xdata$x	SEGMENT
__unwindtable$?GCSendServerMsgAll@CImperialGuardian@@QAEXHPAD@Z DD 0ffffffffH
	DD	FLAT:__unwindfunclet$?GCSendServerMsgAll@CImperialGuardian@@QAEXHPAD@Z$0
__ehfuncinfo$?GCSendServerMsgAll@CImperialGuardian@@QAEXHPAD@Z DD 019930522H
	DD	01H
	DD	FLAT:__unwindtable$?GCSendServerMsgAll@CImperialGuardian@@QAEXHPAD@Z
	DD	2 DUP(00H)
	DD	2 DUP(00H)
	DD	00H
	DD	01H
xdata$x	ENDS
;	COMDAT xdata$x
xdata$x	SEGMENT
__unwindtable$?GCNotifyRemainTickCount@CImperialGuardian@@QAE_NHEK@Z DD 0ffffffffH
	DD	FLAT:__unwindfunclet$?GCNotifyRemainTickCount@CImperialGuardian@@QAE_NHEK@Z$0
__ehfuncinfo$?GCNotifyRemainTickCount@CImperialGuardian@@QAE_NHEK@Z DD 019930522H
	DD	01H
	DD	FLAT:__unwindtable$?GCNotifyRemainTickCount@CImperialGuardian@@QAE_NHEK@Z
	DD	2 DUP(00H)
	DD	2 DUP(00H)
	DD	00H
	DD	01H
xdata$x	ENDS
;	COMDAT xdata$x
xdata$x	SEGMENT
__unwindtable$?GCMissionFail@CImperialGuardian@@QAEXH@Z DD 0ffffffffH
	DD	FLAT:__unwindfunclet$?GCMissionFail@CImperialGuardian@@QAEXH@Z$0
__ehfuncinfo$?GCMissionFail@CImperialGuardian@@QAEXH@Z DD 019930522H
	DD	01H
	DD	FLAT:__unwindtable$?GCMissionFail@CImperialGuardian@@QAEXH@Z
	DD	2 DUP(00H)
	DD	2 DUP(00H)
	DD	00H
	DD	01H
xdata$x	ENDS
;	COMDAT xdata$x
xdata$x	SEGMENT
__unwindtable$?GCNotifyAllZoneClear@CImperialGuardian@@QAE_NH@Z DD 0ffffffffH
	DD	FLAT:__unwindfunclet$?GCNotifyAllZoneClear@CImperialGuardian@@QAE_NH@Z$0
__ehfuncinfo$?GCNotifyAllZoneClear@CImperialGuardian@@QAE_NH@Z DD 019930522H
	DD	01H
	DD	FLAT:__unwindtable$?GCNotifyAllZoneClear@CImperialGuardian@@QAE_NH@Z
	DD	2 DUP(00H)
	DD	2 DUP(00H)
	DD	00H
	DD	01H
xdata$x	ENDS
;	COMDAT xdata$x
xdata$x	SEGMENT
__unwindtable$?GCNotifyZoneClear@CImperialGuardian@@QAE_NH@Z DD 0ffffffffH
	DD	FLAT:__unwindfunclet$?GCNotifyZoneClear@CImperialGuardian@@QAE_NH@Z$0
__ehfuncinfo$?GCNotifyZoneClear@CImperialGuardian@@QAE_NH@Z DD 019930522H
	DD	01H
	DD	FLAT:__unwindtable$?GCNotifyZoneClear@CImperialGuardian@@QAE_NH@Z
	DD	2 DUP(00H)
	DD	2 DUP(00H)
	DD	00H
	DD	01H
xdata$x	ENDS
;	COMDAT xdata$x
xdata$x	SEGMENT
__unwindtable$?ProcMissionClear@CImperialGuardian@@QAEXH@Z DD 0ffffffffH
	DD	FLAT:__unwindfunclet$?ProcMissionClear@CImperialGuardian@@QAEXH@Z$0
__ehfuncinfo$?ProcMissionClear@CImperialGuardian@@QAEXH@Z DD 019930522H
	DD	01H
	DD	FLAT:__unwindtable$?ProcMissionClear@CImperialGuardian@@QAEXH@Z
	DD	2 DUP(00H)
	DD	2 DUP(00H)
	DD	00H
	DD	01H
xdata$x	ENDS
;	COMDAT xdata$x
xdata$x	SEGMENT
__unwindtable$?ProcAllKick@CImperialGuardian@@QAEXH@Z DD 0ffffffffH
	DD	FLAT:__unwindfunclet$?ProcAllKick@CImperialGuardian@@QAEXH@Z$0
__ehfuncinfo$?ProcAllKick@CImperialGuardian@@QAEXH@Z DD 019930522H
	DD	01H
	DD	FLAT:__unwindtable$?ProcAllKick@CImperialGuardian@@QAEXH@Z
	DD	2 DUP(00H)
	DD	2 DUP(00H)
	DD	00H
	DD	01H
xdata$x	ENDS
;	COMDAT xdata$x
xdata$x	SEGMENT
__unwindtable$?ProcAllWarpNextZone@CImperialGuardian@@QAEXH@Z DD 0ffffffffH
	DD	FLAT:__unwindfunclet$?ProcAllWarpNextZone@CImperialGuardian@@QAEXH@Z$0
	DD	0ffffffffH
	DD	FLAT:__unwindfunclet$?ProcAllWarpNextZone@CImperialGuardian@@QAEXH@Z$1
__ehfuncinfo$?ProcAllWarpNextZone@CImperialGuardian@@QAEXH@Z DD 019930522H
	DD	02H
	DD	FLAT:__unwindtable$?ProcAllWarpNextZone@CImperialGuardian@@QAEXH@Z
	DD	2 DUP(00H)
	DD	2 DUP(00H)
	DD	00H
	DD	01H
xdata$x	ENDS
;	COMDAT xdata$x
xdata$x	SEGMENT
__ehfuncinfo$??1CImperialGuardian@@UAE@XZ DD 019930522H
	DD	00H
	DD	00H
	DD	2 DUP(00H)
	DD	2 DUP(00H)
	DD	00H
	DD	05H
xdata$x	ENDS
;	COMDAT xdata$x
xdata$x	SEGMENT
__unwindtable$??0CImperialGuardian@@QAE@XZ DD 0ffffffffH
	DD	FLAT:__unwindfunclet$??0CImperialGuardian@@QAE@XZ$0
__ehfuncinfo$??0CImperialGuardian@@QAE@XZ DD 019930522H
	DD	01H
	DD	FLAT:__unwindtable$??0CImperialGuardian@@QAE@XZ
	DD	2 DUP(00H)
	DD	2 DUP(00H)
	DD	00H
	DD	01H
xdata$x	ENDS
;	COMDAT xdata$x
xdata$x	SEGMENT
__unwindtable$??0_stZoneInfo@@QAE@ABU0@@Z DD 0ffffffffH
	DD	FLAT:__unwindfunclet$??0_stZoneInfo@@QAE@ABU0@@Z$0
	DD	00H
	DD	FLAT:__unwindfunclet$??0_stZoneInfo@@QAE@ABU0@@Z$1
	DD	01H
	DD	FLAT:__unwindfunclet$??0_stZoneInfo@@QAE@ABU0@@Z$2
__ehfuncinfo$??0_stZoneInfo@@QAE@ABU0@@Z DD 019930522H
	DD	03H
	DD	FLAT:__unwindtable$??0_stZoneInfo@@QAE@ABU0@@Z
	DD	2 DUP(00H)
	DD	2 DUP(00H)
	DD	00H
	DD	01H
xdata$x	ENDS
;	COMDAT xdata$x
xdata$x	SEGMENT
__catchsym$?_Reallocate@?$vector@U_stMonsterIndexInfo@@V?$allocator@U_stMonsterIndexInfo@@@std@@@std@@IAEXI@Z$50 DD 040H
	DD	00H
	DD	00H
	DD	FLAT:__catch$?_Reallocate@?$vector@U_stMonsterIndexInfo@@V?$allocator@U_stMonsterIndexInfo@@@std@@@std@@IAEXI@Z$0
__unwindtable$?_Reallocate@?$vector@U_stMonsterIndexInfo@@V?$allocator@U_stMonsterIndexInfo@@@std@@@std@@IAEXI@Z DD 0ffffffffH
	DD	00H
	DD	0ffffffffH
	DD	00H
__tryblocktable$?_Reallocate@?$vector@U_stMonsterIndexInfo@@V?$allocator@U_stMonsterIndexInfo@@@std@@@std@@IAEXI@Z DD 00H
	DD	00H
	DD	01H
	DD	01H
	DD	FLAT:__catchsym$?_Reallocate@?$vector@U_stMonsterIndexInfo@@V?$allocator@U_stMonsterIndexInfo@@@std@@@std@@IAEXI@Z$50
__ehfuncinfo$?_Reallocate@?$vector@U_stMonsterIndexInfo@@V?$allocator@U_stMonsterIndexInfo@@@std@@@std@@IAEXI@Z DD 019930522H
	DD	02H
	DD	FLAT:__unwindtable$?_Reallocate@?$vector@U_stMonsterIndexInfo@@V?$allocator@U_stMonsterIndexInfo@@@std@@@std@@IAEXI@Z
	DD	01H
	DD	FLAT:__tryblocktable$?_Reallocate@?$vector@U_stMonsterIndexInfo@@V?$allocator@U_stMonsterIndexInfo@@@std@@@std@@IAEXI@Z
	DD	2 DUP(00H)
	DD	00H
	DD	01H
xdata$x	ENDS
;	COMDAT xdata$x
xdata$x	SEGMENT
__catchsym$??0?$vector@U_stMonsterIndexInfo@@V?$allocator@U_stMonsterIndexInfo@@@std@@@std@@QAE@ABV01@@Z$66 DD 040H
	DD	00H
	DD	00H
	DD	FLAT:__catch$??0?$vector@U_stMonsterIndexInfo@@V?$allocator@U_stMonsterIndexInfo@@@std@@@std@@QAE@ABV01@@Z$0
__unwindtable$??0?$vector@U_stMonsterIndexInfo@@V?$allocator@U_stMonsterIndexInfo@@@std@@@std@@QAE@ABV01@@Z DD 0ffffffffH
	DD	00H
	DD	0ffffffffH
	DD	00H
__tryblocktable$??0?$vector@U_stMonsterIndexInfo@@V?$allocator@U_stMonsterIndexInfo@@@std@@@std@@QAE@ABV01@@Z DD 00H
	DD	00H
	DD	01H
	DD	01H
	DD	FLAT:__catchsym$??0?$vector@U_stMonsterIndexInfo@@V?$allocator@U_stMonsterIndexInfo@@@std@@@std@@QAE@ABV01@@Z$66
__ehfuncinfo$??0?$vector@U_stMonsterIndexInfo@@V?$allocator@U_stMonsterIndexInfo@@@std@@@std@@QAE@ABV01@@Z DD 019930522H
	DD	02H
	DD	FLAT:__unwindtable$??0?$vector@U_stMonsterIndexInfo@@V?$allocator@U_stMonsterIndexInfo@@@std@@@std@@QAE@ABV01@@Z
	DD	01H
	DD	FLAT:__tryblocktable$??0?$vector@U_stMonsterIndexInfo@@V?$allocator@U_stMonsterIndexInfo@@@std@@@std@@QAE@ABV01@@Z
	DD	2 DUP(00H)
	DD	00H
	DD	01H
xdata$x	ENDS
;	COMDAT xdata$x
xdata$x	SEGMENT
__ehfuncinfo$??_EOBJECTSTRUCT@@QAEPAXI@Z DD 019930522H
	DD	00H
	DD	00H
	DD	2 DUP(00H)
	DD	2 DUP(00H)
	DD	00H
	DD	05H
xdata$x	ENDS
; Function compile flags: /Ogtp
; File c:\program files (x86)\microsoft visual studio 14.0\vc\include\xmemory0
;	COMDAT ??$construct@U_stMonsterIndexInfo@@U1@@?$allocator@U_stMonsterIndexInfo@@@std@@QAEXPAU_stMonsterIndexInfo@@$$QAU2@@Z
_TEXT	SEGMENT
__Ptr$ = 8						; size = 4
_<_Args_0>$ = 12					; size = 4
??$construct@U_stMonsterIndexInfo@@U1@@?$allocator@U_stMonsterIndexInfo@@@std@@QAEXPAU_stMonsterIndexInfo@@$$QAU2@@Z PROC ; std::allocator<_stMonsterIndexInfo>::construct<_stMonsterIndexInfo,_stMonsterIndexInfo>, COMDAT
; _this$ = ecx

; 654  : 		{	// construct _Objty(_Types...) at _Ptr

  00000	55		 push	 ebp
  00001	8b ec		 mov	 ebp, esp

; 655  : 		::new ((void *)_Ptr) _Objty(_STD forward<_Types>(_Args)...);

  00003	8b 55 08	 mov	 edx, DWORD PTR __Ptr$[ebp]
  00006	85 d2		 test	 edx, edx
  00008	74 0d		 je	 SHORT $LN3@construct
  0000a	8b 4d 0c	 mov	 ecx, DWORD PTR _<_Args_0>$[ebp]
  0000d	8b 01		 mov	 eax, DWORD PTR [ecx]
  0000f	89 02		 mov	 DWORD PTR [edx], eax
  00011	8b 41 04	 mov	 eax, DWORD PTR [ecx+4]
  00014	89 42 04	 mov	 DWORD PTR [edx+4], eax
$LN3@construct:

; 656  : 		}

  00017	5d		 pop	 ebp
  00018	c2 08 00	 ret	 8
??$construct@U_stMonsterIndexInfo@@U1@@?$allocator@U_stMonsterIndexInfo@@@std@@QAEXPAU_stMonsterIndexInfo@@$$QAU2@@Z ENDP ; std::allocator<_stMonsterIndexInfo>::construct<_stMonsterIndexInfo,_stMonsterIndexInfo>
_TEXT	ENDS
; Function compile flags: /Ogtp
; File c:\program files (x86)\microsoft visual studio 14.0\vc\include\xmemory0
;	COMDAT ??$construct@U_stMonsterIndexInfo@@U1@@?$allocator_traits@V?$allocator@U_stMonsterIndexInfo@@@std@@@std@@SAXAAV?$allocator@U_stMonsterIndexInfo@@@1@PAU_stMonsterIndexInfo@@$$QAU3@@Z
_TEXT	SEGMENT
__Al$ = 8						; size = 4
__Ptr$ = 12						; size = 4
_<_Args_0>$ = 16					; size = 4
??$construct@U_stMonsterIndexInfo@@U1@@?$allocator_traits@V?$allocator@U_stMonsterIndexInfo@@@std@@@std@@SAXAAV?$allocator@U_stMonsterIndexInfo@@@1@PAU_stMonsterIndexInfo@@$$QAU3@@Z PROC ; std::allocator_traits<std::allocator<_stMonsterIndexInfo> >::construct<_stMonsterIndexInfo,_stMonsterIndexInfo>, COMDAT

; 772  : 		{	// construct _Objty(_Types...) at _Ptr

  00000	55		 push	 ebp
  00001	8b ec		 mov	 ebp, esp

; 655  : 		::new ((void *)_Ptr) _Objty(_STD forward<_Types>(_Args)...);

  00003	8b 55 0c	 mov	 edx, DWORD PTR __Ptr$[ebp]
  00006	85 d2		 test	 edx, edx
  00008	74 0d		 je	 SHORT $LN8@construct
  0000a	8b 4d 10	 mov	 ecx, DWORD PTR _<_Args_0>$[ebp]
  0000d	8b 01		 mov	 eax, DWORD PTR [ecx]
  0000f	89 02		 mov	 DWORD PTR [edx], eax
  00011	8b 41 04	 mov	 eax, DWORD PTR [ecx+4]
  00014	89 42 04	 mov	 DWORD PTR [edx+4], eax
$LN8@construct:

; 773  : 		_Al.construct(_Ptr, _STD forward<_Types>(_Args)...);
; 774  : 		}

  00017	5d		 pop	 ebp
  00018	c3		 ret	 0
??$construct@U_stMonsterIndexInfo@@U1@@?$allocator_traits@V?$allocator@U_stMonsterIndexInfo@@@std@@@std@@SAXAAV?$allocator@U_stMonsterIndexInfo@@@1@PAU_stMonsterIndexInfo@@$$QAU3@@Z ENDP ; std::allocator_traits<std::allocator<_stMonsterIndexInfo> >::construct<_stMonsterIndexInfo,_stMonsterIndexInfo>
_TEXT	ENDS
; Function compile flags: /Ogtp
; File c:\program files (x86)\microsoft visual studio 14.0\vc\include\type_traits
;	COMDAT ??$forward@U_stMonsterIndexInfo@@@std@@YA$$QAU_stMonsterIndexInfo@@AAU1@@Z
_TEXT	SEGMENT
__Arg$ = 8						; size = 4
??$forward@U_stMonsterIndexInfo@@@std@@YA$$QAU_stMonsterIndexInfo@@AAU1@@Z PROC ; std::forward<_stMonsterIndexInfo>, COMDAT

; 1233 : 	{	// forward an lvalue as either an lvalue or an rvalue

  00000	55		 push	 ebp
  00001	8b ec		 mov	 ebp, esp

; 1234 : 	return (static_cast<_Ty&&>(_Arg));

  00003	8b 45 08	 mov	 eax, DWORD PTR __Arg$[ebp]

; 1235 : 	}

  00006	5d		 pop	 ebp
  00007	c3		 ret	 0
??$forward@U_stMonsterIndexInfo@@@std@@YA$$QAU_stMonsterIndexInfo@@AAU1@@Z ENDP ; std::forward<_stMonsterIndexInfo>
_TEXT	ENDS
; Function compile flags: /Ogtp
; File c:\program files (x86)\microsoft visual studio 14.0\vc\include\xmemory0
;	COMDAT ??$construct@U_stMonsterIndexInfo@@U1@@?$_Wrap_alloc@V?$allocator@U_stMonsterIndexInfo@@@std@@@std@@QAEXPAU_stMonsterIndexInfo@@$$QAU2@@Z
_TEXT	SEGMENT
__Ptr$ = 8						; size = 4
_<_Args_0>$ = 12					; size = 4
??$construct@U_stMonsterIndexInfo@@U1@@?$_Wrap_alloc@V?$allocator@U_stMonsterIndexInfo@@@std@@@std@@QAEXPAU_stMonsterIndexInfo@@$$QAU2@@Z PROC ; std::_Wrap_alloc<std::allocator<_stMonsterIndexInfo> >::construct<_stMonsterIndexInfo,_stMonsterIndexInfo>, COMDAT
; _this$ = ecx

; 916  : 		{	// construct _Ty(_Types...) at _Ptr

  00000	55		 push	 ebp
  00001	8b ec		 mov	 ebp, esp

; 655  : 		::new ((void *)_Ptr) _Objty(_STD forward<_Types>(_Args)...);

  00003	8b 55 08	 mov	 edx, DWORD PTR __Ptr$[ebp]
  00006	85 d2		 test	 edx, edx
  00008	74 0d		 je	 SHORT $LN13@construct
  0000a	8b 4d 0c	 mov	 ecx, DWORD PTR _<_Args_0>$[ebp]
  0000d	8b 01		 mov	 eax, DWORD PTR [ecx]
  0000f	89 02		 mov	 DWORD PTR [edx], eax
  00011	8b 41 04	 mov	 eax, DWORD PTR [ecx+4]
  00014	89 42 04	 mov	 DWORD PTR [edx+4], eax
$LN13@construct:

; 917  : 		_Mytraits::construct(*this, _Ptr,
; 918  : 			_STD forward<_Types>(_Args)...);
; 919  : 		}

  00017	5d		 pop	 ebp
  00018	c2 08 00	 ret	 8
??$construct@U_stMonsterIndexInfo@@U1@@?$_Wrap_alloc@V?$allocator@U_stMonsterIndexInfo@@@std@@@std@@QAEXPAU_stMonsterIndexInfo@@$$QAU2@@Z ENDP ; std::_Wrap_alloc<std::allocator<_stMonsterIndexInfo> >::construct<_stMonsterIndexInfo,_stMonsterIndexInfo>
_TEXT	ENDS
; Function compile flags: /Ogtp
; File c:\program files (x86)\microsoft visual studio 14.0\vc\include\xmemory0
;	COMDAT ??$destroy@U_stMonsterIndexInfo@@@?$allocator@U_stMonsterIndexInfo@@@std@@QAEXPAU_stMonsterIndexInfo@@@Z
_TEXT	SEGMENT
__Ptr$ = 8						; size = 4
??$destroy@U_stMonsterIndexInfo@@@?$allocator@U_stMonsterIndexInfo@@@std@@QAEXPAU_stMonsterIndexInfo@@@Z PROC ; std::allocator<_stMonsterIndexInfo>::destroy<_stMonsterIndexInfo>, COMDAT
; _this$ = ecx

; 662  : 		_Ptr->~_Uty();
; 663  : 		}

  00000	c2 04 00	 ret	 4
??$destroy@U_stMonsterIndexInfo@@@?$allocator@U_stMonsterIndexInfo@@@std@@QAEXPAU_stMonsterIndexInfo@@@Z ENDP ; std::allocator<_stMonsterIndexInfo>::destroy<_stMonsterIndexInfo>
_TEXT	ENDS
; Function compile flags: /Ogtp
; File c:\program files (x86)\microsoft visual studio 14.0\vc\include\xmemory
; File c:\program files (x86)\microsoft visual studio 14.0\vc\include\xmemory0
; File c:\program files (x86)\microsoft visual studio 14.0\vc\include\xmemory
;	COMDAT ??$_Uninit_move@PAU_stMonsterIndexInfo@@PAU1@V?$allocator@U_stMonsterIndexInfo@@@std@@U1@@std@@YAPAU_stMonsterIndexInfo@@PAU1@00AAU?$_Wrap_alloc@V?$allocator@U_stMonsterIndexInfo@@@std@@@0@0U_Nonscalar_ptr_iterator_tag@0@@Z
_TEXT	SEGMENT
__First$ = 8						; size = 4
__Last$ = 12						; size = 4
__Dest$ = 16						; size = 4
__Al$ = 20						; size = 4
___formal$ = 24						; size = 4
___formal$ = 28						; size = 1
??$_Uninit_move@PAU_stMonsterIndexInfo@@PAU1@V?$allocator@U_stMonsterIndexInfo@@@std@@U1@@std@@YAPAU_stMonsterIndexInfo@@PAU1@00AAU?$_Wrap_alloc@V?$allocator@U_stMonsterIndexInfo@@@std@@@0@0U_Nonscalar_ptr_iterator_tag@0@@Z PROC ; std::_Uninit_move<_stMonsterIndexInfo *,_stMonsterIndexInfo *,std::allocator<_stMonsterIndexInfo>,_stMonsterIndexInfo>, COMDAT

; 437  : 	{	// move [_First, _Last) to raw _Dest, using _Al, arbitrary type

  00000	55		 push	 ebp
  00001	8b ec		 mov	 ebp, esp

; 442  : 	for (; _First != _Last; ++_Dest, (void)++_First)

  00003	8b 4d 08	 mov	 ecx, DWORD PTR __First$[ebp]
  00006	57		 push	 edi
  00007	8b 7d 0c	 mov	 edi, DWORD PTR __Last$[ebp]
  0000a	3b cf		 cmp	 ecx, edi
  0000c	74 22		 je	 SHORT $LN37@Uninit_mov
  0000e	56		 push	 esi
  0000f	8b 75 10	 mov	 esi, DWORD PTR __Dest$[ebp]
$LL4@Uninit_mov:
; File c:\program files (x86)\microsoft visual studio 14.0\vc\include\xmemory0

; 655  : 		::new ((void *)_Ptr) _Objty(_STD forward<_Types>(_Args)...);

  00012	85 f6		 test	 esi, esi
  00014	74 0a		 je	 SHORT $LN2@Uninit_mov
  00016	8b 01		 mov	 eax, DWORD PTR [ecx]
  00018	89 06		 mov	 DWORD PTR [esi], eax
  0001a	8b 51 04	 mov	 edx, DWORD PTR [ecx+4]
  0001d	89 56 04	 mov	 DWORD PTR [esi+4], edx
$LN2@Uninit_mov:
; File c:\program files (x86)\microsoft visual studio 14.0\vc\include\xmemory

; 442  : 	for (; _First != _Last; ++_Dest, (void)++_First)

  00020	83 c1 08	 add	 ecx, 8
  00023	83 c6 08	 add	 esi, 8
  00026	3b cf		 cmp	 ecx, edi
  00028	75 e8		 jne	 SHORT $LL4@Uninit_mov

; 443  : 		_Al.construct(_Dest, (_Valty&&)*_First);
; 444  : 	_CATCH_ALL
; 445  : 	for (; _Next != _Dest; ++_Next)
; 446  : 		_Al.destroy(_Next);
; 447  : 	_RERAISE;
; 448  : 	_CATCH_END
; 449  : 	return (_Dest);

  0002a	8b c6		 mov	 eax, esi
  0002c	5e		 pop	 esi
  0002d	5f		 pop	 edi

; 450  : 	}

  0002e	5d		 pop	 ebp
  0002f	c3		 ret	 0
$LN37@Uninit_mov:

; 443  : 		_Al.construct(_Dest, (_Valty&&)*_First);
; 444  : 	_CATCH_ALL
; 445  : 	for (; _Next != _Dest; ++_Next)
; 446  : 		_Al.destroy(_Next);
; 447  : 	_RERAISE;
; 448  : 	_CATCH_END
; 449  : 	return (_Dest);

  00030	8b 45 10	 mov	 eax, DWORD PTR __Dest$[ebp]
  00033	5f		 pop	 edi

; 450  : 	}

  00034	5d		 pop	 ebp
  00035	c3		 ret	 0
??$_Uninit_move@PAU_stMonsterIndexInfo@@PAU1@V?$allocator@U_stMonsterIndexInfo@@@std@@U1@@std@@YAPAU_stMonsterIndexInfo@@PAU1@00AAU?$_Wrap_alloc@V?$allocator@U_stMonsterIndexInfo@@@std@@@0@0U_Nonscalar_ptr_iterator_tag@0@@Z ENDP ; std::_Uninit_move<_stMonsterIndexInfo *,_stMonsterIndexInfo *,std::allocator<_stMonsterIndexInfo>,_stMonsterIndexInfo>
_TEXT	ENDS
; Function compile flags: /Ogtp
; File c:\program files (x86)\microsoft visual studio 14.0\vc\include\xutility
;	COMDAT ??$_Val_type@PAU_stMonsterIndexInfo@@@std@@YAPAU_stMonsterIndexInfo@@PAU1@@Z
_TEXT	SEGMENT
___formal$ = 8						; size = 4
??$_Val_type@PAU_stMonsterIndexInfo@@@std@@YAPAU_stMonsterIndexInfo@@PAU1@@Z PROC ; std::_Val_type<_stMonsterIndexInfo *>, COMDAT

; 875  : 	return (0);

  00000	33 c0		 xor	 eax, eax

; 876  : 	}

  00002	c3		 ret	 0
??$_Val_type@PAU_stMonsterIndexInfo@@@std@@YAPAU_stMonsterIndexInfo@@PAU1@@Z ENDP ; std::_Val_type<_stMonsterIndexInfo *>
_TEXT	ENDS
; Function compile flags: /Ogtp
; File c:\program files (x86)\microsoft visual studio 14.0\vc\include\xmemory
;	COMDAT ??$_Uninit_move@HHH@std@@YAPAHPAH00AAU?$_Wrap_alloc@V?$allocator@H@std@@@0@0U_Scalar_ptr_iterator_tag@0@@Z
_TEXT	SEGMENT
__First$ = 8						; size = 4
__Last$ = 12						; size = 4
__Dest$ = 16						; size = 4
___formal$ = 20						; size = 4
___formal$ = 24						; size = 4
___formal$ = 28						; size = 1
??$_Uninit_move@HHH@std@@YAPAHPAH00AAU?$_Wrap_alloc@V?$allocator@H@std@@@0@0U_Scalar_ptr_iterator_tag@0@@Z PROC ; std::_Uninit_move<int,int,int>, COMDAT

; 468  : 	{	// move [_First, _Last) to raw _Dest, scalar type

  00000	55		 push	 ebp
  00001	8b ec		 mov	 ebp, esp

; 469  : 	_DEBUG_RANGE_PTR(_First, _Last, _Dest);
; 470  : 	size_t _Count = (size_t)(_Last - _First);

  00003	8b 4d 08	 mov	 ecx, DWORD PTR __First$[ebp]
  00006	8b 45 0c	 mov	 eax, DWORD PTR __Last$[ebp]
  00009	2b c1		 sub	 eax, ecx
  0000b	c1 f8 02	 sar	 eax, 2
  0000e	56		 push	 esi

; 471  : 	return ((_Ty2 *)_CSTD memmove(&*_Dest, &*_First,

  0000f	8d 34 85 00 00
	00 00		 lea	 esi, DWORD PTR [eax*4]
  00016	56		 push	 esi
  00017	51		 push	 ecx
  00018	ff 75 10	 push	 DWORD PTR __Dest$[ebp]
  0001b	e8 00 00 00 00	 call	 _memmove
  00020	83 c4 0c	 add	 esp, 12			; 0000000cH
  00023	03 c6		 add	 eax, esi
  00025	5e		 pop	 esi

; 472  : 		_Count * sizeof (*_First)) + _Count);	// NB: non-overlapping move
; 473  : 	}

  00026	5d		 pop	 ebp
  00027	c3		 ret	 0
??$_Uninit_move@HHH@std@@YAPAHPAH00AAU?$_Wrap_alloc@V?$allocator@H@std@@@0@0U_Scalar_ptr_iterator_tag@0@@Z ENDP ; std::_Uninit_move<int,int,int>
_TEXT	ENDS
; Function compile flags: /Ogtp
; File c:\program files (x86)\microsoft visual studio 14.0\vc\include\xutility
;	COMDAT ??$_Val_type@PAH@std@@YAPAHPAH@Z
_TEXT	SEGMENT
___formal$ = 8						; size = 4
??$_Val_type@PAH@std@@YAPAHPAH@Z PROC			; std::_Val_type<int *>, COMDAT

; 875  : 	return (0);

  00000	33 c0		 xor	 eax, eax

; 876  : 	}

  00002	c3		 ret	 0
??$_Val_type@PAH@std@@YAPAHPAH@Z ENDP			; std::_Val_type<int *>
_TEXT	ENDS
; Function compile flags: /Ogtp
; File c:\program files (x86)\microsoft visual studio 14.0\vc\include\xmemory0
;	COMDAT ??$destroy@U_stMonsterIndexInfo@@@?$allocator_traits@V?$allocator@U_stMonsterIndexInfo@@@std@@@std@@SAXAAV?$allocator@U_stMonsterIndexInfo@@@1@PAU_stMonsterIndexInfo@@@Z
_TEXT	SEGMENT
__Al$ = 8						; size = 4
__Ptr$ = 12						; size = 4
??$destroy@U_stMonsterIndexInfo@@@?$allocator_traits@V?$allocator@U_stMonsterIndexInfo@@@std@@@std@@SAXAAV?$allocator@U_stMonsterIndexInfo@@@1@PAU_stMonsterIndexInfo@@@Z PROC ; std::allocator_traits<std::allocator<_stMonsterIndexInfo> >::destroy<_stMonsterIndexInfo>, COMDAT

; 780  : 		_Al.destroy(_Ptr);
; 781  : 		}

  00000	c3		 ret	 0
??$destroy@U_stMonsterIndexInfo@@@?$allocator_traits@V?$allocator@U_stMonsterIndexInfo@@@std@@@std@@SAXAAV?$allocator@U_stMonsterIndexInfo@@@1@PAU_stMonsterIndexInfo@@@Z ENDP ; std::allocator_traits<std::allocator<_stMonsterIndexInfo> >::destroy<_stMonsterIndexInfo>
_TEXT	ENDS
; Function compile flags: /Ogtp
; File c:\program files (x86)\microsoft visual studio 14.0\vc\include\xmemory
; File c:\program files (x86)\microsoft visual studio 14.0\vc\include\xmemory0
; File c:\program files (x86)\microsoft visual studio 14.0\vc\include\xmemory
;	COMDAT ??$_Uninit_copy@PBU_stMonsterIndexInfo@@PAU1@V?$allocator@U_stMonsterIndexInfo@@@std@@@std@@YAPAU_stMonsterIndexInfo@@PBU1@0PAU1@AAU?$_Wrap_alloc@V?$allocator@U_stMonsterIndexInfo@@@std@@@0@U_Nonscalar_ptr_iterator_tag@0@@Z
_TEXT	SEGMENT
__First$ = 8						; size = 4
__Last$ = 12						; size = 4
__Dest$ = 16						; size = 4
__Al$ = 20						; size = 4
___formal$ = 24						; size = 1
??$_Uninit_copy@PBU_stMonsterIndexInfo@@PAU1@V?$allocator@U_stMonsterIndexInfo@@@std@@@std@@YAPAU_stMonsterIndexInfo@@PBU1@0PAU1@AAU?$_Wrap_alloc@V?$allocator@U_stMonsterIndexInfo@@@std@@@0@U_Nonscalar_ptr_iterator_tag@0@@Z PROC ; std::_Uninit_copy<_stMonsterIndexInfo const *,_stMonsterIndexInfo *,std::allocator<_stMonsterIndexInfo> >, COMDAT

; 373  : 	{	// copy [_First, _Last) to raw _Dest, using _Al, arbitrary type

  00000	55		 push	 ebp
  00001	8b ec		 mov	 ebp, esp

; 378  : 	for (; _First != _Last; ++_Dest, (void)++_First)

  00003	8b 4d 08	 mov	 ecx, DWORD PTR __First$[ebp]
  00006	57		 push	 edi
  00007	8b 7d 0c	 mov	 edi, DWORD PTR __Last$[ebp]
  0000a	3b cf		 cmp	 ecx, edi
  0000c	74 22		 je	 SHORT $LN37@Uninit_cop
  0000e	56		 push	 esi
  0000f	8b 75 10	 mov	 esi, DWORD PTR __Dest$[ebp]
$LL4@Uninit_cop:
; File c:\program files (x86)\microsoft visual studio 14.0\vc\include\xmemory0

; 655  : 		::new ((void *)_Ptr) _Objty(_STD forward<_Types>(_Args)...);

  00012	85 f6		 test	 esi, esi
  00014	74 0a		 je	 SHORT $LN2@Uninit_cop
  00016	8b 01		 mov	 eax, DWORD PTR [ecx]
  00018	89 06		 mov	 DWORD PTR [esi], eax
  0001a	8b 51 04	 mov	 edx, DWORD PTR [ecx+4]
  0001d	89 56 04	 mov	 DWORD PTR [esi+4], edx
$LN2@Uninit_cop:
; File c:\program files (x86)\microsoft visual studio 14.0\vc\include\xmemory

; 378  : 	for (; _First != _Last; ++_Dest, (void)++_First)

  00020	83 c1 08	 add	 ecx, 8
  00023	83 c6 08	 add	 esi, 8
  00026	3b cf		 cmp	 ecx, edi
  00028	75 e8		 jne	 SHORT $LL4@Uninit_cop

; 379  : 		_Al.construct(_Dest, *_First);
; 380  : 	_CATCH_ALL
; 381  : 	for (; _Next != _Dest; ++_Next)
; 382  : 		_Al.destroy(_Next);
; 383  : 	_RERAISE;
; 384  : 	_CATCH_END
; 385  : 	return (_Dest);

  0002a	8b c6		 mov	 eax, esi
  0002c	5e		 pop	 esi
  0002d	5f		 pop	 edi

; 386  : 	}

  0002e	5d		 pop	 ebp
  0002f	c3		 ret	 0
$LN37@Uninit_cop:

; 379  : 		_Al.construct(_Dest, *_First);
; 380  : 	_CATCH_ALL
; 381  : 	for (; _Next != _Dest; ++_Next)
; 382  : 		_Al.destroy(_Next);
; 383  : 	_RERAISE;
; 384  : 	_CATCH_END
; 385  : 	return (_Dest);

  00030	8b 45 10	 mov	 eax, DWORD PTR __Dest$[ebp]
  00033	5f		 pop	 edi

; 386  : 	}

  00034	5d		 pop	 ebp
  00035	c3		 ret	 0
??$_Uninit_copy@PBU_stMonsterIndexInfo@@PAU1@V?$allocator@U_stMonsterIndexInfo@@@std@@@std@@YAPAU_stMonsterIndexInfo@@PBU1@0PAU1@AAU?$_Wrap_alloc@V?$allocator@U_stMonsterIndexInfo@@@std@@@0@U_Nonscalar_ptr_iterator_tag@0@@Z ENDP ; std::_Uninit_copy<_stMonsterIndexInfo const *,_stMonsterIndexInfo *,std::allocator<_stMonsterIndexInfo> >
_TEXT	ENDS
; Function compile flags: /Ogtp
; File c:\program files (x86)\microsoft visual studio 14.0\vc\include\xmemory
;	COMDAT ??$_Uninit_copy@$$CBHH@std@@YAPAHPBH0PAHAAU?$_Wrap_alloc@V?$allocator@H@std@@@0@U_Scalar_ptr_iterator_tag@0@@Z
_TEXT	SEGMENT
__First$ = 8						; size = 4
__Last$ = 12						; size = 4
__Dest$ = 16						; size = 4
___formal$ = 20						; size = 4
___formal$ = 24						; size = 1
??$_Uninit_copy@$$CBHH@std@@YAPAHPBH0PAHAAU?$_Wrap_alloc@V?$allocator@H@std@@@0@U_Scalar_ptr_iterator_tag@0@@Z PROC ; std::_Uninit_copy<int const ,int>, COMDAT

; 402  : 	{	// copy [_First, _Last) to raw _Dest, scalar type

  00000	55		 push	 ebp
  00001	8b ec		 mov	 ebp, esp

; 403  : 	_DEBUG_RANGE_PTR(_First, _Last, _Dest);
; 404  : 	size_t _Count = (size_t)(_Last - _First);

  00003	8b 4d 08	 mov	 ecx, DWORD PTR __First$[ebp]
  00006	8b 45 0c	 mov	 eax, DWORD PTR __Last$[ebp]
  00009	2b c1		 sub	 eax, ecx
  0000b	c1 f8 02	 sar	 eax, 2
  0000e	56		 push	 esi

; 405  : 	return ((_Ty2 *)_CSTD memmove(&*_Dest, &*_First,

  0000f	8d 34 85 00 00
	00 00		 lea	 esi, DWORD PTR [eax*4]
  00016	56		 push	 esi
  00017	51		 push	 ecx
  00018	ff 75 10	 push	 DWORD PTR __Dest$[ebp]
  0001b	e8 00 00 00 00	 call	 _memmove
  00020	83 c4 0c	 add	 esp, 12			; 0000000cH
  00023	03 c6		 add	 eax, esi
  00025	5e		 pop	 esi

; 406  : 		_Count * sizeof (*_First)) + _Count);	// NB: non-overlapping move
; 407  : 	}

  00026	5d		 pop	 ebp
  00027	c3		 ret	 0
??$_Uninit_copy@$$CBHH@std@@YAPAHPBH0PAHAAU?$_Wrap_alloc@V?$allocator@H@std@@@0@U_Scalar_ptr_iterator_tag@0@@Z ENDP ; std::_Uninit_copy<int const ,int>
_TEXT	ENDS
; Function compile flags: /Ogtp
; File c:\program files (x86)\microsoft visual studio 14.0\vc\include\xmemory
;	COMDAT ??$_Uninit_move@PAU_stMonsterIndexInfo@@PAU1@U?$_Wrap_alloc@V?$allocator@U_stMonsterIndexInfo@@@std@@@std@@@std@@YAPAU_stMonsterIndexInfo@@PAU1@00AAU?$_Wrap_alloc@V?$allocator@U_stMonsterIndexInfo@@@std@@@0@@Z
_TEXT	SEGMENT
__Cat$1 = -4						; size = 1
__First$ = 8						; size = 4
__Last$ = 12						; size = 4
__Dest$ = 16						; size = 4
__Al$ = 20						; size = 4
??$_Uninit_move@PAU_stMonsterIndexInfo@@PAU1@U?$_Wrap_alloc@V?$allocator@U_stMonsterIndexInfo@@@std@@@std@@@std@@YAPAU_stMonsterIndexInfo@@PAU1@00AAU?$_Wrap_alloc@V?$allocator@U_stMonsterIndexInfo@@@std@@@0@@Z PROC ; std::_Uninit_move<_stMonsterIndexInfo *,_stMonsterIndexInfo *,std::_Wrap_alloc<std::allocator<_stMonsterIndexInfo> > >, COMDAT

; 480  : 	{	// move [_First, _Last) to raw _Dest, using _Al

  00000	55		 push	 ebp
  00001	8b ec		 mov	 ebp, esp
  00003	51		 push	 ecx

; 481  : 	return (_Uninit_move(_First, _Last, _Dest, _Al,

  00004	ff 75 fc	 push	 DWORD PTR __Cat$1[ebp]
  00007	6a 00		 push	 0
  00009	ff 75 14	 push	 DWORD PTR __Al$[ebp]
  0000c	ff 75 10	 push	 DWORD PTR __Dest$[ebp]
  0000f	ff 75 0c	 push	 DWORD PTR __Last$[ebp]
  00012	ff 75 08	 push	 DWORD PTR __First$[ebp]
  00015	e8 00 00 00 00	 call	 ??$_Uninit_move@PAU_stMonsterIndexInfo@@PAU1@V?$allocator@U_stMonsterIndexInfo@@@std@@U1@@std@@YAPAU_stMonsterIndexInfo@@PAU1@00AAU?$_Wrap_alloc@V?$allocator@U_stMonsterIndexInfo@@@std@@@0@0U_Nonscalar_ptr_iterator_tag@0@@Z ; std::_Uninit_move<_stMonsterIndexInfo *,_stMonsterIndexInfo *,std::allocator<_stMonsterIndexInfo>,_stMonsterIndexInfo>
  0001a	83 c4 18	 add	 esp, 24			; 00000018H

; 482  : 		_Val_type(_First), _Ptr_cat(_First, _Dest)));
; 483  : 	}

  0001d	8b e5		 mov	 esp, ebp
  0001f	5d		 pop	 ebp
  00020	c3		 ret	 0
??$_Uninit_move@PAU_stMonsterIndexInfo@@PAU1@U?$_Wrap_alloc@V?$allocator@U_stMonsterIndexInfo@@@std@@@std@@@std@@YAPAU_stMonsterIndexInfo@@PAU1@00AAU?$_Wrap_alloc@V?$allocator@U_stMonsterIndexInfo@@@std@@@0@@Z ENDP ; std::_Uninit_move<_stMonsterIndexInfo *,_stMonsterIndexInfo *,std::_Wrap_alloc<std::allocator<_stMonsterIndexInfo> > >
_TEXT	ENDS
; Function compile flags: /Ogtp
; File c:\program files (x86)\microsoft visual studio 14.0\vc\include\xmemory
;	COMDAT ??$_Uninit_move@PAHPAHU?$_Wrap_alloc@V?$allocator@H@std@@@std@@@std@@YAPAHPAH00AAU?$_Wrap_alloc@V?$allocator@H@std@@@0@@Z
_TEXT	SEGMENT
__First$ = 8						; size = 4
__Last$ = 12						; size = 4
__Dest$ = 16						; size = 4
__Al$ = 20						; size = 4
??$_Uninit_move@PAHPAHU?$_Wrap_alloc@V?$allocator@H@std@@@std@@@std@@YAPAHPAH00AAU?$_Wrap_alloc@V?$allocator@H@std@@@0@@Z PROC ; std::_Uninit_move<int *,int *,std::_Wrap_alloc<std::allocator<int> > >, COMDAT

; 480  : 	{	// move [_First, _Last) to raw _Dest, using _Al

  00000	55		 push	 ebp
  00001	8b ec		 mov	 ebp, esp

; 470  : 	size_t _Count = (size_t)(_Last - _First);

  00003	8b 4d 08	 mov	 ecx, DWORD PTR __First$[ebp]
  00006	8b 45 0c	 mov	 eax, DWORD PTR __Last$[ebp]
  00009	2b c1		 sub	 eax, ecx
  0000b	c1 f8 02	 sar	 eax, 2
  0000e	56		 push	 esi

; 471  : 	return ((_Ty2 *)_CSTD memmove(&*_Dest, &*_First,

  0000f	8d 34 85 00 00
	00 00		 lea	 esi, DWORD PTR [eax*4]
  00016	56		 push	 esi
  00017	51		 push	 ecx
  00018	ff 75 10	 push	 DWORD PTR __Dest$[ebp]
  0001b	e8 00 00 00 00	 call	 _memmove
  00020	83 c4 0c	 add	 esp, 12			; 0000000cH
  00023	03 c6		 add	 eax, esi
  00025	5e		 pop	 esi

; 481  : 	return (_Uninit_move(_First, _Last, _Dest, _Al,
; 482  : 		_Val_type(_First), _Ptr_cat(_First, _Dest)));
; 483  : 	}

  00026	5d		 pop	 ebp
  00027	c3		 ret	 0
??$_Uninit_move@PAHPAHU?$_Wrap_alloc@V?$allocator@H@std@@@std@@@std@@YAPAHPAH00AAU?$_Wrap_alloc@V?$allocator@H@std@@@0@@Z ENDP ; std::_Uninit_move<int *,int *,std::_Wrap_alloc<std::allocator<int> > >
_TEXT	ENDS
; Function compile flags: /Ogtp
; File c:\program files (x86)\microsoft visual studio 14.0\vc\include\xmemory0
;	COMDAT ??$destroy@U_stMonsterIndexInfo@@@?$_Wrap_alloc@V?$allocator@U_stMonsterIndexInfo@@@std@@@std@@QAEXPAU_stMonsterIndexInfo@@@Z
_TEXT	SEGMENT
__Ptr$ = 8						; size = 4
??$destroy@U_stMonsterIndexInfo@@@?$_Wrap_alloc@V?$allocator@U_stMonsterIndexInfo@@@std@@@std@@QAEXPAU_stMonsterIndexInfo@@@Z PROC ; std::_Wrap_alloc<std::allocator<_stMonsterIndexInfo> >::destroy<_stMonsterIndexInfo>, COMDAT
; _this$ = ecx

; 925  : 		_Mytraits::destroy(*this, _Ptr);
; 926  : 		}

  00000	c2 04 00	 ret	 4
??$destroy@U_stMonsterIndexInfo@@@?$_Wrap_alloc@V?$allocator@U_stMonsterIndexInfo@@@std@@@std@@QAEXPAU_stMonsterIndexInfo@@@Z ENDP ; std::_Wrap_alloc<std::allocator<_stMonsterIndexInfo> >::destroy<_stMonsterIndexInfo>
_TEXT	ENDS
; Function compile flags: /Ogtp
; File c:\program files (x86)\microsoft visual studio 14.0\vc\include\xutility
;	COMDAT ??$_Rechecked@PAU_stMonsterIndexInfo@@PAU1@@std@@YAAAPAU_stMonsterIndexInfo@@AAPAU1@PAU1@@Z
_TEXT	SEGMENT
__Dest$ = 8						; size = 4
__Src$ = 12						; size = 4
??$_Rechecked@PAU_stMonsterIndexInfo@@PAU1@@std@@YAAAPAU_stMonsterIndexInfo@@AAPAU1@PAU1@@Z PROC ; std::_Rechecked<_stMonsterIndexInfo *,_stMonsterIndexInfo *>, COMDAT

; 446  : 	{	// reset checked from unchecked, generic

  00000	55		 push	 ebp
  00001	8b ec		 mov	 ebp, esp

; 447  : 	_Dest = _Src;

  00003	8b 45 08	 mov	 eax, DWORD PTR __Dest$[ebp]
  00006	8b 4d 0c	 mov	 ecx, DWORD PTR __Src$[ebp]
  00009	89 08		 mov	 DWORD PTR [eax], ecx

; 448  : 	return (_Dest);
; 449  : 	}

  0000b	5d		 pop	 ebp
  0000c	c3		 ret	 0
??$_Rechecked@PAU_stMonsterIndexInfo@@PAU1@@std@@YAAAPAU_stMonsterIndexInfo@@AAPAU1@PAU1@@Z ENDP ; std::_Rechecked<_stMonsterIndexInfo *,_stMonsterIndexInfo *>
_TEXT	ENDS
; Function compile flags: /Ogtp
; File c:\program files (x86)\microsoft visual studio 14.0\vc\include\xmemory
;	COMDAT ??$_Uninit_copy@PBU_stMonsterIndexInfo@@PAU1@U?$_Wrap_alloc@V?$allocator@U_stMonsterIndexInfo@@@std@@@std@@@std@@YAPAU_stMonsterIndexInfo@@PBU1@0PAU1@AAU?$_Wrap_alloc@V?$allocator@U_stMonsterIndexInfo@@@std@@@0@@Z
_TEXT	SEGMENT
__Cat$1 = -4						; size = 1
__First$ = 8						; size = 4
__Last$ = 12						; size = 4
__Dest$ = 16						; size = 4
__Al$ = 20						; size = 4
??$_Uninit_copy@PBU_stMonsterIndexInfo@@PAU1@U?$_Wrap_alloc@V?$allocator@U_stMonsterIndexInfo@@@std@@@std@@@std@@YAPAU_stMonsterIndexInfo@@PBU1@0PAU1@AAU?$_Wrap_alloc@V?$allocator@U_stMonsterIndexInfo@@@std@@@0@@Z PROC ; std::_Uninit_copy<_stMonsterIndexInfo const *,_stMonsterIndexInfo *,std::_Wrap_alloc<std::allocator<_stMonsterIndexInfo> > >, COMDAT

; 414  : 	{	// copy [_First, _Last) to raw _Dest, using _Al

  00000	55		 push	 ebp
  00001	8b ec		 mov	 ebp, esp
  00003	51		 push	 ecx

; 415  : 	return (_Uninit_copy(_First, _Last, _Dest, _Al,

  00004	ff 75 fc	 push	 DWORD PTR __Cat$1[ebp]
  00007	ff 75 14	 push	 DWORD PTR __Al$[ebp]
  0000a	ff 75 10	 push	 DWORD PTR __Dest$[ebp]
  0000d	ff 75 0c	 push	 DWORD PTR __Last$[ebp]
  00010	ff 75 08	 push	 DWORD PTR __First$[ebp]
  00013	e8 00 00 00 00	 call	 ??$_Uninit_copy@PBU_stMonsterIndexInfo@@PAU1@V?$allocator@U_stMonsterIndexInfo@@@std@@@std@@YAPAU_stMonsterIndexInfo@@PBU1@0PAU1@AAU?$_Wrap_alloc@V?$allocator@U_stMonsterIndexInfo@@@std@@@0@U_Nonscalar_ptr_iterator_tag@0@@Z ; std::_Uninit_copy<_stMonsterIndexInfo const *,_stMonsterIndexInfo *,std::allocator<_stMonsterIndexInfo> >
  00018	83 c4 14	 add	 esp, 20			; 00000014H

; 416  : 		_Ptr_cat(_First, _Dest)));
; 417  : 	}

  0001b	8b e5		 mov	 esp, ebp
  0001d	5d		 pop	 ebp
  0001e	c3		 ret	 0
??$_Uninit_copy@PBU_stMonsterIndexInfo@@PAU1@U?$_Wrap_alloc@V?$allocator@U_stMonsterIndexInfo@@@std@@@std@@@std@@YAPAU_stMonsterIndexInfo@@PBU1@0PAU1@AAU?$_Wrap_alloc@V?$allocator@U_stMonsterIndexInfo@@@std@@@0@@Z ENDP ; std::_Uninit_copy<_stMonsterIndexInfo const *,_stMonsterIndexInfo *,std::_Wrap_alloc<std::allocator<_stMonsterIndexInfo> > >
_TEXT	ENDS
; Function compile flags: /Ogtp
; File c:\program files (x86)\microsoft visual studio 14.0\vc\include\xutility
;	COMDAT ??$_Unchecked@PAU_stMonsterIndexInfo@@@std@@YAPAU_stMonsterIndexInfo@@PAU1@@Z
_TEXT	SEGMENT
__Src$ = 8						; size = 4
??$_Unchecked@PAU_stMonsterIndexInfo@@@std@@YAPAU_stMonsterIndexInfo@@PAU1@@Z PROC ; std::_Unchecked<_stMonsterIndexInfo *>, COMDAT

; 438  : 	{	// construct unchecked from checked, generic

  00000	55		 push	 ebp
  00001	8b ec		 mov	 ebp, esp

; 439  : 	return (_Src);

  00003	8b 45 08	 mov	 eax, DWORD PTR __Src$[ebp]

; 440  : 	}

  00006	5d		 pop	 ebp
  00007	c3		 ret	 0
??$_Unchecked@PAU_stMonsterIndexInfo@@@std@@YAPAU_stMonsterIndexInfo@@PAU1@@Z ENDP ; std::_Unchecked<_stMonsterIndexInfo *>
_TEXT	ENDS
; Function compile flags: /Ogtp
; File c:\program files (x86)\microsoft visual studio 14.0\vc\include\vector
;	COMDAT ??$_Unchecked@V?$_Vector_val@U?$_Simple_types@U_stMonsterIndexInfo@@@std@@@std@@@std@@YAPBU_stMonsterIndexInfo@@V?$_Vector_const_iterator@V?$_Vector_val@U?$_Simple_types@U_stMonsterIndexInfo@@@std@@@std@@@0@@Z
_TEXT	SEGMENT
__Iter$ = 8						; size = 4
??$_Unchecked@V?$_Vector_val@U?$_Simple_types@U_stMonsterIndexInfo@@@std@@@std@@@std@@YAPBU_stMonsterIndexInfo@@V?$_Vector_const_iterator@V?$_Vector_val@U?$_Simple_types@U_stMonsterIndexInfo@@@std@@@std@@@0@@Z PROC ; std::_Unchecked<std::_Vector_val<std::_Simple_types<_stMonsterIndexInfo> > >, COMDAT

; 265  : 	{	// convert to unchecked

  00000	55		 push	 ebp
  00001	8b ec		 mov	 ebp, esp

; 266  : 	return (_Iter._Unchecked());

  00003	8b 45 08	 mov	 eax, DWORD PTR __Iter$[ebp]

; 267  : 	}

  00006	5d		 pop	 ebp
  00007	c3		 ret	 0
??$_Unchecked@V?$_Vector_val@U?$_Simple_types@U_stMonsterIndexInfo@@@std@@@std@@@std@@YAPBU_stMonsterIndexInfo@@V?$_Vector_const_iterator@V?$_Vector_val@U?$_Simple_types@U_stMonsterIndexInfo@@@std@@@std@@@0@@Z ENDP ; std::_Unchecked<std::_Vector_val<std::_Simple_types<_stMonsterIndexInfo> > >
_TEXT	ENDS
; Function compile flags: /Ogtp
; File c:\program files (x86)\microsoft visual studio 14.0\vc\include\xmemory0
;	COMDAT ??$construct@U_stMonsterIndexInfo@@ABU1@@?$allocator@U_stMonsterIndexInfo@@@std@@QAEXPAU_stMonsterIndexInfo@@ABU2@@Z
_TEXT	SEGMENT
__Ptr$ = 8						; size = 4
_<_Args_0>$ = 12					; size = 4
??$construct@U_stMonsterIndexInfo@@ABU1@@?$allocator@U_stMonsterIndexInfo@@@std@@QAEXPAU_stMonsterIndexInfo@@ABU2@@Z PROC ; std::allocator<_stMonsterIndexInfo>::construct<_stMonsterIndexInfo,_stMonsterIndexInfo const &>, COMDAT
; _this$ = ecx

; 654  : 		{	// construct _Objty(_Types...) at _Ptr

  00000	55		 push	 ebp
  00001	8b ec		 mov	 ebp, esp

; 655  : 		::new ((void *)_Ptr) _Objty(_STD forward<_Types>(_Args)...);

  00003	8b 55 08	 mov	 edx, DWORD PTR __Ptr$[ebp]
  00006	85 d2		 test	 edx, edx
  00008	74 0d		 je	 SHORT $LN3@construct
  0000a	8b 4d 0c	 mov	 ecx, DWORD PTR _<_Args_0>$[ebp]
  0000d	8b 01		 mov	 eax, DWORD PTR [ecx]
  0000f	89 02		 mov	 DWORD PTR [edx], eax
  00011	8b 41 04	 mov	 eax, DWORD PTR [ecx+4]
  00014	89 42 04	 mov	 DWORD PTR [edx+4], eax
$LN3@construct:

; 656  : 		}

  00017	5d		 pop	 ebp
  00018	c2 08 00	 ret	 8
??$construct@U_stMonsterIndexInfo@@ABU1@@?$allocator@U_stMonsterIndexInfo@@@std@@QAEXPAU_stMonsterIndexInfo@@ABU2@@Z ENDP ; std::allocator<_stMonsterIndexInfo>::construct<_stMonsterIndexInfo,_stMonsterIndexInfo const &>
_TEXT	ENDS
; Function compile flags: /Ogtp
; File c:\program files (x86)\microsoft visual studio 14.0\vc\include\xmemory0
;	COMDAT ??$construct@U_stMonsterIndexInfo@@AAU1@@?$allocator@U_stMonsterIndexInfo@@@std@@QAEXPAU_stMonsterIndexInfo@@AAU2@@Z
_TEXT	SEGMENT
__Ptr$ = 8						; size = 4
_<_Args_0>$ = 12					; size = 4
??$construct@U_stMonsterIndexInfo@@AAU1@@?$allocator@U_stMonsterIndexInfo@@@std@@QAEXPAU_stMonsterIndexInfo@@AAU2@@Z PROC ; std::allocator<_stMonsterIndexInfo>::construct<_stMonsterIndexInfo,_stMonsterIndexInfo &>, COMDAT
; _this$ = ecx

; 654  : 		{	// construct _Objty(_Types...) at _Ptr

  00000	55		 push	 ebp
  00001	8b ec		 mov	 ebp, esp

; 655  : 		::new ((void *)_Ptr) _Objty(_STD forward<_Types>(_Args)...);

  00003	8b 55 08	 mov	 edx, DWORD PTR __Ptr$[ebp]
  00006	85 d2		 test	 edx, edx
  00008	74 0d		 je	 SHORT $LN3@construct
  0000a	8b 4d 0c	 mov	 ecx, DWORD PTR _<_Args_0>$[ebp]
  0000d	8b 01		 mov	 eax, DWORD PTR [ecx]
  0000f	89 02		 mov	 DWORD PTR [edx], eax
  00011	8b 41 04	 mov	 eax, DWORD PTR [ecx+4]
  00014	89 42 04	 mov	 DWORD PTR [edx+4], eax
$LN3@construct:

; 656  : 		}

  00017	5d		 pop	 ebp
  00018	c2 08 00	 ret	 8
??$construct@U_stMonsterIndexInfo@@AAU1@@?$allocator@U_stMonsterIndexInfo@@@std@@QAEXPAU_stMonsterIndexInfo@@AAU2@@Z ENDP ; std::allocator<_stMonsterIndexInfo>::construct<_stMonsterIndexInfo,_stMonsterIndexInfo &>
_TEXT	ENDS
; Function compile flags: /Ogtp
; File c:\program files (x86)\microsoft visual studio 14.0\vc\include\xutility
;	COMDAT ??$_Rechecked@PAHPAH@std@@YAAAPAHAAPAHPAH@Z
_TEXT	SEGMENT
__Dest$ = 8						; size = 4
__Src$ = 12						; size = 4
??$_Rechecked@PAHPAH@std@@YAAAPAHAAPAHPAH@Z PROC	; std::_Rechecked<int *,int *>, COMDAT

; 446  : 	{	// reset checked from unchecked, generic

  00000	55		 push	 ebp
  00001	8b ec		 mov	 ebp, esp

; 447  : 	_Dest = _Src;

  00003	8b 45 08	 mov	 eax, DWORD PTR __Dest$[ebp]
  00006	8b 4d 0c	 mov	 ecx, DWORD PTR __Src$[ebp]
  00009	89 08		 mov	 DWORD PTR [eax], ecx

; 448  : 	return (_Dest);
; 449  : 	}

  0000b	5d		 pop	 ebp
  0000c	c3		 ret	 0
??$_Rechecked@PAHPAH@std@@YAAAPAHAAPAHPAH@Z ENDP	; std::_Rechecked<int *,int *>
_TEXT	ENDS
; Function compile flags: /Ogtp
; File c:\program files (x86)\microsoft visual studio 14.0\vc\include\xmemory
;	COMDAT ??$_Uninit_copy@PBHPAHU?$_Wrap_alloc@V?$allocator@H@std@@@std@@@std@@YAPAHPBH0PAHAAU?$_Wrap_alloc@V?$allocator@H@std@@@0@@Z
_TEXT	SEGMENT
__First$ = 8						; size = 4
__Last$ = 12						; size = 4
__Dest$ = 16						; size = 4
__Al$ = 20						; size = 4
??$_Uninit_copy@PBHPAHU?$_Wrap_alloc@V?$allocator@H@std@@@std@@@std@@YAPAHPBH0PAHAAU?$_Wrap_alloc@V?$allocator@H@std@@@0@@Z PROC ; std::_Uninit_copy<int const *,int *,std::_Wrap_alloc<std::allocator<int> > >, COMDAT

; 414  : 	{	// copy [_First, _Last) to raw _Dest, using _Al

  00000	55		 push	 ebp
  00001	8b ec		 mov	 ebp, esp

; 404  : 	size_t _Count = (size_t)(_Last - _First);

  00003	8b 4d 08	 mov	 ecx, DWORD PTR __First$[ebp]
  00006	8b 45 0c	 mov	 eax, DWORD PTR __Last$[ebp]
  00009	2b c1		 sub	 eax, ecx
  0000b	c1 f8 02	 sar	 eax, 2
  0000e	56		 push	 esi

; 405  : 	return ((_Ty2 *)_CSTD memmove(&*_Dest, &*_First,

  0000f	8d 34 85 00 00
	00 00		 lea	 esi, DWORD PTR [eax*4]
  00016	56		 push	 esi
  00017	51		 push	 ecx
  00018	ff 75 10	 push	 DWORD PTR __Dest$[ebp]
  0001b	e8 00 00 00 00	 call	 _memmove
  00020	83 c4 0c	 add	 esp, 12			; 0000000cH
  00023	03 c6		 add	 eax, esi
  00025	5e		 pop	 esi

; 415  : 	return (_Uninit_copy(_First, _Last, _Dest, _Al,
; 416  : 		_Ptr_cat(_First, _Dest)));
; 417  : 	}

  00026	5d		 pop	 ebp
  00027	c3		 ret	 0
??$_Uninit_copy@PBHPAHU?$_Wrap_alloc@V?$allocator@H@std@@@std@@@std@@YAPAHPBH0PAHAAU?$_Wrap_alloc@V?$allocator@H@std@@@0@@Z ENDP ; std::_Uninit_copy<int const *,int *,std::_Wrap_alloc<std::allocator<int> > >
_TEXT	ENDS
; Function compile flags: /Ogtp
; File c:\program files (x86)\microsoft visual studio 14.0\vc\include\xutility
;	COMDAT ??$_Unchecked@PAH@std@@YAPAHPAH@Z
_TEXT	SEGMENT
__Src$ = 8						; size = 4
??$_Unchecked@PAH@std@@YAPAHPAH@Z PROC			; std::_Unchecked<int *>, COMDAT

; 438  : 	{	// construct unchecked from checked, generic

  00000	55		 push	 ebp
  00001	8b ec		 mov	 ebp, esp

; 439  : 	return (_Src);

  00003	8b 45 08	 mov	 eax, DWORD PTR __Src$[ebp]

; 440  : 	}

  00006	5d		 pop	 ebp
  00007	c3		 ret	 0
??$_Unchecked@PAH@std@@YAPAHPAH@Z ENDP			; std::_Unchecked<int *>
_TEXT	ENDS
; Function compile flags: /Ogtp
; File c:\program files (x86)\microsoft visual studio 14.0\vc\include\vector
;	COMDAT ??$_Unchecked@V?$_Vector_val@U?$_Simple_types@H@std@@@std@@@std@@YAPBHV?$_Vector_const_iterator@V?$_Vector_val@U?$_Simple_types@H@std@@@std@@@0@@Z
_TEXT	SEGMENT
__Iter$ = 8						; size = 4
??$_Unchecked@V?$_Vector_val@U?$_Simple_types@H@std@@@std@@@std@@YAPBHV?$_Vector_const_iterator@V?$_Vector_val@U?$_Simple_types@H@std@@@std@@@0@@Z PROC ; std::_Unchecked<std::_Vector_val<std::_Simple_types<int> > >, COMDAT

; 265  : 	{	// convert to unchecked

  00000	55		 push	 ebp
  00001	8b ec		 mov	 ebp, esp

; 266  : 	return (_Iter._Unchecked());

  00003	8b 45 08	 mov	 eax, DWORD PTR __Iter$[ebp]

; 267  : 	}

  00006	5d		 pop	 ebp
  00007	c3		 ret	 0
??$_Unchecked@V?$_Vector_val@U?$_Simple_types@H@std@@@std@@@std@@YAPBHV?$_Vector_const_iterator@V?$_Vector_val@U?$_Simple_types@H@std@@@std@@@0@@Z ENDP ; std::_Unchecked<std::_Vector_val<std::_Simple_types<int> > >
_TEXT	ENDS
; Function compile flags: /Ogtp
; File c:\program files (x86)\microsoft visual studio 14.0\vc\include\xmemory0
;	COMDAT ??$construct@HABH@?$allocator@H@std@@QAEXPAHABH@Z
_TEXT	SEGMENT
__Ptr$ = 8						; size = 4
_<_Args_0>$ = 12					; size = 4
??$construct@HABH@?$allocator@H@std@@QAEXPAHABH@Z PROC	; std::allocator<int>::construct<int,int const &>, COMDAT
; _this$ = ecx

; 654  : 		{	// construct _Objty(_Types...) at _Ptr

  00000	55		 push	 ebp
  00001	8b ec		 mov	 ebp, esp

; 655  : 		::new ((void *)_Ptr) _Objty(_STD forward<_Types>(_Args)...);

  00003	8b 4d 08	 mov	 ecx, DWORD PTR __Ptr$[ebp]
  00006	85 c9		 test	 ecx, ecx
  00008	74 07		 je	 SHORT $LN3@construct
  0000a	8b 45 0c	 mov	 eax, DWORD PTR _<_Args_0>$[ebp]
  0000d	8b 00		 mov	 eax, DWORD PTR [eax]
  0000f	89 01		 mov	 DWORD PTR [ecx], eax
$LN3@construct:

; 656  : 		}

  00011	5d		 pop	 ebp
  00012	c2 08 00	 ret	 8
??$construct@HABH@?$allocator@H@std@@QAEXPAHABH@Z ENDP	; std::allocator<int>::construct<int,int const &>
_TEXT	ENDS
; Function compile flags: /Ogtp
; File c:\program files (x86)\microsoft visual studio 14.0\vc\include\xmemory0
;	COMDAT ??$construct@HAAH@?$allocator@H@std@@QAEXPAHAAH@Z
_TEXT	SEGMENT
__Ptr$ = 8						; size = 4
_<_Args_0>$ = 12					; size = 4
??$construct@HAAH@?$allocator@H@std@@QAEXPAHAAH@Z PROC	; std::allocator<int>::construct<int,int &>, COMDAT
; _this$ = ecx

; 654  : 		{	// construct _Objty(_Types...) at _Ptr

  00000	55		 push	 ebp
  00001	8b ec		 mov	 ebp, esp

; 655  : 		::new ((void *)_Ptr) _Objty(_STD forward<_Types>(_Args)...);

  00003	8b 4d 08	 mov	 ecx, DWORD PTR __Ptr$[ebp]
  00006	85 c9		 test	 ecx, ecx
  00008	74 07		 je	 SHORT $LN3@construct
  0000a	8b 45 0c	 mov	 eax, DWORD PTR _<_Args_0>$[ebp]
  0000d	8b 00		 mov	 eax, DWORD PTR [eax]
  0000f	89 01		 mov	 DWORD PTR [ecx], eax
$LN3@construct:

; 656  : 		}

  00011	5d		 pop	 ebp
  00012	c2 08 00	 ret	 8
??$construct@HAAH@?$allocator@H@std@@QAEXPAHAAH@Z ENDP	; std::allocator<int>::construct<int,int &>
_TEXT	ENDS
; Function compile flags: /Ogtp
; File c:\program files (x86)\microsoft visual studio 14.0\vc\include\xmemory
;	COMDAT ??$_Uninitialized_move@PAU_stMonsterIndexInfo@@PAU1@U?$_Wrap_alloc@V?$allocator@U_stMonsterIndexInfo@@@std@@@std@@@std@@YAPAU_stMonsterIndexInfo@@PAU1@00AAU?$_Wrap_alloc@V?$allocator@U_stMonsterIndexInfo@@@std@@@0@@Z
_TEXT	SEGMENT
__First$ = 8						; size = 4
__Last$ = 12						; size = 4
__Cat$1 = 16						; size = 1
__Dest$ = 16						; size = 4
__Al$ = 20						; size = 4
??$_Uninitialized_move@PAU_stMonsterIndexInfo@@PAU1@U?$_Wrap_alloc@V?$allocator@U_stMonsterIndexInfo@@@std@@@std@@@std@@YAPAU_stMonsterIndexInfo@@PAU1@00AAU?$_Wrap_alloc@V?$allocator@U_stMonsterIndexInfo@@@std@@@0@@Z PROC ; std::_Uninitialized_move<_stMonsterIndexInfo *,_stMonsterIndexInfo *,std::_Wrap_alloc<std::allocator<_stMonsterIndexInfo> > >, COMDAT

; 490  : 	{	// move [_First, _Last) to raw _Dest, using _Al

  00000	55		 push	 ebp
  00001	8b ec		 mov	 ebp, esp

; 481  : 	return (_Uninit_move(_First, _Last, _Dest, _Al,

  00003	ff 75 10	 push	 DWORD PTR __Cat$1[ebp]
  00006	6a 00		 push	 0
  00008	ff 75 14	 push	 DWORD PTR __Al$[ebp]
  0000b	ff 75 10	 push	 DWORD PTR __Dest$[ebp]
  0000e	ff 75 0c	 push	 DWORD PTR __Last$[ebp]
  00011	ff 75 08	 push	 DWORD PTR __First$[ebp]
  00014	e8 00 00 00 00	 call	 ??$_Uninit_move@PAU_stMonsterIndexInfo@@PAU1@V?$allocator@U_stMonsterIndexInfo@@@std@@U1@@std@@YAPAU_stMonsterIndexInfo@@PAU1@00AAU?$_Wrap_alloc@V?$allocator@U_stMonsterIndexInfo@@@std@@@0@0U_Nonscalar_ptr_iterator_tag@0@@Z ; std::_Uninit_move<_stMonsterIndexInfo *,_stMonsterIndexInfo *,std::allocator<_stMonsterIndexInfo>,_stMonsterIndexInfo>
  00019	83 c4 18	 add	 esp, 24			; 00000018H

; 491  : 	return (_Rechecked(_Dest,
; 492  : 		_Uninit_move(_Unchecked(_First), _Unchecked(_Last),
; 493  : 			_Unchecked(_Dest), _Al)));
; 494  : 	}

  0001c	5d		 pop	 ebp
  0001d	c3		 ret	 0
??$_Uninitialized_move@PAU_stMonsterIndexInfo@@PAU1@U?$_Wrap_alloc@V?$allocator@U_stMonsterIndexInfo@@@std@@@std@@@std@@YAPAU_stMonsterIndexInfo@@PAU1@00AAU?$_Wrap_alloc@V?$allocator@U_stMonsterIndexInfo@@@std@@@0@@Z ENDP ; std::_Uninitialized_move<_stMonsterIndexInfo *,_stMonsterIndexInfo *,std::_Wrap_alloc<std::allocator<_stMonsterIndexInfo> > >
_TEXT	ENDS
; Function compile flags: /Ogtp
; File c:\program files (x86)\microsoft visual studio 14.0\vc\include\xmemory
;	COMDAT ??$_Uninitialized_move@PAHPAHU?$_Wrap_alloc@V?$allocator@H@std@@@std@@@std@@YAPAHPAH00AAU?$_Wrap_alloc@V?$allocator@H@std@@@0@@Z
_TEXT	SEGMENT
__First$ = 8						; size = 4
__Last$ = 12						; size = 4
__Dest$ = 16						; size = 4
__Al$ = 20						; size = 4
??$_Uninitialized_move@PAHPAHU?$_Wrap_alloc@V?$allocator@H@std@@@std@@@std@@YAPAHPAH00AAU?$_Wrap_alloc@V?$allocator@H@std@@@0@@Z PROC ; std::_Uninitialized_move<int *,int *,std::_Wrap_alloc<std::allocator<int> > >, COMDAT

; 490  : 	{	// move [_First, _Last) to raw _Dest, using _Al

  00000	55		 push	 ebp
  00001	8b ec		 mov	 ebp, esp

; 470  : 	size_t _Count = (size_t)(_Last - _First);

  00003	8b 4d 08	 mov	 ecx, DWORD PTR __First$[ebp]
  00006	8b 45 0c	 mov	 eax, DWORD PTR __Last$[ebp]
  00009	2b c1		 sub	 eax, ecx
  0000b	c1 f8 02	 sar	 eax, 2
  0000e	56		 push	 esi

; 471  : 	return ((_Ty2 *)_CSTD memmove(&*_Dest, &*_First,

  0000f	8d 34 85 00 00
	00 00		 lea	 esi, DWORD PTR [eax*4]
  00016	56		 push	 esi
  00017	51		 push	 ecx
  00018	ff 75 10	 push	 DWORD PTR __Dest$[ebp]
  0001b	e8 00 00 00 00	 call	 _memmove
  00020	83 c4 0c	 add	 esp, 12			; 0000000cH
  00023	03 c6		 add	 eax, esi
  00025	5e		 pop	 esi

; 491  : 	return (_Rechecked(_Dest,
; 492  : 		_Uninit_move(_Unchecked(_First), _Unchecked(_Last),
; 493  : 			_Unchecked(_Dest), _Al)));
; 494  : 	}

  00026	5d		 pop	 ebp
  00027	c3		 ret	 0
??$_Uninitialized_move@PAHPAHU?$_Wrap_alloc@V?$allocator@H@std@@@std@@@std@@YAPAHPAH00AAU?$_Wrap_alloc@V?$allocator@H@std@@@0@@Z ENDP ; std::_Uninitialized_move<int *,int *,std::_Wrap_alloc<std::allocator<int> > >
_TEXT	ENDS
; Function compile flags: /Ogtp
; File c:\program files (x86)\microsoft visual studio 14.0\vc\include\xmemory0
;	COMDAT ??$_Destroy_range@U?$_Wrap_alloc@V?$allocator@U_stMonsterIndexInfo@@@std@@@std@@@std@@YAXPAU_stMonsterIndexInfo@@0AAU?$_Wrap_alloc@V?$allocator@U_stMonsterIndexInfo@@@std@@@0@U_Nonscalar_ptr_iterator_tag@0@@Z
_TEXT	SEGMENT
__First$ = 8						; size = 4
__Last$ = 12						; size = 4
__Al$ = 16						; size = 4
___formal$ = 20						; size = 1
??$_Destroy_range@U?$_Wrap_alloc@V?$allocator@U_stMonsterIndexInfo@@@std@@@std@@@std@@YAXPAU_stMonsterIndexInfo@@0AAU?$_Wrap_alloc@V?$allocator@U_stMonsterIndexInfo@@@std@@@0@U_Nonscalar_ptr_iterator_tag@0@@Z PROC ; std::_Destroy_range<std::_Wrap_alloc<std::allocator<_stMonsterIndexInfo> > >, COMDAT

; 171  : 	for (; _First != _Last; ++_First)
; 172  : 		_Al.destroy(_STD addressof(*_First));
; 173  : 	}

  00000	c3		 ret	 0
??$_Destroy_range@U?$_Wrap_alloc@V?$allocator@U_stMonsterIndexInfo@@@std@@@std@@@std@@YAXPAU_stMonsterIndexInfo@@0AAU?$_Wrap_alloc@V?$allocator@U_stMonsterIndexInfo@@@std@@@0@U_Nonscalar_ptr_iterator_tag@0@@Z ENDP ; std::_Destroy_range<std::_Wrap_alloc<std::allocator<_stMonsterIndexInfo> > >
_TEXT	ENDS
; Function compile flags: /Ogtp
; File c:\program files (x86)\microsoft visual studio 14.0\vc\include\xutility
;	COMDAT ??$_Ptr_cat@U_stMonsterIndexInfo@@U1@@std@@YA?AU_Nonscalar_ptr_iterator_tag@0@PAU_stMonsterIndexInfo@@0@Z
_TEXT	SEGMENT
__Cat$ = -1						; size = 1
___formal$ = 8						; size = 4
___formal$ = 12						; size = 4
??$_Ptr_cat@U_stMonsterIndexInfo@@U1@@std@@YA?AU_Nonscalar_ptr_iterator_tag@0@PAU_stMonsterIndexInfo@@0@Z PROC ; std::_Ptr_cat<_stMonsterIndexInfo,_stMonsterIndexInfo>, COMDAT

; 640  : 	{	// return pointer category from pointers

  00000	55		 push	 ebp
  00001	8b ec		 mov	 ebp, esp
  00003	51		 push	 ecx

; 641  : 	typename _Ptr_cat_helper<_Elem1, _Elem2>::type _Cat;
; 642  : 	return (_Cat);

  00004	8a 45 ff	 mov	 al, BYTE PTR __Cat$[ebp]

; 643  : 	}

  00007	8b e5		 mov	 esp, ebp
  00009	5d		 pop	 ebp
  0000a	c3		 ret	 0
??$_Ptr_cat@U_stMonsterIndexInfo@@U1@@std@@YA?AU_Nonscalar_ptr_iterator_tag@0@PAU_stMonsterIndexInfo@@0@Z ENDP ; std::_Ptr_cat<_stMonsterIndexInfo,_stMonsterIndexInfo>
_TEXT	ENDS
; Function compile flags: /Ogtp
; File c:\program files (x86)\microsoft visual studio 14.0\vc\include\xutility
;	COMDAT ??$_Ptr_cat@U_stMonsterIndexInfo@@U1@@std@@YA?AU_Nonscalar_ptr_iterator_tag@0@PBU_stMonsterIndexInfo@@PAU2@@Z
_TEXT	SEGMENT
__Cat$ = -1						; size = 1
___formal$ = 8						; size = 4
___formal$ = 12						; size = 4
??$_Ptr_cat@U_stMonsterIndexInfo@@U1@@std@@YA?AU_Nonscalar_ptr_iterator_tag@0@PBU_stMonsterIndexInfo@@PAU2@@Z PROC ; std::_Ptr_cat<_stMonsterIndexInfo,_stMonsterIndexInfo>, COMDAT

; 649  : 	{	// return pointer category from pointers

  00000	55		 push	 ebp
  00001	8b ec		 mov	 ebp, esp
  00003	51		 push	 ecx

; 650  : 	typename _Ptr_cat_helper<_Elem1, _Elem2>::type _Cat;
; 651  : 	return (_Cat);

  00004	8a 45 ff	 mov	 al, BYTE PTR __Cat$[ebp]

; 652  : 	}

  00007	8b e5		 mov	 esp, ebp
  00009	5d		 pop	 ebp
  0000a	c3		 ret	 0
??$_Ptr_cat@U_stMonsterIndexInfo@@U1@@std@@YA?AU_Nonscalar_ptr_iterator_tag@0@PBU_stMonsterIndexInfo@@PAU2@@Z ENDP ; std::_Ptr_cat<_stMonsterIndexInfo,_stMonsterIndexInfo>
_TEXT	ENDS
; Function compile flags: /Ogtp
; File c:\program files (x86)\microsoft visual studio 14.0\vc\include\type_traits
;	COMDAT ??$forward@ABV?$allocator@U_stMonsterIndexInfo@@@std@@@std@@YAABV?$allocator@U_stMonsterIndexInfo@@@0@ABV10@@Z
_TEXT	SEGMENT
__Arg$ = 8						; size = 4
??$forward@ABV?$allocator@U_stMonsterIndexInfo@@@std@@@std@@YAABV?$allocator@U_stMonsterIndexInfo@@@0@ABV10@@Z PROC ; std::forward<std::allocator<_stMonsterIndexInfo> const &>, COMDAT

; 1233 : 	{	// forward an lvalue as either an lvalue or an rvalue

  00000	55		 push	 ebp
  00001	8b ec		 mov	 ebp, esp

; 1234 : 	return (static_cast<_Ty&&>(_Arg));

  00003	8b 45 08	 mov	 eax, DWORD PTR __Arg$[ebp]

; 1235 : 	}

  00006	5d		 pop	 ebp
  00007	c3		 ret	 0
??$forward@ABV?$allocator@U_stMonsterIndexInfo@@@std@@@std@@YAABV?$allocator@U_stMonsterIndexInfo@@@0@ABV10@@Z ENDP ; std::forward<std::allocator<_stMonsterIndexInfo> const &>
_TEXT	ENDS
; Function compile flags: /Ogtp
; File c:\program files (x86)\microsoft visual studio 14.0\vc\include\type_traits
;	COMDAT ??$forward@V?$allocator@U_stMonsterIndexInfo@@@std@@@std@@YA$$QAV?$allocator@U_stMonsterIndexInfo@@@0@AAV10@@Z
_TEXT	SEGMENT
__Arg$ = 8						; size = 4
??$forward@V?$allocator@U_stMonsterIndexInfo@@@std@@@std@@YA$$QAV?$allocator@U_stMonsterIndexInfo@@@0@AAV10@@Z PROC ; std::forward<std::allocator<_stMonsterIndexInfo> >, COMDAT

; 1233 : 	{	// forward an lvalue as either an lvalue or an rvalue

  00000	55		 push	 ebp
  00001	8b ec		 mov	 ebp, esp

; 1234 : 	return (static_cast<_Ty&&>(_Arg));

  00003	8b 45 08	 mov	 eax, DWORD PTR __Arg$[ebp]

; 1235 : 	}

  00006	5d		 pop	 ebp
  00007	c3		 ret	 0
??$forward@V?$allocator@U_stMonsterIndexInfo@@@std@@@std@@YA$$QAV?$allocator@U_stMonsterIndexInfo@@@0@AAV10@@Z ENDP ; std::forward<std::allocator<_stMonsterIndexInfo> >
_TEXT	ENDS
; Function compile flags: /Ogtp
; File c:\program files (x86)\microsoft visual studio 14.0\vc\include\xmemory0
;	COMDAT ??$_Destroy_range@U?$_Wrap_alloc@V?$allocator@H@std@@@std@@@std@@YAXPAH0AAU?$_Wrap_alloc@V?$allocator@H@std@@@0@U_Scalar_ptr_iterator_tag@0@@Z
_TEXT	SEGMENT
__First$ = 8						; size = 4
__Last$ = 12						; size = 4
__Al$ = 16						; size = 4
___formal$ = 20						; size = 1
??$_Destroy_range@U?$_Wrap_alloc@V?$allocator@H@std@@@std@@@std@@YAXPAH0AAU?$_Wrap_alloc@V?$allocator@H@std@@@0@U_Scalar_ptr_iterator_tag@0@@Z PROC ; std::_Destroy_range<std::_Wrap_alloc<std::allocator<int> > >, COMDAT

; 180  : 	}

  00000	c3		 ret	 0
??$_Destroy_range@U?$_Wrap_alloc@V?$allocator@H@std@@@std@@@std@@YAXPAH0AAU?$_Wrap_alloc@V?$allocator@H@std@@@0@U_Scalar_ptr_iterator_tag@0@@Z ENDP ; std::_Destroy_range<std::_Wrap_alloc<std::allocator<int> > >
_TEXT	ENDS
; Function compile flags: /Ogtp
; File c:\program files (x86)\microsoft visual studio 14.0\vc\include\type_traits
;	COMDAT ??$forward@ABV?$allocator@H@std@@@std@@YAABV?$allocator@H@0@ABV10@@Z
_TEXT	SEGMENT
__Arg$ = 8						; size = 4
??$forward@ABV?$allocator@H@std@@@std@@YAABV?$allocator@H@0@ABV10@@Z PROC ; std::forward<std::allocator<int> const &>, COMDAT

; 1233 : 	{	// forward an lvalue as either an lvalue or an rvalue

  00000	55		 push	 ebp
  00001	8b ec		 mov	 ebp, esp

; 1234 : 	return (static_cast<_Ty&&>(_Arg));

  00003	8b 45 08	 mov	 eax, DWORD PTR __Arg$[ebp]

; 1235 : 	}

  00006	5d		 pop	 ebp
  00007	c3		 ret	 0
??$forward@ABV?$allocator@H@std@@@std@@YAABV?$allocator@H@0@ABV10@@Z ENDP ; std::forward<std::allocator<int> const &>
_TEXT	ENDS
; Function compile flags: /Ogtp
; File c:\program files (x86)\microsoft visual studio 14.0\vc\include\type_traits
;	COMDAT ??$forward@V?$allocator@H@std@@@std@@YA$$QAV?$allocator@H@0@AAV10@@Z
_TEXT	SEGMENT
__Arg$ = 8						; size = 4
??$forward@V?$allocator@H@std@@@std@@YA$$QAV?$allocator@H@0@AAV10@@Z PROC ; std::forward<std::allocator<int> >, COMDAT

; 1233 : 	{	// forward an lvalue as either an lvalue or an rvalue

  00000	55		 push	 ebp
  00001	8b ec		 mov	 ebp, esp

; 1234 : 	return (static_cast<_Ty&&>(_Arg));

  00003	8b 45 08	 mov	 eax, DWORD PTR __Arg$[ebp]

; 1235 : 	}

  00006	5d		 pop	 ebp
  00007	c3		 ret	 0
??$forward@V?$allocator@H@std@@@std@@YA$$QAV?$allocator@H@0@AAV10@@Z ENDP ; std::forward<std::allocator<int> >
_TEXT	ENDS
; Function compile flags: /Ogtp
; File c:\program files (x86)\microsoft visual studio 14.0\vc\include\xstddef
;	COMDAT ??$_Addressof@U_stMonsterIndexInfo@@@std@@YAPAU_stMonsterIndexInfo@@AAU1@U?$integral_constant@_N$0A@@0@@Z
_TEXT	SEGMENT
__Val$ = 8						; size = 4
___formal$ = 12						; size = 1
??$_Addressof@U_stMonsterIndexInfo@@@std@@YAPAU_stMonsterIndexInfo@@AAU1@U?$integral_constant@_N$0A@@0@@Z PROC ; std::_Addressof<_stMonsterIndexInfo>, COMDAT

; 688  : 	{	// return address of object _Val

  00000	55		 push	 ebp
  00001	8b ec		 mov	 ebp, esp

; 689  : 	return (reinterpret_cast<_Ty *>(

  00003	8b 45 08	 mov	 eax, DWORD PTR __Val$[ebp]

; 690  : 		&const_cast<char&>(
; 691  : 		reinterpret_cast<const volatile char&>(_Val))));
; 692  : 	}

  00006	5d		 pop	 ebp
  00007	c3		 ret	 0
??$_Addressof@U_stMonsterIndexInfo@@@std@@YAPAU_stMonsterIndexInfo@@AAU1@U?$integral_constant@_N$0A@@0@@Z ENDP ; std::_Addressof<_stMonsterIndexInfo>
_TEXT	ENDS
; Function compile flags: /Ogtp
; File c:\program files (x86)\microsoft visual studio 14.0\vc\include\xmemory
;	COMDAT ??$_Uninitialized_copy@V?$_Vector_const_iterator@V?$_Vector_val@U?$_Simple_types@U_stMonsterIndexInfo@@@std@@@std@@@std@@PAU_stMonsterIndexInfo@@U?$_Wrap_alloc@V?$allocator@U_stMonsterIndexInfo@@@std@@@2@@std@@YAPAU_stMonsterIndexInfo@@V?$_Vector_const_iterator@V?$_Vector_val@U?$_Simple_types@U_stMonsterIndexInfo@@@std@@@std@@@0@0PAU1@AAU?$_Wrap_alloc@V?$allocator@U_stMonsterIndexInfo@@@std@@@0@@Z
_TEXT	SEGMENT
__First$ = 8						; size = 4
__Last$ = 12						; size = 4
__Cat$1 = 16						; size = 1
__Dest$ = 16						; size = 4
__Al$ = 20						; size = 4
??$_Uninitialized_copy@V?$_Vector_const_iterator@V?$_Vector_val@U?$_Simple_types@U_stMonsterIndexInfo@@@std@@@std@@@std@@PAU_stMonsterIndexInfo@@U?$_Wrap_alloc@V?$allocator@U_stMonsterIndexInfo@@@std@@@2@@std@@YAPAU_stMonsterIndexInfo@@V?$_Vector_const_iterator@V?$_Vector_val@U?$_Simple_types@U_stMonsterIndexInfo@@@std@@@std@@@0@0PAU1@AAU?$_Wrap_alloc@V?$allocator@U_stMonsterIndexInfo@@@std@@@0@@Z PROC ; std::_Uninitialized_copy<std::_Vector_const_iterator<std::_Vector_val<std::_Simple_types<_stMonsterIndexInfo> > >,_stMonsterIndexInfo *,std::_Wrap_alloc<std::allocator<_stMonsterIndexInfo> > >, COMDAT

; 424  : 	{	// copy [_First, _Last) to raw _Dest, using _Al

  00000	55		 push	 ebp
  00001	8b ec		 mov	 ebp, esp

; 415  : 	return (_Uninit_copy(_First, _Last, _Dest, _Al,

  00003	ff 75 10	 push	 DWORD PTR __Cat$1[ebp]
  00006	ff 75 14	 push	 DWORD PTR __Al$[ebp]
  00009	ff 75 10	 push	 DWORD PTR __Dest$[ebp]
  0000c	ff 75 0c	 push	 DWORD PTR __Last$[ebp]
  0000f	ff 75 08	 push	 DWORD PTR __First$[ebp]
  00012	e8 00 00 00 00	 call	 ??$_Uninit_copy@PBU_stMonsterIndexInfo@@PAU1@V?$allocator@U_stMonsterIndexInfo@@@std@@@std@@YAPAU_stMonsterIndexInfo@@PBU1@0PAU1@AAU?$_Wrap_alloc@V?$allocator@U_stMonsterIndexInfo@@@std@@@0@U_Nonscalar_ptr_iterator_tag@0@@Z ; std::_Uninit_copy<_stMonsterIndexInfo const *,_stMonsterIndexInfo *,std::allocator<_stMonsterIndexInfo> >
  00017	83 c4 14	 add	 esp, 20			; 00000014H

; 425  : 	return (_Rechecked(_Dest,
; 426  : 		_Uninit_copy(_Unchecked(_First), _Unchecked(_Last),
; 427  : 			_Unchecked(_Dest), _Al)));
; 428  : 	}

  0001a	5d		 pop	 ebp
  0001b	c3		 ret	 0
??$_Uninitialized_copy@V?$_Vector_const_iterator@V?$_Vector_val@U?$_Simple_types@U_stMonsterIndexInfo@@@std@@@std@@@std@@PAU_stMonsterIndexInfo@@U?$_Wrap_alloc@V?$allocator@U_stMonsterIndexInfo@@@std@@@2@@std@@YAPAU_stMonsterIndexInfo@@V?$_Vector_const_iterator@V?$_Vector_val@U?$_Simple_types@U_stMonsterIndexInfo@@@std@@@std@@@0@0PAU1@AAU?$_Wrap_alloc@V?$allocator@U_stMonsterIndexInfo@@@std@@@0@@Z ENDP ; std::_Uninitialized_copy<std::_Vector_const_iterator<std::_Vector_val<std::_Simple_types<_stMonsterIndexInfo> > >,_stMonsterIndexInfo *,std::_Wrap_alloc<std::allocator<_stMonsterIndexInfo> > >
_TEXT	ENDS
; Function compile flags: /Ogtp
; File c:\program files (x86)\microsoft visual studio 14.0\vc\include\xmemory0
;	COMDAT ??$construct@U_stMonsterIndexInfo@@ABU1@@?$allocator_traits@V?$allocator@U_stMonsterIndexInfo@@@std@@@std@@SAXAAV?$allocator@U_stMonsterIndexInfo@@@1@PAU_stMonsterIndexInfo@@ABU3@@Z
_TEXT	SEGMENT
__Al$ = 8						; size = 4
__Ptr$ = 12						; size = 4
_<_Args_0>$ = 16					; size = 4
??$construct@U_stMonsterIndexInfo@@ABU1@@?$allocator_traits@V?$allocator@U_stMonsterIndexInfo@@@std@@@std@@SAXAAV?$allocator@U_stMonsterIndexInfo@@@1@PAU_stMonsterIndexInfo@@ABU3@@Z PROC ; std::allocator_traits<std::allocator<_stMonsterIndexInfo> >::construct<_stMonsterIndexInfo,_stMonsterIndexInfo const &>, COMDAT

; 772  : 		{	// construct _Objty(_Types...) at _Ptr

  00000	55		 push	 ebp
  00001	8b ec		 mov	 ebp, esp

; 655  : 		::new ((void *)_Ptr) _Objty(_STD forward<_Types>(_Args)...);

  00003	8b 55 0c	 mov	 edx, DWORD PTR __Ptr$[ebp]
  00006	85 d2		 test	 edx, edx
  00008	74 0d		 je	 SHORT $LN8@construct
  0000a	8b 4d 10	 mov	 ecx, DWORD PTR _<_Args_0>$[ebp]
  0000d	8b 01		 mov	 eax, DWORD PTR [ecx]
  0000f	89 02		 mov	 DWORD PTR [edx], eax
  00011	8b 41 04	 mov	 eax, DWORD PTR [ecx+4]
  00014	89 42 04	 mov	 DWORD PTR [edx+4], eax
$LN8@construct:

; 773  : 		_Al.construct(_Ptr, _STD forward<_Types>(_Args)...);
; 774  : 		}

  00017	5d		 pop	 ebp
  00018	c3		 ret	 0
??$construct@U_stMonsterIndexInfo@@ABU1@@?$allocator_traits@V?$allocator@U_stMonsterIndexInfo@@@std@@@std@@SAXAAV?$allocator@U_stMonsterIndexInfo@@@1@PAU_stMonsterIndexInfo@@ABU3@@Z ENDP ; std::allocator_traits<std::allocator<_stMonsterIndexInfo> >::construct<_stMonsterIndexInfo,_stMonsterIndexInfo const &>
_TEXT	ENDS
; Function compile flags: /Ogtp
; File c:\program files (x86)\microsoft visual studio 14.0\vc\include\type_traits
;	COMDAT ??$forward@ABU_stMonsterIndexInfo@@@std@@YAABU_stMonsterIndexInfo@@ABU1@@Z
_TEXT	SEGMENT
__Arg$ = 8						; size = 4
??$forward@ABU_stMonsterIndexInfo@@@std@@YAABU_stMonsterIndexInfo@@ABU1@@Z PROC ; std::forward<_stMonsterIndexInfo const &>, COMDAT

; 1233 : 	{	// forward an lvalue as either an lvalue or an rvalue

  00000	55		 push	 ebp
  00001	8b ec		 mov	 ebp, esp

; 1234 : 	return (static_cast<_Ty&&>(_Arg));

  00003	8b 45 08	 mov	 eax, DWORD PTR __Arg$[ebp]

; 1235 : 	}

  00006	5d		 pop	 ebp
  00007	c3		 ret	 0
??$forward@ABU_stMonsterIndexInfo@@@std@@YAABU_stMonsterIndexInfo@@ABU1@@Z ENDP ; std::forward<_stMonsterIndexInfo const &>
_TEXT	ENDS
; Function compile flags: /Ogtp
; File c:\program files (x86)\microsoft visual studio 14.0\vc\include\xmemory0
;	COMDAT ??$construct@U_stMonsterIndexInfo@@AAU1@@?$allocator_traits@V?$allocator@U_stMonsterIndexInfo@@@std@@@std@@SAXAAV?$allocator@U_stMonsterIndexInfo@@@1@PAU_stMonsterIndexInfo@@AAU3@@Z
_TEXT	SEGMENT
__Al$ = 8						; size = 4
__Ptr$ = 12						; size = 4
_<_Args_0>$ = 16					; size = 4
??$construct@U_stMonsterIndexInfo@@AAU1@@?$allocator_traits@V?$allocator@U_stMonsterIndexInfo@@@std@@@std@@SAXAAV?$allocator@U_stMonsterIndexInfo@@@1@PAU_stMonsterIndexInfo@@AAU3@@Z PROC ; std::allocator_traits<std::allocator<_stMonsterIndexInfo> >::construct<_stMonsterIndexInfo,_stMonsterIndexInfo &>, COMDAT

; 772  : 		{	// construct _Objty(_Types...) at _Ptr

  00000	55		 push	 ebp
  00001	8b ec		 mov	 ebp, esp

; 655  : 		::new ((void *)_Ptr) _Objty(_STD forward<_Types>(_Args)...);

  00003	8b 55 0c	 mov	 edx, DWORD PTR __Ptr$[ebp]
  00006	85 d2		 test	 edx, edx
  00008	74 0d		 je	 SHORT $LN8@construct
  0000a	8b 4d 10	 mov	 ecx, DWORD PTR _<_Args_0>$[ebp]
  0000d	8b 01		 mov	 eax, DWORD PTR [ecx]
  0000f	89 02		 mov	 DWORD PTR [edx], eax
  00011	8b 41 04	 mov	 eax, DWORD PTR [ecx+4]
  00014	89 42 04	 mov	 DWORD PTR [edx+4], eax
$LN8@construct:

; 773  : 		_Al.construct(_Ptr, _STD forward<_Types>(_Args)...);
; 774  : 		}

  00017	5d		 pop	 ebp
  00018	c3		 ret	 0
??$construct@U_stMonsterIndexInfo@@AAU1@@?$allocator_traits@V?$allocator@U_stMonsterIndexInfo@@@std@@@std@@SAXAAV?$allocator@U_stMonsterIndexInfo@@@1@PAU_stMonsterIndexInfo@@AAU3@@Z ENDP ; std::allocator_traits<std::allocator<_stMonsterIndexInfo> >::construct<_stMonsterIndexInfo,_stMonsterIndexInfo &>
_TEXT	ENDS
; Function compile flags: /Ogtp
; File c:\program files (x86)\microsoft visual studio 14.0\vc\include\type_traits
;	COMDAT ??$forward@AAU_stMonsterIndexInfo@@@std@@YAAAU_stMonsterIndexInfo@@AAU1@@Z
_TEXT	SEGMENT
__Arg$ = 8						; size = 4
??$forward@AAU_stMonsterIndexInfo@@@std@@YAAAU_stMonsterIndexInfo@@AAU1@@Z PROC ; std::forward<_stMonsterIndexInfo &>, COMDAT

; 1233 : 	{	// forward an lvalue as either an lvalue or an rvalue

  00000	55		 push	 ebp
  00001	8b ec		 mov	 ebp, esp

; 1234 : 	return (static_cast<_Ty&&>(_Arg));

  00003	8b 45 08	 mov	 eax, DWORD PTR __Arg$[ebp]

; 1235 : 	}

  00006	5d		 pop	 ebp
  00007	c3		 ret	 0
??$forward@AAU_stMonsterIndexInfo@@@std@@YAAAU_stMonsterIndexInfo@@AAU1@@Z ENDP ; std::forward<_stMonsterIndexInfo &>
_TEXT	ENDS
; Function compile flags: /Ogtp
; File c:\program files (x86)\microsoft visual studio 14.0\vc\include\xstddef
;	COMDAT ??$_Addressof@$$CBU_stMonsterIndexInfo@@@std@@YAPBU_stMonsterIndexInfo@@ABU1@U?$integral_constant@_N$0A@@0@@Z
_TEXT	SEGMENT
__Val$ = 8						; size = 4
___formal$ = 12						; size = 1
??$_Addressof@$$CBU_stMonsterIndexInfo@@@std@@YAPBU_stMonsterIndexInfo@@ABU1@U?$integral_constant@_N$0A@@0@@Z PROC ; std::_Addressof<_stMonsterIndexInfo const >, COMDAT

; 688  : 	{	// return address of object _Val

  00000	55		 push	 ebp
  00001	8b ec		 mov	 ebp, esp

; 689  : 	return (reinterpret_cast<_Ty *>(

  00003	8b 45 08	 mov	 eax, DWORD PTR __Val$[ebp]

; 690  : 		&const_cast<char&>(
; 691  : 		reinterpret_cast<const volatile char&>(_Val))));
; 692  : 	}

  00006	5d		 pop	 ebp
  00007	c3		 ret	 0
??$_Addressof@$$CBU_stMonsterIndexInfo@@@std@@YAPBU_stMonsterIndexInfo@@ABU1@U?$integral_constant@_N$0A@@0@@Z ENDP ; std::_Addressof<_stMonsterIndexInfo const >
_TEXT	ENDS
; Function compile flags: /Ogtp
; File c:\program files (x86)\microsoft visual studio 14.0\vc\include\xmemory
;	COMDAT ??$_Uninitialized_copy@V?$_Vector_const_iterator@V?$_Vector_val@U?$_Simple_types@H@std@@@std@@@std@@PAHU?$_Wrap_alloc@V?$allocator@H@std@@@2@@std@@YAPAHV?$_Vector_const_iterator@V?$_Vector_val@U?$_Simple_types@H@std@@@std@@@0@0PAHAAU?$_Wrap_alloc@V?$allocator@H@std@@@0@@Z
_TEXT	SEGMENT
__First$ = 8						; size = 4
__Last$ = 12						; size = 4
__Dest$ = 16						; size = 4
__Al$ = 20						; size = 4
??$_Uninitialized_copy@V?$_Vector_const_iterator@V?$_Vector_val@U?$_Simple_types@H@std@@@std@@@std@@PAHU?$_Wrap_alloc@V?$allocator@H@std@@@2@@std@@YAPAHV?$_Vector_const_iterator@V?$_Vector_val@U?$_Simple_types@H@std@@@std@@@0@0PAHAAU?$_Wrap_alloc@V?$allocator@H@std@@@0@@Z PROC ; std::_Uninitialized_copy<std::_Vector_const_iterator<std::_Vector_val<std::_Simple_types<int> > >,int *,std::_Wrap_alloc<std::allocator<int> > >, COMDAT

; 424  : 	{	// copy [_First, _Last) to raw _Dest, using _Al

  00000	55		 push	 ebp
  00001	8b ec		 mov	 ebp, esp

; 404  : 	size_t _Count = (size_t)(_Last - _First);

  00003	8b 4d 0c	 mov	 ecx, DWORD PTR __Last$[ebp]
  00006	8b 45 08	 mov	 eax, DWORD PTR __First$[ebp]
  00009	2b c8		 sub	 ecx, eax
  0000b	c1 f9 02	 sar	 ecx, 2
  0000e	56		 push	 esi

; 405  : 	return ((_Ty2 *)_CSTD memmove(&*_Dest, &*_First,

  0000f	8d 34 8d 00 00
	00 00		 lea	 esi, DWORD PTR [ecx*4]
  00016	56		 push	 esi
  00017	50		 push	 eax
  00018	ff 75 10	 push	 DWORD PTR __Dest$[ebp]
  0001b	e8 00 00 00 00	 call	 _memmove
  00020	83 c4 0c	 add	 esp, 12			; 0000000cH
  00023	03 c6		 add	 eax, esi
  00025	5e		 pop	 esi

; 425  : 	return (_Rechecked(_Dest,
; 426  : 		_Uninit_copy(_Unchecked(_First), _Unchecked(_Last),
; 427  : 			_Unchecked(_Dest), _Al)));
; 428  : 	}

  00026	5d		 pop	 ebp
  00027	c3		 ret	 0
??$_Uninitialized_copy@V?$_Vector_const_iterator@V?$_Vector_val@U?$_Simple_types@H@std@@@std@@@std@@PAHU?$_Wrap_alloc@V?$allocator@H@std@@@2@@std@@YAPAHV?$_Vector_const_iterator@V?$_Vector_val@U?$_Simple_types@H@std@@@std@@@0@0PAHAAU?$_Wrap_alloc@V?$allocator@H@std@@@0@@Z ENDP ; std::_Uninitialized_copy<std::_Vector_const_iterator<std::_Vector_val<std::_Simple_types<int> > >,int *,std::_Wrap_alloc<std::allocator<int> > >
_TEXT	ENDS
; Function compile flags: /Ogtp
; File c:\program files (x86)\microsoft visual studio 14.0\vc\include\xmemory0
;	COMDAT ??$construct@HABH@?$allocator_traits@V?$allocator@H@std@@@std@@SAXAAV?$allocator@H@1@PAHABH@Z
_TEXT	SEGMENT
__Al$ = 8						; size = 4
__Ptr$ = 12						; size = 4
_<_Args_0>$ = 16					; size = 4
??$construct@HABH@?$allocator_traits@V?$allocator@H@std@@@std@@SAXAAV?$allocator@H@1@PAHABH@Z PROC ; std::allocator_traits<std::allocator<int> >::construct<int,int const &>, COMDAT

; 772  : 		{	// construct _Objty(_Types...) at _Ptr

  00000	55		 push	 ebp
  00001	8b ec		 mov	 ebp, esp

; 655  : 		::new ((void *)_Ptr) _Objty(_STD forward<_Types>(_Args)...);

  00003	8b 4d 0c	 mov	 ecx, DWORD PTR __Ptr$[ebp]
  00006	85 c9		 test	 ecx, ecx
  00008	74 07		 je	 SHORT $LN8@construct
  0000a	8b 45 10	 mov	 eax, DWORD PTR _<_Args_0>$[ebp]
  0000d	8b 00		 mov	 eax, DWORD PTR [eax]
  0000f	89 01		 mov	 DWORD PTR [ecx], eax
$LN8@construct:

; 773  : 		_Al.construct(_Ptr, _STD forward<_Types>(_Args)...);
; 774  : 		}

  00011	5d		 pop	 ebp
  00012	c3		 ret	 0
??$construct@HABH@?$allocator_traits@V?$allocator@H@std@@@std@@SAXAAV?$allocator@H@1@PAHABH@Z ENDP ; std::allocator_traits<std::allocator<int> >::construct<int,int const &>
_TEXT	ENDS
; Function compile flags: /Ogtp
; File c:\program files (x86)\microsoft visual studio 14.0\vc\include\type_traits
;	COMDAT ??$forward@ABH@std@@YAABHABH@Z
_TEXT	SEGMENT
__Arg$ = 8						; size = 4
??$forward@ABH@std@@YAABHABH@Z PROC			; std::forward<int const &>, COMDAT

; 1233 : 	{	// forward an lvalue as either an lvalue or an rvalue

  00000	55		 push	 ebp
  00001	8b ec		 mov	 ebp, esp

; 1234 : 	return (static_cast<_Ty&&>(_Arg));

  00003	8b 45 08	 mov	 eax, DWORD PTR __Arg$[ebp]

; 1235 : 	}

  00006	5d		 pop	 ebp
  00007	c3		 ret	 0
??$forward@ABH@std@@YAABHABH@Z ENDP			; std::forward<int const &>
_TEXT	ENDS
; Function compile flags: /Ogtp
; File c:\program files (x86)\microsoft visual studio 14.0\vc\include\xmemory0
;	COMDAT ??$construct@HAAH@?$allocator_traits@V?$allocator@H@std@@@std@@SAXAAV?$allocator@H@1@PAHAAH@Z
_TEXT	SEGMENT
__Al$ = 8						; size = 4
__Ptr$ = 12						; size = 4
_<_Args_0>$ = 16					; size = 4
??$construct@HAAH@?$allocator_traits@V?$allocator@H@std@@@std@@SAXAAV?$allocator@H@1@PAHAAH@Z PROC ; std::allocator_traits<std::allocator<int> >::construct<int,int &>, COMDAT

; 772  : 		{	// construct _Objty(_Types...) at _Ptr

  00000	55		 push	 ebp
  00001	8b ec		 mov	 ebp, esp

; 655  : 		::new ((void *)_Ptr) _Objty(_STD forward<_Types>(_Args)...);

  00003	8b 4d 0c	 mov	 ecx, DWORD PTR __Ptr$[ebp]
  00006	85 c9		 test	 ecx, ecx
  00008	74 07		 je	 SHORT $LN8@construct
  0000a	8b 45 10	 mov	 eax, DWORD PTR _<_Args_0>$[ebp]
  0000d	8b 00		 mov	 eax, DWORD PTR [eax]
  0000f	89 01		 mov	 DWORD PTR [ecx], eax
$LN8@construct:

; 773  : 		_Al.construct(_Ptr, _STD forward<_Types>(_Args)...);
; 774  : 		}

  00011	5d		 pop	 ebp
  00012	c3		 ret	 0
??$construct@HAAH@?$allocator_traits@V?$allocator@H@std@@@std@@SAXAAV?$allocator@H@1@PAHAAH@Z ENDP ; std::allocator_traits<std::allocator<int> >::construct<int,int &>
_TEXT	ENDS
; Function compile flags: /Ogtp
; File c:\program files (x86)\microsoft visual studio 14.0\vc\include\type_traits
;	COMDAT ??$forward@AAH@std@@YAAAHAAH@Z
_TEXT	SEGMENT
__Arg$ = 8						; size = 4
??$forward@AAH@std@@YAAAHAAH@Z PROC			; std::forward<int &>, COMDAT

; 1233 : 	{	// forward an lvalue as either an lvalue or an rvalue

  00000	55		 push	 ebp
  00001	8b ec		 mov	 ebp, esp

; 1234 : 	return (static_cast<_Ty&&>(_Arg));

  00003	8b 45 08	 mov	 eax, DWORD PTR __Arg$[ebp]

; 1235 : 	}

  00006	5d		 pop	 ebp
  00007	c3		 ret	 0
??$forward@AAH@std@@YAAAHAAH@Z ENDP			; std::forward<int &>
_TEXT	ENDS
; Function compile flags: /Ogtp
; File c:\program files (x86)\microsoft visual studio 14.0\vc\include\xstddef
;	COMDAT ??$_Addressof@$$CBH@std@@YAPBHABHU?$integral_constant@_N$0A@@0@@Z
_TEXT	SEGMENT
__Val$ = 8						; size = 4
___formal$ = 12						; size = 1
??$_Addressof@$$CBH@std@@YAPBHABHU?$integral_constant@_N$0A@@0@@Z PROC ; std::_Addressof<int const >, COMDAT

; 688  : 	{	// return address of object _Val

  00000	55		 push	 ebp
  00001	8b ec		 mov	 ebp, esp

; 689  : 	return (reinterpret_cast<_Ty *>(

  00003	8b 45 08	 mov	 eax, DWORD PTR __Val$[ebp]

; 690  : 		&const_cast<char&>(
; 691  : 		reinterpret_cast<const volatile char&>(_Val))));
; 692  : 	}

  00006	5d		 pop	 ebp
  00007	c3		 ret	 0
??$_Addressof@$$CBH@std@@YAPBHABHU?$integral_constant@_N$0A@@0@@Z ENDP ; std::_Addressof<int const >
_TEXT	ENDS
; Function compile flags: /Ogtp
; File c:\program files (x86)\microsoft visual studio 14.0\vc\include\xutility
;	COMDAT ??$_Move@PAHPAH@std@@YAPAHPAH00U_Scalar_ptr_iterator_tag@0@@Z
_TEXT	SEGMENT
__First$ = 8						; size = 4
__Last$ = 12						; size = 4
__Dest$ = 16						; size = 4
___formal$ = 20						; size = 1
??$_Move@PAHPAH@std@@YAPAHPAH00U_Scalar_ptr_iterator_tag@0@@Z PROC ; std::_Move<int *,int *>, COMDAT

; 2526 : 	{	// move [_First, _Last) to [_Dest, ...), pointers to scalars

  00000	55		 push	 ebp
  00001	8b ec		 mov	 ebp, esp

; 2527 : 	ptrdiff_t _Count = _Last - _First;

  00003	8b 4d 08	 mov	 ecx, DWORD PTR __First$[ebp]
  00006	8b 45 0c	 mov	 eax, DWORD PTR __Last$[ebp]
  00009	2b c1		 sub	 eax, ecx
  0000b	56		 push	 esi

; 2528 : 	_CSTD memmove(&*_Dest, &*_First,

  0000c	8b 75 10	 mov	 esi, DWORD PTR __Dest$[ebp]
  0000f	c1 f8 02	 sar	 eax, 2
  00012	57		 push	 edi
  00013	8d 3c 85 00 00
	00 00		 lea	 edi, DWORD PTR [eax*4]
  0001a	57		 push	 edi
  0001b	51		 push	 ecx
  0001c	56		 push	 esi
  0001d	e8 00 00 00 00	 call	 _memmove
  00022	83 c4 0c	 add	 esp, 12			; 0000000cH

; 2529 : 		_Count * sizeof (*_First));
; 2530 : 	return (_Dest + _Count);

  00025	8d 04 37	 lea	 eax, DWORD PTR [edi+esi]
  00028	5f		 pop	 edi
  00029	5e		 pop	 esi

; 2531 : 	}

  0002a	5d		 pop	 ebp
  0002b	c3		 ret	 0
??$_Move@PAHPAH@std@@YAPAHPAH00U_Scalar_ptr_iterator_tag@0@@Z ENDP ; std::_Move<int *,int *>
_TEXT	ENDS
; Function compile flags: /Ogtp
; File c:\program files (x86)\microsoft visual studio 14.0\vc\include\xutility
;	COMDAT ??$_Ptr_cat@HH@std@@YA?AU_Scalar_ptr_iterator_tag@0@PAH0@Z
_TEXT	SEGMENT
__Cat$ = -1						; size = 1
___formal$ = 8						; size = 4
___formal$ = 12						; size = 4
??$_Ptr_cat@HH@std@@YA?AU_Scalar_ptr_iterator_tag@0@PAH0@Z PROC ; std::_Ptr_cat<int,int>, COMDAT

; 640  : 	{	// return pointer category from pointers

  00000	55		 push	 ebp
  00001	8b ec		 mov	 ebp, esp
  00003	51		 push	 ecx

; 641  : 	typename _Ptr_cat_helper<_Elem1, _Elem2>::type _Cat;
; 642  : 	return (_Cat);

  00004	8a 45 ff	 mov	 al, BYTE PTR __Cat$[ebp]

; 643  : 	}

  00007	8b e5		 mov	 esp, ebp
  00009	5d		 pop	 ebp
  0000a	c3		 ret	 0
??$_Ptr_cat@HH@std@@YA?AU_Scalar_ptr_iterator_tag@0@PAH0@Z ENDP ; std::_Ptr_cat<int,int>
_TEXT	ENDS
; Function compile flags: /Ogtp
; File c:\program files (x86)\microsoft visual studio 14.0\vc\include\xutility
;	COMDAT ??$_Ptr_cat@HH@std@@YA?AU_Scalar_ptr_iterator_tag@0@PBHPAH@Z
_TEXT	SEGMENT
__Cat$ = -1						; size = 1
___formal$ = 8						; size = 4
___formal$ = 12						; size = 4
??$_Ptr_cat@HH@std@@YA?AU_Scalar_ptr_iterator_tag@0@PBHPAH@Z PROC ; std::_Ptr_cat<int,int>, COMDAT

; 649  : 	{	// return pointer category from pointers

  00000	55		 push	 ebp
  00001	8b ec		 mov	 ebp, esp
  00003	51		 push	 ecx

; 650  : 	typename _Ptr_cat_helper<_Elem1, _Elem2>::type _Cat;
; 651  : 	return (_Cat);

  00004	8a 45 ff	 mov	 al, BYTE PTR __Cat$[ebp]

; 652  : 	}

  00007	8b e5		 mov	 esp, ebp
  00009	5d		 pop	 ebp
  0000a	c3		 ret	 0
??$_Ptr_cat@HH@std@@YA?AU_Scalar_ptr_iterator_tag@0@PBHPAH@Z ENDP ; std::_Ptr_cat<int,int>
_TEXT	ENDS
; Function compile flags: /Ogtp
; File c:\program files (x86)\microsoft visual studio 14.0\vc\include\vector
; File c:\program files (x86)\microsoft visual studio 14.0\vc\include\xmemory
; File c:\program files (x86)\microsoft visual studio 14.0\vc\include\vector
;	COMDAT ??$_Umove@PAU_stMonsterIndexInfo@@@?$vector@U_stMonsterIndexInfo@@V?$allocator@U_stMonsterIndexInfo@@@std@@@std@@IAEPAU_stMonsterIndexInfo@@PAU2@00@Z
_TEXT	SEGMENT
__First$ = 8						; size = 4
__Last$ = 12						; size = 4
__Cat$1 = 16						; size = 1
__Ptr$ = 16						; size = 4
??$_Umove@PAU_stMonsterIndexInfo@@@?$vector@U_stMonsterIndexInfo@@V?$allocator@U_stMonsterIndexInfo@@@std@@@std@@IAEPAU_stMonsterIndexInfo@@PAU2@00@Z PROC ; std::vector<_stMonsterIndexInfo,std::allocator<_stMonsterIndexInfo> >::_Umove<_stMonsterIndexInfo *>, COMDAT
; _this$ = ecx

; 1677 : 		{	// move initializing [_First, _Last), using allocator

  00000	55		 push	 ebp
  00001	8b ec		 mov	 ebp, esp
; File c:\program files (x86)\microsoft visual studio 14.0\vc\include\xmemory

; 481  : 	return (_Uninit_move(_First, _Last, _Dest, _Al,

  00003	ff 75 10	 push	 DWORD PTR __Cat$1[ebp]
  00006	6a 00		 push	 0
  00008	51		 push	 ecx
  00009	ff 75 10	 push	 DWORD PTR __Ptr$[ebp]
  0000c	ff 75 0c	 push	 DWORD PTR __Last$[ebp]
  0000f	ff 75 08	 push	 DWORD PTR __First$[ebp]
  00012	e8 00 00 00 00	 call	 ??$_Uninit_move@PAU_stMonsterIndexInfo@@PAU1@V?$allocator@U_stMonsterIndexInfo@@@std@@U1@@std@@YAPAU_stMonsterIndexInfo@@PAU1@00AAU?$_Wrap_alloc@V?$allocator@U_stMonsterIndexInfo@@@std@@@0@0U_Nonscalar_ptr_iterator_tag@0@@Z ; std::_Uninit_move<_stMonsterIndexInfo *,_stMonsterIndexInfo *,std::allocator<_stMonsterIndexInfo>,_stMonsterIndexInfo>
  00017	83 c4 18	 add	 esp, 24			; 00000018H
; File c:\program files (x86)\microsoft visual studio 14.0\vc\include\vector

; 1680 : 		}

  0001a	5d		 pop	 ebp
  0001b	c2 0c 00	 ret	 12			; 0000000cH
??$_Umove@PAU_stMonsterIndexInfo@@@?$vector@U_stMonsterIndexInfo@@V?$allocator@U_stMonsterIndexInfo@@@std@@@std@@IAEPAU_stMonsterIndexInfo@@PAU2@00@Z ENDP ; std::vector<_stMonsterIndexInfo,std::allocator<_stMonsterIndexInfo> >::_Umove<_stMonsterIndexInfo *>
_TEXT	ENDS
; Function compile flags: /Ogtp
; File c:\program files (x86)\microsoft visual studio 14.0\vc\include\vector
; File c:\program files (x86)\microsoft visual studio 14.0\vc\include\xmemory
; File c:\program files (x86)\microsoft visual studio 14.0\vc\include\vector
;	COMDAT ??$_Umove@PAH@?$vector@HV?$allocator@H@std@@@std@@IAEPAHPAH00@Z
_TEXT	SEGMENT
__First$ = 8						; size = 4
__Last$ = 12						; size = 4
__Ptr$ = 16						; size = 4
??$_Umove@PAH@?$vector@HV?$allocator@H@std@@@std@@IAEPAHPAH00@Z PROC ; std::vector<int,std::allocator<int> >::_Umove<int *>, COMDAT
; _this$ = ecx

; 1677 : 		{	// move initializing [_First, _Last), using allocator

  00000	55		 push	 ebp
  00001	8b ec		 mov	 ebp, esp
; File c:\program files (x86)\microsoft visual studio 14.0\vc\include\xmemory

; 470  : 	size_t _Count = (size_t)(_Last - _First);

  00003	8b 4d 08	 mov	 ecx, DWORD PTR __First$[ebp]
  00006	8b 45 0c	 mov	 eax, DWORD PTR __Last$[ebp]
  00009	2b c1		 sub	 eax, ecx
  0000b	c1 f8 02	 sar	 eax, 2
  0000e	56		 push	 esi

; 471  : 	return ((_Ty2 *)_CSTD memmove(&*_Dest, &*_First,

  0000f	8d 34 85 00 00
	00 00		 lea	 esi, DWORD PTR [eax*4]
  00016	56		 push	 esi
  00017	51		 push	 ecx
  00018	ff 75 10	 push	 DWORD PTR __Ptr$[ebp]
  0001b	e8 00 00 00 00	 call	 _memmove
  00020	83 c4 0c	 add	 esp, 12			; 0000000cH
  00023	03 c6		 add	 eax, esi
  00025	5e		 pop	 esi
; File c:\program files (x86)\microsoft visual studio 14.0\vc\include\vector

; 1680 : 		}

  00026	5d		 pop	 ebp
  00027	c2 0c 00	 ret	 12			; 0000000cH
??$_Umove@PAH@?$vector@HV?$allocator@H@std@@@std@@IAEPAHPAH00@Z ENDP ; std::vector<int,std::allocator<int> >::_Umove<int *>
_TEXT	ENDS
; Function compile flags: /Ogtp
; File c:\program files (x86)\microsoft visual studio 14.0\vc\include\xmemory0
;	COMDAT ??$_Destroy_range@U?$_Wrap_alloc@V?$allocator@U_stMonsterIndexInfo@@@std@@@std@@@std@@YAXPAU_stMonsterIndexInfo@@0AAU?$_Wrap_alloc@V?$allocator@U_stMonsterIndexInfo@@@std@@@0@@Z
_TEXT	SEGMENT
__First$ = 8						; size = 4
__Last$ = 12						; size = 4
__Al$ = 16						; size = 4
??$_Destroy_range@U?$_Wrap_alloc@V?$allocator@U_stMonsterIndexInfo@@@std@@@std@@@std@@YAXPAU_stMonsterIndexInfo@@0AAU?$_Wrap_alloc@V?$allocator@U_stMonsterIndexInfo@@@std@@@0@@Z PROC ; std::_Destroy_range<std::_Wrap_alloc<std::allocator<_stMonsterIndexInfo> > >, COMDAT

; 186  : 	_Destroy_range(_First, _Last, _Al, _Ptr_cat(_First, _Last));
; 187  : 	}

  00000	c3		 ret	 0
??$_Destroy_range@U?$_Wrap_alloc@V?$allocator@U_stMonsterIndexInfo@@@std@@@std@@@std@@YAXPAU_stMonsterIndexInfo@@0AAU?$_Wrap_alloc@V?$allocator@U_stMonsterIndexInfo@@@std@@@0@@Z ENDP ; std::_Destroy_range<std::_Wrap_alloc<std::allocator<_stMonsterIndexInfo> > >
_TEXT	ENDS
; Function compile flags: /Ogtp
; File c:\program files (x86)\microsoft visual studio 14.0\vc\include\xutility
; File c:\program files (x86)\microsoft visual studio 14.0\vc\include\vector
; File c:\program files (x86)\microsoft visual studio 14.0\vc\include\xutility
; File c:\program files (x86)\microsoft visual studio 14.0\vc\include\vector
; File c:\program files (x86)\microsoft visual studio 14.0\vc\include\xutility
;	COMDAT ??$?0ABV?$allocator@U_stMonsterIndexInfo@@@std@@$$V@?$_Compressed_pair@U?$_Wrap_alloc@V?$allocator@U_stMonsterIndexInfo@@@std@@@std@@V?$_Vector_val@U?$_Simple_types@U_stMonsterIndexInfo@@@std@@@2@$00@std@@QAE@U_One_then_variadic_args_t@1@ABV?$allocator@U_stMonsterIndexInfo@@@1@@Z
_TEXT	SEGMENT
___formal$ = 8						; size = 1
__Val1$ = 12						; size = 4
??$?0ABV?$allocator@U_stMonsterIndexInfo@@@std@@$$V@?$_Compressed_pair@U?$_Wrap_alloc@V?$allocator@U_stMonsterIndexInfo@@@std@@@std@@V?$_Vector_val@U?$_Simple_types@U_stMonsterIndexInfo@@@std@@@2@$00@std@@QAE@U_One_then_variadic_args_t@1@ABV?$allocator@U_stMonsterIndexInfo@@@1@@Z PROC ; std::_Compressed_pair<std::_Wrap_alloc<std::allocator<_stMonsterIndexInfo> >,std::_Vector_val<std::_Simple_types<_stMonsterIndexInfo> >,1>::_Compressed_pair<std::_Wrap_alloc<std::allocator<_stMonsterIndexInfo> >,std::_Vector_val<std::_Simple_types<_stMonsterIndexInfo> >,1><std::allocator<_stMonsterIndexInfo> const &>, COMDAT
; _this$ = ecx
; File c:\program files (x86)\microsoft visual studio 14.0\vc\include\vector

; 480  : 		_Myfirst = pointer();

  00000	c7 01 00 00 00
	00		 mov	 DWORD PTR [ecx], 0
; File c:\program files (x86)\microsoft visual studio 14.0\vc\include\xutility

; 289  : 		}

  00006	8b c1		 mov	 eax, ecx
; File c:\program files (x86)\microsoft visual studio 14.0\vc\include\vector

; 481  : 		_Mylast = pointer();

  00008	c7 41 04 00 00
	00 00		 mov	 DWORD PTR [ecx+4], 0

; 482  : 		_Myend = pointer();

  0000f	c7 41 08 00 00
	00 00		 mov	 DWORD PTR [ecx+8], 0
; File c:\program files (x86)\microsoft visual studio 14.0\vc\include\xutility

; 289  : 		}

  00016	c2 08 00	 ret	 8
??$?0ABV?$allocator@U_stMonsterIndexInfo@@@std@@$$V@?$_Compressed_pair@U?$_Wrap_alloc@V?$allocator@U_stMonsterIndexInfo@@@std@@@std@@V?$_Vector_val@U?$_Simple_types@U_stMonsterIndexInfo@@@std@@@2@$00@std@@QAE@U_One_then_variadic_args_t@1@ABV?$allocator@U_stMonsterIndexInfo@@@1@@Z ENDP ; std::_Compressed_pair<std::_Wrap_alloc<std::allocator<_stMonsterIndexInfo> >,std::_Vector_val<std::_Simple_types<_stMonsterIndexInfo> >,1>::_Compressed_pair<std::_Wrap_alloc<std::allocator<_stMonsterIndexInfo> >,std::_Vector_val<std::_Simple_types<_stMonsterIndexInfo> >,1><std::allocator<_stMonsterIndexInfo> const &>
_TEXT	ENDS
; Function compile flags: /Ogtp
; File c:\program files (x86)\microsoft visual studio 14.0\vc\include\xutility
; File c:\program files (x86)\microsoft visual studio 14.0\vc\include\vector
; File c:\program files (x86)\microsoft visual studio 14.0\vc\include\xutility
; File c:\program files (x86)\microsoft visual studio 14.0\vc\include\vector
; File c:\program files (x86)\microsoft visual studio 14.0\vc\include\xutility
;	COMDAT ??$?0V?$allocator@U_stMonsterIndexInfo@@@std@@$$V@?$_Compressed_pair@U?$_Wrap_alloc@V?$allocator@U_stMonsterIndexInfo@@@std@@@std@@V?$_Vector_val@U?$_Simple_types@U_stMonsterIndexInfo@@@std@@@2@$00@std@@QAE@U_One_then_variadic_args_t@1@$$QAV?$allocator@U_stMonsterIndexInfo@@@1@@Z
_TEXT	SEGMENT
___formal$ = 8						; size = 1
__Val1$ = 12						; size = 4
??$?0V?$allocator@U_stMonsterIndexInfo@@@std@@$$V@?$_Compressed_pair@U?$_Wrap_alloc@V?$allocator@U_stMonsterIndexInfo@@@std@@@std@@V?$_Vector_val@U?$_Simple_types@U_stMonsterIndexInfo@@@std@@@2@$00@std@@QAE@U_One_then_variadic_args_t@1@$$QAV?$allocator@U_stMonsterIndexInfo@@@1@@Z PROC ; std::_Compressed_pair<std::_Wrap_alloc<std::allocator<_stMonsterIndexInfo> >,std::_Vector_val<std::_Simple_types<_stMonsterIndexInfo> >,1>::_Compressed_pair<std::_Wrap_alloc<std::allocator<_stMonsterIndexInfo> >,std::_Vector_val<std::_Simple_types<_stMonsterIndexInfo> >,1><std::allocator<_stMonsterIndexInfo> >, COMDAT
; _this$ = ecx
; File c:\program files (x86)\microsoft visual studio 14.0\vc\include\vector

; 480  : 		_Myfirst = pointer();

  00000	c7 01 00 00 00
	00		 mov	 DWORD PTR [ecx], 0
; File c:\program files (x86)\microsoft visual studio 14.0\vc\include\xutility

; 289  : 		}

  00006	8b c1		 mov	 eax, ecx
; File c:\program files (x86)\microsoft visual studio 14.0\vc\include\vector

; 481  : 		_Mylast = pointer();

  00008	c7 41 04 00 00
	00 00		 mov	 DWORD PTR [ecx+4], 0

; 482  : 		_Myend = pointer();

  0000f	c7 41 08 00 00
	00 00		 mov	 DWORD PTR [ecx+8], 0
; File c:\program files (x86)\microsoft visual studio 14.0\vc\include\xutility

; 289  : 		}

  00016	c2 08 00	 ret	 8
??$?0V?$allocator@U_stMonsterIndexInfo@@@std@@$$V@?$_Compressed_pair@U?$_Wrap_alloc@V?$allocator@U_stMonsterIndexInfo@@@std@@@std@@V?$_Vector_val@U?$_Simple_types@U_stMonsterIndexInfo@@@std@@@2@$00@std@@QAE@U_One_then_variadic_args_t@1@$$QAV?$allocator@U_stMonsterIndexInfo@@@1@@Z ENDP ; std::_Compressed_pair<std::_Wrap_alloc<std::allocator<_stMonsterIndexInfo> >,std::_Vector_val<std::_Simple_types<_stMonsterIndexInfo> >,1>::_Compressed_pair<std::_Wrap_alloc<std::allocator<_stMonsterIndexInfo> >,std::_Vector_val<std::_Simple_types<_stMonsterIndexInfo> >,1><std::allocator<_stMonsterIndexInfo> >
_TEXT	ENDS
; Function compile flags: /Ogtp
; File c:\program files (x86)\microsoft visual studio 14.0\vc\include\type_traits
;	COMDAT ??$move@AAV?$allocator@U_stMonsterIndexInfo@@@std@@@std@@YA$$QAV?$allocator@U_stMonsterIndexInfo@@@0@AAV10@@Z
_TEXT	SEGMENT
__Arg$ = 8						; size = 4
??$move@AAV?$allocator@U_stMonsterIndexInfo@@@std@@@std@@YA$$QAV?$allocator@U_stMonsterIndexInfo@@@0@AAV10@@Z PROC ; std::move<std::allocator<_stMonsterIndexInfo> &>, COMDAT

; 1249 : 	{	// forward _Arg as movable

  00000	55		 push	 ebp
  00001	8b ec		 mov	 ebp, esp

; 1250 : 	return (static_cast<typename remove_reference<_Ty>::type&&>(_Arg));

  00003	8b 45 08	 mov	 eax, DWORD PTR __Arg$[ebp]

; 1251 : 	}

  00006	5d		 pop	 ebp
  00007	c3		 ret	 0
??$move@AAV?$allocator@U_stMonsterIndexInfo@@@std@@@std@@YA$$QAV?$allocator@U_stMonsterIndexInfo@@@0@AAV10@@Z ENDP ; std::move<std::allocator<_stMonsterIndexInfo> &>
_TEXT	ENDS
; Function compile flags: /Ogtp
; File c:\program files (x86)\microsoft visual studio 14.0\vc\include\xmemory0
;	COMDAT ??$_Destroy_range@U?$_Wrap_alloc@V?$allocator@H@std@@@std@@@std@@YAXPAH0AAU?$_Wrap_alloc@V?$allocator@H@std@@@0@@Z
_TEXT	SEGMENT
__First$ = 8						; size = 4
__Last$ = 12						; size = 4
__Al$ = 16						; size = 4
??$_Destroy_range@U?$_Wrap_alloc@V?$allocator@H@std@@@std@@@std@@YAXPAH0AAU?$_Wrap_alloc@V?$allocator@H@std@@@0@@Z PROC ; std::_Destroy_range<std::_Wrap_alloc<std::allocator<int> > >, COMDAT

; 186  : 	_Destroy_range(_First, _Last, _Al, _Ptr_cat(_First, _Last));
; 187  : 	}

  00000	c3		 ret	 0
??$_Destroy_range@U?$_Wrap_alloc@V?$allocator@H@std@@@std@@@std@@YAXPAH0AAU?$_Wrap_alloc@V?$allocator@H@std@@@0@@Z ENDP ; std::_Destroy_range<std::_Wrap_alloc<std::allocator<int> > >
_TEXT	ENDS
; Function compile flags: /Ogtp
; File c:\program files (x86)\microsoft visual studio 14.0\vc\include\xutility
; File c:\program files (x86)\microsoft visual studio 14.0\vc\include\vector
; File c:\program files (x86)\microsoft visual studio 14.0\vc\include\xutility
; File c:\program files (x86)\microsoft visual studio 14.0\vc\include\vector
; File c:\program files (x86)\microsoft visual studio 14.0\vc\include\xutility
;	COMDAT ??$?0ABV?$allocator@H@std@@$$V@?$_Compressed_pair@U?$_Wrap_alloc@V?$allocator@H@std@@@std@@V?$_Vector_val@U?$_Simple_types@H@std@@@2@$00@std@@QAE@U_One_then_variadic_args_t@1@ABV?$allocator@H@1@@Z
_TEXT	SEGMENT
___formal$ = 8						; size = 1
__Val1$ = 12						; size = 4
??$?0ABV?$allocator@H@std@@$$V@?$_Compressed_pair@U?$_Wrap_alloc@V?$allocator@H@std@@@std@@V?$_Vector_val@U?$_Simple_types@H@std@@@2@$00@std@@QAE@U_One_then_variadic_args_t@1@ABV?$allocator@H@1@@Z PROC ; std::_Compressed_pair<std::_Wrap_alloc<std::allocator<int> >,std::_Vector_val<std::_Simple_types<int> >,1>::_Compressed_pair<std::_Wrap_alloc<std::allocator<int> >,std::_Vector_val<std::_Simple_types<int> >,1><std::allocator<int> const &>, COMDAT
; _this$ = ecx
; File c:\program files (x86)\microsoft visual studio 14.0\vc\include\vector

; 480  : 		_Myfirst = pointer();

  00000	c7 01 00 00 00
	00		 mov	 DWORD PTR [ecx], 0
; File c:\program files (x86)\microsoft visual studio 14.0\vc\include\xutility

; 289  : 		}

  00006	8b c1		 mov	 eax, ecx
; File c:\program files (x86)\microsoft visual studio 14.0\vc\include\vector

; 481  : 		_Mylast = pointer();

  00008	c7 41 04 00 00
	00 00		 mov	 DWORD PTR [ecx+4], 0

; 482  : 		_Myend = pointer();

  0000f	c7 41 08 00 00
	00 00		 mov	 DWORD PTR [ecx+8], 0
; File c:\program files (x86)\microsoft visual studio 14.0\vc\include\xutility

; 289  : 		}

  00016	c2 08 00	 ret	 8
??$?0ABV?$allocator@H@std@@$$V@?$_Compressed_pair@U?$_Wrap_alloc@V?$allocator@H@std@@@std@@V?$_Vector_val@U?$_Simple_types@H@std@@@2@$00@std@@QAE@U_One_then_variadic_args_t@1@ABV?$allocator@H@1@@Z ENDP ; std::_Compressed_pair<std::_Wrap_alloc<std::allocator<int> >,std::_Vector_val<std::_Simple_types<int> >,1>::_Compressed_pair<std::_Wrap_alloc<std::allocator<int> >,std::_Vector_val<std::_Simple_types<int> >,1><std::allocator<int> const &>
_TEXT	ENDS
; Function compile flags: /Ogtp
; File c:\program files (x86)\microsoft visual studio 14.0\vc\include\xutility
; File c:\program files (x86)\microsoft visual studio 14.0\vc\include\vector
; File c:\program files (x86)\microsoft visual studio 14.0\vc\include\xutility
; File c:\program files (x86)\microsoft visual studio 14.0\vc\include\vector
; File c:\program files (x86)\microsoft visual studio 14.0\vc\include\xutility
;	COMDAT ??$?0V?$allocator@H@std@@$$V@?$_Compressed_pair@U?$_Wrap_alloc@V?$allocator@H@std@@@std@@V?$_Vector_val@U?$_Simple_types@H@std@@@2@$00@std@@QAE@U_One_then_variadic_args_t@1@$$QAV?$allocator@H@1@@Z
_TEXT	SEGMENT
___formal$ = 8						; size = 1
__Val1$ = 12						; size = 4
??$?0V?$allocator@H@std@@$$V@?$_Compressed_pair@U?$_Wrap_alloc@V?$allocator@H@std@@@std@@V?$_Vector_val@U?$_Simple_types@H@std@@@2@$00@std@@QAE@U_One_then_variadic_args_t@1@$$QAV?$allocator@H@1@@Z PROC ; std::_Compressed_pair<std::_Wrap_alloc<std::allocator<int> >,std::_Vector_val<std::_Simple_types<int> >,1>::_Compressed_pair<std::_Wrap_alloc<std::allocator<int> >,std::_Vector_val<std::_Simple_types<int> >,1><std::allocator<int> >, COMDAT
; _this$ = ecx
; File c:\program files (x86)\microsoft visual studio 14.0\vc\include\vector

; 480  : 		_Myfirst = pointer();

  00000	c7 01 00 00 00
	00		 mov	 DWORD PTR [ecx], 0
; File c:\program files (x86)\microsoft visual studio 14.0\vc\include\xutility

; 289  : 		}

  00006	8b c1		 mov	 eax, ecx
; File c:\program files (x86)\microsoft visual studio 14.0\vc\include\vector

; 481  : 		_Mylast = pointer();

  00008	c7 41 04 00 00
	00 00		 mov	 DWORD PTR [ecx+4], 0

; 482  : 		_Myend = pointer();

  0000f	c7 41 08 00 00
	00 00		 mov	 DWORD PTR [ecx+8], 0
; File c:\program files (x86)\microsoft visual studio 14.0\vc\include\xutility

; 289  : 		}

  00016	c2 08 00	 ret	 8
??$?0V?$allocator@H@std@@$$V@?$_Compressed_pair@U?$_Wrap_alloc@V?$allocator@H@std@@@std@@V?$_Vector_val@U?$_Simple_types@H@std@@@2@$00@std@@QAE@U_One_then_variadic_args_t@1@$$QAV?$allocator@H@1@@Z ENDP ; std::_Compressed_pair<std::_Wrap_alloc<std::allocator<int> >,std::_Vector_val<std::_Simple_types<int> >,1>::_Compressed_pair<std::_Wrap_alloc<std::allocator<int> >,std::_Vector_val<std::_Simple_types<int> >,1><std::allocator<int> >
_TEXT	ENDS
; Function compile flags: /Ogtp
; File c:\program files (x86)\microsoft visual studio 14.0\vc\include\type_traits
;	COMDAT ??$move@AAV?$allocator@H@std@@@std@@YA$$QAV?$allocator@H@0@AAV10@@Z
_TEXT	SEGMENT
__Arg$ = 8						; size = 4
??$move@AAV?$allocator@H@std@@@std@@YA$$QAV?$allocator@H@0@AAV10@@Z PROC ; std::move<std::allocator<int> &>, COMDAT

; 1249 : 	{	// forward _Arg as movable

  00000	55		 push	 ebp
  00001	8b ec		 mov	 ebp, esp

; 1250 : 	return (static_cast<typename remove_reference<_Ty>::type&&>(_Arg));

  00003	8b 45 08	 mov	 eax, DWORD PTR __Arg$[ebp]

; 1251 : 	}

  00006	5d		 pop	 ebp
  00007	c3		 ret	 0
??$move@AAV?$allocator@H@std@@@std@@YA$$QAV?$allocator@H@0@AAV10@@Z ENDP ; std::move<std::allocator<int> &>
_TEXT	ENDS
; Function compile flags: /Ogtp
; File c:\program files (x86)\microsoft visual studio 14.0\vc\include\xstddef
;	COMDAT ??$addressof@U_stMonsterIndexInfo@@@std@@YAPAU_stMonsterIndexInfo@@AAU1@@Z
_TEXT	SEGMENT
__Val$ = 8						; size = 4
??$addressof@U_stMonsterIndexInfo@@@std@@YAPAU_stMonsterIndexInfo@@AAU1@@Z PROC ; std::addressof<_stMonsterIndexInfo>, COMDAT

; 696  : 	{	// return address of _Val

  00000	55		 push	 ebp
  00001	8b ec		 mov	 ebp, esp

; 697  : 	return (_Addressof(_Val, is_function<_Ty>()));

  00003	8b 45 08	 mov	 eax, DWORD PTR __Val$[ebp]

; 698  : 	}

  00006	5d		 pop	 ebp
  00007	c3		 ret	 0
??$addressof@U_stMonsterIndexInfo@@@std@@YAPAU_stMonsterIndexInfo@@AAU1@@Z ENDP ; std::addressof<_stMonsterIndexInfo>
_TEXT	ENDS
; Function compile flags: /Ogtp
; File c:\program files (x86)\microsoft visual studio 14.0\vc\include\vector
; File c:\program files (x86)\microsoft visual studio 14.0\vc\include\xmemory
; File c:\program files (x86)\microsoft visual studio 14.0\vc\include\vector
;	COMDAT ??$_Ucopy@V?$_Vector_const_iterator@V?$_Vector_val@U?$_Simple_types@U_stMonsterIndexInfo@@@std@@@std@@@std@@@?$vector@U_stMonsterIndexInfo@@V?$allocator@U_stMonsterIndexInfo@@@std@@@std@@IAEPAU_stMonsterIndexInfo@@V?$_Vector_const_iterator@V?$_Vector_val@U?$_Simple_types@U_stMonsterIndexInfo@@@std@@@std@@@1@0PAU2@@Z
_TEXT	SEGMENT
__First$ = 8						; size = 4
__Last$ = 12						; size = 4
__Cat$1 = 16						; size = 1
__Ptr$ = 16						; size = 4
??$_Ucopy@V?$_Vector_const_iterator@V?$_Vector_val@U?$_Simple_types@U_stMonsterIndexInfo@@@std@@@std@@@std@@@?$vector@U_stMonsterIndexInfo@@V?$allocator@U_stMonsterIndexInfo@@@std@@@std@@IAEPAU_stMonsterIndexInfo@@V?$_Vector_const_iterator@V?$_Vector_val@U?$_Simple_types@U_stMonsterIndexInfo@@@std@@@std@@@1@0PAU2@@Z PROC ; std::vector<_stMonsterIndexInfo,std::allocator<_stMonsterIndexInfo> >::_Ucopy<std::_Vector_const_iterator<std::_Vector_val<std::_Simple_types<_stMonsterIndexInfo> > > >, COMDAT
; _this$ = ecx

; 1670 : 		{	// copy initializing [_First, _Last), using allocator

  00000	55		 push	 ebp
  00001	8b ec		 mov	 ebp, esp
; File c:\program files (x86)\microsoft visual studio 14.0\vc\include\xmemory

; 415  : 	return (_Uninit_copy(_First, _Last, _Dest, _Al,

  00003	ff 75 10	 push	 DWORD PTR __Cat$1[ebp]
  00006	51		 push	 ecx
  00007	ff 75 10	 push	 DWORD PTR __Ptr$[ebp]
  0000a	ff 75 0c	 push	 DWORD PTR __Last$[ebp]
  0000d	ff 75 08	 push	 DWORD PTR __First$[ebp]
  00010	e8 00 00 00 00	 call	 ??$_Uninit_copy@PBU_stMonsterIndexInfo@@PAU1@V?$allocator@U_stMonsterIndexInfo@@@std@@@std@@YAPAU_stMonsterIndexInfo@@PBU1@0PAU1@AAU?$_Wrap_alloc@V?$allocator@U_stMonsterIndexInfo@@@std@@@0@U_Nonscalar_ptr_iterator_tag@0@@Z ; std::_Uninit_copy<_stMonsterIndexInfo const *,_stMonsterIndexInfo *,std::allocator<_stMonsterIndexInfo> >
  00015	83 c4 14	 add	 esp, 20			; 00000014H
; File c:\program files (x86)\microsoft visual studio 14.0\vc\include\vector

; 1673 : 		}

  00018	5d		 pop	 ebp
  00019	c2 0c 00	 ret	 12			; 0000000cH
??$_Ucopy@V?$_Vector_const_iterator@V?$_Vector_val@U?$_Simple_types@U_stMonsterIndexInfo@@@std@@@std@@@std@@@?$vector@U_stMonsterIndexInfo@@V?$allocator@U_stMonsterIndexInfo@@@std@@@std@@IAEPAU_stMonsterIndexInfo@@V?$_Vector_const_iterator@V?$_Vector_val@U?$_Simple_types@U_stMonsterIndexInfo@@@std@@@std@@@1@0PAU2@@Z ENDP ; std::vector<_stMonsterIndexInfo,std::allocator<_stMonsterIndexInfo> >::_Ucopy<std::_Vector_const_iterator<std::_Vector_val<std::_Simple_types<_stMonsterIndexInfo> > > >
_TEXT	ENDS
; Function compile flags: /Ogtp
; File c:\program files (x86)\microsoft visual studio 14.0\vc\include\xmemory0
;	COMDAT ??$construct@U_stMonsterIndexInfo@@ABU1@@?$_Wrap_alloc@V?$allocator@U_stMonsterIndexInfo@@@std@@@std@@QAEXPAU_stMonsterIndexInfo@@ABU2@@Z
_TEXT	SEGMENT
__Ptr$ = 8						; size = 4
_<_Args_0>$ = 12					; size = 4
??$construct@U_stMonsterIndexInfo@@ABU1@@?$_Wrap_alloc@V?$allocator@U_stMonsterIndexInfo@@@std@@@std@@QAEXPAU_stMonsterIndexInfo@@ABU2@@Z PROC ; std::_Wrap_alloc<std::allocator<_stMonsterIndexInfo> >::construct<_stMonsterIndexInfo,_stMonsterIndexInfo const &>, COMDAT
; _this$ = ecx

; 916  : 		{	// construct _Ty(_Types...) at _Ptr

  00000	55		 push	 ebp
  00001	8b ec		 mov	 ebp, esp

; 655  : 		::new ((void *)_Ptr) _Objty(_STD forward<_Types>(_Args)...);

  00003	8b 55 08	 mov	 edx, DWORD PTR __Ptr$[ebp]
  00006	85 d2		 test	 edx, edx
  00008	74 0d		 je	 SHORT $LN13@construct
  0000a	8b 4d 0c	 mov	 ecx, DWORD PTR _<_Args_0>$[ebp]
  0000d	8b 01		 mov	 eax, DWORD PTR [ecx]
  0000f	89 02		 mov	 DWORD PTR [edx], eax
  00011	8b 41 04	 mov	 eax, DWORD PTR [ecx+4]
  00014	89 42 04	 mov	 DWORD PTR [edx+4], eax
$LN13@construct:

; 917  : 		_Mytraits::construct(*this, _Ptr,
; 918  : 			_STD forward<_Types>(_Args)...);
; 919  : 		}

  00017	5d		 pop	 ebp
  00018	c2 08 00	 ret	 8
??$construct@U_stMonsterIndexInfo@@ABU1@@?$_Wrap_alloc@V?$allocator@U_stMonsterIndexInfo@@@std@@@std@@QAEXPAU_stMonsterIndexInfo@@ABU2@@Z ENDP ; std::_Wrap_alloc<std::allocator<_stMonsterIndexInfo> >::construct<_stMonsterIndexInfo,_stMonsterIndexInfo const &>
_TEXT	ENDS
; Function compile flags: /Ogtp
; File c:\program files (x86)\microsoft visual studio 14.0\vc\include\xmemory0
;	COMDAT ??$construct@U_stMonsterIndexInfo@@AAU1@@?$_Wrap_alloc@V?$allocator@U_stMonsterIndexInfo@@@std@@@std@@QAEXPAU_stMonsterIndexInfo@@AAU2@@Z
_TEXT	SEGMENT
__Ptr$ = 8						; size = 4
_<_Args_0>$ = 12					; size = 4
??$construct@U_stMonsterIndexInfo@@AAU1@@?$_Wrap_alloc@V?$allocator@U_stMonsterIndexInfo@@@std@@@std@@QAEXPAU_stMonsterIndexInfo@@AAU2@@Z PROC ; std::_Wrap_alloc<std::allocator<_stMonsterIndexInfo> >::construct<_stMonsterIndexInfo,_stMonsterIndexInfo &>, COMDAT
; _this$ = ecx

; 916  : 		{	// construct _Ty(_Types...) at _Ptr

  00000	55		 push	 ebp
  00001	8b ec		 mov	 ebp, esp

; 655  : 		::new ((void *)_Ptr) _Objty(_STD forward<_Types>(_Args)...);

  00003	8b 55 08	 mov	 edx, DWORD PTR __Ptr$[ebp]
  00006	85 d2		 test	 edx, edx
  00008	74 0d		 je	 SHORT $LN13@construct
  0000a	8b 4d 0c	 mov	 ecx, DWORD PTR _<_Args_0>$[ebp]
  0000d	8b 01		 mov	 eax, DWORD PTR [ecx]
  0000f	89 02		 mov	 DWORD PTR [edx], eax
  00011	8b 41 04	 mov	 eax, DWORD PTR [ecx+4]
  00014	89 42 04	 mov	 DWORD PTR [edx+4], eax
$LN13@construct:

; 917  : 		_Mytraits::construct(*this, _Ptr,
; 918  : 			_STD forward<_Types>(_Args)...);
; 919  : 		}

  00017	5d		 pop	 ebp
  00018	c2 08 00	 ret	 8
??$construct@U_stMonsterIndexInfo@@AAU1@@?$_Wrap_alloc@V?$allocator@U_stMonsterIndexInfo@@@std@@@std@@QAEXPAU_stMonsterIndexInfo@@AAU2@@Z ENDP ; std::_Wrap_alloc<std::allocator<_stMonsterIndexInfo> >::construct<_stMonsterIndexInfo,_stMonsterIndexInfo &>
_TEXT	ENDS
; Function compile flags: /Ogtp
; File c:\program files (x86)\microsoft visual studio 14.0\vc\include\xstddef
;	COMDAT ??$addressof@$$CBU_stMonsterIndexInfo@@@std@@YAPBU_stMonsterIndexInfo@@ABU1@@Z
_TEXT	SEGMENT
__Val$ = 8						; size = 4
??$addressof@$$CBU_stMonsterIndexInfo@@@std@@YAPBU_stMonsterIndexInfo@@ABU1@@Z PROC ; std::addressof<_stMonsterIndexInfo const >, COMDAT

; 696  : 	{	// return address of _Val

  00000	55		 push	 ebp
  00001	8b ec		 mov	 ebp, esp

; 697  : 	return (_Addressof(_Val, is_function<_Ty>()));

  00003	8b 45 08	 mov	 eax, DWORD PTR __Val$[ebp]

; 698  : 	}

  00006	5d		 pop	 ebp
  00007	c3		 ret	 0
??$addressof@$$CBU_stMonsterIndexInfo@@@std@@YAPBU_stMonsterIndexInfo@@ABU1@@Z ENDP ; std::addressof<_stMonsterIndexInfo const >
_TEXT	ENDS
; Function compile flags: /Ogtp
; File c:\program files (x86)\microsoft visual studio 14.0\vc\include\xmemory0
;	COMDAT ?pointer_to@?$pointer_traits@PAU_stMonsterIndexInfo@@@std@@SAPAU_stMonsterIndexInfo@@AAU3@@Z
_TEXT	SEGMENT
__Val$ = 8						; size = 4
?pointer_to@?$pointer_traits@PAU_stMonsterIndexInfo@@@std@@SAPAU_stMonsterIndexInfo@@AAU3@@Z PROC ; std::pointer_traits<_stMonsterIndexInfo *>::pointer_to, COMDAT

; 316  : 		{	// convert raw reference to pointer

  00000	55		 push	 ebp
  00001	8b ec		 mov	 ebp, esp

; 317  : 		return (_STD addressof(_Val));

  00003	8b 45 08	 mov	 eax, DWORD PTR __Val$[ebp]

; 318  : 		}

  00006	5d		 pop	 ebp
  00007	c3		 ret	 0
?pointer_to@?$pointer_traits@PAU_stMonsterIndexInfo@@@std@@SAPAU_stMonsterIndexInfo@@AAU3@@Z ENDP ; std::pointer_traits<_stMonsterIndexInfo *>::pointer_to
_TEXT	ENDS
; Function compile flags: /Ogtp
; File c:\program files (x86)\microsoft visual studio 14.0\vc\include\vector
; File c:\program files (x86)\microsoft visual studio 14.0\vc\include\xmemory
; File c:\program files (x86)\microsoft visual studio 14.0\vc\include\vector
;	COMDAT ??$_Ucopy@V?$_Vector_const_iterator@V?$_Vector_val@U?$_Simple_types@H@std@@@std@@@std@@@?$vector@HV?$allocator@H@std@@@std@@IAEPAHV?$_Vector_const_iterator@V?$_Vector_val@U?$_Simple_types@H@std@@@std@@@1@0PAH@Z
_TEXT	SEGMENT
__First$ = 8						; size = 4
__Last$ = 12						; size = 4
__Ptr$ = 16						; size = 4
??$_Ucopy@V?$_Vector_const_iterator@V?$_Vector_val@U?$_Simple_types@H@std@@@std@@@std@@@?$vector@HV?$allocator@H@std@@@std@@IAEPAHV?$_Vector_const_iterator@V?$_Vector_val@U?$_Simple_types@H@std@@@std@@@1@0PAH@Z PROC ; std::vector<int,std::allocator<int> >::_Ucopy<std::_Vector_const_iterator<std::_Vector_val<std::_Simple_types<int> > > >, COMDAT
; _this$ = ecx

; 1670 : 		{	// copy initializing [_First, _Last), using allocator

  00000	55		 push	 ebp
  00001	8b ec		 mov	 ebp, esp
; File c:\program files (x86)\microsoft visual studio 14.0\vc\include\xmemory

; 404  : 	size_t _Count = (size_t)(_Last - _First);

  00003	8b 4d 0c	 mov	 ecx, DWORD PTR __Last$[ebp]
  00006	8b 45 08	 mov	 eax, DWORD PTR __First$[ebp]
  00009	2b c8		 sub	 ecx, eax
  0000b	c1 f9 02	 sar	 ecx, 2
  0000e	56		 push	 esi

; 405  : 	return ((_Ty2 *)_CSTD memmove(&*_Dest, &*_First,

  0000f	8d 34 8d 00 00
	00 00		 lea	 esi, DWORD PTR [ecx*4]
  00016	56		 push	 esi
  00017	50		 push	 eax
  00018	ff 75 10	 push	 DWORD PTR __Ptr$[ebp]
  0001b	e8 00 00 00 00	 call	 _memmove
  00020	83 c4 0c	 add	 esp, 12			; 0000000cH
  00023	03 c6		 add	 eax, esi
  00025	5e		 pop	 esi
; File c:\program files (x86)\microsoft visual studio 14.0\vc\include\vector

; 1673 : 		}

  00026	5d		 pop	 ebp
  00027	c2 0c 00	 ret	 12			; 0000000cH
??$_Ucopy@V?$_Vector_const_iterator@V?$_Vector_val@U?$_Simple_types@H@std@@@std@@@std@@@?$vector@HV?$allocator@H@std@@@std@@IAEPAHV?$_Vector_const_iterator@V?$_Vector_val@U?$_Simple_types@H@std@@@std@@@1@0PAH@Z ENDP ; std::vector<int,std::allocator<int> >::_Ucopy<std::_Vector_const_iterator<std::_Vector_val<std::_Simple_types<int> > > >
_TEXT	ENDS
; Function compile flags: /Ogtp
; File c:\program files (x86)\microsoft visual studio 14.0\vc\include\xmemory0
;	COMDAT ??$construct@HABH@?$_Wrap_alloc@V?$allocator@H@std@@@std@@QAEXPAHABH@Z
_TEXT	SEGMENT
__Ptr$ = 8						; size = 4
_<_Args_0>$ = 12					; size = 4
??$construct@HABH@?$_Wrap_alloc@V?$allocator@H@std@@@std@@QAEXPAHABH@Z PROC ; std::_Wrap_alloc<std::allocator<int> >::construct<int,int const &>, COMDAT
; _this$ = ecx

; 916  : 		{	// construct _Ty(_Types...) at _Ptr

  00000	55		 push	 ebp
  00001	8b ec		 mov	 ebp, esp

; 655  : 		::new ((void *)_Ptr) _Objty(_STD forward<_Types>(_Args)...);

  00003	8b 4d 08	 mov	 ecx, DWORD PTR __Ptr$[ebp]
  00006	85 c9		 test	 ecx, ecx
  00008	74 07		 je	 SHORT $LN13@construct
  0000a	8b 45 0c	 mov	 eax, DWORD PTR _<_Args_0>$[ebp]
  0000d	8b 00		 mov	 eax, DWORD PTR [eax]
  0000f	89 01		 mov	 DWORD PTR [ecx], eax
$LN13@construct:

; 917  : 		_Mytraits::construct(*this, _Ptr,
; 918  : 			_STD forward<_Types>(_Args)...);
; 919  : 		}

  00011	5d		 pop	 ebp
  00012	c2 08 00	 ret	 8
??$construct@HABH@?$_Wrap_alloc@V?$allocator@H@std@@@std@@QAEXPAHABH@Z ENDP ; std::_Wrap_alloc<std::allocator<int> >::construct<int,int const &>
_TEXT	ENDS
; Function compile flags: /Ogtp
; File c:\program files (x86)\microsoft visual studio 14.0\vc\include\xmemory0
;	COMDAT ??$construct@HAAH@?$_Wrap_alloc@V?$allocator@H@std@@@std@@QAEXPAHAAH@Z
_TEXT	SEGMENT
__Ptr$ = 8						; size = 4
_<_Args_0>$ = 12					; size = 4
??$construct@HAAH@?$_Wrap_alloc@V?$allocator@H@std@@@std@@QAEXPAHAAH@Z PROC ; std::_Wrap_alloc<std::allocator<int> >::construct<int,int &>, COMDAT
; _this$ = ecx

; 916  : 		{	// construct _Ty(_Types...) at _Ptr

  00000	55		 push	 ebp
  00001	8b ec		 mov	 ebp, esp

; 655  : 		::new ((void *)_Ptr) _Objty(_STD forward<_Types>(_Args)...);

  00003	8b 4d 08	 mov	 ecx, DWORD PTR __Ptr$[ebp]
  00006	85 c9		 test	 ecx, ecx
  00008	74 07		 je	 SHORT $LN13@construct
  0000a	8b 45 0c	 mov	 eax, DWORD PTR _<_Args_0>$[ebp]
  0000d	8b 00		 mov	 eax, DWORD PTR [eax]
  0000f	89 01		 mov	 DWORD PTR [ecx], eax
$LN13@construct:

; 917  : 		_Mytraits::construct(*this, _Ptr,
; 918  : 			_STD forward<_Types>(_Args)...);
; 919  : 		}

  00011	5d		 pop	 ebp
  00012	c2 08 00	 ret	 8
??$construct@HAAH@?$_Wrap_alloc@V?$allocator@H@std@@@std@@QAEXPAHAAH@Z ENDP ; std::_Wrap_alloc<std::allocator<int> >::construct<int,int &>
_TEXT	ENDS
; Function compile flags: /Ogtp
; File c:\program files (x86)\microsoft visual studio 14.0\vc\include\xstddef
;	COMDAT ??$addressof@$$CBH@std@@YAPBHABH@Z
_TEXT	SEGMENT
__Val$ = 8						; size = 4
??$addressof@$$CBH@std@@YAPBHABH@Z PROC			; std::addressof<int const >, COMDAT

; 696  : 	{	// return address of _Val

  00000	55		 push	 ebp
  00001	8b ec		 mov	 ebp, esp

; 697  : 	return (_Addressof(_Val, is_function<_Ty>()));

  00003	8b 45 08	 mov	 eax, DWORD PTR __Val$[ebp]

; 698  : 	}

  00006	5d		 pop	 ebp
  00007	c3		 ret	 0
??$addressof@$$CBH@std@@YAPBHABH@Z ENDP			; std::addressof<int const >
_TEXT	ENDS
; Function compile flags: /Ogtp
; File c:\program files (x86)\microsoft visual studio 14.0\vc\include\xutility
;	COMDAT ??$_Move@PAHPAH@std@@YAPAHPAH00@Z
_TEXT	SEGMENT
__First$ = 8						; size = 4
__Last$ = 12						; size = 4
__Dest$ = 16						; size = 4
??$_Move@PAHPAH@std@@YAPAHPAH00@Z PROC			; std::_Move<int *,int *>, COMDAT

; 2537 : 	{	// move [_First, _Last) to [_Dest, ...), unchecked

  00000	55		 push	 ebp
  00001	8b ec		 mov	 ebp, esp

; 2527 : 	ptrdiff_t _Count = _Last - _First;

  00003	8b 4d 08	 mov	 ecx, DWORD PTR __First$[ebp]
  00006	8b 45 0c	 mov	 eax, DWORD PTR __Last$[ebp]
  00009	2b c1		 sub	 eax, ecx
  0000b	56		 push	 esi

; 2528 : 	_CSTD memmove(&*_Dest, &*_First,

  0000c	8b 75 10	 mov	 esi, DWORD PTR __Dest$[ebp]
  0000f	c1 f8 02	 sar	 eax, 2
  00012	57		 push	 edi
  00013	8d 3c 85 00 00
	00 00		 lea	 edi, DWORD PTR [eax*4]
  0001a	57		 push	 edi
  0001b	51		 push	 ecx
  0001c	56		 push	 esi
  0001d	e8 00 00 00 00	 call	 _memmove
  00022	83 c4 0c	 add	 esp, 12			; 0000000cH

; 2529 : 		_Count * sizeof (*_First));
; 2530 : 	return (_Dest + _Count);

  00025	8d 04 37	 lea	 eax, DWORD PTR [edi+esi]
  00028	5f		 pop	 edi
  00029	5e		 pop	 esi

; 2538 : 	return (_Move(_First, _Last,
; 2539 : 		_Dest, _Ptr_cat(_First, _Dest)));
; 2540 : 	}

  0002a	5d		 pop	 ebp
  0002b	c3		 ret	 0
??$_Move@PAHPAH@std@@YAPAHPAH00@Z ENDP			; std::_Move<int *,int *>
_TEXT	ENDS
; Function compile flags: /Ogtp
; File c:\program files (x86)\microsoft visual studio 14.0\vc\include\vector
;	COMDAT ??E?$_Vector_iterator@V?$_Vector_val@U?$_Simple_types@U_stMonsterIndexInfo@@@std@@@std@@@std@@QAE?AV01@H@Z
_TEXT	SEGMENT
___$ReturnUdt$ = 8					; size = 4
___formal$ = 12						; size = 4
??E?$_Vector_iterator@V?$_Vector_val@U?$_Simple_types@U_stMonsterIndexInfo@@@std@@@std@@@std@@QAE?AV01@H@Z PROC ; std::_Vector_iterator<std::_Vector_val<std::_Simple_types<_stMonsterIndexInfo> > >::operator++, COMDAT
; _this$ = ecx

; 340  : 		{	// postincrement

  00000	55		 push	 ebp
  00001	8b ec		 mov	 ebp, esp

; 341  : 		_Myiter _Tmp = *this;

  00003	8b 45 08	 mov	 eax, DWORD PTR ___$ReturnUdt$[ebp]
  00006	8b 11		 mov	 edx, DWORD PTR [ecx]
  00008	89 10		 mov	 DWORD PTR [eax], edx

; 112  : 		++this->_Ptr;

  0000a	83 c2 08	 add	 edx, 8
  0000d	89 11		 mov	 DWORD PTR [ecx], edx

; 342  : 		++*this;
; 343  : 		return (_Tmp);
; 344  : 		}

  0000f	5d		 pop	 ebp
  00010	c2 08 00	 ret	 8
??E?$_Vector_iterator@V?$_Vector_val@U?$_Simple_types@U_stMonsterIndexInfo@@@std@@@std@@@std@@QAE?AV01@H@Z ENDP ; std::_Vector_iterator<std::_Vector_val<std::_Simple_types<_stMonsterIndexInfo> > >::operator++
_TEXT	ENDS
; Function compile flags: /Ogtp
; File c:\program files (x86)\microsoft visual studio 14.0\vc\include\vector
;	COMDAT ??E?$_Vector_iterator@V?$_Vector_val@U?$_Simple_types@U_stMonsterIndexInfo@@@std@@@std@@@std@@QAEAAV01@XZ
_TEXT	SEGMENT
??E?$_Vector_iterator@V?$_Vector_val@U?$_Simple_types@U_stMonsterIndexInfo@@@std@@@std@@@std@@QAEAAV01@XZ PROC ; std::_Vector_iterator<std::_Vector_val<std::_Simple_types<_stMonsterIndexInfo> > >::operator++, COMDAT
; _this$ = ecx

; 112  : 		++this->_Ptr;

  00000	83 01 08	 add	 DWORD PTR [ecx], 8

; 335  : 		++*(_Mybase *)this;
; 336  : 		return (*this);

  00003	8b c1		 mov	 eax, ecx

; 337  : 		}

  00005	c3		 ret	 0
??E?$_Vector_iterator@V?$_Vector_val@U?$_Simple_types@U_stMonsterIndexInfo@@@std@@@std@@@std@@QAEAAV01@XZ ENDP ; std::_Vector_iterator<std::_Vector_val<std::_Simple_types<_stMonsterIndexInfo> > >::operator++
_TEXT	ENDS
; Function compile flags: /Ogtp
; File c:\program files (x86)\microsoft visual studio 14.0\vc\include\vector
;	COMDAT ??C?$_Vector_iterator@V?$_Vector_val@U?$_Simple_types@U_stMonsterIndexInfo@@@std@@@std@@@std@@QBEPAU_stMonsterIndexInfo@@XZ
_TEXT	SEGMENT
??C?$_Vector_iterator@V?$_Vector_val@U?$_Simple_types@U_stMonsterIndexInfo@@@std@@@std@@@std@@QBEPAU_stMonsterIndexInfo@@XZ PROC ; std::_Vector_iterator<std::_Vector_val<std::_Simple_types<_stMonsterIndexInfo> > >::operator->, COMDAT
; _this$ = ecx

; 330  : 		return (_STD pointer_traits<pointer>::pointer_to(**this));

  00000	8b 01		 mov	 eax, DWORD PTR [ecx]

; 331  : 		}

  00002	c3		 ret	 0
??C?$_Vector_iterator@V?$_Vector_val@U?$_Simple_types@U_stMonsterIndexInfo@@@std@@@std@@@std@@QBEPAU_stMonsterIndexInfo@@XZ ENDP ; std::_Vector_iterator<std::_Vector_val<std::_Simple_types<_stMonsterIndexInfo> > >::operator->
_TEXT	ENDS
; Function compile flags: /Ogtp
; File c:\program files (x86)\microsoft visual studio 14.0\vc\include\vector
;	COMDAT ??D?$_Vector_iterator@V?$_Vector_val@U?$_Simple_types@U_stMonsterIndexInfo@@@std@@@std@@@std@@QBEAAU_stMonsterIndexInfo@@XZ
_TEXT	SEGMENT
??D?$_Vector_iterator@V?$_Vector_val@U?$_Simple_types@U_stMonsterIndexInfo@@@std@@@std@@@std@@QBEAAU_stMonsterIndexInfo@@XZ PROC ; std::_Vector_iterator<std::_Vector_val<std::_Simple_types<_stMonsterIndexInfo> > >::operator*, COMDAT
; _this$ = ecx

; 325  : 		return ((reference)**(_Mybase *)this);

  00000	8b 01		 mov	 eax, DWORD PTR [ecx]

; 326  : 		}

  00002	c3		 ret	 0
??D?$_Vector_iterator@V?$_Vector_val@U?$_Simple_types@U_stMonsterIndexInfo@@@std@@@std@@@std@@QBEAAU_stMonsterIndexInfo@@XZ ENDP ; std::_Vector_iterator<std::_Vector_val<std::_Simple_types<_stMonsterIndexInfo> > >::operator*
_TEXT	ENDS
; Function compile flags: /Ogtp
; File c:\program files (x86)\microsoft visual studio 14.0\vc\include\vector
;	COMDAT ??0?$_Vector_iterator@V?$_Vector_val@U?$_Simple_types@U_stMonsterIndexInfo@@@std@@@std@@@std@@QAE@PAU_stMonsterIndexInfo@@PBU_Container_base0@1@@Z
_TEXT	SEGMENT
__Parg$ = 8						; size = 4
__Pvector$ = 12						; size = 4
??0?$_Vector_iterator@V?$_Vector_val@U?$_Simple_types@U_stMonsterIndexInfo@@@std@@@std@@@std@@QAE@PAU_stMonsterIndexInfo@@PBU_Container_base0@1@@Z PROC ; std::_Vector_iterator<std::_Vector_val<std::_Simple_types<_stMonsterIndexInfo> > >::_Vector_iterator<std::_Vector_val<std::_Simple_types<_stMonsterIndexInfo> > >, COMDAT
; _this$ = ecx

; 307  : 		{	// construct with pointer _Parg

  00000	55		 push	 ebp
  00001	8b ec		 mov	 ebp, esp

; 46   : 		: _Ptr(_Parg)

  00003	8b 45 08	 mov	 eax, DWORD PTR __Parg$[ebp]
  00006	89 01		 mov	 DWORD PTR [ecx], eax

; 308  : 		}

  00008	8b c1		 mov	 eax, ecx
  0000a	5d		 pop	 ebp
  0000b	c2 08 00	 ret	 8
??0?$_Vector_iterator@V?$_Vector_val@U?$_Simple_types@U_stMonsterIndexInfo@@@std@@@std@@@std@@QAE@PAU_stMonsterIndexInfo@@PBU_Container_base0@1@@Z ENDP ; std::_Vector_iterator<std::_Vector_val<std::_Simple_types<_stMonsterIndexInfo> > >::_Vector_iterator<std::_Vector_val<std::_Simple_types<_stMonsterIndexInfo> > >
_TEXT	ENDS
; Function compile flags: /Ogtp
; File c:\program files (x86)\microsoft visual studio 14.0\vc\include\vector
;	COMDAT ?_Compat@?$_Vector_const_iterator@V?$_Vector_val@U?$_Simple_types@U_stMonsterIndexInfo@@@std@@@std@@@std@@QBEXABV12@@Z
_TEXT	SEGMENT
___formal$ = 8						; size = 4
?_Compat@?$_Vector_const_iterator@V?$_Vector_val@U?$_Simple_types@U_stMonsterIndexInfo@@@std@@@std@@@std@@QBEXABV12@@Z PROC ; std::_Vector_const_iterator<std::_Vector_val<std::_Simple_types<_stMonsterIndexInfo> > >::_Compat, COMDAT
; _this$ = ecx

; 256  : 		}

  00000	c2 04 00	 ret	 4
?_Compat@?$_Vector_const_iterator@V?$_Vector_val@U?$_Simple_types@U_stMonsterIndexInfo@@@std@@@std@@@std@@QBEXABV12@@Z ENDP ; std::_Vector_const_iterator<std::_Vector_val<std::_Simple_types<_stMonsterIndexInfo> > >::_Compat
_TEXT	ENDS
; Function compile flags: /Ogtp
; File c:\program files (x86)\microsoft visual studio 14.0\vc\include\vector
;	COMDAT ??9?$_Vector_const_iterator@V?$_Vector_val@U?$_Simple_types@U_stMonsterIndexInfo@@@std@@@std@@@std@@QBE_NABV01@@Z
_TEXT	SEGMENT
__Right$ = 8						; size = 4
??9?$_Vector_const_iterator@V?$_Vector_val@U?$_Simple_types@U_stMonsterIndexInfo@@@std@@@std@@@std@@QBE_NABV01@@Z PROC ; std::_Vector_const_iterator<std::_Vector_val<std::_Simple_types<_stMonsterIndexInfo> > >::operator!=, COMDAT
; _this$ = ecx

; 210  : 		{	// test for iterator inequality

  00000	55		 push	 ebp
  00001	8b ec		 mov	 ebp, esp

; 206  : 		return (this->_Ptr == _Right._Ptr);

  00003	8b 11		 mov	 edx, DWORD PTR [ecx]

; 211  : 		return (!(*this == _Right));

  00005	33 c0		 xor	 eax, eax

; 206  : 		return (this->_Ptr == _Right._Ptr);

  00007	8b 4d 08	 mov	 ecx, DWORD PTR __Right$[ebp]
  0000a	3b 11		 cmp	 edx, DWORD PTR [ecx]

; 211  : 		return (!(*this == _Right));

  0000c	0f 95 c0	 setne	 al

; 212  : 		}

  0000f	5d		 pop	 ebp
  00010	c2 04 00	 ret	 4
??9?$_Vector_const_iterator@V?$_Vector_val@U?$_Simple_types@U_stMonsterIndexInfo@@@std@@@std@@@std@@QBE_NABV01@@Z ENDP ; std::_Vector_const_iterator<std::_Vector_val<std::_Simple_types<_stMonsterIndexInfo> > >::operator!=
_TEXT	ENDS
; Function compile flags: /Ogtp
; File c:\program files (x86)\microsoft visual studio 14.0\vc\include\vector
;	COMDAT ??8?$_Vector_const_iterator@V?$_Vector_val@U?$_Simple_types@U_stMonsterIndexInfo@@@std@@@std@@@std@@QBE_NABV01@@Z
_TEXT	SEGMENT
__Right$ = 8						; size = 4
??8?$_Vector_const_iterator@V?$_Vector_val@U?$_Simple_types@U_stMonsterIndexInfo@@@std@@@std@@@std@@QBE_NABV01@@Z PROC ; std::_Vector_const_iterator<std::_Vector_val<std::_Simple_types<_stMonsterIndexInfo> > >::operator==, COMDAT
; _this$ = ecx

; 203  : 		{	// test for iterator equality

  00000	55		 push	 ebp
  00001	8b ec		 mov	 ebp, esp

; 204  : 		if (this->_Getcont() != _Right._Getcont())
; 205  : 			_Compat(_Right);
; 206  : 		return (this->_Ptr == _Right._Ptr);

  00003	8b 11		 mov	 edx, DWORD PTR [ecx]
  00005	33 c0		 xor	 eax, eax
  00007	8b 4d 08	 mov	 ecx, DWORD PTR __Right$[ebp]
  0000a	3b 11		 cmp	 edx, DWORD PTR [ecx]
  0000c	0f 94 c0	 sete	 al

; 207  : 		}

  0000f	5d		 pop	 ebp
  00010	c2 04 00	 ret	 4
??8?$_Vector_const_iterator@V?$_Vector_val@U?$_Simple_types@U_stMonsterIndexInfo@@@std@@@std@@@std@@QBE_NABV01@@Z ENDP ; std::_Vector_const_iterator<std::_Vector_val<std::_Simple_types<_stMonsterIndexInfo> > >::operator==
_TEXT	ENDS
; Function compile flags: /Ogtp
; File c:\program files (x86)\microsoft visual studio 14.0\vc\include\vector
;	COMDAT ??E?$_Vector_const_iterator@V?$_Vector_val@U?$_Simple_types@U_stMonsterIndexInfo@@@std@@@std@@@std@@QAEAAV01@XZ
_TEXT	SEGMENT
??E?$_Vector_const_iterator@V?$_Vector_val@U?$_Simple_types@U_stMonsterIndexInfo@@@std@@@std@@@std@@QAEAAV01@XZ PROC ; std::_Vector_const_iterator<std::_Vector_val<std::_Simple_types<_stMonsterIndexInfo> > >::operator++, COMDAT
; _this$ = ecx

; 96   :  #if _ITERATOR_DEBUG_LEVEL == 2
; 97   : 		if (this->_Getcont() == 0
; 98   : 			|| this->_Ptr == 0
; 99   : 			|| ((_Myvec *)this->_Getcont())->_Mylast <= this->_Ptr)
; 100  : 			{	// report error
; 101  : 			_DEBUG_ERROR("vector iterator not incrementable");
; 102  : 			_SCL_SECURE_OUT_OF_RANGE;
; 103  : 			}
; 104  : 
; 105  :  #elif _ITERATOR_DEBUG_LEVEL == 1
; 106  : 		_SCL_SECURE_VALIDATE(this->_Getcont() != 0);
; 107  : 		_SCL_SECURE_VALIDATE_RANGE(
; 108  : 			this->_Ptr != _Tptr()
; 109  : 			&& this->_Ptr < ((_Myvec *)this->_Getcont())->_Mylast);
; 110  :  #endif /* _ITERATOR_DEBUG_LEVEL */
; 111  : 
; 112  : 		++this->_Ptr;

  00000	83 01 08	 add	 DWORD PTR [ecx], 8

; 113  : 		return (*this);

  00003	8b c1		 mov	 eax, ecx

; 114  : 		}

  00005	c3		 ret	 0
??E?$_Vector_const_iterator@V?$_Vector_val@U?$_Simple_types@U_stMonsterIndexInfo@@@std@@@std@@@std@@QAEAAV01@XZ ENDP ; std::_Vector_const_iterator<std::_Vector_val<std::_Simple_types<_stMonsterIndexInfo> > >::operator++
_TEXT	ENDS
; Function compile flags: /Ogtp
; File c:\program files (x86)\microsoft visual studio 14.0\vc\include\vector
;	COMDAT ??D?$_Vector_const_iterator@V?$_Vector_val@U?$_Simple_types@U_stMonsterIndexInfo@@@std@@@std@@@std@@QBEABU_stMonsterIndexInfo@@XZ
_TEXT	SEGMENT
??D?$_Vector_const_iterator@V?$_Vector_val@U?$_Simple_types@U_stMonsterIndexInfo@@@std@@@std@@@std@@QBEABU_stMonsterIndexInfo@@XZ PROC ; std::_Vector_const_iterator<std::_Vector_val<std::_Simple_types<_stMonsterIndexInfo> > >::operator*, COMDAT
; _this$ = ecx

; 66   :  #if _ITERATOR_DEBUG_LEVEL == 2
; 67   : 		if (this->_Getcont() == 0
; 68   : 			|| this->_Ptr == 0
; 69   : 			|| this->_Ptr < ((_Myvec *)this->_Getcont())->_Myfirst
; 70   : 			|| ((_Myvec *)this->_Getcont())->_Mylast <= this->_Ptr)
; 71   : 			{	// report error
; 72   : 			_DEBUG_ERROR("vector iterator not dereferencable");
; 73   : 			_SCL_SECURE_OUT_OF_RANGE;
; 74   : 			}
; 75   : 
; 76   :  #elif _ITERATOR_DEBUG_LEVEL == 1
; 77   : 		_SCL_SECURE_VALIDATE(this->_Getcont() != 0);
; 78   : 		_SCL_SECURE_VALIDATE_RANGE(
; 79   : 			this->_Ptr != _Tptr()
; 80   : 			&& ((_Myvec *)this->_Getcont())->_Myfirst <= this->_Ptr
; 81   : 			&& this->_Ptr < ((_Myvec *)this->_Getcont())->_Mylast);
; 82   :  #endif /* _ITERATOR_DEBUG_LEVEL */
; 83   : 
; 84   : 		_Analysis_assume_(this->_Ptr != _Tptr());
; 85   : 
; 86   : 		return (*this->_Ptr);

  00000	8b 01		 mov	 eax, DWORD PTR [ecx]

; 87   : 		}

  00002	c3		 ret	 0
??D?$_Vector_const_iterator@V?$_Vector_val@U?$_Simple_types@U_stMonsterIndexInfo@@@std@@@std@@@std@@QBEABU_stMonsterIndexInfo@@XZ ENDP ; std::_Vector_const_iterator<std::_Vector_val<std::_Simple_types<_stMonsterIndexInfo> > >::operator*
_TEXT	ENDS
; Function compile flags: /Ogtp
; File c:\program files (x86)\microsoft visual studio 14.0\vc\include\vector
;	COMDAT ?_Unchecked@?$_Vector_const_iterator@V?$_Vector_val@U?$_Simple_types@U_stMonsterIndexInfo@@@std@@@std@@@std@@QBEPBU_stMonsterIndexInfo@@XZ
_TEXT	SEGMENT
?_Unchecked@?$_Vector_const_iterator@V?$_Vector_val@U?$_Simple_types@U_stMonsterIndexInfo@@@std@@@std@@@std@@QBEPBU_stMonsterIndexInfo@@XZ PROC ; std::_Vector_const_iterator<std::_Vector_val<std::_Simple_types<_stMonsterIndexInfo> > >::_Unchecked, COMDAT
; _this$ = ecx

; 61   : 		return (_Unchecked_type(this->_Ptr));

  00000	8b 01		 mov	 eax, DWORD PTR [ecx]

; 62   : 		}

  00002	c3		 ret	 0
?_Unchecked@?$_Vector_const_iterator@V?$_Vector_val@U?$_Simple_types@U_stMonsterIndexInfo@@@std@@@std@@@std@@QBEPBU_stMonsterIndexInfo@@XZ ENDP ; std::_Vector_const_iterator<std::_Vector_val<std::_Simple_types<_stMonsterIndexInfo> > >::_Unchecked
_TEXT	ENDS
; Function compile flags: /Ogtp
; File c:\program files (x86)\microsoft visual studio 14.0\vc\include\vector
;	COMDAT ??0?$_Vector_const_iterator@V?$_Vector_val@U?$_Simple_types@U_stMonsterIndexInfo@@@std@@@std@@@std@@QAE@PAU_stMonsterIndexInfo@@PBU_Container_base0@1@@Z
_TEXT	SEGMENT
__Parg$ = 8						; size = 4
__Pvector$ = 12						; size = 4
??0?$_Vector_const_iterator@V?$_Vector_val@U?$_Simple_types@U_stMonsterIndexInfo@@@std@@@std@@@std@@QAE@PAU_stMonsterIndexInfo@@PBU_Container_base0@1@@Z PROC ; std::_Vector_const_iterator<std::_Vector_val<std::_Simple_types<_stMonsterIndexInfo> > >::_Vector_const_iterator<std::_Vector_val<std::_Simple_types<_stMonsterIndexInfo> > >, COMDAT
; _this$ = ecx

; 47   : 		{	// construct with pointer _Parg

  00000	55		 push	 ebp
  00001	8b ec		 mov	 ebp, esp

; 46   : 		: _Ptr(_Parg)

  00003	8b 45 08	 mov	 eax, DWORD PTR __Parg$[ebp]
  00006	89 01		 mov	 DWORD PTR [ecx], eax

; 48   : 		this->_Adopt(_Pvector);
; 49   : 		}

  00008	8b c1		 mov	 eax, ecx
  0000a	5d		 pop	 ebp
  0000b	c2 08 00	 ret	 8
??0?$_Vector_const_iterator@V?$_Vector_val@U?$_Simple_types@U_stMonsterIndexInfo@@@std@@@std@@@std@@QAE@PAU_stMonsterIndexInfo@@PBU_Container_base0@1@@Z ENDP ; std::_Vector_const_iterator<std::_Vector_val<std::_Simple_types<_stMonsterIndexInfo> > >::_Vector_const_iterator<std::_Vector_val<std::_Simple_types<_stMonsterIndexInfo> > >
_TEXT	ENDS
; Function compile flags: /Ogtp
; File c:\program files (x86)\microsoft visual studio 14.0\vc\include\vector
;	COMDAT ??E?$_Vector_iterator@V?$_Vector_val@U?$_Simple_types@H@std@@@std@@@std@@QAE?AV01@H@Z
_TEXT	SEGMENT
___$ReturnUdt$ = 8					; size = 4
___formal$ = 12						; size = 4
??E?$_Vector_iterator@V?$_Vector_val@U?$_Simple_types@H@std@@@std@@@std@@QAE?AV01@H@Z PROC ; std::_Vector_iterator<std::_Vector_val<std::_Simple_types<int> > >::operator++, COMDAT
; _this$ = ecx

; 340  : 		{	// postincrement

  00000	55		 push	 ebp
  00001	8b ec		 mov	 ebp, esp

; 341  : 		_Myiter _Tmp = *this;

  00003	8b 45 08	 mov	 eax, DWORD PTR ___$ReturnUdt$[ebp]
  00006	8b 11		 mov	 edx, DWORD PTR [ecx]
  00008	89 10		 mov	 DWORD PTR [eax], edx

; 112  : 		++this->_Ptr;

  0000a	83 c2 04	 add	 edx, 4
  0000d	89 11		 mov	 DWORD PTR [ecx], edx

; 342  : 		++*this;
; 343  : 		return (_Tmp);
; 344  : 		}

  0000f	5d		 pop	 ebp
  00010	c2 08 00	 ret	 8
??E?$_Vector_iterator@V?$_Vector_val@U?$_Simple_types@H@std@@@std@@@std@@QAE?AV01@H@Z ENDP ; std::_Vector_iterator<std::_Vector_val<std::_Simple_types<int> > >::operator++
_TEXT	ENDS
; Function compile flags: /Ogtp
; File c:\program files (x86)\microsoft visual studio 14.0\vc\include\vector
;	COMDAT ??E?$_Vector_iterator@V?$_Vector_val@U?$_Simple_types@H@std@@@std@@@std@@QAEAAV01@XZ
_TEXT	SEGMENT
??E?$_Vector_iterator@V?$_Vector_val@U?$_Simple_types@H@std@@@std@@@std@@QAEAAV01@XZ PROC ; std::_Vector_iterator<std::_Vector_val<std::_Simple_types<int> > >::operator++, COMDAT
; _this$ = ecx

; 112  : 		++this->_Ptr;

  00000	83 01 04	 add	 DWORD PTR [ecx], 4

; 335  : 		++*(_Mybase *)this;
; 336  : 		return (*this);

  00003	8b c1		 mov	 eax, ecx

; 337  : 		}

  00005	c3		 ret	 0
??E?$_Vector_iterator@V?$_Vector_val@U?$_Simple_types@H@std@@@std@@@std@@QAEAAV01@XZ ENDP ; std::_Vector_iterator<std::_Vector_val<std::_Simple_types<int> > >::operator++
_TEXT	ENDS
; Function compile flags: /Ogtp
; File c:\program files (x86)\microsoft visual studio 14.0\vc\include\vector
;	COMDAT ??D?$_Vector_iterator@V?$_Vector_val@U?$_Simple_types@H@std@@@std@@@std@@QBEAAHXZ
_TEXT	SEGMENT
??D?$_Vector_iterator@V?$_Vector_val@U?$_Simple_types@H@std@@@std@@@std@@QBEAAHXZ PROC ; std::_Vector_iterator<std::_Vector_val<std::_Simple_types<int> > >::operator*, COMDAT
; _this$ = ecx

; 325  : 		return ((reference)**(_Mybase *)this);

  00000	8b 01		 mov	 eax, DWORD PTR [ecx]

; 326  : 		}

  00002	c3		 ret	 0
??D?$_Vector_iterator@V?$_Vector_val@U?$_Simple_types@H@std@@@std@@@std@@QBEAAHXZ ENDP ; std::_Vector_iterator<std::_Vector_val<std::_Simple_types<int> > >::operator*
_TEXT	ENDS
; Function compile flags: /Ogtp
; File c:\program files (x86)\microsoft visual studio 14.0\vc\include\vector
;	COMDAT ??0?$_Vector_iterator@V?$_Vector_val@U?$_Simple_types@H@std@@@std@@@std@@QAE@PAHPBU_Container_base0@1@@Z
_TEXT	SEGMENT
__Parg$ = 8						; size = 4
__Pvector$ = 12						; size = 4
??0?$_Vector_iterator@V?$_Vector_val@U?$_Simple_types@H@std@@@std@@@std@@QAE@PAHPBU_Container_base0@1@@Z PROC ; std::_Vector_iterator<std::_Vector_val<std::_Simple_types<int> > >::_Vector_iterator<std::_Vector_val<std::_Simple_types<int> > >, COMDAT
; _this$ = ecx

; 307  : 		{	// construct with pointer _Parg

  00000	55		 push	 ebp
  00001	8b ec		 mov	 ebp, esp

; 46   : 		: _Ptr(_Parg)

  00003	8b 45 08	 mov	 eax, DWORD PTR __Parg$[ebp]
  00006	89 01		 mov	 DWORD PTR [ecx], eax

; 308  : 		}

  00008	8b c1		 mov	 eax, ecx
  0000a	5d		 pop	 ebp
  0000b	c2 08 00	 ret	 8
??0?$_Vector_iterator@V?$_Vector_val@U?$_Simple_types@H@std@@@std@@@std@@QAE@PAHPBU_Container_base0@1@@Z ENDP ; std::_Vector_iterator<std::_Vector_val<std::_Simple_types<int> > >::_Vector_iterator<std::_Vector_val<std::_Simple_types<int> > >
_TEXT	ENDS
; Function compile flags: /Ogtp
; File c:\program files (x86)\microsoft visual studio 14.0\vc\include\vector
;	COMDAT ?_Compat@?$_Vector_const_iterator@V?$_Vector_val@U?$_Simple_types@H@std@@@std@@@std@@QBEXABV12@@Z
_TEXT	SEGMENT
___formal$ = 8						; size = 4
?_Compat@?$_Vector_const_iterator@V?$_Vector_val@U?$_Simple_types@H@std@@@std@@@std@@QBEXABV12@@Z PROC ; std::_Vector_const_iterator<std::_Vector_val<std::_Simple_types<int> > >::_Compat, COMDAT
; _this$ = ecx

; 256  : 		}

  00000	c2 04 00	 ret	 4
?_Compat@?$_Vector_const_iterator@V?$_Vector_val@U?$_Simple_types@H@std@@@std@@@std@@QBEXABV12@@Z ENDP ; std::_Vector_const_iterator<std::_Vector_val<std::_Simple_types<int> > >::_Compat
_TEXT	ENDS
; Function compile flags: /Ogtp
; File c:\program files (x86)\microsoft visual studio 14.0\vc\include\vector
;	COMDAT ??9?$_Vector_const_iterator@V?$_Vector_val@U?$_Simple_types@H@std@@@std@@@std@@QBE_NABV01@@Z
_TEXT	SEGMENT
__Right$ = 8						; size = 4
??9?$_Vector_const_iterator@V?$_Vector_val@U?$_Simple_types@H@std@@@std@@@std@@QBE_NABV01@@Z PROC ; std::_Vector_const_iterator<std::_Vector_val<std::_Simple_types<int> > >::operator!=, COMDAT
; _this$ = ecx

; 210  : 		{	// test for iterator inequality

  00000	55		 push	 ebp
  00001	8b ec		 mov	 ebp, esp

; 206  : 		return (this->_Ptr == _Right._Ptr);

  00003	8b 11		 mov	 edx, DWORD PTR [ecx]

; 211  : 		return (!(*this == _Right));

  00005	33 c0		 xor	 eax, eax

; 206  : 		return (this->_Ptr == _Right._Ptr);

  00007	8b 4d 08	 mov	 ecx, DWORD PTR __Right$[ebp]
  0000a	3b 11		 cmp	 edx, DWORD PTR [ecx]

; 211  : 		return (!(*this == _Right));

  0000c	0f 95 c0	 setne	 al

; 212  : 		}

  0000f	5d		 pop	 ebp
  00010	c2 04 00	 ret	 4
??9?$_Vector_const_iterator@V?$_Vector_val@U?$_Simple_types@H@std@@@std@@@std@@QBE_NABV01@@Z ENDP ; std::_Vector_const_iterator<std::_Vector_val<std::_Simple_types<int> > >::operator!=
_TEXT	ENDS
; Function compile flags: /Ogtp
; File c:\program files (x86)\microsoft visual studio 14.0\vc\include\vector
;	COMDAT ??8?$_Vector_const_iterator@V?$_Vector_val@U?$_Simple_types@H@std@@@std@@@std@@QBE_NABV01@@Z
_TEXT	SEGMENT
__Right$ = 8						; size = 4
??8?$_Vector_const_iterator@V?$_Vector_val@U?$_Simple_types@H@std@@@std@@@std@@QBE_NABV01@@Z PROC ; std::_Vector_const_iterator<std::_Vector_val<std::_Simple_types<int> > >::operator==, COMDAT
; _this$ = ecx

; 203  : 		{	// test for iterator equality

  00000	55		 push	 ebp
  00001	8b ec		 mov	 ebp, esp

; 204  : 		if (this->_Getcont() != _Right._Getcont())
; 205  : 			_Compat(_Right);
; 206  : 		return (this->_Ptr == _Right._Ptr);

  00003	8b 11		 mov	 edx, DWORD PTR [ecx]
  00005	33 c0		 xor	 eax, eax
  00007	8b 4d 08	 mov	 ecx, DWORD PTR __Right$[ebp]
  0000a	3b 11		 cmp	 edx, DWORD PTR [ecx]
  0000c	0f 94 c0	 sete	 al

; 207  : 		}

  0000f	5d		 pop	 ebp
  00010	c2 04 00	 ret	 4
??8?$_Vector_const_iterator@V?$_Vector_val@U?$_Simple_types@H@std@@@std@@@std@@QBE_NABV01@@Z ENDP ; std::_Vector_const_iterator<std::_Vector_val<std::_Simple_types<int> > >::operator==
_TEXT	ENDS
; Function compile flags: /Ogtp
; File c:\program files (x86)\microsoft visual studio 14.0\vc\include\vector
;	COMDAT ??E?$_Vector_const_iterator@V?$_Vector_val@U?$_Simple_types@H@std@@@std@@@std@@QAEAAV01@XZ
_TEXT	SEGMENT
??E?$_Vector_const_iterator@V?$_Vector_val@U?$_Simple_types@H@std@@@std@@@std@@QAEAAV01@XZ PROC ; std::_Vector_const_iterator<std::_Vector_val<std::_Simple_types<int> > >::operator++, COMDAT
; _this$ = ecx

; 96   :  #if _ITERATOR_DEBUG_LEVEL == 2
; 97   : 		if (this->_Getcont() == 0
; 98   : 			|| this->_Ptr == 0
; 99   : 			|| ((_Myvec *)this->_Getcont())->_Mylast <= this->_Ptr)
; 100  : 			{	// report error
; 101  : 			_DEBUG_ERROR("vector iterator not incrementable");
; 102  : 			_SCL_SECURE_OUT_OF_RANGE;
; 103  : 			}
; 104  : 
; 105  :  #elif _ITERATOR_DEBUG_LEVEL == 1
; 106  : 		_SCL_SECURE_VALIDATE(this->_Getcont() != 0);
; 107  : 		_SCL_SECURE_VALIDATE_RANGE(
; 108  : 			this->_Ptr != _Tptr()
; 109  : 			&& this->_Ptr < ((_Myvec *)this->_Getcont())->_Mylast);
; 110  :  #endif /* _ITERATOR_DEBUG_LEVEL */
; 111  : 
; 112  : 		++this->_Ptr;

  00000	83 01 04	 add	 DWORD PTR [ecx], 4

; 113  : 		return (*this);

  00003	8b c1		 mov	 eax, ecx

; 114  : 		}

  00005	c3		 ret	 0
??E?$_Vector_const_iterator@V?$_Vector_val@U?$_Simple_types@H@std@@@std@@@std@@QAEAAV01@XZ ENDP ; std::_Vector_const_iterator<std::_Vector_val<std::_Simple_types<int> > >::operator++
_TEXT	ENDS
; Function compile flags: /Ogtp
; File c:\program files (x86)\microsoft visual studio 14.0\vc\include\vector
;	COMDAT ??D?$_Vector_const_iterator@V?$_Vector_val@U?$_Simple_types@H@std@@@std@@@std@@QBEABHXZ
_TEXT	SEGMENT
??D?$_Vector_const_iterator@V?$_Vector_val@U?$_Simple_types@H@std@@@std@@@std@@QBEABHXZ PROC ; std::_Vector_const_iterator<std::_Vector_val<std::_Simple_types<int> > >::operator*, COMDAT
; _this$ = ecx

; 66   :  #if _ITERATOR_DEBUG_LEVEL == 2
; 67   : 		if (this->_Getcont() == 0
; 68   : 			|| this->_Ptr == 0
; 69   : 			|| this->_Ptr < ((_Myvec *)this->_Getcont())->_Myfirst
; 70   : 			|| ((_Myvec *)this->_Getcont())->_Mylast <= this->_Ptr)
; 71   : 			{	// report error
; 72   : 			_DEBUG_ERROR("vector iterator not dereferencable");
; 73   : 			_SCL_SECURE_OUT_OF_RANGE;
; 74   : 			}
; 75   : 
; 76   :  #elif _ITERATOR_DEBUG_LEVEL == 1
; 77   : 		_SCL_SECURE_VALIDATE(this->_Getcont() != 0);
; 78   : 		_SCL_SECURE_VALIDATE_RANGE(
; 79   : 			this->_Ptr != _Tptr()
; 80   : 			&& ((_Myvec *)this->_Getcont())->_Myfirst <= this->_Ptr
; 81   : 			&& this->_Ptr < ((_Myvec *)this->_Getcont())->_Mylast);
; 82   :  #endif /* _ITERATOR_DEBUG_LEVEL */
; 83   : 
; 84   : 		_Analysis_assume_(this->_Ptr != _Tptr());
; 85   : 
; 86   : 		return (*this->_Ptr);

  00000	8b 01		 mov	 eax, DWORD PTR [ecx]

; 87   : 		}

  00002	c3		 ret	 0
??D?$_Vector_const_iterator@V?$_Vector_val@U?$_Simple_types@H@std@@@std@@@std@@QBEABHXZ ENDP ; std::_Vector_const_iterator<std::_Vector_val<std::_Simple_types<int> > >::operator*
_TEXT	ENDS
; Function compile flags: /Ogtp
; File c:\program files (x86)\microsoft visual studio 14.0\vc\include\vector
;	COMDAT ?_Unchecked@?$_Vector_const_iterator@V?$_Vector_val@U?$_Simple_types@H@std@@@std@@@std@@QBEPBHXZ
_TEXT	SEGMENT
?_Unchecked@?$_Vector_const_iterator@V?$_Vector_val@U?$_Simple_types@H@std@@@std@@@std@@QBEPBHXZ PROC ; std::_Vector_const_iterator<std::_Vector_val<std::_Simple_types<int> > >::_Unchecked, COMDAT
; _this$ = ecx

; 61   : 		return (_Unchecked_type(this->_Ptr));

  00000	8b 01		 mov	 eax, DWORD PTR [ecx]

; 62   : 		}

  00002	c3		 ret	 0
?_Unchecked@?$_Vector_const_iterator@V?$_Vector_val@U?$_Simple_types@H@std@@@std@@@std@@QBEPBHXZ ENDP ; std::_Vector_const_iterator<std::_Vector_val<std::_Simple_types<int> > >::_Unchecked
_TEXT	ENDS
; Function compile flags: /Ogtp
; File c:\program files (x86)\microsoft visual studio 14.0\vc\include\vector
;	COMDAT ??0?$_Vector_const_iterator@V?$_Vector_val@U?$_Simple_types@H@std@@@std@@@std@@QAE@PAHPBU_Container_base0@1@@Z
_TEXT	SEGMENT
__Parg$ = 8						; size = 4
__Pvector$ = 12						; size = 4
??0?$_Vector_const_iterator@V?$_Vector_val@U?$_Simple_types@H@std@@@std@@@std@@QAE@PAHPBU_Container_base0@1@@Z PROC ; std::_Vector_const_iterator<std::_Vector_val<std::_Simple_types<int> > >::_Vector_const_iterator<std::_Vector_val<std::_Simple_types<int> > >, COMDAT
; _this$ = ecx

; 47   : 		{	// construct with pointer _Parg

  00000	55		 push	 ebp
  00001	8b ec		 mov	 ebp, esp

; 46   : 		: _Ptr(_Parg)

  00003	8b 45 08	 mov	 eax, DWORD PTR __Parg$[ebp]
  00006	89 01		 mov	 DWORD PTR [ecx], eax

; 48   : 		this->_Adopt(_Pvector);
; 49   : 		}

  00008	8b c1		 mov	 eax, ecx
  0000a	5d		 pop	 ebp
  0000b	c2 08 00	 ret	 8
??0?$_Vector_const_iterator@V?$_Vector_val@U?$_Simple_types@H@std@@@std@@@std@@QAE@PAHPBU_Container_base0@1@@Z ENDP ; std::_Vector_const_iterator<std::_Vector_val<std::_Simple_types<int> > >::_Vector_const_iterator<std::_Vector_val<std::_Simple_types<int> > >
_TEXT	ENDS
; Function compile flags: /Ogtp
;	COMDAT ??__Fg_ImperialGuardian@@YAXXZ
text$yd	SEGMENT
??__Fg_ImperialGuardian@@YAXXZ PROC			; `dynamic atexit destructor for 'g_ImperialGuardian'', COMDAT
  00000	b9 00 00 00 00	 mov	 ecx, OFFSET ?g_ImperialGuardian@@3VCImperialGuardian@@A ; g_ImperialGuardian
  00005	e9 00 00 00 00	 jmp	 ??1CImperialGuardian@@UAE@XZ ; CImperialGuardian::~CImperialGuardian
??__Fg_ImperialGuardian@@YAXXZ ENDP			; `dynamic atexit destructor for 'g_ImperialGuardian''
text$yd	ENDS
; Function compile flags: /Ogtp
; File c:\users\michel\desktop\source\gameserver\source\imperialguardian.cpp
;	COMDAT ??__Eg_ImperialGuardian@@YAXXZ
text$di	SEGMENT
??__Eg_ImperialGuardian@@YAXXZ PROC			; `dynamic initializer for 'g_ImperialGuardian'', COMDAT

; 20   : CImperialGuardian g_ImperialGuardian;

  00000	b9 00 00 00 00	 mov	 ecx, OFFSET ?g_ImperialGuardian@@3VCImperialGuardian@@A ; g_ImperialGuardian
  00005	e8 00 00 00 00	 call	 ??0CImperialGuardian@@QAE@XZ ; CImperialGuardian::CImperialGuardian
  0000a	68 00 00 00 00	 push	 OFFSET ??__Fg_ImperialGuardian@@YAXXZ ; `dynamic atexit destructor for 'g_ImperialGuardian''
  0000f	e8 00 00 00 00	 call	 _atexit
  00014	59		 pop	 ecx
  00015	c3		 ret	 0
??__Eg_ImperialGuardian@@YAXXZ ENDP			; `dynamic initializer for 'g_ImperialGuardian''
text$di	ENDS
; Function compile flags: /Ogtp
; File c:\users\michel\desktop\source\gameserver\source\imperialguardian.cpp
;	COMDAT ?gGetPartyMaxLevel@@YAHH@Z
_TEXT	SEGMENT
_nPartyNumber$ = 8					; size = 4
?gGetPartyMaxLevel@@YAHH@Z PROC				; gGetPartyMaxLevel, COMDAT

; 2566 : {

  00000	55		 push	 ebp
  00001	8b ec		 mov	 ebp, esp

; 2567 : 	int nResult = -1;
; 2568 : 	int nLevel = 0;
; 2569 : 
; 2570 : 	for(int i = 0; i < MAX_USER_IN_PARTY; i++)
; 2571 : 	{
; 2572 : 		if( gParty.m_PartyS[nPartyNumber].Number[i] > 0 )

  00003	8b 55 08	 mov	 edx, DWORD PTR _nPartyNumber$[ebp]
  00006	c1 e2 04	 shl	 edx, 4
  00009	2b 55 08	 sub	 edx, DWORD PTR _nPartyNumber$[ebp]
  0000c	56		 push	 esi
  0000d	83 ce ff	 or	 esi, -1
  00010	57		 push	 edi
  00011	8b 04 95 0c 00
	00 00		 mov	 eax, DWORD PTR ?gParty@@3VPartyClass@@A[edx*4+12]
  00018	8b 3d 00 00 00
	00		 mov	 edi, DWORD PTR ?gObj@@3PAUOBJECTSTRUCT@@A ; gObj
  0001e	85 c0		 test	 eax, eax
  00020	7e 1d		 jle	 SHORT $LN2@gGetPartyM

; 2573 : 		{
; 2574 : 			int nUserIndex = gParty.m_PartyS[nPartyNumber].Number[i];
; 2575 : 			nLevel = gObj[nUserIndex].Level + gObj[nUserIndex].MasterLevel;

  00022	69 c0 40 27 00
	00		 imul	 eax, eax, 10048
  00028	0f bf 8c 38 a8
	00 00 00	 movsx	 ecx, WORD PTR [eax+edi+168]
  00030	0f bf 84 38 96
	00 00 00	 movsx	 eax, WORD PTR [eax+edi+150]
  00038	03 c8		 add	 ecx, eax

; 2576 : 
; 2577 : 			if( nResult < nLevel )

  0003a	3b ce		 cmp	 ecx, esi
  0003c	0f 4f f1	 cmovg	 esi, ecx
$LN2@gGetPartyM:

; 2567 : 	int nResult = -1;
; 2568 : 	int nLevel = 0;
; 2569 : 
; 2570 : 	for(int i = 0; i < MAX_USER_IN_PARTY; i++)
; 2571 : 	{
; 2572 : 		if( gParty.m_PartyS[nPartyNumber].Number[i] > 0 )

  0003f	8b 04 95 10 00
	00 00		 mov	 eax, DWORD PTR ?gParty@@3VPartyClass@@A[edx*4+16]
  00046	85 c0		 test	 eax, eax
  00048	7e 1d		 jle	 SHORT $LN15@gGetPartyM

; 2573 : 		{
; 2574 : 			int nUserIndex = gParty.m_PartyS[nPartyNumber].Number[i];
; 2575 : 			nLevel = gObj[nUserIndex].Level + gObj[nUserIndex].MasterLevel;

  0004a	69 c0 40 27 00
	00		 imul	 eax, eax, 10048
  00050	0f bf 8c 38 a8
	00 00 00	 movsx	 ecx, WORD PTR [eax+edi+168]
  00058	0f bf 84 38 96
	00 00 00	 movsx	 eax, WORD PTR [eax+edi+150]
  00060	03 c8		 add	 ecx, eax

; 2576 : 
; 2577 : 			if( nResult < nLevel )

  00062	3b f1		 cmp	 esi, ecx
  00064	0f 4c f1	 cmovl	 esi, ecx
$LN15@gGetPartyM:

; 2567 : 	int nResult = -1;
; 2568 : 	int nLevel = 0;
; 2569 : 
; 2570 : 	for(int i = 0; i < MAX_USER_IN_PARTY; i++)
; 2571 : 	{
; 2572 : 		if( gParty.m_PartyS[nPartyNumber].Number[i] > 0 )

  00067	8b 04 95 14 00
	00 00		 mov	 eax, DWORD PTR ?gParty@@3VPartyClass@@A[edx*4+20]
  0006e	85 c0		 test	 eax, eax
  00070	7e 1d		 jle	 SHORT $LN17@gGetPartyM

; 2573 : 		{
; 2574 : 			int nUserIndex = gParty.m_PartyS[nPartyNumber].Number[i];
; 2575 : 			nLevel = gObj[nUserIndex].Level + gObj[nUserIndex].MasterLevel;

  00072	69 c0 40 27 00
	00		 imul	 eax, eax, 10048
  00078	0f bf 8c 38 a8
	00 00 00	 movsx	 ecx, WORD PTR [eax+edi+168]
  00080	0f bf 84 38 96
	00 00 00	 movsx	 eax, WORD PTR [eax+edi+150]
  00088	03 c8		 add	 ecx, eax

; 2576 : 
; 2577 : 			if( nResult < nLevel )

  0008a	3b f1		 cmp	 esi, ecx
  0008c	0f 4c f1	 cmovl	 esi, ecx
$LN17@gGetPartyM:

; 2567 : 	int nResult = -1;
; 2568 : 	int nLevel = 0;
; 2569 : 
; 2570 : 	for(int i = 0; i < MAX_USER_IN_PARTY; i++)
; 2571 : 	{
; 2572 : 		if( gParty.m_PartyS[nPartyNumber].Number[i] > 0 )

  0008f	8b 04 95 18 00
	00 00		 mov	 eax, DWORD PTR ?gParty@@3VPartyClass@@A[edx*4+24]
  00096	85 c0		 test	 eax, eax
  00098	7e 1d		 jle	 SHORT $LN19@gGetPartyM

; 2573 : 		{
; 2574 : 			int nUserIndex = gParty.m_PartyS[nPartyNumber].Number[i];
; 2575 : 			nLevel = gObj[nUserIndex].Level + gObj[nUserIndex].MasterLevel;

  0009a	69 c0 40 27 00
	00		 imul	 eax, eax, 10048
  000a0	0f bf 8c 38 a8
	00 00 00	 movsx	 ecx, WORD PTR [eax+edi+168]
  000a8	0f bf 84 38 96
	00 00 00	 movsx	 eax, WORD PTR [eax+edi+150]
  000b0	03 c8		 add	 ecx, eax

; 2576 : 
; 2577 : 			if( nResult < nLevel )

  000b2	3b f1		 cmp	 esi, ecx
  000b4	0f 4c f1	 cmovl	 esi, ecx
$LN19@gGetPartyM:

; 2567 : 	int nResult = -1;
; 2568 : 	int nLevel = 0;
; 2569 : 
; 2570 : 	for(int i = 0; i < MAX_USER_IN_PARTY; i++)
; 2571 : 	{
; 2572 : 		if( gParty.m_PartyS[nPartyNumber].Number[i] > 0 )

  000b7	8b 04 95 1c 00
	00 00		 mov	 eax, DWORD PTR ?gParty@@3VPartyClass@@A[edx*4+28]
  000be	85 c0		 test	 eax, eax
  000c0	7e 1d		 jle	 SHORT $LN22@gGetPartyM

; 2573 : 		{
; 2574 : 			int nUserIndex = gParty.m_PartyS[nPartyNumber].Number[i];
; 2575 : 			nLevel = gObj[nUserIndex].Level + gObj[nUserIndex].MasterLevel;

  000c2	69 c0 40 27 00
	00		 imul	 eax, eax, 10048
  000c8	0f bf 94 38 a8
	00 00 00	 movsx	 edx, WORD PTR [eax+edi+168]
  000d0	0f bf 8c 38 96
	00 00 00	 movsx	 ecx, WORD PTR [eax+edi+150]
  000d8	03 d1		 add	 edx, ecx

; 2576 : 
; 2577 : 			if( nResult < nLevel )

  000da	3b f2		 cmp	 esi, edx
  000dc	0f 4c f2	 cmovl	 esi, edx
$LN22@gGetPartyM:

; 2578 : 			{
; 2579 : 				nResult = nLevel;
; 2580 : 			}
; 2581 : 		}
; 2582 : 	}
; 2583 : return nResult;

  000df	5f		 pop	 edi
  000e0	8b c6		 mov	 eax, esi
  000e2	5e		 pop	 esi

; 2584 : }

  000e3	5d		 pop	 ebp
  000e4	c3		 ret	 0
?gGetPartyMaxLevel@@YAHH@Z ENDP				; gGetPartyMaxLevel
_TEXT	ENDS
; Function compile flags: /Ogtp
;	COMDAT ??_GCImperialGuardian@@UAEPAXI@Z
_TEXT	SEGMENT
___flags$ = 8						; size = 4
??_GCImperialGuardian@@UAEPAXI@Z PROC			; CImperialGuardian::`scalar deleting destructor', COMDAT
; _this$ = ecx
  00000	55		 push	 ebp
  00001	8b ec		 mov	 ebp, esp
  00003	56		 push	 esi
  00004	8b f1		 mov	 esi, ecx
  00006	e8 00 00 00 00	 call	 ??1CImperialGuardian@@UAE@XZ ; CImperialGuardian::~CImperialGuardian
  0000b	f6 45 08 01	 test	 BYTE PTR ___flags$[ebp], 1
  0000f	74 0e		 je	 SHORT $LN4@scalar
  00011	68 e4 01 00 00	 push	 484			; 000001e4H
  00016	56		 push	 esi
  00017	e8 00 00 00 00	 call	 ??3@YAXPAXI@Z		; operator delete
  0001c	83 c4 08	 add	 esp, 8
$LN4@scalar:
  0001f	8b c6		 mov	 eax, esi
  00021	5e		 pop	 esi
  00022	5d		 pop	 ebp
  00023	c2 04 00	 ret	 4
??_GCImperialGuardian@@UAEPAXI@Z ENDP			; CImperialGuardian::`scalar deleting destructor'
_TEXT	ENDS
; Function compile flags: /Ogtp
; File c:\users\michel\desktop\source\gameserver\source\imperialguardian.cpp
; File c:\program files (x86)\microsoft visual studio 14.0\vc\include\vector
; File c:\users\michel\desktop\source\gameserver\source\imperialguardian.cpp
; File c:\program files (x86)\microsoft visual studio 14.0\vc\include\vector
; File c:\users\michel\desktop\source\gameserver\source\imperialguardian.cpp
; File c:\program files (x86)\microsoft visual studio 14.0\vc\include\vector
; File c:\program files (x86)\microsoft visual studio 14.0\vc\include\xmemory0
; File c:\users\michel\desktop\source\gameserver\source\imperialguardian.cpp
; File c:\program files (x86)\microsoft visual studio 14.0\vc\include\xmemory0
; File c:\users\michel\desktop\source\gameserver\source\imperialguardian.cpp
;	COMDAT ?GetPlayUserCountRightNow@CImperialGuardian@@QAEHH@Z
_TEXT	SEGMENT
_vtTemp$ = -12						; size = 12
_nZoneIndex$ = 8					; size = 4
?GetPlayUserCountRightNow@CImperialGuardian@@QAEHH@Z PROC ; CImperialGuardian::GetPlayUserCountRightNow, COMDAT
; _this$ = ecx

; 2537 : {

  00000	55		 push	 ebp
  00001	8b ec		 mov	 ebp, esp

; 2538 : 	if( !IMPERIAL_ZONE_CHECK(nZoneIndex) )

  00003	8b 55 08	 mov	 edx, DWORD PTR _nZoneIndex$[ebp]
  00006	83 ec 0c	 sub	 esp, 12			; 0000000cH
  00009	85 d2		 test	 edx, edx
  0000b	0f 88 ce 00 00
	00		 js	 $LN199@GetPlayUse
  00011	33 c0		 xor	 eax, eax
  00013	83 fa 03	 cmp	 edx, 3
  00016	0f 9e c0	 setle	 al
  00019	85 c0		 test	 eax, eax
  0001b	0f 84 be 00 00
	00		 je	 $LN199@GetPlayUse

; 2542 : 	}
; 2543 : 
; 2544 : 	int nPlayUserCount = 0;
; 2545 : 
; 2546 : 	std::vector<int> vtTemp = this->m_ZoneInfo[nZoneIndex].m_vtUserIndex;

  00021	53		 push	 ebx
  00022	6b c2 64	 imul	 eax, edx, 100
  00025	83 c1 3c	 add	 ecx, 60			; 0000003cH
  00028	56		 push	 esi
  00029	57		 push	 edi
  0002a	33 f6		 xor	 esi, esi
  0002c	03 c1		 add	 eax, ecx
  0002e	8d 4d f4	 lea	 ecx, DWORD PTR _vtTemp$[ebp]
  00031	50		 push	 eax
  00032	e8 00 00 00 00	 call	 ??0?$vector@HV?$allocator@H@std@@@std@@QAE@ABV01@@Z ; std::vector<int,std::allocator<int> >::vector<int,std::allocator<int> >
; File c:\program files (x86)\microsoft visual studio 14.0\vc\include\vector

; 46   : 		: _Ptr(_Parg)

  00037	8b 5d f4	 mov	 ebx, DWORD PTR _vtTemp$[ebp]
  0003a	8b c3		 mov	 eax, ebx

; 113  : 		return (*this);
; 114  : 		}
; 115  : 
; 116  : 	_Myiter operator++(int)
; 117  : 		{	// postincrement
; 118  : 		_Myiter _Tmp = *this;
; 119  : 		++*this;
; 120  : 		return (_Tmp);
; 121  : 		}
; 122  : 
; 123  : 	_Myiter& operator--()
; 124  : 		{	// predecrement
; 125  :  #if _ITERATOR_DEBUG_LEVEL == 2
; 126  : 		if (this->_Getcont() == 0
; 127  : 			|| this->_Ptr == 0
; 128  : 			|| this->_Ptr <= ((_Myvec *)this->_Getcont())->_Myfirst)
; 129  : 			{	// report error
; 130  : 			_DEBUG_ERROR("vector iterator not decrementable");
; 131  : 			_SCL_SECURE_OUT_OF_RANGE;
; 132  : 			}
; 133  : 
; 134  :  #elif _ITERATOR_DEBUG_LEVEL == 1
; 135  : 		_SCL_SECURE_VALIDATE(this->_Getcont() != 0);
; 136  : 		_SCL_SECURE_VALIDATE_RANGE(
; 137  : 			this->_Ptr != _Tptr()
; 138  : 			&& ((_Myvec *)this->_Getcont())->_Myfirst < this->_Ptr);
; 139  :  #endif /* _ITERATOR_DEBUG_LEVEL */
; 140  : 
; 141  : 		--this->_Ptr;
; 142  : 		return (*this);
; 143  : 		}
; 144  : 
; 145  : 	_Myiter operator--(int)
; 146  : 		{	// postdecrement
; 147  : 		_Myiter _Tmp = *this;
; 148  : 		--*this;
; 149  : 		return (_Tmp);
; 150  : 		}
; 151  : 
; 152  : 	_Myiter& operator+=(difference_type _Off)
; 153  : 		{	// increment by integer
; 154  :  #if _ITERATOR_DEBUG_LEVEL == 2
; 155  : 		if (this->_Getcont() == 0
; 156  : 			|| this->_Ptr + _Off < ((_Myvec *)this->_Getcont())->_Myfirst
; 157  : 			|| ((_Myvec *)this->_Getcont())->_Mylast < this->_Ptr + _Off)
; 158  : 			{	// report error
; 159  : 			_DEBUG_ERROR("vector iterator + offset out of range");
; 160  : 			_SCL_SECURE_OUT_OF_RANGE;
; 161  : 			}
; 162  : 
; 163  :  #elif _ITERATOR_DEBUG_LEVEL == 1
; 164  : 		_SCL_SECURE_VALIDATE(this->_Getcont() != 0);
; 165  : 		_SCL_SECURE_VALIDATE_RANGE(
; 166  : 			((_Myvec *)this->_Getcont())->_Myfirst <= this->_Ptr + _Off
; 167  : 			&& this->_Ptr + _Off <= ((_Myvec *)this->_Getcont())->_Mylast);
; 168  :  #endif /* _ITERATOR_DEBUG_LEVEL */
; 169  : 
; 170  : 		_Ptr += _Off;
; 171  : 		return (*this);
; 172  : 		}
; 173  : 
; 174  : 	_Myiter operator+(difference_type _Off) const
; 175  : 		{	// return this + integer
; 176  : 		_Myiter _Tmp = *this;
; 177  : 		return (_Tmp += _Off);
; 178  : 		}
; 179  : 
; 180  : 	_Myiter& operator-=(difference_type _Off)
; 181  : 		{	// decrement by integer
; 182  : 		return (*this += -_Off);
; 183  : 		}
; 184  : 
; 185  : 	_Myiter operator-(difference_type _Off) const
; 186  : 		{	// return this - integer
; 187  : 		_Myiter _Tmp = *this;
; 188  : 		return (_Tmp -= _Off);
; 189  : 		}
; 190  : 
; 191  : 	difference_type operator-(const _Myiter& _Right) const
; 192  : 		{	// return difference of iterators
; 193  : 		_Compat(_Right);
; 194  : 		return (this->_Ptr - _Right._Ptr);
; 195  : 		}
; 196  : 
; 197  : 	reference operator[](difference_type _Off) const
; 198  : 		{	// subscript
; 199  : 		return (*(*this + _Off));
; 200  : 		}
; 201  : 
; 202  : 	bool operator==(const _Myiter& _Right) const
; 203  : 		{	// test for iterator equality
; 204  : 		if (this->_Getcont() != _Right._Getcont())
; 205  : 			_Compat(_Right);
; 206  : 		return (this->_Ptr == _Right._Ptr);

  0003c	8b 7d f8	 mov	 edi, DWORD PTR _vtTemp$[ebp+4]
  0003f	3b df		 cmp	 ebx, edi
; File c:\users\michel\desktop\source\gameserver\source\imperialguardian.cpp

; 2549 : 	for( ; it != vtTemp.end(); it++)

  00041	74 51		 je	 SHORT $LN3@GetPlayUse
  00043	8b 1d 00 00 00
	00		 mov	 ebx, DWORD PTR ?gObj@@3PAUOBJECTSTRUCT@@A ; gObj
  00049	0f 1f 80 00 00
	00 00		 npad	 7
$LL4@GetPlayUse:

; 2550 : 	{
; 2551 : 		int nResult = *it;

  00050	8b 10		 mov	 edx, DWORD PTR [eax]

; 2552 : 
; 2553 : 		if( !OBJMAX_RANGE(nResult) )

  00052	85 d2		 test	 edx, edx
  00054	78 34		 js	 SHORT $LN2@GetPlayUse
  00056	33 c9		 xor	 ecx, ecx
  00058	81 fa eb 2c 00
	00		 cmp	 edx, 11499		; 00002cebH
  0005e	0f 9e c1	 setle	 cl
  00061	85 c9		 test	 ecx, ecx
  00063	74 25		 je	 SHORT $LN2@GetPlayUse

; 2554 : 			continue;
; 2555 : 
; 2556 : 		if( gObj[nResult].Connected == PLAYER_PLAYING &&

  00065	69 ca 40 27 00
	00		 imul	 ecx, edx, 10048
  0006b	83 7c 19 04 03	 cmp	 DWORD PTR [ecx+ebx+4], 3
  00070	75 18		 jne	 SHORT $LN2@GetPlayUse
  00072	8a 8c 19 23 01
	00 00		 mov	 cl, BYTE PTR [ecx+ebx+291]
  00079	80 f9 45	 cmp	 cl, 69			; 00000045H
  0007c	72 0c		 jb	 SHORT $LN2@GetPlayUse
  0007e	b2 48		 mov	 dl, 72			; 00000048H
  00080	3a d1		 cmp	 dl, cl
  00082	1b c9		 sbb	 ecx, ecx
  00084	83 c1 01	 add	 ecx, 1
  00087	74 01		 je	 SHORT $LN2@GetPlayUse

; 2557 : 			IF_MAP_RANGE(gObj[nResult].MapNumber) )
; 2558 : 		{
; 2559 : 			nPlayUserCount++;

  00089	46		 inc	 esi
$LN2@GetPlayUse:
; File c:\program files (x86)\microsoft visual studio 14.0\vc\include\vector

; 112  : 		++this->_Ptr;

  0008a	83 c0 04	 add	 eax, 4

; 113  : 		return (*this);
; 114  : 		}
; 115  : 
; 116  : 	_Myiter operator++(int)
; 117  : 		{	// postincrement
; 118  : 		_Myiter _Tmp = *this;
; 119  : 		++*this;
; 120  : 		return (_Tmp);
; 121  : 		}
; 122  : 
; 123  : 	_Myiter& operator--()
; 124  : 		{	// predecrement
; 125  :  #if _ITERATOR_DEBUG_LEVEL == 2
; 126  : 		if (this->_Getcont() == 0
; 127  : 			|| this->_Ptr == 0
; 128  : 			|| this->_Ptr <= ((_Myvec *)this->_Getcont())->_Myfirst)
; 129  : 			{	// report error
; 130  : 			_DEBUG_ERROR("vector iterator not decrementable");
; 131  : 			_SCL_SECURE_OUT_OF_RANGE;
; 132  : 			}
; 133  : 
; 134  :  #elif _ITERATOR_DEBUG_LEVEL == 1
; 135  : 		_SCL_SECURE_VALIDATE(this->_Getcont() != 0);
; 136  : 		_SCL_SECURE_VALIDATE_RANGE(
; 137  : 			this->_Ptr != _Tptr()
; 138  : 			&& ((_Myvec *)this->_Getcont())->_Myfirst < this->_Ptr);
; 139  :  #endif /* _ITERATOR_DEBUG_LEVEL */
; 140  : 
; 141  : 		--this->_Ptr;
; 142  : 		return (*this);
; 143  : 		}
; 144  : 
; 145  : 	_Myiter operator--(int)
; 146  : 		{	// postdecrement
; 147  : 		_Myiter _Tmp = *this;
; 148  : 		--*this;
; 149  : 		return (_Tmp);
; 150  : 		}
; 151  : 
; 152  : 	_Myiter& operator+=(difference_type _Off)
; 153  : 		{	// increment by integer
; 154  :  #if _ITERATOR_DEBUG_LEVEL == 2
; 155  : 		if (this->_Getcont() == 0
; 156  : 			|| this->_Ptr + _Off < ((_Myvec *)this->_Getcont())->_Myfirst
; 157  : 			|| ((_Myvec *)this->_Getcont())->_Mylast < this->_Ptr + _Off)
; 158  : 			{	// report error
; 159  : 			_DEBUG_ERROR("vector iterator + offset out of range");
; 160  : 			_SCL_SECURE_OUT_OF_RANGE;
; 161  : 			}
; 162  : 
; 163  :  #elif _ITERATOR_DEBUG_LEVEL == 1
; 164  : 		_SCL_SECURE_VALIDATE(this->_Getcont() != 0);
; 165  : 		_SCL_SECURE_VALIDATE_RANGE(
; 166  : 			((_Myvec *)this->_Getcont())->_Myfirst <= this->_Ptr + _Off
; 167  : 			&& this->_Ptr + _Off <= ((_Myvec *)this->_Getcont())->_Mylast);
; 168  :  #endif /* _ITERATOR_DEBUG_LEVEL */
; 169  : 
; 170  : 		_Ptr += _Off;
; 171  : 		return (*this);
; 172  : 		}
; 173  : 
; 174  : 	_Myiter operator+(difference_type _Off) const
; 175  : 		{	// return this + integer
; 176  : 		_Myiter _Tmp = *this;
; 177  : 		return (_Tmp += _Off);
; 178  : 		}
; 179  : 
; 180  : 	_Myiter& operator-=(difference_type _Off)
; 181  : 		{	// decrement by integer
; 182  : 		return (*this += -_Off);
; 183  : 		}
; 184  : 
; 185  : 	_Myiter operator-(difference_type _Off) const
; 186  : 		{	// return this - integer
; 187  : 		_Myiter _Tmp = *this;
; 188  : 		return (_Tmp -= _Off);
; 189  : 		}
; 190  : 
; 191  : 	difference_type operator-(const _Myiter& _Right) const
; 192  : 		{	// return difference of iterators
; 193  : 		_Compat(_Right);
; 194  : 		return (this->_Ptr - _Right._Ptr);
; 195  : 		}
; 196  : 
; 197  : 	reference operator[](difference_type _Off) const
; 198  : 		{	// subscript
; 199  : 		return (*(*this + _Off));
; 200  : 		}
; 201  : 
; 202  : 	bool operator==(const _Myiter& _Right) const
; 203  : 		{	// test for iterator equality
; 204  : 		if (this->_Getcont() != _Right._Getcont())
; 205  : 			_Compat(_Right);
; 206  : 		return (this->_Ptr == _Right._Ptr);

  0008d	3b c7		 cmp	 eax, edi
; File c:\users\michel\desktop\source\gameserver\source\imperialguardian.cpp

; 2549 : 	for( ; it != vtTemp.end(); it++)

  0008f	75 bf		 jne	 SHORT $LL4@GetPlayUse
  00091	8b 5d f4	 mov	 ebx, DWORD PTR _vtTemp$[ebp]
$LN3@GetPlayUse:
; File c:\program files (x86)\microsoft visual studio 14.0\vc\include\vector

; 1656 : 		if (this->_Myfirst() != pointer())

  00094	85 db		 test	 ebx, ebx
  00096	74 3c		 je	 SHORT $LN89@GetPlayUse

; 1657 : 			{	// something to free, destroy and deallocate it
; 1658 : 			this->_Orphan_all();
; 1659 : 			_Destroy(this->_Myfirst(), this->_Mylast());
; 1660 : 			this->_Getal().deallocate(this->_Myfirst(),

  00098	8b 45 fc	 mov	 eax, DWORD PTR _vtTemp$[ebp+8]
  0009b	2b c3		 sub	 eax, ebx
  0009d	c1 f8 02	 sar	 eax, 2
; File c:\program files (x86)\microsoft visual studio 14.0\vc\include\xmemory0

; 100  : 	_SCL_SECURE_ALWAYS_VALIDATE(_Count <= (size_t)(-1) / _Sz);

  000a0	3d ff ff ff 3f	 cmp	 eax, 1073741823		; 3fffffffH
  000a5	77 59		 ja	 SHORT $LN201@GetPlayUse

; 101  : 	const size_t _User_size = _Count * _Sz;

  000a7	c1 e0 02	 shl	 eax, 2

; 102  : 	if (_BIG_ALLOCATION_THRESHOLD <= _User_size)

  000aa	3d 00 10 00 00	 cmp	 eax, 4096		; 00001000H
  000af	72 1a		 jb	 SHORT $LN157@GetPlayUse

; 103  : 		{	// deallocate large block
; 104  : 		const uintptr_t _Ptr_user = reinterpret_cast<uintptr_t>(_Ptr);
; 105  : 		_SCL_SECURE_ALWAYS_VALIDATE(

  000b1	f6 c3 1f	 test	 bl, 31			; 0000001fH
  000b4	75 4f		 jne	 SHORT $LN203@GetPlayUse

; 106  : 			(_Ptr_user & (_BIG_ALLOCATION_ALIGNMENT - 1)) == 0);
; 107  : 		const uintptr_t _Ptr_ptr = _Ptr_user - sizeof(void *);
; 108  : 		const uintptr_t _Ptr_container =
; 109  : 			*reinterpret_cast<uintptr_t *>(_Ptr_ptr);

  000b6	8b 43 fc	 mov	 eax, DWORD PTR [ebx-4]

; 110  : 
; 111  :  #ifdef _DEBUG
; 112  : 		// If the following asserts, it likely means that we are performing
; 113  : 		// an aligned delete on memory coming from an unaligned allocation.
; 114  : 		_SCL_SECURE_ALWAYS_VALIDATE(
; 115  : 			reinterpret_cast<uintptr_t *>(_Ptr_ptr)[-1] ==
; 116  : 				_BIG_ALLOCATION_SENTINEL);
; 117  :  #endif /* _DEBUG */
; 118  : 
; 119  : 		// Extra paranoia on aligned allocation/deallocation
; 120  : 		_SCL_SECURE_ALWAYS_VALIDATE(_Ptr_container < _Ptr_user);

  000b9	3b c3		 cmp	 eax, ebx
  000bb	73 4d		 jae	 SHORT $LN204@GetPlayUse

; 121  : 
; 122  :  #ifdef _DEBUG
; 123  : 		_SCL_SECURE_ALWAYS_VALIDATE(2 * sizeof(void *)
; 124  : 			<= _Ptr_user - _Ptr_container);
; 125  : 
; 126  :  #else /* _DEBUG */
; 127  : 		_SCL_SECURE_ALWAYS_VALIDATE(sizeof(void *)

  000bd	2b d8		 sub	 ebx, eax
  000bf	83 fb 04	 cmp	 ebx, 4
  000c2	72 4b		 jb	 SHORT $LN205@GetPlayUse

; 128  : 			<= _Ptr_user - _Ptr_container);
; 129  :  #endif /* _DEBUG */
; 130  : 
; 131  : 		_SCL_SECURE_ALWAYS_VALIDATE(_Ptr_user - _Ptr_container

  000c4	83 fb 23	 cmp	 ebx, 35			; 00000023H
  000c7	77 4b		 ja	 SHORT $LN206@GetPlayUse

; 132  : 			<= _NON_USER_SIZE);
; 133  : 
; 134  : 		_Ptr = reinterpret_cast<void *>(_Ptr_container);

  000c9	8b d8		 mov	 ebx, eax
$LN157@GetPlayUse:

; 135  : 		}
; 136  :  #endif /* defined(_M_IX86) || defined(_M_X64) */
; 137  : 
; 138  : 	::operator delete(_Ptr);

  000cb	53		 push	 ebx
  000cc	e8 00 00 00 00	 call	 ??3@YAXPAX@Z		; operator delete
  000d1	83 c4 04	 add	 esp, 4
$LN89@GetPlayUse:
  000d4	5f		 pop	 edi
; File c:\users\michel\desktop\source\gameserver\source\imperialguardian.cpp

; 2562 : 	return nPlayUserCount;

  000d5	8b c6		 mov	 eax, esi
  000d7	5e		 pop	 esi
  000d8	5b		 pop	 ebx

; 2563 : }

  000d9	8b e5		 mov	 esp, ebp
  000db	5d		 pop	 ebp
  000dc	c2 04 00	 ret	 4
$LN199@GetPlayUse:

; 2539 : 	{
; 2540 : 		LogAdd("error : %s %d",__FILE__,__LINE__);

  000df	68 ec 09 00 00	 push	 2540			; 000009ecH
  000e4	68 00 00 00 00	 push	 OFFSET ??_C@_0BF@PJIOLJJJ@ImperialGuardian?4cpp?$AA@
  000e9	68 00 00 00 00	 push	 OFFSET ??_C@_0O@CKAEPJAF@error?5?3?5?$CFs?5?$CFd?$AA@
  000ee	ff 15 00 00 00
	00		 call	 DWORD PTR ?LogAdd@@3P6AXPADZZA ; LogAdd
  000f4	83 c4 0c	 add	 esp, 12			; 0000000cH

; 2541 : 		return -1;

  000f7	83 c8 ff	 or	 eax, -1

; 2563 : }

  000fa	8b e5		 mov	 esp, ebp
  000fc	5d		 pop	 ebp
  000fd	c2 04 00	 ret	 4
$LN201@GetPlayUse:
; File c:\program files (x86)\microsoft visual studio 14.0\vc\include\xmemory0

; 100  : 	_SCL_SECURE_ALWAYS_VALIDATE(_Count <= (size_t)(-1) / _Sz);

  00100	e8 00 00 00 00	 call	 __invalid_parameter_noinfo_noreturn
$LN207@GetPlayUse:
$LN203@GetPlayUse:

; 103  : 		{	// deallocate large block
; 104  : 		const uintptr_t _Ptr_user = reinterpret_cast<uintptr_t>(_Ptr);
; 105  : 		_SCL_SECURE_ALWAYS_VALIDATE(

  00105	e8 00 00 00 00	 call	 __invalid_parameter_noinfo_noreturn
$LN208@GetPlayUse:
$LN204@GetPlayUse:

; 110  : 
; 111  :  #ifdef _DEBUG
; 112  : 		// If the following asserts, it likely means that we are performing
; 113  : 		// an aligned delete on memory coming from an unaligned allocation.
; 114  : 		_SCL_SECURE_ALWAYS_VALIDATE(
; 115  : 			reinterpret_cast<uintptr_t *>(_Ptr_ptr)[-1] ==
; 116  : 				_BIG_ALLOCATION_SENTINEL);
; 117  :  #endif /* _DEBUG */
; 118  : 
; 119  : 		// Extra paranoia on aligned allocation/deallocation
; 120  : 		_SCL_SECURE_ALWAYS_VALIDATE(_Ptr_container < _Ptr_user);

  0010a	e8 00 00 00 00	 call	 __invalid_parameter_noinfo_noreturn
$LN209@GetPlayUse:
$LN205@GetPlayUse:

; 121  : 
; 122  :  #ifdef _DEBUG
; 123  : 		_SCL_SECURE_ALWAYS_VALIDATE(2 * sizeof(void *)
; 124  : 			<= _Ptr_user - _Ptr_container);
; 125  : 
; 126  :  #else /* _DEBUG */
; 127  : 		_SCL_SECURE_ALWAYS_VALIDATE(sizeof(void *)

  0010f	e8 00 00 00 00	 call	 __invalid_parameter_noinfo_noreturn
$LN210@GetPlayUse:
$LN206@GetPlayUse:

; 128  : 			<= _Ptr_user - _Ptr_container);
; 129  :  #endif /* _DEBUG */
; 130  : 
; 131  : 		_SCL_SECURE_ALWAYS_VALIDATE(_Ptr_user - _Ptr_container

  00114	e8 00 00 00 00	 call	 __invalid_parameter_noinfo_noreturn
$LN211@GetPlayUse:
$LN200@GetPlayUse:
  00119	cc		 int	 3
?GetPlayUserCountRightNow@CImperialGuardian@@QAEHH@Z ENDP ; CImperialGuardian::GetPlayUserCountRightNow
_TEXT	ENDS
; Function compile flags: /Ogtp
; File c:\users\michel\desktop\source\gameserver\source\imperialguardian.cpp
; File c:\program files (x86)\microsoft visual studio 14.0\vc\include\vector
; File c:\users\michel\desktop\source\gameserver\source\imperialguardian.cpp
; File c:\program files (x86)\microsoft visual studio 14.0\vc\include\vector
; File c:\users\michel\desktop\source\gameserver\source\imperialguardian.cpp
; File c:\program files (x86)\microsoft visual studio 14.0\vc\include\vector
; File c:\users\michel\desktop\source\gameserver\source\imperialguardian.cpp
;	COMDAT ?SendCurGateInfoToUser@CImperialGuardian@@QAEHHH@Z
_TEXT	SEGMENT
_this$1$ = -4						; size = 4
_nUserIndex$ = 8					; size = 4
_nSize$1$ = 12						; size = 4
_nZoneIndex$ = 12					; size = 4
?SendCurGateInfoToUser@CImperialGuardian@@QAEHHH@Z PROC	; CImperialGuardian::SendCurGateInfoToUser, COMDAT
; _this$ = ecx

; 2519 : {

  00000	55		 push	 ebp
  00001	8b ec		 mov	 ebp, esp
  00003	51		 push	 ecx
  00004	53		 push	 ebx

; 2520 : 	if( !IMPERIAL_ZONE_CHECK(nZoneIndex) )

  00005	8b 5d 0c	 mov	 ebx, DWORD PTR _nZoneIndex$[ebp]
  00008	8b d1		 mov	 edx, ecx
  0000a	89 55 fc	 mov	 DWORD PTR _this$1$[ebp], edx
  0000d	85 db		 test	 ebx, ebx
  0000f	78 59		 js	 SHORT $LN72@SendCurGat
  00011	33 c0		 xor	 eax, eax
  00013	83 fb 03	 cmp	 ebx, 3
  00016	0f 9e c0	 setle	 al
  00019	85 c0		 test	 eax, eax
  0001b	74 4d		 je	 SHORT $LN72@SendCurGat

; 2524 : 	}
; 2525 : 
; 2526 : 	int nSize = this->m_ZoneInfo[nZoneIndex].m_vtDestroyedGate.size();

  0001d	56		 push	 esi
  0001e	57		 push	 edi
  0001f	6b fb 64	 imul	 edi, ebx, 100

; 2528 : 	for(int i = 0; i < nSize; i++)

  00022	33 f6		 xor	 esi, esi
  00024	03 fa		 add	 edi, edx
; File c:\program files (x86)\microsoft visual studio 14.0\vc\include\vector

; 1179 : 		return (this->_Mylast() - this->_Myfirst());

  00026	8b 47 70	 mov	 eax, DWORD PTR [edi+112]
  00029	2b 47 6c	 sub	 eax, DWORD PTR [edi+108]
  0002c	c1 f8 02	 sar	 eax, 2
  0002f	89 45 0c	 mov	 DWORD PTR _nSize$1$[ebp], eax
; File c:\users\michel\desktop\source\gameserver\source\imperialguardian.cpp

; 2528 : 	for(int i = 0; i < nSize; i++)

  00032	85 c0		 test	 eax, eax
  00034	7e 26		 jle	 SHORT $LN3@SendCurGat
$LL4@SendCurGat:
; File c:\program files (x86)\microsoft visual studio 14.0\vc\include\vector

; 1179 : 		return (this->_Mylast() - this->_Myfirst());

  00036	8b 47 70	 mov	 eax, DWORD PTR [edi+112]
  00039	8b 4f 6c	 mov	 ecx, DWORD PTR [edi+108]
  0003c	2b c1		 sub	 eax, ecx
  0003e	c1 f8 02	 sar	 eax, 2

; 1180 : 		}
; 1181 : 
; 1182 : 	size_type max_size() const _NOEXCEPT
; 1183 : 		{	// return maximum possible length of sequence
; 1184 : 		return (this->_Getal().max_size());
; 1185 : 		}
; 1186 : 
; 1187 : 	bool empty() const _NOEXCEPT
; 1188 : 		{	// test if sequence is empty
; 1189 : 		return (this->_Myfirst() == this->_Mylast());
; 1190 : 		}
; 1191 : 
; 1192 : 	_Alloc get_allocator() const _NOEXCEPT
; 1193 : 		{	// return allocator object for values
; 1194 : 		return (this->_Getal());
; 1195 : 		}
; 1196 : 
; 1197 : 	const_reference at(size_type _Pos) const
; 1198 : 		{	// subscript nonmutable sequence with checking
; 1199 : 		if (size() <= _Pos)
; 1200 : 			_Xran();
; 1201 : 		return (*(this->_Myfirst() + _Pos));
; 1202 : 		}
; 1203 : 
; 1204 : 	reference at(size_type _Pos)
; 1205 : 		{	// subscript mutable sequence with checking
; 1206 : 		if (size() <= _Pos)

  00041	3b c6		 cmp	 eax, esi
  00043	76 46		 jbe	 SHORT $LN74@SendCurGat
; File c:\users\michel\desktop\source\gameserver\source\imperialguardian.cpp

; 2531 : 		this->GCSendCastleGateInfo(nGateIndex,nZoneIndex,nUserIndex);

  00045	ff 75 08	 push	 DWORD PTR _nUserIndex$[ebp]
  00048	53		 push	 ebx
  00049	ff 34 b1	 push	 DWORD PTR [ecx+esi*4]
  0004c	8b ca		 mov	 ecx, edx
  0004e	e8 00 00 00 00	 call	 ?GCSendCastleGateInfo@CImperialGuardian@@QAEXHHH@Z ; CImperialGuardian::GCSendCastleGateInfo
  00053	8b 55 fc	 mov	 edx, DWORD PTR _this$1$[ebp]
  00056	46		 inc	 esi
  00057	3b 75 0c	 cmp	 esi, DWORD PTR _nSize$1$[ebp]
  0005a	7c da		 jl	 SHORT $LL4@SendCurGat
$LN3@SendCurGat:
  0005c	5f		 pop	 edi
  0005d	5e		 pop	 esi

; 2532 : 	}
; 2533 : return true;

  0005e	b8 01 00 00 00	 mov	 eax, 1
  00063	5b		 pop	 ebx

; 2534 : }

  00064	8b e5		 mov	 esp, ebp
  00066	5d		 pop	 ebp
  00067	c2 08 00	 ret	 8
$LN72@SendCurGat:

; 2521 : 	{
; 2522 : 		LogAdd("error : %s %d",__FILE__,__LINE__);

  0006a	68 da 09 00 00	 push	 2522			; 000009daH
  0006f	68 00 00 00 00	 push	 OFFSET ??_C@_0BF@PJIOLJJJ@ImperialGuardian?4cpp?$AA@
  00074	68 00 00 00 00	 push	 OFFSET ??_C@_0O@CKAEPJAF@error?5?3?5?$CFs?5?$CFd?$AA@
  00079	ff 15 00 00 00
	00		 call	 DWORD PTR ?LogAdd@@3P6AXPADZZA ; LogAdd
  0007f	83 c4 0c	 add	 esp, 12			; 0000000cH

; 2523 : 		return 0;

  00082	33 c0		 xor	 eax, eax
  00084	5b		 pop	 ebx

; 2534 : }

  00085	8b e5		 mov	 esp, ebp
  00087	5d		 pop	 ebp
  00088	c2 08 00	 ret	 8
$LN74@SendCurGat:
; File c:\program files (x86)\microsoft visual studio 14.0\vc\include\vector

; 1789 : 		_Xout_of_range("invalid vector<T> subscript");

  0008b	68 00 00 00 00	 push	 OFFSET ??_C@_0BM@NMJKDPPO@invalid?5vector?$DMT?$DO?5subscript?$AA@
  00090	e8 00 00 00 00	 call	 ?_Xout_of_range@std@@YAXPBD@Z ; std::_Xout_of_range
$LN75@SendCurGat:
$LN73@SendCurGat:
  00095	cc		 int	 3
?SendCurGateInfoToUser@CImperialGuardian@@QAEHHH@Z ENDP	; CImperialGuardian::SendCurGateInfoToUser
_TEXT	ENDS
; Function compile flags: /Ogtp
; File c:\users\michel\desktop\source\gameserver\source\imperialguardian.cpp
; File c:\program files (x86)\microsoft visual studio 14.0\vc\include\vector
; File c:\users\michel\desktop\source\gameserver\source\imperialguardian.cpp
; File c:\program files (x86)\microsoft visual studio 14.0\vc\atlmfc\include\atltime.h
; File c:\users\michel\desktop\source\gameserver\source\imperialguardian.cpp
; File c:\program files (x86)\microsoft visual studio 14.0\vc\atlmfc\include\atltime.h
; File c:\users\michel\desktop\source\gameserver\source\imperialguardian.cpp
;	COMDAT ?SendCurStateToUser@CImperialGuardian@@QAEHHH@Z
_TEXT	SEGMENT
_tCurrentTime$1 = -68					; size = 8
_this$GSCopy$1$ = -60					; size = 4
_nDayOfWeek$1$ = -56					; size = 4
_ptmTemp$2 = -52					; size = 36
_pMsg$3 = -16						; size = 12
__$ArrayPad$ = -4					; size = 4
_nUserIndex$ = 8					; size = 4
_nZoneIndex$ = 12					; size = 4
?SendCurStateToUser@CImperialGuardian@@QAEHHH@Z PROC	; CImperialGuardian::SendCurStateToUser, COMDAT
; _this$ = ecx

; 2487 : {

  00000	55		 push	 ebp
  00001	8b ec		 mov	 ebp, esp
  00003	83 ec 44	 sub	 esp, 68			; 00000044H
  00006	a1 00 00 00 00	 mov	 eax, DWORD PTR ___security_cookie
  0000b	33 c5		 xor	 eax, ebp
  0000d	89 45 fc	 mov	 DWORD PTR __$ArrayPad$[ebp], eax
  00010	53		 push	 ebx
  00011	8b 5d 0c	 mov	 ebx, DWORD PTR _nZoneIndex$[ebp]
  00014	89 4d c4	 mov	 DWORD PTR _this$GSCopy$1$[ebp], ecx

; 2488 : 	if( !IMPERIAL_ZONE_CHECK(nZoneIndex) )

  00017	85 db		 test	 ebx, ebx
  00019	0f 88 f3 00 00
	00		 js	 $LN68@SendCurSta
  0001f	33 c0		 xor	 eax, eax
  00021	83 fb 03	 cmp	 ebx, 3
  00024	0f 9e c0	 setle	 al
  00027	85 c0		 test	 eax, eax
  00029	0f 84 e3 00 00
	00		 je	 $LN68@SendCurSta

; 2491 : 		return 0;
; 2492 : 	}
; 2493 : 
; 2494 : 	int nTotalUserCount = this->m_ZoneInfo[nZoneIndex].m_vtUserIndex.size();

  0002f	56		 push	 esi
  00030	57		 push	 edi
  00031	6b fb 64	 imul	 edi, ebx, 100
  00034	03 f9		 add	 edi, ecx

; 2496 : 	for(int n = 0; n < nTotalUserCount; n++)

  00036	33 c9		 xor	 ecx, ecx
; File c:\program files (x86)\microsoft visual studio 14.0\vc\include\vector

; 1179 : 		return (this->_Mylast() - this->_Myfirst());

  00038	8b 57 40	 mov	 edx, DWORD PTR [edi+64]
  0003b	2b 57 3c	 sub	 edx, DWORD PTR [edi+60]
  0003e	c1 fa 02	 sar	 edx, 2
; File c:\users\michel\desktop\source\gameserver\source\imperialguardian.cpp

; 2496 : 	for(int n = 0; n < nTotalUserCount; n++)

  00041	85 d2		 test	 edx, edx
  00043	7e 17		 jle	 SHORT $LN3@SendCurSta

; 2491 : 		return 0;
; 2492 : 	}
; 2493 : 
; 2494 : 	int nTotalUserCount = this->m_ZoneInfo[nZoneIndex].m_vtUserIndex.size();

  00045	8b 47 3c	 mov	 eax, DWORD PTR [edi+60]
  00048	8b 75 08	 mov	 esi, DWORD PTR _nUserIndex$[ebp]
  0004b	0f 1f 44 00 00	 npad	 5
$LL4@SendCurSta:

; 2497 : 	{
; 2498 : 		if( this->m_ZoneInfo[nZoneIndex].m_vtUserIndex[n] == nUserIndex )

  00050	39 30		 cmp	 DWORD PTR [eax], esi
  00052	74 1d		 je	 SHORT $LN64@SendCurSta

; 2496 : 	for(int n = 0; n < nTotalUserCount; n++)

  00054	41		 inc	 ecx
  00055	83 c0 04	 add	 eax, 4
  00058	3b ca		 cmp	 ecx, edx
  0005a	7c f4		 jl	 SHORT $LL4@SendCurSta
$LN3@SendCurSta:
  0005c	5f		 pop	 edi
  0005d	5e		 pop	 esi

; 2513 : 		}
; 2514 : 	}
; 2515 : return false;

  0005e	33 c0		 xor	 eax, eax
  00060	5b		 pop	 ebx

; 2516 : }

  00061	8b 4d fc	 mov	 ecx, DWORD PTR __$ArrayPad$[ebp]
  00064	33 cd		 xor	 ecx, ebp
  00066	e8 00 00 00 00	 call	 @__security_check_cookie@4
  0006b	8b e5		 mov	 esp, ebp
  0006d	5d		 pop	 ebp
  0006e	c2 08 00	 ret	 8
$LN64@SendCurSta:
; File c:\program files (x86)\microsoft visual studio 14.0\vc\atlmfc\include\atltime.h

; 374  : 	return( CTime( ::_time64( NULL ) ) );

  00071	6a 00		 push	 0
  00073	e8 00 00 00 00	 call	 __time64

; 375  : }
; 376  : 
; 377  : _Success_(return != false) inline bool CTime::GetAsDBTIMESTAMP(_Out_ DBTIMESTAMP& dbts) const throw()
; 378  : {
; 379  : 	struct tm tmLocal;
; 380  : 	if (GetLocalTm(&tmLocal) == nullptr) return false;
; 381  : 
; 382  : 	dbts.year = (SHORT) (1900 + tmLocal.tm_year);
; 383  : 	dbts.month = (USHORT) (1 + tmLocal.tm_mon);
; 384  : 	dbts.day = (USHORT) tmLocal.tm_mday;
; 385  : 	dbts.hour = (USHORT) tmLocal.tm_hour;
; 386  : 	dbts.minute = (USHORT) tmLocal.tm_min;
; 387  : 	dbts.second = (USHORT) tmLocal.tm_sec;
; 388  : 	dbts.fraction = 0;
; 389  : 
; 390  : 	return true;
; 391  : }
; 392  : 
; 393  : inline BOOL WINAPI CTime::IsValidFILETIME(_In_ const FILETIME& fileTime) throw()
; 394  : {
; 395  : 	FILETIME localTime;
; 396  : 	if (!FileTimeToLocalFileTime(&fileTime, &localTime))
; 397  : 	{
; 398  : 		return FALSE;
; 399  : 	}
; 400  : 
; 401  : 	// then convert that time to system time
; 402  : 	SYSTEMTIME sysTime;
; 403  : 	if (!FileTimeToSystemTime(&localTime, &sysTime))
; 404  : 	{
; 405  : 		return FALSE;
; 406  : 	}
; 407  : 
; 408  : 	return TRUE;
; 409  : }
; 410  : 
; 411  : inline CTime::CTime() throw() :
; 412  : 	m_time(0)
; 413  : {
; 414  : }
; 415  : 
; 416  : inline CTime::CTime(_In_ __time64_t time)  throw():
; 417  : 	m_time( time )

  00078	89 45 bc	 mov	 DWORD PTR _tCurrentTime$1[ebp], eax

; 418  : {
; 419  : }
; 420  : 
; 421  : inline CTime::CTime(
; 422  : 	_In_ int nYear,
; 423  : 	_In_ int nMonth,
; 424  : 	_In_ int nDay,
; 425  : 	_In_ int nHour,
; 426  : 	_In_ int nMin,
; 427  : 	_In_ int nSec,
; 428  : 	_In_ int nDST)
; 429  : {
; 430  : #pragma warning (push)
; 431  : #pragma warning (disable: 4127)  // conditional expression constant
; 432  : 
; 433  : 	ATLENSURE( nYear >= 1900 );
; 434  : 	ATLENSURE( nMonth >= 1 && nMonth <= 12 );
; 435  : 	ATLENSURE( nDay >= 1 && nDay <= 31 );
; 436  : 	ATLENSURE( nHour >= 0 && nHour <= 23 );
; 437  : 	ATLENSURE( nMin >= 0 && nMin <= 59 );
; 438  : 	ATLENSURE( nSec >= 0 && nSec <= 59 );
; 439  : 
; 440  : #pragma warning (pop)
; 441  : 
; 442  : 	struct tm atm;
; 443  : 
; 444  : 	atm.tm_sec = nSec;
; 445  : 	atm.tm_min = nMin;
; 446  : 	atm.tm_hour = nHour;
; 447  : 	atm.tm_mday = nDay;
; 448  : 	atm.tm_mon = nMonth - 1;        // tm_mon is 0 based
; 449  : 	atm.tm_year = nYear - 1900;     // tm_year is 1900 based
; 450  : 	atm.tm_isdst = nDST;
; 451  : 
; 452  : 	m_time = _mktime64(&atm);
; 453  : 	ATLASSUME(m_time != -1);       // indicates an illegal input time
; 454  : 	if(m_time == -1)
; 455  : 	{
; 456  : 		AtlThrow(E_INVALIDARG);
; 457  : 	}
; 458  : }
; 459  : 
; 460  : inline CTime::CTime(
; 461  : 	_In_ WORD wDosDate,
; 462  : 	_In_ WORD wDosTime,
; 463  : 	_In_ int nDST)
; 464  : {
; 465  : 	struct tm atm;
; 466  : 	atm.tm_sec = (wDosTime & ~0xFFE0) << 1;
; 467  : 	atm.tm_min = (wDosTime & ~0xF800) >> 5;
; 468  : 	atm.tm_hour = wDosTime >> 11;
; 469  : 
; 470  : 	atm.tm_mday = wDosDate & ~0xFFE0;
; 471  : 	atm.tm_mon = ((wDosDate & ~0xFE00) >> 5) - 1;
; 472  : 	atm.tm_year = (wDosDate >> 9) + 80;
; 473  : 	atm.tm_isdst = nDST;
; 474  : 	m_time = _mktime64(&atm);
; 475  : 	ATLASSUME(m_time != -1);       // indicates an illegal input time
; 476  : 
; 477  : 	if(m_time == -1)
; 478  : 		AtlThrow(E_INVALIDARG);
; 479  : 
; 480  : }
; 481  : 
; 482  : inline CTime::CTime(
; 483  : 	_In_ const SYSTEMTIME& sysTime,
; 484  : 	_In_ int nDST)
; 485  : {
; 486  : 	if (sysTime.wYear < 1900)
; 487  : 	{
; 488  : 		__time64_t time0 = 0L;
; 489  : 		CTime timeT(time0);
; 490  : 		*this = timeT;
; 491  : 	}
; 492  : 	else
; 493  : 	{
; 494  : 		CTime timeT(
; 495  : 			(int)sysTime.wYear, (int)sysTime.wMonth, (int)sysTime.wDay,
; 496  : 			(int)sysTime.wHour, (int)sysTime.wMinute, (int)sysTime.wSecond,
; 497  : 			nDST);
; 498  : 		*this = timeT;
; 499  : 	}
; 500  : }
; 501  : 
; 502  : inline CTime::CTime(
; 503  : 	_In_ const FILETIME& fileTime,
; 504  : 	_In_ int nDST)
; 505  : {
; 506  : 	SYSTEMTIME sysTime;
; 507  : 	SYSTEMTIME localTime;
; 508  : 	if (!FileTimeToSystemTime(&fileTime, &sysTime) || !SystemTimeToTzSpecificLocalTime(nullptr, &sysTime, &localTime))
; 509  : 	{
; 510  : 		m_time = 0;
; 511  : 		AtlThrow(E_INVALIDARG);
; 512  : 		return;
; 513  : 	}
; 514  : 
; 515  : 	// Convert the system time to a time_t (C-runtime local time)
; 516  : 	CTime timeT(localTime, nDST);
; 517  : 	*this = timeT;
; 518  : }
; 519  : 
; 520  : inline CTime& CTime::operator=(_In_ __time64_t time) throw()
; 521  : {
; 522  : 	m_time = time;
; 523  : 
; 524  : 	return( *this );
; 525  : }
; 526  : 
; 527  : inline CTime& CTime::operator+=(_In_ CTimeSpan span) throw()
; 528  : {
; 529  : 	m_time += span.GetTimeSpan();
; 530  : 
; 531  : 	return( *this );
; 532  : }
; 533  : 
; 534  : inline CTime& CTime::operator-=(_In_ CTimeSpan span) throw()
; 535  : {
; 536  : 	m_time -= span.GetTimeSpan();
; 537  : 
; 538  : 	return( *this );
; 539  : }
; 540  : 
; 541  : inline CTimeSpan CTime::operator-(_In_ CTime time) const throw()
; 542  : {
; 543  : 	return( CTimeSpan( m_time-time.m_time ) );
; 544  : }
; 545  : 
; 546  : inline CTime CTime::operator-(_In_ CTimeSpan span) const throw()
; 547  : {
; 548  : 	return( CTime( m_time-span.GetTimeSpan() ) );
; 549  : }
; 550  : 
; 551  : inline CTime CTime::operator+(_In_ CTimeSpan span) const throw()
; 552  : {
; 553  : 	return( CTime( m_time+span.GetTimeSpan() ) );
; 554  : }
; 555  : 
; 556  : inline bool CTime::operator==(_In_ CTime time) const throw()
; 557  : {
; 558  : 	return( m_time == time.m_time );
; 559  : }
; 560  : 
; 561  : inline bool CTime::operator!=(_In_ CTime time) const throw()
; 562  : {
; 563  : 	return( m_time != time.m_time );
; 564  : }
; 565  : 
; 566  : inline bool CTime::operator<(_In_ CTime time) const throw()
; 567  : {
; 568  : 	return( m_time < time.m_time );
; 569  : }
; 570  : 
; 571  : inline bool CTime::operator>(_In_ CTime time) const throw()
; 572  : {
; 573  : 	return( m_time > time.m_time );
; 574  : }
; 575  : 
; 576  : inline bool CTime::operator<=(_In_ CTime time) const throw()
; 577  : {
; 578  : 	return( m_time <= time.m_time );
; 579  : }
; 580  : 
; 581  : inline bool CTime::operator>=(_In_ CTime time) const throw()
; 582  : {
; 583  : 	return( m_time >= time.m_time );
; 584  : }
; 585  : 
; 586  : inline _Success_(return != NULL) struct tm* CTime::GetGmtTm(_Out_ struct tm* ptm) const
; 587  : {
; 588  : 	// Ensure ptm is valid
; 589  : 	ATLENSURE( ptm != NULL );
; 590  : 
; 591  : 	if (ptm != NULL)
; 592  : 	{
; 593  : 		struct tm ptmTemp;
; 594  : 		errno_t err = _gmtime64_s(&ptmTemp, &m_time);
; 595  : 
; 596  : 		// Be sure the call succeeded
; 597  : 		if(err != 0) { return NULL; }
; 598  : 
; 599  : 		*ptm = ptmTemp;
; 600  : 		return ptm;
; 601  : 	}
; 602  : 
; 603  : 	return NULL;
; 604  : }
; 605  : 
; 606  : inline _Success_(return != NULL) struct tm* CTime::GetLocalTm(_Out_ struct tm* ptm) const
; 607  : {
; 608  : 	// Ensure ptm is valid
; 609  : 	ATLENSURE( ptm != NULL );
; 610  : 
; 611  : 	if (ptm != NULL)
; 612  : 	{
; 613  : 		struct tm ptmTemp;
; 614  : 		errno_t err = _localtime64_s(&ptmTemp, &m_time);

  0007b	8d 45 bc	 lea	 eax, DWORD PTR _tCurrentTime$1[ebp]
  0007e	50		 push	 eax
  0007f	8d 45 cc	 lea	 eax, DWORD PTR _ptmTemp$2[ebp]

; 375  : }
; 376  : 
; 377  : _Success_(return != false) inline bool CTime::GetAsDBTIMESTAMP(_Out_ DBTIMESTAMP& dbts) const throw()
; 378  : {
; 379  : 	struct tm tmLocal;
; 380  : 	if (GetLocalTm(&tmLocal) == nullptr) return false;
; 381  : 
; 382  : 	dbts.year = (SHORT) (1900 + tmLocal.tm_year);
; 383  : 	dbts.month = (USHORT) (1 + tmLocal.tm_mon);
; 384  : 	dbts.day = (USHORT) tmLocal.tm_mday;
; 385  : 	dbts.hour = (USHORT) tmLocal.tm_hour;
; 386  : 	dbts.minute = (USHORT) tmLocal.tm_min;
; 387  : 	dbts.second = (USHORT) tmLocal.tm_sec;
; 388  : 	dbts.fraction = 0;
; 389  : 
; 390  : 	return true;
; 391  : }
; 392  : 
; 393  : inline BOOL WINAPI CTime::IsValidFILETIME(_In_ const FILETIME& fileTime) throw()
; 394  : {
; 395  : 	FILETIME localTime;
; 396  : 	if (!FileTimeToLocalFileTime(&fileTime, &localTime))
; 397  : 	{
; 398  : 		return FALSE;
; 399  : 	}
; 400  : 
; 401  : 	// then convert that time to system time
; 402  : 	SYSTEMTIME sysTime;
; 403  : 	if (!FileTimeToSystemTime(&localTime, &sysTime))
; 404  : 	{
; 405  : 		return FALSE;
; 406  : 	}
; 407  : 
; 408  : 	return TRUE;
; 409  : }
; 410  : 
; 411  : inline CTime::CTime() throw() :
; 412  : 	m_time(0)
; 413  : {
; 414  : }
; 415  : 
; 416  : inline CTime::CTime(_In_ __time64_t time)  throw():
; 417  : 	m_time( time )

  00082	89 55 c0	 mov	 DWORD PTR _tCurrentTime$1[ebp+4], edx

; 418  : {
; 419  : }
; 420  : 
; 421  : inline CTime::CTime(
; 422  : 	_In_ int nYear,
; 423  : 	_In_ int nMonth,
; 424  : 	_In_ int nDay,
; 425  : 	_In_ int nHour,
; 426  : 	_In_ int nMin,
; 427  : 	_In_ int nSec,
; 428  : 	_In_ int nDST)
; 429  : {
; 430  : #pragma warning (push)
; 431  : #pragma warning (disable: 4127)  // conditional expression constant
; 432  : 
; 433  : 	ATLENSURE( nYear >= 1900 );
; 434  : 	ATLENSURE( nMonth >= 1 && nMonth <= 12 );
; 435  : 	ATLENSURE( nDay >= 1 && nDay <= 31 );
; 436  : 	ATLENSURE( nHour >= 0 && nHour <= 23 );
; 437  : 	ATLENSURE( nMin >= 0 && nMin <= 59 );
; 438  : 	ATLENSURE( nSec >= 0 && nSec <= 59 );
; 439  : 
; 440  : #pragma warning (pop)
; 441  : 
; 442  : 	struct tm atm;
; 443  : 
; 444  : 	atm.tm_sec = nSec;
; 445  : 	atm.tm_min = nMin;
; 446  : 	atm.tm_hour = nHour;
; 447  : 	atm.tm_mday = nDay;
; 448  : 	atm.tm_mon = nMonth - 1;        // tm_mon is 0 based
; 449  : 	atm.tm_year = nYear - 1900;     // tm_year is 1900 based
; 450  : 	atm.tm_isdst = nDST;
; 451  : 
; 452  : 	m_time = _mktime64(&atm);
; 453  : 	ATLASSUME(m_time != -1);       // indicates an illegal input time
; 454  : 	if(m_time == -1)
; 455  : 	{
; 456  : 		AtlThrow(E_INVALIDARG);
; 457  : 	}
; 458  : }
; 459  : 
; 460  : inline CTime::CTime(
; 461  : 	_In_ WORD wDosDate,
; 462  : 	_In_ WORD wDosTime,
; 463  : 	_In_ int nDST)
; 464  : {
; 465  : 	struct tm atm;
; 466  : 	atm.tm_sec = (wDosTime & ~0xFFE0) << 1;
; 467  : 	atm.tm_min = (wDosTime & ~0xF800) >> 5;
; 468  : 	atm.tm_hour = wDosTime >> 11;
; 469  : 
; 470  : 	atm.tm_mday = wDosDate & ~0xFFE0;
; 471  : 	atm.tm_mon = ((wDosDate & ~0xFE00) >> 5) - 1;
; 472  : 	atm.tm_year = (wDosDate >> 9) + 80;
; 473  : 	atm.tm_isdst = nDST;
; 474  : 	m_time = _mktime64(&atm);
; 475  : 	ATLASSUME(m_time != -1);       // indicates an illegal input time
; 476  : 
; 477  : 	if(m_time == -1)
; 478  : 		AtlThrow(E_INVALIDARG);
; 479  : 
; 480  : }
; 481  : 
; 482  : inline CTime::CTime(
; 483  : 	_In_ const SYSTEMTIME& sysTime,
; 484  : 	_In_ int nDST)
; 485  : {
; 486  : 	if (sysTime.wYear < 1900)
; 487  : 	{
; 488  : 		__time64_t time0 = 0L;
; 489  : 		CTime timeT(time0);
; 490  : 		*this = timeT;
; 491  : 	}
; 492  : 	else
; 493  : 	{
; 494  : 		CTime timeT(
; 495  : 			(int)sysTime.wYear, (int)sysTime.wMonth, (int)sysTime.wDay,
; 496  : 			(int)sysTime.wHour, (int)sysTime.wMinute, (int)sysTime.wSecond,
; 497  : 			nDST);
; 498  : 		*this = timeT;
; 499  : 	}
; 500  : }
; 501  : 
; 502  : inline CTime::CTime(
; 503  : 	_In_ const FILETIME& fileTime,
; 504  : 	_In_ int nDST)
; 505  : {
; 506  : 	SYSTEMTIME sysTime;
; 507  : 	SYSTEMTIME localTime;
; 508  : 	if (!FileTimeToSystemTime(&fileTime, &sysTime) || !SystemTimeToTzSpecificLocalTime(nullptr, &sysTime, &localTime))
; 509  : 	{
; 510  : 		m_time = 0;
; 511  : 		AtlThrow(E_INVALIDARG);
; 512  : 		return;
; 513  : 	}
; 514  : 
; 515  : 	// Convert the system time to a time_t (C-runtime local time)
; 516  : 	CTime timeT(localTime, nDST);
; 517  : 	*this = timeT;
; 518  : }
; 519  : 
; 520  : inline CTime& CTime::operator=(_In_ __time64_t time) throw()
; 521  : {
; 522  : 	m_time = time;
; 523  : 
; 524  : 	return( *this );
; 525  : }
; 526  : 
; 527  : inline CTime& CTime::operator+=(_In_ CTimeSpan span) throw()
; 528  : {
; 529  : 	m_time += span.GetTimeSpan();
; 530  : 
; 531  : 	return( *this );
; 532  : }
; 533  : 
; 534  : inline CTime& CTime::operator-=(_In_ CTimeSpan span) throw()
; 535  : {
; 536  : 	m_time -= span.GetTimeSpan();
; 537  : 
; 538  : 	return( *this );
; 539  : }
; 540  : 
; 541  : inline CTimeSpan CTime::operator-(_In_ CTime time) const throw()
; 542  : {
; 543  : 	return( CTimeSpan( m_time-time.m_time ) );
; 544  : }
; 545  : 
; 546  : inline CTime CTime::operator-(_In_ CTimeSpan span) const throw()
; 547  : {
; 548  : 	return( CTime( m_time-span.GetTimeSpan() ) );
; 549  : }
; 550  : 
; 551  : inline CTime CTime::operator+(_In_ CTimeSpan span) const throw()
; 552  : {
; 553  : 	return( CTime( m_time+span.GetTimeSpan() ) );
; 554  : }
; 555  : 
; 556  : inline bool CTime::operator==(_In_ CTime time) const throw()
; 557  : {
; 558  : 	return( m_time == time.m_time );
; 559  : }
; 560  : 
; 561  : inline bool CTime::operator!=(_In_ CTime time) const throw()
; 562  : {
; 563  : 	return( m_time != time.m_time );
; 564  : }
; 565  : 
; 566  : inline bool CTime::operator<(_In_ CTime time) const throw()
; 567  : {
; 568  : 	return( m_time < time.m_time );
; 569  : }
; 570  : 
; 571  : inline bool CTime::operator>(_In_ CTime time) const throw()
; 572  : {
; 573  : 	return( m_time > time.m_time );
; 574  : }
; 575  : 
; 576  : inline bool CTime::operator<=(_In_ CTime time) const throw()
; 577  : {
; 578  : 	return( m_time <= time.m_time );
; 579  : }
; 580  : 
; 581  : inline bool CTime::operator>=(_In_ CTime time) const throw()
; 582  : {
; 583  : 	return( m_time >= time.m_time );
; 584  : }
; 585  : 
; 586  : inline _Success_(return != NULL) struct tm* CTime::GetGmtTm(_Out_ struct tm* ptm) const
; 587  : {
; 588  : 	// Ensure ptm is valid
; 589  : 	ATLENSURE( ptm != NULL );
; 590  : 
; 591  : 	if (ptm != NULL)
; 592  : 	{
; 593  : 		struct tm ptmTemp;
; 594  : 		errno_t err = _gmtime64_s(&ptmTemp, &m_time);
; 595  : 
; 596  : 		// Be sure the call succeeded
; 597  : 		if(err != 0) { return NULL; }
; 598  : 
; 599  : 		*ptm = ptmTemp;
; 600  : 		return ptm;
; 601  : 	}
; 602  : 
; 603  : 	return NULL;
; 604  : }
; 605  : 
; 606  : inline _Success_(return != NULL) struct tm* CTime::GetLocalTm(_Out_ struct tm* ptm) const
; 607  : {
; 608  : 	// Ensure ptm is valid
; 609  : 	ATLENSURE( ptm != NULL );
; 610  : 
; 611  : 	if (ptm != NULL)
; 612  : 	{
; 613  : 		struct tm ptmTemp;
; 614  : 		errno_t err = _localtime64_s(&ptmTemp, &m_time);

  00085	50		 push	 eax
  00086	e8 00 00 00 00	 call	 __localtime64_s
  0008b	83 c4 0c	 add	 esp, 12			; 0000000cH

; 615  : 
; 616  : 		if (err != 0)

  0008e	85 c0		 test	 eax, eax
  00090	75 06		 jne	 SHORT $LN48@SendCurSta

; 716  : 	return ptm ? ptm->tm_wday + 1 : 0 ;

  00092	8b 45 e4	 mov	 eax, DWORD PTR _ptmTemp$2[ebp+24]
  00095	40		 inc	 eax
  00096	eb 02		 jmp	 SHORT $LN72@SendCurSta
$LN48@SendCurSta:
  00098	33 c0		 xor	 eax, eax
$LN72@SendCurSta:
; File c:\users\michel\desktop\source\gameserver\source\imperialguardian.cpp

; 2503 : 			PHeadSubSetB((LPBYTE)&pMsg,0xF7,0x02,sizeof(pMsg));

  0009a	6a 0c		 push	 12			; 0000000cH
  0009c	6a 02		 push	 2
; File c:\program files (x86)\microsoft visual studio 14.0\vc\atlmfc\include\atltime.h

; 716  : 	return ptm ? ptm->tm_wday + 1 : 0 ;

  0009e	89 45 c8	 mov	 DWORD PTR _nDayOfWeek$1$[ebp], eax
  000a1	0f 57 c0	 xorps	 xmm0, xmm0
; File c:\users\michel\desktop\source\gameserver\source\imperialguardian.cpp

; 2503 : 			PHeadSubSetB((LPBYTE)&pMsg,0xF7,0x02,sizeof(pMsg));

  000a4	8d 45 f0	 lea	 eax, DWORD PTR _pMsg$3[ebp]
  000a7	c6 45 f0 00	 mov	 BYTE PTR _pMsg$3[ebp], 0
  000ab	68 f7 00 00 00	 push	 247			; 000000f7H
  000b0	50		 push	 eax
  000b1	66 0f d6 45 f1	 movq	 QWORD PTR _pMsg$3[ebp+1], xmm0
  000b6	66 c7 45 f9 00
	00		 mov	 WORD PTR _pMsg$3[ebp+9], 0
  000bc	c6 45 fb 00	 mov	 BYTE PTR _pMsg$3[ebp+11], 0
  000c0	e8 00 00 00 00	 call	 ?PHeadSubSetB@@YAXPAEEEH@Z ; PHeadSubSetB

; 2504 : 
; 2505 : 			pMsg.btTmp = this->iUnk1;

  000c5	8b 4d c4	 mov	 ecx, DWORD PTR _this$GSCopy$1$[ebp]
  000c8	83 c4 10	 add	 esp, 16			; 00000010H

; 2506 : 			pMsg.btResult = 0;
; 2507 : 			pMsg.btFortZone = nZoneIndex+1;

  000cb	fe c3		 inc	 bl
  000cd	c6 45 f4 00	 mov	 BYTE PTR _pMsg$3[ebp+4], 0
  000d1	88 5d f6	 mov	 BYTE PTR _pMsg$3[ebp+6], bl
  000d4	8a 41 0c	 mov	 al, BYTE PTR [ecx+12]
  000d7	88 45 f7	 mov	 BYTE PTR _pMsg$3[ebp+7], al

; 2508 : 			pMsg.iTime = this->m_ZoneInfo[nZoneIndex].m_dwREMAIN_MSEC+this->m_ZoneInfo[nZoneIndex].m_dwREMAIN_MSEC2+this->m_ZoneInfo[nZoneIndex].m_dwREMAIN_MSEC3;

  000da	8b 47 5c	 mov	 eax, DWORD PTR [edi+92]
  000dd	03 47 58	 add	 eax, DWORD PTR [edi+88]
  000e0	03 47 54	 add	 eax, DWORD PTR [edi+84]
  000e3	89 45 f8	 mov	 DWORD PTR _pMsg$3[ebp+8], eax

; 2509 : 			pMsg.btFortDay = nDayOfWeek-1;

  000e6	8b 45 c8	 mov	 eax, DWORD PTR _nDayOfWeek$1$[ebp]
  000e9	fe c8		 dec	 al
  000eb	88 45 f5	 mov	 BYTE PTR _pMsg$3[ebp+5], al

; 2510 : 
; 2511 : 			this->GCSendDataToUser(nUserIndex,(LPBYTE)&pMsg,sizeof(pMsg));

  000ee	8d 45 f0	 lea	 eax, DWORD PTR _pMsg$3[ebp]
  000f1	6a 0c		 push	 12			; 0000000cH
  000f3	50		 push	 eax
  000f4	56		 push	 esi
  000f5	e8 00 00 00 00	 call	 ?GCSendDataToUser@CImperialGuardian@@QAEXHPAEH@Z ; CImperialGuardian::GCSendDataToUser
  000fa	5f		 pop	 edi
  000fb	5e		 pop	 esi

; 2512 : 			return true;

  000fc	b8 01 00 00 00	 mov	 eax, 1
  00101	5b		 pop	 ebx

; 2516 : }

  00102	8b 4d fc	 mov	 ecx, DWORD PTR __$ArrayPad$[ebp]
  00105	33 cd		 xor	 ecx, ebp
  00107	e8 00 00 00 00	 call	 @__security_check_cookie@4
  0010c	8b e5		 mov	 esp, ebp
  0010e	5d		 pop	 ebp
  0010f	c2 08 00	 ret	 8
$LN68@SendCurSta:

; 2489 : 	{
; 2490 : 		LogAdd("error : %s %d",__FILE__,__LINE__);

  00112	68 ba 09 00 00	 push	 2490			; 000009baH
  00117	68 00 00 00 00	 push	 OFFSET ??_C@_0BF@PJIOLJJJ@ImperialGuardian?4cpp?$AA@
  0011c	68 00 00 00 00	 push	 OFFSET ??_C@_0O@CKAEPJAF@error?5?3?5?$CFs?5?$CFd?$AA@
  00121	ff 15 00 00 00
	00		 call	 DWORD PTR ?LogAdd@@3P6AXPADZZA ; LogAdd

; 2516 : }

  00127	8b 4d fc	 mov	 ecx, DWORD PTR __$ArrayPad$[ebp]
  0012a	83 c4 0c	 add	 esp, 12			; 0000000cH
  0012d	33 cd		 xor	 ecx, ebp
  0012f	33 c0		 xor	 eax, eax
  00131	5b		 pop	 ebx
  00132	e8 00 00 00 00	 call	 @__security_check_cookie@4
  00137	8b e5		 mov	 esp, ebp
  00139	5d		 pop	 ebp
  0013a	c2 08 00	 ret	 8
?SendCurStateToUser@CImperialGuardian@@QAEHHH@Z ENDP	; CImperialGuardian::SendCurStateToUser
_TEXT	ENDS
; Function compile flags: /Ogtp
; File c:\users\michel\desktop\source\gameserver\source\imperialguardian.cpp
; File c:\program files (x86)\microsoft visual studio 14.0\vc\include\vector
; File c:\users\michel\desktop\source\gameserver\source\imperialguardian.cpp
; File c:\program files (x86)\microsoft visual studio 14.0\vc\include\vector
; File c:\users\michel\desktop\source\gameserver\source\imperialguardian.cpp
;	COMDAT ?ChangeUserIndex@CImperialGuardian@@QAEHHHH@Z
_TEXT	SEGMENT
_nUserIndex$ = 8					; size = 4
_nCurrentUserIndex$ = 12				; size = 4
_nZoneIndex$ = 16					; size = 4
?ChangeUserIndex@CImperialGuardian@@QAEHHHH@Z PROC	; CImperialGuardian::ChangeUserIndex, COMDAT
; _this$ = ecx

; 2461 : {

  00000	55		 push	 ebp
  00001	8b ec		 mov	 ebp, esp
  00003	53		 push	 ebx
  00004	56		 push	 esi

; 2462 : 	if( !IMPERIAL_ZONE_CHECK(nZoneIndex) )

  00005	8b 75 10	 mov	 esi, DWORD PTR _nZoneIndex$[ebp]
  00008	8b d9		 mov	 ebx, ecx
  0000a	85 f6		 test	 esi, esi
  0000c	78 6c		 js	 SHORT $LN58@ChangeUser
  0000e	33 c0		 xor	 eax, eax
  00010	83 fe 03	 cmp	 esi, 3
  00013	0f 9e c0	 setle	 al
  00016	85 c0		 test	 eax, eax
  00018	74 60		 je	 SHORT $LN58@ChangeUser

; 2466 : 	}
; 2467 : 
; 2468 : 	EnterCriticalSection(&this->m_CritSection);

  0001a	57		 push	 edi
  0001b	8d bb cc 01 00
	00		 lea	 edi, DWORD PTR [ebx+460]
  00021	57		 push	 edi
  00022	ff 15 00 00 00
	00		 call	 DWORD PTR __imp__EnterCriticalSection@4

; 2469 : 
; 2470 : 	int nTotalUserCount = this->m_ZoneInfo[nZoneIndex].m_vtUserIndex.size();

  00028	6b c6 64	 imul	 eax, esi, 100

; 2472 : 	for(int n = 0; n < nTotalUserCount; n++)

  0002b	33 d2		 xor	 edx, edx
  0002d	03 d8		 add	 ebx, eax
; File c:\program files (x86)\microsoft visual studio 14.0\vc\include\vector

; 1179 : 		return (this->_Mylast() - this->_Myfirst());

  0002f	8b 4b 40	 mov	 ecx, DWORD PTR [ebx+64]
  00032	2b 4b 3c	 sub	 ecx, DWORD PTR [ebx+60]
  00035	c1 f9 02	 sar	 ecx, 2
; File c:\users\michel\desktop\source\gameserver\source\imperialguardian.cpp

; 2472 : 	for(int n = 0; n < nTotalUserCount; n++)

  00038	85 c9		 test	 ecx, ecx
  0003a	7e 12		 jle	 SHORT $LN3@ChangeUser
; File c:\program files (x86)\microsoft visual studio 14.0\vc\include\vector

; 1240 : 		return (*(this->_Myfirst() + _Pos));

  0003c	8b 43 3c	 mov	 eax, DWORD PTR [ebx+60]
; File c:\users\michel\desktop\source\gameserver\source\imperialguardian.cpp

; 2474 : 		if( this->m_ZoneInfo[nZoneIndex].m_vtUserIndex[n] == nUserIndex )

  0003f	8b 75 08	 mov	 esi, DWORD PTR _nUserIndex$[ebp]
$LL4@ChangeUser:
  00042	39 30		 cmp	 DWORD PTR [eax], esi
  00044	74 18		 je	 SHORT $LN54@ChangeUser

; 2472 : 	for(int n = 0; n < nTotalUserCount; n++)

  00046	42		 inc	 edx
  00047	83 c0 04	 add	 eax, 4
  0004a	3b d1		 cmp	 edx, ecx
  0004c	7c f4		 jl	 SHORT $LL4@ChangeUser
$LN3@ChangeUser:

; 2479 : 		}
; 2480 : 	}
; 2481 : 
; 2482 : 	LeaveCriticalSection(&this->m_CritSection);

  0004e	57		 push	 edi
  0004f	ff 15 00 00 00
	00		 call	 DWORD PTR __imp__LeaveCriticalSection@4
  00055	5f		 pop	 edi
  00056	5e		 pop	 esi

; 2483 : 	return 0;

  00057	33 c0		 xor	 eax, eax
  00059	5b		 pop	 ebx

; 2484 : }

  0005a	5d		 pop	 ebp
  0005b	c2 0c 00	 ret	 12			; 0000000cH
$LN54@ChangeUser:

; 2475 : 		{
; 2476 : 			this->m_ZoneInfo[nZoneIndex].m_vtUserIndex[n] = nCurrentUserIndex;

  0005e	8b 4b 3c	 mov	 ecx, DWORD PTR [ebx+60]
  00061	8b 45 0c	 mov	 eax, DWORD PTR _nCurrentUserIndex$[ebp]

; 2477 : 			LeaveCriticalSection(&this->m_CritSection);

  00064	57		 push	 edi
  00065	89 04 91	 mov	 DWORD PTR [ecx+edx*4], eax
  00068	ff 15 00 00 00
	00		 call	 DWORD PTR __imp__LeaveCriticalSection@4
  0006e	5f		 pop	 edi
  0006f	5e		 pop	 esi

; 2478 : 			return true;

  00070	b8 01 00 00 00	 mov	 eax, 1
  00075	5b		 pop	 ebx

; 2484 : }

  00076	5d		 pop	 ebp
  00077	c2 0c 00	 ret	 12			; 0000000cH
$LN58@ChangeUser:

; 2463 : 	{
; 2464 : 		LogAdd("error : %s %d",__FILE__,__LINE__);

  0007a	68 a0 09 00 00	 push	 2464			; 000009a0H
  0007f	68 00 00 00 00	 push	 OFFSET ??_C@_0BF@PJIOLJJJ@ImperialGuardian?4cpp?$AA@
  00084	68 00 00 00 00	 push	 OFFSET ??_C@_0O@CKAEPJAF@error?5?3?5?$CFs?5?$CFd?$AA@
  00089	ff 15 00 00 00
	00		 call	 DWORD PTR ?LogAdd@@3P6AXPADZZA ; LogAdd
  0008f	83 c4 0c	 add	 esp, 12			; 0000000cH

; 2465 : 		return 0;

  00092	33 c0		 xor	 eax, eax
  00094	5e		 pop	 esi
  00095	5b		 pop	 ebx

; 2484 : }

  00096	5d		 pop	 ebp
  00097	c2 0c 00	 ret	 12			; 0000000cH
?ChangeUserIndex@CImperialGuardian@@QAEHHHH@Z ENDP	; CImperialGuardian::ChangeUserIndex
_TEXT	ENDS
; Function compile flags: /Ogtp
; File c:\users\michel\desktop\source\gameserver\source\imperialguardian.cpp
;	COMDAT ?MonsterBaseAct@CImperialGuardian@@QAEXPAUOBJECTSTRUCT@@@Z
_TEXT	SEGMENT
_ty$1 = -4						; size = 4
tv602 = 8						; size = 4
_tx$2 = 8						; size = 4
_lpObj$ = 8						; size = 4
?MonsterBaseAct@CImperialGuardian@@QAEXPAUOBJECTSTRUCT@@@Z PROC ; CImperialGuardian::MonsterBaseAct, COMDAT
; _this$ = ecx

; 2304 : {

  00000	55		 push	 ebp
  00001	8b ec		 mov	 ebp, esp
  00003	51		 push	 ecx
  00004	53		 push	 ebx
  00005	56		 push	 esi

; 2305 : 	LPOBJ lpTargetObj = NULL;
; 2306 : 
; 2307 : 	if( lpObj->TargetNumber >= 0 )

  00006	8b 75 08	 mov	 esi, DWORD PTR _lpObj$[ebp]
  00009	8b d9		 mov	 ebx, ecx
  0000b	57		 push	 edi
  0000c	33 ff		 xor	 edi, edi
  0000e	0f b7 96 38 06
	00 00		 movzx	 edx, WORD PTR [esi+1592]
  00015	66 85 d2	 test	 dx, dx
  00018	78 11		 js	 SHORT $LN4@MonsterBas

; 2308 : 	{
; 2309 : 		lpTargetObj = &gObj[lpObj->TargetNumber];

  0001a	0f bf c2	 movsx	 eax, dx
  0001d	69 f8 40 27 00
	00		 imul	 edi, eax, 10048
  00023	03 3d 00 00 00
	00		 add	 edi, DWORD PTR ?gObj@@3PAUOBJECTSTRUCT@@A ; gObj

; 2310 : 	}
; 2311 : 	else

  00029	eb 0a		 jmp	 SHORT $LN5@MonsterBas
$LN4@MonsterBas:

; 2312 : 	{
; 2313 : 		lpObj->m_ActState.Emotion = 0;

  0002b	81 a6 c8 01 00
	00 0f ff ff ff	 and	 DWORD PTR [esi+456], -241 ; ffffff0fH
$LN5@MonsterBas:

; 2314 : 	}
; 2315 : 
; 2316 : 	int actcode1;
; 2317 : 
; 2318 : 	switch( lpObj->m_ActState.Emotion )

  00035	8b 8e c8 01 00
	00		 mov	 ecx, DWORD PTR [esi+456]
  0003b	8b c1		 mov	 eax, ecx
  0003d	c1 e8 04	 shr	 eax, 4
  00040	83 e0 0f	 and	 eax, 15			; 0000000fH
  00043	83 e8 00	 sub	 eax, 0
  00046	0f 84 1b 03 00
	00		 je	 $LN6@MonsterBas
  0004c	83 e8 01	 sub	 eax, 1
  0004f	74 43		 je	 SHORT $LN11@MonsterBas
  00051	83 e8 02	 sub	 eax, 2
  00054	0f 85 a1 03 00
	00		 jne	 $LN10@MonsterBas

; 2435 : 							}
; 2436 : 						}
; 2437 : 					}
; 2438 : 				}
; 2439 : 			}
; 2440 : 		break;
; 2441 : 	case 3:
; 2442 : 			if ( lpObj->m_ActState.EmotionCount > 0 )

  0005a	8a 86 c9 01 00
	00		 mov	 al, BYTE PTR [esi+457]
  00060	84 c0		 test	 al, al
  00062	74 0a		 je	 SHORT $LN30@MonsterBas

; 2443 : 			{
; 2444 : 				lpObj->m_ActState.EmotionCount--;

  00064	fe c8		 dec	 al
  00066	88 86 c9 01 00
	00		 mov	 BYTE PTR [esi+457], al

; 2445 : 			}
; 2446 : 			else

  0006c	eb 0c		 jmp	 SHORT $LN31@MonsterBas
$LN30@MonsterBas:

; 2447 : 			{
; 2448 : 				lpObj->m_ActState.Emotion = 0;

  0006e	81 e1 0f ff ff
	ff		 and	 ecx, -241		; ffffff0fH
  00074	89 8e c8 01 00
	00		 mov	 DWORD PTR [esi+456], ecx
$LN31@MonsterBas:

; 2449 : 			}
; 2450 : 
; 2451 : 			lpObj->m_ActState.Move = 0;
; 2452 : 			lpObj->m_ActState.Attack = 0;

  0007a	83 a6 c8 01 00
	00 f9		 and	 DWORD PTR [esi+456], -7	; fffffff9H
  00081	5f		 pop	 edi

; 2453 : 			lpObj->NextActionTime = 400;

  00082	c7 86 a0 05 00
	00 90 01 00 00	 mov	 DWORD PTR [esi+1440], 400 ; 00000190H
  0008c	5e		 pop	 esi
  0008d	5b		 pop	 ebx

; 2454 : 		break;
; 2455 : 	default:
; 2456 : 		break;
; 2457 : 	}
; 2458 : }

  0008e	8b e5		 mov	 esp, ebp
  00090	5d		 pop	 ebp
  00091	c2 04 00	 ret	 4
$LN11@MonsterBas:

; 2343 : 				}
; 2344 : 			}
; 2345 : 		break;
; 2346 : 	case 1:
; 2347 : 			if( lpObj->m_ActState.EmotionCount > 0 )

  00094	8a 86 c9 01 00
	00		 mov	 al, BYTE PTR [esi+457]
  0009a	84 c0		 test	 al, al
  0009c	74 0a		 je	 SHORT $LN12@MonsterBas

; 2348 : 			{
; 2349 : 				lpObj->m_ActState.EmotionCount--;

  0009e	fe c8		 dec	 al
  000a0	88 86 c9 01 00
	00		 mov	 BYTE PTR [esi+457], al

; 2350 : 			}
; 2351 : 			else

  000a6	eb 07		 jmp	 SHORT $LN13@MonsterBas
$LN12@MonsterBas:

; 2352 : 			{
; 2353 : 				lpObj->m_ActState.EmotionCount = 0;

  000a8	c6 86 c9 01 00
	00 00		 mov	 BYTE PTR [esi+457], 0
$LN13@MonsterBas:

; 2354 : 			}
; 2355 : 
; 2356 : 			if( lpObj->TargetNumber >= 0 && lpObj->PathStartEnd == 0 )

  000af	66 85 d2	 test	 dx, dx
  000b2	0f 88 43 03 00
	00		 js	 $LN10@MonsterBas
  000b8	80 be 60 01 00
	00 00		 cmp	 BYTE PTR [esi+352], 0
  000bf	0f 85 36 03 00
	00		 jne	 $LN10@MonsterBas

; 2357 : 			{
; 2358 : 				int dis = gObjCalDistance(lpObj,lpTargetObj);

  000c5	57		 push	 edi
  000c6	56		 push	 esi
  000c7	e8 00 00 00 00	 call	 ?gObjCalDistance@@YAHPAUOBJECTSTRUCT@@0@Z ; gObjCalDistance

; 2359 : 
; 2360 : 				int attackRange;
; 2361 : 
; 2362 : 				if ( lpObj->m_AttackType >= 100 )
; 2363 : 				{
; 2364 : 					attackRange = lpObj->m_AttackRange+2;

  000cc	0f bf 8e 90 06
	00 00		 movsx	 ecx, WORD PTR [esi+1680]
  000d3	83 c4 08	 add	 esp, 8
  000d6	66 83 be 92 06
	00 00 64	 cmp	 WORD PTR [esi+1682], 100 ; 00000064H
  000de	7c 03		 jl	 SHORT $LN16@MonsterBas
  000e0	83 c1 02	 add	 ecx, 2
$LN16@MonsterBas:

; 2365 : 				}
; 2366 : 				else
; 2367 : 				{
; 2368 : 					attackRange = lpObj->m_AttackRange;
; 2369 : 				}
; 2370 : 
; 2371 : 				if ( dis <= attackRange )

  000e3	3b c1		 cmp	 eax, ecx
  000e5	0f 8f 21 01 00
	00		 jg	 $LN17@MonsterBas

; 2372 : 				{
; 2373 : 					int tuser = lpObj->TargetNumber;

  000eb	0f bf 86 38 06
	00 00		 movsx	 eax, WORD PTR [esi+1592]

; 2374 : 					int map = gObj[tuser].MapNumber;

  000f2	8b 0d 00 00 00
	00		 mov	 ecx, DWORD PTR ?gObj@@3PAUOBJECTSTRUCT@@A ; gObj
  000f8	69 d8 40 27 00
	00		 imul	 ebx, eax, 10048
  000fe	0f b6 84 19 23
	01 00 00	 movzx	 eax, BYTE PTR [ecx+ebx+291]

; 2375 : 					BYTE attr;
; 2376 : 
; 2377 : 					if ( MapC[map].CheckWall(lpObj->X, lpObj->Y, gObj[tuser].X, gObj[tuser].Y) == TRUE )

  00106	69 c0 28 38 05
	00		 imul	 eax, eax, 342056
  0010c	8d 90 00 00 00
	00		 lea	 edx, DWORD PTR ?MapC@@3PAVMapClass@@A[eax]
  00112	0f b6 84 19 21
	01 00 00	 movzx	 eax, BYTE PTR [ecx+ebx+289]
  0011a	50		 push	 eax
  0011b	0f b6 84 19 20
	01 00 00	 movzx	 eax, BYTE PTR [ecx+ebx+288]
  00123	8b ca		 mov	 ecx, edx
  00125	50		 push	 eax
  00126	0f b6 86 21 01
	00 00		 movzx	 eax, BYTE PTR [esi+289]
  0012d	50		 push	 eax
  0012e	0f b6 86 20 01
	00 00		 movzx	 eax, BYTE PTR [esi+288]
  00135	50		 push	 eax
  00136	89 55 08	 mov	 DWORD PTR tv602[ebp], edx
  00139	e8 00 00 00 00	 call	 ?CheckWall@MapClass@@QAEHHHHH@Z ; MapClass::CheckWall
  0013e	83 f8 01	 cmp	 eax, 1
  00141	0f 85 b4 02 00
	00		 jne	 $LN10@MonsterBas

; 2378 : 					{
; 2379 : 						attr = MapC[map].GetAttr(gObj[tuser].X, gObj[tuser].Y);

  00147	8b 15 00 00 00
	00		 mov	 edx, DWORD PTR ?gObj@@3PAUOBJECTSTRUCT@@A ; gObj
  0014d	8b 4d 08	 mov	 ecx, DWORD PTR tv602[ebp]
  00150	0f b6 84 1a 21
	01 00 00	 movzx	 eax, BYTE PTR [edx+ebx+289]
  00158	50		 push	 eax
  00159	0f b6 84 1a 20
	01 00 00	 movzx	 eax, BYTE PTR [edx+ebx+288]
  00161	50		 push	 eax
  00162	e8 00 00 00 00	 call	 ?GetAttr@MapClass@@QAEEHH@Z ; MapClass::GetAttr

; 2380 : 
; 2381 : 						if ( (attr&1) != 1 )

  00167	a8 01		 test	 al, 1
  00169	75 37		 jne	 SHORT $LN20@MonsterBas

; 2382 : 						{
; 2383 : 							lpObj->m_ActState.Attack = 1;

  0016b	83 8e c8 01 00
	00 02		 or	 DWORD PTR [esi+456], 2

; 2384 : 							lpObj->m_ActState.EmotionCount = 20+rand()%30;

  00172	e8 00 00 00 00	 call	 _rand
  00177	8b d8		 mov	 ebx, eax
  00179	b8 89 88 88 88	 mov	 eax, -2004318071	; 88888889H
  0017e	f7 eb		 imul	 ebx
  00180	03 d3		 add	 edx, ebx
  00182	c1 fa 04	 sar	 edx, 4
  00185	8b ca		 mov	 ecx, edx
  00187	c1 e9 1f	 shr	 ecx, 31			; 0000001fH
  0018a	03 ca		 add	 ecx, edx
  0018c	8a c1		 mov	 al, cl
  0018e	c0 e0 04	 shl	 al, 4
  00191	2a c1		 sub	 al, cl
  00193	02 c0		 add	 al, al
  00195	2a d8		 sub	 bl, al
  00197	80 c3 14	 add	 bl, 20			; 00000014H
  0019a	88 9e c9 01 00
	00		 mov	 BYTE PTR [esi+457], bl

; 2385 : 						}
; 2386 : 						else

  001a0	eb 25		 jmp	 SHORT $LN21@MonsterBas
$LN20@MonsterBas:

; 2387 : 						{
; 2388 : 							lpObj->TargetNumber = -1;

  001a2	83 c8 ff	 or	 eax, -1

; 2389 : 							lpObj->m_ActState.EmotionCount = 30;

  001a5	c6 86 c9 01 00
	00 1e		 mov	 BYTE PTR [esi+457], 30	; 0000001eH
  001ac	66 89 86 38 06
	00 00		 mov	 WORD PTR [esi+1592], ax

; 2390 : 							lpObj->m_ActState.Emotion = 1;

  001b3	8b 86 c8 01 00
	00		 mov	 eax, DWORD PTR [esi+456]
  001b9	25 1f ff ff ff	 and	 eax, -225		; ffffff1fH
  001be	83 c8 10	 or	 eax, 16			; 00000010H
  001c1	89 86 c8 01 00
	00		 mov	 DWORD PTR [esi+456], eax
$LN21@MonsterBas:

; 2391 : 						}
; 2392 : 
; 2393 : 						lpObj->Dir = GetPathPacketDirPos(lpTargetObj->X-lpObj->X, lpTargetObj->Y-lpObj->Y);

  001c7	0f b6 86 21 01
	00 00		 movzx	 eax, BYTE PTR [esi+289]
  001ce	0f b6 8f 21 01
	00 00		 movzx	 ecx, BYTE PTR [edi+289]
  001d5	2b c8		 sub	 ecx, eax
  001d7	0f b6 86 20 01
	00 00		 movzx	 eax, BYTE PTR [esi+288]
  001de	51		 push	 ecx
  001df	0f b6 8f 20 01
	00 00		 movzx	 ecx, BYTE PTR [edi+288]
  001e6	2b c8		 sub	 ecx, eax
  001e8	51		 push	 ecx
  001e9	e8 00 00 00 00	 call	 ?GetPathPacketDirPos@@YAEHH@Z ; GetPathPacketDirPos
  001ee	83 c4 08	 add	 esp, 8
  001f1	88 86 22 01 00
	00		 mov	 BYTE PTR [esi+290], al

; 2394 : 						lpObj->NextActionTime = lpObj->m_AttackSpeed;

  001f7	8b 86 6c 06 00
	00		 mov	 eax, DWORD PTR [esi+1644]
  001fd	89 86 a0 05 00
	00		 mov	 DWORD PTR [esi+1440], eax
  00203	5f		 pop	 edi
  00204	5e		 pop	 esi
  00205	5b		 pop	 ebx

; 2454 : 		break;
; 2455 : 	default:
; 2456 : 		break;
; 2457 : 	}
; 2458 : }

  00206	8b e5		 mov	 esp, ebp
  00208	5d		 pop	 ebp
  00209	c2 04 00	 ret	 4
$LN17@MonsterBas:

; 2395 : 					}
; 2396 : 				}
; 2397 : 				else
; 2398 : 				{
; 2399 : 					if ( gObjMonsterGetTargetPos(lpObj) == TRUE )

  0020c	56		 push	 esi
  0020d	e8 00 00 00 00	 call	 ?gObjMonsterGetTargetPos@@YAHPAUOBJECTSTRUCT@@@Z ; gObjMonsterGetTargetPos
  00212	83 c4 04	 add	 esp, 4
  00215	83 f8 01	 cmp	 eax, 1
  00218	75 6e		 jne	 SHORT $LN22@MonsterBas

; 2400 : 					{
; 2401 : 						if ( MapC[lpObj->MapNumber].CheckWall(lpObj->X, lpObj->Y, lpObj->MTX, lpObj->MTY) == TRUE )

  0021a	0f b6 86 55 01
	00 00		 movzx	 eax, BYTE PTR [esi+341]
  00221	50		 push	 eax
  00222	0f b6 86 54 01
	00 00		 movzx	 eax, BYTE PTR [esi+340]
  00229	50		 push	 eax
  0022a	0f b6 86 21 01
	00 00		 movzx	 eax, BYTE PTR [esi+289]
  00231	50		 push	 eax
  00232	0f b6 86 20 01
	00 00		 movzx	 eax, BYTE PTR [esi+288]
  00239	50		 push	 eax
  0023a	0f b6 86 23 01
	00 00		 movzx	 eax, BYTE PTR [esi+291]
  00241	69 c8 28 38 05
	00		 imul	 ecx, eax, 342056
  00247	81 c1 00 00 00
	00		 add	 ecx, OFFSET ?MapC@@3PAVMapClass@@A ; MapC
  0024d	e8 00 00 00 00	 call	 ?CheckWall@MapClass@@QAEHHHHH@Z ; MapClass::CheckWall
  00252	83 f8 01	 cmp	 eax, 1
  00255	0f 84 c2 00 00
	00		 je	 $LN34@MonsterBas
$LN27@MonsterBas:

; 2429 : 							}
; 2430 : 							else
; 2431 : 							{
; 2432 : 								gObjMonsterMoveAction(lpObj);

  0025b	56		 push	 esi
  0025c	e8 00 00 00 00	 call	 ?gObjMonsterMoveAction@@YAXPAUOBJECTSTRUCT@@@Z ; gObjMonsterMoveAction

; 2433 : 								lpObj->m_ActState.Emotion = 3;

  00261	8b 86 c8 01 00
	00		 mov	 eax, DWORD PTR [esi+456]
  00267	83 c4 04	 add	 esp, 4
  0026a	25 3f ff ff ff	 and	 eax, -193		; ffffff3fH
  0026f	83 c8 30	 or	 eax, 48			; 00000030H
  00272	89 86 c8 01 00
	00		 mov	 DWORD PTR [esi+456], eax
  00278	5f		 pop	 edi

; 2434 : 								lpObj->m_ActState.EmotionCount = 10;

  00279	c6 86 c9 01 00
	00 0a		 mov	 BYTE PTR [esi+457], 10	; 0000000aH
  00280	5e		 pop	 esi
  00281	5b		 pop	 ebx

; 2454 : 		break;
; 2455 : 	default:
; 2456 : 		break;
; 2457 : 	}
; 2458 : }

  00282	8b e5		 mov	 esp, ebp
  00284	5d		 pop	 ebp
  00285	c2 04 00	 ret	 4
$LN22@MonsterBas:

; 2402 : 						{
; 2403 : 							lpObj->m_ActState.Move = 1;
; 2404 : 							lpObj->NextActionTime = 400;
; 2405 : 							lpObj->Dir = GetPathPacketDirPos(lpTargetObj->X-lpObj->X, lpTargetObj->Y-lpObj->Y);
; 2406 : 						}
; 2407 : 						else
; 2408 : 						{
; 2409 : 							gObjMonsterMoveAction(lpObj);
; 2410 : 							lpObj->m_ActState.Emotion = 3;
; 2411 : 							lpObj->m_ActState.EmotionCount = 10;
; 2412 : 						}
; 2413 : 					}
; 2414 : 					else
; 2415 : 					{
; 2416 : 						int tx = 0;
; 2417 : 						int ty = 0;
; 2418 : 
; 2419 : 						if( lpObj->Connected > PLAYER_LOGGED && gObjGetTargetPos(lpObj,lpObj->X,lpObj->Y,tx,ty) == TRUE )

  00288	83 7e 04 02	 cmp	 DWORD PTR [esi+4], 2
  0028c	c7 45 08 00 00
	00 00		 mov	 DWORD PTR _tx$2[ebp], 0
  00293	c7 45 fc 00 00
	00 00		 mov	 DWORD PTR _ty$1[ebp], 0
  0029a	0f 8e 5b 01 00
	00		 jle	 $LN10@MonsterBas
  002a0	8d 45 fc	 lea	 eax, DWORD PTR _ty$1[ebp]
  002a3	50		 push	 eax
  002a4	8d 45 08	 lea	 eax, DWORD PTR _tx$2[ebp]
  002a7	50		 push	 eax
  002a8	0f b6 86 21 01
	00 00		 movzx	 eax, BYTE PTR [esi+289]
  002af	50		 push	 eax
  002b0	0f b6 86 20 01
	00 00		 movzx	 eax, BYTE PTR [esi+288]
  002b7	50		 push	 eax
  002b8	56		 push	 esi
  002b9	e8 00 00 00 00	 call	 ?gObjGetTargetPos@@YAHPAUOBJECTSTRUCT@@HHAAH1@Z ; gObjGetTargetPos
  002be	83 c4 14	 add	 esp, 20			; 00000014H
  002c1	83 f8 01	 cmp	 eax, 1
  002c4	0f 85 31 01 00
	00		 jne	 $LN10@MonsterBas

; 2420 : 						{
; 2421 : 							if ( MapC[lpObj->MapNumber].CheckWall(lpObj->X, lpObj->Y, lpObj->MTX, lpObj->MTY) == TRUE )

  002ca	0f b6 86 55 01
	00 00		 movzx	 eax, BYTE PTR [esi+341]
  002d1	50		 push	 eax
  002d2	0f b6 86 54 01
	00 00		 movzx	 eax, BYTE PTR [esi+340]
  002d9	50		 push	 eax
  002da	0f b6 86 21 01
	00 00		 movzx	 eax, BYTE PTR [esi+289]
  002e1	50		 push	 eax
  002e2	0f b6 86 20 01
	00 00		 movzx	 eax, BYTE PTR [esi+288]
  002e9	50		 push	 eax
  002ea	0f b6 86 23 01
	00 00		 movzx	 eax, BYTE PTR [esi+291]
  002f1	69 c8 28 38 05
	00		 imul	 ecx, eax, 342056
  002f7	81 c1 00 00 00
	00		 add	 ecx, OFFSET ?MapC@@3PAVMapClass@@A ; MapC
  002fd	e8 00 00 00 00	 call	 ?CheckWall@MapClass@@QAEHHHHH@Z ; MapClass::CheckWall
  00302	83 f8 01	 cmp	 eax, 1
  00305	0f 85 50 ff ff
	ff		 jne	 $LN27@MonsterBas

; 2422 : 							{
; 2423 : 								lpObj->MTX = tx;

  0030b	8a 45 08	 mov	 al, BYTE PTR _tx$2[ebp]
  0030e	88 86 54 01 00
	00		 mov	 BYTE PTR [esi+340], al

; 2424 : 								lpObj->MTY = ty;

  00314	8a 45 fc	 mov	 al, BYTE PTR _ty$1[ebp]
  00317	88 86 55 01 00
	00		 mov	 BYTE PTR [esi+341], al
$LN34@MonsterBas:

; 2425 : 
; 2426 : 								lpObj->m_ActState.Move = 1;

  0031d	83 8e c8 01 00
	00 04		 or	 DWORD PTR [esi+456], 4

; 2427 : 								lpObj->NextActionTime = 400;
; 2428 : 								lpObj->Dir = GetPathPacketDirPos(lpTargetObj->X-lpObj->X, lpTargetObj->Y-lpObj->Y);

  00324	0f b6 86 21 01
	00 00		 movzx	 eax, BYTE PTR [esi+289]
  0032b	c7 86 a0 05 00
	00 90 01 00 00	 mov	 DWORD PTR [esi+1440], 400 ; 00000190H
  00335	0f b6 8f 21 01
	00 00		 movzx	 ecx, BYTE PTR [edi+289]
  0033c	2b c8		 sub	 ecx, eax
  0033e	0f b6 86 20 01
	00 00		 movzx	 eax, BYTE PTR [esi+288]
  00345	51		 push	 ecx
  00346	0f b6 8f 20 01
	00 00		 movzx	 ecx, BYTE PTR [edi+288]
  0034d	2b c8		 sub	 ecx, eax
  0034f	51		 push	 ecx
  00350	e8 00 00 00 00	 call	 ?GetPathPacketDirPos@@YAEHH@Z ; GetPathPacketDirPos
  00355	83 c4 08	 add	 esp, 8
  00358	88 86 22 01 00
	00		 mov	 BYTE PTR [esi+290], al
  0035e	5f		 pop	 edi
  0035f	5e		 pop	 esi
  00360	5b		 pop	 ebx

; 2454 : 		break;
; 2455 : 	default:
; 2456 : 		break;
; 2457 : 	}
; 2458 : }

  00361	8b e5		 mov	 esp, ebp
  00363	5d		 pop	 ebp
  00364	c2 04 00	 ret	 4
$LN6@MonsterBas:

; 2319 : 	{
; 2320 : 	case 0:
; 2321 : 			if ( lpObj->m_ActState.Attack )

  00367	f6 c1 02	 test	 cl, 2
  0036a	74 1d		 je	 SHORT $LN7@MonsterBas

; 2322 : 			{
; 2323 : 				lpObj->m_ActState.Attack = 0;

  0036c	83 e1 fd	 and	 ecx, -3			; fffffffdH

; 2324 : 				lpObj->TargetNumber = -1;
; 2325 : 				lpObj->NextActionTime = 500;

  0036f	c7 86 a0 05 00
	00 f4 01 00 00	 mov	 DWORD PTR [esi+1440], 500 ; 000001f4H
  00379	83 c8 ff	 or	 eax, -1
  0037c	89 8e c8 01 00
	00		 mov	 DWORD PTR [esi+456], ecx
  00382	66 89 86 38 06
	00 00		 mov	 WORD PTR [esi+1592], ax
$LN7@MonsterBas:

; 2326 : 			}
; 2327 : 
; 2328 : 			actcode1 = rand()%2;

  00389	e8 00 00 00 00	 call	 _rand

; 2329 : 
; 2330 : 			if( lpObj->m_MoveRange > 0 && !gObjCheckUsedBuffEffect(lpObj,AT_ICE_ARROW) )

  0038e	66 83 be 8e 06
	00 00 00	 cmp	 WORD PTR [esi+1678], 0
  00396	7e 18		 jle	 SHORT $LN8@MonsterBas
  00398	6a 39		 push	 57			; 00000039H
  0039a	56		 push	 esi
  0039b	e8 00 00 00 00	 call	 ?gObjCheckUsedBuffEffect@@YA_NPAUOBJECTSTRUCT@@H@Z ; gObjCheckUsedBuffEffect
  003a0	83 c4 08	 add	 esp, 8
  003a3	84 c0		 test	 al, al
  003a5	75 09		 jne	 SHORT $LN8@MonsterBas

; 2331 : 				gObjMonsterMoveAction(lpObj);

  003a7	56		 push	 esi
  003a8	e8 00 00 00 00	 call	 ?gObjMonsterMoveAction@@YAXPAUOBJECTSTRUCT@@@Z ; gObjMonsterMoveAction
  003ad	83 c4 04	 add	 esp, 4
$LN8@MonsterBas:

; 2332 : 
; 2333 : 			if( lpObj->m_bIsMonsterAttackFirst != 0 )

  003b0	83 be 7c 14 00
	00 00		 cmp	 DWORD PTR [esi+5244], 0
  003b7	74 42		 je	 SHORT $LN10@MonsterBas

; 2334 : 			{
; 2335 : 				lpObj->TargetNumber = gObjMonsterSearchEnemy(lpObj,OBJ_USER);

  003b9	6a 01		 push	 1
  003bb	56		 push	 esi
  003bc	e8 00 00 00 00	 call	 ?gObjMonsterSearchEnemy@@YAHPAUOBJECTSTRUCT@@E@Z ; gObjMonsterSearchEnemy
  003c1	83 c4 08	 add	 esp, 8
  003c4	66 89 86 38 06
	00 00		 mov	 WORD PTR [esi+1592], ax

; 2336 : 
; 2337 : 				if( lpObj->TargetNumber >= 0 )

  003cb	66 85 c0	 test	 ax, ax
  003ce	78 2b		 js	 SHORT $LN10@MonsterBas

; 2338 : 				{
; 2339 : 					lpObj->m_ActState.EmotionCount = 100;

  003d0	c6 86 c9 01 00
	00 64		 mov	 BYTE PTR [esi+457], 100	; 00000064H

; 2340 : 					lpObj->m_ActState.Emotion = 1;

  003d7	8b 8e c8 01 00
	00		 mov	 ecx, DWORD PTR [esi+456]
  003dd	81 e1 1f ff ff
	ff		 and	 ecx, -225		; ffffff1fH

; 2341 : 
; 2342 : 					this->SetTargetMoveAllMonster(lpObj->m_ImperialGuardianZone,lpObj->TargetNumber);

  003e3	98		 cwde
  003e4	83 c9 10	 or	 ecx, 16			; 00000010H
  003e7	50		 push	 eax
  003e8	ff b6 b8 26 00
	00		 push	 DWORD PTR [esi+9912]
  003ee	89 8e c8 01 00
	00		 mov	 DWORD PTR [esi+456], ecx
  003f4	8b cb		 mov	 ecx, ebx
  003f6	e8 00 00 00 00	 call	 ?SetTargetMoveAllMonster@CImperialGuardian@@QAEXHH@Z ; CImperialGuardian::SetTargetMoveAllMonster
$LN10@MonsterBas:
  003fb	5f		 pop	 edi
  003fc	5e		 pop	 esi
  003fd	5b		 pop	 ebx

; 2454 : 		break;
; 2455 : 	default:
; 2456 : 		break;
; 2457 : 	}
; 2458 : }

  003fe	8b e5		 mov	 esp, ebp
  00400	5d		 pop	 ebp
  00401	c2 04 00	 ret	 4
?MonsterBaseAct@CImperialGuardian@@QAEXPAUOBJECTSTRUCT@@@Z ENDP ; CImperialGuardian::MonsterBaseAct
_TEXT	ENDS
; Function compile flags: /Ogtp
; File c:\users\michel\desktop\source\gameserver\source\imperialguardian.cpp
;	COMDAT ?UserMonsterCountCheck@CImperialGuardian@@QAEXXZ
_TEXT	SEGMENT
?UserMonsterCountCheck@CImperialGuardian@@QAEXXZ PROC	; CImperialGuardian::UserMonsterCountCheck, COMDAT
; _this$ = ecx

; 2300 : 	// not used debug function
; 2301 : }

  00000	c3		 ret	 0
?UserMonsterCountCheck@CImperialGuardian@@QAEXXZ ENDP	; CImperialGuardian::UserMonsterCountCheck
_TEXT	ENDS
; Function compile flags: /Ogtp
; File c:\users\michel\desktop\source\gameserver\source\imperialguardian.cpp
; File c:\program files (x86)\microsoft visual studio 14.0\vc\include\vector
; File c:\users\michel\desktop\source\gameserver\source\imperialguardian.cpp
; File c:\program files (x86)\microsoft visual studio 14.0\vc\include\vector
; File c:\users\michel\desktop\source\gameserver\source\imperialguardian.cpp
; File c:\program files (x86)\microsoft visual studio 14.0\vc\include\vector
; File c:\users\michel\desktop\source\gameserver\source\imperialguardian.cpp
;	COMDAT ?IsRegPartyUser@CImperialGuardian@@QAE_NHH@Z
_TEXT	SEGMENT
tv234 = 8						; size = 4
_nZoneIndex$ = 8					; size = 4
_nUserIndex$ = 12					; size = 4
?IsRegPartyUser@CImperialGuardian@@QAE_NHH@Z PROC	; CImperialGuardian::IsRegPartyUser, COMDAT
; _this$ = ecx

; 2283 : {

  00000	55		 push	 ebp
  00001	8b ec		 mov	 ebp, esp

; 2284 : 	bool bFlag = false;
; 2285 : 	int nSize = this->m_ZoneInfo[nZoneIndex].m_vtPartyUserIndex.size();

  00003	6b 45 08 64	 imul	 eax, DWORD PTR _nZoneIndex$[ebp], 100
  00007	32 d2		 xor	 dl, dl
  00009	03 c8		 add	 ecx, eax

; 2287 : 	for(int i = 0; i < nSize; i++)

  0000b	33 c0		 xor	 eax, eax
  0000d	56		 push	 esi
; File c:\program files (x86)\microsoft visual studio 14.0\vc\include\vector

; 1179 : 		return (this->_Mylast() - this->_Myfirst());

  0000e	8b 71 4c	 mov	 esi, DWORD PTR [ecx+76]
  00011	2b 71 48	 sub	 esi, DWORD PTR [ecx+72]
  00014	c1 fe 02	 sar	 esi, 2
; File c:\users\michel\desktop\source\gameserver\source\imperialguardian.cpp

; 2287 : 	for(int i = 0; i < nSize; i++)

  00017	85 f6		 test	 esi, esi
  00019	7e 2c		 jle	 SHORT $LN3@IsRegParty

; 2288 : 	{
; 2289 : 		int nResult = this->m_ZoneInfo[nZoneIndex].m_vtPartyUserIndex.at(i);

  0001b	53		 push	 ebx
  0001c	8b 5d 0c	 mov	 ebx, DWORD PTR _nUserIndex$[ebp]
  0001f	57		 push	 edi
  00020	8b 79 48	 mov	 edi, DWORD PTR [ecx+72]
  00023	8b 49 4c	 mov	 ecx, DWORD PTR [ecx+76]
  00026	2b cf		 sub	 ecx, edi
  00028	c7 45 08 01 00
	00 00		 mov	 DWORD PTR tv234[ebp], 1
  0002f	c1 f9 02	 sar	 ecx, 2
$LL4@IsRegParty:
; File c:\program files (x86)\microsoft visual studio 14.0\vc\include\vector

; 1206 : 		if (size() <= _Pos)

  00032	3b c8		 cmp	 ecx, eax
  00034	76 18		 jbe	 SHORT $LN71@IsRegParty
; File c:\users\michel\desktop\source\gameserver\source\imperialguardian.cpp

; 2291 : 		if( nResult == nUserIndex )

  00036	39 1c 87	 cmp	 DWORD PTR [edi+eax*4], ebx
  00039	0f b6 d2	 movzx	 edx, dl
  0003c	0f 44 55 08	 cmove	 edx, DWORD PTR tv234[ebp]
  00040	40		 inc	 eax
  00041	3b c6		 cmp	 eax, esi
