; Listing generated by Microsoft (R) Optimizing Compiler Version 19.00.23506.0 

	TITLE	C:\Users\Michel\Desktop\Source\GameServer\Source\ItemPrice.cpp
	.686P
	.XMM
	include listing.inc
	.model	flat

INCLUDELIB LIBCMT
INCLUDELIB OLDNAMES

PUBLIC	?__empty_global_delete@@YAXPAX@Z		; __empty_global_delete
PUBLIC	?__empty_global_delete@@YAXPAXI@Z		; __empty_global_delete
PUBLIC	??1OBJECTSTRUCT@@QAE@XZ				; OBJECTSTRUCT::~OBJECTSTRUCT
PUBLIC	??_EOBJECTSTRUCT@@QAEPAXI@Z			; OBJECTSTRUCT::`vector deleting destructor'
PUBLIC	??0ItemPrice@@QAE@XZ				; ItemPrice::ItemPrice
PUBLIC	??1ItemPrice@@UAE@XZ				; ItemPrice::~ItemPrice
PUBLIC	?Init@ItemPrice@@QAEXXZ				; ItemPrice::Init
PUBLIC	?Load@ItemPrice@@QAEXXZ				; ItemPrice::Load
PUBLIC	?Read@ItemPrice@@QAEXPAD@Z			; ItemPrice::Read
PUBLIC	?GetPrice@ItemPrice@@QAE_NFGEAAKAAE@Z		; ItemPrice::GetPrice
PUBLIC	?GetSendPrice@ItemPrice@@QAE_NFGEAAKAAE@Z	; ItemPrice::GetSendPrice
PUBLIC	?SendPrice@ItemPrice@@QAEXHH@Z			; ItemPrice::SendPrice
PUBLIC	?deallocate@?$allocator@UItemPriceInfo@@@std@@QAEXPAUItemPriceInfo@@I@Z ; std::allocator<ItemPriceInfo>::deallocate
PUBLIC	?allocate@?$allocator@UItemPriceInfo@@@std@@QAEPAUItemPriceInfo@@I@Z ; std::allocator<ItemPriceInfo>::allocate
PUBLIC	?push_back@?$vector@UItemPriceInfo@@V?$allocator@UItemPriceInfo@@@std@@@std@@QAEXABUItemPriceInfo@@@Z ; std::vector<ItemPriceInfo,std::allocator<ItemPriceInfo> >::push_back
PUBLIC	?_Reallocate@?$vector@UItemPriceInfo@@V?$allocator@UItemPriceInfo@@@std@@@std@@IAEXI@Z ; std::vector<ItemPriceInfo,std::allocator<ItemPriceInfo> >::_Reallocate
PUBLIC	?_Reserve@?$vector@UItemPriceInfo@@V?$allocator@UItemPriceInfo@@@std@@@std@@IAEXI@Z ; std::vector<ItemPriceInfo,std::allocator<ItemPriceInfo> >::_Reserve
PUBLIC	??_GItemPrice@@UAEPAXI@Z			; ItemPrice::`scalar deleting destructor'
PUBLIC	??$_Uninit_move@PAUItemPriceInfo@@PAU1@V?$allocator@UItemPriceInfo@@@std@@U1@@std@@YAPAUItemPriceInfo@@PAU1@00AAU?$_Wrap_alloc@V?$allocator@UItemPriceInfo@@@std@@@0@0U_Nonscalar_ptr_iterator_tag@0@@Z ; std::_Uninit_move<ItemPriceInfo *,ItemPriceInfo *,std::allocator<ItemPriceInfo>,ItemPriceInfo>
PUBLIC	??_7ItemPrice@@6B@				; ItemPrice::`vftable'
PUBLIC	?g_ItemPrice@@3VItemPrice@@A			; g_ItemPrice
PUBLIC	??_C@_0BF@CPLIFJBD@Custom?2ItemPrice?4xml?$AA@	; `string'
PUBLIC	??_C@_0BP@FIKPEDIE@?$FLItemPrice?$FN?5File?5?$CFs?5not?5found?$CB?$AA@ ; `string'
PUBLIC	??_C@_09HCKHEFGM@itemprice?$AA@			; `string'
PUBLIC	??_C@_04NHONDGDE@item?$AA@			; `string'
PUBLIC	??_C@_04GPMDFGEJ@type?$AA@			; `string'
PUBLIC	??_C@_05FKHKFDID@index?$AA@			; `string'
PUBLIC	??_C@_05KJNJLLGA@level?$AA@			; `string'
PUBLIC	??_C@_05NCDILCCA@price?$AA@			; `string'
PUBLIC	??_C@_07LOADOEBK@divisor?$AA@			; `string'
PUBLIC	??_C@_04BFIJLIPK@shop?$AA@			; `string'
PUBLIC	??_C@_0BD@OLBABOEK@vector?$DMT?$DO?5too?5long?$AA@ ; `string'
PUBLIC	??_R4ItemPrice@@6B@				; ItemPrice::`RTTI Complete Object Locator'
PUBLIC	??_R0?AVItemPrice@@@8				; ItemPrice `RTTI Type Descriptor'
PUBLIC	??_R3ItemPrice@@8				; ItemPrice::`RTTI Class Hierarchy Descriptor'
PUBLIC	??_R2ItemPrice@@8				; ItemPrice::`RTTI Base Class Array'
PUBLIC	??_R1A@?0A@EA@ItemPrice@@8			; ItemPrice::`RTTI Base Class Descriptor at (0,-1,0,64)'
EXTRN	??_M@YGXPAXIIP6EX0@Z@Z:PROC			; `eh vector destructor iterator'
EXTRN	??2@YAPAXI@Z:PROC				; operator new
EXTRN	??3@YAXPAX@Z:PROC				; operator delete
EXTRN	??3@YAXPAXI@Z:PROC				; operator delete
EXTRN	??_V@YAXPAXI@Z:PROC				; operator delete[]
EXTRN	_atexit:PROC
EXTRN	__invalid_parameter_noinfo_noreturn:PROC
EXTRN	?_Xbad_alloc@std@@YAXXZ:PROC			; std::_Xbad_alloc
EXTRN	?_Xlength_error@std@@YAXPBD@Z:PROC		; std::_Xlength_error
EXTRN	?IsItem@CItem@@QAEHXZ:PROC			; CItem::IsItem
EXTRN	??1CSkillDelay@@UAE@XZ:PROC			; CSkillDelay::~CSkillDelay
EXTRN	?MsgBox@@YAXPADZZ:PROC				; MsgBox
EXTRN	?DataSend@@YAHHPAEK@Z:PROC			; DataSend
EXTRN	??1TMonsterAIAgro@@UAE@XZ:PROC			; TMonsterAIAgro::~TMonsterAIAgro
EXTRN	?gObjIsConnected@@YAHH@Z:PROC			; gObjIsConnected
EXTRN	??_EItemPrice@@UAEPAXI@Z:PROC			; ItemPrice::`vector deleting destructor'
EXTRN	?GetNewPath@CDirPath@@QAEPADPAD@Z:PROC		; CDirPath::GetNewPath
EXTRN	?as_int@xml_attribute@pugi@@QBEHH@Z:PROC	; pugi::xml_attribute::as_int
EXTRN	?as_uint@xml_attribute@pugi@@QBEII@Z:PROC	; pugi::xml_attribute::as_uint
EXTRN	??Bxml_node@pugi@@QBEP6AXPAPAPAV01@@ZXZ:PROC	; pugi::xml_node::operator void (__cdecl*)(pugi::xml_node * * *)
EXTRN	?next_sibling@xml_node@pugi@@QBE?AV12@XZ:PROC	; pugi::xml_node::next_sibling
EXTRN	?child@xml_node@pugi@@QBE?AV12@PBD@Z:PROC	; pugi::xml_node::child
EXTRN	?attribute@xml_node@pugi@@QBE?AVxml_attribute@2@PBD@Z:PROC ; pugi::xml_node::attribute
EXTRN	??0xml_document@pugi@@QAE@XZ:PROC		; pugi::xml_document::xml_document
EXTRN	??1xml_document@pugi@@QAE@XZ:PROC		; pugi::xml_document::~xml_document
EXTRN	?load_file@xml_document@pugi@@QAE?AUxml_parse_result@2@PBDIW4xml_encoding@2@@Z:PROC ; pugi::xml_document::load_file
EXTRN	?Get@ShopManager@@QAEPAVCShop@@H@Z:PROC		; ShopManager::Get
EXTRN	@__security_check_cookie@4:PROC
EXTRN	__CxxThrowException@8:PROC
EXTRN	___CxxFrameHandler3:PROC
EXTRN	_memset:PROC
EXTRN	??_7type_info@@6B@:QWORD			; type_info::`vftable'
EXTRN	?gObj@@3PAUOBJECTSTRUCT@@A:DWORD		; gObj
EXTRN	?gDirPath@@3VCDirPath@@A:BYTE			; gDirPath
EXTRN	?g_ShopManager@@3VShopManager@@A:BYTE		; g_ShopManager
EXTRN	___security_cookie:DWORD
_BSS	SEGMENT
?g_ItemPrice@@3VItemPrice@@A DB 010H DUP (?)		; g_ItemPrice
_BSS	ENDS
CRT$XCU	SEGMENT
?g_ItemPrice$initializer$@@3P6AXXZA DD FLAT:??__Eg_ItemPrice@@YAXXZ ; g_ItemPrice$initializer$
CRT$XCU	ENDS
;	COMDAT ??_R1A@?0A@EA@ItemPrice@@8
rdata$r	SEGMENT
??_R1A@?0A@EA@ItemPrice@@8 DD FLAT:??_R0?AVItemPrice@@@8 ; ItemPrice::`RTTI Base Class Descriptor at (0,-1,0,64)'
	DD	00H
	DD	00H
	DD	0ffffffffH
	DD	00H
	DD	040H
	DD	FLAT:??_R3ItemPrice@@8
rdata$r	ENDS
;	COMDAT ??_R2ItemPrice@@8
rdata$r	SEGMENT
??_R2ItemPrice@@8 DD FLAT:??_R1A@?0A@EA@ItemPrice@@8	; ItemPrice::`RTTI Base Class Array'
rdata$r	ENDS
;	COMDAT ??_R3ItemPrice@@8
rdata$r	SEGMENT
??_R3ItemPrice@@8 DD 00H				; ItemPrice::`RTTI Class Hierarchy Descriptor'
	DD	00H
	DD	01H
	DD	FLAT:??_R2ItemPrice@@8
rdata$r	ENDS
;	COMDAT ??_R0?AVItemPrice@@@8
data$r	SEGMENT
??_R0?AVItemPrice@@@8 DD FLAT:??_7type_info@@6B@	; ItemPrice `RTTI Type Descriptor'
	DD	00H
	DB	'.?AVItemPrice@@', 00H
data$r	ENDS
;	COMDAT ??_R4ItemPrice@@6B@
rdata$r	SEGMENT
??_R4ItemPrice@@6B@ DD 00H				; ItemPrice::`RTTI Complete Object Locator'
	DD	00H
	DD	00H
	DD	FLAT:??_R0?AVItemPrice@@@8
	DD	FLAT:??_R3ItemPrice@@8
rdata$r	ENDS
;	COMDAT ??_C@_0BD@OLBABOEK@vector?$DMT?$DO?5too?5long?$AA@
CONST	SEGMENT
??_C@_0BD@OLBABOEK@vector?$DMT?$DO?5too?5long?$AA@ DB 'vector<T> too long'
	DB	00H						; `string'
CONST	ENDS
;	COMDAT ??_C@_04BFIJLIPK@shop?$AA@
CONST	SEGMENT
??_C@_04BFIJLIPK@shop?$AA@ DB 'shop', 00H		; `string'
CONST	ENDS
;	COMDAT ??_C@_07LOADOEBK@divisor?$AA@
CONST	SEGMENT
??_C@_07LOADOEBK@divisor?$AA@ DB 'divisor', 00H		; `string'
CONST	ENDS
;	COMDAT ??_C@_05NCDILCCA@price?$AA@
CONST	SEGMENT
??_C@_05NCDILCCA@price?$AA@ DB 'price', 00H		; `string'
CONST	ENDS
;	COMDAT ??_C@_05KJNJLLGA@level?$AA@
CONST	SEGMENT
??_C@_05KJNJLLGA@level?$AA@ DB 'level', 00H		; `string'
CONST	ENDS
;	COMDAT ??_C@_05FKHKFDID@index?$AA@
CONST	SEGMENT
??_C@_05FKHKFDID@index?$AA@ DB 'index', 00H		; `string'
CONST	ENDS
;	COMDAT ??_C@_04GPMDFGEJ@type?$AA@
CONST	SEGMENT
??_C@_04GPMDFGEJ@type?$AA@ DB 'type', 00H		; `string'
CONST	ENDS
;	COMDAT ??_C@_04NHONDGDE@item?$AA@
CONST	SEGMENT
??_C@_04NHONDGDE@item?$AA@ DB 'item', 00H		; `string'
CONST	ENDS
;	COMDAT ??_C@_09HCKHEFGM@itemprice?$AA@
CONST	SEGMENT
??_C@_09HCKHEFGM@itemprice?$AA@ DB 'itemprice', 00H	; `string'
CONST	ENDS
;	COMDAT ??_C@_0BP@FIKPEDIE@?$FLItemPrice?$FN?5File?5?$CFs?5not?5found?$CB?$AA@
CONST	SEGMENT
??_C@_0BP@FIKPEDIE@?$FLItemPrice?$FN?5File?5?$CFs?5not?5found?$CB?$AA@ DB '['
	DB	'ItemPrice] File %s not found!', 00H		; `string'
CONST	ENDS
;	COMDAT ??_C@_0BF@CPLIFJBD@Custom?2ItemPrice?4xml?$AA@
CONST	SEGMENT
??_C@_0BF@CPLIFJBD@Custom?2ItemPrice?4xml?$AA@ DB 'Custom\ItemPrice.xml', 00H ; `string'
CONST	ENDS
;	COMDAT ??_7ItemPrice@@6B@
CONST	SEGMENT
??_7ItemPrice@@6B@ DD FLAT:??_R4ItemPrice@@6B@		; ItemPrice::`vftable'
	DD	FLAT:??_EItemPrice@@UAEPAXI@Z
CONST	ENDS
;	COMDAT xdata$x
xdata$x	SEGMENT
__catchsym$?_Reallocate@?$vector@UItemPriceInfo@@V?$allocator@UItemPriceInfo@@@std@@@std@@IAEXI@Z$50 DD 040H
	DD	00H
	DD	00H
	DD	FLAT:__catch$?_Reallocate@?$vector@UItemPriceInfo@@V?$allocator@UItemPriceInfo@@@std@@@std@@IAEXI@Z$0
__unwindtable$?_Reallocate@?$vector@UItemPriceInfo@@V?$allocator@UItemPriceInfo@@@std@@@std@@IAEXI@Z DD 0ffffffffH
	DD	00H
	DD	0ffffffffH
	DD	00H
__tryblocktable$?_Reallocate@?$vector@UItemPriceInfo@@V?$allocator@UItemPriceInfo@@@std@@@std@@IAEXI@Z DD 00H
	DD	00H
	DD	01H
	DD	01H
	DD	FLAT:__catchsym$?_Reallocate@?$vector@UItemPriceInfo@@V?$allocator@UItemPriceInfo@@@std@@@std@@IAEXI@Z$50
__ehfuncinfo$?_Reallocate@?$vector@UItemPriceInfo@@V?$allocator@UItemPriceInfo@@@std@@@std@@IAEXI@Z DD 019930522H
	DD	02H
	DD	FLAT:__unwindtable$?_Reallocate@?$vector@UItemPriceInfo@@V?$allocator@UItemPriceInfo@@@std@@@std@@IAEXI@Z
	DD	01H
	DD	FLAT:__tryblocktable$?_Reallocate@?$vector@UItemPriceInfo@@V?$allocator@UItemPriceInfo@@@std@@@std@@IAEXI@Z
	DD	2 DUP(00H)
	DD	00H
	DD	01H
xdata$x	ENDS
;	COMDAT xdata$x
xdata$x	SEGMENT
__unwindtable$?Read@ItemPrice@@QAEXPAD@Z DD 0ffffffffH
	DD	FLAT:__unwindfunclet$?Read@ItemPrice@@QAEXPAD@Z$0
__ehfuncinfo$?Read@ItemPrice@@QAEXPAD@Z DD 019930522H
	DD	01H
	DD	FLAT:__unwindtable$?Read@ItemPrice@@QAEXPAD@Z
	DD	2 DUP(00H)
	DD	2 DUP(00H)
	DD	00H
	DD	01H
xdata$x	ENDS
;	COMDAT xdata$x
xdata$x	SEGMENT
__ehfuncinfo$??_EOBJECTSTRUCT@@QAEPAXI@Z DD 019930522H
	DD	00H
	DD	00H
	DD	2 DUP(00H)
	DD	2 DUP(00H)
	DD	00H
	DD	05H
xdata$x	ENDS
; Function compile flags: /Ogtp
; File c:\program files (x86)\microsoft visual studio 14.0\vc\include\xmemory0
;	COMDAT ??$construct@UItemPriceInfo@@U1@@?$allocator@UItemPriceInfo@@@std@@QAEXPAUItemPriceInfo@@$$QAU2@@Z
_TEXT	SEGMENT
__Ptr$ = 8						; size = 4
_<_Args_0>$ = 12					; size = 4
??$construct@UItemPriceInfo@@U1@@?$allocator@UItemPriceInfo@@@std@@QAEXPAUItemPriceInfo@@$$QAU2@@Z PROC ; std::allocator<ItemPriceInfo>::construct<ItemPriceInfo,ItemPriceInfo>, COMDAT
; _this$ = ecx

; 654  : 		{	// construct _Objty(_Types...) at _Ptr

  00000	55		 push	 ebp
  00001	8b ec		 mov	 ebp, esp

; 655  : 		::new ((void *)_Ptr) _Objty(_STD forward<_Types>(_Args)...);

  00003	8b 4d 08	 mov	 ecx, DWORD PTR __Ptr$[ebp]
  00006	85 c9		 test	 ecx, ecx
  00008	74 11		 je	 SHORT $LN3@construct
  0000a	8b 45 0c	 mov	 eax, DWORD PTR _<_Args_0>$[ebp]
  0000d	f3 0f 7e 00	 movq	 xmm0, QWORD PTR [eax]
  00011	66 0f d6 01	 movq	 QWORD PTR [ecx], xmm0
  00015	8b 40 08	 mov	 eax, DWORD PTR [eax+8]
  00018	89 41 08	 mov	 DWORD PTR [ecx+8], eax
$LN3@construct:

; 656  : 		}

  0001b	5d		 pop	 ebp
  0001c	c2 08 00	 ret	 8
??$construct@UItemPriceInfo@@U1@@?$allocator@UItemPriceInfo@@@std@@QAEXPAUItemPriceInfo@@$$QAU2@@Z ENDP ; std::allocator<ItemPriceInfo>::construct<ItemPriceInfo,ItemPriceInfo>
_TEXT	ENDS
; Function compile flags: /Ogtp
; File c:\program files (x86)\microsoft visual studio 14.0\vc\include\xmemory0
;	COMDAT ??$construct@UItemPriceInfo@@U1@@?$allocator_traits@V?$allocator@UItemPriceInfo@@@std@@@std@@SAXAAV?$allocator@UItemPriceInfo@@@1@PAUItemPriceInfo@@$$QAU3@@Z
_TEXT	SEGMENT
__Al$ = 8						; size = 4
__Ptr$ = 12						; size = 4
_<_Args_0>$ = 16					; size = 4
??$construct@UItemPriceInfo@@U1@@?$allocator_traits@V?$allocator@UItemPriceInfo@@@std@@@std@@SAXAAV?$allocator@UItemPriceInfo@@@1@PAUItemPriceInfo@@$$QAU3@@Z PROC ; std::allocator_traits<std::allocator<ItemPriceInfo> >::construct<ItemPriceInfo,ItemPriceInfo>, COMDAT

; 772  : 		{	// construct _Objty(_Types...) at _Ptr

  00000	55		 push	 ebp
  00001	8b ec		 mov	 ebp, esp

; 655  : 		::new ((void *)_Ptr) _Objty(_STD forward<_Types>(_Args)...);

  00003	8b 4d 0c	 mov	 ecx, DWORD PTR __Ptr$[ebp]
  00006	85 c9		 test	 ecx, ecx
  00008	74 11		 je	 SHORT $LN8@construct
  0000a	8b 45 10	 mov	 eax, DWORD PTR _<_Args_0>$[ebp]
  0000d	f3 0f 7e 00	 movq	 xmm0, QWORD PTR [eax]
  00011	66 0f d6 01	 movq	 QWORD PTR [ecx], xmm0
  00015	8b 40 08	 mov	 eax, DWORD PTR [eax+8]
  00018	89 41 08	 mov	 DWORD PTR [ecx+8], eax
$LN8@construct:

; 773  : 		_Al.construct(_Ptr, _STD forward<_Types>(_Args)...);
; 774  : 		}

  0001b	5d		 pop	 ebp
  0001c	c3		 ret	 0
??$construct@UItemPriceInfo@@U1@@?$allocator_traits@V?$allocator@UItemPriceInfo@@@std@@@std@@SAXAAV?$allocator@UItemPriceInfo@@@1@PAUItemPriceInfo@@$$QAU3@@Z ENDP ; std::allocator_traits<std::allocator<ItemPriceInfo> >::construct<ItemPriceInfo,ItemPriceInfo>
_TEXT	ENDS
; Function compile flags: /Ogtp
; File c:\program files (x86)\microsoft visual studio 14.0\vc\include\type_traits
;	COMDAT ??$forward@UItemPriceInfo@@@std@@YA$$QAUItemPriceInfo@@AAU1@@Z
_TEXT	SEGMENT
__Arg$ = 8						; size = 4
??$forward@UItemPriceInfo@@@std@@YA$$QAUItemPriceInfo@@AAU1@@Z PROC ; std::forward<ItemPriceInfo>, COMDAT

; 1233 : 	{	// forward an lvalue as either an lvalue or an rvalue

  00000	55		 push	 ebp
  00001	8b ec		 mov	 ebp, esp

; 1234 : 	return (static_cast<_Ty&&>(_Arg));

  00003	8b 45 08	 mov	 eax, DWORD PTR __Arg$[ebp]

; 1235 : 	}

  00006	5d		 pop	 ebp
  00007	c3		 ret	 0
??$forward@UItemPriceInfo@@@std@@YA$$QAUItemPriceInfo@@AAU1@@Z ENDP ; std::forward<ItemPriceInfo>
_TEXT	ENDS
; Function compile flags: /Ogtp
; File c:\program files (x86)\microsoft visual studio 14.0\vc\include\xmemory0
;	COMDAT ??$construct@UItemPriceInfo@@U1@@?$_Wrap_alloc@V?$allocator@UItemPriceInfo@@@std@@@std@@QAEXPAUItemPriceInfo@@$$QAU2@@Z
_TEXT	SEGMENT
__Ptr$ = 8						; size = 4
_<_Args_0>$ = 12					; size = 4
??$construct@UItemPriceInfo@@U1@@?$_Wrap_alloc@V?$allocator@UItemPriceInfo@@@std@@@std@@QAEXPAUItemPriceInfo@@$$QAU2@@Z PROC ; std::_Wrap_alloc<std::allocator<ItemPriceInfo> >::construct<ItemPriceInfo,ItemPriceInfo>, COMDAT
; _this$ = ecx

; 916  : 		{	// construct _Ty(_Types...) at _Ptr

  00000	55		 push	 ebp
  00001	8b ec		 mov	 ebp, esp

; 655  : 		::new ((void *)_Ptr) _Objty(_STD forward<_Types>(_Args)...);

  00003	8b 4d 08	 mov	 ecx, DWORD PTR __Ptr$[ebp]
  00006	85 c9		 test	 ecx, ecx
  00008	74 11		 je	 SHORT $LN13@construct
  0000a	8b 45 0c	 mov	 eax, DWORD PTR _<_Args_0>$[ebp]
  0000d	f3 0f 7e 00	 movq	 xmm0, QWORD PTR [eax]
  00011	66 0f d6 01	 movq	 QWORD PTR [ecx], xmm0
  00015	8b 40 08	 mov	 eax, DWORD PTR [eax+8]
  00018	89 41 08	 mov	 DWORD PTR [ecx+8], eax
$LN13@construct:

; 917  : 		_Mytraits::construct(*this, _Ptr,
; 918  : 			_STD forward<_Types>(_Args)...);
; 919  : 		}

  0001b	5d		 pop	 ebp
  0001c	c2 08 00	 ret	 8
??$construct@UItemPriceInfo@@U1@@?$_Wrap_alloc@V?$allocator@UItemPriceInfo@@@std@@@std@@QAEXPAUItemPriceInfo@@$$QAU2@@Z ENDP ; std::_Wrap_alloc<std::allocator<ItemPriceInfo> >::construct<ItemPriceInfo,ItemPriceInfo>
_TEXT	ENDS
; Function compile flags: /Ogtp
; File c:\program files (x86)\microsoft visual studio 14.0\vc\include\xmemory0
;	COMDAT ??$destroy@UItemPriceInfo@@@?$allocator@UItemPriceInfo@@@std@@QAEXPAUItemPriceInfo@@@Z
_TEXT	SEGMENT
__Ptr$ = 8						; size = 4
??$destroy@UItemPriceInfo@@@?$allocator@UItemPriceInfo@@@std@@QAEXPAUItemPriceInfo@@@Z PROC ; std::allocator<ItemPriceInfo>::destroy<ItemPriceInfo>, COMDAT
; _this$ = ecx

; 662  : 		_Ptr->~_Uty();
; 663  : 		}

  00000	c2 04 00	 ret	 4
??$destroy@UItemPriceInfo@@@?$allocator@UItemPriceInfo@@@std@@QAEXPAUItemPriceInfo@@@Z ENDP ; std::allocator<ItemPriceInfo>::destroy<ItemPriceInfo>
_TEXT	ENDS
; Function compile flags: /Ogtp
; File c:\program files (x86)\microsoft visual studio 14.0\vc\include\xmemory
; File c:\program files (x86)\microsoft visual studio 14.0\vc\include\xmemory0
; File c:\program files (x86)\microsoft visual studio 14.0\vc\include\xmemory
;	COMDAT ??$_Uninit_move@PAUItemPriceInfo@@PAU1@V?$allocator@UItemPriceInfo@@@std@@U1@@std@@YAPAUItemPriceInfo@@PAU1@00AAU?$_Wrap_alloc@V?$allocator@UItemPriceInfo@@@std@@@0@0U_Nonscalar_ptr_iterator_tag@0@@Z
_TEXT	SEGMENT
__First$ = 8						; size = 4
__Last$ = 12						; size = 4
__Dest$ = 16						; size = 4
__Al$ = 20						; size = 4
___formal$ = 24						; size = 4
___formal$ = 28						; size = 1
??$_Uninit_move@PAUItemPriceInfo@@PAU1@V?$allocator@UItemPriceInfo@@@std@@U1@@std@@YAPAUItemPriceInfo@@PAU1@00AAU?$_Wrap_alloc@V?$allocator@UItemPriceInfo@@@std@@@0@0U_Nonscalar_ptr_iterator_tag@0@@Z PROC ; std::_Uninit_move<ItemPriceInfo *,ItemPriceInfo *,std::allocator<ItemPriceInfo>,ItemPriceInfo>, COMDAT

; 437  : 	{	// move [_First, _Last) to raw _Dest, using _Al, arbitrary type

  00000	55		 push	 ebp
  00001	8b ec		 mov	 ebp, esp

; 442  : 	for (; _First != _Last; ++_Dest, (void)++_First)

  00003	8b 4d 08	 mov	 ecx, DWORD PTR __First$[ebp]
  00006	8b 45 10	 mov	 eax, DWORD PTR __Dest$[ebp]
  00009	56		 push	 esi
  0000a	8b 75 0c	 mov	 esi, DWORD PTR __Last$[ebp]
  0000d	3b ce		 cmp	 ecx, esi
  0000f	74 1c		 je	 SHORT $LN3@Uninit_mov
$LL4@Uninit_mov:
; File c:\program files (x86)\microsoft visual studio 14.0\vc\include\xmemory0

; 655  : 		::new ((void *)_Ptr) _Objty(_STD forward<_Types>(_Args)...);

  00011	85 c0		 test	 eax, eax
  00013	74 0e		 je	 SHORT $LN2@Uninit_mov
  00015	f3 0f 7e 01	 movq	 xmm0, QWORD PTR [ecx]
  00019	66 0f d6 00	 movq	 QWORD PTR [eax], xmm0
  0001d	8b 51 08	 mov	 edx, DWORD PTR [ecx+8]
  00020	89 50 08	 mov	 DWORD PTR [eax+8], edx
$LN2@Uninit_mov:
; File c:\program files (x86)\microsoft visual studio 14.0\vc\include\xmemory

; 442  : 	for (; _First != _Last; ++_Dest, (void)++_First)

  00023	83 c1 0c	 add	 ecx, 12			; 0000000cH
  00026	83 c0 0c	 add	 eax, 12			; 0000000cH
  00029	3b ce		 cmp	 ecx, esi
  0002b	75 e4		 jne	 SHORT $LL4@Uninit_mov
$LN3@Uninit_mov:
  0002d	5e		 pop	 esi

; 443  : 		_Al.construct(_Dest, (_Valty&&)*_First);
; 444  : 	_CATCH_ALL
; 445  : 	for (; _Next != _Dest; ++_Next)
; 446  : 		_Al.destroy(_Next);
; 447  : 	_RERAISE;
; 448  : 	_CATCH_END
; 449  : 	return (_Dest);
; 450  : 	}

  0002e	5d		 pop	 ebp
  0002f	c3		 ret	 0
??$_Uninit_move@PAUItemPriceInfo@@PAU1@V?$allocator@UItemPriceInfo@@@std@@U1@@std@@YAPAUItemPriceInfo@@PAU1@00AAU?$_Wrap_alloc@V?$allocator@UItemPriceInfo@@@std@@@0@0U_Nonscalar_ptr_iterator_tag@0@@Z ENDP ; std::_Uninit_move<ItemPriceInfo *,ItemPriceInfo *,std::allocator<ItemPriceInfo>,ItemPriceInfo>
_TEXT	ENDS
; Function compile flags: /Ogtp
; File c:\program files (x86)\microsoft visual studio 14.0\vc\include\xutility
;	COMDAT ??$_Val_type@PAUItemPriceInfo@@@std@@YAPAUItemPriceInfo@@PAU1@@Z
_TEXT	SEGMENT
___formal$ = 8						; size = 4
??$_Val_type@PAUItemPriceInfo@@@std@@YAPAUItemPriceInfo@@PAU1@@Z PROC ; std::_Val_type<ItemPriceInfo *>, COMDAT

; 875  : 	return (0);

  00000	33 c0		 xor	 eax, eax

; 876  : 	}

  00002	c3		 ret	 0
??$_Val_type@PAUItemPriceInfo@@@std@@YAPAUItemPriceInfo@@PAU1@@Z ENDP ; std::_Val_type<ItemPriceInfo *>
_TEXT	ENDS
; Function compile flags: /Ogtp
; File c:\program files (x86)\microsoft visual studio 14.0\vc\include\xmemory0
;	COMDAT ??$destroy@UItemPriceInfo@@@?$allocator_traits@V?$allocator@UItemPriceInfo@@@std@@@std@@SAXAAV?$allocator@UItemPriceInfo@@@1@PAUItemPriceInfo@@@Z
_TEXT	SEGMENT
__Al$ = 8						; size = 4
__Ptr$ = 12						; size = 4
??$destroy@UItemPriceInfo@@@?$allocator_traits@V?$allocator@UItemPriceInfo@@@std@@@std@@SAXAAV?$allocator@UItemPriceInfo@@@1@PAUItemPriceInfo@@@Z PROC ; std::allocator_traits<std::allocator<ItemPriceInfo> >::destroy<ItemPriceInfo>, COMDAT

; 780  : 		_Al.destroy(_Ptr);
; 781  : 		}

  00000	c3		 ret	 0
??$destroy@UItemPriceInfo@@@?$allocator_traits@V?$allocator@UItemPriceInfo@@@std@@@std@@SAXAAV?$allocator@UItemPriceInfo@@@1@PAUItemPriceInfo@@@Z ENDP ; std::allocator_traits<std::allocator<ItemPriceInfo> >::destroy<ItemPriceInfo>
_TEXT	ENDS
; Function compile flags: /Ogtp
; File c:\program files (x86)\microsoft visual studio 14.0\vc\include\xstddef
;	COMDAT ??$_Addressof@UItemPriceInfo@@@std@@YAPAUItemPriceInfo@@AAU1@U?$integral_constant@_N$0A@@0@@Z
_TEXT	SEGMENT
__Val$ = 8						; size = 4
___formal$ = 12						; size = 1
??$_Addressof@UItemPriceInfo@@@std@@YAPAUItemPriceInfo@@AAU1@U?$integral_constant@_N$0A@@0@@Z PROC ; std::_Addressof<ItemPriceInfo>, COMDAT

; 688  : 	{	// return address of object _Val

  00000	55		 push	 ebp
  00001	8b ec		 mov	 ebp, esp

; 689  : 	return (reinterpret_cast<_Ty *>(

  00003	8b 45 08	 mov	 eax, DWORD PTR __Val$[ebp]

; 690  : 		&const_cast<char&>(
; 691  : 		reinterpret_cast<const volatile char&>(_Val))));
; 692  : 	}

  00006	5d		 pop	 ebp
  00007	c3		 ret	 0
??$_Addressof@UItemPriceInfo@@@std@@YAPAUItemPriceInfo@@AAU1@U?$integral_constant@_N$0A@@0@@Z ENDP ; std::_Addressof<ItemPriceInfo>
_TEXT	ENDS
; Function compile flags: /Ogtp
; File c:\program files (x86)\microsoft visual studio 14.0\vc\include\xutility
;	COMDAT ??$_Rechecked@PAUItemPriceInfo@@PAU1@@std@@YAAAPAUItemPriceInfo@@AAPAU1@PAU1@@Z
_TEXT	SEGMENT
__Dest$ = 8						; size = 4
__Src$ = 12						; size = 4
??$_Rechecked@PAUItemPriceInfo@@PAU1@@std@@YAAAPAUItemPriceInfo@@AAPAU1@PAU1@@Z PROC ; std::_Rechecked<ItemPriceInfo *,ItemPriceInfo *>, COMDAT

; 446  : 	{	// reset checked from unchecked, generic

  00000	55		 push	 ebp
  00001	8b ec		 mov	 ebp, esp

; 447  : 	_Dest = _Src;

  00003	8b 45 08	 mov	 eax, DWORD PTR __Dest$[ebp]
  00006	8b 4d 0c	 mov	 ecx, DWORD PTR __Src$[ebp]
  00009	89 08		 mov	 DWORD PTR [eax], ecx

; 448  : 	return (_Dest);
; 449  : 	}

  0000b	5d		 pop	 ebp
  0000c	c3		 ret	 0
??$_Rechecked@PAUItemPriceInfo@@PAU1@@std@@YAAAPAUItemPriceInfo@@AAPAU1@PAU1@@Z ENDP ; std::_Rechecked<ItemPriceInfo *,ItemPriceInfo *>
_TEXT	ENDS
; Function compile flags: /Ogtp
; File c:\program files (x86)\microsoft visual studio 14.0\vc\include\xmemory
;	COMDAT ??$_Uninit_move@PAUItemPriceInfo@@PAU1@U?$_Wrap_alloc@V?$allocator@UItemPriceInfo@@@std@@@std@@@std@@YAPAUItemPriceInfo@@PAU1@00AAU?$_Wrap_alloc@V?$allocator@UItemPriceInfo@@@std@@@0@@Z
_TEXT	SEGMENT
__Cat$1 = -4						; size = 1
__First$ = 8						; size = 4
__Last$ = 12						; size = 4
__Dest$ = 16						; size = 4
__Al$ = 20						; size = 4
??$_Uninit_move@PAUItemPriceInfo@@PAU1@U?$_Wrap_alloc@V?$allocator@UItemPriceInfo@@@std@@@std@@@std@@YAPAUItemPriceInfo@@PAU1@00AAU?$_Wrap_alloc@V?$allocator@UItemPriceInfo@@@std@@@0@@Z PROC ; std::_Uninit_move<ItemPriceInfo *,ItemPriceInfo *,std::_Wrap_alloc<std::allocator<ItemPriceInfo> > >, COMDAT

; 480  : 	{	// move [_First, _Last) to raw _Dest, using _Al

  00000	55		 push	 ebp
  00001	8b ec		 mov	 ebp, esp
  00003	51		 push	 ecx

; 481  : 	return (_Uninit_move(_First, _Last, _Dest, _Al,

  00004	ff 75 fc	 push	 DWORD PTR __Cat$1[ebp]
  00007	6a 00		 push	 0
  00009	ff 75 14	 push	 DWORD PTR __Al$[ebp]
  0000c	ff 75 10	 push	 DWORD PTR __Dest$[ebp]
  0000f	ff 75 0c	 push	 DWORD PTR __Last$[ebp]
  00012	ff 75 08	 push	 DWORD PTR __First$[ebp]
  00015	e8 00 00 00 00	 call	 ??$_Uninit_move@PAUItemPriceInfo@@PAU1@V?$allocator@UItemPriceInfo@@@std@@U1@@std@@YAPAUItemPriceInfo@@PAU1@00AAU?$_Wrap_alloc@V?$allocator@UItemPriceInfo@@@std@@@0@0U_Nonscalar_ptr_iterator_tag@0@@Z ; std::_Uninit_move<ItemPriceInfo *,ItemPriceInfo *,std::allocator<ItemPriceInfo>,ItemPriceInfo>
  0001a	83 c4 18	 add	 esp, 24			; 00000018H

; 482  : 		_Val_type(_First), _Ptr_cat(_First, _Dest)));
; 483  : 	}

  0001d	8b e5		 mov	 esp, ebp
  0001f	5d		 pop	 ebp
  00020	c3		 ret	 0
??$_Uninit_move@PAUItemPriceInfo@@PAU1@U?$_Wrap_alloc@V?$allocator@UItemPriceInfo@@@std@@@std@@@std@@YAPAUItemPriceInfo@@PAU1@00AAU?$_Wrap_alloc@V?$allocator@UItemPriceInfo@@@std@@@0@@Z ENDP ; std::_Uninit_move<ItemPriceInfo *,ItemPriceInfo *,std::_Wrap_alloc<std::allocator<ItemPriceInfo> > >
_TEXT	ENDS
; Function compile flags: /Ogtp
; File c:\program files (x86)\microsoft visual studio 14.0\vc\include\xutility
;	COMDAT ??$_Unchecked@PAUItemPriceInfo@@@std@@YAPAUItemPriceInfo@@PAU1@@Z
_TEXT	SEGMENT
__Src$ = 8						; size = 4
??$_Unchecked@PAUItemPriceInfo@@@std@@YAPAUItemPriceInfo@@PAU1@@Z PROC ; std::_Unchecked<ItemPriceInfo *>, COMDAT

; 438  : 	{	// construct unchecked from checked, generic

  00000	55		 push	 ebp
  00001	8b ec		 mov	 ebp, esp

; 439  : 	return (_Src);

  00003	8b 45 08	 mov	 eax, DWORD PTR __Src$[ebp]

; 440  : 	}

  00006	5d		 pop	 ebp
  00007	c3		 ret	 0
??$_Unchecked@PAUItemPriceInfo@@@std@@YAPAUItemPriceInfo@@PAU1@@Z ENDP ; std::_Unchecked<ItemPriceInfo *>
_TEXT	ENDS
; Function compile flags: /Ogtp
; File c:\program files (x86)\microsoft visual studio 14.0\vc\include\xmemory0
;	COMDAT ??$destroy@UItemPriceInfo@@@?$_Wrap_alloc@V?$allocator@UItemPriceInfo@@@std@@@std@@QAEXPAUItemPriceInfo@@@Z
_TEXT	SEGMENT
__Ptr$ = 8						; size = 4
??$destroy@UItemPriceInfo@@@?$_Wrap_alloc@V?$allocator@UItemPriceInfo@@@std@@@std@@QAEXPAUItemPriceInfo@@@Z PROC ; std::_Wrap_alloc<std::allocator<ItemPriceInfo> >::destroy<ItemPriceInfo>, COMDAT
; _this$ = ecx

; 925  : 		_Mytraits::destroy(*this, _Ptr);
; 926  : 		}

  00000	c2 04 00	 ret	 4
??$destroy@UItemPriceInfo@@@?$_Wrap_alloc@V?$allocator@UItemPriceInfo@@@std@@@std@@QAEXPAUItemPriceInfo@@@Z ENDP ; std::_Wrap_alloc<std::allocator<ItemPriceInfo> >::destroy<ItemPriceInfo>
_TEXT	ENDS
; Function compile flags: /Ogtp
; File c:\program files (x86)\microsoft visual studio 14.0\vc\include\xstddef
;	COMDAT ??$addressof@UItemPriceInfo@@@std@@YAPAUItemPriceInfo@@AAU1@@Z
_TEXT	SEGMENT
__Val$ = 8						; size = 4
??$addressof@UItemPriceInfo@@@std@@YAPAUItemPriceInfo@@AAU1@@Z PROC ; std::addressof<ItemPriceInfo>, COMDAT

; 696  : 	{	// return address of _Val

  00000	55		 push	 ebp
  00001	8b ec		 mov	 ebp, esp

; 697  : 	return (_Addressof(_Val, is_function<_Ty>()));

  00003	8b 45 08	 mov	 eax, DWORD PTR __Val$[ebp]

; 698  : 	}

  00006	5d		 pop	 ebp
  00007	c3		 ret	 0
??$addressof@UItemPriceInfo@@@std@@YAPAUItemPriceInfo@@AAU1@@Z ENDP ; std::addressof<ItemPriceInfo>
_TEXT	ENDS
; Function compile flags: /Ogtp
; File c:\program files (x86)\microsoft visual studio 14.0\vc\include\xmemory0
;	COMDAT ??$construct@UItemPriceInfo@@ABU1@@?$allocator@UItemPriceInfo@@@std@@QAEXPAUItemPriceInfo@@ABU2@@Z
_TEXT	SEGMENT
__Ptr$ = 8						; size = 4
_<_Args_0>$ = 12					; size = 4
??$construct@UItemPriceInfo@@ABU1@@?$allocator@UItemPriceInfo@@@std@@QAEXPAUItemPriceInfo@@ABU2@@Z PROC ; std::allocator<ItemPriceInfo>::construct<ItemPriceInfo,ItemPriceInfo const &>, COMDAT
; _this$ = ecx

; 654  : 		{	// construct _Objty(_Types...) at _Ptr

  00000	55		 push	 ebp
  00001	8b ec		 mov	 ebp, esp

; 655  : 		::new ((void *)_Ptr) _Objty(_STD forward<_Types>(_Args)...);

  00003	8b 4d 08	 mov	 ecx, DWORD PTR __Ptr$[ebp]
  00006	85 c9		 test	 ecx, ecx
  00008	74 11		 je	 SHORT $LN3@construct
  0000a	8b 45 0c	 mov	 eax, DWORD PTR _<_Args_0>$[ebp]
  0000d	f3 0f 7e 00	 movq	 xmm0, QWORD PTR [eax]
  00011	66 0f d6 01	 movq	 QWORD PTR [ecx], xmm0
  00015	8b 40 08	 mov	 eax, DWORD PTR [eax+8]
  00018	89 41 08	 mov	 DWORD PTR [ecx+8], eax
$LN3@construct:

; 656  : 		}

  0001b	5d		 pop	 ebp
  0001c	c2 08 00	 ret	 8
??$construct@UItemPriceInfo@@ABU1@@?$allocator@UItemPriceInfo@@@std@@QAEXPAUItemPriceInfo@@ABU2@@Z ENDP ; std::allocator<ItemPriceInfo>::construct<ItemPriceInfo,ItemPriceInfo const &>
_TEXT	ENDS
; Function compile flags: /Ogtp
; File c:\program files (x86)\microsoft visual studio 14.0\vc\include\xmemory0
;	COMDAT ??$construct@UItemPriceInfo@@AAU1@@?$allocator@UItemPriceInfo@@@std@@QAEXPAUItemPriceInfo@@AAU2@@Z
_TEXT	SEGMENT
__Ptr$ = 8						; size = 4
_<_Args_0>$ = 12					; size = 4
??$construct@UItemPriceInfo@@AAU1@@?$allocator@UItemPriceInfo@@@std@@QAEXPAUItemPriceInfo@@AAU2@@Z PROC ; std::allocator<ItemPriceInfo>::construct<ItemPriceInfo,ItemPriceInfo &>, COMDAT
; _this$ = ecx

; 654  : 		{	// construct _Objty(_Types...) at _Ptr

  00000	55		 push	 ebp
  00001	8b ec		 mov	 ebp, esp

; 655  : 		::new ((void *)_Ptr) _Objty(_STD forward<_Types>(_Args)...);

  00003	8b 4d 08	 mov	 ecx, DWORD PTR __Ptr$[ebp]
  00006	85 c9		 test	 ecx, ecx
  00008	74 11		 je	 SHORT $LN3@construct
  0000a	8b 45 0c	 mov	 eax, DWORD PTR _<_Args_0>$[ebp]
  0000d	f3 0f 7e 00	 movq	 xmm0, QWORD PTR [eax]
  00011	66 0f d6 01	 movq	 QWORD PTR [ecx], xmm0
  00015	8b 40 08	 mov	 eax, DWORD PTR [eax+8]
  00018	89 41 08	 mov	 DWORD PTR [ecx+8], eax
$LN3@construct:

; 656  : 		}

  0001b	5d		 pop	 ebp
  0001c	c2 08 00	 ret	 8
??$construct@UItemPriceInfo@@AAU1@@?$allocator@UItemPriceInfo@@@std@@QAEXPAUItemPriceInfo@@AAU2@@Z ENDP ; std::allocator<ItemPriceInfo>::construct<ItemPriceInfo,ItemPriceInfo &>
_TEXT	ENDS
; Function compile flags: /Ogtp
; File c:\program files (x86)\microsoft visual studio 14.0\vc\include\type_traits
;	COMDAT ??$_Move@AAPAUItemPriceInfo@@@std@@YA$$QAPAUItemPriceInfo@@AAPAU1@@Z
_TEXT	SEGMENT
__Arg$ = 8						; size = 4
??$_Move@AAPAUItemPriceInfo@@@std@@YA$$QAPAUItemPriceInfo@@AAPAU1@@Z PROC ; std::_Move<ItemPriceInfo * &>, COMDAT

; 1257 : 	{	// forward _Arg as movable

  00000	55		 push	 ebp
  00001	8b ec		 mov	 ebp, esp

; 1258 : 	return (static_cast<typename remove_reference<_Ty>::type&&>(_Arg));

  00003	8b 45 08	 mov	 eax, DWORD PTR __Arg$[ebp]

; 1259 : 	}

  00006	5d		 pop	 ebp
  00007	c3		 ret	 0
??$_Move@AAPAUItemPriceInfo@@@std@@YA$$QAPAUItemPriceInfo@@AAPAU1@@Z ENDP ; std::_Move<ItemPriceInfo * &>
_TEXT	ENDS
; Function compile flags: /Ogtp
; File c:\program files (x86)\microsoft visual studio 14.0\vc\include\xmemory
;	COMDAT ??$_Uninitialized_move@PAUItemPriceInfo@@PAU1@U?$_Wrap_alloc@V?$allocator@UItemPriceInfo@@@std@@@std@@@std@@YAPAUItemPriceInfo@@PAU1@00AAU?$_Wrap_alloc@V?$allocator@UItemPriceInfo@@@std@@@0@@Z
_TEXT	SEGMENT
__First$ = 8						; size = 4
__Last$ = 12						; size = 4
__Cat$1 = 16						; size = 1
__Dest$ = 16						; size = 4
__Al$ = 20						; size = 4
??$_Uninitialized_move@PAUItemPriceInfo@@PAU1@U?$_Wrap_alloc@V?$allocator@UItemPriceInfo@@@std@@@std@@@std@@YAPAUItemPriceInfo@@PAU1@00AAU?$_Wrap_alloc@V?$allocator@UItemPriceInfo@@@std@@@0@@Z PROC ; std::_Uninitialized_move<ItemPriceInfo *,ItemPriceInfo *,std::_Wrap_alloc<std::allocator<ItemPriceInfo> > >, COMDAT

; 490  : 	{	// move [_First, _Last) to raw _Dest, using _Al

  00000	55		 push	 ebp
  00001	8b ec		 mov	 ebp, esp

; 481  : 	return (_Uninit_move(_First, _Last, _Dest, _Al,

  00003	ff 75 10	 push	 DWORD PTR __Cat$1[ebp]
  00006	6a 00		 push	 0
  00008	ff 75 14	 push	 DWORD PTR __Al$[ebp]
  0000b	ff 75 10	 push	 DWORD PTR __Dest$[ebp]
  0000e	ff 75 0c	 push	 DWORD PTR __Last$[ebp]
  00011	ff 75 08	 push	 DWORD PTR __First$[ebp]
  00014	e8 00 00 00 00	 call	 ??$_Uninit_move@PAUItemPriceInfo@@PAU1@V?$allocator@UItemPriceInfo@@@std@@U1@@std@@YAPAUItemPriceInfo@@PAU1@00AAU?$_Wrap_alloc@V?$allocator@UItemPriceInfo@@@std@@@0@0U_Nonscalar_ptr_iterator_tag@0@@Z ; std::_Uninit_move<ItemPriceInfo *,ItemPriceInfo *,std::allocator<ItemPriceInfo>,ItemPriceInfo>
  00019	83 c4 18	 add	 esp, 24			; 00000018H

; 491  : 	return (_Rechecked(_Dest,
; 492  : 		_Uninit_move(_Unchecked(_First), _Unchecked(_Last),
; 493  : 			_Unchecked(_Dest), _Al)));
; 494  : 	}

  0001c	5d		 pop	 ebp
  0001d	c3		 ret	 0
??$_Uninitialized_move@PAUItemPriceInfo@@PAU1@U?$_Wrap_alloc@V?$allocator@UItemPriceInfo@@@std@@@std@@@std@@YAPAUItemPriceInfo@@PAU1@00AAU?$_Wrap_alloc@V?$allocator@UItemPriceInfo@@@std@@@0@@Z ENDP ; std::_Uninitialized_move<ItemPriceInfo *,ItemPriceInfo *,std::_Wrap_alloc<std::allocator<ItemPriceInfo> > >
_TEXT	ENDS
; Function compile flags: /Ogtp
; File c:\program files (x86)\microsoft visual studio 14.0\vc\include\xmemory0
;	COMDAT ??$_Destroy_range@U?$_Wrap_alloc@V?$allocator@UItemPriceInfo@@@std@@@std@@@std@@YAXPAUItemPriceInfo@@0AAU?$_Wrap_alloc@V?$allocator@UItemPriceInfo@@@std@@@0@U_Nonscalar_ptr_iterator_tag@0@@Z
_TEXT	SEGMENT
__First$ = 8						; size = 4
__Last$ = 12						; size = 4
__Al$ = 16						; size = 4
___formal$ = 20						; size = 1
??$_Destroy_range@U?$_Wrap_alloc@V?$allocator@UItemPriceInfo@@@std@@@std@@@std@@YAXPAUItemPriceInfo@@0AAU?$_Wrap_alloc@V?$allocator@UItemPriceInfo@@@std@@@0@U_Nonscalar_ptr_iterator_tag@0@@Z PROC ; std::_Destroy_range<std::_Wrap_alloc<std::allocator<ItemPriceInfo> > >, COMDAT

; 171  : 	for (; _First != _Last; ++_First)
; 172  : 		_Al.destroy(_STD addressof(*_First));
; 173  : 	}

  00000	c3		 ret	 0
??$_Destroy_range@U?$_Wrap_alloc@V?$allocator@UItemPriceInfo@@@std@@@std@@@std@@YAXPAUItemPriceInfo@@0AAU?$_Wrap_alloc@V?$allocator@UItemPriceInfo@@@std@@@0@U_Nonscalar_ptr_iterator_tag@0@@Z ENDP ; std::_Destroy_range<std::_Wrap_alloc<std::allocator<ItemPriceInfo> > >
_TEXT	ENDS
; Function compile flags: /Ogtp
; File c:\program files (x86)\microsoft visual studio 14.0\vc\include\xutility
;	COMDAT ??$_Ptr_cat@UItemPriceInfo@@U1@@std@@YA?AU_Nonscalar_ptr_iterator_tag@0@PAUItemPriceInfo@@0@Z
_TEXT	SEGMENT
__Cat$ = -1						; size = 1
___formal$ = 8						; size = 4
___formal$ = 12						; size = 4
??$_Ptr_cat@UItemPriceInfo@@U1@@std@@YA?AU_Nonscalar_ptr_iterator_tag@0@PAUItemPriceInfo@@0@Z PROC ; std::_Ptr_cat<ItemPriceInfo,ItemPriceInfo>, COMDAT

; 640  : 	{	// return pointer category from pointers

  00000	55		 push	 ebp
  00001	8b ec		 mov	 ebp, esp
  00003	51		 push	 ecx

; 641  : 	typename _Ptr_cat_helper<_Elem1, _Elem2>::type _Cat;
; 642  : 	return (_Cat);

  00004	8a 45 ff	 mov	 al, BYTE PTR __Cat$[ebp]

; 643  : 	}

  00007	8b e5		 mov	 esp, ebp
  00009	5d		 pop	 ebp
  0000a	c3		 ret	 0
??$_Ptr_cat@UItemPriceInfo@@U1@@std@@YA?AU_Nonscalar_ptr_iterator_tag@0@PAUItemPriceInfo@@0@Z ENDP ; std::_Ptr_cat<ItemPriceInfo,ItemPriceInfo>
_TEXT	ENDS
; Function compile flags: /Ogtp
; File c:\program files (x86)\microsoft visual studio 14.0\vc\include\type_traits
;	COMDAT ??$forward@ABV?$allocator@UItemPriceInfo@@@std@@@std@@YAABV?$allocator@UItemPriceInfo@@@0@ABV10@@Z
_TEXT	SEGMENT
__Arg$ = 8						; size = 4
??$forward@ABV?$allocator@UItemPriceInfo@@@std@@@std@@YAABV?$allocator@UItemPriceInfo@@@0@ABV10@@Z PROC ; std::forward<std::allocator<ItemPriceInfo> const &>, COMDAT

; 1233 : 	{	// forward an lvalue as either an lvalue or an rvalue

  00000	55		 push	 ebp
  00001	8b ec		 mov	 ebp, esp

; 1234 : 	return (static_cast<_Ty&&>(_Arg));

  00003	8b 45 08	 mov	 eax, DWORD PTR __Arg$[ebp]

; 1235 : 	}

  00006	5d		 pop	 ebp
  00007	c3		 ret	 0
??$forward@ABV?$allocator@UItemPriceInfo@@@std@@@std@@YAABV?$allocator@UItemPriceInfo@@@0@ABV10@@Z ENDP ; std::forward<std::allocator<ItemPriceInfo> const &>
_TEXT	ENDS
; Function compile flags: /Ogtp
; File c:\program files (x86)\microsoft visual studio 14.0\vc\include\xmemory0
;	COMDAT ??$_Pocs@U?$_Wrap_alloc@V?$allocator@UItemPriceInfo@@@std@@@std@@@std@@YAXAAU?$_Wrap_alloc@V?$allocator@UItemPriceInfo@@@std@@@0@0U?$integral_constant@_N$0A@@0@@Z
_TEXT	SEGMENT
___formal$ = 8						; size = 4
___formal$ = 12						; size = 4
___formal$ = 16						; size = 1
??$_Pocs@U?$_Wrap_alloc@V?$allocator@UItemPriceInfo@@@std@@@std@@@std@@YAXAAU?$_Wrap_alloc@V?$allocator@UItemPriceInfo@@@std@@@0@0U?$integral_constant@_N$0A@@0@@Z PROC ; std::_Pocs<std::_Wrap_alloc<std::allocator<ItemPriceInfo> > >, COMDAT

; 999  : 	}

  00000	c3		 ret	 0
??$_Pocs@U?$_Wrap_alloc@V?$allocator@UItemPriceInfo@@@std@@@std@@@std@@YAXAAU?$_Wrap_alloc@V?$allocator@UItemPriceInfo@@@std@@@0@0U?$integral_constant@_N$0A@@0@@Z ENDP ; std::_Pocs<std::_Wrap_alloc<std::allocator<ItemPriceInfo> > >
_TEXT	ENDS
; Function compile flags: /Ogtp
; File c:\program files (x86)\microsoft visual studio 14.0\vc\include\xmemory0
;	COMDAT ??$construct@UItemPriceInfo@@ABU1@@?$allocator_traits@V?$allocator@UItemPriceInfo@@@std@@@std@@SAXAAV?$allocator@UItemPriceInfo@@@1@PAUItemPriceInfo@@ABU3@@Z
_TEXT	SEGMENT
__Al$ = 8						; size = 4
__Ptr$ = 12						; size = 4
_<_Args_0>$ = 16					; size = 4
??$construct@UItemPriceInfo@@ABU1@@?$allocator_traits@V?$allocator@UItemPriceInfo@@@std@@@std@@SAXAAV?$allocator@UItemPriceInfo@@@1@PAUItemPriceInfo@@ABU3@@Z PROC ; std::allocator_traits<std::allocator<ItemPriceInfo> >::construct<ItemPriceInfo,ItemPriceInfo const &>, COMDAT

; 772  : 		{	// construct _Objty(_Types...) at _Ptr

  00000	55		 push	 ebp
  00001	8b ec		 mov	 ebp, esp

; 655  : 		::new ((void *)_Ptr) _Objty(_STD forward<_Types>(_Args)...);

  00003	8b 4d 0c	 mov	 ecx, DWORD PTR __Ptr$[ebp]
  00006	85 c9		 test	 ecx, ecx
  00008	74 11		 je	 SHORT $LN8@construct
  0000a	8b 45 10	 mov	 eax, DWORD PTR _<_Args_0>$[ebp]
  0000d	f3 0f 7e 00	 movq	 xmm0, QWORD PTR [eax]
  00011	66 0f d6 01	 movq	 QWORD PTR [ecx], xmm0
  00015	8b 40 08	 mov	 eax, DWORD PTR [eax+8]
  00018	89 41 08	 mov	 DWORD PTR [ecx+8], eax
$LN8@construct:

; 773  : 		_Al.construct(_Ptr, _STD forward<_Types>(_Args)...);
; 774  : 		}

  0001b	5d		 pop	 ebp
  0001c	c3		 ret	 0
??$construct@UItemPriceInfo@@ABU1@@?$allocator_traits@V?$allocator@UItemPriceInfo@@@std@@@std@@SAXAAV?$allocator@UItemPriceInfo@@@1@PAUItemPriceInfo@@ABU3@@Z ENDP ; std::allocator_traits<std::allocator<ItemPriceInfo> >::construct<ItemPriceInfo,ItemPriceInfo const &>
_TEXT	ENDS
; Function compile flags: /Ogtp
; File c:\program files (x86)\microsoft visual studio 14.0\vc\include\type_traits
;	COMDAT ??$forward@ABUItemPriceInfo@@@std@@YAABUItemPriceInfo@@ABU1@@Z
_TEXT	SEGMENT
__Arg$ = 8						; size = 4
??$forward@ABUItemPriceInfo@@@std@@YAABUItemPriceInfo@@ABU1@@Z PROC ; std::forward<ItemPriceInfo const &>, COMDAT

; 1233 : 	{	// forward an lvalue as either an lvalue or an rvalue

  00000	55		 push	 ebp
  00001	8b ec		 mov	 ebp, esp

; 1234 : 	return (static_cast<_Ty&&>(_Arg));

  00003	8b 45 08	 mov	 eax, DWORD PTR __Arg$[ebp]

; 1235 : 	}

  00006	5d		 pop	 ebp
  00007	c3		 ret	 0
??$forward@ABUItemPriceInfo@@@std@@YAABUItemPriceInfo@@ABU1@@Z ENDP ; std::forward<ItemPriceInfo const &>
_TEXT	ENDS
; Function compile flags: /Ogtp
; File c:\program files (x86)\microsoft visual studio 14.0\vc\include\xmemory0
;	COMDAT ??$construct@UItemPriceInfo@@AAU1@@?$allocator_traits@V?$allocator@UItemPriceInfo@@@std@@@std@@SAXAAV?$allocator@UItemPriceInfo@@@1@PAUItemPriceInfo@@AAU3@@Z
_TEXT	SEGMENT
__Al$ = 8						; size = 4
__Ptr$ = 12						; size = 4
_<_Args_0>$ = 16					; size = 4
??$construct@UItemPriceInfo@@AAU1@@?$allocator_traits@V?$allocator@UItemPriceInfo@@@std@@@std@@SAXAAV?$allocator@UItemPriceInfo@@@1@PAUItemPriceInfo@@AAU3@@Z PROC ; std::allocator_traits<std::allocator<ItemPriceInfo> >::construct<ItemPriceInfo,ItemPriceInfo &>, COMDAT

; 772  : 		{	// construct _Objty(_Types...) at _Ptr

  00000	55		 push	 ebp
  00001	8b ec		 mov	 ebp, esp

; 655  : 		::new ((void *)_Ptr) _Objty(_STD forward<_Types>(_Args)...);

  00003	8b 4d 0c	 mov	 ecx, DWORD PTR __Ptr$[ebp]
  00006	85 c9		 test	 ecx, ecx
  00008	74 11		 je	 SHORT $LN8@construct
  0000a	8b 45 10	 mov	 eax, DWORD PTR _<_Args_0>$[ebp]
  0000d	f3 0f 7e 00	 movq	 xmm0, QWORD PTR [eax]
  00011	66 0f d6 01	 movq	 QWORD PTR [ecx], xmm0
  00015	8b 40 08	 mov	 eax, DWORD PTR [eax+8]
  00018	89 41 08	 mov	 DWORD PTR [ecx+8], eax
$LN8@construct:

; 773  : 		_Al.construct(_Ptr, _STD forward<_Types>(_Args)...);
; 774  : 		}

  0001b	5d		 pop	 ebp
  0001c	c3		 ret	 0
??$construct@UItemPriceInfo@@AAU1@@?$allocator_traits@V?$allocator@UItemPriceInfo@@@std@@@std@@SAXAAV?$allocator@UItemPriceInfo@@@1@PAUItemPriceInfo@@AAU3@@Z ENDP ; std::allocator_traits<std::allocator<ItemPriceInfo> >::construct<ItemPriceInfo,ItemPriceInfo &>
_TEXT	ENDS
; Function compile flags: /Ogtp
; File c:\program files (x86)\microsoft visual studio 14.0\vc\include\type_traits
;	COMDAT ??$forward@AAUItemPriceInfo@@@std@@YAAAUItemPriceInfo@@AAU1@@Z
_TEXT	SEGMENT
__Arg$ = 8						; size = 4
??$forward@AAUItemPriceInfo@@@std@@YAAAUItemPriceInfo@@AAU1@@Z PROC ; std::forward<ItemPriceInfo &>, COMDAT

; 1233 : 	{	// forward an lvalue as either an lvalue or an rvalue

  00000	55		 push	 ebp
  00001	8b ec		 mov	 ebp, esp

; 1234 : 	return (static_cast<_Ty&&>(_Arg));

  00003	8b 45 08	 mov	 eax, DWORD PTR __Arg$[ebp]

; 1235 : 	}

  00006	5d		 pop	 ebp
  00007	c3		 ret	 0
??$forward@AAUItemPriceInfo@@@std@@YAAAUItemPriceInfo@@AAU1@@Z ENDP ; std::forward<ItemPriceInfo &>
_TEXT	ENDS
; Function compile flags: /Ogtp
; File c:\program files (x86)\microsoft visual studio 14.0\vc\include\xstddef
;	COMDAT ??$_Addressof@$$CBUItemPriceInfo@@@std@@YAPBUItemPriceInfo@@ABU1@U?$integral_constant@_N$0A@@0@@Z
_TEXT	SEGMENT
__Val$ = 8						; size = 4
___formal$ = 12						; size = 1
??$_Addressof@$$CBUItemPriceInfo@@@std@@YAPBUItemPriceInfo@@ABU1@U?$integral_constant@_N$0A@@0@@Z PROC ; std::_Addressof<ItemPriceInfo const >, COMDAT

; 688  : 	{	// return address of object _Val

  00000	55		 push	 ebp
  00001	8b ec		 mov	 ebp, esp

; 689  : 	return (reinterpret_cast<_Ty *>(

  00003	8b 45 08	 mov	 eax, DWORD PTR __Val$[ebp]

; 690  : 		&const_cast<char&>(
; 691  : 		reinterpret_cast<const volatile char&>(_Val))));
; 692  : 	}

  00006	5d		 pop	 ebp
  00007	c3		 ret	 0
??$_Addressof@$$CBUItemPriceInfo@@@std@@YAPBUItemPriceInfo@@ABU1@U?$integral_constant@_N$0A@@0@@Z ENDP ; std::_Addressof<ItemPriceInfo const >
_TEXT	ENDS
; Function compile flags: /Ogtp
; File c:\program files (x86)\microsoft visual studio 14.0\vc\include\vector
; File c:\program files (x86)\microsoft visual studio 14.0\vc\include\xmemory
; File c:\program files (x86)\microsoft visual studio 14.0\vc\include\vector
;	COMDAT ??$_Umove@PAUItemPriceInfo@@@?$vector@UItemPriceInfo@@V?$allocator@UItemPriceInfo@@@std@@@std@@IAEPAUItemPriceInfo@@PAU2@00@Z
_TEXT	SEGMENT
__First$ = 8						; size = 4
__Last$ = 12						; size = 4
__Cat$1 = 16						; size = 1
__Ptr$ = 16						; size = 4
??$_Umove@PAUItemPriceInfo@@@?$vector@UItemPriceInfo@@V?$allocator@UItemPriceInfo@@@std@@@std@@IAEPAUItemPriceInfo@@PAU2@00@Z PROC ; std::vector<ItemPriceInfo,std::allocator<ItemPriceInfo> >::_Umove<ItemPriceInfo *>, COMDAT
; _this$ = ecx

; 1677 : 		{	// move initializing [_First, _Last), using allocator

  00000	55		 push	 ebp
  00001	8b ec		 mov	 ebp, esp
; File c:\program files (x86)\microsoft visual studio 14.0\vc\include\xmemory

; 481  : 	return (_Uninit_move(_First, _Last, _Dest, _Al,

  00003	ff 75 10	 push	 DWORD PTR __Cat$1[ebp]
  00006	6a 00		 push	 0
  00008	51		 push	 ecx
  00009	ff 75 10	 push	 DWORD PTR __Ptr$[ebp]
  0000c	ff 75 0c	 push	 DWORD PTR __Last$[ebp]
  0000f	ff 75 08	 push	 DWORD PTR __First$[ebp]
  00012	e8 00 00 00 00	 call	 ??$_Uninit_move@PAUItemPriceInfo@@PAU1@V?$allocator@UItemPriceInfo@@@std@@U1@@std@@YAPAUItemPriceInfo@@PAU1@00AAU?$_Wrap_alloc@V?$allocator@UItemPriceInfo@@@std@@@0@0U_Nonscalar_ptr_iterator_tag@0@@Z ; std::_Uninit_move<ItemPriceInfo *,ItemPriceInfo *,std::allocator<ItemPriceInfo>,ItemPriceInfo>
  00017	83 c4 18	 add	 esp, 24			; 00000018H
; File c:\program files (x86)\microsoft visual studio 14.0\vc\include\vector

; 1680 : 		}

  0001a	5d		 pop	 ebp
  0001b	c2 0c 00	 ret	 12			; 0000000cH
??$_Umove@PAUItemPriceInfo@@@?$vector@UItemPriceInfo@@V?$allocator@UItemPriceInfo@@@std@@@std@@IAEPAUItemPriceInfo@@PAU2@00@Z ENDP ; std::vector<ItemPriceInfo,std::allocator<ItemPriceInfo> >::_Umove<ItemPriceInfo *>
_TEXT	ENDS
; Function compile flags: /Ogtp
; File c:\program files (x86)\microsoft visual studio 14.0\vc\include\xmemory0
;	COMDAT ??$_Destroy_range@U?$_Wrap_alloc@V?$allocator@UItemPriceInfo@@@std@@@std@@@std@@YAXPAUItemPriceInfo@@0AAU?$_Wrap_alloc@V?$allocator@UItemPriceInfo@@@std@@@0@@Z
_TEXT	SEGMENT
__First$ = 8						; size = 4
__Last$ = 12						; size = 4
__Al$ = 16						; size = 4
??$_Destroy_range@U?$_Wrap_alloc@V?$allocator@UItemPriceInfo@@@std@@@std@@@std@@YAXPAUItemPriceInfo@@0AAU?$_Wrap_alloc@V?$allocator@UItemPriceInfo@@@std@@@0@@Z PROC ; std::_Destroy_range<std::_Wrap_alloc<std::allocator<ItemPriceInfo> > >, COMDAT

; 186  : 	_Destroy_range(_First, _Last, _Al, _Ptr_cat(_First, _Last));
; 187  : 	}

  00000	c3		 ret	 0
??$_Destroy_range@U?$_Wrap_alloc@V?$allocator@UItemPriceInfo@@@std@@@std@@@std@@YAXPAUItemPriceInfo@@0AAU?$_Wrap_alloc@V?$allocator@UItemPriceInfo@@@std@@@0@@Z ENDP ; std::_Destroy_range<std::_Wrap_alloc<std::allocator<ItemPriceInfo> > >
_TEXT	ENDS
; Function compile flags: /Ogtp
; File c:\program files (x86)\microsoft visual studio 14.0\vc\include\xutility
; File c:\program files (x86)\microsoft visual studio 14.0\vc\include\vector
; File c:\program files (x86)\microsoft visual studio 14.0\vc\include\xutility
; File c:\program files (x86)\microsoft visual studio 14.0\vc\include\vector
; File c:\program files (x86)\microsoft visual studio 14.0\vc\include\xutility
;	COMDAT ??$?0ABV?$allocator@UItemPriceInfo@@@std@@$$V@?$_Compressed_pair@U?$_Wrap_alloc@V?$allocator@UItemPriceInfo@@@std@@@std@@V?$_Vector_val@U?$_Simple_types@UItemPriceInfo@@@std@@@2@$00@std@@QAE@U_One_then_variadic_args_t@1@ABV?$allocator@UItemPriceInfo@@@1@@Z
_TEXT	SEGMENT
___formal$ = 8						; size = 1
__Val1$ = 12						; size = 4
??$?0ABV?$allocator@UItemPriceInfo@@@std@@$$V@?$_Compressed_pair@U?$_Wrap_alloc@V?$allocator@UItemPriceInfo@@@std@@@std@@V?$_Vector_val@U?$_Simple_types@UItemPriceInfo@@@std@@@2@$00@std@@QAE@U_One_then_variadic_args_t@1@ABV?$allocator@UItemPriceInfo@@@1@@Z PROC ; std::_Compressed_pair<std::_Wrap_alloc<std::allocator<ItemPriceInfo> >,std::_Vector_val<std::_Simple_types<ItemPriceInfo> >,1>::_Compressed_pair<std::_Wrap_alloc<std::allocator<ItemPriceInfo> >,std::_Vector_val<std::_Simple_types<ItemPriceInfo> >,1><std::allocator<ItemPriceInfo> const &>, COMDAT
; _this$ = ecx
; File c:\program files (x86)\microsoft visual studio 14.0\vc\include\vector

; 480  : 		_Myfirst = pointer();

  00000	c7 01 00 00 00
	00		 mov	 DWORD PTR [ecx], 0
; File c:\program files (x86)\microsoft visual studio 14.0\vc\include\xutility

; 289  : 		}

  00006	8b c1		 mov	 eax, ecx
; File c:\program files (x86)\microsoft visual studio 14.0\vc\include\vector

; 481  : 		_Mylast = pointer();

  00008	c7 41 04 00 00
	00 00		 mov	 DWORD PTR [ecx+4], 0

; 482  : 		_Myend = pointer();

  0000f	c7 41 08 00 00
	00 00		 mov	 DWORD PTR [ecx+8], 0
; File c:\program files (x86)\microsoft visual studio 14.0\vc\include\xutility

; 289  : 		}

  00016	c2 08 00	 ret	 8
??$?0ABV?$allocator@UItemPriceInfo@@@std@@$$V@?$_Compressed_pair@U?$_Wrap_alloc@V?$allocator@UItemPriceInfo@@@std@@@std@@V?$_Vector_val@U?$_Simple_types@UItemPriceInfo@@@std@@@2@$00@std@@QAE@U_One_then_variadic_args_t@1@ABV?$allocator@UItemPriceInfo@@@1@@Z ENDP ; std::_Compressed_pair<std::_Wrap_alloc<std::allocator<ItemPriceInfo> >,std::_Vector_val<std::_Simple_types<ItemPriceInfo> >,1>::_Compressed_pair<std::_Wrap_alloc<std::allocator<ItemPriceInfo> >,std::_Vector_val<std::_Simple_types<ItemPriceInfo> >,1><std::allocator<ItemPriceInfo> const &>
_TEXT	ENDS
; Function compile flags: /Ogtp
; File c:\program files (x86)\microsoft visual studio 14.0\vc\include\xmemory0
;	COMDAT ??$_Pocs@U?$_Wrap_alloc@V?$allocator@UItemPriceInfo@@@std@@@std@@@std@@YAXAAU?$_Wrap_alloc@V?$allocator@UItemPriceInfo@@@std@@@0@0@Z
_TEXT	SEGMENT
__Left$ = 8						; size = 4
__Right$ = 12						; size = 4
??$_Pocs@U?$_Wrap_alloc@V?$allocator@UItemPriceInfo@@@std@@@std@@@std@@YAXAAU?$_Wrap_alloc@V?$allocator@UItemPriceInfo@@@std@@@0@0@Z PROC ; std::_Pocs<std::_Wrap_alloc<std::allocator<ItemPriceInfo> > >, COMDAT

; 1004 : 	typename _Alty::propagate_on_container_swap _Tag;
; 1005 : 	_Pocs(_Left, _Right, _Tag);
; 1006 : 	}

  00000	c3		 ret	 0
??$_Pocs@U?$_Wrap_alloc@V?$allocator@UItemPriceInfo@@@std@@@std@@@std@@YAXAAU?$_Wrap_alloc@V?$allocator@UItemPriceInfo@@@std@@@0@0@Z ENDP ; std::_Pocs<std::_Wrap_alloc<std::allocator<ItemPriceInfo> > >
_TEXT	ENDS
; Function compile flags: /Ogtp
; File c:\program files (x86)\microsoft visual studio 14.0\vc\include\xmemory0
;	COMDAT ??$construct@UItemPriceInfo@@ABU1@@?$_Wrap_alloc@V?$allocator@UItemPriceInfo@@@std@@@std@@QAEXPAUItemPriceInfo@@ABU2@@Z
_TEXT	SEGMENT
__Ptr$ = 8						; size = 4
_<_Args_0>$ = 12					; size = 4
??$construct@UItemPriceInfo@@ABU1@@?$_Wrap_alloc@V?$allocator@UItemPriceInfo@@@std@@@std@@QAEXPAUItemPriceInfo@@ABU2@@Z PROC ; std::_Wrap_alloc<std::allocator<ItemPriceInfo> >::construct<ItemPriceInfo,ItemPriceInfo const &>, COMDAT
; _this$ = ecx

; 916  : 		{	// construct _Ty(_Types...) at _Ptr

  00000	55		 push	 ebp
  00001	8b ec		 mov	 ebp, esp

; 655  : 		::new ((void *)_Ptr) _Objty(_STD forward<_Types>(_Args)...);

  00003	8b 4d 08	 mov	 ecx, DWORD PTR __Ptr$[ebp]
  00006	85 c9		 test	 ecx, ecx
  00008	74 11		 je	 SHORT $LN13@construct
  0000a	8b 45 0c	 mov	 eax, DWORD PTR _<_Args_0>$[ebp]
  0000d	f3 0f 7e 00	 movq	 xmm0, QWORD PTR [eax]
  00011	66 0f d6 01	 movq	 QWORD PTR [ecx], xmm0
  00015	8b 40 08	 mov	 eax, DWORD PTR [eax+8]
  00018	89 41 08	 mov	 DWORD PTR [ecx+8], eax
$LN13@construct:

; 917  : 		_Mytraits::construct(*this, _Ptr,
; 918  : 			_STD forward<_Types>(_Args)...);
; 919  : 		}

  0001b	5d		 pop	 ebp
  0001c	c2 08 00	 ret	 8
??$construct@UItemPriceInfo@@ABU1@@?$_Wrap_alloc@V?$allocator@UItemPriceInfo@@@std@@@std@@QAEXPAUItemPriceInfo@@ABU2@@Z ENDP ; std::_Wrap_alloc<std::allocator<ItemPriceInfo> >::construct<ItemPriceInfo,ItemPriceInfo const &>
_TEXT	ENDS
; Function compile flags: /Ogtp
; File c:\program files (x86)\microsoft visual studio 14.0\vc\include\xmemory0
;	COMDAT ??$construct@UItemPriceInfo@@AAU1@@?$_Wrap_alloc@V?$allocator@UItemPriceInfo@@@std@@@std@@QAEXPAUItemPriceInfo@@AAU2@@Z
_TEXT	SEGMENT
__Ptr$ = 8						; size = 4
_<_Args_0>$ = 12					; size = 4
??$construct@UItemPriceInfo@@AAU1@@?$_Wrap_alloc@V?$allocator@UItemPriceInfo@@@std@@@std@@QAEXPAUItemPriceInfo@@AAU2@@Z PROC ; std::_Wrap_alloc<std::allocator<ItemPriceInfo> >::construct<ItemPriceInfo,ItemPriceInfo &>, COMDAT
; _this$ = ecx

; 916  : 		{	// construct _Ty(_Types...) at _Ptr

  00000	55		 push	 ebp
  00001	8b ec		 mov	 ebp, esp

; 655  : 		::new ((void *)_Ptr) _Objty(_STD forward<_Types>(_Args)...);

  00003	8b 4d 08	 mov	 ecx, DWORD PTR __Ptr$[ebp]
  00006	85 c9		 test	 ecx, ecx
  00008	74 11		 je	 SHORT $LN13@construct
  0000a	8b 45 0c	 mov	 eax, DWORD PTR _<_Args_0>$[ebp]
  0000d	f3 0f 7e 00	 movq	 xmm0, QWORD PTR [eax]
  00011	66 0f d6 01	 movq	 QWORD PTR [ecx], xmm0
  00015	8b 40 08	 mov	 eax, DWORD PTR [eax+8]
  00018	89 41 08	 mov	 DWORD PTR [ecx+8], eax
$LN13@construct:

; 917  : 		_Mytraits::construct(*this, _Ptr,
; 918  : 			_STD forward<_Types>(_Args)...);
; 919  : 		}

  0001b	5d		 pop	 ebp
  0001c	c2 08 00	 ret	 8
??$construct@UItemPriceInfo@@AAU1@@?$_Wrap_alloc@V?$allocator@UItemPriceInfo@@@std@@@std@@QAEXPAUItemPriceInfo@@AAU2@@Z ENDP ; std::_Wrap_alloc<std::allocator<ItemPriceInfo> >::construct<ItemPriceInfo,ItemPriceInfo &>
_TEXT	ENDS
; Function compile flags: /Ogtp
; File c:\program files (x86)\microsoft visual studio 14.0\vc\include\xstddef
;	COMDAT ??$addressof@$$CBUItemPriceInfo@@@std@@YAPBUItemPriceInfo@@ABU1@@Z
_TEXT	SEGMENT
__Val$ = 8						; size = 4
??$addressof@$$CBUItemPriceInfo@@@std@@YAPBUItemPriceInfo@@ABU1@@Z PROC ; std::addressof<ItemPriceInfo const >, COMDAT

; 696  : 	{	// return address of _Val

  00000	55		 push	 ebp
  00001	8b ec		 mov	 ebp, esp

; 697  : 	return (_Addressof(_Val, is_function<_Ty>()));

  00003	8b 45 08	 mov	 eax, DWORD PTR __Val$[ebp]

; 698  : 	}

  00006	5d		 pop	 ebp
  00007	c3		 ret	 0
??$addressof@$$CBUItemPriceInfo@@@std@@YAPBUItemPriceInfo@@ABU1@@Z ENDP ; std::addressof<ItemPriceInfo const >
_TEXT	ENDS
; Function compile flags: /Ogtp
; File c:\program files (x86)\microsoft visual studio 14.0\vc\include\utility
;	COMDAT ??$swap@PAUItemPriceInfo@@@std@@YAXAAPAUItemPriceInfo@@0@Z
_TEXT	SEGMENT
__Left$ = 8						; size = 4
__Right$ = 12						; size = 4
??$swap@PAUItemPriceInfo@@@std@@YAXAAPAUItemPriceInfo@@0@Z PROC ; std::swap<ItemPriceInfo *>, COMDAT

; 51   : 	{	// exchange values stored at _Left and _Right

  00000	55		 push	 ebp
  00001	8b ec		 mov	 ebp, esp

; 52   : 	_Ty _Tmp = _Move(_Left);

  00003	8b 55 08	 mov	 edx, DWORD PTR __Left$[ebp]

; 53   : 	_Left = _Move(_Right);

  00006	8b 4d 0c	 mov	 ecx, DWORD PTR __Right$[ebp]
  00009	56		 push	 esi
  0000a	8b 32		 mov	 esi, DWORD PTR [edx]
  0000c	8b 01		 mov	 eax, DWORD PTR [ecx]
  0000e	89 02		 mov	 DWORD PTR [edx], eax

; 54   : 	_Right = _Move(_Tmp);

  00010	89 31		 mov	 DWORD PTR [ecx], esi
  00012	5e		 pop	 esi

; 55   : 	}

  00013	5d		 pop	 ebp
  00014	c3		 ret	 0
??$swap@PAUItemPriceInfo@@@std@@YAXAAPAUItemPriceInfo@@0@Z ENDP ; std::swap<ItemPriceInfo *>
_TEXT	ENDS
; Function compile flags: /Ogtp
; File c:\program files (x86)\microsoft visual studio 14.0\vc\include\utility
;	COMDAT ??$_Swap_adl@PAUItemPriceInfo@@@std@@YAXAAPAUItemPriceInfo@@0@Z
_TEXT	SEGMENT
__Left$ = 8						; size = 4
__Right$ = 12						; size = 4
??$_Swap_adl@PAUItemPriceInfo@@@std@@YAXAAPAUItemPriceInfo@@0@Z PROC ; std::_Swap_adl<ItemPriceInfo *>, COMDAT

; 61   : 	{	// exchange values stored at _Left and _Right, using ADL

  00000	55		 push	 ebp
  00001	8b ec		 mov	 ebp, esp

; 52   : 	_Ty _Tmp = _Move(_Left);

  00003	8b 55 08	 mov	 edx, DWORD PTR __Left$[ebp]

; 53   : 	_Left = _Move(_Right);

  00006	8b 4d 0c	 mov	 ecx, DWORD PTR __Right$[ebp]
  00009	56		 push	 esi

; 52   : 	_Ty _Tmp = _Move(_Left);

  0000a	8b 32		 mov	 esi, DWORD PTR [edx]

; 53   : 	_Left = _Move(_Right);

  0000c	8b 01		 mov	 eax, DWORD PTR [ecx]
  0000e	89 02		 mov	 DWORD PTR [edx], eax

; 54   : 	_Right = _Move(_Tmp);

  00010	89 31		 mov	 DWORD PTR [ecx], esi
  00012	5e		 pop	 esi

; 62   : 	swap(_Left, _Right);
; 63   : 	}

  00013	5d		 pop	 ebp
  00014	c3		 ret	 0
??$_Swap_adl@PAUItemPriceInfo@@@std@@YAXAAPAUItemPriceInfo@@0@Z ENDP ; std::_Swap_adl<ItemPriceInfo *>
_TEXT	ENDS
; Function compile flags: /Ogtp
; File c:\program files (x86)\microsoft visual studio 14.0\vc\include\xmemory0
;	COMDAT ??$?8UItemPriceInfo@@U0@@std@@YA_NABV?$allocator@UItemPriceInfo@@@0@0@Z
_TEXT	SEGMENT
___formal$ = 8						; size = 4
___formal$ = 12						; size = 4
??$?8UItemPriceInfo@@U0@@std@@YA_NABV?$allocator@UItemPriceInfo@@@0@0@Z PROC ; std::operator==<ItemPriceInfo,ItemPriceInfo>, COMDAT

; 712  : 	return (true);

  00000	b0 01		 mov	 al, 1

; 713  : 	}

  00002	c3		 ret	 0
??$?8UItemPriceInfo@@U0@@std@@YA_NABV?$allocator@UItemPriceInfo@@@0@0@Z ENDP ; std::operator==<ItemPriceInfo,ItemPriceInfo>
_TEXT	ENDS
; Function compile flags: /Ogtp
; File c:\program files (x86)\microsoft visual studio 14.0\vc\include\xmemory0
;	COMDAT ??$?8V?$allocator@UItemPriceInfo@@@std@@V01@@std@@YA_NABU?$_Wrap_alloc@V?$allocator@UItemPriceInfo@@@std@@@0@0@Z
_TEXT	SEGMENT
__Left$ = 8						; size = 4
__Right$ = 12						; size = 4
??$?8V?$allocator@UItemPriceInfo@@@std@@V01@@std@@YA_NABU?$_Wrap_alloc@V?$allocator@UItemPriceInfo@@@std@@@0@0@Z PROC ; std::operator==<std::allocator<ItemPriceInfo>,std::allocator<ItemPriceInfo> >, COMDAT

; 939  : 	return (static_cast<const _Ty&>(_Left)

  00000	b0 01		 mov	 al, 1

; 940  : 		== static_cast<const _Other&>(_Right));
; 941  : 	}

  00002	c3		 ret	 0
??$?8V?$allocator@UItemPriceInfo@@@std@@V01@@std@@YA_NABU?$_Wrap_alloc@V?$allocator@UItemPriceInfo@@@std@@@0@0@Z ENDP ; std::operator==<std::allocator<ItemPriceInfo>,std::allocator<ItemPriceInfo> >
_TEXT	ENDS
; Function compile flags: /Ogtp
;	COMDAT ??__Fg_ItemPrice@@YAXXZ
text$yd	SEGMENT
??__Fg_ItemPrice@@YAXXZ PROC				; `dynamic atexit destructor for 'g_ItemPrice'', COMDAT
  00000	b9 00 00 00 00	 mov	 ecx, OFFSET ?g_ItemPrice@@3VItemPrice@@A ; g_ItemPrice
  00005	e9 00 00 00 00	 jmp	 ??1ItemPrice@@UAE@XZ	; ItemPrice::~ItemPrice
??__Fg_ItemPrice@@YAXXZ ENDP				; `dynamic atexit destructor for 'g_ItemPrice''
text$yd	ENDS
; Function compile flags: /Ogtp
; File c:\users\michel\desktop\source\gameserver\source\itemprice.cpp
;	COMDAT ??__Eg_ItemPrice@@YAXXZ
text$di	SEGMENT
??__Eg_ItemPrice@@YAXXZ PROC				; `dynamic initializer for 'g_ItemPrice'', COMDAT

; 9    : ItemPrice g_ItemPrice;

  00000	b9 00 00 00 00	 mov	 ecx, OFFSET ?g_ItemPrice@@3VItemPrice@@A ; g_ItemPrice
  00005	e8 00 00 00 00	 call	 ??0ItemPrice@@QAE@XZ	; ItemPrice::ItemPrice
  0000a	68 00 00 00 00	 push	 OFFSET ??__Fg_ItemPrice@@YAXXZ ; `dynamic atexit destructor for 'g_ItemPrice''
  0000f	e8 00 00 00 00	 call	 _atexit
  00014	59		 pop	 ecx
  00015	c3		 ret	 0
??__Eg_ItemPrice@@YAXXZ ENDP				; `dynamic initializer for 'g_ItemPrice''
text$di	ENDS
; Function compile flags: /Ogtp
;	COMDAT ??_GItemPrice@@UAEPAXI@Z
_TEXT	SEGMENT
___flags$ = 8						; size = 4
??_GItemPrice@@UAEPAXI@Z PROC				; ItemPrice::`scalar deleting destructor', COMDAT
; _this$ = ecx
  00000	55		 push	 ebp
  00001	8b ec		 mov	 ebp, esp
  00003	56		 push	 esi
  00004	8b f1		 mov	 esi, ecx
  00006	e8 00 00 00 00	 call	 ??1ItemPrice@@UAE@XZ	; ItemPrice::~ItemPrice
  0000b	f6 45 08 01	 test	 BYTE PTR ___flags$[ebp], 1
  0000f	74 0b		 je	 SHORT $LN4@scalar
  00011	6a 10		 push	 16			; 00000010H
  00013	56		 push	 esi
  00014	e8 00 00 00 00	 call	 ??3@YAXPAXI@Z		; operator delete
  00019	83 c4 08	 add	 esp, 8
$LN4@scalar:
  0001c	8b c6		 mov	 eax, esi
  0001e	5e		 pop	 esi
  0001f	5d		 pop	 ebp
  00020	c2 04 00	 ret	 4
??_GItemPrice@@UAEPAXI@Z ENDP				; ItemPrice::`scalar deleting destructor'
_TEXT	ENDS
; Function compile flags: /Ogtp
; File c:\program files (x86)\microsoft visual studio 14.0\vc\include\vector
;	COMDAT ?_Orphan_range@?$vector@UItemPriceInfo@@V?$allocator@UItemPriceInfo@@@std@@@std@@IBEXPAUItemPriceInfo@@0@Z
_TEXT	SEGMENT
___formal$ = 8						; size = 4
___formal$ = 12						; size = 4
?_Orphan_range@?$vector@UItemPriceInfo@@V?$allocator@UItemPriceInfo@@@std@@@std@@IBEXPAUItemPriceInfo@@0@Z PROC ; std::vector<ItemPriceInfo,std::allocator<ItemPriceInfo> >::_Orphan_range, COMDAT
; _this$ = ecx

; 1813 : 		}

  00000	c2 08 00	 ret	 8
?_Orphan_range@?$vector@UItemPriceInfo@@V?$allocator@UItemPriceInfo@@@std@@@std@@IBEXPAUItemPriceInfo@@0@Z ENDP ; std::vector<ItemPriceInfo,std::allocator<ItemPriceInfo> >::_Orphan_range
_TEXT	ENDS
; Function compile flags: /Ogtp
; File c:\program files (x86)\microsoft visual studio 14.0\vc\include\vector
;	COMDAT ?_Xlen@?$vector@UItemPriceInfo@@V?$allocator@UItemPriceInfo@@@std@@@std@@IBEXXZ
_TEXT	SEGMENT
?_Xlen@?$vector@UItemPriceInfo@@V?$allocator@UItemPriceInfo@@@std@@@std@@IBEXXZ PROC ; std::vector<ItemPriceInfo,std::allocator<ItemPriceInfo> >::_Xlen, COMDAT
; _this$ = ecx

; 1784 : 		_Xlength_error("vector<T> too long");

  00000	68 00 00 00 00	 push	 OFFSET ??_C@_0BD@OLBABOEK@vector?$DMT?$DO?5too?5long?$AA@
  00005	e8 00 00 00 00	 call	 ?_Xlength_error@std@@YAXPBD@Z ; std::_Xlength_error
$LN4@Xlen:
$LN3@Xlen:
  0000a	cc		 int	 3
?_Xlen@?$vector@UItemPriceInfo@@V?$allocator@UItemPriceInfo@@@std@@@std@@IBEXXZ ENDP ; std::vector<ItemPriceInfo,std::allocator<ItemPriceInfo> >::_Xlen
_TEXT	ENDS
; Function compile flags: /Ogtp
; File c:\program files (x86)\microsoft visual studio 14.0\vc\include\vector
; File c:\program files (x86)\microsoft visual studio 14.0\vc\include\xmemory0
; File c:\program files (x86)\microsoft visual studio 14.0\vc\include\vector
;	COMDAT ?_Tidy@?$vector@UItemPriceInfo@@V?$allocator@UItemPriceInfo@@@std@@@std@@IAEXXZ
_TEXT	SEGMENT
?_Tidy@?$vector@UItemPriceInfo@@V?$allocator@UItemPriceInfo@@@std@@@std@@IAEXXZ PROC ; std::vector<ItemPriceInfo,std::allocator<ItemPriceInfo> >::_Tidy, COMDAT
; _this$ = ecx

; 1655 : 		{	// free all storage

  00000	56		 push	 esi
  00001	8b f1		 mov	 esi, ecx

; 1656 : 		if (this->_Myfirst() != pointer())

  00003	8b 0e		 mov	 ecx, DWORD PTR [esi]
  00005	85 c9		 test	 ecx, ecx
  00007	74 32		 je	 SHORT $LN2@Tidy

; 1657 : 			{	// something to free, destroy and deallocate it
; 1658 : 			this->_Orphan_all();
; 1659 : 			_Destroy(this->_Myfirst(), this->_Mylast());
; 1660 : 			this->_Getal().deallocate(this->_Myfirst(),

  00009	8b 56 08	 mov	 edx, DWORD PTR [esi+8]
  0000c	b8 ab aa aa 2a	 mov	 eax, 715827883		; 2aaaaaabH
  00011	2b d1		 sub	 edx, ecx
  00013	f7 ea		 imul	 edx
  00015	d1 fa		 sar	 edx, 1
  00017	8b c2		 mov	 eax, edx
  00019	c1 e8 1f	 shr	 eax, 31			; 0000001fH
  0001c	03 c2		 add	 eax, edx
; File c:\program files (x86)\microsoft visual studio 14.0\vc\include\xmemory0

; 909  : 		_Mybase::deallocate(_Ptr, _Count);

  0001e	50		 push	 eax
  0001f	51		 push	 ecx
  00020	8b ce		 mov	 ecx, esi
  00022	e8 00 00 00 00	 call	 ?deallocate@?$allocator@UItemPriceInfo@@@std@@QAEXPAUItemPriceInfo@@I@Z ; std::allocator<ItemPriceInfo>::deallocate
; File c:\program files (x86)\microsoft visual studio 14.0\vc\include\vector

; 1662 : 			this->_Myfirst() = pointer();

  00027	c7 06 00 00 00
	00		 mov	 DWORD PTR [esi], 0

; 1663 : 			this->_Mylast() = pointer();

  0002d	c7 46 04 00 00
	00 00		 mov	 DWORD PTR [esi+4], 0

; 1664 : 			this->_Myend() = pointer();

  00034	c7 46 08 00 00
	00 00		 mov	 DWORD PTR [esi+8], 0
$LN2@Tidy:
  0003b	5e		 pop	 esi

; 1665 : 			}
; 1666 : 		}

  0003c	c3		 ret	 0
?_Tidy@?$vector@UItemPriceInfo@@V?$allocator@UItemPriceInfo@@@std@@@std@@IAEXXZ ENDP ; std::vector<ItemPriceInfo,std::allocator<ItemPriceInfo> >::_Tidy
_TEXT	ENDS
; Function compile flags: /Ogtp
; File c:\program files (x86)\microsoft visual studio 14.0\vc\include\vector
;	COMDAT ?_Reserve@?$vector@UItemPriceInfo@@V?$allocator@UItemPriceInfo@@@std@@@std@@IAEXI@Z
_TEXT	SEGMENT
tv202 = 8						; size = 4
__Count$ = 8						; size = 4
?_Reserve@?$vector@UItemPriceInfo@@V?$allocator@UItemPriceInfo@@@std@@@std@@IAEXI@Z PROC ; std::vector<ItemPriceInfo,std::allocator<ItemPriceInfo> >::_Reserve, COMDAT
; _this$ = ecx

; 1645 : 		{	// ensure room for _Count new elements, grow exponentially

  00000	55		 push	 ebp
  00001	8b ec		 mov	 ebp, esp
  00003	53		 push	 ebx
  00004	8b d9		 mov	 ebx, ecx

; 1043 : 		}
; 1044 : 
; 1045 : 	size_type _Unused_capacity() const _NOEXCEPT
; 1046 : 		{	// micro-optimization for capacity() - size()
; 1047 : 		return (this->_Myend() - this->_Mylast());

  00006	b8 ab aa aa 2a	 mov	 eax, 715827883		; 2aaaaaabH
  0000b	56		 push	 esi
  0000c	57		 push	 edi

; 1646 : 		if (_Unused_capacity() < _Count)

  0000d	8b 7d 08	 mov	 edi, DWORD PTR __Count$[ebp]

; 1043 : 		}
; 1044 : 
; 1045 : 	size_type _Unused_capacity() const _NOEXCEPT
; 1046 : 		{	// micro-optimization for capacity() - size()
; 1047 : 		return (this->_Myend() - this->_Mylast());

  00010	8b 53 08	 mov	 edx, DWORD PTR [ebx+8]
  00013	8b 73 04	 mov	 esi, DWORD PTR [ebx+4]
  00016	2b d6		 sub	 edx, esi
  00018	f7 ea		 imul	 edx
  0001a	d1 fa		 sar	 edx, 1
  0001c	8b c2		 mov	 eax, edx
  0001e	c1 e8 1f	 shr	 eax, 31			; 0000001fH
  00021	03 c2		 add	 eax, edx

; 1646 : 		if (_Unused_capacity() < _Count)

  00023	3b c7		 cmp	 eax, edi
  00025	73 5f		 jae	 SHORT $LN2@Reserve

; 1048 : 		}
; 1049 : 
; 1050 : 	size_type _Has_unused_capacity() const _NOEXCEPT
; 1051 : 		{	// micro-optimization for capacity() != size()
; 1052 : 		return (this->_Myend() != this->_Mylast());
; 1053 : 		}
; 1054 : 
; 1055 : 	iterator begin() _NOEXCEPT
; 1056 : 		{	// return iterator for beginning of mutable sequence
; 1057 : 		return (iterator(this->_Myfirst(), &this->_Get_data()));
; 1058 : 		}
; 1059 : 
; 1060 : 	const_iterator begin() const _NOEXCEPT
; 1061 : 		{	// return iterator for beginning of nonmutable sequence
; 1062 : 		return (const_iterator(this->_Myfirst(), &this->_Get_data()));
; 1063 : 		}
; 1064 : 
; 1065 : 	iterator end() _NOEXCEPT
; 1066 : 		{	// return iterator for end of mutable sequence
; 1067 : 		return (iterator(this->_Mylast(), &this->_Get_data()));
; 1068 : 		}
; 1069 : 
; 1070 : 	const_iterator end() const _NOEXCEPT
; 1071 : 		{	// return iterator for end of nonmutable sequence
; 1072 : 		return (const_iterator(this->_Mylast(), &this->_Get_data()));
; 1073 : 		}
; 1074 : 
; 1075 : 	iterator _Make_iter(const_iterator _Where) const
; 1076 : 		{	// make iterator from const_iterator
; 1077 : 		return (iterator(_Where._Ptr, &this->_Get_data()));
; 1078 : 		}
; 1079 : 
; 1080 : 	reverse_iterator rbegin() _NOEXCEPT
; 1081 : 		{	// return iterator for beginning of reversed mutable sequence
; 1082 : 		return (reverse_iterator(end()));
; 1083 : 		}
; 1084 : 
; 1085 : 	const_reverse_iterator rbegin() const _NOEXCEPT
; 1086 : 		{	// return iterator for beginning of reversed nonmutable sequence
; 1087 : 		return (const_reverse_iterator(end()));
; 1088 : 		}
; 1089 : 
; 1090 : 	reverse_iterator rend() _NOEXCEPT
; 1091 : 		{	// return iterator for end of reversed mutable sequence
; 1092 : 		return (reverse_iterator(begin()));
; 1093 : 		}
; 1094 : 
; 1095 : 	const_reverse_iterator rend() const _NOEXCEPT
; 1096 : 		{	// return iterator for end of reversed nonmutable sequence
; 1097 : 		return (const_reverse_iterator(begin()));
; 1098 : 		}
; 1099 : 
; 1100 : 	const_iterator cbegin() const _NOEXCEPT
; 1101 : 		{	// return iterator for beginning of nonmutable sequence
; 1102 : 		return (begin());
; 1103 : 		}
; 1104 : 
; 1105 : 	const_iterator cend() const _NOEXCEPT
; 1106 : 		{	// return iterator for end of nonmutable sequence
; 1107 : 		return (end());
; 1108 : 		}
; 1109 : 
; 1110 : 	const_reverse_iterator crbegin() const _NOEXCEPT
; 1111 : 		{	// return iterator for beginning of reversed nonmutable sequence
; 1112 : 		return (rbegin());
; 1113 : 		}
; 1114 : 
; 1115 : 	const_reverse_iterator crend() const _NOEXCEPT
; 1116 : 		{	// return iterator for end of reversed nonmutable sequence
; 1117 : 		return (rend());
; 1118 : 		}
; 1119 : 
; 1120 : 	void shrink_to_fit()
; 1121 : 		{	// reduce capacity
; 1122 : 		if (_Has_unused_capacity())
; 1123 : 			{	// worth shrinking, do it
; 1124 : 			if (empty())
; 1125 : 				_Tidy();
; 1126 : 			else
; 1127 : 				_Reallocate(size());
; 1128 : 			}
; 1129 : 		}
; 1130 : 
; 1131 : 	void resize(size_type _Newsize)
; 1132 : 		{	// determine new length, padding as needed
; 1133 : 		if (_Newsize < size())
; 1134 : 			_Pop_back_n(size() - _Newsize);
; 1135 : 		else if (size() < _Newsize)
; 1136 : 			{	// pad as needed
; 1137 : 			_Reserve(_Newsize - size());
; 1138 : 			_TRY_BEGIN
; 1139 : 			_Uninitialized_default_fill_n(this->_Mylast(), _Newsize - size(),
; 1140 : 				this->_Getal());
; 1141 : 			_CATCH_ALL
; 1142 : 			_Tidy();
; 1143 : 			_RERAISE;
; 1144 : 			_CATCH_END
; 1145 : 			this->_Mylast() += _Newsize - size();
; 1146 : 			}
; 1147 : 		}
; 1148 : 
; 1149 : 	void resize(size_type _Newsize, const value_type& _Val)
; 1150 : 		{	// determine new length, padding with _Val elements as needed
; 1151 : 		if (_Newsize < size())
; 1152 : 			_Pop_back_n(size() - _Newsize);
; 1153 : 		else if (size() < _Newsize)
; 1154 : 			{	// pad as needed
; 1155 : 			const value_type *_Ptr = _STD addressof(_Val);
; 1156 : 
; 1157 : 			if (_Inside(_Ptr))
; 1158 : 				{	// padding is inside vector, recompute _Ptr after reserve
; 1159 : 				const difference_type _Idx = _Ptr
; 1160 : 					- _STD addressof(*this->_Myfirst());
; 1161 : 				_Reserve(_Newsize - size());
; 1162 : 				_Ptr = _STD addressof(*this->_Myfirst()) + _Idx;
; 1163 : 				}
; 1164 : 			else
; 1165 : 				_Reserve(_Newsize - size());
; 1166 : 
; 1167 : 			_TRY_BEGIN
; 1168 : 			_Ufill(this->_Mylast(), _Newsize - size(), _Ptr);
; 1169 : 			_CATCH_ALL
; 1170 : 			_Tidy();
; 1171 : 			_RERAISE;
; 1172 : 			_CATCH_END
; 1173 : 			this->_Mylast() += _Newsize - size();
; 1174 : 			}
; 1175 : 		}
; 1176 : 
; 1177 : 	size_type size() const _NOEXCEPT
; 1178 : 		{	// return length of sequence
; 1179 : 		return (this->_Mylast() - this->_Myfirst());

  00027	8b 03		 mov	 eax, DWORD PTR [ebx]
  00029	2b f0		 sub	 esi, eax
  0002b	89 45 08	 mov	 DWORD PTR tv202[ebp], eax
  0002e	b8 ab aa aa 2a	 mov	 eax, 715827883		; 2aaaaaabH
  00033	f7 ee		 imul	 esi

; 1647 : 			{	// need more room, try to get it
; 1648 : 			if (max_size() - size() < _Count)

  00035	b8 55 55 55 15	 mov	 eax, 357913941		; 15555555H

; 1048 : 		}
; 1049 : 
; 1050 : 	size_type _Has_unused_capacity() const _NOEXCEPT
; 1051 : 		{	// micro-optimization for capacity() != size()
; 1052 : 		return (this->_Myend() != this->_Mylast());
; 1053 : 		}
; 1054 : 
; 1055 : 	iterator begin() _NOEXCEPT
; 1056 : 		{	// return iterator for beginning of mutable sequence
; 1057 : 		return (iterator(this->_Myfirst(), &this->_Get_data()));
; 1058 : 		}
; 1059 : 
; 1060 : 	const_iterator begin() const _NOEXCEPT
; 1061 : 		{	// return iterator for beginning of nonmutable sequence
; 1062 : 		return (const_iterator(this->_Myfirst(), &this->_Get_data()));
; 1063 : 		}
; 1064 : 
; 1065 : 	iterator end() _NOEXCEPT
; 1066 : 		{	// return iterator for end of mutable sequence
; 1067 : 		return (iterator(this->_Mylast(), &this->_Get_data()));
; 1068 : 		}
; 1069 : 
; 1070 : 	const_iterator end() const _NOEXCEPT
; 1071 : 		{	// return iterator for end of nonmutable sequence
; 1072 : 		return (const_iterator(this->_Mylast(), &this->_Get_data()));
; 1073 : 		}
; 1074 : 
; 1075 : 	iterator _Make_iter(const_iterator _Where) const
; 1076 : 		{	// make iterator from const_iterator
; 1077 : 		return (iterator(_Where._Ptr, &this->_Get_data()));
; 1078 : 		}
; 1079 : 
; 1080 : 	reverse_iterator rbegin() _NOEXCEPT
; 1081 : 		{	// return iterator for beginning of reversed mutable sequence
; 1082 : 		return (reverse_iterator(end()));
; 1083 : 		}
; 1084 : 
; 1085 : 	const_reverse_iterator rbegin() const _NOEXCEPT
; 1086 : 		{	// return iterator for beginning of reversed nonmutable sequence
; 1087 : 		return (const_reverse_iterator(end()));
; 1088 : 		}
; 1089 : 
; 1090 : 	reverse_iterator rend() _NOEXCEPT
; 1091 : 		{	// return iterator for end of reversed mutable sequence
; 1092 : 		return (reverse_iterator(begin()));
; 1093 : 		}
; 1094 : 
; 1095 : 	const_reverse_iterator rend() const _NOEXCEPT
; 1096 : 		{	// return iterator for end of reversed nonmutable sequence
; 1097 : 		return (const_reverse_iterator(begin()));
; 1098 : 		}
; 1099 : 
; 1100 : 	const_iterator cbegin() const _NOEXCEPT
; 1101 : 		{	// return iterator for beginning of nonmutable sequence
; 1102 : 		return (begin());
; 1103 : 		}
; 1104 : 
; 1105 : 	const_iterator cend() const _NOEXCEPT
; 1106 : 		{	// return iterator for end of nonmutable sequence
; 1107 : 		return (end());
; 1108 : 		}
; 1109 : 
; 1110 : 	const_reverse_iterator crbegin() const _NOEXCEPT
; 1111 : 		{	// return iterator for beginning of reversed nonmutable sequence
; 1112 : 		return (rbegin());
; 1113 : 		}
; 1114 : 
; 1115 : 	const_reverse_iterator crend() const _NOEXCEPT
; 1116 : 		{	// return iterator for end of reversed nonmutable sequence
; 1117 : 		return (rend());
; 1118 : 		}
; 1119 : 
; 1120 : 	void shrink_to_fit()
; 1121 : 		{	// reduce capacity
; 1122 : 		if (_Has_unused_capacity())
; 1123 : 			{	// worth shrinking, do it
; 1124 : 			if (empty())
; 1125 : 				_Tidy();
; 1126 : 			else
; 1127 : 				_Reallocate(size());
; 1128 : 			}
; 1129 : 		}
; 1130 : 
; 1131 : 	void resize(size_type _Newsize)
; 1132 : 		{	// determine new length, padding as needed
; 1133 : 		if (_Newsize < size())
; 1134 : 			_Pop_back_n(size() - _Newsize);
; 1135 : 		else if (size() < _Newsize)
; 1136 : 			{	// pad as needed
; 1137 : 			_Reserve(_Newsize - size());
; 1138 : 			_TRY_BEGIN
; 1139 : 			_Uninitialized_default_fill_n(this->_Mylast(), _Newsize - size(),
; 1140 : 				this->_Getal());
; 1141 : 			_CATCH_ALL
; 1142 : 			_Tidy();
; 1143 : 			_RERAISE;
; 1144 : 			_CATCH_END
; 1145 : 			this->_Mylast() += _Newsize - size();
; 1146 : 			}
; 1147 : 		}
; 1148 : 
; 1149 : 	void resize(size_type _Newsize, const value_type& _Val)
; 1150 : 		{	// determine new length, padding with _Val elements as needed
; 1151 : 		if (_Newsize < size())
; 1152 : 			_Pop_back_n(size() - _Newsize);
; 1153 : 		else if (size() < _Newsize)
; 1154 : 			{	// pad as needed
; 1155 : 			const value_type *_Ptr = _STD addressof(_Val);
; 1156 : 
; 1157 : 			if (_Inside(_Ptr))
; 1158 : 				{	// padding is inside vector, recompute _Ptr after reserve
; 1159 : 				const difference_type _Idx = _Ptr
; 1160 : 					- _STD addressof(*this->_Myfirst());
; 1161 : 				_Reserve(_Newsize - size());
; 1162 : 				_Ptr = _STD addressof(*this->_Myfirst()) + _Idx;
; 1163 : 				}
; 1164 : 			else
; 1165 : 				_Reserve(_Newsize - size());
; 1166 : 
; 1167 : 			_TRY_BEGIN
; 1168 : 			_Ufill(this->_Mylast(), _Newsize - size(), _Ptr);
; 1169 : 			_CATCH_ALL
; 1170 : 			_Tidy();
; 1171 : 			_RERAISE;
; 1172 : 			_CATCH_END
; 1173 : 			this->_Mylast() += _Newsize - size();
; 1174 : 			}
; 1175 : 		}
; 1176 : 
; 1177 : 	size_type size() const _NOEXCEPT
; 1178 : 		{	// return length of sequence
; 1179 : 		return (this->_Mylast() - this->_Myfirst());

  0003a	d1 fa		 sar	 edx, 1
  0003c	8b ca		 mov	 ecx, edx
  0003e	c1 e9 1f	 shr	 ecx, 31			; 0000001fH
  00041	03 ca		 add	 ecx, edx

; 1647 : 			{	// need more room, try to get it
; 1648 : 			if (max_size() - size() < _Count)

  00043	2b c1		 sub	 eax, ecx
  00045	3b c7		 cmp	 eax, edi
  00047	72 44		 jb	 SHORT $LN134@Reserve

; 1649 : 				_Xlen();
; 1650 : 			_Reallocate(_Grow_to(size() + _Count));

  00049	03 f9		 add	 edi, ecx

; 1042 : 		return (this->_Myend() - this->_Myfirst());

  0004b	b8 ab aa aa 2a	 mov	 eax, 715827883		; 2aaaaaabH
  00050	8b 4b 08	 mov	 ecx, DWORD PTR [ebx+8]
  00053	2b 4d 08	 sub	 ecx, DWORD PTR tv202[ebp]
  00056	f7 e9		 imul	 ecx
  00058	d1 fa		 sar	 edx, 1
  0005a	8b f2		 mov	 esi, edx
  0005c	c1 ee 1f	 shr	 esi, 31			; 0000001fH
  0005f	03 f2		 add	 esi, edx

; 1180 : 		}
; 1181 : 
; 1182 : 	size_type max_size() const _NOEXCEPT
; 1183 : 		{	// return maximum possible length of sequence
; 1184 : 		return (this->_Getal().max_size());
; 1185 : 		}
; 1186 : 
; 1187 : 	bool empty() const _NOEXCEPT
; 1188 : 		{	// test if sequence is empty
; 1189 : 		return (this->_Myfirst() == this->_Mylast());
; 1190 : 		}
; 1191 : 
; 1192 : 	_Alloc get_allocator() const _NOEXCEPT
; 1193 : 		{	// return allocator object for values
; 1194 : 		return (this->_Getal());
; 1195 : 		}
; 1196 : 
; 1197 : 	const_reference at(size_type _Pos) const
; 1198 : 		{	// subscript nonmutable sequence with checking
; 1199 : 		if (size() <= _Pos)
; 1200 : 			_Xran();
; 1201 : 		return (*(this->_Myfirst() + _Pos));
; 1202 : 		}
; 1203 : 
; 1204 : 	reference at(size_type _Pos)
; 1205 : 		{	// subscript mutable sequence with checking
; 1206 : 		if (size() <= _Pos)
; 1207 : 			_Xran();
; 1208 : 		return (*(this->_Myfirst() + _Pos));
; 1209 : 		}
; 1210 : 
; 1211 : 	const_reference operator[](size_type _Pos) const
; 1212 : 		{	// subscript nonmutable sequence
; 1213 :  #if _ITERATOR_DEBUG_LEVEL == 2
; 1214 : 		if (size() <= _Pos)
; 1215 : 			{	// report error
; 1216 : 			_DEBUG_ERROR("vector subscript out of range");
; 1217 : 			_SCL_SECURE_OUT_OF_RANGE;
; 1218 : 			}
; 1219 : 
; 1220 :  #elif _ITERATOR_DEBUG_LEVEL == 1
; 1221 : 		_SCL_SECURE_VALIDATE_RANGE(_Pos < size());
; 1222 :  #endif /* _ITERATOR_DEBUG_LEVEL */
; 1223 : 
; 1224 : 		return (*(this->_Myfirst() + _Pos));
; 1225 : 		}
; 1226 : 
; 1227 : 	reference operator[](size_type _Pos)
; 1228 : 		{	// subscript mutable sequence
; 1229 :  #if _ITERATOR_DEBUG_LEVEL == 2
; 1230 : 		if (size() <= _Pos)
; 1231 : 			{	// report error
; 1232 : 			_DEBUG_ERROR("vector subscript out of range");
; 1233 : 			_SCL_SECURE_OUT_OF_RANGE;
; 1234 : 			}
; 1235 : 
; 1236 :  #elif _ITERATOR_DEBUG_LEVEL == 1
; 1237 : 		_SCL_SECURE_VALIDATE_RANGE(_Pos < size());
; 1238 :  #endif /* _ITERATOR_DEBUG_LEVEL */
; 1239 : 
; 1240 : 		return (*(this->_Myfirst() + _Pos));
; 1241 : 		}
; 1242 : 
; 1243 : 	pointer data() _NOEXCEPT
; 1244 : 		{	// return address of first element
; 1245 : 		return (this->_Myfirst());
; 1246 : 		}
; 1247 : 
; 1248 : 	const_pointer data() const _NOEXCEPT
; 1249 : 		{	// return address of first element
; 1250 : 		return (this->_Myfirst());
; 1251 : 		}
; 1252 : 
; 1253 : 	reference front()
; 1254 : 		{	// return first element of mutable sequence
; 1255 : 		return (*begin());
; 1256 : 		}
; 1257 : 
; 1258 : 	const_reference front() const
; 1259 : 		{	// return first element of nonmutable sequence
; 1260 : 		return (*begin());
; 1261 : 		}
; 1262 : 
; 1263 : 	reference back()
; 1264 : 		{	// return last element of mutable sequence
; 1265 : 		return (*(end() - 1));
; 1266 : 		}
; 1267 : 
; 1268 : 	const_reference back() const
; 1269 : 		{	// return last element of nonmutable sequence
; 1270 : 		return (*(end() - 1));
; 1271 : 		}
; 1272 : 
; 1273 : 	void push_back(const value_type& _Val)
; 1274 : 		{	// insert element at end
; 1275 : 		if (_Inside(_STD addressof(_Val)))
; 1276 : 			{	// push back an element
; 1277 : 			size_type _Idx = _STD addressof(_Val) - this->_Myfirst();
; 1278 : 			if (this->_Mylast() == this->_Myend())
; 1279 : 				_Reserve(1);
; 1280 : 			_Orphan_range(this->_Mylast(), this->_Mylast());
; 1281 : 			this->_Getal().construct(this->_Mylast(),
; 1282 : 				this->_Myfirst()[_Idx]);
; 1283 : 			++this->_Mylast();
; 1284 : 			}
; 1285 : 		else
; 1286 : 			{	// push back a non-element
; 1287 : 			if (this->_Mylast() == this->_Myend())
; 1288 : 				_Reserve(1);
; 1289 : 			_Orphan_range(this->_Mylast(), this->_Mylast());
; 1290 : 			this->_Getal().construct(this->_Mylast(),
; 1291 : 				_Val);
; 1292 : 			++this->_Mylast();
; 1293 : 			}
; 1294 : 		}
; 1295 : 
; 1296 :  #if _ITERATOR_DEBUG_LEVEL == 2
; 1297 : 	void pop_back()
; 1298 : 		{	// erase element at end
; 1299 : 		if (empty())
; 1300 : 			_DEBUG_ERROR("vector empty before pop");
; 1301 : 		else
; 1302 : 			{	// erase last element
; 1303 : 			_Orphan_range(this->_Mylast() - 1, this->_Mylast());
; 1304 : 			this->_Getal().destroy(this->_Mylast() - 1);
; 1305 : 			--this->_Mylast();
; 1306 : 			}
; 1307 : 		}
; 1308 : 
; 1309 :  #else /* _ITERATOR_DEBUG_LEVEL == 2 */
; 1310 : 	void pop_back()
; 1311 : 		{	// erase element at end
; 1312 : 		this->_Getal().destroy(this->_Mylast() - 1);
; 1313 : 		--this->_Mylast();
; 1314 : 		}
; 1315 :  #endif /* _ITERATOR_DEBUG_LEVEL == 2 */
; 1316 : 
; 1317 : 	template<class _Iter>
; 1318 : 		typename enable_if<_Is_iterator<_Iter>::value,
; 1319 : 			void>::type
; 1320 : 		assign(_Iter _First, _Iter _Last)
; 1321 : 		{	// assign [_First, _Last)
; 1322 : 		clear();
; 1323 : 		_Assign(_First, _Last, _Iter_cat(_First));
; 1324 : 		}
; 1325 : 
; 1326 : 	template<class _Iter>
; 1327 : 		void _Assign(_Iter _First, _Iter _Last,
; 1328 : 			input_iterator_tag)
; 1329 : 		{	// assign [_First, _Last), input iterators
; 1330 : 		for (; _First != _Last; ++_First)
; 1331 : 			emplace_back(*_First);
; 1332 : 		}
; 1333 : 
; 1334 : 	template<class _Iter>
; 1335 : 		void _Assign(_Iter _First, _Iter _Last,
; 1336 : 			forward_iterator_tag)
; 1337 : 		{	// assign [_First, _Last), forward iterators
; 1338 : 		size_type _Newsize = _STD distance(_First, _Last);
; 1339 : 
; 1340 : 		if (capacity() < _Newsize)
; 1341 : 			{	// need more room, try to get it
; 1342 : 			size_type _Newcapacity = _Grow_to(_Newsize);
; 1343 : 			_Tidy();
; 1344 : 			_Buy(_Newcapacity);
; 1345 : 			}
; 1346 : 
; 1347 : 		this->_Mylast() = _Ucopy(_First, _Last, this->_Myfirst());
; 1348 : 		}
; 1349 : 
; 1350 : 	void assign(size_type _Count, const value_type& _Val)
; 1351 : 		{	// assign _Count * _Val
; 1352 : 		clear();
; 1353 : 		insert(begin(), _Count, _Val);
; 1354 : 		}
; 1355 : 
; 1356 : 	iterator insert(const_iterator _Where, const _Ty& _Val)
; 1357 : 		{	// insert _Val at _Where
; 1358 : 		return (_Insert_n(_Where, (size_type)1, _Val));
; 1359 : 		}
; 1360 : 
; 1361 : 	iterator insert(const_iterator _Where, size_type _Count,
; 1362 : 		const _Ty& _Val)
; 1363 : 		{	// insert _Count * _Val at _Where
; 1364 : 		return (_Insert_n(_Where, _Count, _Val));
; 1365 : 		}
; 1366 : 
; 1367 : 	template<class _Iter>
; 1368 : 		typename enable_if<_Is_iterator<_Iter>::value,
; 1369 : 			iterator>::type
; 1370 : 		insert(const_iterator _Where, _Iter _First, _Iter _Last)
; 1371 : 		{	// insert [_First, _Last) at _Where
; 1372 : 		size_type _Off = _VIPTR(_Where) - this->_Myfirst();
; 1373 : 		_Insert(_Where, _First, _Last, _Iter_cat(_First));
; 1374 : 		return (begin() + _Off);
; 1375 : 		}
; 1376 : 
; 1377 : 	template<class _Iter>
; 1378 : 		void _Insert(const_iterator _Where,
; 1379 : 			_Iter _First, _Iter _Last,
; 1380 : 				input_iterator_tag)
; 1381 : 		{	// insert [_First, _Last) at _Where, input iterators
; 1382 : 		size_type _Off = _VIPTR(_Where) - this->_Myfirst();
; 1383 : 
; 1384 :  #if _ITERATOR_DEBUG_LEVEL == 2
; 1385 : 		if (size() < _Off)
; 1386 : 			_DEBUG_ERROR("vector insert iterator outside range");
; 1387 :  #endif /* _ITERATOR_DEBUG_LEVEL == 2 */
; 1388 : 
; 1389 : 		if (_First != _Last)
; 1390 : 			{	// worth doing, gather at end and rotate into place
; 1391 : 			size_type _Oldsize = size();
; 1392 : 
; 1393 : 			_TRY_BEGIN
; 1394 : 			for (; _First != _Last; ++_First)
; 1395 : 				push_back(*_First);	// append
; 1396 : 
; 1397 : 			_CATCH_ALL
; 1398 : 			erase(begin() + _Oldsize, end());
; 1399 : 			_RERAISE;
; 1400 : 			_CATCH_END
; 1401 : 
; 1402 : 			_STD rotate(begin() + _Off, begin() + _Oldsize, end());
; 1403 : 			}
; 1404 : 		}
; 1405 : 
; 1406 : 	template<class _Iter>
; 1407 : 		void _Insert(const_iterator _Where,
; 1408 : 			_Iter _First, _Iter _Last,
; 1409 : 				forward_iterator_tag)
; 1410 : 		{	// insert [_First, _Last) at _Where, forward iterators
; 1411 :  #if _ITERATOR_DEBUG_LEVEL == 2
; 1412 : 		if (_VICONT(_Where) != &this->_Get_data()
; 1413 : 			|| _VIPTR(_Where) < this->_Myfirst()
; 1414 : 			|| this->_Mylast() < _VIPTR(_Where))
; 1415 : 			_DEBUG_ERROR("vector insert iterator outside range");
; 1416 : 		_DEBUG_RANGE(_First, _Last);
; 1417 :  #endif /* _ITERATOR_DEBUG_LEVEL == 2 */
; 1418 : 
; 1419 : 		size_type _Count = 0;
; 1420 : 		_Distance(_First, _Last, _Count);
; 1421 : 
; 1422 : 		if (_Count == 0)
; 1423 : 			;
; 1424 : 		else if (_Unused_capacity() < _Count)
; 1425 : 			{	// not enough room, reallocate
; 1426 : 			if (max_size() - size() < _Count)
; 1427 : 				_Xlen();	// result too long
; 1428 : 
; 1429 : 			size_type _Capacity = _Grow_to(size() + _Count);
; 1430 : 			pointer _Newvec = this->_Getal().allocate(_Capacity);
; 1431 : 			pointer _Ptr = _Newvec;
; 1432 : 
; 1433 : 			_TRY_BEGIN
; 1434 : 			_Ptr = _Umove(this->_Myfirst(), _VIPTR(_Where),
; 1435 : 				_Newvec);	// copy prefix
; 1436 : 			_Ptr = _Ucopy(_First, _Last, _Ptr);	// add new stuff
; 1437 : 			_Umove(_VIPTR(_Where), this->_Mylast(),
; 1438 : 				_Ptr);	// copy suffix
; 1439 : 			_CATCH_ALL
; 1440 : 			_Destroy(_Newvec, _Ptr);
; 1441 : 			this->_Getal().deallocate(_Newvec, _Capacity);
; 1442 : 			_RERAISE;
; 1443 : 			_CATCH_END
; 1444 : 
; 1445 : 			_Count += size();
; 1446 : 			if (this->_Myfirst() != pointer())
; 1447 : 				{	// destroy and deallocate old array
; 1448 : 				_Destroy(this->_Myfirst(), this->_Mylast());
; 1449 : 				this->_Getal().deallocate(this->_Myfirst(),
; 1450 : 					this->_Myend() - this->_Myfirst());
; 1451 : 				}
; 1452 : 
; 1453 : 			this->_Orphan_all();
; 1454 : 			this->_Myend() = _Newvec + _Capacity;
; 1455 : 			this->_Mylast() = _Newvec + _Count;
; 1456 : 			this->_Myfirst() = _Newvec;
; 1457 : 			}
; 1458 : 		else
; 1459 : 			{	// new stuff fits, append and rotate into place
; 1460 : 			_Ucopy(_First, _Last, this->_Mylast());
; 1461 : 			_STD rotate(_VIPTR(_Where), this->_Mylast(),
; 1462 : 				this->_Mylast() + _Count);
; 1463 : 			this->_Mylast() += _Count;
; 1464 : 			_Orphan_range(_VIPTR(_Where), this->_Mylast());
; 1465 : 			}
; 1466 : 		}
; 1467 : 
; 1468 :  #if _ITERATOR_DEBUG_LEVEL == 2
; 1469 : 	iterator erase(const_iterator _Where)
; 1470 : 		{	// erase element at where
; 1471 : 		if (_VICONT(_Where) != &this->_Get_data()
; 1472 : 			|| _VIPTR(_Where) < this->_Myfirst()
; 1473 : 			|| this->_Mylast() <= _VIPTR(_Where))
; 1474 : 			_DEBUG_ERROR("vector erase iterator outside range");
; 1475 : 		_Move(_VIPTR(_Where) + 1, this->_Mylast(), _VIPTR(_Where));
; 1476 : 		_Destroy(this->_Mylast() - 1, this->_Mylast());
; 1477 : 		_Orphan_range(_VIPTR(_Where), this->_Mylast());
; 1478 : 		--this->_Mylast();
; 1479 : 		return (_Make_iter(_Where));
; 1480 : 		}
; 1481 : 
; 1482 :  #else /* _ITERATOR_DEBUG_LEVEL == 2 */
; 1483 : 	iterator erase(const_iterator _Where)
; 1484 : 		{	// erase element at where
; 1485 : 		_Move(_VIPTR(_Where) + 1, this->_Mylast(),
; 1486 : 			_VIPTR(_Where));
; 1487 : 		_Destroy(this->_Mylast() - 1, this->_Mylast());
; 1488 : 		--this->_Mylast();
; 1489 : 		return (_Make_iter(_Where));
; 1490 : 		}
; 1491 :  #endif /* _ITERATOR_DEBUG_LEVEL == 2 */
; 1492 : 
; 1493 : 	iterator erase(const_iterator _First_arg,
; 1494 : 		const_iterator _Last_arg)
; 1495 : 		{	// erase [_First, _Last)
; 1496 : 		if (_First_arg == begin() && _Last_arg == end())
; 1497 : 			clear();
; 1498 : 		else if (_First_arg != _Last_arg)
; 1499 : 			{	// clear partial
; 1500 : 			iterator _First = _Make_iter(_First_arg);
; 1501 : 			iterator _Last = _Make_iter(_Last_arg);
; 1502 : 
; 1503 : 			if (_First != _Last)
; 1504 : 				{	// worth doing, copy down over hole
; 1505 :  #if _ITERATOR_DEBUG_LEVEL == 2
; 1506 : 				if (_Last < _First || _VICONT(_First) != &this->_Get_data()
; 1507 : 					|| _VIPTR(_First) < this->_Myfirst()
; 1508 : 					|| this->_Mylast() < _VIPTR(_Last))
; 1509 : 					_DEBUG_ERROR("vector erase iterator outside range");
; 1510 : 				pointer _Ptr = _Move(_VIPTR(_Last), this->_Mylast(),
; 1511 : 					_VIPTR(_First));
; 1512 : 				_Orphan_range(_VIPTR(_First), this->_Mylast());
; 1513 : 
; 1514 :  #else /* _ITERATOR_DEBUG_LEVEL == 2 */
; 1515 : 				pointer _Ptr = _Move(_VIPTR(_Last), this->_Mylast(),
; 1516 : 					_VIPTR(_First));
; 1517 :  #endif /* _ITERATOR_DEBUG_LEVEL == 2 */
; 1518 : 
; 1519 : 				_Destroy(_Ptr, this->_Mylast());
; 1520 : 				this->_Mylast() = _Ptr;
; 1521 : 				}
; 1522 : 			}
; 1523 : 		return (_Make_iter(_First_arg));
; 1524 : 		}
; 1525 : 
; 1526 : 	void _Pop_back_n(size_type _Count)
; 1527 : 		{	// erase _Count elements at end
; 1528 : 		pointer _Ptr = this->_Mylast() - _Count;
; 1529 : 
; 1530 :  #if _ITERATOR_DEBUG_LEVEL == 2
; 1531 : 		_Orphan_range(_Ptr, this->_Mylast());
; 1532 :  #endif /* _ITERATOR_DEBUG_LEVEL == 2 */
; 1533 : 
; 1534 : 		_Destroy(_Ptr, this->_Mylast());
; 1535 : 		this->_Mylast() = _Ptr;
; 1536 : 		}
; 1537 : 
; 1538 : 	void clear() _NOEXCEPT
; 1539 : 		{	// erase all
; 1540 : 		this->_Orphan_all();
; 1541 : 		_Destroy(this->_Myfirst(), this->_Mylast());
; 1542 : 		this->_Mylast() = this->_Myfirst();
; 1543 : 		}
; 1544 : 
; 1545 : 	void swap(_Myt& _Right)
; 1546 : 		_NOEXCEPT_OP(_Alty::propagate_on_container_swap::value
; 1547 : 			|| _Alty::is_always_equal::value)
; 1548 : 		{	// exchange contents with _Right
; 1549 : 		if (this == &_Right)
; 1550 : 			;	// same object, do nothing
; 1551 : 		else if (this->_Getal() == _Right._Getal())
; 1552 : 			{	// same allocator, swap control information
; 1553 : 			this->_Swap_all(_Right);
; 1554 : 			_Swap_adl(this->_Myfirst(), _Right._Myfirst());
; 1555 : 			_Swap_adl(this->_Mylast(), _Right._Mylast());
; 1556 : 			_Swap_adl(this->_Myend(), _Right._Myend());
; 1557 : 			}
; 1558 : 
; 1559 : 		else if (_Alty::propagate_on_container_swap::value)
; 1560 : 			{	// swap allocators and control information
; 1561 : 			this->_Swap_alloc(_Right);
; 1562 : 			_Swap_adl(this->_Myfirst(), _Right._Myfirst());
; 1563 : 			_Swap_adl(this->_Mylast(), _Right._Mylast());
; 1564 : 			_Swap_adl(this->_Myend(), _Right._Myend());
; 1565 : 			}
; 1566 : 
; 1567 : 		else
; 1568 : 			{	// containers are incompatible
; 1569 :  #if _ITERATOR_DEBUG_LEVEL == 2
; 1570 : 			_DEBUG_ERROR("vector containers incompatible for swap");
; 1571 : 
; 1572 :  #else /* ITERATOR_DEBUG_LEVEL == 2 */
; 1573 : 			_XSTD terminate();
; 1574 :  #endif /* ITERATOR_DEBUG_LEVEL == 2 */
; 1575 : 			}
; 1576 : 		}
; 1577 : 
; 1578 : protected:
; 1579 : 	bool _Buy(size_type _Capacity)
; 1580 : 		{	// allocate array with _Capacity elements
; 1581 : 		this->_Myfirst() = pointer();
; 1582 : 		this->_Mylast() = pointer();
; 1583 : 		this->_Myend() = pointer();
; 1584 : 
; 1585 : 		if (_Capacity == 0)
; 1586 : 			return (false);
; 1587 : 		else if (max_size() < _Capacity)
; 1588 : 			_Xlen();	// result too long
; 1589 : 		else
; 1590 : 			{	// nonempty array, allocate storage
; 1591 : 			this->_Myfirst() = this->_Getal().allocate(_Capacity);
; 1592 : 			this->_Mylast() = this->_Myfirst();
; 1593 : 			this->_Myend() = this->_Myfirst() + _Capacity;
; 1594 : 			}
; 1595 : 		return (true);
; 1596 : 		}
; 1597 : 
; 1598 : 	void _Destroy(pointer _First, pointer _Last)
; 1599 : 		{	// destroy [_First, _Last) using allocator
; 1600 : 		_Destroy_range(_First, _Last, this->_Getal());
; 1601 : 		}
; 1602 : 
; 1603 : 	size_type _Grow_to(size_type _Count) const
; 1604 : 		{	// grow by 50% or at least to _Count
; 1605 : 		size_type _Capacity = capacity();
; 1606 : 
; 1607 : 		_Capacity = max_size() - _Capacity / 2 < _Capacity

  00061	ba 55 55 55 15	 mov	 edx, 357913941		; 15555555H
  00066	8b c6		 mov	 eax, esi
  00068	d1 e8		 shr	 eax, 1
  0006a	2b d0		 sub	 edx, eax
  0006c	3b d6		 cmp	 edx, esi
  0006e	8d 0c 30	 lea	 ecx, DWORD PTR [eax+esi]
  00071	b8 00 00 00 00	 mov	 eax, 0
  00076	0f 42 c8	 cmovb	 ecx, eax

; 1608 : 			? 0 : _Capacity + _Capacity / 2;	// try to grow by 50%
; 1609 : 		if (_Capacity < _Count)

  00079	3b cf		 cmp	 ecx, edi
  0007b	0f 42 cf	 cmovb	 ecx, edi

; 1649 : 				_Xlen();
; 1650 : 			_Reallocate(_Grow_to(size() + _Count));

  0007e	51		 push	 ecx
  0007f	8b cb		 mov	 ecx, ebx
  00081	e8 00 00 00 00	 call	 ?_Reallocate@?$vector@UItemPriceInfo@@V?$allocator@UItemPriceInfo@@@std@@@std@@IAEXI@Z ; std::vector<ItemPriceInfo,std::allocator<ItemPriceInfo> >::_Reallocate
$LN2@Reserve:
  00086	5f		 pop	 edi
  00087	5e		 pop	 esi
  00088	5b		 pop	 ebx

; 1651 : 			}
; 1652 : 		}

  00089	5d		 pop	 ebp
  0008a	c2 04 00	 ret	 4
$LN134@Reserve:

; 1653 : 
; 1654 : 	void _Tidy()
; 1655 : 		{	// free all storage
; 1656 : 		if (this->_Myfirst() != pointer())
; 1657 : 			{	// something to free, destroy and deallocate it
; 1658 : 			this->_Orphan_all();
; 1659 : 			_Destroy(this->_Myfirst(), this->_Mylast());
; 1660 : 			this->_Getal().deallocate(this->_Myfirst(),
; 1661 : 				this->_Myend() - this->_Myfirst());
; 1662 : 			this->_Myfirst() = pointer();
; 1663 : 			this->_Mylast() = pointer();
; 1664 : 			this->_Myend() = pointer();
; 1665 : 			}
; 1666 : 		}
; 1667 : 
; 1668 : 	template<class _Iter>
; 1669 : 		pointer _Ucopy(_Iter _First, _Iter _Last, pointer _Ptr)
; 1670 : 		{	// copy initializing [_First, _Last), using allocator
; 1671 : 		return (_Uninitialized_copy(_First, _Last,
; 1672 : 			_Ptr, this->_Getal()));
; 1673 : 		}
; 1674 : 
; 1675 : 	template<class _Iter>
; 1676 : 		pointer _Umove(_Iter _First, _Iter _Last, pointer _Ptr)
; 1677 : 		{	// move initializing [_First, _Last), using allocator
; 1678 : 		return (_Uninitialized_move(_First, _Last,
; 1679 : 			_Ptr, this->_Getal()));
; 1680 : 		}
; 1681 : 
; 1682 : 	iterator _Insert_n(const_iterator _Where,
; 1683 : 		size_type _Count, const value_type& _Val)
; 1684 : 		{	// insert _Count * _Val at _Where
; 1685 :  #if _ITERATOR_DEBUG_LEVEL == 2
; 1686 : 		if (_VICONT(_Where) != &this->_Get_data()
; 1687 : 			|| _VIPTR(_Where) < this->_Myfirst()
; 1688 : 			|| this->_Mylast() < _VIPTR(_Where))
; 1689 : 			_DEBUG_ERROR("vector insert iterator outside range");
; 1690 :  #endif /* _ITERATOR_DEBUG_LEVEL == 2 */
; 1691 : 
; 1692 : 		size_type _Off = _VIPTR(_Where) - this->_Myfirst();
; 1693 : 		if (_Count == 0)
; 1694 : 			;
; 1695 : 		else if (_Unused_capacity() < _Count)
; 1696 : 			{	// not enough room, reallocate
; 1697 : 			if (max_size() - size() < _Count)
; 1698 : 				_Xlen();	// result too long
; 1699 : 
; 1700 : 			size_type _Capacity = _Grow_to(size() + _Count);
; 1701 : 			pointer _Newvec = this->_Getal().allocate(_Capacity);
; 1702 : 			size_type _Whereoff = _VIPTR(_Where) - this->_Myfirst();
; 1703 : 			int _Ncopied = 0;
; 1704 : 
; 1705 : 			_TRY_BEGIN
; 1706 : 			_Ufill(_Newvec + _Whereoff, _Count,
; 1707 : 				_STD addressof(_Val));	// add new stuff
; 1708 : 			++_Ncopied;
; 1709 : 			_Umove(this->_Myfirst(), _VIPTR(_Where),
; 1710 : 				_Newvec);	// copy prefix
; 1711 : 			++_Ncopied;
; 1712 : 			_Umove(_VIPTR(_Where), this->_Mylast(),
; 1713 : 				_Newvec + (_Whereoff + _Count));	// copy suffix
; 1714 : 			_CATCH_ALL
; 1715 : 			if (1 < _Ncopied)
; 1716 : 				_Destroy(_Newvec, _Newvec + _Whereoff);
; 1717 : 			if (0 < _Ncopied)
; 1718 : 				_Destroy(_Newvec + _Whereoff, _Newvec + _Whereoff + _Count);
; 1719 : 			this->_Getal().deallocate(_Newvec, _Capacity);
; 1720 : 			_RERAISE;
; 1721 : 			_CATCH_END
; 1722 : 
; 1723 : 			_Count += size();
; 1724 : 			if (this->_Myfirst() != pointer())
; 1725 : 				{	// destroy and deallocate old array
; 1726 : 				_Destroy(this->_Myfirst(), this->_Mylast());
; 1727 : 				this->_Getal().deallocate(this->_Myfirst(),
; 1728 : 					this->_Myend() - this->_Myfirst());
; 1729 : 				}
; 1730 : 
; 1731 : 			this->_Orphan_all();
; 1732 : 			this->_Myend() = _Newvec + _Capacity;
; 1733 : 			this->_Mylast() = _Newvec + _Count;
; 1734 : 			this->_Myfirst() = _Newvec;
; 1735 : 			}
; 1736 : 		else if ((size_type)(this->_Mylast() - _VIPTR(_Where))
; 1737 : 			< _Count)
; 1738 : 			{	// new stuff spills off end
; 1739 : 			value_type _Tmp = _Val;	// in case _Val is in sequence
; 1740 : 
; 1741 : 			_Umove(_VIPTR(_Where), this->_Mylast(),
; 1742 : 				_VIPTR(_Where) + _Count);	// copy suffix
; 1743 : 
; 1744 : 			_TRY_BEGIN
; 1745 : 			_Ufill(this->_Mylast(),
; 1746 : 				_Count - (this->_Mylast() - _VIPTR(_Where)),
; 1747 : 				_STD addressof(_Tmp));	// insert new stuff off end
; 1748 : 			_CATCH_ALL
; 1749 : 			_Destroy(_VIPTR(_Where) + _Count,
; 1750 : 				this->_Mylast() + _Count);
; 1751 : 			_RERAISE;
; 1752 : 			_CATCH_END
; 1753 : 
; 1754 : 			this->_Mylast() += _Count;
; 1755 : 			_Orphan_range(_VIPTR(_Where), this->_Mylast());
; 1756 : 			_STD fill(_VIPTR(_Where), this->_Mylast() - _Count,
; 1757 : 				_Tmp);	// insert up to old end
; 1758 : 			}
; 1759 : 		else
; 1760 : 			{	// new stuff can all be assigned
; 1761 : 			value_type _Tmp = _Val;	// in case _Val is in sequence
; 1762 : 
; 1763 : 			pointer _Oldend = this->_Mylast();
; 1764 : 			this->_Mylast() = _Umove(_Oldend - _Count, _Oldend,
; 1765 : 				this->_Mylast());	// copy suffix
; 1766 : 
; 1767 : 			_Orphan_range(_VIPTR(_Where), this->_Mylast());
; 1768 : 			_Move_backward(_VIPTR(_Where), _Oldend - _Count,
; 1769 : 				_Oldend);	// copy hole
; 1770 : 			_STD fill(_VIPTR(_Where),
; 1771 : 				_VIPTR(_Where) + _Count, _Tmp);	// insert into hole
; 1772 : 			}
; 1773 : 		return (begin() + _Off);
; 1774 : 		}
; 1775 : 
; 1776 : 	pointer _Ufill(pointer _Ptr, size_type _Count, const value_type *_Pval)
; 1777 : 		{	// copy initializing _Count * _Val, using allocator
; 1778 : 		_Uninitialized_fill_n(_Ptr, _Count, _Pval, this->_Getal());
; 1779 : 		return (_Ptr + _Count);
; 1780 : 		}
; 1781 : 
; 1782 : 	[[noreturn]] void _Xlen() const
; 1783 : 		{	// report a length_error
; 1784 : 		_Xlength_error("vector<T> too long");

  0008d	68 00 00 00 00	 push	 OFFSET ??_C@_0BD@OLBABOEK@vector?$DMT?$DO?5too?5long?$AA@
  00092	e8 00 00 00 00	 call	 ?_Xlength_error@std@@YAXPBD@Z ; std::_Xlength_error
$LN136@Reserve:
$LN133@Reserve:
  00097	cc		 int	 3
?_Reserve@?$vector@UItemPriceInfo@@V?$allocator@UItemPriceInfo@@@std@@@std@@IAEXI@Z ENDP ; std::vector<ItemPriceInfo,std::allocator<ItemPriceInfo> >::_Reserve
_TEXT	ENDS
; Function compile flags: /Ogtp
; File c:\program files (x86)\microsoft visual studio 14.0\vc\include\vector
; File c:\program files (x86)\microsoft visual studio 14.0\vc\include\xmemory0
; File c:\program files (x86)\microsoft visual studio 14.0\vc\include\xmemory
; File c:\program files (x86)\microsoft visual studio 14.0\vc\include\vector
; File c:\program files (x86)\microsoft visual studio 14.0\vc\include\xmemory
; File c:\program files (x86)\microsoft visual studio 14.0\vc\include\vector
; File c:\program files (x86)\microsoft visual studio 14.0\vc\include\xmemory
; File c:\program files (x86)\microsoft visual studio 14.0\vc\include\vector
; File c:\program files (x86)\microsoft visual studio 14.0\vc\include\xmemory
; File c:\program files (x86)\microsoft visual studio 14.0\vc\include\vector
; File c:\program files (x86)\microsoft visual studio 14.0\vc\include\xmemory0
; File c:\program files (x86)\microsoft visual studio 14.0\vc\include\vector
; File c:\program files (x86)\microsoft visual studio 14.0\vc\include\xmemory0
; File c:\program files (x86)\microsoft visual studio 14.0\vc\include\vector
; File c:\program files (x86)\microsoft visual studio 14.0\vc\include\xmemory0
; File c:\program files (x86)\microsoft visual studio 14.0\vc\include\vector
;	COMDAT ?_Reallocate@?$vector@UItemPriceInfo@@V?$allocator@UItemPriceInfo@@@std@@@std@@IAEXI@Z
_TEXT	SEGMENT
_this$ = -24						; size = 4
__Ptr$ = -20						; size = 4
__$EHRec$ = -16						; size = 16
__Cat$2 = 8						; size = 1
__Count$ = 8						; size = 4
?_Reallocate@?$vector@UItemPriceInfo@@V?$allocator@UItemPriceInfo@@@std@@@std@@IAEXI@Z PROC ; std::vector<ItemPriceInfo,std::allocator<ItemPriceInfo> >::_Reallocate, COMDAT
; _this$ = ecx

; 1620 : 		{	// move to array of exactly _Count elements

  00000	55		 push	 ebp
  00001	8b ec		 mov	 ebp, esp
  00003	6a ff		 push	 -1
  00005	68 00 00 00 00	 push	 __ehhandler$?_Reallocate@?$vector@UItemPriceInfo@@V?$allocator@UItemPriceInfo@@@std@@@std@@IAEXI@Z
  0000a	64 a1 00 00 00
	00		 mov	 eax, DWORD PTR fs:0
  00010	50		 push	 eax
  00011	83 ec 0c	 sub	 esp, 12			; 0000000cH
  00014	53		 push	 ebx
  00015	56		 push	 esi
  00016	57		 push	 edi
  00017	a1 00 00 00 00	 mov	 eax, DWORD PTR ___security_cookie
  0001c	33 c5		 xor	 eax, ebp
  0001e	50		 push	 eax
  0001f	8d 45 f4	 lea	 eax, DWORD PTR __$EHRec$[ebp+4]
  00022	64 a3 00 00 00
	00		 mov	 DWORD PTR fs:0, eax
  00028	89 65 f0	 mov	 DWORD PTR __$EHRec$[ebp], esp
  0002b	8b f1		 mov	 esi, ecx
  0002d	89 75 e8	 mov	 DWORD PTR _this$[ebp], esi
; File c:\program files (x86)\microsoft visual studio 14.0\vc\include\xmemory0

; 898  : 		return (_Mybase::allocate(_Count));

  00030	ff 75 08	 push	 DWORD PTR __Count$[ebp]
  00033	e8 00 00 00 00	 call	 ?allocate@?$allocator@UItemPriceInfo@@@std@@QAEPAUItemPriceInfo@@I@Z ; std::allocator<ItemPriceInfo>::allocate
; File c:\program files (x86)\microsoft visual studio 14.0\vc\include\xmemory

; 481  : 	return (_Uninit_move(_First, _Last, _Dest, _Al,

  00038	ff 75 08	 push	 DWORD PTR __Cat$2[ebp]
; File c:\program files (x86)\microsoft visual studio 14.0\vc\include\vector

; 1621 : 		pointer _Ptr = this->_Getal().allocate(_Count);

  0003b	8b f8		 mov	 edi, eax

; 1622 : 
; 1623 : 		_TRY_BEGIN

  0003d	c7 45 fc 00 00
	00 00		 mov	 DWORD PTR __$EHRec$[ebp+12], 0
; File c:\program files (x86)\microsoft visual studio 14.0\vc\include\xmemory

; 481  : 	return (_Uninit_move(_First, _Last, _Dest, _Al,

  00044	6a 00		 push	 0
  00046	56		 push	 esi
  00047	57		 push	 edi
  00048	ff 76 04	 push	 DWORD PTR [esi+4]
; File c:\program files (x86)\microsoft visual studio 14.0\vc\include\vector

; 1621 : 		pointer _Ptr = this->_Getal().allocate(_Count);

  0004b	89 7d ec	 mov	 DWORD PTR __Ptr$[ebp], edi
; File c:\program files (x86)\microsoft visual studio 14.0\vc\include\xmemory

; 481  : 	return (_Uninit_move(_First, _Last, _Dest, _Al,

  0004e	ff 36		 push	 DWORD PTR [esi]
  00050	e8 00 00 00 00	 call	 ??$_Uninit_move@PAUItemPriceInfo@@PAU1@V?$allocator@UItemPriceInfo@@@std@@U1@@std@@YAPAUItemPriceInfo@@PAU1@00AAU?$_Wrap_alloc@V?$allocator@UItemPriceInfo@@@std@@@0@0U_Nonscalar_ptr_iterator_tag@0@@Z ; std::_Uninit_move<ItemPriceInfo *,ItemPriceInfo *,std::allocator<ItemPriceInfo>,ItemPriceInfo>
; File c:\program files (x86)\microsoft visual studio 14.0\vc\include\vector

; 1179 : 		return (this->_Mylast() - this->_Myfirst());

  00055	8b 4e 04	 mov	 ecx, DWORD PTR [esi+4]
  00058	b8 ab aa aa 2a	 mov	 eax, 715827883		; 2aaaaaabH
  0005d	2b 0e		 sub	 ecx, DWORD PTR [esi]
; File c:\program files (x86)\microsoft visual studio 14.0\vc\include\xmemory

; 481  : 	return (_Uninit_move(_First, _Last, _Dest, _Al,

  0005f	83 c4 18	 add	 esp, 24			; 00000018H
; File c:\program files (x86)\microsoft visual studio 14.0\vc\include\vector

; 1179 : 		return (this->_Mylast() - this->_Myfirst());

  00062	f7 e9		 imul	 ecx

; 1628 : 		_CATCH_END
; 1629 : 
; 1630 : 		size_type _Size = size();
; 1631 : 		if (this->_Myfirst() != pointer())

  00064	8b 06		 mov	 eax, DWORD PTR [esi]

; 1179 : 		return (this->_Mylast() - this->_Myfirst());

  00066	d1 fa		 sar	 edx, 1
  00068	8b da		 mov	 ebx, edx
  0006a	c1 eb 1f	 shr	 ebx, 31			; 0000001fH
  0006d	03 da		 add	 ebx, edx

; 1628 : 		_CATCH_END
; 1629 : 
; 1630 : 		size_type _Size = size();
; 1631 : 		if (this->_Myfirst() != pointer())

  0006f	85 c0		 test	 eax, eax
  00071	74 1f		 je	 SHORT $LN3@Reallocate

; 1634 : 			this->_Getal().deallocate(this->_Myfirst(),

  00073	8b 4e 08	 mov	 ecx, DWORD PTR [esi+8]
  00076	2b c8		 sub	 ecx, eax
  00078	b8 ab aa aa 2a	 mov	 eax, 715827883		; 2aaaaaabH
  0007d	f7 e9		 imul	 ecx
; File c:\program files (x86)\microsoft visual studio 14.0\vc\include\xmemory0

; 909  : 		_Mybase::deallocate(_Ptr, _Count);

  0007f	8b ce		 mov	 ecx, esi
; File c:\program files (x86)\microsoft visual studio 14.0\vc\include\vector

; 1634 : 			this->_Getal().deallocate(this->_Myfirst(),

  00081	d1 fa		 sar	 edx, 1
  00083	8b c2		 mov	 eax, edx
  00085	c1 e8 1f	 shr	 eax, 31			; 0000001fH
  00088	03 c2		 add	 eax, edx
; File c:\program files (x86)\microsoft visual studio 14.0\vc\include\xmemory0

; 909  : 		_Mybase::deallocate(_Ptr, _Count);

  0008a	50		 push	 eax
  0008b	ff 36		 push	 DWORD PTR [esi]
  0008d	e8 00 00 00 00	 call	 ?deallocate@?$allocator@UItemPriceInfo@@@std@@QAEXPAUItemPriceInfo@@I@Z ; std::allocator<ItemPriceInfo>::deallocate
$LN3@Reallocate:
; File c:\program files (x86)\microsoft visual studio 14.0\vc\include\vector

; 1639 : 		this->_Myend() = _Ptr + _Count;

  00092	8b 45 08	 mov	 eax, DWORD PTR __Count$[ebp]
  00095	8d 04 40	 lea	 eax, DWORD PTR [eax+eax*2]
  00098	8d 04 87	 lea	 eax, DWORD PTR [edi+eax*4]
  0009b	89 46 08	 mov	 DWORD PTR [esi+8], eax

; 1640 : 		this->_Mylast() = _Ptr + _Size;

  0009e	8d 04 5b	 lea	 eax, DWORD PTR [ebx+ebx*2]
  000a1	8d 04 87	 lea	 eax, DWORD PTR [edi+eax*4]
  000a4	89 46 04	 mov	 DWORD PTR [esi+4], eax

; 1641 : 		this->_Myfirst() = _Ptr;

  000a7	89 3e		 mov	 DWORD PTR [esi], edi

; 1642 : 		}

  000a9	8b 4d f4	 mov	 ecx, DWORD PTR __$EHRec$[ebp+4]
  000ac	64 89 0d 00 00
	00 00		 mov	 DWORD PTR fs:0, ecx
  000b3	59		 pop	 ecx
  000b4	5f		 pop	 edi
  000b5	5e		 pop	 esi
  000b6	5b		 pop	 ebx
  000b7	8b e5		 mov	 esp, ebp
  000b9	5d		 pop	 ebp
  000ba	c2 04 00	 ret	 4
__catch$?_Reallocate@?$vector@UItemPriceInfo@@V?$allocator@UItemPriceInfo@@@std@@@std@@IAEXI@Z$0:
; File c:\program files (x86)\microsoft visual studio 14.0\vc\include\xmemory0

; 909  : 		_Mybase::deallocate(_Ptr, _Count);

  000bd	ff 75 08	 push	 DWORD PTR __Count$[ebp]
  000c0	8b 4d e8	 mov	 ecx, DWORD PTR _this$[ebp]
  000c3	ff 75 ec	 push	 DWORD PTR __Ptr$[ebp]
  000c6	e8 00 00 00 00	 call	 ?deallocate@?$allocator@UItemPriceInfo@@@std@@QAEXPAUItemPriceInfo@@I@Z ; std::allocator<ItemPriceInfo>::deallocate
; File c:\program files (x86)\microsoft visual studio 14.0\vc\include\vector

; 1627 : 		_RERAISE;

  000cb	6a 00		 push	 0
  000cd	6a 00		 push	 0
  000cf	e8 00 00 00 00	 call	 __CxxThrowException@8
$LN179@Reallocate:
$LN178@Reallocate:
  000d4	cc		 int	 3
_TEXT	ENDS
;	COMDAT text$x
text$x	SEGMENT
__ehhandler$?_Reallocate@?$vector@UItemPriceInfo@@V?$allocator@UItemPriceInfo@@@std@@@std@@IAEXI@Z:
  00000	8b 54 24 08	 mov	 edx, DWORD PTR [esp+8]
  00004	8d 42 0c	 lea	 eax, DWORD PTR [edx+12]
  00007	8b 4a e4	 mov	 ecx, DWORD PTR [edx-28]
  0000a	33 c8		 xor	 ecx, eax
  0000c	e8 00 00 00 00	 call	 @__security_check_cookie@4
  00011	b8 00 00 00 00	 mov	 eax, OFFSET __ehfuncinfo$?_Reallocate@?$vector@UItemPriceInfo@@V?$allocator@UItemPriceInfo@@@std@@@std@@IAEXI@Z
  00016	e9 00 00 00 00	 jmp	 ___CxxFrameHandler3
text$x	ENDS
?_Reallocate@?$vector@UItemPriceInfo@@V?$allocator@UItemPriceInfo@@@std@@@std@@IAEXI@Z ENDP ; std::vector<ItemPriceInfo,std::allocator<ItemPriceInfo> >::_Reallocate
; Function compile flags: /Ogtp
; File c:\program files (x86)\microsoft visual studio 14.0\vc\include\vector
;	COMDAT ?_Inside@?$vector@UItemPriceInfo@@V?$allocator@UItemPriceInfo@@@std@@@std@@IBE_NPBUItemPriceInfo@@@Z
_TEXT	SEGMENT
__Ptr$ = 8						; size = 4
?_Inside@?$vector@UItemPriceInfo@@V?$allocator@UItemPriceInfo@@@std@@@std@@IBE_NPBUItemPriceInfo@@@Z PROC ; std::vector<ItemPriceInfo,std::allocator<ItemPriceInfo> >::_Inside, COMDAT
; _this$ = ecx

; 1615 : 		{	// test if _Ptr points inside vector

  00000	55		 push	 ebp
  00001	8b ec		 mov	 ebp, esp

; 1616 : 		return (_Ptr < this->_Mylast() && this->_Myfirst() <= _Ptr);

  00003	8b 45 08	 mov	 eax, DWORD PTR __Ptr$[ebp]
  00006	3b 41 04	 cmp	 eax, DWORD PTR [ecx+4]
  00009	73 0a		 jae	 SHORT $LN3@Inside
  0000b	39 01		 cmp	 DWORD PTR [ecx], eax
  0000d	77 06		 ja	 SHORT $LN3@Inside
  0000f	b0 01		 mov	 al, 1

; 1617 : 		}

  00011	5d		 pop	 ebp
  00012	c2 04 00	 ret	 4
$LN3@Inside:

; 1616 : 		return (_Ptr < this->_Mylast() && this->_Myfirst() <= _Ptr);

  00015	32 c0		 xor	 al, al

; 1617 : 		}

  00017	5d		 pop	 ebp
  00018	c2 04 00	 ret	 4
?_Inside@?$vector@UItemPriceInfo@@V?$allocator@UItemPriceInfo@@@std@@@std@@IBE_NPBUItemPriceInfo@@@Z ENDP ; std::vector<ItemPriceInfo,std::allocator<ItemPriceInfo> >::_Inside
_TEXT	ENDS
; Function compile flags: /Ogtp
; File c:\program files (x86)\microsoft visual studio 14.0\vc\include\vector
;	COMDAT ?_Grow_to@?$vector@UItemPriceInfo@@V?$allocator@UItemPriceInfo@@@std@@@std@@IBEII@Z
_TEXT	SEGMENT
__Count$ = 8						; size = 4
?_Grow_to@?$vector@UItemPriceInfo@@V?$allocator@UItemPriceInfo@@@std@@@std@@IBEII@Z PROC ; std::vector<ItemPriceInfo,std::allocator<ItemPriceInfo> >::_Grow_to, COMDAT
; _this$ = ecx

; 1604 : 		{	// grow by 50% or at least to _Count

  00000	55		 push	 ebp
  00001	8b ec		 mov	 ebp, esp

; 1042 : 		return (this->_Myend() - this->_Myfirst());

  00003	8b 51 08	 mov	 edx, DWORD PTR [ecx+8]
  00006	b8 ab aa aa 2a	 mov	 eax, 715827883		; 2aaaaaabH
  0000b	2b 11		 sub	 edx, DWORD PTR [ecx]

; 1605 : 		size_type _Capacity = capacity();
; 1606 : 
; 1607 : 		_Capacity = max_size() - _Capacity / 2 < _Capacity

  0000d	b9 55 55 55 15	 mov	 ecx, 357913941		; 15555555H

; 1042 : 		return (this->_Myend() - this->_Myfirst());

  00012	f7 ea		 imul	 edx
  00014	56		 push	 esi
  00015	d1 fa		 sar	 edx, 1
  00017	8b f2		 mov	 esi, edx
  00019	c1 ee 1f	 shr	 esi, 31			; 0000001fH
  0001c	03 f2		 add	 esi, edx

; 1605 : 		size_type _Capacity = capacity();
; 1606 : 
; 1607 : 		_Capacity = max_size() - _Capacity / 2 < _Capacity

  0001e	8b c6		 mov	 eax, esi
  00020	d1 e8		 shr	 eax, 1
  00022	57		 push	 edi
  00023	2b c8		 sub	 ecx, eax
  00025	33 ff		 xor	 edi, edi
  00027	3b ce		 cmp	 ecx, esi
  00029	8d 14 30	 lea	 edx, DWORD PTR [eax+esi]
  0002c	0f 42 d7	 cmovb	 edx, edi

; 1608 : 			? 0 : _Capacity + _Capacity / 2;	// try to grow by 50%
; 1609 : 		if (_Capacity < _Count)

  0002f	3b 55 08	 cmp	 edx, DWORD PTR __Count$[ebp]
  00032	5f		 pop	 edi
  00033	0f 42 55 08	 cmovb	 edx, DWORD PTR __Count$[ebp]

; 1610 : 			_Capacity = _Count;
; 1611 : 		return (_Capacity);

  00037	8b c2		 mov	 eax, edx
  00039	5e		 pop	 esi

; 1612 : 		}

  0003a	5d		 pop	 ebp
  0003b	c2 04 00	 ret	 4
?_Grow_to@?$vector@UItemPriceInfo@@V?$allocator@UItemPriceInfo@@@std@@@std@@IBEII@Z ENDP ; std::vector<ItemPriceInfo,std::allocator<ItemPriceInfo> >::_Grow_to
_TEXT	ENDS
; Function compile flags: /Ogtp
; File c:\program files (x86)\microsoft visual studio 14.0\vc\include\vector
;	COMDAT ?_Destroy@?$vector@UItemPriceInfo@@V?$allocator@UItemPriceInfo@@@std@@@std@@IAEXPAUItemPriceInfo@@0@Z
_TEXT	SEGMENT
__First$ = 8						; size = 4
__Last$ = 12						; size = 4
?_Destroy@?$vector@UItemPriceInfo@@V?$allocator@UItemPriceInfo@@@std@@@std@@IAEXPAUItemPriceInfo@@0@Z PROC ; std::vector<ItemPriceInfo,std::allocator<ItemPriceInfo> >::_Destroy, COMDAT
; _this$ = ecx

; 1600 : 		_Destroy_range(_First, _Last, this->_Getal());
; 1601 : 		}

  00000	c2 08 00	 ret	 8
?_Destroy@?$vector@UItemPriceInfo@@V?$allocator@UItemPriceInfo@@@std@@@std@@IAEXPAUItemPriceInfo@@0@Z ENDP ; std::vector<ItemPriceInfo,std::allocator<ItemPriceInfo> >::_Destroy
_TEXT	ENDS
; Function compile flags: /Ogtp
; File c:\program files (x86)\microsoft visual studio 14.0\vc\include\vector
; File c:\program files (x86)\microsoft visual studio 14.0\vc\include\utility
; File c:\program files (x86)\microsoft visual studio 14.0\vc\include\vector
;	COMDAT ?swap@?$vector@UItemPriceInfo@@V?$allocator@UItemPriceInfo@@@std@@@std@@QAEXAAV12@@Z
_TEXT	SEGMENT
__Right$ = 8						; size = 4
?swap@?$vector@UItemPriceInfo@@V?$allocator@UItemPriceInfo@@@std@@@std@@QAEXAAV12@@Z PROC ; std::vector<ItemPriceInfo,std::allocator<ItemPriceInfo> >::swap, COMDAT
; _this$ = ecx

; 1548 : 		{	// exchange contents with _Right

  00000	55		 push	 ebp
  00001	8b ec		 mov	 ebp, esp
  00003	56		 push	 esi
  00004	57		 push	 edi

; 1549 : 		if (this == &_Right)

  00005	8b 7d 08	 mov	 edi, DWORD PTR __Right$[ebp]
  00008	8b f1		 mov	 esi, ecx
  0000a	3b f7		 cmp	 esi, edi
  0000c	74 20		 je	 SHORT $LN7@swap
; File c:\program files (x86)\microsoft visual studio 14.0\vc\include\utility

; 53   : 	_Left = _Move(_Right);

  0000e	8b 07		 mov	 eax, DWORD PTR [edi]
  00010	8b 16		 mov	 edx, DWORD PTR [esi]
  00012	89 06		 mov	 DWORD PTR [esi], eax

; 54   : 	_Right = _Move(_Tmp);

  00014	89 17		 mov	 DWORD PTR [edi], edx

; 52   : 	_Ty _Tmp = _Move(_Left);

  00016	8b 4e 04	 mov	 ecx, DWORD PTR [esi+4]

; 53   : 	_Left = _Move(_Right);

  00019	8b 47 04	 mov	 eax, DWORD PTR [edi+4]
  0001c	89 46 04	 mov	 DWORD PTR [esi+4], eax

; 54   : 	_Right = _Move(_Tmp);

  0001f	89 4f 04	 mov	 DWORD PTR [edi+4], ecx

; 52   : 	_Ty _Tmp = _Move(_Left);

  00022	8b 4e 08	 mov	 ecx, DWORD PTR [esi+8]

; 53   : 	_Left = _Move(_Right);

  00025	8b 47 08	 mov	 eax, DWORD PTR [edi+8]
  00028	89 46 08	 mov	 DWORD PTR [esi+8], eax

; 54   : 	_Right = _Move(_Tmp);

  0002b	89 4f 08	 mov	 DWORD PTR [edi+8], ecx
$LN7@swap:
  0002e	5f		 pop	 edi
  0002f	5e		 pop	 esi
; File c:\program files (x86)\microsoft visual studio 14.0\vc\include\vector

; 1576 : 		}

  00030	5d		 pop	 ebp
  00031	c2 04 00	 ret	 4
?swap@?$vector@UItemPriceInfo@@V?$allocator@UItemPriceInfo@@@std@@@std@@QAEXAAV12@@Z ENDP ; std::vector<ItemPriceInfo,std::allocator<ItemPriceInfo> >::swap
_TEXT	ENDS
; Function compile flags: /Ogtp
; File c:\program files (x86)\microsoft visual studio 14.0\vc\include\vector
;	COMDAT ?clear@?$vector@UItemPriceInfo@@V?$allocator@UItemPriceInfo@@@std@@@std@@QAEXXZ
_TEXT	SEGMENT
?clear@?$vector@UItemPriceInfo@@V?$allocator@UItemPriceInfo@@@std@@@std@@QAEXXZ PROC ; std::vector<ItemPriceInfo,std::allocator<ItemPriceInfo> >::clear, COMDAT
; _this$ = ecx

; 1540 : 		this->_Orphan_all();
; 1541 : 		_Destroy(this->_Myfirst(), this->_Mylast());
; 1542 : 		this->_Mylast() = this->_Myfirst();

  00000	8b 01		 mov	 eax, DWORD PTR [ecx]
  00002	89 41 04	 mov	 DWORD PTR [ecx+4], eax

; 1543 : 		}

  00005	c3		 ret	 0
?clear@?$vector@UItemPriceInfo@@V?$allocator@UItemPriceInfo@@@std@@@std@@QAEXXZ ENDP ; std::vector<ItemPriceInfo,std::allocator<ItemPriceInfo> >::clear
_TEXT	ENDS
; Function compile flags: /Ogtp
; File c:\program files (x86)\microsoft visual studio 14.0\vc\include\vector
; File c:\program files (x86)\microsoft visual studio 14.0\vc\include\xmemory0
; File c:\program files (x86)\microsoft visual studio 14.0\vc\include\vector
; File c:\program files (x86)\microsoft visual studio 14.0\vc\include\xmemory0
; File c:\program files (x86)\microsoft visual studio 14.0\vc\include\vector
; File c:\program files (x86)\microsoft visual studio 14.0\vc\include\xmemory0
; File c:\program files (x86)\microsoft visual studio 14.0\vc\include\vector
;	COMDAT ?push_back@?$vector@UItemPriceInfo@@V?$allocator@UItemPriceInfo@@@std@@@std@@QAEXABUItemPriceInfo@@@Z
_TEXT	SEGMENT
__Val$ = 8						; size = 4
?push_back@?$vector@UItemPriceInfo@@V?$allocator@UItemPriceInfo@@@std@@@std@@QAEXABUItemPriceInfo@@@Z PROC ; std::vector<ItemPriceInfo,std::allocator<ItemPriceInfo> >::push_back, COMDAT
; _this$ = ecx

; 1274 : 		{	// insert element at end

  00000	55		 push	 ebp
  00001	8b ec		 mov	 ebp, esp
  00003	56		 push	 esi
  00004	8b f1		 mov	 esi, ecx
  00006	57		 push	 edi

; 1295 : 
; 1296 :  #if _ITERATOR_DEBUG_LEVEL == 2
; 1297 : 	void pop_back()
; 1298 : 		{	// erase element at end
; 1299 : 		if (empty())
; 1300 : 			_DEBUG_ERROR("vector empty before pop");
; 1301 : 		else
; 1302 : 			{	// erase last element
; 1303 : 			_Orphan_range(this->_Mylast() - 1, this->_Mylast());
; 1304 : 			this->_Getal().destroy(this->_Mylast() - 1);
; 1305 : 			--this->_Mylast();
; 1306 : 			}
; 1307 : 		}
; 1308 : 
; 1309 :  #else /* _ITERATOR_DEBUG_LEVEL == 2 */
; 1310 : 	void pop_back()
; 1311 : 		{	// erase element at end
; 1312 : 		this->_Getal().destroy(this->_Mylast() - 1);
; 1313 : 		--this->_Mylast();
; 1314 : 		}
; 1315 :  #endif /* _ITERATOR_DEBUG_LEVEL == 2 */
; 1316 : 
; 1317 : 	template<class _Iter>
; 1318 : 		typename enable_if<_Is_iterator<_Iter>::value,
; 1319 : 			void>::type
; 1320 : 		assign(_Iter _First, _Iter _Last)
; 1321 : 		{	// assign [_First, _Last)
; 1322 : 		clear();
; 1323 : 		_Assign(_First, _Last, _Iter_cat(_First));
; 1324 : 		}
; 1325 : 
; 1326 : 	template<class _Iter>
; 1327 : 		void _Assign(_Iter _First, _Iter _Last,
; 1328 : 			input_iterator_tag)
; 1329 : 		{	// assign [_First, _Last), input iterators
; 1330 : 		for (; _First != _Last; ++_First)
; 1331 : 			emplace_back(*_First);
; 1332 : 		}
; 1333 : 
; 1334 : 	template<class _Iter>
; 1335 : 		void _Assign(_Iter _First, _Iter _Last,
; 1336 : 			forward_iterator_tag)
; 1337 : 		{	// assign [_First, _Last), forward iterators
; 1338 : 		size_type _Newsize = _STD distance(_First, _Last);
; 1339 : 
; 1340 : 		if (capacity() < _Newsize)
; 1341 : 			{	// need more room, try to get it
; 1342 : 			size_type _Newcapacity = _Grow_to(_Newsize);
; 1343 : 			_Tidy();
; 1344 : 			_Buy(_Newcapacity);
; 1345 : 			}
; 1346 : 
; 1347 : 		this->_Mylast() = _Ucopy(_First, _Last, this->_Myfirst());
; 1348 : 		}
; 1349 : 
; 1350 : 	void assign(size_type _Count, const value_type& _Val)
; 1351 : 		{	// assign _Count * _Val
; 1352 : 		clear();
; 1353 : 		insert(begin(), _Count, _Val);
; 1354 : 		}
; 1355 : 
; 1356 : 	iterator insert(const_iterator _Where, const _Ty& _Val)
; 1357 : 		{	// insert _Val at _Where
; 1358 : 		return (_Insert_n(_Where, (size_type)1, _Val));
; 1359 : 		}
; 1360 : 
; 1361 : 	iterator insert(const_iterator _Where, size_type _Count,
; 1362 : 		const _Ty& _Val)
; 1363 : 		{	// insert _Count * _Val at _Where
; 1364 : 		return (_Insert_n(_Where, _Count, _Val));
; 1365 : 		}
; 1366 : 
; 1367 : 	template<class _Iter>
; 1368 : 		typename enable_if<_Is_iterator<_Iter>::value,
; 1369 : 			iterator>::type
; 1370 : 		insert(const_iterator _Where, _Iter _First, _Iter _Last)
; 1371 : 		{	// insert [_First, _Last) at _Where
; 1372 : 		size_type _Off = _VIPTR(_Where) - this->_Myfirst();
; 1373 : 		_Insert(_Where, _First, _Last, _Iter_cat(_First));
; 1374 : 		return (begin() + _Off);
; 1375 : 		}
; 1376 : 
; 1377 : 	template<class _Iter>
; 1378 : 		void _Insert(const_iterator _Where,
; 1379 : 			_Iter _First, _Iter _Last,
; 1380 : 				input_iterator_tag)
; 1381 : 		{	// insert [_First, _Last) at _Where, input iterators
; 1382 : 		size_type _Off = _VIPTR(_Where) - this->_Myfirst();
; 1383 : 
; 1384 :  #if _ITERATOR_DEBUG_LEVEL == 2
; 1385 : 		if (size() < _Off)
; 1386 : 			_DEBUG_ERROR("vector insert iterator outside range");
; 1387 :  #endif /* _ITERATOR_DEBUG_LEVEL == 2 */
; 1388 : 
; 1389 : 		if (_First != _Last)
; 1390 : 			{	// worth doing, gather at end and rotate into place
; 1391 : 			size_type _Oldsize = size();
; 1392 : 
; 1393 : 			_TRY_BEGIN
; 1394 : 			for (; _First != _Last; ++_First)
; 1395 : 				push_back(*_First);	// append
; 1396 : 
; 1397 : 			_CATCH_ALL
; 1398 : 			erase(begin() + _Oldsize, end());
; 1399 : 			_RERAISE;
; 1400 : 			_CATCH_END
; 1401 : 
; 1402 : 			_STD rotate(begin() + _Off, begin() + _Oldsize, end());
; 1403 : 			}
; 1404 : 		}
; 1405 : 
; 1406 : 	template<class _Iter>
; 1407 : 		void _Insert(const_iterator _Where,
; 1408 : 			_Iter _First, _Iter _Last,
; 1409 : 				forward_iterator_tag)
; 1410 : 		{	// insert [_First, _Last) at _Where, forward iterators
; 1411 :  #if _ITERATOR_DEBUG_LEVEL == 2
; 1412 : 		if (_VICONT(_Where) != &this->_Get_data()
; 1413 : 			|| _VIPTR(_Where) < this->_Myfirst()
; 1414 : 			|| this->_Mylast() < _VIPTR(_Where))
; 1415 : 			_DEBUG_ERROR("vector insert iterator outside range");
; 1416 : 		_DEBUG_RANGE(_First, _Last);
; 1417 :  #endif /* _ITERATOR_DEBUG_LEVEL == 2 */
; 1418 : 
; 1419 : 		size_type _Count = 0;
; 1420 : 		_Distance(_First, _Last, _Count);
; 1421 : 
; 1422 : 		if (_Count == 0)
; 1423 : 			;
; 1424 : 		else if (_Unused_capacity() < _Count)
; 1425 : 			{	// not enough room, reallocate
; 1426 : 			if (max_size() - size() < _Count)
; 1427 : 				_Xlen();	// result too long
; 1428 : 
; 1429 : 			size_type _Capacity = _Grow_to(size() + _Count);
; 1430 : 			pointer _Newvec = this->_Getal().allocate(_Capacity);
; 1431 : 			pointer _Ptr = _Newvec;
; 1432 : 
; 1433 : 			_TRY_BEGIN
; 1434 : 			_Ptr = _Umove(this->_Myfirst(), _VIPTR(_Where),
; 1435 : 				_Newvec);	// copy prefix
; 1436 : 			_Ptr = _Ucopy(_First, _Last, _Ptr);	// add new stuff
; 1437 : 			_Umove(_VIPTR(_Where), this->_Mylast(),
; 1438 : 				_Ptr);	// copy suffix
; 1439 : 			_CATCH_ALL
; 1440 : 			_Destroy(_Newvec, _Ptr);
; 1441 : 			this->_Getal().deallocate(_Newvec, _Capacity);
; 1442 : 			_RERAISE;
; 1443 : 			_CATCH_END
; 1444 : 
; 1445 : 			_Count += size();
; 1446 : 			if (this->_Myfirst() != pointer())
; 1447 : 				{	// destroy and deallocate old array
; 1448 : 				_Destroy(this->_Myfirst(), this->_Mylast());
; 1449 : 				this->_Getal().deallocate(this->_Myfirst(),
; 1450 : 					this->_Myend() - this->_Myfirst());
; 1451 : 				}
; 1452 : 
; 1453 : 			this->_Orphan_all();
; 1454 : 			this->_Myend() = _Newvec + _Capacity;
; 1455 : 			this->_Mylast() = _Newvec + _Count;
; 1456 : 			this->_Myfirst() = _Newvec;
; 1457 : 			}
; 1458 : 		else
; 1459 : 			{	// new stuff fits, append and rotate into place
; 1460 : 			_Ucopy(_First, _Last, this->_Mylast());
; 1461 : 			_STD rotate(_VIPTR(_Where), this->_Mylast(),
; 1462 : 				this->_Mylast() + _Count);
; 1463 : 			this->_Mylast() += _Count;
; 1464 : 			_Orphan_range(_VIPTR(_Where), this->_Mylast());
; 1465 : 			}
; 1466 : 		}
; 1467 : 
; 1468 :  #if _ITERATOR_DEBUG_LEVEL == 2
; 1469 : 	iterator erase(const_iterator _Where)
; 1470 : 		{	// erase element at where
; 1471 : 		if (_VICONT(_Where) != &this->_Get_data()
; 1472 : 			|| _VIPTR(_Where) < this->_Myfirst()
; 1473 : 			|| this->_Mylast() <= _VIPTR(_Where))
; 1474 : 			_DEBUG_ERROR("vector erase iterator outside range");
; 1475 : 		_Move(_VIPTR(_Where) + 1, this->_Mylast(), _VIPTR(_Where));
; 1476 : 		_Destroy(this->_Mylast() - 1, this->_Mylast());
; 1477 : 		_Orphan_range(_VIPTR(_Where), this->_Mylast());
; 1478 : 		--this->_Mylast();
; 1479 : 		return (_Make_iter(_Where));
; 1480 : 		}
; 1481 : 
; 1482 :  #else /* _ITERATOR_DEBUG_LEVEL == 2 */
; 1483 : 	iterator erase(const_iterator _Where)
; 1484 : 		{	// erase element at where
; 1485 : 		_Move(_VIPTR(_Where) + 1, this->_Mylast(),
; 1486 : 			_VIPTR(_Where));
; 1487 : 		_Destroy(this->_Mylast() - 1, this->_Mylast());
; 1488 : 		--this->_Mylast();
; 1489 : 		return (_Make_iter(_Where));
; 1490 : 		}
; 1491 :  #endif /* _ITERATOR_DEBUG_LEVEL == 2 */
; 1492 : 
; 1493 : 	iterator erase(const_iterator _First_arg,
; 1494 : 		const_iterator _Last_arg)
; 1495 : 		{	// erase [_First, _Last)
; 1496 : 		if (_First_arg == begin() && _Last_arg == end())
; 1497 : 			clear();
; 1498 : 		else if (_First_arg != _Last_arg)
; 1499 : 			{	// clear partial
; 1500 : 			iterator _First = _Make_iter(_First_arg);
; 1501 : 			iterator _Last = _Make_iter(_Last_arg);
; 1502 : 
; 1503 : 			if (_First != _Last)
; 1504 : 				{	// worth doing, copy down over hole
; 1505 :  #if _ITERATOR_DEBUG_LEVEL == 2
; 1506 : 				if (_Last < _First || _VICONT(_First) != &this->_Get_data()
; 1507 : 					|| _VIPTR(_First) < this->_Myfirst()
; 1508 : 					|| this->_Mylast() < _VIPTR(_Last))
; 1509 : 					_DEBUG_ERROR("vector erase iterator outside range");
; 1510 : 				pointer _Ptr = _Move(_VIPTR(_Last), this->_Mylast(),
; 1511 : 					_VIPTR(_First));
; 1512 : 				_Orphan_range(_VIPTR(_First), this->_Mylast());
; 1513 : 
; 1514 :  #else /* _ITERATOR_DEBUG_LEVEL == 2 */
; 1515 : 				pointer _Ptr = _Move(_VIPTR(_Last), this->_Mylast(),
; 1516 : 					_VIPTR(_First));
; 1517 :  #endif /* _ITERATOR_DEBUG_LEVEL == 2 */
; 1518 : 
; 1519 : 				_Destroy(_Ptr, this->_Mylast());
; 1520 : 				this->_Mylast() = _Ptr;
; 1521 : 				}
; 1522 : 			}
; 1523 : 		return (_Make_iter(_First_arg));
; 1524 : 		}
; 1525 : 
; 1526 : 	void _Pop_back_n(size_type _Count)
; 1527 : 		{	// erase _Count elements at end
; 1528 : 		pointer _Ptr = this->_Mylast() - _Count;
; 1529 : 
; 1530 :  #if _ITERATOR_DEBUG_LEVEL == 2
; 1531 : 		_Orphan_range(_Ptr, this->_Mylast());
; 1532 :  #endif /* _ITERATOR_DEBUG_LEVEL == 2 */
; 1533 : 
; 1534 : 		_Destroy(_Ptr, this->_Mylast());
; 1535 : 		this->_Mylast() = _Ptr;
; 1536 : 		}
; 1537 : 
; 1538 : 	void clear() _NOEXCEPT
; 1539 : 		{	// erase all
; 1540 : 		this->_Orphan_all();
; 1541 : 		_Destroy(this->_Myfirst(), this->_Mylast());
; 1542 : 		this->_Mylast() = this->_Myfirst();
; 1543 : 		}
; 1544 : 
; 1545 : 	void swap(_Myt& _Right)
; 1546 : 		_NOEXCEPT_OP(_Alty::propagate_on_container_swap::value
; 1547 : 			|| _Alty::is_always_equal::value)
; 1548 : 		{	// exchange contents with _Right
; 1549 : 		if (this == &_Right)
; 1550 : 			;	// same object, do nothing
; 1551 : 		else if (this->_Getal() == _Right._Getal())
; 1552 : 			{	// same allocator, swap control information
; 1553 : 			this->_Swap_all(_Right);
; 1554 : 			_Swap_adl(this->_Myfirst(), _Right._Myfirst());
; 1555 : 			_Swap_adl(this->_Mylast(), _Right._Mylast());
; 1556 : 			_Swap_adl(this->_Myend(), _Right._Myend());
; 1557 : 			}
; 1558 : 
; 1559 : 		else if (_Alty::propagate_on_container_swap::value)
; 1560 : 			{	// swap allocators and control information
; 1561 : 			this->_Swap_alloc(_Right);
; 1562 : 			_Swap_adl(this->_Myfirst(), _Right._Myfirst());
; 1563 : 			_Swap_adl(this->_Mylast(), _Right._Mylast());
; 1564 : 			_Swap_adl(this->_Myend(), _Right._Myend());
; 1565 : 			}
; 1566 : 
; 1567 : 		else
; 1568 : 			{	// containers are incompatible
; 1569 :  #if _ITERATOR_DEBUG_LEVEL == 2
; 1570 : 			_DEBUG_ERROR("vector containers incompatible for swap");
; 1571 : 
; 1572 :  #else /* ITERATOR_DEBUG_LEVEL == 2 */
; 1573 : 			_XSTD terminate();
; 1574 :  #endif /* ITERATOR_DEBUG_LEVEL == 2 */
; 1575 : 			}
; 1576 : 		}
; 1577 : 
; 1578 : protected:
; 1579 : 	bool _Buy(size_type _Capacity)
; 1580 : 		{	// allocate array with _Capacity elements
; 1581 : 		this->_Myfirst() = pointer();
; 1582 : 		this->_Mylast() = pointer();
; 1583 : 		this->_Myend() = pointer();
; 1584 : 
; 1585 : 		if (_Capacity == 0)
; 1586 : 			return (false);
; 1587 : 		else if (max_size() < _Capacity)
; 1588 : 			_Xlen();	// result too long
; 1589 : 		else
; 1590 : 			{	// nonempty array, allocate storage
; 1591 : 			this->_Myfirst() = this->_Getal().allocate(_Capacity);
; 1592 : 			this->_Mylast() = this->_Myfirst();
; 1593 : 			this->_Myend() = this->_Myfirst() + _Capacity;
; 1594 : 			}
; 1595 : 		return (true);
; 1596 : 		}
; 1597 : 
; 1598 : 	void _Destroy(pointer _First, pointer _Last)
; 1599 : 		{	// destroy [_First, _Last) using allocator
; 1600 : 		_Destroy_range(_First, _Last, this->_Getal());
; 1601 : 		}
; 1602 : 
; 1603 : 	size_type _Grow_to(size_type _Count) const
; 1604 : 		{	// grow by 50% or at least to _Count
; 1605 : 		size_type _Capacity = capacity();
; 1606 : 
; 1607 : 		_Capacity = max_size() - _Capacity / 2 < _Capacity
; 1608 : 			? 0 : _Capacity + _Capacity / 2;	// try to grow by 50%
; 1609 : 		if (_Capacity < _Count)
; 1610 : 			_Capacity = _Count;
; 1611 : 		return (_Capacity);
; 1612 : 		}
; 1613 : 
; 1614 : 	bool _Inside(const value_type *_Ptr) const
; 1615 : 		{	// test if _Ptr points inside vector
; 1616 : 		return (_Ptr < this->_Mylast() && this->_Myfirst() <= _Ptr);

  00007	8b 7d 08	 mov	 edi, DWORD PTR __Val$[ebp]
  0000a	8b 4e 04	 mov	 ecx, DWORD PTR [esi+4]
  0000d	3b f9		 cmp	 edi, ecx
  0000f	73 4c		 jae	 SHORT $LN2@push_back
  00011	8b 06		 mov	 eax, DWORD PTR [esi]
  00013	3b c7		 cmp	 eax, edi
  00015	77 46		 ja	 SHORT $LN2@push_back

; 1275 : 		if (_Inside(_STD addressof(_Val)))
; 1276 : 			{	// push back an element
; 1277 : 			size_type _Idx = _STD addressof(_Val) - this->_Myfirst();

  00017	2b f8		 sub	 edi, eax
  00019	b8 ab aa aa 2a	 mov	 eax, 715827883		; 2aaaaaabH
  0001e	f7 ef		 imul	 edi
  00020	d1 fa		 sar	 edx, 1
  00022	8b fa		 mov	 edi, edx
  00024	c1 ef 1f	 shr	 edi, 31			; 0000001fH
  00027	03 fa		 add	 edi, edx

; 1278 : 			if (this->_Mylast() == this->_Myend())

  00029	3b 4e 08	 cmp	 ecx, DWORD PTR [esi+8]
  0002c	75 09		 jne	 SHORT $LN4@push_back

; 1279 : 				_Reserve(1);

  0002e	6a 01		 push	 1
  00030	8b ce		 mov	 ecx, esi
  00032	e8 00 00 00 00	 call	 ?_Reserve@?$vector@UItemPriceInfo@@V?$allocator@UItemPriceInfo@@@std@@@std@@IAEXI@Z ; std::vector<ItemPriceInfo,std::allocator<ItemPriceInfo> >::_Reserve
$LN4@push_back:
; File c:\program files (x86)\microsoft visual studio 14.0\vc\include\xmemory0

; 655  : 		::new ((void *)_Ptr) _Objty(_STD forward<_Types>(_Args)...);

  00037	8b 56 04	 mov	 edx, DWORD PTR [esi+4]
  0003a	85 d2		 test	 edx, edx
  0003c	74 42		 je	 SHORT $LN205@push_back
; File c:\program files (x86)\microsoft visual studio 14.0\vc\include\vector

; 1281 : 			this->_Getal().construct(this->_Mylast(),

  0003e	8b 06		 mov	 eax, DWORD PTR [esi]
  00040	8d 0c 7f	 lea	 ecx, DWORD PTR [edi+edi*2]
  00043	5f		 pop	 edi
; File c:\program files (x86)\microsoft visual studio 14.0\vc\include\xmemory0

; 655  : 		::new ((void *)_Ptr) _Objty(_STD forward<_Types>(_Args)...);

  00044	f3 0f 7e 04 88	 movq	 xmm0, QWORD PTR [eax+ecx*4]
  00049	66 0f d6 02	 movq	 QWORD PTR [edx], xmm0
  0004d	8b 44 88 08	 mov	 eax, DWORD PTR [eax+ecx*4+8]
  00051	89 42 08	 mov	 DWORD PTR [edx+8], eax
; File c:\program files (x86)\microsoft visual studio 14.0\vc\include\vector

; 1292 : 			++this->_Mylast();

  00054	83 46 04 0c	 add	 DWORD PTR [esi+4], 12	; 0000000cH
  00058	5e		 pop	 esi

; 1293 : 			}
; 1294 : 		}

  00059	5d		 pop	 ebp
  0005a	c2 04 00	 ret	 4
$LN2@push_back:

; 1282 : 				this->_Myfirst()[_Idx]);
; 1283 : 			++this->_Mylast();
; 1284 : 			}
; 1285 : 		else
; 1286 : 			{	// push back a non-element
; 1287 : 			if (this->_Mylast() == this->_Myend())

  0005d	3b 4e 08	 cmp	 ecx, DWORD PTR [esi+8]
  00060	75 09		 jne	 SHORT $LN5@push_back

; 1288 : 				_Reserve(1);

  00062	6a 01		 push	 1
  00064	8b ce		 mov	 ecx, esi
  00066	e8 00 00 00 00	 call	 ?_Reserve@?$vector@UItemPriceInfo@@V?$allocator@UItemPriceInfo@@@std@@@std@@IAEXI@Z ; std::vector<ItemPriceInfo,std::allocator<ItemPriceInfo> >::_Reserve
$LN5@push_back:
; File c:\program files (x86)\microsoft visual studio 14.0\vc\include\xmemory0

; 655  : 		::new ((void *)_Ptr) _Objty(_STD forward<_Types>(_Args)...);

  0006b	8b 4e 04	 mov	 ecx, DWORD PTR [esi+4]
  0006e	85 c9		 test	 ecx, ecx
  00070	74 0e		 je	 SHORT $LN205@push_back
  00072	f3 0f 7e 07	 movq	 xmm0, QWORD PTR [edi]
  00076	66 0f d6 01	 movq	 QWORD PTR [ecx], xmm0
  0007a	8b 47 08	 mov	 eax, DWORD PTR [edi+8]
  0007d	89 41 08	 mov	 DWORD PTR [ecx+8], eax
$LN205@push_back:
; File c:\program files (x86)\microsoft visual studio 14.0\vc\include\vector

; 1292 : 			++this->_Mylast();

  00080	83 46 04 0c	 add	 DWORD PTR [esi+4], 12	; 0000000cH
  00084	5f		 pop	 edi
  00085	5e		 pop	 esi

; 1293 : 			}
; 1294 : 		}

  00086	5d		 pop	 ebp
  00087	c2 04 00	 ret	 4
?push_back@?$vector@UItemPriceInfo@@V?$allocator@UItemPriceInfo@@@std@@@std@@QAEXABUItemPriceInfo@@@Z ENDP ; std::vector<ItemPriceInfo,std::allocator<ItemPriceInfo> >::push_back
_TEXT	ENDS
; Function compile flags: /Ogtp
; File c:\program files (x86)\microsoft visual studio 14.0\vc\include\vector
;	COMDAT ??A?$vector@UItemPriceInfo@@V?$allocator@UItemPriceInfo@@@std@@@std@@QAEAAUItemPriceInfo@@I@Z
_TEXT	SEGMENT
__Pos$ = 8						; size = 4
??A?$vector@UItemPriceInfo@@V?$allocator@UItemPriceInfo@@@std@@@std@@QAEAAUItemPriceInfo@@I@Z PROC ; std::vector<ItemPriceInfo,std::allocator<ItemPriceInfo> >::operator[], COMDAT
; _this$ = ecx

; 1228 : 		{	// subscript mutable sequence

  00000	55		 push	 ebp
  00001	8b ec		 mov	 ebp, esp

; 1229 :  #if _ITERATOR_DEBUG_LEVEL == 2
; 1230 : 		if (size() <= _Pos)
; 1231 : 			{	// report error
; 1232 : 			_DEBUG_ERROR("vector subscript out of range");
; 1233 : 			_SCL_SECURE_OUT_OF_RANGE;
; 1234 : 			}
; 1235 : 
; 1236 :  #elif _ITERATOR_DEBUG_LEVEL == 1
; 1237 : 		_SCL_SECURE_VALIDATE_RANGE(_Pos < size());
; 1238 :  #endif /* _ITERATOR_DEBUG_LEVEL */
; 1239 : 
; 1240 : 		return (*(this->_Myfirst() + _Pos));

  00003	8b 45 08	 mov	 eax, DWORD PTR __Pos$[ebp]
  00006	8d 14 40	 lea	 edx, DWORD PTR [eax+eax*2]
  00009	8b 01		 mov	 eax, DWORD PTR [ecx]
  0000b	8d 04 90	 lea	 eax, DWORD PTR [eax+edx*4]

; 1241 : 		}

  0000e	5d		 pop	 ebp
  0000f	c2 04 00	 ret	 4
??A?$vector@UItemPriceInfo@@V?$allocator@UItemPriceInfo@@@std@@@std@@QAEAAUItemPriceInfo@@I@Z ENDP ; std::vector<ItemPriceInfo,std::allocator<ItemPriceInfo> >::operator[]
_TEXT	ENDS
; Function compile flags: /Ogtp
; File c:\program files (x86)\microsoft visual studio 14.0\vc\include\vector
;	COMDAT ?max_size@?$vector@UItemPriceInfo@@V?$allocator@UItemPriceInfo@@@std@@@std@@QBEIXZ
_TEXT	SEGMENT
?max_size@?$vector@UItemPriceInfo@@V?$allocator@UItemPriceInfo@@@std@@@std@@QBEIXZ PROC ; std::vector<ItemPriceInfo,std::allocator<ItemPriceInfo> >::max_size, COMDAT
; _this$ = ecx

; 1184 : 		return (this->_Getal().max_size());

  00000	b8 55 55 55 15	 mov	 eax, 357913941		; 15555555H

; 1185 : 		}

  00005	c3		 ret	 0
?max_size@?$vector@UItemPriceInfo@@V?$allocator@UItemPriceInfo@@@std@@@std@@QBEIXZ ENDP ; std::vector<ItemPriceInfo,std::allocator<ItemPriceInfo> >::max_size
_TEXT	ENDS
; Function compile flags: /Ogtp
; File c:\program files (x86)\microsoft visual studio 14.0\vc\include\vector
;	COMDAT ?size@?$vector@UItemPriceInfo@@V?$allocator@UItemPriceInfo@@@std@@@std@@QBEIXZ
_TEXT	SEGMENT
?size@?$vector@UItemPriceInfo@@V?$allocator@UItemPriceInfo@@@std@@@std@@QBEIXZ PROC ; std::vector<ItemPriceInfo,std::allocator<ItemPriceInfo> >::size, COMDAT
; _this$ = ecx

; 1179 : 		return (this->_Mylast() - this->_Myfirst());

  00000	8b 51 04	 mov	 edx, DWORD PTR [ecx+4]
  00003	b8 ab aa aa 2a	 mov	 eax, 715827883		; 2aaaaaabH
  00008	2b 11		 sub	 edx, DWORD PTR [ecx]
  0000a	f7 ea		 imul	 edx
  0000c	d1 fa		 sar	 edx, 1
  0000e	8b c2		 mov	 eax, edx
  00010	c1 e8 1f	 shr	 eax, 31			; 0000001fH
  00013	03 c2		 add	 eax, edx

; 1180 : 		}

  00015	c3		 ret	 0
?size@?$vector@UItemPriceInfo@@V?$allocator@UItemPriceInfo@@@std@@@std@@QBEIXZ ENDP ; std::vector<ItemPriceInfo,std::allocator<ItemPriceInfo> >::size
_TEXT	ENDS
; Function compile flags: /Ogtp
; File c:\program files (x86)\microsoft visual studio 14.0\vc\include\vector
;	COMDAT ?_Unused_capacity@?$vector@UItemPriceInfo@@V?$allocator@UItemPriceInfo@@@std@@@std@@QBEIXZ
_TEXT	SEGMENT
?_Unused_capacity@?$vector@UItemPriceInfo@@V?$allocator@UItemPriceInfo@@@std@@@std@@QBEIXZ PROC ; std::vector<ItemPriceInfo,std::allocator<ItemPriceInfo> >::_Unused_capacity, COMDAT
; _this$ = ecx

; 1047 : 		return (this->_Myend() - this->_Mylast());

  00000	8b 51 08	 mov	 edx, DWORD PTR [ecx+8]
  00003	b8 ab aa aa 2a	 mov	 eax, 715827883		; 2aaaaaabH
  00008	2b 51 04	 sub	 edx, DWORD PTR [ecx+4]
  0000b	f7 ea		 imul	 edx
  0000d	d1 fa		 sar	 edx, 1
  0000f	8b c2		 mov	 eax, edx
  00011	c1 e8 1f	 shr	 eax, 31			; 0000001fH
  00014	03 c2		 add	 eax, edx

; 1048 : 		}

  00016	c3		 ret	 0
?_Unused_capacity@?$vector@UItemPriceInfo@@V?$allocator@UItemPriceInfo@@@std@@@std@@QBEIXZ ENDP ; std::vector<ItemPriceInfo,std::allocator<ItemPriceInfo> >::_Unused_capacity
_TEXT	ENDS
; Function compile flags: /Ogtp
; File c:\program files (x86)\microsoft visual studio 14.0\vc\include\vector
;	COMDAT ?capacity@?$vector@UItemPriceInfo@@V?$allocator@UItemPriceInfo@@@std@@@std@@QBEIXZ
_TEXT	SEGMENT
?capacity@?$vector@UItemPriceInfo@@V?$allocator@UItemPriceInfo@@@std@@@std@@QBEIXZ PROC ; std::vector<ItemPriceInfo,std::allocator<ItemPriceInfo> >::capacity, COMDAT
; _this$ = ecx

; 1042 : 		return (this->_Myend() - this->_Myfirst());

  00000	8b 51 08	 mov	 edx, DWORD PTR [ecx+8]
  00003	b8 ab aa aa 2a	 mov	 eax, 715827883		; 2aaaaaabH
  00008	2b 11		 sub	 edx, DWORD PTR [ecx]
  0000a	f7 ea		 imul	 edx
  0000c	d1 fa		 sar	 edx, 1
  0000e	8b c2		 mov	 eax, edx
  00010	c1 e8 1f	 shr	 eax, 31			; 0000001fH
  00013	03 c2		 add	 eax, edx

; 1043 : 		}

  00015	c3		 ret	 0
?capacity@?$vector@UItemPriceInfo@@V?$allocator@UItemPriceInfo@@@std@@@std@@QBEIXZ ENDP ; std::vector<ItemPriceInfo,std::allocator<ItemPriceInfo> >::capacity
_TEXT	ENDS
; Function compile flags: /Ogtp
; File c:\program files (x86)\microsoft visual studio 14.0\vc\include\vector
; File c:\program files (x86)\microsoft visual studio 14.0\vc\include\xmemory0
; File c:\program files (x86)\microsoft visual studio 14.0\vc\include\vector
;	COMDAT ??1?$vector@UItemPriceInfo@@V?$allocator@UItemPriceInfo@@@std@@@std@@QAE@XZ
_TEXT	SEGMENT
??1?$vector@UItemPriceInfo@@V?$allocator@UItemPriceInfo@@@std@@@std@@QAE@XZ PROC ; std::vector<ItemPriceInfo,std::allocator<ItemPriceInfo> >::~vector<ItemPriceInfo,std::allocator<ItemPriceInfo> >, COMDAT
; _this$ = ecx

; 974  : 		{	// destroy the object

  00000	56		 push	 esi
  00001	8b f1		 mov	 esi, ecx

; 977  : 
; 978  : 	_Myt& operator=(const _Myt& _Right)
; 979  : 		{	// assign _Right
; 980  : 		if (this != &_Right)
; 981  : 			{	// different, assign it
; 982  : 			if (this->_Getal() != _Right._Getal()
; 983  : 				&& _Alty::propagate_on_container_copy_assignment::value)
; 984  : 				{	// change allocator before copying
; 985  : 				_Tidy();
; 986  : 				this->_Copy_alloc(_Right._Getal());
; 987  : 				}
; 988  : 
; 989  : 			this->_Orphan_all();
; 990  : 
; 991  : 			if (_Right.empty())
; 992  : 				clear();	// new sequence empty, erase existing sequence
; 993  : 			else if (_Right.size() <= size())
; 994  : 				{	// enough elements, copy new and destroy old
; 995  : 				pointer _Ptr = _Copy_impl(_Right._Myfirst(),
; 996  : 					_Right._Mylast(), this->_Myfirst());	// copy new
; 997  : 				_Destroy(_Ptr, this->_Mylast());	// destroy old
; 998  : 				this->_Mylast() = this->_Myfirst() + _Right.size();
; 999  : 				}
; 1000 : 			else if (_Right.size() <= capacity())
; 1001 : 				{	// enough room, copy and construct new
; 1002 : 				pointer _Ptr = _Right._Myfirst() + size();
; 1003 : 				_Copy_impl(_Right._Myfirst(),
; 1004 : 					_Ptr, this->_Myfirst());
; 1005 : 				this->_Mylast() = _Ucopy(_Ptr, _Right._Mylast(),
; 1006 : 					this->_Mylast());
; 1007 : 				}
; 1008 : 			else
; 1009 : 				{	// not enough room, allocate new array and construct new
; 1010 : 				if (this->_Myfirst() != pointer())
; 1011 : 					{	// discard old array
; 1012 : 					_Destroy(this->_Myfirst(), this->_Mylast());
; 1013 : 					this->_Getal().deallocate(this->_Myfirst(),
; 1014 : 						this->_Myend() - this->_Myfirst());
; 1015 : 					}
; 1016 : 				if (_Buy(_Right.size()))
; 1017 : 					_TRY_BEGIN
; 1018 : 					this->_Mylast() =
; 1019 : 						_Ucopy(_Right._Myfirst(), _Right._Mylast(),
; 1020 : 						this->_Myfirst());
; 1021 : 					_CATCH_ALL
; 1022 : 					_Tidy();
; 1023 : 					_RERAISE;
; 1024 : 					_CATCH_END
; 1025 : 				}
; 1026 : 			}
; 1027 : 		return (*this);
; 1028 : 		}
; 1029 : 
; 1030 : 	void reserve(size_type _Count)
; 1031 : 		{	// determine new minimum length of allocated storage
; 1032 : 		if (capacity() < _Count)
; 1033 : 			{	// something to do, check and reallocate
; 1034 : 			if (max_size() < _Count)
; 1035 : 				_Xlen();
; 1036 : 			_Reallocate(_Count);
; 1037 : 			}
; 1038 : 		}
; 1039 : 
; 1040 : 	size_type capacity() const _NOEXCEPT
; 1041 : 		{	// return current length of allocated storage
; 1042 : 		return (this->_Myend() - this->_Myfirst());
; 1043 : 		}
; 1044 : 
; 1045 : 	size_type _Unused_capacity() const _NOEXCEPT
; 1046 : 		{	// micro-optimization for capacity() - size()
; 1047 : 		return (this->_Myend() - this->_Mylast());
; 1048 : 		}
; 1049 : 
; 1050 : 	size_type _Has_unused_capacity() const _NOEXCEPT
; 1051 : 		{	// micro-optimization for capacity() != size()
; 1052 : 		return (this->_Myend() != this->_Mylast());
; 1053 : 		}
; 1054 : 
; 1055 : 	iterator begin() _NOEXCEPT
; 1056 : 		{	// return iterator for beginning of mutable sequence
; 1057 : 		return (iterator(this->_Myfirst(), &this->_Get_data()));
; 1058 : 		}
; 1059 : 
; 1060 : 	const_iterator begin() const _NOEXCEPT
; 1061 : 		{	// return iterator for beginning of nonmutable sequence
; 1062 : 		return (const_iterator(this->_Myfirst(), &this->_Get_data()));
; 1063 : 		}
; 1064 : 
; 1065 : 	iterator end() _NOEXCEPT
; 1066 : 		{	// return iterator for end of mutable sequence
; 1067 : 		return (iterator(this->_Mylast(), &this->_Get_data()));
; 1068 : 		}
; 1069 : 
; 1070 : 	const_iterator end() const _NOEXCEPT
; 1071 : 		{	// return iterator for end of nonmutable sequence
; 1072 : 		return (const_iterator(this->_Mylast(), &this->_Get_data()));
; 1073 : 		}
; 1074 : 
; 1075 : 	iterator _Make_iter(const_iterator _Where) const
; 1076 : 		{	// make iterator from const_iterator
; 1077 : 		return (iterator(_Where._Ptr, &this->_Get_data()));
; 1078 : 		}
; 1079 : 
; 1080 : 	reverse_iterator rbegin() _NOEXCEPT
; 1081 : 		{	// return iterator for beginning of reversed mutable sequence
; 1082 : 		return (reverse_iterator(end()));
; 1083 : 		}
; 1084 : 
; 1085 : 	const_reverse_iterator rbegin() const _NOEXCEPT
; 1086 : 		{	// return iterator for beginning of reversed nonmutable sequence
; 1087 : 		return (const_reverse_iterator(end()));
; 1088 : 		}
; 1089 : 
; 1090 : 	reverse_iterator rend() _NOEXCEPT
; 1091 : 		{	// return iterator for end of reversed mutable sequence
; 1092 : 		return (reverse_iterator(begin()));
; 1093 : 		}
; 1094 : 
; 1095 : 	const_reverse_iterator rend() const _NOEXCEPT
; 1096 : 		{	// return iterator for end of reversed nonmutable sequence
; 1097 : 		return (const_reverse_iterator(begin()));
; 1098 : 		}
; 1099 : 
; 1100 : 	const_iterator cbegin() const _NOEXCEPT
; 1101 : 		{	// return iterator for beginning of nonmutable sequence
; 1102 : 		return (begin());
; 1103 : 		}
; 1104 : 
; 1105 : 	const_iterator cend() const _NOEXCEPT
; 1106 : 		{	// return iterator for end of nonmutable sequence
; 1107 : 		return (end());
; 1108 : 		}
; 1109 : 
; 1110 : 	const_reverse_iterator crbegin() const _NOEXCEPT
; 1111 : 		{	// return iterator for beginning of reversed nonmutable sequence
; 1112 : 		return (rbegin());
; 1113 : 		}
; 1114 : 
; 1115 : 	const_reverse_iterator crend() const _NOEXCEPT
; 1116 : 		{	// return iterator for end of reversed nonmutable sequence
; 1117 : 		return (rend());
; 1118 : 		}
; 1119 : 
; 1120 : 	void shrink_to_fit()
; 1121 : 		{	// reduce capacity
; 1122 : 		if (_Has_unused_capacity())
; 1123 : 			{	// worth shrinking, do it
; 1124 : 			if (empty())
; 1125 : 				_Tidy();
; 1126 : 			else
; 1127 : 				_Reallocate(size());
; 1128 : 			}
; 1129 : 		}
; 1130 : 
; 1131 : 	void resize(size_type _Newsize)
; 1132 : 		{	// determine new length, padding as needed
; 1133 : 		if (_Newsize < size())
; 1134 : 			_Pop_back_n(size() - _Newsize);
; 1135 : 		else if (size() < _Newsize)
; 1136 : 			{	// pad as needed
; 1137 : 			_Reserve(_Newsize - size());
; 1138 : 			_TRY_BEGIN
; 1139 : 			_Uninitialized_default_fill_n(this->_Mylast(), _Newsize - size(),
; 1140 : 				this->_Getal());
; 1141 : 			_CATCH_ALL
; 1142 : 			_Tidy();
; 1143 : 			_RERAISE;
; 1144 : 			_CATCH_END
; 1145 : 			this->_Mylast() += _Newsize - size();
; 1146 : 			}
; 1147 : 		}
; 1148 : 
; 1149 : 	void resize(size_type _Newsize, const value_type& _Val)
; 1150 : 		{	// determine new length, padding with _Val elements as needed
; 1151 : 		if (_Newsize < size())
; 1152 : 			_Pop_back_n(size() - _Newsize);
; 1153 : 		else if (size() < _Newsize)
; 1154 : 			{	// pad as needed
; 1155 : 			const value_type *_Ptr = _STD addressof(_Val);
; 1156 : 
; 1157 : 			if (_Inside(_Ptr))
; 1158 : 				{	// padding is inside vector, recompute _Ptr after reserve
; 1159 : 				const difference_type _Idx = _Ptr
; 1160 : 					- _STD addressof(*this->_Myfirst());
; 1161 : 				_Reserve(_Newsize - size());
; 1162 : 				_Ptr = _STD addressof(*this->_Myfirst()) + _Idx;
; 1163 : 				}
; 1164 : 			else
; 1165 : 				_Reserve(_Newsize - size());
; 1166 : 
; 1167 : 			_TRY_BEGIN
; 1168 : 			_Ufill(this->_Mylast(), _Newsize - size(), _Ptr);
; 1169 : 			_CATCH_ALL
; 1170 : 			_Tidy();
; 1171 : 			_RERAISE;
; 1172 : 			_CATCH_END
; 1173 : 			this->_Mylast() += _Newsize - size();
; 1174 : 			}
; 1175 : 		}
; 1176 : 
; 1177 : 	size_type size() const _NOEXCEPT
; 1178 : 		{	// return length of sequence
; 1179 : 		return (this->_Mylast() - this->_Myfirst());
; 1180 : 		}
; 1181 : 
; 1182 : 	size_type max_size() const _NOEXCEPT
; 1183 : 		{	// return maximum possible length of sequence
; 1184 : 		return (this->_Getal().max_size());
; 1185 : 		}
; 1186 : 
; 1187 : 	bool empty() const _NOEXCEPT
; 1188 : 		{	// test if sequence is empty
; 1189 : 		return (this->_Myfirst() == this->_Mylast());
; 1190 : 		}
; 1191 : 
; 1192 : 	_Alloc get_allocator() const _NOEXCEPT
; 1193 : 		{	// return allocator object for values
; 1194 : 		return (this->_Getal());
; 1195 : 		}
; 1196 : 
; 1197 : 	const_reference at(size_type _Pos) const
; 1198 : 		{	// subscript nonmutable sequence with checking
; 1199 : 		if (size() <= _Pos)
; 1200 : 			_Xran();
; 1201 : 		return (*(this->_Myfirst() + _Pos));
; 1202 : 		}
; 1203 : 
; 1204 : 	reference at(size_type _Pos)
; 1205 : 		{	// subscript mutable sequence with checking
; 1206 : 		if (size() <= _Pos)
; 1207 : 			_Xran();
; 1208 : 		return (*(this->_Myfirst() + _Pos));
; 1209 : 		}
; 1210 : 
; 1211 : 	const_reference operator[](size_type _Pos) const
; 1212 : 		{	// subscript nonmutable sequence
; 1213 :  #if _ITERATOR_DEBUG_LEVEL == 2
; 1214 : 		if (size() <= _Pos)
; 1215 : 			{	// report error
; 1216 : 			_DEBUG_ERROR("vector subscript out of range");
; 1217 : 			_SCL_SECURE_OUT_OF_RANGE;
; 1218 : 			}
; 1219 : 
; 1220 :  #elif _ITERATOR_DEBUG_LEVEL == 1
; 1221 : 		_SCL_SECURE_VALIDATE_RANGE(_Pos < size());
; 1222 :  #endif /* _ITERATOR_DEBUG_LEVEL */
; 1223 : 
; 1224 : 		return (*(this->_Myfirst() + _Pos));
; 1225 : 		}
; 1226 : 
; 1227 : 	reference operator[](size_type _Pos)
; 1228 : 		{	// subscript mutable sequence
; 1229 :  #if _ITERATOR_DEBUG_LEVEL == 2
; 1230 : 		if (size() <= _Pos)
; 1231 : 			{	// report error
; 1232 : 			_DEBUG_ERROR("vector subscript out of range");
; 1233 : 			_SCL_SECURE_OUT_OF_RANGE;
; 1234 : 			}
; 1235 : 
; 1236 :  #elif _ITERATOR_DEBUG_LEVEL == 1
; 1237 : 		_SCL_SECURE_VALIDATE_RANGE(_Pos < size());
; 1238 :  #endif /* _ITERATOR_DEBUG_LEVEL */
; 1239 : 
; 1240 : 		return (*(this->_Myfirst() + _Pos));
; 1241 : 		}
; 1242 : 
; 1243 : 	pointer data() _NOEXCEPT
; 1244 : 		{	// return address of first element
; 1245 : 		return (this->_Myfirst());
; 1246 : 		}
; 1247 : 
; 1248 : 	const_pointer data() const _NOEXCEPT
; 1249 : 		{	// return address of first element
; 1250 : 		return (this->_Myfirst());
; 1251 : 		}
; 1252 : 
; 1253 : 	reference front()
; 1254 : 		{	// return first element of mutable sequence
; 1255 : 		return (*begin());
; 1256 : 		}
; 1257 : 
; 1258 : 	const_reference front() const
; 1259 : 		{	// return first element of nonmutable sequence
; 1260 : 		return (*begin());
; 1261 : 		}
; 1262 : 
; 1263 : 	reference back()
; 1264 : 		{	// return last element of mutable sequence
; 1265 : 		return (*(end() - 1));
; 1266 : 		}
; 1267 : 
; 1268 : 	const_reference back() const
; 1269 : 		{	// return last element of nonmutable sequence
; 1270 : 		return (*(end() - 1));
; 1271 : 		}
; 1272 : 
; 1273 : 	void push_back(const value_type& _Val)
; 1274 : 		{	// insert element at end
; 1275 : 		if (_Inside(_STD addressof(_Val)))
; 1276 : 			{	// push back an element
; 1277 : 			size_type _Idx = _STD addressof(_Val) - this->_Myfirst();
; 1278 : 			if (this->_Mylast() == this->_Myend())
; 1279 : 				_Reserve(1);
; 1280 : 			_Orphan_range(this->_Mylast(), this->_Mylast());
; 1281 : 			this->_Getal().construct(this->_Mylast(),
; 1282 : 				this->_Myfirst()[_Idx]);
; 1283 : 			++this->_Mylast();
; 1284 : 			}
; 1285 : 		else
; 1286 : 			{	// push back a non-element
; 1287 : 			if (this->_Mylast() == this->_Myend())
; 1288 : 				_Reserve(1);
; 1289 : 			_Orphan_range(this->_Mylast(), this->_Mylast());
; 1290 : 			this->_Getal().construct(this->_Mylast(),
; 1291 : 				_Val);
; 1292 : 			++this->_Mylast();
; 1293 : 			}
; 1294 : 		}
; 1295 : 
; 1296 :  #if _ITERATOR_DEBUG_LEVEL == 2
; 1297 : 	void pop_back()
; 1298 : 		{	// erase element at end
; 1299 : 		if (empty())
; 1300 : 			_DEBUG_ERROR("vector empty before pop");
; 1301 : 		else
; 1302 : 			{	// erase last element
; 1303 : 			_Orphan_range(this->_Mylast() - 1, this->_Mylast());
; 1304 : 			this->_Getal().destroy(this->_Mylast() - 1);
; 1305 : 			--this->_Mylast();
; 1306 : 			}
; 1307 : 		}
; 1308 : 
; 1309 :  #else /* _ITERATOR_DEBUG_LEVEL == 2 */
; 1310 : 	void pop_back()
; 1311 : 		{	// erase element at end
; 1312 : 		this->_Getal().destroy(this->_Mylast() - 1);
; 1313 : 		--this->_Mylast();
; 1314 : 		}
; 1315 :  #endif /* _ITERATOR_DEBUG_LEVEL == 2 */
; 1316 : 
; 1317 : 	template<class _Iter>
; 1318 : 		typename enable_if<_Is_iterator<_Iter>::value,
; 1319 : 			void>::type
; 1320 : 		assign(_Iter _First, _Iter _Last)
; 1321 : 		{	// assign [_First, _Last)
; 1322 : 		clear();
; 1323 : 		_Assign(_First, _Last, _Iter_cat(_First));
; 1324 : 		}
; 1325 : 
; 1326 : 	template<class _Iter>
; 1327 : 		void _Assign(_Iter _First, _Iter _Last,
; 1328 : 			input_iterator_tag)
; 1329 : 		{	// assign [_First, _Last), input iterators
; 1330 : 		for (; _First != _Last; ++_First)
; 1331 : 			emplace_back(*_First);
; 1332 : 		}
; 1333 : 
; 1334 : 	template<class _Iter>
; 1335 : 		void _Assign(_Iter _First, _Iter _Last,
; 1336 : 			forward_iterator_tag)
; 1337 : 		{	// assign [_First, _Last), forward iterators
; 1338 : 		size_type _Newsize = _STD distance(_First, _Last);
; 1339 : 
; 1340 : 		if (capacity() < _Newsize)
; 1341 : 			{	// need more room, try to get it
; 1342 : 			size_type _Newcapacity = _Grow_to(_Newsize);
; 1343 : 			_Tidy();
; 1344 : 			_Buy(_Newcapacity);
; 1345 : 			}
; 1346 : 
; 1347 : 		this->_Mylast() = _Ucopy(_First, _Last, this->_Myfirst());
; 1348 : 		}
; 1349 : 
; 1350 : 	void assign(size_type _Count, const value_type& _Val)
; 1351 : 		{	// assign _Count * _Val
; 1352 : 		clear();
; 1353 : 		insert(begin(), _Count, _Val);
; 1354 : 		}
; 1355 : 
; 1356 : 	iterator insert(const_iterator _Where, const _Ty& _Val)
; 1357 : 		{	// insert _Val at _Where
; 1358 : 		return (_Insert_n(_Where, (size_type)1, _Val));
; 1359 : 		}
; 1360 : 
; 1361 : 	iterator insert(const_iterator _Where, size_type _Count,
; 1362 : 		const _Ty& _Val)
; 1363 : 		{	// insert _Count * _Val at _Where
; 1364 : 		return (_Insert_n(_Where, _Count, _Val));
; 1365 : 		}
; 1366 : 
; 1367 : 	template<class _Iter>
; 1368 : 		typename enable_if<_Is_iterator<_Iter>::value,
; 1369 : 			iterator>::type
; 1370 : 		insert(const_iterator _Where, _Iter _First, _Iter _Last)
; 1371 : 		{	// insert [_First, _Last) at _Where
; 1372 : 		size_type _Off = _VIPTR(_Where) - this->_Myfirst();
; 1373 : 		_Insert(_Where, _First, _Last, _Iter_cat(_First));
; 1374 : 		return (begin() + _Off);
; 1375 : 		}
; 1376 : 
; 1377 : 	template<class _Iter>
; 1378 : 		void _Insert(const_iterator _Where,
; 1379 : 			_Iter _First, _Iter _Last,
; 1380 : 				input_iterator_tag)
; 1381 : 		{	// insert [_First, _Last) at _Where, input iterators
; 1382 : 		size_type _Off = _VIPTR(_Where) - this->_Myfirst();
; 1383 : 
; 1384 :  #if _ITERATOR_DEBUG_LEVEL == 2
; 1385 : 		if (size() < _Off)
; 1386 : 			_DEBUG_ERROR("vector insert iterator outside range");
; 1387 :  #endif /* _ITERATOR_DEBUG_LEVEL == 2 */
; 1388 : 
; 1389 : 		if (_First != _Last)
; 1390 : 			{	// worth doing, gather at end and rotate into place
; 1391 : 			size_type _Oldsize = size();
; 1392 : 
; 1393 : 			_TRY_BEGIN
; 1394 : 			for (; _First != _Last; ++_First)
; 1395 : 				push_back(*_First);	// append
; 1396 : 
; 1397 : 			_CATCH_ALL
; 1398 : 			erase(begin() + _Oldsize, end());
; 1399 : 			_RERAISE;
; 1400 : 			_CATCH_END
; 1401 : 
; 1402 : 			_STD rotate(begin() + _Off, begin() + _Oldsize, end());
; 1403 : 			}
; 1404 : 		}
; 1405 : 
; 1406 : 	template<class _Iter>
; 1407 : 		void _Insert(const_iterator _Where,
; 1408 : 			_Iter _First, _Iter _Last,
; 1409 : 				forward_iterator_tag)
; 1410 : 		{	// insert [_First, _Last) at _Where, forward iterators
; 1411 :  #if _ITERATOR_DEBUG_LEVEL == 2
; 1412 : 		if (_VICONT(_Where) != &this->_Get_data()
; 1413 : 			|| _VIPTR(_Where) < this->_Myfirst()
; 1414 : 			|| this->_Mylast() < _VIPTR(_Where))
; 1415 : 			_DEBUG_ERROR("vector insert iterator outside range");
; 1416 : 		_DEBUG_RANGE(_First, _Last);
; 1417 :  #endif /* _ITERATOR_DEBUG_LEVEL == 2 */
; 1418 : 
; 1419 : 		size_type _Count = 0;
; 1420 : 		_Distance(_First, _Last, _Count);
; 1421 : 
; 1422 : 		if (_Count == 0)
; 1423 : 			;
; 1424 : 		else if (_Unused_capacity() < _Count)
; 1425 : 			{	// not enough room, reallocate
; 1426 : 			if (max_size() - size() < _Count)
; 1427 : 				_Xlen();	// result too long
; 1428 : 
; 1429 : 			size_type _Capacity = _Grow_to(size() + _Count);
; 1430 : 			pointer _Newvec = this->_Getal().allocate(_Capacity);
; 1431 : 			pointer _Ptr = _Newvec;
; 1432 : 
; 1433 : 			_TRY_BEGIN
; 1434 : 			_Ptr = _Umove(this->_Myfirst(), _VIPTR(_Where),
; 1435 : 				_Newvec);	// copy prefix
; 1436 : 			_Ptr = _Ucopy(_First, _Last, _Ptr);	// add new stuff
; 1437 : 			_Umove(_VIPTR(_Where), this->_Mylast(),
; 1438 : 				_Ptr);	// copy suffix
; 1439 : 			_CATCH_ALL
; 1440 : 			_Destroy(_Newvec, _Ptr);
; 1441 : 			this->_Getal().deallocate(_Newvec, _Capacity);
; 1442 : 			_RERAISE;
; 1443 : 			_CATCH_END
; 1444 : 
; 1445 : 			_Count += size();
; 1446 : 			if (this->_Myfirst() != pointer())
; 1447 : 				{	// destroy and deallocate old array
; 1448 : 				_Destroy(this->_Myfirst(), this->_Mylast());
; 1449 : 				this->_Getal().deallocate(this->_Myfirst(),
; 1450 : 					this->_Myend() - this->_Myfirst());
; 1451 : 				}
; 1452 : 
; 1453 : 			this->_Orphan_all();
; 1454 : 			this->_Myend() = _Newvec + _Capacity;
; 1455 : 			this->_Mylast() = _Newvec + _Count;
; 1456 : 			this->_Myfirst() = _Newvec;
; 1457 : 			}
; 1458 : 		else
; 1459 : 			{	// new stuff fits, append and rotate into place
; 1460 : 			_Ucopy(_First, _Last, this->_Mylast());
; 1461 : 			_STD rotate(_VIPTR(_Where), this->_Mylast(),
; 1462 : 				this->_Mylast() + _Count);
; 1463 : 			this->_Mylast() += _Count;
; 1464 : 			_Orphan_range(_VIPTR(_Where), this->_Mylast());
; 1465 : 			}
; 1466 : 		}
; 1467 : 
; 1468 :  #if _ITERATOR_DEBUG_LEVEL == 2
; 1469 : 	iterator erase(const_iterator _Where)
; 1470 : 		{	// erase element at where
; 1471 : 		if (_VICONT(_Where) != &this->_Get_data()
; 1472 : 			|| _VIPTR(_Where) < this->_Myfirst()
; 1473 : 			|| this->_Mylast() <= _VIPTR(_Where))
; 1474 : 			_DEBUG_ERROR("vector erase iterator outside range");
; 1475 : 		_Move(_VIPTR(_Where) + 1, this->_Mylast(), _VIPTR(_Where));
; 1476 : 		_Destroy(this->_Mylast() - 1, this->_Mylast());
; 1477 : 		_Orphan_range(_VIPTR(_Where), this->_Mylast());
; 1478 : 		--this->_Mylast();
; 1479 : 		return (_Make_iter(_Where));
; 1480 : 		}
; 1481 : 
; 1482 :  #else /* _ITERATOR_DEBUG_LEVEL == 2 */
; 1483 : 	iterator erase(const_iterator _Where)
; 1484 : 		{	// erase element at where
; 1485 : 		_Move(_VIPTR(_Where) + 1, this->_Mylast(),
; 1486 : 			_VIPTR(_Where));
; 1487 : 		_Destroy(this->_Mylast() - 1, this->_Mylast());
; 1488 : 		--this->_Mylast();
; 1489 : 		return (_Make_iter(_Where));
; 1490 : 		}
; 1491 :  #endif /* _ITERATOR_DEBUG_LEVEL == 2 */
; 1492 : 
; 1493 : 	iterator erase(const_iterator _First_arg,
; 1494 : 		const_iterator _Last_arg)
; 1495 : 		{	// erase [_First, _Last)
; 1496 : 		if (_First_arg == begin() && _Last_arg == end())
; 1497 : 			clear();
; 1498 : 		else if (_First_arg != _Last_arg)
; 1499 : 			{	// clear partial
; 1500 : 			iterator _First = _Make_iter(_First_arg);
; 1501 : 			iterator _Last = _Make_iter(_Last_arg);
; 1502 : 
; 1503 : 			if (_First != _Last)
; 1504 : 				{	// worth doing, copy down over hole
; 1505 :  #if _ITERATOR_DEBUG_LEVEL == 2
; 1506 : 				if (_Last < _First || _VICONT(_First) != &this->_Get_data()
; 1507 : 					|| _VIPTR(_First) < this->_Myfirst()
; 1508 : 					|| this->_Mylast() < _VIPTR(_Last))
; 1509 : 					_DEBUG_ERROR("vector erase iterator outside range");
; 1510 : 				pointer _Ptr = _Move(_VIPTR(_Last), this->_Mylast(),
; 1511 : 					_VIPTR(_First));
; 1512 : 				_Orphan_range(_VIPTR(_First), this->_Mylast());
; 1513 : 
; 1514 :  #else /* _ITERATOR_DEBUG_LEVEL == 2 */
; 1515 : 				pointer _Ptr = _Move(_VIPTR(_Last), this->_Mylast(),
; 1516 : 					_VIPTR(_First));
; 1517 :  #endif /* _ITERATOR_DEBUG_LEVEL == 2 */
; 1518 : 
; 1519 : 				_Destroy(_Ptr, this->_Mylast());
; 1520 : 				this->_Mylast() = _Ptr;
; 1521 : 				}
; 1522 : 			}
; 1523 : 		return (_Make_iter(_First_arg));
; 1524 : 		}
; 1525 : 
; 1526 : 	void _Pop_back_n(size_type _Count)
; 1527 : 		{	// erase _Count elements at end
; 1528 : 		pointer _Ptr = this->_Mylast() - _Count;
; 1529 : 
; 1530 :  #if _ITERATOR_DEBUG_LEVEL == 2
; 1531 : 		_Orphan_range(_Ptr, this->_Mylast());
; 1532 :  #endif /* _ITERATOR_DEBUG_LEVEL == 2 */
; 1533 : 
; 1534 : 		_Destroy(_Ptr, this->_Mylast());
; 1535 : 		this->_Mylast() = _Ptr;
; 1536 : 		}
; 1537 : 
; 1538 : 	void clear() _NOEXCEPT
; 1539 : 		{	// erase all
; 1540 : 		this->_Orphan_all();
; 1541 : 		_Destroy(this->_Myfirst(), this->_Mylast());
; 1542 : 		this->_Mylast() = this->_Myfirst();
; 1543 : 		}
; 1544 : 
; 1545 : 	void swap(_Myt& _Right)
; 1546 : 		_NOEXCEPT_OP(_Alty::propagate_on_container_swap::value
; 1547 : 			|| _Alty::is_always_equal::value)
; 1548 : 		{	// exchange contents with _Right
; 1549 : 		if (this == &_Right)
; 1550 : 			;	// same object, do nothing
; 1551 : 		else if (this->_Getal() == _Right._Getal())
; 1552 : 			{	// same allocator, swap control information
; 1553 : 			this->_Swap_all(_Right);
; 1554 : 			_Swap_adl(this->_Myfirst(), _Right._Myfirst());
; 1555 : 			_Swap_adl(this->_Mylast(), _Right._Mylast());
; 1556 : 			_Swap_adl(this->_Myend(), _Right._Myend());
; 1557 : 			}
; 1558 : 
; 1559 : 		else if (_Alty::propagate_on_container_swap::value)
; 1560 : 			{	// swap allocators and control information
; 1561 : 			this->_Swap_alloc(_Right);
; 1562 : 			_Swap_adl(this->_Myfirst(), _Right._Myfirst());
; 1563 : 			_Swap_adl(this->_Mylast(), _Right._Mylast());
; 1564 : 			_Swap_adl(this->_Myend(), _Right._Myend());
; 1565 : 			}
; 1566 : 
; 1567 : 		else
; 1568 : 			{	// containers are incompatible
; 1569 :  #if _ITERATOR_DEBUG_LEVEL == 2
; 1570 : 			_DEBUG_ERROR("vector containers incompatible for swap");
; 1571 : 
; 1572 :  #else /* ITERATOR_DEBUG_LEVEL == 2 */
; 1573 : 			_XSTD terminate();
; 1574 :  #endif /* ITERATOR_DEBUG_LEVEL == 2 */
; 1575 : 			}
; 1576 : 		}
; 1577 : 
; 1578 : protected:
; 1579 : 	bool _Buy(size_type _Capacity)
; 1580 : 		{	// allocate array with _Capacity elements
; 1581 : 		this->_Myfirst() = pointer();
; 1582 : 		this->_Mylast() = pointer();
; 1583 : 		this->_Myend() = pointer();
; 1584 : 
; 1585 : 		if (_Capacity == 0)
; 1586 : 			return (false);
; 1587 : 		else if (max_size() < _Capacity)
; 1588 : 			_Xlen();	// result too long
; 1589 : 		else
; 1590 : 			{	// nonempty array, allocate storage
; 1591 : 			this->_Myfirst() = this->_Getal().allocate(_Capacity);
; 1592 : 			this->_Mylast() = this->_Myfirst();
; 1593 : 			this->_Myend() = this->_Myfirst() + _Capacity;
; 1594 : 			}
; 1595 : 		return (true);
; 1596 : 		}
; 1597 : 
; 1598 : 	void _Destroy(pointer _First, pointer _Last)
; 1599 : 		{	// destroy [_First, _Last) using allocator
; 1600 : 		_Destroy_range(_First, _Last, this->_Getal());
; 1601 : 		}
; 1602 : 
; 1603 : 	size_type _Grow_to(size_type _Count) const
; 1604 : 		{	// grow by 50% or at least to _Count
; 1605 : 		size_type _Capacity = capacity();
; 1606 : 
; 1607 : 		_Capacity = max_size() - _Capacity / 2 < _Capacity
; 1608 : 			? 0 : _Capacity + _Capacity / 2;	// try to grow by 50%
; 1609 : 		if (_Capacity < _Count)
; 1610 : 			_Capacity = _Count;
; 1611 : 		return (_Capacity);
; 1612 : 		}
; 1613 : 
; 1614 : 	bool _Inside(const value_type *_Ptr) const
; 1615 : 		{	// test if _Ptr points inside vector
; 1616 : 		return (_Ptr < this->_Mylast() && this->_Myfirst() <= _Ptr);
; 1617 : 		}
; 1618 : 
; 1619 : 	void _Reallocate(size_type _Count)
; 1620 : 		{	// move to array of exactly _Count elements
; 1621 : 		pointer _Ptr = this->_Getal().allocate(_Count);
; 1622 : 
; 1623 : 		_TRY_BEGIN
; 1624 : 		_Umove(this->_Myfirst(), this->_Mylast(), _Ptr);
; 1625 : 		_CATCH_ALL
; 1626 : 		this->_Getal().deallocate(_Ptr, _Count);
; 1627 : 		_RERAISE;
; 1628 : 		_CATCH_END
; 1629 : 
; 1630 : 		size_type _Size = size();
; 1631 : 		if (this->_Myfirst() != pointer())
; 1632 : 			{	// destroy and deallocate old array
; 1633 : 			_Destroy(this->_Myfirst(), this->_Mylast());
; 1634 : 			this->_Getal().deallocate(this->_Myfirst(),
; 1635 : 				this->_Myend() - this->_Myfirst());
; 1636 : 			}
; 1637 : 
; 1638 : 		this->_Orphan_all();
; 1639 : 		this->_Myend() = _Ptr + _Count;
; 1640 : 		this->_Mylast() = _Ptr + _Size;
; 1641 : 		this->_Myfirst() = _Ptr;
; 1642 : 		}
; 1643 : 
; 1644 : 	void _Reserve(size_type _Count)
; 1645 : 		{	// ensure room for _Count new elements, grow exponentially
; 1646 : 		if (_Unused_capacity() < _Count)
; 1647 : 			{	// need more room, try to get it
; 1648 : 			if (max_size() - size() < _Count)
; 1649 : 				_Xlen();
; 1650 : 			_Reallocate(_Grow_to(size() + _Count));
; 1651 : 			}
; 1652 : 		}
; 1653 : 
; 1654 : 	void _Tidy()
; 1655 : 		{	// free all storage
; 1656 : 		if (this->_Myfirst() != pointer())

  00003	8b 0e		 mov	 ecx, DWORD PTR [esi]
  00005	85 c9		 test	 ecx, ecx
  00007	74 32		 je	 SHORT $LN4@vector

; 1657 : 			{	// something to free, destroy and deallocate it
; 1658 : 			this->_Orphan_all();
; 1659 : 			_Destroy(this->_Myfirst(), this->_Mylast());
; 1660 : 			this->_Getal().deallocate(this->_Myfirst(),

  00009	8b 56 08	 mov	 edx, DWORD PTR [esi+8]
  0000c	b8 ab aa aa 2a	 mov	 eax, 715827883		; 2aaaaaabH
  00011	2b d1		 sub	 edx, ecx
  00013	f7 ea		 imul	 edx
  00015	d1 fa		 sar	 edx, 1
  00017	8b c2		 mov	 eax, edx
  00019	c1 e8 1f	 shr	 eax, 31			; 0000001fH
  0001c	03 c2		 add	 eax, edx
; File c:\program files (x86)\microsoft visual studio 14.0\vc\include\xmemory0

; 909  : 		_Mybase::deallocate(_Ptr, _Count);

  0001e	50		 push	 eax
  0001f	51		 push	 ecx
  00020	8b ce		 mov	 ecx, esi
  00022	e8 00 00 00 00	 call	 ?deallocate@?$allocator@UItemPriceInfo@@@std@@QAEXPAUItemPriceInfo@@I@Z ; std::allocator<ItemPriceInfo>::deallocate
; File c:\program files (x86)\microsoft visual studio 14.0\vc\include\vector

; 1662 : 			this->_Myfirst() = pointer();

  00027	c7 06 00 00 00
	00		 mov	 DWORD PTR [esi], 0

; 1663 : 			this->_Mylast() = pointer();

  0002d	c7 46 04 00 00
	00 00		 mov	 DWORD PTR [esi+4], 0

; 1664 : 			this->_Myend() = pointer();

  00034	c7 46 08 00 00
	00 00		 mov	 DWORD PTR [esi+8], 0
$LN4@vector:
  0003b	5e		 pop	 esi

; 975  : 		_Tidy();
; 976  : 		}

  0003c	c3		 ret	 0
??1?$vector@UItemPriceInfo@@V?$allocator@UItemPriceInfo@@@std@@@std@@QAE@XZ ENDP ; std::vector<ItemPriceInfo,std::allocator<ItemPriceInfo> >::~vector<ItemPriceInfo,std::allocator<ItemPriceInfo> >
_TEXT	ENDS
; Function compile flags: /Ogtp
; File c:\program files (x86)\microsoft visual studio 14.0\vc\include\vector
;	COMDAT ??0?$vector@UItemPriceInfo@@V?$allocator@UItemPriceInfo@@@std@@@std@@QAE@XZ
_TEXT	SEGMENT
??0?$vector@UItemPriceInfo@@V?$allocator@UItemPriceInfo@@@std@@@std@@QAE@XZ PROC ; std::vector<ItemPriceInfo,std::allocator<ItemPriceInfo> >::vector<ItemPriceInfo,std::allocator<ItemPriceInfo> >, COMDAT
; _this$ = ecx

; 480  : 		_Myfirst = pointer();

  00000	c7 01 00 00 00
	00		 mov	 DWORD PTR [ecx], 0

; 707  : 		}

  00006	8b c1		 mov	 eax, ecx

; 481  : 		_Mylast = pointer();

  00008	c7 41 04 00 00
	00 00		 mov	 DWORD PTR [ecx+4], 0

; 482  : 		_Myend = pointer();

  0000f	c7 41 08 00 00
	00 00		 mov	 DWORD PTR [ecx+8], 0

; 707  : 		}

  00016	c3		 ret	 0
??0?$vector@UItemPriceInfo@@V?$allocator@UItemPriceInfo@@@std@@@std@@QAE@XZ ENDP ; std::vector<ItemPriceInfo,std::allocator<ItemPriceInfo> >::vector<ItemPriceInfo,std::allocator<ItemPriceInfo> >
_TEXT	ENDS
; Function compile flags: /Ogtp
; File c:\program files (x86)\microsoft visual studio 14.0\vc\include\xutility
;	COMDAT ?_Get_second@?$_Compressed_pair@U?$_Wrap_alloc@V?$allocator@UItemPriceInfo@@@std@@@std@@V?$_Vector_val@U?$_Simple_types@UItemPriceInfo@@@std@@@2@$00@std@@QBEABV?$_Vector_val@U?$_Simple_types@UItemPriceInfo@@@std@@@2@XZ
_TEXT	SEGMENT
?_Get_second@?$_Compressed_pair@U?$_Wrap_alloc@V?$allocator@UItemPriceInfo@@@std@@@std@@V?$_Vector_val@U?$_Simple_types@UItemPriceInfo@@@std@@@2@$00@std@@QBEABV?$_Vector_val@U?$_Simple_types@UItemPriceInfo@@@std@@@2@XZ PROC ; std::_Compressed_pair<std::_Wrap_alloc<std::allocator<ItemPriceInfo> >,std::_Vector_val<std::_Simple_types<ItemPriceInfo> >,1>::_Get_second, COMDAT
; _this$ = ecx

; 319  : 		return (_Myval2);

  00000	8b c1		 mov	 eax, ecx

; 320  : 		}

  00002	c3		 ret	 0
?_Get_second@?$_Compressed_pair@U?$_Wrap_alloc@V?$allocator@UItemPriceInfo@@@std@@@std@@V?$_Vector_val@U?$_Simple_types@UItemPriceInfo@@@std@@@2@$00@std@@QBEABV?$_Vector_val@U?$_Simple_types@UItemPriceInfo@@@std@@@2@XZ ENDP ; std::_Compressed_pair<std::_Wrap_alloc<std::allocator<ItemPriceInfo> >,std::_Vector_val<std::_Simple_types<ItemPriceInfo> >,1>::_Get_second
_TEXT	ENDS
; Function compile flags: /Ogtp
; File c:\program files (x86)\microsoft visual studio 14.0\vc\include\xutility
;	COMDAT ?_Get_second@?$_Compressed_pair@U?$_Wrap_alloc@V?$allocator@UItemPriceInfo@@@std@@@std@@V?$_Vector_val@U?$_Simple_types@UItemPriceInfo@@@std@@@2@$00@std@@QAEAAV?$_Vector_val@U?$_Simple_types@UItemPriceInfo@@@std@@@2@XZ
_TEXT	SEGMENT
?_Get_second@?$_Compressed_pair@U?$_Wrap_alloc@V?$allocator@UItemPriceInfo@@@std@@@std@@V?$_Vector_val@U?$_Simple_types@UItemPriceInfo@@@std@@@2@$00@std@@QAEAAV?$_Vector_val@U?$_Simple_types@UItemPriceInfo@@@std@@@2@XZ PROC ; std::_Compressed_pair<std::_Wrap_alloc<std::allocator<ItemPriceInfo> >,std::_Vector_val<std::_Simple_types<ItemPriceInfo> >,1>::_Get_second, COMDAT
; _this$ = ecx

; 314  : 		return (_Myval2);

  00000	8b c1		 mov	 eax, ecx

; 315  : 		}

  00002	c3		 ret	 0
?_Get_second@?$_Compressed_pair@U?$_Wrap_alloc@V?$allocator@UItemPriceInfo@@@std@@@std@@V?$_Vector_val@U?$_Simple_types@UItemPriceInfo@@@std@@@2@$00@std@@QAEAAV?$_Vector_val@U?$_Simple_types@UItemPriceInfo@@@std@@@2@XZ ENDP ; std::_Compressed_pair<std::_Wrap_alloc<std::allocator<ItemPriceInfo> >,std::_Vector_val<std::_Simple_types<ItemPriceInfo> >,1>::_Get_second
_TEXT	ENDS
; Function compile flags: /Ogtp
; File c:\program files (x86)\microsoft visual studio 14.0\vc\include\xutility
;	COMDAT ?_Get_first@?$_Compressed_pair@U?$_Wrap_alloc@V?$allocator@UItemPriceInfo@@@std@@@std@@V?$_Vector_val@U?$_Simple_types@UItemPriceInfo@@@std@@@2@$00@std@@QBEABU?$_Wrap_alloc@V?$allocator@UItemPriceInfo@@@std@@@2@XZ
_TEXT	SEGMENT
?_Get_first@?$_Compressed_pair@U?$_Wrap_alloc@V?$allocator@UItemPriceInfo@@@std@@@std@@V?$_Vector_val@U?$_Simple_types@UItemPriceInfo@@@std@@@2@$00@std@@QBEABU?$_Wrap_alloc@V?$allocator@UItemPriceInfo@@@std@@@2@XZ PROC ; std::_Compressed_pair<std::_Wrap_alloc<std::allocator<ItemPriceInfo> >,std::_Vector_val<std::_Simple_types<ItemPriceInfo> >,1>::_Get_first, COMDAT
; _this$ = ecx

; 299  : 		return (*this);

  00000	8b c1		 mov	 eax, ecx

; 300  : 		}

  00002	c3		 ret	 0
?_Get_first@?$_Compressed_pair@U?$_Wrap_alloc@V?$allocator@UItemPriceInfo@@@std@@@std@@V?$_Vector_val@U?$_Simple_types@UItemPriceInfo@@@std@@@2@$00@std@@QBEABU?$_Wrap_alloc@V?$allocator@UItemPriceInfo@@@std@@@2@XZ ENDP ; std::_Compressed_pair<std::_Wrap_alloc<std::allocator<ItemPriceInfo> >,std::_Vector_val<std::_Simple_types<ItemPriceInfo> >,1>::_Get_first
_TEXT	ENDS
; Function compile flags: /Ogtp
; File c:\program files (x86)\microsoft visual studio 14.0\vc\include\xutility
;	COMDAT ?_Get_first@?$_Compressed_pair@U?$_Wrap_alloc@V?$allocator@UItemPriceInfo@@@std@@@std@@V?$_Vector_val@U?$_Simple_types@UItemPriceInfo@@@std@@@2@$00@std@@QAEAAU?$_Wrap_alloc@V?$allocator@UItemPriceInfo@@@std@@@2@XZ
_TEXT	SEGMENT
?_Get_first@?$_Compressed_pair@U?$_Wrap_alloc@V?$allocator@UItemPriceInfo@@@std@@@std@@V?$_Vector_val@U?$_Simple_types@UItemPriceInfo@@@std@@@2@$00@std@@QAEAAU?$_Wrap_alloc@V?$allocator@UItemPriceInfo@@@std@@@2@XZ PROC ; std::_Compressed_pair<std::_Wrap_alloc<std::allocator<ItemPriceInfo> >,std::_Vector_val<std::_Simple_types<ItemPriceInfo> >,1>::_Get_first, COMDAT
; _this$ = ecx

; 294  : 		return (*this);

  00000	8b c1		 mov	 eax, ecx

; 295  : 		}

  00002	c3		 ret	 0
?_Get_first@?$_Compressed_pair@U?$_Wrap_alloc@V?$allocator@UItemPriceInfo@@@std@@@std@@V?$_Vector_val@U?$_Simple_types@UItemPriceInfo@@@std@@@2@$00@std@@QAEAAU?$_Wrap_alloc@V?$allocator@UItemPriceInfo@@@std@@@2@XZ ENDP ; std::_Compressed_pair<std::_Wrap_alloc<std::allocator<ItemPriceInfo> >,std::_Vector_val<std::_Simple_types<ItemPriceInfo> >,1>::_Get_first
_TEXT	ENDS
; Function compile flags: /Ogtp
; File c:\program files (x86)\microsoft visual studio 14.0\vc\include\vector
;	COMDAT ??0?$_Vector_val@U?$_Simple_types@UItemPriceInfo@@@std@@@std@@QAE@XZ
_TEXT	SEGMENT
??0?$_Vector_val@U?$_Simple_types@UItemPriceInfo@@@std@@@std@@QAE@XZ PROC ; std::_Vector_val<std::_Simple_types<ItemPriceInfo> >::_Vector_val<std::_Simple_types<ItemPriceInfo> >, COMDAT
; _this$ = ecx

; 479  : 		{	// initialize values
; 480  : 		_Myfirst = pointer();

  00000	c7 01 00 00 00
	00		 mov	 DWORD PTR [ecx], 0

; 481  : 		_Mylast = pointer();
; 482  : 		_Myend = pointer();
; 483  : 		}

  00006	8b c1		 mov	 eax, ecx
  00008	c7 41 04 00 00
	00 00		 mov	 DWORD PTR [ecx+4], 0
  0000f	c7 41 08 00 00
	00 00		 mov	 DWORD PTR [ecx+8], 0
  00016	c3		 ret	 0
??0?$_Vector_val@U?$_Simple_types@UItemPriceInfo@@@std@@@std@@QAE@XZ ENDP ; std::_Vector_val<std::_Simple_types<ItemPriceInfo> >::_Vector_val<std::_Simple_types<ItemPriceInfo> >
_TEXT	ENDS
; Function compile flags: /Ogtp
; File c:\program files (x86)\microsoft visual studio 14.0\vc\include\vector
;	COMDAT ?_Myend@?$_Vector_alloc@U?$_Vec_base_types@UItemPriceInfo@@V?$allocator@UItemPriceInfo@@@std@@@std@@@std@@QBEABQAUItemPriceInfo@@XZ
_TEXT	SEGMENT
?_Myend@?$_Vector_alloc@U?$_Vec_base_types@UItemPriceInfo@@V?$allocator@UItemPriceInfo@@@std@@@std@@@std@@QBEABQAUItemPriceInfo@@XZ PROC ; std::_Vector_alloc<std::_Vec_base_types<ItemPriceInfo,std::allocator<ItemPriceInfo> > >::_Myend, COMDAT
; _this$ = ecx

; 667  : 		return (_Get_data()._Myend);

  00000	8d 41 08	 lea	 eax, DWORD PTR [ecx+8]

; 668  : 		}

  00003	c3		 ret	 0
?_Myend@?$_Vector_alloc@U?$_Vec_base_types@UItemPriceInfo@@V?$allocator@UItemPriceInfo@@@std@@@std@@@std@@QBEABQAUItemPriceInfo@@XZ ENDP ; std::_Vector_alloc<std::_Vec_base_types<ItemPriceInfo,std::allocator<ItemPriceInfo> > >::_Myend
_TEXT	ENDS
; Function compile flags: /Ogtp
; File c:\program files (x86)\microsoft visual studio 14.0\vc\include\vector
;	COMDAT ?_Myend@?$_Vector_alloc@U?$_Vec_base_types@UItemPriceInfo@@V?$allocator@UItemPriceInfo@@@std@@@std@@@std@@QAEAAPAUItemPriceInfo@@XZ
_TEXT	SEGMENT
?_Myend@?$_Vector_alloc@U?$_Vec_base_types@UItemPriceInfo@@V?$allocator@UItemPriceInfo@@@std@@@std@@@std@@QAEAAPAUItemPriceInfo@@XZ PROC ; std::_Vector_alloc<std::_Vec_base_types<ItemPriceInfo,std::allocator<ItemPriceInfo> > >::_Myend, COMDAT
; _this$ = ecx

; 662  : 		return (_Get_data()._Myend);

  00000	8d 41 08	 lea	 eax, DWORD PTR [ecx+8]

; 663  : 		}

  00003	c3		 ret	 0
?_Myend@?$_Vector_alloc@U?$_Vec_base_types@UItemPriceInfo@@V?$allocator@UItemPriceInfo@@@std@@@std@@@std@@QAEAAPAUItemPriceInfo@@XZ ENDP ; std::_Vector_alloc<std::_Vec_base_types<ItemPriceInfo,std::allocator<ItemPriceInfo> > >::_Myend
_TEXT	ENDS
; Function compile flags: /Ogtp
; File c:\program files (x86)\microsoft visual studio 14.0\vc\include\vector
;	COMDAT ?_Mylast@?$_Vector_alloc@U?$_Vec_base_types@UItemPriceInfo@@V?$allocator@UItemPriceInfo@@@std@@@std@@@std@@QBEABQAUItemPriceInfo@@XZ
_TEXT	SEGMENT
?_Mylast@?$_Vector_alloc@U?$_Vec_base_types@UItemPriceInfo@@V?$allocator@UItemPriceInfo@@@std@@@std@@@std@@QBEABQAUItemPriceInfo@@XZ PROC ; std::_Vector_alloc<std::_Vec_base_types<ItemPriceInfo,std::allocator<ItemPriceInfo> > >::_Mylast, COMDAT
; _this$ = ecx

; 657  : 		return (_Get_data()._Mylast);

  00000	8d 41 04	 lea	 eax, DWORD PTR [ecx+4]

; 658  : 		}

  00003	c3		 ret	 0
?_Mylast@?$_Vector_alloc@U?$_Vec_base_types@UItemPriceInfo@@V?$allocator@UItemPriceInfo@@@std@@@std@@@std@@QBEABQAUItemPriceInfo@@XZ ENDP ; std::_Vector_alloc<std::_Vec_base_types<ItemPriceInfo,std::allocator<ItemPriceInfo> > >::_Mylast
_TEXT	ENDS
; Function compile flags: /Ogtp
; File c:\program files (x86)\microsoft visual studio 14.0\vc\include\vector
;	COMDAT ?_Mylast@?$_Vector_alloc@U?$_Vec_base_types@UItemPriceInfo@@V?$allocator@UItemPriceInfo@@@std@@@std@@@std@@QAEAAPAUItemPriceInfo@@XZ
_TEXT	SEGMENT
?_Mylast@?$_Vector_alloc@U?$_Vec_base_types@UItemPriceInfo@@V?$allocator@UItemPriceInfo@@@std@@@std@@@std@@QAEAAPAUItemPriceInfo@@XZ PROC ; std::_Vector_alloc<std::_Vec_base_types<ItemPriceInfo,std::allocator<ItemPriceInfo> > >::_Mylast, COMDAT
; _this$ = ecx

; 652  : 		return (_Get_data()._Mylast);

  00000	8d 41 04	 lea	 eax, DWORD PTR [ecx+4]

; 653  : 		}

  00003	c3		 ret	 0
?_Mylast@?$_Vector_alloc@U?$_Vec_base_types@UItemPriceInfo@@V?$allocator@UItemPriceInfo@@@std@@@std@@@std@@QAEAAPAUItemPriceInfo@@XZ ENDP ; std::_Vector_alloc<std::_Vec_base_types<ItemPriceInfo,std::allocator<ItemPriceInfo> > >::_Mylast
_TEXT	ENDS
; Function compile flags: /Ogtp
; File c:\program files (x86)\microsoft visual studio 14.0\vc\include\vector
;	COMDAT ?_Myfirst@?$_Vector_alloc@U?$_Vec_base_types@UItemPriceInfo@@V?$allocator@UItemPriceInfo@@@std@@@std@@@std@@QBEABQAUItemPriceInfo@@XZ
_TEXT	SEGMENT
?_Myfirst@?$_Vector_alloc@U?$_Vec_base_types@UItemPriceInfo@@V?$allocator@UItemPriceInfo@@@std@@@std@@@std@@QBEABQAUItemPriceInfo@@XZ PROC ; std::_Vector_alloc<std::_Vec_base_types<ItemPriceInfo,std::allocator<ItemPriceInfo> > >::_Myfirst, COMDAT
; _this$ = ecx

; 647  : 		return (_Get_data()._Myfirst);

  00000	8b c1		 mov	 eax, ecx

; 648  : 		}

  00002	c3		 ret	 0
?_Myfirst@?$_Vector_alloc@U?$_Vec_base_types@UItemPriceInfo@@V?$allocator@UItemPriceInfo@@@std@@@std@@@std@@QBEABQAUItemPriceInfo@@XZ ENDP ; std::_Vector_alloc<std::_Vec_base_types<ItemPriceInfo,std::allocator<ItemPriceInfo> > >::_Myfirst
_TEXT	ENDS
; Function compile flags: /Ogtp
; File c:\program files (x86)\microsoft visual studio 14.0\vc\include\vector
;	COMDAT ?_Myfirst@?$_Vector_alloc@U?$_Vec_base_types@UItemPriceInfo@@V?$allocator@UItemPriceInfo@@@std@@@std@@@std@@QAEAAPAUItemPriceInfo@@XZ
_TEXT	SEGMENT
?_Myfirst@?$_Vector_alloc@U?$_Vec_base_types@UItemPriceInfo@@V?$allocator@UItemPriceInfo@@@std@@@std@@@std@@QAEAAPAUItemPriceInfo@@XZ PROC ; std::_Vector_alloc<std::_Vec_base_types<ItemPriceInfo,std::allocator<ItemPriceInfo> > >::_Myfirst, COMDAT
; _this$ = ecx

; 642  : 		return (_Get_data()._Myfirst);

  00000	8b c1		 mov	 eax, ecx

; 643  : 		}

  00002	c3		 ret	 0
?_Myfirst@?$_Vector_alloc@U?$_Vec_base_types@UItemPriceInfo@@V?$allocator@UItemPriceInfo@@@std@@@std@@@std@@QAEAAPAUItemPriceInfo@@XZ ENDP ; std::_Vector_alloc<std::_Vec_base_types<ItemPriceInfo,std::allocator<ItemPriceInfo> > >::_Myfirst
_TEXT	ENDS
; Function compile flags: /Ogtp
; File c:\program files (x86)\microsoft visual studio 14.0\vc\include\vector
;	COMDAT ?_Get_data@?$_Vector_alloc@U?$_Vec_base_types@UItemPriceInfo@@V?$allocator@UItemPriceInfo@@@std@@@std@@@std@@QBEABV?$_Vector_val@U?$_Simple_types@UItemPriceInfo@@@std@@@2@XZ
_TEXT	SEGMENT
?_Get_data@?$_Vector_alloc@U?$_Vec_base_types@UItemPriceInfo@@V?$allocator@UItemPriceInfo@@@std@@@std@@@std@@QBEABV?$_Vector_val@U?$_Simple_types@UItemPriceInfo@@@std@@@2@XZ PROC ; std::_Vector_alloc<std::_Vec_base_types<ItemPriceInfo,std::allocator<ItemPriceInfo> > >::_Get_data, COMDAT
; _this$ = ecx

; 637  : 		return (_Mypair._Get_second());

  00000	8b c1		 mov	 eax, ecx

; 638  : 		}

  00002	c3		 ret	 0
?_Get_data@?$_Vector_alloc@U?$_Vec_base_types@UItemPriceInfo@@V?$allocator@UItemPriceInfo@@@std@@@std@@@std@@QBEABV?$_Vector_val@U?$_Simple_types@UItemPriceInfo@@@std@@@2@XZ ENDP ; std::_Vector_alloc<std::_Vec_base_types<ItemPriceInfo,std::allocator<ItemPriceInfo> > >::_Get_data
_TEXT	ENDS
; Function compile flags: /Ogtp
; File c:\program files (x86)\microsoft visual studio 14.0\vc\include\vector
;	COMDAT ?_Get_data@?$_Vector_alloc@U?$_Vec_base_types@UItemPriceInfo@@V?$allocator@UItemPriceInfo@@@std@@@std@@@std@@QAEAAV?$_Vector_val@U?$_Simple_types@UItemPriceInfo@@@std@@@2@XZ
_TEXT	SEGMENT
?_Get_data@?$_Vector_alloc@U?$_Vec_base_types@UItemPriceInfo@@V?$allocator@UItemPriceInfo@@@std@@@std@@@std@@QAEAAV?$_Vector_val@U?$_Simple_types@UItemPriceInfo@@@std@@@2@XZ PROC ; std::_Vector_alloc<std::_Vec_base_types<ItemPriceInfo,std::allocator<ItemPriceInfo> > >::_Get_data, COMDAT
; _this$ = ecx

; 632  : 		return (_Mypair._Get_second());

  00000	8b c1		 mov	 eax, ecx

; 633  : 		}

  00002	c3		 ret	 0
?_Get_data@?$_Vector_alloc@U?$_Vec_base_types@UItemPriceInfo@@V?$allocator@UItemPriceInfo@@@std@@@std@@@std@@QAEAAV?$_Vector_val@U?$_Simple_types@UItemPriceInfo@@@std@@@2@XZ ENDP ; std::_Vector_alloc<std::_Vec_base_types<ItemPriceInfo,std::allocator<ItemPriceInfo> > >::_Get_data
_TEXT	ENDS
; Function compile flags: /Ogtp
; File c:\program files (x86)\microsoft visual studio 14.0\vc\include\vector
;	COMDAT ?_Getal@?$_Vector_alloc@U?$_Vec_base_types@UItemPriceInfo@@V?$allocator@UItemPriceInfo@@@std@@@std@@@std@@QBEABU?$_Wrap_alloc@V?$allocator@UItemPriceInfo@@@std@@@2@XZ
_TEXT	SEGMENT
?_Getal@?$_Vector_alloc@U?$_Vec_base_types@UItemPriceInfo@@V?$allocator@UItemPriceInfo@@@std@@@std@@@std@@QBEABU?$_Wrap_alloc@V?$allocator@UItemPriceInfo@@@std@@@2@XZ PROC ; std::_Vector_alloc<std::_Vec_base_types<ItemPriceInfo,std::allocator<ItemPriceInfo> > >::_Getal, COMDAT
; _this$ = ecx

; 627  : 		return (_Mypair._Get_first());

  00000	8b c1		 mov	 eax, ecx

; 628  : 		}

  00002	c3		 ret	 0
?_Getal@?$_Vector_alloc@U?$_Vec_base_types@UItemPriceInfo@@V?$allocator@UItemPriceInfo@@@std@@@std@@@std@@QBEABU?$_Wrap_alloc@V?$allocator@UItemPriceInfo@@@std@@@2@XZ ENDP ; std::_Vector_alloc<std::_Vec_base_types<ItemPriceInfo,std::allocator<ItemPriceInfo> > >::_Getal
_TEXT	ENDS
; Function compile flags: /Ogtp
; File c:\program files (x86)\microsoft visual studio 14.0\vc\include\vector
;	COMDAT ?_Getal@?$_Vector_alloc@U?$_Vec_base_types@UItemPriceInfo@@V?$allocator@UItemPriceInfo@@@std@@@std@@@std@@QAEAAU?$_Wrap_alloc@V?$allocator@UItemPriceInfo@@@std@@@2@XZ
_TEXT	SEGMENT
?_Getal@?$_Vector_alloc@U?$_Vec_base_types@UItemPriceInfo@@V?$allocator@UItemPriceInfo@@@std@@@std@@@std@@QAEAAU?$_Wrap_alloc@V?$allocator@UItemPriceInfo@@@std@@@2@XZ PROC ; std::_Vector_alloc<std::_Vec_base_types<ItemPriceInfo,std::allocator<ItemPriceInfo> > >::_Getal, COMDAT
; _this$ = ecx

; 622  : 		return (_Mypair._Get_first());

  00000	8b c1		 mov	 eax, ecx

; 623  : 		}

  00002	c3		 ret	 0
?_Getal@?$_Vector_alloc@U?$_Vec_base_types@UItemPriceInfo@@V?$allocator@UItemPriceInfo@@@std@@@std@@@std@@QAEAAU?$_Wrap_alloc@V?$allocator@UItemPriceInfo@@@std@@@2@XZ ENDP ; std::_Vector_alloc<std::_Vec_base_types<ItemPriceInfo,std::allocator<ItemPriceInfo> > >::_Getal
_TEXT	ENDS
; Function compile flags: /Ogtp
; File c:\program files (x86)\microsoft visual studio 14.0\vc\include\vector
;	COMDAT ?_Swap_all@?$_Vector_alloc@U?$_Vec_base_types@UItemPriceInfo@@V?$allocator@UItemPriceInfo@@@std@@@std@@@std@@QAEXAAV12@@Z
_TEXT	SEGMENT
__Right$ = 8						; size = 4
?_Swap_all@?$_Vector_alloc@U?$_Vec_base_types@UItemPriceInfo@@V?$allocator@UItemPriceInfo@@@std@@@std@@@std@@QAEXAAV12@@Z PROC ; std::_Vector_alloc<std::_Vec_base_types<ItemPriceInfo,std::allocator<ItemPriceInfo> > >::_Swap_all, COMDAT
; _this$ = ecx

; 617  : 		_Get_data()._Swap_all(_Right._Get_data());
; 618  : 		}

  00000	c2 04 00	 ret	 4
?_Swap_all@?$_Vector_alloc@U?$_Vec_base_types@UItemPriceInfo@@V?$allocator@UItemPriceInfo@@@std@@@std@@@std@@QAEXAAV12@@Z ENDP ; std::_Vector_alloc<std::_Vec_base_types<ItemPriceInfo,std::allocator<ItemPriceInfo> > >::_Swap_all
_TEXT	ENDS
; Function compile flags: /Ogtp
; File c:\program files (x86)\microsoft visual studio 14.0\vc\include\vector
;	COMDAT ?_Orphan_all@?$_Vector_alloc@U?$_Vec_base_types@UItemPriceInfo@@V?$allocator@UItemPriceInfo@@@std@@@std@@@std@@QAEXXZ
_TEXT	SEGMENT
?_Orphan_all@?$_Vector_alloc@U?$_Vec_base_types@UItemPriceInfo@@V?$allocator@UItemPriceInfo@@@std@@@std@@@std@@QAEXXZ PROC ; std::_Vector_alloc<std::_Vec_base_types<ItemPriceInfo,std::allocator<ItemPriceInfo> > >::_Orphan_all, COMDAT
; _this$ = ecx

; 612  : 		_Get_data()._Orphan_all();
; 613  : 		}

  00000	c3		 ret	 0
?_Orphan_all@?$_Vector_alloc@U?$_Vec_base_types@UItemPriceInfo@@V?$allocator@UItemPriceInfo@@@std@@@std@@@std@@QAEXXZ ENDP ; std::_Vector_alloc<std::_Vec_base_types<ItemPriceInfo,std::allocator<ItemPriceInfo> > >::_Orphan_all
_TEXT	ENDS
; Function compile flags: /Ogtp
; File c:\program files (x86)\microsoft visual studio 14.0\vc\include\vector
;	COMDAT ?_Swap_alloc@?$_Vector_alloc@U?$_Vec_base_types@UItemPriceInfo@@V?$allocator@UItemPriceInfo@@@std@@@std@@@std@@QAEXAAV12@@Z
_TEXT	SEGMENT
__Right$ = 8						; size = 4
?_Swap_alloc@?$_Vector_alloc@U?$_Vec_base_types@UItemPriceInfo@@V?$allocator@UItemPriceInfo@@@std@@@std@@@std@@QAEXAAV12@@Z PROC ; std::_Vector_alloc<std::_Vec_base_types<ItemPriceInfo,std::allocator<ItemPriceInfo> > >::_Swap_alloc, COMDAT
; _this$ = ecx

; 534  : 		_Pocs(_Getal(), _Right._Getal());
; 535  : 		}

  00000	c2 04 00	 ret	 4
?_Swap_alloc@?$_Vector_alloc@U?$_Vec_base_types@UItemPriceInfo@@V?$allocator@UItemPriceInfo@@@std@@@std@@@std@@QAEXAAV12@@Z ENDP ; std::_Vector_alloc<std::_Vec_base_types<ItemPriceInfo,std::allocator<ItemPriceInfo> > >::_Swap_alloc
_TEXT	ENDS
; Function compile flags: /Ogtp
; File c:\program files (x86)\microsoft visual studio 14.0\vc\include\vector
;	COMDAT ??0?$_Vector_alloc@U?$_Vec_base_types@UItemPriceInfo@@V?$allocator@UItemPriceInfo@@@std@@@std@@@std@@QAE@ABV?$allocator@UItemPriceInfo@@@1@@Z
_TEXT	SEGMENT
__Al$ = 8						; size = 4
??0?$_Vector_alloc@U?$_Vec_base_types@UItemPriceInfo@@V?$allocator@UItemPriceInfo@@@std@@@std@@@std@@QAE@ABV?$allocator@UItemPriceInfo@@@1@@Z PROC ; std::_Vector_alloc<std::_Vec_base_types<ItemPriceInfo,std::allocator<ItemPriceInfo> > >::_Vector_alloc<std::_Vec_base_types<ItemPriceInfo,std::allocator<ItemPriceInfo> > >, COMDAT
; _this$ = ecx

; 480  : 		_Myfirst = pointer();

  00000	c7 01 00 00 00
	00		 mov	 DWORD PTR [ecx], 0

; 515  : 		}

  00006	8b c1		 mov	 eax, ecx

; 481  : 		_Mylast = pointer();

  00008	c7 41 04 00 00
	00 00		 mov	 DWORD PTR [ecx+4], 0

; 482  : 		_Myend = pointer();

  0000f	c7 41 08 00 00
	00 00		 mov	 DWORD PTR [ecx+8], 0

; 515  : 		}

  00016	c2 04 00	 ret	 4
??0?$_Vector_alloc@U?$_Vec_base_types@UItemPriceInfo@@V?$allocator@UItemPriceInfo@@@std@@@std@@@std@@QAE@ABV?$allocator@UItemPriceInfo@@@1@@Z ENDP ; std::_Vector_alloc<std::_Vec_base_types<ItemPriceInfo,std::allocator<ItemPriceInfo> > >::_Vector_alloc<std::_Vec_base_types<ItemPriceInfo,std::allocator<ItemPriceInfo> > >
_TEXT	ENDS
; Function compile flags: /Ogtp
; File c:\program files (x86)\microsoft visual studio 14.0\vc\include\xmemory0
;	COMDAT ?max_size@?$_Wrap_alloc@V?$allocator@UItemPriceInfo@@@std@@@std@@QBEIU_Nil@2@@Z
_TEXT	SEGMENT
___formal$ = 8						; size = 1
?max_size@?$_Wrap_alloc@V?$allocator@UItemPriceInfo@@@std@@@std@@QBEIU_Nil@2@@Z PROC ; std::_Wrap_alloc<std::allocator<ItemPriceInfo> >::max_size, COMDAT
; _this$ = ecx

; 930  : 		return (_Mytraits::max_size(*this));

  00000	b8 55 55 55 15	 mov	 eax, 357913941		; 15555555H

; 931  : 		}

  00005	c2 04 00	 ret	 4
?max_size@?$_Wrap_alloc@V?$allocator@UItemPriceInfo@@@std@@@std@@QBEIU_Nil@2@@Z ENDP ; std::_Wrap_alloc<std::allocator<ItemPriceInfo> >::max_size
_TEXT	ENDS
; Function compile flags: /Ogtp
; File c:\program files (x86)\microsoft visual studio 14.0\vc\include\xmemory0
;	COMDAT ?deallocate@?$_Wrap_alloc@V?$allocator@UItemPriceInfo@@@std@@@std@@QAEXPAUItemPriceInfo@@I@Z
_TEXT	SEGMENT
__Ptr$ = 8						; size = 4
__Count$ = 12						; size = 4
?deallocate@?$_Wrap_alloc@V?$allocator@UItemPriceInfo@@@std@@@std@@QAEXPAUItemPriceInfo@@I@Z PROC ; std::_Wrap_alloc<std::allocator<ItemPriceInfo> >::deallocate, COMDAT
; _this$ = ecx

; 908  : 		{	// deallocate object at _Ptr, ignore size

  00000	55		 push	 ebp
  00001	8b ec		 mov	 ebp, esp

; 910  : 		}

  00003	5d		 pop	 ebp

; 909  : 		_Mybase::deallocate(_Ptr, _Count);

  00004	e9 00 00 00 00	 jmp	 ?deallocate@?$allocator@UItemPriceInfo@@@std@@QAEXPAUItemPriceInfo@@I@Z ; std::allocator<ItemPriceInfo>::deallocate
?deallocate@?$_Wrap_alloc@V?$allocator@UItemPriceInfo@@@std@@@std@@QAEXPAUItemPriceInfo@@I@Z ENDP ; std::_Wrap_alloc<std::allocator<ItemPriceInfo> >::deallocate
_TEXT	ENDS
; Function compile flags: /Ogtp
; File c:\program files (x86)\microsoft visual studio 14.0\vc\include\xmemory0
;	COMDAT ?allocate@?$_Wrap_alloc@V?$allocator@UItemPriceInfo@@@std@@@std@@QAEPAUItemPriceInfo@@I@Z
_TEXT	SEGMENT
__Count$ = 8						; size = 4
?allocate@?$_Wrap_alloc@V?$allocator@UItemPriceInfo@@@std@@@std@@QAEPAUItemPriceInfo@@I@Z PROC ; std::_Wrap_alloc<std::allocator<ItemPriceInfo> >::allocate, COMDAT
; _this$ = ecx

; 897  : 		{	// allocate array of _Count elements

  00000	55		 push	 ebp
  00001	8b ec		 mov	 ebp, esp

; 899  : 		}

  00003	5d		 pop	 ebp

; 898  : 		return (_Mybase::allocate(_Count));

  00004	e9 00 00 00 00	 jmp	 ?allocate@?$allocator@UItemPriceInfo@@@std@@QAEPAUItemPriceInfo@@I@Z ; std::allocator<ItemPriceInfo>::allocate
?allocate@?$_Wrap_alloc@V?$allocator@UItemPriceInfo@@@std@@@std@@QAEPAUItemPriceInfo@@I@Z ENDP ; std::_Wrap_alloc<std::allocator<ItemPriceInfo> >::allocate
_TEXT	ENDS
; Function compile flags: /Ogtp
; File c:\program files (x86)\microsoft visual studio 14.0\vc\include\xmemory0
;	COMDAT ??0?$_Wrap_alloc@V?$allocator@UItemPriceInfo@@@std@@@std@@QAE@ABV?$allocator@UItemPriceInfo@@@1@@Z
_TEXT	SEGMENT
__Right$ = 8						; size = 4
??0?$_Wrap_alloc@V?$allocator@UItemPriceInfo@@@std@@@std@@QAE@ABV?$allocator@UItemPriceInfo@@@1@@Z PROC ; std::_Wrap_alloc<std::allocator<ItemPriceInfo> >::_Wrap_alloc<std::allocator<ItemPriceInfo> >, COMDAT
; _this$ = ecx

; 858  : 		}

  00000	8b c1		 mov	 eax, ecx
  00002	c2 04 00	 ret	 4
??0?$_Wrap_alloc@V?$allocator@UItemPriceInfo@@@std@@@std@@QAE@ABV?$allocator@UItemPriceInfo@@@1@@Z ENDP ; std::_Wrap_alloc<std::allocator<ItemPriceInfo> >::_Wrap_alloc<std::allocator<ItemPriceInfo> >
_TEXT	ENDS
; Function compile flags: /Ogtp
; File c:\program files (x86)\microsoft visual studio 14.0\vc\include\xmemory0
;	COMDAT ?max_size@?$allocator_traits@V?$allocator@UItemPriceInfo@@@std@@@std@@SAIABV?$allocator@UItemPriceInfo@@@2@@Z
_TEXT	SEGMENT
__Al$ = 8						; size = 4
?max_size@?$allocator_traits@V?$allocator@UItemPriceInfo@@@std@@@std@@SAIABV?$allocator@UItemPriceInfo@@@2@@Z PROC ; std::allocator_traits<std::allocator<ItemPriceInfo> >::max_size, COMDAT

; 785  : 		return (_Al.max_size());

  00000	b8 55 55 55 15	 mov	 eax, 357913941		; 15555555H

; 786  : 		}

  00005	c3		 ret	 0
?max_size@?$allocator_traits@V?$allocator@UItemPriceInfo@@@std@@@std@@SAIABV?$allocator@UItemPriceInfo@@@2@@Z ENDP ; std::allocator_traits<std::allocator<ItemPriceInfo> >::max_size
_TEXT	ENDS
; Function compile flags: /Ogtp
; File c:\program files (x86)\microsoft visual studio 14.0\vc\include\xmemory0
;	COMDAT ?max_size@?$allocator@UItemPriceInfo@@@std@@QBEIXZ
_TEXT	SEGMENT
?max_size@?$allocator@UItemPriceInfo@@@std@@QBEIXZ PROC	; std::allocator<ItemPriceInfo>::max_size, COMDAT
; _this$ = ecx

; 667  : 		return ((size_t)(-1) / sizeof (_Ty));

  00000	b8 55 55 55 15	 mov	 eax, 357913941		; 15555555H

; 668  : 		}

  00005	c3		 ret	 0
?max_size@?$allocator@UItemPriceInfo@@@std@@QBEIXZ ENDP	; std::allocator<ItemPriceInfo>::max_size
_TEXT	ENDS
; Function compile flags: /Ogtp
; File c:\program files (x86)\microsoft visual studio 14.0\vc\include\xmemory0
;	COMDAT ?allocate@?$allocator@UItemPriceInfo@@@std@@QAEPAUItemPriceInfo@@I@Z
_TEXT	SEGMENT
__Count$ = 8						; size = 4
?allocate@?$allocator@UItemPriceInfo@@@std@@QAEPAUItemPriceInfo@@I@Z PROC ; std::allocator<ItemPriceInfo>::allocate, COMDAT
; _this$ = ecx

; 642  : 		{	// allocate array of _Count elements

  00000	55		 push	 ebp
  00001	8b ec		 mov	 ebp, esp

; 57   : 	if (_Count == 0)

  00003	8b 45 08	 mov	 eax, DWORD PTR __Count$[ebp]
  00006	85 c0		 test	 eax, eax
  00008	75 04		 jne	 SHORT $LN4@allocate
$LN12@allocate:

; 643  : 		return (static_cast<pointer>(_Allocate(_Count, sizeof (_Ty))));
; 644  : 		}

  0000a	5d		 pop	 ebp
  0000b	c2 04 00	 ret	 4
$LN4@allocate:

; 58   : 		return (_Ptr);
; 59   : 
; 60   : 	// check overflow of multiply
; 61   : 	if ((size_t)(-1) / _Sz < _Count)

  0000e	3d 55 55 55 15	 cmp	 eax, 357913941		; 15555555H
  00013	77 3f		 ja	 SHORT $LN14@allocate

; 63   : 	const size_t _User_size = _Count * _Sz;

  00015	8d 04 40	 lea	 eax, DWORD PTR [eax+eax*2]
  00018	c1 e0 02	 shl	 eax, 2

; 64   : 
; 65   :  #if defined(_M_IX86) || defined(_M_X64)
; 66   : 	if (_Try_aligned_allocation
; 67   : 		&& _BIG_ALLOCATION_THRESHOLD <= _User_size)

  0001b	3d 00 10 00 00	 cmp	 eax, 4096		; 00001000H
  00020	72 23		 jb	 SHORT $LN6@allocate

; 68   : 		{	// allocate large block
; 69   : 		static_assert(sizeof (void *) < _BIG_ALLOCATION_ALIGNMENT,
; 70   : 			"Big allocations should at least match vector register size");
; 71   : 		const size_t _Block_size = _NON_USER_SIZE + _User_size;

  00022	8d 48 23	 lea	 ecx, DWORD PTR [eax+35]

; 72   : 		if (_Block_size <= _User_size)

  00025	3b c8		 cmp	 ecx, eax
  00027	76 30		 jbe	 SHORT $LN16@allocate

; 74   : 		const uintptr_t _Ptr_container =
; 75   : 			reinterpret_cast<uintptr_t>(::operator new(_Block_size));

  00029	51		 push	 ecx
  0002a	e8 00 00 00 00	 call	 ??2@YAPAXI@Z		; operator new
  0002f	8b c8		 mov	 ecx, eax
  00031	83 c4 04	 add	 esp, 4

; 76   : 		_SCL_SECURE_ALWAYS_VALIDATE(_Ptr_container != 0);

  00034	85 c9		 test	 ecx, ecx
  00036	74 26		 je	 SHORT $LN17@allocate

; 77   : 		_Ptr = reinterpret_cast<void *>((_Ptr_container + _NON_USER_SIZE)

  00038	8d 41 23	 lea	 eax, DWORD PTR [ecx+35]
  0003b	83 e0 e0	 and	 eax, -32		; ffffffe0H

; 78   : 			& ~(_BIG_ALLOCATION_ALIGNMENT - 1));
; 79   : 		static_cast<uintptr_t *>(_Ptr)[-1] = _Ptr_container;

  0003e	89 48 fc	 mov	 DWORD PTR [eax-4], ecx

; 643  : 		return (static_cast<pointer>(_Allocate(_Count, sizeof (_Ty))));
; 644  : 		}

  00041	5d		 pop	 ebp
  00042	c2 04 00	 ret	 4
$LN6@allocate:

; 80   : 
; 81   :  #ifdef _DEBUG
; 82   : 		static_cast<uintptr_t *>(_Ptr)[-2] = _BIG_ALLOCATION_SENTINEL;
; 83   :  #endif /* _DEBUG */
; 84   : 		}
; 85   : 	else
; 86   :  #endif /* defined(_M_IX86) || defined(_M_X64) */
; 87   : 
; 88   : 		{	// allocate normal block
; 89   : 		_Ptr = ::operator new(_User_size);

  00045	50		 push	 eax
  00046	e8 00 00 00 00	 call	 ??2@YAPAXI@Z		; operator new
  0004b	83 c4 04	 add	 esp, 4

; 90   : 		_SCL_SECURE_ALWAYS_VALIDATE(_Ptr != 0);

  0004e	85 c0		 test	 eax, eax
  00050	75 b8		 jne	 SHORT $LN12@allocate
  00052	eb 0f		 jmp	 SHORT $LN18@allocate
$LN14@allocate:

; 62   : 		_Xbad_alloc();	// report no memory

  00054	e8 00 00 00 00	 call	 ?_Xbad_alloc@std@@YAXXZ	; std::_Xbad_alloc
$LN19@allocate:
$LN16@allocate:

; 73   : 			_Xbad_alloc();	// report no memory

  00059	e8 00 00 00 00	 call	 ?_Xbad_alloc@std@@YAXXZ	; std::_Xbad_alloc
$LN20@allocate:
$LN17@allocate:

; 76   : 		_SCL_SECURE_ALWAYS_VALIDATE(_Ptr_container != 0);

  0005e	e8 00 00 00 00	 call	 __invalid_parameter_noinfo_noreturn
$LN21@allocate:
$LN18@allocate:

; 90   : 		_SCL_SECURE_ALWAYS_VALIDATE(_Ptr != 0);

  00063	e8 00 00 00 00	 call	 __invalid_parameter_noinfo_noreturn
$LN22@allocate:
$LN13@allocate:
  00068	cc		 int	 3
?allocate@?$allocator@UItemPriceInfo@@@std@@QAEPAUItemPriceInfo@@I@Z ENDP ; std::allocator<ItemPriceInfo>::allocate
_TEXT	ENDS
; Function compile flags: /Ogtp
; File c:\program files (x86)\microsoft visual studio 14.0\vc\include\xmemory0
;	COMDAT ?deallocate@?$allocator@UItemPriceInfo@@@std@@QAEXPAUItemPriceInfo@@I@Z
_TEXT	SEGMENT
__Ptr$ = 8						; size = 4
__Count$ = 12						; size = 4
?deallocate@?$allocator@UItemPriceInfo@@@std@@QAEXPAUItemPriceInfo@@I@Z PROC ; std::allocator<ItemPriceInfo>::deallocate, COMDAT
; _this$ = ecx

; 637  : 		{	// deallocate object at _Ptr

  00000	55		 push	 ebp
  00001	8b ec		 mov	 ebp, esp

; 100  : 	_SCL_SECURE_ALWAYS_VALIDATE(_Count <= (size_t)(-1) / _Sz);

  00003	8b 45 0c	 mov	 eax, DWORD PTR __Count$[ebp]

; 638  : 		_Deallocate(_Ptr, _Count, sizeof (_Ty));

  00006	8b 4d 08	 mov	 ecx, DWORD PTR __Ptr$[ebp]

; 100  : 	_SCL_SECURE_ALWAYS_VALIDATE(_Count <= (size_t)(-1) / _Sz);

  00009	3d 55 55 55 15	 cmp	 eax, 357913941		; 15555555H
  0000e	77 34		 ja	 SHORT $LN13@deallocate

; 101  : 	const size_t _User_size = _Count * _Sz;

  00010	8d 04 40	 lea	 eax, DWORD PTR [eax+eax*2]
  00013	c1 e0 02	 shl	 eax, 2

; 102  : 	if (_BIG_ALLOCATION_THRESHOLD <= _User_size)

  00016	3d 00 10 00 00	 cmp	 eax, 4096		; 00001000H
  0001b	72 1a		 jb	 SHORT $LN5@deallocate

; 103  : 		{	// deallocate large block
; 104  : 		const uintptr_t _Ptr_user = reinterpret_cast<uintptr_t>(_Ptr);
; 105  : 		_SCL_SECURE_ALWAYS_VALIDATE(

  0001d	f6 c1 1f	 test	 cl, 31			; 0000001fH
  00020	75 27		 jne	 SHORT $LN15@deallocate

; 106  : 			(_Ptr_user & (_BIG_ALLOCATION_ALIGNMENT - 1)) == 0);
; 107  : 		const uintptr_t _Ptr_ptr = _Ptr_user - sizeof(void *);
; 108  : 		const uintptr_t _Ptr_container =
; 109  : 			*reinterpret_cast<uintptr_t *>(_Ptr_ptr);

  00022	8b 41 fc	 mov	 eax, DWORD PTR [ecx-4]

; 110  : 
; 111  :  #ifdef _DEBUG
; 112  : 		// If the following asserts, it likely means that we are performing
; 113  : 		// an aligned delete on memory coming from an unaligned allocation.
; 114  : 		_SCL_SECURE_ALWAYS_VALIDATE(
; 115  : 			reinterpret_cast<uintptr_t *>(_Ptr_ptr)[-1] ==
; 116  : 				_BIG_ALLOCATION_SENTINEL);
; 117  :  #endif /* _DEBUG */
; 118  : 
; 119  : 		// Extra paranoia on aligned allocation/deallocation
; 120  : 		_SCL_SECURE_ALWAYS_VALIDATE(_Ptr_container < _Ptr_user);

  00025	3b c1		 cmp	 eax, ecx
  00027	73 25		 jae	 SHORT $LN16@deallocate

; 121  : 
; 122  :  #ifdef _DEBUG
; 123  : 		_SCL_SECURE_ALWAYS_VALIDATE(2 * sizeof(void *)
; 124  : 			<= _Ptr_user - _Ptr_container);
; 125  : 
; 126  :  #else /* _DEBUG */
; 127  : 		_SCL_SECURE_ALWAYS_VALIDATE(sizeof(void *)

  00029	2b c8		 sub	 ecx, eax
  0002b	83 f9 04	 cmp	 ecx, 4
  0002e	72 23		 jb	 SHORT $LN17@deallocate

; 128  : 			<= _Ptr_user - _Ptr_container);
; 129  :  #endif /* _DEBUG */
; 130  : 
; 131  : 		_SCL_SECURE_ALWAYS_VALIDATE(_Ptr_user - _Ptr_container

  00030	83 f9 23	 cmp	 ecx, 35			; 00000023H
  00033	77 23		 ja	 SHORT $LN18@deallocate

; 132  : 			<= _NON_USER_SIZE);
; 133  : 
; 134  : 		_Ptr = reinterpret_cast<void *>(_Ptr_container);

  00035	8b c8		 mov	 ecx, eax
$LN5@deallocate:

; 135  : 		}
; 136  :  #endif /* defined(_M_IX86) || defined(_M_X64) */
; 137  : 
; 138  : 	::operator delete(_Ptr);

  00037	51		 push	 ecx
  00038	e8 00 00 00 00	 call	 ??3@YAXPAX@Z		; operator delete
  0003d	83 c4 04	 add	 esp, 4

; 639  : 		}

  00040	5d		 pop	 ebp
  00041	c2 08 00	 ret	 8
$LN13@deallocate:

; 100  : 	_SCL_SECURE_ALWAYS_VALIDATE(_Count <= (size_t)(-1) / _Sz);

  00044	e8 00 00 00 00	 call	 __invalid_parameter_noinfo_noreturn
$LN19@deallocate:
$LN15@deallocate:

; 103  : 		{	// deallocate large block
; 104  : 		const uintptr_t _Ptr_user = reinterpret_cast<uintptr_t>(_Ptr);
; 105  : 		_SCL_SECURE_ALWAYS_VALIDATE(

  00049	e8 00 00 00 00	 call	 __invalid_parameter_noinfo_noreturn
$LN20@deallocate:
$LN16@deallocate:

; 110  : 
; 111  :  #ifdef _DEBUG
; 112  : 		// If the following asserts, it likely means that we are performing
; 113  : 		// an aligned delete on memory coming from an unaligned allocation.
; 114  : 		_SCL_SECURE_ALWAYS_VALIDATE(
; 115  : 			reinterpret_cast<uintptr_t *>(_Ptr_ptr)[-1] ==
; 116  : 				_BIG_ALLOCATION_SENTINEL);
; 117  :  #endif /* _DEBUG */
; 118  : 
; 119  : 		// Extra paranoia on aligned allocation/deallocation
; 120  : 		_SCL_SECURE_ALWAYS_VALIDATE(_Ptr_container < _Ptr_user);

  0004e	e8 00 00 00 00	 call	 __invalid_parameter_noinfo_noreturn
$LN21@deallocate:
$LN17@deallocate:

; 121  : 
; 122  :  #ifdef _DEBUG
; 123  : 		_SCL_SECURE_ALWAYS_VALIDATE(2 * sizeof(void *)
; 124  : 			<= _Ptr_user - _Ptr_container);
; 125  : 
; 126  :  #else /* _DEBUG */
; 127  : 		_SCL_SECURE_ALWAYS_VALIDATE(sizeof(void *)

  00053	e8 00 00 00 00	 call	 __invalid_parameter_noinfo_noreturn
$LN22@deallocate:
$LN18@deallocate:

; 128  : 			<= _Ptr_user - _Ptr_container);
; 129  :  #endif /* _DEBUG */
; 130  : 
; 131  : 		_SCL_SECURE_ALWAYS_VALIDATE(_Ptr_user - _Ptr_container

  00058	e8 00 00 00 00	 call	 __invalid_parameter_noinfo_noreturn
$LN23@deallocate:
$LN12@deallocate:
  0005d	cc		 int	 3
?deallocate@?$allocator@UItemPriceInfo@@@std@@QAEXPAUItemPriceInfo@@I@Z ENDP ; std::allocator<ItemPriceInfo>::deallocate
_TEXT	ENDS
; Function compile flags: /Ogtp
; File c:\program files (x86)\microsoft visual studio 14.0\vc\include\xmemory0
;	COMDAT ??0?$allocator@UItemPriceInfo@@@std@@QAE@ABV01@@Z
_TEXT	SEGMENT
___formal$ = 8						; size = 4
??0?$allocator@UItemPriceInfo@@@std@@QAE@ABV01@@Z PROC	; std::allocator<ItemPriceInfo>::allocator<ItemPriceInfo>, COMDAT
; _this$ = ecx

; 622  : 		{	// construct by copying (do nothing)
; 623  : 		}

  00000	8b c1		 mov	 eax, ecx
  00002	c2 04 00	 ret	 4
??0?$allocator@UItemPriceInfo@@@std@@QAE@ABV01@@Z ENDP	; std::allocator<ItemPriceInfo>::allocator<ItemPriceInfo>
_TEXT	ENDS
; Function compile flags: /Ogtp
; File c:\program files (x86)\microsoft visual studio 14.0\vc\include\xmemory0
;	COMDAT ??0?$allocator@UItemPriceInfo@@@std@@QAE@XZ
_TEXT	SEGMENT
??0?$allocator@UItemPriceInfo@@@std@@QAE@XZ PROC	; std::allocator<ItemPriceInfo>::allocator<ItemPriceInfo>, COMDAT
; _this$ = ecx

; 618  : 		{	// construct default allocator (do nothing)
; 619  : 		}

  00000	8b c1		 mov	 eax, ecx
  00002	c3		 ret	 0
??0?$allocator@UItemPriceInfo@@@std@@QAE@XZ ENDP	; std::allocator<ItemPriceInfo>::allocator<ItemPriceInfo>
_TEXT	ENDS
; Function compile flags: /Ogtp
; File c:\users\michel\desktop\source\gameserver\source\itemprice.cpp
;	COMDAT ?SendPrice@ItemPrice@@QAEXHH@Z
_TEXT	SEGMENT
_UserIndex$GSCopy$1$ = -2908				; size = 4
_this$GSCopy$1$ = -2904					; size = 4
_ShopNumber$GSCopy$1$ = -2900				; size = 4
tv594 = -2896						; size = 4
tv591 = -2896						; size = 4
_lpAnswerCount$ = -2892					; size = 7
tv589 = -2884						; size = 4
tv586 = -2884						; size = 4
_Offset$1$ = -2880					; size = 4
_lpAnswerInfo$1 = -2876					; size = 8
_lpAnswerInfo$2 = -2876					; size = 8
_Buffer$ = -2868					; size = 2863
__$ArrayPad$ = -4					; size = 4
_UserIndex$ = 8						; size = 4
_ShopNumber$ = 12					; size = 4
?SendPrice@ItemPrice@@QAEXHH@Z PROC			; ItemPrice::SendPrice, COMDAT
; _this$ = ecx

; 140  : {

  00000	55		 push	 ebp
  00001	8b ec		 mov	 ebp, esp
  00003	81 ec 5c 0b 00
	00		 sub	 esp, 2908		; 00000b5cH
  00009	a1 00 00 00 00	 mov	 eax, DWORD PTR ___security_cookie
  0000e	33 c5		 xor	 eax, ebp
  00010	89 45 fc	 mov	 DWORD PTR __$ArrayPad$[ebp], eax
  00013	8b 45 08	 mov	 eax, DWORD PTR _UserIndex$[ebp]
  00016	53		 push	 ebx
  00017	8b 5d 0c	 mov	 ebx, DWORD PTR _ShopNumber$[ebp]

; 141  : 	if( !gObjIsConnected(UserIndex) || ShopNumber < 0 )

  0001a	50		 push	 eax
  0001b	89 8d a8 f4 ff
	ff		 mov	 DWORD PTR _this$GSCopy$1$[ebp], ecx
  00021	89 85 a4 f4 ff
	ff		 mov	 DWORD PTR _UserIndex$GSCopy$1$[ebp], eax
  00027	89 9d ac f4 ff
	ff		 mov	 DWORD PTR _ShopNumber$GSCopy$1$[ebp], ebx
  0002d	e8 00 00 00 00	 call	 ?gObjIsConnected@@YAHH@Z ; gObjIsConnected
  00032	83 c4 04	 add	 esp, 4
  00035	85 c0		 test	 eax, eax
  00037	0f 84 e8 02 00
	00		 je	 $LN15@SendPrice
  0003d	85 db		 test	 ebx, ebx
  0003f	0f 88 e0 02 00
	00		 js	 $LN15@SendPrice

; 142  : 	{
; 143  : 		return;
; 144  : 	}
; 145  : 	// ----
; 146  : 	const int Size = sizeof(ITEMPRICE_ANS_COUNT) 
; 147  : 		+ (sizeof(ITEMPRICE_ANS_INFO) * MAX_ITEM_IN_SHOP) 
; 148  : 		+ (sizeof(ITEMPRICE_ANS_INFO) * INVENTORY_SIZE);
; 149  : 	BYTE Buffer[Size] = { 0 };
; 150  : 	ITEMPRICE_ANS_COUNT lpAnswerCount = { 0 };
; 151  : 	lpAnswerCount.h.c			= 0xC2;

  00045	56		 push	 esi
  00046	68 2f 0b 00 00	 push	 2863			; 00000b2fH
  0004b	8d 85 cc f4 ff
	ff		 lea	 eax, DWORD PTR _Buffer$[ebp]
  00051	6a 00		 push	 0
  00053	50		 push	 eax
  00054	e8 00 00 00 00	 call	 _memset
  00059	83 c4 0c	 add	 esp, 12			; 0000000cH
  0005c	c6 85 b4 f4 ff
	ff c2		 mov	 BYTE PTR _lpAnswerCount$[ebp], 194 ; 000000c2H
  00063	33 f6		 xor	 esi, esi

; 152  : 	lpAnswerCount.h.headcode	= 0xFD;
; 153  : 	lpAnswerCount.h.subcode		= 0x00; 
; 154  : 	int Offset = sizeof(ITEMPRICE_ANS_COUNT);

  00065	c7 85 c0 f4 ff
	ff 07 00 00 00	 mov	 DWORD PTR _Offset$1$[ebp], 7
  0006f	89 b5 b5 f4 ff
	ff		 mov	 DWORD PTR _lpAnswerCount$[ebp+1], esi

; 155  : 	// ----
; 156  : 	CShop* lpShop = g_ShopManager.Get(ShopNumber);

  00075	b9 00 00 00 00	 mov	 ecx, OFFSET ?g_ShopManager@@3VShopManager@@A ; g_ShopManager
  0007a	c7 85 b7 f4 ff
	ff fd 00 00 00	 mov	 DWORD PTR _lpAnswerCount$[ebp+3], 253 ; 000000fdH
  00084	53		 push	 ebx
  00085	e8 00 00 00 00	 call	 ?Get@ShopManager@@QAEPAVCShop@@H@Z ; ShopManager::Get

; 157  : 	if( !lpShop )

  0008a	85 c0		 test	 eax, eax
  0008c	0f 84 92 02 00
	00		 je	 $LN52@SendPrice

; 158  : 	{
; 159  : 		return;
; 160  : 	}
; 161  : 	// ----
; 162  : 	for( int i = 0; i < MAX_ITEM_IN_SHOP; i++ )

  00092	57		 push	 edi
  00093	8d bd d3 f4 ff
	ff		 lea	 edi, DWORD PTR _Buffer$[ebp+7]
  00099	c7 85 b0 f4 ff
	ff 78 00 00 00	 mov	 DWORD PTR tv594[ebp], 120 ; 00000078H
  000a3	89 bd bc f4 ff
	ff		 mov	 DWORD PTR tv589[ebp], edi
  000a9	8d 98 8e 00 00
	00		 lea	 ebx, DWORD PTR [eax+142]
  000af	90		 npad	 1
$LL4@SendPrice:

; 163  : 	{
; 164  : 		if( !lpShop->m_item[i].IsItem() )

  000b0	8d 4b fa	 lea	 ecx, DWORD PTR [ebx-6]
  000b3	e8 00 00 00 00	 call	 ?IsItem@CItem@@QAEHXZ	; CItem::IsItem
  000b8	85 c0		 test	 eax, eax
  000ba	0f 84 c8 00 00
	00		 je	 $LN49@SendPrice

; 165  : 		{
; 166  : 			continue;
; 167  : 		}
; 168  : 		// ----
; 169  : 		ITEMPRICE_ANS_INFO lpAnswerInfo = { 0 };
; 170  : 		lpAnswerInfo.ItemCode = lpShop->m_item[i].m_Type;
; 171  : 		lpAnswerInfo.ItemLevel = lpShop->m_item[i].m_Level;
; 172  : 		// ----
; 173  : 		if( !this->GetSendPrice(ShopNumber, lpAnswerInfo.ItemCode, lpAnswerInfo.ItemLevel, 

  000c0	8b 8d a8 f4 ff
	ff		 mov	 ecx, DWORD PTR _this$GSCopy$1$[ebp]
  000c6	33 c0		 xor	 eax, eax
  000c8	89 85 c6 f4 ff
	ff		 mov	 DWORD PTR _lpAnswerInfo$2[ebp+2], eax
  000ce	66 89 85 ca f4
	ff ff		 mov	 WORD PTR _lpAnswerInfo$2[ebp+6], ax
  000d5	66 8b 03	 mov	 ax, WORD PTR [ebx]
  000d8	66 89 85 c4 f4
	ff ff		 mov	 WORD PTR _lpAnswerInfo$2[ebp], ax
  000df	8a 43 02	 mov	 al, BYTE PTR [ebx+2]
  000e2	88 85 c6 f4 ff
	ff		 mov	 BYTE PTR _lpAnswerInfo$2[ebp+2], al
  000e8	8d 85 cb f4 ff
	ff		 lea	 eax, DWORD PTR _lpAnswerInfo$2[ebp+7]
  000ee	50		 push	 eax
  000ef	8d 85 c7 f4 ff
	ff		 lea	 eax, DWORD PTR _lpAnswerInfo$2[ebp+3]
  000f5	50		 push	 eax
  000f6	ff b5 c6 f4 ff
	ff		 push	 DWORD PTR _lpAnswerInfo$2[ebp+2]
  000fc	ff b5 c4 f4 ff
	ff		 push	 DWORD PTR _lpAnswerInfo$2[ebp]
  00102	ff b5 ac f4 ff
	ff		 push	 DWORD PTR _ShopNumber$GSCopy$1$[ebp]
  00108	e8 00 00 00 00	 call	 ?GetSendPrice@ItemPrice@@QAE_NFGEAAKAAE@Z ; ItemPrice::GetSendPrice
  0010d	84 c0		 test	 al, al
  0010f	74 77		 je	 SHORT $LN49@SendPrice

; 174  : 			lpAnswerInfo.ItemPrice, lpAnswerInfo.Divisor) )
; 175  : 		{
; 176  : 			continue;
; 177  : 		}
; 178  : 		// ----
; 179  : 		bool AlreadyInUse = false;
; 180  : 		// ----
; 181  : 		for( int ItemCount = 0; ItemCount < lpAnswerCount.Count; ItemCount++ )

  00111	0f bf ce	 movsx	 ecx, si
  00114	33 c0		 xor	 eax, eax
  00116	85 c9		 test	 ecx, ecx
  00118	7e 34		 jle	 SHORT $LN44@SendPrice
  0011a	8a 95 c6 f4 ff
	ff		 mov	 dl, BYTE PTR _lpAnswerInfo$2[ebp+2]
  00120	66 8b bd c4 f4
	ff ff		 mov	 di, WORD PTR _lpAnswerInfo$2[ebp]
  00127	66 0f 1f 84 00
	00 00 00 00	 npad	 9
$LL7@SendPrice:

; 182  : 		{
; 183  : 			int PosOffset = sizeof(ITEMPRICE_ANS_COUNT) + ItemCount * sizeof(ITEMPRICE_ANS_INFO);
; 184  : 			ITEMPRICE_ANS_INFO* lpItem = (ITEMPRICE_ANS_INFO*)&Buffer[PosOffset];
; 185  : 			// ----
; 186  : 			if(		lpItem->ItemCode == lpAnswerInfo.ItemCode 
; 187  : 				&&	lpItem->ItemLevel == lpAnswerInfo.ItemLevel )

  00130	66 39 bc c5 d3
	f4 ff ff	 cmp	 WORD PTR _Buffer$[ebp+eax*8+7], di
  00138	75 09		 jne	 SHORT $LN5@SendPrice
  0013a	38 94 c5 d5 f4
	ff ff		 cmp	 BYTE PTR _Buffer$[ebp+eax*8+9], dl
  00141	74 3f		 je	 SHORT $LN46@SendPrice
$LN5@SendPrice:

; 174  : 			lpAnswerInfo.ItemPrice, lpAnswerInfo.Divisor) )
; 175  : 		{
; 176  : 			continue;
; 177  : 		}
; 178  : 		// ----
; 179  : 		bool AlreadyInUse = false;
; 180  : 		// ----
; 181  : 		for( int ItemCount = 0; ItemCount < lpAnswerCount.Count; ItemCount++ )

  00143	40		 inc	 eax
  00144	3b c1		 cmp	 eax, ecx
  00146	7c e8		 jl	 SHORT $LL7@SendPrice
  00148	8b bd bc f4 ff
	ff		 mov	 edi, DWORD PTR tv589[ebp]
$LN44@SendPrice:

; 188  : 			{
; 189  : 				AlreadyInUse = true;
; 190  : 				break;
; 191  : 			}
; 192  : 		}
; 193  : 		// ----
; 194  : 		if( AlreadyInUse )
; 195  : 		{
; 196  : 			continue;
; 197  : 		}
; 198  : 		// ----
; 199  : 		memcpy(&Buffer[Offset], (LPBYTE)&lpAnswerInfo, sizeof(ITEMPRICE_ANS_INFO));

  0014e	8b 85 c4 f4 ff
	ff		 mov	 eax, DWORD PTR _lpAnswerInfo$2[ebp]

; 200  : 		Offset += sizeof(ITEMPRICE_ANS_INFO);

  00154	8b 8d c0 f4 ff
	ff		 mov	 ecx, DWORD PTR _Offset$1$[ebp]
  0015a	89 07		 mov	 DWORD PTR [edi], eax
  0015c	83 c1 08	 add	 ecx, 8
  0015f	8b 85 c8 f4 ff
	ff		 mov	 eax, DWORD PTR _lpAnswerInfo$2[ebp+4]
  00165	89 47 04	 mov	 DWORD PTR [edi+4], eax
  00168	83 c7 08	 add	 edi, 8

; 201  : 		lpAnswerCount.Count++;

  0016b	66 46		 inc	 si
  0016d	89 8d c0 f4 ff
	ff		 mov	 DWORD PTR _Offset$1$[ebp], ecx
  00173	89 bd bc f4 ff
	ff		 mov	 DWORD PTR tv589[ebp], edi
  00179	66 89 b5 b9 f4
	ff ff		 mov	 WORD PTR _lpAnswerCount$[ebp+5], si
  00180	eb 0c		 jmp	 SHORT $LN2@SendPrice
$LN46@SendPrice:
  00182	8b bd bc f4 ff
	ff		 mov	 edi, DWORD PTR tv589[ebp]
$LN49@SendPrice:
  00188	8b 8d c0 f4 ff
	ff		 mov	 ecx, DWORD PTR _Offset$1$[ebp]
$LN2@SendPrice:

; 158  : 	{
; 159  : 		return;
; 160  : 	}
; 161  : 	// ----
; 162  : 	for( int i = 0; i < MAX_ITEM_IN_SHOP; i++ )

  0018e	81 c3 d4 00 00
	00		 add	 ebx, 212		; 000000d4H
  00194	83 ad b0 f4 ff
	ff 01		 sub	 DWORD PTR tv594[ebp], 1
  0019b	0f 85 0f ff ff
	ff		 jne	 $LL4@SendPrice

; 202  : 	}
; 203  : 	// ----
; 204  : 	for( int n = 0; n < INVENTORY_SIZE; n++ )

  001a1	69 95 a4 f4 ff
	ff 40 27 00 00	 imul	 edx, DWORD PTR _UserIndex$GSCopy$1$[ebp], 10048
  001ab	8d 9d cc f4 ff
	ff		 lea	 ebx, DWORD PTR _Buffer$[ebp]
  001b1	03 d9		 add	 ebx, ecx
  001b3	89 9d bc f4 ff
	ff		 mov	 DWORD PTR tv586[ebp], ebx
  001b9	81 c2 c0 11 00
	00		 add	 edx, 4544		; 000011c0H
  001bf	33 ff		 xor	 edi, edi
  001c1	89 95 b0 f4 ff
	ff		 mov	 DWORD PTR tv591[ebp], edx
  001c7	66 0f 1f 84 00
	00 00 00 00	 npad	 9
$LL10@SendPrice:

; 205  : 	{
; 206  : 		if( !gObj[UserIndex].pInventory[n].IsItem() )

  001d0	a1 00 00 00 00	 mov	 eax, DWORD PTR ?gObj@@3PAUOBJECTSTRUCT@@A ; gObj
  001d5	8b 0c 02	 mov	 ecx, DWORD PTR [edx+eax]
  001d8	03 cf		 add	 ecx, edi
  001da	e8 00 00 00 00	 call	 ?IsItem@CItem@@QAEHXZ	; CItem::IsItem
  001df	85 c0		 test	 eax, eax
  001e1	0f 84 d1 00 00
	00		 je	 $LN51@SendPrice

; 207  : 		{
; 208  : 			continue;
; 209  : 		}
; 210  : 		// ----
; 211  : 		ITEMPRICE_ANS_INFO lpAnswerInfo = { 0 };
; 212  : 		lpAnswerInfo.ItemCode = gObj[UserIndex].pInventory[n].m_Type;

  001e7	8b 8d b0 f4 ff
	ff		 mov	 ecx, DWORD PTR tv591[ebp]
  001ed	33 c0		 xor	 eax, eax
  001ef	89 85 c6 f4 ff
	ff		 mov	 DWORD PTR _lpAnswerInfo$1[ebp+2], eax
  001f5	66 89 85 ca f4
	ff ff		 mov	 WORD PTR _lpAnswerInfo$1[ebp+6], ax
  001fc	a1 00 00 00 00	 mov	 eax, DWORD PTR ?gObj@@3PAUOBJECTSTRUCT@@A ; gObj
  00201	8b 0c 01	 mov	 ecx, DWORD PTR [ecx+eax]
  00204	66 8b 44 39 06	 mov	 ax, WORD PTR [ecx+edi+6]
  00209	66 89 85 c4 f4
	ff ff		 mov	 WORD PTR _lpAnswerInfo$1[ebp], ax

; 213  : 		lpAnswerInfo.ItemLevel = gObj[UserIndex].pInventory[n].m_Level;

  00210	8a 44 39 08	 mov	 al, BYTE PTR [ecx+edi+8]

; 214  : 		// ----
; 215  : 		if( !this->GetSendPrice(ShopNumber, 

  00214	8b 8d a8 f4 ff
	ff		 mov	 ecx, DWORD PTR _this$GSCopy$1$[ebp]
  0021a	88 85 c6 f4 ff
	ff		 mov	 BYTE PTR _lpAnswerInfo$1[ebp+2], al
  00220	8d 85 cb f4 ff
	ff		 lea	 eax, DWORD PTR _lpAnswerInfo$1[ebp+7]
  00226	50		 push	 eax
  00227	8d 85 c7 f4 ff
	ff		 lea	 eax, DWORD PTR _lpAnswerInfo$1[ebp+3]
  0022d	50		 push	 eax
  0022e	ff b5 c6 f4 ff
	ff		 push	 DWORD PTR _lpAnswerInfo$1[ebp+2]
  00234	ff b5 c4 f4 ff
	ff		 push	 DWORD PTR _lpAnswerInfo$1[ebp]
  0023a	ff b5 ac f4 ff
	ff		 push	 DWORD PTR _ShopNumber$GSCopy$1$[ebp]
  00240	e8 00 00 00 00	 call	 ?GetSendPrice@ItemPrice@@QAE_NFGEAAKAAE@Z ; ItemPrice::GetSendPrice
  00245	84 c0		 test	 al, al
  00247	74 6f		 je	 SHORT $LN51@SendPrice

; 216  : 			lpAnswerInfo.ItemCode, lpAnswerInfo.ItemLevel, 
; 217  : 			lpAnswerInfo.ItemPrice, lpAnswerInfo.Divisor) )
; 218  : 		{
; 219  : 			continue;
; 220  : 		}
; 221  : 		// ----
; 222  : 		bool AlreadyInUse = false;
; 223  : 		// ----
; 224  : 		for( int ItemCount = 0; ItemCount < lpAnswerCount.Count; ItemCount++ )

  00249	0f bf ce	 movsx	 ecx, si
  0024c	33 c0		 xor	 eax, eax
  0024e	85 c9		 test	 ecx, ecx
  00250	7e 2c		 jle	 SHORT $LN45@SendPrice
  00252	8a 95 c6 f4 ff
	ff		 mov	 dl, BYTE PTR _lpAnswerInfo$1[ebp+2]
  00258	66 8b 9d c4 f4
	ff ff		 mov	 bx, WORD PTR _lpAnswerInfo$1[ebp]
  0025f	90		 npad	 1
$LL13@SendPrice:

; 225  : 		{
; 226  : 			int PosOffset = sizeof(ITEMPRICE_ANS_COUNT) + ItemCount * sizeof(ITEMPRICE_ANS_INFO);
; 227  : 			ITEMPRICE_ANS_INFO* lpItem = (ITEMPRICE_ANS_INFO*)&Buffer[PosOffset];
; 228  : 			// ----
; 229  : 			if(		lpItem->ItemCode == lpAnswerInfo.ItemCode 
; 230  : 				&&	lpItem->ItemLevel == lpAnswerInfo.ItemLevel )

  00260	66 39 9c c5 d3
	f4 ff ff	 cmp	 WORD PTR _Buffer$[ebp+eax*8+7], bx
  00268	75 09		 jne	 SHORT $LN11@SendPrice
  0026a	38 94 c5 d5 f4
	ff ff		 cmp	 BYTE PTR _Buffer$[ebp+eax*8+9], dl
  00271	74 3f		 je	 SHORT $LN47@SendPrice
$LN11@SendPrice:

; 216  : 			lpAnswerInfo.ItemCode, lpAnswerInfo.ItemLevel, 
; 217  : 			lpAnswerInfo.ItemPrice, lpAnswerInfo.Divisor) )
; 218  : 		{
; 219  : 			continue;
; 220  : 		}
; 221  : 		// ----
; 222  : 		bool AlreadyInUse = false;
; 223  : 		// ----
; 224  : 		for( int ItemCount = 0; ItemCount < lpAnswerCount.Count; ItemCount++ )

  00273	40		 inc	 eax
  00274	3b c1		 cmp	 eax, ecx
  00276	7c e8		 jl	 SHORT $LL13@SendPrice
  00278	8b 9d bc f4 ff
	ff		 mov	 ebx, DWORD PTR tv586[ebp]
$LN45@SendPrice:

; 231  : 			{
; 232  : 				AlreadyInUse = true;
; 233  : 				break;
; 234  : 			}
; 235  : 		}
; 236  : 		// ----
; 237  : 		if( AlreadyInUse )
; 238  : 		{
; 239  : 			continue;
; 240  : 		}
; 241  : 		// ----
; 242  : 		memcpy(&Buffer[Offset], (LPBYTE)&lpAnswerInfo, sizeof(ITEMPRICE_ANS_INFO));

  0027e	8b 85 c4 f4 ff
	ff		 mov	 eax, DWORD PTR _lpAnswerInfo$1[ebp]

; 243  : 		Offset += sizeof(ITEMPRICE_ANS_INFO);

  00284	8b 8d c0 f4 ff
	ff		 mov	 ecx, DWORD PTR _Offset$1$[ebp]
  0028a	89 03		 mov	 DWORD PTR [ebx], eax
  0028c	83 c1 08	 add	 ecx, 8
  0028f	8b 85 c8 f4 ff
	ff		 mov	 eax, DWORD PTR _lpAnswerInfo$1[ebp+4]
  00295	89 43 04	 mov	 DWORD PTR [ebx+4], eax
  00298	83 c3 08	 add	 ebx, 8

; 244  : 		lpAnswerCount.Count++;

  0029b	66 46		 inc	 si
  0029d	89 8d c0 f4 ff
	ff		 mov	 DWORD PTR _Offset$1$[ebp], ecx
  002a3	89 9d bc f4 ff
	ff		 mov	 DWORD PTR tv586[ebp], ebx
  002a9	66 89 b5 b9 f4
	ff ff		 mov	 WORD PTR _lpAnswerCount$[ebp+5], si
  002b0	eb 0c		 jmp	 SHORT $LN8@SendPrice
$LN47@SendPrice:
  002b2	8b 9d bc f4 ff
	ff		 mov	 ebx, DWORD PTR tv586[ebp]
$LN51@SendPrice:
  002b8	8b 8d c0 f4 ff
	ff		 mov	 ecx, DWORD PTR _Offset$1$[ebp]
$LN8@SendPrice:

; 202  : 	}
; 203  : 	// ----
; 204  : 	for( int n = 0; n < INVENTORY_SIZE; n++ )

  002be	8b 95 b0 f4 ff
	ff		 mov	 edx, DWORD PTR tv591[ebp]
  002c4	81 c7 d4 00 00
	00		 add	 edi, 212		; 000000d4H
  002ca	81 ff 44 c4 00
	00		 cmp	 edi, 50244		; 0000c444H
  002d0	0f 8c fa fe ff
	ff		 jl	 $LL10@SendPrice

; 245  : 	}
; 246  : 	// ----
; 247  : 	lpAnswerCount.h.sizeH = SET_NUMBERH(Offset);

  002d6	8b c1		 mov	 eax, ecx

; 248  : 	lpAnswerCount.h.sizeL = SET_NUMBERL(Offset);

  002d8	88 8d b6 f4 ff
	ff		 mov	 BYTE PTR _lpAnswerCount$[ebp+2], cl
  002de	c1 e8 08	 shr	 eax, 8
  002e1	88 85 b5 f4 ff
	ff		 mov	 BYTE PTR _lpAnswerCount$[ebp+1], al

; 249  : 	memcpy(Buffer, (LPBYTE)&lpAnswerCount, sizeof(ITEMPRICE_ANS_COUNT));

  002e7	8b 85 b4 f4 ff
	ff		 mov	 eax, DWORD PTR _lpAnswerCount$[ebp]
  002ed	89 85 cc f4 ff
	ff		 mov	 DWORD PTR _Buffer$[ebp], eax
  002f3	66 8b 85 b8 f4
	ff ff		 mov	 ax, WORD PTR _lpAnswerCount$[ebp+4]
  002fa	66 89 85 d0 f4
	ff ff		 mov	 WORD PTR _Buffer$[ebp+4], ax
  00301	8a 85 ba f4 ff
	ff		 mov	 al, BYTE PTR _lpAnswerCount$[ebp+6]
  00307	88 85 d2 f4 ff
	ff		 mov	 BYTE PTR _Buffer$[ebp+6], al

; 250  : 	DataSend(UserIndex, Buffer, Offset);

  0030d	8d 85 cc f4 ff
	ff		 lea	 eax, DWORD PTR _Buffer$[ebp]
  00313	51		 push	 ecx
  00314	50		 push	 eax
  00315	ff b5 a4 f4 ff
	ff		 push	 DWORD PTR _UserIndex$GSCopy$1$[ebp]
  0031b	e8 00 00 00 00	 call	 ?DataSend@@YAHHPAEK@Z	; DataSend
  00320	83 c4 0c	 add	 esp, 12			; 0000000cH
  00323	5f		 pop	 edi
$LN52@SendPrice:
  00324	5e		 pop	 esi
$LN15@SendPrice:

; 251  : }

  00325	8b 4d fc	 mov	 ecx, DWORD PTR __$ArrayPad$[ebp]
  00328	33 cd		 xor	 ecx, ebp
  0032a	5b		 pop	 ebx
  0032b	e8 00 00 00 00	 call	 @__security_check_cookie@4
  00330	8b e5		 mov	 esp, ebp
  00332	5d		 pop	 ebp
  00333	c2 08 00	 ret	 8
?SendPrice@ItemPrice@@QAEXHH@Z ENDP			; ItemPrice::SendPrice
_TEXT	ENDS
; Function compile flags: /Ogtp
; File c:\users\michel\desktop\source\gameserver\source\itemprice.cpp
; File c:\program files (x86)\microsoft visual studio 14.0\vc\include\vector
; File c:\users\michel\desktop\source\gameserver\source\itemprice.cpp
; File c:\program files (x86)\microsoft visual studio 14.0\vc\include\vector
; File c:\users\michel\desktop\source\gameserver\source\itemprice.cpp
; File c:\program files (x86)\microsoft visual studio 14.0\vc\include\vector
; File c:\program files (x86)\microsoft visual studio 14.0\vc\include\xutility
; File c:\users\michel\desktop\source\gameserver\source\itemprice.cpp
; File c:\program files (x86)\microsoft visual studio 14.0\vc\include\vector
; File c:\users\michel\desktop\source\gameserver\source\itemprice.cpp
; File c:\program files (x86)\microsoft visual studio 14.0\vc\include\vector
; File c:\users\michel\desktop\source\gameserver\source\itemprice.cpp
; File c:\program files (x86)\microsoft visual studio 14.0\vc\include\vector
; File c:\users\michel\desktop\source\gameserver\source\itemprice.cpp
; File c:\program files (x86)\microsoft visual studio 14.0\vc\include\vector
; File c:\users\michel\desktop\source\gameserver\source\itemprice.cpp
;	COMDAT ?GetSendPrice@ItemPrice@@QAE_NFGEAAKAAE@Z
_TEXT	SEGMENT
_ShopNumber$ = 8					; size = 2
_ItemCode$ = 12						; size = 2
_ItemLevel$ = 16					; size = 1
_Price$ = 20						; size = 4
_Divisor$ = 24						; size = 4
?GetSendPrice@ItemPrice@@QAE_NFGEAAKAAE@Z PROC		; ItemPrice::GetSendPrice, COMDAT
; _this$ = ecx

; 106  : {

  00000	55		 push	 ebp
  00001	8b ec		 mov	 ebp, esp
  00003	53		 push	 ebx
  00004	56		 push	 esi
  00005	57		 push	 edi
  00006	8b f9		 mov	 edi, ecx
; File c:\program files (x86)\microsoft visual studio 14.0\vc\include\vector

; 1179 : 		return (this->_Mylast() - this->_Myfirst());

  00008	b8 ab aa aa 2a	 mov	 eax, 715827883		; 2aaaaaabH
; File c:\users\michel\desktop\source\gameserver\source\itemprice.cpp

; 107  : 	for( int i = 0; i < this->m_PriceInfo.size(); i++ )

  0000d	33 db		 xor	 ebx, ebx
; File c:\program files (x86)\microsoft visual studio 14.0\vc\include\vector

; 1179 : 		return (this->_Mylast() - this->_Myfirst());

  0000f	8b 57 08	 mov	 edx, DWORD PTR [edi+8]
  00012	2b 57 04	 sub	 edx, DWORD PTR [edi+4]
  00015	f7 ea		 imul	 edx
  00017	d1 fa		 sar	 edx, 1
  00019	8b c2		 mov	 eax, edx
  0001b	c1 e8 1f	 shr	 eax, 31			; 0000001fH
  0001e	03 c2		 add	 eax, edx
; File c:\users\michel\desktop\source\gameserver\source\itemprice.cpp

; 107  : 	for( int i = 0; i < this->m_PriceInfo.size(); i++ )

  00020	74 51		 je	 SHORT $LN113@GetSendPri
; File c:\program files (x86)\microsoft visual studio 14.0\vc\include\vector

; 1240 : 		return (*(this->_Myfirst() + _Pos));

  00022	8b 77 04	 mov	 esi, DWORD PTR [edi+4]
; File c:\program files (x86)\microsoft visual studio 14.0\vc\include\xutility

; 314  : 		return (_Myval2);

  00025	83 c6 02	 add	 esi, 2
  00028	0f 1f 84 00 00
	00 00 00	 npad	 8
$LL4@GetSendPri:
; File c:\users\michel\desktop\source\gameserver\source\itemprice.cpp

; 109  : 		if( this->m_PriceInfo[i].m_ShopNumber != (short)-1 )

  00030	0f b7 46 08	 movzx	 eax, WORD PTR [esi+8]
  00034	66 83 f8 ff	 cmp	 ax, -1
  00038	74 06		 je	 SHORT $LN6@GetSendPri

; 110  : 		{
; 111  : 			if( this->m_PriceInfo[i].m_ShopNumber != ShopNumber )

  0003a	66 3b 45 08	 cmp	 ax, WORD PTR _ShopNumber$[ebp]
  0003e	75 15		 jne	 SHORT $LN2@GetSendPri
$LN6@GetSendPri:

; 112  : 			{
; 113  : 				continue;
; 114  : 			}
; 115  : 		}
; 116  : 		// ----
; 117  : 		if( this->m_PriceInfo[i].m_ItemCode != ItemCode )

  00040	66 8b 45 0c	 mov	 ax, WORD PTR _ItemCode$[ebp]
  00044	66 39 46 fe	 cmp	 WORD PTR [esi-2], ax
  00048	75 0b		 jne	 SHORT $LN2@GetSendPri

; 118  : 		{
; 119  : 			continue;
; 120  : 		}
; 121  : 		// ----
; 122  : 		if( this->m_PriceInfo[i].m_ItemLevel != (BYTE)-1 )

  0004a	8a 06		 mov	 al, BYTE PTR [esi]
  0004c	3c ff		 cmp	 al, 255			; 000000ffH
  0004e	74 2c		 je	 SHORT $LN9@GetSendPri

; 123  : 		{
; 124  : 			if( this->m_PriceInfo[i].m_ItemLevel != ItemLevel )

  00050	3a 45 10	 cmp	 al, BYTE PTR _ItemLevel$[ebp]
  00053	74 27		 je	 SHORT $LN9@GetSendPri
$LN2@GetSendPri:
; File c:\program files (x86)\microsoft visual studio 14.0\vc\include\vector

; 1179 : 		return (this->_Mylast() - this->_Myfirst());

  00055	8b 4f 08	 mov	 ecx, DWORD PTR [edi+8]
  00058	b8 ab aa aa 2a	 mov	 eax, 715827883		; 2aaaaaabH
  0005d	2b 4f 04	 sub	 ecx, DWORD PTR [edi+4]
; File c:\users\michel\desktop\source\gameserver\source\itemprice.cpp

; 107  : 	for( int i = 0; i < this->m_PriceInfo.size(); i++ )

  00060	43		 inc	 ebx
; File c:\program files (x86)\microsoft visual studio 14.0\vc\include\vector

; 1179 : 		return (this->_Mylast() - this->_Myfirst());

  00061	f7 e9		 imul	 ecx
; File c:\users\michel\desktop\source\gameserver\source\itemprice.cpp

; 107  : 	for( int i = 0; i < this->m_PriceInfo.size(); i++ )

  00063	83 c6 0c	 add	 esi, 12			; 0000000cH
; File c:\program files (x86)\microsoft visual studio 14.0\vc\include\vector

; 1179 : 		return (this->_Mylast() - this->_Myfirst());

  00066	d1 fa		 sar	 edx, 1
  00068	8b c2		 mov	 eax, edx
  0006a	c1 e8 1f	 shr	 eax, 31			; 0000001fH
  0006d	03 c2		 add	 eax, edx
; File c:\users\michel\desktop\source\gameserver\source\itemprice.cpp

; 107  : 	for( int i = 0; i < this->m_PriceInfo.size(); i++ )

  0006f	3b d8		 cmp	 ebx, eax
  00071	72 bd		 jb	 SHORT $LL4@GetSendPri
$LN113@GetSendPri:
  00073	5f		 pop	 edi
  00074	5e		 pop	 esi

; 133  : 	}
; 134  : 	// ----
; 135  : 	return false;

  00075	32 c0		 xor	 al, al
  00077	5b		 pop	 ebx

; 136  : }

  00078	5d		 pop	 ebp
  00079	c2 14 00	 ret	 20			; 00000014H
$LN9@GetSendPri:

; 130  : 		Price = this->m_PriceInfo[i].m_ItemPrice;

  0007c	8b 4f 04	 mov	 ecx, DWORD PTR [edi+4]
; File c:\program files (x86)\microsoft visual studio 14.0\vc\include\vector

; 1240 : 		return (*(this->_Myfirst() + _Pos));

  0007f	8d 14 5b	 lea	 edx, DWORD PTR [ebx+ebx*2]
; File c:\users\michel\desktop\source\gameserver\source\itemprice.cpp

; 130  : 		Price = this->m_PriceInfo[i].m_ItemPrice;

  00082	8b 45 14	 mov	 eax, DWORD PTR _Price$[ebp]
  00085	8b 4c 91 04	 mov	 ecx, DWORD PTR [ecx+edx*4+4]
  00089	89 08		 mov	 DWORD PTR [eax], ecx

; 131  : 		Divisor = this->m_PriceInfo[i].m_Divisor;

  0008b	8b 47 04	 mov	 eax, DWORD PTR [edi+4]
  0008e	5f		 pop	 edi
  0008f	5e		 pop	 esi
  00090	5b		 pop	 ebx
  00091	8a 4c 90 08	 mov	 cl, BYTE PTR [eax+edx*4+8]
  00095	8b 45 18	 mov	 eax, DWORD PTR _Divisor$[ebp]
  00098	88 08		 mov	 BYTE PTR [eax], cl

; 132  : 		return true;

  0009a	b0 01		 mov	 al, 1

; 136  : }

  0009c	5d		 pop	 ebp
  0009d	c2 14 00	 ret	 20			; 00000014H
?GetSendPrice@ItemPrice@@QAE_NFGEAAKAAE@Z ENDP		; ItemPrice::GetSendPrice
_TEXT	ENDS
; Function compile flags: /Ogtp
; File c:\users\michel\desktop\source\gameserver\source\itemprice.cpp
; File c:\program files (x86)\microsoft visual studio 14.0\vc\include\vector
; File c:\users\michel\desktop\source\gameserver\source\itemprice.cpp
; File c:\program files (x86)\microsoft visual studio 14.0\vc\include\vector
; File c:\users\michel\desktop\source\gameserver\source\itemprice.cpp
; File c:\program files (x86)\microsoft visual studio 14.0\vc\include\vector
; File c:\program files (x86)\microsoft visual studio 14.0\vc\include\xutility
; File c:\users\michel\desktop\source\gameserver\source\itemprice.cpp
; File c:\program files (x86)\microsoft visual studio 14.0\vc\include\vector
; File c:\users\michel\desktop\source\gameserver\source\itemprice.cpp
; File c:\program files (x86)\microsoft visual studio 14.0\vc\include\vector
; File c:\users\michel\desktop\source\gameserver\source\itemprice.cpp
; File c:\program files (x86)\microsoft visual studio 14.0\vc\include\vector
; File c:\users\michel\desktop\source\gameserver\source\itemprice.cpp
; File c:\program files (x86)\microsoft visual studio 14.0\vc\include\vector
; File c:\users\michel\desktop\source\gameserver\source\itemprice.cpp
;	COMDAT ?GetPrice@ItemPrice@@QAE_NFGEAAKAAE@Z
_TEXT	SEGMENT
_ShopNumber$ = 8					; size = 2
_ItemCode$ = 12						; size = 2
_ItemLevel$ = 16					; size = 1
_Price$ = 20						; size = 4
_Divisor$ = 24						; size = 4
?GetPrice@ItemPrice@@QAE_NFGEAAKAAE@Z PROC		; ItemPrice::GetPrice, COMDAT
; _this$ = ecx

; 72   : {

  00000	55		 push	 ebp
  00001	8b ec		 mov	 ebp, esp
  00003	53		 push	 ebx
  00004	56		 push	 esi
  00005	57		 push	 edi
  00006	8b f9		 mov	 edi, ecx
; File c:\program files (x86)\microsoft visual studio 14.0\vc\include\vector

; 1179 : 		return (this->_Mylast() - this->_Myfirst());

  00008	b8 ab aa aa 2a	 mov	 eax, 715827883		; 2aaaaaabH
; File c:\users\michel\desktop\source\gameserver\source\itemprice.cpp

; 73   : 	for( int i = 0; i < this->m_PriceInfo.size(); i++ )

  0000d	33 db		 xor	 ebx, ebx
; File c:\program files (x86)\microsoft visual studio 14.0\vc\include\vector

; 1179 : 		return (this->_Mylast() - this->_Myfirst());

  0000f	8b 57 08	 mov	 edx, DWORD PTR [edi+8]
  00012	2b 57 04	 sub	 edx, DWORD PTR [edi+4]
  00015	f7 ea		 imul	 edx
  00017	d1 fa		 sar	 edx, 1
  00019	8b c2		 mov	 eax, edx
  0001b	c1 e8 1f	 shr	 eax, 31			; 0000001fH
  0001e	03 c2		 add	 eax, edx
; File c:\users\michel\desktop\source\gameserver\source\itemprice.cpp

; 73   : 	for( int i = 0; i < this->m_PriceInfo.size(); i++ )

  00020	74 51		 je	 SHORT $LN113@GetPrice
; File c:\program files (x86)\microsoft visual studio 14.0\vc\include\vector

; 1240 : 		return (*(this->_Myfirst() + _Pos));

  00022	8b 77 04	 mov	 esi, DWORD PTR [edi+4]
; File c:\program files (x86)\microsoft visual studio 14.0\vc\include\xutility

; 314  : 		return (_Myval2);

  00025	83 c6 02	 add	 esi, 2
  00028	0f 1f 84 00 00
	00 00 00	 npad	 8
$LL4@GetPrice:
; File c:\users\michel\desktop\source\gameserver\source\itemprice.cpp

; 75   : 		if( this->m_PriceInfo[i].m_ShopNumber != (short)-1 )

  00030	0f b7 46 08	 movzx	 eax, WORD PTR [esi+8]
  00034	66 83 f8 ff	 cmp	 ax, -1
  00038	74 06		 je	 SHORT $LN6@GetPrice

; 76   : 		{
; 77   : 			if( this->m_PriceInfo[i].m_ShopNumber != ShopNumber )

  0003a	66 3b 45 08	 cmp	 ax, WORD PTR _ShopNumber$[ebp]
  0003e	75 15		 jne	 SHORT $LN2@GetPrice
$LN6@GetPrice:

; 78   : 			{
; 79   : 				continue;
; 80   : 			}
; 81   : 		}
; 82   : 		// ----
; 83   : 		if( this->m_PriceInfo[i].m_ItemCode != ItemCode )

  00040	66 8b 45 0c	 mov	 ax, WORD PTR _ItemCode$[ebp]
  00044	66 39 46 fe	 cmp	 WORD PTR [esi-2], ax
  00048	75 0b		 jne	 SHORT $LN2@GetPrice

; 84   : 		{
; 85   : 			continue;
; 86   : 		}
; 87   : 		// ----
; 88   : 		if( this->m_PriceInfo[i].m_ItemLevel != (BYTE)-1 )

  0004a	8a 06		 mov	 al, BYTE PTR [esi]
  0004c	3c ff		 cmp	 al, 255			; 000000ffH
  0004e	74 2c		 je	 SHORT $LN9@GetPrice

; 89   : 		{
; 90   : 			if( this->m_PriceInfo[i].m_ItemLevel != ItemLevel )

  00050	3a 45 10	 cmp	 al, BYTE PTR _ItemLevel$[ebp]
  00053	74 27		 je	 SHORT $LN9@GetPrice
$LN2@GetPrice:
; File c:\program files (x86)\microsoft visual studio 14.0\vc\include\vector

; 1179 : 		return (this->_Mylast() - this->_Myfirst());

  00055	8b 4f 08	 mov	 ecx, DWORD PTR [edi+8]
  00058	b8 ab aa aa 2a	 mov	 eax, 715827883		; 2aaaaaabH
  0005d	2b 4f 04	 sub	 ecx, DWORD PTR [edi+4]
; File c:\users\michel\desktop\source\gameserver\source\itemprice.cpp

; 73   : 	for( int i = 0; i < this->m_PriceInfo.size(); i++ )

  00060	43		 inc	 ebx
; File c:\program files (x86)\microsoft visual studio 14.0\vc\include\vector

; 1179 : 		return (this->_Mylast() - this->_Myfirst());

  00061	f7 e9		 imul	 ecx
; File c:\users\michel\desktop\source\gameserver\source\itemprice.cpp

; 73   : 	for( int i = 0; i < this->m_PriceInfo.size(); i++ )

  00063	83 c6 0c	 add	 esi, 12			; 0000000cH
; File c:\program files (x86)\microsoft visual studio 14.0\vc\include\vector

; 1179 : 		return (this->_Mylast() - this->_Myfirst());

  00066	d1 fa		 sar	 edx, 1
  00068	8b c2		 mov	 eax, edx
  0006a	c1 e8 1f	 shr	 eax, 31			; 0000001fH
  0006d	03 c2		 add	 eax, edx
; File c:\users\michel\desktop\source\gameserver\source\itemprice.cpp

; 73   : 	for( int i = 0; i < this->m_PriceInfo.size(); i++ )

  0006f	3b d8		 cmp	 ebx, eax
  00071	72 bd		 jb	 SHORT $LL4@GetPrice
$LN113@GetPrice:
  00073	5f		 pop	 edi
  00074	5e		 pop	 esi

; 99   : 	}
; 100  : 	// ----
; 101  : 	return false;

  00075	32 c0		 xor	 al, al
  00077	5b		 pop	 ebx

; 102  : }

  00078	5d		 pop	 ebp
  00079	c2 14 00	 ret	 20			; 00000014H
$LN9@GetPrice:

; 96   : 		Price = this->m_PriceInfo[i].m_ItemPrice;

  0007c	8b 4f 04	 mov	 ecx, DWORD PTR [edi+4]
; File c:\program files (x86)\microsoft visual studio 14.0\vc\include\vector

; 1240 : 		return (*(this->_Myfirst() + _Pos));

  0007f	8d 14 5b	 lea	 edx, DWORD PTR [ebx+ebx*2]
; File c:\users\michel\desktop\source\gameserver\source\itemprice.cpp

; 96   : 		Price = this->m_PriceInfo[i].m_ItemPrice;

  00082	8b 45 14	 mov	 eax, DWORD PTR _Price$[ebp]
  00085	8b 4c 91 04	 mov	 ecx, DWORD PTR [ecx+edx*4+4]
  00089	89 08		 mov	 DWORD PTR [eax], ecx

; 97   : 		Divisor = this->m_PriceInfo[i].m_Divisor;

  0008b	8b 47 04	 mov	 eax, DWORD PTR [edi+4]
  0008e	5f		 pop	 edi
  0008f	5e		 pop	 esi
  00090	5b		 pop	 ebx
  00091	8a 4c 90 08	 mov	 cl, BYTE PTR [eax+edx*4+8]
  00095	8b 45 18	 mov	 eax, DWORD PTR _Divisor$[ebp]
  00098	88 08		 mov	 BYTE PTR [eax], cl

; 98   : 		return true;

  0009a	b0 01		 mov	 al, 1

; 102  : }

  0009c	5d		 pop	 ebp
  0009d	c2 14 00	 ret	 20			; 00000014H
?GetPrice@ItemPrice@@QAE_NFGEAAKAAE@Z ENDP		; ItemPrice::GetPrice
_TEXT	ENDS
; Function compile flags: /Ogtp
; File c:\users\michel\desktop\source\gameserver\source\itemprice.cpp
;	COMDAT ?Read@ItemPrice@@QAEXPAD@Z
_TEXT	SEGMENT
_Result$ = -276						; size = 12
$T2 = -264						; size = 4
$T3 = -260						; size = 4
$T4 = -256						; size = 4
$T5 = -252						; size = 4
$T6 = -248						; size = 4
$T7 = -244						; size = 4
$T8 = -240						; size = 4
_ItemPrice$ = -236					; size = 4
_Item$9 = -232						; size = 4
_Document$ = -228					; size = 200
_lpItem$10 = -28					; size = 12
__$ArrayPad$ = -16					; size = 4
__$EHRec$ = -12						; size = 12
_File$ = 8						; size = 4
?Read@ItemPrice@@QAEXPAD@Z PROC				; ItemPrice::Read, COMDAT
; _this$ = ecx

; 42   : {

  00000	55		 push	 ebp
  00001	8b ec		 mov	 ebp, esp
  00003	6a ff		 push	 -1
  00005	68 00 00 00 00	 push	 __ehhandler$?Read@ItemPrice@@QAEXPAD@Z
  0000a	64 a1 00 00 00
	00		 mov	 eax, DWORD PTR fs:0
  00010	50		 push	 eax
  00011	81 ec 08 01 00
	00		 sub	 esp, 264		; 00000108H
  00017	a1 00 00 00 00	 mov	 eax, DWORD PTR ___security_cookie
  0001c	33 c5		 xor	 eax, ebp
  0001e	89 45 f0	 mov	 DWORD PTR __$ArrayPad$[ebp], eax
  00021	53		 push	 ebx
  00022	56		 push	 esi
  00023	57		 push	 edi
  00024	50		 push	 eax
  00025	8d 45 f4	 lea	 eax, DWORD PTR __$EHRec$[ebp]
  00028	64 a3 00 00 00
	00		 mov	 DWORD PTR fs:0, eax
  0002e	8b f9		 mov	 edi, ecx
  00030	8b 75 08	 mov	 esi, DWORD PTR _File$[ebp]

; 43   : 	xml_document Document;

  00033	8d 8d 1c ff ff
	ff		 lea	 ecx, DWORD PTR _Document$[ebp]
  00039	e8 00 00 00 00	 call	 ??0xml_document@pugi@@QAE@XZ ; pugi::xml_document::xml_document

; 44   : 	xml_parse_result Result = Document.load_file(File);

  0003e	6a 00		 push	 0
  00040	6a 74		 push	 116			; 00000074H
  00042	56		 push	 esi
  00043	8d 85 ec fe ff
	ff		 lea	 eax, DWORD PTR _Result$[ebp]
  00049	c7 45 fc 00 00
	00 00		 mov	 DWORD PTR __$EHRec$[ebp+8], 0
  00050	50		 push	 eax
  00051	8d 8d 1c ff ff
	ff		 lea	 ecx, DWORD PTR _Document$[ebp]
  00057	e8 00 00 00 00	 call	 ?load_file@xml_document@pugi@@QAE?AUxml_parse_result@2@PBDIW4xml_encoding@2@@Z ; pugi::xml_document::load_file

; 45   : 	// ----
; 46   : 	if( Result.status != status_ok )

  0005c	83 bd ec fe ff
	ff 00		 cmp	 DWORD PTR _Result$[ebp], 0
  00063	74 13		 je	 SHORT $LN5@Read

; 47   : 	{
; 48   : 		MsgBox("[ItemPrice] File %s not found!", File);

  00065	56		 push	 esi
  00066	68 00 00 00 00	 push	 OFFSET ??_C@_0BP@FIKPEDIE@?$FLItemPrice?$FN?5File?5?$CFs?5not?5found?$CB?$AA@
  0006b	e8 00 00 00 00	 call	 ?MsgBox@@YAXPADZZ	; MsgBox
  00070	83 c4 08	 add	 esp, 8
  00073	e9 68 01 00 00	 jmp	 $LN3@Read
$LN5@Read:

; 49   : 		return;
; 50   : 	}
; 51   : 	// ----
; 52   : 	xml_node ItemPrice = Document.child("itemprice");

  00078	68 00 00 00 00	 push	 OFFSET ??_C@_09HCKHEFGM@itemprice?$AA@
  0007d	8d 85 14 ff ff
	ff		 lea	 eax, DWORD PTR _ItemPrice$[ebp]
  00083	50		 push	 eax
  00084	8d 8d 1c ff ff
	ff		 lea	 ecx, DWORD PTR _Document$[ebp]
  0008a	e8 00 00 00 00	 call	 ?child@xml_node@pugi@@QBE?AV12@PBD@Z ; pugi::xml_node::child

; 53   : 	// ----
; 54   : 	for( xml_node Item = ItemPrice.child("item"); Item; Item = Item.next_sibling() )

  0008f	68 00 00 00 00	 push	 OFFSET ??_C@_04NHONDGDE@item?$AA@
  00094	8d 85 18 ff ff
	ff		 lea	 eax, DWORD PTR _Item$9[ebp]
  0009a	50		 push	 eax
  0009b	8d 8d 14 ff ff
	ff		 lea	 ecx, DWORD PTR _ItemPrice$[ebp]
  000a1	e8 00 00 00 00	 call	 ?child@xml_node@pugi@@QBE?AV12@PBD@Z ; pugi::xml_node::child
  000a6	8d 8d 18 ff ff
	ff		 lea	 ecx, DWORD PTR _Item$9[ebp]
  000ac	e8 00 00 00 00	 call	 ??Bxml_node@pugi@@QBEP6AXPAPAPAV01@@ZXZ ; pugi::xml_node::operator void (__cdecl*)(pugi::xml_node * * *)
  000b1	85 c0		 test	 eax, eax
  000b3	0f 84 27 01 00
	00		 je	 $LN3@Read
  000b9	0f 1f 80 00 00
	00 00		 npad	 7
$LL4@Read:

; 55   : 	{
; 56   : 		ItemPriceInfo lpItem;
; 57   : 		lpItem.m_ItemCode = ITEMGET(Item.attribute("type").as_int(), Item.attribute("index").as_int());

  000c0	6a 00		 push	 0
  000c2	68 00 00 00 00	 push	 OFFSET ??_C@_04GPMDFGEJ@type?$AA@
  000c7	8d 85 10 ff ff
	ff		 lea	 eax, DWORD PTR $T8[ebp]
  000cd	50		 push	 eax
  000ce	8d 8d 18 ff ff
	ff		 lea	 ecx, DWORD PTR _Item$9[ebp]
  000d4	e8 00 00 00 00	 call	 ?attribute@xml_node@pugi@@QBE?AVxml_attribute@2@PBD@Z ; pugi::xml_node::attribute
  000d9	8b c8		 mov	 ecx, eax
  000db	e8 00 00 00 00	 call	 ?as_int@xml_attribute@pugi@@QBEHH@Z ; pugi::xml_attribute::as_int
  000e0	6a 00		 push	 0
  000e2	8b f0		 mov	 esi, eax
  000e4	8d 8d 18 ff ff
	ff		 lea	 ecx, DWORD PTR _Item$9[ebp]
  000ea	68 00 00 00 00	 push	 OFFSET ??_C@_05FKHKFDID@index?$AA@
  000ef	8d 85 0c ff ff
	ff		 lea	 eax, DWORD PTR $T7[ebp]
  000f5	c1 e6 09	 shl	 esi, 9
  000f8	50		 push	 eax
  000f9	e8 00 00 00 00	 call	 ?attribute@xml_node@pugi@@QBE?AVxml_attribute@2@PBD@Z ; pugi::xml_node::attribute
  000fe	8b c8		 mov	 ecx, eax
  00100	e8 00 00 00 00	 call	 ?as_int@xml_attribute@pugi@@QBEHH@Z ; pugi::xml_attribute::as_int
  00105	03 c6		 add	 eax, esi

; 58   : 		lpItem.m_ItemLevel = (BYTE)Item.attribute("level").as_int(-1);

  00107	8d 8d 18 ff ff
	ff		 lea	 ecx, DWORD PTR _Item$9[ebp]
  0010d	6a ff		 push	 -1
  0010f	66 89 45 e4	 mov	 WORD PTR _lpItem$10[ebp], ax
  00113	8d 85 08 ff ff
	ff		 lea	 eax, DWORD PTR $T6[ebp]
  00119	68 00 00 00 00	 push	 OFFSET ??_C@_05KJNJLLGA@level?$AA@
  0011e	50		 push	 eax
  0011f	e8 00 00 00 00	 call	 ?attribute@xml_node@pugi@@QBE?AVxml_attribute@2@PBD@Z ; pugi::xml_node::attribute
  00124	8b c8		 mov	 ecx, eax
  00126	e8 00 00 00 00	 call	 ?as_int@xml_attribute@pugi@@QBEHH@Z ; pugi::xml_attribute::as_int

; 59   : 		lpItem.m_ItemPrice = Item.attribute("price").as_uint();

  0012b	6a 00		 push	 0
  0012d	88 45 e6	 mov	 BYTE PTR _lpItem$10[ebp+2], al
  00130	8d 8d 18 ff ff
	ff		 lea	 ecx, DWORD PTR _Item$9[ebp]
  00136	68 00 00 00 00	 push	 OFFSET ??_C@_05NCDILCCA@price?$AA@
  0013b	8d 85 04 ff ff
	ff		 lea	 eax, DWORD PTR $T5[ebp]
  00141	50		 push	 eax
  00142	e8 00 00 00 00	 call	 ?attribute@xml_node@pugi@@QBE?AVxml_attribute@2@PBD@Z ; pugi::xml_node::attribute
  00147	8b c8		 mov	 ecx, eax
  00149	e8 00 00 00 00	 call	 ?as_uint@xml_attribute@pugi@@QBEII@Z ; pugi::xml_attribute::as_uint

; 60   : 		lpItem.m_Divisor = Item.attribute("divisor").as_int();

  0014e	6a 00		 push	 0
  00150	89 45 e8	 mov	 DWORD PTR _lpItem$10[ebp+4], eax
  00153	8d 8d 18 ff ff
	ff		 lea	 ecx, DWORD PTR _Item$9[ebp]
  00159	68 00 00 00 00	 push	 OFFSET ??_C@_07LOADOEBK@divisor?$AA@
  0015e	8d 85 00 ff ff
	ff		 lea	 eax, DWORD PTR $T4[ebp]
  00164	50		 push	 eax
  00165	e8 00 00 00 00	 call	 ?attribute@xml_node@pugi@@QBE?AVxml_attribute@2@PBD@Z ; pugi::xml_node::attribute
  0016a	8b c8		 mov	 ecx, eax
  0016c	e8 00 00 00 00	 call	 ?as_int@xml_attribute@pugi@@QBEHH@Z ; pugi::xml_attribute::as_int

; 61   : 		lpItem.m_ShopNumber = Item.attribute("shop").as_int();

  00171	6a 00		 push	 0
  00173	8a d8		 mov	 bl, al
  00175	8d 8d 18 ff ff
	ff		 lea	 ecx, DWORD PTR _Item$9[ebp]
  0017b	68 00 00 00 00	 push	 OFFSET ??_C@_04BFIJLIPK@shop?$AA@
  00180	8d 85 fc fe ff
	ff		 lea	 eax, DWORD PTR $T3[ebp]
  00186	50		 push	 eax
  00187	e8 00 00 00 00	 call	 ?attribute@xml_node@pugi@@QBE?AVxml_attribute@2@PBD@Z ; pugi::xml_node::attribute
  0018c	8b c8		 mov	 ecx, eax
  0018e	e8 00 00 00 00	 call	 ?as_int@xml_attribute@pugi@@QBEHH@Z ; pugi::xml_attribute::as_int
  00193	66 89 45 ee	 mov	 WORD PTR _lpItem$10[ebp+10], ax

; 62   : 		if( lpItem.m_Divisor <= 0 )

  00197	84 db		 test	 bl, bl
  00199	b9 01 00 00 00	 mov	 ecx, 1
  0019e	0f b6 c3	 movzx	 eax, bl
  001a1	0f 44 c1	 cmove	 eax, ecx

; 63   : 		{
; 64   : 			lpItem.m_Divisor = 1;
; 65   : 		}
; 66   : 		this->m_PriceInfo.push_back(lpItem);

  001a4	8d 4f 04	 lea	 ecx, DWORD PTR [edi+4]
  001a7	88 45 ec	 mov	 BYTE PTR _lpItem$10[ebp+8], al
  001aa	8d 45 e4	 lea	 eax, DWORD PTR _lpItem$10[ebp]
  001ad	50		 push	 eax
  001ae	e8 00 00 00 00	 call	 ?push_back@?$vector@UItemPriceInfo@@V?$allocator@UItemPriceInfo@@@std@@@std@@QAEXABUItemPriceInfo@@@Z ; std::vector<ItemPriceInfo,std::allocator<ItemPriceInfo> >::push_back
  001b3	8d 85 f8 fe ff
	ff		 lea	 eax, DWORD PTR $T2[ebp]
  001b9	50		 push	 eax
  001ba	8d 8d 18 ff ff
	ff		 lea	 ecx, DWORD PTR _Item$9[ebp]
  001c0	e8 00 00 00 00	 call	 ?next_sibling@xml_node@pugi@@QBE?AV12@XZ ; pugi::xml_node::next_sibling
  001c5	8d 8d 18 ff ff
	ff		 lea	 ecx, DWORD PTR _Item$9[ebp]
  001cb	8b 00		 mov	 eax, DWORD PTR [eax]
  001cd	89 85 18 ff ff
	ff		 mov	 DWORD PTR _Item$9[ebp], eax
  001d3	e8 00 00 00 00	 call	 ??Bxml_node@pugi@@QBEP6AXPAPAPAV01@@ZXZ ; pugi::xml_node::operator void (__cdecl*)(pugi::xml_node * * *)
  001d8	85 c0		 test	 eax, eax
  001da	0f 85 e0 fe ff
	ff		 jne	 $LL4@Read
$LN3@Read:

; 67   : 	}
; 68   : }

  001e0	8d 8d 1c ff ff
	ff		 lea	 ecx, DWORD PTR _Document$[ebp]
  001e6	e8 00 00 00 00	 call	 ??1xml_document@pugi@@QAE@XZ ; pugi::xml_document::~xml_document
  001eb	8b 4d f4	 mov	 ecx, DWORD PTR __$EHRec$[ebp]
  001ee	64 89 0d 00 00
	00 00		 mov	 DWORD PTR fs:0, ecx
  001f5	59		 pop	 ecx
  001f6	5f		 pop	 edi
  001f7	5e		 pop	 esi
  001f8	5b		 pop	 ebx
  001f9	8b 4d f0	 mov	 ecx, DWORD PTR __$ArrayPad$[ebp]
  001fc	33 cd		 xor	 ecx, ebp
  001fe	e8 00 00 00 00	 call	 @__security_check_cookie@4
  00203	8b e5		 mov	 esp, ebp
  00205	5d		 pop	 ebp
  00206	c2 04 00	 ret	 4
_TEXT	ENDS
;	COMDAT text$x
text$x	SEGMENT
__unwindfunclet$?Read@ItemPrice@@QAEXPAD@Z$0:
  00000	8d 8d 1c ff ff
	ff		 lea	 ecx, DWORD PTR _Document$[ebp]
  00006	e9 00 00 00 00	 jmp	 ??1xml_document@pugi@@QAE@XZ ; pugi::xml_document::~xml_document
__ehhandler$?Read@ItemPrice@@QAEXPAD@Z:
  0000b	8b 54 24 08	 mov	 edx, DWORD PTR [esp+8]
  0000f	8d 42 0c	 lea	 eax, DWORD PTR [edx+12]
  00012	8b 8a e8 fe ff
	ff		 mov	 ecx, DWORD PTR [edx-280]
  00018	33 c8		 xor	 ecx, eax
  0001a	e8 00 00 00 00	 call	 @__security_check_cookie@4
  0001f	8b 4a fc	 mov	 ecx, DWORD PTR [edx-4]
  00022	33 c8		 xor	 ecx, eax
  00024	e8 00 00 00 00	 call	 @__security_check_cookie@4
  00029	b8 00 00 00 00	 mov	 eax, OFFSET __ehfuncinfo$?Read@ItemPrice@@QAEXPAD@Z
  0002e	e9 00 00 00 00	 jmp	 ___CxxFrameHandler3
text$x	ENDS
?Read@ItemPrice@@QAEXPAD@Z ENDP				; ItemPrice::Read
; Function compile flags: /Ogtp
; File c:\users\michel\desktop\source\gameserver\source\itemprice.cpp
;	COMDAT ?Load@ItemPrice@@QAEXXZ
_TEXT	SEGMENT
?Load@ItemPrice@@QAEXXZ PROC				; ItemPrice::Load, COMDAT
; _this$ = ecx

; 35   : {

  00000	56		 push	 esi
  00001	8b f1		 mov	 esi, ecx

; 36   : 	this->Init();

  00003	e8 00 00 00 00	 call	 ?Init@ItemPrice@@QAEXXZ	; ItemPrice::Init

; 37   : 	this->Read(gDirPath.GetNewPath(FILE_CUSTOM_ITEMPRICE));

  00008	68 00 00 00 00	 push	 OFFSET ??_C@_0BF@CPLIFJBD@Custom?2ItemPrice?4xml?$AA@
  0000d	b9 00 00 00 00	 mov	 ecx, OFFSET ?gDirPath@@3VCDirPath@@A ; gDirPath
  00012	e8 00 00 00 00	 call	 ?GetNewPath@CDirPath@@QAEPADPAD@Z ; CDirPath::GetNewPath
  00017	50		 push	 eax
  00018	8b ce		 mov	 ecx, esi
  0001a	e8 00 00 00 00	 call	 ?Read@ItemPrice@@QAEXPAD@Z ; ItemPrice::Read
  0001f	5e		 pop	 esi

; 38   : }

  00020	c3		 ret	 0
?Load@ItemPrice@@QAEXXZ ENDP				; ItemPrice::Load
_TEXT	ENDS
; Function compile flags: /Ogtp
; File c:\users\michel\desktop\source\gameserver\source\itemprice.cpp
; File c:\program files (x86)\microsoft visual studio 14.0\vc\include\vector
; File c:\users\michel\desktop\source\gameserver\source\itemprice.cpp
; File c:\program files (x86)\microsoft visual studio 14.0\vc\include\vector
; File c:\users\michel\desktop\source\gameserver\source\itemprice.cpp
; File c:\program files (x86)\microsoft visual studio 14.0\vc\include\vector
; File c:\users\michel\desktop\source\gameserver\source\itemprice.cpp
; File c:\program files (x86)\microsoft visual studio 14.0\vc\include\vector
; File c:\program files (x86)\microsoft visual studio 14.0\vc\include\utility
; File c:\program files (x86)\microsoft visual studio 14.0\vc\include\vector
; File c:\program files (x86)\microsoft visual studio 14.0\vc\include\xmemory0
; File c:\users\michel\desktop\source\gameserver\source\itemprice.cpp
;	COMDAT ?Init@ItemPrice@@QAEXXZ
_TEXT	SEGMENT
$T1 = -12						; size = 12
?Init@ItemPrice@@QAEXXZ PROC				; ItemPrice::Init, COMDAT
; _this$ = ecx

; 25   : {

  00000	55		 push	 ebp
  00001	8b ec		 mov	 ebp, esp
; File c:\program files (x86)\microsoft visual studio 14.0\vc\include\vector

; 1542 : 		this->_Mylast() = this->_Myfirst();

  00003	8b 41 04	 mov	 eax, DWORD PTR [ecx+4]
; File c:\users\michel\desktop\source\gameserver\source\itemprice.cpp

; 25   : {

  00006	83 ec 0c	 sub	 esp, 12			; 0000000cH
; File c:\program files (x86)\microsoft visual studio 14.0\vc\include\vector

; 1542 : 		this->_Mylast() = this->_Myfirst();

  00009	89 41 08	 mov	 DWORD PTR [ecx+8], eax

; 1042 : 		return (this->_Myend() - this->_Myfirst());

  0000c	b8 ab aa aa 2a	 mov	 eax, 715827883		; 2aaaaaabH
  00011	56		 push	 esi
; File c:\users\michel\desktop\source\gameserver\source\itemprice.cpp

; 26   : 	this->m_PriceInfo.clear();

  00012	8d 71 04	 lea	 esi, DWORD PTR [ecx+4]
; File c:\program files (x86)\microsoft visual studio 14.0\vc\include\vector

; 1042 : 		return (this->_Myend() - this->_Myfirst());

  00015	8b 4e 08	 mov	 ecx, DWORD PTR [esi+8]
  00018	2b 0e		 sub	 ecx, DWORD PTR [esi]
  0001a	f7 e9		 imul	 ecx
  0001c	d1 fa		 sar	 edx, 1
  0001e	8b c2		 mov	 eax, edx
  00020	c1 e8 1f	 shr	 eax, 31			; 0000001fH
  00023	03 c2		 add	 eax, edx
; File c:\users\michel\desktop\source\gameserver\source\itemprice.cpp

; 27   : 	if( this->m_PriceInfo.capacity() > 0 )

  00025	74 40		 je	 SHORT $LN310@Init
; File c:\program files (x86)\microsoft visual studio 14.0\vc\include\vector

; 1549 : 		if (this == &_Right)

  00027	8d 45 f4	 lea	 eax, DWORD PTR $T1[ebp]
  0002a	3b c6		 cmp	 eax, esi
  0002c	74 39		 je	 SHORT $LN310@Init
; File c:\program files (x86)\microsoft visual studio 14.0\vc\include\utility

; 53   : 	_Left = _Move(_Right);

  0002e	8b 0e		 mov	 ecx, DWORD PTR [esi]

; 54   : 	_Right = _Move(_Tmp);

  00030	c7 06 00 00 00
	00		 mov	 DWORD PTR [esi], 0
  00036	c7 46 04 00 00
	00 00		 mov	 DWORD PTR [esi+4], 0

; 53   : 	_Left = _Move(_Right);

  0003d	8b 56 08	 mov	 edx, DWORD PTR [esi+8]

; 54   : 	_Right = _Move(_Tmp);

  00040	c7 46 08 00 00
	00 00		 mov	 DWORD PTR [esi+8], 0
; File c:\program files (x86)\microsoft visual studio 14.0\vc\include\vector

; 1656 : 		if (this->_Myfirst() != pointer())

  00047	85 c9		 test	 ecx, ecx
  00049	74 1c		 je	 SHORT $LN310@Init

; 1657 : 			{	// something to free, destroy and deallocate it
; 1658 : 			this->_Orphan_all();
; 1659 : 			_Destroy(this->_Myfirst(), this->_Mylast());
; 1660 : 			this->_Getal().deallocate(this->_Myfirst(),

  0004b	2b d1		 sub	 edx, ecx
  0004d	b8 ab aa aa 2a	 mov	 eax, 715827883		; 2aaaaaabH
  00052	f7 ea		 imul	 edx
  00054	d1 fa		 sar	 edx, 1
  00056	8b c2		 mov	 eax, edx
  00058	c1 e8 1f	 shr	 eax, 31			; 0000001fH
  0005b	03 c2		 add	 eax, edx
; File c:\program files (x86)\microsoft visual studio 14.0\vc\include\xmemory0

; 909  : 		_Mybase::deallocate(_Ptr, _Count);

  0005d	50		 push	 eax
  0005e	51		 push	 ecx
  0005f	8d 4d f4	 lea	 ecx, DWORD PTR $T1[ebp]
  00062	e8 00 00 00 00	 call	 ?deallocate@?$allocator@UItemPriceInfo@@@std@@QAEXPAUItemPriceInfo@@I@Z ; std::allocator<ItemPriceInfo>::deallocate
$LN310@Init:
  00067	5e		 pop	 esi
; File c:\users\michel\desktop\source\gameserver\source\itemprice.cpp

; 31   : }

  00068	8b e5		 mov	 esp, ebp
  0006a	5d		 pop	 ebp
  0006b	c3		 ret	 0
?Init@ItemPrice@@QAEXXZ ENDP				; ItemPrice::Init
_TEXT	ENDS
; Function compile flags: /Ogtp
; File c:\users\michel\desktop\source\gameserver\source\itemprice.cpp
; File c:\program files (x86)\microsoft visual studio 14.0\vc\include\vector
; File c:\program files (x86)\microsoft visual studio 14.0\vc\include\xmemory0
; File c:\program files (x86)\microsoft visual studio 14.0\vc\include\vector
; File c:\program files (x86)\microsoft visual studio 14.0\vc\include\xmemory0
; File c:\program files (x86)\microsoft visual studio 14.0\vc\include\vector
; File c:\users\michel\desktop\source\gameserver\source\itemprice.cpp
;	COMDAT ??1ItemPrice@@UAE@XZ
_TEXT	SEGMENT
??1ItemPrice@@UAE@XZ PROC				; ItemPrice::~ItemPrice, COMDAT
; _this$ = ecx

; 19   : {

  00000	56		 push	 esi

; 21   : }

  00001	8d 71 04	 lea	 esi, DWORD PTR [ecx+4]
  00004	c7 01 00 00 00
	00		 mov	 DWORD PTR [ecx], OFFSET ??_7ItemPrice@@6B@
  0000a	57		 push	 edi
; File c:\program files (x86)\microsoft visual studio 14.0\vc\include\vector

; 1656 : 		if (this->_Myfirst() != pointer())

  0000b	8b 3e		 mov	 edi, DWORD PTR [esi]
  0000d	85 ff		 test	 edi, edi
  0000f	74 32		 je	 SHORT $LN7@ItemPrice

; 1660 : 			this->_Getal().deallocate(this->_Myfirst(),

  00011	8b 4e 08	 mov	 ecx, DWORD PTR [esi+8]
  00014	b8 ab aa aa 2a	 mov	 eax, 715827883		; 2aaaaaabH
  00019	2b cf		 sub	 ecx, edi
  0001b	f7 e9		 imul	 ecx
; File c:\program files (x86)\microsoft visual studio 14.0\vc\include\xmemory0

; 909  : 		_Mybase::deallocate(_Ptr, _Count);

  0001d	8b ce		 mov	 ecx, esi
; File c:\program files (x86)\microsoft visual studio 14.0\vc\include\vector

; 1660 : 			this->_Getal().deallocate(this->_Myfirst(),

  0001f	d1 fa		 sar	 edx, 1
  00021	8b c2		 mov	 eax, edx
  00023	c1 e8 1f	 shr	 eax, 31			; 0000001fH
  00026	03 c2		 add	 eax, edx
; File c:\program files (x86)\microsoft visual studio 14.0\vc\include\xmemory0

; 909  : 		_Mybase::deallocate(_Ptr, _Count);

  00028	50		 push	 eax
  00029	57		 push	 edi
  0002a	e8 00 00 00 00	 call	 ?deallocate@?$allocator@UItemPriceInfo@@@std@@QAEXPAUItemPriceInfo@@I@Z ; std::allocator<ItemPriceInfo>::deallocate
; File c:\program files (x86)\microsoft visual studio 14.0\vc\include\vector

; 1662 : 			this->_Myfirst() = pointer();

  0002f	c7 06 00 00 00
	00		 mov	 DWORD PTR [esi], 0

; 1663 : 			this->_Mylast() = pointer();

  00035	c7 46 04 00 00
	00 00		 mov	 DWORD PTR [esi+4], 0

; 1664 : 			this->_Myend() = pointer();

  0003c	c7 46 08 00 00
	00 00		 mov	 DWORD PTR [esi+8], 0
$LN7@ItemPrice:
  00043	5f		 pop	 edi
  00044	5e		 pop	 esi
; File c:\users\michel\desktop\source\gameserver\source\itemprice.cpp

; 21   : }

  00045	c3		 ret	 0
??1ItemPrice@@UAE@XZ ENDP				; ItemPrice::~ItemPrice
_TEXT	ENDS
; Function compile flags: /Ogtp
; File c:\users\michel\desktop\source\gameserver\source\itemprice.cpp
; File c:\program files (x86)\microsoft visual studio 14.0\vc\include\vector
; File c:\users\michel\desktop\source\gameserver\source\itemprice.cpp
;	COMDAT ??0ItemPrice@@QAE@XZ
_TEXT	SEGMENT
_this$ = -4						; size = 4
??0ItemPrice@@QAE@XZ PROC				; ItemPrice::ItemPrice, COMDAT
; _this$ = ecx

; 13   : {

  00000	55		 push	 ebp
  00001	8b ec		 mov	 ebp, esp
  00003	51		 push	 ecx
  00004	c7 01 00 00 00
	00		 mov	 DWORD PTR [ecx], OFFSET ??_7ItemPrice@@6B@

; 15   : }

  0000a	8b c1		 mov	 eax, ecx
  0000c	89 4d fc	 mov	 DWORD PTR _this$[ebp], ecx
; File c:\program files (x86)\microsoft visual studio 14.0\vc\include\vector

; 480  : 		_Myfirst = pointer();

  0000f	c7 41 04 00 00
	00 00		 mov	 DWORD PTR [ecx+4], 0

; 481  : 		_Mylast = pointer();

  00016	c7 41 08 00 00
	00 00		 mov	 DWORD PTR [ecx+8], 0

; 482  : 		_Myend = pointer();

  0001d	c7 41 0c 00 00
	00 00		 mov	 DWORD PTR [ecx+12], 0
; File c:\users\michel\desktop\source\gameserver\source\itemprice.cpp

; 15   : }

  00024	8b e5		 mov	 esp, ebp
  00026	5d		 pop	 ebp
  00027	c3		 ret	 0
??0ItemPrice@@QAE@XZ ENDP				; ItemPrice::ItemPrice
_TEXT	ENDS
; Function compile flags: /Ogtp
;	COMDAT ??_EOBJECTSTRUCT@@QAEPAXI@Z
_TEXT	SEGMENT
__$EHRec$ = -12						; size = 12
___flags$ = 8						; size = 4
??_EOBJECTSTRUCT@@QAEPAXI@Z PROC			; OBJECTSTRUCT::`vector deleting destructor', COMDAT
; _this$ = ecx
  00000	55		 push	 ebp
  00001	8b ec		 mov	 ebp, esp
  00003	6a ff		 push	 -1
  00005	68 00 00 00 00	 push	 __ehhandler$??_EOBJECTSTRUCT@@QAEPAXI@Z
  0000a	64 a1 00 00 00
	00		 mov	 eax, DWORD PTR fs:0
  00010	50		 push	 eax
  00011	53		 push	 ebx
  00012	56		 push	 esi
  00013	57		 push	 edi
  00014	a1 00 00 00 00	 mov	 eax, DWORD PTR ___security_cookie
