; Listing generated by Microsoft (R) Optimizing Compiler Version 19.00.23506.0 

	TITLE	C:\Users\Michel\Desktop\Source\GameServer\Source\KanturuBattleOfMaya.cpp
	.686P
	.XMM
	include listing.inc
	.model	flat

INCLUDELIB LIBCMT
INCLUDELIB OLDNAMES

PUBLIC	?__empty_global_delete@@YAXPAX@Z		; __empty_global_delete
PUBLIC	?__empty_global_delete@@YAXPAXI@Z		; __empty_global_delete
PUBLIC	?IsTimeOut@CKanturuStateInfo@@QAEHXZ		; CKanturuStateInfo::IsTimeOut
PUBLIC	??0CKanturuBattleOfMaya@@QAE@XZ			; CKanturuBattleOfMaya::CKanturuBattleOfMaya
PUBLIC	??1CKanturuBattleOfMaya@@UAE@XZ			; CKanturuBattleOfMaya::~CKanturuBattleOfMaya
PUBLIC	?ResetAllData@CKanturuBattleOfMaya@@QAEXXZ	; CKanturuBattleOfMaya::ResetAllData
PUBLIC	?LoadData@CKanturuBattleOfMaya@@QAEHPAD@Z	; CKanturuBattleOfMaya::LoadData
PUBLIC	?Run@CKanturuBattleOfMaya@@QAEXXZ		; CKanturuBattleOfMaya::Run
PUBLIC	?SetState@CKanturuBattleOfMaya@@QAEXH@Z		; CKanturuBattleOfMaya::SetState
PUBLIC	?SetNextState@CKanturuBattleOfMaya@@QAEXH@Z	; CKanturuBattleOfMaya::SetNextState
PUBLIC	?SetState_NONE@CKanturuBattleOfMaya@@QAEXXZ	; CKanturuBattleOfMaya::SetState_NONE
PUBLIC	?SetState_STANBY1@CKanturuBattleOfMaya@@QAEXXZ	; CKanturuBattleOfMaya::SetState_STANBY1
PUBLIC	?SetState_NOTIFY1@CKanturuBattleOfMaya@@QAEXXZ	; CKanturuBattleOfMaya::SetState_NOTIFY1
PUBLIC	?SetState_START1@CKanturuBattleOfMaya@@QAEXXZ	; CKanturuBattleOfMaya::SetState_START1
PUBLIC	?SetState_MAYA1@CKanturuBattleOfMaya@@QAEXXZ	; CKanturuBattleOfMaya::SetState_MAYA1
PUBLIC	?SetState_END_MAYA1@CKanturuBattleOfMaya@@QAEXXZ ; CKanturuBattleOfMaya::SetState_END_MAYA1
PUBLIC	?SetState_ENDCYCLE_MAYA1@CKanturuBattleOfMaya@@QAEXXZ ; CKanturuBattleOfMaya::SetState_ENDCYCLE_MAYA1
PUBLIC	?SetState_STANBY2@CKanturuBattleOfMaya@@QAEXXZ	; CKanturuBattleOfMaya::SetState_STANBY2
PUBLIC	?SetState_START2@CKanturuBattleOfMaya@@QAEXXZ	; CKanturuBattleOfMaya::SetState_START2
PUBLIC	?SetState_MAYA2@CKanturuBattleOfMaya@@QAEXXZ	; CKanturuBattleOfMaya::SetState_MAYA2
PUBLIC	?SetState_END_MAYA2@CKanturuBattleOfMaya@@QAEXXZ ; CKanturuBattleOfMaya::SetState_END_MAYA2
PUBLIC	?SetState_ENDCYCLE_MAYA2@CKanturuBattleOfMaya@@QAEXXZ ; CKanturuBattleOfMaya::SetState_ENDCYCLE_MAYA2
PUBLIC	?SetState_STANBY3@CKanturuBattleOfMaya@@QAEXXZ	; CKanturuBattleOfMaya::SetState_STANBY3
PUBLIC	?SetState_START3@CKanturuBattleOfMaya@@QAEXXZ	; CKanturuBattleOfMaya::SetState_START3
PUBLIC	?SetState_MAYA3@CKanturuBattleOfMaya@@QAEXXZ	; CKanturuBattleOfMaya::SetState_MAYA3
PUBLIC	?SetState_END_MAYA3@CKanturuBattleOfMaya@@QAEXXZ ; CKanturuBattleOfMaya::SetState_END_MAYA3
PUBLIC	?SetState_ENDCYCLE_MAYA3@CKanturuBattleOfMaya@@QAEXXZ ; CKanturuBattleOfMaya::SetState_ENDCYCLE_MAYA3
PUBLIC	?SetState_END@CKanturuBattleOfMaya@@QAEXXZ	; CKanturuBattleOfMaya::SetState_END
PUBLIC	?SetState_ENDCYCLE@CKanturuBattleOfMaya@@QAEXXZ	; CKanturuBattleOfMaya::SetState_ENDCYCLE
PUBLIC	?ProcState_NONE@CKanturuBattleOfMaya@@QAEXXZ	; CKanturuBattleOfMaya::ProcState_NONE
PUBLIC	?ProcState_STANBY1@CKanturuBattleOfMaya@@QAEXXZ	; CKanturuBattleOfMaya::ProcState_STANBY1
PUBLIC	?ProcState_NOTIFY1@CKanturuBattleOfMaya@@QAEXXZ	; CKanturuBattleOfMaya::ProcState_NOTIFY1
PUBLIC	?ProcState_START1@CKanturuBattleOfMaya@@QAEXXZ	; CKanturuBattleOfMaya::ProcState_START1
PUBLIC	?ProcState_MAYA1@CKanturuBattleOfMaya@@QAEXXZ	; CKanturuBattleOfMaya::ProcState_MAYA1
PUBLIC	?ProcState_END_MAYA1@CKanturuBattleOfMaya@@QAEXXZ ; CKanturuBattleOfMaya::ProcState_END_MAYA1
PUBLIC	?ProcState_ENDCYCLE_MAYA1@CKanturuBattleOfMaya@@QAEXXZ ; CKanturuBattleOfMaya::ProcState_ENDCYCLE_MAYA1
PUBLIC	?ProcState_STANBY2@CKanturuBattleOfMaya@@QAEXXZ	; CKanturuBattleOfMaya::ProcState_STANBY2
PUBLIC	?ProcState_START2@CKanturuBattleOfMaya@@QAEXXZ	; CKanturuBattleOfMaya::ProcState_START2
PUBLIC	?ProcState_MAYA2@CKanturuBattleOfMaya@@QAEXXZ	; CKanturuBattleOfMaya::ProcState_MAYA2
PUBLIC	?ProcState_END_MAYA2@CKanturuBattleOfMaya@@QAEXXZ ; CKanturuBattleOfMaya::ProcState_END_MAYA2
PUBLIC	?ProcState_ENDCYCLE_MAYA2@CKanturuBattleOfMaya@@QAEXXZ ; CKanturuBattleOfMaya::ProcState_ENDCYCLE_MAYA2
PUBLIC	?ProcState_STANBY3@CKanturuBattleOfMaya@@QAEXXZ	; CKanturuBattleOfMaya::ProcState_STANBY3
PUBLIC	?ProcState_START3@CKanturuBattleOfMaya@@QAEXXZ	; CKanturuBattleOfMaya::ProcState_START3
PUBLIC	?ProcState_MAYA3@CKanturuBattleOfMaya@@QAEXXZ	; CKanturuBattleOfMaya::ProcState_MAYA3
PUBLIC	?ProcState_END_MAYA3@CKanturuBattleOfMaya@@QAEXXZ ; CKanturuBattleOfMaya::ProcState_END_MAYA3
PUBLIC	?ProcState_ENDCYCLE_MAYA3@CKanturuBattleOfMaya@@QAEXXZ ; CKanturuBattleOfMaya::ProcState_ENDCYCLE_MAYA3
PUBLIC	?ProcState_END@CKanturuBattleOfMaya@@QAEXXZ	; CKanturuBattleOfMaya::ProcState_END
PUBLIC	?ProcState_ENDCYCLE@CKanturuBattleOfMaya@@QAEXXZ ; CKanturuBattleOfMaya::ProcState_ENDCYCLE
PUBLIC	?CheckStateTime@CKanturuBattleOfMaya@@QAEHXZ	; CKanturuBattleOfMaya::CheckStateTime
PUBLIC	?GetRemainTime@CKanturuBattleOfMaya@@QAEHXZ	; CKanturuBattleOfMaya::GetRemainTime
PUBLIC	?CheckMayaBattleUser@CKanturuBattleOfMaya@@QAEXXZ ; CKanturuBattleOfMaya::CheckMayaBattleUser
PUBLIC	?SetAIMonsterGroup@CKanturuBattleOfMaya@@QAEXH@Z ; CKanturuBattleOfMaya::SetAIMonsterGroup
PUBLIC	?ResetAIMonster@CKanturuBattleOfMaya@@QAEXXZ	; CKanturuBattleOfMaya::ResetAIMonster
PUBLIC	?ChangeAI@CKanturuBattleOfMaya@@QAEXH@Z		; CKanturuBattleOfMaya::ChangeAI
PUBLIC	??_GCKanturuBattleOfMaya@@UAEPAXI@Z		; CKanturuBattleOfMaya::`scalar deleting destructor'
PUBLIC	??1OBJECTSTRUCT@@QAE@XZ				; OBJECTSTRUCT::~OBJECTSTRUCT
PUBLIC	??_EOBJECTSTRUCT@@QAEPAXI@Z			; OBJECTSTRUCT::`vector deleting destructor'
PUBLIC	??_C@_00CNPNBAHC@?$AA@				; `string'
PUBLIC	??_7CKanturuBattleOfMaya@@6B@			; CKanturuBattleOfMaya::`vftable'
PUBLIC	??_C@_0EA@GJKFHDBF@?$FL?5KANTURU?5?$FN?$FL?5BattleOfMaya?5?$FN?5?9?5Fi@ ; `string'
PUBLIC	??_C@_01KDCPPGHE@r?$AA@				; `string'
PUBLIC	??_C@_0CN@FHELGPON@?$FL?5KANTURU?5?$FN?$FL?5BattleOfMaya?5?$FN?5?9?5Ca@ ; `string'
PUBLIC	??_C@_03JBJLGPFL@end?$AA@			; `string'
PUBLIC	??_C@_0DE@FILFCBGG@?$FL?5KANTURU?5?$FN?$FL?5BattleOfMaya?5?$FN?5?9?5Ex@ ; `string'
PUBLIC	??_C@_0DJ@NFMCCNGI@?$FL?5KANTURU?5?$FN?$FL?5BattleOfMaya?5?$FN?5?9?5Ex@ ; `string'
PUBLIC	??_C@_0EC@DMJEACFN@?$FL?5KANTURU?5?$FN?$FL?5BattleOfMaya?5?$FN?5?9?5Ex@ ; `string'
PUBLIC	??_C@_0EA@DAGPCMG@?$FL?5KANTURU?5?$FN?$FL?5BattleOfMaya?5?$FN?5?9?5Ma@ ; `string'
PUBLIC	??_C@_0EG@MJODBFHP@?$FL?5KANTURU?5?$FN?$FL?5BattleOfMaya?5?$FN?5?9?5Ma@ ; `string'
PUBLIC	??_C@_0DJ@DJFAMIGH@?$FL?5KANTURU?5?$FN?$FL?5BattleOfMaya?5?$FN?5IceS@ ; `string'
PUBLIC	??_C@_0CO@FIGOKMGP@?$FL?5KANTURU?5?$FN?$FL?5BattleOfMaya?5?$FN?5?$CFs?5f@ ; `string'
PUBLIC	??_R0K@8					; unsigned long `RTTI Type Descriptor'
PUBLIC	??_C@_0EC@IDACLHLE@?$FL?5KANTURU?5?$FN?$FL?5BattleOfMaya?5?$FN?5?9?5Lo@ ; `string'
PUBLIC	??_C@_0CO@JFJFDMKA@?$FL?5KANTURU?5?$FN?$FL?5BattleOfMaya?5?$FN?5Stat@ ; `string'
PUBLIC	??_C@_0DB@LKCCKOPA@?$FL?5KANTURU?5?$FN?$FL?5BattleOfMaya?5?$FN?5Stat@ ; `string'
PUBLIC	??_C@_0DB@FGBMJKFB@?$FL?5KANTURU?5?$FN?$FL?5BattleOfMaya?5?$FN?5Stat@ ; `string'
PUBLIC	??_C@_0DA@MAGCDIE@?$FL?5KANTURU?5?$FN?$FL?5BattleOfMaya?5?$FN?5Stat@ ; `string'
PUBLIC	??_C@_0CP@ODHNDKFD@?$FL?5KANTURU?5?$FN?$FL?5BattleOfMaya?5?$FN?5Stat@ ; `string'
PUBLIC	??_C@_0DD@FHJECEBB@?$FL?5KANTURU?5?$FN?$FL?5BattleOfMaya?5?$FN?5Stat@ ; `string'
PUBLIC	??_C@_0DI@DJGMLH@?$FL?5KANTURU?5?$FN?$FL?5BattleOfMaya?5?$FN?5Stat@ ; `string'
PUBLIC	??_C@_0DB@JBAPPNDD@?$FL?5KANTURU?5?$FN?$FL?5BattleOfMaya?5?$FN?5Stat@ ; `string'
PUBLIC	??_C@_0DA@CHCLHAEH@?$FL?5KANTURU?5?$FN?$FL?5BattleOfMaya?5?$FN?5Stat@ ; `string'
PUBLIC	??_C@_0CP@MIFAGJJA@?$FL?5KANTURU?5?$FN?$FL?5BattleOfMaya?5?$FN?5Stat@ ; `string'
PUBLIC	??_C@_0DD@HMLJHHNC@?$FL?5KANTURU?5?$FN?$FL?5BattleOfMaya?5?$FN?5Stat@ ; `string'
PUBLIC	??_C@_0DI@CLBEDPHE@?$FL?5KANTURU?5?$FN?$FL?5BattleOfMaya?5?$FN?5Stat@ ; `string'
PUBLIC	??_C@_0DB@IIBEMMHC@?$FL?5KANTURU?5?$FN?$FL?5BattleOfMaya?5?$FN?5Stat@ ; `string'
PUBLIC	??_C@_0DA@DODAEBAG@?$FL?5KANTURU?5?$FN?$FL?5BattleOfMaya?5?$FN?5Stat@ ; `string'
PUBLIC	??_C@_0CP@NBELFINB@?$FL?5KANTURU?5?$FN?$FL?5BattleOfMaya?5?$FN?5Stat@ ; `string'
PUBLIC	??_C@_0DD@GFKCEGJD@?$FL?5KANTURU?5?$FN?$FL?5BattleOfMaya?5?$FN?5Stat@ ; `string'
PUBLIC	??_C@_0DI@DCAPAODF@?$FL?5KANTURU?5?$FN?$FL?5BattleOfMaya?5?$FN?5Stat@ ; `string'
PUBLIC	??_C@_0CN@OMJCGL@?$FL?5KANTURU?5?$FN?$FL?5BattleOfMaya?5?$FN?5Stat@ ; `string'
PUBLIC	??_C@_0CO@GIDLLKAC@?$FL?5KANTURU?5?$FN?$FL?5BattleOfMaya?5?$FN?5Succ@ ; `string'
PUBLIC	??_C@_0DC@JILDKLPI@?$FL?5KANTURU?5?$FN?$FL?5BattleOfMaya?5?$FN?5Stat@ ; `string'
PUBLIC	??_C@_0DH@CMOLGDMA@?$FL?5KANTURU?5?$FN?$FL?5BattleOfMaya?5?$FN?5Succ@ ; `string'
PUBLIC	??_C@_0DM@MNFIKCME@?$FL?5KANTURU?5?$FN?$FL?5BattleOfMaya?5?$FN?5Fail@ ; `string'
PUBLIC	??_C@_0EI@LCLHMPAM@?$FL?5KANTURU?5?$FN?$FL?5BattleOfMaya?5?$FN?5Fail@ ; `string'
PUBLIC	??_R4CKanturuBattleOfMaya@@6B@			; CKanturuBattleOfMaya::`RTTI Complete Object Locator'
PUBLIC	??_R0?AVCKanturuBattleOfMaya@@@8		; CKanturuBattleOfMaya `RTTI Type Descriptor'
PUBLIC	??_R3CKanturuBattleOfMaya@@8			; CKanturuBattleOfMaya::`RTTI Class Hierarchy Descriptor'
PUBLIC	??_R2CKanturuBattleOfMaya@@8			; CKanturuBattleOfMaya::`RTTI Base Class Array'
PUBLIC	??_R1A@?0A@EA@CKanturuBattleOfMaya@@8		; CKanturuBattleOfMaya::`RTTI Base Class Descriptor at (0,-1,0,64)'
EXTRN	??_L@YGXPAXIIP6EX0@Z1@Z:PROC			; `eh vector constructor iterator'
EXTRN	??_M@YGXPAXIIP6EX0@Z@Z:PROC			; `eh vector destructor iterator'
EXTRN	??3@YAXPAXI@Z:PROC				; operator delete
EXTRN	??_V@YAXPAXI@Z:PROC				; operator delete[]
EXTRN	_atexit:PROC
EXTRN	_isalpha:PROC
EXTRN	_isdigit:PROC
EXTRN	_isspace:PROC
EXTRN	_isalnum:PROC
EXTRN	__imp__GetTickCount@0:PROC
EXTRN	_fclose:PROC
EXTRN	_fgetc:PROC
EXTRN	_fopen:PROC
EXTRN	_getc:PROC
EXTRN	_ungetc:PROC
EXTRN	_atof:PROC
EXTRN	?Get@Message@@QAEPADH@Z:PROC			; Message::Get
EXTRN	??0CKanturuStateInfo@@QAE@XZ:PROC		; CKanturuStateInfo::CKanturuStateInfo
EXTRN	??1CKanturuStateInfo@@UAE@XZ:PROC		; CKanturuStateInfo::~CKanturuStateInfo
EXTRN	??0CKanturuMaya@@QAE@XZ:PROC			; CKanturuMaya::CKanturuMaya
EXTRN	??1CKanturuMaya@@UAE@XZ:PROC			; CKanturuMaya::~CKanturuMaya
EXTRN	?Init@CKanturuMaya@@QAEXXZ:PROC			; CKanturuMaya::Init
EXTRN	?KanturuMayaAct_IceStorm@CKanturuMaya@@QAEXH@Z:PROC ; CKanturuMaya::KanturuMayaAct_IceStorm
EXTRN	?KanturuMayaAct_Hands@CKanturuMaya@@QAEXXZ:PROC	; CKanturuMaya::KanturuMayaAct_Hands
EXTRN	??_ECKanturuBattleOfMaya@@UAEPAXI@Z:PROC	; CKanturuBattleOfMaya::`vector deleting destructor'
EXTRN	??1CSkillDelay@@UAE@XZ:PROC			; CSkillDelay::~CSkillDelay
EXTRN	?MsgBox@@YAXPADZZ:PROC				; MsgBox
EXTRN	??1TMonsterAIAgro@@UAE@XZ:PROC			; TMonsterAIAgro::~TMonsterAIAgro
EXTRN	?Init@TMonsterAIGroup@@SAXH@Z:PROC		; TMonsterAIGroup::Init
EXTRN	?DelGroupInstance@TMonsterAIGroup@@SAHH@Z:PROC	; TMonsterAIGroup::DelGroupInstance
EXTRN	?ChangeAIOrder@TMonsterAIGroup@@SAXHH@Z:PROC	; TMonsterAIGroup::ChangeAIOrder
EXTRN	?FindGroupLeader@TMonsterAIGroup@@SAHH@Z:PROC	; TMonsterAIGroup::FindGroupLeader
EXTRN	?FindGroupMemberObjectIndex@TMonsterAIGroup@@SAHHH@Z:PROC ; TMonsterAIGroup::FindGroupMemberObjectIndex
EXTRN	?ResetRegenMonsterObjData@CKanturuMonsterMng@@QAEXXZ:PROC ; CKanturuMonsterMng::ResetRegenMonsterObjData
EXTRN	?SetKanturuMonster@CKanturuMonsterMng@@QAEHH@Z:PROC ; CKanturuMonsterMng::SetKanturuMonster
EXTRN	?IsExistAliveMonster@CKanturuMonsterMng@@QAEHXZ:PROC ; CKanturuMonsterMng::IsExistAliveMonster
EXTRN	?ResetAllData@CKanturuBattleUserMng@@QAEXXZ:PROC ; CKanturuBattleUserMng::ResetAllData
EXTRN	?CheckUserState@CKanturuBattleUserMng@@QAEXXZ:PROC ; CKanturuBattleUserMng::CheckUserState
EXTRN	?MoveAllUser@CKanturuBattleUserMng@@QAEHH@Z:PROC ; CKanturuBattleUserMng::MoveAllUser
EXTRN	?GetUserCount@CKanturuBattleUserMng@@QAEHXZ:PROC ; CKanturuBattleUserMng::GetUserCount
EXTRN	?IsEmpty@CKanturuBattleUserMng@@QAEHXZ:PROC	; CKanturuBattleUserMng::IsEmpty
EXTRN	?LogBattleWinnerUserInfo@CKanturuBattleUserMng@@QAEXEH@Z:PROC ; CKanturuBattleUserMng::LogBattleWinnerUserInfo
EXTRN	??0CKanturuUtil@@QAE@XZ:PROC			; CKanturuUtil::CKanturuUtil
EXTRN	??1CKanturuUtil@@UAE@XZ:PROC			; CKanturuUtil::~CKanturuUtil
EXTRN	?NotifyKanturuChangeState@CKanturuUtil@@QAEXHH@Z:PROC ; CKanturuUtil::NotifyKanturuChangeState
EXTRN	?NotifyKanturuSuccessValue@CKanturuUtil@@QAEXH@Z:PROC ; CKanturuUtil::NotifyKanturuSuccessValue
EXTRN	?NotifyKanturuBattleTime@CKanturuUtil@@QAEXH@Z:PROC ; CKanturuUtil::NotifyKanturuBattleTime
EXTRN	?NotifyKanturuUserMonsterCount@CKanturuUtil@@QAEXHH@Z:PROC ; CKanturuUtil::NotifyKanturuUserMonsterCount
EXTRN	?SendMsgKanturuBattleUser@CKanturuUtil@@QAAXPADZZ:PROC ; CKanturuUtil::SendMsgKanturuBattleUser
EXTRN	?SendMsgKauturuMapUser@CKanturuUtil@@QAAXPADZZ:PROC ; CKanturuUtil::SendMsgKauturuMapUser
EXTRN	@__security_check_cookie@4:PROC
EXTRN	___CxxFrameHandler3:PROC
EXTRN	??_7type_info@@6B@:QWORD			; type_info::`vftable'
EXTRN	?lMsg@@3VMessage@@A:BYTE			; lMsg
EXTRN	?LogAddC@@3P6AXEPADZZA:DWORD			; LogAddC
EXTRN	?LogAddTD@@3P6AXPADZZA:DWORD			; LogAddTD
EXTRN	?gObj@@3PAUOBJECTSTRUCT@@A:DWORD		; gObj
EXTRN	?g_KanturuMonsterMng@@3VCKanturuMonsterMng@@A:BYTE ; g_KanturuMonsterMng
EXTRN	?g_KanturuBattleUserMng@@3VCKanturuBattleUserMng@@A:BYTE ; g_KanturuBattleUserMng
EXTRN	___security_cookie:DWORD
EXTRN	__fltused:DWORD
_BSS	SEGMENT
?SMDFile@@3PAU_iobuf@@A DD 01H DUP (?)			; SMDFile
?TokenNumber@@3MA DD 01H DUP (?)			; TokenNumber
?TokenString@@3PADA DB 064H DUP (?)			; TokenString
?CurrentToken@@3W4SMDToken@@A DD 01H DUP (?)		; CurrentToken
?KANTURU_UTIL@@3VCKanturuUtil@@A DD 01H DUP (?)		; KANTURU_UTIL
_BSS	ENDS
CRT$XCU	SEGMENT
?KANTURU_UTIL$initializer$@@3P6AXXZA DD FLAT:??__EKANTURU_UTIL@@YAXXZ ; KANTURU_UTIL$initializer$
CRT$XCU	ENDS
;	COMDAT ??_R1A@?0A@EA@CKanturuBattleOfMaya@@8
rdata$r	SEGMENT
??_R1A@?0A@EA@CKanturuBattleOfMaya@@8 DD FLAT:??_R0?AVCKanturuBattleOfMaya@@@8 ; CKanturuBattleOfMaya::`RTTI Base Class Descriptor at (0,-1,0,64)'
	DD	00H
	DD	00H
	DD	0ffffffffH
	DD	00H
	DD	040H
	DD	FLAT:??_R3CKanturuBattleOfMaya@@8
rdata$r	ENDS
;	COMDAT ??_R2CKanturuBattleOfMaya@@8
rdata$r	SEGMENT
??_R2CKanturuBattleOfMaya@@8 DD FLAT:??_R1A@?0A@EA@CKanturuBattleOfMaya@@8 ; CKanturuBattleOfMaya::`RTTI Base Class Array'
rdata$r	ENDS
;	COMDAT ??_R3CKanturuBattleOfMaya@@8
rdata$r	SEGMENT
??_R3CKanturuBattleOfMaya@@8 DD 00H			; CKanturuBattleOfMaya::`RTTI Class Hierarchy Descriptor'
	DD	00H
	DD	01H
	DD	FLAT:??_R2CKanturuBattleOfMaya@@8
rdata$r	ENDS
;	COMDAT ??_R0?AVCKanturuBattleOfMaya@@@8
data$r	SEGMENT
??_R0?AVCKanturuBattleOfMaya@@@8 DD FLAT:??_7type_info@@6B@ ; CKanturuBattleOfMaya `RTTI Type Descriptor'
	DD	00H
	DB	'.?AVCKanturuBattleOfMaya@@', 00H
data$r	ENDS
;	COMDAT ??_R4CKanturuBattleOfMaya@@6B@
rdata$r	SEGMENT
??_R4CKanturuBattleOfMaya@@6B@ DD 00H			; CKanturuBattleOfMaya::`RTTI Complete Object Locator'
	DD	00H
	DD	00H
	DD	FLAT:??_R0?AVCKanturuBattleOfMaya@@@8
	DD	FLAT:??_R3CKanturuBattleOfMaya@@8
rdata$r	ENDS
;	COMDAT ??_C@_0EI@LCLHMPAM@?$FL?5KANTURU?5?$FN?$FL?5BattleOfMaya?5?$FN?5Fail@
CONST	SEGMENT
??_C@_0EI@LCLHMPAM@?$FL?5KANTURU?5?$FN?$FL?5BattleOfMaya?5?$FN?5Fail@ DB '['
	DB	' KANTURU ][ BattleOfMaya ] Fail!! All Battle User Die - Detai'
	DB	'lState:%d', 00H				; `string'
CONST	ENDS
;	COMDAT ??_C@_0DM@MNFIKCME@?$FL?5KANTURU?5?$FN?$FL?5BattleOfMaya?5?$FN?5Fail@
CONST	SEGMENT
??_C@_0DM@MNFIKCME@?$FL?5KANTURU?5?$FN?$FL?5BattleOfMaya?5?$FN?5Fail@ DB '['
	DB	' KANTURU ][ BattleOfMaya ] Fail!! TimeOut - DetailState:%d', 00H ; `string'
CONST	ENDS
;	COMDAT ??_C@_0DH@CMOLGDMA@?$FL?5KANTURU?5?$FN?$FL?5BattleOfMaya?5?$FN?5Succ@
CONST	SEGMENT
??_C@_0DH@CMOLGDMA@?$FL?5KANTURU?5?$FN?$FL?5BattleOfMaya?5?$FN?5Succ@ DB '['
	DB	' KANTURU ][ BattleOfMaya ] Success!! - DetailState:%d', 00H ; `string'
CONST	ENDS
;	COMDAT ??_C@_0DC@JILDKLPI@?$FL?5KANTURU?5?$FN?$FL?5BattleOfMaya?5?$FN?5Stat@
CONST	SEGMENT
??_C@_0DC@JILDKLPI@?$FL?5KANTURU?5?$FN?$FL?5BattleOfMaya?5?$FN?5Stat@ DB '['
	DB	' KANTURU ][ BattleOfMaya ] State(%d) -> ENDCYCLE', 00H ; `string'
CONST	ENDS
;	COMDAT ??_C@_0CO@GIDLLKAC@?$FL?5KANTURU?5?$FN?$FL?5BattleOfMaya?5?$FN?5Succ@
CONST	SEGMENT
??_C@_0CO@GIDLLKAC@?$FL?5KANTURU?5?$FN?$FL?5BattleOfMaya?5?$FN?5Succ@ DB '['
	DB	' KANTURU ][ BattleOfMaya ] Success Value[%d]', 00H ; `string'
CONST	ENDS
;	COMDAT ??_C@_0CN@OMJCGL@?$FL?5KANTURU?5?$FN?$FL?5BattleOfMaya?5?$FN?5Stat@
CONST	SEGMENT
??_C@_0CN@OMJCGL@?$FL?5KANTURU?5?$FN?$FL?5BattleOfMaya?5?$FN?5Stat@ DB '['
	DB	' KANTURU ][ BattleOfMaya ] State(%d) -> END', 00H ; `string'
CONST	ENDS
;	COMDAT ??_C@_0DI@DCAPAODF@?$FL?5KANTURU?5?$FN?$FL?5BattleOfMaya?5?$FN?5Stat@
CONST	SEGMENT
??_C@_0DI@DCAPAODF@?$FL?5KANTURU?5?$FN?$FL?5BattleOfMaya?5?$FN?5Stat@ DB '['
	DB	' KANTURU ][ BattleOfMaya ] State(%d) -> ENDCYCLE_MAYA3', 00H ; `string'
CONST	ENDS
;	COMDAT ??_C@_0DD@GFKCEGJD@?$FL?5KANTURU?5?$FN?$FL?5BattleOfMaya?5?$FN?5Stat@
CONST	SEGMENT
??_C@_0DD@GFKCEGJD@?$FL?5KANTURU?5?$FN?$FL?5BattleOfMaya?5?$FN?5Stat@ DB '['
	DB	' KANTURU ][ BattleOfMaya ] State(%d) -> END_MAYA3', 00H ; `string'
CONST	ENDS
;	COMDAT ??_C@_0CP@NBELFINB@?$FL?5KANTURU?5?$FN?$FL?5BattleOfMaya?5?$FN?5Stat@
CONST	SEGMENT
??_C@_0CP@NBELFINB@?$FL?5KANTURU?5?$FN?$FL?5BattleOfMaya?5?$FN?5Stat@ DB '['
	DB	' KANTURU ][ BattleOfMaya ] State(%d) -> MAYA3', 00H ; `string'
CONST	ENDS
;	COMDAT ??_C@_0DA@DODAEBAG@?$FL?5KANTURU?5?$FN?$FL?5BattleOfMaya?5?$FN?5Stat@
CONST	SEGMENT
??_C@_0DA@DODAEBAG@?$FL?5KANTURU?5?$FN?$FL?5BattleOfMaya?5?$FN?5Stat@ DB '['
	DB	' KANTURU ][ BattleOfMaya ] State(%d) -> START3', 00H ; `string'
CONST	ENDS
;	COMDAT ??_C@_0DB@IIBEMMHC@?$FL?5KANTURU?5?$FN?$FL?5BattleOfMaya?5?$FN?5Stat@
CONST	SEGMENT
??_C@_0DB@IIBEMMHC@?$FL?5KANTURU?5?$FN?$FL?5BattleOfMaya?5?$FN?5Stat@ DB '['
	DB	' KANTURU ][ BattleOfMaya ] State(%d) -> STANBY3', 00H ; `string'
CONST	ENDS
;	COMDAT ??_C@_0DI@CLBEDPHE@?$FL?5KANTURU?5?$FN?$FL?5BattleOfMaya?5?$FN?5Stat@
CONST	SEGMENT
??_C@_0DI@CLBEDPHE@?$FL?5KANTURU?5?$FN?$FL?5BattleOfMaya?5?$FN?5Stat@ DB '['
	DB	' KANTURU ][ BattleOfMaya ] State(%d) -> ENDCYCLE_MAYA2', 00H ; `string'
CONST	ENDS
;	COMDAT ??_C@_0DD@HMLJHHNC@?$FL?5KANTURU?5?$FN?$FL?5BattleOfMaya?5?$FN?5Stat@
CONST	SEGMENT
??_C@_0DD@HMLJHHNC@?$FL?5KANTURU?5?$FN?$FL?5BattleOfMaya?5?$FN?5Stat@ DB '['
	DB	' KANTURU ][ BattleOfMaya ] State(%d) -> END_MAYA2', 00H ; `string'
CONST	ENDS
;	COMDAT ??_C@_0CP@MIFAGJJA@?$FL?5KANTURU?5?$FN?$FL?5BattleOfMaya?5?$FN?5Stat@
CONST	SEGMENT
??_C@_0CP@MIFAGJJA@?$FL?5KANTURU?5?$FN?$FL?5BattleOfMaya?5?$FN?5Stat@ DB '['
	DB	' KANTURU ][ BattleOfMaya ] State(%d) -> MAYA2', 00H ; `string'
CONST	ENDS
;	COMDAT ??_C@_0DA@CHCLHAEH@?$FL?5KANTURU?5?$FN?$FL?5BattleOfMaya?5?$FN?5Stat@
CONST	SEGMENT
??_C@_0DA@CHCLHAEH@?$FL?5KANTURU?5?$FN?$FL?5BattleOfMaya?5?$FN?5Stat@ DB '['
	DB	' KANTURU ][ BattleOfMaya ] State(%d) -> START2', 00H ; `string'
CONST	ENDS
;	COMDAT ??_C@_0DB@JBAPPNDD@?$FL?5KANTURU?5?$FN?$FL?5BattleOfMaya?5?$FN?5Stat@
CONST	SEGMENT
??_C@_0DB@JBAPPNDD@?$FL?5KANTURU?5?$FN?$FL?5BattleOfMaya?5?$FN?5Stat@ DB '['
	DB	' KANTURU ][ BattleOfMaya ] State(%d) -> STANBY2', 00H ; `string'
CONST	ENDS
;	COMDAT ??_C@_0DI@DJGMLH@?$FL?5KANTURU?5?$FN?$FL?5BattleOfMaya?5?$FN?5Stat@
CONST	SEGMENT
??_C@_0DI@DJGMLH@?$FL?5KANTURU?5?$FN?$FL?5BattleOfMaya?5?$FN?5Stat@ DB '['
	DB	' KANTURU ][ BattleOfMaya ] State(%d) -> ENDCYCLE_MAYA1', 00H ; `string'
CONST	ENDS
;	COMDAT ??_C@_0DD@FHJECEBB@?$FL?5KANTURU?5?$FN?$FL?5BattleOfMaya?5?$FN?5Stat@
CONST	SEGMENT
??_C@_0DD@FHJECEBB@?$FL?5KANTURU?5?$FN?$FL?5BattleOfMaya?5?$FN?5Stat@ DB '['
	DB	' KANTURU ][ BattleOfMaya ] State(%d) -> END_MAYA1', 00H ; `string'
CONST	ENDS
;	COMDAT ??_C@_0CP@ODHNDKFD@?$FL?5KANTURU?5?$FN?$FL?5BattleOfMaya?5?$FN?5Stat@
CONST	SEGMENT
??_C@_0CP@ODHNDKFD@?$FL?5KANTURU?5?$FN?$FL?5BattleOfMaya?5?$FN?5Stat@ DB '['
	DB	' KANTURU ][ BattleOfMaya ] State(%d) -> MAYA1', 00H ; `string'
CONST	ENDS
;	COMDAT ??_C@_0DA@MAGCDIE@?$FL?5KANTURU?5?$FN?$FL?5BattleOfMaya?5?$FN?5Stat@
CONST	SEGMENT
??_C@_0DA@MAGCDIE@?$FL?5KANTURU?5?$FN?$FL?5BattleOfMaya?5?$FN?5Stat@ DB '['
	DB	' KANTURU ][ BattleOfMaya ] State(%d) -> START1', 00H ; `string'
CONST	ENDS
;	COMDAT ??_C@_0DB@FGBMJKFB@?$FL?5KANTURU?5?$FN?$FL?5BattleOfMaya?5?$FN?5Stat@
CONST	SEGMENT
??_C@_0DB@FGBMJKFB@?$FL?5KANTURU?5?$FN?$FL?5BattleOfMaya?5?$FN?5Stat@ DB '['
	DB	' KANTURU ][ BattleOfMaya ] State(%d) -> NOTIFY1', 00H ; `string'
CONST	ENDS
;	COMDAT ??_C@_0DB@LKCCKOPA@?$FL?5KANTURU?5?$FN?$FL?5BattleOfMaya?5?$FN?5Stat@
CONST	SEGMENT
??_C@_0DB@LKCCKOPA@?$FL?5KANTURU?5?$FN?$FL?5BattleOfMaya?5?$FN?5Stat@ DB '['
	DB	' KANTURU ][ BattleOfMaya ] State(%d) -> STANBY1', 00H ; `string'
CONST	ENDS
;	COMDAT ??_C@_0CO@JFJFDMKA@?$FL?5KANTURU?5?$FN?$FL?5BattleOfMaya?5?$FN?5Stat@
CONST	SEGMENT
??_C@_0CO@JFJFDMKA@?$FL?5KANTURU?5?$FN?$FL?5BattleOfMaya?5?$FN?5Stat@ DB '['
	DB	' KANTURU ][ BattleOfMaya ] State(%d) -> NONE', 00H ; `string'
CONST	ENDS
;	COMDAT ??_C@_0EC@IDACLHLE@?$FL?5KANTURU?5?$FN?$FL?5BattleOfMaya?5?$FN?5?9?5Lo@
CONST	SEGMENT
??_C@_0EC@IDACLHLE@?$FL?5KANTURU?5?$FN?$FL?5BattleOfMaya?5?$FN?5?9?5Lo@ DB '['
	DB	' KANTURU ][ BattleOfMaya ] - Loading Exception Error (%s) Fil'
	DB	'e. ', 00H					; `string'
CONST	ENDS
;	COMDAT ??_R0K@8
data$r	SEGMENT
??_R0K@8 DD	FLAT:??_7type_info@@6B@			; unsigned long `RTTI Type Descriptor'
	DD	00H
	DB	'.K', 00H
data$r	ENDS
;	COMDAT ??_C@_0CO@FIGOKMGP@?$FL?5KANTURU?5?$FN?$FL?5BattleOfMaya?5?$FN?5?$CFs?5f@
CONST	SEGMENT
??_C@_0CO@FIGOKMGP@?$FL?5KANTURU?5?$FN?$FL?5BattleOfMaya?5?$FN?5?$CFs?5f@ DB '['
	DB	' KANTURU ][ BattleOfMaya ] %s file is Loaded', 00H ; `string'
CONST	ENDS
;	COMDAT ??_C@_0DJ@DJFAMIGH@?$FL?5KANTURU?5?$FN?$FL?5BattleOfMaya?5?$FN?5IceS@
CONST	SEGMENT
??_C@_0DJ@DJFAMIGH@?$FL?5KANTURU?5?$FN?$FL?5BattleOfMaya?5?$FN?5IceS@ DB '['
	DB	' KANTURU ][ BattleOfMaya ] IceStorm Using Rate Load: %d', 00H ; `string'
CONST	ENDS
;	COMDAT ??_C@_0EG@MJODBFHP@?$FL?5KANTURU?5?$FN?$FL?5BattleOfMaya?5?$FN?5?9?5Ma@
CONST	SEGMENT
??_C@_0EG@MJODBFHP@?$FL?5KANTURU?5?$FN?$FL?5BattleOfMaya?5?$FN?5?9?5Ma@ DB '['
	DB	' KANTURU ][ BattleOfMaya ] - Maya IceStorm Using Rate Load Er'
	DB	'ror(%d)', 00H				; `string'
CONST	ENDS
;	COMDAT ??_C@_0EA@DAGPCMG@?$FL?5KANTURU?5?$FN?$FL?5BattleOfMaya?5?$FN?5?9?5Ma@
CONST	SEGMENT
??_C@_0EA@DAGPCMG@?$FL?5KANTURU?5?$FN?$FL?5BattleOfMaya?5?$FN?5?9?5Ma@ DB '['
	DB	' KANTURU ][ BattleOfMaya ] - Maya Hand AI Group Read Error(%d'
	DB	')', 00H					; `string'
CONST	ENDS
;	COMDAT ??_C@_0EC@DMJEACFN@?$FL?5KANTURU?5?$FN?$FL?5BattleOfMaya?5?$FN?5?9?5Ex@
CONST	SEGMENT
??_C@_0EC@DMJEACFN@?$FL?5KANTURU?5?$FN?$FL?5BattleOfMaya?5?$FN?5?9?5Ex@ DB '['
	DB	' KANTURU ][ BattleOfMaya ] - Exceed Maya Hand AI Change Time('
	DB	'%d)', 00H					; `string'
CONST	ENDS
;	COMDAT ??_C@_0DJ@NFMCCNGI@?$FL?5KANTURU?5?$FN?$FL?5BattleOfMaya?5?$FN?5?9?5Ex@
CONST	SEGMENT
??_C@_0DJ@NFMCCNGI@?$FL?5KANTURU?5?$FN?$FL?5BattleOfMaya?5?$FN?5?9?5Ex@ DB '['
	DB	' KANTURU ][ BattleOfMaya ] - Exceed Max State Time (%d)', 00H ; `string'
CONST	ENDS
;	COMDAT ??_C@_0DE@FILFCBGG@?$FL?5KANTURU?5?$FN?$FL?5BattleOfMaya?5?$FN?5?9?5Ex@
CONST	SEGMENT
??_C@_0DE@FILFCBGG@?$FL?5KANTURU?5?$FN?$FL?5BattleOfMaya?5?$FN?5?9?5Ex@ DB '['
	DB	' KANTURU ][ BattleOfMaya ] - Exceed Max Scene (%d)', 00H ; `string'
CONST	ENDS
;	COMDAT ??_C@_03JBJLGPFL@end?$AA@
CONST	SEGMENT
??_C@_03JBJLGPFL@end?$AA@ DB 'end', 00H			; `string'
CONST	ENDS
;	COMDAT ??_C@_0CN@FHELGPON@?$FL?5KANTURU?5?$FN?$FL?5BattleOfMaya?5?$FN?5?9?5Ca@
CONST	SEGMENT
??_C@_0CN@FHELGPON@?$FL?5KANTURU?5?$FN?$FL?5BattleOfMaya?5?$FN?5?9?5Ca@ DB '['
	DB	' KANTURU ][ BattleOfMaya ] - Can''t Open %s ', 00H ; `string'
CONST	ENDS
;	COMDAT ??_C@_01KDCPPGHE@r?$AA@
CONST	SEGMENT
??_C@_01KDCPPGHE@r?$AA@ DB 'r', 00H			; `string'
CONST	ENDS
;	COMDAT ??_C@_0EA@GJKFHDBF@?$FL?5KANTURU?5?$FN?$FL?5BattleOfMaya?5?$FN?5?9?5Fi@
CONST	SEGMENT
??_C@_0EA@GJKFHDBF@?$FL?5KANTURU?5?$FN?$FL?5BattleOfMaya?5?$FN?5?9?5Fi@ DB '['
	DB	' KANTURU ][ BattleOfMaya ] - File load error : File Name Erro'
	DB	'r', 00H					; `string'
CONST	ENDS
;	COMDAT ??_7CKanturuBattleOfMaya@@6B@
CONST	SEGMENT
??_7CKanturuBattleOfMaya@@6B@ DD FLAT:??_R4CKanturuBattleOfMaya@@6B@ ; CKanturuBattleOfMaya::`vftable'
	DD	FLAT:??_ECKanturuBattleOfMaya@@UAEPAXI@Z
CONST	ENDS
;	COMDAT ??_C@_00CNPNBAHC@?$AA@
CONST	SEGMENT
??_C@_00CNPNBAHC@?$AA@ DB 00H				; `string'
CONST	ENDS
;	COMDAT xdata$x
xdata$x	SEGMENT
__ehfuncinfo$??_EOBJECTSTRUCT@@QAEPAXI@Z DD 019930522H
	DD	00H
	DD	00H
	DD	2 DUP(00H)
	DD	2 DUP(00H)
	DD	00H
	DD	05H
xdata$x	ENDS
;	COMDAT xdata$x
xdata$x	SEGMENT
__catchsym$?LoadData@CKanturuBattleOfMaya@@QAEHPAD@Z$2 DD 00H
	DD	FLAT:??_R0K@8
	DD	00H
	DD	FLAT:__catch$?LoadData@CKanturuBattleOfMaya@@QAEHPAD@Z$0
__unwindtable$?LoadData@CKanturuBattleOfMaya@@QAEHPAD@Z DD 0ffffffffH
	DD	00H
	DD	0ffffffffH
	DD	00H
__tryblocktable$?LoadData@CKanturuBattleOfMaya@@QAEHPAD@Z DD 00H
	DD	00H
	DD	01H
	DD	01H
	DD	FLAT:__catchsym$?LoadData@CKanturuBattleOfMaya@@QAEHPAD@Z$2
__ehfuncinfo$?LoadData@CKanturuBattleOfMaya@@QAEHPAD@Z DD 019930522H
	DD	02H
	DD	FLAT:__unwindtable$?LoadData@CKanturuBattleOfMaya@@QAEHPAD@Z
	DD	01H
	DD	FLAT:__tryblocktable$?LoadData@CKanturuBattleOfMaya@@QAEHPAD@Z
	DD	2 DUP(00H)
	DD	00H
	DD	01H
xdata$x	ENDS
;	COMDAT xdata$x
xdata$x	SEGMENT
__ehfuncinfo$??1CKanturuBattleOfMaya@@UAE@XZ DD 019930522H
	DD	00H
	DD	00H
	DD	2 DUP(00H)
	DD	2 DUP(00H)
	DD	00H
	DD	05H
xdata$x	ENDS
;	COMDAT xdata$x
xdata$x	SEGMENT
__unwindtable$??0CKanturuBattleOfMaya@@QAE@XZ DD 0ffffffffH
	DD	FLAT:__unwindfunclet$??0CKanturuBattleOfMaya@@QAE@XZ$0
	DD	00H
	DD	FLAT:__unwindfunclet$??0CKanturuBattleOfMaya@@QAE@XZ$1
__ehfuncinfo$??0CKanturuBattleOfMaya@@QAE@XZ DD 019930522H
	DD	02H
	DD	FLAT:__unwindtable$??0CKanturuBattleOfMaya@@QAE@XZ
	DD	2 DUP(00H)
	DD	2 DUP(00H)
	DD	00H
	DD	01H
xdata$x	ENDS
; Function compile flags: /Ogtp
;	COMDAT ??__FKANTURU_UTIL@@YAXXZ
text$yd	SEGMENT
??__FKANTURU_UTIL@@YAXXZ PROC				; `dynamic atexit destructor for 'KANTURU_UTIL'', COMDAT
  00000	b9 00 00 00 00	 mov	 ecx, OFFSET ?KANTURU_UTIL@@3VCKanturuUtil@@A
  00005	e9 00 00 00 00	 jmp	 ??1CKanturuUtil@@UAE@XZ	; CKanturuUtil::~CKanturuUtil
??__FKANTURU_UTIL@@YAXXZ ENDP				; `dynamic atexit destructor for 'KANTURU_UTIL''
text$yd	ENDS
; Function compile flags: /Ogtp
; File c:\users\michel\desktop\source\gameserver\source\kanturubattleofmaya.cpp
;	COMDAT ??__EKANTURU_UTIL@@YAXXZ
text$di	SEGMENT
??__EKANTURU_UTIL@@YAXXZ PROC				; `dynamic initializer for 'KANTURU_UTIL'', COMDAT

; 17   : static CKanturuUtil KANTURU_UTIL;

  00000	b9 00 00 00 00	 mov	 ecx, OFFSET ?KANTURU_UTIL@@3VCKanturuUtil@@A
  00005	e8 00 00 00 00	 call	 ??0CKanturuUtil@@QAE@XZ	; CKanturuUtil::CKanturuUtil
  0000a	68 00 00 00 00	 push	 OFFSET ??__FKANTURU_UTIL@@YAXXZ ; `dynamic atexit destructor for 'KANTURU_UTIL''
  0000f	e8 00 00 00 00	 call	 _atexit
  00014	59		 pop	 ecx
  00015	c3		 ret	 0
??__EKANTURU_UTIL@@YAXXZ ENDP				; `dynamic initializer for 'KANTURU_UTIL''
text$di	ENDS
; Function compile flags: /Ogtp
; File c:\users\michel\desktop\source\gameserver\include\readscript.h
;	COMDAT ?GetToken@@YA?AW4SMDToken@@XZ
_TEXT	SEGMENT
_TempString$ = -104					; size = 100
__$ArrayPad$ = -4					; size = 4
?GetToken@@YA?AW4SMDToken@@XZ PROC			; GetToken, COMDAT

; 24   : {

  00000	55		 push	 ebp
  00001	8b ec		 mov	 ebp, esp
  00003	83 ec 68	 sub	 esp, 104		; 00000068H
  00006	a1 00 00 00 00	 mov	 eax, DWORD PTR ___security_cookie
  0000b	33 c5		 xor	 eax, ebp
  0000d	89 45 fc	 mov	 DWORD PTR __$ArrayPad$[ebp], eax

; 25   : 	int ch;
; 26   : 	char* p;
; 27   : 	char TempString[100];
; 28   : 
; 29   : 	TokenString[0]=0;

  00010	c6 05 00 00 00
	00 00		 mov	 BYTE PTR ?TokenString@@3PADA, 0
  00017	53		 push	 ebx
  00018	0f 1f 84 00 00
	00 00 00	 npad	 8
$LL4@GetToken:

; 30   : 
; 31   : 	do
; 32   : 	{
; 33   : 		if ((ch=fgetc(SMDFile)) == -1)

  00020	ff 35 00 00 00
	00		 push	 DWORD PTR ?SMDFile@@3PAU_iobuf@@A
  00026	e8 00 00 00 00	 call	 _fgetc
  0002b	8b d8		 mov	 ebx, eax
  0002d	83 c4 04	 add	 esp, 4
  00030	83 fb ff	 cmp	 ebx, -1
  00033	74 5d		 je	 SHORT $LN43@GetToken

; 34   : 		{
; 35   : 			return END;	// End of FILE (EOF)
; 36   : 		}
; 37   : 		else
; 38   : 		{	
; 39   : 			if (ch=='/')		// this is /

  00035	83 fb 2f	 cmp	 ebx, 47			; 0000002fH
  00038	75 30		 jne	 SHORT $LN2@GetToken

; 40   : 			{
; 41   : 				if((ch=fgetc(SMDFile)) == '/')

  0003a	ff 35 00 00 00
	00		 push	 DWORD PTR ?SMDFile@@3PAU_iobuf@@A
  00040	e8 00 00 00 00	 call	 _fgetc
  00045	8b d8		 mov	 ebx, eax
  00047	83 c4 04	 add	 esp, 4
  0004a	83 fb 2f	 cmp	 ebx, 47			; 0000002fH
  0004d	75 1b		 jne	 SHORT $LN2@GetToken
  0004f	90		 npad	 1
$LL5@GetToken:

; 42   : 				{
; 43   : 					while ((ch != '\n') && (ch != -1))	// End of Line (EOL)

  00050	83 fb ff	 cmp	 ebx, -1
  00053	74 3d		 je	 SHORT $LN43@GetToken

; 44   : 					{
; 45   : 						ch=fgetc(SMDFile);

  00055	ff 35 00 00 00
	00		 push	 DWORD PTR ?SMDFile@@3PAU_iobuf@@A
  0005b	e8 00 00 00 00	 call	 _fgetc
  00060	8b d8		 mov	 ebx, eax
  00062	83 c4 04	 add	 esp, 4
  00065	83 fb 0a	 cmp	 ebx, 10			; 0000000aH
  00068	75 e6		 jne	 SHORT $LL5@GetToken
$LN2@GetToken:

; 51   : 					}
; 52   : 				}
; 53   : 			}
; 54   : 		}
; 55   : 	}
; 56   : 	while (isspace(ch) != 0);

  0006a	53		 push	 ebx
  0006b	e8 00 00 00 00	 call	 _isspace
  00070	83 c4 04	 add	 esp, 4
  00073	85 c0		 test	 eax, eax
  00075	75 a9		 jne	 SHORT $LL4@GetToken

; 57   : 
; 58   : 	
; 59   : 	switch(ch)

  00077	8d 43 de	 lea	 eax, DWORD PTR [ebx-34]
  0007a	56		 push	 esi
  0007b	83 f8 5b	 cmp	 eax, 91			; 0000005bH
  0007e	0f 87 89 01 00
	00		 ja	 $LN29@GetToken
  00084	0f b6 80 00 00
	00 00		 movzx	 eax, BYTE PTR $LN58@GetToken[eax]
  0008b	ff 24 85 00 00
	00 00		 jmp	 DWORD PTR $LN64@GetToken[eax*4]
$LN43@GetToken:

; 46   : 					}
; 47   : 	
; 48   : 					if (ch == -1)
; 49   : 					{
; 50   : 						return END;	// End of FILE

  00092	b8 02 00 00 00	 mov	 eax, 2
  00097	5b		 pop	 ebx

; 143  : 		}
; 144  : 		else
; 145  : 		{
; 146  : 			return CurrentToken = SMD_ERROR; // '<'
; 147  : 		}
; 148  : 		break;
; 149  : 
; 150  : 	}
; 151  : 
; 152  : 	return NAME;
; 153  : }

  00098	8b 4d fc	 mov	 ecx, DWORD PTR __$ArrayPad$[ebp]
  0009b	33 cd		 xor	 ecx, ebp
  0009d	e8 00 00 00 00	 call	 @__security_check_cookie@4
  000a2	8b e5		 mov	 esp, ebp
  000a4	5d		 pop	 ebp
  000a5	c3		 ret	 0
$LN20@GetToken:
  000a6	5e		 pop	 esi

; 60   : 	{
; 61   : 
; 62   : 	case 0x23:	// #
; 63   : 		return CurrentToken=COMMAND;

  000a7	c7 05 00 00 00
	00 23 00 00 00	 mov	 DWORD PTR ?CurrentToken@@3W4SMDToken@@A, 35 ; 00000023H
  000b1	b8 23 00 00 00	 mov	 eax, 35			; 00000023H
  000b6	5b		 pop	 ebx

; 143  : 		}
; 144  : 		else
; 145  : 		{
; 146  : 			return CurrentToken = SMD_ERROR; // '<'
; 147  : 		}
; 148  : 		break;
; 149  : 
; 150  : 	}
; 151  : 
; 152  : 	return NAME;
; 153  : }

  000b7	8b 4d fc	 mov	 ecx, DWORD PTR __$ArrayPad$[ebp]
  000ba	33 cd		 xor	 ecx, ebp
  000bc	e8 00 00 00 00	 call	 @__security_check_cookie@4
  000c1	8b e5		 mov	 esp, ebp
  000c3	5d		 pop	 ebp
  000c4	c3		 ret	 0
$LN21@GetToken:
  000c5	5e		 pop	 esi

; 64   : 		break;
; 65   : 	
; 66   : 	case 0x3B:	// ;
; 67   : 		return CurrentToken=SEMICOLON;

  000c6	c7 05 00 00 00
	00 3b 00 00 00	 mov	 DWORD PTR ?CurrentToken@@3W4SMDToken@@A, 59 ; 0000003bH
  000d0	b8 3b 00 00 00	 mov	 eax, 59			; 0000003bH
  000d5	5b		 pop	 ebx

; 143  : 		}
; 144  : 		else
; 145  : 		{
; 146  : 			return CurrentToken = SMD_ERROR; // '<'
; 147  : 		}
; 148  : 		break;
; 149  : 
; 150  : 	}
; 151  : 
; 152  : 	return NAME;
; 153  : }

  000d6	8b 4d fc	 mov	 ecx, DWORD PTR __$ArrayPad$[ebp]
  000d9	33 cd		 xor	 ecx, ebp
  000db	e8 00 00 00 00	 call	 @__security_check_cookie@4
  000e0	8b e5		 mov	 esp, ebp
  000e2	5d		 pop	 ebp
  000e3	c3		 ret	 0
$LN22@GetToken:
  000e4	5e		 pop	 esi

; 68   : 		break;
; 69   : 	
; 70   : 	case 0x2C:	// ,
; 71   : 
; 72   : 		return CurrentToken=COMMA;

  000e5	c7 05 00 00 00
	00 2c 00 00 00	 mov	 DWORD PTR ?CurrentToken@@3W4SMDToken@@A, 44 ; 0000002cH
  000ef	b8 2c 00 00 00	 mov	 eax, 44			; 0000002cH
  000f4	5b		 pop	 ebx

; 143  : 		}
; 144  : 		else
; 145  : 		{
; 146  : 			return CurrentToken = SMD_ERROR; // '<'
; 147  : 		}
; 148  : 		break;
; 149  : 
; 150  : 	}
; 151  : 
; 152  : 	return NAME;
; 153  : }

  000f5	8b 4d fc	 mov	 ecx, DWORD PTR __$ArrayPad$[ebp]
  000f8	33 cd		 xor	 ecx, ebp
  000fa	e8 00 00 00 00	 call	 @__security_check_cookie@4
  000ff	8b e5		 mov	 esp, ebp
  00101	5d		 pop	 ebp
  00102	c3		 ret	 0
$LN23@GetToken:
  00103	5e		 pop	 esi

; 73   : 		break;
; 74   : 	
; 75   : 	case 0x7B:	// {
; 76   : 		return CurrentToken = LP;

  00104	c7 05 00 00 00
	00 7b 00 00 00	 mov	 DWORD PTR ?CurrentToken@@3W4SMDToken@@A, 123 ; 0000007bH
  0010e	b8 7b 00 00 00	 mov	 eax, 123		; 0000007bH
  00113	5b		 pop	 ebx

; 143  : 		}
; 144  : 		else
; 145  : 		{
; 146  : 			return CurrentToken = SMD_ERROR; // '<'
; 147  : 		}
; 148  : 		break;
; 149  : 
; 150  : 	}
; 151  : 
; 152  : 	return NAME;
; 153  : }

  00114	8b 4d fc	 mov	 ecx, DWORD PTR __$ArrayPad$[ebp]
  00117	33 cd		 xor	 ecx, ebp
  00119	e8 00 00 00 00	 call	 @__security_check_cookie@4
  0011e	8b e5		 mov	 esp, ebp
  00120	5d		 pop	 ebp
  00121	c3		 ret	 0
$LN24@GetToken:
  00122	5e		 pop	 esi

; 77   : 		break;
; 78   : 
; 79   : 	case 0x7D:	// }
; 80   : 		return CurrentToken = RP;

  00123	c7 05 00 00 00
	00 7d 00 00 00	 mov	 DWORD PTR ?CurrentToken@@3W4SMDToken@@A, 125 ; 0000007dH
  0012d	b8 7d 00 00 00	 mov	 eax, 125		; 0000007dH
  00132	5b		 pop	 ebx

; 143  : 		}
; 144  : 		else
; 145  : 		{
; 146  : 			return CurrentToken = SMD_ERROR; // '<'
; 147  : 		}
; 148  : 		break;
; 149  : 
; 150  : 	}
; 151  : 
; 152  : 	return NAME;
; 153  : }

  00133	8b 4d fc	 mov	 ecx, DWORD PTR __$ArrayPad$[ebp]
  00136	33 cd		 xor	 ecx, ebp
  00138	e8 00 00 00 00	 call	 @__security_check_cookie@4
  0013d	8b e5		 mov	 esp, ebp
  0013f	5d		 pop	 ebp
  00140	c3		 ret	 0
$LN25@GetToken:

; 81   : 		break;
; 82   : 	// Nice Index Table :)	by Deathway
; 83   : 	// Numbers Case
; 84   : 	case 0x2D:	//-
; 85   : 	case 0x2E:	//.
; 86   : 	case '0':	//0
; 87   : 	case '1':	//1
; 88   : 	case '2':	//2
; 89   : 	case '3':	//3
; 90   : 	case '4':	//4		
; 91   : 	case '5':	//5
; 92   : 	case '6':	//6
; 93   : 	case '7':	//7
; 94   : 	case '8':	//8
; 95   : 	case '9':	//9
; 96   : 		ungetc(ch, SMDFile);

  00141	ff 35 00 00 00
	00		 push	 DWORD PTR ?SMDFile@@3PAU_iobuf@@A
  00147	53		 push	 ebx
  00148	e8 00 00 00 00	 call	 _ungetc

; 97   : 		p = TempString;
; 98   : 		
; 99   : 		while (((ch=getc(SMDFile)) != -1) && ((ch == 0x2E) || (isdigit(ch) != 0) || (ch == 0x2D)))  // 2e '.'  2D '-'

  0014d	ff 35 00 00 00
	00		 push	 DWORD PTR ?SMDFile@@3PAU_iobuf@@A
  00153	8d 75 98	 lea	 esi, DWORD PTR _TempString$[ebp]
  00156	e8 00 00 00 00	 call	 _getc
  0015b	8b d8		 mov	 ebx, eax
  0015d	83 c4 0c	 add	 esp, 12			; 0000000cH
  00160	83 fb ff	 cmp	 ebx, -1
  00163	74 2f		 je	 SHORT $LN59@GetToken
$LL9@GetToken:
  00165	83 fb 2e	 cmp	 ebx, 46			; 0000002eH
  00168	74 12		 je	 SHORT $LN26@GetToken
  0016a	53		 push	 ebx
  0016b	e8 00 00 00 00	 call	 _isdigit
  00170	83 c4 04	 add	 esp, 4
  00173	85 c0		 test	 eax, eax
  00175	75 05		 jne	 SHORT $LN26@GetToken
  00177	83 fb 2d	 cmp	 ebx, 45			; 0000002dH
  0017a	75 18		 jne	 SHORT $LN59@GetToken
$LN26@GetToken:
  0017c	ff 35 00 00 00
	00		 push	 DWORD PTR ?SMDFile@@3PAU_iobuf@@A

; 100  : 		{
; 101  : 			*p = ch;	// Construct a String

  00182	88 1e		 mov	 BYTE PTR [esi], bl

; 102  : 			p++;

  00184	46		 inc	 esi
  00185	e8 00 00 00 00	 call	 _getc
  0018a	8b d8		 mov	 ebx, eax
  0018c	83 c4 04	 add	 esp, 4
  0018f	83 fb ff	 cmp	 ebx, -1
  00192	75 d1		 jne	 SHORT $LL9@GetToken
$LN59@GetToken:

; 103  : 		}		
; 104  : 		*p = 0;
; 105  : 		TokenNumber = (float)atof( TempString);	// Select the first Byte as Main ID

  00194	8d 45 98	 lea	 eax, DWORD PTR _TempString$[ebp]
  00197	c6 06 00	 mov	 BYTE PTR [esi], 0
  0019a	50		 push	 eax
  0019b	e8 00 00 00 00	 call	 _atof
  001a0	83 c4 04	 add	 esp, 4

; 106  : 		return CurrentToken  = NUMBER ;

  001a3	c7 05 00 00 00
	00 01 00 00 00	 mov	 DWORD PTR ?CurrentToken@@3W4SMDToken@@A, 1
  001ad	d9 1d 00 00 00
	00		 fstp	 DWORD PTR ?TokenNumber@@3MA
  001b3	b8 01 00 00 00	 mov	 eax, 1
  001b8	5e		 pop	 esi
  001b9	5b		 pop	 ebx

; 143  : 		}
; 144  : 		else
; 145  : 		{
; 146  : 			return CurrentToken = SMD_ERROR; // '<'
; 147  : 		}
; 148  : 		break;
; 149  : 
; 150  : 	}
; 151  : 
; 152  : 	return NAME;
; 153  : }

  001ba	8b 4d fc	 mov	 ecx, DWORD PTR __$ArrayPad$[ebp]
  001bd	33 cd		 xor	 ecx, ebp
  001bf	e8 00 00 00 00	 call	 @__security_check_cookie@4
  001c4	8b e5		 mov	 esp, ebp
  001c6	5d		 pop	 ebp
  001c7	c3		 ret	 0
$LN27@GetToken:

; 107  : 		break;
; 108  : 
; 109  : 	case '\"':	// "	String Case
; 110  : 		p=&TokenString[0];
; 111  : 		
; 112  : 		while (((ch=getc(SMDFile)) != -1 ) && (ch != 0x22))	// nice

  001c8	ff 35 00 00 00
	00		 push	 DWORD PTR ?SMDFile@@3PAU_iobuf@@A
  001ce	be 00 00 00 00	 mov	 esi, OFFSET ?TokenString@@3PADA
  001d3	e8 00 00 00 00	 call	 _getc
  001d8	83 c4 04	 add	 esp, 4
  001db	83 f8 ff	 cmp	 eax, -1
  001de	74 1f		 je	 SHORT $LN12@GetToken
$LL11@GetToken:
  001e0	83 f8 22	 cmp	 eax, 34			; 00000022H
  001e3	0f 84 95 00 00
	00		 je	 $LN28@GetToken
  001e9	ff 35 00 00 00
	00		 push	 DWORD PTR ?SMDFile@@3PAU_iobuf@@A

; 113  : 		{
; 114  : 			*p = ch;

  001ef	88 06		 mov	 BYTE PTR [esi], al

; 115  : 			p++;

  001f1	46		 inc	 esi
  001f2	e8 00 00 00 00	 call	 _getc
  001f7	83 c4 04	 add	 esp, 4
  001fa	83 f8 ff	 cmp	 eax, -1
  001fd	75 e1		 jne	 SHORT $LL11@GetToken
$LN12@GetToken:

; 116  : 		}
; 117  : 		if (ch != 0x22 )

  001ff	83 f8 22	 cmp	 eax, 34			; 00000022H
  00202	74 7a		 je	 SHORT $LN28@GetToken

; 118  : 		{
; 119  : 			ungetc(ch, SMDFile);

  00204	ff 35 00 00 00
	00		 push	 DWORD PTR ?SMDFile@@3PAU_iobuf@@A
  0020a	50		 push	 eax

; 120  : 		}
; 121  : 		*p = 0;
; 122  : 		return CurrentToken = NAME;

  0020b	eb 69		 jmp	 SHORT $LN62@GetToken
$LN29@GetToken:

; 123  : 		break;
; 124  : 
; 125  : 	default:	// Others
; 126  : 		if (isalpha(ch))

  0020d	53		 push	 ebx
  0020e	e8 00 00 00 00	 call	 _isalpha
  00213	83 c4 04	 add	 esp, 4
  00216	85 c0		 test	 eax, eax
  00218	0f 84 7f 00 00
	00		 je	 $LN30@GetToken

; 127  : 		{
; 128  : 			p=&TokenString[0];
; 129  : 			*p=ch;
; 130  : 			p++;
; 131  : 
; 132  : 			while ( ((ch=getc(SMDFile)) != -1) && ( (ch == 0x2E) || (ch == 0x5F) || (isalnum(ch) != 0) ) )

  0021e	ff 35 00 00 00
	00		 push	 DWORD PTR ?SMDFile@@3PAU_iobuf@@A
  00224	88 1d 00 00 00
	00		 mov	 BYTE PTR ?TokenString@@3PADA, bl
  0022a	be 01 00 00 00	 mov	 esi, OFFSET ?TokenString@@3PADA+1
  0022f	e8 00 00 00 00	 call	 _getc
  00234	8b d8		 mov	 ebx, eax
  00236	83 c4 04	 add	 esp, 4
  00239	83 fb ff	 cmp	 ebx, -1
  0023c	74 31		 je	 SHORT $LN60@GetToken
  0023e	66 90		 npad	 2
$LL13@GetToken:
  00240	83 fb 2e	 cmp	 ebx, 46			; 0000002eH
  00243	74 12		 je	 SHORT $LN32@GetToken
  00245	83 fb 5f	 cmp	 ebx, 95			; 0000005fH
  00248	74 0d		 je	 SHORT $LN32@GetToken
  0024a	53		 push	 ebx
  0024b	e8 00 00 00 00	 call	 _isalnum
  00250	83 c4 04	 add	 esp, 4
  00253	85 c0		 test	 eax, eax
  00255	74 18		 je	 SHORT $LN60@GetToken
$LN32@GetToken:
  00257	ff 35 00 00 00
	00		 push	 DWORD PTR ?SMDFile@@3PAU_iobuf@@A

; 133  : 			{
; 134  : 				*p=ch;

  0025d	88 1e		 mov	 BYTE PTR [esi], bl

; 135  : 				p++;

  0025f	46		 inc	 esi
  00260	e8 00 00 00 00	 call	 _getc
  00265	8b d8		 mov	 ebx, eax
  00267	83 c4 04	 add	 esp, 4
  0026a	83 fb ff	 cmp	 ebx, -1
  0026d	75 d1		 jne	 SHORT $LL13@GetToken
$LN60@GetToken:

; 136  : 				
; 137  : 			}
; 138  : 
; 139  : 			ungetc(ch, SMDFile);

  0026f	ff 35 00 00 00
	00		 push	 DWORD PTR ?SMDFile@@3PAU_iobuf@@A
  00275	53		 push	 ebx
$LN62@GetToken:
  00276	e8 00 00 00 00	 call	 _ungetc
  0027b	83 c4 08	 add	 esp, 8
$LN28@GetToken:

; 140  : 			*p=0;

  0027e	c6 06 00	 mov	 BYTE PTR [esi], 0

; 141  : 			CurrentToken=NAME;
; 142  : 			return CurrentToken;

  00281	33 c0		 xor	 eax, eax
  00283	5e		 pop	 esi
  00284	c7 05 00 00 00
	00 00 00 00 00	 mov	 DWORD PTR ?CurrentToken@@3W4SMDToken@@A, 0
  0028e	5b		 pop	 ebx

; 143  : 		}
; 144  : 		else
; 145  : 		{
; 146  : 			return CurrentToken = SMD_ERROR; // '<'
; 147  : 		}
; 148  : 		break;
; 149  : 
; 150  : 	}
; 151  : 
; 152  : 	return NAME;
; 153  : }

  0028f	8b 4d fc	 mov	 ecx, DWORD PTR __$ArrayPad$[ebp]
  00292	33 cd		 xor	 ecx, ebp
  00294	e8 00 00 00 00	 call	 @__security_check_cookie@4
  00299	8b e5		 mov	 esp, ebp
  0029b	5d		 pop	 ebp
  0029c	c3		 ret	 0
$LN30@GetToken:
  0029d	8b 4d fc	 mov	 ecx, DWORD PTR __$ArrayPad$[ebp]
  002a0	b8 3c 00 00 00	 mov	 eax, 60			; 0000003cH
  002a5	5e		 pop	 esi
  002a6	33 cd		 xor	 ecx, ebp
  002a8	c7 05 00 00 00
	00 3c 00 00 00	 mov	 DWORD PTR ?CurrentToken@@3W4SMDToken@@A, 60 ; 0000003cH
  002b2	5b		 pop	 ebx
  002b3	e8 00 00 00 00	 call	 @__security_check_cookie@4
  002b8	8b e5		 mov	 esp, ebp
  002ba	5d		 pop	 ebp
  002bb	c3		 ret	 0
$LN64@GetToken:
  002bc	00 00 00 00	 DD	 $LN27@GetToken
  002c0	00 00 00 00	 DD	 $LN20@GetToken
  002c4	00 00 00 00	 DD	 $LN22@GetToken
  002c8	00 00 00 00	 DD	 $LN25@GetToken
  002cc	00 00 00 00	 DD	 $LN21@GetToken
  002d0	00 00 00 00	 DD	 $LN23@GetToken
  002d4	00 00 00 00	 DD	 $LN24@GetToken
  002d8	00 00 00 00	 DD	 $LN29@GetToken
$LN58@GetToken:
  002dc	00		 DB	 0
  002dd	01		 DB	 1
  002de	07		 DB	 7
  002df	07		 DB	 7
  002e0	07		 DB	 7
  002e1	07		 DB	 7
  002e2	07		 DB	 7
  002e3	07		 DB	 7
  002e4	07		 DB	 7
  002e5	07		 DB	 7
  002e6	02		 DB	 2
  002e7	03		 DB	 3
  002e8	03		 DB	 3
  002e9	07		 DB	 7
  002ea	03		 DB	 3
  002eb	03		 DB	 3
  002ec	03		 DB	 3
  002ed	03		 DB	 3
  002ee	03		 DB	 3
  002ef	03		 DB	 3
  002f0	03		 DB	 3
  002f1	03		 DB	 3
  002f2	03		 DB	 3
  002f3	03		 DB	 3
  002f4	07		 DB	 7
  002f5	04		 DB	 4
  002f6	07		 DB	 7
  002f7	07		 DB	 7
  002f8	07		 DB	 7
  002f9	07		 DB	 7
  002fa	07		 DB	 7
  002fb	07		 DB	 7
  002fc	07		 DB	 7
  002fd	07		 DB	 7
  002fe	07		 DB	 7
  002ff	07		 DB	 7
  00300	07		 DB	 7
  00301	07		 DB	 7
  00302	07		 DB	 7
  00303	07		 DB	 7
  00304	07		 DB	 7
  00305	07		 DB	 7
  00306	07		 DB	 7
  00307	07		 DB	 7
  00308	07		 DB	 7
  00309	07		 DB	 7
  0030a	07		 DB	 7
  0030b	07		 DB	 7
  0030c	07		 DB	 7
  0030d	07		 DB	 7
  0030e	07		 DB	 7
  0030f	07		 DB	 7
  00310	07		 DB	 7
  00311	07		 DB	 7
  00312	07		 DB	 7
  00313	07		 DB	 7
  00314	07		 DB	 7
  00315	07		 DB	 7
  00316	07		 DB	 7
  00317	07		 DB	 7
  00318	07		 DB	 7
  00319	07		 DB	 7
  0031a	07		 DB	 7
  0031b	07		 DB	 7
  0031c	07		 DB	 7
  0031d	07		 DB	 7
  0031e	07		 DB	 7
  0031f	07		 DB	 7
  00320	07		 DB	 7
  00321	07		 DB	 7
  00322	07		 DB	 7
  00323	07		 DB	 7
  00324	07		 DB	 7
  00325	07		 DB	 7
  00326	07		 DB	 7
  00327	07		 DB	 7
  00328	07		 DB	 7
  00329	07		 DB	 7
  0032a	07		 DB	 7
  0032b	07		 DB	 7
  0032c	07		 DB	 7
  0032d	07		 DB	 7
  0032e	07		 DB	 7
  0032f	07		 DB	 7
  00330	07		 DB	 7
  00331	07		 DB	 7
  00332	07		 DB	 7
  00333	07		 DB	 7
  00334	07		 DB	 7
  00335	05		 DB	 5
  00336	07		 DB	 7
  00337	06		 DB	 6
?GetToken@@YA?AW4SMDToken@@XZ ENDP			; GetToken
_TEXT	ENDS
; Function compile flags: /Ogtp
; File c:\users\michel\desktop\source\gameserver\source\kanturumonstermng.h
;	COMDAT ?GetMayaObjIndex@CKanturuMonsterMng@@QAEHXZ
_TEXT	SEGMENT
?GetMayaObjIndex@CKanturuMonsterMng@@QAEHXZ PROC	; CKanturuMonsterMng::GetMayaObjIndex, COMDAT
; _this$ = ecx

; 51   : 	int GetMayaObjIndex(){return this->m_iMayaObjIndex;}

  00000	8b 81 d8 07 00
	00		 mov	 eax, DWORD PTR [ecx+2008]
  00006	c3		 ret	 0
?GetMayaObjIndex@CKanturuMonsterMng@@QAEHXZ ENDP	; CKanturuMonsterMng::GetMayaObjIndex
_TEXT	ENDS
; Function compile flags: /Ogtp
; File c:\users\michel\desktop\source\gameserver\source\kanturumonstermng.h
;	COMDAT ?GetAliveMonsterCount@CKanturuMonsterMng@@QAEHXZ
_TEXT	SEGMENT
?GetAliveMonsterCount@CKanturuMonsterMng@@QAEHXZ PROC	; CKanturuMonsterMng::GetAliveMonsterCount, COMDAT
; _this$ = ecx

; 48   : 	int GetAliveMonsterCount(){return this->m_iAliveMonsterCount;}

  00000	8b 81 6c 14 00
	00		 mov	 eax, DWORD PTR [ecx+5228]
  00006	c3		 ret	 0
?GetAliveMonsterCount@CKanturuMonsterMng@@QAEHXZ ENDP	; CKanturuMonsterMng::GetAliveMonsterCount
_TEXT	ENDS
; Function compile flags: /Ogtp
;	COMDAT ??_EOBJECTSTRUCT@@QAEPAXI@Z
_TEXT	SEGMENT
__$EHRec$ = -12						; size = 12
___flags$ = 8						; size = 4
??_EOBJECTSTRUCT@@QAEPAXI@Z PROC			; OBJECTSTRUCT::`vector deleting destructor', COMDAT
; _this$ = ecx
  00000	55		 push	 ebp
  00001	8b ec		 mov	 ebp, esp
  00003	6a ff		 push	 -1
  00005	68 00 00 00 00	 push	 __ehhandler$??_EOBJECTSTRUCT@@QAEPAXI@Z
  0000a	64 a1 00 00 00
	00		 mov	 eax, DWORD PTR fs:0
  00010	50		 push	 eax
  00011	53		 push	 ebx
  00012	56		 push	 esi
  00013	57		 push	 edi
  00014	a1 00 00 00 00	 mov	 eax, DWORD PTR ___security_cookie
  00019	33 c5		 xor	 eax, ebp
  0001b	50		 push	 eax
  0001c	8d 45 f4	 lea	 eax, DWORD PTR __$EHRec$[ebp]
  0001f	64 a3 00 00 00
	00		 mov	 DWORD PTR fs:0, eax
  00025	8b f1		 mov	 esi, ecx
  00027	8b 5d 08	 mov	 ebx, DWORD PTR ___flags$[ebp]
  0002a	f6 c3 02	 test	 bl, 2
  0002d	74 44		 je	 SHORT $LN2@vector
  0002f	68 00 00 00 00	 push	 OFFSET ??1OBJECTSTRUCT@@QAE@XZ
  00034	ff 76 fc	 push	 DWORD PTR [esi-4]
  00037	8d 7e fc	 lea	 edi, DWORD PTR [esi-4]
  0003a	68 40 27 00 00	 push	 10048			; 00002740H
  0003f	56		 push	 esi
  00040	e8 00 00 00 00	 call	 ??_M@YGXPAXIIP6EX0@Z@Z
  00045	f6 c3 01	 test	 bl, 1
  00048	74 13		 je	 SHORT $LN3@vector
  0004a	69 0f 40 27 00
	00		 imul	 ecx, DWORD PTR [edi], 10048
  00050	83 c1 04	 add	 ecx, 4
  00053	51		 push	 ecx
  00054	57		 push	 edi
  00055	e8 00 00 00 00	 call	 ??_V@YAXPAXI@Z		; operator delete[]
  0005a	83 c4 08	 add	 esp, 8
$LN3@vector:
  0005d	8b c7		 mov	 eax, edi
  0005f	8b 4d f4	 mov	 ecx, DWORD PTR __$EHRec$[ebp]
  00062	64 89 0d 00 00
	00 00		 mov	 DWORD PTR fs:0, ecx
  00069	59		 pop	 ecx
  0006a	5f		 pop	 edi
  0006b	5e		 pop	 esi
  0006c	5b		 pop	 ebx
  0006d	8b e5		 mov	 esp, ebp
  0006f	5d		 pop	 ebp
  00070	c2 04 00	 ret	 4
$LN2@vector:
  00073	8d 8e ec 20 00
	00		 lea	 ecx, DWORD PTR [esi+8428]
  00079	e8 00 00 00 00	 call	 ??1TMonsterAIAgro@@UAE@XZ ; TMonsterAIAgro::~TMonsterAIAgro
  0007e	8d 8e 0c 16 00
	00		 lea	 ecx, DWORD PTR [esi+5644]
  00084	e8 00 00 00 00	 call	 ??1CSkillDelay@@UAE@XZ	; CSkillDelay::~CSkillDelay
  00089	f6 c3 01	 test	 bl, 1
  0008c	74 0e		 je	 SHORT $LN4@vector
  0008e	68 40 27 00 00	 push	 10048			; 00002740H
  00093	56		 push	 esi
  00094	e8 00 00 00 00	 call	 ??3@YAXPAXI@Z		; operator delete
  00099	83 c4 08	 add	 esp, 8
$LN4@vector:
  0009c	8b c6		 mov	 eax, esi
  0009e	8b 4d f4	 mov	 ecx, DWORD PTR __$EHRec$[ebp]
  000a1	64 89 0d 00 00
	00 00		 mov	 DWORD PTR fs:0, ecx
  000a8	59		 pop	 ecx
  000a9	5f		 pop	 edi
  000aa	5e		 pop	 esi
  000ab	5b		 pop	 ebx
  000ac	8b e5		 mov	 esp, ebp
  000ae	5d		 pop	 ebp
  000af	c2 04 00	 ret	 4
_TEXT	ENDS
;	COMDAT text$x
text$x	SEGMENT
__ehhandler$??_EOBJECTSTRUCT@@QAEPAXI@Z:
  00000	8b 54 24 08	 mov	 edx, DWORD PTR [esp+8]
  00004	8d 42 0c	 lea	 eax, DWORD PTR [edx+12]
  00007	8b 4a f0	 mov	 ecx, DWORD PTR [edx-16]
  0000a	33 c8		 xor	 ecx, eax
  0000c	e8 00 00 00 00	 call	 @__security_check_cookie@4
  00011	b8 00 00 00 00	 mov	 eax, OFFSET __ehfuncinfo$??_EOBJECTSTRUCT@@QAEPAXI@Z
  00016	e9 00 00 00 00	 jmp	 ___CxxFrameHandler3
text$x	ENDS
??_EOBJECTSTRUCT@@QAEPAXI@Z ENDP			; OBJECTSTRUCT::`vector deleting destructor'
; Function compile flags: /Ogtp
;	COMDAT ??1OBJECTSTRUCT@@QAE@XZ
_TEXT	SEGMENT
??1OBJECTSTRUCT@@QAE@XZ PROC				; OBJECTSTRUCT::~OBJECTSTRUCT, COMDAT
; _this$ = ecx
  00000	56		 push	 esi
  00001	8b f1		 mov	 esi, ecx
  00003	8d 8e ec 20 00
	00		 lea	 ecx, DWORD PTR [esi+8428]
  00009	e8 00 00 00 00	 call	 ??1TMonsterAIAgro@@UAE@XZ ; TMonsterAIAgro::~TMonsterAIAgro
  0000e	8d 8e 0c 16 00
	00		 lea	 ecx, DWORD PTR [esi+5644]
  00014	5e		 pop	 esi
  00015	e9 00 00 00 00	 jmp	 ??1CSkillDelay@@UAE@XZ	; CSkillDelay::~CSkillDelay
??1OBJECTSTRUCT@@QAE@XZ ENDP				; OBJECTSTRUCT::~OBJECTSTRUCT
_TEXT	ENDS
; Function compile flags: /Ogtp
;	COMDAT ??_GCKanturuBattleOfMaya@@UAEPAXI@Z
_TEXT	SEGMENT
___flags$ = 8						; size = 4
??_GCKanturuBattleOfMaya@@UAEPAXI@Z PROC		; CKanturuBattleOfMaya::`scalar deleting destructor', COMDAT
; _this$ = ecx
  00000	55		 push	 ebp
  00001	8b ec		 mov	 ebp, esp
  00003	56		 push	 esi
  00004	8b f1		 mov	 esi, ecx
  00006	e8 00 00 00 00	 call	 ??1CKanturuBattleOfMaya@@UAE@XZ ; CKanturuBattleOfMaya::~CKanturuBattleOfMaya
  0000b	f6 45 08 01	 test	 BYTE PTR ___flags$[ebp], 1
  0000f	74 0e		 je	 SHORT $LN4@scalar
  00011	68 2c 02 00 00	 push	 556			; 0000022cH
  00016	56		 push	 esi
  00017	e8 00 00 00 00	 call	 ??3@YAXPAXI@Z		; operator delete
  0001c	83 c4 08	 add	 esp, 8
$LN4@scalar:
  0001f	8b c6		 mov	 eax, esi
  00021	5e		 pop	 esi
  00022	5d		 pop	 ebp
  00023	c2 04 00	 ret	 4
??_GCKanturuBattleOfMaya@@UAEPAXI@Z ENDP		; CKanturuBattleOfMaya::`scalar deleting destructor'
_TEXT	ENDS
; Function compile flags: /Ogtp
; File c:\users\michel\desktop\source\gameserver\source\kanturubattleofmaya.cpp
;	COMDAT ?ChangeAI@CKanturuBattleOfMaya@@QAEXH@Z
_TEXT	SEGMENT
_iGroupNumber$ = 8					; size = 4
?ChangeAI@CKanturuBattleOfMaya@@QAEXH@Z PROC		; CKanturuBattleOfMaya::ChangeAI, COMDAT
; _this$ = ecx

; 1136 : {

  00000	55		 push	 ebp
  00001	8b ec		 mov	 ebp, esp
  00003	56		 push	 esi
  00004	8b f1		 mov	 esi, ecx

; 1137 : 	if ( (GetTickCount() - this->m_iMayaHandAIAppliedTime) >= (DWORD)this->m_iMayaHandAIChangeTime[this->m_iMayaHandCurrentAI] )

  00006	ff 15 00 00 00
	00		 call	 DWORD PTR __imp__GetTickCount@0
  0000c	8b 96 14 02 00
	00		 mov	 edx, DWORD PTR [esi+532]
  00012	2b 86 10 02 00
	00		 sub	 eax, DWORD PTR [esi+528]
  00018	3b 84 96 fc 01
	00 00		 cmp	 eax, DWORD PTR [esi+edx*4+508]
  0001f	72 2a		 jb	 SHORT $LN3@ChangeAI

; 1138 : 	{
; 1139 : 		this->m_iMayaHandAIAppliedTime = GetTickCount();

  00021	ff 15 00 00 00
	00		 call	 DWORD PTR __imp__GetTickCount@0
  00027	89 86 10 02 00
	00		 mov	 DWORD PTR [esi+528], eax

; 1140 : 
; 1141 : 		if ( this->m_iMayaHandCurrentAI != KANTURU_MAYA_GROUP_NUMBER )

  0002d	8b 86 14 02 00
	00		 mov	 eax, DWORD PTR [esi+532]
  00033	83 f8 03	 cmp	 eax, 3
  00036	74 13		 je	 SHORT $LN3@ChangeAI

; 1142 : 		{
; 1143 : 			this->m_iMayaHandCurrentAI++;

  00038	40		 inc	 eax

; 1144 : 			TMonsterAIGroup::ChangeAIOrder(iGroupNumber, this->m_iMayaHandCurrentAI);

  00039	50		 push	 eax
  0003a	ff 75 08	 push	 DWORD PTR _iGroupNumber$[ebp]
  0003d	89 86 14 02 00
	00		 mov	 DWORD PTR [esi+532], eax
  00043	e8 00 00 00 00	 call	 ?ChangeAIOrder@TMonsterAIGroup@@SAXHH@Z ; TMonsterAIGroup::ChangeAIOrder
  00048	83 c4 08	 add	 esp, 8
$LN3@ChangeAI:
  0004b	5e		 pop	 esi

; 1145 : 		}
; 1146 : 	}
; 1147 : }

  0004c	5d		 pop	 ebp
  0004d	c2 04 00	 ret	 4
?ChangeAI@CKanturuBattleOfMaya@@QAEXH@Z ENDP		; CKanturuBattleOfMaya::ChangeAI
_TEXT	ENDS
; Function compile flags: /Ogtp
; File c:\users\michel\desktop\source\gameserver\source\kanturubattleofmaya.cpp
;	COMDAT ?ResetAIMonster@CKanturuBattleOfMaya@@QAEXXZ
_TEXT	SEGMENT
?ResetAIMonster@CKanturuBattleOfMaya@@QAEXXZ PROC	; CKanturuBattleOfMaya::ResetAIMonster, COMDAT
; _this$ = ecx

; 1119 : 	gObj[this->m_iMayaLeftHandObjIndex].Life = 0;

  00000	a1 00 00 00 00	 mov	 eax, DWORD PTR ?gObj@@3PAUOBJECTSTRUCT@@A ; gObj
  00005	53		 push	 ebx
  00006	8b d9		 mov	 ebx, ecx
  00008	56		 push	 esi
  00009	57		 push	 edi
  0000a	bf 04 00 00 00	 mov	 edi, 4
  0000f	69 93 f4 01 00
	00 40 27 00 00	 imul	 edx, DWORD PTR [ebx+500], 10048
  00019	8d b3 18 02 00
	00		 lea	 esi, DWORD PTR [ebx+536]
  0001f	c7 84 02 d8 00
	00 00 00 00 00
	00		 mov	 DWORD PTR [edx+eax+216], 0

; 1120 : 	gObj[this->m_iMayaRightHandObjIndex].Life = 0;

  0002a	69 93 f8 01 00
	00 40 27 00 00	 imul	 edx, DWORD PTR [ebx+504], 10048
  00034	a1 00 00 00 00	 mov	 eax, DWORD PTR ?gObj@@3PAUOBJECTSTRUCT@@A ; gObj
  00039	c7 84 02 d8 00
	00 00 00 00 00
	00		 mov	 DWORD PTR [edx+eax+216], 0
$LL4@ResetAIMon:

; 1121 : 
; 1122 : 	for ( int iCount=0;iCount < KANTURU_MAYA_AI_CHANGE_TIME ; iCount++)
; 1123 : 	{
; 1124 : 		TMonsterAIGroup::DelGroupInstance(this->m_iMayaHandGroupNumber[iCount]);

  00044	ff 36		 push	 DWORD PTR [esi]
  00046	e8 00 00 00 00	 call	 ?DelGroupInstance@TMonsterAIGroup@@SAHH@Z ; TMonsterAIGroup::DelGroupInstance
  0004b	83 c4 04	 add	 esp, 4
  0004e	8d 76 04	 lea	 esi, DWORD PTR [esi+4]
  00051	83 ef 01	 sub	 edi, 1
  00054	75 ee		 jne	 SHORT $LL4@ResetAIMon

; 1125 : 	}
; 1126 : 
; 1127 : 	this->m_iMayaLeftHandObjIndex = -1;
; 1128 : 	this->m_iMayaRightHandObjIndex = -1;
; 1129 : 	this->m_iMayaHandAIAppliedTime = 0;

  00056	89 bb 10 02 00
	00		 mov	 DWORD PTR [ebx+528], edi

; 1130 : 	this->m_iMayaHandCurrentAI = 0;

  0005c	89 bb 14 02 00
	00		 mov	 DWORD PTR [ebx+532], edi
  00062	5f		 pop	 edi
  00063	5e		 pop	 esi
  00064	c7 83 f4 01 00
	00 ff ff ff ff	 mov	 DWORD PTR [ebx+500], -1
  0006e	c7 83 f8 01 00
	00 ff ff ff ff	 mov	 DWORD PTR [ebx+504], -1
  00078	5b		 pop	 ebx

; 1131 : }

  00079	c3		 ret	 0
?ResetAIMonster@CKanturuBattleOfMaya@@QAEXXZ ENDP	; CKanturuBattleOfMaya::ResetAIMonster
_TEXT	ENDS
; Function compile flags: /Ogtp
; File c:\users\michel\desktop\source\gameserver\source\kanturubattleofmaya.cpp
;	COMDAT ?SetAIMonsterGroup@CKanturuBattleOfMaya@@QAEXH@Z
_TEXT	SEGMENT
_iGroupNumber$ = 8					; size = 4
?SetAIMonsterGroup@CKanturuBattleOfMaya@@QAEXH@Z PROC	; CKanturuBattleOfMaya::SetAIMonsterGroup, COMDAT
; _this$ = ecx

; 1109 : {

  00000	55		 push	 ebp
  00001	8b ec		 mov	 ebp, esp
  00003	57		 push	 edi

; 1110 : 	TMonsterAIGroup::Init(iGroupNumber);

  00004	ff 75 08	 push	 DWORD PTR _iGroupNumber$[ebp]
  00007	8b f9		 mov	 edi, ecx
  00009	e8 00 00 00 00	 call	 ?Init@TMonsterAIGroup@@SAXH@Z ; TMonsterAIGroup::Init

; 1111 : 	TMonsterAIGroup::ChangeAIOrder(iGroupNumber, 0);

  0000e	6a 00		 push	 0
  00010	ff 75 08	 push	 DWORD PTR _iGroupNumber$[ebp]
  00013	e8 00 00 00 00	 call	 ?ChangeAIOrder@TMonsterAIGroup@@SAXHH@Z ; TMonsterAIGroup::ChangeAIOrder
  00018	83 c4 0c	 add	 esp, 12			; 0000000cH

; 1112 : 
; 1113 : 	this->m_iMayaHandAIAppliedTime = GetTickCount();

  0001b	ff 15 00 00 00
	00		 call	 DWORD PTR __imp__GetTickCount@0
  00021	89 87 10 02 00
	00		 mov	 DWORD PTR [edi+528], eax
  00027	5f		 pop	 edi

; 1114 : }

  00028	5d		 pop	 ebp
  00029	c2 04 00	 ret	 4
?SetAIMonsterGroup@CKanturuBattleOfMaya@@QAEXH@Z ENDP	; CKanturuBattleOfMaya::SetAIMonsterGroup
_TEXT	ENDS
; Function compile flags: /Ogtp
; File c:\users\michel\desktop\source\gameserver\source\kanturubattleofmaya.cpp
; File c:\users\michel\desktop\source\gameserver\source\kanturubattleofmaya.h
; File c:\users\michel\desktop\source\gameserver\source\kanturubattleofmaya.cpp
; File c:\users\michel\desktop\source\gameserver\source\kanturubattleofmaya.h
; File c:\users\michel\desktop\source\gameserver\source\kanturubattleofmaya.cpp
;	COMDAT ?CheckMayaBattleUser@CKanturuBattleOfMaya@@QAEXXZ
_TEXT	SEGMENT
?CheckMayaBattleUser@CKanturuBattleOfMaya@@QAEXXZ PROC	; CKanturuBattleOfMaya::CheckMayaBattleUser, COMDAT
; _this$ = ecx

; 1084 : {

  00000	56		 push	 esi
  00001	8b f1		 mov	 esi, ecx

; 1085 : 	if ( this->GetBattleOfMayaState() == KANTURU_MAYA_NOTIFY1 ||
; 1086 : 		 this->GetBattleOfMayaState() == KANTURU_MAYA_START1 ||
; 1087 : 		 this->GetBattleOfMayaState() == KANTURU_MAYA1 ||
; 1088 : 		 this->GetBattleOfMayaState() == KANTURU_MAYA_START2 ||
; 1089 : 		 this->GetBattleOfMayaState() == KANTURU_MAYA2 ||
; 1090 : 		 this->GetBattleOfMayaState() == KANTURU_MAYA_START3 ||

  00003	8b 46 08	 mov	 eax, DWORD PTR [esi+8]
  00006	83 f8 02	 cmp	 eax, 2
  00009	74 1e		 je	 SHORT $LN3@CheckMayaB
  0000b	83 f8 03	 cmp	 eax, 3
  0000e	74 19		 je	 SHORT $LN3@CheckMayaB
  00010	83 f8 04	 cmp	 eax, 4
  00013	74 14		 je	 SHORT $LN3@CheckMayaB
  00015	83 f8 08	 cmp	 eax, 8
  00018	74 0f		 je	 SHORT $LN3@CheckMayaB
  0001a	83 f8 09	 cmp	 eax, 9
  0001d	74 0a		 je	 SHORT $LN3@CheckMayaB
  0001f	83 f8 0d	 cmp	 eax, 13			; 0000000dH
  00022	74 05		 je	 SHORT $LN3@CheckMayaB
  00024	83 f8 0e	 cmp	 eax, 14			; 0000000eH
  00027	75 3d		 jne	 SHORT $LN4@CheckMayaB
$LN3@CheckMayaB:

; 1091 : 		 this->GetBattleOfMayaState() == KANTURU_MAYA3 )
; 1092 : 	{
; 1093 : 		if ( g_KanturuBattleUserMng.IsEmpty() == TRUE )

  00029	b9 00 00 00 00	 mov	 ecx, OFFSET ?g_KanturuBattleUserMng@@3VCKanturuBattleUserMng@@A ; g_KanturuBattleUserMng
  0002e	e8 00 00 00 00	 call	 ?IsEmpty@CKanturuBattleUserMng@@QAEHXZ ; CKanturuBattleUserMng::IsEmpty
  00033	83 f8 01	 cmp	 eax, 1
  00036	75 2e		 jne	 SHORT $LN4@CheckMayaB

; 1098 : 			LogAddTD("[ KANTURU ][ BattleOfMaya ] Fail!! All Battle User Die - DetailState:%d",

  00038	ff 76 08	 push	 DWORD PTR [esi+8]
; File c:\users\michel\desktop\source\gameserver\source\kanturubattleofmaya.h

; 102  : 	void SetSuccessValue(BOOL bIsSuccess){this->m_bIsSucccess = bIsSuccess;}

  0003b	c7 86 d4 01 00
	00 00 00 00 00	 mov	 DWORD PTR [esi+468], 0
; File c:\users\michel\desktop\source\gameserver\source\kanturubattleofmaya.cpp

; 1098 : 			LogAddTD("[ KANTURU ][ BattleOfMaya ] Fail!! All Battle User Die - DetailState:%d",

  00045	68 00 00 00 00	 push	 OFFSET ??_C@_0EI@LCLHMPAM@?$FL?5KANTURU?5?$FN?$FL?5BattleOfMaya?5?$FN?5Fail@
; File c:\users\michel\desktop\source\gameserver\source\kanturubattleofmaya.h

; 104  : 	void SetSceneSuccessValue(BOOL bIsSuccess){this->m_bIsSceneSuccess = bIsSuccess;}

  0004a	c7 86 d8 01 00
	00 00 00 00 00	 mov	 DWORD PTR [esi+472], 0
; File c:\users\michel\desktop\source\gameserver\source\kanturubattleofmaya.cpp

; 1098 : 			LogAddTD("[ KANTURU ][ BattleOfMaya ] Fail!! All Battle User Die - DetailState:%d",

  00054	ff 15 00 00 00
	00		 call	 DWORD PTR ?LogAddTD@@3P6AXPADZZA ; LogAddTD
  0005a	83 c4 08	 add	 esp, 8

; 1099 : 				this->m_iBattleOfMayaState);
; 1100 : 
; 1101 : 			this->SetState(KANTURU_MAYA_END);

  0005d	8b ce		 mov	 ecx, esi
  0005f	6a 11		 push	 17			; 00000011H
  00061	e8 00 00 00 00	 call	 ?SetState@CKanturuBattleOfMaya@@QAEXH@Z ; CKanturuBattleOfMaya::SetState
$LN4@CheckMayaB:
  00066	5e		 pop	 esi

; 1102 : 		}
; 1103 : 	}
; 1104 : }

  00067	c3		 ret	 0
?CheckMayaBattleUser@CKanturuBattleOfMaya@@QAEXXZ ENDP	; CKanturuBattleOfMaya::CheckMayaBattleUser
_TEXT	ENDS
; Function compile flags: /Ogtp
; File c:\users\michel\desktop\source\gameserver\source\kanturubattleofmaya.cpp
; File c:\users\michel\desktop\source\gameserver\source\kanturustateinfo.h
; File c:\users\michel\desktop\source\gameserver\source\kanturubattleofmaya.cpp
; File c:\users\michel\desktop\source\gameserver\source\kanturustateinfo.h
; File c:\users\michel\desktop\source\gameserver\source\kanturubattleofmaya.cpp
;	COMDAT ?GetRemainTime@CKanturuBattleOfMaya@@QAEHXZ
_TEXT	SEGMENT
?GetRemainTime@CKanturuBattleOfMaya@@QAEHXZ PROC	; CKanturuBattleOfMaya::GetRemainTime, COMDAT
; _this$ = ecx

; 1079 : 	return this->m_StateInfo[iCurrentState].GetRemainTime();

  00000	8b 41 08	 mov	 eax, DWORD PTR [ecx+8]
  00003	83 c0 04	 add	 eax, 4
  00006	57		 push	 edi
  00007	8d 04 80	 lea	 eax, DWORD PTR [eax+eax*4]
  0000a	8d 3c 81	 lea	 edi, DWORD PTR [ecx+eax*4]
; File c:\users\michel\desktop\source\gameserver\source\kanturustateinfo.h

; 73   : 		int iRemainTime = 0;

  0000d	33 c0		 xor	 eax, eax

; 74   : 
; 75   : 		if ( this->GetCondition() == 1 )

  0000f	83 7f 08 01	 cmp	 DWORD PTR [edi+8], 1
  00013	75 2b		 jne	 SHORT $LN5@GetRemainT
  00015	56		 push	 esi

; 61   : 		return this->m_dwAppliedTickCount;

  00016	8b 77 10	 mov	 esi, DWORD PTR [edi+16]

; 62   : 	}
; 63   : 
; 64   : 	//void __thiscall ResetAppliedTime();
; 65   : 	int GetElapsedTime()
; 66   : 	{
; 67   : 		int iElapsedTime = GetTickCount() - this->GetAppliedTime();

  00019	ff 15 00 00 00
	00		 call	 DWORD PTR __imp__GetTickCount@0

; 76   : 		{
; 77   : 			iRemainTime = this->m_iValue - this->GetElapsedTime();

  0001f	8b 4f 0c	 mov	 ecx, DWORD PTR [edi+12]

; 62   : 	}
; 63   : 
; 64   : 	//void __thiscall ResetAppliedTime();
; 65   : 	int GetElapsedTime()
; 66   : 	{
; 67   : 		int iElapsedTime = GetTickCount() - this->GetAppliedTime();

  00022	2b c6		 sub	 eax, esi

; 76   : 		{
; 77   : 			iRemainTime = this->m_iValue - this->GetElapsedTime();

  00024	2b c8		 sub	 ecx, eax
  00026	5e		 pop	 esi

; 78   : 
; 79   : 			if ( iRemainTime <= 0 )

  00027	85 c9		 test	 ecx, ecx
  00029	7f 04		 jg	 SHORT $LN7@GetRemainT
; File c:\users\michel\desktop\source\gameserver\source\kanturubattleofmaya.cpp

; 1079 : 	return this->m_StateInfo[iCurrentState].GetRemainTime();

  0002b	33 c0		 xor	 eax, eax
  0002d	5f		 pop	 edi

; 1080 : }

  0002e	c3		 ret	 0
$LN7@GetRemainT:
; File c:\users\michel\desktop\source\gameserver\source\kanturustateinfo.h

; 84   : 			iRemainTime /= 1000;

  0002f	b8 d3 4d 62 10	 mov	 eax, 274877907		; 10624dd3H
  00034	f7 e9		 imul	 ecx
  00036	c1 fa 06	 sar	 edx, 6
  00039	8b c2		 mov	 eax, edx
  0003b	c1 e8 1f	 shr	 eax, 31			; 0000001fH
  0003e	03 c2		 add	 eax, edx
$LN5@GetRemainT:
  00040	5f		 pop	 edi
; File c:\users\michel\desktop\source\gameserver\source\kanturubattleofmaya.cpp

; 1080 : }

  00041	c3		 ret	 0
?GetRemainTime@CKanturuBattleOfMaya@@QAEHXZ ENDP	; CKanturuBattleOfMaya::GetRemainTime
_TEXT	ENDS
; Function compile flags: /Ogtp
; File c:\users\michel\desktop\source\gameserver\source\kanturubattleofmaya.cpp
; File c:\users\michel\desktop\source\gameserver\source\kanturustateinfo.h
; File c:\users\michel\desktop\source\gameserver\source\kanturubattleofmaya.cpp
; File c:\users\michel\desktop\source\gameserver\source\kanturustateinfo.h
; File c:\users\michel\desktop\source\gameserver\source\kanturubattleofmaya.cpp
; File c:\users\michel\desktop\source\gameserver\source\kanturustateinfo.h
; File c:\users\michel\desktop\source\gameserver\source\kanturubattleofmaya.cpp
; File c:\users\michel\desktop\source\gameserver\source\kanturubattleofmaya.h
; File c:\users\michel\desktop\source\gameserver\source\kanturubattleofmaya.cpp
;	COMDAT ?CheckStateTime@CKanturuBattleOfMaya@@QAEHXZ
_TEXT	SEGMENT
?CheckStateTime@CKanturuBattleOfMaya@@QAEHXZ PROC	; CKanturuBattleOfMaya::CheckStateTime, COMDAT
; _this$ = ecx

; 1032 : {

  00000	57		 push	 edi
  00001	8b f9		 mov	 edi, ecx

; 1033 : 	if ( this->GetBattleOfMayaState() )

  00003	8b 4f 08	 mov	 ecx, DWORD PTR [edi+8]
  00006	85 c9		 test	 ecx, ecx
  00008	74 51		 je	 SHORT $LN4@CheckState

; 1034 : 	{
; 1035 : 		if ( this->m_StateInfo[this->m_iBattleOfMayaState].GetCondition() == 1 )

  0000a	8d 04 89	 lea	 eax, DWORD PTR [ecx+ecx*4]
  0000d	83 7c 87 58 01	 cmp	 DWORD PTR [edi+eax*4+88], 1
  00012	75 47		 jne	 SHORT $LN4@CheckState

; 1037 : 			if ( this->m_StateInfo[this->m_iBattleOfMayaState].IsTimeOut() == TRUE )

  00014	8d 41 04	 lea	 eax, DWORD PTR [ecx+4]
  00017	8d 04 80	 lea	 eax, DWORD PTR [eax+eax*4]
; File c:\users\michel\desktop\source\gameserver\source\kanturustateinfo.h

; 75   : 		if ( this->GetCondition() == 1 )

  0001a	83 7c 87 08 01	 cmp	 DWORD PTR [edi+eax*4+8], 1
  0001f	53		 push	 ebx
; File c:\users\michel\desktop\source\gameserver\source\kanturubattleofmaya.cpp

; 1037 : 			if ( this->m_StateInfo[this->m_iBattleOfMayaState].IsTimeOut() == TRUE )

  00020	8d 1c 87	 lea	 ebx, DWORD PTR [edi+eax*4]
; File c:\users\michel\desktop\source\gameserver\source\kanturustateinfo.h

; 75   : 		if ( this->GetCondition() == 1 )

  00023	75 2b		 jne	 SHORT $LN41@CheckState
  00025	56		 push	 esi

; 43   : 	}
; 44   : 
; 45   : 	void SetValue(int iValue)
; 46   : 	{
; 47   : 		this->m_iValue = iValue;
; 48   : 	}
; 49   : 
; 50   : 	int GetValue()
; 51   : 	{
; 52   : 		return this->m_iValue;
; 53   : 	}
; 54   : 	void SetAppliedTime()
; 55   : 	{
; 56   : 		this->m_dwAppliedTickCount = GetTickCount();
; 57   : 	}
; 58   : 
; 59   : 	int GetAppliedTime()
; 60   : 	{
; 61   : 		return this->m_dwAppliedTickCount;

  00026	8b 73 10	 mov	 esi, DWORD PTR [ebx+16]

; 62   : 	}
; 63   : 
; 64   : 	//void __thiscall ResetAppliedTime();
; 65   : 	int GetElapsedTime()
; 66   : 	{
; 67   : 		int iElapsedTime = GetTickCount() - this->GetAppliedTime();

  00029	ff 15 00 00 00
	00		 call	 DWORD PTR __imp__GetTickCount@0

; 76   : 		{
; 77   : 			iRemainTime = this->m_iValue - this->GetElapsedTime();

  0002f	8b 4b 0c	 mov	 ecx, DWORD PTR [ebx+12]

; 62   : 	}
; 63   : 
; 64   : 	//void __thiscall ResetAppliedTime();
; 65   : 	int GetElapsedTime()
; 66   : 	{
; 67   : 		int iElapsedTime = GetTickCount() - this->GetAppliedTime();

  00032	2b c6		 sub	 eax, esi

; 76   : 		{
; 77   : 			iRemainTime = this->m_iValue - this->GetElapsedTime();

  00034	2b c8		 sub	 ecx, eax
  00036	5e		 pop	 esi

; 78   : 
; 79   : 			if ( iRemainTime <= 0 )

  00037	85 c9		 test	 ecx, ecx
  00039	7e 15		 jle	 SHORT $LN41@CheckState

; 80   : 			{
; 81   : 				return 0;
; 82   : 			}
; 83   : 
; 84   : 			iRemainTime /= 1000;

  0003b	b8 d3 4d 62 10	 mov	 eax, 274877907		; 10624dd3H
  00040	f7 e9		 imul	 ecx
  00042	c1 fa 06	 sar	 edx, 6
  00045	8b c2		 mov	 eax, edx
  00047	c1 e8 1f	 shr	 eax, 31			; 0000001fH
  0004a	03 c2		 add	 eax, edx

; 85   : 		}
; 86   : 
; 87   : 		return iRemainTime;
; 88   : 	}
; 89   : 
; 90   : 	BOOL IsTimeOut()
; 91   : 	{
; 92   : 		if ( this->GetRemainTime() <= 0 )

  0004c	85 c0		 test	 eax, eax
  0004e	7f 0a		 jg	 SHORT $LN42@CheckState
$LN41@CheckState:
; File c:\users\michel\desktop\source\gameserver\source\kanturubattleofmaya.cpp

; 1039 : 				this->SetNextState(this->m_iBattleOfMayaState);

  00050	ff 77 08	 push	 DWORD PTR [edi+8]
  00053	8b cf		 mov	 ecx, edi
  00055	e8 00 00 00 00	 call	 ?SetNextState@CKanturuBattleOfMaya@@QAEXH@Z ; CKanturuBattleOfMaya::SetNextState
$LN42@CheckState:
  0005a	5b		 pop	 ebx
$LN4@CheckState:

; 1040 : 			}
; 1041 : 		}
; 1042 : 	}
; 1043 : 
; 1044 : 	if ( this->GetBattleSceneState() != -1 )

  0005b	8b 47 0c	 mov	 eax, DWORD PTR [edi+12]
  0005e	83 f8 ff	 cmp	 eax, -1
  00061	74 57		 je	 SHORT $LN9@CheckState

; 1046 : 		if ( this->m_BattleTimeInfo[this->m_iSceneState].GetCondition() != 1 )

  00063	8d 04 80	 lea	 eax, DWORD PTR [eax+eax*4]
  00066	83 7c 87 18 01	 cmp	 DWORD PTR [edi+eax*4+24], 1
; File c:\users\michel\desktop\source\gameserver\source\kanturustateinfo.h

; 42   : 		return this->m_iCondition;

  0006b	8d 0c 87	 lea	 ecx, DWORD PTR [edi+eax*4]
; File c:\users\michel\desktop\source\gameserver\source\kanturubattleofmaya.cpp

; 1046 : 		if ( this->m_BattleTimeInfo[this->m_iSceneState].GetCondition() != 1 )

  0006e	75 4a		 jne	 SHORT $LN9@CheckState

; 1047 : 		{
; 1048 : 			return TRUE;
; 1049 : 		}
; 1050 : 
; 1051 : 		if ( this->GetSceneSuccessValue() == TRUE )

  00070	83 bf d8 01 00
	00 01		 cmp	 DWORD PTR [edi+472], 1
  00077	74 41		 je	 SHORT $LN9@CheckState

; 1052 : 		{
; 1053 : 			return TRUE;
; 1054 : 		}
; 1055 : 
; 1056 : 		if ( this->m_BattleTimeInfo[this->m_iSceneState].IsTimeOut() == TRUE )

  00079	83 c1 10	 add	 ecx, 16			; 00000010H
  0007c	e8 00 00 00 00	 call	 ?IsTimeOut@CKanturuStateInfo@@QAEHXZ ; CKanturuStateInfo::IsTimeOut
  00081	83 f8 01	 cmp	 eax, 1
  00084	75 34		 jne	 SHORT $LN9@CheckState

; 1057 : 		{
; 1058 : 			if ( this->GetBattleOfMayaState() != KANTURU_MAYA_END )

  00086	8b 47 08	 mov	 eax, DWORD PTR [edi+8]
  00089	83 f8 11	 cmp	 eax, 17			; 00000011H
  0008c	74 2c		 je	 SHORT $LN9@CheckState

; 1063 : 				LogAddTD("[ KANTURU ][ BattleOfMaya ] Fail!! TimeOut - DetailState:%d",

  0008e	50		 push	 eax
  0008f	68 00 00 00 00	 push	 OFFSET ??_C@_0DM@MNFIKCME@?$FL?5KANTURU?5?$FN?$FL?5BattleOfMaya?5?$FN?5Fail@
; File c:\users\michel\desktop\source\gameserver\source\kanturubattleofmaya.h

; 104  : 	void SetSceneSuccessValue(BOOL bIsSuccess){this->m_bIsSceneSuccess = bIsSuccess;}

  00094	c7 87 d8 01 00
	00 00 00 00 00	 mov	 DWORD PTR [edi+472], 0

; 102  : 	void SetSuccessValue(BOOL bIsSuccess){this->m_bIsSucccess = bIsSuccess;}

  0009e	c7 87 d4 01 00
	00 00 00 00 00	 mov	 DWORD PTR [edi+468], 0
; File c:\users\michel\desktop\source\gameserver\source\kanturubattleofmaya.cpp

; 1063 : 				LogAddTD("[ KANTURU ][ BattleOfMaya ] Fail!! TimeOut - DetailState:%d",

  000a8	ff 15 00 00 00
	00		 call	 DWORD PTR ?LogAddTD@@3P6AXPADZZA ; LogAddTD
  000ae	83 c4 08	 add	 esp, 8

; 1064 : 					this->m_iBattleOfMayaState);
; 1065 : 
; 1066 : 				this->SetState(KANTURU_MAYA_END);

  000b1	8b cf		 mov	 ecx, edi
  000b3	6a 11		 push	 17			; 00000011H
  000b5	e8 00 00 00 00	 call	 ?SetState@CKanturuBattleOfMaya@@QAEXH@Z ; CKanturuBattleOfMaya::SetState
$LN9@CheckState:

; 1067 : 			}
; 1068 : 		}
; 1069 : 	}
; 1070 : 
; 1071 : 	return TRUE;

  000ba	b8 01 00 00 00	 mov	 eax, 1
  000bf	5f		 pop	 edi

; 1072 : }

  000c0	c3		 ret	 0
?CheckStateTime@CKanturuBattleOfMaya@@QAEHXZ ENDP	; CKanturuBattleOfMaya::CheckStateTime
_TEXT	ENDS
; Function compile flags: /Ogtp
; File c:\users\michel\desktop\source\gameserver\source\kanturubattleofmaya.h
;	COMDAT ?SetEntrancePermit@CKanturuBattleOfMaya@@QAEXH@Z
_TEXT	SEGMENT
_bEntrancePermit$ = 8					; size = 4
?SetEntrancePermit@CKanturuBattleOfMaya@@QAEXH@Z PROC	; CKanturuBattleOfMaya::SetEntrancePermit, COMDAT
; _this$ = ecx

; 106  : 	void SetEntrancePermit(BOOL bEntrancePermit){this->m_bEntrancePermit = bEntrancePermit;}

  00000	55		 push	 ebp
  00001	8b ec		 mov	 ebp, esp
  00003	8b 45 08	 mov	 eax, DWORD PTR _bEntrancePermit$[ebp]
  00006	89 81 d0 01 00
	00		 mov	 DWORD PTR [ecx+464], eax
  0000c	5d		 pop	 ebp
  0000d	c2 04 00	 ret	 4
?SetEntrancePermit@CKanturuBattleOfMaya@@QAEXH@Z ENDP	; CKanturuBattleOfMaya::SetEntrancePermit
_TEXT	ENDS
; Function compile flags: /Ogtp
; File c:\users\michel\desktop\source\gameserver\source\kanturubattleofmaya.h
;	COMDAT ?GetSceneSuccessValue@CKanturuBattleOfMaya@@QAEHXZ
_TEXT	SEGMENT
?GetSceneSuccessValue@CKanturuBattleOfMaya@@QAEHXZ PROC	; CKanturuBattleOfMaya::GetSceneSuccessValue, COMDAT
; _this$ = ecx

; 105  : 	BOOL GetSceneSuccessValue(){return this->m_bIsSceneSuccess;}

  00000	8b 81 d8 01 00
	00		 mov	 eax, DWORD PTR [ecx+472]
  00006	c3		 ret	 0
?GetSceneSuccessValue@CKanturuBattleOfMaya@@QAEHXZ ENDP	; CKanturuBattleOfMaya::GetSceneSuccessValue
_TEXT	ENDS
; Function compile flags: /Ogtp
; File c:\users\michel\desktop\source\gameserver\source\kanturubattleofmaya.h
;	COMDAT ?SetSceneSuccessValue@CKanturuBattleOfMaya@@QAEXH@Z
_TEXT	SEGMENT
_bIsSuccess$ = 8					; size = 4
?SetSceneSuccessValue@CKanturuBattleOfMaya@@QAEXH@Z PROC ; CKanturuBattleOfMaya::SetSceneSuccessValue, COMDAT
; _this$ = ecx

; 104  : 	void SetSceneSuccessValue(BOOL bIsSuccess){this->m_bIsSceneSuccess = bIsSuccess;}

  00000	55		 push	 ebp
  00001	8b ec		 mov	 ebp, esp
  00003	8b 45 08	 mov	 eax, DWORD PTR _bIsSuccess$[ebp]
  00006	89 81 d8 01 00
	00		 mov	 DWORD PTR [ecx+472], eax
  0000c	5d		 pop	 ebp
  0000d	c2 04 00	 ret	 4
?SetSceneSuccessValue@CKanturuBattleOfMaya@@QAEXH@Z ENDP ; CKanturuBattleOfMaya::SetSceneSuccessValue
_TEXT	ENDS
; Function compile flags: /Ogtp
; File c:\users\michel\desktop\source\gameserver\source\kanturubattleofmaya.h
;	COMDAT ?GetSuccessValue@CKanturuBattleOfMaya@@QAEHXZ
_TEXT	SEGMENT
?GetSuccessValue@CKanturuBattleOfMaya@@QAEHXZ PROC	; CKanturuBattleOfMaya::GetSuccessValue, COMDAT
; _this$ = ecx

; 103  : 	BOOL GetSuccessValue(){return this->m_bIsSucccess;}

  00000	8b 81 d4 01 00
	00		 mov	 eax, DWORD PTR [ecx+468]
  00006	c3		 ret	 0
?GetSuccessValue@CKanturuBattleOfMaya@@QAEHXZ ENDP	; CKanturuBattleOfMaya::GetSuccessValue
_TEXT	ENDS
; Function compile flags: /Ogtp
; File c:\users\michel\desktop\source\gameserver\source\kanturubattleofmaya.h
;	COMDAT ?SetSuccessValue@CKanturuBattleOfMaya@@QAEXH@Z
_TEXT	SEGMENT
_bIsSuccess$ = 8					; size = 4
?SetSuccessValue@CKanturuBattleOfMaya@@QAEXH@Z PROC	; CKanturuBattleOfMaya::SetSuccessValue, COMDAT
; _this$ = ecx

; 102  : 	void SetSuccessValue(BOOL bIsSuccess){this->m_bIsSucccess = bIsSuccess;}

  00000	55		 push	 ebp
  00001	8b ec		 mov	 ebp, esp
  00003	8b 45 08	 mov	 eax, DWORD PTR _bIsSuccess$[ebp]
  00006	89 81 d4 01 00
	00		 mov	 DWORD PTR [ecx+468], eax
  0000c	5d		 pop	 ebp
  0000d	c2 04 00	 ret	 4
?SetSuccessValue@CKanturuBattleOfMaya@@QAEXH@Z ENDP	; CKanturuBattleOfMaya::SetSuccessValue
_TEXT	ENDS
; Function compile flags: /Ogtp
; File c:\users\michel\desktop\source\gameserver\source\kanturubattleofmaya.h
;	COMDAT ?GetBattleSceneState@CKanturuBattleOfMaya@@QAEHXZ
_TEXT	SEGMENT
?GetBattleSceneState@CKanturuBattleOfMaya@@QAEHXZ PROC	; CKanturuBattleOfMaya::GetBattleSceneState, COMDAT
; _this$ = ecx

; 101  : 	int GetBattleSceneState(){return this->m_iSceneState;}

  00000	8b 41 0c	 mov	 eax, DWORD PTR [ecx+12]
  00003	c3		 ret	 0
?GetBattleSceneState@CKanturuBattleOfMaya@@QAEHXZ ENDP	; CKanturuBattleOfMaya::GetBattleSceneState
_TEXT	ENDS
; Function compile flags: /Ogtp
; File c:\users\michel\desktop\source\gameserver\source\kanturubattleofmaya.h
;	COMDAT ?SetBattleSceneState@CKanturuBattleOfMaya@@QAEXH@Z
_TEXT	SEGMENT
_iScene$ = 8						; size = 4
?SetBattleSceneState@CKanturuBattleOfMaya@@QAEXH@Z PROC	; CKanturuBattleOfMaya::SetBattleSceneState, COMDAT
; _this$ = ecx

; 96   : 	{

  00000	55		 push	 ebp
  00001	8b ec		 mov	 ebp, esp

; 97   : 		this->m_iSceneState = iScene;

  00003	8b 45 08	 mov	 eax, DWORD PTR _iScene$[ebp]
  00006	89 41 0c	 mov	 DWORD PTR [ecx+12], eax

; 98   : 		this->m_bIsSceneSuccess = FALSE;

  00009	c7 81 d8 01 00
	00 00 00 00 00	 mov	 DWORD PTR [ecx+472], 0

; 99   : 	}

  00013	5d		 pop	 ebp
  00014	c2 04 00	 ret	 4
?SetBattleSceneState@CKanturuBattleOfMaya@@QAEXH@Z ENDP	; CKanturuBattleOfMaya::SetBattleSceneState
_TEXT	ENDS
; Function compile flags: /Ogtp
; File c:\users\michel\desktop\source\gameserver\source\kanturubattleofmaya.h
;	COMDAT ?GetBattleOfMayaState@CKanturuBattleOfMaya@@QAEHXZ
_TEXT	SEGMENT
?GetBattleOfMayaState@CKanturuBattleOfMaya@@QAEHXZ PROC	; CKanturuBattleOfMaya::GetBattleOfMayaState, COMDAT
; _this$ = ecx

; 94   : 	int GetBattleOfMayaState(){return this->m_iBattleOfMayaState;}

  00000	8b 41 08	 mov	 eax, DWORD PTR [ecx+8]
  00003	c3		 ret	 0
?GetBattleOfMayaState@CKanturuBattleOfMaya@@QAEHXZ ENDP	; CKanturuBattleOfMaya::GetBattleOfMayaState
_TEXT	ENDS
; Function compile flags: /Ogtp
; File c:\users\michel\desktop\source\gameserver\source\kanturubattleofmaya.h
;	COMDAT ?SetBattleOfMayaState@CKanturuBattleOfMaya@@QAEXH@Z
_TEXT	SEGMENT
_iState$ = 8						; size = 4
?SetBattleOfMayaState@CKanturuBattleOfMaya@@QAEXH@Z PROC ; CKanturuBattleOfMaya::SetBattleOfMayaState, COMDAT
; _this$ = ecx

; 93   : 	void SetBattleOfMayaState(int iState){this->m_iBattleOfMayaState = iState;}

  00000	55		 push	 ebp
  00001	8b ec		 mov	 ebp, esp
  00003	8b 45 08	 mov	 eax, DWORD PTR _iState$[ebp]
  00006	89 41 08	 mov	 DWORD PTR [ecx+8], eax
  00009	5d		 pop	 ebp
  0000a	c2 04 00	 ret	 4
?SetBattleOfMayaState@CKanturuBattleOfMaya@@QAEXH@Z ENDP ; CKanturuBattleOfMaya::SetBattleOfMayaState
_TEXT	ENDS
; Function compile flags: /Ogtp
; File c:\users\michel\desktop\source\gameserver\source\kanturubattleofmaya.cpp
;	COMDAT ?ProcState_ENDCYCLE@CKanturuBattleOfMaya@@QAEXXZ
_TEXT	SEGMENT
?ProcState_ENDCYCLE@CKanturuBattleOfMaya@@QAEXXZ PROC	; CKanturuBattleOfMaya::ProcState_ENDCYCLE, COMDAT
; _this$ = ecx

; 1027 : 	return;
; 1028 : }

  00000	c3		 ret	 0
?ProcState_ENDCYCLE@CKanturuBattleOfMaya@@QAEXXZ ENDP	; CKanturuBattleOfMaya::ProcState_ENDCYCLE
_TEXT	ENDS
; Function compile flags: /Ogtp
; File c:\users\michel\desktop\source\gameserver\source\kanturubattleofmaya.cpp
;	COMDAT ?ProcState_END@CKanturuBattleOfMaya@@QAEXXZ
_TEXT	SEGMENT
?ProcState_END@CKanturuBattleOfMaya@@QAEXXZ PROC	; CKanturuBattleOfMaya::ProcState_END, COMDAT
; _this$ = ecx

; 1021 : 	return;
; 1022 : }

  00000	c3		 ret	 0
?ProcState_END@CKanturuBattleOfMaya@@QAEXXZ ENDP	; CKanturuBattleOfMaya::ProcState_END
_TEXT	ENDS
; Function compile flags: /Ogtp
; File c:\users\michel\desktop\source\gameserver\source\kanturubattleofmaya.cpp
;	COMDAT ?ProcState_ENDCYCLE_MAYA3@CKanturuBattleOfMaya@@QAEXXZ
_TEXT	SEGMENT
?ProcState_ENDCYCLE_MAYA3@CKanturuBattleOfMaya@@QAEXXZ PROC ; CKanturuBattleOfMaya::ProcState_ENDCYCLE_MAYA3, COMDAT
; _this$ = ecx

; 1015 : 	return;
; 1016 : }

  00000	c3		 ret	 0
?ProcState_ENDCYCLE_MAYA3@CKanturuBattleOfMaya@@QAEXXZ ENDP ; CKanturuBattleOfMaya::ProcState_ENDCYCLE_MAYA3
_TEXT	ENDS
; Function compile flags: /Ogtp
; File c:\users\michel\desktop\source\gameserver\source\kanturubattleofmaya.cpp
;	COMDAT ?ProcState_END_MAYA3@CKanturuBattleOfMaya@@QAEXXZ
_TEXT	SEGMENT
?ProcState_END_MAYA3@CKanturuBattleOfMaya@@QAEXXZ PROC	; CKanturuBattleOfMaya::ProcState_END_MAYA3, COMDAT
; _this$ = ecx

; 1009 : 	return;
; 1010 : }

  00000	c3		 ret	 0
?ProcState_END_MAYA3@CKanturuBattleOfMaya@@QAEXXZ ENDP	; CKanturuBattleOfMaya::ProcState_END_MAYA3
_TEXT	ENDS
; Function compile flags: /Ogtp
; File c:\users\michel\desktop\source\gameserver\source\kanturubattleofmaya.cpp
; File c:\users\michel\desktop\source\gameserver\source\kanturubattleofmaya.h
; File c:\users\michel\desktop\source\gameserver\source\kanturubattleofmaya.cpp
; File c:\users\michel\desktop\source\gameserver\source\kanturubattleofmaya.h
; File c:\users\michel\desktop\source\gameserver\source\kanturubattleofmaya.cpp
; File c:\users\michel\desktop\source\gameserver\source\kanturustateinfo.h
; File c:\users\michel\desktop\source\gameserver\source\kanturubattleofmaya.cpp
;	COMDAT ?ProcState_MAYA3@CKanturuBattleOfMaya@@QAEXXZ
_TEXT	SEGMENT
?ProcState_MAYA3@CKanturuBattleOfMaya@@QAEXXZ PROC	; CKanturuBattleOfMaya::ProcState_MAYA3, COMDAT
; _this$ = ecx

; 965  : 	int iAliveCount = 0;
; 966  : 
; 967  : 	if ( gObj[this->m_iMayaLeftHandObjIndex].Live != FALSE )

  00000	8b 15 00 00 00
	00		 mov	 edx, DWORD PTR ?gObj@@3PAUOBJECTSTRUCT@@A ; gObj
  00006	53		 push	 ebx
  00007	57		 push	 edi
  00008	8b f9		 mov	 edi, ecx
  0000a	33 db		 xor	 ebx, ebx
  0000c	b9 01 00 00 00	 mov	 ecx, 1
  00011	69 87 f4 01 00
	00 40 27 00 00	 imul	 eax, DWORD PTR [edi+500], 10048
  0001b	38 5c 10 51	 cmp	 BYTE PTR [eax+edx+81], bl
  0001f	0f 45 d9	 cmovne	 ebx, ecx

; 968  : 	{
; 969  : 		iAliveCount++;
; 970  : 	}
; 971  : 
; 972  : 	if ( gObj[this->m_iMayaRightHandObjIndex].Live != FALSE )

  00022	69 87 f8 01 00
	00 40 27 00 00	 imul	 eax, DWORD PTR [edi+504], 10048
  0002c	80 7c 10 51 00	 cmp	 BYTE PTR [eax+edx+81], 0
  00031	74 01		 je	 SHORT $LN3@ProcState_

; 973  : 	{
; 974  : 		iAliveCount++;

  00033	43		 inc	 ebx
$LN3@ProcState_:

; 975  : 	}
; 976  : 
; 977  : 	if ( iAliveCount == 0 )

  00034	85 db		 test	 ebx, ebx
  00036	75 72		 jne	 SHORT $LN6@ProcState_

; 978  : 	{
; 979  : 		if ( this->m_iMayaHandDieTimeCounter == 0 )

  00038	39 9f f0 01 00
	00		 cmp	 DWORD PTR [edi+496], ebx
  0003e	75 4a		 jne	 SHORT $LN5@ProcState_

; 984  : 			LogAddTD("[ KANTURU ][ BattleOfMaya ] Success!! - DetailState:%d",

  00040	56		 push	 esi
  00041	ff 77 08	 push	 DWORD PTR [edi+8]
; File c:\users\michel\desktop\source\gameserver\source\kanturubattleofmaya.h

; 102  : 	void SetSuccessValue(BOOL bIsSuccess){this->m_bIsSucccess = bIsSuccess;}

  00044	89 8f d4 01 00
	00		 mov	 DWORD PTR [edi+468], ecx
; File c:\users\michel\desktop\source\gameserver\source\kanturubattleofmaya.cpp

; 984  : 			LogAddTD("[ KANTURU ][ BattleOfMaya ] Success!! - DetailState:%d",

  0004a	68 00 00 00 00	 push	 OFFSET ??_C@_0DH@CMOLGDMA@?$FL?5KANTURU?5?$FN?$FL?5BattleOfMaya?5?$FN?5Succ@
; File c:\users\michel\desktop\source\gameserver\source\kanturubattleofmaya.h

; 104  : 	void SetSceneSuccessValue(BOOL bIsSuccess){this->m_bIsSceneSuccess = bIsSuccess;}

  0004f	89 8f d8 01 00
	00		 mov	 DWORD PTR [edi+472], ecx
; File c:\users\michel\desktop\source\gameserver\source\kanturubattleofmaya.cpp

; 984  : 			LogAddTD("[ KANTURU ][ BattleOfMaya ] Success!! - DetailState:%d",

  00055	ff 15 00 00 00
	00		 call	 DWORD PTR ?LogAddTD@@3P6AXPADZZA ; LogAddTD

; 987  : 			g_KanturuBattleUserMng.LogBattleWinnerUserInfo(2,

  0005b	8b 47 0c	 mov	 eax, DWORD PTR [edi+12]
  0005e	83 c4 08	 add	 esp, 8
  00061	8d 04 80	 lea	 eax, DWORD PTR [eax+eax*4]
; File c:\users\michel\desktop\source\gameserver\source\kanturustateinfo.h

; 61   : 		return this->m_dwAppliedTickCount;

  00064	8b 74 87 20	 mov	 esi, DWORD PTR [edi+eax*4+32]

; 62   : 	}
; 63   : 
; 64   : 	//void __thiscall ResetAppliedTime();
; 65   : 	int GetElapsedTime()
; 66   : 	{
; 67   : 		int iElapsedTime = GetTickCount() - this->GetAppliedTime();

  00068	ff 15 00 00 00
	00		 call	 DWORD PTR __imp__GetTickCount@0
  0006e	2b c6		 sub	 eax, esi
; File c:\users\michel\desktop\source\gameserver\source\kanturubattleofmaya.cpp

; 987  : 			g_KanturuBattleUserMng.LogBattleWinnerUserInfo(2,

  00070	b9 00 00 00 00	 mov	 ecx, OFFSET ?g_KanturuBattleUserMng@@3VCKanturuBattleUserMng@@A ; g_KanturuBattleUserMng
  00075	50		 push	 eax
  00076	6a 02		 push	 2
  00078	e8 00 00 00 00	 call	 ?LogBattleWinnerUserInfo@CKanturuBattleUserMng@@QAEXEH@Z ; CKanturuBattleUserMng::LogBattleWinnerUserInfo

; 988  : 				this->m_BattleTimeInfo[this->m_iSceneState].GetElapsedTime());
; 989  : 
; 990  : 			this->m_iMayaHandDieTimeCounter = GetTickCount();

  0007d	ff 15 00 00 00
	00		 call	 DWORD PTR __imp__GetTickCount@0
  00083	89 87 f0 01 00
	00		 mov	 DWORD PTR [edi+496], eax
  00089	5e		 pop	 esi
$LN5@ProcState_:

; 991  : 		}
; 992  : 
; 993  : 		if ( (GetTickCount() - this->m_iMayaHandDieTimeCounter ) >= 3000 )

  0008a	ff 15 00 00 00
	00		 call	 DWORD PTR __imp__GetTickCount@0
  00090	2b 87 f0 01 00
	00		 sub	 eax, DWORD PTR [edi+496]
  00096	3d b8 0b 00 00	 cmp	 eax, 3000		; 00000bb8H
  0009b	72 0d		 jb	 SHORT $LN6@ProcState_

; 994  : 		{
; 995  : 			this->SetNextState(this->m_iBattleOfMayaState);

  0009d	ff 77 08	 push	 DWORD PTR [edi+8]
  000a0	8b cf		 mov	 ecx, edi
  000a2	e8 00 00 00 00	 call	 ?SetNextState@CKanturuBattleOfMaya@@QAEXH@Z ; CKanturuBattleOfMaya::SetNextState
  000a7	5f		 pop	 edi
  000a8	5b		 pop	 ebx

; 1005 : }

  000a9	c3		 ret	 0
$LN6@ProcState_:

; 996  : 			return;
; 997  : 		}
; 998  : 	}
; 999  : 
; 1000 : 	KANTURU_UTIL.NotifyKanturuUserMonsterCount(iAliveCount,

  000aa	b9 00 00 00 00	 mov	 ecx, OFFSET ?g_KanturuBattleUserMng@@3VCKanturuBattleUserMng@@A ; g_KanturuBattleUserMng
  000af	e8 00 00 00 00	 call	 ?GetUserCount@CKanturuBattleUserMng@@QAEHXZ ; CKanturuBattleUserMng::GetUserCount
  000b4	50		 push	 eax
  000b5	53		 push	 ebx
  000b6	b9 00 00 00 00	 mov	 ecx, OFFSET ?KANTURU_UTIL@@3VCKanturuUtil@@A
  000bb	e8 00 00 00 00	 call	 ?NotifyKanturuUserMonsterCount@CKanturuUtil@@QAEXHH@Z ; CKanturuUtil::NotifyKanturuUserMonsterCount

; 1001 : 		g_KanturuBattleUserMng.GetUserCount());
; 1002 : 
; 1003 : 	this->ChangeAI(this->m_iMayaHandGroupNumber[2]);

  000c0	ff b7 20 02 00
	00		 push	 DWORD PTR [edi+544]
  000c6	8b cf		 mov	 ecx, edi
  000c8	e8 00 00 00 00	 call	 ?ChangeAI@CKanturuBattleOfMaya@@QAEXH@Z ; CKanturuBattleOfMaya::ChangeAI

; 1004 : 	this->m_KanturuMaya.KanturuMayaAct_Hands();

  000cd	8d 8f dc 01 00
	00		 lea	 ecx, DWORD PTR [edi+476]
  000d3	5f		 pop	 edi
  000d4	5b		 pop	 ebx
  000d5	e9 00 00 00 00	 jmp	 ?KanturuMayaAct_Hands@CKanturuMaya@@QAEXXZ ; CKanturuMaya::KanturuMayaAct_Hands
?ProcState_MAYA3@CKanturuBattleOfMaya@@QAEXXZ ENDP	; CKanturuBattleOfMaya::ProcState_MAYA3
_TEXT	ENDS
; Function compile flags: /Ogtp
; File c:\users\michel\desktop\source\gameserver\source\kanturubattleofmaya.cpp
; File c:\users\michel\desktop\source\gameserver\source\kanturubattleofmaya.h
; File c:\users\michel\desktop\source\gameserver\source\kanturubattleofmaya.cpp
; File c:\users\michel\desktop\source\gameserver\source\kanturumonstermng.h
; File c:\users\michel\desktop\source\gameserver\source\kanturubattleofmaya.cpp
;	COMDAT ?ProcState_START3@CKanturuBattleOfMaya@@QAEXXZ
_TEXT	SEGMENT
?ProcState_START3@CKanturuBattleOfMaya@@QAEXXZ PROC	; CKanturuBattleOfMaya::ProcState_START3, COMDAT
; _this$ = ecx

; 943  : {

  00000	56		 push	 esi
  00001	8b f1		 mov	 esi, ecx

; 944  : 	if ( g_KanturuMonsterMng.IsExistAliveMonster() == FALSE )

  00003	b9 00 00 00 00	 mov	 ecx, OFFSET ?g_KanturuMonsterMng@@3VCKanturuMonsterMng@@A ; g_KanturuMonsterMng
  00008	e8 00 00 00 00	 call	 ?IsExistAliveMonster@CKanturuMonsterMng@@QAEHXZ ; CKanturuMonsterMng::IsExistAliveMonster
  0000d	85 c0		 test	 eax, eax
  0000f	75 27		 jne	 SHORT $LN2@ProcState_

; 948  : 		LogAddTD("[ KANTURU ][ BattleOfMaya ] Success!! - DetailState:%d",

  00011	ff 76 08	 push	 DWORD PTR [esi+8]
; File c:\users\michel\desktop\source\gameserver\source\kanturubattleofmaya.h

; 102  : 	void SetSuccessValue(BOOL bIsSuccess){this->m_bIsSucccess = bIsSuccess;}

  00014	c7 86 d4 01 00
	00 01 00 00 00	 mov	 DWORD PTR [esi+468], 1
; File c:\users\michel\desktop\source\gameserver\source\kanturubattleofmaya.cpp

; 948  : 		LogAddTD("[ KANTURU ][ BattleOfMaya ] Success!! - DetailState:%d",

  0001e	68 00 00 00 00	 push	 OFFSET ??_C@_0DH@CMOLGDMA@?$FL?5KANTURU?5?$FN?$FL?5BattleOfMaya?5?$FN?5Succ@
  00023	ff 15 00 00 00
	00		 call	 DWORD PTR ?LogAddTD@@3P6AXPADZZA ; LogAddTD
  00029	83 c4 08	 add	 esp, 8

; 949  : 			this->m_iBattleOfMayaState);
; 950  : 
; 951  : 		this->SetNextState(this->m_iBattleOfMayaState);

  0002c	8b ce		 mov	 ecx, esi
  0002e	ff 76 08	 push	 DWORD PTR [esi+8]
  00031	e8 00 00 00 00	 call	 ?SetNextState@CKanturuBattleOfMaya@@QAEXH@Z ; CKanturuBattleOfMaya::SetNextState
  00036	5e		 pop	 esi

; 957  : 			g_KanturuBattleUserMng.GetUserCount());
; 958  : 	}
; 959  : }

  00037	c3		 ret	 0
$LN2@ProcState_:

; 952  : 	}
; 953  : 	else
; 954  : 	{
; 955  : 		this->m_KanturuMaya.KanturuMayaAct_IceStorm(this->m_iMayaIceStormUsingRate);

  00038	ff b6 28 02 00
	00		 push	 DWORD PTR [esi+552]
  0003e	8d 8e dc 01 00
	00		 lea	 ecx, DWORD PTR [esi+476]
  00044	e8 00 00 00 00	 call	 ?KanturuMayaAct_IceStorm@CKanturuMaya@@QAEXH@Z ; CKanturuMaya::KanturuMayaAct_IceStorm
; File c:\users\michel\desktop\source\gameserver\source\kanturumonstermng.h

; 48   : 	int GetAliveMonsterCount(){return this->m_iAliveMonsterCount;}

  00049	8b 35 6c 14 00
	00		 mov	 esi, DWORD PTR ?g_KanturuMonsterMng@@3VCKanturuMonsterMng@@A+5228
; File c:\users\michel\desktop\source\gameserver\source\kanturubattleofmaya.cpp

; 956  : 		KANTURU_UTIL.NotifyKanturuUserMonsterCount(g_KanturuMonsterMng.GetAliveMonsterCount(),

  0004f	b9 00 00 00 00	 mov	 ecx, OFFSET ?g_KanturuBattleUserMng@@3VCKanturuBattleUserMng@@A ; g_KanturuBattleUserMng
  00054	e8 00 00 00 00	 call	 ?GetUserCount@CKanturuBattleUserMng@@QAEHXZ ; CKanturuBattleUserMng::GetUserCount
  00059	50		 push	 eax
  0005a	56		 push	 esi
  0005b	b9 00 00 00 00	 mov	 ecx, OFFSET ?KANTURU_UTIL@@3VCKanturuUtil@@A
  00060	e8 00 00 00 00	 call	 ?NotifyKanturuUserMonsterCount@CKanturuUtil@@QAEXHH@Z ; CKanturuUtil::NotifyKanturuUserMonsterCount
  00065	5e		 pop	 esi

; 957  : 			g_KanturuBattleUserMng.GetUserCount());
; 958  : 	}
; 959  : }

  00066	c3		 ret	 0
?ProcState_START3@CKanturuBattleOfMaya@@QAEXXZ ENDP	; CKanturuBattleOfMaya::ProcState_START3
_TEXT	ENDS
; Function compile flags: /Ogtp
; File c:\users\michel\desktop\source\gameserver\source\kanturubattleofmaya.cpp
;	COMDAT ?ProcState_STANBY3@CKanturuBattleOfMaya@@QAEXXZ
_TEXT	SEGMENT
?ProcState_STANBY3@CKanturuBattleOfMaya@@QAEXXZ PROC	; CKanturuBattleOfMaya::ProcState_STANBY3, COMDAT
; _this$ = ecx

; 938  : 	return;
; 939  : }

  00000	c3		 ret	 0
?ProcState_STANBY3@CKanturuBattleOfMaya@@QAEXXZ ENDP	; CKanturuBattleOfMaya::ProcState_STANBY3
_TEXT	ENDS
; Function compile flags: /Ogtp
; File c:\users\michel\desktop\source\gameserver\source\kanturubattleofmaya.cpp
;	COMDAT ?ProcState_ENDCYCLE_MAYA2@CKanturuBattleOfMaya@@QAEXXZ
_TEXT	SEGMENT
?ProcState_ENDCYCLE_MAYA2@CKanturuBattleOfMaya@@QAEXXZ PROC ; CKanturuBattleOfMaya::ProcState_ENDCYCLE_MAYA2, COMDAT
; _this$ = ecx

; 932  : 	return;
; 933  : }

  00000	c3		 ret	 0
?ProcState_ENDCYCLE_MAYA2@CKanturuBattleOfMaya@@QAEXXZ ENDP ; CKanturuBattleOfMaya::ProcState_ENDCYCLE_MAYA2
_TEXT	ENDS
; Function compile flags: /Ogtp
; File c:\users\michel\desktop\source\gameserver\source\kanturubattleofmaya.cpp
;	COMDAT ?ProcState_END_MAYA2@CKanturuBattleOfMaya@@QAEXXZ
_TEXT	SEGMENT
?ProcState_END_MAYA2@CKanturuBattleOfMaya@@QAEXXZ PROC	; CKanturuBattleOfMaya::ProcState_END_MAYA2, COMDAT
; _this$ = ecx

; 926  : 	return;
; 927  : }

  00000	c3		 ret	 0
?ProcState_END_MAYA2@CKanturuBattleOfMaya@@QAEXXZ ENDP	; CKanturuBattleOfMaya::ProcState_END_MAYA2
_TEXT	ENDS
; Function compile flags: /Ogtp
; File c:\users\michel\desktop\source\gameserver\source\kanturubattleofmaya.cpp
; File c:\users\michel\desktop\source\gameserver\source\kanturubattleofmaya.h
; File c:\users\michel\desktop\source\gameserver\source\kanturubattleofmaya.cpp
; File c:\users\michel\desktop\source\gameserver\source\kanturubattleofmaya.h
; File c:\users\michel\desktop\source\gameserver\source\kanturubattleofmaya.cpp
; File c:\users\michel\desktop\source\gameserver\source\kanturustateinfo.h
; File c:\users\michel\desktop\source\gameserver\source\kanturubattleofmaya.cpp
;	COMDAT ?ProcState_MAYA2@CKanturuBattleOfMaya@@QAEXXZ
_TEXT	SEGMENT
?ProcState_MAYA2@CKanturuBattleOfMaya@@QAEXXZ PROC	; CKanturuBattleOfMaya::ProcState_MAYA2, COMDAT
; _this$ = ecx

; 889  : 	if ( gObj[this->m_iMayaRightHandObjIndex].Live == FALSE )

  00000	a1 00 00 00 00	 mov	 eax, DWORD PTR ?gObj@@3PAUOBJECTSTRUCT@@A ; gObj
  00005	57		 push	 edi
  00006	8b f9		 mov	 edi, ecx
  00008	69 97 f8 01 00
	00 40 27 00 00	 imul	 edx, DWORD PTR [edi+504], 10048
  00012	80 7c 02 51 00	 cmp	 BYTE PTR [edx+eax+81], 0
  00017	0f 85 8d 00 00
	00		 jne	 $LN2@ProcState_

; 890  : 	{
; 891  : 		if ( this->m_iMayaHandDieTimeCounter == 0 )

  0001d	83 bf f0 01 00
	00 00		 cmp	 DWORD PTR [edi+496], 0
  00024	53		 push	 ebx
  00025	8b 1d 00 00 00
	00		 mov	 ebx, DWORD PTR __imp__GetTickCount@0
  0002b	75 61		 jne	 SHORT $LN4@ProcState_

; 896  : 			LogAddTD("[ KANTURU ][ BattleOfMaya ] Success!! - DetailState:%d",

  0002d	56		 push	 esi
  0002e	ff 77 08	 push	 DWORD PTR [edi+8]
; File c:\users\michel\desktop\source\gameserver\source\kanturubattleofmaya.h

; 102  : 	void SetSuccessValue(BOOL bIsSuccess){this->m_bIsSucccess = bIsSuccess;}

  00031	c7 87 d4 01 00
	00 01 00 00 00	 mov	 DWORD PTR [edi+468], 1
; File c:\users\michel\desktop\source\gameserver\source\kanturubattleofmaya.cpp

; 896  : 			LogAddTD("[ KANTURU ][ BattleOfMaya ] Success!! - DetailState:%d",

  0003b	68 00 00 00 00	 push	 OFFSET ??_C@_0DH@CMOLGDMA@?$FL?5KANTURU?5?$FN?$FL?5BattleOfMaya?5?$FN?5Succ@
; File c:\users\michel\desktop\source\gameserver\source\kanturubattleofmaya.h

; 104  : 	void SetSceneSuccessValue(BOOL bIsSuccess){this->m_bIsSceneSuccess = bIsSuccess;}

  00040	c7 87 d8 01 00
	00 01 00 00 00	 mov	 DWORD PTR [edi+472], 1
; File c:\users\michel\desktop\source\gameserver\source\kanturubattleofmaya.cpp

; 896  : 			LogAddTD("[ KANTURU ][ BattleOfMaya ] Success!! - DetailState:%d",

  0004a	ff 15 00 00 00
	00		 call	 DWORD PTR ?LogAddTD@@3P6AXPADZZA ; LogAddTD

; 899  : 			g_KanturuBattleUserMng.LogBattleWinnerUserInfo(1,

  00050	8b 47 0c	 mov	 eax, DWORD PTR [edi+12]
  00053	83 c4 08	 add	 esp, 8
  00056	8d 04 80	 lea	 eax, DWORD PTR [eax+eax*4]
; File c:\users\michel\desktop\source\gameserver\source\kanturustateinfo.h

; 61   : 		return this->m_dwAppliedTickCount;

  00059	8b 74 87 20	 mov	 esi, DWORD PTR [edi+eax*4+32]

; 62   : 	}
; 63   : 
; 64   : 	//void __thiscall ResetAppliedTime();
; 65   : 	int GetElapsedTime()
; 66   : 	{
; 67   : 		int iElapsedTime = GetTickCount() - this->GetAppliedTime();

  0005d	ff d3		 call	 ebx
  0005f	2b c6		 sub	 eax, esi
; File c:\users\michel\desktop\source\gameserver\source\kanturubattleofmaya.cpp

; 899  : 			g_KanturuBattleUserMng.LogBattleWinnerUserInfo(1,

  00061	b9 00 00 00 00	 mov	 ecx, OFFSET ?g_KanturuBattleUserMng@@3VCKanturuBattleUserMng@@A ; g_KanturuBattleUserMng
  00066	50		 push	 eax
  00067	6a 01		 push	 1
  00069	e8 00 00 00 00	 call	 ?LogBattleWinnerUserInfo@CKanturuBattleUserMng@@QAEXEH@Z ; CKanturuBattleUserMng::LogBattleWinnerUserInfo

; 900  : 				this->m_BattleTimeInfo[this->m_iSceneState].GetElapsedTime());
; 901  : 
; 902  : 			KANTURU_UTIL.NotifyKanturuUserMonsterCount(0,

  0006e	b9 00 00 00 00	 mov	 ecx, OFFSET ?g_KanturuBattleUserMng@@3VCKanturuBattleUserMng@@A ; g_KanturuBattleUserMng
  00073	e8 00 00 00 00	 call	 ?GetUserCount@CKanturuBattleUserMng@@QAEHXZ ; CKanturuBattleUserMng::GetUserCount
  00078	50		 push	 eax
  00079	6a 00		 push	 0
  0007b	b9 00 00 00 00	 mov	 ecx, OFFSET ?KANTURU_UTIL@@3VCKanturuUtil@@A
  00080	e8 00 00 00 00	 call	 ?NotifyKanturuUserMonsterCount@CKanturuUtil@@QAEXHH@Z ; CKanturuUtil::NotifyKanturuUserMonsterCount

; 903  : 				g_KanturuBattleUserMng.GetUserCount());
; 904  : 
; 905  : 			this->m_iMayaHandDieTimeCounter = GetTickCount();

  00085	ff d3		 call	 ebx
  00087	89 87 f0 01 00
	00		 mov	 DWORD PTR [edi+496], eax
  0008d	5e		 pop	 esi
$LN4@ProcState_:

; 906  : 		}
; 907  : 
; 908  : 		if ( (GetTickCount() - this->m_iMayaHandDieTimeCounter ) >= 3000 )

  0008e	ff d3		 call	 ebx
  00090	2b 87 f0 01 00
	00		 sub	 eax, DWORD PTR [edi+496]
  00096	5b		 pop	 ebx
  00097	3d b8 0b 00 00	 cmp	 eax, 3000		; 00000bb8H
  0009c	72 0a		 jb	 SHORT $LN3@ProcState_

; 909  : 		{
; 910  : 			this->SetNextState(this->m_iBattleOfMayaState);

  0009e	ff 77 08	 push	 DWORD PTR [edi+8]
  000a1	8b cf		 mov	 ecx, edi
  000a3	e8 00 00 00 00	 call	 ?SetNextState@CKanturuBattleOfMaya@@QAEXH@Z ; CKanturuBattleOfMaya::SetNextState
$LN3@ProcState_:
  000a8	5f		 pop	 edi

; 920  : 	}
; 921  : }

  000a9	c3		 ret	 0
$LN2@ProcState_:

; 911  : 		}
; 912  : 	}
; 913  : 	else
; 914  : 	{
; 915  : 		KANTURU_UTIL.NotifyKanturuUserMonsterCount(1,

  000aa	b9 00 00 00 00	 mov	 ecx, OFFSET ?g_KanturuBattleUserMng@@3VCKanturuBattleUserMng@@A ; g_KanturuBattleUserMng
  000af	e8 00 00 00 00	 call	 ?GetUserCount@CKanturuBattleUserMng@@QAEHXZ ; CKanturuBattleUserMng::GetUserCount
  000b4	50		 push	 eax
  000b5	6a 01		 push	 1
  000b7	b9 00 00 00 00	 mov	 ecx, OFFSET ?KANTURU_UTIL@@3VCKanturuUtil@@A
  000bc	e8 00 00 00 00	 call	 ?NotifyKanturuUserMonsterCount@CKanturuUtil@@QAEXHH@Z ; CKanturuUtil::NotifyKanturuUserMonsterCount

; 916  : 			g_KanturuBattleUserMng.GetUserCount());
; 917  : 
; 918  : 		this->ChangeAI(this->m_iMayaHandGroupNumber[1]);

  000c1	ff b7 1c 02 00
	00		 push	 DWORD PTR [edi+540]
  000c7	8b cf		 mov	 ecx, edi
  000c9	e8 00 00 00 00	 call	 ?ChangeAI@CKanturuBattleOfMaya@@QAEXH@Z ; CKanturuBattleOfMaya::ChangeAI

; 919  : 		this->m_KanturuMaya.KanturuMayaAct_Hands();

  000ce	8d 8f dc 01 00
	00		 lea	 ecx, DWORD PTR [edi+476]
  000d4	5f		 pop	 edi
  000d5	e9 00 00 00 00	 jmp	 ?KanturuMayaAct_Hands@CKanturuMaya@@QAEXXZ ; CKanturuMaya::KanturuMayaAct_Hands
?ProcState_MAYA2@CKanturuBattleOfMaya@@QAEXXZ ENDP	; CKanturuBattleOfMaya::ProcState_MAYA2
_TEXT	ENDS
; Function compile flags: /Ogtp
; File c:\users\michel\desktop\source\gameserver\source\kanturubattleofmaya.cpp
; File c:\users\michel\desktop\source\gameserver\source\kanturubattleofmaya.h
; File c:\users\michel\desktop\source\gameserver\source\kanturubattleofmaya.cpp
; File c:\users\michel\desktop\source\gameserver\source\kanturumonstermng.h
; File c:\users\michel\desktop\source\gameserver\source\kanturubattleofmaya.cpp
;	COMDAT ?ProcState_START2@CKanturuBattleOfMaya@@QAEXXZ
_TEXT	SEGMENT
?ProcState_START2@CKanturuBattleOfMaya@@QAEXXZ PROC	; CKanturuBattleOfMaya::ProcState_START2, COMDAT
; _this$ = ecx

; 867  : {

  00000	56		 push	 esi
  00001	8b f1		 mov	 esi, ecx

; 868  : 	if ( g_KanturuMonsterMng.IsExistAliveMonster() == FALSE )

  00003	b9 00 00 00 00	 mov	 ecx, OFFSET ?g_KanturuMonsterMng@@3VCKanturuMonsterMng@@A ; g_KanturuMonsterMng
  00008	e8 00 00 00 00	 call	 ?IsExistAliveMonster@CKanturuMonsterMng@@QAEHXZ ; CKanturuMonsterMng::IsExistAliveMonster
  0000d	85 c0		 test	 eax, eax
  0000f	75 27		 jne	 SHORT $LN2@ProcState_

; 872  : 		LogAddTD("[ KANTURU ][ BattleOfMaya ] Success!! - DetailState:%d",

  00011	ff 76 08	 push	 DWORD PTR [esi+8]
; File c:\users\michel\desktop\source\gameserver\source\kanturubattleofmaya.h

; 102  : 	void SetSuccessValue(BOOL bIsSuccess){this->m_bIsSucccess = bIsSuccess;}

  00014	c7 86 d4 01 00
	00 01 00 00 00	 mov	 DWORD PTR [esi+468], 1
; File c:\users\michel\desktop\source\gameserver\source\kanturubattleofmaya.cpp

; 872  : 		LogAddTD("[ KANTURU ][ BattleOfMaya ] Success!! - DetailState:%d",

  0001e	68 00 00 00 00	 push	 OFFSET ??_C@_0DH@CMOLGDMA@?$FL?5KANTURU?5?$FN?$FL?5BattleOfMaya?5?$FN?5Succ@
  00023	ff 15 00 00 00
	00		 call	 DWORD PTR ?LogAddTD@@3P6AXPADZZA ; LogAddTD
  00029	83 c4 08	 add	 esp, 8

; 873  : 			this->m_iBattleOfMayaState);
; 874  : 
; 875  : 		this->SetNextState(this->m_iBattleOfMayaState);

  0002c	8b ce		 mov	 ecx, esi
  0002e	ff 76 08	 push	 DWORD PTR [esi+8]
  00031	e8 00 00 00 00	 call	 ?SetNextState@CKanturuBattleOfMaya@@QAEXH@Z ; CKanturuBattleOfMaya::SetNextState
  00036	5e		 pop	 esi

; 881  : 			g_KanturuBattleUserMng.GetUserCount());
; 882  : 	}
; 883  : }

  00037	c3		 ret	 0
$LN2@ProcState_:

; 876  : 	}
; 877  : 	else
; 878  : 	{
; 879  : 		this->m_KanturuMaya.KanturuMayaAct_IceStorm(this->m_iMayaIceStormUsingRate);

  00038	ff b6 28 02 00
	00		 push	 DWORD PTR [esi+552]
  0003e	8d 8e dc 01 00
	00		 lea	 ecx, DWORD PTR [esi+476]
  00044	e8 00 00 00 00	 call	 ?KanturuMayaAct_IceStorm@CKanturuMaya@@QAEXH@Z ; CKanturuMaya::KanturuMayaAct_IceStorm
; File c:\users\michel\desktop\source\gameserver\source\kanturumonstermng.h

; 48   : 	int GetAliveMonsterCount(){return this->m_iAliveMonsterCount;}

  00049	8b 35 6c 14 00
	00		 mov	 esi, DWORD PTR ?g_KanturuMonsterMng@@3VCKanturuMonsterMng@@A+5228
; File c:\users\michel\desktop\source\gameserver\source\kanturubattleofmaya.cpp

; 880  : 		KANTURU_UTIL.NotifyKanturuUserMonsterCount(g_KanturuMonsterMng.GetAliveMonsterCount(),

  0004f	b9 00 00 00 00	 mov	 ecx, OFFSET ?g_KanturuBattleUserMng@@3VCKanturuBattleUserMng@@A ; g_KanturuBattleUserMng
  00054	e8 00 00 00 00	 call	 ?GetUserCount@CKanturuBattleUserMng@@QAEHXZ ; CKanturuBattleUserMng::GetUserCount
  00059	50		 push	 eax
  0005a	56		 push	 esi
  0005b	b9 00 00 00 00	 mov	 ecx, OFFSET ?KANTURU_UTIL@@3VCKanturuUtil@@A
  00060	e8 00 00 00 00	 call	 ?NotifyKanturuUserMonsterCount@CKanturuUtil@@QAEXHH@Z ; CKanturuUtil::NotifyKanturuUserMonsterCount
  00065	5e		 pop	 esi

; 881  : 			g_KanturuBattleUserMng.GetUserCount());
; 882  : 	}
; 883  : }

  00066	c3		 ret	 0
?ProcState_START2@CKanturuBattleOfMaya@@QAEXXZ ENDP	; CKanturuBattleOfMaya::ProcState_START2
_TEXT	ENDS
; Function compile flags: /Ogtp
; File c:\users\michel\desktop\source\gameserver\source\kanturubattleofmaya.cpp
;	COMDAT ?ProcState_STANBY2@CKanturuBattleOfMaya@@QAEXXZ
_TEXT	SEGMENT
?ProcState_STANBY2@CKanturuBattleOfMaya@@QAEXXZ PROC	; CKanturuBattleOfMaya::ProcState_STANBY2, COMDAT
; _this$ = ecx

; 861  : 	return;
; 862  : }

  00000	c3		 ret	 0
?ProcState_STANBY2@CKanturuBattleOfMaya@@QAEXXZ ENDP	; CKanturuBattleOfMaya::ProcState_STANBY2
_TEXT	ENDS
; Function compile flags: /Ogtp
; File c:\users\michel\desktop\source\gameserver\source\kanturubattleofmaya.cpp
;	COMDAT ?ProcState_ENDCYCLE_MAYA1@CKanturuBattleOfMaya@@QAEXXZ
_TEXT	SEGMENT
?ProcState_ENDCYCLE_MAYA1@CKanturuBattleOfMaya@@QAEXXZ PROC ; CKanturuBattleOfMaya::ProcState_ENDCYCLE_MAYA1, COMDAT
; _this$ = ecx

; 855  : 	return;
; 856  : }

  00000	c3		 ret	 0
?ProcState_ENDCYCLE_MAYA1@CKanturuBattleOfMaya@@QAEXXZ ENDP ; CKanturuBattleOfMaya::ProcState_ENDCYCLE_MAYA1
_TEXT	ENDS
; Function compile flags: /Ogtp
; File c:\users\michel\desktop\source\gameserver\source\kanturubattleofmaya.cpp
;	COMDAT ?ProcState_END_MAYA1@CKanturuBattleOfMaya@@QAEXXZ
_TEXT	SEGMENT
?ProcState_END_MAYA1@CKanturuBattleOfMaya@@QAEXXZ PROC	; CKanturuBattleOfMaya::ProcState_END_MAYA1, COMDAT
; _this$ = ecx

; 849  : 	return;
; 850  : }

  00000	c3		 ret	 0
?ProcState_END_MAYA1@CKanturuBattleOfMaya@@QAEXXZ ENDP	; CKanturuBattleOfMaya::ProcState_END_MAYA1
_TEXT	ENDS
; Function compile flags: /Ogtp
; File c:\users\michel\desktop\source\gameserver\source\kanturubattleofmaya.cpp
; File c:\users\michel\desktop\source\gameserver\source\kanturubattleofmaya.h
; File c:\users\michel\desktop\source\gameserver\source\kanturubattleofmaya.cpp
; File c:\users\michel\desktop\source\gameserver\source\kanturubattleofmaya.h
; File c:\users\michel\desktop\source\gameserver\source\kanturubattleofmaya.cpp
; File c:\users\michel\desktop\source\gameserver\source\kanturustateinfo.h
; File c:\users\michel\desktop\source\gameserver\source\kanturubattleofmaya.cpp
;	COMDAT ?ProcState_MAYA1@CKanturuBattleOfMaya@@QAEXXZ
_TEXT	SEGMENT
?ProcState_MAYA1@CKanturuBattleOfMaya@@QAEXXZ PROC	; CKanturuBattleOfMaya::ProcState_MAYA1, COMDAT
; _this$ = ecx

; 811  : 	if ( gObj[this->m_iMayaLeftHandObjIndex].Live == FALSE )

  00000	a1 00 00 00 00	 mov	 eax, DWORD PTR ?gObj@@3PAUOBJECTSTRUCT@@A ; gObj
  00005	57		 push	 edi
  00006	8b f9		 mov	 edi, ecx
  00008	69 97 f4 01 00
	00 40 27 00 00	 imul	 edx, DWORD PTR [edi+500], 10048
  00012	80 7c 02 51 00	 cmp	 BYTE PTR [edx+eax+81], 0
  00017	0f 85 8d 00 00
	00		 jne	 $LN2@ProcState_

; 812  : 	{
; 813  : 		if ( this->m_iMayaHandDieTimeCounter == 0 )

  0001d	83 bf f0 01 00
	00 00		 cmp	 DWORD PTR [edi+496], 0
  00024	53		 push	 ebx
  00025	8b 1d 00 00 00
	00		 mov	 ebx, DWORD PTR __imp__GetTickCount@0
  0002b	75 61		 jne	 SHORT $LN4@ProcState_

; 818  : 			LogAddTD("[ KANTURU ][ BattleOfMaya ] Success!! - DetailState:%d",

  0002d	56		 push	 esi
  0002e	ff 77 08	 push	 DWORD PTR [edi+8]
; File c:\users\michel\desktop\source\gameserver\source\kanturubattleofmaya.h

; 102  : 	void SetSuccessValue(BOOL bIsSuccess){this->m_bIsSucccess = bIsSuccess;}

  00031	c7 87 d4 01 00
	00 01 00 00 00	 mov	 DWORD PTR [edi+468], 1
; File c:\users\michel\desktop\source\gameserver\source\kanturubattleofmaya.cpp

; 818  : 			LogAddTD("[ KANTURU ][ BattleOfMaya ] Success!! - DetailState:%d",

  0003b	68 00 00 00 00	 push	 OFFSET ??_C@_0DH@CMOLGDMA@?$FL?5KANTURU?5?$FN?$FL?5BattleOfMaya?5?$FN?5Succ@
; File c:\users\michel\desktop\source\gameserver\source\kanturubattleofmaya.h

; 104  : 	void SetSceneSuccessValue(BOOL bIsSuccess){this->m_bIsSceneSuccess = bIsSuccess;}

  00040	c7 87 d8 01 00
	00 01 00 00 00	 mov	 DWORD PTR [edi+472], 1
; File c:\users\michel\desktop\source\gameserver\source\kanturubattleofmaya.cpp

; 818  : 			LogAddTD("[ KANTURU ][ BattleOfMaya ] Success!! - DetailState:%d",

  0004a	ff 15 00 00 00
	00		 call	 DWORD PTR ?LogAddTD@@3P6AXPADZZA ; LogAddTD

; 821  : 			g_KanturuBattleUserMng.LogBattleWinnerUserInfo(0,

  00050	8b 47 0c	 mov	 eax, DWORD PTR [edi+12]
  00053	83 c4 08	 add	 esp, 8
  00056	8d 04 80	 lea	 eax, DWORD PTR [eax+eax*4]
; File c:\users\michel\desktop\source\gameserver\source\kanturustateinfo.h

; 61   : 		return this->m_dwAppliedTickCount;

  00059	8b 74 87 20	 mov	 esi, DWORD PTR [edi+eax*4+32]

; 62   : 	}
; 63   : 
; 64   : 	//void __thiscall ResetAppliedTime();
; 65   : 	int GetElapsedTime()
; 66   : 	{
; 67   : 		int iElapsedTime = GetTickCount() - this->GetAppliedTime();

  0005d	ff d3		 call	 ebx
  0005f	2b c6		 sub	 eax, esi
; File c:\users\michel\desktop\source\gameserver\source\kanturubattleofmaya.cpp

; 821  : 			g_KanturuBattleUserMng.LogBattleWinnerUserInfo(0,

  00061	b9 00 00 00 00	 mov	 ecx, OFFSET ?g_KanturuBattleUserMng@@3VCKanturuBattleUserMng@@A ; g_KanturuBattleUserMng
  00066	50		 push	 eax
  00067	6a 00		 push	 0
  00069	e8 00 00 00 00	 call	 ?LogBattleWinnerUserInfo@CKanturuBattleUserMng@@QAEXEH@Z ; CKanturuBattleUserMng::LogBattleWinnerUserInfo

; 822  : 				this->m_BattleTimeInfo[this->m_iSceneState].GetElapsedTime());
; 823  : 
; 824  : 			KANTURU_UTIL.NotifyKanturuUserMonsterCount(0,

  0006e	b9 00 00 00 00	 mov	 ecx, OFFSET ?g_KanturuBattleUserMng@@3VCKanturuBattleUserMng@@A ; g_KanturuBattleUserMng
  00073	e8 00 00 00 00	 call	 ?GetUserCount@CKanturuBattleUserMng@@QAEHXZ ; CKanturuBattleUserMng::GetUserCount
  00078	50		 push	 eax
  00079	6a 00		 push	 0
  0007b	b9 00 00 00 00	 mov	 ecx, OFFSET ?KANTURU_UTIL@@3VCKanturuUtil@@A
  00080	e8 00 00 00 00	 call	 ?NotifyKanturuUserMonsterCount@CKanturuUtil@@QAEXHH@Z ; CKanturuUtil::NotifyKanturuUserMonsterCount

; 825  : 				g_KanturuBattleUserMng.GetUserCount());
; 826  : 
; 827  : 			this->m_iMayaHandDieTimeCounter = GetTickCount();

  00085	ff d3		 call	 ebx
  00087	89 87 f0 01 00
	00		 mov	 DWORD PTR [edi+496], eax
  0008d	5e		 pop	 esi
$LN4@ProcState_:

; 828  : 		}
; 829  : 
; 830  : 		if ( (GetTickCount() - this->m_iMayaHandDieTimeCounter ) >= 3000 )

  0008e	ff d3		 call	 ebx
  00090	2b 87 f0 01 00
	00		 sub	 eax, DWORD PTR [edi+496]
  00096	5b		 pop	 ebx
  00097	3d b8 0b 00 00	 cmp	 eax, 3000		; 00000bb8H
  0009c	72 0a		 jb	 SHORT $LN3@ProcState_

; 831  : 		{
; 832  : 			this->SetNextState(this->m_iBattleOfMayaState);

  0009e	ff 77 08	 push	 DWORD PTR [edi+8]
  000a1	8b cf		 mov	 ecx, edi
  000a3	e8 00 00 00 00	 call	 ?SetNextState@CKanturuBattleOfMaya@@QAEXH@Z ; CKanturuBattleOfMaya::SetNextState
$LN3@ProcState_:
  000a8	5f		 pop	 edi

; 842  : 	}
; 843  : }

  000a9	c3		 ret	 0
$LN2@ProcState_:

; 833  : 		}
; 834  : 	}
; 835  : 	else
; 836  : 	{
; 837  : 		KANTURU_UTIL.NotifyKanturuUserMonsterCount(1,

  000aa	b9 00 00 00 00	 mov	 ecx, OFFSET ?g_KanturuBattleUserMng@@3VCKanturuBattleUserMng@@A ; g_KanturuBattleUserMng
  000af	e8 00 00 00 00	 call	 ?GetUserCount@CKanturuBattleUserMng@@QAEHXZ ; CKanturuBattleUserMng::GetUserCount
  000b4	50		 push	 eax
  000b5	6a 01		 push	 1
  000b7	b9 00 00 00 00	 mov	 ecx, OFFSET ?KANTURU_UTIL@@3VCKanturuUtil@@A
  000bc	e8 00 00 00 00	 call	 ?NotifyKanturuUserMonsterCount@CKanturuUtil@@QAEXHH@Z ; CKanturuUtil::NotifyKanturuUserMonsterCount

; 838  : 			g_KanturuBattleUserMng.GetUserCount());
; 839  : 
; 840  : 		this->ChangeAI(this->m_iMayaHandGroupNumber[0]);

  000c1	ff b7 18 02 00
	00		 push	 DWORD PTR [edi+536]
  000c7	8b cf		 mov	 ecx, edi
  000c9	e8 00 00 00 00	 call	 ?ChangeAI@CKanturuBattleOfMaya@@QAEXH@Z ; CKanturuBattleOfMaya::ChangeAI

; 841  : 		this->m_KanturuMaya.KanturuMayaAct_Hands();

  000ce	8d 8f dc 01 00
	00		 lea	 ecx, DWORD PTR [edi+476]
  000d4	5f		 pop	 edi
  000d5	e9 00 00 00 00	 jmp	 ?KanturuMayaAct_Hands@CKanturuMaya@@QAEXXZ ; CKanturuMaya::KanturuMayaAct_Hands
?ProcState_MAYA1@CKanturuBattleOfMaya@@QAEXXZ ENDP	; CKanturuBattleOfMaya::ProcState_MAYA1
_TEXT	ENDS
; Function compile flags: /Ogtp
; File c:\users\michel\desktop\source\gameserver\source\kanturubattleofmaya.cpp
; File c:\users\michel\desktop\source\gameserver\source\kanturubattleofmaya.h
; File c:\users\michel\desktop\source\gameserver\source\kanturubattleofmaya.cpp
; File c:\users\michel\desktop\source\gameserver\source\kanturumonstermng.h
; File c:\users\michel\desktop\source\gameserver\source\kanturubattleofmaya.cpp
;	COMDAT ?ProcState_START1@CKanturuBattleOfMaya@@QAEXXZ
_TEXT	SEGMENT
?ProcState_START1@CKanturuBattleOfMaya@@QAEXXZ PROC	; CKanturuBattleOfMaya::ProcState_START1, COMDAT
; _this$ = ecx

; 790  : {

  00000	56		 push	 esi
  00001	8b f1		 mov	 esi, ecx

; 791  : 	if ( g_KanturuMonsterMng.IsExistAliveMonster() == FALSE )

  00003	b9 00 00 00 00	 mov	 ecx, OFFSET ?g_KanturuMonsterMng@@3VCKanturuMonsterMng@@A ; g_KanturuMonsterMng
  00008	e8 00 00 00 00	 call	 ?IsExistAliveMonster@CKanturuMonsterMng@@QAEHXZ ; CKanturuMonsterMng::IsExistAliveMonster
  0000d	85 c0		 test	 eax, eax
  0000f	75 27		 jne	 SHORT $LN2@ProcState_

; 795  : 		LogAddTD("[ KANTURU ][ BattleOfMaya ] Success!! - DetailState:%d",

  00011	ff 76 08	 push	 DWORD PTR [esi+8]
; File c:\users\michel\desktop\source\gameserver\source\kanturubattleofmaya.h

; 102  : 	void SetSuccessValue(BOOL bIsSuccess){this->m_bIsSucccess = bIsSuccess;}

  00014	c7 86 d4 01 00
	00 01 00 00 00	 mov	 DWORD PTR [esi+468], 1
; File c:\users\michel\desktop\source\gameserver\source\kanturubattleofmaya.cpp

; 795  : 		LogAddTD("[ KANTURU ][ BattleOfMaya ] Success!! - DetailState:%d",

  0001e	68 00 00 00 00	 push	 OFFSET ??_C@_0DH@CMOLGDMA@?$FL?5KANTURU?5?$FN?$FL?5BattleOfMaya?5?$FN?5Succ@
  00023	ff 15 00 00 00
	00		 call	 DWORD PTR ?LogAddTD@@3P6AXPADZZA ; LogAddTD
  00029	83 c4 08	 add	 esp, 8

; 796  : 			this->m_iBattleOfMayaState);
; 797  : 
; 798  : 		this->SetNextState(this->m_iBattleOfMayaState);

  0002c	8b ce		 mov	 ecx, esi
  0002e	ff 76 08	 push	 DWORD PTR [esi+8]
  00031	e8 00 00 00 00	 call	 ?SetNextState@CKanturuBattleOfMaya@@QAEXH@Z ; CKanturuBattleOfMaya::SetNextState
  00036	5e		 pop	 esi

; 804  : 			g_KanturuBattleUserMng.GetUserCount());
; 805  : 	}
; 806  : }

  00037	c3		 ret	 0
$LN2@ProcState_:

; 799  : 	}
; 800  : 	else
; 801  : 	{
; 802  : 		this->m_KanturuMaya.KanturuMayaAct_IceStorm(this->m_iMayaIceStormUsingRate);

  00038	ff b6 28 02 00
	00		 push	 DWORD PTR [esi+552]
  0003e	8d 8e dc 01 00
	00		 lea	 ecx, DWORD PTR [esi+476]
  00044	e8 00 00 00 00	 call	 ?KanturuMayaAct_IceStorm@CKanturuMaya@@QAEXH@Z ; CKanturuMaya::KanturuMayaAct_IceStorm
; File c:\users\michel\desktop\source\gameserver\source\kanturumonstermng.h

; 48   : 	int GetAliveMonsterCount(){return this->m_iAliveMonsterCount;}

  00049	8b 35 6c 14 00
	00		 mov	 esi, DWORD PTR ?g_KanturuMonsterMng@@3VCKanturuMonsterMng@@A+5228
; File c:\users\michel\desktop\source\gameserver\source\kanturubattleofmaya.cpp

; 803  : 		KANTURU_UTIL.NotifyKanturuUserMonsterCount(g_KanturuMonsterMng.GetAliveMonsterCount(),

  0004f	b9 00 00 00 00	 mov	 ecx, OFFSET ?g_KanturuBattleUserMng@@3VCKanturuBattleUserMng@@A ; g_KanturuBattleUserMng
  00054	e8 00 00 00 00	 call	 ?GetUserCount@CKanturuBattleUserMng@@QAEHXZ ; CKanturuBattleUserMng::GetUserCount
  00059	50		 push	 eax
  0005a	56		 push	 esi
  0005b	b9 00 00 00 00	 mov	 ecx, OFFSET ?KANTURU_UTIL@@3VCKanturuUtil@@A
  00060	e8 00 00 00 00	 call	 ?NotifyKanturuUserMonsterCount@CKanturuUtil@@QAEXHH@Z ; CKanturuUtil::NotifyKanturuUserMonsterCount
  00065	5e		 pop	 esi

; 804  : 			g_KanturuBattleUserMng.GetUserCount());
; 805  : 	}
; 806  : }

  00066	c3		 ret	 0
?ProcState_START1@CKanturuBattleOfMaya@@QAEXXZ ENDP	; CKanturuBattleOfMaya::ProcState_START1
_TEXT	ENDS
; Function compile flags: /Ogtp
; File c:\users\michel\desktop\source\gameserver\source\kanturubattleofmaya.cpp
;	COMDAT ?ProcState_NOTIFY1@CKanturuBattleOfMaya@@QAEXXZ
_TEXT	SEGMENT
?ProcState_NOTIFY1@CKanturuBattleOfMaya@@QAEXXZ PROC	; CKanturuBattleOfMaya::ProcState_NOTIFY1, COMDAT
; _this$ = ecx

; 785  : 	return;
; 786  : }

  00000	c3		 ret	 0
?ProcState_NOTIFY1@CKanturuBattleOfMaya@@QAEXXZ ENDP	; CKanturuBattleOfMaya::ProcState_NOTIFY1
_TEXT	ENDS
; Function compile flags: /Ogtp
; File c:\users\michel\desktop\source\gameserver\source\kanturubattleofmaya.cpp
;	COMDAT ?ProcState_STANBY1@CKanturuBattleOfMaya@@QAEXXZ
_TEXT	SEGMENT
?ProcState_STANBY1@CKanturuBattleOfMaya@@QAEXXZ PROC	; CKanturuBattleOfMaya::ProcState_STANBY1, COMDAT
; _this$ = ecx

; 779  : 	return;
; 780  : }

  00000	c3		 ret	 0
?ProcState_STANBY1@CKanturuBattleOfMaya@@QAEXXZ ENDP	; CKanturuBattleOfMaya::ProcState_STANBY1
_TEXT	ENDS
; Function compile flags: /Ogtp
; File c:\users\michel\desktop\source\gameserver\source\kanturubattleofmaya.cpp
;	COMDAT ?ProcState_NONE@CKanturuBattleOfMaya@@QAEXXZ
_TEXT	SEGMENT
?ProcState_NONE@CKanturuBattleOfMaya@@QAEXXZ PROC	; CKanturuBattleOfMaya::ProcState_NONE, COMDAT
; _this$ = ecx

; 773  : 	return;
; 774  : }

  00000	c3		 ret	 0
?ProcState_NONE@CKanturuBattleOfMaya@@QAEXXZ ENDP	; CKanturuBattleOfMaya::ProcState_NONE
_TEXT	ENDS
; Function compile flags: /Ogtp
; File c:\users\michel\desktop\source\gameserver\source\kanturubattleofmaya.cpp
; File c:\users\michel\desktop\source\gameserver\source\kanturubattleofmaya.h
; File c:\users\michel\desktop\source\gameserver\source\kanturubattleofmaya.cpp
; File c:\users\michel\desktop\source\gameserver\source\kanturubattleofmaya.h
; File c:\users\michel\desktop\source\gameserver\source\kanturubattleofmaya.cpp
;	COMDAT ?SetState_ENDCYCLE@CKanturuBattleOfMaya@@QAEXXZ
_TEXT	SEGMENT
?SetState_ENDCYCLE@CKanturuBattleOfMaya@@QAEXXZ PROC	; CKanturuBattleOfMaya::SetState_ENDCYCLE, COMDAT
; _this$ = ecx

; 751  : {

  00000	56		 push	 esi
  00001	8b f1		 mov	 esi, ecx

; 752  : 	LogAddC(5, "[ KANTURU ][ BattleOfMaya ] State(%d) -> ENDCYCLE",

  00003	ff 76 08	 push	 DWORD PTR [esi+8]
  00006	68 00 00 00 00	 push	 OFFSET ??_C@_0DC@JILDKLPI@?$FL?5KANTURU?5?$FN?$FL?5BattleOfMaya?5?$FN?5Stat@
  0000b	6a 05		 push	 5
  0000d	ff 15 00 00 00
	00		 call	 DWORD PTR ?LogAddC@@3P6AXEPADZZA ; LogAddC

; 753  : 		this->m_iBattleOfMayaState);
; 754  : 
; 755  : 	LogAddTD("[ KANTURU ][ BattleOfMaya ] State(%d) -> ENDCYCLE",

  00013	ff 76 08	 push	 DWORD PTR [esi+8]
  00016	68 00 00 00 00	 push	 OFFSET ??_C@_0DC@JILDKLPI@?$FL?5KANTURU?5?$FN?$FL?5BattleOfMaya?5?$FN?5Stat@
  0001b	ff 15 00 00 00
	00		 call	 DWORD PTR ?LogAddTD@@3P6AXPADZZA ; LogAddTD
  00021	83 c4 14	 add	 esp, 20			; 00000014H
; File c:\users\michel\desktop\source\gameserver\source\kanturubattleofmaya.h

; 93   : 	void SetBattleOfMayaState(int iState){this->m_iBattleOfMayaState = iState;}

  00024	c7 46 08 12 00
	00 00		 mov	 DWORD PTR [esi+8], 18	; 00000012H
; File c:\users\michel\desktop\source\gameserver\source\kanturubattleofmaya.cpp

; 761  : 	if ( this->GetSuccessValue() == FALSE )

  0002b	83 be d4 01 00
	00 00		 cmp	 DWORD PTR [esi+468], 0
; File c:\users\michel\desktop\source\gameserver\source\kanturubattleofmaya.h

; 106  : 	void SetEntrancePermit(BOOL bEntrancePermit){this->m_bEntrancePermit = bEntrancePermit;}

  00032	c7 86 d0 01 00
	00 00 00 00 00	 mov	 DWORD PTR [esi+464], 0
  0003c	5e		 pop	 esi
; File c:\users\michel\desktop\source\gameserver\source\kanturubattleofmaya.cpp

; 761  : 	if ( this->GetSuccessValue() == FALSE )

  0003d	75 19		 jne	 SHORT $LN2@SetState_E

; 762  : 	{
; 763  : 		g_KanturuBattleUserMng.MoveAllUser(137);

  0003f	68 89 00 00 00	 push	 137			; 00000089H
  00044	b9 00 00 00 00	 mov	 ecx, OFFSET ?g_KanturuBattleUserMng@@3VCKanturuBattleUserMng@@A ; g_KanturuBattleUserMng
  00049	e8 00 00 00 00	 call	 ?MoveAllUser@CKanturuBattleUserMng@@QAEHH@Z ; CKanturuBattleUserMng::MoveAllUser

; 764  : 		g_KanturuBattleUserMng.ResetAllData();

  0004e	b9 00 00 00 00	 mov	 ecx, OFFSET ?g_KanturuBattleUserMng@@3VCKanturuBattleUserMng@@A ; g_KanturuBattleUserMng
  00053	e9 00 00 00 00	 jmp	 ?ResetAllData@CKanturuBattleUserMng@@QAEXXZ ; CKanturuBattleUserMng::ResetAllData
$LN2@SetState_E:

; 765  : 	}
; 766  : }

  00058	c3		 ret	 0
?SetState_ENDCYCLE@CKanturuBattleOfMaya@@QAEXXZ ENDP	; CKanturuBattleOfMaya::SetState_ENDCYCLE
_TEXT	ENDS
; Function compile flags: /Ogtp
; File c:\users\michel\desktop\source\gameserver\source\kanturubattleofmaya.cpp
; File c:\users\michel\desktop\source\gameserver\source\kanturubattleofmaya.h
; File c:\users\michel\desktop\source\gameserver\source\kanturubattleofmaya.cpp
;	COMDAT ?SetState_END@CKanturuBattleOfMaya@@QAEXXZ
_TEXT	SEGMENT
?SetState_END@CKanturuBattleOfMaya@@QAEXXZ PROC		; CKanturuBattleOfMaya::SetState_END, COMDAT
; _this$ = ecx

; 726  : {

  00000	56		 push	 esi
  00001	8b f1		 mov	 esi, ecx

; 727  : 	LogAddC(5, "[ KANTURU ][ BattleOfMaya ] State(%d) -> END",

  00003	ff 76 08	 push	 DWORD PTR [esi+8]
  00006	68 00 00 00 00	 push	 OFFSET ??_C@_0CN@OMJCGL@?$FL?5KANTURU?5?$FN?$FL?5BattleOfMaya?5?$FN?5Stat@
  0000b	6a 05		 push	 5
  0000d	ff 15 00 00 00
	00		 call	 DWORD PTR ?LogAddC@@3P6AXEPADZZA ; LogAddC

; 734  : 	if ( this->GetSuccessValue() == TRUE )

  00013	8b 86 d4 01 00
	00		 mov	 eax, DWORD PTR [esi+468]
  00019	83 c4 0c	 add	 esp, 12			; 0000000cH
; File c:\users\michel\desktop\source\gameserver\source\kanturubattleofmaya.h

; 97   : 		this->m_iSceneState = iScene;

  0001c	c7 46 0c ff ff
	ff ff		 mov	 DWORD PTR [esi+12], -1

; 98   : 		this->m_bIsSceneSuccess = FALSE;

  00023	c7 86 d8 01 00
	00 00 00 00 00	 mov	 DWORD PTR [esi+472], 0

; 93   : 	void SetBattleOfMayaState(int iState){this->m_iBattleOfMayaState = iState;}

  0002d	c7 46 08 11 00
	00 00		 mov	 DWORD PTR [esi+8], 17	; 00000011H

; 99   : 	}
; 100  : 
; 101  : 	int GetBattleSceneState(){return this->m_iSceneState;}
; 102  : 	void SetSuccessValue(BOOL bIsSuccess){this->m_bIsSucccess = bIsSuccess;}
; 103  : 	BOOL GetSuccessValue(){return this->m_bIsSucccess;}
; 104  : 	void SetSceneSuccessValue(BOOL bIsSuccess){this->m_bIsSceneSuccess = bIsSuccess;}
; 105  : 	BOOL GetSceneSuccessValue(){return this->m_bIsSceneSuccess;}
; 106  : 	void SetEntrancePermit(BOOL bEntrancePermit){this->m_bEntrancePermit = bEntrancePermit;}

  00034	c7 86 d0 01 00
	00 00 00 00 00	 mov	 DWORD PTR [esi+464], 0
; File c:\users\michel\desktop\source\gameserver\source\kanturubattleofmaya.cpp

; 734  : 	if ( this->GetSuccessValue() == TRUE )

  0003e	83 f8 01	 cmp	 eax, 1
  00041	75 07		 jne	 SHORT $LN2@SetState_E

; 735  : 	{
; 736  : 		KANTURU_UTIL.SendMsgKanturuBattleUser(lMsg.Get(MSGGET(13, 34)));

  00043	68 22 0d 00 00	 push	 3362			; 00000d22H

; 737  : 	}
; 738  : 	else

  00048	eb 10		 jmp	 SHORT $LN17@SetState_E
$LN2@SetState_E:

; 739  : 	{
; 740  : 		KANTURU_UTIL.NotifyKanturuSuccessValue(this->GetSuccessValue());

  0004a	50		 push	 eax
  0004b	b9 00 00 00 00	 mov	 ecx, OFFSET ?KANTURU_UTIL@@3VCKanturuUtil@@A
  00050	e8 00 00 00 00	 call	 ?NotifyKanturuSuccessValue@CKanturuUtil@@QAEXH@Z ; CKanturuUtil::NotifyKanturuSuccessValue

; 741  : 		KANTURU_UTIL.SendMsgKanturuBattleUser(lMsg.Get(MSGGET(13, 36)));

  00055	68 24 0d 00 00	 push	 3364			; 00000d24H
$LN17@SetState_E:
  0005a	b9 00 00 00 00	 mov	 ecx, OFFSET ?lMsg@@3VMessage@@A ; lMsg
  0005f	e8 00 00 00 00	 call	 ?Get@Message@@QAEPADH@Z	; Message::Get
  00064	50		 push	 eax
  00065	68 00 00 00 00	 push	 OFFSET ?KANTURU_UTIL@@3VCKanturuUtil@@A
  0006a	e8 00 00 00 00	 call	 ?SendMsgKanturuBattleUser@CKanturuUtil@@QAAXPADZZ ; CKanturuUtil::SendMsgKanturuBattleUser
  0006f	83 c4 08	 add	 esp, 8

; 742  : 	}
; 743  : 	
; 744  : 	LogAddC(5, "[ KANTURU ][ BattleOfMaya ] Success Value[%d]",

  00072	ff b6 d4 01 00
	00		 push	 DWORD PTR [esi+468]
  00078	68 00 00 00 00	 push	 OFFSET ??_C@_0CO@GIDLLKAC@?$FL?5KANTURU?5?$FN?$FL?5BattleOfMaya?5?$FN?5Succ@
  0007d	6a 05		 push	 5
  0007f	ff 15 00 00 00
	00		 call	 DWORD PTR ?LogAddC@@3P6AXEPADZZA ; LogAddC
  00085	83 c4 0c	 add	 esp, 12			; 0000000cH
  00088	5e		 pop	 esi

; 745  : 		this->GetSuccessValue());
; 746  : }

  00089	c3		 ret	 0
?SetState_END@CKanturuBattleOfMaya@@QAEXXZ ENDP		; CKanturuBattleOfMaya::SetState_END
_TEXT	ENDS
; Function compile flags: /Ogtp
; File c:\users\michel\desktop\source\gameserver\source\kanturubattleofmaya.cpp
; File c:\users\michel\desktop\source\gameserver\source\kanturubattleofmaya.h
; File c:\users\michel\desktop\source\gameserver\source\kanturubattleofmaya.cpp
;	COMDAT ?SetState_ENDCYCLE_MAYA3@CKanturuBattleOfMaya@@QAEXXZ
_TEXT	SEGMENT
?SetState_ENDCYCLE_MAYA3@CKanturuBattleOfMaya@@QAEXXZ PROC ; CKanturuBattleOfMaya::SetState_ENDCYCLE_MAYA3, COMDAT
; _this$ = ecx

; 715  : {

  00000	56		 push	 esi
  00001	8b f1		 mov	 esi, ecx

; 716  : 	LogAddC(5, "[ KANTURU ][ BattleOfMaya ] State(%d) -> ENDCYCLE_MAYA3",

  00003	ff 76 08	 push	 DWORD PTR [esi+8]
  00006	68 00 00 00 00	 push	 OFFSET ??_C@_0DI@DCAPAODF@?$FL?5KANTURU?5?$FN?$FL?5BattleOfMaya?5?$FN?5Stat@
  0000b	6a 05		 push	 5
  0000d	ff 15 00 00 00
	00		 call	 DWORD PTR ?LogAddC@@3P6AXEPADZZA ; LogAddC
  00013	83 c4 0c	 add	 esp, 12			; 0000000cH
; File c:\users\michel\desktop\source\gameserver\source\kanturubattleofmaya.h

; 93   : 	void SetBattleOfMayaState(int iState){this->m_iBattleOfMayaState = iState;}

  00016	c7 46 08 10 00
	00 00		 mov	 DWORD PTR [esi+8], 16	; 00000010H

; 94   : 	int GetBattleOfMayaState(){return this->m_iBattleOfMayaState;}
; 95   : 	void SetBattleSceneState(int iScene)
; 96   : 	{
; 97   : 		this->m_iSceneState = iScene;
; 98   : 		this->m_bIsSceneSuccess = FALSE;
; 99   : 	}
; 100  : 
; 101  : 	int GetBattleSceneState(){return this->m_iSceneState;}
; 102  : 	void SetSuccessValue(BOOL bIsSuccess){this->m_bIsSucccess = bIsSuccess;}
; 103  : 	BOOL GetSuccessValue(){return this->m_bIsSucccess;}
; 104  : 	void SetSceneSuccessValue(BOOL bIsSuccess){this->m_bIsSceneSuccess = bIsSuccess;}
; 105  : 	BOOL GetSceneSuccessValue(){return this->m_bIsSceneSuccess;}
; 106  : 	void SetEntrancePermit(BOOL bEntrancePermit){this->m_bEntrancePermit = bEntrancePermit;}

  0001d	c7 86 d0 01 00
	00 00 00 00 00	 mov	 DWORD PTR [esi+464], 0
  00027	5e		 pop	 esi
; File c:\users\michel\desktop\source\gameserver\source\kanturubattleofmaya.cpp

; 721  : }

  00028	c3		 ret	 0
?SetState_ENDCYCLE_MAYA3@CKanturuBattleOfMaya@@QAEXXZ ENDP ; CKanturuBattleOfMaya::SetState_ENDCYCLE_MAYA3
_TEXT	ENDS
; Function compile flags: /Ogtp
; File c:\users\michel\desktop\source\gameserver\source\kanturubattleofmaya.cpp
; File c:\users\michel\desktop\source\gameserver\source\kanturubattleofmaya.h
; File c:\users\michel\desktop\source\gameserver\source\kanturubattleofmaya.cpp
; File c:\users\michel\desktop\source\gameserver\source\kanturubattleofmaya.h
; File c:\users\michel\desktop\source\gameserver\source\kanturubattleofmaya.cpp
;	COMDAT ?SetState_END_MAYA3@CKanturuBattleOfMaya@@QAEXXZ
_TEXT	SEGMENT
?SetState_END_MAYA3@CKanturuBattleOfMaya@@QAEXXZ PROC	; CKanturuBattleOfMaya::SetState_END_MAYA3, COMDAT
; _this$ = ecx

; 702  : {

  00000	56		 push	 esi
  00001	8b f1		 mov	 esi, ecx

; 703  : 	LogAddC(5, "[ KANTURU ][ BattleOfMaya ] State(%d) -> END_MAYA3",

  00003	ff 76 08	 push	 DWORD PTR [esi+8]
  00006	68 00 00 00 00	 push	 OFFSET ??_C@_0DD@GFKCEGJD@?$FL?5KANTURU?5?$FN?$FL?5BattleOfMaya?5?$FN?5Stat@
  0000b	6a 05		 push	 5
  0000d	ff 15 00 00 00
	00		 call	 DWORD PTR ?LogAddC@@3P6AXEPADZZA ; LogAddC
  00013	83 c4 0c	 add	 esp, 12			; 0000000cH
; File c:\users\michel\desktop\source\gameserver\source\kanturubattleofmaya.h

; 97   : 		this->m_iSceneState = iScene;

  00016	c7 46 0c ff ff
	ff ff		 mov	 DWORD PTR [esi+12], -1
; File c:\users\michel\desktop\source\gameserver\source\kanturubattleofmaya.cpp

; 710  : 	KANTURU_UTIL.NotifyKanturuSuccessValue(this->GetSuccessValue());

  0001d	b9 00 00 00 00	 mov	 ecx, OFFSET ?KANTURU_UTIL@@3VCKanturuUtil@@A
; File c:\users\michel\desktop\source\gameserver\source\kanturubattleofmaya.h

; 98   : 		this->m_bIsSceneSuccess = FALSE;

  00022	c7 86 d8 01 00
	00 00 00 00 00	 mov	 DWORD PTR [esi+472], 0

; 93   : 	void SetBattleOfMayaState(int iState){this->m_iBattleOfMayaState = iState;}

  0002c	c7 46 08 0f 00
	00 00		 mov	 DWORD PTR [esi+8], 15	; 0000000fH

; 99   : 	}
; 100  : 
; 101  : 	int GetBattleSceneState(){return this->m_iSceneState;}
; 102  : 	void SetSuccessValue(BOOL bIsSuccess){this->m_bIsSucccess = bIsSuccess;}
; 103  : 	BOOL GetSuccessValue(){return this->m_bIsSucccess;}
; 104  : 	void SetSceneSuccessValue(BOOL bIsSuccess){this->m_bIsSceneSuccess = bIsSuccess;}
; 105  : 	BOOL GetSceneSuccessValue(){return this->m_bIsSceneSuccess;}
; 106  : 	void SetEntrancePermit(BOOL bEntrancePermit){this->m_bEntrancePermit = bEntrancePermit;}

  00033	c7 86 d0 01 00
	00 00 00 00 00	 mov	 DWORD PTR [esi+464], 0
; File c:\users\michel\desktop\source\gameserver\source\kanturubattleofmaya.cpp

; 710  : 	KANTURU_UTIL.NotifyKanturuSuccessValue(this->GetSuccessValue());

  0003d	ff b6 d4 01 00
	00		 push	 DWORD PTR [esi+468]
  00043	e8 00 00 00 00	 call	 ?NotifyKanturuSuccessValue@CKanturuUtil@@QAEXH@Z ; CKanturuUtil::NotifyKanturuSuccessValue
  00048	5e		 pop	 esi

; 711  : }

  00049	c3		 ret	 0
?SetState_END_MAYA3@CKanturuBattleOfMaya@@QAEXXZ ENDP	; CKanturuBattleOfMaya::SetState_END_MAYA3
_TEXT	ENDS
; Function compile flags: /Ogtp
; File c:\users\michel\desktop\source\gameserver\source\kanturubattleofmaya.cpp
; File c:\users\michel\desktop\source\gameserver\source\kanturubattleofmaya.h
; File c:\users\michel\desktop\source\gameserver\source\kanturubattleofmaya.cpp
; File c:\users\michel\desktop\source\gameserver\source\kanturubattleofmaya.h
; File c:\users\michel\desktop\source\gameserver\source\kanturubattleofmaya.cpp
; File c:\users\michel\desktop\source\gameserver\source\kanturumaya.h
; File c:\users\michel\desktop\source\gameserver\source\kanturubattleofmaya.cpp
; File c:\users\michel\desktop\source\gameserver\source\kanturumaya.h
; File c:\users\michel\desktop\source\gameserver\source\kanturubattleofmaya.cpp
;	COMDAT ?SetState_MAYA3@CKanturuBattleOfMaya@@QAEXXZ
_TEXT	SEGMENT
?SetState_MAYA3@CKanturuBattleOfMaya@@QAEXXZ PROC	; CKanturuBattleOfMaya::SetState_MAYA3, COMDAT
; _this$ = ecx

; 684  : {

  00000	56		 push	 esi
  00001	8b f1		 mov	 esi, ecx

; 685  : 	LogAddC(5, "[ KANTURU ][ BattleOfMaya ] State(%d) -> MAYA3",

  00003	ff 76 08	 push	 DWORD PTR [esi+8]
  00006	68 00 00 00 00	 push	 OFFSET ??_C@_0CP@NBELFINB@?$FL?5KANTURU?5?$FN?$FL?5BattleOfMaya?5?$FN?5Stat@
  0000b	6a 05		 push	 5
  0000d	ff 15 00 00 00
	00		 call	 DWORD PTR ?LogAddC@@3P6AXEPADZZA ; LogAddC
  00013	83 c4 0c	 add	 esp, 12			; 0000000cH
; File c:\users\michel\desktop\source\gameserver\source\kanturubattleofmaya.h

; 93   : 	void SetBattleOfMayaState(int iState){this->m_iBattleOfMayaState = iState;}

  00016	c7 46 08 0e 00
	00 00		 mov	 DWORD PTR [esi+8], 14	; 0000000eH
; File c:\users\michel\desktop\source\gameserver\source\kanturubattleofmaya.cpp

; 693  : 	g_KanturuMonsterMng.SetKanturuMonster(5);

  0001d	b9 00 00 00 00	 mov	 ecx, OFFSET ?g_KanturuMonsterMng@@3VCKanturuMonsterMng@@A ; g_KanturuMonsterMng
; File c:\users\michel\desktop\source\gameserver\source\kanturubattleofmaya.h

; 106  : 	void SetEntrancePermit(BOOL bEntrancePermit){this->m_bEntrancePermit = bEntrancePermit;}

  00022	c7 86 d0 01 00
	00 00 00 00 00	 mov	 DWORD PTR [esi+464], 0

; 94   : 	int GetBattleOfMayaState(){return this->m_iBattleOfMayaState;}
; 95   : 	void SetBattleSceneState(int iScene)
; 96   : 	{
; 97   : 		this->m_iSceneState = iScene;
; 98   : 		this->m_bIsSceneSuccess = FALSE;
; 99   : 	}
; 100  : 
; 101  : 	int GetBattleSceneState(){return this->m_iSceneState;}
; 102  : 	void SetSuccessValue(BOOL bIsSuccess){this->m_bIsSucccess = bIsSuccess;}

  0002c	c7 86 d4 01 00
	00 00 00 00 00	 mov	 DWORD PTR [esi+468], 0

; 103  : 	BOOL GetSuccessValue(){return this->m_bIsSucccess;}
; 104  : 	void SetSceneSuccessValue(BOOL bIsSuccess){this->m_bIsSceneSuccess = bIsSuccess;}

  00036	c7 86 d8 01 00
	00 00 00 00 00	 mov	 DWORD PTR [esi+472], 0
; File c:\users\michel\desktop\source\gameserver\source\kanturubattleofmaya.cpp

; 693  : 	g_KanturuMonsterMng.SetKanturuMonster(5);

  00040	6a 05		 push	 5
  00042	c7 86 f0 01 00
	00 00 00 00 00	 mov	 DWORD PTR [esi+496], 0
  0004c	e8 00 00 00 00	 call	 ?SetKanturuMonster@CKanturuMonsterMng@@QAEHH@Z ; CKanturuMonsterMng::SetKanturuMonster
; File c:\users\michel\desktop\source\gameserver\source\kanturumaya.h

; 23   : 	void SetMayaObjIndex(int iIndex){this->m_iMayaObjIndex = iIndex;}

  00051	a1 d8 07 00 00	 mov	 eax, DWORD PTR ?g_KanturuMonsterMng@@3VCKanturuMonsterMng@@A+2008
; File c:\users\michel\desktop\source\gameserver\source\kanturubattleofmaya.cpp

; 695  : 	this->SetAIMonsterGroup(this->m_iMayaHandGroupNumber[2]);

  00056	8b ce		 mov	 ecx, esi
; File c:\users\michel\desktop\source\gameserver\source\kanturumaya.h

; 23   : 	void SetMayaObjIndex(int iIndex){this->m_iMayaObjIndex = iIndex;}

  00058	89 86 e0 01 00
	00		 mov	 DWORD PTR [esi+480], eax
; File c:\users\michel\desktop\source\gameserver\source\kanturubattleofmaya.cpp

; 695  : 	this->SetAIMonsterGroup(this->m_iMayaHandGroupNumber[2]);

  0005e	ff b6 20 02 00
	00		 push	 DWORD PTR [esi+544]
  00064	e8 00 00 00 00	 call	 ?SetAIMonsterGroup@CKanturuBattleOfMaya@@QAEXH@Z ; CKanturuBattleOfMaya::SetAIMonsterGroup

; 696  : 	this->m_iMayaLeftHandObjIndex = TMonsterAIGroup::FindGroupLeader(this->m_iMayaHandGroupNumber[2]);

  00069	ff b6 20 02 00
	00		 push	 DWORD PTR [esi+544]
  0006f	e8 00 00 00 00	 call	 ?FindGroupLeader@TMonsterAIGroup@@SAHH@Z ; TMonsterAIGroup::FindGroupLeader
  00074	89 86 f4 01 00
	00		 mov	 DWORD PTR [esi+500], eax

; 697  : 	this->m_iMayaRightHandObjIndex = TMonsterAIGroup::FindGroupMemberObjectIndex(this->m_iMayaHandGroupNumber[2], 1);

  0007a	6a 01		 push	 1
  0007c	ff b6 20 02 00
	00		 push	 DWORD PTR [esi+544]
  00082	e8 00 00 00 00	 call	 ?FindGroupMemberObjectIndex@TMonsterAIGroup@@SAHHH@Z ; TMonsterAIGroup::FindGroupMemberObjectIndex
  00087	83 c4 0c	 add	 esp, 12			; 0000000cH
  0008a	89 86 f8 01 00
	00		 mov	 DWORD PTR [esi+504], eax
  00090	5e		 pop	 esi

; 698  : }

  00091	c3		 ret	 0
?SetState_MAYA3@CKanturuBattleOfMaya@@QAEXXZ ENDP	; CKanturuBattleOfMaya::SetState_MAYA3
_TEXT	ENDS
; Function compile flags: /Ogtp
; File c:\users\michel\desktop\source\gameserver\source\kanturubattleofmaya.cpp
; File c:\users\michel\desktop\source\gameserver\source\kanturubattleofmaya.h
; File c:\users\michel\desktop\source\gameserver\source\kanturustateinfo.h
; File c:\users\michel\desktop\source\gameserver\source\kanturubattleofmaya.cpp
; File c:\users\michel\desktop\source\gameserver\source\kanturumaya.h
; File c:\users\michel\desktop\source\gameserver\source\kanturubattleofmaya.cpp
;	COMDAT ?SetState_START3@CKanturuBattleOfMaya@@QAEXXZ
_TEXT	SEGMENT
?SetState_START3@CKanturuBattleOfMaya@@QAEXXZ PROC	; CKanturuBattleOfMaya::SetState_START3, COMDAT
; _this$ = ecx

; 661  : {

  00000	56		 push	 esi
  00001	8b f1		 mov	 esi, ecx

; 662  : 	LogAddC(5, "[ KANTURU ][ BattleOfMaya ] State(%d) -> START3",

  00003	ff 76 08	 push	 DWORD PTR [esi+8]
  00006	68 00 00 00 00	 push	 OFFSET ??_C@_0DA@DODAEBAG@?$FL?5KANTURU?5?$FN?$FL?5BattleOfMaya?5?$FN?5Stat@
  0000b	6a 05		 push	 5
  0000d	ff 15 00 00 00
	00		 call	 DWORD PTR ?LogAddC@@3P6AXEPADZZA ; LogAddC
  00013	83 c4 0c	 add	 esp, 12			; 0000000cH
; File c:\users\michel\desktop\source\gameserver\source\kanturubattleofmaya.h

; 93   : 	void SetBattleOfMayaState(int iState){this->m_iBattleOfMayaState = iState;}

  00016	c7 46 08 0d 00
	00 00		 mov	 DWORD PTR [esi+8], 13	; 0000000dH

; 94   : 	int GetBattleOfMayaState(){return this->m_iBattleOfMayaState;}
; 95   : 	void SetBattleSceneState(int iScene)
; 96   : 	{
; 97   : 		this->m_iSceneState = iScene;

  0001d	c7 46 0c 02 00
	00 00		 mov	 DWORD PTR [esi+12], 2

; 105  : 	BOOL GetSceneSuccessValue(){return this->m_bIsSceneSuccess;}
; 106  : 	void SetEntrancePermit(BOOL bEntrancePermit){this->m_bEntrancePermit = bEntrancePermit;}

  00024	c7 86 d0 01 00
	00 00 00 00 00	 mov	 DWORD PTR [esi+464], 0

; 98   : 		this->m_bIsSceneSuccess = FALSE;
; 99   : 	}
; 100  : 
; 101  : 	int GetBattleSceneState(){return this->m_iSceneState;}
; 102  : 	void SetSuccessValue(BOOL bIsSuccess){this->m_bIsSucccess = bIsSuccess;}

  0002e	c7 86 d4 01 00
	00 00 00 00 00	 mov	 DWORD PTR [esi+468], 0

; 103  : 	BOOL GetSuccessValue(){return this->m_bIsSucccess;}
; 104  : 	void SetSceneSuccessValue(BOOL bIsSuccess){this->m_bIsSceneSuccess = bIsSuccess;}

  00038	c7 86 d8 01 00
	00 00 00 00 00	 mov	 DWORD PTR [esi+472], 0
; File c:\users\michel\desktop\source\gameserver\source\kanturustateinfo.h

; 56   : 		this->m_dwAppliedTickCount = GetTickCount();

  00042	ff 15 00 00 00
	00		 call	 DWORD PTR __imp__GetTickCount@0
  00048	89 46 48	 mov	 DWORD PTR [esi+72], eax
; File c:\users\michel\desktop\source\gameserver\source\kanturubattleofmaya.cpp

; 672  : 	if ( this->m_BattleTimeInfo[this->m_iSceneState].GetCondition() == 1 )

  0004b	8b 46 0c	 mov	 eax, DWORD PTR [esi+12]
  0004e	8d 04 80	 lea	 eax, DWORD PTR [eax+eax*4]
  00051	83 7c 86 18 01	 cmp	 DWORD PTR [esi+eax*4+24], 1
  00056	75 0e		 jne	 SHORT $LN2@SetState_S

; 673  : 	{
; 674  : 		KANTURU_UTIL.NotifyKanturuBattleTime(this->m_BattleTimeInfo[this->m_iSceneState].GetValue());

  00058	ff 74 86 1c	 push	 DWORD PTR [esi+eax*4+28]
  0005c	b9 00 00 00 00	 mov	 ecx, OFFSET ?KANTURU_UTIL@@3VCKanturuUtil@@A
  00061	e8 00 00 00 00	 call	 ?NotifyKanturuBattleTime@CKanturuUtil@@QAEXH@Z ; CKanturuUtil::NotifyKanturuBattleTime
$LN2@SetState_S:

; 675  : 	}
; 676  : 
; 677  : 	g_KanturuMonsterMng.SetKanturuMonster(1);

  00066	6a 01		 push	 1
  00068	b9 00 00 00 00	 mov	 ecx, OFFSET ?g_KanturuMonsterMng@@3VCKanturuMonsterMng@@A ; g_KanturuMonsterMng
  0006d	e8 00 00 00 00	 call	 ?SetKanturuMonster@CKanturuMonsterMng@@QAEHH@Z ; CKanturuMonsterMng::SetKanturuMonster
; File c:\users\michel\desktop\source\gameserver\source\kanturumaya.h

; 23   : 	void SetMayaObjIndex(int iIndex){this->m_iMayaObjIndex = iIndex;}

  00072	a1 d8 07 00 00	 mov	 eax, DWORD PTR ?g_KanturuMonsterMng@@3VCKanturuMonsterMng@@A+2008
  00077	89 86 e0 01 00
	00		 mov	 DWORD PTR [esi+480], eax
  0007d	5e		 pop	 esi
; File c:\users\michel\desktop\source\gameserver\source\kanturubattleofmaya.cpp

; 679  : }

  0007e	c3		 ret	 0
?SetState_START3@CKanturuBattleOfMaya@@QAEXXZ ENDP	; CKanturuBattleOfMaya::SetState_START3
_TEXT	ENDS
; Function compile flags: /Ogtp
; File c:\users\michel\desktop\source\gameserver\source\kanturubattleofmaya.cpp
; File c:\users\michel\desktop\source\gameserver\source\kanturubattleofmaya.h
; File c:\users\michel\desktop\source\gameserver\source\kanturubattleofmaya.cpp
;	COMDAT ?SetState_STANBY3@CKanturuBattleOfMaya@@QAEXXZ
_TEXT	SEGMENT
?SetState_STANBY3@CKanturuBattleOfMaya@@QAEXXZ PROC	; CKanturuBattleOfMaya::SetState_STANBY3, COMDAT
; _this$ = ecx

; 650  : {

  00000	56		 push	 esi
  00001	8b f1		 mov	 esi, ecx

; 651  : 	LogAddC(5, "[ KANTURU ][ BattleOfMaya ] State(%d) -> STANBY3",

  00003	ff 76 08	 push	 DWORD PTR [esi+8]
  00006	68 00 00 00 00	 push	 OFFSET ??_C@_0DB@IIBEMMHC@?$FL?5KANTURU?5?$FN?$FL?5BattleOfMaya?5?$FN?5Stat@
  0000b	6a 05		 push	 5
  0000d	ff 15 00 00 00
	00		 call	 DWORD PTR ?LogAddC@@3P6AXEPADZZA ; LogAddC
  00013	83 c4 0c	 add	 esp, 12			; 0000000cH
; File c:\users\michel\desktop\source\gameserver\source\kanturubattleofmaya.h

; 93   : 	void SetBattleOfMayaState(int iState){this->m_iBattleOfMayaState = iState;}

  00016	c7 46 08 0c 00
	00 00		 mov	 DWORD PTR [esi+8], 12	; 0000000cH

; 94   : 	int GetBattleOfMayaState(){return this->m_iBattleOfMayaState;}
; 95   : 	void SetBattleSceneState(int iScene)
; 96   : 	{
; 97   : 		this->m_iSceneState = iScene;
; 98   : 		this->m_bIsSceneSuccess = FALSE;
; 99   : 	}
; 100  : 
; 101  : 	int GetBattleSceneState(){return this->m_iSceneState;}
; 102  : 	void SetSuccessValue(BOOL bIsSuccess){this->m_bIsSucccess = bIsSuccess;}
; 103  : 	BOOL GetSuccessValue(){return this->m_bIsSucccess;}
; 104  : 	void SetSceneSuccessValue(BOOL bIsSuccess){this->m_bIsSceneSuccess = bIsSuccess;}
; 105  : 	BOOL GetSceneSuccessValue(){return this->m_bIsSceneSuccess;}
; 106  : 	void SetEntrancePermit(BOOL bEntrancePermit){this->m_bEntrancePermit = bEntrancePermit;}

  0001d	c7 86 d0 01 00
	00 01 00 00 00	 mov	 DWORD PTR [esi+464], 1
  00027	5e		 pop	 esi
; File c:\users\michel\desktop\source\gameserver\source\kanturubattleofmaya.cpp

; 656  : }

  00028	c3		 ret	 0
?SetState_STANBY3@CKanturuBattleOfMaya@@QAEXXZ ENDP	; CKanturuBattleOfMaya::SetState_STANBY3
_TEXT	ENDS
; Function compile flags: /Ogtp
; File c:\users\michel\desktop\source\gameserver\source\kanturubattleofmaya.cpp
; File c:\users\michel\desktop\source\gameserver\source\kanturubattleofmaya.h
; File c:\users\michel\desktop\source\gameserver\source\kanturubattleofmaya.cpp
; File c:\users\michel\desktop\source\gameserver\source\kanturubattleofmaya.h
; File c:\users\michel\desktop\source\gameserver\source\kanturubattleofmaya.cpp
;	COMDAT ?SetState_ENDCYCLE_MAYA2@CKanturuBattleOfMaya@@QAEXXZ
_TEXT	SEGMENT
?SetState_ENDCYCLE_MAYA2@CKanturuBattleOfMaya@@QAEXXZ PROC ; CKanturuBattleOfMaya::SetState_ENDCYCLE_MAYA2, COMDAT
; _this$ = ecx

; 637  : {

  00000	56		 push	 esi
  00001	8b f1		 mov	 esi, ecx

; 638  : 	LogAddC(5, "[ KANTURU ][ BattleOfMaya ] State(%d) -> ENDCYCLE_MAYA2",

  00003	ff 76 08	 push	 DWORD PTR [esi+8]
  00006	68 00 00 00 00	 push	 OFFSET ??_C@_0DI@CLBEDPHE@?$FL?5KANTURU?5?$FN?$FL?5BattleOfMaya?5?$FN?5Stat@
  0000b	6a 05		 push	 5
  0000d	ff 15 00 00 00
	00		 call	 DWORD PTR ?LogAddC@@3P6AXEPADZZA ; LogAddC
  00013	83 c4 0c	 add	 esp, 12			; 0000000cH
; File c:\users\michel\desktop\source\gameserver\source\kanturubattleofmaya.h

; 93   : 	void SetBattleOfMayaState(int iState){this->m_iBattleOfMayaState = iState;}

  00016	c7 46 08 0b 00
	00 00		 mov	 DWORD PTR [esi+8], 11	; 0000000bH
; File c:\users\michel\desktop\source\gameserver\source\kanturubattleofmaya.cpp

; 644  : 	KANTURU_UTIL.SendMsgKauturuMapUser(lMsg.Get(MSGGET(13, 33)));

  0001d	b9 00 00 00 00	 mov	 ecx, OFFSET ?lMsg@@3VMessage@@A ; lMsg
; File c:\users\michel\desktop\source\gameserver\source\kanturubattleofmaya.h

; 106  : 	void SetEntrancePermit(BOOL bEntrancePermit){this->m_bEntrancePermit = bEntrancePermit;}

  00022	c7 86 d0 01 00
	00 00 00 00 00	 mov	 DWORD PTR [esi+464], 0
; File c:\users\michel\desktop\source\gameserver\source\kanturubattleofmaya.cpp

; 644  : 	KANTURU_UTIL.SendMsgKauturuMapUser(lMsg.Get(MSGGET(13, 33)));

  0002c	68 21 0d 00 00	 push	 3361			; 00000d21H
  00031	e8 00 00 00 00	 call	 ?Get@Message@@QAEPADH@Z	; Message::Get
  00036	50		 push	 eax
  00037	68 00 00 00 00	 push	 OFFSET ?KANTURU_UTIL@@3VCKanturuUtil@@A
  0003c	e8 00 00 00 00	 call	 ?SendMsgKauturuMapUser@CKanturuUtil@@QAAXPADZZ ; CKanturuUtil::SendMsgKauturuMapUser
  00041	83 c4 08	 add	 esp, 8
  00044	5e		 pop	 esi

; 645  : }

  00045	c3		 ret	 0
?SetState_ENDCYCLE_MAYA2@CKanturuBattleOfMaya@@QAEXXZ ENDP ; CKanturuBattleOfMaya::SetState_ENDCYCLE_MAYA2
_TEXT	ENDS
; Function compile flags: /Ogtp
; File c:\users\michel\desktop\source\gameserver\source\kanturubattleofmaya.cpp
; File c:\users\michel\desktop\source\gameserver\source\kanturubattleofmaya.h
; File c:\users\michel\desktop\source\gameserver\source\kanturubattleofmaya.cpp
; File c:\users\michel\desktop\source\gameserver\source\kanturubattleofmaya.h
; File c:\users\michel\desktop\source\gameserver\source\kanturubattleofmaya.cpp
;	COMDAT ?SetState_END_MAYA2@CKanturuBattleOfMaya@@QAEXXZ
_TEXT	SEGMENT
?SetState_END_MAYA2@CKanturuBattleOfMaya@@QAEXXZ PROC	; CKanturuBattleOfMaya::SetState_END_MAYA2, COMDAT
; _this$ = ecx

; 624  : {

  00000	56		 push	 esi
  00001	8b f1		 mov	 esi, ecx

; 625  : 	LogAddC(5, "[ KANTURU ][ BattleOfMaya ] State(%d) -> END_MAYA2",

  00003	ff 76 08	 push	 DWORD PTR [esi+8]
  00006	68 00 00 00 00	 push	 OFFSET ??_C@_0DD@HMLJHHNC@?$FL?5KANTURU?5?$FN?$FL?5BattleOfMaya?5?$FN?5Stat@
  0000b	6a 05		 push	 5
  0000d	ff 15 00 00 00
	00		 call	 DWORD PTR ?LogAddC@@3P6AXEPADZZA ; LogAddC
  00013	83 c4 0c	 add	 esp, 12			; 0000000cH
; File c:\users\michel\desktop\source\gameserver\source\kanturubattleofmaya.h

; 97   : 		this->m_iSceneState = iScene;

  00016	c7 46 0c ff ff
	ff ff		 mov	 DWORD PTR [esi+12], -1
; File c:\users\michel\desktop\source\gameserver\source\kanturubattleofmaya.cpp

; 632  : 	KANTURU_UTIL.NotifyKanturuSuccessValue(this->GetSuccessValue());

  0001d	b9 00 00 00 00	 mov	 ecx, OFFSET ?KANTURU_UTIL@@3VCKanturuUtil@@A
; File c:\users\michel\desktop\source\gameserver\source\kanturubattleofmaya.h

; 98   : 		this->m_bIsSceneSuccess = FALSE;

  00022	c7 86 d8 01 00
	00 00 00 00 00	 mov	 DWORD PTR [esi+472], 0

; 93   : 	void SetBattleOfMayaState(int iState){this->m_iBattleOfMayaState = iState;}

  0002c	c7 46 08 0a 00
	00 00		 mov	 DWORD PTR [esi+8], 10	; 0000000aH

; 99   : 	}
; 100  : 
; 101  : 	int GetBattleSceneState(){return this->m_iSceneState;}
; 102  : 	void SetSuccessValue(BOOL bIsSuccess){this->m_bIsSucccess = bIsSuccess;}
; 103  : 	BOOL GetSuccessValue(){return this->m_bIsSucccess;}
; 104  : 	void SetSceneSuccessValue(BOOL bIsSuccess){this->m_bIsSceneSuccess = bIsSuccess;}
; 105  : 	BOOL GetSceneSuccessValue(){return this->m_bIsSceneSuccess;}
; 106  : 	void SetEntrancePermit(BOOL bEntrancePermit){this->m_bEntrancePermit = bEntrancePermit;}

  00033	c7 86 d0 01 00
	00 00 00 00 00	 mov	 DWORD PTR [esi+464], 0
; File c:\users\michel\desktop\source\gameserver\source\kanturubattleofmaya.cpp

; 632  : 	KANTURU_UTIL.NotifyKanturuSuccessValue(this->GetSuccessValue());

  0003d	ff b6 d4 01 00
	00		 push	 DWORD PTR [esi+468]
  00043	e8 00 00 00 00	 call	 ?NotifyKanturuSuccessValue@CKanturuUtil@@QAEXH@Z ; CKanturuUtil::NotifyKanturuSuccessValue
  00048	5e		 pop	 esi

; 633  : }

  00049	c3		 ret	 0
?SetState_END_MAYA2@CKanturuBattleOfMaya@@QAEXXZ ENDP	; CKanturuBattleOfMaya::SetState_END_MAYA2
_TEXT	ENDS
; Function compile flags: /Ogtp
; File c:\users\michel\desktop\source\gameserver\source\kanturubattleofmaya.cpp
; File c:\users\michel\desktop\source\gameserver\source\kanturubattleofmaya.h
; File c:\users\michel\desktop\source\gameserver\source\kanturubattleofmaya.cpp
; File c:\users\michel\desktop\source\gameserver\source\kanturubattleofmaya.h
; File c:\users\michel\desktop\source\gameserver\source\kanturubattleofmaya.cpp
; File c:\users\michel\desktop\source\gameserver\source\kanturumaya.h
; File c:\users\michel\desktop\source\gameserver\source\kanturubattleofmaya.cpp
; File c:\users\michel\desktop\source\gameserver\source\kanturumaya.h
; File c:\users\michel\desktop\source\gameserver\source\kanturubattleofmaya.cpp
;	COMDAT ?SetState_MAYA2@CKanturuBattleOfMaya@@QAEXXZ
_TEXT	SEGMENT
?SetState_MAYA2@CKanturuBattleOfMaya@@QAEXXZ PROC	; CKanturuBattleOfMaya::SetState_MAYA2, COMDAT
; _this$ = ecx

; 607  : {

  00000	56		 push	 esi
  00001	8b f1		 mov	 esi, ecx

; 608  : 	LogAddC(5, "[ KANTURU ][ BattleOfMaya ] State(%d) -> MAYA2",

  00003	ff 76 08	 push	 DWORD PTR [esi+8]
  00006	68 00 00 00 00	 push	 OFFSET ??_C@_0CP@MIFAGJJA@?$FL?5KANTURU?5?$FN?$FL?5BattleOfMaya?5?$FN?5Stat@
  0000b	6a 05		 push	 5
  0000d	ff 15 00 00 00
	00		 call	 DWORD PTR ?LogAddC@@3P6AXEPADZZA ; LogAddC
  00013	83 c4 0c	 add	 esp, 12			; 0000000cH
; File c:\users\michel\desktop\source\gameserver\source\kanturubattleofmaya.h

; 93   : 	void SetBattleOfMayaState(int iState){this->m_iBattleOfMayaState = iState;}

  00016	c7 46 08 09 00
	00 00		 mov	 DWORD PTR [esi+8], 9
; File c:\users\michel\desktop\source\gameserver\source\kanturubattleofmaya.cpp

; 616  : 	g_KanturuMonsterMng.SetKanturuMonster(4);

  0001d	b9 00 00 00 00	 mov	 ecx, OFFSET ?g_KanturuMonsterMng@@3VCKanturuMonsterMng@@A ; g_KanturuMonsterMng
; File c:\users\michel\desktop\source\gameserver\source\kanturubattleofmaya.h

; 106  : 	void SetEntrancePermit(BOOL bEntrancePermit){this->m_bEntrancePermit = bEntrancePermit;}

  00022	c7 86 d0 01 00
	00 00 00 00 00	 mov	 DWORD PTR [esi+464], 0

; 94   : 	int GetBattleOfMayaState(){return this->m_iBattleOfMayaState;}
; 95   : 	void SetBattleSceneState(int iScene)
; 96   : 	{
; 97   : 		this->m_iSceneState = iScene;
; 98   : 		this->m_bIsSceneSuccess = FALSE;
; 99   : 	}
; 100  : 
; 101  : 	int GetBattleSceneState(){return this->m_iSceneState;}
; 102  : 	void SetSuccessValue(BOOL bIsSuccess){this->m_bIsSucccess = bIsSuccess;}

  0002c	c7 86 d4 01 00
	00 00 00 00 00	 mov	 DWORD PTR [esi+468], 0

; 103  : 	BOOL GetSuccessValue(){return this->m_bIsSucccess;}
; 104  : 	void SetSceneSuccessValue(BOOL bIsSuccess){this->m_bIsSceneSuccess = bIsSuccess;}

  00036	c7 86 d8 01 00
	00 00 00 00 00	 mov	 DWORD PTR [esi+472], 0
; File c:\users\michel\desktop\source\gameserver\source\kanturubattleofmaya.cpp

; 616  : 	g_KanturuMonsterMng.SetKanturuMonster(4);

  00040	6a 04		 push	 4
  00042	c7 86 f0 01 00
	00 00 00 00 00	 mov	 DWORD PTR [esi+496], 0
  0004c	e8 00 00 00 00	 call	 ?SetKanturuMonster@CKanturuMonsterMng@@QAEHH@Z ; CKanturuMonsterMng::SetKanturuMonster
; File c:\users\michel\desktop\source\gameserver\source\kanturumaya.h

; 23   : 	void SetMayaObjIndex(int iIndex){this->m_iMayaObjIndex = iIndex;}

  00051	a1 d8 07 00 00	 mov	 eax, DWORD PTR ?g_KanturuMonsterMng@@3VCKanturuMonsterMng@@A+2008
; File c:\users\michel\desktop\source\gameserver\source\kanturubattleofmaya.cpp

; 618  : 	this->SetAIMonsterGroup(this->m_iMayaHandGroupNumber[1]);

  00056	8b ce		 mov	 ecx, esi
; File c:\users\michel\desktop\source\gameserver\source\kanturumaya.h

; 23   : 	void SetMayaObjIndex(int iIndex){this->m_iMayaObjIndex = iIndex;}

  00058	89 86 e0 01 00
	00		 mov	 DWORD PTR [esi+480], eax
; File c:\users\michel\desktop\source\gameserver\source\kanturubattleofmaya.cpp

; 618  : 	this->SetAIMonsterGroup(this->m_iMayaHandGroupNumber[1]);

  0005e	ff b6 1c 02 00
	00		 push	 DWORD PTR [esi+540]
  00064	e8 00 00 00 00	 call	 ?SetAIMonsterGroup@CKanturuBattleOfMaya@@QAEXH@Z ; CKanturuBattleOfMaya::SetAIMonsterGroup

; 619  : 	this->m_iMayaRightHandObjIndex = TMonsterAIGroup::FindGroupLeader(this->m_iMayaHandGroupNumber[1]);

  00069	ff b6 1c 02 00
	00		 push	 DWORD PTR [esi+540]
  0006f	e8 00 00 00 00	 call	 ?FindGroupLeader@TMonsterAIGroup@@SAHH@Z ; TMonsterAIGroup::FindGroupLeader
  00074	83 c4 04	 add	 esp, 4
  00077	89 86 f8 01 00
	00		 mov	 DWORD PTR [esi+504], eax
  0007d	5e		 pop	 esi

; 620  : }

  0007e	c3		 ret	 0
?SetState_MAYA2@CKanturuBattleOfMaya@@QAEXXZ ENDP	; CKanturuBattleOfMaya::SetState_MAYA2
_TEXT	ENDS
; Function compile flags: /Ogtp
; File c:\users\michel\desktop\source\gameserver\source\kanturubattleofmaya.cpp
; File c:\users\michel\desktop\source\gameserver\source\kanturubattleofmaya.h
; File c:\users\michel\desktop\source\gameserver\source\kanturustateinfo.h
; File c:\users\michel\desktop\source\gameserver\source\kanturubattleofmaya.cpp
; File c:\users\michel\desktop\source\gameserver\source\kanturumaya.h
; File c:\users\michel\desktop\source\gameserver\source\kanturubattleofmaya.cpp
;	COMDAT ?SetState_START2@CKanturuBattleOfMaya@@QAEXXZ
_TEXT	SEGMENT
?SetState_START2@CKanturuBattleOfMaya@@QAEXXZ PROC	; CKanturuBattleOfMaya::SetState_START2, COMDAT
; _this$ = ecx

; 584  : {

  00000	56		 push	 esi
  00001	8b f1		 mov	 esi, ecx

; 585  : 	LogAddC(5, "[ KANTURU ][ BattleOfMaya ] State(%d) -> START2",

  00003	ff 76 08	 push	 DWORD PTR [esi+8]
  00006	68 00 00 00 00	 push	 OFFSET ??_C@_0DA@CHCLHAEH@?$FL?5KANTURU?5?$FN?$FL?5BattleOfMaya?5?$FN?5Stat@
  0000b	6a 05		 push	 5
  0000d	ff 15 00 00 00
	00		 call	 DWORD PTR ?LogAddC@@3P6AXEPADZZA ; LogAddC
  00013	83 c4 0c	 add	 esp, 12			; 0000000cH
; File c:\users\michel\desktop\source\gameserver\source\kanturubattleofmaya.h

; 93   : 	void SetBattleOfMayaState(int iState){this->m_iBattleOfMayaState = iState;}

  00016	c7 46 08 08 00
	00 00		 mov	 DWORD PTR [esi+8], 8

; 105  : 	BOOL GetSceneSuccessValue(){return this->m_bIsSceneSuccess;}
; 106  : 	void SetEntrancePermit(BOOL bEntrancePermit){this->m_bEntrancePermit = bEntrancePermit;}

  0001d	c7 86 d0 01 00
	00 00 00 00 00	 mov	 DWORD PTR [esi+464], 0

; 94   : 	int GetBattleOfMayaState(){return this->m_iBattleOfMayaState;}
; 95   : 	void SetBattleSceneState(int iScene)
; 96   : 	{
; 97   : 		this->m_iSceneState = iScene;

  00027	c7 46 0c 01 00
	00 00		 mov	 DWORD PTR [esi+12], 1

; 98   : 		this->m_bIsSceneSuccess = FALSE;
; 99   : 	}
; 100  : 
; 101  : 	int GetBattleSceneState(){return this->m_iSceneState;}
; 102  : 	void SetSuccessValue(BOOL bIsSuccess){this->m_bIsSucccess = bIsSuccess;}

  0002e	c7 86 d4 01 00
	00 00 00 00 00	 mov	 DWORD PTR [esi+468], 0

; 103  : 	BOOL GetSuccessValue(){return this->m_bIsSucccess;}
; 104  : 	void SetSceneSuccessValue(BOOL bIsSuccess){this->m_bIsSceneSuccess = bIsSuccess;}

  00038	c7 86 d8 01 00
	00 00 00 00 00	 mov	 DWORD PTR [esi+472], 0
; File c:\users\michel\desktop\source\gameserver\source\kanturustateinfo.h

; 56   : 		this->m_dwAppliedTickCount = GetTickCount();

  00042	ff 15 00 00 00
	00		 call	 DWORD PTR __imp__GetTickCount@0
  00048	89 46 34	 mov	 DWORD PTR [esi+52], eax
; File c:\users\michel\desktop\source\gameserver\source\kanturubattleofmaya.cpp

; 595  : 	if ( this->m_BattleTimeInfo[this->m_iSceneState].GetCondition() == 1 )

  0004b	8b 46 0c	 mov	 eax, DWORD PTR [esi+12]
  0004e	8d 04 80	 lea	 eax, DWORD PTR [eax+eax*4]
  00051	83 7c 86 18 01	 cmp	 DWORD PTR [esi+eax*4+24], 1
  00056	75 0e		 jne	 SHORT $LN2@SetState_S

; 596  : 	{
; 597  : 		KANTURU_UTIL.NotifyKanturuBattleTime(this->m_BattleTimeInfo[this->m_iSceneState].GetValue());

  00058	ff 74 86 1c	 push	 DWORD PTR [esi+eax*4+28]
  0005c	b9 00 00 00 00	 mov	 ecx, OFFSET ?KANTURU_UTIL@@3VCKanturuUtil@@A
  00061	e8 00 00 00 00	 call	 ?NotifyKanturuBattleTime@CKanturuUtil@@QAEXH@Z ; CKanturuUtil::NotifyKanturuBattleTime
$LN2@SetState_S:

; 598  : 	}
; 599  : 
; 600  : 	g_KanturuMonsterMng.SetKanturuMonster(0);

  00066	6a 00		 push	 0
  00068	b9 00 00 00 00	 mov	 ecx, OFFSET ?g_KanturuMonsterMng@@3VCKanturuMonsterMng@@A ; g_KanturuMonsterMng
  0006d	e8 00 00 00 00	 call	 ?SetKanturuMonster@CKanturuMonsterMng@@QAEHH@Z ; CKanturuMonsterMng::SetKanturuMonster
; File c:\users\michel\desktop\source\gameserver\source\kanturumaya.h

; 23   : 	void SetMayaObjIndex(int iIndex){this->m_iMayaObjIndex = iIndex;}

  00072	a1 d8 07 00 00	 mov	 eax, DWORD PTR ?g_KanturuMonsterMng@@3VCKanturuMonsterMng@@A+2008
  00077	89 86 e0 01 00
	00		 mov	 DWORD PTR [esi+480], eax
  0007d	5e		 pop	 esi
; File c:\users\michel\desktop\source\gameserver\source\kanturubattleofmaya.cpp

; 602  : }

  0007e	c3		 ret	 0
?SetState_START2@CKanturuBattleOfMaya@@QAEXXZ ENDP	; CKanturuBattleOfMaya::SetState_START2
_TEXT	ENDS
; Function compile flags: /Ogtp
; File c:\users\michel\desktop\source\gameserver\source\kanturubattleofmaya.cpp
; File c:\users\michel\desktop\source\gameserver\source\kanturubattleofmaya.h
; File c:\users\michel\desktop\source\gameserver\source\kanturubattleofmaya.cpp
;	COMDAT ?SetState_STANBY2@CKanturuBattleOfMaya@@QAEXXZ
_TEXT	SEGMENT
?SetState_STANBY2@CKanturuBattleOfMaya@@QAEXXZ PROC	; CKanturuBattleOfMaya::SetState_STANBY2, COMDAT
; _this$ = ecx

; 573  : {

  00000	56		 push	 esi
  00001	8b f1		 mov	 esi, ecx

; 574  : 	LogAddC(5, "[ KANTURU ][ BattleOfMaya ] State(%d) -> STANBY2",

  00003	ff 76 08	 push	 DWORD PTR [esi+8]
  00006	68 00 00 00 00	 push	 OFFSET ??_C@_0DB@JBAPPNDD@?$FL?5KANTURU?5?$FN?$FL?5BattleOfMaya?5?$FN?5Stat@
  0000b	6a 05		 push	 5
  0000d	ff 15 00 00 00
	00		 call	 DWORD PTR ?LogAddC@@3P6AXEPADZZA ; LogAddC
  00013	83 c4 0c	 add	 esp, 12			; 0000000cH
; File c:\users\michel\desktop\source\gameserver\source\kanturubattleofmaya.h

; 93   : 	void SetBattleOfMayaState(int iState){this->m_iBattleOfMayaState = iState;}

  00016	c7 46 08 07 00
	00 00		 mov	 DWORD PTR [esi+8], 7

; 94   : 	int GetBattleOfMayaState(){return this->m_iBattleOfMayaState;}
; 95   : 	void SetBattleSceneState(int iScene)
; 96   : 	{
; 97   : 		this->m_iSceneState = iScene;
; 98   : 		this->m_bIsSceneSuccess = FALSE;
; 99   : 	}
; 100  : 
; 101  : 	int GetBattleSceneState(){return this->m_iSceneState;}
; 102  : 	void SetSuccessValue(BOOL bIsSuccess){this->m_bIsSucccess = bIsSuccess;}
; 103  : 	BOOL GetSuccessValue(){return this->m_bIsSucccess;}
; 104  : 	void SetSceneSuccessValue(BOOL bIsSuccess){this->m_bIsSceneSuccess = bIsSuccess;}
; 105  : 	BOOL GetSceneSuccessValue(){return this->m_bIsSceneSuccess;}
; 106  : 	void SetEntrancePermit(BOOL bEntrancePermit){this->m_bEntrancePermit = bEntrancePermit;}

  0001d	c7 86 d0 01 00
	00 01 00 00 00	 mov	 DWORD PTR [esi+464], 1
  00027	5e		 pop	 esi
; File c:\users\michel\desktop\source\gameserver\source\kanturubattleofmaya.cpp

; 579  : }

  00028	c3		 ret	 0
?SetState_STANBY2@CKanturuBattleOfMaya@@QAEXXZ ENDP	; CKanturuBattleOfMaya::SetState_STANBY2
_TEXT	ENDS
; Function compile flags: /Ogtp
; File c:\users\michel\desktop\source\gameserver\source\kanturubattleofmaya.cpp
; File c:\users\michel\desktop\source\gameserver\source\kanturubattleofmaya.h
; File c:\users\michel\desktop\source\gameserver\source\kanturubattleofmaya.cpp
; File c:\users\michel\desktop\source\gameserver\source\kanturubattleofmaya.h
; File c:\users\michel\desktop\source\gameserver\source\kanturubattleofmaya.cpp
;	COMDAT ?SetState_ENDCYCLE_MAYA1@CKanturuBattleOfMaya@@QAEXXZ
_TEXT	SEGMENT
?SetState_ENDCYCLE_MAYA1@CKanturuBattleOfMaya@@QAEXXZ PROC ; CKanturuBattleOfMaya::SetState_ENDCYCLE_MAYA1, COMDAT
; _this$ = ecx

; 560  : {

  00000	56		 push	 esi
  00001	8b f1		 mov	 esi, ecx

; 561  : 	LogAddC(5, "[ KANTURU ][ BattleOfMaya ] State(%d) -> ENDCYCLE_MAYA1",

  00003	ff 76 08	 push	 DWORD PTR [esi+8]
  00006	68 00 00 00 00	 push	 OFFSET ??_C@_0DI@DJGMLH@?$FL?5KANTURU?5?$FN?$FL?5BattleOfMaya?5?$FN?5Stat@
  0000b	6a 05		 push	 5
  0000d	ff 15 00 00 00
	00		 call	 DWORD PTR ?LogAddC@@3P6AXEPADZZA ; LogAddC
  00013	83 c4 0c	 add	 esp, 12			; 0000000cH
; File c:\users\michel\desktop\source\gameserver\source\kanturubattleofmaya.h

; 93   : 	void SetBattleOfMayaState(int iState){this->m_iBattleOfMayaState = iState;}

  00016	c7 46 08 06 00
	00 00		 mov	 DWORD PTR [esi+8], 6
; File c:\users\michel\desktop\source\gameserver\source\kanturubattleofmaya.cpp

; 567  : 	KANTURU_UTIL.SendMsgKauturuMapUser(lMsg.Get(MSGGET(13, 33)));

  0001d	b9 00 00 00 00	 mov	 ecx, OFFSET ?lMsg@@3VMessage@@A ; lMsg
; File c:\users\michel\desktop\source\gameserver\source\kanturubattleofmaya.h

; 106  : 	void SetEntrancePermit(BOOL bEntrancePermit){this->m_bEntrancePermit = bEntrancePermit;}

  00022	c7 86 d0 01 00
	00 00 00 00 00	 mov	 DWORD PTR [esi+464], 0
; File c:\users\michel\desktop\source\gameserver\source\kanturubattleofmaya.cpp

; 567  : 	KANTURU_UTIL.SendMsgKauturuMapUser(lMsg.Get(MSGGET(13, 33)));

  0002c	68 21 0d 00 00	 push	 3361			; 00000d21H
  00031	e8 00 00 00 00	 call	 ?Get@Message@@QAEPADH@Z	; Message::Get
  00036	50		 push	 eax
  00037	68 00 00 00 00	 push	 OFFSET ?KANTURU_UTIL@@3VCKanturuUtil@@A
  0003c	e8 00 00 00 00	 call	 ?SendMsgKauturuMapUser@CKanturuUtil@@QAAXPADZZ ; CKanturuUtil::SendMsgKauturuMapUser
  00041	83 c4 08	 add	 esp, 8
  00044	5e		 pop	 esi

; 568  : }

  00045	c3		 ret	 0
?SetState_ENDCYCLE_MAYA1@CKanturuBattleOfMaya@@QAEXXZ ENDP ; CKanturuBattleOfMaya::SetState_ENDCYCLE_MAYA1
_TEXT	ENDS
; Function compile flags: /Ogtp
; File c:\users\michel\desktop\source\gameserver\source\kanturubattleofmaya.cpp
; File c:\users\michel\desktop\source\gameserver\source\kanturubattleofmaya.h
; File c:\users\michel\desktop\source\gameserver\source\kanturubattleofmaya.cpp
; File c:\users\michel\desktop\source\gameserver\source\kanturubattleofmaya.h
; File c:\users\michel\desktop\source\gameserver\source\kanturubattleofmaya.cpp
;	COMDAT ?SetState_END_MAYA1@CKanturuBattleOfMaya@@QAEXXZ
_TEXT	SEGMENT
?SetState_END_MAYA1@CKanturuBattleOfMaya@@QAEXXZ PROC	; CKanturuBattleOfMaya::SetState_END_MAYA1, COMDAT
; _this$ = ecx

; 547  : {

  00000	56		 push	 esi
  00001	8b f1		 mov	 esi, ecx

; 548  : 	LogAddC(5, "[ KANTURU ][ BattleOfMaya ] State(%d) -> END_MAYA1",

  00003	ff 76 08	 push	 DWORD PTR [esi+8]
  00006	68 00 00 00 00	 push	 OFFSET ??_C@_0DD@FHJECEBB@?$FL?5KANTURU?5?$FN?$FL?5BattleOfMaya?5?$FN?5Stat@
  0000b	6a 05		 push	 5
  0000d	ff 15 00 00 00
	00		 call	 DWORD PTR ?LogAddC@@3P6AXEPADZZA ; LogAddC
  00013	83 c4 0c	 add	 esp, 12			; 0000000cH
; File c:\users\michel\desktop\source\gameserver\source\kanturubattleofmaya.h

; 97   : 		this->m_iSceneState = iScene;

  00016	c7 46 0c ff ff
	ff ff		 mov	 DWORD PTR [esi+12], -1
; File c:\users\michel\desktop\source\gameserver\source\kanturubattleofmaya.cpp

; 555  : 	KANTURU_UTIL.NotifyKanturuSuccessValue(this->GetSuccessValue());

  0001d	b9 00 00 00 00	 mov	 ecx, OFFSET ?KANTURU_UTIL@@3VCKanturuUtil@@A
; File c:\users\michel\desktop\source\gameserver\source\kanturubattleofmaya.h

; 98   : 		this->m_bIsSceneSuccess = FALSE;

  00022	c7 86 d8 01 00
	00 00 00 00 00	 mov	 DWORD PTR [esi+472], 0

; 93   : 	void SetBattleOfMayaState(int iState){this->m_iBattleOfMayaState = iState;}

  0002c	c7 46 08 05 00
	00 00		 mov	 DWORD PTR [esi+8], 5

; 99   : 	}
; 100  : 
; 101  : 	int GetBattleSceneState(){return this->m_iSceneState;}
; 102  : 	void SetSuccessValue(BOOL bIsSuccess){this->m_bIsSucccess = bIsSuccess;}
; 103  : 	BOOL GetSuccessValue(){return this->m_bIsSucccess;}
; 104  : 	void SetSceneSuccessValue(BOOL bIsSuccess){this->m_bIsSceneSuccess = bIsSuccess;}
; 105  : 	BOOL GetSceneSuccessValue(){return this->m_bIsSceneSuccess;}
; 106  : 	void SetEntrancePermit(BOOL bEntrancePermit){this->m_bEntrancePermit = bEntrancePermit;}

  00033	c7 86 d0 01 00
	00 00 00 00 00	 mov	 DWORD PTR [esi+464], 0
; File c:\users\michel\desktop\source\gameserver\source\kanturubattleofmaya.cpp

; 555  : 	KANTURU_UTIL.NotifyKanturuSuccessValue(this->GetSuccessValue());

  0003d	ff b6 d4 01 00
	00		 push	 DWORD PTR [esi+468]
  00043	e8 00 00 00 00	 call	 ?NotifyKanturuSuccessValue@CKanturuUtil@@QAEXH@Z ; CKanturuUtil::NotifyKanturuSuccessValue
  00048	5e		 pop	 esi

; 556  : }

  00049	c3		 ret	 0
?SetState_END_MAYA1@CKanturuBattleOfMaya@@QAEXXZ ENDP	; CKanturuBattleOfMaya::SetState_END_MAYA1
_TEXT	ENDS
; Function compile flags: /Ogtp
; File c:\users\michel\desktop\source\gameserver\source\kanturubattleofmaya.cpp
; File c:\users\michel\desktop\source\gameserver\source\kanturubattleofmaya.h
; File c:\users\michel\desktop\source\gameserver\source\kanturubattleofmaya.cpp
; File c:\users\michel\desktop\source\gameserver\source\kanturubattleofmaya.h
; File c:\users\michel\desktop\source\gameserver\source\kanturubattleofmaya.cpp
; File c:\users\michel\desktop\source\gameserver\source\kanturumaya.h
; File c:\users\michel\desktop\source\gameserver\source\kanturubattleofmaya.cpp
; File c:\users\michel\desktop\source\gameserver\source\kanturumaya.h
; File c:\users\michel\desktop\source\gameserver\source\kanturubattleofmaya.cpp
;	COMDAT ?SetState_MAYA1@CKanturuBattleOfMaya@@QAEXXZ
_TEXT	SEGMENT
?SetState_MAYA1@CKanturuBattleOfMaya@@QAEXXZ PROC	; CKanturuBattleOfMaya::SetState_MAYA1, COMDAT
; _this$ = ecx

; 529  : {

  00000	56		 push	 esi
  00001	8b f1		 mov	 esi, ecx

; 530  : 	LogAddC(5, "[ KANTURU ][ BattleOfMaya ] State(%d) -> MAYA1",

  00003	ff 76 08	 push	 DWORD PTR [esi+8]
  00006	68 00 00 00 00	 push	 OFFSET ??_C@_0CP@ODHNDKFD@?$FL?5KANTURU?5?$FN?$FL?5BattleOfMaya?5?$FN?5Stat@
  0000b	6a 05		 push	 5
  0000d	ff 15 00 00 00
	00		 call	 DWORD PTR ?LogAddC@@3P6AXEPADZZA ; LogAddC
  00013	83 c4 0c	 add	 esp, 12			; 0000000cH
; File c:\users\michel\desktop\source\gameserver\source\kanturubattleofmaya.h

; 93   : 	void SetBattleOfMayaState(int iState){this->m_iBattleOfMayaState = iState;}

  00016	c7 46 08 04 00
	00 00		 mov	 DWORD PTR [esi+8], 4
; File c:\users\michel\desktop\source\gameserver\source\kanturubattleofmaya.cpp

; 538  : 	g_KanturuMonsterMng.SetKanturuMonster(3);

  0001d	b9 00 00 00 00	 mov	 ecx, OFFSET ?g_KanturuMonsterMng@@3VCKanturuMonsterMng@@A ; g_KanturuMonsterMng
; File c:\users\michel\desktop\source\gameserver\source\kanturubattleofmaya.h

; 106  : 	void SetEntrancePermit(BOOL bEntrancePermit){this->m_bEntrancePermit = bEntrancePermit;}

  00022	c7 86 d0 01 00
	00 00 00 00 00	 mov	 DWORD PTR [esi+464], 0

; 94   : 	int GetBattleOfMayaState(){return this->m_iBattleOfMayaState;}
; 95   : 	void SetBattleSceneState(int iScene)
; 96   : 	{
; 97   : 		this->m_iSceneState = iScene;
; 98   : 		this->m_bIsSceneSuccess = FALSE;
; 99   : 	}
; 100  : 
; 101  : 	int GetBattleSceneState(){return this->m_iSceneState;}
; 102  : 	void SetSuccessValue(BOOL bIsSuccess){this->m_bIsSucccess = bIsSuccess;}

  0002c	c7 86 d4 01 00
	00 00 00 00 00	 mov	 DWORD PTR [esi+468], 0

; 103  : 	BOOL GetSuccessValue(){return this->m_bIsSucccess;}
; 104  : 	void SetSceneSuccessValue(BOOL bIsSuccess){this->m_bIsSceneSuccess = bIsSuccess;}

  00036	c7 86 d8 01 00
	00 00 00 00 00	 mov	 DWORD PTR [esi+472], 0
; File c:\users\michel\desktop\source\gameserver\source\kanturubattleofmaya.cpp

; 538  : 	g_KanturuMonsterMng.SetKanturuMonster(3);

  00040	6a 03		 push	 3
  00042	c7 86 f0 01 00
	00 00 00 00 00	 mov	 DWORD PTR [esi+496], 0
  0004c	e8 00 00 00 00	 call	 ?SetKanturuMonster@CKanturuMonsterMng@@QAEHH@Z ; CKanturuMonsterMng::SetKanturuMonster
; File c:\users\michel\desktop\source\gameserver\source\kanturumaya.h

; 23   : 	void SetMayaObjIndex(int iIndex){this->m_iMayaObjIndex = iIndex;}

  00051	a1 d8 07 00 00	 mov	 eax, DWORD PTR ?g_KanturuMonsterMng@@3VCKanturuMonsterMng@@A+2008
; File c:\users\michel\desktop\source\gameserver\source\kanturubattleofmaya.cpp

; 540  : 	this->SetAIMonsterGroup(this->m_iMayaHandGroupNumber[0]);

  00056	8b ce		 mov	 ecx, esi
; File c:\users\michel\desktop\source\gameserver\source\kanturumaya.h

; 23   : 	void SetMayaObjIndex(int iIndex){this->m_iMayaObjIndex = iIndex;}

  00058	89 86 e0 01 00
	00		 mov	 DWORD PTR [esi+480], eax
; File c:\users\michel\desktop\source\gameserver\source\kanturubattleofmaya.cpp

; 540  : 	this->SetAIMonsterGroup(this->m_iMayaHandGroupNumber[0]);

  0005e	ff b6 18 02 00
	00		 push	 DWORD PTR [esi+536]
  00064	e8 00 00 00 00	 call	 ?SetAIMonsterGroup@CKanturuBattleOfMaya@@QAEXH@Z ; CKanturuBattleOfMaya::SetAIMonsterGroup

; 541  : 	this->m_iMayaLeftHandObjIndex = TMonsterAIGroup::FindGroupLeader(this->m_iMayaHandGroupNumber[0]);

  00069	ff b6 18 02 00
	00		 push	 DWORD PTR [esi+536]
  0006f	e8 00 00 00 00	 call	 ?FindGroupLeader@TMonsterAIGroup@@SAHH@Z ; TMonsterAIGroup::FindGroupLeader
  00074	83 c4 04	 add	 esp, 4
  00077	89 86 f4 01 00
	00		 mov	 DWORD PTR [esi+500], eax
  0007d	5e		 pop	 esi

; 542  : }

  0007e	c3		 ret	 0
?SetState_MAYA1@CKanturuBattleOfMaya@@QAEXXZ ENDP	; CKanturuBattleOfMaya::SetState_MAYA1
_TEXT	ENDS
; Function compile flags: /Ogtp
; File c:\users\michel\desktop\source\gameserver\source\kanturubattleofmaya.cpp
; File c:\users\michel\desktop\source\gameserver\source\kanturubattleofmaya.h
; File c:\users\michel\desktop\source\gameserver\source\kanturustateinfo.h
; File c:\users\michel\desktop\source\gameserver\source\kanturubattleofmaya.cpp
; File c:\users\michel\desktop\source\gameserver\source\kanturumaya.h
; File c:\users\michel\desktop\source\gameserver\source\kanturubattleofmaya.cpp
;	COMDAT ?SetState_START1@CKanturuBattleOfMaya@@QAEXXZ
_TEXT	SEGMENT
?SetState_START1@CKanturuBattleOfMaya@@QAEXXZ PROC	; CKanturuBattleOfMaya::SetState_START1, COMDAT
; _this$ = ecx

; 507  : {

  00000	56		 push	 esi
  00001	8b f1		 mov	 esi, ecx

; 508  : 	LogAddC(5, "[ KANTURU ][ BattleOfMaya ] State(%d) -> START1",

  00003	ff 76 08	 push	 DWORD PTR [esi+8]
  00006	68 00 00 00 00	 push	 OFFSET ??_C@_0DA@MAGCDIE@?$FL?5KANTURU?5?$FN?$FL?5BattleOfMaya?5?$FN?5Stat@
  0000b	6a 05		 push	 5
  0000d	ff 15 00 00 00
	00		 call	 DWORD PTR ?LogAddC@@3P6AXEPADZZA ; LogAddC
  00013	83 c4 0c	 add	 esp, 12			; 0000000cH
; File c:\users\michel\desktop\source\gameserver\source\kanturubattleofmaya.h

; 93   : 	void SetBattleOfMayaState(int iState){this->m_iBattleOfMayaState = iState;}

  00016	c7 46 08 03 00
	00 00		 mov	 DWORD PTR [esi+8], 3

; 94   : 	int GetBattleOfMayaState(){return this->m_iBattleOfMayaState;}
; 95   : 	void SetBattleSceneState(int iScene)
; 96   : 	{
; 97   : 		this->m_iSceneState = iScene;

  0001d	c7 46 0c 00 00
	00 00		 mov	 DWORD PTR [esi+12], 0

; 105  : 	BOOL GetSceneSuccessValue(){return this->m_bIsSceneSuccess;}
; 106  : 	void SetEntrancePermit(BOOL bEntrancePermit){this->m_bEntrancePermit = bEntrancePermit;}

  00024	c7 86 d0 01 00
	00 00 00 00 00	 mov	 DWORD PTR [esi+464], 0

; 98   : 		this->m_bIsSceneSuccess = FALSE;
; 99   : 	}
; 100  : 
; 101  : 	int GetBattleSceneState(){return this->m_iSceneState;}
; 102  : 	void SetSuccessValue(BOOL bIsSuccess){this->m_bIsSucccess = bIsSuccess;}

  0002e	c7 86 d4 01 00
	00 00 00 00 00	 mov	 DWORD PTR [esi+468], 0

; 103  : 	BOOL GetSuccessValue(){return this->m_bIsSucccess;}
; 104  : 	void SetSceneSuccessValue(BOOL bIsSuccess){this->m_bIsSceneSuccess = bIsSuccess;}

  00038	c7 86 d8 01 00
	00 00 00 00 00	 mov	 DWORD PTR [esi+472], 0
; File c:\users\michel\desktop\source\gameserver\source\kanturustateinfo.h

; 56   : 		this->m_dwAppliedTickCount = GetTickCount();

  00042	ff 15 00 00 00
	00		 call	 DWORD PTR __imp__GetTickCount@0
  00048	89 46 20	 mov	 DWORD PTR [esi+32], eax
; File c:\users\michel\desktop\source\gameserver\source\kanturubattleofmaya.cpp

; 518  : 	if ( this->m_BattleTimeInfo[this->m_iSceneState].GetCondition() == 1 )

  0004b	8b 46 0c	 mov	 eax, DWORD PTR [esi+12]
  0004e	8d 04 80	 lea	 eax, DWORD PTR [eax+eax*4]
  00051	83 7c 86 18 01	 cmp	 DWORD PTR [esi+eax*4+24], 1
  00056	75 0e		 jne	 SHORT $LN2@SetState_S

; 519  : 	{
; 520  : 		KANTURU_UTIL.NotifyKanturuBattleTime(this->m_BattleTimeInfo[this->m_iSceneState].GetValue());

  00058	ff 74 86 1c	 push	 DWORD PTR [esi+eax*4+28]
  0005c	b9 00 00 00 00	 mov	 ecx, OFFSET ?KANTURU_UTIL@@3VCKanturuUtil@@A
  00061	e8 00 00 00 00	 call	 ?NotifyKanturuBattleTime@CKanturuUtil@@QAEXH@Z ; CKanturuUtil::NotifyKanturuBattleTime
$LN2@SetState_S:

; 521  : 	}
; 522  : 
; 523  : 	g_KanturuMonsterMng.SetKanturuMonster(0);

  00066	6a 00		 push	 0
  00068	b9 00 00 00 00	 mov	 ecx, OFFSET ?g_KanturuMonsterMng@@3VCKanturuMonsterMng@@A ; g_KanturuMonsterMng
  0006d	e8 00 00 00 00	 call	 ?SetKanturuMonster@CKanturuMonsterMng@@QAEHH@Z ; CKanturuMonsterMng::SetKanturuMonster
; File c:\users\michel\desktop\source\gameserver\source\kanturumaya.h

; 23   : 	void SetMayaObjIndex(int iIndex){this->m_iMayaObjIndex = iIndex;}

  00072	a1 d8 07 00 00	 mov	 eax, DWORD PTR ?g_KanturuMonsterMng@@3VCKanturuMonsterMng@@A+2008
  00077	89 86 e0 01 00
	00		 mov	 DWORD PTR [esi+480], eax
  0007d	5e		 pop	 esi
; File c:\users\michel\desktop\source\gameserver\source\kanturubattleofmaya.cpp

; 525  : }

  0007e	c3		 ret	 0
?SetState_START1@CKanturuBattleOfMaya@@QAEXXZ ENDP	; CKanturuBattleOfMaya::SetState_START1
_TEXT	ENDS
; Function compile flags: /Ogtp
; File c:\users\michel\desktop\source\gameserver\source\kanturubattleofmaya.cpp
; File c:\users\michel\desktop\source\gameserver\source\kanturubattleofmaya.h
; File c:\users\michel\desktop\source\gameserver\source\kanturubattleofmaya.cpp
;	COMDAT ?SetState_NOTIFY1@CKanturuBattleOfMaya@@QAEXXZ
_TEXT	SEGMENT
?SetState_NOTIFY1@CKanturuBattleOfMaya@@QAEXXZ PROC	; CKanturuBattleOfMaya::SetState_NOTIFY1, COMDAT
; _this$ = ecx

; 496  : {

  00000	56		 push	 esi
  00001	8b f1		 mov	 esi, ecx

; 497  : 	LogAddC(5, "[ KANTURU ][ BattleOfMaya ] State(%d) -> NOTIFY1",

  00003	ff 76 08	 push	 DWORD PTR [esi+8]
  00006	68 00 00 00 00	 push	 OFFSET ??_C@_0DB@FGBMJKFB@?$FL?5KANTURU?5?$FN?$FL?5BattleOfMaya?5?$FN?5Stat@
  0000b	6a 05		 push	 5
  0000d	ff 15 00 00 00
	00		 call	 DWORD PTR ?LogAddC@@3P6AXEPADZZA ; LogAddC
  00013	83 c4 0c	 add	 esp, 12			; 0000000cH
; File c:\users\michel\desktop\source\gameserver\source\kanturubattleofmaya.h

; 93   : 	void SetBattleOfMayaState(int iState){this->m_iBattleOfMayaState = iState;}

  00016	c7 46 08 02 00
	00 00		 mov	 DWORD PTR [esi+8], 2

; 94   : 	int GetBattleOfMayaState(){return this->m_iBattleOfMayaState;}
; 95   : 	void SetBattleSceneState(int iScene)
; 96   : 	{
; 97   : 		this->m_iSceneState = iScene;
; 98   : 		this->m_bIsSceneSuccess = FALSE;
; 99   : 	}
; 100  : 
; 101  : 	int GetBattleSceneState(){return this->m_iSceneState;}
; 102  : 	void SetSuccessValue(BOOL bIsSuccess){this->m_bIsSucccess = bIsSuccess;}
; 103  : 	BOOL GetSuccessValue(){return this->m_bIsSucccess;}
; 104  : 	void SetSceneSuccessValue(BOOL bIsSuccess){this->m_bIsSceneSuccess = bIsSuccess;}
; 105  : 	BOOL GetSceneSuccessValue(){return this->m_bIsSceneSuccess;}
; 106  : 	void SetEntrancePermit(BOOL bEntrancePermit){this->m_bEntrancePermit = bEntrancePermit;}

  0001d	c7 86 d0 01 00
	00 00 00 00 00	 mov	 DWORD PTR [esi+464], 0
  00027	5e		 pop	 esi
; File c:\users\michel\desktop\source\gameserver\source\kanturubattleofmaya.cpp

; 502  : }

  00028	c3		 ret	 0
?SetState_NOTIFY1@CKanturuBattleOfMaya@@QAEXXZ ENDP	; CKanturuBattleOfMaya::SetState_NOTIFY1
_TEXT	ENDS
; Function compile flags: /Ogtp
; File c:\users\michel\desktop\source\gameserver\source\kanturubattleofmaya.cpp
; File c:\users\michel\desktop\source\gameserver\source\kanturubattleofmaya.h
; File c:\users\michel\desktop\source\gameserver\source\kanturubattleofmaya.cpp
; File c:\users\michel\desktop\source\gameserver\source\kanturubattleofmaya.h
; File c:\users\michel\desktop\source\gameserver\source\kanturubattleofmaya.cpp
;	COMDAT ?SetState_STANBY1@CKanturuBattleOfMaya@@QAEXXZ
_TEXT	SEGMENT
?SetState_STANBY1@CKanturuBattleOfMaya@@QAEXXZ PROC	; CKanturuBattleOfMaya::SetState_STANBY1, COMDAT
; _this$ = ecx

; 483  : {

  00000	56		 push	 esi
  00001	8b f1		 mov	 esi, ecx

; 484  : 	LogAddC(5, "[ KANTURU ][ BattleOfMaya ] State(%d) -> STANBY1",

  00003	ff 76 08	 push	 DWORD PTR [esi+8]
  00006	68 00 00 00 00	 push	 OFFSET ??_C@_0DB@LKCCKOPA@?$FL?5KANTURU?5?$FN?$FL?5BattleOfMaya?5?$FN?5Stat@
  0000b	6a 05		 push	 5
  0000d	ff 15 00 00 00
	00		 call	 DWORD PTR ?LogAddC@@3P6AXEPADZZA ; LogAddC

; 485  : 		this->m_iBattleOfMayaState);
; 486  : 	LogAddTD("[ KANTURU ][ BattleOfMaya ] State(%d) -> STANBY1",

  00013	ff 76 08	 push	 DWORD PTR [esi+8]
  00016	68 00 00 00 00	 push	 OFFSET ??_C@_0DB@LKCCKOPA@?$FL?5KANTURU?5?$FN?$FL?5BattleOfMaya?5?$FN?5Stat@
  0001b	ff 15 00 00 00
	00		 call	 DWORD PTR ?LogAddTD@@3P6AXPADZZA ; LogAddTD
  00021	83 c4 14	 add	 esp, 20			; 00000014H
; File c:\users\michel\desktop\source\gameserver\source\kanturubattleofmaya.h

; 93   : 	void SetBattleOfMayaState(int iState){this->m_iBattleOfMayaState = iState;}

  00024	c7 46 08 01 00
	00 00		 mov	 DWORD PTR [esi+8], 1
; File c:\users\michel\desktop\source\gameserver\source\kanturubattleofmaya.cpp

; 490  : 	g_KanturuBattleUserMng.ResetAllData();

  0002b	b9 00 00 00 00	 mov	 ecx, OFFSET ?g_KanturuBattleUserMng@@3VCKanturuBattleUserMng@@A ; g_KanturuBattleUserMng
  00030	e8 00 00 00 00	 call	 ?ResetAllData@CKanturuBattleUserMng@@QAEXXZ ; CKanturuBattleUserMng::ResetAllData
; File c:\users\michel\desktop\source\gameserver\source\kanturubattleofmaya.h

; 106  : 	void SetEntrancePermit(BOOL bEntrancePermit){this->m_bEntrancePermit = bEntrancePermit;}

  00035	c7 86 d0 01 00
	00 01 00 00 00	 mov	 DWORD PTR [esi+464], 1
  0003f	5e		 pop	 esi
; File c:\users\michel\desktop\source\gameserver\source\kanturubattleofmaya.cpp

; 492  : }

  00040	c3		 ret	 0
?SetState_STANBY1@CKanturuBattleOfMaya@@QAEXXZ ENDP	; CKanturuBattleOfMaya::SetState_STANBY1
_TEXT	ENDS
; Function compile flags: /Ogtp
; File c:\users\michel\desktop\source\gameserver\source\kanturubattleofmaya.cpp
; File c:\users\michel\desktop\source\gameserver\source\kanturubattleofmaya.h
; File c:\users\michel\desktop\source\gameserver\source\kanturubattleofmaya.cpp
;	COMDAT ?SetState_NONE@CKanturuBattleOfMaya@@QAEXXZ
_TEXT	SEGMENT
?SetState_NONE@CKanturuBattleOfMaya@@QAEXXZ PROC	; CKanturuBattleOfMaya::SetState_NONE, COMDAT
; _this$ = ecx

; 473  : {

  00000	56		 push	 esi
  00001	8b f1		 mov	 esi, ecx

; 474  : 	LogAddC(5, "[ KANTURU ][ BattleOfMaya ] State(%d) -> NONE",

  00003	ff 76 08	 push	 DWORD PTR [esi+8]
  00006	68 00 00 00 00	 push	 OFFSET ??_C@_0CO@JFJFDMKA@?$FL?5KANTURU?5?$FN?$FL?5BattleOfMaya?5?$FN?5Stat@
  0000b	6a 05		 push	 5
  0000d	ff 15 00 00 00
	00		 call	 DWORD PTR ?LogAddC@@3P6AXEPADZZA ; LogAddC
  00013	83 c4 0c	 add	 esp, 12			; 0000000cH
; File c:\users\michel\desktop\source\gameserver\source\kanturubattleofmaya.h

; 93   : 	void SetBattleOfMayaState(int iState){this->m_iBattleOfMayaState = iState;}

  00016	c7 46 08 00 00
	00 00		 mov	 DWORD PTR [esi+8], 0

; 94   : 	int GetBattleOfMayaState(){return this->m_iBattleOfMayaState;}
; 95   : 	void SetBattleSceneState(int iScene)
; 96   : 	{
; 97   : 		this->m_iSceneState = iScene;
; 98   : 		this->m_bIsSceneSuccess = FALSE;
; 99   : 	}
; 100  : 
; 101  : 	int GetBattleSceneState(){return this->m_iSceneState;}
; 102  : 	void SetSuccessValue(BOOL bIsSuccess){this->m_bIsSucccess = bIsSuccess;}
; 103  : 	BOOL GetSuccessValue(){return this->m_bIsSucccess;}
; 104  : 	void SetSceneSuccessValue(BOOL bIsSuccess){this->m_bIsSceneSuccess = bIsSuccess;}
; 105  : 	BOOL GetSceneSuccessValue(){return this->m_bIsSceneSuccess;}
; 106  : 	void SetEntrancePermit(BOOL bEntrancePermit){this->m_bEntrancePermit = bEntrancePermit;}

  0001d	c7 86 d0 01 00
	00 00 00 00 00	 mov	 DWORD PTR [esi+464], 0
  00027	5e		 pop	 esi
; File c:\users\michel\desktop\source\gameserver\source\kanturubattleofmaya.cpp

; 479  : }

  00028	c3		 ret	 0
?SetState_NONE@CKanturuBattleOfMaya@@QAEXXZ ENDP	; CKanturuBattleOfMaya::SetState_NONE
_TEXT	ENDS
; Function compile flags: /Ogtp
; File c:\users\michel\desktop\source\gameserver\source\kanturubattleofmaya.cpp
;	COMDAT ?SetNextState@CKanturuBattleOfMaya@@QAEXH@Z
_TEXT	SEGMENT
_iCurrentState$ = 8					; size = 4
?SetNextState@CKanturuBattleOfMaya@@QAEXH@Z PROC	; CKanturuBattleOfMaya::SetNextState, COMDAT
; _this$ = ecx

; 460  : {

  00000	55		 push	 ebp
  00001	8b ec		 mov	 ebp, esp

; 461  : 	int iNextState = iCurrentState + 1;

  00003	8b 45 08	 mov	 eax, DWORD PTR _iCurrentState$[ebp]

; 462  : 
; 463  : 	if ( iNextState >= KANTURU_MAYA_STATE_INFO )

  00006	33 d2		 xor	 edx, edx
  00008	40		 inc	 eax
  00009	83 f8 13	 cmp	 eax, 19			; 00000013H
  0000c	0f 4d c2	 cmovge	 eax, edx

; 464  : 	{
; 465  : 		iNextState = KANTURU_MAYA_NONE;
; 466  : 	}
; 467  : 
; 468  : 	this->SetState(iNextState);

  0000f	89 45 08	 mov	 DWORD PTR _iCurrentState$[ebp], eax

; 469  : }

  00012	5d		 pop	 ebp

; 464  : 	{
; 465  : 		iNextState = KANTURU_MAYA_NONE;
; 466  : 	}
; 467  : 
; 468  : 	this->SetState(iNextState);

  00013	e9 00 00 00 00	 jmp	 ?SetState@CKanturuBattleOfMaya@@QAEXH@Z ; CKanturuBattleOfMaya::SetState
?SetNextState@CKanturuBattleOfMaya@@QAEXH@Z ENDP	; CKanturuBattleOfMaya::SetNextState
_TEXT	ENDS
; Function compile flags: /Ogtp
; File c:\users\michel\desktop\source\gameserver\source\kanturubattleofmaya.cpp
; File c:\users\michel\desktop\source\gameserver\source\kanturustateinfo.h
; File c:\users\michel\desktop\source\gameserver\source\kanturubattleofmaya.cpp
; File c:\users\michel\desktop\source\gameserver\source\kanturustateinfo.h
; File c:\users\michel\desktop\source\gameserver\source\kanturubattleofmaya.cpp
;	COMDAT ?SetState@CKanturuBattleOfMaya@@QAEXH@Z
_TEXT	SEGMENT
_iBattleOfMayaState$ = 8				; size = 4
?SetState@CKanturuBattleOfMaya@@QAEXH@Z PROC		; CKanturuBattleOfMaya::SetState, COMDAT
; _this$ = ecx

; 384  : {

  00000	55		 push	 ebp
  00001	8b ec		 mov	 ebp, esp
  00003	53		 push	 ebx
  00004	56		 push	 esi
  00005	57		 push	 edi

; 385  : 	if ( this->m_StateInfo[iBattleOfMayaState].GetCondition() > 0 )

  00006	8b 7d 08	 mov	 edi, DWORD PTR _iBattleOfMayaState$[ebp]
  00009	8b f1		 mov	 esi, ecx
  0000b	8d 04 bf	 lea	 eax, DWORD PTR [edi+edi*4]
  0000e	83 7c 86 58 00	 cmp	 DWORD PTR [esi+eax*4+88], 0
; File c:\users\michel\desktop\source\gameserver\source\kanturustateinfo.h

; 42   : 		return this->m_iCondition;

  00013	8d 1c 86	 lea	 ebx, DWORD PTR [esi+eax*4]
; File c:\users\michel\desktop\source\gameserver\source\kanturubattleofmaya.cpp

; 385  : 	if ( this->m_StateInfo[iBattleOfMayaState].GetCondition() > 0 )

  00016	7e 09		 jle	 SHORT $LN4@SetState
; File c:\users\michel\desktop\source\gameserver\source\kanturustateinfo.h

; 56   : 		this->m_dwAppliedTickCount = GetTickCount();

  00018	ff 15 00 00 00
	00		 call	 DWORD PTR __imp__GetTickCount@0
  0001e	89 43 60	 mov	 DWORD PTR [ebx+96], eax
$LN4@SetState:
; File c:\users\michel\desktop\source\gameserver\source\kanturubattleofmaya.cpp

; 390  : 	g_KanturuMonsterMng.ResetRegenMonsterObjData();

  00021	b9 00 00 00 00	 mov	 ecx, OFFSET ?g_KanturuMonsterMng@@3VCKanturuMonsterMng@@A ; g_KanturuMonsterMng
  00026	e8 00 00 00 00	 call	 ?ResetRegenMonsterObjData@CKanturuMonsterMng@@QAEXXZ ; CKanturuMonsterMng::ResetRegenMonsterObjData

; 391  : 	this->m_KanturuMaya.Init();

  0002b	8d 8e dc 01 00
	00		 lea	 ecx, DWORD PTR [esi+476]
  00031	e8 00 00 00 00	 call	 ?Init@CKanturuMaya@@QAEXXZ ; CKanturuMaya::Init

; 392  : 	this->ResetAIMonster();

  00036	8b ce		 mov	 ecx, esi
  00038	e8 00 00 00 00	 call	 ?ResetAIMonster@CKanturuBattleOfMaya@@QAEXXZ ; CKanturuBattleOfMaya::ResetAIMonster

; 393  : 
; 394  : 	switch ( iBattleOfMayaState )

  0003d	83 ff 12	 cmp	 edi, 18			; 00000012H
  00040	0f 87 bc 00 00
	00		 ja	 $LN2@SetState
  00046	ff 24 bd 00 00
	00 00		 jmp	 DWORD PTR $LN30@SetState[edi*4]
$LN5@SetState:

; 395  : 	{
; 396  : 		case KANTURU_MAYA_NONE:
; 397  : 			this->SetState_NONE();

  0004d	8b ce		 mov	 ecx, esi
  0004f	e8 00 00 00 00	 call	 ?SetState_NONE@CKanturuBattleOfMaya@@QAEXXZ ; CKanturuBattleOfMaya::SetState_NONE

; 398  : 			break;

  00054	e9 a9 00 00 00	 jmp	 $LN2@SetState
$LN6@SetState:

; 399  : 		case KANTURU_MAYA_STANBY1:
; 400  : 			this->SetState_STANBY1();

  00059	8b ce		 mov	 ecx, esi
  0005b	e8 00 00 00 00	 call	 ?SetState_STANBY1@CKanturuBattleOfMaya@@QAEXXZ ; CKanturuBattleOfMaya::SetState_STANBY1

; 401  : 			break;

  00060	e9 9d 00 00 00	 jmp	 $LN2@SetState
$LN7@SetState:

; 402  : 		case KANTURU_MAYA_NOTIFY1:
; 403  : 			this->SetState_NOTIFY1();

  00065	8b ce		 mov	 ecx, esi
  00067	e8 00 00 00 00	 call	 ?SetState_NOTIFY1@CKanturuBattleOfMaya@@QAEXXZ ; CKanturuBattleOfMaya::SetState_NOTIFY1

; 404  : 			break;

  0006c	e9 91 00 00 00	 jmp	 $LN2@SetState
$LN8@SetState:

; 405  : 		case KANTURU_MAYA_START1:
; 406  : 			this->SetState_START1();

  00071	8b ce		 mov	 ecx, esi
  00073	e8 00 00 00 00	 call	 ?SetState_START1@CKanturuBattleOfMaya@@QAEXXZ ; CKanturuBattleOfMaya::SetState_START1

; 407  : 			break;

  00078	e9 85 00 00 00	 jmp	 $LN2@SetState
$LN9@SetState:

; 408  : 		case KANTURU_MAYA1:
; 409  : 			this->SetState_MAYA1();

  0007d	8b ce		 mov	 ecx, esi
  0007f	e8 00 00 00 00	 call	 ?SetState_MAYA1@CKanturuBattleOfMaya@@QAEXXZ ; CKanturuBattleOfMaya::SetState_MAYA1

; 410  : 			break;

  00084	eb 7c		 jmp	 SHORT $LN2@SetState
$LN10@SetState:

; 411  : 		case KANTURU_MAYA_END1:
; 412  : 			this->SetState_END_MAYA1();

  00086	8b ce		 mov	 ecx, esi
  00088	e8 00 00 00 00	 call	 ?SetState_END_MAYA1@CKanturuBattleOfMaya@@QAEXXZ ; CKanturuBattleOfMaya::SetState_END_MAYA1

; 413  : 			break;

  0008d	eb 73		 jmp	 SHORT $LN2@SetState
$LN11@SetState:

; 414  : 		case KANTURU_MAYA_ENDCYCLE1:
; 415  : 			this->SetState_ENDCYCLE_MAYA1();

  0008f	8b ce		 mov	 ecx, esi
  00091	e8 00 00 00 00	 call	 ?SetState_ENDCYCLE_MAYA1@CKanturuBattleOfMaya@@QAEXXZ ; CKanturuBattleOfMaya::SetState_ENDCYCLE_MAYA1

; 416  : 			break;

  00096	eb 6a		 jmp	 SHORT $LN2@SetState
$LN12@SetState:

; 417  : 		case KANTURU_MAYA_STANBY2:
; 418  : 			this->SetState_STANBY2();

  00098	8b ce		 mov	 ecx, esi
  0009a	e8 00 00 00 00	 call	 ?SetState_STANBY2@CKanturuBattleOfMaya@@QAEXXZ ; CKanturuBattleOfMaya::SetState_STANBY2

; 419  : 			break;

  0009f	eb 61		 jmp	 SHORT $LN2@SetState
$LN13@SetState:

; 420  : 		case KANTURU_MAYA_START2:
; 421  : 			this->SetState_START2();

  000a1	8b ce		 mov	 ecx, esi
  000a3	e8 00 00 00 00	 call	 ?SetState_START2@CKanturuBattleOfMaya@@QAEXXZ ; CKanturuBattleOfMaya::SetState_START2

; 422  : 			break;

  000a8	eb 58		 jmp	 SHORT $LN2@SetState
$LN14@SetState:

; 423  : 		case KANTURU_MAYA2:
; 424  : 			this->SetState_MAYA2();

  000aa	8b ce		 mov	 ecx, esi
  000ac	e8 00 00 00 00	 call	 ?SetState_MAYA2@CKanturuBattleOfMaya@@QAEXXZ ; CKanturuBattleOfMaya::SetState_MAYA2

; 425  : 			break;

  000b1	eb 4f		 jmp	 SHORT $LN2@SetState
$LN15@SetState:

; 426  : 		case KANTURU_MAYA_END2:
; 427  : 			this->SetState_END_MAYA2();

  000b3	8b ce		 mov	 ecx, esi
  000b5	e8 00 00 00 00	 call	 ?SetState_END_MAYA2@CKanturuBattleOfMaya@@QAEXXZ ; CKanturuBattleOfMaya::SetState_END_MAYA2

; 428  : 			break;

  000ba	eb 46		 jmp	 SHORT $LN2@SetState
$LN16@SetState:

; 429  : 		case KANTURU_MAYA_ENDCYCLE2:
; 430  : 			this->SetState_ENDCYCLE_MAYA2();

  000bc	8b ce		 mov	 ecx, esi
  000be	e8 00 00 00 00	 call	 ?SetState_ENDCYCLE_MAYA2@CKanturuBattleOfMaya@@QAEXXZ ; CKanturuBattleOfMaya::SetState_ENDCYCLE_MAYA2

; 431  : 			break;

  000c3	eb 3d		 jmp	 SHORT $LN2@SetState
$LN17@SetState:

; 432  : 		case KANTURU_MAYA_STANBY3:
; 433  : 			this->SetState_STANBY3();

  000c5	8b ce		 mov	 ecx, esi
  000c7	e8 00 00 00 00	 call	 ?SetState_STANBY3@CKanturuBattleOfMaya@@QAEXXZ ; CKanturuBattleOfMaya::SetState_STANBY3

; 434  : 			break;

  000cc	eb 34		 jmp	 SHORT $LN2@SetState
$LN18@SetState:

; 435  : 		case KANTURU_MAYA_START3:
; 436  : 			this->SetState_START3();

  000ce	8b ce		 mov	 ecx, esi
  000d0	e8 00 00 00 00	 call	 ?SetState_START3@CKanturuBattleOfMaya@@QAEXXZ ; CKanturuBattleOfMaya::SetState_START3

; 437  : 			break;

  000d5	eb 2b		 jmp	 SHORT $LN2@SetState
$LN19@SetState:

; 438  : 		case KANTURU_MAYA3:
; 439  : 			this->SetState_MAYA3();

  000d7	8b ce		 mov	 ecx, esi
  000d9	e8 00 00 00 00	 call	 ?SetState_MAYA3@CKanturuBattleOfMaya@@QAEXXZ ; CKanturuBattleOfMaya::SetState_MAYA3

; 440  : 			break;

  000de	eb 22		 jmp	 SHORT $LN2@SetState
$LN20@SetState:

; 441  : 		case KANTURU_MAYA_END3:
; 442  : 			this->SetState_END_MAYA3();

  000e0	8b ce		 mov	 ecx, esi
  000e2	e8 00 00 00 00	 call	 ?SetState_END_MAYA3@CKanturuBattleOfMaya@@QAEXXZ ; CKanturuBattleOfMaya::SetState_END_MAYA3

; 443  : 			break;

  000e7	eb 19		 jmp	 SHORT $LN2@SetState
$LN21@SetState:

; 444  : 		case KANTURU_MAYA_ENDCYCLE3:
; 445  : 			this->SetState_ENDCYCLE_MAYA3();

  000e9	8b ce		 mov	 ecx, esi
  000eb	e8 00 00 00 00	 call	 ?SetState_ENDCYCLE_MAYA3@CKanturuBattleOfMaya@@QAEXXZ ; CKanturuBattleOfMaya::SetState_ENDCYCLE_MAYA3

; 446  : 			break;

  000f0	eb 10		 jmp	 SHORT $LN2@SetState
$LN22@SetState:

; 447  : 		case KANTURU_MAYA_END:
; 448  : 			this->SetState_END();

  000f2	8b ce		 mov	 ecx, esi
  000f4	e8 00 00 00 00	 call	 ?SetState_END@CKanturuBattleOfMaya@@QAEXXZ ; CKanturuBattleOfMaya::SetState_END

; 449  : 			break;

  000f9	eb 07		 jmp	 SHORT $LN2@SetState
$LN23@SetState:

; 450  : 		case KANTURU_MAYA_ENDCYCLE:
; 451  : 			this->SetState_ENDCYCLE();

  000fb	8b ce		 mov	 ecx, esi
  000fd	e8 00 00 00 00	 call	 ?SetState_ENDCYCLE@CKanturuBattleOfMaya@@QAEXXZ ; CKanturuBattleOfMaya::SetState_ENDCYCLE
$LN2@SetState:

; 452  : 			break;
; 453  : 	}
; 454  : 
; 455  : 	KANTURU_UTIL.NotifyKanturuChangeState(KANTURU_STATE_BATTLE_OF_MAYA, this->m_iBattleOfMayaState);

  00102	ff 76 08	 push	 DWORD PTR [esi+8]
  00105	b9 00 00 00 00	 mov	 ecx, OFFSET ?KANTURU_UTIL@@3VCKanturuUtil@@A
  0010a	6a 02		 push	 2
  0010c	e8 00 00 00 00	 call	 ?NotifyKanturuChangeState@CKanturuUtil@@QAEXHH@Z ; CKanturuUtil::NotifyKanturuChangeState
  00111	5f		 pop	 edi
  00112	5e		 pop	 esi
  00113	5b		 pop	 ebx

; 456  : }

  00114	5d		 pop	 ebp
  00115	c2 04 00	 ret	 4
$LN30@SetState:
  00118	00 00 00 00	 DD	 $LN5@SetState
  0011c	00 00 00 00	 DD	 $LN6@SetState
  00120	00 00 00 00	 DD	 $LN7@SetState
  00124	00 00 00 00	 DD	 $LN8@SetState
  00128	00 00 00 00	 DD	 $LN9@SetState
  0012c	00 00 00 00	 DD	 $LN10@SetState
  00130	00 00 00 00	 DD	 $LN11@SetState
  00134	00 00 00 00	 DD	 $LN12@SetState
  00138	00 00 00 00	 DD	 $LN13@SetState
  0013c	00 00 00 00	 DD	 $LN14@SetState
  00140	00 00 00 00	 DD	 $LN15@SetState
  00144	00 00 00 00	 DD	 $LN16@SetState
  00148	00 00 00 00	 DD	 $LN17@SetState
  0014c	00 00 00 00	 DD	 $LN18@SetState
  00150	00 00 00 00	 DD	 $LN19@SetState
  00154	00 00 00 00	 DD	 $LN20@SetState
  00158	00 00 00 00	 DD	 $LN21@SetState
  0015c	00 00 00 00	 DD	 $LN22@SetState
  00160	00 00 00 00	 DD	 $LN23@SetState
?SetState@CKanturuBattleOfMaya@@QAEXH@Z ENDP		; CKanturuBattleOfMaya::SetState
_TEXT	ENDS
; Function compile flags: /Ogtp
; File c:\users\michel\desktop\source\gameserver\source\kanturubattleofmaya.cpp
;	COMDAT ?Run@CKanturuBattleOfMaya@@QAEXXZ
_TEXT	SEGMENT
?Run@CKanturuBattleOfMaya@@QAEXXZ PROC			; CKanturuBattleOfMaya::Run, COMDAT
; _this$ = ecx

; 314  : {

  00000	56		 push	 esi
  00001	8b f1		 mov	 esi, ecx

; 315  : 	this->CheckStateTime();

  00003	e8 00 00 00 00	 call	 ?CheckStateTime@CKanturuBattleOfMaya@@QAEHXZ ; CKanturuBattleOfMaya::CheckStateTime

; 316  : 	this->CheckMayaBattleUser();

  00008	8b ce		 mov	 ecx, esi
  0000a	e8 00 00 00 00	 call	 ?CheckMayaBattleUser@CKanturuBattleOfMaya@@QAEXXZ ; CKanturuBattleOfMaya::CheckMayaBattleUser

; 317  : 	g_KanturuBattleUserMng.CheckUserState();

  0000f	b9 00 00 00 00	 mov	 ecx, OFFSET ?g_KanturuBattleUserMng@@3VCKanturuBattleUserMng@@A ; g_KanturuBattleUserMng
  00014	e8 00 00 00 00	 call	 ?CheckUserState@CKanturuBattleUserMng@@QAEXXZ ; CKanturuBattleUserMng::CheckUserState

; 318  : 
; 319  : 	switch ( this->m_iBattleOfMayaState )

  00019	8b 46 08	 mov	 eax, DWORD PTR [esi+8]
  0001c	83 f8 12	 cmp	 eax, 18			; 00000012H
  0001f	77 3e		 ja	 SHORT $LN19@Run
  00021	0f b6 80 00 00
	00 00		 movzx	 eax, BYTE PTR $LN24@Run[eax]
  00028	ff 24 85 00 00
	00 00		 jmp	 DWORD PTR $LN28@Run[eax*4]
$LN7@Run:

; 320  : 	{
; 321  : 		case KANTURU_MAYA_NONE:
; 322  : 			this->ProcState_NONE();
; 323  : 			break;
; 324  : 		case KANTURU_MAYA_STANBY1:
; 325  : 			this->ProcState_STANBY1();
; 326  : 			break;
; 327  : 		case KANTURU_MAYA_NOTIFY1:
; 328  : 			this->ProcState_NOTIFY1();
; 329  : 			break;
; 330  : 		case KANTURU_MAYA_START1:
; 331  : 			this->ProcState_START1();

  0002f	8b ce		 mov	 ecx, esi
  00031	5e		 pop	 esi
  00032	e9 00 00 00 00	 jmp	 ?ProcState_START1@CKanturuBattleOfMaya@@QAEXXZ ; CKanturuBattleOfMaya::ProcState_START1
$LN8@Run:

; 332  : 			break;
; 333  : 		case KANTURU_MAYA1:
; 334  : 			this->ProcState_MAYA1();

  00037	8b ce		 mov	 ecx, esi
  00039	5e		 pop	 esi
  0003a	e9 00 00 00 00	 jmp	 ?ProcState_MAYA1@CKanturuBattleOfMaya@@QAEXXZ ; CKanturuBattleOfMaya::ProcState_MAYA1
$LN12@Run:

; 335  : 			break;
; 336  : 		case KANTURU_MAYA_END1:
; 337  : 			this->ProcState_END_MAYA1();
; 338  : 			break;
; 339  : 		case KANTURU_MAYA_ENDCYCLE1:
; 340  : 			this->ProcState_ENDCYCLE_MAYA1();
; 341  : 			break;
; 342  : 		case KANTURU_MAYA_STANBY2:
; 343  : 			this->ProcState_STANBY2();
; 344  : 			break;
; 345  : 		case KANTURU_MAYA_START2:
; 346  : 			this->ProcState_START2();

  0003f	8b ce		 mov	 ecx, esi
  00041	5e		 pop	 esi
  00042	e9 00 00 00 00	 jmp	 ?ProcState_START2@CKanturuBattleOfMaya@@QAEXXZ ; CKanturuBattleOfMaya::ProcState_START2
$LN13@Run:

; 347  : 			break;
; 348  : 		case KANTURU_MAYA2:
; 349  : 			this->ProcState_MAYA2();

  00047	8b ce		 mov	 ecx, esi
  00049	5e		 pop	 esi
  0004a	e9 00 00 00 00	 jmp	 ?ProcState_MAYA2@CKanturuBattleOfMaya@@QAEXXZ ; CKanturuBattleOfMaya::ProcState_MAYA2
$LN17@Run:

; 350  : 			break;
; 351  : 		case KANTURU_MAYA_END2:
; 352  : 			this->ProcState_END_MAYA2();
; 353  : 			break;
; 354  : 		case KANTURU_MAYA_ENDCYCLE2:
; 355  : 			this->ProcState_ENDCYCLE_MAYA2();
; 356  : 			break;
; 357  : 		case KANTURU_MAYA_STANBY3:
; 358  : 			this->ProcState_STANBY3();
; 359  : 			break;
; 360  : 		case KANTURU_MAYA_START3:
; 361  : 			this->ProcState_START3();

  0004f	8b ce		 mov	 ecx, esi
  00051	5e		 pop	 esi
  00052	e9 00 00 00 00	 jmp	 ?ProcState_START3@CKanturuBattleOfMaya@@QAEXXZ ; CKanturuBattleOfMaya::ProcState_START3
$LN18@Run:

; 362  : 			break;
; 363  : 		case KANTURU_MAYA3:
; 364  : 			this->ProcState_MAYA3();

  00057	8b ce		 mov	 ecx, esi
  00059	5e		 pop	 esi
  0005a	e9 00 00 00 00	 jmp	 ?ProcState_MAYA3@CKanturuBattleOfMaya@@QAEXXZ ; CKanturuBattleOfMaya::ProcState_MAYA3
$LN19@Run:
  0005f	5e		 pop	 esi

; 365  : 			break;
; 366  : 		case KANTURU_MAYA_END3:
; 367  : 			this->ProcState_END_MAYA3();
; 368  : 			break;
; 369  : 		case KANTURU_MAYA_ENDCYCLE3:
; 370  : 			this->ProcState_ENDCYCLE_MAYA3();
; 371  : 			break;
; 372  : 		case KANTURU_MAYA_END:
; 373  : 			this->ProcState_END();
; 374  : 			break;
; 375  : 		case KANTURU_MAYA_ENDCYCLE:
; 376  : 			this->ProcState_ENDCYCLE();
; 377  : 			break;
; 378  : 	}
; 379  : }

  00060	c3		 ret	 0
  00061	0f 1f 00	 npad	 3
$LN28@Run:
  00064	00 00 00 00	 DD	 $LN19@Run
  00068	00 00 00 00	 DD	 $LN7@Run
  0006c	00 00 00 00	 DD	 $LN8@Run
  00070	00 00 00 00	 DD	 $LN12@Run
  00074	00 00 00 00	 DD	 $LN13@Run
  00078	00 00 00 00	 DD	 $LN17@Run
  0007c	00 00 00 00	 DD	 $LN18@Run
$LN24@Run:
  00080	00		 DB	 0
  00081	00		 DB	 0
  00082	00		 DB	 0
  00083	01		 DB	 1
  00084	02		 DB	 2
  00085	00		 DB	 0
  00086	00		 DB	 0
  00087	00		 DB	 0
  00088	03		 DB	 3
  00089	04		 DB	 4
  0008a	00		 DB	 0
  0008b	00		 DB	 0
  0008c	00		 DB	 0
  0008d	05		 DB	 5
  0008e	06		 DB	 6
  0008f	00		 DB	 0
  00090	00		 DB	 0
  00091	00		 DB	 0
  00092	00		 DB	 0
?Run@CKanturuBattleOfMaya@@QAEXXZ ENDP			; CKanturuBattleOfMaya::Run
_TEXT	ENDS
; Function compile flags: /Ogtp
; File c:\users\michel\desktop\source\gameserver\source\kanturubattleofmaya.cpp
; File c:\users\michel\desktop\source\gameserver\source\kanturustateinfo.h
; File c:\users\michel\desktop\source\gameserver\source\kanturubattleofmaya.cpp
; File c:\users\michel\desktop\source\gameserver\source\kanturustateinfo.h
; File c:\users\michel\desktop\source\gameserver\source\kanturubattleofmaya.cpp
; File c:\users\michel\desktop\source\gameserver\source\kanturustateinfo.h
; File c:\users\michel\desktop\source\gameserver\source\kanturubattleofmaya.cpp
; File c:\users\michel\desktop\source\gameserver\source\kanturustateinfo.h
; File c:\users\michel\desktop\source\gameserver\source\kanturubattleofmaya.cpp
; File c:\users\michel\desktop\source\gameserver\source\kanturustateinfo.h
; File c:\users\michel\desktop\source\gameserver\source\kanturubattleofmaya.cpp
;	COMDAT ?LoadData@CKanturuBattleOfMaya@@QAEHPAD@Z
_TEXT	SEGMENT
_this$ = -24						; size = 4
_iType$1$ = -20						; size = 4
__$EHRec$ = -16						; size = 16
_lpszFileName$ = 8					; size = 4
?LoadData@CKanturuBattleOfMaya@@QAEHPAD@Z PROC		; CKanturuBattleOfMaya::LoadData, COMDAT
; _this$ = ecx

; 86   : {

  00000	55		 push	 ebp
  00001	8b ec		 mov	 ebp, esp
  00003	6a ff		 push	 -1
  00005	68 00 00 00 00	 push	 __ehhandler$?LoadData@CKanturuBattleOfMaya@@QAEHPAD@Z
  0000a	64 a1 00 00 00
	00		 mov	 eax, DWORD PTR fs:0
  00010	50		 push	 eax
  00011	83 ec 0c	 sub	 esp, 12			; 0000000cH
  00014	53		 push	 ebx
  00015	56		 push	 esi
  00016	57		 push	 edi
  00017	a1 00 00 00 00	 mov	 eax, DWORD PTR ___security_cookie
  0001c	33 c5		 xor	 eax, ebp
  0001e	50		 push	 eax
  0001f	8d 45 f4	 lea	 eax, DWORD PTR __$EHRec$[ebp+4]
  00022	64 a3 00 00 00
	00		 mov	 DWORD PTR fs:0, eax
  00028	89 65 f0	 mov	 DWORD PTR __$EHRec$[ebp], esp
  0002b	8b f1		 mov	 esi, ecx
  0002d	89 75 e8	 mov	 DWORD PTR _this$[ebp], esi

; 87   : 	this->m_bFileDataLoad = FALSE;
; 88   : 
; 89   : 	if ( !lpszFileName || !strcmp(lpszFileName , "") )

  00030	8b 5d 08	 mov	 ebx, DWORD PTR _lpszFileName$[ebp]
  00033	c7 46 04 00 00
	00 00		 mov	 DWORD PTR [esi+4], 0
  0003a	85 db		 test	 ebx, ebx
  0003c	0f 84 68 04 00
	00		 je	 $LN7@LoadData
  00042	b9 00 00 00 00	 mov	 ecx, OFFSET ??_C@_00CNPNBAHC@?$AA@
  00047	8b c3		 mov	 eax, ebx
  00049	0f 1f 80 00 00
	00 00		 npad	 7
$LL62@LoadData:
  00050	8a 10		 mov	 dl, BYTE PTR [eax]
  00052	3a 11		 cmp	 dl, BYTE PTR [ecx]
  00054	75 1a		 jne	 SHORT $LN63@LoadData
  00056	84 d2		 test	 dl, dl
  00058	74 12		 je	 SHORT $LN64@LoadData
  0005a	8a 50 01	 mov	 dl, BYTE PTR [eax+1]
  0005d	3a 51 01	 cmp	 dl, BYTE PTR [ecx+1]
  00060	75 0e		 jne	 SHORT $LN63@LoadData
  00062	83 c0 02	 add	 eax, 2
  00065	83 c1 02	 add	 ecx, 2
  00068	84 d2		 test	 dl, dl
  0006a	75 e4		 jne	 SHORT $LL62@LoadData
$LN64@LoadData:
  0006c	33 c0		 xor	 eax, eax
  0006e	eb 05		 jmp	 SHORT $LN65@LoadData
$LN63@LoadData:
  00070	1b c0		 sbb	 eax, eax
  00072	83 c8 01	 or	 eax, 1
$LN65@LoadData:
  00075	85 c0		 test	 eax, eax
  00077	0f 84 2d 04 00
	00		 je	 $LN7@LoadData

; 93   : 	}
; 94   : 
; 95   : 	try
; 96   : 	{
; 97   : 		enum SMDToken Token;
; 98   : 		SMDFile = fopen(lpszFileName, "r");

  0007d	68 00 00 00 00	 push	 OFFSET ??_C@_01KDCPPGHE@r?$AA@
  00082	53		 push	 ebx
  00083	c7 45 fc 00 00
	00 00		 mov	 DWORD PTR __$EHRec$[ebp+12], 0
  0008a	e8 00 00 00 00	 call	 _fopen
  0008f	83 c4 08	 add	 esp, 8
  00092	a3 00 00 00 00	 mov	 DWORD PTR ?SMDFile@@3PAU_iobuf@@A, eax

; 99   : 
; 100  : 		if ( SMDFile == NULL )

  00097	85 c0		 test	 eax, eax
  00099	75 13		 jne	 SHORT $LN9@LoadData

; 101  : 		{
; 102  : 			MsgBox("[ KANTURU ][ BattleOfMaya ] - Can't Open %s ", lpszFileName);

  0009b	53		 push	 ebx
  0009c	68 00 00 00 00	 push	 OFFSET ??_C@_0CN@FHELGPON@?$FL?5KANTURU?5?$FN?$FL?5BattleOfMaya?5?$FN?5?9?5Ca@
  000a1	e8 00 00 00 00	 call	 ?MsgBox@@YAXPADZZ	; MsgBox
  000a6	83 c4 08	 add	 esp, 8

; 103  : 			return FALSE;

  000a9	e9 09 04 00 00	 jmp	 $LN92@LoadData
$LN9@LoadData:

; 104  : 		}
; 105  : 
; 106  : 		this->ResetAllData();

  000ae	8b ce		 mov	 ecx, esi
  000b0	e8 00 00 00 00	 call	 ?ResetAllData@CKanturuBattleOfMaya@@QAEXXZ ; CKanturuBattleOfMaya::ResetAllData
$LL2@LoadData:

; 107  : 	
; 108  : 		int iType = -1;
; 109  : 		int iState = 0;
; 110  : 		int iCondition = 0;
; 111  : 		int iValue = 0;
; 112  : 
; 113  : 		while ( true )
; 114  : 		{
; 115  : 			Token = GetToken();

  000b5	e8 00 00 00 00	 call	 ?GetToken@@YA?AW4SMDToken@@XZ ; GetToken

; 116  : 			
; 117  : 			if ( Token == END )

  000ba	83 f8 02	 cmp	 eax, 2
  000bd	75 3a		 jne	 SHORT $LN10@LoadData

; 295  : 
; 296  : 		fclose(SMDFile);

  000bf	ff 35 00 00 00
	00		 push	 DWORD PTR ?SMDFile@@3PAU_iobuf@@A
  000c5	e8 00 00 00 00	 call	 _fclose

; 297  : 		LogAddC(2, "[ KANTURU ][ BattleOfMaya ] %s file is Loaded",

  000ca	53		 push	 ebx
  000cb	68 00 00 00 00	 push	 OFFSET ??_C@_0CO@FIGOKMGP@?$FL?5KANTURU?5?$FN?$FL?5BattleOfMaya?5?$FN?5?$CFs?5f@
  000d0	6a 02		 push	 2
  000d2	ff 15 00 00 00
	00		 call	 DWORD PTR ?LogAddC@@3P6AXEPADZZA ; LogAddC

; 298  : 			lpszFileName);
; 299  : 
; 300  : 		this->m_bFileDataLoad = TRUE;

  000d8	c7 46 04 01 00
	00 00		 mov	 DWORD PTR [esi+4], 1
  000df	83 c4 10	 add	 esp, 16			; 00000010H

; 306  : 
; 307  : 	return this->m_bFileDataLoad;

  000e2	8b 46 04	 mov	 eax, DWORD PTR [esi+4]

; 308  : }

  000e5	8b 4d f4	 mov	 ecx, DWORD PTR __$EHRec$[ebp+4]
  000e8	64 89 0d 00 00
	00 00		 mov	 DWORD PTR fs:0, ecx
  000ef	59		 pop	 ecx
  000f0	5f		 pop	 edi
  000f1	5e		 pop	 esi
  000f2	5b		 pop	 ebx
  000f3	8b e5		 mov	 esp, ebp
  000f5	5d		 pop	 ebp
  000f6	c2 04 00	 ret	 4
$LN10@LoadData:

; 118  : 			{
; 119  : 				break;
; 120  : 			}
; 121  : 
; 122  : 			iType = (int)TokenNumber;

  000f9	f3 0f 2c 05 00
	00 00 00	 cvttss2si eax, DWORD PTR ?TokenNumber@@3MA
  00101	89 45 ec	 mov	 DWORD PTR _iType$1$[ebp], eax
$LL4@LoadData:

; 123  : 
; 124  : 			while ( true )
; 125  : 			{
; 126  : 				if ( iType == 2 )

  00104	83 f8 02	 cmp	 eax, 2
  00107	0f 85 b8 00 00
	00		 jne	 $LN11@LoadData

; 127  : 				{
; 128  : 					iState = 0;
; 129  : 					iCondition = 0;
; 130  : 					iValue = 0;
; 131  : 
; 132  : 					Token = GetToken();

  0010d	e8 00 00 00 00	 call	 ?GetToken@@YA?AW4SMDToken@@XZ ; GetToken

; 133  : 
; 134  : 					if ( !strcmp("end", TokenString))

  00112	b9 00 00 00 00	 mov	 ecx, OFFSET ?TokenString@@3PADA
  00117	b8 00 00 00 00	 mov	 eax, OFFSET ??_C@_03JBJLGPFL@end?$AA@
  0011c	0f 1f 40 00	 npad	 4
$LL66@LoadData:
  00120	8a 10		 mov	 dl, BYTE PTR [eax]
  00122	3a 11		 cmp	 dl, BYTE PTR [ecx]
  00124	75 1a		 jne	 SHORT $LN67@LoadData
  00126	84 d2		 test	 dl, dl
  00128	74 12		 je	 SHORT $LN68@LoadData
  0012a	8a 50 01	 mov	 dl, BYTE PTR [eax+1]
  0012d	3a 51 01	 cmp	 dl, BYTE PTR [ecx+1]
  00130	75 0e		 jne	 SHORT $LN67@LoadData
  00132	83 c0 02	 add	 eax, 2
  00135	83 c1 02	 add	 ecx, 2
  00138	84 d2		 test	 dl, dl
  0013a	75 e4		 jne	 SHORT $LL66@LoadData
$LN68@LoadData:
  0013c	33 c0		 xor	 eax, eax
  0013e	eb 05		 jmp	 SHORT $LN69@LoadData
$LN67@LoadData:
  00140	1b c0		 sbb	 eax, eax
  00142	83 c8 01	 or	 eax, 1
$LN69@LoadData:
  00145	8b 5d 08	 mov	 ebx, DWORD PTR _lpszFileName$[ebp]
  00148	85 c0		 test	 eax, eax
  0014a	0f 84 65 ff ff
	ff		 je	 $LL2@LoadData

; 135  : 					{
; 136  : 						break;
; 137  : 					}
; 138  : 
; 139  : 					iState = (int)TokenNumber;

  00150	f3 0f 2c 1d 00
	00 00 00	 cvttss2si ebx, DWORD PTR ?TokenNumber@@3MA

; 140  : 
; 141  : 					Token = GetToken();

  00158	e8 00 00 00 00	 call	 ?GetToken@@YA?AW4SMDToken@@XZ ; GetToken

; 142  : 					iCondition = (int)TokenNumber;

  0015d	f3 0f 2c 3d 00
	00 00 00	 cvttss2si edi, DWORD PTR ?TokenNumber@@3MA

; 143  : 
; 144  : 					Token = GetToken();

  00165	e8 00 00 00 00	 call	 ?GetToken@@YA?AW4SMDToken@@XZ ; GetToken

; 145  : 					iValue = (int)TokenNumber;
; 146  : 
; 147  : 					if ( this->m_BattleTimeInfoCount < 0 ||

  0016a	8b 46 4c	 mov	 eax, DWORD PTR [esi+76]
  0016d	f3 0f 2c 0d 00
	00 00 00	 cvttss2si ecx, DWORD PTR ?TokenNumber@@3MA
  00175	85 c0		 test	 eax, eax
  00177	78 36		 js	 SHORT $LN15@LoadData
  00179	83 f8 03	 cmp	 eax, 3
  0017c	7d 31		 jge	 SHORT $LN15@LoadData
; File c:\users\michel\desktop\source\gameserver\source\kanturustateinfo.h

; 30   : 		this->m_iState = iStateTimeInfo;

  0017e	8d 04 80	 lea	 eax, DWORD PTR [eax+eax*4]
  00181	89 5c 86 14	 mov	 DWORD PTR [esi+eax*4+20], ebx
; File c:\users\michel\desktop\source\gameserver\source\kanturubattleofmaya.cpp

; 157  : 					this->m_BattleTimeInfo[this->m_BattleTimeInfoCount].SetCondition(iCondition);

  00185	8b 46 4c	 mov	 eax, DWORD PTR [esi+76]
  00188	8d 04 80	 lea	 eax, DWORD PTR [eax+eax*4]
; File c:\users\michel\desktop\source\gameserver\source\kanturustateinfo.h

; 36   : 		this->m_iCondition = iCondition;

  0018b	89 7c 86 18	 mov	 DWORD PTR [esi+eax*4+24], edi
; File c:\users\michel\desktop\source\gameserver\source\kanturubattleofmaya.cpp

; 159  : 					if ( iCondition == 1 )

  0018f	83 ff 01	 cmp	 edi, 1
  00192	75 06		 jne	 SHORT $LN16@LoadData

; 160  : 					{
; 161  : 						iValue *= 1000;

  00194	69 c9 e8 03 00
	00		 imul	 ecx, ecx, 1000
$LN16@LoadData:

; 162  : 					}
; 163  : 
; 164  : 					this->m_BattleTimeInfo[this->m_BattleTimeInfoCount].SetValue(iValue);

  0019a	8b 46 4c	 mov	 eax, DWORD PTR [esi+76]
  0019d	8d 04 80	 lea	 eax, DWORD PTR [eax+eax*4]
; File c:\users\michel\desktop\source\gameserver\source\kanturustateinfo.h

; 47   : 		this->m_iValue = iValue;

  001a0	89 4c 86 1c	 mov	 DWORD PTR [esi+eax*4+28], ecx
; File c:\users\michel\desktop\source\gameserver\source\kanturubattleofmaya.cpp

; 165  : 					this->m_BattleTimeInfoCount++;

  001a4	ff 46 4c	 inc	 DWORD PTR [esi+76]
  001a7	8b 45 ec	 mov	 eax, DWORD PTR _iType$1$[ebp]
  001aa	e9 55 ff ff ff	 jmp	 $LL4@LoadData
$LN15@LoadData:

; 148  : 						 this->m_BattleTimeInfoCount >= KANTURU_MAYA_TIME_INFO )
; 149  : 					{
; 150  : 						MsgBox("[ KANTURU ][ BattleOfMaya ] - Exceed Max Scene (%d)",

  001af	50		 push	 eax
  001b0	68 00 00 00 00	 push	 OFFSET ??_C@_0DE@FILFCBGG@?$FL?5KANTURU?5?$FN?$FL?5BattleOfMaya?5?$FN?5?9?5Ex@
  001b5	e8 00 00 00 00	 call	 ?MsgBox@@YAXPADZZ	; MsgBox

; 151  : 							this->m_BattleTimeInfoCount);
; 152  : 
; 153  : 						break;

  001ba	8b 5d 08	 mov	 ebx, DWORD PTR _lpszFileName$[ebp]
  001bd	83 c4 08	 add	 esp, 8
  001c0	e9 f0 fe ff ff	 jmp	 $LL2@LoadData
$LN11@LoadData:

; 166  : 				}
; 167  : 				else if ( iType == 3 )

  001c5	83 f8 03	 cmp	 eax, 3
  001c8	0f 85 c3 00 00
	00		 jne	 $LN17@LoadData

; 168  : 				{
; 169  : 					iState = 0;
; 170  : 					iCondition = 0;
; 171  : 					iValue = 0;
; 172  : 
; 173  : 					Token = GetToken();

  001ce	e8 00 00 00 00	 call	 ?GetToken@@YA?AW4SMDToken@@XZ ; GetToken

; 174  : 
; 175  : 					if ( !strcmp("end", TokenString))

  001d3	b9 00 00 00 00	 mov	 ecx, OFFSET ?TokenString@@3PADA
  001d8	b8 00 00 00 00	 mov	 eax, OFFSET ??_C@_03JBJLGPFL@end?$AA@
  001dd	0f 1f 00	 npad	 3
$LL70@LoadData:
  001e0	8a 10		 mov	 dl, BYTE PTR [eax]
  001e2	3a 11		 cmp	 dl, BYTE PTR [ecx]
  001e4	75 1a		 jne	 SHORT $LN71@LoadData
  001e6	84 d2		 test	 dl, dl
  001e8	74 12		 je	 SHORT $LN72@LoadData
  001ea	8a 50 01	 mov	 dl, BYTE PTR [eax+1]
  001ed	3a 51 01	 cmp	 dl, BYTE PTR [ecx+1]
  001f0	75 0e		 jne	 SHORT $LN71@LoadData
  001f2	83 c0 02	 add	 eax, 2
  001f5	83 c1 02	 add	 ecx, 2
  001f8	84 d2		 test	 dl, dl
  001fa	75 e4		 jne	 SHORT $LL70@LoadData
$LN72@LoadData:
  001fc	33 c0		 xor	 eax, eax
  001fe	eb 05		 jmp	 SHORT $LN73@LoadData
$LN71@LoadData:
  00200	1b c0		 sbb	 eax, eax
  00202	83 c8 01	 or	 eax, 1
$LN73@LoadData:
  00205	8b 5d 08	 mov	 ebx, DWORD PTR _lpszFileName$[ebp]
  00208	85 c0		 test	 eax, eax
  0020a	0f 84 a5 fe ff
	ff		 je	 $LL2@LoadData

; 176  : 					{
; 177  : 						break;
; 178  : 					}
; 179  : 
; 180  : 					iState = (int)TokenNumber;

  00210	f3 0f 2c 1d 00
	00 00 00	 cvttss2si ebx, DWORD PTR ?TokenNumber@@3MA

; 181  : 
; 182  : 					Token = GetToken();

  00218	e8 00 00 00 00	 call	 ?GetToken@@YA?AW4SMDToken@@XZ ; GetToken

; 183  : 					iCondition = (int)TokenNumber;

  0021d	f3 0f 2c 3d 00
	00 00 00	 cvttss2si edi, DWORD PTR ?TokenNumber@@3MA

; 184  : 
; 185  : 					Token = GetToken();

  00225	e8 00 00 00 00	 call	 ?GetToken@@YA?AW4SMDToken@@XZ ; GetToken

; 186  : 					iValue = (int)TokenNumber;
; 187  : 
; 188  : 					if ( this->m_StateInfoCount < 0 ||

  0022a	8b 86 cc 01 00
	00		 mov	 eax, DWORD PTR [esi+460]
  00230	f3 0f 2c 0d 00
	00 00 00	 cvttss2si ecx, DWORD PTR ?TokenNumber@@3MA
  00238	85 c0		 test	 eax, eax
  0023a	78 3f		 js	 SHORT $LN21@LoadData
  0023c	83 f8 13	 cmp	 eax, 19			; 00000013H
  0023f	7d 3a		 jge	 SHORT $LN21@LoadData
; File c:\users\michel\desktop\source\gameserver\source\kanturustateinfo.h

; 30   : 		this->m_iState = iStateTimeInfo;

  00241	8d 04 80	 lea	 eax, DWORD PTR [eax+eax*4]
  00244	89 5c 86 54	 mov	 DWORD PTR [esi+eax*4+84], ebx

; 36   : 		this->m_iCondition = iCondition;

  00248	8b 86 cc 01 00
	00		 mov	 eax, DWORD PTR [esi+460]
  0024e	8d 04 80	 lea	 eax, DWORD PTR [eax+eax*4]
  00251	89 7c 86 58	 mov	 DWORD PTR [esi+eax*4+88], edi
; File c:\users\michel\desktop\source\gameserver\source\kanturubattleofmaya.cpp

; 200  : 					if ( iCondition == 1 )

  00255	83 ff 01	 cmp	 edi, 1
  00258	75 06		 jne	 SHORT $LN22@LoadData

; 201  : 					{
; 202  : 						iValue *= 1000;

  0025a	69 c9 e8 03 00
	00		 imul	 ecx, ecx, 1000
$LN22@LoadData:
; File c:\users\michel\desktop\source\gameserver\source\kanturustateinfo.h

; 47   : 		this->m_iValue = iValue;

  00260	8b 86 cc 01 00
	00		 mov	 eax, DWORD PTR [esi+460]
  00266	8d 04 80	 lea	 eax, DWORD PTR [eax+eax*4]
  00269	89 4c 86 5c	 mov	 DWORD PTR [esi+eax*4+92], ecx
; File c:\users\michel\desktop\source\gameserver\source\kanturubattleofmaya.cpp

; 206  : 					this->m_StateInfoCount++;

  0026d	ff 86 cc 01 00
	00		 inc	 DWORD PTR [esi+460]
  00273	8b 45 ec	 mov	 eax, DWORD PTR _iType$1$[ebp]
  00276	e9 89 fe ff ff	 jmp	 $LL4@LoadData
$LN21@LoadData:

; 189  : 						 this->m_StateInfoCount >= KANTURU_MAYA_STATE_INFO )
; 190  : 					{
; 191  : 						MsgBox("[ KANTURU ][ BattleOfMaya ] - Exceed Max State Time (%d)",

  0027b	50		 push	 eax
  0027c	68 00 00 00 00	 push	 OFFSET ??_C@_0DJ@NFMCCNGI@?$FL?5KANTURU?5?$FN?$FL?5BattleOfMaya?5?$FN?5?9?5Ex@
  00281	e8 00 00 00 00	 call	 ?MsgBox@@YAXPADZZ	; MsgBox

; 192  : 							this->m_StateInfoCount);
; 193  : 
; 194  : 						break;

  00286	8b 5d 08	 mov	 ebx, DWORD PTR _lpszFileName$[ebp]
  00289	83 c4 08	 add	 esp, 8
  0028c	e9 24 fe ff ff	 jmp	 $LL2@LoadData
$LN17@LoadData:

; 207  : 				}
; 208  : 				else if ( iType == 4 )

  00291	83 f8 04	 cmp	 eax, 4
  00294	0f 85 91 00 00
	00		 jne	 $LN23@LoadData

; 209  : 				{
; 210  : 					int iValue = 0;
; 211  : 
; 212  : 					Token = GetToken();

  0029a	e8 00 00 00 00	 call	 ?GetToken@@YA?AW4SMDToken@@XZ ; GetToken

; 213  : 
; 214  : 					if ( !strcmp("end", TokenString))

  0029f	b9 00 00 00 00	 mov	 ecx, OFFSET ?TokenString@@3PADA
  002a4	b8 00 00 00 00	 mov	 eax, OFFSET ??_C@_03JBJLGPFL@end?$AA@
  002a9	0f 1f 80 00 00
	00 00		 npad	 7
$LL74@LoadData:
  002b0	8a 10		 mov	 dl, BYTE PTR [eax]
  002b2	3a 11		 cmp	 dl, BYTE PTR [ecx]
  002b4	75 1a		 jne	 SHORT $LN75@LoadData
  002b6	84 d2		 test	 dl, dl
  002b8	74 12		 je	 SHORT $LN76@LoadData
  002ba	8a 50 01	 mov	 dl, BYTE PTR [eax+1]
  002bd	3a 51 01	 cmp	 dl, BYTE PTR [ecx+1]
  002c0	75 0e		 jne	 SHORT $LN75@LoadData
  002c2	83 c0 02	 add	 eax, 2
  002c5	83 c1 02	 add	 ecx, 2
  002c8	84 d2		 test	 dl, dl
  002ca	75 e4		 jne	 SHORT $LL74@LoadData
$LN76@LoadData:
  002cc	33 c0		 xor	 eax, eax
  002ce	eb 05		 jmp	 SHORT $LN77@LoadData
$LN75@LoadData:
  002d0	1b c0		 sbb	 eax, eax
  002d2	83 c8 01	 or	 eax, 1
$LN77@LoadData:
  002d5	8b 5d 08	 mov	 ebx, DWORD PTR _lpszFileName$[ebp]
  002d8	85 c0		 test	 eax, eax
  002da	0f 84 d5 fd ff
	ff		 je	 $LL2@LoadData

; 215  : 					{
; 216  : 						break;
; 217  : 					}
; 218  : 
; 219  : 					iValue = (int)TokenNumber;
; 220  : 
; 221  : 					if ( this->m_iMayaHandAIChangeTimeCount < 0 ||

  002e0	8b 8e 0c 02 00
	00		 mov	 ecx, DWORD PTR [esi+524]
  002e6	f3 0f 2c 05 00
	00 00 00	 cvttss2si eax, DWORD PTR ?TokenNumber@@3MA
  002ee	85 c9		 test	 ecx, ecx
  002f0	78 20		 js	 SHORT $LN27@LoadData
  002f2	83 f9 04	 cmp	 ecx, 4
  002f5	7d 1b		 jge	 SHORT $LN27@LoadData

; 228  : 					}
; 229  : 					
; 230  : 					this->m_iMayaHandAIChangeTime[this->m_iMayaHandAIChangeTimeCount] = iValue * 1000;

  002f7	69 c0 e8 03 00
	00		 imul	 eax, eax, 1000
  002fd	89 84 8e fc 01
	00 00		 mov	 DWORD PTR [esi+ecx*4+508], eax

; 231  : 					this->m_iMayaHandAIChangeTimeCount++;

  00304	ff 86 0c 02 00
	00		 inc	 DWORD PTR [esi+524]
  0030a	8b 45 ec	 mov	 eax, DWORD PTR _iType$1$[ebp]
  0030d	e9 f2 fd ff ff	 jmp	 $LL4@LoadData
$LN27@LoadData:

; 222  : 						 this->m_iMayaHandAIChangeTimeCount >= KANTURU_MAYA_AI_CHANGE_TIME )
; 223  : 					{
; 224  : 						MsgBox("[ KANTURU ][ BattleOfMaya ] - Exceed Maya Hand AI Change Time(%d)",

  00312	8d 86 fc 01 00
	00		 lea	 eax, DWORD PTR [esi+508]
  00318	50		 push	 eax
  00319	68 00 00 00 00	 push	 OFFSET ??_C@_0EC@DMJEACFN@?$FL?5KANTURU?5?$FN?$FL?5BattleOfMaya?5?$FN?5?9?5Ex@
  0031e	e8 00 00 00 00	 call	 ?MsgBox@@YAXPADZZ	; MsgBox
  00323	83 c4 08	 add	 esp, 8

; 225  : 							this->m_iMayaHandAIChangeTime);
; 226  : 
; 227  : 						break;

  00326	e9 8a fd ff ff	 jmp	 $LL2@LoadData
$LN23@LoadData:

; 232  : 				}
; 233  : 				else if ( iType == 5 )

  0032b	83 f8 05	 cmp	 eax, 5
  0032e	75 7f		 jne	 SHORT $LN28@LoadData

; 234  : 				{
; 235  : 					int iValue = 0;
; 236  : 
; 237  : 					Token = GetToken();

  00330	e8 00 00 00 00	 call	 ?GetToken@@YA?AW4SMDToken@@XZ ; GetToken

; 238  : 
; 239  : 					if ( !strcmp("end", TokenString))

  00335	b9 00 00 00 00	 mov	 ecx, OFFSET ?TokenString@@3PADA
  0033a	b8 00 00 00 00	 mov	 eax, OFFSET ??_C@_03JBJLGPFL@end?$AA@
  0033f	90		 npad	 1
$LL78@LoadData:
  00340	8a 10		 mov	 dl, BYTE PTR [eax]
  00342	3a 11		 cmp	 dl, BYTE PTR [ecx]
  00344	75 1a		 jne	 SHORT $LN79@LoadData
  00346	84 d2		 test	 dl, dl
  00348	74 12		 je	 SHORT $LN80@LoadData
  0034a	8a 50 01	 mov	 dl, BYTE PTR [eax+1]
  0034d	3a 51 01	 cmp	 dl, BYTE PTR [ecx+1]
  00350	75 0e		 jne	 SHORT $LN79@LoadData
  00352	83 c0 02	 add	 eax, 2
  00355	83 c1 02	 add	 ecx, 2
  00358	84 d2		 test	 dl, dl
  0035a	75 e4		 jne	 SHORT $LL78@LoadData
$LN80@LoadData:
  0035c	33 c0		 xor	 eax, eax
  0035e	eb 05		 jmp	 SHORT $LN81@LoadData
$LN79@LoadData:
  00360	1b c0		 sbb	 eax, eax
  00362	83 c8 01	 or	 eax, 1
$LN81@LoadData:
  00365	8b 5d 08	 mov	 ebx, DWORD PTR _lpszFileName$[ebp]
  00368	85 c0		 test	 eax, eax
  0036a	0f 84 45 fd ff
	ff		 je	 $LL2@LoadData

; 240  : 					{
; 241  : 						break;
; 242  : 					}
; 243  : 
; 244  : 					iValue = (int)TokenNumber;
; 245  : 
; 246  : 					if ( this->m_iMayaHAndGroupNumberCount < 0 ||

  00370	8b 86 24 02 00
	00		 mov	 eax, DWORD PTR [esi+548]
  00376	f3 0f 2c 0d 00
	00 00 00	 cvttss2si ecx, DWORD PTR ?TokenNumber@@3MA
  0037e	85 c0		 test	 eax, eax
  00380	78 1a		 js	 SHORT $LN32@LoadData
  00382	83 f8 03	 cmp	 eax, 3
  00385	7d 15		 jge	 SHORT $LN32@LoadData

; 253  : 					}
; 254  : 					
; 255  : 					this->m_iMayaHandGroupNumber[this->m_iMayaHAndGroupNumberCount] = iValue;

  00387	89 8c 86 18 02
	00 00		 mov	 DWORD PTR [esi+eax*4+536], ecx

; 256  : 					this->m_iMayaHAndGroupNumberCount++;

  0038e	ff 86 24 02 00
	00		 inc	 DWORD PTR [esi+548]
  00394	8b 45 ec	 mov	 eax, DWORD PTR _iType$1$[ebp]
  00397	e9 68 fd ff ff	 jmp	 $LL4@LoadData
$LN32@LoadData:

; 247  : 						 this->m_iMayaHAndGroupNumberCount >= KANTURU_MAYA_GROUP_NUMBER )
; 248  : 					{
; 249  : 						MsgBox("[ KANTURU ][ BattleOfMaya ] - Maya Hand AI Group Read Error(%d)",

  0039c	50		 push	 eax
  0039d	68 00 00 00 00	 push	 OFFSET ??_C@_0EA@DAGPCMG@?$FL?5KANTURU?5?$FN?$FL?5BattleOfMaya?5?$FN?5?9?5Ma@
  003a2	e8 00 00 00 00	 call	 ?MsgBox@@YAXPADZZ	; MsgBox
  003a7	83 c4 08	 add	 esp, 8

; 250  : 							this->m_iMayaHAndGroupNumberCount);
; 251  : 
; 252  : 						break;

  003aa	e9 06 fd ff ff	 jmp	 $LL2@LoadData
$LN28@LoadData:

; 257  : 				}
; 258  : 				else if ( iType == 6 )

  003af	83 f8 06	 cmp	 eax, 6
  003b2	0f 85 ab 00 00
	00		 jne	 $LN33@LoadData

; 259  : 				{
; 260  : 					int iValue = 0;
; 261  : 
; 262  : 					Token = GetToken();

  003b8	e8 00 00 00 00	 call	 ?GetToken@@YA?AW4SMDToken@@XZ ; GetToken

; 263  : 
; 264  : 					if ( !strcmp("end", TokenString))

  003bd	b9 00 00 00 00	 mov	 ecx, OFFSET ?TokenString@@3PADA
  003c2	b8 00 00 00 00	 mov	 eax, OFFSET ??_C@_03JBJLGPFL@end?$AA@
$LL82@LoadData:
  003c7	8a 10		 mov	 dl, BYTE PTR [eax]
  003c9	3a 11		 cmp	 dl, BYTE PTR [ecx]
  003cb	75 1a		 jne	 SHORT $LN83@LoadData
  003cd	84 d2		 test	 dl, dl
  003cf	74 12		 je	 SHORT $LN84@LoadData
  003d1	8a 50 01	 mov	 dl, BYTE PTR [eax+1]
  003d4	3a 51 01	 cmp	 dl, BYTE PTR [ecx+1]
  003d7	75 0e		 jne	 SHORT $LN83@LoadData
  003d9	83 c0 02	 add	 eax, 2
  003dc	83 c1 02	 add	 ecx, 2
  003df	84 d2		 test	 dl, dl
  003e1	75 e4		 jne	 SHORT $LL82@LoadData
$LN84@LoadData:
  003e3	33 c0		 xor	 eax, eax
  003e5	eb 05		 jmp	 SHORT $LN85@LoadData
$LN83@LoadData:
  003e7	1b c0		 sbb	 eax, eax
  003e9	83 c8 01	 or	 eax, 1
$LN85@LoadData:
  003ec	8b 5d 08	 mov	 ebx, DWORD PTR _lpszFileName$[ebp]
  003ef	85 c0		 test	 eax, eax
  003f1	0f 84 be fc ff
	ff		 je	 $LL2@LoadData

; 265  : 					{
; 266  : 						break;
; 267  : 					}
; 268  : 
; 269  : 					iValue = (int)TokenNumber;

  003f7	f3 0f 2c 05 00
	00 00 00	 cvttss2si eax, DWORD PTR ?TokenNumber@@3MA

; 270  : 
; 271  : 					if ( iValue < 0 )

  003ff	85 c0		 test	 eax, eax
  00401	79 13		 jns	 SHORT $LN36@LoadData

; 272  : 					{
; 273  : 						MsgBox("[ KANTURU ][ BattleOfMaya ] - Maya IceStorm Using Rate Load Error(%d)",

  00403	50		 push	 eax
  00404	68 00 00 00 00	 push	 OFFSET ??_C@_0EG@MJODBFHP@?$FL?5KANTURU?5?$FN?$FL?5BattleOfMaya?5?$FN?5?9?5Ma@
  00409	e8 00 00 00 00	 call	 ?MsgBox@@YAXPADZZ	; MsgBox
  0040e	83 c4 08	 add	 esp, 8

; 274  : 							iValue);
; 275  : 
; 276  : 						iValue = 60;

  00411	b8 3c 00 00 00	 mov	 eax, 60			; 0000003cH
$LN36@LoadData:

; 277  : 					}
; 278  : 					
; 279  : 					this->m_iMayaIceStormUsingRate = iValue;
; 280  : 					
; 281  : 					LogAddTD("[ KANTURU ][ BattleOfMaya ] IceStorm Using Rate Load: %d",

  00416	50		 push	 eax
  00417	68 00 00 00 00	 push	 OFFSET ??_C@_0DJ@DJFAMIGH@?$FL?5KANTURU?5?$FN?$FL?5BattleOfMaya?5?$FN?5IceS@
  0041c	89 86 28 02 00
	00		 mov	 DWORD PTR [esi+552], eax
  00422	ff 15 00 00 00
	00		 call	 DWORD PTR ?LogAddTD@@3P6AXPADZZA ; LogAddTD

; 282  : 						this->m_iMayaIceStormUsingRate);
; 283  : 				}
; 284  : 				else

  00428	8b 45 ec	 mov	 eax, DWORD PTR _iType$1$[ebp]
  0042b	83 c4 08	 add	 esp, 8
  0042e	e9 d1 fc ff ff	 jmp	 $LL4@LoadData
__catch$?LoadData@CKanturuBattleOfMaya@@QAEHPAD@Z$0:

; 301  : 	}	// __try
; 302  : 	catch ( DWORD )
; 303  : 	{
; 304  : 		MsgBox("[ KANTURU ][ BattleOfMaya ] - Loading Exception Error (%s) File. ", lpszFileName);

  00433	ff 75 08	 push	 DWORD PTR _lpszFileName$[ebp]
  00436	68 00 00 00 00	 push	 OFFSET ??_C@_0EC@IDACLHLE@?$FL?5KANTURU?5?$FN?$FL?5BattleOfMaya?5?$FN?5?9?5Lo@
  0043b	e8 00 00 00 00	 call	 ?MsgBox@@YAXPADZZ	; MsgBox
  00440	83 c4 08	 add	 esp, 8

; 305  : 	}

  00443	b8 00 00 00 00	 mov	 eax, $LN90@LoadData
  00448	c3		 ret	 0
$LN90@LoadData:
  00449	8b 75 e8	 mov	 esi, DWORD PTR _this$[ebp]

; 306  : 
; 307  : 	return this->m_bFileDataLoad;

  0044c	8b 46 04	 mov	 eax, DWORD PTR [esi+4]

; 308  : }

  0044f	8b 4d f4	 mov	 ecx, DWORD PTR __$EHRec$[ebp+4]
  00452	64 89 0d 00 00
	00 00		 mov	 DWORD PTR fs:0, ecx
  00459	59		 pop	 ecx
  0045a	5f		 pop	 edi
  0045b	5e		 pop	 esi
  0045c	5b		 pop	 ebx
  0045d	8b e5		 mov	 esp, ebp
  0045f	5d		 pop	 ebp
  00460	c2 04 00	 ret	 4
$LN33@LoadData:

; 285  : 				{
; 286  : 					Token = GetToken();

  00463	e8 00 00 00 00	 call	 ?GetToken@@YA?AW4SMDToken@@XZ ; GetToken

; 287  : 
; 288  : 					if ( !strcmp("end", TokenString))

  00468	b9 00 00 00 00	 mov	 ecx, OFFSET ?TokenString@@3PADA
  0046d	b8 00 00 00 00	 mov	 eax, OFFSET ??_C@_03JBJLGPFL@end?$AA@
$LL86@LoadData:
  00472	8a 10		 mov	 dl, BYTE PTR [eax]
  00474	3a 11		 cmp	 dl, BYTE PTR [ecx]
  00476	75 1a		 jne	 SHORT $LN87@LoadData
  00478	84 d2		 test	 dl, dl
  0047a	74 12		 je	 SHORT $LN88@LoadData
  0047c	8a 50 01	 mov	 dl, BYTE PTR [eax+1]
  0047f	3a 51 01	 cmp	 dl, BYTE PTR [ecx+1]
  00482	75 0e		 jne	 SHORT $LN87@LoadData
  00484	83 c0 02	 add	 eax, 2
  00487	83 c1 02	 add	 ecx, 2
  0048a	84 d2		 test	 dl, dl
  0048c	75 e4		 jne	 SHORT $LL86@LoadData
$LN88@LoadData:
  0048e	33 c0		 xor	 eax, eax
  00490	eb 05		 jmp	 SHORT $LN89@LoadData
$LN87@LoadData:
  00492	1b c0		 sbb	 eax, eax
  00494	83 c8 01	 or	 eax, 1
$LN89@LoadData:
  00497	85 c0		 test	 eax, eax
  00499	8b 45 ec	 mov	 eax, DWORD PTR _iType$1$[ebp]
  0049c	0f 85 62 fc ff
	ff		 jne	 $LL4@LoadData

; 289  : 					{
; 290  : 						break;
; 291  : 					}
; 292  : 				}
; 293  : 			}	// while ( true )
; 294  : 		}	// while ( true )

  004a2	8b 5d 08	 mov	 ebx, DWORD PTR _lpszFileName$[ebp]
  004a5	e9 0b fc ff ff	 jmp	 $LL2@LoadData
$LN7@LoadData:

; 90   : 	{
; 91   : 		MsgBox("[ KANTURU ][ BattleOfMaya ] - File load error : File Name Error");

  004aa	68 00 00 00 00	 push	 OFFSET ??_C@_0EA@GJKFHDBF@?$FL?5KANTURU?5?$FN?$FL?5BattleOfMaya?5?$FN?5?9?5Fi@
  004af	e8 00 00 00 00	 call	 ?MsgBox@@YAXPADZZ	; MsgBox
  004b4	83 c4 04	 add	 esp, 4
$LN92@LoadData:

; 92   : 		return FALSE;

  004b7	33 c0		 xor	 eax, eax

; 308  : }

  004b9	8b 4d f4	 mov	 ecx, DWORD PTR __$EHRec$[ebp+4]
  004bc	64 89 0d 00 00
	00 00		 mov	 DWORD PTR fs:0, ecx
  004c3	59		 pop	 ecx
  004c4	5f		 pop	 edi
  004c5	5e		 pop	 esi
  004c6	5b		 pop	 ebx
  004c7	8b e5		 mov	 esp, ebp
  004c9	5d		 pop	 ebp
  004ca	c2 04 00	 ret	 4
_TEXT	ENDS
;	COMDAT text$x
text$x	SEGMENT
__ehhandler$?LoadData@CKanturuBattleOfMaya@@QAEHPAD@Z:
  00000	8b 54 24 08	 mov	 edx, DWORD PTR [esp+8]
  00004	8d 42 0c	 lea	 eax, DWORD PTR [edx+12]
  00007	8b 4a e4	 mov	 ecx, DWORD PTR [edx-28]
  0000a	33 c8		 xor	 ecx, eax
  0000c	e8 00 00 00 00	 call	 @__security_check_cookie@4
  00011	b8 00 00 00 00	 mov	 eax, OFFSET __ehfuncinfo$?LoadData@CKanturuBattleOfMaya@@QAEHPAD@Z
  00016	e9 00 00 00 00	 jmp	 ___CxxFrameHandler3
text$x	ENDS
?LoadData@CKanturuBattleOfMaya@@QAEHPAD@Z ENDP		; CKanturuBattleOfMaya::LoadData
; Function compile flags: /Ogtp
; File c:\users\michel\desktop\source\gameserver\source\kanturubattleofmaya.cpp
; File c:\users\michel\desktop\source\gameserver\source\kanturustateinfo.h
; File c:\users\michel\desktop\source\gameserver\source\kanturubattleofmaya.cpp
; File c:\users\michel\desktop\source\gameserver\source\kanturustateinfo.h
; File c:\users\michel\desktop\source\gameserver\source\kanturubattleofmaya.cpp
; File c:\users\michel\desktop\source\gameserver\source\kanturustateinfo.h
; File c:\users\michel\desktop\source\gameserver\source\kanturubattleofmaya.cpp
; File c:\users\michel\desktop\source\gameserver\source\kanturubattleofmaya.h
; File c:\users\michel\desktop\source\gameserver\source\kanturubattleofmaya.cpp
;	COMDAT ?ResetAllData@CKanturuBattleOfMaya@@QAEXXZ
_TEXT	SEGMENT
?ResetAllData@CKanturuBattleOfMaya@@QAEXXZ PROC		; CKanturuBattleOfMaya::ResetAllData, COMDAT
; _this$ = ecx

; 59   : 	this->m_bFileDataLoad = FALSE;

  00000	c7 41 04 00 00
	00 00		 mov	 DWORD PTR [ecx+4], 0
  00007	8d 41 58	 lea	 eax, DWORD PTR [ecx+88]
; File c:\users\michel\desktop\source\gameserver\source\kanturustateinfo.h

; 30   : 		this->m_iState = iStateTimeInfo;

  0000a	c7 41 14 00 00
	00 00		 mov	 DWORD PTR [ecx+20], 0
; File c:\users\michel\desktop\source\gameserver\source\kanturubattleofmaya.cpp

; 59   : 	this->m_bFileDataLoad = FALSE;

  00011	ba 13 00 00 00	 mov	 edx, 19			; 00000013H
; File c:\users\michel\desktop\source\gameserver\source\kanturustateinfo.h

; 36   : 		this->m_iCondition = iCondition;

  00016	c7 41 18 00 00
	00 00		 mov	 DWORD PTR [ecx+24], 0

; 37   : 	}
; 38   : 
; 39   : 
; 40   : 	int GetCondition()
; 41   : 	{
; 42   : 		return this->m_iCondition;
; 43   : 	}
; 44   : 
; 45   : 	void SetValue(int iValue)
; 46   : 	{
; 47   : 		this->m_iValue = iValue;

  0001d	c7 41 1c 00 00
	00 00		 mov	 DWORD PTR [ecx+28], 0

; 30   : 		this->m_iState = iStateTimeInfo;

  00024	c7 41 28 00 00
	00 00		 mov	 DWORD PTR [ecx+40], 0

; 36   : 		this->m_iCondition = iCondition;

  0002b	c7 41 2c 00 00
	00 00		 mov	 DWORD PTR [ecx+44], 0

; 37   : 	}
; 38   : 
; 39   : 
; 40   : 	int GetCondition()
; 41   : 	{
; 42   : 		return this->m_iCondition;
; 43   : 	}
; 44   : 
; 45   : 	void SetValue(int iValue)
; 46   : 	{
; 47   : 		this->m_iValue = iValue;

  00032	c7 41 30 00 00
	00 00		 mov	 DWORD PTR [ecx+48], 0

; 30   : 		this->m_iState = iStateTimeInfo;

  00039	c7 41 3c 00 00
	00 00		 mov	 DWORD PTR [ecx+60], 0

; 36   : 		this->m_iCondition = iCondition;

  00040	c7 41 40 00 00
	00 00		 mov	 DWORD PTR [ecx+64], 0

; 37   : 	}
; 38   : 
; 39   : 
; 40   : 	int GetCondition()
; 41   : 	{
; 42   : 		return this->m_iCondition;
; 43   : 	}
; 44   : 
; 45   : 	void SetValue(int iValue)
; 46   : 	{
; 47   : 		this->m_iValue = iValue;

  00047	c7 41 44 00 00
	00 00		 mov	 DWORD PTR [ecx+68], 0
  0004e	66 90		 npad	 2
$LL7@ResetAllDa:

; 30   : 		this->m_iState = iStateTimeInfo;

  00050	c7 40 fc 00 00
	00 00		 mov	 DWORD PTR [eax-4], 0
; File c:\users\michel\desktop\source\gameserver\source\kanturubattleofmaya.cpp

; 67   : 	for ( iCount=0;iCount<KANTURU_MAYA_STATE_INFO;iCount++)

  00057	8d 40 14	 lea	 eax, DWORD PTR [eax+20]
; File c:\users\michel\desktop\source\gameserver\source\kanturustateinfo.h

; 36   : 		this->m_iCondition = iCondition;

  0005a	c7 40 ec 00 00
	00 00		 mov	 DWORD PTR [eax-20], 0

; 37   : 	}
; 38   : 
; 39   : 
; 40   : 	int GetCondition()
; 41   : 	{
; 42   : 		return this->m_iCondition;
; 43   : 	}
; 44   : 
; 45   : 	void SetValue(int iValue)
; 46   : 	{
; 47   : 		this->m_iValue = iValue;

  00061	c7 40 f0 00 00
	00 00		 mov	 DWORD PTR [eax-16], 0
; File c:\users\michel\desktop\source\gameserver\source\kanturubattleofmaya.cpp

; 67   : 	for ( iCount=0;iCount<KANTURU_MAYA_STATE_INFO;iCount++)

  00068	83 ea 01	 sub	 edx, 1
  0006b	75 e3		 jne	 SHORT $LL7@ResetAllDa

; 68   : 	{
; 69   : 		this->m_StateInfo[iCount].ResetTimeInfo();
; 70   : 	}
; 71   : 
; 72   : 	this->m_StateInfoCount = 0;

  0006d	89 91 cc 01 00
	00		 mov	 DWORD PTR [ecx+460], edx

; 73   : 	this->m_BattleTimeInfoCount = 0;

  00073	89 51 4c	 mov	 DWORD PTR [ecx+76], edx
; File c:\users\michel\desktop\source\gameserver\source\kanturubattleofmaya.h

; 102  : 	void SetSuccessValue(BOOL bIsSuccess){this->m_bIsSucccess = bIsSuccess;}

  00076	89 91 d4 01 00
	00		 mov	 DWORD PTR [ecx+468], edx

; 103  : 	BOOL GetSuccessValue(){return this->m_bIsSucccess;}
; 104  : 	void SetSceneSuccessValue(BOOL bIsSuccess){this->m_bIsSceneSuccess = bIsSuccess;}

  0007c	89 91 d8 01 00
	00		 mov	 DWORD PTR [ecx+472], edx

; 105  : 	BOOL GetSceneSuccessValue(){return this->m_bIsSceneSuccess;}
; 106  : 	void SetEntrancePermit(BOOL bEntrancePermit){this->m_bEntrancePermit = bEntrancePermit;}

  00082	89 91 d0 01 00
	00		 mov	 DWORD PTR [ecx+464], edx
; File c:\users\michel\desktop\source\gameserver\source\kanturubattleofmaya.cpp

; 79   : 	this->m_iMayaHandAIChangeTimeCount = 0;

  00088	89 91 0c 02 00
	00		 mov	 DWORD PTR [ecx+524], edx

; 80   : 	this->m_iMayaHAndGroupNumberCount = 0;

  0008e	89 91 24 02 00
	00		 mov	 DWORD PTR [ecx+548], edx

; 81   : 	this->m_iMayaIceStormUsingRate = 0;

  00094	89 91 28 02 00
	00		 mov	 DWORD PTR [ecx+552], edx

; 82   : }

  0009a	c3		 ret	 0
?ResetAllData@CKanturuBattleOfMaya@@QAEXXZ ENDP		; CKanturuBattleOfMaya::ResetAllData
_TEXT	ENDS
; Function compile flags: /Ogtp
; File c:\users\michel\desktop\source\gameserver\source\kanturubattleofmaya.cpp
;	COMDAT ??1CKanturuBattleOfMaya@@UAE@XZ
_TEXT	SEGMENT
__$EHRec$ = -12						; size = 12
??1CKanturuBattleOfMaya@@UAE@XZ PROC			; CKanturuBattleOfMaya::~CKanturuBattleOfMaya, COMDAT
; _this$ = ecx

; 52   : {

  00000	55		 push	 ebp
  00001	8b ec		 mov	 ebp, esp
  00003	6a ff		 push	 -1
  00005	68 00 00 00 00	 push	 __ehhandler$??1CKanturuBattleOfMaya@@UAE@XZ
  0000a	64 a1 00 00 00
	00		 mov	 eax, DWORD PTR fs:0
  00010	50		 push	 eax
  00011	56		 push	 esi
  00012	a1 00 00 00 00	 mov	 eax, DWORD PTR ___security_cookie
  00017	33 c5		 xor	 eax, ebp
  00019	50		 push	 eax
  0001a	8d 45 f4	 lea	 eax, DWORD PTR __$EHRec$[ebp]
  0001d	64 a3 00 00 00
	00		 mov	 DWORD PTR fs:0, eax
  00023	8b f1		 mov	 esi, ecx

; 53   : 	return;
; 54   : }

  00025	8d 8e dc 01 00
	00		 lea	 ecx, DWORD PTR [esi+476]
  0002b	c7 06 00 00 00
	00		 mov	 DWORD PTR [esi], OFFSET ??_7CKanturuBattleOfMaya@@6B@
  00031	e8 00 00 00 00	 call	 ??1CKanturuMaya@@UAE@XZ	; CKanturuMaya::~CKanturuMaya
  00036	68 00 00 00 00	 push	 OFFSET ??1CKanturuStateInfo@@UAE@XZ ; CKanturuStateInfo::~CKanturuStateInfo
  0003b	6a 13		 push	 19			; 00000013H
  0003d	6a 14		 push	 20			; 00000014H
  0003f	8d 46 50	 lea	 eax, DWORD PTR [esi+80]
  00042	50		 push	 eax
  00043	e8 00 00 00 00	 call	 ??_M@YGXPAXIIP6EX0@Z@Z
  00048	68 00 00 00 00	 push	 OFFSET ??1CKanturuStateInfo@@UAE@XZ ; CKanturuStateInfo::~CKanturuStateInfo
  0004d	6a 03		 push	 3
  0004f	6a 14		 push	 20			; 00000014H
  00051	8d 46 10	 lea	 eax, DWORD PTR [esi+16]
  00054	50		 push	 eax
  00055	e8 00 00 00 00	 call	 ??_M@YGXPAXIIP6EX0@Z@Z
  0005a	8b 4d f4	 mov	 ecx, DWORD PTR __$EHRec$[ebp]
  0005d	64 89 0d 00 00
	00 00		 mov	 DWORD PTR fs:0, ecx
  00064	59		 pop	 ecx
  00065	5e		 pop	 esi
  00066	8b e5		 mov	 esp, ebp
  00068	5d		 pop	 ebp
  00069	c3		 ret	 0
_TEXT	ENDS
;	COMDAT text$x
text$x	SEGMENT
__ehhandler$??1CKanturuBattleOfMaya@@UAE@XZ:
  00000	8b 54 24 08	 mov	 edx, DWORD PTR [esp+8]
  00004	8d 42 0c	 lea	 eax, DWORD PTR [edx+12]
  00007	8b 4a f8	 mov	 ecx, DWORD PTR [edx-8]
  0000a	33 c8		 xor	 ecx, eax
  0000c	e8 00 00 00 00	 call	 @__security_check_cookie@4
  00011	b8 00 00 00 00	 mov	 eax, OFFSET __ehfuncinfo$??1CKanturuBattleOfMaya@@UAE@XZ
  00016	e9 00 00 00 00	 jmp	 ___CxxFrameHandler3
text$x	ENDS
??1CKanturuBattleOfMaya@@UAE@XZ ENDP			; CKanturuBattleOfMaya::~CKanturuBattleOfMaya
; Function compile flags: /Ogtp
; File c:\users\michel\desktop\source\gameserver\source\kanturubattleofmaya.cpp
; File c:\users\michel\desktop\source\gameserver\source\kanturubattleofmaya.h
; File c:\users\michel\desktop\source\gameserver\source\kanturubattleofmaya.cpp
; File c:\users\michel\desktop\source\gameserver\source\kanturubattleofmaya.h
; File c:\users\michel\desktop\source\gameserver\source\kanturubattleofmaya.cpp
;	COMDAT ??0CKanturuBattleOfMaya@@QAE@XZ
_TEXT	SEGMENT
_this$ = -16						; size = 4
__$EHRec$ = -12						; size = 12
??0CKanturuBattleOfMaya@@QAE@XZ PROC			; CKanturuBattleOfMaya::CKanturuBattleOfMaya, COMDAT
; _this$ = ecx

; 24   : {

  00000	55		 push	 ebp
  00001	8b ec		 mov	 ebp, esp
  00003	6a ff		 push	 -1
  00005	68 00 00 00 00	 push	 __ehhandler$??0CKanturuBattleOfMaya@@QAE@XZ
  0000a	64 a1 00 00 00
	00		 mov	 eax, DWORD PTR fs:0
  00010	50		 push	 eax
  00011	51		 push	 ecx
  00012	56		 push	 esi
  00013	a1 00 00 00 00	 mov	 eax, DWORD PTR ___security_cookie
  00018	33 c5		 xor	 eax, ebp
  0001a	50		 push	 eax
  0001b	8d 45 f4	 lea	 eax, DWORD PTR __$EHRec$[ebp]
  0001e	64 a3 00 00 00
	00		 mov	 DWORD PTR fs:0, eax
  00024	8b f1		 mov	 esi, ecx
  00026	89 75 f0	 mov	 DWORD PTR _this$[ebp], esi
  00029	68 00 00 00 00	 push	 OFFSET ??1CKanturuStateInfo@@UAE@XZ ; CKanturuStateInfo::~CKanturuStateInfo
  0002e	68 00 00 00 00	 push	 OFFSET ??0CKanturuStateInfo@@QAE@XZ ; CKanturuStateInfo::CKanturuStateInfo
  00033	6a 03		 push	 3
  00035	6a 14		 push	 20			; 00000014H
  00037	8d 46 10	 lea	 eax, DWORD PTR [esi+16]
  0003a	c7 06 00 00 00
	00		 mov	 DWORD PTR [esi], OFFSET ??_7CKanturuBattleOfMaya@@6B@
  00040	50		 push	 eax
  00041	e8 00 00 00 00	 call	 ??_L@YGXPAXIIP6EX0@Z1@Z
  00046	68 00 00 00 00	 push	 OFFSET ??1CKanturuStateInfo@@UAE@XZ ; CKanturuStateInfo::~CKanturuStateInfo
  0004b	68 00 00 00 00	 push	 OFFSET ??0CKanturuStateInfo@@QAE@XZ ; CKanturuStateInfo::CKanturuStateInfo
  00050	6a 13		 push	 19			; 00000013H
  00052	6a 14		 push	 20			; 00000014H
  00054	8d 46 50	 lea	 eax, DWORD PTR [esi+80]
  00057	c7 45 fc 00 00
	00 00		 mov	 DWORD PTR __$EHRec$[ebp+8], 0
  0005e	50		 push	 eax
  0005f	e8 00 00 00 00	 call	 ??_L@YGXPAXIIP6EX0@Z1@Z
  00064	8d 8e dc 01 00
	00		 lea	 ecx, DWORD PTR [esi+476]
  0006a	c6 45 fc 01	 mov	 BYTE PTR __$EHRec$[ebp+8], 1
  0006e	e8 00 00 00 00	 call	 ??0CKanturuMaya@@QAE@XZ	; CKanturuMaya::CKanturuMaya
; File c:\users\michel\desktop\source\gameserver\source\kanturubattleofmaya.h

; 93   : 	void SetBattleOfMayaState(int iState){this->m_iBattleOfMayaState = iState;}

  00073	c7 46 08 00 00
	00 00		 mov	 DWORD PTR [esi+8], 0
; File c:\users\michel\desktop\source\gameserver\source\kanturubattleofmaya.cpp

; 45   : 	this->ResetAllData();

  0007a	8b ce		 mov	 ecx, esi
; File c:\users\michel\desktop\source\gameserver\source\kanturubattleofmaya.h

; 97   : 		this->m_iSceneState = iScene;

  0007c	c7 46 0c ff ff
	ff ff		 mov	 DWORD PTR [esi+12], -1

; 98   : 		this->m_bIsSceneSuccess = FALSE;

  00083	c7 86 d8 01 00
	00 00 00 00 00	 mov	 DWORD PTR [esi+472], 0
; File c:\users\michel\desktop\source\gameserver\source\kanturubattleofmaya.cpp

; 27   : 	this->m_iMayaLeftHandObjIndex = -1;

  0008d	c7 86 f4 01 00
	00 ff ff ff ff	 mov	 DWORD PTR [esi+500], -1

; 28   : 	this->m_iMayaRightHandObjIndex = -1;

  00097	c7 86 f8 01 00
	00 ff ff ff ff	 mov	 DWORD PTR [esi+504], -1

; 29   : 
; 30   : 	int iCount;
; 31   : 	for ( iCount=0;iCount<KANTURU_MAYA_AI_CHANGE_TIME;iCount++)
; 32   : 	{
; 33   : 		this->m_iMayaHandAIChangeTime[iCount] = -1;

  000a1	c7 86 fc 01 00
	00 ff ff ff ff	 mov	 DWORD PTR [esi+508], -1
  000ab	c7 86 00 02 00
	00 ff ff ff ff	 mov	 DWORD PTR [esi+512], -1
  000b5	c7 86 04 02 00
	00 ff ff ff ff	 mov	 DWORD PTR [esi+516], -1
  000bf	c7 86 08 02 00
	00 ff ff ff ff	 mov	 DWORD PTR [esi+520], -1

; 34   : 	}
; 35   : 
; 36   : 	this->m_iMayaHandAIAppliedTime = 0;

  000c9	c7 86 10 02 00
	00 00 00 00 00	 mov	 DWORD PTR [esi+528], 0

; 37   : 	this->m_iMayaHandCurrentAI = 0;

  000d3	c7 86 14 02 00
	00 00 00 00 00	 mov	 DWORD PTR [esi+532], 0

; 38   : 
; 39   : 	for ( iCount=0;iCount<KANTURU_MAYA_GROUP_NUMBER;iCount++)
; 40   : 	{
; 41   : 		this->m_iMayaHandGroupNumber[iCount] = -1;

  000dd	c7 86 18 02 00
	00 ff ff ff ff	 mov	 DWORD PTR [esi+536], -1
  000e7	c7 86 1c 02 00
	00 ff ff ff ff	 mov	 DWORD PTR [esi+540], -1
  000f1	c7 86 20 02 00
	00 ff ff ff ff	 mov	 DWORD PTR [esi+544], -1

; 42   : 	}
; 43   : 
; 44   : 	this->m_iMayaHandDieTimeCounter = 0;

  000fb	c7 86 f0 01 00
	00 00 00 00 00	 mov	 DWORD PTR [esi+496], 0

; 45   : 	this->ResetAllData();

  00105	e8 00 00 00 00	 call	 ?ResetAllData@CKanturuBattleOfMaya@@QAEXXZ ; CKanturuBattleOfMaya::ResetAllData

; 46   : }

  0010a	8b c6		 mov	 eax, esi
  0010c	8b 4d f4	 mov	 ecx, DWORD PTR __$EHRec$[ebp]
  0010f	64 89 0d 00 00
	00 00		 mov	 DWORD PTR fs:0, ecx
  00116	59		 pop	 ecx
  00117	5e		 pop	 esi
  00118	8b e5		 mov	 esp, ebp
  0011a	5d		 pop	 ebp
  0011b	c3		 ret	 0
_TEXT	ENDS
;	COMDAT text$x
text$x	SEGMENT
__unwindfunclet$??0CKanturuBattleOfMaya@@QAE@XZ$0:
  00000	68 00 00 00 00	 push	 OFFSET ??1CKanturuStateInfo@@UAE@XZ ; CKanturuStateInfo::~CKanturuStateInfo
  00005	6a 03		 push	 3
  00007	6a 14		 push	 20			; 00000014H
  00009	8b 45 f0	 mov	 eax, DWORD PTR _this$[ebp]
  0000c	83 c0 10	 add	 eax, 16			; 00000010H
  0000f	50		 push	 eax
  00010	e8 00 00 00 00	 call	 ??_M@YGXPAXIIP6EX0@Z@Z
  00015	c3		 ret	 0
__unwindfunclet$??0CKanturuBattleOfMaya@@QAE@XZ$1:
  00016	68 00 00 00 00	 push	 OFFSET ??1CKanturuStateInfo@@UAE@XZ ; CKanturuStateInfo::~CKanturuStateInfo
  0001b	6a 13		 push	 19			; 00000013H
  0001d	6a 14		 push	 20			; 00000014H
  0001f	8b 45 f0	 mov	 eax, DWORD PTR _this$[ebp]
  00022	83 c0 50	 add	 eax, 80			; 00000050H
  00025	50		 push	 eax
  00026	e8 00 00 00 00	 call	 ??_M@YGXPAXIIP6EX0@Z@Z
  0002b	c3		 ret	 0
__ehhandler$??0CKanturuBattleOfMaya@@QAE@XZ:
  0002c	8b 54 24 08	 mov	 edx, DWORD PTR [esp+8]
  00030	8d 42 0c	 lea	 eax, DWORD PTR [edx+12]
  00033	8b 4a f4	 mov	 ecx, DWORD PTR [edx-12]
  00036	33 c8		 xor	 ecx, eax
  00038	e8 00 00 00 00	 call	 @__security_check_cookie@4
  0003d	b8 00 00 00 00	 mov	 eax, OFFSET __ehfuncinfo$??0CKanturuBattleOfMaya@@QAE@XZ
  00042	e9 00 00 00 00	 jmp	 ___CxxFrameHandler3
text$x	ENDS
??0CKanturuBattleOfMaya@@QAE@XZ ENDP			; CKanturuBattleOfMaya::CKanturuBattleOfMaya
; Function compile flags: /Ogtp
; File c:\users\michel\desktop\source\gameserver\source\kanturumaya.h
;	COMDAT ?SetMayaObjIndex@CKanturuMaya@@QAEXH@Z
_TEXT	SEGMENT
_iIndex$ = 8						; size = 4
?SetMayaObjIndex@CKanturuMaya@@QAEXH@Z PROC		; CKanturuMaya::SetMayaObjIndex, COMDAT
; _this$ = ecx

; 23   : 	void SetMayaObjIndex(int iIndex){this->m_iMayaObjIndex = iIndex;}

  00000	55		 push	 ebp
  00001	8b ec		 mov	 ebp, esp
  00003	8b 45 08	 mov	 eax, DWORD PTR _iIndex$[ebp]
  00006	89 41 04	 mov	 DWORD PTR [ecx+4], eax
  00009	5d		 pop	 ebp
  0000a	c2 04 00	 ret	 4
?SetMayaObjIndex@CKanturuMaya@@QAEXH@Z ENDP		; CKanturuMaya::SetMayaObjIndex
_TEXT	ENDS
; Function compile flags: /Ogtp
; File c:\users\michel\desktop\source\gameserver\source\kanturustateinfo.h
;	COMDAT ?IsTimeOut@CKanturuStateInfo@@QAEHXZ
_TEXT	SEGMENT
?IsTimeOut@CKanturuStateInfo@@QAEHXZ PROC		; CKanturuStateInfo::IsTimeOut, COMDAT
; _this$ = ecx

; 91   : 	{

  00000	57		 push	 edi
  00001	8b f9		 mov	 edi, ecx

; 68   : 		return iElapsedTime;
; 69   : 	}
; 70   : 
; 71   : 	int GetRemainTime()
; 72   : 	{
; 73   : 		int iRemainTime = 0;
; 74   : 
; 75   : 		if ( this->GetCondition() == 1 )

  00003	83 7f 08 01	 cmp	 DWORD PTR [edi+8], 1
  00007	75 2f		 jne	 SHORT $LN14@IsTimeOut
  00009	56		 push	 esi

; 61   : 		return this->m_dwAppliedTickCount;

  0000a	8b 77 10	 mov	 esi, DWORD PTR [edi+16]

; 62   : 	}
; 63   : 
; 64   : 	//void __thiscall ResetAppliedTime();
; 65   : 	int GetElapsedTime()
; 66   : 	{
; 67   : 		int iElapsedTime = GetTickCount() - this->GetAppliedTime();

  0000d	ff 15 00 00 00
	00		 call	 DWORD PTR __imp__GetTickCount@0

; 76   : 		{
; 77   : 			iRemainTime = this->m_iValue - this->GetElapsedTime();

  00013	8b 4f 0c	 mov	 ecx, DWORD PTR [edi+12]

; 62   : 	}
; 63   : 
; 64   : 	//void __thiscall ResetAppliedTime();
; 65   : 	int GetElapsedTime()
; 66   : 	{
; 67   : 		int iElapsedTime = GetTickCount() - this->GetAppliedTime();

  00016	2b c6		 sub	 eax, esi

; 76   : 		{
; 77   : 			iRemainTime = this->m_iValue - this->GetElapsedTime();

  00018	2b c8		 sub	 ecx, eax
  0001a	5e		 pop	 esi

; 78   : 
; 79   : 			if ( iRemainTime <= 0 )

  0001b	85 c9		 test	 ecx, ecx
  0001d	7e 19		 jle	 SHORT $LN14@IsTimeOut

; 80   : 			{
; 81   : 				return 0;
; 82   : 			}
; 83   : 
; 84   : 			iRemainTime /= 1000;

  0001f	b8 d3 4d 62 10	 mov	 eax, 274877907		; 10624dd3H
  00024	f7 e9		 imul	 ecx
  00026	c1 fa 06	 sar	 edx, 6
  00029	8b c2		 mov	 eax, edx
  0002b	c1 e8 1f	 shr	 eax, 31			; 0000001fH
  0002e	03 c2		 add	 eax, edx

; 92   : 		if ( this->GetRemainTime() <= 0 )

  00030	85 c0		 test	 eax, eax
  00032	7e 04		 jle	 SHORT $LN14@IsTimeOut

; 95   : 		}
; 96   : 
; 97   : 		return FALSE;

  00034	33 c0		 xor	 eax, eax
  00036	5f		 pop	 edi

; 98   : 	}

  00037	c3		 ret	 0
$LN14@IsTimeOut:

; 93   : 		{
; 94   : 			return TRUE;

  00038	b8 01 00 00 00	 mov	 eax, 1
  0003d	5f		 pop	 edi

; 98   : 	}

  0003e	c3		 ret	 0
?IsTimeOut@CKanturuStateInfo@@QAEHXZ ENDP		; CKanturuStateInfo::IsTimeOut
_TEXT	ENDS
; Function compile flags: /Ogtp
; File c:\users\michel\desktop\source\gameserver\source\kanturustateinfo.h
;	COMDAT ?GetRemainTime@CKanturuStateInfo@@QAEHXZ
_TEXT	SEGMENT
?GetRemainTime@CKanturuStateInfo@@QAEHXZ PROC		; CKanturuStateInfo::GetRemainTime, COMDAT
; _this$ = ecx

; 72   : 	{

  00000	57		 push	 edi
  00001	8b f9		 mov	 edi, ecx

; 73   : 		int iRemainTime = 0;

  00003	33 c0		 xor	 eax, eax

; 74   : 
; 75   : 		if ( this->GetCondition() == 1 )

  00005	83 7f 08 01	 cmp	 DWORD PTR [edi+8], 1
  00009	75 2b		 jne	 SHORT $LN1@GetRemainT
  0000b	56		 push	 esi

; 61   : 		return this->m_dwAppliedTickCount;

  0000c	8b 77 10	 mov	 esi, DWORD PTR [edi+16]

; 62   : 	}
; 63   : 
; 64   : 	//void __thiscall ResetAppliedTime();
; 65   : 	int GetElapsedTime()
; 66   : 	{
; 67   : 		int iElapsedTime = GetTickCount() - this->GetAppliedTime();

  0000f	ff 15 00 00 00
	00		 call	 DWORD PTR __imp__GetTickCount@0

; 76   : 		{
; 77   : 			iRemainTime = this->m_iValue - this->GetElapsedTime();

  00015	8b 4f 0c	 mov	 ecx, DWORD PTR [edi+12]

; 62   : 	}
; 63   : 
; 64   : 	//void __thiscall ResetAppliedTime();
; 65   : 	int GetElapsedTime()
; 66   : 	{
; 67   : 		int iElapsedTime = GetTickCount() - this->GetAppliedTime();

  00018	2b c6		 sub	 eax, esi

; 76   : 		{
; 77   : 			iRemainTime = this->m_iValue - this->GetElapsedTime();

  0001a	2b c8		 sub	 ecx, eax
  0001c	5e		 pop	 esi

; 78   : 
; 79   : 			if ( iRemainTime <= 0 )

  0001d	85 c9		 test	 ecx, ecx
  0001f	7f 04		 jg	 SHORT $LN3@GetRemainT

; 80   : 			{
; 81   : 				return 0;

  00021	33 c0		 xor	 eax, eax
  00023	5f		 pop	 edi

; 85   : 		}
; 86   : 
; 87   : 		return iRemainTime;
; 88   : 	}

  00024	c3		 ret	 0
$LN3@GetRemainT:

; 82   : 			}
; 83   : 
; 84   : 			iRemainTime /= 1000;

  00025	b8 d3 4d 62 10	 mov	 eax, 274877907		; 10624dd3H
  0002a	f7 e9		 imul	 ecx
  0002c	c1 fa 06	 sar	 edx, 6
  0002f	8b c2		 mov	 eax, edx
  00031	c1 e8 1f	 shr	 eax, 31			; 0000001fH
  00034	03 c2		 add	 eax, edx
$LN1@GetRemainT:
  00036	5f		 pop	 edi

; 85   : 		}
; 86   : 
; 87   : 		return iRemainTime;
; 88   : 	}

  00037	c3		 ret	 0
?GetRemainTime@CKanturuStateInfo@@QAEHXZ ENDP		; CKanturuStateInfo::GetRemainTime
_TEXT	ENDS
; Function compile flags: /Ogtp
; File c:\users\michel\desktop\source\gameserver\source\kanturustateinfo.h
;	COMDAT ?GetElapsedTime@CKanturuStateInfo@@QAEHXZ
_TEXT	SEGMENT
?GetElapsedTime@CKanturuStateInfo@@QAEHXZ PROC		; CKanturuStateInfo::GetElapsedTime, COMDAT
; _this$ = ecx

; 66   : 	{

  00000	56		 push	 esi

; 61   : 		return this->m_dwAppliedTickCount;

  00001	8b 71 10	 mov	 esi, DWORD PTR [ecx+16]

; 67   : 		int iElapsedTime = GetTickCount() - this->GetAppliedTime();

  00004	ff 15 00 00 00
	00		 call	 DWORD PTR __imp__GetTickCount@0
  0000a	2b c6		 sub	 eax, esi
  0000c	5e		 pop	 esi

; 68   : 		return iElapsedTime;
; 69   : 	}

  0000d	c3		 ret	 0
?GetElapsedTime@CKanturuStateInfo@@QAEHXZ ENDP		; CKanturuStateInfo::GetElapsedTime
_TEXT	ENDS
; Function compile flags: /Ogtp
; File c:\users\michel\desktop\source\gameserver\source\kanturustateinfo.h
;	COMDAT ?GetAppliedTime@CKanturuStateInfo@@QAEHXZ
_TEXT	SEGMENT
?GetAppliedTime@CKanturuStateInfo@@QAEHXZ PROC		; CKanturuStateInfo::GetAppliedTime, COMDAT
; _this$ = ecx

; 61   : 		return this->m_dwAppliedTickCount;

  00000	8b 41 10	 mov	 eax, DWORD PTR [ecx+16]

; 62   : 	}

  00003	c3		 ret	 0
?GetAppliedTime@CKanturuStateInfo@@QAEHXZ ENDP		; CKanturuStateInfo::GetAppliedTime
_TEXT	ENDS
; Function compile flags: /Ogtp
; File c:\users\michel\desktop\source\gameserver\source\kanturustateinfo.h
;	COMDAT ?SetAppliedTime@CKanturuStateInfo@@QAEXXZ
_TEXT	SEGMENT
?SetAppliedTime@CKanturuStateInfo@@QAEXXZ PROC		; CKanturuStateInfo::SetAppliedTime, COMDAT
; _this$ = ecx

; 55   : 	{

  00000	56		 push	 esi
  00001	8b f1		 mov	 esi, ecx

; 56   : 		this->m_dwAppliedTickCount = GetTickCount();

  00003	ff 15 00 00 00
	00		 call	 DWORD PTR __imp__GetTickCount@0
  00009	89 46 10	 mov	 DWORD PTR [esi+16], eax
  0000c	5e		 pop	 esi

; 57   : 	}

  0000d	c3		 ret	 0
?SetAppliedTime@CKanturuStateInfo@@QAEXXZ ENDP		; CKanturuStateInfo::SetAppliedTime
_TEXT	ENDS
; Function compile flags: /Ogtp
; File c:\users\michel\desktop\source\gameserver\source\kanturustateinfo.h
;	COMDAT ?GetValue@CKanturuStateInfo@@QAEHXZ
_TEXT	SEGMENT
?GetValue@CKanturuStateInfo@@QAEHXZ PROC		; CKanturuStateInfo::GetValue, COMDAT
; _this$ = ecx

; 52   : 		return this->m_iValue;

  00000	8b 41 0c	 mov	 eax, DWORD PTR [ecx+12]

; 53   : 	}

  00003	c3		 ret	 0
?GetValue@CKanturuStateInfo@@QAEHXZ ENDP		; CKanturuStateInfo::GetValue
_TEXT	ENDS
; Function compile flags: /Ogtp
; File c:\users\michel\desktop\source\gameserver\source\kanturustateinfo.h
;	COMDAT ?SetValue@CKanturuStateInfo@@QAEXH@Z
_TEXT	SEGMENT
_iValue$ = 8						; size = 4
?SetValue@CKanturuStateInfo@@QAEXH@Z PROC		; CKanturuStateInfo::SetValue, COMDAT
; _this$ = ecx

; 46   : 	{

  00000	55		 push	 ebp
  00001	8b ec		 mov	 ebp, esp

; 47   : 		this->m_iValue = iValue;

  00003	8b 45 08	 mov	 eax, DWORD PTR _iValue$[ebp]
  00006	89 41 0c	 mov	 DWORD PTR [ecx+12], eax

; 48   : 	}

  00009	5d		 pop	 ebp
  0000a	c2 04 00	 ret	 4
?SetValue@CKanturuStateInfo@@QAEXH@Z ENDP		; CKanturuStateInfo::SetValue
_TEXT	ENDS
; Function compile flags: /Ogtp
; File c:\users\michel\desktop\source\gameserver\source\kanturustateinfo.h
;	COMDAT ?GetCondition@CKanturuStateInfo@@QAEHXZ
_TEXT	SEGMENT
?GetCondition@CKanturuStateInfo@@QAEHXZ PROC		; CKanturuStateInfo::GetCondition, COMDAT
; _this$ = ecx

; 42   : 		return this->m_iCondition;

  00000	8b 41 08	 mov	 eax, DWORD PTR [ecx+8]

; 43   : 	}

  00003	c3		 ret	 0
?GetCondition@CKanturuStateInfo@@QAEHXZ ENDP		; CKanturuStateInfo::GetCondition
_TEXT	ENDS
; Function compile flags: /Ogtp
; File c:\users\michel\desktop\source\gameserver\source\kanturustateinfo.h
;	COMDAT ?SetCondition@CKanturuStateInfo@@QAEXH@Z
_TEXT	SEGMENT
_iCondition$ = 8					; size = 4
?SetCondition@CKanturuStateInfo@@QAEXH@Z PROC		; CKanturuStateInfo::SetCondition, COMDAT
; _this$ = ecx

; 35   : 	{

  00000	55		 push	 ebp
  00001	8b ec		 mov	 ebp, esp

; 36   : 		this->m_iCondition = iCondition;

  00003	8b 45 08	 mov	 eax, DWORD PTR _iCondition$[ebp]
  00006	89 41 08	 mov	 DWORD PTR [ecx+8], eax

; 37   : 	}

  00009	5d		 pop	 ebp
  0000a	c2 04 00	 ret	 4
?SetCondition@CKanturuStateInfo@@QAEXH@Z ENDP		; CKanturuStateInfo::SetCondition
_TEXT	ENDS
; Function compile flags: /Ogtp
; File c:\users\michel\desktop\source\gameserver\source\kanturustateinfo.h
;	COMDAT ?SetStateInfo@CKanturuStateInfo@@QAEXH@Z
_TEXT	SEGMENT
_iStateTimeInfo$ = 8					; size = 4
?SetStateInfo@CKanturuStateInfo@@QAEXH@Z PROC		; CKanturuStateInfo::SetStateInfo, COMDAT
; _this$ = ecx

; 29   : 	{

  00000	55		 push	 ebp
  00001	8b ec		 mov	 ebp, esp

; 30   : 		this->m_iState = iStateTimeInfo;

  00003	8b 45 08	 mov	 eax, DWORD PTR _iStateTimeInfo$[ebp]
  00006	89 41 04	 mov	 DWORD PTR [ecx+4], eax

; 31   : 	}

  00009	5d		 pop	 ebp
  0000a	c2 04 00	 ret	 4
?SetStateInfo@CKanturuStateInfo@@QAEXH@Z ENDP		; CKanturuStateInfo::SetStateInfo
_TEXT	ENDS
; Function compile flags: /Ogtp
; File c:\users\michel\desktop\source\gameserver\source\kanturustateinfo.h
;	COMDAT ?ResetTimeInfo@CKanturuStateInfo@@QAEXXZ
_TEXT	SEGMENT
?ResetTimeInfo@CKanturuStateInfo@@QAEXXZ PROC		; CKanturuStateInfo::ResetTimeInfo, COMDAT
; _this$ = ecx

; 26   : 
; 27   : 
; 28   : 	void SetStateInfo(int iStateTimeInfo)
; 29   : 	{
; 30   : 		this->m_iState = iStateTimeInfo;

  00000	c7 41 04 00 00
	00 00		 mov	 DWORD PTR [ecx+4], 0

; 31   : 	}
; 32   : 
; 33   : 	//int __thiscall GetStateInfo();
; 34   : 	void SetCondition(int iCondition)
; 35   : 	{
; 36   : 		this->m_iCondition = iCondition;

  00007	c7 41 08 00 00
	00 00		 mov	 DWORD PTR [ecx+8], 0

; 37   : 	}
; 38   : 
; 39   : 
; 40   : 	int GetCondition()
; 41   : 	{
; 42   : 		return this->m_iCondition;
; 43   : 	}
; 44   : 
; 45   : 	void SetValue(int iValue)
; 46   : 	{
; 47   : 		this->m_iValue = iValue;

  0000e	c7 41 0c 00 00
	00 00		 mov	 DWORD PTR [ecx+12], 0

; 22   : 		this->SetStateInfo(0);
; 23   : 		this->SetCondition(0);
; 24   : 		this->SetValue(0);
; 25   : 	}

  00015	c3		 ret	 0
?ResetTimeInfo@CKanturuStateInfo@@QAEXXZ ENDP		; CKanturuStateInfo::ResetTimeInfo
_TEXT	ENDS
; Function compile flags: /Ogtp
; File c:\users\michel\desktop\source\gameserver\source\kanturubattleofmaya.cpp
;	COMDAT ?__empty_global_delete@@YAXPAXI@Z
_TEXT	SEGMENT
___formal$ = 8						; size = 4
___formal$ = 12						; size = 4
?__empty_global_delete@@YAXPAXI@Z PROC			; __empty_global_delete, COMDAT

  00000	c3		 ret	 0
?__empty_global_delete@@YAXPAXI@Z ENDP			; __empty_global_delete
_TEXT	ENDS
; Function compile flags: /Ogtp
; File c:\users\michel\desktop\source\gameserver\source\kanturubattleofmaya.cpp
;	COMDAT ?__empty_global_delete@@YAXPAX@Z
_TEXT	SEGMENT
___formal$ = 8						; size = 4
?__empty_global_delete@@YAXPAX@Z PROC			; __empty_global_delete, COMDAT

  00000	c3		 ret	 0
?__empty_global_delete@@YAXPAX@Z ENDP			; __empty_global_delete
_TEXT	ENDS
END
