; Listing generated by Microsoft (R) Optimizing Compiler Version 19.00.23506.0 

	TITLE	C:\Users\Michel\Desktop\Source\GameServer\Source\Kanturu.cpp
	.686P
	.XMM
	include listing.inc
	.model	flat

INCLUDELIB LIBCMT
INCLUDELIB OLDNAMES

PUBLIC	?__empty_global_delete@@YAXPAX@Z		; __empty_global_delete
PUBLIC	?__empty_global_delete@@YAXPAXI@Z		; __empty_global_delete
PUBLIC	??1OBJECTSTRUCT@@QAE@XZ				; OBJECTSTRUCT::~OBJECTSTRUCT
PUBLIC	??_EOBJECTSTRUCT@@QAEPAXI@Z			; OBJECTSTRUCT::`vector deleting destructor'
PUBLIC	??0CKanturu@@QAE@XZ				; CKanturu::CKanturu
PUBLIC	??1CKanturu@@UAE@XZ				; CKanturu::~CKanturu
PUBLIC	?ResetAllData@CKanturu@@QAEXXZ			; CKanturu::ResetAllData
PUBLIC	?LoadData@CKanturu@@QAEHPAD@Z			; CKanturu::LoadData
PUBLIC	?LoadKanturuMapAttr@CKanturu@@QAEXPADE@Z	; CKanturu::LoadKanturuMapAttr
PUBLIC	?SetKanturuMapAttr@CKanturu@@QAEXE@Z		; CKanturu::SetKanturuMapAttr
PUBLIC	?Run@CKanturu@@QAEXXZ				; CKanturu::Run
PUBLIC	?SetState@CKanturu@@QAEXH@Z			; CKanturu::SetState
PUBLIC	?SetNextState@CKanturu@@QAEXH@Z			; CKanturu::SetNextState
PUBLIC	?ChangeState@CKanturu@@QAEXHH@Z			; CKanturu::ChangeState
PUBLIC	?SetState_NONE@CKanturu@@QAEXXZ			; CKanturu::SetState_NONE
PUBLIC	?SetState_BATTLE_STANDBY@CKanturu@@QAEXXZ	; CKanturu::SetState_BATTLE_STANDBY
PUBLIC	?SetState_BATTLE_OF_MAYA@CKanturu@@QAEXXZ	; CKanturu::SetState_BATTLE_OF_MAYA
PUBLIC	?SetState_BATTLE_OF_NIGHTMARE@CKanturu@@QAEXXZ	; CKanturu::SetState_BATTLE_OF_NIGHTMARE
PUBLIC	?SetState_TOWER_OF_REFINEMENT@CKanturu@@QAEXXZ	; CKanturu::SetState_TOWER_OF_REFINEMENT
PUBLIC	?SetState_END@CKanturu@@QAEXXZ			; CKanturu::SetState_END
PUBLIC	?ProcState_NONE@CKanturu@@QAEXXZ		; CKanturu::ProcState_NONE
PUBLIC	?ProcState_BATTLE_STANDBY@CKanturu@@QAEXXZ	; CKanturu::ProcState_BATTLE_STANDBY
PUBLIC	?ProcState_BATTLE_OF_MAYA@CKanturu@@QAEXXZ	; CKanturu::ProcState_BATTLE_OF_MAYA
PUBLIC	?ProcState_BATTLE_OF_NIGHTMARE@CKanturu@@QAEXXZ	; CKanturu::ProcState_BATTLE_OF_NIGHTMARE
PUBLIC	?ProcState_TOWER_OF_REFINEMENT@CKanturu@@QAEXXZ	; CKanturu::ProcState_TOWER_OF_REFINEMENT
PUBLIC	?ProcState_END@CKanturu@@QAEXXZ			; CKanturu::ProcState_END
PUBLIC	?GetKanturuDetailState@CKanturu@@QAEHXZ		; CKanturu::GetKanturuDetailState
PUBLIC	?CheckStateTime@CKanturu@@QAEXXZ		; CKanturu::CheckStateTime
PUBLIC	?GetRemainTime@CKanturu@@QAEHXZ			; CKanturu::GetRemainTime
PUBLIC	?CheckUserOnKanturuBossMap@CKanturu@@QAEXXZ	; CKanturu::CheckUserOnKanturuBossMap
PUBLIC	?CheckEnterKanturu@CKanturu@@QAEHH@Z		; CKanturu::CheckEnterKanturu
PUBLIC	?CheckCanEnterKanturuBattle@CKanturu@@QAEHXZ	; CKanturu::CheckCanEnterKanturuBattle
PUBLIC	?CheckEqipmentMoonStone@CKanturu@@QAEHH@Z	; CKanturu::CheckEqipmentMoonStone
PUBLIC	?KanturuMonsterDieProc@CKanturu@@QAEXHH@Z	; CKanturu::KanturuMonsterDieProc
PUBLIC	?OperateGmCommand@CKanturu@@QAEXHH@Z		; CKanturu::OperateGmCommand
PUBLIC	?UserMonsterCountCheck@CKanturu@@QAEXXZ		; CKanturu::UserMonsterCountCheck
PUBLIC	?SetKanturuTimeAttackEventInfo@CKanturu@@QAEXXZ	; CKanturu::SetKanturuTimeAttackEventInfo
PUBLIC	??_GCKanturu@@UAEPAXI@Z				; CKanturu::`scalar deleting destructor'
PUBLIC	??_C@_00CNPNBAHC@?$AA@				; `string'
PUBLIC	??_7CKanturu@@6B@				; CKanturu::`vftable'
PUBLIC	?g_Kanturu@@3VCKanturu@@A			; g_Kanturu
PUBLIC	??_C@_0DA@POPJLFKC@?$FL?5KANTURU?5?$FN?5?9?5File?5load?5error?5?3?5@ ; `string'
PUBLIC	??_C@_01KDCPPGHE@r?$AA@				; `string'
PUBLIC	??_C@_0BN@GAHNOIOK@?$FL?5KANTURU?5?$FN?5?9?5Can?8t?5Open?5?$CFs?5?$AA@ ; `string'
PUBLIC	??_C@_03JBJLGPFL@end?$AA@			; `string'
PUBLIC	??_C@_0CJ@NADNLLJP@?$FL?5KANTURU?5?$FN?5?9?5Exceed?5Max?5State?5T@ ; `string'
PUBLIC	??_C@_0CA@IEFEEOLJ@?$FL?5KANTURU?5?$FN?5?9?5?$CFs?5file?5is?5Loaded?$AA@ ; `string'
PUBLIC	??_C@_0BC@DHCEDFNB@Event?2Kanturu?4dat?$AA@	; `string'
PUBLIC	??_R0K@8					; unsigned long `RTTI Type Descriptor'
PUBLIC	??_C@_0DC@FKIBHPBC@?$FL?5KANTURU?5?$FN?5?9?5Loading?5Exception?5@ ; `string'
PUBLIC	??_C@_0EB@FNIFEOPG@?$FL?5KANTURU?5?$FN?$FL?5Map?5Attr?5Change?5?$FN?5M@ ; `string'
PUBLIC	??_C@_0BO@LMGJPIE@?$FL?5KANTURU?5?$FN?5State?$CI?$CFd?$CJ?5?9?$DO?5NONE?$AA@ ; `string'
PUBLIC	??_C@_0CB@GKBCFNNE@?$FL?5KANTURU?5?$FN?5State?$CI?$CFd?$CJ?5?9?$DO?5STANDBY@ ; `string'
PUBLIC	??_C@_0CI@PJNHIIEF@?$FL?5KANTURU?5?$FN?5State?$CI?$CFd?$CJ?5?9?$DO?5BATTLE_@ ; `string'
PUBLIC	??_C@_0CN@KPOCOHKC@?$FL?5KANTURU?5?$FN?5State?$CI?$CFd?$CJ?5?9?$DO?5BATTLE_@ ; `string'
PUBLIC	??_C@_0CN@CLMPOCFJ@?$FL?5KANTURU?5?$FN?5State?$CI?$CFd?$CJ?5?9?$DO?5TOWER_O@ ; `string'
PUBLIC	??_C@_0BN@DHNKBFGM@?$FL?5KANTURU?5?$FN?5State?$CI?$CFd?$CJ?5?9?$DO?5END?$AA@ ; `string'
PUBLIC	??_C@_0EC@MFOBEJFM@?$FL?5KANTURU?5?$FN?$FL?5Invalid?5User?5?$FN?5Inva@ ; `string'
PUBLIC	??_C@_0EH@NKKJHBHC@?$FL?5KANTURU?5?$FN?$FL?5Entrance?5Fail?5?$FN?5Inv@ ; `string'
PUBLIC	??_C@_0ED@IFFAGOLB@?$FL?5KANTURU?5?$FN?$FL?5Entrance?5Fail?5?$FN?5Ove@ ; `string'
PUBLIC	??_C@_0EN@NDCAHGGF@?$FL?5KANTURU?5?$FN?$FL?5Entrance?5Fail?5?$FN?5Moo@ ; `string'
PUBLIC	??_C@_0EM@CONDJFLC@?$FL?5KANTURU?5?$FN?$FL?5Entrance?5Fail?5?$FN?5Win@ ; `string'
PUBLIC	??_C@_0EK@BCIDIJNJ@?$FL?5KANTURU?5?$FN?$FL?5Entrance?5Fail?5?$FN?5Uni@ ; `string'
PUBLIC	??_C@_0FB@GCLEDKFJ@?$FL?5KANTURU?5?$FN?$FL?5Entrance?5Fail?5?$FN?5Tra@ ; `string'
PUBLIC	??_C@_0DI@ICLHIMEO@?$FL?5KANTURU?5?$FN?$FL?5Entrance?5Success?5?$FN?5@ ; `string'
PUBLIC	??_C@_0DA@EDHFFGEB@?$FL?5KANTURU?5?$FN?$FL?5Entrance?5Fail?5?$FN?5?$FL?$CFs@ ; `string'
PUBLIC	??_C@_0DD@JNJBMJGI@?$FL?5KANTURU?5?$FN?$FL?5TimeAttackEvent?5?$FN?5D@ ; `string'
PUBLIC	??_R4CKanturu@@6B@				; CKanturu::`RTTI Complete Object Locator'
PUBLIC	??_R0?AVCKanturu@@@8				; CKanturu `RTTI Type Descriptor'
PUBLIC	??_R3CKanturu@@8				; CKanturu::`RTTI Class Hierarchy Descriptor'
PUBLIC	??_R2CKanturu@@8				; CKanturu::`RTTI Base Class Array'
PUBLIC	??_R1A@?0A@EA@CKanturu@@8			; CKanturu::`RTTI Base Class Descriptor at (0,-1,0,64)'
EXTRN	??_L@YGXPAXIIP6EX0@Z1@Z:PROC			; `eh vector constructor iterator'
EXTRN	??_M@YGXPAXIIP6EX0@Z@Z:PROC			; `eh vector destructor iterator'
EXTRN	??3@YAXPAXI@Z:PROC				; operator delete
EXTRN	??_V@YAXPAXI@Z:PROC				; operator delete[]
EXTRN	_atexit:PROC
EXTRN	_isalpha:PROC
EXTRN	_isdigit:PROC
EXTRN	_isspace:PROC
EXTRN	_isalnum:PROC
EXTRN	__imp__GetLastError@0:PROC
EXTRN	__imp__GetTickCount@0:PROC
EXTRN	_fclose:PROC
EXTRN	_fgetc:PROC
EXTRN	_fopen:PROC
EXTRN	_getc:PROC
EXTRN	_ungetc:PROC
EXTRN	_atof:PROC
EXTRN	__localtime64:PROC
EXTRN	__time64:PROC
EXTRN	?IsItem@CItem@@QAEHXZ:PROC			; CItem::IsItem
EXTRN	??1CSkillDelay@@UAE@XZ:PROC			; CSkillDelay::~CSkillDelay
EXTRN	?MsgBox@@YAXPADZZ:PROC				; MsgBox
EXTRN	??1TMonsterAIAgro@@UAE@XZ:PROC			; TMonsterAIAgro::~TMonsterAIAgro
EXTRN	?gObjIsConnected@@YAHH@Z:PROC			; gObjIsConnected
EXTRN	?gObjMoveGate@@YAHHH@Z:PROC			; gObjMoveGate
EXTRN	?IsTransformEquipment@@YA_NH@Z:PROC		; IsTransformEquipment
EXTRN	?LoadMapAttr@MapClass@@QAEXPADH@Z:PROC		; MapClass::LoadMapAttr
EXTRN	??0MapClass@@QAE@XZ:PROC			; MapClass::MapClass
EXTRN	??1MapClass@@UAE@XZ:PROC			; MapClass::~MapClass
EXTRN	??0CKanturuStateInfo@@QAE@XZ:PROC		; CKanturuStateInfo::CKanturuStateInfo
EXTRN	??1CKanturuStateInfo@@UAE@XZ:PROC		; CKanturuStateInfo::~CKanturuStateInfo
EXTRN	??0CKanturuBattleStanby@@QAE@XZ:PROC		; CKanturuBattleStanby::CKanturuBattleStanby
EXTRN	??1CKanturuBattleStanby@@UAE@XZ:PROC		; CKanturuBattleStanby::~CKanturuBattleStanby
EXTRN	?LoadData@CKanturuBattleStanby@@QAEHPAD@Z:PROC	; CKanturuBattleStanby::LoadData
EXTRN	?Run@CKanturuBattleStanby@@QAEXXZ:PROC		; CKanturuBattleStanby::Run
EXTRN	?SetState@CKanturuBattleStanby@@QAEXH@Z:PROC	; CKanturuBattleStanby::SetState
EXTRN	?SetState_NONE@CKanturuBattleStanby@@QAEXXZ:PROC ; CKanturuBattleStanby::SetState_NONE
EXTRN	?GetRemainTime@CKanturuBattleStanby@@QAEHXZ:PROC ; CKanturuBattleStanby::GetRemainTime
EXTRN	??0CKanturuBattleOfMaya@@QAE@XZ:PROC		; CKanturuBattleOfMaya::CKanturuBattleOfMaya
EXTRN	??1CKanturuBattleOfMaya@@UAE@XZ:PROC		; CKanturuBattleOfMaya::~CKanturuBattleOfMaya
EXTRN	?LoadData@CKanturuBattleOfMaya@@QAEHPAD@Z:PROC	; CKanturuBattleOfMaya::LoadData
EXTRN	?Run@CKanturuBattleOfMaya@@QAEXXZ:PROC		; CKanturuBattleOfMaya::Run
EXTRN	?SetState@CKanturuBattleOfMaya@@QAEXH@Z:PROC	; CKanturuBattleOfMaya::SetState
EXTRN	?SetState_NONE@CKanturuBattleOfMaya@@QAEXXZ:PROC ; CKanturuBattleOfMaya::SetState_NONE
EXTRN	?GetRemainTime@CKanturuBattleOfMaya@@QAEHXZ:PROC ; CKanturuBattleOfMaya::GetRemainTime
EXTRN	??0CKanturuBattleOfNightmare@@QAE@XZ:PROC	; CKanturuBattleOfNightmare::CKanturuBattleOfNightmare
EXTRN	??1CKanturuBattleOfNightmare@@UAE@XZ:PROC	; CKanturuBattleOfNightmare::~CKanturuBattleOfNightmare
EXTRN	?LoadData@CKanturuBattleOfNightmare@@QAEHPAD@Z:PROC ; CKanturuBattleOfNightmare::LoadData
EXTRN	?Run@CKanturuBattleOfNightmare@@QAEXXZ:PROC	; CKanturuBattleOfNightmare::Run
EXTRN	?SetState@CKanturuBattleOfNightmare@@QAEXH@Z:PROC ; CKanturuBattleOfNightmare::SetState
EXTRN	?GetRemainTime@CKanturuBattleOfNightmare@@QAEHXZ:PROC ; CKanturuBattleOfNightmare::GetRemainTime
EXTRN	??0CKanturuTowerOfRefinement@@QAE@XZ:PROC	; CKanturuTowerOfRefinement::CKanturuTowerOfRefinement
EXTRN	??1CKanturuTowerOfRefinement@@UAE@XZ:PROC	; CKanturuTowerOfRefinement::~CKanturuTowerOfRefinement
EXTRN	?LoadData@CKanturuTowerOfRefinement@@QAEHPAD@Z:PROC ; CKanturuTowerOfRefinement::LoadData
EXTRN	?Run@CKanturuTowerOfRefinement@@QAEXXZ:PROC	; CKanturuTowerOfRefinement::Run
EXTRN	?SetState@CKanturuTowerOfRefinement@@QAEXH@Z:PROC ; CKanturuTowerOfRefinement::SetState
EXTRN	?GetRemainTime@CKanturuTowerOfRefinement@@QAEHXZ:PROC ; CKanturuTowerOfRefinement::GetRemainTime
EXTRN	??_ECKanturu@@UAEPAXI@Z:PROC			; CKanturu::`vector deleting destructor'
EXTRN	?ResetRegenMonsterObjData@CKanturuMonsterMng@@QAEXXZ:PROC ; CKanturuMonsterMng::ResetRegenMonsterObjData
EXTRN	?MonsterDie@CKanturuMonsterMng@@QAEXH@Z:PROC	; CKanturuMonsterMng::MonsterDie
EXTRN	?ResetAllData@CKanturuBattleUserMng@@QAEXXZ:PROC ; CKanturuBattleUserMng::ResetAllData
EXTRN	?IsOverMaxUser@CKanturuBattleUserMng@@QAEHXZ:PROC ; CKanturuBattleUserMng::IsOverMaxUser
EXTRN	??0CKanturuUtil@@QAE@XZ:PROC			; CKanturuUtil::CKanturuUtil
EXTRN	??1CKanturuUtil@@UAE@XZ:PROC			; CKanturuUtil::~CKanturuUtil
EXTRN	?GetNewPath@CDirPath@@QAEPADPAD@Z:PROC		; CDirPath::GetNewPath
EXTRN	@__security_check_cookie@4:PROC
EXTRN	___CxxFrameHandler3:PROC
EXTRN	_memcpy:PROC
EXTRN	??_7type_info@@6B@:QWORD			; type_info::`vftable'
EXTRN	?LogAddC@@3P6AXEPADZZA:DWORD			; LogAddC
EXTRN	?LogAddTD@@3P6AXPADZZA:DWORD			; LogAddTD
EXTRN	?gObj@@3PAUOBJECTSTRUCT@@A:DWORD		; gObj
EXTRN	?g_KanturuMonsterMng@@3VCKanturuMonsterMng@@A:BYTE ; g_KanturuMonsterMng
EXTRN	?g_KanturuBattleUserMng@@3VCKanturuBattleUserMng@@A:BYTE ; g_KanturuBattleUserMng
EXTRN	?gDirPath@@3VCDirPath@@A:BYTE			; gDirPath
EXTRN	?MapC@@3PAVMapClass@@A:BYTE			; MapC
EXTRN	___security_cookie:DWORD
EXTRN	__fltused:DWORD
_BSS	SEGMENT
?g_Kanturu@@3VCKanturu@@A DB 0a74a0H DUP (?)		; g_Kanturu
?SMDFile@@3PAU_iobuf@@A DD 01H DUP (?)			; SMDFile
?TokenNumber@@3MA DD 01H DUP (?)			; TokenNumber
?TokenString@@3PADA DB 064H DUP (?)			; TokenString
?CurrentToken@@3W4SMDToken@@A DD 01H DUP (?)		; CurrentToken
?KANTURU_UTIL@@3VCKanturuUtil@@A DD 01H DUP (?)		; KANTURU_UTIL
_BSS	ENDS
CRT$XCU	SEGMENT
?KANTURU_UTIL$initializer$@@3P6AXXZA DD FLAT:??__EKANTURU_UTIL@@YAXXZ ; KANTURU_UTIL$initializer$
CRT$XCU	ENDS
;	COMDAT ??_R1A@?0A@EA@CKanturu@@8
rdata$r	SEGMENT
??_R1A@?0A@EA@CKanturu@@8 DD FLAT:??_R0?AVCKanturu@@@8	; CKanturu::`RTTI Base Class Descriptor at (0,-1,0,64)'
	DD	00H
	DD	00H
	DD	0ffffffffH
	DD	00H
	DD	040H
	DD	FLAT:??_R3CKanturu@@8
rdata$r	ENDS
;	COMDAT ??_R2CKanturu@@8
rdata$r	SEGMENT
??_R2CKanturu@@8 DD FLAT:??_R1A@?0A@EA@CKanturu@@8	; CKanturu::`RTTI Base Class Array'
rdata$r	ENDS
;	COMDAT ??_R3CKanturu@@8
rdata$r	SEGMENT
??_R3CKanturu@@8 DD 00H					; CKanturu::`RTTI Class Hierarchy Descriptor'
	DD	00H
	DD	01H
	DD	FLAT:??_R2CKanturu@@8
rdata$r	ENDS
;	COMDAT ??_R0?AVCKanturu@@@8
data$r	SEGMENT
??_R0?AVCKanturu@@@8 DD FLAT:??_7type_info@@6B@		; CKanturu `RTTI Type Descriptor'
	DD	00H
	DB	'.?AVCKanturu@@', 00H
data$r	ENDS
;	COMDAT ??_R4CKanturu@@6B@
rdata$r	SEGMENT
??_R4CKanturu@@6B@ DD 00H				; CKanturu::`RTTI Complete Object Locator'
	DD	00H
	DD	00H
	DD	FLAT:??_R0?AVCKanturu@@@8
	DD	FLAT:??_R3CKanturu@@8
rdata$r	ENDS
;	COMDAT ??_C@_0DD@JNJBMJGI@?$FL?5KANTURU?5?$FN?$FL?5TimeAttackEvent?5?$FN?5D@
CONST	SEGMENT
??_C@_0DD@JNJBMJGI@?$FL?5KANTURU?5?$FN?$FL?5TimeAttackEvent?5?$FN?5D@ DB '['
	DB	' KANTURU ][ TimeAttackEvent ] Date:%d, Counter:%d', 00H ; `string'
CONST	ENDS
;	COMDAT ??_C@_0DA@EDHFFGEB@?$FL?5KANTURU?5?$FN?$FL?5Entrance?5Fail?5?$FN?5?$FL?$CFs@
CONST	SEGMENT
??_C@_0DA@EDHFFGEB@?$FL?5KANTURU?5?$FN?$FL?5Entrance?5Fail?5?$FN?5?$FL?$CFs@ DB '['
	DB	' KANTURU ][ Entrance Fail ] [%s][%s] State(%d)', 00H ; `string'
CONST	ENDS
;	COMDAT ??_C@_0DI@ICLHIMEO@?$FL?5KANTURU?5?$FN?$FL?5Entrance?5Success?5?$FN?5@
CONST	SEGMENT
??_C@_0DI@ICLHIMEO@?$FL?5KANTURU?5?$FN?$FL?5Entrance?5Success?5?$FN?5@ DB '['
	DB	' KANTURU ][ Entrance Success ] [%s][%s] State(%d)-(%d)', 00H ; `string'
CONST	ENDS
;	COMDAT ??_C@_0FB@GCLEDKFJ@?$FL?5KANTURU?5?$FN?$FL?5Entrance?5Fail?5?$FN?5Tra@
CONST	SEGMENT
??_C@_0FB@GCLEDKFJ@?$FL?5KANTURU?5?$FN?$FL?5Entrance?5Fail?5?$FN?5Tra@ DB '['
	DB	' KANTURU ][ Entrance Fail ] Trasportation Ring is exist [%s]['
	DB	'%s] State(%d)-(%d)', 00H			; `string'
CONST	ENDS
;	COMDAT ??_C@_0EK@BCIDIJNJ@?$FL?5KANTURU?5?$FN?$FL?5Entrance?5Fail?5?$FN?5Uni@
CONST	SEGMENT
??_C@_0EK@BCIDIJNJ@?$FL?5KANTURU?5?$FN?$FL?5Entrance?5Fail?5?$FN?5Uni@ DB '['
	DB	' KANTURU ][ Entrance Fail ] Uniria Item is exist [%s][%s] Sta'
	DB	'te(%d)-(%d)', 00H				; `string'
CONST	ENDS
;	COMDAT ??_C@_0EM@CONDJFLC@?$FL?5KANTURU?5?$FN?$FL?5Entrance?5Fail?5?$FN?5Win@
CONST	SEGMENT
??_C@_0EM@CONDJFLC@?$FL?5KANTURU?5?$FN?$FL?5Entrance?5Fail?5?$FN?5Win@ DB '['
	DB	' KANTURU ][ Entrance Fail ] Wing Item is not exist [%s][%s] S'
	DB	'tate(%d)-(%d)', 00H				; `string'
CONST	ENDS
;	COMDAT ??_C@_0EN@NDCAHGGF@?$FL?5KANTURU?5?$FN?$FL?5Entrance?5Fail?5?$FN?5Moo@
CONST	SEGMENT
??_C@_0EN@NDCAHGGF@?$FL?5KANTURU?5?$FN?$FL?5Entrance?5Fail?5?$FN?5Moo@ DB '['
	DB	' KANTURU ][ Entrance Fail ] Moon Stone is not exist [%s][%s] '
	DB	'State(%d)-(%d)', 00H			; `string'
CONST	ENDS
;	COMDAT ??_C@_0ED@IFFAGOLB@?$FL?5KANTURU?5?$FN?$FL?5Entrance?5Fail?5?$FN?5Ove@
CONST	SEGMENT
??_C@_0ED@IFFAGOLB@?$FL?5KANTURU?5?$FN?$FL?5Entrance?5Fail?5?$FN?5Ove@ DB '['
	DB	' KANTURU ][ Entrance Fail ] Over Max User [%s][%s] State(%d)-'
	DB	'(%d)', 00H					; `string'
CONST	ENDS
;	COMDAT ??_C@_0EH@NKKJHBHC@?$FL?5KANTURU?5?$FN?$FL?5Entrance?5Fail?5?$FN?5Inv@
CONST	SEGMENT
??_C@_0EH@NKKJHBHC@?$FL?5KANTURU?5?$FN?$FL?5Entrance?5Fail?5?$FN?5Inv@ DB '['
	DB	' KANTURU ][ Entrance Fail ] Invalid Map Number(%d) [%s][%s] S'
	DB	'tate(%d)', 00H				; `string'
CONST	ENDS
;	COMDAT ??_C@_0EC@MFOBEJFM@?$FL?5KANTURU?5?$FN?$FL?5Invalid?5User?5?$FN?5Inva@
CONST	SEGMENT
??_C@_0EC@MFOBEJFM@?$FL?5KANTURU?5?$FN?$FL?5Invalid?5User?5?$FN?5Inva@ DB '['
	DB	' KANTURU ][ Invalid User ] Invalid Kanturu Boss Map User[%s]['
	DB	'%s]', 00H					; `string'
CONST	ENDS
;	COMDAT ??_C@_0BN@DHNKBFGM@?$FL?5KANTURU?5?$FN?5State?$CI?$CFd?$CJ?5?9?$DO?5END?$AA@
CONST	SEGMENT
??_C@_0BN@DHNKBFGM@?$FL?5KANTURU?5?$FN?5State?$CI?$CFd?$CJ?5?9?$DO?5END?$AA@ DB '['
	DB	' KANTURU ] State(%d) -> END', 00H		; `string'
CONST	ENDS
;	COMDAT ??_C@_0CN@CLMPOCFJ@?$FL?5KANTURU?5?$FN?5State?$CI?$CFd?$CJ?5?9?$DO?5TOWER_O@
CONST	SEGMENT
??_C@_0CN@CLMPOCFJ@?$FL?5KANTURU?5?$FN?5State?$CI?$CFd?$CJ?5?9?$DO?5TOWER_O@ DB '['
	DB	' KANTURU ] State(%d) -> TOWER_OF_REFINEMENT', 00H ; `string'
CONST	ENDS
;	COMDAT ??_C@_0CN@KPOCOHKC@?$FL?5KANTURU?5?$FN?5State?$CI?$CFd?$CJ?5?9?$DO?5BATTLE_@
CONST	SEGMENT
??_C@_0CN@KPOCOHKC@?$FL?5KANTURU?5?$FN?5State?$CI?$CFd?$CJ?5?9?$DO?5BATTLE_@ DB '['
	DB	' KANTURU ] State(%d) -> BATTLE_OF_NIGHTMARE', 00H ; `string'
CONST	ENDS
;	COMDAT ??_C@_0CI@PJNHIIEF@?$FL?5KANTURU?5?$FN?5State?$CI?$CFd?$CJ?5?9?$DO?5BATTLE_@
CONST	SEGMENT
??_C@_0CI@PJNHIIEF@?$FL?5KANTURU?5?$FN?5State?$CI?$CFd?$CJ?5?9?$DO?5BATTLE_@ DB '['
	DB	' KANTURU ] State(%d) -> BATTLE_OF_MAYA', 00H ; `string'
CONST	ENDS
;	COMDAT ??_C@_0CB@GKBCFNNE@?$FL?5KANTURU?5?$FN?5State?$CI?$CFd?$CJ?5?9?$DO?5STANDBY@
CONST	SEGMENT
??_C@_0CB@GKBCFNNE@?$FL?5KANTURU?5?$FN?5State?$CI?$CFd?$CJ?5?9?$DO?5STANDBY@ DB '['
	DB	' KANTURU ] State(%d) -> STANDBY', 00H	; `string'
CONST	ENDS
;	COMDAT ??_C@_0BO@LMGJPIE@?$FL?5KANTURU?5?$FN?5State?$CI?$CFd?$CJ?5?9?$DO?5NONE?$AA@
CONST	SEGMENT
??_C@_0BO@LMGJPIE@?$FL?5KANTURU?5?$FN?5State?$CI?$CFd?$CJ?5?9?$DO?5NONE?$AA@ DB '['
	DB	' KANTURU ] State(%d) -> NONE', 00H		; `string'
CONST	ENDS
;	COMDAT ??_C@_0EB@FNIFEOPG@?$FL?5KANTURU?5?$FN?$FL?5Map?5Attr?5Change?5?$FN?5M@
CONST	SEGMENT
??_C@_0EB@FNIFEOPG@?$FL?5KANTURU?5?$FN?$FL?5Map?5Attr?5Change?5?$FN?5M@ DB '['
	DB	' KANTURU ][ Map Attr Change ] Map(%d) State(%d) DetailState(%'
	DB	'd)', 00H					; `string'
CONST	ENDS
;	COMDAT ??_C@_0DC@FKIBHPBC@?$FL?5KANTURU?5?$FN?5?9?5Loading?5Exception?5@
CONST	SEGMENT
??_C@_0DC@FKIBHPBC@?$FL?5KANTURU?5?$FN?5?9?5Loading?5Exception?5@ DB '[ K'
	DB	'ANTURU ] - Loading Exception Error (%s) File. ', 00H ; `string'
CONST	ENDS
;	COMDAT ??_R0K@8
data$r	SEGMENT
??_R0K@8 DD	FLAT:??_7type_info@@6B@			; unsigned long `RTTI Type Descriptor'
	DD	00H
	DB	'.K', 00H
data$r	ENDS
;	COMDAT ??_C@_0BC@DHCEDFNB@Event?2Kanturu?4dat?$AA@
CONST	SEGMENT
??_C@_0BC@DHCEDFNB@Event?2Kanturu?4dat?$AA@ DB 'Event\Kanturu.dat', 00H ; `string'
CONST	ENDS
;	COMDAT ??_C@_0CA@IEFEEOLJ@?$FL?5KANTURU?5?$FN?5?9?5?$CFs?5file?5is?5Loaded?$AA@
CONST	SEGMENT
??_C@_0CA@IEFEEOLJ@?$FL?5KANTURU?5?$FN?5?9?5?$CFs?5file?5is?5Loaded?$AA@ DB '['
	DB	' KANTURU ] - %s file is Loaded', 00H	; `string'
CONST	ENDS
;	COMDAT ??_C@_0CJ@NADNLLJP@?$FL?5KANTURU?5?$FN?5?9?5Exceed?5Max?5State?5T@
CONST	SEGMENT
??_C@_0CJ@NADNLLJP@?$FL?5KANTURU?5?$FN?5?9?5Exceed?5Max?5State?5T@ DB '[ '
	DB	'KANTURU ] - Exceed Max State Time (%d)', 00H ; `string'
CONST	ENDS
;	COMDAT ??_C@_03JBJLGPFL@end?$AA@
CONST	SEGMENT
??_C@_03JBJLGPFL@end?$AA@ DB 'end', 00H			; `string'
CONST	ENDS
;	COMDAT ??_C@_0BN@GAHNOIOK@?$FL?5KANTURU?5?$FN?5?9?5Can?8t?5Open?5?$CFs?5?$AA@
CONST	SEGMENT
??_C@_0BN@GAHNOIOK@?$FL?5KANTURU?5?$FN?5?9?5Can?8t?5Open?5?$CFs?5?$AA@ DB '['
	DB	' KANTURU ] - Can''t Open %s ', 00H		; `string'
CONST	ENDS
;	COMDAT ??_C@_01KDCPPGHE@r?$AA@
CONST	SEGMENT
??_C@_01KDCPPGHE@r?$AA@ DB 'r', 00H			; `string'
CONST	ENDS
;	COMDAT ??_C@_0DA@POPJLFKC@?$FL?5KANTURU?5?$FN?5?9?5File?5load?5error?5?3?5@
CONST	SEGMENT
??_C@_0DA@POPJLFKC@?$FL?5KANTURU?5?$FN?5?9?5File?5load?5error?5?3?5@ DB '['
	DB	' KANTURU ] - File load error : File Name Error', 00H ; `string'
CONST	ENDS
;	COMDAT ??_7CKanturu@@6B@
CONST	SEGMENT
??_7CKanturu@@6B@ DD FLAT:??_R4CKanturu@@6B@		; CKanturu::`vftable'
	DD	FLAT:??_ECKanturu@@UAEPAXI@Z
CONST	ENDS
;	COMDAT ??_C@_00CNPNBAHC@?$AA@
CONST	SEGMENT
??_C@_00CNPNBAHC@?$AA@ DB 00H				; `string'
CONST	ENDS
;	COMDAT xdata$x
xdata$x	SEGMENT
__catchsym$?LoadData@CKanturu@@QAEHPAD@Z$2 DD 00H
	DD	FLAT:??_R0K@8
	DD	00H
	DD	FLAT:__catch$?LoadData@CKanturu@@QAEHPAD@Z$0
__unwindtable$?LoadData@CKanturu@@QAEHPAD@Z DD 0ffffffffH
	DD	00H
	DD	0ffffffffH
	DD	00H
__tryblocktable$?LoadData@CKanturu@@QAEHPAD@Z DD 00H
	DD	00H
	DD	01H
	DD	01H
	DD	FLAT:__catchsym$?LoadData@CKanturu@@QAEHPAD@Z$2
__ehfuncinfo$?LoadData@CKanturu@@QAEHPAD@Z DD 019930522H
	DD	02H
	DD	FLAT:__unwindtable$?LoadData@CKanturu@@QAEHPAD@Z
	DD	01H
	DD	FLAT:__tryblocktable$?LoadData@CKanturu@@QAEHPAD@Z
	DD	2 DUP(00H)
	DD	00H
	DD	01H
xdata$x	ENDS
;	COMDAT xdata$x
xdata$x	SEGMENT
__ehfuncinfo$??1CKanturu@@UAE@XZ DD 019930522H
	DD	00H
	DD	00H
	DD	2 DUP(00H)
	DD	2 DUP(00H)
	DD	00H
	DD	05H
xdata$x	ENDS
;	COMDAT xdata$x
xdata$x	SEGMENT
__ehfuncinfo$??0CKanturu@@QAE@XZ DD 019930522H
	DD	05H
	DD	FLAT:__unwindtable$??0CKanturu@@QAE@XZ
	DD	2 DUP(00H)
	DD	2 DUP(00H)
	DD	00H
	DD	01H
__unwindtable$??0CKanturu@@QAE@XZ DD 0ffffffffH
	DD	FLAT:__unwindfunclet$??0CKanturu@@QAE@XZ$0
	DD	00H
	DD	FLAT:__unwindfunclet$??0CKanturu@@QAE@XZ$1
	DD	01H
	DD	FLAT:__unwindfunclet$??0CKanturu@@QAE@XZ$2
	DD	02H
	DD	FLAT:__unwindfunclet$??0CKanturu@@QAE@XZ$3
	DD	03H
	DD	FLAT:__unwindfunclet$??0CKanturu@@QAE@XZ$4
xdata$x	ENDS
;	COMDAT xdata$x
xdata$x	SEGMENT
__ehfuncinfo$??_EOBJECTSTRUCT@@QAEPAXI@Z DD 019930522H
	DD	00H
	DD	00H
	DD	2 DUP(00H)
	DD	2 DUP(00H)
	DD	00H
	DD	05H
xdata$x	ENDS
CRT$XCU	SEGMENT
?g_Kanturu$initializer$@@3P6AXXZA DD FLAT:??__Eg_Kanturu@@YAXXZ ; g_Kanturu$initializer$
CRT$XCU	ENDS
; Function compile flags: /Ogtp
;	COMDAT ??__Fg_Kanturu@@YAXXZ
text$yd	SEGMENT
??__Fg_Kanturu@@YAXXZ PROC				; `dynamic atexit destructor for 'g_Kanturu'', COMDAT
  00000	b9 00 00 00 00	 mov	 ecx, OFFSET ?g_Kanturu@@3VCKanturu@@A ; g_Kanturu
  00005	e9 00 00 00 00	 jmp	 ??1CKanturu@@UAE@XZ	; CKanturu::~CKanturu
??__Fg_Kanturu@@YAXXZ ENDP				; `dynamic atexit destructor for 'g_Kanturu''
text$yd	ENDS
; Function compile flags: /Ogtp
; File c:\users\michel\desktop\source\gameserver\source\kanturu.cpp
;	COMDAT ??__Eg_Kanturu@@YAXXZ
text$di	SEGMENT
??__Eg_Kanturu@@YAXXZ PROC				; `dynamic initializer for 'g_Kanturu'', COMDAT

; 15   : CKanturu g_Kanturu;

  00000	b9 00 00 00 00	 mov	 ecx, OFFSET ?g_Kanturu@@3VCKanturu@@A ; g_Kanturu
  00005	e8 00 00 00 00	 call	 ??0CKanturu@@QAE@XZ	; CKanturu::CKanturu
  0000a	68 00 00 00 00	 push	 OFFSET ??__Fg_Kanturu@@YAXXZ ; `dynamic atexit destructor for 'g_Kanturu''
  0000f	e8 00 00 00 00	 call	 _atexit
  00014	59		 pop	 ecx
  00015	c3		 ret	 0
??__Eg_Kanturu@@YAXXZ ENDP				; `dynamic initializer for 'g_Kanturu''
text$di	ENDS
; Function compile flags: /Ogtp
;	COMDAT ??__FKANTURU_UTIL@@YAXXZ
text$yd	SEGMENT
??__FKANTURU_UTIL@@YAXXZ PROC				; `dynamic atexit destructor for 'KANTURU_UTIL'', COMDAT
  00000	b9 00 00 00 00	 mov	 ecx, OFFSET ?KANTURU_UTIL@@3VCKanturuUtil@@A
  00005	e9 00 00 00 00	 jmp	 ??1CKanturuUtil@@UAE@XZ	; CKanturuUtil::~CKanturuUtil
??__FKANTURU_UTIL@@YAXXZ ENDP				; `dynamic atexit destructor for 'KANTURU_UTIL''
text$yd	ENDS
; Function compile flags: /Ogtp
; File c:\users\michel\desktop\source\gameserver\source\kanturu.cpp
;	COMDAT ??__EKANTURU_UTIL@@YAXXZ
text$di	SEGMENT
??__EKANTURU_UTIL@@YAXXZ PROC				; `dynamic initializer for 'KANTURU_UTIL'', COMDAT

; 14   : static CKanturuUtil KANTURU_UTIL;

  00000	b9 00 00 00 00	 mov	 ecx, OFFSET ?KANTURU_UTIL@@3VCKanturuUtil@@A
  00005	e8 00 00 00 00	 call	 ??0CKanturuUtil@@QAE@XZ	; CKanturuUtil::CKanturuUtil
  0000a	68 00 00 00 00	 push	 OFFSET ??__FKANTURU_UTIL@@YAXXZ ; `dynamic atexit destructor for 'KANTURU_UTIL''
  0000f	e8 00 00 00 00	 call	 _atexit
  00014	59		 pop	 ecx
  00015	c3		 ret	 0
??__EKANTURU_UTIL@@YAXXZ ENDP				; `dynamic initializer for 'KANTURU_UTIL''
text$di	ENDS
; Function compile flags: /Ogtp
; File c:\users\michel\desktop\source\gameserver\include\readscript.h
;	COMDAT ?GetToken@@YA?AW4SMDToken@@XZ
_TEXT	SEGMENT
_TempString$ = -104					; size = 100
__$ArrayPad$ = -4					; size = 4
?GetToken@@YA?AW4SMDToken@@XZ PROC			; GetToken, COMDAT

; 24   : {

  00000	55		 push	 ebp
  00001	8b ec		 mov	 ebp, esp
  00003	83 ec 68	 sub	 esp, 104		; 00000068H
  00006	a1 00 00 00 00	 mov	 eax, DWORD PTR ___security_cookie
  0000b	33 c5		 xor	 eax, ebp
  0000d	89 45 fc	 mov	 DWORD PTR __$ArrayPad$[ebp], eax

; 25   : 	int ch;
; 26   : 	char* p;
; 27   : 	char TempString[100];
; 28   : 
; 29   : 	TokenString[0]=0;

  00010	c6 05 00 00 00
	00 00		 mov	 BYTE PTR ?TokenString@@3PADA, 0
  00017	53		 push	 ebx
  00018	0f 1f 84 00 00
	00 00 00	 npad	 8
$LL4@GetToken:

; 30   : 
; 31   : 	do
; 32   : 	{
; 33   : 		if ((ch=fgetc(SMDFile)) == -1)

  00020	ff 35 00 00 00
	00		 push	 DWORD PTR ?SMDFile@@3PAU_iobuf@@A
  00026	e8 00 00 00 00	 call	 _fgetc
  0002b	8b d8		 mov	 ebx, eax
  0002d	83 c4 04	 add	 esp, 4
  00030	83 fb ff	 cmp	 ebx, -1
  00033	74 5d		 je	 SHORT $LN43@GetToken

; 34   : 		{
; 35   : 			return END;	// End of FILE (EOF)
; 36   : 		}
; 37   : 		else
; 38   : 		{	
; 39   : 			if (ch=='/')		// this is /

  00035	83 fb 2f	 cmp	 ebx, 47			; 0000002fH
  00038	75 30		 jne	 SHORT $LN2@GetToken

; 40   : 			{
; 41   : 				if((ch=fgetc(SMDFile)) == '/')

  0003a	ff 35 00 00 00
	00		 push	 DWORD PTR ?SMDFile@@3PAU_iobuf@@A
  00040	e8 00 00 00 00	 call	 _fgetc
  00045	8b d8		 mov	 ebx, eax
  00047	83 c4 04	 add	 esp, 4
  0004a	83 fb 2f	 cmp	 ebx, 47			; 0000002fH
  0004d	75 1b		 jne	 SHORT $LN2@GetToken
  0004f	90		 npad	 1
$LL5@GetToken:

; 42   : 				{
; 43   : 					while ((ch != '\n') && (ch != -1))	// End of Line (EOL)

  00050	83 fb ff	 cmp	 ebx, -1
  00053	74 3d		 je	 SHORT $LN43@GetToken

; 44   : 					{
; 45   : 						ch=fgetc(SMDFile);

  00055	ff 35 00 00 00
	00		 push	 DWORD PTR ?SMDFile@@3PAU_iobuf@@A
  0005b	e8 00 00 00 00	 call	 _fgetc
  00060	8b d8		 mov	 ebx, eax
  00062	83 c4 04	 add	 esp, 4
  00065	83 fb 0a	 cmp	 ebx, 10			; 0000000aH
  00068	75 e6		 jne	 SHORT $LL5@GetToken
$LN2@GetToken:

; 51   : 					}
; 52   : 				}
; 53   : 			}
; 54   : 		}
; 55   : 	}
; 56   : 	while (isspace(ch) != 0);

  0006a	53		 push	 ebx
  0006b	e8 00 00 00 00	 call	 _isspace
  00070	83 c4 04	 add	 esp, 4
  00073	85 c0		 test	 eax, eax
  00075	75 a9		 jne	 SHORT $LL4@GetToken

; 57   : 
; 58   : 	
; 59   : 	switch(ch)

  00077	8d 43 de	 lea	 eax, DWORD PTR [ebx-34]
  0007a	56		 push	 esi
  0007b	83 f8 5b	 cmp	 eax, 91			; 0000005bH
  0007e	0f 87 89 01 00
	00		 ja	 $LN29@GetToken
  00084	0f b6 80 00 00
	00 00		 movzx	 eax, BYTE PTR $LN58@GetToken[eax]
  0008b	ff 24 85 00 00
	00 00		 jmp	 DWORD PTR $LN64@GetToken[eax*4]
$LN43@GetToken:

; 46   : 					}
; 47   : 	
; 48   : 					if (ch == -1)
; 49   : 					{
; 50   : 						return END;	// End of FILE

  00092	b8 02 00 00 00	 mov	 eax, 2
  00097	5b		 pop	 ebx

; 143  : 		}
; 144  : 		else
; 145  : 		{
; 146  : 			return CurrentToken = SMD_ERROR; // '<'
; 147  : 		}
; 148  : 		break;
; 149  : 
; 150  : 	}
; 151  : 
; 152  : 	return NAME;
; 153  : }

  00098	8b 4d fc	 mov	 ecx, DWORD PTR __$ArrayPad$[ebp]
  0009b	33 cd		 xor	 ecx, ebp
  0009d	e8 00 00 00 00	 call	 @__security_check_cookie@4
  000a2	8b e5		 mov	 esp, ebp
  000a4	5d		 pop	 ebp
  000a5	c3		 ret	 0
$LN20@GetToken:
  000a6	5e		 pop	 esi

; 60   : 	{
; 61   : 
; 62   : 	case 0x23:	// #
; 63   : 		return CurrentToken=COMMAND;

  000a7	c7 05 00 00 00
	00 23 00 00 00	 mov	 DWORD PTR ?CurrentToken@@3W4SMDToken@@A, 35 ; 00000023H
  000b1	b8 23 00 00 00	 mov	 eax, 35			; 00000023H
  000b6	5b		 pop	 ebx

; 143  : 		}
; 144  : 		else
; 145  : 		{
; 146  : 			return CurrentToken = SMD_ERROR; // '<'
; 147  : 		}
; 148  : 		break;
; 149  : 
; 150  : 	}
; 151  : 
; 152  : 	return NAME;
; 153  : }

  000b7	8b 4d fc	 mov	 ecx, DWORD PTR __$ArrayPad$[ebp]
  000ba	33 cd		 xor	 ecx, ebp
  000bc	e8 00 00 00 00	 call	 @__security_check_cookie@4
  000c1	8b e5		 mov	 esp, ebp
  000c3	5d		 pop	 ebp
  000c4	c3		 ret	 0
$LN21@GetToken:
  000c5	5e		 pop	 esi

; 64   : 		break;
; 65   : 	
; 66   : 	case 0x3B:	// ;
; 67   : 		return CurrentToken=SEMICOLON;

  000c6	c7 05 00 00 00
	00 3b 00 00 00	 mov	 DWORD PTR ?CurrentToken@@3W4SMDToken@@A, 59 ; 0000003bH
  000d0	b8 3b 00 00 00	 mov	 eax, 59			; 0000003bH
  000d5	5b		 pop	 ebx

; 143  : 		}
; 144  : 		else
; 145  : 		{
; 146  : 			return CurrentToken = SMD_ERROR; // '<'
; 147  : 		}
; 148  : 		break;
; 149  : 
; 150  : 	}
; 151  : 
; 152  : 	return NAME;
; 153  : }

  000d6	8b 4d fc	 mov	 ecx, DWORD PTR __$ArrayPad$[ebp]
  000d9	33 cd		 xor	 ecx, ebp
  000db	e8 00 00 00 00	 call	 @__security_check_cookie@4
  000e0	8b e5		 mov	 esp, ebp
  000e2	5d		 pop	 ebp
  000e3	c3		 ret	 0
$LN22@GetToken:
  000e4	5e		 pop	 esi

; 68   : 		break;
; 69   : 	
; 70   : 	case 0x2C:	// ,
; 71   : 
; 72   : 		return CurrentToken=COMMA;

  000e5	c7 05 00 00 00
	00 2c 00 00 00	 mov	 DWORD PTR ?CurrentToken@@3W4SMDToken@@A, 44 ; 0000002cH
  000ef	b8 2c 00 00 00	 mov	 eax, 44			; 0000002cH
  000f4	5b		 pop	 ebx

; 143  : 		}
; 144  : 		else
; 145  : 		{
; 146  : 			return CurrentToken = SMD_ERROR; // '<'
; 147  : 		}
; 148  : 		break;
; 149  : 
; 150  : 	}
; 151  : 
; 152  : 	return NAME;
; 153  : }

  000f5	8b 4d fc	 mov	 ecx, DWORD PTR __$ArrayPad$[ebp]
  000f8	33 cd		 xor	 ecx, ebp
  000fa	e8 00 00 00 00	 call	 @__security_check_cookie@4
  000ff	8b e5		 mov	 esp, ebp
  00101	5d		 pop	 ebp
  00102	c3		 ret	 0
$LN23@GetToken:
  00103	5e		 pop	 esi

; 73   : 		break;
; 74   : 	
; 75   : 	case 0x7B:	// {
; 76   : 		return CurrentToken = LP;

  00104	c7 05 00 00 00
	00 7b 00 00 00	 mov	 DWORD PTR ?CurrentToken@@3W4SMDToken@@A, 123 ; 0000007bH
  0010e	b8 7b 00 00 00	 mov	 eax, 123		; 0000007bH
  00113	5b		 pop	 ebx

; 143  : 		}
; 144  : 		else
; 145  : 		{
; 146  : 			return CurrentToken = SMD_ERROR; // '<'
; 147  : 		}
; 148  : 		break;
; 149  : 
; 150  : 	}
; 151  : 
; 152  : 	return NAME;
; 153  : }

  00114	8b 4d fc	 mov	 ecx, DWORD PTR __$ArrayPad$[ebp]
  00117	33 cd		 xor	 ecx, ebp
  00119	e8 00 00 00 00	 call	 @__security_check_cookie@4
  0011e	8b e5		 mov	 esp, ebp
  00120	5d		 pop	 ebp
  00121	c3		 ret	 0
$LN24@GetToken:
  00122	5e		 pop	 esi

; 77   : 		break;
; 78   : 
; 79   : 	case 0x7D:	// }
; 80   : 		return CurrentToken = RP;

  00123	c7 05 00 00 00
	00 7d 00 00 00	 mov	 DWORD PTR ?CurrentToken@@3W4SMDToken@@A, 125 ; 0000007dH
  0012d	b8 7d 00 00 00	 mov	 eax, 125		; 0000007dH
  00132	5b		 pop	 ebx

; 143  : 		}
; 144  : 		else
; 145  : 		{
; 146  : 			return CurrentToken = SMD_ERROR; // '<'
; 147  : 		}
; 148  : 		break;
; 149  : 
; 150  : 	}
; 151  : 
; 152  : 	return NAME;
; 153  : }

  00133	8b 4d fc	 mov	 ecx, DWORD PTR __$ArrayPad$[ebp]
  00136	33 cd		 xor	 ecx, ebp
  00138	e8 00 00 00 00	 call	 @__security_check_cookie@4
  0013d	8b e5		 mov	 esp, ebp
  0013f	5d		 pop	 ebp
  00140	c3		 ret	 0
$LN25@GetToken:

; 81   : 		break;
; 82   : 	// Nice Index Table :)	by Deathway
; 83   : 	// Numbers Case
; 84   : 	case 0x2D:	//-
; 85   : 	case 0x2E:	//.
; 86   : 	case '0':	//0
; 87   : 	case '1':	//1
; 88   : 	case '2':	//2
; 89   : 	case '3':	//3
; 90   : 	case '4':	//4		
; 91   : 	case '5':	//5
; 92   : 	case '6':	//6
; 93   : 	case '7':	//7
; 94   : 	case '8':	//8
; 95   : 	case '9':	//9
; 96   : 		ungetc(ch, SMDFile);

  00141	ff 35 00 00 00
	00		 push	 DWORD PTR ?SMDFile@@3PAU_iobuf@@A
  00147	53		 push	 ebx
  00148	e8 00 00 00 00	 call	 _ungetc

; 97   : 		p = TempString;
; 98   : 		
; 99   : 		while (((ch=getc(SMDFile)) != -1) && ((ch == 0x2E) || (isdigit(ch) != 0) || (ch == 0x2D)))  // 2e '.'  2D '-'

  0014d	ff 35 00 00 00
	00		 push	 DWORD PTR ?SMDFile@@3PAU_iobuf@@A
  00153	8d 75 98	 lea	 esi, DWORD PTR _TempString$[ebp]
  00156	e8 00 00 00 00	 call	 _getc
  0015b	8b d8		 mov	 ebx, eax
  0015d	83 c4 0c	 add	 esp, 12			; 0000000cH
  00160	83 fb ff	 cmp	 ebx, -1
  00163	74 2f		 je	 SHORT $LN59@GetToken
$LL9@GetToken:
  00165	83 fb 2e	 cmp	 ebx, 46			; 0000002eH
  00168	74 12		 je	 SHORT $LN26@GetToken
  0016a	53		 push	 ebx
  0016b	e8 00 00 00 00	 call	 _isdigit
  00170	83 c4 04	 add	 esp, 4
  00173	85 c0		 test	 eax, eax
  00175	75 05		 jne	 SHORT $LN26@GetToken
  00177	83 fb 2d	 cmp	 ebx, 45			; 0000002dH
  0017a	75 18		 jne	 SHORT $LN59@GetToken
$LN26@GetToken:
  0017c	ff 35 00 00 00
	00		 push	 DWORD PTR ?SMDFile@@3PAU_iobuf@@A

; 100  : 		{
; 101  : 			*p = ch;	// Construct a String

  00182	88 1e		 mov	 BYTE PTR [esi], bl

; 102  : 			p++;

  00184	46		 inc	 esi
  00185	e8 00 00 00 00	 call	 _getc
  0018a	8b d8		 mov	 ebx, eax
  0018c	83 c4 04	 add	 esp, 4
  0018f	83 fb ff	 cmp	 ebx, -1
  00192	75 d1		 jne	 SHORT $LL9@GetToken
$LN59@GetToken:

; 103  : 		}		
; 104  : 		*p = 0;
; 105  : 		TokenNumber = (float)atof( TempString);	// Select the first Byte as Main ID

  00194	8d 45 98	 lea	 eax, DWORD PTR _TempString$[ebp]
  00197	c6 06 00	 mov	 BYTE PTR [esi], 0
  0019a	50		 push	 eax
  0019b	e8 00 00 00 00	 call	 _atof
  001a0	83 c4 04	 add	 esp, 4

; 106  : 		return CurrentToken  = NUMBER ;

  001a3	c7 05 00 00 00
	00 01 00 00 00	 mov	 DWORD PTR ?CurrentToken@@3W4SMDToken@@A, 1
  001ad	d9 1d 00 00 00
	00		 fstp	 DWORD PTR ?TokenNumber@@3MA
  001b3	b8 01 00 00 00	 mov	 eax, 1
  001b8	5e		 pop	 esi
  001b9	5b		 pop	 ebx

; 143  : 		}
; 144  : 		else
; 145  : 		{
; 146  : 			return CurrentToken = SMD_ERROR; // '<'
; 147  : 		}
; 148  : 		break;
; 149  : 
; 150  : 	}
; 151  : 
; 152  : 	return NAME;
; 153  : }

  001ba	8b 4d fc	 mov	 ecx, DWORD PTR __$ArrayPad$[ebp]
  001bd	33 cd		 xor	 ecx, ebp
  001bf	e8 00 00 00 00	 call	 @__security_check_cookie@4
  001c4	8b e5		 mov	 esp, ebp
  001c6	5d		 pop	 ebp
  001c7	c3		 ret	 0
$LN27@GetToken:

; 107  : 		break;
; 108  : 
; 109  : 	case '\"':	// "	String Case
; 110  : 		p=&TokenString[0];
; 111  : 		
; 112  : 		while (((ch=getc(SMDFile)) != -1 ) && (ch != 0x22))	// nice

  001c8	ff 35 00 00 00
	00		 push	 DWORD PTR ?SMDFile@@3PAU_iobuf@@A
  001ce	be 00 00 00 00	 mov	 esi, OFFSET ?TokenString@@3PADA
  001d3	e8 00 00 00 00	 call	 _getc
  001d8	83 c4 04	 add	 esp, 4
  001db	83 f8 ff	 cmp	 eax, -1
  001de	74 1f		 je	 SHORT $LN12@GetToken
$LL11@GetToken:
  001e0	83 f8 22	 cmp	 eax, 34			; 00000022H
  001e3	0f 84 95 00 00
	00		 je	 $LN28@GetToken
  001e9	ff 35 00 00 00
	00		 push	 DWORD PTR ?SMDFile@@3PAU_iobuf@@A

; 113  : 		{
; 114  : 			*p = ch;

  001ef	88 06		 mov	 BYTE PTR [esi], al

; 115  : 			p++;

  001f1	46		 inc	 esi
  001f2	e8 00 00 00 00	 call	 _getc
  001f7	83 c4 04	 add	 esp, 4
  001fa	83 f8 ff	 cmp	 eax, -1
  001fd	75 e1		 jne	 SHORT $LL11@GetToken
$LN12@GetToken:

; 116  : 		}
; 117  : 		if (ch != 0x22 )

  001ff	83 f8 22	 cmp	 eax, 34			; 00000022H
  00202	74 7a		 je	 SHORT $LN28@GetToken

; 118  : 		{
; 119  : 			ungetc(ch, SMDFile);

  00204	ff 35 00 00 00
	00		 push	 DWORD PTR ?SMDFile@@3PAU_iobuf@@A
  0020a	50		 push	 eax

; 120  : 		}
; 121  : 		*p = 0;
; 122  : 		return CurrentToken = NAME;

  0020b	eb 69		 jmp	 SHORT $LN62@GetToken
$LN29@GetToken:

; 123  : 		break;
; 124  : 
; 125  : 	default:	// Others
; 126  : 		if (isalpha(ch))

  0020d	53		 push	 ebx
  0020e	e8 00 00 00 00	 call	 _isalpha
  00213	83 c4 04	 add	 esp, 4
  00216	85 c0		 test	 eax, eax
  00218	0f 84 7f 00 00
	00		 je	 $LN30@GetToken

; 127  : 		{
; 128  : 			p=&TokenString[0];
; 129  : 			*p=ch;
; 130  : 			p++;
; 131  : 
; 132  : 			while ( ((ch=getc(SMDFile)) != -1) && ( (ch == 0x2E) || (ch == 0x5F) || (isalnum(ch) != 0) ) )

  0021e	ff 35 00 00 00
	00		 push	 DWORD PTR ?SMDFile@@3PAU_iobuf@@A
  00224	88 1d 00 00 00
	00		 mov	 BYTE PTR ?TokenString@@3PADA, bl
  0022a	be 01 00 00 00	 mov	 esi, OFFSET ?TokenString@@3PADA+1
  0022f	e8 00 00 00 00	 call	 _getc
  00234	8b d8		 mov	 ebx, eax
  00236	83 c4 04	 add	 esp, 4
  00239	83 fb ff	 cmp	 ebx, -1
  0023c	74 31		 je	 SHORT $LN60@GetToken
  0023e	66 90		 npad	 2
$LL13@GetToken:
  00240	83 fb 2e	 cmp	 ebx, 46			; 0000002eH
  00243	74 12		 je	 SHORT $LN32@GetToken
  00245	83 fb 5f	 cmp	 ebx, 95			; 0000005fH
  00248	74 0d		 je	 SHORT $LN32@GetToken
  0024a	53		 push	 ebx
  0024b	e8 00 00 00 00	 call	 _isalnum
  00250	83 c4 04	 add	 esp, 4
  00253	85 c0		 test	 eax, eax
  00255	74 18		 je	 SHORT $LN60@GetToken
$LN32@GetToken:
  00257	ff 35 00 00 00
	00		 push	 DWORD PTR ?SMDFile@@3PAU_iobuf@@A

; 133  : 			{
; 134  : 				*p=ch;

  0025d	88 1e		 mov	 BYTE PTR [esi], bl

; 135  : 				p++;

  0025f	46		 inc	 esi
  00260	e8 00 00 00 00	 call	 _getc
  00265	8b d8		 mov	 ebx, eax
  00267	83 c4 04	 add	 esp, 4
  0026a	83 fb ff	 cmp	 ebx, -1
  0026d	75 d1		 jne	 SHORT $LL13@GetToken
$LN60@GetToken:

; 136  : 				
; 137  : 			}
; 138  : 
; 139  : 			ungetc(ch, SMDFile);

  0026f	ff 35 00 00 00
	00		 push	 DWORD PTR ?SMDFile@@3PAU_iobuf@@A
  00275	53		 push	 ebx
$LN62@GetToken:
  00276	e8 00 00 00 00	 call	 _ungetc
  0027b	83 c4 08	 add	 esp, 8
$LN28@GetToken:

; 140  : 			*p=0;

  0027e	c6 06 00	 mov	 BYTE PTR [esi], 0

; 141  : 			CurrentToken=NAME;
; 142  : 			return CurrentToken;

  00281	33 c0		 xor	 eax, eax
  00283	5e		 pop	 esi
  00284	c7 05 00 00 00
	00 00 00 00 00	 mov	 DWORD PTR ?CurrentToken@@3W4SMDToken@@A, 0
  0028e	5b		 pop	 ebx

; 143  : 		}
; 144  : 		else
; 145  : 		{
; 146  : 			return CurrentToken = SMD_ERROR; // '<'
; 147  : 		}
; 148  : 		break;
; 149  : 
; 150  : 	}
; 151  : 
; 152  : 	return NAME;
; 153  : }

  0028f	8b 4d fc	 mov	 ecx, DWORD PTR __$ArrayPad$[ebp]
  00292	33 cd		 xor	 ecx, ebp
  00294	e8 00 00 00 00	 call	 @__security_check_cookie@4
  00299	8b e5		 mov	 esp, ebp
  0029b	5d		 pop	 ebp
  0029c	c3		 ret	 0
$LN30@GetToken:
  0029d	8b 4d fc	 mov	 ecx, DWORD PTR __$ArrayPad$[ebp]
  002a0	b8 3c 00 00 00	 mov	 eax, 60			; 0000003cH
  002a5	5e		 pop	 esi
  002a6	33 cd		 xor	 ecx, ebp
  002a8	c7 05 00 00 00
	00 3c 00 00 00	 mov	 DWORD PTR ?CurrentToken@@3W4SMDToken@@A, 60 ; 0000003cH
  002b2	5b		 pop	 ebx
  002b3	e8 00 00 00 00	 call	 @__security_check_cookie@4
  002b8	8b e5		 mov	 esp, ebp
  002ba	5d		 pop	 ebp
  002bb	c3		 ret	 0
$LN64@GetToken:
  002bc	00 00 00 00	 DD	 $LN27@GetToken
  002c0	00 00 00 00	 DD	 $LN20@GetToken
  002c4	00 00 00 00	 DD	 $LN22@GetToken
  002c8	00 00 00 00	 DD	 $LN25@GetToken
  002cc	00 00 00 00	 DD	 $LN21@GetToken
  002d0	00 00 00 00	 DD	 $LN23@GetToken
  002d4	00 00 00 00	 DD	 $LN24@GetToken
  002d8	00 00 00 00	 DD	 $LN29@GetToken
$LN58@GetToken:
  002dc	00		 DB	 0
  002dd	01		 DB	 1
  002de	07		 DB	 7
  002df	07		 DB	 7
  002e0	07		 DB	 7
  002e1	07		 DB	 7
  002e2	07		 DB	 7
  002e3	07		 DB	 7
  002e4	07		 DB	 7
  002e5	07		 DB	 7
  002e6	02		 DB	 2
  002e7	03		 DB	 3
  002e8	03		 DB	 3
  002e9	07		 DB	 7
  002ea	03		 DB	 3
  002eb	03		 DB	 3
  002ec	03		 DB	 3
  002ed	03		 DB	 3
  002ee	03		 DB	 3
  002ef	03		 DB	 3
  002f0	03		 DB	 3
  002f1	03		 DB	 3
  002f2	03		 DB	 3
  002f3	03		 DB	 3
  002f4	07		 DB	 7
  002f5	04		 DB	 4
  002f6	07		 DB	 7
  002f7	07		 DB	 7
  002f8	07		 DB	 7
  002f9	07		 DB	 7
  002fa	07		 DB	 7
  002fb	07		 DB	 7
  002fc	07		 DB	 7
  002fd	07		 DB	 7
  002fe	07		 DB	 7
  002ff	07		 DB	 7
  00300	07		 DB	 7
  00301	07		 DB	 7
  00302	07		 DB	 7
  00303	07		 DB	 7
  00304	07		 DB	 7
  00305	07		 DB	 7
  00306	07		 DB	 7
  00307	07		 DB	 7
  00308	07		 DB	 7
  00309	07		 DB	 7
  0030a	07		 DB	 7
  0030b	07		 DB	 7
  0030c	07		 DB	 7
  0030d	07		 DB	 7
  0030e	07		 DB	 7
  0030f	07		 DB	 7
  00310	07		 DB	 7
  00311	07		 DB	 7
  00312	07		 DB	 7
  00313	07		 DB	 7
  00314	07		 DB	 7
  00315	07		 DB	 7
  00316	07		 DB	 7
  00317	07		 DB	 7
  00318	07		 DB	 7
  00319	07		 DB	 7
  0031a	07		 DB	 7
  0031b	07		 DB	 7
  0031c	07		 DB	 7
  0031d	07		 DB	 7
  0031e	07		 DB	 7
  0031f	07		 DB	 7
  00320	07		 DB	 7
  00321	07		 DB	 7
  00322	07		 DB	 7
  00323	07		 DB	 7
  00324	07		 DB	 7
  00325	07		 DB	 7
  00326	07		 DB	 7
  00327	07		 DB	 7
  00328	07		 DB	 7
  00329	07		 DB	 7
  0032a	07		 DB	 7
  0032b	07		 DB	 7
  0032c	07		 DB	 7
  0032d	07		 DB	 7
  0032e	07		 DB	 7
  0032f	07		 DB	 7
  00330	07		 DB	 7
  00331	07		 DB	 7
  00332	07		 DB	 7
  00333	07		 DB	 7
  00334	07		 DB	 7
  00335	05		 DB	 5
  00336	07		 DB	 7
  00337	06		 DB	 6
?GetToken@@YA?AW4SMDToken@@XZ ENDP			; GetToken
_TEXT	ENDS
; Function compile flags: /Ogtp
;	COMDAT ??_GCKanturu@@UAEPAXI@Z
_TEXT	SEGMENT
___flags$ = 8						; size = 4
??_GCKanturu@@UAEPAXI@Z PROC				; CKanturu::`scalar deleting destructor', COMDAT
; _this$ = ecx
  00000	55		 push	 ebp
  00001	8b ec		 mov	 ebp, esp
  00003	56		 push	 esi
  00004	8b f1		 mov	 esi, ecx
  00006	e8 00 00 00 00	 call	 ??1CKanturu@@UAE@XZ	; CKanturu::~CKanturu
  0000b	f6 45 08 01	 test	 BYTE PTR ___flags$[ebp], 1
  0000f	74 0e		 je	 SHORT $LN4@scalar
  00011	68 a0 74 0a 00	 push	 685216			; 000a74a0H
  00016	56		 push	 esi
  00017	e8 00 00 00 00	 call	 ??3@YAXPAXI@Z		; operator delete
  0001c	83 c4 08	 add	 esp, 8
$LN4@scalar:
  0001f	8b c6		 mov	 eax, esi
  00021	5e		 pop	 esi
  00022	5d		 pop	 ebp
  00023	c2 04 00	 ret	 4
??_GCKanturu@@UAEPAXI@Z ENDP				; CKanturu::`scalar deleting destructor'
_TEXT	ENDS
; Function compile flags: /Ogtp
; File c:\users\michel\desktop\source\gameserver\source\kanturu.cpp
; File c:\program files (x86)\windows kits\10\include\10.0.10240.0\ucrt\time.h
; File c:\users\michel\desktop\source\gameserver\source\kanturu.cpp
; File c:\program files (x86)\windows kits\10\include\10.0.10240.0\ucrt\time.h
; File c:\users\michel\desktop\source\gameserver\source\kanturu.cpp
;	COMDAT ?SetKanturuTimeAttackEventInfo@CKanturu@@QAEXXZ
_TEXT	SEGMENT
_ltime$ = -8						; size = 8
?SetKanturuTimeAttackEventInfo@CKanturu@@QAEXXZ PROC	; CKanturu::SetKanturuTimeAttackEventInfo, COMDAT
; _this$ = ecx

; 722  : {

  00000	55		 push	 ebp
  00001	8b ec		 mov	 ebp, esp
  00003	83 ec 08	 sub	 esp, 8
; File c:\program files (x86)\windows kits\10\include\10.0.10240.0\ucrt\time.h

; 535  :             return _time64(_Time);

  00006	8d 45 f8	 lea	 eax, DWORD PTR _ltime$[ebp]
  00009	56		 push	 esi
  0000a	50		 push	 eax
; File c:\users\michel\desktop\source\gameserver\source\kanturu.cpp

; 722  : {

  0000b	8b f1		 mov	 esi, ecx
; File c:\program files (x86)\windows kits\10\include\10.0.10240.0\ucrt\time.h

; 535  :             return _time64(_Time);

  0000d	e8 00 00 00 00	 call	 __time64

; 511  :             return _localtime64(_Time);

  00012	8d 45 f8	 lea	 eax, DWORD PTR _ltime$[ebp]
  00015	50		 push	 eax
  00016	e8 00 00 00 00	 call	 __localtime64
  0001b	83 c4 08	 add	 esp, 8
; File c:\users\michel\desktop\source\gameserver\source\kanturu.cpp

; 728  : 	today->tm_year += 1900;

  0001e	81 40 14 6c 07
	00 00		 add	 DWORD PTR [eax+20], 1900 ; 0000076cH

; 729  : 
; 730  : 	int iYear = today->tm_year * 10000;
; 731  : 	int iMonth = ( today->tm_mon + 1 ) * 100;
; 732  : 	int iDay = today->tm_mday;
; 733  : 	int iDateInfo = iYear + iMonth + iDay;

  00025	6b 50 14 64	 imul	 edx, DWORD PTR [eax+20], 100
  00029	8b 48 10	 mov	 ecx, DWORD PTR [eax+16]
  0002c	41		 inc	 ecx
  0002d	03 ca		 add	 ecx, edx
  0002f	6b c9 64	 imul	 ecx, ecx, 100
  00032	03 48 0c	 add	 ecx, DWORD PTR [eax+12]

; 734  : 
; 735  : 	if ( this->m_iKanturuBattleDate < iDateInfo )

  00035	39 8e 9c 74 0a
	00		 cmp	 DWORD PTR [esi+685212], ecx
  0003b	7d 10		 jge	 SHORT $LN2@SetKanturu

; 736  : 	{
; 737  : 		this->m_iKanturuBattleDate = iDateInfo;

  0003d	89 8e 9c 74 0a
	00		 mov	 DWORD PTR [esi+685212], ecx

; 738  : 		this->m_iKanturuBattleCounter = 0;

  00043	c7 86 98 74 0a
	00 00 00 00 00	 mov	 DWORD PTR [esi+685208], 0
$LN2@SetKanturu:

; 739  : 	}
; 740  : 
; 741  : 	this->m_iKanturuBattleCounter++;

  0004d	ff 86 98 74 0a
	00		 inc	 DWORD PTR [esi+685208]

; 742  : 
; 743  : 	LogAddTD("[ KANTURU ][ TimeAttackEvent ] Date:%d, Counter:%d",

  00053	ff b6 98 74 0a
	00		 push	 DWORD PTR [esi+685208]
  00059	ff b6 9c 74 0a
	00		 push	 DWORD PTR [esi+685212]
  0005f	68 00 00 00 00	 push	 OFFSET ??_C@_0DD@JNJBMJGI@?$FL?5KANTURU?5?$FN?$FL?5TimeAttackEvent?5?$FN?5D@
  00064	ff 15 00 00 00
	00		 call	 DWORD PTR ?LogAddTD@@3P6AXPADZZA ; LogAddTD
  0006a	83 c4 0c	 add	 esp, 12			; 0000000cH
  0006d	5e		 pop	 esi

; 744  : 		this->m_iKanturuBattleDate, this->m_iKanturuBattleCounter);
; 745  : }

  0006e	8b e5		 mov	 esp, ebp
  00070	5d		 pop	 ebp
  00071	c3		 ret	 0
?SetKanturuTimeAttackEventInfo@CKanturu@@QAEXXZ ENDP	; CKanturu::SetKanturuTimeAttackEventInfo
_TEXT	ENDS
; Function compile flags: /Ogtp
; File c:\users\michel\desktop\source\gameserver\source\kanturu.cpp
;	COMDAT ?UserMonsterCountCheck@CKanturu@@QAEXXZ
_TEXT	SEGMENT
?UserMonsterCountCheck@CKanturu@@QAEXXZ PROC		; CKanturu::UserMonsterCountCheck, COMDAT
; _this$ = ecx

; 682  : 	return;
; 683  : 
; 684  : 	int iUserCount_Live = 0;
; 685  : 	int iUserCount_Die = 0;
; 686  : 	for ( int iAllUserCount=OBJ_STARTUSERINDEX;iAllUserCount<OBJMAX;iAllUserCount++)
; 687  : 	{
; 688  : 		if ( gObj[iAllUserCount].MapNumber == MAP_INDEX_KANTURU_BOSS &&
; 689  : 			 gObj[iAllUserCount].Type == OBJ_USER &&
; 690  : 			 (gObj[iAllUserCount].Authority&2) != 2 )
; 691  : 		{
; 692  : 			if ( gObj[iAllUserCount].Live == TRUE )
; 693  : 			{
; 694  : 				iUserCount_Live++;
; 695  : 			}
; 696  : 			else
; 697  : 			{
; 698  : 				iUserCount_Die++;
; 699  : 			}
; 700  : 		}
; 701  : 	}
; 702  : 
; 703  : 	int iMonsterCount=0;
; 704  : 
; 705  : 	for ( int iAllMonsterCount=0;iAllMonsterCount<OBJ_STARTUSERINDEX;iAllMonsterCount++)
; 706  : 	{
; 707  : 		if ( gObj[iAllMonsterCount].MapNumber == MAP_INDEX_KANTURU_BOSS &&
; 708  : 			 gObj[iAllMonsterCount].Connected == PLAYER_PLAYING &&
; 709  : 			 gObj[iAllMonsterCount].Type == OBJ_MONSTER )
; 710  : 		{
; 711  : 			if ( gObj[iAllMonsterCount].Class != 105 &&
; 712  : 				 gObj[iAllMonsterCount].Class != 106 &&
; 713  : 				 gObj[iAllMonsterCount].Class != 364 )
; 714  : 			{
; 715  : 				iMonsterCount++;
; 716  : 			}
; 717  : 		}
; 718  : 	}
; 719  : }

  00000	c3		 ret	 0
?UserMonsterCountCheck@CKanturu@@QAEXXZ ENDP		; CKanturu::UserMonsterCountCheck
_TEXT	ENDS
; Function compile flags: /Ogtp
; File c:\users\michel\desktop\source\gameserver\source\kanturu.cpp
;	COMDAT ?OperateGmCommand@CKanturu@@QAEXHH@Z
_TEXT	SEGMENT
_iUserIndex$ = 8					; size = 4
_iCommand$ = 12						; size = 4
?OperateGmCommand@CKanturu@@QAEXHH@Z PROC		; CKanturu::OperateGmCommand, COMDAT
; _this$ = ecx

; 673  : 	return;
; 674  : 	{
; 675  : 		int iCurrentState[3];///???
; 676  : 	}
; 677  : }

  00000	c2 08 00	 ret	 8
?OperateGmCommand@CKanturu@@QAEXHH@Z ENDP		; CKanturu::OperateGmCommand
_TEXT	ENDS
; Function compile flags: /Ogtp
; File c:\users\michel\desktop\source\gameserver\source\kanturu.cpp
;	COMDAT ?KanturuMonsterDieProc@CKanturu@@QAEXHH@Z
_TEXT	SEGMENT
_iMonIndex$ = 8						; size = 4
_iKillerIndex$ = 12					; size = 4
?KanturuMonsterDieProc@CKanturu@@QAEXHH@Z PROC		; CKanturu::KanturuMonsterDieProc, COMDAT
; _this$ = ecx

; 489  : {

  00000	55		 push	 ebp
  00001	8b ec		 mov	 ebp, esp

; 490  : 	g_KanturuMonsterMng.MonsterDie(iMonIndex);	

  00003	ff 75 08	 push	 DWORD PTR _iMonIndex$[ebp]
  00006	b9 00 00 00 00	 mov	 ecx, OFFSET ?g_KanturuMonsterMng@@3VCKanturuMonsterMng@@A ; g_KanturuMonsterMng
  0000b	e8 00 00 00 00	 call	 ?MonsterDie@CKanturuMonsterMng@@QAEXH@Z ; CKanturuMonsterMng::MonsterDie

; 491  : }

  00010	5d		 pop	 ebp
  00011	c2 08 00	 ret	 8
?KanturuMonsterDieProc@CKanturu@@QAEXHH@Z ENDP		; CKanturu::KanturuMonsterDieProc
_TEXT	ENDS
; Function compile flags: /Ogtp
; File c:\users\michel\desktop\source\gameserver\source\kanturu.cpp
;	COMDAT ?CheckEqipmentMoonStone@CKanturu@@QAEHH@Z
_TEXT	SEGMENT
_iUserIndex$ = 8					; size = 4
?CheckEqipmentMoonStone@CKanturu@@QAEHH@Z PROC		; CKanturu::CheckEqipmentMoonStone, COMDAT
; _this$ = ecx

; 646  : {

  00000	55		 push	 ebp
  00001	8b ec		 mov	 ebp, esp

; 647  : 	if ( !this->GetEnableCheckMoonStone() )

  00003	83 b9 94 74 0a
	00 00		 cmp	 DWORD PTR [ecx+685204], 0
  0000a	75 09		 jne	 SHORT $LN2@CheckEqipm

; 648  : 		return TRUE;

  0000c	b8 01 00 00 00	 mov	 eax, 1

; 667  : }

  00011	5d		 pop	 ebp
  00012	c2 04 00	 ret	 4
$LN2@CheckEqipm:

; 649  : 
; 650  : 	if ( gObj[iUserIndex].pInventory[10].IsItem() ||

  00015	a1 00 00 00 00	 mov	 eax, DWORD PTR ?gObj@@3PAUOBJECTSTRUCT@@A ; gObj
  0001a	56		 push	 esi
  0001b	69 75 08 40 27
	00 00		 imul	 esi, DWORD PTR _iUserIndex$[ebp], 10048
  00022	8b 8c 06 c0 11
	00 00		 mov	 ecx, DWORD PTR [esi+eax+4544]
  00029	81 c1 48 08 00
	00		 add	 ecx, 2120		; 00000848H
  0002f	e8 00 00 00 00	 call	 ?IsItem@CItem@@QAEHXZ	; CItem::IsItem
  00034	85 c0		 test	 eax, eax
  00036	75 1b		 jne	 SHORT $LN4@CheckEqipm
  00038	a1 00 00 00 00	 mov	 eax, DWORD PTR ?gObj@@3PAUOBJECTSTRUCT@@A ; gObj
  0003d	8b 8c 06 c0 11
	00 00		 mov	 ecx, DWORD PTR [esi+eax+4544]
  00044	81 c1 1c 09 00
	00		 add	 ecx, 2332		; 0000091cH
  0004a	e8 00 00 00 00	 call	 ?IsItem@CItem@@QAEHXZ	; CItem::IsItem
  0004f	85 c0		 test	 eax, eax
  00051	74 52		 je	 SHORT $LN6@CheckEqipm
$LN4@CheckEqipm:

; 651  : 		 gObj[iUserIndex].pInventory[11].IsItem() )	
; 652  : 	{
; 653  : 		if ( gObj[iUserIndex].pInventory[10].m_Type == ITEMGET(13,38) &&

  00053	a1 00 00 00 00	 mov	 eax, DWORD PTR ?gObj@@3PAUOBJECTSTRUCT@@A ; gObj
  00058	ba 26 1a 00 00	 mov	 edx, 6694		; 00001a26H
  0005d	0f 57 c9	 xorps	 xmm1, xmm1
  00060	8b 8c 06 c0 11
	00 00		 mov	 ecx, DWORD PTR [esi+eax+4544]
  00067	66 39 91 4e 08
	00 00		 cmp	 WORD PTR [ecx+2126], dx
  0006e	75 11		 jne	 SHORT $LN5@CheckEqipm
  00070	f3 0f 10 81 6c
	08 00 00	 movss	 xmm0, DWORD PTR [ecx+2156]
  00078	0f 2e c1	 ucomiss xmm0, xmm1
  0007b	9f		 lahf
  0007c	f6 c4 44	 test	 ah, 68			; 00000044H
  0007f	7a 1a		 jp	 SHORT $LN11@CheckEqipm
$LN5@CheckEqipm:

; 654  : 			 gObj[iUserIndex].pInventory[10].m_Durability != 0.0f )
; 655  : 		{
; 656  : 			return TRUE;
; 657  : 		}
; 658  : 
; 659  : 		if ( gObj[iUserIndex].pInventory[11].m_Type == ITEMGET(13,38) &&

  00081	66 39 91 22 09
	00 00		 cmp	 WORD PTR [ecx+2338], dx
  00088	75 1b		 jne	 SHORT $LN6@CheckEqipm
  0008a	f3 0f 10 81 40
	09 00 00	 movss	 xmm0, DWORD PTR [ecx+2368]
  00092	0f 2e c1	 ucomiss xmm0, xmm1
  00095	9f		 lahf
  00096	f6 c4 44	 test	 ah, 68			; 00000044H
  00099	7b 0a		 jnp	 SHORT $LN6@CheckEqipm
$LN11@CheckEqipm:

; 660  : 			 gObj[iUserIndex].pInventory[11].m_Durability != 0.0f )
; 661  : 		{
; 662  : 			return TRUE;

  0009b	b8 01 00 00 00	 mov	 eax, 1
  000a0	5e		 pop	 esi

; 667  : }

  000a1	5d		 pop	 ebp
  000a2	c2 04 00	 ret	 4
$LN6@CheckEqipm:

; 663  : 		}
; 664  : 	}
; 665  : 
; 666  : 	return FALSE;

  000a5	33 c0		 xor	 eax, eax
  000a7	5e		 pop	 esi

; 667  : }

  000a8	5d		 pop	 ebp
  000a9	c2 04 00	 ret	 4
?CheckEqipmentMoonStone@CKanturu@@QAEHH@Z ENDP		; CKanturu::CheckEqipmentMoonStone
_TEXT	ENDS
; Function compile flags: /Ogtp
; File c:\users\michel\desktop\source\gameserver\source\kanturu.h
;	COMDAT ?GetEnableCheckMoonStone@CKanturu@@QAEHXZ
_TEXT	SEGMENT
?GetEnableCheckMoonStone@CKanturu@@QAEHXZ PROC		; CKanturu::GetEnableCheckMoonStone, COMDAT
; _this$ = ecx

; 81   : 	int GetEnableCheckMoonStone(){return this->m_bEnableCheckMoonStone;}

  00000	8b 81 94 74 0a
	00		 mov	 eax, DWORD PTR [ecx+685204]
  00006	c3		 ret	 0
?GetEnableCheckMoonStone@CKanturu@@QAEHXZ ENDP		; CKanturu::GetEnableCheckMoonStone
_TEXT	ENDS
; Function compile flags: /Ogtp
; File c:\users\michel\desktop\source\gameserver\source\kanturu.h
;	COMDAT ?SetEnableCheckMoonStone@CKanturu@@QAEXH@Z
_TEXT	SEGMENT
_bEnable$ = 8						; size = 4
?SetEnableCheckMoonStone@CKanturu@@QAEXH@Z PROC		; CKanturu::SetEnableCheckMoonStone, COMDAT
; _this$ = ecx

; 80   : 	void SetEnableCheckMoonStone(BOOL bEnable){this->m_bEnableCheckMoonStone = bEnable;}

  00000	55		 push	 ebp
  00001	8b ec		 mov	 ebp, esp
  00003	8b 45 08	 mov	 eax, DWORD PTR _bEnable$[ebp]
  00006	89 81 94 74 0a
	00		 mov	 DWORD PTR [ecx+685204], eax
  0000c	5d		 pop	 ebp
  0000d	c2 04 00	 ret	 4
?SetEnableCheckMoonStone@CKanturu@@QAEXH@Z ENDP		; CKanturu::SetEnableCheckMoonStone
_TEXT	ENDS
; Function compile flags: /Ogtp
; File c:\users\michel\desktop\source\gameserver\source\kanturu.cpp
;	COMDAT ?CheckCanEnterKanturuBattle@CKanturu@@QAEHXZ
_TEXT	SEGMENT
?CheckCanEnterKanturuBattle@CKanturu@@QAEHXZ PROC	; CKanturu::CheckCanEnterKanturuBattle, COMDAT
; _this$ = ecx

; 628  : 	if ( this->GetKanturuState() == KANTURU_STATE_BATTLE_OF_MAYA &&

  00000	8b 41 08	 mov	 eax, DWORD PTR [ecx+8]
  00003	83 f8 02	 cmp	 eax, 2
  00006	75 0f		 jne	 SHORT $LN2@CheckCanEn
  00008	83 b9 c4 02 00
	00 01		 cmp	 DWORD PTR [ecx+708], 1
  0000f	75 06		 jne	 SHORT $LN2@CheckCanEn
$LN15@CheckCanEn:

; 629  : 		 this->m_BattleOfMaya.GetEntrancePermit() == TRUE )
; 630  : 	{
; 631  : 		return TRUE;

  00011	b8 01 00 00 00	 mov	 eax, 1

; 642  : }

  00016	c3		 ret	 0
$LN2@CheckCanEn:

; 632  : 	}
; 633  : 
; 634  : 	if ( this->GetKanturuState() == KANTURU_STATE_TOWER_OF_REFINEMENT &&
; 635  : 		 this->m_TowerOfRefinement.GetEntrancePermit() == TRUE &&

  00017	83 f8 04	 cmp	 eax, 4
  0001a	75 12		 jne	 SHORT $LN3@CheckCanEn
  0001c	83 b9 bc 03 00
	00 01		 cmp	 DWORD PTR [ecx+956], 1
  00023	75 09		 jne	 SHORT $LN3@CheckCanEn
  00025	83 b9 c0 03 00
	00 01		 cmp	 DWORD PTR [ecx+960], 1
  0002c	74 e3		 je	 SHORT $LN15@CheckCanEn
$LN3@CheckCanEn:

; 636  : 		 this->m_TowerOfRefinement.IsUseTowerOfRefinement() == TRUE)
; 637  : 	{
; 638  : 		return TRUE;
; 639  : 	}
; 640  : 
; 641  : 	return FALSE;

  0002e	33 c0		 xor	 eax, eax

; 642  : }

  00030	c3		 ret	 0
?CheckCanEnterKanturuBattle@CKanturu@@QAEHXZ ENDP	; CKanturu::CheckCanEnterKanturuBattle
_TEXT	ENDS
; Function compile flags: /Ogtp
; File c:\users\michel\desktop\source\gameserver\source\kanturu.cpp
;	COMDAT ?CheckEnterKanturu@CKanturu@@QAEHH@Z
_TEXT	SEGMENT
tv256 = 8						; size = 4
tv248 = 8						; size = 4
_iUserIndex$ = 8					; size = 4
?CheckEnterKanturu@CKanturu@@QAEHH@Z PROC		; CKanturu::CheckEnterKanturu, COMDAT
; _this$ = ecx

; 527  : {

  00000	55		 push	 ebp
  00001	8b ec		 mov	 ebp, esp
  00003	56		 push	 esi
  00004	57		 push	 edi

; 528  : 	if ( !gObjIsConnected(iUserIndex) )

  00005	8b 7d 08	 mov	 edi, DWORD PTR _iUserIndex$[ebp]
  00008	8b f1		 mov	 esi, ecx
  0000a	57		 push	 edi
  0000b	e8 00 00 00 00	 call	 ?gObjIsConnected@@YAHH@Z ; gObjIsConnected
  00010	83 c4 04	 add	 esp, 4
  00013	85 c0		 test	 eax, eax
  00015	75 09		 jne	 SHORT $LN2@CheckEnter

; 529  : 		return -1;

  00017	5f		 pop	 edi
  00018	83 c8 ff	 or	 eax, -1
  0001b	5e		 pop	 esi

; 622  : }

  0001c	5d		 pop	 ebp
  0001d	c2 04 00	 ret	 4
$LN2@CheckEnter:

; 530  : 
; 531  : 	if ( gObj[iUserIndex].MapNumber != MAP_INDEX_KANTURU2 ) 

  00020	8b 0d 00 00 00
	00		 mov	 ecx, DWORD PTR ?gObj@@3PAUOBJECTSTRUCT@@A ; gObj
  00026	53		 push	 ebx
  00027	69 df 40 27 00
	00		 imul	 ebx, edi, 10048
  0002d	03 cb		 add	 ecx, ebx
  0002f	8a 91 23 01 00
	00		 mov	 dl, BYTE PTR [ecx+291]
  00035	80 fa 26	 cmp	 dl, 38			; 00000026H
  00038	74 29		 je	 SHORT $LN3@CheckEnter

; 532  : 	{
; 533  : 		LogAddTD("[ KANTURU ][ Entrance Fail ] Invalid Map Number(%d) [%s][%s] State(%d)",

  0003a	ff 76 08	 push	 DWORD PTR [esi+8]
  0003d	8d 41 5d	 lea	 eax, DWORD PTR [ecx+93]
  00040	50		 push	 eax
  00041	8d 41 52	 lea	 eax, DWORD PTR [ecx+82]
  00044	50		 push	 eax
  00045	0f b6 c2	 movzx	 eax, dl
  00048	50		 push	 eax
  00049	68 00 00 00 00	 push	 OFFSET ??_C@_0EH@NKKJHBHC@?$FL?5KANTURU?5?$FN?$FL?5Entrance?5Fail?5?$FN?5Inv@
  0004e	ff 15 00 00 00
	00		 call	 DWORD PTR ?LogAddTD@@3P6AXPADZZA ; LogAddTD
  00054	83 c4 14	 add	 esp, 20			; 00000014H

; 534  : 			gObj[iUserIndex].MapNumber, gObj[iUserIndex].AccountID, gObj[iUserIndex].Name,
; 535  : 			this->GetKanturuState());
; 536  : 
; 537  : 		return 4;

  00057	b8 04 00 00 00	 mov	 eax, 4
  0005c	5b		 pop	 ebx
  0005d	5f		 pop	 edi
  0005e	5e		 pop	 esi

; 622  : }

  0005f	5d		 pop	 ebp
  00060	c2 04 00	 ret	 4
$LN3@CheckEnter:

; 538  : 	}
; 539  : 
; 540  : 	if ( this->GetKanturuState() == KANTURU_STATE_BATTLE_OF_MAYA &&

  00063	8b 46 08	 mov	 eax, DWORD PTR [esi+8]
  00066	83 f8 02	 cmp	 eax, 2
  00069	0f 85 fd 01 00
	00		 jne	 $LN4@CheckEnter
  0006f	83 be c4 02 00
	00 01		 cmp	 DWORD PTR [esi+708], 1
  00076	0f 85 f0 01 00
	00		 jne	 $LN4@CheckEnter

; 541  : 		 this->m_BattleOfMaya.GetEntrancePermit() == TRUE)
; 542  : 	{
; 543  : 		if ( g_KanturuBattleUserMng.IsOverMaxUser() == TRUE )

  0007c	b9 00 00 00 00	 mov	 ecx, OFFSET ?g_KanturuBattleUserMng@@3VCKanturuBattleUserMng@@A ; g_KanturuBattleUserMng
  00081	e8 00 00 00 00	 call	 ?IsOverMaxUser@CKanturuBattleUserMng@@QAEHXZ ; CKanturuBattleUserMng::IsOverMaxUser
  00086	83 f8 01	 cmp	 eax, 1
  00089	75 35		 jne	 SHORT $LN5@CheckEnter

; 544  : 		{
; 545  : 			LogAddTD("[ KANTURU ][ Entrance Fail ] Over Max User [%s][%s] State(%d)-(%d)",

  0008b	8b 0d 00 00 00
	00		 mov	 ecx, DWORD PTR ?gObj@@3PAUOBJECTSTRUCT@@A ; gObj
  00091	ff b6 fc 00 00
	00		 push	 DWORD PTR [esi+252]
  00097	ff 76 08	 push	 DWORD PTR [esi+8]
  0009a	8d 41 5d	 lea	 eax, DWORD PTR [ecx+93]
  0009d	03 c3		 add	 eax, ebx
  0009f	50		 push	 eax
  000a0	8d 41 52	 lea	 eax, DWORD PTR [ecx+82]
  000a3	03 c3		 add	 eax, ebx
  000a5	50		 push	 eax
  000a6	68 00 00 00 00	 push	 OFFSET ??_C@_0ED@IFFAGOLB@?$FL?5KANTURU?5?$FN?$FL?5Entrance?5Fail?5?$FN?5Ove@
  000ab	ff 15 00 00 00
	00		 call	 DWORD PTR ?LogAddTD@@3P6AXPADZZA ; LogAddTD
  000b1	83 c4 14	 add	 esp, 20			; 00000014H

; 546  : 				gObj[iUserIndex].AccountID, gObj[iUserIndex].Name,
; 547  : 				this->GetKanturuState(), this->m_BattleOfMaya.GetBattleOfMayaState());
; 548  : 
; 549  : 			return 1;

  000b4	b8 01 00 00 00	 mov	 eax, 1
  000b9	5b		 pop	 ebx
  000ba	5f		 pop	 edi
  000bb	5e		 pop	 esi

; 622  : }

  000bc	5d		 pop	 ebp
  000bd	c2 04 00	 ret	 4
$LN5@CheckEnter:

; 550  : 		}
; 551  : 
; 552  : 		if ( this->CheckEqipmentMoonStone(iUserIndex) == FALSE )

  000c0	57		 push	 edi
  000c1	8b ce		 mov	 ecx, esi
  000c3	e8 00 00 00 00	 call	 ?CheckEqipmentMoonStone@CKanturu@@QAEHH@Z ; CKanturu::CheckEqipmentMoonStone

; 553  : 		{
; 554  : 			LogAddTD("[ KANTURU ][ Entrance Fail ] Moon Stone is not exist [%s][%s] State(%d)-(%d)",

  000c8	8b 0d 00 00 00
	00		 mov	 ecx, DWORD PTR ?gObj@@3PAUOBJECTSTRUCT@@A ; gObj
  000ce	85 c0		 test	 eax, eax
  000d0	75 2f		 jne	 SHORT $LN6@CheckEnter
  000d2	ff b6 fc 00 00
	00		 push	 DWORD PTR [esi+252]
  000d8	8d 41 5d	 lea	 eax, DWORD PTR [ecx+93]
  000db	ff 76 08	 push	 DWORD PTR [esi+8]
  000de	03 c3		 add	 eax, ebx
  000e0	50		 push	 eax
  000e1	8d 41 52	 lea	 eax, DWORD PTR [ecx+82]
  000e4	03 c3		 add	 eax, ebx
  000e6	50		 push	 eax
  000e7	68 00 00 00 00	 push	 OFFSET ??_C@_0EN@NDCAHGGF@?$FL?5KANTURU?5?$FN?$FL?5Entrance?5Fail?5?$FN?5Moo@
  000ec	ff 15 00 00 00
	00		 call	 DWORD PTR ?LogAddTD@@3P6AXPADZZA ; LogAddTD
  000f2	83 c4 14	 add	 esp, 20			; 00000014H

; 555  : 				gObj[iUserIndex].AccountID, gObj[iUserIndex].Name,
; 556  : 				this->GetKanturuState(), this->m_BattleOfMaya.GetBattleOfMayaState());
; 557  : 
; 558  : 			return 2;

  000f5	b8 02 00 00 00	 mov	 eax, 2
  000fa	5b		 pop	 ebx
  000fb	5f		 pop	 edi
  000fc	5e		 pop	 esi

; 622  : }

  000fd	5d		 pop	 ebp
  000fe	c2 04 00	 ret	 4
$LN6@CheckEnter:

; 559  : 		}
; 560  : 
; 561  : 		if ( (gObj[iUserIndex].pInventory[7].m_Type < ITEMGET(12,0) || gObj[iUserIndex].pInventory[7].m_Type > ITEMGET(12,6) ) &&
; 562  : 			 (gObj[iUserIndex].pInventory[7].m_Type < ITEMGET(12,36) || gObj[iUserIndex].pInventory[7].m_Type > ITEMGET(12,43) ) &&
; 563  : 			 gObj[iUserIndex].pInventory[7].m_Type != ITEMGET(12,49) &&
; 564  : 			 gObj[iUserIndex].pInventory[7].m_Type != ITEMGET(12,50) &&
; 565  : 			 (gObj[iUserIndex].pInventory[7].m_Type < ITEMGET(12,130) || gObj[iUserIndex].pInventory[7].m_Type > ITEMGET(12,135) ) &&
; 566  : 			 gObj[iUserIndex].pInventory[7].m_Type != ITEMGET(13,30) &&
; 567  : 			 gObj[iUserIndex].pInventory[8].m_Type != ITEMGET(13,3)  &&
; 568  : 			 gObj[iUserIndex].pInventory[8].m_Type != ITEMGET(13,37) 
; 569  : #if (CUSTOM_WINGS == 1)
; 570  : 			 && (gObj[iUserIndex].pInventory[7].m_Type < ITEMGET(12,440) || gObj[iUserIndex].pInventory[7].m_Type > ITEMGET(12,445))
; 571  : #endif
; 572  : 			 && (gObj[iUserIndex].pInventory[7].m_Type < ITEMGET(12,262) || gObj[iUserIndex].pInventory[7].m_Type > ITEMGET(12,267))

  00101	8b 84 19 c0 11
	00 00		 mov	 eax, DWORD PTR [ecx+ebx+4544]
  00108	03 cb		 add	 ecx, ebx
  0010a	ba 00 18 00 00	 mov	 edx, 6144		; 00001800H
  0010f	0f b7 80 d2 05
	00 00		 movzx	 eax, WORD PTR [eax+1490]
  00116	66 3b c2	 cmp	 ax, dx
  00119	7c 0e		 jl	 SHORT $LN8@CheckEnter
  0011b	ba 06 18 00 00	 mov	 edx, 6150		; 00001806H
  00120	66 3b c2	 cmp	 ax, dx
  00123	0f 8e b8 00 00
	00		 jle	 $LN7@CheckEnter
$LN8@CheckEnter:
  00129	ba 24 18 00 00	 mov	 edx, 6180		; 00001824H
  0012e	66 3b c2	 cmp	 ax, dx
  00131	7c 0e		 jl	 SHORT $LN9@CheckEnter
  00133	ba 2b 18 00 00	 mov	 edx, 6187		; 0000182bH
  00138	66 3b c2	 cmp	 ax, dx
  0013b	0f 8e a0 00 00
	00		 jle	 $LN7@CheckEnter
$LN9@CheckEnter:
  00141	ba 31 18 00 00	 mov	 edx, 6193		; 00001831H
  00146	66 3b c2	 cmp	 ax, dx
  00149	0f 84 92 00 00
	00		 je	 $LN7@CheckEnter
  0014f	ba 32 18 00 00	 mov	 edx, 6194		; 00001832H
  00154	66 3b c2	 cmp	 ax, dx
  00157	0f 84 84 00 00
	00		 je	 $LN7@CheckEnter
  0015d	ba 82 18 00 00	 mov	 edx, 6274		; 00001882H
  00162	66 3b c2	 cmp	 ax, dx
  00165	7c 0a		 jl	 SHORT $LN10@CheckEnter
  00167	ba 87 18 00 00	 mov	 edx, 6279		; 00001887H
  0016c	66 3b c2	 cmp	 ax, dx
  0016f	7e 70		 jle	 SHORT $LN7@CheckEnter
$LN10@CheckEnter:
  00171	ba 1e 1a 00 00	 mov	 edx, 6686		; 00001a1eH
  00176	66 3b c2	 cmp	 ax, dx
  00179	74 66		 je	 SHORT $LN7@CheckEnter
  0017b	8b 91 c0 11 00
	00		 mov	 edx, DWORD PTR [ecx+4544]
  00181	c7 45 08 03 1a
	00 00		 mov	 DWORD PTR tv248[ebp], 6659 ; 00001a03H
  00188	0f b7 92 a6 06
	00 00		 movzx	 edx, WORD PTR [edx+1702]
  0018f	66 3b 55 08	 cmp	 dx, WORD PTR tv248[ebp]
  00193	74 4c		 je	 SHORT $LN7@CheckEnter
  00195	c7 45 08 25 1a
	00 00		 mov	 DWORD PTR tv256[ebp], 6693 ; 00001a25H
  0019c	66 3b 55 08	 cmp	 dx, WORD PTR tv256[ebp]
  001a0	74 3f		 je	 SHORT $LN7@CheckEnter
  001a2	ba 06 19 00 00	 mov	 edx, 6406		; 00001906H
  001a7	66 3b c2	 cmp	 ax, dx
  001aa	7c 0a		 jl	 SHORT $LN11@CheckEnter
  001ac	ba 0b 19 00 00	 mov	 edx, 6411		; 0000190bH
  001b1	66 3b c2	 cmp	 ax, dx
  001b4	7e 2b		 jle	 SHORT $LN7@CheckEnter
$LN11@CheckEnter:

; 573  : 			 
; 574  : 			 )
; 575  : 		{
; 576  : 			LogAddTD("[ KANTURU ][ Entrance Fail ] Wing Item is not exist [%s][%s] State(%d)-(%d)",

  001b6	ff b6 fc 00 00
	00		 push	 DWORD PTR [esi+252]
  001bc	8d 41 5d	 lea	 eax, DWORD PTR [ecx+93]
  001bf	ff 76 08	 push	 DWORD PTR [esi+8]
  001c2	50		 push	 eax
  001c3	8d 41 52	 lea	 eax, DWORD PTR [ecx+82]
  001c6	50		 push	 eax
  001c7	68 00 00 00 00	 push	 OFFSET ??_C@_0EM@CONDJFLC@?$FL?5KANTURU?5?$FN?$FL?5Entrance?5Fail?5?$FN?5Win@
  001cc	ff 15 00 00 00
	00		 call	 DWORD PTR ?LogAddTD@@3P6AXPADZZA ; LogAddTD
  001d2	83 c4 14	 add	 esp, 20			; 00000014H

; 577  : 				gObj[iUserIndex].AccountID, gObj[iUserIndex].Name,
; 578  : 				this->GetKanturuState(), this->m_BattleOfMaya.GetBattleOfMayaState());
; 579  : 
; 580  : 			return 7;

  001d5	b8 07 00 00 00	 mov	 eax, 7
  001da	5b		 pop	 ebx
  001db	5f		 pop	 edi
  001dc	5e		 pop	 esi

; 622  : }

  001dd	5d		 pop	 ebp
  001de	c2 04 00	 ret	 4
$LN7@CheckEnter:

; 581  : 		}
; 582  : 
; 583  : 		if ( gObj[iUserIndex].pInventory[8].m_Type == ITEMGET(13,2) )

  001e1	8b 81 c0 11 00
	00		 mov	 eax, DWORD PTR [ecx+4544]
  001e7	ba 02 1a 00 00	 mov	 edx, 6658		; 00001a02H
  001ec	66 39 90 a6 06
	00 00		 cmp	 WORD PTR [eax+1702], dx
  001f3	75 2b		 jne	 SHORT $LN12@CheckEnter

; 584  : 		{
; 585  : 			LogAddTD("[ KANTURU ][ Entrance Fail ] Uniria Item is exist [%s][%s] State(%d)-(%d)",

  001f5	ff b6 fc 00 00
	00		 push	 DWORD PTR [esi+252]
  001fb	8d 41 5d	 lea	 eax, DWORD PTR [ecx+93]
  001fe	ff 76 08	 push	 DWORD PTR [esi+8]
  00201	50		 push	 eax
  00202	8d 41 52	 lea	 eax, DWORD PTR [ecx+82]
  00205	50		 push	 eax
  00206	68 00 00 00 00	 push	 OFFSET ??_C@_0EK@BCIDIJNJ@?$FL?5KANTURU?5?$FN?$FL?5Entrance?5Fail?5?$FN?5Uni@
  0020b	ff 15 00 00 00
	00		 call	 DWORD PTR ?LogAddTD@@3P6AXPADZZA ; LogAddTD
  00211	83 c4 14	 add	 esp, 20			; 00000014H

; 586  : 				gObj[iUserIndex].AccountID, gObj[iUserIndex].Name,
; 587  : 				this->GetKanturuState(), this->m_BattleOfMaya.GetBattleOfMayaState());
; 588  : 
; 589  : 			return 5;

  00214	b8 05 00 00 00	 mov	 eax, 5
  00219	5b		 pop	 ebx
  0021a	5f		 pop	 edi
  0021b	5e		 pop	 esi

; 622  : }

  0021c	5d		 pop	 ebp
  0021d	c2 04 00	 ret	 4
$LN12@CheckEnter:

; 590  : 		}
; 591  : 		
; 592  : 		if( IsTransformEquipment(iUserIndex) )

  00220	57		 push	 edi
  00221	e8 00 00 00 00	 call	 ?IsTransformEquipment@@YA_NH@Z ; IsTransformEquipment

; 593  : 		{
; 594  : 			LogAddTD("[ KANTURU ][ Entrance Fail ] Trasportation Ring is exist [%s][%s] State(%d)-(%d)",

  00226	8b 0d 00 00 00
	00		 mov	 ecx, DWORD PTR ?gObj@@3PAUOBJECTSTRUCT@@A ; gObj
  0022c	83 c4 04	 add	 esp, 4
  0022f	84 c0		 test	 al, al
  00231	ff b6 fc 00 00
	00		 push	 DWORD PTR [esi+252]
  00237	8d 41 5d	 lea	 eax, DWORD PTR [ecx+93]
  0023a	ff 76 08	 push	 DWORD PTR [esi+8]
  0023d	74 23		 je	 SHORT $LN13@CheckEnter
  0023f	03 c3		 add	 eax, ebx
  00241	50		 push	 eax
  00242	8d 41 52	 lea	 eax, DWORD PTR [ecx+82]
  00245	03 c3		 add	 eax, ebx
  00247	50		 push	 eax
  00248	68 00 00 00 00	 push	 OFFSET ??_C@_0FB@GCLEDKFJ@?$FL?5KANTURU?5?$FN?$FL?5Entrance?5Fail?5?$FN?5Tra@
  0024d	ff 15 00 00 00
	00		 call	 DWORD PTR ?LogAddTD@@3P6AXPADZZA ; LogAddTD
  00253	83 c4 14	 add	 esp, 20			; 00000014H

; 595  : 				gObj[iUserIndex].AccountID, gObj[iUserIndex].Name,
; 596  : 				this->GetKanturuState(), this->m_BattleOfMaya.GetBattleOfMayaState());
; 597  : 			return 6;

  00256	b8 06 00 00 00	 mov	 eax, 6
  0025b	5b		 pop	 ebx
  0025c	5f		 pop	 edi
  0025d	5e		 pop	 esi

; 622  : }

  0025e	5d		 pop	 ebp
  0025f	c2 04 00	 ret	 4
$LN13@CheckEnter:

; 598  : 		}
; 599  : 
; 600  : 		LogAddTD("[ KANTURU ][ Entrance Success ] [%s][%s] State(%d)-(%d)",

  00262	03 c3		 add	 eax, ebx
  00264	50		 push	 eax
  00265	8d 41 52	 lea	 eax, DWORD PTR [ecx+82]
  00268	03 c3		 add	 eax, ebx

; 601  : 			gObj[iUserIndex].AccountID, gObj[iUserIndex].Name,
; 602  : 			this->GetKanturuState(), this->m_BattleOfMaya.GetBattleOfMayaState());
; 603  : 
; 604  : 		return 0;

  0026a	eb 1c		 jmp	 SHORT $LN57@CheckEnter
$LN4@CheckEnter:

; 605  : 	}
; 606  : 
; 607  : 	if ( this->GetKanturuState() == KANTURU_STATE_TOWER_OF_REFINEMENT &&

  0026c	83 f8 04	 cmp	 eax, 4
  0026f	75 2f		 jne	 SHORT $LN14@CheckEnter
  00271	83 be bc 03 00
	00 01		 cmp	 DWORD PTR [esi+956], 1
  00278	75 26		 jne	 SHORT $LN14@CheckEnter

; 608  : 		 this->m_TowerOfRefinement.GetEntrancePermit() == TRUE )
; 609  : 	{
; 610  : 		LogAddTD("[ KANTURU ][ Entrance Success ] [%s][%s] State(%d)-(%d)",

  0027a	ff b6 b8 03 00
	00		 push	 DWORD PTR [esi+952]
  00280	50		 push	 eax
  00281	8d 41 5d	 lea	 eax, DWORD PTR [ecx+93]
  00284	50		 push	 eax
  00285	8d 41 52	 lea	 eax, DWORD PTR [ecx+82]
$LN57@CheckEnter:
  00288	50		 push	 eax
  00289	68 00 00 00 00	 push	 OFFSET ??_C@_0DI@ICLHIMEO@?$FL?5KANTURU?5?$FN?$FL?5Entrance?5Success?5?$FN?5@
  0028e	ff 15 00 00 00
	00		 call	 DWORD PTR ?LogAddTD@@3P6AXPADZZA ; LogAddTD
  00294	83 c4 14	 add	 esp, 20			; 00000014H

; 611  : 			gObj[iUserIndex].AccountID, gObj[iUserIndex].Name,
; 612  : 			this->GetKanturuState(), this->m_TowerOfRefinement.GetTowerOfRefinementState());
; 613  : 
; 614  : 		return 0;

  00297	33 c0		 xor	 eax, eax
  00299	5b		 pop	 ebx
  0029a	5f		 pop	 edi
  0029b	5e		 pop	 esi

; 622  : }

  0029c	5d		 pop	 ebp
  0029d	c2 04 00	 ret	 4
$LN14@CheckEnter:

; 615  : 	}
; 616  : 
; 617  : 	LogAddTD("[ KANTURU ][ Entrance Fail ] [%s][%s] State(%d)",

  002a0	50		 push	 eax
  002a1	8d 41 5d	 lea	 eax, DWORD PTR [ecx+93]
  002a4	50		 push	 eax
  002a5	8d 41 52	 lea	 eax, DWORD PTR [ecx+82]
  002a8	50		 push	 eax
  002a9	68 00 00 00 00	 push	 OFFSET ??_C@_0DA@EDHFFGEB@?$FL?5KANTURU?5?$FN?$FL?5Entrance?5Fail?5?$FN?5?$FL?$CFs@
  002ae	ff 15 00 00 00
	00		 call	 DWORD PTR ?LogAddTD@@3P6AXPADZZA ; LogAddTD
  002b4	83 c4 10	 add	 esp, 16			; 00000010H

; 618  : 		gObj[iUserIndex].AccountID, gObj[iUserIndex].Name,
; 619  : 		this->GetKanturuState());
; 620  : 
; 621  : 	return 3;

  002b7	b8 03 00 00 00	 mov	 eax, 3
  002bc	5b		 pop	 ebx
  002bd	5f		 pop	 edi
  002be	5e		 pop	 esi

; 622  : }

  002bf	5d		 pop	 ebp
  002c0	c2 04 00	 ret	 4
?CheckEnterKanturu@CKanturu@@QAEHH@Z ENDP		; CKanturu::CheckEnterKanturu
_TEXT	ENDS
; Function compile flags: /Ogtp
; File c:\users\michel\desktop\source\gameserver\source\kanturu.cpp
;	COMDAT ?CheckUserOnKanturuBossMap@CKanturu@@QAEXXZ
_TEXT	SEGMENT
?CheckUserOnKanturuBossMap@CKanturu@@QAEXXZ PROC	; CKanturu::CheckUserOnKanturuBossMap, COMDAT
; _this$ = ecx

; 495  : {

  00000	56		 push	 esi
  00001	57		 push	 edi

; 496  : 	for ( int iCount=OBJ_STARTUSERINDEX;iCount<OBJMAX;iCount++)

  00002	bf 04 29 00 00	 mov	 edi, 10500		; 00002904H
  00007	be 00 dd 49 06	 mov	 esi, 105504000		; 0649dd00H
  0000c	0f 1f 40 00	 npad	 4
$LL4@CheckUserO:

; 497  : 	{
; 498  : 		if ( gObj[iCount].Connected == PLAYER_PLAYING &&
; 499  : 			 gObj[iCount].Type == OBJ_USER &&

  00010	a1 00 00 00 00	 mov	 eax, DWORD PTR ?gObj@@3PAUOBJECTSTRUCT@@A ; gObj
  00015	83 7c 06 04 03	 cmp	 DWORD PTR [esi+eax+4], 3
  0001a	75 6a		 jne	 SHORT $LN2@CheckUserO
  0001c	80 7c 06 50 01	 cmp	 BYTE PTR [esi+eax+80], 1
  00021	75 63		 jne	 SHORT $LN2@CheckUserO
  00023	80 bc 06 23 01
	00 00 27	 cmp	 BYTE PTR [esi+eax+291], 39 ; 00000027H
  0002b	75 59		 jne	 SHORT $LN2@CheckUserO

; 500  : 			 gObj[iCount].MapNumber == MAP_INDEX_KANTURU_BOSS)
; 501  : 		{
; 502  : #if (GS_CASTLE == 0 || GS_SPEC == 1)
; 503  : 			if ( gObj[iCount].m_bKanturuEntranceByNPC == FALSE )

  0002d	83 bc 06 a0 25
	00 00 00	 cmp	 DWORD PTR [esi+eax+9632], 0
  00035	75 4f		 jne	 SHORT $LN2@CheckUserO

; 504  : 			{
; 505  : #endif
; 506  : 				if ( (gObj[iCount].Authority&2) != 2 )

  00037	f6 84 06 bc 01
	00 00 02	 test	 BYTE PTR [esi+eax+444], 2
  0003f	75 45		 jne	 SHORT $LN2@CheckUserO

; 507  : 				{
; 508  : 					if ( gObj[iCount].RegenOk == 0 &&
; 509  : 						 gObj[iCount].m_State == 2 &&

  00041	80 bc 06 8b 05
	00 00 00	 cmp	 BYTE PTR [esi+eax+1419], 0
  00049	75 3b		 jne	 SHORT $LN2@CheckUserO
  0004b	83 bc 06 d0 01
	00 00 02	 cmp	 DWORD PTR [esi+eax+464], 2
  00053	75 31		 jne	 SHORT $LN2@CheckUserO
  00055	80 7c 06 51 01	 cmp	 BYTE PTR [esi+eax+81], 1
  0005a	75 2a		 jne	 SHORT $LN2@CheckUserO

; 510  : 						 gObj[iCount].Live == TRUE)
; 511  : 					{
; 512  : 						gObjMoveGate(iCount, 17);

  0005c	6a 11		 push	 17			; 00000011H
  0005e	57		 push	 edi
  0005f	e8 00 00 00 00	 call	 ?gObjMoveGate@@YAHHH@Z	; gObjMoveGate

; 513  : 
; 514  : 						LogAddC(2, "[ KANTURU ][ Invalid User ] Invalid Kanturu Boss Map User[%s][%s]",

  00064	8b 0d 00 00 00
	00		 mov	 ecx, DWORD PTR ?gObj@@3PAUOBJECTSTRUCT@@A ; gObj
  0006a	8d 41 5d	 lea	 eax, DWORD PTR [ecx+93]
  0006d	03 c6		 add	 eax, esi
  0006f	50		 push	 eax
  00070	8d 41 52	 lea	 eax, DWORD PTR [ecx+82]
  00073	03 c6		 add	 eax, esi
  00075	50		 push	 eax
  00076	68 00 00 00 00	 push	 OFFSET ??_C@_0EC@MFOBEJFM@?$FL?5KANTURU?5?$FN?$FL?5Invalid?5User?5?$FN?5Inva@
  0007b	6a 02		 push	 2
  0007d	ff 15 00 00 00
	00		 call	 DWORD PTR ?LogAddC@@3P6AXEPADZZA ; LogAddC
  00083	83 c4 18	 add	 esp, 24			; 00000018H
$LN2@CheckUserO:

; 496  : 	for ( int iCount=OBJ_STARTUSERINDEX;iCount<OBJMAX;iCount++)

  00086	81 c6 40 27 00
	00		 add	 esi, 10048		; 00002740H
  0008c	47		 inc	 edi
  0008d	81 fe 00 2f e3
	06		 cmp	 esi, 115552000		; 06e32f00H
  00093	0f 8c 77 ff ff
	ff		 jl	 $LL4@CheckUserO

; 515  : 							gObj[iCount].AccountID, gObj[iCount].Name);
; 516  : 					}
; 517  : 				}
; 518  : #if (GS_CASTLE == 0 || GS_SPEC == 1)
; 519  : 			}
; 520  : #endif
; 521  : 		}
; 522  : 	}
; 523  : }

  00099	5f		 pop	 edi
  0009a	5e		 pop	 esi
  0009b	c3		 ret	 0
?CheckUserOnKanturuBossMap@CKanturu@@QAEXXZ ENDP	; CKanturu::CheckUserOnKanturuBossMap
_TEXT	ENDS
; Function compile flags: /Ogtp
; File c:\users\michel\desktop\source\gameserver\source\kanturu.cpp
;	COMDAT ?GetRemainTime@CKanturu@@QAEHXZ
_TEXT	SEGMENT
?GetRemainTime@CKanturu@@QAEHXZ PROC			; CKanturu::GetRemainTime, COMDAT
; _this$ = ecx

; 465  : 	int iRemainTime = 0;
; 466  : 
; 467  : 	switch ( this->GetKanturuState() )

  00000	8b 41 08	 mov	 eax, DWORD PTR [ecx+8]
  00003	33 d2		 xor	 edx, edx
  00005	48		 dec	 eax
  00006	83 f8 03	 cmp	 eax, 3
  00009	77 3e		 ja	 SHORT $LN2@GetRemainT
  0000b	ff 24 85 00 00
	00 00		 jmp	 DWORD PTR $LN13@GetRemainT[eax*4]
$LN4@GetRemainT:

; 468  : 	{
; 469  : 		case KANTURU_STATE_BATTLE_STANTBY:
; 470  : 			iRemainTime = this->m_BattleStanby.GetRemainTime();

  00012	81 c1 90 00 00
	00		 add	 ecx, 144		; 00000090H
  00018	e8 00 00 00 00	 call	 ?GetRemainTime@CKanturuBattleStanby@@QAEHXZ ; CKanturuBattleStanby::GetRemainTime

; 477  : 			break;
; 478  : 		case KANTURU_STATE_TOWER_OF_REFINEMENT:
; 479  : 			iRemainTime = this->m_TowerOfRefinement.GetRemainTime();

  0001d	8b d0		 mov	 edx, eax

; 484  : }

  0001f	c3		 ret	 0
$LN5@GetRemainT:

; 471  : 			break;
; 472  : 		case KANTURU_STATE_BATTLE_OF_MAYA:
; 473  : 			iRemainTime = this->m_BattleOfMaya.GetRemainTime();

  00020	81 c1 f4 00 00
	00		 add	 ecx, 244		; 000000f4H
  00026	e8 00 00 00 00	 call	 ?GetRemainTime@CKanturuBattleOfMaya@@QAEHXZ ; CKanturuBattleOfMaya::GetRemainTime

; 477  : 			break;
; 478  : 		case KANTURU_STATE_TOWER_OF_REFINEMENT:
; 479  : 			iRemainTime = this->m_TowerOfRefinement.GetRemainTime();

  0002b	8b d0		 mov	 edx, eax

; 484  : }

  0002d	c3		 ret	 0
$LN6@GetRemainT:

; 474  : 			break;
; 475  : 		case KANTURU_STATE_BATTLE_OF_NIGHTMARE:
; 476  : 			iRemainTime = this->m_BattleOfNightmare.GetRemainTime();

  0002e	81 c1 20 03 00
	00		 add	 ecx, 800		; 00000320H
  00034	e8 00 00 00 00	 call	 ?GetRemainTime@CKanturuBattleOfNightmare@@QAEHXZ ; CKanturuBattleOfNightmare::GetRemainTime

; 477  : 			break;
; 478  : 		case KANTURU_STATE_TOWER_OF_REFINEMENT:
; 479  : 			iRemainTime = this->m_TowerOfRefinement.GetRemainTime();

  00039	8b d0		 mov	 edx, eax

; 484  : }

  0003b	c3		 ret	 0
$LN7@GetRemainT:

; 477  : 			break;
; 478  : 		case KANTURU_STATE_TOWER_OF_REFINEMENT:
; 479  : 			iRemainTime = this->m_TowerOfRefinement.GetRemainTime();

  0003c	81 c1 b4 03 00
	00		 add	 ecx, 948		; 000003b4H
  00042	e8 00 00 00 00	 call	 ?GetRemainTime@CKanturuTowerOfRefinement@@QAEHXZ ; CKanturuTowerOfRefinement::GetRemainTime
  00047	8b d0		 mov	 edx, eax
$LN2@GetRemainT:

; 480  : 			break;
; 481  : 	}
; 482  : 
; 483  : 	return iRemainTime;

  00049	8b c2		 mov	 eax, edx

; 484  : }

  0004b	c3		 ret	 0
$LN13@GetRemainT:
  0004c	00 00 00 00	 DD	 $LN4@GetRemainT
  00050	00 00 00 00	 DD	 $LN5@GetRemainT
  00054	00 00 00 00	 DD	 $LN6@GetRemainT
  00058	00 00 00 00	 DD	 $LN7@GetRemainT
?GetRemainTime@CKanturu@@QAEHXZ ENDP			; CKanturu::GetRemainTime
_TEXT	ENDS
; Function compile flags: /Ogtp
; File c:\users\michel\desktop\source\gameserver\source\kanturu.cpp
; File c:\users\michel\desktop\source\gameserver\source\kanturustateinfo.h
; File c:\users\michel\desktop\source\gameserver\source\kanturu.cpp
; File c:\users\michel\desktop\source\gameserver\source\kanturustateinfo.h
; File c:\users\michel\desktop\source\gameserver\source\kanturu.cpp
;	COMDAT ?CheckStateTime@CKanturu@@QAEXXZ
_TEXT	SEGMENT
tv189 = -4						; size = 4
?CheckStateTime@CKanturu@@QAEXXZ PROC			; CKanturu::CheckStateTime, COMDAT
; _this$ = ecx

; 446  : {

  00000	55		 push	 ebp
  00001	8b ec		 mov	 ebp, esp
  00003	51		 push	 ecx
  00004	53		 push	 ebx
  00005	8b d9		 mov	 ebx, ecx
  00007	57		 push	 edi

; 447  : 	if ( this->GetKanturuState() )

  00008	8b 7b 08	 mov	 edi, DWORD PTR [ebx+8]
  0000b	85 ff		 test	 edi, edi
  0000d	74 46		 je	 SHORT $LN4@CheckState

; 451  : 		if ( this->m_StateInfo[iState].GetCondition() == 1 )

  0000f	8d 04 bf	 lea	 eax, DWORD PTR [edi+edi*4]
  00012	83 7c 83 1c 01	 cmp	 DWORD PTR [ebx+eax*4+28], 1
; File c:\users\michel\desktop\source\gameserver\source\kanturustateinfo.h

; 42   : 		return this->m_iCondition;

  00017	8d 04 83	 lea	 eax, DWORD PTR [ebx+eax*4]
  0001a	89 45 fc	 mov	 DWORD PTR tv189[ebp], eax
; File c:\users\michel\desktop\source\gameserver\source\kanturu.cpp

; 451  : 		if ( this->m_StateInfo[iState].GetCondition() == 1 )

  0001d	75 36		 jne	 SHORT $LN4@CheckState
  0001f	56		 push	 esi
; File c:\users\michel\desktop\source\gameserver\source\kanturustateinfo.h

; 61   : 		return this->m_dwAppliedTickCount;

  00020	8b 70 24	 mov	 esi, DWORD PTR [eax+36]

; 62   : 	}
; 63   : 
; 64   : 	//void __thiscall ResetAppliedTime();
; 65   : 	int GetElapsedTime()
; 66   : 	{
; 67   : 		int iElapsedTime = GetTickCount() - this->GetAppliedTime();

  00023	ff 15 00 00 00
	00		 call	 DWORD PTR __imp__GetTickCount@0

; 68   : 		return iElapsedTime;
; 69   : 	}
; 70   : 
; 71   : 	int GetRemainTime()
; 72   : 	{
; 73   : 		int iRemainTime = 0;
; 74   : 
; 75   : 		if ( this->GetCondition() == 1 )
; 76   : 		{
; 77   : 			iRemainTime = this->m_iValue - this->GetElapsedTime();

  00029	8b 4d fc	 mov	 ecx, DWORD PTR tv189[ebp]

; 62   : 	}
; 63   : 
; 64   : 	//void __thiscall ResetAppliedTime();
; 65   : 	int GetElapsedTime()
; 66   : 	{
; 67   : 		int iElapsedTime = GetTickCount() - this->GetAppliedTime();

  0002c	2b c6		 sub	 eax, esi
  0002e	5e		 pop	 esi

; 68   : 		return iElapsedTime;
; 69   : 	}
; 70   : 
; 71   : 	int GetRemainTime()
; 72   : 	{
; 73   : 		int iRemainTime = 0;
; 74   : 
; 75   : 		if ( this->GetCondition() == 1 )
; 76   : 		{
; 77   : 			iRemainTime = this->m_iValue - this->GetElapsedTime();

  0002f	8b 49 20	 mov	 ecx, DWORD PTR [ecx+32]
  00032	2b c8		 sub	 ecx, eax

; 78   : 
; 79   : 			if ( iRemainTime <= 0 )

  00034	85 c9		 test	 ecx, ecx
  00036	7e 15		 jle	 SHORT $LN26@CheckState

; 80   : 			{
; 81   : 				return 0;
; 82   : 			}
; 83   : 
; 84   : 			iRemainTime /= 1000;

  00038	b8 d3 4d 62 10	 mov	 eax, 274877907		; 10624dd3H
  0003d	f7 e9		 imul	 ecx
  0003f	c1 fa 06	 sar	 edx, 6
  00042	8b c2		 mov	 eax, edx
  00044	c1 e8 1f	 shr	 eax, 31			; 0000001fH
  00047	03 c2		 add	 eax, edx

; 85   : 		}
; 86   : 
; 87   : 		return iRemainTime;
; 88   : 	}
; 89   : 
; 90   : 	BOOL IsTimeOut()
; 91   : 	{
; 92   : 		if ( this->GetRemainTime() <= 0 )

  00049	85 c0		 test	 eax, eax
  0004b	7f 08		 jg	 SHORT $LN4@CheckState
$LN26@CheckState:
; File c:\users\michel\desktop\source\gameserver\source\kanturu.cpp

; 455  : 				this->SetNextState(iState);

  0004d	57		 push	 edi
  0004e	8b cb		 mov	 ecx, ebx
  00050	e8 00 00 00 00	 call	 ?SetNextState@CKanturu@@QAEXH@Z ; CKanturu::SetNextState
$LN4@CheckState:
  00055	5f		 pop	 edi
  00056	5b		 pop	 ebx

; 456  : 			}
; 457  : 		}
; 458  : 	}
; 459  : }

  00057	8b e5		 mov	 esp, ebp
  00059	5d		 pop	 ebp
  0005a	c3		 ret	 0
?CheckStateTime@CKanturu@@QAEXXZ ENDP			; CKanturu::CheckStateTime
_TEXT	ENDS
; Function compile flags: /Ogtp
; File c:\users\michel\desktop\source\gameserver\source\kanturu.cpp
; File c:\users\michel\desktop\source\gameserver\source\kanturubattlestanby.h
; File c:\users\michel\desktop\source\gameserver\source\kanturu.cpp
; File c:\users\michel\desktop\source\gameserver\source\kanturubattleofmaya.h
; File c:\users\michel\desktop\source\gameserver\source\kanturu.cpp
; File c:\users\michel\desktop\source\gameserver\source\kanturubattleofnightmare.h
; File c:\users\michel\desktop\source\gameserver\source\kanturu.cpp
; File c:\users\michel\desktop\source\gameserver\source\kanturutowerofrefinement.h
; File c:\users\michel\desktop\source\gameserver\source\kanturu.cpp
;	COMDAT ?GetKanturuDetailState@CKanturu@@QAEHXZ
_TEXT	SEGMENT
?GetKanturuDetailState@CKanturu@@QAEHXZ PROC		; CKanturu::GetKanturuDetailState, COMDAT
; _this$ = ecx

; 423  : 	int iCurrentDetailState = KANTURU_STATE_NONE;
; 424  : 
; 425  : 	switch ( this->GetKanturuState() )

  00000	8b 41 08	 mov	 eax, DWORD PTR [ecx+8]
  00003	33 d2		 xor	 edx, edx
  00005	48		 dec	 eax
  00006	83 f8 03	 cmp	 eax, 3
  00009	77 28		 ja	 SHORT $LN2@GetKanturu
  0000b	ff 24 85 00 00
	00 00		 jmp	 DWORD PTR $LN20@GetKanturu[eax*4]
$LN4@GetKanturu:
; File c:\users\michel\desktop\source\gameserver\source\kanturubattlestanby.h

; 47   : 	int GetBattleStanbyState(){return this->m_iBattleStanbyState;}

  00012	8b 91 94 00 00
	00		 mov	 edx, DWORD PTR [ecx+148]
; File c:\users\michel\desktop\source\gameserver\source\kanturu.cpp

; 441  : 	return iCurrentDetailState;

  00018	8b c2		 mov	 eax, edx

; 442  : }

  0001a	c3		 ret	 0
$LN5@GetKanturu:
; File c:\users\michel\desktop\source\gameserver\source\kanturubattleofmaya.h

; 94   : 	int GetBattleOfMayaState(){return this->m_iBattleOfMayaState;}

  0001b	8b 91 fc 00 00
	00		 mov	 edx, DWORD PTR [ecx+252]
; File c:\users\michel\desktop\source\gameserver\source\kanturu.cpp

; 441  : 	return iCurrentDetailState;

  00021	8b c2		 mov	 eax, edx

; 442  : }

  00023	c3		 ret	 0
$LN6@GetKanturu:
; File c:\users\michel\desktop\source\gameserver\source\kanturubattleofnightmare.h

; 50   : 	int GetBattleOfNightmareState(){return this->m_iBattleOfNightmareState;}

  00024	8b 91 24 03 00
	00		 mov	 edx, DWORD PTR [ecx+804]
; File c:\users\michel\desktop\source\gameserver\source\kanturu.cpp

; 441  : 	return iCurrentDetailState;

  0002a	8b c2		 mov	 eax, edx

; 442  : }

  0002c	c3		 ret	 0
$LN7@GetKanturu:
; File c:\users\michel\desktop\source\gameserver\source\kanturutowerofrefinement.h

; 52   : 	int GetTowerOfRefinementState(){return this->m_iTowerOfRefinementState;}

  0002d	8b 91 b8 03 00
	00		 mov	 edx, DWORD PTR [ecx+952]
$LN2@GetKanturu:
; File c:\users\michel\desktop\source\gameserver\source\kanturu.cpp

; 441  : 	return iCurrentDetailState;

  00033	8b c2		 mov	 eax, edx

; 442  : }

  00035	c3		 ret	 0
  00036	66 90		 npad	 2
$LN20@GetKanturu:
  00038	00 00 00 00	 DD	 $LN4@GetKanturu
  0003c	00 00 00 00	 DD	 $LN5@GetKanturu
  00040	00 00 00 00	 DD	 $LN6@GetKanturu
  00044	00 00 00 00	 DD	 $LN7@GetKanturu
?GetKanturuDetailState@CKanturu@@QAEHXZ ENDP		; CKanturu::GetKanturuDetailState
_TEXT	ENDS
; Function compile flags: /Ogtp
; File c:\users\michel\desktop\source\gameserver\source\kanturu.h
;	COMDAT ?GetKanturuState@CKanturu@@QAEHXZ
_TEXT	SEGMENT
?GetKanturuState@CKanturu@@QAEHXZ PROC			; CKanturu::GetKanturuState, COMDAT
; _this$ = ecx

; 71   : 	int GetKanturuState(){return this->m_iKanturuState;}

  00000	8b 41 08	 mov	 eax, DWORD PTR [ecx+8]
  00003	c3		 ret	 0
?GetKanturuState@CKanturu@@QAEHXZ ENDP			; CKanturu::GetKanturuState
_TEXT	ENDS
; Function compile flags: /Ogtp
; File c:\users\michel\desktop\source\gameserver\source\kanturu.h
;	COMDAT ?SetKanturuState@CKanturu@@QAEXH@Z
_TEXT	SEGMENT
_iKanturuState$ = 8					; size = 4
?SetKanturuState@CKanturu@@QAEXH@Z PROC			; CKanturu::SetKanturuState, COMDAT
; _this$ = ecx

; 70   : 	void SetKanturuState(int iKanturuState){this->m_iKanturuState = iKanturuState;}

  00000	55		 push	 ebp
  00001	8b ec		 mov	 ebp, esp
  00003	8b 45 08	 mov	 eax, DWORD PTR _iKanturuState$[ebp]
  00006	89 41 08	 mov	 DWORD PTR [ecx+8], eax
  00009	5d		 pop	 ebp
  0000a	c2 04 00	 ret	 4
?SetKanturuState@CKanturu@@QAEXH@Z ENDP			; CKanturu::SetKanturuState
_TEXT	ENDS
; Function compile flags: /Ogtp
; File c:\users\michel\desktop\source\gameserver\source\kanturu.h
;	COMDAT ?IsKanturuEnable@CKanturu@@QAEHXZ
_TEXT	SEGMENT
?IsKanturuEnable@CKanturu@@QAEHXZ PROC			; CKanturu::IsKanturuEnable, COMDAT
; _this$ = ecx

; 69   : 	BOOL IsKanturuEnable(){return this->m_bKanturuEnable;}

  00000	8b 41 04	 mov	 eax, DWORD PTR [ecx+4]
  00003	c3		 ret	 0
?IsKanturuEnable@CKanturu@@QAEHXZ ENDP			; CKanturu::IsKanturuEnable
_TEXT	ENDS
; Function compile flags: /Ogtp
; File c:\users\michel\desktop\source\gameserver\source\kanturu.cpp
;	COMDAT ?ProcState_END@CKanturu@@QAEXXZ
_TEXT	SEGMENT
?ProcState_END@CKanturu@@QAEXXZ PROC			; CKanturu::ProcState_END, COMDAT
; _this$ = ecx

; 417  : 	this->SetState(KANTURU_STATE_NONE);

  00000	6a 00		 push	 0
  00002	e8 00 00 00 00	 call	 ?SetState@CKanturu@@QAEXH@Z ; CKanturu::SetState

; 418  : }

  00007	c3		 ret	 0
?ProcState_END@CKanturu@@QAEXXZ ENDP			; CKanturu::ProcState_END
_TEXT	ENDS
; Function compile flags: /Ogtp
; File c:\users\michel\desktop\source\gameserver\source\kanturu.cpp
;	COMDAT ?ProcState_TOWER_OF_REFINEMENT@CKanturu@@QAEXXZ
_TEXT	SEGMENT
?ProcState_TOWER_OF_REFINEMENT@CKanturu@@QAEXXZ PROC	; CKanturu::ProcState_TOWER_OF_REFINEMENT, COMDAT
; _this$ = ecx

; 402  : {

  00000	56		 push	 esi
  00001	8b f1		 mov	 esi, ecx

; 403  : 	if ( this->m_TowerOfRefinement.GetTowerOfRefinementState() == 5 )

  00003	83 be b8 03 00
	00 05		 cmp	 DWORD PTR [esi+952], 5

; 404  : 	{
; 405  : 		this->m_TowerOfRefinement.SetState(0);

  0000a	8d 8e b4 03 00
	00		 lea	 ecx, DWORD PTR [esi+948]
  00010	75 12		 jne	 SHORT $LN2@ProcState_
  00012	6a 00		 push	 0
  00014	e8 00 00 00 00	 call	 ?SetState@CKanturuTowerOfRefinement@@QAEXH@Z ; CKanturuTowerOfRefinement::SetState

; 406  : 		this->SetState(KANTURU_STATE_END);

  00019	6a 05		 push	 5
  0001b	8b ce		 mov	 ecx, esi
  0001d	e8 00 00 00 00	 call	 ?SetState@CKanturu@@QAEXH@Z ; CKanturu::SetState
  00022	5e		 pop	 esi

; 411  : 	}
; 412  : }

  00023	c3		 ret	 0
$LN2@ProcState_:
  00024	5e		 pop	 esi

; 407  : 	}
; 408  : 	else
; 409  : 	{
; 410  : 		this->m_TowerOfRefinement.Run();

  00025	e9 00 00 00 00	 jmp	 ?Run@CKanturuTowerOfRefinement@@QAEXXZ ; CKanturuTowerOfRefinement::Run
?ProcState_TOWER_OF_REFINEMENT@CKanturu@@QAEXXZ ENDP	; CKanturu::ProcState_TOWER_OF_REFINEMENT
_TEXT	ENDS
; Function compile flags: /Ogtp
; File c:\users\michel\desktop\source\gameserver\source\kanturu.cpp
;	COMDAT ?ProcState_BATTLE_OF_NIGHTMARE@CKanturu@@QAEXXZ
_TEXT	SEGMENT
?ProcState_BATTLE_OF_NIGHTMARE@CKanturu@@QAEXXZ PROC	; CKanturu::ProcState_BATTLE_OF_NIGHTMARE, COMDAT
; _this$ = ecx

; 380  : {

  00000	56		 push	 esi
  00001	8b f1		 mov	 esi, ecx

; 381  : 	if ( this->m_BattleOfNightmare.GetBattleOfNightmareState() == 5 )

  00003	83 be 24 03 00
	00 05		 cmp	 DWORD PTR [esi+804], 5

; 382  : 	{
; 383  : 		this->m_BattleOfNightmare.SetState(0);

  0000a	8d 8e 20 03 00
	00		 lea	 ecx, DWORD PTR [esi+800]
  00010	75 24		 jne	 SHORT $LN2@ProcState_
  00012	6a 00		 push	 0
  00014	e8 00 00 00 00	 call	 ?SetState@CKanturuBattleOfNightmare@@QAEXH@Z ; CKanturuBattleOfNightmare::SetState

; 384  : 
; 385  : 		if ( this->m_BattleOfNightmare.GetSuccessValue() == 1 )

  00019	83 be 28 03 00
	00 01		 cmp	 DWORD PTR [esi+808], 1

; 386  : 		{
; 387  : 			this->SetState(KANTURU_STATE_TOWER_OF_REFINEMENT);

  00020	8b ce		 mov	 ecx, esi
  00022	75 09		 jne	 SHORT $LN4@ProcState_
  00024	6a 04		 push	 4
  00026	e8 00 00 00 00	 call	 ?SetState@CKanturu@@QAEXH@Z ; CKanturu::SetState
  0002b	5e		 pop	 esi

; 397  : 	}
; 398  : }

  0002c	c3		 ret	 0
$LN4@ProcState_:

; 388  : 		}
; 389  : 		else
; 390  : 		{
; 391  : 			this->SetState(KANTURU_STATE_END);

  0002d	6a 05		 push	 5
  0002f	e8 00 00 00 00	 call	 ?SetState@CKanturu@@QAEXH@Z ; CKanturu::SetState
  00034	5e		 pop	 esi

; 397  : 	}
; 398  : }

  00035	c3		 ret	 0
$LN2@ProcState_:
  00036	5e		 pop	 esi

; 392  : 		}
; 393  : 	}
; 394  : 	else
; 395  : 	{
; 396  : 		this->m_BattleOfNightmare.Run();

  00037	e9 00 00 00 00	 jmp	 ?Run@CKanturuBattleOfNightmare@@QAEXXZ ; CKanturuBattleOfNightmare::Run
?ProcState_BATTLE_OF_NIGHTMARE@CKanturu@@QAEXXZ ENDP	; CKanturu::ProcState_BATTLE_OF_NIGHTMARE
_TEXT	ENDS
; Function compile flags: /Ogtp
; File c:\users\michel\desktop\source\gameserver\source\kanturu.cpp
;	COMDAT ?ProcState_BATTLE_OF_MAYA@CKanturu@@QAEXXZ
_TEXT	SEGMENT
?ProcState_BATTLE_OF_MAYA@CKanturu@@QAEXXZ PROC		; CKanturu::ProcState_BATTLE_OF_MAYA, COMDAT
; _this$ = ecx

; 358  : {

  00000	56		 push	 esi
  00001	8b f1		 mov	 esi, ecx

; 359  : 	if ( this->m_BattleOfMaya.GetBattleOfMayaState() == 18 )

  00003	83 be fc 00 00
	00 12		 cmp	 DWORD PTR [esi+252], 18	; 00000012H

; 360  : 	{
; 361  : 		this->m_BattleOfMaya.SetState_NONE();

  0000a	8d 8e f4 00 00
	00		 lea	 ecx, DWORD PTR [esi+244]
  00010	75 22		 jne	 SHORT $LN2@ProcState_
  00012	e8 00 00 00 00	 call	 ?SetState_NONE@CKanturuBattleOfMaya@@QAEXXZ ; CKanturuBattleOfMaya::SetState_NONE

; 362  : 
; 363  : 		if ( this->m_BattleOfMaya.GetSuccessValue() == 1 )

  00017	83 be c8 02 00
	00 01		 cmp	 DWORD PTR [esi+712], 1

; 364  : 		{
; 365  : 			this->SetState(KANTURU_STATE_BATTLE_OF_NIGHTMARE);

  0001e	8b ce		 mov	 ecx, esi
  00020	75 09		 jne	 SHORT $LN4@ProcState_
  00022	6a 03		 push	 3
  00024	e8 00 00 00 00	 call	 ?SetState@CKanturu@@QAEXH@Z ; CKanturu::SetState
  00029	5e		 pop	 esi

; 375  : 	}
; 376  : }

  0002a	c3		 ret	 0
$LN4@ProcState_:

; 366  : 		}
; 367  : 		else
; 368  : 		{
; 369  : 			this->SetState(KANTURU_STATE_END);

  0002b	6a 05		 push	 5
  0002d	e8 00 00 00 00	 call	 ?SetState@CKanturu@@QAEXH@Z ; CKanturu::SetState
  00032	5e		 pop	 esi

; 375  : 	}
; 376  : }

  00033	c3		 ret	 0
$LN2@ProcState_:
  00034	5e		 pop	 esi

; 370  : 		}
; 371  : 	}
; 372  : 	else
; 373  : 	{
; 374  : 		this->m_BattleOfMaya.Run();

  00035	e9 00 00 00 00	 jmp	 ?Run@CKanturuBattleOfMaya@@QAEXXZ ; CKanturuBattleOfMaya::Run
?ProcState_BATTLE_OF_MAYA@CKanturu@@QAEXXZ ENDP		; CKanturu::ProcState_BATTLE_OF_MAYA
_TEXT	ENDS
; Function compile flags: /Ogtp
; File c:\users\michel\desktop\source\gameserver\source\kanturu.cpp
;	COMDAT ?ProcState_BATTLE_STANDBY@CKanturu@@QAEXXZ
_TEXT	SEGMENT
?ProcState_BATTLE_STANDBY@CKanturu@@QAEXXZ PROC		; CKanturu::ProcState_BATTLE_STANDBY, COMDAT
; _this$ = ecx

; 344  : {

  00000	56		 push	 esi
  00001	8b f1		 mov	 esi, ecx

; 345  : 	if ( this->m_BattleStanby.GetBattleStanbyState() == 3 )

  00003	83 be 94 00 00
	00 03		 cmp	 DWORD PTR [esi+148], 3

; 346  : 	{
; 347  : 		this->m_BattleStanby.SetState_NONE();

  0000a	8d 8e 90 00 00
	00		 lea	 ecx, DWORD PTR [esi+144]
  00010	75 10		 jne	 SHORT $LN2@ProcState_
  00012	e8 00 00 00 00	 call	 ?SetState_NONE@CKanturuBattleStanby@@QAEXXZ ; CKanturuBattleStanby::SetState_NONE

; 348  : 		this->SetState(KANTURU_STATE_BATTLE_OF_MAYA);

  00017	6a 02		 push	 2
  00019	8b ce		 mov	 ecx, esi
  0001b	e8 00 00 00 00	 call	 ?SetState@CKanturu@@QAEXH@Z ; CKanturu::SetState
  00020	5e		 pop	 esi

; 353  : 	}
; 354  : }

  00021	c3		 ret	 0
$LN2@ProcState_:
  00022	5e		 pop	 esi

; 349  : 	}
; 350  : 	else
; 351  : 	{
; 352  : 		this->m_BattleStanby.Run();

  00023	e9 00 00 00 00	 jmp	 ?Run@CKanturuBattleStanby@@QAEXXZ ; CKanturuBattleStanby::Run
?ProcState_BATTLE_STANDBY@CKanturu@@QAEXXZ ENDP		; CKanturu::ProcState_BATTLE_STANDBY
_TEXT	ENDS
; Function compile flags: /Ogtp
; File c:\users\michel\desktop\source\gameserver\source\kanturu.cpp
;	COMDAT ?ProcState_NONE@CKanturu@@QAEXXZ
_TEXT	SEGMENT
?ProcState_NONE@CKanturu@@QAEXXZ PROC			; CKanturu::ProcState_NONE, COMDAT
; _this$ = ecx

; 339  : 	this->SetState(KANTURU_STATE_BATTLE_STANTBY);

  00000	6a 01		 push	 1
  00002	e8 00 00 00 00	 call	 ?SetState@CKanturu@@QAEXH@Z ; CKanturu::SetState

; 340  : }

  00007	c3		 ret	 0
?ProcState_NONE@CKanturu@@QAEXXZ ENDP			; CKanturu::ProcState_NONE
_TEXT	ENDS
; Function compile flags: /Ogtp
; File c:\users\michel\desktop\source\gameserver\source\kanturu.cpp
; File c:\users\michel\desktop\source\gameserver\source\kanturu.h
; File c:\users\michel\desktop\source\gameserver\source\kanturu.cpp
;	COMDAT ?SetState_END@CKanturu@@QAEXXZ
_TEXT	SEGMENT
?SetState_END@CKanturu@@QAEXXZ PROC			; CKanturu::SetState_END, COMDAT
; _this$ = ecx

; 330  : {

  00000	56		 push	 esi
  00001	8b f1		 mov	 esi, ecx

; 331  : 	LogAddC(7, "[ KANTURU ] State(%d) -> END", this->m_iKanturuState);

  00003	ff 76 08	 push	 DWORD PTR [esi+8]
  00006	68 00 00 00 00	 push	 OFFSET ??_C@_0BN@DHNKBFGM@?$FL?5KANTURU?5?$FN?5State?$CI?$CFd?$CJ?5?9?$DO?5END?$AA@
  0000b	6a 07		 push	 7
  0000d	ff 15 00 00 00
	00		 call	 DWORD PTR ?LogAddC@@3P6AXEPADZZA ; LogAddC
  00013	83 c4 0c	 add	 esp, 12			; 0000000cH
; File c:\users\michel\desktop\source\gameserver\source\kanturu.h

; 70   : 	void SetKanturuState(int iKanturuState){this->m_iKanturuState = iKanturuState;}

  00016	c7 46 08 05 00
	00 00		 mov	 DWORD PTR [esi+8], 5
; File c:\users\michel\desktop\source\gameserver\source\kanturu.cpp

; 333  : 	g_KanturuBattleUserMng.ResetAllData();

  0001d	b9 00 00 00 00	 mov	 ecx, OFFSET ?g_KanturuBattleUserMng@@3VCKanturuBattleUserMng@@A ; g_KanturuBattleUserMng
  00022	5e		 pop	 esi
  00023	e9 00 00 00 00	 jmp	 ?ResetAllData@CKanturuBattleUserMng@@QAEXXZ ; CKanturuBattleUserMng::ResetAllData
?SetState_END@CKanturu@@QAEXXZ ENDP			; CKanturu::SetState_END
_TEXT	ENDS
; Function compile flags: /Ogtp
; File c:\users\michel\desktop\source\gameserver\source\kanturu.cpp
; File c:\users\michel\desktop\source\gameserver\source\kanturu.h
; File c:\users\michel\desktop\source\gameserver\source\kanturu.cpp
;	COMDAT ?SetState_TOWER_OF_REFINEMENT@CKanturu@@QAEXXZ
_TEXT	SEGMENT
?SetState_TOWER_OF_REFINEMENT@CKanturu@@QAEXXZ PROC	; CKanturu::SetState_TOWER_OF_REFINEMENT, COMDAT
; _this$ = ecx

; 321  : {

  00000	56		 push	 esi
  00001	8b f1		 mov	 esi, ecx

; 322  : 	LogAddC(7, "[ KANTURU ] State(%d) -> TOWER_OF_REFINEMENT", this->m_iKanturuState);

  00003	ff 76 08	 push	 DWORD PTR [esi+8]
  00006	68 00 00 00 00	 push	 OFFSET ??_C@_0CN@CLMPOCFJ@?$FL?5KANTURU?5?$FN?5State?$CI?$CFd?$CJ?5?9?$DO?5TOWER_O@
  0000b	6a 07		 push	 7
  0000d	ff 15 00 00 00
	00		 call	 DWORD PTR ?LogAddC@@3P6AXEPADZZA ; LogAddC
  00013	83 c4 0c	 add	 esp, 12			; 0000000cH
; File c:\users\michel\desktop\source\gameserver\source\kanturu.h

; 70   : 	void SetKanturuState(int iKanturuState){this->m_iKanturuState = iKanturuState;}

  00016	c7 46 08 04 00
	00 00		 mov	 DWORD PTR [esi+8], 4
; File c:\users\michel\desktop\source\gameserver\source\kanturu.cpp

; 324  : 	this->m_TowerOfRefinement.SetState(1);

  0001d	8d 8e b4 03 00
	00		 lea	 ecx, DWORD PTR [esi+948]
  00023	6a 01		 push	 1
  00025	e8 00 00 00 00	 call	 ?SetState@CKanturuTowerOfRefinement@@QAEXH@Z ; CKanturuTowerOfRefinement::SetState

; 325  : 	this->SetKanturuMapAttr(1);

  0002a	6a 01		 push	 1
  0002c	8b ce		 mov	 ecx, esi
  0002e	e8 00 00 00 00	 call	 ?SetKanturuMapAttr@CKanturu@@QAEXE@Z ; CKanturu::SetKanturuMapAttr
  00033	5e		 pop	 esi

; 326  : }

  00034	c3		 ret	 0
?SetState_TOWER_OF_REFINEMENT@CKanturu@@QAEXXZ ENDP	; CKanturu::SetState_TOWER_OF_REFINEMENT
_TEXT	ENDS
; Function compile flags: /Ogtp
; File c:\users\michel\desktop\source\gameserver\source\kanturu.cpp
; File c:\users\michel\desktop\source\gameserver\source\kanturu.h
; File c:\users\michel\desktop\source\gameserver\source\kanturu.cpp
;	COMDAT ?SetState_BATTLE_OF_NIGHTMARE@CKanturu@@QAEXXZ
_TEXT	SEGMENT
?SetState_BATTLE_OF_NIGHTMARE@CKanturu@@QAEXXZ PROC	; CKanturu::SetState_BATTLE_OF_NIGHTMARE, COMDAT
; _this$ = ecx

; 313  : {

  00000	56		 push	 esi
  00001	8b f1		 mov	 esi, ecx

; 314  : 	LogAddC(7, "[ KANTURU ] State(%d) -> BATTLE_OF_NIGHTMARE", this->m_iKanturuState);

  00003	ff 76 08	 push	 DWORD PTR [esi+8]
  00006	68 00 00 00 00	 push	 OFFSET ??_C@_0CN@KPOCOHKC@?$FL?5KANTURU?5?$FN?5State?$CI?$CFd?$CJ?5?9?$DO?5BATTLE_@
  0000b	6a 07		 push	 7
  0000d	ff 15 00 00 00
	00		 call	 DWORD PTR ?LogAddC@@3P6AXEPADZZA ; LogAddC
  00013	83 c4 0c	 add	 esp, 12			; 0000000cH
; File c:\users\michel\desktop\source\gameserver\source\kanturu.h

; 70   : 	void SetKanturuState(int iKanturuState){this->m_iKanturuState = iKanturuState;}

  00016	c7 46 08 03 00
	00 00		 mov	 DWORD PTR [esi+8], 3
; File c:\users\michel\desktop\source\gameserver\source\kanturu.cpp

; 316  : 	this->m_BattleOfNightmare.SetState(1);

  0001d	8d 8e 20 03 00
	00		 lea	 ecx, DWORD PTR [esi+800]
  00023	6a 01		 push	 1
  00025	e8 00 00 00 00	 call	 ?SetState@CKanturuBattleOfNightmare@@QAEXH@Z ; CKanturuBattleOfNightmare::SetState
  0002a	5e		 pop	 esi

; 317  : }

  0002b	c3		 ret	 0
?SetState_BATTLE_OF_NIGHTMARE@CKanturu@@QAEXXZ ENDP	; CKanturu::SetState_BATTLE_OF_NIGHTMARE
_TEXT	ENDS
; Function compile flags: /Ogtp
; File c:\users\michel\desktop\source\gameserver\source\kanturu.cpp
; File c:\users\michel\desktop\source\gameserver\source\kanturu.h
; File c:\users\michel\desktop\source\gameserver\source\kanturu.cpp
;	COMDAT ?SetState_BATTLE_OF_MAYA@CKanturu@@QAEXXZ
_TEXT	SEGMENT
?SetState_BATTLE_OF_MAYA@CKanturu@@QAEXXZ PROC		; CKanturu::SetState_BATTLE_OF_MAYA, COMDAT
; _this$ = ecx

; 305  : {

  00000	56		 push	 esi
  00001	8b f1		 mov	 esi, ecx

; 306  : 	LogAddC(7, "[ KANTURU ] State(%d) -> BATTLE_OF_MAYA", this->m_iKanturuState);

  00003	ff 76 08	 push	 DWORD PTR [esi+8]
  00006	68 00 00 00 00	 push	 OFFSET ??_C@_0CI@PJNHIIEF@?$FL?5KANTURU?5?$FN?5State?$CI?$CFd?$CJ?5?9?$DO?5BATTLE_@
  0000b	6a 07		 push	 7
  0000d	ff 15 00 00 00
	00		 call	 DWORD PTR ?LogAddC@@3P6AXEPADZZA ; LogAddC
  00013	83 c4 0c	 add	 esp, 12			; 0000000cH
; File c:\users\michel\desktop\source\gameserver\source\kanturu.h

; 70   : 	void SetKanturuState(int iKanturuState){this->m_iKanturuState = iKanturuState;}

  00016	c7 46 08 02 00
	00 00		 mov	 DWORD PTR [esi+8], 2
; File c:\users\michel\desktop\source\gameserver\source\kanturu.cpp

; 308  : 	this->m_BattleOfMaya.SetState(1);

  0001d	8d 8e f4 00 00
	00		 lea	 ecx, DWORD PTR [esi+244]
  00023	6a 01		 push	 1
  00025	e8 00 00 00 00	 call	 ?SetState@CKanturuBattleOfMaya@@QAEXH@Z ; CKanturuBattleOfMaya::SetState
  0002a	5e		 pop	 esi

; 309  : }

  0002b	c3		 ret	 0
?SetState_BATTLE_OF_MAYA@CKanturu@@QAEXXZ ENDP		; CKanturu::SetState_BATTLE_OF_MAYA
_TEXT	ENDS
; Function compile flags: /Ogtp
; File c:\users\michel\desktop\source\gameserver\source\kanturu.cpp
; File c:\users\michel\desktop\source\gameserver\source\kanturu.h
; File c:\users\michel\desktop\source\gameserver\source\kanturu.cpp
;	COMDAT ?SetState_BATTLE_STANDBY@CKanturu@@QAEXXZ
_TEXT	SEGMENT
?SetState_BATTLE_STANDBY@CKanturu@@QAEXXZ PROC		; CKanturu::SetState_BATTLE_STANDBY, COMDAT
; _this$ = ecx

; 295  : {

  00000	56		 push	 esi
  00001	8b f1		 mov	 esi, ecx

; 296  : 	LogAddC(7, "[ KANTURU ] State(%d) -> STANDBY", this->m_iKanturuState);

  00003	ff 76 08	 push	 DWORD PTR [esi+8]
  00006	68 00 00 00 00	 push	 OFFSET ??_C@_0CB@GKBCFNNE@?$FL?5KANTURU?5?$FN?5State?$CI?$CFd?$CJ?5?9?$DO?5STANDBY@
  0000b	6a 07		 push	 7
  0000d	ff 15 00 00 00
	00		 call	 DWORD PTR ?LogAddC@@3P6AXEPADZZA ; LogAddC
  00013	83 c4 0c	 add	 esp, 12			; 0000000cH

; 297  : 	g_KanturuBattleUserMng.ResetAllData();

  00016	b9 00 00 00 00	 mov	 ecx, OFFSET ?g_KanturuBattleUserMng@@3VCKanturuBattleUserMng@@A ; g_KanturuBattleUserMng
  0001b	e8 00 00 00 00	 call	 ?ResetAllData@CKanturuBattleUserMng@@QAEXXZ ; CKanturuBattleUserMng::ResetAllData

; 299  : 	this->m_BattleStanby.SetState(1);

  00020	6a 01		 push	 1
  00022	8d 8e 90 00 00
	00		 lea	 ecx, DWORD PTR [esi+144]
; File c:\users\michel\desktop\source\gameserver\source\kanturu.h

; 70   : 	void SetKanturuState(int iKanturuState){this->m_iKanturuState = iKanturuState;}

  00028	c7 46 08 01 00
	00 00		 mov	 DWORD PTR [esi+8], 1
; File c:\users\michel\desktop\source\gameserver\source\kanturu.cpp

; 299  : 	this->m_BattleStanby.SetState(1);

  0002f	e8 00 00 00 00	 call	 ?SetState@CKanturuBattleStanby@@QAEXH@Z ; CKanturuBattleStanby::SetState

; 300  : 	this->SetKanturuTimeAttackEventInfo();

  00034	8b ce		 mov	 ecx, esi
  00036	5e		 pop	 esi
  00037	e9 00 00 00 00	 jmp	 ?SetKanturuTimeAttackEventInfo@CKanturu@@QAEXXZ ; CKanturu::SetKanturuTimeAttackEventInfo
?SetState_BATTLE_STANDBY@CKanturu@@QAEXXZ ENDP		; CKanturu::SetState_BATTLE_STANDBY
_TEXT	ENDS
; Function compile flags: /Ogtp
; File c:\users\michel\desktop\source\gameserver\source\kanturu.cpp
; File c:\users\michel\desktop\source\gameserver\source\kanturu.h
; File c:\users\michel\desktop\source\gameserver\source\kanturu.cpp
;	COMDAT ?SetState_NONE@CKanturu@@QAEXXZ
_TEXT	SEGMENT
?SetState_NONE@CKanturu@@QAEXXZ PROC			; CKanturu::SetState_NONE, COMDAT
; _this$ = ecx

; 288  : {

  00000	56		 push	 esi
  00001	8b f1		 mov	 esi, ecx

; 289  : 	LogAddC(7, "[ KANTURU ] State(%d) -> NONE", this->m_iKanturuState);

  00003	ff 76 08	 push	 DWORD PTR [esi+8]
  00006	68 00 00 00 00	 push	 OFFSET ??_C@_0BO@LMGJPIE@?$FL?5KANTURU?5?$FN?5State?$CI?$CFd?$CJ?5?9?$DO?5NONE?$AA@
  0000b	6a 07		 push	 7
  0000d	ff 15 00 00 00
	00		 call	 DWORD PTR ?LogAddC@@3P6AXEPADZZA ; LogAddC
  00013	83 c4 0c	 add	 esp, 12			; 0000000cH
; File c:\users\michel\desktop\source\gameserver\source\kanturu.h

; 70   : 	void SetKanturuState(int iKanturuState){this->m_iKanturuState = iKanturuState;}

  00016	c7 46 08 00 00
	00 00		 mov	 DWORD PTR [esi+8], 0
  0001d	5e		 pop	 esi
; File c:\users\michel\desktop\source\gameserver\source\kanturu.cpp

; 291  : }

  0001e	c3		 ret	 0
?SetState_NONE@CKanturu@@QAEXXZ ENDP			; CKanturu::SetState_NONE
_TEXT	ENDS
; Function compile flags: /Ogtp
; File c:\users\michel\desktop\source\gameserver\source\kanturu.cpp
;	COMDAT ?ChangeState@CKanturu@@QAEXHH@Z
_TEXT	SEGMENT
_iState$ = 8						; size = 4
_DetailState$ = 12					; size = 4
?ChangeState@CKanturu@@QAEXHH@Z PROC			; CKanturu::ChangeState, COMDAT
; _this$ = ecx

; 281  : 	switch ( iState )
; 282  : 	{
; 283  : 	}
; 284  : }

  00000	c2 08 00	 ret	 8
?ChangeState@CKanturu@@QAEXHH@Z ENDP			; CKanturu::ChangeState
_TEXT	ENDS
; Function compile flags: /Ogtp
; File c:\users\michel\desktop\source\gameserver\source\kanturu.cpp
;	COMDAT ?SetNextState@CKanturu@@QAEXH@Z
_TEXT	SEGMENT
_iCurrentState$ = 8					; size = 4
?SetNextState@CKanturu@@QAEXH@Z PROC			; CKanturu::SetNextState, COMDAT
; _this$ = ecx

; 266  : {

  00000	55		 push	 ebp
  00001	8b ec		 mov	 ebp, esp

; 267  : 	int iNextState = iCurrentState + 1;

  00003	8b 45 08	 mov	 eax, DWORD PTR _iCurrentState$[ebp]

; 268  : 
; 269  : 	if ( iNextState >= MAX_KANTURU_STATE_INFO )

  00006	33 d2		 xor	 edx, edx
  00008	40		 inc	 eax
  00009	83 f8 06	 cmp	 eax, 6
  0000c	0f 4d c2	 cmovge	 eax, edx

; 270  : 	{
; 271  : 		iNextState = KANTURU_STATE_NONE;
; 272  : 	}
; 273  : 
; 274  : 	this->SetState(iNextState);

  0000f	89 45 08	 mov	 DWORD PTR _iCurrentState$[ebp], eax

; 275  : }

  00012	5d		 pop	 ebp

; 270  : 	{
; 271  : 		iNextState = KANTURU_STATE_NONE;
; 272  : 	}
; 273  : 
; 274  : 	this->SetState(iNextState);

  00013	e9 00 00 00 00	 jmp	 ?SetState@CKanturu@@QAEXH@Z ; CKanturu::SetState
?SetNextState@CKanturu@@QAEXH@Z ENDP			; CKanturu::SetNextState
_TEXT	ENDS
; Function compile flags: /Ogtp
; File c:\users\michel\desktop\source\gameserver\source\kanturu.cpp
; File c:\users\michel\desktop\source\gameserver\source\kanturustateinfo.h
; File c:\users\michel\desktop\source\gameserver\source\kanturu.cpp
; File c:\users\michel\desktop\source\gameserver\source\kanturustateinfo.h
; File c:\users\michel\desktop\source\gameserver\source\kanturu.cpp
;	COMDAT ?SetState@CKanturu@@QAEXH@Z
_TEXT	SEGMENT
_iKanturuState$ = 8					; size = 4
?SetState@CKanturu@@QAEXH@Z PROC			; CKanturu::SetState, COMDAT
; _this$ = ecx

; 232  : {

  00000	55		 push	 ebp
  00001	8b ec		 mov	 ebp, esp
  00003	53		 push	 ebx
  00004	56		 push	 esi
  00005	57		 push	 edi

; 233  : 	if ( this->m_StateInfo[iKanturuState].GetCondition() > 0 )

  00006	8b 7d 08	 mov	 edi, DWORD PTR _iKanturuState$[ebp]
  00009	8b f1		 mov	 esi, ecx
  0000b	8d 04 bf	 lea	 eax, DWORD PTR [edi+edi*4]
  0000e	83 7c 86 1c 00	 cmp	 DWORD PTR [esi+eax*4+28], 0
; File c:\users\michel\desktop\source\gameserver\source\kanturustateinfo.h

; 42   : 		return this->m_iCondition;

  00013	8d 1c 86	 lea	 ebx, DWORD PTR [esi+eax*4]
; File c:\users\michel\desktop\source\gameserver\source\kanturu.cpp

; 233  : 	if ( this->m_StateInfo[iKanturuState].GetCondition() > 0 )

  00016	7e 09		 jle	 SHORT $LN4@SetState
; File c:\users\michel\desktop\source\gameserver\source\kanturustateinfo.h

; 56   : 		this->m_dwAppliedTickCount = GetTickCount();

  00018	ff 15 00 00 00
	00		 call	 DWORD PTR __imp__GetTickCount@0
  0001e	89 43 24	 mov	 DWORD PTR [ebx+36], eax
$LN4@SetState:
; File c:\users\michel\desktop\source\gameserver\source\kanturu.cpp

; 238  : 	g_KanturuMonsterMng.ResetRegenMonsterObjData();

  00021	b9 00 00 00 00	 mov	 ecx, OFFSET ?g_KanturuMonsterMng@@3VCKanturuMonsterMng@@A ; g_KanturuMonsterMng
  00026	e8 00 00 00 00	 call	 ?ResetRegenMonsterObjData@CKanturuMonsterMng@@QAEXXZ ; CKanturuMonsterMng::ResetRegenMonsterObjData

; 239  : 	this->SetKanturuMapAttr(0);

  0002b	6a 00		 push	 0
  0002d	8b ce		 mov	 ecx, esi
  0002f	e8 00 00 00 00	 call	 ?SetKanturuMapAttr@CKanturu@@QAEXE@Z ; CKanturu::SetKanturuMapAttr

; 240  : 
; 241  : 	switch ( iKanturuState )

  00034	83 ff 05	 cmp	 edi, 5
  00037	77 54		 ja	 SHORT $LN2@SetState
  00039	ff 24 bd 00 00
	00 00		 jmp	 DWORD PTR $LN17@SetState[edi*4]
$LN5@SetState:

; 242  : 	{
; 243  : 		case KANTURU_STATE_NONE:
; 244  : 			this->SetState_NONE();

  00040	8b ce		 mov	 ecx, esi
  00042	e8 00 00 00 00	 call	 ?SetState_NONE@CKanturu@@QAEXXZ ; CKanturu::SetState_NONE
  00047	5f		 pop	 edi
  00048	5e		 pop	 esi
  00049	5b		 pop	 ebx

; 260  : 			break;
; 261  : 	}
; 262  : }

  0004a	5d		 pop	 ebp
  0004b	c2 04 00	 ret	 4
$LN6@SetState:

; 245  : 			break;
; 246  : 		case KANTURU_STATE_BATTLE_STANTBY:
; 247  : 			this->SetState_BATTLE_STANDBY();

  0004e	8b ce		 mov	 ecx, esi
  00050	e8 00 00 00 00	 call	 ?SetState_BATTLE_STANDBY@CKanturu@@QAEXXZ ; CKanturu::SetState_BATTLE_STANDBY
  00055	5f		 pop	 edi
  00056	5e		 pop	 esi
  00057	5b		 pop	 ebx

; 260  : 			break;
; 261  : 	}
; 262  : }

  00058	5d		 pop	 ebp
  00059	c2 04 00	 ret	 4
$LN7@SetState:

; 248  : 			break;
; 249  : 		case KANTURU_STATE_BATTLE_OF_MAYA:
; 250  : 			this->SetState_BATTLE_OF_MAYA();

  0005c	8b ce		 mov	 ecx, esi
  0005e	e8 00 00 00 00	 call	 ?SetState_BATTLE_OF_MAYA@CKanturu@@QAEXXZ ; CKanturu::SetState_BATTLE_OF_MAYA
  00063	5f		 pop	 edi
  00064	5e		 pop	 esi
  00065	5b		 pop	 ebx

; 260  : 			break;
; 261  : 	}
; 262  : }

  00066	5d		 pop	 ebp
  00067	c2 04 00	 ret	 4
$LN8@SetState:

; 251  : 			break;
; 252  : 		case KANTURU_STATE_BATTLE_OF_NIGHTMARE:
; 253  : 			this->SetState_BATTLE_OF_NIGHTMARE();

  0006a	8b ce		 mov	 ecx, esi
  0006c	e8 00 00 00 00	 call	 ?SetState_BATTLE_OF_NIGHTMARE@CKanturu@@QAEXXZ ; CKanturu::SetState_BATTLE_OF_NIGHTMARE
  00071	5f		 pop	 edi
  00072	5e		 pop	 esi
  00073	5b		 pop	 ebx

; 260  : 			break;
; 261  : 	}
; 262  : }

  00074	5d		 pop	 ebp
  00075	c2 04 00	 ret	 4
$LN9@SetState:

; 254  : 			break;
; 255  : 		case KANTURU_STATE_TOWER_OF_REFINEMENT:
; 256  : 			this->SetState_TOWER_OF_REFINEMENT();

  00078	8b ce		 mov	 ecx, esi
  0007a	e8 00 00 00 00	 call	 ?SetState_TOWER_OF_REFINEMENT@CKanturu@@QAEXXZ ; CKanturu::SetState_TOWER_OF_REFINEMENT
  0007f	5f		 pop	 edi
  00080	5e		 pop	 esi
  00081	5b		 pop	 ebx

; 260  : 			break;
; 261  : 	}
; 262  : }

  00082	5d		 pop	 ebp
  00083	c2 04 00	 ret	 4
$LN10@SetState:

; 257  : 			break;
; 258  : 		case KANTURU_STATE_END:
; 259  : 			this->SetState_END();

  00086	8b ce		 mov	 ecx, esi
  00088	e8 00 00 00 00	 call	 ?SetState_END@CKanturu@@QAEXXZ ; CKanturu::SetState_END
$LN2@SetState:
  0008d	5f		 pop	 edi
  0008e	5e		 pop	 esi
  0008f	5b		 pop	 ebx

; 260  : 			break;
; 261  : 	}
; 262  : }

  00090	5d		 pop	 ebp
  00091	c2 04 00	 ret	 4
$LN17@SetState:
  00094	00 00 00 00	 DD	 $LN5@SetState
  00098	00 00 00 00	 DD	 $LN6@SetState
  0009c	00 00 00 00	 DD	 $LN7@SetState
  000a0	00 00 00 00	 DD	 $LN8@SetState
  000a4	00 00 00 00	 DD	 $LN9@SetState
  000a8	00 00 00 00	 DD	 $LN10@SetState
?SetState@CKanturu@@QAEXH@Z ENDP			; CKanturu::SetState
_TEXT	ENDS
; Function compile flags: /Ogtp
; File c:\users\michel\desktop\source\gameserver\source\kanturu.cpp
;	COMDAT ?Run@CKanturu@@QAEXXZ
_TEXT	SEGMENT
?Run@CKanturu@@QAEXXZ PROC				; CKanturu::Run, COMDAT
; _this$ = ecx

; 200  : {

  00000	56		 push	 esi
  00001	8b f1		 mov	 esi, ecx

; 201  : 	if ( !this->IsKanturuEnable() )

  00003	83 7e 04 00	 cmp	 DWORD PTR [esi+4], 0
  00007	74 4b		 je	 SHORT $LN2@Run

; 202  : 		return;
; 203  : 
; 204  : 	this->CheckStateTime();

  00009	e8 00 00 00 00	 call	 ?CheckStateTime@CKanturu@@QAEXXZ ; CKanturu::CheckStateTime

; 205  : 	this->CheckUserOnKanturuBossMap();

  0000e	8b ce		 mov	 ecx, esi
  00010	e8 00 00 00 00	 call	 ?CheckUserOnKanturuBossMap@CKanturu@@QAEXXZ ; CKanturu::CheckUserOnKanturuBossMap

; 206  : 
; 207  : 	switch ( this->m_iKanturuState )

  00015	8b 46 08	 mov	 eax, DWORD PTR [esi+8]
  00018	83 f8 05	 cmp	 eax, 5
  0001b	77 37		 ja	 SHORT $LN2@Run
  0001d	ff 24 85 00 00
	00 00		 jmp	 DWORD PTR $LN17@Run[eax*4]
$LN5@Run:

; 208  : 	{
; 209  : 		case KANTURU_STATE_NONE:
; 210  : 			this->ProcState_NONE();

  00024	8b ce		 mov	 ecx, esi
  00026	5e		 pop	 esi
  00027	e9 00 00 00 00	 jmp	 ?ProcState_NONE@CKanturu@@QAEXXZ ; CKanturu::ProcState_NONE
$LN6@Run:

; 211  : 			break;
; 212  : 		case KANTURU_STATE_BATTLE_STANTBY:
; 213  : 			this->ProcState_BATTLE_STANDBY();

  0002c	8b ce		 mov	 ecx, esi
  0002e	5e		 pop	 esi
  0002f	e9 00 00 00 00	 jmp	 ?ProcState_BATTLE_STANDBY@CKanturu@@QAEXXZ ; CKanturu::ProcState_BATTLE_STANDBY
$LN7@Run:

; 214  : 			break;
; 215  : 		case KANTURU_STATE_BATTLE_OF_MAYA:
; 216  : 			this->ProcState_BATTLE_OF_MAYA();

  00034	8b ce		 mov	 ecx, esi
  00036	5e		 pop	 esi
  00037	e9 00 00 00 00	 jmp	 ?ProcState_BATTLE_OF_MAYA@CKanturu@@QAEXXZ ; CKanturu::ProcState_BATTLE_OF_MAYA
$LN8@Run:

; 217  : 			break;
; 218  : 		case KANTURU_STATE_BATTLE_OF_NIGHTMARE:
; 219  : 			this->ProcState_BATTLE_OF_NIGHTMARE();

  0003c	8b ce		 mov	 ecx, esi
  0003e	5e		 pop	 esi
  0003f	e9 00 00 00 00	 jmp	 ?ProcState_BATTLE_OF_NIGHTMARE@CKanturu@@QAEXXZ ; CKanturu::ProcState_BATTLE_OF_NIGHTMARE
$LN9@Run:

; 220  : 			break;
; 221  : 		case KANTURU_STATE_TOWER_OF_REFINEMENT:
; 222  : 			this->ProcState_TOWER_OF_REFINEMENT();

  00044	8b ce		 mov	 ecx, esi
  00046	5e		 pop	 esi
  00047	e9 00 00 00 00	 jmp	 ?ProcState_TOWER_OF_REFINEMENT@CKanturu@@QAEXXZ ; CKanturu::ProcState_TOWER_OF_REFINEMENT
$LN10@Run:

; 223  : 			break;
; 224  : 		case KANTURU_STATE_END:
; 225  : 			this->ProcState_END();

  0004c	8b ce		 mov	 ecx, esi
  0004e	5e		 pop	 esi
  0004f	e9 00 00 00 00	 jmp	 ?ProcState_END@CKanturu@@QAEXXZ ; CKanturu::ProcState_END
$LN2@Run:
  00054	5e		 pop	 esi

; 226  : 			break;
; 227  : 	}
; 228  : }

  00055	c3		 ret	 0
  00056	66 90		 npad	 2
$LN17@Run:
  00058	00 00 00 00	 DD	 $LN5@Run
  0005c	00 00 00 00	 DD	 $LN6@Run
  00060	00 00 00 00	 DD	 $LN7@Run
  00064	00 00 00 00	 DD	 $LN8@Run
  00068	00 00 00 00	 DD	 $LN9@Run
  0006c	00 00 00 00	 DD	 $LN10@Run
?Run@CKanturu@@QAEXXZ ENDP				; CKanturu::Run
_TEXT	ENDS
; Function compile flags: /Ogtp
; File c:\users\michel\desktop\source\gameserver\source\kanturu.cpp
;	COMDAT ?SetKanturuMapAttr@CKanturu@@QAEXE@Z
_TEXT	SEGMENT
_btLevel$ = 8						; size = 1
?SetKanturuMapAttr@CKanturu@@QAEXE@Z PROC		; CKanturu::SetKanturuMapAttr, COMDAT
; _this$ = ecx

; 188  : {

  00000	55		 push	 ebp
  00001	8b ec		 mov	 ebp, esp
  00003	56		 push	 esi
  00004	57		 push	 edi

; 189  : 	MapClass & KanturuMap = this->m_KanturuMap[btLevel];

  00005	0f b6 7d 08	 movzx	 edi, BYTE PTR _btLevel$[ebp]
  00009	8b f1		 mov	 esi, ecx
  0000b	69 c7 28 38 05
	00		 imul	 eax, edi, 342056

; 190  : 	memcpy(MapC[MAP_INDEX_KANTURU_BOSS].m_attrbuf, KanturuMap.m_attrbuf, 256*256);

  00011	68 00 00 01 00	 push	 65536			; 00010000H
  00016	ff b4 30 54 04
	00 00		 push	 DWORD PTR [eax+esi+1108]
  0001d	ff 35 28 8e cb
	00		 push	 DWORD PTR ?MapC@@3PAVMapClass@@A+13340200
  00023	e8 00 00 00 00	 call	 _memcpy
  00028	83 c4 0c	 add	 esp, 12			; 0000000cH

; 191  : 
; 192  : 	LogAddC(2, "[ KANTURU ][ Map Attr Change ] Map(%d) State(%d) DetailState(%d)",

  0002b	8b ce		 mov	 ecx, esi
  0002d	e8 00 00 00 00	 call	 ?GetKanturuDetailState@CKanturu@@QAEHXZ ; CKanturu::GetKanturuDetailState
  00032	50		 push	 eax
  00033	ff 76 08	 push	 DWORD PTR [esi+8]
  00036	57		 push	 edi
  00037	68 00 00 00 00	 push	 OFFSET ??_C@_0EB@FNIFEOPG@?$FL?5KANTURU?5?$FN?$FL?5Map?5Attr?5Change?5?$FN?5M@
  0003c	6a 02		 push	 2
  0003e	ff 15 00 00 00
	00		 call	 DWORD PTR ?LogAddC@@3P6AXEPADZZA ; LogAddC
  00044	83 c4 14	 add	 esp, 20			; 00000014H
  00047	5f		 pop	 edi
  00048	5e		 pop	 esi

; 193  : 		btLevel, this->GetKanturuState(), this->GetKanturuDetailState());
; 194  : 
; 195  : }

  00049	5d		 pop	 ebp
  0004a	c2 04 00	 ret	 4
?SetKanturuMapAttr@CKanturu@@QAEXE@Z ENDP		; CKanturu::SetKanturuMapAttr
_TEXT	ENDS
; Function compile flags: /Ogtp
; File c:\users\michel\desktop\source\gameserver\source\kanturu.cpp
;	COMDAT ?LoadKanturuMapAttr@CKanturu@@QAEXPADE@Z
_TEXT	SEGMENT
_lpszFileName$ = 8					; size = 4
_btLevel$ = 12						; size = 1
?LoadKanturuMapAttr@CKanturu@@QAEXPADE@Z PROC		; CKanturu::LoadKanturuMapAttr, COMDAT
; _this$ = ecx

; 170  : {

  00000	55		 push	 ebp
  00001	8b ec		 mov	 ebp, esp

; 171  : 	if ( !lpszFileName || btLevel > MAX_KANTURU_MAP_LEVEL )

  00003	8b 55 08	 mov	 edx, DWORD PTR _lpszFileName$[ebp]
  00006	85 d2		 test	 edx, edx
  00008	74 40		 je	 SHORT $LN5@LoadKantur
  0000a	8a 45 0c	 mov	 al, BYTE PTR _btLevel$[ebp]
  0000d	3c 02		 cmp	 al, 2
  0000f	77 39		 ja	 SHORT $LN5@LoadKantur

; 172  : 		return;
; 173  : 
; 174  : 	switch ( btLevel )

  00011	0f b6 c0	 movzx	 eax, al
  00014	83 e8 00	 sub	 eax, 0
  00017	74 1b		 je	 SHORT $LN6@LoadKantur
  00019	83 e8 01	 sub	 eax, 1
  0001c	75 2c		 jne	 SHORT $LN5@LoadKantur

; 178  : 			break;
; 179  : 		case KANTURU_MAP_OPEN:
; 180  : 			this->m_KanturuMap[btLevel].LoadMapAttr(lpszFileName, MAP_INDEX_KANTURU_BOSS);

  0001e	c7 45 0c 27 00
	00 00		 mov	 DWORD PTR _btLevel$[ebp], 39 ; 00000027H
  00025	89 55 08	 mov	 DWORD PTR _lpszFileName$[ebp], edx
  00028	81 c1 6c 3c 05
	00		 add	 ecx, 343148		; 00053c6cH

; 181  : 			break;
; 182  : 	}
; 183  : }

  0002e	5d		 pop	 ebp

; 178  : 			break;
; 179  : 		case KANTURU_MAP_OPEN:
; 180  : 			this->m_KanturuMap[btLevel].LoadMapAttr(lpszFileName, MAP_INDEX_KANTURU_BOSS);

  0002f	e9 00 00 00 00	 jmp	 ?LoadMapAttr@MapClass@@QAEXPADH@Z ; MapClass::LoadMapAttr
$LN6@LoadKantur:

; 175  : 	{
; 176  : 		case KANTURU_MAP_CLOSE:
; 177  : 			this->m_KanturuMap[btLevel].LoadMapAttr(lpszFileName, MAP_INDEX_KANTURU_BOSS);

  00034	c7 45 0c 27 00
	00 00		 mov	 DWORD PTR _btLevel$[ebp], 39 ; 00000027H
  0003b	89 55 08	 mov	 DWORD PTR _lpszFileName$[ebp], edx
  0003e	81 c1 44 04 00
	00		 add	 ecx, 1092		; 00000444H

; 181  : 			break;
; 182  : 	}
; 183  : }

  00044	5d		 pop	 ebp

; 175  : 	{
; 176  : 		case KANTURU_MAP_CLOSE:
; 177  : 			this->m_KanturuMap[btLevel].LoadMapAttr(lpszFileName, MAP_INDEX_KANTURU_BOSS);

  00045	e9 00 00 00 00	 jmp	 ?LoadMapAttr@MapClass@@QAEXPADH@Z ; MapClass::LoadMapAttr
$LN5@LoadKantur:

; 181  : 			break;
; 182  : 	}
; 183  : }

  0004a	5d		 pop	 ebp
  0004b	c2 08 00	 ret	 8
?LoadKanturuMapAttr@CKanturu@@QAEXPADE@Z ENDP		; CKanturu::LoadKanturuMapAttr
_TEXT	ENDS
; Function compile flags: /Ogtp
; File c:\users\michel\desktop\source\gameserver\source\kanturu.cpp
; File c:\users\michel\desktop\source\gameserver\source\kanturustateinfo.h
; File c:\users\michel\desktop\source\gameserver\source\kanturu.cpp
; File c:\users\michel\desktop\source\gameserver\source\kanturustateinfo.h
; File c:\users\michel\desktop\source\gameserver\source\kanturu.cpp
; File c:\users\michel\desktop\source\gameserver\source\kanturustateinfo.h
; File c:\users\michel\desktop\source\gameserver\source\kanturu.cpp
; File c:\users\michel\desktop\source\gameserver\source\kanturu.h
; File c:\users\michel\desktop\source\gameserver\source\kanturu.cpp
;	COMDAT ?LoadData@CKanturu@@QAEHPAD@Z
_TEXT	SEGMENT
_this$ = -24						; size = 4
_iType$1$ = -20						; size = 4
__$EHRec$ = -16						; size = 16
_lpszFileName$ = 8					; size = 4
?LoadData@CKanturu@@QAEHPAD@Z PROC			; CKanturu::LoadData, COMDAT
; _this$ = ecx

; 51   : {

  00000	55		 push	 ebp
  00001	8b ec		 mov	 ebp, esp
  00003	6a ff		 push	 -1
  00005	68 00 00 00 00	 push	 __ehhandler$?LoadData@CKanturu@@QAEHPAD@Z
  0000a	64 a1 00 00 00
	00		 mov	 eax, DWORD PTR fs:0
  00010	50		 push	 eax
  00011	83 ec 0c	 sub	 esp, 12			; 0000000cH
  00014	53		 push	 ebx
  00015	56		 push	 esi
  00016	57		 push	 edi
  00017	a1 00 00 00 00	 mov	 eax, DWORD PTR ___security_cookie
  0001c	33 c5		 xor	 eax, ebp
  0001e	50		 push	 eax
  0001f	8d 45 f4	 lea	 eax, DWORD PTR __$EHRec$[ebp+4]
  00022	64 a3 00 00 00
	00		 mov	 DWORD PTR fs:0, eax
  00028	89 65 f0	 mov	 DWORD PTR __$EHRec$[ebp], esp
  0002b	8b f1		 mov	 esi, ecx
  0002d	89 75 e8	 mov	 DWORD PTR _this$[ebp], esi

; 52   : 	this->m_bFileDataLoad = FALSE;
; 53   : 
; 54   : 	if ( !lpszFileName || !strcmp(lpszFileName, ""))

  00030	8b 5d 08	 mov	 ebx, DWORD PTR _lpszFileName$[ebp]
  00033	c7 46 10 00 00
	00 00		 mov	 DWORD PTR [esi+16], 0
  0003a	85 db		 test	 ebx, ebx
  0003c	0f 84 db 02 00
	00		 je	 $LN7@LoadData
  00042	b9 00 00 00 00	 mov	 ecx, OFFSET ??_C@_00CNPNBAHC@?$AA@
  00047	8b c3		 mov	 eax, ebx
  00049	0f 1f 80 00 00
	00 00		 npad	 7
$LL41@LoadData:
  00050	8a 10		 mov	 dl, BYTE PTR [eax]
  00052	3a 11		 cmp	 dl, BYTE PTR [ecx]
  00054	75 1a		 jne	 SHORT $LN42@LoadData
  00056	84 d2		 test	 dl, dl
  00058	74 12		 je	 SHORT $LN43@LoadData
  0005a	8a 50 01	 mov	 dl, BYTE PTR [eax+1]
  0005d	3a 51 01	 cmp	 dl, BYTE PTR [ecx+1]
  00060	75 0e		 jne	 SHORT $LN42@LoadData
  00062	83 c0 02	 add	 eax, 2
  00065	83 c1 02	 add	 ecx, 2
  00068	84 d2		 test	 dl, dl
  0006a	75 e4		 jne	 SHORT $LL41@LoadData
$LN43@LoadData:
  0006c	33 c0		 xor	 eax, eax
  0006e	eb 05		 jmp	 SHORT $LN44@LoadData
$LN42@LoadData:
  00070	1b c0		 sbb	 eax, eax
  00072	83 c8 01	 or	 eax, 1
$LN44@LoadData:
  00075	85 c0		 test	 eax, eax
  00077	0f 84 a0 02 00
	00		 je	 $LN7@LoadData

; 58   : 	}
; 59   : 
; 60   : 	try
; 61   : 	{
; 62   : 
; 63   : 		SMDFile = fopen(lpszFileName, "r");

  0007d	68 00 00 00 00	 push	 OFFSET ??_C@_01KDCPPGHE@r?$AA@
  00082	53		 push	 ebx
  00083	c7 45 fc 00 00
	00 00		 mov	 DWORD PTR __$EHRec$[ebp+12], 0
  0008a	e8 00 00 00 00	 call	 _fopen
  0008f	83 c4 08	 add	 esp, 8
  00092	a3 00 00 00 00	 mov	 DWORD PTR ?SMDFile@@3PAU_iobuf@@A, eax

; 64   : 
; 65   : 		if ( SMDFile == NULL )

  00097	85 c0		 test	 eax, eax
  00099	75 19		 jne	 SHORT $LN9@LoadData

; 66   : 		{
; 67   : 			DWORD dwError = GetLastError();

  0009b	ff 15 00 00 00
	00		 call	 DWORD PTR __imp__GetLastError@0

; 68   : 			MsgBox("[ KANTURU ] - Can't Open %s ", lpszFileName);

  000a1	53		 push	 ebx
  000a2	68 00 00 00 00	 push	 OFFSET ??_C@_0BN@GAHNOIOK@?$FL?5KANTURU?5?$FN?5?9?5Can?8t?5Open?5?$CFs?5?$AA@
  000a7	e8 00 00 00 00	 call	 ?MsgBox@@YAXPADZZ	; MsgBox
  000ac	83 c4 08	 add	 esp, 8

; 69   : 			return FALSE;

  000af	e9 76 02 00 00	 jmp	 $LN59@LoadData
$LN9@LoadData:

; 70   : 		}
; 71   : 
; 72   : 		this->ResetAllData();

  000b4	8b ce		 mov	 ecx, esi
  000b6	e8 00 00 00 00	 call	 ?ResetAllData@CKanturu@@QAEXXZ ; CKanturu::ResetAllData
  000bb	0f 1f 44 00 00	 npad	 5
$LL2@LoadData:

; 73   : 
; 74   : 		enum SMDToken Token;
; 75   : 		int iType = -1;
; 76   : 		int iState = 0;
; 77   : 		int iCondition = 0;
; 78   : 		int iValue = 0;
; 79   : 
; 80   : 		while ( true )
; 81   : 		{
; 82   : 			Token = (SMDToken)GetToken();

  000c0	e8 00 00 00 00	 call	 ?GetToken@@YA?AW4SMDToken@@XZ ; GetToken

; 83   : 			
; 84   : 			if ( Token ==  END )

  000c5	83 f8 02	 cmp	 eax, 2
  000c8	0f 85 a6 00 00
	00		 jne	 $LN10@LoadData

; 147  : 
; 148  : 		fclose(SMDFile);

  000ce	ff 35 00 00 00
	00		 push	 DWORD PTR ?SMDFile@@3PAU_iobuf@@A
  000d4	e8 00 00 00 00	 call	 _fclose

; 149  : 		LogAddC(2, "[ KANTURU ] - %s file is Loaded", lpszFileName);

  000d9	53		 push	 ebx
  000da	68 00 00 00 00	 push	 OFFSET ??_C@_0CA@IEFEEOLJ@?$FL?5KANTURU?5?$FN?5?9?5?$CFs?5file?5is?5Loaded?$AA@
  000df	6a 02		 push	 2
  000e1	ff 15 00 00 00
	00		 call	 DWORD PTR ?LogAddC@@3P6AXEPADZZA ; LogAddC
  000e7	83 c4 10	 add	 esp, 16			; 00000010H

; 150  : 		
; 151  : 		this->m_bFileDataLoad = TRUE;

  000ea	c7 46 10 01 00
	00 00		 mov	 DWORD PTR [esi+16], 1

; 152  : 
; 153  : 		this->m_BattleStanby.LoadData(gDirPath.GetNewPath(FILE_EVENT_KANTURU_MAIN));

  000f1	b9 00 00 00 00	 mov	 ecx, OFFSET ?gDirPath@@3VCDirPath@@A ; gDirPath
  000f6	68 00 00 00 00	 push	 OFFSET ??_C@_0BC@DHCEDFNB@Event?2Kanturu?4dat?$AA@
  000fb	e8 00 00 00 00	 call	 ?GetNewPath@CDirPath@@QAEPADPAD@Z ; CDirPath::GetNewPath
  00100	50		 push	 eax
  00101	8d 8e 90 00 00
	00		 lea	 ecx, DWORD PTR [esi+144]
  00107	e8 00 00 00 00	 call	 ?LoadData@CKanturuBattleStanby@@QAEHPAD@Z ; CKanturuBattleStanby::LoadData

; 154  : 		this->m_BattleOfMaya.LoadData(gDirPath.GetNewPath(FILE_EVENT_KANTURU_MAIN));

  0010c	68 00 00 00 00	 push	 OFFSET ??_C@_0BC@DHCEDFNB@Event?2Kanturu?4dat?$AA@
  00111	b9 00 00 00 00	 mov	 ecx, OFFSET ?gDirPath@@3VCDirPath@@A ; gDirPath
  00116	e8 00 00 00 00	 call	 ?GetNewPath@CDirPath@@QAEPADPAD@Z ; CDirPath::GetNewPath
  0011b	50		 push	 eax
  0011c	8d 8e f4 00 00
	00		 lea	 ecx, DWORD PTR [esi+244]
  00122	e8 00 00 00 00	 call	 ?LoadData@CKanturuBattleOfMaya@@QAEHPAD@Z ; CKanturuBattleOfMaya::LoadData

; 155  : 		this->m_BattleOfNightmare.LoadData(gDirPath.GetNewPath(FILE_EVENT_KANTURU_MAIN));

  00127	68 00 00 00 00	 push	 OFFSET ??_C@_0BC@DHCEDFNB@Event?2Kanturu?4dat?$AA@
  0012c	b9 00 00 00 00	 mov	 ecx, OFFSET ?gDirPath@@3VCDirPath@@A ; gDirPath
  00131	e8 00 00 00 00	 call	 ?GetNewPath@CDirPath@@QAEPADPAD@Z ; CDirPath::GetNewPath
  00136	50		 push	 eax
  00137	8d 8e 20 03 00
	00		 lea	 ecx, DWORD PTR [esi+800]
  0013d	e8 00 00 00 00	 call	 ?LoadData@CKanturuBattleOfNightmare@@QAEHPAD@Z ; CKanturuBattleOfNightmare::LoadData

; 156  : 		this->m_TowerOfRefinement.LoadData(gDirPath.GetNewPath(FILE_EVENT_KANTURU_MAIN));

  00142	68 00 00 00 00	 push	 OFFSET ??_C@_0BC@DHCEDFNB@Event?2Kanturu?4dat?$AA@
  00147	b9 00 00 00 00	 mov	 ecx, OFFSET ?gDirPath@@3VCDirPath@@A ; gDirPath
  0014c	e8 00 00 00 00	 call	 ?GetNewPath@CDirPath@@QAEPADPAD@Z ; CDirPath::GetNewPath
  00151	50		 push	 eax
  00152	8d 8e b4 03 00
	00		 lea	 ecx, DWORD PTR [esi+948]
  00158	e8 00 00 00 00	 call	 ?LoadData@CKanturuTowerOfRefinement@@QAEHPAD@Z ; CKanturuTowerOfRefinement::LoadData

; 162  : 
; 163  : 	return this->m_bFileDataLoad;

  0015d	8b 46 10	 mov	 eax, DWORD PTR [esi+16]

; 164  : }

  00160	8b 4d f4	 mov	 ecx, DWORD PTR __$EHRec$[ebp+4]
  00163	64 89 0d 00 00
	00 00		 mov	 DWORD PTR fs:0, ecx
  0016a	59		 pop	 ecx
  0016b	5f		 pop	 edi
  0016c	5e		 pop	 esi
  0016d	5b		 pop	 ebx
  0016e	8b e5		 mov	 esp, ebp
  00170	5d		 pop	 ebp
  00171	c2 04 00	 ret	 4
$LN10@LoadData:

; 85   : 				break;
; 86   : 			
; 87   : 			iType = (int)TokenNumber;

  00174	f3 0f 2c 05 00
	00 00 00	 cvttss2si eax, DWORD PTR ?TokenNumber@@3MA
  0017c	89 45 ec	 mov	 DWORD PTR _iType$1$[ebp], eax
  0017f	90		 npad	 1
$LL4@LoadData:

; 88   : 
; 89   : 			while ( true )
; 90   : 			{
; 91   : 				if ( iType == 0 )

  00180	85 c0		 test	 eax, eax
  00182	0f 85 f0 00 00
	00		 jne	 $LN11@LoadData

; 92   : 				{
; 93   : 					iState = 0;
; 94   : 					iCondition = 0;
; 95   : 					iValue = 0;
; 96   : 
; 97   : 					Token = (SMDToken)GetToken();

  00188	e8 00 00 00 00	 call	 ?GetToken@@YA?AW4SMDToken@@XZ ; GetToken

; 98   : 					
; 99   : 					if ( !strcmp("end", TokenString))

  0018d	b9 00 00 00 00	 mov	 ecx, OFFSET ?TokenString@@3PADA
  00192	b8 00 00 00 00	 mov	 eax, OFFSET ??_C@_03JBJLGPFL@end?$AA@
$LL45@LoadData:
  00197	8a 10		 mov	 dl, BYTE PTR [eax]
  00199	3a 11		 cmp	 dl, BYTE PTR [ecx]
  0019b	75 1a		 jne	 SHORT $LN46@LoadData
  0019d	84 d2		 test	 dl, dl
  0019f	74 12		 je	 SHORT $LN47@LoadData
  001a1	8a 50 01	 mov	 dl, BYTE PTR [eax+1]
  001a4	3a 51 01	 cmp	 dl, BYTE PTR [ecx+1]
  001a7	75 0e		 jne	 SHORT $LN46@LoadData
  001a9	83 c0 02	 add	 eax, 2
  001ac	83 c1 02	 add	 ecx, 2
  001af	84 d2		 test	 dl, dl
  001b1	75 e4		 jne	 SHORT $LL45@LoadData
$LN47@LoadData:
  001b3	33 c0		 xor	 eax, eax
  001b5	eb 05		 jmp	 SHORT $LN48@LoadData
$LN46@LoadData:
  001b7	1b c0		 sbb	 eax, eax
  001b9	83 c8 01	 or	 eax, 1
$LN48@LoadData:
  001bc	8b 5d 08	 mov	 ebx, DWORD PTR _lpszFileName$[ebp]
  001bf	85 c0		 test	 eax, eax
  001c1	0f 84 f9 fe ff
	ff		 je	 $LL2@LoadData

; 100  : 						break;
; 101  : 
; 102  : 					iState = (int)TokenNumber;

  001c7	f3 0f 2c 1d 00
	00 00 00	 cvttss2si ebx, DWORD PTR ?TokenNumber@@3MA

; 103  : 
; 104  : 					Token = (SMDToken)GetToken();

  001cf	e8 00 00 00 00	 call	 ?GetToken@@YA?AW4SMDToken@@XZ ; GetToken

; 105  : 					iCondition = (int)TokenNumber;

  001d4	f3 0f 2c 3d 00
	00 00 00	 cvttss2si edi, DWORD PTR ?TokenNumber@@3MA

; 106  : 
; 107  : 					Token = (SMDToken)GetToken();

  001dc	e8 00 00 00 00	 call	 ?GetToken@@YA?AW4SMDToken@@XZ ; GetToken

; 108  : 					iValue = (int)TokenNumber;
; 109  : 
; 110  : 					if ( this->m_StateInfoCount < 0 || this->m_StateInfoCount >= MAX_KANTURU_STATE_INFO )

  001e1	8b 86 8c 00 00
	00		 mov	 eax, DWORD PTR [esi+140]
  001e7	f3 0f 2c 0d 00
	00 00 00	 cvttss2si ecx, DWORD PTR ?TokenNumber@@3MA
  001ef	85 c0		 test	 eax, eax
  001f1	78 3f		 js	 SHORT $LN15@LoadData
  001f3	83 f8 06	 cmp	 eax, 6
  001f6	7d 3a		 jge	 SHORT $LN15@LoadData

; 114  : 					}
; 115  : 
; 116  : 					this->m_StateInfo[this->m_StateInfoCount].SetStateInfo(iState);

  001f8	8d 04 80	 lea	 eax, DWORD PTR [eax+eax*4]
; File c:\users\michel\desktop\source\gameserver\source\kanturustateinfo.h

; 30   : 		this->m_iState = iStateTimeInfo;

  001fb	89 5c 86 18	 mov	 DWORD PTR [esi+eax*4+24], ebx
; File c:\users\michel\desktop\source\gameserver\source\kanturu.cpp

; 117  : 					this->m_StateInfo[this->m_StateInfoCount].SetCondition(iCondition);

  001ff	8b 86 8c 00 00
	00		 mov	 eax, DWORD PTR [esi+140]
  00205	8d 04 80	 lea	 eax, DWORD PTR [eax+eax*4]
; File c:\users\michel\desktop\source\gameserver\source\kanturustateinfo.h

; 36   : 		this->m_iCondition = iCondition;

  00208	89 7c 86 1c	 mov	 DWORD PTR [esi+eax*4+28], edi
; File c:\users\michel\desktop\source\gameserver\source\kanturu.cpp

; 119  : 					if ( iCondition == 1 )

  0020c	83 ff 01	 cmp	 edi, 1
  0020f	75 06		 jne	 SHORT $LN16@LoadData

; 120  : 						iValue *= 1000;

  00211	69 c9 e8 03 00
	00		 imul	 ecx, ecx, 1000
$LN16@LoadData:

; 121  : 
; 122  : 					this->m_StateInfo[this->m_StateInfoCount].SetValue(iValue);

  00217	8b 86 8c 00 00
	00		 mov	 eax, DWORD PTR [esi+140]
  0021d	8d 04 80	 lea	 eax, DWORD PTR [eax+eax*4]
; File c:\users\michel\desktop\source\gameserver\source\kanturustateinfo.h

; 47   : 		this->m_iValue = iValue;

  00220	89 4c 86 20	 mov	 DWORD PTR [esi+eax*4+32], ecx
; File c:\users\michel\desktop\source\gameserver\source\kanturu.cpp

; 124  : 					this->m_StateInfoCount++;

  00224	ff 86 8c 00 00
	00		 inc	 DWORD PTR [esi+140]
  0022a	8b 45 ec	 mov	 eax, DWORD PTR _iType$1$[ebp]
  0022d	e9 4e ff ff ff	 jmp	 $LL4@LoadData
$LN15@LoadData:

; 111  : 					{
; 112  : 						MsgBox("[ KANTURU ] - Exceed Max State Time (%d)", this->m_StateInfoCount);

  00232	50		 push	 eax
  00233	68 00 00 00 00	 push	 OFFSET ??_C@_0CJ@NADNLLJP@?$FL?5KANTURU?5?$FN?5?9?5Exceed?5Max?5State?5T@
  00238	e8 00 00 00 00	 call	 ?MsgBox@@YAXPADZZ	; MsgBox

; 113  : 						break;

  0023d	8b 5d 08	 mov	 ebx, DWORD PTR _lpszFileName$[ebp]
  00240	83 c4 08	 add	 esp, 8
  00243	e9 78 fe ff ff	 jmp	 $LL2@LoadData
__catch$?LoadData@CKanturu@@QAEHPAD@Z$0:

; 157  : 	}
; 158  : 	catch ( DWORD )
; 159  : 	{
; 160  : 		MsgBox("[ KANTURU ] - Loading Exception Error (%s) File. ", lpszFileName);

  00248	ff 75 08	 push	 DWORD PTR _lpszFileName$[ebp]
  0024b	68 00 00 00 00	 push	 OFFSET ??_C@_0DC@FKIBHPBC@?$FL?5KANTURU?5?$FN?5?9?5Loading?5Exception?5@
  00250	e8 00 00 00 00	 call	 ?MsgBox@@YAXPADZZ	; MsgBox
  00255	83 c4 08	 add	 esp, 8

; 161  : 	}

  00258	b8 00 00 00 00	 mov	 eax, $LN57@LoadData
  0025d	c3		 ret	 0
$LN57@LoadData:
  0025e	8b 75 e8	 mov	 esi, DWORD PTR _this$[ebp]

; 162  : 
; 163  : 	return this->m_bFileDataLoad;

  00261	8b 46 10	 mov	 eax, DWORD PTR [esi+16]

; 164  : }

  00264	8b 4d f4	 mov	 ecx, DWORD PTR __$EHRec$[ebp+4]
  00267	64 89 0d 00 00
	00 00		 mov	 DWORD PTR fs:0, ecx
  0026e	59		 pop	 ecx
  0026f	5f		 pop	 edi
  00270	5e		 pop	 esi
  00271	5b		 pop	 ebx
  00272	8b e5		 mov	 esp, ebp
  00274	5d		 pop	 ebp
  00275	c2 04 00	 ret	 4
$LN11@LoadData:

; 125  : 				}
; 126  : 				else if ( iType == 10 )

  00278	83 f8 0a	 cmp	 eax, 10			; 0000000aH
  0027b	75 59		 jne	 SHORT $LN17@LoadData

; 127  : 				{
; 128  : 					BOOL bEnableCheckMoonStone = FALSE;
; 129  : 
; 130  : 					Token = (SMDToken)GetToken();

  0027d	e8 00 00 00 00	 call	 ?GetToken@@YA?AW4SMDToken@@XZ ; GetToken

; 131  : 					
; 132  : 					if ( !strcmp("end", TokenString))

  00282	b9 00 00 00 00	 mov	 ecx, OFFSET ?TokenString@@3PADA
  00287	b8 00 00 00 00	 mov	 eax, OFFSET ??_C@_03JBJLGPFL@end?$AA@
  0028c	0f 1f 40 00	 npad	 4
$LL49@LoadData:
  00290	8a 10		 mov	 dl, BYTE PTR [eax]
  00292	3a 11		 cmp	 dl, BYTE PTR [ecx]
  00294	75 1a		 jne	 SHORT $LN50@LoadData
  00296	84 d2		 test	 dl, dl
  00298	74 12		 je	 SHORT $LN51@LoadData
  0029a	8a 50 01	 mov	 dl, BYTE PTR [eax+1]
  0029d	3a 51 01	 cmp	 dl, BYTE PTR [ecx+1]
  002a0	75 0e		 jne	 SHORT $LN50@LoadData
  002a2	83 c0 02	 add	 eax, 2
  002a5	83 c1 02	 add	 ecx, 2
  002a8	84 d2		 test	 dl, dl
  002aa	75 e4		 jne	 SHORT $LL49@LoadData
$LN51@LoadData:
  002ac	33 c0		 xor	 eax, eax
  002ae	eb 05		 jmp	 SHORT $LN52@LoadData
$LN50@LoadData:
  002b0	1b c0		 sbb	 eax, eax
  002b2	83 c8 01	 or	 eax, 1
$LN52@LoadData:
  002b5	8b 5d 08	 mov	 ebx, DWORD PTR _lpszFileName$[ebp]
  002b8	85 c0		 test	 eax, eax
  002ba	0f 84 00 fe ff
	ff		 je	 $LL2@LoadData

; 133  : 						break;
; 134  : 
; 135  : 					bEnableCheckMoonStone = (BOOL)TokenNumber;

  002c0	f3 0f 2c 05 00
	00 00 00	 cvttss2si eax, DWORD PTR ?TokenNumber@@3MA
; File c:\users\michel\desktop\source\gameserver\source\kanturu.h

; 80   : 	void SetEnableCheckMoonStone(BOOL bEnable){this->m_bEnableCheckMoonStone = bEnable;}

  002c8	89 86 94 74 0a
	00		 mov	 DWORD PTR [esi+685204], eax
; File c:\users\michel\desktop\source\gameserver\source\kanturu.cpp

; 138  : 				else

  002ce	8b 45 ec	 mov	 eax, DWORD PTR _iType$1$[ebp]
  002d1	e9 aa fe ff ff	 jmp	 $LL4@LoadData
$LN17@LoadData:

; 139  : 				{
; 140  : 					Token = (SMDToken)GetToken();

  002d6	e8 00 00 00 00	 call	 ?GetToken@@YA?AW4SMDToken@@XZ ; GetToken

; 141  : 					
; 142  : 					if ( !strcmp("end", TokenString))

  002db	b9 00 00 00 00	 mov	 ecx, OFFSET ?TokenString@@3PADA
  002e0	b8 00 00 00 00	 mov	 eax, OFFSET ??_C@_03JBJLGPFL@end?$AA@
$LL53@LoadData:
  002e5	8a 10		 mov	 dl, BYTE PTR [eax]
  002e7	3a 11		 cmp	 dl, BYTE PTR [ecx]
  002e9	75 1a		 jne	 SHORT $LN54@LoadData
  002eb	84 d2		 test	 dl, dl
  002ed	74 12		 je	 SHORT $LN55@LoadData
  002ef	8a 50 01	 mov	 dl, BYTE PTR [eax+1]
  002f2	3a 51 01	 cmp	 dl, BYTE PTR [ecx+1]
  002f5	75 0e		 jne	 SHORT $LN54@LoadData
  002f7	83 c0 02	 add	 eax, 2
  002fa	83 c1 02	 add	 ecx, 2
  002fd	84 d2		 test	 dl, dl
  002ff	75 e4		 jne	 SHORT $LL53@LoadData
$LN55@LoadData:
  00301	33 c0		 xor	 eax, eax
  00303	eb 05		 jmp	 SHORT $LN56@LoadData
$LN54@LoadData:
  00305	1b c0		 sbb	 eax, eax
  00307	83 c8 01	 or	 eax, 1
$LN56@LoadData:
  0030a	85 c0		 test	 eax, eax
  0030c	8b 45 ec	 mov	 eax, DWORD PTR _iType$1$[ebp]
  0030f	0f 85 6b fe ff
	ff		 jne	 $LL4@LoadData

; 143  : 						break;
; 144  : 				}
; 145  : 			}
; 146  : 		}

  00315	8b 5d 08	 mov	 ebx, DWORD PTR _lpszFileName$[ebp]
  00318	e9 a3 fd ff ff	 jmp	 $LL2@LoadData
$LN7@LoadData:

; 55   : 	{
; 56   : 		MsgBox("[ KANTURU ] - File load error : File Name Error");

  0031d	68 00 00 00 00	 push	 OFFSET ??_C@_0DA@POPJLFKC@?$FL?5KANTURU?5?$FN?5?9?5File?5load?5error?5?3?5@
  00322	e8 00 00 00 00	 call	 ?MsgBox@@YAXPADZZ	; MsgBox
  00327	83 c4 04	 add	 esp, 4
$LN59@LoadData:

; 57   : 		return FALSE;

  0032a	33 c0		 xor	 eax, eax

; 164  : }

  0032c	8b 4d f4	 mov	 ecx, DWORD PTR __$EHRec$[ebp+4]
  0032f	64 89 0d 00 00
	00 00		 mov	 DWORD PTR fs:0, ecx
  00336	59		 pop	 ecx
  00337	5f		 pop	 edi
  00338	5e		 pop	 esi
  00339	5b		 pop	 ebx
  0033a	8b e5		 mov	 esp, ebp
  0033c	5d		 pop	 ebp
  0033d	c2 04 00	 ret	 4
_TEXT	ENDS
;	COMDAT text$x
text$x	SEGMENT
__ehhandler$?LoadData@CKanturu@@QAEHPAD@Z:
  00000	8b 54 24 08	 mov	 edx, DWORD PTR [esp+8]
  00004	8d 42 0c	 lea	 eax, DWORD PTR [edx+12]
  00007	8b 4a e4	 mov	 ecx, DWORD PTR [edx-28]
  0000a	33 c8		 xor	 ecx, eax
  0000c	e8 00 00 00 00	 call	 @__security_check_cookie@4
  00011	b8 00 00 00 00	 mov	 eax, OFFSET __ehfuncinfo$?LoadData@CKanturu@@QAEHPAD@Z
  00016	e9 00 00 00 00	 jmp	 ___CxxFrameHandler3
text$x	ENDS
?LoadData@CKanturu@@QAEHPAD@Z ENDP			; CKanturu::LoadData
; Function compile flags: /Ogtp
; File c:\users\michel\desktop\source\gameserver\source\kanturu.cpp
; File c:\users\michel\desktop\source\gameserver\source\kanturustateinfo.h
; File c:\users\michel\desktop\source\gameserver\source\kanturu.cpp
;	COMDAT ?ResetAllData@CKanturu@@QAEXXZ
_TEXT	SEGMENT
?ResetAllData@CKanturu@@QAEXXZ PROC			; CKanturu::ResetAllData, COMDAT
; _this$ = ecx

; 40   : 	this->m_StateInfoCount = 0;

  00000	c7 81 8c 00 00
	00 00 00 00 00	 mov	 DWORD PTR [ecx+140], 0
; File c:\users\michel\desktop\source\gameserver\source\kanturustateinfo.h

; 30   : 		this->m_iState = iStateTimeInfo;

  0000a	c7 41 18 00 00
	00 00		 mov	 DWORD PTR [ecx+24], 0

; 31   : 	}
; 32   : 
; 33   : 	//int __thiscall GetStateInfo();
; 34   : 	void SetCondition(int iCondition)
; 35   : 	{
; 36   : 		this->m_iCondition = iCondition;

  00011	c7 41 1c 00 00
	00 00		 mov	 DWORD PTR [ecx+28], 0

; 37   : 	}
; 38   : 
; 39   : 
; 40   : 	int GetCondition()
; 41   : 	{
; 42   : 		return this->m_iCondition;
; 43   : 	}
; 44   : 
; 45   : 	void SetValue(int iValue)
; 46   : 	{
; 47   : 		this->m_iValue = iValue;

  00018	c7 41 20 00 00
	00 00		 mov	 DWORD PTR [ecx+32], 0

; 30   : 		this->m_iState = iStateTimeInfo;

  0001f	c7 41 2c 00 00
	00 00		 mov	 DWORD PTR [ecx+44], 0

; 31   : 	}
; 32   : 
; 33   : 	//int __thiscall GetStateInfo();
; 34   : 	void SetCondition(int iCondition)
; 35   : 	{
; 36   : 		this->m_iCondition = iCondition;

  00026	c7 41 30 00 00
	00 00		 mov	 DWORD PTR [ecx+48], 0

; 37   : 	}
; 38   : 
; 39   : 
; 40   : 	int GetCondition()
; 41   : 	{
; 42   : 		return this->m_iCondition;
; 43   : 	}
; 44   : 
; 45   : 	void SetValue(int iValue)
; 46   : 	{
; 47   : 		this->m_iValue = iValue;

  0002d	c7 41 34 00 00
	00 00		 mov	 DWORD PTR [ecx+52], 0

; 30   : 		this->m_iState = iStateTimeInfo;

  00034	c7 41 40 00 00
	00 00		 mov	 DWORD PTR [ecx+64], 0

; 31   : 	}
; 32   : 
; 33   : 	//int __thiscall GetStateInfo();
; 34   : 	void SetCondition(int iCondition)
; 35   : 	{
; 36   : 		this->m_iCondition = iCondition;

  0003b	c7 41 44 00 00
	00 00		 mov	 DWORD PTR [ecx+68], 0

; 37   : 	}
; 38   : 
; 39   : 
; 40   : 	int GetCondition()
; 41   : 	{
; 42   : 		return this->m_iCondition;
; 43   : 	}
; 44   : 
; 45   : 	void SetValue(int iValue)
; 46   : 	{
; 47   : 		this->m_iValue = iValue;

  00042	c7 41 48 00 00
	00 00		 mov	 DWORD PTR [ecx+72], 0

; 30   : 		this->m_iState = iStateTimeInfo;

  00049	c7 41 54 00 00
	00 00		 mov	 DWORD PTR [ecx+84], 0

; 31   : 	}
; 32   : 
; 33   : 	//int __thiscall GetStateInfo();
; 34   : 	void SetCondition(int iCondition)
; 35   : 	{
; 36   : 		this->m_iCondition = iCondition;

  00050	c7 41 58 00 00
	00 00		 mov	 DWORD PTR [ecx+88], 0

; 37   : 	}
; 38   : 
; 39   : 
; 40   : 	int GetCondition()
; 41   : 	{
; 42   : 		return this->m_iCondition;
; 43   : 	}
; 44   : 
; 45   : 	void SetValue(int iValue)
; 46   : 	{
; 47   : 		this->m_iValue = iValue;

  00057	c7 41 5c 00 00
	00 00		 mov	 DWORD PTR [ecx+92], 0

; 30   : 		this->m_iState = iStateTimeInfo;

  0005e	c7 41 68 00 00
	00 00		 mov	 DWORD PTR [ecx+104], 0

; 31   : 	}
; 32   : 
; 33   : 	//int __thiscall GetStateInfo();
; 34   : 	void SetCondition(int iCondition)
; 35   : 	{
; 36   : 		this->m_iCondition = iCondition;

  00065	c7 41 6c 00 00
	00 00		 mov	 DWORD PTR [ecx+108], 0

; 37   : 	}
; 38   : 
; 39   : 
; 40   : 	int GetCondition()
; 41   : 	{
; 42   : 		return this->m_iCondition;
; 43   : 	}
; 44   : 
; 45   : 	void SetValue(int iValue)
; 46   : 	{
; 47   : 		this->m_iValue = iValue;

  0006c	c7 41 70 00 00
	00 00		 mov	 DWORD PTR [ecx+112], 0

; 30   : 		this->m_iState = iStateTimeInfo;

  00073	c7 41 7c 00 00
	00 00		 mov	 DWORD PTR [ecx+124], 0

; 31   : 	}
; 32   : 
; 33   : 	//int __thiscall GetStateInfo();
; 34   : 	void SetCondition(int iCondition)
; 35   : 	{
; 36   : 		this->m_iCondition = iCondition;

  0007a	c7 81 80 00 00
	00 00 00 00 00	 mov	 DWORD PTR [ecx+128], 0

; 37   : 	}
; 38   : 
; 39   : 
; 40   : 	int GetCondition()
; 41   : 	{
; 42   : 		return this->m_iCondition;
; 43   : 	}
; 44   : 
; 45   : 	void SetValue(int iValue)
; 46   : 	{
; 47   : 		this->m_iValue = iValue;

  00084	c7 81 84 00 00
	00 00 00 00 00	 mov	 DWORD PTR [ecx+132], 0
; File c:\users\michel\desktop\source\gameserver\source\kanturu.cpp

; 46   : }

  0008e	c3		 ret	 0
?ResetAllData@CKanturu@@QAEXXZ ENDP			; CKanturu::ResetAllData
_TEXT	ENDS
; Function compile flags: /Ogtp
; File c:\users\michel\desktop\source\gameserver\source\kanturu.cpp
;	COMDAT ??1CKanturu@@UAE@XZ
_TEXT	SEGMENT
__$EHRec$ = -12						; size = 12
??1CKanturu@@UAE@XZ PROC				; CKanturu::~CKanturu, COMDAT
; _this$ = ecx

; 32   : {

  00000	55		 push	 ebp
  00001	8b ec		 mov	 ebp, esp
  00003	6a ff		 push	 -1
  00005	68 00 00 00 00	 push	 __ehhandler$??1CKanturu@@UAE@XZ
  0000a	64 a1 00 00 00
	00		 mov	 eax, DWORD PTR fs:0
  00010	50		 push	 eax
  00011	56		 push	 esi
  00012	a1 00 00 00 00	 mov	 eax, DWORD PTR ___security_cookie
  00017	33 c5		 xor	 eax, ebp
  00019	50		 push	 eax
  0001a	8d 45 f4	 lea	 eax, DWORD PTR __$EHRec$[ebp]
  0001d	64 a3 00 00 00
	00		 mov	 DWORD PTR fs:0, eax
  00023	8b f1		 mov	 esi, ecx

; 33   : 	return;
; 34   : }

  00025	68 00 00 00 00	 push	 OFFSET ??1MapClass@@UAE@XZ ; MapClass::~MapClass
  0002a	6a 02		 push	 2
  0002c	68 28 38 05 00	 push	 342056			; 00053828H
  00031	8d 86 44 04 00
	00		 lea	 eax, DWORD PTR [esi+1092]
  00037	c7 06 00 00 00
	00		 mov	 DWORD PTR [esi], OFFSET ??_7CKanturu@@6B@
  0003d	50		 push	 eax
  0003e	e8 00 00 00 00	 call	 ??_M@YGXPAXIIP6EX0@Z@Z
  00043	8d 8e b4 03 00
	00		 lea	 ecx, DWORD PTR [esi+948]
  00049	e8 00 00 00 00	 call	 ??1CKanturuTowerOfRefinement@@UAE@XZ ; CKanturuTowerOfRefinement::~CKanturuTowerOfRefinement
  0004e	8d 8e 20 03 00
	00		 lea	 ecx, DWORD PTR [esi+800]
  00054	e8 00 00 00 00	 call	 ??1CKanturuBattleOfNightmare@@UAE@XZ ; CKanturuBattleOfNightmare::~CKanturuBattleOfNightmare
  00059	8d 8e f4 00 00
	00		 lea	 ecx, DWORD PTR [esi+244]
  0005f	e8 00 00 00 00	 call	 ??1CKanturuBattleOfMaya@@UAE@XZ ; CKanturuBattleOfMaya::~CKanturuBattleOfMaya
  00064	8d 8e 90 00 00
	00		 lea	 ecx, DWORD PTR [esi+144]
  0006a	e8 00 00 00 00	 call	 ??1CKanturuBattleStanby@@UAE@XZ ; CKanturuBattleStanby::~CKanturuBattleStanby
  0006f	68 00 00 00 00	 push	 OFFSET ??1CKanturuStateInfo@@UAE@XZ ; CKanturuStateInfo::~CKanturuStateInfo
  00074	6a 06		 push	 6
  00076	6a 14		 push	 20			; 00000014H
  00078	8d 46 14	 lea	 eax, DWORD PTR [esi+20]
  0007b	50		 push	 eax
  0007c	e8 00 00 00 00	 call	 ??_M@YGXPAXIIP6EX0@Z@Z
  00081	8b 4d f4	 mov	 ecx, DWORD PTR __$EHRec$[ebp]
  00084	64 89 0d 00 00
	00 00		 mov	 DWORD PTR fs:0, ecx
  0008b	59		 pop	 ecx
  0008c	5e		 pop	 esi
  0008d	8b e5		 mov	 esp, ebp
  0008f	5d		 pop	 ebp
  00090	c3		 ret	 0
_TEXT	ENDS
;	COMDAT text$x
text$x	SEGMENT
__ehhandler$??1CKanturu@@UAE@XZ:
  00000	8b 54 24 08	 mov	 edx, DWORD PTR [esp+8]
  00004	8d 42 0c	 lea	 eax, DWORD PTR [edx+12]
  00007	8b 4a f8	 mov	 ecx, DWORD PTR [edx-8]
  0000a	33 c8		 xor	 ecx, eax
  0000c	e8 00 00 00 00	 call	 @__security_check_cookie@4
  00011	b8 00 00 00 00	 mov	 eax, OFFSET __ehfuncinfo$??1CKanturu@@UAE@XZ
  00016	e9 00 00 00 00	 jmp	 ___CxxFrameHandler3
text$x	ENDS
??1CKanturu@@UAE@XZ ENDP				; CKanturu::~CKanturu
; Function compile flags: /Ogtp
; File c:\users\michel\desktop\source\gameserver\source\kanturu.cpp
;	COMDAT ??0CKanturu@@QAE@XZ
_TEXT	SEGMENT
_this$ = -16						; size = 4
__$EHRec$ = -12						; size = 12
??0CKanturu@@QAE@XZ PROC				; CKanturu::CKanturu, COMDAT
; _this$ = ecx

; 21   : {

  00000	55		 push	 ebp
  00001	8b ec		 mov	 ebp, esp
  00003	6a ff		 push	 -1
  00005	68 00 00 00 00	 push	 __ehhandler$??0CKanturu@@QAE@XZ
  0000a	64 a1 00 00 00
	00		 mov	 eax, DWORD PTR fs:0
  00010	50		 push	 eax
  00011	51		 push	 ecx
  00012	56		 push	 esi
  00013	a1 00 00 00 00	 mov	 eax, DWORD PTR ___security_cookie
  00018	33 c5		 xor	 eax, ebp
  0001a	50		 push	 eax
  0001b	8d 45 f4	 lea	 eax, DWORD PTR __$EHRec$[ebp]
  0001e	64 a3 00 00 00
	00		 mov	 DWORD PTR fs:0, eax
  00024	8b f1		 mov	 esi, ecx
  00026	89 75 f0	 mov	 DWORD PTR _this$[ebp], esi
  00029	68 00 00 00 00	 push	 OFFSET ??1CKanturuStateInfo@@UAE@XZ ; CKanturuStateInfo::~CKanturuStateInfo
  0002e	68 00 00 00 00	 push	 OFFSET ??0CKanturuStateInfo@@QAE@XZ ; CKanturuStateInfo::CKanturuStateInfo
  00033	6a 06		 push	 6
  00035	6a 14		 push	 20			; 00000014H
  00037	8d 46 14	 lea	 eax, DWORD PTR [esi+20]
  0003a	c7 06 00 00 00
	00		 mov	 DWORD PTR [esi], OFFSET ??_7CKanturu@@6B@
  00040	50		 push	 eax
  00041	e8 00 00 00 00	 call	 ??_L@YGXPAXIIP6EX0@Z1@Z
  00046	8d 8e 90 00 00
	00		 lea	 ecx, DWORD PTR [esi+144]
  0004c	c7 45 fc 00 00
	00 00		 mov	 DWORD PTR __$EHRec$[ebp+8], 0
  00053	e8 00 00 00 00	 call	 ??0CKanturuBattleStanby@@QAE@XZ ; CKanturuBattleStanby::CKanturuBattleStanby
  00058	8d 8e f4 00 00
	00		 lea	 ecx, DWORD PTR [esi+244]
  0005e	c6 45 fc 01	 mov	 BYTE PTR __$EHRec$[ebp+8], 1
  00062	e8 00 00 00 00	 call	 ??0CKanturuBattleOfMaya@@QAE@XZ ; CKanturuBattleOfMaya::CKanturuBattleOfMaya
  00067	8d 8e 20 03 00
	00		 lea	 ecx, DWORD PTR [esi+800]
  0006d	c6 45 fc 02	 mov	 BYTE PTR __$EHRec$[ebp+8], 2
  00071	e8 00 00 00 00	 call	 ??0CKanturuBattleOfNightmare@@QAE@XZ ; CKanturuBattleOfNightmare::CKanturuBattleOfNightmare
  00076	8d 8e b4 03 00
	00		 lea	 ecx, DWORD PTR [esi+948]
  0007c	c6 45 fc 03	 mov	 BYTE PTR __$EHRec$[ebp+8], 3
  00080	e8 00 00 00 00	 call	 ??0CKanturuTowerOfRefinement@@QAE@XZ ; CKanturuTowerOfRefinement::CKanturuTowerOfRefinement
  00085	68 00 00 00 00	 push	 OFFSET ??1MapClass@@UAE@XZ ; MapClass::~MapClass
  0008a	68 00 00 00 00	 push	 OFFSET ??0MapClass@@QAE@XZ ; MapClass::MapClass
  0008f	6a 02		 push	 2
  00091	68 28 38 05 00	 push	 342056			; 00053828H
  00096	8d 86 44 04 00
	00		 lea	 eax, DWORD PTR [esi+1092]
  0009c	c6 45 fc 04	 mov	 BYTE PTR __$EHRec$[ebp+8], 4
  000a0	50		 push	 eax
  000a1	e8 00 00 00 00	 call	 ??_L@YGXPAXIIP6EX0@Z1@Z

; 22   : 	this->m_bKanturuEnable = FALSE;

  000a6	c7 46 04 00 00
	00 00		 mov	 DWORD PTR [esi+4], 0

; 23   : 	this->m_iKanturuState = 0;
; 24   : 	this->m_StateInfoCount = 0;
; 25   : 	this->m_bFileDataLoad = FALSE;
; 26   : 	this->m_bEnableCheckMoonStone = FALSE;
; 27   : 	this->m_iKanturuBattleCounter = 0;
; 28   : 	this->m_iKanturuBattleDate = 0;
; 29   : }

  000ad	8b c6		 mov	 eax, esi
  000af	c7 46 08 00 00
	00 00		 mov	 DWORD PTR [esi+8], 0
  000b6	c7 86 8c 00 00
	00 00 00 00 00	 mov	 DWORD PTR [esi+140], 0
  000c0	c7 46 10 00 00
	00 00		 mov	 DWORD PTR [esi+16], 0
  000c7	c7 86 94 74 0a
	00 00 00 00 00	 mov	 DWORD PTR [esi+685204], 0
  000d1	c7 86 98 74 0a
	00 00 00 00 00	 mov	 DWORD PTR [esi+685208], 0
  000db	c7 86 9c 74 0a
	00 00 00 00 00	 mov	 DWORD PTR [esi+685212], 0
  000e5	8b 4d f4	 mov	 ecx, DWORD PTR __$EHRec$[ebp]
  000e8	64 89 0d 00 00
	00 00		 mov	 DWORD PTR fs:0, ecx
  000ef	59		 pop	 ecx
  000f0	5e		 pop	 esi
  000f1	8b e5		 mov	 esp, ebp
  000f3	5d		 pop	 ebp
  000f4	c3		 ret	 0
_TEXT	ENDS
;	COMDAT text$x
text$x	SEGMENT
__unwindfunclet$??0CKanturu@@QAE@XZ$0:
  00000	68 00 00 00 00	 push	 OFFSET ??1CKanturuStateInfo@@UAE@XZ ; CKanturuStateInfo::~CKanturuStateInfo
  00005	6a 06		 push	 6
  00007	6a 14		 push	 20			; 00000014H
  00009	8b 45 f0	 mov	 eax, DWORD PTR _this$[ebp]
  0000c	83 c0 14	 add	 eax, 20			; 00000014H
  0000f	50		 push	 eax
  00010	e8 00 00 00 00	 call	 ??_M@YGXPAXIIP6EX0@Z@Z
  00015	c3		 ret	 0
__unwindfunclet$??0CKanturu@@QAE@XZ$1:
  00016	8b 4d f0	 mov	 ecx, DWORD PTR _this$[ebp]
  00019	81 c1 90 00 00
	00		 add	 ecx, 144		; 00000090H
  0001f	e9 00 00 00 00	 jmp	 ??1CKanturuBattleStanby@@UAE@XZ ; CKanturuBattleStanby::~CKanturuBattleStanby
__unwindfunclet$??0CKanturu@@QAE@XZ$2:
  00024	8b 4d f0	 mov	 ecx, DWORD PTR _this$[ebp]
  00027	81 c1 f4 00 00
	00		 add	 ecx, 244		; 000000f4H
  0002d	e9 00 00 00 00	 jmp	 ??1CKanturuBattleOfMaya@@UAE@XZ ; CKanturuBattleOfMaya::~CKanturuBattleOfMaya
__unwindfunclet$??0CKanturu@@QAE@XZ$3:
  00032	8b 4d f0	 mov	 ecx, DWORD PTR _this$[ebp]
  00035	81 c1 20 03 00
	00		 add	 ecx, 800		; 00000320H
  0003b	e9 00 00 00 00	 jmp	 ??1CKanturuBattleOfNightmare@@UAE@XZ ; CKanturuBattleOfNightmare::~CKanturuBattleOfNightmare
__unwindfunclet$??0CKanturu@@QAE@XZ$4:
  00040	8b 4d f0	 mov	 ecx, DWORD PTR _this$[ebp]
  00043	81 c1 b4 03 00
	00		 add	 ecx, 948		; 000003b4H
  00049	e9 00 00 00 00	 jmp	 ??1CKanturuTowerOfRefinement@@UAE@XZ ; CKanturuTowerOfRefinement::~CKanturuTowerOfRefinement
__ehhandler$??0CKanturu@@QAE@XZ:
  0004e	8b 54 24 08	 mov	 edx, DWORD PTR [esp+8]
  00052	8d 42 0c	 lea	 eax, DWORD PTR [edx+12]
  00055	8b 4a f4	 mov	 ecx, DWORD PTR [edx-12]
  00058	33 c8		 xor	 ecx, eax
  0005a	e8 00 00 00 00	 call	 @__security_check_cookie@4
  0005f	b8 00 00 00 00	 mov	 eax, OFFSET __ehfuncinfo$??0CKanturu@@QAE@XZ
  00064	e9 00 00 00 00	 jmp	 ___CxxFrameHandler3
text$x	ENDS
??0CKanturu@@QAE@XZ ENDP				; CKanturu::CKanturu
; Function compile flags: /Ogtp
; File c:\users\michel\desktop\source\gameserver\source\kanturutowerofrefinement.h
;	COMDAT ?IsUseTowerOfRefinement@CKanturuTowerOfRefinement@@QAEHXZ
_TEXT	SEGMENT
?IsUseTowerOfRefinement@CKanturuTowerOfRefinement@@QAEHXZ PROC ; CKanturuTowerOfRefinement::IsUseTowerOfRefinement, COMDAT
; _this$ = ecx

; 56   : 	BOOL IsUseTowerOfRefinement(){return this->m_bIsUseTowerOfRefinement;}

  00000	8b 41 0c	 mov	 eax, DWORD PTR [ecx+12]
  00003	c3		 ret	 0
?IsUseTowerOfRefinement@CKanturuTowerOfRefinement@@QAEHXZ ENDP ; CKanturuTowerOfRefinement::IsUseTowerOfRefinement
_TEXT	ENDS
; Function compile flags: /Ogtp
; File c:\users\michel\desktop\source\gameserver\source\kanturutowerofrefinement.h
;	COMDAT ?GetEntrancePermit@CKanturuTowerOfRefinement@@QAEHXZ
_TEXT	SEGMENT
?GetEntrancePermit@CKanturuTowerOfRefinement@@QAEHXZ PROC ; CKanturuTowerOfRefinement::GetEntrancePermit, COMDAT
; _this$ = ecx

; 54   : 	BOOL GetEntrancePermit(){return this->m_bEntrancePermit;}

  00000	8b 41 08	 mov	 eax, DWORD PTR [ecx+8]
  00003	c3		 ret	 0
?GetEntrancePermit@CKanturuTowerOfRefinement@@QAEHXZ ENDP ; CKanturuTowerOfRefinement::GetEntrancePermit
_TEXT	ENDS
; Function compile flags: /Ogtp
; File c:\users\michel\desktop\source\gameserver\source\kanturutowerofrefinement.h
;	COMDAT ?GetTowerOfRefinementState@CKanturuTowerOfRefinement@@QAEHXZ
_TEXT	SEGMENT
?GetTowerOfRefinementState@CKanturuTowerOfRefinement@@QAEHXZ PROC ; CKanturuTowerOfRefinement::GetTowerOfRefinementState, COMDAT
; _this$ = ecx

; 52   : 	int GetTowerOfRefinementState(){return this->m_iTowerOfRefinementState;}

  00000	8b 41 04	 mov	 eax, DWORD PTR [ecx+4]
  00003	c3		 ret	 0
?GetTowerOfRefinementState@CKanturuTowerOfRefinement@@QAEHXZ ENDP ; CKanturuTowerOfRefinement::GetTowerOfRefinementState
_TEXT	ENDS
; Function compile flags: /Ogtp
; File c:\users\michel\desktop\source\gameserver\source\kanturubattleofnightmare.h
;	COMDAT ?GetSuccessValue@CKanturuBattleOfNightmare@@QAEHXZ
_TEXT	SEGMENT
?GetSuccessValue@CKanturuBattleOfNightmare@@QAEHXZ PROC	; CKanturuBattleOfNightmare::GetSuccessValue, COMDAT
; _this$ = ecx

; 52   : 	BOOL GetSuccessValue(){return this->m_bIsSucccess;}

  00000	8b 41 08	 mov	 eax, DWORD PTR [ecx+8]
  00003	c3		 ret	 0
?GetSuccessValue@CKanturuBattleOfNightmare@@QAEHXZ ENDP	; CKanturuBattleOfNightmare::GetSuccessValue
_TEXT	ENDS
; Function compile flags: /Ogtp
; File c:\users\michel\desktop\source\gameserver\source\kanturubattleofnightmare.h
;	COMDAT ?GetBattleOfNightmareState@CKanturuBattleOfNightmare@@QAEHXZ
_TEXT	SEGMENT
?GetBattleOfNightmareState@CKanturuBattleOfNightmare@@QAEHXZ PROC ; CKanturuBattleOfNightmare::GetBattleOfNightmareState, COMDAT
; _this$ = ecx

; 50   : 	int GetBattleOfNightmareState(){return this->m_iBattleOfNightmareState;}

  00000	8b 41 04	 mov	 eax, DWORD PTR [ecx+4]
  00003	c3		 ret	 0
?GetBattleOfNightmareState@CKanturuBattleOfNightmare@@QAEHXZ ENDP ; CKanturuBattleOfNightmare::GetBattleOfNightmareState
_TEXT	ENDS
; Function compile flags: /Ogtp
; File c:\users\michel\desktop\source\gameserver\source\kanturubattleofmaya.h
;	COMDAT ?GetEntrancePermit@CKanturuBattleOfMaya@@QAEHXZ
_TEXT	SEGMENT
?GetEntrancePermit@CKanturuBattleOfMaya@@QAEHXZ PROC	; CKanturuBattleOfMaya::GetEntrancePermit, COMDAT
; _this$ = ecx

; 107  : 	BOOL GetEntrancePermit(){return this->m_bEntrancePermit;}

  00000	8b 81 d0 01 00
	00		 mov	 eax, DWORD PTR [ecx+464]
  00006	c3		 ret	 0
?GetEntrancePermit@CKanturuBattleOfMaya@@QAEHXZ ENDP	; CKanturuBattleOfMaya::GetEntrancePermit
_TEXT	ENDS
; Function compile flags: /Ogtp
; File c:\users\michel\desktop\source\gameserver\source\kanturubattleofmaya.h
;	COMDAT ?GetSuccessValue@CKanturuBattleOfMaya@@QAEHXZ
_TEXT	SEGMENT
?GetSuccessValue@CKanturuBattleOfMaya@@QAEHXZ PROC	; CKanturuBattleOfMaya::GetSuccessValue, COMDAT
; _this$ = ecx

; 103  : 	BOOL GetSuccessValue(){return this->m_bIsSucccess;}

  00000	8b 81 d4 01 00
	00		 mov	 eax, DWORD PTR [ecx+468]
  00006	c3		 ret	 0
?GetSuccessValue@CKanturuBattleOfMaya@@QAEHXZ ENDP	; CKanturuBattleOfMaya::GetSuccessValue
_TEXT	ENDS
; Function compile flags: /Ogtp
; File c:\users\michel\desktop\source\gameserver\source\kanturubattleofmaya.h
;	COMDAT ?GetBattleOfMayaState@CKanturuBattleOfMaya@@QAEHXZ
_TEXT	SEGMENT
?GetBattleOfMayaState@CKanturuBattleOfMaya@@QAEHXZ PROC	; CKanturuBattleOfMaya::GetBattleOfMayaState, COMDAT
; _this$ = ecx

; 94   : 	int GetBattleOfMayaState(){return this->m_iBattleOfMayaState;}

  00000	8b 41 08	 mov	 eax, DWORD PTR [ecx+8]
  00003	c3		 ret	 0
?GetBattleOfMayaState@CKanturuBattleOfMaya@@QAEHXZ ENDP	; CKanturuBattleOfMaya::GetBattleOfMayaState
_TEXT	ENDS
; Function compile flags: /Ogtp
; File c:\users\michel\desktop\source\gameserver\source\kanturubattlestanby.h
;	COMDAT ?GetBattleStanbyState@CKanturuBattleStanby@@QAEHXZ
_TEXT	SEGMENT
?GetBattleStanbyState@CKanturuBattleStanby@@QAEHXZ PROC	; CKanturuBattleStanby::GetBattleStanbyState, COMDAT
; _this$ = ecx

; 47   : 	int GetBattleStanbyState(){return this->m_iBattleStanbyState;}

  00000	8b 41 04	 mov	 eax, DWORD PTR [ecx+4]
  00003	c3		 ret	 0
?GetBattleStanbyState@CKanturuBattleStanby@@QAEHXZ ENDP	; CKanturuBattleStanby::GetBattleStanbyState
_TEXT	ENDS
; Function compile flags: /Ogtp
; File c:\users\michel\desktop\source\gameserver\source\kanturustateinfo.h
;	COMDAT ?IsTimeOut@CKanturuStateInfo@@QAEHXZ
_TEXT	SEGMENT
?IsTimeOut@CKanturuStateInfo@@QAEHXZ PROC		; CKanturuStateInfo::IsTimeOut, COMDAT
; _this$ = ecx

; 91   : 	{

  00000	57		 push	 edi
  00001	8b f9		 mov	 edi, ecx

; 68   : 		return iElapsedTime;
; 69   : 	}
; 70   : 
; 71   : 	int GetRemainTime()
; 72   : 	{
; 73   : 		int iRemainTime = 0;
; 74   : 
; 75   : 		if ( this->GetCondition() == 1 )

  00003	83 7f 08 01	 cmp	 DWORD PTR [edi+8], 1
  00007	75 2f		 jne	 SHORT $LN14@IsTimeOut
  00009	56		 push	 esi

; 61   : 		return this->m_dwAppliedTickCount;

  0000a	8b 77 10	 mov	 esi, DWORD PTR [edi+16]

; 62   : 	}
; 63   : 
; 64   : 	//void __thiscall ResetAppliedTime();
; 65   : 	int GetElapsedTime()
; 66   : 	{
; 67   : 		int iElapsedTime = GetTickCount() - this->GetAppliedTime();

  0000d	ff 15 00 00 00
	00		 call	 DWORD PTR __imp__GetTickCount@0

; 76   : 		{
; 77   : 			iRemainTime = this->m_iValue - this->GetElapsedTime();

  00013	8b 4f 0c	 mov	 ecx, DWORD PTR [edi+12]

; 62   : 	}
; 63   : 
; 64   : 	//void __thiscall ResetAppliedTime();
; 65   : 	int GetElapsedTime()
; 66   : 	{
; 67   : 		int iElapsedTime = GetTickCount() - this->GetAppliedTime();

  00016	2b c6		 sub	 eax, esi

; 76   : 		{
; 77   : 			iRemainTime = this->m_iValue - this->GetElapsedTime();

  00018	2b c8		 sub	 ecx, eax
  0001a	5e		 pop	 esi

; 78   : 
; 79   : 			if ( iRemainTime <= 0 )

  0001b	85 c9		 test	 ecx, ecx
  0001d	7e 19		 jle	 SHORT $LN14@IsTimeOut

; 80   : 			{
; 81   : 				return 0;
; 82   : 			}
; 83   : 
; 84   : 			iRemainTime /= 1000;

  0001f	b8 d3 4d 62 10	 mov	 eax, 274877907		; 10624dd3H
  00024	f7 e9		 imul	 ecx
  00026	c1 fa 06	 sar	 edx, 6
  00029	8b c2		 mov	 eax, edx
  0002b	c1 e8 1f	 shr	 eax, 31			; 0000001fH
  0002e	03 c2		 add	 eax, edx

; 92   : 		if ( this->GetRemainTime() <= 0 )

  00030	85 c0		 test	 eax, eax
  00032	7e 04		 jle	 SHORT $LN14@IsTimeOut

; 95   : 		}
; 96   : 
; 97   : 		return FALSE;

  00034	33 c0		 xor	 eax, eax
  00036	5f		 pop	 edi

; 98   : 	}

  00037	c3		 ret	 0
$LN14@IsTimeOut:

; 93   : 		{
; 94   : 			return TRUE;

  00038	b8 01 00 00 00	 mov	 eax, 1
  0003d	5f		 pop	 edi

; 98   : 	}

  0003e	c3		 ret	 0
?IsTimeOut@CKanturuStateInfo@@QAEHXZ ENDP		; CKanturuStateInfo::IsTimeOut
_TEXT	ENDS
; Function compile flags: /Ogtp
; File c:\users\michel\desktop\source\gameserver\source\kanturustateinfo.h
;	COMDAT ?GetRemainTime@CKanturuStateInfo@@QAEHXZ
_TEXT	SEGMENT
?GetRemainTime@CKanturuStateInfo@@QAEHXZ PROC		; CKanturuStateInfo::GetRemainTime, COMDAT
; _this$ = ecx

; 72   : 	{

  00000	57		 push	 edi
  00001	8b f9		 mov	 edi, ecx

; 73   : 		int iRemainTime = 0;

  00003	33 c0		 xor	 eax, eax

; 74   : 
; 75   : 		if ( this->GetCondition() == 1 )

  00005	83 7f 08 01	 cmp	 DWORD PTR [edi+8], 1
  00009	75 2b		 jne	 SHORT $LN1@GetRemainT
  0000b	56		 push	 esi

; 61   : 		return this->m_dwAppliedTickCount;

  0000c	8b 77 10	 mov	 esi, DWORD PTR [edi+16]

; 62   : 	}
; 63   : 
; 64   : 	//void __thiscall ResetAppliedTime();
; 65   : 	int GetElapsedTime()
; 66   : 	{
; 67   : 		int iElapsedTime = GetTickCount() - this->GetAppliedTime();

  0000f	ff 15 00 00 00
	00		 call	 DWORD PTR __imp__GetTickCount@0

; 76   : 		{
; 77   : 			iRemainTime = this->m_iValue - this->GetElapsedTime();

  00015	8b 4f 0c	 mov	 ecx, DWORD PTR [edi+12]

; 62   : 	}
; 63   : 
; 64   : 	//void __thiscall ResetAppliedTime();
; 65   : 	int GetElapsedTime()
; 66   : 	{
; 67   : 		int iElapsedTime = GetTickCount() - this->GetAppliedTime();

  00018	2b c6		 sub	 eax, esi

; 76   : 		{
; 77   : 			iRemainTime = this->m_iValue - this->GetElapsedTime();

  0001a	2b c8		 sub	 ecx, eax
  0001c	5e		 pop	 esi

; 78   : 
; 79   : 			if ( iRemainTime <= 0 )

  0001d	85 c9		 test	 ecx, ecx
  0001f	7f 04		 jg	 SHORT $LN3@GetRemainT

; 80   : 			{
; 81   : 				return 0;

  00021	33 c0		 xor	 eax, eax
  00023	5f		 pop	 edi

; 85   : 		}
; 86   : 
; 87   : 		return iRemainTime;
; 88   : 	}

  00024	c3		 ret	 0
$LN3@GetRemainT:

; 82   : 			}
; 83   : 
; 84   : 			iRemainTime /= 1000;

  00025	b8 d3 4d 62 10	 mov	 eax, 274877907		; 10624dd3H
  0002a	f7 e9		 imul	 ecx
  0002c	c1 fa 06	 sar	 edx, 6
  0002f	8b c2		 mov	 eax, edx
  00031	c1 e8 1f	 shr	 eax, 31			; 0000001fH
  00034	03 c2		 add	 eax, edx
$LN1@GetRemainT:
  00036	5f		 pop	 edi

; 85   : 		}
; 86   : 
; 87   : 		return iRemainTime;
; 88   : 	}

  00037	c3		 ret	 0
?GetRemainTime@CKanturuStateInfo@@QAEHXZ ENDP		; CKanturuStateInfo::GetRemainTime
_TEXT	ENDS
; Function compile flags: /Ogtp
; File c:\users\michel\desktop\source\gameserver\source\kanturustateinfo.h
;	COMDAT ?GetElapsedTime@CKanturuStateInfo@@QAEHXZ
_TEXT	SEGMENT
?GetElapsedTime@CKanturuStateInfo@@QAEHXZ PROC		; CKanturuStateInfo::GetElapsedTime, COMDAT
; _this$ = ecx

; 66   : 	{

  00000	56		 push	 esi

; 61   : 		return this->m_dwAppliedTickCount;

  00001	8b 71 10	 mov	 esi, DWORD PTR [ecx+16]

; 67   : 		int iElapsedTime = GetTickCount() - this->GetAppliedTime();

  00004	ff 15 00 00 00
	00		 call	 DWORD PTR __imp__GetTickCount@0
  0000a	2b c6		 sub	 eax, esi
  0000c	5e		 pop	 esi

; 68   : 		return iElapsedTime;
; 69   : 	}

  0000d	c3		 ret	 0
?GetElapsedTime@CKanturuStateInfo@@QAEHXZ ENDP		; CKanturuStateInfo::GetElapsedTime
_TEXT	ENDS
; Function compile flags: /Ogtp
; File c:\users\michel\desktop\source\gameserver\source\kanturustateinfo.h
;	COMDAT ?GetAppliedTime@CKanturuStateInfo@@QAEHXZ
_TEXT	SEGMENT
?GetAppliedTime@CKanturuStateInfo@@QAEHXZ PROC		; CKanturuStateInfo::GetAppliedTime, COMDAT
; _this$ = ecx

; 61   : 		return this->m_dwAppliedTickCount;

  00000	8b 41 10	 mov	 eax, DWORD PTR [ecx+16]

; 62   : 	}

  00003	c3		 ret	 0
?GetAppliedTime@CKanturuStateInfo@@QAEHXZ ENDP		; CKanturuStateInfo::GetAppliedTime
_TEXT	ENDS
; Function compile flags: /Ogtp
; File c:\users\michel\desktop\source\gameserver\source\kanturustateinfo.h
;	COMDAT ?SetAppliedTime@CKanturuStateInfo@@QAEXXZ
_TEXT	SEGMENT
?SetAppliedTime@CKanturuStateInfo@@QAEXXZ PROC		; CKanturuStateInfo::SetAppliedTime, COMDAT
; _this$ = ecx

; 55   : 	{

  00000	56		 push	 esi
  00001	8b f1		 mov	 esi, ecx

; 56   : 		this->m_dwAppliedTickCount = GetTickCount();

  00003	ff 15 00 00 00
	00		 call	 DWORD PTR __imp__GetTickCount@0
  00009	89 46 10	 mov	 DWORD PTR [esi+16], eax
  0000c	5e		 pop	 esi

; 57   : 	}

  0000d	c3		 ret	 0
?SetAppliedTime@CKanturuStateInfo@@QAEXXZ ENDP		; CKanturuStateInfo::SetAppliedTime
_TEXT	ENDS
; Function compile flags: /Ogtp
; File c:\users\michel\desktop\source\gameserver\source\kanturustateinfo.h
;	COMDAT ?SetValue@CKanturuStateInfo@@QAEXH@Z
_TEXT	SEGMENT
_iValue$ = 8						; size = 4
?SetValue@CKanturuStateInfo@@QAEXH@Z PROC		; CKanturuStateInfo::SetValue, COMDAT
; _this$ = ecx

; 46   : 	{

  00000	55		 push	 ebp
  00001	8b ec		 mov	 ebp, esp

; 47   : 		this->m_iValue = iValue;

  00003	8b 45 08	 mov	 eax, DWORD PTR _iValue$[ebp]
  00006	89 41 0c	 mov	 DWORD PTR [ecx+12], eax

; 48   : 	}

  00009	5d		 pop	 ebp
  0000a	c2 04 00	 ret	 4
?SetValue@CKanturuStateInfo@@QAEXH@Z ENDP		; CKanturuStateInfo::SetValue
_TEXT	ENDS
; Function compile flags: /Ogtp
; File c:\users\michel\desktop\source\gameserver\source\kanturustateinfo.h
;	COMDAT ?GetCondition@CKanturuStateInfo@@QAEHXZ
_TEXT	SEGMENT
?GetCondition@CKanturuStateInfo@@QAEHXZ PROC		; CKanturuStateInfo::GetCondition, COMDAT
; _this$ = ecx

; 42   : 		return this->m_iCondition;

  00000	8b 41 08	 mov	 eax, DWORD PTR [ecx+8]

; 43   : 	}

  00003	c3		 ret	 0
?GetCondition@CKanturuStateInfo@@QAEHXZ ENDP		; CKanturuStateInfo::GetCondition
_TEXT	ENDS
; Function compile flags: /Ogtp
; File c:\users\michel\desktop\source\gameserver\source\kanturustateinfo.h
;	COMDAT ?SetCondition@CKanturuStateInfo@@QAEXH@Z
_TEXT	SEGMENT
_iCondition$ = 8					; size = 4
?SetCondition@CKanturuStateInfo@@QAEXH@Z PROC		; CKanturuStateInfo::SetCondition, COMDAT
; _this$ = ecx

; 35   : 	{

  00000	55		 push	 ebp
  00001	8b ec		 mov	 ebp, esp

; 36   : 		this->m_iCondition = iCondition;

  00003	8b 45 08	 mov	 eax, DWORD PTR _iCondition$[ebp]
  00006	89 41 08	 mov	 DWORD PTR [ecx+8], eax

; 37   : 	}

  00009	5d		 pop	 ebp
  0000a	c2 04 00	 ret	 4
?SetCondition@CKanturuStateInfo@@QAEXH@Z ENDP		; CKanturuStateInfo::SetCondition
_TEXT	ENDS
; Function compile flags: /Ogtp
; File c:\users\michel\desktop\source\gameserver\source\kanturustateinfo.h
;	COMDAT ?SetStateInfo@CKanturuStateInfo@@QAEXH@Z
_TEXT	SEGMENT
_iStateTimeInfo$ = 8					; size = 4
?SetStateInfo@CKanturuStateInfo@@QAEXH@Z PROC		; CKanturuStateInfo::SetStateInfo, COMDAT
; _this$ = ecx

; 29   : 	{

  00000	55		 push	 ebp
  00001	8b ec		 mov	 ebp, esp

; 30   : 		this->m_iState = iStateTimeInfo;

  00003	8b 45 08	 mov	 eax, DWORD PTR _iStateTimeInfo$[ebp]
  00006	89 41 04	 mov	 DWORD PTR [ecx+4], eax

; 31   : 	}

  00009	5d		 pop	 ebp
  0000a	c2 04 00	 ret	 4
?SetStateInfo@CKanturuStateInfo@@QAEXH@Z ENDP		; CKanturuStateInfo::SetStateInfo
_TEXT	ENDS
; Function compile flags: /Ogtp
; File c:\users\michel\desktop\source\gameserver\source\kanturustateinfo.h
;	COMDAT ?ResetTimeInfo@CKanturuStateInfo@@QAEXXZ
_TEXT	SEGMENT
?ResetTimeInfo@CKanturuStateInfo@@QAEXXZ PROC		; CKanturuStateInfo::ResetTimeInfo, COMDAT
; _this$ = ecx

; 26   : 
; 27   : 
; 28   : 	void SetStateInfo(int iStateTimeInfo)
; 29   : 	{
; 30   : 		this->m_iState = iStateTimeInfo;

  00000	c7 41 04 00 00
	00 00		 mov	 DWORD PTR [ecx+4], 0

; 31   : 	}
; 32   : 
; 33   : 	//int __thiscall GetStateInfo();
; 34   : 	void SetCondition(int iCondition)
; 35   : 	{
; 36   : 		this->m_iCondition = iCondition;

  00007	c7 41 08 00 00
	00 00		 mov	 DWORD PTR [ecx+8], 0

; 37   : 	}
; 38   : 
; 39   : 
; 40   : 	int GetCondition()
; 41   : 	{
; 42   : 		return this->m_iCondition;
; 43   : 	}
; 44   : 
; 45   : 	void SetValue(int iValue)
; 46   : 	{
; 47   : 		this->m_iValue = iValue;

  0000e	c7 41 0c 00 00
	00 00		 mov	 DWORD PTR [ecx+12], 0

; 22   : 		this->SetStateInfo(0);
; 23   : 		this->SetCondition(0);
; 24   : 		this->SetValue(0);
; 25   : 	}

  00015	c3		 ret	 0
?ResetTimeInfo@CKanturuStateInfo@@QAEXXZ ENDP		; CKanturuStateInfo::ResetTimeInfo
_TEXT	ENDS
; Function compile flags: /Ogtp
;	COMDAT ??_EOBJECTSTRUCT@@QAEPAXI@Z
_TEXT	SEGMENT
__$EHRec$ = -12						; size = 12
___flags$ = 8						; size = 4
??_EOBJECTSTRUCT@@QAEPAXI@Z PROC			; OBJECTSTRUCT::`vector deleting destructor', COMDAT
; _this$ = ecx
  00000	55		 push	 ebp
  00001	8b ec		 mov	 ebp, esp
  00003	6a ff		 push	 -1
  00005	68 00 00 00 00	 push	 __ehhandler$??_EOBJECTSTRUCT@@QAEPAXI@Z
  0000a	64 a1 00 00 00
	00		 mov	 eax, DWORD PTR fs:0
  00010	50		 push	 eax
  00011	53		 push	 ebx
  00012	56		 push	 esi
  00013	57		 push	 edi
  00014	a1 00 00 00 00	 mov	 eax, DWORD PTR ___security_cookie
  00019	33 c5		 xor	 eax, ebp
  0001b	50		 push	 eax
  0001c	8d 45 f4	 lea	 eax, DWORD PTR __$EHRec$[ebp]
  0001f	64 a3 00 00 00
	00		 mov	 DWORD PTR fs:0, eax
  00025	8b f1		 mov	 esi, ecx
  00027	8b 5d 08	 mov	 ebx, DWORD PTR ___flags$[ebp]
  0002a	f6 c3 02	 test	 bl, 2
  0002d	74 44		 je	 SHORT $LN2@vector
  0002f	68 00 00 00 00	 push	 OFFSET ??1OBJECTSTRUCT@@QAE@XZ
  00034	ff 76 fc	 push	 DWORD PTR [esi-4]
  00037	8d 7e fc	 lea	 edi, DWORD PTR [esi-4]
  0003a	68 40 27 00 00	 push	 10048			; 00002740H
  0003f	56		 push	 esi
  00040	e8 00 00 00 00	 call	 ??_M@YGXPAXIIP6EX0@Z@Z
  00045	f6 c3 01	 test	 bl, 1
  00048	74 13		 je	 SHORT $LN3@vector
  0004a	69 0f 40 27 00
	00		 imul	 ecx, DWORD PTR [edi], 10048
  00050	83 c1 04	 add	 ecx, 4
  00053	51		 push	 ecx
  00054	57		 push	 edi
  00055	e8 00 00 00 00	 call	 ??_V@YAXPAXI@Z		; operator delete[]
  0005a	83 c4 08	 add	 esp, 8
$LN3@vector:
  0005d	8b c7		 mov	 eax, edi
  0005f	8b 4d f4	 mov	 ecx, DWORD PTR __$EHRec$[ebp]
  00062	64 89 0d 00 00
	00 00		 mov	 DWORD PTR fs:0, ecx
  00069	59		 pop	 ecx
  0006a	5f		 pop	 edi
  0006b	5e		 pop	 esi
  0006c	5b		 pop	 ebx
  0006d	8b e5		 mov	 esp, ebp
  0006f	5d		 pop	 ebp
  00070	c2 04 00	 ret	 4
$LN2@vector:
  00073	8d 8e ec 20 00
	00		 lea	 ecx, DWORD PTR [esi+8428]
  00079	e8 00 00 00 00	 call	 ??1TMonsterAIAgro@@UAE@XZ ; TMonsterAIAgro::~TMonsterAIAgro
  0007e	8d 8e 0c 16 00
	00		 lea	 ecx, DWORD PTR [esi+5644]
  00084	e8 00 00 00 00	 call	 ??1CSkillDelay@@UAE@XZ	; CSkillDelay::~CSkillDelay
  00089	f6 c3 01	 test	 bl, 1
  0008c	74 0e		 je	 SHORT $LN4@vector
  0008e	68 40 27 00 00	 push	 10048			; 00002740H
  00093	56		 push	 esi
  00094	e8 00 00 00 00	 call	 ??3@YAXPAXI@Z		; operator delete
  00099	83 c4 08	 add	 esp, 8
$LN4@vector:
  0009c	8b c6		 mov	 eax, esi
  0009e	8b 4d f4	 mov	 ecx, DWORD PTR __$EHRec$[ebp]
  000a1	64 89 0d 00 00
	00 00		 mov	 DWORD PTR fs:0, ecx
  000a8	59		 pop	 ecx
  000a9	5f		 pop	 edi
  000aa	5e		 pop	 esi
  000ab	5b		 pop	 ebx
  000ac	8b e5		 mov	 esp, ebp
  000ae	5d		 pop	 ebp
  000af	c2 04 00	 ret	 4
_TEXT	ENDS
;	COMDAT text$x
text$x	SEGMENT
__ehhandler$??_EOBJECTSTRUCT@@QAEPAXI@Z:
  00000	8b 54 24 08	 mov	 edx, DWORD PTR [esp+8]
  00004	8d 42 0c	 lea	 eax, DWORD PTR [edx+12]
  00007	8b 4a f0	 mov	 ecx, DWORD PTR [edx-16]
  0000a	33 c8		 xor	 ecx, eax
  0000c	e8 00 00 00 00	 call	 @__security_check_cookie@4
  00011	b8 00 00 00 00	 mov	 eax, OFFSET __ehfuncinfo$??_EOBJECTSTRUCT@@QAEPAXI@Z
  00016	e9 00 00 00 00	 jmp	 ___CxxFrameHandler3
text$x	ENDS
??_EOBJECTSTRUCT@@QAEPAXI@Z ENDP			; OBJECTSTRUCT::`vector deleting destructor'
; Function compile flags: /Ogtp
;	COMDAT ??1OBJECTSTRUCT@@QAE@XZ
_TEXT	SEGMENT
??1OBJECTSTRUCT@@QAE@XZ PROC				; OBJECTSTRUCT::~OBJECTSTRUCT, COMDAT
; _this$ = ecx
  00000	56		 push	 esi
  00001	8b f1		 mov	 esi, ecx
  00003	8d 8e ec 20 00
	00		 lea	 ecx, DWORD PTR [esi+8428]
  00009	e8 00 00 00 00	 call	 ??1TMonsterAIAgro@@UAE@XZ ; TMonsterAIAgro::~TMonsterAIAgro
  0000e	8d 8e 0c 16 00
	00		 lea	 ecx, DWORD PTR [esi+5644]
  00014	5e		 pop	 esi
  00015	e9 00 00 00 00	 jmp	 ??1CSkillDelay@@UAE@XZ	; CSkillDelay::~CSkillDelay
??1OBJECTSTRUCT@@QAE@XZ ENDP				; OBJECTSTRUCT::~OBJECTSTRUCT
_TEXT	ENDS
; Function compile flags: /Ogtp
; File c:\program files (x86)\windows kits\10\include\10.0.10240.0\ucrt\time.h
;	COMDAT _time
_TEXT	SEGMENT
__Time$ = 8						; size = 4
_time	PROC						; COMDAT

; 534  :         {

  00000	55		 push	 ebp
  00001	8b ec		 mov	 ebp, esp

; 536  :         }

  00003	5d		 pop	 ebp

; 535  :             return _time64(_Time);

  00004	e9 00 00 00 00	 jmp	 __time64
_time	ENDP
_TEXT	ENDS
; Function compile flags: /Ogtp
; File c:\program files (x86)\windows kits\10\include\10.0.10240.0\ucrt\time.h
;	COMDAT _localtime
_TEXT	SEGMENT
__Time$ = 8						; size = 4
_localtime PROC						; COMDAT

; 508  :         {

  00000	55		 push	 ebp
  00001	8b ec		 mov	 ebp, esp

; 512  :             #pragma warning(pop)
; 513  :         }

  00003	5d		 pop	 ebp

; 509  :             #pragma warning(push)
; 510  :             #pragma warning(disable: 4996)
; 511  :             return _localtime64(_Time);

  00004	e9 00 00 00 00	 jmp	 __localtime64
_localtime ENDP
_TEXT	ENDS
; Function compile flags: /Ogtp
; File c:\users\michel\desktop\source\gameserver\source\kanturu.cpp
;	COMDAT ?__empty_global_delete@@YAXPAXI@Z
_TEXT	SEGMENT
___formal$ = 8						; size = 4
___formal$ = 12						; size = 4
?__empty_global_delete@@YAXPAXI@Z PROC			; __empty_global_delete, COMDAT

  00000	c3		 ret	 0
?__empty_global_delete@@YAXPAXI@Z ENDP			; __empty_global_delete
_TEXT	ENDS
; Function compile flags: /Ogtp
; File c:\users\michel\desktop\source\gameserver\source\kanturu.cpp
;	COMDAT ?__empty_global_delete@@YAXPAX@Z
_TEXT	SEGMENT
___formal$ = 8						; size = 4
?__empty_global_delete@@YAXPAX@Z PROC			; __empty_global_delete, COMDAT

; 746  : }

  00000	c3		 ret	 0
?__empty_global_delete@@YAXPAX@Z ENDP			; __empty_global_delete
_TEXT	ENDS
END
