; Listing generated by Microsoft (R) Optimizing Compiler Version 19.00.23506.0 

	TITLE	C:\Users\Michel\Desktop\Source\GameServer\Source\KanturuEntranceNPC.cpp
	.686P
	.XMM
	include listing.inc
	.model	flat

INCLUDELIB LIBCMT
INCLUDELIB OLDNAMES

PUBLIC	?__empty_global_delete@@YAXPAX@Z		; __empty_global_delete
PUBLIC	?__empty_global_delete@@YAXPAXI@Z		; __empty_global_delete
PUBLIC	??0CKanturuEntranceNPC@@QAE@XZ			; CKanturuEntranceNPC::CKanturuEntranceNPC
PUBLIC	??1CKanturuEntranceNPC@@UAE@XZ			; CKanturuEntranceNPC::~CKanturuEntranceNPC
PUBLIC	?NotifyEntranceInfo@CKanturuEntranceNPC@@QAEXH@Z ; CKanturuEntranceNPC::NotifyEntranceInfo
PUBLIC	?NotifyResultEnterKanturuBossMap@CKanturuEntranceNPC@@QAEXH@Z ; CKanturuEntranceNPC::NotifyResultEnterKanturuBossMap
PUBLIC	??_GCKanturuEntranceNPC@@UAEPAXI@Z		; CKanturuEntranceNPC::`scalar deleting destructor'
PUBLIC	??1OBJECTSTRUCT@@QAE@XZ				; OBJECTSTRUCT::~OBJECTSTRUCT
PUBLIC	??_EOBJECTSTRUCT@@QAEPAXI@Z			; OBJECTSTRUCT::`vector deleting destructor'
PUBLIC	??_7CKanturuEntranceNPC@@6B@			; CKanturuEntranceNPC::`vftable'
PUBLIC	?g_KanturuEntranceNPC@@3VCKanturuEntranceNPC@@A	; g_KanturuEntranceNPC
PUBLIC	??_C@_0MK@ODKKBILD@?$FL?5KANTURU?5?$FN?$FL?5Battle?5User?5?$FN?5Add?5U@ ; `string'
PUBLIC	??_C@_0DP@OECGBDJN@?$FL?5KANTURU?5?$FN?$FL?5BossMapMove?5?$FN?5Error@ ; `string'
PUBLIC	??_C@_0DP@FPALCGEM@?$FL?5KANTURU?5?$FN?$FL?5BossMapMove?5?$FN?5Fail?5@ ; `string'
PUBLIC	??_R4CKanturuEntranceNPC@@6B@			; CKanturuEntranceNPC::`RTTI Complete Object Locator'
PUBLIC	??_R0?AVCKanturuEntranceNPC@@@8			; CKanturuEntranceNPC `RTTI Type Descriptor'
PUBLIC	??_R3CKanturuEntranceNPC@@8			; CKanturuEntranceNPC::`RTTI Class Hierarchy Descriptor'
PUBLIC	??_R2CKanturuEntranceNPC@@8			; CKanturuEntranceNPC::`RTTI Base Class Array'
PUBLIC	??_R1A@?0A@EA@CKanturuEntranceNPC@@8		; CKanturuEntranceNPC::`RTTI Base Class Descriptor at (0,-1,0,64)'
EXTRN	??_M@YGXPAXIIP6EX0@Z@Z:PROC			; `eh vector destructor iterator'
EXTRN	??3@YAXPAXI@Z:PROC				; operator delete
EXTRN	??_V@YAXPAXI@Z:PROC				; operator delete[]
EXTRN	_atexit:PROC
EXTRN	??_ECKanturuEntranceNPC@@UAEPAXI@Z:PROC		; CKanturuEntranceNPC::`vector deleting destructor'
EXTRN	??1CSkillDelay@@UAE@XZ:PROC			; CSkillDelay::~CSkillDelay
EXTRN	??1TMonsterAIAgro@@UAE@XZ:PROC			; TMonsterAIAgro::~TMonsterAIAgro
EXTRN	?gObjIsConnected@@YAHH@Z:PROC			; gObjIsConnected
EXTRN	?gObjMoveGate@@YAHHH@Z:PROC			; gObjMoveGate
EXTRN	?GetKanturuDetailState@CKanturu@@QAEHXZ:PROC	; CKanturu::GetKanturuDetailState
EXTRN	?GetRemainTime@CKanturu@@QAEHXZ:PROC		; CKanturu::GetRemainTime
EXTRN	?CheckEnterKanturu@CKanturu@@QAEHH@Z:PROC	; CKanturu::CheckEnterKanturu
EXTRN	?CheckCanEnterKanturuBattle@CKanturu@@QAEHXZ:PROC ; CKanturu::CheckCanEnterKanturuBattle
EXTRN	?AddUserData@CKanturuBattleUserMng@@QAEHH@Z:PROC ; CKanturuBattleUserMng::AddUserData
EXTRN	?GetUserCount@CKanturuBattleUserMng@@QAEHXZ:PROC ; CKanturuBattleUserMng::GetUserCount
EXTRN	??0CKanturuUtil@@QAE@XZ:PROC			; CKanturuUtil::CKanturuUtil
EXTRN	??1CKanturuUtil@@UAE@XZ:PROC			; CKanturuUtil::~CKanturuUtil
EXTRN	?NotifyKanturuEntranceReqResult@CKanturuUtil@@QAEXHH@Z:PROC ; CKanturuUtil::NotifyKanturuEntranceReqResult
EXTRN	?NotifyKanturuCurrentState@CKanturuUtil@@QAEXHHH@Z:PROC ; CKanturuUtil::NotifyKanturuCurrentState
EXTRN	?SendDataToUser@CKanturuUtil@@QAEXHPAEH@Z:PROC	; CKanturuUtil::SendDataToUser
EXTRN	?PHeadSubSetB@@YAXPAEEEH@Z:PROC			; PHeadSubSetB
EXTRN	@__security_check_cookie@4:PROC
EXTRN	___CxxFrameHandler3:PROC
EXTRN	??_7type_info@@6B@:QWORD			; type_info::`vftable'
EXTRN	?LogAddTD@@3P6AXPADZZA:DWORD			; LogAddTD
EXTRN	?gObj@@3PAUOBJECTSTRUCT@@A:DWORD		; gObj
EXTRN	?g_Kanturu@@3VCKanturu@@A:BYTE			; g_Kanturu
EXTRN	?g_KanturuBattleUserMng@@3VCKanturuBattleUserMng@@A:BYTE ; g_KanturuBattleUserMng
EXTRN	___security_cookie:DWORD
_BSS	SEGMENT
?g_KanturuEntranceNPC@@3VCKanturuEntranceNPC@@A DD 01H DUP (?) ; g_KanturuEntranceNPC
?KANTURU_UTIL@@3VCKanturuUtil@@A DD 01H DUP (?)		; KANTURU_UTIL
_BSS	ENDS
CRT$XCU	SEGMENT
?KANTURU_UTIL$initializer$@@3P6AXXZA DD FLAT:??__EKANTURU_UTIL@@YAXXZ ; KANTURU_UTIL$initializer$
CRT$XCU	ENDS
;	COMDAT ??_R1A@?0A@EA@CKanturuEntranceNPC@@8
rdata$r	SEGMENT
??_R1A@?0A@EA@CKanturuEntranceNPC@@8 DD FLAT:??_R0?AVCKanturuEntranceNPC@@@8 ; CKanturuEntranceNPC::`RTTI Base Class Descriptor at (0,-1,0,64)'
	DD	00H
	DD	00H
	DD	0ffffffffH
	DD	00H
	DD	040H
	DD	FLAT:??_R3CKanturuEntranceNPC@@8
rdata$r	ENDS
;	COMDAT ??_R2CKanturuEntranceNPC@@8
rdata$r	SEGMENT
??_R2CKanturuEntranceNPC@@8 DD FLAT:??_R1A@?0A@EA@CKanturuEntranceNPC@@8 ; CKanturuEntranceNPC::`RTTI Base Class Array'
rdata$r	ENDS
;	COMDAT ??_R3CKanturuEntranceNPC@@8
rdata$r	SEGMENT
??_R3CKanturuEntranceNPC@@8 DD 00H			; CKanturuEntranceNPC::`RTTI Class Hierarchy Descriptor'
	DD	00H
	DD	01H
	DD	FLAT:??_R2CKanturuEntranceNPC@@8
rdata$r	ENDS
;	COMDAT ??_R0?AVCKanturuEntranceNPC@@@8
data$r	SEGMENT
??_R0?AVCKanturuEntranceNPC@@@8 DD FLAT:??_7type_info@@6B@ ; CKanturuEntranceNPC `RTTI Type Descriptor'
	DD	00H
	DB	'.?AVCKanturuEntranceNPC@@', 00H
data$r	ENDS
;	COMDAT ??_R4CKanturuEntranceNPC@@6B@
rdata$r	SEGMENT
??_R4CKanturuEntranceNPC@@6B@ DD 00H			; CKanturuEntranceNPC::`RTTI Complete Object Locator'
	DD	00H
	DD	00H
	DD	FLAT:??_R0?AVCKanturuEntranceNPC@@@8
	DD	FLAT:??_R3CKanturuEntranceNPC@@8
rdata$r	ENDS
;	COMDAT ??_C@_0DP@FPALCGEM@?$FL?5KANTURU?5?$FN?$FL?5BossMapMove?5?$FN?5Fail?5@
CONST	SEGMENT
??_C@_0DP@FPALCGEM@?$FL?5KANTURU?5?$FN?$FL?5BossMapMove?5?$FN?5Fail?5@ DB '['
	DB	' KANTURU ][ BossMapMove ] Fail - Result(%d) Character[%s][%s]'
	DB	00H						; `string'
CONST	ENDS
;	COMDAT ??_C@_0DP@OECGBDJN@?$FL?5KANTURU?5?$FN?$FL?5BossMapMove?5?$FN?5Error@
CONST	SEGMENT
??_C@_0DP@OECGBDJN@?$FL?5KANTURU?5?$FN?$FL?5BossMapMove?5?$FN?5Error@ DB '['
	DB	' KANTURU ][ BossMapMove ] Error - State(%d) Character[%s][%s]'
	DB	00H						; `string'
CONST	ENDS
;	COMDAT ??_C@_0MK@ODKKBILD@?$FL?5KANTURU?5?$FN?$FL?5Battle?5User?5?$FN?5Add?5U@
CONST	SEGMENT
??_C@_0MK@ODKKBILD@?$FL?5KANTURU?5?$FN?$FL?5Battle?5User?5?$FN?5Add?5U@ DB '['
	DB	' KANTURU ][ Battle User ] Add User [%s][%s] Current Battle Us'
	DB	'er:%d State:[%d-%d] (CharInfoSave : Class=%d, Level=%d, LvPoi'
	DB	'nt=%d, Exp=%u, Str=%d, Dex=%d, Vit=%d, Energy=%d, LeaderShip='
	DB	'%d, Map=%d, Pk=%d', 00H			; `string'
CONST	ENDS
;	COMDAT ??_7CKanturuEntranceNPC@@6B@
CONST	SEGMENT
??_7CKanturuEntranceNPC@@6B@ DD FLAT:??_R4CKanturuEntranceNPC@@6B@ ; CKanturuEntranceNPC::`vftable'
	DD	FLAT:??_ECKanturuEntranceNPC@@UAEPAXI@Z
CONST	ENDS
;	COMDAT xdata$x
xdata$x	SEGMENT
__ehfuncinfo$??_EOBJECTSTRUCT@@QAEPAXI@Z DD 019930522H
	DD	00H
	DD	00H
	DD	2 DUP(00H)
	DD	2 DUP(00H)
	DD	00H
	DD	05H
xdata$x	ENDS
CRT$XCU	SEGMENT
?g_KanturuEntranceNPC$initializer$@@3P6AXXZA DD FLAT:??__Eg_KanturuEntranceNPC@@YAXXZ ; g_KanturuEntranceNPC$initializer$
CRT$XCU	ENDS
; Function compile flags: /Ogtp
;	COMDAT ??__Fg_KanturuEntranceNPC@@YAXXZ
text$yd	SEGMENT
??__Fg_KanturuEntranceNPC@@YAXXZ PROC			; `dynamic atexit destructor for 'g_KanturuEntranceNPC'', COMDAT
  00000	b9 00 00 00 00	 mov	 ecx, OFFSET ?g_KanturuEntranceNPC@@3VCKanturuEntranceNPC@@A ; g_KanturuEntranceNPC
  00005	e9 00 00 00 00	 jmp	 ??1CKanturuEntranceNPC@@UAE@XZ ; CKanturuEntranceNPC::~CKanturuEntranceNPC
??__Fg_KanturuEntranceNPC@@YAXXZ ENDP			; `dynamic atexit destructor for 'g_KanturuEntranceNPC''
text$yd	ENDS
; Function compile flags: /Ogtp
; File c:\users\michel\desktop\source\gameserver\source\kanturuentrancenpc.cpp
;	COMDAT ??__Eg_KanturuEntranceNPC@@YAXXZ
text$di	SEGMENT
??__Eg_KanturuEntranceNPC@@YAXXZ PROC			; `dynamic initializer for 'g_KanturuEntranceNPC'', COMDAT

; 18   : CKanturuEntranceNPC g_KanturuEntranceNPC;

  00000	b9 00 00 00 00	 mov	 ecx, OFFSET ?g_KanturuEntranceNPC@@3VCKanturuEntranceNPC@@A ; g_KanturuEntranceNPC
  00005	e8 00 00 00 00	 call	 ??0CKanturuEntranceNPC@@QAE@XZ ; CKanturuEntranceNPC::CKanturuEntranceNPC
  0000a	68 00 00 00 00	 push	 OFFSET ??__Fg_KanturuEntranceNPC@@YAXXZ ; `dynamic atexit destructor for 'g_KanturuEntranceNPC''
  0000f	e8 00 00 00 00	 call	 _atexit
  00014	59		 pop	 ecx
  00015	c3		 ret	 0
??__Eg_KanturuEntranceNPC@@YAXXZ ENDP			; `dynamic initializer for 'g_KanturuEntranceNPC''
text$di	ENDS
; Function compile flags: /Ogtp
;	COMDAT ??__FKANTURU_UTIL@@YAXXZ
text$yd	SEGMENT
??__FKANTURU_UTIL@@YAXXZ PROC				; `dynamic atexit destructor for 'KANTURU_UTIL'', COMDAT
  00000	b9 00 00 00 00	 mov	 ecx, OFFSET ?KANTURU_UTIL@@3VCKanturuUtil@@A
  00005	e9 00 00 00 00	 jmp	 ??1CKanturuUtil@@UAE@XZ	; CKanturuUtil::~CKanturuUtil
??__FKANTURU_UTIL@@YAXXZ ENDP				; `dynamic atexit destructor for 'KANTURU_UTIL''
text$yd	ENDS
; Function compile flags: /Ogtp
; File c:\users\michel\desktop\source\gameserver\source\kanturuentrancenpc.cpp
;	COMDAT ??__EKANTURU_UTIL@@YAXXZ
text$di	SEGMENT
??__EKANTURU_UTIL@@YAXXZ PROC				; `dynamic initializer for 'KANTURU_UTIL'', COMDAT

; 16   : static CKanturuUtil KANTURU_UTIL;

  00000	b9 00 00 00 00	 mov	 ecx, OFFSET ?KANTURU_UTIL@@3VCKanturuUtil@@A
  00005	e8 00 00 00 00	 call	 ??0CKanturuUtil@@QAE@XZ	; CKanturuUtil::CKanturuUtil
  0000a	68 00 00 00 00	 push	 OFFSET ??__FKANTURU_UTIL@@YAXXZ ; `dynamic atexit destructor for 'KANTURU_UTIL''
  0000f	e8 00 00 00 00	 call	 _atexit
  00014	59		 pop	 ecx
  00015	c3		 ret	 0
??__EKANTURU_UTIL@@YAXXZ ENDP				; `dynamic initializer for 'KANTURU_UTIL''
text$di	ENDS
; Function compile flags: /Ogtp
; File c:\users\michel\desktop\source\gameserver\source\kanturu.h
;	COMDAT ?GetKanturuState@CKanturu@@QAEHXZ
_TEXT	SEGMENT
?GetKanturuState@CKanturu@@QAEHXZ PROC			; CKanturu::GetKanturuState, COMDAT
; _this$ = ecx

; 71   : 	int GetKanturuState(){return this->m_iKanturuState;}

  00000	8b 41 08	 mov	 eax, DWORD PTR [ecx+8]
  00003	c3		 ret	 0
?GetKanturuState@CKanturu@@QAEHXZ ENDP			; CKanturu::GetKanturuState
_TEXT	ENDS
; Function compile flags: /Ogtp
;	COMDAT ??_EOBJECTSTRUCT@@QAEPAXI@Z
_TEXT	SEGMENT
__$EHRec$ = -12						; size = 12
___flags$ = 8						; size = 4
??_EOBJECTSTRUCT@@QAEPAXI@Z PROC			; OBJECTSTRUCT::`vector deleting destructor', COMDAT
; _this$ = ecx
  00000	55		 push	 ebp
  00001	8b ec		 mov	 ebp, esp
  00003	6a ff		 push	 -1
  00005	68 00 00 00 00	 push	 __ehhandler$??_EOBJECTSTRUCT@@QAEPAXI@Z
  0000a	64 a1 00 00 00
	00		 mov	 eax, DWORD PTR fs:0
  00010	50		 push	 eax
  00011	53		 push	 ebx
  00012	56		 push	 esi
  00013	57		 push	 edi
  00014	a1 00 00 00 00	 mov	 eax, DWORD PTR ___security_cookie
  00019	33 c5		 xor	 eax, ebp
  0001b	50		 push	 eax
  0001c	8d 45 f4	 lea	 eax, DWORD PTR __$EHRec$[ebp]
  0001f	64 a3 00 00 00
	00		 mov	 DWORD PTR fs:0, eax
  00025	8b f1		 mov	 esi, ecx
  00027	8b 5d 08	 mov	 ebx, DWORD PTR ___flags$[ebp]
  0002a	f6 c3 02	 test	 bl, 2
  0002d	74 44		 je	 SHORT $LN2@vector
  0002f	68 00 00 00 00	 push	 OFFSET ??1OBJECTSTRUCT@@QAE@XZ
  00034	ff 76 fc	 push	 DWORD PTR [esi-4]
  00037	8d 7e fc	 lea	 edi, DWORD PTR [esi-4]
  0003a	68 40 27 00 00	 push	 10048			; 00002740H
  0003f	56		 push	 esi
  00040	e8 00 00 00 00	 call	 ??_M@YGXPAXIIP6EX0@Z@Z
  00045	f6 c3 01	 test	 bl, 1
  00048	74 13		 je	 SHORT $LN3@vector
  0004a	69 0f 40 27 00
	00		 imul	 ecx, DWORD PTR [edi], 10048
  00050	83 c1 04	 add	 ecx, 4
  00053	51		 push	 ecx
  00054	57		 push	 edi
  00055	e8 00 00 00 00	 call	 ??_V@YAXPAXI@Z		; operator delete[]
  0005a	83 c4 08	 add	 esp, 8
$LN3@vector:
  0005d	8b c7		 mov	 eax, edi
  0005f	8b 4d f4	 mov	 ecx, DWORD PTR __$EHRec$[ebp]
  00062	64 89 0d 00 00
	00 00		 mov	 DWORD PTR fs:0, ecx
  00069	59		 pop	 ecx
  0006a	5f		 pop	 edi
  0006b	5e		 pop	 esi
  0006c	5b		 pop	 ebx
  0006d	8b e5		 mov	 esp, ebp
  0006f	5d		 pop	 ebp
  00070	c2 04 00	 ret	 4
$LN2@vector:
  00073	8d 8e ec 20 00
	00		 lea	 ecx, DWORD PTR [esi+8428]
  00079	e8 00 00 00 00	 call	 ??1TMonsterAIAgro@@UAE@XZ ; TMonsterAIAgro::~TMonsterAIAgro
  0007e	8d 8e 0c 16 00
	00		 lea	 ecx, DWORD PTR [esi+5644]
  00084	e8 00 00 00 00	 call	 ??1CSkillDelay@@UAE@XZ	; CSkillDelay::~CSkillDelay
  00089	f6 c3 01	 test	 bl, 1
  0008c	74 0e		 je	 SHORT $LN4@vector
  0008e	68 40 27 00 00	 push	 10048			; 00002740H
  00093	56		 push	 esi
  00094	e8 00 00 00 00	 call	 ??3@YAXPAXI@Z		; operator delete
  00099	83 c4 08	 add	 esp, 8
$LN4@vector:
  0009c	8b c6		 mov	 eax, esi
  0009e	8b 4d f4	 mov	 ecx, DWORD PTR __$EHRec$[ebp]
  000a1	64 89 0d 00 00
	00 00		 mov	 DWORD PTR fs:0, ecx
  000a8	59		 pop	 ecx
  000a9	5f		 pop	 edi
  000aa	5e		 pop	 esi
  000ab	5b		 pop	 ebx
  000ac	8b e5		 mov	 esp, ebp
  000ae	5d		 pop	 ebp
  000af	c2 04 00	 ret	 4
_TEXT	ENDS
;	COMDAT text$x
text$x	SEGMENT
__ehhandler$??_EOBJECTSTRUCT@@QAEPAXI@Z:
  00000	8b 54 24 08	 mov	 edx, DWORD PTR [esp+8]
  00004	8d 42 0c	 lea	 eax, DWORD PTR [edx+12]
  00007	8b 4a f0	 mov	 ecx, DWORD PTR [edx-16]
  0000a	33 c8		 xor	 ecx, eax
  0000c	e8 00 00 00 00	 call	 @__security_check_cookie@4
  00011	b8 00 00 00 00	 mov	 eax, OFFSET __ehfuncinfo$??_EOBJECTSTRUCT@@QAEPAXI@Z
  00016	e9 00 00 00 00	 jmp	 ___CxxFrameHandler3
text$x	ENDS
??_EOBJECTSTRUCT@@QAEPAXI@Z ENDP			; OBJECTSTRUCT::`vector deleting destructor'
; Function compile flags: /Ogtp
;	COMDAT ??1OBJECTSTRUCT@@QAE@XZ
_TEXT	SEGMENT
??1OBJECTSTRUCT@@QAE@XZ PROC				; OBJECTSTRUCT::~OBJECTSTRUCT, COMDAT
; _this$ = ecx
  00000	56		 push	 esi
  00001	8b f1		 mov	 esi, ecx
  00003	8d 8e ec 20 00
	00		 lea	 ecx, DWORD PTR [esi+8428]
  00009	e8 00 00 00 00	 call	 ??1TMonsterAIAgro@@UAE@XZ ; TMonsterAIAgro::~TMonsterAIAgro
  0000e	8d 8e 0c 16 00
	00		 lea	 ecx, DWORD PTR [esi+5644]
  00014	5e		 pop	 esi
  00015	e9 00 00 00 00	 jmp	 ??1CSkillDelay@@UAE@XZ	; CSkillDelay::~CSkillDelay
??1OBJECTSTRUCT@@QAE@XZ ENDP				; OBJECTSTRUCT::~OBJECTSTRUCT
_TEXT	ENDS
; Function compile flags: /Ogtp
;	COMDAT ??_GCKanturuEntranceNPC@@UAEPAXI@Z
_TEXT	SEGMENT
___flags$ = 8						; size = 4
??_GCKanturuEntranceNPC@@UAEPAXI@Z PROC			; CKanturuEntranceNPC::`scalar deleting destructor', COMDAT
; _this$ = ecx
  00000	55		 push	 ebp
  00001	8b ec		 mov	 ebp, esp
  00003	56		 push	 esi
  00004	8b f1		 mov	 esi, ecx
  00006	e8 00 00 00 00	 call	 ??1CKanturuEntranceNPC@@UAE@XZ ; CKanturuEntranceNPC::~CKanturuEntranceNPC
  0000b	f6 45 08 01	 test	 BYTE PTR ___flags$[ebp], 1
  0000f	74 0b		 je	 SHORT $LN4@scalar
  00011	6a 04		 push	 4
  00013	56		 push	 esi
  00014	e8 00 00 00 00	 call	 ??3@YAXPAXI@Z		; operator delete
  00019	83 c4 08	 add	 esp, 8
$LN4@scalar:
  0001c	8b c6		 mov	 eax, esi
  0001e	5e		 pop	 esi
  0001f	5d		 pop	 ebp
  00020	c2 04 00	 ret	 4
??_GCKanturuEntranceNPC@@UAEPAXI@Z ENDP			; CKanturuEntranceNPC::`scalar deleting destructor'
_TEXT	ENDS
; Function compile flags: /Ogtp
; File c:\users\michel\desktop\source\gameserver\source\kanturuentrancenpc.cpp
; File c:\users\michel\desktop\source\gameserver\source\kanturu.h
; File c:\users\michel\desktop\source\gameserver\source\kanturuentrancenpc.cpp
; File c:\users\michel\desktop\source\gameserver\source\kanturu.h
; File c:\users\michel\desktop\source\gameserver\source\kanturuentrancenpc.cpp
; File c:\users\michel\desktop\source\gameserver\source\kanturu.h
; File c:\users\michel\desktop\source\gameserver\source\kanturuentrancenpc.cpp
; File c:\users\michel\desktop\source\gameserver\source\kanturu.h
; File c:\users\michel\desktop\source\gameserver\source\kanturuentrancenpc.cpp
;	COMDAT ?NotifyResultEnterKanturuBossMap@CKanturuEntranceNPC@@QAEXH@Z
_TEXT	SEGMENT
tv290 = -4						; size = 4
_iResult$1$ = -4					; size = 4
tv328 = 8						; size = 4
_iIndex$ = 8						; size = 4
?NotifyResultEnterKanturuBossMap@CKanturuEntranceNPC@@QAEXH@Z PROC ; CKanturuEntranceNPC::NotifyResultEnterKanturuBossMap, COMDAT
; _this$ = ecx

; 65   : {

  00000	55		 push	 ebp
  00001	8b ec		 mov	 ebp, esp
  00003	51		 push	 ecx
  00004	53		 push	 ebx

; 66   : 	if ( !gObjIsConnected(iIndex))

  00005	8b 5d 08	 mov	 ebx, DWORD PTR _iIndex$[ebp]
  00008	53		 push	 ebx
  00009	e8 00 00 00 00	 call	 ?gObjIsConnected@@YAHH@Z ; gObjIsConnected
  0000e	83 c4 04	 add	 esp, 4
  00011	85 c0		 test	 eax, eax
  00013	0f 84 c2 01 00
	00		 je	 $LN4@NotifyResu

; 67   : 	{
; 68   : 		return;
; 69   : 	}
; 70   : 
; 71   : 	LPOBJ lpObj = &gObj[iIndex];

  00019	56		 push	 esi
  0001a	8b 35 00 00 00
	00		 mov	 esi, DWORD PTR ?gObj@@3PAUOBJECTSTRUCT@@A ; gObj

; 72   : 	BOOL bMoveGateSuccess = FALSE;
; 73   : 	int iResult = g_Kanturu.CheckEnterKanturu(iIndex);

  00020	b9 00 00 00 00	 mov	 ecx, OFFSET ?g_Kanturu@@3VCKanturu@@A ; g_Kanturu
  00025	57		 push	 edi
  00026	69 fb 40 27 00
	00		 imul	 edi, ebx, 10048
  0002c	53		 push	 ebx
  0002d	89 7d 08	 mov	 DWORD PTR tv328[ebp], edi
  00030	03 f7		 add	 esi, edi
  00032	e8 00 00 00 00	 call	 ?CheckEnterKanturu@CKanturu@@QAEHH@Z ; CKanturu::CheckEnterKanturu
  00037	89 45 fc	 mov	 DWORD PTR _iResult$1$[ebp], eax

; 74   : 
; 75   : 	if ( iResult == 0 )

  0003a	85 c0		 test	 eax, eax
  0003c	0f 85 62 01 00
	00		 jne	 $LN3@NotifyResu
; File c:\users\michel\desktop\source\gameserver\source\kanturu.h

; 71   : 	int GetKanturuState(){return this->m_iKanturuState;}

  00042	8b 0d 08 00 00
	00		 mov	 ecx, DWORD PTR ?g_Kanturu@@3VCKanturu@@A+8
; File c:\users\michel\desktop\source\gameserver\source\kanturuentrancenpc.cpp

; 79   : 		if ( iCurrentState == KANTURU_STATE_BATTLE_OF_MAYA )

  00048	83 f9 02	 cmp	 ecx, 2
  0004b	0f 85 ea 00 00
	00		 jne	 $LN5@NotifyResu

; 80   : 		{
; 81   : 			bMoveGateSuccess = gObjMoveGate(iIndex, 133);

  00051	68 85 00 00 00	 push	 133			; 00000085H
  00056	53		 push	 ebx
  00057	e8 00 00 00 00	 call	 ?gObjMoveGate@@YAHHH@Z	; gObjMoveGate
  0005c	83 c4 08	 add	 esp, 8

; 82   : 
; 83   : 			if ( bMoveGateSuccess ==TRUE )

  0005f	83 f8 01	 cmp	 eax, 1
  00062	0f 85 71 01 00
	00		 jne	 $LN19@NotifyResu

; 84   : 			{
; 85   : 				g_KanturuBattleUserMng.AddUserData(iIndex);

  00068	53		 push	 ebx
  00069	b9 00 00 00 00	 mov	 ecx, OFFSET ?g_KanturuBattleUserMng@@3VCKanturuBattleUserMng@@A ; g_KanturuBattleUserMng
  0006e	e8 00 00 00 00	 call	 ?AddUserData@CKanturuBattleUserMng@@QAEHH@Z ; CKanturuBattleUserMng::AddUserData

; 87   : 				LogAddTD("[ KANTURU ][ Battle User ] Add User [%s][%s] Current Battle User:%d State:[%d-%d] (CharInfoSave : Class=%d, Level=%d, LvPoint=%d, Exp=%u, Str=%d, Dex=%d, Vit=%d, Energy=%d, LeaderShip=%d, Map=%d, Pk=%d",

  00073	8b 0d 00 00 00
	00		 mov	 ecx, DWORD PTR ?gObj@@3PAUOBJECTSTRUCT@@A ; gObj
  00079	03 f9		 add	 edi, ecx
; File c:\users\michel\desktop\source\gameserver\source\kanturu.h

; 71   : 	int GetKanturuState(){return this->m_iKanturuState;}

  0007b	8b 35 08 00 00
	00		 mov	 esi, DWORD PTR ?g_Kanturu@@3VCKanturu@@A+8
; File c:\users\michel\desktop\source\gameserver\source\kanturuentrancenpc.cpp

; 87   : 				LogAddTD("[ KANTURU ][ Battle User ] Add User [%s][%s] Current Battle User:%d State:[%d-%d] (CharInfoSave : Class=%d, Level=%d, LvPoint=%d, Exp=%u, Str=%d, Dex=%d, Vit=%d, Energy=%d, LeaderShip=%d, Map=%d, Pk=%d",

  00081	b9 00 00 00 00	 mov	 ecx, OFFSET ?g_Kanturu@@3VCKanturu@@A ; g_Kanturu
  00086	0f be 87 19 01
	00 00		 movsx	 eax, BYTE PTR [edi+281]
  0008d	50		 push	 eax
  0008e	0f b6 87 23 01
	00 00		 movzx	 eax, BYTE PTR [edi+291]
  00095	50		 push	 eax
  00096	0f b7 87 f4 00
	00 00		 movzx	 eax, WORD PTR [edi+244]
  0009d	50		 push	 eax
  0009e	0f b7 87 d6 00
	00 00		 movzx	 eax, WORD PTR [edi+214]
  000a5	50		 push	 eax
  000a6	0f b7 87 d4 00
	00 00		 movzx	 eax, WORD PTR [edi+212]
  000ad	50		 push	 eax
  000ae	0f b7 87 d2 00
	00 00		 movzx	 eax, WORD PTR [edi+210]
  000b5	50		 push	 eax
  000b6	0f b7 87 d0 00
	00 00		 movzx	 eax, WORD PTR [edi+208]
  000bd	50		 push	 eax
  000be	ff b7 a0 00 00
	00		 push	 DWORD PTR [edi+160]
  000c4	0f bf 87 96 00
	00 00		 movsx	 eax, WORD PTR [edi+150]
  000cb	ff b7 98 00 00
	00		 push	 DWORD PTR [edi+152]
  000d1	50		 push	 eax
  000d2	0f b7 87 90 00
	00 00		 movzx	 eax, WORD PTR [edi+144]
  000d9	50		 push	 eax
  000da	e8 00 00 00 00	 call	 ?GetKanturuDetailState@CKanturu@@QAEHXZ ; CKanturu::GetKanturuDetailState
  000df	50		 push	 eax
  000e0	56		 push	 esi
  000e1	b9 00 00 00 00	 mov	 ecx, OFFSET ?g_KanturuBattleUserMng@@3VCKanturuBattleUserMng@@A ; g_KanturuBattleUserMng
  000e6	e8 00 00 00 00	 call	 ?GetUserCount@CKanturuBattleUserMng@@QAEHXZ ; CKanturuBattleUserMng::GetUserCount
  000eb	50		 push	 eax
  000ec	8d 47 5d	 lea	 eax, DWORD PTR [edi+93]
  000ef	50		 push	 eax
  000f0	8d 47 52	 lea	 eax, DWORD PTR [edi+82]
  000f3	50		 push	 eax
  000f4	68 00 00 00 00	 push	 OFFSET ??_C@_0MK@ODKKBILD@?$FL?5KANTURU?5?$FN?$FL?5Battle?5User?5?$FN?5Add?5U@
  000f9	ff 15 00 00 00
	00		 call	 DWORD PTR ?LogAddTD@@3P6AXPADZZA ; LogAddTD
; File c:\users\michel\desktop\source\gameserver\source\kanturu.h

; 71   : 	int GetKanturuState(){return this->m_iKanturuState;}

  000ff	8b 35 08 00 00
	00		 mov	 esi, DWORD PTR ?g_Kanturu@@3VCKanturu@@A+8
; File c:\users\michel\desktop\source\gameserver\source\kanturuentrancenpc.cpp

; 87   : 				LogAddTD("[ KANTURU ][ Battle User ] Add User [%s][%s] Current Battle User:%d State:[%d-%d] (CharInfoSave : Class=%d, Level=%d, LvPoint=%d, Exp=%u, Str=%d, Dex=%d, Vit=%d, Energy=%d, LeaderShip=%d, Map=%d, Pk=%d",

  00105	83 c4 44	 add	 esp, 68			; 00000044H

; 88   : 					gObj[iIndex].AccountID, gObj[iIndex].Name,
; 89   : 					g_KanturuBattleUserMng.GetUserCount(), g_Kanturu.GetKanturuState(),
; 90   : 					g_Kanturu.GetKanturuDetailState(),
; 91   : 					gObj[iIndex].Class, gObj[iIndex].Level, gObj[iIndex].LevelUpPoint,
; 92   : 					gObj[iIndex].Experience, gObj[iIndex].Strength, gObj[iIndex].Dexterity,
; 93   : 					gObj[iIndex].Vitality, gObj[iIndex].Energy, gObj[iIndex].Leadership, 
; 94   : 					gObj[iIndex].MapNumber, gObj[iIndex].m_PK_Level);
; 95   : 
; 96   : 				KANTURU_UTIL.NotifyKanturuCurrentState(iIndex, 

  00108	b9 00 00 00 00	 mov	 ecx, OFFSET ?g_Kanturu@@3VCKanturu@@A ; g_Kanturu
  0010d	e8 00 00 00 00	 call	 ?GetKanturuDetailState@CKanturu@@QAEHXZ ; CKanturu::GetKanturuDetailState
  00112	50		 push	 eax
  00113	56		 push	 esi
  00114	53		 push	 ebx
  00115	b9 00 00 00 00	 mov	 ecx, OFFSET ?KANTURU_UTIL@@3VCKanturuUtil@@A
  0011a	e8 00 00 00 00	 call	 ?NotifyKanturuCurrentState@CKanturuUtil@@QAEXHHH@Z ; CKanturuUtil::NotifyKanturuCurrentState

; 97   : 					g_Kanturu.GetKanturuState(),g_Kanturu.GetKanturuDetailState());
; 98   : 
; 99   : #if (GS_CASTLE == 0 || GS_SPEC == 1)
; 100  : 				gObj[iIndex].m_bKanturuEntranceByNPC = TRUE;

  0011f	a1 00 00 00 00	 mov	 eax, DWORD PTR ?gObj@@3PAUOBJECTSTRUCT@@A ; gObj
  00124	8b 4d 08	 mov	 ecx, DWORD PTR tv328[ebp]
  00127	5f		 pop	 edi
  00128	5e		 pop	 esi
  00129	5b		 pop	 ebx
  0012a	c7 84 01 a0 25
	00 00 01 00 00
	00		 mov	 DWORD PTR [ecx+eax+9632], 1

; 130  : #endif
; 131  : 	}
; 132  : }

  00135	8b e5		 mov	 esp, ebp
  00137	5d		 pop	 ebp
  00138	c2 04 00	 ret	 4
$LN5@NotifyResu:

; 101  : #endif
; 102  : 			}
; 103  : 		}
; 104  : 		else if ( iCurrentState == KANTURU_STATE_TOWER_OF_REFINEMENT )

  0013b	83 f9 04	 cmp	 ecx, 4
  0013e	75 44		 jne	 SHORT $LN8@NotifyResu

; 106  : 			bMoveGateSuccess = gObjMoveGate(iIndex, 135);

  00140	68 87 00 00 00	 push	 135			; 00000087H
  00145	53		 push	 ebx
  00146	e8 00 00 00 00	 call	 ?gObjMoveGate@@YAHHH@Z	; gObjMoveGate
; File c:\users\michel\desktop\source\gameserver\source\kanturu.h

; 71   : 	int GetKanturuState(){return this->m_iKanturuState;}

  0014b	8b 35 08 00 00
	00		 mov	 esi, DWORD PTR ?g_Kanturu@@3VCKanturu@@A+8
; File c:\users\michel\desktop\source\gameserver\source\kanturuentrancenpc.cpp

; 106  : 			bMoveGateSuccess = gObjMoveGate(iIndex, 135);

  00151	83 c4 08	 add	 esp, 8

; 107  : 
; 108  : 			KANTURU_UTIL.NotifyKanturuCurrentState(iIndex, 

  00154	b9 00 00 00 00	 mov	 ecx, OFFSET ?g_Kanturu@@3VCKanturu@@A ; g_Kanturu
  00159	e8 00 00 00 00	 call	 ?GetKanturuDetailState@CKanturu@@QAEHXZ ; CKanturu::GetKanturuDetailState
  0015e	50		 push	 eax
  0015f	56		 push	 esi
  00160	53		 push	 ebx
  00161	b9 00 00 00 00	 mov	 ecx, OFFSET ?KANTURU_UTIL@@3VCKanturuUtil@@A
  00166	e8 00 00 00 00	 call	 ?NotifyKanturuCurrentState@CKanturuUtil@@QAEXHHH@Z ; CKanturuUtil::NotifyKanturuCurrentState

; 109  : 				g_Kanturu.GetKanturuState(),g_Kanturu.GetKanturuDetailState());
; 110  : 
; 111  : #if (GS_CASTLE == 0 || GS_SPEC == 1)
; 112  : 			gObj[iIndex].m_bKanturuEntranceByNPC = TRUE;

  0016b	a1 00 00 00 00	 mov	 eax, DWORD PTR ?gObj@@3PAUOBJECTSTRUCT@@A ; gObj
  00170	c7 84 07 a0 25
	00 00 01 00 00
	00		 mov	 DWORD PTR [edi+eax+9632], 1
  0017b	5f		 pop	 edi
  0017c	5e		 pop	 esi
  0017d	5b		 pop	 ebx

; 130  : #endif
; 131  : 	}
; 132  : }

  0017e	8b e5		 mov	 esp, ebp
  00180	5d		 pop	 ebp
  00181	c2 04 00	 ret	 4
$LN8@NotifyResu:

; 113  : #endif
; 114  : 		}
; 115  : 		else
; 116  : 		{
; 117  : 			LogAddTD("[ KANTURU ][ BossMapMove ] Error - State(%d) Character[%s][%s]",

  00184	8d 46 5d	 lea	 eax, DWORD PTR [esi+93]
  00187	50		 push	 eax
  00188	8d 46 52	 lea	 eax, DWORD PTR [esi+82]
  0018b	50		 push	 eax
  0018c	51		 push	 ecx
  0018d	68 00 00 00 00	 push	 OFFSET ??_C@_0DP@OECGBDJN@?$FL?5KANTURU?5?$FN?$FL?5BossMapMove?5?$FN?5Error@
  00192	ff 15 00 00 00
	00		 call	 DWORD PTR ?LogAddTD@@3P6AXPADZZA ; LogAddTD

; 124  : 
; 125  : 		LogAddTD("[ KANTURU ][ BossMapMove ] Fail - Result(%d) Character[%s][%s]",

  00198	83 c4 10	 add	 esp, 16			; 00000010H
  0019b	5f		 pop	 edi
  0019c	5e		 pop	 esi
  0019d	5b		 pop	 ebx

; 130  : #endif
; 131  : 	}
; 132  : }

  0019e	8b e5		 mov	 esp, ebp
  001a0	5d		 pop	 ebp
  001a1	c2 04 00	 ret	 4
$LN3@NotifyResu:

; 118  : 				iCurrentState, lpObj->AccountID, lpObj->Name);
; 119  : 		}
; 120  : 	}
; 121  : 	else
; 122  : 	{
; 123  : 		KANTURU_UTIL.NotifyKanturuEntranceReqResult(iIndex, iResult);

  001a4	50		 push	 eax
  001a5	53		 push	 ebx
  001a6	b9 00 00 00 00	 mov	 ecx, OFFSET ?KANTURU_UTIL@@3VCKanturuUtil@@A
  001ab	e8 00 00 00 00	 call	 ?NotifyKanturuEntranceReqResult@CKanturuUtil@@QAEXHH@Z ; CKanturuUtil::NotifyKanturuEntranceReqResult

; 124  : 
; 125  : 		LogAddTD("[ KANTURU ][ BossMapMove ] Fail - Result(%d) Character[%s][%s]",

  001b0	8d 46 5d	 lea	 eax, DWORD PTR [esi+93]
  001b3	50		 push	 eax
  001b4	8d 46 52	 lea	 eax, DWORD PTR [esi+82]
  001b7	50		 push	 eax
  001b8	ff 75 fc	 push	 DWORD PTR _iResult$1$[ebp]
  001bb	68 00 00 00 00	 push	 OFFSET ??_C@_0DP@FPALCGEM@?$FL?5KANTURU?5?$FN?$FL?5BossMapMove?5?$FN?5Fail?5@
  001c0	ff 15 00 00 00
	00		 call	 DWORD PTR ?LogAddTD@@3P6AXPADZZA ; LogAddTD

; 126  : 			iResult, lpObj->AccountID, lpObj->Name);
; 127  : 
; 128  : #if (GS_CASTLE == 0 || GS_SPEC == 1)
; 129  : 		gObj[iIndex].m_bKanturuEntranceByNPC = FALSE;

  001c6	a1 00 00 00 00	 mov	 eax, DWORD PTR ?gObj@@3PAUOBJECTSTRUCT@@A ; gObj
  001cb	83 c4 10	 add	 esp, 16			; 00000010H
  001ce	c7 84 07 a0 25
	00 00 00 00 00
	00		 mov	 DWORD PTR [edi+eax+9632], 0
$LN19@NotifyResu:
  001d9	5f		 pop	 edi
  001da	5e		 pop	 esi
$LN4@NotifyResu:
  001db	5b		 pop	 ebx

; 130  : #endif
; 131  : 	}
; 132  : }

  001dc	8b e5		 mov	 esp, ebp
  001de	5d		 pop	 ebp
  001df	c2 04 00	 ret	 4
?NotifyResultEnterKanturuBossMap@CKanturuEntranceNPC@@QAEXH@Z ENDP ; CKanturuEntranceNPC::NotifyResultEnterKanturuBossMap
_TEXT	ENDS
; Function compile flags: /Ogtp
; File c:\users\michel\desktop\source\gameserver\source\kanturuentrancenpc.cpp
; File c:\users\michel\desktop\source\gameserver\source\kanturu.h
; File c:\users\michel\desktop\source\gameserver\source\kanturuentrancenpc.cpp
;	COMDAT ?NotifyEntranceInfo@CKanturuEntranceNPC@@QAEXH@Z
_TEXT	SEGMENT
_pMsg$ = -16						; size = 12
__$ArrayPad$ = -4					; size = 4
_iIndex$ = 8						; size = 4
?NotifyEntranceInfo@CKanturuEntranceNPC@@QAEXH@Z PROC	; CKanturuEntranceNPC::NotifyEntranceInfo, COMDAT
; _this$ = ecx

; 47   : {

  00000	55		 push	 ebp
  00001	8b ec		 mov	 ebp, esp
  00003	83 ec 10	 sub	 esp, 16			; 00000010H
  00006	a1 00 00 00 00	 mov	 eax, DWORD PTR ___security_cookie
  0000b	33 c5		 xor	 eax, ebp
  0000d	89 45 fc	 mov	 DWORD PTR __$ArrayPad$[ebp], eax
  00010	53		 push	 ebx

; 50   : 	PHeadSubSetB((LPBYTE)&pMsg, 0xD1, 0x00, sizeof(pMsg));

  00011	6a 0c		 push	 12			; 0000000cH
  00013	6a 00		 push	 0
  00015	8d 45 f0	 lea	 eax, DWORD PTR _pMsg$[ebp]
  00018	c6 45 f0 00	 mov	 BYTE PTR _pMsg$[ebp], 0
  0001c	0f 57 c0	 xorps	 xmm0, xmm0
  0001f	66 c7 45 f9 00
	00		 mov	 WORD PTR _pMsg$[ebp+9], 0
  00025	68 d1 00 00 00	 push	 209			; 000000d1H
  0002a	50		 push	 eax
  0002b	66 0f d6 45 f1	 movq	 QWORD PTR _pMsg$[ebp+1], xmm0
  00030	c6 45 fb 00	 mov	 BYTE PTR _pMsg$[ebp+11], 0
  00034	e8 00 00 00 00	 call	 ?PHeadSubSetB@@YAXPAEEEH@Z ; PHeadSubSetB
; File c:\users\michel\desktop\source\gameserver\source\kanturu.h

; 71   : 	int GetKanturuState(){return this->m_iKanturuState;}

  00039	8b 1d 08 00 00
	00		 mov	 ebx, DWORD PTR ?g_Kanturu@@3VCKanturu@@A+8
; File c:\users\michel\desktop\source\gameserver\source\kanturuentrancenpc.cpp

; 50   : 	PHeadSubSetB((LPBYTE)&pMsg, 0xD1, 0x00, sizeof(pMsg));

  0003f	83 c4 10	 add	 esp, 16			; 00000010H

; 51   : 	int iCurrentState = g_Kanturu.GetKanturuState();
; 52   : 	int iCurrentDetailState = g_Kanturu.GetKanturuDetailState();

  00042	b9 00 00 00 00	 mov	 ecx, OFFSET ?g_Kanturu@@3VCKanturu@@A ; g_Kanturu
  00047	e8 00 00 00 00	 call	 ?GetKanturuDetailState@CKanturu@@QAEHXZ ; CKanturu::GetKanturuDetailState

; 53   : 	pMsg.btState = iCurrentState;
; 54   : 	pMsg.btDetailState = iCurrentDetailState;
; 55   : 	pMsg.btEnter = g_Kanturu.CheckCanEnterKanturuBattle();

  0004c	b9 00 00 00 00	 mov	 ecx, OFFSET ?g_Kanturu@@3VCKanturu@@A ; g_Kanturu
  00051	88 5d f4	 mov	 BYTE PTR _pMsg$[ebp+4], bl
  00054	88 45 f5	 mov	 BYTE PTR _pMsg$[ebp+5], al
  00057	e8 00 00 00 00	 call	 ?CheckCanEnterKanturuBattle@CKanturu@@QAEHXZ ; CKanturu::CheckCanEnterKanturuBattle

; 56   : 	pMsg.btUserCount = g_KanturuBattleUserMng.GetUserCount();

  0005c	b9 00 00 00 00	 mov	 ecx, OFFSET ?g_KanturuBattleUserMng@@3VCKanturuBattleUserMng@@A ; g_KanturuBattleUserMng
  00061	88 45 f6	 mov	 BYTE PTR _pMsg$[ebp+6], al
  00064	e8 00 00 00 00	 call	 ?GetUserCount@CKanturuBattleUserMng@@QAEHXZ ; CKanturuBattleUserMng::GetUserCount

; 57   : 	pMsg.iRemainTime = g_Kanturu.GetRemainTime();

  00069	b9 00 00 00 00	 mov	 ecx, OFFSET ?g_Kanturu@@3VCKanturu@@A ; g_Kanturu
  0006e	88 45 f7	 mov	 BYTE PTR _pMsg$[ebp+7], al
  00071	e8 00 00 00 00	 call	 ?GetRemainTime@CKanturu@@QAEHXZ ; CKanturu::GetRemainTime
  00076	89 45 f8	 mov	 DWORD PTR _pMsg$[ebp+8], eax

; 58   : 
; 59   : 	KANTURU_UTIL.SendDataToUser(iIndex, (LPBYTE)&pMsg, sizeof(pMsg));

  00079	b9 00 00 00 00	 mov	 ecx, OFFSET ?KANTURU_UTIL@@3VCKanturuUtil@@A
  0007e	6a 0c		 push	 12			; 0000000cH
  00080	8d 45 f0	 lea	 eax, DWORD PTR _pMsg$[ebp]
  00083	50		 push	 eax
  00084	ff 75 08	 push	 DWORD PTR _iIndex$[ebp]
  00087	e8 00 00 00 00	 call	 ?SendDataToUser@CKanturuUtil@@QAEXHPAEH@Z ; CKanturuUtil::SendDataToUser

; 60   : }

  0008c	8b 4d fc	 mov	 ecx, DWORD PTR __$ArrayPad$[ebp]
  0008f	33 cd		 xor	 ecx, ebp
  00091	5b		 pop	 ebx
  00092	e8 00 00 00 00	 call	 @__security_check_cookie@4
  00097	8b e5		 mov	 esp, ebp
  00099	5d		 pop	 ebp
  0009a	c2 04 00	 ret	 4
?NotifyEntranceInfo@CKanturuEntranceNPC@@QAEXH@Z ENDP	; CKanturuEntranceNPC::NotifyEntranceInfo
_TEXT	ENDS
; Function compile flags: /Ogtp
; File c:\users\michel\desktop\source\gameserver\source\kanturuentrancenpc.cpp
;	COMDAT ??1CKanturuEntranceNPC@@UAE@XZ
_TEXT	SEGMENT
??1CKanturuEntranceNPC@@UAE@XZ PROC			; CKanturuEntranceNPC::~CKanturuEntranceNPC, COMDAT
; _this$ = ecx

; 30   : {

  00000	c7 01 00 00 00
	00		 mov	 DWORD PTR [ecx], OFFSET ??_7CKanturuEntranceNPC@@6B@

; 31   : 	return;
; 32   : }

  00006	c3		 ret	 0
??1CKanturuEntranceNPC@@UAE@XZ ENDP			; CKanturuEntranceNPC::~CKanturuEntranceNPC
_TEXT	ENDS
; Function compile flags: /Ogtp
; File c:\users\michel\desktop\source\gameserver\source\kanturuentrancenpc.cpp
;	COMDAT ??0CKanturuEntranceNPC@@QAE@XZ
_TEXT	SEGMENT
??0CKanturuEntranceNPC@@QAE@XZ PROC			; CKanturuEntranceNPC::CKanturuEntranceNPC, COMDAT
; _this$ = ecx

; 25   : {

  00000	c7 01 00 00 00
	00		 mov	 DWORD PTR [ecx], OFFSET ??_7CKanturuEntranceNPC@@6B@

; 26   : 	return;
; 27   : }

  00006	8b c1		 mov	 eax, ecx
  00008	c3		 ret	 0
??0CKanturuEntranceNPC@@QAE@XZ ENDP			; CKanturuEntranceNPC::CKanturuEntranceNPC
_TEXT	ENDS
; Function compile flags: /Ogtp
; File c:\users\michel\desktop\source\gameserver\source\kanturuentrancenpc.cpp
;	COMDAT ?__empty_global_delete@@YAXPAXI@Z
_TEXT	SEGMENT
___formal$ = 8						; size = 4
___formal$ = 12						; size = 4
?__empty_global_delete@@YAXPAXI@Z PROC			; __empty_global_delete, COMDAT

  00000	c3		 ret	 0
?__empty_global_delete@@YAXPAXI@Z ENDP			; __empty_global_delete
_TEXT	ENDS
; Function compile flags: /Ogtp
; File c:\users\michel\desktop\source\gameserver\source\kanturuentrancenpc.cpp
;	COMDAT ?__empty_global_delete@@YAXPAX@Z
_TEXT	SEGMENT
___formal$ = 8						; size = 4
?__empty_global_delete@@YAXPAX@Z PROC			; __empty_global_delete, COMDAT

  00000	c3		 ret	 0
?__empty_global_delete@@YAXPAX@Z ENDP			; __empty_global_delete
_TEXT	ENDS
END
