; Listing generated by Microsoft (R) Optimizing Compiler Version 19.00.23506.0 

	TITLE	C:\Users\Michel\Desktop\Source\GameServer\Source\KanturuMaya.cpp
	.686P
	.XMM
	include listing.inc
	.model	flat

INCLUDELIB LIBCMT
INCLUDELIB OLDNAMES

PUBLIC	?__empty_global_delete@@YAXPAX@Z		; __empty_global_delete
PUBLIC	?__empty_global_delete@@YAXPAXI@Z		; __empty_global_delete
PUBLIC	??0CKanturuMaya@@QAE@XZ				; CKanturuMaya::CKanturuMaya
PUBLIC	??1CKanturuMaya@@UAE@XZ				; CKanturuMaya::~CKanturuMaya
PUBLIC	?Init@CKanturuMaya@@QAEXXZ			; CKanturuMaya::Init
PUBLIC	?KanturuMayaAct_IceStorm@CKanturuMaya@@QAEXH@Z	; CKanturuMaya::KanturuMayaAct_IceStorm
PUBLIC	?KanturuMayaAct_Hands@CKanturuMaya@@QAEXXZ	; CKanturuMaya::KanturuMayaAct_Hands
PUBLIC	??_GCKanturuMaya@@UAEPAXI@Z			; CKanturuMaya::`scalar deleting destructor'
PUBLIC	??1OBJECTSTRUCT@@QAE@XZ				; OBJECTSTRUCT::~OBJECTSTRUCT
PUBLIC	??_EOBJECTSTRUCT@@QAEPAXI@Z			; OBJECTSTRUCT::`vector deleting destructor'
PUBLIC	??_7CKanturuMaya@@6B@				; CKanturuMaya::`vftable'
PUBLIC	??_C@_0DH@CAACFEFI@?$FL?5KANTURU?5?$FN?$FL?5IceStorm?5?$FN?5Skill?5Us@ ; `string'
PUBLIC	??_C@_0FE@OGKIKCJP@?$FL?5KANTURU?5?$FN?$FL?5BrokenShower?5?$FN?5?$FL?$CFs?$FN@ ; `string'
PUBLIC	??_C@_0DH@LAJGNPGO@?$FL?5KANTURU?5?$FN?$FL?5BrokenShower?5?$FN?5Skil@ ; `string'
PUBLIC	??_R4CKanturuMaya@@6B@				; CKanturuMaya::`RTTI Complete Object Locator'
PUBLIC	??_R0?AVCKanturuMaya@@@8			; CKanturuMaya `RTTI Type Descriptor'
PUBLIC	??_R3CKanturuMaya@@8				; CKanturuMaya::`RTTI Class Hierarchy Descriptor'
PUBLIC	??_R2CKanturuMaya@@8				; CKanturuMaya::`RTTI Base Class Array'
PUBLIC	??_R1A@?0A@EA@CKanturuMaya@@8			; CKanturuMaya::`RTTI Base Class Descriptor at (0,-1,0,64)'
EXTRN	??_M@YGXPAXIIP6EX0@Z@Z:PROC			; `eh vector destructor iterator'
EXTRN	??3@YAXPAXI@Z:PROC				; operator delete
EXTRN	??_V@YAXPAXI@Z:PROC				; operator delete[]
EXTRN	_atexit:PROC
EXTRN	__imp__GetTickCount@0:PROC
EXTRN	_rand:PROC
EXTRN	??_ECKanturuMaya@@UAEPAXI@Z:PROC		; CKanturuMaya::`vector deleting destructor'
EXTRN	??1CSkillDelay@@UAE@XZ:PROC			; CSkillDelay::~CSkillDelay
EXTRN	??1TMonsterAIAgro@@UAE@XZ:PROC			; TMonsterAIAgro::~TMonsterAIAgro
EXTRN	?gObjIsConnected@@YAHH@Z:PROC			; gObjIsConnected
EXTRN	?gObjLifeCheck@@YAXPAUOBJECTSTRUCT@@0HHHHGH@Z:PROC ; gObjLifeCheck
EXTRN	?UseMonsterSkill@TMonsterSkillManager@@SAXHHHHPAVCMagicInf@@@Z:PROC ; TMonsterSkillManager::UseMonsterSkill
EXTRN	??0CKanturuUtil@@QAE@XZ:PROC			; CKanturuUtil::CKanturuUtil
EXTRN	??1CKanturuUtil@@UAE@XZ:PROC			; CKanturuUtil::~CKanturuUtil
EXTRN	?NotifyKanturuWideAreaAttack@CKanturuUtil@@QAEXHHH@Z:PROC ; CKanturuUtil::NotifyKanturuWideAreaAttack
EXTRN	@__security_check_cookie@4:PROC
EXTRN	___CxxFrameHandler3:PROC
EXTRN	??_7type_info@@6B@:QWORD			; type_info::`vftable'
EXTRN	?LogAddTD@@3P6AXPADZZA:DWORD			; LogAddTD
EXTRN	?gObj@@3PAUOBJECTSTRUCT@@A:DWORD		; gObj
EXTRN	___security_cookie:DWORD
EXTRN	__fltused:DWORD
_BSS	SEGMENT
?KANTURU_UTIL@@3VCKanturuUtil@@A DD 01H DUP (?)		; KANTURU_UTIL
_BSS	ENDS
CRT$XCU	SEGMENT
?KANTURU_UTIL$initializer$@@3P6AXXZA DD FLAT:??__EKANTURU_UTIL@@YAXXZ ; KANTURU_UTIL$initializer$
CRT$XCU	ENDS
;	COMDAT ??_R1A@?0A@EA@CKanturuMaya@@8
rdata$r	SEGMENT
??_R1A@?0A@EA@CKanturuMaya@@8 DD FLAT:??_R0?AVCKanturuMaya@@@8 ; CKanturuMaya::`RTTI Base Class Descriptor at (0,-1,0,64)'
	DD	00H
	DD	00H
	DD	0ffffffffH
	DD	00H
	DD	040H
	DD	FLAT:??_R3CKanturuMaya@@8
rdata$r	ENDS
;	COMDAT ??_R2CKanturuMaya@@8
rdata$r	SEGMENT
??_R2CKanturuMaya@@8 DD FLAT:??_R1A@?0A@EA@CKanturuMaya@@8 ; CKanturuMaya::`RTTI Base Class Array'
rdata$r	ENDS
;	COMDAT ??_R3CKanturuMaya@@8
rdata$r	SEGMENT
??_R3CKanturuMaya@@8 DD 00H				; CKanturuMaya::`RTTI Class Hierarchy Descriptor'
	DD	00H
	DD	01H
	DD	FLAT:??_R2CKanturuMaya@@8
rdata$r	ENDS
;	COMDAT ??_R0?AVCKanturuMaya@@@8
data$r	SEGMENT
??_R0?AVCKanturuMaya@@@8 DD FLAT:??_7type_info@@6B@	; CKanturuMaya `RTTI Type Descriptor'
	DD	00H
	DB	'.?AVCKanturuMaya@@', 00H
data$r	ENDS
;	COMDAT ??_R4CKanturuMaya@@6B@
rdata$r	SEGMENT
??_R4CKanturuMaya@@6B@ DD 00H				; CKanturuMaya::`RTTI Complete Object Locator'
	DD	00H
	DD	00H
	DD	FLAT:??_R0?AVCKanturuMaya@@@8
	DD	FLAT:??_R3CKanturuMaya@@8
rdata$r	ENDS
;	COMDAT ??_C@_0DH@LAJGNPGO@?$FL?5KANTURU?5?$FN?$FL?5BrokenShower?5?$FN?5Skil@
CONST	SEGMENT
??_C@_0DH@LAJGNPGO@?$FL?5KANTURU?5?$FN?$FL?5BrokenShower?5?$FN?5Skil@ DB '['
	DB	' KANTURU ][ BrokenShower ] Skill Using : Index(%d) %s', 00H ; `string'
CONST	ENDS
;	COMDAT ??_C@_0FE@OGKIKCJP@?$FL?5KANTURU?5?$FN?$FL?5BrokenShower?5?$FN?5?$FL?$CFs?$FN@
CONST	SEGMENT
??_C@_0FE@OGKIKCJP@?$FL?5KANTURU?5?$FN?$FL?5BrokenShower?5?$FN?5?$FL?$CFs?$FN@ DB '['
	DB	' KANTURU ][ BrokenShower ] [%s][%s] User Dying cause NOT wear'
	DB	'ing MoonStone Pandent', 00H			; `string'
CONST	ENDS
;	COMDAT ??_C@_0DH@CAACFEFI@?$FL?5KANTURU?5?$FN?$FL?5IceStorm?5?$FN?5Skill?5Us@
CONST	SEGMENT
??_C@_0DH@CAACFEFI@?$FL?5KANTURU?5?$FN?$FL?5IceStorm?5?$FN?5Skill?5Us@ DB '['
	DB	' KANTURU ][ IceStorm ] Skill Using(%d) : Index(%d) %s', 00H ; `string'
CONST	ENDS
;	COMDAT ??_7CKanturuMaya@@6B@
CONST	SEGMENT
??_7CKanturuMaya@@6B@ DD FLAT:??_R4CKanturuMaya@@6B@	; CKanturuMaya::`vftable'
	DD	FLAT:??_ECKanturuMaya@@UAEPAXI@Z
CONST	ENDS
;	COMDAT xdata$x
xdata$x	SEGMENT
__ehfuncinfo$??_EOBJECTSTRUCT@@QAEPAXI@Z DD 019930522H
	DD	00H
	DD	00H
	DD	2 DUP(00H)
	DD	2 DUP(00H)
	DD	00H
	DD	05H
xdata$x	ENDS
; Function compile flags: /Ogtp
;	COMDAT ??__FKANTURU_UTIL@@YAXXZ
text$yd	SEGMENT
??__FKANTURU_UTIL@@YAXXZ PROC				; `dynamic atexit destructor for 'KANTURU_UTIL'', COMDAT
  00000	b9 00 00 00 00	 mov	 ecx, OFFSET ?KANTURU_UTIL@@3VCKanturuUtil@@A
  00005	e9 00 00 00 00	 jmp	 ??1CKanturuUtil@@UAE@XZ	; CKanturuUtil::~CKanturuUtil
??__FKANTURU_UTIL@@YAXXZ ENDP				; `dynamic atexit destructor for 'KANTURU_UTIL''
text$yd	ENDS
; Function compile flags: /Ogtp
; File c:\users\michel\desktop\source\gameserver\source\kanturumaya.cpp
;	COMDAT ??__EKANTURU_UTIL@@YAXXZ
text$di	SEGMENT
??__EKANTURU_UTIL@@YAXXZ PROC				; `dynamic initializer for 'KANTURU_UTIL'', COMDAT

; 14   : static CKanturuUtil KANTURU_UTIL;

  00000	b9 00 00 00 00	 mov	 ecx, OFFSET ?KANTURU_UTIL@@3VCKanturuUtil@@A
  00005	e8 00 00 00 00	 call	 ??0CKanturuUtil@@QAE@XZ	; CKanturuUtil::CKanturuUtil
  0000a	68 00 00 00 00	 push	 OFFSET ??__FKANTURU_UTIL@@YAXXZ ; `dynamic atexit destructor for 'KANTURU_UTIL''
  0000f	e8 00 00 00 00	 call	 _atexit
  00014	59		 pop	 ecx
  00015	c3		 ret	 0
??__EKANTURU_UTIL@@YAXXZ ENDP				; `dynamic initializer for 'KANTURU_UTIL''
text$di	ENDS
; Function compile flags: /Ogtp
;	COMDAT ??_EOBJECTSTRUCT@@QAEPAXI@Z
_TEXT	SEGMENT
__$EHRec$ = -12						; size = 12
___flags$ = 8						; size = 4
??_EOBJECTSTRUCT@@QAEPAXI@Z PROC			; OBJECTSTRUCT::`vector deleting destructor', COMDAT
; _this$ = ecx
  00000	55		 push	 ebp
  00001	8b ec		 mov	 ebp, esp
  00003	6a ff		 push	 -1
  00005	68 00 00 00 00	 push	 __ehhandler$??_EOBJECTSTRUCT@@QAEPAXI@Z
  0000a	64 a1 00 00 00
	00		 mov	 eax, DWORD PTR fs:0
  00010	50		 push	 eax
  00011	53		 push	 ebx
  00012	56		 push	 esi
  00013	57		 push	 edi
  00014	a1 00 00 00 00	 mov	 eax, DWORD PTR ___security_cookie
  00019	33 c5		 xor	 eax, ebp
  0001b	50		 push	 eax
  0001c	8d 45 f4	 lea	 eax, DWORD PTR __$EHRec$[ebp]
  0001f	64 a3 00 00 00
	00		 mov	 DWORD PTR fs:0, eax
  00025	8b f1		 mov	 esi, ecx
  00027	8b 5d 08	 mov	 ebx, DWORD PTR ___flags$[ebp]
  0002a	f6 c3 02	 test	 bl, 2
  0002d	74 44		 je	 SHORT $LN2@vector
  0002f	68 00 00 00 00	 push	 OFFSET ??1OBJECTSTRUCT@@QAE@XZ
  00034	ff 76 fc	 push	 DWORD PTR [esi-4]
  00037	8d 7e fc	 lea	 edi, DWORD PTR [esi-4]
  0003a	68 40 27 00 00	 push	 10048			; 00002740H
  0003f	56		 push	 esi
  00040	e8 00 00 00 00	 call	 ??_M@YGXPAXIIP6EX0@Z@Z
  00045	f6 c3 01	 test	 bl, 1
  00048	74 13		 je	 SHORT $LN3@vector
  0004a	69 0f 40 27 00
	00		 imul	 ecx, DWORD PTR [edi], 10048
  00050	83 c1 04	 add	 ecx, 4
  00053	51		 push	 ecx
  00054	57		 push	 edi
  00055	e8 00 00 00 00	 call	 ??_V@YAXPAXI@Z		; operator delete[]
  0005a	83 c4 08	 add	 esp, 8
$LN3@vector:
  0005d	8b c7		 mov	 eax, edi
  0005f	8b 4d f4	 mov	 ecx, DWORD PTR __$EHRec$[ebp]
  00062	64 89 0d 00 00
	00 00		 mov	 DWORD PTR fs:0, ecx
  00069	59		 pop	 ecx
  0006a	5f		 pop	 edi
  0006b	5e		 pop	 esi
  0006c	5b		 pop	 ebx
  0006d	8b e5		 mov	 esp, ebp
  0006f	5d		 pop	 ebp
  00070	c2 04 00	 ret	 4
$LN2@vector:
  00073	8d 8e ec 20 00
	00		 lea	 ecx, DWORD PTR [esi+8428]
  00079	e8 00 00 00 00	 call	 ??1TMonsterAIAgro@@UAE@XZ ; TMonsterAIAgro::~TMonsterAIAgro
  0007e	8d 8e 0c 16 00
	00		 lea	 ecx, DWORD PTR [esi+5644]
  00084	e8 00 00 00 00	 call	 ??1CSkillDelay@@UAE@XZ	; CSkillDelay::~CSkillDelay
  00089	f6 c3 01	 test	 bl, 1
  0008c	74 0e		 je	 SHORT $LN4@vector
  0008e	68 40 27 00 00	 push	 10048			; 00002740H
  00093	56		 push	 esi
  00094	e8 00 00 00 00	 call	 ??3@YAXPAXI@Z		; operator delete
  00099	83 c4 08	 add	 esp, 8
$LN4@vector:
  0009c	8b c6		 mov	 eax, esi
  0009e	8b 4d f4	 mov	 ecx, DWORD PTR __$EHRec$[ebp]
  000a1	64 89 0d 00 00
	00 00		 mov	 DWORD PTR fs:0, ecx
  000a8	59		 pop	 ecx
  000a9	5f		 pop	 edi
  000aa	5e		 pop	 esi
  000ab	5b		 pop	 ebx
  000ac	8b e5		 mov	 esp, ebp
  000ae	5d		 pop	 ebp
  000af	c2 04 00	 ret	 4
_TEXT	ENDS
;	COMDAT text$x
text$x	SEGMENT
__ehhandler$??_EOBJECTSTRUCT@@QAEPAXI@Z:
  00000	8b 54 24 08	 mov	 edx, DWORD PTR [esp+8]
  00004	8d 42 0c	 lea	 eax, DWORD PTR [edx+12]
  00007	8b 4a f0	 mov	 ecx, DWORD PTR [edx-16]
  0000a	33 c8		 xor	 ecx, eax
  0000c	e8 00 00 00 00	 call	 @__security_check_cookie@4
  00011	b8 00 00 00 00	 mov	 eax, OFFSET __ehfuncinfo$??_EOBJECTSTRUCT@@QAEPAXI@Z
  00016	e9 00 00 00 00	 jmp	 ___CxxFrameHandler3
text$x	ENDS
??_EOBJECTSTRUCT@@QAEPAXI@Z ENDP			; OBJECTSTRUCT::`vector deleting destructor'
; Function compile flags: /Ogtp
;	COMDAT ??1OBJECTSTRUCT@@QAE@XZ
_TEXT	SEGMENT
??1OBJECTSTRUCT@@QAE@XZ PROC				; OBJECTSTRUCT::~OBJECTSTRUCT, COMDAT
; _this$ = ecx
  00000	56		 push	 esi
  00001	8b f1		 mov	 esi, ecx
  00003	8d 8e ec 20 00
	00		 lea	 ecx, DWORD PTR [esi+8428]
  00009	e8 00 00 00 00	 call	 ??1TMonsterAIAgro@@UAE@XZ ; TMonsterAIAgro::~TMonsterAIAgro
  0000e	8d 8e 0c 16 00
	00		 lea	 ecx, DWORD PTR [esi+5644]
  00014	5e		 pop	 esi
  00015	e9 00 00 00 00	 jmp	 ??1CSkillDelay@@UAE@XZ	; CSkillDelay::~CSkillDelay
??1OBJECTSTRUCT@@QAE@XZ ENDP				; OBJECTSTRUCT::~OBJECTSTRUCT
_TEXT	ENDS
; Function compile flags: /Ogtp
;	COMDAT ??_GCKanturuMaya@@UAEPAXI@Z
_TEXT	SEGMENT
___flags$ = 8						; size = 4
??_GCKanturuMaya@@UAEPAXI@Z PROC			; CKanturuMaya::`scalar deleting destructor', COMDAT
; _this$ = ecx
  00000	55		 push	 ebp
  00001	8b ec		 mov	 ebp, esp
  00003	56		 push	 esi
  00004	8b f1		 mov	 esi, ecx
  00006	e8 00 00 00 00	 call	 ??1CKanturuMaya@@UAE@XZ	; CKanturuMaya::~CKanturuMaya
  0000b	f6 45 08 01	 test	 BYTE PTR ___flags$[ebp], 1
  0000f	74 0b		 je	 SHORT $LN4@scalar
  00011	6a 14		 push	 20			; 00000014H
  00013	56		 push	 esi
  00014	e8 00 00 00 00	 call	 ??3@YAXPAXI@Z		; operator delete
  00019	83 c4 08	 add	 esp, 8
$LN4@scalar:
  0001c	8b c6		 mov	 eax, esi
  0001e	5e		 pop	 esi
  0001f	5d		 pop	 ebp
  00020	c2 04 00	 ret	 4
??_GCKanturuMaya@@UAEPAXI@Z ENDP			; CKanturuMaya::`scalar deleting destructor'
_TEXT	ENDS
; Function compile flags: /Ogtp
; File c:\users\michel\desktop\source\gameserver\source\kanturumaya.cpp
;	COMDAT ?KanturuMayaAct_Hands@CKanturuMaya@@QAEXXZ
_TEXT	SEGMENT
_this$1$ = -4						; size = 4
?KanturuMayaAct_Hands@CKanturuMaya@@QAEXXZ PROC		; CKanturuMaya::KanturuMayaAct_Hands, COMDAT
; _this$ = ecx

; 68   : {

  00000	55		 push	 ebp
  00001	8b ec		 mov	 ebp, esp
  00003	51		 push	 ecx
  00004	53		 push	 ebx
  00005	8b d9		 mov	 ebx, ecx
  00007	56		 push	 esi

; 69   : 	int TickCount = GetTickCount() - this->m_iMayaSkillTime;

  00008	8b 35 00 00 00
	00		 mov	 esi, DWORD PTR __imp__GetTickCount@0
  0000e	89 5d fc	 mov	 DWORD PTR _this$1$[ebp], ebx
  00011	ff d6		 call	 esi
  00013	2b 43 0c	 sub	 eax, DWORD PTR [ebx+12]

; 70   : 
; 71   : 	if ( TickCount < 20000 )

  00016	3d 20 4e 00 00	 cmp	 eax, 20000		; 00004e20H
  0001b	0f 8c 6f 01 00
	00		 jl	 $LN7@KanturuMay

; 72   : 		return;
; 73   : 
; 74   : 	this->m_iMayaSkillTime = GetTickCount();

  00021	ff d6		 call	 esi
  00023	89 43 0c	 mov	 DWORD PTR [ebx+12], eax

; 75   : 
; 76   : 	if ( this->m_iMayaObjIndex < 0 || this->m_iMayaObjIndex > OBJMAX )	// #errot change to OBJMAX-1

  00026	8b 43 04	 mov	 eax, DWORD PTR [ebx+4]
  00029	85 c0		 test	 eax, eax
  0002b	0f 88 5f 01 00
	00		 js	 $LN7@KanturuMay
  00031	3d ec 2c 00 00	 cmp	 eax, 11500		; 00002cecH
  00036	0f 8f 54 01 00
	00		 jg	 $LN7@KanturuMay

; 77   : 		return;
; 78   : 
; 79   : 	for ( int iCount=OBJ_STARTUSERINDEX;iCount < OBJMAX;iCount++)

  0003c	57		 push	 edi
  0003d	8b 3d 00 00 00
	00		 mov	 edi, DWORD PTR ?gObj@@3PAUOBJECTSTRUCT@@A ; gObj
  00043	bb 04 29 00 00	 mov	 ebx, 10500		; 00002904H
  00048	be 00 dd 49 06	 mov	 esi, 105504000		; 0649dd00H
  0004d	0f 1f 00	 npad	 3
$LL4@KanturuMay:

; 80   : 	{
; 81   : 		if ( gObj[iCount].Type == OBJ_USER &&
; 82   : 			 gObjIsConnected(iCount) &&

  00050	80 7c 3e 50 01	 cmp	 BYTE PTR [esi+edi+80], 1
  00055	0f 85 00 01 00
	00		 jne	 $LN2@KanturuMay
  0005b	53		 push	 ebx
  0005c	e8 00 00 00 00	 call	 ?gObjIsConnected@@YAHH@Z ; gObjIsConnected
  00061	8b 3d 00 00 00
	00		 mov	 edi, DWORD PTR ?gObj@@3PAUOBJECTSTRUCT@@A ; gObj
  00067	83 c4 04	 add	 esp, 4
  0006a	85 c0		 test	 eax, eax
  0006c	0f 84 e9 00 00
	00		 je	 $LN2@KanturuMay
  00072	80 bc 3e 23 01
	00 00 27	 cmp	 BYTE PTR [esi+edi+291], 39 ; 00000027H
  0007a	0f 85 db 00 00
	00		 jne	 $LN2@KanturuMay

; 83   : 			 gObj[iCount].MapNumber == MAP_INDEX_KANTURU_BOSS )
; 84   : 		{
; 85   : 			KANTURU_UTIL.NotifyKanturuWideAreaAttack(this->m_iMayaObjIndex, iCount, 1);

  00080	8b 7d fc	 mov	 edi, DWORD PTR _this$1$[ebp]
  00083	b9 00 00 00 00	 mov	 ecx, OFFSET ?KANTURU_UTIL@@3VCKanturuUtil@@A
  00088	6a 01		 push	 1
  0008a	53		 push	 ebx
  0008b	ff 77 04	 push	 DWORD PTR [edi+4]
  0008e	e8 00 00 00 00	 call	 ?NotifyKanturuWideAreaAttack@CKanturuUtil@@QAEXHHH@Z ; CKanturuUtil::NotifyKanturuWideAreaAttack

; 86   : 			TMonsterSkillManager::UseMonsterSkill(this->m_iMayaObjIndex, iCount, 1,-1,0);

  00093	6a 00		 push	 0
  00095	6a ff		 push	 -1
  00097	6a 01		 push	 1
  00099	53		 push	 ebx
  0009a	ff 77 04	 push	 DWORD PTR [edi+4]
  0009d	e8 00 00 00 00	 call	 ?UseMonsterSkill@TMonsterSkillManager@@SAXHHHHPAVCMagicInf@@@Z ; TMonsterSkillManager::UseMonsterSkill

; 87   : 
; 88   : 			if ( gObj[iCount].pInventory[10].m_Type == ITEMGET(13,38) &&

  000a2	8b 3d 00 00 00
	00		 mov	 edi, DWORD PTR ?gObj@@3PAUOBJECTSTRUCT@@A ; gObj
  000a8	ba 26 1a 00 00	 mov	 edx, 6694		; 00001a26H
  000ad	83 c4 14	 add	 esp, 20			; 00000014H
  000b0	0f 57 c9	 xorps	 xmm1, xmm1
  000b3	8b 8c 3e c0 11
	00 00		 mov	 ecx, DWORD PTR [esi+edi+4544]
  000ba	66 39 91 4e 08
	00 00		 cmp	 WORD PTR [ecx+2126], dx
  000c1	75 15		 jne	 SHORT $LN9@KanturuMay
  000c3	f3 0f 10 81 6c
	08 00 00	 movss	 xmm0, DWORD PTR [ecx+2156]
  000cb	0f 2e c1	 ucomiss xmm0, xmm1
  000ce	9f		 lahf
  000cf	f6 c4 44	 test	 ah, 68			; 00000044H
  000d2	0f 8a 83 00 00
	00		 jp	 $LN2@KanturuMay
$LN9@KanturuMay:

; 89   : 				 gObj[iCount].pInventory[10].m_Durability != 0.0f )
; 90   : 			{
; 91   : 				continue;
; 92   : 			}
; 93   : 
; 94   : 
; 95   : 			if ( gObj[iCount].pInventory[11].m_Type == ITEMGET(13,38) &&

  000d8	66 39 91 22 09
	00 00		 cmp	 WORD PTR [ecx+2338], dx
  000df	75 11		 jne	 SHORT $LN10@KanturuMay
  000e1	f3 0f 10 81 40
	09 00 00	 movss	 xmm0, DWORD PTR [ecx+2368]
  000e9	0f 2e c1	 ucomiss xmm0, xmm1
  000ec	9f		 lahf
  000ed	f6 c4 44	 test	 ah, 68			; 00000044H
  000f0	7a 69		 jp	 SHORT $LN2@KanturuMay
$LN10@KanturuMay:

; 96   : 				 gObj[iCount].pInventory[11].m_Durability != 0.0f )
; 97   : 			{
; 98   : 				continue;
; 99   : 			}
; 100  : 
; 101  : 			if ( gObj[iCount].MapNumber == MAP_INDEX_KANTURU_BOSS )	// #warning unuseful if

  000f2	80 bc 3e 23 01
	00 00 27	 cmp	 BYTE PTR [esi+edi+291], 39 ; 00000027H
  000fa	75 5f		 jne	 SHORT $LN2@KanturuMay

; 102  : 			{
; 103  : 				LPOBJ lpMayaHandObj = &gObj[this->m_iMayaObjIndex];

  000fc	8b 45 fc	 mov	 eax, DWORD PTR _this$1$[ebp]

; 104  : 				gObj[iCount].Life = 0;
; 105  : 
; 106  : 				gObjLifeCheck(&gObj[iCount], lpMayaHandObj, (int)gObj[iCount].Life,

  000ff	6a 00		 push	 0
  00101	6a 00		 push	 0
  00103	6a 00		 push	 0
  00105	69 50 04 40 27
	00 00		 imul	 edx, DWORD PTR [eax+4], 10048
  0010c	c7 84 3e d8 00
	00 00 00 00 00
	00		 mov	 DWORD PTR [esi+edi+216], 0
  00117	8b 0d 00 00 00
	00		 mov	 ecx, DWORD PTR ?gObj@@3PAUOBJECTSTRUCT@@A ; gObj
  0011d	03 ce		 add	 ecx, esi
  0011f	6a 00		 push	 0
  00121	6a 00		 push	 0
  00123	03 d7		 add	 edx, edi
  00125	f3 0f 2c 81 d8
	00 00 00	 cvttss2si eax, DWORD PTR [ecx+216]
  0012d	50		 push	 eax
  0012e	52		 push	 edx
  0012f	51		 push	 ecx
  00130	e8 00 00 00 00	 call	 ?gObjLifeCheck@@YAXPAUOBJECTSTRUCT@@0HHHHGH@Z ; gObjLifeCheck

; 107  : 					0, 0, 0, 0, 0);
; 108  : 
; 109  : 				LogAddTD("[ KANTURU ][ BrokenShower ] [%s][%s] User Dying cause NOT wearing MoonStone Pandent",

  00135	8b 0d 00 00 00
	00		 mov	 ecx, DWORD PTR ?gObj@@3PAUOBJECTSTRUCT@@A ; gObj
  0013b	8d 41 5d	 lea	 eax, DWORD PTR [ecx+93]
  0013e	03 c6		 add	 eax, esi
  00140	50		 push	 eax
  00141	8d 41 52	 lea	 eax, DWORD PTR [ecx+82]
  00144	03 c6		 add	 eax, esi
  00146	50		 push	 eax
  00147	68 00 00 00 00	 push	 OFFSET ??_C@_0FE@OGKIKCJP@?$FL?5KANTURU?5?$FN?$FL?5BrokenShower?5?$FN?5?$FL?$CFs?$FN@
  0014c	ff 15 00 00 00
	00		 call	 DWORD PTR ?LogAddTD@@3P6AXPADZZA ; LogAddTD
  00152	8b 3d 00 00 00
	00		 mov	 edi, DWORD PTR ?gObj@@3PAUOBJECTSTRUCT@@A ; gObj
  00158	83 c4 2c	 add	 esp, 44			; 0000002cH
$LN2@KanturuMay:

; 77   : 		return;
; 78   : 
; 79   : 	for ( int iCount=OBJ_STARTUSERINDEX;iCount < OBJMAX;iCount++)

  0015b	81 c6 40 27 00
	00		 add	 esi, 10048		; 00002740H
  00161	43		 inc	 ebx
  00162	81 fe 00 2f e3
	06		 cmp	 esi, 115552000		; 06e32f00H
  00168	0f 8c e2 fe ff
	ff		 jl	 $LL4@KanturuMay

; 110  : 					gObj[iCount].AccountID, gObj[iCount].Name);
; 111  : 			}
; 112  : 		}
; 113  : 	}
; 114  : 
; 115  : 	LogAddTD("[ KANTURU ][ BrokenShower ] Skill Using : Index(%d) %s",

  0016e	8b 45 fc	 mov	 eax, DWORD PTR _this$1$[ebp]
  00171	8b 48 04	 mov	 ecx, DWORD PTR [eax+4]
  00174	69 c1 40 27 00
	00		 imul	 eax, ecx, 10048
  0017a	83 c0 5d	 add	 eax, 93			; 0000005dH
  0017d	03 c7		 add	 eax, edi
  0017f	50		 push	 eax
  00180	51		 push	 ecx
  00181	68 00 00 00 00	 push	 OFFSET ??_C@_0DH@LAJGNPGO@?$FL?5KANTURU?5?$FN?$FL?5BrokenShower?5?$FN?5Skil@
  00186	ff 15 00 00 00
	00		 call	 DWORD PTR ?LogAddTD@@3P6AXPADZZA ; LogAddTD
  0018c	83 c4 0c	 add	 esp, 12			; 0000000cH
  0018f	5f		 pop	 edi
$LN7@KanturuMay:
  00190	5e		 pop	 esi
  00191	5b		 pop	 ebx

; 116  : 		this->m_iMayaObjIndex, gObj[this->m_iMayaObjIndex].Name);
; 117  : }

  00192	8b e5		 mov	 esp, ebp
  00194	5d		 pop	 ebp
  00195	c3		 ret	 0
?KanturuMayaAct_Hands@CKanturuMaya@@QAEXXZ ENDP		; CKanturuMaya::KanturuMayaAct_Hands
_TEXT	ENDS
; Function compile flags: /Ogtp
; File c:\users\michel\desktop\source\gameserver\source\kanturumaya.cpp
;	COMDAT ?KanturuMayaAct_IceStorm@CKanturuMaya@@QAEXH@Z
_TEXT	SEGMENT
_iSkillUsingRate$ = 8					; size = 4
?KanturuMayaAct_IceStorm@CKanturuMaya@@QAEXH@Z PROC	; CKanturuMaya::KanturuMayaAct_IceStorm, COMDAT
; _this$ = ecx

; 41   : {

  00000	55		 push	 ebp
  00001	8b ec		 mov	 ebp, esp
  00003	53		 push	 ebx
  00004	8b d9		 mov	 ebx, ecx

; 42   : 	if ( (rand()%10000) > iSkillUsingRate )

  00006	e8 00 00 00 00	 call	 _rand
  0000b	99		 cdq
  0000c	b9 10 27 00 00	 mov	 ecx, 10000		; 00002710H
  00011	f7 f9		 idiv	 ecx
  00013	3b 55 08	 cmp	 edx, DWORD PTR _iSkillUsingRate$[ebp]
  00016	0f 8f a8 00 00
	00		 jg	 $LN7@KanturuMay

; 43   : 		return;
; 44   : 
; 45   : 	if ( this->m_iMayaObjIndex < 0 || this->m_iMayaObjIndex >= OBJMAX )	// #errot change to OBJMAX-1

  0001c	8b 43 04	 mov	 eax, DWORD PTR [ebx+4]
  0001f	85 c0		 test	 eax, eax
  00021	0f 88 9d 00 00
	00		 js	 $LN7@KanturuMay
  00027	3d ec 2c 00 00	 cmp	 eax, 11500		; 00002cecH
  0002c	0f 8d 92 00 00
	00		 jge	 $LN7@KanturuMay

; 46   : 		return;
; 47   : 
; 48   : 	for ( int iCount=OBJ_STARTUSERINDEX;iCount < OBJMAX;iCount++)

  00032	56		 push	 esi
  00033	57		 push	 edi
  00034	bf 04 29 00 00	 mov	 edi, 10500		; 00002904H
  00039	be 00 dd 49 06	 mov	 esi, 105504000		; 0649dd00H
  0003e	66 90		 npad	 2
$LL4@KanturuMay:

; 49   : 	{
; 50   : 		if ( gObj[iCount].Type == OBJ_USER &&
; 51   : 			 gObjIsConnected(iCount) &&

  00040	a1 00 00 00 00	 mov	 eax, DWORD PTR ?gObj@@3PAUOBJECTSTRUCT@@A ; gObj
  00045	80 7c 06 50 01	 cmp	 BYTE PTR [esi+eax+80], 1
  0004a	75 41		 jne	 SHORT $LN2@KanturuMay
  0004c	57		 push	 edi
  0004d	e8 00 00 00 00	 call	 ?gObjIsConnected@@YAHH@Z ; gObjIsConnected
  00052	83 c4 04	 add	 esp, 4
  00055	85 c0		 test	 eax, eax
  00057	74 34		 je	 SHORT $LN2@KanturuMay
  00059	a1 00 00 00 00	 mov	 eax, DWORD PTR ?gObj@@3PAUOBJECTSTRUCT@@A ; gObj
  0005e	80 bc 06 23 01
	00 00 27	 cmp	 BYTE PTR [esi+eax+291], 39 ; 00000027H
  00066	75 25		 jne	 SHORT $LN2@KanturuMay

; 52   : 			 gObj[iCount].MapNumber == MAP_INDEX_KANTURU_BOSS )
; 53   : 		{
; 54   : 			KANTURU_UTIL.NotifyKanturuWideAreaAttack(this->m_iMayaObjIndex, iCount, 0);

  00068	6a 00		 push	 0
  0006a	57		 push	 edi
  0006b	ff 73 04	 push	 DWORD PTR [ebx+4]
  0006e	b9 00 00 00 00	 mov	 ecx, OFFSET ?KANTURU_UTIL@@3VCKanturuUtil@@A
  00073	e8 00 00 00 00	 call	 ?NotifyKanturuWideAreaAttack@CKanturuUtil@@QAEXHHH@Z ; CKanturuUtil::NotifyKanturuWideAreaAttack

; 55   : 			TMonsterSkillManager::UseMonsterSkill(this->m_iMayaObjIndex, iCount, 31,-1,0);

  00078	6a 00		 push	 0
  0007a	6a ff		 push	 -1
  0007c	6a 1f		 push	 31			; 0000001fH
  0007e	57		 push	 edi
  0007f	ff 73 04	 push	 DWORD PTR [ebx+4]
  00082	e8 00 00 00 00	 call	 ?UseMonsterSkill@TMonsterSkillManager@@SAXHHHHPAVCMagicInf@@@Z ; TMonsterSkillManager::UseMonsterSkill
  00087	83 c4 14	 add	 esp, 20			; 00000014H

; 56   : 			this->m_iIceStormCount++;

  0008a	ff 43 10	 inc	 DWORD PTR [ebx+16]
$LN2@KanturuMay:

; 46   : 		return;
; 47   : 
; 48   : 	for ( int iCount=OBJ_STARTUSERINDEX;iCount < OBJMAX;iCount++)

  0008d	81 c6 40 27 00
	00		 add	 esi, 10048		; 00002740H
  00093	47		 inc	 edi
  00094	81 fe 00 2f e3
	06		 cmp	 esi, 115552000		; 06e32f00H
  0009a	7c a4		 jl	 SHORT $LL4@KanturuMay

; 57   : 		}
; 58   : 	}
; 59   : 
; 60   : 	LogAddTD("[ KANTURU ][ IceStorm ] Skill Using(%d) : Index(%d) %s",

  0009c	8b 53 04	 mov	 edx, DWORD PTR [ebx+4]
  0009f	a1 00 00 00 00	 mov	 eax, DWORD PTR ?gObj@@3PAUOBJECTSTRUCT@@A ; gObj
  000a4	69 ca 40 27 00
	00		 imul	 ecx, edx, 10048
  000aa	83 c0 5d	 add	 eax, 93			; 0000005dH
  000ad	03 c1		 add	 eax, ecx
  000af	50		 push	 eax
  000b0	52		 push	 edx
  000b1	ff 73 10	 push	 DWORD PTR [ebx+16]
  000b4	68 00 00 00 00	 push	 OFFSET ??_C@_0DH@CAACFEFI@?$FL?5KANTURU?5?$FN?$FL?5IceStorm?5?$FN?5Skill?5Us@
  000b9	ff 15 00 00 00
	00		 call	 DWORD PTR ?LogAddTD@@3P6AXPADZZA ; LogAddTD
  000bf	83 c4 10	 add	 esp, 16			; 00000010H
  000c2	5f		 pop	 edi
  000c3	5e		 pop	 esi
$LN7@KanturuMay:
  000c4	5b		 pop	 ebx

; 61   : 		this->m_iIceStormCount, this->m_iMayaObjIndex, gObj[this->m_iMayaObjIndex].Name);
; 62   : }

  000c5	5d		 pop	 ebp
  000c6	c2 04 00	 ret	 4
?KanturuMayaAct_IceStorm@CKanturuMaya@@QAEXH@Z ENDP	; CKanturuMaya::KanturuMayaAct_IceStorm
_TEXT	ENDS
; Function compile flags: /Ogtp
; File c:\users\michel\desktop\source\gameserver\source\kanturumaya.cpp
;	COMDAT ?Init@CKanturuMaya@@QAEXXZ
_TEXT	SEGMENT
?Init@CKanturuMaya@@QAEXXZ PROC				; CKanturuMaya::Init, COMDAT
; _this$ = ecx

; 34   : 	this->m_iMayaObjIndex = -1;

  00000	c7 41 04 ff ff
	ff ff		 mov	 DWORD PTR [ecx+4], -1

; 35   : 	this->m_iMayaSkillTime = 0;

  00007	c7 41 0c 00 00
	00 00		 mov	 DWORD PTR [ecx+12], 0

; 36   : 	this->m_iIceStormCount = 0;

  0000e	c7 41 10 00 00
	00 00		 mov	 DWORD PTR [ecx+16], 0

; 37   : }

  00015	c3		 ret	 0
?Init@CKanturuMaya@@QAEXXZ ENDP				; CKanturuMaya::Init
_TEXT	ENDS
; Function compile flags: /Ogtp
; File c:\users\michel\desktop\source\gameserver\source\kanturumaya.cpp
;	COMDAT ??1CKanturuMaya@@UAE@XZ
_TEXT	SEGMENT
??1CKanturuMaya@@UAE@XZ PROC				; CKanturuMaya::~CKanturuMaya, COMDAT
; _this$ = ecx

; 27   : {

  00000	c7 01 00 00 00
	00		 mov	 DWORD PTR [ecx], OFFSET ??_7CKanturuMaya@@6B@

; 28   : 	return;
; 29   : }

  00006	c3		 ret	 0
??1CKanturuMaya@@UAE@XZ ENDP				; CKanturuMaya::~CKanturuMaya
_TEXT	ENDS
; Function compile flags: /Ogtp
; File c:\users\michel\desktop\source\gameserver\source\kanturumaya.cpp
;	COMDAT ??0CKanturuMaya@@QAE@XZ
_TEXT	SEGMENT
??0CKanturuMaya@@QAE@XZ PROC				; CKanturuMaya::CKanturuMaya, COMDAT
; _this$ = ecx

; 22   : {

  00000	56		 push	 esi
  00001	8b f1		 mov	 esi, ecx
  00003	c7 06 00 00 00
	00		 mov	 DWORD PTR [esi], OFFSET ??_7CKanturuMaya@@6B@

; 23   : 	this->Init();

  00009	e8 00 00 00 00	 call	 ?Init@CKanturuMaya@@QAEXXZ ; CKanturuMaya::Init

; 24   : }

  0000e	8b c6		 mov	 eax, esi
  00010	5e		 pop	 esi
  00011	c3		 ret	 0
??0CKanturuMaya@@QAE@XZ ENDP				; CKanturuMaya::CKanturuMaya
_TEXT	ENDS
; Function compile flags: /Ogtp
; File c:\users\michel\desktop\source\gameserver\source\kanturumaya.cpp
;	COMDAT ?__empty_global_delete@@YAXPAXI@Z
_TEXT	SEGMENT
___formal$ = 8						; size = 4
___formal$ = 12						; size = 4
?__empty_global_delete@@YAXPAXI@Z PROC			; __empty_global_delete, COMDAT

  00000	c3		 ret	 0
?__empty_global_delete@@YAXPAXI@Z ENDP			; __empty_global_delete
_TEXT	ENDS
; Function compile flags: /Ogtp
; File c:\users\michel\desktop\source\gameserver\source\kanturumaya.cpp
;	COMDAT ?__empty_global_delete@@YAXPAX@Z
_TEXT	SEGMENT
___formal$ = 8						; size = 4
?__empty_global_delete@@YAXPAX@Z PROC			; __empty_global_delete, COMDAT

; 118  : }

  00000	c3		 ret	 0
?__empty_global_delete@@YAXPAX@Z ENDP			; __empty_global_delete
_TEXT	ENDS
END
