; Listing generated by Microsoft (R) Optimizing Compiler Version 19.00.23506.0 

	TITLE	C:\Users\Michel\Desktop\Source\GameServer\Source\KanturuTowerOfRefinement.cpp
	.686P
	.XMM
	include listing.inc
	.model	flat

INCLUDELIB LIBCMT
INCLUDELIB OLDNAMES

PUBLIC	?__empty_global_delete@@YAXPAX@Z		; __empty_global_delete
PUBLIC	?__empty_global_delete@@YAXPAXI@Z		; __empty_global_delete
PUBLIC	??0CKanturuTowerOfRefinement@@QAE@XZ		; CKanturuTowerOfRefinement::CKanturuTowerOfRefinement
PUBLIC	??1CKanturuTowerOfRefinement@@UAE@XZ		; CKanturuTowerOfRefinement::~CKanturuTowerOfRefinement
PUBLIC	?Init@CKanturuTowerOfRefinement@@QAEXXZ		; CKanturuTowerOfRefinement::Init
PUBLIC	?LoadData@CKanturuTowerOfRefinement@@QAEHPAD@Z	; CKanturuTowerOfRefinement::LoadData
PUBLIC	?ResetAllData@CKanturuTowerOfRefinement@@QAEXXZ	; CKanturuTowerOfRefinement::ResetAllData
PUBLIC	?Run@CKanturuTowerOfRefinement@@QAEXXZ		; CKanturuTowerOfRefinement::Run
PUBLIC	?SetState@CKanturuTowerOfRefinement@@QAEXH@Z	; CKanturuTowerOfRefinement::SetState
PUBLIC	?SetNextState@CKanturuTowerOfRefinement@@QAEXH@Z ; CKanturuTowerOfRefinement::SetNextState
PUBLIC	?SetState_NONE@CKanturuTowerOfRefinement@@QAEXXZ ; CKanturuTowerOfRefinement::SetState_NONE
PUBLIC	?SetState_REVITALIZATION@CKanturuTowerOfRefinement@@QAEXXZ ; CKanturuTowerOfRefinement::SetState_REVITALIZATION
PUBLIC	?SetState_NOTIFY1@CKanturuTowerOfRefinement@@QAEXXZ ; CKanturuTowerOfRefinement::SetState_NOTIFY1
PUBLIC	?SetState_CLOSE@CKanturuTowerOfRefinement@@QAEXXZ ; CKanturuTowerOfRefinement::SetState_CLOSE
PUBLIC	?SetState_NOTIFY2@CKanturuTowerOfRefinement@@QAEXXZ ; CKanturuTowerOfRefinement::SetState_NOTIFY2
PUBLIC	?SetState_END@CKanturuTowerOfRefinement@@QAEXXZ	; CKanturuTowerOfRefinement::SetState_END
PUBLIC	?ProcState_NONE@CKanturuTowerOfRefinement@@QAEXXZ ; CKanturuTowerOfRefinement::ProcState_NONE
PUBLIC	?ProcState_REVITALIZATION@CKanturuTowerOfRefinement@@QAEXXZ ; CKanturuTowerOfRefinement::ProcState_REVITALIZATION
PUBLIC	?ProcState_NOTIFY1@CKanturuTowerOfRefinement@@QAEXXZ ; CKanturuTowerOfRefinement::ProcState_NOTIFY1
PUBLIC	?ProcState_CLOSE@CKanturuTowerOfRefinement@@QAEXXZ ; CKanturuTowerOfRefinement::ProcState_CLOSE
PUBLIC	?ProcState_NOTIFY2@CKanturuTowerOfRefinement@@QAEXXZ ; CKanturuTowerOfRefinement::ProcState_NOTIFY2
PUBLIC	?ProcState_END@CKanturuTowerOfRefinement@@QAEXXZ ; CKanturuTowerOfRefinement::ProcState_END
PUBLIC	?CheckStateTime@CKanturuTowerOfRefinement@@QAEXXZ ; CKanturuTowerOfRefinement::CheckStateTime
PUBLIC	?GetRemainTime@CKanturuTowerOfRefinement@@QAEHXZ ; CKanturuTowerOfRefinement::GetRemainTime
PUBLIC	??_GCKanturuTowerOfRefinement@@UAEPAXI@Z	; CKanturuTowerOfRefinement::`scalar deleting destructor'
PUBLIC	??1OBJECTSTRUCT@@QAE@XZ				; OBJECTSTRUCT::~OBJECTSTRUCT
PUBLIC	??_EOBJECTSTRUCT@@QAEPAXI@Z			; OBJECTSTRUCT::`vector deleting destructor'
PUBLIC	??_C@_00CNPNBAHC@?$AA@				; `string'
PUBLIC	??_7CKanturuTowerOfRefinement@@6B@		; CKanturuTowerOfRefinement::`vftable'
PUBLIC	??_C@_0EF@DFHHJFBD@?$FL?5KANTURU?5?$FN?$FL?5TowerOfRefinement?5?$FN@ ; `string'
PUBLIC	??_C@_01KDCPPGHE@r?$AA@				; `string'
PUBLIC	??_C@_0DC@INOFMPPF@?$FL?5KANTURU?5?$FN?$FL?5TowerOfRefinement?5?$FN@ ; `string'
PUBLIC	??_C@_03JBJLGPFL@end?$AA@			; `string'
PUBLIC	??_C@_0DO@BIBDPNOH@?$FL?5KANTURU?5?$FN?$FL?5TowerOfRefinement?5?$FN@ ; `string'
PUBLIC	??_C@_0DD@ELNIJKJJ@?$FL?5KANTURU?5?$FN?$FL?5TowerOfRefinement?5?$FN@ ; `string'
PUBLIC	??_R0K@8					; unsigned long `RTTI Type Descriptor'
PUBLIC	??_C@_0EH@JMDBALKN@?$FL?5KANTURU?5?$FN?$FL?5TowerOfRefinement?5?$FN@ ; `string'
PUBLIC	??_C@_0DD@IGCDAKFG@?$FL?5KANTURU?5?$FN?$FL?5TowerOfRefinement?5?$FN@ ; `string'
PUBLIC	??_C@_0DN@EPMMEAPN@?$FL?5KANTURU?5?$FN?$FL?5TowerOfRefinement?5?$FN@ ; `string'
PUBLIC	??_C@_0DG@EMELBCOM@?$FL?5KANTURU?5?$FN?$FL?5TowerOfRefinement?5?$FN@ ; `string'
PUBLIC	??_C@_0DE@FEKJLNCC@?$FL?5KANTURU?5?$FN?$FL?5TowerOfRefinement?5?$FN@ ; `string'
PUBLIC	??_C@_0DG@GHGGEBCP@?$FL?5KANTURU?5?$FN?$FL?5TowerOfRefinement?5?$FN@ ; `string'
PUBLIC	??_C@_0DC@NKECDCHD@?$FL?5KANTURU?5?$FN?$FL?5TowerOfRefinement?5?$FN@ ; `string'
PUBLIC	??_C@_0DN@FDKBEMDF@?$FL?5KANTURU?5?$FN?$FL?5TowerOfRefinement?5?$FN@ ; `string'
PUBLIC	??_R4CKanturuTowerOfRefinement@@6B@		; CKanturuTowerOfRefinement::`RTTI Complete Object Locator'
PUBLIC	??_R0?AVCKanturuTowerOfRefinement@@@8		; CKanturuTowerOfRefinement `RTTI Type Descriptor'
PUBLIC	??_R3CKanturuTowerOfRefinement@@8		; CKanturuTowerOfRefinement::`RTTI Class Hierarchy Descriptor'
PUBLIC	??_R2CKanturuTowerOfRefinement@@8		; CKanturuTowerOfRefinement::`RTTI Base Class Array'
PUBLIC	??_R1A@?0A@EA@CKanturuTowerOfRefinement@@8	; CKanturuTowerOfRefinement::`RTTI Base Class Descriptor at (0,-1,0,64)'
EXTRN	??_L@YGXPAXIIP6EX0@Z1@Z:PROC			; `eh vector constructor iterator'
EXTRN	??_M@YGXPAXIIP6EX0@Z@Z:PROC			; `eh vector destructor iterator'
EXTRN	??3@YAXPAXI@Z:PROC				; operator delete
EXTRN	??_V@YAXPAXI@Z:PROC				; operator delete[]
EXTRN	_atexit:PROC
EXTRN	_isalpha:PROC
EXTRN	_isdigit:PROC
EXTRN	_isspace:PROC
EXTRN	_isalnum:PROC
EXTRN	__imp__GetLastError@0:PROC
EXTRN	__imp__GetTickCount@0:PROC
EXTRN	_fclose:PROC
EXTRN	_fgetc:PROC
EXTRN	_fopen:PROC
EXTRN	_getc:PROC
EXTRN	_ungetc:PROC
EXTRN	_atof:PROC
EXTRN	?Get@Message@@QAEPADH@Z:PROC			; Message::Get
EXTRN	??0CKanturuStateInfo@@QAE@XZ:PROC		; CKanturuStateInfo::CKanturuStateInfo
EXTRN	??1CKanturuStateInfo@@UAE@XZ:PROC		; CKanturuStateInfo::~CKanturuStateInfo
EXTRN	??_ECKanturuTowerOfRefinement@@UAEPAXI@Z:PROC	; CKanturuTowerOfRefinement::`vector deleting destructor'
EXTRN	??1CSkillDelay@@UAE@XZ:PROC			; CSkillDelay::~CSkillDelay
EXTRN	?MsgBox@@YAXPADZZ:PROC				; MsgBox
EXTRN	??1TMonsterAIAgro@@UAE@XZ:PROC			; TMonsterAIAgro::~TMonsterAIAgro
EXTRN	?gObjMoveGate@@YAHHH@Z:PROC			; gObjMoveGate
EXTRN	?ResetAllData@CKanturuBattleUserMng@@QAEXXZ:PROC ; CKanturuBattleUserMng::ResetAllData
EXTRN	??0CKanturuUtil@@QAE@XZ:PROC			; CKanturuUtil::CKanturuUtil
EXTRN	??1CKanturuUtil@@UAE@XZ:PROC			; CKanturuUtil::~CKanturuUtil
EXTRN	?NotifyKanturuChangeState@CKanturuUtil@@QAEXHH@Z:PROC ; CKanturuUtil::NotifyKanturuChangeState
EXTRN	?SendMsgKauturuMapUser@CKanturuUtil@@QAAXPADZZ:PROC ; CKanturuUtil::SendMsgKauturuMapUser
EXTRN	@__security_check_cookie@4:PROC
EXTRN	___CxxFrameHandler3:PROC
EXTRN	??_7type_info@@6B@:QWORD			; type_info::`vftable'
EXTRN	?lMsg@@3VMessage@@A:BYTE			; lMsg
EXTRN	?LogAddC@@3P6AXEPADZZA:DWORD			; LogAddC
EXTRN	?LogAddTD@@3P6AXPADZZA:DWORD			; LogAddTD
EXTRN	?gObj@@3PAUOBJECTSTRUCT@@A:DWORD		; gObj
EXTRN	?g_KanturuBattleUserMng@@3VCKanturuBattleUserMng@@A:BYTE ; g_KanturuBattleUserMng
EXTRN	___security_cookie:DWORD
EXTRN	__fltused:DWORD
_BSS	SEGMENT
?SMDFile@@3PAU_iobuf@@A DD 01H DUP (?)			; SMDFile
?TokenNumber@@3MA DD 01H DUP (?)			; TokenNumber
?TokenString@@3PADA DB 064H DUP (?)			; TokenString
?CurrentToken@@3W4SMDToken@@A DD 01H DUP (?)		; CurrentToken
?KANTURU_UTIL@@3VCKanturuUtil@@A DD 01H DUP (?)		; KANTURU_UTIL
_BSS	ENDS
CRT$XCU	SEGMENT
?KANTURU_UTIL$initializer$@@3P6AXXZA DD FLAT:??__EKANTURU_UTIL@@YAXXZ ; KANTURU_UTIL$initializer$
CRT$XCU	ENDS
;	COMDAT ??_R1A@?0A@EA@CKanturuTowerOfRefinement@@8
rdata$r	SEGMENT
??_R1A@?0A@EA@CKanturuTowerOfRefinement@@8 DD FLAT:??_R0?AVCKanturuTowerOfRefinement@@@8 ; CKanturuTowerOfRefinement::`RTTI Base Class Descriptor at (0,-1,0,64)'
	DD	00H
	DD	00H
	DD	0ffffffffH
	DD	00H
	DD	040H
	DD	FLAT:??_R3CKanturuTowerOfRefinement@@8
rdata$r	ENDS
;	COMDAT ??_R2CKanturuTowerOfRefinement@@8
rdata$r	SEGMENT
??_R2CKanturuTowerOfRefinement@@8 DD FLAT:??_R1A@?0A@EA@CKanturuTowerOfRefinement@@8 ; CKanturuTowerOfRefinement::`RTTI Base Class Array'
rdata$r	ENDS
;	COMDAT ??_R3CKanturuTowerOfRefinement@@8
rdata$r	SEGMENT
??_R3CKanturuTowerOfRefinement@@8 DD 00H		; CKanturuTowerOfRefinement::`RTTI Class Hierarchy Descriptor'
	DD	00H
	DD	01H
	DD	FLAT:??_R2CKanturuTowerOfRefinement@@8
rdata$r	ENDS
;	COMDAT ??_R0?AVCKanturuTowerOfRefinement@@@8
data$r	SEGMENT
??_R0?AVCKanturuTowerOfRefinement@@@8 DD FLAT:??_7type_info@@6B@ ; CKanturuTowerOfRefinement `RTTI Type Descriptor'
	DD	00H
	DB	'.?AVCKanturuTowerOfRefinement@@', 00H
data$r	ENDS
;	COMDAT ??_R4CKanturuTowerOfRefinement@@6B@
rdata$r	SEGMENT
??_R4CKanturuTowerOfRefinement@@6B@ DD 00H		; CKanturuTowerOfRefinement::`RTTI Complete Object Locator'
	DD	00H
	DD	00H
	DD	FLAT:??_R0?AVCKanturuTowerOfRefinement@@@8
	DD	FLAT:??_R3CKanturuTowerOfRefinement@@8
rdata$r	ENDS
;	COMDAT ??_C@_0DN@FDKBEMDF@?$FL?5KANTURU?5?$FN?$FL?5TowerOfRefinement?5?$FN@
CONST	SEGMENT
??_C@_0DN@FDKBEMDF@?$FL?5KANTURU?5?$FN?$FL?5TowerOfRefinement?5?$FN@ DB '['
	DB	' KANTURU ][ TowerOfRefinement ] State End:Kick Out [%s][%s]', 00H ; `string'
CONST	ENDS
;	COMDAT ??_C@_0DC@NKECDCHD@?$FL?5KANTURU?5?$FN?$FL?5TowerOfRefinement?5?$FN@
CONST	SEGMENT
??_C@_0DC@NKECDCHD@?$FL?5KANTURU?5?$FN?$FL?5TowerOfRefinement?5?$FN@ DB '['
	DB	' KANTURU ][ TowerOfRefinement ] State(%d) -> END', 00H ; `string'
CONST	ENDS
;	COMDAT ??_C@_0DG@GHGGEBCP@?$FL?5KANTURU?5?$FN?$FL?5TowerOfRefinement?5?$FN@
CONST	SEGMENT
??_C@_0DG@GHGGEBCP@?$FL?5KANTURU?5?$FN?$FL?5TowerOfRefinement?5?$FN@ DB '['
	DB	' KANTURU ][ TowerOfRefinement ] State(%d) -> NOTIFY2', 00H ; `string'
CONST	ENDS
;	COMDAT ??_C@_0DE@FEKJLNCC@?$FL?5KANTURU?5?$FN?$FL?5TowerOfRefinement?5?$FN@
CONST	SEGMENT
??_C@_0DE@FEKJLNCC@?$FL?5KANTURU?5?$FN?$FL?5TowerOfRefinement?5?$FN@ DB '['
	DB	' KANTURU ][ TowerOfRefinement ] State(%d) -> CLOSE', 00H ; `string'
CONST	ENDS
;	COMDAT ??_C@_0DG@EMELBCOM@?$FL?5KANTURU?5?$FN?$FL?5TowerOfRefinement?5?$FN@
CONST	SEGMENT
??_C@_0DG@EMELBCOM@?$FL?5KANTURU?5?$FN?$FL?5TowerOfRefinement?5?$FN@ DB '['
	DB	' KANTURU ][ TowerOfRefinement ] State(%d) -> NOTIFY1', 00H ; `string'
CONST	ENDS
;	COMDAT ??_C@_0DN@EPMMEAPN@?$FL?5KANTURU?5?$FN?$FL?5TowerOfRefinement?5?$FN@
CONST	SEGMENT
??_C@_0DN@EPMMEAPN@?$FL?5KANTURU?5?$FN?$FL?5TowerOfRefinement?5?$FN@ DB '['
	DB	' KANTURU ][ TowerOfRefinement ] State(%d) -> REVITALIZATION', 00H ; `string'
CONST	ENDS
;	COMDAT ??_C@_0DD@IGCDAKFG@?$FL?5KANTURU?5?$FN?$FL?5TowerOfRefinement?5?$FN@
CONST	SEGMENT
??_C@_0DD@IGCDAKFG@?$FL?5KANTURU?5?$FN?$FL?5TowerOfRefinement?5?$FN@ DB '['
	DB	' KANTURU ][ TowerOfRefinement ] State(%d) -> NONE', 00H ; `string'
CONST	ENDS
;	COMDAT ??_C@_0EH@JMDBALKN@?$FL?5KANTURU?5?$FN?$FL?5TowerOfRefinement?5?$FN@
CONST	SEGMENT
??_C@_0EH@JMDBALKN@?$FL?5KANTURU?5?$FN?$FL?5TowerOfRefinement?5?$FN@ DB '['
	DB	' KANTURU ][ TowerOfRefinement ] - Loading Exception Error (%s'
	DB	') File. ', 00H				; `string'
CONST	ENDS
;	COMDAT ??_R0K@8
data$r	SEGMENT
??_R0K@8 DD	FLAT:??_7type_info@@6B@			; unsigned long `RTTI Type Descriptor'
	DD	00H
	DB	'.K', 00H
data$r	ENDS
;	COMDAT ??_C@_0DD@ELNIJKJJ@?$FL?5KANTURU?5?$FN?$FL?5TowerOfRefinement?5?$FN@
CONST	SEGMENT
??_C@_0DD@ELNIJKJJ@?$FL?5KANTURU?5?$FN?$FL?5TowerOfRefinement?5?$FN@ DB '['
	DB	' KANTURU ][ TowerOfRefinement ] %s file is Loaded', 00H ; `string'
CONST	ENDS
;	COMDAT ??_C@_0DO@BIBDPNOH@?$FL?5KANTURU?5?$FN?$FL?5TowerOfRefinement?5?$FN@
CONST	SEGMENT
??_C@_0DO@BIBDPNOH@?$FL?5KANTURU?5?$FN?$FL?5TowerOfRefinement?5?$FN@ DB '['
	DB	' KANTURU ][ TowerOfRefinement ] - Exceed Max State Time (%d)', 00H ; `string'
CONST	ENDS
;	COMDAT ??_C@_03JBJLGPFL@end?$AA@
CONST	SEGMENT
??_C@_03JBJLGPFL@end?$AA@ DB 'end', 00H			; `string'
CONST	ENDS
;	COMDAT ??_C@_0DC@INOFMPPF@?$FL?5KANTURU?5?$FN?$FL?5TowerOfRefinement?5?$FN@
CONST	SEGMENT
??_C@_0DC@INOFMPPF@?$FL?5KANTURU?5?$FN?$FL?5TowerOfRefinement?5?$FN@ DB '['
	DB	' KANTURU ][ TowerOfRefinement ] - Can''t Open %s ', 00H ; `string'
CONST	ENDS
;	COMDAT ??_C@_01KDCPPGHE@r?$AA@
CONST	SEGMENT
??_C@_01KDCPPGHE@r?$AA@ DB 'r', 00H			; `string'
CONST	ENDS
;	COMDAT ??_C@_0EF@DFHHJFBD@?$FL?5KANTURU?5?$FN?$FL?5TowerOfRefinement?5?$FN@
CONST	SEGMENT
??_C@_0EF@DFHHJFBD@?$FL?5KANTURU?5?$FN?$FL?5TowerOfRefinement?5?$FN@ DB '['
	DB	' KANTURU ][ TowerOfRefinement ] - File load error : File Name'
	DB	' Error', 00H				; `string'
CONST	ENDS
;	COMDAT ??_7CKanturuTowerOfRefinement@@6B@
CONST	SEGMENT
??_7CKanturuTowerOfRefinement@@6B@ DD FLAT:??_R4CKanturuTowerOfRefinement@@6B@ ; CKanturuTowerOfRefinement::`vftable'
	DD	FLAT:??_ECKanturuTowerOfRefinement@@UAEPAXI@Z
CONST	ENDS
;	COMDAT ??_C@_00CNPNBAHC@?$AA@
CONST	SEGMENT
??_C@_00CNPNBAHC@?$AA@ DB 00H				; `string'
CONST	ENDS
;	COMDAT xdata$x
xdata$x	SEGMENT
__ehfuncinfo$??_EOBJECTSTRUCT@@QAEPAXI@Z DD 019930522H
	DD	00H
	DD	00H
	DD	2 DUP(00H)
	DD	2 DUP(00H)
	DD	00H
	DD	05H
xdata$x	ENDS
;	COMDAT xdata$x
xdata$x	SEGMENT
__catchsym$?LoadData@CKanturuTowerOfRefinement@@QAEHPAD@Z$2 DD 00H
	DD	FLAT:??_R0K@8
	DD	00H
	DD	FLAT:__catch$?LoadData@CKanturuTowerOfRefinement@@QAEHPAD@Z$0
__unwindtable$?LoadData@CKanturuTowerOfRefinement@@QAEHPAD@Z DD 0ffffffffH
	DD	00H
	DD	0ffffffffH
	DD	00H
__tryblocktable$?LoadData@CKanturuTowerOfRefinement@@QAEHPAD@Z DD 00H
	DD	00H
	DD	01H
	DD	01H
	DD	FLAT:__catchsym$?LoadData@CKanturuTowerOfRefinement@@QAEHPAD@Z$2
__ehfuncinfo$?LoadData@CKanturuTowerOfRefinement@@QAEHPAD@Z DD 019930522H
	DD	02H
	DD	FLAT:__unwindtable$?LoadData@CKanturuTowerOfRefinement@@QAEHPAD@Z
	DD	01H
	DD	FLAT:__tryblocktable$?LoadData@CKanturuTowerOfRefinement@@QAEHPAD@Z
	DD	2 DUP(00H)
	DD	00H
	DD	01H
xdata$x	ENDS
;	COMDAT xdata$x
xdata$x	SEGMENT
__ehfuncinfo$??1CKanturuTowerOfRefinement@@UAE@XZ DD 019930522H
	DD	00H
	DD	00H
	DD	2 DUP(00H)
	DD	2 DUP(00H)
	DD	00H
	DD	05H
xdata$x	ENDS
; Function compile flags: /Ogtp
;	COMDAT ??__FKANTURU_UTIL@@YAXXZ
text$yd	SEGMENT
??__FKANTURU_UTIL@@YAXXZ PROC				; `dynamic atexit destructor for 'KANTURU_UTIL'', COMDAT
  00000	b9 00 00 00 00	 mov	 ecx, OFFSET ?KANTURU_UTIL@@3VCKanturuUtil@@A
  00005	e9 00 00 00 00	 jmp	 ??1CKanturuUtil@@UAE@XZ	; CKanturuUtil::~CKanturuUtil
??__FKANTURU_UTIL@@YAXXZ ENDP				; `dynamic atexit destructor for 'KANTURU_UTIL''
text$yd	ENDS
; Function compile flags: /Ogtp
; File c:\users\michel\desktop\source\gameserver\source\kanturutowerofrefinement.cpp
;	COMDAT ??__EKANTURU_UTIL@@YAXXZ
text$di	SEGMENT
??__EKANTURU_UTIL@@YAXXZ PROC				; `dynamic initializer for 'KANTURU_UTIL'', COMDAT

; 17   : static CKanturuUtil KANTURU_UTIL;

  00000	b9 00 00 00 00	 mov	 ecx, OFFSET ?KANTURU_UTIL@@3VCKanturuUtil@@A
  00005	e8 00 00 00 00	 call	 ??0CKanturuUtil@@QAE@XZ	; CKanturuUtil::CKanturuUtil
  0000a	68 00 00 00 00	 push	 OFFSET ??__FKANTURU_UTIL@@YAXXZ ; `dynamic atexit destructor for 'KANTURU_UTIL''
  0000f	e8 00 00 00 00	 call	 _atexit
  00014	59		 pop	 ecx
  00015	c3		 ret	 0
??__EKANTURU_UTIL@@YAXXZ ENDP				; `dynamic initializer for 'KANTURU_UTIL''
text$di	ENDS
; Function compile flags: /Ogtp
; File c:\users\michel\desktop\source\gameserver\include\readscript.h
;	COMDAT ?GetToken@@YA?AW4SMDToken@@XZ
_TEXT	SEGMENT
_TempString$ = -104					; size = 100
__$ArrayPad$ = -4					; size = 4
?GetToken@@YA?AW4SMDToken@@XZ PROC			; GetToken, COMDAT

; 24   : {

  00000	55		 push	 ebp
  00001	8b ec		 mov	 ebp, esp
  00003	83 ec 68	 sub	 esp, 104		; 00000068H
  00006	a1 00 00 00 00	 mov	 eax, DWORD PTR ___security_cookie
  0000b	33 c5		 xor	 eax, ebp
  0000d	89 45 fc	 mov	 DWORD PTR __$ArrayPad$[ebp], eax

; 25   : 	int ch;
; 26   : 	char* p;
; 27   : 	char TempString[100];
; 28   : 
; 29   : 	TokenString[0]=0;

  00010	c6 05 00 00 00
	00 00		 mov	 BYTE PTR ?TokenString@@3PADA, 0
  00017	53		 push	 ebx
  00018	0f 1f 84 00 00
	00 00 00	 npad	 8
$LL4@GetToken:

; 30   : 
; 31   : 	do
; 32   : 	{
; 33   : 		if ((ch=fgetc(SMDFile)) == -1)

  00020	ff 35 00 00 00
	00		 push	 DWORD PTR ?SMDFile@@3PAU_iobuf@@A
  00026	e8 00 00 00 00	 call	 _fgetc
  0002b	8b d8		 mov	 ebx, eax
  0002d	83 c4 04	 add	 esp, 4
  00030	83 fb ff	 cmp	 ebx, -1
  00033	74 5d		 je	 SHORT $LN43@GetToken

; 34   : 		{
; 35   : 			return END;	// End of FILE (EOF)
; 36   : 		}
; 37   : 		else
; 38   : 		{	
; 39   : 			if (ch=='/')		// this is /

  00035	83 fb 2f	 cmp	 ebx, 47			; 0000002fH
  00038	75 30		 jne	 SHORT $LN2@GetToken

; 40   : 			{
; 41   : 				if((ch=fgetc(SMDFile)) == '/')

  0003a	ff 35 00 00 00
	00		 push	 DWORD PTR ?SMDFile@@3PAU_iobuf@@A
  00040	e8 00 00 00 00	 call	 _fgetc
  00045	8b d8		 mov	 ebx, eax
  00047	83 c4 04	 add	 esp, 4
  0004a	83 fb 2f	 cmp	 ebx, 47			; 0000002fH
  0004d	75 1b		 jne	 SHORT $LN2@GetToken
  0004f	90		 npad	 1
$LL5@GetToken:

; 42   : 				{
; 43   : 					while ((ch != '\n') && (ch != -1))	// End of Line (EOL)

  00050	83 fb ff	 cmp	 ebx, -1
  00053	74 3d		 je	 SHORT $LN43@GetToken

; 44   : 					{
; 45   : 						ch=fgetc(SMDFile);

  00055	ff 35 00 00 00
	00		 push	 DWORD PTR ?SMDFile@@3PAU_iobuf@@A
  0005b	e8 00 00 00 00	 call	 _fgetc
  00060	8b d8		 mov	 ebx, eax
  00062	83 c4 04	 add	 esp, 4
  00065	83 fb 0a	 cmp	 ebx, 10			; 0000000aH
  00068	75 e6		 jne	 SHORT $LL5@GetToken
$LN2@GetToken:

; 51   : 					}
; 52   : 				}
; 53   : 			}
; 54   : 		}
; 55   : 	}
; 56   : 	while (isspace(ch) != 0);

  0006a	53		 push	 ebx
  0006b	e8 00 00 00 00	 call	 _isspace
  00070	83 c4 04	 add	 esp, 4
  00073	85 c0		 test	 eax, eax
  00075	75 a9		 jne	 SHORT $LL4@GetToken

; 57   : 
; 58   : 	
; 59   : 	switch(ch)

  00077	8d 43 de	 lea	 eax, DWORD PTR [ebx-34]
  0007a	56		 push	 esi
  0007b	83 f8 5b	 cmp	 eax, 91			; 0000005bH
  0007e	0f 87 89 01 00
	00		 ja	 $LN29@GetToken
  00084	0f b6 80 00 00
	00 00		 movzx	 eax, BYTE PTR $LN58@GetToken[eax]
  0008b	ff 24 85 00 00
	00 00		 jmp	 DWORD PTR $LN64@GetToken[eax*4]
$LN43@GetToken:

; 46   : 					}
; 47   : 	
; 48   : 					if (ch == -1)
; 49   : 					{
; 50   : 						return END;	// End of FILE

  00092	b8 02 00 00 00	 mov	 eax, 2
  00097	5b		 pop	 ebx

; 143  : 		}
; 144  : 		else
; 145  : 		{
; 146  : 			return CurrentToken = SMD_ERROR; // '<'
; 147  : 		}
; 148  : 		break;
; 149  : 
; 150  : 	}
; 151  : 
; 152  : 	return NAME;
; 153  : }

  00098	8b 4d fc	 mov	 ecx, DWORD PTR __$ArrayPad$[ebp]
  0009b	33 cd		 xor	 ecx, ebp
  0009d	e8 00 00 00 00	 call	 @__security_check_cookie@4
  000a2	8b e5		 mov	 esp, ebp
  000a4	5d		 pop	 ebp
  000a5	c3		 ret	 0
$LN20@GetToken:
  000a6	5e		 pop	 esi

; 60   : 	{
; 61   : 
; 62   : 	case 0x23:	// #
; 63   : 		return CurrentToken=COMMAND;

  000a7	c7 05 00 00 00
	00 23 00 00 00	 mov	 DWORD PTR ?CurrentToken@@3W4SMDToken@@A, 35 ; 00000023H
  000b1	b8 23 00 00 00	 mov	 eax, 35			; 00000023H
  000b6	5b		 pop	 ebx

; 143  : 		}
; 144  : 		else
; 145  : 		{
; 146  : 			return CurrentToken = SMD_ERROR; // '<'
; 147  : 		}
; 148  : 		break;
; 149  : 
; 150  : 	}
; 151  : 
; 152  : 	return NAME;
; 153  : }

  000b7	8b 4d fc	 mov	 ecx, DWORD PTR __$ArrayPad$[ebp]
  000ba	33 cd		 xor	 ecx, ebp
  000bc	e8 00 00 00 00	 call	 @__security_check_cookie@4
  000c1	8b e5		 mov	 esp, ebp
  000c3	5d		 pop	 ebp
  000c4	c3		 ret	 0
$LN21@GetToken:
  000c5	5e		 pop	 esi

; 64   : 		break;
; 65   : 	
; 66   : 	case 0x3B:	// ;
; 67   : 		return CurrentToken=SEMICOLON;

  000c6	c7 05 00 00 00
	00 3b 00 00 00	 mov	 DWORD PTR ?CurrentToken@@3W4SMDToken@@A, 59 ; 0000003bH
  000d0	b8 3b 00 00 00	 mov	 eax, 59			; 0000003bH
  000d5	5b		 pop	 ebx

; 143  : 		}
; 144  : 		else
; 145  : 		{
; 146  : 			return CurrentToken = SMD_ERROR; // '<'
; 147  : 		}
; 148  : 		break;
; 149  : 
; 150  : 	}
; 151  : 
; 152  : 	return NAME;
; 153  : }

  000d6	8b 4d fc	 mov	 ecx, DWORD PTR __$ArrayPad$[ebp]
  000d9	33 cd		 xor	 ecx, ebp
  000db	e8 00 00 00 00	 call	 @__security_check_cookie@4
  000e0	8b e5		 mov	 esp, ebp
  000e2	5d		 pop	 ebp
  000e3	c3		 ret	 0
$LN22@GetToken:
  000e4	5e		 pop	 esi

; 68   : 		break;
; 69   : 	
; 70   : 	case 0x2C:	// ,
; 71   : 
; 72   : 		return CurrentToken=COMMA;

  000e5	c7 05 00 00 00
	00 2c 00 00 00	 mov	 DWORD PTR ?CurrentToken@@3W4SMDToken@@A, 44 ; 0000002cH
  000ef	b8 2c 00 00 00	 mov	 eax, 44			; 0000002cH
  000f4	5b		 pop	 ebx

; 143  : 		}
; 144  : 		else
; 145  : 		{
; 146  : 			return CurrentToken = SMD_ERROR; // '<'
; 147  : 		}
; 148  : 		break;
; 149  : 
; 150  : 	}
; 151  : 
; 152  : 	return NAME;
; 153  : }

  000f5	8b 4d fc	 mov	 ecx, DWORD PTR __$ArrayPad$[ebp]
  000f8	33 cd		 xor	 ecx, ebp
  000fa	e8 00 00 00 00	 call	 @__security_check_cookie@4
  000ff	8b e5		 mov	 esp, ebp
  00101	5d		 pop	 ebp
  00102	c3		 ret	 0
$LN23@GetToken:
  00103	5e		 pop	 esi

; 73   : 		break;
; 74   : 	
; 75   : 	case 0x7B:	// {
; 76   : 		return CurrentToken = LP;

  00104	c7 05 00 00 00
	00 7b 00 00 00	 mov	 DWORD PTR ?CurrentToken@@3W4SMDToken@@A, 123 ; 0000007bH
  0010e	b8 7b 00 00 00	 mov	 eax, 123		; 0000007bH
  00113	5b		 pop	 ebx

; 143  : 		}
; 144  : 		else
; 145  : 		{
; 146  : 			return CurrentToken = SMD_ERROR; // '<'
; 147  : 		}
; 148  : 		break;
; 149  : 
; 150  : 	}
; 151  : 
; 152  : 	return NAME;
; 153  : }

  00114	8b 4d fc	 mov	 ecx, DWORD PTR __$ArrayPad$[ebp]
  00117	33 cd		 xor	 ecx, ebp
  00119	e8 00 00 00 00	 call	 @__security_check_cookie@4
  0011e	8b e5		 mov	 esp, ebp
  00120	5d		 pop	 ebp
  00121	c3		 ret	 0
$LN24@GetToken:
  00122	5e		 pop	 esi

; 77   : 		break;
; 78   : 
; 79   : 	case 0x7D:	// }
; 80   : 		return CurrentToken = RP;

  00123	c7 05 00 00 00
	00 7d 00 00 00	 mov	 DWORD PTR ?CurrentToken@@3W4SMDToken@@A, 125 ; 0000007dH
  0012d	b8 7d 00 00 00	 mov	 eax, 125		; 0000007dH
  00132	5b		 pop	 ebx

; 143  : 		}
; 144  : 		else
; 145  : 		{
; 146  : 			return CurrentToken = SMD_ERROR; // '<'
; 147  : 		}
; 148  : 		break;
; 149  : 
; 150  : 	}
; 151  : 
; 152  : 	return NAME;
; 153  : }

  00133	8b 4d fc	 mov	 ecx, DWORD PTR __$ArrayPad$[ebp]
  00136	33 cd		 xor	 ecx, ebp
  00138	e8 00 00 00 00	 call	 @__security_check_cookie@4
  0013d	8b e5		 mov	 esp, ebp
  0013f	5d		 pop	 ebp
  00140	c3		 ret	 0
$LN25@GetToken:

; 81   : 		break;
; 82   : 	// Nice Index Table :)	by Deathway
; 83   : 	// Numbers Case
; 84   : 	case 0x2D:	//-
; 85   : 	case 0x2E:	//.
; 86   : 	case '0':	//0
; 87   : 	case '1':	//1
; 88   : 	case '2':	//2
; 89   : 	case '3':	//3
; 90   : 	case '4':	//4		
; 91   : 	case '5':	//5
; 92   : 	case '6':	//6
; 93   : 	case '7':	//7
; 94   : 	case '8':	//8
; 95   : 	case '9':	//9
; 96   : 		ungetc(ch, SMDFile);

  00141	ff 35 00 00 00
	00		 push	 DWORD PTR ?SMDFile@@3PAU_iobuf@@A
  00147	53		 push	 ebx
  00148	e8 00 00 00 00	 call	 _ungetc

; 97   : 		p = TempString;
; 98   : 		
; 99   : 		while (((ch=getc(SMDFile)) != -1) && ((ch == 0x2E) || (isdigit(ch) != 0) || (ch == 0x2D)))  // 2e '.'  2D '-'

  0014d	ff 35 00 00 00
	00		 push	 DWORD PTR ?SMDFile@@3PAU_iobuf@@A
  00153	8d 75 98	 lea	 esi, DWORD PTR _TempString$[ebp]
  00156	e8 00 00 00 00	 call	 _getc
  0015b	8b d8		 mov	 ebx, eax
  0015d	83 c4 0c	 add	 esp, 12			; 0000000cH
  00160	83 fb ff	 cmp	 ebx, -1
  00163	74 2f		 je	 SHORT $LN59@GetToken
$LL9@GetToken:
  00165	83 fb 2e	 cmp	 ebx, 46			; 0000002eH
  00168	74 12		 je	 SHORT $LN26@GetToken
  0016a	53		 push	 ebx
  0016b	e8 00 00 00 00	 call	 _isdigit
  00170	83 c4 04	 add	 esp, 4
  00173	85 c0		 test	 eax, eax
  00175	75 05		 jne	 SHORT $LN26@GetToken
  00177	83 fb 2d	 cmp	 ebx, 45			; 0000002dH
  0017a	75 18		 jne	 SHORT $LN59@GetToken
$LN26@GetToken:
  0017c	ff 35 00 00 00
	00		 push	 DWORD PTR ?SMDFile@@3PAU_iobuf@@A

; 100  : 		{
; 101  : 			*p = ch;	// Construct a String

  00182	88 1e		 mov	 BYTE PTR [esi], bl

; 102  : 			p++;

  00184	46		 inc	 esi
  00185	e8 00 00 00 00	 call	 _getc
  0018a	8b d8		 mov	 ebx, eax
  0018c	83 c4 04	 add	 esp, 4
  0018f	83 fb ff	 cmp	 ebx, -1
  00192	75 d1		 jne	 SHORT $LL9@GetToken
$LN59@GetToken:

; 103  : 		}		
; 104  : 		*p = 0;
; 105  : 		TokenNumber = (float)atof( TempString);	// Select the first Byte as Main ID

  00194	8d 45 98	 lea	 eax, DWORD PTR _TempString$[ebp]
  00197	c6 06 00	 mov	 BYTE PTR [esi], 0
  0019a	50		 push	 eax
  0019b	e8 00 00 00 00	 call	 _atof
  001a0	83 c4 04	 add	 esp, 4

; 106  : 		return CurrentToken  = NUMBER ;

  001a3	c7 05 00 00 00
	00 01 00 00 00	 mov	 DWORD PTR ?CurrentToken@@3W4SMDToken@@A, 1
  001ad	d9 1d 00 00 00
	00		 fstp	 DWORD PTR ?TokenNumber@@3MA
  001b3	b8 01 00 00 00	 mov	 eax, 1
  001b8	5e		 pop	 esi
  001b9	5b		 pop	 ebx

; 143  : 		}
; 144  : 		else
; 145  : 		{
; 146  : 			return CurrentToken = SMD_ERROR; // '<'
; 147  : 		}
; 148  : 		break;
; 149  : 
; 150  : 	}
; 151  : 
; 152  : 	return NAME;
; 153  : }

  001ba	8b 4d fc	 mov	 ecx, DWORD PTR __$ArrayPad$[ebp]
  001bd	33 cd		 xor	 ecx, ebp
  001bf	e8 00 00 00 00	 call	 @__security_check_cookie@4
  001c4	8b e5		 mov	 esp, ebp
  001c6	5d		 pop	 ebp
  001c7	c3		 ret	 0
$LN27@GetToken:

; 107  : 		break;
; 108  : 
; 109  : 	case '\"':	// "	String Case
; 110  : 		p=&TokenString[0];
; 111  : 		
; 112  : 		while (((ch=getc(SMDFile)) != -1 ) && (ch != 0x22))	// nice

  001c8	ff 35 00 00 00
	00		 push	 DWORD PTR ?SMDFile@@3PAU_iobuf@@A
  001ce	be 00 00 00 00	 mov	 esi, OFFSET ?TokenString@@3PADA
  001d3	e8 00 00 00 00	 call	 _getc
  001d8	83 c4 04	 add	 esp, 4
  001db	83 f8 ff	 cmp	 eax, -1
  001de	74 1f		 je	 SHORT $LN12@GetToken
$LL11@GetToken:
  001e0	83 f8 22	 cmp	 eax, 34			; 00000022H
  001e3	0f 84 95 00 00
	00		 je	 $LN28@GetToken
  001e9	ff 35 00 00 00
	00		 push	 DWORD PTR ?SMDFile@@3PAU_iobuf@@A

; 113  : 		{
; 114  : 			*p = ch;

  001ef	88 06		 mov	 BYTE PTR [esi], al

; 115  : 			p++;

  001f1	46		 inc	 esi
  001f2	e8 00 00 00 00	 call	 _getc
  001f7	83 c4 04	 add	 esp, 4
  001fa	83 f8 ff	 cmp	 eax, -1
  001fd	75 e1		 jne	 SHORT $LL11@GetToken
$LN12@GetToken:

; 116  : 		}
; 117  : 		if (ch != 0x22 )

  001ff	83 f8 22	 cmp	 eax, 34			; 00000022H
  00202	74 7a		 je	 SHORT $LN28@GetToken

; 118  : 		{
; 119  : 			ungetc(ch, SMDFile);

  00204	ff 35 00 00 00
	00		 push	 DWORD PTR ?SMDFile@@3PAU_iobuf@@A
  0020a	50		 push	 eax

; 120  : 		}
; 121  : 		*p = 0;
; 122  : 		return CurrentToken = NAME;

  0020b	eb 69		 jmp	 SHORT $LN62@GetToken
$LN29@GetToken:

; 123  : 		break;
; 124  : 
; 125  : 	default:	// Others
; 126  : 		if (isalpha(ch))

  0020d	53		 push	 ebx
  0020e	e8 00 00 00 00	 call	 _isalpha
  00213	83 c4 04	 add	 esp, 4
  00216	85 c0		 test	 eax, eax
  00218	0f 84 7f 00 00
	00		 je	 $LN30@GetToken

; 127  : 		{
; 128  : 			p=&TokenString[0];
; 129  : 			*p=ch;
; 130  : 			p++;
; 131  : 
; 132  : 			while ( ((ch=getc(SMDFile)) != -1) && ( (ch == 0x2E) || (ch == 0x5F) || (isalnum(ch) != 0) ) )

  0021e	ff 35 00 00 00
	00		 push	 DWORD PTR ?SMDFile@@3PAU_iobuf@@A
  00224	88 1d 00 00 00
	00		 mov	 BYTE PTR ?TokenString@@3PADA, bl
  0022a	be 01 00 00 00	 mov	 esi, OFFSET ?TokenString@@3PADA+1
  0022f	e8 00 00 00 00	 call	 _getc
  00234	8b d8		 mov	 ebx, eax
  00236	83 c4 04	 add	 esp, 4
  00239	83 fb ff	 cmp	 ebx, -1
  0023c	74 31		 je	 SHORT $LN60@GetToken
  0023e	66 90		 npad	 2
$LL13@GetToken:
  00240	83 fb 2e	 cmp	 ebx, 46			; 0000002eH
  00243	74 12		 je	 SHORT $LN32@GetToken
  00245	83 fb 5f	 cmp	 ebx, 95			; 0000005fH
  00248	74 0d		 je	 SHORT $LN32@GetToken
  0024a	53		 push	 ebx
  0024b	e8 00 00 00 00	 call	 _isalnum
  00250	83 c4 04	 add	 esp, 4
  00253	85 c0		 test	 eax, eax
  00255	74 18		 je	 SHORT $LN60@GetToken
$LN32@GetToken:
  00257	ff 35 00 00 00
	00		 push	 DWORD PTR ?SMDFile@@3PAU_iobuf@@A

; 133  : 			{
; 134  : 				*p=ch;

  0025d	88 1e		 mov	 BYTE PTR [esi], bl

; 135  : 				p++;

  0025f	46		 inc	 esi
  00260	e8 00 00 00 00	 call	 _getc
  00265	8b d8		 mov	 ebx, eax
  00267	83 c4 04	 add	 esp, 4
  0026a	83 fb ff	 cmp	 ebx, -1
  0026d	75 d1		 jne	 SHORT $LL13@GetToken
$LN60@GetToken:

; 136  : 				
; 137  : 			}
; 138  : 
; 139  : 			ungetc(ch, SMDFile);

  0026f	ff 35 00 00 00
	00		 push	 DWORD PTR ?SMDFile@@3PAU_iobuf@@A
  00275	53		 push	 ebx
$LN62@GetToken:
  00276	e8 00 00 00 00	 call	 _ungetc
  0027b	83 c4 08	 add	 esp, 8
$LN28@GetToken:

; 140  : 			*p=0;

  0027e	c6 06 00	 mov	 BYTE PTR [esi], 0

; 141  : 			CurrentToken=NAME;
; 142  : 			return CurrentToken;

  00281	33 c0		 xor	 eax, eax
  00283	5e		 pop	 esi
  00284	c7 05 00 00 00
	00 00 00 00 00	 mov	 DWORD PTR ?CurrentToken@@3W4SMDToken@@A, 0
  0028e	5b		 pop	 ebx

; 143  : 		}
; 144  : 		else
; 145  : 		{
; 146  : 			return CurrentToken = SMD_ERROR; // '<'
; 147  : 		}
; 148  : 		break;
; 149  : 
; 150  : 	}
; 151  : 
; 152  : 	return NAME;
; 153  : }

  0028f	8b 4d fc	 mov	 ecx, DWORD PTR __$ArrayPad$[ebp]
  00292	33 cd		 xor	 ecx, ebp
  00294	e8 00 00 00 00	 call	 @__security_check_cookie@4
  00299	8b e5		 mov	 esp, ebp
  0029b	5d		 pop	 ebp
  0029c	c3		 ret	 0
$LN30@GetToken:
  0029d	8b 4d fc	 mov	 ecx, DWORD PTR __$ArrayPad$[ebp]
  002a0	b8 3c 00 00 00	 mov	 eax, 60			; 0000003cH
  002a5	5e		 pop	 esi
  002a6	33 cd		 xor	 ecx, ebp
  002a8	c7 05 00 00 00
	00 3c 00 00 00	 mov	 DWORD PTR ?CurrentToken@@3W4SMDToken@@A, 60 ; 0000003cH
  002b2	5b		 pop	 ebx
  002b3	e8 00 00 00 00	 call	 @__security_check_cookie@4
  002b8	8b e5		 mov	 esp, ebp
  002ba	5d		 pop	 ebp
  002bb	c3		 ret	 0
$LN64@GetToken:
  002bc	00 00 00 00	 DD	 $LN27@GetToken
  002c0	00 00 00 00	 DD	 $LN20@GetToken
  002c4	00 00 00 00	 DD	 $LN22@GetToken
  002c8	00 00 00 00	 DD	 $LN25@GetToken
  002cc	00 00 00 00	 DD	 $LN21@GetToken
  002d0	00 00 00 00	 DD	 $LN23@GetToken
  002d4	00 00 00 00	 DD	 $LN24@GetToken
  002d8	00 00 00 00	 DD	 $LN29@GetToken
$LN58@GetToken:
  002dc	00		 DB	 0
  002dd	01		 DB	 1
  002de	07		 DB	 7
  002df	07		 DB	 7
  002e0	07		 DB	 7
  002e1	07		 DB	 7
  002e2	07		 DB	 7
  002e3	07		 DB	 7
  002e4	07		 DB	 7
  002e5	07		 DB	 7
  002e6	02		 DB	 2
  002e7	03		 DB	 3
  002e8	03		 DB	 3
  002e9	07		 DB	 7
  002ea	03		 DB	 3
  002eb	03		 DB	 3
  002ec	03		 DB	 3
  002ed	03		 DB	 3
  002ee	03		 DB	 3
  002ef	03		 DB	 3
  002f0	03		 DB	 3
  002f1	03		 DB	 3
  002f2	03		 DB	 3
  002f3	03		 DB	 3
  002f4	07		 DB	 7
  002f5	04		 DB	 4
  002f6	07		 DB	 7
  002f7	07		 DB	 7
  002f8	07		 DB	 7
  002f9	07		 DB	 7
  002fa	07		 DB	 7
  002fb	07		 DB	 7
  002fc	07		 DB	 7
  002fd	07		 DB	 7
  002fe	07		 DB	 7
  002ff	07		 DB	 7
  00300	07		 DB	 7
  00301	07		 DB	 7
  00302	07		 DB	 7
  00303	07		 DB	 7
  00304	07		 DB	 7
  00305	07		 DB	 7
  00306	07		 DB	 7
  00307	07		 DB	 7
  00308	07		 DB	 7
  00309	07		 DB	 7
  0030a	07		 DB	 7
  0030b	07		 DB	 7
  0030c	07		 DB	 7
  0030d	07		 DB	 7
  0030e	07		 DB	 7
  0030f	07		 DB	 7
  00310	07		 DB	 7
  00311	07		 DB	 7
  00312	07		 DB	 7
  00313	07		 DB	 7
  00314	07		 DB	 7
  00315	07		 DB	 7
  00316	07		 DB	 7
  00317	07		 DB	 7
  00318	07		 DB	 7
  00319	07		 DB	 7
  0031a	07		 DB	 7
  0031b	07		 DB	 7
  0031c	07		 DB	 7
  0031d	07		 DB	 7
  0031e	07		 DB	 7
  0031f	07		 DB	 7
  00320	07		 DB	 7
  00321	07		 DB	 7
  00322	07		 DB	 7
  00323	07		 DB	 7
  00324	07		 DB	 7
  00325	07		 DB	 7
  00326	07		 DB	 7
  00327	07		 DB	 7
  00328	07		 DB	 7
  00329	07		 DB	 7
  0032a	07		 DB	 7
  0032b	07		 DB	 7
  0032c	07		 DB	 7
  0032d	07		 DB	 7
  0032e	07		 DB	 7
  0032f	07		 DB	 7
  00330	07		 DB	 7
  00331	07		 DB	 7
  00332	07		 DB	 7
  00333	07		 DB	 7
  00334	07		 DB	 7
  00335	05		 DB	 5
  00336	07		 DB	 7
  00337	06		 DB	 6
?GetToken@@YA?AW4SMDToken@@XZ ENDP			; GetToken
_TEXT	ENDS
; Function compile flags: /Ogtp
;	COMDAT ??_EOBJECTSTRUCT@@QAEPAXI@Z
_TEXT	SEGMENT
__$EHRec$ = -12						; size = 12
___flags$ = 8						; size = 4
??_EOBJECTSTRUCT@@QAEPAXI@Z PROC			; OBJECTSTRUCT::`vector deleting destructor', COMDAT
; _this$ = ecx
  00000	55		 push	 ebp
  00001	8b ec		 mov	 ebp, esp
  00003	6a ff		 push	 -1
  00005	68 00 00 00 00	 push	 __ehhandler$??_EOBJECTSTRUCT@@QAEPAXI@Z
  0000a	64 a1 00 00 00
	00		 mov	 eax, DWORD PTR fs:0
  00010	50		 push	 eax
  00011	53		 push	 ebx
  00012	56		 push	 esi
  00013	57		 push	 edi
  00014	a1 00 00 00 00	 mov	 eax, DWORD PTR ___security_cookie
  00019	33 c5		 xor	 eax, ebp
  0001b	50		 push	 eax
  0001c	8d 45 f4	 lea	 eax, DWORD PTR __$EHRec$[ebp]
  0001f	64 a3 00 00 00
	00		 mov	 DWORD PTR fs:0, eax
  00025	8b f1		 mov	 esi, ecx
  00027	8b 5d 08	 mov	 ebx, DWORD PTR ___flags$[ebp]
  0002a	f6 c3 02	 test	 bl, 2
  0002d	74 44		 je	 SHORT $LN2@vector
  0002f	68 00 00 00 00	 push	 OFFSET ??1OBJECTSTRUCT@@QAE@XZ
  00034	ff 76 fc	 push	 DWORD PTR [esi-4]
  00037	8d 7e fc	 lea	 edi, DWORD PTR [esi-4]
  0003a	68 40 27 00 00	 push	 10048			; 00002740H
  0003f	56		 push	 esi
  00040	e8 00 00 00 00	 call	 ??_M@YGXPAXIIP6EX0@Z@Z
  00045	f6 c3 01	 test	 bl, 1
  00048	74 13		 je	 SHORT $LN3@vector
  0004a	69 0f 40 27 00
	00		 imul	 ecx, DWORD PTR [edi], 10048
  00050	83 c1 04	 add	 ecx, 4
  00053	51		 push	 ecx
  00054	57		 push	 edi
  00055	e8 00 00 00 00	 call	 ??_V@YAXPAXI@Z		; operator delete[]
  0005a	83 c4 08	 add	 esp, 8
$LN3@vector:
  0005d	8b c7		 mov	 eax, edi
  0005f	8b 4d f4	 mov	 ecx, DWORD PTR __$EHRec$[ebp]
  00062	64 89 0d 00 00
	00 00		 mov	 DWORD PTR fs:0, ecx
  00069	59		 pop	 ecx
  0006a	5f		 pop	 edi
  0006b	5e		 pop	 esi
  0006c	5b		 pop	 ebx
  0006d	8b e5		 mov	 esp, ebp
  0006f	5d		 pop	 ebp
  00070	c2 04 00	 ret	 4
$LN2@vector:
  00073	8d 8e ec 20 00
	00		 lea	 ecx, DWORD PTR [esi+8428]
  00079	e8 00 00 00 00	 call	 ??1TMonsterAIAgro@@UAE@XZ ; TMonsterAIAgro::~TMonsterAIAgro
  0007e	8d 8e 0c 16 00
	00		 lea	 ecx, DWORD PTR [esi+5644]
  00084	e8 00 00 00 00	 call	 ??1CSkillDelay@@UAE@XZ	; CSkillDelay::~CSkillDelay
  00089	f6 c3 01	 test	 bl, 1
  0008c	74 0e		 je	 SHORT $LN4@vector
  0008e	68 40 27 00 00	 push	 10048			; 00002740H
  00093	56		 push	 esi
  00094	e8 00 00 00 00	 call	 ??3@YAXPAXI@Z		; operator delete
  00099	83 c4 08	 add	 esp, 8
$LN4@vector:
  0009c	8b c6		 mov	 eax, esi
  0009e	8b 4d f4	 mov	 ecx, DWORD PTR __$EHRec$[ebp]
  000a1	64 89 0d 00 00
	00 00		 mov	 DWORD PTR fs:0, ecx
  000a8	59		 pop	 ecx
  000a9	5f		 pop	 edi
  000aa	5e		 pop	 esi
  000ab	5b		 pop	 ebx
  000ac	8b e5		 mov	 esp, ebp
  000ae	5d		 pop	 ebp
  000af	c2 04 00	 ret	 4
_TEXT	ENDS
;	COMDAT text$x
text$x	SEGMENT
__ehhandler$??_EOBJECTSTRUCT@@QAEPAXI@Z:
  00000	8b 54 24 08	 mov	 edx, DWORD PTR [esp+8]
  00004	8d 42 0c	 lea	 eax, DWORD PTR [edx+12]
  00007	8b 4a f0	 mov	 ecx, DWORD PTR [edx-16]
  0000a	33 c8		 xor	 ecx, eax
  0000c	e8 00 00 00 00	 call	 @__security_check_cookie@4
  00011	b8 00 00 00 00	 mov	 eax, OFFSET __ehfuncinfo$??_EOBJECTSTRUCT@@QAEPAXI@Z
  00016	e9 00 00 00 00	 jmp	 ___CxxFrameHandler3
text$x	ENDS
??_EOBJECTSTRUCT@@QAEPAXI@Z ENDP			; OBJECTSTRUCT::`vector deleting destructor'
; Function compile flags: /Ogtp
;	COMDAT ??1OBJECTSTRUCT@@QAE@XZ
_TEXT	SEGMENT
??1OBJECTSTRUCT@@QAE@XZ PROC				; OBJECTSTRUCT::~OBJECTSTRUCT, COMDAT
; _this$ = ecx
  00000	56		 push	 esi
  00001	8b f1		 mov	 esi, ecx
  00003	8d 8e ec 20 00
	00		 lea	 ecx, DWORD PTR [esi+8428]
  00009	e8 00 00 00 00	 call	 ??1TMonsterAIAgro@@UAE@XZ ; TMonsterAIAgro::~TMonsterAIAgro
  0000e	8d 8e 0c 16 00
	00		 lea	 ecx, DWORD PTR [esi+5644]
  00014	5e		 pop	 esi
  00015	e9 00 00 00 00	 jmp	 ??1CSkillDelay@@UAE@XZ	; CSkillDelay::~CSkillDelay
??1OBJECTSTRUCT@@QAE@XZ ENDP				; OBJECTSTRUCT::~OBJECTSTRUCT
_TEXT	ENDS
; Function compile flags: /Ogtp
;	COMDAT ??_GCKanturuTowerOfRefinement@@UAEPAXI@Z
_TEXT	SEGMENT
___flags$ = 8						; size = 4
??_GCKanturuTowerOfRefinement@@UAEPAXI@Z PROC		; CKanturuTowerOfRefinement::`scalar deleting destructor', COMDAT
; _this$ = ecx
  00000	55		 push	 ebp
  00001	8b ec		 mov	 ebp, esp
  00003	56		 push	 esi
  00004	8b f1		 mov	 esi, ecx
  00006	e8 00 00 00 00	 call	 ??1CKanturuTowerOfRefinement@@UAE@XZ ; CKanturuTowerOfRefinement::~CKanturuTowerOfRefinement
  0000b	f6 45 08 01	 test	 BYTE PTR ___flags$[ebp], 1
  0000f	74 0e		 je	 SHORT $LN4@scalar
  00011	68 90 00 00 00	 push	 144			; 00000090H
  00016	56		 push	 esi
  00017	e8 00 00 00 00	 call	 ??3@YAXPAXI@Z		; operator delete
  0001c	83 c4 08	 add	 esp, 8
$LN4@scalar:
  0001f	8b c6		 mov	 eax, esi
  00021	5e		 pop	 esi
  00022	5d		 pop	 ebp
  00023	c2 04 00	 ret	 4
??_GCKanturuTowerOfRefinement@@UAEPAXI@Z ENDP		; CKanturuTowerOfRefinement::`scalar deleting destructor'
_TEXT	ENDS
; Function compile flags: /Ogtp
; File c:\users\michel\desktop\source\gameserver\source\kanturutowerofrefinement.cpp
; File c:\users\michel\desktop\source\gameserver\source\kanturustateinfo.h
; File c:\users\michel\desktop\source\gameserver\source\kanturutowerofrefinement.cpp
; File c:\users\michel\desktop\source\gameserver\source\kanturustateinfo.h
; File c:\users\michel\desktop\source\gameserver\source\kanturutowerofrefinement.cpp
;	COMDAT ?GetRemainTime@CKanturuTowerOfRefinement@@QAEHXZ
_TEXT	SEGMENT
?GetRemainTime@CKanturuTowerOfRefinement@@QAEHXZ PROC	; CKanturuTowerOfRefinement::GetRemainTime, COMDAT
; _this$ = ecx

; 394  : 	return this->m_StateInfo[iCurrentState].GetRemainTime();

  00000	8b 41 04	 mov	 eax, DWORD PTR [ecx+4]
  00003	40		 inc	 eax
  00004	57		 push	 edi
  00005	8d 04 80	 lea	 eax, DWORD PTR [eax+eax*4]
  00008	8d 3c 81	 lea	 edi, DWORD PTR [ecx+eax*4]
; File c:\users\michel\desktop\source\gameserver\source\kanturustateinfo.h

; 73   : 		int iRemainTime = 0;

  0000b	33 c0		 xor	 eax, eax

; 74   : 
; 75   : 		if ( this->GetCondition() == 1 )

  0000d	83 7f 08 01	 cmp	 DWORD PTR [edi+8], 1
  00011	75 2b		 jne	 SHORT $LN5@GetRemainT
  00013	56		 push	 esi

; 61   : 		return this->m_dwAppliedTickCount;

  00014	8b 77 10	 mov	 esi, DWORD PTR [edi+16]

; 62   : 	}
; 63   : 
; 64   : 	//void __thiscall ResetAppliedTime();
; 65   : 	int GetElapsedTime()
; 66   : 	{
; 67   : 		int iElapsedTime = GetTickCount() - this->GetAppliedTime();

  00017	ff 15 00 00 00
	00		 call	 DWORD PTR __imp__GetTickCount@0

; 76   : 		{
; 77   : 			iRemainTime = this->m_iValue - this->GetElapsedTime();

  0001d	8b 4f 0c	 mov	 ecx, DWORD PTR [edi+12]

; 62   : 	}
; 63   : 
; 64   : 	//void __thiscall ResetAppliedTime();
; 65   : 	int GetElapsedTime()
; 66   : 	{
; 67   : 		int iElapsedTime = GetTickCount() - this->GetAppliedTime();

  00020	2b c6		 sub	 eax, esi

; 76   : 		{
; 77   : 			iRemainTime = this->m_iValue - this->GetElapsedTime();

  00022	2b c8		 sub	 ecx, eax
  00024	5e		 pop	 esi

; 78   : 
; 79   : 			if ( iRemainTime <= 0 )

  00025	85 c9		 test	 ecx, ecx
  00027	7f 04		 jg	 SHORT $LN7@GetRemainT
; File c:\users\michel\desktop\source\gameserver\source\kanturutowerofrefinement.cpp

; 394  : 	return this->m_StateInfo[iCurrentState].GetRemainTime();

  00029	33 c0		 xor	 eax, eax
  0002b	5f		 pop	 edi

; 395  : }

  0002c	c3		 ret	 0
$LN7@GetRemainT:
; File c:\users\michel\desktop\source\gameserver\source\kanturustateinfo.h

; 84   : 			iRemainTime /= 1000;

  0002d	b8 d3 4d 62 10	 mov	 eax, 274877907		; 10624dd3H
  00032	f7 e9		 imul	 ecx
  00034	c1 fa 06	 sar	 edx, 6
  00037	8b c2		 mov	 eax, edx
  00039	c1 e8 1f	 shr	 eax, 31			; 0000001fH
  0003c	03 c2		 add	 eax, edx
$LN5@GetRemainT:
  0003e	5f		 pop	 edi
; File c:\users\michel\desktop\source\gameserver\source\kanturutowerofrefinement.cpp

; 395  : }

  0003f	c3		 ret	 0
?GetRemainTime@CKanturuTowerOfRefinement@@QAEHXZ ENDP	; CKanturuTowerOfRefinement::GetRemainTime
_TEXT	ENDS
; Function compile flags: /Ogtp
; File c:\users\michel\desktop\source\gameserver\source\kanturutowerofrefinement.cpp
; File c:\users\michel\desktop\source\gameserver\source\kanturutowerofrefinement.h
; File c:\users\michel\desktop\source\gameserver\source\kanturutowerofrefinement.cpp
; File c:\users\michel\desktop\source\gameserver\source\kanturustateinfo.h
; File c:\users\michel\desktop\source\gameserver\source\kanturutowerofrefinement.cpp
; File c:\users\michel\desktop\source\gameserver\source\kanturustateinfo.h
; File c:\users\michel\desktop\source\gameserver\source\kanturutowerofrefinement.cpp
;	COMDAT ?CheckStateTime@CKanturuTowerOfRefinement@@QAEXXZ
_TEXT	SEGMENT
tv188 = -4						; size = 4
?CheckStateTime@CKanturuTowerOfRefinement@@QAEXXZ PROC	; CKanturuTowerOfRefinement::CheckStateTime, COMDAT
; _this$ = ecx

; 374  : {

  00000	55		 push	 ebp
  00001	8b ec		 mov	 ebp, esp
  00003	51		 push	 ecx
  00004	53		 push	 ebx
  00005	8b d9		 mov	 ebx, ecx
  00007	57		 push	 edi
; File c:\users\michel\desktop\source\gameserver\source\kanturutowerofrefinement.h

; 52   : 	int GetTowerOfRefinementState(){return this->m_iTowerOfRefinementState;}

  00008	8b 7b 04	 mov	 edi, DWORD PTR [ebx+4]
; File c:\users\michel\desktop\source\gameserver\source\kanturutowerofrefinement.cpp

; 377  : 	if ( iCurrentState )

  0000b	85 ff		 test	 edi, edi
  0000d	74 46		 je	 SHORT $LN4@CheckState

; 379  : 		if ( this->m_StateInfo[iCurrentState].GetCondition() == 1 )

  0000f	8d 04 bf	 lea	 eax, DWORD PTR [edi+edi*4]
  00012	83 7c 83 1c 01	 cmp	 DWORD PTR [ebx+eax*4+28], 1
; File c:\users\michel\desktop\source\gameserver\source\kanturustateinfo.h

; 42   : 		return this->m_iCondition;

  00017	8d 04 83	 lea	 eax, DWORD PTR [ebx+eax*4]
  0001a	89 45 fc	 mov	 DWORD PTR tv188[ebp], eax
; File c:\users\michel\desktop\source\gameserver\source\kanturutowerofrefinement.cpp

; 379  : 		if ( this->m_StateInfo[iCurrentState].GetCondition() == 1 )

  0001d	75 36		 jne	 SHORT $LN4@CheckState
  0001f	56		 push	 esi
; File c:\users\michel\desktop\source\gameserver\source\kanturustateinfo.h

; 61   : 		return this->m_dwAppliedTickCount;

  00020	8b 70 24	 mov	 esi, DWORD PTR [eax+36]

; 62   : 	}
; 63   : 
; 64   : 	//void __thiscall ResetAppliedTime();
; 65   : 	int GetElapsedTime()
; 66   : 	{
; 67   : 		int iElapsedTime = GetTickCount() - this->GetAppliedTime();

  00023	ff 15 00 00 00
	00		 call	 DWORD PTR __imp__GetTickCount@0

; 68   : 		return iElapsedTime;
; 69   : 	}
; 70   : 
; 71   : 	int GetRemainTime()
; 72   : 	{
; 73   : 		int iRemainTime = 0;
; 74   : 
; 75   : 		if ( this->GetCondition() == 1 )
; 76   : 		{
; 77   : 			iRemainTime = this->m_iValue - this->GetElapsedTime();

  00029	8b 4d fc	 mov	 ecx, DWORD PTR tv188[ebp]

; 62   : 	}
; 63   : 
; 64   : 	//void __thiscall ResetAppliedTime();
; 65   : 	int GetElapsedTime()
; 66   : 	{
; 67   : 		int iElapsedTime = GetTickCount() - this->GetAppliedTime();

  0002c	2b c6		 sub	 eax, esi
  0002e	5e		 pop	 esi

; 68   : 		return iElapsedTime;
; 69   : 	}
; 70   : 
; 71   : 	int GetRemainTime()
; 72   : 	{
; 73   : 		int iRemainTime = 0;
; 74   : 
; 75   : 		if ( this->GetCondition() == 1 )
; 76   : 		{
; 77   : 			iRemainTime = this->m_iValue - this->GetElapsedTime();

  0002f	8b 49 20	 mov	 ecx, DWORD PTR [ecx+32]
  00032	2b c8		 sub	 ecx, eax

; 78   : 
; 79   : 			if ( iRemainTime <= 0 )

  00034	85 c9		 test	 ecx, ecx
  00036	7e 15		 jle	 SHORT $LN24@CheckState

; 80   : 			{
; 81   : 				return 0;
; 82   : 			}
; 83   : 
; 84   : 			iRemainTime /= 1000;

  00038	b8 d3 4d 62 10	 mov	 eax, 274877907		; 10624dd3H
  0003d	f7 e9		 imul	 ecx
  0003f	c1 fa 06	 sar	 edx, 6
  00042	8b c2		 mov	 eax, edx
  00044	c1 e8 1f	 shr	 eax, 31			; 0000001fH
  00047	03 c2		 add	 eax, edx

; 85   : 		}
; 86   : 
; 87   : 		return iRemainTime;
; 88   : 	}
; 89   : 
; 90   : 	BOOL IsTimeOut()
; 91   : 	{
; 92   : 		if ( this->GetRemainTime() <= 0 )

  00049	85 c0		 test	 eax, eax
  0004b	7f 08		 jg	 SHORT $LN4@CheckState
$LN24@CheckState:
; File c:\users\michel\desktop\source\gameserver\source\kanturutowerofrefinement.cpp

; 383  : 				this->SetNextState(iCurrentState);

  0004d	57		 push	 edi
  0004e	8b cb		 mov	 ecx, ebx
  00050	e8 00 00 00 00	 call	 ?SetNextState@CKanturuTowerOfRefinement@@QAEXH@Z ; CKanturuTowerOfRefinement::SetNextState
$LN4@CheckState:
  00055	5f		 pop	 edi
  00056	5b		 pop	 ebx

; 384  : 			}
; 385  : 		}
; 386  : 	}
; 387  : }

  00057	8b e5		 mov	 esp, ebp
  00059	5d		 pop	 ebp
  0005a	c3		 ret	 0
?CheckStateTime@CKanturuTowerOfRefinement@@QAEXXZ ENDP	; CKanturuTowerOfRefinement::CheckStateTime
_TEXT	ENDS
; Function compile flags: /Ogtp
; File c:\users\michel\desktop\source\gameserver\source\kanturutowerofrefinement.h
;	COMDAT ?SetUseTowerOfRefinement@CKanturuTowerOfRefinement@@QAEXH@Z
_TEXT	SEGMENT
_bUse$ = 8						; size = 4
?SetUseTowerOfRefinement@CKanturuTowerOfRefinement@@QAEXH@Z PROC ; CKanturuTowerOfRefinement::SetUseTowerOfRefinement, COMDAT
; _this$ = ecx

; 55   : 	void SetUseTowerOfRefinement(BOOL bUse){this->m_bIsUseTowerOfRefinement = bUse;}

  00000	55		 push	 ebp
  00001	8b ec		 mov	 ebp, esp
  00003	8b 45 08	 mov	 eax, DWORD PTR _bUse$[ebp]
  00006	89 41 0c	 mov	 DWORD PTR [ecx+12], eax
  00009	5d		 pop	 ebp
  0000a	c2 04 00	 ret	 4
?SetUseTowerOfRefinement@CKanturuTowerOfRefinement@@QAEXH@Z ENDP ; CKanturuTowerOfRefinement::SetUseTowerOfRefinement
_TEXT	ENDS
; Function compile flags: /Ogtp
; File c:\users\michel\desktop\source\gameserver\source\kanturutowerofrefinement.h
;	COMDAT ?SetEntrancePermit@CKanturuTowerOfRefinement@@QAEXH@Z
_TEXT	SEGMENT
_bEntrancePermit$ = 8					; size = 4
?SetEntrancePermit@CKanturuTowerOfRefinement@@QAEXH@Z PROC ; CKanturuTowerOfRefinement::SetEntrancePermit, COMDAT
; _this$ = ecx

; 53   : 	void SetEntrancePermit(BOOL bEntrancePermit){this->m_bEntrancePermit = bEntrancePermit;}

  00000	55		 push	 ebp
  00001	8b ec		 mov	 ebp, esp
  00003	8b 45 08	 mov	 eax, DWORD PTR _bEntrancePermit$[ebp]
  00006	89 41 08	 mov	 DWORD PTR [ecx+8], eax
  00009	5d		 pop	 ebp
  0000a	c2 04 00	 ret	 4
?SetEntrancePermit@CKanturuTowerOfRefinement@@QAEXH@Z ENDP ; CKanturuTowerOfRefinement::SetEntrancePermit
_TEXT	ENDS
; Function compile flags: /Ogtp
; File c:\users\michel\desktop\source\gameserver\source\kanturutowerofrefinement.h
;	COMDAT ?GetTowerOfRefinementState@CKanturuTowerOfRefinement@@QAEHXZ
_TEXT	SEGMENT
?GetTowerOfRefinementState@CKanturuTowerOfRefinement@@QAEHXZ PROC ; CKanturuTowerOfRefinement::GetTowerOfRefinementState, COMDAT
; _this$ = ecx

; 52   : 	int GetTowerOfRefinementState(){return this->m_iTowerOfRefinementState;}

  00000	8b 41 04	 mov	 eax, DWORD PTR [ecx+4]
  00003	c3		 ret	 0
?GetTowerOfRefinementState@CKanturuTowerOfRefinement@@QAEHXZ ENDP ; CKanturuTowerOfRefinement::GetTowerOfRefinementState
_TEXT	ENDS
; Function compile flags: /Ogtp
; File c:\users\michel\desktop\source\gameserver\source\kanturutowerofrefinement.h
;	COMDAT ?SetTowerOfRefinementState@CKanturuTowerOfRefinement@@QAEXH@Z
_TEXT	SEGMENT
_iTowerOfRefinement$ = 8				; size = 4
?SetTowerOfRefinementState@CKanturuTowerOfRefinement@@QAEXH@Z PROC ; CKanturuTowerOfRefinement::SetTowerOfRefinementState, COMDAT
; _this$ = ecx

; 51   : 	void SetTowerOfRefinementState(int iTowerOfRefinement){this->m_iTowerOfRefinementState = iTowerOfRefinement;}

  00000	55		 push	 ebp
  00001	8b ec		 mov	 ebp, esp
  00003	8b 45 08	 mov	 eax, DWORD PTR _iTowerOfRefinement$[ebp]
  00006	89 41 04	 mov	 DWORD PTR [ecx+4], eax
  00009	5d		 pop	 ebp
  0000a	c2 04 00	 ret	 4
?SetTowerOfRefinementState@CKanturuTowerOfRefinement@@QAEXH@Z ENDP ; CKanturuTowerOfRefinement::SetTowerOfRefinementState
_TEXT	ENDS
; Function compile flags: /Ogtp
; File c:\users\michel\desktop\source\gameserver\source\kanturutowerofrefinement.cpp
;	COMDAT ?ProcState_END@CKanturuTowerOfRefinement@@QAEXXZ
_TEXT	SEGMENT
?ProcState_END@CKanturuTowerOfRefinement@@QAEXXZ PROC	; CKanturuTowerOfRefinement::ProcState_END, COMDAT
; _this$ = ecx

; 368  : 	return;
; 369  : }

  00000	c3		 ret	 0
?ProcState_END@CKanturuTowerOfRefinement@@QAEXXZ ENDP	; CKanturuTowerOfRefinement::ProcState_END
_TEXT	ENDS
; Function compile flags: /Ogtp
; File c:\users\michel\desktop\source\gameserver\source\kanturutowerofrefinement.cpp
;	COMDAT ?ProcState_NOTIFY2@CKanturuTowerOfRefinement@@QAEXXZ
_TEXT	SEGMENT
?ProcState_NOTIFY2@CKanturuTowerOfRefinement@@QAEXXZ PROC ; CKanturuTowerOfRefinement::ProcState_NOTIFY2, COMDAT
; _this$ = ecx

; 362  : 	return;
; 363  : }

  00000	c3		 ret	 0
?ProcState_NOTIFY2@CKanturuTowerOfRefinement@@QAEXXZ ENDP ; CKanturuTowerOfRefinement::ProcState_NOTIFY2
_TEXT	ENDS
; Function compile flags: /Ogtp
; File c:\users\michel\desktop\source\gameserver\source\kanturutowerofrefinement.cpp
;	COMDAT ?ProcState_CLOSE@CKanturuTowerOfRefinement@@QAEXXZ
_TEXT	SEGMENT
?ProcState_CLOSE@CKanturuTowerOfRefinement@@QAEXXZ PROC	; CKanturuTowerOfRefinement::ProcState_CLOSE, COMDAT
; _this$ = ecx

; 356  : 	return;
; 357  : }

  00000	c3		 ret	 0
?ProcState_CLOSE@CKanturuTowerOfRefinement@@QAEXXZ ENDP	; CKanturuTowerOfRefinement::ProcState_CLOSE
_TEXT	ENDS
; Function compile flags: /Ogtp
; File c:\users\michel\desktop\source\gameserver\source\kanturutowerofrefinement.cpp
;	COMDAT ?ProcState_NOTIFY1@CKanturuTowerOfRefinement@@QAEXXZ
_TEXT	SEGMENT
?ProcState_NOTIFY1@CKanturuTowerOfRefinement@@QAEXXZ PROC ; CKanturuTowerOfRefinement::ProcState_NOTIFY1, COMDAT
; _this$ = ecx

; 350  : 	return;
; 351  : }

  00000	c3		 ret	 0
?ProcState_NOTIFY1@CKanturuTowerOfRefinement@@QAEXXZ ENDP ; CKanturuTowerOfRefinement::ProcState_NOTIFY1
_TEXT	ENDS
; Function compile flags: /Ogtp
; File c:\users\michel\desktop\source\gameserver\source\kanturutowerofrefinement.cpp
;	COMDAT ?ProcState_REVITALIZATION@CKanturuTowerOfRefinement@@QAEXXZ
_TEXT	SEGMENT
?ProcState_REVITALIZATION@CKanturuTowerOfRefinement@@QAEXXZ PROC ; CKanturuTowerOfRefinement::ProcState_REVITALIZATION, COMDAT
; _this$ = ecx

; 344  : 	return;
; 345  : }

  00000	c3		 ret	 0
?ProcState_REVITALIZATION@CKanturuTowerOfRefinement@@QAEXXZ ENDP ; CKanturuTowerOfRefinement::ProcState_REVITALIZATION
_TEXT	ENDS
; Function compile flags: /Ogtp
; File c:\users\michel\desktop\source\gameserver\source\kanturutowerofrefinement.cpp
;	COMDAT ?ProcState_NONE@CKanturuTowerOfRefinement@@QAEXXZ
_TEXT	SEGMENT
?ProcState_NONE@CKanturuTowerOfRefinement@@QAEXXZ PROC	; CKanturuTowerOfRefinement::ProcState_NONE, COMDAT
; _this$ = ecx

; 338  : 	return;
; 339  : }

  00000	c3		 ret	 0
?ProcState_NONE@CKanturuTowerOfRefinement@@QAEXXZ ENDP	; CKanturuTowerOfRefinement::ProcState_NONE
_TEXT	ENDS
; Function compile flags: /Ogtp
; File c:\users\michel\desktop\source\gameserver\source\kanturutowerofrefinement.cpp
; File c:\users\michel\desktop\source\gameserver\source\kanturutowerofrefinement.h
; File c:\users\michel\desktop\source\gameserver\source\kanturutowerofrefinement.cpp
; File c:\users\michel\desktop\source\gameserver\source\kanturutowerofrefinement.h
; File c:\users\michel\desktop\source\gameserver\source\kanturutowerofrefinement.cpp
;	COMDAT ?SetState_END@CKanturuTowerOfRefinement@@QAEXXZ
_TEXT	SEGMENT
?SetState_END@CKanturuTowerOfRefinement@@QAEXXZ PROC	; CKanturuTowerOfRefinement::SetState_END, COMDAT
; _this$ = ecx

; 313  : {

  00000	56		 push	 esi
  00001	8b f1		 mov	 esi, ecx
  00003	57		 push	 edi

; 314  : 	LogAddC(5, "[ KANTURU ][ TowerOfRefinement ] State(%d) -> END",

  00004	ff 76 04	 push	 DWORD PTR [esi+4]
  00007	68 00 00 00 00	 push	 OFFSET ??_C@_0DC@NKECDCHD@?$FL?5KANTURU?5?$FN?$FL?5TowerOfRefinement?5?$FN@
  0000c	6a 05		 push	 5
  0000e	ff 15 00 00 00
	00		 call	 DWORD PTR ?LogAddC@@3P6AXEPADZZA ; LogAddC
  00014	83 c4 0c	 add	 esp, 12			; 0000000cH
; File c:\users\michel\desktop\source\gameserver\source\kanturutowerofrefinement.h

; 51   : 	void SetTowerOfRefinementState(int iTowerOfRefinement){this->m_iTowerOfRefinementState = iTowerOfRefinement;}

  00017	c7 46 04 05 00
	00 00		 mov	 DWORD PTR [esi+4], 5

; 52   : 	int GetTowerOfRefinementState(){return this->m_iTowerOfRefinementState;}
; 53   : 	void SetEntrancePermit(BOOL bEntrancePermit){this->m_bEntrancePermit = bEntrancePermit;}

  0001e	c7 46 08 00 00
	00 00		 mov	 DWORD PTR [esi+8], 0
; File c:\users\michel\desktop\source\gameserver\source\kanturutowerofrefinement.cpp

; 321  : 	for ( int iCount=0;iCount<OBJMAX;iCount++)

  00025	33 ff		 xor	 edi, edi
; File c:\users\michel\desktop\source\gameserver\source\kanturutowerofrefinement.h

; 55   : 	void SetUseTowerOfRefinement(BOOL bUse){this->m_bIsUseTowerOfRefinement = bUse;}

  00027	c7 46 0c 00 00
	00 00		 mov	 DWORD PTR [esi+12], 0
; File c:\users\michel\desktop\source\gameserver\source\kanturutowerofrefinement.cpp

; 314  : 	LogAddC(5, "[ KANTURU ][ TowerOfRefinement ] State(%d) -> END",

  0002e	33 f6		 xor	 esi, esi
$LL4@SetState_E:

; 322  : 	{
; 323  : 		if ( gObj[iCount].Type == OBJ_USER &&

  00030	a1 00 00 00 00	 mov	 eax, DWORD PTR ?gObj@@3PAUOBJECTSTRUCT@@A ; gObj
  00035	80 7c 06 50 01	 cmp	 BYTE PTR [esi+eax+80], 1
  0003a	75 35		 jne	 SHORT $LN2@SetState_E
  0003c	80 bc 06 23 01
	00 00 27	 cmp	 BYTE PTR [esi+eax+291], 39 ; 00000027H
  00044	75 2b		 jne	 SHORT $LN2@SetState_E

; 324  : 			 gObj[iCount].MapNumber == MAP_INDEX_KANTURU_BOSS )
; 325  : 		{
; 326  : 			gObjMoveGate(iCount, 136);

  00046	68 88 00 00 00	 push	 136			; 00000088H
  0004b	57		 push	 edi
  0004c	e8 00 00 00 00	 call	 ?gObjMoveGate@@YAHHH@Z	; gObjMoveGate

; 327  : 
; 328  : 			LogAddTD("[ KANTURU ][ TowerOfRefinement ] State End:Kick Out [%s][%s]",

  00051	8b 0d 00 00 00
	00		 mov	 ecx, DWORD PTR ?gObj@@3PAUOBJECTSTRUCT@@A ; gObj
  00057	8d 41 5d	 lea	 eax, DWORD PTR [ecx+93]
  0005a	03 c6		 add	 eax, esi
  0005c	50		 push	 eax
  0005d	8d 41 52	 lea	 eax, DWORD PTR [ecx+82]
  00060	03 c6		 add	 eax, esi
  00062	50		 push	 eax
  00063	68 00 00 00 00	 push	 OFFSET ??_C@_0DN@FDKBEMDF@?$FL?5KANTURU?5?$FN?$FL?5TowerOfRefinement?5?$FN@
  00068	ff 15 00 00 00
	00		 call	 DWORD PTR ?LogAddTD@@3P6AXPADZZA ; LogAddTD
  0006e	83 c4 14	 add	 esp, 20			; 00000014H
$LN2@SetState_E:

; 321  : 	for ( int iCount=0;iCount<OBJMAX;iCount++)

  00071	81 c6 40 27 00
	00		 add	 esi, 10048		; 00002740H
  00077	47		 inc	 edi
  00078	81 fe 00 2f e3
	06		 cmp	 esi, 115552000		; 06e32f00H
  0007e	7c b0		 jl	 SHORT $LL4@SetState_E

; 329  : 				gObj[iCount].AccountID, gObj[iCount].Name);
; 330  : 		}
; 331  : 	}
; 332  : }

  00080	5f		 pop	 edi
  00081	5e		 pop	 esi
  00082	c3		 ret	 0
?SetState_END@CKanturuTowerOfRefinement@@QAEXXZ ENDP	; CKanturuTowerOfRefinement::SetState_END
_TEXT	ENDS
; Function compile flags: /Ogtp
; File c:\users\michel\desktop\source\gameserver\source\kanturutowerofrefinement.cpp
; File c:\users\michel\desktop\source\gameserver\source\kanturutowerofrefinement.h
; File c:\users\michel\desktop\source\gameserver\source\kanturutowerofrefinement.cpp
;	COMDAT ?SetState_NOTIFY2@CKanturuTowerOfRefinement@@QAEXXZ
_TEXT	SEGMENT
?SetState_NOTIFY2@CKanturuTowerOfRefinement@@QAEXXZ PROC ; CKanturuTowerOfRefinement::SetState_NOTIFY2, COMDAT
; _this$ = ecx

; 301  : {

  00000	56		 push	 esi
  00001	8b f1		 mov	 esi, ecx

; 302  : 	LogAddC(5, "[ KANTURU ][ TowerOfRefinement ] State(%d) -> NOTIFY2",

  00003	ff 76 04	 push	 DWORD PTR [esi+4]
  00006	68 00 00 00 00	 push	 OFFSET ??_C@_0DG@GHGGEBCP@?$FL?5KANTURU?5?$FN?$FL?5TowerOfRefinement?5?$FN@
  0000b	6a 05		 push	 5
  0000d	ff 15 00 00 00
	00		 call	 DWORD PTR ?LogAddC@@3P6AXEPADZZA ; LogAddC
  00013	83 c4 0c	 add	 esp, 12			; 0000000cH
; File c:\users\michel\desktop\source\gameserver\source\kanturutowerofrefinement.h

; 51   : 	void SetTowerOfRefinementState(int iTowerOfRefinement){this->m_iTowerOfRefinementState = iTowerOfRefinement;}

  00016	c7 46 04 04 00
	00 00		 mov	 DWORD PTR [esi+4], 4

; 52   : 	int GetTowerOfRefinementState(){return this->m_iTowerOfRefinementState;}
; 53   : 	void SetEntrancePermit(BOOL bEntrancePermit){this->m_bEntrancePermit = bEntrancePermit;}

  0001d	c7 46 08 00 00
	00 00		 mov	 DWORD PTR [esi+8], 0

; 54   : 	BOOL GetEntrancePermit(){return this->m_bEntrancePermit;}
; 55   : 	void SetUseTowerOfRefinement(BOOL bUse){this->m_bIsUseTowerOfRefinement = bUse;}

  00024	c7 46 0c 01 00
	00 00		 mov	 DWORD PTR [esi+12], 1
  0002b	5e		 pop	 esi
; File c:\users\michel\desktop\source\gameserver\source\kanturutowerofrefinement.cpp

; 308  : }

  0002c	c3		 ret	 0
?SetState_NOTIFY2@CKanturuTowerOfRefinement@@QAEXXZ ENDP ; CKanturuTowerOfRefinement::SetState_NOTIFY2
_TEXT	ENDS
; Function compile flags: /Ogtp
; File c:\users\michel\desktop\source\gameserver\source\kanturutowerofrefinement.cpp
; File c:\users\michel\desktop\source\gameserver\source\kanturutowerofrefinement.h
; File c:\users\michel\desktop\source\gameserver\source\kanturutowerofrefinement.cpp
; File c:\users\michel\desktop\source\gameserver\source\kanturutowerofrefinement.h
; File c:\users\michel\desktop\source\gameserver\source\kanturutowerofrefinement.cpp
;	COMDAT ?SetState_CLOSE@CKanturuTowerOfRefinement@@QAEXXZ
_TEXT	SEGMENT
?SetState_CLOSE@CKanturuTowerOfRefinement@@QAEXXZ PROC	; CKanturuTowerOfRefinement::SetState_CLOSE, COMDAT
; _this$ = ecx

; 288  : {

  00000	56		 push	 esi
  00001	8b f1		 mov	 esi, ecx

; 289  : 	LogAddC(5, "[ KANTURU ][ TowerOfRefinement ] State(%d) -> CLOSE",

  00003	ff 76 04	 push	 DWORD PTR [esi+4]
  00006	68 00 00 00 00	 push	 OFFSET ??_C@_0DE@FEKJLNCC@?$FL?5KANTURU?5?$FN?$FL?5TowerOfRefinement?5?$FN@
  0000b	6a 05		 push	 5
  0000d	ff 15 00 00 00
	00		 call	 DWORD PTR ?LogAddC@@3P6AXEPADZZA ; LogAddC
  00013	83 c4 0c	 add	 esp, 12			; 0000000cH
; File c:\users\michel\desktop\source\gameserver\source\kanturutowerofrefinement.h

; 51   : 	void SetTowerOfRefinementState(int iTowerOfRefinement){this->m_iTowerOfRefinementState = iTowerOfRefinement;}

  00016	c7 46 04 03 00
	00 00		 mov	 DWORD PTR [esi+4], 3
; File c:\users\michel\desktop\source\gameserver\source\kanturutowerofrefinement.cpp

; 295  : 	KANTURU_UTIL.SendMsgKauturuMapUser(lMsg.Get(MSGGET(13, 30)));

  0001d	b9 00 00 00 00	 mov	 ecx, OFFSET ?lMsg@@3VMessage@@A ; lMsg
; File c:\users\michel\desktop\source\gameserver\source\kanturutowerofrefinement.h

; 53   : 	void SetEntrancePermit(BOOL bEntrancePermit){this->m_bEntrancePermit = bEntrancePermit;}

  00022	c7 46 08 00 00
	00 00		 mov	 DWORD PTR [esi+8], 0

; 54   : 	BOOL GetEntrancePermit(){return this->m_bEntrancePermit;}
; 55   : 	void SetUseTowerOfRefinement(BOOL bUse){this->m_bIsUseTowerOfRefinement = bUse;}

  00029	c7 46 0c 01 00
	00 00		 mov	 DWORD PTR [esi+12], 1
; File c:\users\michel\desktop\source\gameserver\source\kanturutowerofrefinement.cpp

; 295  : 	KANTURU_UTIL.SendMsgKauturuMapUser(lMsg.Get(MSGGET(13, 30)));

  00030	68 1e 0d 00 00	 push	 3358			; 00000d1eH
  00035	e8 00 00 00 00	 call	 ?Get@Message@@QAEPADH@Z	; Message::Get
  0003a	50		 push	 eax
  0003b	68 00 00 00 00	 push	 OFFSET ?KANTURU_UTIL@@3VCKanturuUtil@@A
  00040	e8 00 00 00 00	 call	 ?SendMsgKauturuMapUser@CKanturuUtil@@QAAXPADZZ ; CKanturuUtil::SendMsgKauturuMapUser
  00045	83 c4 08	 add	 esp, 8
  00048	5e		 pop	 esi

; 296  : }

  00049	c3		 ret	 0
?SetState_CLOSE@CKanturuTowerOfRefinement@@QAEXXZ ENDP	; CKanturuTowerOfRefinement::SetState_CLOSE
_TEXT	ENDS
; Function compile flags: /Ogtp
; File c:\users\michel\desktop\source\gameserver\source\kanturutowerofrefinement.cpp
; File c:\users\michel\desktop\source\gameserver\source\kanturutowerofrefinement.h
; File c:\users\michel\desktop\source\gameserver\source\kanturutowerofrefinement.cpp
; File c:\users\michel\desktop\source\gameserver\source\kanturutowerofrefinement.h
; File c:\users\michel\desktop\source\gameserver\source\kanturutowerofrefinement.cpp
;	COMDAT ?SetState_NOTIFY1@CKanturuTowerOfRefinement@@QAEXXZ
_TEXT	SEGMENT
?SetState_NOTIFY1@CKanturuTowerOfRefinement@@QAEXXZ PROC ; CKanturuTowerOfRefinement::SetState_NOTIFY1, COMDAT
; _this$ = ecx

; 275  : {

  00000	56		 push	 esi
  00001	8b f1		 mov	 esi, ecx

; 276  : 	LogAddC(5, "[ KANTURU ][ TowerOfRefinement ] State(%d) -> NOTIFY1",

  00003	ff 76 04	 push	 DWORD PTR [esi+4]
  00006	68 00 00 00 00	 push	 OFFSET ??_C@_0DG@EMELBCOM@?$FL?5KANTURU?5?$FN?$FL?5TowerOfRefinement?5?$FN@
  0000b	6a 05		 push	 5
  0000d	ff 15 00 00 00
	00		 call	 DWORD PTR ?LogAddC@@3P6AXEPADZZA ; LogAddC
  00013	83 c4 0c	 add	 esp, 12			; 0000000cH
; File c:\users\michel\desktop\source\gameserver\source\kanturutowerofrefinement.h

; 51   : 	void SetTowerOfRefinementState(int iTowerOfRefinement){this->m_iTowerOfRefinementState = iTowerOfRefinement;}

  00016	c7 46 04 02 00
	00 00		 mov	 DWORD PTR [esi+4], 2
; File c:\users\michel\desktop\source\gameserver\source\kanturutowerofrefinement.cpp

; 282  : 	KANTURU_UTIL.SendMsgKauturuMapUser(lMsg.Get(MSGGET(13, 29)));

  0001d	b9 00 00 00 00	 mov	 ecx, OFFSET ?lMsg@@3VMessage@@A ; lMsg
; File c:\users\michel\desktop\source\gameserver\source\kanturutowerofrefinement.h

; 53   : 	void SetEntrancePermit(BOOL bEntrancePermit){this->m_bEntrancePermit = bEntrancePermit;}

  00022	c7 46 08 01 00
	00 00		 mov	 DWORD PTR [esi+8], 1

; 54   : 	BOOL GetEntrancePermit(){return this->m_bEntrancePermit;}
; 55   : 	void SetUseTowerOfRefinement(BOOL bUse){this->m_bIsUseTowerOfRefinement = bUse;}

  00029	c7 46 0c 01 00
	00 00		 mov	 DWORD PTR [esi+12], 1
; File c:\users\michel\desktop\source\gameserver\source\kanturutowerofrefinement.cpp

; 282  : 	KANTURU_UTIL.SendMsgKauturuMapUser(lMsg.Get(MSGGET(13, 29)));

  00030	68 1d 0d 00 00	 push	 3357			; 00000d1dH
  00035	e8 00 00 00 00	 call	 ?Get@Message@@QAEPADH@Z	; Message::Get
  0003a	50		 push	 eax
  0003b	68 00 00 00 00	 push	 OFFSET ?KANTURU_UTIL@@3VCKanturuUtil@@A
  00040	e8 00 00 00 00	 call	 ?SendMsgKauturuMapUser@CKanturuUtil@@QAAXPADZZ ; CKanturuUtil::SendMsgKauturuMapUser
  00045	83 c4 08	 add	 esp, 8
  00048	5e		 pop	 esi

; 283  : }

  00049	c3		 ret	 0
?SetState_NOTIFY1@CKanturuTowerOfRefinement@@QAEXXZ ENDP ; CKanturuTowerOfRefinement::SetState_NOTIFY1
_TEXT	ENDS
; Function compile flags: /Ogtp
; File c:\users\michel\desktop\source\gameserver\source\kanturutowerofrefinement.cpp
; File c:\users\michel\desktop\source\gameserver\source\kanturutowerofrefinement.h
; File c:\users\michel\desktop\source\gameserver\source\kanturutowerofrefinement.cpp
;	COMDAT ?SetState_REVITALIZATION@CKanturuTowerOfRefinement@@QAEXXZ
_TEXT	SEGMENT
?SetState_REVITALIZATION@CKanturuTowerOfRefinement@@QAEXXZ PROC ; CKanturuTowerOfRefinement::SetState_REVITALIZATION, COMDAT
; _this$ = ecx

; 263  : {

  00000	56		 push	 esi
  00001	8b f1		 mov	 esi, ecx

; 264  : 	LogAddC(5, "[ KANTURU ][ TowerOfRefinement ] State(%d) -> REVITALIZATION",

  00003	ff 76 04	 push	 DWORD PTR [esi+4]
  00006	68 00 00 00 00	 push	 OFFSET ??_C@_0DN@EPMMEAPN@?$FL?5KANTURU?5?$FN?$FL?5TowerOfRefinement?5?$FN@
  0000b	6a 05		 push	 5
  0000d	ff 15 00 00 00
	00		 call	 DWORD PTR ?LogAddC@@3P6AXEPADZZA ; LogAddC
  00013	83 c4 0c	 add	 esp, 12			; 0000000cH
; File c:\users\michel\desktop\source\gameserver\source\kanturutowerofrefinement.h

; 51   : 	void SetTowerOfRefinementState(int iTowerOfRefinement){this->m_iTowerOfRefinementState = iTowerOfRefinement;}

  00016	c7 46 04 01 00
	00 00		 mov	 DWORD PTR [esi+4], 1

; 52   : 	int GetTowerOfRefinementState(){return this->m_iTowerOfRefinementState;}
; 53   : 	void SetEntrancePermit(BOOL bEntrancePermit){this->m_bEntrancePermit = bEntrancePermit;}

  0001d	c7 46 08 01 00
	00 00		 mov	 DWORD PTR [esi+8], 1

; 54   : 	BOOL GetEntrancePermit(){return this->m_bEntrancePermit;}
; 55   : 	void SetUseTowerOfRefinement(BOOL bUse){this->m_bIsUseTowerOfRefinement = bUse;}

  00024	c7 46 0c 01 00
	00 00		 mov	 DWORD PTR [esi+12], 1
  0002b	5e		 pop	 esi
; File c:\users\michel\desktop\source\gameserver\source\kanturutowerofrefinement.cpp

; 270  : }

  0002c	c3		 ret	 0
?SetState_REVITALIZATION@CKanturuTowerOfRefinement@@QAEXXZ ENDP ; CKanturuTowerOfRefinement::SetState_REVITALIZATION
_TEXT	ENDS
; Function compile flags: /Ogtp
; File c:\users\michel\desktop\source\gameserver\source\kanturutowerofrefinement.cpp
; File c:\users\michel\desktop\source\gameserver\source\kanturutowerofrefinement.h
; File c:\users\michel\desktop\source\gameserver\source\kanturutowerofrefinement.cpp
; File c:\users\michel\desktop\source\gameserver\source\kanturutowerofrefinement.h
; File c:\users\michel\desktop\source\gameserver\source\kanturutowerofrefinement.cpp
;	COMDAT ?SetState_NONE@CKanturuTowerOfRefinement@@QAEXXZ
_TEXT	SEGMENT
?SetState_NONE@CKanturuTowerOfRefinement@@QAEXXZ PROC	; CKanturuTowerOfRefinement::SetState_NONE, COMDAT
; _this$ = ecx

; 251  : {

  00000	56		 push	 esi
  00001	8b f1		 mov	 esi, ecx

; 252  : 	LogAddC(5, "[ KANTURU ][ TowerOfRefinement ] State(%d) -> NONE",

  00003	ff 76 04	 push	 DWORD PTR [esi+4]
  00006	68 00 00 00 00	 push	 OFFSET ??_C@_0DD@IGCDAKFG@?$FL?5KANTURU?5?$FN?$FL?5TowerOfRefinement?5?$FN@
  0000b	6a 05		 push	 5
  0000d	ff 15 00 00 00
	00		 call	 DWORD PTR ?LogAddC@@3P6AXEPADZZA ; LogAddC
  00013	83 c4 0c	 add	 esp, 12			; 0000000cH
; File c:\users\michel\desktop\source\gameserver\source\kanturutowerofrefinement.h

; 51   : 	void SetTowerOfRefinementState(int iTowerOfRefinement){this->m_iTowerOfRefinementState = iTowerOfRefinement;}

  00016	c7 46 04 00 00
	00 00		 mov	 DWORD PTR [esi+4], 0

; 52   : 	int GetTowerOfRefinementState(){return this->m_iTowerOfRefinementState;}
; 53   : 	void SetEntrancePermit(BOOL bEntrancePermit){this->m_bEntrancePermit = bEntrancePermit;}

  0001d	c7 46 08 00 00
	00 00		 mov	 DWORD PTR [esi+8], 0
; File c:\users\michel\desktop\source\gameserver\source\kanturutowerofrefinement.cpp

; 258  : 	g_KanturuBattleUserMng.ResetAllData();

  00024	b9 00 00 00 00	 mov	 ecx, OFFSET ?g_KanturuBattleUserMng@@3VCKanturuBattleUserMng@@A ; g_KanturuBattleUserMng
; File c:\users\michel\desktop\source\gameserver\source\kanturutowerofrefinement.h

; 55   : 	void SetUseTowerOfRefinement(BOOL bUse){this->m_bIsUseTowerOfRefinement = bUse;}

  00029	c7 46 0c 00 00
	00 00		 mov	 DWORD PTR [esi+12], 0
  00030	5e		 pop	 esi
; File c:\users\michel\desktop\source\gameserver\source\kanturutowerofrefinement.cpp

; 258  : 	g_KanturuBattleUserMng.ResetAllData();

  00031	e9 00 00 00 00	 jmp	 ?ResetAllData@CKanturuBattleUserMng@@QAEXXZ ; CKanturuBattleUserMng::ResetAllData
?SetState_NONE@CKanturuTowerOfRefinement@@QAEXXZ ENDP	; CKanturuTowerOfRefinement::SetState_NONE
_TEXT	ENDS
; Function compile flags: /Ogtp
; File c:\users\michel\desktop\source\gameserver\source\kanturutowerofrefinement.cpp
;	COMDAT ?SetNextState@CKanturuTowerOfRefinement@@QAEXH@Z
_TEXT	SEGMENT
_iCurrentState$ = 8					; size = 4
?SetNextState@CKanturuTowerOfRefinement@@QAEXH@Z PROC	; CKanturuTowerOfRefinement::SetNextState, COMDAT
; _this$ = ecx

; 238  : {

  00000	55		 push	 ebp
  00001	8b ec		 mov	 ebp, esp

; 239  : 	int iNextState = iCurrentState + 1;

  00003	8b 45 08	 mov	 eax, DWORD PTR _iCurrentState$[ebp]

; 240  : 
; 241  : 	if ( iNextState >= KANTURU_TOWER_OF_REFINEMENT_STATE_INFO )

  00006	33 d2		 xor	 edx, edx
  00008	40		 inc	 eax
  00009	83 f8 06	 cmp	 eax, 6
  0000c	0f 4d c2	 cmovge	 eax, edx

; 242  : 	{
; 243  : 		iNextState = KANTURU_TOWER_OF_REFINEMENT_NONE;
; 244  : 	}
; 245  : 
; 246  : 	this->SetState(iNextState);

  0000f	89 45 08	 mov	 DWORD PTR _iCurrentState$[ebp], eax

; 247  : }

  00012	5d		 pop	 ebp

; 242  : 	{
; 243  : 		iNextState = KANTURU_TOWER_OF_REFINEMENT_NONE;
; 244  : 	}
; 245  : 
; 246  : 	this->SetState(iNextState);

  00013	e9 00 00 00 00	 jmp	 ?SetState@CKanturuTowerOfRefinement@@QAEXH@Z ; CKanturuTowerOfRefinement::SetState
?SetNextState@CKanturuTowerOfRefinement@@QAEXH@Z ENDP	; CKanturuTowerOfRefinement::SetNextState
_TEXT	ENDS
; Function compile flags: /Ogtp
; File c:\users\michel\desktop\source\gameserver\source\kanturutowerofrefinement.cpp
; File c:\users\michel\desktop\source\gameserver\source\kanturustateinfo.h
; File c:\users\michel\desktop\source\gameserver\source\kanturutowerofrefinement.cpp
; File c:\users\michel\desktop\source\gameserver\source\kanturustateinfo.h
; File c:\users\michel\desktop\source\gameserver\source\kanturutowerofrefinement.cpp
;	COMDAT ?SetState@CKanturuTowerOfRefinement@@QAEXH@Z
_TEXT	SEGMENT
_iTowerOfRefinement$ = 8				; size = 4
?SetState@CKanturuTowerOfRefinement@@QAEXH@Z PROC	; CKanturuTowerOfRefinement::SetState, COMDAT
; _this$ = ecx

; 203  : {

  00000	55		 push	 ebp
  00001	8b ec		 mov	 ebp, esp
  00003	53		 push	 ebx
  00004	56		 push	 esi
  00005	57		 push	 edi

; 204  : 	if ( this->m_StateInfo[iTowerOfRefinement].GetCondition() > 0 )

  00006	8b 7d 08	 mov	 edi, DWORD PTR _iTowerOfRefinement$[ebp]
  00009	8b f1		 mov	 esi, ecx
  0000b	8d 04 bf	 lea	 eax, DWORD PTR [edi+edi*4]
  0000e	83 7c 86 1c 00	 cmp	 DWORD PTR [esi+eax*4+28], 0
; File c:\users\michel\desktop\source\gameserver\source\kanturustateinfo.h

; 42   : 		return this->m_iCondition;

  00013	8d 1c 86	 lea	 ebx, DWORD PTR [esi+eax*4]
; File c:\users\michel\desktop\source\gameserver\source\kanturutowerofrefinement.cpp

; 204  : 	if ( this->m_StateInfo[iTowerOfRefinement].GetCondition() > 0 )

  00016	7e 09		 jle	 SHORT $LN4@SetState
; File c:\users\michel\desktop\source\gameserver\source\kanturustateinfo.h

; 56   : 		this->m_dwAppliedTickCount = GetTickCount();

  00018	ff 15 00 00 00
	00		 call	 DWORD PTR __imp__GetTickCount@0
  0001e	89 43 24	 mov	 DWORD PTR [ebx+36], eax
$LN4@SetState:
; File c:\users\michel\desktop\source\gameserver\source\kanturutowerofrefinement.cpp

; 209  : 	switch ( iTowerOfRefinement )

  00021	83 ff 05	 cmp	 edi, 5
  00024	77 3b		 ja	 SHORT $LN2@SetState
  00026	ff 24 bd 00 00
	00 00		 jmp	 DWORD PTR $LN17@SetState[edi*4]
$LN5@SetState:

; 210  : 	{
; 211  : 		case KANTURU_TOWER_OF_REFINEMENT_NONE:
; 212  : 			this->SetState_NONE();

  0002d	8b ce		 mov	 ecx, esi
  0002f	e8 00 00 00 00	 call	 ?SetState_NONE@CKanturuTowerOfRefinement@@QAEXXZ ; CKanturuTowerOfRefinement::SetState_NONE

; 213  : 			break;

  00034	eb 2b		 jmp	 SHORT $LN2@SetState
$LN6@SetState:

; 214  : 		case KANTURU_TOWER_OF_REFINEMENT_REVITALIZATION:
; 215  : 			this->SetState_REVITALIZATION();

  00036	8b ce		 mov	 ecx, esi
  00038	e8 00 00 00 00	 call	 ?SetState_REVITALIZATION@CKanturuTowerOfRefinement@@QAEXXZ ; CKanturuTowerOfRefinement::SetState_REVITALIZATION

; 216  : 			break;

  0003d	eb 22		 jmp	 SHORT $LN2@SetState
$LN7@SetState:

; 217  : 		case KANTURU_TOWER_OF_REFINEMENT_NOTIFY1:
; 218  : 			this->SetState_NOTIFY1();

  0003f	8b ce		 mov	 ecx, esi
  00041	e8 00 00 00 00	 call	 ?SetState_NOTIFY1@CKanturuTowerOfRefinement@@QAEXXZ ; CKanturuTowerOfRefinement::SetState_NOTIFY1

; 219  : 			break;

  00046	eb 19		 jmp	 SHORT $LN2@SetState
$LN8@SetState:

; 220  : 		case KANTURU_TOWER_OF_REFINEMENT_CLOSE:
; 221  : 			this->SetState_CLOSE();

  00048	8b ce		 mov	 ecx, esi
  0004a	e8 00 00 00 00	 call	 ?SetState_CLOSE@CKanturuTowerOfRefinement@@QAEXXZ ; CKanturuTowerOfRefinement::SetState_CLOSE

; 222  : 			break;

  0004f	eb 10		 jmp	 SHORT $LN2@SetState
$LN9@SetState:

; 223  : 		case KANTURU_TOWER_OF_REFINEMENT_NOTIFY2:
; 224  : 			this->SetState_NOTIFY2();

  00051	8b ce		 mov	 ecx, esi
  00053	e8 00 00 00 00	 call	 ?SetState_NOTIFY2@CKanturuTowerOfRefinement@@QAEXXZ ; CKanturuTowerOfRefinement::SetState_NOTIFY2

; 225  : 			break;

  00058	eb 07		 jmp	 SHORT $LN2@SetState
$LN10@SetState:

; 226  : 		case KANTURU_TOWER_OF_REFINEMENT_END:
; 227  : 			this->SetState_END();

  0005a	8b ce		 mov	 ecx, esi
  0005c	e8 00 00 00 00	 call	 ?SetState_END@CKanturuTowerOfRefinement@@QAEXXZ ; CKanturuTowerOfRefinement::SetState_END
$LN2@SetState:

; 228  : 			break;
; 229  : 	}
; 230  : 
; 231  : 	KANTURU_UTIL.NotifyKanturuChangeState(KANTURU_STATE_TOWER_OF_REFINEMENT, this->m_iTowerOfRefinementState);

  00061	ff 76 04	 push	 DWORD PTR [esi+4]
  00064	b9 00 00 00 00	 mov	 ecx, OFFSET ?KANTURU_UTIL@@3VCKanturuUtil@@A
  00069	6a 04		 push	 4
  0006b	e8 00 00 00 00	 call	 ?NotifyKanturuChangeState@CKanturuUtil@@QAEXHH@Z ; CKanturuUtil::NotifyKanturuChangeState

; 232  : 	g_KanturuBattleUserMng.ResetAllData();

  00070	b9 00 00 00 00	 mov	 ecx, OFFSET ?g_KanturuBattleUserMng@@3VCKanturuBattleUserMng@@A ; g_KanturuBattleUserMng
  00075	e8 00 00 00 00	 call	 ?ResetAllData@CKanturuBattleUserMng@@QAEXXZ ; CKanturuBattleUserMng::ResetAllData
  0007a	5f		 pop	 edi
  0007b	5e		 pop	 esi
  0007c	5b		 pop	 ebx

; 233  : }

  0007d	5d		 pop	 ebp
  0007e	c2 04 00	 ret	 4
  00081	0f 1f 00	 npad	 3
$LN17@SetState:
  00084	00 00 00 00	 DD	 $LN5@SetState
  00088	00 00 00 00	 DD	 $LN6@SetState
  0008c	00 00 00 00	 DD	 $LN7@SetState
  00090	00 00 00 00	 DD	 $LN8@SetState
  00094	00 00 00 00	 DD	 $LN9@SetState
  00098	00 00 00 00	 DD	 $LN10@SetState
?SetState@CKanturuTowerOfRefinement@@QAEXH@Z ENDP	; CKanturuTowerOfRefinement::SetState
_TEXT	ENDS
; Function compile flags: /Ogtp
; File c:\users\michel\desktop\source\gameserver\source\kanturutowerofrefinement.cpp
;	COMDAT ?Run@CKanturuTowerOfRefinement@@QAEXXZ
_TEXT	SEGMENT
?Run@CKanturuTowerOfRefinement@@QAEXXZ PROC		; CKanturuTowerOfRefinement::Run, COMDAT
; _this$ = ecx

; 175  : 	this->CheckStateTime();

  00000	e9 00 00 00 00	 jmp	 ?CheckStateTime@CKanturuTowerOfRefinement@@QAEXXZ ; CKanturuTowerOfRefinement::CheckStateTime
?Run@CKanturuTowerOfRefinement@@QAEXXZ ENDP		; CKanturuTowerOfRefinement::Run
_TEXT	ENDS
; Function compile flags: /Ogtp
; File c:\users\michel\desktop\source\gameserver\source\kanturutowerofrefinement.cpp
; File c:\users\michel\desktop\source\gameserver\source\kanturustateinfo.h
; File c:\users\michel\desktop\source\gameserver\source\kanturutowerofrefinement.cpp
;	COMDAT ?ResetAllData@CKanturuTowerOfRefinement@@QAEXXZ
_TEXT	SEGMENT
?ResetAllData@CKanturuTowerOfRefinement@@QAEXXZ PROC	; CKanturuTowerOfRefinement::ResetAllData, COMDAT
; _this$ = ecx

; 48   : 	this->m_StateInfoCount = 0;

  00000	c7 81 8c 00 00
	00 00 00 00 00	 mov	 DWORD PTR [ecx+140], 0
; File c:\users\michel\desktop\source\gameserver\source\kanturustateinfo.h

; 30   : 		this->m_iState = iStateTimeInfo;

  0000a	c7 41 18 00 00
	00 00		 mov	 DWORD PTR [ecx+24], 0

; 31   : 	}
; 32   : 
; 33   : 	//int __thiscall GetStateInfo();
; 34   : 	void SetCondition(int iCondition)
; 35   : 	{
; 36   : 		this->m_iCondition = iCondition;

  00011	c7 41 1c 00 00
	00 00		 mov	 DWORD PTR [ecx+28], 0

; 37   : 	}
; 38   : 
; 39   : 
; 40   : 	int GetCondition()
; 41   : 	{
; 42   : 		return this->m_iCondition;
; 43   : 	}
; 44   : 
; 45   : 	void SetValue(int iValue)
; 46   : 	{
; 47   : 		this->m_iValue = iValue;

  00018	c7 41 20 00 00
	00 00		 mov	 DWORD PTR [ecx+32], 0

; 30   : 		this->m_iState = iStateTimeInfo;

  0001f	c7 41 2c 00 00
	00 00		 mov	 DWORD PTR [ecx+44], 0

; 31   : 	}
; 32   : 
; 33   : 	//int __thiscall GetStateInfo();
; 34   : 	void SetCondition(int iCondition)
; 35   : 	{
; 36   : 		this->m_iCondition = iCondition;

  00026	c7 41 30 00 00
	00 00		 mov	 DWORD PTR [ecx+48], 0

; 37   : 	}
; 38   : 
; 39   : 
; 40   : 	int GetCondition()
; 41   : 	{
; 42   : 		return this->m_iCondition;
; 43   : 	}
; 44   : 
; 45   : 	void SetValue(int iValue)
; 46   : 	{
; 47   : 		this->m_iValue = iValue;

  0002d	c7 41 34 00 00
	00 00		 mov	 DWORD PTR [ecx+52], 0

; 30   : 		this->m_iState = iStateTimeInfo;

  00034	c7 41 40 00 00
	00 00		 mov	 DWORD PTR [ecx+64], 0

; 31   : 	}
; 32   : 
; 33   : 	//int __thiscall GetStateInfo();
; 34   : 	void SetCondition(int iCondition)
; 35   : 	{
; 36   : 		this->m_iCondition = iCondition;

  0003b	c7 41 44 00 00
	00 00		 mov	 DWORD PTR [ecx+68], 0

; 37   : 	}
; 38   : 
; 39   : 
; 40   : 	int GetCondition()
; 41   : 	{
; 42   : 		return this->m_iCondition;
; 43   : 	}
; 44   : 
; 45   : 	void SetValue(int iValue)
; 46   : 	{
; 47   : 		this->m_iValue = iValue;

  00042	c7 41 48 00 00
	00 00		 mov	 DWORD PTR [ecx+72], 0

; 30   : 		this->m_iState = iStateTimeInfo;

  00049	c7 41 54 00 00
	00 00		 mov	 DWORD PTR [ecx+84], 0

; 31   : 	}
; 32   : 
; 33   : 	//int __thiscall GetStateInfo();
; 34   : 	void SetCondition(int iCondition)
; 35   : 	{
; 36   : 		this->m_iCondition = iCondition;

  00050	c7 41 58 00 00
	00 00		 mov	 DWORD PTR [ecx+88], 0

; 37   : 	}
; 38   : 
; 39   : 
; 40   : 	int GetCondition()
; 41   : 	{
; 42   : 		return this->m_iCondition;
; 43   : 	}
; 44   : 
; 45   : 	void SetValue(int iValue)
; 46   : 	{
; 47   : 		this->m_iValue = iValue;

  00057	c7 41 5c 00 00
	00 00		 mov	 DWORD PTR [ecx+92], 0

; 30   : 		this->m_iState = iStateTimeInfo;

  0005e	c7 41 68 00 00
	00 00		 mov	 DWORD PTR [ecx+104], 0

; 31   : 	}
; 32   : 
; 33   : 	//int __thiscall GetStateInfo();
; 34   : 	void SetCondition(int iCondition)
; 35   : 	{
; 36   : 		this->m_iCondition = iCondition;

  00065	c7 41 6c 00 00
	00 00		 mov	 DWORD PTR [ecx+108], 0

; 37   : 	}
; 38   : 
; 39   : 
; 40   : 	int GetCondition()
; 41   : 	{
; 42   : 		return this->m_iCondition;
; 43   : 	}
; 44   : 
; 45   : 	void SetValue(int iValue)
; 46   : 	{
; 47   : 		this->m_iValue = iValue;

  0006c	c7 41 70 00 00
	00 00		 mov	 DWORD PTR [ecx+112], 0

; 30   : 		this->m_iState = iStateTimeInfo;

  00073	c7 41 7c 00 00
	00 00		 mov	 DWORD PTR [ecx+124], 0

; 31   : 	}
; 32   : 
; 33   : 	//int __thiscall GetStateInfo();
; 34   : 	void SetCondition(int iCondition)
; 35   : 	{
; 36   : 		this->m_iCondition = iCondition;

  0007a	c7 81 80 00 00
	00 00 00 00 00	 mov	 DWORD PTR [ecx+128], 0

; 37   : 	}
; 38   : 
; 39   : 
; 40   : 	int GetCondition()
; 41   : 	{
; 42   : 		return this->m_iCondition;
; 43   : 	}
; 44   : 
; 45   : 	void SetValue(int iValue)
; 46   : 	{
; 47   : 		this->m_iValue = iValue;

  00084	c7 81 84 00 00
	00 00 00 00 00	 mov	 DWORD PTR [ecx+132], 0
; File c:\users\michel\desktop\source\gameserver\source\kanturutowerofrefinement.cpp

; 54   : }

  0008e	c3		 ret	 0
?ResetAllData@CKanturuTowerOfRefinement@@QAEXXZ ENDP	; CKanturuTowerOfRefinement::ResetAllData
_TEXT	ENDS
; Function compile flags: /Ogtp
; File c:\users\michel\desktop\source\gameserver\source\kanturutowerofrefinement.cpp
; File c:\users\michel\desktop\source\gameserver\source\kanturustateinfo.h
; File c:\users\michel\desktop\source\gameserver\source\kanturutowerofrefinement.cpp
; File c:\users\michel\desktop\source\gameserver\source\kanturustateinfo.h
; File c:\users\michel\desktop\source\gameserver\source\kanturutowerofrefinement.cpp
; File c:\users\michel\desktop\source\gameserver\source\kanturustateinfo.h
; File c:\users\michel\desktop\source\gameserver\source\kanturutowerofrefinement.cpp
;	COMDAT ?LoadData@CKanturuTowerOfRefinement@@QAEHPAD@Z
_TEXT	SEGMENT
_this$ = -24						; size = 4
_iType$1$ = -20						; size = 4
__$EHRec$ = -16						; size = 16
_lpszFileName$ = 8					; size = 4
?LoadData@CKanturuTowerOfRefinement@@QAEHPAD@Z PROC	; CKanturuTowerOfRefinement::LoadData, COMDAT
; _this$ = ecx

; 60   : {

  00000	55		 push	 ebp
  00001	8b ec		 mov	 ebp, esp
  00003	6a ff		 push	 -1
  00005	68 00 00 00 00	 push	 __ehhandler$?LoadData@CKanturuTowerOfRefinement@@QAEHPAD@Z
  0000a	64 a1 00 00 00
	00		 mov	 eax, DWORD PTR fs:0
  00010	50		 push	 eax
  00011	83 ec 0c	 sub	 esp, 12			; 0000000cH
  00014	53		 push	 ebx
  00015	56		 push	 esi
  00016	57		 push	 edi
  00017	a1 00 00 00 00	 mov	 eax, DWORD PTR ___security_cookie
  0001c	33 c5		 xor	 eax, ebp
  0001e	50		 push	 eax
  0001f	8d 45 f4	 lea	 eax, DWORD PTR __$EHRec$[ebp+4]
  00022	64 a3 00 00 00
	00		 mov	 DWORD PTR fs:0, eax
  00028	89 65 f0	 mov	 DWORD PTR __$EHRec$[ebp], esp
  0002b	8b f1		 mov	 esi, ecx
  0002d	89 75 e8	 mov	 DWORD PTR _this$[ebp], esi

; 61   : 	this->m_bFileDataLoad = FALSE;
; 62   : 
; 63   : 	if ( !lpszFileName || !strcmp(lpszFileName, ""))

  00030	8b 5d 08	 mov	 ebx, DWORD PTR _lpszFileName$[ebp]
  00033	c7 46 10 00 00
	00 00		 mov	 DWORD PTR [esi+16], 0
  0003a	85 db		 test	 ebx, ebx
  0003c	0f 84 0e 02 00
	00		 je	 $LN7@LoadData
  00042	b9 00 00 00 00	 mov	 ecx, OFFSET ??_C@_00CNPNBAHC@?$AA@
  00047	8b c3		 mov	 eax, ebx
  00049	0f 1f 80 00 00
	00 00		 npad	 7
$LL36@LoadData:
  00050	8a 10		 mov	 dl, BYTE PTR [eax]
  00052	3a 11		 cmp	 dl, BYTE PTR [ecx]
  00054	75 1a		 jne	 SHORT $LN37@LoadData
  00056	84 d2		 test	 dl, dl
  00058	74 12		 je	 SHORT $LN38@LoadData
  0005a	8a 50 01	 mov	 dl, BYTE PTR [eax+1]
  0005d	3a 51 01	 cmp	 dl, BYTE PTR [ecx+1]
  00060	75 0e		 jne	 SHORT $LN37@LoadData
  00062	83 c0 02	 add	 eax, 2
  00065	83 c1 02	 add	 ecx, 2
  00068	84 d2		 test	 dl, dl
  0006a	75 e4		 jne	 SHORT $LL36@LoadData
$LN38@LoadData:
  0006c	33 c0		 xor	 eax, eax
  0006e	eb 05		 jmp	 SHORT $LN39@LoadData
$LN37@LoadData:
  00070	1b c0		 sbb	 eax, eax
  00072	83 c8 01	 or	 eax, 1
$LN39@LoadData:
  00075	85 c0		 test	 eax, eax
  00077	0f 84 d3 01 00
	00		 je	 $LN7@LoadData

; 67   : 	}
; 68   : 
; 69   : 	try
; 70   : 	{
; 71   : 		SMDFile = fopen(lpszFileName, "r");

  0007d	68 00 00 00 00	 push	 OFFSET ??_C@_01KDCPPGHE@r?$AA@
  00082	53		 push	 ebx
  00083	c7 45 fc 00 00
	00 00		 mov	 DWORD PTR __$EHRec$[ebp+12], 0
  0008a	e8 00 00 00 00	 call	 _fopen
  0008f	83 c4 08	 add	 esp, 8
  00092	a3 00 00 00 00	 mov	 DWORD PTR ?SMDFile@@3PAU_iobuf@@A, eax

; 72   : 
; 73   : 		if ( SMDFile == NULL )

  00097	85 c0		 test	 eax, eax
  00099	75 19		 jne	 SHORT $LN9@LoadData

; 74   : 		{
; 75   : 			DWORD dwLastError = GetLastError();

  0009b	ff 15 00 00 00
	00		 call	 DWORD PTR __imp__GetLastError@0

; 76   : 
; 77   : 			MsgBox("[ KANTURU ][ TowerOfRefinement ] - Can't Open %s ",

  000a1	53		 push	 ebx
  000a2	68 00 00 00 00	 push	 OFFSET ??_C@_0DC@INOFMPPF@?$FL?5KANTURU?5?$FN?$FL?5TowerOfRefinement?5?$FN@
  000a7	e8 00 00 00 00	 call	 ?MsgBox@@YAXPADZZ	; MsgBox
  000ac	83 c4 08	 add	 esp, 8

; 78   : 				lpszFileName);
; 79   : 
; 80   : 			return FALSE;

  000af	e9 a9 01 00 00	 jmp	 $LN50@LoadData
$LN9@LoadData:

; 81   : 		}
; 82   : 
; 83   : 		this->ResetAllData();

  000b4	8b ce		 mov	 ecx, esi
  000b6	e8 00 00 00 00	 call	 ?ResetAllData@CKanturuTowerOfRefinement@@QAEXXZ ; CKanturuTowerOfRefinement::ResetAllData
  000bb	0f 1f 44 00 00	 npad	 5
$LL2@LoadData:

; 84   : 		SMDToken Token;
; 85   : 		int iType = -1;
; 86   : 		int iState = 0;
; 87   : 		int iCondition = 0;
; 88   : 		int iValue = 0;
; 89   : 
; 90   : 		while ( true )
; 91   : 		{
; 92   : 			Token = GetToken();

  000c0	e8 00 00 00 00	 call	 ?GetToken@@YA?AW4SMDToken@@XZ ; GetToken

; 93   : 
; 94   : 			if ( Token == END )

  000c5	83 f8 02	 cmp	 eax, 2
  000c8	75 3a		 jne	 SHORT $LN10@LoadData

; 155  : 
; 156  : 		fclose(SMDFile);

  000ca	ff 35 00 00 00
	00		 push	 DWORD PTR ?SMDFile@@3PAU_iobuf@@A
  000d0	e8 00 00 00 00	 call	 _fclose

; 157  : 
; 158  : 		LogAddC(2, "[ KANTURU ][ TowerOfRefinement ] %s file is Loaded",

  000d5	53		 push	 ebx
  000d6	68 00 00 00 00	 push	 OFFSET ??_C@_0DD@ELNIJKJJ@?$FL?5KANTURU?5?$FN?$FL?5TowerOfRefinement?5?$FN@
  000db	6a 02		 push	 2
  000dd	ff 15 00 00 00
	00		 call	 DWORD PTR ?LogAddC@@3P6AXEPADZZA ; LogAddC

; 159  : 			lpszFileName);
; 160  : 
; 161  : 		this->m_bFileDataLoad = TRUE;

  000e3	c7 46 10 01 00
	00 00		 mov	 DWORD PTR [esi+16], 1
  000ea	83 c4 10	 add	 esp, 16			; 00000010H

; 167  : 
; 168  : 	return this->m_bFileDataLoad;

  000ed	8b 46 10	 mov	 eax, DWORD PTR [esi+16]

; 169  : }

  000f0	8b 4d f4	 mov	 ecx, DWORD PTR __$EHRec$[ebp+4]
  000f3	64 89 0d 00 00
	00 00		 mov	 DWORD PTR fs:0, ecx
  000fa	59		 pop	 ecx
  000fb	5f		 pop	 edi
  000fc	5e		 pop	 esi
  000fd	5b		 pop	 ebx
  000fe	8b e5		 mov	 esp, ebp
  00100	5d		 pop	 ebp
  00101	c2 04 00	 ret	 4
$LN10@LoadData:

; 95   : 			{
; 96   : 				break;
; 97   : 			}
; 98   : 
; 99   : 			iType = (int)TokenNumber;

  00104	f3 0f 2c 05 00
	00 00 00	 cvttss2si eax, DWORD PTR ?TokenNumber@@3MA
  0010c	89 45 ec	 mov	 DWORD PTR _iType$1$[ebp], eax
  0010f	90		 npad	 1
$LL4@LoadData:

; 100  : 
; 101  : 			while ( true )
; 102  : 			{
; 103  : 				if ( iType == 9 )

  00110	83 f8 09	 cmp	 eax, 9
  00113	0f 85 f0 00 00
	00		 jne	 $LN11@LoadData

; 104  : 				{
; 105  : 					iState = 0;
; 106  : 					iCondition = 0;
; 107  : 					iValue = 0;
; 108  : 
; 109  : 					Token = GetToken();

  00119	e8 00 00 00 00	 call	 ?GetToken@@YA?AW4SMDToken@@XZ ; GetToken

; 110  : 
; 111  : 					if ( !strcmp("end", TokenString))

  0011e	b9 00 00 00 00	 mov	 ecx, OFFSET ?TokenString@@3PADA
  00123	b8 00 00 00 00	 mov	 eax, OFFSET ??_C@_03JBJLGPFL@end?$AA@
$LL40@LoadData:
  00128	8a 10		 mov	 dl, BYTE PTR [eax]
  0012a	3a 11		 cmp	 dl, BYTE PTR [ecx]
  0012c	75 1a		 jne	 SHORT $LN41@LoadData
  0012e	84 d2		 test	 dl, dl
  00130	74 12		 je	 SHORT $LN42@LoadData
  00132	8a 50 01	 mov	 dl, BYTE PTR [eax+1]
  00135	3a 51 01	 cmp	 dl, BYTE PTR [ecx+1]
  00138	75 0e		 jne	 SHORT $LN41@LoadData
  0013a	83 c0 02	 add	 eax, 2
  0013d	83 c1 02	 add	 ecx, 2
  00140	84 d2		 test	 dl, dl
  00142	75 e4		 jne	 SHORT $LL40@LoadData
$LN42@LoadData:
  00144	33 c0		 xor	 eax, eax
  00146	eb 05		 jmp	 SHORT $LN43@LoadData
$LN41@LoadData:
  00148	1b c0		 sbb	 eax, eax
  0014a	83 c8 01	 or	 eax, 1
$LN43@LoadData:
  0014d	8b 5d 08	 mov	 ebx, DWORD PTR _lpszFileName$[ebp]
  00150	85 c0		 test	 eax, eax
  00152	0f 84 68 ff ff
	ff		 je	 $LL2@LoadData

; 112  : 					{
; 113  : 						break;
; 114  : 					}
; 115  : 
; 116  : 					iState = (int)TokenNumber;

  00158	f3 0f 2c 1d 00
	00 00 00	 cvttss2si ebx, DWORD PTR ?TokenNumber@@3MA

; 117  : 
; 118  : 					Token = GetToken();

  00160	e8 00 00 00 00	 call	 ?GetToken@@YA?AW4SMDToken@@XZ ; GetToken

; 119  : 					iCondition = (int)TokenNumber;

  00165	f3 0f 2c 3d 00
	00 00 00	 cvttss2si edi, DWORD PTR ?TokenNumber@@3MA

; 120  : 
; 121  : 					Token = GetToken();

  0016d	e8 00 00 00 00	 call	 ?GetToken@@YA?AW4SMDToken@@XZ ; GetToken

; 122  : 					iValue = (int)TokenNumber;
; 123  : 
; 124  : 					if ( this->m_StateInfoCount < 0 || this->m_StateInfoCount >= KANTURU_TOWER_OF_REFINEMENT_STATE_INFO )

  00172	8b 86 8c 00 00
	00		 mov	 eax, DWORD PTR [esi+140]
  00178	f3 0f 2c 0d 00
	00 00 00	 cvttss2si ecx, DWORD PTR ?TokenNumber@@3MA
  00180	85 c0		 test	 eax, eax
  00182	78 3f		 js	 SHORT $LN15@LoadData
  00184	83 f8 06	 cmp	 eax, 6
  00187	7d 3a		 jge	 SHORT $LN15@LoadData

; 130  : 					}
; 131  : 
; 132  : 					this->m_StateInfo[this->m_StateInfoCount].SetStateInfo(iState);

  00189	8d 04 80	 lea	 eax, DWORD PTR [eax+eax*4]
; File c:\users\michel\desktop\source\gameserver\source\kanturustateinfo.h

; 30   : 		this->m_iState = iStateTimeInfo;

  0018c	89 5c 86 18	 mov	 DWORD PTR [esi+eax*4+24], ebx
; File c:\users\michel\desktop\source\gameserver\source\kanturutowerofrefinement.cpp

; 133  : 					this->m_StateInfo[this->m_StateInfoCount].SetCondition(iCondition);

  00190	8b 86 8c 00 00
	00		 mov	 eax, DWORD PTR [esi+140]
  00196	8d 04 80	 lea	 eax, DWORD PTR [eax+eax*4]
; File c:\users\michel\desktop\source\gameserver\source\kanturustateinfo.h

; 36   : 		this->m_iCondition = iCondition;

  00199	89 7c 86 1c	 mov	 DWORD PTR [esi+eax*4+28], edi
; File c:\users\michel\desktop\source\gameserver\source\kanturutowerofrefinement.cpp

; 135  : 					if ( iCondition == 1 )

  0019d	83 ff 01	 cmp	 edi, 1
  001a0	75 06		 jne	 SHORT $LN16@LoadData

; 136  : 					{
; 137  : 						iValue *= 1000;

  001a2	69 c9 e8 03 00
	00		 imul	 ecx, ecx, 1000
$LN16@LoadData:

; 138  : 					}
; 139  : 
; 140  : 					this->m_StateInfo[this->m_StateInfoCount].SetValue(iValue);

  001a8	8b 86 8c 00 00
	00		 mov	 eax, DWORD PTR [esi+140]
  001ae	8d 04 80	 lea	 eax, DWORD PTR [eax+eax*4]
; File c:\users\michel\desktop\source\gameserver\source\kanturustateinfo.h

; 47   : 		this->m_iValue = iValue;

  001b1	89 4c 86 20	 mov	 DWORD PTR [esi+eax*4+32], ecx
; File c:\users\michel\desktop\source\gameserver\source\kanturutowerofrefinement.cpp

; 141  : 					this->m_StateInfoCount++;

  001b5	ff 86 8c 00 00
	00		 inc	 DWORD PTR [esi+140]

; 142  : 				}
; 143  : 				else

  001bb	8b 45 ec	 mov	 eax, DWORD PTR _iType$1$[ebp]
  001be	e9 4d ff ff ff	 jmp	 $LL4@LoadData
$LN15@LoadData:

; 125  : 					{
; 126  : 						MsgBox("[ KANTURU ][ TowerOfRefinement ] - Exceed Max State Time (%d)",

  001c3	50		 push	 eax
  001c4	68 00 00 00 00	 push	 OFFSET ??_C@_0DO@BIBDPNOH@?$FL?5KANTURU?5?$FN?$FL?5TowerOfRefinement?5?$FN@
  001c9	e8 00 00 00 00	 call	 ?MsgBox@@YAXPADZZ	; MsgBox

; 127  : 							this->m_StateInfoCount);
; 128  : 
; 129  : 						break;

  001ce	8b 5d 08	 mov	 ebx, DWORD PTR _lpszFileName$[ebp]
  001d1	83 c4 08	 add	 esp, 8
  001d4	e9 e7 fe ff ff	 jmp	 $LL2@LoadData
__catch$?LoadData@CKanturuTowerOfRefinement@@QAEHPAD@Z$0:

; 162  : 	}	// __try
; 163  : 	catch ( DWORD )
; 164  : 	{
; 165  : 		MsgBox("[ KANTURU ][ TowerOfRefinement ] - Loading Exception Error (%s) File. ", lpszFileName);

  001d9	ff 75 08	 push	 DWORD PTR _lpszFileName$[ebp]
  001dc	68 00 00 00 00	 push	 OFFSET ??_C@_0EH@JMDBALKN@?$FL?5KANTURU?5?$FN?$FL?5TowerOfRefinement?5?$FN@
  001e1	e8 00 00 00 00	 call	 ?MsgBox@@YAXPADZZ	; MsgBox
  001e6	83 c4 08	 add	 esp, 8

; 166  : 	}

  001e9	b8 00 00 00 00	 mov	 eax, $LN48@LoadData
  001ee	c3		 ret	 0
$LN48@LoadData:
  001ef	8b 75 e8	 mov	 esi, DWORD PTR _this$[ebp]

; 167  : 
; 168  : 	return this->m_bFileDataLoad;

  001f2	8b 46 10	 mov	 eax, DWORD PTR [esi+16]

; 169  : }

  001f5	8b 4d f4	 mov	 ecx, DWORD PTR __$EHRec$[ebp+4]
  001f8	64 89 0d 00 00
	00 00		 mov	 DWORD PTR fs:0, ecx
  001ff	59		 pop	 ecx
  00200	5f		 pop	 edi
  00201	5e		 pop	 esi
  00202	5b		 pop	 ebx
  00203	8b e5		 mov	 esp, ebp
  00205	5d		 pop	 ebp
  00206	c2 04 00	 ret	 4
$LN11@LoadData:

; 144  : 				{
; 145  : 					Token = GetToken();

  00209	e8 00 00 00 00	 call	 ?GetToken@@YA?AW4SMDToken@@XZ ; GetToken

; 146  : 
; 147  : 					if ( !strcmp("end", TokenString))

  0020e	b9 00 00 00 00	 mov	 ecx, OFFSET ?TokenString@@3PADA
  00213	b8 00 00 00 00	 mov	 eax, OFFSET ??_C@_03JBJLGPFL@end?$AA@
$LL44@LoadData:
  00218	8a 10		 mov	 dl, BYTE PTR [eax]
  0021a	3a 11		 cmp	 dl, BYTE PTR [ecx]
  0021c	75 1a		 jne	 SHORT $LN45@LoadData
  0021e	84 d2		 test	 dl, dl
  00220	74 12		 je	 SHORT $LN46@LoadData
  00222	8a 50 01	 mov	 dl, BYTE PTR [eax+1]
  00225	3a 51 01	 cmp	 dl, BYTE PTR [ecx+1]
  00228	75 0e		 jne	 SHORT $LN45@LoadData
  0022a	83 c0 02	 add	 eax, 2
  0022d	83 c1 02	 add	 ecx, 2
  00230	84 d2		 test	 dl, dl
  00232	75 e4		 jne	 SHORT $LL44@LoadData
$LN46@LoadData:
  00234	33 c0		 xor	 eax, eax
  00236	eb 05		 jmp	 SHORT $LN47@LoadData
$LN45@LoadData:
  00238	1b c0		 sbb	 eax, eax
  0023a	83 c8 01	 or	 eax, 1
$LN47@LoadData:
  0023d	85 c0		 test	 eax, eax
  0023f	8b 45 ec	 mov	 eax, DWORD PTR _iType$1$[ebp]
  00242	0f 85 c8 fe ff
	ff		 jne	 $LL4@LoadData

; 148  : 					{
; 149  : 						break;
; 150  : 					}
; 151  : 				}
; 152  : 
; 153  : 			}	// while
; 154  : 		}	// while

  00248	8b 5d 08	 mov	 ebx, DWORD PTR _lpszFileName$[ebp]
  0024b	e9 70 fe ff ff	 jmp	 $LL2@LoadData
$LN7@LoadData:

; 64   : 	{
; 65   : 		MsgBox("[ KANTURU ][ TowerOfRefinement ] - File load error : File Name Error");

  00250	68 00 00 00 00	 push	 OFFSET ??_C@_0EF@DFHHJFBD@?$FL?5KANTURU?5?$FN?$FL?5TowerOfRefinement?5?$FN@
  00255	e8 00 00 00 00	 call	 ?MsgBox@@YAXPADZZ	; MsgBox
  0025a	83 c4 04	 add	 esp, 4
$LN50@LoadData:

; 66   : 		return FALSE;

  0025d	33 c0		 xor	 eax, eax

; 169  : }

  0025f	8b 4d f4	 mov	 ecx, DWORD PTR __$EHRec$[ebp+4]
  00262	64 89 0d 00 00
	00 00		 mov	 DWORD PTR fs:0, ecx
  00269	59		 pop	 ecx
  0026a	5f		 pop	 edi
  0026b	5e		 pop	 esi
  0026c	5b		 pop	 ebx
  0026d	8b e5		 mov	 esp, ebp
  0026f	5d		 pop	 ebp
  00270	c2 04 00	 ret	 4
_TEXT	ENDS
;	COMDAT text$x
text$x	SEGMENT
__ehhandler$?LoadData@CKanturuTowerOfRefinement@@QAEHPAD@Z:
  00000	8b 54 24 08	 mov	 edx, DWORD PTR [esp+8]
  00004	8d 42 0c	 lea	 eax, DWORD PTR [edx+12]
  00007	8b 4a e4	 mov	 ecx, DWORD PTR [edx-28]
  0000a	33 c8		 xor	 ecx, eax
  0000c	e8 00 00 00 00	 call	 @__security_check_cookie@4
  00011	b8 00 00 00 00	 mov	 eax, OFFSET __ehfuncinfo$?LoadData@CKanturuTowerOfRefinement@@QAEHPAD@Z
  00016	e9 00 00 00 00	 jmp	 ___CxxFrameHandler3
text$x	ENDS
?LoadData@CKanturuTowerOfRefinement@@QAEHPAD@Z ENDP	; CKanturuTowerOfRefinement::LoadData
; Function compile flags: /Ogtp
; File c:\users\michel\desktop\source\gameserver\source\kanturutowerofrefinement.cpp
;	COMDAT ?Init@CKanturuTowerOfRefinement@@QAEXXZ
_TEXT	SEGMENT
?Init@CKanturuTowerOfRefinement@@QAEXXZ PROC		; CKanturuTowerOfRefinement::Init, COMDAT
; _this$ = ecx

; 41   : 	return;
; 42   : }

  00000	c3		 ret	 0
?Init@CKanturuTowerOfRefinement@@QAEXXZ ENDP		; CKanturuTowerOfRefinement::Init
_TEXT	ENDS
; Function compile flags: /Ogtp
; File c:\users\michel\desktop\source\gameserver\source\kanturutowerofrefinement.cpp
;	COMDAT ??1CKanturuTowerOfRefinement@@UAE@XZ
_TEXT	SEGMENT
__$EHRec$ = -12						; size = 12
??1CKanturuTowerOfRefinement@@UAE@XZ PROC		; CKanturuTowerOfRefinement::~CKanturuTowerOfRefinement, COMDAT
; _this$ = ecx

; 33   : {

  00000	55		 push	 ebp
  00001	8b ec		 mov	 ebp, esp
  00003	6a ff		 push	 -1
  00005	68 00 00 00 00	 push	 __ehhandler$??1CKanturuTowerOfRefinement@@UAE@XZ
  0000a	64 a1 00 00 00
	00		 mov	 eax, DWORD PTR fs:0
  00010	50		 push	 eax
  00011	a1 00 00 00 00	 mov	 eax, DWORD PTR ___security_cookie
  00016	33 c5		 xor	 eax, ebp
  00018	50		 push	 eax
  00019	8d 45 f4	 lea	 eax, DWORD PTR __$EHRec$[ebp]
  0001c	64 a3 00 00 00
	00		 mov	 DWORD PTR fs:0, eax

; 34   : 	return;
; 35   : }

  00022	68 00 00 00 00	 push	 OFFSET ??1CKanturuStateInfo@@UAE@XZ ; CKanturuStateInfo::~CKanturuStateInfo
  00027	6a 06		 push	 6
  00029	6a 14		 push	 20			; 00000014H
  0002b	8d 41 14	 lea	 eax, DWORD PTR [ecx+20]
  0002e	c7 01 00 00 00
	00		 mov	 DWORD PTR [ecx], OFFSET ??_7CKanturuTowerOfRefinement@@6B@
  00034	50		 push	 eax
  00035	e8 00 00 00 00	 call	 ??_M@YGXPAXIIP6EX0@Z@Z
  0003a	8b 4d f4	 mov	 ecx, DWORD PTR __$EHRec$[ebp]
  0003d	64 89 0d 00 00
	00 00		 mov	 DWORD PTR fs:0, ecx
  00044	59		 pop	 ecx
  00045	8b e5		 mov	 esp, ebp
  00047	5d		 pop	 ebp
  00048	c3		 ret	 0
_TEXT	ENDS
;	COMDAT text$x
text$x	SEGMENT
__ehhandler$??1CKanturuTowerOfRefinement@@UAE@XZ:
  00000	8b 54 24 08	 mov	 edx, DWORD PTR [esp+8]
  00004	8d 42 0c	 lea	 eax, DWORD PTR [edx+12]
  00007	8b 4a fc	 mov	 ecx, DWORD PTR [edx-4]
  0000a	33 c8		 xor	 ecx, eax
  0000c	e8 00 00 00 00	 call	 @__security_check_cookie@4
  00011	b8 00 00 00 00	 mov	 eax, OFFSET __ehfuncinfo$??1CKanturuTowerOfRefinement@@UAE@XZ
  00016	e9 00 00 00 00	 jmp	 ___CxxFrameHandler3
text$x	ENDS
??1CKanturuTowerOfRefinement@@UAE@XZ ENDP		; CKanturuTowerOfRefinement::~CKanturuTowerOfRefinement
; Function compile flags: /Ogtp
; File c:\users\michel\desktop\source\gameserver\source\kanturutowerofrefinement.cpp
; File c:\users\michel\desktop\source\gameserver\source\kanturutowerofrefinement.h
; File c:\users\michel\desktop\source\gameserver\source\kanturutowerofrefinement.cpp
; File c:\users\michel\desktop\source\gameserver\source\kanturutowerofrefinement.h
; File c:\users\michel\desktop\source\gameserver\source\kanturutowerofrefinement.cpp
;	COMDAT ??0CKanturuTowerOfRefinement@@QAE@XZ
_TEXT	SEGMENT
_this$ = -4						; size = 4
??0CKanturuTowerOfRefinement@@QAE@XZ PROC		; CKanturuTowerOfRefinement::CKanturuTowerOfRefinement, COMDAT
; _this$ = ecx

; 24   : {

  00000	55		 push	 ebp
  00001	8b ec		 mov	 ebp, esp
  00003	51		 push	 ecx
  00004	56		 push	 esi
  00005	68 00 00 00 00	 push	 OFFSET ??1CKanturuStateInfo@@UAE@XZ ; CKanturuStateInfo::~CKanturuStateInfo
  0000a	8b f1		 mov	 esi, ecx
  0000c	68 00 00 00 00	 push	 OFFSET ??0CKanturuStateInfo@@QAE@XZ ; CKanturuStateInfo::CKanturuStateInfo
  00011	6a 06		 push	 6
  00013	6a 14		 push	 20			; 00000014H
  00015	8d 46 14	 lea	 eax, DWORD PTR [esi+20]
  00018	89 75 fc	 mov	 DWORD PTR _this$[ebp], esi
  0001b	50		 push	 eax
  0001c	c7 06 00 00 00
	00		 mov	 DWORD PTR [esi], OFFSET ??_7CKanturuTowerOfRefinement@@6B@
  00022	e8 00 00 00 00	 call	 ??_L@YGXPAXIIP6EX0@Z1@Z
; File c:\users\michel\desktop\source\gameserver\source\kanturutowerofrefinement.h

; 51   : 	void SetTowerOfRefinementState(int iTowerOfRefinement){this->m_iTowerOfRefinementState = iTowerOfRefinement;}

  00027	c7 46 04 00 00
	00 00		 mov	 DWORD PTR [esi+4], 0
; File c:\users\michel\desktop\source\gameserver\source\kanturutowerofrefinement.cpp

; 30   : }

  0002e	8b c6		 mov	 eax, esi
; File c:\users\michel\desktop\source\gameserver\source\kanturutowerofrefinement.h

; 53   : 	void SetEntrancePermit(BOOL bEntrancePermit){this->m_bEntrancePermit = bEntrancePermit;}

  00030	c7 46 08 00 00
	00 00		 mov	 DWORD PTR [esi+8], 0

; 54   : 	BOOL GetEntrancePermit(){return this->m_bEntrancePermit;}
; 55   : 	void SetUseTowerOfRefinement(BOOL bUse){this->m_bIsUseTowerOfRefinement = bUse;}

  00037	c7 46 0c 00 00
	00 00		 mov	 DWORD PTR [esi+12], 0
; File c:\users\michel\desktop\source\gameserver\source\kanturutowerofrefinement.cpp

; 29   : 	this->m_StateInfoCount = 0;

  0003e	c7 86 8c 00 00
	00 00 00 00 00	 mov	 DWORD PTR [esi+140], 0
  00048	5e		 pop	 esi

; 30   : }

  00049	8b e5		 mov	 esp, ebp
  0004b	5d		 pop	 ebp
  0004c	c3		 ret	 0
??0CKanturuTowerOfRefinement@@QAE@XZ ENDP		; CKanturuTowerOfRefinement::CKanturuTowerOfRefinement
_TEXT	ENDS
; Function compile flags: /Ogtp
; File c:\users\michel\desktop\source\gameserver\source\kanturustateinfo.h
;	COMDAT ?IsTimeOut@CKanturuStateInfo@@QAEHXZ
_TEXT	SEGMENT
?IsTimeOut@CKanturuStateInfo@@QAEHXZ PROC		; CKanturuStateInfo::IsTimeOut, COMDAT
; _this$ = ecx

; 91   : 	{

  00000	57		 push	 edi
  00001	8b f9		 mov	 edi, ecx

; 68   : 		return iElapsedTime;
; 69   : 	}
; 70   : 
; 71   : 	int GetRemainTime()
; 72   : 	{
; 73   : 		int iRemainTime = 0;
; 74   : 
; 75   : 		if ( this->GetCondition() == 1 )

  00003	83 7f 08 01	 cmp	 DWORD PTR [edi+8], 1
  00007	75 2f		 jne	 SHORT $LN14@IsTimeOut
  00009	56		 push	 esi

; 61   : 		return this->m_dwAppliedTickCount;

  0000a	8b 77 10	 mov	 esi, DWORD PTR [edi+16]

; 62   : 	}
; 63   : 
; 64   : 	//void __thiscall ResetAppliedTime();
; 65   : 	int GetElapsedTime()
; 66   : 	{
; 67   : 		int iElapsedTime = GetTickCount() - this->GetAppliedTime();

  0000d	ff 15 00 00 00
	00		 call	 DWORD PTR __imp__GetTickCount@0

; 76   : 		{
; 77   : 			iRemainTime = this->m_iValue - this->GetElapsedTime();

  00013	8b 4f 0c	 mov	 ecx, DWORD PTR [edi+12]

; 62   : 	}
; 63   : 
; 64   : 	//void __thiscall ResetAppliedTime();
; 65   : 	int GetElapsedTime()
; 66   : 	{
; 67   : 		int iElapsedTime = GetTickCount() - this->GetAppliedTime();

  00016	2b c6		 sub	 eax, esi

; 76   : 		{
; 77   : 			iRemainTime = this->m_iValue - this->GetElapsedTime();

  00018	2b c8		 sub	 ecx, eax
  0001a	5e		 pop	 esi

; 78   : 
; 79   : 			if ( iRemainTime <= 0 )

  0001b	85 c9		 test	 ecx, ecx
  0001d	7e 19		 jle	 SHORT $LN14@IsTimeOut

; 80   : 			{
; 81   : 				return 0;
; 82   : 			}
; 83   : 
; 84   : 			iRemainTime /= 1000;

  0001f	b8 d3 4d 62 10	 mov	 eax, 274877907		; 10624dd3H
  00024	f7 e9		 imul	 ecx
  00026	c1 fa 06	 sar	 edx, 6
  00029	8b c2		 mov	 eax, edx
  0002b	c1 e8 1f	 shr	 eax, 31			; 0000001fH
  0002e	03 c2		 add	 eax, edx

; 92   : 		if ( this->GetRemainTime() <= 0 )

  00030	85 c0		 test	 eax, eax
  00032	7e 04		 jle	 SHORT $LN14@IsTimeOut

; 95   : 		}
; 96   : 
; 97   : 		return FALSE;

  00034	33 c0		 xor	 eax, eax
  00036	5f		 pop	 edi

; 98   : 	}

  00037	c3		 ret	 0
$LN14@IsTimeOut:

; 93   : 		{
; 94   : 			return TRUE;

  00038	b8 01 00 00 00	 mov	 eax, 1
  0003d	5f		 pop	 edi

; 98   : 	}

  0003e	c3		 ret	 0
?IsTimeOut@CKanturuStateInfo@@QAEHXZ ENDP		; CKanturuStateInfo::IsTimeOut
_TEXT	ENDS
; Function compile flags: /Ogtp
; File c:\users\michel\desktop\source\gameserver\source\kanturustateinfo.h
;	COMDAT ?GetRemainTime@CKanturuStateInfo@@QAEHXZ
_TEXT	SEGMENT
?GetRemainTime@CKanturuStateInfo@@QAEHXZ PROC		; CKanturuStateInfo::GetRemainTime, COMDAT
; _this$ = ecx

; 72   : 	{

  00000	57		 push	 edi
  00001	8b f9		 mov	 edi, ecx

; 73   : 		int iRemainTime = 0;

  00003	33 c0		 xor	 eax, eax

; 74   : 
; 75   : 		if ( this->GetCondition() == 1 )

  00005	83 7f 08 01	 cmp	 DWORD PTR [edi+8], 1
  00009	75 2b		 jne	 SHORT $LN1@GetRemainT
  0000b	56		 push	 esi

; 61   : 		return this->m_dwAppliedTickCount;

  0000c	8b 77 10	 mov	 esi, DWORD PTR [edi+16]

; 62   : 	}
; 63   : 
; 64   : 	//void __thiscall ResetAppliedTime();
; 65   : 	int GetElapsedTime()
; 66   : 	{
; 67   : 		int iElapsedTime = GetTickCount() - this->GetAppliedTime();

  0000f	ff 15 00 00 00
	00		 call	 DWORD PTR __imp__GetTickCount@0

; 76   : 		{
; 77   : 			iRemainTime = this->m_iValue - this->GetElapsedTime();

  00015	8b 4f 0c	 mov	 ecx, DWORD PTR [edi+12]

; 62   : 	}
; 63   : 
; 64   : 	//void __thiscall ResetAppliedTime();
; 65   : 	int GetElapsedTime()
; 66   : 	{
; 67   : 		int iElapsedTime = GetTickCount() - this->GetAppliedTime();

  00018	2b c6		 sub	 eax, esi

; 76   : 		{
; 77   : 			iRemainTime = this->m_iValue - this->GetElapsedTime();

  0001a	2b c8		 sub	 ecx, eax
  0001c	5e		 pop	 esi

; 78   : 
; 79   : 			if ( iRemainTime <= 0 )

  0001d	85 c9		 test	 ecx, ecx
  0001f	7f 04		 jg	 SHORT $LN3@GetRemainT

; 80   : 			{
; 81   : 				return 0;

  00021	33 c0		 xor	 eax, eax
  00023	5f		 pop	 edi

; 85   : 		}
; 86   : 
; 87   : 		return iRemainTime;
; 88   : 	}

  00024	c3		 ret	 0
$LN3@GetRemainT:

; 82   : 			}
; 83   : 
; 84   : 			iRemainTime /= 1000;

  00025	b8 d3 4d 62 10	 mov	 eax, 274877907		; 10624dd3H
  0002a	f7 e9		 imul	 ecx
  0002c	c1 fa 06	 sar	 edx, 6
  0002f	8b c2		 mov	 eax, edx
  00031	c1 e8 1f	 shr	 eax, 31			; 0000001fH
  00034	03 c2		 add	 eax, edx
$LN1@GetRemainT:
  00036	5f		 pop	 edi

; 85   : 		}
; 86   : 
; 87   : 		return iRemainTime;
; 88   : 	}

  00037	c3		 ret	 0
?GetRemainTime@CKanturuStateInfo@@QAEHXZ ENDP		; CKanturuStateInfo::GetRemainTime
_TEXT	ENDS
; Function compile flags: /Ogtp
; File c:\users\michel\desktop\source\gameserver\source\kanturustateinfo.h
;	COMDAT ?GetElapsedTime@CKanturuStateInfo@@QAEHXZ
_TEXT	SEGMENT
?GetElapsedTime@CKanturuStateInfo@@QAEHXZ PROC		; CKanturuStateInfo::GetElapsedTime, COMDAT
; _this$ = ecx

; 66   : 	{

  00000	56		 push	 esi

; 61   : 		return this->m_dwAppliedTickCount;

  00001	8b 71 10	 mov	 esi, DWORD PTR [ecx+16]

; 67   : 		int iElapsedTime = GetTickCount() - this->GetAppliedTime();

  00004	ff 15 00 00 00
	00		 call	 DWORD PTR __imp__GetTickCount@0
  0000a	2b c6		 sub	 eax, esi
  0000c	5e		 pop	 esi

; 68   : 		return iElapsedTime;
; 69   : 	}

  0000d	c3		 ret	 0
?GetElapsedTime@CKanturuStateInfo@@QAEHXZ ENDP		; CKanturuStateInfo::GetElapsedTime
_TEXT	ENDS
; Function compile flags: /Ogtp
; File c:\users\michel\desktop\source\gameserver\source\kanturustateinfo.h
;	COMDAT ?GetAppliedTime@CKanturuStateInfo@@QAEHXZ
_TEXT	SEGMENT
?GetAppliedTime@CKanturuStateInfo@@QAEHXZ PROC		; CKanturuStateInfo::GetAppliedTime, COMDAT
; _this$ = ecx

; 61   : 		return this->m_dwAppliedTickCount;

  00000	8b 41 10	 mov	 eax, DWORD PTR [ecx+16]

; 62   : 	}

  00003	c3		 ret	 0
?GetAppliedTime@CKanturuStateInfo@@QAEHXZ ENDP		; CKanturuStateInfo::GetAppliedTime
_TEXT	ENDS
; Function compile flags: /Ogtp
; File c:\users\michel\desktop\source\gameserver\source\kanturustateinfo.h
;	COMDAT ?SetAppliedTime@CKanturuStateInfo@@QAEXXZ
_TEXT	SEGMENT
?SetAppliedTime@CKanturuStateInfo@@QAEXXZ PROC		; CKanturuStateInfo::SetAppliedTime, COMDAT
; _this$ = ecx

; 55   : 	{

  00000	56		 push	 esi
  00001	8b f1		 mov	 esi, ecx

; 56   : 		this->m_dwAppliedTickCount = GetTickCount();

  00003	ff 15 00 00 00
	00		 call	 DWORD PTR __imp__GetTickCount@0
  00009	89 46 10	 mov	 DWORD PTR [esi+16], eax
  0000c	5e		 pop	 esi

; 57   : 	}

  0000d	c3		 ret	 0
?SetAppliedTime@CKanturuStateInfo@@QAEXXZ ENDP		; CKanturuStateInfo::SetAppliedTime
_TEXT	ENDS
; Function compile flags: /Ogtp
; File c:\users\michel\desktop\source\gameserver\source\kanturustateinfo.h
;	COMDAT ?SetValue@CKanturuStateInfo@@QAEXH@Z
_TEXT	SEGMENT
_iValue$ = 8						; size = 4
?SetValue@CKanturuStateInfo@@QAEXH@Z PROC		; CKanturuStateInfo::SetValue, COMDAT
; _this$ = ecx

; 46   : 	{

  00000	55		 push	 ebp
  00001	8b ec		 mov	 ebp, esp

; 47   : 		this->m_iValue = iValue;

  00003	8b 45 08	 mov	 eax, DWORD PTR _iValue$[ebp]
  00006	89 41 0c	 mov	 DWORD PTR [ecx+12], eax

; 48   : 	}

  00009	5d		 pop	 ebp
  0000a	c2 04 00	 ret	 4
?SetValue@CKanturuStateInfo@@QAEXH@Z ENDP		; CKanturuStateInfo::SetValue
_TEXT	ENDS
; Function compile flags: /Ogtp
; File c:\users\michel\desktop\source\gameserver\source\kanturustateinfo.h
;	COMDAT ?GetCondition@CKanturuStateInfo@@QAEHXZ
_TEXT	SEGMENT
?GetCondition@CKanturuStateInfo@@QAEHXZ PROC		; CKanturuStateInfo::GetCondition, COMDAT
; _this$ = ecx

; 42   : 		return this->m_iCondition;

  00000	8b 41 08	 mov	 eax, DWORD PTR [ecx+8]

; 43   : 	}

  00003	c3		 ret	 0
?GetCondition@CKanturuStateInfo@@QAEHXZ ENDP		; CKanturuStateInfo::GetCondition
_TEXT	ENDS
; Function compile flags: /Ogtp
; File c:\users\michel\desktop\source\gameserver\source\kanturustateinfo.h
;	COMDAT ?SetCondition@CKanturuStateInfo@@QAEXH@Z
_TEXT	SEGMENT
_iCondition$ = 8					; size = 4
?SetCondition@CKanturuStateInfo@@QAEXH@Z PROC		; CKanturuStateInfo::SetCondition, COMDAT
; _this$ = ecx

; 35   : 	{

  00000	55		 push	 ebp
  00001	8b ec		 mov	 ebp, esp

; 36   : 		this->m_iCondition = iCondition;

  00003	8b 45 08	 mov	 eax, DWORD PTR _iCondition$[ebp]
  00006	89 41 08	 mov	 DWORD PTR [ecx+8], eax

; 37   : 	}

  00009	5d		 pop	 ebp
  0000a	c2 04 00	 ret	 4
?SetCondition@CKanturuStateInfo@@QAEXH@Z ENDP		; CKanturuStateInfo::SetCondition
_TEXT	ENDS
; Function compile flags: /Ogtp
; File c:\users\michel\desktop\source\gameserver\source\kanturustateinfo.h
;	COMDAT ?SetStateInfo@CKanturuStateInfo@@QAEXH@Z
_TEXT	SEGMENT
_iStateTimeInfo$ = 8					; size = 4
?SetStateInfo@CKanturuStateInfo@@QAEXH@Z PROC		; CKanturuStateInfo::SetStateInfo, COMDAT
; _this$ = ecx

; 29   : 	{

  00000	55		 push	 ebp
  00001	8b ec		 mov	 ebp, esp

; 30   : 		this->m_iState = iStateTimeInfo;

  00003	8b 45 08	 mov	 eax, DWORD PTR _iStateTimeInfo$[ebp]
  00006	89 41 04	 mov	 DWORD PTR [ecx+4], eax

; 31   : 	}

  00009	5d		 pop	 ebp
  0000a	c2 04 00	 ret	 4
?SetStateInfo@CKanturuStateInfo@@QAEXH@Z ENDP		; CKanturuStateInfo::SetStateInfo
_TEXT	ENDS
; Function compile flags: /Ogtp
; File c:\users\michel\desktop\source\gameserver\source\kanturustateinfo.h
;	COMDAT ?ResetTimeInfo@CKanturuStateInfo@@QAEXXZ
_TEXT	SEGMENT
?ResetTimeInfo@CKanturuStateInfo@@QAEXXZ PROC		; CKanturuStateInfo::ResetTimeInfo, COMDAT
; _this$ = ecx

; 26   : 
; 27   : 
; 28   : 	void SetStateInfo(int iStateTimeInfo)
; 29   : 	{
; 30   : 		this->m_iState = iStateTimeInfo;

  00000	c7 41 04 00 00
	00 00		 mov	 DWORD PTR [ecx+4], 0

; 31   : 	}
; 32   : 
; 33   : 	//int __thiscall GetStateInfo();
; 34   : 	void SetCondition(int iCondition)
; 35   : 	{
; 36   : 		this->m_iCondition = iCondition;

  00007	c7 41 08 00 00
	00 00		 mov	 DWORD PTR [ecx+8], 0

; 37   : 	}
; 38   : 
; 39   : 
; 40   : 	int GetCondition()
; 41   : 	{
; 42   : 		return this->m_iCondition;
; 43   : 	}
; 44   : 
; 45   : 	void SetValue(int iValue)
; 46   : 	{
; 47   : 		this->m_iValue = iValue;

  0000e	c7 41 0c 00 00
	00 00		 mov	 DWORD PTR [ecx+12], 0

; 22   : 		this->SetStateInfo(0);
; 23   : 		this->SetCondition(0);
; 24   : 		this->SetValue(0);
; 25   : 	}

  00015	c3		 ret	 0
?ResetTimeInfo@CKanturuStateInfo@@QAEXXZ ENDP		; CKanturuStateInfo::ResetTimeInfo
_TEXT	ENDS
; Function compile flags: /Ogtp
; File c:\users\michel\desktop\source\gameserver\source\kanturutowerofrefinement.cpp
;	COMDAT ?__empty_global_delete@@YAXPAXI@Z
_TEXT	SEGMENT
___formal$ = 8						; size = 4
___formal$ = 12						; size = 4
?__empty_global_delete@@YAXPAXI@Z PROC			; __empty_global_delete, COMDAT

  00000	c3		 ret	 0
?__empty_global_delete@@YAXPAXI@Z ENDP			; __empty_global_delete
_TEXT	ENDS
; Function compile flags: /Ogtp
; File c:\users\michel\desktop\source\gameserver\source\kanturutowerofrefinement.cpp
;	COMDAT ?__empty_global_delete@@YAXPAX@Z
_TEXT	SEGMENT
___formal$ = 8						; size = 4
?__empty_global_delete@@YAXPAX@Z PROC			; __empty_global_delete, COMDAT

  00000	c3		 ret	 0
?__empty_global_delete@@YAXPAX@Z ENDP			; __empty_global_delete
_TEXT	ENDS
END
