; Listing generated by Microsoft (R) Optimizing Compiler Version 19.00.23506.0 

	TITLE	C:\Users\Michel\Desktop\Source\GameServer\Source\KanturuStateInfo.cpp
	.686P
	.XMM
	include listing.inc
	.model	flat

INCLUDELIB LIBCMT
INCLUDELIB OLDNAMES

PUBLIC	?__empty_global_delete@@YAXPAX@Z		; __empty_global_delete
PUBLIC	?__empty_global_delete@@YAXPAXI@Z		; __empty_global_delete
PUBLIC	??0CKanturuStateInfo@@QAE@XZ			; CKanturuStateInfo::CKanturuStateInfo
PUBLIC	??1CKanturuStateInfo@@UAE@XZ			; CKanturuStateInfo::~CKanturuStateInfo
PUBLIC	??_GCKanturuStateInfo@@UAEPAXI@Z		; CKanturuStateInfo::`scalar deleting destructor'
PUBLIC	??_7CKanturuStateInfo@@6B@			; CKanturuStateInfo::`vftable'
PUBLIC	??_R4CKanturuStateInfo@@6B@			; CKanturuStateInfo::`RTTI Complete Object Locator'
PUBLIC	??_R0?AVCKanturuStateInfo@@@8			; CKanturuStateInfo `RTTI Type Descriptor'
PUBLIC	??_R3CKanturuStateInfo@@8			; CKanturuStateInfo::`RTTI Class Hierarchy Descriptor'
PUBLIC	??_R2CKanturuStateInfo@@8			; CKanturuStateInfo::`RTTI Base Class Array'
PUBLIC	??_R1A@?0A@EA@CKanturuStateInfo@@8		; CKanturuStateInfo::`RTTI Base Class Descriptor at (0,-1,0,64)'
EXTRN	??3@YAXPAXI@Z:PROC				; operator delete
EXTRN	??_ECKanturuStateInfo@@UAEPAXI@Z:PROC		; CKanturuStateInfo::`vector deleting destructor'
EXTRN	??_7type_info@@6B@:QWORD			; type_info::`vftable'
;	COMDAT ??_R1A@?0A@EA@CKanturuStateInfo@@8
rdata$r	SEGMENT
??_R1A@?0A@EA@CKanturuStateInfo@@8 DD FLAT:??_R0?AVCKanturuStateInfo@@@8 ; CKanturuStateInfo::`RTTI Base Class Descriptor at (0,-1,0,64)'
	DD	00H
	DD	00H
	DD	0ffffffffH
	DD	00H
	DD	040H
	DD	FLAT:??_R3CKanturuStateInfo@@8
rdata$r	ENDS
;	COMDAT ??_R2CKanturuStateInfo@@8
rdata$r	SEGMENT
??_R2CKanturuStateInfo@@8 DD FLAT:??_R1A@?0A@EA@CKanturuStateInfo@@8 ; CKanturuStateInfo::`RTTI Base Class Array'
rdata$r	ENDS
;	COMDAT ??_R3CKanturuStateInfo@@8
rdata$r	SEGMENT
??_R3CKanturuStateInfo@@8 DD 00H			; CKanturuStateInfo::`RTTI Class Hierarchy Descriptor'
	DD	00H
	DD	01H
	DD	FLAT:??_R2CKanturuStateInfo@@8
rdata$r	ENDS
;	COMDAT ??_R0?AVCKanturuStateInfo@@@8
data$r	SEGMENT
??_R0?AVCKanturuStateInfo@@@8 DD FLAT:??_7type_info@@6B@ ; CKanturuStateInfo `RTTI Type Descriptor'
	DD	00H
	DB	'.?AVCKanturuStateInfo@@', 00H
data$r	ENDS
;	COMDAT ??_R4CKanturuStateInfo@@6B@
rdata$r	SEGMENT
??_R4CKanturuStateInfo@@6B@ DD 00H			; CKanturuStateInfo::`RTTI Complete Object Locator'
	DD	00H
	DD	00H
	DD	FLAT:??_R0?AVCKanturuStateInfo@@@8
	DD	FLAT:??_R3CKanturuStateInfo@@8
rdata$r	ENDS
;	COMDAT ??_7CKanturuStateInfo@@6B@
CONST	SEGMENT
??_7CKanturuStateInfo@@6B@ DD FLAT:??_R4CKanturuStateInfo@@6B@ ; CKanturuStateInfo::`vftable'
	DD	FLAT:??_ECKanturuStateInfo@@UAEPAXI@Z
CONST	ENDS
; Function compile flags: /Ogtp
;	COMDAT ??_GCKanturuStateInfo@@UAEPAXI@Z
_TEXT	SEGMENT
___flags$ = 8						; size = 4
??_GCKanturuStateInfo@@UAEPAXI@Z PROC			; CKanturuStateInfo::`scalar deleting destructor', COMDAT
; _this$ = ecx
  00000	55		 push	 ebp
  00001	8b ec		 mov	 ebp, esp
  00003	56		 push	 esi
  00004	8b f1		 mov	 esi, ecx
  00006	e8 00 00 00 00	 call	 ??1CKanturuStateInfo@@UAE@XZ ; CKanturuStateInfo::~CKanturuStateInfo
  0000b	f6 45 08 01	 test	 BYTE PTR ___flags$[ebp], 1
  0000f	74 0b		 je	 SHORT $LN4@scalar
  00011	6a 14		 push	 20			; 00000014H
  00013	56		 push	 esi
  00014	e8 00 00 00 00	 call	 ??3@YAXPAXI@Z		; operator delete
  00019	83 c4 08	 add	 esp, 8
$LN4@scalar:
  0001c	8b c6		 mov	 eax, esi
  0001e	5e		 pop	 esi
  0001f	5d		 pop	 ebp
  00020	c2 04 00	 ret	 4
??_GCKanturuStateInfo@@UAEPAXI@Z ENDP			; CKanturuStateInfo::`scalar deleting destructor'
_TEXT	ENDS
; Function compile flags: /Ogtp
; File c:\users\michel\desktop\source\gameserver\source\kanturustateinfo.h
;	COMDAT ?SetValue@CKanturuStateInfo@@QAEXH@Z
_TEXT	SEGMENT
_iValue$ = 8						; size = 4
?SetValue@CKanturuStateInfo@@QAEXH@Z PROC		; CKanturuStateInfo::SetValue, COMDAT
; _this$ = ecx

; 46   : 	{

  00000	55		 push	 ebp
  00001	8b ec		 mov	 ebp, esp

; 47   : 		this->m_iValue = iValue;

  00003	8b 45 08	 mov	 eax, DWORD PTR _iValue$[ebp]
  00006	89 41 0c	 mov	 DWORD PTR [ecx+12], eax

; 48   : 	}

  00009	5d		 pop	 ebp
  0000a	c2 04 00	 ret	 4
?SetValue@CKanturuStateInfo@@QAEXH@Z ENDP		; CKanturuStateInfo::SetValue
_TEXT	ENDS
; Function compile flags: /Ogtp
; File c:\users\michel\desktop\source\gameserver\source\kanturustateinfo.h
;	COMDAT ?SetCondition@CKanturuStateInfo@@QAEXH@Z
_TEXT	SEGMENT
_iCondition$ = 8					; size = 4
?SetCondition@CKanturuStateInfo@@QAEXH@Z PROC		; CKanturuStateInfo::SetCondition, COMDAT
; _this$ = ecx

; 35   : 	{

  00000	55		 push	 ebp
  00001	8b ec		 mov	 ebp, esp

; 36   : 		this->m_iCondition = iCondition;

  00003	8b 45 08	 mov	 eax, DWORD PTR _iCondition$[ebp]
  00006	89 41 08	 mov	 DWORD PTR [ecx+8], eax

; 37   : 	}

  00009	5d		 pop	 ebp
  0000a	c2 04 00	 ret	 4
?SetCondition@CKanturuStateInfo@@QAEXH@Z ENDP		; CKanturuStateInfo::SetCondition
_TEXT	ENDS
; Function compile flags: /Ogtp
; File c:\users\michel\desktop\source\gameserver\source\kanturustateinfo.h
;	COMDAT ?SetStateInfo@CKanturuStateInfo@@QAEXH@Z
_TEXT	SEGMENT
_iStateTimeInfo$ = 8					; size = 4
?SetStateInfo@CKanturuStateInfo@@QAEXH@Z PROC		; CKanturuStateInfo::SetStateInfo, COMDAT
; _this$ = ecx

; 29   : 	{

  00000	55		 push	 ebp
  00001	8b ec		 mov	 ebp, esp

; 30   : 		this->m_iState = iStateTimeInfo;

  00003	8b 45 08	 mov	 eax, DWORD PTR _iStateTimeInfo$[ebp]
  00006	89 41 04	 mov	 DWORD PTR [ecx+4], eax

; 31   : 	}

  00009	5d		 pop	 ebp
  0000a	c2 04 00	 ret	 4
?SetStateInfo@CKanturuStateInfo@@QAEXH@Z ENDP		; CKanturuStateInfo::SetStateInfo
_TEXT	ENDS
; Function compile flags: /Ogtp
; File c:\users\michel\desktop\source\gameserver\source\kanturustateinfo.h
;	COMDAT ?ResetTimeInfo@CKanturuStateInfo@@QAEXXZ
_TEXT	SEGMENT
?ResetTimeInfo@CKanturuStateInfo@@QAEXXZ PROC		; CKanturuStateInfo::ResetTimeInfo, COMDAT
; _this$ = ecx

; 26   : 
; 27   : 
; 28   : 	void SetStateInfo(int iStateTimeInfo)
; 29   : 	{
; 30   : 		this->m_iState = iStateTimeInfo;

  00000	c7 41 04 00 00
	00 00		 mov	 DWORD PTR [ecx+4], 0

; 31   : 	}
; 32   : 
; 33   : 	//int __thiscall GetStateInfo();
; 34   : 	void SetCondition(int iCondition)
; 35   : 	{
; 36   : 		this->m_iCondition = iCondition;

  00007	c7 41 08 00 00
	00 00		 mov	 DWORD PTR [ecx+8], 0

; 37   : 	}
; 38   : 
; 39   : 
; 40   : 	int GetCondition()
; 41   : 	{
; 42   : 		return this->m_iCondition;
; 43   : 	}
; 44   : 
; 45   : 	void SetValue(int iValue)
; 46   : 	{
; 47   : 		this->m_iValue = iValue;

  0000e	c7 41 0c 00 00
	00 00		 mov	 DWORD PTR [ecx+12], 0

; 22   : 		this->SetStateInfo(0);
; 23   : 		this->SetCondition(0);
; 24   : 		this->SetValue(0);
; 25   : 	}

  00015	c3		 ret	 0
?ResetTimeInfo@CKanturuStateInfo@@QAEXXZ ENDP		; CKanturuStateInfo::ResetTimeInfo
_TEXT	ENDS
; Function compile flags: /Ogtp
; File c:\users\michel\desktop\source\gameserver\source\kanturustateinfo.cpp
;	COMDAT ??1CKanturuStateInfo@@UAE@XZ
_TEXT	SEGMENT
??1CKanturuStateInfo@@UAE@XZ PROC			; CKanturuStateInfo::~CKanturuStateInfo, COMDAT
; _this$ = ecx

; 18   : {

  00000	c7 01 00 00 00
	00		 mov	 DWORD PTR [ecx], OFFSET ??_7CKanturuStateInfo@@6B@

; 19   : 	return;
; 20   : }

  00006	c3		 ret	 0
??1CKanturuStateInfo@@UAE@XZ ENDP			; CKanturuStateInfo::~CKanturuStateInfo
_TEXT	ENDS
; Function compile flags: /Ogtp
; File c:\users\michel\desktop\source\gameserver\source\kanturustateinfo.cpp
; File c:\users\michel\desktop\source\gameserver\source\kanturustateinfo.h
; File c:\users\michel\desktop\source\gameserver\source\kanturustateinfo.cpp
;	COMDAT ??0CKanturuStateInfo@@QAE@XZ
_TEXT	SEGMENT
??0CKanturuStateInfo@@QAE@XZ PROC			; CKanturuStateInfo::CKanturuStateInfo, COMDAT
; _this$ = ecx

; 13   : {

  00000	c7 01 00 00 00
	00		 mov	 DWORD PTR [ecx], OFFSET ??_7CKanturuStateInfo@@6B@

; 15   : }

  00006	8b c1		 mov	 eax, ecx
; File c:\users\michel\desktop\source\gameserver\source\kanturustateinfo.h

; 30   : 		this->m_iState = iStateTimeInfo;

  00008	c7 41 04 00 00
	00 00		 mov	 DWORD PTR [ecx+4], 0

; 31   : 	}
; 32   : 
; 33   : 	//int __thiscall GetStateInfo();
; 34   : 	void SetCondition(int iCondition)
; 35   : 	{
; 36   : 		this->m_iCondition = iCondition;

  0000f	c7 41 08 00 00
	00 00		 mov	 DWORD PTR [ecx+8], 0

; 37   : 	}
; 38   : 
; 39   : 
; 40   : 	int GetCondition()
; 41   : 	{
; 42   : 		return this->m_iCondition;
; 43   : 	}
; 44   : 
; 45   : 	void SetValue(int iValue)
; 46   : 	{
; 47   : 		this->m_iValue = iValue;

  00016	c7 41 0c 00 00
	00 00		 mov	 DWORD PTR [ecx+12], 0
; File c:\users\michel\desktop\source\gameserver\source\kanturustateinfo.cpp

; 15   : }

  0001d	c3		 ret	 0
??0CKanturuStateInfo@@QAE@XZ ENDP			; CKanturuStateInfo::CKanturuStateInfo
_TEXT	ENDS
; Function compile flags: /Ogtp
; File c:\users\michel\desktop\source\gameserver\source\kanturustateinfo.cpp
;	COMDAT ?__empty_global_delete@@YAXPAXI@Z
_TEXT	SEGMENT
___formal$ = 8						; size = 4
___formal$ = 12						; size = 4
?__empty_global_delete@@YAXPAXI@Z PROC			; __empty_global_delete, COMDAT

  00000	c3		 ret	 0
?__empty_global_delete@@YAXPAXI@Z ENDP			; __empty_global_delete
_TEXT	ENDS
; Function compile flags: /Ogtp
; File c:\users\michel\desktop\source\gameserver\source\kanturustateinfo.cpp
;	COMDAT ?__empty_global_delete@@YAXPAX@Z
_TEXT	SEGMENT
___formal$ = 8						; size = 4
?__empty_global_delete@@YAXPAX@Z PROC			; __empty_global_delete, COMDAT

  00000	c3		 ret	 0
?__empty_global_delete@@YAXPAX@Z ENDP			; __empty_global_delete
_TEXT	ENDS
END
