; Listing generated by Microsoft (R) Optimizing Compiler Version 19.00.23506.0 

	TITLE	C:\Users\Michel\Desktop\Source\GameServer\Source\KanturuBattleUserMng.cpp
	.686P
	.XMM
	include listing.inc
	.model	flat

INCLUDELIB LIBCMT
INCLUDELIB OLDNAMES

PUBLIC	?__empty_global_delete@@YAXPAX@Z		; __empty_global_delete
PUBLIC	?__empty_global_delete@@YAXPAXI@Z		; __empty_global_delete
PUBLIC	??0CKanturuBattleUser@@QAE@XZ			; CKanturuBattleUser::CKanturuBattleUser
PUBLIC	??1CKanturuBattleUser@@UAE@XZ			; CKanturuBattleUser::~CKanturuBattleUser
PUBLIC	??_GCKanturuBattleUser@@UAEPAXI@Z		; CKanturuBattleUser::`scalar deleting destructor'
PUBLIC	??0CKanturuBattleUserMng@@QAE@XZ		; CKanturuBattleUserMng::CKanturuBattleUserMng
PUBLIC	??1CKanturuBattleUserMng@@UAE@XZ		; CKanturuBattleUserMng::~CKanturuBattleUserMng
PUBLIC	?ResetAllData@CKanturuBattleUserMng@@QAEXXZ	; CKanturuBattleUserMng::ResetAllData
PUBLIC	?AddUserData@CKanturuBattleUserMng@@QAEHH@Z	; CKanturuBattleUserMng::AddUserData
PUBLIC	?DeleteUserData@CKanturuBattleUserMng@@QAEHH@Z	; CKanturuBattleUserMng::DeleteUserData
PUBLIC	?CheckUserState@CKanturuBattleUserMng@@QAEXXZ	; CKanturuBattleUserMng::CheckUserState
PUBLIC	?MoveAllUser@CKanturuBattleUserMng@@QAEHH@Z	; CKanturuBattleUserMng::MoveAllUser
PUBLIC	?GetUserCount@CKanturuBattleUserMng@@QAEHXZ	; CKanturuBattleUserMng::GetUserCount
PUBLIC	?IsEmpty@CKanturuBattleUserMng@@QAEHXZ		; CKanturuBattleUserMng::IsEmpty
PUBLIC	?IsOverMaxUser@CKanturuBattleUserMng@@QAEHXZ	; CKanturuBattleUserMng::IsOverMaxUser
PUBLIC	?SetMaxUser@CKanturuBattleUserMng@@QAEXH@Z	; CKanturuBattleUserMng::SetMaxUser
PUBLIC	?GetMaxUser@CKanturuBattleUserMng@@QAEHXZ	; CKanturuBattleUserMng::GetMaxUser
PUBLIC	?LogBattleWinnerUserInfo@CKanturuBattleUserMng@@QAEXEH@Z ; CKanturuBattleUserMng::LogBattleWinnerUserInfo
PUBLIC	??_GCKanturuBattleUserMng@@UAEPAXI@Z		; CKanturuBattleUserMng::`scalar deleting destructor'
PUBLIC	??1OBJECTSTRUCT@@QAE@XZ				; OBJECTSTRUCT::~OBJECTSTRUCT
PUBLIC	??_EOBJECTSTRUCT@@QAEPAXI@Z			; OBJECTSTRUCT::`vector deleting destructor'
PUBLIC	??_7CKanturuBattleUser@@6B@			; CKanturuBattleUser::`vftable'
PUBLIC	??_7CKanturuBattleUserMng@@6B@			; CKanturuBattleUserMng::`vftable'
PUBLIC	?g_KanturuBattleUserMng@@3VCKanturuBattleUserMng@@A ; g_KanturuBattleUserMng
PUBLIC	??_C@_0ED@OOIHFICL@?$FL?5KANTURU?5?$FN?$FL?5BattleUser?5?$FN?5Add?5Us@ ; `string'
PUBLIC	??_C@_0EB@OJFLABFJ@?$FL?5KANTURU?5?$FN?$FL?5BattleUser?5?$FN?5Add?5Us@ ; `string'
PUBLIC	??_C@_0DO@CJKNCKNK@?$FL?5KANTURU?5?$FN?$FL?5BattleUser?5?$FN?5Delete@ ; `string'
PUBLIC	??_C@_0EI@JMGEKMPE@?$FL?5KANTURU?5?$FN?$FL?5BattleUser?5?$FN?5Delete@ ; `string'
PUBLIC	??_C@_0DM@MIBKFEPM@?$FL?5KANTURU?5?$FN?$FL?5BattleUser?5?$FN?5Delete@ ; `string'
PUBLIC	??_C@_0DK@PJCHICKL@?$FL?5KANTURU?5?$FN?$FL?5BattleUser?5?$FN?5Delete@ ; `string'
PUBLIC	??_C@_0DA@HDNGBBMJ@?$FL?5KANTURU?5?$FN?$FL?5BattleUser?5?$FN?5?$FL?$CFs?$FN?$FL?$CF@ ; `string'
PUBLIC	??_C@_0DG@PLIJPMOP@?$FL?5KANTURU?5?$FN?$FL?5BattleUser?5?$FN?5?$FL?$CFs?$FN?$FL?$CF@ ; `string'
PUBLIC	??_C@_0CK@DJKPOCNG@?$FL?5KANTURU?5?$FN?$FL?5BattleUser?5?$FN?5Set?5Ma@ ; `string'
PUBLIC	??_C@_0FD@KGPMFPMP@?$FL?5KANTURU?5?$FN?$FL?5BATTLE?5WINNER?5?$FN?5?$FL?$CFd@ ; `string'
PUBLIC	??_R4CKanturuBattleUser@@6B@			; CKanturuBattleUser::`RTTI Complete Object Locator'
PUBLIC	??_R0?AVCKanturuBattleUser@@@8			; CKanturuBattleUser `RTTI Type Descriptor'
PUBLIC	??_R3CKanturuBattleUser@@8			; CKanturuBattleUser::`RTTI Class Hierarchy Descriptor'
PUBLIC	??_R2CKanturuBattleUser@@8			; CKanturuBattleUser::`RTTI Base Class Array'
PUBLIC	??_R1A@?0A@EA@CKanturuBattleUser@@8		; CKanturuBattleUser::`RTTI Base Class Descriptor at (0,-1,0,64)'
PUBLIC	??_R4CKanturuBattleUserMng@@6B@			; CKanturuBattleUserMng::`RTTI Complete Object Locator'
PUBLIC	??_R0?AVCKanturuBattleUserMng@@@8		; CKanturuBattleUserMng `RTTI Type Descriptor'
PUBLIC	??_R3CKanturuBattleUserMng@@8			; CKanturuBattleUserMng::`RTTI Class Hierarchy Descriptor'
PUBLIC	??_R2CKanturuBattleUserMng@@8			; CKanturuBattleUserMng::`RTTI Base Class Array'
PUBLIC	??_R1A@?0A@EA@CKanturuBattleUserMng@@8		; CKanturuBattleUserMng::`RTTI Base Class Descriptor at (0,-1,0,64)'
PUBLIC	__real@447a0000
EXTRN	??_L@YGXPAXIIP6EX0@Z1@Z:PROC			; `eh vector constructor iterator'
EXTRN	??_M@YGXPAXIIP6EX0@Z@Z:PROC			; `eh vector destructor iterator'
EXTRN	??3@YAXPAXI@Z:PROC				; operator delete
EXTRN	??_V@YAXPAXI@Z:PROC				; operator delete[]
EXTRN	_atexit:PROC
EXTRN	??_ECKanturuBattleUser@@UAEPAXI@Z:PROC		; CKanturuBattleUser::`vector deleting destructor'
EXTRN	??_ECKanturuBattleUserMng@@UAEPAXI@Z:PROC	; CKanturuBattleUserMng::`vector deleting destructor'
EXTRN	??1CSkillDelay@@UAE@XZ:PROC			; CSkillDelay::~CSkillDelay
EXTRN	??1TMonsterAIAgro@@UAE@XZ:PROC			; TMonsterAIAgro::~TMonsterAIAgro
EXTRN	?gObjIsConnected@@YAHH@Z:PROC			; gObjIsConnected
EXTRN	?gObjMoveGate@@YAHHH@Z:PROC			; gObjMoveGate
EXTRN	??0CKanturuUtil@@QAE@XZ:PROC			; CKanturuUtil::CKanturuUtil
EXTRN	??1CKanturuUtil@@UAE@XZ:PROC			; CKanturuUtil::~CKanturuUtil
EXTRN	?SendDataKanturuTimeAttackEvent@CKanturuUtil@@QAEXHEH@Z:PROC ; CKanturuUtil::SendDataKanturuTimeAttackEvent
EXTRN	@__security_check_cookie@4:PROC
EXTRN	___CxxFrameHandler3:PROC
EXTRN	??_7type_info@@6B@:QWORD			; type_info::`vftable'
EXTRN	?LogAddTD@@3P6AXPADZZA:DWORD			; LogAddTD
EXTRN	?gObj@@3PAUOBJECTSTRUCT@@A:DWORD		; gObj
EXTRN	___security_cookie:DWORD
EXTRN	__fltused:DWORD
_BSS	SEGMENT
?g_KanturuBattleUserMng@@3VCKanturuBattleUserMng@@A DB 0c0H DUP (?) ; g_KanturuBattleUserMng
?KANTURU_UTIL@@3VCKanturuUtil@@A DD 01H DUP (?)		; KANTURU_UTIL
_BSS	ENDS
CRT$XCU	SEGMENT
?g_KanturuBattleUserMng$initializer$@@3P6AXXZA DD FLAT:??__Eg_KanturuBattleUserMng@@YAXXZ ; g_KanturuBattleUserMng$initializer$
CRT$XCU	ENDS
;	COMDAT __real@447a0000
CONST	SEGMENT
__real@447a0000 DD 0447a0000r			; 1000
CONST	ENDS
;	COMDAT ??_R1A@?0A@EA@CKanturuBattleUserMng@@8
rdata$r	SEGMENT
??_R1A@?0A@EA@CKanturuBattleUserMng@@8 DD FLAT:??_R0?AVCKanturuBattleUserMng@@@8 ; CKanturuBattleUserMng::`RTTI Base Class Descriptor at (0,-1,0,64)'
	DD	00H
	DD	00H
	DD	0ffffffffH
	DD	00H
	DD	040H
	DD	FLAT:??_R3CKanturuBattleUserMng@@8
rdata$r	ENDS
;	COMDAT ??_R2CKanturuBattleUserMng@@8
rdata$r	SEGMENT
??_R2CKanturuBattleUserMng@@8 DD FLAT:??_R1A@?0A@EA@CKanturuBattleUserMng@@8 ; CKanturuBattleUserMng::`RTTI Base Class Array'
rdata$r	ENDS
;	COMDAT ??_R3CKanturuBattleUserMng@@8
rdata$r	SEGMENT
??_R3CKanturuBattleUserMng@@8 DD 00H			; CKanturuBattleUserMng::`RTTI Class Hierarchy Descriptor'
	DD	00H
	DD	01H
	DD	FLAT:??_R2CKanturuBattleUserMng@@8
rdata$r	ENDS
;	COMDAT ??_R0?AVCKanturuBattleUserMng@@@8
data$r	SEGMENT
??_R0?AVCKanturuBattleUserMng@@@8 DD FLAT:??_7type_info@@6B@ ; CKanturuBattleUserMng `RTTI Type Descriptor'
	DD	00H
	DB	'.?AVCKanturuBattleUserMng@@', 00H
data$r	ENDS
;	COMDAT ??_R4CKanturuBattleUserMng@@6B@
rdata$r	SEGMENT
??_R4CKanturuBattleUserMng@@6B@ DD 00H			; CKanturuBattleUserMng::`RTTI Complete Object Locator'
	DD	00H
	DD	00H
	DD	FLAT:??_R0?AVCKanturuBattleUserMng@@@8
	DD	FLAT:??_R3CKanturuBattleUserMng@@8
rdata$r	ENDS
;	COMDAT ??_R1A@?0A@EA@CKanturuBattleUser@@8
rdata$r	SEGMENT
??_R1A@?0A@EA@CKanturuBattleUser@@8 DD FLAT:??_R0?AVCKanturuBattleUser@@@8 ; CKanturuBattleUser::`RTTI Base Class Descriptor at (0,-1,0,64)'
	DD	00H
	DD	00H
	DD	0ffffffffH
	DD	00H
	DD	040H
	DD	FLAT:??_R3CKanturuBattleUser@@8
rdata$r	ENDS
;	COMDAT ??_R2CKanturuBattleUser@@8
rdata$r	SEGMENT
??_R2CKanturuBattleUser@@8 DD FLAT:??_R1A@?0A@EA@CKanturuBattleUser@@8 ; CKanturuBattleUser::`RTTI Base Class Array'
rdata$r	ENDS
;	COMDAT ??_R3CKanturuBattleUser@@8
rdata$r	SEGMENT
??_R3CKanturuBattleUser@@8 DD 00H			; CKanturuBattleUser::`RTTI Class Hierarchy Descriptor'
	DD	00H
	DD	01H
	DD	FLAT:??_R2CKanturuBattleUser@@8
rdata$r	ENDS
;	COMDAT ??_R0?AVCKanturuBattleUser@@@8
data$r	SEGMENT
??_R0?AVCKanturuBattleUser@@@8 DD FLAT:??_7type_info@@6B@ ; CKanturuBattleUser `RTTI Type Descriptor'
	DD	00H
	DB	'.?AVCKanturuBattleUser@@', 00H
data$r	ENDS
;	COMDAT ??_R4CKanturuBattleUser@@6B@
rdata$r	SEGMENT
??_R4CKanturuBattleUser@@6B@ DD 00H			; CKanturuBattleUser::`RTTI Complete Object Locator'
	DD	00H
	DD	00H
	DD	FLAT:??_R0?AVCKanturuBattleUser@@@8
	DD	FLAT:??_R3CKanturuBattleUser@@8
rdata$r	ENDS
;	COMDAT ??_C@_0FD@KGPMFPMP@?$FL?5KANTURU?5?$FN?$FL?5BATTLE?5WINNER?5?$FN?5?$FL?$CFd@
CONST	SEGMENT
??_C@_0FD@KGPMFPMP@?$FL?5KANTURU?5?$FN?$FL?5BATTLE?5WINNER?5?$FN?5?$FL?$CFd@ DB '['
	DB	' KANTURU ][ BATTLE WINNER ] [%d/ElapsedTime:%0.3f] [%s][%s] M'
	DB	'apNumber[%d]-(%d/%d)', 00H			; `string'
CONST	ENDS
;	COMDAT ??_C@_0CK@DJKPOCNG@?$FL?5KANTURU?5?$FN?$FL?5BattleUser?5?$FN?5Set?5Ma@
CONST	SEGMENT
??_C@_0CK@DJKPOCNG@?$FL?5KANTURU?5?$FN?$FL?5BattleUser?5?$FN?5Set?5Ma@ DB '['
	DB	' KANTURU ][ BattleUser ] Set Max User:%d', 00H ; `string'
CONST	ENDS
;	COMDAT ??_C@_0DG@PLIJPMOP@?$FL?5KANTURU?5?$FN?$FL?5BattleUser?5?$FN?5?$FL?$CFs?$FN?$FL?$CF@
CONST	SEGMENT
??_C@_0DG@PLIJPMOP@?$FL?5KANTURU?5?$FN?$FL?5BattleUser?5?$FN?5?$FL?$CFs?$FN?$FL?$CF@ DB '['
	DB	' KANTURU ][ BattleUser ] [%s][%s] MoveGate Fail (%d)', 00H ; `string'
CONST	ENDS
;	COMDAT ??_C@_0DA@HDNGBBMJ@?$FL?5KANTURU?5?$FN?$FL?5BattleUser?5?$FN?5?$FL?$CFs?$FN?$FL?$CF@
CONST	SEGMENT
??_C@_0DA@HDNGBBMJ@?$FL?5KANTURU?5?$FN?$FL?5BattleUser?5?$FN?5?$FL?$CFs?$FN?$FL?$CF@ DB '['
	DB	' KANTURU ][ BattleUser ] [%s][%s] MoveGate(%d)', 00H ; `string'
CONST	ENDS
;	COMDAT ??_C@_0DK@PJCHICKL@?$FL?5KANTURU?5?$FN?$FL?5BattleUser?5?$FN?5Delete@
CONST	SEGMENT
??_C@_0DK@PJCHICKL@?$FL?5KANTURU?5?$FN?$FL?5BattleUser?5?$FN?5Delete@ DB '['
	DB	' KANTURU ][ BattleUser ] Delete User - Map Move [%s][%s]', 00H ; `string'
CONST	ENDS
;	COMDAT ??_C@_0DM@MIBKFEPM@?$FL?5KANTURU?5?$FN?$FL?5BattleUser?5?$FN?5Delete@
CONST	SEGMENT
??_C@_0DM@MIBKFEPM@?$FL?5KANTURU?5?$FN?$FL?5BattleUser?5?$FN?5Delete@ DB '['
	DB	' KANTURU ][ BattleUser ] Delete User - Disconnect [%s][%s]', 00H ; `string'
CONST	ENDS
;	COMDAT ??_C@_0EI@JMGEKMPE@?$FL?5KANTURU?5?$FN?$FL?5BattleUser?5?$FN?5Delete@
CONST	SEGMENT
??_C@_0EI@JMGEKMPE@?$FL?5KANTURU?5?$FN?$FL?5BattleUser?5?$FN?5Delete@ DB '['
	DB	' KANTURU ][ BattleUser ] Delete User - [%s][%s] Current Battl'
	DB	'e User:%d', 00H				; `string'
CONST	ENDS
;	COMDAT ??_C@_0DO@CJKNCKNK@?$FL?5KANTURU?5?$FN?$FL?5BattleUser?5?$FN?5Delete@
CONST	SEGMENT
??_C@_0DO@CJKNCKNK@?$FL?5KANTURU?5?$FN?$FL?5BattleUser?5?$FN?5Delete@ DB '['
	DB	' KANTURU ][ BattleUser ] Delete User Fail - Unvalid Index:%d', 00H ; `string'
CONST	ENDS
;	COMDAT ??_C@_0EB@OJFLABFJ@?$FL?5KANTURU?5?$FN?$FL?5BattleUser?5?$FN?5Add?5Us@
CONST	SEGMENT
??_C@_0EB@OJFLABFJ@?$FL?5KANTURU?5?$FN?$FL?5BattleUser?5?$FN?5Add?5Us@ DB '['
	DB	' KANTURU ][ BattleUser ] Add User Fail - Over Max User [%s][%'
	DB	's]', 00H					; `string'
CONST	ENDS
;	COMDAT ??_C@_0ED@OOIHFICL@?$FL?5KANTURU?5?$FN?$FL?5BattleUser?5?$FN?5Add?5Us@
CONST	SEGMENT
??_C@_0ED@OOIHFICL@?$FL?5KANTURU?5?$FN?$FL?5BattleUser?5?$FN?5Add?5Us@ DB '['
	DB	' KANTURU ][ BattleUser ] Add User Fail - Disconnect User [%s]'
	DB	'[%s]', 00H					; `string'
CONST	ENDS
;	COMDAT ??_7CKanturuBattleUserMng@@6B@
CONST	SEGMENT
??_7CKanturuBattleUserMng@@6B@ DD FLAT:??_R4CKanturuBattleUserMng@@6B@ ; CKanturuBattleUserMng::`vftable'
	DD	FLAT:??_ECKanturuBattleUserMng@@UAEPAXI@Z
CONST	ENDS
;	COMDAT ??_7CKanturuBattleUser@@6B@
CONST	SEGMENT
??_7CKanturuBattleUser@@6B@ DD FLAT:??_R4CKanturuBattleUser@@6B@ ; CKanturuBattleUser::`vftable'
	DD	FLAT:??_ECKanturuBattleUser@@UAEPAXI@Z
CONST	ENDS
;	COMDAT xdata$x
xdata$x	SEGMENT
__ehfuncinfo$??_EOBJECTSTRUCT@@QAEPAXI@Z DD 019930522H
	DD	00H
	DD	00H
	DD	2 DUP(00H)
	DD	2 DUP(00H)
	DD	00H
	DD	05H
xdata$x	ENDS
;	COMDAT xdata$x
xdata$x	SEGMENT
__ehfuncinfo$??1CKanturuBattleUserMng@@UAE@XZ DD 019930522H
	DD	00H
	DD	00H
	DD	2 DUP(00H)
	DD	2 DUP(00H)
	DD	00H
	DD	05H
xdata$x	ENDS
;	COMDAT xdata$x
xdata$x	SEGMENT
__unwindtable$??0CKanturuBattleUserMng@@QAE@XZ DD 0ffffffffH
	DD	FLAT:__unwindfunclet$??0CKanturuBattleUserMng@@QAE@XZ$0
__ehfuncinfo$??0CKanturuBattleUserMng@@QAE@XZ DD 019930522H
	DD	01H
	DD	FLAT:__unwindtable$??0CKanturuBattleUserMng@@QAE@XZ
	DD	2 DUP(00H)
	DD	2 DUP(00H)
	DD	00H
	DD	01H
xdata$x	ENDS
CRT$XCU	SEGMENT
?KANTURU_UTIL$initializer$@@3P6AXXZA DD FLAT:??__EKANTURU_UTIL@@YAXXZ ; KANTURU_UTIL$initializer$
CRT$XCU	ENDS
; Function compile flags: /Ogtp
;	COMDAT ??__FKANTURU_UTIL@@YAXXZ
text$yd	SEGMENT
??__FKANTURU_UTIL@@YAXXZ PROC				; `dynamic atexit destructor for 'KANTURU_UTIL'', COMDAT
  00000	b9 00 00 00 00	 mov	 ecx, OFFSET ?KANTURU_UTIL@@3VCKanturuUtil@@A
  00005	e9 00 00 00 00	 jmp	 ??1CKanturuUtil@@UAE@XZ	; CKanturuUtil::~CKanturuUtil
??__FKANTURU_UTIL@@YAXXZ ENDP				; `dynamic atexit destructor for 'KANTURU_UTIL''
text$yd	ENDS
; Function compile flags: /Ogtp
; File c:\users\michel\desktop\source\gameserver\source\kanturubattleusermng.cpp
;	COMDAT ??__EKANTURU_UTIL@@YAXXZ
text$di	SEGMENT
??__EKANTURU_UTIL@@YAXXZ PROC				; `dynamic initializer for 'KANTURU_UTIL'', COMDAT

; 12   : static CKanturuUtil KANTURU_UTIL;

  00000	b9 00 00 00 00	 mov	 ecx, OFFSET ?KANTURU_UTIL@@3VCKanturuUtil@@A
  00005	e8 00 00 00 00	 call	 ??0CKanturuUtil@@QAE@XZ	; CKanturuUtil::CKanturuUtil
  0000a	68 00 00 00 00	 push	 OFFSET ??__FKANTURU_UTIL@@YAXXZ ; `dynamic atexit destructor for 'KANTURU_UTIL''
  0000f	e8 00 00 00 00	 call	 _atexit
  00014	59		 pop	 ecx
  00015	c3		 ret	 0
??__EKANTURU_UTIL@@YAXXZ ENDP				; `dynamic initializer for 'KANTURU_UTIL''
text$di	ENDS
; Function compile flags: /Ogtp
;	COMDAT ??__Fg_KanturuBattleUserMng@@YAXXZ
text$yd	SEGMENT
??__Fg_KanturuBattleUserMng@@YAXXZ PROC			; `dynamic atexit destructor for 'g_KanturuBattleUserMng'', COMDAT
  00000	b9 00 00 00 00	 mov	 ecx, OFFSET ?g_KanturuBattleUserMng@@3VCKanturuBattleUserMng@@A ; g_KanturuBattleUserMng
  00005	e9 00 00 00 00	 jmp	 ??1CKanturuBattleUserMng@@UAE@XZ ; CKanturuBattleUserMng::~CKanturuBattleUserMng
??__Fg_KanturuBattleUserMng@@YAXXZ ENDP			; `dynamic atexit destructor for 'g_KanturuBattleUserMng''
text$yd	ENDS
; Function compile flags: /Ogtp
; File c:\users\michel\desktop\source\gameserver\source\kanturubattleusermng.cpp
;	COMDAT ??__Eg_KanturuBattleUserMng@@YAXXZ
text$di	SEGMENT
??__Eg_KanturuBattleUserMng@@YAXXZ PROC			; `dynamic initializer for 'g_KanturuBattleUserMng'', COMDAT

; 11   : CKanturuBattleUserMng g_KanturuBattleUserMng;

  00000	b9 00 00 00 00	 mov	 ecx, OFFSET ?g_KanturuBattleUserMng@@3VCKanturuBattleUserMng@@A ; g_KanturuBattleUserMng
  00005	e8 00 00 00 00	 call	 ??0CKanturuBattleUserMng@@QAE@XZ ; CKanturuBattleUserMng::CKanturuBattleUserMng
  0000a	68 00 00 00 00	 push	 OFFSET ??__Fg_KanturuBattleUserMng@@YAXXZ ; `dynamic atexit destructor for 'g_KanturuBattleUserMng''
  0000f	e8 00 00 00 00	 call	 _atexit
  00014	59		 pop	 ecx
  00015	c3		 ret	 0
??__Eg_KanturuBattleUserMng@@YAXXZ ENDP			; `dynamic initializer for 'g_KanturuBattleUserMng''
text$di	ENDS
; Function compile flags: /Ogtp
;	COMDAT ??_EOBJECTSTRUCT@@QAEPAXI@Z
_TEXT	SEGMENT
__$EHRec$ = -12						; size = 12
___flags$ = 8						; size = 4
??_EOBJECTSTRUCT@@QAEPAXI@Z PROC			; OBJECTSTRUCT::`vector deleting destructor', COMDAT
; _this$ = ecx
  00000	55		 push	 ebp
  00001	8b ec		 mov	 ebp, esp
  00003	6a ff		 push	 -1
  00005	68 00 00 00 00	 push	 __ehhandler$??_EOBJECTSTRUCT@@QAEPAXI@Z
  0000a	64 a1 00 00 00
	00		 mov	 eax, DWORD PTR fs:0
  00010	50		 push	 eax
  00011	53		 push	 ebx
  00012	56		 push	 esi
  00013	57		 push	 edi
  00014	a1 00 00 00 00	 mov	 eax, DWORD PTR ___security_cookie
  00019	33 c5		 xor	 eax, ebp
  0001b	50		 push	 eax
  0001c	8d 45 f4	 lea	 eax, DWORD PTR __$EHRec$[ebp]
  0001f	64 a3 00 00 00
	00		 mov	 DWORD PTR fs:0, eax
  00025	8b f1		 mov	 esi, ecx
  00027	8b 5d 08	 mov	 ebx, DWORD PTR ___flags$[ebp]
  0002a	f6 c3 02	 test	 bl, 2
  0002d	74 44		 je	 SHORT $LN2@vector
  0002f	68 00 00 00 00	 push	 OFFSET ??1OBJECTSTRUCT@@QAE@XZ
  00034	ff 76 fc	 push	 DWORD PTR [esi-4]
  00037	8d 7e fc	 lea	 edi, DWORD PTR [esi-4]
  0003a	68 40 27 00 00	 push	 10048			; 00002740H
  0003f	56		 push	 esi
  00040	e8 00 00 00 00	 call	 ??_M@YGXPAXIIP6EX0@Z@Z
  00045	f6 c3 01	 test	 bl, 1
  00048	74 13		 je	 SHORT $LN3@vector
  0004a	69 0f 40 27 00
	00		 imul	 ecx, DWORD PTR [edi], 10048
  00050	83 c1 04	 add	 ecx, 4
  00053	51		 push	 ecx
  00054	57		 push	 edi
  00055	e8 00 00 00 00	 call	 ??_V@YAXPAXI@Z		; operator delete[]
  0005a	83 c4 08	 add	 esp, 8
$LN3@vector:
  0005d	8b c7		 mov	 eax, edi
  0005f	8b 4d f4	 mov	 ecx, DWORD PTR __$EHRec$[ebp]
  00062	64 89 0d 00 00
	00 00		 mov	 DWORD PTR fs:0, ecx
  00069	59		 pop	 ecx
  0006a	5f		 pop	 edi
  0006b	5e		 pop	 esi
  0006c	5b		 pop	 ebx
  0006d	8b e5		 mov	 esp, ebp
  0006f	5d		 pop	 ebp
  00070	c2 04 00	 ret	 4
$LN2@vector:
  00073	8d 8e ec 20 00
	00		 lea	 ecx, DWORD PTR [esi+8428]
  00079	e8 00 00 00 00	 call	 ??1TMonsterAIAgro@@UAE@XZ ; TMonsterAIAgro::~TMonsterAIAgro
  0007e	8d 8e 0c 16 00
	00		 lea	 ecx, DWORD PTR [esi+5644]
  00084	e8 00 00 00 00	 call	 ??1CSkillDelay@@UAE@XZ	; CSkillDelay::~CSkillDelay
  00089	f6 c3 01	 test	 bl, 1
  0008c	74 0e		 je	 SHORT $LN4@vector
  0008e	68 40 27 00 00	 push	 10048			; 00002740H
  00093	56		 push	 esi
  00094	e8 00 00 00 00	 call	 ??3@YAXPAXI@Z		; operator delete
  00099	83 c4 08	 add	 esp, 8
$LN4@vector:
  0009c	8b c6		 mov	 eax, esi
  0009e	8b 4d f4	 mov	 ecx, DWORD PTR __$EHRec$[ebp]
  000a1	64 89 0d 00 00
	00 00		 mov	 DWORD PTR fs:0, ecx
  000a8	59		 pop	 ecx
  000a9	5f		 pop	 edi
  000aa	5e		 pop	 esi
  000ab	5b		 pop	 ebx
  000ac	8b e5		 mov	 esp, ebp
  000ae	5d		 pop	 ebp
  000af	c2 04 00	 ret	 4
_TEXT	ENDS
;	COMDAT text$x
text$x	SEGMENT
__ehhandler$??_EOBJECTSTRUCT@@QAEPAXI@Z:
  00000	8b 54 24 08	 mov	 edx, DWORD PTR [esp+8]
  00004	8d 42 0c	 lea	 eax, DWORD PTR [edx+12]
  00007	8b 4a f0	 mov	 ecx, DWORD PTR [edx-16]
  0000a	33 c8		 xor	 ecx, eax
  0000c	e8 00 00 00 00	 call	 @__security_check_cookie@4
  00011	b8 00 00 00 00	 mov	 eax, OFFSET __ehfuncinfo$??_EOBJECTSTRUCT@@QAEPAXI@Z
  00016	e9 00 00 00 00	 jmp	 ___CxxFrameHandler3
text$x	ENDS
??_EOBJECTSTRUCT@@QAEPAXI@Z ENDP			; OBJECTSTRUCT::`vector deleting destructor'
; Function compile flags: /Ogtp
;	COMDAT ??1OBJECTSTRUCT@@QAE@XZ
_TEXT	SEGMENT
??1OBJECTSTRUCT@@QAE@XZ PROC				; OBJECTSTRUCT::~OBJECTSTRUCT, COMDAT
; _this$ = ecx
  00000	56		 push	 esi
  00001	8b f1		 mov	 esi, ecx
  00003	8d 8e ec 20 00
	00		 lea	 ecx, DWORD PTR [esi+8428]
  00009	e8 00 00 00 00	 call	 ??1TMonsterAIAgro@@UAE@XZ ; TMonsterAIAgro::~TMonsterAIAgro
  0000e	8d 8e 0c 16 00
	00		 lea	 ecx, DWORD PTR [esi+5644]
  00014	5e		 pop	 esi
  00015	e9 00 00 00 00	 jmp	 ??1CSkillDelay@@UAE@XZ	; CSkillDelay::~CSkillDelay
??1OBJECTSTRUCT@@QAE@XZ ENDP				; OBJECTSTRUCT::~OBJECTSTRUCT
_TEXT	ENDS
; Function compile flags: /Ogtp
;	COMDAT ??_GCKanturuBattleUserMng@@UAEPAXI@Z
_TEXT	SEGMENT
___flags$ = 8						; size = 4
??_GCKanturuBattleUserMng@@UAEPAXI@Z PROC		; CKanturuBattleUserMng::`scalar deleting destructor', COMDAT
; _this$ = ecx
  00000	55		 push	 ebp
  00001	8b ec		 mov	 ebp, esp
  00003	56		 push	 esi
  00004	8b f1		 mov	 esi, ecx
  00006	e8 00 00 00 00	 call	 ??1CKanturuBattleUserMng@@UAE@XZ ; CKanturuBattleUserMng::~CKanturuBattleUserMng
  0000b	f6 45 08 01	 test	 BYTE PTR ___flags$[ebp], 1
  0000f	74 0e		 je	 SHORT $LN4@scalar
  00011	68 c0 00 00 00	 push	 192			; 000000c0H
  00016	56		 push	 esi
  00017	e8 00 00 00 00	 call	 ??3@YAXPAXI@Z		; operator delete
  0001c	83 c4 08	 add	 esp, 8
$LN4@scalar:
  0001f	8b c6		 mov	 eax, esi
  00021	5e		 pop	 esi
  00022	5d		 pop	 ebp
  00023	c2 04 00	 ret	 4
??_GCKanturuBattleUserMng@@UAEPAXI@Z ENDP		; CKanturuBattleUserMng::`scalar deleting destructor'
_TEXT	ENDS
; Function compile flags: /Ogtp
; File c:\users\michel\desktop\source\gameserver\source\kanturubattleusermng.cpp
; File c:\users\michel\desktop\source\gameserver\source\kanturubattleuser.h
; File c:\users\michel\desktop\source\gameserver\source\kanturubattleusermng.cpp
;	COMDAT ?LogBattleWinnerUserInfo@CKanturuBattleUserMng@@QAEXEH@Z
_TEXT	SEGMENT
_btFlag$ = 8						; size = 1
_fTime$1$ = 12						; size = 4
_iElapsedTime$ = 12					; size = 4
?LogBattleWinnerUserInfo@CKanturuBattleUserMng@@QAEXEH@Z PROC ; CKanturuBattleUserMng::LogBattleWinnerUserInfo, COMDAT
; _this$ = ecx

; 229  : {

  00000	55		 push	 ebp
  00001	8b ec		 mov	 ebp, esp
  00003	66 0f 6e 45 0c	 movd	 xmm0, DWORD PTR _iElapsedTime$[ebp]

; 230  : 	int iIndex = -1;
; 231  : 	float fTime = iElapsedTime / 1000.0f;

  00008	0f 5b c0	 cvtdq2ps xmm0, xmm0
  0000b	53		 push	 ebx
  0000c	56		 push	 esi
  0000d	57		 push	 edi
  0000e	8d 79 08	 lea	 edi, DWORD PTR [ecx+8]
  00011	bb 0f 00 00 00	 mov	 ebx, 15			; 0000000fH
  00016	f3 0f 5e 05 00
	00 00 00	 divss	 xmm0, DWORD PTR __real@447a0000
  0001e	f3 0f 11 45 0c	 movss	 DWORD PTR _fTime$1$[ebp], xmm0
$LL4@LogBattleW:

; 234  : 	{
; 235  : 		if ( this->m_BattleUser[iCount].IsUseData() == TRUE )

  00023	83 7f 04 01	 cmp	 DWORD PTR [edi+4], 1
  00027	75 6f		 jne	 SHORT $LN2@LogBattleW
; File c:\users\michel\desktop\source\gameserver\source\kanturubattleuser.h

; 24   : 		return this->m_iIndex;

  00029	8b 37		 mov	 esi, DWORD PTR [edi]
; File c:\users\michel\desktop\source\gameserver\source\kanturubattleusermng.cpp

; 239  : 			LogAddTD("[ KANTURU ][ BATTLE WINNER ] [%d/ElapsedTime:%0.3f] [%s][%s] MapNumber[%d]-(%d/%d)",

  0002b	8b 0d 00 00 00
	00		 mov	 ecx, DWORD PTR ?gObj@@3PAUOBJECTSTRUCT@@A ; gObj
  00031	69 d6 40 27 00
	00		 imul	 edx, esi, 10048
  00037	f3 0f 5a c0	 cvtss2sd xmm0, xmm0
  0003b	0f b6 84 0a 21
	01 00 00	 movzx	 eax, BYTE PTR [edx+ecx+289]
  00043	50		 push	 eax
  00044	0f b6 84 0a 20
	01 00 00	 movzx	 eax, BYTE PTR [edx+ecx+288]
  0004c	50		 push	 eax
  0004d	0f b6 84 0a 23
	01 00 00	 movzx	 eax, BYTE PTR [edx+ecx+291]
  00055	50		 push	 eax
  00056	8d 41 5d	 lea	 eax, DWORD PTR [ecx+93]
  00059	03 c2		 add	 eax, edx
  0005b	50		 push	 eax
  0005c	8d 41 52	 lea	 eax, DWORD PTR [ecx+82]
  0005f	03 c2		 add	 eax, edx
  00061	50		 push	 eax
  00062	8b 45 08	 mov	 eax, DWORD PTR _btFlag$[ebp]
  00065	83 ec 08	 sub	 esp, 8
  00068	0f b6 c0	 movzx	 eax, al
  0006b	f2 0f 11 04 24	 movsd	 QWORD PTR [esp], xmm0
  00070	50		 push	 eax
  00071	68 00 00 00 00	 push	 OFFSET ??_C@_0FD@KGPMFPMP@?$FL?5KANTURU?5?$FN?$FL?5BATTLE?5WINNER?5?$FN?5?$FL?$CFd@
  00076	ff 15 00 00 00
	00		 call	 DWORD PTR ?LogAddTD@@3P6AXPADZZA ; LogAddTD

; 240  : 				btFlag, fTime, gObj[iIndex].AccountID, gObj[iIndex].Name,
; 241  : 				gObj[iIndex].MapNumber, gObj[iIndex].X, gObj[iIndex].Y);
; 242  : 
; 243  : 			KANTURU_UTIL.SendDataKanturuTimeAttackEvent(iIndex, btFlag,(int)fTime);

  0007c	f3 0f 2c 45 0c	 cvttss2si eax, DWORD PTR _fTime$1$[ebp]
  00081	83 c4 24	 add	 esp, 36			; 00000024H
  00084	b9 00 00 00 00	 mov	 ecx, OFFSET ?KANTURU_UTIL@@3VCKanturuUtil@@A
  00089	50		 push	 eax
  0008a	ff 75 08	 push	 DWORD PTR _btFlag$[ebp]
  0008d	56		 push	 esi
  0008e	e8 00 00 00 00	 call	 ?SendDataKanturuTimeAttackEvent@CKanturuUtil@@QAEXHEH@Z ; CKanturuUtil::SendDataKanturuTimeAttackEvent
  00093	f3 0f 10 45 0c	 movss	 xmm0, DWORD PTR _fTime$1$[ebp]
$LN2@LogBattleW:

; 232  : 
; 233  : 	for ( int iCount=0;iCount<MAX_KANTURU_BATTLE_USER;iCount++)

  00098	83 c7 0c	 add	 edi, 12			; 0000000cH
  0009b	83 eb 01	 sub	 ebx, 1
  0009e	75 83		 jne	 SHORT $LL4@LogBattleW
  000a0	5f		 pop	 edi
  000a1	5e		 pop	 esi
  000a2	5b		 pop	 ebx

; 244  : 		}
; 245  : 	}
; 246  : }

  000a3	5d		 pop	 ebp
  000a4	c2 08 00	 ret	 8
?LogBattleWinnerUserInfo@CKanturuBattleUserMng@@QAEXEH@Z ENDP ; CKanturuBattleUserMng::LogBattleWinnerUserInfo
_TEXT	ENDS
; Function compile flags: /Ogtp
; File c:\users\michel\desktop\source\gameserver\source\kanturubattleusermng.cpp
;	COMDAT ?GetMaxUser@CKanturuBattleUserMng@@QAEHXZ
_TEXT	SEGMENT
?GetMaxUser@CKanturuBattleUserMng@@QAEHXZ PROC		; CKanturuBattleUserMng::GetMaxUser, COMDAT
; _this$ = ecx

; 195  : 	return this->m_iBattleMaxUser;

  00000	8b 81 bc 00 00
	00		 mov	 eax, DWORD PTR [ecx+188]

; 196  : }

  00006	c3		 ret	 0
?GetMaxUser@CKanturuBattleUserMng@@QAEHXZ ENDP		; CKanturuBattleUserMng::GetMaxUser
_TEXT	ENDS
; Function compile flags: /Ogtp
; File c:\users\michel\desktop\source\gameserver\source\kanturubattleusermng.cpp
;	COMDAT ?SetMaxUser@CKanturuBattleUserMng@@QAEXH@Z
_TEXT	SEGMENT
_iMaxUser$ = 8						; size = 4
?SetMaxUser@CKanturuBattleUserMng@@QAEXH@Z PROC		; CKanturuBattleUserMng::SetMaxUser, COMDAT
; _this$ = ecx

; 179  : {

  00000	55		 push	 ebp
  00001	8b ec		 mov	 ebp, esp

; 180  : 	this->m_iBattleMaxUser = iMaxUser;

  00003	8b 45 08	 mov	 eax, DWORD PTR _iMaxUser$[ebp]
  00006	89 81 bc 00 00
	00		 mov	 DWORD PTR [ecx+188], eax

; 181  : 
; 182  : 	if ( iMaxUser > MAX_KANTURU_BATTLE_USER )

  0000c	83 f8 0f	 cmp	 eax, 15			; 0000000fH
  0000f	7e 19		 jle	 SHORT $LN2@SetMaxUser

; 183  : 	{
; 184  : 		this->m_iBattleMaxUser = MAX_KANTURU_BATTLE_USER;
; 185  : 
; 186  : 		LogAddTD("[ KANTURU ][ BattleUser ] Set Max User:%d",

  00011	50		 push	 eax
  00012	68 00 00 00 00	 push	 OFFSET ??_C@_0CK@DJKPOCNG@?$FL?5KANTURU?5?$FN?$FL?5BattleUser?5?$FN?5Set?5Ma@
  00017	c7 81 bc 00 00
	00 0f 00 00 00	 mov	 DWORD PTR [ecx+188], 15	; 0000000fH
  00021	ff 15 00 00 00
	00		 call	 DWORD PTR ?LogAddTD@@3P6AXPADZZA ; LogAddTD
  00027	83 c4 08	 add	 esp, 8
$LN2@SetMaxUser:

; 187  : 			iMaxUser);
; 188  : 	}
; 189  : }

  0002a	5d		 pop	 ebp
  0002b	c2 04 00	 ret	 4
?SetMaxUser@CKanturuBattleUserMng@@QAEXH@Z ENDP		; CKanturuBattleUserMng::SetMaxUser
_TEXT	ENDS
; Function compile flags: /Ogtp
; File c:\users\michel\desktop\source\gameserver\source\kanturubattleusermng.cpp
;	COMDAT ?IsOverMaxUser@CKanturuBattleUserMng@@QAEHXZ
_TEXT	SEGMENT
?IsOverMaxUser@CKanturuBattleUserMng@@QAEHXZ PROC	; CKanturuBattleUserMng::IsOverMaxUser, COMDAT
; _this$ = ecx

; 218  : 	if ( this->m_iBattleUserCount >=  MAX_KANTURU_BATTLE_USER )

  00000	33 c0		 xor	 eax, eax
  00002	83 b9 b8 00 00
	00 0f		 cmp	 DWORD PTR [ecx+184], 15	; 0000000fH
  00009	0f 9d c0	 setge	 al

; 219  : 	{
; 220  : 		return TRUE;
; 221  : 	}
; 222  : 
; 223  : 	return FALSE;
; 224  : }

  0000c	c3		 ret	 0
?IsOverMaxUser@CKanturuBattleUserMng@@QAEHXZ ENDP	; CKanturuBattleUserMng::IsOverMaxUser
_TEXT	ENDS
; Function compile flags: /Ogtp
; File c:\users\michel\desktop\source\gameserver\source\kanturubattleusermng.cpp
;	COMDAT ?IsEmpty@CKanturuBattleUserMng@@QAEHXZ
_TEXT	SEGMENT
?IsEmpty@CKanturuBattleUserMng@@QAEHXZ PROC		; CKanturuBattleUserMng::IsEmpty, COMDAT
; _this$ = ecx

; 207  : 	if ( this->m_iBattleUserCount <= 0 )

  00000	33 c0		 xor	 eax, eax
  00002	39 81 b8 00 00
	00		 cmp	 DWORD PTR [ecx+184], eax
  00008	0f 9e c0	 setle	 al

; 208  : 	{
; 209  : 		return TRUE;
; 210  : 	}
; 211  : 
; 212  : 	return FALSE;
; 213  : }

  0000b	c3		 ret	 0
?IsEmpty@CKanturuBattleUserMng@@QAEHXZ ENDP		; CKanturuBattleUserMng::IsEmpty
_TEXT	ENDS
; Function compile flags: /Ogtp
; File c:\users\michel\desktop\source\gameserver\source\kanturubattleusermng.cpp
;	COMDAT ?GetUserCount@CKanturuBattleUserMng@@QAEHXZ
_TEXT	SEGMENT
?GetUserCount@CKanturuBattleUserMng@@QAEHXZ PROC	; CKanturuBattleUserMng::GetUserCount, COMDAT
; _this$ = ecx

; 201  : 	return this->m_iBattleUserCount;

  00000	8b 81 b8 00 00
	00		 mov	 eax, DWORD PTR [ecx+184]

; 202  : }

  00006	c3		 ret	 0
?GetUserCount@CKanturuBattleUserMng@@QAEHXZ ENDP	; CKanturuBattleUserMng::GetUserCount
_TEXT	ENDS
; Function compile flags: /Ogtp
; File c:\users\michel\desktop\source\gameserver\source\kanturubattleusermng.cpp
; File c:\users\michel\desktop\source\gameserver\source\kanturubattleuser.h
; File c:\users\michel\desktop\source\gameserver\source\kanturubattleusermng.cpp
;	COMDAT ?MoveAllUser@CKanturuBattleUserMng@@QAEHH@Z
_TEXT	SEGMENT
_this$1$ = -4						; size = 4
_iGateNumber$ = 8					; size = 4
?MoveAllUser@CKanturuBattleUserMng@@QAEHH@Z PROC	; CKanturuBattleUserMng::MoveAllUser, COMDAT
; _this$ = ecx

; 144  : {

  00000	55		 push	 ebp
  00001	8b ec		 mov	 ebp, esp
  00003	51		 push	 ecx
  00004	53		 push	 ebx
  00005	8b c1		 mov	 eax, ecx

; 145  : 	int iIndex;
; 146  : 	BOOL bMoveGateSuccess = FALSE;
; 147  : 
; 148  : 	for ( int iCount=0;iCount<MAX_KANTURU_BATTLE_USER;iCount++)

  00007	bb 0f 00 00 00	 mov	 ebx, 15			; 0000000fH
  0000c	56		 push	 esi
  0000d	57		 push	 edi
  0000e	89 45 fc	 mov	 DWORD PTR _this$1$[ebp], eax
  00011	8d 70 0c	 lea	 esi, DWORD PTR [eax+12]
$LL4@MoveAllUse:

; 152  : 		if ( this->m_BattleUser[iCount].IsUseData()  )

  00014	83 3e 00	 cmp	 DWORD PTR [esi], 0
; File c:\users\michel\desktop\source\gameserver\source\kanturubattleuser.h

; 24   : 		return this->m_iIndex;

  00017	8b 7e fc	 mov	 edi, DWORD PTR [esi-4]
; File c:\users\michel\desktop\source\gameserver\source\kanturubattleusermng.cpp

; 152  : 		if ( this->m_BattleUser[iCount].IsUseData()  )

  0001a	74 73		 je	 SHORT $LN2@MoveAllUse

; 153  : 		{
; 154  : 			bMoveGateSuccess = gObjMoveGate(iIndex, iGateNumber);

  0001c	ff 75 08	 push	 DWORD PTR _iGateNumber$[ebp]
  0001f	57		 push	 edi
  00020	e8 00 00 00 00	 call	 ?gObjMoveGate@@YAHHH@Z	; gObjMoveGate
  00025	83 c4 08	 add	 esp, 8

; 155  : 
; 156  : 			if ( bMoveGateSuccess == TRUE )

  00028	83 f8 01	 cmp	 eax, 1
  0002b	75 28		 jne	 SHORT $LN6@MoveAllUse

; 157  : 			{
; 158  : 				LogAddTD("[ KANTURU ][ BattleUser ] [%s][%s] MoveGate(%d)",

  0002d	8b 45 08	 mov	 eax, DWORD PTR _iGateNumber$[ebp]
  00030	69 cf 40 27 00
	00		 imul	 ecx, edi, 10048
  00036	50		 push	 eax
  00037	03 0d 00 00 00
	00		 add	 ecx, DWORD PTR ?gObj@@3PAUOBJECTSTRUCT@@A ; gObj
  0003d	8d 41 5d	 lea	 eax, DWORD PTR [ecx+93]
  00040	50		 push	 eax
  00041	8d 41 52	 lea	 eax, DWORD PTR [ecx+82]
  00044	50		 push	 eax
  00045	68 00 00 00 00	 push	 OFFSET ??_C@_0DA@HDNGBBMJ@?$FL?5KANTURU?5?$FN?$FL?5BattleUser?5?$FN?5?$FL?$CFs?$FN?$FL?$CF@
  0004a	ff 15 00 00 00
	00		 call	 DWORD PTR ?LogAddTD@@3P6AXPADZZA ; LogAddTD
  00050	83 c4 10	 add	 esp, 16			; 00000010H

; 159  : 					gObj[iIndex].AccountID, gObj[iIndex].Name, iGateNumber);
; 160  : 			}
; 161  : 			else

  00053	eb 3a		 jmp	 SHORT $LN2@MoveAllUse
$LN6@MoveAllUse:

; 162  : 			{
; 163  : 				this->DeleteUserData(iIndex);

  00055	8b 4d fc	 mov	 ecx, DWORD PTR _this$1$[ebp]
  00058	57		 push	 edi
  00059	e8 00 00 00 00	 call	 ?DeleteUserData@CKanturuBattleUserMng@@QAEHH@Z ; CKanturuBattleUserMng::DeleteUserData

; 164  : 
; 165  : 				LogAddTD( "[ KANTURU ][ BattleUser ] [%s][%s] MoveGate Fail (%d)",

  0005e	8b 45 08	 mov	 eax, DWORD PTR _iGateNumber$[ebp]
  00061	69 cf 40 27 00
	00		 imul	 ecx, edi, 10048
  00067	50		 push	 eax
  00068	03 0d 00 00 00
	00		 add	 ecx, DWORD PTR ?gObj@@3PAUOBJECTSTRUCT@@A ; gObj
  0006e	8d 41 5d	 lea	 eax, DWORD PTR [ecx+93]
  00071	50		 push	 eax
  00072	8d 41 52	 lea	 eax, DWORD PTR [ecx+82]
  00075	50		 push	 eax
  00076	68 00 00 00 00	 push	 OFFSET ??_C@_0DG@PLIJPMOP@?$FL?5KANTURU?5?$FN?$FL?5BattleUser?5?$FN?5?$FL?$CFs?$FN?$FL?$CF@
  0007b	ff 15 00 00 00
	00		 call	 DWORD PTR ?LogAddTD@@3P6AXPADZZA ; LogAddTD

; 166  : 					gObj[iIndex].AccountID, gObj[iIndex].Name, iGateNumber);
; 167  : 
; 168  : 				gObjMoveGate(iIndex, 137);

  00081	68 89 00 00 00	 push	 137			; 00000089H
  00086	57		 push	 edi
  00087	e8 00 00 00 00	 call	 ?gObjMoveGate@@YAHHH@Z	; gObjMoveGate
  0008c	83 c4 18	 add	 esp, 24			; 00000018H
$LN2@MoveAllUse:

; 145  : 	int iIndex;
; 146  : 	BOOL bMoveGateSuccess = FALSE;
; 147  : 
; 148  : 	for ( int iCount=0;iCount<MAX_KANTURU_BATTLE_USER;iCount++)

  0008f	83 c6 0c	 add	 esi, 12			; 0000000cH
  00092	83 eb 01	 sub	 ebx, 1
  00095	0f 85 79 ff ff
	ff		 jne	 $LL4@MoveAllUse

; 169  : 			}
; 170  : 		}
; 171  : 	}
; 172  : 
; 173  : 	return TRUE;

  0009b	5f		 pop	 edi
  0009c	5e		 pop	 esi
  0009d	8d 43 01	 lea	 eax, DWORD PTR [ebx+1]
  000a0	5b		 pop	 ebx

; 174  : }

  000a1	8b e5		 mov	 esp, ebp
  000a3	5d		 pop	 ebp
  000a4	c2 04 00	 ret	 4
?MoveAllUser@CKanturuBattleUserMng@@QAEHH@Z ENDP	; CKanturuBattleUserMng::MoveAllUser
_TEXT	ENDS
; Function compile flags: /Ogtp
; File c:\users\michel\desktop\source\gameserver\source\kanturubattleusermng.cpp
; File c:\users\michel\desktop\source\gameserver\source\kanturubattleuser.h
; File c:\users\michel\desktop\source\gameserver\source\kanturubattleusermng.cpp
;	COMDAT ?CheckUserState@CKanturuBattleUserMng@@QAEXXZ
_TEXT	SEGMENT
tv259 = -8						; size = 4
_this$1$ = -4						; size = 4
?CheckUserState@CKanturuBattleUserMng@@QAEXXZ PROC	; CKanturuBattleUserMng::CheckUserState, COMDAT
; _this$ = ecx

; 111  : {

  00000	55		 push	 ebp
  00001	8b ec		 mov	 ebp, esp
  00003	83 ec 08	 sub	 esp, 8
  00006	53		 push	 ebx
  00007	8b c1		 mov	 eax, ecx

; 112  : 	int iIndex;
; 113  : 
; 114  : 	for ( int iCount=0;iCount<MAX_KANTURU_BATTLE_USER;iCount++)

  00009	bb 0f 00 00 00	 mov	 ebx, 15			; 0000000fH
  0000e	56		 push	 esi
  0000f	57		 push	 edi
  00010	89 45 fc	 mov	 DWORD PTR _this$1$[ebp], eax
  00013	8d 70 08	 lea	 esi, DWORD PTR [eax+8]
$LL4@CheckUserS:

; 115  : 	{
; 116  : 		if ( this->m_BattleUser[iCount].IsUseData() == TRUE )

  00016	83 7e 04 01	 cmp	 DWORD PTR [esi+4], 1
  0001a	0f 85 8b 00 00
	00		 jne	 $LN2@CheckUserS
; File c:\users\michel\desktop\source\gameserver\source\kanturubattleuser.h

; 24   : 		return this->m_iIndex;

  00020	8b 3e		 mov	 edi, DWORD PTR [esi]
; File c:\users\michel\desktop\source\gameserver\source\kanturubattleusermng.cpp

; 120  : 			if ( !gObjIsConnected(iIndex))

  00022	57		 push	 edi
  00023	e8 00 00 00 00	 call	 ?gObjIsConnected@@YAHH@Z ; gObjIsConnected
  00028	83 c4 04	 add	 esp, 4
  0002b	85 c0		 test	 eax, eax
  0002d	75 2b		 jne	 SHORT $LN6@CheckUserS

; 121  : 			{
; 122  : 				this->DeleteUserData(iIndex);

  0002f	8b 4d fc	 mov	 ecx, DWORD PTR _this$1$[ebp]
  00032	57		 push	 edi
  00033	e8 00 00 00 00	 call	 ?DeleteUserData@CKanturuBattleUserMng@@QAEHH@Z ; CKanturuBattleUserMng::DeleteUserData

; 123  : 
; 124  : 				LogAddTD("[ KANTURU ][ BattleUser ] Delete User - Disconnect [%s][%s]",

  00038	69 cf 40 27 00
	00		 imul	 ecx, edi, 10048
  0003e	03 0d 00 00 00
	00		 add	 ecx, DWORD PTR ?gObj@@3PAUOBJECTSTRUCT@@A ; gObj
  00044	8d 41 5d	 lea	 eax, DWORD PTR [ecx+93]
  00047	50		 push	 eax
  00048	8d 41 52	 lea	 eax, DWORD PTR [ecx+82]
  0004b	50		 push	 eax
  0004c	68 00 00 00 00	 push	 OFFSET ??_C@_0DM@MIBKFEPM@?$FL?5KANTURU?5?$FN?$FL?5BattleUser?5?$FN?5Delete@
  00051	ff 15 00 00 00
	00		 call	 DWORD PTR ?LogAddTD@@3P6AXPADZZA ; LogAddTD
  00057	83 c4 0c	 add	 esp, 12			; 0000000cH
$LN6@CheckUserS:

; 125  : 					gObj[iIndex].AccountID, gObj[iIndex].Name);
; 126  : 			}
; 127  : 
; 128  : 			if ( gObj[iIndex].MapNumber != MAP_INDEX_KANTURU_BOSS &&
; 129  : 				 gObj[iIndex].m_State == 2 &&

  0005a	a1 00 00 00 00	 mov	 eax, DWORD PTR ?gObj@@3PAUOBJECTSTRUCT@@A ; gObj
  0005f	69 cf 40 27 00
	00		 imul	 ecx, edi, 10048
  00065	89 4d f8	 mov	 DWORD PTR tv259[ebp], ecx
  00068	80 bc 01 23 01
	00 00 27	 cmp	 BYTE PTR [ecx+eax+291], 39 ; 00000027H
  00070	74 39		 je	 SHORT $LN2@CheckUserS
  00072	83 bc 01 d0 01
	00 00 02	 cmp	 DWORD PTR [ecx+eax+464], 2
  0007a	75 2f		 jne	 SHORT $LN2@CheckUserS
  0007c	80 7c 01 51 01	 cmp	 BYTE PTR [ecx+eax+81], 1
  00081	75 28		 jne	 SHORT $LN2@CheckUserS

; 130  : 				 gObj[iIndex].Live == 1 )
; 131  : 			{
; 132  : 				this->DeleteUserData(iIndex);

  00083	8b 4d fc	 mov	 ecx, DWORD PTR _this$1$[ebp]
  00086	57		 push	 edi
  00087	e8 00 00 00 00	 call	 ?DeleteUserData@CKanturuBattleUserMng@@QAEHH@Z ; CKanturuBattleUserMng::DeleteUserData

; 133  : 
; 134  : 				LogAddTD("[ KANTURU ][ BattleUser ] Delete User - Map Move [%s][%s]",

  0008c	8b 4d f8	 mov	 ecx, DWORD PTR tv259[ebp]
  0008f	03 0d 00 00 00
	00		 add	 ecx, DWORD PTR ?gObj@@3PAUOBJECTSTRUCT@@A ; gObj
  00095	8d 41 5d	 lea	 eax, DWORD PTR [ecx+93]
  00098	50		 push	 eax
  00099	8d 41 52	 lea	 eax, DWORD PTR [ecx+82]
  0009c	50		 push	 eax
  0009d	68 00 00 00 00	 push	 OFFSET ??_C@_0DK@PJCHICKL@?$FL?5KANTURU?5?$FN?$FL?5BattleUser?5?$FN?5Delete@
  000a2	ff 15 00 00 00
	00		 call	 DWORD PTR ?LogAddTD@@3P6AXPADZZA ; LogAddTD
  000a8	83 c4 0c	 add	 esp, 12			; 0000000cH
$LN2@CheckUserS:

; 112  : 	int iIndex;
; 113  : 
; 114  : 	for ( int iCount=0;iCount<MAX_KANTURU_BATTLE_USER;iCount++)

  000ab	83 c6 0c	 add	 esi, 12			; 0000000cH
  000ae	83 eb 01	 sub	 ebx, 1
  000b1	0f 85 5f ff ff
	ff		 jne	 $LL4@CheckUserS
  000b7	5f		 pop	 edi
  000b8	5e		 pop	 esi
  000b9	5b		 pop	 ebx

; 135  : 					gObj[iIndex].AccountID, gObj[iIndex].Name);
; 136  : 			}
; 137  : 		}
; 138  : 	}
; 139  : }

  000ba	8b e5		 mov	 esp, ebp
  000bc	5d		 pop	 ebp
  000bd	c3		 ret	 0
?CheckUserState@CKanturuBattleUserMng@@QAEXXZ ENDP	; CKanturuBattleUserMng::CheckUserState
_TEXT	ENDS
; Function compile flags: /Ogtp
; File c:\users\michel\desktop\source\gameserver\source\kanturubattleusermng.cpp
; File c:\users\michel\desktop\source\gameserver\source\kanturubattleuser.h
; File c:\users\michel\desktop\source\gameserver\source\kanturubattleusermng.cpp
;	COMDAT ?DeleteUserData@CKanturuBattleUserMng@@QAEHH@Z
_TEXT	SEGMENT
_iIndex$ = 8						; size = 4
?DeleteUserData@CKanturuBattleUserMng@@QAEHH@Z PROC	; CKanturuBattleUserMng::DeleteUserData, COMDAT
; _this$ = ecx

; 76   : {

  00000	55		 push	 ebp
  00001	8b ec		 mov	 ebp, esp
  00003	56		 push	 esi

; 77   : 	if ( iIndex < 0 || iIndex > OBJMAX-1)

  00004	8b 75 08	 mov	 esi, DWORD PTR _iIndex$[ebp]
  00007	57		 push	 edi
  00008	8b f9		 mov	 edi, ecx
  0000a	81 fe eb 2c 00
	00		 cmp	 esi, 11499		; 00002cebH
  00010	77 7c		 ja	 SHORT $LN6@DeleteUser

; 83   : 	}
; 84   : 
; 85   : 	for ( int iCount=0;iCount<MAX_KANTURU_BATTLE_USER;iCount++)

  00012	33 d2		 xor	 edx, edx
  00014	8d 47 08	 lea	 eax, DWORD PTR [edi+8]
$LL4@DeleteUser:

; 86   : 	{
; 87   : 		if ( this->m_BattleUser[iCount].IsUseData() == TRUE )

  00017	83 78 04 01	 cmp	 DWORD PTR [eax+4], 1
  0001b	75 04		 jne	 SHORT $LN2@DeleteUser

; 88   : 		{
; 89   : 			if ( this->m_BattleUser[iCount].GetIndex() == iIndex )

  0001d	39 30		 cmp	 DWORD PTR [eax], esi
  0001f	74 11		 je	 SHORT $LN17@DeleteUser
$LN2@DeleteUser:

; 83   : 	}
; 84   : 
; 85   : 	for ( int iCount=0;iCount<MAX_KANTURU_BATTLE_USER;iCount++)

  00021	42		 inc	 edx
  00022	83 c0 0c	 add	 eax, 12			; 0000000cH
  00025	83 fa 0f	 cmp	 edx, 15			; 0000000fH
  00028	7c ed		 jl	 SHORT $LL4@DeleteUser

; 80   : 			iIndex);
; 81   : 
; 82   : 		return FALSE;

  0002a	5f		 pop	 edi
  0002b	33 c0		 xor	 eax, eax
  0002d	5e		 pop	 esi

; 101  : 			}
; 102  : 		}
; 103  : 	}
; 104  : 
; 105  : 	return FALSE;
; 106  : }

  0002e	5d		 pop	 ebp
  0002f	c2 04 00	 ret	 4
$LN17@DeleteUser:

; 90   : 			{
; 91   : 				this->m_BattleUser[iCount].ResetData();

  00032	8d 04 52	 lea	 eax, DWORD PTR [edx+edx*2]

; 93   : #if (GS_CASTLE == 0 || GS_SPEC == 1)
; 94   : 				gObj[iIndex].m_bKanturuEntranceByNPC = FALSE;

  00035	69 ce 40 27 00
	00		 imul	 ecx, esi, 10048
; File c:\users\michel\desktop\source\gameserver\source\kanturubattleuser.h

; 18   : 		this->m_iIndex = -1;

  0003b	c7 44 87 08 ff
	ff ff ff	 mov	 DWORD PTR [edi+eax*4+8], -1

; 19   : 		this->m_bIsUse = FALSE;

  00043	c7 44 87 0c 00
	00 00 00	 mov	 DWORD PTR [edi+eax*4+12], 0
; File c:\users\michel\desktop\source\gameserver\source\kanturubattleusermng.cpp

; 92   : 				this->m_iBattleUserCount--;

  0004b	ff 8f b8 00 00
	00		 dec	 DWORD PTR [edi+184]

; 93   : #if (GS_CASTLE == 0 || GS_SPEC == 1)
; 94   : 				gObj[iIndex].m_bKanturuEntranceByNPC = FALSE;

  00051	a1 00 00 00 00	 mov	 eax, DWORD PTR ?gObj@@3PAUOBJECTSTRUCT@@A ; gObj
  00056	c7 84 01 a0 25
	00 00 00 00 00
	00		 mov	 DWORD PTR [ecx+eax+9632], 0

; 95   : #endif
; 96   : 
; 97   : 				LogAddTD("[ KANTURU ][ BattleUser ] Delete User - [%s][%s] Current Battle User:%d",

  00061	03 0d 00 00 00
	00		 add	 ecx, DWORD PTR ?gObj@@3PAUOBJECTSTRUCT@@A ; gObj
  00067	ff b7 b8 00 00
	00		 push	 DWORD PTR [edi+184]
  0006d	8d 41 5d	 lea	 eax, DWORD PTR [ecx+93]
  00070	50		 push	 eax
  00071	8d 41 52	 lea	 eax, DWORD PTR [ecx+82]
  00074	50		 push	 eax
  00075	68 00 00 00 00	 push	 OFFSET ??_C@_0EI@JMGEKMPE@?$FL?5KANTURU?5?$FN?$FL?5BattleUser?5?$FN?5Delete@
  0007a	ff 15 00 00 00
	00		 call	 DWORD PTR ?LogAddTD@@3P6AXPADZZA ; LogAddTD
  00080	83 c4 10	 add	 esp, 16			; 00000010H

; 98   : 					gObj[iIndex].AccountID, gObj[iIndex].Name, this->m_iBattleUserCount);
; 99   : 
; 100  : 				return TRUE;

  00083	b8 01 00 00 00	 mov	 eax, 1
  00088	5f		 pop	 edi
  00089	5e		 pop	 esi

; 101  : 			}
; 102  : 		}
; 103  : 	}
; 104  : 
; 105  : 	return FALSE;
; 106  : }

  0008a	5d		 pop	 ebp
  0008b	c2 04 00	 ret	 4
$LN6@DeleteUser:

; 78   : 	{
; 79   : 		LogAddTD("[ KANTURU ][ BattleUser ] Delete User Fail - Unvalid Index:%d",

  0008e	56		 push	 esi
  0008f	68 00 00 00 00	 push	 OFFSET ??_C@_0DO@CJKNCKNK@?$FL?5KANTURU?5?$FN?$FL?5BattleUser?5?$FN?5Delete@
  00094	ff 15 00 00 00
	00		 call	 DWORD PTR ?LogAddTD@@3P6AXPADZZA ; LogAddTD
  0009a	83 c4 08	 add	 esp, 8

; 80   : 			iIndex);
; 81   : 
; 82   : 		return FALSE;

  0009d	33 c0		 xor	 eax, eax
  0009f	5f		 pop	 edi
  000a0	5e		 pop	 esi

; 101  : 			}
; 102  : 		}
; 103  : 	}
; 104  : 
; 105  : 	return FALSE;
; 106  : }

  000a1	5d		 pop	 ebp
  000a2	c2 04 00	 ret	 4
?DeleteUserData@CKanturuBattleUserMng@@QAEHH@Z ENDP	; CKanturuBattleUserMng::DeleteUserData
_TEXT	ENDS
; Function compile flags: /Ogtp
; File c:\users\michel\desktop\source\gameserver\source\kanturubattleusermng.cpp
; File c:\users\michel\desktop\source\gameserver\source\kanturubattleuser.h
; File c:\users\michel\desktop\source\gameserver\source\kanturubattleusermng.cpp
;	COMDAT ?AddUserData@CKanturuBattleUserMng@@QAEHH@Z
_TEXT	SEGMENT
_iIndex$ = 8						; size = 4
?AddUserData@CKanturuBattleUserMng@@QAEHH@Z PROC	; CKanturuBattleUserMng::AddUserData, COMDAT
; _this$ = ecx

; 43   : {

  00000	55		 push	 ebp
  00001	8b ec		 mov	 ebp, esp
  00003	56		 push	 esi
  00004	57		 push	 edi

; 44   : 	if ( !gObjIsConnected(iIndex))

  00005	8b 7d 08	 mov	 edi, DWORD PTR _iIndex$[ebp]
  00008	8b f1		 mov	 esi, ecx
  0000a	57		 push	 edi
  0000b	e8 00 00 00 00	 call	 ?gObjIsConnected@@YAHH@Z ; gObjIsConnected
  00010	83 c4 04	 add	 esp, 4
  00013	85 c0		 test	 eax, eax
  00015	75 2a		 jne	 SHORT $LN5@AddUserDat

; 45   : 	{
; 46   : 		LogAddTD("[ KANTURU ][ BattleUser ] Add User Fail - Disconnect User [%s][%s]",

  00017	69 cf 40 27 00
	00		 imul	 ecx, edi, 10048
  0001d	03 0d 00 00 00
	00		 add	 ecx, DWORD PTR ?gObj@@3PAUOBJECTSTRUCT@@A ; gObj
  00023	8d 41 5d	 lea	 eax, DWORD PTR [ecx+93]
  00026	50		 push	 eax
  00027	8d 41 52	 lea	 eax, DWORD PTR [ecx+82]
  0002a	50		 push	 eax
  0002b	68 00 00 00 00	 push	 OFFSET ??_C@_0ED@OOIHFICL@?$FL?5KANTURU?5?$FN?$FL?5BattleUser?5?$FN?5Add?5Us@
  00030	ff 15 00 00 00
	00		 call	 DWORD PTR ?LogAddTD@@3P6AXPADZZA ; LogAddTD
  00036	83 c4 0c	 add	 esp, 12			; 0000000cH

; 47   : 			gObj[iIndex].AccountID, gObj[iIndex].Name);
; 48   : 
; 49   : 		return FALSE;

  00039	33 c0		 xor	 eax, eax
  0003b	5f		 pop	 edi
  0003c	5e		 pop	 esi

; 72   : }

  0003d	5d		 pop	 ebp
  0003e	c2 04 00	 ret	 4
$LN5@AddUserDat:

; 50   : 	}
; 51   : 
; 52   : 	if ( this->IsOverMaxUser() )

  00041	8b ce		 mov	 ecx, esi
  00043	e8 00 00 00 00	 call	 ?IsOverMaxUser@CKanturuBattleUserMng@@QAEHXZ ; CKanturuBattleUserMng::IsOverMaxUser
  00048	85 c0		 test	 eax, eax
  0004a	74 2a		 je	 SHORT $LN6@AddUserDat

; 53   : 	{
; 54   : 		LogAddTD("[ KANTURU ][ BattleUser ] Add User Fail - Over Max User [%s][%s]",

  0004c	69 cf 40 27 00
	00		 imul	 ecx, edi, 10048
  00052	03 0d 00 00 00
	00		 add	 ecx, DWORD PTR ?gObj@@3PAUOBJECTSTRUCT@@A ; gObj
  00058	8d 41 5d	 lea	 eax, DWORD PTR [ecx+93]
  0005b	50		 push	 eax
  0005c	8d 41 52	 lea	 eax, DWORD PTR [ecx+82]
  0005f	50		 push	 eax
  00060	68 00 00 00 00	 push	 OFFSET ??_C@_0EB@OJFLABFJ@?$FL?5KANTURU?5?$FN?$FL?5BattleUser?5?$FN?5Add?5Us@
  00065	ff 15 00 00 00
	00		 call	 DWORD PTR ?LogAddTD@@3P6AXPADZZA ; LogAddTD
  0006b	83 c4 0c	 add	 esp, 12			; 0000000cH

; 55   : 			gObj[iIndex].AccountID, gObj[iIndex].Name);
; 56   : 
; 57   : 		return FALSE;

  0006e	33 c0		 xor	 eax, eax
  00070	5f		 pop	 edi
  00071	5e		 pop	 esi

; 72   : }

  00072	5d		 pop	 ebp
  00073	c2 04 00	 ret	 4
$LN6@AddUserDat:

; 58   : 	}
; 59   : 
; 60   : 	for ( int iCount=0;iCount<MAX_KANTURU_BATTLE_USER;iCount++)

  00076	33 c0		 xor	 eax, eax
  00078	8d 4e 0c	 lea	 ecx, DWORD PTR [esi+12]
  0007b	0f 1f 44 00 00	 npad	 5
$LL4@AddUserDat:

; 61   : 	{
; 62   : 		if ( this->m_BattleUser[iCount].IsUseData() == FALSE )

  00080	83 39 00	 cmp	 DWORD PTR [ecx], 0
  00083	74 11		 je	 SHORT $LN14@AddUserDat

; 58   : 	}
; 59   : 
; 60   : 	for ( int iCount=0;iCount<MAX_KANTURU_BATTLE_USER;iCount++)

  00085	40		 inc	 eax
  00086	83 c1 0c	 add	 ecx, 12			; 0000000cH
  00089	83 f8 0f	 cmp	 eax, 15			; 0000000fH
  0008c	7c f2		 jl	 SHORT $LL4@AddUserDat

; 68   : 		}
; 69   : 	}
; 70   : 
; 71   : 	return FALSE;

  0008e	5f		 pop	 edi
  0008f	33 c0		 xor	 eax, eax
  00091	5e		 pop	 esi

; 72   : }

  00092	5d		 pop	 ebp
  00093	c2 04 00	 ret	 4
$LN14@AddUserDat:

; 63   : 		{
; 64   : 			this->m_BattleUser[iCount].SetIndex(iIndex);

  00096	8d 04 40	 lea	 eax, DWORD PTR [eax+eax*2]
; File c:\users\michel\desktop\source\gameserver\source\kanturubattleuser.h

; 29   : 		this->m_iIndex = iIndex;

  00099	89 7c 86 08	 mov	 DWORD PTR [esi+eax*4+8], edi

; 30   : 		this->m_bIsUse = TRUE;

  0009d	c7 44 86 0c 01
	00 00 00	 mov	 DWORD PTR [esi+eax*4+12], 1
; File c:\users\michel\desktop\source\gameserver\source\kanturubattleusermng.cpp

; 67   : 			return TRUE;

  000a5	b8 01 00 00 00	 mov	 eax, 1
  000aa	ff 86 b8 00 00
	00		 inc	 DWORD PTR [esi+184]
  000b0	5f		 pop	 edi
  000b1	5e		 pop	 esi

; 72   : }

  000b2	5d		 pop	 ebp
  000b3	c2 04 00	 ret	 4
?AddUserData@CKanturuBattleUserMng@@QAEHH@Z ENDP	; CKanturuBattleUserMng::AddUserData
_TEXT	ENDS
; Function compile flags: /Ogtp
; File c:\users\michel\desktop\source\gameserver\source\kanturubattleusermng.cpp
; File c:\users\michel\desktop\source\gameserver\source\kanturubattleuser.h
; File c:\users\michel\desktop\source\gameserver\source\kanturubattleusermng.cpp
; File c:\users\michel\desktop\source\gameserver\source\kanturubattleuser.h
; File c:\users\michel\desktop\source\gameserver\source\kanturubattleusermng.cpp
;	COMDAT ?ResetAllData@CKanturuBattleUserMng@@QAEXXZ
_TEXT	SEGMENT
?ResetAllData@CKanturuBattleUserMng@@QAEXXZ PROC	; CKanturuBattleUserMng::ResetAllData, COMDAT
; _this$ = ecx

; 30   : {

  00000	56		 push	 esi
  00001	8b f1		 mov	 esi, ecx

; 31   : 	this->m_iBattleUserCount = 0;
; 32   : 	this->SetMaxUser(MAX_KANTURU_BATTLE_USER);

  00003	6a 0f		 push	 15			; 0000000fH
  00005	c7 86 b8 00 00
	00 00 00 00 00	 mov	 DWORD PTR [esi+184], 0
  0000f	e8 00 00 00 00	 call	 ?SetMaxUser@CKanturuBattleUserMng@@QAEXH@Z ; CKanturuBattleUserMng::SetMaxUser
  00014	8d 46 0c	 lea	 eax, DWORD PTR [esi+12]
  00017	b9 0f 00 00 00	 mov	 ecx, 15			; 0000000fH
  0001c	5e		 pop	 esi
  0001d	0f 1f 00	 npad	 3
$LL4@ResetAllDa:
; File c:\users\michel\desktop\source\gameserver\source\kanturubattleuser.h

; 18   : 		this->m_iIndex = -1;

  00020	c7 40 fc ff ff
	ff ff		 mov	 DWORD PTR [eax-4], -1
; File c:\users\michel\desktop\source\gameserver\source\kanturubattleusermng.cpp

; 34   : 	for ( int iCount=0;iCount<MAX_KANTURU_BATTLE_USER;iCount++)

  00027	8d 40 0c	 lea	 eax, DWORD PTR [eax+12]
; File c:\users\michel\desktop\source\gameserver\source\kanturubattleuser.h

; 19   : 		this->m_bIsUse = FALSE;

  0002a	c7 40 f4 00 00
	00 00		 mov	 DWORD PTR [eax-12], 0
; File c:\users\michel\desktop\source\gameserver\source\kanturubattleusermng.cpp

; 34   : 	for ( int iCount=0;iCount<MAX_KANTURU_BATTLE_USER;iCount++)

  00031	83 e9 01	 sub	 ecx, 1
  00034	75 ea		 jne	 SHORT $LL4@ResetAllDa

; 35   : 	{
; 36   : 		this->m_BattleUser[iCount].ResetData();
; 37   : 	}
; 38   : }

  00036	c3		 ret	 0
?ResetAllData@CKanturuBattleUserMng@@QAEXXZ ENDP	; CKanturuBattleUserMng::ResetAllData
_TEXT	ENDS
; Function compile flags: /Ogtp
; File c:\users\michel\desktop\source\gameserver\source\kanturubattleusermng.cpp
;	COMDAT ??1CKanturuBattleUserMng@@UAE@XZ
_TEXT	SEGMENT
__$EHRec$ = -12						; size = 12
??1CKanturuBattleUserMng@@UAE@XZ PROC			; CKanturuBattleUserMng::~CKanturuBattleUserMng, COMDAT
; _this$ = ecx

; 23   : {

  00000	55		 push	 ebp
  00001	8b ec		 mov	 ebp, esp
  00003	6a ff		 push	 -1
  00005	68 00 00 00 00	 push	 __ehhandler$??1CKanturuBattleUserMng@@UAE@XZ
  0000a	64 a1 00 00 00
	00		 mov	 eax, DWORD PTR fs:0
  00010	50		 push	 eax
  00011	a1 00 00 00 00	 mov	 eax, DWORD PTR ___security_cookie
  00016	33 c5		 xor	 eax, ebp
  00018	50		 push	 eax
  00019	8d 45 f4	 lea	 eax, DWORD PTR __$EHRec$[ebp]
  0001c	64 a3 00 00 00
	00		 mov	 DWORD PTR fs:0, eax

; 24   : 	return;
; 25   : }

  00022	68 00 00 00 00	 push	 OFFSET ??1CKanturuBattleUser@@UAE@XZ ; CKanturuBattleUser::~CKanturuBattleUser
  00027	6a 0f		 push	 15			; 0000000fH
  00029	6a 0c		 push	 12			; 0000000cH
  0002b	8d 41 04	 lea	 eax, DWORD PTR [ecx+4]
  0002e	c7 01 00 00 00
	00		 mov	 DWORD PTR [ecx], OFFSET ??_7CKanturuBattleUserMng@@6B@
  00034	50		 push	 eax
  00035	e8 00 00 00 00	 call	 ??_M@YGXPAXIIP6EX0@Z@Z
  0003a	8b 4d f4	 mov	 ecx, DWORD PTR __$EHRec$[ebp]
  0003d	64 89 0d 00 00
	00 00		 mov	 DWORD PTR fs:0, ecx
  00044	59		 pop	 ecx
  00045	8b e5		 mov	 esp, ebp
  00047	5d		 pop	 ebp
  00048	c3		 ret	 0
_TEXT	ENDS
;	COMDAT text$x
text$x	SEGMENT
__ehhandler$??1CKanturuBattleUserMng@@UAE@XZ:
  00000	8b 54 24 08	 mov	 edx, DWORD PTR [esp+8]
  00004	8d 42 0c	 lea	 eax, DWORD PTR [edx+12]
  00007	8b 4a fc	 mov	 ecx, DWORD PTR [edx-4]
  0000a	33 c8		 xor	 ecx, eax
  0000c	e8 00 00 00 00	 call	 @__security_check_cookie@4
  00011	b8 00 00 00 00	 mov	 eax, OFFSET __ehfuncinfo$??1CKanturuBattleUserMng@@UAE@XZ
  00016	e9 00 00 00 00	 jmp	 ___CxxFrameHandler3
text$x	ENDS
??1CKanturuBattleUserMng@@UAE@XZ ENDP			; CKanturuBattleUserMng::~CKanturuBattleUserMng
; Function compile flags: /Ogtp
; File c:\users\michel\desktop\source\gameserver\source\kanturubattleusermng.cpp
;	COMDAT ??0CKanturuBattleUserMng@@QAE@XZ
_TEXT	SEGMENT
_this$ = -16						; size = 4
__$EHRec$ = -12						; size = 12
??0CKanturuBattleUserMng@@QAE@XZ PROC			; CKanturuBattleUserMng::CKanturuBattleUserMng, COMDAT
; _this$ = ecx

; 18   : {

  00000	55		 push	 ebp
  00001	8b ec		 mov	 ebp, esp
  00003	6a ff		 push	 -1
  00005	68 00 00 00 00	 push	 __ehhandler$??0CKanturuBattleUserMng@@QAE@XZ
  0000a	64 a1 00 00 00
	00		 mov	 eax, DWORD PTR fs:0
  00010	50		 push	 eax
  00011	51		 push	 ecx
  00012	56		 push	 esi
  00013	a1 00 00 00 00	 mov	 eax, DWORD PTR ___security_cookie
  00018	33 c5		 xor	 eax, ebp
  0001a	50		 push	 eax
  0001b	8d 45 f4	 lea	 eax, DWORD PTR __$EHRec$[ebp]
  0001e	64 a3 00 00 00
	00		 mov	 DWORD PTR fs:0, eax
  00024	8b f1		 mov	 esi, ecx
  00026	89 75 f0	 mov	 DWORD PTR _this$[ebp], esi
  00029	68 00 00 00 00	 push	 OFFSET ??1CKanturuBattleUser@@UAE@XZ ; CKanturuBattleUser::~CKanturuBattleUser
  0002e	68 00 00 00 00	 push	 OFFSET ??0CKanturuBattleUser@@QAE@XZ ; CKanturuBattleUser::CKanturuBattleUser
  00033	6a 0f		 push	 15			; 0000000fH
  00035	6a 0c		 push	 12			; 0000000cH
  00037	8d 46 04	 lea	 eax, DWORD PTR [esi+4]
  0003a	c7 06 00 00 00
	00		 mov	 DWORD PTR [esi], OFFSET ??_7CKanturuBattleUserMng@@6B@
  00040	50		 push	 eax
  00041	e8 00 00 00 00	 call	 ??_L@YGXPAXIIP6EX0@Z1@Z

; 19   : 	this->ResetAllData();

  00046	8b ce		 mov	 ecx, esi
  00048	c7 45 fc 00 00
	00 00		 mov	 DWORD PTR __$EHRec$[ebp+8], 0
  0004f	e8 00 00 00 00	 call	 ?ResetAllData@CKanturuBattleUserMng@@QAEXXZ ; CKanturuBattleUserMng::ResetAllData

; 20   : }

  00054	8b c6		 mov	 eax, esi
  00056	8b 4d f4	 mov	 ecx, DWORD PTR __$EHRec$[ebp]
  00059	64 89 0d 00 00
	00 00		 mov	 DWORD PTR fs:0, ecx
  00060	59		 pop	 ecx
  00061	5e		 pop	 esi
  00062	8b e5		 mov	 esp, ebp
  00064	5d		 pop	 ebp
  00065	c3		 ret	 0
_TEXT	ENDS
;	COMDAT text$x
text$x	SEGMENT
__unwindfunclet$??0CKanturuBattleUserMng@@QAE@XZ$0:
  00000	68 00 00 00 00	 push	 OFFSET ??1CKanturuBattleUser@@UAE@XZ ; CKanturuBattleUser::~CKanturuBattleUser
  00005	6a 0f		 push	 15			; 0000000fH
  00007	6a 0c		 push	 12			; 0000000cH
  00009	8b 45 f0	 mov	 eax, DWORD PTR _this$[ebp]
  0000c	83 c0 04	 add	 eax, 4
  0000f	50		 push	 eax
  00010	e8 00 00 00 00	 call	 ??_M@YGXPAXIIP6EX0@Z@Z
  00015	c3		 ret	 0
__ehhandler$??0CKanturuBattleUserMng@@QAE@XZ:
  00016	8b 54 24 08	 mov	 edx, DWORD PTR [esp+8]
  0001a	8d 42 0c	 lea	 eax, DWORD PTR [edx+12]
  0001d	8b 4a f4	 mov	 ecx, DWORD PTR [edx-12]
  00020	33 c8		 xor	 ecx, eax
  00022	e8 00 00 00 00	 call	 @__security_check_cookie@4
  00027	b8 00 00 00 00	 mov	 eax, OFFSET __ehfuncinfo$??0CKanturuBattleUserMng@@QAE@XZ
  0002c	e9 00 00 00 00	 jmp	 ___CxxFrameHandler3
text$x	ENDS
??0CKanturuBattleUserMng@@QAE@XZ ENDP			; CKanturuBattleUserMng::CKanturuBattleUserMng
; Function compile flags: /Ogtp
; File c:\users\michel\desktop\source\gameserver\source\kanturubattleuser.h
;	COMDAT ??_GCKanturuBattleUser@@UAEPAXI@Z
_TEXT	SEGMENT
___flags$ = 8						; size = 4
??_GCKanturuBattleUser@@UAEPAXI@Z PROC			; CKanturuBattleUser::`scalar deleting destructor', COMDAT
; _this$ = ecx
  00000	55		 push	 ebp
  00001	8b ec		 mov	 ebp, esp
  00003	f6 45 08 01	 test	 BYTE PTR ___flags$[ebp], 1
  00007	56		 push	 esi
  00008	8b f1		 mov	 esi, ecx

; 14   : 	virtual ~CKanturuBattleUser(){return;}

  0000a	c7 06 00 00 00
	00		 mov	 DWORD PTR [esi], OFFSET ??_7CKanturuBattleUser@@6B@
  00010	74 0b		 je	 SHORT $LN7@scalar
  00012	6a 0c		 push	 12			; 0000000cH
  00014	56		 push	 esi
  00015	e8 00 00 00 00	 call	 ??3@YAXPAXI@Z		; operator delete
  0001a	83 c4 08	 add	 esp, 8
$LN7@scalar:
  0001d	8b c6		 mov	 eax, esi
  0001f	5e		 pop	 esi
  00020	5d		 pop	 ebp
  00021	c2 04 00	 ret	 4
??_GCKanturuBattleUser@@UAEPAXI@Z ENDP			; CKanturuBattleUser::`scalar deleting destructor'
_TEXT	ENDS
; Function compile flags: /Ogtp
; File c:\users\michel\desktop\source\gameserver\source\kanturubattleuser.h
;	COMDAT ?IsUseData@CKanturuBattleUser@@QAEHXZ
_TEXT	SEGMENT
?IsUseData@CKanturuBattleUser@@QAEHXZ PROC		; CKanturuBattleUser::IsUseData, COMDAT
; _this$ = ecx

; 35   : 		return this->m_bIsUse;

  00000	8b 41 08	 mov	 eax, DWORD PTR [ecx+8]

; 36   : 	}

  00003	c3		 ret	 0
?IsUseData@CKanturuBattleUser@@QAEHXZ ENDP		; CKanturuBattleUser::IsUseData
_TEXT	ENDS
; Function compile flags: /Ogtp
; File c:\users\michel\desktop\source\gameserver\source\kanturubattleuser.h
;	COMDAT ?SetIndex@CKanturuBattleUser@@QAEXH@Z
_TEXT	SEGMENT
_iIndex$ = 8						; size = 4
?SetIndex@CKanturuBattleUser@@QAEXH@Z PROC		; CKanturuBattleUser::SetIndex, COMDAT
; _this$ = ecx

; 28   : 	{

  00000	55		 push	 ebp
  00001	8b ec		 mov	 ebp, esp

; 29   : 		this->m_iIndex = iIndex;

  00003	8b 45 08	 mov	 eax, DWORD PTR _iIndex$[ebp]
  00006	89 41 04	 mov	 DWORD PTR [ecx+4], eax

; 30   : 		this->m_bIsUse = TRUE;

  00009	c7 41 08 01 00
	00 00		 mov	 DWORD PTR [ecx+8], 1

; 31   : 	}

  00010	5d		 pop	 ebp
  00011	c2 04 00	 ret	 4
?SetIndex@CKanturuBattleUser@@QAEXH@Z ENDP		; CKanturuBattleUser::SetIndex
_TEXT	ENDS
; Function compile flags: /Ogtp
; File c:\users\michel\desktop\source\gameserver\source\kanturubattleuser.h
;	COMDAT ?GetIndex@CKanturuBattleUser@@QAEHXZ
_TEXT	SEGMENT
?GetIndex@CKanturuBattleUser@@QAEHXZ PROC		; CKanturuBattleUser::GetIndex, COMDAT
; _this$ = ecx

; 24   : 		return this->m_iIndex;

  00000	8b 41 04	 mov	 eax, DWORD PTR [ecx+4]

; 25   : 	}

  00003	c3		 ret	 0
?GetIndex@CKanturuBattleUser@@QAEHXZ ENDP		; CKanturuBattleUser::GetIndex
_TEXT	ENDS
; Function compile flags: /Ogtp
; File c:\users\michel\desktop\source\gameserver\source\kanturubattleuser.h
;	COMDAT ?ResetData@CKanturuBattleUser@@QAEXXZ
_TEXT	SEGMENT
?ResetData@CKanturuBattleUser@@QAEXXZ PROC		; CKanturuBattleUser::ResetData, COMDAT
; _this$ = ecx

; 18   : 		this->m_iIndex = -1;

  00000	c7 41 04 ff ff
	ff ff		 mov	 DWORD PTR [ecx+4], -1

; 19   : 		this->m_bIsUse = FALSE;

  00007	c7 41 08 00 00
	00 00		 mov	 DWORD PTR [ecx+8], 0

; 20   : 	}

  0000e	c3		 ret	 0
?ResetData@CKanturuBattleUser@@QAEXXZ ENDP		; CKanturuBattleUser::ResetData
_TEXT	ENDS
; Function compile flags: /Ogtp
; File c:\users\michel\desktop\source\gameserver\source\kanturubattleuser.h
;	COMDAT ??1CKanturuBattleUser@@UAE@XZ
_TEXT	SEGMENT
??1CKanturuBattleUser@@UAE@XZ PROC			; CKanturuBattleUser::~CKanturuBattleUser, COMDAT
; _this$ = ecx

; 14   : 	virtual ~CKanturuBattleUser(){return;}

  00000	c7 01 00 00 00
	00		 mov	 DWORD PTR [ecx], OFFSET ??_7CKanturuBattleUser@@6B@
  00006	c3		 ret	 0
??1CKanturuBattleUser@@UAE@XZ ENDP			; CKanturuBattleUser::~CKanturuBattleUser
_TEXT	ENDS
; Function compile flags: /Ogtp
; File c:\users\michel\desktop\source\gameserver\source\kanturubattleuser.h
;	COMDAT ??0CKanturuBattleUser@@QAE@XZ
_TEXT	SEGMENT
??0CKanturuBattleUser@@QAE@XZ PROC			; CKanturuBattleUser::CKanturuBattleUser, COMDAT
; _this$ = ecx

; 10   : 	{

  00000	c7 01 00 00 00
	00		 mov	 DWORD PTR [ecx], OFFSET ??_7CKanturuBattleUser@@6B@

; 11   : 		this->ResetData();
; 12   : 	}

  00006	8b c1		 mov	 eax, ecx

; 13   : 
; 14   : 	virtual ~CKanturuBattleUser(){return;}
; 15   : 	
; 16   : 	void ResetData()
; 17   : 	{
; 18   : 		this->m_iIndex = -1;

  00008	c7 41 04 ff ff
	ff ff		 mov	 DWORD PTR [ecx+4], -1

; 19   : 		this->m_bIsUse = FALSE;

  0000f	c7 41 08 00 00
	00 00		 mov	 DWORD PTR [ecx+8], 0

; 11   : 		this->ResetData();
; 12   : 	}

  00016	c3		 ret	 0
??0CKanturuBattleUser@@QAE@XZ ENDP			; CKanturuBattleUser::CKanturuBattleUser
_TEXT	ENDS
; Function compile flags: /Ogtp
; File c:\users\michel\desktop\source\gameserver\source\kanturubattleusermng.cpp
;	COMDAT ?__empty_global_delete@@YAXPAXI@Z
_TEXT	SEGMENT
___formal$ = 8						; size = 4
___formal$ = 12						; size = 4
?__empty_global_delete@@YAXPAXI@Z PROC			; __empty_global_delete, COMDAT

; 247  : }

  00000	c3		 ret	 0
?__empty_global_delete@@YAXPAXI@Z ENDP			; __empty_global_delete
_TEXT	ENDS
; Function compile flags: /Ogtp
; File c:\users\michel\desktop\source\gameserver\source\kanturubattleusermng.cpp
;	COMDAT ?__empty_global_delete@@YAXPAX@Z
_TEXT	SEGMENT
___formal$ = 8						; size = 4
?__empty_global_delete@@YAXPAX@Z PROC			; __empty_global_delete, COMDAT

; 247  : }

  00000	c3		 ret	 0
?__empty_global_delete@@YAXPAX@Z ENDP			; __empty_global_delete
_TEXT	ENDS
END
