; Listing generated by Microsoft (R) Optimizing Compiler Version 19.00.23506.0 

	TITLE	C:\Users\Michel\Desktop\Source\GameServer\Source\KanturuUtil.cpp
	.686P
	.XMM
	include listing.inc
	.model	flat

INCLUDELIB LIBCMT
INCLUDELIB OLDNAMES

PUBLIC	?__empty_global_delete@@YAXPAX@Z		; __empty_global_delete
PUBLIC	?__empty_global_delete@@YAXPAXI@Z		; __empty_global_delete
PUBLIC	___local_stdio_printf_options
PUBLIC	??$__vcrt_va_start_verify_argument_type@PAD@@YAXXZ ; __vcrt_va_start_verify_argument_type<char *>
PUBLIC	??1OBJECTSTRUCT@@QAE@XZ				; OBJECTSTRUCT::~OBJECTSTRUCT
PUBLIC	??_EOBJECTSTRUCT@@QAEPAXI@Z			; OBJECTSTRUCT::`vector deleting destructor'
PUBLIC	??0CKanturuUtil@@QAE@XZ				; CKanturuUtil::CKanturuUtil
PUBLIC	??1CKanturuUtil@@UAE@XZ				; CKanturuUtil::~CKanturuUtil
PUBLIC	?NotifyKanturuChangeState@CKanturuUtil@@QAEXHH@Z ; CKanturuUtil::NotifyKanturuChangeState
PUBLIC	?NotifyKanturuEntranceReqResult@CKanturuUtil@@QAEXHH@Z ; CKanturuUtil::NotifyKanturuEntranceReqResult
PUBLIC	?NotifyKanturuSuccessValue@CKanturuUtil@@QAEXH@Z ; CKanturuUtil::NotifyKanturuSuccessValue
PUBLIC	?NotifyKanturuCurrentState@CKanturuUtil@@QAEXHHH@Z ; CKanturuUtil::NotifyKanturuCurrentState
PUBLIC	?NotifyKanturuBattleTime@CKanturuUtil@@QAEXH@Z	; CKanturuUtil::NotifyKanturuBattleTime
PUBLIC	?NotifyKanturuWideAreaAttack@CKanturuUtil@@QAEXHHH@Z ; CKanturuUtil::NotifyKanturuWideAreaAttack
PUBLIC	?NotifyKanturuUserMonsterCount@CKanturuUtil@@QAEXHH@Z ; CKanturuUtil::NotifyKanturuUserMonsterCount
PUBLIC	?SendMsgKanturuBattleUser@CKanturuUtil@@QAAXPADZZ ; CKanturuUtil::SendMsgKanturuBattleUser
PUBLIC	?SendDataKanturuBattleUser@CKanturuUtil@@QAEXPAEH@Z ; CKanturuUtil::SendDataKanturuBattleUser
PUBLIC	?SendMsgKauturuBossMapUser@CKanturuUtil@@QAAXPADZZ ; CKanturuUtil::SendMsgKauturuBossMapUser
PUBLIC	?SendDataKanturuBossMapUser@CKanturuUtil@@QAEXPAEH@Z ; CKanturuUtil::SendDataKanturuBossMapUser
PUBLIC	?SendMsgKauturuMapUser@CKanturuUtil@@QAAXPADZZ	; CKanturuUtil::SendMsgKauturuMapUser
PUBLIC	?SendDataKanturuMapUser@CKanturuUtil@@QAEXPAEH@Z ; CKanturuUtil::SendDataKanturuMapUser
PUBLIC	?SendMsgAllUser@CKanturuUtil@@QAAXPADZZ		; CKanturuUtil::SendMsgAllUser
PUBLIC	?SendDataAllUser@CKanturuUtil@@QAEXPAEH@Z	; CKanturuUtil::SendDataAllUser
PUBLIC	?SendMsgToUser@CKanturuUtil@@QAAXHPADZZ		; CKanturuUtil::SendMsgToUser
PUBLIC	?SendDataToUser@CKanturuUtil@@QAEXHPAEH@Z	; CKanturuUtil::SendDataToUser
PUBLIC	?SendKanturuChattingMsg@CKanturuUtil@@QAAXHPADZZ ; CKanturuUtil::SendKanturuChattingMsg
PUBLIC	?SendDataKanturuTimeAttackEvent@CKanturuUtil@@QAEXHEH@Z ; CKanturuUtil::SendDataKanturuTimeAttackEvent
PUBLIC	??_GCKanturuUtil@@UAEPAXI@Z			; CKanturuUtil::`scalar deleting destructor'
PUBLIC	?_OptionsStorage@?1??__local_stdio_printf_options@@9@4_KA ; `__local_stdio_printf_options'::`2'::_OptionsStorage
PUBLIC	??_7CKanturuUtil@@6B@				; CKanturuUtil::`vftable'
PUBLIC	?g_KanturuUtil@@3VCKanturuUtil@@A		; g_KanturuUtil
PUBLIC	??_C@_0L@CDIOGIBG@?$CFd?$CF03d?$CF02d?$AA@	; `string'
PUBLIC	??_C@_0GA@FDPLLFEO@?$FL?5KANTURU?5?$FN?$FL?5TimeAttackEvent?5?$FN?5?$FL@ ; `string'
PUBLIC	??_R4CKanturuUtil@@6B@				; CKanturuUtil::`RTTI Complete Object Locator'
PUBLIC	??_R0?AVCKanturuUtil@@@8			; CKanturuUtil `RTTI Type Descriptor'
PUBLIC	??_R3CKanturuUtil@@8				; CKanturuUtil::`RTTI Class Hierarchy Descriptor'
PUBLIC	??_R2CKanturuUtil@@8				; CKanturuUtil::`RTTI Base Class Array'
PUBLIC	??_R1A@?0A@EA@CKanturuUtil@@8			; CKanturuUtil::`RTTI Base Class Descriptor at (0,-1,0,64)'
EXTRN	??_M@YGXPAXIIP6EX0@Z@Z:PROC			; `eh vector destructor iterator'
EXTRN	??3@YAXPAXI@Z:PROC				; operator delete
EXTRN	??_V@YAXPAXI@Z:PROC				; operator delete[]
EXTRN	_atexit:PROC
EXTRN	__imp__wsprintfA:PROC
EXTRN	___stdio_common_vsprintf:PROC
EXTRN	??1CSkillDelay@@UAE@XZ:PROC			; CSkillDelay::~CSkillDelay
EXTRN	?DataSend@@YAHHPAEK@Z:PROC			; DataSend
EXTRN	??1TMonsterAIAgro@@UAE@XZ:PROC			; TMonsterAIAgro::~TMonsterAIAgro
EXTRN	?MakeNoticeMsg@TNotice@@SAXPAXEPAD@Z:PROC	; TNotice::MakeNoticeMsg
EXTRN	?SendNoticeToAllUser@TNotice@@SAXPAX@Z:PROC	; TNotice::SendNoticeToAllUser
EXTRN	?SendNoticeToUser@TNotice@@SAXHPAX@Z:PROC	; TNotice::SendNoticeToUser
EXTRN	??_ECKanturuUtil@@UAEPAXI@Z:PROC		; CKanturuUtil::`vector deleting destructor'
EXTRN	?DataSendEventChip@@YAXPADH@Z:PROC		; DataSendEventChip
EXTRN	?PHeadSubSetB@@YAXPAEEEH@Z:PROC			; PHeadSubSetB
EXTRN	@__security_check_cookie@4:PROC
EXTRN	___CxxFrameHandler3:PROC
EXTRN	_memset:PROC
EXTRN	??_7type_info@@6B@:QWORD			; type_info::`vftable'
EXTRN	?LogAddTD@@3P6AXPADZZA:DWORD			; LogAddTD
EXTRN	?gObj@@3PAUOBJECTSTRUCT@@A:DWORD		; gObj
EXTRN	?gGameServerCode@@3FA:WORD			; gGameServerCode
EXTRN	?g_Kanturu@@3VCKanturu@@A:BYTE			; g_Kanturu
EXTRN	?g_KanturuBattleUserMng@@3VCKanturuBattleUserMng@@A:BYTE ; g_KanturuBattleUserMng
EXTRN	___security_cookie:DWORD
;	COMDAT ?_OptionsStorage@?1??__local_stdio_printf_options@@9@4_KA
_BSS	SEGMENT
?_OptionsStorage@?1??__local_stdio_printf_options@@9@4_KA DQ 01H DUP (?) ; `__local_stdio_printf_options'::`2'::_OptionsStorage
_BSS	ENDS
_BSS	SEGMENT
?g_KanturuUtil@@3VCKanturuUtil@@A DD 01H DUP (?)	; g_KanturuUtil
_BSS	ENDS
CRT$XCU	SEGMENT
?g_KanturuUtil$initializer$@@3P6AXXZA DD FLAT:??__Eg_KanturuUtil@@YAXXZ ; g_KanturuUtil$initializer$
CRT$XCU	ENDS
;	COMDAT ??_R1A@?0A@EA@CKanturuUtil@@8
rdata$r	SEGMENT
??_R1A@?0A@EA@CKanturuUtil@@8 DD FLAT:??_R0?AVCKanturuUtil@@@8 ; CKanturuUtil::`RTTI Base Class Descriptor at (0,-1,0,64)'
	DD	00H
	DD	00H
	DD	0ffffffffH
	DD	00H
	DD	040H
	DD	FLAT:??_R3CKanturuUtil@@8
rdata$r	ENDS
;	COMDAT ??_R2CKanturuUtil@@8
rdata$r	SEGMENT
??_R2CKanturuUtil@@8 DD FLAT:??_R1A@?0A@EA@CKanturuUtil@@8 ; CKanturuUtil::`RTTI Base Class Array'
rdata$r	ENDS
;	COMDAT ??_R3CKanturuUtil@@8
rdata$r	SEGMENT
??_R3CKanturuUtil@@8 DD 00H				; CKanturuUtil::`RTTI Class Hierarchy Descriptor'
	DD	00H
	DD	01H
	DD	FLAT:??_R2CKanturuUtil@@8
rdata$r	ENDS
;	COMDAT ??_R0?AVCKanturuUtil@@@8
data$r	SEGMENT
??_R0?AVCKanturuUtil@@@8 DD FLAT:??_7type_info@@6B@	; CKanturuUtil `RTTI Type Descriptor'
	DD	00H
	DB	'.?AVCKanturuUtil@@', 00H
data$r	ENDS
;	COMDAT ??_R4CKanturuUtil@@6B@
rdata$r	SEGMENT
??_R4CKanturuUtil@@6B@ DD 00H				; CKanturuUtil::`RTTI Complete Object Locator'
	DD	00H
	DD	00H
	DD	FLAT:??_R0?AVCKanturuUtil@@@8
	DD	FLAT:??_R3CKanturuUtil@@8
rdata$r	ENDS
;	COMDAT ??_C@_0GA@FDPLLFEO@?$FL?5KANTURU?5?$FN?$FL?5TimeAttackEvent?5?$FN?5?$FL@
CONST	SEGMENT
??_C@_0GA@FDPLLFEO@?$FL?5KANTURU?5?$FN?$FL?5TimeAttackEvent?5?$FN?5?$FL@ DB '['
	DB	' KANTURU ][ TimeAttackEvent ] [%s][%s] %d/BattleID:%s, StageN'
	DB	'um:%d, ClearTime:%d, Level:%d(%d)', 00H	; `string'
CONST	ENDS
;	COMDAT ??_C@_0L@CDIOGIBG@?$CFd?$CF03d?$CF02d?$AA@
CONST	SEGMENT
??_C@_0L@CDIOGIBG@?$CFd?$CF03d?$CF02d?$AA@ DB '%d%03d%02d', 00H ; `string'
CONST	ENDS
;	COMDAT ??_7CKanturuUtil@@6B@
CONST	SEGMENT
??_7CKanturuUtil@@6B@ DD FLAT:??_R4CKanturuUtil@@6B@	; CKanturuUtil::`vftable'
	DD	FLAT:??_ECKanturuUtil@@UAEPAXI@Z
CONST	ENDS
;	COMDAT xdata$x
xdata$x	SEGMENT
__ehfuncinfo$??_EOBJECTSTRUCT@@QAEPAXI@Z DD 019930522H
	DD	00H
	DD	00H
	DD	2 DUP(00H)
	DD	2 DUP(00H)
	DD	00H
	DD	05H
xdata$x	ENDS
; Function compile flags: /Ogtp
;	COMDAT ??__Fg_KanturuUtil@@YAXXZ
text$yd	SEGMENT
??__Fg_KanturuUtil@@YAXXZ PROC				; `dynamic atexit destructor for 'g_KanturuUtil'', COMDAT
  00000	b9 00 00 00 00	 mov	 ecx, OFFSET ?g_KanturuUtil@@3VCKanturuUtil@@A ; g_KanturuUtil
  00005	e9 00 00 00 00	 jmp	 ??1CKanturuUtil@@UAE@XZ	; CKanturuUtil::~CKanturuUtil
??__Fg_KanturuUtil@@YAXXZ ENDP				; `dynamic atexit destructor for 'g_KanturuUtil''
text$yd	ENDS
; Function compile flags: /Ogtp
; File c:\users\michel\desktop\source\gameserver\source\kanturuutil.cpp
;	COMDAT ??__Eg_KanturuUtil@@YAXXZ
text$di	SEGMENT
??__Eg_KanturuUtil@@YAXXZ PROC				; `dynamic initializer for 'g_KanturuUtil'', COMDAT

; 15   : CKanturuUtil g_KanturuUtil; 

  00000	b9 00 00 00 00	 mov	 ecx, OFFSET ?g_KanturuUtil@@3VCKanturuUtil@@A ; g_KanturuUtil
  00005	e8 00 00 00 00	 call	 ??0CKanturuUtil@@QAE@XZ	; CKanturuUtil::CKanturuUtil
  0000a	68 00 00 00 00	 push	 OFFSET ??__Fg_KanturuUtil@@YAXXZ ; `dynamic atexit destructor for 'g_KanturuUtil''
  0000f	e8 00 00 00 00	 call	 _atexit
  00014	59		 pop	 ecx
  00015	c3		 ret	 0
??__Eg_KanturuUtil@@YAXXZ ENDP				; `dynamic initializer for 'g_KanturuUtil''
text$di	ENDS
; Function compile flags: /Ogtp
; File c:\users\michel\desktop\source\gameserver\source\kanturubattleuser.h
;	COMDAT ?GetIndex@CKanturuBattleUser@@QAEHXZ
_TEXT	SEGMENT
?GetIndex@CKanturuBattleUser@@QAEHXZ PROC		; CKanturuBattleUser::GetIndex, COMDAT
; _this$ = ecx

; 24   : 		return this->m_iIndex;

  00000	8b 41 04	 mov	 eax, DWORD PTR [ecx+4]

; 25   : 	}

  00003	c3		 ret	 0
?GetIndex@CKanturuBattleUser@@QAEHXZ ENDP		; CKanturuBattleUser::GetIndex
_TEXT	ENDS
; Function compile flags: /Ogtp
;	COMDAT ??_GCKanturuUtil@@UAEPAXI@Z
_TEXT	SEGMENT
___flags$ = 8						; size = 4
??_GCKanturuUtil@@UAEPAXI@Z PROC			; CKanturuUtil::`scalar deleting destructor', COMDAT
; _this$ = ecx
  00000	55		 push	 ebp
  00001	8b ec		 mov	 ebp, esp
  00003	56		 push	 esi
  00004	8b f1		 mov	 esi, ecx
  00006	e8 00 00 00 00	 call	 ??1CKanturuUtil@@UAE@XZ	; CKanturuUtil::~CKanturuUtil
  0000b	f6 45 08 01	 test	 BYTE PTR ___flags$[ebp], 1
  0000f	74 0b		 je	 SHORT $LN4@scalar
  00011	6a 04		 push	 4
  00013	56		 push	 esi
  00014	e8 00 00 00 00	 call	 ??3@YAXPAXI@Z		; operator delete
  00019	83 c4 08	 add	 esp, 8
$LN4@scalar:
  0001c	8b c6		 mov	 eax, esi
  0001e	5e		 pop	 esi
  0001f	5d		 pop	 ebp
  00020	c2 04 00	 ret	 4
??_GCKanturuUtil@@UAEPAXI@Z ENDP			; CKanturuUtil::`scalar deleting destructor'
_TEXT	ENDS
; Function compile flags: /Ogtp
; File c:\users\michel\desktop\source\gameserver\source\kanturuutil.cpp
;	COMDAT ?SendDataKanturuTimeAttackEvent@CKanturuUtil@@QAEXHEH@Z
_TEXT	SEGMENT
_pMsg$ = -76						; size = 56
_szKanturuBattleDate$ = -20				; size = 14
__$ArrayPad$ = -4					; size = 4
_iIndex$ = 8						; size = 4
_btFlag$ = 12						; size = 1
_iClearTime$ = 16					; size = 4
?SendDataKanturuTimeAttackEvent@CKanturuUtil@@QAEXHEH@Z PROC ; CKanturuUtil::SendDataKanturuTimeAttackEvent, COMDAT
; _this$ = ecx

; 410  : {

  00000	55		 push	 ebp
  00001	8b ec		 mov	 ebp, esp
  00003	83 ec 4c	 sub	 esp, 76			; 0000004cH
  00006	a1 00 00 00 00	 mov	 eax, DWORD PTR ___security_cookie
  0000b	33 c5		 xor	 eax, ebp
  0000d	89 45 fc	 mov	 DWORD PTR __$ArrayPad$[ebp], eax
  00010	53		 push	 ebx
  00011	56		 push	 esi
  00012	8b 75 08	 mov	 esi, DWORD PTR _iIndex$[ebp]
  00015	8d 45 b4	 lea	 eax, DWORD PTR _pMsg$[ebp]
  00018	6a 38		 push	 56			; 00000038H
  0001a	6a 00		 push	 0
  0001c	50		 push	 eax
  0001d	e8 00 00 00 00	 call	 _memset

; 411  : 	PMSG_REQ_LOG_KANTURU_TIMEATTACK_EVENT pMsg = {0};
; 412  : 
; 413  : 	PHeadSubSetB((LPBYTE)&pMsg, 0x22, 0x00, sizeof(pMsg));

  00022	6a 38		 push	 56			; 00000038H
  00024	6a 00		 push	 0
  00026	8d 45 b4	 lea	 eax, DWORD PTR _pMsg$[ebp]
  00029	6a 22		 push	 34			; 00000022H
  0002b	50		 push	 eax
  0002c	e8 00 00 00 00	 call	 ?PHeadSubSetB@@YAXPAEEEH@Z ; PHeadSubSetB

; 414  : 	pMsg.nINDEX = iIndex;
; 415  : 	memcpy(pMsg.szUID, gObj[iIndex].AccountID, MAX_ACCOUNT_LEN);

  00031	8b 0d 00 00 00
	00		 mov	 ecx, DWORD PTR ?gObj@@3PAUOBJECTSTRUCT@@A ; gObj
  00037	66 89 75 b8	 mov	 WORD PTR _pMsg$[ebp+4], si

; 416  : 	pMsg.szUID[10] = '\0';
; 417  : 	memcpy(pMsg.szNAME, gObj[iIndex].Name, MAX_ACCOUNT_LEN);
; 418  : 	pMsg.szNAME[10] = '\0';
; 419  : 	pMsg.wServerCode = gGameServerCode / 20;	// #warning Change the 20 for a posible macro of MapServerInfo
; 420  : 
; 421  : 	char szKanturuBattleDate[14];
; 422  : 	memset(szKanturuBattleDate, 0, sizeof(szKanturuBattleDate));
; 423  : 
; 424  : 	wsprintf(szKanturuBattleDate, "%d%03d%02d",

  0003b	ff 35 98 74 0a
	00		 push	 DWORD PTR ?g_Kanturu@@3VCKanturu@@A+685208
  00041	69 f6 40 27 00
	00		 imul	 esi, esi, 10048
  00047	03 ce		 add	 ecx, esi
  00049	f3 0f 7e 41 52	 movq	 xmm0, QWORD PTR [ecx+82]
  0004e	66 0f d6 45 ba	 movq	 QWORD PTR _pMsg$[ebp+6], xmm0
  00053	0f b7 41 5a	 movzx	 eax, WORD PTR [ecx+90]
  00057	66 89 45 c2	 mov	 WORD PTR _pMsg$[ebp+14], ax
  0005b	c6 45 c4 00	 mov	 BYTE PTR _pMsg$[ebp+16], 0
  0005f	f3 0f 7e 41 5d	 movq	 xmm0, QWORD PTR [ecx+93]
  00064	66 0f d6 45 c5	 movq	 QWORD PTR _pMsg$[ebp+17], xmm0
  00069	0f 57 c0	 xorps	 xmm0, xmm0
  0006c	0f b7 41 65	 movzx	 eax, WORD PTR [ecx+101]
  00070	0f bf 0d 00 00
	00 00		 movsx	 ecx, WORD PTR ?gGameServerCode@@3FA ; gGameServerCode
  00077	66 89 45 cd	 mov	 WORD PTR _pMsg$[ebp+25], ax
  0007b	b8 67 66 66 66	 mov	 eax, 1717986919		; 66666667H
  00080	f7 e9		 imul	 ecx
  00082	66 0f d6 45 ec	 movq	 QWORD PTR _szKanturuBattleDate$[ebp], xmm0
  00087	51		 push	 ecx
  00088	ff 35 9c 74 0a
	00		 push	 DWORD PTR ?g_Kanturu@@3VCKanturu@@A+685212
  0008e	c1 fa 03	 sar	 edx, 3
  00091	8b c2		 mov	 eax, edx
  00093	c6 45 cf 00	 mov	 BYTE PTR _pMsg$[ebp+27], 0
  00097	c1 e8 1f	 shr	 eax, 31			; 0000001fH
  0009a	03 c2		 add	 eax, edx
  0009c	c7 45 f4 00 00
	00 00		 mov	 DWORD PTR _szKanturuBattleDate$[ebp+8], 0
  000a3	66 89 45 d0	 mov	 WORD PTR _pMsg$[ebp+28], ax
  000a7	8d 45 ec	 lea	 eax, DWORD PTR _szKanturuBattleDate$[ebp]
  000aa	68 00 00 00 00	 push	 OFFSET ??_C@_0L@CDIOGIBG@?$CFd?$CF03d?$CF02d?$AA@
  000af	50		 push	 eax
  000b0	66 c7 45 f8 00
	00		 mov	 WORD PTR _szKanturuBattleDate$[ebp+12], 0
  000b6	ff 15 00 00 00
	00		 call	 DWORD PTR __imp__wsprintfA

; 425  : 		g_Kanturu.GetKanturuBattleDate(), gGameServerCode,
; 426  : 		g_Kanturu.GetKanturuBattleCounter());
; 427  : 	
; 428  : 	memcpy(pMsg.szBattleID, szKanturuBattleDate, sizeof(pMsg.szBattleID));

  000bc	8b 45 f4	 mov	 eax, DWORD PTR _szKanturuBattleDate$[ebp+8]
  000bf	f3 0f 7e 45 ec	 movq	 xmm0, QWORD PTR _szKanturuBattleDate$[ebp]

; 429  : 	pMsg.btStageNumber = btFlag;

  000c4	8a 5d 0c	 mov	 bl, BYTE PTR _btFlag$[ebp]

; 430  : 	pMsg.wClearTime = iClearTime;

  000c7	8b 55 10	 mov	 edx, DWORD PTR _iClearTime$[ebp]
  000ca	89 45 da	 mov	 DWORD PTR _pMsg$[ebp+38], eax
  000cd	0f b7 45 f8	 movzx	 eax, WORD PTR _szKanturuBattleDate$[ebp+12]
  000d1	66 89 45 de	 mov	 WORD PTR _pMsg$[ebp+42], ax

; 431  : 	pMsg.iLevel = gObj[iIndex].Level;

  000d5	a1 00 00 00 00	 mov	 eax, DWORD PTR ?gObj@@3PAUOBJECTSTRUCT@@A ; gObj
  000da	66 0f d6 45 d2	 movq	 QWORD PTR _pMsg$[ebp+30], xmm0
  000df	88 5d e0	 mov	 BYTE PTR _pMsg$[ebp+44], bl
  000e2	66 89 55 e2	 mov	 WORD PTR _pMsg$[ebp+46], dx
  000e6	0f bf 8c 06 96
	00 00 00	 movsx	 ecx, WORD PTR [esi+eax+150]
  000ee	89 4d e4	 mov	 DWORD PTR _pMsg$[ebp+48], ecx

; 432  : 	pMsg.iExp = gObj[iIndex].Experience;

  000f1	8b 84 06 a0 00
	00 00		 mov	 eax, DWORD PTR [esi+eax+160]

; 433  : 
; 434  : 	LogAddTD("[ KANTURU ][ TimeAttackEvent ] [%s][%s] %d/BattleID:%s, StageNum:%d, ClearTime:%d, Level:%d(%d)",

  000f8	50		 push	 eax
  000f9	89 45 e8	 mov	 DWORD PTR _pMsg$[ebp+52], eax
  000fc	51		 push	 ecx
  000fd	0f b7 c2	 movzx	 eax, dx
  00100	50		 push	 eax
  00101	0f b6 c3	 movzx	 eax, bl
  00104	50		 push	 eax
  00105	8d 45 d2	 lea	 eax, DWORD PTR _pMsg$[ebp+30]
  00108	50		 push	 eax
  00109	0f b7 45 d0	 movzx	 eax, WORD PTR _pMsg$[ebp+28]
  0010d	50		 push	 eax
  0010e	8d 45 c5	 lea	 eax, DWORD PTR _pMsg$[ebp+17]
  00111	50		 push	 eax
  00112	8d 45 ba	 lea	 eax, DWORD PTR _pMsg$[ebp+6]
  00115	50		 push	 eax
  00116	68 00 00 00 00	 push	 OFFSET ??_C@_0GA@FDPLLFEO@?$FL?5KANTURU?5?$FN?$FL?5TimeAttackEvent?5?$FN?5?$FL@
  0011b	ff 15 00 00 00
	00		 call	 DWORD PTR ?LogAddTD@@3P6AXPADZZA ; LogAddTD
  00121	83 c4 54	 add	 esp, 84			; 00000054H

; 435  : 		pMsg.szUID, pMsg.szNAME, pMsg.wServerCode, pMsg.szBattleID, pMsg.btStageNumber,
; 436  : 		pMsg.wClearTime, pMsg.iLevel, pMsg.iExp);
; 437  : 
; 438  : 	DataSendEventChip((PCHAR)&pMsg, sizeof(pMsg));

  00124	8d 45 b4	 lea	 eax, DWORD PTR _pMsg$[ebp]
  00127	6a 38		 push	 56			; 00000038H
  00129	50		 push	 eax
  0012a	e8 00 00 00 00	 call	 ?DataSendEventChip@@YAXPADH@Z ; DataSendEventChip

; 439  : }

  0012f	8b 4d fc	 mov	 ecx, DWORD PTR __$ArrayPad$[ebp]
  00132	83 c4 08	 add	 esp, 8
  00135	33 cd		 xor	 ecx, ebp
  00137	5e		 pop	 esi
  00138	5b		 pop	 ebx
  00139	e8 00 00 00 00	 call	 @__security_check_cookie@4
  0013e	8b e5		 mov	 esp, ebp
  00140	5d		 pop	 ebp
  00141	c2 0c 00	 ret	 12			; 0000000cH
?SendDataKanturuTimeAttackEvent@CKanturuUtil@@QAEXHEH@Z ENDP ; CKanturuUtil::SendDataKanturuTimeAttackEvent
_TEXT	ENDS
; Function compile flags: /Ogtp
; File c:\users\michel\desktop\source\gameserver\source\kanturuutil.cpp
;	COMDAT ?SendKanturuChattingMsg@CKanturuUtil@@QAAXHPADZZ
_TEXT	SEGMENT
_this$ = 8						; size = 4
_iIndex$ = 12						; size = 4
_lpMsg$ = 16						; size = 4
?SendKanturuChattingMsg@CKanturuUtil@@QAAXHPADZZ PROC	; CKanturuUtil::SendKanturuChattingMsg, COMDAT

; 373  : 	return;
; 374  : 	LPOBJ lpObj;
; 375  : 	char szChat[512];
; 376  : 
; 377  : 	for ( int iCount=0;iCount<MAX_VIEWPORT_MONSTER;iCount++)
; 378  : 	{
; 379  : 		if ( lpObj->VpPlayer2[iCount].state )
; 380  : 		{
; 381  : 			int number = lpObj->VpPlayer2[iCount].number;
; 382  : 
; 383  : 			if ( number >= 0 || number < OBJMAX )
; 384  : 			{
; 385  : 				ChatTargetSend(lpObj, szChat, number);
; 386  : 			}
; 387  : 		}
; 388  : 	}
; 389  : }

  00000	c3		 ret	 0
?SendKanturuChattingMsg@CKanturuUtil@@QAAXHPADZZ ENDP	; CKanturuUtil::SendKanturuChattingMsg
_TEXT	ENDS
; Function compile flags: /Ogtp
; File c:\users\michel\desktop\source\gameserver\source\kanturuutil.cpp
;	COMDAT ?SendDataToUser@CKanturuUtil@@QAEXHPAEH@Z
_TEXT	SEGMENT
_iIndex$ = 8						; size = 4
_lpMsg$ = 12						; size = 4
_iSize$ = 16						; size = 4
?SendDataToUser@CKanturuUtil@@QAEXHPAEH@Z PROC		; CKanturuUtil::SendDataToUser, COMDAT
; _this$ = ecx

; 361  : {

  00000	55		 push	 ebp
  00001	8b ec		 mov	 ebp, esp

; 362  : 	if ( gObj[iIndex].Connected == PLAYER_PLAYING &&

  00003	8b 55 08	 mov	 edx, DWORD PTR _iIndex$[ebp]
  00006	a1 00 00 00 00	 mov	 eax, DWORD PTR ?gObj@@3PAUOBJECTSTRUCT@@A ; gObj
  0000b	69 ca 40 27 00
	00		 imul	 ecx, edx, 10048
  00011	83 7c 01 04 03	 cmp	 DWORD PTR [ecx+eax+4], 3
  00016	75 16		 jne	 SHORT $LN2@SendDataTo
  00018	80 7c 01 50 01	 cmp	 BYTE PTR [ecx+eax+80], 1
  0001d	75 0f		 jne	 SHORT $LN2@SendDataTo

; 363  : 		 gObj[iIndex].Type == OBJ_USER )
; 364  : 	{
; 365  : 		DataSend(iIndex, lpMsg, iSize);

  0001f	ff 75 10	 push	 DWORD PTR _iSize$[ebp]
  00022	ff 75 0c	 push	 DWORD PTR _lpMsg$[ebp]
  00025	52		 push	 edx
  00026	e8 00 00 00 00	 call	 ?DataSend@@YAHHPAEK@Z	; DataSend
  0002b	83 c4 0c	 add	 esp, 12			; 0000000cH
$LN2@SendDataTo:

; 366  : 	}
; 367  : }

  0002e	5d		 pop	 ebp
  0002f	c2 0c 00	 ret	 12			; 0000000cH
?SendDataToUser@CKanturuUtil@@QAEXHPAEH@Z ENDP		; CKanturuUtil::SendDataToUser
_TEXT	ENDS
; Function compile flags: /Ogtp
; File c:\users\michel\desktop\source\gameserver\source\kanturuutil.cpp
; File c:\program files (x86)\windows kits\10\include\10.0.10240.0\ucrt\stdio.h
; File c:\users\michel\desktop\source\gameserver\source\kanturuutil.cpp
;	COMDAT ?SendMsgToUser@CKanturuUtil@@QAAXHPADZZ
_TEXT	SEGMENT
_pNotice$ = -788					; size = 272
_szBuffer$ = -516					; size = 512
__$ArrayPad$ = -4					; size = 4
_this$ = 8						; size = 4
_iIndex$ = 12						; size = 4
_lpszMsg$ = 16						; size = 4
?SendMsgToUser@CKanturuUtil@@QAAXHPADZZ PROC		; CKanturuUtil::SendMsgToUser, COMDAT

; 342  : {

  00000	55		 push	 ebp
  00001	8b ec		 mov	 ebp, esp
  00003	81 ec 14 03 00
	00		 sub	 esp, 788		; 00000314H
  00009	a1 00 00 00 00	 mov	 eax, DWORD PTR ___security_cookie
  0000e	33 c5		 xor	 eax, ebp
  00010	89 45 fc	 mov	 DWORD PTR __$ArrayPad$[ebp], eax

; 343  : 	if ( !lpszMsg )

  00013	83 7d 10 00	 cmp	 DWORD PTR _lpszMsg$[ebp], 0
  00017	74 62		 je	 SHORT $LN1@SendMsgToU
  00019	68 00 02 00 00	 push	 512			; 00000200H
  0001e	8d 85 fc fd ff
	ff		 lea	 eax, DWORD PTR _szBuffer$[ebp]
  00024	6a 00		 push	 0
  00026	50		 push	 eax
  00027	e8 00 00 00 00	 call	 _memset
  0002c	83 c4 0c	 add	 esp, 12			; 0000000cH
; File c:\program files (x86)\windows kits\10\include\10.0.10240.0\ucrt\stdio.h

; 1386 :     int const _Result = __stdio_common_vsprintf(

  0002f	8d 45 14	 lea	 eax, DWORD PTR _lpszMsg$[ebp+4]
  00032	50		 push	 eax
  00033	6a 00		 push	 0
  00035	ff 75 10	 push	 DWORD PTR _lpszMsg$[ebp]
  00038	8d 85 fc fd ff
	ff		 lea	 eax, DWORD PTR _szBuffer$[ebp]
  0003e	6a ff		 push	 -1
  00040	50		 push	 eax
  00041	e8 00 00 00 00	 call	 ___local_stdio_printf_options
  00046	8b 08		 mov	 ecx, DWORD PTR [eax]
  00048	ff 70 04	 push	 DWORD PTR [eax+4]
  0004b	83 c9 01	 or	 ecx, 1
  0004e	51		 push	 ecx
  0004f	e8 00 00 00 00	 call	 ___stdio_common_vsprintf
; File c:\users\michel\desktop\source\gameserver\source\kanturuutil.cpp

; 354  : 	TNotice::MakeNoticeMsg(&pNotice, 0, szBuffer);

  00054	8d 85 fc fd ff
	ff		 lea	 eax, DWORD PTR _szBuffer$[ebp]
  0005a	50		 push	 eax
  0005b	8d 85 ec fc ff
	ff		 lea	 eax, DWORD PTR _pNotice$[ebp]
  00061	6a 00		 push	 0
  00063	50		 push	 eax
  00064	e8 00 00 00 00	 call	 ?MakeNoticeMsg@TNotice@@SAXPAXEPAD@Z ; TNotice::MakeNoticeMsg

; 355  : 	
; 356  : 	TNotice::SendNoticeToUser(iIndex, &pNotice);

  00069	8d 85 ec fc ff
	ff		 lea	 eax, DWORD PTR _pNotice$[ebp]
  0006f	50		 push	 eax
  00070	ff 75 0c	 push	 DWORD PTR _iIndex$[ebp]
  00073	e8 00 00 00 00	 call	 ?SendNoticeToUser@TNotice@@SAXHPAX@Z ; TNotice::SendNoticeToUser
  00078	83 c4 30	 add	 esp, 48			; 00000030H
$LN1@SendMsgToU:

; 357  : }

  0007b	8b 4d fc	 mov	 ecx, DWORD PTR __$ArrayPad$[ebp]
  0007e	33 cd		 xor	 ecx, ebp
  00080	e8 00 00 00 00	 call	 @__security_check_cookie@4
  00085	8b e5		 mov	 esp, ebp
  00087	5d		 pop	 ebp
  00088	c3		 ret	 0
?SendMsgToUser@CKanturuUtil@@QAAXHPADZZ ENDP		; CKanturuUtil::SendMsgToUser
_TEXT	ENDS
; Function compile flags: /Ogtp
; File c:\users\michel\desktop\source\gameserver\source\kanturuutil.cpp
;	COMDAT ?SendDataAllUser@CKanturuUtil@@QAEXPAEH@Z
_TEXT	SEGMENT
_lpMsg$ = 8						; size = 4
_iSize$ = 12						; size = 4
?SendDataAllUser@CKanturuUtil@@QAEXPAEH@Z PROC		; CKanturuUtil::SendDataAllUser, COMDAT
; _this$ = ecx

; 329  : {

  00000	55		 push	 ebp
  00001	8b ec		 mov	 ebp, esp
  00003	53		 push	 ebx

; 330  : 	for ( int iCount=OBJ_STARTUSERINDEX;iCount<OBJMAX;iCount++)

  00004	8b 5d 0c	 mov	 ebx, DWORD PTR _iSize$[ebp]
  00007	56		 push	 esi
  00008	57		 push	 edi
  00009	bf 04 29 00 00	 mov	 edi, 10500		; 00002904H
  0000e	be 00 dd 49 06	 mov	 esi, 105504000		; 0649dd00H
$LL4@SendDataAl:

; 331  : 	{
; 332  : 		if ( gObj[iCount].Connected == PLAYER_PLAYING &&

  00013	a1 00 00 00 00	 mov	 eax, DWORD PTR ?gObj@@3PAUOBJECTSTRUCT@@A ; gObj
  00018	83 7c 06 04 03	 cmp	 DWORD PTR [esi+eax+4], 3
  0001d	75 14		 jne	 SHORT $LN2@SendDataAl
  0001f	80 7c 06 50 01	 cmp	 BYTE PTR [esi+eax+80], 1
  00024	75 0d		 jne	 SHORT $LN2@SendDataAl

; 333  : 			 gObj[iCount].Type == OBJ_USER )
; 334  : 		{
; 335  : 			DataSend(iCount, lpMsg, iSize);

  00026	53		 push	 ebx
  00027	ff 75 08	 push	 DWORD PTR _lpMsg$[ebp]
  0002a	57		 push	 edi
  0002b	e8 00 00 00 00	 call	 ?DataSend@@YAHHPAEK@Z	; DataSend
  00030	83 c4 0c	 add	 esp, 12			; 0000000cH
$LN2@SendDataAl:

; 330  : 	for ( int iCount=OBJ_STARTUSERINDEX;iCount<OBJMAX;iCount++)

  00033	81 c6 40 27 00
	00		 add	 esi, 10048		; 00002740H
  00039	47		 inc	 edi
  0003a	81 fe 00 2f e3
	06		 cmp	 esi, 115552000		; 06e32f00H
  00040	7c d1		 jl	 SHORT $LL4@SendDataAl
  00042	5f		 pop	 edi
  00043	5e		 pop	 esi
  00044	5b		 pop	 ebx

; 336  : 		}
; 337  : 	}
; 338  : }

  00045	5d		 pop	 ebp
  00046	c2 08 00	 ret	 8
?SendDataAllUser@CKanturuUtil@@QAEXPAEH@Z ENDP		; CKanturuUtil::SendDataAllUser
_TEXT	ENDS
; Function compile flags: /Ogtp
; File c:\users\michel\desktop\source\gameserver\source\kanturuutil.cpp
; File c:\program files (x86)\windows kits\10\include\10.0.10240.0\ucrt\stdio.h
; File c:\users\michel\desktop\source\gameserver\source\kanturuutil.cpp
;	COMDAT ?SendMsgAllUser@CKanturuUtil@@QAAXPADZZ
_TEXT	SEGMENT
_pNotice$ = -788					; size = 272
_szBuffer$ = -516					; size = 512
__$ArrayPad$ = -4					; size = 4
_this$ = 8						; size = 4
_lpszMsg$ = 12						; size = 4
?SendMsgAllUser@CKanturuUtil@@QAAXPADZZ PROC		; CKanturuUtil::SendMsgAllUser, COMDAT

; 308  : {

  00000	55		 push	 ebp
  00001	8b ec		 mov	 ebp, esp
  00003	81 ec 14 03 00
	00		 sub	 esp, 788		; 00000314H
  00009	a1 00 00 00 00	 mov	 eax, DWORD PTR ___security_cookie
  0000e	33 c5		 xor	 eax, ebp
  00010	89 45 fc	 mov	 DWORD PTR __$ArrayPad$[ebp], eax

; 309  : 	if ( !lpszMsg )

  00013	83 7d 0c 00	 cmp	 DWORD PTR _lpszMsg$[ebp], 0
  00017	74 5f		 je	 SHORT $LN1@SendMsgAll
  00019	68 00 02 00 00	 push	 512			; 00000200H
  0001e	8d 85 fc fd ff
	ff		 lea	 eax, DWORD PTR _szBuffer$[ebp]
  00024	6a 00		 push	 0
  00026	50		 push	 eax
  00027	e8 00 00 00 00	 call	 _memset
  0002c	83 c4 0c	 add	 esp, 12			; 0000000cH
; File c:\program files (x86)\windows kits\10\include\10.0.10240.0\ucrt\stdio.h

; 1386 :     int const _Result = __stdio_common_vsprintf(

  0002f	8d 45 10	 lea	 eax, DWORD PTR _lpszMsg$[ebp+4]
  00032	50		 push	 eax
  00033	6a 00		 push	 0
  00035	ff 75 0c	 push	 DWORD PTR _lpszMsg$[ebp]
  00038	8d 85 fc fd ff
	ff		 lea	 eax, DWORD PTR _szBuffer$[ebp]
  0003e	6a ff		 push	 -1
  00040	50		 push	 eax
  00041	e8 00 00 00 00	 call	 ___local_stdio_printf_options
  00046	8b 08		 mov	 ecx, DWORD PTR [eax]
  00048	ff 70 04	 push	 DWORD PTR [eax+4]
  0004b	83 c9 01	 or	 ecx, 1
  0004e	51		 push	 ecx
  0004f	e8 00 00 00 00	 call	 ___stdio_common_vsprintf
; File c:\users\michel\desktop\source\gameserver\source\kanturuutil.cpp

; 320  : 	TNotice::MakeNoticeMsg(&pNotice, 0, szBuffer);

  00054	8d 85 fc fd ff
	ff		 lea	 eax, DWORD PTR _szBuffer$[ebp]
  0005a	50		 push	 eax
  0005b	8d 85 ec fc ff
	ff		 lea	 eax, DWORD PTR _pNotice$[ebp]
  00061	6a 00		 push	 0
  00063	50		 push	 eax
  00064	e8 00 00 00 00	 call	 ?MakeNoticeMsg@TNotice@@SAXPAXEPAD@Z ; TNotice::MakeNoticeMsg

; 321  : 	
; 322  : 	TNotice::SendNoticeToAllUser(&pNotice);

  00069	8d 85 ec fc ff
	ff		 lea	 eax, DWORD PTR _pNotice$[ebp]
  0006f	50		 push	 eax
  00070	e8 00 00 00 00	 call	 ?SendNoticeToAllUser@TNotice@@SAXPAX@Z ; TNotice::SendNoticeToAllUser
  00075	83 c4 2c	 add	 esp, 44			; 0000002cH
$LN1@SendMsgAll:

; 323  : }

  00078	8b 4d fc	 mov	 ecx, DWORD PTR __$ArrayPad$[ebp]
  0007b	33 cd		 xor	 ecx, ebp
  0007d	e8 00 00 00 00	 call	 @__security_check_cookie@4
  00082	8b e5		 mov	 esp, ebp
  00084	5d		 pop	 ebp
  00085	c3		 ret	 0
?SendMsgAllUser@CKanturuUtil@@QAAXPADZZ ENDP		; CKanturuUtil::SendMsgAllUser
_TEXT	ENDS
; Function compile flags: /Ogtp
; File c:\users\michel\desktop\source\gameserver\source\kanturuutil.cpp
;	COMDAT ?SendDataKanturuMapUser@CKanturuUtil@@QAEXPAEH@Z
_TEXT	SEGMENT
_lpMsg$ = 8						; size = 4
_iSize$ = 12						; size = 4
?SendDataKanturuMapUser@CKanturuUtil@@QAEXPAEH@Z PROC	; CKanturuUtil::SendDataKanturuMapUser, COMDAT
; _this$ = ecx

; 291  : {

  00000	55		 push	 ebp
  00001	8b ec		 mov	 ebp, esp
  00003	53		 push	 ebx

; 292  : 	for ( int iCount=OBJ_STARTUSERINDEX;iCount<OBJMAX;iCount++)

  00004	8b 5d 0c	 mov	 ebx, DWORD PTR _iSize$[ebp]
  00007	56		 push	 esi
  00008	57		 push	 edi
  00009	bf 04 29 00 00	 mov	 edi, 10500		; 00002904H
  0000e	be 00 dd 49 06	 mov	 esi, 105504000		; 0649dd00H
$LL4@SendDataKa:

; 293  : 	{
; 294  : 		if ( gObj[iCount].Connected == PLAYER_PLAYING &&
; 295  : 			 gObj[iCount].Type == OBJ_USER &&

  00013	a1 00 00 00 00	 mov	 eax, DWORD PTR ?gObj@@3PAUOBJECTSTRUCT@@A ; gObj
  00018	83 7c 06 04 03	 cmp	 DWORD PTR [esi+eax+4], 3
  0001d	75 27		 jne	 SHORT $LN2@SendDataKa
  0001f	80 7c 06 50 01	 cmp	 BYTE PTR [esi+eax+80], 1
  00024	75 20		 jne	 SHORT $LN2@SendDataKa
  00026	8a 84 06 23 01
	00 00		 mov	 al, BYTE PTR [esi+eax+291]
  0002d	3c 25		 cmp	 al, 37			; 00000025H
  0002f	74 08		 je	 SHORT $LN6@SendDataKa
  00031	3c 26		 cmp	 al, 38			; 00000026H
  00033	74 04		 je	 SHORT $LN6@SendDataKa
  00035	3c 27		 cmp	 al, 39			; 00000027H
  00037	75 0d		 jne	 SHORT $LN2@SendDataKa
$LN6@SendDataKa:

; 296  : 			 ( gObj[iCount].MapNumber == MAP_INDEX_KANTURU1 ||
; 297  : 			 gObj[iCount].MapNumber == MAP_INDEX_KANTURU2 ||
; 298  : 			 gObj[iCount].MapNumber == MAP_INDEX_KANTURU_BOSS ) )
; 299  : 		{
; 300  : 			DataSend(iCount, lpMsg, iSize);

  00039	53		 push	 ebx
  0003a	ff 75 08	 push	 DWORD PTR _lpMsg$[ebp]
  0003d	57		 push	 edi
  0003e	e8 00 00 00 00	 call	 ?DataSend@@YAHHPAEK@Z	; DataSend
  00043	83 c4 0c	 add	 esp, 12			; 0000000cH
$LN2@SendDataKa:

; 292  : 	for ( int iCount=OBJ_STARTUSERINDEX;iCount<OBJMAX;iCount++)

  00046	81 c6 40 27 00
	00		 add	 esi, 10048		; 00002740H
  0004c	47		 inc	 edi
  0004d	81 fe 00 2f e3
	06		 cmp	 esi, 115552000		; 06e32f00H
  00053	7c be		 jl	 SHORT $LL4@SendDataKa
  00055	5f		 pop	 edi
  00056	5e		 pop	 esi
  00057	5b		 pop	 ebx

; 301  : 		}
; 302  : 	}
; 303  : }

  00058	5d		 pop	 ebp
  00059	c2 08 00	 ret	 8
?SendDataKanturuMapUser@CKanturuUtil@@QAEXPAEH@Z ENDP	; CKanturuUtil::SendDataKanturuMapUser
_TEXT	ENDS
; Function compile flags: /Ogtp
; File c:\users\michel\desktop\source\gameserver\source\kanturuutil.cpp
; File c:\program files (x86)\windows kits\10\include\10.0.10240.0\ucrt\stdio.h
; File c:\users\michel\desktop\source\gameserver\source\kanturuutil.cpp
;	COMDAT ?SendMsgKauturuMapUser@CKanturuUtil@@QAAXPADZZ
_TEXT	SEGMENT
_pNotice$ = -788					; size = 272
_szBuffer$ = -516					; size = 512
__$ArrayPad$ = -4					; size = 4
_this$ = 8						; size = 4
_lpszMsg$ = 12						; size = 4
?SendMsgKauturuMapUser@CKanturuUtil@@QAAXPADZZ PROC	; CKanturuUtil::SendMsgKauturuMapUser, COMDAT

; 262  : {

  00000	55		 push	 ebp
  00001	8b ec		 mov	 ebp, esp
  00003	81 ec 14 03 00
	00		 sub	 esp, 788		; 00000314H
  00009	a1 00 00 00 00	 mov	 eax, DWORD PTR ___security_cookie
  0000e	33 c5		 xor	 eax, ebp
  00010	89 45 fc	 mov	 DWORD PTR __$ArrayPad$[ebp], eax
  00013	56		 push	 esi

; 263  : 	if ( !lpszMsg )

  00014	8b 75 0c	 mov	 esi, DWORD PTR _lpszMsg$[ebp]
  00017	85 f6		 test	 esi, esi
  00019	0f 84 a7 00 00
	00		 je	 $LN3@SendMsgKau
  0001f	57		 push	 edi
  00020	68 00 02 00 00	 push	 512			; 00000200H
  00025	8d 85 fc fd ff
	ff		 lea	 eax, DWORD PTR _szBuffer$[ebp]
  0002b	6a 00		 push	 0
  0002d	50		 push	 eax
  0002e	e8 00 00 00 00	 call	 _memset
  00033	83 c4 0c	 add	 esp, 12			; 0000000cH
; File c:\program files (x86)\windows kits\10\include\10.0.10240.0\ucrt\stdio.h

; 1386 :     int const _Result = __stdio_common_vsprintf(

  00036	8d 45 10	 lea	 eax, DWORD PTR _lpszMsg$[ebp+4]
  00039	50		 push	 eax
  0003a	6a 00		 push	 0
  0003c	56		 push	 esi
  0003d	8d 85 fc fd ff
	ff		 lea	 eax, DWORD PTR _szBuffer$[ebp]
  00043	6a ff		 push	 -1
  00045	50		 push	 eax
  00046	e8 00 00 00 00	 call	 ___local_stdio_printf_options
  0004b	8b 08		 mov	 ecx, DWORD PTR [eax]
  0004d	ff 70 04	 push	 DWORD PTR [eax+4]
  00050	83 c9 01	 or	 ecx, 1
  00053	51		 push	 ecx
  00054	e8 00 00 00 00	 call	 ___stdio_common_vsprintf
; File c:\users\michel\desktop\source\gameserver\source\kanturuutil.cpp

; 274  : 	TNotice::MakeNoticeMsg(&pNotice, 0, szBuffer);

  00059	8d 85 fc fd ff
	ff		 lea	 eax, DWORD PTR _szBuffer$[ebp]
  0005f	50		 push	 eax
  00060	8d 85 ec fc ff
	ff		 lea	 eax, DWORD PTR _pNotice$[ebp]
  00066	6a 00		 push	 0
  00068	50		 push	 eax
  00069	e8 00 00 00 00	 call	 ?MakeNoticeMsg@TNotice@@SAXPAXEPAD@Z ; TNotice::MakeNoticeMsg
  0006e	83 c4 28	 add	 esp, 40			; 00000028H

; 275  : 
; 276  : 	for ( int iCount=OBJ_STARTUSERINDEX;iCount<OBJMAX;iCount++)

  00071	bf 04 29 00 00	 mov	 edi, 10500		; 00002904H
  00076	be 00 dd 49 06	 mov	 esi, 105504000		; 0649dd00H
  0007b	0f 1f 44 00 00	 npad	 5
$LL4@SendMsgKau:

; 277  : 	{
; 278  : 		if ( gObj[iCount].Connected == PLAYER_PLAYING &&
; 279  : 			 gObj[iCount].Type == OBJ_USER &&

  00080	a1 00 00 00 00	 mov	 eax, DWORD PTR ?gObj@@3PAUOBJECTSTRUCT@@A ; gObj
  00085	83 7c 06 04 03	 cmp	 DWORD PTR [esi+eax+4], 3
  0008a	75 2a		 jne	 SHORT $LN2@SendMsgKau
  0008c	80 7c 06 50 01	 cmp	 BYTE PTR [esi+eax+80], 1
  00091	75 23		 jne	 SHORT $LN2@SendMsgKau
  00093	8a 84 06 23 01
	00 00		 mov	 al, BYTE PTR [esi+eax+291]
  0009a	3c 25		 cmp	 al, 37			; 00000025H
  0009c	74 08		 je	 SHORT $LN7@SendMsgKau
  0009e	3c 26		 cmp	 al, 38			; 00000026H
  000a0	74 04		 je	 SHORT $LN7@SendMsgKau
  000a2	3c 27		 cmp	 al, 39			; 00000027H
  000a4	75 10		 jne	 SHORT $LN2@SendMsgKau
$LN7@SendMsgKau:

; 280  : 			 ( gObj[iCount].MapNumber == MAP_INDEX_KANTURU1 ||
; 281  : 			 gObj[iCount].MapNumber == MAP_INDEX_KANTURU2 ||
; 282  : 			 gObj[iCount].MapNumber == MAP_INDEX_KANTURU_BOSS ) )
; 283  : 		{
; 284  : 			TNotice::SendNoticeToUser(iCount, &pNotice);

  000a6	8d 85 ec fc ff
	ff		 lea	 eax, DWORD PTR _pNotice$[ebp]
  000ac	50		 push	 eax
  000ad	57		 push	 edi
  000ae	e8 00 00 00 00	 call	 ?SendNoticeToUser@TNotice@@SAXHPAX@Z ; TNotice::SendNoticeToUser
  000b3	83 c4 08	 add	 esp, 8
$LN2@SendMsgKau:

; 275  : 
; 276  : 	for ( int iCount=OBJ_STARTUSERINDEX;iCount<OBJMAX;iCount++)

  000b6	81 c6 40 27 00
	00		 add	 esi, 10048		; 00002740H
  000bc	47		 inc	 edi
  000bd	81 fe 00 2f e3
	06		 cmp	 esi, 115552000		; 06e32f00H
  000c3	7c bb		 jl	 SHORT $LL4@SendMsgKau
  000c5	5f		 pop	 edi
$LN3@SendMsgKau:

; 285  : 		}
; 286  : 	}
; 287  : }

  000c6	8b 4d fc	 mov	 ecx, DWORD PTR __$ArrayPad$[ebp]
  000c9	33 cd		 xor	 ecx, ebp
  000cb	5e		 pop	 esi
  000cc	e8 00 00 00 00	 call	 @__security_check_cookie@4
  000d1	8b e5		 mov	 esp, ebp
  000d3	5d		 pop	 ebp
  000d4	c3		 ret	 0
?SendMsgKauturuMapUser@CKanturuUtil@@QAAXPADZZ ENDP	; CKanturuUtil::SendMsgKauturuMapUser
_TEXT	ENDS
; Function compile flags: /Ogtp
; File c:\users\michel\desktop\source\gameserver\source\kanturuutil.cpp
;	COMDAT ?SendDataKanturuBossMapUser@CKanturuUtil@@QAEXPAEH@Z
_TEXT	SEGMENT
_lpMsg$ = 8						; size = 4
_iSize$ = 12						; size = 4
?SendDataKanturuBossMapUser@CKanturuUtil@@QAEXPAEH@Z PROC ; CKanturuUtil::SendDataKanturuBossMapUser, COMDAT
; _this$ = ecx

; 247  : {

  00000	55		 push	 ebp
  00001	8b ec		 mov	 ebp, esp
  00003	53		 push	 ebx

; 248  : 	for ( int iCount=OBJ_STARTUSERINDEX;iCount<OBJMAX;iCount++)

  00004	8b 5d 0c	 mov	 ebx, DWORD PTR _iSize$[ebp]
  00007	56		 push	 esi
  00008	57		 push	 edi
  00009	bf 04 29 00 00	 mov	 edi, 10500		; 00002904H
  0000e	be 00 dd 49 06	 mov	 esi, 105504000		; 0649dd00H
$LL4@SendDataKa:

; 249  : 	{
; 250  : 		if ( gObj[iCount].Connected == PLAYER_PLAYING &&
; 251  : 			 gObj[iCount].Type == OBJ_USER &&

  00013	a1 00 00 00 00	 mov	 eax, DWORD PTR ?gObj@@3PAUOBJECTSTRUCT@@A ; gObj
  00018	83 7c 06 04 03	 cmp	 DWORD PTR [esi+eax+4], 3
  0001d	75 1e		 jne	 SHORT $LN2@SendDataKa
  0001f	80 7c 06 50 01	 cmp	 BYTE PTR [esi+eax+80], 1
  00024	75 17		 jne	 SHORT $LN2@SendDataKa
  00026	80 bc 06 23 01
	00 00 27	 cmp	 BYTE PTR [esi+eax+291], 39 ; 00000027H
  0002e	75 0d		 jne	 SHORT $LN2@SendDataKa

; 252  : 			 gObj[iCount].MapNumber == MAP_INDEX_KANTURU_BOSS)
; 253  : 		{
; 254  : 			DataSend(iCount, lpMsg, iSize);

  00030	53		 push	 ebx
  00031	ff 75 08	 push	 DWORD PTR _lpMsg$[ebp]
  00034	57		 push	 edi
  00035	e8 00 00 00 00	 call	 ?DataSend@@YAHHPAEK@Z	; DataSend
  0003a	83 c4 0c	 add	 esp, 12			; 0000000cH
$LN2@SendDataKa:

; 248  : 	for ( int iCount=OBJ_STARTUSERINDEX;iCount<OBJMAX;iCount++)

  0003d	81 c6 40 27 00
	00		 add	 esi, 10048		; 00002740H
  00043	47		 inc	 edi
  00044	81 fe 00 2f e3
	06		 cmp	 esi, 115552000		; 06e32f00H
  0004a	7c c7		 jl	 SHORT $LL4@SendDataKa
  0004c	5f		 pop	 edi
  0004d	5e		 pop	 esi
  0004e	5b		 pop	 ebx

; 255  : 		}
; 256  : 	}
; 257  : }

  0004f	5d		 pop	 ebp
  00050	c2 08 00	 ret	 8
?SendDataKanturuBossMapUser@CKanturuUtil@@QAEXPAEH@Z ENDP ; CKanturuUtil::SendDataKanturuBossMapUser
_TEXT	ENDS
; Function compile flags: /Ogtp
; File c:\users\michel\desktop\source\gameserver\source\kanturuutil.cpp
; File c:\program files (x86)\windows kits\10\include\10.0.10240.0\ucrt\stdio.h
; File c:\users\michel\desktop\source\gameserver\source\kanturuutil.cpp
;	COMDAT ?SendMsgKauturuBossMapUser@CKanturuUtil@@QAAXPADZZ
_TEXT	SEGMENT
_pNotice$ = -788					; size = 272
_szBuffer$ = -516					; size = 512
__$ArrayPad$ = -4					; size = 4
_this$ = 8						; size = 4
_lpszMsg$ = 12						; size = 4
?SendMsgKauturuBossMapUser@CKanturuUtil@@QAAXPADZZ PROC	; CKanturuUtil::SendMsgKauturuBossMapUser, COMDAT

; 219  : {

  00000	55		 push	 ebp
  00001	8b ec		 mov	 ebp, esp
  00003	81 ec 14 03 00
	00		 sub	 esp, 788		; 00000314H
  00009	a1 00 00 00 00	 mov	 eax, DWORD PTR ___security_cookie
  0000e	33 c5		 xor	 eax, ebp
  00010	89 45 fc	 mov	 DWORD PTR __$ArrayPad$[ebp], eax
  00013	56		 push	 esi

; 220  : 	if ( !lpszMsg )

  00014	8b 75 0c	 mov	 esi, DWORD PTR _lpszMsg$[ebp]
  00017	85 f6		 test	 esi, esi
  00019	0f 84 9e 00 00
	00		 je	 $LN3@SendMsgKau
  0001f	57		 push	 edi
  00020	68 00 02 00 00	 push	 512			; 00000200H
  00025	8d 85 fc fd ff
	ff		 lea	 eax, DWORD PTR _szBuffer$[ebp]
  0002b	6a 00		 push	 0
  0002d	50		 push	 eax
  0002e	e8 00 00 00 00	 call	 _memset
  00033	83 c4 0c	 add	 esp, 12			; 0000000cH
; File c:\program files (x86)\windows kits\10\include\10.0.10240.0\ucrt\stdio.h

; 1386 :     int const _Result = __stdio_common_vsprintf(

  00036	8d 45 10	 lea	 eax, DWORD PTR _lpszMsg$[ebp+4]
  00039	50		 push	 eax
  0003a	6a 00		 push	 0
  0003c	56		 push	 esi
  0003d	8d 85 fc fd ff
	ff		 lea	 eax, DWORD PTR _szBuffer$[ebp]
  00043	6a ff		 push	 -1
  00045	50		 push	 eax
  00046	e8 00 00 00 00	 call	 ___local_stdio_printf_options
  0004b	8b 08		 mov	 ecx, DWORD PTR [eax]
  0004d	ff 70 04	 push	 DWORD PTR [eax+4]
  00050	83 c9 01	 or	 ecx, 1
  00053	51		 push	 ecx
  00054	e8 00 00 00 00	 call	 ___stdio_common_vsprintf
; File c:\users\michel\desktop\source\gameserver\source\kanturuutil.cpp

; 231  : 	TNotice::MakeNoticeMsg(&pNotice, 0, szBuffer);

  00059	8d 85 fc fd ff
	ff		 lea	 eax, DWORD PTR _szBuffer$[ebp]
  0005f	50		 push	 eax
  00060	8d 85 ec fc ff
	ff		 lea	 eax, DWORD PTR _pNotice$[ebp]
  00066	6a 00		 push	 0
  00068	50		 push	 eax
  00069	e8 00 00 00 00	 call	 ?MakeNoticeMsg@TNotice@@SAXPAXEPAD@Z ; TNotice::MakeNoticeMsg
  0006e	83 c4 28	 add	 esp, 40			; 00000028H

; 232  : 
; 233  : 	for ( int iCount=OBJ_STARTUSERINDEX;iCount<OBJMAX;iCount++)

  00071	bf 04 29 00 00	 mov	 edi, 10500		; 00002904H
  00076	be 00 dd 49 06	 mov	 esi, 105504000		; 0649dd00H
  0007b	0f 1f 44 00 00	 npad	 5
$LL4@SendMsgKau:

; 234  : 	{
; 235  : 		if ( gObj[iCount].Connected == PLAYER_PLAYING &&
; 236  : 			 gObj[iCount].Type == OBJ_USER &&

  00080	a1 00 00 00 00	 mov	 eax, DWORD PTR ?gObj@@3PAUOBJECTSTRUCT@@A ; gObj
  00085	83 7c 06 04 03	 cmp	 DWORD PTR [esi+eax+4], 3
  0008a	75 21		 jne	 SHORT $LN2@SendMsgKau
  0008c	80 7c 06 50 01	 cmp	 BYTE PTR [esi+eax+80], 1
  00091	75 1a		 jne	 SHORT $LN2@SendMsgKau
  00093	80 bc 06 23 01
	00 00 27	 cmp	 BYTE PTR [esi+eax+291], 39 ; 00000027H
  0009b	75 10		 jne	 SHORT $LN2@SendMsgKau

; 237  : 			 gObj[iCount].MapNumber == MAP_INDEX_KANTURU_BOSS)
; 238  : 		{
; 239  : 			TNotice::SendNoticeToUser(iCount, &pNotice);

  0009d	8d 85 ec fc ff
	ff		 lea	 eax, DWORD PTR _pNotice$[ebp]
  000a3	50		 push	 eax
  000a4	57		 push	 edi
  000a5	e8 00 00 00 00	 call	 ?SendNoticeToUser@TNotice@@SAXHPAX@Z ; TNotice::SendNoticeToUser
  000aa	83 c4 08	 add	 esp, 8
$LN2@SendMsgKau:

; 232  : 
; 233  : 	for ( int iCount=OBJ_STARTUSERINDEX;iCount<OBJMAX;iCount++)

  000ad	81 c6 40 27 00
	00		 add	 esi, 10048		; 00002740H
  000b3	47		 inc	 edi
  000b4	81 fe 00 2f e3
	06		 cmp	 esi, 115552000		; 06e32f00H
  000ba	7c c4		 jl	 SHORT $LL4@SendMsgKau
  000bc	5f		 pop	 edi
$LN3@SendMsgKau:

; 240  : 		}
; 241  : 	}
; 242  : }

  000bd	8b 4d fc	 mov	 ecx, DWORD PTR __$ArrayPad$[ebp]
  000c0	33 cd		 xor	 ecx, ebp
  000c2	5e		 pop	 esi
  000c3	e8 00 00 00 00	 call	 @__security_check_cookie@4
  000c8	8b e5		 mov	 esp, ebp
  000ca	5d		 pop	 ebp
  000cb	c3		 ret	 0
?SendMsgKauturuBossMapUser@CKanturuUtil@@QAAXPADZZ ENDP	; CKanturuUtil::SendMsgKauturuBossMapUser
_TEXT	ENDS
; Function compile flags: /Ogtp
; File c:\users\michel\desktop\source\gameserver\source\kanturuutil.cpp
; File c:\users\michel\desktop\source\gameserver\source\kanturubattleuser.h
; File c:\users\michel\desktop\source\gameserver\source\kanturuutil.cpp
;	COMDAT ?SendDataKanturuBattleUser@CKanturuUtil@@QAEXPAEH@Z
_TEXT	SEGMENT
_lpMsg$ = 8						; size = 4
_iSize$ = 12						; size = 4
?SendDataKanturuBattleUser@CKanturuUtil@@QAEXPAEH@Z PROC ; CKanturuUtil::SendDataKanturuBattleUser, COMDAT
; _this$ = ecx

; 201  : {

  00000	55		 push	 ebp
  00001	8b ec		 mov	 ebp, esp
  00003	53		 push	 ebx

; 202  : 	int iUserIndex=0;
; 203  : 
; 204  : 	for ( int iCount=0;iCount<MAX_KANTURU_BATTLE_USER;iCount++)

  00004	8b 5d 08	 mov	 ebx, DWORD PTR _lpMsg$[ebp]
  00007	56		 push	 esi
  00008	57		 push	 edi
  00009	8b 7d 0c	 mov	 edi, DWORD PTR _iSize$[ebp]
  0000c	be 08 00 00 00	 mov	 esi, OFFSET ?g_KanturuBattleUserMng@@3VCKanturuBattleUserMng@@A+8
$LL4@SendDataKa:
; File c:\users\michel\desktop\source\gameserver\source\kanturubattleuser.h

; 24   : 		return this->m_iIndex;

  00011	8b 16		 mov	 edx, DWORD PTR [esi]
; File c:\users\michel\desktop\source\gameserver\source\kanturuutil.cpp

; 208  : 		if ( gObj[iUserIndex].Connected == PLAYER_PLAYING &&

  00013	a1 00 00 00 00	 mov	 eax, DWORD PTR ?gObj@@3PAUOBJECTSTRUCT@@A ; gObj
  00018	69 ca 40 27 00
	00		 imul	 ecx, edx, 10048
  0001e	83 7c 01 04 03	 cmp	 DWORD PTR [ecx+eax+4], 3
  00023	75 12		 jne	 SHORT $LN2@SendDataKa
  00025	80 7c 01 50 01	 cmp	 BYTE PTR [ecx+eax+80], 1
  0002a	75 0b		 jne	 SHORT $LN2@SendDataKa

; 209  : 			 gObj[iUserIndex].Type == OBJ_USER )
; 210  : 		{
; 211  : 			DataSend(iUserIndex, lpMsg, iSize);

  0002c	57		 push	 edi
  0002d	53		 push	 ebx
  0002e	52		 push	 edx
  0002f	e8 00 00 00 00	 call	 ?DataSend@@YAHHPAEK@Z	; DataSend
  00034	83 c4 0c	 add	 esp, 12			; 0000000cH
$LN2@SendDataKa:

; 202  : 	int iUserIndex=0;
; 203  : 
; 204  : 	for ( int iCount=0;iCount<MAX_KANTURU_BATTLE_USER;iCount++)

  00037	83 c6 0c	 add	 esi, 12			; 0000000cH
  0003a	81 fe bc 00 00
	00		 cmp	 esi, OFFSET ?g_KanturuBattleUserMng@@3VCKanturuBattleUserMng@@A+188
  00040	7c cf		 jl	 SHORT $LL4@SendDataKa
  00042	5f		 pop	 edi
  00043	5e		 pop	 esi
  00044	5b		 pop	 ebx

; 212  : 		}
; 213  : 	}
; 214  : }

  00045	5d		 pop	 ebp
  00046	c2 08 00	 ret	 8
?SendDataKanturuBattleUser@CKanturuUtil@@QAEXPAEH@Z ENDP ; CKanturuUtil::SendDataKanturuBattleUser
_TEXT	ENDS
; Function compile flags: /Ogtp
; File c:\users\michel\desktop\source\gameserver\source\kanturuutil.cpp
; File c:\program files (x86)\windows kits\10\include\10.0.10240.0\ucrt\stdio.h
; File c:\users\michel\desktop\source\gameserver\source\kanturuutil.cpp
; File c:\users\michel\desktop\source\gameserver\source\kanturubattleuser.h
; File c:\users\michel\desktop\source\gameserver\source\kanturuutil.cpp
;	COMDAT ?SendMsgKanturuBattleUser@CKanturuUtil@@QAAXPADZZ
_TEXT	SEGMENT
_pNotice$ = -788					; size = 272
_szBuffer$ = -516					; size = 512
__$ArrayPad$ = -4					; size = 4
_this$ = 8						; size = 4
_lpszMsg$ = 12						; size = 4
?SendMsgKanturuBattleUser@CKanturuUtil@@QAAXPADZZ PROC	; CKanturuUtil::SendMsgKanturuBattleUser, COMDAT

; 171  : {

  00000	55		 push	 ebp
  00001	8b ec		 mov	 ebp, esp
  00003	81 ec 14 03 00
	00		 sub	 esp, 788		; 00000314H
  00009	a1 00 00 00 00	 mov	 eax, DWORD PTR ___security_cookie
  0000e	33 c5		 xor	 eax, ebp
  00010	89 45 fc	 mov	 DWORD PTR __$ArrayPad$[ebp], eax
  00013	56		 push	 esi

; 172  : 	if ( !lpszMsg )

  00014	8b 75 0c	 mov	 esi, DWORD PTR _lpszMsg$[ebp]
  00017	85 f6		 test	 esi, esi
  00019	0f 84 97 00 00
	00		 je	 $LN3@SendMsgKan
  0001f	68 00 02 00 00	 push	 512			; 00000200H
  00024	8d 85 fc fd ff
	ff		 lea	 eax, DWORD PTR _szBuffer$[ebp]
  0002a	6a 00		 push	 0
  0002c	50		 push	 eax
  0002d	e8 00 00 00 00	 call	 _memset
  00032	83 c4 0c	 add	 esp, 12			; 0000000cH
; File c:\program files (x86)\windows kits\10\include\10.0.10240.0\ucrt\stdio.h

; 1386 :     int const _Result = __stdio_common_vsprintf(

  00035	8d 45 10	 lea	 eax, DWORD PTR _lpszMsg$[ebp+4]
  00038	50		 push	 eax
  00039	6a 00		 push	 0
  0003b	56		 push	 esi
  0003c	8d 85 fc fd ff
	ff		 lea	 eax, DWORD PTR _szBuffer$[ebp]
  00042	6a ff		 push	 -1
  00044	50		 push	 eax
  00045	e8 00 00 00 00	 call	 ___local_stdio_printf_options
  0004a	8b 08		 mov	 ecx, DWORD PTR [eax]
  0004c	ff 70 04	 push	 DWORD PTR [eax+4]
  0004f	83 c9 01	 or	 ecx, 1
  00052	51		 push	 ecx
  00053	e8 00 00 00 00	 call	 ___stdio_common_vsprintf
; File c:\users\michel\desktop\source\gameserver\source\kanturuutil.cpp

; 183  : 	TNotice::MakeNoticeMsg(&pNotice, 0, szBuffer);

  00058	8d 85 fc fd ff
	ff		 lea	 eax, DWORD PTR _szBuffer$[ebp]
  0005e	50		 push	 eax
  0005f	8d 85 ec fc ff
	ff		 lea	 eax, DWORD PTR _pNotice$[ebp]
  00065	6a 00		 push	 0
  00067	50		 push	 eax
  00068	e8 00 00 00 00	 call	 ?MakeNoticeMsg@TNotice@@SAXPAXEPAD@Z ; TNotice::MakeNoticeMsg
  0006d	83 c4 28	 add	 esp, 40			; 00000028H
  00070	be 08 00 00 00	 mov	 esi, OFFSET ?g_KanturuBattleUserMng@@3VCKanturuBattleUserMng@@A+8
  00075	66 66 66 0f 1f
	84 00 00 00 00
	00		 npad	 11
$LL4@SendMsgKan:
; File c:\users\michel\desktop\source\gameserver\source\kanturubattleuser.h

; 24   : 		return this->m_iIndex;

  00080	8b 16		 mov	 edx, DWORD PTR [esi]
; File c:\users\michel\desktop\source\gameserver\source\kanturuutil.cpp

; 191  : 		if ( gObj[iUserIndex].Connected == PLAYER_PLAYING &&

  00082	a1 00 00 00 00	 mov	 eax, DWORD PTR ?gObj@@3PAUOBJECTSTRUCT@@A ; gObj
  00087	69 ca 40 27 00
	00		 imul	 ecx, edx, 10048
  0008d	83 7c 01 04 03	 cmp	 DWORD PTR [ecx+eax+4], 3
  00092	75 17		 jne	 SHORT $LN2@SendMsgKan
  00094	80 7c 01 50 01	 cmp	 BYTE PTR [ecx+eax+80], 1
  00099	75 10		 jne	 SHORT $LN2@SendMsgKan

; 192  : 			 gObj[iUserIndex].Type == OBJ_USER )
; 193  : 		{
; 194  : 			TNotice::SendNoticeToUser(iUserIndex, &pNotice);

  0009b	8d 85 ec fc ff
	ff		 lea	 eax, DWORD PTR _pNotice$[ebp]
  000a1	50		 push	 eax
  000a2	52		 push	 edx
  000a3	e8 00 00 00 00	 call	 ?SendNoticeToUser@TNotice@@SAXHPAX@Z ; TNotice::SendNoticeToUser
  000a8	83 c4 08	 add	 esp, 8
$LN2@SendMsgKan:

; 184  : 
; 185  : 	int iUserIndex = 0;
; 186  : 
; 187  : 	for ( int iCount=0;iCount<MAX_KANTURU_BATTLE_USER;iCount++)

  000ab	83 c6 0c	 add	 esi, 12			; 0000000cH
  000ae	81 fe bc 00 00
	00		 cmp	 esi, OFFSET ?g_KanturuBattleUserMng@@3VCKanturuBattleUserMng@@A+188
  000b4	7c ca		 jl	 SHORT $LL4@SendMsgKan
$LN3@SendMsgKan:

; 195  : 		}
; 196  : 	}
; 197  : }

  000b6	8b 4d fc	 mov	 ecx, DWORD PTR __$ArrayPad$[ebp]
  000b9	33 cd		 xor	 ecx, ebp
  000bb	5e		 pop	 esi
  000bc	e8 00 00 00 00	 call	 @__security_check_cookie@4
  000c1	8b e5		 mov	 esp, ebp
  000c3	5d		 pop	 ebp
  000c4	c3		 ret	 0
?SendMsgKanturuBattleUser@CKanturuUtil@@QAAXPADZZ ENDP	; CKanturuUtil::SendMsgKanturuBattleUser
_TEXT	ENDS
; Function compile flags: /Ogtp
; File c:\users\michel\desktop\source\gameserver\source\kanturuutil.cpp
;	COMDAT ?NotifyKanturuUserMonsterCount@CKanturuUtil@@QAEXHH@Z
_TEXT	SEGMENT
_pMsg$ = -8						; size = 6
_iMonsterCount$ = 8					; size = 4
_iUserCount$ = 12					; size = 4
?NotifyKanturuUserMonsterCount@CKanturuUtil@@QAEXHH@Z PROC ; CKanturuUtil::NotifyKanturuUserMonsterCount, COMDAT
; _this$ = ecx

; 158  : {

  00000	55		 push	 ebp
  00001	8b ec		 mov	 ebp, esp
  00003	83 ec 08	 sub	 esp, 8
  00006	56		 push	 esi

; 159  : 	PMSG_NOTIFY_KANTURU_USER_MONSTER_COUNT pMsg;
; 160  : 
; 161  : 	PHeadSubSetB((LPBYTE)&pMsg, 0xD1, 0x07, sizeof(pMsg));

  00007	6a 06		 push	 6
  00009	6a 07		 push	 7
  0000b	8d 45 f8	 lea	 eax, DWORD PTR _pMsg$[ebp]
  0000e	8b f1		 mov	 esi, ecx
  00010	68 d1 00 00 00	 push	 209			; 000000d1H
  00015	50		 push	 eax
  00016	e8 00 00 00 00	 call	 ?PHeadSubSetB@@YAXPAEEEH@Z ; PHeadSubSetB

; 162  : 	pMsg.btMonsterCount = iMonsterCount;

  0001b	8a 45 08	 mov	 al, BYTE PTR _iMonsterCount$[ebp]
  0001e	83 c4 10	 add	 esp, 16			; 00000010H
  00021	88 45 fc	 mov	 BYTE PTR _pMsg$[ebp+4], al

; 163  : 	pMsg.btUserCount = iUserCount;
; 164  : 
; 165  : 	this->SendDataKanturuBattleUser((LPBYTE)&pMsg, sizeof(pMsg));

  00024	8b ce		 mov	 ecx, esi
  00026	8a 45 0c	 mov	 al, BYTE PTR _iUserCount$[ebp]
  00029	88 45 fd	 mov	 BYTE PTR _pMsg$[ebp+5], al
  0002c	8d 45 f8	 lea	 eax, DWORD PTR _pMsg$[ebp]
  0002f	6a 06		 push	 6
  00031	50		 push	 eax
  00032	e8 00 00 00 00	 call	 ?SendDataKanturuBattleUser@CKanturuUtil@@QAEXPAEH@Z ; CKanturuUtil::SendDataKanturuBattleUser
  00037	5e		 pop	 esi

; 166  : }

  00038	8b e5		 mov	 esp, ebp
  0003a	5d		 pop	 ebp
  0003b	c2 08 00	 ret	 8
?NotifyKanturuUserMonsterCount@CKanturuUtil@@QAEXHH@Z ENDP ; CKanturuUtil::NotifyKanturuUserMonsterCount
_TEXT	ENDS
; Function compile flags: /Ogtp
; File c:\users\michel\desktop\source\gameserver\source\kanturuutil.cpp
;	COMDAT ?NotifyKanturuWideAreaAttack@CKanturuUtil@@QAEXHHH@Z
_TEXT	SEGMENT
_pMsg$ = -8						; size = 7
_iIndex$ = 8						; size = 4
_iTargetIndex$ = 12					; size = 4
_iSkillType$ = 16					; size = 4
?NotifyKanturuWideAreaAttack@CKanturuUtil@@QAEXHHH@Z PROC ; CKanturuUtil::NotifyKanturuWideAreaAttack, COMDAT
; _this$ = ecx

; 136  : {

  00000	55		 push	 ebp
  00001	8b ec		 mov	 ebp, esp
  00003	83 ec 08	 sub	 esp, 8
  00006	56		 push	 esi

; 137  : 	PMSG_NOTIFY_KANTURU_WIDE_AREA_ATTACK pMsg;
; 138  : 
; 139  : 	PHeadSubSetB((LPBYTE)&pMsg, 0xD1, 0x06, sizeof(pMsg));

  00007	6a 07		 push	 7
  00009	6a 06		 push	 6
  0000b	8d 45 f8	 lea	 eax, DWORD PTR _pMsg$[ebp]
  0000e	8b f1		 mov	 esi, ecx
  00010	68 d1 00 00 00	 push	 209			; 000000d1H
  00015	50		 push	 eax
  00016	e8 00 00 00 00	 call	 ?PHeadSubSetB@@YAXPAEEEH@Z ; PHeadSubSetB

; 140  : 	pMsg.btObjClassH = SET_NUMBERH(gObj[iIndex].Class);

  0001b	69 4d 08 40 27
	00 00		 imul	 ecx, DWORD PTR _iIndex$[ebp], 10048
  00022	83 c4 10	 add	 esp, 16			; 00000010H

; 141  : 	pMsg.btObjClassL = SET_NUMBERL(gObj[iIndex].Class);
; 142  : 	pMsg.btType = iSkillType;
; 143  : 
; 144  : 	this->SendDataToUser(iTargetIndex, (LPBYTE)&pMsg, sizeof(pMsg));

  00025	6a 07		 push	 7
  00027	03 0d 00 00 00
	00		 add	 ecx, DWORD PTR ?gObj@@3PAUOBJECTSTRUCT@@A ; gObj
  0002d	0f b6 81 91 00
	00 00		 movzx	 eax, BYTE PTR [ecx+145]
  00034	88 45 fc	 mov	 BYTE PTR _pMsg$[ebp+4], al
  00037	0f b6 81 90 00
	00 00		 movzx	 eax, BYTE PTR [ecx+144]
  0003e	8b ce		 mov	 ecx, esi
  00040	88 45 fd	 mov	 BYTE PTR _pMsg$[ebp+5], al
  00043	8a 45 10	 mov	 al, BYTE PTR _iSkillType$[ebp]
  00046	88 45 fe	 mov	 BYTE PTR _pMsg$[ebp+6], al
  00049	8d 45 f8	 lea	 eax, DWORD PTR _pMsg$[ebp]
  0004c	50		 push	 eax
  0004d	ff 75 0c	 push	 DWORD PTR _iTargetIndex$[ebp]
  00050	e8 00 00 00 00	 call	 ?SendDataToUser@CKanturuUtil@@QAEXHPAEH@Z ; CKanturuUtil::SendDataToUser
  00055	5e		 pop	 esi

; 145  : }

  00056	8b e5		 mov	 esp, ebp
  00058	5d		 pop	 ebp
  00059	c2 0c 00	 ret	 12			; 0000000cH
?NotifyKanturuWideAreaAttack@CKanturuUtil@@QAEXHHH@Z ENDP ; CKanturuUtil::NotifyKanturuWideAreaAttack
_TEXT	ENDS
; Function compile flags: /Ogtp
; File c:\users\michel\desktop\source\gameserver\source\kanturuutil.cpp
;	COMDAT ?NotifyKanturuBattleTime@CKanturuUtil@@QAEXH@Z
_TEXT	SEGMENT
_pMsg$ = -8						; size = 8
_iBattleTime$ = 8					; size = 4
?NotifyKanturuBattleTime@CKanturuUtil@@QAEXH@Z PROC	; CKanturuUtil::NotifyKanturuBattleTime, COMDAT
; _this$ = ecx

; 116  : {

  00000	55		 push	 ebp
  00001	8b ec		 mov	 ebp, esp
  00003	83 ec 08	 sub	 esp, 8
  00006	56		 push	 esi

; 117  : 	PMSG_ANS_KANTURU_BATTLE_SCENE_TIMELIMIT pMsg;
; 118  : 
; 119  : 	PHeadSubSetB((LPBYTE)&pMsg, 0xD1, 0x05, sizeof(pMsg));

  00007	6a 08		 push	 8
  00009	6a 05		 push	 5
  0000b	8d 45 f8	 lea	 eax, DWORD PTR _pMsg$[ebp]
  0000e	8b f1		 mov	 esi, ecx
  00010	68 d1 00 00 00	 push	 209			; 000000d1H
  00015	50		 push	 eax
  00016	e8 00 00 00 00	 call	 ?PHeadSubSetB@@YAXPAEEEH@Z ; PHeadSubSetB

; 120  : 	pMsg.btTimeLimit = iBattleTime;

  0001b	8b 45 08	 mov	 eax, DWORD PTR _iBattleTime$[ebp]
  0001e	83 c4 10	 add	 esp, 16			; 00000010H
  00021	89 45 fc	 mov	 DWORD PTR _pMsg$[ebp+4], eax

; 121  : 
; 122  : 	this->SendDataKanturuBattleUser((LPBYTE)&pMsg, sizeof(pMsg));

  00024	8b ce		 mov	 ecx, esi
  00026	8d 45 f8	 lea	 eax, DWORD PTR _pMsg$[ebp]
  00029	6a 08		 push	 8
  0002b	50		 push	 eax
  0002c	e8 00 00 00 00	 call	 ?SendDataKanturuBattleUser@CKanturuUtil@@QAEXPAEH@Z ; CKanturuUtil::SendDataKanturuBattleUser
  00031	5e		 pop	 esi

; 123  : }

  00032	8b e5		 mov	 esp, ebp
  00034	5d		 pop	 ebp
  00035	c2 04 00	 ret	 4
?NotifyKanturuBattleTime@CKanturuUtil@@QAEXH@Z ENDP	; CKanturuUtil::NotifyKanturuBattleTime
_TEXT	ENDS
; Function compile flags: /Ogtp
; File c:\users\michel\desktop\source\gameserver\source\kanturuutil.cpp
;	COMDAT ?NotifyKanturuCurrentState@CKanturuUtil@@QAEXHHH@Z
_TEXT	SEGMENT
_pMsg$ = -8						; size = 6
_iIndex$ = 8						; size = 4
_iState$ = 12						; size = 4
_iDetailState$ = 16					; size = 4
?NotifyKanturuCurrentState@CKanturuUtil@@QAEXHHH@Z PROC	; CKanturuUtil::NotifyKanturuCurrentState, COMDAT
; _this$ = ecx

; 96   : {

  00000	55		 push	 ebp
  00001	8b ec		 mov	 ebp, esp
  00003	83 ec 08	 sub	 esp, 8

; 97   : 	PMSG_ANS_KANTURU_CURRENT_STATE pMsg = {0};
; 98   : 
; 99   : 	PHeadSubSetB((LPBYTE)&pMsg, 0xD1, 0x02, sizeof(pMsg));

  00006	6a 06		 push	 6
  00008	6a 02		 push	 2
  0000a	8d 45 f8	 lea	 eax, DWORD PTR _pMsg$[ebp]
  0000d	c6 45 f8 00	 mov	 BYTE PTR _pMsg$[ebp], 0
  00011	68 d1 00 00 00	 push	 209			; 000000d1H
  00016	50		 push	 eax
  00017	c7 45 f9 00 00
	00 00		 mov	 DWORD PTR _pMsg$[ebp+1], 0
  0001e	c6 45 fd 00	 mov	 BYTE PTR _pMsg$[ebp+5], 0
  00022	e8 00 00 00 00	 call	 ?PHeadSubSetB@@YAXPAEEEH@Z ; PHeadSubSetB

; 100  : 	pMsg.btCurrentState = iState;

  00027	8a 45 0c	 mov	 al, BYTE PTR _iState$[ebp]
  0002a	88 45 fc	 mov	 BYTE PTR _pMsg$[ebp+4], al

; 101  : 	pMsg.btCurrentDetailState = iDetailState;

  0002d	8a 45 10	 mov	 al, BYTE PTR _iDetailState$[ebp]
  00030	88 45 fd	 mov	 BYTE PTR _pMsg$[ebp+5], al

; 102  : 
; 103  : 	DataSend(iIndex, (LPBYTE)&pMsg, sizeof(pMsg));

  00033	8d 45 f8	 lea	 eax, DWORD PTR _pMsg$[ebp]
  00036	6a 06		 push	 6
  00038	50		 push	 eax
  00039	ff 75 08	 push	 DWORD PTR _iIndex$[ebp]
  0003c	e8 00 00 00 00	 call	 ?DataSend@@YAHHPAEK@Z	; DataSend
  00041	83 c4 1c	 add	 esp, 28			; 0000001cH

; 104  : }

  00044	8b e5		 mov	 esp, ebp
  00046	5d		 pop	 ebp
  00047	c2 0c 00	 ret	 12			; 0000000cH
?NotifyKanturuCurrentState@CKanturuUtil@@QAEXHHH@Z ENDP	; CKanturuUtil::NotifyKanturuCurrentState
_TEXT	ENDS
; Function compile flags: /Ogtp
; File c:\users\michel\desktop\source\gameserver\source\kanturuutil.cpp
;	COMDAT ?NotifyKanturuSuccessValue@CKanturuUtil@@QAEXH@Z
_TEXT	SEGMENT
_pMsg$ = -8						; size = 5
_iSuccessValue$ = 8					; size = 4
?NotifyKanturuSuccessValue@CKanturuUtil@@QAEXH@Z PROC	; CKanturuUtil::NotifyKanturuSuccessValue, COMDAT
; _this$ = ecx

; 77   : {

  00000	55		 push	 ebp
  00001	8b ec		 mov	 ebp, esp
  00003	83 ec 08	 sub	 esp, 8
  00006	56		 push	 esi

; 78   : 	PMSG_ANS_KANTURU_BATTLE_RESULT pMsg = {0};
; 79   : 
; 80   : 	PHeadSubSetB((LPBYTE)&pMsg, 0xD1, 0x04, sizeof(pMsg));

  00007	6a 05		 push	 5
  00009	6a 04		 push	 4
  0000b	8d 45 f8	 lea	 eax, DWORD PTR _pMsg$[ebp]
  0000e	c6 45 f8 00	 mov	 BYTE PTR _pMsg$[ebp], 0
  00012	68 d1 00 00 00	 push	 209			; 000000d1H
  00017	50		 push	 eax
  00018	8b f1		 mov	 esi, ecx
  0001a	c7 45 f9 00 00
	00 00		 mov	 DWORD PTR _pMsg$[ebp+1], 0
  00021	e8 00 00 00 00	 call	 ?PHeadSubSetB@@YAXPAEEEH@Z ; PHeadSubSetB

; 81   : 	pMsg.btResult = iSuccessValue;

  00026	8a 45 08	 mov	 al, BYTE PTR _iSuccessValue$[ebp]
  00029	83 c4 10	 add	 esp, 16			; 00000010H
  0002c	88 45 fc	 mov	 BYTE PTR _pMsg$[ebp+4], al

; 82   : 
; 83   : 	this->SendDataKanturuBattleUser((LPBYTE)&pMsg, sizeof(pMsg));

  0002f	8b ce		 mov	 ecx, esi
  00031	8d 45 f8	 lea	 eax, DWORD PTR _pMsg$[ebp]
  00034	6a 05		 push	 5
  00036	50		 push	 eax
  00037	e8 00 00 00 00	 call	 ?SendDataKanturuBattleUser@CKanturuUtil@@QAEXPAEH@Z ; CKanturuUtil::SendDataKanturuBattleUser
  0003c	5e		 pop	 esi

; 84   : }

  0003d	8b e5		 mov	 esp, ebp
  0003f	5d		 pop	 ebp
  00040	c2 04 00	 ret	 4
?NotifyKanturuSuccessValue@CKanturuUtil@@QAEXH@Z ENDP	; CKanturuUtil::NotifyKanturuSuccessValue
_TEXT	ENDS
; Function compile flags: /Ogtp
; File c:\users\michel\desktop\source\gameserver\source\kanturuutil.cpp
;	COMDAT ?NotifyKanturuEntranceReqResult@CKanturuUtil@@QAEXHH@Z
_TEXT	SEGMENT
_pMsg$ = -8						; size = 5
_iIndex$ = 8						; size = 4
_iResult$ = 12						; size = 4
?NotifyKanturuEntranceReqResult@CKanturuUtil@@QAEXHH@Z PROC ; CKanturuUtil::NotifyKanturuEntranceReqResult, COMDAT
; _this$ = ecx

; 58   : {

  00000	55		 push	 ebp
  00001	8b ec		 mov	 ebp, esp
  00003	83 ec 08	 sub	 esp, 8

; 59   : 	PMSG_ANS_ENTER_KANTURU_BOSS_MAP pMsg = {0};
; 60   : 
; 61   : 	PHeadSubSetB((LPBYTE)&pMsg, 0xD1, 0x01, sizeof(pMsg));

  00006	6a 05		 push	 5
  00008	6a 01		 push	 1
  0000a	8d 45 f8	 lea	 eax, DWORD PTR _pMsg$[ebp]
  0000d	c6 45 f8 00	 mov	 BYTE PTR _pMsg$[ebp], 0
  00011	68 d1 00 00 00	 push	 209			; 000000d1H
  00016	50		 push	 eax
  00017	c7 45 f9 00 00
	00 00		 mov	 DWORD PTR _pMsg$[ebp+1], 0
  0001e	e8 00 00 00 00	 call	 ?PHeadSubSetB@@YAXPAEEEH@Z ; PHeadSubSetB

; 62   : 	pMsg.btResult = iResult;

  00023	8a 45 0c	 mov	 al, BYTE PTR _iResult$[ebp]
  00026	88 45 fc	 mov	 BYTE PTR _pMsg$[ebp+4], al

; 63   : 
; 64   : 	DataSend(iIndex, (LPBYTE)&pMsg, sizeof(pMsg));

  00029	8d 45 f8	 lea	 eax, DWORD PTR _pMsg$[ebp]
  0002c	6a 05		 push	 5
  0002e	50		 push	 eax
  0002f	ff 75 08	 push	 DWORD PTR _iIndex$[ebp]
  00032	e8 00 00 00 00	 call	 ?DataSend@@YAHHPAEK@Z	; DataSend
  00037	83 c4 1c	 add	 esp, 28			; 0000001cH

; 65   : }

  0003a	8b e5		 mov	 esp, ebp
  0003c	5d		 pop	 ebp
  0003d	c2 08 00	 ret	 8
?NotifyKanturuEntranceReqResult@CKanturuUtil@@QAEXHH@Z ENDP ; CKanturuUtil::NotifyKanturuEntranceReqResult
_TEXT	ENDS
; Function compile flags: /Ogtp
; File c:\users\michel\desktop\source\gameserver\source\kanturuutil.cpp
;	COMDAT ?NotifyKanturuChangeState@CKanturuUtil@@QAEXHH@Z
_TEXT	SEGMENT
_pMsg$ = -8						; size = 6
_iState$ = 8						; size = 4
_iDetailState$ = 12					; size = 4
?NotifyKanturuChangeState@CKanturuUtil@@QAEXHH@Z PROC	; CKanturuUtil::NotifyKanturuChangeState, COMDAT
; _this$ = ecx

; 39   : {

  00000	55		 push	 ebp
  00001	8b ec		 mov	 ebp, esp
  00003	83 ec 08	 sub	 esp, 8
  00006	56		 push	 esi

; 40   : 	PMSG_ANS_KANTURU_STATE_CHANGE pMsg = {0};
; 41   : 
; 42   : 	PHeadSubSetB((LPBYTE)&pMsg, 0xD1, 0x03, sizeof(pMsg));

  00007	6a 06		 push	 6
  00009	6a 03		 push	 3
  0000b	8d 45 f8	 lea	 eax, DWORD PTR _pMsg$[ebp]
  0000e	c6 45 f8 00	 mov	 BYTE PTR _pMsg$[ebp], 0
  00012	68 d1 00 00 00	 push	 209			; 000000d1H
  00017	50		 push	 eax
  00018	8b f1		 mov	 esi, ecx
  0001a	c7 45 f9 00 00
	00 00		 mov	 DWORD PTR _pMsg$[ebp+1], 0
  00021	c6 45 fd 00	 mov	 BYTE PTR _pMsg$[ebp+5], 0
  00025	e8 00 00 00 00	 call	 ?PHeadSubSetB@@YAXPAEEEH@Z ; PHeadSubSetB

; 43   : 	pMsg.btState = iState;

  0002a	8a 45 08	 mov	 al, BYTE PTR _iState$[ebp]
  0002d	83 c4 10	 add	 esp, 16			; 00000010H
  00030	88 45 fc	 mov	 BYTE PTR _pMsg$[ebp+4], al

; 44   : 	pMsg.btDetailState = iDetailState;
; 45   : 
; 46   : 	this->SendDataKanturuBossMapUser((LPBYTE)&pMsg, sizeof(pMsg));

  00033	8b ce		 mov	 ecx, esi
  00035	8a 45 0c	 mov	 al, BYTE PTR _iDetailState$[ebp]
  00038	88 45 fd	 mov	 BYTE PTR _pMsg$[ebp+5], al
  0003b	8d 45 f8	 lea	 eax, DWORD PTR _pMsg$[ebp]
  0003e	6a 06		 push	 6
  00040	50		 push	 eax
  00041	e8 00 00 00 00	 call	 ?SendDataKanturuBossMapUser@CKanturuUtil@@QAEXPAEH@Z ; CKanturuUtil::SendDataKanturuBossMapUser
  00046	5e		 pop	 esi

; 47   : }

  00047	8b e5		 mov	 esp, ebp
  00049	5d		 pop	 ebp
  0004a	c2 08 00	 ret	 8
?NotifyKanturuChangeState@CKanturuUtil@@QAEXHH@Z ENDP	; CKanturuUtil::NotifyKanturuChangeState
_TEXT	ENDS
; Function compile flags: /Ogtp
; File c:\users\michel\desktop\source\gameserver\source\kanturuutil.cpp
;	COMDAT ??1CKanturuUtil@@UAE@XZ
_TEXT	SEGMENT
??1CKanturuUtil@@UAE@XZ PROC				; CKanturuUtil::~CKanturuUtil, COMDAT
; _this$ = ecx

; 26   : {

  00000	c7 01 00 00 00
	00		 mov	 DWORD PTR [ecx], OFFSET ??_7CKanturuUtil@@6B@

; 27   : 	return;
; 28   : }

  00006	c3		 ret	 0
??1CKanturuUtil@@UAE@XZ ENDP				; CKanturuUtil::~CKanturuUtil
_TEXT	ENDS
; Function compile flags: /Ogtp
; File c:\users\michel\desktop\source\gameserver\source\kanturuutil.cpp
;	COMDAT ??0CKanturuUtil@@QAE@XZ
_TEXT	SEGMENT
??0CKanturuUtil@@QAE@XZ PROC				; CKanturuUtil::CKanturuUtil, COMDAT
; _this$ = ecx

; 21   : {

  00000	c7 01 00 00 00
	00		 mov	 DWORD PTR [ecx], OFFSET ??_7CKanturuUtil@@6B@

; 22   : 	return;
; 23   : }

  00006	8b c1		 mov	 eax, ecx
  00008	c3		 ret	 0
??0CKanturuUtil@@QAE@XZ ENDP				; CKanturuUtil::CKanturuUtil
_TEXT	ENDS
; Function compile flags: /Ogtp
; File c:\users\michel\desktop\source\gameserver\source\kanturu.h
;	COMDAT ?GetKanturuBattleDate@CKanturu@@QAEHXZ
_TEXT	SEGMENT
?GetKanturuBattleDate@CKanturu@@QAEHXZ PROC		; CKanturu::GetKanturuBattleDate, COMDAT
; _this$ = ecx

; 88   : 	int GetKanturuBattleDate(){return this->m_iKanturuBattleDate;}

  00000	8b 81 9c 74 0a
	00		 mov	 eax, DWORD PTR [ecx+685212]
  00006	c3		 ret	 0
?GetKanturuBattleDate@CKanturu@@QAEHXZ ENDP		; CKanturu::GetKanturuBattleDate
_TEXT	ENDS
; Function compile flags: /Ogtp
; File c:\users\michel\desktop\source\gameserver\source\kanturu.h
;	COMDAT ?GetKanturuBattleCounter@CKanturu@@QAEHXZ
_TEXT	SEGMENT
?GetKanturuBattleCounter@CKanturu@@QAEHXZ PROC		; CKanturu::GetKanturuBattleCounter, COMDAT
; _this$ = ecx

; 87   : 	int GetKanturuBattleCounter(){return this->m_iKanturuBattleCounter;}

  00000	8b 81 98 74 0a
	00		 mov	 eax, DWORD PTR [ecx+685208]
  00006	c3		 ret	 0
?GetKanturuBattleCounter@CKanturu@@QAEHXZ ENDP		; CKanturu::GetKanturuBattleCounter
_TEXT	ENDS
; Function compile flags: /Ogtp
;	COMDAT ??_EOBJECTSTRUCT@@QAEPAXI@Z
_TEXT	SEGMENT
__$EHRec$ = -12						; size = 12
___flags$ = 8						; size = 4
??_EOBJECTSTRUCT@@QAEPAXI@Z PROC			; OBJECTSTRUCT::`vector deleting destructor', COMDAT
; _this$ = ecx
  00000	55		 push	 ebp
  00001	8b ec		 mov	 ebp, esp
  00003	6a ff		 push	 -1
  00005	68 00 00 00 00	 push	 __ehhandler$??_EOBJECTSTRUCT@@QAEPAXI@Z
  0000a	64 a1 00 00 00
	00		 mov	 eax, DWORD PTR fs:0
  00010	50		 push	 eax
  00011	53		 push	 ebx
  00012	56		 push	 esi
  00013	57		 push	 edi
  00014	a1 00 00 00 00	 mov	 eax, DWORD PTR ___security_cookie
  00019	33 c5		 xor	 eax, ebp
  0001b	50		 push	 eax
  0001c	8d 45 f4	 lea	 eax, DWORD PTR __$EHRec$[ebp]
  0001f	64 a3 00 00 00
	00		 mov	 DWORD PTR fs:0, eax
  00025	8b f1		 mov	 esi, ecx
  00027	8b 5d 08	 mov	 ebx, DWORD PTR ___flags$[ebp]
  0002a	f6 c3 02	 test	 bl, 2
  0002d	74 44		 je	 SHORT $LN2@vector
  0002f	68 00 00 00 00	 push	 OFFSET ??1OBJECTSTRUCT@@QAE@XZ
  00034	ff 76 fc	 push	 DWORD PTR [esi-4]
  00037	8d 7e fc	 lea	 edi, DWORD PTR [esi-4]
  0003a	68 40 27 00 00	 push	 10048			; 00002740H
  0003f	56		 push	 esi
  00040	e8 00 00 00 00	 call	 ??_M@YGXPAXIIP6EX0@Z@Z
  00045	f6 c3 01	 test	 bl, 1
  00048	74 13		 je	 SHORT $LN3@vector
  0004a	69 0f 40 27 00
	00		 imul	 ecx, DWORD PTR [edi], 10048
  00050	83 c1 04	 add	 ecx, 4
  00053	51		 push	 ecx
  00054	57		 push	 edi
  00055	e8 00 00 00 00	 call	 ??_V@YAXPAXI@Z		; operator delete[]
  0005a	83 c4 08	 add	 esp, 8
$LN3@vector:
  0005d	8b c7		 mov	 eax, edi
  0005f	8b 4d f4	 mov	 ecx, DWORD PTR __$EHRec$[ebp]
  00062	64 89 0d 00 00
	00 00		 mov	 DWORD PTR fs:0, ecx
  00069	59		 pop	 ecx
  0006a	5f		 pop	 edi
  0006b	5e		 pop	 esi
  0006c	5b		 pop	 ebx
  0006d	8b e5		 mov	 esp, ebp
  0006f	5d		 pop	 ebp
  00070	c2 04 00	 ret	 4
$LN2@vector:
  00073	8d 8e ec 20 00
	00		 lea	 ecx, DWORD PTR [esi+8428]
  00079	e8 00 00 00 00	 call	 ??1TMonsterAIAgro@@UAE@XZ ; TMonsterAIAgro::~TMonsterAIAgro
  0007e	8d 8e 0c 16 00
	00		 lea	 ecx, DWORD PTR [esi+5644]
  00084	e8 00 00 00 00	 call	 ??1CSkillDelay@@UAE@XZ	; CSkillDelay::~CSkillDelay
  00089	f6 c3 01	 test	 bl, 1
  0008c	74 0e		 je	 SHORT $LN4@vector
  0008e	68 40 27 00 00	 push	 10048			; 00002740H
  00093	56		 push	 esi
  00094	e8 00 00 00 00	 call	 ??3@YAXPAXI@Z		; operator delete
  00099	83 c4 08	 add	 esp, 8
$LN4@vector:
  0009c	8b c6		 mov	 eax, esi
  0009e	8b 4d f4	 mov	 ecx, DWORD PTR __$EHRec$[ebp]
  000a1	64 89 0d 00 00
	00 00		 mov	 DWORD PTR fs:0, ecx
  000a8	59		 pop	 ecx
  000a9	5f		 pop	 edi
  000aa	5e		 pop	 esi
  000ab	5b		 pop	 ebx
  000ac	8b e5		 mov	 esp, ebp
  000ae	5d		 pop	 ebp
  000af	c2 04 00	 ret	 4
_TEXT	ENDS
;	COMDAT text$x
text$x	SEGMENT
__ehhandler$??_EOBJECTSTRUCT@@QAEPAXI@Z:
  00000	8b 54 24 08	 mov	 edx, DWORD PTR [esp+8]
  00004	8d 42 0c	 lea	 eax, DWORD PTR [edx+12]
  00007	8b 4a f0	 mov	 ecx, DWORD PTR [edx-16]
  0000a	33 c8		 xor	 ecx, eax
  0000c	e8 00 00 00 00	 call	 @__security_check_cookie@4
  00011	b8 00 00 00 00	 mov	 eax, OFFSET __ehfuncinfo$??_EOBJECTSTRUCT@@QAEPAXI@Z
  00016	e9 00 00 00 00	 jmp	 ___CxxFrameHandler3
text$x	ENDS
??_EOBJECTSTRUCT@@QAEPAXI@Z ENDP			; OBJECTSTRUCT::`vector deleting destructor'
; Function compile flags: /Ogtp
;	COMDAT ??1OBJECTSTRUCT@@QAE@XZ
_TEXT	SEGMENT
??1OBJECTSTRUCT@@QAE@XZ PROC				; OBJECTSTRUCT::~OBJECTSTRUCT, COMDAT
; _this$ = ecx
  00000	56		 push	 esi
  00001	8b f1		 mov	 esi, ecx
  00003	8d 8e ec 20 00
	00		 lea	 ecx, DWORD PTR [esi+8428]
  00009	e8 00 00 00 00	 call	 ??1TMonsterAIAgro@@UAE@XZ ; TMonsterAIAgro::~TMonsterAIAgro
  0000e	8d 8e 0c 16 00
	00		 lea	 ecx, DWORD PTR [esi+5644]
  00014	5e		 pop	 esi
  00015	e9 00 00 00 00	 jmp	 ??1CSkillDelay@@UAE@XZ	; CSkillDelay::~CSkillDelay
??1OBJECTSTRUCT@@QAE@XZ ENDP				; OBJECTSTRUCT::~OBJECTSTRUCT
_TEXT	ENDS
; Function compile flags: /Ogtp
; File c:\program files (x86)\microsoft visual studio 14.0\vc\include\vadefs.h
;	COMDAT ??$__vcrt_va_start_verify_argument_type@PAD@@YAXXZ
_TEXT	SEGMENT
??$__vcrt_va_start_verify_argument_type@PAD@@YAXXZ PROC	; __vcrt_va_start_verify_argument_type<char *>, COMDAT

; 145  :             static_assert(!__vcrt_va_list_is_reference<_Ty>::__the_value, "va_start argument must not have reference type and must not be parenthesized");
; 146  :         }

  00000	c3		 ret	 0
??$__vcrt_va_start_verify_argument_type@PAD@@YAXXZ ENDP	; __vcrt_va_start_verify_argument_type<char *>
_TEXT	ENDS
; Function compile flags: /Ogtp
; File c:\program files (x86)\windows kits\10\include\10.0.10240.0\ucrt\stdio.h
;	COMDAT _vsprintf
_TEXT	SEGMENT
__Buffer$ = 8						; size = 4
__Format$ = 12						; size = 4
__ArgList$ = 16						; size = 4
_vsprintf PROC						; COMDAT

; 1473 : {

  00000	55		 push	 ebp
  00001	8b ec		 mov	 ebp, esp

; 1386 :     int const _Result = __stdio_common_vsprintf(

  00003	ff 75 10	 push	 DWORD PTR __ArgList$[ebp]
  00006	6a 00		 push	 0
  00008	ff 75 0c	 push	 DWORD PTR __Format$[ebp]
  0000b	6a ff		 push	 -1
  0000d	ff 75 08	 push	 DWORD PTR __Buffer$[ebp]
  00010	e8 00 00 00 00	 call	 ___local_stdio_printf_options
  00015	8b 08		 mov	 ecx, DWORD PTR [eax]
  00017	ff 70 04	 push	 DWORD PTR [eax+4]
  0001a	83 c9 01	 or	 ecx, 1
  0001d	51		 push	 ecx
  0001e	e8 00 00 00 00	 call	 ___stdio_common_vsprintf

; 1387 :         _CRT_INTERNAL_LOCAL_PRINTF_OPTIONS | _CRT_INTERNAL_PRINTF_LEGACY_VSPRINTF_NULL_TERMINATION,
; 1388 :         _Buffer, _BufferCount, _Format, _Locale, _ArgList);
; 1389 : 
; 1390 :     return _Result < 0 ? -1 : _Result;

  00023	83 c9 ff	 or	 ecx, -1
  00026	83 c4 1c	 add	 esp, 28			; 0000001cH
  00029	85 c0		 test	 eax, eax
  0002b	0f 48 c1	 cmovs	 eax, ecx

; 1474 :     #pragma warning(push)
; 1475 :     #pragma warning(disable: 4996) // Deprecation
; 1476 :     return _vsnprintf_l(_Buffer, (size_t)-1, _Format, NULL, _ArgList);
; 1477 :     #pragma warning(pop)
; 1478 : }

  0002e	5d		 pop	 ebp
  0002f	c3		 ret	 0
_vsprintf ENDP
_TEXT	ENDS
; Function compile flags: /Ogtp
; File c:\program files (x86)\windows kits\10\include\10.0.10240.0\ucrt\stdio.h
;	COMDAT __vsnprintf_l
_TEXT	SEGMENT
__Buffer$ = 8						; size = 4
__BufferCount$ = 12					; size = 4
__Format$ = 16						; size = 4
__Locale$ = 20						; size = 4
__ArgList$ = 24						; size = 4
__vsnprintf_l PROC					; COMDAT

; 1385 : {

  00000	55		 push	 ebp
  00001	8b ec		 mov	 ebp, esp

; 1386 :     int const _Result = __stdio_common_vsprintf(

  00003	ff 75 18	 push	 DWORD PTR __ArgList$[ebp]
  00006	ff 75 14	 push	 DWORD PTR __Locale$[ebp]
  00009	ff 75 10	 push	 DWORD PTR __Format$[ebp]
  0000c	ff 75 0c	 push	 DWORD PTR __BufferCount$[ebp]
  0000f	ff 75 08	 push	 DWORD PTR __Buffer$[ebp]
  00012	e8 00 00 00 00	 call	 ___local_stdio_printf_options
  00017	8b 08		 mov	 ecx, DWORD PTR [eax]
  00019	ff 70 04	 push	 DWORD PTR [eax+4]
  0001c	83 c9 01	 or	 ecx, 1
  0001f	51		 push	 ecx
  00020	e8 00 00 00 00	 call	 ___stdio_common_vsprintf

; 1387 :         _CRT_INTERNAL_LOCAL_PRINTF_OPTIONS | _CRT_INTERNAL_PRINTF_LEGACY_VSPRINTF_NULL_TERMINATION,
; 1388 :         _Buffer, _BufferCount, _Format, _Locale, _ArgList);
; 1389 : 
; 1390 :     return _Result < 0 ? -1 : _Result;

  00025	83 c9 ff	 or	 ecx, -1
  00028	83 c4 1c	 add	 esp, 28			; 0000001cH
  0002b	85 c0		 test	 eax, eax
  0002d	0f 48 c1	 cmovs	 eax, ecx

; 1391 : }

  00030	5d		 pop	 ebp
  00031	c3		 ret	 0
__vsnprintf_l ENDP
_TEXT	ENDS
; Function compile flags: /Ogtp
; File c:\program files (x86)\windows kits\10\include\10.0.10240.0\ucrt\corecrt_stdio_config.h
;	COMDAT ___local_stdio_printf_options
_TEXT	SEGMENT
___local_stdio_printf_options PROC			; COMDAT

; 74   :     static unsigned __int64 _OptionsStorage;
; 75   :     return &_OptionsStorage;

  00000	b8 00 00 00 00	 mov	 eax, OFFSET ?_OptionsStorage@?1??__local_stdio_printf_options@@9@4_KA ; `__local_stdio_printf_options'::`2'::_OptionsStorage

; 76   : }

  00005	c3		 ret	 0
___local_stdio_printf_options ENDP
_TEXT	ENDS
; Function compile flags: /Ogtp
; File c:\users\michel\desktop\source\gameserver\source\kanturuutil.cpp
;	COMDAT ?__empty_global_delete@@YAXPAXI@Z
_TEXT	SEGMENT
___formal$ = 8						; size = 4
___formal$ = 12						; size = 4
?__empty_global_delete@@YAXPAXI@Z PROC			; __empty_global_delete, COMDAT

  00000	c3		 ret	 0
?__empty_global_delete@@YAXPAXI@Z ENDP			; __empty_global_delete
_TEXT	ENDS
; Function compile flags: /Ogtp
; File c:\users\michel\desktop\source\gameserver\source\kanturuutil.cpp
;	COMDAT ?__empty_global_delete@@YAXPAX@Z
_TEXT	SEGMENT
___formal$ = 8						; size = 4
?__empty_global_delete@@YAXPAX@Z PROC			; __empty_global_delete, COMDAT

  00000	c3		 ret	 0
?__empty_global_delete@@YAXPAX@Z ENDP			; __empty_global_delete
_TEXT	ENDS
END
