; Listing generated by Microsoft (R) Optimizing Compiler Version 19.00.23506.0 

	TITLE	C:\Users\Michel\Desktop\Source\GameServer\Source\LifeStone.cpp
	.686P
	.XMM
	include listing.inc
	.model	flat

INCLUDELIB LIBCMT
INCLUDELIB OLDNAMES

PUBLIC	?__empty_global_delete@@YAXPAX@Z		; __empty_global_delete
PUBLIC	?__empty_global_delete@@YAXPAXI@Z		; __empty_global_delete
PUBLIC	??0CLifeStone@@QAE@XZ				; CLifeStone::CLifeStone
PUBLIC	??1CLifeStone@@UAE@XZ				; CLifeStone::~CLifeStone
PUBLIC	?CreateLifeStone@CLifeStone@@QAEHH@Z		; CLifeStone::CreateLifeStone
PUBLIC	?DeleteLifeStone@CLifeStone@@QAEHH@Z		; CLifeStone::DeleteLifeStone
PUBLIC	?SetReSpawnUserXY@CLifeStone@@QAEHH@Z		; CLifeStone::SetReSpawnUserXY
PUBLIC	?LifeStoneAct@CLifeStone@@QAEXH@Z		; CLifeStone::LifeStoneAct
PUBLIC	??_GCLifeStone@@UAEPAXI@Z			; CLifeStone::`scalar deleting destructor'
PUBLIC	??1OBJECTSTRUCT@@QAE@XZ				; OBJECTSTRUCT::~OBJECTSTRUCT
PUBLIC	??_EOBJECTSTRUCT@@QAEPAXI@Z			; OBJECTSTRUCT::`vector deleting destructor'
PUBLIC	??_7CLifeStone@@6B@				; CLifeStone::`vftable'
PUBLIC	?g_CsNPC_LifeStone@@3VCLifeStone@@A		; g_CsNPC_LifeStone
PUBLIC	??_C@_0EI@CHDCMOII@?$FLCastleSiege?$FN?5LifeStone?5is?5creat@ ; `string'
PUBLIC	??_C@_0CJ@GNLPCFHP@?$FLCastleSiege?$FN?5LifeStone?5is?5broke@ ; `string'
PUBLIC	??_R4CLifeStone@@6B@				; CLifeStone::`RTTI Complete Object Locator'
PUBLIC	??_R0?AVCLifeStone@@@8				; CLifeStone `RTTI Type Descriptor'
PUBLIC	??_R3CLifeStone@@8				; CLifeStone::`RTTI Class Hierarchy Descriptor'
PUBLIC	??_R2CLifeStone@@8				; CLifeStone::`RTTI Base Class Array'
PUBLIC	??_R1A@?0A@EA@CLifeStone@@8			; CLifeStone::`RTTI Base Class Descriptor at (0,-1,0,64)'
PUBLIC	__real@42c80000
EXTRN	??_M@YGXPAXIIP6EX0@Z@Z:PROC			; `eh vector destructor iterator'
EXTRN	??3@YAXPAXI@Z:PROC				; operator delete
EXTRN	??_V@YAXPAXI@Z:PROC				; operator delete[]
EXTRN	_atexit:PROC
EXTRN	__imp__GetTickCount@0:PROC
EXTRN	?Get@Message@@QAEPADH@Z:PROC			; Message::Get
EXTRN	??_ECLifeStone@@UAEPAXI@Z:PROC			; CLifeStone::`vector deleting destructor'
EXTRN	??1CSkillDelay@@UAE@XZ:PROC			; CSkillDelay::~CSkillDelay
EXTRN	??1TMonsterAIAgro@@UAE@XZ:PROC			; TMonsterAIAgro::~TMonsterAIAgro
EXTRN	?GCReFillSend@@YAXHGEEG@Z:PROC			; GCReFillSend
EXTRN	?GCManaSend@@YAXHFEEG@Z:PROC			; GCManaSend
EXTRN	?GCSendObjectCreationState@@YAXH@Z:PROC		; GCSendObjectCreationState
EXTRN	?gObjSetMonster@@YAHHH@Z:PROC			; gObjSetMonster
EXTRN	?gObjAddMonster@@YAFH@Z:PROC			; gObjAddMonster
EXTRN	?gObjDel@@YAFH@Z:PROC				; gObjDel
EXTRN	?gObjIsConnected@@YAHH@Z:PROC			; gObjIsConnected
EXTRN	?MsgOutput@@YAXHPADZZ:PROC			; MsgOutput
EXTRN	?GetAttr@MapClass@@QAEEHH@Z:PROC		; MapClass::GetAttr
EXTRN	?GetAttr@CMonsterAttr@@QAEPAUMONSTER_ATTRIBUTE@@H@Z:PROC ; CMonsterAttr::GetAttr
EXTRN	?GetCastleState@CCastleSiege@@QAEHXZ:PROC	; CCastleSiege::GetCastleState
EXTRN	@__security_check_cookie@4:PROC
EXTRN	___CxxFrameHandler3:PROC
EXTRN	??_7type_info@@6B@:QWORD			; type_info::`vftable'
EXTRN	?lMsg@@3VMessage@@A:BYTE			; lMsg
EXTRN	?LogAddTD@@3P6AXPADZZA:DWORD			; LogAddTD
EXTRN	?gObj@@3PAUOBJECTSTRUCT@@A:DWORD		; gObj
EXTRN	?MapC@@3PAVMapClass@@A:BYTE			; MapC
EXTRN	?gMAttr@@3VCMonsterAttr@@A:BYTE			; gMAttr
EXTRN	?g_CastleSiege@@3VCCastleSiege@@A:BYTE		; g_CastleSiege
EXTRN	___security_cookie:DWORD
EXTRN	__fltused:DWORD
_BSS	SEGMENT
?g_CsNPC_LifeStone@@3VCLifeStone@@A DD 01H DUP (?)	; g_CsNPC_LifeStone
_BSS	ENDS
CRT$XCU	SEGMENT
?g_CsNPC_LifeStone$initializer$@@3P6AXXZA DD FLAT:??__Eg_CsNPC_LifeStone@@YAXXZ ; g_CsNPC_LifeStone$initializer$
CRT$XCU	ENDS
;	COMDAT __real@42c80000
CONST	SEGMENT
__real@42c80000 DD 042c80000r			; 100
CONST	ENDS
;	COMDAT ??_R1A@?0A@EA@CLifeStone@@8
rdata$r	SEGMENT
??_R1A@?0A@EA@CLifeStone@@8 DD FLAT:??_R0?AVCLifeStone@@@8 ; CLifeStone::`RTTI Base Class Descriptor at (0,-1,0,64)'
	DD	00H
	DD	00H
	DD	0ffffffffH
	DD	00H
	DD	040H
	DD	FLAT:??_R3CLifeStone@@8
rdata$r	ENDS
;	COMDAT ??_R2CLifeStone@@8
rdata$r	SEGMENT
??_R2CLifeStone@@8 DD FLAT:??_R1A@?0A@EA@CLifeStone@@8	; CLifeStone::`RTTI Base Class Array'
rdata$r	ENDS
;	COMDAT ??_R3CLifeStone@@8
rdata$r	SEGMENT
??_R3CLifeStone@@8 DD 00H				; CLifeStone::`RTTI Class Hierarchy Descriptor'
	DD	00H
	DD	01H
	DD	FLAT:??_R2CLifeStone@@8
rdata$r	ENDS
;	COMDAT ??_R0?AVCLifeStone@@@8
data$r	SEGMENT
??_R0?AVCLifeStone@@@8 DD FLAT:??_7type_info@@6B@	; CLifeStone `RTTI Type Descriptor'
	DD	00H
	DB	'.?AVCLifeStone@@', 00H
data$r	ENDS
;	COMDAT ??_R4CLifeStone@@6B@
rdata$r	SEGMENT
??_R4CLifeStone@@6B@ DD 00H				; CLifeStone::`RTTI Complete Object Locator'
	DD	00H
	DD	00H
	DD	FLAT:??_R0?AVCLifeStone@@@8
	DD	FLAT:??_R3CLifeStone@@8
rdata$r	ENDS
;	COMDAT ??_C@_0CJ@GNLPCFHP@?$FLCastleSiege?$FN?5LifeStone?5is?5broke@
CONST	SEGMENT
??_C@_0CJ@GNLPCFHP@?$FLCastleSiege?$FN?5LifeStone?5is?5broke@ DB '[Castle'
	DB	'Siege] LifeStone is broken - [%s]', 00H	; `string'
CONST	ENDS
;	COMDAT ??_C@_0EI@CHDCMOII@?$FLCastleSiege?$FN?5LifeStone?5is?5creat@
CONST	SEGMENT
??_C@_0EI@CHDCMOII@?$FLCastleSiege?$FN?5LifeStone?5is?5creat@ DB '[Castle'
	DB	'Siege] LifeStone is created - [%s] [%s][%s] (Map:%d)(X:%d, Y:'
	DB	'%d)', 00H					; `string'
CONST	ENDS
;	COMDAT ??_7CLifeStone@@6B@
CONST	SEGMENT
??_7CLifeStone@@6B@ DD FLAT:??_R4CLifeStone@@6B@	; CLifeStone::`vftable'
	DD	FLAT:??_ECLifeStone@@UAEPAXI@Z
CONST	ENDS
;	COMDAT xdata$x
xdata$x	SEGMENT
__ehfuncinfo$??_EOBJECTSTRUCT@@QAEPAXI@Z DD 019930522H
	DD	00H
	DD	00H
	DD	2 DUP(00H)
	DD	2 DUP(00H)
	DD	00H
	DD	05H
xdata$x	ENDS
; Function compile flags: /Ogtp
;	COMDAT ??__Fg_CsNPC_LifeStone@@YAXXZ
text$yd	SEGMENT
??__Fg_CsNPC_LifeStone@@YAXXZ PROC			; `dynamic atexit destructor for 'g_CsNPC_LifeStone'', COMDAT
  00000	b9 00 00 00 00	 mov	 ecx, OFFSET ?g_CsNPC_LifeStone@@3VCLifeStone@@A ; g_CsNPC_LifeStone
  00005	e9 00 00 00 00	 jmp	 ??1CLifeStone@@UAE@XZ	; CLifeStone::~CLifeStone
??__Fg_CsNPC_LifeStone@@YAXXZ ENDP			; `dynamic atexit destructor for 'g_CsNPC_LifeStone''
text$yd	ENDS
; Function compile flags: /Ogtp
; File c:\users\michel\desktop\source\gameserver\source\lifestone.cpp
;	COMDAT ??__Eg_CsNPC_LifeStone@@YAXXZ
text$di	SEGMENT
??__Eg_CsNPC_LifeStone@@YAXXZ PROC			; `dynamic initializer for 'g_CsNPC_LifeStone'', COMDAT

; 17   : CLifeStone g_CsNPC_LifeStone;

  00000	b9 00 00 00 00	 mov	 ecx, OFFSET ?g_CsNPC_LifeStone@@3VCLifeStone@@A ; g_CsNPC_LifeStone
  00005	e8 00 00 00 00	 call	 ??0CLifeStone@@QAE@XZ	; CLifeStone::CLifeStone
  0000a	68 00 00 00 00	 push	 OFFSET ??__Fg_CsNPC_LifeStone@@YAXXZ ; `dynamic atexit destructor for 'g_CsNPC_LifeStone''
  0000f	e8 00 00 00 00	 call	 _atexit
  00014	59		 pop	 ecx
  00015	c3		 ret	 0
??__Eg_CsNPC_LifeStone@@YAXXZ ENDP			; `dynamic initializer for 'g_CsNPC_LifeStone''
text$di	ENDS
; Function compile flags: /Ogtp
;	COMDAT ??_EOBJECTSTRUCT@@QAEPAXI@Z
_TEXT	SEGMENT
__$EHRec$ = -12						; size = 12
___flags$ = 8						; size = 4
??_EOBJECTSTRUCT@@QAEPAXI@Z PROC			; OBJECTSTRUCT::`vector deleting destructor', COMDAT
; _this$ = ecx
  00000	55		 push	 ebp
  00001	8b ec		 mov	 ebp, esp
  00003	6a ff		 push	 -1
  00005	68 00 00 00 00	 push	 __ehhandler$??_EOBJECTSTRUCT@@QAEPAXI@Z
  0000a	64 a1 00 00 00
	00		 mov	 eax, DWORD PTR fs:0
  00010	50		 push	 eax
  00011	53		 push	 ebx
  00012	56		 push	 esi
  00013	57		 push	 edi
  00014	a1 00 00 00 00	 mov	 eax, DWORD PTR ___security_cookie
  00019	33 c5		 xor	 eax, ebp
  0001b	50		 push	 eax
  0001c	8d 45 f4	 lea	 eax, DWORD PTR __$EHRec$[ebp]
  0001f	64 a3 00 00 00
	00		 mov	 DWORD PTR fs:0, eax
  00025	8b f1		 mov	 esi, ecx
  00027	8b 5d 08	 mov	 ebx, DWORD PTR ___flags$[ebp]
  0002a	f6 c3 02	 test	 bl, 2
  0002d	74 44		 je	 SHORT $LN2@vector
  0002f	68 00 00 00 00	 push	 OFFSET ??1OBJECTSTRUCT@@QAE@XZ
  00034	ff 76 fc	 push	 DWORD PTR [esi-4]
  00037	8d 7e fc	 lea	 edi, DWORD PTR [esi-4]
  0003a	68 40 27 00 00	 push	 10048			; 00002740H
  0003f	56		 push	 esi
  00040	e8 00 00 00 00	 call	 ??_M@YGXPAXIIP6EX0@Z@Z
  00045	f6 c3 01	 test	 bl, 1
  00048	74 13		 je	 SHORT $LN3@vector
  0004a	69 0f 40 27 00
	00		 imul	 ecx, DWORD PTR [edi], 10048
  00050	83 c1 04	 add	 ecx, 4
  00053	51		 push	 ecx
  00054	57		 push	 edi
  00055	e8 00 00 00 00	 call	 ??_V@YAXPAXI@Z		; operator delete[]
  0005a	83 c4 08	 add	 esp, 8
$LN3@vector:
  0005d	8b c7		 mov	 eax, edi
  0005f	8b 4d f4	 mov	 ecx, DWORD PTR __$EHRec$[ebp]
  00062	64 89 0d 00 00
	00 00		 mov	 DWORD PTR fs:0, ecx
  00069	59		 pop	 ecx
  0006a	5f		 pop	 edi
  0006b	5e		 pop	 esi
  0006c	5b		 pop	 ebx
  0006d	8b e5		 mov	 esp, ebp
  0006f	5d		 pop	 ebp
  00070	c2 04 00	 ret	 4
$LN2@vector:
  00073	8d 8e ec 20 00
	00		 lea	 ecx, DWORD PTR [esi+8428]
  00079	e8 00 00 00 00	 call	 ??1TMonsterAIAgro@@UAE@XZ ; TMonsterAIAgro::~TMonsterAIAgro
  0007e	8d 8e 0c 16 00
	00		 lea	 ecx, DWORD PTR [esi+5644]
  00084	e8 00 00 00 00	 call	 ??1CSkillDelay@@UAE@XZ	; CSkillDelay::~CSkillDelay
  00089	f6 c3 01	 test	 bl, 1
  0008c	74 0e		 je	 SHORT $LN4@vector
  0008e	68 40 27 00 00	 push	 10048			; 00002740H
  00093	56		 push	 esi
  00094	e8 00 00 00 00	 call	 ??3@YAXPAXI@Z		; operator delete
  00099	83 c4 08	 add	 esp, 8
$LN4@vector:
  0009c	8b c6		 mov	 eax, esi
  0009e	8b 4d f4	 mov	 ecx, DWORD PTR __$EHRec$[ebp]
  000a1	64 89 0d 00 00
	00 00		 mov	 DWORD PTR fs:0, ecx
  000a8	59		 pop	 ecx
  000a9	5f		 pop	 edi
  000aa	5e		 pop	 esi
  000ab	5b		 pop	 ebx
  000ac	8b e5		 mov	 esp, ebp
  000ae	5d		 pop	 ebp
  000af	c2 04 00	 ret	 4
_TEXT	ENDS
;	COMDAT text$x
text$x	SEGMENT
__ehhandler$??_EOBJECTSTRUCT@@QAEPAXI@Z:
  00000	8b 54 24 08	 mov	 edx, DWORD PTR [esp+8]
  00004	8d 42 0c	 lea	 eax, DWORD PTR [edx+12]
  00007	8b 4a f0	 mov	 ecx, DWORD PTR [edx-16]
  0000a	33 c8		 xor	 ecx, eax
  0000c	e8 00 00 00 00	 call	 @__security_check_cookie@4
  00011	b8 00 00 00 00	 mov	 eax, OFFSET __ehfuncinfo$??_EOBJECTSTRUCT@@QAEPAXI@Z
  00016	e9 00 00 00 00	 jmp	 ___CxxFrameHandler3
text$x	ENDS
??_EOBJECTSTRUCT@@QAEPAXI@Z ENDP			; OBJECTSTRUCT::`vector deleting destructor'
; Function compile flags: /Ogtp
;	COMDAT ??1OBJECTSTRUCT@@QAE@XZ
_TEXT	SEGMENT
??1OBJECTSTRUCT@@QAE@XZ PROC				; OBJECTSTRUCT::~OBJECTSTRUCT, COMDAT
; _this$ = ecx
  00000	56		 push	 esi
  00001	8b f1		 mov	 esi, ecx
  00003	8d 8e ec 20 00
	00		 lea	 ecx, DWORD PTR [esi+8428]
  00009	e8 00 00 00 00	 call	 ??1TMonsterAIAgro@@UAE@XZ ; TMonsterAIAgro::~TMonsterAIAgro
  0000e	8d 8e 0c 16 00
	00		 lea	 ecx, DWORD PTR [esi+5644]
  00014	5e		 pop	 esi
  00015	e9 00 00 00 00	 jmp	 ??1CSkillDelay@@UAE@XZ	; CSkillDelay::~CSkillDelay
??1OBJECTSTRUCT@@QAE@XZ ENDP				; OBJECTSTRUCT::~OBJECTSTRUCT
_TEXT	ENDS
; Function compile flags: /Ogtp
;	COMDAT ??_GCLifeStone@@UAEPAXI@Z
_TEXT	SEGMENT
___flags$ = 8						; size = 4
??_GCLifeStone@@UAEPAXI@Z PROC				; CLifeStone::`scalar deleting destructor', COMDAT
; _this$ = ecx
  00000	55		 push	 ebp
  00001	8b ec		 mov	 ebp, esp
  00003	56		 push	 esi
  00004	8b f1		 mov	 esi, ecx
  00006	e8 00 00 00 00	 call	 ??1CLifeStone@@UAE@XZ	; CLifeStone::~CLifeStone
  0000b	f6 45 08 01	 test	 BYTE PTR ___flags$[ebp], 1
  0000f	74 0b		 je	 SHORT $LN4@scalar
  00011	6a 04		 push	 4
  00013	56		 push	 esi
  00014	e8 00 00 00 00	 call	 ??3@YAXPAXI@Z		; operator delete
  00019	83 c4 08	 add	 esp, 8
$LN4@scalar:
  0001c	8b c6		 mov	 eax, esi
  0001e	5e		 pop	 esi
  0001f	5d		 pop	 ebp
  00020	c2 04 00	 ret	 4
??_GCLifeStone@@UAEPAXI@Z ENDP				; CLifeStone::`scalar deleting destructor'
_TEXT	ENDS
; Function compile flags: /Ogtp
; File c:\users\michel\desktop\source\gameserver\source\lifestone.cpp
;	COMDAT ?LifeStoneAct@CLifeStone@@QAEXH@Z
_TEXT	SEGMENT
tv589 = -20						; size = 4
_bBpChange$1$ = -16					; size = 4
_bManaChange$1$ = -12					; size = 4
_tObjNum$1$ = -8					; size = 4
_bLifeChange$1$ = -4					; size = 4
tv618 = 8						; size = 4
_iIndex$ = 8						; size = 4
_btCreationState$1$ = 11				; size = 1
?LifeStoneAct@CLifeStone@@QAEXH@Z PROC			; CLifeStone::LifeStoneAct, COMDAT
; _this$ = ecx

; 179  : {

  00000	55		 push	 ebp
  00001	8b ec		 mov	 ebp, esp
  00003	83 ec 14	 sub	 esp, 20			; 00000014H
  00006	56		 push	 esi

; 180  : 	if(gObjIsConnected(iIndex) == FALSE)

  00007	8b 75 08	 mov	 esi, DWORD PTR _iIndex$[ebp]
  0000a	56		 push	 esi
  0000b	e8 00 00 00 00	 call	 ?gObjIsConnected@@YAHH@Z ; gObjIsConnected
  00010	83 c4 04	 add	 esp, 4
  00013	85 c0		 test	 eax, eax
  00015	0f 84 fb 02 00
	00		 je	 $LN3@LifeStoneA

; 181  : 		return;
; 182  : 
; 183  : 	LPOBJ lpObj = &gObj[iIndex];

  0001b	53		 push	 ebx
  0001c	69 de 40 27 00
	00		 imul	 ebx, esi, 10048
  00022	03 1d 00 00 00
	00		 add	 ebx, DWORD PTR ?gObj@@3PAUOBJECTSTRUCT@@A ; gObj

; 184  : 	lpObj->m_iCreatedActivationTime++;

  00028	ff 83 70 20 00
	00		 inc	 DWORD PTR [ebx+8304]
  0002e	8b 8b 70 20 00
	00		 mov	 ecx, DWORD PTR [ebx+8304]

; 185  : 
; 186  : 	BYTE btCreationState = lpObj->m_btCreationState;

  00034	8a 83 6d 20 00
	00		 mov	 al, BYTE PTR [ebx+8301]
  0003a	88 45 0b	 mov	 BYTE PTR _btCreationState$1$[ebp], al

; 187  : 
; 188  : 	if(lpObj->m_iCreatedActivationTime < 60)

  0003d	83 f9 3c	 cmp	 ecx, 60			; 0000003cH
  00040	7d 1b		 jge	 SHORT $LN6@LifeStoneA

; 189  : 	{
; 190  : 		lpObj->m_btCreationState = lpObj->m_iCreatedActivationTime / 12;

  00042	b8 ab aa aa 2a	 mov	 eax, 715827883		; 2aaaaaabH
  00047	f7 e9		 imul	 ecx
  00049	d1 fa		 sar	 edx, 1
  0004b	8b c2		 mov	 eax, edx
  0004d	c1 e8 1f	 shr	 eax, 31			; 0000001fH
  00050	03 c2		 add	 eax, edx
  00052	88 83 6d 20 00
	00		 mov	 BYTE PTR [ebx+8301], al

; 191  : 	}
; 192  : 	else

  00058	8a 45 0b	 mov	 al, BYTE PTR _btCreationState$1$[ebp]
  0005b	eb 07		 jmp	 SHORT $LN7@LifeStoneA
$LN6@LifeStoneA:

; 193  : 	{
; 194  : 		lpObj->m_btCreationState = 5;

  0005d	c6 83 6d 20 00
	00 05		 mov	 BYTE PTR [ebx+8301], 5
$LN7@LifeStoneA:

; 195  : 	}
; 196  : 
; 197  : 	if(btCreationState != lpObj->m_btCreationState)

  00064	3a 83 6d 20 00
	00		 cmp	 al, BYTE PTR [ebx+8301]
  0006a	74 09		 je	 SHORT $LN8@LifeStoneA

; 198  : 	{
; 199  : 		GCSendObjectCreationState(iIndex);

  0006c	56		 push	 esi
  0006d	e8 00 00 00 00	 call	 ?GCSendObjectCreationState@@YAXH@Z ; GCSendObjectCreationState
  00072	83 c4 04	 add	 esp, 4
$LN8@LifeStoneA:

; 200  : 	}
; 201  : 
; 202  : 	if(lpObj->m_btCreationState < 5)

  00075	80 bb 6d 20 00
	00 05		 cmp	 BYTE PTR [ebx+8301], 5
  0007c	0f 82 93 02 00
	00		 jb	 $LN30@LifeStoneA

; 203  : 		return;
; 204  : 
; 205  : 	if(lpObj->VPCount < 1)

  00082	83 bb cc 0f 00
	00 01		 cmp	 DWORD PTR [ebx+4044], 1
  00089	0f 8c 86 02 00
	00		 jl	 $LN30@LifeStoneA

; 206  : 		return;
; 207  : 
; 208  : 	int tObjNum = -1;
; 209  : 
; 210  : 	for(int i = 0; i < MAX_VIEWPORT; i++)

  0008f	f3 0f 10 15 00
	00 00 00	 movss	 xmm2, DWORD PTR __real@42c80000
  00097	8d 83 c6 08 00
	00		 lea	 eax, DWORD PTR [ebx+2246]
  0009d	b9 4b 00 00 00	 mov	 ecx, 75			; 0000004bH
  000a2	89 45 ec	 mov	 DWORD PTR tv589[ebp], eax
  000a5	89 4d 08	 mov	 DWORD PTR tv618[ebp], ecx
  000a8	57		 push	 edi
  000a9	0f 1f 80 00 00
	00 00		 npad	 7
$LL4@LifeStoneA:

; 211  : 	{
; 212  : 		tObjNum = lpObj->VpPlayer[i].number;

  000b0	0f bf 00	 movsx	 eax, WORD PTR [eax]
  000b3	89 45 f8	 mov	 DWORD PTR _tObjNum$1$[ebp], eax

; 213  : 
; 214  : 		if(tObjNum >= 0 
; 215  : 			&& gObj[tObjNum].Type == OBJ_USER
; 216  : 			&& gObj[tObjNum].Live != FALSE 
; 217  : 			&& gObj[tObjNum].m_btCsJoinSide == lpObj->m_btCsJoinSide
; 218  : 			&& abs(lpObj->Y - gObj[tObjNum].Y) <= 3
; 219  : 			&& abs(lpObj->X - gObj[tObjNum].X) <= 3)

  000b6	85 c0		 test	 eax, eax
  000b8	0f 88 39 02 00
	00		 js	 $LN2@LifeStoneA
  000be	8b 3d 00 00 00
	00		 mov	 edi, DWORD PTR ?gObj@@3PAUOBJECTSTRUCT@@A ; gObj
  000c4	69 f0 40 27 00
	00		 imul	 esi, eax, 10048
  000ca	80 7c 3e 50 01	 cmp	 BYTE PTR [esi+edi+80], 1
  000cf	0f 85 22 02 00
	00		 jne	 $LN2@LifeStoneA
  000d5	80 7c 3e 51 00	 cmp	 BYTE PTR [esi+edi+81], 0
  000da	0f 84 17 02 00
	00		 je	 $LN2@LifeStoneA
  000e0	8a 84 3e 5a 20
	00 00		 mov	 al, BYTE PTR [esi+edi+8282]
  000e7	3a 83 5a 20 00
	00		 cmp	 al, BYTE PTR [ebx+8282]
  000ed	0f 85 04 02 00
	00		 jne	 $LN2@LifeStoneA
  000f3	0f b6 8c 3e 21
	01 00 00	 movzx	 ecx, BYTE PTR [esi+edi+289]
  000fb	0f b6 83 21 01
	00 00		 movzx	 eax, BYTE PTR [ebx+289]
  00102	2b c1		 sub	 eax, ecx
  00104	99		 cdq
  00105	33 c2		 xor	 eax, edx
  00107	2b c2		 sub	 eax, edx
  00109	83 f8 03	 cmp	 eax, 3
  0010c	0f 8f e2 01 00
	00		 jg	 $LN29@LifeStoneA
  00112	0f b6 8c 3e 20
	01 00 00	 movzx	 ecx, BYTE PTR [esi+edi+288]
  0011a	0f b6 83 20 01
	00 00		 movzx	 eax, BYTE PTR [ebx+288]
  00121	2b c1		 sub	 eax, ecx
  00123	99		 cdq
  00124	33 c2		 xor	 eax, edx
  00126	2b c2		 sub	 eax, edx
  00128	83 f8 03	 cmp	 eax, 3
  0012b	0f 8f c3 01 00
	00		 jg	 $LN29@LifeStoneA

; 220  : 		{
; 221  : 			int bLifeChange = FALSE;
; 222  : 			int bManaChange = FALSE;
; 223  : 			int bBpChange = FALSE;
; 224  : 
; 225  : 			if(gObj[tObjNum].Life < gObj[tObjNum].MaxLife + gObj[tObjNum].AddLife)

  00131	66 0f 6e 84 3e
	24 01 00 00	 movd	 xmm0, DWORD PTR [esi+edi+292]
  0013a	f3 0f 10 8c 3e
	d8 00 00 00	 movss	 xmm1, DWORD PTR [esi+edi+216]
  00143	0f 5b c0	 cvtdq2ps xmm0, xmm0
  00146	c7 45 fc 00 00
	00 00		 mov	 DWORD PTR _bLifeChange$1$[ebp], 0
  0014d	c7 45 f4 00 00
	00 00		 mov	 DWORD PTR _bManaChange$1$[ebp], 0
  00154	c7 45 f0 00 00
	00 00		 mov	 DWORD PTR _bBpChange$1$[ebp], 0
  0015b	f3 0f 58 84 3e
	dc 00 00 00	 addss	 xmm0, DWORD PTR [esi+edi+220]
  00164	0f 2f c1	 comiss	 xmm0, xmm1
  00167	76 49		 jbe	 SHORT $LN12@LifeStoneA

; 226  : 			{
; 227  : 				gObj[tObjNum].Life += (gObj[tObjNum].MaxLife + gObj[tObjNum].AddLife) / 100.0f;// + gObj[tObjNum].Life;

  00169	f3 0f 5e c2	 divss	 xmm0, xmm2
  0016d	f3 0f 58 c1	 addss	 xmm0, xmm1
  00171	f3 0f 11 84 3e
	d8 00 00 00	 movss	 DWORD PTR [esi+edi+216], xmm0

; 228  : 
; 229  : 				if(gObj[tObjNum].Life > gObj[tObjNum].MaxLife + gObj[tObjNum].AddLife)

  0017a	a1 00 00 00 00	 mov	 eax, DWORD PTR ?gObj@@3PAUOBJECTSTRUCT@@A ; gObj
  0017f	66 0f 6e 8c 06
	24 01 00 00	 movd	 xmm1, DWORD PTR [esi+eax+292]
  00188	f3 0f 10 84 06
	d8 00 00 00	 movss	 xmm0, DWORD PTR [esi+eax+216]
  00191	0f 5b c9	 cvtdq2ps xmm1, xmm1
  00194	f3 0f 58 8c 06
	dc 00 00 00	 addss	 xmm1, DWORD PTR [esi+eax+220]
  0019d	0f 2f c1	 comiss	 xmm0, xmm1
  001a0	76 09		 jbe	 SHORT $LN13@LifeStoneA

; 230  : 				{
; 231  : 					gObj[tObjNum].Life = gObj[tObjNum].MaxLife + + gObj[tObjNum].AddLife;

  001a2	f3 0f 11 8c 06
	d8 00 00 00	 movss	 DWORD PTR [esi+eax+216], xmm1
$LN13@LifeStoneA:

; 232  : 				}
; 233  : 
; 234  : 				bLifeChange = TRUE;

  001ab	c7 45 fc 01 00
	00 00		 mov	 DWORD PTR _bLifeChange$1$[ebp], 1
$LN12@LifeStoneA:

; 235  : 			}
; 236  : 
; 237  : 			if(gObj[tObjNum].Mana < gObj[tObjNum].MaxMana + gObj[tObjNum].AddMana)

  001b2	a1 00 00 00 00	 mov	 eax, DWORD PTR ?gObj@@3PAUOBJECTSTRUCT@@A ; gObj
  001b7	66 0f 6e 84 06
	28 01 00 00	 movd	 xmm0, DWORD PTR [esi+eax+296]
  001c0	f3 0f 10 8c 06
	ec 00 00 00	 movss	 xmm1, DWORD PTR [esi+eax+236]
  001c9	0f 5b c0	 cvtdq2ps xmm0, xmm0
  001cc	f3 0f 58 84 06
	f0 00 00 00	 addss	 xmm0, DWORD PTR [esi+eax+240]
  001d5	0f 2f c1	 comiss	 xmm0, xmm1
  001d8	76 49		 jbe	 SHORT $LN14@LifeStoneA

; 238  : 			{
; 239  : 				gObj[tObjNum].Mana += (gObj[tObjNum].MaxMana + gObj[tObjNum].AddMana) / 100.0f;// + gObj[tObjNum].Mana;

  001da	f3 0f 5e c2	 divss	 xmm0, xmm2
  001de	f3 0f 58 c1	 addss	 xmm0, xmm1
  001e2	f3 0f 11 84 06
	ec 00 00 00	 movss	 DWORD PTR [esi+eax+236], xmm0

; 240  : 
; 241  : 				if(gObj[tObjNum].Mana > gObj[tObjNum].MaxMana + gObj[tObjNum].AddMana)

  001eb	a1 00 00 00 00	 mov	 eax, DWORD PTR ?gObj@@3PAUOBJECTSTRUCT@@A ; gObj
  001f0	66 0f 6e 8c 06
	28 01 00 00	 movd	 xmm1, DWORD PTR [esi+eax+296]
  001f9	f3 0f 10 84 06
	ec 00 00 00	 movss	 xmm0, DWORD PTR [esi+eax+236]
  00202	0f 5b c9	 cvtdq2ps xmm1, xmm1
  00205	f3 0f 58 8c 06
	f0 00 00 00	 addss	 xmm1, DWORD PTR [esi+eax+240]
  0020e	0f 2f c1	 comiss	 xmm0, xmm1
  00211	76 09		 jbe	 SHORT $LN15@LifeStoneA

; 242  : 				{
; 243  : 					gObj[tObjNum].Mana = gObj[tObjNum].MaxMana + gObj[tObjNum].AddMana;

  00213	f3 0f 11 8c 06
	ec 00 00 00	 movss	 DWORD PTR [esi+eax+236], xmm1
$LN15@LifeStoneA:

; 244  : 				}
; 245  : 
; 246  : 				bManaChange = TRUE;

  0021c	c7 45 f4 01 00
	00 00		 mov	 DWORD PTR _bManaChange$1$[ebp], 1
$LN14@LifeStoneA:

; 247  : 			}
; 248  : 
; 249  : 			if(gObj[tObjNum].BP < gObj[tObjNum].MaxBP + gObj[tObjNum].AddBP)

  00223	8b 3d 00 00 00
	00		 mov	 edi, DWORD PTR ?gObj@@3PAUOBJECTSTRUCT@@A ; gObj
  00229	8b 94 3e 0c 01
	00 00		 mov	 edx, DWORD PTR [esi+edi+268]
  00230	03 94 3e 08 01
	00 00		 add	 edx, DWORD PTR [esi+edi+264]
  00237	8b 8c 3e 04 01
	00 00		 mov	 ecx, DWORD PTR [esi+edi+260]
  0023e	3b ca		 cmp	 ecx, edx
  00240	7d 45		 jge	 SHORT $LN16@LifeStoneA

; 250  : 			{
; 251  : 				gObj[tObjNum].BP += (gObj[tObjNum].MaxBP + gObj[tObjNum].AddBP) / 100;// + gObj[tObjNum].BP;

  00242	b8 1f 85 eb 51	 mov	 eax, 1374389535		; 51eb851fH
  00247	f7 ea		 imul	 edx
  00249	c1 fa 05	 sar	 edx, 5
  0024c	8b c2		 mov	 eax, edx
  0024e	c1 e8 1f	 shr	 eax, 31			; 0000001fH
  00251	03 c2		 add	 eax, edx
  00253	03 c1		 add	 eax, ecx
  00255	89 84 3e 04 01
	00 00		 mov	 DWORD PTR [esi+edi+260], eax

; 252  : 
; 253  : 				if(gObj[tObjNum].BP > gObj[tObjNum].MaxBP + gObj[tObjNum].AddBP)

  0025c	8b 15 00 00 00
	00		 mov	 edx, DWORD PTR ?gObj@@3PAUOBJECTSTRUCT@@A ; gObj
  00262	8b 84 16 08 01
	00 00		 mov	 eax, DWORD PTR [esi+edx+264]
  00269	03 84 16 0c 01
	00 00		 add	 eax, DWORD PTR [esi+edx+268]
  00270	39 84 16 04 01
	00 00		 cmp	 DWORD PTR [esi+edx+260], eax
  00277	7e 07		 jle	 SHORT $LN17@LifeStoneA

; 254  : 				{
; 255  : 					gObj[tObjNum].BP = gObj[tObjNum].MaxBP + gObj[tObjNum].AddBP;

  00279	89 84 16 04 01
	00 00		 mov	 DWORD PTR [esi+edx+260], eax
$LN17@LifeStoneA:

; 256  : 				}
; 257  : 
; 258  : 				bBpChange = TRUE;

  00280	c7 45 f0 01 00
	00 00		 mov	 DWORD PTR _bBpChange$1$[ebp], 1
$LN16@LifeStoneA:

; 259  : 			}
; 260  : 
; 261  : 			if(bLifeChange != FALSE)

  00287	83 7d fc 00	 cmp	 DWORD PTR _bLifeChange$1$[ebp], 0

; 262  : 			{
; 263  : 				GCReFillSend(tObjNum,(WORD)gObj[tObjNum].Life,0xFF,1,gObj[tObjNum].iShield);

  0028b	8b 7d f8	 mov	 edi, DWORD PTR _tObjNum$1$[ebp]
  0028e	74 2c		 je	 SHORT $LN18@LifeStoneA
  00290	8b 0d 00 00 00
	00		 mov	 ecx, DWORD PTR ?gObj@@3PAUOBJECTSTRUCT@@A ; gObj
  00296	0f b7 84 0e 2c
	01 00 00	 movzx	 eax, WORD PTR [esi+ecx+300]
  0029e	50		 push	 eax
  0029f	f3 0f 2c 84 0e
	d8 00 00 00	 cvttss2si eax, DWORD PTR [esi+ecx+216]
  002a8	6a 01		 push	 1
  002aa	68 ff 00 00 00	 push	 255			; 000000ffH
  002af	0f b7 c0	 movzx	 eax, ax
  002b2	50		 push	 eax
  002b3	57		 push	 edi
  002b4	e8 00 00 00 00	 call	 ?GCReFillSend@@YAXHGEEG@Z ; GCReFillSend
  002b9	83 c4 14	 add	 esp, 20			; 00000014H
$LN18@LifeStoneA:

; 264  : 			}
; 265  : 
; 266  : 			if(bManaChange != FALSE || bBpChange != FALSE)

  002bc	83 7d f4 00	 cmp	 DWORD PTR _bManaChange$1$[ebp], 0
  002c0	75 06		 jne	 SHORT $LN20@LifeStoneA
  002c2	83 7d f0 00	 cmp	 DWORD PTR _bBpChange$1$[ebp], 0
  002c6	74 2c		 je	 SHORT $LN29@LifeStoneA
$LN20@LifeStoneA:

; 267  : 			{
; 268  : 				GCManaSend(tObjNum,(WORD)gObj[tObjNum].Mana,0xFF,0,gObj[tObjNum].BP);

  002c8	8b 0d 00 00 00
	00		 mov	 ecx, DWORD PTR ?gObj@@3PAUOBJECTSTRUCT@@A ; gObj
  002ce	0f b7 84 0e 04
	01 00 00	 movzx	 eax, WORD PTR [esi+ecx+260]
  002d6	50		 push	 eax
  002d7	f3 0f 2c 84 0e
	ec 00 00 00	 cvttss2si eax, DWORD PTR [esi+ecx+236]
  002e0	6a 00		 push	 0
  002e2	68 ff 00 00 00	 push	 255			; 000000ffH
  002e7	0f b7 c0	 movzx	 eax, ax
  002ea	50		 push	 eax
  002eb	57		 push	 edi
  002ec	e8 00 00 00 00	 call	 ?GCManaSend@@YAXHFEEG@Z	; GCManaSend
  002f1	83 c4 14	 add	 esp, 20			; 00000014H
$LN29@LifeStoneA:
  002f4	8b 4d 08	 mov	 ecx, DWORD PTR tv618[ebp]
$LN2@LifeStoneA:

; 206  : 		return;
; 207  : 
; 208  : 	int tObjNum = -1;
; 209  : 
; 210  : 	for(int i = 0; i < MAX_VIEWPORT; i++)

  002f7	8b 45 ec	 mov	 eax, DWORD PTR tv589[ebp]
  002fa	f3 0f 10 15 00
	00 00 00	 movss	 xmm2, DWORD PTR __real@42c80000
  00302	83 c0 0c	 add	 eax, 12			; 0000000cH
  00305	83 e9 01	 sub	 ecx, 1
  00308	89 45 ec	 mov	 DWORD PTR tv589[ebp], eax
  0030b	89 4d 08	 mov	 DWORD PTR tv618[ebp], ecx
  0030e	0f 85 9c fd ff
	ff		 jne	 $LL4@LifeStoneA
  00314	5f		 pop	 edi
$LN30@LifeStoneA:
  00315	5b		 pop	 ebx
$LN3@LifeStoneA:
  00316	5e		 pop	 esi

; 269  : 			}
; 270  : 		}
; 271  : 	}
; 272  : }

  00317	8b e5		 mov	 esp, ebp
  00319	5d		 pop	 ebp
  0031a	c2 04 00	 ret	 4
?LifeStoneAct@CLifeStone@@QAEXH@Z ENDP			; CLifeStone::LifeStoneAct
_TEXT	ENDS
; Function compile flags: /Ogtp
; File c:\users\michel\desktop\source\gameserver\source\lifestone.cpp
;	COMDAT ?SetReSpawnUserXY@CLifeStone@@QAEHH@Z
_TEXT	SEGMENT
_iUserIndex$ = 8					; size = 4
?SetReSpawnUserXY@CLifeStone@@QAEHH@Z PROC		; CLifeStone::SetReSpawnUserXY, COMDAT
; _this$ = ecx

; 154  : {

  00000	55		 push	 ebp
  00001	8b ec		 mov	 ebp, esp
  00003	56		 push	 esi

; 155  : 	if(gObjIsConnected(iUserIndex) == FALSE)

  00004	8b 75 08	 mov	 esi, DWORD PTR _iUserIndex$[ebp]
  00007	56		 push	 esi
  00008	e8 00 00 00 00	 call	 ?gObjIsConnected@@YAHH@Z ; gObjIsConnected
  0000d	83 c4 04	 add	 esp, 4
  00010	85 c0		 test	 eax, eax
  00012	75 07		 jne	 SHORT $LN2@SetReSpawn
$LN7@SetReSpawn:

; 156  : 		return false;

  00014	33 c0		 xor	 eax, eax
  00016	5e		 pop	 esi

; 176  : }

  00017	5d		 pop	 ebp
  00018	c2 04 00	 ret	 4
$LN2@SetReSpawn:

; 157  : 
; 158  : 	LPOBJ lpUser = &gObj[iUserIndex];

  0001b	69 ce 40 27 00
	00		 imul	 ecx, esi, 10048
  00021	03 0d 00 00 00
	00		 add	 ecx, DWORD PTR ?gObj@@3PAUOBJECTSTRUCT@@A ; gObj

; 159  : 
; 160  : 	if(lpUser->MapNumber != MAP_INDEX_CASTLESIEGE)

  00027	80 b9 23 01 00
	00 1e		 cmp	 BYTE PTR [ecx+291], 30	; 0000001eH
  0002e	75 e4		 jne	 SHORT $LN7@SetReSpawn

; 161  : 		return false;
; 162  : 
; 163  : 	if(lpUser->lpGuild == NULL)

  00030	8b 81 18 06 00
	00		 mov	 eax, DWORD PTR [ecx+1560]
  00036	85 c0		 test	 eax, eax
  00038	74 da		 je	 SHORT $LN7@SetReSpawn

; 164  : 		return false;
; 165  : 
; 166  : 	BYTE btCsJoinSide = lpUser->m_btCsJoinSide;
; 167  : 
; 168  : 	if(lpUser->lpGuild->lpLifeStone == NULL)

  0003a	8b 90 5c 07 00
	00		 mov	 edx, DWORD PTR [eax+1884]
  00040	85 d2		 test	 edx, edx
  00042	74 d0		 je	 SHORT $LN7@SetReSpawn

; 169  : 		return false;
; 170  : 
; 171  : 	LPOBJ lpLifeStone = lpUser->lpGuild->lpLifeStone;
; 172  : 	lpUser->MapNumber = MAP_INDEX_CASTLESIEGE;

  00044	c6 81 23 01 00
	00 1e		 mov	 BYTE PTR [ecx+291], 30	; 0000001eH

; 173  : 	lpUser->X = lpLifeStone->X;

  0004b	0f b6 82 20 01
	00 00		 movzx	 eax, BYTE PTR [edx+288]
  00052	88 81 20 01 00
	00		 mov	 BYTE PTR [ecx+288], al

; 174  : 	lpUser->Y = lpLifeStone->Y;

  00058	0f b6 82 21 01
	00 00		 movzx	 eax, BYTE PTR [edx+289]
  0005f	88 81 21 01 00
	00		 mov	 BYTE PTR [ecx+289], al

; 175  : 	return true;

  00065	b8 01 00 00 00	 mov	 eax, 1
  0006a	5e		 pop	 esi

; 176  : }

  0006b	5d		 pop	 ebp
  0006c	c2 04 00	 ret	 4
?SetReSpawnUserXY@CLifeStone@@QAEHH@Z ENDP		; CLifeStone::SetReSpawnUserXY
_TEXT	ENDS
; Function compile flags: /Ogtp
; File c:\users\michel\desktop\source\gameserver\source\lifestone.cpp
;	COMDAT ?DeleteLifeStone@CLifeStone@@QAEHH@Z
_TEXT	SEGMENT
_iIndex$ = 8						; size = 4
?DeleteLifeStone@CLifeStone@@QAEHH@Z PROC		; CLifeStone::DeleteLifeStone, COMDAT
; _this$ = ecx

; 136  : {

  00000	55		 push	 ebp
  00001	8b ec		 mov	 ebp, esp

; 137  : 	if(iIndex < 0 || iIndex > OBJMAX)

  00003	8b 45 08	 mov	 eax, DWORD PTR _iIndex$[ebp]
  00006	3d ec 2c 00 00	 cmp	 eax, 11500		; 00002cecH
  0000b	77 43		 ja	 SHORT $LN3@DeleteLife

; 140  : 	}
; 141  : 
; 142  : 	LPOBJ lpLifeStone = &gObj[iIndex];

  0000d	56		 push	 esi
  0000e	69 f0 40 27 00
	00		 imul	 esi, eax, 10048
  00014	03 35 00 00 00
	00		 add	 esi, DWORD PTR ?gObj@@3PAUOBJECTSTRUCT@@A ; gObj

; 143  : 
; 144  : 	if(lpLifeStone->lpGuild != NULL)

  0001a	8b 86 18 06 00
	00		 mov	 eax, DWORD PTR [esi+1560]
  00020	85 c0		 test	 eax, eax
  00022	74 22		 je	 SHORT $LN4@DeleteLife

; 145  : 	{
; 146  : 		LogAddTD("[CastleSiege] LifeStone is broken - [%s]",

  00024	83 c0 04	 add	 eax, 4
  00027	50		 push	 eax
  00028	68 00 00 00 00	 push	 OFFSET ??_C@_0CJ@GNLPCFHP@?$FLCastleSiege?$FN?5LifeStone?5is?5broke@
  0002d	ff 15 00 00 00
	00		 call	 DWORD PTR ?LogAddTD@@3P6AXPADZZA ; LogAddTD

; 147  : 			lpLifeStone->lpGuild->Name);
; 148  : 		lpLifeStone->lpGuild->lpLifeStone = NULL;

  00033	8b 86 18 06 00
	00		 mov	 eax, DWORD PTR [esi+1560]
  00039	83 c4 08	 add	 esp, 8
  0003c	c7 80 5c 07 00
	00 00 00 00 00	 mov	 DWORD PTR [eax+1884], 0
$LN4@DeleteLife:

; 149  : 	}
; 150  : 	return true;

  00046	b8 01 00 00 00	 mov	 eax, 1
  0004b	5e		 pop	 esi

; 151  : }

  0004c	5d		 pop	 ebp
  0004d	c2 04 00	 ret	 4
$LN3@DeleteLife:

; 138  : 	{
; 139  : 		return false;

  00050	33 c0		 xor	 eax, eax

; 151  : }

  00052	5d		 pop	 ebp
  00053	c2 04 00	 ret	 4
?DeleteLifeStone@CLifeStone@@QAEHH@Z ENDP		; CLifeStone::DeleteLifeStone
_TEXT	ENDS
; Function compile flags: /Ogtp
; File c:\users\michel\desktop\source\gameserver\source\lifestone.cpp
;	COMDAT ?CreateLifeStone@CLifeStone@@QAEHH@Z
_TEXT	SEGMENT
tv403 = -20						; size = 4
tv404 = -16						; size = 4
_lpMATTR$1$ = -12					; size = 4
_iMonsterIndex$1$ = -8					; size = 4
_cX$1$ = -2						; size = 1
_cY$1$ = -1						; size = 1
_iIndex$ = 8						; size = 4
?CreateLifeStone@CLifeStone@@QAEHH@Z PROC		; CLifeStone::CreateLifeStone, COMDAT
; _this$ = ecx

; 34   : {

  00000	55		 push	 ebp
  00001	8b ec		 mov	 ebp, esp
  00003	83 ec 14	 sub	 esp, 20			; 00000014H
  00006	53		 push	 ebx

; 35   : 	LPOBJ lpObj = &gObj[iIndex];

  00007	8b 1d 00 00 00
	00		 mov	 ebx, DWORD PTR ?gObj@@3PAUOBJECTSTRUCT@@A ; gObj

; 36   : 	int iMonsterIndex = -1;
; 37   : 	unsigned char cX = lpObj->X;
; 38   : 	unsigned char cY = lpObj->Y;
; 39   : 
; 40   : 	if(g_CastleSiege.GetCastleState() != CASTLESIEGE_STATE_STARTSIEGE)

  0000d	b9 00 00 00 00	 mov	 ecx, OFFSET ?g_CastleSiege@@3VCCastleSiege@@A ; g_CastleSiege
  00012	56		 push	 esi
  00013	8b 75 08	 mov	 esi, DWORD PTR _iIndex$[ebp]
  00016	57		 push	 edi
  00017	69 fe 40 27 00
	00		 imul	 edi, esi, 10048
  0001d	8a 84 1f 20 01
	00 00		 mov	 al, BYTE PTR [edi+ebx+288]
  00024	88 45 fe	 mov	 BYTE PTR _cX$1$[ebp], al
  00027	8a 84 1f 21 01
	00 00		 mov	 al, BYTE PTR [edi+ebx+289]
  0002e	88 45 ff	 mov	 BYTE PTR _cY$1$[ebp], al
  00031	e8 00 00 00 00	 call	 ?GetCastleState@CCastleSiege@@QAEHXZ ; CCastleSiege::GetCastleState
  00036	83 f8 07	 cmp	 eax, 7
  00039	74 0a		 je	 SHORT $LN2@CreateLife

; 41   : 	{
; 42   : 		MsgOutput(iIndex,lMsg.Get(MSGGET(6,109)));

  0003b	68 6d 06 00 00	 push	 1645			; 0000066dH

; 43   : 		return false;

  00040	e9 0a 03 00 00	 jmp	 $LN13@CreateLife
$LN2@CreateLife:

; 44   : 	}
; 45   : 
; 46   : 	if(lpObj->GuildStatus != G_MASTER)

  00045	81 bc 1f 28 06
	00 00 80 00 00
	00		 cmp	 DWORD PTR [edi+ebx+1576], 128 ; 00000080H
  00050	0f 85 0d 03 00
	00		 jne	 $LN14@CreateLife

; 47   : 		return false;
; 48   : 
; 49   : 	if(lpObj->m_btCsJoinSide < 2)

  00056	80 bc 1f 5a 20
	00 00 02	 cmp	 BYTE PTR [edi+ebx+8282], 2
  0005e	73 0a		 jae	 SHORT $LN4@CreateLife

; 50   : 	{
; 51   : 		MsgOutput(iIndex,lMsg.Get(MSGGET(6,105)));

  00060	68 69 06 00 00	 push	 1641			; 00000669H

; 52   : 		return false;

  00065	e9 e5 02 00 00	 jmp	 $LN13@CreateLife
$LN4@CreateLife:

; 53   : 	}
; 54   : 
; 55   : 	if(lpObj->lpGuild->lpLifeStone != NULL)

  0006a	8b 84 1f 18 06
	00 00		 mov	 eax, DWORD PTR [edi+ebx+1560]
  00071	83 b8 5c 07 00
	00 00		 cmp	 DWORD PTR [eax+1884], 0
  00078	74 0a		 je	 SHORT $LN5@CreateLife

; 56   : 	{
; 57   : 		MsgOutput(iIndex,lMsg.Get(MSGGET(6,106)));

  0007a	68 6a 06 00 00	 push	 1642			; 0000066aH

; 58   : 		return false;

  0007f	e9 cb 02 00 00	 jmp	 $LN13@CreateLife
$LN5@CreateLife:

; 59   : 	}
; 60   : 
; 61   : 	if(cX > 150 && cX < 210 && cY > 175 && cY < 230)

  00084	8a 4d fe	 mov	 cl, BYTE PTR _cX$1$[ebp]
  00087	8a 55 ff	 mov	 dl, BYTE PTR _cY$1$[ebp]
  0008a	8d 41 69	 lea	 eax, DWORD PTR [ecx+105]
  0008d	3c 3a		 cmp	 al, 58			; 0000003aH
  0008f	77 11		 ja	 SHORT $LN6@CreateLife
  00091	8d 42 50	 lea	 eax, DWORD PTR [edx+80]
  00094	3c 35		 cmp	 al, 53			; 00000035H
  00096	77 0a		 ja	 SHORT $LN6@CreateLife

; 62   : 	{
; 63   : 		MsgOutput(iIndex,lMsg.Get(MSGGET(6,108)));

  00098	68 6c 06 00 00	 push	 1644			; 0000066cH

; 64   : 		return false;

  0009d	e9 ad 02 00 00	 jmp	 $LN13@CreateLife
$LN6@CreateLife:

; 65   : 	}
; 66   : 
; 67   : 	unsigned char btMapAttr = MapC[lpObj->MapNumber].GetAttr(cX,cY);

  000a2	0f b6 c2	 movzx	 eax, dl
  000a5	0f b6 c9	 movzx	 ecx, cl
  000a8	50		 push	 eax
  000a9	89 45 f0	 mov	 DWORD PTR tv404[ebp], eax
  000ac	0f b6 84 1f 23
	01 00 00	 movzx	 eax, BYTE PTR [edi+ebx+291]
  000b4	89 4d ec	 mov	 DWORD PTR tv403[ebp], ecx
  000b7	51		 push	 ecx
  000b8	69 c8 28 38 05
	00		 imul	 ecx, eax, 342056
  000be	81 c1 00 00 00
	00		 add	 ecx, OFFSET ?MapC@@3PAVMapClass@@A ; MapC
  000c4	e8 00 00 00 00	 call	 ?GetAttr@MapClass@@QAEEHH@Z ; MapClass::GetAttr

; 68   : 
; 69   : 	if(gObj[iIndex].MapNumber != MAP_INDEX_CASTLESIEGE)

  000c9	a1 00 00 00 00	 mov	 eax, DWORD PTR ?gObj@@3PAUOBJECTSTRUCT@@A ; gObj
  000ce	80 bc 07 23 01
	00 00 1e	 cmp	 BYTE PTR [edi+eax+291], 30 ; 0000001eH
  000d6	74 0a		 je	 SHORT $LN7@CreateLife

; 70   : 	{
; 71   : 		MsgOutput(iIndex,lMsg.Get(MSGGET(6,91)));

  000d8	68 5b 06 00 00	 push	 1627			; 0000065bH

; 72   : 		return false;

  000dd	e9 6d 02 00 00	 jmp	 $LN13@CreateLife
$LN7@CreateLife:

; 73   : 	}
; 74   : 
; 75   : 	iMonsterIndex = gObjAddMonster(lpObj->MapNumber);

  000e2	0f b6 84 1f 23
	01 00 00	 movzx	 eax, BYTE PTR [edi+ebx+291]
  000ea	50		 push	 eax
  000eb	e8 00 00 00 00	 call	 ?gObjAddMonster@@YAFH@Z	; gObjAddMonster
  000f0	98		 cwde
  000f1	83 c4 04	 add	 esp, 4
  000f4	89 45 f8	 mov	 DWORD PTR _iMonsterIndex$1$[ebp], eax

; 76   : 
; 77   : 	if(iMonsterIndex >= 0)

  000f7	85 c0		 test	 eax, eax
  000f9	0f 88 4b 02 00
	00		 js	 $LN8@CreateLife

; 78   : 	{
; 79   : 		MONSTER_ATTRIBUTE * lpMATTR = gMAttr.GetAttr(278);

  000ff	68 16 01 00 00	 push	 278			; 00000116H
  00104	b9 00 00 00 00	 mov	 ecx, OFFSET ?gMAttr@@3VCMonsterAttr@@A ; gMAttr
  00109	e8 00 00 00 00	 call	 ?GetAttr@CMonsterAttr@@QAEPAUMONSTER_ATTRIBUTE@@H@Z ; CMonsterAttr::GetAttr

; 80   : 
; 81   : 		if(lpMATTR == NULL)
; 82   : 		{
; 83   : 			gObjDel(iMonsterIndex);

  0010e	8b 75 f8	 mov	 esi, DWORD PTR _iMonsterIndex$1$[ebp]
  00111	89 45 f4	 mov	 DWORD PTR _lpMATTR$1$[ebp], eax
  00114	85 c0		 test	 eax, eax
  00116	75 14		 jne	 SHORT $LN10@CreateLife
  00118	56		 push	 esi
  00119	e8 00 00 00 00	 call	 ?gObjDel@@YAFH@Z	; gObjDel
  0011e	83 c4 04	 add	 esp, 4

; 129  : 		return false;

  00121	33 c0		 xor	 eax, eax
  00123	5f		 pop	 edi
  00124	5e		 pop	 esi
  00125	5b		 pop	 ebx

; 133  : }

  00126	8b e5		 mov	 esp, ebp
  00128	5d		 pop	 ebp
  00129	c2 04 00	 ret	 4
$LN10@CreateLife:

; 84   : 			return false;
; 85   : 		}
; 86   : 
; 87   : 		gObjSetMonster(iMonsterIndex,278);

  0012c	68 16 01 00 00	 push	 278			; 00000116H
  00131	56		 push	 esi
  00132	e8 00 00 00 00	 call	 ?gObjSetMonster@@YAHHH@Z ; gObjSetMonster

; 88   : 		gObj[iMonsterIndex].Live = TRUE;

  00137	a1 00 00 00 00	 mov	 eax, DWORD PTR ?gObj@@3PAUOBJECTSTRUCT@@A ; gObj
  0013c	83 c4 08	 add	 esp, 8

; 89   : 		gObj[iMonsterIndex].Life = (float)lpMATTR->m_Hp;

  0013f	8b 4d f4	 mov	 ecx, DWORD PTR _lpMATTR$1$[ebp]
  00142	69 f6 40 27 00
	00		 imul	 esi, esi, 10048

; 90   : 		gObj[iMonsterIndex].MaxLife = (float)lpMATTR->m_Hp;
; 91   : 		gObj[iMonsterIndex].m_PosNum = -1;
; 92   : 		gObj[iMonsterIndex].X = cX;
; 93   : 		gObj[iMonsterIndex].Y = cY;

  00148	8a 55 ff	 mov	 dl, BYTE PTR _cY$1$[ebp]
  0014b	c6 44 06 51 01	 mov	 BYTE PTR [esi+eax+81], 1
  00150	66 0f 6e 41 50	 movd	 xmm0, DWORD PTR [ecx+80]
  00155	a1 00 00 00 00	 mov	 eax, DWORD PTR ?gObj@@3PAUOBJECTSTRUCT@@A ; gObj
  0015a	0f 5b c0	 cvtdq2ps xmm0, xmm0
  0015d	f3 0f 11 84 06
	d8 00 00 00	 movss	 DWORD PTR [esi+eax+216], xmm0
  00166	66 0f 6e 41 50	 movd	 xmm0, DWORD PTR [ecx+80]
  0016b	83 c9 ff	 or	 ecx, -1
  0016e	a1 00 00 00 00	 mov	 eax, DWORD PTR ?gObj@@3PAUOBJECTSTRUCT@@A ; gObj
  00173	0f 5b c0	 cvtdq2ps xmm0, xmm0
  00176	f3 0f 11 84 06
	dc 00 00 00	 movss	 DWORD PTR [esi+eax+220], xmm0
  0017f	a1 00 00 00 00	 mov	 eax, DWORD PTR ?gObj@@3PAUOBJECTSTRUCT@@A ; gObj
  00184	66 89 8c 06 98
	05 00 00	 mov	 WORD PTR [esi+eax+1432], cx
  0018c	a1 00 00 00 00	 mov	 eax, DWORD PTR ?gObj@@3PAUOBJECTSTRUCT@@A ; gObj
  00191	8a 4d fe	 mov	 cl, BYTE PTR _cX$1$[ebp]
  00194	88 8c 06 20 01
	00 00		 mov	 BYTE PTR [esi+eax+288], cl
  0019b	a1 00 00 00 00	 mov	 eax, DWORD PTR ?gObj@@3PAUOBJECTSTRUCT@@A ; gObj
  001a0	88 94 06 21 01
	00 00		 mov	 BYTE PTR [esi+eax+289], dl

; 94   : 		gObj[iMonsterIndex].MTX = cX;

  001a7	a1 00 00 00 00	 mov	 eax, DWORD PTR ?gObj@@3PAUOBJECTSTRUCT@@A ; gObj
  001ac	88 8c 06 54 01
	00 00		 mov	 BYTE PTR [esi+eax+340], cl

; 95   : 		gObj[iMonsterIndex].MTY = cY;

  001b3	a1 00 00 00 00	 mov	 eax, DWORD PTR ?gObj@@3PAUOBJECTSTRUCT@@A ; gObj
  001b8	88 94 06 55 01
	00 00		 mov	 BYTE PTR [esi+eax+341], dl

; 96   : 		gObj[iMonsterIndex].TX = cX;

  001bf	a1 00 00 00 00	 mov	 eax, DWORD PTR ?gObj@@3PAUOBJECTSTRUCT@@A ; gObj
  001c4	88 8c 06 52 01
	00 00		 mov	 BYTE PTR [esi+eax+338], cl

; 97   : 		gObj[iMonsterIndex].TY = cY;

  001cb	a1 00 00 00 00	 mov	 eax, DWORD PTR ?gObj@@3PAUOBJECTSTRUCT@@A ; gObj
  001d0	88 94 06 53 01
	00 00		 mov	 BYTE PTR [esi+eax+339], dl

; 98   : 		gObj[iMonsterIndex].m_OldX = cX;

  001d7	a1 00 00 00 00	 mov	 eax, DWORD PTR ?gObj@@3PAUOBJECTSTRUCT@@A ; gObj
  001dc	88 8c 06 50 01
	00 00		 mov	 BYTE PTR [esi+eax+336], cl

; 99   : 		gObj[iMonsterIndex].m_OldY = cY;

  001e3	a1 00 00 00 00	 mov	 eax, DWORD PTR ?gObj@@3PAUOBJECTSTRUCT@@A ; gObj
  001e8	88 94 06 51 01
	00 00		 mov	 BYTE PTR [esi+eax+337], dl

; 100  : 		gObj[iMonsterIndex].StartX = cX;

  001ef	a1 00 00 00 00	 mov	 eax, DWORD PTR ?gObj@@3PAUOBJECTSTRUCT@@A ; gObj
  001f4	88 8c 06 4e 01
	00 00		 mov	 BYTE PTR [esi+eax+334], cl

; 101  : 		gObj[iMonsterIndex].StartY = cY;

  001fb	a1 00 00 00 00	 mov	 eax, DWORD PTR ?gObj@@3PAUOBJECTSTRUCT@@A ; gObj
  00200	88 94 06 4f 01
	00 00		 mov	 BYTE PTR [esi+eax+335], dl

; 102  : 		gObj[iMonsterIndex].MapNumber = lpObj->MapNumber;

  00207	a1 00 00 00 00	 mov	 eax, DWORD PTR ?gObj@@3PAUOBJECTSTRUCT@@A ; gObj
  0020c	0f b6 8c 1f 23
	01 00 00	 movzx	 ecx, BYTE PTR [edi+ebx+291]
  00214	88 8c 06 23 01
	00 00		 mov	 BYTE PTR [esi+eax+291], cl

; 103  : 		gObj[iMonsterIndex].m_MoveRange = 0;

  0021b	33 c9		 xor	 ecx, ecx
  0021d	a1 00 00 00 00	 mov	 eax, DWORD PTR ?gObj@@3PAUOBJECTSTRUCT@@A ; gObj
  00222	66 89 8c 06 8e
	06 00 00	 mov	 WORD PTR [esi+eax+1678], cx

; 104  : 		gObj[iMonsterIndex].Level = lpMATTR->m_Level;

  0022a	8b 45 f4	 mov	 eax, DWORD PTR _lpMATTR$1$[ebp]
  0022d	66 8b 48 44	 mov	 cx, WORD PTR [eax+68]
  00231	a1 00 00 00 00	 mov	 eax, DWORD PTR ?gObj@@3PAUOBJECTSTRUCT@@A ; gObj
  00236	66 89 8c 06 96
	00 00 00	 mov	 WORD PTR [esi+eax+150], cx

; 105  : 		gObj[iMonsterIndex].Type = OBJ_MONSTER;

  0023e	a1 00 00 00 00	 mov	 eax, DWORD PTR ?gObj@@3PAUOBJECTSTRUCT@@A ; gObj
  00243	c6 44 06 50 02	 mov	 BYTE PTR [esi+eax+80], 2

; 106  : 		gObj[iMonsterIndex].MaxRegenTime = 1000;

  00248	a1 00 00 00 00	 mov	 eax, DWORD PTR ?gObj@@3PAUOBJECTSTRUCT@@A ; gObj
  0024d	c7 84 06 94 05
	00 00 e8 03 00
	00		 mov	 DWORD PTR [esi+eax+1428], 1000 ; 000003e8H

; 107  : 		gObj[iMonsterIndex].Dir = 1;

  00258	a1 00 00 00 00	 mov	 eax, DWORD PTR ?gObj@@3PAUOBJECTSTRUCT@@A ; gObj
  0025d	c6 84 06 22 01
	00 00 01	 mov	 BYTE PTR [esi+eax+290], 1

; 108  : 		gObj[iMonsterIndex].RegenTime = GetTickCount();

  00265	ff 15 00 00 00
	00		 call	 DWORD PTR __imp__GetTickCount@0
  0026b	8b 0d 00 00 00
	00		 mov	 ecx, DWORD PTR ?gObj@@3PAUOBJECTSTRUCT@@A ; gObj

; 109  : 		gObj[iMonsterIndex].m_Attribute = 0;
; 110  : 		gObj[iMonsterIndex].DieRegen = FALSE;
; 111  : 		gObj[iMonsterIndex].m_btCsNpcType = 3;
; 112  : 		gObj[iMonsterIndex].m_btCsJoinSide = lpObj->m_btCsJoinSide;
; 113  : 		gObj[iMonsterIndex].lpGuild = lpObj->lpGuild;
; 114  : 		gObj[iMonsterIndex].m_btCreationState = 0;
; 115  : 
; 116  : 		lpObj->lpGuild->lpLifeStone = &gObj[iMonsterIndex];
; 117  : 
; 118  : 		MsgOutput(iIndex,lMsg.Get(MSGGET(6,110)));

  00271	68 6e 06 00 00	 push	 1646			; 0000066eH
  00276	89 84 0e 90 05
	00 00		 mov	 DWORD PTR [esi+ecx+1424], eax
  0027d	33 c9		 xor	 ecx, ecx
  0027f	a1 00 00 00 00	 mov	 eax, DWORD PTR ?gObj@@3PAUOBJECTSTRUCT@@A ; gObj
  00284	66 89 8c 06 96
	06 00 00	 mov	 WORD PTR [esi+eax+1686], cx
  0028c	a1 00 00 00 00	 mov	 eax, DWORD PTR ?gObj@@3PAUOBJECTSTRUCT@@A ; gObj
  00291	88 8c 06 8a 05
	00 00		 mov	 BYTE PTR [esi+eax+1418], cl
  00298	a1 00 00 00 00	 mov	 eax, DWORD PTR ?gObj@@3PAUOBJECTSTRUCT@@A ; gObj
  0029d	c6 84 06 50 20
	00 00 03	 mov	 BYTE PTR [esi+eax+8272], 3
  002a5	a1 00 00 00 00	 mov	 eax, DWORD PTR ?gObj@@3PAUOBJECTSTRUCT@@A ; gObj
  002aa	0f b6 8c 1f 5a
	20 00 00	 movzx	 ecx, BYTE PTR [edi+ebx+8282]
  002b2	88 8c 06 5a 20
	00 00		 mov	 BYTE PTR [esi+eax+8282], cl
  002b9	a1 00 00 00 00	 mov	 eax, DWORD PTR ?gObj@@3PAUOBJECTSTRUCT@@A ; gObj
  002be	8b 8c 1f 18 06
	00 00		 mov	 ecx, DWORD PTR [edi+ebx+1560]
  002c5	89 8c 06 18 06
	00 00		 mov	 DWORD PTR [esi+eax+1560], ecx
  002cc	a1 00 00 00 00	 mov	 eax, DWORD PTR ?gObj@@3PAUOBJECTSTRUCT@@A ; gObj
  002d1	c6 84 06 6d 20
	00 00 00	 mov	 BYTE PTR [esi+eax+8301], 0
  002d9	8b 0d 00 00 00
	00		 mov	 ecx, DWORD PTR ?gObj@@3PAUOBJECTSTRUCT@@A ; gObj
  002df	8b 84 1f 18 06
	00 00		 mov	 eax, DWORD PTR [edi+ebx+1560]
  002e6	03 ce		 add	 ecx, esi
  002e8	89 88 5c 07 00
	00		 mov	 DWORD PTR [eax+1884], ecx
  002ee	b9 00 00 00 00	 mov	 ecx, OFFSET ?lMsg@@3VMessage@@A ; lMsg
  002f3	e8 00 00 00 00	 call	 ?Get@Message@@QAEPADH@Z	; Message::Get
  002f8	50		 push	 eax
  002f9	ff 75 08	 push	 DWORD PTR _iIndex$[ebp]
  002fc	e8 00 00 00 00	 call	 ?MsgOutput@@YAXHPADZZ	; MsgOutput

; 119  : 
; 120  : 		LogAddTD("[CastleSiege] LifeStone is created - [%s] [%s][%s] (Map:%d)(X:%d, Y:%d)",

  00301	ff 75 f0	 push	 DWORD PTR tv404[ebp]
  00304	0f b6 84 1f 23
	01 00 00	 movzx	 eax, BYTE PTR [edi+ebx+291]
  0030c	ff 75 ec	 push	 DWORD PTR tv403[ebp]
  0030f	50		 push	 eax
  00310	8d 43 5d	 lea	 eax, DWORD PTR [ebx+93]
  00313	03 c7		 add	 eax, edi
  00315	50		 push	 eax
  00316	8d 43 52	 lea	 eax, DWORD PTR [ebx+82]
  00319	03 c7		 add	 eax, edi
  0031b	50		 push	 eax
  0031c	8b 84 1f 18 06
	00 00		 mov	 eax, DWORD PTR [edi+ebx+1560]
  00323	83 c0 04	 add	 eax, 4
  00326	50		 push	 eax
  00327	68 00 00 00 00	 push	 OFFSET ??_C@_0EI@CHDCMOII@?$FLCastleSiege?$FN?5LifeStone?5is?5creat@
  0032c	ff 15 00 00 00
	00		 call	 DWORD PTR ?LogAddTD@@3P6AXPADZZA ; LogAddTD
  00332	83 c4 24	 add	 esp, 36			; 00000024H

; 130  : 	}
; 131  : 
; 132  : 	return true;

  00335	b8 01 00 00 00	 mov	 eax, 1
  0033a	fe 84 1f 6c 20
	00 00		 inc	 BYTE PTR [edi+ebx+8300]
  00341	5f		 pop	 edi
  00342	5e		 pop	 esi
  00343	5b		 pop	 ebx

; 133  : }

  00344	8b e5		 mov	 esp, ebp
  00346	5d		 pop	 ebp
  00347	c2 04 00	 ret	 4
$LN8@CreateLife:

; 121  : 			lpObj->lpGuild->Name,lpObj->AccountID,lpObj->Name,lpObj->MapNumber,cX,cY);
; 122  : 
; 123  : 		lpObj->m_btLifeStoneCount++;
; 124  : 
; 125  : 	}
; 126  : 	else
; 127  : 	{
; 128  : 		MsgOutput(iIndex,lMsg.Get(MSGGET(6,111)));

  0034a	68 6f 06 00 00	 push	 1647			; 0000066fH
$LN13@CreateLife:
  0034f	b9 00 00 00 00	 mov	 ecx, OFFSET ?lMsg@@3VMessage@@A ; lMsg
  00354	e8 00 00 00 00	 call	 ?Get@Message@@QAEPADH@Z	; Message::Get
  00359	50		 push	 eax
  0035a	56		 push	 esi
  0035b	e8 00 00 00 00	 call	 ?MsgOutput@@YAXHPADZZ	; MsgOutput
  00360	83 c4 08	 add	 esp, 8
$LN14@CreateLife:

; 129  : 		return false;

  00363	5f		 pop	 edi
  00364	5e		 pop	 esi
  00365	33 c0		 xor	 eax, eax
  00367	5b		 pop	 ebx

; 133  : }

  00368	8b e5		 mov	 esp, ebp
  0036a	5d		 pop	 ebp
  0036b	c2 04 00	 ret	 4
?CreateLifeStone@CLifeStone@@QAEHH@Z ENDP		; CLifeStone::CreateLifeStone
_TEXT	ENDS
; Function compile flags: /Ogtp
; File c:\users\michel\desktop\source\gameserver\source\lifestone.cpp
;	COMDAT ??1CLifeStone@@UAE@XZ
_TEXT	SEGMENT
??1CLifeStone@@UAE@XZ PROC				; CLifeStone::~CLifeStone, COMDAT
; _this$ = ecx

; 25   : {

  00000	c7 01 00 00 00
	00		 mov	 DWORD PTR [ecx], OFFSET ??_7CLifeStone@@6B@

; 26   : 
; 27   : }

  00006	c3		 ret	 0
??1CLifeStone@@UAE@XZ ENDP				; CLifeStone::~CLifeStone
_TEXT	ENDS
; Function compile flags: /Ogtp
; File c:\users\michel\desktop\source\gameserver\source\lifestone.cpp
;	COMDAT ??0CLifeStone@@QAE@XZ
_TEXT	SEGMENT
??0CLifeStone@@QAE@XZ PROC				; CLifeStone::CLifeStone, COMDAT
; _this$ = ecx

; 20   : {

  00000	c7 01 00 00 00
	00		 mov	 DWORD PTR [ecx], OFFSET ??_7CLifeStone@@6B@

; 21   : 
; 22   : }

  00006	8b c1		 mov	 eax, ecx
  00008	c3		 ret	 0
??0CLifeStone@@QAE@XZ ENDP				; CLifeStone::CLifeStone
_TEXT	ENDS
; Function compile flags: /Ogtp
; File c:\users\michel\desktop\source\gameserver\source\lifestone.cpp
;	COMDAT ?__empty_global_delete@@YAXPAXI@Z
_TEXT	SEGMENT
___formal$ = 8						; size = 4
___formal$ = 12						; size = 4
?__empty_global_delete@@YAXPAXI@Z PROC			; __empty_global_delete, COMDAT

  00000	c3		 ret	 0
?__empty_global_delete@@YAXPAXI@Z ENDP			; __empty_global_delete
_TEXT	ENDS
; Function compile flags: /Ogtp
; File c:\users\michel\desktop\source\gameserver\source\lifestone.cpp
;	COMDAT ?__empty_global_delete@@YAXPAX@Z
_TEXT	SEGMENT
___formal$ = 8						; size = 4
?__empty_global_delete@@YAXPAX@Z PROC			; __empty_global_delete, COMDAT

; 275  : #endif

  00000	c3		 ret	 0
?__empty_global_delete@@YAXPAX@Z ENDP			; __empty_global_delete
_TEXT	ENDS
END
