; Listing generated by Microsoft (R) Optimizing Compiler Version 19.00.23506.0 

	TITLE	C:\Users\Michel\Desktop\Source\GameServer\Source\MasterLevelSkillTreeSystem.cpp
	.686P
	.XMM
	include listing.inc
	.model	flat

INCLUDELIB LIBCMT
INCLUDELIB OLDNAMES

PUBLIC	?CHARACTER_TABLE@@3PAU_stCharacterTable@@A	; CHARACTER_TABLE
_DATA	SEGMENT
?CHARACTER_TABLE@@3PAU_stCharacterTable@@A DD 02H	; CHARACTER_TABLE
	DD	00H
	DD	01H
	DD	01H
	DD	04H
	DD	02H
	DD	010H
	DD	03H
	DD	020H
	DD	04H
	DD	08H
	DD	05H
	DD	040H
	DD	06H
_DATA	ENDS
PUBLIC	??_H@YGXPAXIIP6EPAX0@Z@Z			; `vector constructor iterator'
PUBLIC	?__empty_global_delete@@YAXPAX@Z		; __empty_global_delete
PUBLIC	?__empty_global_delete@@YAXPAXI@Z		; __empty_global_delete
PUBLIC	___local_stdio_printf_options
PUBLIC	??$__vcrt_va_start_verify_argument_type@QBD@@YAXXZ ; __vcrt_va_start_verify_argument_type<char const * const>
PUBLIC	_sprintf
PUBLIC	??1OBJECTSTRUCT@@QAE@XZ				; OBJECTSTRUCT::~OBJECTSTRUCT
PUBLIC	??_EOBJECTSTRUCT@@QAEPAXI@Z			; OBJECTSTRUCT::`vector deleting destructor'
PUBLIC	??0CMasterLevelSkillTreeSystem@@QAE@XZ		; CMasterLevelSkillTreeSystem::CMasterLevelSkillTreeSystem
PUBLIC	??1CMasterLevelSkillTreeSystem@@UAE@XZ		; CMasterLevelSkillTreeSystem::~CMasterLevelSkillTreeSystem
PUBLIC	?Init@CMasterLevelSkillTreeSystem@@QAEXXZ	; CMasterLevelSkillTreeSystem::Init
PUBLIC	?Load@CMasterLevelSkillTreeSystem@@QAEXPBD@Z	; CMasterLevelSkillTreeSystem::Load
PUBLIC	?InitPassiveSkillData@CMasterLevelSkillTreeSystem@@QAEXPAUOBJECTSTRUCT@@@Z ; CMasterLevelSkillTreeSystem::InitPassiveSkillData
PUBLIC	?CalcPassiveSkillData@CMasterLevelSkillTreeSystem@@QAEXPAUOBJECTSTRUCT@@HH@Z ; CMasterLevelSkillTreeSystem::CalcPassiveSkillData
PUBLIC	?CheckSkillCondition@CMasterLevelSkillTreeSystem@@QAEHPAUOBJECTSTRUCT@@HH@Z ; CMasterLevelSkillTreeSystem::CheckSkillCondition
PUBLIC	?CheckCompleteBrandOfSkill@CMasterLevelSkillTreeSystem@@QAEHPAUOBJECTSTRUCT@@H@Z ; CMasterLevelSkillTreeSystem::CheckCompleteBrandOfSkill
PUBLIC	?CheckMasterLevelSkill@CMasterLevelSkillTreeSystem@@QAEHH@Z ; CMasterLevelSkillTreeSystem::CheckMasterLevelSkill
PUBLIC	?IsExistMLSBasedSkill@CMasterLevelSkillTreeSystem@@QAEHPAUOBJECTSTRUCT@@H@Z ; CMasterLevelSkillTreeSystem::IsExistMLSBasedSkill
PUBLIC	?GetBaseMasterLevelSkill@CMasterLevelSkillTreeSystem@@QAEHH@Z ; CMasterLevelSkillTreeSystem::GetBaseMasterLevelSkill
PUBLIC	?gObjMagicAdd_MLS@CMasterLevelSkillTreeSystem@@QAEHPAUOBJECTSTRUCT@@HH@Z ; CMasterLevelSkillTreeSystem::gObjMagicAdd_MLS
PUBLIC	?CGReqGetMasterLevelSkillTree@CMasterLevelSkillTreeSystem@@QAEXH@Z ; CMasterLevelSkillTreeSystem::CGReqGetMasterLevelSkillTree
PUBLIC	?CGReqGetMasterLevelSkill@CMasterLevelSkillTreeSystem@@QAEXPAUPMSG_REQ_MASTERLEVEL_SKILL@@H@Z ; CMasterLevelSkillTreeSystem::CGReqGetMasterLevelSkill
PUBLIC	?RunningSkill_MLS@CMasterLevelSkillTreeSystem@@QAEHPAUOBJECTSTRUCT@@HPAVCMagicInf@@HEEEE@Z ; CMasterLevelSkillTreeSystem::RunningSkill_MLS
PUBLIC	?MLS_WizardMagicDefense@CMasterLevelSkillTreeSystem@@QAEXPAUOBJECTSTRUCT@@HPAVCMagicInf@@@Z ; CMasterLevelSkillTreeSystem::MLS_WizardMagicDefense
PUBLIC	?MLS_Healing@CMasterLevelSkillTreeSystem@@QAEXPAUOBJECTSTRUCT@@HPAVCMagicInf@@@Z ; CMasterLevelSkillTreeSystem::MLS_Healing
PUBLIC	?MLS_Wheel@CMasterLevelSkillTreeSystem@@QAEXPAUOBJECTSTRUCT@@PAVCMagicInf@@HH@Z ; CMasterLevelSkillTreeSystem::MLS_Wheel
PUBLIC	?MLS_SkillSword4@CMasterLevelSkillTreeSystem@@QAEXPAUOBJECTSTRUCT@@PAVCMagicInf@@HH@Z ; CMasterLevelSkillTreeSystem::MLS_SkillSword4
PUBLIC	?MLS_SkillSword4_Magumsa@CMasterLevelSkillTreeSystem@@QAEXPAUOBJECTSTRUCT@@PAVCMagicInf@@HH@Z ; CMasterLevelSkillTreeSystem::MLS_SkillSword4_Magumsa
PUBLIC	?MLS_SkillSword5@CMasterLevelSkillTreeSystem@@QAEXPAUOBJECTSTRUCT@@PAVCMagicInf@@HH@Z ; CMasterLevelSkillTreeSystem::MLS_SkillSword5
PUBLIC	?MLS_SkillSword1@CMasterLevelSkillTreeSystem@@QAEXPAUOBJECTSTRUCT@@PAVCMagicInf@@HH@Z ; CMasterLevelSkillTreeSystem::MLS_SkillSword1
PUBLIC	?MLS_SkillSword2@CMasterLevelSkillTreeSystem@@QAEXPAUOBJECTSTRUCT@@PAVCMagicInf@@HH@Z ; CMasterLevelSkillTreeSystem::MLS_SkillSword2
PUBLIC	?MLS_SkillStrengthenDesruction@CMasterLevelSkillTreeSystem@@QAEHPAUOBJECTSTRUCT@@PAVCMagicInf@@EEHH@Z ; CMasterLevelSkillTreeSystem::MLS_SkillStrengthenDesruction
PUBLIC	?MLS_KnightSkillAddLife@CMasterLevelSkillTreeSystem@@QAEXPAUOBJECTSTRUCT@@PAVCMagicInf@@@Z ; CMasterLevelSkillTreeSystem::MLS_KnightSkillAddLife
PUBLIC	?MLS_SkillFulKnightSkillAddLife@CMasterLevelSkillTreeSystem@@QAEXPAUOBJECTSTRUCT@@PAVCMagicInf@@@Z ; CMasterLevelSkillTreeSystem::MLS_SkillFulKnightSkillAddLife
PUBLIC	?MLS_SkillMasteryKnightSkillAddLife@CMasterLevelSkillTreeSystem@@QAEXPAUOBJECTSTRUCT@@PAVCMagicInf@@@Z ; CMasterLevelSkillTreeSystem::MLS_SkillMasteryKnightSkillAddLife
PUBLIC	?MLS_SkillStrengthenMagicPower@CMasterLevelSkillTreeSystem@@QAEHPAUOBJECTSTRUCT@@PAVCMagicInf@@H@Z ; CMasterLevelSkillTreeSystem::MLS_SkillStrengthenMagicPower
PUBLIC	?MLS_SkillSkillfulMagicPower@CMasterLevelSkillTreeSystem@@QAEHPAUOBJECTSTRUCT@@PAVCMagicInf@@H@Z ; CMasterLevelSkillTreeSystem::MLS_SkillSkillfulMagicPower
PUBLIC	?MLS_SkillStrengthenFlame@CMasterLevelSkillTreeSystem@@QAEXPAUOBJECTSTRUCT@@PAVCMagicInf@@H@Z ; CMasterLevelSkillTreeSystem::MLS_SkillStrengthenFlame
PUBLIC	?MLS_SkillStrengthenThunder@CMasterLevelSkillTreeSystem@@QAEXPAUOBJECTSTRUCT@@PAVCMagicInf@@H@Z ; CMasterLevelSkillTreeSystem::MLS_SkillStrengthenThunder
PUBLIC	?MLS_SkillMeteorit@CMasterLevelSkillTreeSystem@@QAEXPAUOBJECTSTRUCT@@HPAVCMagicInf@@@Z ; CMasterLevelSkillTreeSystem::MLS_SkillMeteorit
PUBLIC	?MLS_SkillStrengthenPoison@CMasterLevelSkillTreeSystem@@QAEXPAUOBJECTSTRUCT@@PAVCMagicInf@@H@Z ; CMasterLevelSkillTreeSystem::MLS_SkillStrengthenPoison
PUBLIC	?MLS_SkillStrengthenExPoison@CMasterLevelSkillTreeSystem@@QAEXHPAVCMagicInf@@EEH@Z ; CMasterLevelSkillTreeSystem::MLS_SkillStrengthenExPoison
PUBLIC	?MLS_SkillStrengthenIce@CMasterLevelSkillTreeSystem@@QAEXPAUOBJECTSTRUCT@@PAVCMagicInf@@H@Z ; CMasterLevelSkillTreeSystem::MLS_SkillStrengthenIce
PUBLIC	?MLS_SkillWizardMagicDefense@CMasterLevelSkillTreeSystem@@QAEXPAUOBJECTSTRUCT@@PAVCMagicInf@@H@Z ; CMasterLevelSkillTreeSystem::MLS_SkillWizardMagicDefense
PUBLIC	?MLS_SkillWizardMagicDefenseMastery@CMasterLevelSkillTreeSystem@@QAEXPAUOBJECTSTRUCT@@PAVCMagicInf@@H@Z ; CMasterLevelSkillTreeSystem::MLS_SkillWizardMagicDefenseMastery
PUBLIC	?MLS_SkillInfinityArrow@CMasterLevelSkillTreeSystem@@QAEHHHPAVCMagicInf@@@Z ; CMasterLevelSkillTreeSystem::MLS_SkillInfinityArrow
PUBLIC	?MLS_SkillStrengthenBerserker@CMasterLevelSkillTreeSystem@@QAEHHPAVCMagicInf@@@Z ; CMasterLevelSkillTreeSystem::MLS_SkillStrengthenBerserker
PUBLIC	?MLS_SkillSkillfulBerserker@CMasterLevelSkillTreeSystem@@QAEHHPAVCMagicInf@@@Z ; CMasterLevelSkillTreeSystem::MLS_SkillSkillfulBerserker
PUBLIC	?MLS_SkillMasteryBerserker@CMasterLevelSkillTreeSystem@@QAEHHPAVCMagicInf@@@Z ; CMasterLevelSkillTreeSystem::MLS_SkillMasteryBerserker
PUBLIC	?MLS_SkillStrendthenAddCriticalDamage@CMasterLevelSkillTreeSystem@@QAEXHHPAVCMagicInf@@@Z ; CMasterLevelSkillTreeSystem::MLS_SkillStrendthenAddCriticalDamage
PUBLIC	?MLS_SkillSkillFulAddCriticalDamage@CMasterLevelSkillTreeSystem@@QAEXHHPAVCMagicInf@@@Z ; CMasterLevelSkillTreeSystem::MLS_SkillSkillFulAddCriticalDamage
PUBLIC	?MLS_SkillMasteryAddCriticalDamage@CMasterLevelSkillTreeSystem@@QAEXHHPAVCMagicInf@@@Z ; CMasterLevelSkillTreeSystem::MLS_SkillMasteryAddCriticalDamage
PUBLIC	?MLS_DarkHorseAttack@CMasterLevelSkillTreeSystem@@QAEHPAUOBJECTSTRUCT@@HPAVCMagicInf@@@Z ; CMasterLevelSkillTreeSystem::MLS_DarkHorseAttack
PUBLIC	?MLS_FireBurst@CMasterLevelSkillTreeSystem@@QAEHPAUOBJECTSTRUCT@@HPAVCMagicInf@@@Z ; CMasterLevelSkillTreeSystem::MLS_FireBurst
PUBLIC	?MLS_SkillStrengthenSpear@CMasterLevelSkillTreeSystem@@QAEHHHPAVCMagicInf@@@Z ; CMasterLevelSkillTreeSystem::MLS_SkillStrengthenSpear
PUBLIC	?MLS_SkillAreaMonsterAttack@CMasterLevelSkillTreeSystem@@QAEHHPAVCMagicInf@@EEHHHHH@Z ; CMasterLevelSkillTreeSystem::MLS_SkillAreaMonsterAttack
PUBLIC	?MLS_SuddenIce@CMasterLevelSkillTreeSystem@@QAEHHPAVCMagicInf@@EEH@Z ; CMasterLevelSkillTreeSystem::MLS_SuddenIce
PUBLIC	?MLS_CalDistance@CMasterLevelSkillTreeSystem@@QAEHHHHH@Z ; CMasterLevelSkillTreeSystem::MLS_CalDistance
PUBLIC	?MLS_GetAngle@CMasterLevelSkillTreeSystem@@QAEHHHHH@Z ; CMasterLevelSkillTreeSystem::MLS_GetAngle
PUBLIC	?MLS_SkillFrustrum@CMasterLevelSkillTreeSystem@@QAEXHMMM@Z ; CMasterLevelSkillTreeSystem::MLS_SkillFrustrum
PUBLIC	?MLS_KnightBlow@CMasterLevelSkillTreeSystem@@QAEHHHPAVCMagicInf@@H@Z ; CMasterLevelSkillTreeSystem::MLS_KnightBlow
PUBLIC	?MLS_SkillBlowOfFury@CMasterLevelSkillTreeSystem@@QAEXHPAVCMagicInf@@EEHH@Z ; CMasterLevelSkillTreeSystem::MLS_SkillBlowOfFury
PUBLIC	?MLS_SkillDefense@CMasterLevelSkillTreeSystem@@QAEXHHPAVCMagicInf@@@Z ; CMasterLevelSkillTreeSystem::MLS_SkillDefense
PUBLIC	?MLS_SkillAttack@CMasterLevelSkillTreeSystem@@QAEXHHPAVCMagicInf@@@Z ; CMasterLevelSkillTreeSystem::MLS_SkillAttack
PUBLIC	?MLS_SkillStrengthenAttack@CMasterLevelSkillTreeSystem@@QAEXHHPAVCMagicInf@@@Z ; CMasterLevelSkillTreeSystem::MLS_SkillStrengthenAttack
PUBLIC	?MLS_SkillStrengthenDefense@CMasterLevelSkillTreeSystem@@QAEXHHPAVCMagicInf@@@Z ; CMasterLevelSkillTreeSystem::MLS_SkillStrengthenDefense
PUBLIC	?MLS_MaGumSkillDefenseDown@CMasterLevelSkillTreeSystem@@QAEXHH@Z ; CMasterLevelSkillTreeSystem::MLS_MaGumSkillDefenseDown
PUBLIC	?MLS_PowerSlash@CMasterLevelSkillTreeSystem@@QAEXHPAVCMagicInf@@EEEH@Z ; CMasterLevelSkillTreeSystem::MLS_PowerSlash
PUBLIC	?MLS_FireScream@CMasterLevelSkillTreeSystem@@QAEHHHPAVCMagicInf@@@Z ; CMasterLevelSkillTreeSystem::MLS_FireScream
PUBLIC	?MLS_WeaponSkillDel@CMasterLevelSkillTreeSystem@@QAEHPAUOBJECTSTRUCT@@EE@Z ; CMasterLevelSkillTreeSystem::MLS_WeaponSkillDel
PUBLIC	?MLS_WeaponSkillAdd@CMasterLevelSkillTreeSystem@@QAEHPAUOBJECTSTRUCT@@EE@Z ; CMasterLevelSkillTreeSystem::MLS_WeaponSkillAdd
PUBLIC	?CheckUsableWeaponSkill@CMasterLevelSkillTreeSystem@@QAEHPAUOBJECTSTRUCT@@H@Z ; CMasterLevelSkillTreeSystem::CheckUsableWeaponSkill
PUBLIC	?MLS_SkillSleep@CMasterLevelSkillTreeSystem@@QAEHHHPAVCMagicInf@@@Z ; CMasterLevelSkillTreeSystem::MLS_SkillSleep
PUBLIC	?MLS_SkillChainLightning@CMasterLevelSkillTreeSystem@@QAEHHHPAVCMagicInf@@@Z ; CMasterLevelSkillTreeSystem::MLS_SkillChainLightning
PUBLIC	?MLS_SkillLightningShock@CMasterLevelSkillTreeSystem@@QAEHHHPAVCMagicInf@@@Z ; CMasterLevelSkillTreeSystem::MLS_SkillLightningShock
PUBLIC	?MLS_SkillDrainLife@CMasterLevelSkillTreeSystem@@QAEHHHPAVCMagicInf@@@Z ; CMasterLevelSkillTreeSystem::MLS_SkillDrainLife
PUBLIC	?MLS_SkillHellFire2@CMasterLevelSkillTreeSystem@@QAEHHHPAVCMagicInf@@@Z ; CMasterLevelSkillTreeSystem::MLS_SkillHellFire2
PUBLIC	?MLS_SkillHellFire2Start@CMasterLevelSkillTreeSystem@@QAEHHPAVCMagicInf@@@Z ; CMasterLevelSkillTreeSystem::MLS_SkillHellFire2Start
PUBLIC	?MLS_SkillEarthPrison@CMasterLevelSkillTreeSystem@@QAEXHHPAVCMagicInf@@@Z ; CMasterLevelSkillTreeSystem::MLS_SkillEarthPrison
PUBLIC	?MLS_SkillCure@CMasterLevelSkillTreeSystem@@QAEHHHPAVCMagicInf@@@Z ; CMasterLevelSkillTreeSystem::MLS_SkillCure
PUBLIC	?MLS_SkillMultiShot@CMasterLevelSkillTreeSystem@@QAEXHPAVCMagicInf@@EH@Z ; CMasterLevelSkillTreeSystem::MLS_SkillMultiShot
PUBLIC	?MLS_SkillBless@CMasterLevelSkillTreeSystem@@QAEHHHPAVCMagicInf@@@Z ; CMasterLevelSkillTreeSystem::MLS_SkillBless
PUBLIC	?MLS_MaGumSkillDefenseDownMastery@CMasterLevelSkillTreeSystem@@QAEXHHPAVCMagicInf@@@Z ; CMasterLevelSkillTreeSystem::MLS_MaGumSkillDefenseDownMastery
PUBLIC	?MLS_SkillGiganticStorm@CMasterLevelSkillTreeSystem@@QAEXHPAVCMagicInf@@EEH@Z ; CMasterLevelSkillTreeSystem::MLS_SkillGiganticStorm
PUBLIC	?MLS_SkillFlameStrike@CMasterLevelSkillTreeSystem@@QAEXHPAVCMagicInf@@EH@Z ; CMasterLevelSkillTreeSystem::MLS_SkillFlameStrike
PUBLIC	?MLS_SkillWeakness@CMasterLevelSkillTreeSystem@@QAEHHPAVCMagicInf@@EEH@Z ; CMasterLevelSkillTreeSystem::MLS_SkillWeakness
PUBLIC	?MLS_SkillInnovation@CMasterLevelSkillTreeSystem@@QAEHHPAVCMagicInf@@EEH@Z ; CMasterLevelSkillTreeSystem::MLS_SkillInnovation
PUBLIC	?MLS_SkillBlind@CMasterLevelSkillTreeSystem@@QAEHHHPAVCMagicInf@@@Z ; CMasterLevelSkillTreeSystem::MLS_SkillBlind
PUBLIC	?MLS_SkillFulMasteryAddCriticalDamage@CMasterLevelSkillTreeSystem@@QAEXHHPAVCMagicInf@@@Z ; CMasterLevelSkillTreeSystem::MLS_SkillFulMasteryAddCriticalDamage
PUBLIC	?MLS_SkillElectricSpark@CMasterLevelSkillTreeSystem@@QAEXHPAVCMagicInf@@EEEEH@Z ; CMasterLevelSkillTreeSystem::MLS_SkillElectricSpark
PUBLIC	?MLS_SkillChaoticDesier@CMasterLevelSkillTreeSystem@@QAEXHPAVCMagicInf@@EH@Z ; CMasterLevelSkillTreeSystem::MLS_SkillChaoticDesier
PUBLIC	?MLS_SkillIronDefense@CMasterLevelSkillTreeSystem@@QAEXHHPAVCMagicInf@@@Z ; CMasterLevelSkillTreeSystem::MLS_SkillIronDefense
PUBLIC	?MLS_SkillMonkBarrageJustOneTarget@CMasterLevelSkillTreeSystem@@QAEXHPAVCMagicInf@@H@Z ; CMasterLevelSkillTreeSystem::MLS_SkillMonkBarrageJustOneTarget
PUBLIC	?MLS_SkillMonkBarrageJustOneTargetMastery@CMasterLevelSkillTreeSystem@@QAEXHPAVCMagicInf@@H@Z ; CMasterLevelSkillTreeSystem::MLS_SkillMonkBarrageJustOneTargetMastery
PUBLIC	?MLS_SkillMonkBuffApplyParty@CMasterLevelSkillTreeSystem@@QAEHHPAVCMagicInf@@@Z ; CMasterLevelSkillTreeSystem::MLS_SkillMonkBuffApplyParty
PUBLIC	?MLS_SkillMonkBuffApplyPartyMastery@CMasterLevelSkillTreeSystem@@QAEHHPAVCMagicInf@@@Z ; CMasterLevelSkillTreeSystem::MLS_SkillMonkBuffApplyPartyMastery
PUBLIC	?MLS_SkillPartyHeal@CMasterLevelSkillTreeSystem@@QAEXHHPAVCMagicInf@@@Z ; CMasterLevelSkillTreeSystem::MLS_SkillPartyHeal
PUBLIC	?GetRequireMLPoint@CMasterLevelSkillTreeSystem@@QAEHHH@Z ; CMasterLevelSkillTreeSystem::GetRequireMLPoint
PUBLIC	?GetMaxPointOfMasterSkill@CMasterLevelSkillTreeSystem@@QAEHHH@Z ; CMasterLevelSkillTreeSystem::GetMaxPointOfMasterSkill
PUBLIC	?GetMasterSkillValue@CMasterLevelSkillTreeSystem@@QAEMHH@Z ; CMasterLevelSkillTreeSystem::GetMasterSkillValue
PUBLIC	?GetMasterSkillManaIncRate@CMasterLevelSkillTreeSystem@@QAEMH@Z ; CMasterLevelSkillTreeSystem::GetMasterSkillManaIncRate
PUBLIC	?GetBrandOfMasterSkillValue@CMasterLevelSkillTreeSystem@@QAEMPAUOBJECTSTRUCT@@HH@Z ; CMasterLevelSkillTreeSystem::GetBrandOfMasterSkillValue
PUBLIC	?CheckSkillLevel@CMasterLevelSkillTreeSystem@@QAEHPAUOBJECTSTRUCT@@H@Z ; CMasterLevelSkillTreeSystem::CheckSkillLevel
PUBLIC	?CheckPreviousRankSkill@CMasterLevelSkillTreeSystem@@QAEHPAUOBJECTSTRUCT@@HH@Z ; CMasterLevelSkillTreeSystem::CheckPreviousRankSkill
PUBLIC	?GetMasterSkillUIIndex@CMasterLevelSkillTreeSystem@@QAEHHH@Z ; CMasterLevelSkillTreeSystem::GetMasterSkillUIIndex
PUBLIC	?GetParentSkill1@CMasterLevelSkillTreeSystem@@QAEHHH@Z ; CMasterLevelSkillTreeSystem::GetParentSkill1
PUBLIC	?GetParentSkill2@CMasterLevelSkillTreeSystem@@QAEHHH@Z ; CMasterLevelSkillTreeSystem::GetParentSkill2
PUBLIC	?SetItemMLPassiveSkill@CMasterLevelSkillTreeSystem@@QAEXPAUOBJECTSTRUCT@@H@Z ; CMasterLevelSkillTreeSystem::SetItemMLPassiveSkill
PUBLIC	?SetPetItemMLPassiveSkill@CMasterLevelSkillTreeSystem@@QAEXPAUOBJECTSTRUCT@@H@Z ; CMasterLevelSkillTreeSystem::SetPetItemMLPassiveSkill
PUBLIC	?GetCurSkillLevel@CMasterLevelSkillTreeSystem@@QAEHPAUOBJECTSTRUCT@@H@Z ; CMasterLevelSkillTreeSystem::GetCurSkillLevel
PUBLIC	?RoundValue@CMasterLevelSkillTreeSystem@@QAEMNH@Z ; CMasterLevelSkillTreeSystem::RoundValue
PUBLIC	?GetSkillAttackDamage@CMasterLevelSkillTreeSystem@@QAEMPAUOBJECTSTRUCT@@H@Z ; CMasterLevelSkillTreeSystem::GetSkillAttackDamage
PUBLIC	?MLS_SkillFrustrum3@CMasterLevelSkillTreeSystem@@QAEXHEMMMM@Z ; CMasterLevelSkillTreeSystem::MLS_SkillFrustrum3
PUBLIC	?CheckMasterSkillPoint@CMasterLevelSkillTreeSystem@@QAEDHH@Z ; CMasterLevelSkillTreeSystem::CheckMasterSkillPoint
PUBLIC	?ResetMasterSkill@CMasterLevelSkillTreeSystem@@QAEDHH@Z ; CMasterLevelSkillTreeSystem::ResetMasterSkill
PUBLIC	?CheckSkillInTree@CMasterLevelSkillTreeSystem@@QAE_NHHH@Z ; CMasterLevelSkillTreeSystem::CheckSkillInTree
PUBLIC	??_GCMasterLevelSkillTreeSystem@@UAEPAXI@Z	; CMasterLevelSkillTreeSystem::`scalar deleting destructor'
PUBLIC	?_OptionsStorage@?1??__local_stdio_printf_options@@9@4_KA ; `__local_stdio_printf_options'::`2'::_OptionsStorage
PUBLIC	??_C@_00CNPNBAHC@?$AA@				; `string'
PUBLIC	??_7CMasterLevelSkillTreeSystem@@6B@		; CMasterLevelSkillTreeSystem::`vftable'
PUBLIC	?g_MasterSkillSystem@@3VCMasterLevelSkillTreeSystem@@A ; g_MasterSkillSystem
PUBLIC	??_C@_0BP@OPMJJLKL@MasterLevelSkillTreeSystem?4cpp?$AA@ ; `string'
PUBLIC	??_C@_0DB@LIFBGGBJ@?$FLMasterLevelSkillTreeSystem?$FN?5?9?5E@ ; `string'
PUBLIC	??_C@_0BM@IBJJMKHM@Skill?2MasterSkillEffect?4lua?$AA@ ; `string'
PUBLIC	??_C@_03LHPBPOFD@i?$DOd?$AA@			; `string'
PUBLIC	??_C@_0BB@BDCPEPNH@FN_LuaGetPercent?$AA@	; `string'
PUBLIC	??_C@_0BC@PFNEDMEJ@FN_LuaGetPercent2?$AA@	; `string'
PUBLIC	??_C@_0BI@FIIENFAH@FN_LuaGetSkillDamageMin?$AA@	; `string'
PUBLIC	??_C@_0BL@LEGGLFON@FN_LuaGetSkillDamageMiddle?$AA@ ; `string'
PUBLIC	??_C@_0BI@EKAPDBGI@FN_LuaGetSkillDamageMax?$AA@	; `string'
PUBLIC	??_C@_0BF@DCGKOEID@FN_LuaGetMonsterKill?$AA@	; `string'
PUBLIC	??_C@_0BC@OMMPANAI@FN_LuaGetPercent3?$AA@	; `string'
PUBLIC	??_C@_0P@KNGMLNAM@FN_LuaGetMaxAG?$AA@		; `string'
PUBLIC	??_C@_0BF@IPHPEKAB@FN_LuaGetMaxLifeMana?$AA@	; `string'
PUBLIC	??_C@_0BA@EBCPMHKF@FN_LuaGetAttack?$AA@		; `string'
PUBLIC	??_C@_0BH@JGAEJLDA@FN_LuaGetSDMonsterKill?$AA@	; `string'
PUBLIC	??_C@_0BG@BIKPHGOL@FN_LuaGetBlockingRate?$AA@	; `string'
PUBLIC	??_C@_0BL@HLJOLACJ@FN_LuaGetAttackSuccessRate?$AA@ ; `string'
PUBLIC	??_C@_0BH@GCDFBGLA@FN_LuaGetManAttackRate?$AA@	; `string'
PUBLIC	??_C@_0BC@KDIOJLMP@FN_LuaGetPercent4?$AA@	; `string'
PUBLIC	??_C@_0BK@DOJCBFIF@FN_LuaGetIncreaseBlocking?$AA@ ; `string'
PUBLIC	??_C@_0BG@JCFOHPHC@FN_LuaGetIncreaseStat?$AA@	; `string'
PUBLIC	??_C@_0BG@CABOJEGF@FN_LuaGetDecreaseMana?$AA@	; `string'
PUBLIC	??_C@_0BI@KNJEGBLM@FN_LuaGetChangeBlocking?$AA@	; `string'
PUBLIC	??_C@_0BH@NBDCMLMA@FN_LuaGetControlAttack?$AA@	; `string'
PUBLIC	??_C@_0BF@FNNMPCIH@FN_LuaGetManaIncRate?$AA@	; `string'
PUBLIC	??_C@_0BJ@HDEMEFAH@FN_LuaGetSkillDamageMin2?$AA@ ; `string'
PUBLIC	??_C@_0BF@LJJDIDAP@FN_LuaGetAttackSpeed?$AA@	; `string'
PUBLIC	??_C@_0BB@LFNDNAPP@FN_LuaBloodStorm?$AA@	; `string'
PUBLIC	??_C@_0BC@BBGGKCGM@FN_LuaEarthPrison?$AA@	; `string'
PUBLIC	??_C@_0BC@CIHPMOKL@FN_LuaPoisonArrow?$AA@	; `string'
PUBLIC	??_C@_0BC@JFEINDGN@FN_LuaIronDefense?$AA@	; `string'
PUBLIC	??_C@_0BN@EBCBIPEA@FN_LuaGetBlockingRateFighter?$AA@ ; `string'
PUBLIC	??_C@_0CC@GIMADFJA@FN_LuaGetAttackSuccessRateFighte@ ; `string'
PUBLIC	??_C@_0BO@PHDDECBO@FN_LuaGetManAttackRateFighter?$AA@ ; `string'
PUBLIC	??_C@_0BG@GCMGLIBN@FN_LuaGetMaxSDFighter?$AA@	; `string'
PUBLIC	??_C@_0BM@DMCLBHIL@FN_LuaGetMaxLifeManaFighter?$AA@ ; `string'
PUBLIC	??_C@_0CB@MICAEJNJ@FN_LuaGetIncreaseBlockingFighter@ ; `string'
PUBLIC	??_C@_0BN@OLMOMCNF@FN_LuaGetIncreaseStatFighter?$AA@ ; `string'
PUBLIC	??_C@_0BG@HIBANFAN@FN_LuaGetMaxAGFighter?$AA@	; `string'
PUBLIC	??_C@_0BC@LKJFKKIO@FN_LuaGetPercent5?$AA@	; `string'
PUBLIC	??_C@_0EB@OOEJLKHO@?$FLMasterLevelSkillTreeSystem?$FN?5?9?5F@ ; `string'
PUBLIC	??_C@_01KDCPPGHE@r?$AA@				; `string'
PUBLIC	??_C@_0CO@KEMAJKBC@?$FLMasterLevelSkillTreeSystem?$FN?5?9?5C@ ; `string'
PUBLIC	??_C@_03JBJLGPFL@end?$AA@			; `string'
PUBLIC	??_C@_0DB@JHFKLIFA@?$FLMasterLevelSkillTreeSystem?$FN?5?9?5?$CF@ ; `string'
PUBLIC	??_R0H@8					; int `RTTI Type Descriptor'
PUBLIC	??_C@_0ED@OHLDPICA@?$FLMasterLevelSkillTreeSystem?$FN?5?9?5L@ ; `string'
PUBLIC	??_C@_0EC@EOPMIEFL@?$FLMasterSkill?$FN?5?$FL?$CFs?$FN?$FL?$CFs?$FN?5Fail?$CIUse?5@ ; `string'
PUBLIC	??_C@_0EA@MEFIMNOG@?$FLMasterSkill?$FN?5?$FL?$CFs?$FN?$FL?$CFs?$FN?5Fail?5?9?5Ad@ ; `string'
PUBLIC	??_C@_0EO@COKPAFNE@?$FLMasterSkill?$FN?5?$FL?$CFs?$FN?$FL?$CFs?$FN?5Success?5?9@ ; `string'
PUBLIC	??_C@_0HK@DAPGGDKB@?$FLInvalidTargetIndex?$FN?$FLCMasterLeve@ ; `string'
PUBLIC	??_C@_0FA@NONLFBKD@?$FL?$CFs?$FN?$FL?$CFs?$FN?5Use?5Infinity?5Arrow?5Skil@ ; `string'
PUBLIC	??_C@_0EK@FPJIEBPO@?$FLMasterLevelSkillTreeSystem?$FN?5Get@ ; `string'
PUBLIC	??_C@_0EJ@IOMPPJNP@?$FLMasterLevelSkillTreeSystem?$FN?5Get@ ; `string'
PUBLIC	??_C@_0EF@FJHPDEPE@?$FLMasterLevelSkillTreeSystem?$FN?5Get@ ; `string'
PUBLIC	??_C@_0EM@HDBFHAFF@?$FLMasterLevelSkillTreeSystem?$FN?5Get@ ; `string'
PUBLIC	??_C@_05GPIHJIAI@?$CF?$CF?4?$CFd?$AA@		; `string'
PUBLIC	??_C@_01INIBCBCB@f?$AA@				; `string'
PUBLIC	??_C@_0CE@NKODFDAA@?$FLGetSkillAttackDamage?$FN?5fail?$CB?$CB?$CB?5?9@ ; `string'
PUBLIC	??_C@_0FE@MOAJDGKI@?$FLInvalidTargetIndex?$FN?$FLMLS_SkillMo@ ; `string'
PUBLIC	??_C@_0CH@FEMHONHI@?$FL?$CFs?$FN?$FL?$CFs?$FN?5SkillHellFire2?5error?5on@ ; `string'
PUBLIC	??_R4CMasterLevelSkillTreeSystem@@6B@		; CMasterLevelSkillTreeSystem::`RTTI Complete Object Locator'
PUBLIC	??_R0?AVCMasterLevelSkillTreeSystem@@@8		; CMasterLevelSkillTreeSystem `RTTI Type Descriptor'
PUBLIC	??_R3CMasterLevelSkillTreeSystem@@8		; CMasterLevelSkillTreeSystem::`RTTI Class Hierarchy Descriptor'
PUBLIC	??_R2CMasterLevelSkillTreeSystem@@8		; CMasterLevelSkillTreeSystem::`RTTI Base Class Array'
PUBLIC	??_R1A@?0A@EA@CMasterLevelSkillTreeSystem@@8	; CMasterLevelSkillTreeSystem::`RTTI Base Class Descriptor at (0,-1,0,64)'
PUBLIC	__real@00000000
PUBLIC	__real@3f800000
PUBLIC	__real@400921fb60000000
PUBLIC	__real@4024000000000000
PUBLIC	__real@4056800000000000
PUBLIC	__real@4066800000000000
PUBLIC	__real@40a00000
PUBLIC	__real@41200000
PUBLIC	__real@42c80000
PUBLIC	__real@bf800000
PUBLIC	__real@c0a00000
PUBLIC	__xmm@00000000000000003f80000000000000
PUBLIC	__xmm@000000000000000041a0000000000000
PUBLIC	__xmm@00000000422000000000000000000000
PUBLIC	__xmm@43a00000000000000000000043aa0000
PUBLIC	__xmm@80000000800000008000000080000000
PUBLIC	__xmm@ffffffffffffffffffffffffffffffff
EXTRN	??_M@YGXPAXIIP6EX0@Z@Z:PROC			; `eh vector destructor iterator'
EXTRN	??3@YAXPAXI@Z:PROC				; operator delete
EXTRN	??_V@YAXPAXI@Z:PROC				; operator delete[]
EXTRN	_atexit:PROC
EXTRN	_isalpha:PROC
EXTRN	_isdigit:PROC
EXTRN	_isspace:PROC
EXTRN	_isalnum:PROC
EXTRN	__imp__GetLastError@0:PROC
EXTRN	__imp__GetTickCount@0:PROC
EXTRN	_fclose:PROC
EXTRN	_fgetc:PROC
EXTRN	_fopen:PROC
EXTRN	_getc:PROC
EXTRN	_ungetc:PROC
EXTRN	___stdio_common_vsprintf:PROC
EXTRN	_rand:PROC
EXTRN	_atof:PROC
EXTRN	?Get@Message@@QAEPADH@Z:PROC			; Message::Get
EXTRN	??0MULua@@QAE@XZ:PROC				; MULua::MULua
EXTRN	??1MULua@@QAE@XZ:PROC				; MULua::~MULua
EXTRN	?Release@MULua@@QAEXXZ:PROC			; MULua::Release
EXTRN	?DoFile@MULua@@QAE_NPBD@Z:PROC			; MULua::DoFile
EXTRN	?GetLua@MULua@@QAEPAUlua_State@@XZ:PROC		; MULua::GetLua
EXTRN	?IsItem@CItem@@QAEHXZ:PROC			; CItem::IsItem
EXTRN	?SkillGet@CMagicDamage@@QAEHH@Z:PROC		; CMagicDamage::SkillGet
EXTRN	?SkillGetRequireEnergy@CMagicDamage@@QAEHH@Z:PROC ; CMagicDamage::SkillGetRequireEnergy
EXTRN	?SkillGetRequireClass@CMagicDamage@@QAEHHHHH@Z:PROC ; CMagicDamage::SkillGetRequireClass
EXTRN	?GetSkillType@CMagicDamage@@QAEHH@Z:PROC	; CMagicDamage::GetSkillType
EXTRN	?GetSkillDistance@CMagicDamage@@QAEHH@Z:PROC	; CMagicDamage::GetSkillDistance
EXTRN	?GetBrandOfSkill@CMagicDamage@@QAEGH@Z:PROC	; CMagicDamage::GetBrandOfSkill
EXTRN	?GetNormalBrandOfSkill@CMagicDamage@@QAEGH@Z:PROC ; CMagicDamage::GetNormalBrandOfSkill
EXTRN	?GetSkillUseType@CMagicDamage@@QAEHH@Z:PROC	; CMagicDamage::GetSkillUseType
EXTRN	?GetRequireStrength@CMagicDamage@@QAEHH@Z:PROC	; CMagicDamage::GetRequireStrength
EXTRN	?GetRequireDexterity@CMagicDamage@@QAEHH@Z:PROC	; CMagicDamage::GetRequireDexterity
EXTRN	?GetSkillRank@CMagicDamage@@QAEHH@Z:PROC	; CMagicDamage::GetSkillRank
EXTRN	?GetSkillGroup@CMagicDamage@@QAEHH@Z:PROC	; CMagicDamage::GetSkillGroup
EXTRN	?IsItemAttachedSkill@CMagicDamage@@QAEEH@Z:PROC	; CMagicDamage::IsItemAttachedSkill
EXTRN	??1CSkillDelay@@UAE@XZ:PROC			; CSkillDelay::~CSkillDelay
EXTRN	?MsgBox@@YAXPADZZ:PROC				; MsgBox
EXTRN	?DataSend@@YAHHPAEK@Z:PROC			; DataSend
EXTRN	?CloseClient@@YAXH@Z:PROC			; CloseClient
EXTRN	?IsMagic@CMagicInf@@QAEHXZ:PROC			; CMagicInf::IsMagic
EXTRN	?Clear@CMagicInf@@QAEXXZ:PROC			; CMagicInf::Clear
EXTRN	?Set@CMagicInf@@QAEHHE@Z:PROC			; CMagicInf::Set
EXTRN	?UpdateMasterSkill@CMagicInf@@QAEHHE@Z:PROC	; CMagicInf::UpdateMasterSkill
EXTRN	??1TMonsterAIAgro@@UAE@XZ:PROC			; TMonsterAIAgro::~TMonsterAIAgro
EXTRN	?IncAgro@TMonsterAIAgro@@QAEHHH@Z:PROC		; TMonsterAIAgro::IncAgro
EXTRN	?MsgSendV2@@YAXPAUOBJECTSTRUCT@@PAEH@Z:PROC	; MsgSendV2
EXTRN	?GCResultSend@@YAXHEE@Z:PROC			; GCResultSend
EXTRN	?GCMagicListOneSend@@YAXHDGEEE@Z:PROC		; GCMagicListOneSend
EXTRN	?GCMagicListOneDelSend@@YAXHDGEEE@Z:PROC	; GCMagicListOneDelSend
EXTRN	?GCRecallMonLife@@YAXHHH@Z:PROC			; GCRecallMonLife
EXTRN	?GCDamageSend@@YAXHHHHHH@Z:PROC			; GCDamageSend
EXTRN	?GCMagicAttackNumberSend@@YAXPAUOBJECTSTRUCT@@GHE@Z:PROC ; GCMagicAttackNumberSend
EXTRN	?GCReFillSend@@YAXHGEEG@Z:PROC			; GCReFillSend
EXTRN	?GCMonkDarkSideTargetSelect@@YAXPAUPMSG_MONK_DARKSIDE_RECV@@H@Z:PROC ; GCMonkDarkSideTargetSelect
EXTRN	?gObjCalCharacter@@YAXH@Z:PROC			; gObjCalCharacter
EXTRN	?gObjIsConnected@@YAHH@Z:PROC			; gObjIsConnected
EXTRN	?gObjIsConnected@@YAHPAUOBJECTSTRUCT@@@Z:PROC	; gObjIsConnected
EXTRN	?gObjCalDistance@@YAHPAUOBJECTSTRUCT@@0@Z:PROC	; gObjCalDistance
EXTRN	?gObjAddAttackProcMsgSendDelay@@YAXPAUOBJECTSTRUCT@@HHHHH@Z:PROC ; gObjAddAttackProcMsgSendDelay
EXTRN	?gObjBackSpring2@@YAHPAUOBJECTSTRUCT@@0H@Z:PROC	; gObjBackSpring2
EXTRN	?retCalcSkillResistance@@YAHPAUOBJECTSTRUCT@@H@Z:PROC ; retCalcSkillResistance
EXTRN	?gObjAttack@@YAXPAUOBJECTSTRUCT@@0PAVCMagicInf@@HEHHEE@Z:PROC ; gObjAttack
EXTRN	?gObjTargetGuildWarCheck@@YAHPAUOBJECTSTRUCT@@0@Z:PROC ; gObjTargetGuildWarCheck
EXTRN	?gObjSetPosition@@YAXHHH@Z:PROC			; gObjSetPosition
EXTRN	?SkillTestFrustrum@@YAHHHH@Z:PROC		; SkillTestFrustrum
EXTRN	?MsgOutput@@YAXHPADZZ:PROC			; MsgOutput
EXTRN	?gCheckSkillDistance@@YAHHHH@Z:PROC		; gCheckSkillDistance
EXTRN	??_ECMasterLevelSkillTreeSystem@@UAEPAXI@Z:PROC	; CMasterLevelSkillTreeSystem::`vector deleting destructor'
EXTRN	?GetNewPath@CDirPath@@QAEPADPAD@Z:PROC		; CDirPath::GetNewPath
EXTRN	?g_Generic_Call@@YA_NPAUlua_State@@PBD1ZZ:PROC	; g_Generic_Call
EXTRN	?gObjAddBuffEffect@@YA_NPAUOBJECTSTRUCT@@HEHEHH@Z:PROC ; gObjAddBuffEffect
EXTRN	?gObjClearBuffEffect@@YA_NPAUOBJECTSTRUCT@@W4eBuffClearType@@@Z:PROC ; gObjClearBuffEffect
EXTRN	?gObjCheckUsedBuffEffect@@YA_NPAUOBJECTSTRUCT@@H@Z:PROC ; gObjCheckUsedBuffEffect
EXTRN	?gObjCheckPowerfulEffect@@YA_NPAUOBJECTSTRUCT@@HHH@Z:PROC ; gObjCheckPowerfulEffect
EXTRN	?GetCastleState@CCastleSiege@@QAEHXZ:PROC	; CCastleSiege::GetCastleState
EXTRN	?SkillMonsterCall@CObjUseSkill@@QAEHHHHH@Z:PROC	; CObjUseSkill::SkillMonsterCall
EXTRN	?SkillBloodStorm@CObjUseSkill@@QAEXHHPAVCMagicInf@@H@Z:PROC ; CObjUseSkill::SkillBloodStorm
EXTRN	?DecPartyMemberHPandMP@@YAHPAUOBJECTSTRUCT@@@Z:PROC ; DecPartyMemberHPandMP
EXTRN	?HitCheck@CSkillHitBox@@QAEHHHHHH@Z:PROC	; CSkillHitBox::HitCheck
EXTRN	?VectorRotate@@YAXQBM0QAM@Z:PROC		; VectorRotate
EXTRN	?AngleMatrix@@YAXPBMPAY03M@Z:PROC		; AngleMatrix
EXTRN	?PHeadSubSetB@@YAXPAEEEH@Z:PROC			; PHeadSubSetB
EXTRN	?PHeadSubSetW@@YAXPAEEEH@Z:PROC			; PHeadSubSetW
EXTRN	?GetEffect@BuffSkillEffect@@QAEPAUBuffSkillEffectInfo@@H@Z:PROC ; BuffSkillEffect::GetEffect
EXTRN	@__security_check_cookie@4:PROC
EXTRN	__CIatan2:PROC
EXTRN	___CxxFrameHandler3:PROC
EXTRN	__libm_sse2_sqrt_precise:PROC
EXTRN	_memset:PROC
EXTRN	??_7type_info@@6B@:QWORD			; type_info::`vftable'
EXTRN	?lMsg@@3VMessage@@A:BYTE			; lMsg
EXTRN	?MagicDamageC@@3VCMagicDamage@@A:BYTE		; MagicDamageC
EXTRN	?LogAdd@@3P6AXPADZZA:DWORD			; LogAdd
EXTRN	?LogAddTD@@3P6AXPADZZA:DWORD			; LogAddTD
EXTRN	?g_EnergyCheckOff@@3HA:DWORD			; g_EnergyCheckOff
EXTRN	?gObj@@3PAUOBJECTSTRUCT@@A:DWORD		; gObj
EXTRN	?gDirPath@@3VCDirPath@@A:BYTE			; gDirPath
EXTRN	?gParty@@3VPartyClass@@A:BYTE			; gParty
EXTRN	?g_SkillAdditionInfo@@3VCSkillAdditionInfo@@A:BYTE ; g_SkillAdditionInfo
EXTRN	?g_CastleSiege@@3VCCastleSiege@@A:BYTE		; g_CastleSiege
EXTRN	?gObjUseSkill@@3VCObjUseSkill@@A:DWORD		; gObjUseSkill
EXTRN	?SkillSpearHitBox@@3VCSkillHitBox@@A:BYTE	; SkillSpearHitBox
EXTRN	?SkillElectricSparkHitBox@@3VCSkillHitBox@@A:BYTE ; SkillElectricSparkHitBox
EXTRN	?g_BuffSkillEffect@@3VBuffSkillEffect@@A:BYTE	; g_BuffSkillEffect
EXTRN	___security_cookie:DWORD
EXTRN	__fltused:DWORD
;	COMDAT ?_OptionsStorage@?1??__local_stdio_printf_options@@9@4_KA
_BSS	SEGMENT
?_OptionsStorage@?1??__local_stdio_printf_options@@9@4_KA DQ 01H DUP (?) ; `__local_stdio_printf_options'::`2'::_OptionsStorage
_BSS	ENDS
_BSS	SEGMENT
?g_MasterSkillSystem@@3VCMasterLevelSkillTreeSystem@@A DB 055ccH DUP (?) ; g_MasterSkillSystem
?SMDFile@@3PAU_iobuf@@A DD 01H DUP (?)			; SMDFile
?TokenNumber@@3MA DD 01H DUP (?)			; TokenNumber
?TokenString@@3PADA DB 064H DUP (?)			; TokenString
?CurrentToken@@3W4SMDToken@@A DD 01H DUP (?)		; CurrentToken
_BSS	ENDS
CRT$XCU	SEGMENT
?g_MasterSkillSystem$initializer$@@3P6AXXZA DD FLAT:??__Eg_MasterSkillSystem@@YAXXZ ; g_MasterSkillSystem$initializer$
CRT$XCU	ENDS
;	COMDAT __xmm@ffffffffffffffffffffffffffffffff
CONST	SEGMENT
__xmm@ffffffffffffffffffffffffffffffff DB 0ffH, 0ffH, 0ffH, 0ffH, 0ffH, 0ffH
	DB	0ffH, 0ffH, 0ffH, 0ffH, 0ffH, 0ffH, 0ffH, 0ffH, 0ffH, 0ffH
CONST	ENDS
;	COMDAT __xmm@80000000800000008000000080000000
CONST	SEGMENT
__xmm@80000000800000008000000080000000 DB 00H, 00H, 00H, 080H, 00H, 00H, 00H
	DB	080H, 00H, 00H, 00H, 080H, 00H, 00H, 00H, 080H
CONST	ENDS
;	COMDAT __xmm@43a00000000000000000000043aa0000
CONST	SEGMENT
__xmm@43a00000000000000000000043aa0000 DB 00H, 00H, 0aaH, 'C', 00H, 00H, 00H
	DB	00H, 00H, 00H, 00H, 00H, 00H, 00H, 0a0H, 'C'
CONST	ENDS
;	COMDAT __xmm@00000000422000000000000000000000
CONST	SEGMENT
__xmm@00000000422000000000000000000000 DB 00H, 00H, 00H, 00H, 00H, 00H, 00H
	DB	00H, 00H, 00H, ' B', 00H, 00H, 00H, 00H
CONST	ENDS
;	COMDAT __xmm@000000000000000041a0000000000000
CONST	SEGMENT
__xmm@000000000000000041a0000000000000 DB 00H, 00H, 00H, 00H, 00H, 00H, 0a0H
	DB	'A', 00H, 00H, 00H, 00H, 00H, 00H, 00H, 00H
CONST	ENDS
;	COMDAT __xmm@00000000000000003f80000000000000
CONST	SEGMENT
__xmm@00000000000000003f80000000000000 DB 00H, 00H, 00H, 00H, 00H, 00H, 080H
	DB	'?', 00H, 00H, 00H, 00H, 00H, 00H, 00H, 00H
CONST	ENDS
;	COMDAT __real@c0a00000
CONST	SEGMENT
__real@c0a00000 DD 0c0a00000r			; -5
CONST	ENDS
;	COMDAT __real@bf800000
CONST	SEGMENT
__real@bf800000 DD 0bf800000r			; -1
CONST	ENDS
;	COMDAT __real@42c80000
CONST	SEGMENT
__real@42c80000 DD 042c80000r			; 100
CONST	ENDS
;	COMDAT __real@41200000
CONST	SEGMENT
__real@41200000 DD 041200000r			; 10
CONST	ENDS
;	COMDAT __real@40a00000
CONST	SEGMENT
__real@40a00000 DD 040a00000r			; 5
CONST	ENDS
;	COMDAT __real@4066800000000000
CONST	SEGMENT
__real@4066800000000000 DQ 04066800000000000r	; 180
CONST	ENDS
;	COMDAT __real@4056800000000000
CONST	SEGMENT
__real@4056800000000000 DQ 04056800000000000r	; 90
CONST	ENDS
;	COMDAT __real@4024000000000000
CONST	SEGMENT
__real@4024000000000000 DQ 04024000000000000r	; 10
CONST	ENDS
;	COMDAT __real@400921fb60000000
CONST	SEGMENT
__real@400921fb60000000 DQ 0400921fb60000000r	; 3.14159
CONST	ENDS
;	COMDAT __real@3f800000
CONST	SEGMENT
__real@3f800000 DD 03f800000r			; 1
CONST	ENDS
;	COMDAT __real@00000000
CONST	SEGMENT
__real@00000000 DD 000000000r			; 0
CONST	ENDS
;	COMDAT ??_R1A@?0A@EA@CMasterLevelSkillTreeSystem@@8
rdata$r	SEGMENT
??_R1A@?0A@EA@CMasterLevelSkillTreeSystem@@8 DD FLAT:??_R0?AVCMasterLevelSkillTreeSystem@@@8 ; CMasterLevelSkillTreeSystem::`RTTI Base Class Descriptor at (0,-1,0,64)'
	DD	00H
	DD	00H
	DD	0ffffffffH
	DD	00H
	DD	040H
	DD	FLAT:??_R3CMasterLevelSkillTreeSystem@@8
rdata$r	ENDS
;	COMDAT ??_R2CMasterLevelSkillTreeSystem@@8
rdata$r	SEGMENT
??_R2CMasterLevelSkillTreeSystem@@8 DD FLAT:??_R1A@?0A@EA@CMasterLevelSkillTreeSystem@@8 ; CMasterLevelSkillTreeSystem::`RTTI Base Class Array'
rdata$r	ENDS
;	COMDAT ??_R3CMasterLevelSkillTreeSystem@@8
rdata$r	SEGMENT
??_R3CMasterLevelSkillTreeSystem@@8 DD 00H		; CMasterLevelSkillTreeSystem::`RTTI Class Hierarchy Descriptor'
	DD	00H
	DD	01H
	DD	FLAT:??_R2CMasterLevelSkillTreeSystem@@8
rdata$r	ENDS
;	COMDAT ??_R0?AVCMasterLevelSkillTreeSystem@@@8
data$r	SEGMENT
??_R0?AVCMasterLevelSkillTreeSystem@@@8 DD FLAT:??_7type_info@@6B@ ; CMasterLevelSkillTreeSystem `RTTI Type Descriptor'
	DD	00H
	DB	'.?AVCMasterLevelSkillTreeSystem@@', 00H
data$r	ENDS
;	COMDAT ??_R4CMasterLevelSkillTreeSystem@@6B@
rdata$r	SEGMENT
??_R4CMasterLevelSkillTreeSystem@@6B@ DD 00H		; CMasterLevelSkillTreeSystem::`RTTI Complete Object Locator'
	DD	00H
	DD	00H
	DD	FLAT:??_R0?AVCMasterLevelSkillTreeSystem@@@8
	DD	FLAT:??_R3CMasterLevelSkillTreeSystem@@8
rdata$r	ENDS
;	COMDAT ??_C@_0CH@FEMHONHI@?$FL?$CFs?$FN?$FL?$CFs?$FN?5SkillHellFire2?5error?5on@
CONST	SEGMENT
??_C@_0CH@FEMHONHI@?$FL?$CFs?$FN?$FL?$CFs?$FN?5SkillHellFire2?5error?5on@ DB '['
	DB	'%s][%s] SkillHellFire2 error on start', 00H	; `string'
CONST	ENDS
;	COMDAT ??_C@_0FE@MOAJDGKI@?$FLInvalidTargetIndex?$FN?$FLMLS_SkillMo@
CONST	SEGMENT
??_C@_0FE@MOAJDGKI@?$FLInvalidTargetIndex?$FN?$FLMLS_SkillMo@ DB '[Invali'
	DB	'dTargetIndex][MLS_SkillMonkBarrageJustOneTarget] Index :%d , '
	DB	'AccountID : %s ', 00H			; `string'
CONST	ENDS
;	COMDAT ??_C@_0CE@NKODFDAA@?$FLGetSkillAttackDamage?$FN?5fail?$CB?$CB?$CB?5?9@
CONST	SEGMENT
??_C@_0CE@NKODFDAA@?$FLGetSkillAttackDamage?$FN?5fail?$CB?$CB?$CB?5?9@ DB '['
	DB	'GetSkillAttackDamage] fail!!! - %d', 00H	; `string'
CONST	ENDS
;	COMDAT ??_C@_01INIBCBCB@f?$AA@
CONST	SEGMENT
??_C@_01INIBCBCB@f?$AA@ DB 'f', 00H			; `string'
CONST	ENDS
;	COMDAT ??_C@_05GPIHJIAI@?$CF?$CF?4?$CFd?$AA@
CONST	SEGMENT
??_C@_05GPIHJIAI@?$CF?$CF?4?$CFd?$AA@ DB '%%.%d', 00H	; `string'
CONST	ENDS
;	COMDAT ??_C@_0EM@HDBFHAFF@?$FLMasterLevelSkillTreeSystem?$FN?5Get@
CONST	SEGMENT
??_C@_0EM@HDBFHAFF@?$FLMasterLevelSkillTreeSystem?$FN?5Get@ DB '[MasterLe'
	DB	'velSkillTreeSystem] GetMasterSkillManaIncRate - Invalid Point'
	DB	' : %d', 00H					; `string'
CONST	ENDS
;	COMDAT ??_C@_0EF@FJHPDEPE@?$FLMasterLevelSkillTreeSystem?$FN?5Get@
CONST	SEGMENT
??_C@_0EF@FJHPDEPE@?$FLMasterLevelSkillTreeSystem?$FN?5Get@ DB '[MasterLe'
	DB	'velSkillTreeSystem] GetMasterSkillValue - Invalid Type : %d', 00H ; `string'
CONST	ENDS
;	COMDAT ??_C@_0EJ@IOMPPJNP@?$FLMasterLevelSkillTreeSystem?$FN?5Get@
CONST	SEGMENT
??_C@_0EJ@IOMPPJNP@?$FLMasterLevelSkillTreeSystem?$FN?5Get@ DB '[MasterLe'
	DB	'velSkillTreeSystem] GetRequireMLPoint - Invalid Skill Code : '
	DB	'%d', 00H					; `string'
CONST	ENDS
;	COMDAT ??_C@_0EK@FPJIEBPO@?$FLMasterLevelSkillTreeSystem?$FN?5Get@
CONST	SEGMENT
??_C@_0EK@FPJIEBPO@?$FLMasterLevelSkillTreeSystem?$FN?5Get@ DB '[MasterLe'
	DB	'velSkillTreeSystem] GetRequireMLPoint - Invalid Class Code  :'
	DB	' %d', 00H					; `string'
CONST	ENDS
;	COMDAT ??_C@_0FA@NONLFBKD@?$FL?$CFs?$FN?$FL?$CFs?$FN?5Use?5Infinity?5Arrow?5Skil@
CONST	SEGMENT
??_C@_0FA@NONLFBKD@?$FL?$CFs?$FN?$FL?$CFs?$FN?5Use?5Infinity?5Arrow?5Skil@ DB '['
	DB	'%s][%s] Use Infinity Arrow Skill (Time:%d)(Character Level : '
	DB	'%d)(ChangeUp: %d)', 00H			; `string'
CONST	ENDS
;	COMDAT ??_C@_0HK@DAPGGDKB@?$FLInvalidTargetIndex?$FN?$FLCMasterLeve@
CONST	SEGMENT
??_C@_0HK@DAPGGDKB@?$FLInvalidTargetIndex?$FN?$FLCMasterLeve@ DB '[Invali'
	DB	'dTargetIndex][CMasterLevelSkillTreeSystem::RunningSkill_MLS]['
	DB	'AT_MSKILL_RF_DRAGONRORE1] Index :%d , AccountID : %s ', 00H ; `string'
CONST	ENDS
;	COMDAT ??_C@_0EO@COKPAFNE@?$FLMasterSkill?$FN?5?$FL?$CFs?$FN?$FL?$CFs?$FN?5Success?5?9@
CONST	SEGMENT
??_C@_0EO@COKPAFNE@?$FLMasterSkill?$FN?5?$FL?$CFs?$FN?$FL?$CFs?$FN?5Success?5?9@ DB '['
	DB	'MasterSkill] [%s][%s] Success - Add Magic List, Skill:%d Leve'
	DB	'l:%d MLPoint:%d', 00H			; `string'
CONST	ENDS
;	COMDAT ??_C@_0EA@MEFIMNOG@?$FLMasterSkill?$FN?5?$FL?$CFs?$FN?$FL?$CFs?$FN?5Fail?5?9?5Ad@
CONST	SEGMENT
??_C@_0EA@MEFIMNOG@?$FLMasterSkill?$FN?5?$FL?$CFs?$FN?$FL?$CFs?$FN?5Fail?5?9?5Ad@ DB '['
	DB	'MasterSkill] [%s][%s] Fail - Add Magic List, Skill:%d Level:%'
	DB	'd', 00H					; `string'
CONST	ENDS
;	COMDAT ??_C@_0EC@EOPMIEFL@?$FLMasterSkill?$FN?5?$FL?$CFs?$FN?$FL?$CFs?$FN?5Fail?$CIUse?5@
CONST	SEGMENT
??_C@_0EC@EOPMIEFL@?$FLMasterSkill?$FN?5?$FL?$CFs?$FN?$FL?$CFs?$FN?5Fail?$CIUse?5@ DB '['
	DB	'MasterSkill] [%s][%s] Fail(Use Trade Interface) - Add Magic L'
	DB	'ist', 00H					; `string'
CONST	ENDS
;	COMDAT ??_C@_0ED@OHLDPICA@?$FLMasterLevelSkillTreeSystem?$FN?5?9?5L@
CONST	SEGMENT
??_C@_0ED@OHLDPICA@?$FLMasterLevelSkillTreeSystem?$FN?5?9?5L@ DB '[Master'
	DB	'LevelSkillTreeSystem] - Loading Exception Error (%s) File. ', 00H ; `string'
CONST	ENDS
;	COMDAT ??_R0H@8
data$r	SEGMENT
??_R0H@8 DD	FLAT:??_7type_info@@6B@			; int `RTTI Type Descriptor'
	DD	00H
	DB	'.H', 00H
data$r	ENDS
;	COMDAT ??_C@_0DB@JHFKLIFA@?$FLMasterLevelSkillTreeSystem?$FN?5?9?5?$CF@
CONST	SEGMENT
??_C@_0DB@JHFKLIFA@?$FLMasterLevelSkillTreeSystem?$FN?5?9?5?$CF@ DB '[Mas'
	DB	'terLevelSkillTreeSystem] - %s file is Loaded', 00H ; `string'
CONST	ENDS
;	COMDAT ??_C@_03JBJLGPFL@end?$AA@
CONST	SEGMENT
??_C@_03JBJLGPFL@end?$AA@ DB 'end', 00H			; `string'
CONST	ENDS
;	COMDAT ??_C@_0CO@KEMAJKBC@?$FLMasterLevelSkillTreeSystem?$FN?5?9?5C@
CONST	SEGMENT
??_C@_0CO@KEMAJKBC@?$FLMasterLevelSkillTreeSystem?$FN?5?9?5C@ DB '[Master'
	DB	'LevelSkillTreeSystem] - Can''t Open %s ', 00H ; `string'
CONST	ENDS
;	COMDAT ??_C@_01KDCPPGHE@r?$AA@
CONST	SEGMENT
??_C@_01KDCPPGHE@r?$AA@ DB 'r', 00H			; `string'
CONST	ENDS
;	COMDAT ??_C@_0EB@OOEJLKHO@?$FLMasterLevelSkillTreeSystem?$FN?5?9?5F@
CONST	SEGMENT
??_C@_0EB@OOEJLKHO@?$FLMasterLevelSkillTreeSystem?$FN?5?9?5F@ DB '[Master'
	DB	'LevelSkillTreeSystem] - File load error : File Name Error', 00H ; `string'
CONST	ENDS
;	COMDAT ??_C@_0BC@LKJFKKIO@FN_LuaGetPercent5?$AA@
CONST	SEGMENT
??_C@_0BC@LKJFKKIO@FN_LuaGetPercent5?$AA@ DB 'FN_LuaGetPercent5', 00H ; `string'
CONST	ENDS
;	COMDAT ??_C@_0BG@HIBANFAN@FN_LuaGetMaxAGFighter?$AA@
CONST	SEGMENT
??_C@_0BG@HIBANFAN@FN_LuaGetMaxAGFighter?$AA@ DB 'FN_LuaGetMaxAGFighter', 00H ; `string'
CONST	ENDS
;	COMDAT ??_C@_0BN@OLMOMCNF@FN_LuaGetIncreaseStatFighter?$AA@
CONST	SEGMENT
??_C@_0BN@OLMOMCNF@FN_LuaGetIncreaseStatFighter?$AA@ DB 'FN_LuaGetIncreas'
	DB	'eStatFighter', 00H				; `string'
CONST	ENDS
;	COMDAT ??_C@_0CB@MICAEJNJ@FN_LuaGetIncreaseBlockingFighter@
CONST	SEGMENT
??_C@_0CB@MICAEJNJ@FN_LuaGetIncreaseBlockingFighter@ DB 'FN_LuaGetIncreas'
	DB	'eBlockingFighter', 00H			; `string'
CONST	ENDS
;	COMDAT ??_C@_0BM@DMCLBHIL@FN_LuaGetMaxLifeManaFighter?$AA@
CONST	SEGMENT
??_C@_0BM@DMCLBHIL@FN_LuaGetMaxLifeManaFighter?$AA@ DB 'FN_LuaGetMaxLifeM'
	DB	'anaFighter', 00H				; `string'
CONST	ENDS
;	COMDAT ??_C@_0BG@GCMGLIBN@FN_LuaGetMaxSDFighter?$AA@
CONST	SEGMENT
??_C@_0BG@GCMGLIBN@FN_LuaGetMaxSDFighter?$AA@ DB 'FN_LuaGetMaxSDFighter', 00H ; `string'
CONST	ENDS
;	COMDAT ??_C@_0BO@PHDDECBO@FN_LuaGetManAttackRateFighter?$AA@
CONST	SEGMENT
??_C@_0BO@PHDDECBO@FN_LuaGetManAttackRateFighter?$AA@ DB 'FN_LuaGetManAtt'
	DB	'ackRateFighter', 00H			; `string'
CONST	ENDS
;	COMDAT ??_C@_0CC@GIMADFJA@FN_LuaGetAttackSuccessRateFighte@
CONST	SEGMENT
??_C@_0CC@GIMADFJA@FN_LuaGetAttackSuccessRateFighte@ DB 'FN_LuaGetAttackS'
	DB	'uccessRateFighter', 00H			; `string'
CONST	ENDS
;	COMDAT ??_C@_0BN@EBCBIPEA@FN_LuaGetBlockingRateFighter?$AA@
CONST	SEGMENT
??_C@_0BN@EBCBIPEA@FN_LuaGetBlockingRateFighter?$AA@ DB 'FN_LuaGetBlockin'
	DB	'gRateFighter', 00H				; `string'
CONST	ENDS
;	COMDAT ??_C@_0BC@JFEINDGN@FN_LuaIronDefense?$AA@
CONST	SEGMENT
??_C@_0BC@JFEINDGN@FN_LuaIronDefense?$AA@ DB 'FN_LuaIronDefense', 00H ; `string'
CONST	ENDS
;	COMDAT ??_C@_0BC@CIHPMOKL@FN_LuaPoisonArrow?$AA@
CONST	SEGMENT
??_C@_0BC@CIHPMOKL@FN_LuaPoisonArrow?$AA@ DB 'FN_LuaPoisonArrow', 00H ; `string'
CONST	ENDS
;	COMDAT ??_C@_0BC@BBGGKCGM@FN_LuaEarthPrison?$AA@
CONST	SEGMENT
??_C@_0BC@BBGGKCGM@FN_LuaEarthPrison?$AA@ DB 'FN_LuaEarthPrison', 00H ; `string'
CONST	ENDS
;	COMDAT ??_C@_0BB@LFNDNAPP@FN_LuaBloodStorm?$AA@
CONST	SEGMENT
??_C@_0BB@LFNDNAPP@FN_LuaBloodStorm?$AA@ DB 'FN_LuaBloodStorm', 00H ; `string'
CONST	ENDS
;	COMDAT ??_C@_0BF@LJJDIDAP@FN_LuaGetAttackSpeed?$AA@
CONST	SEGMENT
??_C@_0BF@LJJDIDAP@FN_LuaGetAttackSpeed?$AA@ DB 'FN_LuaGetAttackSpeed', 00H ; `string'
CONST	ENDS
;	COMDAT ??_C@_0BJ@HDEMEFAH@FN_LuaGetSkillDamageMin2?$AA@
CONST	SEGMENT
??_C@_0BJ@HDEMEFAH@FN_LuaGetSkillDamageMin2?$AA@ DB 'FN_LuaGetSkillDamage'
	DB	'Min2', 00H					; `string'
CONST	ENDS
;	COMDAT ??_C@_0BF@FNNMPCIH@FN_LuaGetManaIncRate?$AA@
CONST	SEGMENT
??_C@_0BF@FNNMPCIH@FN_LuaGetManaIncRate?$AA@ DB 'FN_LuaGetManaIncRate', 00H ; `string'
CONST	ENDS
;	COMDAT ??_C@_0BH@NBDCMLMA@FN_LuaGetControlAttack?$AA@
CONST	SEGMENT
??_C@_0BH@NBDCMLMA@FN_LuaGetControlAttack?$AA@ DB 'FN_LuaGetControlAttack'
	DB	00H						; `string'
CONST	ENDS
;	COMDAT ??_C@_0BI@KNJEGBLM@FN_LuaGetChangeBlocking?$AA@
CONST	SEGMENT
??_C@_0BI@KNJEGBLM@FN_LuaGetChangeBlocking?$AA@ DB 'FN_LuaGetChangeBlocki'
	DB	'ng', 00H					; `string'
CONST	ENDS
;	COMDAT ??_C@_0BG@CABOJEGF@FN_LuaGetDecreaseMana?$AA@
CONST	SEGMENT
??_C@_0BG@CABOJEGF@FN_LuaGetDecreaseMana?$AA@ DB 'FN_LuaGetDecreaseMana', 00H ; `string'
CONST	ENDS
;	COMDAT ??_C@_0BG@JCFOHPHC@FN_LuaGetIncreaseStat?$AA@
CONST	SEGMENT
??_C@_0BG@JCFOHPHC@FN_LuaGetIncreaseStat?$AA@ DB 'FN_LuaGetIncreaseStat', 00H ; `string'
CONST	ENDS
;	COMDAT ??_C@_0BK@DOJCBFIF@FN_LuaGetIncreaseBlocking?$AA@
CONST	SEGMENT
??_C@_0BK@DOJCBFIF@FN_LuaGetIncreaseBlocking?$AA@ DB 'FN_LuaGetIncreaseBl'
	DB	'ocking', 00H				; `string'
CONST	ENDS
;	COMDAT ??_C@_0BC@KDIOJLMP@FN_LuaGetPercent4?$AA@
CONST	SEGMENT
??_C@_0BC@KDIOJLMP@FN_LuaGetPercent4?$AA@ DB 'FN_LuaGetPercent4', 00H ; `string'
CONST	ENDS
;	COMDAT ??_C@_0BH@GCDFBGLA@FN_LuaGetManAttackRate?$AA@
CONST	SEGMENT
??_C@_0BH@GCDFBGLA@FN_LuaGetManAttackRate?$AA@ DB 'FN_LuaGetManAttackRate'
	DB	00H						; `string'
CONST	ENDS
;	COMDAT ??_C@_0BL@HLJOLACJ@FN_LuaGetAttackSuccessRate?$AA@
CONST	SEGMENT
??_C@_0BL@HLJOLACJ@FN_LuaGetAttackSuccessRate?$AA@ DB 'FN_LuaGetAttackSuc'
	DB	'cessRate', 00H				; `string'
CONST	ENDS
;	COMDAT ??_C@_0BG@BIKPHGOL@FN_LuaGetBlockingRate?$AA@
CONST	SEGMENT
??_C@_0BG@BIKPHGOL@FN_LuaGetBlockingRate?$AA@ DB 'FN_LuaGetBlockingRate', 00H ; `string'
CONST	ENDS
;	COMDAT ??_C@_0BH@JGAEJLDA@FN_LuaGetSDMonsterKill?$AA@
CONST	SEGMENT
??_C@_0BH@JGAEJLDA@FN_LuaGetSDMonsterKill?$AA@ DB 'FN_LuaGetSDMonsterKill'
	DB	00H						; `string'
CONST	ENDS
;	COMDAT ??_C@_0BA@EBCPMHKF@FN_LuaGetAttack?$AA@
CONST	SEGMENT
??_C@_0BA@EBCPMHKF@FN_LuaGetAttack?$AA@ DB 'FN_LuaGetAttack', 00H ; `string'
CONST	ENDS
;	COMDAT ??_C@_0BF@IPHPEKAB@FN_LuaGetMaxLifeMana?$AA@
CONST	SEGMENT
??_C@_0BF@IPHPEKAB@FN_LuaGetMaxLifeMana?$AA@ DB 'FN_LuaGetMaxLifeMana', 00H ; `string'
CONST	ENDS
;	COMDAT ??_C@_0P@KNGMLNAM@FN_LuaGetMaxAG?$AA@
CONST	SEGMENT
??_C@_0P@KNGMLNAM@FN_LuaGetMaxAG?$AA@ DB 'FN_LuaGetMaxAG', 00H ; `string'
CONST	ENDS
;	COMDAT ??_C@_0BC@OMMPANAI@FN_LuaGetPercent3?$AA@
CONST	SEGMENT
??_C@_0BC@OMMPANAI@FN_LuaGetPercent3?$AA@ DB 'FN_LuaGetPercent3', 00H ; `string'
CONST	ENDS
;	COMDAT ??_C@_0BF@DCGKOEID@FN_LuaGetMonsterKill?$AA@
CONST	SEGMENT
??_C@_0BF@DCGKOEID@FN_LuaGetMonsterKill?$AA@ DB 'FN_LuaGetMonsterKill', 00H ; `string'
CONST	ENDS
;	COMDAT ??_C@_0BI@EKAPDBGI@FN_LuaGetSkillDamageMax?$AA@
CONST	SEGMENT
??_C@_0BI@EKAPDBGI@FN_LuaGetSkillDamageMax?$AA@ DB 'FN_LuaGetSkillDamageM'
	DB	'ax', 00H					; `string'
CONST	ENDS
;	COMDAT ??_C@_0BL@LEGGLFON@FN_LuaGetSkillDamageMiddle?$AA@
CONST	SEGMENT
??_C@_0BL@LEGGLFON@FN_LuaGetSkillDamageMiddle?$AA@ DB 'FN_LuaGetSkillDama'
	DB	'geMiddle', 00H				; `string'
CONST	ENDS
;	COMDAT ??_C@_0BI@FIIENFAH@FN_LuaGetSkillDamageMin?$AA@
CONST	SEGMENT
??_C@_0BI@FIIENFAH@FN_LuaGetSkillDamageMin?$AA@ DB 'FN_LuaGetSkillDamageM'
	DB	'in', 00H					; `string'
CONST	ENDS
;	COMDAT ??_C@_0BC@PFNEDMEJ@FN_LuaGetPercent2?$AA@
CONST	SEGMENT
??_C@_0BC@PFNEDMEJ@FN_LuaGetPercent2?$AA@ DB 'FN_LuaGetPercent2', 00H ; `string'
CONST	ENDS
;	COMDAT ??_C@_0BB@BDCPEPNH@FN_LuaGetPercent?$AA@
CONST	SEGMENT
??_C@_0BB@BDCPEPNH@FN_LuaGetPercent?$AA@ DB 'FN_LuaGetPercent', 00H ; `string'
CONST	ENDS
;	COMDAT ??_C@_03LHPBPOFD@i?$DOd?$AA@
CONST	SEGMENT
??_C@_03LHPBPOFD@i?$DOd?$AA@ DB 'i>d', 00H		; `string'
CONST	ENDS
;	COMDAT ??_C@_0BM@IBJJMKHM@Skill?2MasterSkillEffect?4lua?$AA@
CONST	SEGMENT
??_C@_0BM@IBJJMKHM@Skill?2MasterSkillEffect?4lua?$AA@ DB 'Skill\MasterSki'
	DB	'llEffect.lua', 00H				; `string'
CONST	ENDS
;	COMDAT ??_C@_0DB@LIFBGGBJ@?$FLMasterLevelSkillTreeSystem?$FN?5?9?5E@
CONST	SEGMENT
??_C@_0DB@LIFBGGBJ@?$FLMasterLevelSkillTreeSystem?$FN?5?9?5E@ DB '[Master'
	DB	'LevelSkillTreeSystem] - Error - [%s] [%d]', 00H ; `string'
CONST	ENDS
;	COMDAT ??_C@_0BP@OPMJJLKL@MasterLevelSkillTreeSystem?4cpp?$AA@
CONST	SEGMENT
??_C@_0BP@OPMJJLKL@MasterLevelSkillTreeSystem?4cpp?$AA@ DB 'MasterLevelSk'
	DB	'illTreeSystem.cpp', 00H			; `string'
CONST	ENDS
;	COMDAT ??_7CMasterLevelSkillTreeSystem@@6B@
CONST	SEGMENT
??_7CMasterLevelSkillTreeSystem@@6B@ DD FLAT:??_R4CMasterLevelSkillTreeSystem@@6B@ ; CMasterLevelSkillTreeSystem::`vftable'
	DD	FLAT:??_ECMasterLevelSkillTreeSystem@@UAEPAXI@Z
CONST	ENDS
;	COMDAT ??_C@_00CNPNBAHC@?$AA@
CONST	SEGMENT
??_C@_00CNPNBAHC@?$AA@ DB 00H				; `string'
CONST	ENDS
;	COMDAT xdata$x
xdata$x	SEGMENT
__catchsym$?Load@CMasterLevelSkillTreeSystem@@QAEXPBD@Z$2 DD 00H
	DD	FLAT:??_R0H@8
	DD	00H
	DD	FLAT:__catch$?Load@CMasterLevelSkillTreeSystem@@QAEXPBD@Z$0
__unwindtable$?Load@CMasterLevelSkillTreeSystem@@QAEXPBD@Z DD 0ffffffffH
	DD	00H
	DD	0ffffffffH
	DD	00H
__tryblocktable$?Load@CMasterLevelSkillTreeSystem@@QAEXPBD@Z DD 00H
	DD	00H
	DD	01H
	DD	01H
	DD	FLAT:__catchsym$?Load@CMasterLevelSkillTreeSystem@@QAEXPBD@Z$2
__ehfuncinfo$?Load@CMasterLevelSkillTreeSystem@@QAEXPBD@Z DD 019930522H
	DD	02H
	DD	FLAT:__unwindtable$?Load@CMasterLevelSkillTreeSystem@@QAEXPBD@Z
	DD	01H
	DD	FLAT:__tryblocktable$?Load@CMasterLevelSkillTreeSystem@@QAEXPBD@Z
	DD	2 DUP(00H)
	DD	00H
	DD	01H
xdata$x	ENDS
;	COMDAT xdata$x
xdata$x	SEGMENT
__ehfuncinfo$??_EOBJECTSTRUCT@@QAEPAXI@Z DD 019930522H
	DD	00H
	DD	00H
	DD	2 DUP(00H)
	DD	2 DUP(00H)
	DD	00H
	DD	05H
xdata$x	ENDS
; Function compile flags: /Ogtp
;	COMDAT ??__Fg_MasterSkillSystem@@YAXXZ
text$yd	SEGMENT
??__Fg_MasterSkillSystem@@YAXXZ PROC			; `dynamic atexit destructor for 'g_MasterSkillSystem'', COMDAT
  00000	b9 00 00 00 00	 mov	 ecx, OFFSET ?g_MasterSkillSystem@@3VCMasterLevelSkillTreeSystem@@A ; g_MasterSkillSystem
  00005	e9 00 00 00 00	 jmp	 ??1CMasterLevelSkillTreeSystem@@UAE@XZ ; CMasterLevelSkillTreeSystem::~CMasterLevelSkillTreeSystem
??__Fg_MasterSkillSystem@@YAXXZ ENDP			; `dynamic atexit destructor for 'g_MasterSkillSystem''
text$yd	ENDS
; Function compile flags: /Ogtp
; File c:\users\michel\desktop\source\gameserver\source\masterlevelskilltreesystem.cpp
;	COMDAT ??__Eg_MasterSkillSystem@@YAXXZ
text$di	SEGMENT
??__Eg_MasterSkillSystem@@YAXXZ PROC			; `dynamic initializer for 'g_MasterSkillSystem'', COMDAT

; 36   : CMasterLevelSkillTreeSystem g_MasterSkillSystem;

  00000	b9 00 00 00 00	 mov	 ecx, OFFSET ?g_MasterSkillSystem@@3VCMasterLevelSkillTreeSystem@@A ; g_MasterSkillSystem
  00005	e8 00 00 00 00	 call	 ??0CMasterLevelSkillTreeSystem@@QAE@XZ ; CMasterLevelSkillTreeSystem::CMasterLevelSkillTreeSystem
  0000a	68 00 00 00 00	 push	 OFFSET ??__Fg_MasterSkillSystem@@YAXXZ ; `dynamic atexit destructor for 'g_MasterSkillSystem''
  0000f	e8 00 00 00 00	 call	 _atexit
  00014	59		 pop	 ecx
  00015	c3		 ret	 0
??__Eg_MasterSkillSystem@@YAXXZ ENDP			; `dynamic initializer for 'g_MasterSkillSystem''
text$di	ENDS
; Function compile flags: /Ogtp
; File c:\users\michel\desktop\source\gameserver\include\readscript.h
;	COMDAT ?GetToken@@YA?AW4SMDToken@@XZ
_TEXT	SEGMENT
_TempString$ = -104					; size = 100
__$ArrayPad$ = -4					; size = 4
?GetToken@@YA?AW4SMDToken@@XZ PROC			; GetToken, COMDAT

; 24   : {

  00000	55		 push	 ebp
  00001	8b ec		 mov	 ebp, esp
  00003	83 ec 68	 sub	 esp, 104		; 00000068H
  00006	a1 00 00 00 00	 mov	 eax, DWORD PTR ___security_cookie
  0000b	33 c5		 xor	 eax, ebp
  0000d	89 45 fc	 mov	 DWORD PTR __$ArrayPad$[ebp], eax

; 25   : 	int ch;
; 26   : 	char* p;
; 27   : 	char TempString[100];
; 28   : 
; 29   : 	TokenString[0]=0;

  00010	c6 05 00 00 00
	00 00		 mov	 BYTE PTR ?TokenString@@3PADA, 0
  00017	53		 push	 ebx
  00018	0f 1f 84 00 00
	00 00 00	 npad	 8
$LL4@GetToken:

; 30   : 
; 31   : 	do
; 32   : 	{
; 33   : 		if ((ch=fgetc(SMDFile)) == -1)

  00020	ff 35 00 00 00
	00		 push	 DWORD PTR ?SMDFile@@3PAU_iobuf@@A
  00026	e8 00 00 00 00	 call	 _fgetc
  0002b	8b d8		 mov	 ebx, eax
  0002d	83 c4 04	 add	 esp, 4
  00030	83 fb ff	 cmp	 ebx, -1
  00033	74 5d		 je	 SHORT $LN43@GetToken

; 34   : 		{
; 35   : 			return END;	// End of FILE (EOF)
; 36   : 		}
; 37   : 		else
; 38   : 		{	
; 39   : 			if (ch=='/')		// this is /

  00035	83 fb 2f	 cmp	 ebx, 47			; 0000002fH
  00038	75 30		 jne	 SHORT $LN2@GetToken

; 40   : 			{
; 41   : 				if((ch=fgetc(SMDFile)) == '/')

  0003a	ff 35 00 00 00
	00		 push	 DWORD PTR ?SMDFile@@3PAU_iobuf@@A
  00040	e8 00 00 00 00	 call	 _fgetc
  00045	8b d8		 mov	 ebx, eax
  00047	83 c4 04	 add	 esp, 4
  0004a	83 fb 2f	 cmp	 ebx, 47			; 0000002fH
  0004d	75 1b		 jne	 SHORT $LN2@GetToken
  0004f	90		 npad	 1
$LL5@GetToken:

; 42   : 				{
; 43   : 					while ((ch != '\n') && (ch != -1))	// End of Line (EOL)

  00050	83 fb ff	 cmp	 ebx, -1
  00053	74 3d		 je	 SHORT $LN43@GetToken

; 44   : 					{
; 45   : 						ch=fgetc(SMDFile);

  00055	ff 35 00 00 00
	00		 push	 DWORD PTR ?SMDFile@@3PAU_iobuf@@A
  0005b	e8 00 00 00 00	 call	 _fgetc
  00060	8b d8		 mov	 ebx, eax
  00062	83 c4 04	 add	 esp, 4
  00065	83 fb 0a	 cmp	 ebx, 10			; 0000000aH
  00068	75 e6		 jne	 SHORT $LL5@GetToken
$LN2@GetToken:

; 51   : 					}
; 52   : 				}
; 53   : 			}
; 54   : 		}
; 55   : 	}
; 56   : 	while (isspace(ch) != 0);

  0006a	53		 push	 ebx
  0006b	e8 00 00 00 00	 call	 _isspace
  00070	83 c4 04	 add	 esp, 4
  00073	85 c0		 test	 eax, eax
  00075	75 a9		 jne	 SHORT $LL4@GetToken

; 57   : 
; 58   : 	
; 59   : 	switch(ch)

  00077	8d 43 de	 lea	 eax, DWORD PTR [ebx-34]
  0007a	56		 push	 esi
  0007b	83 f8 5b	 cmp	 eax, 91			; 0000005bH
  0007e	0f 87 89 01 00
	00		 ja	 $LN29@GetToken
  00084	0f b6 80 00 00
	00 00		 movzx	 eax, BYTE PTR $LN58@GetToken[eax]
  0008b	ff 24 85 00 00
	00 00		 jmp	 DWORD PTR $LN64@GetToken[eax*4]
$LN43@GetToken:

; 46   : 					}
; 47   : 	
; 48   : 					if (ch == -1)
; 49   : 					{
; 50   : 						return END;	// End of FILE

  00092	b8 02 00 00 00	 mov	 eax, 2
  00097	5b		 pop	 ebx

; 143  : 		}
; 144  : 		else
; 145  : 		{
; 146  : 			return CurrentToken = SMD_ERROR; // '<'
; 147  : 		}
; 148  : 		break;
; 149  : 
; 150  : 	}
; 151  : 
; 152  : 	return NAME;
; 153  : }

  00098	8b 4d fc	 mov	 ecx, DWORD PTR __$ArrayPad$[ebp]
  0009b	33 cd		 xor	 ecx, ebp
  0009d	e8 00 00 00 00	 call	 @__security_check_cookie@4
  000a2	8b e5		 mov	 esp, ebp
  000a4	5d		 pop	 ebp
  000a5	c3		 ret	 0
$LN20@GetToken:
  000a6	5e		 pop	 esi

; 60   : 	{
; 61   : 
; 62   : 	case 0x23:	// #
; 63   : 		return CurrentToken=COMMAND;

  000a7	c7 05 00 00 00
	00 23 00 00 00	 mov	 DWORD PTR ?CurrentToken@@3W4SMDToken@@A, 35 ; 00000023H
  000b1	b8 23 00 00 00	 mov	 eax, 35			; 00000023H
  000b6	5b		 pop	 ebx

; 143  : 		}
; 144  : 		else
; 145  : 		{
; 146  : 			return CurrentToken = SMD_ERROR; // '<'
; 147  : 		}
; 148  : 		break;
; 149  : 
; 150  : 	}
; 151  : 
; 152  : 	return NAME;
; 153  : }

  000b7	8b 4d fc	 mov	 ecx, DWORD PTR __$ArrayPad$[ebp]
  000ba	33 cd		 xor	 ecx, ebp
  000bc	e8 00 00 00 00	 call	 @__security_check_cookie@4
  000c1	8b e5		 mov	 esp, ebp
  000c3	5d		 pop	 ebp
  000c4	c3		 ret	 0
$LN21@GetToken:
  000c5	5e		 pop	 esi

; 64   : 		break;
; 65   : 	
; 66   : 	case 0x3B:	// ;
; 67   : 		return CurrentToken=SEMICOLON;

  000c6	c7 05 00 00 00
	00 3b 00 00 00	 mov	 DWORD PTR ?CurrentToken@@3W4SMDToken@@A, 59 ; 0000003bH
  000d0	b8 3b 00 00 00	 mov	 eax, 59			; 0000003bH
  000d5	5b		 pop	 ebx

; 143  : 		}
; 144  : 		else
; 145  : 		{
; 146  : 			return CurrentToken = SMD_ERROR; // '<'
; 147  : 		}
; 148  : 		break;
; 149  : 
; 150  : 	}
; 151  : 
; 152  : 	return NAME;
; 153  : }

  000d6	8b 4d fc	 mov	 ecx, DWORD PTR __$ArrayPad$[ebp]
  000d9	33 cd		 xor	 ecx, ebp
  000db	e8 00 00 00 00	 call	 @__security_check_cookie@4
  000e0	8b e5		 mov	 esp, ebp
  000e2	5d		 pop	 ebp
  000e3	c3		 ret	 0
$LN22@GetToken:
  000e4	5e		 pop	 esi

; 68   : 		break;
; 69   : 	
; 70   : 	case 0x2C:	// ,
; 71   : 
; 72   : 		return CurrentToken=COMMA;

  000e5	c7 05 00 00 00
	00 2c 00 00 00	 mov	 DWORD PTR ?CurrentToken@@3W4SMDToken@@A, 44 ; 0000002cH
  000ef	b8 2c 00 00 00	 mov	 eax, 44			; 0000002cH
  000f4	5b		 pop	 ebx

; 143  : 		}
; 144  : 		else
; 145  : 		{
; 146  : 			return CurrentToken = SMD_ERROR; // '<'
; 147  : 		}
; 148  : 		break;
; 149  : 
; 150  : 	}
; 151  : 
; 152  : 	return NAME;
; 153  : }

  000f5	8b 4d fc	 mov	 ecx, DWORD PTR __$ArrayPad$[ebp]
  000f8	33 cd		 xor	 ecx, ebp
  000fa	e8 00 00 00 00	 call	 @__security_check_cookie@4
  000ff	8b e5		 mov	 esp, ebp
  00101	5d		 pop	 ebp
  00102	c3		 ret	 0
$LN23@GetToken:
  00103	5e		 pop	 esi

; 73   : 		break;
; 74   : 	
; 75   : 	case 0x7B:	// {
; 76   : 		return CurrentToken = LP;

  00104	c7 05 00 00 00
	00 7b 00 00 00	 mov	 DWORD PTR ?CurrentToken@@3W4SMDToken@@A, 123 ; 0000007bH
  0010e	b8 7b 00 00 00	 mov	 eax, 123		; 0000007bH
  00113	5b		 pop	 ebx

; 143  : 		}
; 144  : 		else
; 145  : 		{
; 146  : 			return CurrentToken = SMD_ERROR; // '<'
; 147  : 		}
; 148  : 		break;
; 149  : 
; 150  : 	}
; 151  : 
; 152  : 	return NAME;
; 153  : }

  00114	8b 4d fc	 mov	 ecx, DWORD PTR __$ArrayPad$[ebp]
  00117	33 cd		 xor	 ecx, ebp
  00119	e8 00 00 00 00	 call	 @__security_check_cookie@4
  0011e	8b e5		 mov	 esp, ebp
  00120	5d		 pop	 ebp
  00121	c3		 ret	 0
$LN24@GetToken:
  00122	5e		 pop	 esi

; 77   : 		break;
; 78   : 
; 79   : 	case 0x7D:	// }
; 80   : 		return CurrentToken = RP;

  00123	c7 05 00 00 00
	00 7d 00 00 00	 mov	 DWORD PTR ?CurrentToken@@3W4SMDToken@@A, 125 ; 0000007dH
  0012d	b8 7d 00 00 00	 mov	 eax, 125		; 0000007dH
  00132	5b		 pop	 ebx

; 143  : 		}
; 144  : 		else
; 145  : 		{
; 146  : 			return CurrentToken = SMD_ERROR; // '<'
; 147  : 		}
; 148  : 		break;
; 149  : 
; 150  : 	}
; 151  : 
; 152  : 	return NAME;
; 153  : }

  00133	8b 4d fc	 mov	 ecx, DWORD PTR __$ArrayPad$[ebp]
  00136	33 cd		 xor	 ecx, ebp
  00138	e8 00 00 00 00	 call	 @__security_check_cookie@4
  0013d	8b e5		 mov	 esp, ebp
  0013f	5d		 pop	 ebp
  00140	c3		 ret	 0
$LN25@GetToken:

; 81   : 		break;
; 82   : 	// Nice Index Table :)	by Deathway
; 83   : 	// Numbers Case
; 84   : 	case 0x2D:	//-
; 85   : 	case 0x2E:	//.
; 86   : 	case '0':	//0
; 87   : 	case '1':	//1
; 88   : 	case '2':	//2
; 89   : 	case '3':	//3
; 90   : 	case '4':	//4		
; 91   : 	case '5':	//5
; 92   : 	case '6':	//6
; 93   : 	case '7':	//7
; 94   : 	case '8':	//8
; 95   : 	case '9':	//9
; 96   : 		ungetc(ch, SMDFile);

  00141	ff 35 00 00 00
	00		 push	 DWORD PTR ?SMDFile@@3PAU_iobuf@@A
  00147	53		 push	 ebx
  00148	e8 00 00 00 00	 call	 _ungetc

; 97   : 		p = TempString;
; 98   : 		
; 99   : 		while (((ch=getc(SMDFile)) != -1) && ((ch == 0x2E) || (isdigit(ch) != 0) || (ch == 0x2D)))  // 2e '.'  2D '-'

  0014d	ff 35 00 00 00
	00		 push	 DWORD PTR ?SMDFile@@3PAU_iobuf@@A
  00153	8d 75 98	 lea	 esi, DWORD PTR _TempString$[ebp]
  00156	e8 00 00 00 00	 call	 _getc
  0015b	8b d8		 mov	 ebx, eax
  0015d	83 c4 0c	 add	 esp, 12			; 0000000cH
  00160	83 fb ff	 cmp	 ebx, -1
  00163	74 2f		 je	 SHORT $LN59@GetToken
$LL9@GetToken:
  00165	83 fb 2e	 cmp	 ebx, 46			; 0000002eH
  00168	74 12		 je	 SHORT $LN26@GetToken
  0016a	53		 push	 ebx
  0016b	e8 00 00 00 00	 call	 _isdigit
  00170	83 c4 04	 add	 esp, 4
  00173	85 c0		 test	 eax, eax
  00175	75 05		 jne	 SHORT $LN26@GetToken
  00177	83 fb 2d	 cmp	 ebx, 45			; 0000002dH
  0017a	75 18		 jne	 SHORT $LN59@GetToken
$LN26@GetToken:
  0017c	ff 35 00 00 00
	00		 push	 DWORD PTR ?SMDFile@@3PAU_iobuf@@A

; 100  : 		{
; 101  : 			*p = ch;	// Construct a String

  00182	88 1e		 mov	 BYTE PTR [esi], bl

; 102  : 			p++;

  00184	46		 inc	 esi
  00185	e8 00 00 00 00	 call	 _getc
  0018a	8b d8		 mov	 ebx, eax
  0018c	83 c4 04	 add	 esp, 4
  0018f	83 fb ff	 cmp	 ebx, -1
  00192	75 d1		 jne	 SHORT $LL9@GetToken
$LN59@GetToken:

; 103  : 		}		
; 104  : 		*p = 0;
; 105  : 		TokenNumber = (float)atof( TempString);	// Select the first Byte as Main ID

  00194	8d 45 98	 lea	 eax, DWORD PTR _TempString$[ebp]
  00197	c6 06 00	 mov	 BYTE PTR [esi], 0
  0019a	50		 push	 eax
  0019b	e8 00 00 00 00	 call	 _atof
  001a0	83 c4 04	 add	 esp, 4

; 106  : 		return CurrentToken  = NUMBER ;

  001a3	c7 05 00 00 00
	00 01 00 00 00	 mov	 DWORD PTR ?CurrentToken@@3W4SMDToken@@A, 1
  001ad	d9 1d 00 00 00
	00		 fstp	 DWORD PTR ?TokenNumber@@3MA
  001b3	b8 01 00 00 00	 mov	 eax, 1
  001b8	5e		 pop	 esi
  001b9	5b		 pop	 ebx

; 143  : 		}
; 144  : 		else
; 145  : 		{
; 146  : 			return CurrentToken = SMD_ERROR; // '<'
; 147  : 		}
; 148  : 		break;
; 149  : 
; 150  : 	}
; 151  : 
; 152  : 	return NAME;
; 153  : }

  001ba	8b 4d fc	 mov	 ecx, DWORD PTR __$ArrayPad$[ebp]
  001bd	33 cd		 xor	 ecx, ebp
  001bf	e8 00 00 00 00	 call	 @__security_check_cookie@4
  001c4	8b e5		 mov	 esp, ebp
  001c6	5d		 pop	 ebp
  001c7	c3		 ret	 0
$LN27@GetToken:

; 107  : 		break;
; 108  : 
; 109  : 	case '\"':	// "	String Case
; 110  : 		p=&TokenString[0];
; 111  : 		
; 112  : 		while (((ch=getc(SMDFile)) != -1 ) && (ch != 0x22))	// nice

  001c8	ff 35 00 00 00
	00		 push	 DWORD PTR ?SMDFile@@3PAU_iobuf@@A
  001ce	be 00 00 00 00	 mov	 esi, OFFSET ?TokenString@@3PADA
  001d3	e8 00 00 00 00	 call	 _getc
  001d8	83 c4 04	 add	 esp, 4
  001db	83 f8 ff	 cmp	 eax, -1
  001de	74 1f		 je	 SHORT $LN12@GetToken
$LL11@GetToken:
  001e0	83 f8 22	 cmp	 eax, 34			; 00000022H
  001e3	0f 84 95 00 00
	00		 je	 $LN28@GetToken
  001e9	ff 35 00 00 00
	00		 push	 DWORD PTR ?SMDFile@@3PAU_iobuf@@A

; 113  : 		{
; 114  : 			*p = ch;

  001ef	88 06		 mov	 BYTE PTR [esi], al

; 115  : 			p++;

  001f1	46		 inc	 esi
  001f2	e8 00 00 00 00	 call	 _getc
  001f7	83 c4 04	 add	 esp, 4
  001fa	83 f8 ff	 cmp	 eax, -1
  001fd	75 e1		 jne	 SHORT $LL11@GetToken
$LN12@GetToken:

; 116  : 		}
; 117  : 		if (ch != 0x22 )

  001ff	83 f8 22	 cmp	 eax, 34			; 00000022H
  00202	74 7a		 je	 SHORT $LN28@GetToken

; 118  : 		{
; 119  : 			ungetc(ch, SMDFile);

  00204	ff 35 00 00 00
	00		 push	 DWORD PTR ?SMDFile@@3PAU_iobuf@@A
  0020a	50		 push	 eax

; 120  : 		}
; 121  : 		*p = 0;
; 122  : 		return CurrentToken = NAME;

  0020b	eb 69		 jmp	 SHORT $LN62@GetToken
$LN29@GetToken:

; 123  : 		break;
; 124  : 
; 125  : 	default:	// Others
; 126  : 		if (isalpha(ch))

  0020d	53		 push	 ebx
  0020e	e8 00 00 00 00	 call	 _isalpha
  00213	83 c4 04	 add	 esp, 4
  00216	85 c0		 test	 eax, eax
  00218	0f 84 7f 00 00
	00		 je	 $LN30@GetToken

; 127  : 		{
; 128  : 			p=&TokenString[0];
; 129  : 			*p=ch;
; 130  : 			p++;
; 131  : 
; 132  : 			while ( ((ch=getc(SMDFile)) != -1) && ( (ch == 0x2E) || (ch == 0x5F) || (isalnum(ch) != 0) ) )

  0021e	ff 35 00 00 00
	00		 push	 DWORD PTR ?SMDFile@@3PAU_iobuf@@A
  00224	88 1d 00 00 00
	00		 mov	 BYTE PTR ?TokenString@@3PADA, bl
  0022a	be 01 00 00 00	 mov	 esi, OFFSET ?TokenString@@3PADA+1
  0022f	e8 00 00 00 00	 call	 _getc
  00234	8b d8		 mov	 ebx, eax
  00236	83 c4 04	 add	 esp, 4
  00239	83 fb ff	 cmp	 ebx, -1
  0023c	74 31		 je	 SHORT $LN60@GetToken
  0023e	66 90		 npad	 2
$LL13@GetToken:
  00240	83 fb 2e	 cmp	 ebx, 46			; 0000002eH
  00243	74 12		 je	 SHORT $LN32@GetToken
  00245	83 fb 5f	 cmp	 ebx, 95			; 0000005fH
  00248	74 0d		 je	 SHORT $LN32@GetToken
  0024a	53		 push	 ebx
  0024b	e8 00 00 00 00	 call	 _isalnum
  00250	83 c4 04	 add	 esp, 4
  00253	85 c0		 test	 eax, eax
  00255	74 18		 je	 SHORT $LN60@GetToken
$LN32@GetToken:
  00257	ff 35 00 00 00
	00		 push	 DWORD PTR ?SMDFile@@3PAU_iobuf@@A

; 133  : 			{
; 134  : 				*p=ch;

  0025d	88 1e		 mov	 BYTE PTR [esi], bl

; 135  : 				p++;

  0025f	46		 inc	 esi
  00260	e8 00 00 00 00	 call	 _getc
  00265	8b d8		 mov	 ebx, eax
  00267	83 c4 04	 add	 esp, 4
  0026a	83 fb ff	 cmp	 ebx, -1
  0026d	75 d1		 jne	 SHORT $LL13@GetToken
$LN60@GetToken:

; 136  : 				
; 137  : 			}
; 138  : 
; 139  : 			ungetc(ch, SMDFile);

  0026f	ff 35 00 00 00
	00		 push	 DWORD PTR ?SMDFile@@3PAU_iobuf@@A
  00275	53		 push	 ebx
$LN62@GetToken:
  00276	e8 00 00 00 00	 call	 _ungetc
  0027b	83 c4 08	 add	 esp, 8
$LN28@GetToken:

; 140  : 			*p=0;

  0027e	c6 06 00	 mov	 BYTE PTR [esi], 0

; 141  : 			CurrentToken=NAME;
; 142  : 			return CurrentToken;

  00281	33 c0		 xor	 eax, eax
  00283	5e		 pop	 esi
  00284	c7 05 00 00 00
	00 00 00 00 00	 mov	 DWORD PTR ?CurrentToken@@3W4SMDToken@@A, 0
  0028e	5b		 pop	 ebx

; 143  : 		}
; 144  : 		else
; 145  : 		{
; 146  : 			return CurrentToken = SMD_ERROR; // '<'
; 147  : 		}
; 148  : 		break;
; 149  : 
; 150  : 	}
; 151  : 
; 152  : 	return NAME;
; 153  : }

  0028f	8b 4d fc	 mov	 ecx, DWORD PTR __$ArrayPad$[ebp]
  00292	33 cd		 xor	 ecx, ebp
  00294	e8 00 00 00 00	 call	 @__security_check_cookie@4
  00299	8b e5		 mov	 esp, ebp
  0029b	5d		 pop	 ebp
  0029c	c3		 ret	 0
$LN30@GetToken:
  0029d	8b 4d fc	 mov	 ecx, DWORD PTR __$ArrayPad$[ebp]
  002a0	b8 3c 00 00 00	 mov	 eax, 60			; 0000003cH
  002a5	5e		 pop	 esi
  002a6	33 cd		 xor	 ecx, ebp
  002a8	c7 05 00 00 00
	00 3c 00 00 00	 mov	 DWORD PTR ?CurrentToken@@3W4SMDToken@@A, 60 ; 0000003cH
  002b2	5b		 pop	 ebx
  002b3	e8 00 00 00 00	 call	 @__security_check_cookie@4
  002b8	8b e5		 mov	 esp, ebp
  002ba	5d		 pop	 ebp
  002bb	c3		 ret	 0
$LN64@GetToken:
  002bc	00 00 00 00	 DD	 $LN27@GetToken
  002c0	00 00 00 00	 DD	 $LN20@GetToken
  002c4	00 00 00 00	 DD	 $LN22@GetToken
  002c8	00 00 00 00	 DD	 $LN25@GetToken
  002cc	00 00 00 00	 DD	 $LN21@GetToken
  002d0	00 00 00 00	 DD	 $LN23@GetToken
  002d4	00 00 00 00	 DD	 $LN24@GetToken
  002d8	00 00 00 00	 DD	 $LN29@GetToken
$LN58@GetToken:
  002dc	00		 DB	 0
  002dd	01		 DB	 1
  002de	07		 DB	 7
  002df	07		 DB	 7
  002e0	07		 DB	 7
  002e1	07		 DB	 7
  002e2	07		 DB	 7
  002e3	07		 DB	 7
  002e4	07		 DB	 7
  002e5	07		 DB	 7
  002e6	02		 DB	 2
  002e7	03		 DB	 3
  002e8	03		 DB	 3
  002e9	07		 DB	 7
  002ea	03		 DB	 3
  002eb	03		 DB	 3
  002ec	03		 DB	 3
  002ed	03		 DB	 3
  002ee	03		 DB	 3
  002ef	03		 DB	 3
  002f0	03		 DB	 3
  002f1	03		 DB	 3
  002f2	03		 DB	 3
  002f3	03		 DB	 3
  002f4	07		 DB	 7
  002f5	04		 DB	 4
  002f6	07		 DB	 7
  002f7	07		 DB	 7
  002f8	07		 DB	 7
  002f9	07		 DB	 7
  002fa	07		 DB	 7
  002fb	07		 DB	 7
  002fc	07		 DB	 7
  002fd	07		 DB	 7
  002fe	07		 DB	 7
  002ff	07		 DB	 7
  00300	07		 DB	 7
  00301	07		 DB	 7
  00302	07		 DB	 7
  00303	07		 DB	 7
  00304	07		 DB	 7
  00305	07		 DB	 7
  00306	07		 DB	 7
  00307	07		 DB	 7
  00308	07		 DB	 7
  00309	07		 DB	 7
  0030a	07		 DB	 7
  0030b	07		 DB	 7
  0030c	07		 DB	 7
  0030d	07		 DB	 7
  0030e	07		 DB	 7
  0030f	07		 DB	 7
  00310	07		 DB	 7
  00311	07		 DB	 7
  00312	07		 DB	 7
  00313	07		 DB	 7
  00314	07		 DB	 7
  00315	07		 DB	 7
  00316	07		 DB	 7
  00317	07		 DB	 7
  00318	07		 DB	 7
  00319	07		 DB	 7
  0031a	07		 DB	 7
  0031b	07		 DB	 7
  0031c	07		 DB	 7
  0031d	07		 DB	 7
  0031e	07		 DB	 7
  0031f	07		 DB	 7
  00320	07		 DB	 7
  00321	07		 DB	 7
  00322	07		 DB	 7
  00323	07		 DB	 7
  00324	07		 DB	 7
  00325	07		 DB	 7
  00326	07		 DB	 7
  00327	07		 DB	 7
  00328	07		 DB	 7
  00329	07		 DB	 7
  0032a	07		 DB	 7
  0032b	07		 DB	 7
  0032c	07		 DB	 7
  0032d	07		 DB	 7
  0032e	07		 DB	 7
  0032f	07		 DB	 7
  00330	07		 DB	 7
  00331	07		 DB	 7
  00332	07		 DB	 7
  00333	07		 DB	 7
  00334	07		 DB	 7
  00335	05		 DB	 5
  00336	07		 DB	 7
  00337	06		 DB	 6
?GetToken@@YA?AW4SMDToken@@XZ ENDP			; GetToken
_TEXT	ENDS
; Function compile flags: /Ogtp
; File c:\users\michel\desktop\source\gameserver\source\skilladditioninfo.h
;	COMDAT ?GetManaShieldRate@CSkillAdditionInfo@@QAEFH@Z
_TEXT	SEGMENT
_level$ = 8						; size = 4
?GetManaShieldRate@CSkillAdditionInfo@@QAEFH@Z PROC	; CSkillAdditionInfo::GetManaShieldRate, COMDAT
; _this$ = ecx

; 47   : 	short GetManaShieldRate(int level) { if( level < 0 || level > 20 ) return 20; return m_SB_ManaRate[level]; };

  00000	55		 push	 ebp
  00001	8b ec		 mov	 ebp, esp
  00003	8b 45 08	 mov	 eax, DWORD PTR _level$[ebp]
  00006	83 f8 14	 cmp	 eax, 20			; 00000014H
  00009	77 09		 ja	 SHORT $LN3@GetManaShi
  0000b	66 8b 44 41 40	 mov	 ax, WORD PTR [ecx+eax*2+64]
  00010	5d		 pop	 ebp
  00011	c2 04 00	 ret	 4
$LN3@GetManaShi:
  00014	b8 14 00 00 00	 mov	 eax, 20			; 00000014H
  00019	5d		 pop	 ebp
  0001a	c2 04 00	 ret	 4
?GetManaShieldRate@CSkillAdditionInfo@@QAEFH@Z ENDP	; CSkillAdditionInfo::GetManaShieldRate
_TEXT	ENDS
; Function compile flags: /Ogtp
; File c:\users\michel\desktop\source\gameserver\source\skilladditioninfo.h
;	COMDAT ?GetFireScreamSkill@CSkillAdditionInfo@@QAEHXZ
_TEXT	SEGMENT
?GetFireScreamSkill@CSkillAdditionInfo@@QAEHXZ PROC	; CSkillAdditionInfo::GetFireScreamSkill, COMDAT
; _this$ = ecx

; 35   : 	BOOL GetFireScreamSkill(){return this->m_bFireScreamSkill;}

  00000	8b 41 1c	 mov	 eax, DWORD PTR [ecx+28]
  00003	c3		 ret	 0
?GetFireScreamSkill@CSkillAdditionInfo@@QAEHXZ ENDP	; CSkillAdditionInfo::GetFireScreamSkill
_TEXT	ENDS
; Function compile flags: /Ogtp
; File c:\users\michel\desktop\source\gameserver\source\skilladditioninfo.h
;	COMDAT ?GetInfinityArrowSkillTime@CSkillAdditionInfo@@QAEHXZ
_TEXT	SEGMENT
?GetInfinityArrowSkillTime@CSkillAdditionInfo@@QAEHXZ PROC ; CSkillAdditionInfo::GetInfinityArrowSkillTime, COMDAT
; _this$ = ecx

; 23   : 	int GetInfinityArrowSkillTime(){return this->m_iInfinityArrowSkillTime;}

  00000	8b 41 04	 mov	 eax, DWORD PTR [ecx+4]
  00003	c3		 ret	 0
?GetInfinityArrowSkillTime@CSkillAdditionInfo@@QAEHXZ ENDP ; CSkillAdditionInfo::GetInfinityArrowSkillTime
_TEXT	ENDS
; Function compile flags: /Ogtp
;	COMDAT ??_GCMasterLevelSkillTreeSystem@@UAEPAXI@Z
_TEXT	SEGMENT
___flags$ = 8						; size = 4
??_GCMasterLevelSkillTreeSystem@@UAEPAXI@Z PROC		; CMasterLevelSkillTreeSystem::`scalar deleting destructor', COMDAT
; _this$ = ecx
  00000	55		 push	 ebp
  00001	8b ec		 mov	 ebp, esp
  00003	56		 push	 esi
  00004	8b f1		 mov	 esi, ecx
  00006	e8 00 00 00 00	 call	 ??1CMasterLevelSkillTreeSystem@@UAE@XZ ; CMasterLevelSkillTreeSystem::~CMasterLevelSkillTreeSystem
  0000b	f6 45 08 01	 test	 BYTE PTR ___flags$[ebp], 1
  0000f	74 0e		 je	 SHORT $LN4@scalar
  00011	68 cc 55 00 00	 push	 21964			; 000055ccH
  00016	56		 push	 esi
  00017	e8 00 00 00 00	 call	 ??3@YAXPAXI@Z		; operator delete
  0001c	83 c4 08	 add	 esp, 8
$LN4@scalar:
  0001f	8b c6		 mov	 eax, esi
  00021	5e		 pop	 esi
  00022	5d		 pop	 ebp
  00023	c2 04 00	 ret	 4
??_GCMasterLevelSkillTreeSystem@@UAEPAXI@Z ENDP		; CMasterLevelSkillTreeSystem::`scalar deleting destructor'
_TEXT	ENDS
; Function compile flags: /Ogtp
; File c:\users\michel\desktop\source\gameserver\source\masterlevelskilltreesystem.cpp
;	COMDAT ?CheckSkillInTree@CMasterLevelSkillTreeSystem@@QAE_NHHH@Z
_TEXT	SEGMENT
_iClass$ = 8						; size = 4
_iSkill$ = 12						; size = 4
_iTreeKind$ = 16					; size = 4
?CheckSkillInTree@CMasterLevelSkillTreeSystem@@QAE_NHHH@Z PROC ; CMasterLevelSkillTreeSystem::CheckSkillInTree, COMDAT
; _this$ = ecx

; 7420 : bool CMasterLevelSkillTreeSystem::CheckSkillInTree(int iClass, int iSkill, int iTreeKind) {

  00000	55		 push	 ebp
  00001	8b ec		 mov	 ebp, esp

; 7421 : 	int iPos;
; 7422 : 	int iRank;
; 7423 : 
; 7424 : 	for (int iRank = 0; iRank < MAX_SKILLTREE_RANK; iRank++) {

  00003	69 45 10 d0 02
	00 00		 imul	 eax, DWORD PTR _iTreeKind$[ebp], 720
  0000a	8b 55 0c	 mov	 edx, DWORD PTR _iSkill$[ebp]
  0000d	56		 push	 esi
  0000e	57		 push	 edi
  0000f	69 7d 08 74 08
	00 00		 imul	 edi, DWORD PTR _iClass$[ebp], 2164
  00016	33 f6		 xor	 esi, esi
  00018	83 c0 18	 add	 eax, 24			; 00000018H
  0001b	03 f9		 add	 edi, ecx
  0001d	03 f8		 add	 edi, eax
  0001f	90		 npad	 1
$LL4@CheckSkill:

; 7425 : 		for (int iPos = 0; iPos < MAX_SKILLTREE_POS; iPos++) {

  00020	33 c9		 xor	 ecx, ecx
  00022	8b c7		 mov	 eax, edi
$LL7@CheckSkill:

; 7426 : 			if (this->m_SkillTreeData[iClass].m_SkillInfo[iTreeKind][iRank][iPos].m_iSkillID == iSkill) {

  00024	39 10		 cmp	 DWORD PTR [eax], edx
  00026	74 1a		 je	 SHORT $LN12@CheckSkill

; 7425 : 		for (int iPos = 0; iPos < MAX_SKILLTREE_POS; iPos++) {

  00028	41		 inc	 ecx
  00029	83 c0 14	 add	 eax, 20			; 00000014H
  0002c	83 f9 04	 cmp	 ecx, 4
  0002f	7c f3		 jl	 SHORT $LL7@CheckSkill

; 7421 : 	int iPos;
; 7422 : 	int iRank;
; 7423 : 
; 7424 : 	for (int iRank = 0; iRank < MAX_SKILLTREE_RANK; iRank++) {

  00031	46		 inc	 esi
  00032	83 c7 50	 add	 edi, 80			; 00000050H
  00035	83 fe 09	 cmp	 esi, 9
  00038	7c e6		 jl	 SHORT $LL4@CheckSkill

; 7428 : 			}
; 7429 : 		}
; 7430 : 	}
; 7431 : 	return false;

  0003a	5f		 pop	 edi
  0003b	32 c0		 xor	 al, al
  0003d	5e		 pop	 esi

; 7432 : }

  0003e	5d		 pop	 ebp
  0003f	c2 0c 00	 ret	 12			; 0000000cH
$LN12@CheckSkill:
  00042	5f		 pop	 edi

; 7427 : 				return true;

  00043	b0 01		 mov	 al, 1
  00045	5e		 pop	 esi

; 7432 : }

  00046	5d		 pop	 ebp
  00047	c2 0c 00	 ret	 12			; 0000000cH
?CheckSkillInTree@CMasterLevelSkillTreeSystem@@QAE_NHHH@Z ENDP ; CMasterLevelSkillTreeSystem::CheckSkillInTree
_TEXT	ENDS
; Function compile flags: /Ogtp
; File c:\users\michel\desktop\source\gameserver\source\masterlevelskilltreesystem.cpp
;	COMDAT ?ResetMasterSkill@CMasterLevelSkillTreeSystem@@QAEDHH@Z
_TEXT	SEGMENT
_this$1$ = -4						; size = 4
_iClass$1$ = 8						; size = 4
_aIndex$ = 8						; size = 4
_nTreeType$ = 12					; size = 4
?ResetMasterSkill@CMasterLevelSkillTreeSystem@@QAEDHH@Z PROC ; CMasterLevelSkillTreeSystem::ResetMasterSkill, COMDAT
; _this$ = ecx

; 7363 : char CMasterLevelSkillTreeSystem::ResetMasterSkill(int aIndex, int nTreeType) {

  00000	55		 push	 ebp
  00001	8b ec		 mov	 ebp, esp
  00003	51		 push	 ecx
  00004	56		 push	 esi

; 7364 : 	LPOBJ lpUser = &gObj[aIndex];

  00005	69 75 08 40 27
	00 00		 imul	 esi, DWORD PTR _aIndex$[ebp], 10048
  0000c	89 4d fc	 mov	 DWORD PTR _this$1$[ebp], ecx
  0000f	03 35 00 00 00
	00		 add	 esi, DWORD PTR ?gObj@@3PAUOBJECTSTRUCT@@A ; gObj

; 7365 : 	int iClass = 0;
; 7366 : 
; 7367 : 	if (lpUser == NULL) {

  00015	75 09		 jne	 SHORT $LN5@ResetMaste

; 7368 : 		return -1;

  00017	0c ff		 or	 al, -1
  00019	5e		 pop	 esi

; 7418 : }

  0001a	8b e5		 mov	 esp, ebp
  0001c	5d		 pop	 ebp
  0001d	c2 08 00	 ret	 8
$LN5@ResetMaste:
  00020	53		 push	 ebx

; 7369 : 	}
; 7370 : 
; 7371 : 	if (nTreeType < 0 || nTreeType > MAX_SKILLTREE_TYPE) {

  00021	8b 5d 0c	 mov	 ebx, DWORD PTR _nTreeType$[ebp]
  00024	83 fb 03	 cmp	 ebx, 3
  00027	0f 87 52 01 00
	00		 ja	 $LN7@ResetMaste

; 7373 : 	}
; 7374 : 
; 7375 : 	iClass = lpUser->Class;

  0002d	0f b7 86 90 00
	00 00		 movzx	 eax, WORD PTR [esi+144]
  00034	57		 push	 edi
  00035	89 45 08	 mov	 DWORD PTR _iClass$1$[ebp], eax
  00038	33 ff		 xor	 edi, edi
  0003a	66 0f 1f 44 00
	00		 npad	 6
$LL4@ResetMaste:

; 7378 : 		if (lpUser->Magic[n].IsMagic()
; 7379 : 			&& g_MasterSkillSystem.CheckMasterLevelSkill(lpUser->Magic[n].m_Skill)
; 7380 : 			&& (nTreeType == 0 || this->CheckSkillInTree(iClass, lpUser->Magic[n].m_Skill, nTreeType - 1))) {

  00040	8b 8e a8 06 00
	00		 mov	 ecx, DWORD PTR [esi+1704]
  00046	03 cf		 add	 ecx, edi
  00048	e8 00 00 00 00	 call	 ?IsMagic@CMagicInf@@QAEHXZ ; CMagicInf::IsMagic
  0004d	85 c0		 test	 eax, eax
  0004f	0f 84 10 01 00
	00		 je	 $LN2@ResetMaste
  00055	8b 86 a8 06 00
	00		 mov	 eax, DWORD PTR [esi+1704]
  0005b	b9 00 00 00 00	 mov	 ecx, OFFSET ?g_MasterSkillSystem@@3VCMasterLevelSkillTreeSystem@@A ; g_MasterSkillSystem
  00060	ff 74 38 08	 push	 DWORD PTR [eax+edi+8]
  00064	e8 00 00 00 00	 call	 ?CheckMasterLevelSkill@CMasterLevelSkillTreeSystem@@QAEHH@Z ; CMasterLevelSkillTreeSystem::CheckMasterLevelSkill
  00069	85 c0		 test	 eax, eax
  0006b	0f 84 f4 00 00
	00		 je	 $LN2@ResetMaste
  00071	85 db		 test	 ebx, ebx
  00073	74 21		 je	 SHORT $LN9@ResetMaste
  00075	8b 4d fc	 mov	 ecx, DWORD PTR _this$1$[ebp]
  00078	8d 43 ff	 lea	 eax, DWORD PTR [ebx-1]
  0007b	50		 push	 eax
  0007c	8b 86 a8 06 00
	00		 mov	 eax, DWORD PTR [esi+1704]
  00082	ff 74 38 08	 push	 DWORD PTR [eax+edi+8]
  00086	ff 75 08	 push	 DWORD PTR _iClass$1$[ebp]
  00089	e8 00 00 00 00	 call	 ?CheckSkillInTree@CMasterLevelSkillTreeSystem@@QAE_NHHH@Z ; CMasterLevelSkillTreeSystem::CheckSkillInTree
  0008e	84 c0		 test	 al, al
  00090	0f 84 cf 00 00
	00		 je	 $LN2@ResetMaste
$LN9@ResetMaste:

; 7381 : 				if (MagicDamageC.GetSkillUseType(lpUser->Magic[n].m_Skill) == 3) {

  00096	8b 86 a8 06 00
	00		 mov	 eax, DWORD PTR [esi+1704]
  0009c	b9 00 00 00 00	 mov	 ecx, OFFSET ?MagicDamageC@@3VCMagicDamage@@A ; MagicDamageC
  000a1	ff 74 38 08	 push	 DWORD PTR [eax+edi+8]
  000a5	e8 00 00 00 00	 call	 ?GetSkillUseType@CMagicDamage@@QAEHH@Z ; CMagicDamage::GetSkillUseType
  000aa	83 f8 03	 cmp	 eax, 3
  000ad	75 1c		 jne	 SHORT $LN10@ResetMaste

; 7382 : 					lpUser->MasterPoint += lpUser->Magic[n].m_Level;

  000af	8b 8e a8 06 00
	00		 mov	 ecx, DWORD PTR [esi+1704]
  000b5	03 cf		 add	 ecx, edi
  000b7	0f b6 41 04	 movzx	 eax, BYTE PTR [ecx+4]
  000bb	01 86 c0 00 00
	00		 add	 DWORD PTR [esi+192], eax

; 7383 : 					lpUser->Magic[n].Clear();

  000c1	e8 00 00 00 00	 call	 ?Clear@CMagicInf@@QAEXXZ ; CMagicInf::Clear

; 7384 : 				}
; 7385 : 				else {

  000c6	e9 9a 00 00 00	 jmp	 $LN2@ResetMaste
$LN10@ResetMaste:

; 7386 : 					int iBrandOfSkill = MagicDamageC.GetBrandOfSkill(lpUser->Magic[n].m_Skill);

  000cb	8b 86 a8 06 00
	00		 mov	 eax, DWORD PTR [esi+1704]
  000d1	b9 00 00 00 00	 mov	 ecx, OFFSET ?MagicDamageC@@3VCMagicDamage@@A ; MagicDamageC
  000d6	ff 74 38 08	 push	 DWORD PTR [eax+edi+8]
  000da	e8 00 00 00 00	 call	 ?GetBrandOfSkill@CMagicDamage@@QAEGH@Z ; CMagicDamage::GetBrandOfSkill
  000df	0f b7 d8	 movzx	 ebx, ax

; 7387 : 
; 7388 : 					if (iBrandOfSkill == 0) {

  000e2	85 db		 test	 ebx, ebx
  000e4	75 19		 jne	 SHORT $LN12@ResetMaste
$LN28@ResetMaste:

; 7389 : 						lpUser->MasterPoint += lpUser->Magic[n].m_Level;

  000e6	8b 8e a8 06 00
	00		 mov	 ecx, DWORD PTR [esi+1704]
  000ec	03 cf		 add	 ecx, edi
  000ee	0f b6 41 04	 movzx	 eax, BYTE PTR [ecx+4]
  000f2	01 86 c0 00 00
	00		 add	 DWORD PTR [esi+192], eax

; 7390 : 						lpUser->Magic[n].Clear();

  000f8	e8 00 00 00 00	 call	 ?Clear@CMagicInf@@QAEXXZ ; CMagicInf::Clear
  000fd	eb 63		 jmp	 SHORT $LN26@ResetMaste
$LN12@ResetMaste:

; 7391 : 					}
; 7392 : 					else if (g_MasterSkillSystem.CheckMasterLevelSkill(iBrandOfSkill)) {

  000ff	53		 push	 ebx
  00100	b9 00 00 00 00	 mov	 ecx, OFFSET ?g_MasterSkillSystem@@3VCMasterLevelSkillTreeSystem@@A ; g_MasterSkillSystem
  00105	e8 00 00 00 00	 call	 ?CheckMasterLevelSkill@CMasterLevelSkillTreeSystem@@QAEHH@Z ; CMasterLevelSkillTreeSystem::CheckMasterLevelSkill
  0010a	85 c0		 test	 eax, eax
  0010c	75 d8		 jne	 SHORT $LN28@ResetMaste

; 7393 : 						lpUser->MasterPoint += lpUser->Magic[n].m_Level;
; 7394 : 						lpUser->Magic[n].Clear();
; 7395 : 					}
; 7396 : 					else {
; 7397 : 						CItem *lpLeftItem = &lpUser->pInventory[1];

  0010e	8b 96 c0 11 00
	00		 mov	 edx, DWORD PTR [esi+4544]

; 7398 : 						CItem *lpRightItem = &lpUser->pInventory[0];
; 7399 : 
; 7400 : 						if (lpLeftItem->m_Special[0] == iBrandOfSkill) {
; 7401 : 							lpUser->MasterPoint += lpUser->Magic[n].m_Level;

  00114	8b 8e a8 06 00
	00		 mov	 ecx, DWORD PTR [esi+1704]
  0011a	03 cf		 add	 ecx, edi
  0011c	0f b7 82 06 01
	00 00		 movzx	 eax, WORD PTR [edx+262]
  00123	3b c3		 cmp	 eax, ebx
  00125	75 14		 jne	 SHORT $LN16@ResetMaste
  00127	0f b6 41 04	 movzx	 eax, BYTE PTR [ecx+4]
  0012b	01 86 c0 00 00
	00		 add	 DWORD PTR [esi+192], eax

; 7402 : 							lpUser->Magic[n].UpdateMasterSkill(iBrandOfSkill, (BYTE)lpLeftItem->m_Level);

  00131	0f b6 82 dc 00
	00 00		 movzx	 eax, BYTE PTR [edx+220]
  00138	50		 push	 eax
  00139	eb 21		 jmp	 SHORT $LN27@ResetMaste
$LN16@ResetMaste:

; 7403 : 						}
; 7404 : 						else if (lpRightItem->m_Special[0] == iBrandOfSkill) {

  0013b	0f b7 42 32	 movzx	 eax, WORD PTR [edx+50]
  0013f	3b c3		 cmp	 eax, ebx

; 7405 : 							lpUser->MasterPoint += lpUser->Magic[n].m_Level;

  00141	0f b6 41 04	 movzx	 eax, BYTE PTR [ecx+4]
  00145	75 0d		 jne	 SHORT $LN18@ResetMaste
  00147	01 86 c0 00 00
	00		 add	 DWORD PTR [esi+192], eax

; 7406 : 							lpUser->Magic[n].UpdateMasterSkill(iBrandOfSkill, (BYTE)lpRightItem->m_Level);

  0014d	0f b6 42 08	 movzx	 eax, BYTE PTR [edx+8]
  00151	50		 push	 eax

; 7407 : 						}
; 7408 : 						else {

  00152	eb 08		 jmp	 SHORT $LN27@ResetMaste
$LN18@ResetMaste:

; 7409 : 							lpUser->MasterPoint += lpUser->Magic[n].m_Level;

  00154	01 86 c0 00 00
	00		 add	 DWORD PTR [esi+192], eax

; 7410 : 							lpUser->Magic[n].UpdateMasterSkill(iBrandOfSkill, 0);

  0015a	6a 00		 push	 0
$LN27@ResetMaste:
  0015c	53		 push	 ebx
  0015d	e8 00 00 00 00	 call	 ?UpdateMasterSkill@CMagicInf@@QAEHHE@Z ; CMagicInf::UpdateMasterSkill
$LN26@ResetMaste:
  00162	8b 5d 0c	 mov	 ebx, DWORD PTR _nTreeType$[ebp]
$LN2@ResetMaste:

; 7376 : 
; 7377 : 	for (int n = 0; n < MAGIC_SIZE; n++) {

  00165	83 c7 18	 add	 edi, 24			; 00000018H
  00168	81 ff 10 0e 00
	00		 cmp	 edi, 3600		; 00000e10H
  0016e	0f 8c cc fe ff
	ff		 jl	 $LL4@ResetMaste

; 7411 : 						}
; 7412 : 					}
; 7413 : 				}
; 7414 : 		}
; 7415 : 	}
; 7416 : 	
; 7417 : 	return false;

  00174	5f		 pop	 edi
  00175	5b		 pop	 ebx
  00176	32 c0		 xor	 al, al
  00178	5e		 pop	 esi

; 7418 : }

  00179	8b e5		 mov	 esp, ebp
  0017b	5d		 pop	 ebp
  0017c	c2 08 00	 ret	 8
$LN7@ResetMaste:
  0017f	5b		 pop	 ebx

; 7372 : 		return -1;

  00180	0c ff		 or	 al, -1
  00182	5e		 pop	 esi

; 7418 : }

  00183	8b e5		 mov	 esp, ebp
  00185	5d		 pop	 ebp
  00186	c2 08 00	 ret	 8
?ResetMasterSkill@CMasterLevelSkillTreeSystem@@QAEDHH@Z ENDP ; CMasterLevelSkillTreeSystem::ResetMasterSkill
_TEXT	ENDS
; Function compile flags: /Ogtp
; File c:\users\michel\desktop\source\gameserver\source\masterlevelskilltreesystem.cpp
;	COMDAT ?CheckMasterSkillPoint@CMasterLevelSkillTreeSystem@@QAEDHH@Z
_TEXT	SEGMENT
_this$1$ = -4						; size = 4
_iClass$1$ = 8						; size = 4
_aIndex$ = 8						; size = 4
_nTreeType$ = 12					; size = 4
?CheckMasterSkillPoint@CMasterLevelSkillTreeSystem@@QAEDHH@Z PROC ; CMasterLevelSkillTreeSystem::CheckMasterSkillPoint, COMDAT
; _this$ = ecx

; 7330 : char CMasterLevelSkillTreeSystem::CheckMasterSkillPoint(int aIndex, int nTreeType) {

  00000	55		 push	 ebp
  00001	8b ec		 mov	 ebp, esp
  00003	51		 push	 ecx
  00004	53		 push	 ebx
  00005	57		 push	 edi

; 7331 : 	LPOBJ lpUser = &gObj[aIndex];

  00006	69 7d 08 40 27
	00 00		 imul	 edi, DWORD PTR _aIndex$[ebp], 10048

; 7332 : 	int nSkillCnt = 0;

  0000d	bb 00 00 00 00	 mov	 ebx, 0
  00012	89 4d fc	 mov	 DWORD PTR _this$1$[ebp], ecx
  00015	03 3d 00 00 00
	00		 add	 edi, DWORD PTR ?gObj@@3PAUOBJECTSTRUCT@@A ; gObj

; 7333 : 	int iClass = -1;
; 7334 : 
; 7335 : 	if (lpUser == NULL) {

  0001b	0f 84 8b 00 00
	00		 je	 $LN7@CheckMaste

; 7336 : 		return -1;
; 7337 : 	}
; 7338 : 
; 7339 : 	if (nTreeType < 0 || nTreeType > MAX_SKILLTREE_TYPE) {

  00021	8b 45 0c	 mov	 eax, DWORD PTR _nTreeType$[ebp]
  00024	83 f8 03	 cmp	 eax, 3
  00027	0f 87 7f 00 00
	00		 ja	 $LN7@CheckMaste

; 7341 : 	}
; 7342 : 
; 7343 : 	iClass = lpUser->Class;

  0002d	0f b7 8f 90 00
	00 00		 movzx	 ecx, WORD PTR [edi+144]
  00034	89 4d 08	 mov	 DWORD PTR _iClass$1$[ebp], ecx

; 7344 : 
; 7345 : 	if (nTreeType > 0) {

  00037	85 c0		 test	 eax, eax
  00039	7e 67		 jle	 SHORT $LN11@CheckMaste

; 7346 : 		for (int n = 0; n < MAGIC_SIZE; n++) {

  0003b	56		 push	 esi
  0003c	33 f6		 xor	 esi, esi
  0003e	66 90		 npad	 2
$LL4@CheckMaste:

; 7347 : 			if (lpUser->Magic[n].IsMagic()
; 7348 : 				&& g_MasterSkillSystem.CheckMasterLevelSkill(lpUser->Magic[n].m_Skill)) {

  00040	8b 8f a8 06 00
	00		 mov	 ecx, DWORD PTR [edi+1704]
  00046	03 ce		 add	 ecx, esi
  00048	e8 00 00 00 00	 call	 ?IsMagic@CMagicInf@@QAEHXZ ; CMagicInf::IsMagic
  0004d	85 c0		 test	 eax, eax
  0004f	74 37		 je	 SHORT $LN2@CheckMaste
  00051	8b 87 a8 06 00
	00		 mov	 eax, DWORD PTR [edi+1704]
  00057	b9 00 00 00 00	 mov	 ecx, OFFSET ?g_MasterSkillSystem@@3VCMasterLevelSkillTreeSystem@@A ; g_MasterSkillSystem
  0005c	ff 74 30 08	 push	 DWORD PTR [eax+esi+8]
  00060	e8 00 00 00 00	 call	 ?CheckMasterLevelSkill@CMasterLevelSkillTreeSystem@@QAEHH@Z ; CMasterLevelSkillTreeSystem::CheckMasterLevelSkill
  00065	85 c0		 test	 eax, eax
  00067	74 1f		 je	 SHORT $LN2@CheckMaste

; 7349 : 				if (this->CheckSkillInTree(iClass, lpUser->Magic[n].m_Skill, nTreeType - 1)) {

  00069	8b 45 0c	 mov	 eax, DWORD PTR _nTreeType$[ebp]
  0006c	8b 4d fc	 mov	 ecx, DWORD PTR _this$1$[ebp]
  0006f	48		 dec	 eax
  00070	50		 push	 eax
  00071	8b 87 a8 06 00
	00		 mov	 eax, DWORD PTR [edi+1704]
  00077	ff 74 30 08	 push	 DWORD PTR [eax+esi+8]
  0007b	ff 75 08	 push	 DWORD PTR _iClass$1$[ebp]
  0007e	e8 00 00 00 00	 call	 ?CheckSkillInTree@CMasterLevelSkillTreeSystem@@QAE_NHHH@Z ; CMasterLevelSkillTreeSystem::CheckSkillInTree
  00083	84 c0		 test	 al, al
  00085	74 01		 je	 SHORT $LN2@CheckMaste

; 7350 : 					nSkillCnt++;

  00087	43		 inc	 ebx
$LN2@CheckMaste:

; 7346 : 		for (int n = 0; n < MAGIC_SIZE; n++) {

  00088	83 c6 18	 add	 esi, 24			; 00000018H
  0008b	81 fe 10 0e 00
	00		 cmp	 esi, 3600		; 00000e10H
  00091	7c ad		 jl	 SHORT $LL4@CheckMaste

; 7351 : 				}
; 7352 : 			}
; 7353 : 		}
; 7354 : 
; 7355 : 		if (nSkillCnt == 0) {

  00093	5e		 pop	 esi
  00094	85 db		 test	 ebx, ebx
  00096	75 0a		 jne	 SHORT $LN11@CheckMaste

; 7356 : 			return 0;

  00098	5f		 pop	 edi
  00099	32 c0		 xor	 al, al
  0009b	5b		 pop	 ebx

; 7361 : }

  0009c	8b e5		 mov	 esp, ebp
  0009e	5d		 pop	 ebp
  0009f	c2 08 00	 ret	 8
$LN11@CheckMaste:
  000a2	5f		 pop	 edi

; 7357 : 		}
; 7358 : 	}
; 7359 : 
; 7360 : 	return 1;

  000a3	b0 01		 mov	 al, 1
  000a5	5b		 pop	 ebx

; 7361 : }

  000a6	8b e5		 mov	 esp, ebp
  000a8	5d		 pop	 ebp
  000a9	c2 08 00	 ret	 8
$LN7@CheckMaste:
  000ac	5f		 pop	 edi

; 7340 : 		return -1;

  000ad	0c ff		 or	 al, -1
  000af	5b		 pop	 ebx

; 7361 : }

  000b0	8b e5		 mov	 esp, ebp
  000b2	5d		 pop	 ebp
  000b3	c2 08 00	 ret	 8
?CheckMasterSkillPoint@CMasterLevelSkillTreeSystem@@QAEDHH@Z ENDP ; CMasterLevelSkillTreeSystem::CheckMasterSkillPoint
_TEXT	ENDS
; Function compile flags: /Ogtp
; File c:\users\michel\desktop\source\gameserver\source\masterlevelskilltreesystem.cpp
;	COMDAT ?MLS_SkillFrustrum3@CMasterLevelSkillTreeSystem@@QAEXHEMMMM@Z
_TEXT	SEGMENT
tv392 = -168						; size = 4
_lpObj$1$ = -164					; size = 4
_vFrustrum$ = -160					; size = 48
_Matrix$ = -112						; size = 48
_p$ = -64						; size = 48
_Angle$ = -16						; size = 12
__$ArrayPad$ = -4					; size = 4
_aIndex$ = 8						; size = 4
_aTargetPos$ = 12					; size = 1
_f1$ = 16						; size = 4
_f2$ = 20						; size = 4
_f3$ = 24						; size = 4
_f4$ = 28						; size = 4
?MLS_SkillFrustrum3@CMasterLevelSkillTreeSystem@@QAEXHEMMMM@Z PROC ; CMasterLevelSkillTreeSystem::MLS_SkillFrustrum3, COMDAT
; _this$ = ecx

; 6514 : {

  00000	55		 push	 ebp
  00001	8b ec		 mov	 ebp, esp
  00003	81 ec a8 00 00
	00		 sub	 esp, 168		; 000000a8H
  00009	a1 00 00 00 00	 mov	 eax, DWORD PTR ___security_cookie
  0000e	33 c5		 xor	 eax, ebp
  00010	89 45 fc	 mov	 DWORD PTR __$ArrayPad$[ebp], eax
  00013	8b 45 08	 mov	 eax, DWORD PTR _aIndex$[ebp]

; 6515 : 	LPOBJ lpObj = &gObj[aIndex];
; 6516 : 
; 6517 : 	float p[MAX_ARRAY_FRUSTRUM][3];
; 6518 : 
; 6519 : 	p[0][0] = -f1;

  00016	f3 0f 10 55 10	 movss	 xmm2, DWORD PTR _f1$[ebp]
  0001b	56		 push	 esi
  0001c	69 f0 40 27 00
	00		 imul	 esi, eax, 10048
  00022	0f 28 c2	 movaps	 xmm0, xmm2

; 6520 : 	p[0][1] = f2;
; 6521 : 	p[0][2] = 0;
; 6522 : 	p[1][0] = f1;
; 6523 : 	p[1][1] = f2;
; 6524 : 	p[1][2] = 0;
; 6525 : 	p[2][0] = f3;
; 6526 : 	p[2][1] = f4;
; 6527 : 	p[2][2] = 0;
; 6528 : 	p[3][0] = -f3;
; 6529 : 	p[3][1] = f4;
; 6530 : 	p[3][2] = 0;
; 6531 : 
; 6532 : 	float Angle[3];
; 6533 : 
; 6534 : 	Angle[0] = 0;
; 6535 : 	Angle[1] = 0;
; 6536 : 	Angle[2] = (float)(aTargetPos * 360 / 255);

  00025	0f b6 45 0c	 movzx	 eax, BYTE PTR _aTargetPos$[ebp]
  00029	0f 57 05 00 00
	00 00		 xorps	 xmm0, DWORD PTR __xmm@80000000800000008000000080000000
  00030	f3 0f 10 4d 14	 movss	 xmm1, DWORD PTR _f2$[ebp]
  00035	69 c8 68 01 00
	00		 imul	 ecx, eax, 360
  0003b	b8 81 80 80 80	 mov	 eax, -2139062143	; 80808081H
  00040	03 35 00 00 00
	00		 add	 esi, DWORD PTR ?gObj@@3PAUOBJECTSTRUCT@@A ; gObj
  00046	f3 0f 11 45 c0	 movss	 DWORD PTR _p$[ebp], xmm0
  0004b	f3 0f 10 45 1c	 movss	 xmm0, DWORD PTR _f4$[ebp]
  00050	f3 0f 11 45 dc	 movss	 DWORD PTR _p$[ebp+28], xmm0
  00055	f7 e9		 imul	 ecx
  00057	f3 0f 11 45 e8	 movss	 DWORD PTR _p$[ebp+40], xmm0
  0005c	f3 0f 11 4d c4	 movss	 DWORD PTR _p$[ebp+4], xmm1
  00061	f3 0f 11 4d d0	 movss	 DWORD PTR _p$[ebp+16], xmm1
  00066	f3 0f 10 4d 18	 movss	 xmm1, DWORD PTR _f3$[ebp]
  0006b	57		 push	 edi
  0006c	03 d1		 add	 edx, ecx
  0006e	f3 0f 11 4d d8	 movss	 DWORD PTR _p$[ebp+24], xmm1
  00073	0f 57 0d 00 00
	00 00		 xorps	 xmm1, DWORD PTR __xmm@80000000800000008000000080000000
  0007a	c1 fa 07	 sar	 edx, 7
  0007d	8b c2		 mov	 eax, edx
  0007f	89 b5 5c ff ff
	ff		 mov	 DWORD PTR _lpObj$1$[ebp], esi
  00085	c1 e8 1f	 shr	 eax, 31			; 0000001fH
  00088	03 c2		 add	 eax, edx
  0008a	c7 45 c8 00 00
	00 00		 mov	 DWORD PTR _p$[ebp+8], 0
  00091	f3 0f 11 55 cc	 movss	 DWORD PTR _p$[ebp+12], xmm2
  00096	c7 45 d4 00 00
	00 00		 mov	 DWORD PTR _p$[ebp+20], 0
  0009d	c7 45 e0 00 00
	00 00		 mov	 DWORD PTR _p$[ebp+32], 0
  000a4	66 0f 6e c0	 movd	 xmm0, eax

; 6537 : 
; 6538 : 	float Matrix[3][MAX_ARRAY_FRUSTRUM];
; 6539 : 	float vFrustrum[MAX_ARRAY_FRUSTRUM][3];
; 6540 : 
; 6541 : 	AngleMatrix(Angle,Matrix);

  000a8	8d 45 90	 lea	 eax, DWORD PTR _Matrix$[ebp]
  000ab	0f 5b c0	 cvtdq2ps xmm0, xmm0
  000ae	50		 push	 eax
  000af	8d 45 f0	 lea	 eax, DWORD PTR _Angle$[ebp]
  000b2	c7 45 ec 00 00
	00 00		 mov	 DWORD PTR _p$[ebp+44], 0
  000b9	50		 push	 eax
  000ba	c7 45 f0 00 00
	00 00		 mov	 DWORD PTR _Angle$[ebp], 0
  000c1	f3 0f 11 4d e4	 movss	 DWORD PTR _p$[ebp+36], xmm1
  000c6	c7 45 f4 00 00
	00 00		 mov	 DWORD PTR _Angle$[ebp+4], 0
  000cd	f3 0f 11 45 f8	 movss	 DWORD PTR _Angle$[ebp+8], xmm0
  000d2	e8 00 00 00 00	 call	 ?AngleMatrix@@YAXPBMPAY03M@Z ; AngleMatrix
  000d7	8d 86 98 14 00
	00		 lea	 eax, DWORD PTR [esi+5272]
  000dd	83 c4 08	 add	 esp, 8
  000e0	89 85 58 ff ff
	ff		 mov	 DWORD PTR tv392[ebp], eax

; 6542 : 
; 6543 : 	for(int i = 0; i < MAX_ARRAY_FRUSTRUM; i++)

  000e6	33 ff		 xor	 edi, edi
  000e8	0f 1f 84 00 00
	00 00 00	 npad	 8
$LL4@MLS_SkillF:

; 6544 : 	{
; 6545 : 		VectorRotate((const float *)&p[i],(const float *)&Matrix[0],(float *)&vFrustrum[i]);

  000f0	8d b5 60 ff ff
	ff		 lea	 esi, DWORD PTR _vFrustrum$[ebp]
  000f6	03 f7		 add	 esi, edi
  000f8	8d 45 90	 lea	 eax, DWORD PTR _Matrix$[ebp]
  000fb	56		 push	 esi
  000fc	50		 push	 eax
  000fd	8d 45 c0	 lea	 eax, DWORD PTR _p$[ebp]
  00100	03 c7		 add	 eax, edi
  00102	50		 push	 eax
  00103	e8 00 00 00 00	 call	 ?VectorRotate@@YAXQBM0QAM@Z ; VectorRotate

; 6546 : 
; 6547 : 		lpObj->fSkillFrustrumX[i] = (int)vFrustrum[i][0] + lpObj->X;

  00108	8b 85 5c ff ff
	ff		 mov	 eax, DWORD PTR _lpObj$1$[ebp]
  0010e	83 c4 0c	 add	 esp, 12			; 0000000cH
  00111	8b 95 58 ff ff
	ff		 mov	 edx, DWORD PTR tv392[ebp]
  00117	0f b6 88 20 01
	00 00		 movzx	 ecx, BYTE PTR [eax+288]
  0011e	f3 0f 2c 06	 cvttss2si eax, DWORD PTR [esi]
  00122	03 c8		 add	 ecx, eax

; 6548 : 		lpObj->fSkillFrustrumY[i] = (int)vFrustrum[i][1] + lpObj->Y;

  00124	8b 85 5c ff ff
	ff		 mov	 eax, DWORD PTR _lpObj$1$[ebp]
  0012a	89 4a f0	 mov	 DWORD PTR [edx-16], ecx
  0012d	f3 0f 2c 8c 3d
	64 ff ff ff	 cvttss2si ecx, DWORD PTR _vFrustrum$[ebp+edi+4]
  00136	83 c7 0c	 add	 edi, 12			; 0000000cH
  00139	0f b6 80 21 01
	00 00		 movzx	 eax, BYTE PTR [eax+289]
  00140	03 c8		 add	 ecx, eax
  00142	89 0a		 mov	 DWORD PTR [edx], ecx
  00144	83 c2 04	 add	 edx, 4
  00147	89 95 58 ff ff
	ff		 mov	 DWORD PTR tv392[ebp], edx
  0014d	83 ff 30	 cmp	 edi, 48			; 00000030H
  00150	7c 9e		 jl	 SHORT $LL4@MLS_SkillF

; 6549 : 	}
; 6550 : }

  00152	8b 4d fc	 mov	 ecx, DWORD PTR __$ArrayPad$[ebp]
  00155	5f		 pop	 edi
  00156	33 cd		 xor	 ecx, ebp
  00158	5e		 pop	 esi
  00159	e8 00 00 00 00	 call	 @__security_check_cookie@4
  0015e	8b e5		 mov	 esp, ebp
  00160	5d		 pop	 ebp
  00161	c2 18 00	 ret	 24			; 00000018H
?MLS_SkillFrustrum3@CMasterLevelSkillTreeSystem@@QAEXHEMMMM@Z ENDP ; CMasterLevelSkillTreeSystem::MLS_SkillFrustrum3
_TEXT	ENDS
; Function compile flags: /Ogtp
; File c:\users\michel\desktop\source\gameserver\source\masterlevelskilltreesystem.cpp
;	COMDAT ?GetSkillAttackDamage@CMasterLevelSkillTreeSystem@@QAEMPAUOBJECTSTRUCT@@H@Z
_TEXT	SEGMENT
_this$1$ = -16						; size = 4
_nSkillGroup$1$ = -12					; size = 4
_nCnt$1$ = -8						; size = 4
_iBrandOfSkill$1$ = -4					; size = 4
_iBrandOfSkill$ = 8					; size = 2
_iValuType$ = 8						; size = 4
_lpObj$ = 8						; size = 4
_iSkill$ = 12						; size = 4
?GetSkillAttackDamage@CMasterLevelSkillTreeSystem@@QAEMPAUOBJECTSTRUCT@@H@Z PROC ; CMasterLevelSkillTreeSystem::GetSkillAttackDamage, COMDAT
; _this$ = ecx

; 5624 : {

  00000	55		 push	 ebp
  00001	8b ec		 mov	 ebp, esp
  00003	83 ec 10	 sub	 esp, 16			; 00000010H

; 5625 : 	if( lpObj == NULL )

  00006	83 7d 08 00	 cmp	 DWORD PTR _lpObj$[ebp], 0
  0000a	8b c1		 mov	 eax, ecx
  0000c	89 45 f0	 mov	 DWORD PTR _this$1$[ebp], eax
  0000f	75 08		 jne	 SHORT $LN7@GetSkillAt

; 5626 : 		return 0.0f;

  00011	d9 ee		 fldz

; 5680 : }

  00013	8b e5		 mov	 esp, ebp
  00015	5d		 pop	 ebp
  00016	c2 08 00	 ret	 8
$LN7@GetSkillAt:
  00019	56		 push	 esi

; 5627 : 
; 5628 : 	if( !this->CheckMasterLevelSkill(iSkill) )

  0001a	8b 75 0c	 mov	 esi, DWORD PTR _iSkill$[ebp]
  0001d	56		 push	 esi
  0001e	e8 00 00 00 00	 call	 ?CheckMasterLevelSkill@CMasterLevelSkillTreeSystem@@QAEHH@Z ; CMasterLevelSkillTreeSystem::CheckMasterLevelSkill
  00023	85 c0		 test	 eax, eax
  00025	75 09		 jne	 SHORT $LN8@GetSkillAt

; 5629 : 		return 0.0f;

  00027	d9 ee		 fldz
  00029	5e		 pop	 esi

; 5680 : }

  0002a	8b e5		 mov	 esp, ebp
  0002c	5d		 pop	 ebp
  0002d	c2 08 00	 ret	 8
$LN8@GetSkillAt:
  00030	53		 push	 ebx
  00031	57		 push	 edi

; 5630 : 
; 5631 : 	int nSkillGroup = MagicDamageC.GetSkillGroup(iSkill);

  00032	56		 push	 esi
  00033	b9 00 00 00 00	 mov	 ecx, OFFSET ?MagicDamageC@@3VCMagicDamage@@A ; MagicDamageC
  00038	e8 00 00 00 00	 call	 ?GetSkillGroup@CMagicDamage@@QAEHH@Z ; CMagicDamage::GetSkillGroup

; 5632 : 	WORD nBrandOfSkill = iSkill;

  0003d	0f b7 de	 movzx	 ebx, si

; 5633 : 	WORD iBrandOfSkill;
; 5634 : 	int iValuType;
; 5635 : 	int nCnt = 0;
; 5636 : 
; 5637 : 	while( g_MasterSkillSystem.CheckMasterLevelSkill(nBrandOfSkill) )

  00040	b9 00 00 00 00	 mov	 ecx, OFFSET ?g_MasterSkillSystem@@3VCMasterLevelSkillTreeSystem@@A ; g_MasterSkillSystem
  00045	0f b7 f6	 movzx	 esi, si
  00048	56		 push	 esi
  00049	89 45 f4	 mov	 DWORD PTR _nSkillGroup$1$[ebp], eax
  0004c	c7 45 f8 00 00
	00 00		 mov	 DWORD PTR _nCnt$1$[ebp], 0
  00053	e8 00 00 00 00	 call	 ?CheckMasterLevelSkill@CMasterLevelSkillTreeSystem@@QAEHH@Z ; CMasterLevelSkillTreeSystem::CheckMasterLevelSkill
  00058	85 c0		 test	 eax, eax
  0005a	0f 84 da 00 00
	00		 je	 $LN28@GetSkillAt
$LL2@GetSkillAt:

; 5638 : 	{
; 5639 : 		iBrandOfSkill = nBrandOfSkill;

  00060	0f b7 c3	 movzx	 eax, bx

; 5640 : 
; 5641 : 		if( MagicDamageC.GetSkillGroup(iBrandOfSkill) != nSkillGroup )

  00063	b9 00 00 00 00	 mov	 ecx, OFFSET ?MagicDamageC@@3VCMagicDamage@@A ; MagicDamageC
  00068	56		 push	 esi
  00069	89 45 fc	 mov	 DWORD PTR _iBrandOfSkill$1$[ebp], eax
  0006c	e8 00 00 00 00	 call	 ?GetSkillGroup@CMagicDamage@@QAEHH@Z ; CMagicDamage::GetSkillGroup
  00071	3b 45 f4	 cmp	 eax, DWORD PTR _nSkillGroup$1$[ebp]
  00074	0f 85 99 00 00
	00		 jne	 $LN27@GetSkillAt

; 5642 : 		{
; 5643 : 			iBrandOfSkill = 0;
; 5644 : 			break;
; 5645 : 		}
; 5646 : 
; 5647 : 		iValuType = MagicDamageC.SkillGet(iBrandOfSkill);

  0007a	56		 push	 esi
  0007b	b9 00 00 00 00	 mov	 ecx, OFFSET ?MagicDamageC@@3VCMagicDamage@@A ; MagicDamageC
  00080	e8 00 00 00 00	 call	 ?SkillGet@CMagicDamage@@QAEHH@Z ; CMagicDamage::SkillGet
  00085	8b f8		 mov	 edi, eax

; 5648 : 
; 5649 : 		if( iValuType == 3 ||
; 5650 : 			iValuType == 4 ||
; 5651 : 			iValuType == 5 ||

  00087	83 ff 03	 cmp	 edi, 3
  0008a	74 3a		 je	 SHORT $LN33@GetSkillAt
  0008c	83 ff 04	 cmp	 edi, 4
  0008f	74 35		 je	 SHORT $LN33@GetSkillAt
  00091	83 ff 05	 cmp	 edi, 5
  00094	74 30		 je	 SHORT $LN33@GetSkillAt
  00096	83 ff 16	 cmp	 edi, 22			; 00000016H
  00099	74 2b		 je	 SHORT $LN33@GetSkillAt

; 5652 : 			iValuType == 22 )
; 5653 : 		{
; 5654 : 			break;
; 5655 : 		}
; 5656 : 		
; 5657 : 		nBrandOfSkill = MagicDamageC.GetBrandOfSkill(iBrandOfSkill);

  0009b	56		 push	 esi
  0009c	b9 00 00 00 00	 mov	 ecx, OFFSET ?MagicDamageC@@3VCMagicDamage@@A ; MagicDamageC
  000a1	e8 00 00 00 00	 call	 ?GetBrandOfSkill@CMagicDamage@@QAEGH@Z ; CMagicDamage::GetBrandOfSkill
  000a6	0f b7 d8	 movzx	 ebx, ax

; 5658 : 		nCnt++;

  000a9	8b 45 f8	 mov	 eax, DWORD PTR _nCnt$1$[ebp]
  000ac	40		 inc	 eax
  000ad	89 45 f8	 mov	 DWORD PTR _nCnt$1$[ebp], eax

; 5659 : 
; 5660 : 		if( nCnt > 2 )

  000b0	83 f8 02	 cmp	 eax, 2
  000b3	7f 69		 jg	 SHORT $LN20@GetSkillAt

; 5633 : 	WORD iBrandOfSkill;
; 5634 : 	int iValuType;
; 5635 : 	int nCnt = 0;
; 5636 : 
; 5637 : 	while( g_MasterSkillSystem.CheckMasterLevelSkill(nBrandOfSkill) )

  000b5	8b f3		 mov	 esi, ebx
  000b7	b9 00 00 00 00	 mov	 ecx, OFFSET ?g_MasterSkillSystem@@3VCMasterLevelSkillTreeSystem@@A ; g_MasterSkillSystem
  000bc	56		 push	 esi
  000bd	e8 00 00 00 00	 call	 ?CheckMasterLevelSkill@CMasterLevelSkillTreeSystem@@QAEHH@Z ; CMasterLevelSkillTreeSystem::CheckMasterLevelSkill
  000c2	85 c0		 test	 eax, eax
  000c4	75 9a		 jne	 SHORT $LL2@GetSkillAt
$LN33@GetSkillAt:
  000c6	8b 45 fc	 mov	 eax, DWORD PTR _iBrandOfSkill$1$[ebp]
$LN11@GetSkillAt:

; 5663 : 			iBrandOfSkill = 0;
; 5664 : 			break;
; 5665 : 		}
; 5666 : 	}
; 5667 : 
; 5668 : 	if( iBrandOfSkill > 0 )

  000c9	66 85 c0	 test	 ax, ax
  000cc	74 45		 je	 SHORT $LN27@GetSkillAt

; 5669 : 	{
; 5670 : 		for(int n = 0; n < MAX_MAGIC; n++)

  000ce	8b 55 08	 mov	 edx, DWORD PTR _lpObj$[ebp]
  000d1	33 db		 xor	 ebx, ebx
  000d3	33 f6		 xor	 esi, esi
  000d5	66 66 66 0f 1f
	84 00 00 00 00
	00		 npad	 11
$LL6@GetSkillAt:

; 5671 : 		{
; 5672 : 			if( lpObj->Magic[n].IsMagic() == TRUE &&

  000e0	8b 8a a8 06 00
	00		 mov	 ecx, DWORD PTR [edx+1704]
  000e6	03 ce		 add	 ecx, esi
  000e8	e8 00 00 00 00	 call	 ?IsMagic@CMagicInf@@QAEHXZ ; CMagicInf::IsMagic
  000ed	8b 55 08	 mov	 edx, DWORD PTR _lpObj$[ebp]
  000f0	83 f8 01	 cmp	 eax, 1
  000f3	75 12		 jne	 SHORT $LN4@GetSkillAt
  000f5	8b 8a a8 06 00
	00		 mov	 ecx, DWORD PTR [edx+1704]
  000fb	8b 45 fc	 mov	 eax, DWORD PTR _iBrandOfSkill$1$[ebp]
  000fe	0f b7 c0	 movzx	 eax, ax
  00101	39 44 31 08	 cmp	 DWORD PTR [ecx+esi+8], eax
  00105	74 3e		 je	 SHORT $LN21@GetSkillAt
$LN4@GetSkillAt:

; 5669 : 	{
; 5670 : 		for(int n = 0; n < MAX_MAGIC; n++)

  00107	83 c6 18	 add	 esi, 24			; 00000018H
  0010a	43		 inc	 ebx
  0010b	81 fe 10 0e 00
	00		 cmp	 esi, 3600		; 00000e10H
  00111	7c cd		 jl	 SHORT $LL6@GetSkillAt
$LN27@GetSkillAt:

; 5676 : 			}
; 5677 : 		}
; 5678 : 	}
; 5679 : 	return 0.0f;

  00113	d9 ee		 fldz
  00115	5f		 pop	 edi
  00116	5b		 pop	 ebx
  00117	5e		 pop	 esi

; 5680 : }

  00118	8b e5		 mov	 esp, ebp
  0011a	5d		 pop	 ebp
  0011b	c2 08 00	 ret	 8
$LN20@GetSkillAt:

; 5661 : 		{
; 5662 : 			LogAddTD("[GetSkillAttackDamage] fail!!! - %d",iSkill);

  0011e	ff 75 0c	 push	 DWORD PTR _iSkill$[ebp]
  00121	68 00 00 00 00	 push	 OFFSET ??_C@_0CE@NKODFDAA@?$FLGetSkillAttackDamage?$FN?5fail?$CB?$CB?$CB?5?9@
  00126	ff 15 00 00 00
	00		 call	 DWORD PTR ?LogAddTD@@3P6AXPADZZA ; LogAddTD

; 5676 : 			}
; 5677 : 		}
; 5678 : 	}
; 5679 : 	return 0.0f;

  0012c	d9 ee		 fldz
  0012e	83 c4 08	 add	 esp, 8
  00131	5f		 pop	 edi
  00132	5b		 pop	 ebx
  00133	5e		 pop	 esi

; 5680 : }

  00134	8b e5		 mov	 esp, ebp
  00136	5d		 pop	 ebp
  00137	c2 08 00	 ret	 8
$LN28@GetSkillAt:

; 5663 : 			iBrandOfSkill = 0;
; 5664 : 			break;
; 5665 : 		}
; 5666 : 	}
; 5667 : 
; 5668 : 	if( iBrandOfSkill > 0 )

  0013a	8b 45 08	 mov	 eax, DWORD PTR _iBrandOfSkill$[ebp]
  0013d	8b 7d 08	 mov	 edi, DWORD PTR _iValuType$[ebp]
  00140	89 45 fc	 mov	 DWORD PTR _iBrandOfSkill$1$[ebp], eax
  00143	eb 84		 jmp	 SHORT $LN11@GetSkillAt
$LN21@GetSkillAt:

; 5673 : 				lpObj->Magic[n].m_Skill == iBrandOfSkill )
; 5674 : 			{
; 5675 : 				return this->GetMasterSkillValue(iValuType,lpObj->Magic[n].m_Level);	

  00145	8b 82 a8 06 00
	00		 mov	 eax, DWORD PTR [edx+1704]
  0014b	8d 0c 5b	 lea	 ecx, DWORD PTR [ebx+ebx*2]
  0014e	0f b6 44 c8 04	 movzx	 eax, BYTE PTR [eax+ecx*8+4]
  00153	8b 4d f0	 mov	 ecx, DWORD PTR _this$1$[ebp]
  00156	50		 push	 eax
  00157	57		 push	 edi
  00158	e8 00 00 00 00	 call	 ?GetMasterSkillValue@CMasterLevelSkillTreeSystem@@QAEMHH@Z ; CMasterLevelSkillTreeSystem::GetMasterSkillValue
  0015d	5f		 pop	 edi
  0015e	5b		 pop	 ebx
  0015f	5e		 pop	 esi

; 5680 : }

  00160	8b e5		 mov	 esp, ebp
  00162	5d		 pop	 ebp
  00163	c2 08 00	 ret	 8
?GetSkillAttackDamage@CMasterLevelSkillTreeSystem@@QAEMPAUOBJECTSTRUCT@@H@Z ENDP ; CMasterLevelSkillTreeSystem::GetSkillAttackDamage
_TEXT	ENDS
; Function compile flags: /Ogtp
; File c:\users\michel\desktop\source\gameserver\source\masterlevelskilltreesystem.cpp
;	COMDAT ?RoundValue@CMasterLevelSkillTreeSystem@@QAEMNH@Z
_TEXT	SEGMENT
tv94 = -280						; size = 4
_szTemp$ = -276						; size = 256
_szPos$ = -20						; size = 16
__$ArrayPad$ = -4					; size = 4
_dbValue$ = 8						; size = 8
_iPos$ = 16						; size = 4
?RoundValue@CMasterLevelSkillTreeSystem@@QAEMNH@Z PROC	; CMasterLevelSkillTreeSystem::RoundValue, COMDAT
; _this$ = ecx

; 5613 : {

  00000	55		 push	 ebp
  00001	8b ec		 mov	 ebp, esp
  00003	81 ec 18 01 00
	00		 sub	 esp, 280		; 00000118H
  00009	a1 00 00 00 00	 mov	 eax, DWORD PTR ___security_cookie
  0000e	33 c5		 xor	 eax, ebp
  00010	89 45 fc	 mov	 DWORD PTR __$ArrayPad$[ebp], eax
  00013	57		 push	 edi

; 5614 : 	char szTemp[256];
; 5615 : 	char szPos[16];
; 5616 : 
; 5617 : 	sprintf(szPos,"%%.%d",iPos);

  00014	ff 75 10	 push	 DWORD PTR _iPos$[ebp]
  00017	8d 45 ec	 lea	 eax, DWORD PTR _szPos$[ebp]
  0001a	68 00 00 00 00	 push	 OFFSET ??_C@_05GPIHJIAI@?$CF?$CF?4?$CFd?$AA@
  0001f	50		 push	 eax
  00020	e8 00 00 00 00	 call	 _sprintf

; 5618 : 	strcat(szPos,"f");

  00025	8d 7d ec	 lea	 edi, DWORD PTR _szPos$[ebp]
  00028	83 c4 0c	 add	 esp, 12			; 0000000cH
  0002b	4f		 dec	 edi
  0002c	0f 1f 40 00	 npad	 4
$LL3@RoundValue:
  00030	8a 47 01	 mov	 al, BYTE PTR [edi+1]
  00033	8d 7f 01	 lea	 edi, DWORD PTR [edi+1]
  00036	84 c0		 test	 al, al
  00038	75 f6		 jne	 SHORT $LL3@RoundValue
  0003a	66 a1 00 00 00
	00		 mov	 ax, WORD PTR ??_C@_01INIBCBCB@f?$AA@

; 5619 : 	sprintf(szTemp,szPos,dbValue);

  00040	83 ec 08	 sub	 esp, 8
  00043	f2 0f 10 45 08	 movsd	 xmm0, QWORD PTR _dbValue$[ebp]
  00048	66 89 07	 mov	 WORD PTR [edi], ax
  0004b	8d 45 ec	 lea	 eax, DWORD PTR _szPos$[ebp]
  0004e	f2 0f 11 04 24	 movsd	 QWORD PTR [esp], xmm0
  00053	50		 push	 eax
  00054	8d 85 ec fe ff
	ff		 lea	 eax, DWORD PTR _szTemp$[ebp]
  0005a	50		 push	 eax
  0005b	e8 00 00 00 00	 call	 _sprintf

; 5620 : 	return (float)atof(szTemp);

  00060	8d 85 ec fe ff
	ff		 lea	 eax, DWORD PTR _szTemp$[ebp]
  00066	50		 push	 eax
  00067	e8 00 00 00 00	 call	 _atof

; 5621 : }

  0006c	8b 4d fc	 mov	 ecx, DWORD PTR __$ArrayPad$[ebp]
  0006f	83 c4 14	 add	 esp, 20			; 00000014H
  00072	d9 9d e8 fe ff
	ff		 fstp	 DWORD PTR tv94[ebp]
  00078	d9 85 e8 fe ff
	ff		 fld	 DWORD PTR tv94[ebp]
  0007e	33 cd		 xor	 ecx, ebp
  00080	5f		 pop	 edi
  00081	e8 00 00 00 00	 call	 @__security_check_cookie@4
  00086	8b e5		 mov	 esp, ebp
  00088	5d		 pop	 ebp
  00089	c2 0c 00	 ret	 12			; 0000000cH
?RoundValue@CMasterLevelSkillTreeSystem@@QAEMNH@Z ENDP	; CMasterLevelSkillTreeSystem::RoundValue
_TEXT	ENDS
; Function compile flags: /Ogtp
; File c:\users\michel\desktop\source\gameserver\source\masterlevelskilltreesystem.cpp
;	COMDAT ?GetCurSkillLevel@CMasterLevelSkillTreeSystem@@QAEHPAUOBJECTSTRUCT@@H@Z
_TEXT	SEGMENT
_lpObj$ = 8						; size = 4
_iSkill$ = 12						; size = 4
?GetCurSkillLevel@CMasterLevelSkillTreeSystem@@QAEHPAUOBJECTSTRUCT@@H@Z PROC ; CMasterLevelSkillTreeSystem::GetCurSkillLevel, COMDAT
; _this$ = ecx

; 5602 : {

  00000	55		 push	 ebp
  00001	8b ec		 mov	 ebp, esp
  00003	53		 push	 ebx
  00004	8b 5d 08	 mov	 ebx, DWORD PTR _lpObj$[ebp]
  00007	56		 push	 esi
  00008	57		 push	 edi

; 5603 : 	for(int iCount = 0; iCount < MAX_MAGIC; iCount++)

  00009	33 ff		 xor	 edi, edi
  0000b	33 f6		 xor	 esi, esi
  0000d	0f 1f 00	 npad	 3
$LL4@GetCurSkil:

; 5604 : 	{
; 5605 : 		if( lpObj->Magic[iCount].IsMagic() &&

  00010	8b 8b a8 06 00
	00		 mov	 ecx, DWORD PTR [ebx+1704]
  00016	03 ce		 add	 ecx, esi
  00018	e8 00 00 00 00	 call	 ?IsMagic@CMagicInf@@QAEHXZ ; CMagicInf::IsMagic
  0001d	85 c0		 test	 eax, eax
  0001f	74 0f		 je	 SHORT $LN2@GetCurSkil
  00021	8b 83 a8 06 00
	00		 mov	 eax, DWORD PTR [ebx+1704]
  00027	8b 4d 0c	 mov	 ecx, DWORD PTR _iSkill$[ebp]
  0002a	39 4c 30 08	 cmp	 DWORD PTR [eax+esi+8], ecx
  0002e	74 16		 je	 SHORT $LN8@GetCurSkil
$LN2@GetCurSkil:

; 5603 : 	for(int iCount = 0; iCount < MAX_MAGIC; iCount++)

  00030	83 c6 18	 add	 esi, 24			; 00000018H
  00033	47		 inc	 edi
  00034	81 fe 10 0e 00
	00		 cmp	 esi, 3600		; 00000e10H
  0003a	7c d4		 jl	 SHORT $LL4@GetCurSkil

; 5608 : 	}
; 5609 : 	return -1;

  0003c	5f		 pop	 edi
  0003d	5e		 pop	 esi
  0003e	83 c8 ff	 or	 eax, -1
  00041	5b		 pop	 ebx

; 5610 : }

  00042	5d		 pop	 ebp
  00043	c2 08 00	 ret	 8
$LN8@GetCurSkil:

; 5606 : 			lpObj->Magic[iCount].m_Skill == iSkill )
; 5607 : 			return lpObj->Magic[iCount].m_Level;

  00046	8d 0c 7f	 lea	 ecx, DWORD PTR [edi+edi*2]
  00049	0f b6 44 c8 04	 movzx	 eax, BYTE PTR [eax+ecx*8+4]
  0004e	5f		 pop	 edi
  0004f	5e		 pop	 esi
  00050	5b		 pop	 ebx

; 5610 : }

  00051	5d		 pop	 ebp
  00052	c2 08 00	 ret	 8
?GetCurSkillLevel@CMasterLevelSkillTreeSystem@@QAEHPAUOBJECTSTRUCT@@H@Z ENDP ; CMasterLevelSkillTreeSystem::GetCurSkillLevel
_TEXT	ENDS
; Function compile flags: /Ogtp
; File c:\users\michel\desktop\source\gameserver\source\masterlevelskilltreesystem.cpp
;	COMDAT ?SetPetItemMLPassiveSkill@CMasterLevelSkillTreeSystem@@QAEXPAUOBJECTSTRUCT@@H@Z
_TEXT	SEGMENT
_this$1$ = -4						; size = 4
_lpObj$ = 8						; size = 4
_iType$ = 12						; size = 4
?SetPetItemMLPassiveSkill@CMasterLevelSkillTreeSystem@@QAEXPAUOBJECTSTRUCT@@H@Z PROC ; CMasterLevelSkillTreeSystem::SetPetItemMLPassiveSkill, COMDAT
; _this$ = ecx

; 5586 : {

  00000	55		 push	 ebp
  00001	8b ec		 mov	 ebp, esp
  00003	51		 push	 ecx

; 5587 : 	if( iType != ITEMGET(13,4) )

  00004	81 7d 0c 04 1a
	00 00		 cmp	 DWORD PTR _iType$[ebp], 6660 ; 00001a04H
  0000b	89 4d fc	 mov	 DWORD PTR _this$1$[ebp], ecx
  0000e	75 72		 jne	 SHORT $LN13@SetPetItem

; 5588 : 		return;
; 5589 : 
; 5590 : 	for(int iCount = 0; iCount < MAX_MAGIC; iCount++)

  00010	53		 push	 ebx
  00011	8b 5d 08	 mov	 ebx, DWORD PTR _lpObj$[ebp]
  00014	56		 push	 esi
  00015	57		 push	 edi
  00016	33 ff		 xor	 edi, edi
  00018	33 f6		 xor	 esi, esi
  0001a	66 0f 1f 44 00
	00		 npad	 6
$LL4@SetPetItem:

; 5591 : 	{
; 5592 : 		if( lpObj->Magic[iCount].IsMagic() == TRUE &&

  00020	8b 8b a8 06 00
	00		 mov	 ecx, DWORD PTR [ebx+1704]
  00026	03 ce		 add	 ecx, esi
  00028	e8 00 00 00 00	 call	 ?IsMagic@CMagicInf@@QAEHXZ ; CMagicInf::IsMagic
  0002d	83 f8 01	 cmp	 eax, 1
  00030	75 10		 jne	 SHORT $LN2@SetPetItem
  00032	8b 83 a8 06 00
	00		 mov	 eax, DWORD PTR [ebx+1704]
  00038	81 7c 30 08 fe
	01 00 00	 cmp	 DWORD PTR [eax+esi+8], 510 ; 000001feH
  00040	74 15		 je	 SHORT $LN9@SetPetItem
$LN2@SetPetItem:

; 5588 : 		return;
; 5589 : 
; 5590 : 	for(int iCount = 0; iCount < MAX_MAGIC; iCount++)

  00042	83 c6 18	 add	 esi, 24			; 00000018H
  00045	47		 inc	 edi
  00046	81 fe 10 0e 00
	00		 cmp	 esi, 3600		; 00000e10H
  0004c	7c d2		 jl	 SHORT $LL4@SetPetItem
  0004e	5f		 pop	 edi
  0004f	5e		 pop	 esi
  00050	5b		 pop	 ebx

; 5596 : 			break;
; 5597 : 		}
; 5598 : 	}
; 5599 : }

  00051	8b e5		 mov	 esp, ebp
  00053	5d		 pop	 ebp
  00054	c2 08 00	 ret	 8
$LN9@SetPetItem:

; 5593 : 			lpObj->Magic[iCount].m_Skill == 510 )
; 5594 : 		{
; 5595 : 			lpObj->m_MPSkillOpt.MpsDarkHorseStrength = this->GetMasterSkillValue(MagicDamageC.SkillGet(lpObj->Magic[iCount].m_Skill),lpObj->Magic[iCount].m_Level);

  00057	8b c8		 mov	 ecx, eax
  00059	8d 14 7f	 lea	 edx, DWORD PTR [edi+edi*2]
  0005c	0f b6 44 d1 04	 movzx	 eax, BYTE PTR [ecx+edx*8+4]
  00061	50		 push	 eax
  00062	ff 74 d1 08	 push	 DWORD PTR [ecx+edx*8+8]
  00066	b9 00 00 00 00	 mov	 ecx, OFFSET ?MagicDamageC@@3VCMagicDamage@@A ; MagicDamageC
  0006b	e8 00 00 00 00	 call	 ?SkillGet@CMagicDamage@@QAEHH@Z ; CMagicDamage::SkillGet
  00070	8b 4d fc	 mov	 ecx, DWORD PTR _this$1$[ebp]
  00073	50		 push	 eax
  00074	e8 00 00 00 00	 call	 ?GetMasterSkillValue@CMasterLevelSkillTreeSystem@@QAEMHH@Z ; CMasterLevelSkillTreeSystem::GetMasterSkillValue
  00079	5f		 pop	 edi
  0007a	5e		 pop	 esi
  0007b	d9 9b a0 07 00
	00		 fstp	 DWORD PTR [ebx+1952]
  00081	5b		 pop	 ebx
$LN13@SetPetItem:

; 5596 : 			break;
; 5597 : 		}
; 5598 : 	}
; 5599 : }

  00082	8b e5		 mov	 esp, ebp
  00084	5d		 pop	 ebp
  00085	c2 08 00	 ret	 8
?SetPetItemMLPassiveSkill@CMasterLevelSkillTreeSystem@@QAEXPAUOBJECTSTRUCT@@H@Z ENDP ; CMasterLevelSkillTreeSystem::SetPetItemMLPassiveSkill
_TEXT	ENDS
; Function compile flags: /Ogtp
; File c:\users\michel\desktop\source\gameserver\source\masterlevelskilltreesystem.cpp
;	COMDAT ?SetItemMLPassiveSkill@CMasterLevelSkillTreeSystem@@QAEXPAUOBJECTSTRUCT@@H@Z
_TEXT	SEGMENT
_this$1$ = -4						; size = 4
_lpObj$ = 8						; size = 4
_iType$ = 12						; size = 4
?SetItemMLPassiveSkill@CMasterLevelSkillTreeSystem@@QAEXPAUOBJECTSTRUCT@@H@Z PROC ; CMasterLevelSkillTreeSystem::SetItemMLPassiveSkill, COMDAT
; _this$ = ecx

; 5140 : {

  00000	55		 push	 ebp
  00001	8b ec		 mov	 ebp, esp
  00003	51		 push	 ecx

; 5141 : 	int iCount = 0;
; 5142 : 
; 5143 : 	switch(iType)

  00004	8b 45 0c	 mov	 eax, DWORD PTR _iType$[ebp]
  00007	89 4d fc	 mov	 DWORD PTR _this$1$[ebp], ecx
  0000a	83 f8 19	 cmp	 eax, 25			; 00000019H
  0000d	0f 87 3f 10 00
	00		 ja	 $LN433@SetItemMLP
  00013	53		 push	 ebx
  00014	56		 push	 esi
  00015	57		 push	 edi
  00016	ff 24 85 00 00
	00 00		 jmp	 DWORD PTR $LN439@SetItemMLP[eax*4]
$LN124@SetItemMLP:
  0001d	8b 7d 08	 mov	 edi, DWORD PTR _lpObj$[ebp]

; 5144 : 	{
; 5145 : 	case 0:
; 5146 : 		for( iCount = 0; iCount < MAX_MAGIC; iCount++)

  00020	33 db		 xor	 ebx, ebx
  00022	33 f6		 xor	 esi, esi
  00024	0f 1f 40 00 0f
	1f 84 00 00 00
	00 00		 npad	 12
$LL6@SetItemMLP:

; 5147 : 		{
; 5148 : 			if( lpObj->Magic[iCount].IsMagic() == TRUE &&

  00030	8b 8f a8 06 00
	00		 mov	 ecx, DWORD PTR [edi+1704]
  00036	03 ce		 add	 ecx, esi
  00038	e8 00 00 00 00	 call	 ?IsMagic@CMagicInf@@QAEHXZ ; CMagicInf::IsMagic
  0003d	83 f8 01	 cmp	 eax, 1
  00040	75 10		 jne	 SHORT $LN4@SetItemMLP
  00042	8b 87 a8 06 00
	00		 mov	 eax, DWORD PTR [edi+1704]
  00048	81 7c 30 08 5c
	01 00 00	 cmp	 DWORD PTR [eax+esi+8], 348 ; 0000015cH
  00050	74 0e		 je	 SHORT $LN230@SetItemMLP
$LN4@SetItemMLP:

; 5144 : 	{
; 5145 : 	case 0:
; 5146 : 		for( iCount = 0; iCount < MAX_MAGIC; iCount++)

  00052	83 c6 18	 add	 esi, 24			; 00000018H
  00055	43		 inc	 ebx
  00056	81 fe 10 0e 00
	00		 cmp	 esi, 3600		; 00000e10H
  0005c	7c d2		 jl	 SHORT $LL6@SetItemMLP
  0005e	eb 28		 jmp	 SHORT $LN394@SetItemMLP
$LN230@SetItemMLP:

; 5149 : 				lpObj->Magic[iCount].m_Skill == 348 )
; 5150 : 			{
; 5151 : 				lpObj->m_MPSkillOpt.MpsTwoHandSwordStrength = this->GetMasterSkillValue(MagicDamageC.SkillGet(lpObj->Magic[iCount].m_Skill),lpObj->Magic[iCount].m_Level);

  00060	8b c8		 mov	 ecx, eax
  00062	8d 14 5b	 lea	 edx, DWORD PTR [ebx+ebx*2]
  00065	0f b6 44 d1 04	 movzx	 eax, BYTE PTR [ecx+edx*8+4]
  0006a	50		 push	 eax
  0006b	ff 74 d1 08	 push	 DWORD PTR [ecx+edx*8+8]
  0006f	b9 00 00 00 00	 mov	 ecx, OFFSET ?MagicDamageC@@3VCMagicDamage@@A ; MagicDamageC
  00074	e8 00 00 00 00	 call	 ?SkillGet@CMagicDamage@@QAEHH@Z ; CMagicDamage::SkillGet
  00079	8b 4d fc	 mov	 ecx, DWORD PTR _this$1$[ebp]
  0007c	50		 push	 eax
  0007d	e8 00 00 00 00	 call	 ?GetMasterSkillValue@CMasterLevelSkillTreeSystem@@QAEMHH@Z ; CMasterLevelSkillTreeSystem::GetMasterSkillValue
  00082	d9 9f f8 06 00
	00		 fstp	 DWORD PTR [edi+1784]
$LN394@SetItemMLP:

; 5152 : 				break;
; 5153 : 			}
; 5154 : 		}
; 5155 : 
; 5156 : 		for( iCount = 0; iCount < MAX_MAGIC; iCount++)

  00088	33 db		 xor	 ebx, ebx
  0008a	33 f6		 xor	 esi, esi
  0008c	0f 1f 40 00	 npad	 4
$LL9@SetItemMLP:

; 5157 : 		{
; 5158 : 			if( lpObj->Magic[iCount].IsMagic() == TRUE &&

  00090	8b 8f a8 06 00
	00		 mov	 ecx, DWORD PTR [edi+1704]
  00096	03 ce		 add	 ecx, esi
  00098	e8 00 00 00 00	 call	 ?IsMagic@CMagicInf@@QAEHXZ ; CMagicInf::IsMagic
  0009d	83 f8 01	 cmp	 eax, 1
  000a0	75 10		 jne	 SHORT $LN7@SetItemMLP
  000a2	8b 87 a8 06 00
	00		 mov	 eax, DWORD PTR [edi+1704]
  000a8	81 7c 30 08 60
	01 00 00	 cmp	 DWORD PTR [eax+esi+8], 352 ; 00000160H
  000b0	74 15		 je	 SHORT $LN231@SetItemMLP
$LN7@SetItemMLP:

; 5152 : 				break;
; 5153 : 			}
; 5154 : 		}
; 5155 : 
; 5156 : 		for( iCount = 0; iCount < MAX_MAGIC; iCount++)

  000b2	83 c6 18	 add	 esi, 24			; 00000018H
  000b5	43		 inc	 ebx
  000b6	81 fe 10 0e 00
	00		 cmp	 esi, 3600		; 00000e10H
  000bc	7c d2		 jl	 SHORT $LL9@SetItemMLP
  000be	5f		 pop	 edi
  000bf	5e		 pop	 esi
  000c0	5b		 pop	 ebx

; 5578 : 				break;
; 5579 : 			}
; 5580 : 		}
; 5581 : 		break;
; 5582 : 	}
; 5583 : }

  000c1	8b e5		 mov	 esp, ebp
  000c3	5d		 pop	 ebp
  000c4	c2 08 00	 ret	 8
$LN231@SetItemMLP:

; 5159 : 				lpObj->Magic[iCount].m_Skill == 352 )
; 5160 : 			{
; 5161 : 				lpObj->m_MPSkillOpt.MpsTwoHandSwordMastery = this->GetMasterSkillValue(MagicDamageC.SkillGet(lpObj->Magic[iCount].m_Skill),lpObj->Magic[iCount].m_Level);

  000c7	8b d0		 mov	 edx, eax
  000c9	8d 34 5b	 lea	 esi, DWORD PTR [ebx+ebx*2]
  000cc	b9 00 00 00 00	 mov	 ecx, OFFSET ?MagicDamageC@@3VCMagicDamage@@A ; MagicDamageC
  000d1	0f b6 44 f2 04	 movzx	 eax, BYTE PTR [edx+esi*8+4]
  000d6	50		 push	 eax
  000d7	ff 74 f2 08	 push	 DWORD PTR [edx+esi*8+8]
  000db	e8 00 00 00 00	 call	 ?SkillGet@CMagicDamage@@QAEHH@Z ; CMagicDamage::SkillGet
  000e0	8b 4d fc	 mov	 ecx, DWORD PTR _this$1$[ebp]
  000e3	50		 push	 eax
  000e4	e8 00 00 00 00	 call	 ?GetMasterSkillValue@CMasterLevelSkillTreeSystem@@QAEMHH@Z ; CMasterLevelSkillTreeSystem::GetMasterSkillValue
  000e9	d9 9f 08 07 00
	00		 fstp	 DWORD PTR [edi+1800]
  000ef	5f		 pop	 edi
  000f0	5e		 pop	 esi
  000f1	5b		 pop	 ebx

; 5578 : 				break;
; 5579 : 			}
; 5580 : 		}
; 5581 : 		break;
; 5582 : 	}
; 5583 : }

  000f2	8b e5		 mov	 esp, ebp
  000f4	5d		 pop	 ebp
  000f5	c2 08 00	 ret	 8
$LN127@SetItemMLP:
  000f8	8b 7d 08	 mov	 edi, DWORD PTR _lpObj$[ebp]

; 5162 : 				break;
; 5163 : 			}
; 5164 : 		}
; 5165 : 		break;
; 5166 : 	case 1:
; 5167 : 		for( iCount = 0; iCount < MAX_MAGIC; iCount++)

  000fb	33 db		 xor	 ebx, ebx
  000fd	33 f6		 xor	 esi, esi
  000ff	90		 npad	 1
$LL12@SetItemMLP:

; 5168 : 		{
; 5169 : 			if( lpObj->Magic[iCount].IsMagic() == TRUE &&

  00100	8b 8f a8 06 00
	00		 mov	 ecx, DWORD PTR [edi+1704]
  00106	03 ce		 add	 ecx, esi
  00108	e8 00 00 00 00	 call	 ?IsMagic@CMagicInf@@QAEHXZ ; CMagicInf::IsMagic
  0010d	83 f8 01	 cmp	 eax, 1
  00110	75 10		 jne	 SHORT $LN10@SetItemMLP
  00112	8b 87 a8 06 00
	00		 mov	 eax, DWORD PTR [edi+1704]
  00118	81 7c 30 08 5d
	01 00 00	 cmp	 DWORD PTR [eax+esi+8], 349 ; 0000015dH
  00120	74 0e		 je	 SHORT $LN232@SetItemMLP
$LN10@SetItemMLP:

; 5162 : 				break;
; 5163 : 			}
; 5164 : 		}
; 5165 : 		break;
; 5166 : 	case 1:
; 5167 : 		for( iCount = 0; iCount < MAX_MAGIC; iCount++)

  00122	83 c6 18	 add	 esi, 24			; 00000018H
  00125	43		 inc	 ebx
  00126	81 fe 10 0e 00
	00		 cmp	 esi, 3600		; 00000e10H
  0012c	7c d2		 jl	 SHORT $LL12@SetItemMLP
  0012e	eb 28		 jmp	 SHORT $LN396@SetItemMLP
$LN232@SetItemMLP:

; 5170 : 				lpObj->Magic[iCount].m_Skill == 349 )
; 5171 : 			{
; 5172 : 				lpObj->m_MPSkillOpt.MpsOneHandSwordStrength = this->GetMasterSkillValue(MagicDamageC.SkillGet(lpObj->Magic[iCount].m_Skill),lpObj->Magic[iCount].m_Level);

  00130	8b c8		 mov	 ecx, eax
  00132	8d 14 5b	 lea	 edx, DWORD PTR [ebx+ebx*2]
  00135	0f b6 44 d1 04	 movzx	 eax, BYTE PTR [ecx+edx*8+4]
  0013a	50		 push	 eax
  0013b	ff 74 d1 08	 push	 DWORD PTR [ecx+edx*8+8]
  0013f	b9 00 00 00 00	 mov	 ecx, OFFSET ?MagicDamageC@@3VCMagicDamage@@A ; MagicDamageC
  00144	e8 00 00 00 00	 call	 ?SkillGet@CMagicDamage@@QAEHH@Z ; CMagicDamage::SkillGet
  00149	8b 4d fc	 mov	 ecx, DWORD PTR _this$1$[ebp]
  0014c	50		 push	 eax
  0014d	e8 00 00 00 00	 call	 ?GetMasterSkillValue@CMasterLevelSkillTreeSystem@@QAEMHH@Z ; CMasterLevelSkillTreeSystem::GetMasterSkillValue
  00152	d9 9f fc 06 00
	00		 fstp	 DWORD PTR [edi+1788]
$LN396@SetItemMLP:

; 5173 : 				break;
; 5174 : 			}
; 5175 : 		}
; 5176 : 
; 5177 : 		for( iCount = 0; iCount < MAX_MAGIC; iCount++)

  00158	33 db		 xor	 ebx, ebx
  0015a	33 f6		 xor	 esi, esi
  0015c	0f 1f 40 00	 npad	 4
$LL15@SetItemMLP:

; 5178 : 		{
; 5179 : 			if( lpObj->Magic[iCount].IsMagic() == TRUE &&

  00160	8b 8f a8 06 00
	00		 mov	 ecx, DWORD PTR [edi+1704]
  00166	03 ce		 add	 ecx, esi
  00168	e8 00 00 00 00	 call	 ?IsMagic@CMagicInf@@QAEHXZ ; CMagicInf::IsMagic
  0016d	83 f8 01	 cmp	 eax, 1
  00170	75 10		 jne	 SHORT $LN13@SetItemMLP
  00172	8b 87 a8 06 00
	00		 mov	 eax, DWORD PTR [edi+1704]
  00178	81 7c 30 08 61
	01 00 00	 cmp	 DWORD PTR [eax+esi+8], 353 ; 00000161H
  00180	74 15		 je	 SHORT $LN233@SetItemMLP
$LN13@SetItemMLP:

; 5173 : 				break;
; 5174 : 			}
; 5175 : 		}
; 5176 : 
; 5177 : 		for( iCount = 0; iCount < MAX_MAGIC; iCount++)

  00182	83 c6 18	 add	 esi, 24			; 00000018H
  00185	43		 inc	 ebx
  00186	81 fe 10 0e 00
	00		 cmp	 esi, 3600		; 00000e10H
  0018c	7c d2		 jl	 SHORT $LL15@SetItemMLP
  0018e	5f		 pop	 edi
  0018f	5e		 pop	 esi
  00190	5b		 pop	 ebx

; 5578 : 				break;
; 5579 : 			}
; 5580 : 		}
; 5581 : 		break;
; 5582 : 	}
; 5583 : }

  00191	8b e5		 mov	 esp, ebp
  00193	5d		 pop	 ebp
  00194	c2 08 00	 ret	 8
$LN233@SetItemMLP:

; 5180 : 				lpObj->Magic[iCount].m_Skill == 353 )
; 5181 : 			{
; 5182 : 				lpObj->m_MPSkillOpt.MpsOneHandSwordMastery = this->GetMasterSkillValue(MagicDamageC.SkillGet(lpObj->Magic[iCount].m_Skill),lpObj->Magic[iCount].m_Level);

  00197	8b c8		 mov	 ecx, eax
  00199	8d 14 5b	 lea	 edx, DWORD PTR [ebx+ebx*2]
  0019c	0f b6 44 d1 04	 movzx	 eax, BYTE PTR [ecx+edx*8+4]
  001a1	50		 push	 eax
  001a2	ff 74 d1 08	 push	 DWORD PTR [ecx+edx*8+8]
  001a6	b9 00 00 00 00	 mov	 ecx, OFFSET ?MagicDamageC@@3VCMagicDamage@@A ; MagicDamageC
  001ab	e8 00 00 00 00	 call	 ?SkillGet@CMagicDamage@@QAEHH@Z ; CMagicDamage::SkillGet
  001b0	8b 4d fc	 mov	 ecx, DWORD PTR _this$1$[ebp]
  001b3	50		 push	 eax
  001b4	e8 00 00 00 00	 call	 ?GetMasterSkillValue@CMasterLevelSkillTreeSystem@@QAEMHH@Z ; CMasterLevelSkillTreeSystem::GetMasterSkillValue
  001b9	d9 9f 0c 07 00
	00		 fstp	 DWORD PTR [edi+1804]
  001bf	5f		 pop	 edi
  001c0	5e		 pop	 esi
  001c1	5b		 pop	 ebx

; 5578 : 				break;
; 5579 : 			}
; 5580 : 		}
; 5581 : 		break;
; 5582 : 	}
; 5583 : }

  001c2	8b e5		 mov	 esp, ebp
  001c4	5d		 pop	 ebp
  001c5	c2 08 00	 ret	 8
$LN130@SetItemMLP:
  001c8	8b 7d 08	 mov	 edi, DWORD PTR _lpObj$[ebp]

; 5183 : 				break;
; 5184 : 			}
; 5185 : 		}
; 5186 : 		break;
; 5187 : 	case 2:
; 5188 : 		for( iCount = 0; iCount < MAX_MAGIC; iCount++)

  001cb	33 db		 xor	 ebx, ebx
  001cd	33 f6		 xor	 esi, esi
  001cf	90		 npad	 1
$LL18@SetItemMLP:

; 5189 : 		{
; 5190 : 			if( lpObj->Magic[iCount].IsMagic() == TRUE &&

  001d0	8b 8f a8 06 00
	00		 mov	 ecx, DWORD PTR [edi+1704]
  001d6	03 ce		 add	 ecx, esi
  001d8	e8 00 00 00 00	 call	 ?IsMagic@CMagicInf@@QAEHXZ ; CMagicInf::IsMagic
  001dd	83 f8 01	 cmp	 eax, 1
  001e0	75 10		 jne	 SHORT $LN16@SetItemMLP
  001e2	8b 87 a8 06 00
	00		 mov	 eax, DWORD PTR [edi+1704]
  001e8	81 7c 30 08 5e
	01 00 00	 cmp	 DWORD PTR [eax+esi+8], 350 ; 0000015eH
  001f0	74 0e		 je	 SHORT $LN234@SetItemMLP
$LN16@SetItemMLP:

; 5183 : 				break;
; 5184 : 			}
; 5185 : 		}
; 5186 : 		break;
; 5187 : 	case 2:
; 5188 : 		for( iCount = 0; iCount < MAX_MAGIC; iCount++)

  001f2	83 c6 18	 add	 esi, 24			; 00000018H
  001f5	43		 inc	 ebx
  001f6	81 fe 10 0e 00
	00		 cmp	 esi, 3600		; 00000e10H
  001fc	7c d2		 jl	 SHORT $LL18@SetItemMLP
  001fe	eb 28		 jmp	 SHORT $LN398@SetItemMLP
$LN234@SetItemMLP:

; 5191 : 				lpObj->Magic[iCount].m_Skill == 350 )
; 5192 : 			{
; 5193 : 				lpObj->m_MPSkillOpt.MpsMaceStrength = this->GetMasterSkillValue(MagicDamageC.SkillGet(lpObj->Magic[iCount].m_Skill),lpObj->Magic[iCount].m_Level);

  00200	8b c8		 mov	 ecx, eax
  00202	8d 14 5b	 lea	 edx, DWORD PTR [ebx+ebx*2]
  00205	0f b6 44 d1 04	 movzx	 eax, BYTE PTR [ecx+edx*8+4]
  0020a	50		 push	 eax
  0020b	ff 74 d1 08	 push	 DWORD PTR [ecx+edx*8+8]
  0020f	b9 00 00 00 00	 mov	 ecx, OFFSET ?MagicDamageC@@3VCMagicDamage@@A ; MagicDamageC
  00214	e8 00 00 00 00	 call	 ?SkillGet@CMagicDamage@@QAEHH@Z ; CMagicDamage::SkillGet
  00219	8b 4d fc	 mov	 ecx, DWORD PTR _this$1$[ebp]
  0021c	50		 push	 eax
  0021d	e8 00 00 00 00	 call	 ?GetMasterSkillValue@CMasterLevelSkillTreeSystem@@QAEMHH@Z ; CMasterLevelSkillTreeSystem::GetMasterSkillValue
  00222	d9 9f 00 07 00
	00		 fstp	 DWORD PTR [edi+1792]
$LN398@SetItemMLP:

; 5194 : 				break;
; 5195 : 			}
; 5196 : 		}
; 5197 : 
; 5198 : 		for( iCount = 0; iCount < MAX_MAGIC; iCount++)

  00228	33 db		 xor	 ebx, ebx
  0022a	33 f6		 xor	 esi, esi
  0022c	0f 1f 40 00	 npad	 4
$LL21@SetItemMLP:

; 5199 : 		{
; 5200 : 			if( lpObj->Magic[iCount].IsMagic() == TRUE &&

  00230	8b 8f a8 06 00
	00		 mov	 ecx, DWORD PTR [edi+1704]
  00236	03 ce		 add	 ecx, esi
  00238	e8 00 00 00 00	 call	 ?IsMagic@CMagicInf@@QAEHXZ ; CMagicInf::IsMagic
  0023d	83 f8 01	 cmp	 eax, 1
  00240	75 10		 jne	 SHORT $LN19@SetItemMLP
  00242	8b 87 a8 06 00
	00		 mov	 eax, DWORD PTR [edi+1704]
  00248	81 7c 30 08 62
	01 00 00	 cmp	 DWORD PTR [eax+esi+8], 354 ; 00000162H
  00250	74 15		 je	 SHORT $LN235@SetItemMLP
$LN19@SetItemMLP:

; 5194 : 				break;
; 5195 : 			}
; 5196 : 		}
; 5197 : 
; 5198 : 		for( iCount = 0; iCount < MAX_MAGIC; iCount++)

  00252	83 c6 18	 add	 esi, 24			; 00000018H
  00255	43		 inc	 ebx
  00256	81 fe 10 0e 00
	00		 cmp	 esi, 3600		; 00000e10H
  0025c	7c d2		 jl	 SHORT $LL21@SetItemMLP
  0025e	5f		 pop	 edi
  0025f	5e		 pop	 esi
  00260	5b		 pop	 ebx

; 5578 : 				break;
; 5579 : 			}
; 5580 : 		}
; 5581 : 		break;
; 5582 : 	}
; 5583 : }

  00261	8b e5		 mov	 esp, ebp
  00263	5d		 pop	 ebp
  00264	c2 08 00	 ret	 8
$LN235@SetItemMLP:

; 5201 : 				lpObj->Magic[iCount].m_Skill == 354 )
; 5202 : 			{
; 5203 : 				lpObj->m_MPSkillOpt.MpsMaceMastery = this->GetMasterSkillValue(MagicDamageC.SkillGet(lpObj->Magic[iCount].m_Skill),lpObj->Magic[iCount].m_Level);

  00267	8b c8		 mov	 ecx, eax
  00269	8d 14 5b	 lea	 edx, DWORD PTR [ebx+ebx*2]
  0026c	0f b6 44 d1 04	 movzx	 eax, BYTE PTR [ecx+edx*8+4]
  00271	50		 push	 eax
  00272	ff 74 d1 08	 push	 DWORD PTR [ecx+edx*8+8]
  00276	b9 00 00 00 00	 mov	 ecx, OFFSET ?MagicDamageC@@3VCMagicDamage@@A ; MagicDamageC
  0027b	e8 00 00 00 00	 call	 ?SkillGet@CMagicDamage@@QAEHH@Z ; CMagicDamage::SkillGet
  00280	8b 4d fc	 mov	 ecx, DWORD PTR _this$1$[ebp]
  00283	50		 push	 eax
  00284	e8 00 00 00 00	 call	 ?GetMasterSkillValue@CMasterLevelSkillTreeSystem@@QAEMHH@Z ; CMasterLevelSkillTreeSystem::GetMasterSkillValue
  00289	d9 9f 18 07 00
	00		 fstp	 DWORD PTR [edi+1816]
  0028f	5f		 pop	 edi
  00290	5e		 pop	 esi
  00291	5b		 pop	 ebx

; 5578 : 				break;
; 5579 : 			}
; 5580 : 		}
; 5581 : 		break;
; 5582 : 	}
; 5583 : }

  00292	8b e5		 mov	 esp, ebp
  00294	5d		 pop	 ebp
  00295	c2 08 00	 ret	 8
$LN133@SetItemMLP:
  00298	8b 7d 08	 mov	 edi, DWORD PTR _lpObj$[ebp]

; 5204 : 				break;
; 5205 : 			}
; 5206 : 		}
; 5207 : 		break;
; 5208 : 	case 3:
; 5209 : 		for( iCount = 0; iCount < MAX_MAGIC; iCount++)

  0029b	33 db		 xor	 ebx, ebx
  0029d	33 f6		 xor	 esi, esi
  0029f	90		 npad	 1
$LL24@SetItemMLP:

; 5210 : 		{
; 5211 : 			if( lpObj->Magic[iCount].IsMagic() == TRUE &&

  002a0	8b 8f a8 06 00
	00		 mov	 ecx, DWORD PTR [edi+1704]
  002a6	03 ce		 add	 ecx, esi
  002a8	e8 00 00 00 00	 call	 ?IsMagic@CMagicInf@@QAEHXZ ; CMagicInf::IsMagic
  002ad	83 f8 01	 cmp	 eax, 1
  002b0	75 10		 jne	 SHORT $LN22@SetItemMLP
  002b2	8b 87 a8 06 00
	00		 mov	 eax, DWORD PTR [edi+1704]
  002b8	81 7c 30 08 5f
	01 00 00	 cmp	 DWORD PTR [eax+esi+8], 351 ; 0000015fH
  002c0	74 0e		 je	 SHORT $LN236@SetItemMLP
$LN22@SetItemMLP:

; 5204 : 				break;
; 5205 : 			}
; 5206 : 		}
; 5207 : 		break;
; 5208 : 	case 3:
; 5209 : 		for( iCount = 0; iCount < MAX_MAGIC; iCount++)

  002c2	83 c6 18	 add	 esi, 24			; 00000018H
  002c5	43		 inc	 ebx
  002c6	81 fe 10 0e 00
	00		 cmp	 esi, 3600		; 00000e10H
  002cc	7c d2		 jl	 SHORT $LL24@SetItemMLP
  002ce	eb 28		 jmp	 SHORT $LN400@SetItemMLP
$LN236@SetItemMLP:

; 5212 : 				lpObj->Magic[iCount].m_Skill == 351 )
; 5213 : 			{
; 5214 : 				lpObj->m_MPSkillOpt.MpsSpearStrength = this->GetMasterSkillValue(MagicDamageC.SkillGet(lpObj->Magic[iCount].m_Skill),lpObj->Magic[iCount].m_Level);

  002d0	8b c8		 mov	 ecx, eax
  002d2	8d 14 5b	 lea	 edx, DWORD PTR [ebx+ebx*2]
  002d5	0f b6 44 d1 04	 movzx	 eax, BYTE PTR [ecx+edx*8+4]
  002da	50		 push	 eax
  002db	ff 74 d1 08	 push	 DWORD PTR [ecx+edx*8+8]
  002df	b9 00 00 00 00	 mov	 ecx, OFFSET ?MagicDamageC@@3VCMagicDamage@@A ; MagicDamageC
  002e4	e8 00 00 00 00	 call	 ?SkillGet@CMagicDamage@@QAEHH@Z ; CMagicDamage::SkillGet
  002e9	8b 4d fc	 mov	 ecx, DWORD PTR _this$1$[ebp]
  002ec	50		 push	 eax
  002ed	e8 00 00 00 00	 call	 ?GetMasterSkillValue@CMasterLevelSkillTreeSystem@@QAEMHH@Z ; CMasterLevelSkillTreeSystem::GetMasterSkillValue
  002f2	d9 9f 04 07 00
	00		 fstp	 DWORD PTR [edi+1796]
$LN400@SetItemMLP:

; 5215 : 				break;
; 5216 : 			}
; 5217 : 		}
; 5218 : 
; 5219 : 		for( iCount = 0; iCount < MAX_MAGIC; iCount++)

  002f8	33 db		 xor	 ebx, ebx
  002fa	33 f6		 xor	 esi, esi
  002fc	0f 1f 40 00	 npad	 4
$LL27@SetItemMLP:

; 5220 : 		{
; 5221 : 			if( lpObj->Magic[iCount].IsMagic() == TRUE &&

  00300	8b 8f a8 06 00
	00		 mov	 ecx, DWORD PTR [edi+1704]
  00306	03 ce		 add	 ecx, esi
  00308	e8 00 00 00 00	 call	 ?IsMagic@CMagicInf@@QAEHXZ ; CMagicInf::IsMagic
  0030d	83 f8 01	 cmp	 eax, 1
  00310	75 10		 jne	 SHORT $LN25@SetItemMLP
  00312	8b 87 a8 06 00
	00		 mov	 eax, DWORD PTR [edi+1704]
  00318	81 7c 30 08 63
	01 00 00	 cmp	 DWORD PTR [eax+esi+8], 355 ; 00000163H
  00320	74 15		 je	 SHORT $LN237@SetItemMLP
$LN25@SetItemMLP:

; 5215 : 				break;
; 5216 : 			}
; 5217 : 		}
; 5218 : 
; 5219 : 		for( iCount = 0; iCount < MAX_MAGIC; iCount++)

  00322	83 c6 18	 add	 esi, 24			; 00000018H
  00325	43		 inc	 ebx
  00326	81 fe 10 0e 00
	00		 cmp	 esi, 3600		; 00000e10H
  0032c	7c d2		 jl	 SHORT $LL27@SetItemMLP
  0032e	5f		 pop	 edi
  0032f	5e		 pop	 esi
  00330	5b		 pop	 ebx

; 5578 : 				break;
; 5579 : 			}
; 5580 : 		}
; 5581 : 		break;
; 5582 : 	}
; 5583 : }

  00331	8b e5		 mov	 esp, ebp
  00333	5d		 pop	 ebp
  00334	c2 08 00	 ret	 8
$LN237@SetItemMLP:

; 5222 : 				lpObj->Magic[iCount].m_Skill == 355 )
; 5223 : 			{
; 5224 : 				lpObj->m_MPSkillOpt.MpsSpearMastery = this->GetMasterSkillValue(MagicDamageC.SkillGet(lpObj->Magic[iCount].m_Skill),lpObj->Magic[iCount].m_Level);

  00337	8b c8		 mov	 ecx, eax
  00339	8d 14 5b	 lea	 edx, DWORD PTR [ebx+ebx*2]
  0033c	0f b6 44 d1 04	 movzx	 eax, BYTE PTR [ecx+edx*8+4]
  00341	50		 push	 eax
  00342	ff 74 d1 08	 push	 DWORD PTR [ecx+edx*8+8]
  00346	b9 00 00 00 00	 mov	 ecx, OFFSET ?MagicDamageC@@3VCMagicDamage@@A ; MagicDamageC
  0034b	e8 00 00 00 00	 call	 ?SkillGet@CMagicDamage@@QAEHH@Z ; CMagicDamage::SkillGet
  00350	8b 4d fc	 mov	 ecx, DWORD PTR _this$1$[ebp]
  00353	50		 push	 eax
  00354	e8 00 00 00 00	 call	 ?GetMasterSkillValue@CMasterLevelSkillTreeSystem@@QAEMHH@Z ; CMasterLevelSkillTreeSystem::GetMasterSkillValue
  00359	d9 9f 14 07 00
	00		 fstp	 DWORD PTR [edi+1812]
  0035f	5f		 pop	 edi
  00360	5e		 pop	 esi
  00361	5b		 pop	 ebx

; 5578 : 				break;
; 5579 : 			}
; 5580 : 		}
; 5581 : 		break;
; 5582 : 	}
; 5583 : }

  00362	8b e5		 mov	 esp, ebp
  00364	5d		 pop	 ebp
  00365	c2 08 00	 ret	 8
$LN136@SetItemMLP:
  00368	8b 7d 08	 mov	 edi, DWORD PTR _lpObj$[ebp]

; 5225 : 				break;
; 5226 : 			}
; 5227 : 		}
; 5228 : 		break;
; 5229 : 	case 4:
; 5230 : 		for( iCount = 0; iCount < MAX_MAGIC; iCount++)

  0036b	33 db		 xor	 ebx, ebx
  0036d	33 f6		 xor	 esi, esi
  0036f	90		 npad	 1
$LL30@SetItemMLP:

; 5231 : 		{
; 5232 : 			if( lpObj->Magic[iCount].IsMagic() == TRUE &&

  00370	8b 8f a8 06 00
	00		 mov	 ecx, DWORD PTR [edi+1704]
  00376	03 ce		 add	 ecx, esi
  00378	e8 00 00 00 00	 call	 ?IsMagic@CMagicInf@@QAEHXZ ; CMagicInf::IsMagic
  0037d	83 f8 01	 cmp	 eax, 1
  00380	75 10		 jne	 SHORT $LN28@SetItemMLP
  00382	8b 87 a8 06 00
	00		 mov	 eax, DWORD PTR [edi+1704]
  00388	81 7c 30 08 8d
	01 00 00	 cmp	 DWORD PTR [eax+esi+8], 397 ; 0000018dH
  00390	74 0e		 je	 SHORT $LN238@SetItemMLP
$LN28@SetItemMLP:

; 5225 : 				break;
; 5226 : 			}
; 5227 : 		}
; 5228 : 		break;
; 5229 : 	case 4:
; 5230 : 		for( iCount = 0; iCount < MAX_MAGIC; iCount++)

  00392	83 c6 18	 add	 esi, 24			; 00000018H
  00395	43		 inc	 ebx
  00396	81 fe 10 0e 00
	00		 cmp	 esi, 3600		; 00000e10H
  0039c	7c d2		 jl	 SHORT $LL30@SetItemMLP
  0039e	eb 28		 jmp	 SHORT $LN402@SetItemMLP
$LN238@SetItemMLP:

; 5233 : 				lpObj->Magic[iCount].m_Skill == 397 )
; 5234 : 			{
; 5235 : 				lpObj->m_MPSkillOpt.MpsOneHandStaffStrength = this->GetMasterSkillValue(MagicDamageC.SkillGet(lpObj->Magic[iCount].m_Skill),lpObj->Magic[iCount].m_Level);

  003a0	8b c8		 mov	 ecx, eax
  003a2	8d 14 5b	 lea	 edx, DWORD PTR [ebx+ebx*2]
  003a5	0f b6 44 d1 04	 movzx	 eax, BYTE PTR [ecx+edx*8+4]
  003aa	50		 push	 eax
  003ab	ff 74 d1 08	 push	 DWORD PTR [ecx+edx*8+8]
  003af	b9 00 00 00 00	 mov	 ecx, OFFSET ?MagicDamageC@@3VCMagicDamage@@A ; MagicDamageC
  003b4	e8 00 00 00 00	 call	 ?SkillGet@CMagicDamage@@QAEHH@Z ; CMagicDamage::SkillGet
  003b9	8b 4d fc	 mov	 ecx, DWORD PTR _this$1$[ebp]
  003bc	50		 push	 eax
  003bd	e8 00 00 00 00	 call	 ?GetMasterSkillValue@CMasterLevelSkillTreeSystem@@QAEMHH@Z ; CMasterLevelSkillTreeSystem::GetMasterSkillValue
  003c2	d9 9f 28 07 00
	00		 fstp	 DWORD PTR [edi+1832]
$LN402@SetItemMLP:

; 5236 : 				break;
; 5237 : 			}
; 5238 : 		}
; 5239 : 
; 5240 : 		for( iCount = 0; iCount < MAX_MAGIC; iCount++)

  003c8	33 db		 xor	 ebx, ebx
  003ca	33 f6		 xor	 esi, esi
  003cc	0f 1f 40 00	 npad	 4
$LL33@SetItemMLP:

; 5241 : 		{
; 5242 : 			if( lpObj->Magic[iCount].IsMagic() == TRUE &&

  003d0	8b 8f a8 06 00
	00		 mov	 ecx, DWORD PTR [edi+1704]
  003d6	03 ce		 add	 ecx, esi
  003d8	e8 00 00 00 00	 call	 ?IsMagic@CMagicInf@@QAEHXZ ; CMagicInf::IsMagic
  003dd	83 f8 01	 cmp	 eax, 1
  003e0	75 10		 jne	 SHORT $LN31@SetItemMLP
  003e2	8b 87 a8 06 00
	00		 mov	 eax, DWORD PTR [edi+1704]
  003e8	81 7c 30 08 90
	01 00 00	 cmp	 DWORD PTR [eax+esi+8], 400 ; 00000190H
  003f0	74 15		 je	 SHORT $LN239@SetItemMLP
$LN31@SetItemMLP:

; 5236 : 				break;
; 5237 : 			}
; 5238 : 		}
; 5239 : 
; 5240 : 		for( iCount = 0; iCount < MAX_MAGIC; iCount++)

  003f2	83 c6 18	 add	 esi, 24			; 00000018H
  003f5	43		 inc	 ebx
  003f6	81 fe 10 0e 00
	00		 cmp	 esi, 3600		; 00000e10H
  003fc	7c d2		 jl	 SHORT $LL33@SetItemMLP
  003fe	5f		 pop	 edi
  003ff	5e		 pop	 esi
  00400	5b		 pop	 ebx

; 5578 : 				break;
; 5579 : 			}
; 5580 : 		}
; 5581 : 		break;
; 5582 : 	}
; 5583 : }

  00401	8b e5		 mov	 esp, ebp
  00403	5d		 pop	 ebp
  00404	c2 08 00	 ret	 8
$LN239@SetItemMLP:

; 5243 : 				lpObj->Magic[iCount].m_Skill == 400 )
; 5244 : 			{
; 5245 : 				lpObj->m_MPSkillOpt.MpsOneHandStaffMastery = this->GetMasterSkillValue(MagicDamageC.SkillGet(lpObj->Magic[iCount].m_Skill),lpObj->Magic[iCount].m_Level);

  00407	8b c8		 mov	 ecx, eax
  00409	8d 14 5b	 lea	 edx, DWORD PTR [ebx+ebx*2]
  0040c	0f b6 44 d1 04	 movzx	 eax, BYTE PTR [ecx+edx*8+4]
  00411	50		 push	 eax
  00412	ff 74 d1 08	 push	 DWORD PTR [ecx+edx*8+8]
  00416	b9 00 00 00 00	 mov	 ecx, OFFSET ?MagicDamageC@@3VCMagicDamage@@A ; MagicDamageC
  0041b	e8 00 00 00 00	 call	 ?SkillGet@CMagicDamage@@QAEHH@Z ; CMagicDamage::SkillGet
  00420	8b 4d fc	 mov	 ecx, DWORD PTR _this$1$[ebp]
  00423	50		 push	 eax
  00424	e8 00 00 00 00	 call	 ?GetMasterSkillValue@CMasterLevelSkillTreeSystem@@QAEMHH@Z ; CMasterLevelSkillTreeSystem::GetMasterSkillValue
  00429	d9 9f 30 07 00
	00		 fstp	 DWORD PTR [edi+1840]
  0042f	5f		 pop	 edi
  00430	5e		 pop	 esi
  00431	5b		 pop	 ebx

; 5578 : 				break;
; 5579 : 			}
; 5580 : 		}
; 5581 : 		break;
; 5582 : 	}
; 5583 : }

  00432	8b e5		 mov	 esp, ebp
  00434	5d		 pop	 ebp
  00435	c2 08 00	 ret	 8
$LN139@SetItemMLP:
  00438	8b 7d 08	 mov	 edi, DWORD PTR _lpObj$[ebp]

; 5246 : 				break;
; 5247 : 			}
; 5248 : 		}
; 5249 : 		break;
; 5250 : 	case 5:
; 5251 : 		for( iCount = 0; iCount < MAX_MAGIC; iCount++)

  0043b	33 db		 xor	 ebx, ebx
  0043d	33 f6		 xor	 esi, esi
  0043f	90		 npad	 1
$LL36@SetItemMLP:

; 5252 : 		{
; 5253 : 			if( lpObj->Magic[iCount].IsMagic() == TRUE &&

  00440	8b 8f a8 06 00
	00		 mov	 ecx, DWORD PTR [edi+1704]
  00446	03 ce		 add	 ecx, esi
  00448	e8 00 00 00 00	 call	 ?IsMagic@CMagicInf@@QAEHXZ ; CMagicInf::IsMagic
  0044d	83 f8 01	 cmp	 eax, 1
  00450	75 10		 jne	 SHORT $LN34@SetItemMLP
  00452	8b 87 a8 06 00
	00		 mov	 eax, DWORD PTR [edi+1704]
  00458	81 7c 30 08 8e
	01 00 00	 cmp	 DWORD PTR [eax+esi+8], 398 ; 0000018eH
  00460	74 0e		 je	 SHORT $LN240@SetItemMLP
$LN34@SetItemMLP:

; 5246 : 				break;
; 5247 : 			}
; 5248 : 		}
; 5249 : 		break;
; 5250 : 	case 5:
; 5251 : 		for( iCount = 0; iCount < MAX_MAGIC; iCount++)

  00462	83 c6 18	 add	 esi, 24			; 00000018H
  00465	43		 inc	 ebx
  00466	81 fe 10 0e 00
	00		 cmp	 esi, 3600		; 00000e10H
  0046c	7c d2		 jl	 SHORT $LL36@SetItemMLP
  0046e	eb 28		 jmp	 SHORT $LN404@SetItemMLP
$LN240@SetItemMLP:

; 5254 : 				lpObj->Magic[iCount].m_Skill == 398 )
; 5255 : 			{
; 5256 : 				lpObj->m_MPSkillOpt.MpsTwoHandStaffStrength = this->GetMasterSkillValue(MagicDamageC.SkillGet(lpObj->Magic[iCount].m_Skill),lpObj->Magic[iCount].m_Level);

  00470	8b c8		 mov	 ecx, eax
  00472	8d 14 5b	 lea	 edx, DWORD PTR [ebx+ebx*2]
  00475	0f b6 44 d1 04	 movzx	 eax, BYTE PTR [ecx+edx*8+4]
  0047a	50		 push	 eax
  0047b	ff 74 d1 08	 push	 DWORD PTR [ecx+edx*8+8]
  0047f	b9 00 00 00 00	 mov	 ecx, OFFSET ?MagicDamageC@@3VCMagicDamage@@A ; MagicDamageC
  00484	e8 00 00 00 00	 call	 ?SkillGet@CMagicDamage@@QAEHH@Z ; CMagicDamage::SkillGet
  00489	8b 4d fc	 mov	 ecx, DWORD PTR _this$1$[ebp]
  0048c	50		 push	 eax
  0048d	e8 00 00 00 00	 call	 ?GetMasterSkillValue@CMasterLevelSkillTreeSystem@@QAEMHH@Z ; CMasterLevelSkillTreeSystem::GetMasterSkillValue
  00492	d9 9f 24 07 00
	00		 fstp	 DWORD PTR [edi+1828]
$LN404@SetItemMLP:

; 5257 : 				break;
; 5258 : 			}
; 5259 : 		}
; 5260 : 
; 5261 : 		for( iCount = 0; iCount < MAX_MAGIC; iCount++)

  00498	33 db		 xor	 ebx, ebx
  0049a	33 f6		 xor	 esi, esi
  0049c	0f 1f 40 00	 npad	 4
$LL39@SetItemMLP:

; 5262 : 		{
; 5263 : 			if( lpObj->Magic[iCount].IsMagic() == TRUE &&

  004a0	8b 8f a8 06 00
	00		 mov	 ecx, DWORD PTR [edi+1704]
  004a6	03 ce		 add	 ecx, esi
  004a8	e8 00 00 00 00	 call	 ?IsMagic@CMagicInf@@QAEHXZ ; CMagicInf::IsMagic
  004ad	83 f8 01	 cmp	 eax, 1
  004b0	75 10		 jne	 SHORT $LN37@SetItemMLP
  004b2	8b 87 a8 06 00
	00		 mov	 eax, DWORD PTR [edi+1704]
  004b8	81 7c 30 08 91
	01 00 00	 cmp	 DWORD PTR [eax+esi+8], 401 ; 00000191H
  004c0	74 15		 je	 SHORT $LN241@SetItemMLP
$LN37@SetItemMLP:

; 5257 : 				break;
; 5258 : 			}
; 5259 : 		}
; 5260 : 
; 5261 : 		for( iCount = 0; iCount < MAX_MAGIC; iCount++)

  004c2	83 c6 18	 add	 esi, 24			; 00000018H
  004c5	43		 inc	 ebx
  004c6	81 fe 10 0e 00
	00		 cmp	 esi, 3600		; 00000e10H
  004cc	7c d2		 jl	 SHORT $LL39@SetItemMLP
  004ce	5f		 pop	 edi
  004cf	5e		 pop	 esi
  004d0	5b		 pop	 ebx

; 5578 : 				break;
; 5579 : 			}
; 5580 : 		}
; 5581 : 		break;
; 5582 : 	}
; 5583 : }

  004d1	8b e5		 mov	 esp, ebp
  004d3	5d		 pop	 ebp
  004d4	c2 08 00	 ret	 8
$LN241@SetItemMLP:

; 5264 : 				lpObj->Magic[iCount].m_Skill == 401 )
; 5265 : 			{
; 5266 : 				lpObj->m_MPSkillOpt.MpsTwoHandStaffMastery = this->GetMasterSkillValue(MagicDamageC.SkillGet(lpObj->Magic[iCount].m_Skill),lpObj->Magic[iCount].m_Level);

  004d7	8b c8		 mov	 ecx, eax
  004d9	8d 14 5b	 lea	 edx, DWORD PTR [ebx+ebx*2]
  004dc	0f b6 44 d1 04	 movzx	 eax, BYTE PTR [ecx+edx*8+4]
  004e1	50		 push	 eax
  004e2	ff 74 d1 08	 push	 DWORD PTR [ecx+edx*8+8]
  004e6	b9 00 00 00 00	 mov	 ecx, OFFSET ?MagicDamageC@@3VCMagicDamage@@A ; MagicDamageC
  004eb	e8 00 00 00 00	 call	 ?SkillGet@CMagicDamage@@QAEHH@Z ; CMagicDamage::SkillGet
  004f0	8b 4d fc	 mov	 ecx, DWORD PTR _this$1$[ebp]
  004f3	50		 push	 eax
  004f4	e8 00 00 00 00	 call	 ?GetMasterSkillValue@CMasterLevelSkillTreeSystem@@QAEMHH@Z ; CMasterLevelSkillTreeSystem::GetMasterSkillValue
  004f9	d9 9f 34 07 00
	00		 fstp	 DWORD PTR [edi+1844]
  004ff	5f		 pop	 edi
  00500	5e		 pop	 esi
  00501	5b		 pop	 ebx

; 5578 : 				break;
; 5579 : 			}
; 5580 : 		}
; 5581 : 		break;
; 5582 : 	}
; 5583 : }

  00502	8b e5		 mov	 esp, ebp
  00504	5d		 pop	 ebp
  00505	c2 08 00	 ret	 8
$LN142@SetItemMLP:
  00508	8b 7d 08	 mov	 edi, DWORD PTR _lpObj$[ebp]

; 5267 : 				break;
; 5268 : 			}
; 5269 : 		}
; 5270 : 		break;
; 5271 : 	case 6:
; 5272 : 		for( iCount = 0; iCount < MAX_MAGIC; iCount++)

  0050b	33 db		 xor	 ebx, ebx
  0050d	33 f6		 xor	 esi, esi
  0050f	90		 npad	 1
$LL42@SetItemMLP:

; 5273 : 		{
; 5274 : 			if( lpObj->Magic[iCount].IsMagic() == TRUE )

  00510	8b 8f a8 06 00
	00		 mov	 ecx, DWORD PTR [edi+1704]
  00516	03 ce		 add	 ecx, esi
  00518	e8 00 00 00 00	 call	 ?IsMagic@CMagicInf@@QAEHXZ ; CMagicInf::IsMagic
  0051d	83 f8 01	 cmp	 eax, 1
  00520	75 1f		 jne	 SHORT $LN40@SetItemMLP

; 5275 : 			{
; 5276 : 				if( lpObj->Magic[iCount].m_Skill == 399 )

  00522	8b 87 a8 06 00
	00		 mov	 eax, DWORD PTR [edi+1704]
  00528	8b 44 30 08	 mov	 eax, DWORD PTR [eax+esi+8]
  0052c	3d 8f 01 00 00	 cmp	 eax, 399		; 0000018fH
  00531	74 7b		 je	 SHORT $LN242@SetItemMLP

; 5279 : 					break;
; 5280 : 				}
; 5281 : 
; 5282 : 				if( lpObj->Magic[iCount].m_Skill == 437 )

  00533	3d b5 01 00 00	 cmp	 eax, 437		; 000001b5H
  00538	74 46		 je	 SHORT $LN243@SetItemMLP

; 5286 : 				}
; 5287 : 
; 5288 : 				if( lpObj->Magic[iCount].m_Skill == 528 )

  0053a	3d 10 02 00 00	 cmp	 eax, 528		; 00000210H
  0053f	74 11		 je	 SHORT $LN244@SetItemMLP
$LN40@SetItemMLP:

; 5267 : 				break;
; 5268 : 			}
; 5269 : 		}
; 5270 : 		break;
; 5271 : 	case 6:
; 5272 : 		for( iCount = 0; iCount < MAX_MAGIC; iCount++)

  00541	83 c6 18	 add	 esi, 24			; 00000018H
  00544	43		 inc	 ebx
  00545	81 fe 10 0e 00
	00		 cmp	 esi, 3600		; 00000e10H
  0054b	7c c3		 jl	 SHORT $LL42@SetItemMLP
  0054d	e9 88 00 00 00	 jmp	 $LN406@SetItemMLP
$LN244@SetItemMLP:

; 5289 : 				{
; 5290 : 					lpObj->m_MPSkillOpt.MpsShieldStrength3 = this->GetMasterSkillValue(MagicDamageC.SkillGet(lpObj->Magic[iCount].m_Skill),lpObj->Magic[iCount].m_Level);

  00552	8b 8f a8 06 00
	00		 mov	 ecx, DWORD PTR [edi+1704]
  00558	8d 14 5b	 lea	 edx, DWORD PTR [ebx+ebx*2]
  0055b	0f b6 44 d1 04	 movzx	 eax, BYTE PTR [ecx+edx*8+4]
  00560	50		 push	 eax
  00561	ff 74 d1 08	 push	 DWORD PTR [ecx+edx*8+8]
  00565	b9 00 00 00 00	 mov	 ecx, OFFSET ?MagicDamageC@@3VCMagicDamage@@A ; MagicDamageC
  0056a	e8 00 00 00 00	 call	 ?SkillGet@CMagicDamage@@QAEHH@Z ; CMagicDamage::SkillGet
  0056f	8b 4d fc	 mov	 ecx, DWORD PTR _this$1$[ebp]
  00572	50		 push	 eax
  00573	e8 00 00 00 00	 call	 ?GetMasterSkillValue@CMasterLevelSkillTreeSystem@@QAEMHH@Z ; CMasterLevelSkillTreeSystem::GetMasterSkillValue
  00578	d9 9f bc 07 00
	00		 fstp	 DWORD PTR [edi+1980]
  0057e	eb 5a		 jmp	 SHORT $LN406@SetItemMLP
$LN243@SetItemMLP:

; 5283 : 				{
; 5284 : 					lpObj->m_MPSkillOpt.MpsShieldStrength2 = this->GetMasterSkillValue(MagicDamageC.SkillGet(lpObj->Magic[iCount].m_Skill),lpObj->Magic[iCount].m_Level);

  00580	8b 8f a8 06 00
	00		 mov	 ecx, DWORD PTR [edi+1704]
  00586	8d 14 5b	 lea	 edx, DWORD PTR [ebx+ebx*2]
  00589	0f b6 44 d1 04	 movzx	 eax, BYTE PTR [ecx+edx*8+4]
  0058e	50		 push	 eax
  0058f	ff 74 d1 08	 push	 DWORD PTR [ecx+edx*8+8]
  00593	b9 00 00 00 00	 mov	 ecx, OFFSET ?MagicDamageC@@3VCMagicDamage@@A ; MagicDamageC
  00598	e8 00 00 00 00	 call	 ?SkillGet@CMagicDamage@@QAEHH@Z ; CMagicDamage::SkillGet
  0059d	8b 4d fc	 mov	 ecx, DWORD PTR _this$1$[ebp]
  005a0	50		 push	 eax
  005a1	e8 00 00 00 00	 call	 ?GetMasterSkillValue@CMasterLevelSkillTreeSystem@@QAEMHH@Z ; CMasterLevelSkillTreeSystem::GetMasterSkillValue
  005a6	d9 9f 4c 07 00
	00		 fstp	 DWORD PTR [edi+1868]

; 5285 : 					break;

  005ac	eb 2c		 jmp	 SHORT $LN406@SetItemMLP
$LN242@SetItemMLP:

; 5277 : 				{
; 5278 : 					lpObj->m_MPSkillOpt.MpsShieldStrength = this->GetMasterSkillValue(MagicDamageC.SkillGet(lpObj->Magic[iCount].m_Skill),lpObj->Magic[iCount].m_Level);

  005ae	8b 8f a8 06 00
	00		 mov	 ecx, DWORD PTR [edi+1704]
  005b4	8d 14 5b	 lea	 edx, DWORD PTR [ebx+ebx*2]
  005b7	0f b6 44 d1 04	 movzx	 eax, BYTE PTR [ecx+edx*8+4]
  005bc	50		 push	 eax
  005bd	ff 74 d1 08	 push	 DWORD PTR [ecx+edx*8+8]
  005c1	b9 00 00 00 00	 mov	 ecx, OFFSET ?MagicDamageC@@3VCMagicDamage@@A ; MagicDamageC
  005c6	e8 00 00 00 00	 call	 ?SkillGet@CMagicDamage@@QAEHH@Z ; CMagicDamage::SkillGet
  005cb	8b 4d fc	 mov	 ecx, DWORD PTR _this$1$[ebp]
  005ce	50		 push	 eax
  005cf	e8 00 00 00 00	 call	 ?GetMasterSkillValue@CMasterLevelSkillTreeSystem@@QAEMHH@Z ; CMasterLevelSkillTreeSystem::GetMasterSkillValue
  005d4	d9 9f 2c 07 00
	00		 fstp	 DWORD PTR [edi+1836]
$LN406@SetItemMLP:

; 5291 : 					break;
; 5292 : 				}
; 5293 : 			}
; 5294 : 		}
; 5295 : 
; 5296 : 		for( iCount = 0; iCount < MAX_MAGIC; iCount++)

  005da	33 db		 xor	 ebx, ebx
  005dc	33 f6		 xor	 esi, esi
  005de	66 90		 npad	 2
$LL45@SetItemMLP:

; 5297 : 		{
; 5298 : 			if( lpObj->Magic[iCount].IsMagic() == TRUE )

  005e0	8b 8f a8 06 00
	00		 mov	 ecx, DWORD PTR [edi+1704]
  005e6	03 ce		 add	 ecx, esi
  005e8	e8 00 00 00 00	 call	 ?IsMagic@CMagicInf@@QAEHXZ ; CMagicInf::IsMagic
  005ed	83 f8 01	 cmp	 eax, 1
  005f0	75 23		 jne	 SHORT $LN43@SetItemMLP

; 5299 : 			{
; 5300 : 				if( lpObj->Magic[iCount].m_Skill == 402 )

  005f2	8b 87 a8 06 00
	00		 mov	 eax, DWORD PTR [edi+1704]
  005f8	8b 44 30 08	 mov	 eax, DWORD PTR [eax+esi+8]
  005fc	3d 92 01 00 00	 cmp	 eax, 402		; 00000192H
  00601	0f 84 8d 00 00
	00		 je	 $LN245@SetItemMLP

; 5303 : 					break;
; 5304 : 				}
; 5305 : 
; 5306 : 				if( lpObj->Magic[iCount].m_Skill == 440 )

  00607	3d b8 01 00 00	 cmp	 eax, 440		; 000001b8H
  0060c	74 51		 je	 SHORT $LN246@SetItemMLP

; 5309 : 					break;
; 5310 : 				}
; 5311 : 
; 5312 : 				if( lpObj->Magic[iCount].m_Skill == 532 )

  0060e	3d 14 02 00 00	 cmp	 eax, 532		; 00000214H
  00613	74 15		 je	 SHORT $LN247@SetItemMLP
$LN43@SetItemMLP:

; 5291 : 					break;
; 5292 : 				}
; 5293 : 			}
; 5294 : 		}
; 5295 : 
; 5296 : 		for( iCount = 0; iCount < MAX_MAGIC; iCount++)

  00615	83 c6 18	 add	 esi, 24			; 00000018H
  00618	43		 inc	 ebx
  00619	81 fe 10 0e 00
	00		 cmp	 esi, 3600		; 00000e10H
  0061f	7c bf		 jl	 SHORT $LL45@SetItemMLP
  00621	5f		 pop	 edi
  00622	5e		 pop	 esi
  00623	5b		 pop	 ebx

; 5578 : 				break;
; 5579 : 			}
; 5580 : 		}
; 5581 : 		break;
; 5582 : 	}
; 5583 : }

  00624	8b e5		 mov	 esp, ebp
  00626	5d		 pop	 ebp
  00627	c2 08 00	 ret	 8
$LN247@SetItemMLP:

; 5313 : 				{
; 5314 : 					lpObj->m_MPSkillOpt.MpsShieldMastery3 = this->GetMasterSkillValue(MagicDamageC.SkillGet(lpObj->Magic[iCount].m_Skill),lpObj->Magic[iCount].m_Level);

  0062a	8b 8f a8 06 00
	00		 mov	 ecx, DWORD PTR [edi+1704]
  00630	8d 14 5b	 lea	 edx, DWORD PTR [ebx+ebx*2]
  00633	0f b6 44 d1 04	 movzx	 eax, BYTE PTR [ecx+edx*8+4]
  00638	50		 push	 eax
  00639	ff 74 d1 08	 push	 DWORD PTR [ecx+edx*8+8]
  0063d	b9 00 00 00 00	 mov	 ecx, OFFSET ?MagicDamageC@@3VCMagicDamage@@A ; MagicDamageC
  00642	e8 00 00 00 00	 call	 ?SkillGet@CMagicDamage@@QAEHH@Z ; CMagicDamage::SkillGet
  00647	8b 4d fc	 mov	 ecx, DWORD PTR _this$1$[ebp]
  0064a	50		 push	 eax
  0064b	e8 00 00 00 00	 call	 ?GetMasterSkillValue@CMasterLevelSkillTreeSystem@@QAEMHH@Z ; CMasterLevelSkillTreeSystem::GetMasterSkillValue
  00650	d9 9f c0 07 00
	00		 fstp	 DWORD PTR [edi+1984]
  00656	5f		 pop	 edi
  00657	5e		 pop	 esi
  00658	5b		 pop	 ebx

; 5578 : 				break;
; 5579 : 			}
; 5580 : 		}
; 5581 : 		break;
; 5582 : 	}
; 5583 : }

  00659	8b e5		 mov	 esp, ebp
  0065b	5d		 pop	 ebp
  0065c	c2 08 00	 ret	 8
$LN246@SetItemMLP:

; 5307 : 				{
; 5308 : 					lpObj->m_MPSkillOpt.MpsShieldMastery2 = this->GetMasterSkillValue(MagicDamageC.SkillGet(lpObj->Magic[iCount].m_Skill),lpObj->Magic[iCount].m_Level);

  0065f	8b 8f a8 06 00
	00		 mov	 ecx, DWORD PTR [edi+1704]
  00665	8d 14 5b	 lea	 edx, DWORD PTR [ebx+ebx*2]
  00668	0f b6 44 d1 04	 movzx	 eax, BYTE PTR [ecx+edx*8+4]
  0066d	50		 push	 eax
  0066e	ff 74 d1 08	 push	 DWORD PTR [ecx+edx*8+8]
  00672	b9 00 00 00 00	 mov	 ecx, OFFSET ?MagicDamageC@@3VCMagicDamage@@A ; MagicDamageC
  00677	e8 00 00 00 00	 call	 ?SkillGet@CMagicDamage@@QAEHH@Z ; CMagicDamage::SkillGet
  0067c	8b 4d fc	 mov	 ecx, DWORD PTR _this$1$[ebp]
  0067f	50		 push	 eax
  00680	e8 00 00 00 00	 call	 ?GetMasterSkillValue@CMasterLevelSkillTreeSystem@@QAEMHH@Z ; CMasterLevelSkillTreeSystem::GetMasterSkillValue
  00685	d9 9f 50 07 00
	00		 fstp	 DWORD PTR [edi+1872]
  0068b	5f		 pop	 edi
  0068c	5e		 pop	 esi
  0068d	5b		 pop	 ebx

; 5578 : 				break;
; 5579 : 			}
; 5580 : 		}
; 5581 : 		break;
; 5582 : 	}
; 5583 : }

  0068e	8b e5		 mov	 esp, ebp
  00690	5d		 pop	 ebp
  00691	c2 08 00	 ret	 8
$LN245@SetItemMLP:

; 5301 : 				{
; 5302 : 					lpObj->m_MPSkillOpt.MpsShieldMastery = this->GetMasterSkillValue(MagicDamageC.SkillGet(lpObj->Magic[iCount].m_Skill),lpObj->Magic[iCount].m_Level);

  00694	8b 8f a8 06 00
	00		 mov	 ecx, DWORD PTR [edi+1704]
  0069a	8d 14 5b	 lea	 edx, DWORD PTR [ebx+ebx*2]
  0069d	0f b6 44 d1 04	 movzx	 eax, BYTE PTR [ecx+edx*8+4]
  006a2	50		 push	 eax
  006a3	ff 74 d1 08	 push	 DWORD PTR [ecx+edx*8+8]
  006a7	b9 00 00 00 00	 mov	 ecx, OFFSET ?MagicDamageC@@3VCMagicDamage@@A ; MagicDamageC
  006ac	e8 00 00 00 00	 call	 ?SkillGet@CMagicDamage@@QAEHH@Z ; CMagicDamage::SkillGet
  006b1	8b 4d fc	 mov	 ecx, DWORD PTR _this$1$[ebp]
  006b4	50		 push	 eax
  006b5	e8 00 00 00 00	 call	 ?GetMasterSkillValue@CMasterLevelSkillTreeSystem@@QAEMHH@Z ; CMasterLevelSkillTreeSystem::GetMasterSkillValue
  006ba	d9 9f 38 07 00
	00		 fstp	 DWORD PTR [edi+1848]
  006c0	5f		 pop	 edi
  006c1	5e		 pop	 esi
  006c2	5b		 pop	 ebx

; 5578 : 				break;
; 5579 : 			}
; 5580 : 		}
; 5581 : 		break;
; 5582 : 	}
; 5583 : }

  006c3	8b e5		 mov	 esp, ebp
  006c5	5d		 pop	 ebp
  006c6	c2 08 00	 ret	 8
$LN151@SetItemMLP:
  006c9	8b 7d 08	 mov	 edi, DWORD PTR _lpObj$[ebp]

; 5315 : 					break;
; 5316 : 				}
; 5317 : 			}
; 5318 : 		}
; 5319 : 		break;
; 5320 : 	case 7:
; 5321 : 		for( iCount = 0; iCount < MAX_MAGIC; iCount++)

  006cc	33 db		 xor	 ebx, ebx
  006ce	33 f6		 xor	 esi, esi
$LL48@SetItemMLP:

; 5322 : 		{
; 5323 : 			if( lpObj->Magic[iCount].IsMagic() == TRUE &&

  006d0	8b 8f a8 06 00
	00		 mov	 ecx, DWORD PTR [edi+1704]
  006d6	03 ce		 add	 ecx, esi
  006d8	e8 00 00 00 00	 call	 ?IsMagic@CMagicInf@@QAEHXZ ; CMagicInf::IsMagic
  006dd	83 f8 01	 cmp	 eax, 1
  006e0	75 10		 jne	 SHORT $LN46@SetItemMLP
  006e2	8b 87 a8 06 00
	00		 mov	 eax, DWORD PTR [edi+1704]
  006e8	81 7c 30 08 b3
	01 00 00	 cmp	 DWORD PTR [eax+esi+8], 435 ; 000001b3H
  006f0	74 0e		 je	 SHORT $LN248@SetItemMLP
$LN46@SetItemMLP:

; 5315 : 					break;
; 5316 : 				}
; 5317 : 			}
; 5318 : 		}
; 5319 : 		break;
; 5320 : 	case 7:
; 5321 : 		for( iCount = 0; iCount < MAX_MAGIC; iCount++)

  006f2	83 c6 18	 add	 esi, 24			; 00000018H
  006f5	43		 inc	 ebx
  006f6	81 fe 10 0e 00
	00		 cmp	 esi, 3600		; 00000e10H
  006fc	7c d2		 jl	 SHORT $LL48@SetItemMLP
  006fe	eb 28		 jmp	 SHORT $LN408@SetItemMLP
$LN248@SetItemMLP:

; 5324 : 				lpObj->Magic[iCount].m_Skill == 435 )
; 5325 : 			{
; 5326 : 				lpObj->m_MPSkillOpt.MpsBowStrength = this->GetMasterSkillValue(MagicDamageC.SkillGet(lpObj->Magic[iCount].m_Skill),lpObj->Magic[iCount].m_Level);

  00700	8b c8		 mov	 ecx, eax
  00702	8d 14 5b	 lea	 edx, DWORD PTR [ebx+ebx*2]
  00705	0f b6 44 d1 04	 movzx	 eax, BYTE PTR [ecx+edx*8+4]
  0070a	50		 push	 eax
  0070b	ff 74 d1 08	 push	 DWORD PTR [ecx+edx*8+8]
  0070f	b9 00 00 00 00	 mov	 ecx, OFFSET ?MagicDamageC@@3VCMagicDamage@@A ; MagicDamageC
  00714	e8 00 00 00 00	 call	 ?SkillGet@CMagicDamage@@QAEHH@Z ; CMagicDamage::SkillGet
  00719	8b 4d fc	 mov	 ecx, DWORD PTR _this$1$[ebp]
  0071c	50		 push	 eax
  0071d	e8 00 00 00 00	 call	 ?GetMasterSkillValue@CMasterLevelSkillTreeSystem@@QAEMHH@Z ; CMasterLevelSkillTreeSystem::GetMasterSkillValue
  00722	d9 9f 3c 07 00
	00		 fstp	 DWORD PTR [edi+1852]
$LN408@SetItemMLP:

; 5327 : 				break;
; 5328 : 			}
; 5329 : 		}
; 5330 : 
; 5331 : 		for( iCount = 0; iCount < MAX_MAGIC; iCount++)

  00728	33 db		 xor	 ebx, ebx
  0072a	33 f6		 xor	 esi, esi
  0072c	0f 1f 40 00	 npad	 4
$LL51@SetItemMLP:

; 5332 : 		{
; 5333 : 			if( lpObj->Magic[iCount].IsMagic() == TRUE &&

  00730	8b 8f a8 06 00
	00		 mov	 ecx, DWORD PTR [edi+1704]
  00736	03 ce		 add	 ecx, esi
  00738	e8 00 00 00 00	 call	 ?IsMagic@CMagicInf@@QAEHXZ ; CMagicInf::IsMagic
  0073d	83 f8 01	 cmp	 eax, 1
  00740	75 10		 jne	 SHORT $LN49@SetItemMLP
  00742	8b 87 a8 06 00
	00		 mov	 eax, DWORD PTR [edi+1704]
  00748	81 7c 30 08 b6
	01 00 00	 cmp	 DWORD PTR [eax+esi+8], 438 ; 000001b6H
  00750	74 15		 je	 SHORT $LN249@SetItemMLP
$LN49@SetItemMLP:

; 5327 : 				break;
; 5328 : 			}
; 5329 : 		}
; 5330 : 
; 5331 : 		for( iCount = 0; iCount < MAX_MAGIC; iCount++)

  00752	83 c6 18	 add	 esi, 24			; 00000018H
  00755	43		 inc	 ebx
  00756	81 fe 10 0e 00
	00		 cmp	 esi, 3600		; 00000e10H
  0075c	7c d2		 jl	 SHORT $LL51@SetItemMLP
  0075e	5f		 pop	 edi
  0075f	5e		 pop	 esi
  00760	5b		 pop	 ebx

; 5578 : 				break;
; 5579 : 			}
; 5580 : 		}
; 5581 : 		break;
; 5582 : 	}
; 5583 : }

  00761	8b e5		 mov	 esp, ebp
  00763	5d		 pop	 ebp
  00764	c2 08 00	 ret	 8
$LN249@SetItemMLP:

; 5334 : 				lpObj->Magic[iCount].m_Skill == 438 )
; 5335 : 			{
; 5336 : 				lpObj->m_MPSkillOpt.MpsBowMastery = this->GetMasterSkillValue(MagicDamageC.SkillGet(lpObj->Magic[iCount].m_Skill),lpObj->Magic[iCount].m_Level);

  00767	8b c8		 mov	 ecx, eax
  00769	8d 14 5b	 lea	 edx, DWORD PTR [ebx+ebx*2]
  0076c	0f b6 44 d1 04	 movzx	 eax, BYTE PTR [ecx+edx*8+4]
  00771	50		 push	 eax
  00772	ff 74 d1 08	 push	 DWORD PTR [ecx+edx*8+8]
  00776	b9 00 00 00 00	 mov	 ecx, OFFSET ?MagicDamageC@@3VCMagicDamage@@A ; MagicDamageC
  0077b	e8 00 00 00 00	 call	 ?SkillGet@CMagicDamage@@QAEHH@Z ; CMagicDamage::SkillGet
  00780	8b 4d fc	 mov	 ecx, DWORD PTR _this$1$[ebp]
  00783	50		 push	 eax
  00784	e8 00 00 00 00	 call	 ?GetMasterSkillValue@CMasterLevelSkillTreeSystem@@QAEMHH@Z ; CMasterLevelSkillTreeSystem::GetMasterSkillValue
  00789	d9 9f 40 07 00
	00		 fstp	 DWORD PTR [edi+1856]
  0078f	5f		 pop	 edi
  00790	5e		 pop	 esi
  00791	5b		 pop	 ebx

; 5578 : 				break;
; 5579 : 			}
; 5580 : 		}
; 5581 : 		break;
; 5582 : 	}
; 5583 : }

  00792	8b e5		 mov	 esp, ebp
  00794	5d		 pop	 ebp
  00795	c2 08 00	 ret	 8
$LN154@SetItemMLP:
  00798	8b 7d 08	 mov	 edi, DWORD PTR _lpObj$[ebp]

; 5337 : 				break;
; 5338 : 			}
; 5339 : 		}
; 5340 : 		break;
; 5341 : 	case 8:
; 5342 : 		for( iCount = 0; iCount < MAX_MAGIC; iCount++)

  0079b	33 db		 xor	 ebx, ebx
  0079d	33 f6		 xor	 esi, esi
  0079f	90		 npad	 1
$LL54@SetItemMLP:

; 5343 : 		{
; 5344 : 			if( lpObj->Magic[iCount].IsMagic() == TRUE &&

  007a0	8b 8f a8 06 00
	00		 mov	 ecx, DWORD PTR [edi+1704]
  007a6	03 ce		 add	 ecx, esi
  007a8	e8 00 00 00 00	 call	 ?IsMagic@CMagicInf@@QAEHXZ ; CMagicInf::IsMagic
  007ad	83 f8 01	 cmp	 eax, 1
  007b0	75 10		 jne	 SHORT $LN52@SetItemMLP
  007b2	8b 87 a8 06 00
	00		 mov	 eax, DWORD PTR [edi+1704]
  007b8	81 7c 30 08 b4
	01 00 00	 cmp	 DWORD PTR [eax+esi+8], 436 ; 000001b4H
  007c0	74 0e		 je	 SHORT $LN250@SetItemMLP
$LN52@SetItemMLP:

; 5337 : 				break;
; 5338 : 			}
; 5339 : 		}
; 5340 : 		break;
; 5341 : 	case 8:
; 5342 : 		for( iCount = 0; iCount < MAX_MAGIC; iCount++)

  007c2	83 c6 18	 add	 esi, 24			; 00000018H
  007c5	43		 inc	 ebx
  007c6	81 fe 10 0e 00
	00		 cmp	 esi, 3600		; 00000e10H
  007cc	7c d2		 jl	 SHORT $LL54@SetItemMLP
  007ce	eb 28		 jmp	 SHORT $LN410@SetItemMLP
$LN250@SetItemMLP:

; 5345 : 				lpObj->Magic[iCount].m_Skill == 436 )
; 5346 : 			{
; 5347 : 				lpObj->m_MPSkillOpt.MpsCrossbowStrength = this->GetMasterSkillValue(MagicDamageC.SkillGet(lpObj->Magic[iCount].m_Skill),lpObj->Magic[iCount].m_Level);

  007d0	8b c8		 mov	 ecx, eax
  007d2	8d 14 5b	 lea	 edx, DWORD PTR [ebx+ebx*2]
  007d5	0f b6 44 d1 04	 movzx	 eax, BYTE PTR [ecx+edx*8+4]
  007da	50		 push	 eax
  007db	ff 74 d1 08	 push	 DWORD PTR [ecx+edx*8+8]
  007df	b9 00 00 00 00	 mov	 ecx, OFFSET ?MagicDamageC@@3VCMagicDamage@@A ; MagicDamageC
  007e4	e8 00 00 00 00	 call	 ?SkillGet@CMagicDamage@@QAEHH@Z ; CMagicDamage::SkillGet
  007e9	8b 4d fc	 mov	 ecx, DWORD PTR _this$1$[ebp]
  007ec	50		 push	 eax
  007ed	e8 00 00 00 00	 call	 ?GetMasterSkillValue@CMasterLevelSkillTreeSystem@@QAEMHH@Z ; CMasterLevelSkillTreeSystem::GetMasterSkillValue
  007f2	d9 9f 44 07 00
	00		 fstp	 DWORD PTR [edi+1860]
$LN410@SetItemMLP:

; 5348 : 				break;
; 5349 : 			}
; 5350 : 		}
; 5351 : 
; 5352 : 		for( iCount = 0; iCount < MAX_MAGIC; iCount++)

  007f8	33 db		 xor	 ebx, ebx
  007fa	33 f6		 xor	 esi, esi
  007fc	0f 1f 40 00	 npad	 4
$LL57@SetItemMLP:

; 5353 : 		{
; 5354 : 			if( lpObj->Magic[iCount].IsMagic() == TRUE &&

  00800	8b 8f a8 06 00
	00		 mov	 ecx, DWORD PTR [edi+1704]
  00806	03 ce		 add	 ecx, esi
  00808	e8 00 00 00 00	 call	 ?IsMagic@CMagicInf@@QAEHXZ ; CMagicInf::IsMagic
  0080d	83 f8 01	 cmp	 eax, 1
  00810	75 10		 jne	 SHORT $LN55@SetItemMLP
  00812	8b 87 a8 06 00
	00		 mov	 eax, DWORD PTR [edi+1704]
  00818	81 7c 06 08 b7
	01 00 00	 cmp	 DWORD PTR [esi+eax+8], 439 ; 000001b7H
  00820	74 15		 je	 SHORT $LN251@SetItemMLP
$LN55@SetItemMLP:

; 5348 : 				break;
; 5349 : 			}
; 5350 : 		}
; 5351 : 
; 5352 : 		for( iCount = 0; iCount < MAX_MAGIC; iCount++)

  00822	83 c6 18	 add	 esi, 24			; 00000018H
  00825	43		 inc	 ebx
  00826	81 fe 10 0e 00
	00		 cmp	 esi, 3600		; 00000e10H
  0082c	7c d2		 jl	 SHORT $LL57@SetItemMLP
  0082e	5f		 pop	 edi
  0082f	5e		 pop	 esi
  00830	5b		 pop	 ebx

; 5578 : 				break;
; 5579 : 			}
; 5580 : 		}
; 5581 : 		break;
; 5582 : 	}
; 5583 : }

  00831	8b e5		 mov	 esp, ebp
  00833	5d		 pop	 ebp
  00834	c2 08 00	 ret	 8
$LN251@SetItemMLP:

; 5355 : 				lpObj->Magic[iCount].m_Skill == 439 )
; 5356 : 			{
; 5357 : 				lpObj->m_MPSkillOpt.MpsCrossbowMastery = this->GetMasterSkillValue(MagicDamageC.SkillGet(lpObj->Magic[iCount].m_Skill),lpObj->Magic[iCount].m_Level);

  00837	8b c8		 mov	 ecx, eax
  00839	8d 14 5b	 lea	 edx, DWORD PTR [ebx+ebx*2]
  0083c	0f b6 44 d1 04	 movzx	 eax, BYTE PTR [ecx+edx*8+4]
  00841	50		 push	 eax
  00842	ff 74 d1 08	 push	 DWORD PTR [ecx+edx*8+8]
  00846	b9 00 00 00 00	 mov	 ecx, OFFSET ?MagicDamageC@@3VCMagicDamage@@A ; MagicDamageC
  0084b	e8 00 00 00 00	 call	 ?SkillGet@CMagicDamage@@QAEHH@Z ; CMagicDamage::SkillGet
  00850	8b 4d fc	 mov	 ecx, DWORD PTR _this$1$[ebp]
  00853	50		 push	 eax
  00854	e8 00 00 00 00	 call	 ?GetMasterSkillValue@CMasterLevelSkillTreeSystem@@QAEMHH@Z ; CMasterLevelSkillTreeSystem::GetMasterSkillValue
  00859	d9 9f 48 07 00
	00		 fstp	 DWORD PTR [edi+1864]
  0085f	5f		 pop	 edi
  00860	5e		 pop	 esi
  00861	5b		 pop	 ebx

; 5578 : 				break;
; 5579 : 			}
; 5580 : 		}
; 5581 : 		break;
; 5582 : 	}
; 5583 : }

  00862	8b e5		 mov	 esp, ebp
  00864	5d		 pop	 ebp
  00865	c2 08 00	 ret	 8
$LN157@SetItemMLP:
  00868	8b 7d 08	 mov	 edi, DWORD PTR _lpObj$[ebp]

; 5358 : 				break;
; 5359 : 			}
; 5360 : 		}
; 5361 : 		break;
; 5362 : 	case 9:
; 5363 : 		for( iCount = 0; iCount < MAX_MAGIC; iCount++)

  0086b	33 db		 xor	 ebx, ebx
  0086d	33 f6		 xor	 esi, esi
  0086f	90		 npad	 1
$LL60@SetItemMLP:

; 5364 : 		{
; 5365 : 			if( lpObj->Magic[iCount].IsMagic() == TRUE &&

  00870	8b 8f a8 06 00
	00		 mov	 ecx, DWORD PTR [edi+1704]
  00876	03 ce		 add	 ecx, esi
  00878	e8 00 00 00 00	 call	 ?IsMagic@CMagicInf@@QAEHXZ ; CMagicInf::IsMagic
  0087d	83 f8 01	 cmp	 eax, 1
  00880	75 10		 jne	 SHORT $LN58@SetItemMLP
  00882	8b 87 a8 06 00
	00		 mov	 eax, DWORD PTR [edi+1704]
  00888	81 7c 06 08 d1
	01 00 00	 cmp	 DWORD PTR [esi+eax+8], 465 ; 000001d1H
  00890	74 0e		 je	 SHORT $LN252@SetItemMLP
$LN58@SetItemMLP:

; 5358 : 				break;
; 5359 : 			}
; 5360 : 		}
; 5361 : 		break;
; 5362 : 	case 9:
; 5363 : 		for( iCount = 0; iCount < MAX_MAGIC; iCount++)

  00892	83 c6 18	 add	 esi, 24			; 00000018H
  00895	43		 inc	 ebx
  00896	81 fe 10 0e 00
	00		 cmp	 esi, 3600		; 00000e10H
  0089c	7c d2		 jl	 SHORT $LL60@SetItemMLP
  0089e	eb 28		 jmp	 SHORT $LN412@SetItemMLP
$LN252@SetItemMLP:

; 5366 : 				lpObj->Magic[iCount].m_Skill == 465 )
; 5367 : 			{
; 5368 : 				lpObj->m_MPSkillOpt.MpsStickStrength = this->GetMasterSkillValue(MagicDamageC.SkillGet(lpObj->Magic[iCount].m_Skill),lpObj->Magic[iCount].m_Level);

  008a0	8b c8		 mov	 ecx, eax
  008a2	8d 14 5b	 lea	 edx, DWORD PTR [ebx+ebx*2]
  008a5	0f b6 44 d1 04	 movzx	 eax, BYTE PTR [ecx+edx*8+4]
  008aa	50		 push	 eax
  008ab	ff 74 d1 08	 push	 DWORD PTR [ecx+edx*8+8]
  008af	b9 00 00 00 00	 mov	 ecx, OFFSET ?MagicDamageC@@3VCMagicDamage@@A ; MagicDamageC
  008b4	e8 00 00 00 00	 call	 ?SkillGet@CMagicDamage@@QAEHH@Z ; CMagicDamage::SkillGet
  008b9	8b 4d fc	 mov	 ecx, DWORD PTR _this$1$[ebp]
  008bc	50		 push	 eax
  008bd	e8 00 00 00 00	 call	 ?GetMasterSkillValue@CMasterLevelSkillTreeSystem@@QAEMHH@Z ; CMasterLevelSkillTreeSystem::GetMasterSkillValue
  008c2	d9 9f 80 07 00
	00		 fstp	 DWORD PTR [edi+1920]
$LN412@SetItemMLP:

; 5369 : 				break;
; 5370 : 			}
; 5371 : 		}
; 5372 : 
; 5373 : 		for( iCount = 0; iCount < MAX_MAGIC; iCount++)

  008c8	33 db		 xor	 ebx, ebx
  008ca	33 f6		 xor	 esi, esi
  008cc	0f 1f 40 00	 npad	 4
$LL63@SetItemMLP:

; 5374 : 		{
; 5375 : 			if( lpObj->Magic[iCount].IsMagic() == TRUE &&

  008d0	8b 8f a8 06 00
	00		 mov	 ecx, DWORD PTR [edi+1704]
  008d6	03 ce		 add	 ecx, esi
  008d8	e8 00 00 00 00	 call	 ?IsMagic@CMagicInf@@QAEHXZ ; CMagicInf::IsMagic
  008dd	83 f8 01	 cmp	 eax, 1
  008e0	75 10		 jne	 SHORT $LN61@SetItemMLP
  008e2	8b 87 a8 06 00
	00		 mov	 eax, DWORD PTR [edi+1704]
  008e8	81 7c 06 08 d3
	01 00 00	 cmp	 DWORD PTR [esi+eax+8], 467 ; 000001d3H
  008f0	74 15		 je	 SHORT $LN253@SetItemMLP
$LN61@SetItemMLP:

; 5369 : 				break;
; 5370 : 			}
; 5371 : 		}
; 5372 : 
; 5373 : 		for( iCount = 0; iCount < MAX_MAGIC; iCount++)

  008f2	83 c6 18	 add	 esi, 24			; 00000018H
  008f5	43		 inc	 ebx
  008f6	81 fe 10 0e 00
	00		 cmp	 esi, 3600		; 00000e10H
  008fc	7c d2		 jl	 SHORT $LL63@SetItemMLP
  008fe	5f		 pop	 edi
  008ff	5e		 pop	 esi
  00900	5b		 pop	 ebx

; 5578 : 				break;
; 5579 : 			}
; 5580 : 		}
; 5581 : 		break;
; 5582 : 	}
; 5583 : }

  00901	8b e5		 mov	 esp, ebp
  00903	5d		 pop	 ebp
  00904	c2 08 00	 ret	 8
$LN253@SetItemMLP:

; 5376 : 				lpObj->Magic[iCount].m_Skill == 467 )
; 5377 : 			{
; 5378 : 				lpObj->m_MPSkillOpt.MpsStickMastery = this->GetMasterSkillValue(MagicDamageC.SkillGet(lpObj->Magic[iCount].m_Skill),lpObj->Magic[iCount].m_Level);

  00907	8b c8		 mov	 ecx, eax
  00909	8d 14 5b	 lea	 edx, DWORD PTR [ebx+ebx*2]
  0090c	0f b6 44 d1 04	 movzx	 eax, BYTE PTR [ecx+edx*8+4]
  00911	50		 push	 eax
  00912	ff 74 d1 08	 push	 DWORD PTR [ecx+edx*8+8]
  00916	b9 00 00 00 00	 mov	 ecx, OFFSET ?MagicDamageC@@3VCMagicDamage@@A ; MagicDamageC
  0091b	e8 00 00 00 00	 call	 ?SkillGet@CMagicDamage@@QAEHH@Z ; CMagicDamage::SkillGet
  00920	8b 4d fc	 mov	 ecx, DWORD PTR _this$1$[ebp]
  00923	50		 push	 eax
  00924	e8 00 00 00 00	 call	 ?GetMasterSkillValue@CMasterLevelSkillTreeSystem@@QAEMHH@Z ; CMasterLevelSkillTreeSystem::GetMasterSkillValue
  00929	d9 9f 88 07 00
	00		 fstp	 DWORD PTR [edi+1928]
  0092f	5f		 pop	 edi
  00930	5e		 pop	 esi
  00931	5b		 pop	 ebx

; 5578 : 				break;
; 5579 : 			}
; 5580 : 		}
; 5581 : 		break;
; 5582 : 	}
; 5583 : }

  00932	8b e5		 mov	 esp, ebp
  00934	5d		 pop	 ebp
  00935	c2 08 00	 ret	 8
$LN160@SetItemMLP:
  00938	8b 7d 08	 mov	 edi, DWORD PTR _lpObj$[ebp]

; 5379 : 				break;
; 5380 : 			}
; 5381 : 		}
; 5382 : 		break;
; 5383 : 	case 10:
; 5384 : 		for( iCount = 0; iCount < MAX_MAGIC; iCount++)

  0093b	33 db		 xor	 ebx, ebx
  0093d	33 f6		 xor	 esi, esi
  0093f	90		 npad	 1
$LL66@SetItemMLP:

; 5385 : 		{
; 5386 : 			if( lpObj->Magic[iCount].IsMagic() == TRUE &&

  00940	8b 8f a8 06 00
	00		 mov	 ecx, DWORD PTR [edi+1704]
  00946	03 ce		 add	 ecx, esi
  00948	e8 00 00 00 00	 call	 ?IsMagic@CMagicInf@@QAEHXZ ; CMagicInf::IsMagic
  0094d	83 f8 01	 cmp	 eax, 1
  00950	75 10		 jne	 SHORT $LN64@SetItemMLP
  00952	8b 87 a8 06 00
	00		 mov	 eax, DWORD PTR [edi+1704]
  00958	81 7c 06 08 d2
	01 00 00	 cmp	 DWORD PTR [esi+eax+8], 466 ; 000001d2H
  00960	74 0e		 je	 SHORT $LN254@SetItemMLP
$LN64@SetItemMLP:

; 5379 : 				break;
; 5380 : 			}
; 5381 : 		}
; 5382 : 		break;
; 5383 : 	case 10:
; 5384 : 		for( iCount = 0; iCount < MAX_MAGIC; iCount++)

  00962	83 c6 18	 add	 esi, 24			; 00000018H
  00965	43		 inc	 ebx
  00966	81 fe 10 0e 00
	00		 cmp	 esi, 3600		; 00000e10H
  0096c	7c d2		 jl	 SHORT $LL66@SetItemMLP
  0096e	eb 28		 jmp	 SHORT $LN414@SetItemMLP
$LN254@SetItemMLP:

; 5387 : 				lpObj->Magic[iCount].m_Skill == 466 )
; 5388 : 			{
; 5389 : 				lpObj->m_MPSkillOpt.MpsTomeStrength = this->GetMasterSkillValue(MagicDamageC.SkillGet(lpObj->Magic[iCount].m_Skill),lpObj->Magic[iCount].m_Level);

  00970	8b c8		 mov	 ecx, eax
  00972	8d 14 5b	 lea	 edx, DWORD PTR [ebx+ebx*2]
  00975	0f b6 44 d1 04	 movzx	 eax, BYTE PTR [ecx+edx*8+4]
  0097a	50		 push	 eax
  0097b	ff 74 d1 08	 push	 DWORD PTR [ecx+edx*8+8]
  0097f	b9 00 00 00 00	 mov	 ecx, OFFSET ?MagicDamageC@@3VCMagicDamage@@A ; MagicDamageC
  00984	e8 00 00 00 00	 call	 ?SkillGet@CMagicDamage@@QAEHH@Z ; CMagicDamage::SkillGet
  00989	8b 4d fc	 mov	 ecx, DWORD PTR _this$1$[ebp]
  0098c	50		 push	 eax
  0098d	e8 00 00 00 00	 call	 ?GetMasterSkillValue@CMasterLevelSkillTreeSystem@@QAEMHH@Z ; CMasterLevelSkillTreeSystem::GetMasterSkillValue
  00992	d9 9f 84 07 00
	00		 fstp	 DWORD PTR [edi+1924]
$LN414@SetItemMLP:

; 5390 : 				break;
; 5391 : 			}
; 5392 : 		}
; 5393 : 
; 5394 : 		for( iCount = 0; iCount < MAX_MAGIC; iCount++)

  00998	33 db		 xor	 ebx, ebx
  0099a	33 f6		 xor	 esi, esi
  0099c	0f 1f 40 00	 npad	 4
$LL69@SetItemMLP:

; 5395 : 		{
; 5396 : 			if( lpObj->Magic[iCount].IsMagic() == TRUE &&

  009a0	8b 8f a8 06 00
	00		 mov	 ecx, DWORD PTR [edi+1704]
  009a6	03 ce		 add	 ecx, esi
  009a8	e8 00 00 00 00	 call	 ?IsMagic@CMagicInf@@QAEHXZ ; CMagicInf::IsMagic
  009ad	83 f8 01	 cmp	 eax, 1
  009b0	75 10		 jne	 SHORT $LN67@SetItemMLP
  009b2	8b 87 a8 06 00
	00		 mov	 eax, DWORD PTR [edi+1704]
  009b8	81 7c 06 08 d4
	01 00 00	 cmp	 DWORD PTR [esi+eax+8], 468 ; 000001d4H
  009c0	74 15		 je	 SHORT $LN255@SetItemMLP
$LN67@SetItemMLP:

; 5390 : 				break;
; 5391 : 			}
; 5392 : 		}
; 5393 : 
; 5394 : 		for( iCount = 0; iCount < MAX_MAGIC; iCount++)

  009c2	83 c6 18	 add	 esi, 24			; 00000018H
  009c5	43		 inc	 ebx
  009c6	81 fe 10 0e 00
	00		 cmp	 esi, 3600		; 00000e10H
  009cc	7c d2		 jl	 SHORT $LL69@SetItemMLP
  009ce	5f		 pop	 edi
  009cf	5e		 pop	 esi
  009d0	5b		 pop	 ebx

; 5578 : 				break;
; 5579 : 			}
; 5580 : 		}
; 5581 : 		break;
; 5582 : 	}
; 5583 : }

  009d1	8b e5		 mov	 esp, ebp
  009d3	5d		 pop	 ebp
  009d4	c2 08 00	 ret	 8
$LN255@SetItemMLP:

; 5397 : 				lpObj->Magic[iCount].m_Skill == 468 )
; 5398 : 			{
; 5399 : 				lpObj->m_MPSkillOpt.MpsTomeMastery = this->GetMasterSkillValue(MagicDamageC.SkillGet(lpObj->Magic[iCount].m_Skill),lpObj->Magic[iCount].m_Level);

  009d7	8b c8		 mov	 ecx, eax
  009d9	8d 14 5b	 lea	 edx, DWORD PTR [ebx+ebx*2]
  009dc	0f b6 44 d1 04	 movzx	 eax, BYTE PTR [ecx+edx*8+4]
  009e1	50		 push	 eax
  009e2	ff 74 d1 08	 push	 DWORD PTR [ecx+edx*8+8]
  009e6	b9 00 00 00 00	 mov	 ecx, OFFSET ?MagicDamageC@@3VCMagicDamage@@A ; MagicDamageC
  009eb	e8 00 00 00 00	 call	 ?SkillGet@CMagicDamage@@QAEHH@Z ; CMagicDamage::SkillGet
  009f0	8b 4d fc	 mov	 ecx, DWORD PTR _this$1$[ebp]
  009f3	50		 push	 eax
  009f4	e8 00 00 00 00	 call	 ?GetMasterSkillValue@CMasterLevelSkillTreeSystem@@QAEMHH@Z ; CMasterLevelSkillTreeSystem::GetMasterSkillValue
  009f9	d9 9f 8c 07 00
	00		 fstp	 DWORD PTR [edi+1932]
  009ff	5f		 pop	 edi
  00a00	5e		 pop	 esi
  00a01	5b		 pop	 ebx

; 5578 : 				break;
; 5579 : 			}
; 5580 : 		}
; 5581 : 		break;
; 5582 : 	}
; 5583 : }

  00a02	8b e5		 mov	 esp, ebp
  00a04	5d		 pop	 ebp
  00a05	c2 08 00	 ret	 8
$LN163@SetItemMLP:
  00a08	8b 75 08	 mov	 esi, DWORD PTR _lpObj$[ebp]

; 5400 : 				break;
; 5401 : 			}
; 5402 : 		}
; 5403 : 		break;
; 5404 : 	case 11:
; 5405 : 		for( iCount = 0; iCount < MAX_MAGIC; iCount++)

  00a0b	33 db		 xor	 ebx, ebx
  00a0d	33 ff		 xor	 edi, edi
  00a0f	90		 npad	 1
$LL72@SetItemMLP:

; 5406 : 		{
; 5407 : 			if( lpObj->Magic[iCount].IsMagic() == TRUE &&

  00a10	8b 8e a8 06 00
	00		 mov	 ecx, DWORD PTR [esi+1704]
  00a16	03 cf		 add	 ecx, edi
  00a18	e8 00 00 00 00	 call	 ?IsMagic@CMagicInf@@QAEHXZ ; CMagicInf::IsMagic
  00a1d	83 f8 01	 cmp	 eax, 1
  00a20	75 10		 jne	 SHORT $LN70@SetItemMLP
  00a22	8b 86 a8 06 00
	00		 mov	 eax, DWORD PTR [esi+1704]
  00a28	81 7c 07 08 0f
	02 00 00	 cmp	 DWORD PTR [edi+eax+8], 527 ; 0000020fH
  00a30	74 0e		 je	 SHORT $LN256@SetItemMLP
$LN70@SetItemMLP:

; 5400 : 				break;
; 5401 : 			}
; 5402 : 		}
; 5403 : 		break;
; 5404 : 	case 11:
; 5405 : 		for( iCount = 0; iCount < MAX_MAGIC; iCount++)

  00a32	83 c7 18	 add	 edi, 24			; 00000018H
  00a35	43		 inc	 ebx
  00a36	81 ff 10 0e 00
	00		 cmp	 edi, 3600		; 00000e10H
  00a3c	7c d2		 jl	 SHORT $LL72@SetItemMLP
  00a3e	eb 28		 jmp	 SHORT $LN416@SetItemMLP
$LN256@SetItemMLP:

; 5408 : 				lpObj->Magic[iCount].m_Skill == 527 )
; 5409 : 			{
; 5410 : 				lpObj->m_MPSkillOpt.MpsScepterStrength = this->GetMasterSkillValue(MagicDamageC.SkillGet(lpObj->Magic[iCount].m_Skill),lpObj->Magic[iCount].m_Level);

  00a40	8b c8		 mov	 ecx, eax
  00a42	8d 14 5b	 lea	 edx, DWORD PTR [ebx+ebx*2]
  00a45	0f b6 44 d1 04	 movzx	 eax, BYTE PTR [ecx+edx*8+4]
  00a4a	50		 push	 eax
  00a4b	ff 74 d1 08	 push	 DWORD PTR [ecx+edx*8+8]
  00a4f	b9 00 00 00 00	 mov	 ecx, OFFSET ?MagicDamageC@@3VCMagicDamage@@A ; MagicDamageC
  00a54	e8 00 00 00 00	 call	 ?SkillGet@CMagicDamage@@QAEHH@Z ; CMagicDamage::SkillGet
  00a59	8b 4d fc	 mov	 ecx, DWORD PTR _this$1$[ebp]
  00a5c	50		 push	 eax
  00a5d	e8 00 00 00 00	 call	 ?GetMasterSkillValue@CMasterLevelSkillTreeSystem@@QAEMHH@Z ; CMasterLevelSkillTreeSystem::GetMasterSkillValue
  00a62	d9 9e b4 07 00
	00		 fstp	 DWORD PTR [esi+1972]
$LN416@SetItemMLP:

; 5411 : 				break;
; 5412 : 			}
; 5413 : 		}
; 5414 : 		for( iCount = 0; iCount < MAX_MAGIC; iCount++)

  00a68	33 db		 xor	 ebx, ebx
  00a6a	33 ff		 xor	 edi, edi
  00a6c	0f 1f 40 00	 npad	 4
$LL75@SetItemMLP:

; 5415 : 		{
; 5416 : 			if( lpObj->Magic[iCount].IsMagic() == TRUE &&

  00a70	8b 8e a8 06 00
	00		 mov	 ecx, DWORD PTR [esi+1704]
  00a76	03 cf		 add	 ecx, edi
  00a78	e8 00 00 00 00	 call	 ?IsMagic@CMagicInf@@QAEHXZ ; CMagicInf::IsMagic
  00a7d	83 f8 01	 cmp	 eax, 1
  00a80	75 10		 jne	 SHORT $LN73@SetItemMLP
  00a82	8b 86 a8 06 00
	00		 mov	 eax, DWORD PTR [esi+1704]
  00a88	81 7c 07 08 11
	02 00 00	 cmp	 DWORD PTR [edi+eax+8], 529 ; 00000211H
  00a90	74 0e		 je	 SHORT $LN257@SetItemMLP
$LN73@SetItemMLP:

; 5411 : 				break;
; 5412 : 			}
; 5413 : 		}
; 5414 : 		for( iCount = 0; iCount < MAX_MAGIC; iCount++)

  00a92	83 c7 18	 add	 edi, 24			; 00000018H
  00a95	43		 inc	 ebx
  00a96	81 ff 10 0e 00
	00		 cmp	 edi, 3600		; 00000e10H
  00a9c	7c d2		 jl	 SHORT $LL75@SetItemMLP
  00a9e	eb 28		 jmp	 SHORT $LN417@SetItemMLP
$LN257@SetItemMLP:

; 5417 : 				lpObj->Magic[iCount].m_Skill == 529 )
; 5418 : 			{
; 5419 : 				lpObj->m_MPSkillOpt.MpsUseScepterPetStr = this->GetMasterSkillValue(MagicDamageC.SkillGet(lpObj->Magic[iCount].m_Skill),lpObj->Magic[iCount].m_Level);

  00aa0	8b c8		 mov	 ecx, eax
  00aa2	8d 14 5b	 lea	 edx, DWORD PTR [ebx+ebx*2]
  00aa5	0f b6 44 d1 04	 movzx	 eax, BYTE PTR [ecx+edx*8+4]
  00aaa	50		 push	 eax
  00aab	ff 74 d1 08	 push	 DWORD PTR [ecx+edx*8+8]
  00aaf	b9 00 00 00 00	 mov	 ecx, OFFSET ?MagicDamageC@@3VCMagicDamage@@A ; MagicDamageC
  00ab4	e8 00 00 00 00	 call	 ?SkillGet@CMagicDamage@@QAEHH@Z ; CMagicDamage::SkillGet
  00ab9	8b 4d fc	 mov	 ecx, DWORD PTR _this$1$[ebp]
  00abc	50		 push	 eax
  00abd	e8 00 00 00 00	 call	 ?GetMasterSkillValue@CMasterLevelSkillTreeSystem@@QAEMHH@Z ; CMasterLevelSkillTreeSystem::GetMasterSkillValue
  00ac2	d9 9e c4 07 00
	00		 fstp	 DWORD PTR [esi+1988]
$LN417@SetItemMLP:

; 5420 : 				break;
; 5421 : 			}
; 5422 : 		}
; 5423 : 		for( iCount = 0; iCount < MAX_MAGIC; iCount++)

  00ac8	33 db		 xor	 ebx, ebx
  00aca	33 ff		 xor	 edi, edi
  00acc	0f 1f 40 00	 npad	 4
$LL78@SetItemMLP:

; 5424 : 		{
; 5425 : 			if( lpObj->Magic[iCount].IsMagic() == TRUE &&

  00ad0	8b 8e a8 06 00
	00		 mov	 ecx, DWORD PTR [esi+1704]
  00ad6	03 cf		 add	 ecx, edi
  00ad8	e8 00 00 00 00	 call	 ?IsMagic@CMagicInf@@QAEHXZ ; CMagicInf::IsMagic
  00add	83 f8 01	 cmp	 eax, 1
  00ae0	75 10		 jne	 SHORT $LN76@SetItemMLP
  00ae2	8b 86 a8 06 00
	00		 mov	 eax, DWORD PTR [esi+1704]
  00ae8	81 7c 07 08 13
	02 00 00	 cmp	 DWORD PTR [edi+eax+8], 531 ; 00000213H
  00af0	74 0e		 je	 SHORT $LN258@SetItemMLP
$LN76@SetItemMLP:

; 5420 : 				break;
; 5421 : 			}
; 5422 : 		}
; 5423 : 		for( iCount = 0; iCount < MAX_MAGIC; iCount++)

  00af2	83 c7 18	 add	 edi, 24			; 00000018H
  00af5	43		 inc	 ebx
  00af6	81 ff 10 0e 00
	00		 cmp	 edi, 3600		; 00000e10H
  00afc	7c d2		 jl	 SHORT $LL78@SetItemMLP
  00afe	eb 28		 jmp	 SHORT $LN418@SetItemMLP
$LN258@SetItemMLP:

; 5426 : 				lpObj->Magic[iCount].m_Skill == 531 )
; 5427 : 			{
; 5428 : 				lpObj->m_MPSkillOpt.MpsScepterMastery = this->GetMasterSkillValue(MagicDamageC.SkillGet(lpObj->Magic[iCount].m_Skill),lpObj->Magic[iCount].m_Level);

  00b00	8b c8		 mov	 ecx, eax
  00b02	8d 14 5b	 lea	 edx, DWORD PTR [ebx+ebx*2]
  00b05	0f b6 44 d1 04	 movzx	 eax, BYTE PTR [ecx+edx*8+4]
  00b0a	50		 push	 eax
  00b0b	ff 74 d1 08	 push	 DWORD PTR [ecx+edx*8+8]
  00b0f	b9 00 00 00 00	 mov	 ecx, OFFSET ?MagicDamageC@@3VCMagicDamage@@A ; MagicDamageC
  00b14	e8 00 00 00 00	 call	 ?SkillGet@CMagicDamage@@QAEHH@Z ; CMagicDamage::SkillGet
  00b19	8b 4d fc	 mov	 ecx, DWORD PTR _this$1$[ebp]
  00b1c	50		 push	 eax
  00b1d	e8 00 00 00 00	 call	 ?GetMasterSkillValue@CMasterLevelSkillTreeSystem@@QAEMHH@Z ; CMasterLevelSkillTreeSystem::GetMasterSkillValue
  00b22	d9 9e b8 07 00
	00		 fstp	 DWORD PTR [esi+1976]
$LN418@SetItemMLP:

; 5429 : 				break;
; 5430 : 			}
; 5431 : 		}
; 5432 : 		for( iCount = 0; iCount < MAX_MAGIC; iCount++)

  00b28	33 db		 xor	 ebx, ebx
  00b2a	33 ff		 xor	 edi, edi
  00b2c	0f 1f 40 00	 npad	 4
$LL81@SetItemMLP:

; 5433 : 		{
; 5434 : 			if( lpObj->Magic[iCount].IsMagic() == TRUE &&

  00b30	8b 8e a8 06 00
	00		 mov	 ecx, DWORD PTR [esi+1704]
  00b36	03 cf		 add	 ecx, edi
  00b38	e8 00 00 00 00	 call	 ?IsMagic@CMagicInf@@QAEHXZ ; CMagicInf::IsMagic
  00b3d	83 f8 01	 cmp	 eax, 1
  00b40	75 10		 jne	 SHORT $LN79@SetItemMLP
  00b42	8b 86 a8 06 00
	00		 mov	 eax, DWORD PTR [esi+1704]
  00b48	81 7c 07 08 15
	02 00 00	 cmp	 DWORD PTR [edi+eax+8], 533 ; 00000215H
  00b50	74 15		 je	 SHORT $LN259@SetItemMLP
$LN79@SetItemMLP:

; 5429 : 				break;
; 5430 : 			}
; 5431 : 		}
; 5432 : 		for( iCount = 0; iCount < MAX_MAGIC; iCount++)

  00b52	83 c7 18	 add	 edi, 24			; 00000018H
  00b55	43		 inc	 ebx
  00b56	81 ff 10 0e 00
	00		 cmp	 edi, 3600		; 00000e10H
  00b5c	7c d2		 jl	 SHORT $LL81@SetItemMLP
  00b5e	5f		 pop	 edi
  00b5f	5e		 pop	 esi
  00b60	5b		 pop	 ebx

; 5578 : 				break;
; 5579 : 			}
; 5580 : 		}
; 5581 : 		break;
; 5582 : 	}
; 5583 : }

  00b61	8b e5		 mov	 esp, ebp
  00b63	5d		 pop	 ebp
  00b64	c2 08 00	 ret	 8
$LN259@SetItemMLP:

; 5435 : 				lpObj->Magic[iCount].m_Skill == 533 )
; 5436 : 			{
; 5437 : 				lpObj->m_MPSkillOpt.MpsCommandAttackInc = this->GetMasterSkillValue(MagicDamageC.SkillGet(lpObj->Magic[iCount].m_Skill),lpObj->Magic[iCount].m_Level);

  00b67	8b c8		 mov	 ecx, eax
  00b69	8d 14 5b	 lea	 edx, DWORD PTR [ebx+ebx*2]
  00b6c	0f b6 44 d1 04	 movzx	 eax, BYTE PTR [ecx+edx*8+4]
  00b71	50		 push	 eax
  00b72	ff 74 d1 08	 push	 DWORD PTR [ecx+edx*8+8]
  00b76	b9 00 00 00 00	 mov	 ecx, OFFSET ?MagicDamageC@@3VCMagicDamage@@A ; MagicDamageC
  00b7b	e8 00 00 00 00	 call	 ?SkillGet@CMagicDamage@@QAEHH@Z ; CMagicDamage::SkillGet
  00b80	8b 4d fc	 mov	 ecx, DWORD PTR _this$1$[ebp]
  00b83	50		 push	 eax
  00b84	e8 00 00 00 00	 call	 ?GetMasterSkillValue@CMasterLevelSkillTreeSystem@@QAEMHH@Z ; CMasterLevelSkillTreeSystem::GetMasterSkillValue
  00b89	5f		 pop	 edi
  00b8a	d9 9e c8 07 00
	00		 fstp	 DWORD PTR [esi+1992]
  00b90	5e		 pop	 esi
  00b91	5b		 pop	 ebx

; 5578 : 				break;
; 5579 : 			}
; 5580 : 		}
; 5581 : 		break;
; 5582 : 	}
; 5583 : }

  00b92	8b e5		 mov	 esp, ebp
  00b94	5d		 pop	 ebp
  00b95	c2 08 00	 ret	 8
$LN168@SetItemMLP:
  00b98	8b 7d 08	 mov	 edi, DWORD PTR _lpObj$[ebp]

; 5438 : 				break;
; 5439 : 			}
; 5440 : 		}
; 5441 : 		break;
; 5442 : 	case 12:
; 5443 : 		for( iCount = 0; iCount < MAX_MAGIC; iCount++)

  00b9b	33 db		 xor	 ebx, ebx
  00b9d	33 f6		 xor	 esi, esi
  00b9f	90		 npad	 1
$LL84@SetItemMLP:

; 5444 : 		{
; 5445 : 			if( lpObj->Magic[iCount].IsMagic() == TRUE &&

  00ba0	8b 8f a8 06 00
	00		 mov	 ecx, DWORD PTR [edi+1704]
  00ba6	03 ce		 add	 ecx, esi
  00ba8	e8 00 00 00 00	 call	 ?IsMagic@CMagicInf@@QAEHXZ ; CMagicInf::IsMagic
  00bad	83 f8 01	 cmp	 eax, 1
  00bb0	75 10		 jne	 SHORT $LN82@SetItemMLP
  00bb2	8b 87 a8 06 00
	00		 mov	 eax, DWORD PTR [edi+1704]
  00bb8	81 7c 06 08 38
	02 00 00	 cmp	 DWORD PTR [esi+eax+8], 568 ; 00000238H
  00bc0	74 0e		 je	 SHORT $LN260@SetItemMLP
$LN82@SetItemMLP:

; 5438 : 				break;
; 5439 : 			}
; 5440 : 		}
; 5441 : 		break;
; 5442 : 	case 12:
; 5443 : 		for( iCount = 0; iCount < MAX_MAGIC; iCount++)

  00bc2	83 c6 18	 add	 esi, 24			; 00000018H
  00bc5	43		 inc	 ebx
  00bc6	81 fe 10 0e 00
	00		 cmp	 esi, 3600		; 00000e10H
  00bcc	7c d2		 jl	 SHORT $LL84@SetItemMLP
  00bce	eb 28		 jmp	 SHORT $LN420@SetItemMLP
$LN260@SetItemMLP:

; 5446 : 				lpObj->Magic[iCount].m_Skill == 568 )
; 5447 : 			{
; 5448 : 				lpObj->m_MPSkillOpt.MpsFistStrength = this->GetMasterSkillValue(MagicDamageC.SkillGet(lpObj->Magic[iCount].m_Skill),lpObj->Magic[iCount].m_Level);

  00bd0	8b c8		 mov	 ecx, eax
  00bd2	8d 14 5b	 lea	 edx, DWORD PTR [ebx+ebx*2]
  00bd5	0f b6 44 d1 04	 movzx	 eax, BYTE PTR [ecx+edx*8+4]
  00bda	50		 push	 eax
  00bdb	ff 74 d1 08	 push	 DWORD PTR [ecx+edx*8+8]
  00bdf	b9 00 00 00 00	 mov	 ecx, OFFSET ?MagicDamageC@@3VCMagicDamage@@A ; MagicDamageC
  00be4	e8 00 00 00 00	 call	 ?SkillGet@CMagicDamage@@QAEHH@Z ; CMagicDamage::SkillGet
  00be9	8b 4d fc	 mov	 ecx, DWORD PTR _this$1$[ebp]
  00bec	50		 push	 eax
  00bed	e8 00 00 00 00	 call	 ?GetMasterSkillValue@CMasterLevelSkillTreeSystem@@QAEMHH@Z ; CMasterLevelSkillTreeSystem::GetMasterSkillValue
  00bf2	d9 9f 24 08 00
	00		 fstp	 DWORD PTR [edi+2084]
$LN420@SetItemMLP:

; 5449 : 				break;
; 5450 : 			}
; 5451 : 		}
; 5452 : 		for( iCount = 0; iCount < MAX_MAGIC; iCount++)

  00bf8	33 db		 xor	 ebx, ebx
  00bfa	33 f6		 xor	 esi, esi
  00bfc	0f 1f 40 00	 npad	 4
$LL87@SetItemMLP:

; 5453 : 		{
; 5454 : 			if( lpObj->Magic[iCount].IsMagic() == TRUE &&

  00c00	8b 8f a8 06 00
	00		 mov	 ecx, DWORD PTR [edi+1704]
  00c06	03 ce		 add	 ecx, esi
  00c08	e8 00 00 00 00	 call	 ?IsMagic@CMagicInf@@QAEHXZ ; CMagicInf::IsMagic
  00c0d	83 f8 01	 cmp	 eax, 1
  00c10	75 10		 jne	 SHORT $LN85@SetItemMLP
  00c12	8b 87 a8 06 00
	00		 mov	 eax, DWORD PTR [edi+1704]
  00c18	81 7c 06 08 3b
	02 00 00	 cmp	 DWORD PTR [esi+eax+8], 571 ; 0000023bH
  00c20	74 15		 je	 SHORT $LN261@SetItemMLP
$LN85@SetItemMLP:

; 5449 : 				break;
; 5450 : 			}
; 5451 : 		}
; 5452 : 		for( iCount = 0; iCount < MAX_MAGIC; iCount++)

  00c22	83 c6 18	 add	 esi, 24			; 00000018H
  00c25	43		 inc	 ebx
  00c26	81 fe 10 0e 00
	00		 cmp	 esi, 3600		; 00000e10H
  00c2c	7c d2		 jl	 SHORT $LL87@SetItemMLP
  00c2e	5f		 pop	 edi
  00c2f	5e		 pop	 esi
  00c30	5b		 pop	 ebx

; 5578 : 				break;
; 5579 : 			}
; 5580 : 		}
; 5581 : 		break;
; 5582 : 	}
; 5583 : }

  00c31	8b e5		 mov	 esp, ebp
  00c33	5d		 pop	 ebp
  00c34	c2 08 00	 ret	 8
$LN261@SetItemMLP:

; 5455 : 				lpObj->Magic[iCount].m_Skill == 571 )
; 5456 : 			{
; 5457 : 				lpObj->m_MPSkillOpt.MpsFistMastery = this->GetMasterSkillValue(MagicDamageC.SkillGet(lpObj->Magic[iCount].m_Skill),lpObj->Magic[iCount].m_Level);

  00c37	8b c8		 mov	 ecx, eax
  00c39	8d 14 5b	 lea	 edx, DWORD PTR [ebx+ebx*2]
  00c3c	0f b6 44 d1 04	 movzx	 eax, BYTE PTR [ecx+edx*8+4]
  00c41	50		 push	 eax
  00c42	ff 74 d1 08	 push	 DWORD PTR [ecx+edx*8+8]
  00c46	b9 00 00 00 00	 mov	 ecx, OFFSET ?MagicDamageC@@3VCMagicDamage@@A ; MagicDamageC
  00c4b	e8 00 00 00 00	 call	 ?SkillGet@CMagicDamage@@QAEHH@Z ; CMagicDamage::SkillGet
  00c50	8b 4d fc	 mov	 ecx, DWORD PTR _this$1$[ebp]
  00c53	50		 push	 eax
  00c54	e8 00 00 00 00	 call	 ?GetMasterSkillValue@CMasterLevelSkillTreeSystem@@QAEMHH@Z ; CMasterLevelSkillTreeSystem::GetMasterSkillValue
  00c59	d9 9f 28 08 00
	00		 fstp	 DWORD PTR [edi+2088]
  00c5f	5f		 pop	 edi
  00c60	5e		 pop	 esi
  00c61	5b		 pop	 ebx

; 5578 : 				break;
; 5579 : 			}
; 5580 : 		}
; 5581 : 		break;
; 5582 : 	}
; 5583 : }

  00c62	8b e5		 mov	 esp, ebp
  00c64	5d		 pop	 ebp
  00c65	c2 08 00	 ret	 8
$LN171@SetItemMLP:
  00c68	8b 7d 08	 mov	 edi, DWORD PTR _lpObj$[ebp]

; 5458 : 				break;
; 5459 : 			}
; 5460 : 		}
; 5461 : 		break;
; 5462 : 	case 20:
; 5463 : 		for( iCount = 0; iCount < MAX_MAGIC; iCount++)

  00c6b	33 db		 xor	 ebx, ebx
  00c6d	33 f6		 xor	 esi, esi
  00c6f	90		 npad	 1
$LL90@SetItemMLP:

; 5464 : 		{
; 5465 : 			if( lpObj->Magic[iCount].IsMagic() == TRUE &&

  00c70	8b 8f a8 06 00
	00		 mov	 ecx, DWORD PTR [edi+1704]
  00c76	03 ce		 add	 ecx, esi
  00c78	e8 00 00 00 00	 call	 ?IsMagic@CMagicInf@@QAEHXZ ; CMagicInf::IsMagic
  00c7d	83 f8 01	 cmp	 eax, 1
  00c80	75 10		 jne	 SHORT $LN88@SetItemMLP
  00c82	8b 87 a8 06 00
	00		 mov	 eax, DWORD PTR [edi+1704]
  00c88	81 7c 06 08 42
	01 00 00	 cmp	 DWORD PTR [esi+eax+8], 322 ; 00000142H
  00c90	74 0e		 je	 SHORT $LN262@SetItemMLP
$LN88@SetItemMLP:

; 5458 : 				break;
; 5459 : 			}
; 5460 : 		}
; 5461 : 		break;
; 5462 : 	case 20:
; 5463 : 		for( iCount = 0; iCount < MAX_MAGIC; iCount++)

  00c92	83 c6 18	 add	 esi, 24			; 00000018H
  00c95	43		 inc	 ebx
  00c96	81 fe 10 0e 00
	00		 cmp	 esi, 3600		; 00000e10H
  00c9c	7c d2		 jl	 SHORT $LL90@SetItemMLP
  00c9e	eb 28		 jmp	 SHORT $LN422@SetItemMLP
$LN262@SetItemMLP:

; 5466 : 				lpObj->Magic[iCount].m_Skill == 322 )
; 5467 : 			{
; 5468 : 				lpObj->m_MPSkillOpt.MpsWingDefenseIncrease = this->GetMasterSkillValue(MagicDamageC.SkillGet(lpObj->Magic[iCount].m_Skill),lpObj->Magic[iCount].m_Level);

  00ca0	8b c8		 mov	 ecx, eax
  00ca2	8d 14 5b	 lea	 edx, DWORD PTR [ebx+ebx*2]
  00ca5	0f b6 44 d1 04	 movzx	 eax, BYTE PTR [ecx+edx*8+4]
  00caa	50		 push	 eax
  00cab	ff 74 d1 08	 push	 DWORD PTR [ecx+edx*8+8]
  00caf	b9 00 00 00 00	 mov	 ecx, OFFSET ?MagicDamageC@@3VCMagicDamage@@A ; MagicDamageC
  00cb4	e8 00 00 00 00	 call	 ?SkillGet@CMagicDamage@@QAEHH@Z ; CMagicDamage::SkillGet
  00cb9	8b 4d fc	 mov	 ecx, DWORD PTR _this$1$[ebp]
  00cbc	50		 push	 eax
  00cbd	e8 00 00 00 00	 call	 ?GetMasterSkillValue@CMasterLevelSkillTreeSystem@@QAEMHH@Z ; CMasterLevelSkillTreeSystem::GetMasterSkillValue
  00cc2	d9 9f 48 08 00
	00		 fstp	 DWORD PTR [edi+2120]
$LN422@SetItemMLP:

; 5469 : 				break;
; 5470 : 			}
; 5471 : 		}
; 5472 : 		for( iCount = 0; iCount < MAX_MAGIC; iCount++)

  00cc8	33 db		 xor	 ebx, ebx
  00cca	33 f6		 xor	 esi, esi
  00ccc	0f 1f 40 00	 npad	 4
$LL93@SetItemMLP:

; 5473 : 		{
; 5474 : 			if( lpObj->Magic[iCount].IsMagic() == TRUE &&

  00cd0	8b 8f a8 06 00
	00		 mov	 ecx, DWORD PTR [edi+1704]
  00cd6	03 ce		 add	 ecx, esi
  00cd8	e8 00 00 00 00	 call	 ?IsMagic@CMagicInf@@QAEHXZ ; CMagicInf::IsMagic
  00cdd	83 f8 01	 cmp	 eax, 1
  00ce0	75 14		 jne	 SHORT $LN91@SetItemMLP
  00ce2	8b 87 a8 06 00
	00		 mov	 eax, DWORD PTR [edi+1704]
  00ce8	81 7c 06 08 44
	01 00 00	 cmp	 DWORD PTR [esi+eax+8], 324 ; 00000144H
  00cf0	0f 84 31 03 00
	00		 je	 $LN273@SetItemMLP
$LN91@SetItemMLP:

; 5469 : 				break;
; 5470 : 			}
; 5471 : 		}
; 5472 : 		for( iCount = 0; iCount < MAX_MAGIC; iCount++)

  00cf6	83 c6 18	 add	 esi, 24			; 00000018H
  00cf9	43		 inc	 ebx
  00cfa	81 fe 10 0e 00
	00		 cmp	 esi, 3600		; 00000e10H
  00d00	7c ce		 jl	 SHORT $LL93@SetItemMLP
  00d02	5f		 pop	 edi
  00d03	5e		 pop	 esi
  00d04	5b		 pop	 ebx

; 5578 : 				break;
; 5579 : 			}
; 5580 : 		}
; 5581 : 		break;
; 5582 : 	}
; 5583 : }

  00d05	8b e5		 mov	 esp, ebp
  00d07	5d		 pop	 ebp
  00d08	c2 08 00	 ret	 8
$LN174@SetItemMLP:
  00d0b	8b 7d 08	 mov	 edi, DWORD PTR _lpObj$[ebp]

; 5475 : 				lpObj->Magic[iCount].m_Skill == 324 )
; 5476 : 			{
; 5477 : 				lpObj->m_MPSkillOpt.MpsWingAttackIncrease = this->GetMasterSkillValue(MagicDamageC.SkillGet(lpObj->Magic[iCount].m_Skill),lpObj->Magic[iCount].m_Level);
; 5478 : 				break;
; 5479 : 			}
; 5480 : 		}
; 5481 : 		break;
; 5482 : 	case 21:
; 5483 : 		for( iCount = 0; iCount < MAX_MAGIC; iCount++)

  00d0e	33 db		 xor	 ebx, ebx
  00d10	33 f6		 xor	 esi, esi
$LL96@SetItemMLP:

; 5484 : 		{
; 5485 : 			if( lpObj->Magic[iCount].IsMagic() == TRUE &&

  00d12	8b 8f a8 06 00
	00		 mov	 ecx, DWORD PTR [edi+1704]
  00d18	03 ce		 add	 ecx, esi
  00d1a	e8 00 00 00 00	 call	 ?IsMagic@CMagicInf@@QAEHXZ ; CMagicInf::IsMagic
  00d1f	83 f8 01	 cmp	 eax, 1
  00d22	75 10		 jne	 SHORT $LN94@SetItemMLP
  00d24	8b 87 a8 06 00
	00		 mov	 eax, DWORD PTR [edi+1704]
  00d2a	81 7c 06 08 77
	01 00 00	 cmp	 DWORD PTR [esi+eax+8], 375 ; 00000177H
  00d32	74 0e		 je	 SHORT $LN264@SetItemMLP
$LN94@SetItemMLP:

; 5475 : 				lpObj->Magic[iCount].m_Skill == 324 )
; 5476 : 			{
; 5477 : 				lpObj->m_MPSkillOpt.MpsWingAttackIncrease = this->GetMasterSkillValue(MagicDamageC.SkillGet(lpObj->Magic[iCount].m_Skill),lpObj->Magic[iCount].m_Level);
; 5478 : 				break;
; 5479 : 			}
; 5480 : 		}
; 5481 : 		break;
; 5482 : 	case 21:
; 5483 : 		for( iCount = 0; iCount < MAX_MAGIC; iCount++)

  00d34	83 c6 18	 add	 esi, 24			; 00000018H
  00d37	43		 inc	 ebx
  00d38	81 fe 10 0e 00
	00		 cmp	 esi, 3600		; 00000e10H
  00d3e	7c d2		 jl	 SHORT $LL96@SetItemMLP
  00d40	eb 28		 jmp	 SHORT $LN424@SetItemMLP
$LN264@SetItemMLP:

; 5486 : 				lpObj->Magic[iCount].m_Skill == 375 )
; 5487 : 			{
; 5488 : 				lpObj->m_MPSkillOpt.MpsWingDefenseIncrease = this->GetMasterSkillValue(MagicDamageC.SkillGet(lpObj->Magic[iCount].m_Skill),lpObj->Magic[iCount].m_Level);

  00d42	8b c8		 mov	 ecx, eax
  00d44	8d 14 5b	 lea	 edx, DWORD PTR [ebx+ebx*2]
  00d47	0f b6 44 d1 04	 movzx	 eax, BYTE PTR [ecx+edx*8+4]
  00d4c	50		 push	 eax
  00d4d	ff 74 d1 08	 push	 DWORD PTR [ecx+edx*8+8]
  00d51	b9 00 00 00 00	 mov	 ecx, OFFSET ?MagicDamageC@@3VCMagicDamage@@A ; MagicDamageC
  00d56	e8 00 00 00 00	 call	 ?SkillGet@CMagicDamage@@QAEHH@Z ; CMagicDamage::SkillGet
  00d5b	8b 4d fc	 mov	 ecx, DWORD PTR _this$1$[ebp]
  00d5e	50		 push	 eax
  00d5f	e8 00 00 00 00	 call	 ?GetMasterSkillValue@CMasterLevelSkillTreeSystem@@QAEMHH@Z ; CMasterLevelSkillTreeSystem::GetMasterSkillValue
  00d64	d9 9f 48 08 00
	00		 fstp	 DWORD PTR [edi+2120]
$LN424@SetItemMLP:

; 5489 : 				break;
; 5490 : 			}
; 5491 : 		}
; 5492 : 		for( iCount = 0; iCount < MAX_MAGIC; iCount++)

  00d6a	33 db		 xor	 ebx, ebx
  00d6c	33 f6		 xor	 esi, esi
  00d6e	66 90		 npad	 2
$LL99@SetItemMLP:

; 5493 : 		{
; 5494 : 			if( lpObj->Magic[iCount].IsMagic() == TRUE &&

  00d70	8b 8f a8 06 00
	00		 mov	 ecx, DWORD PTR [edi+1704]
  00d76	03 ce		 add	 ecx, esi
  00d78	e8 00 00 00 00	 call	 ?IsMagic@CMagicInf@@QAEHXZ ; CMagicInf::IsMagic
  00d7d	83 f8 01	 cmp	 eax, 1
  00d80	75 14		 jne	 SHORT $LN97@SetItemMLP
  00d82	8b 87 a8 06 00
	00		 mov	 eax, DWORD PTR [edi+1704]
  00d88	81 7c 06 08 79
	01 00 00	 cmp	 DWORD PTR [esi+eax+8], 377 ; 00000179H
  00d90	0f 84 91 02 00
	00		 je	 $LN273@SetItemMLP
$LN97@SetItemMLP:

; 5489 : 				break;
; 5490 : 			}
; 5491 : 		}
; 5492 : 		for( iCount = 0; iCount < MAX_MAGIC; iCount++)

  00d96	83 c6 18	 add	 esi, 24			; 00000018H
  00d99	43		 inc	 ebx
  00d9a	81 fe 10 0e 00
	00		 cmp	 esi, 3600		; 00000e10H
  00da0	7c ce		 jl	 SHORT $LL99@SetItemMLP
  00da2	5f		 pop	 edi
  00da3	5e		 pop	 esi
  00da4	5b		 pop	 ebx

; 5578 : 				break;
; 5579 : 			}
; 5580 : 		}
; 5581 : 		break;
; 5582 : 	}
; 5583 : }

  00da5	8b e5		 mov	 esp, ebp
  00da7	5d		 pop	 ebp
  00da8	c2 08 00	 ret	 8
$LN177@SetItemMLP:
  00dab	8b 7d 08	 mov	 edi, DWORD PTR _lpObj$[ebp]

; 5495 : 				lpObj->Magic[iCount].m_Skill == 377 )
; 5496 : 			{
; 5497 : 				lpObj->m_MPSkillOpt.MpsWingAttackIncrease = this->GetMasterSkillValue(MagicDamageC.SkillGet(lpObj->Magic[iCount].m_Skill),lpObj->Magic[iCount].m_Level);
; 5498 : 				break;
; 5499 : 			}
; 5500 : 		}
; 5501 : 		break;
; 5502 : 	case 22:
; 5503 : 		for( iCount = 0; iCount < MAX_MAGIC; iCount++)

  00dae	33 db		 xor	 ebx, ebx
  00db0	33 f6		 xor	 esi, esi
$LL102@SetItemMLP:

; 5504 : 		{
; 5505 : 			if( lpObj->Magic[iCount].IsMagic() == TRUE &&

  00db2	8b 8f a8 06 00
	00		 mov	 ecx, DWORD PTR [edi+1704]
  00db8	03 ce		 add	 ecx, esi
  00dba	e8 00 00 00 00	 call	 ?IsMagic@CMagicInf@@QAEHXZ ; CMagicInf::IsMagic
  00dbf	83 f8 01	 cmp	 eax, 1
  00dc2	75 10		 jne	 SHORT $LN100@SetItemMLP
  00dc4	8b 87 a8 06 00
	00		 mov	 eax, DWORD PTR [edi+1704]
  00dca	81 7c 06 08 9a
	01 00 00	 cmp	 DWORD PTR [esi+eax+8], 410 ; 0000019aH
  00dd2	74 0e		 je	 SHORT $LN266@SetItemMLP
$LN100@SetItemMLP:

; 5495 : 				lpObj->Magic[iCount].m_Skill == 377 )
; 5496 : 			{
; 5497 : 				lpObj->m_MPSkillOpt.MpsWingAttackIncrease = this->GetMasterSkillValue(MagicDamageC.SkillGet(lpObj->Magic[iCount].m_Skill),lpObj->Magic[iCount].m_Level);
; 5498 : 				break;
; 5499 : 			}
; 5500 : 		}
; 5501 : 		break;
; 5502 : 	case 22:
; 5503 : 		for( iCount = 0; iCount < MAX_MAGIC; iCount++)

  00dd4	83 c6 18	 add	 esi, 24			; 00000018H
  00dd7	43		 inc	 ebx
  00dd8	81 fe 10 0e 00
	00		 cmp	 esi, 3600		; 00000e10H
  00dde	7c d2		 jl	 SHORT $LL102@SetItemMLP
  00de0	eb 28		 jmp	 SHORT $LN426@SetItemMLP
$LN266@SetItemMLP:

; 5506 : 				lpObj->Magic[iCount].m_Skill == 410 )
; 5507 : 			{
; 5508 : 				lpObj->m_MPSkillOpt.MpsWingDefenseIncrease = this->GetMasterSkillValue(MagicDamageC.SkillGet(lpObj->Magic[iCount].m_Skill),lpObj->Magic[iCount].m_Level);

  00de2	8b c8		 mov	 ecx, eax
  00de4	8d 14 5b	 lea	 edx, DWORD PTR [ebx+ebx*2]
  00de7	0f b6 44 d1 04	 movzx	 eax, BYTE PTR [ecx+edx*8+4]
  00dec	50		 push	 eax
  00ded	ff 74 d1 08	 push	 DWORD PTR [ecx+edx*8+8]
  00df1	b9 00 00 00 00	 mov	 ecx, OFFSET ?MagicDamageC@@3VCMagicDamage@@A ; MagicDamageC
  00df6	e8 00 00 00 00	 call	 ?SkillGet@CMagicDamage@@QAEHH@Z ; CMagicDamage::SkillGet
  00dfb	8b 4d fc	 mov	 ecx, DWORD PTR _this$1$[ebp]
  00dfe	50		 push	 eax
  00dff	e8 00 00 00 00	 call	 ?GetMasterSkillValue@CMasterLevelSkillTreeSystem@@QAEMHH@Z ; CMasterLevelSkillTreeSystem::GetMasterSkillValue
  00e04	d9 9f 48 08 00
	00		 fstp	 DWORD PTR [edi+2120]
$LN426@SetItemMLP:

; 5509 : 				break;
; 5510 : 			}
; 5511 : 		}
; 5512 : 		for( iCount = 0; iCount < MAX_MAGIC; iCount++)

  00e0a	33 db		 xor	 ebx, ebx
  00e0c	33 f6		 xor	 esi, esi
  00e0e	66 90		 npad	 2
$LL105@SetItemMLP:

; 5513 : 		{
; 5514 : 			if( lpObj->Magic[iCount].IsMagic() == TRUE &&

  00e10	8b 8f a8 06 00
	00		 mov	 ecx, DWORD PTR [edi+1704]
  00e16	03 ce		 add	 ecx, esi
  00e18	e8 00 00 00 00	 call	 ?IsMagic@CMagicInf@@QAEHXZ ; CMagicInf::IsMagic
  00e1d	83 f8 01	 cmp	 eax, 1
  00e20	75 14		 jne	 SHORT $LN103@SetItemMLP
  00e22	8b 87 a8 06 00
	00		 mov	 eax, DWORD PTR [edi+1704]
  00e28	81 7c 06 08 9c
	01 00 00	 cmp	 DWORD PTR [esi+eax+8], 412 ; 0000019cH
  00e30	0f 84 f1 01 00
	00		 je	 $LN273@SetItemMLP
$LN103@SetItemMLP:

; 5509 : 				break;
; 5510 : 			}
; 5511 : 		}
; 5512 : 		for( iCount = 0; iCount < MAX_MAGIC; iCount++)

  00e36	83 c6 18	 add	 esi, 24			; 00000018H
  00e39	43		 inc	 ebx
  00e3a	81 fe 10 0e 00
	00		 cmp	 esi, 3600		; 00000e10H
  00e40	7c ce		 jl	 SHORT $LL105@SetItemMLP
  00e42	5f		 pop	 edi
  00e43	5e		 pop	 esi
  00e44	5b		 pop	 ebx

; 5578 : 				break;
; 5579 : 			}
; 5580 : 		}
; 5581 : 		break;
; 5582 : 	}
; 5583 : }

  00e45	8b e5		 mov	 esp, ebp
  00e47	5d		 pop	 ebp
  00e48	c2 08 00	 ret	 8
$LN180@SetItemMLP:
  00e4b	8b 7d 08	 mov	 edi, DWORD PTR _lpObj$[ebp]

; 5515 : 				lpObj->Magic[iCount].m_Skill == 412 )
; 5516 : 			{
; 5517 : 				lpObj->m_MPSkillOpt.MpsWingAttackIncrease = this->GetMasterSkillValue(MagicDamageC.SkillGet(lpObj->Magic[iCount].m_Skill),lpObj->Magic[iCount].m_Level);
; 5518 : 				break;
; 5519 : 			}
; 5520 : 		}
; 5521 : 		break;
; 5522 : 	case 23:
; 5523 : 		for( iCount = 0; iCount < MAX_MAGIC; iCount++)

  00e4e	33 db		 xor	 ebx, ebx
  00e50	33 f6		 xor	 esi, esi
$LL108@SetItemMLP:

; 5524 : 		{
; 5525 : 			if( lpObj->Magic[iCount].IsMagic() == TRUE &&

  00e52	8b 8f a8 06 00
	00		 mov	 ecx, DWORD PTR [edi+1704]
  00e58	03 ce		 add	 ecx, esi
  00e5a	e8 00 00 00 00	 call	 ?IsMagic@CMagicInf@@QAEHXZ ; CMagicInf::IsMagic
  00e5f	83 f8 01	 cmp	 eax, 1
  00e62	75 10		 jne	 SHORT $LN106@SetItemMLP
  00e64	8b 87 a8 06 00
	00		 mov	 eax, DWORD PTR [edi+1704]
  00e6a	81 7c 06 08 dc
	01 00 00	 cmp	 DWORD PTR [esi+eax+8], 476 ; 000001dcH
  00e72	74 0e		 je	 SHORT $LN268@SetItemMLP
$LN106@SetItemMLP:

; 5515 : 				lpObj->Magic[iCount].m_Skill == 412 )
; 5516 : 			{
; 5517 : 				lpObj->m_MPSkillOpt.MpsWingAttackIncrease = this->GetMasterSkillValue(MagicDamageC.SkillGet(lpObj->Magic[iCount].m_Skill),lpObj->Magic[iCount].m_Level);
; 5518 : 				break;
; 5519 : 			}
; 5520 : 		}
; 5521 : 		break;
; 5522 : 	case 23:
; 5523 : 		for( iCount = 0; iCount < MAX_MAGIC; iCount++)

  00e74	83 c6 18	 add	 esi, 24			; 00000018H
  00e77	43		 inc	 ebx
  00e78	81 fe 10 0e 00
	00		 cmp	 esi, 3600		; 00000e10H
  00e7e	7c d2		 jl	 SHORT $LL108@SetItemMLP
  00e80	eb 28		 jmp	 SHORT $LN428@SetItemMLP
$LN268@SetItemMLP:

; 5526 : 				lpObj->Magic[iCount].m_Skill == 476 )
; 5527 : 			{
; 5528 : 				lpObj->m_MPSkillOpt.MpsWingDefenseIncrease = this->GetMasterSkillValue(MagicDamageC.SkillGet(lpObj->Magic[iCount].m_Skill),lpObj->Magic[iCount].m_Level);

  00e82	8b c8		 mov	 ecx, eax
  00e84	8d 14 5b	 lea	 edx, DWORD PTR [ebx+ebx*2]
  00e87	0f b6 44 d1 04	 movzx	 eax, BYTE PTR [ecx+edx*8+4]
  00e8c	50		 push	 eax
  00e8d	ff 74 d1 08	 push	 DWORD PTR [ecx+edx*8+8]
  00e91	b9 00 00 00 00	 mov	 ecx, OFFSET ?MagicDamageC@@3VCMagicDamage@@A ; MagicDamageC
  00e96	e8 00 00 00 00	 call	 ?SkillGet@CMagicDamage@@QAEHH@Z ; CMagicDamage::SkillGet
  00e9b	8b 4d fc	 mov	 ecx, DWORD PTR _this$1$[ebp]
  00e9e	50		 push	 eax
  00e9f	e8 00 00 00 00	 call	 ?GetMasterSkillValue@CMasterLevelSkillTreeSystem@@QAEMHH@Z ; CMasterLevelSkillTreeSystem::GetMasterSkillValue
  00ea4	d9 9f 48 08 00
	00		 fstp	 DWORD PTR [edi+2120]
$LN428@SetItemMLP:

; 5529 : 				break;
; 5530 : 			}
; 5531 : 		}
; 5532 : 		for( iCount = 0; iCount < MAX_MAGIC; iCount++)

  00eaa	33 db		 xor	 ebx, ebx
  00eac	33 f6		 xor	 esi, esi
  00eae	66 90		 npad	 2
$LL111@SetItemMLP:

; 5533 : 		{
; 5534 : 			if( lpObj->Magic[iCount].IsMagic() == TRUE &&

  00eb0	8b 8f a8 06 00
	00		 mov	 ecx, DWORD PTR [edi+1704]
  00eb6	03 ce		 add	 ecx, esi
  00eb8	e8 00 00 00 00	 call	 ?IsMagic@CMagicInf@@QAEHXZ ; CMagicInf::IsMagic
  00ebd	83 f8 01	 cmp	 eax, 1
  00ec0	75 14		 jne	 SHORT $LN109@SetItemMLP
  00ec2	8b 87 a8 06 00
	00		 mov	 eax, DWORD PTR [edi+1704]
  00ec8	81 7c 06 08 de
	01 00 00	 cmp	 DWORD PTR [esi+eax+8], 478 ; 000001deH
  00ed0	0f 84 51 01 00
	00		 je	 $LN273@SetItemMLP
$LN109@SetItemMLP:

; 5529 : 				break;
; 5530 : 			}
; 5531 : 		}
; 5532 : 		for( iCount = 0; iCount < MAX_MAGIC; iCount++)

  00ed6	83 c6 18	 add	 esi, 24			; 00000018H
  00ed9	43		 inc	 ebx
  00eda	81 fe 10 0e 00
	00		 cmp	 esi, 3600		; 00000e10H
  00ee0	7c ce		 jl	 SHORT $LL111@SetItemMLP
  00ee2	5f		 pop	 edi
  00ee3	5e		 pop	 esi
  00ee4	5b		 pop	 ebx

; 5578 : 				break;
; 5579 : 			}
; 5580 : 		}
; 5581 : 		break;
; 5582 : 	}
; 5583 : }

  00ee5	8b e5		 mov	 esp, ebp
  00ee7	5d		 pop	 ebp
  00ee8	c2 08 00	 ret	 8
$LN183@SetItemMLP:
  00eeb	8b 7d 08	 mov	 edi, DWORD PTR _lpObj$[ebp]

; 5535 : 				lpObj->Magic[iCount].m_Skill == 478 )
; 5536 : 			{
; 5537 : 				lpObj->m_MPSkillOpt.MpsWingAttackIncrease = this->GetMasterSkillValue(MagicDamageC.SkillGet(lpObj->Magic[iCount].m_Skill),lpObj->Magic[iCount].m_Level);
; 5538 : 				break;
; 5539 : 			}
; 5540 : 		}
; 5541 : 		break;
; 5542 : 	case 24:
; 5543 : 		for( iCount = 0; iCount < MAX_MAGIC; iCount++)

  00eee	33 db		 xor	 ebx, ebx
  00ef0	33 f6		 xor	 esi, esi
$LL114@SetItemMLP:

; 5544 : 		{
; 5545 : 			if( lpObj->Magic[iCount].IsMagic() == TRUE &&

  00ef2	8b 8f a8 06 00
	00		 mov	 ecx, DWORD PTR [edi+1704]
  00ef8	03 ce		 add	 ecx, esi
  00efa	e8 00 00 00 00	 call	 ?IsMagic@CMagicInf@@QAEHXZ ; CMagicInf::IsMagic
  00eff	83 f8 01	 cmp	 eax, 1
  00f02	75 10		 jne	 SHORT $LN112@SetItemMLP
  00f04	8b 87 a8 06 00
	00		 mov	 eax, DWORD PTR [edi+1704]
  00f0a	81 7c 06 08 f9
	01 00 00	 cmp	 DWORD PTR [esi+eax+8], 505 ; 000001f9H
  00f12	74 0e		 je	 SHORT $LN270@SetItemMLP
$LN112@SetItemMLP:

; 5535 : 				lpObj->Magic[iCount].m_Skill == 478 )
; 5536 : 			{
; 5537 : 				lpObj->m_MPSkillOpt.MpsWingAttackIncrease = this->GetMasterSkillValue(MagicDamageC.SkillGet(lpObj->Magic[iCount].m_Skill),lpObj->Magic[iCount].m_Level);
; 5538 : 				break;
; 5539 : 			}
; 5540 : 		}
; 5541 : 		break;
; 5542 : 	case 24:
; 5543 : 		for( iCount = 0; iCount < MAX_MAGIC; iCount++)

  00f14	83 c6 18	 add	 esi, 24			; 00000018H
  00f17	43		 inc	 ebx
  00f18	81 fe 10 0e 00
	00		 cmp	 esi, 3600		; 00000e10H
  00f1e	7c d2		 jl	 SHORT $LL114@SetItemMLP
  00f20	eb 28		 jmp	 SHORT $LN430@SetItemMLP
$LN270@SetItemMLP:

; 5546 : 				lpObj->Magic[iCount].m_Skill == 505 )
; 5547 : 			{
; 5548 : 				lpObj->m_MPSkillOpt.MpsWingDefenseIncrease = this->GetMasterSkillValue(MagicDamageC.SkillGet(lpObj->Magic[iCount].m_Skill),lpObj->Magic[iCount].m_Level);

  00f22	8b c8		 mov	 ecx, eax
  00f24	8d 14 5b	 lea	 edx, DWORD PTR [ebx+ebx*2]
  00f27	0f b6 44 d1 04	 movzx	 eax, BYTE PTR [ecx+edx*8+4]
  00f2c	50		 push	 eax
  00f2d	ff 74 d1 08	 push	 DWORD PTR [ecx+edx*8+8]
  00f31	b9 00 00 00 00	 mov	 ecx, OFFSET ?MagicDamageC@@3VCMagicDamage@@A ; MagicDamageC
  00f36	e8 00 00 00 00	 call	 ?SkillGet@CMagicDamage@@QAEHH@Z ; CMagicDamage::SkillGet
  00f3b	8b 4d fc	 mov	 ecx, DWORD PTR _this$1$[ebp]
  00f3e	50		 push	 eax
  00f3f	e8 00 00 00 00	 call	 ?GetMasterSkillValue@CMasterLevelSkillTreeSystem@@QAEMHH@Z ; CMasterLevelSkillTreeSystem::GetMasterSkillValue
  00f44	d9 9f 48 08 00
	00		 fstp	 DWORD PTR [edi+2120]
$LN430@SetItemMLP:

; 5549 : 				break;
; 5550 : 			}
; 5551 : 		}
; 5552 : 		for( iCount = 0; iCount < MAX_MAGIC; iCount++)

  00f4a	33 db		 xor	 ebx, ebx
  00f4c	33 f6		 xor	 esi, esi
  00f4e	66 90		 npad	 2
$LL117@SetItemMLP:

; 5553 : 		{
; 5554 : 			if( lpObj->Magic[iCount].IsMagic() == TRUE &&

  00f50	8b 8f a8 06 00
	00		 mov	 ecx, DWORD PTR [edi+1704]
  00f56	03 ce		 add	 ecx, esi
  00f58	e8 00 00 00 00	 call	 ?IsMagic@CMagicInf@@QAEHXZ ; CMagicInf::IsMagic
  00f5d	83 f8 01	 cmp	 eax, 1
  00f60	75 14		 jne	 SHORT $LN115@SetItemMLP
  00f62	8b 87 a8 06 00
	00		 mov	 eax, DWORD PTR [edi+1704]
  00f68	81 7c 06 08 fb
	01 00 00	 cmp	 DWORD PTR [esi+eax+8], 507 ; 000001fbH
  00f70	0f 84 b1 00 00
	00		 je	 $LN273@SetItemMLP
$LN115@SetItemMLP:

; 5549 : 				break;
; 5550 : 			}
; 5551 : 		}
; 5552 : 		for( iCount = 0; iCount < MAX_MAGIC; iCount++)

  00f76	83 c6 18	 add	 esi, 24			; 00000018H
  00f79	43		 inc	 ebx
  00f7a	81 fe 10 0e 00
	00		 cmp	 esi, 3600		; 00000e10H
  00f80	7c ce		 jl	 SHORT $LL117@SetItemMLP
  00f82	5f		 pop	 edi
  00f83	5e		 pop	 esi
  00f84	5b		 pop	 ebx

; 5578 : 				break;
; 5579 : 			}
; 5580 : 		}
; 5581 : 		break;
; 5582 : 	}
; 5583 : }

  00f85	8b e5		 mov	 esp, ebp
  00f87	5d		 pop	 ebp
  00f88	c2 08 00	 ret	 8
$LN186@SetItemMLP:
  00f8b	8b 7d 08	 mov	 edi, DWORD PTR _lpObj$[ebp]

; 5555 : 				lpObj->Magic[iCount].m_Skill == 507 )
; 5556 : 			{
; 5557 : 				lpObj->m_MPSkillOpt.MpsWingAttackIncrease = this->GetMasterSkillValue(MagicDamageC.SkillGet(lpObj->Magic[iCount].m_Skill),lpObj->Magic[iCount].m_Level);
; 5558 : 				break;
; 5559 : 			}
; 5560 : 		}
; 5561 : 		break;
; 5562 : 	case 25:
; 5563 : 		for( iCount = 0; iCount < MAX_MAGIC; iCount++)

  00f8e	33 db		 xor	 ebx, ebx
  00f90	33 f6		 xor	 esi, esi
$LL120@SetItemMLP:

; 5564 : 		{
; 5565 : 			if( lpObj->Magic[iCount].IsMagic() == TRUE &&

  00f92	8b 8f a8 06 00
	00		 mov	 ecx, DWORD PTR [edi+1704]
  00f98	03 ce		 add	 ecx, esi
  00f9a	e8 00 00 00 00	 call	 ?IsMagic@CMagicInf@@QAEHXZ ; CMagicInf::IsMagic
  00f9f	83 f8 01	 cmp	 eax, 1
  00fa2	75 10		 jne	 SHORT $LN118@SetItemMLP
  00fa4	8b 87 a8 06 00
	00		 mov	 eax, DWORD PTR [edi+1704]
  00faa	81 7c 06 08 be
	01 00 00	 cmp	 DWORD PTR [esi+eax+8], 446 ; 000001beH
  00fb2	74 0e		 je	 SHORT $LN272@SetItemMLP
$LN118@SetItemMLP:

; 5555 : 				lpObj->Magic[iCount].m_Skill == 507 )
; 5556 : 			{
; 5557 : 				lpObj->m_MPSkillOpt.MpsWingAttackIncrease = this->GetMasterSkillValue(MagicDamageC.SkillGet(lpObj->Magic[iCount].m_Skill),lpObj->Magic[iCount].m_Level);
; 5558 : 				break;
; 5559 : 			}
; 5560 : 		}
; 5561 : 		break;
; 5562 : 	case 25:
; 5563 : 		for( iCount = 0; iCount < MAX_MAGIC; iCount++)

  00fb4	83 c6 18	 add	 esi, 24			; 00000018H
  00fb7	43		 inc	 ebx
  00fb8	81 fe 10 0e 00
	00		 cmp	 esi, 3600		; 00000e10H
  00fbe	7c d2		 jl	 SHORT $LL120@SetItemMLP
  00fc0	eb 28		 jmp	 SHORT $LN432@SetItemMLP
$LN272@SetItemMLP:

; 5566 : 				lpObj->Magic[iCount].m_Skill == 446 )
; 5567 : 			{
; 5568 : 				lpObj->m_MPSkillOpt.MpsWingDefenseIncrease = this->GetMasterSkillValue(MagicDamageC.SkillGet(lpObj->Magic[iCount].m_Skill),lpObj->Magic[iCount].m_Level);

  00fc2	8b c8		 mov	 ecx, eax
  00fc4	8d 14 5b	 lea	 edx, DWORD PTR [ebx+ebx*2]
  00fc7	0f b6 44 d1 04	 movzx	 eax, BYTE PTR [ecx+edx*8+4]
  00fcc	50		 push	 eax
  00fcd	ff 74 d1 08	 push	 DWORD PTR [ecx+edx*8+8]
  00fd1	b9 00 00 00 00	 mov	 ecx, OFFSET ?MagicDamageC@@3VCMagicDamage@@A ; MagicDamageC
  00fd6	e8 00 00 00 00	 call	 ?SkillGet@CMagicDamage@@QAEHH@Z ; CMagicDamage::SkillGet
  00fdb	8b 4d fc	 mov	 ecx, DWORD PTR _this$1$[ebp]
  00fde	50		 push	 eax
  00fdf	e8 00 00 00 00	 call	 ?GetMasterSkillValue@CMasterLevelSkillTreeSystem@@QAEMHH@Z ; CMasterLevelSkillTreeSystem::GetMasterSkillValue
  00fe4	d9 9f 48 08 00
	00		 fstp	 DWORD PTR [edi+2120]
$LN432@SetItemMLP:

; 5569 : 				break;
; 5570 : 			}
; 5571 : 		}
; 5572 : 		for( iCount = 0; iCount < MAX_MAGIC; iCount++)

  00fea	33 db		 xor	 ebx, ebx
  00fec	33 f6		 xor	 esi, esi
  00fee	66 90		 npad	 2
$LL123@SetItemMLP:

; 5573 : 		{
; 5574 : 			if( lpObj->Magic[iCount].IsMagic() == TRUE &&

  00ff0	8b 8f a8 06 00
	00		 mov	 ecx, DWORD PTR [edi+1704]
  00ff6	03 ce		 add	 ecx, esi
  00ff8	e8 00 00 00 00	 call	 ?IsMagic@CMagicInf@@QAEHXZ ; CMagicInf::IsMagic
  00ffd	83 f8 01	 cmp	 eax, 1
  01000	75 10		 jne	 SHORT $LN121@SetItemMLP
  01002	8b 87 a8 06 00
	00		 mov	 eax, DWORD PTR [edi+1704]
  01008	81 7c 06 08 bf
	01 00 00	 cmp	 DWORD PTR [esi+eax+8], 447 ; 000001bfH
  01010	74 15		 je	 SHORT $LN273@SetItemMLP
$LN121@SetItemMLP:

; 5569 : 				break;
; 5570 : 			}
; 5571 : 		}
; 5572 : 		for( iCount = 0; iCount < MAX_MAGIC; iCount++)

  01012	83 c6 18	 add	 esi, 24			; 00000018H
  01015	43		 inc	 ebx
  01016	81 fe 10 0e 00
	00		 cmp	 esi, 3600		; 00000e10H
  0101c	7c d2		 jl	 SHORT $LL123@SetItemMLP
  0101e	5f		 pop	 edi
  0101f	5e		 pop	 esi
  01020	5b		 pop	 ebx

; 5578 : 				break;
; 5579 : 			}
; 5580 : 		}
; 5581 : 		break;
; 5582 : 	}
; 5583 : }

  01021	8b e5		 mov	 esp, ebp
  01023	5d		 pop	 ebp
  01024	c2 08 00	 ret	 8
$LN273@SetItemMLP:

; 5575 : 				lpObj->Magic[iCount].m_Skill == 447 )
; 5576 : 			{
; 5577 : 				lpObj->m_MPSkillOpt.MpsWingAttackIncrease = this->GetMasterSkillValue(MagicDamageC.SkillGet(lpObj->Magic[iCount].m_Skill),lpObj->Magic[iCount].m_Level);

  01027	8b c8		 mov	 ecx, eax
  01029	8d 14 5b	 lea	 edx, DWORD PTR [ebx+ebx*2]
  0102c	0f b6 44 d1 04	 movzx	 eax, BYTE PTR [ecx+edx*8+4]
  01031	50		 push	 eax
  01032	ff 74 d1 08	 push	 DWORD PTR [ecx+edx*8+8]
  01036	b9 00 00 00 00	 mov	 ecx, OFFSET ?MagicDamageC@@3VCMagicDamage@@A ; MagicDamageC
  0103b	e8 00 00 00 00	 call	 ?SkillGet@CMagicDamage@@QAEHH@Z ; CMagicDamage::SkillGet
  01040	8b 4d fc	 mov	 ecx, DWORD PTR _this$1$[ebp]
  01043	50		 push	 eax
  01044	e8 00 00 00 00	 call	 ?GetMasterSkillValue@CMasterLevelSkillTreeSystem@@QAEMHH@Z ; CMasterLevelSkillTreeSystem::GetMasterSkillValue
  01049	d9 9f 4c 08 00
	00		 fstp	 DWORD PTR [edi+2124]
$LN434@SetItemMLP:
  0104f	5f		 pop	 edi
  01050	5e		 pop	 esi
  01051	5b		 pop	 ebx
$LN433@SetItemMLP:

; 5578 : 				break;
; 5579 : 			}
; 5580 : 		}
; 5581 : 		break;
; 5582 : 	}
; 5583 : }

  01052	8b e5		 mov	 esp, ebp
  01054	5d		 pop	 ebp
  01055	c2 08 00	 ret	 8
$LN439@SetItemMLP:
  01058	00 00 00 00	 DD	 $LN124@SetItemMLP
  0105c	00 00 00 00	 DD	 $LN127@SetItemMLP
  01060	00 00 00 00	 DD	 $LN130@SetItemMLP
  01064	00 00 00 00	 DD	 $LN133@SetItemMLP
  01068	00 00 00 00	 DD	 $LN136@SetItemMLP
  0106c	00 00 00 00	 DD	 $LN139@SetItemMLP
  01070	00 00 00 00	 DD	 $LN142@SetItemMLP
  01074	00 00 00 00	 DD	 $LN151@SetItemMLP
  01078	00 00 00 00	 DD	 $LN154@SetItemMLP
  0107c	00 00 00 00	 DD	 $LN157@SetItemMLP
  01080	00 00 00 00	 DD	 $LN160@SetItemMLP
  01084	00 00 00 00	 DD	 $LN163@SetItemMLP
  01088	00 00 00 00	 DD	 $LN168@SetItemMLP
  0108c	00 00 00 00	 DD	 $LN434@SetItemMLP
  01090	00 00 00 00	 DD	 $LN434@SetItemMLP
  01094	00 00 00 00	 DD	 $LN434@SetItemMLP
  01098	00 00 00 00	 DD	 $LN434@SetItemMLP
  0109c	00 00 00 00	 DD	 $LN434@SetItemMLP
  010a0	00 00 00 00	 DD	 $LN434@SetItemMLP
  010a4	00 00 00 00	 DD	 $LN434@SetItemMLP
  010a8	00 00 00 00	 DD	 $LN171@SetItemMLP
  010ac	00 00 00 00	 DD	 $LN174@SetItemMLP
  010b0	00 00 00 00	 DD	 $LN177@SetItemMLP
  010b4	00 00 00 00	 DD	 $LN180@SetItemMLP
  010b8	00 00 00 00	 DD	 $LN183@SetItemMLP
  010bc	00 00 00 00	 DD	 $LN186@SetItemMLP
?SetItemMLPassiveSkill@CMasterLevelSkillTreeSystem@@QAEXPAUOBJECTSTRUCT@@H@Z ENDP ; CMasterLevelSkillTreeSystem::SetItemMLPassiveSkill
_TEXT	ENDS
; Function compile flags: /Ogtp
; File c:\users\michel\desktop\source\gameserver\source\masterlevelskilltreesystem.cpp
;	COMDAT ?GetParentSkill2@CMasterLevelSkillTreeSystem@@QAEHHH@Z
_TEXT	SEGMENT
_this$1$ = -8						; size = 4
tv371 = -4						; size = 4
tv366 = 8						; size = 4
_iClass$ = 8						; size = 4
_iSkill$ = 12						; size = 4
?GetParentSkill2@CMasterLevelSkillTreeSystem@@QAEHHH@Z PROC ; CMasterLevelSkillTreeSystem::GetParentSkill2, COMDAT
; _this$ = ecx

; 5118 : {

  00000	55		 push	 ebp
  00001	8b ec		 mov	 ebp, esp
  00003	83 ec 08	 sub	 esp, 8

; 5119 : 	int nReturn = 0;
; 5120 : 
; 5121 : 	for(int iTreeKind = 0; iTreeKind < MAX_SKILLTREE_TYPE; iTreeKind++)

  00006	8b 55 0c	 mov	 edx, DWORD PTR _iSkill$[ebp]
  00009	8b c1		 mov	 eax, ecx
  0000b	69 4d 08 74 08
	00 00		 imul	 ecx, DWORD PTR _iClass$[ebp], 2164
  00012	53		 push	 ebx
  00013	89 45 f8	 mov	 DWORD PTR _this$1$[ebp], eax
  00016	33 db		 xor	 ebx, ebx
  00018	83 c0 18	 add	 eax, 24			; 00000018H
  0001b	56		 push	 esi
  0001c	03 c1		 add	 eax, ecx
  0001e	89 4d fc	 mov	 DWORD PTR tv371[ebp], ecx
  00021	57		 push	 edi
  00022	89 45 08	 mov	 DWORD PTR tv366[ebp], eax
$LL4@GetParentS:

; 5122 : 	{
; 5123 : 		for(int iRank = 0; iRank < MAX_SKILLTREE_RANK; iRank++)

  00025	33 f6		 xor	 esi, esi
  00027	8b f8		 mov	 edi, eax
  00029	0f 1f 80 00 00
	00 00		 npad	 7
$LL7@GetParentS:

; 5124 : 		{
; 5125 : 			for(int iPos = 0; iPos < MAX_SKILLTREE_POS; iPos++)

  00030	33 c9		 xor	 ecx, ecx
  00032	8b c7		 mov	 eax, edi
$LL10@GetParentS:

; 5126 : 			{
; 5127 : 				if( this->m_SkillTreeData[iClass].m_SkillInfo[iTreeKind][iRank][iPos].m_iSkillID == iSkill )

  00034	39 10		 cmp	 DWORD PTR [eax], edx
  00036	74 2e		 je	 SHORT $LN16@GetParentS

; 5124 : 		{
; 5125 : 			for(int iPos = 0; iPos < MAX_SKILLTREE_POS; iPos++)

  00038	41		 inc	 ecx
  00039	83 c0 14	 add	 eax, 20			; 00000014H
  0003c	83 f9 04	 cmp	 ecx, 4
  0003f	7c f3		 jl	 SHORT $LL10@GetParentS

; 5122 : 	{
; 5123 : 		for(int iRank = 0; iRank < MAX_SKILLTREE_RANK; iRank++)

  00041	46		 inc	 esi
  00042	83 c7 50	 add	 edi, 80			; 00000050H
  00045	83 fe 09	 cmp	 esi, 9
  00048	7c e6		 jl	 SHORT $LL7@GetParentS

; 5119 : 	int nReturn = 0;
; 5120 : 
; 5121 : 	for(int iTreeKind = 0; iTreeKind < MAX_SKILLTREE_TYPE; iTreeKind++)

  0004a	8b 45 08	 mov	 eax, DWORD PTR tv366[ebp]
  0004d	43		 inc	 ebx
  0004e	05 d0 02 00 00	 add	 eax, 720		; 000002d0H
  00053	89 45 08	 mov	 DWORD PTR tv366[ebp], eax
  00056	83 fb 03	 cmp	 ebx, 3
  00059	7c ca		 jl	 SHORT $LL4@GetParentS

; 5131 : 				}
; 5132 : 			}
; 5133 : 		}
; 5134 : 	}
; 5135 : 
; 5136 : 	return nReturn;

  0005b	5f		 pop	 edi
  0005c	5e		 pop	 esi
  0005d	33 c0		 xor	 eax, eax
  0005f	5b		 pop	 ebx

; 5137 : }

  00060	8b e5		 mov	 esp, ebp
  00062	5d		 pop	 ebp
  00063	c2 08 00	 ret	 8
$LN16@GetParentS:

; 5128 : 				{
; 5129 : 					nReturn = this->m_SkillTreeData[iClass].m_SkillInfo[iTreeKind][iRank][iPos].m_iParentSkill2;
; 5130 : 					return nReturn;

  00066	8d 04 de	 lea	 eax, DWORD PTR [esi+ebx*8]
  00069	03 c3		 add	 eax, ebx
  0006b	5f		 pop	 edi
  0006c	5e		 pop	 esi
  0006d	5b		 pop	 ebx
  0006e	8d 04 85 01 00
	00 00		 lea	 eax, DWORD PTR [eax*4+1]
  00075	03 c1		 add	 eax, ecx
  00077	8b 4d fc	 mov	 ecx, DWORD PTR tv371[ebp]
  0007a	8d 04 80	 lea	 eax, DWORD PTR [eax+eax*4]
  0007d	8d 04 81	 lea	 eax, DWORD PTR [ecx+eax*4]
  00080	8b 4d f8	 mov	 ecx, DWORD PTR _this$1$[ebp]
  00083	8b 04 08	 mov	 eax, DWORD PTR [eax+ecx]

; 5137 : }

  00086	8b e5		 mov	 esp, ebp
  00088	5d		 pop	 ebp
  00089	c2 08 00	 ret	 8
?GetParentSkill2@CMasterLevelSkillTreeSystem@@QAEHHH@Z ENDP ; CMasterLevelSkillTreeSystem::GetParentSkill2
_TEXT	ENDS
; Function compile flags: /Ogtp
; File c:\users\michel\desktop\source\gameserver\source\masterlevelskilltreesystem.cpp
;	COMDAT ?GetParentSkill1@CMasterLevelSkillTreeSystem@@QAEHHH@Z
_TEXT	SEGMENT
_this$1$ = -8						; size = 4
tv372 = -4						; size = 4
tv368 = 8						; size = 4
_iClass$ = 8						; size = 4
_iSkill$ = 12						; size = 4
?GetParentSkill1@CMasterLevelSkillTreeSystem@@QAEHHH@Z PROC ; CMasterLevelSkillTreeSystem::GetParentSkill1, COMDAT
; _this$ = ecx

; 5096 : {

  00000	55		 push	 ebp
  00001	8b ec		 mov	 ebp, esp
  00003	83 ec 08	 sub	 esp, 8

; 5097 : 	int nReturn = 0;
; 5098 : 
; 5099 : 	for(int iTreeKind = 0; iTreeKind < MAX_SKILLTREE_TYPE; iTreeKind++)

  00006	8b 55 0c	 mov	 edx, DWORD PTR _iSkill$[ebp]
  00009	8b c1		 mov	 eax, ecx
  0000b	69 4d 08 74 08
	00 00		 imul	 ecx, DWORD PTR _iClass$[ebp], 2164
  00012	53		 push	 ebx
  00013	89 45 f8	 mov	 DWORD PTR _this$1$[ebp], eax
  00016	33 db		 xor	 ebx, ebx
  00018	83 c0 18	 add	 eax, 24			; 00000018H
  0001b	56		 push	 esi
  0001c	03 c1		 add	 eax, ecx
  0001e	89 4d fc	 mov	 DWORD PTR tv372[ebp], ecx
  00021	57		 push	 edi
  00022	89 45 08	 mov	 DWORD PTR tv368[ebp], eax
$LL4@GetParentS:

; 5100 : 	{
; 5101 : 		for(int iRank = 0; iRank < MAX_SKILLTREE_RANK; iRank++)

  00025	33 f6		 xor	 esi, esi
  00027	8b f8		 mov	 edi, eax
  00029	0f 1f 80 00 00
	00 00		 npad	 7
$LL7@GetParentS:

; 5102 : 		{
; 5103 : 			for(int iPos = 0; iPos < MAX_SKILLTREE_POS; iPos++)

  00030	33 c9		 xor	 ecx, ecx
  00032	8b c7		 mov	 eax, edi
$LL10@GetParentS:

; 5104 : 			{
; 5105 : 				if( this->m_SkillTreeData[iClass].m_SkillInfo[iTreeKind][iRank][iPos].m_iSkillID == iSkill )

  00034	39 10		 cmp	 DWORD PTR [eax], edx
  00036	74 2e		 je	 SHORT $LN16@GetParentS

; 5102 : 		{
; 5103 : 			for(int iPos = 0; iPos < MAX_SKILLTREE_POS; iPos++)

  00038	41		 inc	 ecx
  00039	83 c0 14	 add	 eax, 20			; 00000014H
  0003c	83 f9 04	 cmp	 ecx, 4
  0003f	7c f3		 jl	 SHORT $LL10@GetParentS

; 5100 : 	{
; 5101 : 		for(int iRank = 0; iRank < MAX_SKILLTREE_RANK; iRank++)

  00041	46		 inc	 esi
  00042	83 c7 50	 add	 edi, 80			; 00000050H
  00045	83 fe 09	 cmp	 esi, 9
  00048	7c e6		 jl	 SHORT $LL7@GetParentS

; 5097 : 	int nReturn = 0;
; 5098 : 
; 5099 : 	for(int iTreeKind = 0; iTreeKind < MAX_SKILLTREE_TYPE; iTreeKind++)

  0004a	8b 45 08	 mov	 eax, DWORD PTR tv368[ebp]
  0004d	43		 inc	 ebx
  0004e	05 d0 02 00 00	 add	 eax, 720		; 000002d0H
  00053	89 45 08	 mov	 DWORD PTR tv368[ebp], eax
  00056	83 fb 03	 cmp	 ebx, 3
  00059	7c ca		 jl	 SHORT $LL4@GetParentS

; 5109 : 				}
; 5110 : 			}
; 5111 : 		}
; 5112 : 	}
; 5113 : 
; 5114 : 	return nReturn;

  0005b	5f		 pop	 edi
  0005c	5e		 pop	 esi
  0005d	33 c0		 xor	 eax, eax
  0005f	5b		 pop	 ebx

; 5115 : }

  00060	8b e5		 mov	 esp, ebp
  00062	5d		 pop	 ebp
  00063	c2 08 00	 ret	 8
$LN16@GetParentS:

; 5106 : 				{
; 5107 : 					nReturn = this->m_SkillTreeData[iClass].m_SkillInfo[iTreeKind][iRank][iPos].m_iParentSkill1;
; 5108 : 					return nReturn;

  00066	8d 04 de	 lea	 eax, DWORD PTR [esi+ebx*8]
  00069	03 c3		 add	 eax, ebx
  0006b	5f		 pop	 edi
  0006c	5e		 pop	 esi
  0006d	5b		 pop	 ebx
  0006e	8d 04 81	 lea	 eax, DWORD PTR [ecx+eax*4]
  00071	8b 4d fc	 mov	 ecx, DWORD PTR tv372[ebp]
  00074	8d 04 80	 lea	 eax, DWORD PTR [eax+eax*4]
  00077	8d 04 81	 lea	 eax, DWORD PTR [ecx+eax*4]
  0007a	8b 4d f8	 mov	 ecx, DWORD PTR _this$1$[ebp]
  0007d	8b 44 08 10	 mov	 eax, DWORD PTR [eax+ecx+16]

; 5115 : }

  00081	8b e5		 mov	 esp, ebp
  00083	5d		 pop	 ebp
  00084	c2 08 00	 ret	 8
?GetParentSkill1@CMasterLevelSkillTreeSystem@@QAEHHH@Z ENDP ; CMasterLevelSkillTreeSystem::GetParentSkill1
_TEXT	ENDS
; Function compile flags: /Ogtp
; File c:\users\michel\desktop\source\gameserver\source\masterlevelskilltreesystem.cpp
;	COMDAT ?GetMasterSkillUIIndex@CMasterLevelSkillTreeSystem@@QAEHHH@Z
_TEXT	SEGMENT
_this$1$ = -4						; size = 4
tv382 = 8						; size = 4
_iClass$ = 8						; size = 4
tv386 = 12						; size = 4
_iSkill$ = 12						; size = 4
?GetMasterSkillUIIndex@CMasterLevelSkillTreeSystem@@QAEHHH@Z PROC ; CMasterLevelSkillTreeSystem::GetMasterSkillUIIndex, COMDAT
; _this$ = ecx

; 5062 : {

  00000	55		 push	 ebp
  00001	8b ec		 mov	 ebp, esp
  00003	51		 push	 ecx

; 5063 : 	if( iClass < CLASS_WIZARD || iClass > CLASS_FIGHTER )

  00004	8b 45 08	 mov	 eax, DWORD PTR _iClass$[ebp]
  00007	89 4d fc	 mov	 DWORD PTR _this$1$[ebp], ecx
  0000a	83 f8 06	 cmp	 eax, 6
  0000d	0f 87 99 00 00
	00		 ja	 $LN12@GetMasterS

; 5067 : 	}
; 5068 : 
; 5069 : 	if( iSkill < 0 || iSkill > MAX_SKILL-1 )

  00013	8b 55 0c	 mov	 edx, DWORD PTR _iSkill$[ebp]
  00016	81 fa 89 02 00
	00		 cmp	 edx, 649		; 00000289H
  0001c	77 76		 ja	 SHORT $LN14@GetMasterS

; 5073 : 	}
; 5074 : 
; 5075 : 	int nReturn = -1;
; 5076 : 
; 5077 : 	for(int iTreeKind = 0; iTreeKind < MAX_SKILLTREE_TYPE; iTreeKind++)

  0001e	69 c0 74 08 00
	00		 imul	 eax, eax, 2164
  00024	53		 push	 ebx
  00025	33 db		 xor	 ebx, ebx
  00027	56		 push	 esi
  00028	57		 push	 edi
  00029	89 45 0c	 mov	 DWORD PTR tv386[ebp], eax
  0002c	83 c0 18	 add	 eax, 24			; 00000018H
  0002f	03 c1		 add	 eax, ecx
  00031	89 45 08	 mov	 DWORD PTR tv382[ebp], eax
$LL4@GetMasterS:

; 5078 : 	{
; 5079 : 		for(int iRank = 0; iRank < MAX_SKILLTREE_RANK; iRank++)

  00034	33 f6		 xor	 esi, esi
  00036	8b f8		 mov	 edi, eax
$LL7@GetMasterS:

; 5080 : 		{
; 5081 : 			for(int iPos = 0; iPos < MAX_SKILLTREE_POS; iPos++)

  00038	33 c9		 xor	 ecx, ecx
  0003a	8b c7		 mov	 eax, edi
  0003c	0f 1f 40 00	 npad	 4
$LL10@GetMasterS:

; 5082 : 			{
; 5083 : 				if( this->m_SkillTreeData[iClass].m_SkillInfo[iTreeKind][iRank][iPos].m_iSkillID == iSkill )

  00040	39 10		 cmp	 DWORD PTR [eax], edx
  00042	74 2f		 je	 SHORT $LN20@GetMasterS

; 5080 : 		{
; 5081 : 			for(int iPos = 0; iPos < MAX_SKILLTREE_POS; iPos++)

  00044	41		 inc	 ecx
  00045	83 c0 14	 add	 eax, 20			; 00000014H
  00048	83 f9 04	 cmp	 ecx, 4
  0004b	7c f3		 jl	 SHORT $LL10@GetMasterS

; 5078 : 	{
; 5079 : 		for(int iRank = 0; iRank < MAX_SKILLTREE_RANK; iRank++)

  0004d	46		 inc	 esi
  0004e	83 c7 50	 add	 edi, 80			; 00000050H
  00051	83 fe 09	 cmp	 esi, 9
  00054	7c e2		 jl	 SHORT $LL7@GetMasterS

; 5073 : 	}
; 5074 : 
; 5075 : 	int nReturn = -1;
; 5076 : 
; 5077 : 	for(int iTreeKind = 0; iTreeKind < MAX_SKILLTREE_TYPE; iTreeKind++)

  00056	8b 45 08	 mov	 eax, DWORD PTR tv382[ebp]
  00059	43		 inc	 ebx
  0005a	05 d0 02 00 00	 add	 eax, 720		; 000002d0H
  0005f	89 45 08	 mov	 DWORD PTR tv382[ebp], eax
  00062	83 fb 03	 cmp	 ebx, 3
  00065	7c cd		 jl	 SHORT $LL4@GetMasterS

; 5087 : 				}
; 5088 : 			}
; 5089 : 		}
; 5090 : 	}
; 5091 : 
; 5092 : return nReturn;

  00067	5f		 pop	 edi
  00068	5e		 pop	 esi
  00069	83 c8 ff	 or	 eax, -1
  0006c	5b		 pop	 ebx

; 5093 : }

  0006d	8b e5		 mov	 esp, ebp
  0006f	5d		 pop	 ebp
  00070	c2 08 00	 ret	 8
$LN20@GetMasterS:

; 5084 : 				{
; 5085 : 					nReturn = this->m_SkillTreeData[iClass].m_SkillInfo[iTreeKind][iRank][iPos].m_iIndex;
; 5086 : 					return nReturn;

  00073	8d 04 de	 lea	 eax, DWORD PTR [esi+ebx*8]
  00076	03 c3		 add	 eax, ebx
  00078	5f		 pop	 edi
  00079	5e		 pop	 esi
  0007a	5b		 pop	 ebx
  0007b	8d 04 81	 lea	 eax, DWORD PTR [ecx+eax*4]
  0007e	8b 4d 0c	 mov	 ecx, DWORD PTR tv386[ebp]
  00081	8d 04 80	 lea	 eax, DWORD PTR [eax+eax*4]
  00084	8d 04 81	 lea	 eax, DWORD PTR [ecx+eax*4]
  00087	8b 4d fc	 mov	 ecx, DWORD PTR _this$1$[ebp]
  0008a	8b 44 08 08	 mov	 eax, DWORD PTR [eax+ecx+8]

; 5093 : }

  0008e	8b e5		 mov	 esp, ebp
  00090	5d		 pop	 ebp
  00091	c2 08 00	 ret	 8
$LN14@GetMasterS:

; 5070 : 	{
; 5071 : 		LogAddTD("[MasterLevelSkillTreeSystem] GetRequireMLPoint - Invalid Skill Code : %d",iSkill);

  00094	52		 push	 edx
  00095	68 00 00 00 00	 push	 OFFSET ??_C@_0EJ@IOMPPJNP@?$FLMasterLevelSkillTreeSystem?$FN?5Get@
  0009a	ff 15 00 00 00
	00		 call	 DWORD PTR ?LogAddTD@@3P6AXPADZZA ; LogAddTD
  000a0	83 c4 08	 add	 esp, 8

; 5072 : 		return -1;

  000a3	83 c8 ff	 or	 eax, -1

; 5093 : }

  000a6	8b e5		 mov	 esp, ebp
  000a8	5d		 pop	 ebp
  000a9	c2 08 00	 ret	 8
$LN12@GetMasterS:

; 5064 : 	{
; 5065 : 		LogAddTD("[MasterLevelSkillTreeSystem] GetRequireMLPoint - Invalid Class Code  : %d",iClass);

  000ac	50		 push	 eax
  000ad	68 00 00 00 00	 push	 OFFSET ??_C@_0EK@FPJIEBPO@?$FLMasterLevelSkillTreeSystem?$FN?5Get@
  000b2	ff 15 00 00 00
	00		 call	 DWORD PTR ?LogAddTD@@3P6AXPADZZA ; LogAddTD
  000b8	83 c4 08	 add	 esp, 8

; 5066 : 		return -1;

  000bb	83 c8 ff	 or	 eax, -1

; 5093 : }

  000be	8b e5		 mov	 esp, ebp
  000c0	5d		 pop	 ebp
  000c1	c2 08 00	 ret	 8
?GetMasterSkillUIIndex@CMasterLevelSkillTreeSystem@@QAEHHH@Z ENDP ; CMasterLevelSkillTreeSystem::GetMasterSkillUIIndex
_TEXT	ENDS
; Function compile flags: /Ogtp
; File c:\users\michel\desktop\source\gameserver\source\masterlevelskilltreesystem.cpp
;	COMDAT ?CheckPreviousRankSkill@CMasterLevelSkillTreeSystem@@QAEHPAUOBJECTSTRUCT@@HH@Z
_TEXT	SEGMENT
tv564 = -16						; size = 4
_iPos2$1$ = -12						; size = 4
_this$1$ = -8						; size = 4
_nTreeKind$1$ = -4					; size = 4
_lpObj$ = 8						; size = 4
_nRank$1$ = 12						; size = 4
_iSkill$ = 12						; size = 4
_iLevel$ = 16						; size = 4
?CheckPreviousRankSkill@CMasterLevelSkillTreeSystem@@QAEHPAUOBJECTSTRUCT@@HH@Z PROC ; CMasterLevelSkillTreeSystem::CheckPreviousRankSkill, COMDAT
; _this$ = ecx

; 4990 : {

  00000	55		 push	 ebp
  00001	8b ec		 mov	 ebp, esp
  00003	83 ec 10	 sub	 esp, 16			; 00000010H
  00006	56		 push	 esi

; 4991 : 	if( iSkill < 0 || iSkill > MAX_SKILL-1 )

  00007	8b 75 0c	 mov	 esi, DWORD PTR _iSkill$[ebp]
  0000a	57		 push	 edi
  0000b	8b f9		 mov	 edi, ecx
  0000d	89 7d f8	 mov	 DWORD PTR _this$1$[ebp], edi

; 4995 : 	}
; 4996 : 
; 4997 : 	int nTreeKind = -1;
; 4998 : 	int nRank = MagicDamageC.GetSkillRank(iSkill)-1;

  00010	56		 push	 esi
  00011	81 fe 89 02 00
	00		 cmp	 esi, 649		; 00000289H
  00017	0f 87 10 01 00
	00		 ja	 $LN18@CheckPrevi
  0001d	b9 00 00 00 00	 mov	 ecx, OFFSET ?MagicDamageC@@3VCMagicDamage@@A ; MagicDamageC
  00022	c7 45 fc ff ff
	ff ff		 mov	 DWORD PTR _nTreeKind$1$[ebp], -1
  00029	e8 00 00 00 00	 call	 ?GetSkillRank@CMagicDamage@@QAEHH@Z ; CMagicDamage::GetSkillRank
  0002e	48		 dec	 eax
  0002f	89 45 0c	 mov	 DWORD PTR _nRank$1$[ebp], eax

; 4999 : 
; 5000 : 	if( nRank < 1 )

  00032	83 f8 01	 cmp	 eax, 1
  00035	7d 0d		 jge	 SHORT $LN19@CheckPrevi

; 5001 : 		return 1;

  00037	5f		 pop	 edi
  00038	b8 01 00 00 00	 mov	 eax, 1
  0003d	5e		 pop	 esi

; 5039 : 		nReturn = TRUE;
; 5040 : 	else
; 5041 : 		nReturn = FALSE;
; 5042 : 
; 5043 : 	return nReturn;
; 5044 : }

  0003e	8b e5		 mov	 esp, ebp
  00040	5d		 pop	 ebp
  00041	c2 0c 00	 ret	 12			; 0000000cH
$LN19@CheckPrevi:

; 5002 : 
; 5003 : 	int iClass = lpObj->Class;

  00044	8b 45 08	 mov	 eax, DWORD PTR _lpObj$[ebp]
  00047	8d 57 18	 lea	 edx, DWORD PTR [edi+24]
  0004a	53		 push	 ebx

; 5004 : 	int nReturn = -1;
; 5005 : 
; 5006 : 	for(int iTreeKind = 0; iTreeKind < MAX_SKILLTREE_TYPE; iTreeKind++)

  0004b	33 db		 xor	 ebx, ebx
  0004d	0f b7 80 90 00
	00 00		 movzx	 eax, WORD PTR [eax+144]
  00054	69 c0 74 08 00
	00		 imul	 eax, eax, 2164
  0005a	89 45 f0	 mov	 DWORD PTR tv564[ebp], eax
  0005d	03 d0		 add	 edx, eax
  0005f	90		 npad	 1
$LL4@CheckPrevi:

; 5007 : 	{
; 5008 : 		for(int iRank = 0; iRank < MAX_SKILLTREE_RANK; iRank++)

  00060	bf 09 00 00 00	 mov	 edi, 9
$LL7@CheckPrevi:

; 5009 : 		{
; 5010 : 			for(int iPos = 0; iPos < MAX_SKILLTREE_POS; iPos++)

  00065	33 c9		 xor	 ecx, ecx
  00067	8b c2		 mov	 eax, edx
  00069	0f 1f 80 00 00
	00 00		 npad	 7
$LL10@CheckPrevi:

; 5011 : 			{
; 5012 : 				if( this->m_SkillTreeData[iClass].m_SkillInfo[iTreeKind][iRank][iPos].m_iSkillID == iSkill )

  00070	39 30		 cmp	 DWORD PTR [eax], esi
  00072	74 0b		 je	 SHORT $LN31@CheckPrevi

; 5009 : 		{
; 5010 : 			for(int iPos = 0; iPos < MAX_SKILLTREE_POS; iPos++)

  00074	41		 inc	 ecx
  00075	83 c0 14	 add	 eax, 20			; 00000014H
  00078	83 f9 04	 cmp	 ecx, 4
  0007b	7c f3		 jl	 SHORT $LL10@CheckPrevi

; 5011 : 			{
; 5012 : 				if( this->m_SkillTreeData[iClass].m_SkillInfo[iTreeKind][iRank][iPos].m_iSkillID == iSkill )

  0007d	eb 03		 jmp	 SHORT $LN5@CheckPrevi
$LN31@CheckPrevi:

; 5013 : 				{
; 5014 : 					nTreeKind = iTreeKind;

  0007f	89 5d fc	 mov	 DWORD PTR _nTreeKind$1$[ebp], ebx
$LN5@CheckPrevi:

; 5007 : 	{
; 5008 : 		for(int iRank = 0; iRank < MAX_SKILLTREE_RANK; iRank++)

  00082	83 c2 50	 add	 edx, 80			; 00000050H
  00085	83 ef 01	 sub	 edi, 1
  00088	75 db		 jne	 SHORT $LL7@CheckPrevi

; 5004 : 	int nReturn = -1;
; 5005 : 
; 5006 : 	for(int iTreeKind = 0; iTreeKind < MAX_SKILLTREE_TYPE; iTreeKind++)

  0008a	43		 inc	 ebx
  0008b	83 fb 03	 cmp	 ebx, 3
  0008e	7c d0		 jl	 SHORT $LL4@CheckPrevi

; 5015 : 					break;
; 5016 : 				}
; 5017 : 			}
; 5018 : 		}
; 5019 : 	}
; 5020 : 
; 5021 : 	int nPoint = 0;
; 5022 : 	nRank -= 1;

  00090	ff 4d 0c	 dec	 DWORD PTR _nRank$1$[ebp]

; 5023 : 
; 5024 : 	for(int iPos2 = 0; iPos2 < MAX_SKILLTREE_POS; iPos2++ )

  00093	33 db		 xor	 ebx, ebx
  00095	89 5d f4	 mov	 DWORD PTR _iPos2$1$[ebp], ebx
  00098	0f 1f 84 00 00
	00 00 00	 npad	 8
$LL13@CheckPrevi:

; 5025 : 	{
; 5026 : 		for(int i = 0; i < MAX_MAGIC; i++)

  000a0	33 f6		 xor	 esi, esi
$LL16@CheckPrevi:

; 5027 : 		{
; 5028 : 			if( lpObj->Magic[i].IsMagic() == TRUE && this->CheckMasterLevelSkill(lpObj->Magic[i].m_Skill) == TRUE  )

  000a2	8b 45 08	 mov	 eax, DWORD PTR _lpObj$[ebp]
  000a5	8b 88 a8 06 00
	00		 mov	 ecx, DWORD PTR [eax+1704]
  000ab	03 ce		 add	 ecx, esi
  000ad	e8 00 00 00 00	 call	 ?IsMagic@CMagicInf@@QAEHXZ ; CMagicInf::IsMagic
  000b2	83 f8 01	 cmp	 eax, 1
  000b5	75 51		 jne	 SHORT $LN14@CheckPrevi
  000b7	8b 45 08	 mov	 eax, DWORD PTR _lpObj$[ebp]
  000ba	8b 4d f8	 mov	 ecx, DWORD PTR _this$1$[ebp]
  000bd	8b 80 a8 06 00
	00		 mov	 eax, DWORD PTR [eax+1704]
  000c3	ff 74 06 08	 push	 DWORD PTR [esi+eax+8]
  000c7	e8 00 00 00 00	 call	 ?CheckMasterLevelSkill@CMasterLevelSkillTreeSystem@@QAEHH@Z ; CMasterLevelSkillTreeSystem::CheckMasterLevelSkill
  000cc	83 f8 01	 cmp	 eax, 1
  000cf	75 37		 jne	 SHORT $LN14@CheckPrevi

; 5029 : 			{
; 5030 : 				if( lpObj->Magic[i].m_Skill == this->m_SkillTreeData[iClass].m_SkillInfo[nTreeKind][nRank][iPos2].m_iSkillID )

  000d1	8b 45 08	 mov	 eax, DWORD PTR _lpObj$[ebp]
  000d4	8b 4d fc	 mov	 ecx, DWORD PTR _nTreeKind$1$[ebp]
  000d7	8b 90 a8 06 00
	00		 mov	 edx, DWORD PTR [eax+1704]
  000dd	8b 45 0c	 mov	 eax, DWORD PTR _nRank$1$[ebp]
  000e0	8d 04 c8	 lea	 eax, DWORD PTR [eax+ecx*8]
  000e3	03 c1		 add	 eax, ecx
  000e5	8b 4d f0	 mov	 ecx, DWORD PTR tv564[ebp]
  000e8	8d 04 83	 lea	 eax, DWORD PTR [ebx+eax*4]
  000eb	8b 5d f8	 mov	 ebx, DWORD PTR _this$1$[ebp]
  000ee	8d 04 80	 lea	 eax, DWORD PTR [eax+eax*4]
  000f1	8d 0c 81	 lea	 ecx, DWORD PTR [ecx+eax*4]
  000f4	8b 44 32 08	 mov	 eax, DWORD PTR [edx+esi+8]
  000f8	3b 44 19 18	 cmp	 eax, DWORD PTR [ecx+ebx+24]
  000fc	8b 5d f4	 mov	 ebx, DWORD PTR _iPos2$1$[ebp]
  000ff	75 07		 jne	 SHORT $LN14@CheckPrevi

; 5031 : 				{
; 5032 : 					nPoint |= lpObj->Magic[i].m_Level;

  00101	0f b6 44 32 04	 movzx	 eax, BYTE PTR [edx+esi+4]
  00106	0b f8		 or	 edi, eax
$LN14@CheckPrevi:

; 5025 : 	{
; 5026 : 		for(int i = 0; i < MAX_MAGIC; i++)

  00108	83 c6 18	 add	 esi, 24			; 00000018H
  0010b	81 fe 10 0e 00
	00		 cmp	 esi, 3600		; 00000e10H
  00111	7c 8f		 jl	 SHORT $LL16@CheckPrevi

; 5023 : 
; 5024 : 	for(int iPos2 = 0; iPos2 < MAX_SKILLTREE_POS; iPos2++ )

  00113	43		 inc	 ebx
  00114	89 5d f4	 mov	 DWORD PTR _iPos2$1$[ebp], ebx
  00117	83 fb 04	 cmp	 ebx, 4
  0011a	7c 84		 jl	 SHORT $LL13@CheckPrevi

; 5033 : 				}
; 5034 : 			}
; 5035 : 		}
; 5036 : 	}
; 5037 : 
; 5038 : 	if( nPoint >= 10 )

  0011c	33 c0		 xor	 eax, eax
  0011e	83 ff 0a	 cmp	 edi, 10			; 0000000aH
  00121	5b		 pop	 ebx
  00122	5f		 pop	 edi
  00123	0f 9d c0	 setge	 al
  00126	5e		 pop	 esi

; 5039 : 		nReturn = TRUE;
; 5040 : 	else
; 5041 : 		nReturn = FALSE;
; 5042 : 
; 5043 : 	return nReturn;
; 5044 : }

  00127	8b e5		 mov	 esp, ebp
  00129	5d		 pop	 ebp
  0012a	c2 0c 00	 ret	 12			; 0000000cH
$LN18@CheckPrevi:

; 4992 : 	{
; 4993 : 		LogAddTD("[MasterLevelSkillTreeSystem] GetRequireMLPoint - Invalid Skill Code : %d",iSkill);

  0012d	68 00 00 00 00	 push	 OFFSET ??_C@_0EJ@IOMPPJNP@?$FLMasterLevelSkillTreeSystem?$FN?5Get@
  00132	ff 15 00 00 00
	00		 call	 DWORD PTR ?LogAddTD@@3P6AXPADZZA ; LogAddTD
  00138	83 c4 08	 add	 esp, 8

; 4994 : 		return -1;

  0013b	83 c8 ff	 or	 eax, -1
  0013e	5f		 pop	 edi
  0013f	5e		 pop	 esi

; 5039 : 		nReturn = TRUE;
; 5040 : 	else
; 5041 : 		nReturn = FALSE;
; 5042 : 
; 5043 : 	return nReturn;
; 5044 : }

  00140	8b e5		 mov	 esp, ebp
  00142	5d		 pop	 ebp
  00143	c2 0c 00	 ret	 12			; 0000000cH
?CheckPreviousRankSkill@CMasterLevelSkillTreeSystem@@QAEHPAUOBJECTSTRUCT@@HH@Z ENDP ; CMasterLevelSkillTreeSystem::CheckPreviousRankSkill
_TEXT	ENDS
; Function compile flags: /Ogtp
; File c:\users\michel\desktop\source\gameserver\source\masterlevelskilltreesystem.cpp
;	COMDAT ?CheckSkillLevel@CMasterLevelSkillTreeSystem@@QAEHPAUOBJECTSTRUCT@@H@Z
_TEXT	SEGMENT
_lpObj$ = 8						; size = 4
_iSkill$ = 12						; size = 4
?CheckSkillLevel@CMasterLevelSkillTreeSystem@@QAEHPAUOBJECTSTRUCT@@H@Z PROC ; CMasterLevelSkillTreeSystem::CheckSkillLevel, COMDAT
; _this$ = ecx

; 5047 : {

  00000	55		 push	 ebp
  00001	8b ec		 mov	 ebp, esp
  00003	53		 push	 ebx
  00004	8b 5d 08	 mov	 ebx, DWORD PTR _lpObj$[ebp]
  00007	56		 push	 esi
  00008	57		 push	 edi

; 5048 : 	for(int i = 0; i < MAX_MAGIC; i++)

  00009	33 ff		 xor	 edi, edi
  0000b	33 f6		 xor	 esi, esi
  0000d	0f 1f 00	 npad	 3
$LL4@CheckSkill:

; 5049 : 	{
; 5050 : 		if( lpObj->Magic[i].IsMagic() == TRUE &&

  00010	8b 8b a8 06 00
	00		 mov	 ecx, DWORD PTR [ebx+1704]
  00016	03 ce		 add	 ecx, esi
  00018	e8 00 00 00 00	 call	 ?IsMagic@CMagicInf@@QAEHXZ ; CMagicInf::IsMagic
  0001d	83 f8 01	 cmp	 eax, 1
  00020	75 0f		 jne	 SHORT $LN2@CheckSkill
  00022	8b 83 a8 06 00
	00		 mov	 eax, DWORD PTR [ebx+1704]
  00028	8b 4d 0c	 mov	 ecx, DWORD PTR _iSkill$[ebp]
  0002b	39 4c 30 08	 cmp	 DWORD PTR [eax+esi+8], ecx
  0002f	74 15		 je	 SHORT $LN8@CheckSkill
$LN2@CheckSkill:

; 5048 : 	for(int i = 0; i < MAX_MAGIC; i++)

  00031	83 c6 18	 add	 esi, 24			; 00000018H
  00034	47		 inc	 edi
  00035	81 fe 10 0e 00
	00		 cmp	 esi, 3600		; 00000e10H
  0003b	7c d3		 jl	 SHORT $LL4@CheckSkill

; 5054 : 		}
; 5055 : 	}
; 5056 : 
; 5057 : 
; 5058 : return 0;

  0003d	5f		 pop	 edi
  0003e	5e		 pop	 esi
  0003f	33 c0		 xor	 eax, eax
  00041	5b		 pop	 ebx

; 5059 : }

  00042	5d		 pop	 ebp
  00043	c2 08 00	 ret	 8
$LN8@CheckSkill:

; 5051 : 			lpObj->Magic[i].m_Skill == iSkill )
; 5052 : 		{
; 5053 : 			return lpObj->Magic[i].m_Level;

  00046	8d 0c 7f	 lea	 ecx, DWORD PTR [edi+edi*2]
  00049	0f b6 44 c8 04	 movzx	 eax, BYTE PTR [eax+ecx*8+4]
  0004e	5f		 pop	 edi
  0004f	5e		 pop	 esi
  00050	5b		 pop	 ebx

; 5059 : }

  00051	5d		 pop	 ebp
  00052	c2 08 00	 ret	 8
?CheckSkillLevel@CMasterLevelSkillTreeSystem@@QAEHPAUOBJECTSTRUCT@@H@Z ENDP ; CMasterLevelSkillTreeSystem::CheckSkillLevel
_TEXT	ENDS
; Function compile flags: /Ogtp
; File c:\users\michel\desktop\source\gameserver\source\masterlevelskilltreesystem.cpp
;	COMDAT ?GetBrandOfMasterSkillValue@CMasterLevelSkillTreeSystem@@QAEMPAUOBJECTSTRUCT@@HH@Z
_TEXT	SEGMENT
_this$1$ = -4						; size = 4
_lpObj$ = 8						; size = 4
_iSkill$ = 12						; size = 4
tv192 = 16						; size = 4
_iStep$ = 16						; size = 4
?GetBrandOfMasterSkillValue@CMasterLevelSkillTreeSystem@@QAEMPAUOBJECTSTRUCT@@HH@Z PROC ; CMasterLevelSkillTreeSystem::GetBrandOfMasterSkillValue, COMDAT
; _this$ = ecx

; 4955 : {

  00000	55		 push	 ebp
  00001	8b ec		 mov	 ebp, esp
  00003	51		 push	 ecx

; 4956 : 	int nStep = iStep;
; 4957 : 	int nSkill = iSkill;

  00004	8b 55 0c	 mov	 edx, DWORD PTR _iSkill$[ebp]

; 4958 : 	int nPrevSkill = nSkill;

  00007	8b c2		 mov	 eax, edx
  00009	53		 push	 ebx
  0000a	56		 push	 esi
  0000b	8b 75 10	 mov	 esi, DWORD PTR _iStep$[ebp]
  0000e	89 4d fc	 mov	 DWORD PTR _this$1$[ebp], ecx
  00011	57		 push	 edi

; 4959 : 
; 4960 : 	while( nStep != 0 )

  00012	85 f6		 test	 esi, esi
  00014	74 1c		 je	 SHORT $LN13@GetBrandOf
$LL2@GetBrandOf:

; 4961 : 	{
; 4962 : 		if( nPrevSkill == 0 )

  00016	85 c0		 test	 eax, eax
  00018	74 15		 je	 SHORT $LN22@GetBrandOf

; 4963 : 			break;
; 4964 : 
; 4965 : 		nPrevSkill = MagicDamageC.GetBrandOfSkill(nSkill);

  0001a	52		 push	 edx
  0001b	b9 00 00 00 00	 mov	 ecx, OFFSET ?MagicDamageC@@3VCMagicDamage@@A ; MagicDamageC
  00020	e8 00 00 00 00	 call	 ?GetBrandOfSkill@CMagicDamage@@QAEGH@Z ; CMagicDamage::GetBrandOfSkill
  00025	0f b7 c0	 movzx	 eax, ax

; 4966 : 		nSkill = nPrevSkill;

  00028	8b d0		 mov	 edx, eax

; 4967 : 		nStep--;

  0002a	83 ee 01	 sub	 esi, 1
  0002d	75 e7		 jne	 SHORT $LL2@GetBrandOf
$LN22@GetBrandOf:
  0002f	8b 4d fc	 mov	 ecx, DWORD PTR _this$1$[ebp]
$LN13@GetBrandOf:

; 4968 : 	}
; 4969 : 
; 4970 : 	WORD iBrandOfSkill = nSkill;
; 4971 : 	int iLevel;
; 4972 : 
; 4973 : 	if( this->CheckMasterLevelSkill(iBrandOfSkill) )

  00032	0f b7 c2	 movzx	 eax, dx
  00035	50		 push	 eax
  00036	89 45 10	 mov	 DWORD PTR tv192[ebp], eax
  00039	e8 00 00 00 00	 call	 ?CheckMasterLevelSkill@CMasterLevelSkillTreeSystem@@QAEHH@Z ; CMasterLevelSkillTreeSystem::CheckMasterLevelSkill
  0003e	85 c0		 test	 eax, eax
  00040	74 3b		 je	 SHORT $LN21@GetBrandOf

; 4974 : 	{
; 4975 : 		for(int iCount = 0; iCount < MAX_MAGIC; iCount++)

  00042	8b 5d 08	 mov	 ebx, DWORD PTR _lpObj$[ebp]
  00045	33 ff		 xor	 edi, edi
  00047	33 f6		 xor	 esi, esi
  00049	0f 1f 80 00 00
	00 00		 npad	 7
$LL6@GetBrandOf:

; 4976 : 		{
; 4977 : 			if( lpObj->Magic[iCount].IsMagic() == TRUE && 

  00050	8b 8b a8 06 00
	00		 mov	 ecx, DWORD PTR [ebx+1704]
  00056	03 ce		 add	 ecx, esi
  00058	e8 00 00 00 00	 call	 ?IsMagic@CMagicInf@@QAEHXZ ; CMagicInf::IsMagic
  0005d	83 f8 01	 cmp	 eax, 1
  00060	75 0f		 jne	 SHORT $LN4@GetBrandOf
  00062	8b 83 a8 06 00
	00		 mov	 eax, DWORD PTR [ebx+1704]
  00068	8b 4d 10	 mov	 ecx, DWORD PTR tv192[ebp]
  0006b	39 4c 06 08	 cmp	 DWORD PTR [esi+eax+8], ecx
  0006f	74 17		 je	 SHORT $LN14@GetBrandOf
$LN4@GetBrandOf:

; 4974 : 	{
; 4975 : 		for(int iCount = 0; iCount < MAX_MAGIC; iCount++)

  00071	83 c6 18	 add	 esi, 24			; 00000018H
  00074	47		 inc	 edi
  00075	81 fe 10 0e 00
	00		 cmp	 esi, 3600		; 00000e10H
  0007b	7c d3		 jl	 SHORT $LL6@GetBrandOf
$LN21@GetBrandOf:

; 4982 : 			}
; 4983 : 		}
; 4984 : 	}
; 4985 : 
; 4986 : 	return 0.0f;

  0007d	d9 ee		 fldz
  0007f	5f		 pop	 edi
  00080	5e		 pop	 esi
  00081	5b		 pop	 ebx

; 4987 : }

  00082	8b e5		 mov	 esp, ebp
  00084	5d		 pop	 ebp
  00085	c2 0c 00	 ret	 12			; 0000000cH
$LN14@GetBrandOf:

; 4978 : 				lpObj->Magic[iCount].m_Skill == iBrandOfSkill )
; 4979 : 			{
; 4980 : 				iLevel = lpObj->Magic[iCount].m_Level;

  00088	8d 14 7f	 lea	 edx, DWORD PTR [edi+edi*2]
  0008b	0f b6 44 d0 04	 movzx	 eax, BYTE PTR [eax+edx*8+4]

; 4981 : 				return this->GetMasterSkillValue(MagicDamageC.SkillGet(iBrandOfSkill),iLevel);

  00090	50		 push	 eax
  00091	51		 push	 ecx
  00092	b9 00 00 00 00	 mov	 ecx, OFFSET ?MagicDamageC@@3VCMagicDamage@@A ; MagicDamageC
  00097	e8 00 00 00 00	 call	 ?SkillGet@CMagicDamage@@QAEHH@Z ; CMagicDamage::SkillGet
  0009c	8b 4d fc	 mov	 ecx, DWORD PTR _this$1$[ebp]
  0009f	50		 push	 eax
  000a0	e8 00 00 00 00	 call	 ?GetMasterSkillValue@CMasterLevelSkillTreeSystem@@QAEMHH@Z ; CMasterLevelSkillTreeSystem::GetMasterSkillValue
  000a5	5f		 pop	 edi
  000a6	5e		 pop	 esi
  000a7	5b		 pop	 ebx

; 4987 : }

  000a8	8b e5		 mov	 esp, ebp
  000aa	5d		 pop	 ebp
  000ab	c2 0c 00	 ret	 12			; 0000000cH
?GetBrandOfMasterSkillValue@CMasterLevelSkillTreeSystem@@QAEMPAUOBJECTSTRUCT@@HH@Z ENDP ; CMasterLevelSkillTreeSystem::GetBrandOfMasterSkillValue
_TEXT	ENDS
; Function compile flags: /Ogtp
; File c:\users\michel\desktop\source\gameserver\source\masterlevelskilltreesystem.cpp
;	COMDAT ?GetMasterSkillManaIncRate@CMasterLevelSkillTreeSystem@@QAEMH@Z
_TEXT	SEGMENT
_iPoint$ = 8						; size = 4
?GetMasterSkillManaIncRate@CMasterLevelSkillTreeSystem@@QAEMH@Z PROC ; CMasterLevelSkillTreeSystem::GetMasterSkillManaIncRate, COMDAT
; _this$ = ecx

; 4944 : {

  00000	55		 push	 ebp
  00001	8b ec		 mov	 ebp, esp

; 4945 : 	if( iPoint < 1 || iPoint > MAX_SKILLTREE_LEVEL )

  00003	8b 55 08	 mov	 edx, DWORD PTR _iPoint$[ebp]
  00006	8d 42 ff	 lea	 eax, DWORD PTR [edx-1]
  00009	83 f8 13	 cmp	 eax, 19			; 00000013H
  0000c	77 0b		 ja	 SHORT $LN3@GetMasterS

; 4949 : 	}
; 4950 : 
; 4951 : 	return this->m_fValue[21][iPoint];

  0000e	d9 84 91 14 42
	00 00		 fld	 DWORD PTR [ecx+edx*4+16916]

; 4952 : }

  00015	5d		 pop	 ebp
  00016	c2 04 00	 ret	 4
$LN3@GetMasterS:

; 4946 : 	{
; 4947 : 		LogAddTD("[MasterLevelSkillTreeSystem] GetMasterSkillManaIncRate - Invalid Point : %d",iPoint);

  00019	52		 push	 edx
  0001a	68 00 00 00 00	 push	 OFFSET ??_C@_0EM@HDBFHAFF@?$FLMasterLevelSkillTreeSystem?$FN?5Get@
  0001f	ff 15 00 00 00
	00		 call	 DWORD PTR ?LogAddTD@@3P6AXPADZZA ; LogAddTD

; 4948 : 		return -1.0f;

  00025	d9 05 00 00 00
	00		 fld	 DWORD PTR __real@bf800000
  0002b	83 c4 08	 add	 esp, 8

; 4952 : }

  0002e	5d		 pop	 ebp
  0002f	c2 04 00	 ret	 4
?GetMasterSkillManaIncRate@CMasterLevelSkillTreeSystem@@QAEMH@Z ENDP ; CMasterLevelSkillTreeSystem::GetMasterSkillManaIncRate
_TEXT	ENDS
; Function compile flags: /Ogtp
; File c:\users\michel\desktop\source\gameserver\source\masterlevelskilltreesystem.cpp
;	COMDAT ?GetMasterSkillValue@CMasterLevelSkillTreeSystem@@QAEMHH@Z
_TEXT	SEGMENT
_iType$ = 8						; size = 4
_iPoint$ = 12						; size = 4
?GetMasterSkillValue@CMasterLevelSkillTreeSystem@@QAEMHH@Z PROC ; CMasterLevelSkillTreeSystem::GetMasterSkillValue, COMDAT
; _this$ = ecx

; 4927 : {

  00000	55		 push	 ebp
  00001	8b ec		 mov	 ebp, esp

; 4928 : 	if( iPoint < 1 || iPoint > MAX_SKILLTREE_LEVEL )

  00003	8b 55 0c	 mov	 edx, DWORD PTR _iPoint$[ebp]
  00006	8d 42 ff	 lea	 eax, DWORD PTR [edx-1]
  00009	83 f8 13	 cmp	 eax, 19			; 00000013H
  0000c	77 27		 ja	 SHORT $LN3@GetMasterS

; 4932 : 	}
; 4933 : 
; 4934 : 	if( iType < 0 || iType > 38 )

  0000e	8b 45 08	 mov	 eax, DWORD PTR _iType$[ebp]
  00011	83 f8 26	 cmp	 eax, 38			; 00000026H
  00014	77 10		 ja	 SHORT $LN5@GetMasterS

; 4937 : 		return 0.0f;
; 4938 : 	}
; 4939 : 
; 4940 : 	return this->m_fValue[iType][iPoint];

  00016	6b c0 15	 imul	 eax, eax, 21
  00019	03 c2		 add	 eax, edx
  0001b	d9 84 81 30 3b
	00 00		 fld	 DWORD PTR [ecx+eax*4+15152]

; 4941 : }

  00022	5d		 pop	 ebp
  00023	c2 08 00	 ret	 8
$LN5@GetMasterS:

; 4935 : 	{
; 4936 : 		LogAddTD("[MasterLevelSkillTreeSystem] GetMasterSkillValue - Invalid Type : %d",iType);

  00026	50		 push	 eax
  00027	68 00 00 00 00	 push	 OFFSET ??_C@_0EF@FJHPDEPE@?$FLMasterLevelSkillTreeSystem?$FN?5Get@
  0002c	ff 15 00 00 00
	00		 call	 DWORD PTR ?LogAddTD@@3P6AXPADZZA ; LogAddTD
  00032	83 c4 08	 add	 esp, 8
$LN3@GetMasterS:

; 4929 : 	{
; 4930 : //		LogAddTD("[MasterLevelSkillTreeSystem] GetMasterSkillValue - Invalid Point : %d",iPoint);
; 4931 : 		return 0.0f;

  00035	d9 ee		 fldz

; 4941 : }

  00037	5d		 pop	 ebp
  00038	c2 08 00	 ret	 8
?GetMasterSkillValue@CMasterLevelSkillTreeSystem@@QAEMHH@Z ENDP ; CMasterLevelSkillTreeSystem::GetMasterSkillValue
_TEXT	ENDS
; Function compile flags: /Ogtp
; File c:\users\michel\desktop\source\gameserver\source\masterlevelskilltreesystem.cpp
;	COMDAT ?GetMaxPointOfMasterSkill@CMasterLevelSkillTreeSystem@@QAEHHH@Z
_TEXT	SEGMENT
_this$1$ = -4						; size = 4
_nReturn$1$ = 8						; size = 4
_iClass$ = 8						; size = 4
tv527 = 12						; size = 4
_iSkill$ = 12						; size = 4
?GetMaxPointOfMasterSkill@CMasterLevelSkillTreeSystem@@QAEHHH@Z PROC ; CMasterLevelSkillTreeSystem::GetMaxPointOfMasterSkill, COMDAT
; _this$ = ecx

; 4894 : {

  00000	55		 push	 ebp
  00001	8b ec		 mov	 ebp, esp
  00003	51		 push	 ecx

; 4895 : 	if( iClass < CLASS_WIZARD || iClass > CLASS_FIGHTER )

  00004	8b 45 08	 mov	 eax, DWORD PTR _iClass$[ebp]
  00007	89 4d fc	 mov	 DWORD PTR _this$1$[ebp], ecx
  0000a	83 f8 06	 cmp	 eax, 6
  0000d	0f 87 99 00 00
	00		 ja	 $LN12@GetMaxPoin

; 4899 : 	}
; 4900 : 
; 4901 : 	if( iSkill < 0 || iSkill > MAX_SKILL-1 )

  00013	8b 55 0c	 mov	 edx, DWORD PTR _iSkill$[ebp]
  00016	81 fa 89 02 00
	00		 cmp	 edx, 649		; 00000289H
  0001c	77 76		 ja	 SHORT $LN14@GetMaxPoin

; 4904 : 		return -1;
; 4905 : 	}
; 4906 : 
; 4907 : 	int nReturn = -1;

  0001e	53		 push	 ebx
  0001f	69 c0 74 08 00
	00		 imul	 eax, eax, 2164
  00025	56		 push	 esi
  00026	57		 push	 edi
  00027	8d 71 18	 lea	 esi, DWORD PTR [ecx+24]
  0002a	c7 45 08 ff ff
	ff ff		 mov	 DWORD PTR _nReturn$1$[ebp], -1
  00031	33 ff		 xor	 edi, edi
  00033	89 45 0c	 mov	 DWORD PTR tv527[ebp], eax
  00036	03 f0		 add	 esi, eax
  00038	0f 1f 84 00 00
	00 00 00	 npad	 8
$LL4@GetMaxPoin:

; 4910 : 	{
; 4911 : 		for(int iRank = 0; iRank < MAX_SKILLTREE_RANK; iRank++)

  00040	bb 09 00 00 00	 mov	 ebx, 9
$LL7@GetMaxPoin:

; 4912 : 		{
; 4913 : 			for(int iPos = 0; iPos < MAX_SKILLTREE_POS; iPos++)

  00045	33 c9		 xor	 ecx, ecx
  00047	8b c6		 mov	 eax, esi
  00049	0f 1f 80 00 00
	00 00		 npad	 7
$LL10@GetMaxPoin:

; 4914 : 			{
; 4915 : 				if( this->m_SkillTreeData[iClass].m_SkillInfo[iTreeKind][iRank][iPos].m_iSkillID == iSkill )

  00050	39 10		 cmp	 DWORD PTR [eax], edx
  00052	74 0e		 je	 SHORT $LN20@GetMaxPoin

; 4912 : 		{
; 4913 : 			for(int iPos = 0; iPos < MAX_SKILLTREE_POS; iPos++)

  00054	41		 inc	 ecx
  00055	83 c0 14	 add	 eax, 20			; 00000014H
  00058	83 f9 04	 cmp	 ecx, 4
  0005b	7c f3		 jl	 SHORT $LL10@GetMaxPoin

; 4914 : 			{
; 4915 : 				if( this->m_SkillTreeData[iClass].m_SkillInfo[iTreeKind][iRank][iPos].m_iSkillID == iSkill )

  0005d	8b 4d 08	 mov	 ecx, DWORD PTR _nReturn$1$[ebp]
  00060	eb 17		 jmp	 SHORT $LN5@GetMaxPoin
$LN20@GetMaxPoin:

; 4916 : 				{
; 4917 : 					nReturn = this->m_SkillTreeData[iClass].m_SkillInfo[iTreeKind][iRank][iPos].m_btMaxPoint;

  00062	8d 04 0f	 lea	 eax, DWORD PTR [edi+ecx]
  00065	8b 4d 0c	 mov	 ecx, DWORD PTR tv527[ebp]
  00068	8d 04 80	 lea	 eax, DWORD PTR [eax+eax*4]
  0006b	8d 04 81	 lea	 eax, DWORD PTR [ecx+eax*4]
  0006e	8b 4d fc	 mov	 ecx, DWORD PTR _this$1$[ebp]
  00071	0f b6 4c 08 0d	 movzx	 ecx, BYTE PTR [eax+ecx+13]
  00076	89 4d 08	 mov	 DWORD PTR _nReturn$1$[ebp], ecx
$LN5@GetMaxPoin:

; 4910 : 	{
; 4911 : 		for(int iRank = 0; iRank < MAX_SKILLTREE_RANK; iRank++)

  00079	83 c6 50	 add	 esi, 80			; 00000050H
  0007c	83 c7 04	 add	 edi, 4
  0007f	83 eb 01	 sub	 ebx, 1
  00082	75 c1		 jne	 SHORT $LL7@GetMaxPoin

; 4908 : 
; 4909 : 	for(int iTreeKind = 0; iTreeKind < MAX_SKILLTREE_TYPE; iTreeKind++)

  00084	83 ff 6c	 cmp	 edi, 108		; 0000006cH
  00087	7c b7		 jl	 SHORT $LL4@GetMaxPoin

; 4918 : 					break;
; 4919 : 				}
; 4920 : 			}
; 4921 : 		}
; 4922 : 	}
; 4923 : return nReturn;

  00089	5f		 pop	 edi
  0008a	5e		 pop	 esi
  0008b	8b c1		 mov	 eax, ecx
  0008d	5b		 pop	 ebx

; 4924 : }

  0008e	8b e5		 mov	 esp, ebp
  00090	5d		 pop	 ebp
  00091	c2 08 00	 ret	 8
$LN14@GetMaxPoin:

; 4902 : 	{
; 4903 : 		LogAddTD("[MasterLevelSkillTreeSystem] GetRequireMLPoint - Invalid Skill Code : %d",iSkill);

  00094	52		 push	 edx
  00095	68 00 00 00 00	 push	 OFFSET ??_C@_0EJ@IOMPPJNP@?$FLMasterLevelSkillTreeSystem?$FN?5Get@
  0009a	ff 15 00 00 00
	00		 call	 DWORD PTR ?LogAddTD@@3P6AXPADZZA ; LogAddTD
  000a0	83 c4 08	 add	 esp, 8
  000a3	83 c8 ff	 or	 eax, -1

; 4924 : }

  000a6	8b e5		 mov	 esp, ebp
  000a8	5d		 pop	 ebp
  000a9	c2 08 00	 ret	 8
$LN12@GetMaxPoin:

; 4896 : 	{
; 4897 : 		LogAddTD("[MasterLevelSkillTreeSystem] GetRequireMLPoint - Invalid Class Code  : %d",iClass);

  000ac	50		 push	 eax
  000ad	68 00 00 00 00	 push	 OFFSET ??_C@_0EK@FPJIEBPO@?$FLMasterLevelSkillTreeSystem?$FN?5Get@
  000b2	ff 15 00 00 00
	00		 call	 DWORD PTR ?LogAddTD@@3P6AXPADZZA ; LogAddTD
  000b8	83 c4 08	 add	 esp, 8

; 4898 : 		return -1;

  000bb	83 c8 ff	 or	 eax, -1

; 4924 : }

  000be	8b e5		 mov	 esp, ebp
  000c0	5d		 pop	 ebp
  000c1	c2 08 00	 ret	 8
?GetMaxPointOfMasterSkill@CMasterLevelSkillTreeSystem@@QAEHHH@Z ENDP ; CMasterLevelSkillTreeSystem::GetMaxPointOfMasterSkill
_TEXT	ENDS
; Function compile flags: /Ogtp
; File c:\users\michel\desktop\source\gameserver\source\masterlevelskilltreesystem.cpp
;	COMDAT ?GetRequireMLPoint@CMasterLevelSkillTreeSystem@@QAEHHH@Z
_TEXT	SEGMENT
_this$1$ = -4						; size = 4
_nReturn$1$ = 8						; size = 4
_iClass$ = 8						; size = 4
tv527 = 12						; size = 4
_iSkill$ = 12						; size = 4
?GetRequireMLPoint@CMasterLevelSkillTreeSystem@@QAEHHH@Z PROC ; CMasterLevelSkillTreeSystem::GetRequireMLPoint, COMDAT
; _this$ = ecx

; 4860 : {

  00000	55		 push	 ebp
  00001	8b ec		 mov	 ebp, esp
  00003	51		 push	 ecx

; 4861 : 
; 4862 : 	if( iClass < CLASS_WIZARD || iClass > CLASS_FIGHTER )

  00004	8b 45 08	 mov	 eax, DWORD PTR _iClass$[ebp]
  00007	89 4d fc	 mov	 DWORD PTR _this$1$[ebp], ecx
  0000a	83 f8 06	 cmp	 eax, 6
  0000d	0f 87 99 00 00
	00		 ja	 $LN12@GetRequire

; 4866 : 	}
; 4867 : 
; 4868 : 	if( iSkill < 0 || iSkill > MAX_SKILL-1 )

  00013	8b 55 0c	 mov	 edx, DWORD PTR _iSkill$[ebp]
  00016	81 fa 89 02 00
	00		 cmp	 edx, 649		; 00000289H
  0001c	77 76		 ja	 SHORT $LN14@GetRequire

; 4871 : 		return -1;
; 4872 : 	}
; 4873 : 
; 4874 : 	int nReturn = -1;

  0001e	53		 push	 ebx
  0001f	69 c0 74 08 00
	00		 imul	 eax, eax, 2164
  00025	56		 push	 esi
  00026	57		 push	 edi
  00027	8d 71 18	 lea	 esi, DWORD PTR [ecx+24]
  0002a	c7 45 08 ff ff
	ff ff		 mov	 DWORD PTR _nReturn$1$[ebp], -1
  00031	33 ff		 xor	 edi, edi
  00033	89 45 0c	 mov	 DWORD PTR tv527[ebp], eax
  00036	03 f0		 add	 esi, eax
  00038	0f 1f 84 00 00
	00 00 00	 npad	 8
$LL4@GetRequire:

; 4877 : 	{
; 4878 : 		for(int iRank = 0; iRank < MAX_SKILLTREE_RANK; iRank++)

  00040	bb 09 00 00 00	 mov	 ebx, 9
$LL7@GetRequire:

; 4879 : 		{
; 4880 : 			for(int iPos = 0; iPos < MAX_SKILLTREE_POS; iPos++)

  00045	33 c9		 xor	 ecx, ecx
  00047	8b c6		 mov	 eax, esi
  00049	0f 1f 80 00 00
	00 00		 npad	 7
$LL10@GetRequire:

; 4881 : 			{
; 4882 : 				if( this->m_SkillTreeData[iClass].m_SkillInfo[iTreeKind][iRank][iPos].m_iSkillID == iSkill )

  00050	39 10		 cmp	 DWORD PTR [eax], edx
  00052	74 0e		 je	 SHORT $LN20@GetRequire

; 4879 : 		{
; 4880 : 			for(int iPos = 0; iPos < MAX_SKILLTREE_POS; iPos++)

  00054	41		 inc	 ecx
  00055	83 c0 14	 add	 eax, 20			; 00000014H
  00058	83 f9 04	 cmp	 ecx, 4
  0005b	7c f3		 jl	 SHORT $LL10@GetRequire

; 4881 : 			{
; 4882 : 				if( this->m_SkillTreeData[iClass].m_SkillInfo[iTreeKind][iRank][iPos].m_iSkillID == iSkill )

  0005d	8b 4d 08	 mov	 ecx, DWORD PTR _nReturn$1$[ebp]
  00060	eb 17		 jmp	 SHORT $LN5@GetRequire
$LN20@GetRequire:

; 4883 : 				{
; 4884 : 					nReturn = this->m_SkillTreeData[iClass].m_SkillInfo[iTreeKind][iRank][iPos].m_btPoint;

  00062	8d 04 0f	 lea	 eax, DWORD PTR [edi+ecx]
  00065	8b 4d 0c	 mov	 ecx, DWORD PTR tv527[ebp]
  00068	8d 04 80	 lea	 eax, DWORD PTR [eax+eax*4]
  0006b	8d 04 81	 lea	 eax, DWORD PTR [ecx+eax*4]
  0006e	8b 4d fc	 mov	 ecx, DWORD PTR _this$1$[ebp]
  00071	0f b6 4c 08 0c	 movzx	 ecx, BYTE PTR [eax+ecx+12]
  00076	89 4d 08	 mov	 DWORD PTR _nReturn$1$[ebp], ecx
$LN5@GetRequire:

; 4877 : 	{
; 4878 : 		for(int iRank = 0; iRank < MAX_SKILLTREE_RANK; iRank++)

  00079	83 c6 50	 add	 esi, 80			; 00000050H
  0007c	83 c7 04	 add	 edi, 4
  0007f	83 eb 01	 sub	 ebx, 1
  00082	75 c1		 jne	 SHORT $LL7@GetRequire

; 4875 : 
; 4876 : 	for(int iTreeKind = 0; iTreeKind < MAX_SKILLTREE_TYPE; iTreeKind++)

  00084	83 ff 6c	 cmp	 edi, 108		; 0000006cH
  00087	7c b7		 jl	 SHORT $LL4@GetRequire

; 4885 : 					break;
; 4886 : 				}
; 4887 : 			}
; 4888 : 		}
; 4889 : 	}
; 4890 : return nReturn;

  00089	5f		 pop	 edi
  0008a	5e		 pop	 esi
  0008b	8b c1		 mov	 eax, ecx
  0008d	5b		 pop	 ebx

; 4891 : }

  0008e	8b e5		 mov	 esp, ebp
  00090	5d		 pop	 ebp
  00091	c2 08 00	 ret	 8
$LN14@GetRequire:

; 4869 : 	{
; 4870 : 		LogAddTD("[MasterLevelSkillTreeSystem] GetRequireMLPoint - Invalid Skill Code : %d",iSkill);

  00094	52		 push	 edx
  00095	68 00 00 00 00	 push	 OFFSET ??_C@_0EJ@IOMPPJNP@?$FLMasterLevelSkillTreeSystem?$FN?5Get@
  0009a	ff 15 00 00 00
	00		 call	 DWORD PTR ?LogAddTD@@3P6AXPADZZA ; LogAddTD
  000a0	83 c4 08	 add	 esp, 8
  000a3	83 c8 ff	 or	 eax, -1

; 4891 : }

  000a6	8b e5		 mov	 esp, ebp
  000a8	5d		 pop	 ebp
  000a9	c2 08 00	 ret	 8
$LN12@GetRequire:

; 4863 : 	{
; 4864 : 		LogAddTD("[MasterLevelSkillTreeSystem] GetRequireMLPoint - Invalid Class Code  : %d",iClass);

  000ac	50		 push	 eax
  000ad	68 00 00 00 00	 push	 OFFSET ??_C@_0EK@FPJIEBPO@?$FLMasterLevelSkillTreeSystem?$FN?5Get@
  000b2	ff 15 00 00 00
	00		 call	 DWORD PTR ?LogAddTD@@3P6AXPADZZA ; LogAddTD
  000b8	83 c4 08	 add	 esp, 8

; 4865 : 		return -1;

  000bb	83 c8 ff	 or	 eax, -1

; 4891 : }

  000be	8b e5		 mov	 esp, ebp
  000c0	5d		 pop	 ebp
  000c1	c2 08 00	 ret	 8
?GetRequireMLPoint@CMasterLevelSkillTreeSystem@@QAEHHH@Z ENDP ; CMasterLevelSkillTreeSystem::GetRequireMLPoint
_TEXT	ENDS
; Function compile flags: /Ogtp
; File c:\users\michel\desktop\source\gameserver\source\masterlevelskilltreesystem.cpp
;	COMDAT ?MLS_SkillPartyHeal@CMasterLevelSkillTreeSystem@@QAEXHHPAVCMagicInf@@@Z
_TEXT	SEGMENT
_iApplyHealDistance$ = -64				; size = 16
_lpObj$1$ = -48						; size = 4
_iApplyHealDistance$1$ = -44				; size = 4
_iApplyHealDistance$2$ = -40				; size = 4
_iApplyHealDistance$3$ = -36				; size = 4
_lpMagic$GSCopy$1$ = -32				; size = 4
_addlife$1$ = -28					; size = 4
tv512 = -24						; size = 4
_this$1$ = -24						; size = 4
_fSkillValue$1 = -24					; size = 4
_iApplyHealIndex$ = -20					; size = 16
__$ArrayPad$ = -4					; size = 4
_aIndex$ = 8						; size = 4
_aTargetIndex$ = 12					; size = 4
_lpMagic$ = 16						; size = 4
?MLS_SkillPartyHeal@CMasterLevelSkillTreeSystem@@QAEXHHPAVCMagicInf@@@Z PROC ; CMasterLevelSkillTreeSystem::MLS_SkillPartyHeal, COMDAT
; _this$ = ecx

; 7237 : {

  00000	55		 push	 ebp
  00001	8b ec		 mov	 ebp, esp
  00003	83 ec 40	 sub	 esp, 64			; 00000040H
  00006	a1 00 00 00 00	 mov	 eax, DWORD PTR ___security_cookie
  0000b	33 c5		 xor	 eax, ebp
  0000d	89 45 fc	 mov	 DWORD PTR __$ArrayPad$[ebp], eax
  00010	8b 55 08	 mov	 edx, DWORD PTR _aIndex$[ebp]
  00013	8b 45 10	 mov	 eax, DWORD PTR _lpMagic$[ebp]
  00016	89 4d e8	 mov	 DWORD PTR _this$1$[ebp], ecx

; 7238 : 	int skillSuccess = TRUE;
; 7239 : 	LPOBJ lpObj = &gObj[aIndex];

  00019	69 ca 40 27 00
	00		 imul	 ecx, edx, 10048
  0001f	56		 push	 esi
  00020	8b 75 0c	 mov	 esi, DWORD PTR _aTargetIndex$[ebp]
  00023	89 45 e0	 mov	 DWORD PTR _lpMagic$GSCopy$1$[ebp], eax
  00026	03 0d 00 00 00
	00		 add	 ecx, DWORD PTR ?gObj@@3PAUOBJECTSTRUCT@@A ; gObj
  0002c	89 4d d0	 mov	 DWORD PTR _lpObj$1$[ebp], ecx

; 7240 : 
; 7241 : 	if(lpObj->Class != CLASS_ELF)

  0002f	66 83 b9 90 00
	00 00 02	 cmp	 WORD PTR [ecx+144], 2
  00037	0f 85 2d 02 00
	00		 jne	 $LN6@MLS_SkillP

; 7242 : 	{
; 7243 : 		return;
; 7244 : 	}
; 7245 : 
; 7246 : 	if( !OBJMAX_RANGE(aTargetIndex) )

  0003d	85 f6		 test	 esi, esi
  0003f	78 0f		 js	 SHORT $LN38@MLS_SkillP
  00041	33 c0		 xor	 eax, eax
  00043	81 fe eb 2c 00
	00		 cmp	 esi, 11499		; 00002cebH
  00049	0f 9e c0	 setle	 al
  0004c	85 c0		 test	 eax, eax
  0004e	75 02		 jne	 SHORT $LN9@MLS_SkillP
$LN38@MLS_SkillP:

; 7247 : 	{
; 7248 : 		aTargetIndex = aIndex;

  00050	8b f2		 mov	 esi, edx
$LN9@MLS_SkillP:
  00052	53		 push	 ebx

; 7249 : 	}
; 7250 : 	
; 7251 : 	LPOBJ lpTargetObj = &gObj[aTargetIndex];

  00053	69 de 40 27 00
	00		 imul	 ebx, esi, 10048
  00059	57		 push	 edi

; 7252 : 
; 7253 : 	if( lpObj->PartyNumber == -1 || lpObj->PartyNumber != lpTargetObj->PartyNumber )

  0005a	8b b9 0c 06 00
	00		 mov	 edi, DWORD PTR [ecx+1548]
  00060	03 1d 00 00 00
	00		 add	 ebx, DWORD PTR ?gObj@@3PAUOBJECTSTRUCT@@A ; gObj
  00066	83 ff ff	 cmp	 edi, -1
  00069	0f 84 e5 01 00
	00		 je	 $LN11@MLS_SkillP
  0006f	3b bb 0c 06 00
	00		 cmp	 edi, DWORD PTR [ebx+1548]
  00075	0f 85 d9 01 00
	00		 jne	 $LN11@MLS_SkillP

; 7256 : 		return;
; 7257 : 	}	
; 7258 : 
; 7259 : 	int partynumber = lpObj->PartyNumber;
; 7260 : 	int addlife = (5 + (lpObj->Energy + lpObj->AddEnergy) / 5);

  0007b	8b 45 d0	 mov	 eax, DWORD PTR _lpObj$1$[ebp]
  0007e	0f b7 89 02 01
	00 00		 movzx	 ecx, WORD PTR [ecx+258]
  00085	0f b7 80 d6 00
	00 00		 movzx	 eax, WORD PTR [eax+214]
  0008c	03 c8		 add	 ecx, eax
  0008e	b8 67 66 66 66	 mov	 eax, 1717986919		; 66666667H
  00093	f7 e9		 imul	 ecx

; 7261 : 
; 7262 : 	if( lpMagic->m_Skill == AT_MSKILL_FE_PARTYHEAL1 )

  00095	8b 45 e0	 mov	 eax, DWORD PTR _lpMagic$GSCopy$1$[ebp]
  00098	d1 fa		 sar	 edx, 1
