; Listing generated by Microsoft (R) Optimizing Compiler Version 19.00.23506.0 

	TITLE	C:\Users\Michel\Desktop\Source\GameServer\Source\Mercenary.cpp
	.686P
	.XMM
	include listing.inc
	.model	flat

INCLUDELIB LIBCMT
INCLUDELIB OLDNAMES

PUBLIC	?__empty_global_delete@@YAXPAX@Z		; __empty_global_delete
PUBLIC	?__empty_global_delete@@YAXPAXI@Z		; __empty_global_delete
PUBLIC	??1OBJECTSTRUCT@@QAE@XZ				; OBJECTSTRUCT::~OBJECTSTRUCT
PUBLIC	??_EOBJECTSTRUCT@@QAEPAXI@Z			; OBJECTSTRUCT::`vector deleting destructor'
PUBLIC	??0CMercenary@@QAE@XZ				; CMercenary::CMercenary
PUBLIC	??1CMercenary@@UAE@XZ				; CMercenary::~CMercenary
PUBLIC	?CreateMercenary@CMercenary@@QAEHHHEE@Z		; CMercenary::CreateMercenary
PUBLIC	?DeleteMercenary@CMercenary@@QAEHH@Z		; CMercenary::DeleteMercenary
PUBLIC	?SearchEnemy@CMercenary@@QAEHPAUOBJECTSTRUCT@@@Z ; CMercenary::SearchEnemy
PUBLIC	?MercenaryAct@CMercenary@@QAEXH@Z		; CMercenary::MercenaryAct
PUBLIC	??_GCMercenary@@UAEPAXI@Z			; CMercenary::`scalar deleting destructor'
PUBLIC	??_7CMercenary@@6B@				; CMercenary::`vftable'
PUBLIC	?g_CsNPC_Mercenary@@3VCMercenary@@A		; g_CsNPC_Mercenary
PUBLIC	??_C@_0CO@NHOFBALN@?$FLCastleSiege?$FN?5Mercenary?5is?5broke@ ; `string'
PUBLIC	??_R4CMercenary@@6B@				; CMercenary::`RTTI Complete Object Locator'
PUBLIC	??_R0?AVCMercenary@@@8				; CMercenary `RTTI Type Descriptor'
PUBLIC	??_R3CMercenary@@8				; CMercenary::`RTTI Class Hierarchy Descriptor'
PUBLIC	??_R2CMercenary@@8				; CMercenary::`RTTI Base Class Array'
PUBLIC	??_R1A@?0A@EA@CMercenary@@8			; CMercenary::`RTTI Base Class Descriptor at (0,-1,0,64)'
EXTRN	??_M@YGXPAXIIP6EX0@Z@Z:PROC			; `eh vector destructor iterator'
EXTRN	??3@YAXPAXI@Z:PROC				; operator delete
EXTRN	??_V@YAXPAXI@Z:PROC				; operator delete[]
EXTRN	_atexit:PROC
EXTRN	?Get@Message@@QAEPADH@Z:PROC			; Message::Get
EXTRN	??1CSkillDelay@@UAE@XZ:PROC			; CSkillDelay::~CSkillDelay
EXTRN	??1TMonsterAIAgro@@UAE@XZ:PROC			; TMonsterAIAgro::~TMonsterAIAgro
EXTRN	?GetAttr@MapClass@@QAEEHH@Z:PROC		; MapClass::GetAttr
EXTRN	?gObjIsConnected@@YAHH@Z:PROC			; gObjIsConnected
EXTRN	?MsgOutput@@YAXHPADZZ:PROC			; MsgOutput
EXTRN	??_ECMercenary@@UAEPAXI@Z:PROC			; CMercenary::`vector deleting destructor'
EXTRN	@__security_check_cookie@4:PROC
EXTRN	___CxxFrameHandler3:PROC
EXTRN	??_7type_info@@6B@:QWORD			; type_info::`vftable'
EXTRN	?lMsg@@3VMessage@@A:BYTE			; lMsg
EXTRN	?LogAddTD@@3P6AXPADZZA:DWORD			; LogAddTD
EXTRN	?gObj@@3PAUOBJECTSTRUCT@@A:DWORD		; gObj
EXTRN	?MapC@@3PAVMapClass@@A:BYTE			; MapC
EXTRN	___security_cookie:DWORD
_BSS	SEGMENT
?g_CsNPC_Mercenary@@3VCMercenary@@A DQ 01H DUP (?)	; g_CsNPC_Mercenary
_BSS	ENDS
CRT$XCU	SEGMENT
?g_CsNPC_Mercenary$initializer$@@3P6AXXZA DD FLAT:??__Eg_CsNPC_Mercenary@@YAXXZ ; g_CsNPC_Mercenary$initializer$
CRT$XCU	ENDS
;	COMDAT ??_R1A@?0A@EA@CMercenary@@8
rdata$r	SEGMENT
??_R1A@?0A@EA@CMercenary@@8 DD FLAT:??_R0?AVCMercenary@@@8 ; CMercenary::`RTTI Base Class Descriptor at (0,-1,0,64)'
	DD	00H
	DD	00H
	DD	0ffffffffH
	DD	00H
	DD	040H
	DD	FLAT:??_R3CMercenary@@8
rdata$r	ENDS
;	COMDAT ??_R2CMercenary@@8
rdata$r	SEGMENT
??_R2CMercenary@@8 DD FLAT:??_R1A@?0A@EA@CMercenary@@8	; CMercenary::`RTTI Base Class Array'
rdata$r	ENDS
;	COMDAT ??_R3CMercenary@@8
rdata$r	SEGMENT
??_R3CMercenary@@8 DD 00H				; CMercenary::`RTTI Class Hierarchy Descriptor'
	DD	00H
	DD	01H
	DD	FLAT:??_R2CMercenary@@8
rdata$r	ENDS
;	COMDAT ??_R0?AVCMercenary@@@8
data$r	SEGMENT
??_R0?AVCMercenary@@@8 DD FLAT:??_7type_info@@6B@	; CMercenary `RTTI Type Descriptor'
	DD	00H
	DB	'.?AVCMercenary@@', 00H
data$r	ENDS
;	COMDAT ??_R4CMercenary@@6B@
rdata$r	SEGMENT
??_R4CMercenary@@6B@ DD 00H				; CMercenary::`RTTI Complete Object Locator'
	DD	00H
	DD	00H
	DD	FLAT:??_R0?AVCMercenary@@@8
	DD	FLAT:??_R3CMercenary@@8
rdata$r	ENDS
;	COMDAT ??_C@_0CO@NHOFBALN@?$FLCastleSiege?$FN?5Mercenary?5is?5broke@
CONST	SEGMENT
??_C@_0CO@NHOFBALN@?$FLCastleSiege?$FN?5Mercenary?5is?5broke@ DB '[Castle'
	DB	'Siege] Mercenary is broken [%d] - [%d]', 00H ; `string'
CONST	ENDS
;	COMDAT ??_7CMercenary@@6B@
CONST	SEGMENT
??_7CMercenary@@6B@ DD FLAT:??_R4CMercenary@@6B@	; CMercenary::`vftable'
	DD	FLAT:??_ECMercenary@@UAEPAXI@Z
CONST	ENDS
;	COMDAT xdata$x
xdata$x	SEGMENT
__ehfuncinfo$??_EOBJECTSTRUCT@@QAEPAXI@Z DD 019930522H
	DD	00H
	DD	00H
	DD	2 DUP(00H)
	DD	2 DUP(00H)
	DD	00H
	DD	05H
xdata$x	ENDS
; Function compile flags: /Ogtp
;	COMDAT ??__Fg_CsNPC_Mercenary@@YAXXZ
text$yd	SEGMENT
??__Fg_CsNPC_Mercenary@@YAXXZ PROC			; `dynamic atexit destructor for 'g_CsNPC_Mercenary'', COMDAT
  00000	b9 00 00 00 00	 mov	 ecx, OFFSET ?g_CsNPC_Mercenary@@3VCMercenary@@A ; g_CsNPC_Mercenary
  00005	e9 00 00 00 00	 jmp	 ??1CMercenary@@UAE@XZ	; CMercenary::~CMercenary
??__Fg_CsNPC_Mercenary@@YAXXZ ENDP			; `dynamic atexit destructor for 'g_CsNPC_Mercenary''
text$yd	ENDS
; Function compile flags: /Ogtp
; File c:\users\michel\desktop\source\gameserver\source\mercenary.cpp
;	COMDAT ??__Eg_CsNPC_Mercenary@@YAXXZ
text$di	SEGMENT
??__Eg_CsNPC_Mercenary@@YAXXZ PROC			; `dynamic initializer for 'g_CsNPC_Mercenary'', COMDAT

; 11   : CMercenary g_CsNPC_Mercenary;

  00000	b9 00 00 00 00	 mov	 ecx, OFFSET ?g_CsNPC_Mercenary@@3VCMercenary@@A ; g_CsNPC_Mercenary
  00005	e8 00 00 00 00	 call	 ??0CMercenary@@QAE@XZ	; CMercenary::CMercenary
  0000a	68 00 00 00 00	 push	 OFFSET ??__Fg_CsNPC_Mercenary@@YAXXZ ; `dynamic atexit destructor for 'g_CsNPC_Mercenary''
  0000f	e8 00 00 00 00	 call	 _atexit
  00014	59		 pop	 ecx
  00015	c3		 ret	 0
??__Eg_CsNPC_Mercenary@@YAXXZ ENDP			; `dynamic initializer for 'g_CsNPC_Mercenary''
text$di	ENDS
; Function compile flags: /Ogtp
;	COMDAT ??_GCMercenary@@UAEPAXI@Z
_TEXT	SEGMENT
___flags$ = 8						; size = 4
??_GCMercenary@@UAEPAXI@Z PROC				; CMercenary::`scalar deleting destructor', COMDAT
; _this$ = ecx
  00000	55		 push	 ebp
  00001	8b ec		 mov	 ebp, esp
  00003	56		 push	 esi
  00004	8b f1		 mov	 esi, ecx
  00006	e8 00 00 00 00	 call	 ??1CMercenary@@UAE@XZ	; CMercenary::~CMercenary
  0000b	f6 45 08 01	 test	 BYTE PTR ___flags$[ebp], 1
  0000f	74 0b		 je	 SHORT $LN4@scalar
  00011	6a 08		 push	 8
  00013	56		 push	 esi
  00014	e8 00 00 00 00	 call	 ??3@YAXPAXI@Z		; operator delete
  00019	83 c4 08	 add	 esp, 8
$LN4@scalar:
  0001c	8b c6		 mov	 eax, esi
  0001e	5e		 pop	 esi
  0001f	5d		 pop	 ebp
  00020	c2 04 00	 ret	 4
??_GCMercenary@@UAEPAXI@Z ENDP				; CMercenary::`scalar deleting destructor'
_TEXT	ENDS
; Function compile flags: /Ogtp
; File c:\users\michel\desktop\source\gameserver\source\mercenary.cpp
;	COMDAT ?MercenaryAct@CMercenary@@QAEXH@Z
_TEXT	SEGMENT
_iIndex$ = 8						; size = 4
?MercenaryAct@CMercenary@@QAEXH@Z PROC			; CMercenary::MercenaryAct, COMDAT
; _this$ = ecx

; 79   : {

  00000	55		 push	 ebp
  00001	8b ec		 mov	 ebp, esp
  00003	56		 push	 esi

; 80   : 	if ( ::gObjIsConnected(iIndex) == FALSE )

  00004	8b 75 08	 mov	 esi, DWORD PTR _iIndex$[ebp]
  00007	57		 push	 edi
  00008	56		 push	 esi
  00009	8b f9		 mov	 edi, ecx
  0000b	e8 00 00 00 00	 call	 ?gObjIsConnected@@YAHH@Z ; gObjIsConnected
  00010	83 c4 04	 add	 esp, 4
  00013	85 c0		 test	 eax, eax
  00015	74 51		 je	 SHORT $LN5@MercenaryA

; 81   : 	{
; 82   : 		return;
; 83   : 	}
; 84   : 
; 85   : 	LPOBJ lpObj = &gObj[iIndex];

  00017	69 f6 40 27 00
	00		 imul	 esi, esi, 10048
  0001d	03 35 00 00 00
	00		 add	 esi, DWORD PTR ?gObj@@3PAUOBJECTSTRUCT@@A ; gObj

; 86   : 
; 87   : 
; 88   : 	if ( lpObj->VPCount2 < 1 )

  00023	83 be d0 0f 00
	00 01		 cmp	 DWORD PTR [esi+4048], 1
  0002a	7c 3c		 jl	 SHORT $LN5@MercenaryA

; 89   : 	{
; 90   : 		return;
; 91   : 	}
; 92   : 
; 93   : 	if ( this->SearchEnemy(lpObj) != 0 && lpObj->TargetNumber >= 0)

  0002c	56		 push	 esi
  0002d	8b cf		 mov	 ecx, edi
  0002f	e8 00 00 00 00	 call	 ?SearchEnemy@CMercenary@@QAEHPAUOBJECTSTRUCT@@@Z ; CMercenary::SearchEnemy
  00034	85 c0		 test	 eax, eax
  00036	74 23		 je	 SHORT $LN4@MercenaryA
  00038	66 83 be 38 06
	00 00 00	 cmp	 WORD PTR [esi+1592], 0
  00040	7c 19		 jl	 SHORT $LN4@MercenaryA

; 94   : 	{
; 95   : 		lpObj->m_ActState.Attack = 1;
; 96   : 		lpObj->NextActionTime = lpObj->m_AttackSpeed;

  00042	8b 86 6c 06 00
	00		 mov	 eax, DWORD PTR [esi+1644]
  00048	83 8e c8 01 00
	00 02		 or	 DWORD PTR [esi+456], 2
  0004f	5f		 pop	 edi

; 97   : 	}
; 98   : 	else
; 99   : 	{
; 100  : 		lpObj->NextActionTime = lpObj->m_MoveSpeed;

  00050	89 86 a0 05 00
	00		 mov	 DWORD PTR [esi+1440], eax
  00056	5e		 pop	 esi

; 101  : 	}
; 102  : }

  00057	5d		 pop	 ebp
  00058	c2 04 00	 ret	 4
$LN4@MercenaryA:

; 97   : 	}
; 98   : 	else
; 99   : 	{
; 100  : 		lpObj->NextActionTime = lpObj->m_MoveSpeed;

  0005b	0f bf 86 8c 06
	00 00		 movsx	 eax, WORD PTR [esi+1676]
  00062	89 86 a0 05 00
	00		 mov	 DWORD PTR [esi+1440], eax
$LN5@MercenaryA:
  00068	5f		 pop	 edi
  00069	5e		 pop	 esi

; 101  : 	}
; 102  : }

  0006a	5d		 pop	 ebp
  0006b	c2 04 00	 ret	 4
?MercenaryAct@CMercenary@@QAEXH@Z ENDP			; CMercenary::MercenaryAct
_TEXT	ENDS
; Function compile flags: /Ogtp
; File c:\users\michel\desktop\source\gameserver\source\mercenary.cpp
;	COMDAT ?SearchEnemy@CMercenary@@QAEHPAUOBJECTSTRUCT@@@Z
_TEXT	SEGMENT
_lpObj$ = 8						; size = 4
?SearchEnemy@CMercenary@@QAEHPAUOBJECTSTRUCT@@@Z PROC	; CMercenary::SearchEnemy, COMDAT
; _this$ = ecx

; 72   : 	return 0;

  00000	33 c0		 xor	 eax, eax

; 73   : }

  00002	c2 04 00	 ret	 4
?SearchEnemy@CMercenary@@QAEHPAUOBJECTSTRUCT@@@Z ENDP	; CMercenary::SearchEnemy
_TEXT	ENDS
; Function compile flags: /Ogtp
; File c:\users\michel\desktop\source\gameserver\source\mercenary.cpp
;	COMDAT ?DeleteMercenary@CMercenary@@QAEHH@Z
_TEXT	SEGMENT
_iIndex$ = 8						; size = 4
?DeleteMercenary@CMercenary@@QAEHH@Z PROC		; CMercenary::DeleteMercenary, COMDAT
; _this$ = ecx

; 49   : {

  00000	55		 push	 ebp
  00001	8b ec		 mov	 ebp, esp

; 50   : 	if ( iIndex < 0 || iIndex > OBJMAX-1 )

  00003	8b 45 08	 mov	 eax, DWORD PTR _iIndex$[ebp]
  00006	56		 push	 esi
  00007	8b f1		 mov	 esi, ecx
  00009	3d eb 2c 00 00	 cmp	 eax, 11499		; 00002cebH
  0000e	77 2c		 ja	 SHORT $LN3@DeleteMerc

; 53   : 	}
; 54   : 
; 55   : 	this->m_iMercenaryCount--;

  00010	ff 4e 04	 dec	 DWORD PTR [esi+4]

; 56   : 
; 57   : 	LogAddTD("[CastleSiege] Mercenary is broken [%d] - [%d]", iIndex, this->m_iMercenaryCount);

  00013	ff 76 04	 push	 DWORD PTR [esi+4]
  00016	50		 push	 eax
  00017	68 00 00 00 00	 push	 OFFSET ??_C@_0CO@NHOFBALN@?$FLCastleSiege?$FN?5Mercenary?5is?5broke@
  0001c	ff 15 00 00 00
	00		 call	 DWORD PTR ?LogAddTD@@3P6AXPADZZA ; LogAddTD
  00022	83 c4 0c	 add	 esp, 12			; 0000000cH

; 58   : 
; 59   : 	if ( this->m_iMercenaryCount < 0 )

  00025	83 7e 04 00	 cmp	 DWORD PTR [esi+4], 0
  00029	7d 07		 jge	 SHORT $LN4@DeleteMerc

; 60   : 	{
; 61   : 		this->m_iMercenaryCount = 0;

  0002b	c7 46 04 00 00
	00 00		 mov	 DWORD PTR [esi+4], 0
$LN4@DeleteMerc:

; 62   : 	}
; 63   : 
; 64   : 	return TRUE;

  00032	b8 01 00 00 00	 mov	 eax, 1
  00037	5e		 pop	 esi

; 65   : }

  00038	5d		 pop	 ebp
  00039	c2 04 00	 ret	 4
$LN3@DeleteMerc:

; 51   : 	{
; 52   : 		return FALSE;

  0003c	33 c0		 xor	 eax, eax
  0003e	5e		 pop	 esi

; 65   : }

  0003f	5d		 pop	 ebp
  00040	c2 04 00	 ret	 4
?DeleteMercenary@CMercenary@@QAEHH@Z ENDP		; CMercenary::DeleteMercenary
_TEXT	ENDS
; Function compile flags: /Ogtp
; File c:\users\michel\desktop\source\gameserver\source\mercenary.cpp
;	COMDAT ?CreateMercenary@CMercenary@@QAEHHHEE@Z
_TEXT	SEGMENT
_iIndex$ = 8						; size = 4
_iMercenaryTypeIndex$ = 12				; size = 4
_cTX$ = 16						; size = 1
_cTY$ = 20						; size = 1
?CreateMercenary@CMercenary@@QAEHHHEE@Z PROC		; CMercenary::CreateMercenary, COMDAT
; _this$ = ecx

; 29   : {

  00000	55		 push	 ebp
  00001	8b ec		 mov	 ebp, esp

; 30   : 	LPOBJ lpObj = &gObj[iIndex];
; 31   : 	int iMonsterIndex = -1;
; 32   : 	BYTE cX = cTX;
; 33   : 	BYTE cY = cTY;
; 34   : 
; 35   : 	BYTE btMapAttr = MapC[lpObj->MapNumber].GetAttr(cX, cY);

  00003	0f b6 45 14	 movzx	 eax, BYTE PTR _cTY$[ebp]
  00007	56		 push	 esi
  00008	57		 push	 edi
  00009	8b 7d 08	 mov	 edi, DWORD PTR _iIndex$[ebp]
  0000c	69 f7 40 27 00
	00		 imul	 esi, edi, 10048
  00012	50		 push	 eax
  00013	0f b6 45 10	 movzx	 eax, BYTE PTR _cTX$[ebp]
  00017	50		 push	 eax
  00018	03 35 00 00 00
	00		 add	 esi, DWORD PTR ?gObj@@3PAUOBJECTSTRUCT@@A ; gObj
  0001e	0f b6 86 23 01
	00 00		 movzx	 eax, BYTE PTR [esi+291]
  00025	69 c8 28 38 05
	00		 imul	 ecx, eax, 342056
  0002b	81 c1 00 00 00
	00		 add	 ecx, OFFSET ?MapC@@3PAVMapClass@@A ; MapC
  00031	e8 00 00 00 00	 call	 ?GetAttr@MapClass@@QAEEHH@Z ; MapClass::GetAttr

; 36   : 
; 37   : 	if ( lpObj->MapNumber != MAP_INDEX_CASTLESIEGE )

  00036	80 be 23 01 00
	00 1e		 cmp	 BYTE PTR [esi+291], 30	; 0000001eH
  0003d	74 21		 je	 SHORT $LN2@CreateMerc

; 38   : 	{
; 39   : 		::MsgOutput(iIndex, lMsg.Get(MSGGET(6, 91)));

  0003f	68 5b 06 00 00	 push	 1627			; 0000065bH
  00044	b9 00 00 00 00	 mov	 ecx, OFFSET ?lMsg@@3VMessage@@A ; lMsg
  00049	e8 00 00 00 00	 call	 ?Get@Message@@QAEPADH@Z	; Message::Get
  0004e	50		 push	 eax
  0004f	57		 push	 edi
  00050	e8 00 00 00 00	 call	 ?MsgOutput@@YAXHPADZZ	; MsgOutput
  00055	83 c4 08	 add	 esp, 8

; 40   : 
; 41   : 		return FALSE;

  00058	33 c0		 xor	 eax, eax
  0005a	5f		 pop	 edi
  0005b	5e		 pop	 esi

; 45   : }

  0005c	5d		 pop	 ebp
  0005d	c2 10 00	 ret	 16			; 00000010H
$LN2@CreateMerc:
  00060	5f		 pop	 edi

; 42   : 	}
; 43   : 
; 44   : 	return TRUE;

  00061	b8 01 00 00 00	 mov	 eax, 1
  00066	5e		 pop	 esi

; 45   : }

  00067	5d		 pop	 ebp
  00068	c2 10 00	 ret	 16			; 00000010H
?CreateMercenary@CMercenary@@QAEHHHEE@Z ENDP		; CMercenary::CreateMercenary
_TEXT	ENDS
; Function compile flags: /Ogtp
; File c:\users\michel\desktop\source\gameserver\source\mercenary.cpp
;	COMDAT ??1CMercenary@@UAE@XZ
_TEXT	SEGMENT
??1CMercenary@@UAE@XZ PROC				; CMercenary::~CMercenary, COMDAT
; _this$ = ecx

; 22   : {

  00000	c7 01 00 00 00
	00		 mov	 DWORD PTR [ecx], OFFSET ??_7CMercenary@@6B@

; 23   : 	return;
; 24   : }

  00006	c3		 ret	 0
??1CMercenary@@UAE@XZ ENDP				; CMercenary::~CMercenary
_TEXT	ENDS
; Function compile flags: /Ogtp
; File c:\users\michel\desktop\source\gameserver\source\mercenary.cpp
;	COMDAT ??0CMercenary@@QAE@XZ
_TEXT	SEGMENT
??0CMercenary@@QAE@XZ PROC				; CMercenary::CMercenary, COMDAT
; _this$ = ecx

; 14   : {

  00000	c7 01 00 00 00
	00		 mov	 DWORD PTR [ecx], OFFSET ??_7CMercenary@@6B@

; 15   : 	this->m_iMercenaryCount = 0;
; 16   : }

  00006	8b c1		 mov	 eax, ecx
  00008	c7 41 04 00 00
	00 00		 mov	 DWORD PTR [ecx+4], 0
  0000f	c3		 ret	 0
??0CMercenary@@QAE@XZ ENDP				; CMercenary::CMercenary
_TEXT	ENDS
; Function compile flags: /Ogtp
;	COMDAT ??_EOBJECTSTRUCT@@QAEPAXI@Z
_TEXT	SEGMENT
__$EHRec$ = -12						; size = 12
___flags$ = 8						; size = 4
??_EOBJECTSTRUCT@@QAEPAXI@Z PROC			; OBJECTSTRUCT::`vector deleting destructor', COMDAT
; _this$ = ecx
  00000	55		 push	 ebp
  00001	8b ec		 mov	 ebp, esp
  00003	6a ff		 push	 -1
  00005	68 00 00 00 00	 push	 __ehhandler$??_EOBJECTSTRUCT@@QAEPAXI@Z
  0000a	64 a1 00 00 00
	00		 mov	 eax, DWORD PTR fs:0
  00010	50		 push	 eax
  00011	53		 push	 ebx
  00012	56		 push	 esi
  00013	57		 push	 edi
  00014	a1 00 00 00 00	 mov	 eax, DWORD PTR ___security_cookie
  00019	33 c5		 xor	 eax, ebp
  0001b	50		 push	 eax
  0001c	8d 45 f4	 lea	 eax, DWORD PTR __$EHRec$[ebp]
  0001f	64 a3 00 00 00
	00		 mov	 DWORD PTR fs:0, eax
  00025	8b f1		 mov	 esi, ecx
  00027	8b 5d 08	 mov	 ebx, DWORD PTR ___flags$[ebp]
  0002a	f6 c3 02	 test	 bl, 2
  0002d	74 44		 je	 SHORT $LN2@vector
  0002f	68 00 00 00 00	 push	 OFFSET ??1OBJECTSTRUCT@@QAE@XZ
  00034	ff 76 fc	 push	 DWORD PTR [esi-4]
  00037	8d 7e fc	 lea	 edi, DWORD PTR [esi-4]
  0003a	68 40 27 00 00	 push	 10048			; 00002740H
  0003f	56		 push	 esi
  00040	e8 00 00 00 00	 call	 ??_M@YGXPAXIIP6EX0@Z@Z
  00045	f6 c3 01	 test	 bl, 1
  00048	74 13		 je	 SHORT $LN3@vector
  0004a	69 0f 40 27 00
	00		 imul	 ecx, DWORD PTR [edi], 10048
  00050	83 c1 04	 add	 ecx, 4
  00053	51		 push	 ecx
  00054	57		 push	 edi
  00055	e8 00 00 00 00	 call	 ??_V@YAXPAXI@Z		; operator delete[]
  0005a	83 c4 08	 add	 esp, 8
$LN3@vector:
  0005d	8b c7		 mov	 eax, edi
  0005f	8b 4d f4	 mov	 ecx, DWORD PTR __$EHRec$[ebp]
  00062	64 89 0d 00 00
	00 00		 mov	 DWORD PTR fs:0, ecx
  00069	59		 pop	 ecx
  0006a	5f		 pop	 edi
  0006b	5e		 pop	 esi
  0006c	5b		 pop	 ebx
  0006d	8b e5		 mov	 esp, ebp
  0006f	5d		 pop	 ebp
  00070	c2 04 00	 ret	 4
$LN2@vector:
  00073	8d 8e ec 20 00
	00		 lea	 ecx, DWORD PTR [esi+8428]
  00079	e8 00 00 00 00	 call	 ??1TMonsterAIAgro@@UAE@XZ ; TMonsterAIAgro::~TMonsterAIAgro
  0007e	8d 8e 0c 16 00
	00		 lea	 ecx, DWORD PTR [esi+5644]
  00084	e8 00 00 00 00	 call	 ??1CSkillDelay@@UAE@XZ	; CSkillDelay::~CSkillDelay
  00089	f6 c3 01	 test	 bl, 1
  0008c	74 0e		 je	 SHORT $LN4@vector
  0008e	68 40 27 00 00	 push	 10048			; 00002740H
  00093	56		 push	 esi
  00094	e8 00 00 00 00	 call	 ??3@YAXPAXI@Z		; operator delete
  00099	83 c4 08	 add	 esp, 8
$LN4@vector:
  0009c	8b c6		 mov	 eax, esi
  0009e	8b 4d f4	 mov	 ecx, DWORD PTR __$EHRec$[ebp]
  000a1	64 89 0d 00 00
	00 00		 mov	 DWORD PTR fs:0, ecx
  000a8	59		 pop	 ecx
  000a9	5f		 pop	 edi
  000aa	5e		 pop	 esi
  000ab	5b		 pop	 ebx
  000ac	8b e5		 mov	 esp, ebp
  000ae	5d		 pop	 ebp
  000af	c2 04 00	 ret	 4
_TEXT	ENDS
;	COMDAT text$x
text$x	SEGMENT
__ehhandler$??_EOBJECTSTRUCT@@QAEPAXI@Z:
  00000	8b 54 24 08	 mov	 edx, DWORD PTR [esp+8]
  00004	8d 42 0c	 lea	 eax, DWORD PTR [edx+12]
  00007	8b 4a f0	 mov	 ecx, DWORD PTR [edx-16]
  0000a	33 c8		 xor	 ecx, eax
  0000c	e8 00 00 00 00	 call	 @__security_check_cookie@4
  00011	b8 00 00 00 00	 mov	 eax, OFFSET __ehfuncinfo$??_EOBJECTSTRUCT@@QAEPAXI@Z
  00016	e9 00 00 00 00	 jmp	 ___CxxFrameHandler3
text$x	ENDS
??_EOBJECTSTRUCT@@QAEPAXI@Z ENDP			; OBJECTSTRUCT::`vector deleting destructor'
; Function compile flags: /Ogtp
;	COMDAT ??1OBJECTSTRUCT@@QAE@XZ
_TEXT	SEGMENT
??1OBJECTSTRUCT@@QAE@XZ PROC				; OBJECTSTRUCT::~OBJECTSTRUCT, COMDAT
; _this$ = ecx
  00000	56		 push	 esi
  00001	8b f1		 mov	 esi, ecx
  00003	8d 8e ec 20 00
	00		 lea	 ecx, DWORD PTR [esi+8428]
  00009	e8 00 00 00 00	 call	 ??1TMonsterAIAgro@@UAE@XZ ; TMonsterAIAgro::~TMonsterAIAgro
  0000e	8d 8e 0c 16 00
	00		 lea	 ecx, DWORD PTR [esi+5644]
  00014	5e		 pop	 esi
  00015	e9 00 00 00 00	 jmp	 ??1CSkillDelay@@UAE@XZ	; CSkillDelay::~CSkillDelay
??1OBJECTSTRUCT@@QAE@XZ ENDP				; OBJECTSTRUCT::~OBJECTSTRUCT
_TEXT	ENDS
; Function compile flags: /Ogtp
; File c:\users\michel\desktop\source\gameserver\source\mercenary.cpp
;	COMDAT ?__empty_global_delete@@YAXPAXI@Z
_TEXT	SEGMENT
___formal$ = 8						; size = 4
___formal$ = 12						; size = 4
?__empty_global_delete@@YAXPAXI@Z PROC			; __empty_global_delete, COMDAT

; 103  : }

  00000	c3		 ret	 0
?__empty_global_delete@@YAXPAXI@Z ENDP			; __empty_global_delete
_TEXT	ENDS
; Function compile flags: /Ogtp
; File c:\users\michel\desktop\source\gameserver\source\mercenary.cpp
;	COMDAT ?__empty_global_delete@@YAXPAX@Z
_TEXT	SEGMENT
___formal$ = 8						; size = 4
?__empty_global_delete@@YAXPAX@Z PROC			; __empty_global_delete, COMDAT

; 103  : }

  00000	c3		 ret	 0
?__empty_global_delete@@YAXPAX@Z ENDP			; __empty_global_delete
_TEXT	ENDS
END
