; Listing generated by Microsoft (R) Optimizing Compiler Version 19.00.23506.0 

	TITLE	C:\Users\Michel\Desktop\Source\GameServer\Source\Message.cpp
	.686P
	.XMM
	include listing.inc
	.model	flat

INCLUDELIB LIBCMT
INCLUDELIB OLDNAMES

PUBLIC	?__empty_global_delete@@YAXPAX@Z		; __empty_global_delete
PUBLIC	?__empty_global_delete@@YAXPAXI@Z		; __empty_global_delete
PUBLIC	___local_stdio_printf_options
PUBLIC	??$__vcrt_va_start_verify_argument_type@QBD@@YAXXZ ; __vcrt_va_start_verify_argument_type<char const * const>
PUBLIC	_sprintf
PUBLIC	??0Message@@QAE@XZ				; Message::Message
PUBLIC	??1Message@@UAE@XZ				; Message::~Message
PUBLIC	?Init@Message@@QAEXXZ				; Message::Init
PUBLIC	?Load@Message@@QAEXXZ				; Message::Load
PUBLIC	?Read@Message@@QAEXPAD@Z			; Message::Read
PUBLIC	?Get@Message@@QAEPADH@Z				; Message::Get
PUBLIC	?deallocate@?$allocator@UMessageBody@@@std@@QAEXPAUMessageBody@@I@Z ; std::allocator<MessageBody>::deallocate
PUBLIC	?allocate@?$allocator@UMessageBody@@@std@@QAEPAUMessageBody@@I@Z ; std::allocator<MessageBody>::allocate
PUBLIC	?_Reallocate@?$vector@UMessageBody@@V?$allocator@UMessageBody@@@std@@@std@@IAEXI@Z ; std::vector<MessageBody,std::allocator<MessageBody> >::_Reallocate
PUBLIC	?_Reserve@?$vector@UMessageBody@@V?$allocator@UMessageBody@@@std@@@std@@IAEXI@Z ; std::vector<MessageBody,std::allocator<MessageBody> >::_Reserve
PUBLIC	??_GMessage@@UAEPAXI@Z				; Message::`scalar deleting destructor'
PUBLIC	??1OBJECTSTRUCT@@QAE@XZ				; OBJECTSTRUCT::~OBJECTSTRUCT
PUBLIC	??_EOBJECTSTRUCT@@QAEPAXI@Z			; OBJECTSTRUCT::`vector deleting destructor'
PUBLIC	??$_Uninit_move@PAUMessageBody@@PAU1@V?$allocator@UMessageBody@@@std@@U1@@std@@YAPAUMessageBody@@PAU1@00AAU?$_Wrap_alloc@V?$allocator@UMessageBody@@@std@@@0@0U_Nonscalar_ptr_iterator_tag@0@@Z ; std::_Uninit_move<MessageBody *,MessageBody *,std::allocator<MessageBody>,MessageBody>
PUBLIC	?_OptionsStorage@?1??__local_stdio_printf_options@@9@4_KA ; `__local_stdio_printf_options'::`2'::_OptionsStorage
PUBLIC	??_C@_00CNPNBAHC@?$AA@				; `string'
PUBLIC	??_7Message@@6B@				; Message::`vftable'
PUBLIC	?lMsg@@3VMessage@@A				; lMsg
PUBLIC	??_C@_0M@IMGBFNBG@Message?4xml?$AA@		; `string'
PUBLIC	??_C@_0BM@LEEFLJKE@?$FLMessage?$FN?5Loading?5fail?5?$FL?$CFs?$FN?$AA@ ; `string'
PUBLIC	??_C@_0M@PAEEAFPO@translation?$AA@		; `string'
PUBLIC	??_C@_08MBJIKOEN@category?$AA@			; `string'
PUBLIC	??_C@_07ONPBMBOP@message?$AA@			; `string'
PUBLIC	??_C@_02EGCJHIOB@id?$AA@			; `string'
PUBLIC	??_C@_05FKHKFDID@index?$AA@			; `string'
PUBLIC	??_C@_0BF@BOLOJHL@MsgError?3?5?$CFd?5?$CI?$CFd?9?$CFd?$CJ?$AA@ ; `string'
PUBLIC	??_C@_0BD@OLBABOEK@vector?$DMT?$DO?5too?5long?$AA@ ; `string'
PUBLIC	??_R4Message@@6B@				; Message::`RTTI Complete Object Locator'
PUBLIC	??_R0?AVMessage@@@8				; Message `RTTI Type Descriptor'
PUBLIC	??_R3Message@@8					; Message::`RTTI Class Hierarchy Descriptor'
PUBLIC	??_R2Message@@8					; Message::`RTTI Base Class Array'
PUBLIC	??_R1A@?0A@EA@Message@@8			; Message::`RTTI Base Class Descriptor at (0,-1,0,64)'
EXTRN	??_M@YGXPAXIIP6EX0@Z@Z:PROC			; `eh vector destructor iterator'
EXTRN	??2@YAPAXI@Z:PROC				; operator new
EXTRN	??3@YAXPAX@Z:PROC				; operator delete
EXTRN	??3@YAXPAXI@Z:PROC				; operator delete
EXTRN	??_V@YAXPAXI@Z:PROC				; operator delete[]
EXTRN	_atexit:PROC
EXTRN	__invalid_parameter_noinfo_noreturn:PROC
EXTRN	___stdio_common_vsprintf:PROC
EXTRN	?_Xbad_alloc@std@@YAXXZ:PROC			; std::_Xbad_alloc
EXTRN	?_Xlength_error@std@@YAXPBD@Z:PROC		; std::_Xlength_error
EXTRN	??_EMessage@@UAEPAXI@Z:PROC			; Message::`vector deleting destructor'
EXTRN	?MsgBox@@YAXPADZZ:PROC				; MsgBox
EXTRN	?GetNewPath@CDirPath@@QAEPADPAD@Z:PROC		; CDirPath::GetNewPath
EXTRN	??1CSkillDelay@@UAE@XZ:PROC			; CSkillDelay::~CSkillDelay
EXTRN	??1TMonsterAIAgro@@UAE@XZ:PROC			; TMonsterAIAgro::~TMonsterAIAgro
EXTRN	?as_int@xml_attribute@pugi@@QBEHH@Z:PROC	; pugi::xml_attribute::as_int
EXTRN	??Bxml_node@pugi@@QBEP6AXPAPAPAV01@@ZXZ:PROC	; pugi::xml_node::operator void (__cdecl*)(pugi::xml_node * * *)
EXTRN	?next_sibling@xml_node@pugi@@QBE?AV12@XZ:PROC	; pugi::xml_node::next_sibling
EXTRN	?text@xml_node@pugi@@QBE?AVxml_text@2@XZ:PROC	; pugi::xml_node::text
EXTRN	?child@xml_node@pugi@@QBE?AV12@PBD@Z:PROC	; pugi::xml_node::child
EXTRN	?attribute@xml_node@pugi@@QBE?AVxml_attribute@2@PBD@Z:PROC ; pugi::xml_node::attribute
EXTRN	?as_string@xml_text@pugi@@QBEPBDPBD@Z:PROC	; pugi::xml_text::as_string
EXTRN	??0xml_document@pugi@@QAE@XZ:PROC		; pugi::xml_document::xml_document
EXTRN	??1xml_document@pugi@@QAE@XZ:PROC		; pugi::xml_document::~xml_document
EXTRN	?load_file@xml_document@pugi@@QAE?AUxml_parse_result@2@PBDIW4xml_encoding@2@@Z:PROC ; pugi::xml_document::load_file
EXTRN	@__security_check_cookie@4:PROC
EXTRN	__CxxThrowException@8:PROC
EXTRN	___CxxFrameHandler3:PROC
EXTRN	_memset:PROC
EXTRN	??_7type_info@@6B@:QWORD			; type_info::`vftable'
EXTRN	?gDirPath@@3VCDirPath@@A:BYTE			; gDirPath
EXTRN	___security_cookie:DWORD
;	COMDAT ?_OptionsStorage@?1??__local_stdio_printf_options@@9@4_KA
_BSS	SEGMENT
?_OptionsStorage@?1??__local_stdio_printf_options@@9@4_KA DQ 01H DUP (?) ; `__local_stdio_printf_options'::`2'::_OptionsStorage
_BSS	ENDS
_BSS	SEGMENT
?lMsg@@3VMessage@@A DB 010H DUP (?)			; lMsg
_BSS	ENDS
CRT$XCU	SEGMENT
?lMsg$initializer$@@3P6AXXZA DD FLAT:??__ElMsg@@YAXXZ	; lMsg$initializer$
CRT$XCU	ENDS
;	COMDAT ??_R1A@?0A@EA@Message@@8
rdata$r	SEGMENT
??_R1A@?0A@EA@Message@@8 DD FLAT:??_R0?AVMessage@@@8	; Message::`RTTI Base Class Descriptor at (0,-1,0,64)'
	DD	00H
	DD	00H
	DD	0ffffffffH
	DD	00H
	DD	040H
	DD	FLAT:??_R3Message@@8
rdata$r	ENDS
;	COMDAT ??_R2Message@@8
rdata$r	SEGMENT
??_R2Message@@8 DD FLAT:??_R1A@?0A@EA@Message@@8	; Message::`RTTI Base Class Array'
rdata$r	ENDS
;	COMDAT ??_R3Message@@8
rdata$r	SEGMENT
??_R3Message@@8 DD 00H					; Message::`RTTI Class Hierarchy Descriptor'
	DD	00H
	DD	01H
	DD	FLAT:??_R2Message@@8
rdata$r	ENDS
;	COMDAT ??_R0?AVMessage@@@8
data$r	SEGMENT
??_R0?AVMessage@@@8 DD FLAT:??_7type_info@@6B@		; Message `RTTI Type Descriptor'
	DD	00H
	DB	'.?AVMessage@@', 00H
data$r	ENDS
;	COMDAT ??_R4Message@@6B@
rdata$r	SEGMENT
??_R4Message@@6B@ DD 00H				; Message::`RTTI Complete Object Locator'
	DD	00H
	DD	00H
	DD	FLAT:??_R0?AVMessage@@@8
	DD	FLAT:??_R3Message@@8
rdata$r	ENDS
;	COMDAT ??_C@_0BD@OLBABOEK@vector?$DMT?$DO?5too?5long?$AA@
CONST	SEGMENT
??_C@_0BD@OLBABOEK@vector?$DMT?$DO?5too?5long?$AA@ DB 'vector<T> too long'
	DB	00H						; `string'
CONST	ENDS
;	COMDAT ??_C@_0BF@BOLOJHL@MsgError?3?5?$CFd?5?$CI?$CFd?9?$CFd?$CJ?$AA@
CONST	SEGMENT
??_C@_0BF@BOLOJHL@MsgError?3?5?$CFd?5?$CI?$CFd?9?$CFd?$CJ?$AA@ DB 'MsgErr'
	DB	'or: %d (%d-%d)', 00H			; `string'
CONST	ENDS
;	COMDAT ??_C@_05FKHKFDID@index?$AA@
CONST	SEGMENT
??_C@_05FKHKFDID@index?$AA@ DB 'index', 00H		; `string'
CONST	ENDS
;	COMDAT ??_C@_02EGCJHIOB@id?$AA@
CONST	SEGMENT
??_C@_02EGCJHIOB@id?$AA@ DB 'id', 00H			; `string'
CONST	ENDS
;	COMDAT ??_C@_07ONPBMBOP@message?$AA@
CONST	SEGMENT
??_C@_07ONPBMBOP@message?$AA@ DB 'message', 00H		; `string'
CONST	ENDS
;	COMDAT ??_C@_08MBJIKOEN@category?$AA@
CONST	SEGMENT
??_C@_08MBJIKOEN@category?$AA@ DB 'category', 00H	; `string'
CONST	ENDS
;	COMDAT ??_C@_0M@PAEEAFPO@translation?$AA@
CONST	SEGMENT
??_C@_0M@PAEEAFPO@translation?$AA@ DB 'translation', 00H ; `string'
CONST	ENDS
;	COMDAT ??_C@_0BM@LEEFLJKE@?$FLMessage?$FN?5Loading?5fail?5?$FL?$CFs?$FN?$AA@
CONST	SEGMENT
??_C@_0BM@LEEFLJKE@?$FLMessage?$FN?5Loading?5fail?5?$FL?$CFs?$FN?$AA@ DB '['
	DB	'Message] Loading fail [%s]', 00H		; `string'
CONST	ENDS
;	COMDAT ??_C@_0M@IMGBFNBG@Message?4xml?$AA@
CONST	SEGMENT
??_C@_0M@IMGBFNBG@Message?4xml?$AA@ DB 'Message.xml', 00H ; `string'
CONST	ENDS
;	COMDAT ??_7Message@@6B@
CONST	SEGMENT
??_7Message@@6B@ DD FLAT:??_R4Message@@6B@		; Message::`vftable'
	DD	FLAT:??_EMessage@@UAEPAXI@Z
CONST	ENDS
;	COMDAT ??_C@_00CNPNBAHC@?$AA@
CONST	SEGMENT
??_C@_00CNPNBAHC@?$AA@ DB 00H				; `string'
CONST	ENDS
;	COMDAT xdata$x
xdata$x	SEGMENT
__ehfuncinfo$??_EOBJECTSTRUCT@@QAEPAXI@Z DD 019930522H
	DD	00H
	DD	00H
	DD	2 DUP(00H)
	DD	2 DUP(00H)
	DD	00H
	DD	05H
xdata$x	ENDS
;	COMDAT xdata$x
xdata$x	SEGMENT
__catchsym$?_Reallocate@?$vector@UMessageBody@@V?$allocator@UMessageBody@@@std@@@std@@IAEXI@Z$50 DD 040H
	DD	00H
	DD	00H
	DD	FLAT:__catch$?_Reallocate@?$vector@UMessageBody@@V?$allocator@UMessageBody@@@std@@@std@@IAEXI@Z$0
__unwindtable$?_Reallocate@?$vector@UMessageBody@@V?$allocator@UMessageBody@@@std@@@std@@IAEXI@Z DD 0ffffffffH
	DD	00H
	DD	0ffffffffH
	DD	00H
__tryblocktable$?_Reallocate@?$vector@UMessageBody@@V?$allocator@UMessageBody@@@std@@@std@@IAEXI@Z DD 00H
	DD	00H
	DD	01H
	DD	01H
	DD	FLAT:__catchsym$?_Reallocate@?$vector@UMessageBody@@V?$allocator@UMessageBody@@@std@@@std@@IAEXI@Z$50
__ehfuncinfo$?_Reallocate@?$vector@UMessageBody@@V?$allocator@UMessageBody@@@std@@@std@@IAEXI@Z DD 019930522H
	DD	02H
	DD	FLAT:__unwindtable$?_Reallocate@?$vector@UMessageBody@@V?$allocator@UMessageBody@@@std@@@std@@IAEXI@Z
	DD	01H
	DD	FLAT:__tryblocktable$?_Reallocate@?$vector@UMessageBody@@V?$allocator@UMessageBody@@@std@@@std@@IAEXI@Z
	DD	2 DUP(00H)
	DD	00H
	DD	01H
xdata$x	ENDS
;	COMDAT xdata$x
xdata$x	SEGMENT
__unwindtable$?Read@Message@@QAEXPAD@Z DD 0ffffffffH
	DD	FLAT:__unwindfunclet$?Read@Message@@QAEXPAD@Z$0
__ehfuncinfo$?Read@Message@@QAEXPAD@Z DD 019930522H
	DD	01H
	DD	FLAT:__unwindtable$?Read@Message@@QAEXPAD@Z
	DD	2 DUP(00H)
	DD	2 DUP(00H)
	DD	00H
	DD	01H
xdata$x	ENDS
; Function compile flags: /Ogtp
; File c:\program files (x86)\microsoft visual studio 14.0\vc\include\xmemory0
;	COMDAT ??$construct@UMessageBody@@U1@@?$allocator@UMessageBody@@@std@@QAEXPAUMessageBody@@$$QAU2@@Z
_TEXT	SEGMENT
__Ptr$ = 8						; size = 4
_<_Args_0>$ = 12					; size = 4
??$construct@UMessageBody@@U1@@?$allocator@UMessageBody@@@std@@QAEXPAUMessageBody@@$$QAU2@@Z PROC ; std::allocator<MessageBody>::construct<MessageBody,MessageBody>, COMDAT
; _this$ = ecx

; 654  : 		{	// construct _Objty(_Types...) at _Ptr

  00000	55		 push	 ebp
  00001	8b ec		 mov	 ebp, esp
  00003	57		 push	 edi

; 655  : 		::new ((void *)_Ptr) _Objty(_STD forward<_Types>(_Args)...);

  00004	8b 7d 08	 mov	 edi, DWORD PTR __Ptr$[ebp]
  00007	85 ff		 test	 edi, edi
  00009	74 0e		 je	 SHORT $LN3@construct
  0000b	56		 push	 esi
  0000c	8b 75 0c	 mov	 esi, DWORD PTR _<_Args_0>$[ebp]
  0000f	b9 40 00 00 00	 mov	 ecx, 64			; 00000040H
  00014	f3 a5		 rep movsd
  00016	66 a5		 movsw
  00018	5e		 pop	 esi
$LN3@construct:
  00019	5f		 pop	 edi

; 656  : 		}

  0001a	5d		 pop	 ebp
  0001b	c2 08 00	 ret	 8
??$construct@UMessageBody@@U1@@?$allocator@UMessageBody@@@std@@QAEXPAUMessageBody@@$$QAU2@@Z ENDP ; std::allocator<MessageBody>::construct<MessageBody,MessageBody>
_TEXT	ENDS
; Function compile flags: /Ogtp
; File c:\program files (x86)\microsoft visual studio 14.0\vc\include\xmemory0
;	COMDAT ??$construct@UMessageBody@@U1@@?$allocator_traits@V?$allocator@UMessageBody@@@std@@@std@@SAXAAV?$allocator@UMessageBody@@@1@PAUMessageBody@@$$QAU3@@Z
_TEXT	SEGMENT
__Al$ = 8						; size = 4
__Ptr$ = 12						; size = 4
_<_Args_0>$ = 16					; size = 4
??$construct@UMessageBody@@U1@@?$allocator_traits@V?$allocator@UMessageBody@@@std@@@std@@SAXAAV?$allocator@UMessageBody@@@1@PAUMessageBody@@$$QAU3@@Z PROC ; std::allocator_traits<std::allocator<MessageBody> >::construct<MessageBody,MessageBody>, COMDAT

; 772  : 		{	// construct _Objty(_Types...) at _Ptr

  00000	55		 push	 ebp
  00001	8b ec		 mov	 ebp, esp
  00003	57		 push	 edi

; 655  : 		::new ((void *)_Ptr) _Objty(_STD forward<_Types>(_Args)...);

  00004	8b 7d 0c	 mov	 edi, DWORD PTR __Ptr$[ebp]
  00007	85 ff		 test	 edi, edi
  00009	74 0e		 je	 SHORT $LN8@construct
  0000b	56		 push	 esi
  0000c	8b 75 10	 mov	 esi, DWORD PTR _<_Args_0>$[ebp]
  0000f	b9 40 00 00 00	 mov	 ecx, 64			; 00000040H
  00014	f3 a5		 rep movsd
  00016	66 a5		 movsw
  00018	5e		 pop	 esi
$LN8@construct:
  00019	5f		 pop	 edi

; 773  : 		_Al.construct(_Ptr, _STD forward<_Types>(_Args)...);
; 774  : 		}

  0001a	5d		 pop	 ebp
  0001b	c3		 ret	 0
??$construct@UMessageBody@@U1@@?$allocator_traits@V?$allocator@UMessageBody@@@std@@@std@@SAXAAV?$allocator@UMessageBody@@@1@PAUMessageBody@@$$QAU3@@Z ENDP ; std::allocator_traits<std::allocator<MessageBody> >::construct<MessageBody,MessageBody>
_TEXT	ENDS
; Function compile flags: /Ogtp
; File c:\program files (x86)\microsoft visual studio 14.0\vc\include\type_traits
;	COMDAT ??$forward@UMessageBody@@@std@@YA$$QAUMessageBody@@AAU1@@Z
_TEXT	SEGMENT
__Arg$ = 8						; size = 4
??$forward@UMessageBody@@@std@@YA$$QAUMessageBody@@AAU1@@Z PROC ; std::forward<MessageBody>, COMDAT

; 1233 : 	{	// forward an lvalue as either an lvalue or an rvalue

  00000	55		 push	 ebp
  00001	8b ec		 mov	 ebp, esp

; 1234 : 	return (static_cast<_Ty&&>(_Arg));

  00003	8b 45 08	 mov	 eax, DWORD PTR __Arg$[ebp]

; 1235 : 	}

  00006	5d		 pop	 ebp
  00007	c3		 ret	 0
??$forward@UMessageBody@@@std@@YA$$QAUMessageBody@@AAU1@@Z ENDP ; std::forward<MessageBody>
_TEXT	ENDS
; Function compile flags: /Ogtp
; File c:\program files (x86)\microsoft visual studio 14.0\vc\include\xmemory0
;	COMDAT ??$construct@UMessageBody@@U1@@?$_Wrap_alloc@V?$allocator@UMessageBody@@@std@@@std@@QAEXPAUMessageBody@@$$QAU2@@Z
_TEXT	SEGMENT
__Ptr$ = 8						; size = 4
_<_Args_0>$ = 12					; size = 4
??$construct@UMessageBody@@U1@@?$_Wrap_alloc@V?$allocator@UMessageBody@@@std@@@std@@QAEXPAUMessageBody@@$$QAU2@@Z PROC ; std::_Wrap_alloc<std::allocator<MessageBody> >::construct<MessageBody,MessageBody>, COMDAT
; _this$ = ecx

; 916  : 		{	// construct _Ty(_Types...) at _Ptr

  00000	55		 push	 ebp
  00001	8b ec		 mov	 ebp, esp
  00003	57		 push	 edi

; 655  : 		::new ((void *)_Ptr) _Objty(_STD forward<_Types>(_Args)...);

  00004	8b 7d 08	 mov	 edi, DWORD PTR __Ptr$[ebp]
  00007	85 ff		 test	 edi, edi
  00009	74 0e		 je	 SHORT $LN13@construct
  0000b	56		 push	 esi
  0000c	8b 75 0c	 mov	 esi, DWORD PTR _<_Args_0>$[ebp]
  0000f	b9 40 00 00 00	 mov	 ecx, 64			; 00000040H
  00014	f3 a5		 rep movsd
  00016	66 a5		 movsw
  00018	5e		 pop	 esi
$LN13@construct:
  00019	5f		 pop	 edi

; 917  : 		_Mytraits::construct(*this, _Ptr,
; 918  : 			_STD forward<_Types>(_Args)...);
; 919  : 		}

  0001a	5d		 pop	 ebp
  0001b	c2 08 00	 ret	 8
??$construct@UMessageBody@@U1@@?$_Wrap_alloc@V?$allocator@UMessageBody@@@std@@@std@@QAEXPAUMessageBody@@$$QAU2@@Z ENDP ; std::_Wrap_alloc<std::allocator<MessageBody> >::construct<MessageBody,MessageBody>
_TEXT	ENDS
; Function compile flags: /Ogtp
; File c:\program files (x86)\microsoft visual studio 14.0\vc\include\xmemory0
;	COMDAT ??$destroy@UMessageBody@@@?$allocator@UMessageBody@@@std@@QAEXPAUMessageBody@@@Z
_TEXT	SEGMENT
__Ptr$ = 8						; size = 4
??$destroy@UMessageBody@@@?$allocator@UMessageBody@@@std@@QAEXPAUMessageBody@@@Z PROC ; std::allocator<MessageBody>::destroy<MessageBody>, COMDAT
; _this$ = ecx

; 662  : 		_Ptr->~_Uty();
; 663  : 		}

  00000	c2 04 00	 ret	 4
??$destroy@UMessageBody@@@?$allocator@UMessageBody@@@std@@QAEXPAUMessageBody@@@Z ENDP ; std::allocator<MessageBody>::destroy<MessageBody>
_TEXT	ENDS
; Function compile flags: /Ogtp
; File c:\program files (x86)\microsoft visual studio 14.0\vc\include\xmemory
; File c:\program files (x86)\microsoft visual studio 14.0\vc\include\xmemory0
; File c:\program files (x86)\microsoft visual studio 14.0\vc\include\xmemory
;	COMDAT ??$_Uninit_move@PAUMessageBody@@PAU1@V?$allocator@UMessageBody@@@std@@U1@@std@@YAPAUMessageBody@@PAU1@00AAU?$_Wrap_alloc@V?$allocator@UMessageBody@@@std@@@0@0U_Nonscalar_ptr_iterator_tag@0@@Z
_TEXT	SEGMENT
__First$ = 8						; size = 4
__Last$ = 12						; size = 4
__Dest$ = 16						; size = 4
__Al$ = 20						; size = 4
___formal$ = 24						; size = 4
___formal$ = 28						; size = 1
??$_Uninit_move@PAUMessageBody@@PAU1@V?$allocator@UMessageBody@@@std@@U1@@std@@YAPAUMessageBody@@PAU1@00AAU?$_Wrap_alloc@V?$allocator@UMessageBody@@@std@@@0@0U_Nonscalar_ptr_iterator_tag@0@@Z PROC ; std::_Uninit_move<MessageBody *,MessageBody *,std::allocator<MessageBody>,MessageBody>, COMDAT

; 437  : 	{	// move [_First, _Last) to raw _Dest, using _Al, arbitrary type

  00000	55		 push	 ebp
  00001	8b ec		 mov	 ebp, esp

; 442  : 	for (; _First != _Last; ++_Dest, (void)++_First)

  00003	8b 55 08	 mov	 edx, DWORD PTR __First$[ebp]
  00006	8b 45 10	 mov	 eax, DWORD PTR __Dest$[ebp]
  00009	53		 push	 ebx
  0000a	8b 5d 0c	 mov	 ebx, DWORD PTR __Last$[ebp]
  0000d	3b d3		 cmp	 edx, ebx
  0000f	74 24		 je	 SHORT $LN3@Uninit_mov
  00011	56		 push	 esi
  00012	57		 push	 edi
$LL4@Uninit_mov:
; File c:\program files (x86)\microsoft visual studio 14.0\vc\include\xmemory0

; 655  : 		::new ((void *)_Ptr) _Objty(_STD forward<_Types>(_Args)...);

  00013	85 c0		 test	 eax, eax
  00015	74 0d		 je	 SHORT $LN2@Uninit_mov
  00017	b9 40 00 00 00	 mov	 ecx, 64			; 00000040H
  0001c	8b f2		 mov	 esi, edx
  0001e	8b f8		 mov	 edi, eax
  00020	f3 a5		 rep movsd
  00022	66 a5		 movsw
$LN2@Uninit_mov:
; File c:\program files (x86)\microsoft visual studio 14.0\vc\include\xmemory

; 442  : 	for (; _First != _Last; ++_Dest, (void)++_First)

  00024	81 c2 02 01 00
	00		 add	 edx, 258		; 00000102H
  0002a	05 02 01 00 00	 add	 eax, 258		; 00000102H
  0002f	3b d3		 cmp	 edx, ebx
  00031	75 e0		 jne	 SHORT $LL4@Uninit_mov
  00033	5f		 pop	 edi
  00034	5e		 pop	 esi
$LN3@Uninit_mov:
  00035	5b		 pop	 ebx

; 443  : 		_Al.construct(_Dest, (_Valty&&)*_First);
; 444  : 	_CATCH_ALL
; 445  : 	for (; _Next != _Dest; ++_Next)
; 446  : 		_Al.destroy(_Next);
; 447  : 	_RERAISE;
; 448  : 	_CATCH_END
; 449  : 	return (_Dest);
; 450  : 	}

  00036	5d		 pop	 ebp
  00037	c3		 ret	 0
??$_Uninit_move@PAUMessageBody@@PAU1@V?$allocator@UMessageBody@@@std@@U1@@std@@YAPAUMessageBody@@PAU1@00AAU?$_Wrap_alloc@V?$allocator@UMessageBody@@@std@@@0@0U_Nonscalar_ptr_iterator_tag@0@@Z ENDP ; std::_Uninit_move<MessageBody *,MessageBody *,std::allocator<MessageBody>,MessageBody>
_TEXT	ENDS
; Function compile flags: /Ogtp
; File c:\program files (x86)\microsoft visual studio 14.0\vc\include\xutility
;	COMDAT ??$_Val_type@PAUMessageBody@@@std@@YAPAUMessageBody@@PAU1@@Z
_TEXT	SEGMENT
___formal$ = 8						; size = 4
??$_Val_type@PAUMessageBody@@@std@@YAPAUMessageBody@@PAU1@@Z PROC ; std::_Val_type<MessageBody *>, COMDAT

; 875  : 	return (0);

  00000	33 c0		 xor	 eax, eax

; 876  : 	}

  00002	c3		 ret	 0
??$_Val_type@PAUMessageBody@@@std@@YAPAUMessageBody@@PAU1@@Z ENDP ; std::_Val_type<MessageBody *>
_TEXT	ENDS
; Function compile flags: /Ogtp
; File c:\program files (x86)\microsoft visual studio 14.0\vc\include\xmemory0
;	COMDAT ??$destroy@UMessageBody@@@?$allocator_traits@V?$allocator@UMessageBody@@@std@@@std@@SAXAAV?$allocator@UMessageBody@@@1@PAUMessageBody@@@Z
_TEXT	SEGMENT
__Al$ = 8						; size = 4
__Ptr$ = 12						; size = 4
??$destroy@UMessageBody@@@?$allocator_traits@V?$allocator@UMessageBody@@@std@@@std@@SAXAAV?$allocator@UMessageBody@@@1@PAUMessageBody@@@Z PROC ; std::allocator_traits<std::allocator<MessageBody> >::destroy<MessageBody>, COMDAT

; 780  : 		_Al.destroy(_Ptr);
; 781  : 		}

  00000	c3		 ret	 0
??$destroy@UMessageBody@@@?$allocator_traits@V?$allocator@UMessageBody@@@std@@@std@@SAXAAV?$allocator@UMessageBody@@@1@PAUMessageBody@@@Z ENDP ; std::allocator_traits<std::allocator<MessageBody> >::destroy<MessageBody>
_TEXT	ENDS
; Function compile flags: /Ogtp
; File c:\program files (x86)\microsoft visual studio 14.0\vc\include\xstddef
;	COMDAT ??$_Addressof@UMessageBody@@@std@@YAPAUMessageBody@@AAU1@U?$integral_constant@_N$0A@@0@@Z
_TEXT	SEGMENT
__Val$ = 8						; size = 4
___formal$ = 12						; size = 1
??$_Addressof@UMessageBody@@@std@@YAPAUMessageBody@@AAU1@U?$integral_constant@_N$0A@@0@@Z PROC ; std::_Addressof<MessageBody>, COMDAT

; 688  : 	{	// return address of object _Val

  00000	55		 push	 ebp
  00001	8b ec		 mov	 ebp, esp

; 689  : 	return (reinterpret_cast<_Ty *>(

  00003	8b 45 08	 mov	 eax, DWORD PTR __Val$[ebp]

; 690  : 		&const_cast<char&>(
; 691  : 		reinterpret_cast<const volatile char&>(_Val))));
; 692  : 	}

  00006	5d		 pop	 ebp
  00007	c3		 ret	 0
??$_Addressof@UMessageBody@@@std@@YAPAUMessageBody@@AAU1@U?$integral_constant@_N$0A@@0@@Z ENDP ; std::_Addressof<MessageBody>
_TEXT	ENDS
; Function compile flags: /Ogtp
; File c:\program files (x86)\microsoft visual studio 14.0\vc\include\xutility
;	COMDAT ??$_Rechecked@PAUMessageBody@@PAU1@@std@@YAAAPAUMessageBody@@AAPAU1@PAU1@@Z
_TEXT	SEGMENT
__Dest$ = 8						; size = 4
__Src$ = 12						; size = 4
??$_Rechecked@PAUMessageBody@@PAU1@@std@@YAAAPAUMessageBody@@AAPAU1@PAU1@@Z PROC ; std::_Rechecked<MessageBody *,MessageBody *>, COMDAT

; 446  : 	{	// reset checked from unchecked, generic

  00000	55		 push	 ebp
  00001	8b ec		 mov	 ebp, esp

; 447  : 	_Dest = _Src;

  00003	8b 45 08	 mov	 eax, DWORD PTR __Dest$[ebp]
  00006	8b 4d 0c	 mov	 ecx, DWORD PTR __Src$[ebp]
  00009	89 08		 mov	 DWORD PTR [eax], ecx

; 448  : 	return (_Dest);
; 449  : 	}

  0000b	5d		 pop	 ebp
  0000c	c3		 ret	 0
??$_Rechecked@PAUMessageBody@@PAU1@@std@@YAAAPAUMessageBody@@AAPAU1@PAU1@@Z ENDP ; std::_Rechecked<MessageBody *,MessageBody *>
_TEXT	ENDS
; Function compile flags: /Ogtp
; File c:\program files (x86)\microsoft visual studio 14.0\vc\include\xmemory
;	COMDAT ??$_Uninit_move@PAUMessageBody@@PAU1@U?$_Wrap_alloc@V?$allocator@UMessageBody@@@std@@@std@@@std@@YAPAUMessageBody@@PAU1@00AAU?$_Wrap_alloc@V?$allocator@UMessageBody@@@std@@@0@@Z
_TEXT	SEGMENT
__Cat$1 = -4						; size = 1
__First$ = 8						; size = 4
__Last$ = 12						; size = 4
__Dest$ = 16						; size = 4
__Al$ = 20						; size = 4
??$_Uninit_move@PAUMessageBody@@PAU1@U?$_Wrap_alloc@V?$allocator@UMessageBody@@@std@@@std@@@std@@YAPAUMessageBody@@PAU1@00AAU?$_Wrap_alloc@V?$allocator@UMessageBody@@@std@@@0@@Z PROC ; std::_Uninit_move<MessageBody *,MessageBody *,std::_Wrap_alloc<std::allocator<MessageBody> > >, COMDAT

; 480  : 	{	// move [_First, _Last) to raw _Dest, using _Al

  00000	55		 push	 ebp
  00001	8b ec		 mov	 ebp, esp
  00003	51		 push	 ecx

; 481  : 	return (_Uninit_move(_First, _Last, _Dest, _Al,

  00004	ff 75 fc	 push	 DWORD PTR __Cat$1[ebp]
  00007	6a 00		 push	 0
  00009	ff 75 14	 push	 DWORD PTR __Al$[ebp]
  0000c	ff 75 10	 push	 DWORD PTR __Dest$[ebp]
  0000f	ff 75 0c	 push	 DWORD PTR __Last$[ebp]
  00012	ff 75 08	 push	 DWORD PTR __First$[ebp]
  00015	e8 00 00 00 00	 call	 ??$_Uninit_move@PAUMessageBody@@PAU1@V?$allocator@UMessageBody@@@std@@U1@@std@@YAPAUMessageBody@@PAU1@00AAU?$_Wrap_alloc@V?$allocator@UMessageBody@@@std@@@0@0U_Nonscalar_ptr_iterator_tag@0@@Z ; std::_Uninit_move<MessageBody *,MessageBody *,std::allocator<MessageBody>,MessageBody>
  0001a	83 c4 18	 add	 esp, 24			; 00000018H

; 482  : 		_Val_type(_First), _Ptr_cat(_First, _Dest)));
; 483  : 	}

  0001d	8b e5		 mov	 esp, ebp
  0001f	5d		 pop	 ebp
  00020	c3		 ret	 0
??$_Uninit_move@PAUMessageBody@@PAU1@U?$_Wrap_alloc@V?$allocator@UMessageBody@@@std@@@std@@@std@@YAPAUMessageBody@@PAU1@00AAU?$_Wrap_alloc@V?$allocator@UMessageBody@@@std@@@0@@Z ENDP ; std::_Uninit_move<MessageBody *,MessageBody *,std::_Wrap_alloc<std::allocator<MessageBody> > >
_TEXT	ENDS
; Function compile flags: /Ogtp
; File c:\program files (x86)\microsoft visual studio 14.0\vc\include\xutility
;	COMDAT ??$_Unchecked@PAUMessageBody@@@std@@YAPAUMessageBody@@PAU1@@Z
_TEXT	SEGMENT
__Src$ = 8						; size = 4
??$_Unchecked@PAUMessageBody@@@std@@YAPAUMessageBody@@PAU1@@Z PROC ; std::_Unchecked<MessageBody *>, COMDAT

; 438  : 	{	// construct unchecked from checked, generic

  00000	55		 push	 ebp
  00001	8b ec		 mov	 ebp, esp

; 439  : 	return (_Src);

  00003	8b 45 08	 mov	 eax, DWORD PTR __Src$[ebp]

; 440  : 	}

  00006	5d		 pop	 ebp
  00007	c3		 ret	 0
??$_Unchecked@PAUMessageBody@@@std@@YAPAUMessageBody@@PAU1@@Z ENDP ; std::_Unchecked<MessageBody *>
_TEXT	ENDS
; Function compile flags: /Ogtp
; File c:\program files (x86)\microsoft visual studio 14.0\vc\include\xmemory0
;	COMDAT ??$destroy@UMessageBody@@@?$_Wrap_alloc@V?$allocator@UMessageBody@@@std@@@std@@QAEXPAUMessageBody@@@Z
_TEXT	SEGMENT
__Ptr$ = 8						; size = 4
??$destroy@UMessageBody@@@?$_Wrap_alloc@V?$allocator@UMessageBody@@@std@@@std@@QAEXPAUMessageBody@@@Z PROC ; std::_Wrap_alloc<std::allocator<MessageBody> >::destroy<MessageBody>, COMDAT
; _this$ = ecx

; 925  : 		_Mytraits::destroy(*this, _Ptr);
; 926  : 		}

  00000	c2 04 00	 ret	 4
??$destroy@UMessageBody@@@?$_Wrap_alloc@V?$allocator@UMessageBody@@@std@@@std@@QAEXPAUMessageBody@@@Z ENDP ; std::_Wrap_alloc<std::allocator<MessageBody> >::destroy<MessageBody>
_TEXT	ENDS
; Function compile flags: /Ogtp
; File c:\program files (x86)\microsoft visual studio 14.0\vc\include\xstddef
;	COMDAT ??$addressof@UMessageBody@@@std@@YAPAUMessageBody@@AAU1@@Z
_TEXT	SEGMENT
__Val$ = 8						; size = 4
??$addressof@UMessageBody@@@std@@YAPAUMessageBody@@AAU1@@Z PROC ; std::addressof<MessageBody>, COMDAT

; 696  : 	{	// return address of _Val

  00000	55		 push	 ebp
  00001	8b ec		 mov	 ebp, esp

; 697  : 	return (_Addressof(_Val, is_function<_Ty>()));

  00003	8b 45 08	 mov	 eax, DWORD PTR __Val$[ebp]

; 698  : 	}

  00006	5d		 pop	 ebp
  00007	c3		 ret	 0
??$addressof@UMessageBody@@@std@@YAPAUMessageBody@@AAU1@@Z ENDP ; std::addressof<MessageBody>
_TEXT	ENDS
; Function compile flags: /Ogtp
; File c:\program files (x86)\microsoft visual studio 14.0\vc\include\xmemory0
;	COMDAT ??$construct@UMessageBody@@ABU1@@?$allocator@UMessageBody@@@std@@QAEXPAUMessageBody@@ABU2@@Z
_TEXT	SEGMENT
__Ptr$ = 8						; size = 4
_<_Args_0>$ = 12					; size = 4
??$construct@UMessageBody@@ABU1@@?$allocator@UMessageBody@@@std@@QAEXPAUMessageBody@@ABU2@@Z PROC ; std::allocator<MessageBody>::construct<MessageBody,MessageBody const &>, COMDAT
; _this$ = ecx

; 654  : 		{	// construct _Objty(_Types...) at _Ptr

  00000	55		 push	 ebp
  00001	8b ec		 mov	 ebp, esp
  00003	57		 push	 edi

; 655  : 		::new ((void *)_Ptr) _Objty(_STD forward<_Types>(_Args)...);

  00004	8b 7d 08	 mov	 edi, DWORD PTR __Ptr$[ebp]
  00007	85 ff		 test	 edi, edi
  00009	74 0e		 je	 SHORT $LN3@construct
  0000b	56		 push	 esi
  0000c	8b 75 0c	 mov	 esi, DWORD PTR _<_Args_0>$[ebp]
  0000f	b9 40 00 00 00	 mov	 ecx, 64			; 00000040H
  00014	f3 a5		 rep movsd
  00016	66 a5		 movsw
  00018	5e		 pop	 esi
$LN3@construct:
  00019	5f		 pop	 edi

; 656  : 		}

  0001a	5d		 pop	 ebp
  0001b	c2 08 00	 ret	 8
??$construct@UMessageBody@@ABU1@@?$allocator@UMessageBody@@@std@@QAEXPAUMessageBody@@ABU2@@Z ENDP ; std::allocator<MessageBody>::construct<MessageBody,MessageBody const &>
_TEXT	ENDS
; Function compile flags: /Ogtp
; File c:\program files (x86)\microsoft visual studio 14.0\vc\include\xmemory0
;	COMDAT ??$construct@UMessageBody@@AAU1@@?$allocator@UMessageBody@@@std@@QAEXPAUMessageBody@@AAU2@@Z
_TEXT	SEGMENT
__Ptr$ = 8						; size = 4
_<_Args_0>$ = 12					; size = 4
??$construct@UMessageBody@@AAU1@@?$allocator@UMessageBody@@@std@@QAEXPAUMessageBody@@AAU2@@Z PROC ; std::allocator<MessageBody>::construct<MessageBody,MessageBody &>, COMDAT
; _this$ = ecx

; 654  : 		{	// construct _Objty(_Types...) at _Ptr

  00000	55		 push	 ebp
  00001	8b ec		 mov	 ebp, esp
  00003	57		 push	 edi

; 655  : 		::new ((void *)_Ptr) _Objty(_STD forward<_Types>(_Args)...);

  00004	8b 7d 08	 mov	 edi, DWORD PTR __Ptr$[ebp]
  00007	85 ff		 test	 edi, edi
  00009	74 0e		 je	 SHORT $LN3@construct
  0000b	56		 push	 esi
  0000c	8b 75 0c	 mov	 esi, DWORD PTR _<_Args_0>$[ebp]
  0000f	b9 40 00 00 00	 mov	 ecx, 64			; 00000040H
  00014	f3 a5		 rep movsd
  00016	66 a5		 movsw
  00018	5e		 pop	 esi
$LN3@construct:
  00019	5f		 pop	 edi

; 656  : 		}

  0001a	5d		 pop	 ebp
  0001b	c2 08 00	 ret	 8
??$construct@UMessageBody@@AAU1@@?$allocator@UMessageBody@@@std@@QAEXPAUMessageBody@@AAU2@@Z ENDP ; std::allocator<MessageBody>::construct<MessageBody,MessageBody &>
_TEXT	ENDS
; Function compile flags: /Ogtp
; File c:\program files (x86)\microsoft visual studio 14.0\vc\include\xmemory
;	COMDAT ??$_Uninitialized_move@PAUMessageBody@@PAU1@U?$_Wrap_alloc@V?$allocator@UMessageBody@@@std@@@std@@@std@@YAPAUMessageBody@@PAU1@00AAU?$_Wrap_alloc@V?$allocator@UMessageBody@@@std@@@0@@Z
_TEXT	SEGMENT
__First$ = 8						; size = 4
__Last$ = 12						; size = 4
__Cat$1 = 16						; size = 1
__Dest$ = 16						; size = 4
__Al$ = 20						; size = 4
??$_Uninitialized_move@PAUMessageBody@@PAU1@U?$_Wrap_alloc@V?$allocator@UMessageBody@@@std@@@std@@@std@@YAPAUMessageBody@@PAU1@00AAU?$_Wrap_alloc@V?$allocator@UMessageBody@@@std@@@0@@Z PROC ; std::_Uninitialized_move<MessageBody *,MessageBody *,std::_Wrap_alloc<std::allocator<MessageBody> > >, COMDAT

; 490  : 	{	// move [_First, _Last) to raw _Dest, using _Al

  00000	55		 push	 ebp
  00001	8b ec		 mov	 ebp, esp

; 481  : 	return (_Uninit_move(_First, _Last, _Dest, _Al,

  00003	ff 75 10	 push	 DWORD PTR __Cat$1[ebp]
  00006	6a 00		 push	 0
  00008	ff 75 14	 push	 DWORD PTR __Al$[ebp]
  0000b	ff 75 10	 push	 DWORD PTR __Dest$[ebp]
  0000e	ff 75 0c	 push	 DWORD PTR __Last$[ebp]
  00011	ff 75 08	 push	 DWORD PTR __First$[ebp]
  00014	e8 00 00 00 00	 call	 ??$_Uninit_move@PAUMessageBody@@PAU1@V?$allocator@UMessageBody@@@std@@U1@@std@@YAPAUMessageBody@@PAU1@00AAU?$_Wrap_alloc@V?$allocator@UMessageBody@@@std@@@0@0U_Nonscalar_ptr_iterator_tag@0@@Z ; std::_Uninit_move<MessageBody *,MessageBody *,std::allocator<MessageBody>,MessageBody>
  00019	83 c4 18	 add	 esp, 24			; 00000018H

; 491  : 	return (_Rechecked(_Dest,
; 492  : 		_Uninit_move(_Unchecked(_First), _Unchecked(_Last),
; 493  : 			_Unchecked(_Dest), _Al)));
; 494  : 	}

  0001c	5d		 pop	 ebp
  0001d	c3		 ret	 0
??$_Uninitialized_move@PAUMessageBody@@PAU1@U?$_Wrap_alloc@V?$allocator@UMessageBody@@@std@@@std@@@std@@YAPAUMessageBody@@PAU1@00AAU?$_Wrap_alloc@V?$allocator@UMessageBody@@@std@@@0@@Z ENDP ; std::_Uninitialized_move<MessageBody *,MessageBody *,std::_Wrap_alloc<std::allocator<MessageBody> > >
_TEXT	ENDS
; Function compile flags: /Ogtp
; File c:\program files (x86)\microsoft visual studio 14.0\vc\include\xmemory0
;	COMDAT ??$_Destroy_range@U?$_Wrap_alloc@V?$allocator@UMessageBody@@@std@@@std@@@std@@YAXPAUMessageBody@@0AAU?$_Wrap_alloc@V?$allocator@UMessageBody@@@std@@@0@U_Nonscalar_ptr_iterator_tag@0@@Z
_TEXT	SEGMENT
__First$ = 8						; size = 4
__Last$ = 12						; size = 4
__Al$ = 16						; size = 4
___formal$ = 20						; size = 1
??$_Destroy_range@U?$_Wrap_alloc@V?$allocator@UMessageBody@@@std@@@std@@@std@@YAXPAUMessageBody@@0AAU?$_Wrap_alloc@V?$allocator@UMessageBody@@@std@@@0@U_Nonscalar_ptr_iterator_tag@0@@Z PROC ; std::_Destroy_range<std::_Wrap_alloc<std::allocator<MessageBody> > >, COMDAT

; 171  : 	for (; _First != _Last; ++_First)
; 172  : 		_Al.destroy(_STD addressof(*_First));
; 173  : 	}

  00000	c3		 ret	 0
??$_Destroy_range@U?$_Wrap_alloc@V?$allocator@UMessageBody@@@std@@@std@@@std@@YAXPAUMessageBody@@0AAU?$_Wrap_alloc@V?$allocator@UMessageBody@@@std@@@0@U_Nonscalar_ptr_iterator_tag@0@@Z ENDP ; std::_Destroy_range<std::_Wrap_alloc<std::allocator<MessageBody> > >
_TEXT	ENDS
; Function compile flags: /Ogtp
; File c:\program files (x86)\microsoft visual studio 14.0\vc\include\xutility
;	COMDAT ??$_Ptr_cat@UMessageBody@@U1@@std@@YA?AU_Nonscalar_ptr_iterator_tag@0@PAUMessageBody@@0@Z
_TEXT	SEGMENT
__Cat$ = -1						; size = 1
___formal$ = 8						; size = 4
___formal$ = 12						; size = 4
??$_Ptr_cat@UMessageBody@@U1@@std@@YA?AU_Nonscalar_ptr_iterator_tag@0@PAUMessageBody@@0@Z PROC ; std::_Ptr_cat<MessageBody,MessageBody>, COMDAT

; 640  : 	{	// return pointer category from pointers

  00000	55		 push	 ebp
  00001	8b ec		 mov	 ebp, esp
  00003	51		 push	 ecx

; 641  : 	typename _Ptr_cat_helper<_Elem1, _Elem2>::type _Cat;
; 642  : 	return (_Cat);

  00004	8a 45 ff	 mov	 al, BYTE PTR __Cat$[ebp]

; 643  : 	}

  00007	8b e5		 mov	 esp, ebp
  00009	5d		 pop	 ebp
  0000a	c3		 ret	 0
??$_Ptr_cat@UMessageBody@@U1@@std@@YA?AU_Nonscalar_ptr_iterator_tag@0@PAUMessageBody@@0@Z ENDP ; std::_Ptr_cat<MessageBody,MessageBody>
_TEXT	ENDS
; Function compile flags: /Ogtp
; File c:\program files (x86)\microsoft visual studio 14.0\vc\include\type_traits
;	COMDAT ??$forward@ABV?$allocator@UMessageBody@@@std@@@std@@YAABV?$allocator@UMessageBody@@@0@ABV10@@Z
_TEXT	SEGMENT
__Arg$ = 8						; size = 4
??$forward@ABV?$allocator@UMessageBody@@@std@@@std@@YAABV?$allocator@UMessageBody@@@0@ABV10@@Z PROC ; std::forward<std::allocator<MessageBody> const &>, COMDAT

; 1233 : 	{	// forward an lvalue as either an lvalue or an rvalue

  00000	55		 push	 ebp
  00001	8b ec		 mov	 ebp, esp

; 1234 : 	return (static_cast<_Ty&&>(_Arg));

  00003	8b 45 08	 mov	 eax, DWORD PTR __Arg$[ebp]

; 1235 : 	}

  00006	5d		 pop	 ebp
  00007	c3		 ret	 0
??$forward@ABV?$allocator@UMessageBody@@@std@@@std@@YAABV?$allocator@UMessageBody@@@0@ABV10@@Z ENDP ; std::forward<std::allocator<MessageBody> const &>
_TEXT	ENDS
; Function compile flags: /Ogtp
; File c:\program files (x86)\microsoft visual studio 14.0\vc\include\xmemory0
;	COMDAT ??$construct@UMessageBody@@ABU1@@?$allocator_traits@V?$allocator@UMessageBody@@@std@@@std@@SAXAAV?$allocator@UMessageBody@@@1@PAUMessageBody@@ABU3@@Z
_TEXT	SEGMENT
__Al$ = 8						; size = 4
__Ptr$ = 12						; size = 4
_<_Args_0>$ = 16					; size = 4
??$construct@UMessageBody@@ABU1@@?$allocator_traits@V?$allocator@UMessageBody@@@std@@@std@@SAXAAV?$allocator@UMessageBody@@@1@PAUMessageBody@@ABU3@@Z PROC ; std::allocator_traits<std::allocator<MessageBody> >::construct<MessageBody,MessageBody const &>, COMDAT

; 772  : 		{	// construct _Objty(_Types...) at _Ptr

  00000	55		 push	 ebp
  00001	8b ec		 mov	 ebp, esp
  00003	57		 push	 edi

; 655  : 		::new ((void *)_Ptr) _Objty(_STD forward<_Types>(_Args)...);

  00004	8b 7d 0c	 mov	 edi, DWORD PTR __Ptr$[ebp]
  00007	85 ff		 test	 edi, edi
  00009	74 0e		 je	 SHORT $LN8@construct
  0000b	56		 push	 esi
  0000c	8b 75 10	 mov	 esi, DWORD PTR _<_Args_0>$[ebp]
  0000f	b9 40 00 00 00	 mov	 ecx, 64			; 00000040H
  00014	f3 a5		 rep movsd
  00016	66 a5		 movsw
  00018	5e		 pop	 esi
$LN8@construct:
  00019	5f		 pop	 edi

; 773  : 		_Al.construct(_Ptr, _STD forward<_Types>(_Args)...);
; 774  : 		}

  0001a	5d		 pop	 ebp
  0001b	c3		 ret	 0
??$construct@UMessageBody@@ABU1@@?$allocator_traits@V?$allocator@UMessageBody@@@std@@@std@@SAXAAV?$allocator@UMessageBody@@@1@PAUMessageBody@@ABU3@@Z ENDP ; std::allocator_traits<std::allocator<MessageBody> >::construct<MessageBody,MessageBody const &>
_TEXT	ENDS
; Function compile flags: /Ogtp
; File c:\program files (x86)\microsoft visual studio 14.0\vc\include\type_traits
;	COMDAT ??$forward@ABUMessageBody@@@std@@YAABUMessageBody@@ABU1@@Z
_TEXT	SEGMENT
__Arg$ = 8						; size = 4
??$forward@ABUMessageBody@@@std@@YAABUMessageBody@@ABU1@@Z PROC ; std::forward<MessageBody const &>, COMDAT

; 1233 : 	{	// forward an lvalue as either an lvalue or an rvalue

  00000	55		 push	 ebp
  00001	8b ec		 mov	 ebp, esp

; 1234 : 	return (static_cast<_Ty&&>(_Arg));

  00003	8b 45 08	 mov	 eax, DWORD PTR __Arg$[ebp]

; 1235 : 	}

  00006	5d		 pop	 ebp
  00007	c3		 ret	 0
??$forward@ABUMessageBody@@@std@@YAABUMessageBody@@ABU1@@Z ENDP ; std::forward<MessageBody const &>
_TEXT	ENDS
; Function compile flags: /Ogtp
; File c:\program files (x86)\microsoft visual studio 14.0\vc\include\xmemory0
;	COMDAT ??$construct@UMessageBody@@AAU1@@?$allocator_traits@V?$allocator@UMessageBody@@@std@@@std@@SAXAAV?$allocator@UMessageBody@@@1@PAUMessageBody@@AAU3@@Z
_TEXT	SEGMENT
__Al$ = 8						; size = 4
__Ptr$ = 12						; size = 4
_<_Args_0>$ = 16					; size = 4
??$construct@UMessageBody@@AAU1@@?$allocator_traits@V?$allocator@UMessageBody@@@std@@@std@@SAXAAV?$allocator@UMessageBody@@@1@PAUMessageBody@@AAU3@@Z PROC ; std::allocator_traits<std::allocator<MessageBody> >::construct<MessageBody,MessageBody &>, COMDAT

; 772  : 		{	// construct _Objty(_Types...) at _Ptr

  00000	55		 push	 ebp
  00001	8b ec		 mov	 ebp, esp
  00003	57		 push	 edi

; 655  : 		::new ((void *)_Ptr) _Objty(_STD forward<_Types>(_Args)...);

  00004	8b 7d 0c	 mov	 edi, DWORD PTR __Ptr$[ebp]
  00007	85 ff		 test	 edi, edi
  00009	74 0e		 je	 SHORT $LN8@construct
  0000b	56		 push	 esi
  0000c	8b 75 10	 mov	 esi, DWORD PTR _<_Args_0>$[ebp]
  0000f	b9 40 00 00 00	 mov	 ecx, 64			; 00000040H
  00014	f3 a5		 rep movsd
  00016	66 a5		 movsw
  00018	5e		 pop	 esi
$LN8@construct:
  00019	5f		 pop	 edi

; 773  : 		_Al.construct(_Ptr, _STD forward<_Types>(_Args)...);
; 774  : 		}

  0001a	5d		 pop	 ebp
  0001b	c3		 ret	 0
??$construct@UMessageBody@@AAU1@@?$allocator_traits@V?$allocator@UMessageBody@@@std@@@std@@SAXAAV?$allocator@UMessageBody@@@1@PAUMessageBody@@AAU3@@Z ENDP ; std::allocator_traits<std::allocator<MessageBody> >::construct<MessageBody,MessageBody &>
_TEXT	ENDS
; Function compile flags: /Ogtp
; File c:\program files (x86)\microsoft visual studio 14.0\vc\include\type_traits
;	COMDAT ??$forward@AAUMessageBody@@@std@@YAAAUMessageBody@@AAU1@@Z
_TEXT	SEGMENT
__Arg$ = 8						; size = 4
??$forward@AAUMessageBody@@@std@@YAAAUMessageBody@@AAU1@@Z PROC ; std::forward<MessageBody &>, COMDAT

; 1233 : 	{	// forward an lvalue as either an lvalue or an rvalue

  00000	55		 push	 ebp
  00001	8b ec		 mov	 ebp, esp

; 1234 : 	return (static_cast<_Ty&&>(_Arg));

  00003	8b 45 08	 mov	 eax, DWORD PTR __Arg$[ebp]

; 1235 : 	}

  00006	5d		 pop	 ebp
  00007	c3		 ret	 0
??$forward@AAUMessageBody@@@std@@YAAAUMessageBody@@AAU1@@Z ENDP ; std::forward<MessageBody &>
_TEXT	ENDS
; Function compile flags: /Ogtp
; File c:\program files (x86)\microsoft visual studio 14.0\vc\include\xstddef
;	COMDAT ??$_Addressof@$$CBUMessageBody@@@std@@YAPBUMessageBody@@ABU1@U?$integral_constant@_N$0A@@0@@Z
_TEXT	SEGMENT
__Val$ = 8						; size = 4
___formal$ = 12						; size = 1
??$_Addressof@$$CBUMessageBody@@@std@@YAPBUMessageBody@@ABU1@U?$integral_constant@_N$0A@@0@@Z PROC ; std::_Addressof<MessageBody const >, COMDAT

; 688  : 	{	// return address of object _Val

  00000	55		 push	 ebp
  00001	8b ec		 mov	 ebp, esp

; 689  : 	return (reinterpret_cast<_Ty *>(

  00003	8b 45 08	 mov	 eax, DWORD PTR __Val$[ebp]

; 690  : 		&const_cast<char&>(
; 691  : 		reinterpret_cast<const volatile char&>(_Val))));
; 692  : 	}

  00006	5d		 pop	 ebp
  00007	c3		 ret	 0
??$_Addressof@$$CBUMessageBody@@@std@@YAPBUMessageBody@@ABU1@U?$integral_constant@_N$0A@@0@@Z ENDP ; std::_Addressof<MessageBody const >
_TEXT	ENDS
; Function compile flags: /Ogtp
; File c:\program files (x86)\microsoft visual studio 14.0\vc\include\vector
; File c:\program files (x86)\microsoft visual studio 14.0\vc\include\xmemory
; File c:\program files (x86)\microsoft visual studio 14.0\vc\include\vector
;	COMDAT ??$_Umove@PAUMessageBody@@@?$vector@UMessageBody@@V?$allocator@UMessageBody@@@std@@@std@@IAEPAUMessageBody@@PAU2@00@Z
_TEXT	SEGMENT
__First$ = 8						; size = 4
__Last$ = 12						; size = 4
__Cat$1 = 16						; size = 1
__Ptr$ = 16						; size = 4
??$_Umove@PAUMessageBody@@@?$vector@UMessageBody@@V?$allocator@UMessageBody@@@std@@@std@@IAEPAUMessageBody@@PAU2@00@Z PROC ; std::vector<MessageBody,std::allocator<MessageBody> >::_Umove<MessageBody *>, COMDAT
; _this$ = ecx

; 1677 : 		{	// move initializing [_First, _Last), using allocator

  00000	55		 push	 ebp
  00001	8b ec		 mov	 ebp, esp
; File c:\program files (x86)\microsoft visual studio 14.0\vc\include\xmemory

; 481  : 	return (_Uninit_move(_First, _Last, _Dest, _Al,

  00003	ff 75 10	 push	 DWORD PTR __Cat$1[ebp]
  00006	6a 00		 push	 0
  00008	51		 push	 ecx
  00009	ff 75 10	 push	 DWORD PTR __Ptr$[ebp]
  0000c	ff 75 0c	 push	 DWORD PTR __Last$[ebp]
  0000f	ff 75 08	 push	 DWORD PTR __First$[ebp]
  00012	e8 00 00 00 00	 call	 ??$_Uninit_move@PAUMessageBody@@PAU1@V?$allocator@UMessageBody@@@std@@U1@@std@@YAPAUMessageBody@@PAU1@00AAU?$_Wrap_alloc@V?$allocator@UMessageBody@@@std@@@0@0U_Nonscalar_ptr_iterator_tag@0@@Z ; std::_Uninit_move<MessageBody *,MessageBody *,std::allocator<MessageBody>,MessageBody>
  00017	83 c4 18	 add	 esp, 24			; 00000018H
; File c:\program files (x86)\microsoft visual studio 14.0\vc\include\vector

; 1680 : 		}

  0001a	5d		 pop	 ebp
  0001b	c2 0c 00	 ret	 12			; 0000000cH
??$_Umove@PAUMessageBody@@@?$vector@UMessageBody@@V?$allocator@UMessageBody@@@std@@@std@@IAEPAUMessageBody@@PAU2@00@Z ENDP ; std::vector<MessageBody,std::allocator<MessageBody> >::_Umove<MessageBody *>
_TEXT	ENDS
; Function compile flags: /Ogtp
; File c:\program files (x86)\microsoft visual studio 14.0\vc\include\xmemory0
;	COMDAT ??$_Destroy_range@U?$_Wrap_alloc@V?$allocator@UMessageBody@@@std@@@std@@@std@@YAXPAUMessageBody@@0AAU?$_Wrap_alloc@V?$allocator@UMessageBody@@@std@@@0@@Z
_TEXT	SEGMENT
__First$ = 8						; size = 4
__Last$ = 12						; size = 4
__Al$ = 16						; size = 4
??$_Destroy_range@U?$_Wrap_alloc@V?$allocator@UMessageBody@@@std@@@std@@@std@@YAXPAUMessageBody@@0AAU?$_Wrap_alloc@V?$allocator@UMessageBody@@@std@@@0@@Z PROC ; std::_Destroy_range<std::_Wrap_alloc<std::allocator<MessageBody> > >, COMDAT

; 186  : 	_Destroy_range(_First, _Last, _Al, _Ptr_cat(_First, _Last));
; 187  : 	}

  00000	c3		 ret	 0
??$_Destroy_range@U?$_Wrap_alloc@V?$allocator@UMessageBody@@@std@@@std@@@std@@YAXPAUMessageBody@@0AAU?$_Wrap_alloc@V?$allocator@UMessageBody@@@std@@@0@@Z ENDP ; std::_Destroy_range<std::_Wrap_alloc<std::allocator<MessageBody> > >
_TEXT	ENDS
; Function compile flags: /Ogtp
; File c:\program files (x86)\microsoft visual studio 14.0\vc\include\xutility
; File c:\program files (x86)\microsoft visual studio 14.0\vc\include\vector
; File c:\program files (x86)\microsoft visual studio 14.0\vc\include\xutility
; File c:\program files (x86)\microsoft visual studio 14.0\vc\include\vector
; File c:\program files (x86)\microsoft visual studio 14.0\vc\include\xutility
;	COMDAT ??$?0ABV?$allocator@UMessageBody@@@std@@$$V@?$_Compressed_pair@U?$_Wrap_alloc@V?$allocator@UMessageBody@@@std@@@std@@V?$_Vector_val@U?$_Simple_types@UMessageBody@@@std@@@2@$00@std@@QAE@U_One_then_variadic_args_t@1@ABV?$allocator@UMessageBody@@@1@@Z
_TEXT	SEGMENT
___formal$ = 8						; size = 1
__Val1$ = 12						; size = 4
??$?0ABV?$allocator@UMessageBody@@@std@@$$V@?$_Compressed_pair@U?$_Wrap_alloc@V?$allocator@UMessageBody@@@std@@@std@@V?$_Vector_val@U?$_Simple_types@UMessageBody@@@std@@@2@$00@std@@QAE@U_One_then_variadic_args_t@1@ABV?$allocator@UMessageBody@@@1@@Z PROC ; std::_Compressed_pair<std::_Wrap_alloc<std::allocator<MessageBody> >,std::_Vector_val<std::_Simple_types<MessageBody> >,1>::_Compressed_pair<std::_Wrap_alloc<std::allocator<MessageBody> >,std::_Vector_val<std::_Simple_types<MessageBody> >,1><std::allocator<MessageBody> const &>, COMDAT
; _this$ = ecx
; File c:\program files (x86)\microsoft visual studio 14.0\vc\include\vector

; 480  : 		_Myfirst = pointer();

  00000	c7 01 00 00 00
	00		 mov	 DWORD PTR [ecx], 0
; File c:\program files (x86)\microsoft visual studio 14.0\vc\include\xutility

; 289  : 		}

  00006	8b c1		 mov	 eax, ecx
; File c:\program files (x86)\microsoft visual studio 14.0\vc\include\vector

; 481  : 		_Mylast = pointer();

  00008	c7 41 04 00 00
	00 00		 mov	 DWORD PTR [ecx+4], 0

; 482  : 		_Myend = pointer();

  0000f	c7 41 08 00 00
	00 00		 mov	 DWORD PTR [ecx+8], 0
; File c:\program files (x86)\microsoft visual studio 14.0\vc\include\xutility

; 289  : 		}

  00016	c2 08 00	 ret	 8
??$?0ABV?$allocator@UMessageBody@@@std@@$$V@?$_Compressed_pair@U?$_Wrap_alloc@V?$allocator@UMessageBody@@@std@@@std@@V?$_Vector_val@U?$_Simple_types@UMessageBody@@@std@@@2@$00@std@@QAE@U_One_then_variadic_args_t@1@ABV?$allocator@UMessageBody@@@1@@Z ENDP ; std::_Compressed_pair<std::_Wrap_alloc<std::allocator<MessageBody> >,std::_Vector_val<std::_Simple_types<MessageBody> >,1>::_Compressed_pair<std::_Wrap_alloc<std::allocator<MessageBody> >,std::_Vector_val<std::_Simple_types<MessageBody> >,1><std::allocator<MessageBody> const &>
_TEXT	ENDS
; Function compile flags: /Ogtp
; File c:\program files (x86)\microsoft visual studio 14.0\vc\include\xmemory0
;	COMDAT ??$construct@UMessageBody@@ABU1@@?$_Wrap_alloc@V?$allocator@UMessageBody@@@std@@@std@@QAEXPAUMessageBody@@ABU2@@Z
_TEXT	SEGMENT
__Ptr$ = 8						; size = 4
_<_Args_0>$ = 12					; size = 4
??$construct@UMessageBody@@ABU1@@?$_Wrap_alloc@V?$allocator@UMessageBody@@@std@@@std@@QAEXPAUMessageBody@@ABU2@@Z PROC ; std::_Wrap_alloc<std::allocator<MessageBody> >::construct<MessageBody,MessageBody const &>, COMDAT
; _this$ = ecx

; 916  : 		{	// construct _Ty(_Types...) at _Ptr

  00000	55		 push	 ebp
  00001	8b ec		 mov	 ebp, esp
  00003	57		 push	 edi

; 655  : 		::new ((void *)_Ptr) _Objty(_STD forward<_Types>(_Args)...);

  00004	8b 7d 08	 mov	 edi, DWORD PTR __Ptr$[ebp]
  00007	85 ff		 test	 edi, edi
  00009	74 0e		 je	 SHORT $LN13@construct
  0000b	56		 push	 esi
  0000c	8b 75 0c	 mov	 esi, DWORD PTR _<_Args_0>$[ebp]
  0000f	b9 40 00 00 00	 mov	 ecx, 64			; 00000040H
  00014	f3 a5		 rep movsd
  00016	66 a5		 movsw
  00018	5e		 pop	 esi
$LN13@construct:
  00019	5f		 pop	 edi

; 917  : 		_Mytraits::construct(*this, _Ptr,
; 918  : 			_STD forward<_Types>(_Args)...);
; 919  : 		}

  0001a	5d		 pop	 ebp
  0001b	c2 08 00	 ret	 8
??$construct@UMessageBody@@ABU1@@?$_Wrap_alloc@V?$allocator@UMessageBody@@@std@@@std@@QAEXPAUMessageBody@@ABU2@@Z ENDP ; std::_Wrap_alloc<std::allocator<MessageBody> >::construct<MessageBody,MessageBody const &>
_TEXT	ENDS
; Function compile flags: /Ogtp
; File c:\program files (x86)\microsoft visual studio 14.0\vc\include\xmemory0
;	COMDAT ??$construct@UMessageBody@@AAU1@@?$_Wrap_alloc@V?$allocator@UMessageBody@@@std@@@std@@QAEXPAUMessageBody@@AAU2@@Z
_TEXT	SEGMENT
__Ptr$ = 8						; size = 4
_<_Args_0>$ = 12					; size = 4
??$construct@UMessageBody@@AAU1@@?$_Wrap_alloc@V?$allocator@UMessageBody@@@std@@@std@@QAEXPAUMessageBody@@AAU2@@Z PROC ; std::_Wrap_alloc<std::allocator<MessageBody> >::construct<MessageBody,MessageBody &>, COMDAT
; _this$ = ecx

; 916  : 		{	// construct _Ty(_Types...) at _Ptr

  00000	55		 push	 ebp
  00001	8b ec		 mov	 ebp, esp
  00003	57		 push	 edi

; 655  : 		::new ((void *)_Ptr) _Objty(_STD forward<_Types>(_Args)...);

  00004	8b 7d 08	 mov	 edi, DWORD PTR __Ptr$[ebp]
  00007	85 ff		 test	 edi, edi
  00009	74 0e		 je	 SHORT $LN13@construct
  0000b	56		 push	 esi
  0000c	8b 75 0c	 mov	 esi, DWORD PTR _<_Args_0>$[ebp]
  0000f	b9 40 00 00 00	 mov	 ecx, 64			; 00000040H
  00014	f3 a5		 rep movsd
  00016	66 a5		 movsw
  00018	5e		 pop	 esi
$LN13@construct:
  00019	5f		 pop	 edi

; 917  : 		_Mytraits::construct(*this, _Ptr,
; 918  : 			_STD forward<_Types>(_Args)...);
; 919  : 		}

  0001a	5d		 pop	 ebp
  0001b	c2 08 00	 ret	 8
??$construct@UMessageBody@@AAU1@@?$_Wrap_alloc@V?$allocator@UMessageBody@@@std@@@std@@QAEXPAUMessageBody@@AAU2@@Z ENDP ; std::_Wrap_alloc<std::allocator<MessageBody> >::construct<MessageBody,MessageBody &>
_TEXT	ENDS
; Function compile flags: /Ogtp
; File c:\program files (x86)\microsoft visual studio 14.0\vc\include\xstddef
;	COMDAT ??$addressof@$$CBUMessageBody@@@std@@YAPBUMessageBody@@ABU1@@Z
_TEXT	SEGMENT
__Val$ = 8						; size = 4
??$addressof@$$CBUMessageBody@@@std@@YAPBUMessageBody@@ABU1@@Z PROC ; std::addressof<MessageBody const >, COMDAT

; 696  : 	{	// return address of _Val

  00000	55		 push	 ebp
  00001	8b ec		 mov	 ebp, esp

; 697  : 	return (_Addressof(_Val, is_function<_Ty>()));

  00003	8b 45 08	 mov	 eax, DWORD PTR __Val$[ebp]

; 698  : 	}

  00006	5d		 pop	 ebp
  00007	c3		 ret	 0
??$addressof@$$CBUMessageBody@@@std@@YAPBUMessageBody@@ABU1@@Z ENDP ; std::addressof<MessageBody const >
_TEXT	ENDS
; Function compile flags: /Ogtp
;	COMDAT ??__FlMsg@@YAXXZ
text$yd	SEGMENT
??__FlMsg@@YAXXZ PROC					; `dynamic atexit destructor for 'lMsg'', COMDAT
  00000	b9 00 00 00 00	 mov	 ecx, OFFSET ?lMsg@@3VMessage@@A ; lMsg
  00005	e9 00 00 00 00	 jmp	 ??1Message@@UAE@XZ	; Message::~Message
??__FlMsg@@YAXXZ ENDP					; `dynamic atexit destructor for 'lMsg''
text$yd	ENDS
; Function compile flags: /Ogtp
; File c:\users\michel\desktop\source\gameserver\source\message.cpp
;	COMDAT ??__ElMsg@@YAXXZ
text$di	SEGMENT
??__ElMsg@@YAXXZ PROC					; `dynamic initializer for 'lMsg'', COMDAT

; 9    : Message lMsg;

  00000	b9 00 00 00 00	 mov	 ecx, OFFSET ?lMsg@@3VMessage@@A ; lMsg
  00005	e8 00 00 00 00	 call	 ??0Message@@QAE@XZ	; Message::Message
  0000a	68 00 00 00 00	 push	 OFFSET ??__FlMsg@@YAXXZ	; `dynamic atexit destructor for 'lMsg''
  0000f	e8 00 00 00 00	 call	 _atexit
  00014	59		 pop	 ecx
  00015	c3		 ret	 0
??__ElMsg@@YAXXZ ENDP					; `dynamic initializer for 'lMsg''
text$di	ENDS
; Function compile flags: /Ogtp
;	COMDAT ??_EOBJECTSTRUCT@@QAEPAXI@Z
_TEXT	SEGMENT
__$EHRec$ = -12						; size = 12
___flags$ = 8						; size = 4
??_EOBJECTSTRUCT@@QAEPAXI@Z PROC			; OBJECTSTRUCT::`vector deleting destructor', COMDAT
; _this$ = ecx
  00000	55		 push	 ebp
  00001	8b ec		 mov	 ebp, esp
  00003	6a ff		 push	 -1
  00005	68 00 00 00 00	 push	 __ehhandler$??_EOBJECTSTRUCT@@QAEPAXI@Z
  0000a	64 a1 00 00 00
	00		 mov	 eax, DWORD PTR fs:0
  00010	50		 push	 eax
  00011	53		 push	 ebx
  00012	56		 push	 esi
  00013	57		 push	 edi
  00014	a1 00 00 00 00	 mov	 eax, DWORD PTR ___security_cookie
  00019	33 c5		 xor	 eax, ebp
  0001b	50		 push	 eax
  0001c	8d 45 f4	 lea	 eax, DWORD PTR __$EHRec$[ebp]
  0001f	64 a3 00 00 00
	00		 mov	 DWORD PTR fs:0, eax
  00025	8b f1		 mov	 esi, ecx
  00027	8b 5d 08	 mov	 ebx, DWORD PTR ___flags$[ebp]
  0002a	f6 c3 02	 test	 bl, 2
  0002d	74 44		 je	 SHORT $LN2@vector
  0002f	68 00 00 00 00	 push	 OFFSET ??1OBJECTSTRUCT@@QAE@XZ
  00034	ff 76 fc	 push	 DWORD PTR [esi-4]
  00037	8d 7e fc	 lea	 edi, DWORD PTR [esi-4]
  0003a	68 40 27 00 00	 push	 10048			; 00002740H
  0003f	56		 push	 esi
  00040	e8 00 00 00 00	 call	 ??_M@YGXPAXIIP6EX0@Z@Z
  00045	f6 c3 01	 test	 bl, 1
  00048	74 13		 je	 SHORT $LN3@vector
  0004a	69 0f 40 27 00
	00		 imul	 ecx, DWORD PTR [edi], 10048
  00050	83 c1 04	 add	 ecx, 4
  00053	51		 push	 ecx
  00054	57		 push	 edi
  00055	e8 00 00 00 00	 call	 ??_V@YAXPAXI@Z		; operator delete[]
  0005a	83 c4 08	 add	 esp, 8
$LN3@vector:
  0005d	8b c7		 mov	 eax, edi
  0005f	8b 4d f4	 mov	 ecx, DWORD PTR __$EHRec$[ebp]
  00062	64 89 0d 00 00
	00 00		 mov	 DWORD PTR fs:0, ecx
  00069	59		 pop	 ecx
  0006a	5f		 pop	 edi
  0006b	5e		 pop	 esi
  0006c	5b		 pop	 ebx
  0006d	8b e5		 mov	 esp, ebp
  0006f	5d		 pop	 ebp
  00070	c2 04 00	 ret	 4
$LN2@vector:
  00073	8d 8e ec 20 00
	00		 lea	 ecx, DWORD PTR [esi+8428]
  00079	e8 00 00 00 00	 call	 ??1TMonsterAIAgro@@UAE@XZ ; TMonsterAIAgro::~TMonsterAIAgro
  0007e	8d 8e 0c 16 00
	00		 lea	 ecx, DWORD PTR [esi+5644]
  00084	e8 00 00 00 00	 call	 ??1CSkillDelay@@UAE@XZ	; CSkillDelay::~CSkillDelay
  00089	f6 c3 01	 test	 bl, 1
  0008c	74 0e		 je	 SHORT $LN4@vector
  0008e	68 40 27 00 00	 push	 10048			; 00002740H
  00093	56		 push	 esi
  00094	e8 00 00 00 00	 call	 ??3@YAXPAXI@Z		; operator delete
  00099	83 c4 08	 add	 esp, 8
$LN4@vector:
  0009c	8b c6		 mov	 eax, esi
  0009e	8b 4d f4	 mov	 ecx, DWORD PTR __$EHRec$[ebp]
  000a1	64 89 0d 00 00
	00 00		 mov	 DWORD PTR fs:0, ecx
  000a8	59		 pop	 ecx
  000a9	5f		 pop	 edi
  000aa	5e		 pop	 esi
  000ab	5b		 pop	 ebx
  000ac	8b e5		 mov	 esp, ebp
  000ae	5d		 pop	 ebp
  000af	c2 04 00	 ret	 4
_TEXT	ENDS
;	COMDAT text$x
text$x	SEGMENT
__ehhandler$??_EOBJECTSTRUCT@@QAEPAXI@Z:
  00000	8b 54 24 08	 mov	 edx, DWORD PTR [esp+8]
  00004	8d 42 0c	 lea	 eax, DWORD PTR [edx+12]
  00007	8b 4a f0	 mov	 ecx, DWORD PTR [edx-16]
  0000a	33 c8		 xor	 ecx, eax
  0000c	e8 00 00 00 00	 call	 @__security_check_cookie@4
  00011	b8 00 00 00 00	 mov	 eax, OFFSET __ehfuncinfo$??_EOBJECTSTRUCT@@QAEPAXI@Z
  00016	e9 00 00 00 00	 jmp	 ___CxxFrameHandler3
text$x	ENDS
??_EOBJECTSTRUCT@@QAEPAXI@Z ENDP			; OBJECTSTRUCT::`vector deleting destructor'
; Function compile flags: /Ogtp
;	COMDAT ??1OBJECTSTRUCT@@QAE@XZ
_TEXT	SEGMENT
??1OBJECTSTRUCT@@QAE@XZ PROC				; OBJECTSTRUCT::~OBJECTSTRUCT, COMDAT
; _this$ = ecx
  00000	56		 push	 esi
  00001	8b f1		 mov	 esi, ecx
  00003	8d 8e ec 20 00
	00		 lea	 ecx, DWORD PTR [esi+8428]
  00009	e8 00 00 00 00	 call	 ??1TMonsterAIAgro@@UAE@XZ ; TMonsterAIAgro::~TMonsterAIAgro
  0000e	8d 8e 0c 16 00
	00		 lea	 ecx, DWORD PTR [esi+5644]
  00014	5e		 pop	 esi
  00015	e9 00 00 00 00	 jmp	 ??1CSkillDelay@@UAE@XZ	; CSkillDelay::~CSkillDelay
??1OBJECTSTRUCT@@QAE@XZ ENDP				; OBJECTSTRUCT::~OBJECTSTRUCT
_TEXT	ENDS
; Function compile flags: /Ogtp
;	COMDAT ??_GMessage@@UAEPAXI@Z
_TEXT	SEGMENT
___flags$ = 8						; size = 4
??_GMessage@@UAEPAXI@Z PROC				; Message::`scalar deleting destructor', COMDAT
; _this$ = ecx
  00000	55		 push	 ebp
  00001	8b ec		 mov	 ebp, esp
  00003	56		 push	 esi
  00004	8b f1		 mov	 esi, ecx
  00006	e8 00 00 00 00	 call	 ??1Message@@UAE@XZ	; Message::~Message
  0000b	f6 45 08 01	 test	 BYTE PTR ___flags$[ebp], 1
  0000f	74 0b		 je	 SHORT $LN4@scalar
  00011	6a 10		 push	 16			; 00000010H
  00013	56		 push	 esi
  00014	e8 00 00 00 00	 call	 ??3@YAXPAXI@Z		; operator delete
  00019	83 c4 08	 add	 esp, 8
$LN4@scalar:
  0001c	8b c6		 mov	 eax, esi
  0001e	5e		 pop	 esi
  0001f	5d		 pop	 ebp
  00020	c2 04 00	 ret	 4
??_GMessage@@UAEPAXI@Z ENDP				; Message::`scalar deleting destructor'
_TEXT	ENDS
; Function compile flags: /Ogtp
; File c:\program files (x86)\microsoft visual studio 14.0\vc\include\vector
;	COMDAT ?_Orphan_range@?$vector@UMessageBody@@V?$allocator@UMessageBody@@@std@@@std@@IBEXPAUMessageBody@@0@Z
_TEXT	SEGMENT
___formal$ = 8						; size = 4
___formal$ = 12						; size = 4
?_Orphan_range@?$vector@UMessageBody@@V?$allocator@UMessageBody@@@std@@@std@@IBEXPAUMessageBody@@0@Z PROC ; std::vector<MessageBody,std::allocator<MessageBody> >::_Orphan_range, COMDAT
; _this$ = ecx

; 1813 : 		}

  00000	c2 08 00	 ret	 8
?_Orphan_range@?$vector@UMessageBody@@V?$allocator@UMessageBody@@@std@@@std@@IBEXPAUMessageBody@@0@Z ENDP ; std::vector<MessageBody,std::allocator<MessageBody> >::_Orphan_range
_TEXT	ENDS
; Function compile flags: /Ogtp
; File c:\program files (x86)\microsoft visual studio 14.0\vc\include\vector
;	COMDAT ?_Xlen@?$vector@UMessageBody@@V?$allocator@UMessageBody@@@std@@@std@@IBEXXZ
_TEXT	SEGMENT
?_Xlen@?$vector@UMessageBody@@V?$allocator@UMessageBody@@@std@@@std@@IBEXXZ PROC ; std::vector<MessageBody,std::allocator<MessageBody> >::_Xlen, COMDAT
; _this$ = ecx

; 1784 : 		_Xlength_error("vector<T> too long");

  00000	68 00 00 00 00	 push	 OFFSET ??_C@_0BD@OLBABOEK@vector?$DMT?$DO?5too?5long?$AA@
  00005	e8 00 00 00 00	 call	 ?_Xlength_error@std@@YAXPBD@Z ; std::_Xlength_error
$LN4@Xlen:
$LN3@Xlen:
  0000a	cc		 int	 3
?_Xlen@?$vector@UMessageBody@@V?$allocator@UMessageBody@@@std@@@std@@IBEXXZ ENDP ; std::vector<MessageBody,std::allocator<MessageBody> >::_Xlen
_TEXT	ENDS
; Function compile flags: /Ogtp
; File c:\program files (x86)\microsoft visual studio 14.0\vc\include\vector
; File c:\program files (x86)\microsoft visual studio 14.0\vc\include\xmemory0
; File c:\program files (x86)\microsoft visual studio 14.0\vc\include\vector
;	COMDAT ?_Tidy@?$vector@UMessageBody@@V?$allocator@UMessageBody@@@std@@@std@@IAEXXZ
_TEXT	SEGMENT
?_Tidy@?$vector@UMessageBody@@V?$allocator@UMessageBody@@@std@@@std@@IAEXXZ PROC ; std::vector<MessageBody,std::allocator<MessageBody> >::_Tidy, COMDAT
; _this$ = ecx

; 1655 : 		{	// free all storage

  00000	56		 push	 esi
  00001	8b f1		 mov	 esi, ecx

; 1656 : 		if (this->_Myfirst() != pointer())

  00003	8b 0e		 mov	 ecx, DWORD PTR [esi]
  00005	85 c9		 test	 ecx, ecx
  00007	74 33		 je	 SHORT $LN2@Tidy

; 1657 : 			{	// something to free, destroy and deallocate it
; 1658 : 			this->_Orphan_all();
; 1659 : 			_Destroy(this->_Myfirst(), this->_Mylast());
; 1660 : 			this->_Getal().deallocate(this->_Myfirst(),

  00009	8b 56 08	 mov	 edx, DWORD PTR [esi+8]
  0000c	b8 81 3f e0 0f	 mov	 eax, 266354561		; 0fe03f81H
  00011	2b d1		 sub	 edx, ecx
  00013	f7 ea		 imul	 edx
  00015	c1 fa 04	 sar	 edx, 4
  00018	8b c2		 mov	 eax, edx
  0001a	c1 e8 1f	 shr	 eax, 31			; 0000001fH
  0001d	03 c2		 add	 eax, edx
; File c:\program files (x86)\microsoft visual studio 14.0\vc\include\xmemory0

; 909  : 		_Mybase::deallocate(_Ptr, _Count);

  0001f	50		 push	 eax
  00020	51		 push	 ecx
  00021	8b ce		 mov	 ecx, esi
  00023	e8 00 00 00 00	 call	 ?deallocate@?$allocator@UMessageBody@@@std@@QAEXPAUMessageBody@@I@Z ; std::allocator<MessageBody>::deallocate
; File c:\program files (x86)\microsoft visual studio 14.0\vc\include\vector

; 1662 : 			this->_Myfirst() = pointer();

  00028	c7 06 00 00 00
	00		 mov	 DWORD PTR [esi], 0

; 1663 : 			this->_Mylast() = pointer();

  0002e	c7 46 04 00 00
	00 00		 mov	 DWORD PTR [esi+4], 0

; 1664 : 			this->_Myend() = pointer();

  00035	c7 46 08 00 00
	00 00		 mov	 DWORD PTR [esi+8], 0
$LN2@Tidy:
  0003c	5e		 pop	 esi

; 1665 : 			}
; 1666 : 		}

  0003d	c3		 ret	 0
?_Tidy@?$vector@UMessageBody@@V?$allocator@UMessageBody@@@std@@@std@@IAEXXZ ENDP ; std::vector<MessageBody,std::allocator<MessageBody> >::_Tidy
_TEXT	ENDS
; Function compile flags: /Ogtp
; File c:\program files (x86)\microsoft visual studio 14.0\vc\include\vector
;	COMDAT ?_Reserve@?$vector@UMessageBody@@V?$allocator@UMessageBody@@@std@@@std@@IAEXI@Z
_TEXT	SEGMENT
tv202 = 8						; size = 4
__Count$ = 8						; size = 4
?_Reserve@?$vector@UMessageBody@@V?$allocator@UMessageBody@@@std@@@std@@IAEXI@Z PROC ; std::vector<MessageBody,std::allocator<MessageBody> >::_Reserve, COMDAT
; _this$ = ecx

; 1645 : 		{	// ensure room for _Count new elements, grow exponentially

  00000	55		 push	 ebp
  00001	8b ec		 mov	 ebp, esp
  00003	53		 push	 ebx
  00004	8b d9		 mov	 ebx, ecx

; 1043 : 		}
; 1044 : 
; 1045 : 	size_type _Unused_capacity() const _NOEXCEPT
; 1046 : 		{	// micro-optimization for capacity() - size()
; 1047 : 		return (this->_Myend() - this->_Mylast());

  00006	b8 81 3f e0 0f	 mov	 eax, 266354561		; 0fe03f81H
  0000b	56		 push	 esi
  0000c	57		 push	 edi

; 1646 : 		if (_Unused_capacity() < _Count)

  0000d	8b 7d 08	 mov	 edi, DWORD PTR __Count$[ebp]

; 1043 : 		}
; 1044 : 
; 1045 : 	size_type _Unused_capacity() const _NOEXCEPT
; 1046 : 		{	// micro-optimization for capacity() - size()
; 1047 : 		return (this->_Myend() - this->_Mylast());

  00010	8b 53 08	 mov	 edx, DWORD PTR [ebx+8]
  00013	8b 73 04	 mov	 esi, DWORD PTR [ebx+4]
  00016	2b d6		 sub	 edx, esi
  00018	f7 ea		 imul	 edx
  0001a	c1 fa 04	 sar	 edx, 4
  0001d	8b c2		 mov	 eax, edx
  0001f	c1 e8 1f	 shr	 eax, 31			; 0000001fH
  00022	03 c2		 add	 eax, edx

; 1646 : 		if (_Unused_capacity() < _Count)

  00024	3b c7		 cmp	 eax, edi
  00026	73 61		 jae	 SHORT $LN2@Reserve

; 1048 : 		}
; 1049 : 
; 1050 : 	size_type _Has_unused_capacity() const _NOEXCEPT
; 1051 : 		{	// micro-optimization for capacity() != size()
; 1052 : 		return (this->_Myend() != this->_Mylast());
; 1053 : 		}
; 1054 : 
; 1055 : 	iterator begin() _NOEXCEPT
; 1056 : 		{	// return iterator for beginning of mutable sequence
; 1057 : 		return (iterator(this->_Myfirst(), &this->_Get_data()));
; 1058 : 		}
; 1059 : 
; 1060 : 	const_iterator begin() const _NOEXCEPT
; 1061 : 		{	// return iterator for beginning of nonmutable sequence
; 1062 : 		return (const_iterator(this->_Myfirst(), &this->_Get_data()));
; 1063 : 		}
; 1064 : 
; 1065 : 	iterator end() _NOEXCEPT
; 1066 : 		{	// return iterator for end of mutable sequence
; 1067 : 		return (iterator(this->_Mylast(), &this->_Get_data()));
; 1068 : 		}
; 1069 : 
; 1070 : 	const_iterator end() const _NOEXCEPT
; 1071 : 		{	// return iterator for end of nonmutable sequence
; 1072 : 		return (const_iterator(this->_Mylast(), &this->_Get_data()));
; 1073 : 		}
; 1074 : 
; 1075 : 	iterator _Make_iter(const_iterator _Where) const
; 1076 : 		{	// make iterator from const_iterator
; 1077 : 		return (iterator(_Where._Ptr, &this->_Get_data()));
; 1078 : 		}
; 1079 : 
; 1080 : 	reverse_iterator rbegin() _NOEXCEPT
; 1081 : 		{	// return iterator for beginning of reversed mutable sequence
; 1082 : 		return (reverse_iterator(end()));
; 1083 : 		}
; 1084 : 
; 1085 : 	const_reverse_iterator rbegin() const _NOEXCEPT
; 1086 : 		{	// return iterator for beginning of reversed nonmutable sequence
; 1087 : 		return (const_reverse_iterator(end()));
; 1088 : 		}
; 1089 : 
; 1090 : 	reverse_iterator rend() _NOEXCEPT
; 1091 : 		{	// return iterator for end of reversed mutable sequence
; 1092 : 		return (reverse_iterator(begin()));
; 1093 : 		}
; 1094 : 
; 1095 : 	const_reverse_iterator rend() const _NOEXCEPT
; 1096 : 		{	// return iterator for end of reversed nonmutable sequence
; 1097 : 		return (const_reverse_iterator(begin()));
; 1098 : 		}
; 1099 : 
; 1100 : 	const_iterator cbegin() const _NOEXCEPT
; 1101 : 		{	// return iterator for beginning of nonmutable sequence
; 1102 : 		return (begin());
; 1103 : 		}
; 1104 : 
; 1105 : 	const_iterator cend() const _NOEXCEPT
; 1106 : 		{	// return iterator for end of nonmutable sequence
; 1107 : 		return (end());
; 1108 : 		}
; 1109 : 
; 1110 : 	const_reverse_iterator crbegin() const _NOEXCEPT
; 1111 : 		{	// return iterator for beginning of reversed nonmutable sequence
; 1112 : 		return (rbegin());
; 1113 : 		}
; 1114 : 
; 1115 : 	const_reverse_iterator crend() const _NOEXCEPT
; 1116 : 		{	// return iterator for end of reversed nonmutable sequence
; 1117 : 		return (rend());
; 1118 : 		}
; 1119 : 
; 1120 : 	void shrink_to_fit()
; 1121 : 		{	// reduce capacity
; 1122 : 		if (_Has_unused_capacity())
; 1123 : 			{	// worth shrinking, do it
; 1124 : 			if (empty())
; 1125 : 				_Tidy();
; 1126 : 			else
; 1127 : 				_Reallocate(size());
; 1128 : 			}
; 1129 : 		}
; 1130 : 
; 1131 : 	void resize(size_type _Newsize)
; 1132 : 		{	// determine new length, padding as needed
; 1133 : 		if (_Newsize < size())
; 1134 : 			_Pop_back_n(size() - _Newsize);
; 1135 : 		else if (size() < _Newsize)
; 1136 : 			{	// pad as needed
; 1137 : 			_Reserve(_Newsize - size());
; 1138 : 			_TRY_BEGIN
; 1139 : 			_Uninitialized_default_fill_n(this->_Mylast(), _Newsize - size(),
; 1140 : 				this->_Getal());
; 1141 : 			_CATCH_ALL
; 1142 : 			_Tidy();
; 1143 : 			_RERAISE;
; 1144 : 			_CATCH_END
; 1145 : 			this->_Mylast() += _Newsize - size();
; 1146 : 			}
; 1147 : 		}
; 1148 : 
; 1149 : 	void resize(size_type _Newsize, const value_type& _Val)
; 1150 : 		{	// determine new length, padding with _Val elements as needed
; 1151 : 		if (_Newsize < size())
; 1152 : 			_Pop_back_n(size() - _Newsize);
; 1153 : 		else if (size() < _Newsize)
; 1154 : 			{	// pad as needed
; 1155 : 			const value_type *_Ptr = _STD addressof(_Val);
; 1156 : 
; 1157 : 			if (_Inside(_Ptr))
; 1158 : 				{	// padding is inside vector, recompute _Ptr after reserve
; 1159 : 				const difference_type _Idx = _Ptr
; 1160 : 					- _STD addressof(*this->_Myfirst());
; 1161 : 				_Reserve(_Newsize - size());
; 1162 : 				_Ptr = _STD addressof(*this->_Myfirst()) + _Idx;
; 1163 : 				}
; 1164 : 			else
; 1165 : 				_Reserve(_Newsize - size());
; 1166 : 
; 1167 : 			_TRY_BEGIN
; 1168 : 			_Ufill(this->_Mylast(), _Newsize - size(), _Ptr);
; 1169 : 			_CATCH_ALL
; 1170 : 			_Tidy();
; 1171 : 			_RERAISE;
; 1172 : 			_CATCH_END
; 1173 : 			this->_Mylast() += _Newsize - size();
; 1174 : 			}
; 1175 : 		}
; 1176 : 
; 1177 : 	size_type size() const _NOEXCEPT
; 1178 : 		{	// return length of sequence
; 1179 : 		return (this->_Mylast() - this->_Myfirst());

  00028	8b 03		 mov	 eax, DWORD PTR [ebx]
  0002a	2b f0		 sub	 esi, eax
  0002c	89 45 08	 mov	 DWORD PTR tv202[ebp], eax
  0002f	b8 81 3f e0 0f	 mov	 eax, 266354561		; 0fe03f81H
  00034	f7 ee		 imul	 esi

; 1647 : 			{	// need more room, try to get it
; 1648 : 			if (max_size() - size() < _Count)

  00036	b8 f8 03 fe 00	 mov	 eax, 16647160		; 00fe03f8H

; 1048 : 		}
; 1049 : 
; 1050 : 	size_type _Has_unused_capacity() const _NOEXCEPT
; 1051 : 		{	// micro-optimization for capacity() != size()
; 1052 : 		return (this->_Myend() != this->_Mylast());
; 1053 : 		}
; 1054 : 
; 1055 : 	iterator begin() _NOEXCEPT
; 1056 : 		{	// return iterator for beginning of mutable sequence
; 1057 : 		return (iterator(this->_Myfirst(), &this->_Get_data()));
; 1058 : 		}
; 1059 : 
; 1060 : 	const_iterator begin() const _NOEXCEPT
; 1061 : 		{	// return iterator for beginning of nonmutable sequence
; 1062 : 		return (const_iterator(this->_Myfirst(), &this->_Get_data()));
; 1063 : 		}
; 1064 : 
; 1065 : 	iterator end() _NOEXCEPT
; 1066 : 		{	// return iterator for end of mutable sequence
; 1067 : 		return (iterator(this->_Mylast(), &this->_Get_data()));
; 1068 : 		}
; 1069 : 
; 1070 : 	const_iterator end() const _NOEXCEPT
; 1071 : 		{	// return iterator for end of nonmutable sequence
; 1072 : 		return (const_iterator(this->_Mylast(), &this->_Get_data()));
; 1073 : 		}
; 1074 : 
; 1075 : 	iterator _Make_iter(const_iterator _Where) const
; 1076 : 		{	// make iterator from const_iterator
; 1077 : 		return (iterator(_Where._Ptr, &this->_Get_data()));
; 1078 : 		}
; 1079 : 
; 1080 : 	reverse_iterator rbegin() _NOEXCEPT
; 1081 : 		{	// return iterator for beginning of reversed mutable sequence
; 1082 : 		return (reverse_iterator(end()));
; 1083 : 		}
; 1084 : 
; 1085 : 	const_reverse_iterator rbegin() const _NOEXCEPT
; 1086 : 		{	// return iterator for beginning of reversed nonmutable sequence
; 1087 : 		return (const_reverse_iterator(end()));
; 1088 : 		}
; 1089 : 
; 1090 : 	reverse_iterator rend() _NOEXCEPT
; 1091 : 		{	// return iterator for end of reversed mutable sequence
; 1092 : 		return (reverse_iterator(begin()));
; 1093 : 		}
; 1094 : 
; 1095 : 	const_reverse_iterator rend() const _NOEXCEPT
; 1096 : 		{	// return iterator for end of reversed nonmutable sequence
; 1097 : 		return (const_reverse_iterator(begin()));
; 1098 : 		}
; 1099 : 
; 1100 : 	const_iterator cbegin() const _NOEXCEPT
; 1101 : 		{	// return iterator for beginning of nonmutable sequence
; 1102 : 		return (begin());
; 1103 : 		}
; 1104 : 
; 1105 : 	const_iterator cend() const _NOEXCEPT
; 1106 : 		{	// return iterator for end of nonmutable sequence
; 1107 : 		return (end());
; 1108 : 		}
; 1109 : 
; 1110 : 	const_reverse_iterator crbegin() const _NOEXCEPT
; 1111 : 		{	// return iterator for beginning of reversed nonmutable sequence
; 1112 : 		return (rbegin());
; 1113 : 		}
; 1114 : 
; 1115 : 	const_reverse_iterator crend() const _NOEXCEPT
; 1116 : 		{	// return iterator for end of reversed nonmutable sequence
; 1117 : 		return (rend());
; 1118 : 		}
; 1119 : 
; 1120 : 	void shrink_to_fit()
; 1121 : 		{	// reduce capacity
; 1122 : 		if (_Has_unused_capacity())
; 1123 : 			{	// worth shrinking, do it
; 1124 : 			if (empty())
; 1125 : 				_Tidy();
; 1126 : 			else
; 1127 : 				_Reallocate(size());
; 1128 : 			}
; 1129 : 		}
; 1130 : 
; 1131 : 	void resize(size_type _Newsize)
; 1132 : 		{	// determine new length, padding as needed
; 1133 : 		if (_Newsize < size())
; 1134 : 			_Pop_back_n(size() - _Newsize);
; 1135 : 		else if (size() < _Newsize)
; 1136 : 			{	// pad as needed
; 1137 : 			_Reserve(_Newsize - size());
; 1138 : 			_TRY_BEGIN
; 1139 : 			_Uninitialized_default_fill_n(this->_Mylast(), _Newsize - size(),
; 1140 : 				this->_Getal());
; 1141 : 			_CATCH_ALL
; 1142 : 			_Tidy();
; 1143 : 			_RERAISE;
; 1144 : 			_CATCH_END
; 1145 : 			this->_Mylast() += _Newsize - size();
; 1146 : 			}
; 1147 : 		}
; 1148 : 
; 1149 : 	void resize(size_type _Newsize, const value_type& _Val)
; 1150 : 		{	// determine new length, padding with _Val elements as needed
; 1151 : 		if (_Newsize < size())
; 1152 : 			_Pop_back_n(size() - _Newsize);
; 1153 : 		else if (size() < _Newsize)
; 1154 : 			{	// pad as needed
; 1155 : 			const value_type *_Ptr = _STD addressof(_Val);
; 1156 : 
; 1157 : 			if (_Inside(_Ptr))
; 1158 : 				{	// padding is inside vector, recompute _Ptr after reserve
; 1159 : 				const difference_type _Idx = _Ptr
; 1160 : 					- _STD addressof(*this->_Myfirst());
; 1161 : 				_Reserve(_Newsize - size());
; 1162 : 				_Ptr = _STD addressof(*this->_Myfirst()) + _Idx;
; 1163 : 				}
; 1164 : 			else
; 1165 : 				_Reserve(_Newsize - size());
; 1166 : 
; 1167 : 			_TRY_BEGIN
; 1168 : 			_Ufill(this->_Mylast(), _Newsize - size(), _Ptr);
; 1169 : 			_CATCH_ALL
; 1170 : 			_Tidy();
; 1171 : 			_RERAISE;
; 1172 : 			_CATCH_END
; 1173 : 			this->_Mylast() += _Newsize - size();
; 1174 : 			}
; 1175 : 		}
; 1176 : 
; 1177 : 	size_type size() const _NOEXCEPT
; 1178 : 		{	// return length of sequence
; 1179 : 		return (this->_Mylast() - this->_Myfirst());

  0003b	c1 fa 04	 sar	 edx, 4
  0003e	8b ca		 mov	 ecx, edx
  00040	c1 e9 1f	 shr	 ecx, 31			; 0000001fH
  00043	03 ca		 add	 ecx, edx

; 1647 : 			{	// need more room, try to get it
; 1648 : 			if (max_size() - size() < _Count)

  00045	2b c1		 sub	 eax, ecx
  00047	3b c7		 cmp	 eax, edi
  00049	72 45		 jb	 SHORT $LN134@Reserve

; 1649 : 				_Xlen();
; 1650 : 			_Reallocate(_Grow_to(size() + _Count));

  0004b	03 f9		 add	 edi, ecx

; 1042 : 		return (this->_Myend() - this->_Myfirst());

  0004d	b8 81 3f e0 0f	 mov	 eax, 266354561		; 0fe03f81H
  00052	8b 4b 08	 mov	 ecx, DWORD PTR [ebx+8]
  00055	2b 4d 08	 sub	 ecx, DWORD PTR tv202[ebp]
  00058	f7 e9		 imul	 ecx
  0005a	c1 fa 04	 sar	 edx, 4
  0005d	8b f2		 mov	 esi, edx
  0005f	c1 ee 1f	 shr	 esi, 31			; 0000001fH
  00062	03 f2		 add	 esi, edx

; 1180 : 		}
; 1181 : 
; 1182 : 	size_type max_size() const _NOEXCEPT
; 1183 : 		{	// return maximum possible length of sequence
; 1184 : 		return (this->_Getal().max_size());
; 1185 : 		}
; 1186 : 
; 1187 : 	bool empty() const _NOEXCEPT
; 1188 : 		{	// test if sequence is empty
; 1189 : 		return (this->_Myfirst() == this->_Mylast());
; 1190 : 		}
; 1191 : 
; 1192 : 	_Alloc get_allocator() const _NOEXCEPT
; 1193 : 		{	// return allocator object for values
; 1194 : 		return (this->_Getal());
; 1195 : 		}
; 1196 : 
; 1197 : 	const_reference at(size_type _Pos) const
; 1198 : 		{	// subscript nonmutable sequence with checking
; 1199 : 		if (size() <= _Pos)
; 1200 : 			_Xran();
; 1201 : 		return (*(this->_Myfirst() + _Pos));
; 1202 : 		}
; 1203 : 
; 1204 : 	reference at(size_type _Pos)
; 1205 : 		{	// subscript mutable sequence with checking
; 1206 : 		if (size() <= _Pos)
; 1207 : 			_Xran();
; 1208 : 		return (*(this->_Myfirst() + _Pos));
; 1209 : 		}
; 1210 : 
; 1211 : 	const_reference operator[](size_type _Pos) const
; 1212 : 		{	// subscript nonmutable sequence
; 1213 :  #if _ITERATOR_DEBUG_LEVEL == 2
; 1214 : 		if (size() <= _Pos)
; 1215 : 			{	// report error
; 1216 : 			_DEBUG_ERROR("vector subscript out of range");
; 1217 : 			_SCL_SECURE_OUT_OF_RANGE;
; 1218 : 			}
; 1219 : 
; 1220 :  #elif _ITERATOR_DEBUG_LEVEL == 1
; 1221 : 		_SCL_SECURE_VALIDATE_RANGE(_Pos < size());
; 1222 :  #endif /* _ITERATOR_DEBUG_LEVEL */
; 1223 : 
; 1224 : 		return (*(this->_Myfirst() + _Pos));
; 1225 : 		}
; 1226 : 
; 1227 : 	reference operator[](size_type _Pos)
; 1228 : 		{	// subscript mutable sequence
; 1229 :  #if _ITERATOR_DEBUG_LEVEL == 2
; 1230 : 		if (size() <= _Pos)
; 1231 : 			{	// report error
; 1232 : 			_DEBUG_ERROR("vector subscript out of range");
; 1233 : 			_SCL_SECURE_OUT_OF_RANGE;
; 1234 : 			}
; 1235 : 
; 1236 :  #elif _ITERATOR_DEBUG_LEVEL == 1
; 1237 : 		_SCL_SECURE_VALIDATE_RANGE(_Pos < size());
; 1238 :  #endif /* _ITERATOR_DEBUG_LEVEL */
; 1239 : 
; 1240 : 		return (*(this->_Myfirst() + _Pos));
; 1241 : 		}
; 1242 : 
; 1243 : 	pointer data() _NOEXCEPT
; 1244 : 		{	// return address of first element
; 1245 : 		return (this->_Myfirst());
; 1246 : 		}
; 1247 : 
; 1248 : 	const_pointer data() const _NOEXCEPT
; 1249 : 		{	// return address of first element
; 1250 : 		return (this->_Myfirst());
; 1251 : 		}
; 1252 : 
; 1253 : 	reference front()
; 1254 : 		{	// return first element of mutable sequence
; 1255 : 		return (*begin());
; 1256 : 		}
; 1257 : 
; 1258 : 	const_reference front() const
; 1259 : 		{	// return first element of nonmutable sequence
; 1260 : 		return (*begin());
; 1261 : 		}
; 1262 : 
; 1263 : 	reference back()
; 1264 : 		{	// return last element of mutable sequence
; 1265 : 		return (*(end() - 1));
; 1266 : 		}
; 1267 : 
; 1268 : 	const_reference back() const
; 1269 : 		{	// return last element of nonmutable sequence
; 1270 : 		return (*(end() - 1));
; 1271 : 		}
; 1272 : 
; 1273 : 	void push_back(const value_type& _Val)
; 1274 : 		{	// insert element at end
; 1275 : 		if (_Inside(_STD addressof(_Val)))
; 1276 : 			{	// push back an element
; 1277 : 			size_type _Idx = _STD addressof(_Val) - this->_Myfirst();
; 1278 : 			if (this->_Mylast() == this->_Myend())
; 1279 : 				_Reserve(1);
; 1280 : 			_Orphan_range(this->_Mylast(), this->_Mylast());
; 1281 : 			this->_Getal().construct(this->_Mylast(),
; 1282 : 				this->_Myfirst()[_Idx]);
; 1283 : 			++this->_Mylast();
; 1284 : 			}
; 1285 : 		else
; 1286 : 			{	// push back a non-element
; 1287 : 			if (this->_Mylast() == this->_Myend())
; 1288 : 				_Reserve(1);
; 1289 : 			_Orphan_range(this->_Mylast(), this->_Mylast());
; 1290 : 			this->_Getal().construct(this->_Mylast(),
; 1291 : 				_Val);
; 1292 : 			++this->_Mylast();
; 1293 : 			}
; 1294 : 		}
; 1295 : 
; 1296 :  #if _ITERATOR_DEBUG_LEVEL == 2
; 1297 : 	void pop_back()
; 1298 : 		{	// erase element at end
; 1299 : 		if (empty())
; 1300 : 			_DEBUG_ERROR("vector empty before pop");
; 1301 : 		else
; 1302 : 			{	// erase last element
; 1303 : 			_Orphan_range(this->_Mylast() - 1, this->_Mylast());
; 1304 : 			this->_Getal().destroy(this->_Mylast() - 1);
; 1305 : 			--this->_Mylast();
; 1306 : 			}
; 1307 : 		}
; 1308 : 
; 1309 :  #else /* _ITERATOR_DEBUG_LEVEL == 2 */
; 1310 : 	void pop_back()
; 1311 : 		{	// erase element at end
; 1312 : 		this->_Getal().destroy(this->_Mylast() - 1);
; 1313 : 		--this->_Mylast();
; 1314 : 		}
; 1315 :  #endif /* _ITERATOR_DEBUG_LEVEL == 2 */
; 1316 : 
; 1317 : 	template<class _Iter>
; 1318 : 		typename enable_if<_Is_iterator<_Iter>::value,
; 1319 : 			void>::type
; 1320 : 		assign(_Iter _First, _Iter _Last)
; 1321 : 		{	// assign [_First, _Last)
; 1322 : 		clear();
; 1323 : 		_Assign(_First, _Last, _Iter_cat(_First));
; 1324 : 		}
; 1325 : 
; 1326 : 	template<class _Iter>
; 1327 : 		void _Assign(_Iter _First, _Iter _Last,
; 1328 : 			input_iterator_tag)
; 1329 : 		{	// assign [_First, _Last), input iterators
; 1330 : 		for (; _First != _Last; ++_First)
; 1331 : 			emplace_back(*_First);
; 1332 : 		}
; 1333 : 
; 1334 : 	template<class _Iter>
; 1335 : 		void _Assign(_Iter _First, _Iter _Last,
; 1336 : 			forward_iterator_tag)
; 1337 : 		{	// assign [_First, _Last), forward iterators
; 1338 : 		size_type _Newsize = _STD distance(_First, _Last);
; 1339 : 
; 1340 : 		if (capacity() < _Newsize)
; 1341 : 			{	// need more room, try to get it
; 1342 : 			size_type _Newcapacity = _Grow_to(_Newsize);
; 1343 : 			_Tidy();
; 1344 : 			_Buy(_Newcapacity);
; 1345 : 			}
; 1346 : 
; 1347 : 		this->_Mylast() = _Ucopy(_First, _Last, this->_Myfirst());
; 1348 : 		}
; 1349 : 
; 1350 : 	void assign(size_type _Count, const value_type& _Val)
; 1351 : 		{	// assign _Count * _Val
; 1352 : 		clear();
; 1353 : 		insert(begin(), _Count, _Val);
; 1354 : 		}
; 1355 : 
; 1356 : 	iterator insert(const_iterator _Where, const _Ty& _Val)
; 1357 : 		{	// insert _Val at _Where
; 1358 : 		return (_Insert_n(_Where, (size_type)1, _Val));
; 1359 : 		}
; 1360 : 
; 1361 : 	iterator insert(const_iterator _Where, size_type _Count,
; 1362 : 		const _Ty& _Val)
; 1363 : 		{	// insert _Count * _Val at _Where
; 1364 : 		return (_Insert_n(_Where, _Count, _Val));
; 1365 : 		}
; 1366 : 
; 1367 : 	template<class _Iter>
; 1368 : 		typename enable_if<_Is_iterator<_Iter>::value,
; 1369 : 			iterator>::type
; 1370 : 		insert(const_iterator _Where, _Iter _First, _Iter _Last)
; 1371 : 		{	// insert [_First, _Last) at _Where
; 1372 : 		size_type _Off = _VIPTR(_Where) - this->_Myfirst();
; 1373 : 		_Insert(_Where, _First, _Last, _Iter_cat(_First));
; 1374 : 		return (begin() + _Off);
; 1375 : 		}
; 1376 : 
; 1377 : 	template<class _Iter>
; 1378 : 		void _Insert(const_iterator _Where,
; 1379 : 			_Iter _First, _Iter _Last,
; 1380 : 				input_iterator_tag)
; 1381 : 		{	// insert [_First, _Last) at _Where, input iterators
; 1382 : 		size_type _Off = _VIPTR(_Where) - this->_Myfirst();
; 1383 : 
; 1384 :  #if _ITERATOR_DEBUG_LEVEL == 2
; 1385 : 		if (size() < _Off)
; 1386 : 			_DEBUG_ERROR("vector insert iterator outside range");
; 1387 :  #endif /* _ITERATOR_DEBUG_LEVEL == 2 */
; 1388 : 
; 1389 : 		if (_First != _Last)
; 1390 : 			{	// worth doing, gather at end and rotate into place
; 1391 : 			size_type _Oldsize = size();
; 1392 : 
; 1393 : 			_TRY_BEGIN
; 1394 : 			for (; _First != _Last; ++_First)
; 1395 : 				push_back(*_First);	// append
; 1396 : 
; 1397 : 			_CATCH_ALL
; 1398 : 			erase(begin() + _Oldsize, end());
; 1399 : 			_RERAISE;
; 1400 : 			_CATCH_END
; 1401 : 
; 1402 : 			_STD rotate(begin() + _Off, begin() + _Oldsize, end());
; 1403 : 			}
; 1404 : 		}
; 1405 : 
; 1406 : 	template<class _Iter>
; 1407 : 		void _Insert(const_iterator _Where,
; 1408 : 			_Iter _First, _Iter _Last,
; 1409 : 				forward_iterator_tag)
; 1410 : 		{	// insert [_First, _Last) at _Where, forward iterators
; 1411 :  #if _ITERATOR_DEBUG_LEVEL == 2
; 1412 : 		if (_VICONT(_Where) != &this->_Get_data()
; 1413 : 			|| _VIPTR(_Where) < this->_Myfirst()
; 1414 : 			|| this->_Mylast() < _VIPTR(_Where))
; 1415 : 			_DEBUG_ERROR("vector insert iterator outside range");
; 1416 : 		_DEBUG_RANGE(_First, _Last);
; 1417 :  #endif /* _ITERATOR_DEBUG_LEVEL == 2 */
; 1418 : 
; 1419 : 		size_type _Count = 0;
; 1420 : 		_Distance(_First, _Last, _Count);
; 1421 : 
; 1422 : 		if (_Count == 0)
; 1423 : 			;
; 1424 : 		else if (_Unused_capacity() < _Count)
; 1425 : 			{	// not enough room, reallocate
; 1426 : 			if (max_size() - size() < _Count)
; 1427 : 				_Xlen();	// result too long
; 1428 : 
; 1429 : 			size_type _Capacity = _Grow_to(size() + _Count);
; 1430 : 			pointer _Newvec = this->_Getal().allocate(_Capacity);
; 1431 : 			pointer _Ptr = _Newvec;
; 1432 : 
; 1433 : 			_TRY_BEGIN
; 1434 : 			_Ptr = _Umove(this->_Myfirst(), _VIPTR(_Where),
; 1435 : 				_Newvec);	// copy prefix
; 1436 : 			_Ptr = _Ucopy(_First, _Last, _Ptr);	// add new stuff
; 1437 : 			_Umove(_VIPTR(_Where), this->_Mylast(),
; 1438 : 				_Ptr);	// copy suffix
; 1439 : 			_CATCH_ALL
; 1440 : 			_Destroy(_Newvec, _Ptr);
; 1441 : 			this->_Getal().deallocate(_Newvec, _Capacity);
; 1442 : 			_RERAISE;
; 1443 : 			_CATCH_END
; 1444 : 
; 1445 : 			_Count += size();
; 1446 : 			if (this->_Myfirst() != pointer())
; 1447 : 				{	// destroy and deallocate old array
; 1448 : 				_Destroy(this->_Myfirst(), this->_Mylast());
; 1449 : 				this->_Getal().deallocate(this->_Myfirst(),
; 1450 : 					this->_Myend() - this->_Myfirst());
; 1451 : 				}
; 1452 : 
; 1453 : 			this->_Orphan_all();
; 1454 : 			this->_Myend() = _Newvec + _Capacity;
; 1455 : 			this->_Mylast() = _Newvec + _Count;
; 1456 : 			this->_Myfirst() = _Newvec;
; 1457 : 			}
; 1458 : 		else
; 1459 : 			{	// new stuff fits, append and rotate into place
; 1460 : 			_Ucopy(_First, _Last, this->_Mylast());
; 1461 : 			_STD rotate(_VIPTR(_Where), this->_Mylast(),
; 1462 : 				this->_Mylast() + _Count);
; 1463 : 			this->_Mylast() += _Count;
; 1464 : 			_Orphan_range(_VIPTR(_Where), this->_Mylast());
; 1465 : 			}
; 1466 : 		}
; 1467 : 
; 1468 :  #if _ITERATOR_DEBUG_LEVEL == 2
; 1469 : 	iterator erase(const_iterator _Where)
; 1470 : 		{	// erase element at where
; 1471 : 		if (_VICONT(_Where) != &this->_Get_data()
; 1472 : 			|| _VIPTR(_Where) < this->_Myfirst()
; 1473 : 			|| this->_Mylast() <= _VIPTR(_Where))
; 1474 : 			_DEBUG_ERROR("vector erase iterator outside range");
; 1475 : 		_Move(_VIPTR(_Where) + 1, this->_Mylast(), _VIPTR(_Where));
; 1476 : 		_Destroy(this->_Mylast() - 1, this->_Mylast());
; 1477 : 		_Orphan_range(_VIPTR(_Where), this->_Mylast());
; 1478 : 		--this->_Mylast();
; 1479 : 		return (_Make_iter(_Where));
; 1480 : 		}
; 1481 : 
; 1482 :  #else /* _ITERATOR_DEBUG_LEVEL == 2 */
; 1483 : 	iterator erase(const_iterator _Where)
; 1484 : 		{	// erase element at where
; 1485 : 		_Move(_VIPTR(_Where) + 1, this->_Mylast(),
; 1486 : 			_VIPTR(_Where));
; 1487 : 		_Destroy(this->_Mylast() - 1, this->_Mylast());
; 1488 : 		--this->_Mylast();
; 1489 : 		return (_Make_iter(_Where));
; 1490 : 		}
; 1491 :  #endif /* _ITERATOR_DEBUG_LEVEL == 2 */
; 1492 : 
; 1493 : 	iterator erase(const_iterator _First_arg,
; 1494 : 		const_iterator _Last_arg)
; 1495 : 		{	// erase [_First, _Last)
; 1496 : 		if (_First_arg == begin() && _Last_arg == end())
; 1497 : 			clear();
; 1498 : 		else if (_First_arg != _Last_arg)
; 1499 : 			{	// clear partial
; 1500 : 			iterator _First = _Make_iter(_First_arg);
; 1501 : 			iterator _Last = _Make_iter(_Last_arg);
; 1502 : 
; 1503 : 			if (_First != _Last)
; 1504 : 				{	// worth doing, copy down over hole
; 1505 :  #if _ITERATOR_DEBUG_LEVEL == 2
; 1506 : 				if (_Last < _First || _VICONT(_First) != &this->_Get_data()
; 1507 : 					|| _VIPTR(_First) < this->_Myfirst()
; 1508 : 					|| this->_Mylast() < _VIPTR(_Last))
; 1509 : 					_DEBUG_ERROR("vector erase iterator outside range");
; 1510 : 				pointer _Ptr = _Move(_VIPTR(_Last), this->_Mylast(),
; 1511 : 					_VIPTR(_First));
; 1512 : 				_Orphan_range(_VIPTR(_First), this->_Mylast());
; 1513 : 
; 1514 :  #else /* _ITERATOR_DEBUG_LEVEL == 2 */
; 1515 : 				pointer _Ptr = _Move(_VIPTR(_Last), this->_Mylast(),
; 1516 : 					_VIPTR(_First));
; 1517 :  #endif /* _ITERATOR_DEBUG_LEVEL == 2 */
; 1518 : 
; 1519 : 				_Destroy(_Ptr, this->_Mylast());
; 1520 : 				this->_Mylast() = _Ptr;
; 1521 : 				}
; 1522 : 			}
; 1523 : 		return (_Make_iter(_First_arg));
; 1524 : 		}
; 1525 : 
; 1526 : 	void _Pop_back_n(size_type _Count)
; 1527 : 		{	// erase _Count elements at end
; 1528 : 		pointer _Ptr = this->_Mylast() - _Count;
; 1529 : 
; 1530 :  #if _ITERATOR_DEBUG_LEVEL == 2
; 1531 : 		_Orphan_range(_Ptr, this->_Mylast());
; 1532 :  #endif /* _ITERATOR_DEBUG_LEVEL == 2 */
; 1533 : 
; 1534 : 		_Destroy(_Ptr, this->_Mylast());
; 1535 : 		this->_Mylast() = _Ptr;
; 1536 : 		}
; 1537 : 
; 1538 : 	void clear() _NOEXCEPT
; 1539 : 		{	// erase all
; 1540 : 		this->_Orphan_all();
; 1541 : 		_Destroy(this->_Myfirst(), this->_Mylast());
; 1542 : 		this->_Mylast() = this->_Myfirst();
; 1543 : 		}
; 1544 : 
; 1545 : 	void swap(_Myt& _Right)
; 1546 : 		_NOEXCEPT_OP(_Alty::propagate_on_container_swap::value
; 1547 : 			|| _Alty::is_always_equal::value)
; 1548 : 		{	// exchange contents with _Right
; 1549 : 		if (this == &_Right)
; 1550 : 			;	// same object, do nothing
; 1551 : 		else if (this->_Getal() == _Right._Getal())
; 1552 : 			{	// same allocator, swap control information
; 1553 : 			this->_Swap_all(_Right);
; 1554 : 			_Swap_adl(this->_Myfirst(), _Right._Myfirst());
; 1555 : 			_Swap_adl(this->_Mylast(), _Right._Mylast());
; 1556 : 			_Swap_adl(this->_Myend(), _Right._Myend());
; 1557 : 			}
; 1558 : 
; 1559 : 		else if (_Alty::propagate_on_container_swap::value)
; 1560 : 			{	// swap allocators and control information
; 1561 : 			this->_Swap_alloc(_Right);
; 1562 : 			_Swap_adl(this->_Myfirst(), _Right._Myfirst());
; 1563 : 			_Swap_adl(this->_Mylast(), _Right._Mylast());
; 1564 : 			_Swap_adl(this->_Myend(), _Right._Myend());
; 1565 : 			}
; 1566 : 
; 1567 : 		else
; 1568 : 			{	// containers are incompatible
; 1569 :  #if _ITERATOR_DEBUG_LEVEL == 2
; 1570 : 			_DEBUG_ERROR("vector containers incompatible for swap");
; 1571 : 
; 1572 :  #else /* ITERATOR_DEBUG_LEVEL == 2 */
; 1573 : 			_XSTD terminate();
; 1574 :  #endif /* ITERATOR_DEBUG_LEVEL == 2 */
; 1575 : 			}
; 1576 : 		}
; 1577 : 
; 1578 : protected:
; 1579 : 	bool _Buy(size_type _Capacity)
; 1580 : 		{	// allocate array with _Capacity elements
; 1581 : 		this->_Myfirst() = pointer();
; 1582 : 		this->_Mylast() = pointer();
; 1583 : 		this->_Myend() = pointer();
; 1584 : 
; 1585 : 		if (_Capacity == 0)
; 1586 : 			return (false);
; 1587 : 		else if (max_size() < _Capacity)
; 1588 : 			_Xlen();	// result too long
; 1589 : 		else
; 1590 : 			{	// nonempty array, allocate storage
; 1591 : 			this->_Myfirst() = this->_Getal().allocate(_Capacity);
; 1592 : 			this->_Mylast() = this->_Myfirst();
; 1593 : 			this->_Myend() = this->_Myfirst() + _Capacity;
; 1594 : 			}
; 1595 : 		return (true);
; 1596 : 		}
; 1597 : 
; 1598 : 	void _Destroy(pointer _First, pointer _Last)
; 1599 : 		{	// destroy [_First, _Last) using allocator
; 1600 : 		_Destroy_range(_First, _Last, this->_Getal());
; 1601 : 		}
; 1602 : 
; 1603 : 	size_type _Grow_to(size_type _Count) const
; 1604 : 		{	// grow by 50% or at least to _Count
; 1605 : 		size_type _Capacity = capacity();
; 1606 : 
; 1607 : 		_Capacity = max_size() - _Capacity / 2 < _Capacity

  00064	ba f8 03 fe 00	 mov	 edx, 16647160		; 00fe03f8H
  00069	8b c6		 mov	 eax, esi
  0006b	d1 e8		 shr	 eax, 1
  0006d	2b d0		 sub	 edx, eax
  0006f	3b d6		 cmp	 edx, esi
  00071	8d 0c 30	 lea	 ecx, DWORD PTR [eax+esi]
  00074	b8 00 00 00 00	 mov	 eax, 0
  00079	0f 42 c8	 cmovb	 ecx, eax

; 1608 : 			? 0 : _Capacity + _Capacity / 2;	// try to grow by 50%
; 1609 : 		if (_Capacity < _Count)

  0007c	3b cf		 cmp	 ecx, edi
  0007e	0f 42 cf	 cmovb	 ecx, edi

; 1649 : 				_Xlen();
; 1650 : 			_Reallocate(_Grow_to(size() + _Count));

  00081	51		 push	 ecx
  00082	8b cb		 mov	 ecx, ebx
  00084	e8 00 00 00 00	 call	 ?_Reallocate@?$vector@UMessageBody@@V?$allocator@UMessageBody@@@std@@@std@@IAEXI@Z ; std::vector<MessageBody,std::allocator<MessageBody> >::_Reallocate
$LN2@Reserve:
  00089	5f		 pop	 edi
  0008a	5e		 pop	 esi
  0008b	5b		 pop	 ebx

; 1651 : 			}
; 1652 : 		}

  0008c	5d		 pop	 ebp
  0008d	c2 04 00	 ret	 4
$LN134@Reserve:

; 1653 : 
; 1654 : 	void _Tidy()
; 1655 : 		{	// free all storage
; 1656 : 		if (this->_Myfirst() != pointer())
; 1657 : 			{	// something to free, destroy and deallocate it
; 1658 : 			this->_Orphan_all();
; 1659 : 			_Destroy(this->_Myfirst(), this->_Mylast());
; 1660 : 			this->_Getal().deallocate(this->_Myfirst(),
; 1661 : 				this->_Myend() - this->_Myfirst());
; 1662 : 			this->_Myfirst() = pointer();
; 1663 : 			this->_Mylast() = pointer();
; 1664 : 			this->_Myend() = pointer();
; 1665 : 			}
; 1666 : 		}
; 1667 : 
; 1668 : 	template<class _Iter>
; 1669 : 		pointer _Ucopy(_Iter _First, _Iter _Last, pointer _Ptr)
; 1670 : 		{	// copy initializing [_First, _Last), using allocator
; 1671 : 		return (_Uninitialized_copy(_First, _Last,
; 1672 : 			_Ptr, this->_Getal()));
; 1673 : 		}
; 1674 : 
; 1675 : 	template<class _Iter>
; 1676 : 		pointer _Umove(_Iter _First, _Iter _Last, pointer _Ptr)
; 1677 : 		{	// move initializing [_First, _Last), using allocator
; 1678 : 		return (_Uninitialized_move(_First, _Last,
; 1679 : 			_Ptr, this->_Getal()));
; 1680 : 		}
; 1681 : 
; 1682 : 	iterator _Insert_n(const_iterator _Where,
; 1683 : 		size_type _Count, const value_type& _Val)
; 1684 : 		{	// insert _Count * _Val at _Where
; 1685 :  #if _ITERATOR_DEBUG_LEVEL == 2
; 1686 : 		if (_VICONT(_Where) != &this->_Get_data()
; 1687 : 			|| _VIPTR(_Where) < this->_Myfirst()
; 1688 : 			|| this->_Mylast() < _VIPTR(_Where))
; 1689 : 			_DEBUG_ERROR("vector insert iterator outside range");
; 1690 :  #endif /* _ITERATOR_DEBUG_LEVEL == 2 */
; 1691 : 
; 1692 : 		size_type _Off = _VIPTR(_Where) - this->_Myfirst();
; 1693 : 		if (_Count == 0)
; 1694 : 			;
; 1695 : 		else if (_Unused_capacity() < _Count)
; 1696 : 			{	// not enough room, reallocate
; 1697 : 			if (max_size() - size() < _Count)
; 1698 : 				_Xlen();	// result too long
; 1699 : 
; 1700 : 			size_type _Capacity = _Grow_to(size() + _Count);
; 1701 : 			pointer _Newvec = this->_Getal().allocate(_Capacity);
; 1702 : 			size_type _Whereoff = _VIPTR(_Where) - this->_Myfirst();
; 1703 : 			int _Ncopied = 0;
; 1704 : 
; 1705 : 			_TRY_BEGIN
; 1706 : 			_Ufill(_Newvec + _Whereoff, _Count,
; 1707 : 				_STD addressof(_Val));	// add new stuff
; 1708 : 			++_Ncopied;
; 1709 : 			_Umove(this->_Myfirst(), _VIPTR(_Where),
; 1710 : 				_Newvec);	// copy prefix
; 1711 : 			++_Ncopied;
; 1712 : 			_Umove(_VIPTR(_Where), this->_Mylast(),
; 1713 : 				_Newvec + (_Whereoff + _Count));	// copy suffix
; 1714 : 			_CATCH_ALL
; 1715 : 			if (1 < _Ncopied)
; 1716 : 				_Destroy(_Newvec, _Newvec + _Whereoff);
; 1717 : 			if (0 < _Ncopied)
; 1718 : 				_Destroy(_Newvec + _Whereoff, _Newvec + _Whereoff + _Count);
; 1719 : 			this->_Getal().deallocate(_Newvec, _Capacity);
; 1720 : 			_RERAISE;
; 1721 : 			_CATCH_END
; 1722 : 
; 1723 : 			_Count += size();
; 1724 : 			if (this->_Myfirst() != pointer())
; 1725 : 				{	// destroy and deallocate old array
; 1726 : 				_Destroy(this->_Myfirst(), this->_Mylast());
; 1727 : 				this->_Getal().deallocate(this->_Myfirst(),
; 1728 : 					this->_Myend() - this->_Myfirst());
; 1729 : 				}
; 1730 : 
; 1731 : 			this->_Orphan_all();
; 1732 : 			this->_Myend() = _Newvec + _Capacity;
; 1733 : 			this->_Mylast() = _Newvec + _Count;
; 1734 : 			this->_Myfirst() = _Newvec;
; 1735 : 			}
; 1736 : 		else if ((size_type)(this->_Mylast() - _VIPTR(_Where))
; 1737 : 			< _Count)
; 1738 : 			{	// new stuff spills off end
; 1739 : 			value_type _Tmp = _Val;	// in case _Val is in sequence
; 1740 : 
; 1741 : 			_Umove(_VIPTR(_Where), this->_Mylast(),
; 1742 : 				_VIPTR(_Where) + _Count);	// copy suffix
; 1743 : 
; 1744 : 			_TRY_BEGIN
; 1745 : 			_Ufill(this->_Mylast(),
; 1746 : 				_Count - (this->_Mylast() - _VIPTR(_Where)),
; 1747 : 				_STD addressof(_Tmp));	// insert new stuff off end
; 1748 : 			_CATCH_ALL
; 1749 : 			_Destroy(_VIPTR(_Where) + _Count,
; 1750 : 				this->_Mylast() + _Count);
; 1751 : 			_RERAISE;
; 1752 : 			_CATCH_END
; 1753 : 
; 1754 : 			this->_Mylast() += _Count;
; 1755 : 			_Orphan_range(_VIPTR(_Where), this->_Mylast());
; 1756 : 			_STD fill(_VIPTR(_Where), this->_Mylast() - _Count,
; 1757 : 				_Tmp);	// insert up to old end
; 1758 : 			}
; 1759 : 		else
; 1760 : 			{	// new stuff can all be assigned
; 1761 : 			value_type _Tmp = _Val;	// in case _Val is in sequence
; 1762 : 
; 1763 : 			pointer _Oldend = this->_Mylast();
; 1764 : 			this->_Mylast() = _Umove(_Oldend - _Count, _Oldend,
; 1765 : 				this->_Mylast());	// copy suffix
; 1766 : 
; 1767 : 			_Orphan_range(_VIPTR(_Where), this->_Mylast());
; 1768 : 			_Move_backward(_VIPTR(_Where), _Oldend - _Count,
; 1769 : 				_Oldend);	// copy hole
; 1770 : 			_STD fill(_VIPTR(_Where),
; 1771 : 				_VIPTR(_Where) + _Count, _Tmp);	// insert into hole
; 1772 : 			}
; 1773 : 		return (begin() + _Off);
; 1774 : 		}
; 1775 : 
; 1776 : 	pointer _Ufill(pointer _Ptr, size_type _Count, const value_type *_Pval)
; 1777 : 		{	// copy initializing _Count * _Val, using allocator
; 1778 : 		_Uninitialized_fill_n(_Ptr, _Count, _Pval, this->_Getal());
; 1779 : 		return (_Ptr + _Count);
; 1780 : 		}
; 1781 : 
; 1782 : 	[[noreturn]] void _Xlen() const
; 1783 : 		{	// report a length_error
; 1784 : 		_Xlength_error("vector<T> too long");

  00090	68 00 00 00 00	 push	 OFFSET ??_C@_0BD@OLBABOEK@vector?$DMT?$DO?5too?5long?$AA@
  00095	e8 00 00 00 00	 call	 ?_Xlength_error@std@@YAXPBD@Z ; std::_Xlength_error
$LN136@Reserve:
$LN133@Reserve:
  0009a	cc		 int	 3
?_Reserve@?$vector@UMessageBody@@V?$allocator@UMessageBody@@@std@@@std@@IAEXI@Z ENDP ; std::vector<MessageBody,std::allocator<MessageBody> >::_Reserve
_TEXT	ENDS
; Function compile flags: /Ogtp
; File c:\program files (x86)\microsoft visual studio 14.0\vc\include\vector
; File c:\program files (x86)\microsoft visual studio 14.0\vc\include\xmemory0
; File c:\program files (x86)\microsoft visual studio 14.0\vc\include\xmemory
; File c:\program files (x86)\microsoft visual studio 14.0\vc\include\vector
; File c:\program files (x86)\microsoft visual studio 14.0\vc\include\xmemory
; File c:\program files (x86)\microsoft visual studio 14.0\vc\include\vector
; File c:\program files (x86)\microsoft visual studio 14.0\vc\include\xmemory
; File c:\program files (x86)\microsoft visual studio 14.0\vc\include\vector
; File c:\program files (x86)\microsoft visual studio 14.0\vc\include\xmemory
; File c:\program files (x86)\microsoft visual studio 14.0\vc\include\vector
; File c:\program files (x86)\microsoft visual studio 14.0\vc\include\xmemory0
; File c:\program files (x86)\microsoft visual studio 14.0\vc\include\vector
; File c:\program files (x86)\microsoft visual studio 14.0\vc\include\xmemory0
; File c:\program files (x86)\microsoft visual studio 14.0\vc\include\vector
; File c:\program files (x86)\microsoft visual studio 14.0\vc\include\xmemory0
; File c:\program files (x86)\microsoft visual studio 14.0\vc\include\vector
;	COMDAT ?_Reallocate@?$vector@UMessageBody@@V?$allocator@UMessageBody@@@std@@@std@@IAEXI@Z
_TEXT	SEGMENT
_this$ = -24						; size = 4
__Ptr$ = -20						; size = 4
__$EHRec$ = -16						; size = 16
__Cat$2 = 8						; size = 1
__Count$ = 8						; size = 4
?_Reallocate@?$vector@UMessageBody@@V?$allocator@UMessageBody@@@std@@@std@@IAEXI@Z PROC ; std::vector<MessageBody,std::allocator<MessageBody> >::_Reallocate, COMDAT
; _this$ = ecx

; 1620 : 		{	// move to array of exactly _Count elements

  00000	55		 push	 ebp
  00001	8b ec		 mov	 ebp, esp
  00003	6a ff		 push	 -1
  00005	68 00 00 00 00	 push	 __ehhandler$?_Reallocate@?$vector@UMessageBody@@V?$allocator@UMessageBody@@@std@@@std@@IAEXI@Z
  0000a	64 a1 00 00 00
	00		 mov	 eax, DWORD PTR fs:0
  00010	50		 push	 eax
  00011	83 ec 0c	 sub	 esp, 12			; 0000000cH
  00014	53		 push	 ebx
  00015	56		 push	 esi
  00016	57		 push	 edi
  00017	a1 00 00 00 00	 mov	 eax, DWORD PTR ___security_cookie
  0001c	33 c5		 xor	 eax, ebp
  0001e	50		 push	 eax
  0001f	8d 45 f4	 lea	 eax, DWORD PTR __$EHRec$[ebp+4]
  00022	64 a3 00 00 00
	00		 mov	 DWORD PTR fs:0, eax
  00028	89 65 f0	 mov	 DWORD PTR __$EHRec$[ebp], esp
  0002b	8b f1		 mov	 esi, ecx
  0002d	89 75 e8	 mov	 DWORD PTR _this$[ebp], esi
; File c:\program files (x86)\microsoft visual studio 14.0\vc\include\xmemory0

; 898  : 		return (_Mybase::allocate(_Count));

  00030	ff 75 08	 push	 DWORD PTR __Count$[ebp]
  00033	e8 00 00 00 00	 call	 ?allocate@?$allocator@UMessageBody@@@std@@QAEPAUMessageBody@@I@Z ; std::allocator<MessageBody>::allocate
; File c:\program files (x86)\microsoft visual studio 14.0\vc\include\xmemory

; 481  : 	return (_Uninit_move(_First, _Last, _Dest, _Al,

  00038	ff 75 08	 push	 DWORD PTR __Cat$2[ebp]
; File c:\program files (x86)\microsoft visual studio 14.0\vc\include\vector

; 1621 : 		pointer _Ptr = this->_Getal().allocate(_Count);

  0003b	8b f8		 mov	 edi, eax

; 1622 : 
; 1623 : 		_TRY_BEGIN

  0003d	c7 45 fc 00 00
	00 00		 mov	 DWORD PTR __$EHRec$[ebp+12], 0
; File c:\program files (x86)\microsoft visual studio 14.0\vc\include\xmemory

; 481  : 	return (_Uninit_move(_First, _Last, _Dest, _Al,

  00044	6a 00		 push	 0
  00046	56		 push	 esi
  00047	57		 push	 edi
  00048	ff 76 04	 push	 DWORD PTR [esi+4]
; File c:\program files (x86)\microsoft visual studio 14.0\vc\include\vector

; 1621 : 		pointer _Ptr = this->_Getal().allocate(_Count);

  0004b	89 7d ec	 mov	 DWORD PTR __Ptr$[ebp], edi
; File c:\program files (x86)\microsoft visual studio 14.0\vc\include\xmemory

; 481  : 	return (_Uninit_move(_First, _Last, _Dest, _Al,

  0004e	ff 36		 push	 DWORD PTR [esi]
  00050	e8 00 00 00 00	 call	 ??$_Uninit_move@PAUMessageBody@@PAU1@V?$allocator@UMessageBody@@@std@@U1@@std@@YAPAUMessageBody@@PAU1@00AAU?$_Wrap_alloc@V?$allocator@UMessageBody@@@std@@@0@0U_Nonscalar_ptr_iterator_tag@0@@Z ; std::_Uninit_move<MessageBody *,MessageBody *,std::allocator<MessageBody>,MessageBody>
; File c:\program files (x86)\microsoft visual studio 14.0\vc\include\vector

; 1179 : 		return (this->_Mylast() - this->_Myfirst());

  00055	8b 4e 04	 mov	 ecx, DWORD PTR [esi+4]
  00058	b8 81 3f e0 0f	 mov	 eax, 266354561		; 0fe03f81H
  0005d	2b 0e		 sub	 ecx, DWORD PTR [esi]
; File c:\program files (x86)\microsoft visual studio 14.0\vc\include\xmemory

; 481  : 	return (_Uninit_move(_First, _Last, _Dest, _Al,

  0005f	83 c4 18	 add	 esp, 24			; 00000018H
; File c:\program files (x86)\microsoft visual studio 14.0\vc\include\vector

; 1179 : 		return (this->_Mylast() - this->_Myfirst());

  00062	f7 e9		 imul	 ecx

; 1628 : 		_CATCH_END
; 1629 : 
; 1630 : 		size_type _Size = size();
; 1631 : 		if (this->_Myfirst() != pointer())

  00064	8b 06		 mov	 eax, DWORD PTR [esi]

; 1179 : 		return (this->_Mylast() - this->_Myfirst());

  00066	c1 fa 04	 sar	 edx, 4
  00069	8b da		 mov	 ebx, edx
  0006b	c1 eb 1f	 shr	 ebx, 31			; 0000001fH
  0006e	03 da		 add	 ebx, edx

; 1628 : 		_CATCH_END
; 1629 : 
; 1630 : 		size_type _Size = size();
; 1631 : 		if (this->_Myfirst() != pointer())

  00070	85 c0		 test	 eax, eax
  00072	74 20		 je	 SHORT $LN3@Reallocate

; 1634 : 			this->_Getal().deallocate(this->_Myfirst(),

  00074	8b 4e 08	 mov	 ecx, DWORD PTR [esi+8]
  00077	2b c8		 sub	 ecx, eax
  00079	b8 81 3f e0 0f	 mov	 eax, 266354561		; 0fe03f81H
  0007e	f7 e9		 imul	 ecx
; File c:\program files (x86)\microsoft visual studio 14.0\vc\include\xmemory0

; 909  : 		_Mybase::deallocate(_Ptr, _Count);

  00080	8b ce		 mov	 ecx, esi
; File c:\program files (x86)\microsoft visual studio 14.0\vc\include\vector

; 1634 : 			this->_Getal().deallocate(this->_Myfirst(),

  00082	c1 fa 04	 sar	 edx, 4
  00085	8b c2		 mov	 eax, edx
  00087	c1 e8 1f	 shr	 eax, 31			; 0000001fH
  0008a	03 c2		 add	 eax, edx
; File c:\program files (x86)\microsoft visual studio 14.0\vc\include\xmemory0

; 909  : 		_Mybase::deallocate(_Ptr, _Count);

  0008c	50		 push	 eax
  0008d	ff 36		 push	 DWORD PTR [esi]
  0008f	e8 00 00 00 00	 call	 ?deallocate@?$allocator@UMessageBody@@@std@@QAEXPAUMessageBody@@I@Z ; std::allocator<MessageBody>::deallocate
$LN3@Reallocate:
; File c:\program files (x86)\microsoft visual studio 14.0\vc\include\vector

; 1639 : 		this->_Myend() = _Ptr + _Count;

  00094	69 45 08 02 01
	00 00		 imul	 eax, DWORD PTR __Count$[ebp], 258
  0009b	03 c7		 add	 eax, edi
  0009d	89 46 08	 mov	 DWORD PTR [esi+8], eax

; 1640 : 		this->_Mylast() = _Ptr + _Size;

  000a0	69 c3 02 01 00
	00		 imul	 eax, ebx, 258
  000a6	03 c7		 add	 eax, edi
  000a8	89 46 04	 mov	 DWORD PTR [esi+4], eax

; 1641 : 		this->_Myfirst() = _Ptr;

  000ab	89 3e		 mov	 DWORD PTR [esi], edi

; 1642 : 		}

  000ad	8b 4d f4	 mov	 ecx, DWORD PTR __$EHRec$[ebp+4]
  000b0	64 89 0d 00 00
	00 00		 mov	 DWORD PTR fs:0, ecx
  000b7	59		 pop	 ecx
  000b8	5f		 pop	 edi
  000b9	5e		 pop	 esi
  000ba	5b		 pop	 ebx
  000bb	8b e5		 mov	 esp, ebp
  000bd	5d		 pop	 ebp
  000be	c2 04 00	 ret	 4
__catch$?_Reallocate@?$vector@UMessageBody@@V?$allocator@UMessageBody@@@std@@@std@@IAEXI@Z$0:
; File c:\program files (x86)\microsoft visual studio 14.0\vc\include\xmemory0

; 909  : 		_Mybase::deallocate(_Ptr, _Count);

  000c1	ff 75 08	 push	 DWORD PTR __Count$[ebp]
  000c4	8b 4d e8	 mov	 ecx, DWORD PTR _this$[ebp]
  000c7	ff 75 ec	 push	 DWORD PTR __Ptr$[ebp]
  000ca	e8 00 00 00 00	 call	 ?deallocate@?$allocator@UMessageBody@@@std@@QAEXPAUMessageBody@@I@Z ; std::allocator<MessageBody>::deallocate
; File c:\program files (x86)\microsoft visual studio 14.0\vc\include\vector

; 1627 : 		_RERAISE;

  000cf	6a 00		 push	 0
  000d1	6a 00		 push	 0
  000d3	e8 00 00 00 00	 call	 __CxxThrowException@8
$LN179@Reallocate:
$LN178@Reallocate:
  000d8	cc		 int	 3
_TEXT	ENDS
;	COMDAT text$x
text$x	SEGMENT
__ehhandler$?_Reallocate@?$vector@UMessageBody@@V?$allocator@UMessageBody@@@std@@@std@@IAEXI@Z:
  00000	8b 54 24 08	 mov	 edx, DWORD PTR [esp+8]
  00004	8d 42 0c	 lea	 eax, DWORD PTR [edx+12]
  00007	8b 4a e4	 mov	 ecx, DWORD PTR [edx-28]
  0000a	33 c8		 xor	 ecx, eax
  0000c	e8 00 00 00 00	 call	 @__security_check_cookie@4
  00011	b8 00 00 00 00	 mov	 eax, OFFSET __ehfuncinfo$?_Reallocate@?$vector@UMessageBody@@V?$allocator@UMessageBody@@@std@@@std@@IAEXI@Z
  00016	e9 00 00 00 00	 jmp	 ___CxxFrameHandler3
text$x	ENDS
?_Reallocate@?$vector@UMessageBody@@V?$allocator@UMessageBody@@@std@@@std@@IAEXI@Z ENDP ; std::vector<MessageBody,std::allocator<MessageBody> >::_Reallocate
; Function compile flags: /Ogtp
; File c:\program files (x86)\microsoft visual studio 14.0\vc\include\vector
;	COMDAT ?_Inside@?$vector@UMessageBody@@V?$allocator@UMessageBody@@@std@@@std@@IBE_NPBUMessageBody@@@Z
_TEXT	SEGMENT
__Ptr$ = 8						; size = 4
?_Inside@?$vector@UMessageBody@@V?$allocator@UMessageBody@@@std@@@std@@IBE_NPBUMessageBody@@@Z PROC ; std::vector<MessageBody,std::allocator<MessageBody> >::_Inside, COMDAT
; _this$ = ecx

; 1615 : 		{	// test if _Ptr points inside vector

  00000	55		 push	 ebp
  00001	8b ec		 mov	 ebp, esp

; 1616 : 		return (_Ptr < this->_Mylast() && this->_Myfirst() <= _Ptr);

  00003	8b 45 08	 mov	 eax, DWORD PTR __Ptr$[ebp]
  00006	3b 41 04	 cmp	 eax, DWORD PTR [ecx+4]
  00009	73 0a		 jae	 SHORT $LN3@Inside
  0000b	39 01		 cmp	 DWORD PTR [ecx], eax
  0000d	77 06		 ja	 SHORT $LN3@Inside
  0000f	b0 01		 mov	 al, 1

; 1617 : 		}

  00011	5d		 pop	 ebp
  00012	c2 04 00	 ret	 4
$LN3@Inside:

; 1616 : 		return (_Ptr < this->_Mylast() && this->_Myfirst() <= _Ptr);

  00015	32 c0		 xor	 al, al

; 1617 : 		}

  00017	5d		 pop	 ebp
  00018	c2 04 00	 ret	 4
?_Inside@?$vector@UMessageBody@@V?$allocator@UMessageBody@@@std@@@std@@IBE_NPBUMessageBody@@@Z ENDP ; std::vector<MessageBody,std::allocator<MessageBody> >::_Inside
_TEXT	ENDS
; Function compile flags: /Ogtp
; File c:\program files (x86)\microsoft visual studio 14.0\vc\include\vector
;	COMDAT ?_Grow_to@?$vector@UMessageBody@@V?$allocator@UMessageBody@@@std@@@std@@IBEII@Z
_TEXT	SEGMENT
__Count$ = 8						; size = 4
?_Grow_to@?$vector@UMessageBody@@V?$allocator@UMessageBody@@@std@@@std@@IBEII@Z PROC ; std::vector<MessageBody,std::allocator<MessageBody> >::_Grow_to, COMDAT
; _this$ = ecx

; 1604 : 		{	// grow by 50% or at least to _Count

  00000	55		 push	 ebp
  00001	8b ec		 mov	 ebp, esp

; 1042 : 		return (this->_Myend() - this->_Myfirst());

  00003	8b 51 08	 mov	 edx, DWORD PTR [ecx+8]
  00006	b8 81 3f e0 0f	 mov	 eax, 266354561		; 0fe03f81H
  0000b	2b 11		 sub	 edx, DWORD PTR [ecx]

; 1605 : 		size_type _Capacity = capacity();
; 1606 : 
; 1607 : 		_Capacity = max_size() - _Capacity / 2 < _Capacity

  0000d	b9 f8 03 fe 00	 mov	 ecx, 16647160		; 00fe03f8H

; 1042 : 		return (this->_Myend() - this->_Myfirst());

  00012	f7 ea		 imul	 edx
  00014	56		 push	 esi
  00015	c1 fa 04	 sar	 edx, 4
  00018	8b f2		 mov	 esi, edx
  0001a	c1 ee 1f	 shr	 esi, 31			; 0000001fH
  0001d	03 f2		 add	 esi, edx

; 1605 : 		size_type _Capacity = capacity();
; 1606 : 
; 1607 : 		_Capacity = max_size() - _Capacity / 2 < _Capacity

  0001f	8b c6		 mov	 eax, esi
  00021	d1 e8		 shr	 eax, 1
  00023	57		 push	 edi
  00024	2b c8		 sub	 ecx, eax
  00026	33 ff		 xor	 edi, edi
  00028	3b ce		 cmp	 ecx, esi
  0002a	8d 14 30	 lea	 edx, DWORD PTR [eax+esi]
  0002d	0f 42 d7	 cmovb	 edx, edi

; 1608 : 			? 0 : _Capacity + _Capacity / 2;	// try to grow by 50%
; 1609 : 		if (_Capacity < _Count)

  00030	3b 55 08	 cmp	 edx, DWORD PTR __Count$[ebp]
  00033	5f		 pop	 edi
  00034	0f 42 55 08	 cmovb	 edx, DWORD PTR __Count$[ebp]

; 1610 : 			_Capacity = _Count;
; 1611 : 		return (_Capacity);

  00038	8b c2		 mov	 eax, edx
  0003a	5e		 pop	 esi

; 1612 : 		}

  0003b	5d		 pop	 ebp
  0003c	c2 04 00	 ret	 4
?_Grow_to@?$vector@UMessageBody@@V?$allocator@UMessageBody@@@std@@@std@@IBEII@Z ENDP ; std::vector<MessageBody,std::allocator<MessageBody> >::_Grow_to
_TEXT	ENDS
; Function compile flags: /Ogtp
; File c:\program files (x86)\microsoft visual studio 14.0\vc\include\vector
;	COMDAT ?_Destroy@?$vector@UMessageBody@@V?$allocator@UMessageBody@@@std@@@std@@IAEXPAUMessageBody@@0@Z
_TEXT	SEGMENT
__First$ = 8						; size = 4
__Last$ = 12						; size = 4
?_Destroy@?$vector@UMessageBody@@V?$allocator@UMessageBody@@@std@@@std@@IAEXPAUMessageBody@@0@Z PROC ; std::vector<MessageBody,std::allocator<MessageBody> >::_Destroy, COMDAT
; _this$ = ecx

; 1600 : 		_Destroy_range(_First, _Last, this->_Getal());
; 1601 : 		}

  00000	c2 08 00	 ret	 8
?_Destroy@?$vector@UMessageBody@@V?$allocator@UMessageBody@@@std@@@std@@IAEXPAUMessageBody@@0@Z ENDP ; std::vector<MessageBody,std::allocator<MessageBody> >::_Destroy
_TEXT	ENDS
; Function compile flags: /Ogtp
; File c:\program files (x86)\microsoft visual studio 14.0\vc\include\vector
;	COMDAT ?clear@?$vector@UMessageBody@@V?$allocator@UMessageBody@@@std@@@std@@QAEXXZ
_TEXT	SEGMENT
?clear@?$vector@UMessageBody@@V?$allocator@UMessageBody@@@std@@@std@@QAEXXZ PROC ; std::vector<MessageBody,std::allocator<MessageBody> >::clear, COMDAT
; _this$ = ecx

; 1540 : 		this->_Orphan_all();
; 1541 : 		_Destroy(this->_Myfirst(), this->_Mylast());
; 1542 : 		this->_Mylast() = this->_Myfirst();

  00000	8b 01		 mov	 eax, DWORD PTR [ecx]
  00002	89 41 04	 mov	 DWORD PTR [ecx+4], eax

; 1543 : 		}

  00005	c3		 ret	 0
?clear@?$vector@UMessageBody@@V?$allocator@UMessageBody@@@std@@@std@@QAEXXZ ENDP ; std::vector<MessageBody,std::allocator<MessageBody> >::clear
_TEXT	ENDS
; Function compile flags: /Ogtp
; File c:\program files (x86)\microsoft visual studio 14.0\vc\include\vector
; File c:\program files (x86)\microsoft visual studio 14.0\vc\include\xmemory0
; File c:\program files (x86)\microsoft visual studio 14.0\vc\include\vector
; File c:\program files (x86)\microsoft visual studio 14.0\vc\include\xmemory0
; File c:\program files (x86)\microsoft visual studio 14.0\vc\include\vector
;	COMDAT ?push_back@?$vector@UMessageBody@@V?$allocator@UMessageBody@@@std@@@std@@QAEXABUMessageBody@@@Z
_TEXT	SEGMENT
__Val$ = 8						; size = 4
?push_back@?$vector@UMessageBody@@V?$allocator@UMessageBody@@@std@@@std@@QAEXABUMessageBody@@@Z PROC ; std::vector<MessageBody,std::allocator<MessageBody> >::push_back, COMDAT
; _this$ = ecx

; 1274 : 		{	// insert element at end

  00000	55		 push	 ebp
  00001	8b ec		 mov	 ebp, esp
  00003	53		 push	 ebx
  00004	8b d9		 mov	 ebx, ecx
  00006	56		 push	 esi

; 1295 : 
; 1296 :  #if _ITERATOR_DEBUG_LEVEL == 2
; 1297 : 	void pop_back()
; 1298 : 		{	// erase element at end
; 1299 : 		if (empty())
; 1300 : 			_DEBUG_ERROR("vector empty before pop");
; 1301 : 		else
; 1302 : 			{	// erase last element
; 1303 : 			_Orphan_range(this->_Mylast() - 1, this->_Mylast());
; 1304 : 			this->_Getal().destroy(this->_Mylast() - 1);
; 1305 : 			--this->_Mylast();
; 1306 : 			}
; 1307 : 		}
; 1308 : 
; 1309 :  #else /* _ITERATOR_DEBUG_LEVEL == 2 */
; 1310 : 	void pop_back()
; 1311 : 		{	// erase element at end
; 1312 : 		this->_Getal().destroy(this->_Mylast() - 1);
; 1313 : 		--this->_Mylast();
; 1314 : 		}
; 1315 :  #endif /* _ITERATOR_DEBUG_LEVEL == 2 */
; 1316 : 
; 1317 : 	template<class _Iter>
; 1318 : 		typename enable_if<_Is_iterator<_Iter>::value,
; 1319 : 			void>::type
; 1320 : 		assign(_Iter _First, _Iter _Last)
; 1321 : 		{	// assign [_First, _Last)
; 1322 : 		clear();
; 1323 : 		_Assign(_First, _Last, _Iter_cat(_First));
; 1324 : 		}
; 1325 : 
; 1326 : 	template<class _Iter>
; 1327 : 		void _Assign(_Iter _First, _Iter _Last,
; 1328 : 			input_iterator_tag)
; 1329 : 		{	// assign [_First, _Last), input iterators
; 1330 : 		for (; _First != _Last; ++_First)
; 1331 : 			emplace_back(*_First);
; 1332 : 		}
; 1333 : 
; 1334 : 	template<class _Iter>
; 1335 : 		void _Assign(_Iter _First, _Iter _Last,
; 1336 : 			forward_iterator_tag)
; 1337 : 		{	// assign [_First, _Last), forward iterators
; 1338 : 		size_type _Newsize = _STD distance(_First, _Last);
; 1339 : 
; 1340 : 		if (capacity() < _Newsize)
; 1341 : 			{	// need more room, try to get it
; 1342 : 			size_type _Newcapacity = _Grow_to(_Newsize);
; 1343 : 			_Tidy();
; 1344 : 			_Buy(_Newcapacity);
; 1345 : 			}
; 1346 : 
; 1347 : 		this->_Mylast() = _Ucopy(_First, _Last, this->_Myfirst());
; 1348 : 		}
; 1349 : 
; 1350 : 	void assign(size_type _Count, const value_type& _Val)
; 1351 : 		{	// assign _Count * _Val
; 1352 : 		clear();
; 1353 : 		insert(begin(), _Count, _Val);
; 1354 : 		}
; 1355 : 
; 1356 : 	iterator insert(const_iterator _Where, const _Ty& _Val)
; 1357 : 		{	// insert _Val at _Where
; 1358 : 		return (_Insert_n(_Where, (size_type)1, _Val));
; 1359 : 		}
; 1360 : 
; 1361 : 	iterator insert(const_iterator _Where, size_type _Count,
; 1362 : 		const _Ty& _Val)
; 1363 : 		{	// insert _Count * _Val at _Where
; 1364 : 		return (_Insert_n(_Where, _Count, _Val));
; 1365 : 		}
; 1366 : 
; 1367 : 	template<class _Iter>
; 1368 : 		typename enable_if<_Is_iterator<_Iter>::value,
; 1369 : 			iterator>::type
; 1370 : 		insert(const_iterator _Where, _Iter _First, _Iter _Last)
; 1371 : 		{	// insert [_First, _Last) at _Where
; 1372 : 		size_type _Off = _VIPTR(_Where) - this->_Myfirst();
; 1373 : 		_Insert(_Where, _First, _Last, _Iter_cat(_First));
; 1374 : 		return (begin() + _Off);
; 1375 : 		}
; 1376 : 
; 1377 : 	template<class _Iter>
; 1378 : 		void _Insert(const_iterator _Where,
; 1379 : 			_Iter _First, _Iter _Last,
; 1380 : 				input_iterator_tag)
; 1381 : 		{	// insert [_First, _Last) at _Where, input iterators
; 1382 : 		size_type _Off = _VIPTR(_Where) - this->_Myfirst();
; 1383 : 
; 1384 :  #if _ITERATOR_DEBUG_LEVEL == 2
; 1385 : 		if (size() < _Off)
; 1386 : 			_DEBUG_ERROR("vector insert iterator outside range");
; 1387 :  #endif /* _ITERATOR_DEBUG_LEVEL == 2 */
; 1388 : 
; 1389 : 		if (_First != _Last)
; 1390 : 			{	// worth doing, gather at end and rotate into place
; 1391 : 			size_type _Oldsize = size();
; 1392 : 
; 1393 : 			_TRY_BEGIN
; 1394 : 			for (; _First != _Last; ++_First)
; 1395 : 				push_back(*_First);	// append
; 1396 : 
; 1397 : 			_CATCH_ALL
; 1398 : 			erase(begin() + _Oldsize, end());
; 1399 : 			_RERAISE;
; 1400 : 			_CATCH_END
; 1401 : 
; 1402 : 			_STD rotate(begin() + _Off, begin() + _Oldsize, end());
; 1403 : 			}
; 1404 : 		}
; 1405 : 
; 1406 : 	template<class _Iter>
; 1407 : 		void _Insert(const_iterator _Where,
; 1408 : 			_Iter _First, _Iter _Last,
; 1409 : 				forward_iterator_tag)
; 1410 : 		{	// insert [_First, _Last) at _Where, forward iterators
; 1411 :  #if _ITERATOR_DEBUG_LEVEL == 2
; 1412 : 		if (_VICONT(_Where) != &this->_Get_data()
; 1413 : 			|| _VIPTR(_Where) < this->_Myfirst()
; 1414 : 			|| this->_Mylast() < _VIPTR(_Where))
; 1415 : 			_DEBUG_ERROR("vector insert iterator outside range");
; 1416 : 		_DEBUG_RANGE(_First, _Last);
; 1417 :  #endif /* _ITERATOR_DEBUG_LEVEL == 2 */
; 1418 : 
; 1419 : 		size_type _Count = 0;
; 1420 : 		_Distance(_First, _Last, _Count);
; 1421 : 
; 1422 : 		if (_Count == 0)
; 1423 : 			;
; 1424 : 		else if (_Unused_capacity() < _Count)
; 1425 : 			{	// not enough room, reallocate
; 1426 : 			if (max_size() - size() < _Count)
; 1427 : 				_Xlen();	// result too long
; 1428 : 
; 1429 : 			size_type _Capacity = _Grow_to(size() + _Count);
; 1430 : 			pointer _Newvec = this->_Getal().allocate(_Capacity);
; 1431 : 			pointer _Ptr = _Newvec;
; 1432 : 
; 1433 : 			_TRY_BEGIN
; 1434 : 			_Ptr = _Umove(this->_Myfirst(), _VIPTR(_Where),
; 1435 : 				_Newvec);	// copy prefix
; 1436 : 			_Ptr = _Ucopy(_First, _Last, _Ptr);	// add new stuff
; 1437 : 			_Umove(_VIPTR(_Where), this->_Mylast(),
; 1438 : 				_Ptr);	// copy suffix
; 1439 : 			_CATCH_ALL
; 1440 : 			_Destroy(_Newvec, _Ptr);
; 1441 : 			this->_Getal().deallocate(_Newvec, _Capacity);
; 1442 : 			_RERAISE;
; 1443 : 			_CATCH_END
; 1444 : 
; 1445 : 			_Count += size();
; 1446 : 			if (this->_Myfirst() != pointer())
; 1447 : 				{	// destroy and deallocate old array
; 1448 : 				_Destroy(this->_Myfirst(), this->_Mylast());
; 1449 : 				this->_Getal().deallocate(this->_Myfirst(),
; 1450 : 					this->_Myend() - this->_Myfirst());
; 1451 : 				}
; 1452 : 
; 1453 : 			this->_Orphan_all();
; 1454 : 			this->_Myend() = _Newvec + _Capacity;
; 1455 : 			this->_Mylast() = _Newvec + _Count;
; 1456 : 			this->_Myfirst() = _Newvec;
; 1457 : 			}
; 1458 : 		else
; 1459 : 			{	// new stuff fits, append and rotate into place
; 1460 : 			_Ucopy(_First, _Last, this->_Mylast());
; 1461 : 			_STD rotate(_VIPTR(_Where), this->_Mylast(),
; 1462 : 				this->_Mylast() + _Count);
; 1463 : 			this->_Mylast() += _Count;
; 1464 : 			_Orphan_range(_VIPTR(_Where), this->_Mylast());
; 1465 : 			}
; 1466 : 		}
; 1467 : 
; 1468 :  #if _ITERATOR_DEBUG_LEVEL == 2
; 1469 : 	iterator erase(const_iterator _Where)
; 1470 : 		{	// erase element at where
; 1471 : 		if (_VICONT(_Where) != &this->_Get_data()
; 1472 : 			|| _VIPTR(_Where) < this->_Myfirst()
; 1473 : 			|| this->_Mylast() <= _VIPTR(_Where))
; 1474 : 			_DEBUG_ERROR("vector erase iterator outside range");
; 1475 : 		_Move(_VIPTR(_Where) + 1, this->_Mylast(), _VIPTR(_Where));
; 1476 : 		_Destroy(this->_Mylast() - 1, this->_Mylast());
; 1477 : 		_Orphan_range(_VIPTR(_Where), this->_Mylast());
; 1478 : 		--this->_Mylast();
; 1479 : 		return (_Make_iter(_Where));
; 1480 : 		}
; 1481 : 
; 1482 :  #else /* _ITERATOR_DEBUG_LEVEL == 2 */
; 1483 : 	iterator erase(const_iterator _Where)
; 1484 : 		{	// erase element at where
; 1485 : 		_Move(_VIPTR(_Where) + 1, this->_Mylast(),
; 1486 : 			_VIPTR(_Where));
; 1487 : 		_Destroy(this->_Mylast() - 1, this->_Mylast());
; 1488 : 		--this->_Mylast();
; 1489 : 		return (_Make_iter(_Where));
; 1490 : 		}
; 1491 :  #endif /* _ITERATOR_DEBUG_LEVEL == 2 */
; 1492 : 
; 1493 : 	iterator erase(const_iterator _First_arg,
; 1494 : 		const_iterator _Last_arg)
; 1495 : 		{	// erase [_First, _Last)
; 1496 : 		if (_First_arg == begin() && _Last_arg == end())
; 1497 : 			clear();
; 1498 : 		else if (_First_arg != _Last_arg)
; 1499 : 			{	// clear partial
; 1500 : 			iterator _First = _Make_iter(_First_arg);
; 1501 : 			iterator _Last = _Make_iter(_Last_arg);
; 1502 : 
; 1503 : 			if (_First != _Last)
; 1504 : 				{	// worth doing, copy down over hole
; 1505 :  #if _ITERATOR_DEBUG_LEVEL == 2
; 1506 : 				if (_Last < _First || _VICONT(_First) != &this->_Get_data()
; 1507 : 					|| _VIPTR(_First) < this->_Myfirst()
; 1508 : 					|| this->_Mylast() < _VIPTR(_Last))
; 1509 : 					_DEBUG_ERROR("vector erase iterator outside range");
; 1510 : 				pointer _Ptr = _Move(_VIPTR(_Last), this->_Mylast(),
; 1511 : 					_VIPTR(_First));
; 1512 : 				_Orphan_range(_VIPTR(_First), this->_Mylast());
; 1513 : 
; 1514 :  #else /* _ITERATOR_DEBUG_LEVEL == 2 */
; 1515 : 				pointer _Ptr = _Move(_VIPTR(_Last), this->_Mylast(),
; 1516 : 					_VIPTR(_First));
; 1517 :  #endif /* _ITERATOR_DEBUG_LEVEL == 2 */
; 1518 : 
; 1519 : 				_Destroy(_Ptr, this->_Mylast());
; 1520 : 				this->_Mylast() = _Ptr;
; 1521 : 				}
; 1522 : 			}
; 1523 : 		return (_Make_iter(_First_arg));
; 1524 : 		}
; 1525 : 
; 1526 : 	void _Pop_back_n(size_type _Count)
; 1527 : 		{	// erase _Count elements at end
; 1528 : 		pointer _Ptr = this->_Mylast() - _Count;
; 1529 : 
; 1530 :  #if _ITERATOR_DEBUG_LEVEL == 2
; 1531 : 		_Orphan_range(_Ptr, this->_Mylast());
; 1532 :  #endif /* _ITERATOR_DEBUG_LEVEL == 2 */
; 1533 : 
; 1534 : 		_Destroy(_Ptr, this->_Mylast());
; 1535 : 		this->_Mylast() = _Ptr;
; 1536 : 		}
; 1537 : 
; 1538 : 	void clear() _NOEXCEPT
; 1539 : 		{	// erase all
; 1540 : 		this->_Orphan_all();
; 1541 : 		_Destroy(this->_Myfirst(), this->_Mylast());
; 1542 : 		this->_Mylast() = this->_Myfirst();
; 1543 : 		}
; 1544 : 
; 1545 : 	void swap(_Myt& _Right)
; 1546 : 		_NOEXCEPT_OP(_Alty::propagate_on_container_swap::value
; 1547 : 			|| _Alty::is_always_equal::value)
; 1548 : 		{	// exchange contents with _Right
; 1549 : 		if (this == &_Right)
; 1550 : 			;	// same object, do nothing
; 1551 : 		else if (this->_Getal() == _Right._Getal())
; 1552 : 			{	// same allocator, swap control information
; 1553 : 			this->_Swap_all(_Right);
; 1554 : 			_Swap_adl(this->_Myfirst(), _Right._Myfirst());
; 1555 : 			_Swap_adl(this->_Mylast(), _Right._Mylast());
; 1556 : 			_Swap_adl(this->_Myend(), _Right._Myend());
; 1557 : 			}
; 1558 : 
; 1559 : 		else if (_Alty::propagate_on_container_swap::value)
; 1560 : 			{	// swap allocators and control information
; 1561 : 			this->_Swap_alloc(_Right);
; 1562 : 			_Swap_adl(this->_Myfirst(), _Right._Myfirst());
; 1563 : 			_Swap_adl(this->_Mylast(), _Right._Mylast());
; 1564 : 			_Swap_adl(this->_Myend(), _Right._Myend());
; 1565 : 			}
; 1566 : 
; 1567 : 		else
; 1568 : 			{	// containers are incompatible
; 1569 :  #if _ITERATOR_DEBUG_LEVEL == 2
; 1570 : 			_DEBUG_ERROR("vector containers incompatible for swap");
; 1571 : 
; 1572 :  #else /* ITERATOR_DEBUG_LEVEL == 2 */
; 1573 : 			_XSTD terminate();
; 1574 :  #endif /* ITERATOR_DEBUG_LEVEL == 2 */
; 1575 : 			}
; 1576 : 		}
; 1577 : 
; 1578 : protected:
; 1579 : 	bool _Buy(size_type _Capacity)
; 1580 : 		{	// allocate array with _Capacity elements
; 1581 : 		this->_Myfirst() = pointer();
; 1582 : 		this->_Mylast() = pointer();
; 1583 : 		this->_Myend() = pointer();
; 1584 : 
; 1585 : 		if (_Capacity == 0)
; 1586 : 			return (false);
; 1587 : 		else if (max_size() < _Capacity)
; 1588 : 			_Xlen();	// result too long
; 1589 : 		else
; 1590 : 			{	// nonempty array, allocate storage
; 1591 : 			this->_Myfirst() = this->_Getal().allocate(_Capacity);
; 1592 : 			this->_Mylast() = this->_Myfirst();
; 1593 : 			this->_Myend() = this->_Myfirst() + _Capacity;
; 1594 : 			}
; 1595 : 		return (true);
; 1596 : 		}
; 1597 : 
; 1598 : 	void _Destroy(pointer _First, pointer _Last)
; 1599 : 		{	// destroy [_First, _Last) using allocator
; 1600 : 		_Destroy_range(_First, _Last, this->_Getal());
; 1601 : 		}
; 1602 : 
; 1603 : 	size_type _Grow_to(size_type _Count) const
; 1604 : 		{	// grow by 50% or at least to _Count
; 1605 : 		size_type _Capacity = capacity();
; 1606 : 
; 1607 : 		_Capacity = max_size() - _Capacity / 2 < _Capacity
; 1608 : 			? 0 : _Capacity + _Capacity / 2;	// try to grow by 50%
; 1609 : 		if (_Capacity < _Count)
; 1610 : 			_Capacity = _Count;
; 1611 : 		return (_Capacity);
; 1612 : 		}
; 1613 : 
; 1614 : 	bool _Inside(const value_type *_Ptr) const
; 1615 : 		{	// test if _Ptr points inside vector
; 1616 : 		return (_Ptr < this->_Mylast() && this->_Myfirst() <= _Ptr);

  00007	8b 75 08	 mov	 esi, DWORD PTR __Val$[ebp]
  0000a	57		 push	 edi
  0000b	8b 4b 04	 mov	 ecx, DWORD PTR [ebx+4]
  0000e	3b f1		 cmp	 esi, ecx
  00010	73 38		 jae	 SHORT $LN2@push_back
  00012	8b 03		 mov	 eax, DWORD PTR [ebx]
  00014	3b c6		 cmp	 eax, esi
  00016	77 32		 ja	 SHORT $LN2@push_back

; 1275 : 		if (_Inside(_STD addressof(_Val)))
; 1276 : 			{	// push back an element
; 1277 : 			size_type _Idx = _STD addressof(_Val) - this->_Myfirst();

  00018	2b f0		 sub	 esi, eax
  0001a	b8 81 3f e0 0f	 mov	 eax, 266354561		; 0fe03f81H
  0001f	f7 ee		 imul	 esi
  00021	c1 fa 04	 sar	 edx, 4
  00024	8b f2		 mov	 esi, edx
  00026	c1 ee 1f	 shr	 esi, 31			; 0000001fH
  00029	03 f2		 add	 esi, edx

; 1278 : 			if (this->_Mylast() == this->_Myend())

  0002b	3b 4b 08	 cmp	 ecx, DWORD PTR [ebx+8]
  0002e	75 09		 jne	 SHORT $LN4@push_back

; 1279 : 				_Reserve(1);

  00030	6a 01		 push	 1
  00032	8b cb		 mov	 ecx, ebx
  00034	e8 00 00 00 00	 call	 ?_Reserve@?$vector@UMessageBody@@V?$allocator@UMessageBody@@@std@@@std@@IAEXI@Z ; std::vector<MessageBody,std::allocator<MessageBody> >::_Reserve
$LN4@push_back:
; File c:\program files (x86)\microsoft visual studio 14.0\vc\include\xmemory0

; 655  : 		::new ((void *)_Ptr) _Objty(_STD forward<_Types>(_Args)...);

  00039	8b 7b 04	 mov	 edi, DWORD PTR [ebx+4]
  0003c	85 ff		 test	 edi, edi
  0003e	74 28		 je	 SHORT $LN205@push_back
; File c:\program files (x86)\microsoft visual studio 14.0\vc\include\vector

; 1281 : 			this->_Getal().construct(this->_Mylast(),

  00040	69 f6 02 01 00
	00		 imul	 esi, esi, 258
  00046	03 33		 add	 esi, DWORD PTR [ebx]

; 1282 : 				this->_Myfirst()[_Idx]);
; 1283 : 			++this->_Mylast();
; 1284 : 			}
; 1285 : 		else

  00048	eb 15		 jmp	 SHORT $LN222@push_back
$LN2@push_back:

; 1286 : 			{	// push back a non-element
; 1287 : 			if (this->_Mylast() == this->_Myend())

  0004a	3b 4b 08	 cmp	 ecx, DWORD PTR [ebx+8]
  0004d	75 09		 jne	 SHORT $LN5@push_back

; 1288 : 				_Reserve(1);

  0004f	6a 01		 push	 1
  00051	8b cb		 mov	 ecx, ebx
  00053	e8 00 00 00 00	 call	 ?_Reserve@?$vector@UMessageBody@@V?$allocator@UMessageBody@@@std@@@std@@IAEXI@Z ; std::vector<MessageBody,std::allocator<MessageBody> >::_Reserve
$LN5@push_back:
; File c:\program files (x86)\microsoft visual studio 14.0\vc\include\xmemory0

; 655  : 		::new ((void *)_Ptr) _Objty(_STD forward<_Types>(_Args)...);

  00058	8b 7b 04	 mov	 edi, DWORD PTR [ebx+4]
  0005b	85 ff		 test	 edi, edi
  0005d	74 09		 je	 SHORT $LN205@push_back
$LN222@push_back:
  0005f	b9 40 00 00 00	 mov	 ecx, 64			; 00000040H
  00064	f3 a5		 rep movsd
  00066	66 a5		 movsw
$LN205@push_back:
; File c:\program files (x86)\microsoft visual studio 14.0\vc\include\vector

; 1292 : 			++this->_Mylast();

  00068	81 43 04 02 01
	00 00		 add	 DWORD PTR [ebx+4], 258	; 00000102H
  0006f	5f		 pop	 edi
  00070	5e		 pop	 esi
  00071	5b		 pop	 ebx

; 1293 : 			}
; 1294 : 		}

  00072	5d		 pop	 ebp
  00073	c2 04 00	 ret	 4
?push_back@?$vector@UMessageBody@@V?$allocator@UMessageBody@@@std@@@std@@QAEXABUMessageBody@@@Z ENDP ; std::vector<MessageBody,std::allocator<MessageBody> >::push_back
_TEXT	ENDS
; Function compile flags: /Ogtp
; File c:\program files (x86)\microsoft visual studio 14.0\vc\include\vector
;	COMDAT ??A?$vector@UMessageBody@@V?$allocator@UMessageBody@@@std@@@std@@QAEAAUMessageBody@@I@Z
_TEXT	SEGMENT
__Pos$ = 8						; size = 4
??A?$vector@UMessageBody@@V?$allocator@UMessageBody@@@std@@@std@@QAEAAUMessageBody@@I@Z PROC ; std::vector<MessageBody,std::allocator<MessageBody> >::operator[], COMDAT
; _this$ = ecx

; 1228 : 		{	// subscript mutable sequence

  00000	55		 push	 ebp
  00001	8b ec		 mov	 ebp, esp

; 1229 :  #if _ITERATOR_DEBUG_LEVEL == 2
; 1230 : 		if (size() <= _Pos)
; 1231 : 			{	// report error
; 1232 : 			_DEBUG_ERROR("vector subscript out of range");
; 1233 : 			_SCL_SECURE_OUT_OF_RANGE;
; 1234 : 			}
; 1235 : 
; 1236 :  #elif _ITERATOR_DEBUG_LEVEL == 1
; 1237 : 		_SCL_SECURE_VALIDATE_RANGE(_Pos < size());
; 1238 :  #endif /* _ITERATOR_DEBUG_LEVEL */
; 1239 : 
; 1240 : 		return (*(this->_Myfirst() + _Pos));

  00003	69 45 08 02 01
	00 00		 imul	 eax, DWORD PTR __Pos$[ebp], 258
  0000a	03 01		 add	 eax, DWORD PTR [ecx]

; 1241 : 		}

  0000c	5d		 pop	 ebp
  0000d	c2 04 00	 ret	 4
??A?$vector@UMessageBody@@V?$allocator@UMessageBody@@@std@@@std@@QAEAAUMessageBody@@I@Z ENDP ; std::vector<MessageBody,std::allocator<MessageBody> >::operator[]
_TEXT	ENDS
; Function compile flags: /Ogtp
; File c:\program files (x86)\microsoft visual studio 14.0\vc\include\vector
;	COMDAT ?max_size@?$vector@UMessageBody@@V?$allocator@UMessageBody@@@std@@@std@@QBEIXZ
_TEXT	SEGMENT
?max_size@?$vector@UMessageBody@@V?$allocator@UMessageBody@@@std@@@std@@QBEIXZ PROC ; std::vector<MessageBody,std::allocator<MessageBody> >::max_size, COMDAT
; _this$ = ecx

; 1184 : 		return (this->_Getal().max_size());

  00000	b8 f8 03 fe 00	 mov	 eax, 16647160		; 00fe03f8H

; 1185 : 		}

  00005	c3		 ret	 0
?max_size@?$vector@UMessageBody@@V?$allocator@UMessageBody@@@std@@@std@@QBEIXZ ENDP ; std::vector<MessageBody,std::allocator<MessageBody> >::max_size
_TEXT	ENDS
; Function compile flags: /Ogtp
; File c:\program files (x86)\microsoft visual studio 14.0\vc\include\vector
;	COMDAT ?size@?$vector@UMessageBody@@V?$allocator@UMessageBody@@@std@@@std@@QBEIXZ
_TEXT	SEGMENT
?size@?$vector@UMessageBody@@V?$allocator@UMessageBody@@@std@@@std@@QBEIXZ PROC ; std::vector<MessageBody,std::allocator<MessageBody> >::size, COMDAT
; _this$ = ecx

; 1179 : 		return (this->_Mylast() - this->_Myfirst());

  00000	8b 51 04	 mov	 edx, DWORD PTR [ecx+4]
  00003	b8 81 3f e0 0f	 mov	 eax, 266354561		; 0fe03f81H
  00008	2b 11		 sub	 edx, DWORD PTR [ecx]
  0000a	f7 ea		 imul	 edx
  0000c	c1 fa 04	 sar	 edx, 4
  0000f	8b c2		 mov	 eax, edx
  00011	c1 e8 1f	 shr	 eax, 31			; 0000001fH
  00014	03 c2		 add	 eax, edx

; 1180 : 		}

  00016	c3		 ret	 0
?size@?$vector@UMessageBody@@V?$allocator@UMessageBody@@@std@@@std@@QBEIXZ ENDP ; std::vector<MessageBody,std::allocator<MessageBody> >::size
_TEXT	ENDS
; Function compile flags: /Ogtp
; File c:\program files (x86)\microsoft visual studio 14.0\vc\include\vector
;	COMDAT ?_Unused_capacity@?$vector@UMessageBody@@V?$allocator@UMessageBody@@@std@@@std@@QBEIXZ
_TEXT	SEGMENT
?_Unused_capacity@?$vector@UMessageBody@@V?$allocator@UMessageBody@@@std@@@std@@QBEIXZ PROC ; std::vector<MessageBody,std::allocator<MessageBody> >::_Unused_capacity, COMDAT
; _this$ = ecx

; 1047 : 		return (this->_Myend() - this->_Mylast());

  00000	8b 51 08	 mov	 edx, DWORD PTR [ecx+8]
  00003	b8 81 3f e0 0f	 mov	 eax, 266354561		; 0fe03f81H
  00008	2b 51 04	 sub	 edx, DWORD PTR [ecx+4]
  0000b	f7 ea		 imul	 edx
  0000d	c1 fa 04	 sar	 edx, 4
  00010	8b c2		 mov	 eax, edx
  00012	c1 e8 1f	 shr	 eax, 31			; 0000001fH
  00015	03 c2		 add	 eax, edx

; 1048 : 		}

  00017	c3		 ret	 0
?_Unused_capacity@?$vector@UMessageBody@@V?$allocator@UMessageBody@@@std@@@std@@QBEIXZ ENDP ; std::vector<MessageBody,std::allocator<MessageBody> >::_Unused_capacity
_TEXT	ENDS
; Function compile flags: /Ogtp
; File c:\program files (x86)\microsoft visual studio 14.0\vc\include\vector
;	COMDAT ?capacity@?$vector@UMessageBody@@V?$allocator@UMessageBody@@@std@@@std@@QBEIXZ
_TEXT	SEGMENT
?capacity@?$vector@UMessageBody@@V?$allocator@UMessageBody@@@std@@@std@@QBEIXZ PROC ; std::vector<MessageBody,std::allocator<MessageBody> >::capacity, COMDAT
; _this$ = ecx

; 1042 : 		return (this->_Myend() - this->_Myfirst());

  00000	8b 51 08	 mov	 edx, DWORD PTR [ecx+8]
  00003	b8 81 3f e0 0f	 mov	 eax, 266354561		; 0fe03f81H
  00008	2b 11		 sub	 edx, DWORD PTR [ecx]
  0000a	f7 ea		 imul	 edx
  0000c	c1 fa 04	 sar	 edx, 4
  0000f	8b c2		 mov	 eax, edx
  00011	c1 e8 1f	 shr	 eax, 31			; 0000001fH
  00014	03 c2		 add	 eax, edx

; 1043 : 		}

  00016	c3		 ret	 0
?capacity@?$vector@UMessageBody@@V?$allocator@UMessageBody@@@std@@@std@@QBEIXZ ENDP ; std::vector<MessageBody,std::allocator<MessageBody> >::capacity
_TEXT	ENDS
; Function compile flags: /Ogtp
; File c:\program files (x86)\microsoft visual studio 14.0\vc\include\vector
; File c:\program files (x86)\microsoft visual studio 14.0\vc\include\xmemory0
; File c:\program files (x86)\microsoft visual studio 14.0\vc\include\vector
;	COMDAT ??1?$vector@UMessageBody@@V?$allocator@UMessageBody@@@std@@@std@@QAE@XZ
_TEXT	SEGMENT
??1?$vector@UMessageBody@@V?$allocator@UMessageBody@@@std@@@std@@QAE@XZ PROC ; std::vector<MessageBody,std::allocator<MessageBody> >::~vector<MessageBody,std::allocator<MessageBody> >, COMDAT
; _this$ = ecx

; 974  : 		{	// destroy the object

  00000	56		 push	 esi
  00001	8b f1		 mov	 esi, ecx

; 977  : 
; 978  : 	_Myt& operator=(const _Myt& _Right)
; 979  : 		{	// assign _Right
; 980  : 		if (this != &_Right)
; 981  : 			{	// different, assign it
; 982  : 			if (this->_Getal() != _Right._Getal()
; 983  : 				&& _Alty::propagate_on_container_copy_assignment::value)
; 984  : 				{	// change allocator before copying
; 985  : 				_Tidy();
; 986  : 				this->_Copy_alloc(_Right._Getal());
; 987  : 				}
; 988  : 
; 989  : 			this->_Orphan_all();
; 990  : 
; 991  : 			if (_Right.empty())
; 992  : 				clear();	// new sequence empty, erase existing sequence
; 993  : 			else if (_Right.size() <= size())
; 994  : 				{	// enough elements, copy new and destroy old
; 995  : 				pointer _Ptr = _Copy_impl(_Right._Myfirst(),
; 996  : 					_Right._Mylast(), this->_Myfirst());	// copy new
; 997  : 				_Destroy(_Ptr, this->_Mylast());	// destroy old
; 998  : 				this->_Mylast() = this->_Myfirst() + _Right.size();
; 999  : 				}
; 1000 : 			else if (_Right.size() <= capacity())
; 1001 : 				{	// enough room, copy and construct new
; 1002 : 				pointer _Ptr = _Right._Myfirst() + size();
; 1003 : 				_Copy_impl(_Right._Myfirst(),
; 1004 : 					_Ptr, this->_Myfirst());
; 1005 : 				this->_Mylast() = _Ucopy(_Ptr, _Right._Mylast(),
; 1006 : 					this->_Mylast());
; 1007 : 				}
; 1008 : 			else
; 1009 : 				{	// not enough room, allocate new array and construct new
; 1010 : 				if (this->_Myfirst() != pointer())
; 1011 : 					{	// discard old array
; 1012 : 					_Destroy(this->_Myfirst(), this->_Mylast());
; 1013 : 					this->_Getal().deallocate(this->_Myfirst(),
; 1014 : 						this->_Myend() - this->_Myfirst());
; 1015 : 					}
; 1016 : 				if (_Buy(_Right.size()))
; 1017 : 					_TRY_BEGIN
; 1018 : 					this->_Mylast() =
; 1019 : 						_Ucopy(_Right._Myfirst(), _Right._Mylast(),
; 1020 : 						this->_Myfirst());
; 1021 : 					_CATCH_ALL
; 1022 : 					_Tidy();
; 1023 : 					_RERAISE;
; 1024 : 					_CATCH_END
; 1025 : 				}
; 1026 : 			}
; 1027 : 		return (*this);
; 1028 : 		}
; 1029 : 
; 1030 : 	void reserve(size_type _Count)
; 1031 : 		{	// determine new minimum length of allocated storage
; 1032 : 		if (capacity() < _Count)
; 1033 : 			{	// something to do, check and reallocate
; 1034 : 			if (max_size() < _Count)
; 1035 : 				_Xlen();
; 1036 : 			_Reallocate(_Count);
; 1037 : 			}
; 1038 : 		}
; 1039 : 
; 1040 : 	size_type capacity() const _NOEXCEPT
; 1041 : 		{	// return current length of allocated storage
; 1042 : 		return (this->_Myend() - this->_Myfirst());
; 1043 : 		}
; 1044 : 
; 1045 : 	size_type _Unused_capacity() const _NOEXCEPT
; 1046 : 		{	// micro-optimization for capacity() - size()
; 1047 : 		return (this->_Myend() - this->_Mylast());
; 1048 : 		}
; 1049 : 
; 1050 : 	size_type _Has_unused_capacity() const _NOEXCEPT
; 1051 : 		{	// micro-optimization for capacity() != size()
; 1052 : 		return (this->_Myend() != this->_Mylast());
; 1053 : 		}
; 1054 : 
; 1055 : 	iterator begin() _NOEXCEPT
; 1056 : 		{	// return iterator for beginning of mutable sequence
; 1057 : 		return (iterator(this->_Myfirst(), &this->_Get_data()));
; 1058 : 		}
; 1059 : 
; 1060 : 	const_iterator begin() const _NOEXCEPT
; 1061 : 		{	// return iterator for beginning of nonmutable sequence
; 1062 : 		return (const_iterator(this->_Myfirst(), &this->_Get_data()));
; 1063 : 		}
; 1064 : 
; 1065 : 	iterator end() _NOEXCEPT
; 1066 : 		{	// return iterator for end of mutable sequence
; 1067 : 		return (iterator(this->_Mylast(), &this->_Get_data()));
; 1068 : 		}
; 1069 : 
; 1070 : 	const_iterator end() const _NOEXCEPT
; 1071 : 		{	// return iterator for end of nonmutable sequence
; 1072 : 		return (const_iterator(this->_Mylast(), &this->_Get_data()));
; 1073 : 		}
; 1074 : 
; 1075 : 	iterator _Make_iter(const_iterator _Where) const
; 1076 : 		{	// make iterator from const_iterator
; 1077 : 		return (iterator(_Where._Ptr, &this->_Get_data()));
; 1078 : 		}
; 1079 : 
; 1080 : 	reverse_iterator rbegin() _NOEXCEPT
; 1081 : 		{	// return iterator for beginning of reversed mutable sequence
; 1082 : 		return (reverse_iterator(end()));
; 1083 : 		}
; 1084 : 
; 1085 : 	const_reverse_iterator rbegin() const _NOEXCEPT
; 1086 : 		{	// return iterator for beginning of reversed nonmutable sequence
; 1087 : 		return (const_reverse_iterator(end()));
; 1088 : 		}
; 1089 : 
; 1090 : 	reverse_iterator rend() _NOEXCEPT
; 1091 : 		{	// return iterator for end of reversed mutable sequence
; 1092 : 		return (reverse_iterator(begin()));
; 1093 : 		}
; 1094 : 
; 1095 : 	const_reverse_iterator rend() const _NOEXCEPT
; 1096 : 		{	// return iterator for end of reversed nonmutable sequence
; 1097 : 		return (const_reverse_iterator(begin()));
; 1098 : 		}
; 1099 : 
; 1100 : 	const_iterator cbegin() const _NOEXCEPT
; 1101 : 		{	// return iterator for beginning of nonmutable sequence
; 1102 : 		return (begin());
; 1103 : 		}
; 1104 : 
; 1105 : 	const_iterator cend() const _NOEXCEPT
; 1106 : 		{	// return iterator for end of nonmutable sequence
; 1107 : 		return (end());
; 1108 : 		}
; 1109 : 
; 1110 : 	const_reverse_iterator crbegin() const _NOEXCEPT
; 1111 : 		{	// return iterator for beginning of reversed nonmutable sequence
; 1112 : 		return (rbegin());
; 1113 : 		}
; 1114 : 
; 1115 : 	const_reverse_iterator crend() const _NOEXCEPT
; 1116 : 		{	// return iterator for end of reversed nonmutable sequence
; 1117 : 		return (rend());
; 1118 : 		}
; 1119 : 
; 1120 : 	void shrink_to_fit()
; 1121 : 		{	// reduce capacity
; 1122 : 		if (_Has_unused_capacity())
; 1123 : 			{	// worth shrinking, do it
; 1124 : 			if (empty())
; 1125 : 				_Tidy();
; 1126 : 			else
; 1127 : 				_Reallocate(size());
; 1128 : 			}
; 1129 : 		}
; 1130 : 
; 1131 : 	void resize(size_type _Newsize)
; 1132 : 		{	// determine new length, padding as needed
; 1133 : 		if (_Newsize < size())
; 1134 : 			_Pop_back_n(size() - _Newsize);
; 1135 : 		else if (size() < _Newsize)
; 1136 : 			{	// pad as needed
; 1137 : 			_Reserve(_Newsize - size());
; 1138 : 			_TRY_BEGIN
; 1139 : 			_Uninitialized_default_fill_n(this->_Mylast(), _Newsize - size(),
; 1140 : 				this->_Getal());
; 1141 : 			_CATCH_ALL
; 1142 : 			_Tidy();
; 1143 : 			_RERAISE;
; 1144 : 			_CATCH_END
; 1145 : 			this->_Mylast() += _Newsize - size();
; 1146 : 			}
; 1147 : 		}
; 1148 : 
; 1149 : 	void resize(size_type _Newsize, const value_type& _Val)
; 1150 : 		{	// determine new length, padding with _Val elements as needed
; 1151 : 		if (_Newsize < size())
; 1152 : 			_Pop_back_n(size() - _Newsize);
; 1153 : 		else if (size() < _Newsize)
; 1154 : 			{	// pad as needed
; 1155 : 			const value_type *_Ptr = _STD addressof(_Val);
; 1156 : 
; 1157 : 			if (_Inside(_Ptr))
; 1158 : 				{	// padding is inside vector, recompute _Ptr after reserve
; 1159 : 				const difference_type _Idx = _Ptr
; 1160 : 					- _STD addressof(*this->_Myfirst());
; 1161 : 				_Reserve(_Newsize - size());
; 1162 : 				_Ptr = _STD addressof(*this->_Myfirst()) + _Idx;
; 1163 : 				}
; 1164 : 			else
; 1165 : 				_Reserve(_Newsize - size());
; 1166 : 
; 1167 : 			_TRY_BEGIN
; 1168 : 			_Ufill(this->_Mylast(), _Newsize - size(), _Ptr);
; 1169 : 			_CATCH_ALL
; 1170 : 			_Tidy();
; 1171 : 			_RERAISE;
; 1172 : 			_CATCH_END
; 1173 : 			this->_Mylast() += _Newsize - size();
; 1174 : 			}
; 1175 : 		}
; 1176 : 
; 1177 : 	size_type size() const _NOEXCEPT
; 1178 : 		{	// return length of sequence
; 1179 : 		return (this->_Mylast() - this->_Myfirst());
; 1180 : 		}
; 1181 : 
; 1182 : 	size_type max_size() const _NOEXCEPT
; 1183 : 		{	// return maximum possible length of sequence
; 1184 : 		return (this->_Getal().max_size());
; 1185 : 		}
; 1186 : 
; 1187 : 	bool empty() const _NOEXCEPT
; 1188 : 		{	// test if sequence is empty
; 1189 : 		return (this->_Myfirst() == this->_Mylast());
; 1190 : 		}
; 1191 : 
; 1192 : 	_Alloc get_allocator() const _NOEXCEPT
; 1193 : 		{	// return allocator object for values
; 1194 : 		return (this->_Getal());
; 1195 : 		}
; 1196 : 
; 1197 : 	const_reference at(size_type _Pos) const
; 1198 : 		{	// subscript nonmutable sequence with checking
; 1199 : 		if (size() <= _Pos)
; 1200 : 			_Xran();
; 1201 : 		return (*(this->_Myfirst() + _Pos));
; 1202 : 		}
; 1203 : 
; 1204 : 	reference at(size_type _Pos)
; 1205 : 		{	// subscript mutable sequence with checking
; 1206 : 		if (size() <= _Pos)
; 1207 : 			_Xran();
; 1208 : 		return (*(this->_Myfirst() + _Pos));
; 1209 : 		}
; 1210 : 
; 1211 : 	const_reference operator[](size_type _Pos) const
; 1212 : 		{	// subscript nonmutable sequence
; 1213 :  #if _ITERATOR_DEBUG_LEVEL == 2
; 1214 : 		if (size() <= _Pos)
; 1215 : 			{	// report error
; 1216 : 			_DEBUG_ERROR("vector subscript out of range");
; 1217 : 			_SCL_SECURE_OUT_OF_RANGE;
; 1218 : 			}
; 1219 : 
; 1220 :  #elif _ITERATOR_DEBUG_LEVEL == 1
; 1221 : 		_SCL_SECURE_VALIDATE_RANGE(_Pos < size());
; 1222 :  #endif /* _ITERATOR_DEBUG_LEVEL */
; 1223 : 
; 1224 : 		return (*(this->_Myfirst() + _Pos));
; 1225 : 		}
; 1226 : 
; 1227 : 	reference operator[](size_type _Pos)
; 1228 : 		{	// subscript mutable sequence
; 1229 :  #if _ITERATOR_DEBUG_LEVEL == 2
; 1230 : 		if (size() <= _Pos)
; 1231 : 			{	// report error
; 1232 : 			_DEBUG_ERROR("vector subscript out of range");
; 1233 : 			_SCL_SECURE_OUT_OF_RANGE;
; 1234 : 			}
; 1235 : 
; 1236 :  #elif _ITERATOR_DEBUG_LEVEL == 1
; 1237 : 		_SCL_SECURE_VALIDATE_RANGE(_Pos < size());
; 1238 :  #endif /* _ITERATOR_DEBUG_LEVEL */
; 1239 : 
; 1240 : 		return (*(this->_Myfirst() + _Pos));
; 1241 : 		}
; 1242 : 
; 1243 : 	pointer data() _NOEXCEPT
; 1244 : 		{	// return address of first element
; 1245 : 		return (this->_Myfirst());
; 1246 : 		}
; 1247 : 
; 1248 : 	const_pointer data() const _NOEXCEPT
; 1249 : 		{	// return address of first element
; 1250 : 		return (this->_Myfirst());
; 1251 : 		}
; 1252 : 
; 1253 : 	reference front()
; 1254 : 		{	// return first element of mutable sequence
; 1255 : 		return (*begin());
; 1256 : 		}
; 1257 : 
; 1258 : 	const_reference front() const
; 1259 : 		{	// return first element of nonmutable sequence
; 1260 : 		return (*begin());
; 1261 : 		}
; 1262 : 
; 1263 : 	reference back()
; 1264 : 		{	// return last element of mutable sequence
; 1265 : 		return (*(end() - 1));
; 1266 : 		}
; 1267 : 
; 1268 : 	const_reference back() const
; 1269 : 		{	// return last element of nonmutable sequence
; 1270 : 		return (*(end() - 1));
; 1271 : 		}
; 1272 : 
; 1273 : 	void push_back(const value_type& _Val)
; 1274 : 		{	// insert element at end
; 1275 : 		if (_Inside(_STD addressof(_Val)))
; 1276 : 			{	// push back an element
; 1277 : 			size_type _Idx = _STD addressof(_Val) - this->_Myfirst();
; 1278 : 			if (this->_Mylast() == this->_Myend())
; 1279 : 				_Reserve(1);
; 1280 : 			_Orphan_range(this->_Mylast(), this->_Mylast());
; 1281 : 			this->_Getal().construct(this->_Mylast(),
; 1282 : 				this->_Myfirst()[_Idx]);
; 1283 : 			++this->_Mylast();
; 1284 : 			}
; 1285 : 		else
; 1286 : 			{	// push back a non-element
; 1287 : 			if (this->_Mylast() == this->_Myend())
; 1288 : 				_Reserve(1);
; 1289 : 			_Orphan_range(this->_Mylast(), this->_Mylast());
; 1290 : 			this->_Getal().construct(this->_Mylast(),
; 1291 : 				_Val);
; 1292 : 			++this->_Mylast();
; 1293 : 			}
; 1294 : 		}
; 1295 : 
; 1296 :  #if _ITERATOR_DEBUG_LEVEL == 2
; 1297 : 	void pop_back()
; 1298 : 		{	// erase element at end
; 1299 : 		if (empty())
; 1300 : 			_DEBUG_ERROR("vector empty before pop");
; 1301 : 		else
; 1302 : 			{	// erase last element
; 1303 : 			_Orphan_range(this->_Mylast() - 1, this->_Mylast());
; 1304 : 			this->_Getal().destroy(this->_Mylast() - 1);
; 1305 : 			--this->_Mylast();
; 1306 : 			}
; 1307 : 		}
; 1308 : 
; 1309 :  #else /* _ITERATOR_DEBUG_LEVEL == 2 */
; 1310 : 	void pop_back()
; 1311 : 		{	// erase element at end
; 1312 : 		this->_Getal().destroy(this->_Mylast() - 1);
; 1313 : 		--this->_Mylast();
; 1314 : 		}
; 1315 :  #endif /* _ITERATOR_DEBUG_LEVEL == 2 */
; 1316 : 
; 1317 : 	template<class _Iter>
; 1318 : 		typename enable_if<_Is_iterator<_Iter>::value,
; 1319 : 			void>::type
; 1320 : 		assign(_Iter _First, _Iter _Last)
; 1321 : 		{	// assign [_First, _Last)
; 1322 : 		clear();
; 1323 : 		_Assign(_First, _Last, _Iter_cat(_First));
; 1324 : 		}
; 1325 : 
; 1326 : 	template<class _Iter>
; 1327 : 		void _Assign(_Iter _First, _Iter _Last,
; 1328 : 			input_iterator_tag)
; 1329 : 		{	// assign [_First, _Last), input iterators
; 1330 : 		for (; _First != _Last; ++_First)
; 1331 : 			emplace_back(*_First);
; 1332 : 		}
; 1333 : 
; 1334 : 	template<class _Iter>
; 1335 : 		void _Assign(_Iter _First, _Iter _Last,
; 1336 : 			forward_iterator_tag)
; 1337 : 		{	// assign [_First, _Last), forward iterators
; 1338 : 		size_type _Newsize = _STD distance(_First, _Last);
; 1339 : 
; 1340 : 		if (capacity() < _Newsize)
; 1341 : 			{	// need more room, try to get it
; 1342 : 			size_type _Newcapacity = _Grow_to(_Newsize);
; 1343 : 			_Tidy();
; 1344 : 			_Buy(_Newcapacity);
; 1345 : 			}
; 1346 : 
; 1347 : 		this->_Mylast() = _Ucopy(_First, _Last, this->_Myfirst());
; 1348 : 		}
; 1349 : 
; 1350 : 	void assign(size_type _Count, const value_type& _Val)
; 1351 : 		{	// assign _Count * _Val
; 1352 : 		clear();
; 1353 : 		insert(begin(), _Count, _Val);
; 1354 : 		}
; 1355 : 
; 1356 : 	iterator insert(const_iterator _Where, const _Ty& _Val)
; 1357 : 		{	// insert _Val at _Where
; 1358 : 		return (_Insert_n(_Where, (size_type)1, _Val));
; 1359 : 		}
; 1360 : 
; 1361 : 	iterator insert(const_iterator _Where, size_type _Count,
; 1362 : 		const _Ty& _Val)
; 1363 : 		{	// insert _Count * _Val at _Where
; 1364 : 		return (_Insert_n(_Where, _Count, _Val));
; 1365 : 		}
; 1366 : 
; 1367 : 	template<class _Iter>
; 1368 : 		typename enable_if<_Is_iterator<_Iter>::value,
; 1369 : 			iterator>::type
; 1370 : 		insert(const_iterator _Where, _Iter _First, _Iter _Last)
; 1371 : 		{	// insert [_First, _Last) at _Where
; 1372 : 		size_type _Off = _VIPTR(_Where) - this->_Myfirst();
; 1373 : 		_Insert(_Where, _First, _Last, _Iter_cat(_First));
; 1374 : 		return (begin() + _Off);
; 1375 : 		}
; 1376 : 
; 1377 : 	template<class _Iter>
; 1378 : 		void _Insert(const_iterator _Where,
; 1379 : 			_Iter _First, _Iter _Last,
; 1380 : 				input_iterator_tag)
; 1381 : 		{	// insert [_First, _Last) at _Where, input iterators
; 1382 : 		size_type _Off = _VIPTR(_Where) - this->_Myfirst();
; 1383 : 
; 1384 :  #if _ITERATOR_DEBUG_LEVEL == 2
; 1385 : 		if (size() < _Off)
; 1386 : 			_DEBUG_ERROR("vector insert iterator outside range");
; 1387 :  #endif /* _ITERATOR_DEBUG_LEVEL == 2 */
; 1388 : 
; 1389 : 		if (_First != _Last)
; 1390 : 			{	// worth doing, gather at end and rotate into place
; 1391 : 			size_type _Oldsize = size();
; 1392 : 
; 1393 : 			_TRY_BEGIN
; 1394 : 			for (; _First != _Last; ++_First)
; 1395 : 				push_back(*_First);	// append
; 1396 : 
; 1397 : 			_CATCH_ALL
; 1398 : 			erase(begin() + _Oldsize, end());
; 1399 : 			_RERAISE;
; 1400 : 			_CATCH_END
; 1401 : 
; 1402 : 			_STD rotate(begin() + _Off, begin() + _Oldsize, end());
; 1403 : 			}
; 1404 : 		}
; 1405 : 
; 1406 : 	template<class _Iter>
; 1407 : 		void _Insert(const_iterator _Where,
; 1408 : 			_Iter _First, _Iter _Last,
; 1409 : 				forward_iterator_tag)
; 1410 : 		{	// insert [_First, _Last) at _Where, forward iterators
; 1411 :  #if _ITERATOR_DEBUG_LEVEL == 2
; 1412 : 		if (_VICONT(_Where) != &this->_Get_data()
; 1413 : 			|| _VIPTR(_Where) < this->_Myfirst()
; 1414 : 			|| this->_Mylast() < _VIPTR(_Where))
; 1415 : 			_DEBUG_ERROR("vector insert iterator outside range");
; 1416 : 		_DEBUG_RANGE(_First, _Last);
; 1417 :  #endif /* _ITERATOR_DEBUG_LEVEL == 2 */
; 1418 : 
; 1419 : 		size_type _Count = 0;
; 1420 : 		_Distance(_First, _Last, _Count);
; 1421 : 
; 1422 : 		if (_Count == 0)
; 1423 : 			;
; 1424 : 		else if (_Unused_capacity() < _Count)
; 1425 : 			{	// not enough room, reallocate
; 1426 : 			if (max_size() - size() < _Count)
; 1427 : 				_Xlen();	// result too long
; 1428 : 
; 1429 : 			size_type _Capacity = _Grow_to(size() + _Count);
; 1430 : 			pointer _Newvec = this->_Getal().allocate(_Capacity);
; 1431 : 			pointer _Ptr = _Newvec;
; 1432 : 
; 1433 : 			_TRY_BEGIN
; 1434 : 			_Ptr = _Umove(this->_Myfirst(), _VIPTR(_Where),
; 1435 : 				_Newvec);	// copy prefix
; 1436 : 			_Ptr = _Ucopy(_First, _Last, _Ptr);	// add new stuff
; 1437 : 			_Umove(_VIPTR(_Where), this->_Mylast(),
; 1438 : 				_Ptr);	// copy suffix
; 1439 : 			_CATCH_ALL
; 1440 : 			_Destroy(_Newvec, _Ptr);
; 1441 : 			this->_Getal().deallocate(_Newvec, _Capacity);
; 1442 : 			_RERAISE;
; 1443 : 			_CATCH_END
; 1444 : 
; 1445 : 			_Count += size();
; 1446 : 			if (this->_Myfirst() != pointer())
; 1447 : 				{	// destroy and deallocate old array
; 1448 : 				_Destroy(this->_Myfirst(), this->_Mylast());
; 1449 : 				this->_Getal().deallocate(this->_Myfirst(),
; 1450 : 					this->_Myend() - this->_Myfirst());
; 1451 : 				}
; 1452 : 
; 1453 : 			this->_Orphan_all();
; 1454 : 			this->_Myend() = _Newvec + _Capacity;
; 1455 : 			this->_Mylast() = _Newvec + _Count;
; 1456 : 			this->_Myfirst() = _Newvec;
; 1457 : 			}
; 1458 : 		else
; 1459 : 			{	// new stuff fits, append and rotate into place
; 1460 : 			_Ucopy(_First, _Last, this->_Mylast());
; 1461 : 			_STD rotate(_VIPTR(_Where), this->_Mylast(),
; 1462 : 				this->_Mylast() + _Count);
; 1463 : 			this->_Mylast() += _Count;
; 1464 : 			_Orphan_range(_VIPTR(_Where), this->_Mylast());
; 1465 : 			}
; 1466 : 		}
; 1467 : 
; 1468 :  #if _ITERATOR_DEBUG_LEVEL == 2
; 1469 : 	iterator erase(const_iterator _Where)
; 1470 : 		{	// erase element at where
; 1471 : 		if (_VICONT(_Where) != &this->_Get_data()
; 1472 : 			|| _VIPTR(_Where) < this->_Myfirst()
; 1473 : 			|| this->_Mylast() <= _VIPTR(_Where))
; 1474 : 			_DEBUG_ERROR("vector erase iterator outside range");
; 1475 : 		_Move(_VIPTR(_Where) + 1, this->_Mylast(), _VIPTR(_Where));
; 1476 : 		_Destroy(this->_Mylast() - 1, this->_Mylast());
; 1477 : 		_Orphan_range(_VIPTR(_Where), this->_Mylast());
; 1478 : 		--this->_Mylast();
; 1479 : 		return (_Make_iter(_Where));
; 1480 : 		}
; 1481 : 
; 1482 :  #else /* _ITERATOR_DEBUG_LEVEL == 2 */
; 1483 : 	iterator erase(const_iterator _Where)
; 1484 : 		{	// erase element at where
; 1485 : 		_Move(_VIPTR(_Where) + 1, this->_Mylast(),
; 1486 : 			_VIPTR(_Where));
; 1487 : 		_Destroy(this->_Mylast() - 1, this->_Mylast());
; 1488 : 		--this->_Mylast();
; 1489 : 		return (_Make_iter(_Where));
; 1490 : 		}
; 1491 :  #endif /* _ITERATOR_DEBUG_LEVEL == 2 */
; 1492 : 
; 1493 : 	iterator erase(const_iterator _First_arg,
; 1494 : 		const_iterator _Last_arg)
; 1495 : 		{	// erase [_First, _Last)
; 1496 : 		if (_First_arg == begin() && _Last_arg == end())
; 1497 : 			clear();
; 1498 : 		else if (_First_arg != _Last_arg)
; 1499 : 			{	// clear partial
; 1500 : 			iterator _First = _Make_iter(_First_arg);
; 1501 : 			iterator _Last = _Make_iter(_Last_arg);
; 1502 : 
; 1503 : 			if (_First != _Last)
; 1504 : 				{	// worth doing, copy down over hole
; 1505 :  #if _ITERATOR_DEBUG_LEVEL == 2
; 1506 : 				if (_Last < _First || _VICONT(_First) != &this->_Get_data()
; 1507 : 					|| _VIPTR(_First) < this->_Myfirst()
; 1508 : 					|| this->_Mylast() < _VIPTR(_Last))
; 1509 : 					_DEBUG_ERROR("vector erase iterator outside range");
; 1510 : 				pointer _Ptr = _Move(_VIPTR(_Last), this->_Mylast(),
; 1511 : 					_VIPTR(_First));
; 1512 : 				_Orphan_range(_VIPTR(_First), this->_Mylast());
; 1513 : 
; 1514 :  #else /* _ITERATOR_DEBUG_LEVEL == 2 */
; 1515 : 				pointer _Ptr = _Move(_VIPTR(_Last), this->_Mylast(),
; 1516 : 					_VIPTR(_First));
; 1517 :  #endif /* _ITERATOR_DEBUG_LEVEL == 2 */
; 1518 : 
; 1519 : 				_Destroy(_Ptr, this->_Mylast());
; 1520 : 				this->_Mylast() = _Ptr;
; 1521 : 				}
; 1522 : 			}
; 1523 : 		return (_Make_iter(_First_arg));
; 1524 : 		}
; 1525 : 
; 1526 : 	void _Pop_back_n(size_type _Count)
; 1527 : 		{	// erase _Count elements at end
; 1528 : 		pointer _Ptr = this->_Mylast() - _Count;
; 1529 : 
; 1530 :  #if _ITERATOR_DEBUG_LEVEL == 2
; 1531 : 		_Orphan_range(_Ptr, this->_Mylast());
; 1532 :  #endif /* _ITERATOR_DEBUG_LEVEL == 2 */
; 1533 : 
; 1534 : 		_Destroy(_Ptr, this->_Mylast());
; 1535 : 		this->_Mylast() = _Ptr;
; 1536 : 		}
; 1537 : 
; 1538 : 	void clear() _NOEXCEPT
; 1539 : 		{	// erase all
; 1540 : 		this->_Orphan_all();
; 1541 : 		_Destroy(this->_Myfirst(), this->_Mylast());
; 1542 : 		this->_Mylast() = this->_Myfirst();
; 1543 : 		}
; 1544 : 
; 1545 : 	void swap(_Myt& _Right)
; 1546 : 		_NOEXCEPT_OP(_Alty::propagate_on_container_swap::value
; 1547 : 			|| _Alty::is_always_equal::value)
; 1548 : 		{	// exchange contents with _Right
; 1549 : 		if (this == &_Right)
; 1550 : 			;	// same object, do nothing
; 1551 : 		else if (this->_Getal() == _Right._Getal())
; 1552 : 			{	// same allocator, swap control information
; 1553 : 			this->_Swap_all(_Right);
; 1554 : 			_Swap_adl(this->_Myfirst(), _Right._Myfirst());
; 1555 : 			_Swap_adl(this->_Mylast(), _Right._Mylast());
; 1556 : 			_Swap_adl(this->_Myend(), _Right._Myend());
; 1557 : 			}
; 1558 : 
; 1559 : 		else if (_Alty::propagate_on_container_swap::value)
; 1560 : 			{	// swap allocators and control information
; 1561 : 			this->_Swap_alloc(_Right);
; 1562 : 			_Swap_adl(this->_Myfirst(), _Right._Myfirst());
; 1563 : 			_Swap_adl(this->_Mylast(), _Right._Mylast());
; 1564 : 			_Swap_adl(this->_Myend(), _Right._Myend());
; 1565 : 			}
; 1566 : 
; 1567 : 		else
; 1568 : 			{	// containers are incompatible
; 1569 :  #if _ITERATOR_DEBUG_LEVEL == 2
; 1570 : 			_DEBUG_ERROR("vector containers incompatible for swap");
; 1571 : 
; 1572 :  #else /* ITERATOR_DEBUG_LEVEL == 2 */
; 1573 : 			_XSTD terminate();
; 1574 :  #endif /* ITERATOR_DEBUG_LEVEL == 2 */
; 1575 : 			}
; 1576 : 		}
; 1577 : 
; 1578 : protected:
; 1579 : 	bool _Buy(size_type _Capacity)
; 1580 : 		{	// allocate array with _Capacity elements
; 1581 : 		this->_Myfirst() = pointer();
; 1582 : 		this->_Mylast() = pointer();
; 1583 : 		this->_Myend() = pointer();
; 1584 : 
; 1585 : 		if (_Capacity == 0)
; 1586 : 			return (false);
; 1587 : 		else if (max_size() < _Capacity)
; 1588 : 			_Xlen();	// result too long
; 1589 : 		else
; 1590 : 			{	// nonempty array, allocate storage
; 1591 : 			this->_Myfirst() = this->_Getal().allocate(_Capacity);
; 1592 : 			this->_Mylast() = this->_Myfirst();
; 1593 : 			this->_Myend() = this->_Myfirst() + _Capacity;
; 1594 : 			}
; 1595 : 		return (true);
; 1596 : 		}
; 1597 : 
; 1598 : 	void _Destroy(pointer _First, pointer _Last)
; 1599 : 		{	// destroy [_First, _Last) using allocator
; 1600 : 		_Destroy_range(_First, _Last, this->_Getal());
; 1601 : 		}
; 1602 : 
; 1603 : 	size_type _Grow_to(size_type _Count) const
; 1604 : 		{	// grow by 50% or at least to _Count
; 1605 : 		size_type _Capacity = capacity();
; 1606 : 
; 1607 : 		_Capacity = max_size() - _Capacity / 2 < _Capacity
; 1608 : 			? 0 : _Capacity + _Capacity / 2;	// try to grow by 50%
; 1609 : 		if (_Capacity < _Count)
; 1610 : 			_Capacity = _Count;
; 1611 : 		return (_Capacity);
; 1612 : 		}
; 1613 : 
; 1614 : 	bool _Inside(const value_type *_Ptr) const
; 1615 : 		{	// test if _Ptr points inside vector
; 1616 : 		return (_Ptr < this->_Mylast() && this->_Myfirst() <= _Ptr);
; 1617 : 		}
; 1618 : 
; 1619 : 	void _Reallocate(size_type _Count)
; 1620 : 		{	// move to array of exactly _Count elements
; 1621 : 		pointer _Ptr = this->_Getal().allocate(_Count);
; 1622 : 
; 1623 : 		_TRY_BEGIN
; 1624 : 		_Umove(this->_Myfirst(), this->_Mylast(), _Ptr);
; 1625 : 		_CATCH_ALL
; 1626 : 		this->_Getal().deallocate(_Ptr, _Count);
; 1627 : 		_RERAISE;
; 1628 : 		_CATCH_END
; 1629 : 
; 1630 : 		size_type _Size = size();
; 1631 : 		if (this->_Myfirst() != pointer())
; 1632 : 			{	// destroy and deallocate old array
; 1633 : 			_Destroy(this->_Myfirst(), this->_Mylast());
; 1634 : 			this->_Getal().deallocate(this->_Myfirst(),
; 1635 : 				this->_Myend() - this->_Myfirst());
; 1636 : 			}
; 1637 : 
; 1638 : 		this->_Orphan_all();
; 1639 : 		this->_Myend() = _Ptr + _Count;
; 1640 : 		this->_Mylast() = _Ptr + _Size;
; 1641 : 		this->_Myfirst() = _Ptr;
; 1642 : 		}
; 1643 : 
; 1644 : 	void _Reserve(size_type _Count)
; 1645 : 		{	// ensure room for _Count new elements, grow exponentially
; 1646 : 		if (_Unused_capacity() < _Count)
; 1647 : 			{	// need more room, try to get it
; 1648 : 			if (max_size() - size() < _Count)
; 1649 : 				_Xlen();
; 1650 : 			_Reallocate(_Grow_to(size() + _Count));
; 1651 : 			}
; 1652 : 		}
; 1653 : 
; 1654 : 	void _Tidy()
; 1655 : 		{	// free all storage
; 1656 : 		if (this->_Myfirst() != pointer())

  00003	8b 0e		 mov	 ecx, DWORD PTR [esi]
  00005	85 c9		 test	 ecx, ecx
  00007	74 33		 je	 SHORT $LN4@vector

; 1657 : 			{	// something to free, destroy and deallocate it
; 1658 : 			this->_Orphan_all();
; 1659 : 			_Destroy(this->_Myfirst(), this->_Mylast());
; 1660 : 			this->_Getal().deallocate(this->_Myfirst(),

  00009	8b 56 08	 mov	 edx, DWORD PTR [esi+8]
  0000c	b8 81 3f e0 0f	 mov	 eax, 266354561		; 0fe03f81H
  00011	2b d1		 sub	 edx, ecx
  00013	f7 ea		 imul	 edx
  00015	c1 fa 04	 sar	 edx, 4
  00018	8b c2		 mov	 eax, edx
  0001a	c1 e8 1f	 shr	 eax, 31			; 0000001fH
  0001d	03 c2		 add	 eax, edx
; File c:\program files (x86)\microsoft visual studio 14.0\vc\include\xmemory0

; 909  : 		_Mybase::deallocate(_Ptr, _Count);

  0001f	50		 push	 eax
  00020	51		 push	 ecx
  00021	8b ce		 mov	 ecx, esi
  00023	e8 00 00 00 00	 call	 ?deallocate@?$allocator@UMessageBody@@@std@@QAEXPAUMessageBody@@I@Z ; std::allocator<MessageBody>::deallocate
; File c:\program files (x86)\microsoft visual studio 14.0\vc\include\vector

; 1662 : 			this->_Myfirst() = pointer();

  00028	c7 06 00 00 00
	00		 mov	 DWORD PTR [esi], 0

; 1663 : 			this->_Mylast() = pointer();

  0002e	c7 46 04 00 00
	00 00		 mov	 DWORD PTR [esi+4], 0

; 1664 : 			this->_Myend() = pointer();

  00035	c7 46 08 00 00
	00 00		 mov	 DWORD PTR [esi+8], 0
$LN4@vector:
  0003c	5e		 pop	 esi

; 975  : 		_Tidy();
; 976  : 		}

  0003d	c3		 ret	 0
??1?$vector@UMessageBody@@V?$allocator@UMessageBody@@@std@@@std@@QAE@XZ ENDP ; std::vector<MessageBody,std::allocator<MessageBody> >::~vector<MessageBody,std::allocator<MessageBody> >
_TEXT	ENDS
; Function compile flags: /Ogtp
; File c:\program files (x86)\microsoft visual studio 14.0\vc\include\vector
;	COMDAT ??0?$vector@UMessageBody@@V?$allocator@UMessageBody@@@std@@@std@@QAE@XZ
_TEXT	SEGMENT
??0?$vector@UMessageBody@@V?$allocator@UMessageBody@@@std@@@std@@QAE@XZ PROC ; std::vector<MessageBody,std::allocator<MessageBody> >::vector<MessageBody,std::allocator<MessageBody> >, COMDAT
; _this$ = ecx

; 480  : 		_Myfirst = pointer();

  00000	c7 01 00 00 00
	00		 mov	 DWORD PTR [ecx], 0

; 707  : 		}

  00006	8b c1		 mov	 eax, ecx

; 481  : 		_Mylast = pointer();

  00008	c7 41 04 00 00
	00 00		 mov	 DWORD PTR [ecx+4], 0

; 482  : 		_Myend = pointer();

  0000f	c7 41 08 00 00
	00 00		 mov	 DWORD PTR [ecx+8], 0

; 707  : 		}

  00016	c3		 ret	 0
??0?$vector@UMessageBody@@V?$allocator@UMessageBody@@@std@@@std@@QAE@XZ ENDP ; std::vector<MessageBody,std::allocator<MessageBody> >::vector<MessageBody,std::allocator<MessageBody> >
_TEXT	ENDS
; Function compile flags: /Ogtp
; File c:\program files (x86)\microsoft visual studio 14.0\vc\include\xutility
;	COMDAT ?_Get_second@?$_Compressed_pair@U?$_Wrap_alloc@V?$allocator@UMessageBody@@@std@@@std@@V?$_Vector_val@U?$_Simple_types@UMessageBody@@@std@@@2@$00@std@@QBEABV?$_Vector_val@U?$_Simple_types@UMessageBody@@@std@@@2@XZ
_TEXT	SEGMENT
?_Get_second@?$_Compressed_pair@U?$_Wrap_alloc@V?$allocator@UMessageBody@@@std@@@std@@V?$_Vector_val@U?$_Simple_types@UMessageBody@@@std@@@2@$00@std@@QBEABV?$_Vector_val@U?$_Simple_types@UMessageBody@@@std@@@2@XZ PROC ; std::_Compressed_pair<std::_Wrap_alloc<std::allocator<MessageBody> >,std::_Vector_val<std::_Simple_types<MessageBody> >,1>::_Get_second, COMDAT
; _this$ = ecx

; 319  : 		return (_Myval2);

  00000	8b c1		 mov	 eax, ecx

; 320  : 		}

  00002	c3		 ret	 0
?_Get_second@?$_Compressed_pair@U?$_Wrap_alloc@V?$allocator@UMessageBody@@@std@@@std@@V?$_Vector_val@U?$_Simple_types@UMessageBody@@@std@@@2@$00@std@@QBEABV?$_Vector_val@U?$_Simple_types@UMessageBody@@@std@@@2@XZ ENDP ; std::_Compressed_pair<std::_Wrap_alloc<std::allocator<MessageBody> >,std::_Vector_val<std::_Simple_types<MessageBody> >,1>::_Get_second
_TEXT	ENDS
; Function compile flags: /Ogtp
; File c:\program files (x86)\microsoft visual studio 14.0\vc\include\xutility
;	COMDAT ?_Get_second@?$_Compressed_pair@U?$_Wrap_alloc@V?$allocator@UMessageBody@@@std@@@std@@V?$_Vector_val@U?$_Simple_types@UMessageBody@@@std@@@2@$00@std@@QAEAAV?$_Vector_val@U?$_Simple_types@UMessageBody@@@std@@@2@XZ
_TEXT	SEGMENT
?_Get_second@?$_Compressed_pair@U?$_Wrap_alloc@V?$allocator@UMessageBody@@@std@@@std@@V?$_Vector_val@U?$_Simple_types@UMessageBody@@@std@@@2@$00@std@@QAEAAV?$_Vector_val@U?$_Simple_types@UMessageBody@@@std@@@2@XZ PROC ; std::_Compressed_pair<std::_Wrap_alloc<std::allocator<MessageBody> >,std::_Vector_val<std::_Simple_types<MessageBody> >,1>::_Get_second, COMDAT
; _this$ = ecx

; 314  : 		return (_Myval2);

  00000	8b c1		 mov	 eax, ecx

; 315  : 		}

  00002	c3		 ret	 0
?_Get_second@?$_Compressed_pair@U?$_Wrap_alloc@V?$allocator@UMessageBody@@@std@@@std@@V?$_Vector_val@U?$_Simple_types@UMessageBody@@@std@@@2@$00@std@@QAEAAV?$_Vector_val@U?$_Simple_types@UMessageBody@@@std@@@2@XZ ENDP ; std::_Compressed_pair<std::_Wrap_alloc<std::allocator<MessageBody> >,std::_Vector_val<std::_Simple_types<MessageBody> >,1>::_Get_second
_TEXT	ENDS
; Function compile flags: /Ogtp
; File c:\program files (x86)\microsoft visual studio 14.0\vc\include\xutility
;	COMDAT ?_Get_first@?$_Compressed_pair@U?$_Wrap_alloc@V?$allocator@UMessageBody@@@std@@@std@@V?$_Vector_val@U?$_Simple_types@UMessageBody@@@std@@@2@$00@std@@QBEABU?$_Wrap_alloc@V?$allocator@UMessageBody@@@std@@@2@XZ
_TEXT	SEGMENT
?_Get_first@?$_Compressed_pair@U?$_Wrap_alloc@V?$allocator@UMessageBody@@@std@@@std@@V?$_Vector_val@U?$_Simple_types@UMessageBody@@@std@@@2@$00@std@@QBEABU?$_Wrap_alloc@V?$allocator@UMessageBody@@@std@@@2@XZ PROC ; std::_Compressed_pair<std::_Wrap_alloc<std::allocator<MessageBody> >,std::_Vector_val<std::_Simple_types<MessageBody> >,1>::_Get_first, COMDAT
; _this$ = ecx

; 299  : 		return (*this);

  00000	8b c1		 mov	 eax, ecx

; 300  : 		}

  00002	c3		 ret	 0
?_Get_first@?$_Compressed_pair@U?$_Wrap_alloc@V?$allocator@UMessageBody@@@std@@@std@@V?$_Vector_val@U?$_Simple_types@UMessageBody@@@std@@@2@$00@std@@QBEABU?$_Wrap_alloc@V?$allocator@UMessageBody@@@std@@@2@XZ ENDP ; std::_Compressed_pair<std::_Wrap_alloc<std::allocator<MessageBody> >,std::_Vector_val<std::_Simple_types<MessageBody> >,1>::_Get_first
_TEXT	ENDS
; Function compile flags: /Ogtp
; File c:\program files (x86)\microsoft visual studio 14.0\vc\include\xutility
;	COMDAT ?_Get_first@?$_Compressed_pair@U?$_Wrap_alloc@V?$allocator@UMessageBody@@@std@@@std@@V?$_Vector_val@U?$_Simple_types@UMessageBody@@@std@@@2@$00@std@@QAEAAU?$_Wrap_alloc@V?$allocator@UMessageBody@@@std@@@2@XZ
_TEXT	SEGMENT
?_Get_first@?$_Compressed_pair@U?$_Wrap_alloc@V?$allocator@UMessageBody@@@std@@@std@@V?$_Vector_val@U?$_Simple_types@UMessageBody@@@std@@@2@$00@std@@QAEAAU?$_Wrap_alloc@V?$allocator@UMessageBody@@@std@@@2@XZ PROC ; std::_Compressed_pair<std::_Wrap_alloc<std::allocator<MessageBody> >,std::_Vector_val<std::_Simple_types<MessageBody> >,1>::_Get_first, COMDAT
; _this$ = ecx

; 294  : 		return (*this);

  00000	8b c1		 mov	 eax, ecx

; 295  : 		}

  00002	c3		 ret	 0
?_Get_first@?$_Compressed_pair@U?$_Wrap_alloc@V?$allocator@UMessageBody@@@std@@@std@@V?$_Vector_val@U?$_Simple_types@UMessageBody@@@std@@@2@$00@std@@QAEAAU?$_Wrap_alloc@V?$allocator@UMessageBody@@@std@@@2@XZ ENDP ; std::_Compressed_pair<std::_Wrap_alloc<std::allocator<MessageBody> >,std::_Vector_val<std::_Simple_types<MessageBody> >,1>::_Get_first
_TEXT	ENDS
; Function compile flags: /Ogtp
; File c:\program files (x86)\microsoft visual studio 14.0\vc\include\vector
;	COMDAT ??0?$_Vector_val@U?$_Simple_types@UMessageBody@@@std@@@std@@QAE@XZ
_TEXT	SEGMENT
??0?$_Vector_val@U?$_Simple_types@UMessageBody@@@std@@@std@@QAE@XZ PROC ; std::_Vector_val<std::_Simple_types<MessageBody> >::_Vector_val<std::_Simple_types<MessageBody> >, COMDAT
; _this$ = ecx

; 479  : 		{	// initialize values
; 480  : 		_Myfirst = pointer();

  00000	c7 01 00 00 00
	00		 mov	 DWORD PTR [ecx], 0

; 481  : 		_Mylast = pointer();
; 482  : 		_Myend = pointer();
; 483  : 		}

  00006	8b c1		 mov	 eax, ecx
  00008	c7 41 04 00 00
	00 00		 mov	 DWORD PTR [ecx+4], 0
  0000f	c7 41 08 00 00
	00 00		 mov	 DWORD PTR [ecx+8], 0
  00016	c3		 ret	 0
??0?$_Vector_val@U?$_Simple_types@UMessageBody@@@std@@@std@@QAE@XZ ENDP ; std::_Vector_val<std::_Simple_types<MessageBody> >::_Vector_val<std::_Simple_types<MessageBody> >
_TEXT	ENDS
; Function compile flags: /Ogtp
; File c:\program files (x86)\microsoft visual studio 14.0\vc\include\vector
;	COMDAT ?_Myend@?$_Vector_alloc@U?$_Vec_base_types@UMessageBody@@V?$allocator@UMessageBody@@@std@@@std@@@std@@QBEABQAUMessageBody@@XZ
_TEXT	SEGMENT
?_Myend@?$_Vector_alloc@U?$_Vec_base_types@UMessageBody@@V?$allocator@UMessageBody@@@std@@@std@@@std@@QBEABQAUMessageBody@@XZ PROC ; std::_Vector_alloc<std::_Vec_base_types<MessageBody,std::allocator<MessageBody> > >::_Myend, COMDAT
; _this$ = ecx

; 667  : 		return (_Get_data()._Myend);

  00000	8d 41 08	 lea	 eax, DWORD PTR [ecx+8]

; 668  : 		}

  00003	c3		 ret	 0
?_Myend@?$_Vector_alloc@U?$_Vec_base_types@UMessageBody@@V?$allocator@UMessageBody@@@std@@@std@@@std@@QBEABQAUMessageBody@@XZ ENDP ; std::_Vector_alloc<std::_Vec_base_types<MessageBody,std::allocator<MessageBody> > >::_Myend
_TEXT	ENDS
; Function compile flags: /Ogtp
; File c:\program files (x86)\microsoft visual studio 14.0\vc\include\vector
;	COMDAT ?_Myend@?$_Vector_alloc@U?$_Vec_base_types@UMessageBody@@V?$allocator@UMessageBody@@@std@@@std@@@std@@QAEAAPAUMessageBody@@XZ
_TEXT	SEGMENT
?_Myend@?$_Vector_alloc@U?$_Vec_base_types@UMessageBody@@V?$allocator@UMessageBody@@@std@@@std@@@std@@QAEAAPAUMessageBody@@XZ PROC ; std::_Vector_alloc<std::_Vec_base_types<MessageBody,std::allocator<MessageBody> > >::_Myend, COMDAT
; _this$ = ecx

; 662  : 		return (_Get_data()._Myend);

  00000	8d 41 08	 lea	 eax, DWORD PTR [ecx+8]

; 663  : 		}

  00003	c3		 ret	 0
?_Myend@?$_Vector_alloc@U?$_Vec_base_types@UMessageBody@@V?$allocator@UMessageBody@@@std@@@std@@@std@@QAEAAPAUMessageBody@@XZ ENDP ; std::_Vector_alloc<std::_Vec_base_types<MessageBody,std::allocator<MessageBody> > >::_Myend
_TEXT	ENDS
; Function compile flags: /Ogtp
; File c:\program files (x86)\microsoft visual studio 14.0\vc\include\vector
;	COMDAT ?_Mylast@?$_Vector_alloc@U?$_Vec_base_types@UMessageBody@@V?$allocator@UMessageBody@@@std@@@std@@@std@@QBEABQAUMessageBody@@XZ
_TEXT	SEGMENT
?_Mylast@?$_Vector_alloc@U?$_Vec_base_types@UMessageBody@@V?$allocator@UMessageBody@@@std@@@std@@@std@@QBEABQAUMessageBody@@XZ PROC ; std::_Vector_alloc<std::_Vec_base_types<MessageBody,std::allocator<MessageBody> > >::_Mylast, COMDAT
; _this$ = ecx

; 657  : 		return (_Get_data()._Mylast);

  00000	8d 41 04	 lea	 eax, DWORD PTR [ecx+4]

; 658  : 		}

  00003	c3		 ret	 0
?_Mylast@?$_Vector_alloc@U?$_Vec_base_types@UMessageBody@@V?$allocator@UMessageBody@@@std@@@std@@@std@@QBEABQAUMessageBody@@XZ ENDP ; std::_Vector_alloc<std::_Vec_base_types<MessageBody,std::allocator<MessageBody> > >::_Mylast
_TEXT	ENDS
; Function compile flags: /Ogtp
; File c:\program files (x86)\microsoft visual studio 14.0\vc\include\vector
;	COMDAT ?_Mylast@?$_Vector_alloc@U?$_Vec_base_types@UMessageBody@@V?$allocator@UMessageBody@@@std@@@std@@@std@@QAEAAPAUMessageBody@@XZ
_TEXT	SEGMENT
?_Mylast@?$_Vector_alloc@U?$_Vec_base_types@UMessageBody@@V?$allocator@UMessageBody@@@std@@@std@@@std@@QAEAAPAUMessageBody@@XZ PROC ; std::_Vector_alloc<std::_Vec_base_types<MessageBody,std::allocator<MessageBody> > >::_Mylast, COMDAT
; _this$ = ecx

; 652  : 		return (_Get_data()._Mylast);

  00000	8d 41 04	 lea	 eax, DWORD PTR [ecx+4]

; 653  : 		}

  00003	c3		 ret	 0
?_Mylast@?$_Vector_alloc@U?$_Vec_base_types@UMessageBody@@V?$allocator@UMessageBody@@@std@@@std@@@std@@QAEAAPAUMessageBody@@XZ ENDP ; std::_Vector_alloc<std::_Vec_base_types<MessageBody,std::allocator<MessageBody> > >::_Mylast
_TEXT	ENDS
; Function compile flags: /Ogtp
; File c:\program files (x86)\microsoft visual studio 14.0\vc\include\vector
;	COMDAT ?_Myfirst@?$_Vector_alloc@U?$_Vec_base_types@UMessageBody@@V?$allocator@UMessageBody@@@std@@@std@@@std@@QBEABQAUMessageBody@@XZ
_TEXT	SEGMENT
?_Myfirst@?$_Vector_alloc@U?$_Vec_base_types@UMessageBody@@V?$allocator@UMessageBody@@@std@@@std@@@std@@QBEABQAUMessageBody@@XZ PROC ; std::_Vector_alloc<std::_Vec_base_types<MessageBody,std::allocator<MessageBody> > >::_Myfirst, COMDAT
; _this$ = ecx

; 647  : 		return (_Get_data()._Myfirst);

  00000	8b c1		 mov	 eax, ecx

; 648  : 		}

  00002	c3		 ret	 0
?_Myfirst@?$_Vector_alloc@U?$_Vec_base_types@UMessageBody@@V?$allocator@UMessageBody@@@std@@@std@@@std@@QBEABQAUMessageBody@@XZ ENDP ; std::_Vector_alloc<std::_Vec_base_types<MessageBody,std::allocator<MessageBody> > >::_Myfirst
_TEXT	ENDS
; Function compile flags: /Ogtp
; File c:\program files (x86)\microsoft visual studio 14.0\vc\include\vector
;	COMDAT ?_Myfirst@?$_Vector_alloc@U?$_Vec_base_types@UMessageBody@@V?$allocator@UMessageBody@@@std@@@std@@@std@@QAEAAPAUMessageBody@@XZ
_TEXT	SEGMENT
?_Myfirst@?$_Vector_alloc@U?$_Vec_base_types@UMessageBody@@V?$allocator@UMessageBody@@@std@@@std@@@std@@QAEAAPAUMessageBody@@XZ PROC ; std::_Vector_alloc<std::_Vec_base_types<MessageBody,std::allocator<MessageBody> > >::_Myfirst, COMDAT
; _this$ = ecx

; 642  : 		return (_Get_data()._Myfirst);

  00000	8b c1		 mov	 eax, ecx

; 643  : 		}

  00002	c3		 ret	 0
?_Myfirst@?$_Vector_alloc@U?$_Vec_base_types@UMessageBody@@V?$allocator@UMessageBody@@@std@@@std@@@std@@QAEAAPAUMessageBody@@XZ ENDP ; std::_Vector_alloc<std::_Vec_base_types<MessageBody,std::allocator<MessageBody> > >::_Myfirst
_TEXT	ENDS
; Function compile flags: /Ogtp
; File c:\program files (x86)\microsoft visual studio 14.0\vc\include\vector
;	COMDAT ?_Get_data@?$_Vector_alloc@U?$_Vec_base_types@UMessageBody@@V?$allocator@UMessageBody@@@std@@@std@@@std@@QBEABV?$_Vector_val@U?$_Simple_types@UMessageBody@@@std@@@2@XZ
_TEXT	SEGMENT
?_Get_data@?$_Vector_alloc@U?$_Vec_base_types@UMessageBody@@V?$allocator@UMessageBody@@@std@@@std@@@std@@QBEABV?$_Vector_val@U?$_Simple_types@UMessageBody@@@std@@@2@XZ PROC ; std::_Vector_alloc<std::_Vec_base_types<MessageBody,std::allocator<MessageBody> > >::_Get_data, COMDAT
; _this$ = ecx

; 637  : 		return (_Mypair._Get_second());

  00000	8b c1		 mov	 eax, ecx

; 638  : 		}

  00002	c3		 ret	 0
?_Get_data@?$_Vector_alloc@U?$_Vec_base_types@UMessageBody@@V?$allocator@UMessageBody@@@std@@@std@@@std@@QBEABV?$_Vector_val@U?$_Simple_types@UMessageBody@@@std@@@2@XZ ENDP ; std::_Vector_alloc<std::_Vec_base_types<MessageBody,std::allocator<MessageBody> > >::_Get_data
_TEXT	ENDS
; Function compile flags: /Ogtp
; File c:\program files (x86)\microsoft visual studio 14.0\vc\include\vector
;	COMDAT ?_Get_data@?$_Vector_alloc@U?$_Vec_base_types@UMessageBody@@V?$allocator@UMessageBody@@@std@@@std@@@std@@QAEAAV?$_Vector_val@U?$_Simple_types@UMessageBody@@@std@@@2@XZ
_TEXT	SEGMENT
?_Get_data@?$_Vector_alloc@U?$_Vec_base_types@UMessageBody@@V?$allocator@UMessageBody@@@std@@@std@@@std@@QAEAAV?$_Vector_val@U?$_Simple_types@UMessageBody@@@std@@@2@XZ PROC ; std::_Vector_alloc<std::_Vec_base_types<MessageBody,std::allocator<MessageBody> > >::_Get_data, COMDAT
; _this$ = ecx

; 632  : 		return (_Mypair._Get_second());

  00000	8b c1		 mov	 eax, ecx

; 633  : 		}

  00002	c3		 ret	 0
?_Get_data@?$_Vector_alloc@U?$_Vec_base_types@UMessageBody@@V?$allocator@UMessageBody@@@std@@@std@@@std@@QAEAAV?$_Vector_val@U?$_Simple_types@UMessageBody@@@std@@@2@XZ ENDP ; std::_Vector_alloc<std::_Vec_base_types<MessageBody,std::allocator<MessageBody> > >::_Get_data
_TEXT	ENDS
; Function compile flags: /Ogtp
; File c:\program files (x86)\microsoft visual studio 14.0\vc\include\vector
;	COMDAT ?_Getal@?$_Vector_alloc@U?$_Vec_base_types@UMessageBody@@V?$allocator@UMessageBody@@@std@@@std@@@std@@QBEABU?$_Wrap_alloc@V?$allocator@UMessageBody@@@std@@@2@XZ
_TEXT	SEGMENT
?_Getal@?$_Vector_alloc@U?$_Vec_base_types@UMessageBody@@V?$allocator@UMessageBody@@@std@@@std@@@std@@QBEABU?$_Wrap_alloc@V?$allocator@UMessageBody@@@std@@@2@XZ PROC ; std::_Vector_alloc<std::_Vec_base_types<MessageBody,std::allocator<MessageBody> > >::_Getal, COMDAT
; _this$ = ecx

; 627  : 		return (_Mypair._Get_first());

  00000	8b c1		 mov	 eax, ecx

; 628  : 		}

  00002	c3		 ret	 0
?_Getal@?$_Vector_alloc@U?$_Vec_base_types@UMessageBody@@V?$allocator@UMessageBody@@@std@@@std@@@std@@QBEABU?$_Wrap_alloc@V?$allocator@UMessageBody@@@std@@@2@XZ ENDP ; std::_Vector_alloc<std::_Vec_base_types<MessageBody,std::allocator<MessageBody> > >::_Getal
_TEXT	ENDS
; Function compile flags: /Ogtp
; File c:\program files (x86)\microsoft visual studio 14.0\vc\include\vector
;	COMDAT ?_Getal@?$_Vector_alloc@U?$_Vec_base_types@UMessageBody@@V?$allocator@UMessageBody@@@std@@@std@@@std@@QAEAAU?$_Wrap_alloc@V?$allocator@UMessageBody@@@std@@@2@XZ
_TEXT	SEGMENT
?_Getal@?$_Vector_alloc@U?$_Vec_base_types@UMessageBody@@V?$allocator@UMessageBody@@@std@@@std@@@std@@QAEAAU?$_Wrap_alloc@V?$allocator@UMessageBody@@@std@@@2@XZ PROC ; std::_Vector_alloc<std::_Vec_base_types<MessageBody,std::allocator<MessageBody> > >::_Getal, COMDAT
; _this$ = ecx

; 622  : 		return (_Mypair._Get_first());

  00000	8b c1		 mov	 eax, ecx

; 623  : 		}

  00002	c3		 ret	 0
?_Getal@?$_Vector_alloc@U?$_Vec_base_types@UMessageBody@@V?$allocator@UMessageBody@@@std@@@std@@@std@@QAEAAU?$_Wrap_alloc@V?$allocator@UMessageBody@@@std@@@2@XZ ENDP ; std::_Vector_alloc<std::_Vec_base_types<MessageBody,std::allocator<MessageBody> > >::_Getal
_TEXT	ENDS
; Function compile flags: /Ogtp
; File c:\program files (x86)\microsoft visual studio 14.0\vc\include\vector
;	COMDAT ?_Orphan_all@?$_Vector_alloc@U?$_Vec_base_types@UMessageBody@@V?$allocator@UMessageBody@@@std@@@std@@@std@@QAEXXZ
_TEXT	SEGMENT
?_Orphan_all@?$_Vector_alloc@U?$_Vec_base_types@UMessageBody@@V?$allocator@UMessageBody@@@std@@@std@@@std@@QAEXXZ PROC ; std::_Vector_alloc<std::_Vec_base_types<MessageBody,std::allocator<MessageBody> > >::_Orphan_all, COMDAT
; _this$ = ecx

; 612  : 		_Get_data()._Orphan_all();
; 613  : 		}

  00000	c3		 ret	 0
?_Orphan_all@?$_Vector_alloc@U?$_Vec_base_types@UMessageBody@@V?$allocator@UMessageBody@@@std@@@std@@@std@@QAEXXZ ENDP ; std::_Vector_alloc<std::_Vec_base_types<MessageBody,std::allocator<MessageBody> > >::_Orphan_all
_TEXT	ENDS
; Function compile flags: /Ogtp
; File c:\program files (x86)\microsoft visual studio 14.0\vc\include\vector
;	COMDAT ??0?$_Vector_alloc@U?$_Vec_base_types@UMessageBody@@V?$allocator@UMessageBody@@@std@@@std@@@std@@QAE@ABV?$allocator@UMessageBody@@@1@@Z
_TEXT	SEGMENT
__Al$ = 8						; size = 4
??0?$_Vector_alloc@U?$_Vec_base_types@UMessageBody@@V?$allocator@UMessageBody@@@std@@@std@@@std@@QAE@ABV?$allocator@UMessageBody@@@1@@Z PROC ; std::_Vector_alloc<std::_Vec_base_types<MessageBody,std::allocator<MessageBody> > >::_Vector_alloc<std::_Vec_base_types<MessageBody,std::allocator<MessageBody> > >, COMDAT
; _this$ = ecx

; 480  : 		_Myfirst = pointer();

  00000	c7 01 00 00 00
	00		 mov	 DWORD PTR [ecx], 0

; 515  : 		}

  00006	8b c1		 mov	 eax, ecx

; 481  : 		_Mylast = pointer();

  00008	c7 41 04 00 00
	00 00		 mov	 DWORD PTR [ecx+4], 0

; 482  : 		_Myend = pointer();

  0000f	c7 41 08 00 00
	00 00		 mov	 DWORD PTR [ecx+8], 0

; 515  : 		}

  00016	c2 04 00	 ret	 4
??0?$_Vector_alloc@U?$_Vec_base_types@UMessageBody@@V?$allocator@UMessageBody@@@std@@@std@@@std@@QAE@ABV?$allocator@UMessageBody@@@1@@Z ENDP ; std::_Vector_alloc<std::_Vec_base_types<MessageBody,std::allocator<MessageBody> > >::_Vector_alloc<std::_Vec_base_types<MessageBody,std::allocator<MessageBody> > >
_TEXT	ENDS
; Function compile flags: /Ogtp
; File c:\program files (x86)\microsoft visual studio 14.0\vc\include\xmemory0
;	COMDAT ?max_size@?$_Wrap_alloc@V?$allocator@UMessageBody@@@std@@@std@@QBEIU_Nil@2@@Z
_TEXT	SEGMENT
___formal$ = 8						; size = 1
?max_size@?$_Wrap_alloc@V?$allocator@UMessageBody@@@std@@@std@@QBEIU_Nil@2@@Z PROC ; std::_Wrap_alloc<std::allocator<MessageBody> >::max_size, COMDAT
; _this$ = ecx

; 930  : 		return (_Mytraits::max_size(*this));

  00000	b8 f8 03 fe 00	 mov	 eax, 16647160		; 00fe03f8H

; 931  : 		}

  00005	c2 04 00	 ret	 4
?max_size@?$_Wrap_alloc@V?$allocator@UMessageBody@@@std@@@std@@QBEIU_Nil@2@@Z ENDP ; std::_Wrap_alloc<std::allocator<MessageBody> >::max_size
_TEXT	ENDS
; Function compile flags: /Ogtp
; File c:\program files (x86)\microsoft visual studio 14.0\vc\include\xmemory0
;	COMDAT ?deallocate@?$_Wrap_alloc@V?$allocator@UMessageBody@@@std@@@std@@QAEXPAUMessageBody@@I@Z
_TEXT	SEGMENT
__Ptr$ = 8						; size = 4
__Count$ = 12						; size = 4
?deallocate@?$_Wrap_alloc@V?$allocator@UMessageBody@@@std@@@std@@QAEXPAUMessageBody@@I@Z PROC ; std::_Wrap_alloc<std::allocator<MessageBody> >::deallocate, COMDAT
; _this$ = ecx

; 908  : 		{	// deallocate object at _Ptr, ignore size

  00000	55		 push	 ebp
  00001	8b ec		 mov	 ebp, esp

; 910  : 		}

  00003	5d		 pop	 ebp

; 909  : 		_Mybase::deallocate(_Ptr, _Count);

  00004	e9 00 00 00 00	 jmp	 ?deallocate@?$allocator@UMessageBody@@@std@@QAEXPAUMessageBody@@I@Z ; std::allocator<MessageBody>::deallocate
?deallocate@?$_Wrap_alloc@V?$allocator@UMessageBody@@@std@@@std@@QAEXPAUMessageBody@@I@Z ENDP ; std::_Wrap_alloc<std::allocator<MessageBody> >::deallocate
_TEXT	ENDS
; Function compile flags: /Ogtp
; File c:\program files (x86)\microsoft visual studio 14.0\vc\include\xmemory0
;	COMDAT ?allocate@?$_Wrap_alloc@V?$allocator@UMessageBody@@@std@@@std@@QAEPAUMessageBody@@I@Z
_TEXT	SEGMENT
__Count$ = 8						; size = 4
?allocate@?$_Wrap_alloc@V?$allocator@UMessageBody@@@std@@@std@@QAEPAUMessageBody@@I@Z PROC ; std::_Wrap_alloc<std::allocator<MessageBody> >::allocate, COMDAT
; _this$ = ecx

; 897  : 		{	// allocate array of _Count elements

  00000	55		 push	 ebp
  00001	8b ec		 mov	 ebp, esp

; 899  : 		}

  00003	5d		 pop	 ebp

; 898  : 		return (_Mybase::allocate(_Count));

  00004	e9 00 00 00 00	 jmp	 ?allocate@?$allocator@UMessageBody@@@std@@QAEPAUMessageBody@@I@Z ; std::allocator<MessageBody>::allocate
?allocate@?$_Wrap_alloc@V?$allocator@UMessageBody@@@std@@@std@@QAEPAUMessageBody@@I@Z ENDP ; std::_Wrap_alloc<std::allocator<MessageBody> >::allocate
_TEXT	ENDS
; Function compile flags: /Ogtp
; File c:\program files (x86)\microsoft visual studio 14.0\vc\include\xmemory0
;	COMDAT ??0?$_Wrap_alloc@V?$allocator@UMessageBody@@@std@@@std@@QAE@ABV?$allocator@UMessageBody@@@1@@Z
_TEXT	SEGMENT
__Right$ = 8						; size = 4
??0?$_Wrap_alloc@V?$allocator@UMessageBody@@@std@@@std@@QAE@ABV?$allocator@UMessageBody@@@1@@Z PROC ; std::_Wrap_alloc<std::allocator<MessageBody> >::_Wrap_alloc<std::allocator<MessageBody> >, COMDAT
; _this$ = ecx

; 858  : 		}

  00000	8b c1		 mov	 eax, ecx
  00002	c2 04 00	 ret	 4
??0?$_Wrap_alloc@V?$allocator@UMessageBody@@@std@@@std@@QAE@ABV?$allocator@UMessageBody@@@1@@Z ENDP ; std::_Wrap_alloc<std::allocator<MessageBody> >::_Wrap_alloc<std::allocator<MessageBody> >
_TEXT	ENDS
; Function compile flags: /Ogtp
; File c:\program files (x86)\microsoft visual studio 14.0\vc\include\xmemory0
;	COMDAT ?max_size@?$allocator_traits@V?$allocator@UMessageBody@@@std@@@std@@SAIABV?$allocator@UMessageBody@@@2@@Z
_TEXT	SEGMENT
__Al$ = 8						; size = 4
?max_size@?$allocator_traits@V?$allocator@UMessageBody@@@std@@@std@@SAIABV?$allocator@UMessageBody@@@2@@Z PROC ; std::allocator_traits<std::allocator<MessageBody> >::max_size, COMDAT

; 785  : 		return (_Al.max_size());

  00000	b8 f8 03 fe 00	 mov	 eax, 16647160		; 00fe03f8H

; 786  : 		}

  00005	c3		 ret	 0
?max_size@?$allocator_traits@V?$allocator@UMessageBody@@@std@@@std@@SAIABV?$allocator@UMessageBody@@@2@@Z ENDP ; std::allocator_traits<std::allocator<MessageBody> >::max_size
_TEXT	ENDS
; Function compile flags: /Ogtp
; File c:\program files (x86)\microsoft visual studio 14.0\vc\include\xmemory0
;	COMDAT ?max_size@?$allocator@UMessageBody@@@std@@QBEIXZ
_TEXT	SEGMENT
?max_size@?$allocator@UMessageBody@@@std@@QBEIXZ PROC	; std::allocator<MessageBody>::max_size, COMDAT
; _this$ = ecx

; 667  : 		return ((size_t)(-1) / sizeof (_Ty));

  00000	b8 f8 03 fe 00	 mov	 eax, 16647160		; 00fe03f8H

; 668  : 		}

  00005	c3		 ret	 0
?max_size@?$allocator@UMessageBody@@@std@@QBEIXZ ENDP	; std::allocator<MessageBody>::max_size
_TEXT	ENDS
; Function compile flags: /Ogtp
; File c:\program files (x86)\microsoft visual studio 14.0\vc\include\xmemory0
;	COMDAT ?allocate@?$allocator@UMessageBody@@@std@@QAEPAUMessageBody@@I@Z
_TEXT	SEGMENT
__Count$ = 8						; size = 4
?allocate@?$allocator@UMessageBody@@@std@@QAEPAUMessageBody@@I@Z PROC ; std::allocator<MessageBody>::allocate, COMDAT
; _this$ = ecx

; 642  : 		{	// allocate array of _Count elements

  00000	55		 push	 ebp
  00001	8b ec		 mov	 ebp, esp

; 57   : 	if (_Count == 0)

  00003	8b 45 08	 mov	 eax, DWORD PTR __Count$[ebp]
  00006	85 c0		 test	 eax, eax
  00008	75 04		 jne	 SHORT $LN4@allocate
$LN12@allocate:

; 643  : 		return (static_cast<pointer>(_Allocate(_Count, sizeof (_Ty))));
; 644  : 		}

  0000a	5d		 pop	 ebp
  0000b	c2 04 00	 ret	 4
$LN4@allocate:

; 58   : 		return (_Ptr);
; 59   : 
; 60   : 	// check overflow of multiply
; 61   : 	if ((size_t)(-1) / _Sz < _Count)

  0000e	3d f8 03 fe 00	 cmp	 eax, 16647160		; 00fe03f8H
  00013	77 3f		 ja	 SHORT $LN14@allocate

; 63   : 	const size_t _User_size = _Count * _Sz;

  00015	69 c0 02 01 00
	00		 imul	 eax, eax, 258

; 64   : 
; 65   :  #if defined(_M_IX86) || defined(_M_X64)
; 66   : 	if (_Try_aligned_allocation
; 67   : 		&& _BIG_ALLOCATION_THRESHOLD <= _User_size)

  0001b	3d 00 10 00 00	 cmp	 eax, 4096		; 00001000H
  00020	72 23		 jb	 SHORT $LN6@allocate

; 68   : 		{	// allocate large block
; 69   : 		static_assert(sizeof (void *) < _BIG_ALLOCATION_ALIGNMENT,
; 70   : 			"Big allocations should at least match vector register size");
; 71   : 		const size_t _Block_size = _NON_USER_SIZE + _User_size;

  00022	8d 48 23	 lea	 ecx, DWORD PTR [eax+35]

; 72   : 		if (_Block_size <= _User_size)

  00025	3b c8		 cmp	 ecx, eax
  00027	76 30		 jbe	 SHORT $LN16@allocate

; 74   : 		const uintptr_t _Ptr_container =
; 75   : 			reinterpret_cast<uintptr_t>(::operator new(_Block_size));

  00029	51		 push	 ecx
  0002a	e8 00 00 00 00	 call	 ??2@YAPAXI@Z		; operator new
  0002f	8b c8		 mov	 ecx, eax
  00031	83 c4 04	 add	 esp, 4

; 76   : 		_SCL_SECURE_ALWAYS_VALIDATE(_Ptr_container != 0);

  00034	85 c9		 test	 ecx, ecx
  00036	74 26		 je	 SHORT $LN17@allocate

; 77   : 		_Ptr = reinterpret_cast<void *>((_Ptr_container + _NON_USER_SIZE)

  00038	8d 41 23	 lea	 eax, DWORD PTR [ecx+35]
  0003b	83 e0 e0	 and	 eax, -32		; ffffffe0H

; 78   : 			& ~(_BIG_ALLOCATION_ALIGNMENT - 1));
; 79   : 		static_cast<uintptr_t *>(_Ptr)[-1] = _Ptr_container;

  0003e	89 48 fc	 mov	 DWORD PTR [eax-4], ecx

; 643  : 		return (static_cast<pointer>(_Allocate(_Count, sizeof (_Ty))));
; 644  : 		}

  00041	5d		 pop	 ebp
  00042	c2 04 00	 ret	 4
$LN6@allocate:

; 80   : 
; 81   :  #ifdef _DEBUG
; 82   : 		static_cast<uintptr_t *>(_Ptr)[-2] = _BIG_ALLOCATION_SENTINEL;
; 83   :  #endif /* _DEBUG */
; 84   : 		}
; 85   : 	else
; 86   :  #endif /* defined(_M_IX86) || defined(_M_X64) */
; 87   : 
; 88   : 		{	// allocate normal block
; 89   : 		_Ptr = ::operator new(_User_size);

  00045	50		 push	 eax
  00046	e8 00 00 00 00	 call	 ??2@YAPAXI@Z		; operator new
  0004b	83 c4 04	 add	 esp, 4

; 90   : 		_SCL_SECURE_ALWAYS_VALIDATE(_Ptr != 0);

  0004e	85 c0		 test	 eax, eax
  00050	75 b8		 jne	 SHORT $LN12@allocate
  00052	eb 0f		 jmp	 SHORT $LN18@allocate
$LN14@allocate:

; 62   : 		_Xbad_alloc();	// report no memory

  00054	e8 00 00 00 00	 call	 ?_Xbad_alloc@std@@YAXXZ	; std::_Xbad_alloc
$LN19@allocate:
$LN16@allocate:

; 73   : 			_Xbad_alloc();	// report no memory

  00059	e8 00 00 00 00	 call	 ?_Xbad_alloc@std@@YAXXZ	; std::_Xbad_alloc
$LN20@allocate:
$LN17@allocate:

; 76   : 		_SCL_SECURE_ALWAYS_VALIDATE(_Ptr_container != 0);

  0005e	e8 00 00 00 00	 call	 __invalid_parameter_noinfo_noreturn
$LN21@allocate:
$LN18@allocate:

; 90   : 		_SCL_SECURE_ALWAYS_VALIDATE(_Ptr != 0);

  00063	e8 00 00 00 00	 call	 __invalid_parameter_noinfo_noreturn
$LN22@allocate:
$LN13@allocate:
  00068	cc		 int	 3
?allocate@?$allocator@UMessageBody@@@std@@QAEPAUMessageBody@@I@Z ENDP ; std::allocator<MessageBody>::allocate
_TEXT	ENDS
; Function compile flags: /Ogtp
; File c:\program files (x86)\microsoft visual studio 14.0\vc\include\xmemory0
;	COMDAT ?deallocate@?$allocator@UMessageBody@@@std@@QAEXPAUMessageBody@@I@Z
_TEXT	SEGMENT
__Ptr$ = 8						; size = 4
__Count$ = 12						; size = 4
?deallocate@?$allocator@UMessageBody@@@std@@QAEXPAUMessageBody@@I@Z PROC ; std::allocator<MessageBody>::deallocate, COMDAT
; _this$ = ecx

; 637  : 		{	// deallocate object at _Ptr

  00000	55		 push	 ebp
  00001	8b ec		 mov	 ebp, esp

; 100  : 	_SCL_SECURE_ALWAYS_VALIDATE(_Count <= (size_t)(-1) / _Sz);

  00003	8b 45 0c	 mov	 eax, DWORD PTR __Count$[ebp]

; 638  : 		_Deallocate(_Ptr, _Count, sizeof (_Ty));

  00006	8b 4d 08	 mov	 ecx, DWORD PTR __Ptr$[ebp]

; 100  : 	_SCL_SECURE_ALWAYS_VALIDATE(_Count <= (size_t)(-1) / _Sz);

  00009	3d f8 03 fe 00	 cmp	 eax, 16647160		; 00fe03f8H
  0000e	77 34		 ja	 SHORT $LN13@deallocate

; 101  : 	const size_t _User_size = _Count * _Sz;

  00010	69 c0 02 01 00
	00		 imul	 eax, eax, 258

; 102  : 	if (_BIG_ALLOCATION_THRESHOLD <= _User_size)

  00016	3d 00 10 00 00	 cmp	 eax, 4096		; 00001000H
  0001b	72 1a		 jb	 SHORT $LN5@deallocate

; 103  : 		{	// deallocate large block
; 104  : 		const uintptr_t _Ptr_user = reinterpret_cast<uintptr_t>(_Ptr);
; 105  : 		_SCL_SECURE_ALWAYS_VALIDATE(

  0001d	f6 c1 1f	 test	 cl, 31			; 0000001fH
  00020	75 27		 jne	 SHORT $LN15@deallocate

; 106  : 			(_Ptr_user & (_BIG_ALLOCATION_ALIGNMENT - 1)) == 0);
; 107  : 		const uintptr_t _Ptr_ptr = _Ptr_user - sizeof(void *);
; 108  : 		const uintptr_t _Ptr_container =
; 109  : 			*reinterpret_cast<uintptr_t *>(_Ptr_ptr);

  00022	8b 41 fc	 mov	 eax, DWORD PTR [ecx-4]

; 110  : 
; 111  :  #ifdef _DEBUG
; 112  : 		// If the following asserts, it likely means that we are performing
; 113  : 		// an aligned delete on memory coming from an unaligned allocation.
; 114  : 		_SCL_SECURE_ALWAYS_VALIDATE(
; 115  : 			reinterpret_cast<uintptr_t *>(_Ptr_ptr)[-1] ==
; 116  : 				_BIG_ALLOCATION_SENTINEL);
; 117  :  #endif /* _DEBUG */
; 118  : 
; 119  : 		// Extra paranoia on aligned allocation/deallocation
; 120  : 		_SCL_SECURE_ALWAYS_VALIDATE(_Ptr_container < _Ptr_user);

  00025	3b c1		 cmp	 eax, ecx
  00027	73 25		 jae	 SHORT $LN16@deallocate

; 121  : 
; 122  :  #ifdef _DEBUG
; 123  : 		_SCL_SECURE_ALWAYS_VALIDATE(2 * sizeof(void *)
; 124  : 			<= _Ptr_user - _Ptr_container);
; 125  : 
; 126  :  #else /* _DEBUG */
; 127  : 		_SCL_SECURE_ALWAYS_VALIDATE(sizeof(void *)

  00029	2b c8		 sub	 ecx, eax
  0002b	83 f9 04	 cmp	 ecx, 4
  0002e	72 23		 jb	 SHORT $LN17@deallocate

; 128  : 			<= _Ptr_user - _Ptr_container);
; 129  :  #endif /* _DEBUG */
; 130  : 
; 131  : 		_SCL_SECURE_ALWAYS_VALIDATE(_Ptr_user - _Ptr_container

  00030	83 f9 23	 cmp	 ecx, 35			; 00000023H
  00033	77 23		 ja	 SHORT $LN18@deallocate

; 132  : 			<= _NON_USER_SIZE);
; 133  : 
; 134  : 		_Ptr = reinterpret_cast<void *>(_Ptr_container);

  00035	8b c8		 mov	 ecx, eax
$LN5@deallocate:

; 135  : 		}
; 136  :  #endif /* defined(_M_IX86) || defined(_M_X64) */
; 137  : 
; 138  : 	::operator delete(_Ptr);

  00037	51		 push	 ecx
  00038	e8 00 00 00 00	 call	 ??3@YAXPAX@Z		; operator delete
  0003d	83 c4 04	 add	 esp, 4

; 639  : 		}

  00040	5d		 pop	 ebp
  00041	c2 08 00	 ret	 8
$LN13@deallocate:

; 100  : 	_SCL_SECURE_ALWAYS_VALIDATE(_Count <= (size_t)(-1) / _Sz);

  00044	e8 00 00 00 00	 call	 __invalid_parameter_noinfo_noreturn
$LN19@deallocate:
$LN15@deallocate:

; 103  : 		{	// deallocate large block
; 104  : 		const uintptr_t _Ptr_user = reinterpret_cast<uintptr_t>(_Ptr);
; 105  : 		_SCL_SECURE_ALWAYS_VALIDATE(

  00049	e8 00 00 00 00	 call	 __invalid_parameter_noinfo_noreturn
$LN20@deallocate:
$LN16@deallocate:

; 110  : 
; 111  :  #ifdef _DEBUG
; 112  : 		// If the following asserts, it likely means that we are performing
; 113  : 		// an aligned delete on memory coming from an unaligned allocation.
; 114  : 		_SCL_SECURE_ALWAYS_VALIDATE(
; 115  : 			reinterpret_cast<uintptr_t *>(_Ptr_ptr)[-1] ==
; 116  : 				_BIG_ALLOCATION_SENTINEL);
; 117  :  #endif /* _DEBUG */
; 118  : 
; 119  : 		// Extra paranoia on aligned allocation/deallocation
; 120  : 		_SCL_SECURE_ALWAYS_VALIDATE(_Ptr_container < _Ptr_user);

  0004e	e8 00 00 00 00	 call	 __invalid_parameter_noinfo_noreturn
$LN21@deallocate:
$LN17@deallocate:

; 121  : 
; 122  :  #ifdef _DEBUG
; 123  : 		_SCL_SECURE_ALWAYS_VALIDATE(2 * sizeof(void *)
; 124  : 			<= _Ptr_user - _Ptr_container);
; 125  : 
; 126  :  #else /* _DEBUG */
; 127  : 		_SCL_SECURE_ALWAYS_VALIDATE(sizeof(void *)

  00053	e8 00 00 00 00	 call	 __invalid_parameter_noinfo_noreturn
$LN22@deallocate:
$LN18@deallocate:

; 128  : 			<= _Ptr_user - _Ptr_container);
; 129  :  #endif /* _DEBUG */
; 130  : 
; 131  : 		_SCL_SECURE_ALWAYS_VALIDATE(_Ptr_user - _Ptr_container

  00058	e8 00 00 00 00	 call	 __invalid_parameter_noinfo_noreturn
$LN23@deallocate:
$LN12@deallocate:
  0005d	cc		 int	 3
?deallocate@?$allocator@UMessageBody@@@std@@QAEXPAUMessageBody@@I@Z ENDP ; std::allocator<MessageBody>::deallocate
_TEXT	ENDS
; Function compile flags: /Ogtp
; File c:\program files (x86)\microsoft visual studio 14.0\vc\include\xmemory0
;	COMDAT ??0?$allocator@UMessageBody@@@std@@QAE@ABV01@@Z
_TEXT	SEGMENT
___formal$ = 8						; size = 4
??0?$allocator@UMessageBody@@@std@@QAE@ABV01@@Z PROC	; std::allocator<MessageBody>::allocator<MessageBody>, COMDAT
; _this$ = ecx

; 622  : 		{	// construct by copying (do nothing)
; 623  : 		}

  00000	8b c1		 mov	 eax, ecx
  00002	c2 04 00	 ret	 4
??0?$allocator@UMessageBody@@@std@@QAE@ABV01@@Z ENDP	; std::allocator<MessageBody>::allocator<MessageBody>
_TEXT	ENDS
; Function compile flags: /Ogtp
; File c:\program files (x86)\microsoft visual studio 14.0\vc\include\xmemory0
;	COMDAT ??0?$allocator@UMessageBody@@@std@@QAE@XZ
_TEXT	SEGMENT
??0?$allocator@UMessageBody@@@std@@QAE@XZ PROC		; std::allocator<MessageBody>::allocator<MessageBody>, COMDAT
; _this$ = ecx

; 618  : 		{	// construct default allocator (do nothing)
; 619  : 		}

  00000	8b c1		 mov	 eax, ecx
  00002	c3		 ret	 0
??0?$allocator@UMessageBody@@@std@@QAE@XZ ENDP		; std::allocator<MessageBody>::allocator<MessageBody>
_TEXT	ENDS
; Function compile flags: /Ogtp
; File c:\users\michel\desktop\source\gameserver\source\message.cpp
; File c:\program files (x86)\microsoft visual studio 14.0\vc\include\vector
; File c:\users\michel\desktop\source\gameserver\source\message.cpp
; File c:\program files (x86)\microsoft visual studio 14.0\vc\include\vector
; File c:\users\michel\desktop\source\gameserver\source\message.cpp
; File c:\program files (x86)\microsoft visual studio 14.0\vc\include\vector
; File c:\program files (x86)\microsoft visual studio 14.0\vc\include\xutility
; File c:\program files (x86)\microsoft visual studio 14.0\vc\include\vector
; File c:\users\michel\desktop\source\gameserver\source\message.cpp
; File c:\program files (x86)\microsoft visual studio 14.0\vc\include\vector
; File c:\users\michel\desktop\source\gameserver\source\message.cpp
; File c:\program files (x86)\microsoft visual studio 14.0\vc\include\vector
; File c:\users\michel\desktop\source\gameserver\source\message.cpp
; File c:\program files (x86)\microsoft visual studio 14.0\vc\include\vector
; File c:\users\michel\desktop\source\gameserver\source\message.cpp
; File c:\program files (x86)\microsoft visual studio 14.0\vc\include\vector
; File c:\users\michel\desktop\source\gameserver\source\message.cpp
;	COMDAT ?Get@Message@@QAEPADH@Z
_TEXT	SEGMENT
$T1 = -64						; size = 4
_this$1$ = -60						; size = 4
_DefaultString$ = -56					; size = 50
__$ArrayPad$ = -4					; size = 4
_MessageCode$ = 8					; size = 4
?Get@Message@@QAEPADH@Z PROC				; Message::Get, COMDAT
; _this$ = ecx

; 59   : {

  00000	55		 push	 ebp
  00001	8b ec		 mov	 ebp, esp
  00003	83 ec 40	 sub	 esp, 64			; 00000040H
  00006	a1 00 00 00 00	 mov	 eax, DWORD PTR ___security_cookie
  0000b	33 c5		 xor	 eax, ebp
  0000d	89 45 fc	 mov	 DWORD PTR __$ArrayPad$[ebp], eax
  00010	53		 push	 ebx
  00011	56		 push	 esi
  00012	57		 push	 edi

; 61   : 	ZeroMemory(DefaultString, sizeof(DefaultString));

  00013	6a 32		 push	 50			; 00000032H
  00015	8d 45 c8	 lea	 eax, DWORD PTR _DefaultString$[ebp]
  00018	8b f1		 mov	 esi, ecx
  0001a	6a 00		 push	 0
  0001c	50		 push	 eax
  0001d	89 75 c4	 mov	 DWORD PTR _this$1$[ebp], esi
  00020	e8 00 00 00 00	 call	 _memset
; File c:\program files (x86)\microsoft visual studio 14.0\vc\include\vector

; 1179 : 		return (this->_Mylast() - this->_Myfirst());

  00025	8b 4e 08	 mov	 ecx, DWORD PTR [esi+8]
  00028	b8 81 3f e0 0f	 mov	 eax, 266354561		; 0fe03f81H
  0002d	2b 4e 04	 sub	 ecx, DWORD PTR [esi+4]
; File c:\users\michel\desktop\source\gameserver\source\message.cpp

; 61   : 	ZeroMemory(DefaultString, sizeof(DefaultString));

  00030	83 c4 0c	 add	 esp, 12			; 0000000cH

; 63   : 	for( int i = 0; i < this->m_MessageList.size(); i++ )

  00033	8b 5d 08	 mov	 ebx, DWORD PTR _MessageCode$[ebp]
  00036	33 ff		 xor	 edi, edi
; File c:\program files (x86)\microsoft visual studio 14.0\vc\include\vector

; 1179 : 		return (this->_Mylast() - this->_Myfirst());

  00038	f7 e9		 imul	 ecx
  0003a	c1 fa 04	 sar	 edx, 4
  0003d	8b c2		 mov	 eax, edx
  0003f	c1 e8 1f	 shr	 eax, 31			; 0000001fH
  00042	03 c2		 add	 eax, edx
; File c:\users\michel\desktop\source\gameserver\source\message.cpp

; 63   : 	for( int i = 0; i < this->m_MessageList.size(); i++ )

  00044	74 3f		 je	 SHORT $LN3@Get
; File c:\program files (x86)\microsoft visual studio 14.0\vc\include\vector

; 1240 : 		return (*(this->_Myfirst() + _Pos));

  00046	8b d6		 mov	 edx, esi
  00048	8b 42 04	 mov	 eax, DWORD PTR [edx+4]
; File c:\program files (x86)\microsoft visual studio 14.0\vc\include\xutility

; 314  : 		return (_Myval2);

  0004b	8b f0		 mov	 esi, eax
; File c:\program files (x86)\microsoft visual studio 14.0\vc\include\vector

; 1240 : 		return (*(this->_Myfirst() + _Pos));

  0004d	89 45 c0	 mov	 DWORD PTR $T1[ebp], eax
$LL4@Get:
; File c:\users\michel\desktop\source\gameserver\source\message.cpp

; 65   : 		if( MSGGET(this->m_MessageList[i].Category, this->m_MessageList[i].Index) == MessageCode )

  00050	0f b6 0e	 movzx	 ecx, BYTE PTR [esi]
  00053	0f b6 46 01	 movzx	 eax, BYTE PTR [esi+1]
  00057	c1 e1 08	 shl	 ecx, 8
  0005a	03 c8		 add	 ecx, eax
  0005c	3b cb		 cmp	 ecx, ebx
  0005e	74 6d		 je	 SHORT $LN62@Get
; File c:\program files (x86)\microsoft visual studio 14.0\vc\include\vector

; 1179 : 		return (this->_Mylast() - this->_Myfirst());

  00060	8b 4a 08	 mov	 ecx, DWORD PTR [edx+8]
  00063	b8 81 3f e0 0f	 mov	 eax, 266354561		; 0fe03f81H
  00068	2b 4a 04	 sub	 ecx, DWORD PTR [edx+4]
; File c:\users\michel\desktop\source\gameserver\source\message.cpp

; 63   : 	for( int i = 0; i < this->m_MessageList.size(); i++ )

  0006b	47		 inc	 edi
; File c:\program files (x86)\microsoft visual studio 14.0\vc\include\vector

; 1179 : 		return (this->_Mylast() - this->_Myfirst());

  0006c	f7 e9		 imul	 ecx
; File c:\users\michel\desktop\source\gameserver\source\message.cpp

; 63   : 	for( int i = 0; i < this->m_MessageList.size(); i++ )

  0006e	81 c6 02 01 00
	00		 add	 esi, 258		; 00000102H
; File c:\program files (x86)\microsoft visual studio 14.0\vc\include\vector

; 1179 : 		return (this->_Mylast() - this->_Myfirst());

  00074	c1 fa 04	 sar	 edx, 4
  00077	8b c2		 mov	 eax, edx
  00079	c1 e8 1f	 shr	 eax, 31			; 0000001fH
  0007c	03 c2		 add	 eax, edx
; File c:\users\michel\desktop\source\gameserver\source\message.cpp

; 63   : 	for( int i = 0; i < this->m_MessageList.size(); i++ )

  0007e	8b 55 c4	 mov	 edx, DWORD PTR _this$1$[ebp]
  00081	3b f8		 cmp	 edi, eax
  00083	72 cb		 jb	 SHORT $LL4@Get
$LN3@Get:

; 68   : 		}
; 69   : 	}
; 70   : 	// ----
; 71   : 	sprintf(DefaultString, "MsgError: %d (%d-%d)", MessageCode, MessageCode / 256, MessageCode % 256);

  00085	8b c3		 mov	 eax, ebx
  00087	25 ff 00 00 80	 and	 eax, -2147483393	; 800000ffH
  0008c	79 07		 jns	 SHORT $LN66@Get
  0008e	48		 dec	 eax
  0008f	0d 00 ff ff ff	 or	 eax, -256		; ffffff00H
  00094	40		 inc	 eax
$LN66@Get:
  00095	50		 push	 eax
  00096	8b c3		 mov	 eax, ebx
  00098	99		 cdq
  00099	81 e2 ff 00 00
	00		 and	 edx, 255		; 000000ffH
  0009f	03 c2		 add	 eax, edx
  000a1	c1 f8 08	 sar	 eax, 8
  000a4	50		 push	 eax
  000a5	53		 push	 ebx
  000a6	8d 45 c8	 lea	 eax, DWORD PTR _DefaultString$[ebp]
  000a9	68 00 00 00 00	 push	 OFFSET ??_C@_0BF@BOLOJHL@MsgError?3?5?$CFd?5?$CI?$CFd?9?$CFd?$CJ?$AA@
  000ae	50		 push	 eax
  000af	e8 00 00 00 00	 call	 _sprintf
  000b4	83 c4 14	 add	 esp, 20			; 00000014H

; 72   : 	return &DefaultString[0];

  000b7	8d 45 c8	 lea	 eax, DWORD PTR _DefaultString$[ebp]
  000ba	5f		 pop	 edi
  000bb	5e		 pop	 esi
  000bc	5b		 pop	 ebx

; 73   : }

  000bd	8b 4d fc	 mov	 ecx, DWORD PTR __$ArrayPad$[ebp]
  000c0	33 cd		 xor	 ecx, ebp
  000c2	e8 00 00 00 00	 call	 @__security_check_cookie@4
  000c7	8b e5		 mov	 esp, ebp
  000c9	5d		 pop	 ebp
  000ca	c2 04 00	 ret	 4
$LN62@Get:

; 67   : 			return &this->m_MessageList[i].Message[0];

  000cd	8b 4d c0	 mov	 ecx, DWORD PTR $T1[ebp]
; File c:\program files (x86)\microsoft visual studio 14.0\vc\include\vector

; 1240 : 		return (*(this->_Myfirst() + _Pos));

  000d0	69 c7 02 01 00
	00		 imul	 eax, edi, 258
; File c:\users\michel\desktop\source\gameserver\source\message.cpp

; 67   : 			return &this->m_MessageList[i].Message[0];

  000d6	83 c1 02	 add	 ecx, 2
  000d9	5f		 pop	 edi
  000da	5e		 pop	 esi
  000db	5b		 pop	 ebx
  000dc	03 c1		 add	 eax, ecx

; 73   : }

  000de	8b 4d fc	 mov	 ecx, DWORD PTR __$ArrayPad$[ebp]
  000e1	33 cd		 xor	 ecx, ebp
  000e3	e8 00 00 00 00	 call	 @__security_check_cookie@4
  000e8	8b e5		 mov	 esp, ebp
  000ea	5d		 pop	 ebp
  000eb	c2 04 00	 ret	 4
?Get@Message@@QAEPADH@Z ENDP				; Message::Get
_TEXT	ENDS
; Function compile flags: /Ogtp
; File c:\users\michel\desktop\source\gameserver\source\message.cpp
; File c:\program files (x86)\microsoft visual studio 14.0\vc\include\vector
; File c:\program files (x86)\microsoft visual studio 14.0\vc\include\xmemory0
; File c:\program files (x86)\microsoft visual studio 14.0\vc\include\vector
; File c:\program files (x86)\microsoft visual studio 14.0\vc\include\xmemory0
; File c:\program files (x86)\microsoft visual studio 14.0\vc\include\vector
; File c:\program files (x86)\microsoft visual studio 14.0\vc\include\xmemory0
; File c:\program files (x86)\microsoft visual studio 14.0\vc\include\vector
; File c:\users\michel\desktop\source\gameserver\source\message.cpp
;	COMDAT ?Read@Message@@QAEXPAD@Z
_TEXT	SEGMENT
_Result$ = -524						; size = 12
$T2 = -512						; size = 4
$T3 = -508						; size = 4
$T4 = -504						; size = 4
$T5 = -500						; size = 4
$T6 = -496						; size = 4
_this$GSCopy$1$ = -492					; size = 4
_Translation$ = -488					; size = 4
_Category$7 = -484					; size = 4
_Message$8 = -480					; size = 4
_Document$ = -476					; size = 200
_lpMessage$9 = -276					; size = 258
__$ArrayPad$ = -16					; size = 4
__$EHRec$ = -12						; size = 12
_File$ = 8						; size = 4
?Read@Message@@QAEXPAD@Z PROC				; Message::Read, COMDAT
; _this$ = ecx

; 33   : {

  00000	55		 push	 ebp
  00001	8b ec		 mov	 ebp, esp
  00003	6a ff		 push	 -1
  00005	68 00 00 00 00	 push	 __ehhandler$?Read@Message@@QAEXPAD@Z
  0000a	64 a1 00 00 00
	00		 mov	 eax, DWORD PTR fs:0
  00010	50		 push	 eax
  00011	81 ec 00 02 00
	00		 sub	 esp, 512		; 00000200H
  00017	a1 00 00 00 00	 mov	 eax, DWORD PTR ___security_cookie
  0001c	33 c5		 xor	 eax, ebp
  0001e	89 45 f0	 mov	 DWORD PTR __$ArrayPad$[ebp], eax
  00021	53		 push	 ebx
  00022	56		 push	 esi
  00023	57		 push	 edi
  00024	50		 push	 eax
  00025	8d 45 f4	 lea	 eax, DWORD PTR __$EHRec$[ebp]
  00028	64 a3 00 00 00
	00		 mov	 DWORD PTR fs:0, eax
  0002e	8b d9		 mov	 ebx, ecx
  00030	89 9d 14 fe ff
	ff		 mov	 DWORD PTR _this$GSCopy$1$[ebp], ebx
  00036	8b 75 08	 mov	 esi, DWORD PTR _File$[ebp]

; 34   : 	xml_document Document;

  00039	8d 8d 24 fe ff
	ff		 lea	 ecx, DWORD PTR _Document$[ebp]
  0003f	e8 00 00 00 00	 call	 ??0xml_document@pugi@@QAE@XZ ; pugi::xml_document::xml_document

; 35   : 	xml_parse_result Result = Document.load_file(File);

  00044	6a 00		 push	 0
  00046	6a 74		 push	 116			; 00000074H
  00048	56		 push	 esi
  00049	8d 85 f4 fd ff
	ff		 lea	 eax, DWORD PTR _Result$[ebp]
  0004f	c7 45 fc 00 00
	00 00		 mov	 DWORD PTR __$EHRec$[ebp+8], 0
  00056	50		 push	 eax
  00057	8d 8d 24 fe ff
	ff		 lea	 ecx, DWORD PTR _Document$[ebp]
  0005d	e8 00 00 00 00	 call	 ?load_file@xml_document@pugi@@QAE?AUxml_parse_result@2@PBDIW4xml_encoding@2@@Z ; pugi::xml_document::load_file

; 36   : 	// ----
; 37   : 	if( Result.status != status_ok )

  00062	83 bd f4 fd ff
	ff 00		 cmp	 DWORD PTR _Result$[ebp], 0
  00069	74 13		 je	 SHORT $LN8@Read

; 38   : 	{
; 39   : 		MsgBox("[Message] Loading fail [%s]", File);

  0006b	56		 push	 esi
  0006c	68 00 00 00 00	 push	 OFFSET ??_C@_0BM@LEEFLJKE@?$FLMessage?$FN?5Loading?5fail?5?$FL?$CFs?$FN?$AA@
  00071	e8 00 00 00 00	 call	 ?MsgBox@@YAXPADZZ	; MsgBox
  00076	83 c4 08	 add	 esp, 8
  00079	e9 cd 01 00 00	 jmp	 $LN3@Read
$LN8@Read:

; 40   : 		return;
; 41   : 	}
; 42   : 	// ----
; 43   : 	xml_node Translation = Document.child("translation");

  0007e	68 00 00 00 00	 push	 OFFSET ??_C@_0M@PAEEAFPO@translation?$AA@
  00083	8d 85 18 fe ff
	ff		 lea	 eax, DWORD PTR _Translation$[ebp]
  00089	50		 push	 eax
  0008a	8d 8d 24 fe ff
	ff		 lea	 ecx, DWORD PTR _Document$[ebp]
  00090	e8 00 00 00 00	 call	 ?child@xml_node@pugi@@QBE?AV12@PBD@Z ; pugi::xml_node::child

; 44   : 	// ----
; 45   : 	for( xml_node Category = Translation.child("category"); Category; Category = Category.next_sibling() )

  00095	68 00 00 00 00	 push	 OFFSET ??_C@_08MBJIKOEN@category?$AA@
  0009a	8d 85 1c fe ff
	ff		 lea	 eax, DWORD PTR _Category$7[ebp]
  000a0	50		 push	 eax
  000a1	8d 8d 18 fe ff
	ff		 lea	 ecx, DWORD PTR _Translation$[ebp]
  000a7	e8 00 00 00 00	 call	 ?child@xml_node@pugi@@QBE?AV12@PBD@Z ; pugi::xml_node::child
  000ac	8d 8d 1c fe ff
	ff		 lea	 ecx, DWORD PTR _Category$7[ebp]
  000b2	e8 00 00 00 00	 call	 ??Bxml_node@pugi@@QBEP6AXPAPAPAV01@@ZXZ ; pugi::xml_node::operator void (__cdecl*)(pugi::xml_node * * *)
  000b7	85 c0		 test	 eax, eax
  000b9	0f 84 8c 01 00
	00		 je	 $LN3@Read
  000bf	90		 npad	 1
$LL4@Read:

; 47   : 		for( xml_node Message = Category.child("message"); Message; Message = Message.next_sibling() )

  000c0	68 00 00 00 00	 push	 OFFSET ??_C@_07ONPBMBOP@message?$AA@
  000c5	8d 85 20 fe ff
	ff		 lea	 eax, DWORD PTR _Message$8[ebp]
  000cb	50		 push	 eax
  000cc	8d 8d 1c fe ff
	ff		 lea	 ecx, DWORD PTR _Category$7[ebp]
  000d2	e8 00 00 00 00	 call	 ?child@xml_node@pugi@@QBE?AV12@PBD@Z ; pugi::xml_node::child
  000d7	8d 8d 20 fe ff
	ff		 lea	 ecx, DWORD PTR _Message$8[ebp]
  000dd	e8 00 00 00 00	 call	 ??Bxml_node@pugi@@QBEP6AXPAPAPAV01@@ZXZ ; pugi::xml_node::operator void (__cdecl*)(pugi::xml_node * * *)
  000e2	85 c0		 test	 eax, eax
  000e4	0f 84 34 01 00
	00		 je	 $LN2@Read
  000ea	66 0f 1f 44 00
	00		 npad	 6
$LL7@Read:

; 48   : 		{
; 49   : 			MessageBody lpMessage;
; 50   : 			lpMessage.Category = Category.attribute("id").as_int();

  000f0	6a 00		 push	 0
  000f2	68 00 00 00 00	 push	 OFFSET ??_C@_02EGCJHIOB@id?$AA@
  000f7	8d 85 10 fe ff
	ff		 lea	 eax, DWORD PTR $T6[ebp]
  000fd	50		 push	 eax
  000fe	8d 8d 1c fe ff
	ff		 lea	 ecx, DWORD PTR _Category$7[ebp]
  00104	e8 00 00 00 00	 call	 ?attribute@xml_node@pugi@@QBE?AVxml_attribute@2@PBD@Z ; pugi::xml_node::attribute
  00109	8b c8		 mov	 ecx, eax
  0010b	e8 00 00 00 00	 call	 ?as_int@xml_attribute@pugi@@QBEHH@Z ; pugi::xml_attribute::as_int

; 51   : 			lpMessage.Index = Message.attribute("index").as_int();

  00110	6a 00		 push	 0
  00112	88 85 ec fe ff
	ff		 mov	 BYTE PTR _lpMessage$9[ebp], al
  00118	8d 8d 20 fe ff
	ff		 lea	 ecx, DWORD PTR _Message$8[ebp]
  0011e	68 00 00 00 00	 push	 OFFSET ??_C@_05FKHKFDID@index?$AA@
  00123	8d 85 0c fe ff
	ff		 lea	 eax, DWORD PTR $T5[ebp]
  00129	50		 push	 eax
  0012a	e8 00 00 00 00	 call	 ?attribute@xml_node@pugi@@QBE?AVxml_attribute@2@PBD@Z ; pugi::xml_node::attribute
  0012f	8b c8		 mov	 ecx, eax
  00131	e8 00 00 00 00	 call	 ?as_int@xml_attribute@pugi@@QBEHH@Z ; pugi::xml_attribute::as_int
  00136	88 85 ed fe ff
	ff		 mov	 BYTE PTR _lpMessage$9[ebp+1], al

; 52   : 			strcpy(lpMessage.Message, Message.text().as_string());

  0013c	8d 8d 20 fe ff
	ff		 lea	 ecx, DWORD PTR _Message$8[ebp]
  00142	68 00 00 00 00	 push	 OFFSET ??_C@_00CNPNBAHC@?$AA@
  00147	8d 85 08 fe ff
	ff		 lea	 eax, DWORD PTR $T4[ebp]
  0014d	50		 push	 eax
  0014e	e8 00 00 00 00	 call	 ?text@xml_node@pugi@@QBE?AVxml_text@2@XZ ; pugi::xml_node::text
  00153	8b c8		 mov	 ecx, eax
  00155	e8 00 00 00 00	 call	 ?as_string@xml_text@pugi@@QBEPBDPBD@Z ; pugi::xml_text::as_string
  0015a	8d 95 ee fe ff
	ff		 lea	 edx, DWORD PTR _lpMessage$9[ebp+2]
  00160	2b d0		 sub	 edx, eax
$LL10@Read:
  00162	8a 08		 mov	 cl, BYTE PTR [eax]
  00164	8d 40 01	 lea	 eax, DWORD PTR [eax+1]
  00167	88 4c 02 ff	 mov	 BYTE PTR [edx+eax-1], cl
  0016b	84 c9		 test	 cl, cl
  0016d	75 f3		 jne	 SHORT $LL10@Read
; File c:\program files (x86)\microsoft visual studio 14.0\vc\include\vector

; 1616 : 		return (_Ptr < this->_Mylast() && this->_Myfirst() <= _Ptr);

  0016f	8b 73 08	 mov	 esi, DWORD PTR [ebx+8]
  00172	8d 85 ec fe ff
	ff		 lea	 eax, DWORD PTR _lpMessage$9[ebp]
  00178	3b c6		 cmp	 eax, esi
  0017a	73 43		 jae	 SHORT $LN14@Read
  0017c	8b 43 04	 mov	 eax, DWORD PTR [ebx+4]
  0017f	8d 8d ec fe ff
	ff		 lea	 ecx, DWORD PTR _lpMessage$9[ebp]
  00185	3b c1		 cmp	 eax, ecx
  00187	77 36		 ja	 SHORT $LN14@Read

; 1277 : 			size_type _Idx = _STD addressof(_Val) - this->_Myfirst();

  00189	2b c8		 sub	 ecx, eax
  0018b	b8 81 3f e0 0f	 mov	 eax, 266354561		; 0fe03f81H
  00190	f7 e9		 imul	 ecx
  00192	c1 fa 04	 sar	 edx, 4
  00195	8b fa		 mov	 edi, edx
  00197	c1 ef 1f	 shr	 edi, 31			; 0000001fH
  0019a	03 fa		 add	 edi, edx

; 1278 : 			if (this->_Mylast() == this->_Myend())

  0019c	3b 73 0c	 cmp	 esi, DWORD PTR [ebx+12]
  0019f	75 0a		 jne	 SHORT $LN16@Read

; 1279 : 				_Reserve(1);

  001a1	6a 01		 push	 1
  001a3	8d 4b 04	 lea	 ecx, DWORD PTR [ebx+4]
  001a6	e8 00 00 00 00	 call	 ?_Reserve@?$vector@UMessageBody@@V?$allocator@UMessageBody@@@std@@@std@@IAEXI@Z ; std::vector<MessageBody,std::allocator<MessageBody> >::_Reserve
$LN16@Read:
; File c:\program files (x86)\microsoft visual studio 14.0\vc\include\xmemory0

; 655  : 		::new ((void *)_Ptr) _Objty(_STD forward<_Types>(_Args)...);

  001ab	8b 43 08	 mov	 eax, DWORD PTR [ebx+8]
  001ae	85 c0		 test	 eax, eax
  001b0	74 32		 je	 SHORT $LN217@Read
; File c:\program files (x86)\microsoft visual studio 14.0\vc\include\vector

; 1281 : 			this->_Getal().construct(this->_Mylast(),

  001b2	69 f7 02 01 00
	00		 imul	 esi, edi, 258
; File c:\program files (x86)\microsoft visual studio 14.0\vc\include\xmemory0

; 655  : 		::new ((void *)_Ptr) _Objty(_STD forward<_Types>(_Args)...);

  001b8	8b f8		 mov	 edi, eax
; File c:\program files (x86)\microsoft visual studio 14.0\vc\include\vector

; 1281 : 			this->_Getal().construct(this->_Mylast(),

  001ba	03 73 04	 add	 esi, DWORD PTR [ebx+4]

; 1282 : 				this->_Myfirst()[_Idx]);
; 1283 : 			++this->_Mylast();
; 1284 : 			}
; 1285 : 		else

  001bd	eb 1c		 jmp	 SHORT $LN246@Read
$LN14@Read:

; 1286 : 			{	// push back a non-element
; 1287 : 			if (this->_Mylast() == this->_Myend())

  001bf	3b 73 0c	 cmp	 esi, DWORD PTR [ebx+12]
  001c2	75 0a		 jne	 SHORT $LN17@Read

; 1288 : 				_Reserve(1);

  001c4	6a 01		 push	 1
  001c6	8d 4b 04	 lea	 ecx, DWORD PTR [ebx+4]
  001c9	e8 00 00 00 00	 call	 ?_Reserve@?$vector@UMessageBody@@V?$allocator@UMessageBody@@@std@@@std@@IAEXI@Z ; std::vector<MessageBody,std::allocator<MessageBody> >::_Reserve
$LN17@Read:
; File c:\program files (x86)\microsoft visual studio 14.0\vc\include\xmemory0

; 655  : 		::new ((void *)_Ptr) _Objty(_STD forward<_Types>(_Args)...);

  001ce	8b 7b 08	 mov	 edi, DWORD PTR [ebx+8]
  001d1	85 ff		 test	 edi, edi
  001d3	74 0f		 je	 SHORT $LN217@Read
  001d5	8d b5 ec fe ff
	ff		 lea	 esi, DWORD PTR _lpMessage$9[ebp]
$LN246@Read:
  001db	b9 40 00 00 00	 mov	 ecx, 64			; 00000040H
  001e0	f3 a5		 rep movsd
  001e2	66 a5		 movsw
$LN217@Read:
; File c:\program files (x86)\microsoft visual studio 14.0\vc\include\vector

; 1292 : 			++this->_Mylast();

  001e4	81 43 08 02 01
	00 00		 add	 DWORD PTR [ebx+8], 258	; 00000102H
; File c:\users\michel\desktop\source\gameserver\source\message.cpp

; 47   : 		for( xml_node Message = Category.child("message"); Message; Message = Message.next_sibling() )

  001eb	8d 85 04 fe ff
	ff		 lea	 eax, DWORD PTR $T3[ebp]
  001f1	50		 push	 eax
  001f2	8d 8d 20 fe ff
	ff		 lea	 ecx, DWORD PTR _Message$8[ebp]
  001f8	e8 00 00 00 00	 call	 ?next_sibling@xml_node@pugi@@QBE?AV12@XZ ; pugi::xml_node::next_sibling
  001fd	8d 8d 20 fe ff
	ff		 lea	 ecx, DWORD PTR _Message$8[ebp]
  00203	8b 00		 mov	 eax, DWORD PTR [eax]
  00205	89 85 20 fe ff
	ff		 mov	 DWORD PTR _Message$8[ebp], eax
  0020b	e8 00 00 00 00	 call	 ??Bxml_node@pugi@@QBEP6AXPAPAPAV01@@ZXZ ; pugi::xml_node::operator void (__cdecl*)(pugi::xml_node * * *)
  00210	85 c0		 test	 eax, eax
  00212	0f 85 d8 fe ff
	ff		 jne	 $LL7@Read
  00218	8b 9d 14 fe ff
	ff		 mov	 ebx, DWORD PTR _this$GSCopy$1$[ebp]
$LN2@Read:

; 44   : 	// ----
; 45   : 	for( xml_node Category = Translation.child("category"); Category; Category = Category.next_sibling() )

  0021e	8d 85 00 fe ff
	ff		 lea	 eax, DWORD PTR $T2[ebp]
  00224	50		 push	 eax
  00225	8d 8d 1c fe ff
	ff		 lea	 ecx, DWORD PTR _Category$7[ebp]
  0022b	e8 00 00 00 00	 call	 ?next_sibling@xml_node@pugi@@QBE?AV12@XZ ; pugi::xml_node::next_sibling
  00230	8d 8d 1c fe ff
	ff		 lea	 ecx, DWORD PTR _Category$7[ebp]
  00236	8b 00		 mov	 eax, DWORD PTR [eax]
  00238	89 85 1c fe ff
	ff		 mov	 DWORD PTR _Category$7[ebp], eax
  0023e	e8 00 00 00 00	 call	 ??Bxml_node@pugi@@QBEP6AXPAPAPAV01@@ZXZ ; pugi::xml_node::operator void (__cdecl*)(pugi::xml_node * * *)
  00243	85 c0		 test	 eax, eax
  00245	0f 85 75 fe ff
	ff		 jne	 $LL4@Read
$LN3@Read:

; 53   : 			this->m_MessageList.push_back(lpMessage);
; 54   : 		}
; 55   : 	}
; 56   : }

  0024b	8d 8d 24 fe ff
	ff		 lea	 ecx, DWORD PTR _Document$[ebp]
  00251	e8 00 00 00 00	 call	 ??1xml_document@pugi@@QAE@XZ ; pugi::xml_document::~xml_document
  00256	8b 4d f4	 mov	 ecx, DWORD PTR __$EHRec$[ebp]
  00259	64 89 0d 00 00
	00 00		 mov	 DWORD PTR fs:0, ecx
  00260	59		 pop	 ecx
  00261	5f		 pop	 edi
  00262	5e		 pop	 esi
  00263	5b		 pop	 ebx
  00264	8b 4d f0	 mov	 ecx, DWORD PTR __$ArrayPad$[ebp]
  00267	33 cd		 xor	 ecx, ebp
  00269	e8 00 00 00 00	 call	 @__security_check_cookie@4
  0026e	8b e5		 mov	 esp, ebp
  00270	5d		 pop	 ebp
  00271	c2 04 00	 ret	 4
_TEXT	ENDS
;	COMDAT text$x
text$x	SEGMENT
__unwindfunclet$?Read@Message@@QAEXPAD@Z$0:
  00000	8d 8d 24 fe ff
	ff		 lea	 ecx, DWORD PTR _Document$[ebp]
  00006	e9 00 00 00 00	 jmp	 ??1xml_document@pugi@@QAE@XZ ; pugi::xml_document::~xml_document
__ehhandler$?Read@Message@@QAEXPAD@Z:
  0000b	8b 54 24 08	 mov	 edx, DWORD PTR [esp+8]
  0000f	8d 42 0c	 lea	 eax, DWORD PTR [edx+12]
  00012	8b 8a f0 fd ff
	ff		 mov	 ecx, DWORD PTR [edx-528]
  00018	33 c8		 xor	 ecx, eax
  0001a	e8 00 00 00 00	 call	 @__security_check_cookie@4
  0001f	8b 4a fc	 mov	 ecx, DWORD PTR [edx-4]
  00022	33 c8		 xor	 ecx, eax
  00024	e8 00 00 00 00	 call	 @__security_check_cookie@4
  00029	b8 00 00 00 00	 mov	 eax, OFFSET __ehfuncinfo$?Read@Message@@QAEXPAD@Z
  0002e	e9 00 00 00 00	 jmp	 ___CxxFrameHandler3
text$x	ENDS
?Read@Message@@QAEXPAD@Z ENDP				; Message::Read
; Function compile flags: /Ogtp
; File c:\users\michel\desktop\source\gameserver\source\message.cpp
;	COMDAT ?Load@Message@@QAEXXZ
_TEXT	SEGMENT
?Load@Message@@QAEXXZ PROC				; Message::Load, COMDAT
; _this$ = ecx

; 27   : {

  00000	56		 push	 esi
  00001	8b f1		 mov	 esi, ecx

; 28   : 	this->Init();

  00003	e8 00 00 00 00	 call	 ?Init@Message@@QAEXXZ	; Message::Init

; 29   : 	this->Read(gDirPath.GetNewPath(FILE_MESSAGELIST));

  00008	68 00 00 00 00	 push	 OFFSET ??_C@_0M@IMGBFNBG@Message?4xml?$AA@
  0000d	b9 00 00 00 00	 mov	 ecx, OFFSET ?gDirPath@@3VCDirPath@@A ; gDirPath
  00012	e8 00 00 00 00	 call	 ?GetNewPath@CDirPath@@QAEPADPAD@Z ; CDirPath::GetNewPath
  00017	50		 push	 eax
  00018	8b ce		 mov	 ecx, esi
  0001a	e8 00 00 00 00	 call	 ?Read@Message@@QAEXPAD@Z ; Message::Read
  0001f	5e		 pop	 esi

; 30   : }

  00020	c3		 ret	 0
?Load@Message@@QAEXXZ ENDP				; Message::Load
_TEXT	ENDS
; Function compile flags: /Ogtp
; File c:\users\michel\desktop\source\gameserver\source\message.cpp
; File c:\program files (x86)\microsoft visual studio 14.0\vc\include\vector
; File c:\users\michel\desktop\source\gameserver\source\message.cpp
;	COMDAT ?Init@Message@@QAEXXZ
_TEXT	SEGMENT
?Init@Message@@QAEXXZ PROC				; Message::Init, COMDAT
; _this$ = ecx
; File c:\program files (x86)\microsoft visual studio 14.0\vc\include\vector

; 1542 : 		this->_Mylast() = this->_Myfirst();

  00000	8b 41 04	 mov	 eax, DWORD PTR [ecx+4]
  00003	89 41 08	 mov	 DWORD PTR [ecx+8], eax
; File c:\users\michel\desktop\source\gameserver\source\message.cpp

; 24   : }

  00006	c3		 ret	 0
?Init@Message@@QAEXXZ ENDP				; Message::Init
_TEXT	ENDS
; Function compile flags: /Ogtp
; File c:\users\michel\desktop\source\gameserver\source\message.cpp
; File c:\program files (x86)\microsoft visual studio 14.0\vc\include\vector
; File c:\program files (x86)\microsoft visual studio 14.0\vc\include\xmemory0
; File c:\program files (x86)\microsoft visual studio 14.0\vc\include\vector
; File c:\program files (x86)\microsoft visual studio 14.0\vc\include\xmemory0
; File c:\program files (x86)\microsoft visual studio 14.0\vc\include\vector
; File c:\users\michel\desktop\source\gameserver\source\message.cpp
;	COMDAT ??1Message@@UAE@XZ
_TEXT	SEGMENT
??1Message@@UAE@XZ PROC					; Message::~Message, COMDAT
; _this$ = ecx

; 17   : {

  00000	56		 push	 esi

; 19   : }

  00001	8d 71 04	 lea	 esi, DWORD PTR [ecx+4]
  00004	c7 01 00 00 00
	00		 mov	 DWORD PTR [ecx], OFFSET ??_7Message@@6B@
  0000a	57		 push	 edi
; File c:\program files (x86)\microsoft visual studio 14.0\vc\include\vector

; 1656 : 		if (this->_Myfirst() != pointer())

  0000b	8b 3e		 mov	 edi, DWORD PTR [esi]
  0000d	85 ff		 test	 edi, edi
  0000f	74 33		 je	 SHORT $LN7@Message

; 1660 : 			this->_Getal().deallocate(this->_Myfirst(),

  00011	8b 4e 08	 mov	 ecx, DWORD PTR [esi+8]
  00014	b8 81 3f e0 0f	 mov	 eax, 266354561		; 0fe03f81H
  00019	2b cf		 sub	 ecx, edi
  0001b	f7 e9		 imul	 ecx
; File c:\program files (x86)\microsoft visual studio 14.0\vc\include\xmemory0

; 909  : 		_Mybase::deallocate(_Ptr, _Count);

  0001d	8b ce		 mov	 ecx, esi
; File c:\program files (x86)\microsoft visual studio 14.0\vc\include\vector

; 1660 : 			this->_Getal().deallocate(this->_Myfirst(),

  0001f	c1 fa 04	 sar	 edx, 4
  00022	8b c2		 mov	 eax, edx
  00024	c1 e8 1f	 shr	 eax, 31			; 0000001fH
  00027	03 c2		 add	 eax, edx
; File c:\program files (x86)\microsoft visual studio 14.0\vc\include\xmemory0

; 909  : 		_Mybase::deallocate(_Ptr, _Count);

  00029	50		 push	 eax
  0002a	57		 push	 edi
  0002b	e8 00 00 00 00	 call	 ?deallocate@?$allocator@UMessageBody@@@std@@QAEXPAUMessageBody@@I@Z ; std::allocator<MessageBody>::deallocate
; File c:\program files (x86)\microsoft visual studio 14.0\vc\include\vector

; 1662 : 			this->_Myfirst() = pointer();

  00030	c7 06 00 00 00
	00		 mov	 DWORD PTR [esi], 0

; 1663 : 			this->_Mylast() = pointer();

  00036	c7 46 04 00 00
	00 00		 mov	 DWORD PTR [esi+4], 0

; 1664 : 			this->_Myend() = pointer();

  0003d	c7 46 08 00 00
	00 00		 mov	 DWORD PTR [esi+8], 0
$LN7@Message:
  00044	5f		 pop	 edi
  00045	5e		 pop	 esi
; File c:\users\michel\desktop\source\gameserver\source\message.cpp

; 19   : }

  00046	c3		 ret	 0
??1Message@@UAE@XZ ENDP					; Message::~Message
_TEXT	ENDS
; Function compile flags: /Ogtp
; File c:\users\michel\desktop\source\gameserver\source\message.cpp
; File c:\program files (x86)\microsoft visual studio 14.0\vc\include\vector
; File c:\users\michel\desktop\source\gameserver\source\message.cpp
;	COMDAT ??0Message@@QAE@XZ
_TEXT	SEGMENT
_this$ = -4						; size = 4
??0Message@@QAE@XZ PROC					; Message::Message, COMDAT
; _this$ = ecx

; 12   : {

  00000	55		 push	 ebp
  00001	8b ec		 mov	 ebp, esp
  00003	51		 push	 ecx
  00004	c7 01 00 00 00
	00		 mov	 DWORD PTR [ecx], OFFSET ??_7Message@@6B@

; 14   : }

  0000a	8b c1		 mov	 eax, ecx
  0000c	89 4d fc	 mov	 DWORD PTR _this$[ebp], ecx
; File c:\program files (x86)\microsoft visual studio 14.0\vc\include\vector

; 480  : 		_Myfirst = pointer();

  0000f	c7 41 04 00 00
	00 00		 mov	 DWORD PTR [ecx+4], 0

; 481  : 		_Mylast = pointer();

  00016	c7 41 08 00 00
	00 00		 mov	 DWORD PTR [ecx+8], 0

; 482  : 		_Myend = pointer();

  0001d	c7 41 0c 00 00
	00 00		 mov	 DWORD PTR [ecx+12], 0
; File c:\users\michel\desktop\source\gameserver\source\message.cpp

; 14   : }

  00024	8b e5		 mov	 esp, ebp
  00026	5d		 pop	 ebp
  00027	c3		 ret	 0
??0Message@@QAE@XZ ENDP					; Message::Message
_TEXT	ENDS
; Function compile flags: /Ogtp
; File c:\program files (x86)\microsoft visual studio 14.0\vc\include\xmemory0
;	COMDAT ?_Deallocate@std@@YAXPAXII@Z
_TEXT	SEGMENT
__Ptr$ = 8						; size = 4
__Count$ = 12						; size = 4
__Sz$ = 16						; size = 4
?_Deallocate@std@@YAXPAXII@Z PROC			; std::_Deallocate, COMDAT

; 98   : 	{	// deallocate storage for _Count elements of size _Sz

  00000	55		 push	 ebp
  00001	8b ec		 mov	 ebp, esp

; 99   :  #if defined(_M_IX86) || defined(_M_X64)
; 100  : 	_SCL_SECURE_ALWAYS_VALIDATE(_Count <= (size_t)(-1) / _Sz);

  00003	83 c8 ff	 or	 eax, -1
  00006	8b 4d 0c	 mov	 ecx, DWORD PTR __Count$[ebp]
  00009	33 d2		 xor	 edx, edx
  0000b	f7 75 10	 div	 DWORD PTR __Sz$[ebp]
  0000e	3b c8		 cmp	 ecx, eax
  00010	0f 87 00 00 00
	00		 ja	 __invalid_parameter_noinfo_noreturn

; 101  : 	const size_t _User_size = _Count * _Sz;

  00016	0f af 4d 10	 imul	 ecx, DWORD PTR __Sz$[ebp]

; 102  : 	if (_BIG_ALLOCATION_THRESHOLD <= _User_size)

  0001a	81 f9 00 10 00
	00		 cmp	 ecx, 4096		; 00001000H
  00020	72 2b		 jb	 SHORT $LN9@Deallocate

; 103  : 		{	// deallocate large block
; 104  : 		const uintptr_t _Ptr_user = reinterpret_cast<uintptr_t>(_Ptr);
; 105  : 		_SCL_SECURE_ALWAYS_VALIDATE(

  00022	8b 45 08	 mov	 eax, DWORD PTR __Ptr$[ebp]
  00025	a8 1f		 test	 al, 31			; 0000001fH
  00027	0f 85 00 00 00
	00		 jne	 __invalid_parameter_noinfo_noreturn

; 106  : 			(_Ptr_user & (_BIG_ALLOCATION_ALIGNMENT - 1)) == 0);
; 107  : 		const uintptr_t _Ptr_ptr = _Ptr_user - sizeof(void *);
; 108  : 		const uintptr_t _Ptr_container =
; 109  : 			*reinterpret_cast<uintptr_t *>(_Ptr_ptr);

  0002d	8b 48 fc	 mov	 ecx, DWORD PTR [eax-4]

; 110  : 
; 111  :  #ifdef _DEBUG
; 112  : 		// If the following asserts, it likely means that we are performing
; 113  : 		// an aligned delete on memory coming from an unaligned allocation.
; 114  : 		_SCL_SECURE_ALWAYS_VALIDATE(
; 115  : 			reinterpret_cast<uintptr_t *>(_Ptr_ptr)[-1] ==
; 116  : 				_BIG_ALLOCATION_SENTINEL);
; 117  :  #endif /* _DEBUG */
; 118  : 
; 119  : 		// Extra paranoia on aligned allocation/deallocation
; 120  : 		_SCL_SECURE_ALWAYS_VALIDATE(_Ptr_container < _Ptr_user);

  00030	3b c8		 cmp	 ecx, eax
  00032	0f 83 00 00 00
	00		 jae	 __invalid_parameter_noinfo_noreturn

; 121  : 
; 122  :  #ifdef _DEBUG
; 123  : 		_SCL_SECURE_ALWAYS_VALIDATE(2 * sizeof(void *)
; 124  : 			<= _Ptr_user - _Ptr_container);
; 125  : 
; 126  :  #else /* _DEBUG */
; 127  : 		_SCL_SECURE_ALWAYS_VALIDATE(sizeof(void *)

  00038	2b c1		 sub	 eax, ecx
  0003a	83 f8 04	 cmp	 eax, 4
  0003d	0f 82 00 00 00
	00		 jb	 __invalid_parameter_noinfo_noreturn

; 128  : 			<= _Ptr_user - _Ptr_container);
; 129  :  #endif /* _DEBUG */
; 130  : 
; 131  : 		_SCL_SECURE_ALWAYS_VALIDATE(_Ptr_user - _Ptr_container

  00043	83 f8 23	 cmp	 eax, 35			; 00000023H
  00046	76 08		 jbe	 SHORT $LN3@Deallocate
  00048	e9 00 00 00 00	 jmp	 __invalid_parameter_noinfo_noreturn
$LN9@Deallocate:

; 132  : 			<= _NON_USER_SIZE);
; 133  : 
; 134  : 		_Ptr = reinterpret_cast<void *>(_Ptr_container);

  0004d	8b 4d 08	 mov	 ecx, DWORD PTR __Ptr$[ebp]
$LN3@Deallocate:

; 135  : 		}
; 136  :  #endif /* defined(_M_IX86) || defined(_M_X64) */
; 137  : 
; 138  : 	::operator delete(_Ptr);

  00050	51		 push	 ecx
  00051	e8 00 00 00 00	 call	 ??3@YAXPAX@Z		; operator delete
  00056	83 c4 04	 add	 esp, 4

; 139  : 	}

  00059	5d		 pop	 ebp
  0005a	c3		 ret	 0
?_Deallocate@std@@YAXPAXII@Z ENDP			; std::_Deallocate
_TEXT	ENDS
; Function compile flags: /Ogtp
; File c:\program files (x86)\microsoft visual studio 14.0\vc\include\xmemory0
;	COMDAT ?_Allocate@std@@YAPAXII_N@Z
_TEXT	SEGMENT
__Count$ = 8						; size = 4
__Sz$ = 12						; size = 4
__Try_aligned_allocation$ = 16				; size = 1
?_Allocate@std@@YAPAXII_N@Z PROC			; std::_Allocate, COMDAT

; 54   : 	{	// allocate storage for _Count elements of size _Sz

  00000	55		 push	 ebp
  00001	8b ec		 mov	 ebp, esp

; 55   : 	void *_Ptr = 0;
; 56   : 
; 57   : 	if (_Count == 0)

  00003	8b 4d 08	 mov	 ecx, DWORD PTR __Count$[ebp]
  00006	85 c9		 test	 ecx, ecx
  00008	75 04		 jne	 SHORT $LN2@Allocate

; 58   : 		return (_Ptr);

  0000a	33 c0		 xor	 eax, eax

; 91   : 		}
; 92   : 	return (_Ptr);
; 93   : 	}

  0000c	5d		 pop	 ebp
  0000d	c3		 ret	 0
$LN2@Allocate:

; 59   : 
; 60   : 	// check overflow of multiply
; 61   : 	if ((size_t)(-1) / _Sz < _Count)

  0000e	83 c8 ff	 or	 eax, -1
  00011	33 d2		 xor	 edx, edx
  00013	f7 75 0c	 div	 DWORD PTR __Sz$[ebp]
  00016	3b c1		 cmp	 eax, ecx
  00018	0f 82 00 00 00
	00		 jb	 ?_Xbad_alloc@std@@YAXXZ	; std::_Xbad_alloc

; 62   : 		_Xbad_alloc();	// report no memory
; 63   : 	const size_t _User_size = _Count * _Sz;

  0001e	0f af 4d 0c	 imul	 ecx, DWORD PTR __Sz$[ebp]

; 64   : 
; 65   :  #if defined(_M_IX86) || defined(_M_X64)
; 66   : 	if (_Try_aligned_allocation
; 67   : 		&& _BIG_ALLOCATION_THRESHOLD <= _User_size)

  00022	80 7d 10 00	 cmp	 BYTE PTR __Try_aligned_allocation$[ebp], 0
  00026	74 31		 je	 SHORT $LN4@Allocate
  00028	81 f9 00 10 00
	00		 cmp	 ecx, 4096		; 00001000H
  0002e	72 29		 jb	 SHORT $LN4@Allocate

; 68   : 		{	// allocate large block
; 69   : 		static_assert(sizeof (void *) < _BIG_ALLOCATION_ALIGNMENT,
; 70   : 			"Big allocations should at least match vector register size");
; 71   : 		const size_t _Block_size = _NON_USER_SIZE + _User_size;

  00030	8d 41 23	 lea	 eax, DWORD PTR [ecx+35]

; 72   : 		if (_Block_size <= _User_size)

  00033	3b c1		 cmp	 eax, ecx
  00035	0f 86 00 00 00
	00		 jbe	 ?_Xbad_alloc@std@@YAXXZ	; std::_Xbad_alloc

; 73   : 			_Xbad_alloc();	// report no memory
; 74   : 		const uintptr_t _Ptr_container =
; 75   : 			reinterpret_cast<uintptr_t>(::operator new(_Block_size));

  0003b	50		 push	 eax
  0003c	e8 00 00 00 00	 call	 ??2@YAPAXI@Z		; operator new
  00041	8b c8		 mov	 ecx, eax
  00043	83 c4 04	 add	 esp, 4

; 76   : 		_SCL_SECURE_ALWAYS_VALIDATE(_Ptr_container != 0);

  00046	85 c9		 test	 ecx, ecx
  00048	0f 84 00 00 00
	00		 je	 __invalid_parameter_noinfo_noreturn

; 77   : 		_Ptr = reinterpret_cast<void *>((_Ptr_container + _NON_USER_SIZE)

  0004e	8d 41 23	 lea	 eax, DWORD PTR [ecx+35]
  00051	83 e0 e0	 and	 eax, -32		; ffffffe0H

; 78   : 			& ~(_BIG_ALLOCATION_ALIGNMENT - 1));
; 79   : 		static_cast<uintptr_t *>(_Ptr)[-1] = _Ptr_container;

  00054	89 48 fc	 mov	 DWORD PTR [eax-4], ecx

; 91   : 		}
; 92   : 	return (_Ptr);
; 93   : 	}

  00057	5d		 pop	 ebp
  00058	c3		 ret	 0
$LN4@Allocate:

; 80   : 
; 81   :  #ifdef _DEBUG
; 82   : 		static_cast<uintptr_t *>(_Ptr)[-2] = _BIG_ALLOCATION_SENTINEL;
; 83   :  #endif /* _DEBUG */
; 84   : 		}
; 85   : 	else
; 86   :  #endif /* defined(_M_IX86) || defined(_M_X64) */
; 87   : 
; 88   : 		{	// allocate normal block
; 89   : 		_Ptr = ::operator new(_User_size);

  00059	51		 push	 ecx
  0005a	e8 00 00 00 00	 call	 ??2@YAPAXI@Z		; operator new
  0005f	83 c4 04	 add	 esp, 4

; 90   : 		_SCL_SECURE_ALWAYS_VALIDATE(_Ptr != 0);

  00062	85 c0		 test	 eax, eax
  00064	0f 84 00 00 00
	00		 je	 __invalid_parameter_noinfo_noreturn

; 91   : 		}
; 92   : 	return (_Ptr);
; 93   : 	}

  0006a	5d		 pop	 ebp
  0006b	c3		 ret	 0
?_Allocate@std@@YAPAXII_N@Z ENDP			; std::_Allocate
_TEXT	ENDS
; Function compile flags: /Ogtp
; File c:\program files (x86)\microsoft visual studio 14.0\vc\include\xutility
;	COMDAT ?_Orphan_all@_Container_base0@std@@QAEXXZ
_TEXT	SEGMENT
?_Orphan_all@_Container_base0@std@@QAEXXZ PROC		; std::_Container_base0::_Orphan_all, COMDAT
; _this$ = ecx

; 44   : 		}

  00000	c3		 ret	 0
?_Orphan_all@_Container_base0@std@@QAEXXZ ENDP		; std::_Container_base0::_Orphan_all
_TEXT	ENDS
; Function compile flags: /Ogtp
; File c:\program files (x86)\windows kits\10\include\10.0.10240.0\ucrt\stdio.h
;	COMDAT _sprintf
_TEXT	SEGMENT
__Buffer$ = 8						; size = 4
__Format$ = 12						; size = 4
_sprintf PROC						; COMDAT

; 1776 : {

  00000	55		 push	 ebp
  00001	8b ec		 mov	 ebp, esp

; 1386 :     int const _Result = __stdio_common_vsprintf(

  00003	8d 45 10	 lea	 eax, DWORD PTR __Format$[ebp+4]
  00006	50		 push	 eax
  00007	6a 00		 push	 0
  00009	ff 75 0c	 push	 DWORD PTR __Format$[ebp]
  0000c	6a ff		 push	 -1
  0000e	ff 75 08	 push	 DWORD PTR __Buffer$[ebp]
  00011	e8 00 00 00 00	 call	 ___local_stdio_printf_options
  00016	8b 08		 mov	 ecx, DWORD PTR [eax]
  00018	ff 70 04	 push	 DWORD PTR [eax+4]
  0001b	83 c9 01	 or	 ecx, 1
  0001e	51		 push	 ecx
  0001f	e8 00 00 00 00	 call	 ___stdio_common_vsprintf

; 1387 :         _CRT_INTERNAL_LOCAL_PRINTF_OPTIONS | _CRT_INTERNAL_PRINTF_LEGACY_VSPRINTF_NULL_TERMINATION,
; 1388 :         _Buffer, _BufferCount, _Format, _Locale, _ArgList);
; 1389 : 
; 1390 :     return _Result < 0 ? -1 : _Result;

  00024	83 c9 ff	 or	 ecx, -1
  00027	83 c4 1c	 add	 esp, 28			; 0000001cH
  0002a	85 c0		 test	 eax, eax
  0002c	0f 48 c1	 cmovs	 eax, ecx

; 1777 :     int _Result;
; 1778 :     va_list _ArgList;
; 1779 :     __crt_va_start(_ArgList, _Format);
; 1780 : 
; 1781 :     #pragma warning(push)
; 1782 :     #pragma warning(disable: 4996) // Deprecation
; 1783 :     _Result = _vsprintf_l(_Buffer, _Format, NULL, _ArgList);
; 1784 :     #pragma warning(pop)
; 1785 : 
; 1786 :     __crt_va_end(_ArgList);
; 1787 :     return _Result;
; 1788 : }

  0002f	5d		 pop	 ebp
  00030	c3		 ret	 0
_sprintf ENDP
_TEXT	ENDS
; Function compile flags: /Ogtp
; File c:\program files (x86)\windows kits\10\include\10.0.10240.0\ucrt\stdio.h
;	COMDAT __vsprintf_l
_TEXT	SEGMENT
__Buffer$ = 8						; size = 4
__Format$ = 12						; size = 4
__Locale$ = 16						; size = 4
__ArgList$ = 20						; size = 4
__vsprintf_l PROC					; COMDAT

; 1455 : {

  00000	55		 push	 ebp
  00001	8b ec		 mov	 ebp, esp

; 1386 :     int const _Result = __stdio_common_vsprintf(

  00003	ff 75 14	 push	 DWORD PTR __ArgList$[ebp]
  00006	ff 75 10	 push	 DWORD PTR __Locale$[ebp]
  00009	ff 75 0c	 push	 DWORD PTR __Format$[ebp]
  0000c	6a ff		 push	 -1
  0000e	ff 75 08	 push	 DWORD PTR __Buffer$[ebp]
  00011	e8 00 00 00 00	 call	 ___local_stdio_printf_options
  00016	8b 08		 mov	 ecx, DWORD PTR [eax]
  00018	ff 70 04	 push	 DWORD PTR [eax+4]
  0001b	83 c9 01	 or	 ecx, 1
  0001e	51		 push	 ecx
  0001f	e8 00 00 00 00	 call	 ___stdio_common_vsprintf

; 1387 :         _CRT_INTERNAL_LOCAL_PRINTF_OPTIONS | _CRT_INTERNAL_PRINTF_LEGACY_VSPRINTF_NULL_TERMINATION,
; 1388 :         _Buffer, _BufferCount, _Format, _Locale, _ArgList);
; 1389 : 
; 1390 :     return _Result < 0 ? -1 : _Result;

  00024	83 c9 ff	 or	 ecx, -1
  00027	83 c4 1c	 add	 esp, 28			; 0000001cH
  0002a	85 c0		 test	 eax, eax
  0002c	0f 48 c1	 cmovs	 eax, ecx

; 1456 :     #pragma warning(push)
; 1457 :     #pragma warning(disable: 4996) // Deprecation
; 1458 :     return _vsnprintf_l(_Buffer, (size_t)-1, _Format, _Locale, _ArgList);
; 1459 :     #pragma warning(pop)
; 1460 : }

  0002f	5d		 pop	 ebp
  00030	c3		 ret	 0
__vsprintf_l ENDP
_TEXT	ENDS
; Function compile flags: /Ogtp
; File c:\program files (x86)\windows kits\10\include\10.0.10240.0\ucrt\stdio.h
;	COMDAT __vsnprintf_l
_TEXT	SEGMENT
__Buffer$ = 8						; size = 4
__BufferCount$ = 12					; size = 4
__Format$ = 16						; size = 4
__Locale$ = 20						; size = 4
__ArgList$ = 24						; size = 4
__vsnprintf_l PROC					; COMDAT

; 1385 : {

  00000	55		 push	 ebp
  00001	8b ec		 mov	 ebp, esp

; 1386 :     int const _Result = __stdio_common_vsprintf(

  00003	ff 75 18	 push	 DWORD PTR __ArgList$[ebp]
  00006	ff 75 14	 push	 DWORD PTR __Locale$[ebp]
  00009	ff 75 10	 push	 DWORD PTR __Format$[ebp]
  0000c	ff 75 0c	 push	 DWORD PTR __BufferCount$[ebp]
  0000f	ff 75 08	 push	 DWORD PTR __Buffer$[ebp]
  00012	e8 00 00 00 00	 call	 ___local_stdio_printf_options
  00017	8b 08		 mov	 ecx, DWORD PTR [eax]
  00019	ff 70 04	 push	 DWORD PTR [eax+4]
  0001c	83 c9 01	 or	 ecx, 1
  0001f	51		 push	 ecx
  00020	e8 00 00 00 00	 call	 ___stdio_common_vsprintf

; 1387 :         _CRT_INTERNAL_LOCAL_PRINTF_OPTIONS | _CRT_INTERNAL_PRINTF_LEGACY_VSPRINTF_NULL_TERMINATION,
; 1388 :         _Buffer, _BufferCount, _Format, _Locale, _ArgList);
; 1389 : 
; 1390 :     return _Result < 0 ? -1 : _Result;

  00025	83 c9 ff	 or	 ecx, -1
  00028	83 c4 1c	 add	 esp, 28			; 0000001cH
  0002b	85 c0		 test	 eax, eax
  0002d	0f 48 c1	 cmovs	 eax, ecx

; 1391 : }

  00030	5d		 pop	 ebp
  00031	c3		 ret	 0
__vsnprintf_l ENDP
_TEXT	ENDS
; Function compile flags: /Ogtp
; File c:\program files (x86)\microsoft visual studio 14.0\vc\include\vadefs.h
;	COMDAT ??$__vcrt_va_start_verify_argument_type@QBD@@YAXXZ
_TEXT	SEGMENT
??$__vcrt_va_start_verify_argument_type@QBD@@YAXXZ PROC	; __vcrt_va_start_verify_argument_type<char const * const>, COMDAT

; 145  :             static_assert(!__vcrt_va_list_is_reference<_Ty>::__the_value, "va_start argument must not have reference type and must not be parenthesized");
; 146  :         }

  00000	c3		 ret	 0
??$__vcrt_va_start_verify_argument_type@QBD@@YAXXZ ENDP	; __vcrt_va_start_verify_argument_type<char const * const>
_TEXT	ENDS
; Function compile flags: /Ogtp
; File c:\program files (x86)\windows kits\10\include\10.0.10240.0\ucrt\corecrt_stdio_config.h
;	COMDAT ___local_stdio_printf_options
_TEXT	SEGMENT
___local_stdio_printf_options PROC			; COMDAT

; 74   :     static unsigned __int64 _OptionsStorage;
; 75   :     return &_OptionsStorage;

  00000	b8 00 00 00 00	 mov	 eax, OFFSET ?_OptionsStorage@?1??__local_stdio_printf_options@@9@4_KA ; `__local_stdio_printf_options'::`2'::_OptionsStorage

; 76   : }

  00005	c3		 ret	 0
___local_stdio_printf_options ENDP
_TEXT	ENDS
; Function compile flags: /Ogtp
; File c:\program files (x86)\microsoft visual studio 14.0\vc\include\vcruntime_new.h
;	COMDAT ??2@YAPAXIPAX@Z
_TEXT	SEGMENT
__Size$ = 8						; size = 4
__Where$ = 12						; size = 4
??2@YAPAXIPAX@Z PROC					; operator new, COMDAT

; 87   :     {

  00000	55		 push	 ebp
  00001	8b ec		 mov	 ebp, esp

; 88   :         (void)_Size;
; 89   :         return _Where;

  00003	8b 45 0c	 mov	 eax, DWORD PTR __Where$[ebp]

; 90   :     }

  00006	5d		 pop	 ebp
  00007	c3		 ret	 0
??2@YAPAXIPAX@Z ENDP					; operator new
_TEXT	ENDS
; Function compile flags: /Ogtp
; File c:\users\michel\desktop\source\gameserver\source\message.cpp
;	COMDAT ?__empty_global_delete@@YAXPAXI@Z
_TEXT	SEGMENT
___formal$ = 8						; size = 4
___formal$ = 12						; size = 4
?__empty_global_delete@@YAXPAXI@Z PROC			; __empty_global_delete, COMDAT

; 74   : }

  00000	c3		 ret	 0
?__empty_global_delete@@YAXPAXI@Z ENDP			; __empty_global_delete
_TEXT	ENDS
; Function compile flags: /Ogtp
; File c:\users\michel\desktop\source\gameserver\source\message.cpp
;	COMDAT ?__empty_global_delete@@YAXPAX@Z
_TEXT	SEGMENT
___formal$ = 8						; size = 4
?__empty_global_delete@@YAXPAX@Z PROC			; __empty_global_delete, COMDAT

; 74   : }

  00000	c3		 ret	 0
?__empty_global_delete@@YAXPAX@Z ENDP			; __empty_global_delete
_TEXT	ENDS
END
