; Listing generated by Microsoft (R) Optimizing Compiler Version 19.00.23506.0 

	TITLE	C:\Users\Michel\Desktop\Source\GameServer\Source\MonsterAttr.cpp
	.686P
	.XMM
	include listing.inc
	.model	flat

INCLUDELIB LIBCMT
INCLUDELIB OLDNAMES

PUBLIC	?__empty_global_delete@@YAXPAX@Z		; __empty_global_delete
PUBLIC	?__empty_global_delete@@YAXPAXI@Z		; __empty_global_delete
PUBLIC	??1OBJECTSTRUCT@@QAE@XZ				; OBJECTSTRUCT::~OBJECTSTRUCT
PUBLIC	??_EOBJECTSTRUCT@@QAEPAXI@Z			; OBJECTSTRUCT::`vector deleting destructor'
PUBLIC	??0CMonsterAttr@@QAE@XZ				; CMonsterAttr::CMonsterAttr
PUBLIC	??1CMonsterAttr@@UAE@XZ				; CMonsterAttr::~CMonsterAttr
PUBLIC	?GetAttr@CMonsterAttr@@QAEPAUMONSTER_ATTRIBUTE@@H@Z ; CMonsterAttr::GetAttr
PUBLIC	?LoadAttr@CMonsterAttr@@QAEXPAD@Z		; CMonsterAttr::LoadAttr
PUBLIC	?deallocate@?$allocator@UMONSTER_ATTRIBUTE@@@std@@QAEXPAUMONSTER_ATTRIBUTE@@I@Z ; std::allocator<MONSTER_ATTRIBUTE>::deallocate
PUBLIC	?allocate@?$allocator@UMONSTER_ATTRIBUTE@@@std@@QAEPAUMONSTER_ATTRIBUTE@@I@Z ; std::allocator<MONSTER_ATTRIBUTE>::allocate
PUBLIC	?_Reallocate@?$vector@UMONSTER_ATTRIBUTE@@V?$allocator@UMONSTER_ATTRIBUTE@@@std@@@std@@IAEXI@Z ; std::vector<MONSTER_ATTRIBUTE,std::allocator<MONSTER_ATTRIBUTE> >::_Reallocate
PUBLIC	?_Reserve@?$vector@UMONSTER_ATTRIBUTE@@V?$allocator@UMONSTER_ATTRIBUTE@@@std@@@std@@IAEXI@Z ; std::vector<MONSTER_ATTRIBUTE,std::allocator<MONSTER_ATTRIBUTE> >::_Reserve
PUBLIC	??_GCMonsterAttr@@UAEPAXI@Z			; CMonsterAttr::`scalar deleting destructor'
PUBLIC	??0CCustomMonsterAttr@@QAE@XZ			; CCustomMonsterAttr::CCustomMonsterAttr
PUBLIC	??1CCustomMonsterAttr@@UAE@XZ			; CCustomMonsterAttr::~CCustomMonsterAttr
PUBLIC	?Load@CCustomMonsterAttr@@QAEXPAD@Z		; CCustomMonsterAttr::Load
PUBLIC	?_Buyheadnode@?$_Tree_comp_alloc@V?$_Tmap_traits@HPAUCUSTOM_MONSTER_ATTR@@U?$less@H@std@@V?$allocator@U?$pair@$$CBHPAUCUSTOM_MONSTER_ATTR@@@std@@@3@$0A@@std@@@std@@QAEPAU?$_Tree_node@U?$pair@$$CBHPAUCUSTOM_MONSTER_ATTR@@@std@@PAX@2@XZ ; std::_Tree_comp_alloc<std::_Tmap_traits<int,CUSTOM_MONSTER_ATTR *,std::less<int>,std::allocator<std::pair<int const ,CUSTOM_MONSTER_ATTR *> >,0> >::_Buyheadnode
PUBLIC	?_Buynode0@?$_Tree_comp_alloc@V?$_Tmap_traits@HPAUCUSTOM_MONSTER_ATTR@@U?$less@H@std@@V?$allocator@U?$pair@$$CBHPAUCUSTOM_MONSTER_ATTR@@@std@@@3@$0A@@std@@@std@@QAEPAU?$_Tree_node@U?$pair@$$CBHPAUCUSTOM_MONSTER_ATTR@@@std@@PAX@2@XZ ; std::_Tree_comp_alloc<std::_Tmap_traits<int,CUSTOM_MONSTER_ATTR *,std::less<int>,std::allocator<std::pair<int const ,CUSTOM_MONSTER_ATTR *> >,0> >::_Buynode0
PUBLIC	?erase@?$_Tree@V?$_Tmap_traits@HPAUCUSTOM_MONSTER_ATTR@@U?$less@H@std@@V?$allocator@U?$pair@$$CBHPAUCUSTOM_MONSTER_ATTR@@@std@@@3@$0A@@std@@@std@@QAE?AV?$_Tree_iterator@V?$_Tree_val@U?$_Tree_simple_types@U?$pair@$$CBHPAUCUSTOM_MONSTER_ATTR@@@std@@@std@@@std@@@2@V?$_Tree_const_iterator@V?$_Tree_val@U?$_Tree_simple_types@U?$pair@$$CBHPAUCUSTOM_MONSTER_ATTR@@@std@@@std@@@std@@@2@@Z ; std::_Tree<std::_Tmap_traits<int,CUSTOM_MONSTER_ATTR *,std::less<int>,std::allocator<std::pair<int const ,CUSTOM_MONSTER_ATTR *> >,0> >::erase
PUBLIC	?erase@?$_Tree@V?$_Tmap_traits@HPAUCUSTOM_MONSTER_ATTR@@U?$less@H@std@@V?$allocator@U?$pair@$$CBHPAUCUSTOM_MONSTER_ATTR@@@std@@@3@$0A@@std@@@std@@QAE?AV?$_Tree_iterator@V?$_Tree_val@U?$_Tree_simple_types@U?$pair@$$CBHPAUCUSTOM_MONSTER_ATTR@@@std@@@std@@@std@@@2@V?$_Tree_const_iterator@V?$_Tree_val@U?$_Tree_simple_types@U?$pair@$$CBHPAUCUSTOM_MONSTER_ATTR@@@std@@@std@@@std@@@2@0@Z ; std::_Tree<std::_Tmap_traits<int,CUSTOM_MONSTER_ATTR *,std::less<int>,std::allocator<std::pair<int const ,CUSTOM_MONSTER_ATTR *> >,0> >::erase
PUBLIC	?clear@?$_Tree@V?$_Tmap_traits@HPAUCUSTOM_MONSTER_ATTR@@U?$less@H@std@@V?$allocator@U?$pair@$$CBHPAUCUSTOM_MONSTER_ATTR@@@std@@@3@$0A@@std@@@std@@QAEXXZ ; std::_Tree<std::_Tmap_traits<int,CUSTOM_MONSTER_ATTR *,std::less<int>,std::allocator<std::pair<int const ,CUSTOM_MONSTER_ATTR *> >,0> >::clear
PUBLIC	?_Erase@?$_Tree@V?$_Tmap_traits@HPAUCUSTOM_MONSTER_ATTR@@U?$less@H@std@@V?$allocator@U?$pair@$$CBHPAUCUSTOM_MONSTER_ATTR@@@std@@@3@$0A@@std@@@std@@IAEXPAU?$_Tree_node@U?$pair@$$CBHPAUCUSTOM_MONSTER_ATTR@@@std@@PAX@2@@Z ; std::_Tree<std::_Tmap_traits<int,CUSTOM_MONSTER_ATTR *,std::less<int>,std::allocator<std::pair<int const ,CUSTOM_MONSTER_ATTR *> >,0> >::_Erase
PUBLIC	?_Lrotate@?$_Tree@V?$_Tmap_traits@HPAUCUSTOM_MONSTER_ATTR@@U?$less@H@std@@V?$allocator@U?$pair@$$CBHPAUCUSTOM_MONSTER_ATTR@@@std@@@3@$0A@@std@@@std@@IAEXPAU?$_Tree_node@U?$pair@$$CBHPAUCUSTOM_MONSTER_ATTR@@@std@@PAX@2@@Z ; std::_Tree<std::_Tmap_traits<int,CUSTOM_MONSTER_ATTR *,std::less<int>,std::allocator<std::pair<int const ,CUSTOM_MONSTER_ATTR *> >,0> >::_Lrotate
PUBLIC	?_Rrotate@?$_Tree@V?$_Tmap_traits@HPAUCUSTOM_MONSTER_ATTR@@U?$less@H@std@@V?$allocator@U?$pair@$$CBHPAUCUSTOM_MONSTER_ATTR@@@std@@@3@$0A@@std@@@std@@IAEXPAU?$_Tree_node@U?$pair@$$CBHPAUCUSTOM_MONSTER_ATTR@@@std@@PAX@2@@Z ; std::_Tree<std::_Tmap_traits<int,CUSTOM_MONSTER_ATTR *,std::less<int>,std::allocator<std::pair<int const ,CUSTOM_MONSTER_ATTR *> >,0> >::_Rrotate
PUBLIC	??_GCCustomMonsterAttr@@UAEPAXI@Z		; CCustomMonsterAttr::`scalar deleting destructor'
PUBLIC	??E?$_Tree_unchecked_const_iterator@V?$_Tree_val@U?$_Tree_simple_types@U?$pair@$$CBHPAUCUSTOM_MONSTER_ATTR@@@std@@@std@@@std@@U_Iterator_base0@2@@std@@QAEAAV01@XZ ; std::_Tree_unchecked_const_iterator<std::_Tree_val<std::_Tree_simple_types<std::pair<int const ,CUSTOM_MONSTER_ATTR *> > >,std::_Iterator_base0>::operator++
PUBLIC	??F?$_Tree_unchecked_const_iterator@V?$_Tree_val@U?$_Tree_simple_types@U?$pair@$$CBHPAUCUSTOM_MONSTER_ATTR@@@std@@@std@@@std@@U_Iterator_base0@2@@std@@QAEAAV01@XZ ; std::_Tree_unchecked_const_iterator<std::_Tree_val<std::_Tree_simple_types<std::pair<int const ,CUSTOM_MONSTER_ATTR *> > >,std::_Iterator_base0>::operator--
PUBLIC	??$_Buynode@U?$pair@HPAUCUSTOM_MONSTER_ATTR@@@std@@@?$_Tree_comp_alloc@V?$_Tmap_traits@HPAUCUSTOM_MONSTER_ATTR@@U?$less@H@std@@V?$allocator@U?$pair@$$CBHPAUCUSTOM_MONSTER_ATTR@@@std@@@3@$0A@@std@@@std@@QAEPAU?$_Tree_node@U?$pair@$$CBHPAUCUSTOM_MONSTER_ATTR@@@std@@PAX@1@$$QAU?$pair@HPAUCUSTOM_MONSTER_ATTR@@@1@@Z ; std::_Tree_comp_alloc<std::_Tmap_traits<int,CUSTOM_MONSTER_ATTR *,std::less<int>,std::allocator<std::pair<int const ,CUSTOM_MONSTER_ATTR *> >,0> >::_Buynode<std::pair<int,CUSTOM_MONSTER_ATTR *> >
PUBLIC	??$_Insert_nohint@AAU?$pair@$$CBHPAUCUSTOM_MONSTER_ATTR@@@std@@PAU?$_Tree_node@U?$pair@$$CBHPAUCUSTOM_MONSTER_ATTR@@@std@@PAX@2@@?$_Tree@V?$_Tmap_traits@HPAUCUSTOM_MONSTER_ATTR@@U?$less@H@std@@V?$allocator@U?$pair@$$CBHPAUCUSTOM_MONSTER_ATTR@@@std@@@3@$0A@@std@@@std@@IAE?AU?$pair@V?$_Tree_iterator@V?$_Tree_val@U?$_Tree_simple_types@U?$pair@$$CBHPAUCUSTOM_MONSTER_ATTR@@@std@@@std@@@std@@@std@@_N@1@_NAAU?$pair@$$CBHPAUCUSTOM_MONSTER_ATTR@@@1@PAU?$_Tree_node@U?$pair@$$CBHPAUCUSTOM_MONSTER_ATTR@@@std@@PAX@1@@Z ; std::_Tree<std::_Tmap_traits<int,CUSTOM_MONSTER_ATTR *,std::less<int>,std::allocator<std::pair<int const ,CUSTOM_MONSTER_ATTR *> >,0> >::_Insert_nohint<std::pair<int const ,CUSTOM_MONSTER_ATTR *> &,std::_Tree_node<std::pair<int const ,CUSTOM_MONSTER_ATTR *>,void *> *>
PUBLIC	??$_Insert_at@AAU?$pair@$$CBHPAUCUSTOM_MONSTER_ATTR@@@std@@PAU?$_Tree_node@U?$pair@$$CBHPAUCUSTOM_MONSTER_ATTR@@@std@@PAX@2@@?$_Tree@V?$_Tmap_traits@HPAUCUSTOM_MONSTER_ATTR@@U?$less@H@std@@V?$allocator@U?$pair@$$CBHPAUCUSTOM_MONSTER_ATTR@@@std@@@3@$0A@@std@@@std@@IAE?AV?$_Tree_iterator@V?$_Tree_val@U?$_Tree_simple_types@U?$pair@$$CBHPAUCUSTOM_MONSTER_ATTR@@@std@@@std@@@std@@@1@_NPAU?$_Tree_node@U?$pair@$$CBHPAUCUSTOM_MONSTER_ATTR@@@std@@PAX@1@AAU?$pair@$$CBHPAUCUSTOM_MONSTER_ATTR@@@1@1@Z ; std::_Tree<std::_Tmap_traits<int,CUSTOM_MONSTER_ATTR *,std::less<int>,std::allocator<std::pair<int const ,CUSTOM_MONSTER_ATTR *> >,0> >::_Insert_at<std::pair<int const ,CUSTOM_MONSTER_ATTR *> &,std::_Tree_node<std::pair<int const ,CUSTOM_MONSTER_ATTR *>,void *> *>
PUBLIC	??$_Uninit_move@PAUMONSTER_ATTRIBUTE@@PAU1@V?$allocator@UMONSTER_ATTRIBUTE@@@std@@U1@@std@@YAPAUMONSTER_ATTRIBUTE@@PAU1@00AAU?$_Wrap_alloc@V?$allocator@UMONSTER_ATTRIBUTE@@@std@@@0@0U_Nonscalar_ptr_iterator_tag@0@@Z ; std::_Uninit_move<MONSTER_ATTRIBUTE *,MONSTER_ATTRIBUTE *,std::allocator<MONSTER_ATTRIBUTE>,MONSTER_ATTRIBUTE>
PUBLIC	??_C@_00CNPNBAHC@?$AA@				; `string'
PUBLIC	??_7CMonsterAttr@@6B@				; CMonsterAttr::`vftable'
PUBLIC	??_7CCustomMonsterAttr@@6B@			; CCustomMonsterAttr::`vftable'
PUBLIC	?gCMAttr@@3VCCustomMonsterAttr@@A		; gCMAttr
PUBLIC	??_C@_0CB@HHHOJCCJ@?$FLMonsterAttr?$FN?5File?5?$CFs?5not?5found?$CB@ ; `string'
PUBLIC	??_C@_0M@KBGBPIEP@monsterinfo?$AA@		; `string'
PUBLIC	??_C@_07JHAJHILB@monster?$AA@			; `string'
PUBLIC	??_C@_02EGCJHIOB@id?$AA@			; `string'
PUBLIC	??_C@_04MEMAJGDJ@name?$AA@			; `string'
PUBLIC	??_C@_04HCCHHEEF@rate?$AA@			; `string'
PUBLIC	??_C@_05KJNJLLGA@level?$AA@			; `string'
PUBLIC	??_C@_02GJEFMFID@hp?$AA@			; `string'
PUBLIC	??_C@_02GPIOAHGI@mp?$AA@			; `string'
PUBLIC	??_C@_09NIFJAKNI@damagemin?$AA@			; `string'
PUBLIC	??_C@_09MKNCOOLH@damagemax?$AA@			; `string'
PUBLIC	??_C@_07NEJDADE@defense?$AA@			; `string'
PUBLIC	??_C@_0L@NIBJMFLD@attackrate?$AA@		; `string'
PUBLIC	??_C@_09OJGMFGCF@blockrate?$AA@			; `string'
PUBLIC	??_C@_09GEFEJNCJ@moverange?$AA@			; `string'
PUBLIC	??_C@_0L@MFPNOHLP@attacktype?$AA@		; `string'
PUBLIC	??_C@_0M@HGBKAHIE@attackrange?$AA@		; `string'
PUBLIC	??_C@_09MKHFCFJD@viewrange?$AA@			; `string'
PUBLIC	??_C@_09DPBGJCJA@movespeed?$AA@			; `string'
PUBLIC	??_C@_0M@CNFIAIDN@attackspeed?$AA@		; `string'
PUBLIC	??_C@_09NLJKJLBK@regentime?$AA@			; `string'
PUBLIC	??_C@_09HGIEBAJ@attribute?$AA@			; `string'
PUBLIC	??_C@_08OHDCEAKF@itemrate?$AA@			; `string'
PUBLIC	??_C@_09MAIOKHFJ@moneyrate?$AA@			; `string'
PUBLIC	??_C@_0N@FLHBELCJ@maxitemlevel?$AA@		; `string'
PUBLIC	??_C@_05ODMCMJAJ@skill?$AA@			; `string'
PUBLIC	??_C@_06OLBKLHGH@resice?$AA@			; `string'
PUBLIC	??_C@_09JKHFCNGK@respoison?$AA@			; `string'
PUBLIC	??_C@_08MCFKFHKG@reslight?$AA@			; `string'
PUBLIC	??_C@_07DPDDLDOO@resfire?$AA@			; `string'
PUBLIC	??_C@_0BB@DNMOIFOO@elementdamagemin?$AA@	; `string'
PUBLIC	??_C@_0BB@CPEFGBIB@elementdamagemax?$AA@	; `string'
PUBLIC	??_C@_0P@IOOKJBBN@elementdefense?$AA@		; `string'
PUBLIC	??_C@_0BC@BHEGMHKF@elementattackrate?$AA@	; `string'
PUBLIC	??_C@_0BB@MPLNJBD@elementblockrate?$AA@		; `string'
PUBLIC	??_C@_0CF@LOELPJFC@?$FLMonsterStatInfo?$FN?5File?5?$CFs?5not?5fo@ ; `string'
PUBLIC	??_C@_0BA@DMFANPLH@monsterstatinfo?$AA@		; `string'
PUBLIC	??_C@_07DLHCIBDH@default?$AA@			; `string'
PUBLIC	??_C@_06GJOIPFFF@damage?$AA@			; `string'
PUBLIC	??_C@_0M@EPNCHODA@defenserate?$AA@		; `string'
PUBLIC	??_C@_08KINPOOEP@specific?$AA@			; `string'
PUBLIC	??_C@_0BD@OLBABOEK@vector?$DMT?$DO?5too?5long?$AA@ ; `string'
PUBLIC	??_C@_0BE@JONHPENG@map?1set?$DMT?$DO?5too?5long?$AA@ ; `string'
PUBLIC	??_R4CMonsterAttr@@6B@				; CMonsterAttr::`RTTI Complete Object Locator'
PUBLIC	??_R0?AVCMonsterAttr@@@8			; CMonsterAttr `RTTI Type Descriptor'
PUBLIC	??_R3CMonsterAttr@@8				; CMonsterAttr::`RTTI Class Hierarchy Descriptor'
PUBLIC	??_R2CMonsterAttr@@8				; CMonsterAttr::`RTTI Base Class Array'
PUBLIC	??_R1A@?0A@EA@CMonsterAttr@@8			; CMonsterAttr::`RTTI Base Class Descriptor at (0,-1,0,64)'
PUBLIC	??_R4CCustomMonsterAttr@@6B@			; CCustomMonsterAttr::`RTTI Complete Object Locator'
PUBLIC	??_R0?AVCCustomMonsterAttr@@@8			; CCustomMonsterAttr `RTTI Type Descriptor'
PUBLIC	??_R3CCustomMonsterAttr@@8			; CCustomMonsterAttr::`RTTI Class Hierarchy Descriptor'
PUBLIC	??_R2CCustomMonsterAttr@@8			; CCustomMonsterAttr::`RTTI Base Class Array'
PUBLIC	??_R1A@?0A@EA@CCustomMonsterAttr@@8		; CCustomMonsterAttr::`RTTI Base Class Descriptor at (0,-1,0,64)'
PUBLIC	__real@c2c80000
EXTRN	??_M@YGXPAXIIP6EX0@Z@Z:PROC			; `eh vector destructor iterator'
EXTRN	??2@YAPAXI@Z:PROC				; operator new
EXTRN	??3@YAXPAX@Z:PROC				; operator delete
EXTRN	??3@YAXPAXI@Z:PROC				; operator delete
EXTRN	??_V@YAXPAXI@Z:PROC				; operator delete[]
EXTRN	_atexit:PROC
EXTRN	___std_terminate:PROC
EXTRN	__invalid_parameter_noinfo_noreturn:PROC
EXTRN	?_Xbad_alloc@std@@YAXXZ:PROC			; std::_Xbad_alloc
EXTRN	?_Xlength_error@std@@YAXPBD@Z:PROC		; std::_Xlength_error
EXTRN	??1CSkillDelay@@UAE@XZ:PROC			; CSkillDelay::~CSkillDelay
EXTRN	?MsgBox@@YAXPADZZ:PROC				; MsgBox
EXTRN	??1TMonsterAIAgro@@UAE@XZ:PROC			; TMonsterAIAgro::~TMonsterAIAgro
EXTRN	??_ECMonsterAttr@@UAEPAXI@Z:PROC		; CMonsterAttr::`vector deleting destructor'
EXTRN	??_ECCustomMonsterAttr@@UAEPAXI@Z:PROC		; CCustomMonsterAttr::`vector deleting destructor'
EXTRN	?as_string@xml_attribute@pugi@@QBEPBDPBD@Z:PROC	; pugi::xml_attribute::as_string
EXTRN	?as_int@xml_attribute@pugi@@QBEHH@Z:PROC	; pugi::xml_attribute::as_int
EXTRN	?as_float@xml_attribute@pugi@@QBEMM@Z:PROC	; pugi::xml_attribute::as_float
EXTRN	??Bxml_node@pugi@@QBEP6AXPAPAPAV01@@ZXZ:PROC	; pugi::xml_node::operator void (__cdecl*)(pugi::xml_node * * *)
EXTRN	?next_sibling@xml_node@pugi@@QBE?AV12@XZ:PROC	; pugi::xml_node::next_sibling
EXTRN	?child@xml_node@pugi@@QBE?AV12@PBD@Z:PROC	; pugi::xml_node::child
EXTRN	?attribute@xml_node@pugi@@QBE?AVxml_attribute@2@PBD@Z:PROC ; pugi::xml_node::attribute
EXTRN	??0xml_document@pugi@@QAE@XZ:PROC		; pugi::xml_document::xml_document
EXTRN	??1xml_document@pugi@@QAE@XZ:PROC		; pugi::xml_document::~xml_document
EXTRN	?load_file@xml_document@pugi@@QAE?AUxml_parse_result@2@PBDIW4xml_encoding@2@@Z:PROC ; pugi::xml_document::load_file
EXTRN	@__security_check_cookie@4:PROC
EXTRN	__CxxThrowException@8:PROC
EXTRN	___CxxFrameHandler3:PROC
EXTRN	_memset:PROC
EXTRN	??_7type_info@@6B@:QWORD			; type_info::`vftable'
EXTRN	?gMonsterHp@@3HA:DWORD				; gMonsterHp
EXTRN	?gMonsterHPAdjust@@3HA:DWORD			; gMonsterHPAdjust
EXTRN	___security_cookie:DWORD
EXTRN	__fltused:DWORD
_BSS	SEGMENT
?gCMAttr@@3VCCustomMonsterAttr@@A DB 020H DUP (?)	; gCMAttr
_BSS	ENDS
CRT$XCU	SEGMENT
?gCMAttr$initializer$@@3P6AXXZA DD FLAT:??__EgCMAttr@@YAXXZ ; gCMAttr$initializer$
CRT$XCU	ENDS
;	COMDAT __real@c2c80000
CONST	SEGMENT
__real@c2c80000 DD 0c2c80000r			; -100
CONST	ENDS
;	COMDAT ??_R1A@?0A@EA@CCustomMonsterAttr@@8
rdata$r	SEGMENT
??_R1A@?0A@EA@CCustomMonsterAttr@@8 DD FLAT:??_R0?AVCCustomMonsterAttr@@@8 ; CCustomMonsterAttr::`RTTI Base Class Descriptor at (0,-1,0,64)'
	DD	00H
	DD	00H
	DD	0ffffffffH
	DD	00H
	DD	040H
	DD	FLAT:??_R3CCustomMonsterAttr@@8
rdata$r	ENDS
;	COMDAT ??_R2CCustomMonsterAttr@@8
rdata$r	SEGMENT
??_R2CCustomMonsterAttr@@8 DD FLAT:??_R1A@?0A@EA@CCustomMonsterAttr@@8 ; CCustomMonsterAttr::`RTTI Base Class Array'
rdata$r	ENDS
;	COMDAT ??_R3CCustomMonsterAttr@@8
rdata$r	SEGMENT
??_R3CCustomMonsterAttr@@8 DD 00H			; CCustomMonsterAttr::`RTTI Class Hierarchy Descriptor'
	DD	00H
	DD	01H
	DD	FLAT:??_R2CCustomMonsterAttr@@8
rdata$r	ENDS
;	COMDAT ??_R0?AVCCustomMonsterAttr@@@8
data$r	SEGMENT
??_R0?AVCCustomMonsterAttr@@@8 DD FLAT:??_7type_info@@6B@ ; CCustomMonsterAttr `RTTI Type Descriptor'
	DD	00H
	DB	'.?AVCCustomMonsterAttr@@', 00H
data$r	ENDS
;	COMDAT ??_R4CCustomMonsterAttr@@6B@
rdata$r	SEGMENT
??_R4CCustomMonsterAttr@@6B@ DD 00H			; CCustomMonsterAttr::`RTTI Complete Object Locator'
	DD	00H
	DD	00H
	DD	FLAT:??_R0?AVCCustomMonsterAttr@@@8
	DD	FLAT:??_R3CCustomMonsterAttr@@8
rdata$r	ENDS
;	COMDAT ??_R1A@?0A@EA@CMonsterAttr@@8
rdata$r	SEGMENT
??_R1A@?0A@EA@CMonsterAttr@@8 DD FLAT:??_R0?AVCMonsterAttr@@@8 ; CMonsterAttr::`RTTI Base Class Descriptor at (0,-1,0,64)'
	DD	00H
	DD	00H
	DD	0ffffffffH
	DD	00H
	DD	040H
	DD	FLAT:??_R3CMonsterAttr@@8
rdata$r	ENDS
;	COMDAT ??_R2CMonsterAttr@@8
rdata$r	SEGMENT
??_R2CMonsterAttr@@8 DD FLAT:??_R1A@?0A@EA@CMonsterAttr@@8 ; CMonsterAttr::`RTTI Base Class Array'
rdata$r	ENDS
;	COMDAT ??_R3CMonsterAttr@@8
rdata$r	SEGMENT
??_R3CMonsterAttr@@8 DD 00H				; CMonsterAttr::`RTTI Class Hierarchy Descriptor'
	DD	00H
	DD	01H
	DD	FLAT:??_R2CMonsterAttr@@8
rdata$r	ENDS
;	COMDAT ??_R0?AVCMonsterAttr@@@8
data$r	SEGMENT
??_R0?AVCMonsterAttr@@@8 DD FLAT:??_7type_info@@6B@	; CMonsterAttr `RTTI Type Descriptor'
	DD	00H
	DB	'.?AVCMonsterAttr@@', 00H
data$r	ENDS
;	COMDAT ??_R4CMonsterAttr@@6B@
rdata$r	SEGMENT
??_R4CMonsterAttr@@6B@ DD 00H				; CMonsterAttr::`RTTI Complete Object Locator'
	DD	00H
	DD	00H
	DD	FLAT:??_R0?AVCMonsterAttr@@@8
	DD	FLAT:??_R3CMonsterAttr@@8
rdata$r	ENDS
;	COMDAT ??_C@_0BE@JONHPENG@map?1set?$DMT?$DO?5too?5long?$AA@
CONST	SEGMENT
??_C@_0BE@JONHPENG@map?1set?$DMT?$DO?5too?5long?$AA@ DB 'map/set<T> too l'
	DB	'ong', 00H					; `string'
CONST	ENDS
;	COMDAT ??_C@_0BD@OLBABOEK@vector?$DMT?$DO?5too?5long?$AA@
CONST	SEGMENT
??_C@_0BD@OLBABOEK@vector?$DMT?$DO?5too?5long?$AA@ DB 'vector<T> too long'
	DB	00H						; `string'
CONST	ENDS
;	COMDAT ??_C@_08KINPOOEP@specific?$AA@
CONST	SEGMENT
??_C@_08KINPOOEP@specific?$AA@ DB 'specific', 00H	; `string'
CONST	ENDS
;	COMDAT ??_C@_0M@EPNCHODA@defenserate?$AA@
CONST	SEGMENT
??_C@_0M@EPNCHODA@defenserate?$AA@ DB 'defenserate', 00H ; `string'
CONST	ENDS
;	COMDAT ??_C@_06GJOIPFFF@damage?$AA@
CONST	SEGMENT
??_C@_06GJOIPFFF@damage?$AA@ DB 'damage', 00H		; `string'
CONST	ENDS
;	COMDAT ??_C@_07DLHCIBDH@default?$AA@
CONST	SEGMENT
??_C@_07DLHCIBDH@default?$AA@ DB 'default', 00H		; `string'
CONST	ENDS
;	COMDAT ??_C@_0BA@DMFANPLH@monsterstatinfo?$AA@
CONST	SEGMENT
??_C@_0BA@DMFANPLH@monsterstatinfo?$AA@ DB 'monsterstatinfo', 00H ; `string'
CONST	ENDS
;	COMDAT ??_C@_0CF@LOELPJFC@?$FLMonsterStatInfo?$FN?5File?5?$CFs?5not?5fo@
CONST	SEGMENT
??_C@_0CF@LOELPJFC@?$FLMonsterStatInfo?$FN?5File?5?$CFs?5not?5fo@ DB '[Mo'
	DB	'nsterStatInfo] File %s not found!', 00H	; `string'
CONST	ENDS
;	COMDAT ??_C@_0BB@MPLNJBD@elementblockrate?$AA@
CONST	SEGMENT
??_C@_0BB@MPLNJBD@elementblockrate?$AA@ DB 'elementblockrate', 00H ; `string'
CONST	ENDS
;	COMDAT ??_C@_0BC@BHEGMHKF@elementattackrate?$AA@
CONST	SEGMENT
??_C@_0BC@BHEGMHKF@elementattackrate?$AA@ DB 'elementattackrate', 00H ; `string'
CONST	ENDS
;	COMDAT ??_C@_0P@IOOKJBBN@elementdefense?$AA@
CONST	SEGMENT
??_C@_0P@IOOKJBBN@elementdefense?$AA@ DB 'elementdefense', 00H ; `string'
CONST	ENDS
;	COMDAT ??_C@_0BB@CPEFGBIB@elementdamagemax?$AA@
CONST	SEGMENT
??_C@_0BB@CPEFGBIB@elementdamagemax?$AA@ DB 'elementdamagemax', 00H ; `string'
CONST	ENDS
;	COMDAT ??_C@_0BB@DNMOIFOO@elementdamagemin?$AA@
CONST	SEGMENT
??_C@_0BB@DNMOIFOO@elementdamagemin?$AA@ DB 'elementdamagemin', 00H ; `string'
CONST	ENDS
;	COMDAT ??_C@_07DPDDLDOO@resfire?$AA@
CONST	SEGMENT
??_C@_07DPDDLDOO@resfire?$AA@ DB 'resfire', 00H		; `string'
CONST	ENDS
;	COMDAT ??_C@_08MCFKFHKG@reslight?$AA@
CONST	SEGMENT
??_C@_08MCFKFHKG@reslight?$AA@ DB 'reslight', 00H	; `string'
CONST	ENDS
;	COMDAT ??_C@_09JKHFCNGK@respoison?$AA@
CONST	SEGMENT
??_C@_09JKHFCNGK@respoison?$AA@ DB 'respoison', 00H	; `string'
CONST	ENDS
;	COMDAT ??_C@_06OLBKLHGH@resice?$AA@
CONST	SEGMENT
??_C@_06OLBKLHGH@resice?$AA@ DB 'resice', 00H		; `string'
CONST	ENDS
;	COMDAT ??_C@_05ODMCMJAJ@skill?$AA@
CONST	SEGMENT
??_C@_05ODMCMJAJ@skill?$AA@ DB 'skill', 00H		; `string'
CONST	ENDS
;	COMDAT ??_C@_0N@FLHBELCJ@maxitemlevel?$AA@
CONST	SEGMENT
??_C@_0N@FLHBELCJ@maxitemlevel?$AA@ DB 'maxitemlevel', 00H ; `string'
CONST	ENDS
;	COMDAT ??_C@_09MAIOKHFJ@moneyrate?$AA@
CONST	SEGMENT
??_C@_09MAIOKHFJ@moneyrate?$AA@ DB 'moneyrate', 00H	; `string'
CONST	ENDS
;	COMDAT ??_C@_08OHDCEAKF@itemrate?$AA@
CONST	SEGMENT
??_C@_08OHDCEAKF@itemrate?$AA@ DB 'itemrate', 00H	; `string'
CONST	ENDS
;	COMDAT ??_C@_09HGIEBAJ@attribute?$AA@
CONST	SEGMENT
??_C@_09HGIEBAJ@attribute?$AA@ DB 'attribute', 00H	; `string'
CONST	ENDS
;	COMDAT ??_C@_09NLJKJLBK@regentime?$AA@
CONST	SEGMENT
??_C@_09NLJKJLBK@regentime?$AA@ DB 'regentime', 00H	; `string'
CONST	ENDS
;	COMDAT ??_C@_0M@CNFIAIDN@attackspeed?$AA@
CONST	SEGMENT
??_C@_0M@CNFIAIDN@attackspeed?$AA@ DB 'attackspeed', 00H ; `string'
CONST	ENDS
;	COMDAT ??_C@_09DPBGJCJA@movespeed?$AA@
CONST	SEGMENT
??_C@_09DPBGJCJA@movespeed?$AA@ DB 'movespeed', 00H	; `string'
CONST	ENDS
;	COMDAT ??_C@_09MKHFCFJD@viewrange?$AA@
CONST	SEGMENT
??_C@_09MKHFCFJD@viewrange?$AA@ DB 'viewrange', 00H	; `string'
CONST	ENDS
;	COMDAT ??_C@_0M@HGBKAHIE@attackrange?$AA@
CONST	SEGMENT
??_C@_0M@HGBKAHIE@attackrange?$AA@ DB 'attackrange', 00H ; `string'
CONST	ENDS
;	COMDAT ??_C@_0L@MFPNOHLP@attacktype?$AA@
CONST	SEGMENT
??_C@_0L@MFPNOHLP@attacktype?$AA@ DB 'attacktype', 00H	; `string'
CONST	ENDS
;	COMDAT ??_C@_09GEFEJNCJ@moverange?$AA@
CONST	SEGMENT
??_C@_09GEFEJNCJ@moverange?$AA@ DB 'moverange', 00H	; `string'
CONST	ENDS
;	COMDAT ??_C@_09OJGMFGCF@blockrate?$AA@
CONST	SEGMENT
??_C@_09OJGMFGCF@blockrate?$AA@ DB 'blockrate', 00H	; `string'
CONST	ENDS
;	COMDAT ??_C@_0L@NIBJMFLD@attackrate?$AA@
CONST	SEGMENT
??_C@_0L@NIBJMFLD@attackrate?$AA@ DB 'attackrate', 00H	; `string'
CONST	ENDS
;	COMDAT ??_C@_07NEJDADE@defense?$AA@
CONST	SEGMENT
??_C@_07NEJDADE@defense?$AA@ DB 'defense', 00H		; `string'
CONST	ENDS
;	COMDAT ??_C@_09MKNCOOLH@damagemax?$AA@
CONST	SEGMENT
??_C@_09MKNCOOLH@damagemax?$AA@ DB 'damagemax', 00H	; `string'
CONST	ENDS
;	COMDAT ??_C@_09NIFJAKNI@damagemin?$AA@
CONST	SEGMENT
??_C@_09NIFJAKNI@damagemin?$AA@ DB 'damagemin', 00H	; `string'
CONST	ENDS
;	COMDAT ??_C@_02GPIOAHGI@mp?$AA@
CONST	SEGMENT
??_C@_02GPIOAHGI@mp?$AA@ DB 'mp', 00H			; `string'
CONST	ENDS
;	COMDAT ??_C@_02GJEFMFID@hp?$AA@
CONST	SEGMENT
??_C@_02GJEFMFID@hp?$AA@ DB 'hp', 00H			; `string'
CONST	ENDS
;	COMDAT ??_C@_05KJNJLLGA@level?$AA@
CONST	SEGMENT
??_C@_05KJNJLLGA@level?$AA@ DB 'level', 00H		; `string'
CONST	ENDS
;	COMDAT ??_C@_04HCCHHEEF@rate?$AA@
CONST	SEGMENT
??_C@_04HCCHHEEF@rate?$AA@ DB 'rate', 00H		; `string'
CONST	ENDS
;	COMDAT ??_C@_04MEMAJGDJ@name?$AA@
CONST	SEGMENT
??_C@_04MEMAJGDJ@name?$AA@ DB 'name', 00H		; `string'
CONST	ENDS
;	COMDAT ??_C@_02EGCJHIOB@id?$AA@
CONST	SEGMENT
??_C@_02EGCJHIOB@id?$AA@ DB 'id', 00H			; `string'
CONST	ENDS
;	COMDAT ??_C@_07JHAJHILB@monster?$AA@
CONST	SEGMENT
??_C@_07JHAJHILB@monster?$AA@ DB 'monster', 00H		; `string'
CONST	ENDS
;	COMDAT ??_C@_0M@KBGBPIEP@monsterinfo?$AA@
CONST	SEGMENT
??_C@_0M@KBGBPIEP@monsterinfo?$AA@ DB 'monsterinfo', 00H ; `string'
CONST	ENDS
;	COMDAT ??_C@_0CB@HHHOJCCJ@?$FLMonsterAttr?$FN?5File?5?$CFs?5not?5found?$CB@
CONST	SEGMENT
??_C@_0CB@HHHOJCCJ@?$FLMonsterAttr?$FN?5File?5?$CFs?5not?5found?$CB@ DB '['
	DB	'MonsterAttr] File %s not found!', 00H	; `string'
CONST	ENDS
;	COMDAT ??_7CCustomMonsterAttr@@6B@
CONST	SEGMENT
??_7CCustomMonsterAttr@@6B@ DD FLAT:??_R4CCustomMonsterAttr@@6B@ ; CCustomMonsterAttr::`vftable'
	DD	FLAT:??_ECCustomMonsterAttr@@UAEPAXI@Z
CONST	ENDS
;	COMDAT ??_7CMonsterAttr@@6B@
CONST	SEGMENT
??_7CMonsterAttr@@6B@ DD FLAT:??_R4CMonsterAttr@@6B@	; CMonsterAttr::`vftable'
	DD	FLAT:??_ECMonsterAttr@@UAEPAXI@Z
CONST	ENDS
;	COMDAT ??_C@_00CNPNBAHC@?$AA@
CONST	SEGMENT
??_C@_00CNPNBAHC@?$AA@ DB 00H				; `string'
CONST	ENDS
;	COMDAT xdata$x
xdata$x	SEGMENT
__catchsym$??$_Insert_nohint@AAU?$pair@$$CBHPAUCUSTOM_MONSTER_ATTR@@@std@@PAU?$_Tree_node@U?$pair@$$CBHPAUCUSTOM_MONSTER_ATTR@@@std@@PAX@2@@?$_Tree@V?$_Tmap_traits@HPAUCUSTOM_MONSTER_ATTR@@U?$less@H@std@@V?$allocator@U?$pair@$$CBHPAUCUSTOM_MONSTER_ATTR@@@std@@@3@$0A@@std@@@std@@IAE?AU?$pair@V?$_Tree_iterator@V?$_Tree_val@U?$_Tree_simple_types@U?$pair@$$CBHPAUCUSTOM_MONSTER_ATTR@@@std@@@std@@@std@@@std@@_N@1@_NAAU?$pair@$$CBHPAUCUSTOM_MONSTER_ATTR@@@1@PAU?$_Tree_node@U?$pair@$$CBHPAUCUSTOM_MONSTER_ATTR@@@std@@PAX@1@@Z$58 DD 040H
	DD	00H
	DD	00H
	DD	FLAT:__catch$??$_Insert_nohint@AAU?$pair@$$CBHPAUCUSTOM_MONSTER_ATTR@@@std@@PAU?$_Tree_node@U?$pair@$$CBHPAUCUSTOM_MONSTER_ATTR@@@std@@PAX@2@@?$_Tree@V?$_Tmap_traits@HPAUCUSTOM_MONSTER_ATTR@@U?$less@H@std@@V?$allocator@U?$pair@$$CBHPAUCUSTOM_MONSTER_ATTR@@@std@@@3@$0A@@std@@@std@@IAE?AU?$pair@V?$_Tree_iterator@V?$_Tree_val@U?$_Tree_simple_types@U?$pair@$$CBHPAUCUSTOM_MONSTER_ATTR@@@std@@@std@@@std@@@std@@_N@1@_NAAU?$pair@$$CBHPAUCUSTOM_MONSTER_ATTR@@@1@PAU?$_Tree_node@U?$pair@$$CBHPAUCUSTOM_MONSTER_ATTR@@@std@@PAX@1@@Z$0
__unwindtable$??$_Insert_nohint@AAU?$pair@$$CBHPAUCUSTOM_MONSTER_ATTR@@@std@@PAU?$_Tree_node@U?$pair@$$CBHPAUCUSTOM_MONSTER_ATTR@@@std@@PAX@2@@?$_Tree@V?$_Tmap_traits@HPAUCUSTOM_MONSTER_ATTR@@U?$less@H@std@@V?$allocator@U?$pair@$$CBHPAUCUSTOM_MONSTER_ATTR@@@std@@@3@$0A@@std@@@std@@IAE?AU?$pair@V?$_Tree_iterator@V?$_Tree_val@U?$_Tree_simple_types@U?$pair@$$CBHPAUCUSTOM_MONSTER_ATTR@@@std@@@std@@@std@@@std@@_N@1@_NAAU?$pair@$$CBHPAUCUSTOM_MONSTER_ATTR@@@1@PAU?$_Tree_node@U?$pair@$$CBHPAUCUSTOM_MONSTER_ATTR@@@std@@PAX@1@@Z DD 0ffffffffH
	DD	00H
	DD	0ffffffffH
	DD	00H
__tryblocktable$??$_Insert_nohint@AAU?$pair@$$CBHPAUCUSTOM_MONSTER_ATTR@@@std@@PAU?$_Tree_node@U?$pair@$$CBHPAUCUSTOM_MONSTER_ATTR@@@std@@PAX@2@@?$_Tree@V?$_Tmap_traits@HPAUCUSTOM_MONSTER_ATTR@@U?$less@H@std@@V?$allocator@U?$pair@$$CBHPAUCUSTOM_MONSTER_ATTR@@@std@@@3@$0A@@std@@@std@@IAE?AU?$pair@V?$_Tree_iterator@V?$_Tree_val@U?$_Tree_simple_types@U?$pair@$$CBHPAUCUSTOM_MONSTER_ATTR@@@std@@@std@@@std@@@std@@_N@1@_NAAU?$pair@$$CBHPAUCUSTOM_MONSTER_ATTR@@@1@PAU?$_Tree_node@U?$pair@$$CBHPAUCUSTOM_MONSTER_ATTR@@@std@@PAX@1@@Z DD 00H
	DD	00H
	DD	01H
	DD	01H
	DD	FLAT:__catchsym$??$_Insert_nohint@AAU?$pair@$$CBHPAUCUSTOM_MONSTER_ATTR@@@std@@PAU?$_Tree_node@U?$pair@$$CBHPAUCUSTOM_MONSTER_ATTR@@@std@@PAX@2@@?$_Tree@V?$_Tmap_traits@HPAUCUSTOM_MONSTER_ATTR@@U?$less@H@std@@V?$allocator@U?$pair@$$CBHPAUCUSTOM_MONSTER_ATTR@@@std@@@3@$0A@@std@@@std@@IAE?AU?$pair@V?$_Tree_iterator@V?$_Tree_val@U?$_Tree_simple_types@U?$pair@$$CBHPAUCUSTOM_MONSTER_ATTR@@@std@@@std@@@std@@@std@@_N@1@_NAAU?$pair@$$CBHPAUCUSTOM_MONSTER_ATTR@@@1@PAU?$_Tree_node@U?$pair@$$CBHPAUCUSTOM_MONSTER_ATTR@@@std@@PAX@1@@Z$58
__ehfuncinfo$??$_Insert_nohint@AAU?$pair@$$CBHPAUCUSTOM_MONSTER_ATTR@@@std@@PAU?$_Tree_node@U?$pair@$$CBHPAUCUSTOM_MONSTER_ATTR@@@std@@PAX@2@@?$_Tree@V?$_Tmap_traits@HPAUCUSTOM_MONSTER_ATTR@@U?$less@H@std@@V?$allocator@U?$pair@$$CBHPAUCUSTOM_MONSTER_ATTR@@@std@@@3@$0A@@std@@@std@@IAE?AU?$pair@V?$_Tree_iterator@V?$_Tree_val@U?$_Tree_simple_types@U?$pair@$$CBHPAUCUSTOM_MONSTER_ATTR@@@std@@@std@@@std@@@std@@_N@1@_NAAU?$pair@$$CBHPAUCUSTOM_MONSTER_ATTR@@@1@PAU?$_Tree_node@U?$pair@$$CBHPAUCUSTOM_MONSTER_ATTR@@@std@@PAX@1@@Z DD 019930522H
	DD	02H
	DD	FLAT:__unwindtable$??$_Insert_nohint@AAU?$pair@$$CBHPAUCUSTOM_MONSTER_ATTR@@@std@@PAU?$_Tree_node@U?$pair@$$CBHPAUCUSTOM_MONSTER_ATTR@@@std@@PAX@2@@?$_Tree@V?$_Tmap_traits@HPAUCUSTOM_MONSTER_ATTR@@U?$less@H@std@@V?$allocator@U?$pair@$$CBHPAUCUSTOM_MONSTER_ATTR@@@std@@@3@$0A@@std@@@std@@IAE?AU?$pair@V?$_Tree_iterator@V?$_Tree_val@U?$_Tree_simple_types@U?$pair@$$CBHPAUCUSTOM_MONSTER_ATTR@@@std@@@std@@@std@@@std@@_N@1@_NAAU?$pair@$$CBHPAUCUSTOM_MONSTER_ATTR@@@1@PAU?$_Tree_node@U?$pair@$$CBHPAUCUSTOM_MONSTER_ATTR@@@std@@PAX@1@@Z
	DD	01H
	DD	FLAT:__tryblocktable$??$_Insert_nohint@AAU?$pair@$$CBHPAUCUSTOM_MONSTER_ATTR@@@std@@PAU?$_Tree_node@U?$pair@$$CBHPAUCUSTOM_MONSTER_ATTR@@@std@@PAX@2@@?$_Tree@V?$_Tmap_traits@HPAUCUSTOM_MONSTER_ATTR@@U?$less@H@std@@V?$allocator@U?$pair@$$CBHPAUCUSTOM_MONSTER_ATTR@@@std@@@3@$0A@@std@@@std@@IAE?AU?$pair@V?$_Tree_iterator@V?$_Tree_val@U?$_Tree_simple_types@U?$pair@$$CBHPAUCUSTOM_MONSTER_ATTR@@@std@@@std@@@std@@@std@@_N@1@_NAAU?$pair@$$CBHPAUCUSTOM_MONSTER_ATTR@@@1@PAU?$_Tree_node@U?$pair@$$CBHPAUCUSTOM_MONSTER_ATTR@@@std@@PAX@1@@Z
	DD	2 DUP(00H)
	DD	00H
	DD	01H
xdata$x	ENDS
;	COMDAT xdata$x
xdata$x	SEGMENT
__ehfuncinfo$?clear@?$_Tree@V?$_Tmap_traits@HPAUCUSTOM_MONSTER_ATTR@@U?$less@H@std@@V?$allocator@U?$pair@$$CBHPAUCUSTOM_MONSTER_ATTR@@@std@@@3@$0A@@std@@@std@@QAEXXZ DD 019930522H
	DD	00H
	DD	00H
	DD	2 DUP(00H)
	DD	2 DUP(00H)
	DD	00H
	DD	05H
xdata$x	ENDS
;	COMDAT xdata$x
xdata$x	SEGMENT
__unwindtable$?Load@CCustomMonsterAttr@@QAEXPAD@Z DD 0ffffffffH
	DD	FLAT:__unwindfunclet$?Load@CCustomMonsterAttr@@QAEXPAD@Z$0
	DD	00H
	DD	FLAT:__unwindfunclet$?Load@CCustomMonsterAttr@@QAEXPAD@Z$27
__ehfuncinfo$?Load@CCustomMonsterAttr@@QAEXPAD@Z DD 019930522H
	DD	02H
	DD	FLAT:__unwindtable$?Load@CCustomMonsterAttr@@QAEXPAD@Z
	DD	2 DUP(00H)
	DD	2 DUP(00H)
	DD	00H
	DD	01H
xdata$x	ENDS
;	COMDAT xdata$x
xdata$x	SEGMENT
__catchsym$?_Reallocate@?$vector@UMONSTER_ATTRIBUTE@@V?$allocator@UMONSTER_ATTRIBUTE@@@std@@@std@@IAEXI@Z$50 DD 040H
	DD	00H
	DD	00H
	DD	FLAT:__catch$?_Reallocate@?$vector@UMONSTER_ATTRIBUTE@@V?$allocator@UMONSTER_ATTRIBUTE@@@std@@@std@@IAEXI@Z$0
__unwindtable$?_Reallocate@?$vector@UMONSTER_ATTRIBUTE@@V?$allocator@UMONSTER_ATTRIBUTE@@@std@@@std@@IAEXI@Z DD 0ffffffffH
	DD	00H
	DD	0ffffffffH
	DD	00H
__tryblocktable$?_Reallocate@?$vector@UMONSTER_ATTRIBUTE@@V?$allocator@UMONSTER_ATTRIBUTE@@@std@@@std@@IAEXI@Z DD 00H
	DD	00H
	DD	01H
	DD	01H
	DD	FLAT:__catchsym$?_Reallocate@?$vector@UMONSTER_ATTRIBUTE@@V?$allocator@UMONSTER_ATTRIBUTE@@@std@@@std@@IAEXI@Z$50
__ehfuncinfo$?_Reallocate@?$vector@UMONSTER_ATTRIBUTE@@V?$allocator@UMONSTER_ATTRIBUTE@@@std@@@std@@IAEXI@Z DD 019930522H
	DD	02H
	DD	FLAT:__unwindtable$?_Reallocate@?$vector@UMONSTER_ATTRIBUTE@@V?$allocator@UMONSTER_ATTRIBUTE@@@std@@@std@@IAEXI@Z
	DD	01H
	DD	FLAT:__tryblocktable$?_Reallocate@?$vector@UMONSTER_ATTRIBUTE@@V?$allocator@UMONSTER_ATTRIBUTE@@@std@@@std@@IAEXI@Z
	DD	2 DUP(00H)
	DD	00H
	DD	01H
xdata$x	ENDS
;	COMDAT xdata$x
xdata$x	SEGMENT
__unwindtable$?LoadAttr@CMonsterAttr@@QAEXPAD@Z DD 0ffffffffH
	DD	FLAT:__unwindfunclet$?LoadAttr@CMonsterAttr@@QAEXPAD@Z$0
__ehfuncinfo$?LoadAttr@CMonsterAttr@@QAEXPAD@Z DD 019930522H
	DD	01H
	DD	FLAT:__unwindtable$?LoadAttr@CMonsterAttr@@QAEXPAD@Z
	DD	2 DUP(00H)
	DD	2 DUP(00H)
	DD	00H
	DD	01H
xdata$x	ENDS
;	COMDAT xdata$x
xdata$x	SEGMENT
__ehfuncinfo$??_EOBJECTSTRUCT@@QAEPAXI@Z DD 019930522H
	DD	00H
	DD	00H
	DD	2 DUP(00H)
	DD	2 DUP(00H)
	DD	00H
	DD	05H
xdata$x	ENDS
; Function compile flags: /Ogtp
; File c:\program files (x86)\microsoft visual studio 14.0\vc\include\xmemory0
;	COMDAT ??$construct@UMONSTER_ATTRIBUTE@@U1@@?$allocator@UMONSTER_ATTRIBUTE@@@std@@QAEXPAUMONSTER_ATTRIBUTE@@$$QAU2@@Z
_TEXT	SEGMENT
__Ptr$ = 8						; size = 4
_<_Args_0>$ = 12					; size = 4
??$construct@UMONSTER_ATTRIBUTE@@U1@@?$allocator@UMONSTER_ATTRIBUTE@@@std@@QAEXPAUMONSTER_ATTRIBUTE@@$$QAU2@@Z PROC ; std::allocator<MONSTER_ATTRIBUTE>::construct<MONSTER_ATTRIBUTE,MONSTER_ATTRIBUTE>, COMDAT
; _this$ = ecx

; 654  : 		{	// construct _Objty(_Types...) at _Ptr

  00000	55		 push	 ebp
  00001	8b ec		 mov	 ebp, esp
  00003	57		 push	 edi

; 655  : 		::new ((void *)_Ptr) _Objty(_STD forward<_Types>(_Args)...);

  00004	8b 7d 08	 mov	 edi, DWORD PTR __Ptr$[ebp]
  00007	85 ff		 test	 edi, edi
  00009	74 0c		 je	 SHORT $LN3@construct
  0000b	56		 push	 esi
  0000c	8b 75 0c	 mov	 esi, DWORD PTR _<_Args_0>$[ebp]
  0000f	b9 2f 00 00 00	 mov	 ecx, 47			; 0000002fH
  00014	f3 a5		 rep movsd
  00016	5e		 pop	 esi
$LN3@construct:
  00017	5f		 pop	 edi

; 656  : 		}

  00018	5d		 pop	 ebp
  00019	c2 08 00	 ret	 8
??$construct@UMONSTER_ATTRIBUTE@@U1@@?$allocator@UMONSTER_ATTRIBUTE@@@std@@QAEXPAUMONSTER_ATTRIBUTE@@$$QAU2@@Z ENDP ; std::allocator<MONSTER_ATTRIBUTE>::construct<MONSTER_ATTRIBUTE,MONSTER_ATTRIBUTE>
_TEXT	ENDS
; Function compile flags: /Ogtp
; File c:\program files (x86)\microsoft visual studio 14.0\vc\include\type_traits
;	COMDAT ??$forward@PAUCUSTOM_MONSTER_ATTR@@@std@@YA$$QAPAUCUSTOM_MONSTER_ATTR@@AAPAU1@@Z
_TEXT	SEGMENT
__Arg$ = 8						; size = 4
??$forward@PAUCUSTOM_MONSTER_ATTR@@@std@@YA$$QAPAUCUSTOM_MONSTER_ATTR@@AAPAU1@@Z PROC ; std::forward<CUSTOM_MONSTER_ATTR *>, COMDAT

; 1233 : 	{	// forward an lvalue as either an lvalue or an rvalue

  00000	55		 push	 ebp
  00001	8b ec		 mov	 ebp, esp

; 1234 : 	return (static_cast<_Ty&&>(_Arg));

  00003	8b 45 08	 mov	 eax, DWORD PTR __Arg$[ebp]

; 1235 : 	}

  00006	5d		 pop	 ebp
  00007	c3		 ret	 0
??$forward@PAUCUSTOM_MONSTER_ATTR@@@std@@YA$$QAPAUCUSTOM_MONSTER_ATTR@@AAPAU1@@Z ENDP ; std::forward<CUSTOM_MONSTER_ATTR *>
_TEXT	ENDS
; Function compile flags: /Ogtp
; File c:\program files (x86)\microsoft visual studio 14.0\vc\include\type_traits
;	COMDAT ??$forward@H@std@@YA$$QAHAAH@Z
_TEXT	SEGMENT
__Arg$ = 8						; size = 4
??$forward@H@std@@YA$$QAHAAH@Z PROC			; std::forward<int>, COMDAT

; 1233 : 	{	// forward an lvalue as either an lvalue or an rvalue

  00000	55		 push	 ebp
  00001	8b ec		 mov	 ebp, esp

; 1234 : 	return (static_cast<_Ty&&>(_Arg));

  00003	8b 45 08	 mov	 eax, DWORD PTR __Arg$[ebp]

; 1235 : 	}

  00006	5d		 pop	 ebp
  00007	c3		 ret	 0
??$forward@H@std@@YA$$QAHAAH@Z ENDP			; std::forward<int>
_TEXT	ENDS
; Function compile flags: /Ogtp
; File c:\program files (x86)\microsoft visual studio 14.0\vc\include\xmemory0
;	COMDAT ??$construct@UMONSTER_ATTRIBUTE@@U1@@?$allocator_traits@V?$allocator@UMONSTER_ATTRIBUTE@@@std@@@std@@SAXAAV?$allocator@UMONSTER_ATTRIBUTE@@@1@PAUMONSTER_ATTRIBUTE@@$$QAU3@@Z
_TEXT	SEGMENT
__Al$ = 8						; size = 4
__Ptr$ = 12						; size = 4
_<_Args_0>$ = 16					; size = 4
??$construct@UMONSTER_ATTRIBUTE@@U1@@?$allocator_traits@V?$allocator@UMONSTER_ATTRIBUTE@@@std@@@std@@SAXAAV?$allocator@UMONSTER_ATTRIBUTE@@@1@PAUMONSTER_ATTRIBUTE@@$$QAU3@@Z PROC ; std::allocator_traits<std::allocator<MONSTER_ATTRIBUTE> >::construct<MONSTER_ATTRIBUTE,MONSTER_ATTRIBUTE>, COMDAT

; 772  : 		{	// construct _Objty(_Types...) at _Ptr

  00000	55		 push	 ebp
  00001	8b ec		 mov	 ebp, esp
  00003	57		 push	 edi

; 655  : 		::new ((void *)_Ptr) _Objty(_STD forward<_Types>(_Args)...);

  00004	8b 7d 0c	 mov	 edi, DWORD PTR __Ptr$[ebp]
  00007	85 ff		 test	 edi, edi
  00009	74 0c		 je	 SHORT $LN8@construct
  0000b	56		 push	 esi
  0000c	8b 75 10	 mov	 esi, DWORD PTR _<_Args_0>$[ebp]
  0000f	b9 2f 00 00 00	 mov	 ecx, 47			; 0000002fH
  00014	f3 a5		 rep movsd
  00016	5e		 pop	 esi
$LN8@construct:
  00017	5f		 pop	 edi

; 773  : 		_Al.construct(_Ptr, _STD forward<_Types>(_Args)...);
; 774  : 		}

  00018	5d		 pop	 ebp
  00019	c3		 ret	 0
??$construct@UMONSTER_ATTRIBUTE@@U1@@?$allocator_traits@V?$allocator@UMONSTER_ATTRIBUTE@@@std@@@std@@SAXAAV?$allocator@UMONSTER_ATTRIBUTE@@@1@PAUMONSTER_ATTRIBUTE@@$$QAU3@@Z ENDP ; std::allocator_traits<std::allocator<MONSTER_ATTRIBUTE> >::construct<MONSTER_ATTRIBUTE,MONSTER_ATTRIBUTE>
_TEXT	ENDS
; Function compile flags: /Ogtp
; File c:\program files (x86)\microsoft visual studio 14.0\vc\include\type_traits
;	COMDAT ??$forward@UMONSTER_ATTRIBUTE@@@std@@YA$$QAUMONSTER_ATTRIBUTE@@AAU1@@Z
_TEXT	SEGMENT
__Arg$ = 8						; size = 4
??$forward@UMONSTER_ATTRIBUTE@@@std@@YA$$QAUMONSTER_ATTRIBUTE@@AAU1@@Z PROC ; std::forward<MONSTER_ATTRIBUTE>, COMDAT

; 1233 : 	{	// forward an lvalue as either an lvalue or an rvalue

  00000	55		 push	 ebp
  00001	8b ec		 mov	 ebp, esp

; 1234 : 	return (static_cast<_Ty&&>(_Arg));

  00003	8b 45 08	 mov	 eax, DWORD PTR __Arg$[ebp]

; 1235 : 	}

  00006	5d		 pop	 ebp
  00007	c3		 ret	 0
??$forward@UMONSTER_ATTRIBUTE@@@std@@YA$$QAUMONSTER_ATTRIBUTE@@AAU1@@Z ENDP ; std::forward<MONSTER_ATTRIBUTE>
_TEXT	ENDS
; Function compile flags: /Ogtp
; File c:\program files (x86)\microsoft visual studio 14.0\vc\include\xmemory0
;	COMDAT ??$construct@UMONSTER_ATTRIBUTE@@U1@@?$_Wrap_alloc@V?$allocator@UMONSTER_ATTRIBUTE@@@std@@@std@@QAEXPAUMONSTER_ATTRIBUTE@@$$QAU2@@Z
_TEXT	SEGMENT
__Ptr$ = 8						; size = 4
_<_Args_0>$ = 12					; size = 4
??$construct@UMONSTER_ATTRIBUTE@@U1@@?$_Wrap_alloc@V?$allocator@UMONSTER_ATTRIBUTE@@@std@@@std@@QAEXPAUMONSTER_ATTRIBUTE@@$$QAU2@@Z PROC ; std::_Wrap_alloc<std::allocator<MONSTER_ATTRIBUTE> >::construct<MONSTER_ATTRIBUTE,MONSTER_ATTRIBUTE>, COMDAT
; _this$ = ecx

; 916  : 		{	// construct _Ty(_Types...) at _Ptr

  00000	55		 push	 ebp
  00001	8b ec		 mov	 ebp, esp
  00003	57		 push	 edi

; 655  : 		::new ((void *)_Ptr) _Objty(_STD forward<_Types>(_Args)...);

  00004	8b 7d 08	 mov	 edi, DWORD PTR __Ptr$[ebp]
  00007	85 ff		 test	 edi, edi
  00009	74 0c		 je	 SHORT $LN13@construct
  0000b	56		 push	 esi
  0000c	8b 75 0c	 mov	 esi, DWORD PTR _<_Args_0>$[ebp]
  0000f	b9 2f 00 00 00	 mov	 ecx, 47			; 0000002fH
  00014	f3 a5		 rep movsd
  00016	5e		 pop	 esi
$LN13@construct:
  00017	5f		 pop	 edi

; 917  : 		_Mytraits::construct(*this, _Ptr,
; 918  : 			_STD forward<_Types>(_Args)...);
; 919  : 		}

  00018	5d		 pop	 ebp
  00019	c2 08 00	 ret	 8
??$construct@UMONSTER_ATTRIBUTE@@U1@@?$_Wrap_alloc@V?$allocator@UMONSTER_ATTRIBUTE@@@std@@@std@@QAEXPAUMONSTER_ATTRIBUTE@@$$QAU2@@Z ENDP ; std::_Wrap_alloc<std::allocator<MONSTER_ATTRIBUTE> >::construct<MONSTER_ATTRIBUTE,MONSTER_ATTRIBUTE>
_TEXT	ENDS
; Function compile flags: /Ogtp
; File c:\program files (x86)\microsoft visual studio 14.0\vc\include\xmemory0
;	COMDAT ??$destroy@UMONSTER_ATTRIBUTE@@@?$allocator@UMONSTER_ATTRIBUTE@@@std@@QAEXPAUMONSTER_ATTRIBUTE@@@Z
_TEXT	SEGMENT
__Ptr$ = 8						; size = 4
??$destroy@UMONSTER_ATTRIBUTE@@@?$allocator@UMONSTER_ATTRIBUTE@@@std@@QAEXPAUMONSTER_ATTRIBUTE@@@Z PROC ; std::allocator<MONSTER_ATTRIBUTE>::destroy<MONSTER_ATTRIBUTE>, COMDAT
; _this$ = ecx

; 662  : 		_Ptr->~_Uty();
; 663  : 		}

  00000	c2 04 00	 ret	 4
??$destroy@UMONSTER_ATTRIBUTE@@@?$allocator@UMONSTER_ATTRIBUTE@@@std@@QAEXPAUMONSTER_ATTRIBUTE@@@Z ENDP ; std::allocator<MONSTER_ATTRIBUTE>::destroy<MONSTER_ATTRIBUTE>
_TEXT	ENDS
; Function compile flags: /Ogtp
; File c:\program files (x86)\microsoft visual studio 14.0\vc\include\xmemory0
; File c:\program files (x86)\microsoft visual studio 14.0\vc\include\utility
; File c:\program files (x86)\microsoft visual studio 14.0\vc\include\xmemory0
;	COMDAT ??$construct@U?$pair@$$CBHPAUCUSTOM_MONSTER_ATTR@@@std@@U?$pair@HPAUCUSTOM_MONSTER_ATTR@@@2@@?$allocator@U?$_Tree_node@U?$pair@$$CBHPAUCUSTOM_MONSTER_ATTR@@@std@@PAX@std@@@std@@QAEXPAU?$pair@$$CBHPAUCUSTOM_MONSTER_ATTR@@@1@$$QAU?$pair@HPAUCUSTOM_MONSTER_ATTR@@@1@@Z
_TEXT	SEGMENT
__Ptr$ = 8						; size = 4
_<_Args_0>$ = 12					; size = 4
??$construct@U?$pair@$$CBHPAUCUSTOM_MONSTER_ATTR@@@std@@U?$pair@HPAUCUSTOM_MONSTER_ATTR@@@2@@?$allocator@U?$_Tree_node@U?$pair@$$CBHPAUCUSTOM_MONSTER_ATTR@@@std@@PAX@std@@@std@@QAEXPAU?$pair@$$CBHPAUCUSTOM_MONSTER_ATTR@@@1@$$QAU?$pair@HPAUCUSTOM_MONSTER_ATTR@@@1@@Z PROC ; std::allocator<std::_Tree_node<std::pair<int const ,CUSTOM_MONSTER_ATTR *>,void *> >::construct<std::pair<int const ,CUSTOM_MONSTER_ATTR *>,std::pair<int,CUSTOM_MONSTER_ATTR *> >, COMDAT
; _this$ = ecx

; 654  : 		{	// construct _Objty(_Types...) at _Ptr

  00000	55		 push	 ebp
  00001	8b ec		 mov	 ebp, esp

; 655  : 		::new ((void *)_Ptr) _Objty(_STD forward<_Types>(_Args)...);

  00003	8b 55 08	 mov	 edx, DWORD PTR __Ptr$[ebp]
  00006	85 d2		 test	 edx, edx
  00008	74 0d		 je	 SHORT $LN3@construct
; File c:\program files (x86)\microsoft visual studio 14.0\vc\include\utility

; 156  : 		: first(_STD forward<_Other1>(_Right.first)),

  0000a	8b 4d 0c	 mov	 ecx, DWORD PTR _<_Args_0>$[ebp]
  0000d	8b 01		 mov	 eax, DWORD PTR [ecx]
  0000f	89 02		 mov	 DWORD PTR [edx], eax

; 157  : 			second(_STD forward<_Other2>(_Right.second))

  00011	8b 41 04	 mov	 eax, DWORD PTR [ecx+4]
  00014	89 42 04	 mov	 DWORD PTR [edx+4], eax
$LN3@construct:
; File c:\program files (x86)\microsoft visual studio 14.0\vc\include\xmemory0

; 656  : 		}

  00017	5d		 pop	 ebp
  00018	c2 08 00	 ret	 8
??$construct@U?$pair@$$CBHPAUCUSTOM_MONSTER_ATTR@@@std@@U?$pair@HPAUCUSTOM_MONSTER_ATTR@@@2@@?$allocator@U?$_Tree_node@U?$pair@$$CBHPAUCUSTOM_MONSTER_ATTR@@@std@@PAX@std@@@std@@QAEXPAU?$pair@$$CBHPAUCUSTOM_MONSTER_ATTR@@@1@$$QAU?$pair@HPAUCUSTOM_MONSTER_ATTR@@@1@@Z ENDP ; std::allocator<std::_Tree_node<std::pair<int const ,CUSTOM_MONSTER_ATTR *>,void *> >::construct<std::pair<int const ,CUSTOM_MONSTER_ATTR *>,std::pair<int,CUSTOM_MONSTER_ATTR *> >
_TEXT	ENDS
; Function compile flags: /Ogtp
; File c:\program files (x86)\microsoft visual studio 14.0\vc\include\xmemory
; File c:\program files (x86)\microsoft visual studio 14.0\vc\include\xmemory0
; File c:\program files (x86)\microsoft visual studio 14.0\vc\include\xmemory
;	COMDAT ??$_Uninit_move@PAUMONSTER_ATTRIBUTE@@PAU1@V?$allocator@UMONSTER_ATTRIBUTE@@@std@@U1@@std@@YAPAUMONSTER_ATTRIBUTE@@PAU1@00AAU?$_Wrap_alloc@V?$allocator@UMONSTER_ATTRIBUTE@@@std@@@0@0U_Nonscalar_ptr_iterator_tag@0@@Z
_TEXT	SEGMENT
__First$ = 8						; size = 4
__Last$ = 12						; size = 4
__Dest$ = 16						; size = 4
__Al$ = 20						; size = 4
___formal$ = 24						; size = 4
___formal$ = 28						; size = 1
??$_Uninit_move@PAUMONSTER_ATTRIBUTE@@PAU1@V?$allocator@UMONSTER_ATTRIBUTE@@@std@@U1@@std@@YAPAUMONSTER_ATTRIBUTE@@PAU1@00AAU?$_Wrap_alloc@V?$allocator@UMONSTER_ATTRIBUTE@@@std@@@0@0U_Nonscalar_ptr_iterator_tag@0@@Z PROC ; std::_Uninit_move<MONSTER_ATTRIBUTE *,MONSTER_ATTRIBUTE *,std::allocator<MONSTER_ATTRIBUTE>,MONSTER_ATTRIBUTE>, COMDAT

; 437  : 	{	// move [_First, _Last) to raw _Dest, using _Al, arbitrary type

  00000	55		 push	 ebp
  00001	8b ec		 mov	 ebp, esp

; 442  : 	for (; _First != _Last; ++_Dest, (void)++_First)

  00003	8b 55 08	 mov	 edx, DWORD PTR __First$[ebp]
  00006	8b 45 10	 mov	 eax, DWORD PTR __Dest$[ebp]
  00009	53		 push	 ebx
  0000a	8b 5d 0c	 mov	 ebx, DWORD PTR __Last$[ebp]
  0000d	3b d3		 cmp	 edx, ebx
  0000f	74 22		 je	 SHORT $LN3@Uninit_mov
  00011	56		 push	 esi
  00012	57		 push	 edi
$LL4@Uninit_mov:
; File c:\program files (x86)\microsoft visual studio 14.0\vc\include\xmemory0

; 655  : 		::new ((void *)_Ptr) _Objty(_STD forward<_Types>(_Args)...);

  00013	85 c0		 test	 eax, eax
  00015	74 0b		 je	 SHORT $LN2@Uninit_mov
  00017	b9 2f 00 00 00	 mov	 ecx, 47			; 0000002fH
  0001c	8b f2		 mov	 esi, edx
  0001e	8b f8		 mov	 edi, eax
  00020	f3 a5		 rep movsd
$LN2@Uninit_mov:
; File c:\program files (x86)\microsoft visual studio 14.0\vc\include\xmemory

; 442  : 	for (; _First != _Last; ++_Dest, (void)++_First)

  00022	81 c2 bc 00 00
	00		 add	 edx, 188		; 000000bcH
  00028	05 bc 00 00 00	 add	 eax, 188		; 000000bcH
  0002d	3b d3		 cmp	 edx, ebx
  0002f	75 e2		 jne	 SHORT $LL4@Uninit_mov
  00031	5f		 pop	 edi
  00032	5e		 pop	 esi
$LN3@Uninit_mov:
  00033	5b		 pop	 ebx

; 443  : 		_Al.construct(_Dest, (_Valty&&)*_First);
; 444  : 	_CATCH_ALL
; 445  : 	for (; _Next != _Dest; ++_Next)
; 446  : 		_Al.destroy(_Next);
; 447  : 	_RERAISE;
; 448  : 	_CATCH_END
; 449  : 	return (_Dest);
; 450  : 	}

  00034	5d		 pop	 ebp
  00035	c3		 ret	 0
??$_Uninit_move@PAUMONSTER_ATTRIBUTE@@PAU1@V?$allocator@UMONSTER_ATTRIBUTE@@@std@@U1@@std@@YAPAUMONSTER_ATTRIBUTE@@PAU1@00AAU?$_Wrap_alloc@V?$allocator@UMONSTER_ATTRIBUTE@@@std@@@0@0U_Nonscalar_ptr_iterator_tag@0@@Z ENDP ; std::_Uninit_move<MONSTER_ATTRIBUTE *,MONSTER_ATTRIBUTE *,std::allocator<MONSTER_ATTRIBUTE>,MONSTER_ATTRIBUTE>
_TEXT	ENDS
; Function compile flags: /Ogtp
; File c:\program files (x86)\microsoft visual studio 14.0\vc\include\xutility
;	COMDAT ??$_Val_type@PAUMONSTER_ATTRIBUTE@@@std@@YAPAUMONSTER_ATTRIBUTE@@PAU1@@Z
_TEXT	SEGMENT
___formal$ = 8						; size = 4
??$_Val_type@PAUMONSTER_ATTRIBUTE@@@std@@YAPAUMONSTER_ATTRIBUTE@@PAU1@@Z PROC ; std::_Val_type<MONSTER_ATTRIBUTE *>, COMDAT

; 875  : 	return (0);

  00000	33 c0		 xor	 eax, eax

; 876  : 	}

  00002	c3		 ret	 0
??$_Val_type@PAUMONSTER_ATTRIBUTE@@@std@@YAPAUMONSTER_ATTRIBUTE@@PAU1@@Z ENDP ; std::_Val_type<MONSTER_ATTRIBUTE *>
_TEXT	ENDS
; Function compile flags: /Ogtp
; File c:\program files (x86)\microsoft visual studio 14.0\vc\include\xmemory0
;	COMDAT ??$destroy@UMONSTER_ATTRIBUTE@@@?$allocator_traits@V?$allocator@UMONSTER_ATTRIBUTE@@@std@@@std@@SAXAAV?$allocator@UMONSTER_ATTRIBUTE@@@1@PAUMONSTER_ATTRIBUTE@@@Z
_TEXT	SEGMENT
__Al$ = 8						; size = 4
__Ptr$ = 12						; size = 4
??$destroy@UMONSTER_ATTRIBUTE@@@?$allocator_traits@V?$allocator@UMONSTER_ATTRIBUTE@@@std@@@std@@SAXAAV?$allocator@UMONSTER_ATTRIBUTE@@@1@PAUMONSTER_ATTRIBUTE@@@Z PROC ; std::allocator_traits<std::allocator<MONSTER_ATTRIBUTE> >::destroy<MONSTER_ATTRIBUTE>, COMDAT

; 780  : 		_Al.destroy(_Ptr);
; 781  : 		}

  00000	c3		 ret	 0
??$destroy@UMONSTER_ATTRIBUTE@@@?$allocator_traits@V?$allocator@UMONSTER_ATTRIBUTE@@@std@@@std@@SAXAAV?$allocator@UMONSTER_ATTRIBUTE@@@1@PAUMONSTER_ATTRIBUTE@@@Z ENDP ; std::allocator_traits<std::allocator<MONSTER_ATTRIBUTE> >::destroy<MONSTER_ATTRIBUTE>
_TEXT	ENDS
; Function compile flags: /Ogtp
; File c:\program files (x86)\microsoft visual studio 14.0\vc\include\xstddef
;	COMDAT ??$_Addressof@UMONSTER_ATTRIBUTE@@@std@@YAPAUMONSTER_ATTRIBUTE@@AAU1@U?$integral_constant@_N$0A@@0@@Z
_TEXT	SEGMENT
__Val$ = 8						; size = 4
___formal$ = 12						; size = 1
??$_Addressof@UMONSTER_ATTRIBUTE@@@std@@YAPAUMONSTER_ATTRIBUTE@@AAU1@U?$integral_constant@_N$0A@@0@@Z PROC ; std::_Addressof<MONSTER_ATTRIBUTE>, COMDAT

; 688  : 	{	// return address of object _Val

  00000	55		 push	 ebp
  00001	8b ec		 mov	 ebp, esp

; 689  : 	return (reinterpret_cast<_Ty *>(

  00003	8b 45 08	 mov	 eax, DWORD PTR __Val$[ebp]

; 690  : 		&const_cast<char&>(
; 691  : 		reinterpret_cast<const volatile char&>(_Val))));
; 692  : 	}

  00006	5d		 pop	 ebp
  00007	c3		 ret	 0
??$_Addressof@UMONSTER_ATTRIBUTE@@@std@@YAPAUMONSTER_ATTRIBUTE@@AAU1@U?$integral_constant@_N$0A@@0@@Z ENDP ; std::_Addressof<MONSTER_ATTRIBUTE>
_TEXT	ENDS
; Function compile flags: /Ogtp
; File c:\program files (x86)\microsoft visual studio 14.0\vc\include\type_traits
;	COMDAT ??$forward@AAV?$_Tree_iterator@V?$_Tree_val@U?$_Tree_simple_types@U?$pair@$$CBHPAUCUSTOM_MONSTER_ATTR@@@std@@@std@@@std@@@std@@@std@@YAAAV?$_Tree_iterator@V?$_Tree_val@U?$_Tree_simple_types@U?$pair@$$CBHPAUCUSTOM_MONSTER_ATTR@@@std@@@std@@@std@@@0@AAV10@@Z
_TEXT	SEGMENT
__Arg$ = 8						; size = 4
??$forward@AAV?$_Tree_iterator@V?$_Tree_val@U?$_Tree_simple_types@U?$pair@$$CBHPAUCUSTOM_MONSTER_ATTR@@@std@@@std@@@std@@@std@@@std@@YAAAV?$_Tree_iterator@V?$_Tree_val@U?$_Tree_simple_types@U?$pair@$$CBHPAUCUSTOM_MONSTER_ATTR@@@std@@@std@@@std@@@0@AAV10@@Z PROC ; std::forward<std::_Tree_iterator<std::_Tree_val<std::_Tree_simple_types<std::pair<int const ,CUSTOM_MONSTER_ATTR *> > > > &>, COMDAT

; 1233 : 	{	// forward an lvalue as either an lvalue or an rvalue

  00000	55		 push	 ebp
  00001	8b ec		 mov	 ebp, esp

; 1234 : 	return (static_cast<_Ty&&>(_Arg));

  00003	8b 45 08	 mov	 eax, DWORD PTR __Arg$[ebp]

; 1235 : 	}

  00006	5d		 pop	 ebp
  00007	c3		 ret	 0
??$forward@AAV?$_Tree_iterator@V?$_Tree_val@U?$_Tree_simple_types@U?$pair@$$CBHPAUCUSTOM_MONSTER_ATTR@@@std@@@std@@@std@@@std@@@std@@YAAAV?$_Tree_iterator@V?$_Tree_val@U?$_Tree_simple_types@U?$pair@$$CBHPAUCUSTOM_MONSTER_ATTR@@@std@@@std@@@std@@@0@AAV10@@Z ENDP ; std::forward<std::_Tree_iterator<std::_Tree_val<std::_Tree_simple_types<std::pair<int const ,CUSTOM_MONSTER_ATTR *> > > > &>
_TEXT	ENDS
; Function compile flags: /Ogtp
; File c:\program files (x86)\microsoft visual studio 14.0\vc\include\type_traits
;	COMDAT ??$forward@_N@std@@YA$$QA_NAA_N@Z
_TEXT	SEGMENT
__Arg$ = 8						; size = 4
??$forward@_N@std@@YA$$QA_NAA_N@Z PROC			; std::forward<bool>, COMDAT

; 1233 : 	{	// forward an lvalue as either an lvalue or an rvalue

  00000	55		 push	 ebp
  00001	8b ec		 mov	 ebp, esp

; 1234 : 	return (static_cast<_Ty&&>(_Arg));

  00003	8b 45 08	 mov	 eax, DWORD PTR __Arg$[ebp]

; 1235 : 	}

  00006	5d		 pop	 ebp
  00007	c3		 ret	 0
??$forward@_N@std@@YA$$QA_NAA_N@Z ENDP			; std::forward<bool>
_TEXT	ENDS
; Function compile flags: /Ogtp
; File c:\program files (x86)\microsoft visual studio 14.0\vc\include\type_traits
;	COMDAT ??$forward@V?$_Tree_iterator@V?$_Tree_val@U?$_Tree_simple_types@U?$pair@$$CBHPAUCUSTOM_MONSTER_ATTR@@@std@@@std@@@std@@@std@@@std@@YA$$QAV?$_Tree_iterator@V?$_Tree_val@U?$_Tree_simple_types@U?$pair@$$CBHPAUCUSTOM_MONSTER_ATTR@@@std@@@std@@@std@@@0@AAV10@@Z
_TEXT	SEGMENT
__Arg$ = 8						; size = 4
??$forward@V?$_Tree_iterator@V?$_Tree_val@U?$_Tree_simple_types@U?$pair@$$CBHPAUCUSTOM_MONSTER_ATTR@@@std@@@std@@@std@@@std@@@std@@YA$$QAV?$_Tree_iterator@V?$_Tree_val@U?$_Tree_simple_types@U?$pair@$$CBHPAUCUSTOM_MONSTER_ATTR@@@std@@@std@@@std@@@0@AAV10@@Z PROC ; std::forward<std::_Tree_iterator<std::_Tree_val<std::_Tree_simple_types<std::pair<int const ,CUSTOM_MONSTER_ATTR *> > > > >, COMDAT

; 1233 : 	{	// forward an lvalue as either an lvalue or an rvalue

  00000	55		 push	 ebp
  00001	8b ec		 mov	 ebp, esp

; 1234 : 	return (static_cast<_Ty&&>(_Arg));

  00003	8b 45 08	 mov	 eax, DWORD PTR __Arg$[ebp]

; 1235 : 	}

  00006	5d		 pop	 ebp
  00007	c3		 ret	 0
??$forward@V?$_Tree_iterator@V?$_Tree_val@U?$_Tree_simple_types@U?$pair@$$CBHPAUCUSTOM_MONSTER_ATTR@@@std@@@std@@@std@@@std@@@std@@YA$$QAV?$_Tree_iterator@V?$_Tree_val@U?$_Tree_simple_types@U?$pair@$$CBHPAUCUSTOM_MONSTER_ATTR@@@std@@@std@@@std@@@0@AAV10@@Z ENDP ; std::forward<std::_Tree_iterator<std::_Tree_val<std::_Tree_simple_types<std::pair<int const ,CUSTOM_MONSTER_ATTR *> > > > >
_TEXT	ENDS
; Function compile flags: /Ogtp
; File c:\program files (x86)\microsoft visual studio 14.0\vc\include\xtree
;	COMDAT ??$_Buynode_if_nil@AAU?$pair@$$CBHPAUCUSTOM_MONSTER_ATTR@@@std@@@?$_Tree@V?$_Tmap_traits@HPAUCUSTOM_MONSTER_ATTR@@U?$less@H@std@@V?$allocator@U?$pair@$$CBHPAUCUSTOM_MONSTER_ATTR@@@std@@@3@$0A@@std@@@std@@IAEPAU?$_Tree_node@U?$pair@$$CBHPAUCUSTOM_MONSTER_ATTR@@@std@@PAX@1@PAU21@AAU?$pair@$$CBHPAUCUSTOM_MONSTER_ATTR@@@1@@Z
_TEXT	SEGMENT
__Node$ = 8						; size = 4
___formal$ = 12						; size = 4
??$_Buynode_if_nil@AAU?$pair@$$CBHPAUCUSTOM_MONSTER_ATTR@@@std@@@?$_Tree@V?$_Tmap_traits@HPAUCUSTOM_MONSTER_ATTR@@U?$less@H@std@@V?$allocator@U?$pair@$$CBHPAUCUSTOM_MONSTER_ATTR@@@std@@@3@$0A@@std@@@std@@IAEPAU?$_Tree_node@U?$pair@$$CBHPAUCUSTOM_MONSTER_ATTR@@@std@@PAX@1@PAU21@AAU?$pair@$$CBHPAUCUSTOM_MONSTER_ATTR@@@1@@Z PROC ; std::_Tree<std::_Tmap_traits<int,CUSTOM_MONSTER_ATTR *,std::less<int>,std::allocator<std::pair<int const ,CUSTOM_MONSTER_ATTR *> >,0> >::_Buynode_if_nil<std::pair<int const ,CUSTOM_MONSTER_ATTR *> &>, COMDAT
; _this$ = ecx

; 1657 : 		{	// node exists, just return it

  00000	55		 push	 ebp
  00001	8b ec		 mov	 ebp, esp

; 1658 : 		return (_Node);

  00003	8b 45 08	 mov	 eax, DWORD PTR __Node$[ebp]

; 1659 : 		}

  00006	5d		 pop	 ebp
  00007	c2 08 00	 ret	 8
??$_Buynode_if_nil@AAU?$pair@$$CBHPAUCUSTOM_MONSTER_ATTR@@@std@@@?$_Tree@V?$_Tmap_traits@HPAUCUSTOM_MONSTER_ATTR@@U?$less@H@std@@V?$allocator@U?$pair@$$CBHPAUCUSTOM_MONSTER_ATTR@@@std@@@3@$0A@@std@@@std@@IAEPAU?$_Tree_node@U?$pair@$$CBHPAUCUSTOM_MONSTER_ATTR@@@std@@PAX@1@PAU21@AAU?$pair@$$CBHPAUCUSTOM_MONSTER_ATTR@@@1@@Z ENDP ; std::_Tree<std::_Tmap_traits<int,CUSTOM_MONSTER_ATTR *,std::less<int>,std::allocator<std::pair<int const ,CUSTOM_MONSTER_ATTR *> >,0> >::_Buynode_if_nil<std::pair<int const ,CUSTOM_MONSTER_ATTR *> &>
_TEXT	ENDS
; Function compile flags: /Ogtp
; File c:\program files (x86)\microsoft visual studio 14.0\vc\include\xmemory0
; File c:\program files (x86)\microsoft visual studio 14.0\vc\include\utility
; File c:\program files (x86)\microsoft visual studio 14.0\vc\include\xmemory0
;	COMDAT ??$construct@U?$pair@$$CBHPAUCUSTOM_MONSTER_ATTR@@@std@@U?$pair@HPAUCUSTOM_MONSTER_ATTR@@@2@@?$allocator_traits@V?$allocator@U?$_Tree_node@U?$pair@$$CBHPAUCUSTOM_MONSTER_ATTR@@@std@@PAX@std@@@std@@@std@@SAXAAV?$allocator@U?$_Tree_node@U?$pair@$$CBHPAUCUSTOM_MONSTER_ATTR@@@std@@PAX@std@@@1@PAU?$pair@$$CBHPAUCUSTOM_MONSTER_ATTR@@@1@$$QAU?$pair@HPAUCUSTOM_MONSTER_ATTR@@@1@@Z
_TEXT	SEGMENT
__Al$ = 8						; size = 4
__Ptr$ = 12						; size = 4
_<_Args_0>$ = 16					; size = 4
??$construct@U?$pair@$$CBHPAUCUSTOM_MONSTER_ATTR@@@std@@U?$pair@HPAUCUSTOM_MONSTER_ATTR@@@2@@?$allocator_traits@V?$allocator@U?$_Tree_node@U?$pair@$$CBHPAUCUSTOM_MONSTER_ATTR@@@std@@PAX@std@@@std@@@std@@SAXAAV?$allocator@U?$_Tree_node@U?$pair@$$CBHPAUCUSTOM_MONSTER_ATTR@@@std@@PAX@std@@@1@PAU?$pair@$$CBHPAUCUSTOM_MONSTER_ATTR@@@1@$$QAU?$pair@HPAUCUSTOM_MONSTER_ATTR@@@1@@Z PROC ; std::allocator_traits<std::allocator<std::_Tree_node<std::pair<int const ,CUSTOM_MONSTER_ATTR *>,void *> > >::construct<std::pair<int const ,CUSTOM_MONSTER_ATTR *>,std::pair<int,CUSTOM_MONSTER_ATTR *> >, COMDAT

; 772  : 		{	// construct _Objty(_Types...) at _Ptr

  00000	55		 push	 ebp
  00001	8b ec		 mov	 ebp, esp

; 655  : 		::new ((void *)_Ptr) _Objty(_STD forward<_Types>(_Args)...);

  00003	8b 55 0c	 mov	 edx, DWORD PTR __Ptr$[ebp]
  00006	85 d2		 test	 edx, edx
  00008	74 0d		 je	 SHORT $LN8@construct
; File c:\program files (x86)\microsoft visual studio 14.0\vc\include\utility

; 156  : 		: first(_STD forward<_Other1>(_Right.first)),

  0000a	8b 4d 10	 mov	 ecx, DWORD PTR _<_Args_0>$[ebp]
  0000d	8b 01		 mov	 eax, DWORD PTR [ecx]
  0000f	89 02		 mov	 DWORD PTR [edx], eax

; 157  : 			second(_STD forward<_Other2>(_Right.second))

  00011	8b 41 04	 mov	 eax, DWORD PTR [ecx+4]
  00014	89 42 04	 mov	 DWORD PTR [edx+4], eax
$LN8@construct:
; File c:\program files (x86)\microsoft visual studio 14.0\vc\include\xmemory0

; 774  : 		}

  00017	5d		 pop	 ebp
  00018	c3		 ret	 0
??$construct@U?$pair@$$CBHPAUCUSTOM_MONSTER_ATTR@@@std@@U?$pair@HPAUCUSTOM_MONSTER_ATTR@@@2@@?$allocator_traits@V?$allocator@U?$_Tree_node@U?$pair@$$CBHPAUCUSTOM_MONSTER_ATTR@@@std@@PAX@std@@@std@@@std@@SAXAAV?$allocator@U?$_Tree_node@U?$pair@$$CBHPAUCUSTOM_MONSTER_ATTR@@@std@@PAX@std@@@1@PAU?$pair@$$CBHPAUCUSTOM_MONSTER_ATTR@@@1@$$QAU?$pair@HPAUCUSTOM_MONSTER_ATTR@@@1@@Z ENDP ; std::allocator_traits<std::allocator<std::_Tree_node<std::pair<int const ,CUSTOM_MONSTER_ATTR *>,void *> > >::construct<std::pair<int const ,CUSTOM_MONSTER_ATTR *>,std::pair<int,CUSTOM_MONSTER_ATTR *> >
_TEXT	ENDS
; Function compile flags: /Ogtp
; File c:\program files (x86)\microsoft visual studio 14.0\vc\include\map
;	COMDAT ??$_Kfn@$$CBHPAUCUSTOM_MONSTER_ATTR@@@?$_Tmap_traits@HPAUCUSTOM_MONSTER_ATTR@@U?$less@H@std@@V?$allocator@U?$pair@$$CBHPAUCUSTOM_MONSTER_ATTR@@@std@@@3@$0A@@std@@SAABHABU?$pair@$$CBHPAUCUSTOM_MONSTER_ATTR@@@1@@Z
_TEXT	SEGMENT
__Val$ = 8						; size = 4
??$_Kfn@$$CBHPAUCUSTOM_MONSTER_ATTR@@@?$_Tmap_traits@HPAUCUSTOM_MONSTER_ATTR@@U?$less@H@std@@V?$allocator@U?$pair@$$CBHPAUCUSTOM_MONSTER_ATTR@@@std@@@3@$0A@@std@@SAABHABU?$pair@$$CBHPAUCUSTOM_MONSTER_ATTR@@@1@@Z PROC ; std::_Tmap_traits<int,CUSTOM_MONSTER_ATTR *,std::less<int>,std::allocator<std::pair<int const ,CUSTOM_MONSTER_ATTR *> >,0>::_Kfn<int const ,CUSTOM_MONSTER_ATTR *>, COMDAT

; 61   : 		{	// extract key from element value

  00000	55		 push	 ebp
  00001	8b ec		 mov	 ebp, esp

; 62   : 		return (_Val.first);

  00003	8b 45 08	 mov	 eax, DWORD PTR __Val$[ebp]

; 63   : 		}

  00006	5d		 pop	 ebp
  00007	c3		 ret	 0
??$_Kfn@$$CBHPAUCUSTOM_MONSTER_ATTR@@@?$_Tmap_traits@HPAUCUSTOM_MONSTER_ATTR@@U?$less@H@std@@V?$allocator@U?$pair@$$CBHPAUCUSTOM_MONSTER_ATTR@@@std@@@3@$0A@@std@@SAABHABU?$pair@$$CBHPAUCUSTOM_MONSTER_ATTR@@@1@@Z ENDP ; std::_Tmap_traits<int,CUSTOM_MONSTER_ATTR *,std::less<int>,std::allocator<std::pair<int const ,CUSTOM_MONSTER_ATTR *> >,0>::_Kfn<int const ,CUSTOM_MONSTER_ATTR *>
_TEXT	ENDS
; Function compile flags: /Ogtp
; File c:\program files (x86)\microsoft visual studio 14.0\vc\include\xmemory0
;	COMDAT ??$construct@PAU?$_Tree_node@U?$pair@$$CBHPAUCUSTOM_MONSTER_ATTR@@@std@@PAX@std@@AAPAU12@@?$allocator@U?$_Tree_node@U?$pair@$$CBHPAUCUSTOM_MONSTER_ATTR@@@std@@PAX@std@@@std@@QAEXPAPAU?$_Tree_node@U?$pair@$$CBHPAUCUSTOM_MONSTER_ATTR@@@std@@PAX@1@AAPAU21@@Z
_TEXT	SEGMENT
__Ptr$ = 8						; size = 4
_<_Args_0>$ = 12					; size = 4
??$construct@PAU?$_Tree_node@U?$pair@$$CBHPAUCUSTOM_MONSTER_ATTR@@@std@@PAX@std@@AAPAU12@@?$allocator@U?$_Tree_node@U?$pair@$$CBHPAUCUSTOM_MONSTER_ATTR@@@std@@PAX@std@@@std@@QAEXPAPAU?$_Tree_node@U?$pair@$$CBHPAUCUSTOM_MONSTER_ATTR@@@std@@PAX@1@AAPAU21@@Z PROC ; std::allocator<std::_Tree_node<std::pair<int const ,CUSTOM_MONSTER_ATTR *>,void *> >::construct<std::_Tree_node<std::pair<int const ,CUSTOM_MONSTER_ATTR *>,void *> *,std::_Tree_node<std::pair<int const ,CUSTOM_MONSTER_ATTR *>,void *> * &>, COMDAT
; _this$ = ecx

; 654  : 		{	// construct _Objty(_Types...) at _Ptr

  00000	55		 push	 ebp
  00001	8b ec		 mov	 ebp, esp

; 655  : 		::new ((void *)_Ptr) _Objty(_STD forward<_Types>(_Args)...);

  00003	8b 4d 08	 mov	 ecx, DWORD PTR __Ptr$[ebp]
  00006	85 c9		 test	 ecx, ecx
  00008	74 07		 je	 SHORT $LN3@construct
  0000a	8b 45 0c	 mov	 eax, DWORD PTR _<_Args_0>$[ebp]
  0000d	8b 00		 mov	 eax, DWORD PTR [eax]
  0000f	89 01		 mov	 DWORD PTR [ecx], eax
$LN3@construct:

; 656  : 		}

  00011	5d		 pop	 ebp
  00012	c2 08 00	 ret	 8
??$construct@PAU?$_Tree_node@U?$pair@$$CBHPAUCUSTOM_MONSTER_ATTR@@@std@@PAX@std@@AAPAU12@@?$allocator@U?$_Tree_node@U?$pair@$$CBHPAUCUSTOM_MONSTER_ATTR@@@std@@PAX@std@@@std@@QAEXPAPAU?$_Tree_node@U?$pair@$$CBHPAUCUSTOM_MONSTER_ATTR@@@std@@PAX@1@AAPAU21@@Z ENDP ; std::allocator<std::_Tree_node<std::pair<int const ,CUSTOM_MONSTER_ATTR *>,void *> >::construct<std::_Tree_node<std::pair<int const ,CUSTOM_MONSTER_ATTR *>,void *> *,std::_Tree_node<std::pair<int const ,CUSTOM_MONSTER_ATTR *>,void *> * &>
_TEXT	ENDS
; Function compile flags: /Ogtp
; File c:\program files (x86)\microsoft visual studio 14.0\vc\include\xutility
;	COMDAT ??$_Rechecked@PAUMONSTER_ATTRIBUTE@@PAU1@@std@@YAAAPAUMONSTER_ATTRIBUTE@@AAPAU1@PAU1@@Z
_TEXT	SEGMENT
__Dest$ = 8						; size = 4
__Src$ = 12						; size = 4
??$_Rechecked@PAUMONSTER_ATTRIBUTE@@PAU1@@std@@YAAAPAUMONSTER_ATTRIBUTE@@AAPAU1@PAU1@@Z PROC ; std::_Rechecked<MONSTER_ATTRIBUTE *,MONSTER_ATTRIBUTE *>, COMDAT

; 446  : 	{	// reset checked from unchecked, generic

  00000	55		 push	 ebp
  00001	8b ec		 mov	 ebp, esp

; 447  : 	_Dest = _Src;

  00003	8b 45 08	 mov	 eax, DWORD PTR __Dest$[ebp]
  00006	8b 4d 0c	 mov	 ecx, DWORD PTR __Src$[ebp]
  00009	89 08		 mov	 DWORD PTR [eax], ecx

; 448  : 	return (_Dest);
; 449  : 	}

  0000b	5d		 pop	 ebp
  0000c	c3		 ret	 0
??$_Rechecked@PAUMONSTER_ATTRIBUTE@@PAU1@@std@@YAAAPAUMONSTER_ATTRIBUTE@@AAPAU1@PAU1@@Z ENDP ; std::_Rechecked<MONSTER_ATTRIBUTE *,MONSTER_ATTRIBUTE *>
_TEXT	ENDS
; Function compile flags: /Ogtp
; File c:\program files (x86)\microsoft visual studio 14.0\vc\include\xmemory
;	COMDAT ??$_Uninit_move@PAUMONSTER_ATTRIBUTE@@PAU1@U?$_Wrap_alloc@V?$allocator@UMONSTER_ATTRIBUTE@@@std@@@std@@@std@@YAPAUMONSTER_ATTRIBUTE@@PAU1@00AAU?$_Wrap_alloc@V?$allocator@UMONSTER_ATTRIBUTE@@@std@@@0@@Z
_TEXT	SEGMENT
__Cat$1 = -4						; size = 1
__First$ = 8						; size = 4
__Last$ = 12						; size = 4
__Dest$ = 16						; size = 4
__Al$ = 20						; size = 4
??$_Uninit_move@PAUMONSTER_ATTRIBUTE@@PAU1@U?$_Wrap_alloc@V?$allocator@UMONSTER_ATTRIBUTE@@@std@@@std@@@std@@YAPAUMONSTER_ATTRIBUTE@@PAU1@00AAU?$_Wrap_alloc@V?$allocator@UMONSTER_ATTRIBUTE@@@std@@@0@@Z PROC ; std::_Uninit_move<MONSTER_ATTRIBUTE *,MONSTER_ATTRIBUTE *,std::_Wrap_alloc<std::allocator<MONSTER_ATTRIBUTE> > >, COMDAT

; 480  : 	{	// move [_First, _Last) to raw _Dest, using _Al

  00000	55		 push	 ebp
  00001	8b ec		 mov	 ebp, esp
  00003	51		 push	 ecx

; 481  : 	return (_Uninit_move(_First, _Last, _Dest, _Al,

  00004	ff 75 fc	 push	 DWORD PTR __Cat$1[ebp]
  00007	6a 00		 push	 0
  00009	ff 75 14	 push	 DWORD PTR __Al$[ebp]
  0000c	ff 75 10	 push	 DWORD PTR __Dest$[ebp]
  0000f	ff 75 0c	 push	 DWORD PTR __Last$[ebp]
  00012	ff 75 08	 push	 DWORD PTR __First$[ebp]
  00015	e8 00 00 00 00	 call	 ??$_Uninit_move@PAUMONSTER_ATTRIBUTE@@PAU1@V?$allocator@UMONSTER_ATTRIBUTE@@@std@@U1@@std@@YAPAUMONSTER_ATTRIBUTE@@PAU1@00AAU?$_Wrap_alloc@V?$allocator@UMONSTER_ATTRIBUTE@@@std@@@0@0U_Nonscalar_ptr_iterator_tag@0@@Z ; std::_Uninit_move<MONSTER_ATTRIBUTE *,MONSTER_ATTRIBUTE *,std::allocator<MONSTER_ATTRIBUTE>,MONSTER_ATTRIBUTE>
  0001a	83 c4 18	 add	 esp, 24			; 00000018H

; 482  : 		_Val_type(_First), _Ptr_cat(_First, _Dest)));
; 483  : 	}

  0001d	8b e5		 mov	 esp, ebp
  0001f	5d		 pop	 ebp
  00020	c3		 ret	 0
??$_Uninit_move@PAUMONSTER_ATTRIBUTE@@PAU1@U?$_Wrap_alloc@V?$allocator@UMONSTER_ATTRIBUTE@@@std@@@std@@@std@@YAPAUMONSTER_ATTRIBUTE@@PAU1@00AAU?$_Wrap_alloc@V?$allocator@UMONSTER_ATTRIBUTE@@@std@@@0@@Z ENDP ; std::_Uninit_move<MONSTER_ATTRIBUTE *,MONSTER_ATTRIBUTE *,std::_Wrap_alloc<std::allocator<MONSTER_ATTRIBUTE> > >
_TEXT	ENDS
; Function compile flags: /Ogtp
; File c:\program files (x86)\microsoft visual studio 14.0\vc\include\xutility
;	COMDAT ??$_Unchecked@PAUMONSTER_ATTRIBUTE@@@std@@YAPAUMONSTER_ATTRIBUTE@@PAU1@@Z
_TEXT	SEGMENT
__Src$ = 8						; size = 4
??$_Unchecked@PAUMONSTER_ATTRIBUTE@@@std@@YAPAUMONSTER_ATTRIBUTE@@PAU1@@Z PROC ; std::_Unchecked<MONSTER_ATTRIBUTE *>, COMDAT

; 438  : 	{	// construct unchecked from checked, generic

  00000	55		 push	 ebp
  00001	8b ec		 mov	 ebp, esp

; 439  : 	return (_Src);

  00003	8b 45 08	 mov	 eax, DWORD PTR __Src$[ebp]

; 440  : 	}

  00006	5d		 pop	 ebp
  00007	c3		 ret	 0
??$_Unchecked@PAUMONSTER_ATTRIBUTE@@@std@@YAPAUMONSTER_ATTRIBUTE@@PAU1@@Z ENDP ; std::_Unchecked<MONSTER_ATTRIBUTE *>
_TEXT	ENDS
; Function compile flags: /Ogtp
; File c:\program files (x86)\microsoft visual studio 14.0\vc\include\xmemory0
;	COMDAT ??$?0U?$pair@$$CBHPAUCUSTOM_MONSTER_ATTR@@@std@@@?$allocator@U?$_Tree_node@U?$pair@$$CBHPAUCUSTOM_MONSTER_ATTR@@@std@@PAX@std@@@std@@QAE@ABV?$allocator@U?$pair@$$CBHPAUCUSTOM_MONSTER_ATTR@@@std@@@1@@Z
_TEXT	SEGMENT
___formal$ = 8						; size = 4
??$?0U?$pair@$$CBHPAUCUSTOM_MONSTER_ATTR@@@std@@@?$allocator@U?$_Tree_node@U?$pair@$$CBHPAUCUSTOM_MONSTER_ATTR@@@std@@PAX@std@@@std@@QAE@ABV?$allocator@U?$pair@$$CBHPAUCUSTOM_MONSTER_ATTR@@@std@@@1@@Z PROC ; std::allocator<std::_Tree_node<std::pair<int const ,CUSTOM_MONSTER_ATTR *>,void *> >::allocator<std::_Tree_node<std::pair<int const ,CUSTOM_MONSTER_ATTR *>,void *> ><std::pair<int const ,CUSTOM_MONSTER_ATTR *> >, COMDAT
; _this$ = ecx

; 628  : 		}

  00000	8b c1		 mov	 eax, ecx
  00002	c2 04 00	 ret	 4
??$?0U?$pair@$$CBHPAUCUSTOM_MONSTER_ATTR@@@std@@@?$allocator@U?$_Tree_node@U?$pair@$$CBHPAUCUSTOM_MONSTER_ATTR@@@std@@PAX@std@@@std@@QAE@ABV?$allocator@U?$pair@$$CBHPAUCUSTOM_MONSTER_ATTR@@@std@@@1@@Z ENDP ; std::allocator<std::_Tree_node<std::pair<int const ,CUSTOM_MONSTER_ATTR *>,void *> >::allocator<std::_Tree_node<std::pair<int const ,CUSTOM_MONSTER_ATTR *>,void *> ><std::pair<int const ,CUSTOM_MONSTER_ATTR *> >
_TEXT	ENDS
; Function compile flags: /Ogtp
; File c:\program files (x86)\microsoft visual studio 14.0\vc\include\xmemory0
;	COMDAT ??$?0V?$allocator@U?$pair@$$CBHPAUCUSTOM_MONSTER_ATTR@@@std@@@std@@@?$_Wrap_alloc@V?$allocator@U?$_Tree_node@U?$pair@$$CBHPAUCUSTOM_MONSTER_ATTR@@@std@@PAX@std@@@std@@@std@@QAE@ABV?$allocator@U?$pair@$$CBHPAUCUSTOM_MONSTER_ATTR@@@std@@@1@@Z
_TEXT	SEGMENT
__Right$ = 8						; size = 4
??$?0V?$allocator@U?$pair@$$CBHPAUCUSTOM_MONSTER_ATTR@@@std@@@std@@@?$_Wrap_alloc@V?$allocator@U?$_Tree_node@U?$pair@$$CBHPAUCUSTOM_MONSTER_ATTR@@@std@@PAX@std@@@std@@@std@@QAE@ABV?$allocator@U?$pair@$$CBHPAUCUSTOM_MONSTER_ATTR@@@std@@@1@@Z PROC ; std::_Wrap_alloc<std::allocator<std::_Tree_node<std::pair<int const ,CUSTOM_MONSTER_ATTR *>,void *> > >::_Wrap_alloc<std::allocator<std::_Tree_node<std::pair<int const ,CUSTOM_MONSTER_ATTR *>,void *> > ><std::allocator<std::pair<int const ,CUSTOM_MONSTER_ATTR *> > >, COMDAT
; _this$ = ecx

; 869  : 		}

  00000	8b c1		 mov	 eax, ecx
  00002	c2 04 00	 ret	 4
??$?0V?$allocator@U?$pair@$$CBHPAUCUSTOM_MONSTER_ATTR@@@std@@@std@@@?$_Wrap_alloc@V?$allocator@U?$_Tree_node@U?$pair@$$CBHPAUCUSTOM_MONSTER_ATTR@@@std@@PAX@std@@@std@@@std@@QAE@ABV?$allocator@U?$pair@$$CBHPAUCUSTOM_MONSTER_ATTR@@@std@@@1@@Z ENDP ; std::_Wrap_alloc<std::allocator<std::_Tree_node<std::pair<int const ,CUSTOM_MONSTER_ATTR *>,void *> > >::_Wrap_alloc<std::allocator<std::_Tree_node<std::pair<int const ,CUSTOM_MONSTER_ATTR *>,void *> > ><std::allocator<std::pair<int const ,CUSTOM_MONSTER_ATTR *> > >
_TEXT	ENDS
; Function compile flags: /Ogtp
; File c:\program files (x86)\microsoft visual studio 14.0\vc\include\xmemory0
;	COMDAT ??$destroy@PAU?$_Tree_node@U?$pair@$$CBHPAUCUSTOM_MONSTER_ATTR@@@std@@PAX@std@@@?$allocator@U?$_Tree_node@U?$pair@$$CBHPAUCUSTOM_MONSTER_ATTR@@@std@@PAX@std@@@std@@QAEXPAPAU?$_Tree_node@U?$pair@$$CBHPAUCUSTOM_MONSTER_ATTR@@@std@@PAX@1@@Z
_TEXT	SEGMENT
__Ptr$ = 8						; size = 4
??$destroy@PAU?$_Tree_node@U?$pair@$$CBHPAUCUSTOM_MONSTER_ATTR@@@std@@PAX@std@@@?$allocator@U?$_Tree_node@U?$pair@$$CBHPAUCUSTOM_MONSTER_ATTR@@@std@@PAX@std@@@std@@QAEXPAPAU?$_Tree_node@U?$pair@$$CBHPAUCUSTOM_MONSTER_ATTR@@@std@@PAX@1@@Z PROC ; std::allocator<std::_Tree_node<std::pair<int const ,CUSTOM_MONSTER_ATTR *>,void *> >::destroy<std::_Tree_node<std::pair<int const ,CUSTOM_MONSTER_ATTR *>,void *> *>, COMDAT
; _this$ = ecx

; 662  : 		_Ptr->~_Uty();
; 663  : 		}

  00000	c2 04 00	 ret	 4
??$destroy@PAU?$_Tree_node@U?$pair@$$CBHPAUCUSTOM_MONSTER_ATTR@@@std@@PAX@std@@@?$allocator@U?$_Tree_node@U?$pair@$$CBHPAUCUSTOM_MONSTER_ATTR@@@std@@PAX@std@@@std@@QAEXPAPAU?$_Tree_node@U?$pair@$$CBHPAUCUSTOM_MONSTER_ATTR@@@std@@PAX@1@@Z ENDP ; std::allocator<std::_Tree_node<std::pair<int const ,CUSTOM_MONSTER_ATTR *>,void *> >::destroy<std::_Tree_node<std::pair<int const ,CUSTOM_MONSTER_ATTR *>,void *> *>
_TEXT	ENDS
; Function compile flags: /Ogtp
; File c:\program files (x86)\microsoft visual studio 14.0\vc\include\xmemory0
;	COMDAT ??$destroy@UMONSTER_ATTRIBUTE@@@?$_Wrap_alloc@V?$allocator@UMONSTER_ATTRIBUTE@@@std@@@std@@QAEXPAUMONSTER_ATTRIBUTE@@@Z
_TEXT	SEGMENT
__Ptr$ = 8						; size = 4
??$destroy@UMONSTER_ATTRIBUTE@@@?$_Wrap_alloc@V?$allocator@UMONSTER_ATTRIBUTE@@@std@@@std@@QAEXPAUMONSTER_ATTRIBUTE@@@Z PROC ; std::_Wrap_alloc<std::allocator<MONSTER_ATTRIBUTE> >::destroy<MONSTER_ATTRIBUTE>, COMDAT
; _this$ = ecx

; 925  : 		_Mytraits::destroy(*this, _Ptr);
; 926  : 		}

  00000	c2 04 00	 ret	 4
??$destroy@UMONSTER_ATTRIBUTE@@@?$_Wrap_alloc@V?$allocator@UMONSTER_ATTRIBUTE@@@std@@@std@@QAEXPAUMONSTER_ATTRIBUTE@@@Z ENDP ; std::_Wrap_alloc<std::allocator<MONSTER_ATTRIBUTE> >::destroy<MONSTER_ATTRIBUTE>
_TEXT	ENDS
; Function compile flags: /Ogtp
; File c:\program files (x86)\microsoft visual studio 14.0\vc\include\xstddef
;	COMDAT ??$addressof@UMONSTER_ATTRIBUTE@@@std@@YAPAUMONSTER_ATTRIBUTE@@AAU1@@Z
_TEXT	SEGMENT
__Val$ = 8						; size = 4
??$addressof@UMONSTER_ATTRIBUTE@@@std@@YAPAUMONSTER_ATTRIBUTE@@AAU1@@Z PROC ; std::addressof<MONSTER_ATTRIBUTE>, COMDAT

; 696  : 	{	// return address of _Val

  00000	55		 push	 ebp
  00001	8b ec		 mov	 ebp, esp

; 697  : 	return (_Addressof(_Val, is_function<_Ty>()));

  00003	8b 45 08	 mov	 eax, DWORD PTR __Val$[ebp]

; 698  : 	}

  00006	5d		 pop	 ebp
  00007	c3		 ret	 0
??$addressof@UMONSTER_ATTRIBUTE@@@std@@YAPAUMONSTER_ATTRIBUTE@@AAU1@@Z ENDP ; std::addressof<MONSTER_ATTRIBUTE>
_TEXT	ENDS
; Function compile flags: /Ogtp
; File c:\program files (x86)\microsoft visual studio 14.0\vc\include\xmemory0
;	COMDAT ??$destroy@U?$pair@$$CBHPAUCUSTOM_MONSTER_ATTR@@@std@@@?$allocator@U?$_Tree_node@U?$pair@$$CBHPAUCUSTOM_MONSTER_ATTR@@@std@@PAX@std@@@std@@QAEXPAU?$pair@$$CBHPAUCUSTOM_MONSTER_ATTR@@@1@@Z
_TEXT	SEGMENT
__Ptr$ = 8						; size = 4
??$destroy@U?$pair@$$CBHPAUCUSTOM_MONSTER_ATTR@@@std@@@?$allocator@U?$_Tree_node@U?$pair@$$CBHPAUCUSTOM_MONSTER_ATTR@@@std@@PAX@std@@@std@@QAEXPAU?$pair@$$CBHPAUCUSTOM_MONSTER_ATTR@@@1@@Z PROC ; std::allocator<std::_Tree_node<std::pair<int const ,CUSTOM_MONSTER_ATTR *>,void *> >::destroy<std::pair<int const ,CUSTOM_MONSTER_ATTR *> >, COMDAT
; _this$ = ecx

; 662  : 		_Ptr->~_Uty();
; 663  : 		}

  00000	c2 04 00	 ret	 4
??$destroy@U?$pair@$$CBHPAUCUSTOM_MONSTER_ATTR@@@std@@@?$allocator@U?$_Tree_node@U?$pair@$$CBHPAUCUSTOM_MONSTER_ATTR@@@std@@PAX@std@@@std@@QAEXPAU?$pair@$$CBHPAUCUSTOM_MONSTER_ATTR@@@1@@Z ENDP ; std::allocator<std::_Tree_node<std::pair<int const ,CUSTOM_MONSTER_ATTR *>,void *> >::destroy<std::pair<int const ,CUSTOM_MONSTER_ATTR *> >
_TEXT	ENDS
; Function compile flags: /Ogtp
; File c:\program files (x86)\microsoft visual studio 14.0\vc\include\xmemory0
;	COMDAT ??$construct@UMONSTER_ATTRIBUTE@@ABU1@@?$allocator@UMONSTER_ATTRIBUTE@@@std@@QAEXPAUMONSTER_ATTRIBUTE@@ABU2@@Z
_TEXT	SEGMENT
__Ptr$ = 8						; size = 4
_<_Args_0>$ = 12					; size = 4
??$construct@UMONSTER_ATTRIBUTE@@ABU1@@?$allocator@UMONSTER_ATTRIBUTE@@@std@@QAEXPAUMONSTER_ATTRIBUTE@@ABU2@@Z PROC ; std::allocator<MONSTER_ATTRIBUTE>::construct<MONSTER_ATTRIBUTE,MONSTER_ATTRIBUTE const &>, COMDAT
; _this$ = ecx

; 654  : 		{	// construct _Objty(_Types...) at _Ptr

  00000	55		 push	 ebp
  00001	8b ec		 mov	 ebp, esp
  00003	57		 push	 edi

; 655  : 		::new ((void *)_Ptr) _Objty(_STD forward<_Types>(_Args)...);

  00004	8b 7d 08	 mov	 edi, DWORD PTR __Ptr$[ebp]
  00007	85 ff		 test	 edi, edi
  00009	74 0c		 je	 SHORT $LN3@construct
  0000b	56		 push	 esi
  0000c	8b 75 0c	 mov	 esi, DWORD PTR _<_Args_0>$[ebp]
  0000f	b9 2f 00 00 00	 mov	 ecx, 47			; 0000002fH
  00014	f3 a5		 rep movsd
  00016	5e		 pop	 esi
$LN3@construct:
  00017	5f		 pop	 edi

; 656  : 		}

  00018	5d		 pop	 ebp
  00019	c2 08 00	 ret	 8
??$construct@UMONSTER_ATTRIBUTE@@ABU1@@?$allocator@UMONSTER_ATTRIBUTE@@@std@@QAEXPAUMONSTER_ATTRIBUTE@@ABU2@@Z ENDP ; std::allocator<MONSTER_ATTRIBUTE>::construct<MONSTER_ATTRIBUTE,MONSTER_ATTRIBUTE const &>
_TEXT	ENDS
; Function compile flags: /Ogtp
; File c:\program files (x86)\microsoft visual studio 14.0\vc\include\xmemory0
;	COMDAT ??$construct@UMONSTER_ATTRIBUTE@@AAU1@@?$allocator@UMONSTER_ATTRIBUTE@@@std@@QAEXPAUMONSTER_ATTRIBUTE@@AAU2@@Z
_TEXT	SEGMENT
__Ptr$ = 8						; size = 4
_<_Args_0>$ = 12					; size = 4
??$construct@UMONSTER_ATTRIBUTE@@AAU1@@?$allocator@UMONSTER_ATTRIBUTE@@@std@@QAEXPAUMONSTER_ATTRIBUTE@@AAU2@@Z PROC ; std::allocator<MONSTER_ATTRIBUTE>::construct<MONSTER_ATTRIBUTE,MONSTER_ATTRIBUTE &>, COMDAT
; _this$ = ecx

; 654  : 		{	// construct _Objty(_Types...) at _Ptr

  00000	55		 push	 ebp
  00001	8b ec		 mov	 ebp, esp
  00003	57		 push	 edi

; 655  : 		::new ((void *)_Ptr) _Objty(_STD forward<_Types>(_Args)...);

  00004	8b 7d 08	 mov	 edi, DWORD PTR __Ptr$[ebp]
  00007	85 ff		 test	 edi, edi
  00009	74 0c		 je	 SHORT $LN3@construct
  0000b	56		 push	 esi
  0000c	8b 75 0c	 mov	 esi, DWORD PTR _<_Args_0>$[ebp]
  0000f	b9 2f 00 00 00	 mov	 ecx, 47			; 0000002fH
  00014	f3 a5		 rep movsd
  00016	5e		 pop	 esi
$LN3@construct:
  00017	5f		 pop	 edi

; 656  : 		}

  00018	5d		 pop	 ebp
  00019	c2 08 00	 ret	 8
??$construct@UMONSTER_ATTRIBUTE@@AAU1@@?$allocator@UMONSTER_ATTRIBUTE@@@std@@QAEXPAUMONSTER_ATTRIBUTE@@AAU2@@Z ENDP ; std::allocator<MONSTER_ATTRIBUTE>::construct<MONSTER_ATTRIBUTE,MONSTER_ATTRIBUTE &>
_TEXT	ENDS
; Function compile flags: /Ogtp
; File c:\program files (x86)\microsoft visual studio 14.0\vc\include\utility
;	COMDAT ??$?0AAV?$_Tree_iterator@V?$_Tree_val@U?$_Tree_simple_types@U?$pair@$$CBHPAUCUSTOM_MONSTER_ATTR@@@std@@@std@@@std@@@std@@_NX@?$pair@V?$_Tree_iterator@V?$_Tree_val@U?$_Tree_simple_types@U?$pair@$$CBHPAUCUSTOM_MONSTER_ATTR@@@std@@@std@@@std@@@std@@_N@std@@QAE@AAV?$_Tree_iterator@V?$_Tree_val@U?$_Tree_simple_types@U?$pair@$$CBHPAUCUSTOM_MONSTER_ATTR@@@std@@@std@@@std@@@1@$$QA_N@Z
_TEXT	SEGMENT
__Val1$ = 8						; size = 4
__Val2$ = 12						; size = 4
??$?0AAV?$_Tree_iterator@V?$_Tree_val@U?$_Tree_simple_types@U?$pair@$$CBHPAUCUSTOM_MONSTER_ATTR@@@std@@@std@@@std@@@std@@_NX@?$pair@V?$_Tree_iterator@V?$_Tree_val@U?$_Tree_simple_types@U?$pair@$$CBHPAUCUSTOM_MONSTER_ATTR@@@std@@@std@@@std@@@std@@_N@std@@QAE@AAV?$_Tree_iterator@V?$_Tree_val@U?$_Tree_simple_types@U?$pair@$$CBHPAUCUSTOM_MONSTER_ATTR@@@std@@@std@@@std@@@1@$$QA_N@Z PROC ; std::pair<std::_Tree_iterator<std::_Tree_val<std::_Tree_simple_types<std::pair<int const ,CUSTOM_MONSTER_ATTR *> > > >,bool>::pair<std::_Tree_iterator<std::_Tree_val<std::_Tree_simple_types<std::pair<int const ,CUSTOM_MONSTER_ATTR *> > > >,bool><std::_Tree_iterator<std::_Tree_val<std::_Tree_simple_types<std::pair<int const ,CUSTOM_MONSTER_ATTR *> > > > &,bool,void>, COMDAT
; _this$ = ecx

; 145  : 		{	// construct from moved values

  00000	55		 push	 ebp
  00001	8b ec		 mov	 ebp, esp

; 143  : 		: first(_STD forward<_Other1>(_Val1)),

  00003	8b 45 08	 mov	 eax, DWORD PTR __Val1$[ebp]
  00006	8b 00		 mov	 eax, DWORD PTR [eax]
  00008	89 01		 mov	 DWORD PTR [ecx], eax

; 144  : 				second(_STD forward<_Other2>(_Val2))

  0000a	8b 45 0c	 mov	 eax, DWORD PTR __Val2$[ebp]
  0000d	8a 00		 mov	 al, BYTE PTR [eax]
  0000f	88 41 04	 mov	 BYTE PTR [ecx+4], al

; 146  : 		}

  00012	8b c1		 mov	 eax, ecx
  00014	5d		 pop	 ebp
  00015	c2 08 00	 ret	 8
??$?0AAV?$_Tree_iterator@V?$_Tree_val@U?$_Tree_simple_types@U?$pair@$$CBHPAUCUSTOM_MONSTER_ATTR@@@std@@@std@@@std@@@std@@_NX@?$pair@V?$_Tree_iterator@V?$_Tree_val@U?$_Tree_simple_types@U?$pair@$$CBHPAUCUSTOM_MONSTER_ATTR@@@std@@@std@@@std@@@std@@_N@std@@QAE@AAV?$_Tree_iterator@V?$_Tree_val@U?$_Tree_simple_types@U?$pair@$$CBHPAUCUSTOM_MONSTER_ATTR@@@std@@@std@@@std@@@1@$$QA_N@Z ENDP ; std::pair<std::_Tree_iterator<std::_Tree_val<std::_Tree_simple_types<std::pair<int const ,CUSTOM_MONSTER_ATTR *> > > >,bool>::pair<std::_Tree_iterator<std::_Tree_val<std::_Tree_simple_types<std::pair<int const ,CUSTOM_MONSTER_ATTR *> > > >,bool><std::_Tree_iterator<std::_Tree_val<std::_Tree_simple_types<std::pair<int const ,CUSTOM_MONSTER_ATTR *> > > > &,bool,void>
_TEXT	ENDS
; Function compile flags: /Ogtp
; File c:\program files (x86)\microsoft visual studio 14.0\vc\include\utility
;	COMDAT ??$?0V?$_Tree_iterator@V?$_Tree_val@U?$_Tree_simple_types@U?$pair@$$CBHPAUCUSTOM_MONSTER_ATTR@@@std@@@std@@@std@@@std@@_NX@?$pair@V?$_Tree_iterator@V?$_Tree_val@U?$_Tree_simple_types@U?$pair@$$CBHPAUCUSTOM_MONSTER_ATTR@@@std@@@std@@@std@@@std@@_N@std@@QAE@$$QAV?$_Tree_iterator@V?$_Tree_val@U?$_Tree_simple_types@U?$pair@$$CBHPAUCUSTOM_MONSTER_ATTR@@@std@@@std@@@std@@@1@$$QA_N@Z
_TEXT	SEGMENT
__Val1$ = 8						; size = 4
__Val2$ = 12						; size = 4
??$?0V?$_Tree_iterator@V?$_Tree_val@U?$_Tree_simple_types@U?$pair@$$CBHPAUCUSTOM_MONSTER_ATTR@@@std@@@std@@@std@@@std@@_NX@?$pair@V?$_Tree_iterator@V?$_Tree_val@U?$_Tree_simple_types@U?$pair@$$CBHPAUCUSTOM_MONSTER_ATTR@@@std@@@std@@@std@@@std@@_N@std@@QAE@$$QAV?$_Tree_iterator@V?$_Tree_val@U?$_Tree_simple_types@U?$pair@$$CBHPAUCUSTOM_MONSTER_ATTR@@@std@@@std@@@std@@@1@$$QA_N@Z PROC ; std::pair<std::_Tree_iterator<std::_Tree_val<std::_Tree_simple_types<std::pair<int const ,CUSTOM_MONSTER_ATTR *> > > >,bool>::pair<std::_Tree_iterator<std::_Tree_val<std::_Tree_simple_types<std::pair<int const ,CUSTOM_MONSTER_ATTR *> > > >,bool><std::_Tree_iterator<std::_Tree_val<std::_Tree_simple_types<std::pair<int const ,CUSTOM_MONSTER_ATTR *> > > >,bool,void>, COMDAT
; _this$ = ecx

; 145  : 		{	// construct from moved values

  00000	55		 push	 ebp
  00001	8b ec		 mov	 ebp, esp

; 143  : 		: first(_STD forward<_Other1>(_Val1)),

  00003	8b 45 08	 mov	 eax, DWORD PTR __Val1$[ebp]
  00006	8b 00		 mov	 eax, DWORD PTR [eax]
  00008	89 01		 mov	 DWORD PTR [ecx], eax

; 144  : 				second(_STD forward<_Other2>(_Val2))

  0000a	8b 45 0c	 mov	 eax, DWORD PTR __Val2$[ebp]
  0000d	8a 00		 mov	 al, BYTE PTR [eax]
  0000f	88 41 04	 mov	 BYTE PTR [ecx+4], al

; 146  : 		}

  00012	8b c1		 mov	 eax, ecx
  00014	5d		 pop	 ebp
  00015	c2 08 00	 ret	 8
??$?0V?$_Tree_iterator@V?$_Tree_val@U?$_Tree_simple_types@U?$pair@$$CBHPAUCUSTOM_MONSTER_ATTR@@@std@@@std@@@std@@@std@@_NX@?$pair@V?$_Tree_iterator@V?$_Tree_val@U?$_Tree_simple_types@U?$pair@$$CBHPAUCUSTOM_MONSTER_ATTR@@@std@@@std@@@std@@@std@@_N@std@@QAE@$$QAV?$_Tree_iterator@V?$_Tree_val@U?$_Tree_simple_types@U?$pair@$$CBHPAUCUSTOM_MONSTER_ATTR@@@std@@@std@@@std@@@1@$$QA_N@Z ENDP ; std::pair<std::_Tree_iterator<std::_Tree_val<std::_Tree_simple_types<std::pair<int const ,CUSTOM_MONSTER_ATTR *> > > >,bool>::pair<std::_Tree_iterator<std::_Tree_val<std::_Tree_simple_types<std::pair<int const ,CUSTOM_MONSTER_ATTR *> > > >,bool><std::_Tree_iterator<std::_Tree_val<std::_Tree_simple_types<std::pair<int const ,CUSTOM_MONSTER_ATTR *> > > >,bool,void>
_TEXT	ENDS
; Function compile flags: /Ogtp
; File c:\program files (x86)\microsoft visual studio 14.0\vc\include\xtree
; File c:\program files (x86)\microsoft visual studio 14.0\vc\include\xmemory0
; File c:\program files (x86)\microsoft visual studio 14.0\vc\include\xtree
;	COMDAT ??$_Insert_at@AAU?$pair@$$CBHPAUCUSTOM_MONSTER_ATTR@@@std@@PAU?$_Tree_node@U?$pair@$$CBHPAUCUSTOM_MONSTER_ATTR@@@std@@PAX@2@@?$_Tree@V?$_Tmap_traits@HPAUCUSTOM_MONSTER_ATTR@@U?$less@H@std@@V?$allocator@U?$pair@$$CBHPAUCUSTOM_MONSTER_ATTR@@@std@@@3@$0A@@std@@@std@@IAE?AV?$_Tree_iterator@V?$_Tree_val@U?$_Tree_simple_types@U?$pair@$$CBHPAUCUSTOM_MONSTER_ATTR@@@std@@@std@@@std@@@1@_NPAU?$_Tree_node@U?$pair@$$CBHPAUCUSTOM_MONSTER_ATTR@@@std@@PAX@1@AAU?$pair@$$CBHPAUCUSTOM_MONSTER_ATTR@@@1@1@Z
_TEXT	SEGMENT
___$ReturnUdt$ = 8					; size = 4
__Addleft$ = 12						; size = 1
__Wherenode$ = 16					; size = 4
__Val$ = 20						; size = 4
__Node$ = 24						; size = 4
??$_Insert_at@AAU?$pair@$$CBHPAUCUSTOM_MONSTER_ATTR@@@std@@PAU?$_Tree_node@U?$pair@$$CBHPAUCUSTOM_MONSTER_ATTR@@@std@@PAX@2@@?$_Tree@V?$_Tmap_traits@HPAUCUSTOM_MONSTER_ATTR@@U?$less@H@std@@V?$allocator@U?$pair@$$CBHPAUCUSTOM_MONSTER_ATTR@@@std@@@3@$0A@@std@@@std@@IAE?AV?$_Tree_iterator@V?$_Tree_val@U?$_Tree_simple_types@U?$pair@$$CBHPAUCUSTOM_MONSTER_ATTR@@@std@@@std@@@std@@@1@_NPAU?$_Tree_node@U?$pair@$$CBHPAUCUSTOM_MONSTER_ATTR@@@std@@PAX@1@AAU?$pair@$$CBHPAUCUSTOM_MONSTER_ATTR@@@1@1@Z PROC ; std::_Tree<std::_Tmap_traits<int,CUSTOM_MONSTER_ATTR *,std::less<int>,std::allocator<std::pair<int const ,CUSTOM_MONSTER_ATTR *> >,0> >::_Insert_at<std::pair<int const ,CUSTOM_MONSTER_ATTR *> &,std::_Tree_node<std::pair<int const ,CUSTOM_MONSTER_ATTR *>,void *> *>, COMDAT
; _this$ = ecx

; 1855 : 		{	// add node with value next to _Wherenode, to left if _Addleft

  00000	55		 push	 ebp
  00001	8b ec		 mov	 ebp, esp
  00003	53		 push	 ebx
  00004	56		 push	 esi
  00005	57		 push	 edi
  00006	8b f9		 mov	 edi, ecx

; 1856 : 		if (max_size() - 1 <= this->_Mysize())

  00008	8b 47 04	 mov	 eax, DWORD PTR [edi+4]
  0000b	3d a9 aa aa 0a	 cmp	 eax, 178956969		; 0aaaaaa9H
  00010	0f 83 6e 01 00
	00		 jae	 $LN730@Insert_at

; 1860 : 			}
; 1861 : 		_Nodeptr _Newnode = _Buynode_if_nil(_Node,
; 1862 : 			_STD forward<_Valty>(_Val));
; 1863 : 
; 1864 : 		++this->_Mysize();
; 1865 : 		_Newnode->_Parent = _Wherenode;

  00016	8b 5d 18	 mov	 ebx, DWORD PTR __Node$[ebp]
  00019	40		 inc	 eax
  0001a	89 47 04	 mov	 DWORD PTR [edi+4], eax
  0001d	8b 45 10	 mov	 eax, DWORD PTR __Wherenode$[ebp]
  00020	89 43 04	 mov	 DWORD PTR [ebx+4], eax

; 1866 : 
; 1867 : 		if (_Wherenode == this->_Myhead())

  00023	8b 0f		 mov	 ecx, DWORD PTR [edi]
  00025	3b c1		 cmp	 eax, ecx
  00027	75 0e		 jne	 SHORT $LN6@Insert_at

; 1868 : 			{	// first node in tree, just set head values
; 1869 : 			_Root() = _Newnode;

  00029	89 59 04	 mov	 DWORD PTR [ecx+4], ebx

; 583  : 		}
; 584  : 
; 585  : 	static _Nodepref _Left(_Nodeptr _Pnode)
; 586  : 		{	// return reference to left pointer in node
; 587  : 		return ((_Nodepref)_Pnode->_Left);

  0002c	8b 07		 mov	 eax, DWORD PTR [edi]

; 1870 : 			_Lmost() = _Newnode;

  0002e	89 18		 mov	 DWORD PTR [eax], ebx

; 1871 : 			_Rmost() = _Newnode;

  00030	8b 07		 mov	 eax, DWORD PTR [edi]
  00032	89 58 08	 mov	 DWORD PTR [eax+8], ebx
  00035	eb 1f		 jmp	 SHORT $LN11@Insert_at
$LN6@Insert_at:

; 1872 : 			}
; 1873 : 		else if (_Addleft)

  00037	80 7d 0c 00	 cmp	 BYTE PTR __Addleft$[ebp], 0
  0003b	74 0c		 je	 SHORT $LN8@Insert_at

; 1874 : 			{	// add to left of _Wherenode
; 1875 : 			this->_Left(_Wherenode) = _Newnode;

  0003d	89 18		 mov	 DWORD PTR [eax], ebx

; 583  : 		}
; 584  : 
; 585  : 	static _Nodepref _Left(_Nodeptr _Pnode)
; 586  : 		{	// return reference to left pointer in node
; 587  : 		return ((_Nodepref)_Pnode->_Left);

  0003f	8b 0f		 mov	 ecx, DWORD PTR [edi]

; 1876 : 			if (_Wherenode == _Lmost())

  00041	3b 01		 cmp	 eax, DWORD PTR [ecx]
  00043	75 11		 jne	 SHORT $LN11@Insert_at

; 1877 : 				_Lmost() = _Newnode;

  00045	89 19		 mov	 DWORD PTR [ecx], ebx

; 1878 : 			}
; 1879 : 		else

  00047	eb 0d		 jmp	 SHORT $LN11@Insert_at
$LN8@Insert_at:

; 1880 : 			{	// add to right of _Wherenode
; 1881 : 			this->_Right(_Wherenode) = _Newnode;

  00049	89 58 08	 mov	 DWORD PTR [eax+8], ebx

; 593  : 		}
; 594  : 
; 595  : 	static _Nodepref _Right(_Nodeptr _Pnode)
; 596  : 		{	// return reference to right pointer in node
; 597  : 		return ((_Nodepref)_Pnode->_Right);

  0004c	8b 0f		 mov	 ecx, DWORD PTR [edi]

; 1882 : 			if (_Wherenode == _Rmost())

  0004e	3b 41 08	 cmp	 eax, DWORD PTR [ecx+8]
  00051	75 03		 jne	 SHORT $LN11@Insert_at

; 1883 : 				_Rmost() = _Newnode;

  00053	89 59 08	 mov	 DWORD PTR [ecx+8], ebx
$LN11@Insert_at:

; 1884 : 			}
; 1885 : 
; 1886 : 		for (_Nodeptr _Pnode = _Newnode;
; 1887 : 			this->_Color(this->_Parent(_Pnode)) == this->_Red; )

  00056	8b 43 04	 mov	 eax, DWORD PTR [ebx+4]
  00059	8b f3		 mov	 esi, ebx
  0005b	80 78 0c 00	 cmp	 BYTE PTR [eax+12], 0
  0005f	0f 85 0a 01 00
	00		 jne	 $LN3@Insert_at
$LL2@Insert_at:

; 588  : 		}
; 589  : 
; 590  : 	static _Nodepref _Parent(_Nodeptr _Pnode)
; 591  : 		{	// return reference to parent pointer in node
; 592  : 		return ((_Nodepref)_Pnode->_Parent);

  00065	8b 46 04	 mov	 eax, DWORD PTR [esi+4]

; 583  : 		}
; 584  : 
; 585  : 	static _Nodepref _Left(_Nodeptr _Pnode)
; 586  : 		{	// return reference to left pointer in node
; 587  : 		return ((_Nodepref)_Pnode->_Left);

  00068	8b 50 04	 mov	 edx, DWORD PTR [eax+4]

; 1888 : 			if (this->_Parent(_Pnode)
; 1889 : 				== this->_Left(this->_Parent(this->_Parent(_Pnode))))

  0006b	8b 0a		 mov	 ecx, DWORD PTR [edx]
  0006d	3b c1		 cmp	 eax, ecx
  0006f	75 74		 jne	 SHORT $LN12@Insert_at

; 1890 : 				{	// fixup red-red in left subtree
; 1891 : 				_Wherenode =

  00071	8b 4a 08	 mov	 ecx, DWORD PTR [edx+8]

; 1892 : 					this->_Right(this->_Parent(this->_Parent(_Pnode)));
; 1893 : 				if (this->_Color(_Wherenode) == this->_Red)

  00074	80 79 0c 00	 cmp	 BYTE PTR [ecx+12], 0
  00078	74 71		 je	 SHORT $LN729@Insert_at

; 1894 : 					{	// parent has two red children, blacken both
; 1895 : 					this->_Color(this->_Parent(_Pnode)) = this->_Black;
; 1896 : 					this->_Color(_Wherenode) = this->_Black;
; 1897 : 					this->_Color(this->_Parent(this->_Parent(_Pnode)))
; 1898 : 						= this->_Red;
; 1899 : 					_Pnode = this->_Parent(this->_Parent(_Pnode));
; 1900 : 					}
; 1901 : 				else
; 1902 : 					{	// parent has red and black children
; 1903 : 					if (_Pnode == this->_Right(this->_Parent(_Pnode)))

  0007a	3b 70 08	 cmp	 esi, DWORD PTR [eax+8]
  0007d	75 0a		 jne	 SHORT $LN16@Insert_at

; 1904 : 						{	// rotate right child to left
; 1905 : 						_Pnode = this->_Parent(_Pnode);

  0007f	8b f0		 mov	 esi, eax

; 1906 : 						_Lrotate(_Pnode);

  00081	8b cf		 mov	 ecx, edi
  00083	56		 push	 esi
  00084	e8 00 00 00 00	 call	 ?_Lrotate@?$_Tree@V?$_Tmap_traits@HPAUCUSTOM_MONSTER_ATTR@@U?$less@H@std@@V?$allocator@U?$pair@$$CBHPAUCUSTOM_MONSTER_ATTR@@@std@@@3@$0A@@std@@@std@@IAEXPAU?$_Tree_node@U?$pair@$$CBHPAUCUSTOM_MONSTER_ATTR@@@std@@PAX@2@@Z ; std::_Tree<std::_Tmap_traits<int,CUSTOM_MONSTER_ATTR *,std::less<int>,std::allocator<std::pair<int const ,CUSTOM_MONSTER_ATTR *> >,0> >::_Lrotate
$LN16@Insert_at:

; 1907 : 						}
; 1908 : 					this->_Color(this->_Parent(_Pnode)) =

  00089	8b 46 04	 mov	 eax, DWORD PTR [esi+4]
  0008c	c6 40 0c 01	 mov	 BYTE PTR [eax+12], 1

; 1909 : 						this->_Black;	// propagate red up
; 1910 : 					this->_Color(this->_Parent(this->_Parent(_Pnode))) =

  00090	8b 46 04	 mov	 eax, DWORD PTR [esi+4]
  00093	8b 40 04	 mov	 eax, DWORD PTR [eax+4]
  00096	c6 40 0c 00	 mov	 BYTE PTR [eax+12], 0

; 1911 : 						this->_Red;
; 1912 : 					_Rrotate(this->_Parent(this->_Parent(_Pnode)));

  0009a	8b 46 04	 mov	 eax, DWORD PTR [esi+4]
  0009d	8b 48 04	 mov	 ecx, DWORD PTR [eax+4]

; 2126 : 		}
; 2127 : 
; 2128 : 	_Nodeptr& _Rmost() const
; 2129 : 		{	// return rightmost node in nonmutable tree
; 2130 : 		return (this->_Right(this->_Myhead()));
; 2131 : 		}
; 2132 : 
; 2133 : 	_Nodeptr& _Root() const
; 2134 : 		{	// return root of nonmutable tree
; 2135 : 		return (this->_Parent(this->_Myhead()));
; 2136 : 		}
; 2137 : 
; 2138 : 	void _Rrotate(_Nodeptr _Wherenode)
; 2139 : 		{	// promote left node to root of subtree
; 2140 : 		_Nodeptr _Pnode = this->_Left(_Wherenode);

  000a0	8b 11		 mov	 edx, DWORD PTR [ecx]

; 2141 : 		this->_Left(_Wherenode) = this->_Right(_Pnode);

  000a2	8b 42 08	 mov	 eax, DWORD PTR [edx+8]
  000a5	89 01		 mov	 DWORD PTR [ecx], eax

; 44   : 		{	// construct with node pointer _Pnode
; 45   : 		this->_Adopt(_Plist);
; 46   : 		}
; 47   : 
; 48   : 	reference operator*() const
; 49   : 		{	// return designated value
; 50   : 		return (_Mytree::_Myval(_Ptr));
; 51   : 		}
; 52   : 
; 53   : 	pointer operator->() const
; 54   : 		{	// return pointer to class object
; 55   : 		return (_STD pointer_traits<pointer>::pointer_to(**this));
; 56   : 		}
; 57   : 
; 58   : 	_Myiter& operator++()
; 59   : 		{	// preincrement
; 60   : 		if (_Mytree::_Isnil(_Ptr))
; 61   : 			;	// end() shouldn't be incremented, don't move
; 62   : 		else if (!_Mytree::_Isnil(_Mytree::_Right(_Ptr)))
; 63   : 			_Ptr = _Mytree::_Min(
; 64   : 				_Mytree::_Right(_Ptr));	// ==> smallest of right subtree
; 65   : 		else
; 66   : 			{	// climb looking for right subtree
; 67   : 			_Nodeptr _Pnode;
; 68   : 			while (!_Mytree::_Isnil(_Pnode = _Mytree::_Parent(_Ptr))
; 69   : 				&& _Ptr == _Mytree::_Right(_Pnode))
; 70   : 				_Ptr = _Pnode;	// ==> parent while right subtree
; 71   : 			_Ptr = _Pnode;	// ==> parent (head if end())
; 72   : 			}
; 73   : 		return (*this);
; 74   : 		}
; 75   : 
; 76   : 	_Myiter operator++(int)
; 77   : 		{	// postincrement
; 78   : 		_Myiter _Tmp = *this;
; 79   : 		++*this;
; 80   : 		return (_Tmp);
; 81   : 		}
; 82   : 
; 83   : 	_Myiter& operator--()
; 84   : 		{	// predecrement
; 85   : 		if (_Mytree::_Isnil(_Ptr))
; 86   : 			_Ptr = _Mytree::_Right(_Ptr);	// end() ==> rightmost
; 87   : 		else if (!_Mytree::_Isnil(_Mytree::_Left(_Ptr)))
; 88   : 			_Ptr = _Mytree::_Max(
; 89   : 				_Mytree::_Left(_Ptr));	// ==> largest of left subtree
; 90   : 		else
; 91   : 			{	// climb looking for left subtree
; 92   : 			_Nodeptr _Pnode;
; 93   : 			while (!_Mytree::_Isnil(_Pnode = _Mytree::_Parent(_Ptr))
; 94   : 				&& _Ptr == _Mytree::_Left(_Pnode))
; 95   : 				_Ptr = _Pnode;	// ==> parent while left subtree
; 96   : 			if (_Mytree::_Isnil(_Ptr))
; 97   : 				;	// begin() shouldn't be decremented, don't move
; 98   : 			else
; 99   : 				_Ptr = _Pnode;	// ==> parent if not head
; 100  : 			}
; 101  : 		return (*this);
; 102  : 		}
; 103  : 
; 104  : 	_Myiter operator--(int)
; 105  : 		{	// postdecrement
; 106  : 		_Myiter _Tmp = *this;
; 107  : 		--*this;
; 108  : 		return (_Tmp);
; 109  : 		}
; 110  : 
; 111  : 	bool operator==(const _Myiter& _Right) const
; 112  : 		{	// test for iterator equality
; 113  : 		return (_Ptr == _Right._Ptr);
; 114  : 		}
; 115  : 
; 116  : 	bool operator!=(const _Myiter& _Right) const
; 117  : 		{	// test for iterator inequality
; 118  : 		return (!(*this == _Right));
; 119  : 		}
; 120  : 
; 121  : 	_Nodeptr _Mynode() const
; 122  : 		{	// return node pointer
; 123  : 		return (_Ptr);
; 124  : 		}
; 125  : 
; 126  : 	_Nodeptr _Ptr;	// pointer to node
; 127  : 	};
; 128  : 
; 129  : 	// TEMPLATE CLASS _Tree_unchecked_iterator
; 130  : template<class _Mytree>
; 131  : 	class _Tree_unchecked_iterator
; 132  : 		: public _Tree_unchecked_const_iterator<_Mytree>
; 133  : 	{	// unchecked iterator for mutable tree
; 134  : public:
; 135  : 	typedef _Tree_unchecked_iterator<_Mytree> _Myiter;
; 136  : 	typedef _Tree_unchecked_const_iterator<_Mytree> _Mybase;
; 137  : 	typedef bidirectional_iterator_tag iterator_category;
; 138  : 
; 139  : 	typedef typename _Mytree::_Nodeptr _Nodeptr;
; 140  : 	typedef typename _Mytree::value_type value_type;
; 141  : 	typedef typename _Mytree::difference_type difference_type;
; 142  : 	typedef typename _Mytree::pointer pointer;
; 143  : 	typedef typename _Mytree::reference reference;
; 144  : 
; 145  : 	_Tree_unchecked_iterator()
; 146  : 		{	// construct with null node
; 147  : 		}
; 148  : 
; 149  : 	_Tree_unchecked_iterator(_Nodeptr _Pnode, const _Mytree *_Plist)
; 150  : 		: _Mybase(_Pnode, _Plist)
; 151  : 		{	// construct with node pointer _Pnode
; 152  : 		}
; 153  : 
; 154  : 	reference operator*() const
; 155  : 		{	// return designated value
; 156  : 		return ((reference)**(_Mybase *)this);
; 157  : 		}
; 158  : 
; 159  : 	pointer operator->() const
; 160  : 		{	// return pointer to class object
; 161  : 		return (_STD pointer_traits<pointer>::pointer_to(**this));
; 162  : 		}
; 163  : 
; 164  : 	_Myiter& operator++()
; 165  : 		{	// preincrement
; 166  : 		++(*(_Mybase *)this);
; 167  : 		return (*this);
; 168  : 		}
; 169  : 
; 170  : 	_Myiter operator++(int)
; 171  : 		{	// postincrement
; 172  : 		_Myiter _Tmp = *this;
; 173  : 		++*this;
; 174  : 		return (_Tmp);
; 175  : 		}
; 176  : 
; 177  : 	_Myiter& operator--()
; 178  : 		{	// predecrement
; 179  : 		--(*(_Mybase *)this);
; 180  : 		return (*this);
; 181  : 		}
; 182  : 
; 183  : 	_Myiter operator--(int)
; 184  : 		{	// postdecrement
; 185  : 		_Myiter _Tmp = *this;
; 186  : 		--*this;
; 187  : 		return (_Tmp);
; 188  : 		}
; 189  : 	};
; 190  : 
; 191  : 	// TEMPLATE CLASS _Tree_const_iterator
; 192  : template<class _Mytree>
; 193  : 	class _Tree_const_iterator
; 194  : 		: public _Tree_unchecked_const_iterator<_Mytree, _Iterator_base>
; 195  : 	{	// iterator for nonmutable tree
; 196  : public:
; 197  : 	typedef _Tree_const_iterator<_Mytree> _Myiter;
; 198  : 	typedef _Tree_unchecked_const_iterator<_Mytree, _Iterator_base> _Mybase;
; 199  : 	typedef bidirectional_iterator_tag iterator_category;
; 200  : 
; 201  : 	typedef typename _Mytree::_Nodeptr _Nodeptr;
; 202  : 	typedef typename _Mytree::value_type value_type;
; 203  : 	typedef typename _Mytree::difference_type difference_type;
; 204  : 	typedef typename _Mytree::const_pointer pointer;
; 205  : 	typedef typename _Mytree::const_reference reference;
; 206  : 
; 207  : 	_Tree_const_iterator()
; 208  : 		: _Mybase()
; 209  : 		{	// construct with null node pointer
; 210  : 		}
; 211  : 
; 212  : 	_Tree_const_iterator(_Nodeptr _Pnode, const _Mytree *_Plist)
; 213  : 		: _Mybase(_Pnode, _Plist)
; 214  : 		{	// construct with node pointer _Pnode
; 215  : 		}
; 216  : 
; 217  : 	typedef _Tree_unchecked_const_iterator<_Mytree> _Unchecked_type;
; 218  : 
; 219  : 	_Myiter& _Rechecked(_Unchecked_type _Right)
; 220  : 		{	// reset from unchecked iterator
; 221  : 		this->_Ptr = _Right._Ptr;
; 222  : 		return (*this);
; 223  : 		}
; 224  : 
; 225  : 	_Unchecked_type _Unchecked() const
; 226  : 		{	// make an unchecked iterator
; 227  : 		return (_Unchecked_type(this->_Ptr, (_Mytree *)this->_Getcont()));
; 228  : 		}
; 229  : 
; 230  : 	reference operator*() const
; 231  : 		{	// return designated value
; 232  :  #if _ITERATOR_DEBUG_LEVEL == 2
; 233  : 		if (this->_Getcont() == 0
; 234  : 			|| this->_Ptr == 0
; 235  : 			|| this->_Ptr == ((_Mytree *)this->_Getcont())->_Myhead)
; 236  : 			{	// report error
; 237  : 			_DEBUG_ERROR("map/set iterator not dereferencable");
; 238  : 			_SCL_SECURE_OUT_OF_RANGE;
; 239  : 			}
; 240  : 
; 241  :  #elif _ITERATOR_DEBUG_LEVEL == 1
; 242  : 		_SCL_SECURE_VALIDATE(this->_Getcont() != 0 && this->_Ptr != 0);
; 243  : 		_SCL_SECURE_VALIDATE_RANGE(this->_Ptr !=
; 244  : 			((_Mytree *)this->_Getcont())->_Myhead);
; 245  :  #endif /* _ITERATOR_DEBUG_LEVEL */
; 246  : 
; 247  : 		return (_Mytree::_Myval(this->_Ptr));
; 248  : 		}
; 249  : 
; 250  : 	pointer operator->() const
; 251  : 		{	// return pointer to class object
; 252  : 		return (_STD pointer_traits<pointer>::pointer_to(**this));
; 253  : 		}
; 254  : 
; 255  : 	_Myiter& operator++()
; 256  : 		{	// preincrement
; 257  :  #if _ITERATOR_DEBUG_LEVEL == 2
; 258  : 		if (this->_Getcont() == 0
; 259  : 			|| this->_Ptr == 0
; 260  : 			|| _Mytree::_Isnil(this->_Ptr))
; 261  : 			{	// report error
; 262  : 			_DEBUG_ERROR("map/set iterator not incrementable");
; 263  : 			_SCL_SECURE_OUT_OF_RANGE;
; 264  : 			}
; 265  : 
; 266  :  #elif _ITERATOR_DEBUG_LEVEL == 1
; 267  : 		_SCL_SECURE_VALIDATE(this->_Getcont() != 0 && this->_Ptr != 0);
; 268  : 		_SCL_SECURE_VALIDATE_RANGE(!_Mytree::_Isnil(this->_Ptr));
; 269  :  #endif /* _ITERATOR_DEBUG_LEVEL */
; 270  : 
; 271  : 		++(*(_Mybase *)this);
; 272  : 		return (*this);
; 273  : 		}
; 274  : 
; 275  : 	_Myiter operator++(int)
; 276  : 		{	// postincrement
; 277  : 		_Myiter _Tmp = *this;
; 278  : 		++*this;
; 279  : 		return (_Tmp);
; 280  : 		}
; 281  : 
; 282  : 	_Myiter& operator--()
; 283  : 		{	// predecrement
; 284  :  #if _ITERATOR_DEBUG_LEVEL == 2
; 285  : 		if (this->_Getcont() == 0
; 286  : 			|| this->_Ptr == 0)
; 287  : 			{	// report error
; 288  : 			_DEBUG_ERROR("map/set iterator not decrementable");
; 289  : 			_SCL_SECURE_OUT_OF_RANGE;
; 290  : 			}
; 291  : 
; 292  : 		_Nodeptr _Ptrsav = this->_Ptr;
; 293  : 		--(*(_Mybase *)this);
; 294  : 		if (_Ptrsav == this->_Ptr)
; 295  : 			{	// report error
; 296  : 			_DEBUG_ERROR("map/set iterator not decrementable");
; 297  : 			_SCL_SECURE_OUT_OF_RANGE;
; 298  : 			}
; 299  : 
; 300  :  #elif _ITERATOR_DEBUG_LEVEL == 1
; 301  : 		_SCL_SECURE_VALIDATE(this->_Getcont() != 0 && this->_Ptr != 0);
; 302  : 
; 303  : 		_Nodeptr _Ptrsav = this->_Ptr;
; 304  : 		--(*(_Mybase *)this);
; 305  : 		_SCL_SECURE_VALIDATE(_Ptrsav != this->_Ptr);
; 306  : 
; 307  :  #else /* _ITERATOR_DEBUG_LEVEL == 0 */
; 308  : 		--(*(_Mybase *)this);
; 309  :  #endif /* _ITERATOR_DEBUG_LEVEL */
; 310  : 
; 311  : 		return (*this);
; 312  : 		}
; 313  : 
; 314  : 	_Myiter operator--(int)
; 315  : 		{	// postdecrement
; 316  : 		_Myiter _Tmp = *this;
; 317  : 		--*this;
; 318  : 		return (_Tmp);
; 319  : 		}
; 320  : 
; 321  : 	bool operator==(const _Myiter& _Right) const
; 322  : 		{	// test for iterator equality
; 323  :  #if _ITERATOR_DEBUG_LEVEL == 2
; 324  : 		if (this->_Getcont() != _Right._Getcont())
; 325  : 			{	// report error
; 326  : 			_DEBUG_ERROR("map/set iterators incompatible");
; 327  : 			_SCL_SECURE_INVALID_ARGUMENT;
; 328  : 			}
; 329  : 
; 330  :  #elif _ITERATOR_DEBUG_LEVEL == 1
; 331  : 		_SCL_SECURE_VALIDATE(this->_Getcont() == _Right._Getcont());
; 332  :  #endif /* _ITERATOR_DEBUG_LEVEL */
; 333  : 
; 334  : 		return (this->_Ptr == _Right._Ptr);
; 335  : 		}
; 336  : 
; 337  : 	bool operator!=(const _Myiter& _Right) const
; 338  : 		{	// test for iterator inequality
; 339  : 		return (!(*this == _Right));
; 340  : 		}
; 341  : 	};
; 342  : 
; 343  : template<class _Mytree> inline
; 344  : 	typename _Tree_const_iterator<_Mytree>::_Unchecked_type
; 345  : 		_Unchecked(_Tree_const_iterator<_Mytree> _Iter)
; 346  : 	{	// convert to unchecked
; 347  : 	return (_Iter._Unchecked());
; 348  : 	}
; 349  : 
; 350  : template<class _Mytree> inline
; 351  : 	_Tree_const_iterator<_Mytree>&
; 352  : 		_Rechecked(_Tree_const_iterator<_Mytree>& _Iter,
; 353  : 			typename _Tree_const_iterator<_Mytree>
; 354  : 				::_Unchecked_type _Right)
; 355  : 	{	// convert to checked
; 356  : 	return (_Iter._Rechecked(_Right));
; 357  : 	}
; 358  : 
; 359  : 	// TEMPLATE CLASS _Tree_iterator
; 360  : template<class _Mytree>
; 361  : 	class _Tree_iterator
; 362  : 		: public _Tree_const_iterator<_Mytree>
; 363  : 	{	// iterator for mutable tree
; 364  : public:
; 365  : 	typedef _Tree_iterator<_Mytree> _Myiter;
; 366  : 	typedef _Tree_const_iterator<_Mytree> _Mybase;
; 367  : 	typedef bidirectional_iterator_tag iterator_category;
; 368  : 
; 369  : 	typedef typename _Mytree::_Nodeptr _Nodeptr;
; 370  : 	typedef typename _Mytree::value_type value_type;
; 371  : 	typedef typename _Mytree::difference_type difference_type;
; 372  : 
; 373  : 	typedef typename _Mytree::pointer pointer;
; 374  : 	typedef typename _Mytree::reference reference;
; 375  : 
; 376  : 	_Tree_iterator()
; 377  : 		{	// construct with null node
; 378  : 		}
; 379  : 
; 380  : 	_Tree_iterator(_Nodeptr _Pnode, const _Mytree *_Plist)
; 381  : 		: _Mybase(_Pnode, _Plist)
; 382  : 		{	// construct with node pointer _Pnode
; 383  : 		}
; 384  : 
; 385  : 	typedef _Tree_unchecked_iterator<_Mytree> _Unchecked_type;
; 386  : 
; 387  : 	_Myiter& _Rechecked(_Unchecked_type _Right)
; 388  : 		{	// reset from unchecked iterator
; 389  : 		this->_Ptr = _Right._Ptr;
; 390  : 		return (*this);
; 391  : 		}
; 392  : 
; 393  : 	_Unchecked_type _Unchecked() const
; 394  : 		{	// make an unchecked iterator
; 395  : 		return (_Unchecked_type(this->_Ptr, (_Mytree *)this->_Getcont()));
; 396  : 		}
; 397  : 
; 398  : 	reference operator*() const
; 399  : 		{	// return designated value
; 400  : 		return ((reference)**(_Mybase *)this);
; 401  : 		}
; 402  : 
; 403  : 	pointer operator->() const
; 404  : 		{	// return pointer to class object
; 405  : 		return (_STD pointer_traits<pointer>::pointer_to(**this));
; 406  : 		}
; 407  : 
; 408  : 	_Myiter& operator++()
; 409  : 		{	// preincrement
; 410  : 		++(*(_Mybase *)this);
; 411  : 		return (*this);
; 412  : 		}
; 413  : 
; 414  : 	_Myiter operator++(int)
; 415  : 		{	// postincrement
; 416  : 		_Myiter _Tmp = *this;
; 417  : 		++*this;
; 418  : 		return (_Tmp);
; 419  : 		}
; 420  : 
; 421  : 	_Myiter& operator--()
; 422  : 		{	// predecrement
; 423  : 		--(*(_Mybase *)this);
; 424  : 		return (*this);
; 425  : 		}
; 426  : 
; 427  : 	_Myiter operator--(int)
; 428  : 		{	// postdecrement
; 429  : 		_Myiter _Tmp = *this;
; 430  : 		--*this;
; 431  : 		return (_Tmp);
; 432  : 		}
; 433  : 	};
; 434  : 
; 435  : template<class _Mytree> inline
; 436  : 	typename _Tree_iterator<_Mytree>::_Unchecked_type
; 437  : 		_Unchecked(_Tree_iterator<_Mytree> _Iter)
; 438  : 	{	// convert to unchecked
; 439  : 	return (_Iter._Unchecked());
; 440  : 	}
; 441  : 
; 442  : template<class _Mytree> inline
; 443  : 	_Tree_iterator<_Mytree>&
; 444  : 		_Rechecked(_Tree_iterator<_Mytree>& _Iter,
; 445  : 			typename _Tree_iterator<_Mytree>
; 446  : 				::_Unchecked_type _Right)
; 447  : 	{	// convert to checked
; 448  : 	return (_Iter._Rechecked(_Right));
; 449  : 	}
; 450  : 
; 451  : 		// tree TYPE WRAPPERS
; 452  : template<class _Value_type,
; 453  : 	class _Size_type,
; 454  : 	class _Difference_type,
; 455  : 	class _Pointer,
; 456  : 	class _Const_pointer,
; 457  : 	class _Reference,
; 458  : 	class _Const_reference,
; 459  : 	class _Nodeptr_type>
; 460  : 	struct _Tree_iter_types
; 461  : 	{	// wraps types needed by iterators
; 462  : 	typedef _Value_type value_type;
; 463  : 	typedef _Size_type size_type;
; 464  : 	typedef _Difference_type difference_type;
; 465  : 	typedef _Pointer pointer;
; 466  : 	typedef _Const_pointer const_pointer;
; 467  : 	typedef _Reference reference;
; 468  : 	typedef _Const_reference const_reference;
; 469  : 	typedef _Nodeptr_type _Nodeptr;
; 470  : 	};
; 471  : 
; 472  : template<class _Value_type,
; 473  : 	class _Voidptr>
; 474  : 	struct _Tree_node
; 475  : 		{	// tree node
; 476  : 		_Voidptr _Left;	// left subtree, or smallest element if head
; 477  : 		_Voidptr _Parent;	// parent, or root of tree if head
; 478  : 		_Voidptr _Right;	// right subtree, or largest element if head
; 479  : 		char _Color;	// _Red or _Black, _Black if head
; 480  : 		char _Isnil;	// true only if head (also nil) node
; 481  : 		_Value_type _Myval;	// the stored value, unused if head
; 482  : 
; 483  : 	private:
; 484  : 		_Tree_node& operator=(const _Tree_node&);
; 485  : 		};
; 486  : 
; 487  : template<class _Value_type>
; 488  : 	struct _Tree_node<_Value_type, void *>
; 489  : 		{	// tree node
; 490  : 		typedef _Tree_node<_Value_type, void *> *_Nodeptr;
; 491  : 		_Nodeptr _Left;	// left subtree, or smallest element if head
; 492  : 		_Nodeptr _Parent;	// parent, or root of tree if head
; 493  : 		_Nodeptr _Right;	// right subtree, or largest element if head
; 494  : 		char _Color;	// _Red or _Black, _Black if head
; 495  : 		char _Isnil;	// true only if head (also nil) node
; 496  : 		_Value_type _Myval;	// the stored value, unused if head
; 497  : 
; 498  : 	private:
; 499  : 		_Tree_node& operator=(const _Tree_node&);
; 500  : 		};
; 501  : 
; 502  : template<class _Ty>
; 503  : 	struct _Tree_simple_types
; 504  : 		: public _Simple_types<_Ty>
; 505  : 	{	// wraps types needed by iterators
; 506  : 	typedef _Tree_node<_Ty, void *> _Node;
; 507  : 	typedef _Node *_Nodeptr;
; 508  : 	};
; 509  : 
; 510  : template<class _Ty,
; 511  : 	class _Alloc0>
; 512  : 	struct _Tree_base_types
; 513  : 	{	// types needed for a container base
; 514  : 	typedef _Alloc0 _Alloc;
; 515  : 	typedef _Tree_base_types<_Ty, _Alloc> _Myt;
; 516  : 
; 517  : 	typedef _Wrap_alloc<_Alloc> _Alty0;
; 518  : 	typedef typename _Alty0::template rebind<_Ty>::other _Alty;
; 519  : 
; 520  : 
; 521  : 	typedef typename _Get_voidptr<_Alty, typename _Alty::pointer>::type
; 522  : 		_Voidptr;
; 523  : 	typedef _Tree_node<typename _Alty::value_type,
; 524  : 		_Voidptr> _Node;
; 525  : 
; 526  : 	typedef typename _Alty::template rebind<_Node>::other _Alnod_type;
; 527  : 	typedef typename _Alnod_type::pointer _Nodeptr;
; 528  : 	typedef _Nodeptr& _Nodepref;
; 529  : 
; 530  : 	typedef typename _If<_Is_simple_alloc<_Alty>::value,
; 531  : 		_Tree_simple_types<typename _Alty::value_type>,
; 532  : 		_Tree_iter_types<typename _Alty::value_type,
; 533  : 			typename _Alty::size_type,
; 534  : 			typename _Alty::difference_type,
; 535  : 			typename _Alty::pointer,
; 536  : 			typename _Alty::const_pointer,
; 537  : 			typename _Alty::reference,
; 538  : 			typename _Alty::const_reference,
; 539  : 			_Nodeptr> >::type
; 540  : 		_Val_types;
; 541  : 	};
; 542  : 
; 543  : 		// TEMPLATE CLASS _Tree_val
; 544  : template<class _Val_types>
; 545  : 	class _Tree_val
; 546  : 		: public _Container_base
; 547  : 	{	// base class for tree to hold data
; 548  : public:
; 549  : 	typedef _Tree_val<_Val_types> _Myt;
; 550  : 
; 551  : 	typedef typename _Val_types::_Nodeptr _Nodeptr;
; 552  : 	typedef _Nodeptr& _Nodepref;
; 553  : 
; 554  : 	typedef typename _Val_types::value_type value_type;
; 555  : 	typedef typename _Val_types::size_type size_type;
; 556  : 	typedef typename _Val_types::difference_type difference_type;
; 557  : 	typedef typename _Val_types::pointer pointer;
; 558  : 	typedef typename _Val_types::const_pointer const_pointer;
; 559  : 	typedef typename _Val_types::reference reference;
; 560  : 	typedef typename _Val_types::const_reference const_reference;
; 561  : 
; 562  : 	typedef _Tree_const_iterator<_Myt> const_iterator;
; 563  : 	typedef _Tree_iterator<_Myt> iterator;
; 564  : 
; 565  : 	_Tree_val()
; 566  : 		{	// initialize data
; 567  : 		this->_Myhead = 0;
; 568  : 		this->_Mysize = 0;
; 569  : 		}
; 570  : 
; 571  : 	enum _Redbl
; 572  : 		{	// colors for link to parent
; 573  : 		_Red, _Black};
; 574  : 
; 575  : 	static char& _Color(_Nodeptr _Pnode)
; 576  : 		{	// return reference to color in node
; 577  : 		return ((char&)_Pnode->_Color);
; 578  : 		}
; 579  : 
; 580  : 	static char& _Isnil(_Nodeptr _Pnode)
; 581  : 		{	// return reference to nil flag in node
; 582  : 		return ((char&)_Pnode->_Isnil);

  000a7	8b 42 08	 mov	 eax, DWORD PTR [edx+8]

; 2142 : 
; 2143 : 		if (!this->_Isnil(this->_Right(_Pnode)))

  000aa	80 78 0d 00	 cmp	 BYTE PTR [eax+13], 0
  000ae	75 03		 jne	 SHORT $LN376@Insert_at

; 2144 : 			this->_Parent(this->_Right(_Pnode)) = _Wherenode;

  000b0	89 48 04	 mov	 DWORD PTR [eax+4], ecx
$LN376@Insert_at:

; 2145 : 		this->_Parent(_Pnode) = this->_Parent(_Wherenode);

  000b3	8b 41 04	 mov	 eax, DWORD PTR [ecx+4]
  000b6	89 42 04	 mov	 DWORD PTR [edx+4], eax

; 588  : 		}
; 589  : 
; 590  : 	static _Nodepref _Parent(_Nodeptr _Pnode)
; 591  : 		{	// return reference to parent pointer in node
; 592  : 		return ((_Nodepref)_Pnode->_Parent);

  000b9	8b 07		 mov	 eax, DWORD PTR [edi]

; 2146 : 
; 2147 : 		if (_Wherenode == _Root())

  000bb	3b 48 04	 cmp	 ecx, DWORD PTR [eax+4]
  000be	75 0b		 jne	 SHORT $LN377@Insert_at

; 2148 : 			_Root() = _Pnode;

  000c0	89 50 04	 mov	 DWORD PTR [eax+4], edx

; 2153 : 
; 2154 : 		this->_Right(_Pnode) = _Wherenode;

  000c3	89 4a 08	 mov	 DWORD PTR [edx+8], ecx

; 1913 : 					}
; 1914 : 				}
; 1915 : 			else

  000c6	e9 94 00 00 00	 jmp	 $LN728@Insert_at
$LN377@Insert_at:

; 593  : 		}
; 594  : 
; 595  : 	static _Nodepref _Right(_Nodeptr _Pnode)
; 596  : 		{	// return reference to right pointer in node
; 597  : 		return ((_Nodepref)_Pnode->_Right);

  000cb	8b 41 04	 mov	 eax, DWORD PTR [ecx+4]

; 2149 : 		else if (_Wherenode == this->_Right(this->_Parent(_Wherenode)))

  000ce	3b 48 08	 cmp	 ecx, DWORD PTR [eax+8]
  000d1	75 0b		 jne	 SHORT $LN379@Insert_at

; 2150 : 			this->_Right(this->_Parent(_Wherenode)) = _Pnode;

  000d3	89 50 08	 mov	 DWORD PTR [eax+8], edx

; 2153 : 
; 2154 : 		this->_Right(_Pnode) = _Wherenode;

  000d6	89 4a 08	 mov	 DWORD PTR [edx+8], ecx

; 1913 : 					}
; 1914 : 				}
; 1915 : 			else

  000d9	e9 81 00 00 00	 jmp	 $LN728@Insert_at
$LN379@Insert_at:

; 2151 : 		else
; 2152 : 			this->_Left(this->_Parent(_Wherenode)) = _Pnode;

  000de	89 10		 mov	 DWORD PTR [eax], edx

; 2153 : 
; 2154 : 		this->_Right(_Pnode) = _Wherenode;

  000e0	89 4a 08	 mov	 DWORD PTR [edx+8], ecx

; 1913 : 					}
; 1914 : 				}
; 1915 : 			else

  000e3	eb 7a		 jmp	 SHORT $LN728@Insert_at
$LN12@Insert_at:

; 1916 : 				{	// fixup red-red in right subtree
; 1917 : 				_Wherenode =
; 1918 : 					this->_Left(this->_Parent(this->_Parent(_Pnode)));
; 1919 : 				if (this->_Color(_Wherenode) == this->_Red)

  000e5	80 79 0c 00	 cmp	 BYTE PTR [ecx+12], 0
  000e9	75 1a		 jne	 SHORT $LN17@Insert_at
$LN729@Insert_at:

; 1920 : 					{	// parent has two red children, blacken both
; 1921 : 					this->_Color(this->_Parent(_Pnode)) = this->_Black;

  000eb	c6 40 0c 01	 mov	 BYTE PTR [eax+12], 1

; 1922 : 					this->_Color(_Wherenode) = this->_Black;

  000ef	c6 41 0c 01	 mov	 BYTE PTR [ecx+12], 1

; 1923 : 					this->_Color(this->_Parent(this->_Parent(_Pnode))) =

  000f3	8b 46 04	 mov	 eax, DWORD PTR [esi+4]
  000f6	8b 40 04	 mov	 eax, DWORD PTR [eax+4]
  000f9	c6 40 0c 00	 mov	 BYTE PTR [eax+12], 0

; 1924 : 						this->_Red;
; 1925 : 					_Pnode = this->_Parent(this->_Parent(_Pnode));

  000fd	8b 46 04	 mov	 eax, DWORD PTR [esi+4]
  00100	8b 70 04	 mov	 esi, DWORD PTR [eax+4]

; 1926 : 					}
; 1927 : 				else

  00103	eb 5d		 jmp	 SHORT $LN18@Insert_at
$LN17@Insert_at:

; 1928 : 					{	// parent has red and black children
; 1929 : 					if (_Pnode == this->_Left(this->_Parent(_Pnode)))

  00105	3b 30		 cmp	 esi, DWORD PTR [eax]
  00107	75 0a		 jne	 SHORT $LN19@Insert_at

; 1930 : 						{	// rotate left child to right
; 1931 : 						_Pnode = this->_Parent(_Pnode);

  00109	8b f0		 mov	 esi, eax

; 1932 : 						_Rrotate(_Pnode);

  0010b	8b cf		 mov	 ecx, edi
  0010d	56		 push	 esi
  0010e	e8 00 00 00 00	 call	 ?_Rrotate@?$_Tree@V?$_Tmap_traits@HPAUCUSTOM_MONSTER_ATTR@@U?$less@H@std@@V?$allocator@U?$pair@$$CBHPAUCUSTOM_MONSTER_ATTR@@@std@@@3@$0A@@std@@@std@@IAEXPAU?$_Tree_node@U?$pair@$$CBHPAUCUSTOM_MONSTER_ATTR@@@std@@PAX@2@@Z ; std::_Tree<std::_Tmap_traits<int,CUSTOM_MONSTER_ATTR *,std::less<int>,std::allocator<std::pair<int const ,CUSTOM_MONSTER_ATTR *> >,0> >::_Rrotate
$LN19@Insert_at:

; 1933 : 						}
; 1934 : 					this->_Color(this->_Parent(_Pnode)) =

  00113	8b 46 04	 mov	 eax, DWORD PTR [esi+4]
  00116	c6 40 0c 01	 mov	 BYTE PTR [eax+12], 1

; 1935 : 						this->_Black;	// propagate red up
; 1936 : 					this->_Color(this->_Parent(this->_Parent(_Pnode))) =

  0011a	8b 46 04	 mov	 eax, DWORD PTR [esi+4]
  0011d	8b 40 04	 mov	 eax, DWORD PTR [eax+4]
  00120	c6 40 0c 00	 mov	 BYTE PTR [eax+12], 0

; 1937 : 						this->_Red;
; 1938 : 					_Lrotate(this->_Parent(this->_Parent(_Pnode)));

  00124	8b 46 04	 mov	 eax, DWORD PTR [esi+4]
  00127	8b 48 04	 mov	 ecx, DWORD PTR [eax+4]

; 1945 : 
; 1946 : 	template<class _Moveit>
; 1947 : 		void _Copy(const _Myt& _Right, _Moveit _Movefl)
; 1948 : 		{	// copy or move entire tree from _Right
; 1949 : 		_Root() = _Copy_nodes(_Right._Root(), this->_Myhead(), _Movefl);
; 1950 : 		this->_Mysize() = _Right.size();
; 1951 : 		if (!this->_Isnil(_Root()))
; 1952 : 			{	// nonempty tree, look for new smallest and largest
; 1953 : 			_Lmost() = this->_Min(_Root());
; 1954 : 			_Rmost() = this->_Max(_Root());
; 1955 : 			}
; 1956 : 		else
; 1957 : 			{	// empty tree, just tidy head pointers
; 1958 : 			_Lmost() = this->_Myhead();
; 1959 : 			_Rmost() = this->_Myhead();
; 1960 : 			}
; 1961 : 		}
; 1962 : 
; 1963 : 	template<class _Ty,
; 1964 : 		class _Is_set>
; 1965 : 		_Nodeptr _Copy_or_move(_Ty& _Val, _Copy_tag, _Is_set)
; 1966 : 		{	// copy to new node
; 1967 : 		return (this->_Buynode(_Val));
; 1968 : 		}
; 1969 : 
; 1970 : 	template<class _Ty>
; 1971 : 		_Nodeptr _Copy_or_move(_Ty& _Val, _Move_tag, true_type)
; 1972 : 		{	// move to new node -- set
; 1973 : 		return (this->_Buynode(_STD move(_Val)));
; 1974 : 		}
; 1975 : 
; 1976 : 	template<class _Ty>
; 1977 : 		_Nodeptr _Copy_or_move(_Ty& _Val, _Move_tag, false_type)
; 1978 : 		{	// move to new node -- map
; 1979 : 		return (this->_Buynode(
; 1980 : 			_STD move(const_cast<key_type&>(_Val.first)),
; 1981 : 			_STD move(_Val.second)));
; 1982 : 		}
; 1983 : 
; 1984 : 	template<class _Moveit>
; 1985 : 		_Nodeptr _Copy_nodes(_Nodeptr _Rootnode, _Nodeptr _Wherenode,
; 1986 : 			_Moveit _Movefl)
; 1987 : 		{	// copy entire subtree, recursively
; 1988 : 		_Nodeptr _Newroot = this->_Myhead();	// point at nil node
; 1989 : 
; 1990 : 		if (!this->_Isnil(_Rootnode))
; 1991 : 			{	// copy or move a node, then any subtrees
; 1992 : 			typename is_same<key_type, value_type>::type _Is_set;
; 1993 : 			_Nodeptr _Pnode = _Copy_or_move(
; 1994 : 				this->_Myval(_Rootnode), _Movefl, _Is_set);
; 1995 : 			_Pnode->_Parent = _Wherenode;
; 1996 : 			_Pnode->_Color = this->_Color(_Rootnode);
; 1997 : 			if (this->_Isnil(_Newroot))
; 1998 : 				_Newroot = _Pnode;	// memorize new root
; 1999 : 
; 2000 : 			_TRY_BEGIN
; 2001 : 			this->_Left(_Pnode) =
; 2002 : 				_Copy_nodes(this->_Left(_Rootnode), _Pnode, _Movefl);
; 2003 : 			this->_Right(_Pnode) =
; 2004 : 				_Copy_nodes(this->_Right(_Rootnode), _Pnode, _Movefl);
; 2005 : 			_CATCH_ALL
; 2006 : 			_Erase(_Newroot);	// subtree copy failed, bail out
; 2007 : 			_RERAISE;
; 2008 : 			_CATCH_END
; 2009 : 			}
; 2010 : 
; 2011 : 		return (_Newroot);	// return newly constructed tree
; 2012 : 		}
; 2013 : 
; 2014 : 	template<class _Other>
; 2015 : 		_Paircc _Eqrange(const _Other& _Keyval) const
; 2016 : 		{	// find leftmost node not less than _Keyval
; 2017 : 		_Nodeptr _Pnode = _Root();
; 2018 : 		_Nodeptr _Lonode = this->_Myhead();	// end() if search fails
; 2019 : 		_Nodeptr _Hinode = this->_Myhead();	// end() if search fails
; 2020 : 
; 2021 : 		while (!this->_Isnil(_Pnode))
; 2022 : 			if (_DEBUG_LT_PRED(this->_Getcomp(), this->_Key(_Pnode), _Keyval))
; 2023 : 				_Pnode = this->_Right(_Pnode);	// descend right subtree
; 2024 : 			else
; 2025 : 				{	// _Pnode not less than _Keyval, remember it
; 2026 : 				if (this->_Isnil(_Hinode)
; 2027 : 						&& _DEBUG_LT_PRED(this->_Getcomp(), _Keyval,
; 2028 : 						this->_Key(_Pnode)))
; 2029 : 					_Hinode = _Pnode;	// _Pnode greater, remember it
; 2030 : 				_Lonode = _Pnode;
; 2031 : 				_Pnode = this->_Left(_Pnode);	// descend left subtree
; 2032 : 				}
; 2033 : 
; 2034 : 		_Pnode = this->_Isnil(_Hinode) ? _Root()
; 2035 : 			: this->_Left(_Hinode);	// continue scan for upper bound
; 2036 : 		while (!this->_Isnil(_Pnode))
; 2037 : 			if (_DEBUG_LT_PRED(this->_Getcomp(), _Keyval, this->_Key(_Pnode)))
; 2038 : 				{	// _Pnode greater than _Keyval, remember it
; 2039 : 				_Hinode = _Pnode;
; 2040 : 				_Pnode = this->_Left(_Pnode);	// descend left subtree
; 2041 : 				}
; 2042 : 			else
; 2043 : 				_Pnode = this->_Right(_Pnode);	// descend right subtree
; 2044 : 
; 2045 : 		const_iterator _First = const_iterator(_Lonode, &this->_Get_data());
; 2046 : 		const_iterator _Last = const_iterator(_Hinode, &this->_Get_data());
; 2047 : 		return (_Paircc(_First, _Last));
; 2048 : 		}
; 2049 : 
; 2050 : 	template<class _Other>
; 2051 : 		_Pairii _Eqrange(const _Other& _Keyval)
; 2052 : 		{	// find leftmost node not less than _Keyval
; 2053 : 		_Paircc _Ans(static_cast<const _Myt *>(this)->_Eqrange(_Keyval));
; 2054 : 		iterator _First = iterator(_Ans.first._Ptr, &this->_Get_data());
; 2055 : 		iterator _Last = iterator(_Ans.second._Ptr, &this->_Get_data());
; 2056 : 		return (_Pairii(_First, _Last));
; 2057 : 		}
; 2058 : 
; 2059 : 	void _Erase(_Nodeptr _Rootnode)
; 2060 : 		{	// free entire subtree, recursively
; 2061 : 		for (_Nodeptr _Pnode = _Rootnode;
; 2062 : 			!this->_Isnil(_Pnode); _Rootnode = _Pnode)
; 2063 : 			{	// free subtrees, then node
; 2064 : 			_Erase(this->_Right(_Pnode));
; 2065 : 			_Pnode = this->_Left(_Pnode);
; 2066 : 			this->_Getal().destroy(
; 2067 : 				_STD addressof(this->_Myval(_Rootnode)));
; 2068 : 
; 2069 : 			this->_Getal().deallocate(_Rootnode, 1);
; 2070 : 			}
; 2071 : 		}
; 2072 : 
; 2073 : 	bool _Compare(const key_type& _Left, const key_type& _Right) const
; 2074 : 		{	// compare key_type to key_type, with debug checks
; 2075 : 		return (_DEBUG_LT_PRED(this->_Getcomp(), _Left, _Right));
; 2076 : 		}
; 2077 : 
; 2078 : 	template<class _Ty1,
; 2079 : 		class _Ty2>
; 2080 : 		bool _Compare(const _Ty1& _Left, const _Ty2& _Right) const
; 2081 : 		{	// compare _Ty1 to _Ty2, without debug checks
; 2082 : 		return (this->_Getcomp()(_Left, _Right));
; 2083 : 		}
; 2084 : 
; 2085 : 	template<class _Other>
; 2086 : 		_Nodeptr _Lbound(const _Other& _Keyval) const
; 2087 : 		{	// find leftmost node not less than _Keyval
; 2088 : 		_Nodeptr _Pnode = _Root();
; 2089 : 		_Nodeptr _Wherenode = this->_Myhead();	// end() if search fails
; 2090 : 
; 2091 : 		while (!this->_Isnil(_Pnode))
; 2092 : 			if (_Compare(this->_Key(_Pnode), _Keyval))
; 2093 : 				_Pnode = this->_Right(_Pnode);	// descend right subtree
; 2094 : 			else
; 2095 : 				{	// _Pnode not less than _Keyval, remember it
; 2096 : 				_Wherenode = _Pnode;
; 2097 : 				_Pnode = this->_Left(_Pnode);	// descend left subtree
; 2098 : 				}
; 2099 : 
; 2100 : 		return (_Wherenode);	// return best remembered candidate
; 2101 : 		}
; 2102 : 
; 2103 : 	_Nodeptr& _Lmost() const
; 2104 : 		{	// return leftmost node in nonmutable tree
; 2105 : 		return (this->_Left(this->_Myhead()));
; 2106 : 		}
; 2107 : 
; 2108 : 	void _Lrotate(_Nodeptr _Wherenode)
; 2109 : 		{	// promote right node to root of subtree
; 2110 : 		_Nodeptr _Pnode = this->_Right(_Wherenode);

  0012a	8b 51 08	 mov	 edx, DWORD PTR [ecx+8]

; 2111 : 		this->_Right(_Wherenode) = this->_Left(_Pnode);

  0012d	8b 02		 mov	 eax, DWORD PTR [edx]
  0012f	89 41 08	 mov	 DWORD PTR [ecx+8], eax

; 44   : 		{	// construct with node pointer _Pnode
; 45   : 		this->_Adopt(_Plist);
; 46   : 		}
; 47   : 
; 48   : 	reference operator*() const
; 49   : 		{	// return designated value
; 50   : 		return (_Mytree::_Myval(_Ptr));
; 51   : 		}
; 52   : 
; 53   : 	pointer operator->() const
; 54   : 		{	// return pointer to class object
; 55   : 		return (_STD pointer_traits<pointer>::pointer_to(**this));
; 56   : 		}
; 57   : 
; 58   : 	_Myiter& operator++()
; 59   : 		{	// preincrement
; 60   : 		if (_Mytree::_Isnil(_Ptr))
; 61   : 			;	// end() shouldn't be incremented, don't move
; 62   : 		else if (!_Mytree::_Isnil(_Mytree::_Right(_Ptr)))
; 63   : 			_Ptr = _Mytree::_Min(
; 64   : 				_Mytree::_Right(_Ptr));	// ==> smallest of right subtree
; 65   : 		else
; 66   : 			{	// climb looking for right subtree
; 67   : 			_Nodeptr _Pnode;
; 68   : 			while (!_Mytree::_Isnil(_Pnode = _Mytree::_Parent(_Ptr))
; 69   : 				&& _Ptr == _Mytree::_Right(_Pnode))
; 70   : 				_Ptr = _Pnode;	// ==> parent while right subtree
; 71   : 			_Ptr = _Pnode;	// ==> parent (head if end())
; 72   : 			}
; 73   : 		return (*this);
; 74   : 		}
; 75   : 
; 76   : 	_Myiter operator++(int)
; 77   : 		{	// postincrement
; 78   : 		_Myiter _Tmp = *this;
; 79   : 		++*this;
; 80   : 		return (_Tmp);
; 81   : 		}
; 82   : 
; 83   : 	_Myiter& operator--()
; 84   : 		{	// predecrement
; 85   : 		if (_Mytree::_Isnil(_Ptr))
; 86   : 			_Ptr = _Mytree::_Right(_Ptr);	// end() ==> rightmost
; 87   : 		else if (!_Mytree::_Isnil(_Mytree::_Left(_Ptr)))
; 88   : 			_Ptr = _Mytree::_Max(
; 89   : 				_Mytree::_Left(_Ptr));	// ==> largest of left subtree
; 90   : 		else
; 91   : 			{	// climb looking for left subtree
; 92   : 			_Nodeptr _Pnode;
; 93   : 			while (!_Mytree::_Isnil(_Pnode = _Mytree::_Parent(_Ptr))
; 94   : 				&& _Ptr == _Mytree::_Left(_Pnode))
; 95   : 				_Ptr = _Pnode;	// ==> parent while left subtree
; 96   : 			if (_Mytree::_Isnil(_Ptr))
; 97   : 				;	// begin() shouldn't be decremented, don't move
; 98   : 			else
; 99   : 				_Ptr = _Pnode;	// ==> parent if not head
; 100  : 			}
; 101  : 		return (*this);
; 102  : 		}
; 103  : 
; 104  : 	_Myiter operator--(int)
; 105  : 		{	// postdecrement
; 106  : 		_Myiter _Tmp = *this;
; 107  : 		--*this;
; 108  : 		return (_Tmp);
; 109  : 		}
; 110  : 
; 111  : 	bool operator==(const _Myiter& _Right) const
; 112  : 		{	// test for iterator equality
; 113  : 		return (_Ptr == _Right._Ptr);
; 114  : 		}
; 115  : 
; 116  : 	bool operator!=(const _Myiter& _Right) const
; 117  : 		{	// test for iterator inequality
; 118  : 		return (!(*this == _Right));
; 119  : 		}
; 120  : 
; 121  : 	_Nodeptr _Mynode() const
; 122  : 		{	// return node pointer
; 123  : 		return (_Ptr);
; 124  : 		}
; 125  : 
; 126  : 	_Nodeptr _Ptr;	// pointer to node
; 127  : 	};
; 128  : 
; 129  : 	// TEMPLATE CLASS _Tree_unchecked_iterator
; 130  : template<class _Mytree>
; 131  : 	class _Tree_unchecked_iterator
; 132  : 		: public _Tree_unchecked_const_iterator<_Mytree>
; 133  : 	{	// unchecked iterator for mutable tree
; 134  : public:
; 135  : 	typedef _Tree_unchecked_iterator<_Mytree> _Myiter;
; 136  : 	typedef _Tree_unchecked_const_iterator<_Mytree> _Mybase;
; 137  : 	typedef bidirectional_iterator_tag iterator_category;
; 138  : 
; 139  : 	typedef typename _Mytree::_Nodeptr _Nodeptr;
; 140  : 	typedef typename _Mytree::value_type value_type;
; 141  : 	typedef typename _Mytree::difference_type difference_type;
; 142  : 	typedef typename _Mytree::pointer pointer;
; 143  : 	typedef typename _Mytree::reference reference;
; 144  : 
; 145  : 	_Tree_unchecked_iterator()
; 146  : 		{	// construct with null node
; 147  : 		}
; 148  : 
; 149  : 	_Tree_unchecked_iterator(_Nodeptr _Pnode, const _Mytree *_Plist)
; 150  : 		: _Mybase(_Pnode, _Plist)
; 151  : 		{	// construct with node pointer _Pnode
; 152  : 		}
; 153  : 
; 154  : 	reference operator*() const
; 155  : 		{	// return designated value
; 156  : 		return ((reference)**(_Mybase *)this);
; 157  : 		}
; 158  : 
; 159  : 	pointer operator->() const
; 160  : 		{	// return pointer to class object
; 161  : 		return (_STD pointer_traits<pointer>::pointer_to(**this));
; 162  : 		}
; 163  : 
; 164  : 	_Myiter& operator++()
; 165  : 		{	// preincrement
; 166  : 		++(*(_Mybase *)this);
; 167  : 		return (*this);
; 168  : 		}
; 169  : 
; 170  : 	_Myiter operator++(int)
; 171  : 		{	// postincrement
; 172  : 		_Myiter _Tmp = *this;
; 173  : 		++*this;
; 174  : 		return (_Tmp);
; 175  : 		}
; 176  : 
; 177  : 	_Myiter& operator--()
; 178  : 		{	// predecrement
; 179  : 		--(*(_Mybase *)this);
; 180  : 		return (*this);
; 181  : 		}
; 182  : 
; 183  : 	_Myiter operator--(int)
; 184  : 		{	// postdecrement
; 185  : 		_Myiter _Tmp = *this;
; 186  : 		--*this;
; 187  : 		return (_Tmp);
; 188  : 		}
; 189  : 	};
; 190  : 
; 191  : 	// TEMPLATE CLASS _Tree_const_iterator
; 192  : template<class _Mytree>
; 193  : 	class _Tree_const_iterator
; 194  : 		: public _Tree_unchecked_const_iterator<_Mytree, _Iterator_base>
; 195  : 	{	// iterator for nonmutable tree
; 196  : public:
; 197  : 	typedef _Tree_const_iterator<_Mytree> _Myiter;
; 198  : 	typedef _Tree_unchecked_const_iterator<_Mytree, _Iterator_base> _Mybase;
; 199  : 	typedef bidirectional_iterator_tag iterator_category;
; 200  : 
; 201  : 	typedef typename _Mytree::_Nodeptr _Nodeptr;
; 202  : 	typedef typename _Mytree::value_type value_type;
; 203  : 	typedef typename _Mytree::difference_type difference_type;
; 204  : 	typedef typename _Mytree::const_pointer pointer;
; 205  : 	typedef typename _Mytree::const_reference reference;
; 206  : 
; 207  : 	_Tree_const_iterator()
; 208  : 		: _Mybase()
; 209  : 		{	// construct with null node pointer
; 210  : 		}
; 211  : 
; 212  : 	_Tree_const_iterator(_Nodeptr _Pnode, const _Mytree *_Plist)
; 213  : 		: _Mybase(_Pnode, _Plist)
; 214  : 		{	// construct with node pointer _Pnode
; 215  : 		}
; 216  : 
; 217  : 	typedef _Tree_unchecked_const_iterator<_Mytree> _Unchecked_type;
; 218  : 
; 219  : 	_Myiter& _Rechecked(_Unchecked_type _Right)
; 220  : 		{	// reset from unchecked iterator
; 221  : 		this->_Ptr = _Right._Ptr;
; 222  : 		return (*this);
; 223  : 		}
; 224  : 
; 225  : 	_Unchecked_type _Unchecked() const
; 226  : 		{	// make an unchecked iterator
; 227  : 		return (_Unchecked_type(this->_Ptr, (_Mytree *)this->_Getcont()));
; 228  : 		}
; 229  : 
; 230  : 	reference operator*() const
; 231  : 		{	// return designated value
; 232  :  #if _ITERATOR_DEBUG_LEVEL == 2
; 233  : 		if (this->_Getcont() == 0
; 234  : 			|| this->_Ptr == 0
; 235  : 			|| this->_Ptr == ((_Mytree *)this->_Getcont())->_Myhead)
; 236  : 			{	// report error
; 237  : 			_DEBUG_ERROR("map/set iterator not dereferencable");
; 238  : 			_SCL_SECURE_OUT_OF_RANGE;
; 239  : 			}
; 240  : 
; 241  :  #elif _ITERATOR_DEBUG_LEVEL == 1
; 242  : 		_SCL_SECURE_VALIDATE(this->_Getcont() != 0 && this->_Ptr != 0);
; 243  : 		_SCL_SECURE_VALIDATE_RANGE(this->_Ptr !=
; 244  : 			((_Mytree *)this->_Getcont())->_Myhead);
; 245  :  #endif /* _ITERATOR_DEBUG_LEVEL */
; 246  : 
; 247  : 		return (_Mytree::_Myval(this->_Ptr));
; 248  : 		}
; 249  : 
; 250  : 	pointer operator->() const
; 251  : 		{	// return pointer to class object
; 252  : 		return (_STD pointer_traits<pointer>::pointer_to(**this));
; 253  : 		}
; 254  : 
; 255  : 	_Myiter& operator++()
; 256  : 		{	// preincrement
; 257  :  #if _ITERATOR_DEBUG_LEVEL == 2
; 258  : 		if (this->_Getcont() == 0
; 259  : 			|| this->_Ptr == 0
; 260  : 			|| _Mytree::_Isnil(this->_Ptr))
; 261  : 			{	// report error
; 262  : 			_DEBUG_ERROR("map/set iterator not incrementable");
; 263  : 			_SCL_SECURE_OUT_OF_RANGE;
; 264  : 			}
; 265  : 
; 266  :  #elif _ITERATOR_DEBUG_LEVEL == 1
; 267  : 		_SCL_SECURE_VALIDATE(this->_Getcont() != 0 && this->_Ptr != 0);
; 268  : 		_SCL_SECURE_VALIDATE_RANGE(!_Mytree::_Isnil(this->_Ptr));
; 269  :  #endif /* _ITERATOR_DEBUG_LEVEL */
; 270  : 
; 271  : 		++(*(_Mybase *)this);
; 272  : 		return (*this);
; 273  : 		}
; 274  : 
; 275  : 	_Myiter operator++(int)
; 276  : 		{	// postincrement
; 277  : 		_Myiter _Tmp = *this;
; 278  : 		++*this;
; 279  : 		return (_Tmp);
; 280  : 		}
; 281  : 
; 282  : 	_Myiter& operator--()
; 283  : 		{	// predecrement
; 284  :  #if _ITERATOR_DEBUG_LEVEL == 2
; 285  : 		if (this->_Getcont() == 0
; 286  : 			|| this->_Ptr == 0)
; 287  : 			{	// report error
; 288  : 			_DEBUG_ERROR("map/set iterator not decrementable");
; 289  : 			_SCL_SECURE_OUT_OF_RANGE;
; 290  : 			}
; 291  : 
; 292  : 		_Nodeptr _Ptrsav = this->_Ptr;
; 293  : 		--(*(_Mybase *)this);
; 294  : 		if (_Ptrsav == this->_Ptr)
; 295  : 			{	// report error
; 296  : 			_DEBUG_ERROR("map/set iterator not decrementable");
; 297  : 			_SCL_SECURE_OUT_OF_RANGE;
; 298  : 			}
; 299  : 
; 300  :  #elif _ITERATOR_DEBUG_LEVEL == 1
; 301  : 		_SCL_SECURE_VALIDATE(this->_Getcont() != 0 && this->_Ptr != 0);
; 302  : 
; 303  : 		_Nodeptr _Ptrsav = this->_Ptr;
; 304  : 		--(*(_Mybase *)this);
; 305  : 		_SCL_SECURE_VALIDATE(_Ptrsav != this->_Ptr);
; 306  : 
; 307  :  #else /* _ITERATOR_DEBUG_LEVEL == 0 */
; 308  : 		--(*(_Mybase *)this);
; 309  :  #endif /* _ITERATOR_DEBUG_LEVEL */
; 310  : 
; 311  : 		return (*this);
; 312  : 		}
; 313  : 
; 314  : 	_Myiter operator--(int)
; 315  : 		{	// postdecrement
; 316  : 		_Myiter _Tmp = *this;
; 317  : 		--*this;
; 318  : 		return (_Tmp);
; 319  : 		}
; 320  : 
; 321  : 	bool operator==(const _Myiter& _Right) const
; 322  : 		{	// test for iterator equality
; 323  :  #if _ITERATOR_DEBUG_LEVEL == 2
; 324  : 		if (this->_Getcont() != _Right._Getcont())
; 325  : 			{	// report error
; 326  : 			_DEBUG_ERROR("map/set iterators incompatible");
; 327  : 			_SCL_SECURE_INVALID_ARGUMENT;
; 328  : 			}
; 329  : 
; 330  :  #elif _ITERATOR_DEBUG_LEVEL == 1
; 331  : 		_SCL_SECURE_VALIDATE(this->_Getcont() == _Right._Getcont());
; 332  :  #endif /* _ITERATOR_DEBUG_LEVEL */
; 333  : 
; 334  : 		return (this->_Ptr == _Right._Ptr);
; 335  : 		}
; 336  : 
; 337  : 	bool operator!=(const _Myiter& _Right) const
; 338  : 		{	// test for iterator inequality
; 339  : 		return (!(*this == _Right));
; 340  : 		}
; 341  : 	};
; 342  : 
; 343  : template<class _Mytree> inline
; 344  : 	typename _Tree_const_iterator<_Mytree>::_Unchecked_type
; 345  : 		_Unchecked(_Tree_const_iterator<_Mytree> _Iter)
; 346  : 	{	// convert to unchecked
; 347  : 	return (_Iter._Unchecked());
; 348  : 	}
; 349  : 
; 350  : template<class _Mytree> inline
; 351  : 	_Tree_const_iterator<_Mytree>&
; 352  : 		_Rechecked(_Tree_const_iterator<_Mytree>& _Iter,
; 353  : 			typename _Tree_const_iterator<_Mytree>
; 354  : 				::_Unchecked_type _Right)
; 355  : 	{	// convert to checked
; 356  : 	return (_Iter._Rechecked(_Right));
; 357  : 	}
; 358  : 
; 359  : 	// TEMPLATE CLASS _Tree_iterator
; 360  : template<class _Mytree>
; 361  : 	class _Tree_iterator
; 362  : 		: public _Tree_const_iterator<_Mytree>
; 363  : 	{	// iterator for mutable tree
; 364  : public:
; 365  : 	typedef _Tree_iterator<_Mytree> _Myiter;
; 366  : 	typedef _Tree_const_iterator<_Mytree> _Mybase;
; 367  : 	typedef bidirectional_iterator_tag iterator_category;
; 368  : 
; 369  : 	typedef typename _Mytree::_Nodeptr _Nodeptr;
; 370  : 	typedef typename _Mytree::value_type value_type;
; 371  : 	typedef typename _Mytree::difference_type difference_type;
; 372  : 
; 373  : 	typedef typename _Mytree::pointer pointer;
; 374  : 	typedef typename _Mytree::reference reference;
; 375  : 
; 376  : 	_Tree_iterator()
; 377  : 		{	// construct with null node
; 378  : 		}
; 379  : 
; 380  : 	_Tree_iterator(_Nodeptr _Pnode, const _Mytree *_Plist)
; 381  : 		: _Mybase(_Pnode, _Plist)
; 382  : 		{	// construct with node pointer _Pnode
; 383  : 		}
; 384  : 
; 385  : 	typedef _Tree_unchecked_iterator<_Mytree> _Unchecked_type;
; 386  : 
; 387  : 	_Myiter& _Rechecked(_Unchecked_type _Right)
; 388  : 		{	// reset from unchecked iterator
; 389  : 		this->_Ptr = _Right._Ptr;
; 390  : 		return (*this);
; 391  : 		}
; 392  : 
; 393  : 	_Unchecked_type _Unchecked() const
; 394  : 		{	// make an unchecked iterator
; 395  : 		return (_Unchecked_type(this->_Ptr, (_Mytree *)this->_Getcont()));
; 396  : 		}
; 397  : 
; 398  : 	reference operator*() const
; 399  : 		{	// return designated value
; 400  : 		return ((reference)**(_Mybase *)this);
; 401  : 		}
; 402  : 
; 403  : 	pointer operator->() const
; 404  : 		{	// return pointer to class object
; 405  : 		return (_STD pointer_traits<pointer>::pointer_to(**this));
; 406  : 		}
; 407  : 
; 408  : 	_Myiter& operator++()
; 409  : 		{	// preincrement
; 410  : 		++(*(_Mybase *)this);
; 411  : 		return (*this);
; 412  : 		}
; 413  : 
; 414  : 	_Myiter operator++(int)
; 415  : 		{	// postincrement
; 416  : 		_Myiter _Tmp = *this;
; 417  : 		++*this;
; 418  : 		return (_Tmp);
; 419  : 		}
; 420  : 
; 421  : 	_Myiter& operator--()
; 422  : 		{	// predecrement
; 423  : 		--(*(_Mybase *)this);
; 424  : 		return (*this);
; 425  : 		}
; 426  : 
; 427  : 	_Myiter operator--(int)
; 428  : 		{	// postdecrement
; 429  : 		_Myiter _Tmp = *this;
; 430  : 		--*this;
; 431  : 		return (_Tmp);
; 432  : 		}
; 433  : 	};
; 434  : 
; 435  : template<class _Mytree> inline
; 436  : 	typename _Tree_iterator<_Mytree>::_Unchecked_type
; 437  : 		_Unchecked(_Tree_iterator<_Mytree> _Iter)
; 438  : 	{	// convert to unchecked
; 439  : 	return (_Iter._Unchecked());
; 440  : 	}
; 441  : 
; 442  : template<class _Mytree> inline
; 443  : 	_Tree_iterator<_Mytree>&
; 444  : 		_Rechecked(_Tree_iterator<_Mytree>& _Iter,
; 445  : 			typename _Tree_iterator<_Mytree>
; 446  : 				::_Unchecked_type _Right)
; 447  : 	{	// convert to checked
; 448  : 	return (_Iter._Rechecked(_Right));
; 449  : 	}
; 450  : 
; 451  : 		// tree TYPE WRAPPERS
; 452  : template<class _Value_type,
; 453  : 	class _Size_type,
; 454  : 	class _Difference_type,
; 455  : 	class _Pointer,
; 456  : 	class _Const_pointer,
; 457  : 	class _Reference,
; 458  : 	class _Const_reference,
; 459  : 	class _Nodeptr_type>
; 460  : 	struct _Tree_iter_types
; 461  : 	{	// wraps types needed by iterators
; 462  : 	typedef _Value_type value_type;
; 463  : 	typedef _Size_type size_type;
; 464  : 	typedef _Difference_type difference_type;
; 465  : 	typedef _Pointer pointer;
; 466  : 	typedef _Const_pointer const_pointer;
; 467  : 	typedef _Reference reference;
; 468  : 	typedef _Const_reference const_reference;
; 469  : 	typedef _Nodeptr_type _Nodeptr;
; 470  : 	};
; 471  : 
; 472  : template<class _Value_type,
; 473  : 	class _Voidptr>
; 474  : 	struct _Tree_node
; 475  : 		{	// tree node
; 476  : 		_Voidptr _Left;	// left subtree, or smallest element if head
; 477  : 		_Voidptr _Parent;	// parent, or root of tree if head
; 478  : 		_Voidptr _Right;	// right subtree, or largest element if head
; 479  : 		char _Color;	// _Red or _Black, _Black if head
; 480  : 		char _Isnil;	// true only if head (also nil) node
; 481  : 		_Value_type _Myval;	// the stored value, unused if head
; 482  : 
; 483  : 	private:
; 484  : 		_Tree_node& operator=(const _Tree_node&);
; 485  : 		};
; 486  : 
; 487  : template<class _Value_type>
; 488  : 	struct _Tree_node<_Value_type, void *>
; 489  : 		{	// tree node
; 490  : 		typedef _Tree_node<_Value_type, void *> *_Nodeptr;
; 491  : 		_Nodeptr _Left;	// left subtree, or smallest element if head
; 492  : 		_Nodeptr _Parent;	// parent, or root of tree if head
; 493  : 		_Nodeptr _Right;	// right subtree, or largest element if head
; 494  : 		char _Color;	// _Red or _Black, _Black if head
; 495  : 		char _Isnil;	// true only if head (also nil) node
; 496  : 		_Value_type _Myval;	// the stored value, unused if head
; 497  : 
; 498  : 	private:
; 499  : 		_Tree_node& operator=(const _Tree_node&);
; 500  : 		};
; 501  : 
; 502  : template<class _Ty>
; 503  : 	struct _Tree_simple_types
; 504  : 		: public _Simple_types<_Ty>
; 505  : 	{	// wraps types needed by iterators
; 506  : 	typedef _Tree_node<_Ty, void *> _Node;
; 507  : 	typedef _Node *_Nodeptr;
; 508  : 	};
; 509  : 
; 510  : template<class _Ty,
; 511  : 	class _Alloc0>
; 512  : 	struct _Tree_base_types
; 513  : 	{	// types needed for a container base
; 514  : 	typedef _Alloc0 _Alloc;
; 515  : 	typedef _Tree_base_types<_Ty, _Alloc> _Myt;
; 516  : 
; 517  : 	typedef _Wrap_alloc<_Alloc> _Alty0;
; 518  : 	typedef typename _Alty0::template rebind<_Ty>::other _Alty;
; 519  : 
; 520  : 
; 521  : 	typedef typename _Get_voidptr<_Alty, typename _Alty::pointer>::type
; 522  : 		_Voidptr;
; 523  : 	typedef _Tree_node<typename _Alty::value_type,
; 524  : 		_Voidptr> _Node;
; 525  : 
; 526  : 	typedef typename _Alty::template rebind<_Node>::other _Alnod_type;
; 527  : 	typedef typename _Alnod_type::pointer _Nodeptr;
; 528  : 	typedef _Nodeptr& _Nodepref;
; 529  : 
; 530  : 	typedef typename _If<_Is_simple_alloc<_Alty>::value,
; 531  : 		_Tree_simple_types<typename _Alty::value_type>,
; 532  : 		_Tree_iter_types<typename _Alty::value_type,
; 533  : 			typename _Alty::size_type,
; 534  : 			typename _Alty::difference_type,
; 535  : 			typename _Alty::pointer,
; 536  : 			typename _Alty::const_pointer,
; 537  : 			typename _Alty::reference,
; 538  : 			typename _Alty::const_reference,
; 539  : 			_Nodeptr> >::type
; 540  : 		_Val_types;
; 541  : 	};
; 542  : 
; 543  : 		// TEMPLATE CLASS _Tree_val
; 544  : template<class _Val_types>
; 545  : 	class _Tree_val
; 546  : 		: public _Container_base
; 547  : 	{	// base class for tree to hold data
; 548  : public:
; 549  : 	typedef _Tree_val<_Val_types> _Myt;
; 550  : 
; 551  : 	typedef typename _Val_types::_Nodeptr _Nodeptr;
; 552  : 	typedef _Nodeptr& _Nodepref;
; 553  : 
; 554  : 	typedef typename _Val_types::value_type value_type;
; 555  : 	typedef typename _Val_types::size_type size_type;
; 556  : 	typedef typename _Val_types::difference_type difference_type;
; 557  : 	typedef typename _Val_types::pointer pointer;
; 558  : 	typedef typename _Val_types::const_pointer const_pointer;
; 559  : 	typedef typename _Val_types::reference reference;
; 560  : 	typedef typename _Val_types::const_reference const_reference;
; 561  : 
; 562  : 	typedef _Tree_const_iterator<_Myt> const_iterator;
; 563  : 	typedef _Tree_iterator<_Myt> iterator;
; 564  : 
; 565  : 	_Tree_val()
; 566  : 		{	// initialize data
; 567  : 		this->_Myhead = 0;
; 568  : 		this->_Mysize = 0;
; 569  : 		}
; 570  : 
; 571  : 	enum _Redbl
; 572  : 		{	// colors for link to parent
; 573  : 		_Red, _Black};
; 574  : 
; 575  : 	static char& _Color(_Nodeptr _Pnode)
; 576  : 		{	// return reference to color in node
; 577  : 		return ((char&)_Pnode->_Color);
; 578  : 		}
; 579  : 
; 580  : 	static char& _Isnil(_Nodeptr _Pnode)
; 581  : 		{	// return reference to nil flag in node
; 582  : 		return ((char&)_Pnode->_Isnil);

  00132	8b 02		 mov	 eax, DWORD PTR [edx]

; 2112 : 
; 2113 : 		if (!this->_Isnil(this->_Left(_Pnode)))

  00134	80 78 0d 00	 cmp	 BYTE PTR [eax+13], 0
  00138	75 03		 jne	 SHORT $LN575@Insert_at

; 2114 : 			this->_Parent(this->_Left(_Pnode)) = _Wherenode;

  0013a	89 48 04	 mov	 DWORD PTR [eax+4], ecx
$LN575@Insert_at:

; 2115 : 		this->_Parent(_Pnode) = this->_Parent(_Wherenode);

  0013d	8b 41 04	 mov	 eax, DWORD PTR [ecx+4]
  00140	89 42 04	 mov	 DWORD PTR [edx+4], eax

; 588  : 		}
; 589  : 
; 590  : 	static _Nodepref _Parent(_Nodeptr _Pnode)
; 591  : 		{	// return reference to parent pointer in node
; 592  : 		return ((_Nodepref)_Pnode->_Parent);

  00143	8b 07		 mov	 eax, DWORD PTR [edi]

; 2116 : 
; 2117 : 		if (_Wherenode == _Root())

  00145	3b 48 04	 cmp	 ecx, DWORD PTR [eax+4]
  00148	75 05		 jne	 SHORT $LN576@Insert_at

; 2118 : 			_Root() = _Pnode;

  0014a	89 50 04	 mov	 DWORD PTR [eax+4], edx

; 2119 : 		else if (_Wherenode == this->_Left(this->_Parent(_Wherenode)))

  0014d	eb 0e		 jmp	 SHORT $LN579@Insert_at
$LN576@Insert_at:

; 583  : 		}
; 584  : 
; 585  : 	static _Nodepref _Left(_Nodeptr _Pnode)
; 586  : 		{	// return reference to left pointer in node
; 587  : 		return ((_Nodepref)_Pnode->_Left);

  0014f	8b 41 04	 mov	 eax, DWORD PTR [ecx+4]

; 2119 : 		else if (_Wherenode == this->_Left(this->_Parent(_Wherenode)))

  00152	3b 08		 cmp	 ecx, DWORD PTR [eax]
  00154	75 04		 jne	 SHORT $LN578@Insert_at

; 2120 : 			this->_Left(this->_Parent(_Wherenode)) = _Pnode;

  00156	89 10		 mov	 DWORD PTR [eax], edx

; 2121 : 		else

  00158	eb 03		 jmp	 SHORT $LN579@Insert_at
$LN578@Insert_at:

; 2122 : 			this->_Right(this->_Parent(_Wherenode)) = _Pnode;

  0015a	89 50 08	 mov	 DWORD PTR [eax+8], edx
$LN579@Insert_at:

; 2123 : 
; 2124 : 		this->_Left(_Pnode) = _Wherenode;

  0015d	89 0a		 mov	 DWORD PTR [edx], ecx
$LN728@Insert_at:

; 2125 : 		this->_Parent(_Wherenode) = _Pnode;

  0015f	89 51 04	 mov	 DWORD PTR [ecx+4], edx
$LN18@Insert_at:

; 1884 : 			}
; 1885 : 
; 1886 : 		for (_Nodeptr _Pnode = _Newnode;
; 1887 : 			this->_Color(this->_Parent(_Pnode)) == this->_Red; )

  00162	8b 46 04	 mov	 eax, DWORD PTR [esi+4]
  00165	80 78 0c 00	 cmp	 BYTE PTR [eax+12], 0
  00169	0f 84 f6 fe ff
	ff		 je	 $LL2@Insert_at
$LN3@Insert_at:

; 1939 : 					}
; 1940 : 				}
; 1941 : 
; 1942 : 		this->_Color(_Root()) = this->_Black;	// root is always black

  0016f	8b 07		 mov	 eax, DWORD PTR [edi]
  00171	5f		 pop	 edi
  00172	5e		 pop	 esi
  00173	8b 40 04	 mov	 eax, DWORD PTR [eax+4]
  00176	c6 40 0c 01	 mov	 BYTE PTR [eax+12], 1

; 43   : 		: _Ptr(_Pnode)

  0017a	8b 45 08	 mov	 eax, DWORD PTR ___$ReturnUdt$[ebp]
  0017d	89 18		 mov	 DWORD PTR [eax], ebx
  0017f	5b		 pop	 ebx

; 1943 : 		return (iterator(_Newnode, &this->_Get_data()));
; 1944 : 		}

  00180	5d		 pop	 ebp
  00181	c2 14 00	 ret	 20			; 00000014H
$LN730@Insert_at:
; File c:\program files (x86)\microsoft visual studio 14.0\vc\include\xmemory0

; 138  : 	::operator delete(_Ptr);

  00184	ff 75 18	 push	 DWORD PTR __Node$[ebp]
  00187	e8 00 00 00 00	 call	 ??3@YAXPAX@Z		; operator delete
  0018c	83 c4 04	 add	 esp, 4
; File c:\program files (x86)\microsoft visual studio 14.0\vc\include\xtree

; 1859 : 			_Xlength_error("map/set<T> too long");

  0018f	68 00 00 00 00	 push	 OFFSET ??_C@_0BE@JONHPENG@map?1set?$DMT?$DO?5too?5long?$AA@
  00194	e8 00 00 00 00	 call	 ?_Xlength_error@std@@YAXPBD@Z ; std::_Xlength_error
$LN732@Insert_at:
$LN727@Insert_at:
  00199	cc		 int	 3
??$_Insert_at@AAU?$pair@$$CBHPAUCUSTOM_MONSTER_ATTR@@@std@@PAU?$_Tree_node@U?$pair@$$CBHPAUCUSTOM_MONSTER_ATTR@@@std@@PAX@2@@?$_Tree@V?$_Tmap_traits@HPAUCUSTOM_MONSTER_ATTR@@U?$less@H@std@@V?$allocator@U?$pair@$$CBHPAUCUSTOM_MONSTER_ATTR@@@std@@@3@$0A@@std@@@std@@IAE?AV?$_Tree_iterator@V?$_Tree_val@U?$_Tree_simple_types@U?$pair@$$CBHPAUCUSTOM_MONSTER_ATTR@@@std@@@std@@@std@@@1@_NPAU?$_Tree_node@U?$pair@$$CBHPAUCUSTOM_MONSTER_ATTR@@@std@@PAX@1@AAU?$pair@$$CBHPAUCUSTOM_MONSTER_ATTR@@@1@1@Z ENDP ; std::_Tree<std::_Tmap_traits<int,CUSTOM_MONSTER_ATTR *,std::less<int>,std::allocator<std::pair<int const ,CUSTOM_MONSTER_ATTR *> >,0> >::_Insert_at<std::pair<int const ,CUSTOM_MONSTER_ATTR *> &,std::_Tree_node<std::pair<int const ,CUSTOM_MONSTER_ATTR *>,void *> *>
_TEXT	ENDS
; Function compile flags: /Ogtp
; File c:\program files (x86)\microsoft visual studio 14.0\vc\include\type_traits
;	COMDAT ??$forward@AAU?$pair@$$CBHPAUCUSTOM_MONSTER_ATTR@@@std@@@std@@YAAAU?$pair@$$CBHPAUCUSTOM_MONSTER_ATTR@@@0@AAU10@@Z
_TEXT	SEGMENT
__Arg$ = 8						; size = 4
??$forward@AAU?$pair@$$CBHPAUCUSTOM_MONSTER_ATTR@@@std@@@std@@YAAAU?$pair@$$CBHPAUCUSTOM_MONSTER_ATTR@@@0@AAU10@@Z PROC ; std::forward<std::pair<int const ,CUSTOM_MONSTER_ATTR *> &>, COMDAT

; 1233 : 	{	// forward an lvalue as either an lvalue or an rvalue

  00000	55		 push	 ebp
  00001	8b ec		 mov	 ebp, esp

; 1234 : 	return (static_cast<_Ty&&>(_Arg));

  00003	8b 45 08	 mov	 eax, DWORD PTR __Arg$[ebp]

; 1235 : 	}

  00006	5d		 pop	 ebp
  00007	c3		 ret	 0
??$forward@AAU?$pair@$$CBHPAUCUSTOM_MONSTER_ATTR@@@std@@@std@@YAAAU?$pair@$$CBHPAUCUSTOM_MONSTER_ATTR@@@0@AAU10@@Z ENDP ; std::forward<std::pair<int const ,CUSTOM_MONSTER_ATTR *> &>
_TEXT	ENDS
; Function compile flags: /Ogtp
; File c:\program files (x86)\microsoft visual studio 14.0\vc\include\xmemory0
; File c:\program files (x86)\microsoft visual studio 14.0\vc\include\utility
; File c:\program files (x86)\microsoft visual studio 14.0\vc\include\xmemory0
;	COMDAT ??$construct@U?$pair@$$CBHPAUCUSTOM_MONSTER_ATTR@@@std@@U?$pair@HPAUCUSTOM_MONSTER_ATTR@@@2@@?$_Wrap_alloc@V?$allocator@U?$_Tree_node@U?$pair@$$CBHPAUCUSTOM_MONSTER_ATTR@@@std@@PAX@std@@@std@@@std@@QAEXPAU?$pair@$$CBHPAUCUSTOM_MONSTER_ATTR@@@1@$$QAU?$pair@HPAUCUSTOM_MONSTER_ATTR@@@1@@Z
_TEXT	SEGMENT
__Ptr$ = 8						; size = 4
_<_Args_0>$ = 12					; size = 4
??$construct@U?$pair@$$CBHPAUCUSTOM_MONSTER_ATTR@@@std@@U?$pair@HPAUCUSTOM_MONSTER_ATTR@@@2@@?$_Wrap_alloc@V?$allocator@U?$_Tree_node@U?$pair@$$CBHPAUCUSTOM_MONSTER_ATTR@@@std@@PAX@std@@@std@@@std@@QAEXPAU?$pair@$$CBHPAUCUSTOM_MONSTER_ATTR@@@1@$$QAU?$pair@HPAUCUSTOM_MONSTER_ATTR@@@1@@Z PROC ; std::_Wrap_alloc<std::allocator<std::_Tree_node<std::pair<int const ,CUSTOM_MONSTER_ATTR *>,void *> > >::construct<std::pair<int const ,CUSTOM_MONSTER_ATTR *>,std::pair<int,CUSTOM_MONSTER_ATTR *> >, COMDAT
; _this$ = ecx

; 916  : 		{	// construct _Ty(_Types...) at _Ptr

  00000	55		 push	 ebp
  00001	8b ec		 mov	 ebp, esp

; 655  : 		::new ((void *)_Ptr) _Objty(_STD forward<_Types>(_Args)...);

  00003	8b 55 08	 mov	 edx, DWORD PTR __Ptr$[ebp]
  00006	85 d2		 test	 edx, edx
  00008	74 0d		 je	 SHORT $LN13@construct
; File c:\program files (x86)\microsoft visual studio 14.0\vc\include\utility

; 156  : 		: first(_STD forward<_Other1>(_Right.first)),

  0000a	8b 4d 0c	 mov	 ecx, DWORD PTR _<_Args_0>$[ebp]
  0000d	8b 01		 mov	 eax, DWORD PTR [ecx]
  0000f	89 02		 mov	 DWORD PTR [edx], eax

; 157  : 			second(_STD forward<_Other2>(_Right.second))

  00011	8b 41 04	 mov	 eax, DWORD PTR [ecx+4]
  00014	89 42 04	 mov	 DWORD PTR [edx+4], eax
$LN13@construct:
; File c:\program files (x86)\microsoft visual studio 14.0\vc\include\xmemory0

; 919  : 		}

  00017	5d		 pop	 ebp
  00018	c2 08 00	 ret	 8
??$construct@U?$pair@$$CBHPAUCUSTOM_MONSTER_ATTR@@@std@@U?$pair@HPAUCUSTOM_MONSTER_ATTR@@@2@@?$_Wrap_alloc@V?$allocator@U?$_Tree_node@U?$pair@$$CBHPAUCUSTOM_MONSTER_ATTR@@@std@@PAX@std@@@std@@@std@@QAEXPAU?$pair@$$CBHPAUCUSTOM_MONSTER_ATTR@@@1@$$QAU?$pair@HPAUCUSTOM_MONSTER_ATTR@@@1@@Z ENDP ; std::_Wrap_alloc<std::allocator<std::_Tree_node<std::pair<int const ,CUSTOM_MONSTER_ATTR *>,void *> > >::construct<std::pair<int const ,CUSTOM_MONSTER_ATTR *>,std::pair<int,CUSTOM_MONSTER_ATTR *> >
_TEXT	ENDS
; Function compile flags: /Ogtp
; File c:\program files (x86)\microsoft visual studio 14.0\vc\include\xmemory0
;	COMDAT ??$construct@PAU?$_Tree_node@U?$pair@$$CBHPAUCUSTOM_MONSTER_ATTR@@@std@@PAX@std@@AAPAU12@@?$allocator_traits@V?$allocator@U?$_Tree_node@U?$pair@$$CBHPAUCUSTOM_MONSTER_ATTR@@@std@@PAX@std@@@std@@@std@@SAXAAV?$allocator@U?$_Tree_node@U?$pair@$$CBHPAUCUSTOM_MONSTER_ATTR@@@std@@PAX@std@@@1@PAPAU?$_Tree_node@U?$pair@$$CBHPAUCUSTOM_MONSTER_ATTR@@@std@@PAX@1@AAPAU31@@Z
_TEXT	SEGMENT
__Al$ = 8						; size = 4
__Ptr$ = 12						; size = 4
_<_Args_0>$ = 16					; size = 4
??$construct@PAU?$_Tree_node@U?$pair@$$CBHPAUCUSTOM_MONSTER_ATTR@@@std@@PAX@std@@AAPAU12@@?$allocator_traits@V?$allocator@U?$_Tree_node@U?$pair@$$CBHPAUCUSTOM_MONSTER_ATTR@@@std@@PAX@std@@@std@@@std@@SAXAAV?$allocator@U?$_Tree_node@U?$pair@$$CBHPAUCUSTOM_MONSTER_ATTR@@@std@@PAX@std@@@1@PAPAU?$_Tree_node@U?$pair@$$CBHPAUCUSTOM_MONSTER_ATTR@@@std@@PAX@1@AAPAU31@@Z PROC ; std::allocator_traits<std::allocator<std::_Tree_node<std::pair<int const ,CUSTOM_MONSTER_ATTR *>,void *> > >::construct<std::_Tree_node<std::pair<int const ,CUSTOM_MONSTER_ATTR *>,void *> *,std::_Tree_node<std::pair<int const ,CUSTOM_MONSTER_ATTR *>,void *> * &>, COMDAT

; 772  : 		{	// construct _Objty(_Types...) at _Ptr

  00000	55		 push	 ebp
  00001	8b ec		 mov	 ebp, esp

; 655  : 		::new ((void *)_Ptr) _Objty(_STD forward<_Types>(_Args)...);

  00003	8b 4d 0c	 mov	 ecx, DWORD PTR __Ptr$[ebp]
  00006	85 c9		 test	 ecx, ecx
  00008	74 07		 je	 SHORT $LN8@construct
  0000a	8b 45 10	 mov	 eax, DWORD PTR _<_Args_0>$[ebp]
  0000d	8b 00		 mov	 eax, DWORD PTR [eax]
  0000f	89 01		 mov	 DWORD PTR [ecx], eax
$LN8@construct:

; 773  : 		_Al.construct(_Ptr, _STD forward<_Types>(_Args)...);
; 774  : 		}

  00011	5d		 pop	 ebp
  00012	c3		 ret	 0
??$construct@PAU?$_Tree_node@U?$pair@$$CBHPAUCUSTOM_MONSTER_ATTR@@@std@@PAX@std@@AAPAU12@@?$allocator_traits@V?$allocator@U?$_Tree_node@U?$pair@$$CBHPAUCUSTOM_MONSTER_ATTR@@@std@@PAX@std@@@std@@@std@@SAXAAV?$allocator@U?$_Tree_node@U?$pair@$$CBHPAUCUSTOM_MONSTER_ATTR@@@std@@PAX@std@@@1@PAPAU?$_Tree_node@U?$pair@$$CBHPAUCUSTOM_MONSTER_ATTR@@@std@@PAX@1@AAPAU31@@Z ENDP ; std::allocator_traits<std::allocator<std::_Tree_node<std::pair<int const ,CUSTOM_MONSTER_ATTR *>,void *> > >::construct<std::_Tree_node<std::pair<int const ,CUSTOM_MONSTER_ATTR *>,void *> *,std::_Tree_node<std::pair<int const ,CUSTOM_MONSTER_ATTR *>,void *> * &>
_TEXT	ENDS
; Function compile flags: /Ogtp
; File c:\program files (x86)\microsoft visual studio 14.0\vc\include\type_traits
;	COMDAT ??$forward@AAPAU?$_Tree_node@U?$pair@$$CBHPAUCUSTOM_MONSTER_ATTR@@@std@@PAX@std@@@std@@YAAAPAU?$_Tree_node@U?$pair@$$CBHPAUCUSTOM_MONSTER_ATTR@@@std@@PAX@0@AAPAU10@@Z
_TEXT	SEGMENT
__Arg$ = 8						; size = 4
??$forward@AAPAU?$_Tree_node@U?$pair@$$CBHPAUCUSTOM_MONSTER_ATTR@@@std@@PAX@std@@@std@@YAAAPAU?$_Tree_node@U?$pair@$$CBHPAUCUSTOM_MONSTER_ATTR@@@std@@PAX@0@AAPAU10@@Z PROC ; std::forward<std::_Tree_node<std::pair<int const ,CUSTOM_MONSTER_ATTR *>,void *> * &>, COMDAT

; 1233 : 	{	// forward an lvalue as either an lvalue or an rvalue

  00000	55		 push	 ebp
  00001	8b ec		 mov	 ebp, esp

; 1234 : 	return (static_cast<_Ty&&>(_Arg));

  00003	8b 45 08	 mov	 eax, DWORD PTR __Arg$[ebp]

; 1235 : 	}

  00006	5d		 pop	 ebp
  00007	c3		 ret	 0
??$forward@AAPAU?$_Tree_node@U?$pair@$$CBHPAUCUSTOM_MONSTER_ATTR@@@std@@PAX@std@@@std@@YAAAPAU?$_Tree_node@U?$pair@$$CBHPAUCUSTOM_MONSTER_ATTR@@@std@@PAX@0@AAPAU10@@Z ENDP ; std::forward<std::_Tree_node<std::pair<int const ,CUSTOM_MONSTER_ATTR *>,void *> * &>
_TEXT	ENDS
; Function compile flags: /Ogtp
; File c:\program files (x86)\microsoft visual studio 14.0\vc\include\xmemory
;	COMDAT ??$_Uninitialized_move@PAUMONSTER_ATTRIBUTE@@PAU1@U?$_Wrap_alloc@V?$allocator@UMONSTER_ATTRIBUTE@@@std@@@std@@@std@@YAPAUMONSTER_ATTRIBUTE@@PAU1@00AAU?$_Wrap_alloc@V?$allocator@UMONSTER_ATTRIBUTE@@@std@@@0@@Z
_TEXT	SEGMENT
__First$ = 8						; size = 4
__Last$ = 12						; size = 4
__Cat$1 = 16						; size = 1
__Dest$ = 16						; size = 4
__Al$ = 20						; size = 4
??$_Uninitialized_move@PAUMONSTER_ATTRIBUTE@@PAU1@U?$_Wrap_alloc@V?$allocator@UMONSTER_ATTRIBUTE@@@std@@@std@@@std@@YAPAUMONSTER_ATTRIBUTE@@PAU1@00AAU?$_Wrap_alloc@V?$allocator@UMONSTER_ATTRIBUTE@@@std@@@0@@Z PROC ; std::_Uninitialized_move<MONSTER_ATTRIBUTE *,MONSTER_ATTRIBUTE *,std::_Wrap_alloc<std::allocator<MONSTER_ATTRIBUTE> > >, COMDAT

; 490  : 	{	// move [_First, _Last) to raw _Dest, using _Al

  00000	55		 push	 ebp
  00001	8b ec		 mov	 ebp, esp

; 481  : 	return (_Uninit_move(_First, _Last, _Dest, _Al,

  00003	ff 75 10	 push	 DWORD PTR __Cat$1[ebp]
  00006	6a 00		 push	 0
  00008	ff 75 14	 push	 DWORD PTR __Al$[ebp]
  0000b	ff 75 10	 push	 DWORD PTR __Dest$[ebp]
  0000e	ff 75 0c	 push	 DWORD PTR __Last$[ebp]
  00011	ff 75 08	 push	 DWORD PTR __First$[ebp]
  00014	e8 00 00 00 00	 call	 ??$_Uninit_move@PAUMONSTER_ATTRIBUTE@@PAU1@V?$allocator@UMONSTER_ATTRIBUTE@@@std@@U1@@std@@YAPAUMONSTER_ATTRIBUTE@@PAU1@00AAU?$_Wrap_alloc@V?$allocator@UMONSTER_ATTRIBUTE@@@std@@@0@0U_Nonscalar_ptr_iterator_tag@0@@Z ; std::_Uninit_move<MONSTER_ATTRIBUTE *,MONSTER_ATTRIBUTE *,std::allocator<MONSTER_ATTRIBUTE>,MONSTER_ATTRIBUTE>
  00019	83 c4 18	 add	 esp, 24			; 00000018H

; 491  : 	return (_Rechecked(_Dest,
; 492  : 		_Uninit_move(_Unchecked(_First), _Unchecked(_Last),
; 493  : 			_Unchecked(_Dest), _Al)));
; 494  : 	}

  0001c	5d		 pop	 ebp
  0001d	c3		 ret	 0
??$_Uninitialized_move@PAUMONSTER_ATTRIBUTE@@PAU1@U?$_Wrap_alloc@V?$allocator@UMONSTER_ATTRIBUTE@@@std@@@std@@@std@@YAPAUMONSTER_ATTRIBUTE@@PAU1@00AAU?$_Wrap_alloc@V?$allocator@UMONSTER_ATTRIBUTE@@@std@@@0@@Z ENDP ; std::_Uninitialized_move<MONSTER_ATTRIBUTE *,MONSTER_ATTRIBUTE *,std::_Wrap_alloc<std::allocator<MONSTER_ATTRIBUTE> > >
_TEXT	ENDS
; Function compile flags: /Ogtp
; File c:\program files (x86)\microsoft visual studio 14.0\vc\include\xutility
; File c:\program files (x86)\microsoft visual studio 14.0\vc\include\xtree
; File c:\program files (x86)\microsoft visual studio 14.0\vc\include\xutility
; File c:\program files (x86)\microsoft visual studio 14.0\vc\include\xtree
; File c:\program files (x86)\microsoft visual studio 14.0\vc\include\xutility
;	COMDAT ??$?0ABV?$allocator@U?$pair@$$CBHPAUCUSTOM_MONSTER_ATTR@@@std@@@std@@$$V@?$_Compressed_pair@U?$_Wrap_alloc@V?$allocator@U?$_Tree_node@U?$pair@$$CBHPAUCUSTOM_MONSTER_ATTR@@@std@@PAX@std@@@std@@@std@@V?$_Tree_val@U?$_Tree_simple_types@U?$pair@$$CBHPAUCUSTOM_MONSTER_ATTR@@@std@@@std@@@2@$00@std@@QAE@U_One_then_variadic_args_t@1@ABV?$allocator@U?$pair@$$CBHPAUCUSTOM_MONSTER_ATTR@@@std@@@1@@Z
_TEXT	SEGMENT
___formal$ = 8						; size = 1
__Val1$ = 12						; size = 4
??$?0ABV?$allocator@U?$pair@$$CBHPAUCUSTOM_MONSTER_ATTR@@@std@@@std@@$$V@?$_Compressed_pair@U?$_Wrap_alloc@V?$allocator@U?$_Tree_node@U?$pair@$$CBHPAUCUSTOM_MONSTER_ATTR@@@std@@PAX@std@@@std@@@std@@V?$_Tree_val@U?$_Tree_simple_types@U?$pair@$$CBHPAUCUSTOM_MONSTER_ATTR@@@std@@@std@@@2@$00@std@@QAE@U_One_then_variadic_args_t@1@ABV?$allocator@U?$pair@$$CBHPAUCUSTOM_MONSTER_ATTR@@@std@@@1@@Z PROC ; std::_Compressed_pair<std::_Wrap_alloc<std::allocator<std::_Tree_node<std::pair<int const ,CUSTOM_MONSTER_ATTR *>,void *> > >,std::_Tree_val<std::_Tree_simple_types<std::pair<int const ,CUSTOM_MONSTER_ATTR *> > >,1>::_Compressed_pair<std::_Wrap_alloc<std::allocator<std::_Tree_node<std::pair<int const ,CUSTOM_MONSTER_ATTR *>,void *> > >,std::_Tree_val<std::_Tree_simple_types<std::pair<int const ,CUSTOM_MONSTER_ATTR *> > >,1><std::allocator<std::pair<int const ,CUSTOM_MONSTER_ATTR *> > const &>, COMDAT
; _this$ = ecx
; File c:\program files (x86)\microsoft visual studio 14.0\vc\include\xtree

; 567  : 		this->_Myhead = 0;

  00000	c7 01 00 00 00
	00		 mov	 DWORD PTR [ecx], 0
; File c:\program files (x86)\microsoft visual studio 14.0\vc\include\xutility

; 289  : 		}

  00006	8b c1		 mov	 eax, ecx
; File c:\program files (x86)\microsoft visual studio 14.0\vc\include\xtree

; 568  : 		this->_Mysize = 0;

  00008	c7 41 04 00 00
	00 00		 mov	 DWORD PTR [ecx+4], 0
; File c:\program files (x86)\microsoft visual studio 14.0\vc\include\xutility

; 289  : 		}

  0000f	c2 08 00	 ret	 8
??$?0ABV?$allocator@U?$pair@$$CBHPAUCUSTOM_MONSTER_ATTR@@@std@@@std@@$$V@?$_Compressed_pair@U?$_Wrap_alloc@V?$allocator@U?$_Tree_node@U?$pair@$$CBHPAUCUSTOM_MONSTER_ATTR@@@std@@PAX@std@@@std@@@std@@V?$_Tree_val@U?$_Tree_simple_types@U?$pair@$$CBHPAUCUSTOM_MONSTER_ATTR@@@std@@@std@@@2@$00@std@@QAE@U_One_then_variadic_args_t@1@ABV?$allocator@U?$pair@$$CBHPAUCUSTOM_MONSTER_ATTR@@@std@@@1@@Z ENDP ; std::_Compressed_pair<std::_Wrap_alloc<std::allocator<std::_Tree_node<std::pair<int const ,CUSTOM_MONSTER_ATTR *>,void *> > >,std::_Tree_val<std::_Tree_simple_types<std::pair<int const ,CUSTOM_MONSTER_ATTR *> > >,1>::_Compressed_pair<std::_Wrap_alloc<std::allocator<std::_Tree_node<std::pair<int const ,CUSTOM_MONSTER_ATTR *>,void *> > >,std::_Tree_val<std::_Tree_simple_types<std::pair<int const ,CUSTOM_MONSTER_ATTR *> > >,1><std::allocator<std::pair<int const ,CUSTOM_MONSTER_ATTR *> > const &>
_TEXT	ENDS
; Function compile flags: /Ogtp
; File c:\program files (x86)\microsoft visual studio 14.0\vc\include\type_traits
;	COMDAT ??$forward@ABV?$allocator@U?$pair@$$CBHPAUCUSTOM_MONSTER_ATTR@@@std@@@std@@@std@@YAABV?$allocator@U?$pair@$$CBHPAUCUSTOM_MONSTER_ATTR@@@std@@@0@ABV10@@Z
_TEXT	SEGMENT
__Arg$ = 8						; size = 4
??$forward@ABV?$allocator@U?$pair@$$CBHPAUCUSTOM_MONSTER_ATTR@@@std@@@std@@@std@@YAABV?$allocator@U?$pair@$$CBHPAUCUSTOM_MONSTER_ATTR@@@std@@@0@ABV10@@Z PROC ; std::forward<std::allocator<std::pair<int const ,CUSTOM_MONSTER_ATTR *> > const &>, COMDAT

; 1233 : 	{	// forward an lvalue as either an lvalue or an rvalue

  00000	55		 push	 ebp
  00001	8b ec		 mov	 ebp, esp

; 1234 : 	return (static_cast<_Ty&&>(_Arg));

  00003	8b 45 08	 mov	 eax, DWORD PTR __Arg$[ebp]

; 1235 : 	}

  00006	5d		 pop	 ebp
  00007	c3		 ret	 0
??$forward@ABV?$allocator@U?$pair@$$CBHPAUCUSTOM_MONSTER_ATTR@@@std@@@std@@@std@@YAABV?$allocator@U?$pair@$$CBHPAUCUSTOM_MONSTER_ATTR@@@std@@@0@ABV10@@Z ENDP ; std::forward<std::allocator<std::pair<int const ,CUSTOM_MONSTER_ATTR *> > const &>
_TEXT	ENDS
; Function compile flags: /Ogtp
; File c:\program files (x86)\microsoft visual studio 14.0\vc\include\type_traits
;	COMDAT ??$forward@U_One_then_variadic_args_t@std@@@std@@YA$$QAU_One_then_variadic_args_t@0@AAU10@@Z
_TEXT	SEGMENT
__Arg$ = 8						; size = 4
??$forward@U_One_then_variadic_args_t@std@@@std@@YA$$QAU_One_then_variadic_args_t@0@AAU10@@Z PROC ; std::forward<std::_One_then_variadic_args_t>, COMDAT

; 1233 : 	{	// forward an lvalue as either an lvalue or an rvalue

  00000	55		 push	 ebp
  00001	8b ec		 mov	 ebp, esp

; 1234 : 	return (static_cast<_Ty&&>(_Arg));

  00003	8b 45 08	 mov	 eax, DWORD PTR __Arg$[ebp]

; 1235 : 	}

  00006	5d		 pop	 ebp
  00007	c3		 ret	 0
??$forward@U_One_then_variadic_args_t@std@@@std@@YA$$QAU_One_then_variadic_args_t@0@AAU10@@Z ENDP ; std::forward<std::_One_then_variadic_args_t>
_TEXT	ENDS
; Function compile flags: /Ogtp
; File c:\program files (x86)\microsoft visual studio 14.0\vc\include\type_traits
;	COMDAT ??$forward@ABU?$less@H@std@@@std@@YAABU?$less@H@0@ABU10@@Z
_TEXT	SEGMENT
__Arg$ = 8						; size = 4
??$forward@ABU?$less@H@std@@@std@@YAABU?$less@H@0@ABU10@@Z PROC ; std::forward<std::less<int> const &>, COMDAT

; 1233 : 	{	// forward an lvalue as either an lvalue or an rvalue

  00000	55		 push	 ebp
  00001	8b ec		 mov	 ebp, esp

; 1234 : 	return (static_cast<_Ty&&>(_Arg));

  00003	8b 45 08	 mov	 eax, DWORD PTR __Arg$[ebp]

; 1235 : 	}

  00006	5d		 pop	 ebp
  00007	c3		 ret	 0
??$forward@ABU?$less@H@std@@@std@@YAABU?$less@H@0@ABU10@@Z ENDP ; std::forward<std::less<int> const &>
_TEXT	ENDS
; Function compile flags: /Ogtp
; File c:\program files (x86)\microsoft visual studio 14.0\vc\include\xmemory0
;	COMDAT ??$destroy@PAU?$_Tree_node@U?$pair@$$CBHPAUCUSTOM_MONSTER_ATTR@@@std@@PAX@std@@@?$allocator_traits@V?$allocator@U?$_Tree_node@U?$pair@$$CBHPAUCUSTOM_MONSTER_ATTR@@@std@@PAX@std@@@std@@@std@@SAXAAV?$allocator@U?$_Tree_node@U?$pair@$$CBHPAUCUSTOM_MONSTER_ATTR@@@std@@PAX@std@@@1@PAPAU?$_Tree_node@U?$pair@$$CBHPAUCUSTOM_MONSTER_ATTR@@@std@@PAX@1@@Z
_TEXT	SEGMENT
__Al$ = 8						; size = 4
__Ptr$ = 12						; size = 4
??$destroy@PAU?$_Tree_node@U?$pair@$$CBHPAUCUSTOM_MONSTER_ATTR@@@std@@PAX@std@@@?$allocator_traits@V?$allocator@U?$_Tree_node@U?$pair@$$CBHPAUCUSTOM_MONSTER_ATTR@@@std@@PAX@std@@@std@@@std@@SAXAAV?$allocator@U?$_Tree_node@U?$pair@$$CBHPAUCUSTOM_MONSTER_ATTR@@@std@@PAX@std@@@1@PAPAU?$_Tree_node@U?$pair@$$CBHPAUCUSTOM_MONSTER_ATTR@@@std@@PAX@1@@Z PROC ; std::allocator_traits<std::allocator<std::_Tree_node<std::pair<int const ,CUSTOM_MONSTER_ATTR *>,void *> > >::destroy<std::_Tree_node<std::pair<int const ,CUSTOM_MONSTER_ATTR *>,void *> *>, COMDAT

; 780  : 		_Al.destroy(_Ptr);
; 781  : 		}

  00000	c3		 ret	 0
??$destroy@PAU?$_Tree_node@U?$pair@$$CBHPAUCUSTOM_MONSTER_ATTR@@@std@@PAX@std@@@?$allocator_traits@V?$allocator@U?$_Tree_node@U?$pair@$$CBHPAUCUSTOM_MONSTER_ATTR@@@std@@PAX@std@@@std@@@std@@SAXAAV?$allocator@U?$_Tree_node@U?$pair@$$CBHPAUCUSTOM_MONSTER_ATTR@@@std@@PAX@std@@@1@PAPAU?$_Tree_node@U?$pair@$$CBHPAUCUSTOM_MONSTER_ATTR@@@std@@PAX@1@@Z ENDP ; std::allocator_traits<std::allocator<std::_Tree_node<std::pair<int const ,CUSTOM_MONSTER_ATTR *>,void *> > >::destroy<std::_Tree_node<std::pair<int const ,CUSTOM_MONSTER_ATTR *>,void *> *>
_TEXT	ENDS
; Function compile flags: /Ogtp
; File c:\program files (x86)\microsoft visual studio 14.0\vc\include\xstddef
;	COMDAT ??$_Addressof@PAU?$_Tree_node@U?$pair@$$CBHPAUCUSTOM_MONSTER_ATTR@@@std@@PAX@std@@@std@@YAPAPAU?$_Tree_node@U?$pair@$$CBHPAUCUSTOM_MONSTER_ATTR@@@std@@PAX@0@AAPAU10@U?$integral_constant@_N$0A@@0@@Z
_TEXT	SEGMENT
__Val$ = 8						; size = 4
___formal$ = 12						; size = 1
??$_Addressof@PAU?$_Tree_node@U?$pair@$$CBHPAUCUSTOM_MONSTER_ATTR@@@std@@PAX@std@@@std@@YAPAPAU?$_Tree_node@U?$pair@$$CBHPAUCUSTOM_MONSTER_ATTR@@@std@@PAX@0@AAPAU10@U?$integral_constant@_N$0A@@0@@Z PROC ; std::_Addressof<std::_Tree_node<std::pair<int const ,CUSTOM_MONSTER_ATTR *>,void *> *>, COMDAT

; 688  : 	{	// return address of object _Val

  00000	55		 push	 ebp
  00001	8b ec		 mov	 ebp, esp

; 689  : 	return (reinterpret_cast<_Ty *>(

  00003	8b 45 08	 mov	 eax, DWORD PTR __Val$[ebp]

; 690  : 		&const_cast<char&>(
; 691  : 		reinterpret_cast<const volatile char&>(_Val))));
; 692  : 	}

  00006	5d		 pop	 ebp
  00007	c3		 ret	 0
??$_Addressof@PAU?$_Tree_node@U?$pair@$$CBHPAUCUSTOM_MONSTER_ATTR@@@std@@PAX@std@@@std@@YAPAPAU?$_Tree_node@U?$pair@$$CBHPAUCUSTOM_MONSTER_ATTR@@@std@@PAX@0@AAPAU10@U?$integral_constant@_N$0A@@0@@Z ENDP ; std::_Addressof<std::_Tree_node<std::pair<int const ,CUSTOM_MONSTER_ATTR *>,void *> *>
_TEXT	ENDS
; Function compile flags: /Ogtp
; File c:\program files (x86)\microsoft visual studio 14.0\vc\include\xmemory0
;	COMDAT ??$_Destroy_range@U?$_Wrap_alloc@V?$allocator@UMONSTER_ATTRIBUTE@@@std@@@std@@@std@@YAXPAUMONSTER_ATTRIBUTE@@0AAU?$_Wrap_alloc@V?$allocator@UMONSTER_ATTRIBUTE@@@std@@@0@U_Nonscalar_ptr_iterator_tag@0@@Z
_TEXT	SEGMENT
__First$ = 8						; size = 4
__Last$ = 12						; size = 4
__Al$ = 16						; size = 4
___formal$ = 20						; size = 1
??$_Destroy_range@U?$_Wrap_alloc@V?$allocator@UMONSTER_ATTRIBUTE@@@std@@@std@@@std@@YAXPAUMONSTER_ATTRIBUTE@@0AAU?$_Wrap_alloc@V?$allocator@UMONSTER_ATTRIBUTE@@@std@@@0@U_Nonscalar_ptr_iterator_tag@0@@Z PROC ; std::_Destroy_range<std::_Wrap_alloc<std::allocator<MONSTER_ATTRIBUTE> > >, COMDAT

; 171  : 	for (; _First != _Last; ++_First)
; 172  : 		_Al.destroy(_STD addressof(*_First));
; 173  : 	}

  00000	c3		 ret	 0
??$_Destroy_range@U?$_Wrap_alloc@V?$allocator@UMONSTER_ATTRIBUTE@@@std@@@std@@@std@@YAXPAUMONSTER_ATTRIBUTE@@0AAU?$_Wrap_alloc@V?$allocator@UMONSTER_ATTRIBUTE@@@std@@@0@U_Nonscalar_ptr_iterator_tag@0@@Z ENDP ; std::_Destroy_range<std::_Wrap_alloc<std::allocator<MONSTER_ATTRIBUTE> > >
_TEXT	ENDS
; Function compile flags: /Ogtp
; File c:\program files (x86)\microsoft visual studio 14.0\vc\include\xutility
;	COMDAT ??$_Ptr_cat@UMONSTER_ATTRIBUTE@@U1@@std@@YA?AU_Nonscalar_ptr_iterator_tag@0@PAUMONSTER_ATTRIBUTE@@0@Z
_TEXT	SEGMENT
__Cat$ = -1						; size = 1
___formal$ = 8						; size = 4
___formal$ = 12						; size = 4
??$_Ptr_cat@UMONSTER_ATTRIBUTE@@U1@@std@@YA?AU_Nonscalar_ptr_iterator_tag@0@PAUMONSTER_ATTRIBUTE@@0@Z PROC ; std::_Ptr_cat<MONSTER_ATTRIBUTE,MONSTER_ATTRIBUTE>, COMDAT

; 640  : 	{	// return pointer category from pointers

  00000	55		 push	 ebp
  00001	8b ec		 mov	 ebp, esp
  00003	51		 push	 ecx

; 641  : 	typename _Ptr_cat_helper<_Elem1, _Elem2>::type _Cat;
; 642  : 	return (_Cat);

  00004	8a 45 ff	 mov	 al, BYTE PTR __Cat$[ebp]

; 643  : 	}

  00007	8b e5		 mov	 esp, ebp
  00009	5d		 pop	 ebp
  0000a	c3		 ret	 0
??$_Ptr_cat@UMONSTER_ATTRIBUTE@@U1@@std@@YA?AU_Nonscalar_ptr_iterator_tag@0@PAUMONSTER_ATTRIBUTE@@0@Z ENDP ; std::_Ptr_cat<MONSTER_ATTRIBUTE,MONSTER_ATTRIBUTE>
_TEXT	ENDS
; Function compile flags: /Ogtp
; File c:\program files (x86)\microsoft visual studio 14.0\vc\include\type_traits
;	COMDAT ??$forward@ABV?$allocator@UMONSTER_ATTRIBUTE@@@std@@@std@@YAABV?$allocator@UMONSTER_ATTRIBUTE@@@0@ABV10@@Z
_TEXT	SEGMENT
__Arg$ = 8						; size = 4
??$forward@ABV?$allocator@UMONSTER_ATTRIBUTE@@@std@@@std@@YAABV?$allocator@UMONSTER_ATTRIBUTE@@@0@ABV10@@Z PROC ; std::forward<std::allocator<MONSTER_ATTRIBUTE> const &>, COMDAT

; 1233 : 	{	// forward an lvalue as either an lvalue or an rvalue

  00000	55		 push	 ebp
  00001	8b ec		 mov	 ebp, esp

; 1234 : 	return (static_cast<_Ty&&>(_Arg));

  00003	8b 45 08	 mov	 eax, DWORD PTR __Arg$[ebp]

; 1235 : 	}

  00006	5d		 pop	 ebp
  00007	c3		 ret	 0
??$forward@ABV?$allocator@UMONSTER_ATTRIBUTE@@@std@@@std@@YAABV?$allocator@UMONSTER_ATTRIBUTE@@@0@ABV10@@Z ENDP ; std::forward<std::allocator<MONSTER_ATTRIBUTE> const &>
_TEXT	ENDS
; Function compile flags: /Ogtp
; File c:\program files (x86)\microsoft visual studio 14.0\vc\include\xmemory0
;	COMDAT ??$destroy@U?$pair@$$CBHPAUCUSTOM_MONSTER_ATTR@@@std@@@?$allocator_traits@V?$allocator@U?$_Tree_node@U?$pair@$$CBHPAUCUSTOM_MONSTER_ATTR@@@std@@PAX@std@@@std@@@std@@SAXAAV?$allocator@U?$_Tree_node@U?$pair@$$CBHPAUCUSTOM_MONSTER_ATTR@@@std@@PAX@std@@@1@PAU?$pair@$$CBHPAUCUSTOM_MONSTER_ATTR@@@1@@Z
_TEXT	SEGMENT
__Al$ = 8						; size = 4
__Ptr$ = 12						; size = 4
??$destroy@U?$pair@$$CBHPAUCUSTOM_MONSTER_ATTR@@@std@@@?$allocator_traits@V?$allocator@U?$_Tree_node@U?$pair@$$CBHPAUCUSTOM_MONSTER_ATTR@@@std@@PAX@std@@@std@@@std@@SAXAAV?$allocator@U?$_Tree_node@U?$pair@$$CBHPAUCUSTOM_MONSTER_ATTR@@@std@@PAX@std@@@1@PAU?$pair@$$CBHPAUCUSTOM_MONSTER_ATTR@@@1@@Z PROC ; std::allocator_traits<std::allocator<std::_Tree_node<std::pair<int const ,CUSTOM_MONSTER_ATTR *>,void *> > >::destroy<std::pair<int const ,CUSTOM_MONSTER_ATTR *> >, COMDAT

; 780  : 		_Al.destroy(_Ptr);
; 781  : 		}

  00000	c3		 ret	 0
??$destroy@U?$pair@$$CBHPAUCUSTOM_MONSTER_ATTR@@@std@@@?$allocator_traits@V?$allocator@U?$_Tree_node@U?$pair@$$CBHPAUCUSTOM_MONSTER_ATTR@@@std@@PAX@std@@@std@@@std@@SAXAAV?$allocator@U?$_Tree_node@U?$pair@$$CBHPAUCUSTOM_MONSTER_ATTR@@@std@@PAX@std@@@1@PAU?$pair@$$CBHPAUCUSTOM_MONSTER_ATTR@@@1@@Z ENDP ; std::allocator_traits<std::allocator<std::_Tree_node<std::pair<int const ,CUSTOM_MONSTER_ATTR *>,void *> > >::destroy<std::pair<int const ,CUSTOM_MONSTER_ATTR *> >
_TEXT	ENDS
; Function compile flags: /Ogtp
; File c:\program files (x86)\microsoft visual studio 14.0\vc\include\xstddef
;	COMDAT ??$_Addressof@U?$pair@$$CBHPAUCUSTOM_MONSTER_ATTR@@@std@@@std@@YAPAU?$pair@$$CBHPAUCUSTOM_MONSTER_ATTR@@@0@AAU10@U?$integral_constant@_N$0A@@0@@Z
_TEXT	SEGMENT
__Val$ = 8						; size = 4
___formal$ = 12						; size = 1
??$_Addressof@U?$pair@$$CBHPAUCUSTOM_MONSTER_ATTR@@@std@@@std@@YAPAU?$pair@$$CBHPAUCUSTOM_MONSTER_ATTR@@@0@AAU10@U?$integral_constant@_N$0A@@0@@Z PROC ; std::_Addressof<std::pair<int const ,CUSTOM_MONSTER_ATTR *> >, COMDAT

; 688  : 	{	// return address of object _Val

  00000	55		 push	 ebp
  00001	8b ec		 mov	 ebp, esp

; 689  : 	return (reinterpret_cast<_Ty *>(

  00003	8b 45 08	 mov	 eax, DWORD PTR __Val$[ebp]

; 690  : 		&const_cast<char&>(
; 691  : 		reinterpret_cast<const volatile char&>(_Val))));
; 692  : 	}

  00006	5d		 pop	 ebp
  00007	c3		 ret	 0
??$_Addressof@U?$pair@$$CBHPAUCUSTOM_MONSTER_ATTR@@@std@@@std@@YAPAU?$pair@$$CBHPAUCUSTOM_MONSTER_ATTR@@@0@AAU10@U?$integral_constant@_N$0A@@0@@Z ENDP ; std::_Addressof<std::pair<int const ,CUSTOM_MONSTER_ATTR *> >
_TEXT	ENDS
; Function compile flags: /Ogtp
; File c:\program files (x86)\microsoft visual studio 14.0\vc\include\xmemory0
;	COMDAT ??$construct@UMONSTER_ATTRIBUTE@@ABU1@@?$allocator_traits@V?$allocator@UMONSTER_ATTRIBUTE@@@std@@@std@@SAXAAV?$allocator@UMONSTER_ATTRIBUTE@@@1@PAUMONSTER_ATTRIBUTE@@ABU3@@Z
_TEXT	SEGMENT
__Al$ = 8						; size = 4
__Ptr$ = 12						; size = 4
_<_Args_0>$ = 16					; size = 4
??$construct@UMONSTER_ATTRIBUTE@@ABU1@@?$allocator_traits@V?$allocator@UMONSTER_ATTRIBUTE@@@std@@@std@@SAXAAV?$allocator@UMONSTER_ATTRIBUTE@@@1@PAUMONSTER_ATTRIBUTE@@ABU3@@Z PROC ; std::allocator_traits<std::allocator<MONSTER_ATTRIBUTE> >::construct<MONSTER_ATTRIBUTE,MONSTER_ATTRIBUTE const &>, COMDAT

; 772  : 		{	// construct _Objty(_Types...) at _Ptr

  00000	55		 push	 ebp
  00001	8b ec		 mov	 ebp, esp
  00003	57		 push	 edi

; 655  : 		::new ((void *)_Ptr) _Objty(_STD forward<_Types>(_Args)...);

  00004	8b 7d 0c	 mov	 edi, DWORD PTR __Ptr$[ebp]
  00007	85 ff		 test	 edi, edi
  00009	74 0c		 je	 SHORT $LN8@construct
  0000b	56		 push	 esi
  0000c	8b 75 10	 mov	 esi, DWORD PTR _<_Args_0>$[ebp]
  0000f	b9 2f 00 00 00	 mov	 ecx, 47			; 0000002fH
  00014	f3 a5		 rep movsd
  00016	5e		 pop	 esi
$LN8@construct:
  00017	5f		 pop	 edi

; 773  : 		_Al.construct(_Ptr, _STD forward<_Types>(_Args)...);
; 774  : 		}

  00018	5d		 pop	 ebp
  00019	c3		 ret	 0
??$construct@UMONSTER_ATTRIBUTE@@ABU1@@?$allocator_traits@V?$allocator@UMONSTER_ATTRIBUTE@@@std@@@std@@SAXAAV?$allocator@UMONSTER_ATTRIBUTE@@@1@PAUMONSTER_ATTRIBUTE@@ABU3@@Z ENDP ; std::allocator_traits<std::allocator<MONSTER_ATTRIBUTE> >::construct<MONSTER_ATTRIBUTE,MONSTER_ATTRIBUTE const &>
_TEXT	ENDS
; Function compile flags: /Ogtp
; File c:\program files (x86)\microsoft visual studio 14.0\vc\include\type_traits
;	COMDAT ??$forward@ABUMONSTER_ATTRIBUTE@@@std@@YAABUMONSTER_ATTRIBUTE@@ABU1@@Z
_TEXT	SEGMENT
__Arg$ = 8						; size = 4
??$forward@ABUMONSTER_ATTRIBUTE@@@std@@YAABUMONSTER_ATTRIBUTE@@ABU1@@Z PROC ; std::forward<MONSTER_ATTRIBUTE const &>, COMDAT

; 1233 : 	{	// forward an lvalue as either an lvalue or an rvalue

  00000	55		 push	 ebp
  00001	8b ec		 mov	 ebp, esp

; 1234 : 	return (static_cast<_Ty&&>(_Arg));

  00003	8b 45 08	 mov	 eax, DWORD PTR __Arg$[ebp]

; 1235 : 	}

  00006	5d		 pop	 ebp
  00007	c3		 ret	 0
??$forward@ABUMONSTER_ATTRIBUTE@@@std@@YAABUMONSTER_ATTRIBUTE@@ABU1@@Z ENDP ; std::forward<MONSTER_ATTRIBUTE const &>
_TEXT	ENDS
; Function compile flags: /Ogtp
; File c:\program files (x86)\microsoft visual studio 14.0\vc\include\xmemory0
;	COMDAT ??$construct@UMONSTER_ATTRIBUTE@@AAU1@@?$allocator_traits@V?$allocator@UMONSTER_ATTRIBUTE@@@std@@@std@@SAXAAV?$allocator@UMONSTER_ATTRIBUTE@@@1@PAUMONSTER_ATTRIBUTE@@AAU3@@Z
_TEXT	SEGMENT
__Al$ = 8						; size = 4
__Ptr$ = 12						; size = 4
_<_Args_0>$ = 16					; size = 4
??$construct@UMONSTER_ATTRIBUTE@@AAU1@@?$allocator_traits@V?$allocator@UMONSTER_ATTRIBUTE@@@std@@@std@@SAXAAV?$allocator@UMONSTER_ATTRIBUTE@@@1@PAUMONSTER_ATTRIBUTE@@AAU3@@Z PROC ; std::allocator_traits<std::allocator<MONSTER_ATTRIBUTE> >::construct<MONSTER_ATTRIBUTE,MONSTER_ATTRIBUTE &>, COMDAT

; 772  : 		{	// construct _Objty(_Types...) at _Ptr

  00000	55		 push	 ebp
  00001	8b ec		 mov	 ebp, esp
  00003	57		 push	 edi

; 655  : 		::new ((void *)_Ptr) _Objty(_STD forward<_Types>(_Args)...);

  00004	8b 7d 0c	 mov	 edi, DWORD PTR __Ptr$[ebp]
  00007	85 ff		 test	 edi, edi
  00009	74 0c		 je	 SHORT $LN8@construct
  0000b	56		 push	 esi
  0000c	8b 75 10	 mov	 esi, DWORD PTR _<_Args_0>$[ebp]
  0000f	b9 2f 00 00 00	 mov	 ecx, 47			; 0000002fH
  00014	f3 a5		 rep movsd
  00016	5e		 pop	 esi
$LN8@construct:
  00017	5f		 pop	 edi

; 773  : 		_Al.construct(_Ptr, _STD forward<_Types>(_Args)...);
; 774  : 		}

  00018	5d		 pop	 ebp
  00019	c3		 ret	 0
??$construct@UMONSTER_ATTRIBUTE@@AAU1@@?$allocator_traits@V?$allocator@UMONSTER_ATTRIBUTE@@@std@@@std@@SAXAAV?$allocator@UMONSTER_ATTRIBUTE@@@1@PAUMONSTER_ATTRIBUTE@@AAU3@@Z ENDP ; std::allocator_traits<std::allocator<MONSTER_ATTRIBUTE> >::construct<MONSTER_ATTRIBUTE,MONSTER_ATTRIBUTE &>
_TEXT	ENDS
; Function compile flags: /Ogtp
; File c:\program files (x86)\microsoft visual studio 14.0\vc\include\type_traits
;	COMDAT ??$forward@AAUMONSTER_ATTRIBUTE@@@std@@YAAAUMONSTER_ATTRIBUTE@@AAU1@@Z
_TEXT	SEGMENT
__Arg$ = 8						; size = 4
??$forward@AAUMONSTER_ATTRIBUTE@@@std@@YAAAUMONSTER_ATTRIBUTE@@AAU1@@Z PROC ; std::forward<MONSTER_ATTRIBUTE &>, COMDAT

; 1233 : 	{	// forward an lvalue as either an lvalue or an rvalue

  00000	55		 push	 ebp
  00001	8b ec		 mov	 ebp, esp

; 1234 : 	return (static_cast<_Ty&&>(_Arg));

  00003	8b 45 08	 mov	 eax, DWORD PTR __Arg$[ebp]

; 1235 : 	}

  00006	5d		 pop	 ebp
  00007	c3		 ret	 0
??$forward@AAUMONSTER_ATTRIBUTE@@@std@@YAAAUMONSTER_ATTRIBUTE@@AAU1@@Z ENDP ; std::forward<MONSTER_ATTRIBUTE &>
_TEXT	ENDS
; Function compile flags: /Ogtp
; File c:\program files (x86)\microsoft visual studio 14.0\vc\include\xstddef
;	COMDAT ??$_Addressof@$$CBUMONSTER_ATTRIBUTE@@@std@@YAPBUMONSTER_ATTRIBUTE@@ABU1@U?$integral_constant@_N$0A@@0@@Z
_TEXT	SEGMENT
__Val$ = 8						; size = 4
___formal$ = 12						; size = 1
??$_Addressof@$$CBUMONSTER_ATTRIBUTE@@@std@@YAPBUMONSTER_ATTRIBUTE@@ABU1@U?$integral_constant@_N$0A@@0@@Z PROC ; std::_Addressof<MONSTER_ATTRIBUTE const >, COMDAT

; 688  : 	{	// return address of object _Val

  00000	55		 push	 ebp
  00001	8b ec		 mov	 ebp, esp

; 689  : 	return (reinterpret_cast<_Ty *>(

  00003	8b 45 08	 mov	 eax, DWORD PTR __Val$[ebp]

; 690  : 		&const_cast<char&>(
; 691  : 		reinterpret_cast<const volatile char&>(_Val))));
; 692  : 	}

  00006	5d		 pop	 ebp
  00007	c3		 ret	 0
??$_Addressof@$$CBUMONSTER_ATTRIBUTE@@@std@@YAPBUMONSTER_ATTRIBUTE@@ABU1@U?$integral_constant@_N$0A@@0@@Z ENDP ; std::_Addressof<MONSTER_ATTRIBUTE const >
_TEXT	ENDS
; Function compile flags: /Ogtp
; File c:\program files (x86)\microsoft visual studio 14.0\vc\include\xtree
; File c:\program files (x86)\microsoft visual studio 14.0\vc\include\xstddef
; File c:\program files (x86)\microsoft visual studio 14.0\vc\include\xtree
; File c:\program files (x86)\microsoft visual studio 14.0\vc\include\xstddef
; File c:\program files (x86)\microsoft visual studio 14.0\vc\include\xtree
; File c:\program files (x86)\microsoft visual studio 14.0\vc\include\utility
; File c:\program files (x86)\microsoft visual studio 14.0\vc\include\xtree
; File c:\program files (x86)\microsoft visual studio 14.0\vc\include\xstddef
; File c:\program files (x86)\microsoft visual studio 14.0\vc\include\xtree
; File c:\program files (x86)\microsoft visual studio 14.0\vc\include\xstddef
; File c:\program files (x86)\microsoft visual studio 14.0\vc\include\xtree
; File c:\program files (x86)\microsoft visual studio 14.0\vc\include\xmemory0
; File c:\program files (x86)\microsoft visual studio 14.0\vc\include\xtree
; File c:\program files (x86)\microsoft visual studio 14.0\vc\include\xmemory0
; File c:\program files (x86)\microsoft visual studio 14.0\vc\include\utility
; File c:\program files (x86)\microsoft visual studio 14.0\vc\include\xmemory0
; File c:\program files (x86)\microsoft visual studio 14.0\vc\include\utility
; File c:\program files (x86)\microsoft visual studio 14.0\vc\include\xtree
;	COMDAT ??$_Insert_nohint@AAU?$pair@$$CBHPAUCUSTOM_MONSTER_ATTR@@@std@@PAU?$_Tree_node@U?$pair@$$CBHPAUCUSTOM_MONSTER_ATTR@@@std@@PAX@2@@?$_Tree@V?$_Tmap_traits@HPAUCUSTOM_MONSTER_ATTR@@U?$less@H@std@@V?$allocator@U?$pair@$$CBHPAUCUSTOM_MONSTER_ATTR@@@std@@@3@$0A@@std@@@std@@IAE?AU?$pair@V?$_Tree_iterator@V?$_Tree_val@U?$_Tree_simple_types@U?$pair@$$CBHPAUCUSTOM_MONSTER_ATTR@@@std@@@std@@@std@@@std@@_N@1@_NAAU?$pair@$$CBHPAUCUSTOM_MONSTER_ATTR@@@1@PAU?$_Tree_node@U?$pair@$$CBHPAUCUSTOM_MONSTER_ATTR@@@std@@PAX@1@@Z
_TEXT	SEGMENT
tv735 = -28						; size = 4
_this$1$ = -24						; size = 4
__Addleft$2 = -20					; size = 1
__$EHRec$ = -16						; size = 16
___$ReturnUdt$ = 8					; size = 4
$T3 = 12						; size = 4
__Where$4 = 12						; size = 4
__Leftish$ = 12						; size = 1
__Val$ = 16						; size = 4
__Newnode$ = 20						; size = 4
??$_Insert_nohint@AAU?$pair@$$CBHPAUCUSTOM_MONSTER_ATTR@@@std@@PAU?$_Tree_node@U?$pair@$$CBHPAUCUSTOM_MONSTER_ATTR@@@std@@PAX@2@@?$_Tree@V?$_Tmap_traits@HPAUCUSTOM_MONSTER_ATTR@@U?$less@H@std@@V?$allocator@U?$pair@$$CBHPAUCUSTOM_MONSTER_ATTR@@@std@@@3@$0A@@std@@@std@@IAE?AU?$pair@V?$_Tree_iterator@V?$_Tree_val@U?$_Tree_simple_types@U?$pair@$$CBHPAUCUSTOM_MONSTER_ATTR@@@std@@@std@@@std@@@std@@_N@1@_NAAU?$pair@$$CBHPAUCUSTOM_MONSTER_ATTR@@@1@PAU?$_Tree_node@U?$pair@$$CBHPAUCUSTOM_MONSTER_ATTR@@@std@@PAX@1@@Z PROC ; std::_Tree<std::_Tmap_traits<int,CUSTOM_MONSTER_ATTR *,std::less<int>,std::allocator<std::pair<int const ,CUSTOM_MONSTER_ATTR *> >,0> >::_Insert_nohint<std::pair<int const ,CUSTOM_MONSTER_ATTR *> &,std::_Tree_node<std::pair<int const ,CUSTOM_MONSTER_ATTR *>,void *> *>, COMDAT
; _this$ = ecx

; 1799 : 		{	// try to insert node, on left if _Leftish

  00000	55		 push	 ebp
  00001	8b ec		 mov	 ebp, esp
  00003	6a ff		 push	 -1
  00005	68 00 00 00 00	 push	 __ehhandler$??$_Insert_nohint@AAU?$pair@$$CBHPAUCUSTOM_MONSTER_ATTR@@@std@@PAU?$_Tree_node@U?$pair@$$CBHPAUCUSTOM_MONSTER_ATTR@@@std@@PAX@2@@?$_Tree@V?$_Tmap_traits@HPAUCUSTOM_MONSTER_ATTR@@U?$less@H@std@@V?$allocator@U?$pair@$$CBHPAUCUSTOM_MONSTER_ATTR@@@std@@@3@$0A@@std@@@std@@IAE?AU?$pair@V?$_Tree_iterator@V?$_Tree_val@U?$_Tree_simple_types@U?$pair@$$CBHPAUCUSTOM_MONSTER_ATTR@@@std@@@std@@@std@@@std@@_N@1@_NAAU?$pair@$$CBHPAUCUSTOM_MONSTER_ATTR@@@1@PAU?$_Tree_node@U?$pair@$$CBHPAUCUSTOM_MONSTER_ATTR@@@std@@PAX@1@@Z
  0000a	64 a1 00 00 00
	00		 mov	 eax, DWORD PTR fs:0
  00010	50		 push	 eax
  00011	83 ec 10	 sub	 esp, 16			; 00000010H
  00014	53		 push	 ebx
  00015	56		 push	 esi
  00016	57		 push	 edi
  00017	a1 00 00 00 00	 mov	 eax, DWORD PTR ___security_cookie
  0001c	33 c5		 xor	 eax, ebp
  0001e	50		 push	 eax
  0001f	8d 45 f4	 lea	 eax, DWORD PTR __$EHRec$[ebp+4]
  00022	64 a3 00 00 00
	00		 mov	 DWORD PTR fs:0, eax
  00028	89 65 f0	 mov	 DWORD PTR __$EHRec$[ebp], esp
  0002b	8b c1		 mov	 eax, ecx
  0002d	89 45 e8	 mov	 DWORD PTR _this$1$[ebp], eax

; 335  : 		}
; 336  : 
; 337  : 	bool operator!=(const _Myiter& _Right) const
; 338  : 		{	// test for iterator inequality
; 339  : 		return (!(*this == _Right));
; 340  : 		}
; 341  : 	};
; 342  : 
; 343  : template<class _Mytree> inline
; 344  : 	typename _Tree_const_iterator<_Mytree>::_Unchecked_type
; 345  : 		_Unchecked(_Tree_const_iterator<_Mytree> _Iter)
; 346  : 	{	// convert to unchecked
; 347  : 	return (_Iter._Unchecked());
; 348  : 	}
; 349  : 
; 350  : template<class _Mytree> inline
; 351  : 	_Tree_const_iterator<_Mytree>&
; 352  : 		_Rechecked(_Tree_const_iterator<_Mytree>& _Iter,
; 353  : 			typename _Tree_const_iterator<_Mytree>
; 354  : 				::_Unchecked_type _Right)
; 355  : 	{	// convert to checked
; 356  : 	return (_Iter._Rechecked(_Right));
; 357  : 	}
; 358  : 
; 359  : 	// TEMPLATE CLASS _Tree_iterator
; 360  : template<class _Mytree>
; 361  : 	class _Tree_iterator
; 362  : 		: public _Tree_const_iterator<_Mytree>
; 363  : 	{	// iterator for mutable tree
; 364  : public:
; 365  : 	typedef _Tree_iterator<_Mytree> _Myiter;
; 366  : 	typedef _Tree_const_iterator<_Mytree> _Mybase;
; 367  : 	typedef bidirectional_iterator_tag iterator_category;
; 368  : 
; 369  : 	typedef typename _Mytree::_Nodeptr _Nodeptr;
; 370  : 	typedef typename _Mytree::value_type value_type;
; 371  : 	typedef typename _Mytree::difference_type difference_type;
; 372  : 
; 373  : 	typedef typename _Mytree::pointer pointer;
; 374  : 	typedef typename _Mytree::reference reference;
; 375  : 
; 376  : 	_Tree_iterator()
; 377  : 		{	// construct with null node
; 378  : 		}
; 379  : 
; 380  : 	_Tree_iterator(_Nodeptr _Pnode, const _Mytree *_Plist)
; 381  : 		: _Mybase(_Pnode, _Plist)
; 382  : 		{	// construct with node pointer _Pnode
; 383  : 		}
; 384  : 
; 385  : 	typedef _Tree_unchecked_iterator<_Mytree> _Unchecked_type;
; 386  : 
; 387  : 	_Myiter& _Rechecked(_Unchecked_type _Right)
; 388  : 		{	// reset from unchecked iterator
; 389  : 		this->_Ptr = _Right._Ptr;
; 390  : 		return (*this);
; 391  : 		}
; 392  : 
; 393  : 	_Unchecked_type _Unchecked() const
; 394  : 		{	// make an unchecked iterator
; 395  : 		return (_Unchecked_type(this->_Ptr, (_Mytree *)this->_Getcont()));
; 396  : 		}
; 397  : 
; 398  : 	reference operator*() const
; 399  : 		{	// return designated value
; 400  : 		return ((reference)**(_Mybase *)this);
; 401  : 		}
; 402  : 
; 403  : 	pointer operator->() const
; 404  : 		{	// return pointer to class object
; 405  : 		return (_STD pointer_traits<pointer>::pointer_to(**this));
; 406  : 		}
; 407  : 
; 408  : 	_Myiter& operator++()
; 409  : 		{	// preincrement
; 410  : 		++(*(_Mybase *)this);
; 411  : 		return (*this);
; 412  : 		}
; 413  : 
; 414  : 	_Myiter operator++(int)
; 415  : 		{	// postincrement
; 416  : 		_Myiter _Tmp = *this;
; 417  : 		++*this;
; 418  : 		return (_Tmp);
; 419  : 		}
; 420  : 
; 421  : 	_Myiter& operator--()
; 422  : 		{	// predecrement
; 423  : 		--(*(_Mybase *)this);
; 424  : 		return (*this);
; 425  : 		}
; 426  : 
; 427  : 	_Myiter operator--(int)
; 428  : 		{	// postdecrement
; 429  : 		_Myiter _Tmp = *this;
; 430  : 		--*this;
; 431  : 		return (_Tmp);
; 432  : 		}
; 433  : 	};
; 434  : 
; 435  : template<class _Mytree> inline
; 436  : 	typename _Tree_iterator<_Mytree>::_Unchecked_type
; 437  : 		_Unchecked(_Tree_iterator<_Mytree> _Iter)
; 438  : 	{	// convert to unchecked
; 439  : 	return (_Iter._Unchecked());
; 440  : 	}
; 441  : 
; 442  : template<class _Mytree> inline
; 443  : 	_Tree_iterator<_Mytree>&
; 444  : 		_Rechecked(_Tree_iterator<_Mytree>& _Iter,
; 445  : 			typename _Tree_iterator<_Mytree>
; 446  : 				::_Unchecked_type _Right)
; 447  : 	{	// convert to checked
; 448  : 	return (_Iter._Rechecked(_Right));
; 449  : 	}
; 450  : 
; 451  : 		// tree TYPE WRAPPERS
; 452  : template<class _Value_type,
; 453  : 	class _Size_type,
; 454  : 	class _Difference_type,
; 455  : 	class _Pointer,
; 456  : 	class _Const_pointer,
; 457  : 	class _Reference,
; 458  : 	class _Const_reference,
; 459  : 	class _Nodeptr_type>
; 460  : 	struct _Tree_iter_types
; 461  : 	{	// wraps types needed by iterators
; 462  : 	typedef _Value_type value_type;
; 463  : 	typedef _Size_type size_type;
; 464  : 	typedef _Difference_type difference_type;
; 465  : 	typedef _Pointer pointer;
; 466  : 	typedef _Const_pointer const_pointer;
; 467  : 	typedef _Reference reference;
; 468  : 	typedef _Const_reference const_reference;
; 469  : 	typedef _Nodeptr_type _Nodeptr;
; 470  : 	};
; 471  : 
; 472  : template<class _Value_type,
; 473  : 	class _Voidptr>
; 474  : 	struct _Tree_node
; 475  : 		{	// tree node
; 476  : 		_Voidptr _Left;	// left subtree, or smallest element if head
; 477  : 		_Voidptr _Parent;	// parent, or root of tree if head
; 478  : 		_Voidptr _Right;	// right subtree, or largest element if head
; 479  : 		char _Color;	// _Red or _Black, _Black if head
; 480  : 		char _Isnil;	// true only if head (also nil) node
; 481  : 		_Value_type _Myval;	// the stored value, unused if head
; 482  : 
; 483  : 	private:
; 484  : 		_Tree_node& operator=(const _Tree_node&);
; 485  : 		};
; 486  : 
; 487  : template<class _Value_type>
; 488  : 	struct _Tree_node<_Value_type, void *>
; 489  : 		{	// tree node
; 490  : 		typedef _Tree_node<_Value_type, void *> *_Nodeptr;
; 491  : 		_Nodeptr _Left;	// left subtree, or smallest element if head
; 492  : 		_Nodeptr _Parent;	// parent, or root of tree if head
; 493  : 		_Nodeptr _Right;	// right subtree, or largest element if head
; 494  : 		char _Color;	// _Red or _Black, _Black if head
; 495  : 		char _Isnil;	// true only if head (also nil) node
; 496  : 		_Value_type _Myval;	// the stored value, unused if head
; 497  : 
; 498  : 	private:
; 499  : 		_Tree_node& operator=(const _Tree_node&);
; 500  : 		};
; 501  : 
; 502  : template<class _Ty>
; 503  : 	struct _Tree_simple_types
; 504  : 		: public _Simple_types<_Ty>
; 505  : 	{	// wraps types needed by iterators
; 506  : 	typedef _Tree_node<_Ty, void *> _Node;
; 507  : 	typedef _Node *_Nodeptr;
; 508  : 	};
; 509  : 
; 510  : template<class _Ty,
; 511  : 	class _Alloc0>
; 512  : 	struct _Tree_base_types
; 513  : 	{	// types needed for a container base
; 514  : 	typedef _Alloc0 _Alloc;
; 515  : 	typedef _Tree_base_types<_Ty, _Alloc> _Myt;
; 516  : 
; 517  : 	typedef _Wrap_alloc<_Alloc> _Alty0;
; 518  : 	typedef typename _Alty0::template rebind<_Ty>::other _Alty;
; 519  : 
; 520  : 
; 521  : 	typedef typename _Get_voidptr<_Alty, typename _Alty::pointer>::type
; 522  : 		_Voidptr;
; 523  : 	typedef _Tree_node<typename _Alty::value_type,
; 524  : 		_Voidptr> _Node;
; 525  : 
; 526  : 	typedef typename _Alty::template rebind<_Node>::other _Alnod_type;
; 527  : 	typedef typename _Alnod_type::pointer _Nodeptr;
; 528  : 	typedef _Nodeptr& _Nodepref;
; 529  : 
; 530  : 	typedef typename _If<_Is_simple_alloc<_Alty>::value,
; 531  : 		_Tree_simple_types<typename _Alty::value_type>,
; 532  : 		_Tree_iter_types<typename _Alty::value_type,
; 533  : 			typename _Alty::size_type,
; 534  : 			typename _Alty::difference_type,
; 535  : 			typename _Alty::pointer,
; 536  : 			typename _Alty::const_pointer,
; 537  : 			typename _Alty::reference,
; 538  : 			typename _Alty::const_reference,
; 539  : 			_Nodeptr> >::type
; 540  : 		_Val_types;
; 541  : 	};
; 542  : 
; 543  : 		// TEMPLATE CLASS _Tree_val
; 544  : template<class _Val_types>
; 545  : 	class _Tree_val
; 546  : 		: public _Container_base
; 547  : 	{	// base class for tree to hold data
; 548  : public:
; 549  : 	typedef _Tree_val<_Val_types> _Myt;
; 550  : 
; 551  : 	typedef typename _Val_types::_Nodeptr _Nodeptr;
; 552  : 	typedef _Nodeptr& _Nodepref;
; 553  : 
; 554  : 	typedef typename _Val_types::value_type value_type;
; 555  : 	typedef typename _Val_types::size_type size_type;
; 556  : 	typedef typename _Val_types::difference_type difference_type;
; 557  : 	typedef typename _Val_types::pointer pointer;
; 558  : 	typedef typename _Val_types::const_pointer const_pointer;
; 559  : 	typedef typename _Val_types::reference reference;
; 560  : 	typedef typename _Val_types::const_reference const_reference;
; 561  : 
; 562  : 	typedef _Tree_const_iterator<_Myt> const_iterator;
; 563  : 	typedef _Tree_iterator<_Myt> iterator;
; 564  : 
; 565  : 	_Tree_val()
; 566  : 		{	// initialize data
; 567  : 		this->_Myhead = 0;
; 568  : 		this->_Mysize = 0;
; 569  : 		}
; 570  : 
; 571  : 	enum _Redbl
; 572  : 		{	// colors for link to parent
; 573  : 		_Red, _Black};
; 574  : 
; 575  : 	static char& _Color(_Nodeptr _Pnode)
; 576  : 		{	// return reference to color in node
; 577  : 		return ((char&)_Pnode->_Color);
; 578  : 		}
; 579  : 
; 580  : 	static char& _Isnil(_Nodeptr _Pnode)
; 581  : 		{	// return reference to nil flag in node
; 582  : 		return ((char&)_Pnode->_Isnil);
; 583  : 		}
; 584  : 
; 585  : 	static _Nodepref _Left(_Nodeptr _Pnode)
; 586  : 		{	// return reference to left pointer in node
; 587  : 		return ((_Nodepref)_Pnode->_Left);
; 588  : 		}
; 589  : 
; 590  : 	static _Nodepref _Parent(_Nodeptr _Pnode)
; 591  : 		{	// return reference to parent pointer in node
; 592  : 		return ((_Nodepref)_Pnode->_Parent);

  00030	8b 08		 mov	 ecx, DWORD PTR [eax]

; 1802 : 		_Nodeptr _Wherenode = this->_Myhead();
; 1803 : 		bool _Addleft = true;	// add to left of head if tree empty

  00032	b2 01		 mov	 dl, 1
  00034	8b 5d 10	 mov	 ebx, DWORD PTR __Val$[ebp]
  00037	8b f9		 mov	 edi, ecx
  00039	c7 45 fc 00 00
	00 00		 mov	 DWORD PTR __$EHRec$[ebp+12], 0

; 335  : 		}
; 336  : 
; 337  : 	bool operator!=(const _Myiter& _Right) const
; 338  : 		{	// test for iterator inequality
; 339  : 		return (!(*this == _Right));
; 340  : 		}
; 341  : 	};
; 342  : 
; 343  : template<class _Mytree> inline
; 344  : 	typename _Tree_const_iterator<_Mytree>::_Unchecked_type
; 345  : 		_Unchecked(_Tree_const_iterator<_Mytree> _Iter)
; 346  : 	{	// convert to unchecked
; 347  : 	return (_Iter._Unchecked());
; 348  : 	}
; 349  : 
; 350  : template<class _Mytree> inline
; 351  : 	_Tree_const_iterator<_Mytree>&
; 352  : 		_Rechecked(_Tree_const_iterator<_Mytree>& _Iter,
; 353  : 			typename _Tree_const_iterator<_Mytree>
; 354  : 				::_Unchecked_type _Right)
; 355  : 	{	// convert to checked
; 356  : 	return (_Iter._Rechecked(_Right));
; 357  : 	}
; 358  : 
; 359  : 	// TEMPLATE CLASS _Tree_iterator
; 360  : template<class _Mytree>
; 361  : 	class _Tree_iterator
; 362  : 		: public _Tree_const_iterator<_Mytree>
; 363  : 	{	// iterator for mutable tree
; 364  : public:
; 365  : 	typedef _Tree_iterator<_Mytree> _Myiter;
; 366  : 	typedef _Tree_const_iterator<_Mytree> _Mybase;
; 367  : 	typedef bidirectional_iterator_tag iterator_category;
; 368  : 
; 369  : 	typedef typename _Mytree::_Nodeptr _Nodeptr;
; 370  : 	typedef typename _Mytree::value_type value_type;
; 371  : 	typedef typename _Mytree::difference_type difference_type;
; 372  : 
; 373  : 	typedef typename _Mytree::pointer pointer;
; 374  : 	typedef typename _Mytree::reference reference;
; 375  : 
; 376  : 	_Tree_iterator()
; 377  : 		{	// construct with null node
; 378  : 		}
; 379  : 
; 380  : 	_Tree_iterator(_Nodeptr _Pnode, const _Mytree *_Plist)
; 381  : 		: _Mybase(_Pnode, _Plist)
; 382  : 		{	// construct with node pointer _Pnode
; 383  : 		}
; 384  : 
; 385  : 	typedef _Tree_unchecked_iterator<_Mytree> _Unchecked_type;
; 386  : 
; 387  : 	_Myiter& _Rechecked(_Unchecked_type _Right)
; 388  : 		{	// reset from unchecked iterator
; 389  : 		this->_Ptr = _Right._Ptr;
; 390  : 		return (*this);
; 391  : 		}
; 392  : 
; 393  : 	_Unchecked_type _Unchecked() const
; 394  : 		{	// make an unchecked iterator
; 395  : 		return (_Unchecked_type(this->_Ptr, (_Mytree *)this->_Getcont()));
; 396  : 		}
; 397  : 
; 398  : 	reference operator*() const
; 399  : 		{	// return designated value
; 400  : 		return ((reference)**(_Mybase *)this);
; 401  : 		}
; 402  : 
; 403  : 	pointer operator->() const
; 404  : 		{	// return pointer to class object
; 405  : 		return (_STD pointer_traits<pointer>::pointer_to(**this));
; 406  : 		}
; 407  : 
; 408  : 	_Myiter& operator++()
; 409  : 		{	// preincrement
; 410  : 		++(*(_Mybase *)this);
; 411  : 		return (*this);
; 412  : 		}
; 413  : 
; 414  : 	_Myiter operator++(int)
; 415  : 		{	// postincrement
; 416  : 		_Myiter _Tmp = *this;
; 417  : 		++*this;
; 418  : 		return (_Tmp);
; 419  : 		}
; 420  : 
; 421  : 	_Myiter& operator--()
; 422  : 		{	// predecrement
; 423  : 		--(*(_Mybase *)this);
; 424  : 		return (*this);
; 425  : 		}
; 426  : 
; 427  : 	_Myiter operator--(int)
; 428  : 		{	// postdecrement
; 429  : 		_Myiter _Tmp = *this;
; 430  : 		--*this;
; 431  : 		return (_Tmp);
; 432  : 		}
; 433  : 	};
; 434  : 
; 435  : template<class _Mytree> inline
; 436  : 	typename _Tree_iterator<_Mytree>::_Unchecked_type
; 437  : 		_Unchecked(_Tree_iterator<_Mytree> _Iter)
; 438  : 	{	// convert to unchecked
; 439  : 	return (_Iter._Unchecked());
; 440  : 	}
; 441  : 
; 442  : template<class _Mytree> inline
; 443  : 	_Tree_iterator<_Mytree>&
; 444  : 		_Rechecked(_Tree_iterator<_Mytree>& _Iter,
; 445  : 			typename _Tree_iterator<_Mytree>
; 446  : 				::_Unchecked_type _Right)
; 447  : 	{	// convert to checked
; 448  : 	return (_Iter._Rechecked(_Right));
; 449  : 	}
; 450  : 
; 451  : 		// tree TYPE WRAPPERS
; 452  : template<class _Value_type,
; 453  : 	class _Size_type,
; 454  : 	class _Difference_type,
; 455  : 	class _Pointer,
; 456  : 	class _Const_pointer,
; 457  : 	class _Reference,
; 458  : 	class _Const_reference,
; 459  : 	class _Nodeptr_type>
; 460  : 	struct _Tree_iter_types
; 461  : 	{	// wraps types needed by iterators
; 462  : 	typedef _Value_type value_type;
; 463  : 	typedef _Size_type size_type;
; 464  : 	typedef _Difference_type difference_type;
; 465  : 	typedef _Pointer pointer;
; 466  : 	typedef _Const_pointer const_pointer;
; 467  : 	typedef _Reference reference;
; 468  : 	typedef _Const_reference const_reference;
; 469  : 	typedef _Nodeptr_type _Nodeptr;
; 470  : 	};
; 471  : 
; 472  : template<class _Value_type,
; 473  : 	class _Voidptr>
; 474  : 	struct _Tree_node
; 475  : 		{	// tree node
; 476  : 		_Voidptr _Left;	// left subtree, or smallest element if head
; 477  : 		_Voidptr _Parent;	// parent, or root of tree if head
; 478  : 		_Voidptr _Right;	// right subtree, or largest element if head
; 479  : 		char _Color;	// _Red or _Black, _Black if head
; 480  : 		char _Isnil;	// true only if head (also nil) node
; 481  : 		_Value_type _Myval;	// the stored value, unused if head
; 482  : 
; 483  : 	private:
; 484  : 		_Tree_node& operator=(const _Tree_node&);
; 485  : 		};
; 486  : 
; 487  : template<class _Value_type>
; 488  : 	struct _Tree_node<_Value_type, void *>
; 489  : 		{	// tree node
; 490  : 		typedef _Tree_node<_Value_type, void *> *_Nodeptr;
; 491  : 		_Nodeptr _Left;	// left subtree, or smallest element if head
; 492  : 		_Nodeptr _Parent;	// parent, or root of tree if head
; 493  : 		_Nodeptr _Right;	// right subtree, or largest element if head
; 494  : 		char _Color;	// _Red or _Black, _Black if head
; 495  : 		char _Isnil;	// true only if head (also nil) node
; 496  : 		_Value_type _Myval;	// the stored value, unused if head
; 497  : 
; 498  : 	private:
; 499  : 		_Tree_node& operator=(const _Tree_node&);
; 500  : 		};
; 501  : 
; 502  : template<class _Ty>
; 503  : 	struct _Tree_simple_types
; 504  : 		: public _Simple_types<_Ty>
; 505  : 	{	// wraps types needed by iterators
; 506  : 	typedef _Tree_node<_Ty, void *> _Node;
; 507  : 	typedef _Node *_Nodeptr;
; 508  : 	};
; 509  : 
; 510  : template<class _Ty,
; 511  : 	class _Alloc0>
; 512  : 	struct _Tree_base_types
; 513  : 	{	// types needed for a container base
; 514  : 	typedef _Alloc0 _Alloc;
; 515  : 	typedef _Tree_base_types<_Ty, _Alloc> _Myt;
; 516  : 
; 517  : 	typedef _Wrap_alloc<_Alloc> _Alty0;
; 518  : 	typedef typename _Alty0::template rebind<_Ty>::other _Alty;
; 519  : 
; 520  : 
; 521  : 	typedef typename _Get_voidptr<_Alty, typename _Alty::pointer>::type
; 522  : 		_Voidptr;
; 523  : 	typedef _Tree_node<typename _Alty::value_type,
; 524  : 		_Voidptr> _Node;
; 525  : 
; 526  : 	typedef typename _Alty::template rebind<_Node>::other _Alnod_type;
; 527  : 	typedef typename _Alnod_type::pointer _Nodeptr;
; 528  : 	typedef _Nodeptr& _Nodepref;
; 529  : 
; 530  : 	typedef typename _If<_Is_simple_alloc<_Alty>::value,
; 531  : 		_Tree_simple_types<typename _Alty::value_type>,
; 532  : 		_Tree_iter_types<typename _Alty::value_type,
; 533  : 			typename _Alty::size_type,
; 534  : 			typename _Alty::difference_type,
; 535  : 			typename _Alty::pointer,
; 536  : 			typename _Alty::const_pointer,
; 537  : 			typename _Alty::reference,
; 538  : 			typename _Alty::const_reference,
; 539  : 			_Nodeptr> >::type
; 540  : 		_Val_types;
; 541  : 	};
; 542  : 
; 543  : 		// TEMPLATE CLASS _Tree_val
; 544  : template<class _Val_types>
; 545  : 	class _Tree_val
; 546  : 		: public _Container_base
; 547  : 	{	// base class for tree to hold data
; 548  : public:
; 549  : 	typedef _Tree_val<_Val_types> _Myt;
; 550  : 
; 551  : 	typedef typename _Val_types::_Nodeptr _Nodeptr;
; 552  : 	typedef _Nodeptr& _Nodepref;
; 553  : 
; 554  : 	typedef typename _Val_types::value_type value_type;
; 555  : 	typedef typename _Val_types::size_type size_type;
; 556  : 	typedef typename _Val_types::difference_type difference_type;
; 557  : 	typedef typename _Val_types::pointer pointer;
; 558  : 	typedef typename _Val_types::const_pointer const_pointer;
; 559  : 	typedef typename _Val_types::reference reference;
; 560  : 	typedef typename _Val_types::const_reference const_reference;
; 561  : 
; 562  : 	typedef _Tree_const_iterator<_Myt> const_iterator;
; 563  : 	typedef _Tree_iterator<_Myt> iterator;
; 564  : 
; 565  : 	_Tree_val()
; 566  : 		{	// initialize data
; 567  : 		this->_Myhead = 0;
; 568  : 		this->_Mysize = 0;
; 569  : 		}
; 570  : 
; 571  : 	enum _Redbl
; 572  : 		{	// colors for link to parent
; 573  : 		_Red, _Black};
; 574  : 
; 575  : 	static char& _Color(_Nodeptr _Pnode)
; 576  : 		{	// return reference to color in node
; 577  : 		return ((char&)_Pnode->_Color);
; 578  : 		}
; 579  : 
; 580  : 	static char& _Isnil(_Nodeptr _Pnode)
; 581  : 		{	// return reference to nil flag in node
; 582  : 		return ((char&)_Pnode->_Isnil);
; 583  : 		}
; 584  : 
; 585  : 	static _Nodepref _Left(_Nodeptr _Pnode)
; 586  : 		{	// return reference to left pointer in node
; 587  : 		return ((_Nodepref)_Pnode->_Left);
; 588  : 		}
; 589  : 
; 590  : 	static _Nodepref _Parent(_Nodeptr _Pnode)
; 591  : 		{	// return reference to parent pointer in node
; 592  : 		return ((_Nodepref)_Pnode->_Parent);

  00040	89 4d e4	 mov	 DWORD PTR tv735[ebp], ecx

; 1800 : 		_TRY_BEGIN
; 1801 : 		_Nodeptr _Trynode = _Root();

  00043	8b 41 04	 mov	 eax, DWORD PTR [ecx+4]

; 1802 : 		_Nodeptr _Wherenode = this->_Myhead();
; 1803 : 		bool _Addleft = true;	// add to left of head if tree empty

  00046	88 55 ec	 mov	 BYTE PTR __Addleft$2[ebp], dl

; 1804 : 
; 1805 : 		while (!this->_Isnil(_Trynode))

  00049	80 78 0d 00	 cmp	 BYTE PTR [eax+13], 0
  0004d	75 30		 jne	 SHORT $LN3@Insert_noh
  0004f	8b 0b		 mov	 ecx, DWORD PTR [ebx]
  00051	8a 75 0c	 mov	 dh, BYTE PTR __Leftish$[ebp]
$LL2@Insert_noh:

; 1806 : 			{	// look for leaf to insert before (_Addleft) or after
; 1807 : 			_Wherenode = _Trynode;

  00054	8b f8		 mov	 edi, eax

; 1808 : 			if (_Leftish)

  00056	84 f6		 test	 dh, dh
  00058	74 08		 je	 SHORT $LN5@Insert_noh
; File c:\program files (x86)\microsoft visual studio 14.0\vc\include\xstddef

; 240  : 		return (_Left < _Right);

  0005a	39 48 10	 cmp	 DWORD PTR [eax+16], ecx
; File c:\program files (x86)\microsoft visual studio 14.0\vc\include\xtree

; 1809 : 				_Addleft = !_DEBUG_LT_PRED(this->_Getcomp(),

  0005d	0f 9d c2	 setge	 dl

; 1810 : 					this->_Key(_Trynode),
; 1811 : 					this->_Kfn(_Val));	// favor left end
; 1812 : 			else

  00060	eb 06		 jmp	 SHORT $LN336@Insert_noh
$LN5@Insert_noh:
; File c:\program files (x86)\microsoft visual studio 14.0\vc\include\xstddef

; 240  : 		return (_Left < _Right);

  00062	3b 48 10	 cmp	 ecx, DWORD PTR [eax+16]
  00065	0f 9c c2	 setl	 dl
$LN336@Insert_noh:
; File c:\program files (x86)\microsoft visual studio 14.0\vc\include\xtree

; 1813 : 				_Addleft = _DEBUG_LT_PRED(this->_Getcomp(),

  00068	88 55 ec	 mov	 BYTE PTR __Addleft$2[ebp], dl

; 1814 : 					this->_Kfn(_Val),
; 1815 : 					this->_Key(_Trynode));	// favor right end
; 1816 : 			_Trynode = _Addleft ? this->_Left(_Trynode)

  0006b	84 d2		 test	 dl, dl
  0006d	74 04		 je	 SHORT $LN16@Insert_noh
  0006f	8b 00		 mov	 eax, DWORD PTR [eax]
  00071	eb 03		 jmp	 SHORT $LN17@Insert_noh
$LN16@Insert_noh:
  00073	8b 40 08	 mov	 eax, DWORD PTR [eax+8]
$LN17@Insert_noh:

; 1804 : 
; 1805 : 		while (!this->_Isnil(_Trynode))

  00076	80 78 0d 00	 cmp	 BYTE PTR [eax+13], 0
  0007a	74 d8		 je	 SHORT $LL2@Insert_noh
  0007c	8b 4d e4	 mov	 ecx, DWORD PTR tv735[ebp]
$LN3@Insert_noh:

; 43   : 		: _Ptr(_Pnode)

  0007f	8b f7		 mov	 esi, edi
  00081	89 75 0c	 mov	 DWORD PTR __Where$4[ebp], esi

; 1817 : 				: this->_Right(_Trynode);
; 1818 : 			}
; 1819 : 
; 1820 : 		if (this->_Multi)
; 1821 : 			return (_Pairib(_Insert_at(_Addleft, _Wherenode,
; 1822 : 				_STD forward<_Valty>(_Val), _Newnode), true));
; 1823 : 		else
; 1824 : 			{	// insert only if unique
; 1825 : 			iterator _Where = iterator(_Wherenode, &this->_Get_data());
; 1826 : 			if (!_Addleft)

  00084	84 d2		 test	 dl, dl
  00086	74 41		 je	 SHORT $LN12@Insert_noh

; 309  :  #endif /* _ITERATOR_DEBUG_LEVEL */
; 310  : 
; 311  : 		return (*this);
; 312  : 		}
; 313  : 
; 314  : 	_Myiter operator--(int)
; 315  : 		{	// postdecrement
; 316  : 		_Myiter _Tmp = *this;
; 317  : 		--*this;
; 318  : 		return (_Tmp);
; 319  : 		}
; 320  : 
; 321  : 	bool operator==(const _Myiter& _Right) const
; 322  : 		{	// test for iterator equality
; 323  :  #if _ITERATOR_DEBUG_LEVEL == 2
; 324  : 		if (this->_Getcont() != _Right._Getcont())
; 325  : 			{	// report error
; 326  : 			_DEBUG_ERROR("map/set iterators incompatible");
; 327  : 			_SCL_SECURE_INVALID_ARGUMENT;
; 328  : 			}
; 329  : 
; 330  :  #elif _ITERATOR_DEBUG_LEVEL == 1
; 331  : 		_SCL_SECURE_VALIDATE(this->_Getcont() == _Right._Getcont());
; 332  :  #endif /* _ITERATOR_DEBUG_LEVEL */
; 333  : 
; 334  : 		return (this->_Ptr == _Right._Ptr);

  00088	3b 39		 cmp	 edi, DWORD PTR [ecx]

; 1827 : 				;	// need to test if insert after is okay
; 1828 : 			else if (_Where == begin())

  0008a	75 32		 jne	 SHORT $LN11@Insert_noh

; 1829 : 				return (_Pairib(_Insert_at(true, _Wherenode,

  0008c	ff 75 14	 push	 DWORD PTR __Newnode$[ebp]
  0008f	53		 push	 ebx
  00090	57		 push	 edi
  00091	6a 01		 push	 1
$LN337@Insert_noh:
  00093	8b 4d e8	 mov	 ecx, DWORD PTR _this$1$[ebp]
  00096	8d 45 0c	 lea	 eax, DWORD PTR $T3[ebp]
  00099	50		 push	 eax
  0009a	e8 00 00 00 00	 call	 ??$_Insert_at@AAU?$pair@$$CBHPAUCUSTOM_MONSTER_ATTR@@@std@@PAU?$_Tree_node@U?$pair@$$CBHPAUCUSTOM_MONSTER_ATTR@@@std@@PAX@2@@?$_Tree@V?$_Tmap_traits@HPAUCUSTOM_MONSTER_ATTR@@U?$less@H@std@@V?$allocator@U?$pair@$$CBHPAUCUSTOM_MONSTER_ATTR@@@std@@@3@$0A@@std@@@std@@IAE?AV?$_Tree_iterator@V?$_Tree_val@U?$_Tree_simple_types@U?$pair@$$CBHPAUCUSTOM_MONSTER_ATTR@@@std@@@std@@@std@@@1@_NPAU?$_Tree_node@U?$pair@$$CBHPAUCUSTOM_MONSTER_ATTR@@@std@@PAX@1@AAU?$pair@$$CBHPAUCUSTOM_MONSTER_ATTR@@@1@1@Z ; std::_Tree<std::_Tmap_traits<int,CUSTOM_MONSTER_ATTR *,std::less<int>,std::allocator<std::pair<int const ,CUSTOM_MONSTER_ATTR *> >,0> >::_Insert_at<std::pair<int const ,CUSTOM_MONSTER_ATTR *> &,std::_Tree_node<std::pair<int const ,CUSTOM_MONSTER_ATTR *>,void *> *>
; File c:\program files (x86)\microsoft visual studio 14.0\vc\include\utility

; 143  : 		: first(_STD forward<_Other1>(_Val1)),

  0009f	8b 08		 mov	 ecx, DWORD PTR [eax]
  000a1	8b 45 08	 mov	 eax, DWORD PTR ___$ReturnUdt$[ebp]
  000a4	89 08		 mov	 DWORD PTR [eax], ecx

; 144  : 				second(_STD forward<_Other2>(_Val2))

  000a6	c6 40 04 01	 mov	 BYTE PTR [eax+4], 1
; File c:\program files (x86)\microsoft visual studio 14.0\vc\include\xtree

; 1849 : 		}

  000aa	8b 4d f4	 mov	 ecx, DWORD PTR __$EHRec$[ebp+4]
  000ad	64 89 0d 00 00
	00 00		 mov	 DWORD PTR fs:0, ecx
  000b4	59		 pop	 ecx
  000b5	5f		 pop	 edi
  000b6	5e		 pop	 esi
  000b7	5b		 pop	 ebx
  000b8	8b e5		 mov	 esp, ebp
  000ba	5d		 pop	 ebp
  000bb	c2 10 00	 ret	 16			; 00000010H
$LN11@Insert_noh:

; 44   : 		{	// construct with node pointer _Pnode
; 45   : 		this->_Adopt(_Plist);
; 46   : 		}
; 47   : 
; 48   : 	reference operator*() const
; 49   : 		{	// return designated value
; 50   : 		return (_Mytree::_Myval(_Ptr));
; 51   : 		}
; 52   : 
; 53   : 	pointer operator->() const
; 54   : 		{	// return pointer to class object
; 55   : 		return (_STD pointer_traits<pointer>::pointer_to(**this));
; 56   : 		}
; 57   : 
; 58   : 	_Myiter& operator++()
; 59   : 		{	// preincrement
; 60   : 		if (_Mytree::_Isnil(_Ptr))
; 61   : 			;	// end() shouldn't be incremented, don't move
; 62   : 		else if (!_Mytree::_Isnil(_Mytree::_Right(_Ptr)))
; 63   : 			_Ptr = _Mytree::_Min(
; 64   : 				_Mytree::_Right(_Ptr));	// ==> smallest of right subtree
; 65   : 		else
; 66   : 			{	// climb looking for right subtree
; 67   : 			_Nodeptr _Pnode;
; 68   : 			while (!_Mytree::_Isnil(_Pnode = _Mytree::_Parent(_Ptr))
; 69   : 				&& _Ptr == _Mytree::_Right(_Pnode))
; 70   : 				_Ptr = _Pnode;	// ==> parent while right subtree
; 71   : 			_Ptr = _Pnode;	// ==> parent (head if end())
; 72   : 			}
; 73   : 		return (*this);
; 74   : 		}
; 75   : 
; 76   : 	_Myiter operator++(int)
; 77   : 		{	// postincrement
; 78   : 		_Myiter _Tmp = *this;
; 79   : 		++*this;
; 80   : 		return (_Tmp);
; 81   : 		}
; 82   : 
; 83   : 	_Myiter& operator--()
; 84   : 		{	// predecrement
; 85   : 		if (_Mytree::_Isnil(_Ptr))
; 86   : 			_Ptr = _Mytree::_Right(_Ptr);	// end() ==> rightmost
; 87   : 		else if (!_Mytree::_Isnil(_Mytree::_Left(_Ptr)))
; 88   : 			_Ptr = _Mytree::_Max(
; 89   : 				_Mytree::_Left(_Ptr));	// ==> largest of left subtree
; 90   : 		else
; 91   : 			{	// climb looking for left subtree
; 92   : 			_Nodeptr _Pnode;
; 93   : 			while (!_Mytree::_Isnil(_Pnode = _Mytree::_Parent(_Ptr))
; 94   : 				&& _Ptr == _Mytree::_Left(_Pnode))
; 95   : 				_Ptr = _Pnode;	// ==> parent while left subtree
; 96   : 			if (_Mytree::_Isnil(_Ptr))
; 97   : 				;	// begin() shouldn't be decremented, don't move
; 98   : 			else
; 99   : 				_Ptr = _Pnode;	// ==> parent if not head
; 100  : 			}
; 101  : 		return (*this);
; 102  : 		}
; 103  : 
; 104  : 	_Myiter operator--(int)
; 105  : 		{	// postdecrement
; 106  : 		_Myiter _Tmp = *this;
; 107  : 		--*this;
; 108  : 		return (_Tmp);
; 109  : 		}
; 110  : 
; 111  : 	bool operator==(const _Myiter& _Right) const
; 112  : 		{	// test for iterator equality
; 113  : 		return (_Ptr == _Right._Ptr);
; 114  : 		}
; 115  : 
; 116  : 	bool operator!=(const _Myiter& _Right) const
; 117  : 		{	// test for iterator inequality
; 118  : 		return (!(*this == _Right));
; 119  : 		}
; 120  : 
; 121  : 	_Nodeptr _Mynode() const
; 122  : 		{	// return node pointer
; 123  : 		return (_Ptr);
; 124  : 		}
; 125  : 
; 126  : 	_Nodeptr _Ptr;	// pointer to node
; 127  : 	};
; 128  : 
; 129  : 	// TEMPLATE CLASS _Tree_unchecked_iterator
; 130  : template<class _Mytree>
; 131  : 	class _Tree_unchecked_iterator
; 132  : 		: public _Tree_unchecked_const_iterator<_Mytree>
; 133  : 	{	// unchecked iterator for mutable tree
; 134  : public:
; 135  : 	typedef _Tree_unchecked_iterator<_Mytree> _Myiter;
; 136  : 	typedef _Tree_unchecked_const_iterator<_Mytree> _Mybase;
; 137  : 	typedef bidirectional_iterator_tag iterator_category;
; 138  : 
; 139  : 	typedef typename _Mytree::_Nodeptr _Nodeptr;
; 140  : 	typedef typename _Mytree::value_type value_type;
; 141  : 	typedef typename _Mytree::difference_type difference_type;
; 142  : 	typedef typename _Mytree::pointer pointer;
; 143  : 	typedef typename _Mytree::reference reference;
; 144  : 
; 145  : 	_Tree_unchecked_iterator()
; 146  : 		{	// construct with null node
; 147  : 		}
; 148  : 
; 149  : 	_Tree_unchecked_iterator(_Nodeptr _Pnode, const _Mytree *_Plist)
; 150  : 		: _Mybase(_Pnode, _Plist)
; 151  : 		{	// construct with node pointer _Pnode
; 152  : 		}
; 153  : 
; 154  : 	reference operator*() const
; 155  : 		{	// return designated value
; 156  : 		return ((reference)**(_Mybase *)this);
; 157  : 		}
; 158  : 
; 159  : 	pointer operator->() const
; 160  : 		{	// return pointer to class object
; 161  : 		return (_STD pointer_traits<pointer>::pointer_to(**this));
; 162  : 		}
; 163  : 
; 164  : 	_Myiter& operator++()
; 165  : 		{	// preincrement
; 166  : 		++(*(_Mybase *)this);
; 167  : 		return (*this);
; 168  : 		}
; 169  : 
; 170  : 	_Myiter operator++(int)
; 171  : 		{	// postincrement
; 172  : 		_Myiter _Tmp = *this;
; 173  : 		++*this;
; 174  : 		return (_Tmp);
; 175  : 		}
; 176  : 
; 177  : 	_Myiter& operator--()
; 178  : 		{	// predecrement
; 179  : 		--(*(_Mybase *)this);
; 180  : 		return (*this);
; 181  : 		}
; 182  : 
; 183  : 	_Myiter operator--(int)
; 184  : 		{	// postdecrement
; 185  : 		_Myiter _Tmp = *this;
; 186  : 		--*this;
; 187  : 		return (_Tmp);
; 188  : 		}
; 189  : 	};
; 190  : 
; 191  : 	// TEMPLATE CLASS _Tree_const_iterator
; 192  : template<class _Mytree>
; 193  : 	class _Tree_const_iterator
; 194  : 		: public _Tree_unchecked_const_iterator<_Mytree, _Iterator_base>
; 195  : 	{	// iterator for nonmutable tree
; 196  : public:
; 197  : 	typedef _Tree_const_iterator<_Mytree> _Myiter;
; 198  : 	typedef _Tree_unchecked_const_iterator<_Mytree, _Iterator_base> _Mybase;
; 199  : 	typedef bidirectional_iterator_tag iterator_category;
; 200  : 
; 201  : 	typedef typename _Mytree::_Nodeptr _Nodeptr;
; 202  : 	typedef typename _Mytree::value_type value_type;
; 203  : 	typedef typename _Mytree::difference_type difference_type;
; 204  : 	typedef typename _Mytree::const_pointer pointer;
; 205  : 	typedef typename _Mytree::const_reference reference;
; 206  : 
; 207  : 	_Tree_const_iterator()
; 208  : 		: _Mybase()
; 209  : 		{	// construct with null node pointer
; 210  : 		}
; 211  : 
; 212  : 	_Tree_const_iterator(_Nodeptr _Pnode, const _Mytree *_Plist)
; 213  : 		: _Mybase(_Pnode, _Plist)
; 214  : 		{	// construct with node pointer _Pnode
; 215  : 		}
; 216  : 
; 217  : 	typedef _Tree_unchecked_const_iterator<_Mytree> _Unchecked_type;
; 218  : 
; 219  : 	_Myiter& _Rechecked(_Unchecked_type _Right)
; 220  : 		{	// reset from unchecked iterator
; 221  : 		this->_Ptr = _Right._Ptr;
; 222  : 		return (*this);
; 223  : 		}
; 224  : 
; 225  : 	_Unchecked_type _Unchecked() const
; 226  : 		{	// make an unchecked iterator
; 227  : 		return (_Unchecked_type(this->_Ptr, (_Mytree *)this->_Getcont()));
; 228  : 		}
; 229  : 
; 230  : 	reference operator*() const
; 231  : 		{	// return designated value
; 232  :  #if _ITERATOR_DEBUG_LEVEL == 2
; 233  : 		if (this->_Getcont() == 0
; 234  : 			|| this->_Ptr == 0
; 235  : 			|| this->_Ptr == ((_Mytree *)this->_Getcont())->_Myhead)
; 236  : 			{	// report error
; 237  : 			_DEBUG_ERROR("map/set iterator not dereferencable");
; 238  : 			_SCL_SECURE_OUT_OF_RANGE;
; 239  : 			}
; 240  : 
; 241  :  #elif _ITERATOR_DEBUG_LEVEL == 1
; 242  : 		_SCL_SECURE_VALIDATE(this->_Getcont() != 0 && this->_Ptr != 0);
; 243  : 		_SCL_SECURE_VALIDATE_RANGE(this->_Ptr !=
; 244  : 			((_Mytree *)this->_Getcont())->_Myhead);
; 245  :  #endif /* _ITERATOR_DEBUG_LEVEL */
; 246  : 
; 247  : 		return (_Mytree::_Myval(this->_Ptr));
; 248  : 		}
; 249  : 
; 250  : 	pointer operator->() const
; 251  : 		{	// return pointer to class object
; 252  : 		return (_STD pointer_traits<pointer>::pointer_to(**this));
; 253  : 		}
; 254  : 
; 255  : 	_Myiter& operator++()
; 256  : 		{	// preincrement
; 257  :  #if _ITERATOR_DEBUG_LEVEL == 2
; 258  : 		if (this->_Getcont() == 0
; 259  : 			|| this->_Ptr == 0
; 260  : 			|| _Mytree::_Isnil(this->_Ptr))
; 261  : 			{	// report error
; 262  : 			_DEBUG_ERROR("map/set iterator not incrementable");
; 263  : 			_SCL_SECURE_OUT_OF_RANGE;
; 264  : 			}
; 265  : 
; 266  :  #elif _ITERATOR_DEBUG_LEVEL == 1
; 267  : 		_SCL_SECURE_VALIDATE(this->_Getcont() != 0 && this->_Ptr != 0);
; 268  : 		_SCL_SECURE_VALIDATE_RANGE(!_Mytree::_Isnil(this->_Ptr));
; 269  :  #endif /* _ITERATOR_DEBUG_LEVEL */
; 270  : 
; 271  : 		++(*(_Mybase *)this);
; 272  : 		return (*this);
; 273  : 		}
; 274  : 
; 275  : 	_Myiter operator++(int)
; 276  : 		{	// postincrement
; 277  : 		_Myiter _Tmp = *this;
; 278  : 		++*this;
; 279  : 		return (_Tmp);
; 280  : 		}
; 281  : 
; 282  : 	_Myiter& operator--()
; 283  : 		{	// predecrement
; 284  :  #if _ITERATOR_DEBUG_LEVEL == 2
; 285  : 		if (this->_Getcont() == 0
; 286  : 			|| this->_Ptr == 0)
; 287  : 			{	// report error
; 288  : 			_DEBUG_ERROR("map/set iterator not decrementable");
; 289  : 			_SCL_SECURE_OUT_OF_RANGE;
; 290  : 			}
; 291  : 
; 292  : 		_Nodeptr _Ptrsav = this->_Ptr;
; 293  : 		--(*(_Mybase *)this);
; 294  : 		if (_Ptrsav == this->_Ptr)
; 295  : 			{	// report error
; 296  : 			_DEBUG_ERROR("map/set iterator not decrementable");
; 297  : 			_SCL_SECURE_OUT_OF_RANGE;
; 298  : 			}
; 299  : 
; 300  :  #elif _ITERATOR_DEBUG_LEVEL == 1
; 301  : 		_SCL_SECURE_VALIDATE(this->_Getcont() != 0 && this->_Ptr != 0);
; 302  : 
; 303  : 		_Nodeptr _Ptrsav = this->_Ptr;
; 304  : 		--(*(_Mybase *)this);
; 305  : 		_SCL_SECURE_VALIDATE(_Ptrsav != this->_Ptr);
; 306  : 
; 307  :  #else /* _ITERATOR_DEBUG_LEVEL == 0 */
; 308  : 		--(*(_Mybase *)this);

  000be	8d 4d 0c	 lea	 ecx, DWORD PTR __Where$4[ebp]
  000c1	e8 00 00 00 00	 call	 ??F?$_Tree_unchecked_const_iterator@V?$_Tree_val@U?$_Tree_simple_types@U?$pair@$$CBHPAUCUSTOM_MONSTER_ATTR@@@std@@@std@@@std@@U_Iterator_base0@2@@std@@QAEAAV01@XZ ; std::_Tree_unchecked_const_iterator<std::_Tree_val<std::_Tree_simple_types<std::pair<int const ,CUSTOM_MONSTER_ATTR *> > >,std::_Iterator_base0>::operator--
  000c6	8b 75 0c	 mov	 esi, DWORD PTR __Where$4[ebp]
$LN12@Insert_noh:
; File c:\program files (x86)\microsoft visual studio 14.0\vc\include\xstddef

; 240  : 		return (_Left < _Right);

  000c9	8b 46 10	 mov	 eax, DWORD PTR [esi+16]
; File c:\program files (x86)\microsoft visual studio 14.0\vc\include\xtree

; 1837 : 				return (_Pairib(_Insert_at(_Addleft, _Wherenode,

  000cc	ff 75 14	 push	 DWORD PTR __Newnode$[ebp]
; File c:\program files (x86)\microsoft visual studio 14.0\vc\include\xstddef

; 240  : 		return (_Left < _Right);

  000cf	3b 03		 cmp	 eax, DWORD PTR [ebx]
; File c:\program files (x86)\microsoft visual studio 14.0\vc\include\xtree

; 1834 : 			if (_DEBUG_LT_PRED(this->_Getcomp(),

  000d1	7d 1b		 jge	 SHORT $LN13@Insert_noh

; 1837 : 				return (_Pairib(_Insert_at(_Addleft, _Wherenode,

  000d3	53		 push	 ebx
  000d4	57		 push	 edi
  000d5	ff 75 ec	 push	 DWORD PTR __Addleft$2[ebp]
  000d8	eb b9		 jmp	 SHORT $LN337@Insert_noh
__catch$??$_Insert_nohint@AAU?$pair@$$CBHPAUCUSTOM_MONSTER_ATTR@@@std@@PAU?$_Tree_node@U?$pair@$$CBHPAUCUSTOM_MONSTER_ATTR@@@std@@PAX@2@@?$_Tree@V?$_Tmap_traits@HPAUCUSTOM_MONSTER_ATTR@@U?$less@H@std@@V?$allocator@U?$pair@$$CBHPAUCUSTOM_MONSTER_ATTR@@@std@@@3@$0A@@std@@@std@@IAE?AU?$pair@V?$_Tree_iterator@V?$_Tree_val@U?$_Tree_simple_types@U?$pair@$$CBHPAUCUSTOM_MONSTER_ATTR@@@std@@@std@@@std@@@std@@_N@1@_NAAU?$pair@$$CBHPAUCUSTOM_MONSTER_ATTR@@@1@PAU?$_Tree_node@U?$pair@$$CBHPAUCUSTOM_MONSTER_ATTR@@@std@@PAX@1@@Z$0:
; File c:\program files (x86)\microsoft visual studio 14.0\vc\include\xmemory0

; 138  : 	::operator delete(_Ptr);

  000da	ff 75 14	 push	 DWORD PTR __Newnode$[ebp]
  000dd	e8 00 00 00 00	 call	 ??3@YAXPAX@Z		; operator delete
  000e2	83 c4 04	 add	 esp, 4
; File c:\program files (x86)\microsoft visual studio 14.0\vc\include\xtree

; 1847 : 		_RERAISE;

  000e5	6a 00		 push	 0
  000e7	6a 00		 push	 0
  000e9	e8 00 00 00 00	 call	 __CxxThrowException@8
$LN338@Insert_noh:
$LN13@Insert_noh:
; File c:\program files (x86)\microsoft visual studio 14.0\vc\include\xmemory0

; 138  : 	::operator delete(_Ptr);

  000ee	e8 00 00 00 00	 call	 ??3@YAXPAX@Z		; operator delete
; File c:\program files (x86)\microsoft visual studio 14.0\vc\include\utility

; 143  : 		: first(_STD forward<_Other1>(_Val1)),

  000f3	8b 45 08	 mov	 eax, DWORD PTR ___$ReturnUdt$[ebp]
; File c:\program files (x86)\microsoft visual studio 14.0\vc\include\xmemory0

; 138  : 	::operator delete(_Ptr);

  000f6	83 c4 04	 add	 esp, 4
; File c:\program files (x86)\microsoft visual studio 14.0\vc\include\utility

; 143  : 		: first(_STD forward<_Other1>(_Val1)),

  000f9	89 30		 mov	 DWORD PTR [eax], esi

; 144  : 				second(_STD forward<_Other2>(_Val2))

  000fb	c6 40 04 00	 mov	 BYTE PTR [eax+4], 0
; File c:\program files (x86)\microsoft visual studio 14.0\vc\include\xtree

; 1849 : 		}

  000ff	8b 4d f4	 mov	 ecx, DWORD PTR __$EHRec$[ebp+4]
  00102	64 89 0d 00 00
	00 00		 mov	 DWORD PTR fs:0, ecx
  00109	59		 pop	 ecx
  0010a	5f		 pop	 edi
  0010b	5e		 pop	 esi
  0010c	5b		 pop	 ebx
  0010d	8b e5		 mov	 esp, ebp
  0010f	5d		 pop	 ebp
  00110	c2 10 00	 ret	 16			; 00000010H
$LN335@Insert_noh:
_TEXT	ENDS
;	COMDAT text$x
text$x	SEGMENT
__ehhandler$??$_Insert_nohint@AAU?$pair@$$CBHPAUCUSTOM_MONSTER_ATTR@@@std@@PAU?$_Tree_node@U?$pair@$$CBHPAUCUSTOM_MONSTER_ATTR@@@std@@PAX@2@@?$_Tree@V?$_Tmap_traits@HPAUCUSTOM_MONSTER_ATTR@@U?$less@H@std@@V?$allocator@U?$pair@$$CBHPAUCUSTOM_MONSTER_ATTR@@@std@@@3@$0A@@std@@@std@@IAE?AU?$pair@V?$_Tree_iterator@V?$_Tree_val@U?$_Tree_simple_types@U?$pair@$$CBHPAUCUSTOM_MONSTER_ATTR@@@std@@@std@@@std@@@std@@_N@1@_NAAU?$pair@$$CBHPAUCUSTOM_MONSTER_ATTR@@@1@PAU?$_Tree_node@U?$pair@$$CBHPAUCUSTOM_MONSTER_ATTR@@@std@@PAX@1@@Z:
  00000	8b 54 24 08	 mov	 edx, DWORD PTR [esp+8]
  00004	8d 42 0c	 lea	 eax, DWORD PTR [edx+12]
  00007	8b 4a e0	 mov	 ecx, DWORD PTR [edx-32]
  0000a	33 c8		 xor	 ecx, eax
  0000c	e8 00 00 00 00	 call	 @__security_check_cookie@4
  00011	b8 00 00 00 00	 mov	 eax, OFFSET __ehfuncinfo$??$_Insert_nohint@AAU?$pair@$$CBHPAUCUSTOM_MONSTER_ATTR@@@std@@PAU?$_Tree_node@U?$pair@$$CBHPAUCUSTOM_MONSTER_ATTR@@@std@@PAX@2@@?$_Tree@V?$_Tmap_traits@HPAUCUSTOM_MONSTER_ATTR@@U?$less@H@std@@V?$allocator@U?$pair@$$CBHPAUCUSTOM_MONSTER_ATTR@@@std@@@3@$0A@@std@@@std@@IAE?AU?$pair@V?$_Tree_iterator@V?$_Tree_val@U?$_Tree_simple_types@U?$pair@$$CBHPAUCUSTOM_MONSTER_ATTR@@@std@@@std@@@std@@@std@@_N@1@_NAAU?$pair@$$CBHPAUCUSTOM_MONSTER_ATTR@@@1@PAU?$_Tree_node@U?$pair@$$CBHPAUCUSTOM_MONSTER_ATTR@@@std@@PAX@1@@Z
  00016	e9 00 00 00 00	 jmp	 ___CxxFrameHandler3
text$x	ENDS
??$_Insert_nohint@AAU?$pair@$$CBHPAUCUSTOM_MONSTER_ATTR@@@std@@PAU?$_Tree_node@U?$pair@$$CBHPAUCUSTOM_MONSTER_ATTR@@@std@@PAX@2@@?$_Tree@V?$_Tmap_traits@HPAUCUSTOM_MONSTER_ATTR@@U?$less@H@std@@V?$allocator@U?$pair@$$CBHPAUCUSTOM_MONSTER_ATTR@@@std@@@3@$0A@@std@@@std@@IAE?AU?$pair@V?$_Tree_iterator@V?$_Tree_val@U?$_Tree_simple_types@U?$pair@$$CBHPAUCUSTOM_MONSTER_ATTR@@@std@@@std@@@std@@@std@@_N@1@_NAAU?$pair@$$CBHPAUCUSTOM_MONSTER_ATTR@@@1@PAU?$_Tree_node@U?$pair@$$CBHPAUCUSTOM_MONSTER_ATTR@@@std@@PAX@1@@Z ENDP ; std::_Tree<std::_Tmap_traits<int,CUSTOM_MONSTER_ATTR *,std::less<int>,std::allocator<std::pair<int const ,CUSTOM_MONSTER_ATTR *> >,0> >::_Insert_nohint<std::pair<int const ,CUSTOM_MONSTER_ATTR *> &,std::_Tree_node<std::pair<int const ,CUSTOM_MONSTER_ATTR *>,void *> *>
; Function compile flags: /Ogtp
; File c:\program files (x86)\microsoft visual studio 14.0\vc\include\xtree
; File c:\program files (x86)\microsoft visual studio 14.0\vc\include\xmemory0
; File c:\program files (x86)\microsoft visual studio 14.0\vc\include\utility
; File c:\program files (x86)\microsoft visual studio 14.0\vc\include\xtree
;	COMDAT ??$_Buynode@U?$pair@HPAUCUSTOM_MONSTER_ATTR@@@std@@@?$_Tree_comp_alloc@V?$_Tmap_traits@HPAUCUSTOM_MONSTER_ATTR@@U?$less@H@std@@V?$allocator@U?$pair@$$CBHPAUCUSTOM_MONSTER_ATTR@@@std@@@3@$0A@@std@@@std@@QAEPAU?$_Tree_node@U?$pair@$$CBHPAUCUSTOM_MONSTER_ATTR@@@std@@PAX@1@$$QAU?$pair@HPAUCUSTOM_MONSTER_ATTR@@@1@@Z
_TEXT	SEGMENT
_<_Val_0>$ = 8						; size = 4
??$_Buynode@U?$pair@HPAUCUSTOM_MONSTER_ATTR@@@std@@@?$_Tree_comp_alloc@V?$_Tmap_traits@HPAUCUSTOM_MONSTER_ATTR@@U?$less@H@std@@V?$allocator@U?$pair@$$CBHPAUCUSTOM_MONSTER_ATTR@@@std@@@3@$0A@@std@@@std@@QAEPAU?$_Tree_node@U?$pair@$$CBHPAUCUSTOM_MONSTER_ATTR@@@std@@PAX@1@$$QAU?$pair@HPAUCUSTOM_MONSTER_ATTR@@@1@@Z PROC ; std::_Tree_comp_alloc<std::_Tmap_traits<int,CUSTOM_MONSTER_ATTR *,std::less<int>,std::allocator<std::pair<int const ,CUSTOM_MONSTER_ATTR *> >,0> >::_Buynode<std::pair<int,CUSTOM_MONSTER_ATTR *> >, COMDAT
; _this$ = ecx

; 887  : 		{	// allocate a node with defaults and set links and value

  00000	55		 push	 ebp
  00001	8b ec		 mov	 ebp, esp
  00003	56		 push	 esi

; 888  : 		_Nodeptr _Pnode = _Buynode0();

  00004	e8 00 00 00 00	 call	 ?_Buynode0@?$_Tree_comp_alloc@V?$_Tmap_traits@HPAUCUSTOM_MONSTER_ATTR@@U?$less@H@std@@V?$allocator@U?$pair@$$CBHPAUCUSTOM_MONSTER_ATTR@@@std@@@3@$0A@@std@@@std@@QAEPAU?$_Tree_node@U?$pair@$$CBHPAUCUSTOM_MONSTER_ATTR@@@std@@PAX@2@XZ ; std::_Tree_comp_alloc<std::_Tmap_traits<int,CUSTOM_MONSTER_ATTR *,std::less<int>,std::allocator<std::pair<int const ,CUSTOM_MONSTER_ATTR *> >,0> >::_Buynode0
  00009	8b d0		 mov	 edx, eax

; 602  : 		return ((reference)_Pnode->_Myval);

  0000b	8d 72 10	 lea	 esi, DWORD PTR [edx+16]

; 889  : 
; 890  : 		this->_Color(_Pnode) = _Red;

  0000e	66 c7 42 0c 00
	00		 mov	 WORD PTR [edx+12], 0
; File c:\program files (x86)\microsoft visual studio 14.0\vc\include\xmemory0

; 655  : 		::new ((void *)_Ptr) _Objty(_STD forward<_Types>(_Args)...);

  00014	85 f6		 test	 esi, esi
  00016	74 0f		 je	 SHORT $LN50@Buynode
; File c:\program files (x86)\microsoft visual studio 14.0\vc\include\utility

; 156  : 		: first(_STD forward<_Other1>(_Right.first)),

  00018	8b 45 08	 mov	 eax, DWORD PTR _<_Val_0>$[ebp]
  0001b	8b 08		 mov	 ecx, DWORD PTR [eax]
  0001d	89 0e		 mov	 DWORD PTR [esi], ecx

; 157  : 			second(_STD forward<_Other2>(_Right.second))

  0001f	8b 40 04	 mov	 eax, DWORD PTR [eax+4]
  00022	89 46 04	 mov	 DWORD PTR [esi+4], eax
; File c:\program files (x86)\microsoft visual studio 14.0\vc\include\xtree

; 902  : 		return (_Pnode);

  00025	8b c2		 mov	 eax, edx
$LN50@Buynode:
  00027	5e		 pop	 esi

; 903  : 		}

  00028	5d		 pop	 ebp
  00029	c2 04 00	 ret	 4
??$_Buynode@U?$pair@HPAUCUSTOM_MONSTER_ATTR@@@std@@@?$_Tree_comp_alloc@V?$_Tmap_traits@HPAUCUSTOM_MONSTER_ATTR@@U?$less@H@std@@V?$allocator@U?$pair@$$CBHPAUCUSTOM_MONSTER_ATTR@@@std@@@3@$0A@@std@@@std@@QAEPAU?$_Tree_node@U?$pair@$$CBHPAUCUSTOM_MONSTER_ATTR@@@std@@PAX@1@$$QAU?$pair@HPAUCUSTOM_MONSTER_ATTR@@@1@@Z ENDP ; std::_Tree_comp_alloc<std::_Tmap_traits<int,CUSTOM_MONSTER_ATTR *,std::less<int>,std::allocator<std::pair<int const ,CUSTOM_MONSTER_ATTR *> >,0> >::_Buynode<std::pair<int,CUSTOM_MONSTER_ATTR *> >
_TEXT	ENDS
; Function compile flags: /Ogtp
; File c:\program files (x86)\microsoft visual studio 14.0\vc\include\type_traits
;	COMDAT ??$forward@U?$pair@HPAUCUSTOM_MONSTER_ATTR@@@std@@@std@@YA$$QAU?$pair@HPAUCUSTOM_MONSTER_ATTR@@@0@AAU10@@Z
_TEXT	SEGMENT
__Arg$ = 8						; size = 4
??$forward@U?$pair@HPAUCUSTOM_MONSTER_ATTR@@@std@@@std@@YA$$QAU?$pair@HPAUCUSTOM_MONSTER_ATTR@@@0@AAU10@@Z PROC ; std::forward<std::pair<int,CUSTOM_MONSTER_ATTR *> >, COMDAT

; 1233 : 	{	// forward an lvalue as either an lvalue or an rvalue

  00000	55		 push	 ebp
  00001	8b ec		 mov	 ebp, esp

; 1234 : 	return (static_cast<_Ty&&>(_Arg));

  00003	8b 45 08	 mov	 eax, DWORD PTR __Arg$[ebp]

; 1235 : 	}

  00006	5d		 pop	 ebp
  00007	c3		 ret	 0
??$forward@U?$pair@HPAUCUSTOM_MONSTER_ATTR@@@std@@@std@@YA$$QAU?$pair@HPAUCUSTOM_MONSTER_ATTR@@@0@AAU10@@Z ENDP ; std::forward<std::pair<int,CUSTOM_MONSTER_ATTR *> >
_TEXT	ENDS
; Function compile flags: /Ogtp
; File c:\program files (x86)\microsoft visual studio 14.0\vc\include\type_traits
;	COMDAT ??$forward@AAPAUCUSTOM_MONSTER_ATTR@@@std@@YAAAPAUCUSTOM_MONSTER_ATTR@@AAPAU1@@Z
_TEXT	SEGMENT
__Arg$ = 8						; size = 4
??$forward@AAPAUCUSTOM_MONSTER_ATTR@@@std@@YAAAPAUCUSTOM_MONSTER_ATTR@@AAPAU1@@Z PROC ; std::forward<CUSTOM_MONSTER_ATTR * &>, COMDAT

; 1233 : 	{	// forward an lvalue as either an lvalue or an rvalue

  00000	55		 push	 ebp
  00001	8b ec		 mov	 ebp, esp

; 1234 : 	return (static_cast<_Ty&&>(_Arg));

  00003	8b 45 08	 mov	 eax, DWORD PTR __Arg$[ebp]

; 1235 : 	}

  00006	5d		 pop	 ebp
  00007	c3		 ret	 0
??$forward@AAPAUCUSTOM_MONSTER_ATTR@@@std@@YAAAPAUCUSTOM_MONSTER_ATTR@@AAPAU1@@Z ENDP ; std::forward<CUSTOM_MONSTER_ATTR * &>
_TEXT	ENDS
; Function compile flags: /Ogtp
; File c:\program files (x86)\microsoft visual studio 14.0\vc\include\type_traits
;	COMDAT ??$forward@AAH@std@@YAAAHAAH@Z
_TEXT	SEGMENT
__Arg$ = 8						; size = 4
??$forward@AAH@std@@YAAAHAAH@Z PROC			; std::forward<int &>, COMDAT

; 1233 : 	{	// forward an lvalue as either an lvalue or an rvalue

  00000	55		 push	 ebp
  00001	8b ec		 mov	 ebp, esp

; 1234 : 	return (static_cast<_Ty&&>(_Arg));

  00003	8b 45 08	 mov	 eax, DWORD PTR __Arg$[ebp]

; 1235 : 	}

  00006	5d		 pop	 ebp
  00007	c3		 ret	 0
??$forward@AAH@std@@YAAAHAAH@Z ENDP			; std::forward<int &>
_TEXT	ENDS
; Function compile flags: /Ogtp
; File c:\program files (x86)\microsoft visual studio 14.0\vc\include\xmemory0
;	COMDAT ??$construct@PAU?$_Tree_node@U?$pair@$$CBHPAUCUSTOM_MONSTER_ATTR@@@std@@PAX@std@@AAPAU12@@?$_Wrap_alloc@V?$allocator@U?$_Tree_node@U?$pair@$$CBHPAUCUSTOM_MONSTER_ATTR@@@std@@PAX@std@@@std@@@std@@QAEXPAPAU?$_Tree_node@U?$pair@$$CBHPAUCUSTOM_MONSTER_ATTR@@@std@@PAX@1@AAPAU21@@Z
_TEXT	SEGMENT
__Ptr$ = 8						; size = 4
_<_Args_0>$ = 12					; size = 4
??$construct@PAU?$_Tree_node@U?$pair@$$CBHPAUCUSTOM_MONSTER_ATTR@@@std@@PAX@std@@AAPAU12@@?$_Wrap_alloc@V?$allocator@U?$_Tree_node@U?$pair@$$CBHPAUCUSTOM_MONSTER_ATTR@@@std@@PAX@std@@@std@@@std@@QAEXPAPAU?$_Tree_node@U?$pair@$$CBHPAUCUSTOM_MONSTER_ATTR@@@std@@PAX@1@AAPAU21@@Z PROC ; std::_Wrap_alloc<std::allocator<std::_Tree_node<std::pair<int const ,CUSTOM_MONSTER_ATTR *>,void *> > >::construct<std::_Tree_node<std::pair<int const ,CUSTOM_MONSTER_ATTR *>,void *> *,std::_Tree_node<std::pair<int const ,CUSTOM_MONSTER_ATTR *>,void *> * &>, COMDAT
; _this$ = ecx

; 916  : 		{	// construct _Ty(_Types...) at _Ptr

  00000	55		 push	 ebp
  00001	8b ec		 mov	 ebp, esp

; 655  : 		::new ((void *)_Ptr) _Objty(_STD forward<_Types>(_Args)...);

  00003	8b 4d 08	 mov	 ecx, DWORD PTR __Ptr$[ebp]
  00006	85 c9		 test	 ecx, ecx
  00008	74 07		 je	 SHORT $LN13@construct
  0000a	8b 45 0c	 mov	 eax, DWORD PTR _<_Args_0>$[ebp]
  0000d	8b 00		 mov	 eax, DWORD PTR [eax]
  0000f	89 01		 mov	 DWORD PTR [ecx], eax
$LN13@construct:

; 917  : 		_Mytraits::construct(*this, _Ptr,
; 918  : 			_STD forward<_Types>(_Args)...);
; 919  : 		}

  00011	5d		 pop	 ebp
  00012	c2 08 00	 ret	 8
??$construct@PAU?$_Tree_node@U?$pair@$$CBHPAUCUSTOM_MONSTER_ATTR@@@std@@PAX@std@@AAPAU12@@?$_Wrap_alloc@V?$allocator@U?$_Tree_node@U?$pair@$$CBHPAUCUSTOM_MONSTER_ATTR@@@std@@PAX@std@@@std@@@std@@QAEXPAPAU?$_Tree_node@U?$pair@$$CBHPAUCUSTOM_MONSTER_ATTR@@@std@@PAX@1@AAPAU21@@Z ENDP ; std::_Wrap_alloc<std::allocator<std::_Tree_node<std::pair<int const ,CUSTOM_MONSTER_ATTR *>,void *> > >::construct<std::_Tree_node<std::pair<int const ,CUSTOM_MONSTER_ATTR *>,void *> *,std::_Tree_node<std::pair<int const ,CUSTOM_MONSTER_ATTR *>,void *> * &>
_TEXT	ENDS
; Function compile flags: /Ogtp
; File c:\program files (x86)\microsoft visual studio 14.0\vc\include\vector
; File c:\program files (x86)\microsoft visual studio 14.0\vc\include\xmemory
; File c:\program files (x86)\microsoft visual studio 14.0\vc\include\vector
;	COMDAT ??$_Umove@PAUMONSTER_ATTRIBUTE@@@?$vector@UMONSTER_ATTRIBUTE@@V?$allocator@UMONSTER_ATTRIBUTE@@@std@@@std@@IAEPAUMONSTER_ATTRIBUTE@@PAU2@00@Z
_TEXT	SEGMENT
__First$ = 8						; size = 4
__Last$ = 12						; size = 4
__Cat$1 = 16						; size = 1
__Ptr$ = 16						; size = 4
??$_Umove@PAUMONSTER_ATTRIBUTE@@@?$vector@UMONSTER_ATTRIBUTE@@V?$allocator@UMONSTER_ATTRIBUTE@@@std@@@std@@IAEPAUMONSTER_ATTRIBUTE@@PAU2@00@Z PROC ; std::vector<MONSTER_ATTRIBUTE,std::allocator<MONSTER_ATTRIBUTE> >::_Umove<MONSTER_ATTRIBUTE *>, COMDAT
; _this$ = ecx

; 1677 : 		{	// move initializing [_First, _Last), using allocator

  00000	55		 push	 ebp
  00001	8b ec		 mov	 ebp, esp
; File c:\program files (x86)\microsoft visual studio 14.0\vc\include\xmemory

; 481  : 	return (_Uninit_move(_First, _Last, _Dest, _Al,

  00003	ff 75 10	 push	 DWORD PTR __Cat$1[ebp]
  00006	6a 00		 push	 0
  00008	51		 push	 ecx
  00009	ff 75 10	 push	 DWORD PTR __Ptr$[ebp]
  0000c	ff 75 0c	 push	 DWORD PTR __Last$[ebp]
  0000f	ff 75 08	 push	 DWORD PTR __First$[ebp]
  00012	e8 00 00 00 00	 call	 ??$_Uninit_move@PAUMONSTER_ATTRIBUTE@@PAU1@V?$allocator@UMONSTER_ATTRIBUTE@@@std@@U1@@std@@YAPAUMONSTER_ATTRIBUTE@@PAU1@00AAU?$_Wrap_alloc@V?$allocator@UMONSTER_ATTRIBUTE@@@std@@@0@0U_Nonscalar_ptr_iterator_tag@0@@Z ; std::_Uninit_move<MONSTER_ATTRIBUTE *,MONSTER_ATTRIBUTE *,std::allocator<MONSTER_ATTRIBUTE>,MONSTER_ATTRIBUTE>
  00017	83 c4 18	 add	 esp, 24			; 00000018H
; File c:\program files (x86)\microsoft visual studio 14.0\vc\include\vector

; 1680 : 		}

  0001a	5d		 pop	 ebp
  0001b	c2 0c 00	 ret	 12			; 0000000cH
??$_Umove@PAUMONSTER_ATTRIBUTE@@@?$vector@UMONSTER_ATTRIBUTE@@V?$allocator@UMONSTER_ATTRIBUTE@@@std@@@std@@IAEPAUMONSTER_ATTRIBUTE@@PAU2@00@Z ENDP ; std::vector<MONSTER_ATTRIBUTE,std::allocator<MONSTER_ATTRIBUTE> >::_Umove<MONSTER_ATTRIBUTE *>
_TEXT	ENDS
; Function compile flags: /Ogtp
; File c:\program files (x86)\microsoft visual studio 14.0\vc\include\xutility
; File c:\program files (x86)\microsoft visual studio 14.0\vc\include\xtree
; File c:\program files (x86)\microsoft visual studio 14.0\vc\include\xutility
; File c:\program files (x86)\microsoft visual studio 14.0\vc\include\xtree
; File c:\program files (x86)\microsoft visual studio 14.0\vc\include\xutility
;	COMDAT ??$?0ABU?$less@H@std@@U_One_then_variadic_args_t@1@ABV?$allocator@U?$pair@$$CBHPAUCUSTOM_MONSTER_ATTR@@@std@@@1@@?$_Compressed_pair@U?$less@H@std@@V?$_Compressed_pair@U?$_Wrap_alloc@V?$allocator@U?$_Tree_node@U?$pair@$$CBHPAUCUSTOM_MONSTER_ATTR@@@std@@PAX@std@@@std@@@std@@V?$_Tree_val@U?$_Tree_simple_types@U?$pair@$$CBHPAUCUSTOM_MONSTER_ATTR@@@std@@@std@@@2@$00@2@$00@std@@QAE@U_One_then_variadic_args_t@1@ABU?$less@H@1@$$QAU21@ABV?$allocator@U?$pair@$$CBHPAUCUSTOM_MONSTER_ATTR@@@std@@@1@@Z
_TEXT	SEGMENT
___formal$ = 8						; size = 1
__Val1$ = 12						; size = 4
_<_Val2_0>$ = 16					; size = 4
_<_Val2_1>$ = 20					; size = 4
??$?0ABU?$less@H@std@@U_One_then_variadic_args_t@1@ABV?$allocator@U?$pair@$$CBHPAUCUSTOM_MONSTER_ATTR@@@std@@@1@@?$_Compressed_pair@U?$less@H@std@@V?$_Compressed_pair@U?$_Wrap_alloc@V?$allocator@U?$_Tree_node@U?$pair@$$CBHPAUCUSTOM_MONSTER_ATTR@@@std@@PAX@std@@@std@@@std@@V?$_Tree_val@U?$_Tree_simple_types@U?$pair@$$CBHPAUCUSTOM_MONSTER_ATTR@@@std@@@std@@@2@$00@2@$00@std@@QAE@U_One_then_variadic_args_t@1@ABU?$less@H@1@$$QAU21@ABV?$allocator@U?$pair@$$CBHPAUCUSTOM_MONSTER_ATTR@@@std@@@1@@Z PROC ; std::_Compressed_pair<std::less<int>,std::_Compressed_pair<std::_Wrap_alloc<std::allocator<std::_Tree_node<std::pair<int const ,CUSTOM_MONSTER_ATTR *>,void *> > >,std::_Tree_val<std::_Tree_simple_types<std::pair<int const ,CUSTOM_MONSTER_ATTR *> > >,1>,1>::_Compressed_pair<std::less<int>,std::_Compressed_pair<std::_Wrap_alloc<std::allocator<std::_Tree_node<std::pair<int const ,CUSTOM_MONSTER_ATTR *>,void *> > >,std::_Tree_val<std::_Tree_simple_types<std::pair<int const ,CUSTOM_MONSTER_ATTR *> > >,1>,1><std::less<int> const &,std::_One_then_variadic_args_t,std::allocator<std::pair<int const ,CUSTOM_MONSTER_ATTR *> > const &>, COMDAT
; _this$ = ecx
; File c:\program files (x86)\microsoft visual studio 14.0\vc\include\xtree

; 567  : 		this->_Myhead = 0;

  00000	c7 01 00 00 00
	00		 mov	 DWORD PTR [ecx], 0
; File c:\program files (x86)\microsoft visual studio 14.0\vc\include\xutility

; 289  : 		}

  00006	8b c1		 mov	 eax, ecx
; File c:\program files (x86)\microsoft visual studio 14.0\vc\include\xtree

; 568  : 		this->_Mysize = 0;

  00008	c7 41 04 00 00
	00 00		 mov	 DWORD PTR [ecx+4], 0
; File c:\program files (x86)\microsoft visual studio 14.0\vc\include\xutility

; 289  : 		}

  0000f	c2 10 00	 ret	 16			; 00000010H
??$?0ABU?$less@H@std@@U_One_then_variadic_args_t@1@ABV?$allocator@U?$pair@$$CBHPAUCUSTOM_MONSTER_ATTR@@@std@@@1@@?$_Compressed_pair@U?$less@H@std@@V?$_Compressed_pair@U?$_Wrap_alloc@V?$allocator@U?$_Tree_node@U?$pair@$$CBHPAUCUSTOM_MONSTER_ATTR@@@std@@PAX@std@@@std@@@std@@V?$_Tree_val@U?$_Tree_simple_types@U?$pair@$$CBHPAUCUSTOM_MONSTER_ATTR@@@std@@@std@@@2@$00@2@$00@std@@QAE@U_One_then_variadic_args_t@1@ABU?$less@H@1@$$QAU21@ABV?$allocator@U?$pair@$$CBHPAUCUSTOM_MONSTER_ATTR@@@std@@@1@@Z ENDP ; std::_Compressed_pair<std::less<int>,std::_Compressed_pair<std::_Wrap_alloc<std::allocator<std::_Tree_node<std::pair<int const ,CUSTOM_MONSTER_ATTR *>,void *> > >,std::_Tree_val<std::_Tree_simple_types<std::pair<int const ,CUSTOM_MONSTER_ATTR *> > >,1>,1>::_Compressed_pair<std::less<int>,std::_Compressed_pair<std::_Wrap_alloc<std::allocator<std::_Tree_node<std::pair<int const ,CUSTOM_MONSTER_ATTR *>,void *> > >,std::_Tree_val<std::_Tree_simple_types<std::pair<int const ,CUSTOM_MONSTER_ATTR *> > >,1>,1><std::less<int> const &,std::_One_then_variadic_args_t,std::allocator<std::pair<int const ,CUSTOM_MONSTER_ATTR *> > const &>
_TEXT	ENDS
; Function compile flags: /Ogtp
; File c:\program files (x86)\microsoft visual studio 14.0\vc\include\xmemory0
;	COMDAT ??$destroy@PAU?$_Tree_node@U?$pair@$$CBHPAUCUSTOM_MONSTER_ATTR@@@std@@PAX@std@@@?$_Wrap_alloc@V?$allocator@U?$_Tree_node@U?$pair@$$CBHPAUCUSTOM_MONSTER_ATTR@@@std@@PAX@std@@@std@@@std@@QAEXPAPAU?$_Tree_node@U?$pair@$$CBHPAUCUSTOM_MONSTER_ATTR@@@std@@PAX@1@@Z
_TEXT	SEGMENT
__Ptr$ = 8						; size = 4
??$destroy@PAU?$_Tree_node@U?$pair@$$CBHPAUCUSTOM_MONSTER_ATTR@@@std@@PAX@std@@@?$_Wrap_alloc@V?$allocator@U?$_Tree_node@U?$pair@$$CBHPAUCUSTOM_MONSTER_ATTR@@@std@@PAX@std@@@std@@@std@@QAEXPAPAU?$_Tree_node@U?$pair@$$CBHPAUCUSTOM_MONSTER_ATTR@@@std@@PAX@1@@Z PROC ; std::_Wrap_alloc<std::allocator<std::_Tree_node<std::pair<int const ,CUSTOM_MONSTER_ATTR *>,void *> > >::destroy<std::_Tree_node<std::pair<int const ,CUSTOM_MONSTER_ATTR *>,void *> *>, COMDAT
; _this$ = ecx

; 925  : 		_Mytraits::destroy(*this, _Ptr);
; 926  : 		}

  00000	c2 04 00	 ret	 4
??$destroy@PAU?$_Tree_node@U?$pair@$$CBHPAUCUSTOM_MONSTER_ATTR@@@std@@PAX@std@@@?$_Wrap_alloc@V?$allocator@U?$_Tree_node@U?$pair@$$CBHPAUCUSTOM_MONSTER_ATTR@@@std@@PAX@std@@@std@@@std@@QAEXPAPAU?$_Tree_node@U?$pair@$$CBHPAUCUSTOM_MONSTER_ATTR@@@std@@PAX@1@@Z ENDP ; std::_Wrap_alloc<std::allocator<std::_Tree_node<std::pair<int const ,CUSTOM_MONSTER_ATTR *>,void *> > >::destroy<std::_Tree_node<std::pair<int const ,CUSTOM_MONSTER_ATTR *>,void *> *>
_TEXT	ENDS
; Function compile flags: /Ogtp
; File c:\program files (x86)\microsoft visual studio 14.0\vc\include\xstddef
;	COMDAT ??$addressof@PAU?$_Tree_node@U?$pair@$$CBHPAUCUSTOM_MONSTER_ATTR@@@std@@PAX@std@@@std@@YAPAPAU?$_Tree_node@U?$pair@$$CBHPAUCUSTOM_MONSTER_ATTR@@@std@@PAX@0@AAPAU10@@Z
_TEXT	SEGMENT
__Val$ = 8						; size = 4
??$addressof@PAU?$_Tree_node@U?$pair@$$CBHPAUCUSTOM_MONSTER_ATTR@@@std@@PAX@std@@@std@@YAPAPAU?$_Tree_node@U?$pair@$$CBHPAUCUSTOM_MONSTER_ATTR@@@std@@PAX@0@AAPAU10@@Z PROC ; std::addressof<std::_Tree_node<std::pair<int const ,CUSTOM_MONSTER_ATTR *>,void *> *>, COMDAT

; 696  : 	{	// return address of _Val

  00000	55		 push	 ebp
  00001	8b ec		 mov	 ebp, esp

; 697  : 	return (_Addressof(_Val, is_function<_Ty>()));

  00003	8b 45 08	 mov	 eax, DWORD PTR __Val$[ebp]

; 698  : 	}

  00006	5d		 pop	 ebp
  00007	c3		 ret	 0
??$addressof@PAU?$_Tree_node@U?$pair@$$CBHPAUCUSTOM_MONSTER_ATTR@@@std@@PAX@std@@@std@@YAPAPAU?$_Tree_node@U?$pair@$$CBHPAUCUSTOM_MONSTER_ATTR@@@std@@PAX@0@AAPAU10@@Z ENDP ; std::addressof<std::_Tree_node<std::pair<int const ,CUSTOM_MONSTER_ATTR *>,void *> *>
_TEXT	ENDS
; Function compile flags: /Ogtp
; File c:\program files (x86)\microsoft visual studio 14.0\vc\include\xmemory0
;	COMDAT ??$_Destroy_range@U?$_Wrap_alloc@V?$allocator@UMONSTER_ATTRIBUTE@@@std@@@std@@@std@@YAXPAUMONSTER_ATTRIBUTE@@0AAU?$_Wrap_alloc@V?$allocator@UMONSTER_ATTRIBUTE@@@std@@@0@@Z
_TEXT	SEGMENT
__First$ = 8						; size = 4
__Last$ = 12						; size = 4
__Al$ = 16						; size = 4
??$_Destroy_range@U?$_Wrap_alloc@V?$allocator@UMONSTER_ATTRIBUTE@@@std@@@std@@@std@@YAXPAUMONSTER_ATTRIBUTE@@0AAU?$_Wrap_alloc@V?$allocator@UMONSTER_ATTRIBUTE@@@std@@@0@@Z PROC ; std::_Destroy_range<std::_Wrap_alloc<std::allocator<MONSTER_ATTRIBUTE> > >, COMDAT

; 186  : 	_Destroy_range(_First, _Last, _Al, _Ptr_cat(_First, _Last));
; 187  : 	}

  00000	c3		 ret	 0
??$_Destroy_range@U?$_Wrap_alloc@V?$allocator@UMONSTER_ATTRIBUTE@@@std@@@std@@@std@@YAXPAUMONSTER_ATTRIBUTE@@0AAU?$_Wrap_alloc@V?$allocator@UMONSTER_ATTRIBUTE@@@std@@@0@@Z ENDP ; std::_Destroy_range<std::_Wrap_alloc<std::allocator<MONSTER_ATTRIBUTE> > >
_TEXT	ENDS
; Function compile flags: /Ogtp
; File c:\program files (x86)\microsoft visual studio 14.0\vc\include\xutility
; File c:\program files (x86)\microsoft visual studio 14.0\vc\include\vector
; File c:\program files (x86)\microsoft visual studio 14.0\vc\include\xutility
; File c:\program files (x86)\microsoft visual studio 14.0\vc\include\vector
; File c:\program files (x86)\microsoft visual studio 14.0\vc\include\xutility
;	COMDAT ??$?0ABV?$allocator@UMONSTER_ATTRIBUTE@@@std@@$$V@?$_Compressed_pair@U?$_Wrap_alloc@V?$allocator@UMONSTER_ATTRIBUTE@@@std@@@std@@V?$_Vector_val@U?$_Simple_types@UMONSTER_ATTRIBUTE@@@std@@@2@$00@std@@QAE@U_One_then_variadic_args_t@1@ABV?$allocator@UMONSTER_ATTRIBUTE@@@1@@Z
_TEXT	SEGMENT
___formal$ = 8						; size = 1
__Val1$ = 12						; size = 4
??$?0ABV?$allocator@UMONSTER_ATTRIBUTE@@@std@@$$V@?$_Compressed_pair@U?$_Wrap_alloc@V?$allocator@UMONSTER_ATTRIBUTE@@@std@@@std@@V?$_Vector_val@U?$_Simple_types@UMONSTER_ATTRIBUTE@@@std@@@2@$00@std@@QAE@U_One_then_variadic_args_t@1@ABV?$allocator@UMONSTER_ATTRIBUTE@@@1@@Z PROC ; std::_Compressed_pair<std::_Wrap_alloc<std::allocator<MONSTER_ATTRIBUTE> >,std::_Vector_val<std::_Simple_types<MONSTER_ATTRIBUTE> >,1>::_Compressed_pair<std::_Wrap_alloc<std::allocator<MONSTER_ATTRIBUTE> >,std::_Vector_val<std::_Simple_types<MONSTER_ATTRIBUTE> >,1><std::allocator<MONSTER_ATTRIBUTE> const &>, COMDAT
; _this$ = ecx
; File c:\program files (x86)\microsoft visual studio 14.0\vc\include\vector

; 480  : 		_Myfirst = pointer();

  00000	c7 01 00 00 00
	00		 mov	 DWORD PTR [ecx], 0
; File c:\program files (x86)\microsoft visual studio 14.0\vc\include\xutility

; 289  : 		}

  00006	8b c1		 mov	 eax, ecx
; File c:\program files (x86)\microsoft visual studio 14.0\vc\include\vector

; 481  : 		_Mylast = pointer();

  00008	c7 41 04 00 00
	00 00		 mov	 DWORD PTR [ecx+4], 0

; 482  : 		_Myend = pointer();

  0000f	c7 41 08 00 00
	00 00		 mov	 DWORD PTR [ecx+8], 0
; File c:\program files (x86)\microsoft visual studio 14.0\vc\include\xutility

; 289  : 		}

  00016	c2 08 00	 ret	 8
??$?0ABV?$allocator@UMONSTER_ATTRIBUTE@@@std@@$$V@?$_Compressed_pair@U?$_Wrap_alloc@V?$allocator@UMONSTER_ATTRIBUTE@@@std@@@std@@V?$_Vector_val@U?$_Simple_types@UMONSTER_ATTRIBUTE@@@std@@@2@$00@std@@QAE@U_One_then_variadic_args_t@1@ABV?$allocator@UMONSTER_ATTRIBUTE@@@1@@Z ENDP ; std::_Compressed_pair<std::_Wrap_alloc<std::allocator<MONSTER_ATTRIBUTE> >,std::_Vector_val<std::_Simple_types<MONSTER_ATTRIBUTE> >,1>::_Compressed_pair<std::_Wrap_alloc<std::allocator<MONSTER_ATTRIBUTE> >,std::_Vector_val<std::_Simple_types<MONSTER_ATTRIBUTE> >,1><std::allocator<MONSTER_ATTRIBUTE> const &>
_TEXT	ENDS
; Function compile flags: /Ogtp
; File c:\program files (x86)\microsoft visual studio 14.0\vc\include\xmemory0
;	COMDAT ??$destroy@U?$pair@$$CBHPAUCUSTOM_MONSTER_ATTR@@@std@@@?$_Wrap_alloc@V?$allocator@U?$_Tree_node@U?$pair@$$CBHPAUCUSTOM_MONSTER_ATTR@@@std@@PAX@std@@@std@@@std@@QAEXPAU?$pair@$$CBHPAUCUSTOM_MONSTER_ATTR@@@1@@Z
_TEXT	SEGMENT
__Ptr$ = 8						; size = 4
??$destroy@U?$pair@$$CBHPAUCUSTOM_MONSTER_ATTR@@@std@@@?$_Wrap_alloc@V?$allocator@U?$_Tree_node@U?$pair@$$CBHPAUCUSTOM_MONSTER_ATTR@@@std@@PAX@std@@@std@@@std@@QAEXPAU?$pair@$$CBHPAUCUSTOM_MONSTER_ATTR@@@1@@Z PROC ; std::_Wrap_alloc<std::allocator<std::_Tree_node<std::pair<int const ,CUSTOM_MONSTER_ATTR *>,void *> > >::destroy<std::pair<int const ,CUSTOM_MONSTER_ATTR *> >, COMDAT
; _this$ = ecx

; 925  : 		_Mytraits::destroy(*this, _Ptr);
; 926  : 		}

  00000	c2 04 00	 ret	 4
??$destroy@U?$pair@$$CBHPAUCUSTOM_MONSTER_ATTR@@@std@@@?$_Wrap_alloc@V?$allocator@U?$_Tree_node@U?$pair@$$CBHPAUCUSTOM_MONSTER_ATTR@@@std@@PAX@std@@@std@@@std@@QAEXPAU?$pair@$$CBHPAUCUSTOM_MONSTER_ATTR@@@1@@Z ENDP ; std::_Wrap_alloc<std::allocator<std::_Tree_node<std::pair<int const ,CUSTOM_MONSTER_ATTR *>,void *> > >::destroy<std::pair<int const ,CUSTOM_MONSTER_ATTR *> >
_TEXT	ENDS
; Function compile flags: /Ogtp
; File c:\program files (x86)\microsoft visual studio 14.0\vc\include\xstddef
;	COMDAT ??$addressof@U?$pair@$$CBHPAUCUSTOM_MONSTER_ATTR@@@std@@@std@@YAPAU?$pair@$$CBHPAUCUSTOM_MONSTER_ATTR@@@0@AAU10@@Z
_TEXT	SEGMENT
__Val$ = 8						; size = 4
??$addressof@U?$pair@$$CBHPAUCUSTOM_MONSTER_ATTR@@@std@@@std@@YAPAU?$pair@$$CBHPAUCUSTOM_MONSTER_ATTR@@@0@AAU10@@Z PROC ; std::addressof<std::pair<int const ,CUSTOM_MONSTER_ATTR *> >, COMDAT

; 696  : 	{	// return address of _Val

  00000	55		 push	 ebp
  00001	8b ec		 mov	 ebp, esp

; 697  : 	return (_Addressof(_Val, is_function<_Ty>()));

  00003	8b 45 08	 mov	 eax, DWORD PTR __Val$[ebp]

; 698  : 	}

  00006	5d		 pop	 ebp
  00007	c3		 ret	 0
??$addressof@U?$pair@$$CBHPAUCUSTOM_MONSTER_ATTR@@@std@@@std@@YAPAU?$pair@$$CBHPAUCUSTOM_MONSTER_ATTR@@@0@AAU10@@Z ENDP ; std::addressof<std::pair<int const ,CUSTOM_MONSTER_ATTR *> >
_TEXT	ENDS
; Function compile flags: /Ogtp
; File c:\program files (x86)\microsoft visual studio 14.0\vc\include\xmemory0
;	COMDAT ??$construct@UMONSTER_ATTRIBUTE@@ABU1@@?$_Wrap_alloc@V?$allocator@UMONSTER_ATTRIBUTE@@@std@@@std@@QAEXPAUMONSTER_ATTRIBUTE@@ABU2@@Z
_TEXT	SEGMENT
__Ptr$ = 8						; size = 4
_<_Args_0>$ = 12					; size = 4
??$construct@UMONSTER_ATTRIBUTE@@ABU1@@?$_Wrap_alloc@V?$allocator@UMONSTER_ATTRIBUTE@@@std@@@std@@QAEXPAUMONSTER_ATTRIBUTE@@ABU2@@Z PROC ; std::_Wrap_alloc<std::allocator<MONSTER_ATTRIBUTE> >::construct<MONSTER_ATTRIBUTE,MONSTER_ATTRIBUTE const &>, COMDAT
; _this$ = ecx

; 916  : 		{	// construct _Ty(_Types...) at _Ptr

  00000	55		 push	 ebp
  00001	8b ec		 mov	 ebp, esp
  00003	57		 push	 edi

; 655  : 		::new ((void *)_Ptr) _Objty(_STD forward<_Types>(_Args)...);

  00004	8b 7d 08	 mov	 edi, DWORD PTR __Ptr$[ebp]
  00007	85 ff		 test	 edi, edi
  00009	74 0c		 je	 SHORT $LN13@construct
  0000b	56		 push	 esi
  0000c	8b 75 0c	 mov	 esi, DWORD PTR _<_Args_0>$[ebp]
  0000f	b9 2f 00 00 00	 mov	 ecx, 47			; 0000002fH
  00014	f3 a5		 rep movsd
  00016	5e		 pop	 esi
$LN13@construct:
  00017	5f		 pop	 edi

; 917  : 		_Mytraits::construct(*this, _Ptr,
; 918  : 			_STD forward<_Types>(_Args)...);
; 919  : 		}

  00018	5d		 pop	 ebp
  00019	c2 08 00	 ret	 8
??$construct@UMONSTER_ATTRIBUTE@@ABU1@@?$_Wrap_alloc@V?$allocator@UMONSTER_ATTRIBUTE@@@std@@@std@@QAEXPAUMONSTER_ATTRIBUTE@@ABU2@@Z ENDP ; std::_Wrap_alloc<std::allocator<MONSTER_ATTRIBUTE> >::construct<MONSTER_ATTRIBUTE,MONSTER_ATTRIBUTE const &>
_TEXT	ENDS
; Function compile flags: /Ogtp
; File c:\program files (x86)\microsoft visual studio 14.0\vc\include\xmemory0
;	COMDAT ??$construct@UMONSTER_ATTRIBUTE@@AAU1@@?$_Wrap_alloc@V?$allocator@UMONSTER_ATTRIBUTE@@@std@@@std@@QAEXPAUMONSTER_ATTRIBUTE@@AAU2@@Z
_TEXT	SEGMENT
__Ptr$ = 8						; size = 4
_<_Args_0>$ = 12					; size = 4
??$construct@UMONSTER_ATTRIBUTE@@AAU1@@?$_Wrap_alloc@V?$allocator@UMONSTER_ATTRIBUTE@@@std@@@std@@QAEXPAUMONSTER_ATTRIBUTE@@AAU2@@Z PROC ; std::_Wrap_alloc<std::allocator<MONSTER_ATTRIBUTE> >::construct<MONSTER_ATTRIBUTE,MONSTER_ATTRIBUTE &>, COMDAT
; _this$ = ecx

; 916  : 		{	// construct _Ty(_Types...) at _Ptr

  00000	55		 push	 ebp
  00001	8b ec		 mov	 ebp, esp
  00003	57		 push	 edi

; 655  : 		::new ((void *)_Ptr) _Objty(_STD forward<_Types>(_Args)...);

  00004	8b 7d 08	 mov	 edi, DWORD PTR __Ptr$[ebp]
  00007	85 ff		 test	 edi, edi
  00009	74 0c		 je	 SHORT $LN13@construct
  0000b	56		 push	 esi
  0000c	8b 75 0c	 mov	 esi, DWORD PTR _<_Args_0>$[ebp]
  0000f	b9 2f 00 00 00	 mov	 ecx, 47			; 0000002fH
  00014	f3 a5		 rep movsd
  00016	5e		 pop	 esi
$LN13@construct:
  00017	5f		 pop	 edi

; 917  : 		_Mytraits::construct(*this, _Ptr,
; 918  : 			_STD forward<_Types>(_Args)...);
; 919  : 		}

  00018	5d		 pop	 ebp
  00019	c2 08 00	 ret	 8
??$construct@UMONSTER_ATTRIBUTE@@AAU1@@?$_Wrap_alloc@V?$allocator@UMONSTER_ATTRIBUTE@@@std@@@std@@QAEXPAUMONSTER_ATTRIBUTE@@AAU2@@Z ENDP ; std::_Wrap_alloc<std::allocator<MONSTER_ATTRIBUTE> >::construct<MONSTER_ATTRIBUTE,MONSTER_ATTRIBUTE &>
_TEXT	ENDS
; Function compile flags: /Ogtp
; File c:\program files (x86)\microsoft visual studio 14.0\vc\include\xstddef
;	COMDAT ??$addressof@$$CBUMONSTER_ATTRIBUTE@@@std@@YAPBUMONSTER_ATTRIBUTE@@ABU1@@Z
_TEXT	SEGMENT
__Val$ = 8						; size = 4
??$addressof@$$CBUMONSTER_ATTRIBUTE@@@std@@YAPBUMONSTER_ATTRIBUTE@@ABU1@@Z PROC ; std::addressof<MONSTER_ATTRIBUTE const >, COMDAT

; 696  : 	{	// return address of _Val

  00000	55		 push	 ebp
  00001	8b ec		 mov	 ebp, esp

; 697  : 	return (_Addressof(_Val, is_function<_Ty>()));

  00003	8b 45 08	 mov	 eax, DWORD PTR __Val$[ebp]

; 698  : 	}

  00006	5d		 pop	 ebp
  00007	c3		 ret	 0
??$addressof@$$CBUMONSTER_ATTRIBUTE@@@std@@YAPBUMONSTER_ATTRIBUTE@@ABU1@@Z ENDP ; std::addressof<MONSTER_ATTRIBUTE const >
_TEXT	ENDS
; Function compile flags: /Ogtp
; File c:\program files (x86)\microsoft visual studio 14.0\vc\include\xmemory0
;	COMDAT ?pointer_to@?$pointer_traits@PAU?$pair@$$CBHPAUCUSTOM_MONSTER_ATTR@@@std@@@std@@SAPAU?$pair@$$CBHPAUCUSTOM_MONSTER_ATTR@@@2@AAU32@@Z
_TEXT	SEGMENT
__Val$ = 8						; size = 4
?pointer_to@?$pointer_traits@PAU?$pair@$$CBHPAUCUSTOM_MONSTER_ATTR@@@std@@@std@@SAPAU?$pair@$$CBHPAUCUSTOM_MONSTER_ATTR@@@2@AAU32@@Z PROC ; std::pointer_traits<std::pair<int const ,CUSTOM_MONSTER_ATTR *> *>::pointer_to, COMDAT

; 316  : 		{	// convert raw reference to pointer

  00000	55		 push	 ebp
  00001	8b ec		 mov	 ebp, esp

; 317  : 		return (_STD addressof(_Val));

  00003	8b 45 08	 mov	 eax, DWORD PTR __Val$[ebp]

; 318  : 		}

  00006	5d		 pop	 ebp
  00007	c3		 ret	 0
?pointer_to@?$pointer_traits@PAU?$pair@$$CBHPAUCUSTOM_MONSTER_ATTR@@@std@@@std@@SAPAU?$pair@$$CBHPAUCUSTOM_MONSTER_ATTR@@@2@AAU32@@Z ENDP ; std::pointer_traits<std::pair<int const ,CUSTOM_MONSTER_ATTR *> *>::pointer_to
_TEXT	ENDS
; Function compile flags: /Ogtp
; File c:\program files (x86)\microsoft visual studio 14.0\vc\include\xtree
;	COMDAT ??$insert@U?$pair@HPAUCUSTOM_MONSTER_ATTR@@@std@@@?$_Tree@V?$_Tmap_traits@HPAUCUSTOM_MONSTER_ATTR@@U?$less@H@std@@V?$allocator@U?$pair@$$CBHPAUCUSTOM_MONSTER_ATTR@@@std@@@3@$0A@@std@@@std@@QAE?AU?$pair@V?$_Tree_iterator@V?$_Tree_val@U?$_Tree_simple_types@U?$pair@$$CBHPAUCUSTOM_MONSTER_ATTR@@@std@@@std@@@std@@@std@@_N@1@$$QAU?$pair@HPAUCUSTOM_MONSTER_ATTR@@@1@@Z
_TEXT	SEGMENT
___$ReturnUdt$ = 8					; size = 4
__Val$ = 12						; size = 4
??$insert@U?$pair@HPAUCUSTOM_MONSTER_ATTR@@@std@@@?$_Tree@V?$_Tmap_traits@HPAUCUSTOM_MONSTER_ATTR@@U?$less@H@std@@V?$allocator@U?$pair@$$CBHPAUCUSTOM_MONSTER_ATTR@@@std@@@3@$0A@@std@@@std@@QAE?AU?$pair@V?$_Tree_iterator@V?$_Tree_val@U?$_Tree_simple_types@U?$pair@$$CBHPAUCUSTOM_MONSTER_ATTR@@@std@@@std@@@std@@@std@@_N@1@$$QAU?$pair@HPAUCUSTOM_MONSTER_ATTR@@@1@@Z PROC ; std::_Tree<std::_Tmap_traits<int,CUSTOM_MONSTER_ATTR *,std::less<int>,std::allocator<std::pair<int const ,CUSTOM_MONSTER_ATTR *> >,0> >::insert<std::pair<int,CUSTOM_MONSTER_ATTR *> >, COMDAT
; _this$ = ecx

; 1092 : 		{	// try to insert node with value _Val, favoring right side

  00000	55		 push	 ebp
  00001	8b ec		 mov	 ebp, esp
  00003	57		 push	 edi

; 1093 : 		_Nodeptr _Newnode = this->_Buynode(_STD forward<_Valty>(_Val));

  00004	ff 75 0c	 push	 DWORD PTR __Val$[ebp]
  00007	8b f9		 mov	 edi, ecx
  00009	e8 00 00 00 00	 call	 ??$_Buynode@U?$pair@HPAUCUSTOM_MONSTER_ATTR@@@std@@@?$_Tree_comp_alloc@V?$_Tmap_traits@HPAUCUSTOM_MONSTER_ATTR@@U?$less@H@std@@V?$allocator@U?$pair@$$CBHPAUCUSTOM_MONSTER_ATTR@@@std@@@3@$0A@@std@@@std@@QAEPAU?$_Tree_node@U?$pair@$$CBHPAUCUSTOM_MONSTER_ATTR@@@std@@PAX@1@$$QAU?$pair@HPAUCUSTOM_MONSTER_ATTR@@@1@@Z ; std::_Tree_comp_alloc<std::_Tmap_traits<int,CUSTOM_MONSTER_ATTR *,std::less<int>,std::allocator<std::pair<int const ,CUSTOM_MONSTER_ATTR *> >,0> >::_Buynode<std::pair<int,CUSTOM_MONSTER_ATTR *> >

; 1094 : 		return (_Insert_nohint(false,

  0000e	50		 push	 eax

; 602  : 		return ((reference)_Pnode->_Myval);

  0000f	83 c0 10	 add	 eax, 16			; 00000010H

; 1094 : 		return (_Insert_nohint(false,

  00012	8b cf		 mov	 ecx, edi
  00014	50		 push	 eax
  00015	6a 00		 push	 0
  00017	ff 75 08	 push	 DWORD PTR ___$ReturnUdt$[ebp]
  0001a	e8 00 00 00 00	 call	 ??$_Insert_nohint@AAU?$pair@$$CBHPAUCUSTOM_MONSTER_ATTR@@@std@@PAU?$_Tree_node@U?$pair@$$CBHPAUCUSTOM_MONSTER_ATTR@@@std@@PAX@2@@?$_Tree@V?$_Tmap_traits@HPAUCUSTOM_MONSTER_ATTR@@U?$less@H@std@@V?$allocator@U?$pair@$$CBHPAUCUSTOM_MONSTER_ATTR@@@std@@@3@$0A@@std@@@std@@IAE?AU?$pair@V?$_Tree_iterator@V?$_Tree_val@U?$_Tree_simple_types@U?$pair@$$CBHPAUCUSTOM_MONSTER_ATTR@@@std@@@std@@@std@@@std@@_N@1@_NAAU?$pair@$$CBHPAUCUSTOM_MONSTER_ATTR@@@1@PAU?$_Tree_node@U?$pair@$$CBHPAUCUSTOM_MONSTER_ATTR@@@std@@PAX@1@@Z ; std::_Tree<std::_Tmap_traits<int,CUSTOM_MONSTER_ATTR *,std::less<int>,std::allocator<std::pair<int const ,CUSTOM_MONSTER_ATTR *> >,0> >::_Insert_nohint<std::pair<int const ,CUSTOM_MONSTER_ATTR *> &,std::_Tree_node<std::pair<int const ,CUSTOM_MONSTER_ATTR *>,void *> *>
  0001f	8b 45 08	 mov	 eax, DWORD PTR ___$ReturnUdt$[ebp]
  00022	5f		 pop	 edi

; 1095 : 			this->_Myval(_Newnode), _Newnode));
; 1096 : 		}

  00023	5d		 pop	 ebp
  00024	c2 08 00	 ret	 8
??$insert@U?$pair@HPAUCUSTOM_MONSTER_ATTR@@@std@@@?$_Tree@V?$_Tmap_traits@HPAUCUSTOM_MONSTER_ATTR@@U?$less@H@std@@V?$allocator@U?$pair@$$CBHPAUCUSTOM_MONSTER_ATTR@@@std@@@3@$0A@@std@@@std@@QAE?AU?$pair@V?$_Tree_iterator@V?$_Tree_val@U?$_Tree_simple_types@U?$pair@$$CBHPAUCUSTOM_MONSTER_ATTR@@@std@@@std@@@std@@@std@@_N@1@$$QAU?$pair@HPAUCUSTOM_MONSTER_ATTR@@@1@@Z ENDP ; std::_Tree<std::_Tmap_traits<int,CUSTOM_MONSTER_ATTR *,std::less<int>,std::allocator<std::pair<int const ,CUSTOM_MONSTER_ATTR *> >,0> >::insert<std::pair<int,CUSTOM_MONSTER_ATTR *> >
_TEXT	ENDS
; Function compile flags: /Ogtp
; File c:\program files (x86)\microsoft visual studio 14.0\vc\include\utility
;	COMDAT ??$?0HPAUCUSTOM_MONSTER_ATTR@@X@?$pair@$$CBHPAUCUSTOM_MONSTER_ATTR@@@std@@QAE@$$QAU?$pair@HPAUCUSTOM_MONSTER_ATTR@@@1@@Z
_TEXT	SEGMENT
__Right$ = 8						; size = 4
??$?0HPAUCUSTOM_MONSTER_ATTR@@X@?$pair@$$CBHPAUCUSTOM_MONSTER_ATTR@@@std@@QAE@$$QAU?$pair@HPAUCUSTOM_MONSTER_ATTR@@@1@@Z PROC ; std::pair<int const ,CUSTOM_MONSTER_ATTR *>::pair<int const ,CUSTOM_MONSTER_ATTR *><int,CUSTOM_MONSTER_ATTR *,void>, COMDAT
; _this$ = ecx

; 158  : 		{	// construct from moved compatible pair

  00000	55		 push	 ebp
  00001	8b ec		 mov	 ebp, esp

; 156  : 		: first(_STD forward<_Other1>(_Right.first)),

  00003	8b 55 08	 mov	 edx, DWORD PTR __Right$[ebp]
  00006	8b 02		 mov	 eax, DWORD PTR [edx]
  00008	89 01		 mov	 DWORD PTR [ecx], eax

; 157  : 			second(_STD forward<_Other2>(_Right.second))

  0000a	8b 42 04	 mov	 eax, DWORD PTR [edx+4]
  0000d	89 41 04	 mov	 DWORD PTR [ecx+4], eax

; 159  : 		}

  00010	8b c1		 mov	 eax, ecx
  00012	5d		 pop	 ebp
  00013	c2 04 00	 ret	 4
??$?0HPAUCUSTOM_MONSTER_ATTR@@X@?$pair@$$CBHPAUCUSTOM_MONSTER_ATTR@@@std@@QAE@$$QAU?$pair@HPAUCUSTOM_MONSTER_ATTR@@@1@@Z ENDP ; std::pair<int const ,CUSTOM_MONSTER_ATTR *>::pair<int const ,CUSTOM_MONSTER_ATTR *><int,CUSTOM_MONSTER_ATTR *,void>
_TEXT	ENDS
; Function compile flags: /Ogtp
; File c:\program files (x86)\microsoft visual studio 14.0\vc\include\utility
;	COMDAT ??$?0AAHAAPAUCUSTOM_MONSTER_ATTR@@X@?$pair@HPAUCUSTOM_MONSTER_ATTR@@@std@@QAE@AAHAAPAUCUSTOM_MONSTER_ATTR@@@Z
_TEXT	SEGMENT
__Val1$ = 8						; size = 4
__Val2$ = 12						; size = 4
??$?0AAHAAPAUCUSTOM_MONSTER_ATTR@@X@?$pair@HPAUCUSTOM_MONSTER_ATTR@@@std@@QAE@AAHAAPAUCUSTOM_MONSTER_ATTR@@@Z PROC ; std::pair<int,CUSTOM_MONSTER_ATTR *>::pair<int,CUSTOM_MONSTER_ATTR *><int &,CUSTOM_MONSTER_ATTR * &,void>, COMDAT
; _this$ = ecx

; 145  : 		{	// construct from moved values

  00000	55		 push	 ebp
  00001	8b ec		 mov	 ebp, esp

; 143  : 		: first(_STD forward<_Other1>(_Val1)),

  00003	8b 45 08	 mov	 eax, DWORD PTR __Val1$[ebp]
  00006	8b 00		 mov	 eax, DWORD PTR [eax]
  00008	89 01		 mov	 DWORD PTR [ecx], eax

; 144  : 				second(_STD forward<_Other2>(_Val2))

  0000a	8b 45 0c	 mov	 eax, DWORD PTR __Val2$[ebp]
  0000d	8b 00		 mov	 eax, DWORD PTR [eax]
  0000f	89 41 04	 mov	 DWORD PTR [ecx+4], eax

; 146  : 		}

  00012	8b c1		 mov	 eax, ecx
  00014	5d		 pop	 ebp
  00015	c2 08 00	 ret	 8
??$?0AAHAAPAUCUSTOM_MONSTER_ATTR@@X@?$pair@HPAUCUSTOM_MONSTER_ATTR@@@std@@QAE@AAHAAPAUCUSTOM_MONSTER_ATTR@@@Z ENDP ; std::pair<int,CUSTOM_MONSTER_ATTR *>::pair<int,CUSTOM_MONSTER_ATTR *><int &,CUSTOM_MONSTER_ATTR * &,void>
_TEXT	ENDS
; Function compile flags: /Ogtp
; File c:\program files (x86)\microsoft visual studio 14.0\vc\include\xtree
;	COMDAT ??F?$_Tree_iterator@V?$_Tree_val@U?$_Tree_simple_types@U?$pair@$$CBHPAUCUSTOM_MONSTER_ATTR@@@std@@@std@@@std@@@std@@QAEAAV01@XZ
_TEXT	SEGMENT
