; Listing generated by Microsoft (R) Optimizing Compiler Version 19.00.23506.0 

	TITLE	C:\Users\Michel\Desktop\Source\GameServer\Source\MultiWareHouseSystem.cpp
	.686P
	.XMM
	include listing.inc
	.model	flat

INCLUDELIB LIBCMT
INCLUDELIB OLDNAMES

PUBLIC	?__empty_global_delete@@YAXPAX@Z		; __empty_global_delete
PUBLIC	?__empty_global_delete@@YAXPAXI@Z		; __empty_global_delete
PUBLIC	??1OBJECTSTRUCT@@QAE@XZ				; OBJECTSTRUCT::~OBJECTSTRUCT
PUBLIC	??_EOBJECTSTRUCT@@QAEPAXI@Z			; OBJECTSTRUCT::`vector deleting destructor'
PUBLIC	??0WareHouseSYSTEM@@QAE@XZ			; WareHouseSYSTEM::WareHouseSYSTEM
PUBLIC	??1WareHouseSYSTEM@@QAE@XZ			; WareHouseSYSTEM::~WareHouseSYSTEM
PUBLIC	?DBSendVaultResult@WareHouseSYSTEM@@QAEXPAUPMSG_VAULT_RESULT@@@Z ; WareHouseSYSTEM::DBSendVaultResult
PUBLIC	?DBSendVaultInfo@WareHouseSYSTEM@@QAEXHPADE@Z	; WareHouseSYSTEM::DBSendVaultInfo
PUBLIC	?gWareHouseSYSTEM@@3VWareHouseSYSTEM@@A		; gWareHouseSYSTEM
PUBLIC	??_C@_0CD@EPEBFCJH@Requested?5to?5Change?5Warehouse?5?3?5@ ; `string'
PUBLIC	??_C@_0BL@EAKGOGAH@Warehouse?5has?5been?5changed?$AA@ ; `string'
EXTRN	??_M@YGXPAXIIP6EX0@Z@Z:PROC			; `eh vector destructor iterator'
EXTRN	??3@YAXPAXI@Z:PROC				; operator delete
EXTRN	??_V@YAXPAXI@Z:PROC				; operator delete[]
EXTRN	_atexit:PROC
EXTRN	??1CSkillDelay@@UAE@XZ:PROC			; CSkillDelay::~CSkillDelay
EXTRN	??1TMonsterAIAgro@@UAE@XZ:PROC			; TMonsterAIAgro::~TMonsterAIAgro
EXTRN	?GCServerMsgStringSend@@YAXPADHE@Z:PROC		; GCServerMsgStringSend
EXTRN	?PHeadSubSetB@@YAXPAEEEH@Z:PROC			; PHeadSubSetB
EXTRN	?Send@DBSockMng@@QAEHPADH@Z:PROC		; DBSockMng::Send
EXTRN	@__security_check_cookie@4:PROC
EXTRN	___CxxFrameHandler3:PROC
EXTRN	?LogAddTD@@3P6AXPADZZA:DWORD			; LogAddTD
EXTRN	?gObj@@3PAUOBJECTSTRUCT@@A:DWORD		; gObj
EXTRN	?cDBSMng@@3VDBSockMng@@A:BYTE			; cDBSMng
EXTRN	___security_cookie:DWORD
_BSS	SEGMENT
?gWareHouseSYSTEM@@3VWareHouseSYSTEM@@A DB 01H DUP (?)	; gWareHouseSYSTEM
_BSS	ENDS
CRT$XCU	SEGMENT
?gWareHouseSYSTEM$initializer$@@3P6AXXZA DD FLAT:??__EgWareHouseSYSTEM@@YAXXZ ; gWareHouseSYSTEM$initializer$
CRT$XCU	ENDS
;	COMDAT ??_C@_0BL@EAKGOGAH@Warehouse?5has?5been?5changed?$AA@
CONST	SEGMENT
??_C@_0BL@EAKGOGAH@Warehouse?5has?5been?5changed?$AA@ DB 'Warehouse has b'
	DB	'een changed', 00H				; `string'
CONST	ENDS
;	COMDAT ??_C@_0CD@EPEBFCJH@Requested?5to?5Change?5Warehouse?5?3?5@
CONST	SEGMENT
??_C@_0CD@EPEBFCJH@Requested?5to?5Change?5Warehouse?5?3?5@ DB 'Requested '
	DB	'to Change Warehouse : %s', 00H		; `string'
CONST	ENDS
;	COMDAT xdata$x
xdata$x	SEGMENT
__ehfuncinfo$??_EOBJECTSTRUCT@@QAEPAXI@Z DD 019930522H
	DD	00H
	DD	00H
	DD	2 DUP(00H)
	DD	2 DUP(00H)
	DD	00H
	DD	05H
xdata$x	ENDS
; Function compile flags: /Ogtp
;	COMDAT ??__FgWareHouseSYSTEM@@YAXXZ
text$yd	SEGMENT
??__FgWareHouseSYSTEM@@YAXXZ PROC			; `dynamic atexit destructor for 'gWareHouseSYSTEM'', COMDAT
  00000	b9 00 00 00 00	 mov	 ecx, OFFSET ?gWareHouseSYSTEM@@3VWareHouseSYSTEM@@A ; gWareHouseSYSTEM
  00005	e9 00 00 00 00	 jmp	 ??1WareHouseSYSTEM@@QAE@XZ ; WareHouseSYSTEM::~WareHouseSYSTEM
??__FgWareHouseSYSTEM@@YAXXZ ENDP			; `dynamic atexit destructor for 'gWareHouseSYSTEM''
text$yd	ENDS
; Function compile flags: /Ogtp
; File c:\users\michel\desktop\source\gameserver\source\multiwarehousesystem.cpp
;	COMDAT ??__EgWareHouseSYSTEM@@YAXXZ
text$di	SEGMENT
??__EgWareHouseSYSTEM@@YAXXZ PROC			; `dynamic initializer for 'gWareHouseSYSTEM'', COMDAT

; 6    : WareHouseSYSTEM		gWareHouseSYSTEM;

  00000	b9 00 00 00 00	 mov	 ecx, OFFSET ?gWareHouseSYSTEM@@3VWareHouseSYSTEM@@A ; gWareHouseSYSTEM
  00005	e8 00 00 00 00	 call	 ??0WareHouseSYSTEM@@QAE@XZ ; WareHouseSYSTEM::WareHouseSYSTEM
  0000a	68 00 00 00 00	 push	 OFFSET ??__FgWareHouseSYSTEM@@YAXXZ ; `dynamic atexit destructor for 'gWareHouseSYSTEM''
  0000f	e8 00 00 00 00	 call	 _atexit
  00014	59		 pop	 ecx
  00015	c3		 ret	 0
??__EgWareHouseSYSTEM@@YAXXZ ENDP			; `dynamic initializer for 'gWareHouseSYSTEM''
text$di	ENDS
; Function compile flags: /Ogtp
; File c:\users\michel\desktop\source\gameserver\source\multiwarehousesystem.cpp
;	COMDAT ?DBSendVaultInfo@WareHouseSYSTEM@@QAEXHPADE@Z
_TEXT	SEGMENT
_pMsg$ = -24						; size = 20
__$ArrayPad$ = -4					; size = 4
_aIndex$ = 8						; size = 4
_AccountID$ = 12					; size = 4
_VaultID$ = 16						; size = 1
?DBSendVaultInfo@WareHouseSYSTEM@@QAEXHPADE@Z PROC	; WareHouseSYSTEM::DBSendVaultInfo, COMDAT
; _this$ = ecx

; 41   : {

  00000	55		 push	 ebp
  00001	8b ec		 mov	 ebp, esp
  00003	83 ec 18	 sub	 esp, 24			; 00000018H
  00006	a1 00 00 00 00	 mov	 eax, DWORD PTR ___security_cookie
  0000b	33 c5		 xor	 eax, ebp
  0000d	89 45 fc	 mov	 DWORD PTR __$ArrayPad$[ebp], eax
  00010	56		 push	 esi
  00011	8b 75 0c	 mov	 esi, DWORD PTR _AccountID$[ebp]

; 42   : 	PMSG_VAULT_INFO pMsg = { 0 };
; 43   : 
; 44   : 	PHeadSubSetB((LPBYTE)&pMsg, 0xFD, 0x04, sizeof(pMsg));

  00014	8d 45 e8	 lea	 eax, DWORD PTR _pMsg$[ebp]
  00017	6a 14		 push	 20			; 00000014H
  00019	6a 04		 push	 4
  0001b	0f 57 c0	 xorps	 xmm0, xmm0
  0001e	c6 45 e8 00	 mov	 BYTE PTR _pMsg$[ebp], 0
  00022	68 fd 00 00 00	 push	 253			; 000000fdH
  00027	50		 push	 eax
  00028	0f 11 45 e9	 movups	 XMMWORD PTR _pMsg$[ebp+1], xmm0
  0002c	66 c7 45 f9 00
	00		 mov	 WORD PTR _pMsg$[ebp+17], 0
  00032	c6 45 fb 00	 mov	 BYTE PTR _pMsg$[ebp+19], 0
  00036	e8 00 00 00 00	 call	 ?PHeadSubSetB@@YAXPAEEEH@Z ; PHeadSubSetB

; 45   : 
; 46   : 	pMsg.aIndex = aIndex;

  0003b	8b 45 08	 mov	 eax, DWORD PTR _aIndex$[ebp]
  0003e	83 c4 10	 add	 esp, 16			; 00000010H

; 47   : 	memcpy(pMsg.chAccountID, AccountID, 10);

  00041	f3 0f 7e 06	 movq	 xmm0, QWORD PTR [esi]

; 48   : 	pMsg.chAccountID[10] = '\0';
; 49   : 
; 50   : 	pMsg.VaultID = VaultID;
; 51   : 
; 52   : 	cDBSMng.Send((PCHAR)&pMsg, sizeof(pMsg));

  00045	b9 00 00 00 00	 mov	 ecx, OFFSET ?cDBSMng@@3VDBSockMng@@A ; cDBSMng
  0004a	89 45 ec	 mov	 DWORD PTR _pMsg$[ebp+4], eax
  0004d	66 8b 46 08	 mov	 ax, WORD PTR [esi+8]
  00051	66 89 45 f8	 mov	 WORD PTR _pMsg$[ebp+16], ax
  00055	8a 45 10	 mov	 al, BYTE PTR _VaultID$[ebp]
  00058	88 45 fb	 mov	 BYTE PTR _pMsg$[ebp+19], al
  0005b	8d 45 e8	 lea	 eax, DWORD PTR _pMsg$[ebp]
  0005e	6a 14		 push	 20			; 00000014H
  00060	50		 push	 eax
  00061	66 0f d6 45 f0	 movq	 QWORD PTR _pMsg$[ebp+8], xmm0
  00066	c6 45 fa 00	 mov	 BYTE PTR _pMsg$[ebp+18], 0
  0006a	e8 00 00 00 00	 call	 ?Send@DBSockMng@@QAEHPADH@Z ; DBSockMng::Send

; 53   : 	LogAddTD("Requested to Change Warehouse : %s", pMsg.chAccountID);

  0006f	8d 45 f0	 lea	 eax, DWORD PTR _pMsg$[ebp+8]
  00072	50		 push	 eax
  00073	68 00 00 00 00	 push	 OFFSET ??_C@_0CD@EPEBFCJH@Requested?5to?5Change?5Warehouse?5?3?5@
  00078	ff 15 00 00 00
	00		 call	 DWORD PTR ?LogAddTD@@3P6AXPADZZA ; LogAddTD

; 54   : }

  0007e	8b 4d fc	 mov	 ecx, DWORD PTR __$ArrayPad$[ebp]
  00081	83 c4 08	 add	 esp, 8
  00084	33 cd		 xor	 ecx, ebp
  00086	5e		 pop	 esi
  00087	e8 00 00 00 00	 call	 @__security_check_cookie@4
  0008c	8b e5		 mov	 esp, ebp
  0008e	5d		 pop	 ebp
  0008f	c2 0c 00	 ret	 12			; 0000000cH
?DBSendVaultInfo@WareHouseSYSTEM@@QAEXHPADE@Z ENDP	; WareHouseSYSTEM::DBSendVaultInfo
_TEXT	ENDS
; Function compile flags: /Ogtp
; File c:\users\michel\desktop\source\gameserver\source\multiwarehousesystem.cpp
;	COMDAT ?DBSendVaultResult@WareHouseSYSTEM@@QAEXPAUPMSG_VAULT_RESULT@@@Z
_TEXT	SEGMENT
_lpMsg$ = 8						; size = 4
?DBSendVaultResult@WareHouseSYSTEM@@QAEXPAUPMSG_VAULT_RESULT@@@Z PROC ; WareHouseSYSTEM::DBSendVaultResult, COMDAT
; _this$ = ecx

; 57   : {

  00000	55		 push	 ebp
  00001	8b ec		 mov	 ebp, esp

; 58   : 	LPOBJ lpObj = &gObj[lpMsg->aIndex];

  00003	8b 45 08	 mov	 eax, DWORD PTR _lpMsg$[ebp]

; 59   : 
; 60   : 	lpObj->RecvSendWare = lpMsg->Result;
; 61   : 
; 62   : 	GCServerMsgStringSend("Warehouse has been changed", lpObj->m_Index, 1);

  00006	6a 01		 push	 1
  00008	69 48 04 40 27
	00 00		 imul	 ecx, DWORD PTR [eax+4], 10048
  0000f	8a 40 08	 mov	 al, BYTE PTR [eax+8]
  00012	03 0d 00 00 00
	00		 add	 ecx, DWORD PTR ?gObj@@3PAUOBJECTSTRUCT@@A ; gObj
  00018	ff 31		 push	 DWORD PTR [ecx]
  0001a	88 81 1c 27 00
	00		 mov	 BYTE PTR [ecx+10012], al
  00020	68 00 00 00 00	 push	 OFFSET ??_C@_0BL@EAKGOGAH@Warehouse?5has?5been?5changed?$AA@
  00025	e8 00 00 00 00	 call	 ?GCServerMsgStringSend@@YAXPADHE@Z ; GCServerMsgStringSend
  0002a	83 c4 0c	 add	 esp, 12			; 0000000cH

; 63   : }

  0002d	5d		 pop	 ebp
  0002e	c2 04 00	 ret	 4
?DBSendVaultResult@WareHouseSYSTEM@@QAEXPAUPMSG_VAULT_RESULT@@@Z ENDP ; WareHouseSYSTEM::DBSendVaultResult
_TEXT	ENDS
; Function compile flags: /Ogtp
; File c:\users\michel\desktop\source\gameserver\source\multiwarehousesystem.cpp
;	COMDAT ??1WareHouseSYSTEM@@QAE@XZ
_TEXT	SEGMENT
??1WareHouseSYSTEM@@QAE@XZ PROC				; WareHouseSYSTEM::~WareHouseSYSTEM, COMDAT
; _this$ = ecx

; 15   : 
; 16   : }

  00000	c3		 ret	 0
??1WareHouseSYSTEM@@QAE@XZ ENDP				; WareHouseSYSTEM::~WareHouseSYSTEM
_TEXT	ENDS
; Function compile flags: /Ogtp
; File c:\users\michel\desktop\source\gameserver\source\multiwarehousesystem.cpp
;	COMDAT ??0WareHouseSYSTEM@@QAE@XZ
_TEXT	SEGMENT
??0WareHouseSYSTEM@@QAE@XZ PROC				; WareHouseSYSTEM::WareHouseSYSTEM, COMDAT
; _this$ = ecx

; 10   : 
; 11   : }

  00000	8b c1		 mov	 eax, ecx
  00002	c3		 ret	 0
??0WareHouseSYSTEM@@QAE@XZ ENDP				; WareHouseSYSTEM::WareHouseSYSTEM
_TEXT	ENDS
; Function compile flags: /Ogtp
;	COMDAT ??_EOBJECTSTRUCT@@QAEPAXI@Z
_TEXT	SEGMENT
__$EHRec$ = -12						; size = 12
___flags$ = 8						; size = 4
??_EOBJECTSTRUCT@@QAEPAXI@Z PROC			; OBJECTSTRUCT::`vector deleting destructor', COMDAT
; _this$ = ecx
  00000	55		 push	 ebp
  00001	8b ec		 mov	 ebp, esp
  00003	6a ff		 push	 -1
  00005	68 00 00 00 00	 push	 __ehhandler$??_EOBJECTSTRUCT@@QAEPAXI@Z
  0000a	64 a1 00 00 00
	00		 mov	 eax, DWORD PTR fs:0
  00010	50		 push	 eax
  00011	53		 push	 ebx
  00012	56		 push	 esi
  00013	57		 push	 edi
  00014	a1 00 00 00 00	 mov	 eax, DWORD PTR ___security_cookie
  00019	33 c5		 xor	 eax, ebp
  0001b	50		 push	 eax
  0001c	8d 45 f4	 lea	 eax, DWORD PTR __$EHRec$[ebp]
  0001f	64 a3 00 00 00
	00		 mov	 DWORD PTR fs:0, eax
  00025	8b f1		 mov	 esi, ecx
  00027	8b 5d 08	 mov	 ebx, DWORD PTR ___flags$[ebp]
  0002a	f6 c3 02	 test	 bl, 2
  0002d	74 44		 je	 SHORT $LN2@vector
  0002f	68 00 00 00 00	 push	 OFFSET ??1OBJECTSTRUCT@@QAE@XZ
  00034	ff 76 fc	 push	 DWORD PTR [esi-4]
  00037	8d 7e fc	 lea	 edi, DWORD PTR [esi-4]
  0003a	68 40 27 00 00	 push	 10048			; 00002740H
  0003f	56		 push	 esi
  00040	e8 00 00 00 00	 call	 ??_M@YGXPAXIIP6EX0@Z@Z
  00045	f6 c3 01	 test	 bl, 1
  00048	74 13		 je	 SHORT $LN3@vector
  0004a	69 0f 40 27 00
	00		 imul	 ecx, DWORD PTR [edi], 10048
  00050	83 c1 04	 add	 ecx, 4
  00053	51		 push	 ecx
  00054	57		 push	 edi
  00055	e8 00 00 00 00	 call	 ??_V@YAXPAXI@Z		; operator delete[]
  0005a	83 c4 08	 add	 esp, 8
$LN3@vector:
  0005d	8b c7		 mov	 eax, edi
  0005f	8b 4d f4	 mov	 ecx, DWORD PTR __$EHRec$[ebp]
  00062	64 89 0d 00 00
	00 00		 mov	 DWORD PTR fs:0, ecx
  00069	59		 pop	 ecx
  0006a	5f		 pop	 edi
  0006b	5e		 pop	 esi
  0006c	5b		 pop	 ebx
  0006d	8b e5		 mov	 esp, ebp
  0006f	5d		 pop	 ebp
  00070	c2 04 00	 ret	 4
$LN2@vector:
  00073	8d 8e ec 20 00
	00		 lea	 ecx, DWORD PTR [esi+8428]
  00079	e8 00 00 00 00	 call	 ??1TMonsterAIAgro@@UAE@XZ ; TMonsterAIAgro::~TMonsterAIAgro
  0007e	8d 8e 0c 16 00
	00		 lea	 ecx, DWORD PTR [esi+5644]
  00084	e8 00 00 00 00	 call	 ??1CSkillDelay@@UAE@XZ	; CSkillDelay::~CSkillDelay
  00089	f6 c3 01	 test	 bl, 1
  0008c	74 0e		 je	 SHORT $LN4@vector
  0008e	68 40 27 00 00	 push	 10048			; 00002740H
  00093	56		 push	 esi
  00094	e8 00 00 00 00	 call	 ??3@YAXPAXI@Z		; operator delete
  00099	83 c4 08	 add	 esp, 8
$LN4@vector:
  0009c	8b c6		 mov	 eax, esi
  0009e	8b 4d f4	 mov	 ecx, DWORD PTR __$EHRec$[ebp]
  000a1	64 89 0d 00 00
	00 00		 mov	 DWORD PTR fs:0, ecx
  000a8	59		 pop	 ecx
  000a9	5f		 pop	 edi
  000aa	5e		 pop	 esi
  000ab	5b		 pop	 ebx
  000ac	8b e5		 mov	 esp, ebp
  000ae	5d		 pop	 ebp
  000af	c2 04 00	 ret	 4
_TEXT	ENDS
;	COMDAT text$x
text$x	SEGMENT
__ehhandler$??_EOBJECTSTRUCT@@QAEPAXI@Z:
  00000	8b 54 24 08	 mov	 edx, DWORD PTR [esp+8]
  00004	8d 42 0c	 lea	 eax, DWORD PTR [edx+12]
  00007	8b 4a f0	 mov	 ecx, DWORD PTR [edx-16]
  0000a	33 c8		 xor	 ecx, eax
  0000c	e8 00 00 00 00	 call	 @__security_check_cookie@4
  00011	b8 00 00 00 00	 mov	 eax, OFFSET __ehfuncinfo$??_EOBJECTSTRUCT@@QAEPAXI@Z
  00016	e9 00 00 00 00	 jmp	 ___CxxFrameHandler3
text$x	ENDS
??_EOBJECTSTRUCT@@QAEPAXI@Z ENDP			; OBJECTSTRUCT::`vector deleting destructor'
; Function compile flags: /Ogtp
;	COMDAT ??1OBJECTSTRUCT@@QAE@XZ
_TEXT	SEGMENT
??1OBJECTSTRUCT@@QAE@XZ PROC				; OBJECTSTRUCT::~OBJECTSTRUCT, COMDAT
; _this$ = ecx
  00000	56		 push	 esi
  00001	8b f1		 mov	 esi, ecx
  00003	8d 8e ec 20 00
	00		 lea	 ecx, DWORD PTR [esi+8428]
  00009	e8 00 00 00 00	 call	 ??1TMonsterAIAgro@@UAE@XZ ; TMonsterAIAgro::~TMonsterAIAgro
  0000e	8d 8e 0c 16 00
	00		 lea	 ecx, DWORD PTR [esi+5644]
  00014	5e		 pop	 esi
  00015	e9 00 00 00 00	 jmp	 ??1CSkillDelay@@UAE@XZ	; CSkillDelay::~CSkillDelay
??1OBJECTSTRUCT@@QAE@XZ ENDP				; OBJECTSTRUCT::~OBJECTSTRUCT
_TEXT	ENDS
; Function compile flags: /Ogtp
; File c:\users\michel\desktop\source\gameserver\source\multiwarehousesystem.cpp
;	COMDAT ?__empty_global_delete@@YAXPAXI@Z
_TEXT	SEGMENT
___formal$ = 8						; size = 4
___formal$ = 12						; size = 4
?__empty_global_delete@@YAXPAXI@Z PROC			; __empty_global_delete, COMDAT

; 64   : }

  00000	c3		 ret	 0
?__empty_global_delete@@YAXPAXI@Z ENDP			; __empty_global_delete
_TEXT	ENDS
; Function compile flags: /Ogtp
; File c:\users\michel\desktop\source\gameserver\source\multiwarehousesystem.cpp
;	COMDAT ?__empty_global_delete@@YAXPAX@Z
_TEXT	SEGMENT
___formal$ = 8						; size = 4
?__empty_global_delete@@YAXPAX@Z PROC			; __empty_global_delete, COMDAT

; 64   : }

  00000	c3		 ret	 0
?__empty_global_delete@@YAXPAX@Z ENDP			; __empty_global_delete
_TEXT	ENDS
END
