; Listing generated by Microsoft (R) Optimizing Compiler Version 19.00.23506.0 

	TITLE	C:\Users\Michel\Desktop\Source\GameServer\Source\MuRummy.cpp
	.686P
	.XMM
	include listing.inc
	.model	flat

INCLUDELIB LIBCMT
INCLUDELIB OLDNAMES

PUBLIC	?g_bMuRummyEventOn@@3HA				; g_bMuRummyEventOn
PUBLIC	?g_MuRummyEventDBLog@@3HA			; g_MuRummyEventDBLog
_BSS	SEGMENT
?g_MuRummyEventDBLog@@3HA DD 01H DUP (?)		; g_MuRummyEventDBLog
_BSS	ENDS
_DATA	SEGMENT
?g_bMuRummyEventOn@@3HA DD 01H				; g_bMuRummyEventOn
_DATA	ENDS
PUBLIC	??_H@YGXPAXIIP6EPAX0@Z@Z			; `vector constructor iterator'
PUBLIC	?__empty_global_delete@@YAXPAX@Z		; __empty_global_delete
PUBLIC	?__empty_global_delete@@YAXPAXI@Z		; __empty_global_delete
PUBLIC	___local_stdio_printf_options
PUBLIC	??$__vcrt_va_start_verify_argument_type@QBD@@YAXXZ ; __vcrt_va_start_verify_argument_type<char const * const>
PUBLIC	_sprintf
PUBLIC	??0_tagMuRummyCardInfoDS@@QAE@XZ		; _tagMuRummyCardInfoDS::_tagMuRummyCardInfoDS
PUBLIC	??0_tagMuRummyCardUpdateDS@@QAE@XZ		; _tagMuRummyCardUpdateDS::_tagMuRummyCardUpdateDS
PUBLIC	??0_tagPMSG_REQ_MURUMMY_INSERT_DS@@QAE@XZ	; _tagPMSG_REQ_MURUMMY_INSERT_DS::_tagPMSG_REQ_MURUMMY_INSERT_DS
PUBLIC	??0_tagPMSG_REQ_MURUMMY_INFO_UPDATE_DS@@QAE@XZ	; _tagPMSG_REQ_MURUMMY_INFO_UPDATE_DS::_tagPMSG_REQ_MURUMMY_INFO_UPDATE_DS
PUBLIC	??1OBJECTSTRUCT@@QAE@XZ				; OBJECTSTRUCT::~OBJECTSTRUCT
PUBLIC	??_EOBJECTSTRUCT@@QAEPAXI@Z			; OBJECTSTRUCT::`vector deleting destructor'
PUBLIC	??0CMuRummyCardInfo@@QAE@XZ			; CMuRummyCardInfo::CMuRummyCardInfo
PUBLIC	??1CMuRummyCardInfo@@QAE@XZ			; CMuRummyCardInfo::~CMuRummyCardInfo
PUBLIC	??_ECMuRummyCardInfo@@QAEPAXI@Z			; CMuRummyCardInfo::`vector deleting destructor'
PUBLIC	??0CMuRummyInfo@@QAE@XZ				; CMuRummyInfo::CMuRummyInfo
PUBLIC	??1CMuRummyInfo@@UAE@XZ				; CMuRummyInfo::~CMuRummyInfo
PUBLIC	?Init@CMuRummyInfo@@QAEXXZ			; CMuRummyInfo::Init
PUBLIC	?Release@CMuRummyInfo@@QAEXXZ			; CMuRummyInfo::Release
PUBLIC	?Clear@CMuRummyInfo@@QAEXXZ			; CMuRummyInfo::Clear
PUBLIC	?GetCardInfo@CMuRummyInfo@@QAEPAVCMuRummyCardInfo@@XZ ; CMuRummyInfo::GetCardInfo
PUBLIC	?GetSlotIndexInfo@CMuRummyInfo@@QAEPAEXZ	; CMuRummyInfo::GetSlotIndexInfo
PUBLIC	??_GCMuRummyInfo@@UAEPAXI@Z			; CMuRummyInfo::`scalar deleting destructor'
PUBLIC	??0CMuRummyMng@@QAE@XZ				; CMuRummyMng::CMuRummyMng
PUBLIC	??1CMuRummyMng@@QAE@XZ				; CMuRummyMng::~CMuRummyMng
PUBLIC	?LoadPreFixData@CMuRummyMng@@QAEXPAD@Z		; CMuRummyMng::LoadPreFixData
PUBLIC	?ProbabilityLoadData@CMuRummyMng@@QAEXXZ	; CMuRummyMng::ProbabilityLoadData
PUBLIC	?IsMuRummyEventOn@CMuRummyMng@@QAEHXZ		; CMuRummyMng::IsMuRummyEventOn
PUBLIC	?GetRewardScore1@CMuRummyMng@@QAEHXZ		; CMuRummyMng::GetRewardScore1
PUBLIC	?GetRewardScore2@CMuRummyMng@@QAEHXZ		; CMuRummyMng::GetRewardScore2
PUBLIC	?SetCardDeck@CMuRummyMng@@QAEXPAVCMuRummyInfo@@@Z ; CMuRummyMng::SetCardDeck
PUBLIC	?CardShuffle@CMuRummyMng@@QAEXPAVCMuRummyCardInfo@@@Z ; CMuRummyMng::CardShuffle
PUBLIC	?SetPlayCardInfo@CMuRummyMng@@QAE_NPAVCMuRummyInfo@@PAU_tagMuRummyCardInfo@@@Z ; CMuRummyMng::SetPlayCardInfo
PUBLIC	?GetTempCardShowSlot@CMuRummyMng@@QAEEPAE@Z	; CMuRummyMng::GetTempCardShowSlot
PUBLIC	?CardSlotMove@CMuRummyMng@@QAEEPAVCMuRummyInfo@@HHPAVCMuRummyCardInfo@@PAUOBJECTSTRUCT@@@Z ; CMuRummyMng::CardSlotMove
PUBLIC	?CardSlotReMove@CMuRummyMng@@QAEEPAVCMuRummyInfo@@H@Z ; CMuRummyMng::CardSlotReMove
PUBLIC	?CardMatchCheck@CMuRummyMng@@QAEEPAVCMuRummyInfo@@AAHPAU_tagMuRummyCardUpdateDS@@PAUOBJECTSTRUCT@@@Z ; CMuRummyMng::CardMatchCheck
PUBLIC	?CardSortAscending@CMuRummyMng@@QAEXPAVCMuRummyCardInfo@@@Z ; CMuRummyMng::CardSortAscending
PUBLIC	?IsCardSameColor@CMuRummyMng@@QAEHPAVCMuRummyCardInfo@@@Z ; CMuRummyMng::IsCardSameColor
PUBLIC	?IsCardNumber@CMuRummyMng@@QAEHPAVCMuRummyCardInfo@@@Z ; CMuRummyMng::IsCardNumber
PUBLIC	?FillEmptySlotCard@CMuRummyMng@@QAE_NPAVCMuRummyInfo@@PAU_tagMuRummyCardInfo@@PAUOBJECTSTRUCT@@@Z ; CMuRummyMng::FillEmptySlotCard
PUBLIC	?CGReqMuRummyEventOpen@CMuRummyMng@@QAEXPAU_tagPMSG_REQ_MURUMMY_EVENT_OPEN@@H@Z ; CMuRummyMng::CGReqMuRummyEventOpen
PUBLIC	?CGReqMuRummyStart@CMuRummyMng@@QAEXPAU_tagPMSG_REQ_MURUMMY_INFO@@H@Z ; CMuRummyMng::CGReqMuRummyStart
PUBLIC	?CGReqCardReveal@CMuRummyMng@@QAEXPAU_tagPMSG_REQ_REVEAL_CARD@@H@Z ; CMuRummyMng::CGReqCardReveal
PUBLIC	?CGReqCardMove@CMuRummyMng@@QAEXPAU_tagPMSG_REQ_CARD_MOVE@@H@Z ; CMuRummyMng::CGReqCardMove
PUBLIC	?CGReqCardReMove@CMuRummyMng@@QAEXPAU_tagPMSG_REQ_CARD_REMOVE@@H@Z ; CMuRummyMng::CGReqCardReMove
PUBLIC	?CGReqCardMatch@CMuRummyMng@@QAEXPAU_tagPMSG_REQ_CARD_MATCH@@H@Z ; CMuRummyMng::CGReqCardMatch
PUBLIC	?CGReqMuRummyEnd@CMuRummyMng@@QAEXPAU_tagPMSG_REQ_MURUMMY_END@@H@Z ; CMuRummyMng::CGReqMuRummyEnd
PUBLIC	?GCSendCardList@CMuRummyMng@@QAEXH@Z		; CMuRummyMng::GCSendCardList
PUBLIC	?GCSendMsg@CMuRummyMng@@QAEXHEH@Z		; CMuRummyMng::GCSendMsg
PUBLIC	?GDReqCardInfo@CMuRummyMng@@QAEXPAUOBJECTSTRUCT@@@Z ; CMuRummyMng::GDReqCardInfo
PUBLIC	?GDAnsCardInfo@CMuRummyMng@@QAEXPAU_tagPMSG_ANS_MURUMMY_SELECT_DS@@@Z ; CMuRummyMng::GDAnsCardInfo
PUBLIC	?GDReqCardInfoInsert@CMuRummyMng@@QAEXPAUOBJECTSTRUCT@@@Z ; CMuRummyMng::GDReqCardInfoInsert
PUBLIC	?GDReqCardInfoUpdate@CMuRummyMng@@QAEXPAUOBJECTSTRUCT@@PAVCMuRummyCardInfo@@H@Z ; CMuRummyMng::GDReqCardInfoUpdate
PUBLIC	?GDReqScoreUpdate@CMuRummyMng@@QAEXPAUOBJECTSTRUCT@@GPAU_tagMuRummyCardUpdateDS@@@Z ; CMuRummyMng::GDReqScoreUpdate
PUBLIC	?GDReqScoreDelete@CMuRummyMng@@QAEXPAUOBJECTSTRUCT@@@Z ; CMuRummyMng::GDReqScoreDelete
PUBLIC	?GDReqSlotInfoUpdate@CMuRummyMng@@QAEXPAUOBJECTSTRUCT@@EEE@Z ; CMuRummyMng::GDReqSlotInfoUpdate
PUBLIC	?GDReqMuRummyInfoUpdate@CMuRummyMng@@QAEXPAUOBJECTSTRUCT@@@Z ; CMuRummyMng::GDReqMuRummyInfoUpdate
PUBLIC	?GDReqMuRummyDBLog@CMuRummyMng@@QAEXPAUOBJECTSTRUCT@@H@Z ; CMuRummyMng::GDReqMuRummyDBLog
PUBLIC	?Slot5Log@CMuRummyMng@@QAEXPAUOBJECTSTRUCT@@H@Z	; CMuRummyMng::Slot5Log
PUBLIC	?Slot3Log@CMuRummyMng@@QAEXPAUOBJECTSTRUCT@@H@Z	; CMuRummyMng::Slot3Log
PUBLIC	?GetColorName@CMuRummyMng@@QAEDH@Z		; CMuRummyMng::GetColorName
PUBLIC	?_OptionsStorage@?1??__local_stdio_printf_options@@9@4_KA ; `__local_stdio_printf_options'::`2'::_OptionsStorage
PUBLIC	??_7CMuRummyInfo@@6B@				; CMuRummyInfo::`vftable'
PUBLIC	?g_CMuRummyMng@@3VCMuRummyMng@@A		; g_CMuRummyMng
PUBLIC	??_C@_0BE@JCGEADCM@MuRummyEventEndYear?$AA@	; `string'
PUBLIC	??_C@_0P@EMJDPFDH@GameServerInfo?$AA@		; `string'
PUBLIC	??_C@_0BF@BBHHNNIH@MuRummyEventEndMonth?$AA@	; `string'
PUBLIC	??_C@_0BD@CPOHBIBL@MuRummyEventEndDay?$AA@	; `string'
PUBLIC	??_C@_0BE@LLHGFGNG@MuRummyEventEndHour?$AA@	; `string'
PUBLIC	??_C@_0BG@BAJOCANA@MuRummyEventEndMinute?$AA@	; `string'
PUBLIC	??_C@_0BE@IKICMDFH@MuRummyRewardScore1?$AA@	; `string'
PUBLIC	??_C@_0BE@KBKPJAJE@MuRummyRewardScore2?$AA@	; `string'
PUBLIC	??_C@_05NAOIJFC@Error?$AA@			; `string'
PUBLIC	??_C@_0CL@DOFHGMJA@?$FLCommonSever?4cfg?$FN?5Check?5MuRummyR@ ; `string'
PUBLIC	??_C@_0M@DEILNLI@MuRummy?4cpp?$AA@		; `string'
PUBLIC	??_C@_0CN@OCJJNEBG@?$FLMuRummy?$FN?$FLError?$FN?5pCCardInfo?5is?5N@ ; `string'
PUBLIC	??_C@_0DB@NJNPCKOH@?$FLMuRummy?$FN?$FLError?$FN?5pSlotIndexInfo?5@ ; `string'
PUBLIC	??_C@_0DG@KLOFMILL@?$FLMuRummy?$FN?$FLError?$FN?5pCCardInfo?5is?5N@ ; `string'
PUBLIC	??_C@_0DK@IJOPKODH@?$FLMuRummy?$FN?$FLError?$FN?5pSlotIndexInfo?5@ ; `string'
PUBLIC	??_C@_0CN@JPECPFKG@?$FLMuRummy?$FN?$FLError?$FN?5slot?5Not?5Empty?5@ ; `string'
PUBLIC	??_C@_0EC@HECGBNNH@?$FLMuRummy?$FN?$FLError?$FN?5CardInfo?5Index?5@ ; `string'
PUBLIC	??_C@_0DD@GJGCJJOC@?$FL?$CFs?$FN?$FL?$CFs?$FN?$FLMu?5Rummy?$FN?5Slot?$FL5?$FN?5?9?5Mov@ ; `string'
PUBLIC	??_C@_0DD@NFDLMECF@?$FL?$CFs?$FN?$FL?$CFs?$FN?$FLMu?5Rummy?$FN?5Slot?$FL3?$FN?5?9?5Mov@ ; `string'
PUBLIC	??_C@_0DH@CAEIJHPO@?$FL?$CFs?$FN?$FL?$CFs?$FN?$FLMu?5Rummy?$FN?5Slot?$FL3?$FN?5?9?5Reg@ ; `string'
PUBLIC	??_C@_0DH@GBIOFBI@?$FL?$CFs?$FN?$FL?$CFs?$FN?$FLMu?5Rummy?$FN?5Slot?$FL5?$FN?5?9?5Reg@ ; `string'
PUBLIC	??_C@_0DK@DBIEBIMK@?$FLMuRummy?$FN?$FLError?$FN?5pCCardInfo?5is?5N@ ; `string'
PUBLIC	??_C@_0DO@PFNOAPLF@?$FLMuRummy?$FN?$FLError?$FN?5pSlotIndexInfo?5@ ; `string'
PUBLIC	??_C@_0DF@OMEGHBAF@?$FLMuRummy?$FN?$FLError?$FN?5Slot?5is?5Empty?5S@ ; `string'
PUBLIC	??_C@_0CI@HPEAMECE@?$FLMuRummy?$FN?$FLError?$FN?5Slot?5Num?5diff?5?$FL@ ; `string'
PUBLIC	??_C@_0EK@CMFPDAGG@?$FLMuRummy?$FN?$FLError?$FN?5Combine?5CardInf@ ; `string'
PUBLIC	??_C@_0CN@LMGDIHHF@?$FLMuRummy?$FN?$FLError?$FN?5Card?5Cnt?5Over?5?$FL@ ; `string'
PUBLIC	??_C@_0CM@OCPFDBGL@?$FLMuRummy?$FN?$FLError?$FN?5CardDeck?5cnt?5?$FL?$CF@ ; `string'
PUBLIC	??_C@_0CP@ICHPCBKA@?$FLMuRummy?$FN?$FLError?$FN?5?$FL?$CFs?$FN?$FL?$CFs?$FN?$FL?$CFd?$FN?5?3?5@ ; `string'
PUBLIC	??_C@_0DI@HLPPLHAH@?$FLMuRummy?$FN?$FLError?$FN?5pMuRummyInfo?5is@ ; `string'
PUBLIC	??_C@_0DK@GDGLDHIM@?$FLMuRummy?$FN?$FLDebugLog?$FN?$FL?$CFs?$FN?$FL?$CFs?$FN?5Wait@ ; `string'
PUBLIC	??_C@_0CE@CNODDPGG@?$FLMuRummy?$FN?5?$FL?$CFs?$FN?$FL?$CFs?$FN?5?3?5Mini?5Game?5O@ ; `string'
PUBLIC	??_C@_0CI@CLFNHPNA@?$FLMuRummy?$FN?$FLError?$FN?5lpObj?5is?5NULL?5?$FL@ ; `string'
PUBLIC	??_C@_0DB@OBNLPGAF@?$FLMuRummy?$FN?$FLError?$FN?5IsMuRummyInfoLo@ ; `string'
PUBLIC	??_C@_0BO@EJENEIOG@?$FL?$CFs?$FN?$FL?$CFs?$FN?$FLMu?5Rummy?$FN?5Event?5Open?$AA@ ; `string'
PUBLIC	??_C@_0CG@EKIKJFIH@?$FL?$CFs?$FN?$FL?$CFs?$FN?$FLMu?5Rummy?$FN?5Event?5Card?5Cn@ ; `string'
PUBLIC	??_C@_0CD@KPMIGCPB@?$FL?$CFs?$FN?$FL?$CFs?$FN?$FLMu?5Rummy?$FN?5Event?5Point?$CI?$CF@ ; `string'
PUBLIC	??_C@_0CP@IKDBJHNO@?$FLMuRummy?$FN?$FLError?$FN?5SetPlayCardInfo@ ; `string'
PUBLIC	??_C@_0BP@BJLJBPJE@?$FL?$CFs?$FN?$FL?$CFs?$FN?$FLMu?5Rummy?$FN?5Event?5Start?$AA@ ; `string'
PUBLIC	??_C@_0CL@FAFIGCF@?$FL?$CFs?$FN?$FL?$CFs?$FN?$FLMu?5Rummy?$FN?5Event?5Card?5Cn@ ; `string'
PUBLIC	??_C@_0DJ@JIKKCJIL@?$FLMuRummy?$FN?$FLError?$FN?5pCMuRummyInfo?5i@ ; `string'
PUBLIC	??_C@_0DL@POJPEBAK@?$FLMuRummy?$FN?$FLError?$FN?5dump?5fail?5Slot?5@ ; `string'
PUBLIC	??_C@_0CK@GFMCEJJH@?$FLMuRummy?$FN?$FLError?$FN?5dump?5Card?5fail?5@ ; `string'
PUBLIC	??_C@_0DD@GPAJNGEE@?$FL?$CFs?$FN?$FL?$CFs?$FN?$FLMu?5Rummy?$FN?5Slot?$FL5?$FN?5?9?5Jun@ ; `string'
PUBLIC	??_C@_0CK@HGICILBL@?$FL?$CFs?$FN?$FL?$CFs?$FN?$FLMu?5Rummy?$FN?5Slot?$FL3?$FN?5?9?5Com@ ; `string'
PUBLIC	??_C@_0EB@FBJCEGJG@?$FL?$CFs?$FN?$FL?$CFs?$FN?$FLMu?5Rummy?$FN?5Slot?$FL3?$FN?5?9?5Com@ ; `string'
PUBLIC	??_C@_0DJ@GLGFEGIJ@?$FLMuRummy?$FN?$FLDebugLog?$FN?$FL?$CFs?$FN?$FL?$CFs?$FN?5Wait@ ; `string'
PUBLIC	??_C@_0CJ@JDGPLMFF@?$FL?$CFs?$FN?$FL?$CFs?$FN?$FLMu?5Rummy?$FN?5Event?5Reward?5@ ; `string'
PUBLIC	??_C@_0CJ@JCKNNGGC@?$FL?$CFs?$FN?$FL?$CFs?$FN?$FLMu?5Rummy?$FN?5Event?5Reward?5@ ; `string'
PUBLIC	??_C@_0EE@HBKLNCHG@?$FL?$CFs?$FN?$FL?$CFs?$FN?$FLMu?5Rummy?$FN?5Event?5Reward?5@ ; `string'
PUBLIC	??_C@_0BN@EOCJBHNI@?$FL?$CFs?$FN?$FL?$CFs?$FN?$FLMu?5Rummy?$FN?5Event?5end?$AA@ ; `string'
PUBLIC	??_C@_0DB@JJKKLNEH@?$FLMuRummy?$FN?$FLError?$FN?5lpObj?5is?5NULL?5?$FL@ ; `string'
PUBLIC	??_C@_0EE@MDHKGPNB@?$FLMuRummy?$FN?5MuRummy?5Card?5Info?5Load@ ; `string'
PUBLIC	??_C@_0DC@IGBMHAPK@?$FLMuRummy?$FN?$FLError?$FN?5btSlotNum?$FL?$CFd?$FN?5?5@ ; `string'
PUBLIC	??_C@_0DH@MKDFIBOM@?$FLMuRummy?$FN?5MuRummy?5Info?5Save?5?$FL?$CFs?$FN@ ; `string'
PUBLIC	??_C@_04OHJIHAFH@None?$AA@			; `string'
PUBLIC	??_C@_06BMLDIMJA@?$CFc?$CI?$CFd?$CJ?$AA@	; `string'
PUBLIC	??_C@_02BMCALKD@?5?0?$AA@			; `string'
PUBLIC	??_C@_0DE@GBNFGKLM@?$FL?$CFs?$FN?$FL?$CFs?$FN?$FLMu?5Rummy?$FN?5Slot?$FL5?$FN?5?9?5Reg@ ; `string'
PUBLIC	??_C@_0CE@LIDLBALE@?$FL?$CFs?$FN?$FL?$CFs?$FN?$FLMu?5Rummy?$FN?5Slot?$FL5?$FN?5?9?5?$FL?5?$CF@ ; `string'
PUBLIC	??_C@_0DE@GEGJGEPC@?$FL?$CFs?$FN?$FL?$CFs?$FN?$FLMu?5Rummy?$FN?5Slot?$FL3?$FN?5?9?5Reg@ ; `string'
PUBLIC	??_C@_0CE@FHAGLFFE@?$FL?$CFs?$FN?$FL?$CFs?$FN?$FLMu?5Rummy?$FN?5Slot?$FL3?$FN?5?9?5?$FL?5?$CF@ ; `string'
PUBLIC	??_R4CMuRummyInfo@@6B@				; CMuRummyInfo::`RTTI Complete Object Locator'
PUBLIC	??_R0?AVCMuRummyInfo@@@8			; CMuRummyInfo `RTTI Type Descriptor'
PUBLIC	??_R3CMuRummyInfo@@8				; CMuRummyInfo::`RTTI Class Hierarchy Descriptor'
PUBLIC	??_R2CMuRummyInfo@@8				; CMuRummyInfo::`RTTI Base Class Array'
PUBLIC	??_R1A@?0A@EA@CMuRummyInfo@@8			; CMuRummyInfo::`RTTI Base Class Descriptor at (0,-1,0,64)'
EXTRN	??_L@YGXPAXIIP6EX0@Z1@Z:PROC			; `eh vector constructor iterator'
EXTRN	??_M@YGXPAXIIP6EX0@Z@Z:PROC			; `eh vector destructor iterator'
EXTRN	??3@YAXPAXI@Z:PROC				; operator delete
EXTRN	??_U@YAPAXI@Z:PROC				; operator new[]
EXTRN	??_V@YAXPAXI@Z:PROC				; operator delete[]
EXTRN	_atexit:PROC
EXTRN	___std_terminate:PROC
EXTRN	__imp__GetPrivateProfileIntA@16:PROC
EXTRN	__imp__MessageBoxA@16:PROC
EXTRN	___stdio_common_vsprintf:PROC
EXTRN	?Get@Message@@QAEPADH@Z:PROC			; Message::Get
EXTRN	??1CSkillDelay@@UAE@XZ:PROC			; CSkillDelay::~CSkillDelay
EXTRN	?DataSend@@YAHHPAEK@Z:PROC			; DataSend
EXTRN	??1TMonsterAIAgro@@UAE@XZ:PROC			; TMonsterAIAgro::~TMonsterAIAgro
EXTRN	?GCServerMsgStringSend@@YAXPADHE@Z:PROC		; GCServerMsgStringSend
EXTRN	?GCMoneySend@@YAXHK@Z:PROC			; GCMoneySend
EXTRN	?gObjIsConnected@@YAHH@Z:PROC			; gObjIsConnected
EXTRN	?CheckInventoryEmptySpace@@YAHPAUOBJECTSTRUCT@@HH@Z:PROC ; CheckInventoryEmptySpace
EXTRN	?gObjCheckMaxZen@@YAHHH@Z:PROC			; gObjCheckMaxZen
EXTRN	??_ECMuRummyInfo@@UAEPAXI@Z:PROC		; CMuRummyInfo::`vector deleting destructor'
EXTRN	?GetLargeRand@@YAKXZ:PROC			; GetLargeRand
EXTRN	?Send@DBSockMng@@QAEHPADH@Z:PROC		; DBSockMng::Send
EXTRN	@__security_check_cookie@4:PROC
EXTRN	___CxxFrameHandler3:PROC
EXTRN	??_7type_info@@6B@:QWORD			; type_info::`vftable'
EXTRN	?lMsg@@3VMessage@@A:BYTE			; lMsg
EXTRN	?LogAddTD@@3P6AXPADZZA:DWORD			; LogAddTD
EXTRN	?gObj@@3PAUOBJECTSTRUCT@@A:DWORD		; gObj
EXTRN	?cDBSMng@@3VDBSockMng@@A:BYTE			; cDBSMng
EXTRN	___security_cookie:DWORD
;	COMDAT ?_OptionsStorage@?1??__local_stdio_printf_options@@9@4_KA
_BSS	SEGMENT
?_OptionsStorage@?1??__local_stdio_printf_options@@9@4_KA DQ 01H DUP (?) ; `__local_stdio_printf_options'::`2'::_OptionsStorage
_BSS	ENDS
_BSS	SEGMENT
?g_CMuRummyMng@@3VCMuRummyMng@@A DB 018H DUP (?)	; g_CMuRummyMng
_BSS	ENDS
CRT$XCU	SEGMENT
?g_CMuRummyMng$initializer$@@3P6AXXZA DD FLAT:??__Eg_CMuRummyMng@@YAXXZ ; g_CMuRummyMng$initializer$
CRT$XCU	ENDS
;	COMDAT ??_R1A@?0A@EA@CMuRummyInfo@@8
rdata$r	SEGMENT
??_R1A@?0A@EA@CMuRummyInfo@@8 DD FLAT:??_R0?AVCMuRummyInfo@@@8 ; CMuRummyInfo::`RTTI Base Class Descriptor at (0,-1,0,64)'
	DD	00H
	DD	00H
	DD	0ffffffffH
	DD	00H
	DD	040H
	DD	FLAT:??_R3CMuRummyInfo@@8
rdata$r	ENDS
;	COMDAT ??_R2CMuRummyInfo@@8
rdata$r	SEGMENT
??_R2CMuRummyInfo@@8 DD FLAT:??_R1A@?0A@EA@CMuRummyInfo@@8 ; CMuRummyInfo::`RTTI Base Class Array'
rdata$r	ENDS
;	COMDAT ??_R3CMuRummyInfo@@8
rdata$r	SEGMENT
??_R3CMuRummyInfo@@8 DD 00H				; CMuRummyInfo::`RTTI Class Hierarchy Descriptor'
	DD	00H
	DD	01H
	DD	FLAT:??_R2CMuRummyInfo@@8
rdata$r	ENDS
;	COMDAT ??_R0?AVCMuRummyInfo@@@8
data$r	SEGMENT
??_R0?AVCMuRummyInfo@@@8 DD FLAT:??_7type_info@@6B@	; CMuRummyInfo `RTTI Type Descriptor'
	DD	00H
	DB	'.?AVCMuRummyInfo@@', 00H
data$r	ENDS
;	COMDAT ??_R4CMuRummyInfo@@6B@
rdata$r	SEGMENT
??_R4CMuRummyInfo@@6B@ DD 00H				; CMuRummyInfo::`RTTI Complete Object Locator'
	DD	00H
	DD	00H
	DD	FLAT:??_R0?AVCMuRummyInfo@@@8
	DD	FLAT:??_R3CMuRummyInfo@@8
rdata$r	ENDS
;	COMDAT ??_C@_0CE@FHAGLFFE@?$FL?$CFs?$FN?$FL?$CFs?$FN?$FLMu?5Rummy?$FN?5Slot?$FL3?$FN?5?9?5?$FL?5?$CF@
CONST	SEGMENT
??_C@_0CE@FHAGLFFE@?$FL?$CFs?$FN?$FL?$CFs?$FN?$FLMu?5Rummy?$FN?5Slot?$FL3?$FN?5?9?5?$FL?5?$CF@ DB '['
	DB	'%s][%s][Mu Rummy] Slot[3] - [ %s ]', 00H	; `string'
CONST	ENDS
;	COMDAT ??_C@_0DE@GEGJGEPC@?$FL?$CFs?$FN?$FL?$CFs?$FN?$FLMu?5Rummy?$FN?5Slot?$FL3?$FN?5?9?5Reg@
CONST	SEGMENT
??_C@_0DE@GEGJGEPC@?$FL?$CFs?$FN?$FL?$CFs?$FN?$FLMu?5Rummy?$FN?5Slot?$FL3?$FN?5?9?5Reg@ DB '['
	DB	'%s][%s][Mu Rummy] Slot[3] - Register Result [ %s ]', 00H ; `string'
CONST	ENDS
;	COMDAT ??_C@_0CE@LIDLBALE@?$FL?$CFs?$FN?$FL?$CFs?$FN?$FLMu?5Rummy?$FN?5Slot?$FL5?$FN?5?9?5?$FL?5?$CF@
CONST	SEGMENT
??_C@_0CE@LIDLBALE@?$FL?$CFs?$FN?$FL?$CFs?$FN?$FLMu?5Rummy?$FN?5Slot?$FL5?$FN?5?9?5?$FL?5?$CF@ DB '['
	DB	'%s][%s][Mu Rummy] Slot[5] - [ %s ]', 00H	; `string'
CONST	ENDS
;	COMDAT ??_C@_0DE@GBNFGKLM@?$FL?$CFs?$FN?$FL?$CFs?$FN?$FLMu?5Rummy?$FN?5Slot?$FL5?$FN?5?9?5Reg@
CONST	SEGMENT
??_C@_0DE@GBNFGKLM@?$FL?$CFs?$FN?$FL?$CFs?$FN?$FLMu?5Rummy?$FN?5Slot?$FL5?$FN?5?9?5Reg@ DB '['
	DB	'%s][%s][Mu Rummy] Slot[5] - Register Result [ %s ]', 00H ; `string'
CONST	ENDS
;	COMDAT ??_C@_02BMCALKD@?5?0?$AA@
CONST	SEGMENT
??_C@_02BMCALKD@?5?0?$AA@ DB ' ,', 00H			; `string'
CONST	ENDS
;	COMDAT ??_C@_06BMLDIMJA@?$CFc?$CI?$CFd?$CJ?$AA@
CONST	SEGMENT
??_C@_06BMLDIMJA@?$CFc?$CI?$CFd?$CJ?$AA@ DB '%c(%d)', 00H ; `string'
CONST	ENDS
;	COMDAT ??_C@_04OHJIHAFH@None?$AA@
CONST	SEGMENT
??_C@_04OHJIHAFH@None?$AA@ DB 'None', 00H		; `string'
CONST	ENDS
;	COMDAT ??_C@_0DH@MKDFIBOM@?$FLMuRummy?$FN?5MuRummy?5Info?5Save?5?$FL?$CFs?$FN@
CONST	SEGMENT
??_C@_0DH@MKDFIBOM@?$FLMuRummy?$FN?5MuRummy?5Info?5Save?5?$FL?$CFs?$FN@ DB '['
	DB	'MuRummy] MuRummy Info Save [%s][%s] [%d][%c][%d][%d] ', 00H ; `string'
CONST	ENDS
;	COMDAT ??_C@_0DC@IGBMHAPK@?$FLMuRummy?$FN?$FLError?$FN?5btSlotNum?$FL?$CFd?$FN?5?5@
CONST	SEGMENT
??_C@_0DC@IGBMHAPK@?$FLMuRummy?$FN?$FLError?$FN?5btSlotNum?$FL?$CFd?$FN?5?5@ DB '['
	DB	'MuRummy][Error] btSlotNum[%d]  [%s][%s] [%s, %d]', 00H ; `string'
CONST	ENDS
;	COMDAT ??_C@_0EE@MDHKGPNB@?$FLMuRummy?$FN?5MuRummy?5Card?5Info?5Load@
CONST	SEGMENT
??_C@_0EE@MDHKGPNB@?$FLMuRummy?$FN?5MuRummy?5Card?5Info?5Load@ DB '[MuRum'
	DB	'my] MuRummy Card Info Load [%s][%s] Seq:[%d] [%d][%c][%d][%d]'
	DB	00H						; `string'
CONST	ENDS
;	COMDAT ??_C@_0DB@JJKKLNEH@?$FLMuRummy?$FN?$FLError?$FN?5lpObj?5is?5NULL?5?$FL@
CONST	SEGMENT
??_C@_0DB@JJKKLNEH@?$FLMuRummy?$FN?$FLError?$FN?5lpObj?5is?5NULL?5?$FL@ DB '['
	DB	'MuRummy][Error] lpObj is NULL [%s][%s] [%s, %d]', 00H ; `string'
CONST	ENDS
;	COMDAT ??_C@_0BN@EOCJBHNI@?$FL?$CFs?$FN?$FL?$CFs?$FN?$FLMu?5Rummy?$FN?5Event?5end?$AA@
CONST	SEGMENT
??_C@_0BN@EOCJBHNI@?$FL?$CFs?$FN?$FL?$CFs?$FN?$FLMu?5Rummy?$FN?5Event?5end?$AA@ DB '['
	DB	'%s][%s][Mu Rummy] Event end', 00H		; `string'
CONST	ENDS
;	COMDAT ??_C@_0EE@HBKLNCHG@?$FL?$CFs?$FN?$FL?$CFs?$FN?$FLMu?5Rummy?$FN?5Event?5Reward?5@
CONST	SEGMENT
??_C@_0EE@HBKLNCHG@?$FL?$CFs?$FN?$FL?$CFs?$FN?$FLMu?5Rummy?$FN?5Event?5Reward?5@ DB '['
	DB	'%s][%s][Mu Rummy] Event Reward Result [Point : %d, RewardZen '
	DB	': %d]', 00H					; `string'
CONST	ENDS
;	COMDAT ??_C@_0CJ@JCKNNGGC@?$FL?$CFs?$FN?$FL?$CFs?$FN?$FLMu?5Rummy?$FN?5Event?5Reward?5@
CONST	SEGMENT
??_C@_0CJ@JCKNNGGC@?$FL?$CFs?$FN?$FL?$CFs?$FN?$FLMu?5Rummy?$FN?5Event?5Reward?5@ DB '['
	DB	'%s][%s][Mu Rummy] Event Reward fail (0)', 00H ; `string'
CONST	ENDS
;	COMDAT ??_C@_0CJ@JDGPLMFF@?$FL?$CFs?$FN?$FL?$CFs?$FN?$FLMu?5Rummy?$FN?5Event?5Reward?5@
CONST	SEGMENT
??_C@_0CJ@JDGPLMFF@?$FL?$CFs?$FN?$FL?$CFs?$FN?$FLMu?5Rummy?$FN?5Event?5Reward?5@ DB '['
	DB	'%s][%s][Mu Rummy] Event Reward fail (1)', 00H ; `string'
CONST	ENDS
;	COMDAT ??_C@_0DJ@GLGFEGIJ@?$FLMuRummy?$FN?$FLDebugLog?$FN?$FL?$CFs?$FN?$FL?$CFs?$FN?5Wait@
CONST	SEGMENT
??_C@_0DJ@GLGFEGIJ@?$FLMuRummy?$FN?$FLDebugLog?$FN?$FL?$CFs?$FN?$FL?$CFs?$FN?5Wait@ DB '['
	DB	'MuRummy][DebugLog][%s][%s] Waiting Item Reward(Req End)', 00H ; `string'
CONST	ENDS
;	COMDAT ??_C@_0EB@FBJCEGJG@?$FL?$CFs?$FN?$FL?$CFs?$FN?$FLMu?5Rummy?$FN?5Slot?$FL3?$FN?5?9?5Com@
CONST	SEGMENT
??_C@_0EB@FBJCEGJG@?$FL?$CFs?$FN?$FL?$CFs?$FN?$FLMu?5Rummy?$FN?5Slot?$FL3?$FN?5?9?5Com@ DB '['
	DB	'%s][%s][Mu Rummy] Slot[3] - Combine Success Gain Point(%d) (%'
	DB	'd)', 00H					; `string'
CONST	ENDS
;	COMDAT ??_C@_0CK@HGICILBL@?$FL?$CFs?$FN?$FL?$CFs?$FN?$FLMu?5Rummy?$FN?5Slot?$FL3?$FN?5?9?5Com@
CONST	SEGMENT
??_C@_0CK@HGICILBL@?$FL?$CFs?$FN?$FL?$CFs?$FN?$FLMu?5Rummy?$FN?5Slot?$FL3?$FN?5?9?5Com@ DB '['
	DB	'%s][%s][Mu Rummy] Slot[3] - Combine Fail', 00H ; `string'
CONST	ENDS
;	COMDAT ??_C@_0DD@GPAJNGEE@?$FL?$CFs?$FN?$FL?$CFs?$FN?$FLMu?5Rummy?$FN?5Slot?$FL5?$FN?5?9?5Jun@
CONST	SEGMENT
??_C@_0DD@GPAJNGEE@?$FL?$CFs?$FN?$FL?$CFs?$FN?$FLMu?5Rummy?$FN?5Slot?$FL5?$FN?5?9?5Jun@ DB '['
	DB	'%s][%s][Mu Rummy] Slot[5] - Junk Slot[%d] %c : %d', 00H ; `string'
CONST	ENDS
;	COMDAT ??_C@_0CK@GFMCEJJH@?$FLMuRummy?$FN?$FLError?$FN?5dump?5Card?5fail?5@
CONST	SEGMENT
??_C@_0CK@GFMCEJJH@?$FLMuRummy?$FN?$FLError?$FN?5dump?5Card?5fail?5@ DB '['
	DB	'MuRummy][Error] dump Card fail [%s][%s] ', 00H ; `string'
CONST	ENDS
;	COMDAT ??_C@_0DL@POJPEBAK@?$FLMuRummy?$FN?$FLError?$FN?5dump?5fail?5Slot?5@
CONST	SEGMENT
??_C@_0DL@POJPEBAK@?$FLMuRummy?$FN?$FLError?$FN?5dump?5fail?5Slot?5@ DB '['
	DB	'MuRummy][Error] dump fail Slot Num [%d] [%s][%s] [%s, %d]', 00H ; `string'
CONST	ENDS
;	COMDAT ??_C@_0DJ@JIKKCJIL@?$FLMuRummy?$FN?$FLError?$FN?5pCMuRummyInfo?5i@
CONST	SEGMENT
??_C@_0DJ@JIKKCJIL@?$FLMuRummy?$FN?$FLError?$FN?5pCMuRummyInfo?5i@ DB '[M'
	DB	'uRummy][Error] pCMuRummyInfo is NULL [%s][%s] [%s, %d]', 00H ; `string'
CONST	ENDS
;	COMDAT ??_C@_0CL@FAFIGCF@?$FL?$CFs?$FN?$FL?$CFs?$FN?$FLMu?5Rummy?$FN?5Event?5Card?5Cn@
CONST	SEGMENT
??_C@_0CL@FAFIGCF@?$FL?$CFs?$FN?$FL?$CFs?$FN?$FLMu?5Rummy?$FN?5Event?5Card?5Cn@ DB '['
	DB	'%s][%s][Mu Rummy] Event Card Cnt(%d) (%d)', 00H ; `string'
CONST	ENDS
;	COMDAT ??_C@_0BP@BJLJBPJE@?$FL?$CFs?$FN?$FL?$CFs?$FN?$FLMu?5Rummy?$FN?5Event?5Start?$AA@
CONST	SEGMENT
??_C@_0BP@BJLJBPJE@?$FL?$CFs?$FN?$FL?$CFs?$FN?$FLMu?5Rummy?$FN?5Event?5Start?$AA@ DB '['
	DB	'%s][%s][Mu Rummy] Event Start', 00H		; `string'
CONST	ENDS
;	COMDAT ??_C@_0CP@IKDBJHNO@?$FLMuRummy?$FN?$FLError?$FN?5SetPlayCardInfo@
CONST	SEGMENT
??_C@_0CP@IKDBJHNO@?$FLMuRummy?$FN?$FLError?$FN?5SetPlayCardInfo@ DB '[Mu'
	DB	'Rummy][Error] SetPlayCardInfo fail [%s][%s]', 00H ; `string'
CONST	ENDS
;	COMDAT ??_C@_0CD@KPMIGCPB@?$FL?$CFs?$FN?$FL?$CFs?$FN?$FLMu?5Rummy?$FN?5Event?5Point?$CI?$CF@
CONST	SEGMENT
??_C@_0CD@KPMIGCPB@?$FL?$CFs?$FN?$FL?$CFs?$FN?$FLMu?5Rummy?$FN?5Event?5Point?$CI?$CF@ DB '['
	DB	'%s][%s][Mu Rummy] Event Point(%d)', 00H	; `string'
CONST	ENDS
;	COMDAT ??_C@_0CG@EKIKJFIH@?$FL?$CFs?$FN?$FL?$CFs?$FN?$FLMu?5Rummy?$FN?5Event?5Card?5Cn@
CONST	SEGMENT
??_C@_0CG@EKIKJFIH@?$FL?$CFs?$FN?$FL?$CFs?$FN?$FLMu?5Rummy?$FN?5Event?5Card?5Cn@ DB '['
	DB	'%s][%s][Mu Rummy] Event Card Cnt(%d)', 00H	; `string'
CONST	ENDS
;	COMDAT ??_C@_0BO@EJENEIOG@?$FL?$CFs?$FN?$FL?$CFs?$FN?$FLMu?5Rummy?$FN?5Event?5Open?$AA@
CONST	SEGMENT
??_C@_0BO@EJENEIOG@?$FL?$CFs?$FN?$FL?$CFs?$FN?$FLMu?5Rummy?$FN?5Event?5Open?$AA@ DB '['
	DB	'%s][%s][Mu Rummy] Event Open', 00H		; `string'
CONST	ENDS
;	COMDAT ??_C@_0DB@OBNLPGAF@?$FLMuRummy?$FN?$FLError?$FN?5IsMuRummyInfoLo@
CONST	SEGMENT
??_C@_0DB@OBNLPGAF@?$FLMuRummy?$FN?$FLError?$FN?5IsMuRummyInfoLo@ DB '[Mu'
	DB	'Rummy][Error] IsMuRummyInfoLoad fail [%s][%s]', 00H ; `string'
CONST	ENDS
;	COMDAT ??_C@_0CI@CLFNHPNA@?$FLMuRummy?$FN?$FLError?$FN?5lpObj?5is?5NULL?5?$FL@
CONST	SEGMENT
??_C@_0CI@CLFNHPNA@?$FLMuRummy?$FN?$FLError?$FN?5lpObj?5is?5NULL?5?$FL@ DB '['
	DB	'MuRummy][Error] lpObj is NULL [%s, %d]', 00H ; `string'
CONST	ENDS
;	COMDAT ??_C@_0CE@CNODDPGG@?$FLMuRummy?$FN?5?$FL?$CFs?$FN?$FL?$CFs?$FN?5?3?5Mini?5Game?5O@
CONST	SEGMENT
??_C@_0CE@CNODDPGG@?$FLMuRummy?$FN?5?$FL?$CFs?$FN?$FL?$CFs?$FN?5?3?5Mini?5Game?5O@ DB '['
	DB	'MuRummy] [%s][%s] : Mini Game Open', 00H	; `string'
CONST	ENDS
;	COMDAT ??_C@_0DK@GDGLDHIM@?$FLMuRummy?$FN?$FLDebugLog?$FN?$FL?$CFs?$FN?$FL?$CFs?$FN?5Wait@
CONST	SEGMENT
??_C@_0DK@GDGLDHIM@?$FLMuRummy?$FN?$FLDebugLog?$FN?$FL?$CFs?$FN?$FL?$CFs?$FN?5Wait@ DB '['
	DB	'MuRummy][DebugLog][%s][%s] Waiting Item Reward(Req Open)', 00H ; `string'
CONST	ENDS
;	COMDAT ??_C@_0DI@HLPPLHAH@?$FLMuRummy?$FN?$FLError?$FN?5pMuRummyInfo?5is@
CONST	SEGMENT
??_C@_0DI@HLPPLHAH@?$FLMuRummy?$FN?$FLError?$FN?5pMuRummyInfo?5is@ DB '[M'
	DB	'uRummy][Error] pMuRummyInfo is NULL [%s][%s] [%s, %d]', 00H ; `string'
CONST	ENDS
;	COMDAT ??_C@_0CP@ICHPCBKA@?$FLMuRummy?$FN?$FLError?$FN?5?$FL?$CFs?$FN?$FL?$CFs?$FN?$FL?$CFd?$FN?5?3?5@
CONST	SEGMENT
??_C@_0CP@ICHPCBKA@?$FLMuRummy?$FN?$FLError?$FN?5?$FL?$CFs?$FN?$FL?$CFs?$FN?$FL?$CFd?$FN?5?3?5@ DB '['
	DB	'MuRummy][Error] [%s][%s][%d] : not event ofen', 00H ; `string'
CONST	ENDS
;	COMDAT ??_C@_0CM@OCPFDBGL@?$FLMuRummy?$FN?$FLError?$FN?5CardDeck?5cnt?5?$FL?$CF@
CONST	SEGMENT
??_C@_0CM@OCPFDBGL@?$FLMuRummy?$FN?$FLError?$FN?5CardDeck?5cnt?5?$FL?$CF@ DB '['
	DB	'MuRummy][Error] CardDeck cnt [%d] [%s, %d]', 00H ; `string'
CONST	ENDS
;	COMDAT ??_C@_0CN@LMGDIHHF@?$FLMuRummy?$FN?$FLError?$FN?5Card?5Cnt?5Over?5?$FL@
CONST	SEGMENT
??_C@_0CN@LMGDIHHF@?$FLMuRummy?$FN?$FLError?$FN?5Card?5Cnt?5Over?5?$FL@ DB '['
	DB	'MuRummy][Error] Card Cnt Over [%d] [%s, %d]', 00H ; `string'
CONST	ENDS
;	COMDAT ??_C@_0EK@CMFPDAGG@?$FLMuRummy?$FN?$FLError?$FN?5Combine?5CardInf@
CONST	SEGMENT
??_C@_0EK@CMFPDAGG@?$FLMuRummy?$FN?$FLError?$FN?5Combine?5CardInf@ DB '[M'
	DB	'uRummy][Error] Combine CardInfo Index is Overflow [%s][%s][%d'
	DB	'] [%s, %d]', 00H				; `string'
CONST	ENDS
;	COMDAT ??_C@_0CI@HPEAMECE@?$FLMuRummy?$FN?$FLError?$FN?5Slot?5Num?5diff?5?$FL@
CONST	SEGMENT
??_C@_0CI@HPEAMECE@?$FLMuRummy?$FN?$FLError?$FN?5Slot?5Num?5diff?5?$FL@ DB '['
	DB	'MuRummy][Error] Slot Num diff [%s, %d]', 00H ; `string'
CONST	ENDS
;	COMDAT ??_C@_0DF@OMEGHBAF@?$FLMuRummy?$FN?$FLError?$FN?5Slot?5is?5Empty?5S@
CONST	SEGMENT
??_C@_0DF@OMEGHBAF@?$FLMuRummy?$FN?$FLError?$FN?5Slot?5is?5Empty?5S@ DB '['
	DB	'MuRummy][Error] Slot is Empty SlotNum [%d] [%s, %d]', 00H ; `string'
CONST	ENDS
;	COMDAT ??_C@_0DO@PFNOAPLF@?$FLMuRummy?$FN?$FLError?$FN?5pSlotIndexInfo?5@
CONST	SEGMENT
??_C@_0DO@PFNOAPLF@?$FLMuRummy?$FN?$FLError?$FN?5pSlotIndexInfo?5@ DB '[M'
	DB	'uRummy][Error] pSlotIndexInfo is NULL SlotNum [%d] [%s, %d]', 00H ; `string'
CONST	ENDS
;	COMDAT ??_C@_0DK@DBIEBIMK@?$FLMuRummy?$FN?$FLError?$FN?5pCCardInfo?5is?5N@
CONST	SEGMENT
??_C@_0DK@DBIEBIMK@?$FLMuRummy?$FN?$FLError?$FN?5pCCardInfo?5is?5N@ DB '['
	DB	'MuRummy][Error] pCCardInfo is NULL SlotNum [%d] [%s, %d]', 00H ; `string'
CONST	ENDS
;	COMDAT ??_C@_0DH@GBIOFBI@?$FL?$CFs?$FN?$FL?$CFs?$FN?$FLMu?5Rummy?$FN?5Slot?$FL5?$FN?5?9?5Reg@
CONST	SEGMENT
??_C@_0DH@GBIOFBI@?$FL?$CFs?$FN?$FL?$CFs?$FN?$FLMu?5Rummy?$FN?5Slot?$FL5?$FN?5?9?5Reg@ DB '['
	DB	'%s][%s][Mu Rummy] Slot[5] - Register Slot[%d] %c : %d', 00H ; `string'
CONST	ENDS
;	COMDAT ??_C@_0DH@CAEIJHPO@?$FL?$CFs?$FN?$FL?$CFs?$FN?$FLMu?5Rummy?$FN?5Slot?$FL3?$FN?5?9?5Reg@
CONST	SEGMENT
??_C@_0DH@CAEIJHPO@?$FL?$CFs?$FN?$FL?$CFs?$FN?$FLMu?5Rummy?$FN?5Slot?$FL3?$FN?5?9?5Reg@ DB '['
	DB	'%s][%s][Mu Rummy] Slot[3] - Register Slot[%d] %c : %d', 00H ; `string'
CONST	ENDS
;	COMDAT ??_C@_0DD@NFDLMECF@?$FL?$CFs?$FN?$FL?$CFs?$FN?$FLMu?5Rummy?$FN?5Slot?$FL3?$FN?5?9?5Mov@
CONST	SEGMENT
??_C@_0DD@NFDLMECF@?$FL?$CFs?$FN?$FL?$CFs?$FN?$FLMu?5Rummy?$FN?5Slot?$FL3?$FN?5?9?5Mov@ DB '['
	DB	'%s][%s][Mu Rummy] Slot[3] - Move Slot[%d] %c : %d', 00H ; `string'
CONST	ENDS
;	COMDAT ??_C@_0DD@GJGCJJOC@?$FL?$CFs?$FN?$FL?$CFs?$FN?$FLMu?5Rummy?$FN?5Slot?$FL5?$FN?5?9?5Mov@
CONST	SEGMENT
??_C@_0DD@GJGCJJOC@?$FL?$CFs?$FN?$FL?$CFs?$FN?$FLMu?5Rummy?$FN?5Slot?$FL5?$FN?5?9?5Mov@ DB '['
	DB	'%s][%s][Mu Rummy] Slot[5] - Move Slot[%d] %c : %d', 00H ; `string'
CONST	ENDS
;	COMDAT ??_C@_0EC@HECGBNNH@?$FLMuRummy?$FN?$FLError?$FN?5CardInfo?5Index?5@
CONST	SEGMENT
??_C@_0EC@HECGBNNH@?$FLMuRummy?$FN?$FLError?$FN?5CardInfo?5Index?5@ DB '['
	DB	'MuRummy][Error] CardInfo Index is Overflow [%s][%s][%d] [%s, '
	DB	'%d]', 00H					; `string'
CONST	ENDS
;	COMDAT ??_C@_0CN@JPECPFKG@?$FLMuRummy?$FN?$FLError?$FN?5slot?5Not?5Empty?5@
CONST	SEGMENT
??_C@_0CN@JPECPFKG@?$FLMuRummy?$FN?$FLError?$FN?5slot?5Not?5Empty?5@ DB '['
	DB	'MuRummy][Error] slot Not Empty [%s][%s] %d ', 00H ; `string'
CONST	ENDS
;	COMDAT ??_C@_0DK@IJOPKODH@?$FLMuRummy?$FN?$FLError?$FN?5pSlotIndexInfo?5@
CONST	SEGMENT
??_C@_0DK@IJOPKODH@?$FLMuRummy?$FN?$FLError?$FN?5pSlotIndexInfo?5@ DB '[M'
	DB	'uRummy][Error] pSlotIndexInfo is NULL [%s][%s] [%s, %d]', 00H ; `string'
CONST	ENDS
;	COMDAT ??_C@_0DG@KLOFMILL@?$FLMuRummy?$FN?$FLError?$FN?5pCCardInfo?5is?5N@
CONST	SEGMENT
??_C@_0DG@KLOFMILL@?$FLMuRummy?$FN?$FLError?$FN?5pCCardInfo?5is?5N@ DB '['
	DB	'MuRummy][Error] pCCardInfo is NULL [%s][%s] [%s, %d]', 00H ; `string'
CONST	ENDS
;	COMDAT ??_C@_0DB@NJNPCKOH@?$FLMuRummy?$FN?$FLError?$FN?5pSlotIndexInfo?5@
CONST	SEGMENT
??_C@_0DB@NJNPCKOH@?$FLMuRummy?$FN?$FLError?$FN?5pSlotIndexInfo?5@ DB '[M'
	DB	'uRummy][Error] pSlotIndexInfo is NULL [%s, %d]', 00H ; `string'
CONST	ENDS
;	COMDAT ??_C@_0CN@OCJJNEBG@?$FLMuRummy?$FN?$FLError?$FN?5pCCardInfo?5is?5N@
CONST	SEGMENT
??_C@_0CN@OCJJNEBG@?$FLMuRummy?$FN?$FLError?$FN?5pCCardInfo?5is?5N@ DB '['
	DB	'MuRummy][Error] pCCardInfo is NULL [%s, %d]', 00H ; `string'
CONST	ENDS
;	COMDAT ??_C@_0M@DEILNLI@MuRummy?4cpp?$AA@
CONST	SEGMENT
??_C@_0M@DEILNLI@MuRummy?4cpp?$AA@ DB 'MuRummy.cpp', 00H ; `string'
CONST	ENDS
;	COMDAT ??_C@_0CL@DOFHGMJA@?$FLCommonSever?4cfg?$FN?5Check?5MuRummyR@
CONST	SEGMENT
??_C@_0CL@DOFHGMJA@?$FLCommonSever?4cfg?$FN?5Check?5MuRummyR@ DB '[Common'
	DB	'Sever.cfg] Check MuRummyRewardScore', 00H	; `string'
CONST	ENDS
;	COMDAT ??_C@_05NAOIJFC@Error?$AA@
CONST	SEGMENT
??_C@_05NAOIJFC@Error?$AA@ DB 'Error', 00H		; `string'
CONST	ENDS
;	COMDAT ??_C@_0BE@KBKPJAJE@MuRummyRewardScore2?$AA@
CONST	SEGMENT
??_C@_0BE@KBKPJAJE@MuRummyRewardScore2?$AA@ DB 'MuRummyRewardScore2', 00H ; `string'
CONST	ENDS
;	COMDAT ??_C@_0BE@IKICMDFH@MuRummyRewardScore1?$AA@
CONST	SEGMENT
??_C@_0BE@IKICMDFH@MuRummyRewardScore1?$AA@ DB 'MuRummyRewardScore1', 00H ; `string'
CONST	ENDS
;	COMDAT ??_C@_0BG@BAJOCANA@MuRummyEventEndMinute?$AA@
CONST	SEGMENT
??_C@_0BG@BAJOCANA@MuRummyEventEndMinute?$AA@ DB 'MuRummyEventEndMinute', 00H ; `string'
CONST	ENDS
;	COMDAT ??_C@_0BE@LLHGFGNG@MuRummyEventEndHour?$AA@
CONST	SEGMENT
??_C@_0BE@LLHGFGNG@MuRummyEventEndHour?$AA@ DB 'MuRummyEventEndHour', 00H ; `string'
CONST	ENDS
;	COMDAT ??_C@_0BD@CPOHBIBL@MuRummyEventEndDay?$AA@
CONST	SEGMENT
??_C@_0BD@CPOHBIBL@MuRummyEventEndDay?$AA@ DB 'MuRummyEventEndDay', 00H ; `string'
CONST	ENDS
;	COMDAT ??_C@_0BF@BBHHNNIH@MuRummyEventEndMonth?$AA@
CONST	SEGMENT
??_C@_0BF@BBHHNNIH@MuRummyEventEndMonth?$AA@ DB 'MuRummyEventEndMonth', 00H ; `string'
CONST	ENDS
;	COMDAT ??_C@_0P@EMJDPFDH@GameServerInfo?$AA@
CONST	SEGMENT
??_C@_0P@EMJDPFDH@GameServerInfo?$AA@ DB 'GameServerInfo', 00H ; `string'
CONST	ENDS
;	COMDAT ??_C@_0BE@JCGEADCM@MuRummyEventEndYear?$AA@
CONST	SEGMENT
??_C@_0BE@JCGEADCM@MuRummyEventEndYear?$AA@ DB 'MuRummyEventEndYear', 00H ; `string'
CONST	ENDS
;	COMDAT ??_7CMuRummyInfo@@6B@
CONST	SEGMENT
??_7CMuRummyInfo@@6B@ DD FLAT:??_R4CMuRummyInfo@@6B@	; CMuRummyInfo::`vftable'
	DD	FLAT:??_ECMuRummyInfo@@UAEPAXI@Z
CONST	ENDS
;	COMDAT xdata$x
xdata$x	SEGMENT
__unwindtable$?CardMatchCheck@CMuRummyMng@@QAEEPAVCMuRummyInfo@@AAHPAU_tagMuRummyCardUpdateDS@@PAUOBJECTSTRUCT@@@Z DD 0ffffffffH
	DD	FLAT:__unwindfunclet$?CardMatchCheck@CMuRummyMng@@QAEEPAVCMuRummyInfo@@AAHPAU_tagMuRummyCardUpdateDS@@PAUOBJECTSTRUCT@@@Z$0
__ehfuncinfo$?CardMatchCheck@CMuRummyMng@@QAEEPAVCMuRummyInfo@@AAHPAU_tagMuRummyCardUpdateDS@@PAUOBJECTSTRUCT@@@Z DD 019930522H
	DD	01H
	DD	FLAT:__unwindtable$?CardMatchCheck@CMuRummyMng@@QAEEPAVCMuRummyInfo@@AAHPAU_tagMuRummyCardUpdateDS@@PAUOBJECTSTRUCT@@@Z
	DD	2 DUP(00H)
	DD	2 DUP(00H)
	DD	00H
	DD	01H
xdata$x	ENDS
;	COMDAT xdata$x
xdata$x	SEGMENT
__unwindtable$?Init@CMuRummyInfo@@QAEXXZ DD 0ffffffffH
	DD	FLAT:__unwindfunclet$?Init@CMuRummyInfo@@QAEXXZ$0
__ehfuncinfo$?Init@CMuRummyInfo@@QAEXXZ DD 019930522H
	DD	01H
	DD	FLAT:__unwindtable$?Init@CMuRummyInfo@@QAEXXZ
	DD	2 DUP(00H)
	DD	2 DUP(00H)
	DD	00H
	DD	01H
xdata$x	ENDS
;	COMDAT xdata$x
xdata$x	SEGMENT
__unwindtable$??1CMuRummyInfo@@UAE@XZ DD 0ffffffffH
	DD	FLAT:__unwindfunclet$??1CMuRummyInfo@@UAE@XZ$0
__ehfuncinfo$??1CMuRummyInfo@@UAE@XZ DD 019930522H
	DD	01H
	DD	FLAT:__unwindtable$??1CMuRummyInfo@@UAE@XZ
	DD	2 DUP(00H)
	DD	2 DUP(00H)
	DD	00H
	DD	05H
xdata$x	ENDS
;	COMDAT xdata$x
xdata$x	SEGMENT
__ehfuncinfo$??_ECMuRummyCardInfo@@QAEPAXI@Z DD 019930522H
	DD	00H
	DD	00H
	DD	2 DUP(00H)
	DD	2 DUP(00H)
	DD	00H
	DD	05H
xdata$x	ENDS
;	COMDAT xdata$x
xdata$x	SEGMENT
__ehfuncinfo$??_EOBJECTSTRUCT@@QAEPAXI@Z DD 019930522H
	DD	00H
	DD	00H
	DD	2 DUP(00H)
	DD	2 DUP(00H)
	DD	00H
	DD	05H
xdata$x	ENDS
; Function compile flags: /Ogtp
;	COMDAT ??__Fg_CMuRummyMng@@YAXXZ
text$yd	SEGMENT
??__Fg_CMuRummyMng@@YAXXZ PROC				; `dynamic atexit destructor for 'g_CMuRummyMng'', COMDAT
  00000	b9 00 00 00 00	 mov	 ecx, OFFSET ?g_CMuRummyMng@@3VCMuRummyMng@@A ; g_CMuRummyMng
  00005	e9 00 00 00 00	 jmp	 ??1CMuRummyMng@@QAE@XZ	; CMuRummyMng::~CMuRummyMng
??__Fg_CMuRummyMng@@YAXXZ ENDP				; `dynamic atexit destructor for 'g_CMuRummyMng''
text$yd	ENDS
; Function compile flags: /Ogtp
; File c:\users\michel\desktop\source\gameserver\source\murummy.cpp
;	COMDAT ??__Eg_CMuRummyMng@@YAXXZ
text$di	SEGMENT
??__Eg_CMuRummyMng@@YAXXZ PROC				; `dynamic initializer for 'g_CMuRummyMng'', COMDAT

; 9    : CMuRummyMng g_CMuRummyMng;

  00000	b9 00 00 00 00	 mov	 ecx, OFFSET ?g_CMuRummyMng@@3VCMuRummyMng@@A ; g_CMuRummyMng
  00005	e8 00 00 00 00	 call	 ??0CMuRummyMng@@QAE@XZ	; CMuRummyMng::CMuRummyMng
  0000a	68 00 00 00 00	 push	 OFFSET ??__Fg_CMuRummyMng@@YAXXZ ; `dynamic atexit destructor for 'g_CMuRummyMng''
  0000f	e8 00 00 00 00	 call	 _atexit
  00014	59		 pop	 ecx
  00015	c3		 ret	 0
??__Eg_CMuRummyMng@@YAXXZ ENDP				; `dynamic initializer for 'g_CMuRummyMng''
text$di	ENDS
; Function compile flags: /Ogtp
; File c:\users\michel\desktop\source\gameserver\source\murummy.cpp
;	COMDAT ?GetColorName@CMuRummyMng@@QAEDH@Z
_TEXT	SEGMENT
_szColor$ = -4						; size = 4
_iColorNum$ = 8						; size = 4
?GetColorName@CMuRummyMng@@QAEDH@Z PROC			; CMuRummyMng::GetColorName, COMDAT
; _this$ = ecx

; 1816 : {

  00000	55		 push	 ebp
  00001	8b ec		 mov	 ebp, esp
  00003	51		 push	 ecx

; 1817 : 	char szColor[] = { 'R', 'B', 'Y', 'E' };
; 1818 : 
; 1819 : 	if (iColorNum < 0 || iColorNum > 3)

  00004	8b 45 08	 mov	 eax, DWORD PTR _iColorNum$[ebp]
  00007	c7 45 fc 52 42
	59 45		 mov	 DWORD PTR _szColor$[ebp], 1163477586 ; 45594252H
  0000e	83 f8 03	 cmp	 eax, 3
  00011	77 0a		 ja	 SHORT $LN3@GetColorNa

; 1822 : 	}
; 1823 : 
; 1824 : 	return szColor[iColorNum];

  00013	8a 44 05 fc	 mov	 al, BYTE PTR _szColor$[ebp+eax]

; 1825 : }

  00017	8b e5		 mov	 esp, ebp
  00019	5d		 pop	 ebp
  0001a	c2 04 00	 ret	 4
$LN3@GetColorNa:

; 1820 : 	{
; 1821 : 		return szColor[3];

  0001d	b0 45		 mov	 al, 69			; 00000045H

; 1825 : }

  0001f	8b e5		 mov	 esp, ebp
  00021	5d		 pop	 ebp
  00022	c2 04 00	 ret	 4
?GetColorName@CMuRummyMng@@QAEDH@Z ENDP			; CMuRummyMng::GetColorName
_TEXT	ENDS
; Function compile flags: /Ogtp
; File c:\users\michel\desktop\source\gameserver\source\murummy.cpp
;	COMDAT ?Slot3Log@CMuRummyMng@@QAEXPAUOBJECTSTRUCT@@H@Z
_TEXT	SEGMENT
_pCCardInfo$1$ = -2068					; size = 4
_this$GSCopy$1$ = -2064					; size = 4
_pSlotIndexInfo$1$ = -2060				; size = 4
_pMuRummyInfo$ = -2060					; size = 4
_obj$GSCopy$1$ = -2056					; size = 4
_szSlotInfo$ = -2052					; size = 1024
_szTemp$ = -1028					; size = 1024
__$ArrayPad$ = -4					; size = 4
_obj$ = 8						; size = 4
_iLogType$ = 12						; size = 4
?Slot3Log@CMuRummyMng@@QAEXPAUOBJECTSTRUCT@@H@Z PROC	; CMuRummyMng::Slot3Log, COMDAT
; _this$ = ecx

; 1748 : {

  00000	55		 push	 ebp
  00001	8b ec		 mov	 ebp, esp
  00003	81 ec 14 08 00
	00		 sub	 esp, 2068		; 00000814H
  00009	a1 00 00 00 00	 mov	 eax, DWORD PTR ___security_cookie
  0000e	33 c5		 xor	 eax, ebp
  00010	89 45 fc	 mov	 DWORD PTR __$ArrayPad$[ebp], eax
  00013	53		 push	 ebx
  00014	8b 5d 08	 mov	 ebx, DWORD PTR _obj$[ebp]
  00017	89 8d f0 f7 ff
	ff		 mov	 DWORD PTR _this$GSCopy$1$[ebp], ecx
  0001d	89 9d f8 f7 ff
	ff		 mov	 DWORD PTR _obj$GSCopy$1$[ebp], ebx

; 1749 : 	if (!OBJMAX_RANGE(obj->m_Index))

  00023	8b 13		 mov	 edx, DWORD PTR [ebx]
  00025	85 d2		 test	 edx, edx
  00027	0f 88 e2 01 00
	00		 js	 $LN13@Slot3Log
  0002d	33 c0		 xor	 eax, eax
  0002f	81 fa eb 2c 00
	00		 cmp	 edx, 11499		; 00002cebH
  00035	0f 9e c0	 setle	 al
  00038	85 c0		 test	 eax, eax
  0003a	0f 84 cf 01 00
	00		 je	 $LN13@Slot3Log

; 1750 : 	{
; 1751 : 		return;
; 1752 : 	}
; 1753 : 
; 1754 : 	CMuRummyInfo* pMuRummyInfo;// = obj->m_pCMuRummyInfo;
; 1755 : 
; 1756 : 	if (!pMuRummyInfo)

  00040	56		 push	 esi
  00041	8b b5 f4 f7 ff
	ff		 mov	 esi, DWORD PTR _pMuRummyInfo$[ebp]
  00047	85 f6		 test	 esi, esi
  00049	75 32		 jne	 SHORT $LN6@Slot3Log

; 1757 : 	{
; 1758 : 		LogAddTD("[MuRummy][Error] pMuRummyInfo is NULL [%s][%s] [%s, %d]",

  0004b	68 df 06 00 00	 push	 1759			; 000006dfH
  00050	68 00 00 00 00	 push	 OFFSET ??_C@_0M@DEILNLI@MuRummy?4cpp?$AA@
  00055	8d 43 5d	 lea	 eax, DWORD PTR [ebx+93]
  00058	50		 push	 eax
  00059	8d 43 52	 lea	 eax, DWORD PTR [ebx+82]
  0005c	50		 push	 eax
  0005d	68 00 00 00 00	 push	 OFFSET ??_C@_0DI@HLPPLHAH@?$FLMuRummy?$FN?$FLError?$FN?5pMuRummyInfo?5is@
  00062	ff 15 00 00 00
	00		 call	 DWORD PTR ?LogAddTD@@3P6AXPADZZA ; LogAddTD
  00068	83 c4 14	 add	 esp, 20			; 00000014H
  0006b	5e		 pop	 esi
  0006c	5b		 pop	 ebx

; 1812 : 	}
; 1813 : }

  0006d	8b 4d fc	 mov	 ecx, DWORD PTR __$ArrayPad$[ebp]
  00070	33 cd		 xor	 ecx, ebp
  00072	e8 00 00 00 00	 call	 @__security_check_cookie@4
  00077	8b e5		 mov	 esp, ebp
  00079	5d		 pop	 ebp
  0007a	c2 08 00	 ret	 8
$LN6@Slot3Log:
  0007d	57		 push	 edi

; 1759 : 			obj->AccountID, obj->Name, __FILE__, __LINE__);
; 1760 : 		return;
; 1761 : 	}
; 1762 : 
; 1763 : 	CMuRummyCardInfo* pCCardInfo = pMuRummyInfo->GetCardInfo();

  0007e	8b ce		 mov	 ecx, esi
  00080	e8 00 00 00 00	 call	 ?GetCardInfo@CMuRummyInfo@@QAEPAVCMuRummyCardInfo@@XZ ; CMuRummyInfo::GetCardInfo
  00085	8b f8		 mov	 edi, eax
  00087	89 bd ec f7 ff
	ff		 mov	 DWORD PTR _pCCardInfo$1$[ebp], edi

; 1764 : 
; 1765 : 	if (!pCCardInfo)

  0008d	85 ff		 test	 edi, edi
  0008f	75 33		 jne	 SHORT $LN7@Slot3Log

; 1766 : 	{
; 1767 : 		LogAddTD("[MuRummy][Error] pCCardInfo is NULL [%s][%s] [%s, %d]",

  00091	68 e8 06 00 00	 push	 1768			; 000006e8H
  00096	68 00 00 00 00	 push	 OFFSET ??_C@_0M@DEILNLI@MuRummy?4cpp?$AA@
  0009b	8d 43 5d	 lea	 eax, DWORD PTR [ebx+93]
  0009e	50		 push	 eax
  0009f	8d 43 52	 lea	 eax, DWORD PTR [ebx+82]
  000a2	50		 push	 eax
  000a3	68 00 00 00 00	 push	 OFFSET ??_C@_0DG@KLOFMILL@?$FLMuRummy?$FN?$FLError?$FN?5pCCardInfo?5is?5N@
  000a8	ff 15 00 00 00
	00		 call	 DWORD PTR ?LogAddTD@@3P6AXPADZZA ; LogAddTD
  000ae	83 c4 14	 add	 esp, 20			; 00000014H
  000b1	5f		 pop	 edi
  000b2	5e		 pop	 esi
  000b3	5b		 pop	 ebx

; 1812 : 	}
; 1813 : }

  000b4	8b 4d fc	 mov	 ecx, DWORD PTR __$ArrayPad$[ebp]
  000b7	33 cd		 xor	 ecx, ebp
  000b9	e8 00 00 00 00	 call	 @__security_check_cookie@4
  000be	8b e5		 mov	 esp, ebp
  000c0	5d		 pop	 ebp
  000c1	c2 08 00	 ret	 8
$LN7@Slot3Log:

; 1768 : 			obj->AccountID, obj->Name, __FILE__, __LINE__);
; 1769 : 		return;
; 1770 : 	}
; 1771 : 
; 1772 : 	LPBYTE pSlotIndexInfo = pMuRummyInfo->GetSlotIndexInfo();

  000c4	8b ce		 mov	 ecx, esi
  000c6	e8 00 00 00 00	 call	 ?GetSlotIndexInfo@CMuRummyInfo@@QAEPAEXZ ; CMuRummyInfo::GetSlotIndexInfo
  000cb	89 85 f4 f7 ff
	ff		 mov	 DWORD PTR _pSlotIndexInfo$1$[ebp], eax

; 1773 : 
; 1774 : 	if (!pSlotIndexInfo)

  000d1	85 c0		 test	 eax, eax
  000d3	75 33		 jne	 SHORT $LN8@Slot3Log

; 1775 : 	{
; 1776 : 		LogAddTD("[MuRummy][Error] pSlotIndexInfo is NULL [%s][%s] [%s, %d]",

  000d5	68 f1 06 00 00	 push	 1777			; 000006f1H
  000da	68 00 00 00 00	 push	 OFFSET ??_C@_0M@DEILNLI@MuRummy?4cpp?$AA@
  000df	8d 43 5d	 lea	 eax, DWORD PTR [ebx+93]
  000e2	50		 push	 eax
  000e3	8d 43 52	 lea	 eax, DWORD PTR [ebx+82]
  000e6	50		 push	 eax
  000e7	68 00 00 00 00	 push	 OFFSET ??_C@_0DK@IJOPKODH@?$FLMuRummy?$FN?$FLError?$FN?5pSlotIndexInfo?5@
  000ec	ff 15 00 00 00
	00		 call	 DWORD PTR ?LogAddTD@@3P6AXPADZZA ; LogAddTD
  000f2	83 c4 14	 add	 esp, 20			; 00000014H
  000f5	5f		 pop	 edi
  000f6	5e		 pop	 esi
  000f7	5b		 pop	 ebx

; 1812 : 	}
; 1813 : }

  000f8	8b 4d fc	 mov	 ecx, DWORD PTR __$ArrayPad$[ebp]
  000fb	33 cd		 xor	 ecx, ebp
  000fd	e8 00 00 00 00	 call	 @__security_check_cookie@4
  00102	8b e5		 mov	 esp, ebp
  00104	5d		 pop	 ebp
  00105	c2 08 00	 ret	 8
$LN8@Slot3Log:

; 1777 : 			obj->AccountID, obj->Name, __FILE__, __LINE__);
; 1778 : 		return;
; 1779 : 	}
; 1780 : 
; 1781 : 	char szSlotInfo[1024];
; 1782 : 	char szTemp[1024];
; 1783 : 	_tagMuRummyCardInfo stMuRummyCardInfo[5];
; 1784 : 
; 1785 : 	for (int n = 5; n < MURUMMY_MAX_SLOT; n++)

  00108	bb 05 00 00 00	 mov	 ebx, 5
  0010d	0f 1f 00	 npad	 3
$LL4@Slot3Log:

; 1786 : 	{
; 1787 : 		if (pSlotIndexInfo[n] == (BYTE)-1)

  00110	8a 04 03	 mov	 al, BYTE PTR [ebx+eax]
  00113	3c ff		 cmp	 al, 255			; 000000ffH
  00115	75 24		 jne	 SHORT $LN9@Slot3Log

; 1788 : 		{
; 1789 : 			strcat(szTemp, "None");

  00117	8d 8d fc fb ff
	ff		 lea	 ecx, DWORD PTR _szTemp$[ebp]
  0011d	49		 dec	 ecx
  0011e	66 90		 npad	 2
$LL25@Slot3Log:
  00120	8a 41 01	 mov	 al, BYTE PTR [ecx+1]
  00123	8d 49 01	 lea	 ecx, DWORD PTR [ecx+1]
  00126	84 c0		 test	 al, al
  00128	75 f6		 jne	 SHORT $LL25@Slot3Log
  0012a	a1 00 00 00 00	 mov	 eax, DWORD PTR ??_C@_04OHJIHAFH@None?$AA@
  0012f	89 01		 mov	 DWORD PTR [ecx], eax
  00131	a0 04 00 00 00	 mov	 al, BYTE PTR ??_C@_04OHJIHAFH@None?$AA@+4
  00136	88 41 04	 mov	 BYTE PTR [ecx+4], al

; 1790 : 		}
; 1791 : 		else

  00139	eb 65		 jmp	 SHORT $LN10@Slot3Log
$LN9@Slot3Log:

; 1792 : 		{
; 1793 : 			sprintf(szSlotInfo, "%c(%d)", 

  0013b	8b 8d f0 f7 ff
	ff		 mov	 ecx, DWORD PTR _this$GSCopy$1$[ebp]
  00141	0f b6 c0	 movzx	 eax, al
  00144	03 c0		 add	 eax, eax
  00146	ff 74 c7 04	 push	 DWORD PTR [edi+eax*8+4]
  0014a	8b 04 c7	 mov	 eax, DWORD PTR [edi+eax*8]
  0014d	48		 dec	 eax
  0014e	50		 push	 eax
  0014f	e8 00 00 00 00	 call	 ?GetColorName@CMuRummyMng@@QAEDH@Z ; CMuRummyMng::GetColorName
  00154	0f be c0	 movsx	 eax, al
  00157	50		 push	 eax
  00158	8d 85 fc f7 ff
	ff		 lea	 eax, DWORD PTR _szSlotInfo$[ebp]
  0015e	68 00 00 00 00	 push	 OFFSET ??_C@_06BMLDIMJA@?$CFc?$CI?$CFd?$CJ?$AA@
  00163	50		 push	 eax
  00164	e8 00 00 00 00	 call	 _sprintf

; 1794 : 				this->GetColorName(pCCardInfo[pSlotIndexInfo[n]].GetColor() - 1),  
; 1795 : 				pCCardInfo[pSlotIndexInfo[n]].GetNumber());
; 1796 : 			strcat(szTemp, szSlotInfo);

  00169	8d 95 fc f7 ff
	ff		 lea	 edx, DWORD PTR _szSlotInfo$[ebp]
  0016f	83 c4 10	 add	 esp, 16			; 00000010H
  00172	8b f2		 mov	 esi, edx
$LL26@Slot3Log:
  00174	8a 02		 mov	 al, BYTE PTR [edx]
  00176	42		 inc	 edx
  00177	84 c0		 test	 al, al
  00179	75 f9		 jne	 SHORT $LL26@Slot3Log
  0017b	8d bd fc fb ff
	ff		 lea	 edi, DWORD PTR _szTemp$[ebp]
  00181	2b d6		 sub	 edx, esi
  00183	4f		 dec	 edi
$LL27@Slot3Log:
  00184	8a 47 01	 mov	 al, BYTE PTR [edi+1]
  00187	47		 inc	 edi
  00188	84 c0		 test	 al, al
  0018a	75 f8		 jne	 SHORT $LL27@Slot3Log
  0018c	8b ca		 mov	 ecx, edx
  0018e	c1 e9 02	 shr	 ecx, 2
  00191	f3 a5		 rep movsd
  00193	8b ca		 mov	 ecx, edx
  00195	83 e1 03	 and	 ecx, 3
  00198	f3 a4		 rep movsb
  0019a	8b bd ec f7 ff
	ff		 mov	 edi, DWORD PTR _pCCardInfo$1$[ebp]
$LN10@Slot3Log:

; 1797 : 		}
; 1798 : 
; 1799 : 		if (n != 7)

  001a0	83 fb 07	 cmp	 ebx, 7
  001a3	74 28		 je	 SHORT $LN2@Slot3Log

; 1800 : 		{
; 1801 : 			strcat(szTemp, " ,");

  001a5	8d 85 fc fb ff
	ff		 lea	 eax, DWORD PTR _szTemp$[ebp]
  001ab	48		 dec	 eax
  001ac	0f 1f 40 00	 npad	 4
$LL28@Slot3Log:
  001b0	8a 48 01	 mov	 cl, BYTE PTR [eax+1]
  001b3	8d 40 01	 lea	 eax, DWORD PTR [eax+1]
  001b6	84 c9		 test	 cl, cl
  001b8	75 f6		 jne	 SHORT $LL28@Slot3Log
  001ba	66 8b 0d 00 00
	00 00		 mov	 cx, WORD PTR ??_C@_02BMCALKD@?5?0?$AA@
  001c1	66 89 08	 mov	 WORD PTR [eax], cx
  001c4	8a 0d 02 00 00
	00		 mov	 cl, BYTE PTR ??_C@_02BMCALKD@?5?0?$AA@+2
  001ca	88 48 02	 mov	 BYTE PTR [eax+2], cl
$LN2@Slot3Log:

; 1777 : 			obj->AccountID, obj->Name, __FILE__, __LINE__);
; 1778 : 		return;
; 1779 : 	}
; 1780 : 
; 1781 : 	char szSlotInfo[1024];
; 1782 : 	char szTemp[1024];
; 1783 : 	_tagMuRummyCardInfo stMuRummyCardInfo[5];
; 1784 : 
; 1785 : 	for (int n = 5; n < MURUMMY_MAX_SLOT; n++)

  001cd	8b 85 f4 f7 ff
	ff		 mov	 eax, DWORD PTR _pSlotIndexInfo$1$[ebp]
  001d3	43		 inc	 ebx
  001d4	83 fb 08	 cmp	 ebx, 8
  001d7	0f 8c 33 ff ff
	ff		 jl	 $LL4@Slot3Log

; 1802 : 		}
; 1803 : 	}
; 1804 : 
; 1805 : 	if (iLogType)

  001dd	83 7d 0c 00	 cmp	 DWORD PTR _iLogType$[ebp], 0

; 1806 : 	{
; 1807 : 		LogAddTD("[%s][%s][Mu Rummy] Slot[3] - Register Result [ %s ]", obj->AccountID, obj->Name, szTemp);

  001e1	8d 85 fc fb ff
	ff		 lea	 eax, DWORD PTR _szTemp$[ebp]
  001e7	8b 8d f8 f7 ff
	ff		 mov	 ecx, DWORD PTR _obj$GSCopy$1$[ebp]
  001ed	50		 push	 eax
  001ee	8d 41 5d	 lea	 eax, DWORD PTR [ecx+93]
  001f1	50		 push	 eax
  001f2	8d 41 52	 lea	 eax, DWORD PTR [ecx+82]
  001f5	50		 push	 eax
  001f6	74 07		 je	 SHORT $LN12@Slot3Log
  001f8	68 00 00 00 00	 push	 OFFSET ??_C@_0DE@GEGJGEPC@?$FL?$CFs?$FN?$FL?$CFs?$FN?$FLMu?5Rummy?$FN?5Slot?$FL3?$FN?5?9?5Reg@

; 1808 : 	}
; 1809 :     else

  001fd	eb 05		 jmp	 SHORT $LN31@Slot3Log
$LN12@Slot3Log:

; 1810 : 	{
; 1811 : 		LogAddTD("[%s][%s][Mu Rummy] Slot[3] - [ %s ]", obj->AccountID, obj->Name, szTemp);

  001ff	68 00 00 00 00	 push	 OFFSET ??_C@_0CE@FHAGLFFE@?$FL?$CFs?$FN?$FL?$CFs?$FN?$FLMu?5Rummy?$FN?5Slot?$FL3?$FN?5?9?5?$FL?5?$CF@
$LN31@Slot3Log:
  00204	ff 15 00 00 00
	00		 call	 DWORD PTR ?LogAddTD@@3P6AXPADZZA ; LogAddTD
  0020a	83 c4 10	 add	 esp, 16			; 00000010H
  0020d	5f		 pop	 edi
  0020e	5e		 pop	 esi
$LN13@Slot3Log:

; 1812 : 	}
; 1813 : }

  0020f	8b 4d fc	 mov	 ecx, DWORD PTR __$ArrayPad$[ebp]
  00212	33 cd		 xor	 ecx, ebp
  00214	5b		 pop	 ebx
  00215	e8 00 00 00 00	 call	 @__security_check_cookie@4
  0021a	8b e5		 mov	 esp, ebp
  0021c	5d		 pop	 ebp
  0021d	c2 08 00	 ret	 8
?Slot3Log@CMuRummyMng@@QAEXPAUOBJECTSTRUCT@@H@Z ENDP	; CMuRummyMng::Slot3Log
_TEXT	ENDS
; Function compile flags: /Ogtp
; File c:\users\michel\desktop\source\gameserver\source\murummy.cpp
;	COMDAT ?Slot5Log@CMuRummyMng@@QAEXPAUOBJECTSTRUCT@@H@Z
_TEXT	SEGMENT
_pCCardInfo$1$ = -2068					; size = 4
_this$GSCopy$1$ = -2064					; size = 4
_pSlotIndexInfo$1$ = -2060				; size = 4
_pMuRummyInfo$ = -2060					; size = 4
_obj$GSCopy$1$ = -2056					; size = 4
_szSlotInfo$ = -2052					; size = 1024
_szTemp$ = -1028					; size = 1024
__$ArrayPad$ = -4					; size = 4
_obj$ = 8						; size = 4
_iLogType$ = 12						; size = 4
?Slot5Log@CMuRummyMng@@QAEXPAUOBJECTSTRUCT@@H@Z PROC	; CMuRummyMng::Slot5Log, COMDAT
; _this$ = ecx

; 1680 : {

  00000	55		 push	 ebp
  00001	8b ec		 mov	 ebp, esp
  00003	81 ec 14 08 00
	00		 sub	 esp, 2068		; 00000814H
  00009	a1 00 00 00 00	 mov	 eax, DWORD PTR ___security_cookie
  0000e	33 c5		 xor	 eax, ebp
  00010	89 45 fc	 mov	 DWORD PTR __$ArrayPad$[ebp], eax
  00013	53		 push	 ebx
  00014	8b 5d 08	 mov	 ebx, DWORD PTR _obj$[ebp]
  00017	89 8d f0 f7 ff
	ff		 mov	 DWORD PTR _this$GSCopy$1$[ebp], ecx
  0001d	89 9d f8 f7 ff
	ff		 mov	 DWORD PTR _obj$GSCopy$1$[ebp], ebx

; 1681 : 	if (!OBJMAX_RANGE(obj->m_Index))

  00023	8b 13		 mov	 edx, DWORD PTR [ebx]
  00025	85 d2		 test	 edx, edx
  00027	0f 88 e2 01 00
	00		 js	 $LN13@Slot5Log
  0002d	33 c0		 xor	 eax, eax
  0002f	81 fa eb 2c 00
	00		 cmp	 edx, 11499		; 00002cebH
  00035	0f 9e c0	 setle	 al
  00038	85 c0		 test	 eax, eax
  0003a	0f 84 cf 01 00
	00		 je	 $LN13@Slot5Log

; 1682 : 	{
; 1683 : 		return;
; 1684 : 	}
; 1685 : 
; 1686 : 	CMuRummyInfo* pMuRummyInfo;// = obj->m_pCMuRummyInfo;
; 1687 : 
; 1688 : 	if (!pMuRummyInfo)

  00040	56		 push	 esi
  00041	8b b5 f4 f7 ff
	ff		 mov	 esi, DWORD PTR _pMuRummyInfo$[ebp]
  00047	85 f6		 test	 esi, esi
  00049	75 32		 jne	 SHORT $LN6@Slot5Log

; 1689 : 	{
; 1690 : 		LogAddTD("[MuRummy][Error] pMuRummyInfo is NULL [%s][%s] [%s, %d]",

  0004b	68 9b 06 00 00	 push	 1691			; 0000069bH
  00050	68 00 00 00 00	 push	 OFFSET ??_C@_0M@DEILNLI@MuRummy?4cpp?$AA@
  00055	8d 43 5d	 lea	 eax, DWORD PTR [ebx+93]
  00058	50		 push	 eax
  00059	8d 43 52	 lea	 eax, DWORD PTR [ebx+82]
  0005c	50		 push	 eax
  0005d	68 00 00 00 00	 push	 OFFSET ??_C@_0DI@HLPPLHAH@?$FLMuRummy?$FN?$FLError?$FN?5pMuRummyInfo?5is@
  00062	ff 15 00 00 00
	00		 call	 DWORD PTR ?LogAddTD@@3P6AXPADZZA ; LogAddTD
  00068	83 c4 14	 add	 esp, 20			; 00000014H
  0006b	5e		 pop	 esi
  0006c	5b		 pop	 ebx

; 1744 : 	}
; 1745 : }

  0006d	8b 4d fc	 mov	 ecx, DWORD PTR __$ArrayPad$[ebp]
  00070	33 cd		 xor	 ecx, ebp
  00072	e8 00 00 00 00	 call	 @__security_check_cookie@4
  00077	8b e5		 mov	 esp, ebp
  00079	5d		 pop	 ebp
  0007a	c2 08 00	 ret	 8
$LN6@Slot5Log:
  0007d	57		 push	 edi

; 1691 : 			obj->AccountID, obj->Name, __FILE__, __LINE__);
; 1692 : 		return;
; 1693 : 	}
; 1694 : 
; 1695 : 	CMuRummyCardInfo* pCCardInfo = pMuRummyInfo->GetCardInfo();

  0007e	8b ce		 mov	 ecx, esi
  00080	e8 00 00 00 00	 call	 ?GetCardInfo@CMuRummyInfo@@QAEPAVCMuRummyCardInfo@@XZ ; CMuRummyInfo::GetCardInfo
  00085	8b f8		 mov	 edi, eax
  00087	89 bd ec f7 ff
	ff		 mov	 DWORD PTR _pCCardInfo$1$[ebp], edi

; 1696 : 
; 1697 : 	if (!pCCardInfo)

  0008d	85 ff		 test	 edi, edi
  0008f	75 33		 jne	 SHORT $LN7@Slot5Log

; 1698 : 	{
; 1699 : 		LogAddTD("[MuRummy][Error] pCCardInfo is NULL [%s][%s] [%s, %d]",

  00091	68 a4 06 00 00	 push	 1700			; 000006a4H
  00096	68 00 00 00 00	 push	 OFFSET ??_C@_0M@DEILNLI@MuRummy?4cpp?$AA@
  0009b	8d 43 5d	 lea	 eax, DWORD PTR [ebx+93]
  0009e	50		 push	 eax
  0009f	8d 43 52	 lea	 eax, DWORD PTR [ebx+82]
  000a2	50		 push	 eax
  000a3	68 00 00 00 00	 push	 OFFSET ??_C@_0DG@KLOFMILL@?$FLMuRummy?$FN?$FLError?$FN?5pCCardInfo?5is?5N@
  000a8	ff 15 00 00 00
	00		 call	 DWORD PTR ?LogAddTD@@3P6AXPADZZA ; LogAddTD
  000ae	83 c4 14	 add	 esp, 20			; 00000014H
  000b1	5f		 pop	 edi
  000b2	5e		 pop	 esi
  000b3	5b		 pop	 ebx

; 1744 : 	}
; 1745 : }

  000b4	8b 4d fc	 mov	 ecx, DWORD PTR __$ArrayPad$[ebp]
  000b7	33 cd		 xor	 ecx, ebp
  000b9	e8 00 00 00 00	 call	 @__security_check_cookie@4
  000be	8b e5		 mov	 esp, ebp
  000c0	5d		 pop	 ebp
  000c1	c2 08 00	 ret	 8
$LN7@Slot5Log:

; 1700 : 			obj->AccountID, obj->Name, __FILE__, __LINE__);
; 1701 : 		return;
; 1702 : 	}
; 1703 : 
; 1704 : 	LPBYTE pSlotIndexInfo = pMuRummyInfo->GetSlotIndexInfo();

  000c4	8b ce		 mov	 ecx, esi
  000c6	e8 00 00 00 00	 call	 ?GetSlotIndexInfo@CMuRummyInfo@@QAEPAEXZ ; CMuRummyInfo::GetSlotIndexInfo
  000cb	89 85 f4 f7 ff
	ff		 mov	 DWORD PTR _pSlotIndexInfo$1$[ebp], eax

; 1705 : 
; 1706 : 	if (!pSlotIndexInfo)

  000d1	85 c0		 test	 eax, eax
  000d3	75 33		 jne	 SHORT $LN8@Slot5Log

; 1707 : 	{
; 1708 : 		LogAddTD("[MuRummy][Error] pSlotIndexInfo is NULL [%s][%s] [%s, %d]",

  000d5	68 ad 06 00 00	 push	 1709			; 000006adH
  000da	68 00 00 00 00	 push	 OFFSET ??_C@_0M@DEILNLI@MuRummy?4cpp?$AA@
  000df	8d 43 5d	 lea	 eax, DWORD PTR [ebx+93]
  000e2	50		 push	 eax
  000e3	8d 43 52	 lea	 eax, DWORD PTR [ebx+82]
  000e6	50		 push	 eax
  000e7	68 00 00 00 00	 push	 OFFSET ??_C@_0DK@IJOPKODH@?$FLMuRummy?$FN?$FLError?$FN?5pSlotIndexInfo?5@
  000ec	ff 15 00 00 00
	00		 call	 DWORD PTR ?LogAddTD@@3P6AXPADZZA ; LogAddTD
  000f2	83 c4 14	 add	 esp, 20			; 00000014H
  000f5	5f		 pop	 edi
  000f6	5e		 pop	 esi
  000f7	5b		 pop	 ebx

; 1744 : 	}
; 1745 : }

  000f8	8b 4d fc	 mov	 ecx, DWORD PTR __$ArrayPad$[ebp]
  000fb	33 cd		 xor	 ecx, ebp
  000fd	e8 00 00 00 00	 call	 @__security_check_cookie@4
  00102	8b e5		 mov	 esp, ebp
  00104	5d		 pop	 ebp
  00105	c2 08 00	 ret	 8
$LN8@Slot5Log:

; 1709 : 			obj->AccountID, obj->Name, __FILE__, __LINE__);
; 1710 : 		return;
; 1711 : 	}
; 1712 : 
; 1713 : 	char szSlotInfo[1024];
; 1714 : 	char szTemp[1024];
; 1715 : 	_tagMuRummyCardInfo stMuRummyCardInfo[5];
; 1716 : 
; 1717 : 	for (int n = 0; n < 5; n++)

  00108	33 db		 xor	 ebx, ebx
  0010a	66 0f 1f 44 00
	00		 npad	 6
$LL4@Slot5Log:

; 1718 : 	{
; 1719 : 		if (pSlotIndexInfo[n] == (BYTE)-1)

  00110	8a 04 03	 mov	 al, BYTE PTR [ebx+eax]
  00113	3c ff		 cmp	 al, 255			; 000000ffH
  00115	75 24		 jne	 SHORT $LN9@Slot5Log

; 1720 : 		{
; 1721 : 			strcat(szTemp, "None");

  00117	8d 8d fc fb ff
	ff		 lea	 ecx, DWORD PTR _szTemp$[ebp]
  0011d	49		 dec	 ecx
  0011e	66 90		 npad	 2
$LL25@Slot5Log:
  00120	8a 41 01	 mov	 al, BYTE PTR [ecx+1]
  00123	8d 49 01	 lea	 ecx, DWORD PTR [ecx+1]
  00126	84 c0		 test	 al, al
  00128	75 f6		 jne	 SHORT $LL25@Slot5Log
  0012a	a1 00 00 00 00	 mov	 eax, DWORD PTR ??_C@_04OHJIHAFH@None?$AA@
  0012f	89 01		 mov	 DWORD PTR [ecx], eax
  00131	a0 04 00 00 00	 mov	 al, BYTE PTR ??_C@_04OHJIHAFH@None?$AA@+4
  00136	88 41 04	 mov	 BYTE PTR [ecx+4], al

; 1722 : 		}
; 1723 : 		else

  00139	eb 65		 jmp	 SHORT $LN10@Slot5Log
$LN9@Slot5Log:

; 1724 : 		{
; 1725 : 			sprintf(szSlotInfo, "%c(%d)", 

  0013b	8b 8d f0 f7 ff
	ff		 mov	 ecx, DWORD PTR _this$GSCopy$1$[ebp]
  00141	0f b6 c0	 movzx	 eax, al
  00144	03 c0		 add	 eax, eax
  00146	ff 74 c7 04	 push	 DWORD PTR [edi+eax*8+4]
  0014a	8b 04 c7	 mov	 eax, DWORD PTR [edi+eax*8]
  0014d	48		 dec	 eax
  0014e	50		 push	 eax
  0014f	e8 00 00 00 00	 call	 ?GetColorName@CMuRummyMng@@QAEDH@Z ; CMuRummyMng::GetColorName
  00154	0f be c0	 movsx	 eax, al
  00157	50		 push	 eax
  00158	8d 85 fc f7 ff
	ff		 lea	 eax, DWORD PTR _szSlotInfo$[ebp]
  0015e	68 00 00 00 00	 push	 OFFSET ??_C@_06BMLDIMJA@?$CFc?$CI?$CFd?$CJ?$AA@
  00163	50		 push	 eax
  00164	e8 00 00 00 00	 call	 _sprintf

; 1726 : 				this->GetColorName(pCCardInfo[pSlotIndexInfo[n]].GetColor() - 1),  
; 1727 : 				pCCardInfo[pSlotIndexInfo[n]].GetNumber());
; 1728 : 			strcat(szTemp, szSlotInfo);

  00169	8d 95 fc f7 ff
	ff		 lea	 edx, DWORD PTR _szSlotInfo$[ebp]
  0016f	83 c4 10	 add	 esp, 16			; 00000010H
  00172	8b f2		 mov	 esi, edx
$LL26@Slot5Log:
  00174	8a 02		 mov	 al, BYTE PTR [edx]
  00176	42		 inc	 edx
  00177	84 c0		 test	 al, al
  00179	75 f9		 jne	 SHORT $LL26@Slot5Log
  0017b	8d bd fc fb ff
	ff		 lea	 edi, DWORD PTR _szTemp$[ebp]
  00181	2b d6		 sub	 edx, esi
  00183	4f		 dec	 edi
$LL27@Slot5Log:
  00184	8a 47 01	 mov	 al, BYTE PTR [edi+1]
  00187	47		 inc	 edi
  00188	84 c0		 test	 al, al
  0018a	75 f8		 jne	 SHORT $LL27@Slot5Log
  0018c	8b ca		 mov	 ecx, edx
  0018e	c1 e9 02	 shr	 ecx, 2
  00191	f3 a5		 rep movsd
  00193	8b ca		 mov	 ecx, edx
  00195	83 e1 03	 and	 ecx, 3
  00198	f3 a4		 rep movsb
  0019a	8b bd ec f7 ff
	ff		 mov	 edi, DWORD PTR _pCCardInfo$1$[ebp]
$LN10@Slot5Log:

; 1729 : 		}
; 1730 : 
; 1731 : 		if (n != 4)

  001a0	83 fb 04	 cmp	 ebx, 4
  001a3	74 28		 je	 SHORT $LN2@Slot5Log

; 1732 : 		{
; 1733 : 			strcat(szTemp, " ,");

  001a5	8d 85 fc fb ff
	ff		 lea	 eax, DWORD PTR _szTemp$[ebp]
  001ab	48		 dec	 eax
  001ac	0f 1f 40 00	 npad	 4
$LL28@Slot5Log:
  001b0	8a 48 01	 mov	 cl, BYTE PTR [eax+1]
  001b3	8d 40 01	 lea	 eax, DWORD PTR [eax+1]
  001b6	84 c9		 test	 cl, cl
  001b8	75 f6		 jne	 SHORT $LL28@Slot5Log
  001ba	66 8b 0d 00 00
	00 00		 mov	 cx, WORD PTR ??_C@_02BMCALKD@?5?0?$AA@
  001c1	66 89 08	 mov	 WORD PTR [eax], cx
  001c4	8a 0d 02 00 00
	00		 mov	 cl, BYTE PTR ??_C@_02BMCALKD@?5?0?$AA@+2
  001ca	88 48 02	 mov	 BYTE PTR [eax+2], cl
$LN2@Slot5Log:

; 1709 : 			obj->AccountID, obj->Name, __FILE__, __LINE__);
; 1710 : 		return;
; 1711 : 	}
; 1712 : 
; 1713 : 	char szSlotInfo[1024];
; 1714 : 	char szTemp[1024];
; 1715 : 	_tagMuRummyCardInfo stMuRummyCardInfo[5];
; 1716 : 
; 1717 : 	for (int n = 0; n < 5; n++)

  001cd	8b 85 f4 f7 ff
	ff		 mov	 eax, DWORD PTR _pSlotIndexInfo$1$[ebp]
  001d3	43		 inc	 ebx
  001d4	83 fb 05	 cmp	 ebx, 5
  001d7	0f 8c 33 ff ff
	ff		 jl	 $LL4@Slot5Log

; 1734 : 		}
; 1735 : 	}
; 1736 : 
; 1737 : 	if (iLogType)

  001dd	83 7d 0c 00	 cmp	 DWORD PTR _iLogType$[ebp], 0

; 1738 : 	{
; 1739 : 		LogAddTD("[%s][%s][Mu Rummy] Slot[5] - Register Result [ %s ]", obj->AccountID, obj->Name, szTemp);

  001e1	8d 85 fc fb ff
	ff		 lea	 eax, DWORD PTR _szTemp$[ebp]
  001e7	8b 8d f8 f7 ff
	ff		 mov	 ecx, DWORD PTR _obj$GSCopy$1$[ebp]
  001ed	50		 push	 eax
  001ee	8d 41 5d	 lea	 eax, DWORD PTR [ecx+93]
  001f1	50		 push	 eax
  001f2	8d 41 52	 lea	 eax, DWORD PTR [ecx+82]
  001f5	50		 push	 eax
  001f6	74 07		 je	 SHORT $LN12@Slot5Log
  001f8	68 00 00 00 00	 push	 OFFSET ??_C@_0DE@GBNFGKLM@?$FL?$CFs?$FN?$FL?$CFs?$FN?$FLMu?5Rummy?$FN?5Slot?$FL5?$FN?5?9?5Reg@

; 1740 : 	}
; 1741 :     else

  001fd	eb 05		 jmp	 SHORT $LN31@Slot5Log
$LN12@Slot5Log:

; 1742 : 	{
; 1743 : 		LogAddTD("[%s][%s][Mu Rummy] Slot[5] - [ %s ]", obj->AccountID, obj->Name, szTemp);

  001ff	68 00 00 00 00	 push	 OFFSET ??_C@_0CE@LIDLBALE@?$FL?$CFs?$FN?$FL?$CFs?$FN?$FLMu?5Rummy?$FN?5Slot?$FL5?$FN?5?9?5?$FL?5?$CF@
$LN31@Slot5Log:
  00204	ff 15 00 00 00
	00		 call	 DWORD PTR ?LogAddTD@@3P6AXPADZZA ; LogAddTD
  0020a	83 c4 10	 add	 esp, 16			; 00000010H
  0020d	5f		 pop	 edi
  0020e	5e		 pop	 esi
$LN13@Slot5Log:

; 1744 : 	}
; 1745 : }

  0020f	8b 4d fc	 mov	 ecx, DWORD PTR __$ArrayPad$[ebp]
  00212	33 cd		 xor	 ecx, ebp
  00214	5b		 pop	 ebx
  00215	e8 00 00 00 00	 call	 @__security_check_cookie@4
  0021a	8b e5		 mov	 esp, ebp
  0021c	5d		 pop	 ebp
  0021d	c2 08 00	 ret	 8
?Slot5Log@CMuRummyMng@@QAEXPAUOBJECTSTRUCT@@H@Z ENDP	; CMuRummyMng::Slot5Log
_TEXT	ENDS
; Function compile flags: /Ogtp
; File c:\users\michel\desktop\source\gameserver\source\murummy.cpp
; File c:\users\michel\desktop\source\gameserver\include\prodef.h
; File c:\users\michel\desktop\source\gameserver\source\murummy.cpp
;	COMDAT ?GDReqMuRummyDBLog@CMuRummyMng@@QAEXPAUOBJECTSTRUCT@@H@Z
_TEXT	SEGMENT
_pMsg$ = -32						; size = 28
__$ArrayPad$ = -4					; size = 4
_obj$ = 8						; size = 4
_iScore$ = 12						; size = 4
?GDReqMuRummyDBLog@CMuRummyMng@@QAEXPAUOBJECTSTRUCT@@H@Z PROC ; CMuRummyMng::GDReqMuRummyDBLog, COMDAT
; _this$ = ecx

; 1655 : {

  00000	55		 push	 ebp
  00001	8b ec		 mov	 ebp, esp
  00003	83 ec 20	 sub	 esp, 32			; 00000020H
  00006	a1 00 00 00 00	 mov	 eax, DWORD PTR ___security_cookie
  0000b	33 c5		 xor	 eax, ebp
  0000d	89 45 fc	 mov	 DWORD PTR __$ArrayPad$[ebp], eax
  00010	56		 push	 esi
  00011	8b 75 08	 mov	 esi, DWORD PTR _obj$[ebp]
  00014	57		 push	 edi
  00015	8b f9		 mov	 edi, ecx

; 1656 : 	if (!OBJMAX_RANGE(obj->m_Index))

  00017	8b 16		 mov	 edx, DWORD PTR [esi]
  00019	85 d2		 test	 edx, edx
  0001b	0f 88 84 00 00
	00		 js	 $LN5@GDReqMuRum
  00021	33 c0		 xor	 eax, eax
  00023	81 fa eb 2c 00
	00		 cmp	 edx, 11499		; 00002cebH
  00029	0f 9e c0	 setle	 al
  0002c	85 c0		 test	 eax, eax
  0002e	74 75		 je	 SHORT $LN5@GDReqMuRum

; 1657 : 	{
; 1658 : 		return;
; 1659 : 	}
; 1660 : 
; 1661 : 	if (!gObjIsConnected(obj->m_Index))

  00030	52		 push	 edx
  00031	e8 00 00 00 00	 call	 ?gObjIsConnected@@YAHH@Z ; gObjIsConnected
  00036	83 c4 04	 add	 esp, 4
  00039	85 c0		 test	 eax, eax
  0003b	74 68		 je	 SHORT $LN5@GDReqMuRum

; 1662 : 	{
; 1663 : 		return;
; 1664 : 	}
; 1665 : 
; 1666 : 	if (!this->IsMuRummyEventOn() || !g_MuRummyEventDBLog || !iScore)

  0003d	8b cf		 mov	 ecx, edi
  0003f	e8 00 00 00 00	 call	 ?IsMuRummyEventOn@CMuRummyMng@@QAEHXZ ; CMuRummyMng::IsMuRummyEventOn
  00044	85 c0		 test	 eax, eax
  00046	74 5d		 je	 SHORT $LN5@GDReqMuRum
  00048	83 3d 00 00 00
	00 00		 cmp	 DWORD PTR ?g_MuRummyEventDBLog@@3HA, 0 ; g_MuRummyEventDBLog
  0004f	74 54		 je	 SHORT $LN5@GDReqMuRum
  00051	8b 4d 0c	 mov	 ecx, DWORD PTR _iScore$[ebp]
  00054	85 c9		 test	 ecx, ecx
  00056	74 4d		 je	 SHORT $LN5@GDReqMuRum

; 1667 : 	{
; 1668 : 		return;
; 1669 : 	}
; 1670 : 
; 1671 : 	_tagPMSG_REQ_MURUMMY_LOG_INSERT_DS pMsg;
; 1672 : 	pMsg.h.set((LPBYTE)&pMsg, 0xE8, 0x07, sizeof(_tagPMSG_REQ_MURUMMY_LOG_INSERT_DS));
; 1673 : 	memcpy(pMsg.AccountID, obj->AccountID, sizeof(pMsg.AccountID));

  00058	0f b7 46 5a	 movzx	 eax, WORD PTR [esi+90]
  0005c	f3 0f 7e 46 52	 movq	 xmm0, QWORD PTR [esi+82]
  00061	66 89 45 ec	 mov	 WORD PTR _pMsg$[ebp+12], ax
  00065	0f b6 46 5c	 movzx	 eax, BYTE PTR [esi+92]
  00069	88 45 ee	 mov	 BYTE PTR _pMsg$[ebp+14], al

; 1674 : 	memcpy(pMsg.Name, obj->Name, sizeof(pMsg.Name));

  0006c	0f b7 46 65	 movzx	 eax, WORD PTR [esi+101]
  00070	66 89 45 f7	 mov	 WORD PTR _pMsg$[ebp+23], ax
  00074	0f b6 46 67	 movzx	 eax, BYTE PTR [esi+103]
  00078	88 45 f9	 mov	 BYTE PTR _pMsg$[ebp+25], al

; 1675 : 	pMsg.wScore = iScore;
; 1676 : 	cDBSMng.Send((PCHAR)&pMsg, pMsg.h.size);

  0007b	8d 45 e0	 lea	 eax, DWORD PTR _pMsg$[ebp]
  0007e	66 0f d6 45 e4	 movq	 QWORD PTR _pMsg$[ebp+4], xmm0
  00083	f3 0f 7e 46 5d	 movq	 xmm0, QWORD PTR [esi+93]
  00088	6a 1c		 push	 28			; 0000001cH
  0008a	66 89 4d fa	 mov	 WORD PTR _pMsg$[ebp+26], cx
  0008e	b9 00 00 00 00	 mov	 ecx, OFFSET ?cDBSMng@@3VDBSockMng@@A ; cDBSMng
  00093	50		 push	 eax
; File c:\users\michel\desktop\source\gameserver\include\prodef.h

; 140  : 		lpBuf[0] = 0xC1;

  00094	c7 45 e0 c1 1c
	e8 07		 mov	 DWORD PTR _pMsg$[ebp], 132652225 ; 07e81cc1H
; File c:\users\michel\desktop\source\gameserver\source\murummy.cpp

; 1674 : 	memcpy(pMsg.Name, obj->Name, sizeof(pMsg.Name));

  0009b	66 0f d6 45 ef	 movq	 QWORD PTR _pMsg$[ebp+15], xmm0

; 1675 : 	pMsg.wScore = iScore;
; 1676 : 	cDBSMng.Send((PCHAR)&pMsg, pMsg.h.size);

  000a0	e8 00 00 00 00	 call	 ?Send@DBSockMng@@QAEHPADH@Z ; DBSockMng::Send
$LN5@GDReqMuRum:

; 1677 : }

  000a5	8b 4d fc	 mov	 ecx, DWORD PTR __$ArrayPad$[ebp]
  000a8	5f		 pop	 edi
  000a9	33 cd		 xor	 ecx, ebp
  000ab	5e		 pop	 esi
  000ac	e8 00 00 00 00	 call	 @__security_check_cookie@4
  000b1	8b e5		 mov	 esp, ebp
  000b3	5d		 pop	 ebp
  000b4	c2 08 00	 ret	 8
?GDReqMuRummyDBLog@CMuRummyMng@@QAEXPAUOBJECTSTRUCT@@H@Z ENDP ; CMuRummyMng::GDReqMuRummyDBLog
_TEXT	ENDS
; Function compile flags: /Ogtp
; File c:\users\michel\desktop\source\gameserver\source\murummy.cpp
; File c:\users\michel\desktop\source\gameserver\include\prodef.h
; File c:\users\michel\desktop\source\gameserver\source\murummy.cpp
;	COMDAT ?GDReqMuRummyInfoUpdate@CMuRummyMng@@QAEXPAUOBJECTSTRUCT@@@Z
_TEXT	SEGMENT
tv488 = -120						; size = 4
_this$GSCopy$1$ = -116					; size = 4
_pCCardInfo$1$ = -112					; size = 4
tv487 = -108						; size = 4
_pMuRummyInfo$ = -108					; size = 4
_pMsg$ = -104						; size = 100
__$ArrayPad$ = -4					; size = 4
_obj$ = 8						; size = 4
?GDReqMuRummyInfoUpdate@CMuRummyMng@@QAEXPAUOBJECTSTRUCT@@@Z PROC ; CMuRummyMng::GDReqMuRummyInfoUpdate, COMDAT
; _this$ = ecx

; 1595 : {

  00000	55		 push	 ebp
  00001	8b ec		 mov	 ebp, esp
  00003	83 ec 78	 sub	 esp, 120		; 00000078H
  00006	a1 00 00 00 00	 mov	 eax, DWORD PTR ___security_cookie
  0000b	33 c5		 xor	 eax, ebp
  0000d	89 45 fc	 mov	 DWORD PTR __$ArrayPad$[ebp], eax
  00010	53		 push	 ebx
  00011	56		 push	 esi
  00012	8b 75 08	 mov	 esi, DWORD PTR _obj$[ebp]
  00015	8b d9		 mov	 ebx, ecx
  00017	89 5d 8c	 mov	 DWORD PTR _this$GSCopy$1$[ebp], ebx

; 1596 : 	if (!OBJMAX_RANGE(obj->m_Index))

  0001a	8b 16		 mov	 edx, DWORD PTR [esi]
  0001c	85 d2		 test	 edx, edx
  0001e	0f 88 6c 01 00
	00		 js	 $LN1@GDReqMuRum
  00024	33 c0		 xor	 eax, eax
  00026	81 fa eb 2c 00
	00		 cmp	 edx, 11499		; 00002cebH
  0002c	0f 9e c0	 setle	 al
  0002f	85 c0		 test	 eax, eax
  00031	0f 84 59 01 00
	00		 je	 $LN1@GDReqMuRum

; 1597 : 	{
; 1598 : 		return;
; 1599 : 	}
; 1600 : 
; 1601 : 	if (!gObjIsConnected(obj->m_Index))

  00037	52		 push	 edx
  00038	e8 00 00 00 00	 call	 ?gObjIsConnected@@YAHH@Z ; gObjIsConnected
  0003d	83 c4 04	 add	 esp, 4
  00040	85 c0		 test	 eax, eax
  00042	0f 84 48 01 00
	00		 je	 $LN1@GDReqMuRum

; 1602 : 	{
; 1603 : 		return;
; 1604 : 	}
; 1605 : 
; 1606 : 	if (!this->IsMuRummyEventOn())

  00048	8b cb		 mov	 ecx, ebx
  0004a	e8 00 00 00 00	 call	 ?IsMuRummyEventOn@CMuRummyMng@@QAEHXZ ; CMuRummyMng::IsMuRummyEventOn
  0004f	85 c0		 test	 eax, eax
  00051	0f 84 39 01 00
	00		 je	 $LN1@GDReqMuRum

; 1607 : 	{
; 1608 : 		return;
; 1609 : 	}
; 1610 : 
; 1611 : 	CMuRummyInfo* pMuRummyInfo;// = obj->m_pCMuRummyInfo;
; 1612 : 
; 1613 :     if (!pMuRummyInfo)

  00057	57		 push	 edi
  00058	8b 7d 94	 mov	 edi, DWORD PTR _pMuRummyInfo$[ebp]
  0005b	85 ff		 test	 edi, edi
  0005d	75 33		 jne	 SHORT $LN8@GDReqMuRum

; 1614 :     {
; 1615 : 		LogAddTD("[MuRummy][Error] pMuRummyInfo is NULL [%s][%s] [%s, %d]",

  0005f	68 50 06 00 00	 push	 1616			; 00000650H
  00064	68 00 00 00 00	 push	 OFFSET ??_C@_0M@DEILNLI@MuRummy?4cpp?$AA@
  00069	8d 46 5d	 lea	 eax, DWORD PTR [esi+93]
  0006c	50		 push	 eax
  0006d	8d 46 52	 lea	 eax, DWORD PTR [esi+82]
  00070	50		 push	 eax
  00071	68 00 00 00 00	 push	 OFFSET ??_C@_0DI@HLPPLHAH@?$FLMuRummy?$FN?$FLError?$FN?5pMuRummyInfo?5is@
  00076	ff 15 00 00 00
	00		 call	 DWORD PTR ?LogAddTD@@3P6AXPADZZA ; LogAddTD
  0007c	83 c4 14	 add	 esp, 20			; 00000014H
  0007f	5f		 pop	 edi
  00080	5e		 pop	 esi
  00081	5b		 pop	 ebx

; 1652 : }

  00082	8b 4d fc	 mov	 ecx, DWORD PTR __$ArrayPad$[ebp]
  00085	33 cd		 xor	 ecx, ebp
  00087	e8 00 00 00 00	 call	 @__security_check_cookie@4
  0008c	8b e5		 mov	 esp, ebp
  0008e	5d		 pop	 ebp
  0008f	c2 04 00	 ret	 4
$LN8@GDReqMuRum:

; 1616 : 			obj->AccountID, obj->Name, __FILE__, __LINE__);
; 1617 : 		return;
; 1618 : 	}
; 1619 : 
; 1620 : 	CMuRummyCardInfo* pCCardInfo = pMuRummyInfo->GetCardInfo();

  00092	8b cf		 mov	 ecx, edi
  00094	e8 00 00 00 00	 call	 ?GetCardInfo@CMuRummyInfo@@QAEPAVCMuRummyCardInfo@@XZ ; CMuRummyInfo::GetCardInfo
  00099	89 45 90	 mov	 DWORD PTR _pCCardInfo$1$[ebp], eax

; 1621 : 
; 1622 : 	if (!pCCardInfo)

  0009c	85 c0		 test	 eax, eax
  0009e	75 33		 jne	 SHORT $LN9@GDReqMuRum

; 1623 :     {
; 1624 : 		LogAddTD("[MuRummy][Error] pCCardInfo is NULL [%s][%s] [%s, %d]",

  000a0	68 59 06 00 00	 push	 1625			; 00000659H
  000a5	68 00 00 00 00	 push	 OFFSET ??_C@_0M@DEILNLI@MuRummy?4cpp?$AA@
  000aa	8d 46 5d	 lea	 eax, DWORD PTR [esi+93]
  000ad	50		 push	 eax
  000ae	8d 46 52	 lea	 eax, DWORD PTR [esi+82]
  000b1	50		 push	 eax
  000b2	68 00 00 00 00	 push	 OFFSET ??_C@_0DG@KLOFMILL@?$FLMuRummy?$FN?$FLError?$FN?5pCCardInfo?5is?5N@
  000b7	ff 15 00 00 00
	00		 call	 DWORD PTR ?LogAddTD@@3P6AXPADZZA ; LogAddTD
  000bd	83 c4 14	 add	 esp, 20			; 00000014H
  000c0	5f		 pop	 edi
  000c1	5e		 pop	 esi
  000c2	5b		 pop	 ebx

; 1652 : }

  000c3	8b 4d fc	 mov	 ecx, DWORD PTR __$ArrayPad$[ebp]
  000c6	33 cd		 xor	 ecx, ebp
  000c8	e8 00 00 00 00	 call	 @__security_check_cookie@4
  000cd	8b e5		 mov	 esp, ebp
  000cf	5d		 pop	 ebp
  000d0	c2 04 00	 ret	 4
$LN9@GDReqMuRum:

; 1625 : 			obj->AccountID, obj->Name, __FILE__, __LINE__);
; 1626 : 		return;
; 1627 : 	}
; 1628 : 
; 1629 : 	_tagPMSG_REQ_MURUMMY_INFO_UPDATE_DS pMsg;

  000d3	8d 4d 98	 lea	 ecx, DWORD PTR _pMsg$[ebp]
  000d6	e8 00 00 00 00	 call	 ??0_tagPMSG_REQ_MURUMMY_INFO_UPDATE_DS@@QAE@XZ ; _tagPMSG_REQ_MURUMMY_INFO_UPDATE_DS::_tagPMSG_REQ_MURUMMY_INFO_UPDATE_DS

; 1630 : 	pMsg.h.set((LPBYTE)&pMsg, 0xE8, 0x06, sizeof(_tagPMSG_REQ_MURUMMY_INFO_UPDATE_DS));
; 1631 : 	memcpy(pMsg.AccountID, obj->AccountID, sizeof(pMsg.AccountID));

  000db	0f b7 46 5a	 movzx	 eax, WORD PTR [esi+90]
  000df	8d 4e 52	 lea	 ecx, DWORD PTR [esi+82]
  000e2	f3 0f 7e 01	 movq	 xmm0, QWORD PTR [ecx]

; 1634 : 	
; 1635 : 	for (int i = 0; i < MURUMMY_MAX_CARD; i++)

  000e6	33 db		 xor	 ebx, ebx
  000e8	66 89 45 a4	 mov	 WORD PTR _pMsg$[ebp+12], ax
  000ec	8a 41 0a	 mov	 al, BYTE PTR [ecx+10]
  000ef	89 4d 94	 mov	 DWORD PTR tv487[ebp], ecx
  000f2	8d 4e 5d	 lea	 ecx, DWORD PTR [esi+93]
  000f5	8b 75 90	 mov	 esi, DWORD PTR _pCCardInfo$1$[ebp]
  000f8	88 45 a6	 mov	 BYTE PTR _pMsg$[ebp+14], al
  000fb	83 c6 08	 add	 esi, 8
  000fe	0f b7 41 08	 movzx	 eax, WORD PTR [ecx+8]
  00102	66 89 45 af	 mov	 WORD PTR _pMsg$[ebp+23], ax
  00106	8a 41 0a	 mov	 al, BYTE PTR [ecx+10]
  00109	66 0f d6 45 9c	 movq	 QWORD PTR _pMsg$[ebp+4], xmm0
  0010e	f3 0f 7e 01	 movq	 xmm0, QWORD PTR [ecx]
  00112	88 45 b1	 mov	 BYTE PTR _pMsg$[ebp+25], al
  00115	0f b7 47 04	 movzx	 eax, WORD PTR [edi+4]
  00119	8d 7d b6	 lea	 edi, DWORD PTR _pMsg$[ebp+30]
; File c:\users\michel\desktop\source\gameserver\include\prodef.h

; 140  : 		lpBuf[0] = 0xC1;

  0011c	c7 45 98 c1 64
	e8 06		 mov	 DWORD PTR _pMsg$[ebp], 115893441 ; 06e864c1H
; File c:\users\michel\desktop\source\gameserver\source\murummy.cpp

; 1632 : 	memcpy(pMsg.Name, obj->Name, sizeof(pMsg.Name));

  00123	89 4d 88	 mov	 DWORD PTR tv488[ebp], ecx
  00126	66 0f d6 45 a7	 movq	 QWORD PTR _pMsg$[ebp+15], xmm0

; 1633 : 	pMsg.wScore = pMuRummyInfo->GetScore();

  0012b	66 89 45 b2	 mov	 WORD PTR _pMsg$[ebp+26], ax
  0012f	90		 npad	 1
$LL4@GDReqMuRum:

; 1636 : 	{
; 1637 : 		pMsg.stMuRummyCardUpdateDS[i].btSlotNum = pCCardInfo[i].GetSlotNum();

  00130	8a 46 04	 mov	 al, BYTE PTR [esi+4]
  00133	88 47 fe	 mov	 BYTE PTR [edi-2], al

; 1638 : 		pMsg.stMuRummyCardUpdateDS[i].btStatus = pCCardInfo[i].GetState();

  00136	8a 06		 mov	 al, BYTE PTR [esi]
  00138	88 07		 mov	 BYTE PTR [edi], al

; 1639 : 		pMsg.stMuRummyCardUpdateDS[i].btSeq = i;

  0013a	88 5f ff	 mov	 BYTE PTR [edi-1], bl

; 1640 : 
; 1641 : 		if (pCCardInfo[i].GetColor() != (BYTE)-1)

  0013d	8b 46 f8	 mov	 eax, DWORD PTR [esi-8]
  00140	3d ff 00 00 00	 cmp	 eax, 255		; 000000ffH
  00145	74 29		 je	 SHORT $LN2@GDReqMuRum

; 1642 : 		{
; 1643 : 			LogAddTD("[MuRummy] MuRummy Info Save [%s][%s] [%d][%c][%d][%d] ",

  00147	ff 36		 push	 DWORD PTR [esi]
  00149	8b 4d 8c	 mov	 ecx, DWORD PTR _this$GSCopy$1$[ebp]
  0014c	ff 76 fc	 push	 DWORD PTR [esi-4]
  0014f	50		 push	 eax
  00150	e8 00 00 00 00	 call	 ?GetColorName@CMuRummyMng@@QAEDH@Z ; CMuRummyMng::GetColorName
  00155	0f be c0	 movsx	 eax, al
  00158	50		 push	 eax
  00159	ff 76 04	 push	 DWORD PTR [esi+4]
  0015c	ff 75 88	 push	 DWORD PTR tv488[ebp]
  0015f	ff 75 94	 push	 DWORD PTR tv487[ebp]
  00162	68 00 00 00 00	 push	 OFFSET ??_C@_0DH@MKDFIBOM@?$FLMuRummy?$FN?5MuRummy?5Info?5Save?5?$FL?$CFs?$FN@
  00167	ff 15 00 00 00
	00		 call	 DWORD PTR ?LogAddTD@@3P6AXPADZZA ; LogAddTD
  0016d	83 c4 1c	 add	 esp, 28			; 0000001cH
$LN2@GDReqMuRum:

; 1634 : 	
; 1635 : 	for (int i = 0; i < MURUMMY_MAX_CARD; i++)

  00170	43		 inc	 ebx
  00171	83 c7 03	 add	 edi, 3
  00174	83 c6 10	 add	 esi, 16			; 00000010H
  00177	83 fb 18	 cmp	 ebx, 24			; 00000018H
  0017a	7c b4		 jl	 SHORT $LL4@GDReqMuRum

; 1644 : 				obj->AccountID, obj->Name, pCCardInfo[i].GetSlotNum(),
; 1645 : 				this->GetColorName(pCCardInfo[i].GetColor()),
; 1646 : 				pCCardInfo[i].GetNumber(), pCCardInfo[i].GetState());
; 1647 : 
; 1648 : 		}
; 1649 : 	}
; 1650 : 
; 1651 : 	cDBSMng.Send((PCHAR)&pMsg, pMsg.h.size);

  0017c	0f b6 45 99	 movzx	 eax, BYTE PTR _pMsg$[ebp+1]
  00180	b9 00 00 00 00	 mov	 ecx, OFFSET ?cDBSMng@@3VDBSockMng@@A ; cDBSMng
  00185	50		 push	 eax
  00186	8d 45 98	 lea	 eax, DWORD PTR _pMsg$[ebp]
  00189	50		 push	 eax
  0018a	e8 00 00 00 00	 call	 ?Send@DBSockMng@@QAEHPADH@Z ; DBSockMng::Send
  0018f	5f		 pop	 edi
$LN1@GDReqMuRum:

; 1652 : }

  00190	8b 4d fc	 mov	 ecx, DWORD PTR __$ArrayPad$[ebp]
  00193	5e		 pop	 esi
  00194	33 cd		 xor	 ecx, ebp
  00196	5b		 pop	 ebx
  00197	e8 00 00 00 00	 call	 @__security_check_cookie@4
  0019c	8b e5		 mov	 esp, ebp
  0019e	5d		 pop	 ebp
  0019f	c2 04 00	 ret	 4
?GDReqMuRummyInfoUpdate@CMuRummyMng@@QAEXPAUOBJECTSTRUCT@@@Z ENDP ; CMuRummyMng::GDReqMuRummyInfoUpdate
_TEXT	ENDS
; Function compile flags: /Ogtp
; File c:\users\michel\desktop\source\gameserver\source\murummy.cpp
; File c:\users\michel\desktop\source\gameserver\source\murummyprotocol.h
; File c:\users\michel\desktop\source\gameserver\include\prodef.h
; File c:\users\michel\desktop\source\gameserver\source\murummy.cpp
;	COMDAT ?GDReqSlotInfoUpdate@CMuRummyMng@@QAEXPAUOBJECTSTRUCT@@EEE@Z
_TEXT	SEGMENT
_pMsg$ = -36						; size = 29
__$ArrayPad$ = -4					; size = 4
_obj$ = 8						; size = 4
_btSeq$ = 12						; size = 1
_btSlotNum$ = 16					; size = 1
_btStatus$ = 20						; size = 1
?GDReqSlotInfoUpdate@CMuRummyMng@@QAEXPAUOBJECTSTRUCT@@EEE@Z PROC ; CMuRummyMng::GDReqSlotInfoUpdate, COMDAT
; _this$ = ecx

; 1575 : {

  00000	55		 push	 ebp
  00001	8b ec		 mov	 ebp, esp
  00003	83 ec 24	 sub	 esp, 36			; 00000024H
  00006	a1 00 00 00 00	 mov	 eax, DWORD PTR ___security_cookie
  0000b	33 c5		 xor	 eax, ebp
  0000d	89 45 fc	 mov	 DWORD PTR __$ArrayPad$[ebp], eax

; 1579 : 	if (btSlotNum < 0 || btSlotNum > 4)

  00010	8a 55 10	 mov	 dl, BYTE PTR _btSlotNum$[ebp]
  00013	8b 4d 08	 mov	 ecx, DWORD PTR _obj$[ebp]
; File c:\users\michel\desktop\source\gameserver\source\murummyprotocol.h

; 39   : 		this->btSlotNum = -1;

  00016	66 c7 45 f6 ff
	ff		 mov	 WORD PTR _pMsg$[ebp+26], 65535 ; 0000ffffH

; 40   : 		this->btSeq = -1;
; 41   : 		this->btStatus = -1;

  0001c	c6 45 f8 ff	 mov	 BYTE PTR _pMsg$[ebp+28], 255 ; 000000ffH
; File c:\users\michel\desktop\source\gameserver\include\prodef.h

; 140  : 		lpBuf[0] = 0xC1;

  00020	c7 45 dc c1 1d
	e8 05		 mov	 DWORD PTR _pMsg$[ebp], 99098049 ; 05e81dc1H
; File c:\users\michel\desktop\source\gameserver\source\murummy.cpp

; 1579 : 	if (btSlotNum < 0 || btSlotNum > 4)

  00027	80 fa 04	 cmp	 dl, 4
  0002a	77 61		 ja	 SHORT $LN3@GDReqSlotI

; 1582 : 			btSlotNum, obj->AccountID, obj->Name, __FILE__, __LINE__);
; 1583 : 		return;
; 1584 : 	}
; 1585 : 
; 1586 : 	pMsg.stCardUpdateDS.btSeq = btSeq;

  0002c	8a 45 0c	 mov	 al, BYTE PTR _btSeq$[ebp]

; 1587 :     pMsg.stCardUpdateDS.btStatus = btStatus;
; 1588 :     pMsg.stCardUpdateDS.btSlotNum = btSlotNum;
; 1589 :     memcpy(pMsg.AccountID, obj->AccountID, sizeof(pMsg.AccountID));

  0002f	f3 0f 7e 41 52	 movq	 xmm0, QWORD PTR [ecx+82]
  00034	88 45 f7	 mov	 BYTE PTR _pMsg$[ebp+27], al
  00037	8a 45 14	 mov	 al, BYTE PTR _btStatus$[ebp]
  0003a	88 45 f8	 mov	 BYTE PTR _pMsg$[ebp+28], al
  0003d	0f b7 41 5a	 movzx	 eax, WORD PTR [ecx+90]
  00041	66 89 45 e8	 mov	 WORD PTR _pMsg$[ebp+12], ax
  00045	0f b6 41 5c	 movzx	 eax, BYTE PTR [ecx+92]
  00049	88 45 ea	 mov	 BYTE PTR _pMsg$[ebp+14], al

; 1590 : 	memcpy(pMsg.Name, obj->Name, sizeof(pMsg.Name));

  0004c	0f b7 41 65	 movzx	 eax, WORD PTR [ecx+101]
  00050	66 89 45 f3	 mov	 WORD PTR _pMsg$[ebp+23], ax
  00054	0f b6 41 67	 movzx	 eax, BYTE PTR [ecx+103]
  00058	88 45 f5	 mov	 BYTE PTR _pMsg$[ebp+25], al

; 1591 : 	cDBSMng.Send((PCHAR)&pMsg, pMsg.h.size);

  0005b	8d 45 dc	 lea	 eax, DWORD PTR _pMsg$[ebp]
  0005e	66 0f d6 45 e0	 movq	 QWORD PTR _pMsg$[ebp+4], xmm0
  00063	f3 0f 7e 41 5d	 movq	 xmm0, QWORD PTR [ecx+93]
  00068	b9 00 00 00 00	 mov	 ecx, OFFSET ?cDBSMng@@3VDBSockMng@@A ; cDBSMng
  0006d	6a 1d		 push	 29			; 0000001dH
  0006f	50		 push	 eax
  00070	88 55 f6	 mov	 BYTE PTR _pMsg$[ebp+26], dl
  00073	66 0f d6 45 eb	 movq	 QWORD PTR _pMsg$[ebp+15], xmm0
  00078	e8 00 00 00 00	 call	 ?Send@DBSockMng@@QAEHPADH@Z ; DBSockMng::Send

; 1592 : }

  0007d	8b 4d fc	 mov	 ecx, DWORD PTR __$ArrayPad$[ebp]
  00080	33 cd		 xor	 ecx, ebp
  00082	e8 00 00 00 00	 call	 @__security_check_cookie@4
  00087	8b e5		 mov	 esp, ebp
  00089	5d		 pop	 ebp
  0008a	c2 10 00	 ret	 16			; 00000010H
$LN3@GDReqSlotI:

; 1580 : 	{
; 1581 : 		LogAddTD("[MuRummy][Error] btSlotNum[%d]  [%s][%s] [%s, %d]",

  0008d	68 2e 06 00 00	 push	 1582			; 0000062eH
  00092	68 00 00 00 00	 push	 OFFSET ??_C@_0M@DEILNLI@MuRummy?4cpp?$AA@
  00097	8d 41 5d	 lea	 eax, DWORD PTR [ecx+93]
  0009a	50		 push	 eax
  0009b	8d 41 52	 lea	 eax, DWORD PTR [ecx+82]
  0009e	50		 push	 eax
  0009f	0f b6 c2	 movzx	 eax, dl
  000a2	50		 push	 eax
  000a3	68 00 00 00 00	 push	 OFFSET ??_C@_0DC@IGBMHAPK@?$FLMuRummy?$FN?$FLError?$FN?5btSlotNum?$FL?$CFd?$FN?5?5@
  000a8	ff 15 00 00 00
	00		 call	 DWORD PTR ?LogAddTD@@3P6AXPADZZA ; LogAddTD

; 1592 : }

  000ae	8b 4d fc	 mov	 ecx, DWORD PTR __$ArrayPad$[ebp]
  000b1	83 c4 18	 add	 esp, 24			; 00000018H
  000b4	33 cd		 xor	 ecx, ebp
  000b6	e8 00 00 00 00	 call	 @__security_check_cookie@4
  000bb	8b e5		 mov	 esp, ebp
  000bd	5d		 pop	 ebp
  000be	c2 10 00	 ret	 16			; 00000010H
?GDReqSlotInfoUpdate@CMuRummyMng@@QAEXPAUOBJECTSTRUCT@@EEE@Z ENDP ; CMuRummyMng::GDReqSlotInfoUpdate
_TEXT	ENDS
; Function compile flags: /Ogtp
; File c:\users\michel\desktop\source\gameserver\source\murummy.cpp
; File c:\users\michel\desktop\source\gameserver\include\prodef.h
; File c:\users\michel\desktop\source\gameserver\source\murummy.cpp
;	COMDAT ?GDReqScoreDelete@CMuRummyMng@@QAEXPAUOBJECTSTRUCT@@@Z
_TEXT	SEGMENT
_pMsg$ = -32						; size = 26
__$ArrayPad$ = -4					; size = 4
_obj$ = 8						; size = 4
?GDReqScoreDelete@CMuRummyMng@@QAEXPAUOBJECTSTRUCT@@@Z PROC ; CMuRummyMng::GDReqScoreDelete, COMDAT
; _this$ = ecx

; 1566 : {

  00000	55		 push	 ebp
  00001	8b ec		 mov	 ebp, esp
  00003	83 ec 20	 sub	 esp, 32			; 00000020H
  00006	a1 00 00 00 00	 mov	 eax, DWORD PTR ___security_cookie
  0000b	33 c5		 xor	 eax, ebp
  0000d	89 45 fc	 mov	 DWORD PTR __$ArrayPad$[ebp], eax
  00010	8b 4d 08	 mov	 ecx, DWORD PTR _obj$[ebp]

; 1571 : 	cDBSMng.Send((PCHAR)&pMsg, pMsg.h.size);

  00013	6a 26		 push	 38			; 00000026H
; File c:\users\michel\desktop\source\gameserver\include\prodef.h

; 140  : 		lpBuf[0] = 0xC1;

  00015	c7 45 e0 c1 26
	e8 04		 mov	 DWORD PTR _pMsg$[ebp], 82323137 ; 04e826c1H
; File c:\users\michel\desktop\source\gameserver\source\murummy.cpp

; 1569 : 	memcpy(pMsg.AccountID, obj->AccountID, sizeof(pMsg.AccountID));

  0001c	0f b7 41 5a	 movzx	 eax, WORD PTR [ecx+90]
  00020	f3 0f 7e 41 52	 movq	 xmm0, QWORD PTR [ecx+82]
  00025	66 89 45 ec	 mov	 WORD PTR _pMsg$[ebp+12], ax
  00029	0f b6 41 5c	 movzx	 eax, BYTE PTR [ecx+92]
  0002d	88 45 ee	 mov	 BYTE PTR _pMsg$[ebp+14], al

; 1570 : 	memcpy(pMsg.Name, obj->Name, sizeof(pMsg.Name));

  00030	0f b7 41 65	 movzx	 eax, WORD PTR [ecx+101]
  00034	66 89 45 f7	 mov	 WORD PTR _pMsg$[ebp+23], ax
  00038	0f b6 41 67	 movzx	 eax, BYTE PTR [ecx+103]
  0003c	88 45 f9	 mov	 BYTE PTR _pMsg$[ebp+25], al

; 1571 : 	cDBSMng.Send((PCHAR)&pMsg, pMsg.h.size);

  0003f	8d 45 e0	 lea	 eax, DWORD PTR _pMsg$[ebp]
  00042	66 0f d6 45 e4	 movq	 QWORD PTR _pMsg$[ebp+4], xmm0
  00047	f3 0f 7e 41 5d	 movq	 xmm0, QWORD PTR [ecx+93]
  0004c	b9 00 00 00 00	 mov	 ecx, OFFSET ?cDBSMng@@3VDBSockMng@@A ; cDBSMng
  00051	50		 push	 eax
  00052	66 0f d6 45 ef	 movq	 QWORD PTR _pMsg$[ebp+15], xmm0
  00057	e8 00 00 00 00	 call	 ?Send@DBSockMng@@QAEHPADH@Z ; DBSockMng::Send

; 1572 : }

  0005c	8b 4d fc	 mov	 ecx, DWORD PTR __$ArrayPad$[ebp]
  0005f	33 cd		 xor	 ecx, ebp
  00061	e8 00 00 00 00	 call	 @__security_check_cookie@4
  00066	8b e5		 mov	 esp, ebp
  00068	5d		 pop	 ebp
  00069	c2 04 00	 ret	 4
?GDReqScoreDelete@CMuRummyMng@@QAEXPAUOBJECTSTRUCT@@@Z ENDP ; CMuRummyMng::GDReqScoreDelete
_TEXT	ENDS
; Function compile flags: /Ogtp
; File c:\users\michel\desktop\source\gameserver\source\murummy.cpp
; File c:\users\michel\desktop\source\gameserver\include\prodef.h
; File c:\users\michel\desktop\source\gameserver\source\murummy.cpp
;	COMDAT ?GDReqScoreUpdate@CMuRummyMng@@QAEXPAUOBJECTSTRUCT@@GPAU_tagMuRummyCardUpdateDS@@@Z
_TEXT	SEGMENT
_pMsg$ = -44						; size = 38
__$ArrayPad$ = -4					; size = 4
_obj$ = 8						; size = 4
_wScore$ = 12						; size = 2
_pCardUpdateDS$ = 16					; size = 4
?GDReqScoreUpdate@CMuRummyMng@@QAEXPAUOBJECTSTRUCT@@GPAU_tagMuRummyCardUpdateDS@@@Z PROC ; CMuRummyMng::GDReqScoreUpdate, COMDAT
; _this$ = ecx

; 1555 : {

  00000	55		 push	 ebp
  00001	8b ec		 mov	 ebp, esp
  00003	83 ec 2c	 sub	 esp, 44			; 0000002cH
  00006	a1 00 00 00 00	 mov	 eax, DWORD PTR ___security_cookie
  0000b	33 c5		 xor	 eax, ebp
  0000d	89 45 fc	 mov	 DWORD PTR __$ArrayPad$[ebp], eax
  00010	8b 4d 08	 mov	 ecx, DWORD PTR _obj$[ebp]
  00013	8b 55 10	 mov	 edx, DWORD PTR _pCardUpdateDS$[ebp]

; 1562 : 	cDBSMng.Send((PCHAR)&pMsg, pMsg.h.size);

  00016	6a 26		 push	 38			; 00000026H
; File c:\users\michel\desktop\source\gameserver\include\prodef.h

; 140  : 		lpBuf[0] = 0xC1;

  00018	c7 45 d4 c1 26
	e8 02		 mov	 DWORD PTR _pMsg$[ebp], 48768705 ; 02e826c1H
; File c:\users\michel\desktop\source\gameserver\source\murummy.cpp

; 1558 : 	memcpy(pMsg.AccountID, obj->AccountID, sizeof(pMsg.AccountID));

  0001f	0f b7 41 5a	 movzx	 eax, WORD PTR [ecx+90]
  00023	f3 0f 7e 41 52	 movq	 xmm0, QWORD PTR [ecx+82]
  00028	66 89 45 e0	 mov	 WORD PTR _pMsg$[ebp+12], ax
  0002c	0f b6 41 5c	 movzx	 eax, BYTE PTR [ecx+92]
  00030	88 45 e2	 mov	 BYTE PTR _pMsg$[ebp+14], al

; 1559 : 	memcpy(pMsg.Name, obj->Name, sizeof(pMsg.Name));

  00033	0f b7 41 65	 movzx	 eax, WORD PTR [ecx+101]
  00037	66 89 45 eb	 mov	 WORD PTR _pMsg$[ebp+23], ax
  0003b	0f b6 41 67	 movzx	 eax, BYTE PTR [ecx+103]
  0003f	88 45 ed	 mov	 BYTE PTR _pMsg$[ebp+25], al

; 1560 : 	memcpy(pMsg.stCardUpdateDS, &pCardUpdateDS->btSlotNum, sizeof(pMsg.stCardUpdateDS));

  00042	0f b6 42 08	 movzx	 eax, BYTE PTR [edx+8]
  00046	88 45 f8	 mov	 BYTE PTR _pMsg$[ebp+36], al

; 1561 : 	pMsg.wScore = wScore;

  00049	66 8b 45 0c	 mov	 ax, WORD PTR _wScore$[ebp]
  0004d	66 0f d6 45 d8	 movq	 QWORD PTR _pMsg$[ebp+4], xmm0
  00052	f3 0f 7e 41 5d	 movq	 xmm0, QWORD PTR [ecx+93]

; 1562 : 	cDBSMng.Send((PCHAR)&pMsg, pMsg.h.size);

  00057	b9 00 00 00 00	 mov	 ecx, OFFSET ?cDBSMng@@3VDBSockMng@@A ; cDBSMng
  0005c	66 89 45 ee	 mov	 WORD PTR _pMsg$[ebp+26], ax
  00060	8d 45 d4	 lea	 eax, DWORD PTR _pMsg$[ebp]
  00063	66 0f d6 45 e3	 movq	 QWORD PTR _pMsg$[ebp+15], xmm0
  00068	f3 0f 7e 02	 movq	 xmm0, QWORD PTR [edx]
  0006c	50		 push	 eax
  0006d	66 0f d6 45 f0	 movq	 QWORD PTR _pMsg$[ebp+28], xmm0
  00072	e8 00 00 00 00	 call	 ?Send@DBSockMng@@QAEHPADH@Z ; DBSockMng::Send

; 1563 : }

  00077	8b 4d fc	 mov	 ecx, DWORD PTR __$ArrayPad$[ebp]
  0007a	33 cd		 xor	 ecx, ebp
  0007c	e8 00 00 00 00	 call	 @__security_check_cookie@4
  00081	8b e5		 mov	 esp, ebp
  00083	5d		 pop	 ebp
  00084	c2 0c 00	 ret	 12			; 0000000cH
?GDReqScoreUpdate@CMuRummyMng@@QAEXPAUOBJECTSTRUCT@@GPAU_tagMuRummyCardUpdateDS@@@Z ENDP ; CMuRummyMng::GDReqScoreUpdate
_TEXT	ENDS
; Function compile flags: /Ogtp
; File c:\users\michel\desktop\source\gameserver\source\murummy.cpp
; File c:\users\michel\desktop\source\gameserver\include\prodef.h
; File c:\users\michel\desktop\source\gameserver\source\murummy.cpp
;	COMDAT ?GDReqCardInfoUpdate@CMuRummyMng@@QAEXPAUOBJECTSTRUCT@@PAVCMuRummyCardInfo@@H@Z
_TEXT	SEGMENT
_pMsg$ = -36						; size = 29
__$ArrayPad$ = -4					; size = 4
_obj$ = 8						; size = 4
_pCCardInfo$ = 12					; size = 4
_iSeq$ = 16						; size = 4
?GDReqCardInfoUpdate@CMuRummyMng@@QAEXPAUOBJECTSTRUCT@@PAVCMuRummyCardInfo@@H@Z PROC ; CMuRummyMng::GDReqCardInfoUpdate, COMDAT
; _this$ = ecx

; 1544 : {

  00000	55		 push	 ebp
  00001	8b ec		 mov	 ebp, esp
  00003	83 ec 24	 sub	 esp, 36			; 00000024H
  00006	a1 00 00 00 00	 mov	 eax, DWORD PTR ___security_cookie
  0000b	33 c5		 xor	 eax, ebp
  0000d	89 45 fc	 mov	 DWORD PTR __$ArrayPad$[ebp], eax
  00010	8b 4d 08	 mov	 ecx, DWORD PTR _obj$[ebp]
  00013	8b 55 0c	 mov	 edx, DWORD PTR _pCCardInfo$[ebp]

; 1551 : 	cDBSMng.Send((PCHAR)&pMsg, pMsg.h.size);

  00016	68 94 00 00 00	 push	 148			; 00000094H
; File c:\users\michel\desktop\source\gameserver\include\prodef.h

; 140  : 		lpBuf[0] = 0xC1;

  0001b	c7 45 dc c1 94
	e8 03		 mov	 DWORD PTR _pMsg$[ebp], 65574081 ; 03e894c1H
; File c:\users\michel\desktop\source\gameserver\source\murummy.cpp

; 1547 : 	memcpy(pMsg.AccountID, obj->AccountID, sizeof(pMsg.AccountID));

  00022	0f b7 41 5a	 movzx	 eax, WORD PTR [ecx+90]
  00026	f3 0f 7e 41 52	 movq	 xmm0, QWORD PTR [ecx+82]
  0002b	66 89 45 e8	 mov	 WORD PTR _pMsg$[ebp+12], ax
  0002f	0f b6 41 5c	 movzx	 eax, BYTE PTR [ecx+92]
  00033	88 45 ea	 mov	 BYTE PTR _pMsg$[ebp+14], al

; 1548 : 	memcpy(pMsg.Name, obj->Name, sizeof(pMsg.Name));

  00036	0f b7 41 65	 movzx	 eax, WORD PTR [ecx+101]
  0003a	66 89 45 f3	 mov	 WORD PTR _pMsg$[ebp+23], ax
  0003e	0f b6 41 67	 movzx	 eax, BYTE PTR [ecx+103]
  00042	88 45 f5	 mov	 BYTE PTR _pMsg$[ebp+25], al

; 1549 : 	pMsg.btSlotNum = pCCardInfo->GetSlotNum();

  00045	0f b6 42 0c	 movzx	 eax, BYTE PTR [edx+12]
  00049	88 45 f6	 mov	 BYTE PTR _pMsg$[ebp+26], al

; 1550 : 	pMsg.btStatus = pCCardInfo->GetState();

  0004c	0f b6 42 08	 movzx	 eax, BYTE PTR [edx+8]
  00050	88 45 f7	 mov	 BYTE PTR _pMsg$[ebp+27], al

; 1551 : 	cDBSMng.Send((PCHAR)&pMsg, pMsg.h.size);

  00053	8d 45 dc	 lea	 eax, DWORD PTR _pMsg$[ebp]
  00056	66 0f d6 45 e0	 movq	 QWORD PTR _pMsg$[ebp+4], xmm0
  0005b	f3 0f 7e 41 5d	 movq	 xmm0, QWORD PTR [ecx+93]
  00060	b9 00 00 00 00	 mov	 ecx, OFFSET ?cDBSMng@@3VDBSockMng@@A ; cDBSMng
  00065	50		 push	 eax
  00066	66 0f d6 45 eb	 movq	 QWORD PTR _pMsg$[ebp+15], xmm0
  0006b	e8 00 00 00 00	 call	 ?Send@DBSockMng@@QAEHPADH@Z ; DBSockMng::Send

; 1552 : }

  00070	8b 4d fc	 mov	 ecx, DWORD PTR __$ArrayPad$[ebp]
  00073	33 cd		 xor	 ecx, ebp
  00075	e8 00 00 00 00	 call	 @__security_check_cookie@4
  0007a	8b e5		 mov	 esp, ebp
  0007c	5d		 pop	 ebp
  0007d	c2 0c 00	 ret	 12			; 0000000cH
?GDReqCardInfoUpdate@CMuRummyMng@@QAEXPAUOBJECTSTRUCT@@PAVCMuRummyCardInfo@@H@Z ENDP ; CMuRummyMng::GDReqCardInfoUpdate
_TEXT	ENDS
; Function compile flags: /Ogtp
; File c:\users\michel\desktop\source\gameserver\source\murummy.cpp
; File c:\users\michel\desktop\source\gameserver\include\prodef.h
; File c:\users\michel\desktop\source\gameserver\source\murummy.cpp
;	COMDAT ?GDReqCardInfoInsert@CMuRummyMng@@QAEXPAUOBJECTSTRUCT@@@Z
_TEXT	SEGMENT
_pCCardInfo$1$ = -156					; size = 4
_pMuRummyInfo$ = -156					; size = 4
_pMsg$ = -152						; size = 148
__$ArrayPad$ = -4					; size = 4
_obj$ = 8						; size = 4
?GDReqCardInfoInsert@CMuRummyMng@@QAEXPAUOBJECTSTRUCT@@@Z PROC ; CMuRummyMng::GDReqCardInfoInsert, COMDAT
; _this$ = ecx

; 1480 : {

  00000	55		 push	 ebp
  00001	8b ec		 mov	 ebp, esp
  00003	81 ec 9c 00 00
	00		 sub	 esp, 156		; 0000009cH
  00009	a1 00 00 00 00	 mov	 eax, DWORD PTR ___security_cookie
  0000e	33 c5		 xor	 eax, ebp
  00010	89 45 fc	 mov	 DWORD PTR __$ArrayPad$[ebp], eax
  00013	56		 push	 esi
  00014	8b 75 08	 mov	 esi, DWORD PTR _obj$[ebp]
  00017	57		 push	 edi
  00018	8b f9		 mov	 edi, ecx

; 1481 : 	if (!OBJMAX_RANGE(obj->m_Index))

  0001a	8b 16		 mov	 edx, DWORD PTR [esi]
  0001c	85 d2		 test	 edx, edx
  0001e	0f 88 a1 01 00
	00		 js	 $LN1@GDReqCardI
  00024	33 c0		 xor	 eax, eax
  00026	81 fa eb 2c 00
	00		 cmp	 edx, 11499		; 00002cebH
  0002c	0f 9e c0	 setle	 al
  0002f	85 c0		 test	 eax, eax
  00031	0f 84 8e 01 00
	00		 je	 $LN1@GDReqCardI

; 1482 : 	{
; 1483 : 		return;
; 1484 : 	}
; 1485 : 
; 1486 : 	if (!gObjIsConnected(obj->m_Index))

  00037	52		 push	 edx
  00038	e8 00 00 00 00	 call	 ?gObjIsConnected@@YAHH@Z ; gObjIsConnected
  0003d	83 c4 04	 add	 esp, 4
  00040	85 c0		 test	 eax, eax
  00042	0f 84 7d 01 00
	00		 je	 $LN1@GDReqCardI

; 1487 : 	{
; 1488 : 		return;
; 1489 : 	}
; 1490 : 
; 1491 : 	if (!this->IsMuRummyEventOn())

  00048	8b cf		 mov	 ecx, edi
  0004a	e8 00 00 00 00	 call	 ?IsMuRummyEventOn@CMuRummyMng@@QAEHXZ ; CMuRummyMng::IsMuRummyEventOn
  0004f	85 c0		 test	 eax, eax
  00051	0f 84 6e 01 00
	00		 je	 $LN1@GDReqCardI

; 1492 : 	{
; 1493 : 		return;
; 1494 : 	}
; 1495 : 
; 1496 : 	CMuRummyInfo* pMuRummyInfo;// = obj->m_pCMuRummyInfo;
; 1497 : 
; 1498 : 	if (!pMuRummyInfo)

  00057	8b bd 64 ff ff
	ff		 mov	 edi, DWORD PTR _pMuRummyInfo$[ebp]
  0005d	85 ff		 test	 edi, edi
  0005f	75 32		 jne	 SHORT $LN8@GDReqCardI

; 1499 : 	{
; 1500 : 		LogAddTD("[MuRummy][Error] pMuRummyInfo is NULL [%s][%s] [%s, %d]",

  00061	68 dd 05 00 00	 push	 1501			; 000005ddH
  00066	68 00 00 00 00	 push	 OFFSET ??_C@_0M@DEILNLI@MuRummy?4cpp?$AA@
  0006b	8d 46 5d	 lea	 eax, DWORD PTR [esi+93]
  0006e	50		 push	 eax
  0006f	8d 46 52	 lea	 eax, DWORD PTR [esi+82]
  00072	50		 push	 eax
  00073	68 00 00 00 00	 push	 OFFSET ??_C@_0DI@HLPPLHAH@?$FLMuRummy?$FN?$FLError?$FN?5pMuRummyInfo?5is@
  00078	ff 15 00 00 00
	00		 call	 DWORD PTR ?LogAddTD@@3P6AXPADZZA ; LogAddTD
  0007e	83 c4 14	 add	 esp, 20			; 00000014H
  00081	5f		 pop	 edi
  00082	5e		 pop	 esi

; 1540 : }

  00083	8b 4d fc	 mov	 ecx, DWORD PTR __$ArrayPad$[ebp]
  00086	33 cd		 xor	 ecx, ebp
  00088	e8 00 00 00 00	 call	 @__security_check_cookie@4
  0008d	8b e5		 mov	 esp, ebp
  0008f	5d		 pop	 ebp
  00090	c2 04 00	 ret	 4
$LN8@GDReqCardI:

; 1501 : 			obj->AccountID, obj->Name, __FILE__, __LINE__);
; 1502 : 		return;
; 1503 : 	}
; 1504 : 
; 1505 : 	CMuRummyCardInfo* pCCardInfo = pMuRummyInfo->GetCardInfo();

  00093	8b cf		 mov	 ecx, edi
  00095	e8 00 00 00 00	 call	 ?GetCardInfo@CMuRummyInfo@@QAEPAVCMuRummyCardInfo@@XZ ; CMuRummyInfo::GetCardInfo
  0009a	89 85 64 ff ff
	ff		 mov	 DWORD PTR _pCCardInfo$1$[ebp], eax

; 1506 : 
; 1507 : 	if (!pCCardInfo)

  000a0	85 c0		 test	 eax, eax
  000a2	75 32		 jne	 SHORT $LN9@GDReqCardI

; 1508 : 	{
; 1509 : 		LogAddTD("[MuRummy][Error] pCCardInfo is NULL [%s][%s] [%s, %d]",

  000a4	68 e6 05 00 00	 push	 1510			; 000005e6H
  000a9	68 00 00 00 00	 push	 OFFSET ??_C@_0M@DEILNLI@MuRummy?4cpp?$AA@
  000ae	8d 46 5d	 lea	 eax, DWORD PTR [esi+93]
  000b1	50		 push	 eax
  000b2	8d 46 52	 lea	 eax, DWORD PTR [esi+82]
  000b5	50		 push	 eax
  000b6	68 00 00 00 00	 push	 OFFSET ??_C@_0DG@KLOFMILL@?$FLMuRummy?$FN?$FLError?$FN?5pCCardInfo?5is?5N@
  000bb	ff 15 00 00 00
	00		 call	 DWORD PTR ?LogAddTD@@3P6AXPADZZA ; LogAddTD
  000c1	83 c4 14	 add	 esp, 20			; 00000014H
  000c4	5f		 pop	 edi
  000c5	5e		 pop	 esi

; 1540 : }

  000c6	8b 4d fc	 mov	 ecx, DWORD PTR __$ArrayPad$[ebp]
  000c9	33 cd		 xor	 ecx, ebp
  000cb	e8 00 00 00 00	 call	 @__security_check_cookie@4
  000d0	8b e5		 mov	 esp, ebp
  000d2	5d		 pop	 ebp
  000d3	c2 04 00	 ret	 4
$LN9@GDReqCardI:

; 1510 : 			obj->AccountID, obj->Name, __FILE__, __LINE__);
; 1511 : 		return;
; 1512 : 	}
; 1513 : 
; 1514 : 	LPBYTE pSlotIndexInfo = pMuRummyInfo->GetSlotIndexInfo();

  000d6	8b cf		 mov	 ecx, edi
  000d8	e8 00 00 00 00	 call	 ?GetSlotIndexInfo@CMuRummyInfo@@QAEPAEXZ ; CMuRummyInfo::GetSlotIndexInfo

; 1515 : 
; 1516 : 	if (!pSlotIndexInfo)

  000dd	85 c0		 test	 eax, eax
  000df	75 32		 jne	 SHORT $LN10@GDReqCardI

; 1517 : 	{
; 1518 : 		LogAddTD("[MuRummy][Error] pSlotIndexInfo is NULL [%s][%s] [%s, %d]",

  000e1	68 ef 05 00 00	 push	 1519			; 000005efH
  000e6	68 00 00 00 00	 push	 OFFSET ??_C@_0M@DEILNLI@MuRummy?4cpp?$AA@
  000eb	8d 46 5d	 lea	 eax, DWORD PTR [esi+93]
  000ee	50		 push	 eax
  000ef	8d 46 52	 lea	 eax, DWORD PTR [esi+82]
  000f2	50		 push	 eax
  000f3	68 00 00 00 00	 push	 OFFSET ??_C@_0DK@IJOPKODH@?$FLMuRummy?$FN?$FLError?$FN?5pSlotIndexInfo?5@
  000f8	ff 15 00 00 00
	00		 call	 DWORD PTR ?LogAddTD@@3P6AXPADZZA ; LogAddTD
  000fe	83 c4 14	 add	 esp, 20			; 00000014H
  00101	5f		 pop	 edi
  00102	5e		 pop	 esi

; 1540 : }

  00103	8b 4d fc	 mov	 ecx, DWORD PTR __$ArrayPad$[ebp]
  00106	33 cd		 xor	 ecx, ebp
  00108	e8 00 00 00 00	 call	 @__security_check_cookie@4
  0010d	8b e5		 mov	 esp, ebp
  0010f	5d		 pop	 ebp
  00110	c2 04 00	 ret	 4
$LN10@GDReqCardI:
  00113	53		 push	 ebx

; 1519 : 			obj->AccountID, obj->Name, __FILE__, __LINE__);
; 1520 : 		return;
; 1521 : 	}
; 1522 : 
; 1523 : 	_tagPMSG_REQ_MURUMMY_INSERT_DS pMsg;

  00114	8d 8d 68 ff ff
	ff		 lea	 ecx, DWORD PTR _pMsg$[ebp]
  0011a	e8 00 00 00 00	 call	 ??0_tagPMSG_REQ_MURUMMY_INSERT_DS@@QAE@XZ ; _tagPMSG_REQ_MURUMMY_INSERT_DS::_tagPMSG_REQ_MURUMMY_INSERT_DS

; 1524 : 	pMsg.h.set((LPBYTE)&pMsg, 0xE8, 0x01, sizeof(_tagPMSG_REQ_MURUMMY_INSERT_DS));
; 1525 : 
; 1526 : 	memcpy(pMsg.AccountID, obj->AccountID, sizeof(pMsg.AccountID));

  0011f	0f b7 46 5a	 movzx	 eax, WORD PTR [esi+90]

; 1528 : 	pMsg.aIndex = obj->m_Index;
; 1529 : 
; 1530 : 	for (int i = 0; i < MURUMMY_MAX_CARD; i++)

  00123	33 db		 xor	 ebx, ebx
  00125	f3 0f 7e 46 52	 movq	 xmm0, QWORD PTR [esi+82]
  0012a	8b 95 64 ff ff
	ff		 mov	 edx, DWORD PTR _pCCardInfo$1$[ebp]
  00130	66 89 85 74 ff
	ff ff		 mov	 WORD PTR _pMsg$[ebp+12], ax
  00137	83 c2 0c	 add	 edx, 12			; 0000000cH
  0013a	0f b6 46 5c	 movzx	 eax, BYTE PTR [esi+92]
  0013e	88 85 76 ff ff
	ff		 mov	 BYTE PTR _pMsg$[ebp+14], al
  00144	0f b7 46 65	 movzx	 eax, WORD PTR [esi+101]
  00148	66 89 85 7f ff
	ff ff		 mov	 WORD PTR _pMsg$[ebp+23], ax
  0014f	0f b6 46 67	 movzx	 eax, BYTE PTR [esi+103]
  00153	88 45 81	 mov	 BYTE PTR _pMsg$[ebp+25], al
  00156	0f b7 06	 movzx	 eax, WORD PTR [esi]
  00159	66 0f d6 85 6c
	ff ff ff	 movq	 QWORD PTR _pMsg$[ebp+4], xmm0
  00161	f3 0f 7e 46 5d	 movq	 xmm0, QWORD PTR [esi+93]
  00166	66 89 45 82	 mov	 WORD PTR _pMsg$[ebp+26], ax
  0016a	8d 45 85	 lea	 eax, DWORD PTR _pMsg$[ebp+29]
; File c:\users\michel\desktop\source\gameserver\include\prodef.h

; 140  : 		lpBuf[0] = 0xC1;

  0016d	c7 85 68 ff ff
	ff c1 94 e8 01	 mov	 DWORD PTR _pMsg$[ebp], 32019649 ; 01e894c1H
; File c:\users\michel\desktop\source\gameserver\source\murummy.cpp

; 1527 : 	memcpy(pMsg.Name, obj->Name, sizeof(pMsg.Name));

  00177	66 0f d6 85 77
	ff ff ff	 movq	 QWORD PTR _pMsg$[ebp+15], xmm0
  0017f	90		 npad	 1
$LL4@GDReqCardI:

; 1531 : 	{
; 1532 : 		pMsg.stMuRummyCardInfoDS[i].btColor = pCCardInfo[i].GetColor();

  00180	0f b6 4a f4	 movzx	 ecx, BYTE PTR [edx-12]
  00184	8d 52 10	 lea	 edx, DWORD PTR [edx+16]
  00187	88 48 ff	 mov	 BYTE PTR [eax-1], cl
  0018a	8d 40 05	 lea	 eax, DWORD PTR [eax+5]

; 1533 : 		pMsg.stMuRummyCardInfoDS[i].btNumber = pCCardInfo[i].GetNumber();

  0018d	0f b6 4a e8	 movzx	 ecx, BYTE PTR [edx-24]
  00191	88 48 fb	 mov	 BYTE PTR [eax-5], cl

; 1534 :         pMsg.stMuRummyCardInfoDS[i].btSlotNum = pCCardInfo[i].GetSlotNum();

  00194	0f b6 4a f0	 movzx	 ecx, BYTE PTR [edx-16]
  00198	88 48 fc	 mov	 BYTE PTR [eax-4], cl

; 1535 : 		pMsg.stMuRummyCardInfoDS[i].btStatus = pCCardInfo[i].GetState();

  0019b	0f b6 4a ec	 movzx	 ecx, BYTE PTR [edx-20]

; 1536 : 		pMsg.stMuRummyCardInfoDS[i].btSeq = i;

  0019f	88 58 fd	 mov	 BYTE PTR [eax-3], bl
  001a2	43		 inc	 ebx
  001a3	88 48 fe	 mov	 BYTE PTR [eax-2], cl
  001a6	83 fb 18	 cmp	 ebx, 24			; 00000018H
  001a9	7c d5		 jl	 SHORT $LL4@GDReqCardI

; 1537 : 	}
; 1538 : 
; 1539 : 	cDBSMng.Send((PCHAR)&pMsg, pMsg.h.size);

  001ab	0f b6 85 69 ff
	ff ff		 movzx	 eax, BYTE PTR _pMsg$[ebp+1]
  001b2	b9 00 00 00 00	 mov	 ecx, OFFSET ?cDBSMng@@3VDBSockMng@@A ; cDBSMng
  001b7	50		 push	 eax
  001b8	8d 85 68 ff ff
	ff		 lea	 eax, DWORD PTR _pMsg$[ebp]
  001be	50		 push	 eax
  001bf	e8 00 00 00 00	 call	 ?Send@DBSockMng@@QAEHPADH@Z ; DBSockMng::Send
  001c4	5b		 pop	 ebx
$LN1@GDReqCardI:

; 1540 : }

  001c5	8b 4d fc	 mov	 ecx, DWORD PTR __$ArrayPad$[ebp]
  001c8	5f		 pop	 edi
  001c9	33 cd		 xor	 ecx, ebp
  001cb	5e		 pop	 esi
  001cc	e8 00 00 00 00	 call	 @__security_check_cookie@4
  001d1	8b e5		 mov	 esp, ebp
  001d3	5d		 pop	 ebp
  001d4	c2 04 00	 ret	 4
?GDReqCardInfoInsert@CMuRummyMng@@QAEXPAUOBJECTSTRUCT@@@Z ENDP ; CMuRummyMng::GDReqCardInfoInsert
_TEXT	ENDS
; Function compile flags: /Ogtp
; File c:\users\michel\desktop\source\gameserver\source\murummy.cpp
; File c:\users\michel\desktop\source\gameserver\include\prodef.h
; File c:\users\michel\desktop\source\gameserver\source\murummy.cpp
; File c:\users\michel\desktop\source\gameserver\source\murummy.h
; File c:\users\michel\desktop\source\gameserver\source\murummy.cpp
; File c:\users\michel\desktop\source\gameserver\source\murummy.h
; File c:\users\michel\desktop\source\gameserver\source\murummy.cpp
; File c:\users\michel\desktop\source\gameserver\source\murummy.h
; File c:\users\michel\desktop\source\gameserver\source\murummy.cpp
; File c:\users\michel\desktop\source\gameserver\source\murummy.h
; File c:\users\michel\desktop\source\gameserver\source\murummy.cpp
; File c:\users\michel\desktop\source\gameserver\source\murummy.h
; File c:\users\michel\desktop\source\gameserver\source\murummy.cpp
; File c:\users\michel\desktop\source\gameserver\source\murummy.h
; File c:\users\michel\desktop\source\gameserver\source\murummy.cpp
; File c:\users\michel\desktop\source\gameserver\source\murummy.h
; File c:\users\michel\desktop\source\gameserver\source\murummy.cpp
;	COMDAT ?GDAnsCardInfo@CMuRummyMng@@QAEXPAU_tagPMSG_ANS_MURUMMY_SELECT_DS@@@Z
_TEXT	SEGMENT
tv639 = -24						; size = 4
tv640 = -20						; size = 4
_pCCardInfo$1$ = -16					; size = 4
_pSlotIndexInfo$1$ = -12				; size = 4
_this$1$ = -8						; size = 4
_pMsg$ = -4						; size = 4
tv632 = 8						; size = 4
_pMuRummyInfo$ = 8					; size = 4
_lpMsg$ = 8						; size = 4
?GDAnsCardInfo@CMuRummyMng@@QAEXPAU_tagPMSG_ANS_MURUMMY_SELECT_DS@@@Z PROC ; CMuRummyMng::GDAnsCardInfo, COMDAT
; _this$ = ecx

; 1380 : {

  00000	55		 push	 ebp
  00001	8b ec		 mov	 ebp, esp
  00003	83 ec 18	 sub	 esp, 24			; 00000018H

; 1381 : 	int aIndex = lpMsg->aIndex;

  00006	8b 45 08	 mov	 eax, DWORD PTR _lpMsg$[ebp]
  00009	53		 push	 ebx
  0000a	89 4d f8	 mov	 DWORD PTR _this$1$[ebp], ecx
  0000d	0f b7 58 04	 movzx	 ebx, WORD PTR [eax+4]

; 1382 : 
; 1383 : 	if (!OBJMAX_RANGE(aIndex))

  00011	85 db		 test	 ebx, ebx
  00013	0f 88 b6 01 00
	00		 js	 $LN6@GDAnsCardI
  00019	33 c0		 xor	 eax, eax
  0001b	81 fb eb 2c 00
	00		 cmp	 ebx, 11499		; 00002cebH
  00021	0f 9e c0	 setle	 al
  00024	85 c0		 test	 eax, eax
  00026	0f 84 a3 01 00
	00		 je	 $LN6@GDAnsCardI

; 1384 : 	{
; 1385 : 		return;
; 1386 : 	}
; 1387 : 
; 1388 : 	if (!gObjIsConnected(aIndex))

  0002c	53		 push	 ebx
  0002d	e8 00 00 00 00	 call	 ?gObjIsConnected@@YAHH@Z ; gObjIsConnected
  00032	83 c4 04	 add	 esp, 4
  00035	85 c0		 test	 eax, eax
  00037	0f 84 92 01 00
	00		 je	 $LN6@GDAnsCardI

; 1389 : 	{
; 1390 : 		return;
; 1391 : 	}
; 1392 : 
; 1393 : 	LPOBJ lpObj = &gObj[aIndex];

  0003d	56		 push	 esi
  0003e	69 f3 40 27 00
	00		 imul	 esi, ebx, 10048
  00044	03 35 00 00 00
	00		 add	 esi, DWORD PTR ?gObj@@3PAUOBJECTSTRUCT@@A ; gObj

; 1394 : 
; 1395 : 	if (!lpObj)

  0004a	75 2a		 jne	 SHORT $LN10@GDAnsCardI

; 1396 : 	{
; 1397 : 		//LogAddTD("[MuRummy][Error] lpObj is NULL [%s][%s] [%s, %d]", 121, 132, __FILE__, __LINE__);
; 1398 : 		LogAddTD("[MuRummy][Error] lpObj is NULL [%s][%s] [%s, %d]", 'NONE', 'NONE', __FILE__, __LINE__);

  0004c	68 76 05 00 00	 push	 1398			; 00000576H
  00051	68 00 00 00 00	 push	 OFFSET ??_C@_0M@DEILNLI@MuRummy?4cpp?$AA@
  00056	68 45 4e 4f 4e	 push	 1313820229		; 4e4f4e45H
  0005b	68 45 4e 4f 4e	 push	 1313820229		; 4e4f4e45H
  00060	68 00 00 00 00	 push	 OFFSET ??_C@_0DB@JJKKLNEH@?$FLMuRummy?$FN?$FLError?$FN?5lpObj?5is?5NULL?5?$FL@
  00065	ff 15 00 00 00
	00		 call	 DWORD PTR ?LogAddTD@@3P6AXPADZZA ; LogAddTD
  0006b	83 c4 14	 add	 esp, 20			; 00000014H
  0006e	5e		 pop	 esi
  0006f	5b		 pop	 ebx

; 1473 : 			lpObj->AccountID, lpObj->Name, nArr, pCCardInfo[nArr].GetSlotNum(),
; 1474 : 			this->GetColorName(pCCardInfo[nArr].GetColor()),
; 1475 : 			pCCardInfo[nArr].GetNumber(), pCCardInfo[nArr].GetState());
; 1476 : 	}
; 1477 : }

  00070	8b e5		 mov	 esp, ebp
  00072	5d		 pop	 ebp
  00073	c2 04 00	 ret	 4
$LN10@GDAnsCardI:
  00076	57		 push	 edi

; 1399 : 		return;
; 1400 : 	}
; 1401 : 
; 1402 : 	CMuRummyInfo* pMuRummyInfo;// = lpObj->m_pCMuRummyInfo;
; 1403 : 
; 1404 : 	if (!pMuRummyInfo)

  00077	8b 7d 08	 mov	 edi, DWORD PTR _pMuRummyInfo$[ebp]
  0007a	85 ff		 test	 edi, edi
  0007c	75 29		 jne	 SHORT $LN11@GDAnsCardI

; 1405 : 	{
; 1406 : 		LogAddTD("[MuRummy][Error] pMuRummyInfo is NULL [%s][%s] [%s, %d]",

  0007e	68 7f 05 00 00	 push	 1407			; 0000057fH
  00083	68 00 00 00 00	 push	 OFFSET ??_C@_0M@DEILNLI@MuRummy?4cpp?$AA@
  00088	8d 46 5d	 lea	 eax, DWORD PTR [esi+93]
  0008b	50		 push	 eax
  0008c	8d 46 52	 lea	 eax, DWORD PTR [esi+82]
  0008f	50		 push	 eax
  00090	68 00 00 00 00	 push	 OFFSET ??_C@_0DI@HLPPLHAH@?$FLMuRummy?$FN?$FLError?$FN?5pMuRummyInfo?5is@
  00095	ff 15 00 00 00
	00		 call	 DWORD PTR ?LogAddTD@@3P6AXPADZZA ; LogAddTD
  0009b	83 c4 14	 add	 esp, 20			; 00000014H
  0009e	5f		 pop	 edi
  0009f	5e		 pop	 esi
  000a0	5b		 pop	 ebx

; 1473 : 			lpObj->AccountID, lpObj->Name, nArr, pCCardInfo[nArr].GetSlotNum(),
; 1474 : 			this->GetColorName(pCCardInfo[nArr].GetColor()),
; 1475 : 			pCCardInfo[nArr].GetNumber(), pCCardInfo[nArr].GetState());
; 1476 : 	}
; 1477 : }

  000a1	8b e5		 mov	 esp, ebp
  000a3	5d		 pop	 ebp
  000a4	c2 04 00	 ret	 4
$LN11@GDAnsCardI:

; 1407 : 			lpObj->AccountID, lpObj->Name, __FILE__, __LINE__);
; 1408 : 		return;
; 1409 : 	}
; 1410 : 
; 1411 : 	CMuRummyCardInfo* pCCardInfo = pMuRummyInfo->GetCardInfo();

  000a7	8b cf		 mov	 ecx, edi
  000a9	e8 00 00 00 00	 call	 ?GetCardInfo@CMuRummyInfo@@QAEPAVCMuRummyCardInfo@@XZ ; CMuRummyInfo::GetCardInfo
  000ae	89 45 f0	 mov	 DWORD PTR _pCCardInfo$1$[ebp], eax

; 1412 : 
; 1413 : 	if (!pCCardInfo)

  000b1	85 c0		 test	 eax, eax
  000b3	75 29		 jne	 SHORT $LN12@GDAnsCardI

; 1414 : 	{
; 1415 : 		LogAddTD("[MuRummy][Error] pCCardInfo is NULL [%s][%s] [%s, %d]",

  000b5	68 88 05 00 00	 push	 1416			; 00000588H
  000ba	68 00 00 00 00	 push	 OFFSET ??_C@_0M@DEILNLI@MuRummy?4cpp?$AA@
  000bf	8d 46 5d	 lea	 eax, DWORD PTR [esi+93]
  000c2	50		 push	 eax
  000c3	8d 46 52	 lea	 eax, DWORD PTR [esi+82]
  000c6	50		 push	 eax
  000c7	68 00 00 00 00	 push	 OFFSET ??_C@_0DG@KLOFMILL@?$FLMuRummy?$FN?$FLError?$FN?5pCCardInfo?5is?5N@
  000cc	ff 15 00 00 00
	00		 call	 DWORD PTR ?LogAddTD@@3P6AXPADZZA ; LogAddTD
  000d2	83 c4 14	 add	 esp, 20			; 00000014H
  000d5	5f		 pop	 edi
  000d6	5e		 pop	 esi
  000d7	5b		 pop	 ebx

; 1473 : 			lpObj->AccountID, lpObj->Name, nArr, pCCardInfo[nArr].GetSlotNum(),
; 1474 : 			this->GetColorName(pCCardInfo[nArr].GetColor()),
; 1475 : 			pCCardInfo[nArr].GetNumber(), pCCardInfo[nArr].GetState());
; 1476 : 	}
; 1477 : }

  000d8	8b e5		 mov	 esp, ebp
  000da	5d		 pop	 ebp
  000db	c2 04 00	 ret	 4
$LN12@GDAnsCardI:

; 1416 : 			lpObj->AccountID, lpObj->Name, __FILE__, __LINE__);
; 1417 : 		return;
; 1418 : 	}
; 1419 : 
; 1420 : 	LPBYTE pSlotIndexInfo = pMuRummyInfo->GetSlotIndexInfo();

  000de	8b cf		 mov	 ecx, edi
  000e0	e8 00 00 00 00	 call	 ?GetSlotIndexInfo@CMuRummyInfo@@QAEPAEXZ ; CMuRummyInfo::GetSlotIndexInfo
  000e5	89 45 f4	 mov	 DWORD PTR _pSlotIndexInfo$1$[ebp], eax

; 1421 : 
; 1422 : 	if (!pSlotIndexInfo)

  000e8	85 c0		 test	 eax, eax
  000ea	0f 84 dd 00 00
	00		 je	 $LN60@GDAnsCardI

; 1423 : 	{
; 1424 : 		return;
; 1425 : 	}
; 1426 : 
; 1427 : 	if (!this->IsMuRummyEventOn())

  000f0	8b 4d f8	 mov	 ecx, DWORD PTR _this$1$[ebp]
  000f3	e8 00 00 00 00	 call	 ?IsMuRummyEventOn@CMuRummyMng@@QAEHXZ ; CMuRummyMng::IsMuRummyEventOn
  000f8	85 c0		 test	 eax, eax
  000fa	0f 84 cd 00 00
	00		 je	 $LN60@GDAnsCardI

; 1435 : 	if (!lpMsg->btResult)

  00100	8b 4d 08	 mov	 ecx, DWORD PTR _lpMsg$[ebp]
; File c:\users\michel\desktop\source\gameserver\include\prodef.h

; 140  : 		lpBuf[0] = 0xC1;

  00103	c7 45 fc c1 04
	4d 18		 mov	 DWORD PTR _pMsg$[ebp], 407700673 ; 184d04c1H
; File c:\users\michel\desktop\source\gameserver\source\murummy.cpp

; 1435 : 	if (!lpMsg->btResult)

  0010a	80 79 08 00	 cmp	 BYTE PTR [ecx+8], 0
  0010e	75 1e		 jne	 SHORT $LN15@GDAnsCardI

; 1439 :         DataSend(aIndex, (LPBYTE)&pMsg, pMsg.h.size);

  00110	6a 04		 push	 4
  00112	8d 45 fc	 lea	 eax, DWORD PTR _pMsg$[ebp]
; File c:\users\michel\desktop\source\gameserver\source\murummy.h

; 44   :     void SetGetPlayCard(bool bPlayCard) { this->m_bPlayCard = bPlayCard; };

  00115	66 c7 47 0c 00
	01		 mov	 WORD PTR [edi+12], 256	; 00000100H
; File c:\users\michel\desktop\source\gameserver\source\murummy.cpp

; 1439 :         DataSend(aIndex, (LPBYTE)&pMsg, pMsg.h.size);

  0011b	50		 push	 eax
  0011c	53		 push	 ebx
  0011d	e8 00 00 00 00	 call	 ?DataSend@@YAHHPAEK@Z	; DataSend
  00122	83 c4 0c	 add	 esp, 12			; 0000000cH
  00125	5f		 pop	 edi
  00126	5e		 pop	 esi
  00127	5b		 pop	 ebx

; 1473 : 			lpObj->AccountID, lpObj->Name, nArr, pCCardInfo[nArr].GetSlotNum(),
; 1474 : 			this->GetColorName(pCCardInfo[nArr].GetColor()),
; 1475 : 			pCCardInfo[nArr].GetNumber(), pCCardInfo[nArr].GetState());
; 1476 : 	}
; 1477 : }

  00128	8b e5		 mov	 esp, ebp
  0012a	5d		 pop	 ebp
  0012b	c2 04 00	 ret	 4
$LN15@GDAnsCardI:

; 1440 : 		return;
; 1441 : 	}
; 1442 : 
; 1443 : 	pMuRummyInfo->SetScore(lpMsg->wScore);

  0012e	0f b7 41 06	 movzx	 eax, WORD PTR [ecx+6]

; 1444 : 
; 1445 : 	for (int i = 0; i < MURUMMY_MAX_SLOT; i++)
; 1446 : 	{
; 1447 : 		pSlotIndexInfo[i] = (BYTE)-1;

  00132	8b 55 f4	 mov	 edx, DWORD PTR _pSlotIndexInfo$1$[ebp]
; File c:\users\michel\desktop\source\gameserver\source\murummy.h

; 42   :     void SetScore(int iScore) { this->m_iScore = iScore; };

  00135	89 47 04	 mov	 DWORD PTR [edi+4], eax
  00138	8d 46 5d	 lea	 eax, DWORD PTR [esi+93]
  0013b	89 45 ec	 mov	 DWORD PTR tv640[ebp], eax
; File c:\users\michel\desktop\source\gameserver\source\murummy.cpp

; 1452 : 	for (int nCardArr = 0; nCardArr < MURUMMY_MAX_CARD; nCardArr++)

  0013e	8d 79 0b	 lea	 edi, DWORD PTR [ecx+11]
  00141	8d 46 52	 lea	 eax, DWORD PTR [esi+82]
  00144	c7 45 08 18 00
	00 00		 mov	 DWORD PTR tv632[ebp], 24 ; 00000018H
  0014b	c7 02 ff ff ff
	ff		 mov	 DWORD PTR [edx], -1
  00151	c7 42 04 ff ff
	ff ff		 mov	 DWORD PTR [edx+4], -1
  00158	89 45 e8	 mov	 DWORD PTR tv639[ebp], eax
  0015b	0f 1f 44 00 00	 npad	 5
$LL7@GDAnsCardI:

; 1453 : 	{
; 1454 : 		int nArr = lpMsg->stMuRummyCardInfoDS[nCardArr].btSeq;

  00160	0f b6 5f 01	 movzx	 ebx, BYTE PTR [edi+1]
; File c:\users\michel\desktop\source\gameserver\source\murummy.h

; 12   :     void SetColor(int iColor) { this->m_iColor = iColor; };

  00164	8b 75 f0	 mov	 esi, DWORD PTR _pCCardInfo$1$[ebp]
; File c:\users\michel\desktop\source\gameserver\source\murummy.cpp

; 1457 : 		pCCardInfo[nArr].SetColor(lpMsg->stMuRummyCardInfoDS[nCardArr].btColor);

  00167	8b c3		 mov	 eax, ebx
  00169	0f b6 0f	 movzx	 ecx, BYTE PTR [edi]
  0016c	c1 e0 04	 shl	 eax, 4
; File c:\users\michel\desktop\source\gameserver\source\murummy.h

; 12   :     void SetColor(int iColor) { this->m_iColor = iColor; };

  0016f	03 f0		 add	 esi, eax
; File c:\users\michel\desktop\source\gameserver\source\murummy.cpp

; 1457 : 		pCCardInfo[nArr].SetColor(lpMsg->stMuRummyCardInfoDS[nCardArr].btColor);

  00171	0f b6 47 fe	 movzx	 eax, BYTE PTR [edi-2]
; File c:\users\michel\desktop\source\gameserver\source\murummy.h

; 12   :     void SetColor(int iColor) { this->m_iColor = iColor; };

  00175	89 06		 mov	 DWORD PTR [esi], eax
; File c:\users\michel\desktop\source\gameserver\source\murummy.cpp

; 1458 : 		pCCardInfo[nArr].SetNumber(lpMsg->stMuRummyCardInfoDS[nCardArr].btNumber);

  00177	0f b6 47 ff	 movzx	 eax, BYTE PTR [edi-1]
; File c:\users\michel\desktop\source\gameserver\source\murummy.h

; 13   :     void SetNumber(int iNumber) { this->m_iNumber = iNumber; };

  0017b	89 46 04	 mov	 DWORD PTR [esi+4], eax
; File c:\users\michel\desktop\source\gameserver\source\murummy.cpp

; 1459 :  		pCCardInfo[nArr].SetState(lpMsg->stMuRummyCardInfoDS[nCardArr].btStatus);

  0017e	0f b6 47 02	 movzx	 eax, BYTE PTR [edi+2]
; File c:\users\michel\desktop\source\gameserver\source\murummy.h

; 14   :     void SetState(int iState) { this->m_iState = iState; };

  00182	89 46 08	 mov	 DWORD PTR [esi+8], eax

; 15   :     void SetSlotNum(int iSlotNum) { this->m_iSlotNum = iSlotNum; };

  00185	89 4e 0c	 mov	 DWORD PTR [esi+12], ecx
; File c:\users\michel\desktop\source\gameserver\source\murummy.cpp

; 1462 : 		if (iSlotNum > -1 && iSlotNum < MURUMMY_MAX_SLOT && pCCardInfo[nArr].GetState() == 1 )

  00188	83 f9 07	 cmp	 ecx, 7
  0018b	77 08		 ja	 SHORT $LN16@GDAnsCardI
  0018d	83 f8 01	 cmp	 eax, 1
  00190	75 03		 jne	 SHORT $LN16@GDAnsCardI

; 1463 : 		{ 
; 1464 : 			pSlotIndexInfo[iSlotNum] = nArr;

  00192	88 1c 11	 mov	 BYTE PTR [ecx+edx], bl
$LN16@GDAnsCardI:

; 1465 : 		}
; 1466 : 		 
; 1467 : 		if (!pCCardInfo[nArr].GetState())
; 1468 : 		{
; 1469 : 			iCardCnt++;
; 1470 : 		}
; 1471 : 		 
; 1472 : 		LogAddTD("[MuRummy] MuRummy Card Info Load [%s][%s] Seq:[%d] [%d][%c][%d][%d]",

  00195	ff 76 08	 push	 DWORD PTR [esi+8]
  00198	8b 4d f8	 mov	 ecx, DWORD PTR _this$1$[ebp]
  0019b	ff 76 04	 push	 DWORD PTR [esi+4]
  0019e	ff 36		 push	 DWORD PTR [esi]
  001a0	e8 00 00 00 00	 call	 ?GetColorName@CMuRummyMng@@QAEDH@Z ; CMuRummyMng::GetColorName
  001a5	0f be c0	 movsx	 eax, al
  001a8	50		 push	 eax
  001a9	ff 76 0c	 push	 DWORD PTR [esi+12]
  001ac	53		 push	 ebx
  001ad	ff 75 ec	 push	 DWORD PTR tv640[ebp]
  001b0	ff 75 e8	 push	 DWORD PTR tv639[ebp]
  001b3	68 00 00 00 00	 push	 OFFSET ??_C@_0EE@MDHKGPNB@?$FLMuRummy?$FN?5MuRummy?5Card?5Info?5Load@
  001b8	ff 15 00 00 00
	00		 call	 DWORD PTR ?LogAddTD@@3P6AXPADZZA ; LogAddTD
  001be	8b 55 f4	 mov	 edx, DWORD PTR _pSlotIndexInfo$1$[ebp]
  001c1	83 c4 20	 add	 esp, 32			; 00000020H
  001c4	83 c7 05	 add	 edi, 5
  001c7	83 6d 08 01	 sub	 DWORD PTR tv632[ebp], 1
  001cb	75 93		 jne	 SHORT $LL7@GDAnsCardI
$LN60@GDAnsCardI:
  001cd	5f		 pop	 edi
  001ce	5e		 pop	 esi
$LN6@GDAnsCardI:
  001cf	5b		 pop	 ebx

; 1473 : 			lpObj->AccountID, lpObj->Name, nArr, pCCardInfo[nArr].GetSlotNum(),
; 1474 : 			this->GetColorName(pCCardInfo[nArr].GetColor()),
; 1475 : 			pCCardInfo[nArr].GetNumber(), pCCardInfo[nArr].GetState());
; 1476 : 	}
; 1477 : }

  001d0	8b e5		 mov	 esp, ebp
  001d2	5d		 pop	 ebp
  001d3	c2 04 00	 ret	 4
?GDAnsCardInfo@CMuRummyMng@@QAEXPAU_tagPMSG_ANS_MURUMMY_SELECT_DS@@@Z ENDP ; CMuRummyMng::GDAnsCardInfo
_TEXT	ENDS
; Function compile flags: /Ogtp
; File c:\users\michel\desktop\source\gameserver\source\murummy.cpp
; File c:\users\michel\desktop\source\gameserver\include\prodef.h
; File c:\users\michel\desktop\source\gameserver\source\murummy.cpp
;	COMDAT ?GDReqCardInfo@CMuRummyMng@@QAEXPAUOBJECTSTRUCT@@@Z
_TEXT	SEGMENT
_pMsg$ = -32						; size = 28
__$ArrayPad$ = -4					; size = 4
_obj$ = 8						; size = 4
?GDReqCardInfo@CMuRummyMng@@QAEXPAUOBJECTSTRUCT@@@Z PROC ; CMuRummyMng::GDReqCardInfo, COMDAT
; _this$ = ecx

; 1353 : {

  00000	55		 push	 ebp
  00001	8b ec		 mov	 ebp, esp
  00003	83 ec 20	 sub	 esp, 32			; 00000020H
  00006	a1 00 00 00 00	 mov	 eax, DWORD PTR ___security_cookie
  0000b	33 c5		 xor	 eax, ebp
  0000d	89 45 fc	 mov	 DWORD PTR __$ArrayPad$[ebp], eax
  00010	56		 push	 esi
  00011	8b 75 08	 mov	 esi, DWORD PTR _obj$[ebp]
  00014	57		 push	 edi
  00015	8b f9		 mov	 edi, ecx

; 1354 : 	if (!OBJMAX_RANGE(obj->m_Index))

  00017	8b 16		 mov	 edx, DWORD PTR [esi]
  00019	85 d2		 test	 edx, edx
  0001b	78 77		 js	 SHORT $LN1@GDReqCardI
  0001d	33 c0		 xor	 eax, eax
  0001f	81 fa eb 2c 00
	00		 cmp	 edx, 11499		; 00002cebH
  00025	0f 9e c0	 setle	 al
  00028	85 c0		 test	 eax, eax
  0002a	74 68		 je	 SHORT $LN1@GDReqCardI

; 1355 : 	{
; 1356 : 		return;
; 1357 : 	}
; 1358 : 
; 1359 : 	if (!gObjIsConnected(obj->m_Index))

  0002c	52		 push	 edx
  0002d	e8 00 00 00 00	 call	 ?gObjIsConnected@@YAHH@Z ; gObjIsConnected
  00032	83 c4 04	 add	 esp, 4
  00035	85 c0		 test	 eax, eax
  00037	74 5b		 je	 SHORT $LN1@GDReqCardI

; 1360 : 	{
; 1361 : 		return;
; 1362 : 	}
; 1363 : 
; 1364 : 	if (!this->IsMuRummyEventOn())

  00039	8b cf		 mov	 ecx, edi
  0003b	e8 00 00 00 00	 call	 ?IsMuRummyEventOn@CMuRummyMng@@QAEHXZ ; CMuRummyMng::IsMuRummyEventOn
  00040	85 c0		 test	 eax, eax
  00042	74 50		 je	 SHORT $LN1@GDReqCardI

; 1365 : 	{
; 1366 : 		return;
; 1367 : 	}
; 1368 : 
; 1369 : 	_tagPMSG_REQ_MURUMMY_SELECT_DS pMsg;
; 1370 : 	pMsg.h.set((LPBYTE)&pMsg, 0xE8, 0x00, sizeof(_tagPMSG_SEND_MURUMMY_MSG));
; 1371 : 
; 1372 : 	memcpy(pMsg.AccountID, obj->AccountID, sizeof(pMsg.AccountID));

  00044	0f b7 46 5a	 movzx	 eax, WORD PTR [esi+90]

; 1374 : 	pMsg.aIndex = obj->m_Index;
; 1375 : 
; 1376 : 	cDBSMng.Send((PCHAR)&pMsg, pMsg.h.size); 

  00048	b9 00 00 00 00	 mov	 ecx, OFFSET ?cDBSMng@@3VDBSockMng@@A ; cDBSMng
  0004d	f3 0f 7e 46 52	 movq	 xmm0, QWORD PTR [esi+82]
  00052	66 89 45 ec	 mov	 WORD PTR _pMsg$[ebp+12], ax
  00056	0f b6 46 5c	 movzx	 eax, BYTE PTR [esi+92]
  0005a	88 45 ee	 mov	 BYTE PTR _pMsg$[ebp+14], al
  0005d	0f b7 46 65	 movzx	 eax, WORD PTR [esi+101]
  00061	66 89 45 f7	 mov	 WORD PTR _pMsg$[ebp+23], ax
  00065	0f b6 46 67	 movzx	 eax, BYTE PTR [esi+103]
  00069	88 45 f9	 mov	 BYTE PTR _pMsg$[ebp+25], al
  0006c	0f b7 06	 movzx	 eax, WORD PTR [esi]
  0006f	66 89 45 fa	 mov	 WORD PTR _pMsg$[ebp+26], ax
  00073	8d 45 e0	 lea	 eax, DWORD PTR _pMsg$[ebp]
  00076	66 0f d6 45 e4	 movq	 QWORD PTR _pMsg$[ebp+4], xmm0
  0007b	f3 0f 7e 46 5d	 movq	 xmm0, QWORD PTR [esi+93]
  00080	6a 07		 push	 7
  00082	50		 push	 eax
; File c:\users\michel\desktop\source\gameserver\include\prodef.h

; 140  : 		lpBuf[0] = 0xC1;

  00083	c7 45 e0 c1 07
	e8 00		 mov	 DWORD PTR _pMsg$[ebp], 15206337 ; 00e807c1H
; File c:\users\michel\desktop\source\gameserver\source\murummy.cpp

; 1373 : 	memcpy(pMsg.Name, obj->Name, sizeof(pMsg.Name));

  0008a	66 0f d6 45 ef	 movq	 QWORD PTR _pMsg$[ebp+15], xmm0

; 1374 : 	pMsg.aIndex = obj->m_Index;
; 1375 : 
; 1376 : 	cDBSMng.Send((PCHAR)&pMsg, pMsg.h.size); 

  0008f	e8 00 00 00 00	 call	 ?Send@DBSockMng@@QAEHPADH@Z ; DBSockMng::Send
$LN1@GDReqCardI:

; 1377 : }

  00094	8b 4d fc	 mov	 ecx, DWORD PTR __$ArrayPad$[ebp]
  00097	5f		 pop	 edi
  00098	33 cd		 xor	 ecx, ebp
  0009a	5e		 pop	 esi
  0009b	e8 00 00 00 00	 call	 @__security_check_cookie@4
  000a0	8b e5		 mov	 esp, ebp
  000a2	5d		 pop	 ebp
  000a3	c2 04 00	 ret	 4
?GDReqCardInfo@CMuRummyMng@@QAEXPAUOBJECTSTRUCT@@@Z ENDP ; CMuRummyMng::GDReqCardInfo
_TEXT	ENDS
; Function compile flags: /Ogtp
; File c:\users\michel\desktop\source\gameserver\source\murummy.cpp
; File c:\users\michel\desktop\source\gameserver\include\prodef.h
; File c:\users\michel\desktop\source\gameserver\source\murummyprotocol.h
; File c:\users\michel\desktop\source\gameserver\include\prodef.h
; File c:\users\michel\desktop\source\gameserver\source\murummy.cpp
;	COMDAT ?GCSendMsg@CMuRummyMng@@QAEXHEH@Z
_TEXT	SEGMENT
_pMsg$ = -8						; size = 7
_aIndex$ = 8						; size = 4
_btNotiIndex$ = 12					; size = 1
_iValue$ = 16						; size = 4
?GCSendMsg@CMuRummyMng@@QAEXHEH@Z PROC			; CMuRummyMng::GCSendMsg, COMDAT
; _this$ = ecx

; 1329 : {

  00000	55		 push	 ebp
  00001	8b ec		 mov	 ebp, esp
  00003	83 ec 08	 sub	 esp, 8
  00006	56		 push	 esi

; 1333 : 	if (!OBJMAX_RANGE(aIndex))

  00007	8b 75 08	 mov	 esi, DWORD PTR _aIndex$[ebp]
; File c:\users\michel\desktop\source\gameserver\include\prodef.h

; 142  : 		lpBuf[2] = head;

  0000a	c7 45 fa 4d 17
	00 00		 mov	 DWORD PTR _pMsg$[ebp+2], 5965 ; 0000174dH
; File c:\users\michel\desktop\source\gameserver\source\murummyprotocol.h

; 239  : 		this->btValueL = 0;

  00011	c6 45 fe 00	 mov	 BYTE PTR _pMsg$[ebp+6], 0
; File c:\users\michel\desktop\source\gameserver\include\prodef.h

; 140  : 		lpBuf[0] = 0xC1;

  00015	66 c7 45 f8 c1
	07		 mov	 WORD PTR _pMsg$[ebp], 1985 ; 000007c1H
; File c:\users\michel\desktop\source\gameserver\source\murummy.cpp

; 1333 : 	if (!OBJMAX_RANGE(aIndex))

  0001b	85 f6		 test	 esi, esi
  0001d	78 42		 js	 SHORT $LN1@GCSendMsg
  0001f	33 c0		 xor	 eax, eax
  00021	81 fe eb 2c 00
	00		 cmp	 esi, 11499		; 00002cebH
  00027	0f 9e c0	 setle	 al
  0002a	85 c0		 test	 eax, eax
  0002c	74 33		 je	 SHORT $LN1@GCSendMsg

; 1334 : 	{
; 1335 : 		return;
; 1336 : 	}
; 1337 : 
; 1338 : 	if (!gObjIsConnected(aIndex))

  0002e	56		 push	 esi
  0002f	e8 00 00 00 00	 call	 ?gObjIsConnected@@YAHH@Z ; gObjIsConnected
  00034	83 c4 04	 add	 esp, 4
  00037	85 c0		 test	 eax, eax
  00039	74 26		 je	 SHORT $LN1@GCSendMsg

; 1339 : 	{
; 1340 : 		return;
; 1341 : 	}
; 1342 : 
; 1343 : 	//LPOBJ lpObj = &gObj[aIndex];
; 1344 :     
; 1345 : 	pMsg.btNotiIndex = btNotiIndex;

  0003b	8a 45 0c	 mov	 al, BYTE PTR _btNotiIndex$[ebp]

; 1346 : 	pMsg.btValueH = SET_NUMBERH(iValue);

  0003e	8b 4d 10	 mov	 ecx, DWORD PTR _iValue$[ebp]
  00041	88 45 fc	 mov	 BYTE PTR _pMsg$[ebp+4], al
  00044	8b c1		 mov	 eax, ecx
  00046	c1 e8 08	 shr	 eax, 8
  00049	88 45 fd	 mov	 BYTE PTR _pMsg$[ebp+5], al

; 1347 : 	pMsg.btValueL = SET_NUMBERL(iValue);
; 1348 :     
; 1349 : 	DataSend(aIndex, (LPBYTE)&pMsg, pMsg.h.size);

  0004c	0f b6 45 f9	 movzx	 eax, BYTE PTR _pMsg$[ebp+1]
  00050	50		 push	 eax
  00051	8d 45 f8	 lea	 eax, DWORD PTR _pMsg$[ebp]
  00054	88 4d fe	 mov	 BYTE PTR _pMsg$[ebp+6], cl
  00057	50		 push	 eax
  00058	56		 push	 esi
  00059	e8 00 00 00 00	 call	 ?DataSend@@YAHHPAEK@Z	; DataSend
  0005e	83 c4 0c	 add	 esp, 12			; 0000000cH
$LN1@GCSendMsg:
  00061	5e		 pop	 esi

; 1350 : }

  00062	8b e5		 mov	 esp, ebp
  00064	5d		 pop	 ebp
  00065	c2 0c 00	 ret	 12			; 0000000cH
?GCSendMsg@CMuRummyMng@@QAEXHEH@Z ENDP			; CMuRummyMng::GCSendMsg
_TEXT	ENDS
; Function compile flags: /Ogtp
; File c:\users\michel\desktop\source\gameserver\source\murummy.cpp
; File c:\users\michel\desktop\source\gameserver\include\prodef.h
; File c:\users\michel\desktop\source\gameserver\source\murummy.cpp
;	COMDAT ?GCSendCardList@CMuRummyMng@@QAEXH@Z
_TEXT	SEGMENT
_pSlotIndexInfo$1$ = -28				; size = 4
_pCMuRummyInfo$ = -28					; size = 4
_pMsg$ = -24						; size = 19
__$ArrayPad$ = -4					; size = 4
_aIndex$ = 8						; size = 4
?GCSendCardList@CMuRummyMng@@QAEXH@Z PROC		; CMuRummyMng::GCSendCardList, COMDAT
; _this$ = ecx

; 1267 : {

  00000	55		 push	 ebp
  00001	8b ec		 mov	 ebp, esp
  00003	83 ec 1c	 sub	 esp, 28			; 0000001cH
  00006	a1 00 00 00 00	 mov	 eax, DWORD PTR ___security_cookie
  0000b	33 c5		 xor	 eax, ebp
  0000d	89 45 fc	 mov	 DWORD PTR __$ArrayPad$[ebp], eax
  00010	57		 push	 edi
  00011	8b 7d 08	 mov	 edi, DWORD PTR _aIndex$[ebp]
; File c:\users\michel\desktop\source\gameserver\include\prodef.h

; 140  : 		lpBuf[0] = 0xC1;

  00014	c7 45 e8 c1 13
	4d 16		 mov	 DWORD PTR _pMsg$[ebp], 374150081 ; 164d13c1H
; File c:\users\michel\desktop\source\gameserver\source\murummy.cpp

; 1271 : 	if (!OBJMAX_RANGE(aIndex))

  0001b	85 ff		 test	 edi, edi
  0001d	0f 88 1b 01 00
	00		 js	 $LN1@GCSendCard
  00023	33 c0		 xor	 eax, eax
  00025	81 ff eb 2c 00
	00		 cmp	 edi, 11499		; 00002cebH
  0002b	0f 9e c0	 setle	 al
  0002e	85 c0		 test	 eax, eax
  00030	0f 84 08 01 00
	00		 je	 $LN1@GCSendCard

; 1272 : 	{
; 1273 : 		return;
; 1274 : 	}
; 1275 : 
; 1276 : 	if (!gObjIsConnected(aIndex))

  00036	57		 push	 edi
  00037	e8 00 00 00 00	 call	 ?gObjIsConnected@@YAHH@Z ; gObjIsConnected
  0003c	83 c4 04	 add	 esp, 4
  0003f	85 c0		 test	 eax, eax
  00041	0f 84 f7 00 00
	00		 je	 $LN1@GCSendCard

; 1277 : 	{
; 1278 : 		return;
; 1279 : 	}
; 1280 : 
; 1281 : 	LPOBJ lpObj = &gObj[aIndex];
; 1282 : 	CMuRummyInfo* pCMuRummyInfo;// = gObj[aIndex].m_pCMuRummyInfo;
; 1283 : 
; 1284 : 	if (!pCMuRummyInfo)

  00047	8b 45 e4	 mov	 eax, DWORD PTR _pCMuRummyInfo$[ebp]
  0004a	56		 push	 esi
  0004b	69 f7 40 27 00
	00		 imul	 esi, edi, 10048
  00051	03 35 00 00 00
	00		 add	 esi, DWORD PTR ?gObj@@3PAUOBJECTSTRUCT@@A ; gObj
  00057	85 c0		 test	 eax, eax
  00059	75 32		 jne	 SHORT $LN7@GCSendCard

; 1285 : 	{
; 1286 : 		LogAddTD("[MuRummy][Error] pCMuRummyInfo is NULL [%s][%s] [%s, %d]",

  0005b	68 07 05 00 00	 push	 1287			; 00000507H
  00060	68 00 00 00 00	 push	 OFFSET ??_C@_0M@DEILNLI@MuRummy?4cpp?$AA@
  00065	8d 46 5d	 lea	 eax, DWORD PTR [esi+93]
  00068	50		 push	 eax
  00069	8d 46 52	 lea	 eax, DWORD PTR [esi+82]
  0006c	50		 push	 eax
  0006d	68 00 00 00 00	 push	 OFFSET ??_C@_0DJ@JIKKCJIL@?$FLMuRummy?$FN?$FLError?$FN?5pCMuRummyInfo?5i@
  00072	ff 15 00 00 00
	00		 call	 DWORD PTR ?LogAddTD@@3P6AXPADZZA ; LogAddTD
  00078	83 c4 14	 add	 esp, 20			; 00000014H
  0007b	5e		 pop	 esi
  0007c	5f		 pop	 edi

; 1326 : }

  0007d	8b 4d fc	 mov	 ecx, DWORD PTR __$ArrayPad$[ebp]
  00080	33 cd		 xor	 ecx, ebp
  00082	e8 00 00 00 00	 call	 @__security_check_cookie@4
  00087	8b e5		 mov	 esp, ebp
  00089	5d		 pop	 ebp
  0008a	c2 04 00	 ret	 4
$LN7@GCSendCard:
  0008d	53		 push	 ebx

; 1287 : 			lpObj->AccountID, lpObj->Name, __FILE__, __LINE__);
; 1288 : 		return;
; 1289 : 	}
; 1290 : 
; 1291 : 	CMuRummyCardInfo* pCCardInfo = pCMuRummyInfo->GetCardInfo();

  0008e	8b c8		 mov	 ecx, eax
  00090	e8 00 00 00 00	 call	 ?GetCardInfo@CMuRummyInfo@@QAEPAVCMuRummyCardInfo@@XZ ; CMuRummyInfo::GetCardInfo
  00095	8b d8		 mov	 ebx, eax

; 1292 : 	
; 1293 : 	if (!pCCardInfo)

  00097	85 db		 test	 ebx, ebx
  00099	75 33		 jne	 SHORT $LN8@GCSendCard

; 1294 : 	{
; 1295 : 		LogAddTD("[MuRummy][Error] pCCardInfo is NULL [%s][%s] [%s, %d]",

  0009b	68 10 05 00 00	 push	 1296			; 00000510H
  000a0	68 00 00 00 00	 push	 OFFSET ??_C@_0M@DEILNLI@MuRummy?4cpp?$AA@
  000a5	8d 46 5d	 lea	 eax, DWORD PTR [esi+93]
  000a8	50		 push	 eax
  000a9	8d 46 52	 lea	 eax, DWORD PTR [esi+82]
  000ac	50		 push	 eax
  000ad	68 00 00 00 00	 push	 OFFSET ??_C@_0DG@KLOFMILL@?$FLMuRummy?$FN?$FLError?$FN?5pCCardInfo?5is?5N@
  000b2	ff 15 00 00 00
	00		 call	 DWORD PTR ?LogAddTD@@3P6AXPADZZA ; LogAddTD
  000b8	83 c4 14	 add	 esp, 20			; 00000014H
  000bb	5b		 pop	 ebx
  000bc	5e		 pop	 esi
  000bd	5f		 pop	 edi

; 1326 : }

  000be	8b 4d fc	 mov	 ecx, DWORD PTR __$ArrayPad$[ebp]
  000c1	33 cd		 xor	 ecx, ebp
  000c3	e8 00 00 00 00	 call	 @__security_check_cookie@4
  000c8	8b e5		 mov	 esp, ebp
  000ca	5d		 pop	 ebp
  000cb	c2 04 00	 ret	 4
$LN8@GCSendCard:

; 1296 : 			lpObj->AccountID, lpObj->Name, __FILE__, __LINE__);
; 1297 : 		return;
; 1298 : 	}
; 1299 : 
; 1300 : 	LPBYTE pSlotIndexInfo = pCMuRummyInfo->GetSlotIndexInfo();

  000ce	8b 4d e4	 mov	 ecx, DWORD PTR _pCMuRummyInfo$[ebp]
  000d1	e8 00 00 00 00	 call	 ?GetSlotIndexInfo@CMuRummyInfo@@QAEPAEXZ ; CMuRummyInfo::GetSlotIndexInfo
  000d6	89 45 e4	 mov	 DWORD PTR _pSlotIndexInfo$1$[ebp], eax

; 1301 : 
; 1302 : 	if (!pSlotIndexInfo)

  000d9	85 c0		 test	 eax, eax
  000db	74 5f		 je	 SHORT $LN32@GCSendCard

; 1303 : 	{
; 1304 : 		return;
; 1305 : 	}
; 1306 : 
; 1307 : 	int nSlotNum = 0;
; 1308 :     
; 1309 : 	for (int i = 0; i < MURUMMY_MAX_SLOT; i++)

  000dd	33 c9		 xor	 ecx, ecx
  000df	8d 55 ed	 lea	 edx, DWORD PTR _pMsg$[ebp+5]
  000e2	33 f6		 xor	 esi, esi
$LL4@GCSendCard:

; 1310 : 	{
; 1311 : 		if (pSlotIndexInfo[i] != (BYTE)-1)

  000e4	8a 04 01	 mov	 al, BYTE PTR [ecx+eax]
  000e7	3c ff		 cmp	 al, 255			; 000000ffH
  000e9	74 36		 je	 SHORT $LN2@GCSendCard

; 1312 : 		{
; 1313 : 			if (nSlotNum < 0 || nSlotNum > 4)

  000eb	83 fe 04	 cmp	 esi, 4
  000ee	77 4c		 ja	 SHORT $LN32@GCSendCard

; 1314 : 			{
; 1315 : 				return;
; 1316 : 			}
; 1317 : 
; 1318 : 			pMsg.stMuRummyCardInfo[nSlotNum].btColor = pCCardInfo[pSlotIndexInfo[i]].GetColor();

  000f0	0f b6 c0	 movzx	 eax, al

; 1319 : 			pMsg.stMuRummyCardInfo[nSlotNum].btNumber = pCCardInfo[pSlotIndexInfo[i]].GetNumber();
; 1320 : 			pMsg.stMuRummyCardInfo[nSlotNum].btSlotNum = pCCardInfo[pSlotIndexInfo[i]].GetSlotNum();
; 1321 : 			nSlotNum++;

  000f3	46		 inc	 esi
  000f4	03 c0		 add	 eax, eax
  000f6	0f b6 04 c3	 movzx	 eax, BYTE PTR [ebx+eax*8]
  000fa	88 42 ff	 mov	 BYTE PTR [edx-1], al
  000fd	8b 45 e4	 mov	 eax, DWORD PTR _pSlotIndexInfo$1$[ebp]
  00100	0f b6 04 01	 movzx	 eax, BYTE PTR [ecx+eax]
  00104	03 c0		 add	 eax, eax
  00106	0f b6 44 c3 04	 movzx	 eax, BYTE PTR [ebx+eax*8+4]
  0010b	88 02		 mov	 BYTE PTR [edx], al
  0010d	8b 45 e4	 mov	 eax, DWORD PTR _pSlotIndexInfo$1$[ebp]
  00110	0f b6 04 01	 movzx	 eax, BYTE PTR [ecx+eax]
  00114	03 c0		 add	 eax, eax
  00116	0f b6 44 c3 0c	 movzx	 eax, BYTE PTR [ebx+eax*8+12]
  0011b	88 42 01	 mov	 BYTE PTR [edx+1], al
  0011e	83 c2 03	 add	 edx, 3
$LN2@GCSendCard:

; 1303 : 	{
; 1304 : 		return;
; 1305 : 	}
; 1306 : 
; 1307 : 	int nSlotNum = 0;
; 1308 :     
; 1309 : 	for (int i = 0; i < MURUMMY_MAX_SLOT; i++)

  00121	8b 45 e4	 mov	 eax, DWORD PTR _pSlotIndexInfo$1$[ebp]
  00124	41		 inc	 ecx
  00125	83 f9 08	 cmp	 ecx, 8
  00128	7c ba		 jl	 SHORT $LL4@GCSendCard

; 1322 : 		}
; 1323 : 	}
; 1324 : 
; 1325 : 	DataSend(aIndex, (LPBYTE)&pMsg, pMsg.h.size);

  0012a	0f b6 45 e9	 movzx	 eax, BYTE PTR _pMsg$[ebp+1]
  0012e	50		 push	 eax
  0012f	8d 45 e8	 lea	 eax, DWORD PTR _pMsg$[ebp]
  00132	50		 push	 eax
  00133	57		 push	 edi
  00134	e8 00 00 00 00	 call	 ?DataSend@@YAHHPAEK@Z	; DataSend
  00139	83 c4 0c	 add	 esp, 12			; 0000000cH
$LN32@GCSendCard:
  0013c	5b		 pop	 ebx
  0013d	5e		 pop	 esi
$LN1@GCSendCard:

; 1326 : }

  0013e	8b 4d fc	 mov	 ecx, DWORD PTR __$ArrayPad$[ebp]
  00141	33 cd		 xor	 ecx, ebp
  00143	5f		 pop	 edi
  00144	e8 00 00 00 00	 call	 @__security_check_cookie@4
  00149	8b e5		 mov	 esp, ebp
  0014b	5d		 pop	 ebp
  0014c	c2 04 00	 ret	 4
?GCSendCardList@CMuRummyMng@@QAEXH@Z ENDP		; CMuRummyMng::GCSendCardList
_TEXT	ENDS
; Function compile flags: /Ogtp
; File c:\users\michel\desktop\source\gameserver\source\murummy.cpp
; File c:\users\michel\desktop\source\gameserver\source\murummy.h
; File c:\users\michel\desktop\source\gameserver\source\murummy.cpp
; File c:\users\michel\desktop\source\gameserver\include\prodef.h
; File c:\users\michel\desktop\source\gameserver\source\murummy.cpp
; File c:\users\michel\desktop\source\gameserver\include\prodef.h
; File c:\users\michel\desktop\source\gameserver\source\murummy.cpp
;	COMDAT ?CGReqMuRummyEnd@CMuRummyMng@@QAEXPAU_tagPMSG_REQ_MURUMMY_END@@H@Z
_TEXT	SEGMENT
_pMsg$ = -12						; size = 5
_this$1$ = -4						; size = 4
_lpMsg$ = 8						; size = 4
tv290 = 12						; size = 4
_pCMuRummyInfo$ = 12					; size = 4
_aIndex$ = 12						; size = 4
?CGReqMuRummyEnd@CMuRummyMng@@QAEXPAU_tagPMSG_REQ_MURUMMY_END@@H@Z PROC ; CMuRummyMng::CGReqMuRummyEnd, COMDAT
; _this$ = ecx

; 1183 : {

  00000	55		 push	 ebp
  00001	8b ec		 mov	 ebp, esp
  00003	83 ec 0c	 sub	 esp, 12			; 0000000cH
  00006	56		 push	 esi

; 1184 : 	if (!OBJMAX_RANGE(aIndex))

  00007	8b 75 0c	 mov	 esi, DWORD PTR _aIndex$[ebp]
  0000a	89 4d fc	 mov	 DWORD PTR _this$1$[ebp], ecx
  0000d	85 f6		 test	 esi, esi
  0000f	0f 88 f3 01 00
	00		 js	 $LN1@CGReqMuRum
  00015	33 c0		 xor	 eax, eax
  00017	81 fe eb 2c 00
	00		 cmp	 esi, 11499		; 00002cebH
  0001d	0f 9e c0	 setle	 al
  00020	85 c0		 test	 eax, eax
  00022	0f 84 e0 01 00
	00		 je	 $LN1@CGReqMuRum

; 1185 : 	{
; 1186 : 		return;
; 1187 : 	}
; 1188 : 
; 1189 : 	if (!gObjIsConnected(aIndex))

  00028	56		 push	 esi
  00029	e8 00 00 00 00	 call	 ?gObjIsConnected@@YAHH@Z ; gObjIsConnected
  0002e	83 c4 04	 add	 esp, 4
  00031	85 c0		 test	 eax, eax
  00033	0f 84 cf 01 00
	00		 je	 $LN1@CGReqMuRum

; 1190 : 	{
; 1191 : 		return;
; 1192 : 	}
; 1193 : 
; 1194 : 	LPOBJ lpObj = &gObj[aIndex];

  00039	69 ce 40 27 00
	00		 imul	 ecx, esi, 10048
  0003f	53		 push	 ebx
  00040	8b 1d 00 00 00
	00		 mov	 ebx, DWORD PTR ?gObj@@3PAUOBJECTSTRUCT@@A ; gObj
  00046	03 d9		 add	 ebx, ecx
  00048	89 4d 0c	 mov	 DWORD PTR tv290[ebp], ecx

; 1195 : 
; 1196 : 	if (lpObj->CloseType != -1) 

  0004b	80 7b 0d ff	 cmp	 BYTE PTR [ebx+13], -1
  0004f	0f 85 b2 01 00
	00		 jne	 $LN33@CGReqMuRum

; 1197 : 	{
; 1198 : 		return;
; 1199 : 	}
; 1200 : 
; 1201 : 	CMuRummyInfo* pCMuRummyInfo;// = lpObj->m_pCMuRummyInfo;
; 1202 : 
; 1203 : 	if (!pCMuRummyInfo)

  00055	57		 push	 edi
  00056	8b 7d 0c	 mov	 edi, DWORD PTR _pCMuRummyInfo$[ebp]
  00059	85 ff		 test	 edi, edi
  0005b	75 29		 jne	 SHORT $LN5@CGReqMuRum

; 1204 : 	{
; 1205 : 		LogAddTD("[MuRummy][Error] pCMuRummyInfo is NULL [%s][%s] [%s, %d]",

  0005d	68 b6 04 00 00	 push	 1206			; 000004b6H
  00062	68 00 00 00 00	 push	 OFFSET ??_C@_0M@DEILNLI@MuRummy?4cpp?$AA@
  00067	8d 43 5d	 lea	 eax, DWORD PTR [ebx+93]
  0006a	50		 push	 eax
  0006b	8d 43 52	 lea	 eax, DWORD PTR [ebx+82]
  0006e	50		 push	 eax
  0006f	68 00 00 00 00	 push	 OFFSET ??_C@_0DJ@JIKKCJIL@?$FLMuRummy?$FN?$FLError?$FN?5pCMuRummyInfo?5i@
  00074	ff 15 00 00 00
	00		 call	 DWORD PTR ?LogAddTD@@3P6AXPADZZA ; LogAddTD
  0007a	83 c4 14	 add	 esp, 20			; 00000014H
  0007d	5f		 pop	 edi
  0007e	5b		 pop	 ebx
  0007f	5e		 pop	 esi

; 1264 : }

  00080	8b e5		 mov	 esp, ebp
  00082	5d		 pop	 ebp
  00083	c2 08 00	 ret	 8
$LN5@CGReqMuRum:

; 1206 : 			lpObj->AccountID, lpObj->Name, __FILE__, __LINE__);
; 1207 : 		return;
; 1208 : 	}
; 1209 : 
; 1210 : 	if (pCMuRummyInfo->IsWaitReward())

  00086	80 7f 0e 00	 cmp	 BYTE PTR [edi+14], 0
  0008a	74 3b		 je	 SHORT $LN6@CGReqMuRum

; 1211 : 	{
; 1212 : 		LogAddTD("[MuRummy][DebugLog][%s][%s] Waiting Item Reward(Req End)", 

  0008c	8d 43 5d	 lea	 eax, DWORD PTR [ebx+93]
  0008f	50		 push	 eax
  00090	8d 43 52	 lea	 eax, DWORD PTR [ebx+82]
  00093	50		 push	 eax
  00094	68 00 00 00 00	 push	 OFFSET ??_C@_0DJ@GLGFEGIJ@?$FLMuRummy?$FN?$FLDebugLog?$FN?$FL?$CFs?$FN?$FL?$CFs?$FN?5Wait@
  00099	ff 15 00 00 00
	00		 call	 DWORD PTR ?LogAddTD@@3P6AXPADZZA ; LogAddTD
  0009f	83 c4 0c	 add	 esp, 12			; 0000000cH

; 1213 : 			lpObj->AccountID, lpObj->Name);
; 1214 :         GCServerMsgStringSend(lMsg.Get(3539), lpObj->m_Index, 1);

  000a2	b9 00 00 00 00	 mov	 ecx, OFFSET ?lMsg@@3VMessage@@A ; lMsg
  000a7	6a 01		 push	 1
  000a9	ff 33		 push	 DWORD PTR [ebx]
  000ab	68 d3 0d 00 00	 push	 3539			; 00000dd3H
  000b0	e8 00 00 00 00	 call	 ?Get@Message@@QAEPADH@Z	; Message::Get
  000b5	50		 push	 eax
  000b6	e8 00 00 00 00	 call	 ?GCServerMsgStringSend@@YAXPADHE@Z ; GCServerMsgStringSend
  000bb	83 c4 0c	 add	 esp, 12			; 0000000cH
  000be	5f		 pop	 edi
  000bf	5b		 pop	 ebx
  000c0	5e		 pop	 esi

; 1264 : }

  000c1	8b e5		 mov	 esp, ebp
  000c3	5d		 pop	 ebp
  000c4	c2 08 00	 ret	 8
$LN6@CGReqMuRum:

; 1215 : 		return;
; 1216 : 	}
; 1217 : 
; 1218 : 	if (pCMuRummyInfo->GetScore() >= this->GetRewardScore1() && !CheckInventoryEmptySpace(lpObj, 4, 2))

  000c7	8b 4d fc	 mov	 ecx, DWORD PTR _this$1$[ebp]
  000ca	e8 00 00 00 00	 call	 ?GetRewardScore1@CMuRummyMng@@QAEHXZ ; CMuRummyMng::GetRewardScore1
  000cf	39 47 04	 cmp	 DWORD PTR [edi+4], eax
  000d2	7c 3c		 jl	 SHORT $LN7@CGReqMuRum
  000d4	6a 02		 push	 2
  000d6	6a 04		 push	 4
  000d8	53		 push	 ebx
  000d9	e8 00 00 00 00	 call	 ?CheckInventoryEmptySpace@@YAHPAUOBJECTSTRUCT@@HH@Z ; CheckInventoryEmptySpace
  000de	83 c4 0c	 add	 esp, 12			; 0000000cH
  000e1	85 c0		 test	 eax, eax
  000e3	75 2b		 jne	 SHORT $LN7@CGReqMuRum

; 1219 : 	{
; 1220 : 		this->GCSendMsg(aIndex, 7, 0);

  000e5	8b 4d fc	 mov	 ecx, DWORD PTR _this$1$[ebp]
  000e8	50		 push	 eax
  000e9	6a 07		 push	 7
  000eb	56		 push	 esi
  000ec	e8 00 00 00 00	 call	 ?GCSendMsg@CMuRummyMng@@QAEXHEH@Z ; CMuRummyMng::GCSendMsg

; 1221 : 		LogAddTD("[%s][%s][Mu Rummy] Event Reward fail (1)", lpObj->AccountID, lpObj->Name);

  000f1	8d 43 5d	 lea	 eax, DWORD PTR [ebx+93]
  000f4	50		 push	 eax
  000f5	8d 43 52	 lea	 eax, DWORD PTR [ebx+82]
  000f8	50		 push	 eax
  000f9	68 00 00 00 00	 push	 OFFSET ??_C@_0CJ@JDGPLMFF@?$FL?$CFs?$FN?$FL?$CFs?$FN?$FLMu?5Rummy?$FN?5Event?5Reward?5@
  000fe	ff 15 00 00 00
	00		 call	 DWORD PTR ?LogAddTD@@3P6AXPADZZA ; LogAddTD
  00104	83 c4 0c	 add	 esp, 12			; 0000000cH
  00107	5f		 pop	 edi
  00108	5b		 pop	 ebx
  00109	5e		 pop	 esi

; 1264 : }

  0010a	8b e5		 mov	 esp, ebp
  0010c	5d		 pop	 ebp
  0010d	c2 08 00	 ret	 8
$LN7@CGReqMuRum:

; 1222 : 		return;
; 1223 : 	}
; 1224 : 
; 1225 : 	if (!gObjCheckMaxZen(aIndex, MURUMMY_REWARD_MONEY))

  00110	68 20 a1 07 00	 push	 500000			; 0007a120H
  00115	56		 push	 esi
  00116	e8 00 00 00 00	 call	 ?gObjCheckMaxZen@@YAHHH@Z ; gObjCheckMaxZen

; 1226 : 	{
; 1227 : 		this->GCSendMsg(aIndex, 11, 0);

  0011b	8b 4d fc	 mov	 ecx, DWORD PTR _this$1$[ebp]
  0011e	83 c4 08	 add	 esp, 8
  00121	85 c0		 test	 eax, eax
  00123	75 28		 jne	 SHORT $LN8@CGReqMuRum
  00125	50		 push	 eax
  00126	6a 0b		 push	 11			; 0000000bH
  00128	56		 push	 esi
  00129	e8 00 00 00 00	 call	 ?GCSendMsg@CMuRummyMng@@QAEXHEH@Z ; CMuRummyMng::GCSendMsg

; 1228 :         LogAddTD("[%s][%s][Mu Rummy] Event Reward fail (0)", lpObj->AccountID, lpObj->Name);

  0012e	8d 43 5d	 lea	 eax, DWORD PTR [ebx+93]
  00131	50		 push	 eax
  00132	8d 43 52	 lea	 eax, DWORD PTR [ebx+82]
  00135	50		 push	 eax
  00136	68 00 00 00 00	 push	 OFFSET ??_C@_0CJ@JCKNNGGC@?$FL?$CFs?$FN?$FL?$CFs?$FN?$FLMu?5Rummy?$FN?5Event?5Reward?5@
  0013b	ff 15 00 00 00
	00		 call	 DWORD PTR ?LogAddTD@@3P6AXPADZZA ; LogAddTD
  00141	83 c4 0c	 add	 esp, 12			; 0000000cH
  00144	5f		 pop	 edi
  00145	5b		 pop	 ebx
  00146	5e		 pop	 esi

; 1264 : }

  00147	8b e5		 mov	 esp, ebp
  00149	5d		 pop	 ebp
  0014a	c2 08 00	 ret	 8
$LN8@CGReqMuRum:

; 1229 : 		return;
; 1230 : 	}
; 1231 : 
; 1232 : 	if (pCMuRummyInfo->GetScore() >= this->GetRewardScore1())

  0014d	e8 00 00 00 00	 call	 ?GetRewardScore1@CMuRummyMng@@QAEHXZ ; CMuRummyMng::GetRewardScore1
  00152	39 47 04	 cmp	 DWORD PTR [edi+4], eax
  00155	7c 04		 jl	 SHORT $LN9@CGReqMuRum
; File c:\users\michel\desktop\source\gameserver\source\murummy.h

; 46   :     void SetWaitReward(bool bWaitReward) { this->m_bWaitReward = bWaitReward; };

  00157	c6 47 0e 01	 mov	 BYTE PTR [edi+14], 1
$LN9@CGReqMuRum:
; File c:\users\michel\desktop\source\gameserver\source\murummy.cpp

; 1246 : 	this->GCSendMsg(aIndex, 10, 0);

  0015b	8b 4d fc	 mov	 ecx, DWORD PTR _this$1$[ebp]
  0015e	6a 00		 push	 0
  00160	6a 0a		 push	 10			; 0000000aH
  00162	56		 push	 esi
  00163	e8 00 00 00 00	 call	 ?GCSendMsg@CMuRummyMng@@QAEXHEH@Z ; CMuRummyMng::GCSendMsg

; 1247 :     gObj[aIndex].Money += MURUMMY_REWARD_MONEY;

  00168	a1 00 00 00 00	 mov	 eax, DWORD PTR ?gObj@@3PAUOBJECTSTRUCT@@A ; gObj
  0016d	8b 4d 0c	 mov	 ecx, DWORD PTR tv290[ebp]
  00170	81 84 01 cc 00
	00 00 20 a1 07
	00		 add	 DWORD PTR [ecx+eax+204], 500000 ; 0007a120H

; 1248 :     GCMoneySend(aIndex, gObj[aIndex].Money);

  0017b	a1 00 00 00 00	 mov	 eax, DWORD PTR ?gObj@@3PAUOBJECTSTRUCT@@A ; gObj
  00180	ff b4 01 cc 00
	00 00		 push	 DWORD PTR [ecx+eax+204]
  00187	56		 push	 esi
  00188	e8 00 00 00 00	 call	 ?GCMoneySend@@YAXHK@Z	; GCMoneySend

; 1253 : 	DataSend(aIndex, (LPBYTE)&pMsg, pMsg.h.size);

  0018d	6a 05		 push	 5
  0018f	8d 45 f4	 lea	 eax, DWORD PTR _pMsg$[ebp]
; File c:\users\michel\desktop\source\gameserver\include\prodef.h

; 143  : 		lpBuf[3] = sub;

  00192	66 c7 45 f7 15
	01		 mov	 WORD PTR _pMsg$[ebp+3], 277 ; 00000115H
; File c:\users\michel\desktop\source\gameserver\source\murummy.cpp

; 1253 : 	DataSend(aIndex, (LPBYTE)&pMsg, pMsg.h.size);

  00198	50		 push	 eax
  00199	56		 push	 esi
; File c:\users\michel\desktop\source\gameserver\include\prodef.h

; 140  : 		lpBuf[0] = 0xC1;

  0019a	66 c7 45 f4 c1
	05		 mov	 WORD PTR _pMsg$[ebp], 1473 ; 000005c1H

; 141  : 		lpBuf[1] = size;
; 142  : 		lpBuf[2] = head;

  001a0	c6 45 f6 4d	 mov	 BYTE PTR _pMsg$[ebp+2], 77 ; 0000004dH
; File c:\users\michel\desktop\source\gameserver\source\murummy.cpp

; 1253 : 	DataSend(aIndex, (LPBYTE)&pMsg, pMsg.h.size);

  001a4	e8 00 00 00 00	 call	 ?DataSend@@YAHHPAEK@Z	; DataSend

; 1254 : 
; 1255 : 	this->GCSendMsg(aIndex, 8, 0);

  001a9	8b 4d fc	 mov	 ecx, DWORD PTR _this$1$[ebp]
  001ac	83 c4 14	 add	 esp, 20			; 00000014H
  001af	6a 00		 push	 0
  001b1	6a 08		 push	 8
  001b3	56		 push	 esi
  001b4	e8 00 00 00 00	 call	 ?GCSendMsg@CMuRummyMng@@QAEXHEH@Z ; CMuRummyMng::GCSendMsg

; 1256 : 	LogAddTD("[%s][%s][Mu Rummy] Event Reward Result [Point : %d, RewardZen : %d]",

  001b9	8b 45 0c	 mov	 eax, DWORD PTR _pCMuRummyInfo$[ebp]
  001bc	8d 73 5d	 lea	 esi, DWORD PTR [ebx+93]
  001bf	68 20 a1 07 00	 push	 500000			; 0007a120H
  001c4	8d 7b 52	 lea	 edi, DWORD PTR [ebx+82]
  001c7	ff 70 04	 push	 DWORD PTR [eax+4]
  001ca	56		 push	 esi
  001cb	57		 push	 edi
  001cc	68 00 00 00 00	 push	 OFFSET ??_C@_0EE@HBKLNCHG@?$FL?$CFs?$FN?$FL?$CFs?$FN?$FLMu?5Rummy?$FN?5Event?5Reward?5@
  001d1	ff 15 00 00 00
	00		 call	 DWORD PTR ?LogAddTD@@3P6AXPADZZA ; LogAddTD

; 1257 : 		lpObj->AccountID, lpObj->Name, pCMuRummyInfo->GetScore(), MURUMMY_REWARD_MONEY);  
; 1258 : 	LogAddTD("[%s][%s][Mu Rummy] Event end", lpObj->AccountID, lpObj->Name);

  001d7	56		 push	 esi
  001d8	57		 push	 edi
  001d9	68 00 00 00 00	 push	 OFFSET ??_C@_0BN@EOCJBHNI@?$FL?$CFs?$FN?$FL?$CFs?$FN?$FLMu?5Rummy?$FN?5Event?5end?$AA@
  001de	ff 15 00 00 00
	00		 call	 DWORD PTR ?LogAddTD@@3P6AXPADZZA ; LogAddTD

; 1259 : 	//LogAddEvent("MuRummyEvent:MiniGameEnd", lpObj, ":Score[%d]", pCMuRummyInfo->GetScore());
; 1260 : 	this->GDReqMuRummyDBLog(lpObj, pCMuRummyInfo->GetScore());

  001e4	8b 75 0c	 mov	 esi, DWORD PTR _pCMuRummyInfo$[ebp]
  001e7	83 c4 20	 add	 esp, 32			; 00000020H
  001ea	8b 4d fc	 mov	 ecx, DWORD PTR _this$1$[ebp]
  001ed	ff 76 04	 push	 DWORD PTR [esi+4]
  001f0	53		 push	 ebx
  001f1	e8 00 00 00 00	 call	 ?GDReqMuRummyDBLog@CMuRummyMng@@QAEXPAUOBJECTSTRUCT@@H@Z ; CMuRummyMng::GDReqMuRummyDBLog

; 1261 : 
; 1262 : 	pCMuRummyInfo->Clear();

  001f6	8b ce		 mov	 ecx, esi
  001f8	e8 00 00 00 00	 call	 ?Clear@CMuRummyInfo@@QAEXXZ ; CMuRummyInfo::Clear

; 1263 : 	this->GDReqScoreDelete(lpObj);

  001fd	8b 4d fc	 mov	 ecx, DWORD PTR _this$1$[ebp]
  00200	53		 push	 ebx
  00201	e8 00 00 00 00	 call	 ?GDReqScoreDelete@CMuRummyMng@@QAEXPAUOBJECTSTRUCT@@@Z ; CMuRummyMng::GDReqScoreDelete
  00206	5f		 pop	 edi
$LN33@CGReqMuRum:
  00207	5b		 pop	 ebx
$LN1@CGReqMuRum:
  00208	5e		 pop	 esi

; 1264 : }

  00209	8b e5		 mov	 esp, ebp
  0020b	5d		 pop	 ebp
  0020c	c2 08 00	 ret	 8
?CGReqMuRummyEnd@CMuRummyMng@@QAEXPAU_tagPMSG_REQ_MURUMMY_END@@H@Z ENDP ; CMuRummyMng::CGReqMuRummyEnd
_TEXT	ENDS
; Function compile flags: /Ogtp
; File c:\users\michel\desktop\source\gameserver\source\murummy.cpp
; File c:\users\michel\desktop\source\gameserver\include\prodef.h
; File c:\users\michel\desktop\source\gameserver\source\murummy.cpp
; File c:\users\michel\desktop\source\gameserver\source\murummyprotocol.h
; File c:\users\michel\desktop\source\gameserver\source\murummy.cpp
; File c:\users\michel\desktop\source\gameserver\source\murummy.h
; File c:\users\michel\desktop\source\gameserver\source\murummy.cpp
; File c:\users\michel\desktop\source\gameserver\source\murummy.h
; File c:\users\michel\desktop\source\gameserver\source\murummy.cpp
; File c:\users\michel\desktop\source\gameserver\source\murummy.h
; File c:\users\michel\desktop\source\gameserver\source\murummy.cpp
;	COMDAT ?CGReqCardMatch@CMuRummyMng@@QAEXPAU_tagPMSG_REQ_CARD_MATCH@@H@Z
_TEXT	SEGMENT
_nScore$ = -40						; size = 4
_pMsg$ = -36						; size = 9
_btRet$1$ = -21						; size = 1
_this$GSCopy$1$ = -20					; size = 4
_pCMuRummyInfo$ = -20					; size = 4
_stCardUpdateDS$ = -16					; size = 9
__$ArrayPad$ = -4					; size = 4
_lpMsg$ = 8						; size = 4
_aIndex$ = 12						; size = 4
?CGReqCardMatch@CMuRummyMng@@QAEXPAU_tagPMSG_REQ_CARD_MATCH@@H@Z PROC ; CMuRummyMng::CGReqCardMatch, COMDAT
; _this$ = ecx

; 1121 : {

  00000	55		 push	 ebp
  00001	8b ec		 mov	 ebp, esp
  00003	83 ec 28	 sub	 esp, 40			; 00000028H
  00006	a1 00 00 00 00	 mov	 eax, DWORD PTR ___security_cookie
  0000b	33 c5		 xor	 eax, ebp
  0000d	89 45 fc	 mov	 DWORD PTR __$ArrayPad$[ebp], eax
  00010	57		 push	 edi
  00011	8b 7d 0c	 mov	 edi, DWORD PTR _aIndex$[ebp]
  00014	89 4d ec	 mov	 DWORD PTR _this$GSCopy$1$[ebp], ecx
; File c:\users\michel\desktop\source\gameserver\include\prodef.h

; 140  : 		lpBuf[0] = 0xC1;

  00017	c7 45 dc c1 09
	4d 14		 mov	 DWORD PTR _pMsg$[ebp], 340593089 ; 144d09c1H
; File c:\users\michel\desktop\source\gameserver\source\murummy.cpp

; 1125 : 	if (!OBJMAX_RANGE(aIndex))

  0001e	85 ff		 test	 edi, edi
  00020	0f 88 7e 01 00
	00		 js	 $LN1@CGReqCardM
  00026	33 c0		 xor	 eax, eax
  00028	81 ff eb 2c 00
	00		 cmp	 edi, 11499		; 00002cebH
  0002e	0f 9e c0	 setle	 al
  00031	85 c0		 test	 eax, eax
  00033	0f 84 6b 01 00
	00		 je	 $LN1@CGReqCardM

; 1126 : 	{
; 1127 : 		return;
; 1128 : 	}
; 1129 : 
; 1130 : 	if (!gObjIsConnected(aIndex))

  00039	57		 push	 edi
  0003a	e8 00 00 00 00	 call	 ?gObjIsConnected@@YAHH@Z ; gObjIsConnected
  0003f	83 c4 04	 add	 esp, 4
  00042	85 c0		 test	 eax, eax
  00044	0f 84 5a 01 00
	00		 je	 $LN1@CGReqCardM

; 1131 : 	{
; 1132 : 		return;
; 1133 : 	}
; 1134 : 
; 1135 : 	LPOBJ lpObj = &gObj[aIndex];
; 1136 : 	CMuRummyInfo* pCMuRummyInfo;// = gObj[aIndex].m_pCMuRummyInfo;
; 1137 : 
; 1138 : 	if (!pCMuRummyInfo)

  0004a	53		 push	 ebx
  0004b	8b 5d ec	 mov	 ebx, DWORD PTR _pCMuRummyInfo$[ebp]
  0004e	56		 push	 esi
  0004f	69 f7 40 27 00
	00		 imul	 esi, edi, 10048
  00055	03 35 00 00 00
	00		 add	 esi, DWORD PTR ?gObj@@3PAUOBJECTSTRUCT@@A ; gObj
  0005b	85 db		 test	 ebx, ebx
  0005d	75 33		 jne	 SHORT $LN4@CGReqCardM

; 1139 :     {
; 1140 : 		LogAddTD("[MuRummy][Error] pCMuRummyInfo is NULL [%s][%s] [%s, %d]",

  0005f	68 75 04 00 00	 push	 1141			; 00000475H
  00064	68 00 00 00 00	 push	 OFFSET ??_C@_0M@DEILNLI@MuRummy?4cpp?$AA@
  00069	8d 46 5d	 lea	 eax, DWORD PTR [esi+93]
  0006c	50		 push	 eax
  0006d	8d 46 52	 lea	 eax, DWORD PTR [esi+82]
  00070	50		 push	 eax
  00071	68 00 00 00 00	 push	 OFFSET ??_C@_0DJ@JIKKCJIL@?$FLMuRummy?$FN?$FLError?$FN?5pCMuRummyInfo?5i@
  00076	ff 15 00 00 00
	00		 call	 DWORD PTR ?LogAddTD@@3P6AXPADZZA ; LogAddTD
  0007c	83 c4 14	 add	 esp, 20			; 00000014H
  0007f	5e		 pop	 esi
  00080	5b		 pop	 ebx
  00081	5f		 pop	 edi

; 1180 : }

  00082	8b 4d fc	 mov	 ecx, DWORD PTR __$ArrayPad$[ebp]
  00085	33 cd		 xor	 ecx, ebp
  00087	e8 00 00 00 00	 call	 @__security_check_cookie@4
  0008c	8b e5		 mov	 esp, ebp
  0008e	5d		 pop	 ebp
  0008f	c2 08 00	 ret	 8
$LN4@CGReqCardM:

; 1147 : 	BYTE btRet = this->CardMatchCheck(pCMuRummyInfo, nScore, stCardUpdateDS, lpObj);

  00092	8b 4d ec	 mov	 ecx, DWORD PTR _this$GSCopy$1$[ebp]
  00095	8d 45 f0	 lea	 eax, DWORD PTR _stCardUpdateDS$[ebp]
  00098	56		 push	 esi
  00099	50		 push	 eax
  0009a	8d 45 d8	 lea	 eax, DWORD PTR _nScore$[ebp]
  0009d	c7 45 d8 00 00
	00 00		 mov	 DWORD PTR _nScore$[ebp], 0
  000a4	50		 push	 eax
  000a5	53		 push	 ebx
; File c:\users\michel\desktop\source\gameserver\source\murummyprotocol.h

; 39   : 		this->btSlotNum = -1;

  000a6	c7 45 f0 ff ff
	ff ff		 mov	 DWORD PTR _stCardUpdateDS$[ebp], -1

; 40   : 		this->btSeq = -1;

  000ad	c7 45 f4 ff ff
	ff ff		 mov	 DWORD PTR _stCardUpdateDS$[ebp+4], -1

; 41   : 		this->btStatus = -1;

  000b4	c6 45 f8 ff	 mov	 BYTE PTR _stCardUpdateDS$[ebp+8], 255 ; 000000ffH
; File c:\users\michel\desktop\source\gameserver\source\murummy.cpp

; 1147 : 	BYTE btRet = this->CardMatchCheck(pCMuRummyInfo, nScore, stCardUpdateDS, lpObj);

  000b8	e8 00 00 00 00	 call	 ?CardMatchCheck@CMuRummyMng@@QAEEPAVCMuRummyInfo@@AAHPAU_tagMuRummyCardUpdateDS@@PAUOBJECTSTRUCT@@@Z ; CMuRummyMng::CardMatchCheck

; 1148 :     CMuRummyCardInfo* pCCardInfo = pCMuRummyInfo->GetCardInfo();

  000bd	8b cb		 mov	 ecx, ebx
  000bf	88 45 eb	 mov	 BYTE PTR _btRet$1$[ebp], al
  000c2	e8 00 00 00 00	 call	 ?GetCardInfo@CMuRummyInfo@@QAEPAVCMuRummyCardInfo@@XZ ; CMuRummyInfo::GetCardInfo

; 1149 : 
; 1150 : 	if (!pCCardInfo)

  000c7	85 c0		 test	 eax, eax
  000c9	75 2b		 jne	 SHORT $LN5@CGReqCardM

; 1151 :     {
; 1152 : 		LogAddTD("[MuRummy][Error] pCCardInfo is NULL [%s, %d]", __FILE__, __LINE__);

  000cb	68 80 04 00 00	 push	 1152			; 00000480H
  000d0	68 00 00 00 00	 push	 OFFSET ??_C@_0M@DEILNLI@MuRummy?4cpp?$AA@
  000d5	68 00 00 00 00	 push	 OFFSET ??_C@_0CN@OCJJNEBG@?$FLMuRummy?$FN?$FLError?$FN?5pCCardInfo?5is?5N@
  000da	ff 15 00 00 00
	00		 call	 DWORD PTR ?LogAddTD@@3P6AXPADZZA ; LogAddTD
  000e0	83 c4 0c	 add	 esp, 12			; 0000000cH
  000e3	5e		 pop	 esi
  000e4	5b		 pop	 ebx
  000e5	5f		 pop	 edi

; 1180 : }

  000e6	8b 4d fc	 mov	 ecx, DWORD PTR __$ArrayPad$[ebp]
  000e9	33 cd		 xor	 ecx, ebp
  000eb	e8 00 00 00 00	 call	 @__security_check_cookie@4
  000f0	8b e5		 mov	 esp, ebp
  000f2	5d		 pop	 ebp
  000f3	c2 08 00	 ret	 8
$LN5@CGReqCardM:

; 1153 : 		return;
; 1154 : 	}
; 1155 : 
; 1156 : 	if (btRet)

  000f6	80 7d eb 00	 cmp	 BYTE PTR _btRet$1$[ebp], 0
  000fa	74 25		 je	 SHORT $LN6@CGReqCardM

; 1157 : 	{
; 1158 : 		this->GCSendMsg(aIndex, 6, 0);

  000fc	8b 4d ec	 mov	 ecx, DWORD PTR _this$GSCopy$1$[ebp]
  000ff	6a 00		 push	 0
  00101	6a 06		 push	 6
  00103	57		 push	 edi
  00104	e8 00 00 00 00	 call	 ?GCSendMsg@CMuRummyMng@@QAEXHEH@Z ; CMuRummyMng::GCSendMsg

; 1159 : 		LogAddTD("[%s][%s][Mu Rummy] Slot[3] - Combine Fail", lpObj->AccountID, lpObj->Name);

  00109	8d 46 5d	 lea	 eax, DWORD PTR [esi+93]
  0010c	50		 push	 eax
  0010d	8d 46 52	 lea	 eax, DWORD PTR [esi+82]
  00110	50		 push	 eax
  00111	68 00 00 00 00	 push	 OFFSET ??_C@_0CK@HGICILBL@?$FL?$CFs?$FN?$FL?$CFs?$FN?$FLMu?5Rummy?$FN?5Slot?$FL3?$FN?5?9?5Com@
  00116	ff 15 00 00 00
	00		 call	 DWORD PTR ?LogAddTD@@3P6AXPADZZA ; LogAddTD
  0011c	83 c4 0c	 add	 esp, 12			; 0000000cH

; 1160 : 	}
; 1161 : 	else

  0011f	eb 78		 jmp	 SHORT $LN7@CGReqCardM
$LN6@CGReqCardM:
; File c:\users\michel\desktop\source\gameserver\source\murummy.h

; 42   :     void SetScore(int iScore) { this->m_iScore = iScore; };

  00121	8b 55 ec	 mov	 edx, DWORD PTR _pCMuRummyInfo$[ebp]
  00124	8b 5d d8	 mov	 ebx, DWORD PTR _nScore$[ebp]
; File c:\users\michel\desktop\source\gameserver\source\murummy.cpp

; 1166 :         pMsg.btScoreH = SET_NUMBERH(nScore);

  00127	8b c3		 mov	 eax, ebx
  00129	c1 e8 08	 shr	 eax, 8
  0012c	88 45 e0	 mov	 BYTE PTR _pMsg$[ebp+4], al
; File c:\users\michel\desktop\source\gameserver\source\murummy.h

; 42   :     void SetScore(int iScore) { this->m_iScore = iScore; };

  0012f	01 5a 04	 add	 DWORD PTR [edx+4], ebx
; File c:\users\michel\desktop\source\gameserver\source\murummy.cpp

; 1169 :         pMsg.btTotScoreL = SET_NUMBERL(pCMuRummyInfo->GetScore());

  00132	8a 42 04	 mov	 al, BYTE PTR [edx+4]
; File c:\users\michel\desktop\source\gameserver\source\murummy.h

; 42   :     void SetScore(int iScore) { this->m_iScore = iScore; };

  00135	8b 4a 04	 mov	 ecx, DWORD PTR [edx+4]
; File c:\users\michel\desktop\source\gameserver\source\murummy.cpp

; 1169 :         pMsg.btTotScoreL = SET_NUMBERL(pCMuRummyInfo->GetScore());

  00138	88 45 e3	 mov	 BYTE PTR _pMsg$[ebp+7], al

; 1170 :         DataSend(aIndex, (LPBYTE)&pMsg, pMsg.h.size);

  0013b	0f b6 45 dd	 movzx	 eax, BYTE PTR _pMsg$[ebp+1]
  0013f	50		 push	 eax
  00140	8d 45 dc	 lea	 eax, DWORD PTR _pMsg$[ebp]
  00143	c1 e9 08	 shr	 ecx, 8
  00146	50		 push	 eax
  00147	57		 push	 edi
  00148	c6 45 e4 01	 mov	 BYTE PTR _pMsg$[ebp+8], 1
  0014c	88 5d e1	 mov	 BYTE PTR _pMsg$[ebp+5], bl
  0014f	88 4d e2	 mov	 BYTE PTR _pMsg$[ebp+6], cl
  00152	e8 00 00 00 00	 call	 ?DataSend@@YAHHPAEK@Z	; DataSend

; 1171 :           
; 1172 : 		this->GCSendMsg(aIndex, 5, 0);

  00157	8b 4d ec	 mov	 ecx, DWORD PTR _this$GSCopy$1$[ebp]
  0015a	83 c4 0c	 add	 esp, 12			; 0000000cH
  0015d	6a 00		 push	 0
  0015f	6a 05		 push	 5
  00161	57		 push	 edi
  00162	e8 00 00 00 00	 call	 ?GCSendMsg@CMuRummyMng@@QAEXHEH@Z ; CMuRummyMng::GCSendMsg

; 1173 :         this->GDReqScoreUpdate(lpObj, pCMuRummyInfo->GetScore(), stCardUpdateDS);

  00167	8b 4d ec	 mov	 ecx, DWORD PTR _this$GSCopy$1$[ebp]
  0016a	8d 45 f0	 lea	 eax, DWORD PTR _stCardUpdateDS$[ebp]
  0016d	50		 push	 eax
  0016e	8b 45 ec	 mov	 eax, DWORD PTR _pCMuRummyInfo$[ebp]
  00171	0f b7 40 04	 movzx	 eax, WORD PTR [eax+4]
  00175	50		 push	 eax
  00176	56		 push	 esi
  00177	e8 00 00 00 00	 call	 ?GDReqScoreUpdate@CMuRummyMng@@QAEXPAUOBJECTSTRUCT@@GPAU_tagMuRummyCardUpdateDS@@@Z ; CMuRummyMng::GDReqScoreUpdate

; 1174 : 
; 1175 : 		LogAddTD("[%s][%s][Mu Rummy] Slot[3] - Combine Success Gain Point(%d) (%d)",

  0017c	8b 45 ec	 mov	 eax, DWORD PTR _pCMuRummyInfo$[ebp]
  0017f	ff 70 04	 push	 DWORD PTR [eax+4]
  00182	8d 46 5d	 lea	 eax, DWORD PTR [esi+93]
  00185	53		 push	 ebx
  00186	50		 push	 eax
  00187	8d 46 52	 lea	 eax, DWORD PTR [esi+82]
  0018a	50		 push	 eax
  0018b	68 00 00 00 00	 push	 OFFSET ??_C@_0EB@FBJCEGJG@?$FL?$CFs?$FN?$FL?$CFs?$FN?$FLMu?5Rummy?$FN?5Slot?$FL3?$FN?5?9?5Com@
  00190	ff 15 00 00 00
	00		 call	 DWORD PTR ?LogAddTD@@3P6AXPADZZA ; LogAddTD
  00196	83 c4 14	 add	 esp, 20			; 00000014H
$LN7@CGReqCardM:

; 1176 : 			lpObj->AccountID,lpObj->Name, nScore, pCMuRummyInfo->GetScore());
; 1177 : 	}
; 1178 : 
; 1179 : 	this->GCSendCardList(aIndex);

  00199	8b 4d ec	 mov	 ecx, DWORD PTR _this$GSCopy$1$[ebp]
  0019c	57		 push	 edi
  0019d	e8 00 00 00 00	 call	 ?GCSendCardList@CMuRummyMng@@QAEXH@Z ; CMuRummyMng::GCSendCardList
  001a2	5e		 pop	 esi
  001a3	5b		 pop	 ebx
$LN1@CGReqCardM:

; 1180 : }

  001a4	8b 4d fc	 mov	 ecx, DWORD PTR __$ArrayPad$[ebp]
  001a7	33 cd		 xor	 ecx, ebp
  001a9	5f		 pop	 edi
  001aa	e8 00 00 00 00	 call	 @__security_check_cookie@4
  001af	8b e5		 mov	 esp, ebp
  001b1	5d		 pop	 ebp
  001b2	c2 08 00	 ret	 8
?CGReqCardMatch@CMuRummyMng@@QAEXPAU_tagPMSG_REQ_CARD_MATCH@@H@Z ENDP ; CMuRummyMng::CGReqCardMatch
_TEXT	ENDS
; Function compile flags: /Ogtp
; File c:\users\michel\desktop\source\gameserver\source\murummy.cpp
; File c:\users\michel\desktop\source\gameserver\include\prodef.h
; File c:\users\michel\desktop\source\gameserver\source\murummy.cpp
;	COMDAT ?CGReqCardReMove@CMuRummyMng@@QAEXPAU_tagPMSG_REQ_CARD_REMOVE@@H@Z
_TEXT	SEGMENT
_pMsg$ = -12						; size = 5
_this$1$ = -4						; size = 4
_sSlot$1$ = 8						; size = 4
_lpMsg$ = 8						; size = 4
_pCMuRummyInfo$ = 12					; size = 4
_aIndex$ = 12						; size = 4
_Ret$1$ = 15						; size = 1
?CGReqCardReMove@CMuRummyMng@@QAEXPAU_tagPMSG_REQ_CARD_REMOVE@@H@Z PROC ; CMuRummyMng::CGReqCardReMove, COMDAT
; _this$ = ecx

; 1052 : {

  00000	55		 push	 ebp
  00001	8b ec		 mov	 ebp, esp
  00003	83 ec 0c	 sub	 esp, 12			; 0000000cH
  00006	53		 push	 ebx

; 1056 : 	if (!OBJMAX_RANGE(aIndex))

  00007	8b 5d 0c	 mov	 ebx, DWORD PTR _aIndex$[ebp]
  0000a	89 4d fc	 mov	 DWORD PTR _this$1$[ebp], ecx
; File c:\users\michel\desktop\source\gameserver\include\prodef.h

; 140  : 		lpBuf[0] = 0xC1;

  0000d	c7 45 f4 c1 05
	4d 13		 mov	 DWORD PTR _pMsg$[ebp], 323814849 ; 134d05c1H
; File c:\users\michel\desktop\source\gameserver\source\murummy.cpp

; 1056 : 	if (!OBJMAX_RANGE(aIndex))

  00014	85 db		 test	 ebx, ebx
  00016	0f 88 7e 01 00
	00		 js	 $LN1@CGReqCardR
  0001c	33 c0		 xor	 eax, eax
  0001e	81 fb eb 2c 00
	00		 cmp	 ebx, 11499		; 00002cebH
  00024	0f 9e c0	 setle	 al
  00027	85 c0		 test	 eax, eax
  00029	0f 84 6b 01 00
	00		 je	 $LN1@CGReqCardR

; 1057 : 	{
; 1058 : 		return;
; 1059 : 	}
; 1060 : 
; 1061 : 	if (!gObjIsConnected(aIndex))

  0002f	53		 push	 ebx
  00030	e8 00 00 00 00	 call	 ?gObjIsConnected@@YAHH@Z ; gObjIsConnected
  00035	83 c4 04	 add	 esp, 4
  00038	85 c0		 test	 eax, eax
  0003a	0f 84 5a 01 00
	00		 je	 $LN1@CGReqCardR

; 1062 : 	{
; 1063 : 		return;
; 1064 : 	}
; 1065 : 
; 1066 : 	LPOBJ lpObj = &gObj[aIndex];

  00040	57		 push	 edi
  00041	69 fb 40 27 00
	00		 imul	 edi, ebx, 10048
  00047	03 3d 00 00 00
	00		 add	 edi, DWORD PTR ?gObj@@3PAUOBJECTSTRUCT@@A ; gObj

; 1067 : 
; 1068 : 	if (lpObj->CloseType != -1) 

  0004d	80 7f 0d ff	 cmp	 BYTE PTR [edi+13], -1
  00051	0f 85 42 01 00
	00		 jne	 $LN20@CGReqCardR

; 1069 : 	{
; 1070 : 		return;
; 1071 : 	}
; 1072 : 
; 1073 : 	int sSlot = lpMsg->btSlot;

  00057	8b 45 08	 mov	 eax, DWORD PTR _lpMsg$[ebp]
  0005a	0f b6 48 04	 movzx	 ecx, BYTE PTR [eax+4]
  0005e	89 4d 08	 mov	 DWORD PTR _sSlot$1$[ebp], ecx

; 1074 : 
; 1075 : 	if (sSlot >= MURUMMY_MAX_SLOT)

  00061	83 f9 08	 cmp	 ecx, 8
  00064	7c 29		 jl	 SHORT $LN5@CGReqCardR

; 1076 :     {
; 1077 : 		LogAddTD("[MuRummy][Error] dump fail Slot Num [%d] [%s][%s] [%s, %d]",

  00066	68 36 04 00 00	 push	 1078			; 00000436H
  0006b	68 00 00 00 00	 push	 OFFSET ??_C@_0M@DEILNLI@MuRummy?4cpp?$AA@
  00070	8d 47 5d	 lea	 eax, DWORD PTR [edi+93]
  00073	50		 push	 eax
  00074	8d 47 52	 lea	 eax, DWORD PTR [edi+82]
  00077	50		 push	 eax
  00078	51		 push	 ecx
  00079	68 00 00 00 00	 push	 OFFSET ??_C@_0DL@POJPEBAK@?$FLMuRummy?$FN?$FLError?$FN?5dump?5fail?5Slot?5@
  0007e	ff 15 00 00 00
	00		 call	 DWORD PTR ?LogAddTD@@3P6AXPADZZA ; LogAddTD
  00084	83 c4 18	 add	 esp, 24			; 00000018H
  00087	5f		 pop	 edi
  00088	5b		 pop	 ebx

; 1118 : }

  00089	8b e5		 mov	 esp, ebp
  0008b	5d		 pop	 ebp
  0008c	c2 08 00	 ret	 8
$LN5@CGReqCardR:
  0008f	56		 push	 esi

; 1078 : 			sSlot, lpObj->AccountID, lpObj->Name, __FILE__, __LINE__);
; 1079 : 		return;
; 1080 : 	}
; 1081 : 
; 1082 : 	CMuRummyInfo* pCMuRummyInfo;// = lpObj->m_pCMuRummyInfo;
; 1083 : 
; 1084 : 	if (!pCMuRummyInfo)

  00090	8b 75 0c	 mov	 esi, DWORD PTR _pCMuRummyInfo$[ebp]
  00093	85 f6		 test	 esi, esi
  00095	75 29		 jne	 SHORT $LN6@CGReqCardR

; 1085 : 	{
; 1086 : 		LogAddTD("[MuRummy][Error] pCMuRummyInfo is NULL [%s][%s] [%s, %d]",

  00097	68 3f 04 00 00	 push	 1087			; 0000043fH
  0009c	68 00 00 00 00	 push	 OFFSET ??_C@_0M@DEILNLI@MuRummy?4cpp?$AA@
  000a1	8d 47 5d	 lea	 eax, DWORD PTR [edi+93]
  000a4	50		 push	 eax
  000a5	8d 47 52	 lea	 eax, DWORD PTR [edi+82]
  000a8	50		 push	 eax
  000a9	68 00 00 00 00	 push	 OFFSET ??_C@_0DJ@JIKKCJIL@?$FLMuRummy?$FN?$FLError?$FN?5pCMuRummyInfo?5i@
  000ae	ff 15 00 00 00
	00		 call	 DWORD PTR ?LogAddTD@@3P6AXPADZZA ; LogAddTD
  000b4	83 c4 14	 add	 esp, 20			; 00000014H
  000b7	5e		 pop	 esi
  000b8	5f		 pop	 edi
  000b9	5b		 pop	 ebx

; 1118 : }

  000ba	8b e5		 mov	 esp, ebp
  000bc	5d		 pop	 ebp
  000bd	c2 08 00	 ret	 8
$LN6@CGReqCardR:

; 1087 : 			lpObj->AccountID, lpObj->Name, __FILE__, __LINE__);
; 1088 : 		return;
; 1089 : 	}
; 1090 : 
; 1091 : 	BYTE Ret = this->CardSlotReMove(pCMuRummyInfo, sSlot);

  000c0	51		 push	 ecx
  000c1	8b 4d fc	 mov	 ecx, DWORD PTR _this$1$[ebp]
  000c4	56		 push	 esi
  000c5	e8 00 00 00 00	 call	 ?CardSlotReMove@CMuRummyMng@@QAEEPAVCMuRummyInfo@@H@Z ; CMuRummyMng::CardSlotReMove
  000ca	88 45 0f	 mov	 BYTE PTR _Ret$1$[ebp], al

; 1092 : 
; 1093 : 	if (Ret == (BYTE)-1)

  000cd	3c ff		 cmp	 al, 255			; 000000ffH
  000cf	75 1f		 jne	 SHORT $LN7@CGReqCardR

; 1094 : 	{
; 1095 : 		LogAddTD("[MuRummy][Error] dump Card fail [%s][%s] ", 

  000d1	8d 47 5d	 lea	 eax, DWORD PTR [edi+93]
  000d4	50		 push	 eax
  000d5	8d 47 52	 lea	 eax, DWORD PTR [edi+82]
  000d8	50		 push	 eax
  000d9	68 00 00 00 00	 push	 OFFSET ??_C@_0CK@GFMCEJJH@?$FLMuRummy?$FN?$FLError?$FN?5dump?5Card?5fail?5@
  000de	ff 15 00 00 00
	00		 call	 DWORD PTR ?LogAddTD@@3P6AXPADZZA ; LogAddTD
  000e4	83 c4 0c	 add	 esp, 12			; 0000000cH
  000e7	5e		 pop	 esi
  000e8	5f		 pop	 edi
  000e9	5b		 pop	 ebx

; 1118 : }

  000ea	8b e5		 mov	 esp, ebp
  000ec	5d		 pop	 ebp
  000ed	c2 08 00	 ret	 8
$LN7@CGReqCardR:

; 1096 : 			lpObj->AccountID, lpObj->Name);
; 1097 : 		return;
; 1098 : 	}
; 1099 : 
; 1100 : 	CMuRummyCardInfo* pCCardInfo = pCMuRummyInfo->GetCardInfo();

  000f0	8b ce		 mov	 ecx, esi
  000f2	e8 00 00 00 00	 call	 ?GetCardInfo@CMuRummyInfo@@QAEPAVCMuRummyCardInfo@@XZ ; CMuRummyInfo::GetCardInfo
  000f7	8b d0		 mov	 edx, eax

; 1101 : 
; 1102 : 	if (!pCCardInfo)

  000f9	85 d2		 test	 edx, edx
  000fb	75 29		 jne	 SHORT $LN8@CGReqCardR

; 1103 : 	{
; 1104 : 		LogAddTD("[MuRummy][Error] pCCardInfo is NULL [%s][%s] [%s, %d]",

  000fd	68 51 04 00 00	 push	 1105			; 00000451H
  00102	68 00 00 00 00	 push	 OFFSET ??_C@_0M@DEILNLI@MuRummy?4cpp?$AA@
  00107	8d 47 5d	 lea	 eax, DWORD PTR [edi+93]
  0010a	50		 push	 eax
  0010b	8d 47 52	 lea	 eax, DWORD PTR [edi+82]
  0010e	50		 push	 eax
  0010f	68 00 00 00 00	 push	 OFFSET ??_C@_0DG@KLOFMILL@?$FLMuRummy?$FN?$FLError?$FN?5pCCardInfo?5is?5N@
  00114	ff 15 00 00 00
	00		 call	 DWORD PTR ?LogAddTD@@3P6AXPADZZA ; LogAddTD
  0011a	83 c4 14	 add	 esp, 20			; 00000014H
  0011d	5e		 pop	 esi
  0011e	5f		 pop	 edi
  0011f	5b		 pop	 ebx

; 1118 : }

  00120	8b e5		 mov	 esp, ebp
  00122	5d		 pop	 ebp
  00123	c2 08 00	 ret	 8
$LN8@CGReqCardR:

; 1105 : 			lpObj->AccountID, lpObj->Name, __FILE__, __LINE__);
; 1106 : 		return;
; 1107 : 	}
; 1108 : 
; 1109 : 	this->GDReqCardInfoUpdate(lpObj, &pCCardInfo[Ret], Ret);

  00126	0f b6 4d 0f	 movzx	 ecx, BYTE PTR _Ret$1$[ebp]
  0012a	8b f1		 mov	 esi, ecx
  0012c	51		 push	 ecx
  0012d	8b 4d fc	 mov	 ecx, DWORD PTR _this$1$[ebp]
  00130	c1 e6 04	 shl	 esi, 4
  00133	03 f2		 add	 esi, edx
  00135	56		 push	 esi
  00136	57		 push	 edi
  00137	e8 00 00 00 00	 call	 ?GDReqCardInfoUpdate@CMuRummyMng@@QAEXPAUOBJECTSTRUCT@@PAVCMuRummyCardInfo@@H@Z ; CMuRummyMng::GDReqCardInfoUpdate

; 1110 : 	pMsg.btResult = sSlot;

  0013c	8b 45 08	 mov	 eax, DWORD PTR _sSlot$1$[ebp]
  0013f	88 45 f8	 mov	 BYTE PTR _pMsg$[ebp+4], al

; 1111 : 	DataSend(aIndex, (LPBYTE)&pMsg, pMsg.h.size);

  00142	0f b6 45 f5	 movzx	 eax, BYTE PTR _pMsg$[ebp+1]
  00146	50		 push	 eax
  00147	8d 45 f4	 lea	 eax, DWORD PTR _pMsg$[ebp]
  0014a	50		 push	 eax
  0014b	53		 push	 ebx
  0014c	e8 00 00 00 00	 call	 ?DataSend@@YAHHPAEK@Z	; DataSend
  00151	83 c4 0c	 add	 esp, 12			; 0000000cH

; 1112 : 
; 1113 :     this->GCSendMsg(aIndex, 4, 0);

  00154	6a 00		 push	 0
  00156	6a 04		 push	 4
  00158	53		 push	 ebx
  00159	8b 5d fc	 mov	 ebx, DWORD PTR _this$1$[ebp]
  0015c	8b cb		 mov	 ecx, ebx
  0015e	e8 00 00 00 00	 call	 ?GCSendMsg@CMuRummyMng@@QAEXHEH@Z ; CMuRummyMng::GCSendMsg

; 1114 : 	LogAddTD("[%s][%s][Mu Rummy] Slot[5] - Junk Slot[%d] %c : %d",

  00163	ff 76 04	 push	 DWORD PTR [esi+4]
  00166	8b 06		 mov	 eax, DWORD PTR [esi]
  00168	8b cb		 mov	 ecx, ebx
  0016a	48		 dec	 eax
  0016b	50		 push	 eax
  0016c	e8 00 00 00 00	 call	 ?GetColorName@CMuRummyMng@@QAEDH@Z ; CMuRummyMng::GetColorName
  00171	0f be c0	 movsx	 eax, al
  00174	50		 push	 eax
  00175	ff 75 08	 push	 DWORD PTR _sSlot$1$[ebp]
  00178	8d 47 5d	 lea	 eax, DWORD PTR [edi+93]
  0017b	50		 push	 eax
  0017c	8d 47 52	 lea	 eax, DWORD PTR [edi+82]
  0017f	50		 push	 eax
  00180	68 00 00 00 00	 push	 OFFSET ??_C@_0DD@GPAJNGEE@?$FL?$CFs?$FN?$FL?$CFs?$FN?$FLMu?5Rummy?$FN?5Slot?$FL5?$FN?5?9?5Jun@
  00185	ff 15 00 00 00
	00		 call	 DWORD PTR ?LogAddTD@@3P6AXPADZZA ; LogAddTD
  0018b	83 c4 18	 add	 esp, 24			; 00000018H

; 1115 : 		lpObj->AccountID, lpObj->Name, sSlot,
; 1116 : 		this->GetColorName(pCCardInfo[Ret].GetColor() - 1), pCCardInfo[Ret].GetNumber());
; 1117 : 	this->Slot5Log(lpObj, 0);

  0018e	8b cb		 mov	 ecx, ebx
  00190	6a 00		 push	 0
  00192	57		 push	 edi
  00193	e8 00 00 00 00	 call	 ?Slot5Log@CMuRummyMng@@QAEXPAUOBJECTSTRUCT@@H@Z ; CMuRummyMng::Slot5Log
  00198	5e		 pop	 esi
$LN20@CGReqCardR:
  00199	5f		 pop	 edi
$LN1@CGReqCardR:
  0019a	5b		 pop	 ebx

; 1118 : }

  0019b	8b e5		 mov	 esp, ebp
  0019d	5d		 pop	 ebp
  0019e	c2 08 00	 ret	 8
?CGReqCardReMove@CMuRummyMng@@QAEXPAU_tagPMSG_REQ_CARD_REMOVE@@H@Z ENDP ; CMuRummyMng::CGReqCardReMove
_TEXT	ENDS
; Function compile flags: /Ogtp
; File c:\users\michel\desktop\source\gameserver\source\murummy.cpp
; File c:\users\michel\desktop\source\gameserver\source\murummyprotocol.h
; File c:\users\michel\desktop\source\gameserver\include\prodef.h
; File c:\users\michel\desktop\source\gameserver\source\murummy.cpp
;	COMDAT ?CGReqCardMove@CMuRummyMng@@QAEXPAU_tagPMSG_REQ_CARD_MOVE@@H@Z
_TEXT	SEGMENT
_pCOutCardInfo$ = -28					; size = 16
_pMsg$ = -12						; size = 8
_this$1$ = -4						; size = 4
_lpMsg$ = 8						; size = 4
_tSlot$1$ = 12						; size = 4
_pCMuRummyInfo$ = 12					; size = 4
_aIndex$ = 12						; size = 4
?CGReqCardMove@CMuRummyMng@@QAEXPAU_tagPMSG_REQ_CARD_MOVE@@H@Z PROC ; CMuRummyMng::CGReqCardMove, COMDAT
; _this$ = ecx

; 984  : {

  00000	55		 push	 ebp
  00001	8b ec		 mov	 ebp, esp
  00003	83 ec 1c	 sub	 esp, 28			; 0000001cH
  00006	57		 push	 edi

; 988  : 	if (!OBJMAX_RANGE(aIndex))

  00007	8b 7d 0c	 mov	 edi, DWORD PTR _aIndex$[ebp]
  0000a	89 4d fc	 mov	 DWORD PTR _this$1$[ebp], ecx
; File c:\users\michel\desktop\source\gameserver\source\murummyprotocol.h

; 118  : 		this->sSlot = -1;

  0000d	c7 45 f8 ff ff
	ff ff		 mov	 DWORD PTR _pMsg$[ebp+4], -1
; File c:\users\michel\desktop\source\gameserver\include\prodef.h

; 140  : 		lpBuf[0] = 0xC1;

  00014	c7 45 f4 c1 08
	4d 12		 mov	 DWORD PTR _pMsg$[ebp], 307038401 ; 124d08c1H
; File c:\users\michel\desktop\source\gameserver\source\murummy.cpp

; 988  : 	if (!OBJMAX_RANGE(aIndex))

  0001b	85 ff		 test	 edi, edi
  0001d	0f 88 e6 00 00
	00		 js	 $LN17@CGReqCardM
  00023	33 c0		 xor	 eax, eax
  00025	81 ff eb 2c 00
	00		 cmp	 edi, 11499		; 00002cebH
  0002b	0f 9e c0	 setle	 al
  0002e	85 c0		 test	 eax, eax
  00030	0f 84 d3 00 00
	00		 je	 $LN17@CGReqCardM

; 989  : 	{
; 990  : 		return;
; 991  : 	}
; 992  : 
; 993  : 	if (!gObjIsConnected(aIndex))

  00036	57		 push	 edi
  00037	e8 00 00 00 00	 call	 ?gObjIsConnected@@YAHH@Z ; gObjIsConnected
  0003c	83 c4 04	 add	 esp, 4
  0003f	85 c0		 test	 eax, eax
  00041	0f 84 c2 00 00
	00		 je	 $LN17@CGReqCardM

; 994  : 	{
; 995  : 		return;
; 996  : 	}
; 997  : 
; 998  : 	LPOBJ lpObj = &gObj[aIndex];

  00047	56		 push	 esi
  00048	69 f7 40 27 00
	00		 imul	 esi, edi, 10048
  0004e	03 35 00 00 00
	00		 add	 esi, DWORD PTR ?gObj@@3PAUOBJECTSTRUCT@@A ; gObj

; 999  : 
; 1000 : 	if (lpObj->CloseType != -1) 

  00054	80 7e 0d ff	 cmp	 BYTE PTR [esi+13], -1
  00058	0f 85 aa 00 00
	00		 jne	 $LN28@CGReqCardM

; 1001 : 	{
; 1002 : 		return;
; 1003 : 	}
; 1004 : 
; 1005 : 	int sSlot = lpMsg->sSlot;

  0005e	8b 45 08	 mov	 eax, DWORD PTR _lpMsg$[ebp]
  00061	53		 push	 ebx
  00062	0f b6 58 04	 movzx	 ebx, BYTE PTR [eax+4]

; 1006 :     int tSlot = lpMsg->tSlot;

  00066	0f b6 40 05	 movzx	 eax, BYTE PTR [eax+5]
  0006a	89 45 0c	 mov	 DWORD PTR _tSlot$1$[ebp], eax

; 1007 : 
; 1008 : 	if (sSlot < 0 || sSlot >= MURUMMY_MAX_SLOT)

  0006d	83 fb 07	 cmp	 ebx, 7
  00070	0f 87 91 00 00
	00		 ja	 $LN29@CGReqCardM

; 1009 :     {
; 1010 : 		return;
; 1011 : 	}
; 1012 : 
; 1013 : 	if (tSlot < 0 || tSlot >= MURUMMY_MAX_SLOT)

  00076	83 f8 07	 cmp	 eax, 7
  00079	0f 87 88 00 00
	00		 ja	 $LN29@CGReqCardM

; 1014 :     {
; 1015 : 		return;
; 1016 : 	}
; 1017 : 
; 1018 : 	if (sSlot == tSlot)

  0007f	3b d8		 cmp	 ebx, eax
  00081	0f 84 80 00 00
	00		 je	 $LN29@CGReqCardM

; 1019 : 	{
; 1020 : 		return;
; 1021 : 	}
; 1022 : 
; 1023 : 	CMuRummyInfo* pCMuRummyInfo;// = lpObj->m_pCMuRummyInfo;
; 1024 : 
; 1025 : 	if (!pCMuRummyInfo)

  00087	83 7d 0c 00	 cmp	 DWORD PTR _pCMuRummyInfo$[ebp], 0
  0008b	75 29		 jne	 SHORT $LN10@CGReqCardM

; 1026 : 	{
; 1027 : 		LogAddTD("[MuRummy][Error] pCMuRummyInfo is NULL [%s][%s] [%s, %d]",

  0008d	68 04 04 00 00	 push	 1028			; 00000404H
  00092	68 00 00 00 00	 push	 OFFSET ??_C@_0M@DEILNLI@MuRummy?4cpp?$AA@
  00097	8d 46 5d	 lea	 eax, DWORD PTR [esi+93]
  0009a	50		 push	 eax
  0009b	8d 46 52	 lea	 eax, DWORD PTR [esi+82]
  0009e	50		 push	 eax
  0009f	68 00 00 00 00	 push	 OFFSET ??_C@_0DJ@JIKKCJIL@?$FLMuRummy?$FN?$FLError?$FN?5pCMuRummyInfo?5i@
  000a4	ff 15 00 00 00
	00		 call	 DWORD PTR ?LogAddTD@@3P6AXPADZZA ; LogAddTD
  000aa	83 c4 14	 add	 esp, 20			; 00000014H
  000ad	5b		 pop	 ebx
  000ae	5e		 pop	 esi
  000af	5f		 pop	 edi

; 1049 : }

  000b0	8b e5		 mov	 esp, ebp
  000b2	5d		 pop	 ebp
  000b3	c2 08 00	 ret	 8
$LN10@CGReqCardM:

; 1028 : 			lpObj->AccountID, lpObj->Name, __FILE__, __LINE__);
; 1029 : 		return;
; 1030 : 	}
; 1031 : 
; 1032 : 	CMuRummyCardInfo pCOutCardInfo;

  000b6	8d 4d e4	 lea	 ecx, DWORD PTR _pCOutCardInfo$[ebp]
  000b9	e8 00 00 00 00	 call	 ??0CMuRummyCardInfo@@QAE@XZ ; CMuRummyCardInfo::CMuRummyCardInfo

; 1033 : 	BYTE Ret = this->CardSlotMove(pCMuRummyInfo, sSlot, tSlot, &pCOutCardInfo, lpObj);

  000be	8b 4d fc	 mov	 ecx, DWORD PTR _this$1$[ebp]
  000c1	8d 45 e4	 lea	 eax, DWORD PTR _pCOutCardInfo$[ebp]
  000c4	56		 push	 esi
  000c5	50		 push	 eax
  000c6	ff 75 0c	 push	 DWORD PTR _tSlot$1$[ebp]
  000c9	53		 push	 ebx
  000ca	ff 75 0c	 push	 DWORD PTR _pCMuRummyInfo$[ebp]
  000cd	e8 00 00 00 00	 call	 ?CardSlotMove@CMuRummyMng@@QAEEPAVCMuRummyInfo@@HHPAVCMuRummyCardInfo@@PAUOBJECTSTRUCT@@@Z ; CMuRummyMng::CardSlotMove

; 1034 : 
; 1035 : 	if (Ret == (BYTE)-1)

  000d2	3c ff		 cmp	 al, 255			; 000000ffH
  000d4	74 31		 je	 SHORT $LN29@CGReqCardM

; 1036 : 	{
; 1037 : 		return;
; 1038 : 	}
; 1039 : 	else if (Ret == (BYTE)-2)

  000d6	3c fe		 cmp	 al, 254			; 000000feH
  000d8	b9 ff 00 00 00	 mov	 ecx, 255		; 000000ffH

; 1040 : 	{
; 1041 : 		sSlot = (BYTE)-1;
; 1042 : 	}
; 1043 : 
; 1044 : 	pMsg.sSlot = sSlot;
; 1045 :     pMsg.tSlot = pCOutCardInfo.GetSlotNum();

  000dd	8a 45 f0	 mov	 al, BYTE PTR _pCOutCardInfo$[ebp+12]
  000e0	88 45 f9	 mov	 BYTE PTR _pMsg$[ebp+5], al
  000e3	0f 44 d9	 cmove	 ebx, ecx

; 1046 :     pMsg.btColor = pCOutCardInfo.GetColor();

  000e6	8a 45 e4	 mov	 al, BYTE PTR _pCOutCardInfo$[ebp]
  000e9	88 45 fa	 mov	 BYTE PTR _pMsg$[ebp+6], al

; 1047 :     pMsg.btNumber = pCOutCardInfo.GetNumber();

  000ec	8a 45 e8	 mov	 al, BYTE PTR _pCOutCardInfo$[ebp+4]
  000ef	88 45 fb	 mov	 BYTE PTR _pMsg$[ebp+7], al

; 1048 :     DataSend(aIndex, (LPBYTE)&pMsg, pMsg.h.size);

  000f2	0f b6 45 f5	 movzx	 eax, BYTE PTR _pMsg$[ebp+1]
  000f6	50		 push	 eax
  000f7	8d 45 f4	 lea	 eax, DWORD PTR _pMsg$[ebp]
  000fa	88 5d f8	 mov	 BYTE PTR _pMsg$[ebp+4], bl
  000fd	50		 push	 eax
  000fe	57		 push	 edi
  000ff	e8 00 00 00 00	 call	 ?DataSend@@YAHHPAEK@Z	; DataSend
  00104	83 c4 0c	 add	 esp, 12			; 0000000cH
$LN29@CGReqCardM:
  00107	5b		 pop	 ebx
$LN28@CGReqCardM:
  00108	5e		 pop	 esi
$LN17@CGReqCardM:
  00109	5f		 pop	 edi

; 1049 : }

  0010a	8b e5		 mov	 esp, ebp
  0010c	5d		 pop	 ebp
  0010d	c2 08 00	 ret	 8
?CGReqCardMove@CMuRummyMng@@QAEXPAU_tagPMSG_REQ_CARD_MOVE@@H@Z ENDP ; CMuRummyMng::CGReqCardMove
_TEXT	ENDS
; Function compile flags: /Ogtp
; File c:\users\michel\desktop\source\gameserver\source\murummy.cpp
; File c:\users\michel\desktop\source\gameserver\source\murummyprotocol.h
; File c:\users\michel\desktop\source\gameserver\include\prodef.h
; File c:\users\michel\desktop\source\gameserver\source\murummy.cpp
;	COMDAT ?CGReqCardReveal@CMuRummyMng@@QAEXPAU_tagPMSG_REQ_REVEAL_CARD@@H@Z
_TEXT	SEGMENT
_iBeforeCardCnt$1$ = -44				; size = 4
_pMuRummyInfo$ = -44					; size = 4
_this$GSCopy$1$ = -40					; size = 4
_pMsg$ = -36						; size = 20
_stCardInfo$ = -16					; size = 9
__$ArrayPad$ = -4					; size = 4
_lpMsg$ = 8						; size = 4
_aIndex$ = 12						; size = 4
?CGReqCardReveal@CMuRummyMng@@QAEXPAU_tagPMSG_REQ_REVEAL_CARD@@H@Z PROC ; CMuRummyMng::CGReqCardReveal, COMDAT
; _this$ = ecx

; 896  : {

  00000	55		 push	 ebp
  00001	8b ec		 mov	 ebp, esp
  00003	83 ec 2c	 sub	 esp, 44			; 0000002cH
  00006	a1 00 00 00 00	 mov	 eax, DWORD PTR ___security_cookie
  0000b	33 c5		 xor	 eax, ebp
  0000d	89 45 fc	 mov	 DWORD PTR __$ArrayPad$[ebp], eax
  00010	57		 push	 edi
  00011	8b 7d 0c	 mov	 edi, DWORD PTR _aIndex$[ebp]
  00014	89 4d d8	 mov	 DWORD PTR _this$GSCopy$1$[ebp], ecx
; File c:\users\michel\desktop\source\gameserver\source\murummyprotocol.h

; 94   : 		this->btCardDeckCnt = 0;

  00017	c6 45 ef 00	 mov	 BYTE PTR _pMsg$[ebp+19], 0
; File c:\users\michel\desktop\source\gameserver\include\prodef.h

; 140  : 		lpBuf[0] = 0xC1;

  0001b	c7 45 dc c1 14
	4d 11		 mov	 DWORD PTR _pMsg$[ebp], 290264257 ; 114d14c1H
; File c:\users\michel\desktop\source\gameserver\source\murummy.cpp

; 900  : 	if (!OBJMAX_RANGE(aIndex))

  00022	85 ff		 test	 edi, edi
  00024	0f 88 d9 01 00
	00		 js	 $LN12@CGReqCardR
  0002a	33 c0		 xor	 eax, eax
  0002c	81 ff eb 2c 00
	00		 cmp	 edi, 11499		; 00002cebH
  00032	0f 9e c0	 setle	 al
  00035	85 c0		 test	 eax, eax
  00037	0f 84 c6 01 00
	00		 je	 $LN12@CGReqCardR

; 901  : 	{
; 902  : 		return;
; 903  : 	}
; 904  : 
; 905  : 	if (!gObjIsConnected(aIndex))

  0003d	57		 push	 edi
  0003e	e8 00 00 00 00	 call	 ?gObjIsConnected@@YAHH@Z ; gObjIsConnected
  00043	83 c4 04	 add	 esp, 4
  00046	85 c0		 test	 eax, eax
  00048	0f 84 b5 01 00
	00		 je	 $LN12@CGReqCardR

; 906  : 	{
; 907  : 		return;
; 908  : 	}
; 909  : 
; 910  : 	LPOBJ lpObj = &gObj[aIndex];

  0004e	56		 push	 esi
  0004f	69 f7 40 27 00
	00		 imul	 esi, edi, 10048
  00055	03 35 00 00 00
	00		 add	 esi, DWORD PTR ?gObj@@3PAUOBJECTSTRUCT@@A ; gObj

; 911  : 
; 912  : 	if (!lpObj)

  0005b	75 2a		 jne	 SHORT $LN4@CGReqCardR

; 913  :     {
; 914  : 		LogAddTD("[MuRummy][Error] lpObj is NULL [%s, %d]", __FILE__, __LINE__);

  0005d	68 92 03 00 00	 push	 914			; 00000392H
  00062	68 00 00 00 00	 push	 OFFSET ??_C@_0M@DEILNLI@MuRummy?4cpp?$AA@
  00067	68 00 00 00 00	 push	 OFFSET ??_C@_0CI@CLFNHPNA@?$FLMuRummy?$FN?$FLError?$FN?5lpObj?5is?5NULL?5?$FL@
  0006c	ff 15 00 00 00
	00		 call	 DWORD PTR ?LogAddTD@@3P6AXPADZZA ; LogAddTD
  00072	83 c4 0c	 add	 esp, 12			; 0000000cH
  00075	5e		 pop	 esi
  00076	5f		 pop	 edi

; 980  : 	}
; 981  : }

  00077	8b 4d fc	 mov	 ecx, DWORD PTR __$ArrayPad$[ebp]
  0007a	33 cd		 xor	 ecx, ebp
  0007c	e8 00 00 00 00	 call	 @__security_check_cookie@4
  00081	8b e5		 mov	 esp, ebp
  00083	5d		 pop	 ebp
  00084	c2 08 00	 ret	 8
$LN4@CGReqCardR:

; 915  : 		return;
; 916  :     }
; 917  : 	
; 918  : 	if (lpObj->CloseType != -1) 

  00087	80 7e 0d ff	 cmp	 BYTE PTR [esi+13], -1
  0008b	0f 85 71 01 00
	00		 jne	 $LN28@CGReqCardR

; 919  : 	{
; 920  : 		return;
; 921  : 	}
; 922  : 
; 923  : 	CMuRummyInfo* pMuRummyInfo;// = lpObj->m_pCMuRummyInfo;
; 924  : 
; 925  : 	if (!pMuRummyInfo)

  00091	53		 push	 ebx
  00092	8b 5d d4	 mov	 ebx, DWORD PTR _pMuRummyInfo$[ebp]
  00095	85 db		 test	 ebx, ebx
  00097	75 33		 jne	 SHORT $LN6@CGReqCardR

; 926  : 	{
; 927  : 		LogAddTD("[MuRummy][Error] pMuRummyInfo is NULL [%s][%s] [%s, %d]",

  00099	68 a0 03 00 00	 push	 928			; 000003a0H
  0009e	68 00 00 00 00	 push	 OFFSET ??_C@_0M@DEILNLI@MuRummy?4cpp?$AA@
  000a3	8d 46 5d	 lea	 eax, DWORD PTR [esi+93]
  000a6	50		 push	 eax
  000a7	8d 46 52	 lea	 eax, DWORD PTR [esi+82]
  000aa	50		 push	 eax
  000ab	68 00 00 00 00	 push	 OFFSET ??_C@_0DI@HLPPLHAH@?$FLMuRummy?$FN?$FLError?$FN?5pMuRummyInfo?5is@
  000b0	ff 15 00 00 00
	00		 call	 DWORD PTR ?LogAddTD@@3P6AXPADZZA ; LogAddTD
  000b6	83 c4 14	 add	 esp, 20			; 00000014H
  000b9	5b		 pop	 ebx
  000ba	5e		 pop	 esi
  000bb	5f		 pop	 edi

; 980  : 	}
; 981  : }

  000bc	8b 4d fc	 mov	 ecx, DWORD PTR __$ArrayPad$[ebp]
  000bf	33 cd		 xor	 ecx, ebp
  000c1	e8 00 00 00 00	 call	 @__security_check_cookie@4
  000c6	8b e5		 mov	 esp, ebp
  000c8	5d		 pop	 ebp
  000c9	c2 08 00	 ret	 8
$LN6@CGReqCardR:

; 928  : 			lpObj->AccountID, lpObj->Name, __FILE__, __LINE__);
; 929  : 		return;
; 930  : 	}
; 931  : 
; 932  : 	if (!pMuRummyInfo->GetCardInfo())

  000cc	8b cb		 mov	 ecx, ebx
  000ce	e8 00 00 00 00	 call	 ?GetCardInfo@CMuRummyInfo@@QAEPAVCMuRummyCardInfo@@XZ ; CMuRummyInfo::GetCardInfo
  000d3	85 c0		 test	 eax, eax
  000d5	75 33		 jne	 SHORT $LN7@CGReqCardR

; 933  : 	{
; 934  : 		LogAddTD("[MuRummy][Error] pCCardInfo is NULL [%s][%s] [%s, %d]",

  000d7	68 a7 03 00 00	 push	 935			; 000003a7H
  000dc	68 00 00 00 00	 push	 OFFSET ??_C@_0M@DEILNLI@MuRummy?4cpp?$AA@
  000e1	8d 46 5d	 lea	 eax, DWORD PTR [esi+93]
  000e4	50		 push	 eax
  000e5	8d 46 52	 lea	 eax, DWORD PTR [esi+82]
  000e8	50		 push	 eax
  000e9	68 00 00 00 00	 push	 OFFSET ??_C@_0DG@KLOFMILL@?$FLMuRummy?$FN?$FLError?$FN?5pCCardInfo?5is?5N@
  000ee	ff 15 00 00 00
	00		 call	 DWORD PTR ?LogAddTD@@3P6AXPADZZA ; LogAddTD
  000f4	83 c4 14	 add	 esp, 20			; 00000014H
  000f7	5b		 pop	 ebx
  000f8	5e		 pop	 esi
  000f9	5f		 pop	 edi

; 980  : 	}
; 981  : }

  000fa	8b 4d fc	 mov	 ecx, DWORD PTR __$ArrayPad$[ebp]
  000fd	33 cd		 xor	 ecx, ebp
  000ff	e8 00 00 00 00	 call	 @__security_check_cookie@4
  00104	8b e5		 mov	 esp, ebp
  00106	5d		 pop	 ebp
  00107	c2 08 00	 ret	 8
$LN7@CGReqCardR:

; 935  : 			lpObj->AccountID, lpObj->Name, __FILE__, __LINE__);
; 936  : 		return;
; 937  : 	}
; 938  : 
; 939  : 	if (!pMuRummyInfo->GetCardDeckCnt())

  0010a	8b 43 08	 mov	 eax, DWORD PTR [ebx+8]
  0010d	89 45 d4	 mov	 DWORD PTR _iBeforeCardCnt$1$[ebp], eax
  00110	85 c0		 test	 eax, eax
  00112	74 4b		 je	 SHORT $LN30@CGReqCardR

; 940  : 	{
; 941  : 		this->GCSendMsg(aIndex, 2, 0);
; 942  : 		return;
; 943  : 	}
; 944  : 
; 945  : 	LPBYTE pSlotIndexInfo = pMuRummyInfo->GetSlotIndexInfo();

  00114	8b cb		 mov	 ecx, ebx
  00116	e8 00 00 00 00	 call	 ?GetSlotIndexInfo@CMuRummyInfo@@QAEPAEXZ ; CMuRummyInfo::GetSlotIndexInfo

; 946  : 
; 947  : 	if (!pSlotIndexInfo)

  0011b	85 c0		 test	 eax, eax
  0011d	75 33		 jne	 SHORT $LN9@CGReqCardR

; 948  :     {
; 949  : 		 LogAddTD("[MuRummy][Error] pSlotIndexInfo is NULL [%s][%s] [%s, %d]",

  0011f	68 b6 03 00 00	 push	 950			; 000003b6H
  00124	68 00 00 00 00	 push	 OFFSET ??_C@_0M@DEILNLI@MuRummy?4cpp?$AA@
  00129	8d 46 5d	 lea	 eax, DWORD PTR [esi+93]
  0012c	50		 push	 eax
  0012d	8d 46 52	 lea	 eax, DWORD PTR [esi+82]
  00130	50		 push	 eax
  00131	68 00 00 00 00	 push	 OFFSET ??_C@_0DK@IJOPKODH@?$FLMuRummy?$FN?$FLError?$FN?5pSlotIndexInfo?5@
  00136	ff 15 00 00 00
	00		 call	 DWORD PTR ?LogAddTD@@3P6AXPADZZA ; LogAddTD
  0013c	83 c4 14	 add	 esp, 20			; 00000014H
  0013f	5b		 pop	 ebx
  00140	5e		 pop	 esi
  00141	5f		 pop	 edi

; 980  : 	}
; 981  : }

  00142	8b 4d fc	 mov	 ecx, DWORD PTR __$ArrayPad$[ebp]
  00145	33 cd		 xor	 ecx, ebp
  00147	e8 00 00 00 00	 call	 @__security_check_cookie@4
  0014c	8b e5		 mov	 esp, ebp
  0014e	5d		 pop	 ebp
  0014f	c2 08 00	 ret	 8
$LN9@CGReqCardR:

; 950  : 			 lpObj->AccountID, lpObj->Name, __FILE__, __LINE__);
; 951  : 		 return;
; 952  : 	}
; 953  : 
; 954  : 	BYTE btSlotNum = -1;
; 955  :     btSlotNum = this->GetTempCardShowSlot(pSlotIndexInfo);

  00152	8b 4d d8	 mov	 ecx, DWORD PTR _this$GSCopy$1$[ebp]
  00155	50		 push	 eax
  00156	e8 00 00 00 00	 call	 ?GetTempCardShowSlot@CMuRummyMng@@QAEEPAE@Z ; CMuRummyMng::GetTempCardShowSlot

; 956  :     
; 957  : 	if (btSlotNum == (BYTE)-1)

  0015b	3c ff		 cmp	 al, 255			; 000000ffH
  0015d	75 20		 jne	 SHORT $LN10@CGReqCardR
$LN30@CGReqCardR:

; 958  : 	{
; 959  : 		this->GCSendMsg(aIndex, 2, 0);

  0015f	8b 4d d8	 mov	 ecx, DWORD PTR _this$GSCopy$1$[ebp]
  00162	6a 00		 push	 0
  00164	6a 02		 push	 2
  00166	57		 push	 edi
  00167	e8 00 00 00 00	 call	 ?GCSendMsg@CMuRummyMng@@QAEXHEH@Z ; CMuRummyMng::GCSendMsg
  0016c	5b		 pop	 ebx
  0016d	5e		 pop	 esi
  0016e	5f		 pop	 edi

; 980  : 	}
; 981  : }

  0016f	8b 4d fc	 mov	 ecx, DWORD PTR __$ArrayPad$[ebp]
  00172	33 cd		 xor	 ecx, ebp
  00174	e8 00 00 00 00	 call	 @__security_check_cookie@4
  00179	8b e5		 mov	 esp, ebp
  0017b	5d		 pop	 ebp
  0017c	c2 08 00	 ret	 8
$LN10@CGReqCardR:

; 960  : 		return;
; 961  : 	}
; 962  : 
; 963  : 	if (btSlotNum == (BYTE)-2)
; 964  : 	{
; 965  : 		this->GCSendMsg(aIndex, 3, 0);

  0017f	8b 4d d8	 mov	 ecx, DWORD PTR _this$GSCopy$1$[ebp]
  00182	3c fe		 cmp	 al, 254			; 000000feH
  00184	75 1d		 jne	 SHORT $LN11@CGReqCardR
  00186	6a 00		 push	 0
  00188	6a 03		 push	 3
  0018a	57		 push	 edi
  0018b	e8 00 00 00 00	 call	 ?GCSendMsg@CMuRummyMng@@QAEXHEH@Z ; CMuRummyMng::GCSendMsg
  00190	5b		 pop	 ebx
  00191	5e		 pop	 esi
  00192	5f		 pop	 edi

; 980  : 	}
; 981  : }

  00193	8b 4d fc	 mov	 ecx, DWORD PTR __$ArrayPad$[ebp]
  00196	33 cd		 xor	 ecx, ebp
  00198	e8 00 00 00 00	 call	 @__security_check_cookie@4
  0019d	8b e5		 mov	 esp, ebp
  0019f	5d		 pop	 ebp
  001a0	c2 08 00	 ret	 8
$LN11@CGReqCardR:

; 966  : 		return;
; 967  : 	}
; 968  : 
; 969  : 	_tagMuRummyCardInfo stCardInfo[3];
; 970  : 	int iBeforeCardCnt = pMuRummyInfo->GetCardDeckCnt();
; 971  : 
; 972  : 	if (this->FillEmptySlotCard(pMuRummyInfo, stCardInfo, lpObj))

  001a3	56		 push	 esi
  001a4	8d 45 f0	 lea	 eax, DWORD PTR _stCardInfo$[ebp]
  001a7	50		 push	 eax
  001a8	53		 push	 ebx
  001a9	e8 00 00 00 00	 call	 ?FillEmptySlotCard@CMuRummyMng@@QAE_NPAVCMuRummyInfo@@PAU_tagMuRummyCardInfo@@PAUOBJECTSTRUCT@@@Z ; CMuRummyMng::FillEmptySlotCard
  001ae	84 c0		 test	 al, al
  001b0	74 4f		 je	 SHORT $LN29@CGReqCardR

; 973  : 	{
; 974  : 		 LogAddTD("[%s][%s][Mu Rummy] Event Card Cnt(%d) (%d)",

  001b2	ff 73 08	 push	 DWORD PTR [ebx+8]
  001b5	8d 46 5d	 lea	 eax, DWORD PTR [esi+93]
  001b8	ff 75 d4	 push	 DWORD PTR _iBeforeCardCnt$1$[ebp]
  001bb	50		 push	 eax
  001bc	8d 46 52	 lea	 eax, DWORD PTR [esi+82]
  001bf	50		 push	 eax
  001c0	68 00 00 00 00	 push	 OFFSET ??_C@_0CL@FAFIGCF@?$FL?$CFs?$FN?$FL?$CFs?$FN?$FLMu?5Rummy?$FN?5Event?5Card?5Cn@
  001c5	ff 15 00 00 00
	00		 call	 DWORD PTR ?LogAddTD@@3P6AXPADZZA ; LogAddTD

; 975  : 			 lpObj->AccountID, lpObj->Name, iBeforeCardCnt, pMuRummyInfo->GetCardDeckCnt());
; 976  : 		 this->Slot5Log(lpObj, 0);

  001cb	8b 4d d8	 mov	 ecx, DWORD PTR _this$GSCopy$1$[ebp]
  001ce	83 c4 14	 add	 esp, 20			; 00000014H
  001d1	6a 00		 push	 0
  001d3	56		 push	 esi
  001d4	e8 00 00 00 00	 call	 ?Slot5Log@CMuRummyMng@@QAEXPAUOBJECTSTRUCT@@H@Z ; CMuRummyMng::Slot5Log

; 977  : 		 memcpy(pMsg.stMuRummyCardInfo, stCardInfo, sizeof(stCardInfo));

  001d9	8a 45 f8	 mov	 al, BYTE PTR _stCardInfo$[ebp+8]
  001dc	f3 0f 7e 45 f0	 movq	 xmm0, QWORD PTR _stCardInfo$[ebp]
  001e1	88 45 e8	 mov	 BYTE PTR _pMsg$[ebp+12], al

; 978  : 		 pMsg.btCardDeckCnt = pMuRummyInfo->GetCardDeckCnt();

  001e4	8a 43 08	 mov	 al, BYTE PTR [ebx+8]
  001e7	88 45 ef	 mov	 BYTE PTR _pMsg$[ebp+19], al

; 979  :          DataSend(aIndex, (LPBYTE)&pMsg, pMsg.h.size);

  001ea	0f b6 45 dd	 movzx	 eax, BYTE PTR _pMsg$[ebp+1]
  001ee	50		 push	 eax
  001ef	8d 45 dc	 lea	 eax, DWORD PTR _pMsg$[ebp]
  001f2	66 0f d6 45 e0	 movq	 QWORD PTR _pMsg$[ebp+4], xmm0
  001f7	50		 push	 eax
  001f8	57		 push	 edi
  001f9	e8 00 00 00 00	 call	 ?DataSend@@YAHHPAEK@Z	; DataSend
  001fe	83 c4 0c	 add	 esp, 12			; 0000000cH
$LN29@CGReqCardR:
  00201	5b		 pop	 ebx
$LN28@CGReqCardR:
  00202	5e		 pop	 esi
$LN12@CGReqCardR:

; 980  : 	}
; 981  : }

  00203	8b 4d fc	 mov	 ecx, DWORD PTR __$ArrayPad$[ebp]
  00206	33 cd		 xor	 ecx, ebp
  00208	5f		 pop	 edi
  00209	e8 00 00 00 00	 call	 @__security_check_cookie@4
  0020e	8b e5		 mov	 esp, ebp
  00210	5d		 pop	 ebp
  00211	c2 08 00	 ret	 8
?CGReqCardReveal@CMuRummyMng@@QAEXPAU_tagPMSG_REQ_REVEAL_CARD@@H@Z ENDP ; CMuRummyMng::CGReqCardReveal
_TEXT	ENDS
; Function compile flags: /Ogtp
; File c:\users\michel\desktop\source\gameserver\source\murummy.cpp
; File c:\users\michel\desktop\source\gameserver\include\prodef.h
; File c:\users\michel\desktop\source\gameserver\source\murummyprotocol.h
; File c:\users\michel\desktop\source\gameserver\include\prodef.h
; File c:\users\michel\desktop\source\gameserver\source\murummy.cpp
; File c:\users\michel\desktop\source\gameserver\source\murummy.h
; File c:\users\michel\desktop\source\gameserver\source\murummy.cpp
;	COMDAT ?CGReqMuRummyStart@CMuRummyMng@@QAEXPAU_tagPMSG_REQ_MURUMMY_INFO@@H@Z
_TEXT	SEGMENT
_aIndex$GSCopy$1$ = -52					; size = 4
_this$GSCopy$1$ = -48					; size = 4
_pMuRummyInfo$ = -48					; size = 4
_bNewGame$1$ = -41					; size = 1
_pMsg$ = -40						; size = 22
_stCardInfo$ = -16					; size = 9
__$ArrayPad$ = -4					; size = 4
_lpMsg$ = 8						; size = 4
_aIndex$ = 12						; size = 4
?CGReqMuRummyStart@CMuRummyMng@@QAEXPAU_tagPMSG_REQ_MURUMMY_INFO@@H@Z PROC ; CMuRummyMng::CGReqMuRummyStart, COMDAT
; _this$ = ecx

; 796  : {

  00000	55		 push	 ebp
  00001	8b ec		 mov	 ebp, esp
  00003	83 ec 34	 sub	 esp, 52			; 00000034H
  00006	a1 00 00 00 00	 mov	 eax, DWORD PTR ___security_cookie
  0000b	33 c5		 xor	 eax, ebp
  0000d	89 45 fc	 mov	 DWORD PTR __$ArrayPad$[ebp], eax
  00010	57		 push	 edi
  00011	8b 7d 0c	 mov	 edi, DWORD PTR _aIndex$[ebp]
  00014	89 4d d0	 mov	 DWORD PTR _this$GSCopy$1$[ebp], ecx
  00017	89 7d cc	 mov	 DWORD PTR _aIndex$GSCopy$1$[ebp], edi
; File c:\users\michel\desktop\source\gameserver\include\prodef.h

; 142  : 		lpBuf[2] = head;

  0001a	c7 45 da 4d 10
	00 00		 mov	 DWORD PTR _pMsg$[ebp+2], 4173 ; 0000104dH
; File c:\users\michel\desktop\source\gameserver\source\murummyprotocol.h

; 75   : 		this->btCardDeckCnt = 0;

  00021	c6 45 de 00	 mov	 BYTE PTR _pMsg$[ebp+6], 0
; File c:\users\michel\desktop\source\gameserver\include\prodef.h

; 140  : 		lpBuf[0] = 0xC1;

  00025	66 c7 45 d8 c1
	16		 mov	 WORD PTR _pMsg$[ebp], 5825 ; 000016c1H
; File c:\users\michel\desktop\source\gameserver\source\murummy.cpp

; 800  : 	if (!OBJMAX_RANGE(aIndex))

  0002b	85 ff		 test	 edi, edi
  0002d	0f 88 c4 01 00
	00		 js	 $LN15@CGReqMuRum
  00033	33 c0		 xor	 eax, eax
  00035	81 ff eb 2c 00
	00		 cmp	 edi, 11499		; 00002cebH
  0003b	0f 9e c0	 setle	 al
  0003e	85 c0		 test	 eax, eax
  00040	0f 84 b1 01 00
	00		 je	 $LN15@CGReqMuRum

; 801  : 	{
; 802  : 		return;
; 803  : 	}
; 804  : 
; 805  : 	if (!gObjIsConnected(aIndex))

  00046	57		 push	 edi
  00047	e8 00 00 00 00	 call	 ?gObjIsConnected@@YAHH@Z ; gObjIsConnected
  0004c	83 c4 04	 add	 esp, 4
  0004f	85 c0		 test	 eax, eax
  00051	0f 84 a0 01 00
	00		 je	 $LN15@CGReqMuRum

; 806  : 	{
; 807  : 		return;
; 808  : 	}
; 809  : 
; 810  : 	LPOBJ lpObj = &gObj[aIndex];

  00057	53		 push	 ebx
  00058	69 df 40 27 00
	00		 imul	 ebx, edi, 10048
  0005e	03 1d 00 00 00
	00		 add	 ebx, DWORD PTR ?gObj@@3PAUOBJECTSTRUCT@@A ; gObj

; 811  : 
; 812  : 	if (!lpObj)

  00064	75 2a		 jne	 SHORT $LN7@CGReqMuRum

; 813  :     {
; 814  : 		LogAddTD("[MuRummy][Error] lpObj is NULL [%s, %d]", __FILE__, __LINE__);

  00066	68 2e 03 00 00	 push	 814			; 0000032eH
  0006b	68 00 00 00 00	 push	 OFFSET ??_C@_0M@DEILNLI@MuRummy?4cpp?$AA@
  00070	68 00 00 00 00	 push	 OFFSET ??_C@_0CI@CLFNHPNA@?$FLMuRummy?$FN?$FLError?$FN?5lpObj?5is?5NULL?5?$FL@
  00075	ff 15 00 00 00
	00		 call	 DWORD PTR ?LogAddTD@@3P6AXPADZZA ; LogAddTD
  0007b	83 c4 0c	 add	 esp, 12			; 0000000cH
  0007e	5b		 pop	 ebx
  0007f	5f		 pop	 edi

; 892  : 	}
; 893  : }

  00080	8b 4d fc	 mov	 ecx, DWORD PTR __$ArrayPad$[ebp]
  00083	33 cd		 xor	 ecx, ebp
  00085	e8 00 00 00 00	 call	 @__security_check_cookie@4
  0008a	8b e5		 mov	 esp, ebp
  0008c	5d		 pop	 ebp
  0008d	c2 08 00	 ret	 8
$LN7@CGReqMuRum:

; 815  : 		return;
; 816  :     }
; 817  : 	
; 818  : 	if (lpObj->CloseType != -1) 

  00090	80 7b 0d ff	 cmp	 BYTE PTR [ebx+13], -1
  00094	0f 85 5c 01 00
	00		 jne	 $LN39@CGReqMuRum

; 819  : 	{
; 820  : 		return;
; 821  : 	}
; 822  : 
; 823  : 	CMuRummyInfo* pMuRummyInfo;// = lpObj->m_pCMuRummyInfo;
; 824  : 
; 825  : 	if (!pMuRummyInfo->IsMuRummyInfoLoad())

  0009a	56		 push	 esi
  0009b	8b 75 d0	 mov	 esi, DWORD PTR _pMuRummyInfo$[ebp]
  0009e	80 7e 0d 00	 cmp	 BYTE PTR [esi+13], 0
  000a2	75 29		 jne	 SHORT $LN9@CGReqMuRum

; 826  : 	{
; 827  : 		LogAddTD("[MuRummy][Error] IsMuRummyInfoLoad fail [%s][%s]", lpObj->AccountID, lpObj->Name);

  000a4	8d 43 5d	 lea	 eax, DWORD PTR [ebx+93]
  000a7	50		 push	 eax
  000a8	8d 43 52	 lea	 eax, DWORD PTR [ebx+82]
  000ab	50		 push	 eax
  000ac	68 00 00 00 00	 push	 OFFSET ??_C@_0DB@OBNLPGAF@?$FLMuRummy?$FN?$FLError?$FN?5IsMuRummyInfoLo@
  000b1	ff 15 00 00 00
	00		 call	 DWORD PTR ?LogAddTD@@3P6AXPADZZA ; LogAddTD
  000b7	83 c4 0c	 add	 esp, 12			; 0000000cH
  000ba	5e		 pop	 esi
  000bb	5b		 pop	 ebx
  000bc	5f		 pop	 edi

; 892  : 	}
; 893  : }

  000bd	8b 4d fc	 mov	 ecx, DWORD PTR __$ArrayPad$[ebp]
  000c0	33 cd		 xor	 ecx, ebp
  000c2	e8 00 00 00 00	 call	 @__security_check_cookie@4
  000c7	8b e5		 mov	 esp, ebp
  000c9	5d		 pop	 ebp
  000ca	c2 08 00	 ret	 8
$LN9@CGReqMuRum:

; 828  :         return;
; 829  : 	}
; 830  : 
; 831  : 	_tagMuRummyCardInfo stCardInfo[3];
; 832  : 	bool bNewGame = false;
; 833  : 
; 834  : 	if (pMuRummyInfo->IsGetPlayCard())

  000cd	80 7e 0c 00	 cmp	 BYTE PTR [esi+12], 0
  000d1	c6 45 d7 00	 mov	 BYTE PTR _bNewGame$1$[ebp], 0
  000d5	0f 84 98 00 00
	00		 je	 $LN10@CGReqMuRum

; 835  : 	{
; 836  : 		if (this->SetPlayCardInfo(pMuRummyInfo, stCardInfo))

  000db	8b 4d d0	 mov	 ecx, DWORD PTR _this$GSCopy$1$[ebp]
  000de	8d 45 f0	 lea	 eax, DWORD PTR _stCardInfo$[ebp]
  000e1	50		 push	 eax
  000e2	56		 push	 esi
  000e3	e8 00 00 00 00	 call	 ?SetPlayCardInfo@CMuRummyMng@@QAE_NPAVCMuRummyInfo@@PAU_tagMuRummyCardInfo@@@Z ; CMuRummyMng::SetPlayCardInfo
  000e8	84 c0		 test	 al, al
  000ea	74 6c		 je	 SHORT $LN12@CGReqMuRum

; 837  : 		{
; 838  : 			LogAddTD("[%s][%s][Mu Rummy] Event Open", lpObj->AccountID, lpObj->Name);

  000ec	8d 73 5d	 lea	 esi, DWORD PTR [ebx+93]
  000ef	56		 push	 esi
  000f0	8d 7b 52	 lea	 edi, DWORD PTR [ebx+82]
  000f3	57		 push	 edi
  000f4	68 00 00 00 00	 push	 OFFSET ??_C@_0BO@EJENEIOG@?$FL?$CFs?$FN?$FL?$CFs?$FN?$FLMu?5Rummy?$FN?5Event?5Open?$AA@
  000f9	ff 15 00 00 00
	00		 call	 DWORD PTR ?LogAddTD@@3P6AXPADZZA ; LogAddTD

; 839  : 			LogAddTD("[%s][%s][Mu Rummy] Event Card Cnt(%d)", lpObj->AccountID, lpObj->Name, pMuRummyInfo->GetCardDeckCnt());

  000ff	8b 45 d0	 mov	 eax, DWORD PTR _pMuRummyInfo$[ebp]
  00102	ff 70 08	 push	 DWORD PTR [eax+8]
  00105	56		 push	 esi
  00106	57		 push	 edi
  00107	68 00 00 00 00	 push	 OFFSET ??_C@_0CG@EKIKJFIH@?$FL?$CFs?$FN?$FL?$CFs?$FN?$FLMu?5Rummy?$FN?5Event?5Card?5Cn@
  0010c	ff 15 00 00 00
	00		 call	 DWORD PTR ?LogAddTD@@3P6AXPADZZA ; LogAddTD

; 840  : 			LogAddTD("[%s][%s][Mu Rummy] Event Point(%d)", lpObj->AccountID, lpObj->Name, pMuRummyInfo->GetScore());

  00112	8b 45 d0	 mov	 eax, DWORD PTR _pMuRummyInfo$[ebp]
  00115	ff 70 04	 push	 DWORD PTR [eax+4]
  00118	56		 push	 esi
  00119	57		 push	 edi
  0011a	68 00 00 00 00	 push	 OFFSET ??_C@_0CD@KPMIGCPB@?$FL?$CFs?$FN?$FL?$CFs?$FN?$FLMu?5Rummy?$FN?5Event?5Point?$CI?$CF@
  0011f	ff 15 00 00 00
	00		 call	 DWORD PTR ?LogAddTD@@3P6AXPADZZA ; LogAddTD

; 841  : 			this->Slot5Log(lpObj, 1);

  00125	8b 4d d0	 mov	 ecx, DWORD PTR _this$GSCopy$1$[ebp]
  00128	83 c4 2c	 add	 esp, 44			; 0000002cH
  0012b	6a 01		 push	 1
  0012d	53		 push	 ebx
  0012e	e8 00 00 00 00	 call	 ?Slot5Log@CMuRummyMng@@QAEXPAUOBJECTSTRUCT@@H@Z ; CMuRummyMng::Slot5Log

; 842  : 			this->Slot3Log(lpObj, 1);

  00133	6a 01		 push	 1
  00135	53		 push	 ebx
  00136	8b 5d d0	 mov	 ebx, DWORD PTR _this$GSCopy$1$[ebp]
  00139	8b cb		 mov	 ecx, ebx
  0013b	e8 00 00 00 00	 call	 ?Slot3Log@CMuRummyMng@@QAEXPAUOBJECTSTRUCT@@H@Z ; CMuRummyMng::Slot3Log

; 843  : 			memcpy(pMsg.stMuRummyCardInfo, stCardInfo, sizeof(stCardInfo));

  00140	f3 0f 7e 45 f0	 movq	 xmm0, QWORD PTR _stCardInfo$[ebp]
  00145	8a 45 f8	 mov	 al, BYTE PTR _stCardInfo$[ebp+8]

; 844  : 		}
; 845  : 		else

  00148	8b 75 d0	 mov	 esi, DWORD PTR _pMuRummyInfo$[ebp]
  0014b	8b 7d cc	 mov	 edi, DWORD PTR _aIndex$GSCopy$1$[ebp]
  0014e	66 0f d6 45 df	 movq	 QWORD PTR _pMsg$[ebp+7], xmm0
  00153	88 45 e7	 mov	 BYTE PTR _pMsg$[ebp+15], al
  00156	eb 64		 jmp	 SHORT $LN11@CGReqMuRum
$LN12@CGReqMuRum:

; 846  : 		{
; 847  : 			LogAddTD("[MuRummy][Error] SetPlayCardInfo fail [%s][%s]", lpObj->AccountID, lpObj->Name);

  00158	8d 43 5d	 lea	 eax, DWORD PTR [ebx+93]
  0015b	50		 push	 eax
  0015c	8d 43 52	 lea	 eax, DWORD PTR [ebx+82]
  0015f	50		 push	 eax
  00160	68 00 00 00 00	 push	 OFFSET ??_C@_0CP@IKDBJHNO@?$FLMuRummy?$FN?$FLError?$FN?5SetPlayCardInfo@
  00165	ff 15 00 00 00
	00		 call	 DWORD PTR ?LogAddTD@@3P6AXPADZZA ; LogAddTD

; 848  : 		}
; 849  : 	}
; 850  : 	else

  0016b	8b 5d d0	 mov	 ebx, DWORD PTR _this$GSCopy$1$[ebp]
  0016e	83 c4 0c	 add	 esp, 12			; 0000000cH
  00171	eb 49		 jmp	 SHORT $LN11@CGReqMuRum
$LN10@CGReqMuRum:

; 851  : 	{
; 852  : 		bool bItem = 0;
; 853  : 
; 854  :         for (int x = 0; x < 32; x++)
; 855  :         {
; 856  : 			//if ( lpObj->pEventInventory[x].IsItem() == 1 
; 857  : 			//	&& lpObj->pEventInventory[x].m_Type == 7384 )
; 858  : 			{
; 859  : 				LogAddTD("[%s][%s][Mu Rummy] Event Start", lpObj->AccountID, lpObj->Name);

  00173	8d 43 5d	 lea	 eax, DWORD PTR [ebx+93]
  00176	50		 push	 eax
  00177	8d 43 52	 lea	 eax, DWORD PTR [ebx+82]
  0017a	50		 push	 eax
  0017b	68 00 00 00 00	 push	 OFFSET ??_C@_0BP@BJLJBPJE@?$FL?$CFs?$FN?$FL?$CFs?$FN?$FLMu?5Rummy?$FN?5Event?5Start?$AA@
  00180	ff 15 00 00 00
	00		 call	 DWORD PTR ?LogAddTD@@3P6AXPADZZA ; LogAddTD
  00186	83 c4 0c	 add	 esp, 12			; 0000000cH

; 860  : //				LogAddTD("[%s][%s][Mu Rummy] Event Card register success (%u)", lpObj->AccountID, lpObj->Name, lpObj->pEventInventory[x].GetNumber());
; 861  : 				//LogAddEvent("MuRummyEvent:MiniGameStart", lpObj);
; 862  : 				//gObjEventInventoryDeleteItem(aIndex, x);
; 863  : 				//GCEventInventoryItemDeleteSend(aIndex, x, 1);
; 864  : 				bItem = true;
; 865  : 				break;
; 866  : 			}
; 867  :         }
; 868  : 
; 869  :         if (!bItem)
; 870  :         {
; 871  : 			LogAddTD("[%s][%s][Mu Rummy] Event Start Fali (0)", lpObj->AccountID, lpObj->Name);
; 872  : 			this->GCSendMsg(aIndex, 0, 0);
; 873  : 			return;
; 874  :         }
; 875  : 
; 876  :         pMuRummyInfo->Clear();

  00189	8b ce		 mov	 ecx, esi
  0018b	e8 00 00 00 00	 call	 ?Clear@CMuRummyInfo@@QAEXXZ ; CMuRummyInfo::Clear

; 878  :         this->SetCardDeck(pMuRummyInfo);

  00190	8b 4d d0	 mov	 ecx, DWORD PTR _this$GSCopy$1$[ebp]
  00193	56		 push	 esi
; File c:\users\michel\desktop\source\gameserver\source\murummy.h

; 44   :     void SetGetPlayCard(bool bPlayCard) { this->m_bPlayCard = bPlayCard; };

  00194	c6 46 0c 01	 mov	 BYTE PTR [esi+12], 1
; File c:\users\michel\desktop\source\gameserver\source\murummy.cpp

; 878  :         this->SetCardDeck(pMuRummyInfo);

  00198	e8 00 00 00 00	 call	 ?SetCardDeck@CMuRummyMng@@QAEXPAVCMuRummyInfo@@@Z ; CMuRummyMng::SetCardDeck

; 879  :         this->CardShuffle(pMuRummyInfo->GetCardInfo());

  0019d	8b ce		 mov	 ecx, esi
  0019f	e8 00 00 00 00	 call	 ?GetCardInfo@CMuRummyInfo@@QAEPAVCMuRummyCardInfo@@XZ ; CMuRummyInfo::GetCardInfo
  001a4	8b 4d d0	 mov	 ecx, DWORD PTR _this$GSCopy$1$[ebp]
  001a7	50		 push	 eax
  001a8	e8 00 00 00 00	 call	 ?CardShuffle@CMuRummyMng@@QAEXPAVCMuRummyCardInfo@@@Z ; CMuRummyMng::CardShuffle

; 880  :         this->GDReqCardInfoInsert(lpObj);

  001ad	53		 push	 ebx
  001ae	8b 5d d0	 mov	 ebx, DWORD PTR _this$GSCopy$1$[ebp]
  001b1	8b cb		 mov	 ecx, ebx
  001b3	e8 00 00 00 00	 call	 ?GDReqCardInfoInsert@CMuRummyMng@@QAEXPAUOBJECTSTRUCT@@@Z ; CMuRummyMng::GDReqCardInfoInsert

; 881  :         bNewGame = true;

  001b8	c6 45 d7 01	 mov	 BYTE PTR _bNewGame$1$[ebp], 1
$LN11@CGReqMuRum:

; 882  : 	}
; 883  : 
; 884  : 	pMsg.btCardDeckCnt = pMuRummyInfo->GetCardDeckCnt();

  001bc	8a 46 08	 mov	 al, BYTE PTR [esi+8]
  001bf	88 45 de	 mov	 BYTE PTR _pMsg$[ebp+6], al

; 885  :     pMsg.btTotScoreH = SET_NUMBERH(pMuRummyInfo->GetScore());

  001c2	8b 46 04	 mov	 eax, DWORD PTR [esi+4]
  001c5	c1 e8 08	 shr	 eax, 8
  001c8	88 45 dc	 mov	 BYTE PTR _pMsg$[ebp+4], al

; 886  :     pMsg.btTotScoreL = SET_NUMBERL(pMuRummyInfo->GetScore());

  001cb	8a 46 04	 mov	 al, BYTE PTR [esi+4]
  001ce	88 45 dd	 mov	 BYTE PTR _pMsg$[ebp+5], al

; 887  :     DataSend(aIndex, (LPBYTE)&pMsg, pMsg.h.size);

  001d1	0f b6 45 d9	 movzx	 eax, BYTE PTR _pMsg$[ebp+1]
  001d5	50		 push	 eax
  001d6	8d 45 d8	 lea	 eax, DWORD PTR _pMsg$[ebp]
  001d9	50		 push	 eax
  001da	57		 push	 edi
  001db	e8 00 00 00 00	 call	 ?DataSend@@YAHHPAEK@Z	; DataSend
  001e0	83 c4 0c	 add	 esp, 12			; 0000000cH

; 888  : 
; 889  :     if (bNewGame)

  001e3	80 7d d7 00	 cmp	 BYTE PTR _bNewGame$1$[ebp], 0
  001e7	74 0c		 je	 SHORT $LN40@CGReqMuRum

; 890  : 	{
; 891  : 		this->GCSendMsg( aIndex, 1, 0);

  001e9	6a 00		 push	 0
  001eb	6a 01		 push	 1
  001ed	57		 push	 edi
  001ee	8b cb		 mov	 ecx, ebx
  001f0	e8 00 00 00 00	 call	 ?GCSendMsg@CMuRummyMng@@QAEXHEH@Z ; CMuRummyMng::GCSendMsg
$LN40@CGReqMuRum:
  001f5	5e		 pop	 esi
$LN39@CGReqMuRum:
  001f6	5b		 pop	 ebx
$LN15@CGReqMuRum:

; 892  : 	}
; 893  : }

  001f7	8b 4d fc	 mov	 ecx, DWORD PTR __$ArrayPad$[ebp]
  001fa	33 cd		 xor	 ecx, ebp
  001fc	5f		 pop	 edi
  001fd	e8 00 00 00 00	 call	 @__security_check_cookie@4
  00202	8b e5		 mov	 esp, ebp
  00204	5d		 pop	 ebp
  00205	c2 08 00	 ret	 8
?CGReqMuRummyStart@CMuRummyMng@@QAEXPAU_tagPMSG_REQ_MURUMMY_INFO@@H@Z ENDP ; CMuRummyMng::CGReqMuRummyStart
_TEXT	ENDS
; Function compile flags: /Ogtp
; File c:\users\michel\desktop\source\gameserver\source\murummy.cpp
; File c:\users\michel\desktop\source\gameserver\include\prodef.h
; File c:\users\michel\desktop\source\gameserver\source\murummy.cpp
;	COMDAT ?CGReqMuRummyEventOpen@CMuRummyMng@@QAEXPAU_tagPMSG_REQ_MURUMMY_EVENT_OPEN@@H@Z
_TEXT	SEGMENT
_this$GSCopy$1$ = -20					; size = 4
_pMuRummyInfo$ = -20					; size = 4
_pMsg$ = -16						; size = 9
__$ArrayPad$ = -4					; size = 4
_lpMsg$ = 8						; size = 4
_aIndex$ = 12						; size = 4
?CGReqMuRummyEventOpen@CMuRummyMng@@QAEXPAU_tagPMSG_REQ_MURUMMY_EVENT_OPEN@@H@Z PROC ; CMuRummyMng::CGReqMuRummyEventOpen, COMDAT
; _this$ = ecx

; 716  : {	

  00000	55		 push	 ebp
  00001	8b ec		 mov	 ebp, esp
  00003	83 ec 14	 sub	 esp, 20			; 00000014H
  00006	a1 00 00 00 00	 mov	 eax, DWORD PTR ___security_cookie
  0000b	33 c5		 xor	 eax, ebp
  0000d	89 45 fc	 mov	 DWORD PTR __$ArrayPad$[ebp], eax
  00010	57		 push	 edi
  00011	8b 7d 0c	 mov	 edi, DWORD PTR _aIndex$[ebp]
  00014	89 4d ec	 mov	 DWORD PTR _this$GSCopy$1$[ebp], ecx
; File c:\users\michel\desktop\source\gameserver\include\prodef.h

; 140  : 		lpBuf[0] = 0xC1;

  00017	c7 45 f0 c1 09
	4d 0f		 mov	 DWORD PTR _pMsg$[ebp], 256707009 ; 0f4d09c1H
; File c:\users\michel\desktop\source\gameserver\source\murummy.cpp

; 719  : 	pMsg.btResult = -1;

  0001e	c6 45 f4 ff	 mov	 BYTE PTR _pMsg$[ebp+4], 255 ; 000000ffH

; 720  : 
; 721  : 	if (!OBJMAX_RANGE(aIndex))

  00022	85 ff		 test	 edi, edi
  00024	0f 88 f0 00 00
	00		 js	 $LN12@CGReqMuRum
  0002a	33 c0		 xor	 eax, eax
  0002c	81 ff eb 2c 00
	00		 cmp	 edi, 11499		; 00002cebH
  00032	0f 9e c0	 setle	 al
  00035	85 c0		 test	 eax, eax
  00037	0f 84 dd 00 00
	00		 je	 $LN12@CGReqMuRum

; 722  : 	{
; 723  : 		return;
; 724  : 	}
; 725  : 
; 726  : 	if (!gObjIsConnected(aIndex))

  0003d	57		 push	 edi
  0003e	e8 00 00 00 00	 call	 ?gObjIsConnected@@YAHH@Z ; gObjIsConnected
  00043	83 c4 04	 add	 esp, 4
  00046	85 c0		 test	 eax, eax
  00048	0f 84 cc 00 00
	00		 je	 $LN12@CGReqMuRum

; 727  : 	{
; 728  : 		return;
; 729  : 	}
; 730  : 	
; 731  : 	LPOBJ lpObj = &gObj[aIndex];

  0004e	56		 push	 esi
  0004f	69 f7 40 27 00
	00		 imul	 esi, edi, 10048
  00055	03 35 00 00 00
	00		 add	 esi, DWORD PTR ?gObj@@3PAUOBJECTSTRUCT@@A ; gObj

; 732  : 	
; 733  : 	if (!lpObj)

  0005b	0f 84 b8 00 00
	00		 je	 $LN25@CGReqMuRum

; 734  : 	{
; 735  : 		return;
; 736  : 	}
; 737  : 
; 738  : 	if (lpObj->CloseType != -1) 

  00061	80 7e 0d ff	 cmp	 BYTE PTR [esi+13], -1
  00065	0f 85 ae 00 00
	00		 jne	 $LN25@CGReqMuRum

; 739  : 	{
; 740  : 		return;
; 741  : 	}
; 742  : 
; 743  : 	if (lpObj->m_IfState.use > 0 && lpObj->m_IfState.type != 3)

  0006b	8b 86 b8 11 00
	00		 mov	 eax, DWORD PTR [esi+4536]
  00071	a8 03		 test	 al, 3
  00073	76 16		 jbe	 SHORT $LN6@CGReqMuRum
  00075	8b c8		 mov	 ecx, eax
  00077	c1 e9 06	 shr	 ecx, 6
  0007a	81 e1 ff 03 00
	00		 and	 ecx, 1023		; 000003ffH
  00080	83 f9 03	 cmp	 ecx, 3
  00083	74 06		 je	 SHORT $LN6@CGReqMuRum

; 744  : 	{
; 745  : 		 LogAddTD("[MuRummy][Error] [%s][%s][%d] : not event ofen",

  00085	51		 push	 ecx

; 746  : 			 lpObj->AccountID,lpObj->Name, lpObj->m_IfState.type);
; 747  : 		 return;

  00086	e9 03 01 00 00	 jmp	 $LN28@CGReqMuRum
$LN6@CGReqMuRum:

; 748  : 	}
; 749  : 
; 750  : 	if (lpObj->m_bPShopOpen == 1 || lpObj->ChaosLock == 1)

  0008b	80 be 5c 12 00
	00 01		 cmp	 BYTE PTR [esi+4700], 1
  00092	0f 84 ed 00 00
	00		 je	 $LN8@CGReqMuRum
  00098	83 be 20 12 00
	00 01		 cmp	 DWORD PTR [esi+4640], 1
  0009f	0f 84 e0 00 00
	00		 je	 $LN8@CGReqMuRum

; 753  : 			 lpObj->AccountID,lpObj->Name, lpObj->m_IfState.type);
; 754  : 		 return;
; 755  : 	}
; 756  : 
; 757  : 	CMuRummyInfo* pMuRummyInfo;// = lpObj->m_pCMuRummyInfo;
; 758  : 
; 759  : 	if (!pMuRummyInfo)

  000a5	53		 push	 ebx
  000a6	8b 5d ec	 mov	 ebx, DWORD PTR _pMuRummyInfo$[ebp]
  000a9	85 db		 test	 ebx, ebx
  000ab	75 33		 jne	 SHORT $LN9@CGReqMuRum

; 760  : 	{
; 761  : 		LogAddTD("[MuRummy][Error] pMuRummyInfo is NULL [%s][%s] [%s, %d]",

  000ad	68 fa 02 00 00	 push	 762			; 000002faH
  000b2	68 00 00 00 00	 push	 OFFSET ??_C@_0M@DEILNLI@MuRummy?4cpp?$AA@
  000b7	8d 46 5d	 lea	 eax, DWORD PTR [esi+93]
  000ba	50		 push	 eax
  000bb	8d 46 52	 lea	 eax, DWORD PTR [esi+82]
  000be	50		 push	 eax
  000bf	68 00 00 00 00	 push	 OFFSET ??_C@_0DI@HLPPLHAH@?$FLMuRummy?$FN?$FLError?$FN?5pMuRummyInfo?5is@
  000c4	ff 15 00 00 00
	00		 call	 DWORD PTR ?LogAddTD@@3P6AXPADZZA ; LogAddTD
  000ca	83 c4 14	 add	 esp, 20			; 00000014H
  000cd	5b		 pop	 ebx
  000ce	5e		 pop	 esi
  000cf	5f		 pop	 edi

; 792  : 	}
; 793  : }

  000d0	8b 4d fc	 mov	 ecx, DWORD PTR __$ArrayPad$[ebp]
  000d3	33 cd		 xor	 ecx, ebp
  000d5	e8 00 00 00 00	 call	 @__security_check_cookie@4
  000da	8b e5		 mov	 esp, ebp
  000dc	5d		 pop	 ebp
  000dd	c2 08 00	 ret	 8
$LN9@CGReqMuRum:

; 762  : 			lpObj->AccountID, lpObj->Name, __FILE__, __LINE__);
; 763  : 		return;
; 764  : 	}
; 765  : 
; 766  : 	if (pMuRummyInfo->IsWaitReward())

  000e0	80 7b 0e 00	 cmp	 BYTE PTR [ebx+14], 0
  000e4	74 45		 je	 SHORT $LN10@CGReqMuRum

; 767  : 	{
; 768  : 		LogAddTD("[MuRummy][DebugLog][%s][%s] Waiting Item Reward(Req Open)", lpObj->AccountID, lpObj->Name);

  000e6	8d 46 5d	 lea	 eax, DWORD PTR [esi+93]
  000e9	50		 push	 eax
  000ea	8d 46 52	 lea	 eax, DWORD PTR [esi+82]
  000ed	50		 push	 eax
  000ee	68 00 00 00 00	 push	 OFFSET ??_C@_0DK@GDGLDHIM@?$FLMuRummy?$FN?$FLDebugLog?$FN?$FL?$CFs?$FN?$FL?$CFs?$FN?5Wait@
  000f3	ff 15 00 00 00
	00		 call	 DWORD PTR ?LogAddTD@@3P6AXPADZZA ; LogAddTD
  000f9	83 c4 0c	 add	 esp, 12			; 0000000cH

; 769  : 		GCServerMsgStringSend(lMsg.Get(3539), lpObj->m_Index, 1);

  000fc	b9 00 00 00 00	 mov	 ecx, OFFSET ?lMsg@@3VMessage@@A ; lMsg
  00101	6a 01		 push	 1
  00103	ff 36		 push	 DWORD PTR [esi]
  00105	68 d3 0d 00 00	 push	 3539			; 00000dd3H
  0010a	e8 00 00 00 00	 call	 ?Get@Message@@QAEPADH@Z	; Message::Get
  0010f	50		 push	 eax
  00110	e8 00 00 00 00	 call	 ?GCServerMsgStringSend@@YAXPADHE@Z ; GCServerMsgStringSend
$LN27@CGReqMuRum:

; 781  : 		{
; 782  : 			 pMsg.btResult = 1;
; 783  :              DataSend(aIndex, (LPBYTE)&pMsg, pMsg.h.size);

  00115	83 c4 0c	 add	 esp, 12			; 0000000cH
$LN26@CGReqMuRum:
  00118	5b		 pop	 ebx
$LN25@CGReqMuRum:
  00119	5e		 pop	 esi
$LN12@CGReqMuRum:
  0011a	5f		 pop	 edi

; 792  : 	}
; 793  : }

  0011b	8b 4d fc	 mov	 ecx, DWORD PTR __$ArrayPad$[ebp]
  0011e	33 cd		 xor	 ecx, ebp
  00120	e8 00 00 00 00	 call	 @__security_check_cookie@4
  00125	8b e5		 mov	 esp, ebp
  00127	5d		 pop	 ebp
  00128	c2 08 00	 ret	 8
$LN10@CGReqMuRum:

; 770  : 	}
; 771  : 	else if (this->IsMuRummyEventOn())

  0012b	8b 4d ec	 mov	 ecx, DWORD PTR _this$GSCopy$1$[ebp]
  0012e	e8 00 00 00 00	 call	 ?IsMuRummyEventOn@CMuRummyMng@@QAEHXZ ; CMuRummyMng::IsMuRummyEventOn
  00133	85 c0		 test	 eax, eax
  00135	74 e1		 je	 SHORT $LN26@CGReqMuRum

; 772  : 	{
; 773  : 		CTime tExpireTime; //maybe special initilizator
; 774  : 		DWORD dwExpireSec = 0;//g_PeriodItemEx.GetLeftDate(tExpireTime.GetTime());
; 775  : 		pMsg.btEventTime1 = DWORD((DWORD(dwExpireSec >> 32) >> 16) & 0xFFFF) >> 8;
; 776  : 		pMsg.btEventTime2 = DWORD((DWORD(dwExpireSec >> 32) >> 16) & 0xFFFF) & 0xFF;
; 777  : 		pMsg.btEventTime3 = DWORD((DWORD(dwExpireSec >> 32) & 0xFFFF) & 0xFFFF) >> 8;
; 778  : 		pMsg.btEventTime4 = DWORD((DWORD(dwExpireSec >> 32) & 0xFFFF) & 0xFFFF) & 0xFF;
; 779  : 		
; 780  : 		if (!pMuRummyInfo->IsGetPlayCard())

  00137	80 7b 0c 00	 cmp	 BYTE PTR [ebx+12], 0

; 781  : 		{
; 782  : 			 pMsg.btResult = 1;
; 783  :              DataSend(aIndex, (LPBYTE)&pMsg, pMsg.h.size);

  0013b	0f b6 45 f1	 movzx	 eax, BYTE PTR _pMsg$[ebp+1]
  0013f	50		 push	 eax
  00140	8d 45 f0	 lea	 eax, DWORD PTR _pMsg$[ebp]
  00143	c7 45 f5 00 00
	00 00		 mov	 DWORD PTR _pMsg$[ebp+5], 0
  0014a	50		 push	 eax
  0014b	57		 push	 edi
  0014c	75 0b		 jne	 SHORT $LN13@CGReqMuRum
  0014e	c6 45 f4 01	 mov	 BYTE PTR _pMsg$[ebp+4], 1
  00152	e8 00 00 00 00	 call	 ?DataSend@@YAHHPAEK@Z	; DataSend

; 784  : 			 return;

  00157	eb bc		 jmp	 SHORT $LN27@CGReqMuRum
$LN13@CGReqMuRum:

; 785  : 		}
; 786  : 
; 787  : 		pMsg.btResult = 2;

  00159	c6 45 f4 02	 mov	 BYTE PTR _pMsg$[ebp+4], 2

; 788  :         DataSend(aIndex, (LPBYTE)&pMsg, pMsg.h.size);

  0015d	e8 00 00 00 00	 call	 ?DataSend@@YAHHPAEK@Z	; DataSend

; 789  :         this->CGReqMuRummyStart(0, aIndex);

  00162	8b 4d ec	 mov	 ecx, DWORD PTR _this$GSCopy$1$[ebp]
  00165	83 c4 0c	 add	 esp, 12			; 0000000cH
  00168	57		 push	 edi
  00169	6a 00		 push	 0
  0016b	e8 00 00 00 00	 call	 ?CGReqMuRummyStart@CMuRummyMng@@QAEXPAU_tagPMSG_REQ_MURUMMY_INFO@@H@Z ; CMuRummyMng::CGReqMuRummyStart

; 790  : 
; 791  : 		LogAddTD("[MuRummy] [%s][%s] : Mini Game Open", lpObj->AccountID, lpObj->Name);

  00170	8d 46 5d	 lea	 eax, DWORD PTR [esi+93]
  00173	50		 push	 eax
  00174	8d 46 52	 lea	 eax, DWORD PTR [esi+82]
  00177	50		 push	 eax
  00178	68 00 00 00 00	 push	 OFFSET ??_C@_0CE@CNODDPGG@?$FLMuRummy?$FN?5?$FL?$CFs?$FN?$FL?$CFs?$FN?5?3?5Mini?5Game?5O@
  0017d	ff 15 00 00 00
	00		 call	 DWORD PTR ?LogAddTD@@3P6AXPADZZA ; LogAddTD
  00183	eb 90		 jmp	 SHORT $LN27@CGReqMuRum
$LN8@CGReqMuRum:

; 751  :     {
; 752  : 		LogAddTD("[MuRummy][Error] [%s][%s][%d] : not event ofen",

  00185	c1 e8 06	 shr	 eax, 6
  00188	25 ff 03 00 00	 and	 eax, 1023		; 000003ffH
  0018d	50		 push	 eax
$LN28@CGReqMuRum:
  0018e	8d 46 5d	 lea	 eax, DWORD PTR [esi+93]
  00191	50		 push	 eax
  00192	8d 46 52	 lea	 eax, DWORD PTR [esi+82]
  00195	50		 push	 eax
  00196	68 00 00 00 00	 push	 OFFSET ??_C@_0CP@ICHPCBKA@?$FLMuRummy?$FN?$FLError?$FN?5?$FL?$CFs?$FN?$FL?$CFs?$FN?$FL?$CFd?$FN?5?3?5@
  0019b	ff 15 00 00 00
	00		 call	 DWORD PTR ?LogAddTD@@3P6AXPADZZA ; LogAddTD

; 792  : 	}
; 793  : }

  001a1	8b 4d fc	 mov	 ecx, DWORD PTR __$ArrayPad$[ebp]
  001a4	83 c4 10	 add	 esp, 16			; 00000010H
  001a7	33 cd		 xor	 ecx, ebp
  001a9	5e		 pop	 esi
  001aa	5f		 pop	 edi
  001ab	e8 00 00 00 00	 call	 @__security_check_cookie@4
  001b0	8b e5		 mov	 esp, ebp
  001b2	5d		 pop	 ebp
  001b3	c2 08 00	 ret	 8
?CGReqMuRummyEventOpen@CMuRummyMng@@QAEXPAU_tagPMSG_REQ_MURUMMY_EVENT_OPEN@@H@Z ENDP ; CMuRummyMng::CGReqMuRummyEventOpen
_TEXT	ENDS
; Function compile flags: /Ogtp
; File c:\users\michel\desktop\source\gameserver\source\murummy.cpp
; File c:\users\michel\desktop\source\gameserver\source\murummy.h
; File c:\users\michel\desktop\source\gameserver\source\murummy.cpp
; File c:\users\michel\desktop\source\gameserver\source\murummy.h
; File c:\users\michel\desktop\source\gameserver\source\murummy.cpp
; File c:\users\michel\desktop\source\gameserver\source\murummy.h
; File c:\users\michel\desktop\source\gameserver\source\murummy.cpp
; File c:\users\michel\desktop\source\gameserver\source\murummy.h
; File c:\users\michel\desktop\source\gameserver\source\murummy.cpp
; File c:\users\michel\desktop\source\gameserver\source\murummy.h
; File c:\users\michel\desktop\source\gameserver\source\murummy.cpp
; File c:\users\michel\desktop\source\gameserver\source\murummy.h
; File c:\users\michel\desktop\source\gameserver\source\murummy.cpp
;	COMDAT ?FillEmptySlotCard@CMuRummyMng@@QAE_NPAVCMuRummyInfo@@PAU_tagMuRummyCardInfo@@PAUOBJECTSTRUCT@@@Z
_TEXT	SEGMENT
_this$1$ = -16						; size = 4
_nCardSeq$1$ = -12					; size = 4
_pCCardInfo$1$ = -8					; size = 4
_pSlotIndexInfo$1$ = -4					; size = 4
tv332 = 8						; size = 4
_pMuRummyInfo$ = 8					; size = 4
_nCardDeckCnt$1$ = 12					; size = 4
_pOutCardInfo$ = 12					; size = 4
_obj$ = 16						; size = 4
?FillEmptySlotCard@CMuRummyMng@@QAE_NPAVCMuRummyInfo@@PAU_tagMuRummyCardInfo@@PAUOBJECTSTRUCT@@@Z PROC ; CMuRummyMng::FillEmptySlotCard, COMDAT
; _this$ = ecx

; 648  : {

  00000	55		 push	 ebp
  00001	8b ec		 mov	 ebp, esp
  00003	83 ec 10	 sub	 esp, 16			; 00000010H
  00006	53		 push	 ebx

; 649  : 	CMuRummyCardInfo* pCCardInfo = pMuRummyInfo->GetCardInfo();

  00007	8b 5d 08	 mov	 ebx, DWORD PTR _pMuRummyInfo$[ebp]
  0000a	89 4d f0	 mov	 DWORD PTR _this$1$[ebp], ecx
  0000d	8b cb		 mov	 ecx, ebx
  0000f	e8 00 00 00 00	 call	 ?GetCardInfo@CMuRummyInfo@@QAEPAVCMuRummyCardInfo@@XZ ; CMuRummyInfo::GetCardInfo
  00014	89 45 f8	 mov	 DWORD PTR _pCCardInfo$1$[ebp], eax

; 650  : 
; 651  : 	if (!pCCardInfo)

  00017	85 c0		 test	 eax, eax
  00019	75 21		 jne	 SHORT $LN5@FillEmptyS

; 652  : 	{
; 653  : 		LogAddTD("[MuRummy][Error] pCCardInfo is NULL [%s, %d]", __FILE__, __LINE__);

  0001b	68 8d 02 00 00	 push	 653			; 0000028dH
  00020	68 00 00 00 00	 push	 OFFSET ??_C@_0M@DEILNLI@MuRummy?4cpp?$AA@
  00025	68 00 00 00 00	 push	 OFFSET ??_C@_0CN@OCJJNEBG@?$FLMuRummy?$FN?$FLError?$FN?5pCCardInfo?5is?5N@
  0002a	ff 15 00 00 00
	00		 call	 DWORD PTR ?LogAddTD@@3P6AXPADZZA ; LogAddTD
  00030	83 c4 0c	 add	 esp, 12			; 0000000cH

; 654  : 		return false;

  00033	32 c0		 xor	 al, al
  00035	5b		 pop	 ebx

; 713  : }

  00036	8b e5		 mov	 esp, ebp
  00038	5d		 pop	 ebp
  00039	c2 0c 00	 ret	 12			; 0000000cH
$LN5@FillEmptyS:

; 655  : 	}
; 656  : 
; 657  : 	LPBYTE pSlotIndexInfo = pMuRummyInfo->GetSlotIndexInfo();

  0003c	8b cb		 mov	 ecx, ebx
  0003e	e8 00 00 00 00	 call	 ?GetSlotIndexInfo@CMuRummyInfo@@QAEPAEXZ ; CMuRummyInfo::GetSlotIndexInfo
  00043	8b c8		 mov	 ecx, eax
  00045	89 4d fc	 mov	 DWORD PTR _pSlotIndexInfo$1$[ebp], ecx

; 658  : 
; 659  : 	if (!pSlotIndexInfo)

  00048	85 c9		 test	 ecx, ecx
  0004a	75 21		 jne	 SHORT $LN6@FillEmptyS

; 660  : 	{
; 661  : 		LogAddTD("[MuRummy][Error] pSlotIndexInfo is NULL [%s, %d]", __FILE__, __LINE__);

  0004c	68 95 02 00 00	 push	 661			; 00000295H
  00051	68 00 00 00 00	 push	 OFFSET ??_C@_0M@DEILNLI@MuRummy?4cpp?$AA@
  00056	68 00 00 00 00	 push	 OFFSET ??_C@_0DB@NJNPCKOH@?$FLMuRummy?$FN?$FLError?$FN?5pSlotIndexInfo?5@
  0005b	ff 15 00 00 00
	00		 call	 DWORD PTR ?LogAddTD@@3P6AXPADZZA ; LogAddTD
  00061	83 c4 0c	 add	 esp, 12			; 0000000cH

; 662  : 		return false;

  00064	32 c0		 xor	 al, al
  00066	5b		 pop	 ebx

; 713  : }

  00067	8b e5		 mov	 esp, ebp
  00069	5d		 pop	 ebp
  0006a	c2 0c 00	 ret	 12			; 0000000cH
$LN6@FillEmptyS:

; 663  : 	}
; 664  : 
; 665  : 	int nCardArr = 0;

  0006d	8b 45 0c	 mov	 eax, DWORD PTR _pOutCardInfo$[ebp]
  00070	56		 push	 esi
  00071	57		 push	 edi
  00072	33 ff		 xor	 edi, edi

; 666  :     
; 667  : 	for (int i = 0; i < 5; i++)

  00074	33 f6		 xor	 esi, esi
  00076	83 c0 02	 add	 eax, 2
  00079	89 45 08	 mov	 DWORD PTR tv332[ebp], eax
  0007c	0f 1f 40 00	 npad	 4
$LL4@FillEmptyS:

; 668  :     {
; 669  : 		if (pSlotIndexInfo[i] != (BYTE)-1)

  00080	80 3c 0e ff	 cmp	 BYTE PTR [esi+ecx], 255	; 000000ffH
  00084	0f 85 8e 00 00
	00		 jne	 $LN2@FillEmptyS

; 670  :         {
; 671  : 			continue;
; 672  : 		}
; 673  : 
; 674  : 		if (nCardArr < 0 || nCardArr > 4)

  0008a	85 ff		 test	 edi, edi
  0008c	0f 88 d8 00 00
	00		 js	 $LN9@FillEmptyS
  00092	83 ff 04	 cmp	 edi, 4
  00095	0f 8f cf 00 00
	00		 jg	 $LN9@FillEmptyS
; File c:\users\michel\desktop\source\gameserver\source\murummy.h

; 49   :     int GetCardDeckCnt() { return this->m_iCardDeckCnt; };

  0009b	8b 43 08	 mov	 eax, DWORD PTR [ebx+8]
; File c:\users\michel\desktop\source\gameserver\source\murummy.cpp

; 680  :         int nCardSeq = MURUMMY_MAX_CARD - nCardDeckCnt;

  0009e	b9 18 00 00 00	 mov	 ecx, 24			; 00000018H
  000a3	2b c8		 sub	 ecx, eax
; File c:\users\michel\desktop\source\gameserver\source\murummy.h

; 49   :     int GetCardDeckCnt() { return this->m_iCardDeckCnt; };

  000a5	89 45 0c	 mov	 DWORD PTR _nCardDeckCnt$1$[ebp], eax
; File c:\users\michel\desktop\source\gameserver\source\murummy.cpp

; 680  :         int nCardSeq = MURUMMY_MAX_CARD - nCardDeckCnt;

  000a8	89 4d f4	 mov	 DWORD PTR _nCardSeq$1$[ebp], ecx

; 681  : 
; 682  : 		if (nCardSeq >= MURUMMY_MAX_CARD )

  000ab	83 f9 18	 cmp	 ecx, 24			; 00000018H
  000ae	0f 8d 9d 00 00
	00		 jge	 $LN40@FillEmptyS
; File c:\users\michel\desktop\source\gameserver\source\murummy.h

; 15   :     void SetSlotNum(int iSlotNum) { this->m_iSlotNum = iSlotNum; };

  000b4	8b 55 f8	 mov	 edx, DWORD PTR _pCCardInfo$1$[ebp]
; File c:\users\michel\desktop\source\gameserver\source\murummy.cpp

; 688  : 		pCCardInfo[nCardSeq].SetSlotNum(i);

  000b7	8b c1		 mov	 eax, ecx
  000b9	c1 e0 04	 shl	 eax, 4

; 694  :         pMuRummyInfo->SetCardDeckCnt(nCardDeckCnt - 1);
; 695  :         nCardArr++;

  000bc	47		 inc	 edi
; File c:\users\michel\desktop\source\gameserver\source\murummy.h

; 15   :     void SetSlotNum(int iSlotNum) { this->m_iSlotNum = iSlotNum; };

  000bd	03 d0		 add	 edx, eax
; File c:\users\michel\desktop\source\gameserver\source\murummy.cpp

; 690  :         pSlotIndexInfo[i] = nCardSeq;

  000bf	8b 45 fc	 mov	 eax, DWORD PTR _pSlotIndexInfo$1$[ebp]
; File c:\users\michel\desktop\source\gameserver\source\murummy.h

; 15   :     void SetSlotNum(int iSlotNum) { this->m_iSlotNum = iSlotNum; };

  000c2	89 72 0c	 mov	 DWORD PTR [edx+12], esi

; 14   :     void SetState(int iState) { this->m_iState = iState; };

  000c5	c7 42 08 01 00
	00 00		 mov	 DWORD PTR [edx+8], 1
; File c:\users\michel\desktop\source\gameserver\source\murummy.cpp

; 690  :         pSlotIndexInfo[i] = nCardSeq;

  000cc	88 0c 06	 mov	 BYTE PTR [esi+eax], cl

; 691  :         pOutCardInfo[nCardArr].btColor = pCCardInfo[nCardSeq].GetColor();

  000cf	8b 4d 08	 mov	 ecx, DWORD PTR tv332[ebp]
  000d2	0f b6 02	 movzx	 eax, BYTE PTR [edx]
  000d5	88 41 fe	 mov	 BYTE PTR [ecx-2], al

; 692  :         pOutCardInfo[nCardArr].btNumber = pCCardInfo[nCardSeq].GetNumber();

  000d8	0f b6 42 04	 movzx	 eax, BYTE PTR [edx+4]
  000dc	88 41 ff	 mov	 BYTE PTR [ecx-1], al

; 693  :         pOutCardInfo[nCardArr].btSlotNum = pCCardInfo[nCardSeq].GetSlotNum();

  000df	0f b6 42 0c	 movzx	 eax, BYTE PTR [edx+12]
  000e3	88 01		 mov	 BYTE PTR [ecx], al

; 694  :         pMuRummyInfo->SetCardDeckCnt(nCardDeckCnt - 1);
; 695  :         nCardArr++;

  000e5	83 c1 03	 add	 ecx, 3
  000e8	8b 45 0c	 mov	 eax, DWORD PTR _nCardDeckCnt$1$[ebp]
  000eb	48		 dec	 eax
  000ec	89 4d 08	 mov	 DWORD PTR tv332[ebp], ecx

; 697  : 		if (pMuRummyInfo->GetCardDeckCnt() < 0)

  000ef	8b 4d f4	 mov	 ecx, DWORD PTR _nCardSeq$1$[ebp]
; File c:\users\michel\desktop\source\gameserver\source\murummy.h

; 43   :     void SetCardDeckCnt(int iCardDeckCnt) { this->m_iCardDeckCnt = iCardDeckCnt; };

  000f2	89 43 08	 mov	 DWORD PTR [ebx+8], eax
; File c:\users\michel\desktop\source\gameserver\source\murummy.cpp

; 697  : 		if (pMuRummyInfo->GetCardDeckCnt() < 0)

  000f5	85 c0		 test	 eax, eax
  000f7	78 34		 js	 SHORT $LN41@FillEmptyS

; 702  :         }
; 703  : 
; 704  :         this->GDReqSlotInfoUpdate(obj, nCardSeq, pCCardInfo[nCardSeq].GetSlotNum(), pCCardInfo[nCardSeq].GetState());

  000f9	0f b6 42 08	 movzx	 eax, BYTE PTR [edx+8]
  000fd	50		 push	 eax
  000fe	0f b6 42 0c	 movzx	 eax, BYTE PTR [edx+12]
  00102	50		 push	 eax
  00103	51		 push	 ecx
  00104	ff 75 10	 push	 DWORD PTR _obj$[ebp]
  00107	8b 4d f0	 mov	 ecx, DWORD PTR _this$1$[ebp]
  0010a	e8 00 00 00 00	 call	 ?GDReqSlotInfoUpdate@CMuRummyMng@@QAEXPAUOBJECTSTRUCT@@EEE@Z ; CMuRummyMng::GDReqSlotInfoUpdate

; 705  :         
; 706  : 		if (!pMuRummyInfo->GetCardDeckCnt())

  0010f	83 7b 08 00	 cmp	 DWORD PTR [ebx+8], 0
  00113	74 0d		 je	 SHORT $LN46@FillEmptyS
  00115	8b 4d fc	 mov	 ecx, DWORD PTR _pSlotIndexInfo$1$[ebp]
$LN2@FillEmptyS:

; 666  :     
; 667  : 	for (int i = 0; i < 5; i++)

  00118	46		 inc	 esi
  00119	83 fe 05	 cmp	 esi, 5
  0011c	0f 8c 5e ff ff
	ff		 jl	 $LL4@FillEmptyS
$LN46@FillEmptyS:
  00122	5f		 pop	 edi
  00123	5e		 pop	 esi

; 707  : 		{
; 708  :            return true;
; 709  : 		}
; 710  : 	}
; 711  : 	
; 712  : 	return true;

  00124	b0 01		 mov	 al, 1
  00126	5b		 pop	 ebx

; 713  : }

  00127	8b e5		 mov	 esp, ebp
  00129	5d		 pop	 ebp
  0012a	c2 0c 00	 ret	 12			; 0000000cH
$LN41@FillEmptyS:

; 698  :         {
; 699  :             LogAddTD("[MuRummy][Error] CardDeck cnt [%d] [%s, %d]", pMuRummyInfo->GetCardDeckCnt(), 

  0012d	68 bc 02 00 00	 push	 700			; 000002bcH
  00132	68 00 00 00 00	 push	 OFFSET ??_C@_0M@DEILNLI@MuRummy?4cpp?$AA@
  00137	50		 push	 eax
  00138	68 00 00 00 00	 push	 OFFSET ??_C@_0CM@OCPFDBGL@?$FLMuRummy?$FN?$FLError?$FN?5CardDeck?5cnt?5?$FL?$CF@
  0013d	ff 15 00 00 00
	00		 call	 DWORD PTR ?LogAddTD@@3P6AXPADZZA ; LogAddTD
  00143	83 c4 10	 add	 esp, 16			; 00000010H

; 700  : 				__FILE__, __LINE__);
; 701  :             return false;

  00146	32 c0		 xor	 al, al
  00148	5f		 pop	 edi
  00149	5e		 pop	 esi
  0014a	5b		 pop	 ebx

; 713  : }

  0014b	8b e5		 mov	 esp, ebp
  0014d	5d		 pop	 ebp
  0014e	c2 0c 00	 ret	 12			; 0000000cH
$LN40@FillEmptyS:

; 683  :         {
; 684  : 			LogAddTD("[MuRummy][Error] Card Cnt Over [%d] [%s, %d]", nCardSeq, __FILE__, __LINE__);

  00151	68 ac 02 00 00	 push	 684			; 000002acH
  00156	68 00 00 00 00	 push	 OFFSET ??_C@_0M@DEILNLI@MuRummy?4cpp?$AA@
  0015b	51		 push	 ecx
  0015c	68 00 00 00 00	 push	 OFFSET ??_C@_0CN@LMGDIHHF@?$FLMuRummy?$FN?$FLError?$FN?5Card?5Cnt?5Over?5?$FL@
  00161	ff 15 00 00 00
	00		 call	 DWORD PTR ?LogAddTD@@3P6AXPADZZA ; LogAddTD
  00167	83 c4 10	 add	 esp, 16			; 00000010H
$LN9@FillEmptyS:

; 685  :             return false;

  0016a	5f		 pop	 edi
  0016b	5e		 pop	 esi
  0016c	32 c0		 xor	 al, al
  0016e	5b		 pop	 ebx

; 713  : }

  0016f	8b e5		 mov	 esp, ebp
  00171	5d		 pop	 ebp
  00172	c2 0c 00	 ret	 12			; 0000000cH
?FillEmptySlotCard@CMuRummyMng@@QAE_NPAVCMuRummyInfo@@PAU_tagMuRummyCardInfo@@PAUOBJECTSTRUCT@@@Z ENDP ; CMuRummyMng::FillEmptySlotCard
_TEXT	ENDS
; Function compile flags: /Ogtp
; File c:\users\michel\desktop\source\gameserver\source\murummy.cpp
;	COMDAT ?IsCardNumber@CMuRummyMng@@QAEHPAVCMuRummyCardInfo@@@Z
_TEXT	SEGMENT
_pCCardInfo$ = 8					; size = 4
?IsCardNumber@CMuRummyMng@@QAEHPAVCMuRummyCardInfo@@@Z PROC ; CMuRummyMng::IsCardNumber, COMDAT
; _this$ = ecx

; 620  : {

  00000	55		 push	 ebp
  00001	8b ec		 mov	 ebp, esp
  00003	53		 push	 ebx
  00004	8b d9		 mov	 ebx, ecx

; 621  : 	for (int i = 0; ; i++)

  00006	8b 4d 08	 mov	 ecx, DWORD PTR _pCCardInfo$[ebp]
  00009	56		 push	 esi
  0000a	57		 push	 edi
  0000b	33 ff		 xor	 edi, edi
  0000d	8d 71 04	 lea	 esi, DWORD PTR [ecx+4]
  00010	8b d6		 mov	 edx, esi
$LL4@IsCardNumb:

; 626  : 		}
; 627  : 
; 628  : 		if (pCCardInfo[i].GetNumber() != pCCardInfo[i + 1].GetNumber())

  00012	8b 02		 mov	 eax, DWORD PTR [edx]
  00014	3b 42 10	 cmp	 eax, DWORD PTR [edx+16]
  00017	75 15		 jne	 SHORT $LN24@IsCardNumb

; 621  : 	for (int i = 0; ; i++)

  00019	47		 inc	 edi
  0001a	83 c2 10	 add	 edx, 16			; 00000010H

; 622  : 	{
; 623  : 		if (i >= 2 )

  0001d	83 ff 02	 cmp	 edi, 2
  00020	7c f0		 jl	 SHORT $LL4@IsCardNumb

; 624  : 		{
; 625  : 			return 4;

  00022	5f		 pop	 edi
  00023	5e		 pop	 esi
  00024	b8 04 00 00 00	 mov	 eax, 4
  00029	5b		 pop	 ebx

; 645  : }

  0002a	5d		 pop	 ebp
  0002b	c2 04 00	 ret	 4
$LN24@IsCardNumb:

; 629  : 		{
; 630  : 			break;
; 631  : 		}
; 632  : 	}
; 633  : 
; 634  : 	this->CardSortAscending(pCCardInfo);

  0002e	51		 push	 ecx
  0002f	8b cb		 mov	 ecx, ebx
  00031	e8 00 00 00 00	 call	 ?CardSortAscending@CMuRummyMng@@QAEXPAVCMuRummyCardInfo@@@Z ; CMuRummyMng::CardSortAscending

; 635  : 
; 636  : 	for (int j = 0; j < 2; j++)

  00036	33 c9		 xor	 ecx, ecx
$LL7@IsCardNumb:

; 637  : 	{
; 638  : 		if ( pCCardInfo[j + 1].GetNumber() - pCCardInfo[j].GetNumber() != 1)

  00038	8b 46 10	 mov	 eax, DWORD PTR [esi+16]
  0003b	2b 06		 sub	 eax, DWORD PTR [esi]
  0003d	83 f8 01	 cmp	 eax, 1
  00040	75 15		 jne	 SHORT $LN25@IsCardNumb

; 635  : 
; 636  : 	for (int j = 0; j < 2; j++)

  00042	41		 inc	 ecx
  00043	83 c6 10	 add	 esi, 16			; 00000010H
  00046	83 f9 02	 cmp	 ecx, 2
  00049	7c ed		 jl	 SHORT $LL7@IsCardNumb

; 641  : 		}
; 642  : 	}
; 643  : 
; 644  : 	return 3;

  0004b	5f		 pop	 edi
  0004c	5e		 pop	 esi
  0004d	b8 03 00 00 00	 mov	 eax, 3
  00052	5b		 pop	 ebx

; 645  : }

  00053	5d		 pop	 ebp
  00054	c2 04 00	 ret	 4
$LN25@IsCardNumb:
  00057	5f		 pop	 edi
  00058	5e		 pop	 esi

; 639  : 		{
; 640  : 			return 0;

  00059	33 c0		 xor	 eax, eax
  0005b	5b		 pop	 ebx

; 645  : }

  0005c	5d		 pop	 ebp
  0005d	c2 04 00	 ret	 4
?IsCardNumber@CMuRummyMng@@QAEHPAVCMuRummyCardInfo@@@Z ENDP ; CMuRummyMng::IsCardNumber
_TEXT	ENDS
; Function compile flags: /Ogtp
; File c:\users\michel\desktop\source\gameserver\source\murummy.cpp
;	COMDAT ?IsCardSameColor@CMuRummyMng@@QAEHPAVCMuRummyCardInfo@@@Z
_TEXT	SEGMENT
_pCCardInfo$ = 8					; size = 4
?IsCardSameColor@CMuRummyMng@@QAEHPAVCMuRummyCardInfo@@@Z PROC ; CMuRummyMng::IsCardSameColor, COMDAT
; _this$ = ecx

; 607  : {

  00000	55		 push	 ebp
  00001	8b ec		 mov	 ebp, esp

; 608  : 	for (int i = 0; i < 2; i++)

  00003	8b 45 08	 mov	 eax, DWORD PTR _pCCardInfo$[ebp]
  00006	33 d2		 xor	 edx, edx
$LL4@IsCardSame:

; 609  : 	{
; 610  : 		if (pCCardInfo[i].GetColor() != pCCardInfo[i + 1].GetColor())

  00008	8b 08		 mov	 ecx, DWORD PTR [eax]
  0000a	3b 48 10	 cmp	 ecx, DWORD PTR [eax+16]
  0000d	75 12		 jne	 SHORT $LN12@IsCardSame

; 608  : 	for (int i = 0; i < 2; i++)

  0000f	42		 inc	 edx
  00010	83 c0 10	 add	 eax, 16			; 00000010H
  00013	83 fa 02	 cmp	 edx, 2
  00016	7c f0		 jl	 SHORT $LL4@IsCardSame

; 613  : 		}
; 614  : 	}
; 615  : 
; 616  : 	return 2;

  00018	b8 02 00 00 00	 mov	 eax, 2

; 617  : }

  0001d	5d		 pop	 ebp
  0001e	c2 04 00	 ret	 4
$LN12@IsCardSame:

; 611  : 		{
; 612  : 			return 1;

  00021	b8 01 00 00 00	 mov	 eax, 1

; 617  : }

  00026	5d		 pop	 ebp
  00027	c2 04 00	 ret	 4
?IsCardSameColor@CMuRummyMng@@QAEHPAVCMuRummyCardInfo@@@Z ENDP ; CMuRummyMng::IsCardSameColor
_TEXT	ENDS
; Function compile flags: /Ogtp
; File c:\users\michel\desktop\source\gameserver\source\murummy.cpp
; File c:\users\michel\desktop\source\gameserver\source\murummy.h
; File c:\users\michel\desktop\source\gameserver\source\murummy.cpp
;	COMDAT ?CardSortAscending@CMuRummyMng@@QAEXPAVCMuRummyCardInfo@@@Z
_TEXT	SEGMENT
_CCardInfoTmp$1$ = -12					; size = 4
tv641 = -8						; size = 4
tv642 = -4						; size = 4
_pCCardInfo$ = 8					; size = 4
?CardSortAscending@CMuRummyMng@@QAEXPAVCMuRummyCardInfo@@@Z PROC ; CMuRummyMng::CardSortAscending, COMDAT
; _this$ = ecx

; 578  : {

  00000	55		 push	 ebp
  00001	8b ec		 mov	 ebp, esp
  00003	83 ec 0c	 sub	 esp, 12			; 0000000cH
  00006	53		 push	 ebx

; 579  : 	CMuRummyCardInfo CCardInfoTmp;
; 580  : 
; 581  : 	for (int i = 0; i < 2; i++)

  00007	b9 02 00 00 00	 mov	 ecx, 2
  0000c	89 4d f8	 mov	 DWORD PTR tv641[ebp], ecx
  0000f	56		 push	 esi
  00010	57		 push	 edi

; 583  : 		for (int j = 0; j < 3 - i - 1; j++)

  00011	85 c9		 test	 ecx, ecx
  00013	7e 55		 jle	 SHORT $LN2@CardSortAs
$LN71@CardSortAs:
  00015	8b 45 08	 mov	 eax, DWORD PTR _pCCardInfo$[ebp]
  00018	83 c0 04	 add	 eax, 4
  0001b	89 4d fc	 mov	 DWORD PTR tv642[ebp], ecx
  0001e	66 90		 npad	 2
$LL7@CardSortAs:

; 584  : 		{
; 585  : 			if (pCCardInfo[j].GetNumber() > pCCardInfo[j + 1].GetNumber())

  00020	8b 30		 mov	 esi, DWORD PTR [eax]
  00022	89 75 f4	 mov	 DWORD PTR _CCardInfoTmp$1$[ebp], esi
  00025	3b 70 10	 cmp	 esi, DWORD PTR [eax+16]
  00028	7e 32		 jle	 SHORT $LN5@CardSortAs
; File c:\users\michel\desktop\source\gameserver\source\murummy.h

; 12   :     void SetColor(int iColor) { this->m_iColor = iColor; };

  0002a	8b 48 0c	 mov	 ecx, DWORD PTR [eax+12]
  0002d	8b 78 fc	 mov	 edi, DWORD PTR [eax-4]

; 14   :     void SetState(int iState) { this->m_iState = iState; };

  00030	8b 70 04	 mov	 esi, DWORD PTR [eax+4]

; 15   :     void SetSlotNum(int iSlotNum) { this->m_iSlotNum = iSlotNum; };

  00033	8b 50 08	 mov	 edx, DWORD PTR [eax+8]

; 12   :     void SetColor(int iColor) { this->m_iColor = iColor; };

  00036	89 48 fc	 mov	 DWORD PTR [eax-4], ecx

; 13   :     void SetNumber(int iNumber) { this->m_iNumber = iNumber; };

  00039	8b 48 10	 mov	 ecx, DWORD PTR [eax+16]
  0003c	89 08		 mov	 DWORD PTR [eax], ecx

; 14   :     void SetState(int iState) { this->m_iState = iState; };

  0003e	8b 48 14	 mov	 ecx, DWORD PTR [eax+20]
  00041	89 48 04	 mov	 DWORD PTR [eax+4], ecx

; 15   :     void SetSlotNum(int iSlotNum) { this->m_iSlotNum = iSlotNum; };

  00044	8b 48 18	 mov	 ecx, DWORD PTR [eax+24]
  00047	89 48 08	 mov	 DWORD PTR [eax+8], ecx

; 13   :     void SetNumber(int iNumber) { this->m_iNumber = iNumber; };

  0004a	8b 4d f4	 mov	 ecx, DWORD PTR _CCardInfoTmp$1$[ebp]
  0004d	89 48 10	 mov	 DWORD PTR [eax+16], ecx
  00050	8b 4d fc	 mov	 ecx, DWORD PTR tv642[ebp]

; 12   :     void SetColor(int iColor) { this->m_iColor = iColor; };

  00053	89 78 0c	 mov	 DWORD PTR [eax+12], edi

; 14   :     void SetState(int iState) { this->m_iState = iState; };

  00056	89 70 14	 mov	 DWORD PTR [eax+20], esi

; 15   :     void SetSlotNum(int iSlotNum) { this->m_iSlotNum = iSlotNum; };

  00059	89 50 18	 mov	 DWORD PTR [eax+24], edx
$LN5@CardSortAs:
; File c:\users\michel\desktop\source\gameserver\source\murummy.cpp

; 583  : 		for (int j = 0; j < 3 - i - 1; j++)

  0005c	83 c0 10	 add	 eax, 16			; 00000010H
  0005f	83 e9 01	 sub	 ecx, 1
  00062	89 4d fc	 mov	 DWORD PTR tv642[ebp], ecx
  00065	75 b9		 jne	 SHORT $LL7@CardSortAs
  00067	8b 4d f8	 mov	 ecx, DWORD PTR tv641[ebp]
$LN2@CardSortAs:

; 579  : 	CMuRummyCardInfo CCardInfoTmp;
; 580  : 
; 581  : 	for (int i = 0; i < 2; i++)

  0006a	49		 dec	 ecx
  0006b	89 4d f8	 mov	 DWORD PTR tv641[ebp], ecx
  0006e	85 c9		 test	 ecx, ecx
  00070	7f a3		 jg	 SHORT $LN71@CardSortAs
  00072	5f		 pop	 edi
  00073	5e		 pop	 esi
  00074	5b		 pop	 ebx

; 586  : 			{
; 587  : 				CCardInfoTmp.SetColor(pCCardInfo[j].GetColor());
; 588  : 				CCardInfoTmp.SetNumber(pCCardInfo[j].GetNumber());
; 589  : 				CCardInfoTmp.SetState(pCCardInfo[j].GetState());
; 590  : 				CCardInfoTmp.SetSlotNum(pCCardInfo[j].GetSlotNum());
; 591  : 
; 592  : 				pCCardInfo[j].SetColor(pCCardInfo[j + 1].GetColor());
; 593  : 				pCCardInfo[j].SetNumber(pCCardInfo[j + 1].GetNumber());
; 594  : 				pCCardInfo[j].SetState(pCCardInfo[j + 1].GetState());
; 595  : 				pCCardInfo[j].SetSlotNum(pCCardInfo[j + 1].GetSlotNum());
; 596  : 
; 597  : 				pCCardInfo[j + 1].SetColor(CCardInfoTmp.GetColor());
; 598  : 				pCCardInfo[j + 1].SetNumber(CCardInfoTmp.GetNumber());
; 599  : 				pCCardInfo[j + 1].SetState(CCardInfoTmp.GetState());
; 600  : 				pCCardInfo[j + 1].SetSlotNum(CCardInfoTmp.GetSlotNum());
; 601  : 			}
; 602  : 		}
; 603  : 	}
; 604  : }

  00075	8b e5		 mov	 esp, ebp
  00077	5d		 pop	 ebp
  00078	c2 04 00	 ret	 4
?CardSortAscending@CMuRummyMng@@QAEXPAVCMuRummyCardInfo@@@Z ENDP ; CMuRummyMng::CardSortAscending
_TEXT	ENDS
; Function compile flags: /Ogtp
; File c:\users\michel\desktop\source\gameserver\source\murummy.cpp
; File c:\users\michel\desktop\source\gameserver\source\murummy.h
; File c:\users\michel\desktop\source\gameserver\source\murummy.cpp
; File c:\users\michel\desktop\source\gameserver\source\murummy.h
; File c:\users\michel\desktop\source\gameserver\source\murummy.cpp
; File c:\users\michel\desktop\source\gameserver\source\murummy.h
; File c:\users\michel\desktop\source\gameserver\source\murummy.cpp
; File c:\users\michel\desktop\source\gameserver\source\murummy.h
; File c:\users\michel\desktop\source\gameserver\source\murummy.cpp
; File c:\users\michel\desktop\source\gameserver\source\murummy.h
; File c:\users\michel\desktop\source\gameserver\source\murummy.cpp
; File c:\users\michel\desktop\source\gameserver\source\murummy.h
; File c:\users\michel\desktop\source\gameserver\source\murummy.cpp
; File c:\users\michel\desktop\source\gameserver\source\murummy.h
; File c:\users\michel\desktop\source\gameserver\source\murummy.cpp
; File c:\users\michel\desktop\source\gameserver\source\murummy.h
; File c:\users\michel\desktop\source\gameserver\source\murummy.cpp
; File c:\users\michel\desktop\source\gameserver\source\murummy.h
; File c:\users\michel\desktop\source\gameserver\source\murummy.cpp
; File c:\users\michel\desktop\source\gameserver\source\murummy.h
; File c:\users\michel\desktop\source\gameserver\source\murummy.cpp
; File c:\users\michel\desktop\source\gameserver\source\murummy.h
; File c:\users\michel\desktop\source\gameserver\source\murummy.cpp
; File c:\users\michel\desktop\source\gameserver\source\murummy.h
; File c:\users\michel\desktop\source\gameserver\source\murummy.cpp
; File c:\users\michel\desktop\source\gameserver\source\murummy.h
; File c:\users\michel\desktop\source\gameserver\source\murummy.cpp
; File c:\users\michel\desktop\source\gameserver\source\murummy.h
; File c:\users\michel\desktop\source\gameserver\source\murummy.cpp
; File c:\users\michel\desktop\source\gameserver\source\murummy.h
; File c:\users\michel\desktop\source\gameserver\source\murummy.cpp
; File c:\users\michel\desktop\source\gameserver\source\murummy.h
; File c:\users\michel\desktop\source\gameserver\source\murummy.cpp
; File c:\users\michel\desktop\source\gameserver\source\murummy.h
; File c:\users\michel\desktop\source\gameserver\source\murummy.cpp
;	COMDAT ?CardMatchCheck@CMuRummyMng@@QAEEPAVCMuRummyInfo@@AAHPAU_tagMuRummyCardUpdateDS@@PAUOBJECTSTRUCT@@@Z
_TEXT	SEGMENT
_pOutCardUpdateDS$GSCopy$1$ = -80			; size = 4
_nRetCardColor$1$ = -76					; size = 4
_iOutScore$GSCopy$1$ = -72				; size = 4
_this$GSCopy$1$ = -68					; size = 4
_CCardInfoTmp$ = -64					; size = 48
__$ArrayPad$ = -16					; size = 4
__$EHRec$ = -12						; size = 12
_pCMuRummyInfo$ = 8					; size = 4
_iOutScore$ = 12					; size = 4
_pOutCardUpdateDS$ = 16					; size = 4
_obj$ = 20						; size = 4
?CardMatchCheck@CMuRummyMng@@QAEEPAVCMuRummyInfo@@AAHPAU_tagMuRummyCardUpdateDS@@PAUOBJECTSTRUCT@@@Z PROC ; CMuRummyMng::CardMatchCheck, COMDAT
; _this$ = ecx

; 456  : {

  00000	55		 push	 ebp
  00001	8b ec		 mov	 ebp, esp
  00003	6a ff		 push	 -1
  00005	68 00 00 00 00	 push	 __ehhandler$?CardMatchCheck@CMuRummyMng@@QAEEPAVCMuRummyInfo@@AAHPAU_tagMuRummyCardUpdateDS@@PAUOBJECTSTRUCT@@@Z
  0000a	64 a1 00 00 00
	00		 mov	 eax, DWORD PTR fs:0
  00010	50		 push	 eax
  00011	83 ec 44	 sub	 esp, 68			; 00000044H
  00014	a1 00 00 00 00	 mov	 eax, DWORD PTR ___security_cookie
  00019	33 c5		 xor	 eax, ebp
  0001b	89 45 f0	 mov	 DWORD PTR __$ArrayPad$[ebp], eax
  0001e	53		 push	 ebx
  0001f	56		 push	 esi
  00020	57		 push	 edi
  00021	50		 push	 eax
  00022	8d 45 f4	 lea	 eax, DWORD PTR __$EHRec$[ebp]
  00025	64 a3 00 00 00
	00		 mov	 DWORD PTR fs:0, eax
  0002b	89 4d bc	 mov	 DWORD PTR _this$GSCopy$1$[ebp], ecx
  0002e	8b 45 0c	 mov	 eax, DWORD PTR _iOutScore$[ebp]
  00031	8b 75 08	 mov	 esi, DWORD PTR _pCMuRummyInfo$[ebp]

; 457  : 	//Need recheck structure, maybe not valid return
; 458  : 
; 459  : 	CMuRummyCardInfo* pCCardInfo = pCMuRummyInfo->GetCardInfo();

  00034	8b ce		 mov	 ecx, esi
  00036	8b 5d 14	 mov	 ebx, DWORD PTR _obj$[ebp]
  00039	89 45 b8	 mov	 DWORD PTR _iOutScore$GSCopy$1$[ebp], eax
  0003c	8b 45 10	 mov	 eax, DWORD PTR _pOutCardUpdateDS$[ebp]
  0003f	89 45 b0	 mov	 DWORD PTR _pOutCardUpdateDS$GSCopy$1$[ebp], eax
  00042	e8 00 00 00 00	 call	 ?GetCardInfo@CMuRummyInfo@@QAEPAVCMuRummyCardInfo@@XZ ; CMuRummyInfo::GetCardInfo
  00047	8b f8		 mov	 edi, eax

; 460  : 	
; 461  : 	if (!pCCardInfo)

  00049	85 ff		 test	 edi, edi
  0004b	75 27		 jne	 SHORT $LN11@CardMatchC

; 462  : 	{
; 463  : 		LogAddTD("[MuRummy][Error] pCCardInfo is NULL [%s][%s] [%s, %d]", 

  0004d	68 d0 01 00 00	 push	 464			; 000001d0H
  00052	68 00 00 00 00	 push	 OFFSET ??_C@_0M@DEILNLI@MuRummy?4cpp?$AA@
  00057	8d 43 5d	 lea	 eax, DWORD PTR [ebx+93]
  0005a	50		 push	 eax
  0005b	8d 43 52	 lea	 eax, DWORD PTR [ebx+82]
  0005e	50		 push	 eax
  0005f	68 00 00 00 00	 push	 OFFSET ??_C@_0DG@KLOFMILL@?$FLMuRummy?$FN?$FLError?$FN?5pCCardInfo?5is?5N@
  00064	ff 15 00 00 00
	00		 call	 DWORD PTR ?LogAddTD@@3P6AXPADZZA ; LogAddTD
  0006a	83 c4 14	 add	 esp, 20			; 00000014H

; 464  : 			obj->AccountID, obj->Name, __FILE__, __LINE__);
; 465  : 		return -1;

  0006d	0c ff		 or	 al, 255			; 000000ffH
  0006f	e9 48 02 00 00	 jmp	 $LN1@CardMatchC
$LN11@CardMatchC:

; 466  : 	}
; 467  : 
; 468  : 	LPBYTE pSlotIndexInfo = pCMuRummyInfo->GetSlotIndexInfo();

  00074	8b ce		 mov	 ecx, esi
  00076	e8 00 00 00 00	 call	 ?GetSlotIndexInfo@CMuRummyInfo@@QAEPAEXZ ; CMuRummyInfo::GetSlotIndexInfo
  0007b	8b f0		 mov	 esi, eax

; 469  : 	
; 470  : 	if (!pSlotIndexInfo)

  0007d	85 f6		 test	 esi, esi
  0007f	75 27		 jne	 SHORT $LN12@CardMatchC

; 471  : 	{
; 472  : 		LogAddTD("[MuRummy][Error] pSlotIndexInfo is NULL [%s][%s] [%s, %d]",

  00081	68 d9 01 00 00	 push	 473			; 000001d9H
  00086	68 00 00 00 00	 push	 OFFSET ??_C@_0M@DEILNLI@MuRummy?4cpp?$AA@
  0008b	8d 43 5d	 lea	 eax, DWORD PTR [ebx+93]
  0008e	50		 push	 eax
  0008f	8d 43 52	 lea	 eax, DWORD PTR [ebx+82]
  00092	50		 push	 eax
  00093	68 00 00 00 00	 push	 OFFSET ??_C@_0DK@IJOPKODH@?$FLMuRummy?$FN?$FLError?$FN?5pSlotIndexInfo?5@
  00098	ff 15 00 00 00
	00		 call	 DWORD PTR ?LogAddTD@@3P6AXPADZZA ; LogAddTD
  0009e	83 c4 14	 add	 esp, 20			; 00000014H

; 473  : 			obj->AccountID, obj->Name, __FILE__, __LINE__);
; 474  : 		return -1;

  000a1	0c ff		 or	 al, 255			; 000000ffH
  000a3	e9 14 02 00 00	 jmp	 $LN1@CardMatchC
$LN12@CardMatchC:

; 475  : 	}
; 476  : 
; 477  : 	CMuRummyCardInfo CCardInfoTmp[3];

  000a8	68 00 00 00 00	 push	 OFFSET ??1CMuRummyCardInfo@@QAE@XZ ; CMuRummyCardInfo::~CMuRummyCardInfo
  000ad	68 00 00 00 00	 push	 OFFSET ??0CMuRummyCardInfo@@QAE@XZ ; CMuRummyCardInfo::CMuRummyCardInfo
  000b2	6a 03		 push	 3
  000b4	6a 10		 push	 16			; 00000010H
  000b6	8d 45 c0	 lea	 eax, DWORD PTR _CCardInfoTmp$[ebp]
  000b9	50		 push	 eax
  000ba	e8 00 00 00 00	 call	 ??_L@YGXPAXIIP6EX0@Z1@Z

; 483  : 		if (pSlotIndexInfo[nCnt] != (BYTE)-1)

  000bf	8a 46 05	 mov	 al, BYTE PTR [esi+5]
  000c2	33 d2		 xor	 edx, edx
  000c4	c7 45 fc 00 00
	00 00		 mov	 DWORD PTR __$EHRec$[ebp+8], 0
  000cb	3c ff		 cmp	 al, 255			; 000000ffH
  000cd	74 37		 je	 SHORT $LN2@CardMatchC

; 484  : 		{
; 485  : 			CCardInfoTmp[nChkCnt].SetColor(pCCardInfo[pSlotIndexInfo[nCnt]].GetColor());

  000cf	0f b6 c0	 movzx	 eax, al

; 489  : 			nChkCnt++;

  000d2	ba 01 00 00 00	 mov	 edx, 1
  000d7	03 c0		 add	 eax, eax
; File c:\users\michel\desktop\source\gameserver\source\murummy.h

; 12   :     void SetColor(int iColor) { this->m_iColor = iColor; };

  000d9	8b 04 c7	 mov	 eax, DWORD PTR [edi+eax*8]
  000dc	89 45 c0	 mov	 DWORD PTR _CCardInfoTmp$[ebp], eax
; File c:\users\michel\desktop\source\gameserver\source\murummy.cpp

; 486  : 			CCardInfoTmp[nChkCnt].SetNumber(pCCardInfo[pSlotIndexInfo[nCnt]].GetNumber());

  000df	0f b6 46 05	 movzx	 eax, BYTE PTR [esi+5]
  000e3	03 c0		 add	 eax, eax
; File c:\users\michel\desktop\source\gameserver\source\murummy.h

; 13   :     void SetNumber(int iNumber) { this->m_iNumber = iNumber; };

  000e5	8b 44 c7 04	 mov	 eax, DWORD PTR [edi+eax*8+4]
  000e9	89 45 c4	 mov	 DWORD PTR _CCardInfoTmp$[ebp+4], eax
; File c:\users\michel\desktop\source\gameserver\source\murummy.cpp

; 487  : 			CCardInfoTmp[nChkCnt].SetState(pCCardInfo[pSlotIndexInfo[nCnt]].GetState());

  000ec	0f b6 46 05	 movzx	 eax, BYTE PTR [esi+5]
  000f0	03 c0		 add	 eax, eax
; File c:\users\michel\desktop\source\gameserver\source\murummy.h

; 14   :     void SetState(int iState) { this->m_iState = iState; };

  000f2	8b 44 c7 08	 mov	 eax, DWORD PTR [edi+eax*8+8]
  000f6	89 45 c8	 mov	 DWORD PTR _CCardInfoTmp$[ebp+8], eax
; File c:\users\michel\desktop\source\gameserver\source\murummy.cpp

; 488  : 			CCardInfoTmp[nChkCnt].SetSlotNum(pCCardInfo[pSlotIndexInfo[nCnt]].GetSlotNum());

  000f9	0f b6 46 05	 movzx	 eax, BYTE PTR [esi+5]
  000fd	03 c0		 add	 eax, eax
; File c:\users\michel\desktop\source\gameserver\source\murummy.h

; 15   :     void SetSlotNum(int iSlotNum) { this->m_iSlotNum = iSlotNum; };

  000ff	8b 44 c7 0c	 mov	 eax, DWORD PTR [edi+eax*8+12]
  00103	89 45 cc	 mov	 DWORD PTR _CCardInfoTmp$[ebp+12], eax
$LN2@CardMatchC:
; File c:\users\michel\desktop\source\gameserver\source\murummy.cpp

; 483  : 		if (pSlotIndexInfo[nCnt] != (BYTE)-1)

  00106	8a 46 06	 mov	 al, BYTE PTR [esi+6]
  00109	3c ff		 cmp	 al, 255			; 000000ffH
  0010b	74 3b		 je	 SHORT $LN80@CardMatchC

; 484  : 		{
; 485  : 			CCardInfoTmp[nChkCnt].SetColor(pCCardInfo[pSlotIndexInfo[nCnt]].GetColor());

  0010d	0f b6 c0	 movzx	 eax, al
  00110	8b ca		 mov	 ecx, edx
  00112	03 c0		 add	 eax, eax
  00114	03 c9		 add	 ecx, ecx
; File c:\users\michel\desktop\source\gameserver\source\murummy.h

; 16   :     int GetColor() { return this->m_iColor; };

  00116	8b 04 c7	 mov	 eax, DWORD PTR [edi+eax*8]

; 12   :     void SetColor(int iColor) { this->m_iColor = iColor; };

  00119	89 44 cd c0	 mov	 DWORD PTR _CCardInfoTmp$[ebp+ecx*8], eax
; File c:\users\michel\desktop\source\gameserver\source\murummy.cpp

; 486  : 			CCardInfoTmp[nChkCnt].SetNumber(pCCardInfo[pSlotIndexInfo[nCnt]].GetNumber());

  0011d	0f b6 46 06	 movzx	 eax, BYTE PTR [esi+6]
  00121	03 c0		 add	 eax, eax
; File c:\users\michel\desktop\source\gameserver\source\murummy.h

; 17   :     int GetNumber() { return this->m_iNumber; };

  00123	8b 44 c7 04	 mov	 eax, DWORD PTR [edi+eax*8+4]

; 13   :     void SetNumber(int iNumber) { this->m_iNumber = iNumber; };

  00127	89 44 cd c4	 mov	 DWORD PTR _CCardInfoTmp$[ebp+ecx*8+4], eax
; File c:\users\michel\desktop\source\gameserver\source\murummy.cpp

; 487  : 			CCardInfoTmp[nChkCnt].SetState(pCCardInfo[pSlotIndexInfo[nCnt]].GetState());

  0012b	0f b6 46 06	 movzx	 eax, BYTE PTR [esi+6]
  0012f	03 c0		 add	 eax, eax
; File c:\users\michel\desktop\source\gameserver\source\murummy.h

; 18   :     int GetState() { return this->m_iState; };

  00131	8b 44 c7 08	 mov	 eax, DWORD PTR [edi+eax*8+8]

; 14   :     void SetState(int iState) { this->m_iState = iState; };

  00135	89 44 cd c8	 mov	 DWORD PTR _CCardInfoTmp$[ebp+ecx*8+8], eax
; File c:\users\michel\desktop\source\gameserver\source\murummy.cpp

; 488  : 			CCardInfoTmp[nChkCnt].SetSlotNum(pCCardInfo[pSlotIndexInfo[nCnt]].GetSlotNum());

  00139	0f b6 46 06	 movzx	 eax, BYTE PTR [esi+6]
  0013d	03 c0		 add	 eax, eax

; 489  : 			nChkCnt++;

  0013f	42		 inc	 edx
; File c:\users\michel\desktop\source\gameserver\source\murummy.h

; 19   :     int GetSlotNum() { return this->m_iSlotNum; };

  00140	8b 44 c7 0c	 mov	 eax, DWORD PTR [edi+eax*8+12]

; 15   :     void SetSlotNum(int iSlotNum) { this->m_iSlotNum = iSlotNum; };

  00144	89 44 cd cc	 mov	 DWORD PTR _CCardInfoTmp$[ebp+ecx*8+12], eax
$LN80@CardMatchC:
; File c:\users\michel\desktop\source\gameserver\source\murummy.cpp

; 483  : 		if (pSlotIndexInfo[nCnt] != (BYTE)-1)

  00148	8a 46 07	 mov	 al, BYTE PTR [esi+7]
  0014b	3c ff		 cmp	 al, 255			; 000000ffH
  0014d	74 3b		 je	 SHORT $LN82@CardMatchC

; 484  : 		{
; 485  : 			CCardInfoTmp[nChkCnt].SetColor(pCCardInfo[pSlotIndexInfo[nCnt]].GetColor());

  0014f	0f b6 c0	 movzx	 eax, al
  00152	8b ca		 mov	 ecx, edx
  00154	03 c0		 add	 eax, eax
  00156	03 c9		 add	 ecx, ecx
; File c:\users\michel\desktop\source\gameserver\source\murummy.h

; 16   :     int GetColor() { return this->m_iColor; };

  00158	8b 04 c7	 mov	 eax, DWORD PTR [edi+eax*8]

; 12   :     void SetColor(int iColor) { this->m_iColor = iColor; };

  0015b	89 44 cd c0	 mov	 DWORD PTR _CCardInfoTmp$[ebp+ecx*8], eax
; File c:\users\michel\desktop\source\gameserver\source\murummy.cpp

; 486  : 			CCardInfoTmp[nChkCnt].SetNumber(pCCardInfo[pSlotIndexInfo[nCnt]].GetNumber());

  0015f	0f b6 46 07	 movzx	 eax, BYTE PTR [esi+7]
  00163	03 c0		 add	 eax, eax
; File c:\users\michel\desktop\source\gameserver\source\murummy.h

; 17   :     int GetNumber() { return this->m_iNumber; };

  00165	8b 44 c7 04	 mov	 eax, DWORD PTR [edi+eax*8+4]

; 13   :     void SetNumber(int iNumber) { this->m_iNumber = iNumber; };

  00169	89 44 cd c4	 mov	 DWORD PTR _CCardInfoTmp$[ebp+ecx*8+4], eax
; File c:\users\michel\desktop\source\gameserver\source\murummy.cpp

; 487  : 			CCardInfoTmp[nChkCnt].SetState(pCCardInfo[pSlotIndexInfo[nCnt]].GetState());

  0016d	0f b6 46 07	 movzx	 eax, BYTE PTR [esi+7]
  00171	03 c0		 add	 eax, eax
; File c:\users\michel\desktop\source\gameserver\source\murummy.h

; 18   :     int GetState() { return this->m_iState; };

  00173	8b 44 c7 08	 mov	 eax, DWORD PTR [edi+eax*8+8]

; 14   :     void SetState(int iState) { this->m_iState = iState; };

  00177	89 44 cd c8	 mov	 DWORD PTR _CCardInfoTmp$[ebp+ecx*8+8], eax
; File c:\users\michel\desktop\source\gameserver\source\murummy.cpp

; 488  : 			CCardInfoTmp[nChkCnt].SetSlotNum(pCCardInfo[pSlotIndexInfo[nCnt]].GetSlotNum());

  0017b	0f b6 46 07	 movzx	 eax, BYTE PTR [esi+7]
  0017f	03 c0		 add	 eax, eax

; 489  : 			nChkCnt++;

  00181	42		 inc	 edx
; File c:\users\michel\desktop\source\gameserver\source\murummy.h

; 19   :     int GetSlotNum() { return this->m_iSlotNum; };

  00182	8b 44 c7 0c	 mov	 eax, DWORD PTR [edi+eax*8+12]

; 15   :     void SetSlotNum(int iSlotNum) { this->m_iSlotNum = iSlotNum; };

  00186	89 44 cd cc	 mov	 DWORD PTR _CCardInfoTmp$[ebp+ecx*8+12], eax
$LN82@CardMatchC:
; File c:\users\michel\desktop\source\gameserver\source\murummy.cpp

; 493  : 	if (nChkCnt != 3)

  0018a	83 fa 03	 cmp	 edx, 3
  0018d	74 08		 je	 SHORT $LN14@CardMatchC
  0018f	80 cb ff	 or	 bl, 255			; 000000ffH
  00192	e9 0a 01 00 00	 jmp	 $LN31@CardMatchC
$LN14@CardMatchC:

; 494  : 	{
; 495  : 		return -1;
; 496  : 	}
; 497  : 
; 498  : 	this->Slot3Log(obj, 1);

  00197	8b 4d bc	 mov	 ecx, DWORD PTR _this$GSCopy$1$[ebp]
  0019a	6a 01		 push	 1
  0019c	53		 push	 ebx
  0019d	e8 00 00 00 00	 call	 ?Slot3Log@CMuRummyMng@@QAEXPAUOBJECTSTRUCT@@H@Z ; CMuRummyMng::Slot3Log

; 499  : 	int nRetCardColor = this->IsCardSameColor(CCardInfoTmp);

  001a2	8b 4d bc	 mov	 ecx, DWORD PTR _this$GSCopy$1$[ebp]
  001a5	8d 45 c0	 lea	 eax, DWORD PTR _CCardInfoTmp$[ebp]
  001a8	50		 push	 eax
  001a9	e8 00 00 00 00	 call	 ?IsCardSameColor@CMuRummyMng@@QAEHPAVCMuRummyCardInfo@@@Z ; CMuRummyMng::IsCardSameColor

; 500  : 	int nRetCardNum = this->IsCardNumber(CCardInfoTmp);

  001ae	8b 4d bc	 mov	 ecx, DWORD PTR _this$GSCopy$1$[ebp]
  001b1	89 45 b4	 mov	 DWORD PTR _nRetCardColor$1$[ebp], eax
  001b4	8d 45 c0	 lea	 eax, DWORD PTR _CCardInfoTmp$[ebp]
  001b7	50		 push	 eax
  001b8	e8 00 00 00 00	 call	 ?IsCardNumber@CMuRummyMng@@QAEHPAVCMuRummyCardInfo@@@Z ; CMuRummyMng::IsCardNumber

; 501  : 
; 502  : 	if (nRetCardColor == 1 && nRetCardNum == 3)

  001bd	8b 4d b4	 mov	 ecx, DWORD PTR _nRetCardColor$1$[ebp]
  001c0	83 f9 01	 cmp	 ecx, 1
  001c3	75 1d		 jne	 SHORT $LN15@CardMatchC
  001c5	83 f8 03	 cmp	 eax, 3
  001c8	75 08		 jne	 SHORT $LN85@CardMatchC

; 503  : 	{
; 504  : 		iOutScore = 10 * (CCardInfoTmp->GetNumber() - 1) + 10;

  001ca	8b 45 c4	 mov	 eax, DWORD PTR _CCardInfoTmp$[ebp+4]
  001cd	8d 04 80	 lea	 eax, DWORD PTR [eax+eax*4]

; 505  : 	}
; 506  : 
; 507  : 	if (nRetCardColor == 2 && nRetCardNum == 3)

  001d0	eb 23		 jmp	 SHORT $LN89@CardMatchC
$LN85@CardMatchC:

; 510  : 	}
; 511  : 
; 512  : 	if (nRetCardColor == 1 && nRetCardNum == 4)

  001d2	83 f8 04	 cmp	 eax, 4
  001d5	75 25		 jne	 SHORT $LN17@CardMatchC

; 513  : 	{
; 514  : 		iOutScore = 10 * (CCardInfoTmp->GetNumber() - 1) + 20;

  001d7	8b 45 c4	 mov	 eax, DWORD PTR _CCardInfoTmp$[ebp+4]
  001da	8d 04 80	 lea	 eax, DWORD PTR [eax+eax*4]
  001dd	83 c0 05	 add	 eax, 5
  001e0	eb 13		 jmp	 SHORT $LN89@CardMatchC
$LN15@CardMatchC:

; 505  : 	}
; 506  : 
; 507  : 	if (nRetCardColor == 2 && nRetCardNum == 3)

  001e2	83 f9 02	 cmp	 ecx, 2
  001e5	75 15		 jne	 SHORT $LN17@CardMatchC
  001e7	83 f8 03	 cmp	 eax, 3
  001ea	75 10		 jne	 SHORT $LN17@CardMatchC

; 508  : 	{
; 509  : 		iOutScore = 10 * (CCardInfoTmp->GetNumber() - 1) + 50;

  001ec	8b 45 c4	 mov	 eax, DWORD PTR _CCardInfoTmp$[ebp+4]
  001ef	8d 04 80	 lea	 eax, DWORD PTR [eax+eax*4]
  001f2	83 c0 14	 add	 eax, 20			; 00000014H
$LN89@CardMatchC:
  001f5	8b 4d b8	 mov	 ecx, DWORD PTR _iOutScore$GSCopy$1$[ebp]
  001f8	03 c0		 add	 eax, eax
  001fa	89 01		 mov	 DWORD PTR [ecx], eax
$LN17@CardMatchC:

; 515  : 	}
; 516  : 
; 517  : 	int iCnt = 0;

  001fc	8b 55 b0	 mov	 edx, DWORD PTR _pOutCardUpdateDS$GSCopy$1$[ebp]

; 518  : 
; 519  :     for (int i = 5; i < MURUMMY_MAX_SLOT; i++)

  001ff	b9 05 00 00 00	 mov	 ecx, 5
  00204	83 c2 02	 add	 edx, 2
$LL7@CardMatchC:

; 520  :     {
; 521  : 		if (pSlotIndexInfo[i] == (BYTE)-1 )

  00207	8a 04 31	 mov	 al, BYTE PTR [ecx+esi]
  0020a	3c ff		 cmp	 al, 255			; 000000ffH
  0020c	74 49		 je	 SHORT $LN5@CardMatchC

; 522  : 		{
; 523  : 			continue;
; 524  : 		}
; 525  : 
; 526  : 		if (pSlotIndexInfo[i] < 0 || pSlotIndexInfo[i] > MURUMMY_MAX_CARD - 1)

  0020e	3c 17		 cmp	 al, 23			; 00000017H
  00210	0f 87 c4 00 00
	00		 ja	 $LN67@CardMatchC

; 531  : 		}
; 532  : 
; 533  :         pCCardInfo[pSlotIndexInfo[i]].SetSlotNum( -1);

  00216	0f b6 c0	 movzx	 eax, al
  00219	03 c0		 add	 eax, eax
; File c:\users\michel\desktop\source\gameserver\source\murummy.h

; 15   :     void SetSlotNum(int iSlotNum) { this->m_iSlotNum = iSlotNum; };

  0021b	c7 44 c7 0c ff
	ff ff ff	 mov	 DWORD PTR [edi+eax*8+12], -1
; File c:\users\michel\desktop\source\gameserver\source\murummy.cpp

; 534  :         pCCardInfo[pSlotIndexInfo[i]].SetState(3);

  00223	0f b6 04 31	 movzx	 eax, BYTE PTR [ecx+esi]
  00227	03 c0		 add	 eax, eax
; File c:\users\michel\desktop\source\gameserver\source\murummy.h

; 14   :     void SetState(int iState) { this->m_iState = iState; };

  00229	c7 44 c7 08 03
	00 00 00	 mov	 DWORD PTR [edi+eax*8+8], 3
; File c:\users\michel\desktop\source\gameserver\source\murummy.cpp

; 538  : 		pOutCardUpdateDS[iCnt].btSeq = pSlotIndexInfo[i];

  00231	8a 04 31	 mov	 al, BYTE PTR [ecx+esi]
  00234	88 42 ff	 mov	 BYTE PTR [edx-1], al

; 539  :         pOutCardUpdateDS[iCnt].btSlotNum = pCCardInfo[pSlotIndexInfo[i]].GetSlotNum();

  00237	0f b6 04 31	 movzx	 eax, BYTE PTR [ecx+esi]
  0023b	03 c0		 add	 eax, eax
; File c:\users\michel\desktop\source\gameserver\source\murummy.h

; 19   :     int GetSlotNum() { return this->m_iSlotNum; };

  0023d	8b 44 c7 0c	 mov	 eax, DWORD PTR [edi+eax*8+12]
; File c:\users\michel\desktop\source\gameserver\source\murummy.cpp

; 539  :         pOutCardUpdateDS[iCnt].btSlotNum = pCCardInfo[pSlotIndexInfo[i]].GetSlotNum();

  00241	88 42 fe	 mov	 BYTE PTR [edx-2], al

; 540  :         pOutCardUpdateDS[iCnt].btStatus = pCCardInfo[pSlotIndexInfo[i]].GetState();

  00244	0f b6 04 31	 movzx	 eax, BYTE PTR [ecx+esi]
  00248	03 c0		 add	 eax, eax
; File c:\users\michel\desktop\source\gameserver\source\murummy.h

; 18   :     int GetState() { return this->m_iState; };

  0024a	8b 44 c7 08	 mov	 eax, DWORD PTR [edi+eax*8+8]
; File c:\users\michel\desktop\source\gameserver\source\murummy.cpp

; 540  :         pOutCardUpdateDS[iCnt].btStatus = pCCardInfo[pSlotIndexInfo[i]].GetState();

  0024e	88 02		 mov	 BYTE PTR [edx], al

; 541  : 
; 542  :         pSlotIndexInfo[i] = -1;
; 543  : 		iCnt++;

  00250	83 c2 03	 add	 edx, 3
  00253	c6 04 31 ff	 mov	 BYTE PTR [ecx+esi], 255	; 000000ffH
$LN5@CardMatchC:

; 518  : 
; 519  :     for (int i = 5; i < MURUMMY_MAX_SLOT; i++)

  00257	41		 inc	 ecx
  00258	83 f9 08	 cmp	 ecx, 8
  0025b	7c aa		 jl	 SHORT $LL7@CardMatchC

; 544  : 	}
; 545  : 
; 546  : 	int nSlotNum = 5;

  0025d	ba 05 00 00 00	 mov	 edx, 5

; 547  : 
; 548  : 	for (int n = 0; n < 5; n++)

  00262	33 c9		 xor	 ecx, ecx
$LL10@CardMatchC:

; 549  : 	{
; 550  : 		if (pSlotIndexInfo[n] != (BYTE)-1 )

  00264	80 3c 31 ff	 cmp	 BYTE PTR [ecx+esi], 255	; 000000ffH
  00268	75 2f		 jne	 SHORT $LN8@CardMatchC

; 551  : 		{
; 552  : 			continue;
; 553  : 		}
; 554  : 
; 555  : 		if (nSlotNum < 0 || nSlotNum > MURUMMY_MAX_SLOT - 1)

  0026a	85 d2		 test	 edx, edx
  0026c	0f 88 b2 00 00
	00		 js	 $LN23@CardMatchC
  00272	83 fa 07	 cmp	 edx, 7
  00275	0f 8f a9 00 00
	00		 jg	 $LN23@CardMatchC

; 556  : 		{
; 557  : 			return -2;
; 558  : 		}
; 559  : 
; 560  : 		pSlotIndexInfo[n] = pSlotIndexInfo[nSlotNum];

  0027b	8a 04 32	 mov	 al, BYTE PTR [edx+esi]
  0027e	88 04 31	 mov	 BYTE PTR [ecx+esi], al

; 561  : 
; 562  : 		if (pSlotIndexInfo[n] < 0 || pSlotIndexInfo[n] > MURUMMY_MAX_CARD - 1)

  00281	3c 17		 cmp	 al, 23			; 00000017H

; 567  : 		}
; 568  : 		
; 569  : 		pCCardInfo[pSlotIndexInfo[n]].SetSlotNum(n);

  00283	0f b6 c0	 movzx	 eax, al
  00286	0f 87 77 00 00
	00		 ja	 $LN69@CardMatchC
  0028c	c1 e0 04	 shl	 eax, 4
  0028f	03 c7		 add	 eax, edi
; File c:\users\michel\desktop\source\gameserver\source\murummy.h

; 15   :     void SetSlotNum(int iSlotNum) { this->m_iSlotNum = iSlotNum; };

  00291	89 48 0c	 mov	 DWORD PTR [eax+12], ecx
; File c:\users\michel\desktop\source\gameserver\source\murummy.cpp

; 570  : 		pSlotIndexInfo[nSlotNum] = -1;

  00294	c6 04 32 ff	 mov	 BYTE PTR [edx+esi], 255	; 000000ffH

; 571  : 		nSlotNum++;

  00298	42		 inc	 edx
$LN8@CardMatchC:

; 547  : 
; 548  : 	for (int n = 0; n < 5; n++)

  00299	41		 inc	 ecx
  0029a	83 f9 05	 cmp	 ecx, 5
  0029d	7c c5		 jl	 SHORT $LL10@CardMatchC

; 572  : 	}
; 573  : 
; 574  : 	return 0;

  0029f	32 db		 xor	 bl, bl
$LN31@CardMatchC:
  002a1	68 00 00 00 00	 push	 OFFSET ??1CMuRummyCardInfo@@QAE@XZ ; CMuRummyCardInfo::~CMuRummyCardInfo
  002a6	6a 03		 push	 3
  002a8	6a 10		 push	 16			; 00000010H
  002aa	8d 45 c0	 lea	 eax, DWORD PTR _CCardInfoTmp$[ebp]
  002ad	c7 45 fc ff ff
	ff ff		 mov	 DWORD PTR __$EHRec$[ebp+8], -1
  002b4	50		 push	 eax
  002b5	e8 00 00 00 00	 call	 ??_M@YGXPAXIIP6EX0@Z@Z
  002ba	8a c3		 mov	 al, bl
$LN1@CardMatchC:

; 575  : }

  002bc	8b 4d f4	 mov	 ecx, DWORD PTR __$EHRec$[ebp]
  002bf	64 89 0d 00 00
	00 00		 mov	 DWORD PTR fs:0, ecx
  002c6	59		 pop	 ecx
  002c7	5f		 pop	 edi
  002c8	5e		 pop	 esi
  002c9	5b		 pop	 ebx
  002ca	8b 4d f0	 mov	 ecx, DWORD PTR __$ArrayPad$[ebp]
  002cd	33 cd		 xor	 ecx, ebp
