; Listing generated by Microsoft (R) Optimizing Compiler Version 19.00.23506.0 

	TITLE	C:\Users\Michel\Desktop\Source\GameServer\Source\Notice.cpp
	.686P
	.XMM
	include listing.inc
	.model	flat

INCLUDELIB LIBCMT
INCLUDELIB OLDNAMES

PUBLIC	?__empty_global_delete@@YAXPAX@Z		; __empty_global_delete
PUBLIC	?__empty_global_delete@@YAXPAXI@Z		; __empty_global_delete
PUBLIC	??0Notice@@QAE@XZ				; Notice::Notice
PUBLIC	??1Notice@@UAE@XZ				; Notice::~Notice
PUBLIC	?Init@Notice@@QAEXXZ				; Notice::Init
PUBLIC	?Load@Notice@@QAEXXZ				; Notice::Load
PUBLIC	?Read@Notice@@QAEXPAD@Z				; Notice::Read
PUBLIC	?Create@Notice@@QAEXPAEEPAD@Z			; Notice::Create
PUBLIC	?SendOnConnect@Notice@@QAEXH@Z			; Notice::SendOnConnect
PUBLIC	?SendOnPoint@Notice@@QAEXXZ			; Notice::SendOnPoint
PUBLIC	?allocate@?$allocator@UNoticeConnectInfo@@@std@@QAEPAUNoticeConnectInfo@@I@Z ; std::allocator<NoticeConnectInfo>::allocate
PUBLIC	?deallocate@?$_Wrap_alloc@V?$allocator@UNoticeConnectInfo@@@std@@@std@@QAEXPAUNoticeConnectInfo@@I@Z ; std::_Wrap_alloc<std::allocator<NoticeConnectInfo> >::deallocate
PUBLIC	?push_back@?$vector@UNoticeConnectInfo@@V?$allocator@UNoticeConnectInfo@@@std@@@std@@QAEXABUNoticeConnectInfo@@@Z ; std::vector<NoticeConnectInfo,std::allocator<NoticeConnectInfo> >::push_back
PUBLIC	?_Reallocate@?$vector@UNoticeConnectInfo@@V?$allocator@UNoticeConnectInfo@@@std@@@std@@IAEXI@Z ; std::vector<NoticeConnectInfo,std::allocator<NoticeConnectInfo> >::_Reallocate
PUBLIC	?_Reserve@?$vector@UNoticeConnectInfo@@V?$allocator@UNoticeConnectInfo@@@std@@@std@@IAEXI@Z ; std::vector<NoticeConnectInfo,std::allocator<NoticeConnectInfo> >::_Reserve
PUBLIC	?allocate@?$allocator@UNoticeRotateInfo@@@std@@QAEPAUNoticeRotateInfo@@I@Z ; std::allocator<NoticeRotateInfo>::allocate
PUBLIC	?deallocate@?$_Wrap_alloc@V?$allocator@UNoticeRotateInfo@@@std@@@std@@QAEXPAUNoticeRotateInfo@@I@Z ; std::_Wrap_alloc<std::allocator<NoticeRotateInfo> >::deallocate
PUBLIC	?_Reallocate@?$vector@UNoticeRotateInfo@@V?$allocator@UNoticeRotateInfo@@@std@@@std@@IAEXI@Z ; std::vector<NoticeRotateInfo,std::allocator<NoticeRotateInfo> >::_Reallocate
PUBLIC	?_Reserve@?$vector@UNoticeRotateInfo@@V?$allocator@UNoticeRotateInfo@@@std@@@std@@IAEXI@Z ; std::vector<NoticeRotateInfo,std::allocator<NoticeRotateInfo> >::_Reserve
PUBLIC	??_GNotice@@UAEPAXI@Z				; Notice::`scalar deleting destructor'
PUBLIC	??1OBJECTSTRUCT@@QAE@XZ				; OBJECTSTRUCT::~OBJECTSTRUCT
PUBLIC	??_EOBJECTSTRUCT@@QAEPAXI@Z			; OBJECTSTRUCT::`vector deleting destructor'
PUBLIC	??$_Uninit_move@PAUNoticeRotateInfo@@PAU1@V?$allocator@UNoticeRotateInfo@@@std@@U1@@std@@YAPAUNoticeRotateInfo@@PAU1@00AAU?$_Wrap_alloc@V?$allocator@UNoticeRotateInfo@@@std@@@0@0U_Nonscalar_ptr_iterator_tag@0@@Z ; std::_Uninit_move<NoticeRotateInfo *,NoticeRotateInfo *,std::allocator<NoticeRotateInfo>,NoticeRotateInfo>
PUBLIC	??$_Uninit_move@PAUNoticeConnectInfo@@PAU1@V?$allocator@UNoticeConnectInfo@@@std@@U1@@std@@YAPAUNoticeConnectInfo@@PAU1@00AAU?$_Wrap_alloc@V?$allocator@UNoticeConnectInfo@@@std@@@0@0U_Nonscalar_ptr_iterator_tag@0@@Z ; std::_Uninit_move<NoticeConnectInfo *,NoticeConnectInfo *,std::allocator<NoticeConnectInfo>,NoticeConnectInfo>
PUBLIC	??_C@_00CNPNBAHC@?$AA@				; `string'
PUBLIC	??_7Notice@@6B@					; Notice::`vftable'
PUBLIC	?g_Notice@@3VNotice@@A				; g_Notice
PUBLIC	??_C@_0BC@PFPPHIBL@Custom?2Notice?4xml?$AA@	; `string'
PUBLIC	??_C@_0BM@LALPKKLG@?$FLNotice?$FN?5File?5?$CFs?5not?5found?$CB?$AA@ ; `string'
PUBLIC	??_C@_06FINPLOKL@notice?$AA@			; `string'
PUBLIC	??_C@_07KAIBNCHO@connect?$AA@			; `string'
PUBLIC	??_C@_06CEHMNFAL@rotate?$AA@			; `string'
PUBLIC	??_C@_07ONPBMBOP@message?$AA@			; `string'
PUBLIC	??_C@_04GPMDFGEJ@type?$AA@			; `string'
PUBLIC	??_C@_05EKJCMADO@delay?$AA@			; `string'
PUBLIC	??_C@_08MEBDPAPN@?$FLNotice?$FN?$AA@		; `string'
PUBLIC	??_C@_0BD@OLBABOEK@vector?$DMT?$DO?5too?5long?$AA@ ; `string'
PUBLIC	??_R4Notice@@6B@				; Notice::`RTTI Complete Object Locator'
PUBLIC	??_R0?AVNotice@@@8				; Notice `RTTI Type Descriptor'
PUBLIC	??_R3Notice@@8					; Notice::`RTTI Class Hierarchy Descriptor'
PUBLIC	??_R2Notice@@8					; Notice::`RTTI Base Class Array'
PUBLIC	??_R1A@?0A@EA@Notice@@8				; Notice::`RTTI Base Class Descriptor at (0,-1,0,64)'
EXTRN	??_M@YGXPAXIIP6EX0@Z@Z:PROC			; `eh vector destructor iterator'
EXTRN	??2@YAPAXI@Z:PROC				; operator new
EXTRN	??3@YAXPAX@Z:PROC				; operator delete
EXTRN	??3@YAXPAXI@Z:PROC				; operator delete
EXTRN	??_V@YAXPAXI@Z:PROC				; operator delete[]
EXTRN	_atexit:PROC
EXTRN	__invalid_parameter_noinfo_noreturn:PROC
EXTRN	__imp__GetTickCount@0:PROC
EXTRN	?_Xbad_alloc@std@@YAXXZ:PROC			; std::_Xbad_alloc
EXTRN	?_Xlength_error@std@@YAXPBD@Z:PROC		; std::_Xlength_error
EXTRN	??_ENotice@@UAEPAXI@Z:PROC			; Notice::`vector deleting destructor'
EXTRN	?GetNewPath@CDirPath@@QAEPADPAD@Z:PROC		; CDirPath::GetNewPath
EXTRN	??1CSkillDelay@@UAE@XZ:PROC			; CSkillDelay::~CSkillDelay
EXTRN	?MsgBox@@YAXPADZZ:PROC				; MsgBox
EXTRN	?DataSend@@YAHHPAEK@Z:PROC			; DataSend
EXTRN	??1TMonsterAIAgro@@UAE@XZ:PROC			; TMonsterAIAgro::~TMonsterAIAgro
EXTRN	?as_int@xml_attribute@pugi@@QBEHH@Z:PROC	; pugi::xml_attribute::as_int
EXTRN	??0xml_node@pugi@@QAE@XZ:PROC			; pugi::xml_node::xml_node
EXTRN	??Bxml_node@pugi@@QBEP6AXPAPAPAV01@@ZXZ:PROC	; pugi::xml_node::operator void (__cdecl*)(pugi::xml_node * * *)
EXTRN	?next_sibling@xml_node@pugi@@QBE?AV12@XZ:PROC	; pugi::xml_node::next_sibling
EXTRN	?text@xml_node@pugi@@QBE?AVxml_text@2@XZ:PROC	; pugi::xml_node::text
EXTRN	?child@xml_node@pugi@@QBE?AV12@PBD@Z:PROC	; pugi::xml_node::child
EXTRN	?attribute@xml_node@pugi@@QBE?AVxml_attribute@2@PBD@Z:PROC ; pugi::xml_node::attribute
EXTRN	?as_string@xml_text@pugi@@QBEPBDPBD@Z:PROC	; pugi::xml_text::as_string
EXTRN	??0xml_document@pugi@@QAE@XZ:PROC		; pugi::xml_document::xml_document
EXTRN	??1xml_document@pugi@@QAE@XZ:PROC		; pugi::xml_document::~xml_document
EXTRN	?load_file@xml_document@pugi@@QAE?AUxml_parse_result@2@PBDIW4xml_encoding@2@@Z:PROC ; pugi::xml_document::load_file
EXTRN	?PHeadSetB@@YAXPAEEH@Z:PROC			; PHeadSetB
EXTRN	?MakeNoticeMsg@TNotice@@SAXPAXEPAD@Z:PROC	; TNotice::MakeNoticeMsg
EXTRN	@__security_check_cookie@4:PROC
EXTRN	__CxxThrowException@8:PROC
EXTRN	___CxxFrameHandler3:PROC
EXTRN	_memset:PROC
EXTRN	??_7type_info@@6B@:QWORD			; type_info::`vftable'
EXTRN	?gObj@@3PAUOBJECTSTRUCT@@A:DWORD		; gObj
EXTRN	?gDirPath@@3VCDirPath@@A:BYTE			; gDirPath
EXTRN	___security_cookie:DWORD
_BSS	SEGMENT
?g_Notice@@3VNotice@@A DB 01cH DUP (?)			; g_Notice
_BSS	ENDS
CRT$XCU	SEGMENT
?g_Notice$initializer$@@3P6AXXZA DD FLAT:??__Eg_Notice@@YAXXZ ; g_Notice$initializer$
CRT$XCU	ENDS
;	COMDAT ??_R1A@?0A@EA@Notice@@8
rdata$r	SEGMENT
??_R1A@?0A@EA@Notice@@8 DD FLAT:??_R0?AVNotice@@@8	; Notice::`RTTI Base Class Descriptor at (0,-1,0,64)'
	DD	00H
	DD	00H
	DD	0ffffffffH
	DD	00H
	DD	040H
	DD	FLAT:??_R3Notice@@8
rdata$r	ENDS
;	COMDAT ??_R2Notice@@8
rdata$r	SEGMENT
??_R2Notice@@8 DD FLAT:??_R1A@?0A@EA@Notice@@8		; Notice::`RTTI Base Class Array'
rdata$r	ENDS
;	COMDAT ??_R3Notice@@8
rdata$r	SEGMENT
??_R3Notice@@8 DD 00H					; Notice::`RTTI Class Hierarchy Descriptor'
	DD	00H
	DD	01H
	DD	FLAT:??_R2Notice@@8
rdata$r	ENDS
;	COMDAT ??_R0?AVNotice@@@8
data$r	SEGMENT
??_R0?AVNotice@@@8 DD FLAT:??_7type_info@@6B@		; Notice `RTTI Type Descriptor'
	DD	00H
	DB	'.?AVNotice@@', 00H
data$r	ENDS
;	COMDAT ??_R4Notice@@6B@
rdata$r	SEGMENT
??_R4Notice@@6B@ DD 00H					; Notice::`RTTI Complete Object Locator'
	DD	00H
	DD	00H
	DD	FLAT:??_R0?AVNotice@@@8
	DD	FLAT:??_R3Notice@@8
rdata$r	ENDS
;	COMDAT ??_C@_0BD@OLBABOEK@vector?$DMT?$DO?5too?5long?$AA@
CONST	SEGMENT
??_C@_0BD@OLBABOEK@vector?$DMT?$DO?5too?5long?$AA@ DB 'vector<T> too long'
	DB	00H						; `string'
CONST	ENDS
;	COMDAT ??_C@_08MEBDPAPN@?$FLNotice?$FN?$AA@
CONST	SEGMENT
??_C@_08MEBDPAPN@?$FLNotice?$FN?$AA@ DB '[Notice]', 00H	; `string'
CONST	ENDS
;	COMDAT ??_C@_05EKJCMADO@delay?$AA@
CONST	SEGMENT
??_C@_05EKJCMADO@delay?$AA@ DB 'delay', 00H		; `string'
CONST	ENDS
;	COMDAT ??_C@_04GPMDFGEJ@type?$AA@
CONST	SEGMENT
??_C@_04GPMDFGEJ@type?$AA@ DB 'type', 00H		; `string'
CONST	ENDS
;	COMDAT ??_C@_07ONPBMBOP@message?$AA@
CONST	SEGMENT
??_C@_07ONPBMBOP@message?$AA@ DB 'message', 00H		; `string'
CONST	ENDS
;	COMDAT ??_C@_06CEHMNFAL@rotate?$AA@
CONST	SEGMENT
??_C@_06CEHMNFAL@rotate?$AA@ DB 'rotate', 00H		; `string'
CONST	ENDS
;	COMDAT ??_C@_07KAIBNCHO@connect?$AA@
CONST	SEGMENT
??_C@_07KAIBNCHO@connect?$AA@ DB 'connect', 00H		; `string'
CONST	ENDS
;	COMDAT ??_C@_06FINPLOKL@notice?$AA@
CONST	SEGMENT
??_C@_06FINPLOKL@notice?$AA@ DB 'notice', 00H		; `string'
CONST	ENDS
;	COMDAT ??_C@_0BM@LALPKKLG@?$FLNotice?$FN?5File?5?$CFs?5not?5found?$CB?$AA@
CONST	SEGMENT
??_C@_0BM@LALPKKLG@?$FLNotice?$FN?5File?5?$CFs?5not?5found?$CB?$AA@ DB '['
	DB	'Notice] File %s not found!', 00H		; `string'
CONST	ENDS
;	COMDAT ??_C@_0BC@PFPPHIBL@Custom?2Notice?4xml?$AA@
CONST	SEGMENT
??_C@_0BC@PFPPHIBL@Custom?2Notice?4xml?$AA@ DB 'Custom\Notice.xml', 00H ; `string'
CONST	ENDS
;	COMDAT ??_7Notice@@6B@
CONST	SEGMENT
??_7Notice@@6B@ DD FLAT:??_R4Notice@@6B@		; Notice::`vftable'
	DD	FLAT:??_ENotice@@UAEPAXI@Z
CONST	ENDS
;	COMDAT ??_C@_00CNPNBAHC@?$AA@
CONST	SEGMENT
??_C@_00CNPNBAHC@?$AA@ DB 00H				; `string'
CONST	ENDS
;	COMDAT xdata$x
xdata$x	SEGMENT
__ehfuncinfo$??_EOBJECTSTRUCT@@QAEPAXI@Z DD 019930522H
	DD	00H
	DD	00H
	DD	2 DUP(00H)
	DD	2 DUP(00H)
	DD	00H
	DD	05H
xdata$x	ENDS
;	COMDAT xdata$x
xdata$x	SEGMENT
__catchsym$?_Reallocate@?$vector@UNoticeRotateInfo@@V?$allocator@UNoticeRotateInfo@@@std@@@std@@IAEXI@Z$50 DD 040H
	DD	00H
	DD	00H
	DD	FLAT:__catch$?_Reallocate@?$vector@UNoticeRotateInfo@@V?$allocator@UNoticeRotateInfo@@@std@@@std@@IAEXI@Z$0
__unwindtable$?_Reallocate@?$vector@UNoticeRotateInfo@@V?$allocator@UNoticeRotateInfo@@@std@@@std@@IAEXI@Z DD 0ffffffffH
	DD	00H
	DD	0ffffffffH
	DD	00H
__tryblocktable$?_Reallocate@?$vector@UNoticeRotateInfo@@V?$allocator@UNoticeRotateInfo@@@std@@@std@@IAEXI@Z DD 00H
	DD	00H
	DD	01H
	DD	01H
	DD	FLAT:__catchsym$?_Reallocate@?$vector@UNoticeRotateInfo@@V?$allocator@UNoticeRotateInfo@@@std@@@std@@IAEXI@Z$50
__ehfuncinfo$?_Reallocate@?$vector@UNoticeRotateInfo@@V?$allocator@UNoticeRotateInfo@@@std@@@std@@IAEXI@Z DD 019930522H
	DD	02H
	DD	FLAT:__unwindtable$?_Reallocate@?$vector@UNoticeRotateInfo@@V?$allocator@UNoticeRotateInfo@@@std@@@std@@IAEXI@Z
	DD	01H
	DD	FLAT:__tryblocktable$?_Reallocate@?$vector@UNoticeRotateInfo@@V?$allocator@UNoticeRotateInfo@@@std@@@std@@IAEXI@Z
	DD	2 DUP(00H)
	DD	00H
	DD	01H
xdata$x	ENDS
;	COMDAT xdata$x
xdata$x	SEGMENT
__catchsym$?_Reallocate@?$vector@UNoticeConnectInfo@@V?$allocator@UNoticeConnectInfo@@@std@@@std@@IAEXI@Z$50 DD 040H
	DD	00H
	DD	00H
	DD	FLAT:__catch$?_Reallocate@?$vector@UNoticeConnectInfo@@V?$allocator@UNoticeConnectInfo@@@std@@@std@@IAEXI@Z$0
__unwindtable$?_Reallocate@?$vector@UNoticeConnectInfo@@V?$allocator@UNoticeConnectInfo@@@std@@@std@@IAEXI@Z DD 0ffffffffH
	DD	00H
	DD	0ffffffffH
	DD	00H
__tryblocktable$?_Reallocate@?$vector@UNoticeConnectInfo@@V?$allocator@UNoticeConnectInfo@@@std@@@std@@IAEXI@Z DD 00H
	DD	00H
	DD	01H
	DD	01H
	DD	FLAT:__catchsym$?_Reallocate@?$vector@UNoticeConnectInfo@@V?$allocator@UNoticeConnectInfo@@@std@@@std@@IAEXI@Z$50
__ehfuncinfo$?_Reallocate@?$vector@UNoticeConnectInfo@@V?$allocator@UNoticeConnectInfo@@@std@@@std@@IAEXI@Z DD 019930522H
	DD	02H
	DD	FLAT:__unwindtable$?_Reallocate@?$vector@UNoticeConnectInfo@@V?$allocator@UNoticeConnectInfo@@@std@@@std@@IAEXI@Z
	DD	01H
	DD	FLAT:__tryblocktable$?_Reallocate@?$vector@UNoticeConnectInfo@@V?$allocator@UNoticeConnectInfo@@@std@@@std@@IAEXI@Z
	DD	2 DUP(00H)
	DD	00H
	DD	01H
xdata$x	ENDS
;	COMDAT xdata$x
xdata$x	SEGMENT
__unwindtable$?Read@Notice@@QAEXPAD@Z DD 0ffffffffH
	DD	FLAT:__unwindfunclet$?Read@Notice@@QAEXPAD@Z$0
__ehfuncinfo$?Read@Notice@@QAEXPAD@Z DD 019930522H
	DD	01H
	DD	FLAT:__unwindtable$?Read@Notice@@QAEXPAD@Z
	DD	2 DUP(00H)
	DD	2 DUP(00H)
	DD	00H
	DD	01H
xdata$x	ENDS
; Function compile flags: /Ogtp
; File c:\program files (x86)\microsoft visual studio 14.0\vc\include\xmemory0
;	COMDAT ??$construct@UNoticeConnectInfo@@U1@@?$allocator@UNoticeConnectInfo@@@std@@QAEXPAUNoticeConnectInfo@@$$QAU2@@Z
_TEXT	SEGMENT
__Ptr$ = 8						; size = 4
_<_Args_0>$ = 12					; size = 4
??$construct@UNoticeConnectInfo@@U1@@?$allocator@UNoticeConnectInfo@@@std@@QAEXPAUNoticeConnectInfo@@$$QAU2@@Z PROC ; std::allocator<NoticeConnectInfo>::construct<NoticeConnectInfo,NoticeConnectInfo>, COMDAT
; _this$ = ecx

; 654  : 		{	// construct _Objty(_Types...) at _Ptr

  00000	55		 push	 ebp
  00001	8b ec		 mov	 ebp, esp
  00003	57		 push	 edi

; 655  : 		::new ((void *)_Ptr) _Objty(_STD forward<_Types>(_Args)...);

  00004	8b 7d 08	 mov	 edi, DWORD PTR __Ptr$[ebp]
  00007	85 ff		 test	 edi, edi
  00009	74 0d		 je	 SHORT $LN3@construct
  0000b	56		 push	 esi
  0000c	8b 75 0c	 mov	 esi, DWORD PTR _<_Args_0>$[ebp]
  0000f	b9 19 00 00 00	 mov	 ecx, 25			; 00000019H
  00014	f3 a5		 rep movsd
  00016	a4		 movsb
  00017	5e		 pop	 esi
$LN3@construct:
  00018	5f		 pop	 edi

; 656  : 		}

  00019	5d		 pop	 ebp
  0001a	c2 08 00	 ret	 8
??$construct@UNoticeConnectInfo@@U1@@?$allocator@UNoticeConnectInfo@@@std@@QAEXPAUNoticeConnectInfo@@$$QAU2@@Z ENDP ; std::allocator<NoticeConnectInfo>::construct<NoticeConnectInfo,NoticeConnectInfo>
_TEXT	ENDS
; Function compile flags: /Ogtp
; File c:\program files (x86)\microsoft visual studio 14.0\vc\include\xmemory0
;	COMDAT ??$construct@UNoticeRotateInfo@@U1@@?$allocator@UNoticeRotateInfo@@@std@@QAEXPAUNoticeRotateInfo@@$$QAU2@@Z
_TEXT	SEGMENT
__Ptr$ = 8						; size = 4
_<_Args_0>$ = 12					; size = 4
??$construct@UNoticeRotateInfo@@U1@@?$allocator@UNoticeRotateInfo@@@std@@QAEXPAUNoticeRotateInfo@@$$QAU2@@Z PROC ; std::allocator<NoticeRotateInfo>::construct<NoticeRotateInfo,NoticeRotateInfo>, COMDAT
; _this$ = ecx

; 654  : 		{	// construct _Objty(_Types...) at _Ptr

  00000	55		 push	 ebp
  00001	8b ec		 mov	 ebp, esp
  00003	57		 push	 edi

; 655  : 		::new ((void *)_Ptr) _Objty(_STD forward<_Types>(_Args)...);

  00004	8b 7d 08	 mov	 edi, DWORD PTR __Ptr$[ebp]
  00007	85 ff		 test	 edi, edi
  00009	74 0c		 je	 SHORT $LN3@construct
  0000b	56		 push	 esi
  0000c	8b 75 0c	 mov	 esi, DWORD PTR _<_Args_0>$[ebp]
  0000f	b9 1b 00 00 00	 mov	 ecx, 27			; 0000001bH
  00014	f3 a5		 rep movsd
  00016	5e		 pop	 esi
$LN3@construct:
  00017	5f		 pop	 edi

; 656  : 		}

  00018	5d		 pop	 ebp
  00019	c2 08 00	 ret	 8
??$construct@UNoticeRotateInfo@@U1@@?$allocator@UNoticeRotateInfo@@@std@@QAEXPAUNoticeRotateInfo@@$$QAU2@@Z ENDP ; std::allocator<NoticeRotateInfo>::construct<NoticeRotateInfo,NoticeRotateInfo>
_TEXT	ENDS
; Function compile flags: /Ogtp
; File c:\program files (x86)\microsoft visual studio 14.0\vc\include\xmemory0
;	COMDAT ??$construct@UNoticeConnectInfo@@U1@@?$allocator_traits@V?$allocator@UNoticeConnectInfo@@@std@@@std@@SAXAAV?$allocator@UNoticeConnectInfo@@@1@PAUNoticeConnectInfo@@$$QAU3@@Z
_TEXT	SEGMENT
__Al$ = 8						; size = 4
__Ptr$ = 12						; size = 4
_<_Args_0>$ = 16					; size = 4
??$construct@UNoticeConnectInfo@@U1@@?$allocator_traits@V?$allocator@UNoticeConnectInfo@@@std@@@std@@SAXAAV?$allocator@UNoticeConnectInfo@@@1@PAUNoticeConnectInfo@@$$QAU3@@Z PROC ; std::allocator_traits<std::allocator<NoticeConnectInfo> >::construct<NoticeConnectInfo,NoticeConnectInfo>, COMDAT

; 772  : 		{	// construct _Objty(_Types...) at _Ptr

  00000	55		 push	 ebp
  00001	8b ec		 mov	 ebp, esp
  00003	57		 push	 edi

; 655  : 		::new ((void *)_Ptr) _Objty(_STD forward<_Types>(_Args)...);

  00004	8b 7d 0c	 mov	 edi, DWORD PTR __Ptr$[ebp]
  00007	85 ff		 test	 edi, edi
  00009	74 0d		 je	 SHORT $LN8@construct
  0000b	56		 push	 esi
  0000c	8b 75 10	 mov	 esi, DWORD PTR _<_Args_0>$[ebp]
  0000f	b9 19 00 00 00	 mov	 ecx, 25			; 00000019H
  00014	f3 a5		 rep movsd
  00016	a4		 movsb
  00017	5e		 pop	 esi
$LN8@construct:
  00018	5f		 pop	 edi

; 773  : 		_Al.construct(_Ptr, _STD forward<_Types>(_Args)...);
; 774  : 		}

  00019	5d		 pop	 ebp
  0001a	c3		 ret	 0
??$construct@UNoticeConnectInfo@@U1@@?$allocator_traits@V?$allocator@UNoticeConnectInfo@@@std@@@std@@SAXAAV?$allocator@UNoticeConnectInfo@@@1@PAUNoticeConnectInfo@@$$QAU3@@Z ENDP ; std::allocator_traits<std::allocator<NoticeConnectInfo> >::construct<NoticeConnectInfo,NoticeConnectInfo>
_TEXT	ENDS
; Function compile flags: /Ogtp
; File c:\program files (x86)\microsoft visual studio 14.0\vc\include\type_traits
;	COMDAT ??$forward@UNoticeConnectInfo@@@std@@YA$$QAUNoticeConnectInfo@@AAU1@@Z
_TEXT	SEGMENT
__Arg$ = 8						; size = 4
??$forward@UNoticeConnectInfo@@@std@@YA$$QAUNoticeConnectInfo@@AAU1@@Z PROC ; std::forward<NoticeConnectInfo>, COMDAT

; 1233 : 	{	// forward an lvalue as either an lvalue or an rvalue

  00000	55		 push	 ebp
  00001	8b ec		 mov	 ebp, esp

; 1234 : 	return (static_cast<_Ty&&>(_Arg));

  00003	8b 45 08	 mov	 eax, DWORD PTR __Arg$[ebp]

; 1235 : 	}

  00006	5d		 pop	 ebp
  00007	c3		 ret	 0
??$forward@UNoticeConnectInfo@@@std@@YA$$QAUNoticeConnectInfo@@AAU1@@Z ENDP ; std::forward<NoticeConnectInfo>
_TEXT	ENDS
; Function compile flags: /Ogtp
; File c:\program files (x86)\microsoft visual studio 14.0\vc\include\xmemory0
;	COMDAT ??$construct@UNoticeRotateInfo@@U1@@?$allocator_traits@V?$allocator@UNoticeRotateInfo@@@std@@@std@@SAXAAV?$allocator@UNoticeRotateInfo@@@1@PAUNoticeRotateInfo@@$$QAU3@@Z
_TEXT	SEGMENT
__Al$ = 8						; size = 4
__Ptr$ = 12						; size = 4
_<_Args_0>$ = 16					; size = 4
??$construct@UNoticeRotateInfo@@U1@@?$allocator_traits@V?$allocator@UNoticeRotateInfo@@@std@@@std@@SAXAAV?$allocator@UNoticeRotateInfo@@@1@PAUNoticeRotateInfo@@$$QAU3@@Z PROC ; std::allocator_traits<std::allocator<NoticeRotateInfo> >::construct<NoticeRotateInfo,NoticeRotateInfo>, COMDAT

; 772  : 		{	// construct _Objty(_Types...) at _Ptr

  00000	55		 push	 ebp
  00001	8b ec		 mov	 ebp, esp
  00003	57		 push	 edi

; 655  : 		::new ((void *)_Ptr) _Objty(_STD forward<_Types>(_Args)...);

  00004	8b 7d 0c	 mov	 edi, DWORD PTR __Ptr$[ebp]
  00007	85 ff		 test	 edi, edi
  00009	74 0c		 je	 SHORT $LN8@construct
  0000b	56		 push	 esi
  0000c	8b 75 10	 mov	 esi, DWORD PTR _<_Args_0>$[ebp]
  0000f	b9 1b 00 00 00	 mov	 ecx, 27			; 0000001bH
  00014	f3 a5		 rep movsd
  00016	5e		 pop	 esi
$LN8@construct:
  00017	5f		 pop	 edi

; 773  : 		_Al.construct(_Ptr, _STD forward<_Types>(_Args)...);
; 774  : 		}

  00018	5d		 pop	 ebp
  00019	c3		 ret	 0
??$construct@UNoticeRotateInfo@@U1@@?$allocator_traits@V?$allocator@UNoticeRotateInfo@@@std@@@std@@SAXAAV?$allocator@UNoticeRotateInfo@@@1@PAUNoticeRotateInfo@@$$QAU3@@Z ENDP ; std::allocator_traits<std::allocator<NoticeRotateInfo> >::construct<NoticeRotateInfo,NoticeRotateInfo>
_TEXT	ENDS
; Function compile flags: /Ogtp
; File c:\program files (x86)\microsoft visual studio 14.0\vc\include\type_traits
;	COMDAT ??$forward@UNoticeRotateInfo@@@std@@YA$$QAUNoticeRotateInfo@@AAU1@@Z
_TEXT	SEGMENT
__Arg$ = 8						; size = 4
??$forward@UNoticeRotateInfo@@@std@@YA$$QAUNoticeRotateInfo@@AAU1@@Z PROC ; std::forward<NoticeRotateInfo>, COMDAT

; 1233 : 	{	// forward an lvalue as either an lvalue or an rvalue

  00000	55		 push	 ebp
  00001	8b ec		 mov	 ebp, esp

; 1234 : 	return (static_cast<_Ty&&>(_Arg));

  00003	8b 45 08	 mov	 eax, DWORD PTR __Arg$[ebp]

; 1235 : 	}

  00006	5d		 pop	 ebp
  00007	c3		 ret	 0
??$forward@UNoticeRotateInfo@@@std@@YA$$QAUNoticeRotateInfo@@AAU1@@Z ENDP ; std::forward<NoticeRotateInfo>
_TEXT	ENDS
; Function compile flags: /Ogtp
; File c:\program files (x86)\microsoft visual studio 14.0\vc\include\xmemory0
;	COMDAT ??$construct@UNoticeConnectInfo@@U1@@?$_Wrap_alloc@V?$allocator@UNoticeConnectInfo@@@std@@@std@@QAEXPAUNoticeConnectInfo@@$$QAU2@@Z
_TEXT	SEGMENT
__Ptr$ = 8						; size = 4
_<_Args_0>$ = 12					; size = 4
??$construct@UNoticeConnectInfo@@U1@@?$_Wrap_alloc@V?$allocator@UNoticeConnectInfo@@@std@@@std@@QAEXPAUNoticeConnectInfo@@$$QAU2@@Z PROC ; std::_Wrap_alloc<std::allocator<NoticeConnectInfo> >::construct<NoticeConnectInfo,NoticeConnectInfo>, COMDAT
; _this$ = ecx

; 916  : 		{	// construct _Ty(_Types...) at _Ptr

  00000	55		 push	 ebp
  00001	8b ec		 mov	 ebp, esp
  00003	57		 push	 edi

; 655  : 		::new ((void *)_Ptr) _Objty(_STD forward<_Types>(_Args)...);

  00004	8b 7d 08	 mov	 edi, DWORD PTR __Ptr$[ebp]
  00007	85 ff		 test	 edi, edi
  00009	74 0d		 je	 SHORT $LN13@construct
  0000b	56		 push	 esi
  0000c	8b 75 0c	 mov	 esi, DWORD PTR _<_Args_0>$[ebp]
  0000f	b9 19 00 00 00	 mov	 ecx, 25			; 00000019H
  00014	f3 a5		 rep movsd
  00016	a4		 movsb
  00017	5e		 pop	 esi
$LN13@construct:
  00018	5f		 pop	 edi

; 917  : 		_Mytraits::construct(*this, _Ptr,
; 918  : 			_STD forward<_Types>(_Args)...);
; 919  : 		}

  00019	5d		 pop	 ebp
  0001a	c2 08 00	 ret	 8
??$construct@UNoticeConnectInfo@@U1@@?$_Wrap_alloc@V?$allocator@UNoticeConnectInfo@@@std@@@std@@QAEXPAUNoticeConnectInfo@@$$QAU2@@Z ENDP ; std::_Wrap_alloc<std::allocator<NoticeConnectInfo> >::construct<NoticeConnectInfo,NoticeConnectInfo>
_TEXT	ENDS
; Function compile flags: /Ogtp
; File c:\program files (x86)\microsoft visual studio 14.0\vc\include\xmemory0
;	COMDAT ??$construct@UNoticeRotateInfo@@U1@@?$_Wrap_alloc@V?$allocator@UNoticeRotateInfo@@@std@@@std@@QAEXPAUNoticeRotateInfo@@$$QAU2@@Z
_TEXT	SEGMENT
__Ptr$ = 8						; size = 4
_<_Args_0>$ = 12					; size = 4
??$construct@UNoticeRotateInfo@@U1@@?$_Wrap_alloc@V?$allocator@UNoticeRotateInfo@@@std@@@std@@QAEXPAUNoticeRotateInfo@@$$QAU2@@Z PROC ; std::_Wrap_alloc<std::allocator<NoticeRotateInfo> >::construct<NoticeRotateInfo,NoticeRotateInfo>, COMDAT
; _this$ = ecx

; 916  : 		{	// construct _Ty(_Types...) at _Ptr

  00000	55		 push	 ebp
  00001	8b ec		 mov	 ebp, esp
  00003	57		 push	 edi

; 655  : 		::new ((void *)_Ptr) _Objty(_STD forward<_Types>(_Args)...);

  00004	8b 7d 08	 mov	 edi, DWORD PTR __Ptr$[ebp]
  00007	85 ff		 test	 edi, edi
  00009	74 0c		 je	 SHORT $LN13@construct
  0000b	56		 push	 esi
  0000c	8b 75 0c	 mov	 esi, DWORD PTR _<_Args_0>$[ebp]
  0000f	b9 1b 00 00 00	 mov	 ecx, 27			; 0000001bH
  00014	f3 a5		 rep movsd
  00016	5e		 pop	 esi
$LN13@construct:
  00017	5f		 pop	 edi

; 917  : 		_Mytraits::construct(*this, _Ptr,
; 918  : 			_STD forward<_Types>(_Args)...);
; 919  : 		}

  00018	5d		 pop	 ebp
  00019	c2 08 00	 ret	 8
??$construct@UNoticeRotateInfo@@U1@@?$_Wrap_alloc@V?$allocator@UNoticeRotateInfo@@@std@@@std@@QAEXPAUNoticeRotateInfo@@$$QAU2@@Z ENDP ; std::_Wrap_alloc<std::allocator<NoticeRotateInfo> >::construct<NoticeRotateInfo,NoticeRotateInfo>
_TEXT	ENDS
; Function compile flags: /Ogtp
; File c:\program files (x86)\microsoft visual studio 14.0\vc\include\xmemory0
;	COMDAT ??$destroy@UNoticeConnectInfo@@@?$allocator@UNoticeConnectInfo@@@std@@QAEXPAUNoticeConnectInfo@@@Z
_TEXT	SEGMENT
__Ptr$ = 8						; size = 4
??$destroy@UNoticeConnectInfo@@@?$allocator@UNoticeConnectInfo@@@std@@QAEXPAUNoticeConnectInfo@@@Z PROC ; std::allocator<NoticeConnectInfo>::destroy<NoticeConnectInfo>, COMDAT
; _this$ = ecx

; 662  : 		_Ptr->~_Uty();
; 663  : 		}

  00000	c2 04 00	 ret	 4
??$destroy@UNoticeConnectInfo@@@?$allocator@UNoticeConnectInfo@@@std@@QAEXPAUNoticeConnectInfo@@@Z ENDP ; std::allocator<NoticeConnectInfo>::destroy<NoticeConnectInfo>
_TEXT	ENDS
; Function compile flags: /Ogtp
; File c:\program files (x86)\microsoft visual studio 14.0\vc\include\xmemory0
;	COMDAT ??$destroy@UNoticeRotateInfo@@@?$allocator@UNoticeRotateInfo@@@std@@QAEXPAUNoticeRotateInfo@@@Z
_TEXT	SEGMENT
__Ptr$ = 8						; size = 4
??$destroy@UNoticeRotateInfo@@@?$allocator@UNoticeRotateInfo@@@std@@QAEXPAUNoticeRotateInfo@@@Z PROC ; std::allocator<NoticeRotateInfo>::destroy<NoticeRotateInfo>, COMDAT
; _this$ = ecx

; 662  : 		_Ptr->~_Uty();
; 663  : 		}

  00000	c2 04 00	 ret	 4
??$destroy@UNoticeRotateInfo@@@?$allocator@UNoticeRotateInfo@@@std@@QAEXPAUNoticeRotateInfo@@@Z ENDP ; std::allocator<NoticeRotateInfo>::destroy<NoticeRotateInfo>
_TEXT	ENDS
; Function compile flags: /Ogtp
; File c:\program files (x86)\microsoft visual studio 14.0\vc\include\xmemory
; File c:\program files (x86)\microsoft visual studio 14.0\vc\include\xmemory0
; File c:\program files (x86)\microsoft visual studio 14.0\vc\include\xmemory
;	COMDAT ??$_Uninit_move@PAUNoticeConnectInfo@@PAU1@V?$allocator@UNoticeConnectInfo@@@std@@U1@@std@@YAPAUNoticeConnectInfo@@PAU1@00AAU?$_Wrap_alloc@V?$allocator@UNoticeConnectInfo@@@std@@@0@0U_Nonscalar_ptr_iterator_tag@0@@Z
_TEXT	SEGMENT
__First$ = 8						; size = 4
__Last$ = 12						; size = 4
__Dest$ = 16						; size = 4
__Al$ = 20						; size = 4
___formal$ = 24						; size = 4
___formal$ = 28						; size = 1
??$_Uninit_move@PAUNoticeConnectInfo@@PAU1@V?$allocator@UNoticeConnectInfo@@@std@@U1@@std@@YAPAUNoticeConnectInfo@@PAU1@00AAU?$_Wrap_alloc@V?$allocator@UNoticeConnectInfo@@@std@@@0@0U_Nonscalar_ptr_iterator_tag@0@@Z PROC ; std::_Uninit_move<NoticeConnectInfo *,NoticeConnectInfo *,std::allocator<NoticeConnectInfo>,NoticeConnectInfo>, COMDAT

; 437  : 	{	// move [_First, _Last) to raw _Dest, using _Al, arbitrary type

  00000	55		 push	 ebp
  00001	8b ec		 mov	 ebp, esp

; 442  : 	for (; _First != _Last; ++_Dest, (void)++_First)

  00003	8b 55 08	 mov	 edx, DWORD PTR __First$[ebp]
  00006	8b 45 10	 mov	 eax, DWORD PTR __Dest$[ebp]
  00009	53		 push	 ebx
  0000a	8b 5d 0c	 mov	 ebx, DWORD PTR __Last$[ebp]
  0000d	3b d3		 cmp	 edx, ebx
  0000f	74 1e		 je	 SHORT $LN3@Uninit_mov
  00011	56		 push	 esi
  00012	57		 push	 edi
$LL4@Uninit_mov:
; File c:\program files (x86)\microsoft visual studio 14.0\vc\include\xmemory0

; 655  : 		::new ((void *)_Ptr) _Objty(_STD forward<_Types>(_Args)...);

  00013	85 c0		 test	 eax, eax
  00015	74 0c		 je	 SHORT $LN2@Uninit_mov
  00017	b9 19 00 00 00	 mov	 ecx, 25			; 00000019H
  0001c	8b f2		 mov	 esi, edx
  0001e	8b f8		 mov	 edi, eax
  00020	f3 a5		 rep movsd
  00022	a4		 movsb
$LN2@Uninit_mov:
; File c:\program files (x86)\microsoft visual studio 14.0\vc\include\xmemory

; 442  : 	for (; _First != _Last; ++_Dest, (void)++_First)

  00023	83 c2 65	 add	 edx, 101		; 00000065H
  00026	83 c0 65	 add	 eax, 101		; 00000065H
  00029	3b d3		 cmp	 edx, ebx
  0002b	75 e6		 jne	 SHORT $LL4@Uninit_mov
  0002d	5f		 pop	 edi
  0002e	5e		 pop	 esi
$LN3@Uninit_mov:
  0002f	5b		 pop	 ebx

; 443  : 		_Al.construct(_Dest, (_Valty&&)*_First);
; 444  : 	_CATCH_ALL
; 445  : 	for (; _Next != _Dest; ++_Next)
; 446  : 		_Al.destroy(_Next);
; 447  : 	_RERAISE;
; 448  : 	_CATCH_END
; 449  : 	return (_Dest);
; 450  : 	}

  00030	5d		 pop	 ebp
  00031	c3		 ret	 0
??$_Uninit_move@PAUNoticeConnectInfo@@PAU1@V?$allocator@UNoticeConnectInfo@@@std@@U1@@std@@YAPAUNoticeConnectInfo@@PAU1@00AAU?$_Wrap_alloc@V?$allocator@UNoticeConnectInfo@@@std@@@0@0U_Nonscalar_ptr_iterator_tag@0@@Z ENDP ; std::_Uninit_move<NoticeConnectInfo *,NoticeConnectInfo *,std::allocator<NoticeConnectInfo>,NoticeConnectInfo>
_TEXT	ENDS
; Function compile flags: /Ogtp
; File c:\program files (x86)\microsoft visual studio 14.0\vc\include\xutility
;	COMDAT ??$_Val_type@PAUNoticeConnectInfo@@@std@@YAPAUNoticeConnectInfo@@PAU1@@Z
_TEXT	SEGMENT
___formal$ = 8						; size = 4
??$_Val_type@PAUNoticeConnectInfo@@@std@@YAPAUNoticeConnectInfo@@PAU1@@Z PROC ; std::_Val_type<NoticeConnectInfo *>, COMDAT

; 875  : 	return (0);

  00000	33 c0		 xor	 eax, eax

; 876  : 	}

  00002	c3		 ret	 0
??$_Val_type@PAUNoticeConnectInfo@@@std@@YAPAUNoticeConnectInfo@@PAU1@@Z ENDP ; std::_Val_type<NoticeConnectInfo *>
_TEXT	ENDS
; Function compile flags: /Ogtp
; File c:\program files (x86)\microsoft visual studio 14.0\vc\include\xmemory
; File c:\program files (x86)\microsoft visual studio 14.0\vc\include\xmemory0
; File c:\program files (x86)\microsoft visual studio 14.0\vc\include\xmemory
;	COMDAT ??$_Uninit_move@PAUNoticeRotateInfo@@PAU1@V?$allocator@UNoticeRotateInfo@@@std@@U1@@std@@YAPAUNoticeRotateInfo@@PAU1@00AAU?$_Wrap_alloc@V?$allocator@UNoticeRotateInfo@@@std@@@0@0U_Nonscalar_ptr_iterator_tag@0@@Z
_TEXT	SEGMENT
__First$ = 8						; size = 4
__Last$ = 12						; size = 4
__Dest$ = 16						; size = 4
__Al$ = 20						; size = 4
___formal$ = 24						; size = 4
___formal$ = 28						; size = 1
??$_Uninit_move@PAUNoticeRotateInfo@@PAU1@V?$allocator@UNoticeRotateInfo@@@std@@U1@@std@@YAPAUNoticeRotateInfo@@PAU1@00AAU?$_Wrap_alloc@V?$allocator@UNoticeRotateInfo@@@std@@@0@0U_Nonscalar_ptr_iterator_tag@0@@Z PROC ; std::_Uninit_move<NoticeRotateInfo *,NoticeRotateInfo *,std::allocator<NoticeRotateInfo>,NoticeRotateInfo>, COMDAT

; 437  : 	{	// move [_First, _Last) to raw _Dest, using _Al, arbitrary type

  00000	55		 push	 ebp
  00001	8b ec		 mov	 ebp, esp

; 442  : 	for (; _First != _Last; ++_Dest, (void)++_First)

  00003	8b 55 08	 mov	 edx, DWORD PTR __First$[ebp]
  00006	8b 45 10	 mov	 eax, DWORD PTR __Dest$[ebp]
  00009	53		 push	 ebx
  0000a	8b 5d 0c	 mov	 ebx, DWORD PTR __Last$[ebp]
  0000d	3b d3		 cmp	 edx, ebx
  0000f	74 1d		 je	 SHORT $LN3@Uninit_mov
  00011	56		 push	 esi
  00012	57		 push	 edi
$LL4@Uninit_mov:
; File c:\program files (x86)\microsoft visual studio 14.0\vc\include\xmemory0

; 655  : 		::new ((void *)_Ptr) _Objty(_STD forward<_Types>(_Args)...);

  00013	85 c0		 test	 eax, eax
  00015	74 0b		 je	 SHORT $LN2@Uninit_mov
  00017	b9 1b 00 00 00	 mov	 ecx, 27			; 0000001bH
  0001c	8b f2		 mov	 esi, edx
  0001e	8b f8		 mov	 edi, eax
  00020	f3 a5		 rep movsd
$LN2@Uninit_mov:
; File c:\program files (x86)\microsoft visual studio 14.0\vc\include\xmemory

; 442  : 	for (; _First != _Last; ++_Dest, (void)++_First)

  00022	83 c2 6c	 add	 edx, 108		; 0000006cH
  00025	83 c0 6c	 add	 eax, 108		; 0000006cH
  00028	3b d3		 cmp	 edx, ebx
  0002a	75 e7		 jne	 SHORT $LL4@Uninit_mov
  0002c	5f		 pop	 edi
  0002d	5e		 pop	 esi
$LN3@Uninit_mov:
  0002e	5b		 pop	 ebx

; 443  : 		_Al.construct(_Dest, (_Valty&&)*_First);
; 444  : 	_CATCH_ALL
; 445  : 	for (; _Next != _Dest; ++_Next)
; 446  : 		_Al.destroy(_Next);
; 447  : 	_RERAISE;
; 448  : 	_CATCH_END
; 449  : 	return (_Dest);
; 450  : 	}

  0002f	5d		 pop	 ebp
  00030	c3		 ret	 0
??$_Uninit_move@PAUNoticeRotateInfo@@PAU1@V?$allocator@UNoticeRotateInfo@@@std@@U1@@std@@YAPAUNoticeRotateInfo@@PAU1@00AAU?$_Wrap_alloc@V?$allocator@UNoticeRotateInfo@@@std@@@0@0U_Nonscalar_ptr_iterator_tag@0@@Z ENDP ; std::_Uninit_move<NoticeRotateInfo *,NoticeRotateInfo *,std::allocator<NoticeRotateInfo>,NoticeRotateInfo>
_TEXT	ENDS
; Function compile flags: /Ogtp
; File c:\program files (x86)\microsoft visual studio 14.0\vc\include\xutility
;	COMDAT ??$_Val_type@PAUNoticeRotateInfo@@@std@@YAPAUNoticeRotateInfo@@PAU1@@Z
_TEXT	SEGMENT
___formal$ = 8						; size = 4
??$_Val_type@PAUNoticeRotateInfo@@@std@@YAPAUNoticeRotateInfo@@PAU1@@Z PROC ; std::_Val_type<NoticeRotateInfo *>, COMDAT

; 875  : 	return (0);

  00000	33 c0		 xor	 eax, eax

; 876  : 	}

  00002	c3		 ret	 0
??$_Val_type@PAUNoticeRotateInfo@@@std@@YAPAUNoticeRotateInfo@@PAU1@@Z ENDP ; std::_Val_type<NoticeRotateInfo *>
_TEXT	ENDS
; Function compile flags: /Ogtp
; File c:\program files (x86)\microsoft visual studio 14.0\vc\include\xmemory0
;	COMDAT ??$destroy@UNoticeConnectInfo@@@?$allocator_traits@V?$allocator@UNoticeConnectInfo@@@std@@@std@@SAXAAV?$allocator@UNoticeConnectInfo@@@1@PAUNoticeConnectInfo@@@Z
_TEXT	SEGMENT
__Al$ = 8						; size = 4
__Ptr$ = 12						; size = 4
??$destroy@UNoticeConnectInfo@@@?$allocator_traits@V?$allocator@UNoticeConnectInfo@@@std@@@std@@SAXAAV?$allocator@UNoticeConnectInfo@@@1@PAUNoticeConnectInfo@@@Z PROC ; std::allocator_traits<std::allocator<NoticeConnectInfo> >::destroy<NoticeConnectInfo>, COMDAT

; 780  : 		_Al.destroy(_Ptr);
; 781  : 		}

  00000	c3		 ret	 0
??$destroy@UNoticeConnectInfo@@@?$allocator_traits@V?$allocator@UNoticeConnectInfo@@@std@@@std@@SAXAAV?$allocator@UNoticeConnectInfo@@@1@PAUNoticeConnectInfo@@@Z ENDP ; std::allocator_traits<std::allocator<NoticeConnectInfo> >::destroy<NoticeConnectInfo>
_TEXT	ENDS
; Function compile flags: /Ogtp
; File c:\program files (x86)\microsoft visual studio 14.0\vc\include\xstddef
;	COMDAT ??$_Addressof@UNoticeConnectInfo@@@std@@YAPAUNoticeConnectInfo@@AAU1@U?$integral_constant@_N$0A@@0@@Z
_TEXT	SEGMENT
__Val$ = 8						; size = 4
___formal$ = 12						; size = 1
??$_Addressof@UNoticeConnectInfo@@@std@@YAPAUNoticeConnectInfo@@AAU1@U?$integral_constant@_N$0A@@0@@Z PROC ; std::_Addressof<NoticeConnectInfo>, COMDAT

; 688  : 	{	// return address of object _Val

  00000	55		 push	 ebp
  00001	8b ec		 mov	 ebp, esp

; 689  : 	return (reinterpret_cast<_Ty *>(

  00003	8b 45 08	 mov	 eax, DWORD PTR __Val$[ebp]

; 690  : 		&const_cast<char&>(
; 691  : 		reinterpret_cast<const volatile char&>(_Val))));
; 692  : 	}

  00006	5d		 pop	 ebp
  00007	c3		 ret	 0
??$_Addressof@UNoticeConnectInfo@@@std@@YAPAUNoticeConnectInfo@@AAU1@U?$integral_constant@_N$0A@@0@@Z ENDP ; std::_Addressof<NoticeConnectInfo>
_TEXT	ENDS
; Function compile flags: /Ogtp
; File c:\program files (x86)\microsoft visual studio 14.0\vc\include\xmemory0
;	COMDAT ??$destroy@UNoticeRotateInfo@@@?$allocator_traits@V?$allocator@UNoticeRotateInfo@@@std@@@std@@SAXAAV?$allocator@UNoticeRotateInfo@@@1@PAUNoticeRotateInfo@@@Z
_TEXT	SEGMENT
__Al$ = 8						; size = 4
__Ptr$ = 12						; size = 4
??$destroy@UNoticeRotateInfo@@@?$allocator_traits@V?$allocator@UNoticeRotateInfo@@@std@@@std@@SAXAAV?$allocator@UNoticeRotateInfo@@@1@PAUNoticeRotateInfo@@@Z PROC ; std::allocator_traits<std::allocator<NoticeRotateInfo> >::destroy<NoticeRotateInfo>, COMDAT

; 780  : 		_Al.destroy(_Ptr);
; 781  : 		}

  00000	c3		 ret	 0
??$destroy@UNoticeRotateInfo@@@?$allocator_traits@V?$allocator@UNoticeRotateInfo@@@std@@@std@@SAXAAV?$allocator@UNoticeRotateInfo@@@1@PAUNoticeRotateInfo@@@Z ENDP ; std::allocator_traits<std::allocator<NoticeRotateInfo> >::destroy<NoticeRotateInfo>
_TEXT	ENDS
; Function compile flags: /Ogtp
; File c:\program files (x86)\microsoft visual studio 14.0\vc\include\xstddef
;	COMDAT ??$_Addressof@UNoticeRotateInfo@@@std@@YAPAUNoticeRotateInfo@@AAU1@U?$integral_constant@_N$0A@@0@@Z
_TEXT	SEGMENT
__Val$ = 8						; size = 4
___formal$ = 12						; size = 1
??$_Addressof@UNoticeRotateInfo@@@std@@YAPAUNoticeRotateInfo@@AAU1@U?$integral_constant@_N$0A@@0@@Z PROC ; std::_Addressof<NoticeRotateInfo>, COMDAT

; 688  : 	{	// return address of object _Val

  00000	55		 push	 ebp
  00001	8b ec		 mov	 ebp, esp

; 689  : 	return (reinterpret_cast<_Ty *>(

  00003	8b 45 08	 mov	 eax, DWORD PTR __Val$[ebp]

; 690  : 		&const_cast<char&>(
; 691  : 		reinterpret_cast<const volatile char&>(_Val))));
; 692  : 	}

  00006	5d		 pop	 ebp
  00007	c3		 ret	 0
??$_Addressof@UNoticeRotateInfo@@@std@@YAPAUNoticeRotateInfo@@AAU1@U?$integral_constant@_N$0A@@0@@Z ENDP ; std::_Addressof<NoticeRotateInfo>
_TEXT	ENDS
; Function compile flags: /Ogtp
; File c:\program files (x86)\microsoft visual studio 14.0\vc\include\xutility
;	COMDAT ??$_Rechecked@PAUNoticeConnectInfo@@PAU1@@std@@YAAAPAUNoticeConnectInfo@@AAPAU1@PAU1@@Z
_TEXT	SEGMENT
__Dest$ = 8						; size = 4
__Src$ = 12						; size = 4
??$_Rechecked@PAUNoticeConnectInfo@@PAU1@@std@@YAAAPAUNoticeConnectInfo@@AAPAU1@PAU1@@Z PROC ; std::_Rechecked<NoticeConnectInfo *,NoticeConnectInfo *>, COMDAT

; 446  : 	{	// reset checked from unchecked, generic

  00000	55		 push	 ebp
  00001	8b ec		 mov	 ebp, esp

; 447  : 	_Dest = _Src;

  00003	8b 45 08	 mov	 eax, DWORD PTR __Dest$[ebp]
  00006	8b 4d 0c	 mov	 ecx, DWORD PTR __Src$[ebp]
  00009	89 08		 mov	 DWORD PTR [eax], ecx

; 448  : 	return (_Dest);
; 449  : 	}

  0000b	5d		 pop	 ebp
  0000c	c3		 ret	 0
??$_Rechecked@PAUNoticeConnectInfo@@PAU1@@std@@YAAAPAUNoticeConnectInfo@@AAPAU1@PAU1@@Z ENDP ; std::_Rechecked<NoticeConnectInfo *,NoticeConnectInfo *>
_TEXT	ENDS
; Function compile flags: /Ogtp
; File c:\program files (x86)\microsoft visual studio 14.0\vc\include\xmemory
;	COMDAT ??$_Uninit_move@PAUNoticeConnectInfo@@PAU1@U?$_Wrap_alloc@V?$allocator@UNoticeConnectInfo@@@std@@@std@@@std@@YAPAUNoticeConnectInfo@@PAU1@00AAU?$_Wrap_alloc@V?$allocator@UNoticeConnectInfo@@@std@@@0@@Z
_TEXT	SEGMENT
__Cat$1 = -4						; size = 1
__First$ = 8						; size = 4
__Last$ = 12						; size = 4
__Dest$ = 16						; size = 4
__Al$ = 20						; size = 4
??$_Uninit_move@PAUNoticeConnectInfo@@PAU1@U?$_Wrap_alloc@V?$allocator@UNoticeConnectInfo@@@std@@@std@@@std@@YAPAUNoticeConnectInfo@@PAU1@00AAU?$_Wrap_alloc@V?$allocator@UNoticeConnectInfo@@@std@@@0@@Z PROC ; std::_Uninit_move<NoticeConnectInfo *,NoticeConnectInfo *,std::_Wrap_alloc<std::allocator<NoticeConnectInfo> > >, COMDAT

; 480  : 	{	// move [_First, _Last) to raw _Dest, using _Al

  00000	55		 push	 ebp
  00001	8b ec		 mov	 ebp, esp
  00003	51		 push	 ecx

; 481  : 	return (_Uninit_move(_First, _Last, _Dest, _Al,

  00004	ff 75 fc	 push	 DWORD PTR __Cat$1[ebp]
  00007	6a 00		 push	 0
  00009	ff 75 14	 push	 DWORD PTR __Al$[ebp]
  0000c	ff 75 10	 push	 DWORD PTR __Dest$[ebp]
  0000f	ff 75 0c	 push	 DWORD PTR __Last$[ebp]
  00012	ff 75 08	 push	 DWORD PTR __First$[ebp]
  00015	e8 00 00 00 00	 call	 ??$_Uninit_move@PAUNoticeConnectInfo@@PAU1@V?$allocator@UNoticeConnectInfo@@@std@@U1@@std@@YAPAUNoticeConnectInfo@@PAU1@00AAU?$_Wrap_alloc@V?$allocator@UNoticeConnectInfo@@@std@@@0@0U_Nonscalar_ptr_iterator_tag@0@@Z ; std::_Uninit_move<NoticeConnectInfo *,NoticeConnectInfo *,std::allocator<NoticeConnectInfo>,NoticeConnectInfo>
  0001a	83 c4 18	 add	 esp, 24			; 00000018H

; 482  : 		_Val_type(_First), _Ptr_cat(_First, _Dest)));
; 483  : 	}

  0001d	8b e5		 mov	 esp, ebp
  0001f	5d		 pop	 ebp
  00020	c3		 ret	 0
??$_Uninit_move@PAUNoticeConnectInfo@@PAU1@U?$_Wrap_alloc@V?$allocator@UNoticeConnectInfo@@@std@@@std@@@std@@YAPAUNoticeConnectInfo@@PAU1@00AAU?$_Wrap_alloc@V?$allocator@UNoticeConnectInfo@@@std@@@0@@Z ENDP ; std::_Uninit_move<NoticeConnectInfo *,NoticeConnectInfo *,std::_Wrap_alloc<std::allocator<NoticeConnectInfo> > >
_TEXT	ENDS
; Function compile flags: /Ogtp
; File c:\program files (x86)\microsoft visual studio 14.0\vc\include\xutility
;	COMDAT ??$_Unchecked@PAUNoticeConnectInfo@@@std@@YAPAUNoticeConnectInfo@@PAU1@@Z
_TEXT	SEGMENT
__Src$ = 8						; size = 4
??$_Unchecked@PAUNoticeConnectInfo@@@std@@YAPAUNoticeConnectInfo@@PAU1@@Z PROC ; std::_Unchecked<NoticeConnectInfo *>, COMDAT

; 438  : 	{	// construct unchecked from checked, generic

  00000	55		 push	 ebp
  00001	8b ec		 mov	 ebp, esp

; 439  : 	return (_Src);

  00003	8b 45 08	 mov	 eax, DWORD PTR __Src$[ebp]

; 440  : 	}

  00006	5d		 pop	 ebp
  00007	c3		 ret	 0
??$_Unchecked@PAUNoticeConnectInfo@@@std@@YAPAUNoticeConnectInfo@@PAU1@@Z ENDP ; std::_Unchecked<NoticeConnectInfo *>
_TEXT	ENDS
; Function compile flags: /Ogtp
; File c:\program files (x86)\microsoft visual studio 14.0\vc\include\xutility
;	COMDAT ??$_Rechecked@PAUNoticeRotateInfo@@PAU1@@std@@YAAAPAUNoticeRotateInfo@@AAPAU1@PAU1@@Z
_TEXT	SEGMENT
__Dest$ = 8						; size = 4
__Src$ = 12						; size = 4
??$_Rechecked@PAUNoticeRotateInfo@@PAU1@@std@@YAAAPAUNoticeRotateInfo@@AAPAU1@PAU1@@Z PROC ; std::_Rechecked<NoticeRotateInfo *,NoticeRotateInfo *>, COMDAT

; 446  : 	{	// reset checked from unchecked, generic

  00000	55		 push	 ebp
  00001	8b ec		 mov	 ebp, esp

; 447  : 	_Dest = _Src;

  00003	8b 45 08	 mov	 eax, DWORD PTR __Dest$[ebp]
  00006	8b 4d 0c	 mov	 ecx, DWORD PTR __Src$[ebp]
  00009	89 08		 mov	 DWORD PTR [eax], ecx

; 448  : 	return (_Dest);
; 449  : 	}

  0000b	5d		 pop	 ebp
  0000c	c3		 ret	 0
??$_Rechecked@PAUNoticeRotateInfo@@PAU1@@std@@YAAAPAUNoticeRotateInfo@@AAPAU1@PAU1@@Z ENDP ; std::_Rechecked<NoticeRotateInfo *,NoticeRotateInfo *>
_TEXT	ENDS
; Function compile flags: /Ogtp
; File c:\program files (x86)\microsoft visual studio 14.0\vc\include\xmemory
;	COMDAT ??$_Uninit_move@PAUNoticeRotateInfo@@PAU1@U?$_Wrap_alloc@V?$allocator@UNoticeRotateInfo@@@std@@@std@@@std@@YAPAUNoticeRotateInfo@@PAU1@00AAU?$_Wrap_alloc@V?$allocator@UNoticeRotateInfo@@@std@@@0@@Z
_TEXT	SEGMENT
__Cat$1 = -4						; size = 1
__First$ = 8						; size = 4
__Last$ = 12						; size = 4
__Dest$ = 16						; size = 4
__Al$ = 20						; size = 4
??$_Uninit_move@PAUNoticeRotateInfo@@PAU1@U?$_Wrap_alloc@V?$allocator@UNoticeRotateInfo@@@std@@@std@@@std@@YAPAUNoticeRotateInfo@@PAU1@00AAU?$_Wrap_alloc@V?$allocator@UNoticeRotateInfo@@@std@@@0@@Z PROC ; std::_Uninit_move<NoticeRotateInfo *,NoticeRotateInfo *,std::_Wrap_alloc<std::allocator<NoticeRotateInfo> > >, COMDAT

; 480  : 	{	// move [_First, _Last) to raw _Dest, using _Al

  00000	55		 push	 ebp
  00001	8b ec		 mov	 ebp, esp
  00003	51		 push	 ecx

; 481  : 	return (_Uninit_move(_First, _Last, _Dest, _Al,

  00004	ff 75 fc	 push	 DWORD PTR __Cat$1[ebp]
  00007	6a 00		 push	 0
  00009	ff 75 14	 push	 DWORD PTR __Al$[ebp]
  0000c	ff 75 10	 push	 DWORD PTR __Dest$[ebp]
  0000f	ff 75 0c	 push	 DWORD PTR __Last$[ebp]
  00012	ff 75 08	 push	 DWORD PTR __First$[ebp]
  00015	e8 00 00 00 00	 call	 ??$_Uninit_move@PAUNoticeRotateInfo@@PAU1@V?$allocator@UNoticeRotateInfo@@@std@@U1@@std@@YAPAUNoticeRotateInfo@@PAU1@00AAU?$_Wrap_alloc@V?$allocator@UNoticeRotateInfo@@@std@@@0@0U_Nonscalar_ptr_iterator_tag@0@@Z ; std::_Uninit_move<NoticeRotateInfo *,NoticeRotateInfo *,std::allocator<NoticeRotateInfo>,NoticeRotateInfo>
  0001a	83 c4 18	 add	 esp, 24			; 00000018H

; 482  : 		_Val_type(_First), _Ptr_cat(_First, _Dest)));
; 483  : 	}

  0001d	8b e5		 mov	 esp, ebp
  0001f	5d		 pop	 ebp
  00020	c3		 ret	 0
??$_Uninit_move@PAUNoticeRotateInfo@@PAU1@U?$_Wrap_alloc@V?$allocator@UNoticeRotateInfo@@@std@@@std@@@std@@YAPAUNoticeRotateInfo@@PAU1@00AAU?$_Wrap_alloc@V?$allocator@UNoticeRotateInfo@@@std@@@0@@Z ENDP ; std::_Uninit_move<NoticeRotateInfo *,NoticeRotateInfo *,std::_Wrap_alloc<std::allocator<NoticeRotateInfo> > >
_TEXT	ENDS
; Function compile flags: /Ogtp
; File c:\program files (x86)\microsoft visual studio 14.0\vc\include\xutility
;	COMDAT ??$_Unchecked@PAUNoticeRotateInfo@@@std@@YAPAUNoticeRotateInfo@@PAU1@@Z
_TEXT	SEGMENT
__Src$ = 8						; size = 4
??$_Unchecked@PAUNoticeRotateInfo@@@std@@YAPAUNoticeRotateInfo@@PAU1@@Z PROC ; std::_Unchecked<NoticeRotateInfo *>, COMDAT

; 438  : 	{	// construct unchecked from checked, generic

  00000	55		 push	 ebp
  00001	8b ec		 mov	 ebp, esp

; 439  : 	return (_Src);

  00003	8b 45 08	 mov	 eax, DWORD PTR __Src$[ebp]

; 440  : 	}

  00006	5d		 pop	 ebp
  00007	c3		 ret	 0
??$_Unchecked@PAUNoticeRotateInfo@@@std@@YAPAUNoticeRotateInfo@@PAU1@@Z ENDP ; std::_Unchecked<NoticeRotateInfo *>
_TEXT	ENDS
; Function compile flags: /Ogtp
; File c:\program files (x86)\microsoft visual studio 14.0\vc\include\xmemory0
;	COMDAT ??$destroy@UNoticeConnectInfo@@@?$_Wrap_alloc@V?$allocator@UNoticeConnectInfo@@@std@@@std@@QAEXPAUNoticeConnectInfo@@@Z
_TEXT	SEGMENT
__Ptr$ = 8						; size = 4
??$destroy@UNoticeConnectInfo@@@?$_Wrap_alloc@V?$allocator@UNoticeConnectInfo@@@std@@@std@@QAEXPAUNoticeConnectInfo@@@Z PROC ; std::_Wrap_alloc<std::allocator<NoticeConnectInfo> >::destroy<NoticeConnectInfo>, COMDAT
; _this$ = ecx

; 925  : 		_Mytraits::destroy(*this, _Ptr);
; 926  : 		}

  00000	c2 04 00	 ret	 4
??$destroy@UNoticeConnectInfo@@@?$_Wrap_alloc@V?$allocator@UNoticeConnectInfo@@@std@@@std@@QAEXPAUNoticeConnectInfo@@@Z ENDP ; std::_Wrap_alloc<std::allocator<NoticeConnectInfo> >::destroy<NoticeConnectInfo>
_TEXT	ENDS
; Function compile flags: /Ogtp
; File c:\program files (x86)\microsoft visual studio 14.0\vc\include\xstddef
;	COMDAT ??$addressof@UNoticeConnectInfo@@@std@@YAPAUNoticeConnectInfo@@AAU1@@Z
_TEXT	SEGMENT
__Val$ = 8						; size = 4
??$addressof@UNoticeConnectInfo@@@std@@YAPAUNoticeConnectInfo@@AAU1@@Z PROC ; std::addressof<NoticeConnectInfo>, COMDAT

; 696  : 	{	// return address of _Val

  00000	55		 push	 ebp
  00001	8b ec		 mov	 ebp, esp

; 697  : 	return (_Addressof(_Val, is_function<_Ty>()));

  00003	8b 45 08	 mov	 eax, DWORD PTR __Val$[ebp]

; 698  : 	}

  00006	5d		 pop	 ebp
  00007	c3		 ret	 0
??$addressof@UNoticeConnectInfo@@@std@@YAPAUNoticeConnectInfo@@AAU1@@Z ENDP ; std::addressof<NoticeConnectInfo>
_TEXT	ENDS
; Function compile flags: /Ogtp
; File c:\program files (x86)\microsoft visual studio 14.0\vc\include\xmemory0
;	COMDAT ??$destroy@UNoticeRotateInfo@@@?$_Wrap_alloc@V?$allocator@UNoticeRotateInfo@@@std@@@std@@QAEXPAUNoticeRotateInfo@@@Z
_TEXT	SEGMENT
__Ptr$ = 8						; size = 4
??$destroy@UNoticeRotateInfo@@@?$_Wrap_alloc@V?$allocator@UNoticeRotateInfo@@@std@@@std@@QAEXPAUNoticeRotateInfo@@@Z PROC ; std::_Wrap_alloc<std::allocator<NoticeRotateInfo> >::destroy<NoticeRotateInfo>, COMDAT
; _this$ = ecx

; 925  : 		_Mytraits::destroy(*this, _Ptr);
; 926  : 		}

  00000	c2 04 00	 ret	 4
??$destroy@UNoticeRotateInfo@@@?$_Wrap_alloc@V?$allocator@UNoticeRotateInfo@@@std@@@std@@QAEXPAUNoticeRotateInfo@@@Z ENDP ; std::_Wrap_alloc<std::allocator<NoticeRotateInfo> >::destroy<NoticeRotateInfo>
_TEXT	ENDS
; Function compile flags: /Ogtp
; File c:\program files (x86)\microsoft visual studio 14.0\vc\include\xstddef
;	COMDAT ??$addressof@UNoticeRotateInfo@@@std@@YAPAUNoticeRotateInfo@@AAU1@@Z
_TEXT	SEGMENT
__Val$ = 8						; size = 4
??$addressof@UNoticeRotateInfo@@@std@@YAPAUNoticeRotateInfo@@AAU1@@Z PROC ; std::addressof<NoticeRotateInfo>, COMDAT

; 696  : 	{	// return address of _Val

  00000	55		 push	 ebp
  00001	8b ec		 mov	 ebp, esp

; 697  : 	return (_Addressof(_Val, is_function<_Ty>()));

  00003	8b 45 08	 mov	 eax, DWORD PTR __Val$[ebp]

; 698  : 	}

  00006	5d		 pop	 ebp
  00007	c3		 ret	 0
??$addressof@UNoticeRotateInfo@@@std@@YAPAUNoticeRotateInfo@@AAU1@@Z ENDP ; std::addressof<NoticeRotateInfo>
_TEXT	ENDS
; Function compile flags: /Ogtp
; File c:\program files (x86)\microsoft visual studio 14.0\vc\include\xmemory0
;	COMDAT ??$construct@UNoticeConnectInfo@@ABU1@@?$allocator@UNoticeConnectInfo@@@std@@QAEXPAUNoticeConnectInfo@@ABU2@@Z
_TEXT	SEGMENT
__Ptr$ = 8						; size = 4
_<_Args_0>$ = 12					; size = 4
??$construct@UNoticeConnectInfo@@ABU1@@?$allocator@UNoticeConnectInfo@@@std@@QAEXPAUNoticeConnectInfo@@ABU2@@Z PROC ; std::allocator<NoticeConnectInfo>::construct<NoticeConnectInfo,NoticeConnectInfo const &>, COMDAT
; _this$ = ecx

; 654  : 		{	// construct _Objty(_Types...) at _Ptr

  00000	55		 push	 ebp
  00001	8b ec		 mov	 ebp, esp
  00003	57		 push	 edi

; 655  : 		::new ((void *)_Ptr) _Objty(_STD forward<_Types>(_Args)...);

  00004	8b 7d 08	 mov	 edi, DWORD PTR __Ptr$[ebp]
  00007	85 ff		 test	 edi, edi
  00009	74 0d		 je	 SHORT $LN3@construct
  0000b	56		 push	 esi
  0000c	8b 75 0c	 mov	 esi, DWORD PTR _<_Args_0>$[ebp]
  0000f	b9 19 00 00 00	 mov	 ecx, 25			; 00000019H
  00014	f3 a5		 rep movsd
  00016	a4		 movsb
  00017	5e		 pop	 esi
$LN3@construct:
  00018	5f		 pop	 edi

; 656  : 		}

  00019	5d		 pop	 ebp
  0001a	c2 08 00	 ret	 8
??$construct@UNoticeConnectInfo@@ABU1@@?$allocator@UNoticeConnectInfo@@@std@@QAEXPAUNoticeConnectInfo@@ABU2@@Z ENDP ; std::allocator<NoticeConnectInfo>::construct<NoticeConnectInfo,NoticeConnectInfo const &>
_TEXT	ENDS
; Function compile flags: /Ogtp
; File c:\program files (x86)\microsoft visual studio 14.0\vc\include\xmemory0
;	COMDAT ??$construct@UNoticeConnectInfo@@AAU1@@?$allocator@UNoticeConnectInfo@@@std@@QAEXPAUNoticeConnectInfo@@AAU2@@Z
_TEXT	SEGMENT
__Ptr$ = 8						; size = 4
_<_Args_0>$ = 12					; size = 4
??$construct@UNoticeConnectInfo@@AAU1@@?$allocator@UNoticeConnectInfo@@@std@@QAEXPAUNoticeConnectInfo@@AAU2@@Z PROC ; std::allocator<NoticeConnectInfo>::construct<NoticeConnectInfo,NoticeConnectInfo &>, COMDAT
; _this$ = ecx

; 654  : 		{	// construct _Objty(_Types...) at _Ptr

  00000	55		 push	 ebp
  00001	8b ec		 mov	 ebp, esp
  00003	57		 push	 edi

; 655  : 		::new ((void *)_Ptr) _Objty(_STD forward<_Types>(_Args)...);

  00004	8b 7d 08	 mov	 edi, DWORD PTR __Ptr$[ebp]
  00007	85 ff		 test	 edi, edi
  00009	74 0d		 je	 SHORT $LN3@construct
  0000b	56		 push	 esi
  0000c	8b 75 0c	 mov	 esi, DWORD PTR _<_Args_0>$[ebp]
  0000f	b9 19 00 00 00	 mov	 ecx, 25			; 00000019H
  00014	f3 a5		 rep movsd
  00016	a4		 movsb
  00017	5e		 pop	 esi
$LN3@construct:
  00018	5f		 pop	 edi

; 656  : 		}

  00019	5d		 pop	 ebp
  0001a	c2 08 00	 ret	 8
??$construct@UNoticeConnectInfo@@AAU1@@?$allocator@UNoticeConnectInfo@@@std@@QAEXPAUNoticeConnectInfo@@AAU2@@Z ENDP ; std::allocator<NoticeConnectInfo>::construct<NoticeConnectInfo,NoticeConnectInfo &>
_TEXT	ENDS
; Function compile flags: /Ogtp
; File c:\program files (x86)\microsoft visual studio 14.0\vc\include\xmemory0
;	COMDAT ??$construct@UNoticeRotateInfo@@ABU1@@?$allocator@UNoticeRotateInfo@@@std@@QAEXPAUNoticeRotateInfo@@ABU2@@Z
_TEXT	SEGMENT
__Ptr$ = 8						; size = 4
_<_Args_0>$ = 12					; size = 4
??$construct@UNoticeRotateInfo@@ABU1@@?$allocator@UNoticeRotateInfo@@@std@@QAEXPAUNoticeRotateInfo@@ABU2@@Z PROC ; std::allocator<NoticeRotateInfo>::construct<NoticeRotateInfo,NoticeRotateInfo const &>, COMDAT
; _this$ = ecx

; 654  : 		{	// construct _Objty(_Types...) at _Ptr

  00000	55		 push	 ebp
  00001	8b ec		 mov	 ebp, esp
  00003	57		 push	 edi

; 655  : 		::new ((void *)_Ptr) _Objty(_STD forward<_Types>(_Args)...);

  00004	8b 7d 08	 mov	 edi, DWORD PTR __Ptr$[ebp]
  00007	85 ff		 test	 edi, edi
  00009	74 0c		 je	 SHORT $LN3@construct
  0000b	56		 push	 esi
  0000c	8b 75 0c	 mov	 esi, DWORD PTR _<_Args_0>$[ebp]
  0000f	b9 1b 00 00 00	 mov	 ecx, 27			; 0000001bH
  00014	f3 a5		 rep movsd
  00016	5e		 pop	 esi
$LN3@construct:
  00017	5f		 pop	 edi

; 656  : 		}

  00018	5d		 pop	 ebp
  00019	c2 08 00	 ret	 8
??$construct@UNoticeRotateInfo@@ABU1@@?$allocator@UNoticeRotateInfo@@@std@@QAEXPAUNoticeRotateInfo@@ABU2@@Z ENDP ; std::allocator<NoticeRotateInfo>::construct<NoticeRotateInfo,NoticeRotateInfo const &>
_TEXT	ENDS
; Function compile flags: /Ogtp
; File c:\program files (x86)\microsoft visual studio 14.0\vc\include\xmemory0
;	COMDAT ??$construct@UNoticeRotateInfo@@AAU1@@?$allocator@UNoticeRotateInfo@@@std@@QAEXPAUNoticeRotateInfo@@AAU2@@Z
_TEXT	SEGMENT
__Ptr$ = 8						; size = 4
_<_Args_0>$ = 12					; size = 4
??$construct@UNoticeRotateInfo@@AAU1@@?$allocator@UNoticeRotateInfo@@@std@@QAEXPAUNoticeRotateInfo@@AAU2@@Z PROC ; std::allocator<NoticeRotateInfo>::construct<NoticeRotateInfo,NoticeRotateInfo &>, COMDAT
; _this$ = ecx

; 654  : 		{	// construct _Objty(_Types...) at _Ptr

  00000	55		 push	 ebp
  00001	8b ec		 mov	 ebp, esp
  00003	57		 push	 edi

; 655  : 		::new ((void *)_Ptr) _Objty(_STD forward<_Types>(_Args)...);

  00004	8b 7d 08	 mov	 edi, DWORD PTR __Ptr$[ebp]
  00007	85 ff		 test	 edi, edi
  00009	74 0c		 je	 SHORT $LN3@construct
  0000b	56		 push	 esi
  0000c	8b 75 0c	 mov	 esi, DWORD PTR _<_Args_0>$[ebp]
  0000f	b9 1b 00 00 00	 mov	 ecx, 27			; 0000001bH
  00014	f3 a5		 rep movsd
  00016	5e		 pop	 esi
$LN3@construct:
  00017	5f		 pop	 edi

; 656  : 		}

  00018	5d		 pop	 ebp
  00019	c2 08 00	 ret	 8
??$construct@UNoticeRotateInfo@@AAU1@@?$allocator@UNoticeRotateInfo@@@std@@QAEXPAUNoticeRotateInfo@@AAU2@@Z ENDP ; std::allocator<NoticeRotateInfo>::construct<NoticeRotateInfo,NoticeRotateInfo &>
_TEXT	ENDS
; Function compile flags: /Ogtp
; File c:\program files (x86)\microsoft visual studio 14.0\vc\include\type_traits
;	COMDAT ??$_Move@AAPAUNoticeConnectInfo@@@std@@YA$$QAPAUNoticeConnectInfo@@AAPAU1@@Z
_TEXT	SEGMENT
__Arg$ = 8						; size = 4
??$_Move@AAPAUNoticeConnectInfo@@@std@@YA$$QAPAUNoticeConnectInfo@@AAPAU1@@Z PROC ; std::_Move<NoticeConnectInfo * &>, COMDAT

; 1257 : 	{	// forward _Arg as movable

  00000	55		 push	 ebp
  00001	8b ec		 mov	 ebp, esp

; 1258 : 	return (static_cast<typename remove_reference<_Ty>::type&&>(_Arg));

  00003	8b 45 08	 mov	 eax, DWORD PTR __Arg$[ebp]

; 1259 : 	}

  00006	5d		 pop	 ebp
  00007	c3		 ret	 0
??$_Move@AAPAUNoticeConnectInfo@@@std@@YA$$QAPAUNoticeConnectInfo@@AAPAU1@@Z ENDP ; std::_Move<NoticeConnectInfo * &>
_TEXT	ENDS
; Function compile flags: /Ogtp
; File c:\program files (x86)\microsoft visual studio 14.0\vc\include\type_traits
;	COMDAT ??$_Move@AAPAUNoticeRotateInfo@@@std@@YA$$QAPAUNoticeRotateInfo@@AAPAU1@@Z
_TEXT	SEGMENT
__Arg$ = 8						; size = 4
??$_Move@AAPAUNoticeRotateInfo@@@std@@YA$$QAPAUNoticeRotateInfo@@AAPAU1@@Z PROC ; std::_Move<NoticeRotateInfo * &>, COMDAT

; 1257 : 	{	// forward _Arg as movable

  00000	55		 push	 ebp
  00001	8b ec		 mov	 ebp, esp

; 1258 : 	return (static_cast<typename remove_reference<_Ty>::type&&>(_Arg));

  00003	8b 45 08	 mov	 eax, DWORD PTR __Arg$[ebp]

; 1259 : 	}

  00006	5d		 pop	 ebp
  00007	c3		 ret	 0
??$_Move@AAPAUNoticeRotateInfo@@@std@@YA$$QAPAUNoticeRotateInfo@@AAPAU1@@Z ENDP ; std::_Move<NoticeRotateInfo * &>
_TEXT	ENDS
; Function compile flags: /Ogtp
; File c:\program files (x86)\microsoft visual studio 14.0\vc\include\xmemory
;	COMDAT ??$_Uninitialized_move@PAUNoticeConnectInfo@@PAU1@U?$_Wrap_alloc@V?$allocator@UNoticeConnectInfo@@@std@@@std@@@std@@YAPAUNoticeConnectInfo@@PAU1@00AAU?$_Wrap_alloc@V?$allocator@UNoticeConnectInfo@@@std@@@0@@Z
_TEXT	SEGMENT
__First$ = 8						; size = 4
__Last$ = 12						; size = 4
__Cat$1 = 16						; size = 1
__Dest$ = 16						; size = 4
__Al$ = 20						; size = 4
??$_Uninitialized_move@PAUNoticeConnectInfo@@PAU1@U?$_Wrap_alloc@V?$allocator@UNoticeConnectInfo@@@std@@@std@@@std@@YAPAUNoticeConnectInfo@@PAU1@00AAU?$_Wrap_alloc@V?$allocator@UNoticeConnectInfo@@@std@@@0@@Z PROC ; std::_Uninitialized_move<NoticeConnectInfo *,NoticeConnectInfo *,std::_Wrap_alloc<std::allocator<NoticeConnectInfo> > >, COMDAT

; 490  : 	{	// move [_First, _Last) to raw _Dest, using _Al

  00000	55		 push	 ebp
  00001	8b ec		 mov	 ebp, esp

; 481  : 	return (_Uninit_move(_First, _Last, _Dest, _Al,

  00003	ff 75 10	 push	 DWORD PTR __Cat$1[ebp]
  00006	6a 00		 push	 0
  00008	ff 75 14	 push	 DWORD PTR __Al$[ebp]
  0000b	ff 75 10	 push	 DWORD PTR __Dest$[ebp]
  0000e	ff 75 0c	 push	 DWORD PTR __Last$[ebp]
  00011	ff 75 08	 push	 DWORD PTR __First$[ebp]
  00014	e8 00 00 00 00	 call	 ??$_Uninit_move@PAUNoticeConnectInfo@@PAU1@V?$allocator@UNoticeConnectInfo@@@std@@U1@@std@@YAPAUNoticeConnectInfo@@PAU1@00AAU?$_Wrap_alloc@V?$allocator@UNoticeConnectInfo@@@std@@@0@0U_Nonscalar_ptr_iterator_tag@0@@Z ; std::_Uninit_move<NoticeConnectInfo *,NoticeConnectInfo *,std::allocator<NoticeConnectInfo>,NoticeConnectInfo>
  00019	83 c4 18	 add	 esp, 24			; 00000018H

; 491  : 	return (_Rechecked(_Dest,
; 492  : 		_Uninit_move(_Unchecked(_First), _Unchecked(_Last),
; 493  : 			_Unchecked(_Dest), _Al)));
; 494  : 	}

  0001c	5d		 pop	 ebp
  0001d	c3		 ret	 0
??$_Uninitialized_move@PAUNoticeConnectInfo@@PAU1@U?$_Wrap_alloc@V?$allocator@UNoticeConnectInfo@@@std@@@std@@@std@@YAPAUNoticeConnectInfo@@PAU1@00AAU?$_Wrap_alloc@V?$allocator@UNoticeConnectInfo@@@std@@@0@@Z ENDP ; std::_Uninitialized_move<NoticeConnectInfo *,NoticeConnectInfo *,std::_Wrap_alloc<std::allocator<NoticeConnectInfo> > >
_TEXT	ENDS
; Function compile flags: /Ogtp
; File c:\program files (x86)\microsoft visual studio 14.0\vc\include\xmemory
;	COMDAT ??$_Uninitialized_move@PAUNoticeRotateInfo@@PAU1@U?$_Wrap_alloc@V?$allocator@UNoticeRotateInfo@@@std@@@std@@@std@@YAPAUNoticeRotateInfo@@PAU1@00AAU?$_Wrap_alloc@V?$allocator@UNoticeRotateInfo@@@std@@@0@@Z
_TEXT	SEGMENT
__First$ = 8						; size = 4
__Last$ = 12						; size = 4
__Cat$1 = 16						; size = 1
__Dest$ = 16						; size = 4
__Al$ = 20						; size = 4
??$_Uninitialized_move@PAUNoticeRotateInfo@@PAU1@U?$_Wrap_alloc@V?$allocator@UNoticeRotateInfo@@@std@@@std@@@std@@YAPAUNoticeRotateInfo@@PAU1@00AAU?$_Wrap_alloc@V?$allocator@UNoticeRotateInfo@@@std@@@0@@Z PROC ; std::_Uninitialized_move<NoticeRotateInfo *,NoticeRotateInfo *,std::_Wrap_alloc<std::allocator<NoticeRotateInfo> > >, COMDAT

; 490  : 	{	// move [_First, _Last) to raw _Dest, using _Al

  00000	55		 push	 ebp
  00001	8b ec		 mov	 ebp, esp

; 481  : 	return (_Uninit_move(_First, _Last, _Dest, _Al,

  00003	ff 75 10	 push	 DWORD PTR __Cat$1[ebp]
  00006	6a 00		 push	 0
  00008	ff 75 14	 push	 DWORD PTR __Al$[ebp]
  0000b	ff 75 10	 push	 DWORD PTR __Dest$[ebp]
  0000e	ff 75 0c	 push	 DWORD PTR __Last$[ebp]
  00011	ff 75 08	 push	 DWORD PTR __First$[ebp]
  00014	e8 00 00 00 00	 call	 ??$_Uninit_move@PAUNoticeRotateInfo@@PAU1@V?$allocator@UNoticeRotateInfo@@@std@@U1@@std@@YAPAUNoticeRotateInfo@@PAU1@00AAU?$_Wrap_alloc@V?$allocator@UNoticeRotateInfo@@@std@@@0@0U_Nonscalar_ptr_iterator_tag@0@@Z ; std::_Uninit_move<NoticeRotateInfo *,NoticeRotateInfo *,std::allocator<NoticeRotateInfo>,NoticeRotateInfo>
  00019	83 c4 18	 add	 esp, 24			; 00000018H

; 491  : 	return (_Rechecked(_Dest,
; 492  : 		_Uninit_move(_Unchecked(_First), _Unchecked(_Last),
; 493  : 			_Unchecked(_Dest), _Al)));
; 494  : 	}

  0001c	5d		 pop	 ebp
  0001d	c3		 ret	 0
??$_Uninitialized_move@PAUNoticeRotateInfo@@PAU1@U?$_Wrap_alloc@V?$allocator@UNoticeRotateInfo@@@std@@@std@@@std@@YAPAUNoticeRotateInfo@@PAU1@00AAU?$_Wrap_alloc@V?$allocator@UNoticeRotateInfo@@@std@@@0@@Z ENDP ; std::_Uninitialized_move<NoticeRotateInfo *,NoticeRotateInfo *,std::_Wrap_alloc<std::allocator<NoticeRotateInfo> > >
_TEXT	ENDS
; Function compile flags: /Ogtp
; File c:\program files (x86)\microsoft visual studio 14.0\vc\include\xmemory0
;	COMDAT ??$_Destroy_range@U?$_Wrap_alloc@V?$allocator@UNoticeConnectInfo@@@std@@@std@@@std@@YAXPAUNoticeConnectInfo@@0AAU?$_Wrap_alloc@V?$allocator@UNoticeConnectInfo@@@std@@@0@U_Nonscalar_ptr_iterator_tag@0@@Z
_TEXT	SEGMENT
__First$ = 8						; size = 4
__Last$ = 12						; size = 4
__Al$ = 16						; size = 4
___formal$ = 20						; size = 1
??$_Destroy_range@U?$_Wrap_alloc@V?$allocator@UNoticeConnectInfo@@@std@@@std@@@std@@YAXPAUNoticeConnectInfo@@0AAU?$_Wrap_alloc@V?$allocator@UNoticeConnectInfo@@@std@@@0@U_Nonscalar_ptr_iterator_tag@0@@Z PROC ; std::_Destroy_range<std::_Wrap_alloc<std::allocator<NoticeConnectInfo> > >, COMDAT

; 171  : 	for (; _First != _Last; ++_First)
; 172  : 		_Al.destroy(_STD addressof(*_First));
; 173  : 	}

  00000	c3		 ret	 0
??$_Destroy_range@U?$_Wrap_alloc@V?$allocator@UNoticeConnectInfo@@@std@@@std@@@std@@YAXPAUNoticeConnectInfo@@0AAU?$_Wrap_alloc@V?$allocator@UNoticeConnectInfo@@@std@@@0@U_Nonscalar_ptr_iterator_tag@0@@Z ENDP ; std::_Destroy_range<std::_Wrap_alloc<std::allocator<NoticeConnectInfo> > >
_TEXT	ENDS
; Function compile flags: /Ogtp
; File c:\program files (x86)\microsoft visual studio 14.0\vc\include\xutility
;	COMDAT ??$_Ptr_cat@UNoticeConnectInfo@@U1@@std@@YA?AU_Nonscalar_ptr_iterator_tag@0@PAUNoticeConnectInfo@@0@Z
_TEXT	SEGMENT
__Cat$ = -1						; size = 1
___formal$ = 8						; size = 4
___formal$ = 12						; size = 4
??$_Ptr_cat@UNoticeConnectInfo@@U1@@std@@YA?AU_Nonscalar_ptr_iterator_tag@0@PAUNoticeConnectInfo@@0@Z PROC ; std::_Ptr_cat<NoticeConnectInfo,NoticeConnectInfo>, COMDAT

; 640  : 	{	// return pointer category from pointers

  00000	55		 push	 ebp
  00001	8b ec		 mov	 ebp, esp
  00003	51		 push	 ecx

; 641  : 	typename _Ptr_cat_helper<_Elem1, _Elem2>::type _Cat;
; 642  : 	return (_Cat);

  00004	8a 45 ff	 mov	 al, BYTE PTR __Cat$[ebp]

; 643  : 	}

  00007	8b e5		 mov	 esp, ebp
  00009	5d		 pop	 ebp
  0000a	c3		 ret	 0
??$_Ptr_cat@UNoticeConnectInfo@@U1@@std@@YA?AU_Nonscalar_ptr_iterator_tag@0@PAUNoticeConnectInfo@@0@Z ENDP ; std::_Ptr_cat<NoticeConnectInfo,NoticeConnectInfo>
_TEXT	ENDS
; Function compile flags: /Ogtp
; File c:\program files (x86)\microsoft visual studio 14.0\vc\include\type_traits
;	COMDAT ??$forward@ABV?$allocator@UNoticeConnectInfo@@@std@@@std@@YAABV?$allocator@UNoticeConnectInfo@@@0@ABV10@@Z
_TEXT	SEGMENT
__Arg$ = 8						; size = 4
??$forward@ABV?$allocator@UNoticeConnectInfo@@@std@@@std@@YAABV?$allocator@UNoticeConnectInfo@@@0@ABV10@@Z PROC ; std::forward<std::allocator<NoticeConnectInfo> const &>, COMDAT

; 1233 : 	{	// forward an lvalue as either an lvalue or an rvalue

  00000	55		 push	 ebp
  00001	8b ec		 mov	 ebp, esp

; 1234 : 	return (static_cast<_Ty&&>(_Arg));

  00003	8b 45 08	 mov	 eax, DWORD PTR __Arg$[ebp]

; 1235 : 	}

  00006	5d		 pop	 ebp
  00007	c3		 ret	 0
??$forward@ABV?$allocator@UNoticeConnectInfo@@@std@@@std@@YAABV?$allocator@UNoticeConnectInfo@@@0@ABV10@@Z ENDP ; std::forward<std::allocator<NoticeConnectInfo> const &>
_TEXT	ENDS
; Function compile flags: /Ogtp
; File c:\program files (x86)\microsoft visual studio 14.0\vc\include\xmemory0
;	COMDAT ??$_Pocs@U?$_Wrap_alloc@V?$allocator@UNoticeConnectInfo@@@std@@@std@@@std@@YAXAAU?$_Wrap_alloc@V?$allocator@UNoticeConnectInfo@@@std@@@0@0U?$integral_constant@_N$0A@@0@@Z
_TEXT	SEGMENT
___formal$ = 8						; size = 4
___formal$ = 12						; size = 4
___formal$ = 16						; size = 1
??$_Pocs@U?$_Wrap_alloc@V?$allocator@UNoticeConnectInfo@@@std@@@std@@@std@@YAXAAU?$_Wrap_alloc@V?$allocator@UNoticeConnectInfo@@@std@@@0@0U?$integral_constant@_N$0A@@0@@Z PROC ; std::_Pocs<std::_Wrap_alloc<std::allocator<NoticeConnectInfo> > >, COMDAT

; 999  : 	}

  00000	c3		 ret	 0
??$_Pocs@U?$_Wrap_alloc@V?$allocator@UNoticeConnectInfo@@@std@@@std@@@std@@YAXAAU?$_Wrap_alloc@V?$allocator@UNoticeConnectInfo@@@std@@@0@0U?$integral_constant@_N$0A@@0@@Z ENDP ; std::_Pocs<std::_Wrap_alloc<std::allocator<NoticeConnectInfo> > >
_TEXT	ENDS
; Function compile flags: /Ogtp
; File c:\program files (x86)\microsoft visual studio 14.0\vc\include\xmemory0
;	COMDAT ??$_Destroy_range@U?$_Wrap_alloc@V?$allocator@UNoticeRotateInfo@@@std@@@std@@@std@@YAXPAUNoticeRotateInfo@@0AAU?$_Wrap_alloc@V?$allocator@UNoticeRotateInfo@@@std@@@0@U_Nonscalar_ptr_iterator_tag@0@@Z
_TEXT	SEGMENT
__First$ = 8						; size = 4
__Last$ = 12						; size = 4
__Al$ = 16						; size = 4
___formal$ = 20						; size = 1
??$_Destroy_range@U?$_Wrap_alloc@V?$allocator@UNoticeRotateInfo@@@std@@@std@@@std@@YAXPAUNoticeRotateInfo@@0AAU?$_Wrap_alloc@V?$allocator@UNoticeRotateInfo@@@std@@@0@U_Nonscalar_ptr_iterator_tag@0@@Z PROC ; std::_Destroy_range<std::_Wrap_alloc<std::allocator<NoticeRotateInfo> > >, COMDAT

; 171  : 	for (; _First != _Last; ++_First)
; 172  : 		_Al.destroy(_STD addressof(*_First));
; 173  : 	}

  00000	c3		 ret	 0
??$_Destroy_range@U?$_Wrap_alloc@V?$allocator@UNoticeRotateInfo@@@std@@@std@@@std@@YAXPAUNoticeRotateInfo@@0AAU?$_Wrap_alloc@V?$allocator@UNoticeRotateInfo@@@std@@@0@U_Nonscalar_ptr_iterator_tag@0@@Z ENDP ; std::_Destroy_range<std::_Wrap_alloc<std::allocator<NoticeRotateInfo> > >
_TEXT	ENDS
; Function compile flags: /Ogtp
; File c:\program files (x86)\microsoft visual studio 14.0\vc\include\xutility
;	COMDAT ??$_Ptr_cat@UNoticeRotateInfo@@U1@@std@@YA?AU_Nonscalar_ptr_iterator_tag@0@PAUNoticeRotateInfo@@0@Z
_TEXT	SEGMENT
__Cat$ = -1						; size = 1
___formal$ = 8						; size = 4
___formal$ = 12						; size = 4
??$_Ptr_cat@UNoticeRotateInfo@@U1@@std@@YA?AU_Nonscalar_ptr_iterator_tag@0@PAUNoticeRotateInfo@@0@Z PROC ; std::_Ptr_cat<NoticeRotateInfo,NoticeRotateInfo>, COMDAT

; 640  : 	{	// return pointer category from pointers

  00000	55		 push	 ebp
  00001	8b ec		 mov	 ebp, esp
  00003	51		 push	 ecx

; 641  : 	typename _Ptr_cat_helper<_Elem1, _Elem2>::type _Cat;
; 642  : 	return (_Cat);

  00004	8a 45 ff	 mov	 al, BYTE PTR __Cat$[ebp]

; 643  : 	}

  00007	8b e5		 mov	 esp, ebp
  00009	5d		 pop	 ebp
  0000a	c3		 ret	 0
??$_Ptr_cat@UNoticeRotateInfo@@U1@@std@@YA?AU_Nonscalar_ptr_iterator_tag@0@PAUNoticeRotateInfo@@0@Z ENDP ; std::_Ptr_cat<NoticeRotateInfo,NoticeRotateInfo>
_TEXT	ENDS
; Function compile flags: /Ogtp
; File c:\program files (x86)\microsoft visual studio 14.0\vc\include\type_traits
;	COMDAT ??$forward@ABV?$allocator@UNoticeRotateInfo@@@std@@@std@@YAABV?$allocator@UNoticeRotateInfo@@@0@ABV10@@Z
_TEXT	SEGMENT
__Arg$ = 8						; size = 4
??$forward@ABV?$allocator@UNoticeRotateInfo@@@std@@@std@@YAABV?$allocator@UNoticeRotateInfo@@@0@ABV10@@Z PROC ; std::forward<std::allocator<NoticeRotateInfo> const &>, COMDAT

; 1233 : 	{	// forward an lvalue as either an lvalue or an rvalue

  00000	55		 push	 ebp
  00001	8b ec		 mov	 ebp, esp

; 1234 : 	return (static_cast<_Ty&&>(_Arg));

  00003	8b 45 08	 mov	 eax, DWORD PTR __Arg$[ebp]

; 1235 : 	}

  00006	5d		 pop	 ebp
  00007	c3		 ret	 0
??$forward@ABV?$allocator@UNoticeRotateInfo@@@std@@@std@@YAABV?$allocator@UNoticeRotateInfo@@@0@ABV10@@Z ENDP ; std::forward<std::allocator<NoticeRotateInfo> const &>
_TEXT	ENDS
; Function compile flags: /Ogtp
; File c:\program files (x86)\microsoft visual studio 14.0\vc\include\xmemory0
;	COMDAT ??$_Pocs@U?$_Wrap_alloc@V?$allocator@UNoticeRotateInfo@@@std@@@std@@@std@@YAXAAU?$_Wrap_alloc@V?$allocator@UNoticeRotateInfo@@@std@@@0@0U?$integral_constant@_N$0A@@0@@Z
_TEXT	SEGMENT
___formal$ = 8						; size = 4
___formal$ = 12						; size = 4
___formal$ = 16						; size = 1
??$_Pocs@U?$_Wrap_alloc@V?$allocator@UNoticeRotateInfo@@@std@@@std@@@std@@YAXAAU?$_Wrap_alloc@V?$allocator@UNoticeRotateInfo@@@std@@@0@0U?$integral_constant@_N$0A@@0@@Z PROC ; std::_Pocs<std::_Wrap_alloc<std::allocator<NoticeRotateInfo> > >, COMDAT

; 999  : 	}

  00000	c3		 ret	 0
??$_Pocs@U?$_Wrap_alloc@V?$allocator@UNoticeRotateInfo@@@std@@@std@@@std@@YAXAAU?$_Wrap_alloc@V?$allocator@UNoticeRotateInfo@@@std@@@0@0U?$integral_constant@_N$0A@@0@@Z ENDP ; std::_Pocs<std::_Wrap_alloc<std::allocator<NoticeRotateInfo> > >
_TEXT	ENDS
; Function compile flags: /Ogtp
; File c:\program files (x86)\microsoft visual studio 14.0\vc\include\xmemory0
;	COMDAT ??$construct@UNoticeConnectInfo@@ABU1@@?$allocator_traits@V?$allocator@UNoticeConnectInfo@@@std@@@std@@SAXAAV?$allocator@UNoticeConnectInfo@@@1@PAUNoticeConnectInfo@@ABU3@@Z
_TEXT	SEGMENT
__Al$ = 8						; size = 4
__Ptr$ = 12						; size = 4
_<_Args_0>$ = 16					; size = 4
??$construct@UNoticeConnectInfo@@ABU1@@?$allocator_traits@V?$allocator@UNoticeConnectInfo@@@std@@@std@@SAXAAV?$allocator@UNoticeConnectInfo@@@1@PAUNoticeConnectInfo@@ABU3@@Z PROC ; std::allocator_traits<std::allocator<NoticeConnectInfo> >::construct<NoticeConnectInfo,NoticeConnectInfo const &>, COMDAT

; 772  : 		{	// construct _Objty(_Types...) at _Ptr

  00000	55		 push	 ebp
  00001	8b ec		 mov	 ebp, esp
  00003	57		 push	 edi

; 655  : 		::new ((void *)_Ptr) _Objty(_STD forward<_Types>(_Args)...);

  00004	8b 7d 0c	 mov	 edi, DWORD PTR __Ptr$[ebp]
  00007	85 ff		 test	 edi, edi
  00009	74 0d		 je	 SHORT $LN8@construct
  0000b	56		 push	 esi
  0000c	8b 75 10	 mov	 esi, DWORD PTR _<_Args_0>$[ebp]
  0000f	b9 19 00 00 00	 mov	 ecx, 25			; 00000019H
  00014	f3 a5		 rep movsd
  00016	a4		 movsb
  00017	5e		 pop	 esi
$LN8@construct:
  00018	5f		 pop	 edi

; 773  : 		_Al.construct(_Ptr, _STD forward<_Types>(_Args)...);
; 774  : 		}

  00019	5d		 pop	 ebp
  0001a	c3		 ret	 0
??$construct@UNoticeConnectInfo@@ABU1@@?$allocator_traits@V?$allocator@UNoticeConnectInfo@@@std@@@std@@SAXAAV?$allocator@UNoticeConnectInfo@@@1@PAUNoticeConnectInfo@@ABU3@@Z ENDP ; std::allocator_traits<std::allocator<NoticeConnectInfo> >::construct<NoticeConnectInfo,NoticeConnectInfo const &>
_TEXT	ENDS
; Function compile flags: /Ogtp
; File c:\program files (x86)\microsoft visual studio 14.0\vc\include\type_traits
;	COMDAT ??$forward@ABUNoticeConnectInfo@@@std@@YAABUNoticeConnectInfo@@ABU1@@Z
_TEXT	SEGMENT
__Arg$ = 8						; size = 4
??$forward@ABUNoticeConnectInfo@@@std@@YAABUNoticeConnectInfo@@ABU1@@Z PROC ; std::forward<NoticeConnectInfo const &>, COMDAT

; 1233 : 	{	// forward an lvalue as either an lvalue or an rvalue

  00000	55		 push	 ebp
  00001	8b ec		 mov	 ebp, esp

; 1234 : 	return (static_cast<_Ty&&>(_Arg));

  00003	8b 45 08	 mov	 eax, DWORD PTR __Arg$[ebp]

; 1235 : 	}

  00006	5d		 pop	 ebp
  00007	c3		 ret	 0
??$forward@ABUNoticeConnectInfo@@@std@@YAABUNoticeConnectInfo@@ABU1@@Z ENDP ; std::forward<NoticeConnectInfo const &>
_TEXT	ENDS
; Function compile flags: /Ogtp
; File c:\program files (x86)\microsoft visual studio 14.0\vc\include\xmemory0
;	COMDAT ??$construct@UNoticeConnectInfo@@AAU1@@?$allocator_traits@V?$allocator@UNoticeConnectInfo@@@std@@@std@@SAXAAV?$allocator@UNoticeConnectInfo@@@1@PAUNoticeConnectInfo@@AAU3@@Z
_TEXT	SEGMENT
__Al$ = 8						; size = 4
__Ptr$ = 12						; size = 4
_<_Args_0>$ = 16					; size = 4
??$construct@UNoticeConnectInfo@@AAU1@@?$allocator_traits@V?$allocator@UNoticeConnectInfo@@@std@@@std@@SAXAAV?$allocator@UNoticeConnectInfo@@@1@PAUNoticeConnectInfo@@AAU3@@Z PROC ; std::allocator_traits<std::allocator<NoticeConnectInfo> >::construct<NoticeConnectInfo,NoticeConnectInfo &>, COMDAT

; 772  : 		{	// construct _Objty(_Types...) at _Ptr

  00000	55		 push	 ebp
  00001	8b ec		 mov	 ebp, esp
  00003	57		 push	 edi

; 655  : 		::new ((void *)_Ptr) _Objty(_STD forward<_Types>(_Args)...);

  00004	8b 7d 0c	 mov	 edi, DWORD PTR __Ptr$[ebp]
  00007	85 ff		 test	 edi, edi
  00009	74 0d		 je	 SHORT $LN8@construct
  0000b	56		 push	 esi
  0000c	8b 75 10	 mov	 esi, DWORD PTR _<_Args_0>$[ebp]
  0000f	b9 19 00 00 00	 mov	 ecx, 25			; 00000019H
  00014	f3 a5		 rep movsd
  00016	a4		 movsb
  00017	5e		 pop	 esi
$LN8@construct:
  00018	5f		 pop	 edi

; 773  : 		_Al.construct(_Ptr, _STD forward<_Types>(_Args)...);
; 774  : 		}

  00019	5d		 pop	 ebp
  0001a	c3		 ret	 0
??$construct@UNoticeConnectInfo@@AAU1@@?$allocator_traits@V?$allocator@UNoticeConnectInfo@@@std@@@std@@SAXAAV?$allocator@UNoticeConnectInfo@@@1@PAUNoticeConnectInfo@@AAU3@@Z ENDP ; std::allocator_traits<std::allocator<NoticeConnectInfo> >::construct<NoticeConnectInfo,NoticeConnectInfo &>
_TEXT	ENDS
; Function compile flags: /Ogtp
; File c:\program files (x86)\microsoft visual studio 14.0\vc\include\type_traits
;	COMDAT ??$forward@AAUNoticeConnectInfo@@@std@@YAAAUNoticeConnectInfo@@AAU1@@Z
_TEXT	SEGMENT
__Arg$ = 8						; size = 4
??$forward@AAUNoticeConnectInfo@@@std@@YAAAUNoticeConnectInfo@@AAU1@@Z PROC ; std::forward<NoticeConnectInfo &>, COMDAT

; 1233 : 	{	// forward an lvalue as either an lvalue or an rvalue

  00000	55		 push	 ebp
  00001	8b ec		 mov	 ebp, esp

; 1234 : 	return (static_cast<_Ty&&>(_Arg));

  00003	8b 45 08	 mov	 eax, DWORD PTR __Arg$[ebp]

; 1235 : 	}

  00006	5d		 pop	 ebp
  00007	c3		 ret	 0
??$forward@AAUNoticeConnectInfo@@@std@@YAAAUNoticeConnectInfo@@AAU1@@Z ENDP ; std::forward<NoticeConnectInfo &>
_TEXT	ENDS
; Function compile flags: /Ogtp
; File c:\program files (x86)\microsoft visual studio 14.0\vc\include\xstddef
;	COMDAT ??$_Addressof@$$CBUNoticeConnectInfo@@@std@@YAPBUNoticeConnectInfo@@ABU1@U?$integral_constant@_N$0A@@0@@Z
_TEXT	SEGMENT
__Val$ = 8						; size = 4
___formal$ = 12						; size = 1
??$_Addressof@$$CBUNoticeConnectInfo@@@std@@YAPBUNoticeConnectInfo@@ABU1@U?$integral_constant@_N$0A@@0@@Z PROC ; std::_Addressof<NoticeConnectInfo const >, COMDAT

; 688  : 	{	// return address of object _Val

  00000	55		 push	 ebp
  00001	8b ec		 mov	 ebp, esp

; 689  : 	return (reinterpret_cast<_Ty *>(

  00003	8b 45 08	 mov	 eax, DWORD PTR __Val$[ebp]

; 690  : 		&const_cast<char&>(
; 691  : 		reinterpret_cast<const volatile char&>(_Val))));
; 692  : 	}

  00006	5d		 pop	 ebp
  00007	c3		 ret	 0
??$_Addressof@$$CBUNoticeConnectInfo@@@std@@YAPBUNoticeConnectInfo@@ABU1@U?$integral_constant@_N$0A@@0@@Z ENDP ; std::_Addressof<NoticeConnectInfo const >
_TEXT	ENDS
; Function compile flags: /Ogtp
; File c:\program files (x86)\microsoft visual studio 14.0\vc\include\xmemory0
;	COMDAT ??$construct@UNoticeRotateInfo@@ABU1@@?$allocator_traits@V?$allocator@UNoticeRotateInfo@@@std@@@std@@SAXAAV?$allocator@UNoticeRotateInfo@@@1@PAUNoticeRotateInfo@@ABU3@@Z
_TEXT	SEGMENT
__Al$ = 8						; size = 4
__Ptr$ = 12						; size = 4
_<_Args_0>$ = 16					; size = 4
??$construct@UNoticeRotateInfo@@ABU1@@?$allocator_traits@V?$allocator@UNoticeRotateInfo@@@std@@@std@@SAXAAV?$allocator@UNoticeRotateInfo@@@1@PAUNoticeRotateInfo@@ABU3@@Z PROC ; std::allocator_traits<std::allocator<NoticeRotateInfo> >::construct<NoticeRotateInfo,NoticeRotateInfo const &>, COMDAT

; 772  : 		{	// construct _Objty(_Types...) at _Ptr

  00000	55		 push	 ebp
  00001	8b ec		 mov	 ebp, esp
  00003	57		 push	 edi

; 655  : 		::new ((void *)_Ptr) _Objty(_STD forward<_Types>(_Args)...);

  00004	8b 7d 0c	 mov	 edi, DWORD PTR __Ptr$[ebp]
  00007	85 ff		 test	 edi, edi
  00009	74 0c		 je	 SHORT $LN8@construct
  0000b	56		 push	 esi
  0000c	8b 75 10	 mov	 esi, DWORD PTR _<_Args_0>$[ebp]
  0000f	b9 1b 00 00 00	 mov	 ecx, 27			; 0000001bH
  00014	f3 a5		 rep movsd
  00016	5e		 pop	 esi
$LN8@construct:
  00017	5f		 pop	 edi

; 773  : 		_Al.construct(_Ptr, _STD forward<_Types>(_Args)...);
; 774  : 		}

  00018	5d		 pop	 ebp
  00019	c3		 ret	 0
??$construct@UNoticeRotateInfo@@ABU1@@?$allocator_traits@V?$allocator@UNoticeRotateInfo@@@std@@@std@@SAXAAV?$allocator@UNoticeRotateInfo@@@1@PAUNoticeRotateInfo@@ABU3@@Z ENDP ; std::allocator_traits<std::allocator<NoticeRotateInfo> >::construct<NoticeRotateInfo,NoticeRotateInfo const &>
_TEXT	ENDS
; Function compile flags: /Ogtp
; File c:\program files (x86)\microsoft visual studio 14.0\vc\include\type_traits
;	COMDAT ??$forward@ABUNoticeRotateInfo@@@std@@YAABUNoticeRotateInfo@@ABU1@@Z
_TEXT	SEGMENT
__Arg$ = 8						; size = 4
??$forward@ABUNoticeRotateInfo@@@std@@YAABUNoticeRotateInfo@@ABU1@@Z PROC ; std::forward<NoticeRotateInfo const &>, COMDAT

; 1233 : 	{	// forward an lvalue as either an lvalue or an rvalue

  00000	55		 push	 ebp
  00001	8b ec		 mov	 ebp, esp

; 1234 : 	return (static_cast<_Ty&&>(_Arg));

  00003	8b 45 08	 mov	 eax, DWORD PTR __Arg$[ebp]

; 1235 : 	}

  00006	5d		 pop	 ebp
  00007	c3		 ret	 0
??$forward@ABUNoticeRotateInfo@@@std@@YAABUNoticeRotateInfo@@ABU1@@Z ENDP ; std::forward<NoticeRotateInfo const &>
_TEXT	ENDS
; Function compile flags: /Ogtp
; File c:\program files (x86)\microsoft visual studio 14.0\vc\include\xmemory0
;	COMDAT ??$construct@UNoticeRotateInfo@@AAU1@@?$allocator_traits@V?$allocator@UNoticeRotateInfo@@@std@@@std@@SAXAAV?$allocator@UNoticeRotateInfo@@@1@PAUNoticeRotateInfo@@AAU3@@Z
_TEXT	SEGMENT
__Al$ = 8						; size = 4
__Ptr$ = 12						; size = 4
_<_Args_0>$ = 16					; size = 4
??$construct@UNoticeRotateInfo@@AAU1@@?$allocator_traits@V?$allocator@UNoticeRotateInfo@@@std@@@std@@SAXAAV?$allocator@UNoticeRotateInfo@@@1@PAUNoticeRotateInfo@@AAU3@@Z PROC ; std::allocator_traits<std::allocator<NoticeRotateInfo> >::construct<NoticeRotateInfo,NoticeRotateInfo &>, COMDAT

; 772  : 		{	// construct _Objty(_Types...) at _Ptr

  00000	55		 push	 ebp
  00001	8b ec		 mov	 ebp, esp
  00003	57		 push	 edi

; 655  : 		::new ((void *)_Ptr) _Objty(_STD forward<_Types>(_Args)...);

  00004	8b 7d 0c	 mov	 edi, DWORD PTR __Ptr$[ebp]
  00007	85 ff		 test	 edi, edi
  00009	74 0c		 je	 SHORT $LN8@construct
  0000b	56		 push	 esi
  0000c	8b 75 10	 mov	 esi, DWORD PTR _<_Args_0>$[ebp]
  0000f	b9 1b 00 00 00	 mov	 ecx, 27			; 0000001bH
  00014	f3 a5		 rep movsd
  00016	5e		 pop	 esi
$LN8@construct:
  00017	5f		 pop	 edi

; 773  : 		_Al.construct(_Ptr, _STD forward<_Types>(_Args)...);
; 774  : 		}

  00018	5d		 pop	 ebp
  00019	c3		 ret	 0
??$construct@UNoticeRotateInfo@@AAU1@@?$allocator_traits@V?$allocator@UNoticeRotateInfo@@@std@@@std@@SAXAAV?$allocator@UNoticeRotateInfo@@@1@PAUNoticeRotateInfo@@AAU3@@Z ENDP ; std::allocator_traits<std::allocator<NoticeRotateInfo> >::construct<NoticeRotateInfo,NoticeRotateInfo &>
_TEXT	ENDS
; Function compile flags: /Ogtp
; File c:\program files (x86)\microsoft visual studio 14.0\vc\include\type_traits
;	COMDAT ??$forward@AAUNoticeRotateInfo@@@std@@YAAAUNoticeRotateInfo@@AAU1@@Z
_TEXT	SEGMENT
__Arg$ = 8						; size = 4
??$forward@AAUNoticeRotateInfo@@@std@@YAAAUNoticeRotateInfo@@AAU1@@Z PROC ; std::forward<NoticeRotateInfo &>, COMDAT

; 1233 : 	{	// forward an lvalue as either an lvalue or an rvalue

  00000	55		 push	 ebp
  00001	8b ec		 mov	 ebp, esp

; 1234 : 	return (static_cast<_Ty&&>(_Arg));

  00003	8b 45 08	 mov	 eax, DWORD PTR __Arg$[ebp]

; 1235 : 	}

  00006	5d		 pop	 ebp
  00007	c3		 ret	 0
??$forward@AAUNoticeRotateInfo@@@std@@YAAAUNoticeRotateInfo@@AAU1@@Z ENDP ; std::forward<NoticeRotateInfo &>
_TEXT	ENDS
; Function compile flags: /Ogtp
; File c:\program files (x86)\microsoft visual studio 14.0\vc\include\xstddef
;	COMDAT ??$_Addressof@$$CBUNoticeRotateInfo@@@std@@YAPBUNoticeRotateInfo@@ABU1@U?$integral_constant@_N$0A@@0@@Z
_TEXT	SEGMENT
__Val$ = 8						; size = 4
___formal$ = 12						; size = 1
??$_Addressof@$$CBUNoticeRotateInfo@@@std@@YAPBUNoticeRotateInfo@@ABU1@U?$integral_constant@_N$0A@@0@@Z PROC ; std::_Addressof<NoticeRotateInfo const >, COMDAT

; 688  : 	{	// return address of object _Val

  00000	55		 push	 ebp
  00001	8b ec		 mov	 ebp, esp

; 689  : 	return (reinterpret_cast<_Ty *>(

  00003	8b 45 08	 mov	 eax, DWORD PTR __Val$[ebp]

; 690  : 		&const_cast<char&>(
; 691  : 		reinterpret_cast<const volatile char&>(_Val))));
; 692  : 	}

  00006	5d		 pop	 ebp
  00007	c3		 ret	 0
??$_Addressof@$$CBUNoticeRotateInfo@@@std@@YAPBUNoticeRotateInfo@@ABU1@U?$integral_constant@_N$0A@@0@@Z ENDP ; std::_Addressof<NoticeRotateInfo const >
_TEXT	ENDS
; Function compile flags: /Ogtp
; File c:\program files (x86)\microsoft visual studio 14.0\vc\include\vector
; File c:\program files (x86)\microsoft visual studio 14.0\vc\include\xmemory
; File c:\program files (x86)\microsoft visual studio 14.0\vc\include\vector
;	COMDAT ??$_Umove@PAUNoticeConnectInfo@@@?$vector@UNoticeConnectInfo@@V?$allocator@UNoticeConnectInfo@@@std@@@std@@IAEPAUNoticeConnectInfo@@PAU2@00@Z
_TEXT	SEGMENT
__First$ = 8						; size = 4
__Last$ = 12						; size = 4
__Cat$1 = 16						; size = 1
__Ptr$ = 16						; size = 4
??$_Umove@PAUNoticeConnectInfo@@@?$vector@UNoticeConnectInfo@@V?$allocator@UNoticeConnectInfo@@@std@@@std@@IAEPAUNoticeConnectInfo@@PAU2@00@Z PROC ; std::vector<NoticeConnectInfo,std::allocator<NoticeConnectInfo> >::_Umove<NoticeConnectInfo *>, COMDAT
; _this$ = ecx

; 1677 : 		{	// move initializing [_First, _Last), using allocator

  00000	55		 push	 ebp
  00001	8b ec		 mov	 ebp, esp
; File c:\program files (x86)\microsoft visual studio 14.0\vc\include\xmemory

; 481  : 	return (_Uninit_move(_First, _Last, _Dest, _Al,

  00003	ff 75 10	 push	 DWORD PTR __Cat$1[ebp]
  00006	6a 00		 push	 0
  00008	51		 push	 ecx
  00009	ff 75 10	 push	 DWORD PTR __Ptr$[ebp]
  0000c	ff 75 0c	 push	 DWORD PTR __Last$[ebp]
  0000f	ff 75 08	 push	 DWORD PTR __First$[ebp]
  00012	e8 00 00 00 00	 call	 ??$_Uninit_move@PAUNoticeConnectInfo@@PAU1@V?$allocator@UNoticeConnectInfo@@@std@@U1@@std@@YAPAUNoticeConnectInfo@@PAU1@00AAU?$_Wrap_alloc@V?$allocator@UNoticeConnectInfo@@@std@@@0@0U_Nonscalar_ptr_iterator_tag@0@@Z ; std::_Uninit_move<NoticeConnectInfo *,NoticeConnectInfo *,std::allocator<NoticeConnectInfo>,NoticeConnectInfo>
  00017	83 c4 18	 add	 esp, 24			; 00000018H
; File c:\program files (x86)\microsoft visual studio 14.0\vc\include\vector

; 1680 : 		}

  0001a	5d		 pop	 ebp
  0001b	c2 0c 00	 ret	 12			; 0000000cH
??$_Umove@PAUNoticeConnectInfo@@@?$vector@UNoticeConnectInfo@@V?$allocator@UNoticeConnectInfo@@@std@@@std@@IAEPAUNoticeConnectInfo@@PAU2@00@Z ENDP ; std::vector<NoticeConnectInfo,std::allocator<NoticeConnectInfo> >::_Umove<NoticeConnectInfo *>
_TEXT	ENDS
; Function compile flags: /Ogtp
; File c:\program files (x86)\microsoft visual studio 14.0\vc\include\vector
; File c:\program files (x86)\microsoft visual studio 14.0\vc\include\xmemory
; File c:\program files (x86)\microsoft visual studio 14.0\vc\include\vector
;	COMDAT ??$_Umove@PAUNoticeRotateInfo@@@?$vector@UNoticeRotateInfo@@V?$allocator@UNoticeRotateInfo@@@std@@@std@@IAEPAUNoticeRotateInfo@@PAU2@00@Z
_TEXT	SEGMENT
__First$ = 8						; size = 4
__Last$ = 12						; size = 4
__Cat$1 = 16						; size = 1
__Ptr$ = 16						; size = 4
??$_Umove@PAUNoticeRotateInfo@@@?$vector@UNoticeRotateInfo@@V?$allocator@UNoticeRotateInfo@@@std@@@std@@IAEPAUNoticeRotateInfo@@PAU2@00@Z PROC ; std::vector<NoticeRotateInfo,std::allocator<NoticeRotateInfo> >::_Umove<NoticeRotateInfo *>, COMDAT
; _this$ = ecx

; 1677 : 		{	// move initializing [_First, _Last), using allocator

  00000	55		 push	 ebp
  00001	8b ec		 mov	 ebp, esp
; File c:\program files (x86)\microsoft visual studio 14.0\vc\include\xmemory

; 481  : 	return (_Uninit_move(_First, _Last, _Dest, _Al,

  00003	ff 75 10	 push	 DWORD PTR __Cat$1[ebp]
  00006	6a 00		 push	 0
  00008	51		 push	 ecx
  00009	ff 75 10	 push	 DWORD PTR __Ptr$[ebp]
  0000c	ff 75 0c	 push	 DWORD PTR __Last$[ebp]
  0000f	ff 75 08	 push	 DWORD PTR __First$[ebp]
  00012	e8 00 00 00 00	 call	 ??$_Uninit_move@PAUNoticeRotateInfo@@PAU1@V?$allocator@UNoticeRotateInfo@@@std@@U1@@std@@YAPAUNoticeRotateInfo@@PAU1@00AAU?$_Wrap_alloc@V?$allocator@UNoticeRotateInfo@@@std@@@0@0U_Nonscalar_ptr_iterator_tag@0@@Z ; std::_Uninit_move<NoticeRotateInfo *,NoticeRotateInfo *,std::allocator<NoticeRotateInfo>,NoticeRotateInfo>
  00017	83 c4 18	 add	 esp, 24			; 00000018H
; File c:\program files (x86)\microsoft visual studio 14.0\vc\include\vector

; 1680 : 		}

  0001a	5d		 pop	 ebp
  0001b	c2 0c 00	 ret	 12			; 0000000cH
??$_Umove@PAUNoticeRotateInfo@@@?$vector@UNoticeRotateInfo@@V?$allocator@UNoticeRotateInfo@@@std@@@std@@IAEPAUNoticeRotateInfo@@PAU2@00@Z ENDP ; std::vector<NoticeRotateInfo,std::allocator<NoticeRotateInfo> >::_Umove<NoticeRotateInfo *>
_TEXT	ENDS
; Function compile flags: /Ogtp
; File c:\program files (x86)\microsoft visual studio 14.0\vc\include\xmemory0
;	COMDAT ??$_Destroy_range@U?$_Wrap_alloc@V?$allocator@UNoticeConnectInfo@@@std@@@std@@@std@@YAXPAUNoticeConnectInfo@@0AAU?$_Wrap_alloc@V?$allocator@UNoticeConnectInfo@@@std@@@0@@Z
_TEXT	SEGMENT
__First$ = 8						; size = 4
__Last$ = 12						; size = 4
__Al$ = 16						; size = 4
??$_Destroy_range@U?$_Wrap_alloc@V?$allocator@UNoticeConnectInfo@@@std@@@std@@@std@@YAXPAUNoticeConnectInfo@@0AAU?$_Wrap_alloc@V?$allocator@UNoticeConnectInfo@@@std@@@0@@Z PROC ; std::_Destroy_range<std::_Wrap_alloc<std::allocator<NoticeConnectInfo> > >, COMDAT

; 186  : 	_Destroy_range(_First, _Last, _Al, _Ptr_cat(_First, _Last));
; 187  : 	}

  00000	c3		 ret	 0
??$_Destroy_range@U?$_Wrap_alloc@V?$allocator@UNoticeConnectInfo@@@std@@@std@@@std@@YAXPAUNoticeConnectInfo@@0AAU?$_Wrap_alloc@V?$allocator@UNoticeConnectInfo@@@std@@@0@@Z ENDP ; std::_Destroy_range<std::_Wrap_alloc<std::allocator<NoticeConnectInfo> > >
_TEXT	ENDS
; Function compile flags: /Ogtp
; File c:\program files (x86)\microsoft visual studio 14.0\vc\include\xutility
; File c:\program files (x86)\microsoft visual studio 14.0\vc\include\vector
; File c:\program files (x86)\microsoft visual studio 14.0\vc\include\xutility
; File c:\program files (x86)\microsoft visual studio 14.0\vc\include\vector
; File c:\program files (x86)\microsoft visual studio 14.0\vc\include\xutility
;	COMDAT ??$?0ABV?$allocator@UNoticeConnectInfo@@@std@@$$V@?$_Compressed_pair@U?$_Wrap_alloc@V?$allocator@UNoticeConnectInfo@@@std@@@std@@V?$_Vector_val@U?$_Simple_types@UNoticeConnectInfo@@@std@@@2@$00@std@@QAE@U_One_then_variadic_args_t@1@ABV?$allocator@UNoticeConnectInfo@@@1@@Z
_TEXT	SEGMENT
___formal$ = 8						; size = 1
__Val1$ = 12						; size = 4
??$?0ABV?$allocator@UNoticeConnectInfo@@@std@@$$V@?$_Compressed_pair@U?$_Wrap_alloc@V?$allocator@UNoticeConnectInfo@@@std@@@std@@V?$_Vector_val@U?$_Simple_types@UNoticeConnectInfo@@@std@@@2@$00@std@@QAE@U_One_then_variadic_args_t@1@ABV?$allocator@UNoticeConnectInfo@@@1@@Z PROC ; std::_Compressed_pair<std::_Wrap_alloc<std::allocator<NoticeConnectInfo> >,std::_Vector_val<std::_Simple_types<NoticeConnectInfo> >,1>::_Compressed_pair<std::_Wrap_alloc<std::allocator<NoticeConnectInfo> >,std::_Vector_val<std::_Simple_types<NoticeConnectInfo> >,1><std::allocator<NoticeConnectInfo> const &>, COMDAT
; _this$ = ecx
; File c:\program files (x86)\microsoft visual studio 14.0\vc\include\vector

; 480  : 		_Myfirst = pointer();

  00000	c7 01 00 00 00
	00		 mov	 DWORD PTR [ecx], 0
; File c:\program files (x86)\microsoft visual studio 14.0\vc\include\xutility

; 289  : 		}

  00006	8b c1		 mov	 eax, ecx
; File c:\program files (x86)\microsoft visual studio 14.0\vc\include\vector

; 481  : 		_Mylast = pointer();

  00008	c7 41 04 00 00
	00 00		 mov	 DWORD PTR [ecx+4], 0

; 482  : 		_Myend = pointer();

  0000f	c7 41 08 00 00
	00 00		 mov	 DWORD PTR [ecx+8], 0
; File c:\program files (x86)\microsoft visual studio 14.0\vc\include\xutility

; 289  : 		}

  00016	c2 08 00	 ret	 8
??$?0ABV?$allocator@UNoticeConnectInfo@@@std@@$$V@?$_Compressed_pair@U?$_Wrap_alloc@V?$allocator@UNoticeConnectInfo@@@std@@@std@@V?$_Vector_val@U?$_Simple_types@UNoticeConnectInfo@@@std@@@2@$00@std@@QAE@U_One_then_variadic_args_t@1@ABV?$allocator@UNoticeConnectInfo@@@1@@Z ENDP ; std::_Compressed_pair<std::_Wrap_alloc<std::allocator<NoticeConnectInfo> >,std::_Vector_val<std::_Simple_types<NoticeConnectInfo> >,1>::_Compressed_pair<std::_Wrap_alloc<std::allocator<NoticeConnectInfo> >,std::_Vector_val<std::_Simple_types<NoticeConnectInfo> >,1><std::allocator<NoticeConnectInfo> const &>
_TEXT	ENDS
; Function compile flags: /Ogtp
; File c:\program files (x86)\microsoft visual studio 14.0\vc\include\xmemory0
;	COMDAT ??$_Pocs@U?$_Wrap_alloc@V?$allocator@UNoticeConnectInfo@@@std@@@std@@@std@@YAXAAU?$_Wrap_alloc@V?$allocator@UNoticeConnectInfo@@@std@@@0@0@Z
_TEXT	SEGMENT
__Left$ = 8						; size = 4
__Right$ = 12						; size = 4
??$_Pocs@U?$_Wrap_alloc@V?$allocator@UNoticeConnectInfo@@@std@@@std@@@std@@YAXAAU?$_Wrap_alloc@V?$allocator@UNoticeConnectInfo@@@std@@@0@0@Z PROC ; std::_Pocs<std::_Wrap_alloc<std::allocator<NoticeConnectInfo> > >, COMDAT

; 1004 : 	typename _Alty::propagate_on_container_swap _Tag;
; 1005 : 	_Pocs(_Left, _Right, _Tag);
; 1006 : 	}

  00000	c3		 ret	 0
??$_Pocs@U?$_Wrap_alloc@V?$allocator@UNoticeConnectInfo@@@std@@@std@@@std@@YAXAAU?$_Wrap_alloc@V?$allocator@UNoticeConnectInfo@@@std@@@0@0@Z ENDP ; std::_Pocs<std::_Wrap_alloc<std::allocator<NoticeConnectInfo> > >
_TEXT	ENDS
; Function compile flags: /Ogtp
; File c:\program files (x86)\microsoft visual studio 14.0\vc\include\xmemory0
;	COMDAT ??$_Destroy_range@U?$_Wrap_alloc@V?$allocator@UNoticeRotateInfo@@@std@@@std@@@std@@YAXPAUNoticeRotateInfo@@0AAU?$_Wrap_alloc@V?$allocator@UNoticeRotateInfo@@@std@@@0@@Z
_TEXT	SEGMENT
__First$ = 8						; size = 4
__Last$ = 12						; size = 4
__Al$ = 16						; size = 4
??$_Destroy_range@U?$_Wrap_alloc@V?$allocator@UNoticeRotateInfo@@@std@@@std@@@std@@YAXPAUNoticeRotateInfo@@0AAU?$_Wrap_alloc@V?$allocator@UNoticeRotateInfo@@@std@@@0@@Z PROC ; std::_Destroy_range<std::_Wrap_alloc<std::allocator<NoticeRotateInfo> > >, COMDAT

; 186  : 	_Destroy_range(_First, _Last, _Al, _Ptr_cat(_First, _Last));
; 187  : 	}

  00000	c3		 ret	 0
??$_Destroy_range@U?$_Wrap_alloc@V?$allocator@UNoticeRotateInfo@@@std@@@std@@@std@@YAXPAUNoticeRotateInfo@@0AAU?$_Wrap_alloc@V?$allocator@UNoticeRotateInfo@@@std@@@0@@Z ENDP ; std::_Destroy_range<std::_Wrap_alloc<std::allocator<NoticeRotateInfo> > >
_TEXT	ENDS
; Function compile flags: /Ogtp
; File c:\program files (x86)\microsoft visual studio 14.0\vc\include\xutility
; File c:\program files (x86)\microsoft visual studio 14.0\vc\include\vector
; File c:\program files (x86)\microsoft visual studio 14.0\vc\include\xutility
; File c:\program files (x86)\microsoft visual studio 14.0\vc\include\vector
; File c:\program files (x86)\microsoft visual studio 14.0\vc\include\xutility
;	COMDAT ??$?0ABV?$allocator@UNoticeRotateInfo@@@std@@$$V@?$_Compressed_pair@U?$_Wrap_alloc@V?$allocator@UNoticeRotateInfo@@@std@@@std@@V?$_Vector_val@U?$_Simple_types@UNoticeRotateInfo@@@std@@@2@$00@std@@QAE@U_One_then_variadic_args_t@1@ABV?$allocator@UNoticeRotateInfo@@@1@@Z
_TEXT	SEGMENT
___formal$ = 8						; size = 1
__Val1$ = 12						; size = 4
??$?0ABV?$allocator@UNoticeRotateInfo@@@std@@$$V@?$_Compressed_pair@U?$_Wrap_alloc@V?$allocator@UNoticeRotateInfo@@@std@@@std@@V?$_Vector_val@U?$_Simple_types@UNoticeRotateInfo@@@std@@@2@$00@std@@QAE@U_One_then_variadic_args_t@1@ABV?$allocator@UNoticeRotateInfo@@@1@@Z PROC ; std::_Compressed_pair<std::_Wrap_alloc<std::allocator<NoticeRotateInfo> >,std::_Vector_val<std::_Simple_types<NoticeRotateInfo> >,1>::_Compressed_pair<std::_Wrap_alloc<std::allocator<NoticeRotateInfo> >,std::_Vector_val<std::_Simple_types<NoticeRotateInfo> >,1><std::allocator<NoticeRotateInfo> const &>, COMDAT
; _this$ = ecx
; File c:\program files (x86)\microsoft visual studio 14.0\vc\include\vector

; 480  : 		_Myfirst = pointer();

  00000	c7 01 00 00 00
	00		 mov	 DWORD PTR [ecx], 0
; File c:\program files (x86)\microsoft visual studio 14.0\vc\include\xutility

; 289  : 		}

  00006	8b c1		 mov	 eax, ecx
; File c:\program files (x86)\microsoft visual studio 14.0\vc\include\vector

; 481  : 		_Mylast = pointer();

  00008	c7 41 04 00 00
	00 00		 mov	 DWORD PTR [ecx+4], 0

; 482  : 		_Myend = pointer();

  0000f	c7 41 08 00 00
	00 00		 mov	 DWORD PTR [ecx+8], 0
; File c:\program files (x86)\microsoft visual studio 14.0\vc\include\xutility

; 289  : 		}

  00016	c2 08 00	 ret	 8
??$?0ABV?$allocator@UNoticeRotateInfo@@@std@@$$V@?$_Compressed_pair@U?$_Wrap_alloc@V?$allocator@UNoticeRotateInfo@@@std@@@std@@V?$_Vector_val@U?$_Simple_types@UNoticeRotateInfo@@@std@@@2@$00@std@@QAE@U_One_then_variadic_args_t@1@ABV?$allocator@UNoticeRotateInfo@@@1@@Z ENDP ; std::_Compressed_pair<std::_Wrap_alloc<std::allocator<NoticeRotateInfo> >,std::_Vector_val<std::_Simple_types<NoticeRotateInfo> >,1>::_Compressed_pair<std::_Wrap_alloc<std::allocator<NoticeRotateInfo> >,std::_Vector_val<std::_Simple_types<NoticeRotateInfo> >,1><std::allocator<NoticeRotateInfo> const &>
_TEXT	ENDS
; Function compile flags: /Ogtp
; File c:\program files (x86)\microsoft visual studio 14.0\vc\include\xmemory0
;	COMDAT ??$_Pocs@U?$_Wrap_alloc@V?$allocator@UNoticeRotateInfo@@@std@@@std@@@std@@YAXAAU?$_Wrap_alloc@V?$allocator@UNoticeRotateInfo@@@std@@@0@0@Z
_TEXT	SEGMENT
__Left$ = 8						; size = 4
__Right$ = 12						; size = 4
??$_Pocs@U?$_Wrap_alloc@V?$allocator@UNoticeRotateInfo@@@std@@@std@@@std@@YAXAAU?$_Wrap_alloc@V?$allocator@UNoticeRotateInfo@@@std@@@0@0@Z PROC ; std::_Pocs<std::_Wrap_alloc<std::allocator<NoticeRotateInfo> > >, COMDAT

; 1004 : 	typename _Alty::propagate_on_container_swap _Tag;
; 1005 : 	_Pocs(_Left, _Right, _Tag);
; 1006 : 	}

  00000	c3		 ret	 0
??$_Pocs@U?$_Wrap_alloc@V?$allocator@UNoticeRotateInfo@@@std@@@std@@@std@@YAXAAU?$_Wrap_alloc@V?$allocator@UNoticeRotateInfo@@@std@@@0@0@Z ENDP ; std::_Pocs<std::_Wrap_alloc<std::allocator<NoticeRotateInfo> > >
_TEXT	ENDS
; Function compile flags: /Ogtp
; File c:\program files (x86)\microsoft visual studio 14.0\vc\include\xmemory0
;	COMDAT ??$construct@UNoticeConnectInfo@@ABU1@@?$_Wrap_alloc@V?$allocator@UNoticeConnectInfo@@@std@@@std@@QAEXPAUNoticeConnectInfo@@ABU2@@Z
_TEXT	SEGMENT
__Ptr$ = 8						; size = 4
_<_Args_0>$ = 12					; size = 4
??$construct@UNoticeConnectInfo@@ABU1@@?$_Wrap_alloc@V?$allocator@UNoticeConnectInfo@@@std@@@std@@QAEXPAUNoticeConnectInfo@@ABU2@@Z PROC ; std::_Wrap_alloc<std::allocator<NoticeConnectInfo> >::construct<NoticeConnectInfo,NoticeConnectInfo const &>, COMDAT
; _this$ = ecx

; 916  : 		{	// construct _Ty(_Types...) at _Ptr

  00000	55		 push	 ebp
  00001	8b ec		 mov	 ebp, esp
  00003	57		 push	 edi

; 655  : 		::new ((void *)_Ptr) _Objty(_STD forward<_Types>(_Args)...);

  00004	8b 7d 08	 mov	 edi, DWORD PTR __Ptr$[ebp]
  00007	85 ff		 test	 edi, edi
  00009	74 0d		 je	 SHORT $LN13@construct
  0000b	56		 push	 esi
  0000c	8b 75 0c	 mov	 esi, DWORD PTR _<_Args_0>$[ebp]
  0000f	b9 19 00 00 00	 mov	 ecx, 25			; 00000019H
  00014	f3 a5		 rep movsd
  00016	a4		 movsb
  00017	5e		 pop	 esi
$LN13@construct:
  00018	5f		 pop	 edi

; 917  : 		_Mytraits::construct(*this, _Ptr,
; 918  : 			_STD forward<_Types>(_Args)...);
; 919  : 		}

  00019	5d		 pop	 ebp
  0001a	c2 08 00	 ret	 8
??$construct@UNoticeConnectInfo@@ABU1@@?$_Wrap_alloc@V?$allocator@UNoticeConnectInfo@@@std@@@std@@QAEXPAUNoticeConnectInfo@@ABU2@@Z ENDP ; std::_Wrap_alloc<std::allocator<NoticeConnectInfo> >::construct<NoticeConnectInfo,NoticeConnectInfo const &>
_TEXT	ENDS
; Function compile flags: /Ogtp
; File c:\program files (x86)\microsoft visual studio 14.0\vc\include\xmemory0
;	COMDAT ??$construct@UNoticeConnectInfo@@AAU1@@?$_Wrap_alloc@V?$allocator@UNoticeConnectInfo@@@std@@@std@@QAEXPAUNoticeConnectInfo@@AAU2@@Z
_TEXT	SEGMENT
__Ptr$ = 8						; size = 4
_<_Args_0>$ = 12					; size = 4
??$construct@UNoticeConnectInfo@@AAU1@@?$_Wrap_alloc@V?$allocator@UNoticeConnectInfo@@@std@@@std@@QAEXPAUNoticeConnectInfo@@AAU2@@Z PROC ; std::_Wrap_alloc<std::allocator<NoticeConnectInfo> >::construct<NoticeConnectInfo,NoticeConnectInfo &>, COMDAT
; _this$ = ecx

; 916  : 		{	// construct _Ty(_Types...) at _Ptr

  00000	55		 push	 ebp
  00001	8b ec		 mov	 ebp, esp
  00003	57		 push	 edi

; 655  : 		::new ((void *)_Ptr) _Objty(_STD forward<_Types>(_Args)...);

  00004	8b 7d 08	 mov	 edi, DWORD PTR __Ptr$[ebp]
  00007	85 ff		 test	 edi, edi
  00009	74 0d		 je	 SHORT $LN13@construct
  0000b	56		 push	 esi
  0000c	8b 75 0c	 mov	 esi, DWORD PTR _<_Args_0>$[ebp]
  0000f	b9 19 00 00 00	 mov	 ecx, 25			; 00000019H
  00014	f3 a5		 rep movsd
  00016	a4		 movsb
  00017	5e		 pop	 esi
$LN13@construct:
  00018	5f		 pop	 edi

; 917  : 		_Mytraits::construct(*this, _Ptr,
; 918  : 			_STD forward<_Types>(_Args)...);
; 919  : 		}

  00019	5d		 pop	 ebp
  0001a	c2 08 00	 ret	 8
??$construct@UNoticeConnectInfo@@AAU1@@?$_Wrap_alloc@V?$allocator@UNoticeConnectInfo@@@std@@@std@@QAEXPAUNoticeConnectInfo@@AAU2@@Z ENDP ; std::_Wrap_alloc<std::allocator<NoticeConnectInfo> >::construct<NoticeConnectInfo,NoticeConnectInfo &>
_TEXT	ENDS
; Function compile flags: /Ogtp
; File c:\program files (x86)\microsoft visual studio 14.0\vc\include\xstddef
;	COMDAT ??$addressof@$$CBUNoticeConnectInfo@@@std@@YAPBUNoticeConnectInfo@@ABU1@@Z
_TEXT	SEGMENT
__Val$ = 8						; size = 4
??$addressof@$$CBUNoticeConnectInfo@@@std@@YAPBUNoticeConnectInfo@@ABU1@@Z PROC ; std::addressof<NoticeConnectInfo const >, COMDAT

; 696  : 	{	// return address of _Val

  00000	55		 push	 ebp
  00001	8b ec		 mov	 ebp, esp

; 697  : 	return (_Addressof(_Val, is_function<_Ty>()));

  00003	8b 45 08	 mov	 eax, DWORD PTR __Val$[ebp]

; 698  : 	}

  00006	5d		 pop	 ebp
  00007	c3		 ret	 0
??$addressof@$$CBUNoticeConnectInfo@@@std@@YAPBUNoticeConnectInfo@@ABU1@@Z ENDP ; std::addressof<NoticeConnectInfo const >
_TEXT	ENDS
; Function compile flags: /Ogtp
; File c:\program files (x86)\microsoft visual studio 14.0\vc\include\utility
;	COMDAT ??$swap@PAUNoticeConnectInfo@@@std@@YAXAAPAUNoticeConnectInfo@@0@Z
_TEXT	SEGMENT
__Left$ = 8						; size = 4
__Right$ = 12						; size = 4
??$swap@PAUNoticeConnectInfo@@@std@@YAXAAPAUNoticeConnectInfo@@0@Z PROC ; std::swap<NoticeConnectInfo *>, COMDAT

; 51   : 	{	// exchange values stored at _Left and _Right

  00000	55		 push	 ebp
  00001	8b ec		 mov	 ebp, esp

; 52   : 	_Ty _Tmp = _Move(_Left);

  00003	8b 55 08	 mov	 edx, DWORD PTR __Left$[ebp]

; 53   : 	_Left = _Move(_Right);

  00006	8b 4d 0c	 mov	 ecx, DWORD PTR __Right$[ebp]
  00009	56		 push	 esi
  0000a	8b 32		 mov	 esi, DWORD PTR [edx]
  0000c	8b 01		 mov	 eax, DWORD PTR [ecx]
  0000e	89 02		 mov	 DWORD PTR [edx], eax

; 54   : 	_Right = _Move(_Tmp);

  00010	89 31		 mov	 DWORD PTR [ecx], esi
  00012	5e		 pop	 esi

; 55   : 	}

  00013	5d		 pop	 ebp
  00014	c3		 ret	 0
??$swap@PAUNoticeConnectInfo@@@std@@YAXAAPAUNoticeConnectInfo@@0@Z ENDP ; std::swap<NoticeConnectInfo *>
_TEXT	ENDS
; Function compile flags: /Ogtp
; File c:\program files (x86)\microsoft visual studio 14.0\vc\include\utility
;	COMDAT ??$_Swap_adl@PAUNoticeConnectInfo@@@std@@YAXAAPAUNoticeConnectInfo@@0@Z
_TEXT	SEGMENT
__Left$ = 8						; size = 4
__Right$ = 12						; size = 4
??$_Swap_adl@PAUNoticeConnectInfo@@@std@@YAXAAPAUNoticeConnectInfo@@0@Z PROC ; std::_Swap_adl<NoticeConnectInfo *>, COMDAT

; 61   : 	{	// exchange values stored at _Left and _Right, using ADL

  00000	55		 push	 ebp
  00001	8b ec		 mov	 ebp, esp

; 52   : 	_Ty _Tmp = _Move(_Left);

  00003	8b 55 08	 mov	 edx, DWORD PTR __Left$[ebp]

; 53   : 	_Left = _Move(_Right);

  00006	8b 4d 0c	 mov	 ecx, DWORD PTR __Right$[ebp]
  00009	56		 push	 esi

; 52   : 	_Ty _Tmp = _Move(_Left);

  0000a	8b 32		 mov	 esi, DWORD PTR [edx]

; 53   : 	_Left = _Move(_Right);

  0000c	8b 01		 mov	 eax, DWORD PTR [ecx]
  0000e	89 02		 mov	 DWORD PTR [edx], eax

; 54   : 	_Right = _Move(_Tmp);

  00010	89 31		 mov	 DWORD PTR [ecx], esi
  00012	5e		 pop	 esi

; 62   : 	swap(_Left, _Right);
; 63   : 	}

  00013	5d		 pop	 ebp
  00014	c3		 ret	 0
??$_Swap_adl@PAUNoticeConnectInfo@@@std@@YAXAAPAUNoticeConnectInfo@@0@Z ENDP ; std::_Swap_adl<NoticeConnectInfo *>
_TEXT	ENDS
; Function compile flags: /Ogtp
; File c:\program files (x86)\microsoft visual studio 14.0\vc\include\xmemory0
;	COMDAT ??$?8UNoticeConnectInfo@@U0@@std@@YA_NABV?$allocator@UNoticeConnectInfo@@@0@0@Z
_TEXT	SEGMENT
___formal$ = 8						; size = 4
___formal$ = 12						; size = 4
??$?8UNoticeConnectInfo@@U0@@std@@YA_NABV?$allocator@UNoticeConnectInfo@@@0@0@Z PROC ; std::operator==<NoticeConnectInfo,NoticeConnectInfo>, COMDAT

; 712  : 	return (true);

  00000	b0 01		 mov	 al, 1

; 713  : 	}

  00002	c3		 ret	 0
??$?8UNoticeConnectInfo@@U0@@std@@YA_NABV?$allocator@UNoticeConnectInfo@@@0@0@Z ENDP ; std::operator==<NoticeConnectInfo,NoticeConnectInfo>
_TEXT	ENDS
; Function compile flags: /Ogtp
; File c:\program files (x86)\microsoft visual studio 14.0\vc\include\xmemory0
;	COMDAT ??$?8V?$allocator@UNoticeConnectInfo@@@std@@V01@@std@@YA_NABU?$_Wrap_alloc@V?$allocator@UNoticeConnectInfo@@@std@@@0@0@Z
_TEXT	SEGMENT
__Left$ = 8						; size = 4
__Right$ = 12						; size = 4
??$?8V?$allocator@UNoticeConnectInfo@@@std@@V01@@std@@YA_NABU?$_Wrap_alloc@V?$allocator@UNoticeConnectInfo@@@std@@@0@0@Z PROC ; std::operator==<std::allocator<NoticeConnectInfo>,std::allocator<NoticeConnectInfo> >, COMDAT

; 939  : 	return (static_cast<const _Ty&>(_Left)

  00000	b0 01		 mov	 al, 1

; 940  : 		== static_cast<const _Other&>(_Right));
; 941  : 	}

  00002	c3		 ret	 0
??$?8V?$allocator@UNoticeConnectInfo@@@std@@V01@@std@@YA_NABU?$_Wrap_alloc@V?$allocator@UNoticeConnectInfo@@@std@@@0@0@Z ENDP ; std::operator==<std::allocator<NoticeConnectInfo>,std::allocator<NoticeConnectInfo> >
_TEXT	ENDS
; Function compile flags: /Ogtp
; File c:\program files (x86)\microsoft visual studio 14.0\vc\include\xmemory0
;	COMDAT ??$construct@UNoticeRotateInfo@@ABU1@@?$_Wrap_alloc@V?$allocator@UNoticeRotateInfo@@@std@@@std@@QAEXPAUNoticeRotateInfo@@ABU2@@Z
_TEXT	SEGMENT
__Ptr$ = 8						; size = 4
_<_Args_0>$ = 12					; size = 4
??$construct@UNoticeRotateInfo@@ABU1@@?$_Wrap_alloc@V?$allocator@UNoticeRotateInfo@@@std@@@std@@QAEXPAUNoticeRotateInfo@@ABU2@@Z PROC ; std::_Wrap_alloc<std::allocator<NoticeRotateInfo> >::construct<NoticeRotateInfo,NoticeRotateInfo const &>, COMDAT
; _this$ = ecx

; 916  : 		{	// construct _Ty(_Types...) at _Ptr

  00000	55		 push	 ebp
  00001	8b ec		 mov	 ebp, esp
  00003	57		 push	 edi

; 655  : 		::new ((void *)_Ptr) _Objty(_STD forward<_Types>(_Args)...);

  00004	8b 7d 08	 mov	 edi, DWORD PTR __Ptr$[ebp]
  00007	85 ff		 test	 edi, edi
  00009	74 0c		 je	 SHORT $LN13@construct
  0000b	56		 push	 esi
  0000c	8b 75 0c	 mov	 esi, DWORD PTR _<_Args_0>$[ebp]
  0000f	b9 1b 00 00 00	 mov	 ecx, 27			; 0000001bH
  00014	f3 a5		 rep movsd
  00016	5e		 pop	 esi
$LN13@construct:
  00017	5f		 pop	 edi

; 917  : 		_Mytraits::construct(*this, _Ptr,
; 918  : 			_STD forward<_Types>(_Args)...);
; 919  : 		}

  00018	5d		 pop	 ebp
  00019	c2 08 00	 ret	 8
??$construct@UNoticeRotateInfo@@ABU1@@?$_Wrap_alloc@V?$allocator@UNoticeRotateInfo@@@std@@@std@@QAEXPAUNoticeRotateInfo@@ABU2@@Z ENDP ; std::_Wrap_alloc<std::allocator<NoticeRotateInfo> >::construct<NoticeRotateInfo,NoticeRotateInfo const &>
_TEXT	ENDS
; Function compile flags: /Ogtp
; File c:\program files (x86)\microsoft visual studio 14.0\vc\include\xmemory0
;	COMDAT ??$construct@UNoticeRotateInfo@@AAU1@@?$_Wrap_alloc@V?$allocator@UNoticeRotateInfo@@@std@@@std@@QAEXPAUNoticeRotateInfo@@AAU2@@Z
_TEXT	SEGMENT
__Ptr$ = 8						; size = 4
_<_Args_0>$ = 12					; size = 4
??$construct@UNoticeRotateInfo@@AAU1@@?$_Wrap_alloc@V?$allocator@UNoticeRotateInfo@@@std@@@std@@QAEXPAUNoticeRotateInfo@@AAU2@@Z PROC ; std::_Wrap_alloc<std::allocator<NoticeRotateInfo> >::construct<NoticeRotateInfo,NoticeRotateInfo &>, COMDAT
; _this$ = ecx

; 916  : 		{	// construct _Ty(_Types...) at _Ptr

  00000	55		 push	 ebp
  00001	8b ec		 mov	 ebp, esp
  00003	57		 push	 edi

; 655  : 		::new ((void *)_Ptr) _Objty(_STD forward<_Types>(_Args)...);

  00004	8b 7d 08	 mov	 edi, DWORD PTR __Ptr$[ebp]
  00007	85 ff		 test	 edi, edi
  00009	74 0c		 je	 SHORT $LN13@construct
  0000b	56		 push	 esi
  0000c	8b 75 0c	 mov	 esi, DWORD PTR _<_Args_0>$[ebp]
  0000f	b9 1b 00 00 00	 mov	 ecx, 27			; 0000001bH
  00014	f3 a5		 rep movsd
  00016	5e		 pop	 esi
$LN13@construct:
  00017	5f		 pop	 edi

; 917  : 		_Mytraits::construct(*this, _Ptr,
; 918  : 			_STD forward<_Types>(_Args)...);
; 919  : 		}

  00018	5d		 pop	 ebp
  00019	c2 08 00	 ret	 8
??$construct@UNoticeRotateInfo@@AAU1@@?$_Wrap_alloc@V?$allocator@UNoticeRotateInfo@@@std@@@std@@QAEXPAUNoticeRotateInfo@@AAU2@@Z ENDP ; std::_Wrap_alloc<std::allocator<NoticeRotateInfo> >::construct<NoticeRotateInfo,NoticeRotateInfo &>
_TEXT	ENDS
; Function compile flags: /Ogtp
; File c:\program files (x86)\microsoft visual studio 14.0\vc\include\xstddef
;	COMDAT ??$addressof@$$CBUNoticeRotateInfo@@@std@@YAPBUNoticeRotateInfo@@ABU1@@Z
_TEXT	SEGMENT
__Val$ = 8						; size = 4
??$addressof@$$CBUNoticeRotateInfo@@@std@@YAPBUNoticeRotateInfo@@ABU1@@Z PROC ; std::addressof<NoticeRotateInfo const >, COMDAT

; 696  : 	{	// return address of _Val

  00000	55		 push	 ebp
  00001	8b ec		 mov	 ebp, esp

; 697  : 	return (_Addressof(_Val, is_function<_Ty>()));

  00003	8b 45 08	 mov	 eax, DWORD PTR __Val$[ebp]

; 698  : 	}

  00006	5d		 pop	 ebp
  00007	c3		 ret	 0
??$addressof@$$CBUNoticeRotateInfo@@@std@@YAPBUNoticeRotateInfo@@ABU1@@Z ENDP ; std::addressof<NoticeRotateInfo const >
_TEXT	ENDS
; Function compile flags: /Ogtp
; File c:\program files (x86)\microsoft visual studio 14.0\vc\include\utility
;	COMDAT ??$swap@PAUNoticeRotateInfo@@@std@@YAXAAPAUNoticeRotateInfo@@0@Z
_TEXT	SEGMENT
__Left$ = 8						; size = 4
__Right$ = 12						; size = 4
??$swap@PAUNoticeRotateInfo@@@std@@YAXAAPAUNoticeRotateInfo@@0@Z PROC ; std::swap<NoticeRotateInfo *>, COMDAT

; 51   : 	{	// exchange values stored at _Left and _Right

  00000	55		 push	 ebp
  00001	8b ec		 mov	 ebp, esp

; 52   : 	_Ty _Tmp = _Move(_Left);

  00003	8b 55 08	 mov	 edx, DWORD PTR __Left$[ebp]

; 53   : 	_Left = _Move(_Right);

  00006	8b 4d 0c	 mov	 ecx, DWORD PTR __Right$[ebp]
  00009	56		 push	 esi
  0000a	8b 32		 mov	 esi, DWORD PTR [edx]
  0000c	8b 01		 mov	 eax, DWORD PTR [ecx]
  0000e	89 02		 mov	 DWORD PTR [edx], eax

; 54   : 	_Right = _Move(_Tmp);

  00010	89 31		 mov	 DWORD PTR [ecx], esi
  00012	5e		 pop	 esi

; 55   : 	}

  00013	5d		 pop	 ebp
  00014	c3		 ret	 0
??$swap@PAUNoticeRotateInfo@@@std@@YAXAAPAUNoticeRotateInfo@@0@Z ENDP ; std::swap<NoticeRotateInfo *>
_TEXT	ENDS
; Function compile flags: /Ogtp
; File c:\program files (x86)\microsoft visual studio 14.0\vc\include\utility
;	COMDAT ??$_Swap_adl@PAUNoticeRotateInfo@@@std@@YAXAAPAUNoticeRotateInfo@@0@Z
_TEXT	SEGMENT
__Left$ = 8						; size = 4
__Right$ = 12						; size = 4
??$_Swap_adl@PAUNoticeRotateInfo@@@std@@YAXAAPAUNoticeRotateInfo@@0@Z PROC ; std::_Swap_adl<NoticeRotateInfo *>, COMDAT

; 61   : 	{	// exchange values stored at _Left and _Right, using ADL

  00000	55		 push	 ebp
  00001	8b ec		 mov	 ebp, esp

; 52   : 	_Ty _Tmp = _Move(_Left);

  00003	8b 55 08	 mov	 edx, DWORD PTR __Left$[ebp]

; 53   : 	_Left = _Move(_Right);

  00006	8b 4d 0c	 mov	 ecx, DWORD PTR __Right$[ebp]
  00009	56		 push	 esi

; 52   : 	_Ty _Tmp = _Move(_Left);

  0000a	8b 32		 mov	 esi, DWORD PTR [edx]

; 53   : 	_Left = _Move(_Right);

  0000c	8b 01		 mov	 eax, DWORD PTR [ecx]
  0000e	89 02		 mov	 DWORD PTR [edx], eax

; 54   : 	_Right = _Move(_Tmp);

  00010	89 31		 mov	 DWORD PTR [ecx], esi
  00012	5e		 pop	 esi

; 62   : 	swap(_Left, _Right);
; 63   : 	}

  00013	5d		 pop	 ebp
  00014	c3		 ret	 0
??$_Swap_adl@PAUNoticeRotateInfo@@@std@@YAXAAPAUNoticeRotateInfo@@0@Z ENDP ; std::_Swap_adl<NoticeRotateInfo *>
_TEXT	ENDS
; Function compile flags: /Ogtp
; File c:\program files (x86)\microsoft visual studio 14.0\vc\include\xmemory0
;	COMDAT ??$?8UNoticeRotateInfo@@U0@@std@@YA_NABV?$allocator@UNoticeRotateInfo@@@0@0@Z
_TEXT	SEGMENT
___formal$ = 8						; size = 4
___formal$ = 12						; size = 4
??$?8UNoticeRotateInfo@@U0@@std@@YA_NABV?$allocator@UNoticeRotateInfo@@@0@0@Z PROC ; std::operator==<NoticeRotateInfo,NoticeRotateInfo>, COMDAT

; 712  : 	return (true);

  00000	b0 01		 mov	 al, 1

; 713  : 	}

  00002	c3		 ret	 0
??$?8UNoticeRotateInfo@@U0@@std@@YA_NABV?$allocator@UNoticeRotateInfo@@@0@0@Z ENDP ; std::operator==<NoticeRotateInfo,NoticeRotateInfo>
_TEXT	ENDS
; Function compile flags: /Ogtp
; File c:\program files (x86)\microsoft visual studio 14.0\vc\include\xmemory0
;	COMDAT ??$?8V?$allocator@UNoticeRotateInfo@@@std@@V01@@std@@YA_NABU?$_Wrap_alloc@V?$allocator@UNoticeRotateInfo@@@std@@@0@0@Z
_TEXT	SEGMENT
__Left$ = 8						; size = 4
__Right$ = 12						; size = 4
??$?8V?$allocator@UNoticeRotateInfo@@@std@@V01@@std@@YA_NABU?$_Wrap_alloc@V?$allocator@UNoticeRotateInfo@@@std@@@0@0@Z PROC ; std::operator==<std::allocator<NoticeRotateInfo>,std::allocator<NoticeRotateInfo> >, COMDAT

; 939  : 	return (static_cast<const _Ty&>(_Left)

  00000	b0 01		 mov	 al, 1

; 940  : 		== static_cast<const _Other&>(_Right));
; 941  : 	}

  00002	c3		 ret	 0
??$?8V?$allocator@UNoticeRotateInfo@@@std@@V01@@std@@YA_NABU?$_Wrap_alloc@V?$allocator@UNoticeRotateInfo@@@std@@@0@0@Z ENDP ; std::operator==<std::allocator<NoticeRotateInfo>,std::allocator<NoticeRotateInfo> >
_TEXT	ENDS
; Function compile flags: /Ogtp
;	COMDAT ??__Fg_Notice@@YAXXZ
text$yd	SEGMENT
??__Fg_Notice@@YAXXZ PROC				; `dynamic atexit destructor for 'g_Notice'', COMDAT
  00000	b9 00 00 00 00	 mov	 ecx, OFFSET ?g_Notice@@3VNotice@@A ; g_Notice
  00005	e9 00 00 00 00	 jmp	 ??1Notice@@UAE@XZ	; Notice::~Notice
??__Fg_Notice@@YAXXZ ENDP				; `dynamic atexit destructor for 'g_Notice''
text$yd	ENDS
; Function compile flags: /Ogtp
; File c:\users\michel\desktop\source\gameserver\source\notice.cpp
;	COMDAT ??__Eg_Notice@@YAXXZ
text$di	SEGMENT
??__Eg_Notice@@YAXXZ PROC				; `dynamic initializer for 'g_Notice'', COMDAT

; 10   : Notice g_Notice;

  00000	b9 00 00 00 00	 mov	 ecx, OFFSET ?g_Notice@@3VNotice@@A ; g_Notice
  00005	e8 00 00 00 00	 call	 ??0Notice@@QAE@XZ	; Notice::Notice
  0000a	68 00 00 00 00	 push	 OFFSET ??__Fg_Notice@@YAXXZ ; `dynamic atexit destructor for 'g_Notice''
  0000f	e8 00 00 00 00	 call	 _atexit
  00014	59		 pop	 ecx
  00015	c3		 ret	 0
??__Eg_Notice@@YAXXZ ENDP				; `dynamic initializer for 'g_Notice''
text$di	ENDS
; Function compile flags: /Ogtp
;	COMDAT ??_EOBJECTSTRUCT@@QAEPAXI@Z
_TEXT	SEGMENT
__$EHRec$ = -12						; size = 12
___flags$ = 8						; size = 4
??_EOBJECTSTRUCT@@QAEPAXI@Z PROC			; OBJECTSTRUCT::`vector deleting destructor', COMDAT
; _this$ = ecx
  00000	55		 push	 ebp
  00001	8b ec		 mov	 ebp, esp
  00003	6a ff		 push	 -1
  00005	68 00 00 00 00	 push	 __ehhandler$??_EOBJECTSTRUCT@@QAEPAXI@Z
  0000a	64 a1 00 00 00
	00		 mov	 eax, DWORD PTR fs:0
  00010	50		 push	 eax
  00011	53		 push	 ebx
  00012	56		 push	 esi
  00013	57		 push	 edi
  00014	a1 00 00 00 00	 mov	 eax, DWORD PTR ___security_cookie
  00019	33 c5		 xor	 eax, ebp
  0001b	50		 push	 eax
  0001c	8d 45 f4	 lea	 eax, DWORD PTR __$EHRec$[ebp]
  0001f	64 a3 00 00 00
	00		 mov	 DWORD PTR fs:0, eax
  00025	8b f1		 mov	 esi, ecx
  00027	8b 5d 08	 mov	 ebx, DWORD PTR ___flags$[ebp]
  0002a	f6 c3 02	 test	 bl, 2
  0002d	74 44		 je	 SHORT $LN2@vector
  0002f	68 00 00 00 00	 push	 OFFSET ??1OBJECTSTRUCT@@QAE@XZ
  00034	ff 76 fc	 push	 DWORD PTR [esi-4]
  00037	8d 7e fc	 lea	 edi, DWORD PTR [esi-4]
  0003a	68 40 27 00 00	 push	 10048			; 00002740H
  0003f	56		 push	 esi
  00040	e8 00 00 00 00	 call	 ??_M@YGXPAXIIP6EX0@Z@Z
  00045	f6 c3 01	 test	 bl, 1
  00048	74 13		 je	 SHORT $LN3@vector
  0004a	69 0f 40 27 00
	00		 imul	 ecx, DWORD PTR [edi], 10048
  00050	83 c1 04	 add	 ecx, 4
  00053	51		 push	 ecx
  00054	57		 push	 edi
  00055	e8 00 00 00 00	 call	 ??_V@YAXPAXI@Z		; operator delete[]
  0005a	83 c4 08	 add	 esp, 8
$LN3@vector:
  0005d	8b c7		 mov	 eax, edi
  0005f	8b 4d f4	 mov	 ecx, DWORD PTR __$EHRec$[ebp]
  00062	64 89 0d 00 00
	00 00		 mov	 DWORD PTR fs:0, ecx
  00069	59		 pop	 ecx
  0006a	5f		 pop	 edi
  0006b	5e		 pop	 esi
  0006c	5b		 pop	 ebx
  0006d	8b e5		 mov	 esp, ebp
  0006f	5d		 pop	 ebp
  00070	c2 04 00	 ret	 4
$LN2@vector:
  00073	8d 8e ec 20 00
	00		 lea	 ecx, DWORD PTR [esi+8428]
  00079	e8 00 00 00 00	 call	 ??1TMonsterAIAgro@@UAE@XZ ; TMonsterAIAgro::~TMonsterAIAgro
  0007e	8d 8e 0c 16 00
	00		 lea	 ecx, DWORD PTR [esi+5644]
  00084	e8 00 00 00 00	 call	 ??1CSkillDelay@@UAE@XZ	; CSkillDelay::~CSkillDelay
  00089	f6 c3 01	 test	 bl, 1
  0008c	74 0e		 je	 SHORT $LN4@vector
  0008e	68 40 27 00 00	 push	 10048			; 00002740H
  00093	56		 push	 esi
  00094	e8 00 00 00 00	 call	 ??3@YAXPAXI@Z		; operator delete
  00099	83 c4 08	 add	 esp, 8
$LN4@vector:
  0009c	8b c6		 mov	 eax, esi
  0009e	8b 4d f4	 mov	 ecx, DWORD PTR __$EHRec$[ebp]
  000a1	64 89 0d 00 00
	00 00		 mov	 DWORD PTR fs:0, ecx
  000a8	59		 pop	 ecx
  000a9	5f		 pop	 edi
  000aa	5e		 pop	 esi
  000ab	5b		 pop	 ebx
  000ac	8b e5		 mov	 esp, ebp
  000ae	5d		 pop	 ebp
  000af	c2 04 00	 ret	 4
_TEXT	ENDS
;	COMDAT text$x
text$x	SEGMENT
__ehhandler$??_EOBJECTSTRUCT@@QAEPAXI@Z:
  00000	8b 54 24 08	 mov	 edx, DWORD PTR [esp+8]
  00004	8d 42 0c	 lea	 eax, DWORD PTR [edx+12]
  00007	8b 4a f0	 mov	 ecx, DWORD PTR [edx-16]
  0000a	33 c8		 xor	 ecx, eax
  0000c	e8 00 00 00 00	 call	 @__security_check_cookie@4
  00011	b8 00 00 00 00	 mov	 eax, OFFSET __ehfuncinfo$??_EOBJECTSTRUCT@@QAEPAXI@Z
  00016	e9 00 00 00 00	 jmp	 ___CxxFrameHandler3
text$x	ENDS
??_EOBJECTSTRUCT@@QAEPAXI@Z ENDP			; OBJECTSTRUCT::`vector deleting destructor'
; Function compile flags: /Ogtp
;	COMDAT ??1OBJECTSTRUCT@@QAE@XZ
_TEXT	SEGMENT
??1OBJECTSTRUCT@@QAE@XZ PROC				; OBJECTSTRUCT::~OBJECTSTRUCT, COMDAT
; _this$ = ecx
  00000	56		 push	 esi
  00001	8b f1		 mov	 esi, ecx
  00003	8d 8e ec 20 00
	00		 lea	 ecx, DWORD PTR [esi+8428]
  00009	e8 00 00 00 00	 call	 ??1TMonsterAIAgro@@UAE@XZ ; TMonsterAIAgro::~TMonsterAIAgro
  0000e	8d 8e 0c 16 00
	00		 lea	 ecx, DWORD PTR [esi+5644]
  00014	5e		 pop	 esi
  00015	e9 00 00 00 00	 jmp	 ??1CSkillDelay@@UAE@XZ	; CSkillDelay::~CSkillDelay
??1OBJECTSTRUCT@@QAE@XZ ENDP				; OBJECTSTRUCT::~OBJECTSTRUCT
_TEXT	ENDS
; Function compile flags: /Ogtp
;	COMDAT ??_GNotice@@UAEPAXI@Z
_TEXT	SEGMENT
___flags$ = 8						; size = 4
??_GNotice@@UAEPAXI@Z PROC				; Notice::`scalar deleting destructor', COMDAT
; _this$ = ecx
  00000	55		 push	 ebp
  00001	8b ec		 mov	 ebp, esp
  00003	56		 push	 esi
  00004	8b f1		 mov	 esi, ecx
  00006	e8 00 00 00 00	 call	 ??1Notice@@UAE@XZ	; Notice::~Notice
  0000b	f6 45 08 01	 test	 BYTE PTR ___flags$[ebp], 1
  0000f	74 0b		 je	 SHORT $LN4@scalar
  00011	6a 1c		 push	 28			; 0000001cH
  00013	56		 push	 esi
  00014	e8 00 00 00 00	 call	 ??3@YAXPAXI@Z		; operator delete
  00019	83 c4 08	 add	 esp, 8
$LN4@scalar:
  0001c	8b c6		 mov	 eax, esi
  0001e	5e		 pop	 esi
  0001f	5d		 pop	 ebp
  00020	c2 04 00	 ret	 4
??_GNotice@@UAEPAXI@Z ENDP				; Notice::`scalar deleting destructor'
_TEXT	ENDS
; Function compile flags: /Ogtp
; File c:\program files (x86)\microsoft visual studio 14.0\vc\include\vector
;	COMDAT ?_Orphan_range@?$vector@UNoticeRotateInfo@@V?$allocator@UNoticeRotateInfo@@@std@@@std@@IBEXPAUNoticeRotateInfo@@0@Z
_TEXT	SEGMENT
___formal$ = 8						; size = 4
___formal$ = 12						; size = 4
?_Orphan_range@?$vector@UNoticeRotateInfo@@V?$allocator@UNoticeRotateInfo@@@std@@@std@@IBEXPAUNoticeRotateInfo@@0@Z PROC ; std::vector<NoticeRotateInfo,std::allocator<NoticeRotateInfo> >::_Orphan_range, COMDAT
; _this$ = ecx

; 1813 : 		}

  00000	c2 08 00	 ret	 8
?_Orphan_range@?$vector@UNoticeRotateInfo@@V?$allocator@UNoticeRotateInfo@@@std@@@std@@IBEXPAUNoticeRotateInfo@@0@Z ENDP ; std::vector<NoticeRotateInfo,std::allocator<NoticeRotateInfo> >::_Orphan_range
_TEXT	ENDS
; Function compile flags: /Ogtp
; File c:\program files (x86)\microsoft visual studio 14.0\vc\include\vector
;	COMDAT ?_Xlen@?$vector@UNoticeRotateInfo@@V?$allocator@UNoticeRotateInfo@@@std@@@std@@IBEXXZ
_TEXT	SEGMENT
?_Xlen@?$vector@UNoticeRotateInfo@@V?$allocator@UNoticeRotateInfo@@@std@@@std@@IBEXXZ PROC ; std::vector<NoticeRotateInfo,std::allocator<NoticeRotateInfo> >::_Xlen, COMDAT
; _this$ = ecx

; 1784 : 		_Xlength_error("vector<T> too long");

  00000	68 00 00 00 00	 push	 OFFSET ??_C@_0BD@OLBABOEK@vector?$DMT?$DO?5too?5long?$AA@
  00005	e8 00 00 00 00	 call	 ?_Xlength_error@std@@YAXPBD@Z ; std::_Xlength_error
$LN4@Xlen:
$LN3@Xlen:
  0000a	cc		 int	 3
?_Xlen@?$vector@UNoticeRotateInfo@@V?$allocator@UNoticeRotateInfo@@@std@@@std@@IBEXXZ ENDP ; std::vector<NoticeRotateInfo,std::allocator<NoticeRotateInfo> >::_Xlen
_TEXT	ENDS
; Function compile flags: /Ogtp
; File c:\program files (x86)\microsoft visual studio 14.0\vc\include\vector
;	COMDAT ?_Tidy@?$vector@UNoticeRotateInfo@@V?$allocator@UNoticeRotateInfo@@@std@@@std@@IAEXXZ
_TEXT	SEGMENT
?_Tidy@?$vector@UNoticeRotateInfo@@V?$allocator@UNoticeRotateInfo@@@std@@@std@@IAEXXZ PROC ; std::vector<NoticeRotateInfo,std::allocator<NoticeRotateInfo> >::_Tidy, COMDAT
; _this$ = ecx

; 1655 : 		{	// free all storage

  00000	56		 push	 esi
  00001	8b f1		 mov	 esi, ecx

; 1656 : 		if (this->_Myfirst() != pointer())

  00003	8b 0e		 mov	 ecx, DWORD PTR [esi]
  00005	85 c9		 test	 ecx, ecx
  00007	74 33		 je	 SHORT $LN2@Tidy

; 1657 : 			{	// something to free, destroy and deallocate it
; 1658 : 			this->_Orphan_all();
; 1659 : 			_Destroy(this->_Myfirst(), this->_Mylast());
; 1660 : 			this->_Getal().deallocate(this->_Myfirst(),

  00009	8b 56 08	 mov	 edx, DWORD PTR [esi+8]
  0000c	b8 f7 12 da 4b	 mov	 eax, 1272582903		; 4bda12f7H
  00011	2b d1		 sub	 edx, ecx
  00013	f7 ea		 imul	 edx
  00015	c1 fa 05	 sar	 edx, 5
  00018	8b c2		 mov	 eax, edx
  0001a	c1 e8 1f	 shr	 eax, 31			; 0000001fH
  0001d	03 c2		 add	 eax, edx
  0001f	50		 push	 eax
  00020	51		 push	 ecx
  00021	8b ce		 mov	 ecx, esi
  00023	e8 00 00 00 00	 call	 ?deallocate@?$_Wrap_alloc@V?$allocator@UNoticeRotateInfo@@@std@@@std@@QAEXPAUNoticeRotateInfo@@I@Z ; std::_Wrap_alloc<std::allocator<NoticeRotateInfo> >::deallocate

; 1661 : 				this->_Myend() - this->_Myfirst());
; 1662 : 			this->_Myfirst() = pointer();

  00028	c7 06 00 00 00
	00		 mov	 DWORD PTR [esi], 0

; 1663 : 			this->_Mylast() = pointer();

  0002e	c7 46 04 00 00
	00 00		 mov	 DWORD PTR [esi+4], 0

; 1664 : 			this->_Myend() = pointer();

  00035	c7 46 08 00 00
	00 00		 mov	 DWORD PTR [esi+8], 0
$LN2@Tidy:
  0003c	5e		 pop	 esi

; 1665 : 			}
; 1666 : 		}

  0003d	c3		 ret	 0
?_Tidy@?$vector@UNoticeRotateInfo@@V?$allocator@UNoticeRotateInfo@@@std@@@std@@IAEXXZ ENDP ; std::vector<NoticeRotateInfo,std::allocator<NoticeRotateInfo> >::_Tidy
_TEXT	ENDS
; Function compile flags: /Ogtp
; File c:\program files (x86)\microsoft visual studio 14.0\vc\include\vector
;	COMDAT ?_Reserve@?$vector@UNoticeRotateInfo@@V?$allocator@UNoticeRotateInfo@@@std@@@std@@IAEXI@Z
_TEXT	SEGMENT
tv202 = 8						; size = 4
__Count$ = 8						; size = 4
?_Reserve@?$vector@UNoticeRotateInfo@@V?$allocator@UNoticeRotateInfo@@@std@@@std@@IAEXI@Z PROC ; std::vector<NoticeRotateInfo,std::allocator<NoticeRotateInfo> >::_Reserve, COMDAT
; _this$ = ecx

; 1645 : 		{	// ensure room for _Count new elements, grow exponentially

  00000	55		 push	 ebp
  00001	8b ec		 mov	 ebp, esp
  00003	53		 push	 ebx
  00004	8b d9		 mov	 ebx, ecx

; 1043 : 		}
; 1044 : 
; 1045 : 	size_type _Unused_capacity() const _NOEXCEPT
; 1046 : 		{	// micro-optimization for capacity() - size()
; 1047 : 		return (this->_Myend() - this->_Mylast());

  00006	b8 f7 12 da 4b	 mov	 eax, 1272582903		; 4bda12f7H
  0000b	56		 push	 esi
  0000c	57		 push	 edi

; 1646 : 		if (_Unused_capacity() < _Count)

  0000d	8b 7d 08	 mov	 edi, DWORD PTR __Count$[ebp]

; 1043 : 		}
; 1044 : 
; 1045 : 	size_type _Unused_capacity() const _NOEXCEPT
; 1046 : 		{	// micro-optimization for capacity() - size()
; 1047 : 		return (this->_Myend() - this->_Mylast());

  00010	8b 53 08	 mov	 edx, DWORD PTR [ebx+8]
  00013	8b 73 04	 mov	 esi, DWORD PTR [ebx+4]
  00016	2b d6		 sub	 edx, esi
  00018	f7 ea		 imul	 edx
  0001a	c1 fa 05	 sar	 edx, 5
  0001d	8b c2		 mov	 eax, edx
  0001f	c1 e8 1f	 shr	 eax, 31			; 0000001fH
  00022	03 c2		 add	 eax, edx

; 1646 : 		if (_Unused_capacity() < _Count)

  00024	3b c7		 cmp	 eax, edi
  00026	73 61		 jae	 SHORT $LN2@Reserve

; 1048 : 		}
; 1049 : 
; 1050 : 	size_type _Has_unused_capacity() const _NOEXCEPT
; 1051 : 		{	// micro-optimization for capacity() != size()
; 1052 : 		return (this->_Myend() != this->_Mylast());
; 1053 : 		}
; 1054 : 
; 1055 : 	iterator begin() _NOEXCEPT
; 1056 : 		{	// return iterator for beginning of mutable sequence
; 1057 : 		return (iterator(this->_Myfirst(), &this->_Get_data()));
; 1058 : 		}
; 1059 : 
; 1060 : 	const_iterator begin() const _NOEXCEPT
; 1061 : 		{	// return iterator for beginning of nonmutable sequence
; 1062 : 		return (const_iterator(this->_Myfirst(), &this->_Get_data()));
; 1063 : 		}
; 1064 : 
; 1065 : 	iterator end() _NOEXCEPT
; 1066 : 		{	// return iterator for end of mutable sequence
; 1067 : 		return (iterator(this->_Mylast(), &this->_Get_data()));
; 1068 : 		}
; 1069 : 
; 1070 : 	const_iterator end() const _NOEXCEPT
; 1071 : 		{	// return iterator for end of nonmutable sequence
; 1072 : 		return (const_iterator(this->_Mylast(), &this->_Get_data()));
; 1073 : 		}
; 1074 : 
; 1075 : 	iterator _Make_iter(const_iterator _Where) const
; 1076 : 		{	// make iterator from const_iterator
; 1077 : 		return (iterator(_Where._Ptr, &this->_Get_data()));
; 1078 : 		}
; 1079 : 
; 1080 : 	reverse_iterator rbegin() _NOEXCEPT
; 1081 : 		{	// return iterator for beginning of reversed mutable sequence
; 1082 : 		return (reverse_iterator(end()));
; 1083 : 		}
; 1084 : 
; 1085 : 	const_reverse_iterator rbegin() const _NOEXCEPT
; 1086 : 		{	// return iterator for beginning of reversed nonmutable sequence
; 1087 : 		return (const_reverse_iterator(end()));
; 1088 : 		}
; 1089 : 
; 1090 : 	reverse_iterator rend() _NOEXCEPT
; 1091 : 		{	// return iterator for end of reversed mutable sequence
; 1092 : 		return (reverse_iterator(begin()));
; 1093 : 		}
; 1094 : 
; 1095 : 	const_reverse_iterator rend() const _NOEXCEPT
; 1096 : 		{	// return iterator for end of reversed nonmutable sequence
; 1097 : 		return (const_reverse_iterator(begin()));
; 1098 : 		}
; 1099 : 
; 1100 : 	const_iterator cbegin() const _NOEXCEPT
; 1101 : 		{	// return iterator for beginning of nonmutable sequence
; 1102 : 		return (begin());
; 1103 : 		}
; 1104 : 
; 1105 : 	const_iterator cend() const _NOEXCEPT
; 1106 : 		{	// return iterator for end of nonmutable sequence
; 1107 : 		return (end());
; 1108 : 		}
; 1109 : 
; 1110 : 	const_reverse_iterator crbegin() const _NOEXCEPT
; 1111 : 		{	// return iterator for beginning of reversed nonmutable sequence
; 1112 : 		return (rbegin());
; 1113 : 		}
; 1114 : 
; 1115 : 	const_reverse_iterator crend() const _NOEXCEPT
; 1116 : 		{	// return iterator for end of reversed nonmutable sequence
; 1117 : 		return (rend());
; 1118 : 		}
; 1119 : 
; 1120 : 	void shrink_to_fit()
; 1121 : 		{	// reduce capacity
; 1122 : 		if (_Has_unused_capacity())
; 1123 : 			{	// worth shrinking, do it
; 1124 : 			if (empty())
; 1125 : 				_Tidy();
; 1126 : 			else
; 1127 : 				_Reallocate(size());
; 1128 : 			}
; 1129 : 		}
; 1130 : 
; 1131 : 	void resize(size_type _Newsize)
; 1132 : 		{	// determine new length, padding as needed
; 1133 : 		if (_Newsize < size())
; 1134 : 			_Pop_back_n(size() - _Newsize);
; 1135 : 		else if (size() < _Newsize)
; 1136 : 			{	// pad as needed
; 1137 : 			_Reserve(_Newsize - size());
; 1138 : 			_TRY_BEGIN
; 1139 : 			_Uninitialized_default_fill_n(this->_Mylast(), _Newsize - size(),
; 1140 : 				this->_Getal());
; 1141 : 			_CATCH_ALL
; 1142 : 			_Tidy();
; 1143 : 			_RERAISE;
; 1144 : 			_CATCH_END
; 1145 : 			this->_Mylast() += _Newsize - size();
; 1146 : 			}
; 1147 : 		}
; 1148 : 
; 1149 : 	void resize(size_type _Newsize, const value_type& _Val)
; 1150 : 		{	// determine new length, padding with _Val elements as needed
; 1151 : 		if (_Newsize < size())
; 1152 : 			_Pop_back_n(size() - _Newsize);
; 1153 : 		else if (size() < _Newsize)
; 1154 : 			{	// pad as needed
; 1155 : 			const value_type *_Ptr = _STD addressof(_Val);
; 1156 : 
; 1157 : 			if (_Inside(_Ptr))
; 1158 : 				{	// padding is inside vector, recompute _Ptr after reserve
; 1159 : 				const difference_type _Idx = _Ptr
; 1160 : 					- _STD addressof(*this->_Myfirst());
; 1161 : 				_Reserve(_Newsize - size());
; 1162 : 				_Ptr = _STD addressof(*this->_Myfirst()) + _Idx;
; 1163 : 				}
; 1164 : 			else
; 1165 : 				_Reserve(_Newsize - size());
; 1166 : 
; 1167 : 			_TRY_BEGIN
; 1168 : 			_Ufill(this->_Mylast(), _Newsize - size(), _Ptr);
; 1169 : 			_CATCH_ALL
; 1170 : 			_Tidy();
; 1171 : 			_RERAISE;
; 1172 : 			_CATCH_END
; 1173 : 			this->_Mylast() += _Newsize - size();
; 1174 : 			}
; 1175 : 		}
; 1176 : 
; 1177 : 	size_type size() const _NOEXCEPT
; 1178 : 		{	// return length of sequence
; 1179 : 		return (this->_Mylast() - this->_Myfirst());

  00028	8b 03		 mov	 eax, DWORD PTR [ebx]
  0002a	2b f0		 sub	 esi, eax
  0002c	89 45 08	 mov	 DWORD PTR tv202[ebp], eax
  0002f	b8 f7 12 da 4b	 mov	 eax, 1272582903		; 4bda12f7H
  00034	f7 ee		 imul	 esi

; 1647 : 			{	// need more room, try to get it
; 1648 : 			if (max_size() - size() < _Count)

  00036	b8 97 d0 5e 02	 mov	 eax, 39768215		; 025ed097H

; 1048 : 		}
; 1049 : 
; 1050 : 	size_type _Has_unused_capacity() const _NOEXCEPT
; 1051 : 		{	// micro-optimization for capacity() != size()
; 1052 : 		return (this->_Myend() != this->_Mylast());
; 1053 : 		}
; 1054 : 
; 1055 : 	iterator begin() _NOEXCEPT
; 1056 : 		{	// return iterator for beginning of mutable sequence
; 1057 : 		return (iterator(this->_Myfirst(), &this->_Get_data()));
; 1058 : 		}
; 1059 : 
; 1060 : 	const_iterator begin() const _NOEXCEPT
; 1061 : 		{	// return iterator for beginning of nonmutable sequence
; 1062 : 		return (const_iterator(this->_Myfirst(), &this->_Get_data()));
; 1063 : 		}
; 1064 : 
; 1065 : 	iterator end() _NOEXCEPT
; 1066 : 		{	// return iterator for end of mutable sequence
; 1067 : 		return (iterator(this->_Mylast(), &this->_Get_data()));
; 1068 : 		}
; 1069 : 
; 1070 : 	const_iterator end() const _NOEXCEPT
; 1071 : 		{	// return iterator for end of nonmutable sequence
; 1072 : 		return (const_iterator(this->_Mylast(), &this->_Get_data()));
; 1073 : 		}
; 1074 : 
; 1075 : 	iterator _Make_iter(const_iterator _Where) const
; 1076 : 		{	// make iterator from const_iterator
; 1077 : 		return (iterator(_Where._Ptr, &this->_Get_data()));
; 1078 : 		}
; 1079 : 
; 1080 : 	reverse_iterator rbegin() _NOEXCEPT
; 1081 : 		{	// return iterator for beginning of reversed mutable sequence
; 1082 : 		return (reverse_iterator(end()));
; 1083 : 		}
; 1084 : 
; 1085 : 	const_reverse_iterator rbegin() const _NOEXCEPT
; 1086 : 		{	// return iterator for beginning of reversed nonmutable sequence
; 1087 : 		return (const_reverse_iterator(end()));
; 1088 : 		}
; 1089 : 
; 1090 : 	reverse_iterator rend() _NOEXCEPT
; 1091 : 		{	// return iterator for end of reversed mutable sequence
; 1092 : 		return (reverse_iterator(begin()));
; 1093 : 		}
; 1094 : 
; 1095 : 	const_reverse_iterator rend() const _NOEXCEPT
; 1096 : 		{	// return iterator for end of reversed nonmutable sequence
; 1097 : 		return (const_reverse_iterator(begin()));
; 1098 : 		}
; 1099 : 
; 1100 : 	const_iterator cbegin() const _NOEXCEPT
; 1101 : 		{	// return iterator for beginning of nonmutable sequence
; 1102 : 		return (begin());
; 1103 : 		}
; 1104 : 
; 1105 : 	const_iterator cend() const _NOEXCEPT
; 1106 : 		{	// return iterator for end of nonmutable sequence
; 1107 : 		return (end());
; 1108 : 		}
; 1109 : 
; 1110 : 	const_reverse_iterator crbegin() const _NOEXCEPT
; 1111 : 		{	// return iterator for beginning of reversed nonmutable sequence
; 1112 : 		return (rbegin());
; 1113 : 		}
; 1114 : 
; 1115 : 	const_reverse_iterator crend() const _NOEXCEPT
; 1116 : 		{	// return iterator for end of reversed nonmutable sequence
; 1117 : 		return (rend());
; 1118 : 		}
; 1119 : 
; 1120 : 	void shrink_to_fit()
; 1121 : 		{	// reduce capacity
; 1122 : 		if (_Has_unused_capacity())
; 1123 : 			{	// worth shrinking, do it
; 1124 : 			if (empty())
; 1125 : 				_Tidy();
; 1126 : 			else
; 1127 : 				_Reallocate(size());
; 1128 : 			}
; 1129 : 		}
; 1130 : 
; 1131 : 	void resize(size_type _Newsize)
; 1132 : 		{	// determine new length, padding as needed
; 1133 : 		if (_Newsize < size())
; 1134 : 			_Pop_back_n(size() - _Newsize);
; 1135 : 		else if (size() < _Newsize)
; 1136 : 			{	// pad as needed
; 1137 : 			_Reserve(_Newsize - size());
; 1138 : 			_TRY_BEGIN
; 1139 : 			_Uninitialized_default_fill_n(this->_Mylast(), _Newsize - size(),
; 1140 : 				this->_Getal());
; 1141 : 			_CATCH_ALL
; 1142 : 			_Tidy();
; 1143 : 			_RERAISE;
; 1144 : 			_CATCH_END
; 1145 : 			this->_Mylast() += _Newsize - size();
; 1146 : 			}
; 1147 : 		}
; 1148 : 
; 1149 : 	void resize(size_type _Newsize, const value_type& _Val)
; 1150 : 		{	// determine new length, padding with _Val elements as needed
; 1151 : 		if (_Newsize < size())
; 1152 : 			_Pop_back_n(size() - _Newsize);
; 1153 : 		else if (size() < _Newsize)
; 1154 : 			{	// pad as needed
; 1155 : 			const value_type *_Ptr = _STD addressof(_Val);
; 1156 : 
; 1157 : 			if (_Inside(_Ptr))
; 1158 : 				{	// padding is inside vector, recompute _Ptr after reserve
; 1159 : 				const difference_type _Idx = _Ptr
; 1160 : 					- _STD addressof(*this->_Myfirst());
; 1161 : 				_Reserve(_Newsize - size());
; 1162 : 				_Ptr = _STD addressof(*this->_Myfirst()) + _Idx;
; 1163 : 				}
; 1164 : 			else
; 1165 : 				_Reserve(_Newsize - size());
; 1166 : 
; 1167 : 			_TRY_BEGIN
; 1168 : 			_Ufill(this->_Mylast(), _Newsize - size(), _Ptr);
; 1169 : 			_CATCH_ALL
; 1170 : 			_Tidy();
; 1171 : 			_RERAISE;
; 1172 : 			_CATCH_END
; 1173 : 			this->_Mylast() += _Newsize - size();
; 1174 : 			}
; 1175 : 		}
; 1176 : 
; 1177 : 	size_type size() const _NOEXCEPT
; 1178 : 		{	// return length of sequence
; 1179 : 		return (this->_Mylast() - this->_Myfirst());

  0003b	c1 fa 05	 sar	 edx, 5
  0003e	8b ca		 mov	 ecx, edx
  00040	c1 e9 1f	 shr	 ecx, 31			; 0000001fH
  00043	03 ca		 add	 ecx, edx

; 1647 : 			{	// need more room, try to get it
; 1648 : 			if (max_size() - size() < _Count)

  00045	2b c1		 sub	 eax, ecx
  00047	3b c7		 cmp	 eax, edi
  00049	72 45		 jb	 SHORT $LN134@Reserve

; 1649 : 				_Xlen();
; 1650 : 			_Reallocate(_Grow_to(size() + _Count));

  0004b	03 f9		 add	 edi, ecx

; 1042 : 		return (this->_Myend() - this->_Myfirst());

  0004d	b8 f7 12 da 4b	 mov	 eax, 1272582903		; 4bda12f7H
  00052	8b 4b 08	 mov	 ecx, DWORD PTR [ebx+8]
  00055	2b 4d 08	 sub	 ecx, DWORD PTR tv202[ebp]
  00058	f7 e9		 imul	 ecx
  0005a	c1 fa 05	 sar	 edx, 5
  0005d	8b f2		 mov	 esi, edx
  0005f	c1 ee 1f	 shr	 esi, 31			; 0000001fH
  00062	03 f2		 add	 esi, edx

; 1180 : 		}
; 1181 : 
; 1182 : 	size_type max_size() const _NOEXCEPT
; 1183 : 		{	// return maximum possible length of sequence
; 1184 : 		return (this->_Getal().max_size());
; 1185 : 		}
; 1186 : 
; 1187 : 	bool empty() const _NOEXCEPT
; 1188 : 		{	// test if sequence is empty
; 1189 : 		return (this->_Myfirst() == this->_Mylast());
; 1190 : 		}
; 1191 : 
; 1192 : 	_Alloc get_allocator() const _NOEXCEPT
; 1193 : 		{	// return allocator object for values
; 1194 : 		return (this->_Getal());
; 1195 : 		}
; 1196 : 
; 1197 : 	const_reference at(size_type _Pos) const
; 1198 : 		{	// subscript nonmutable sequence with checking
; 1199 : 		if (size() <= _Pos)
; 1200 : 			_Xran();
; 1201 : 		return (*(this->_Myfirst() + _Pos));
; 1202 : 		}
; 1203 : 
; 1204 : 	reference at(size_type _Pos)
; 1205 : 		{	// subscript mutable sequence with checking
; 1206 : 		if (size() <= _Pos)
; 1207 : 			_Xran();
; 1208 : 		return (*(this->_Myfirst() + _Pos));
; 1209 : 		}
; 1210 : 
; 1211 : 	const_reference operator[](size_type _Pos) const
; 1212 : 		{	// subscript nonmutable sequence
; 1213 :  #if _ITERATOR_DEBUG_LEVEL == 2
; 1214 : 		if (size() <= _Pos)
; 1215 : 			{	// report error
; 1216 : 			_DEBUG_ERROR("vector subscript out of range");
; 1217 : 			_SCL_SECURE_OUT_OF_RANGE;
; 1218 : 			}
; 1219 : 
; 1220 :  #elif _ITERATOR_DEBUG_LEVEL == 1
; 1221 : 		_SCL_SECURE_VALIDATE_RANGE(_Pos < size());
; 1222 :  #endif /* _ITERATOR_DEBUG_LEVEL */
; 1223 : 
; 1224 : 		return (*(this->_Myfirst() + _Pos));
; 1225 : 		}
; 1226 : 
; 1227 : 	reference operator[](size_type _Pos)
; 1228 : 		{	// subscript mutable sequence
; 1229 :  #if _ITERATOR_DEBUG_LEVEL == 2
; 1230 : 		if (size() <= _Pos)
; 1231 : 			{	// report error
; 1232 : 			_DEBUG_ERROR("vector subscript out of range");
; 1233 : 			_SCL_SECURE_OUT_OF_RANGE;
; 1234 : 			}
; 1235 : 
; 1236 :  #elif _ITERATOR_DEBUG_LEVEL == 1
; 1237 : 		_SCL_SECURE_VALIDATE_RANGE(_Pos < size());
; 1238 :  #endif /* _ITERATOR_DEBUG_LEVEL */
; 1239 : 
; 1240 : 		return (*(this->_Myfirst() + _Pos));
; 1241 : 		}
; 1242 : 
; 1243 : 	pointer data() _NOEXCEPT
; 1244 : 		{	// return address of first element
; 1245 : 		return (this->_Myfirst());
; 1246 : 		}
; 1247 : 
; 1248 : 	const_pointer data() const _NOEXCEPT
; 1249 : 		{	// return address of first element
; 1250 : 		return (this->_Myfirst());
; 1251 : 		}
; 1252 : 
; 1253 : 	reference front()
; 1254 : 		{	// return first element of mutable sequence
; 1255 : 		return (*begin());
; 1256 : 		}
; 1257 : 
; 1258 : 	const_reference front() const
; 1259 : 		{	// return first element of nonmutable sequence
; 1260 : 		return (*begin());
; 1261 : 		}
; 1262 : 
; 1263 : 	reference back()
; 1264 : 		{	// return last element of mutable sequence
; 1265 : 		return (*(end() - 1));
; 1266 : 		}
; 1267 : 
; 1268 : 	const_reference back() const
; 1269 : 		{	// return last element of nonmutable sequence
; 1270 : 		return (*(end() - 1));
; 1271 : 		}
; 1272 : 
; 1273 : 	void push_back(const value_type& _Val)
; 1274 : 		{	// insert element at end
; 1275 : 		if (_Inside(_STD addressof(_Val)))
; 1276 : 			{	// push back an element
; 1277 : 			size_type _Idx = _STD addressof(_Val) - this->_Myfirst();
; 1278 : 			if (this->_Mylast() == this->_Myend())
; 1279 : 				_Reserve(1);
; 1280 : 			_Orphan_range(this->_Mylast(), this->_Mylast());
; 1281 : 			this->_Getal().construct(this->_Mylast(),
; 1282 : 				this->_Myfirst()[_Idx]);
; 1283 : 			++this->_Mylast();
; 1284 : 			}
; 1285 : 		else
; 1286 : 			{	// push back a non-element
; 1287 : 			if (this->_Mylast() == this->_Myend())
; 1288 : 				_Reserve(1);
; 1289 : 			_Orphan_range(this->_Mylast(), this->_Mylast());
; 1290 : 			this->_Getal().construct(this->_Mylast(),
; 1291 : 				_Val);
; 1292 : 			++this->_Mylast();
; 1293 : 			}
; 1294 : 		}
; 1295 : 
; 1296 :  #if _ITERATOR_DEBUG_LEVEL == 2
; 1297 : 	void pop_back()
; 1298 : 		{	// erase element at end
; 1299 : 		if (empty())
; 1300 : 			_DEBUG_ERROR("vector empty before pop");
; 1301 : 		else
; 1302 : 			{	// erase last element
; 1303 : 			_Orphan_range(this->_Mylast() - 1, this->_Mylast());
; 1304 : 			this->_Getal().destroy(this->_Mylast() - 1);
; 1305 : 			--this->_Mylast();
; 1306 : 			}
; 1307 : 		}
; 1308 : 
; 1309 :  #else /* _ITERATOR_DEBUG_LEVEL == 2 */
; 1310 : 	void pop_back()
; 1311 : 		{	// erase element at end
; 1312 : 		this->_Getal().destroy(this->_Mylast() - 1);
; 1313 : 		--this->_Mylast();
; 1314 : 		}
; 1315 :  #endif /* _ITERATOR_DEBUG_LEVEL == 2 */
; 1316 : 
; 1317 : 	template<class _Iter>
; 1318 : 		typename enable_if<_Is_iterator<_Iter>::value,
; 1319 : 			void>::type
; 1320 : 		assign(_Iter _First, _Iter _Last)
; 1321 : 		{	// assign [_First, _Last)
; 1322 : 		clear();
; 1323 : 		_Assign(_First, _Last, _Iter_cat(_First));
; 1324 : 		}
; 1325 : 
; 1326 : 	template<class _Iter>
; 1327 : 		void _Assign(_Iter _First, _Iter _Last,
; 1328 : 			input_iterator_tag)
; 1329 : 		{	// assign [_First, _Last), input iterators
; 1330 : 		for (; _First != _Last; ++_First)
; 1331 : 			emplace_back(*_First);
; 1332 : 		}
; 1333 : 
; 1334 : 	template<class _Iter>
; 1335 : 		void _Assign(_Iter _First, _Iter _Last,
; 1336 : 			forward_iterator_tag)
; 1337 : 		{	// assign [_First, _Last), forward iterators
; 1338 : 		size_type _Newsize = _STD distance(_First, _Last);
; 1339 : 
; 1340 : 		if (capacity() < _Newsize)
; 1341 : 			{	// need more room, try to get it
; 1342 : 			size_type _Newcapacity = _Grow_to(_Newsize);
; 1343 : 			_Tidy();
; 1344 : 			_Buy(_Newcapacity);
; 1345 : 			}
; 1346 : 
; 1347 : 		this->_Mylast() = _Ucopy(_First, _Last, this->_Myfirst());
; 1348 : 		}
; 1349 : 
; 1350 : 	void assign(size_type _Count, const value_type& _Val)
; 1351 : 		{	// assign _Count * _Val
; 1352 : 		clear();
; 1353 : 		insert(begin(), _Count, _Val);
; 1354 : 		}
; 1355 : 
; 1356 : 	iterator insert(const_iterator _Where, const _Ty& _Val)
; 1357 : 		{	// insert _Val at _Where
; 1358 : 		return (_Insert_n(_Where, (size_type)1, _Val));
; 1359 : 		}
; 1360 : 
; 1361 : 	iterator insert(const_iterator _Where, size_type _Count,
; 1362 : 		const _Ty& _Val)
; 1363 : 		{	// insert _Count * _Val at _Where
; 1364 : 		return (_Insert_n(_Where, _Count, _Val));
; 1365 : 		}
; 1366 : 
; 1367 : 	template<class _Iter>
; 1368 : 		typename enable_if<_Is_iterator<_Iter>::value,
; 1369 : 			iterator>::type
; 1370 : 		insert(const_iterator _Where, _Iter _First, _Iter _Last)
; 1371 : 		{	// insert [_First, _Last) at _Where
; 1372 : 		size_type _Off = _VIPTR(_Where) - this->_Myfirst();
; 1373 : 		_Insert(_Where, _First, _Last, _Iter_cat(_First));
; 1374 : 		return (begin() + _Off);
; 1375 : 		}
; 1376 : 
; 1377 : 	template<class _Iter>
; 1378 : 		void _Insert(const_iterator _Where,
; 1379 : 			_Iter _First, _Iter _Last,
; 1380 : 				input_iterator_tag)
; 1381 : 		{	// insert [_First, _Last) at _Where, input iterators
; 1382 : 		size_type _Off = _VIPTR(_Where) - this->_Myfirst();
; 1383 : 
; 1384 :  #if _ITERATOR_DEBUG_LEVEL == 2
; 1385 : 		if (size() < _Off)
; 1386 : 			_DEBUG_ERROR("vector insert iterator outside range");
; 1387 :  #endif /* _ITERATOR_DEBUG_LEVEL == 2 */
; 1388 : 
; 1389 : 		if (_First != _Last)
; 1390 : 			{	// worth doing, gather at end and rotate into place
; 1391 : 			size_type _Oldsize = size();
; 1392 : 
; 1393 : 			_TRY_BEGIN
; 1394 : 			for (; _First != _Last; ++_First)
; 1395 : 				push_back(*_First);	// append
; 1396 : 
; 1397 : 			_CATCH_ALL
; 1398 : 			erase(begin() + _Oldsize, end());
; 1399 : 			_RERAISE;
; 1400 : 			_CATCH_END
; 1401 : 
; 1402 : 			_STD rotate(begin() + _Off, begin() + _Oldsize, end());
; 1403 : 			}
; 1404 : 		}
; 1405 : 
; 1406 : 	template<class _Iter>
; 1407 : 		void _Insert(const_iterator _Where,
; 1408 : 			_Iter _First, _Iter _Last,
; 1409 : 				forward_iterator_tag)
; 1410 : 		{	// insert [_First, _Last) at _Where, forward iterators
; 1411 :  #if _ITERATOR_DEBUG_LEVEL == 2
; 1412 : 		if (_VICONT(_Where) != &this->_Get_data()
; 1413 : 			|| _VIPTR(_Where) < this->_Myfirst()
; 1414 : 			|| this->_Mylast() < _VIPTR(_Where))
; 1415 : 			_DEBUG_ERROR("vector insert iterator outside range");
; 1416 : 		_DEBUG_RANGE(_First, _Last);
; 1417 :  #endif /* _ITERATOR_DEBUG_LEVEL == 2 */
; 1418 : 
; 1419 : 		size_type _Count = 0;
; 1420 : 		_Distance(_First, _Last, _Count);
; 1421 : 
; 1422 : 		if (_Count == 0)
; 1423 : 			;
; 1424 : 		else if (_Unused_capacity() < _Count)
; 1425 : 			{	// not enough room, reallocate
; 1426 : 			if (max_size() - size() < _Count)
; 1427 : 				_Xlen();	// result too long
; 1428 : 
; 1429 : 			size_type _Capacity = _Grow_to(size() + _Count);
; 1430 : 			pointer _Newvec = this->_Getal().allocate(_Capacity);
; 1431 : 			pointer _Ptr = _Newvec;
; 1432 : 
; 1433 : 			_TRY_BEGIN
; 1434 : 			_Ptr = _Umove(this->_Myfirst(), _VIPTR(_Where),
; 1435 : 				_Newvec);	// copy prefix
; 1436 : 			_Ptr = _Ucopy(_First, _Last, _Ptr);	// add new stuff
; 1437 : 			_Umove(_VIPTR(_Where), this->_Mylast(),
; 1438 : 				_Ptr);	// copy suffix
; 1439 : 			_CATCH_ALL
; 1440 : 			_Destroy(_Newvec, _Ptr);
; 1441 : 			this->_Getal().deallocate(_Newvec, _Capacity);
; 1442 : 			_RERAISE;
; 1443 : 			_CATCH_END
; 1444 : 
; 1445 : 			_Count += size();
; 1446 : 			if (this->_Myfirst() != pointer())
; 1447 : 				{	// destroy and deallocate old array
; 1448 : 				_Destroy(this->_Myfirst(), this->_Mylast());
; 1449 : 				this->_Getal().deallocate(this->_Myfirst(),
; 1450 : 					this->_Myend() - this->_Myfirst());
; 1451 : 				}
; 1452 : 
; 1453 : 			this->_Orphan_all();
; 1454 : 			this->_Myend() = _Newvec + _Capacity;
; 1455 : 			this->_Mylast() = _Newvec + _Count;
; 1456 : 			this->_Myfirst() = _Newvec;
; 1457 : 			}
; 1458 : 		else
; 1459 : 			{	// new stuff fits, append and rotate into place
; 1460 : 			_Ucopy(_First, _Last, this->_Mylast());
; 1461 : 			_STD rotate(_VIPTR(_Where), this->_Mylast(),
; 1462 : 				this->_Mylast() + _Count);
; 1463 : 			this->_Mylast() += _Count;
; 1464 : 			_Orphan_range(_VIPTR(_Where), this->_Mylast());
; 1465 : 			}
; 1466 : 		}
; 1467 : 
; 1468 :  #if _ITERATOR_DEBUG_LEVEL == 2
; 1469 : 	iterator erase(const_iterator _Where)
; 1470 : 		{	// erase element at where
; 1471 : 		if (_VICONT(_Where) != &this->_Get_data()
; 1472 : 			|| _VIPTR(_Where) < this->_Myfirst()
; 1473 : 			|| this->_Mylast() <= _VIPTR(_Where))
; 1474 : 			_DEBUG_ERROR("vector erase iterator outside range");
; 1475 : 		_Move(_VIPTR(_Where) + 1, this->_Mylast(), _VIPTR(_Where));
; 1476 : 		_Destroy(this->_Mylast() - 1, this->_Mylast());
; 1477 : 		_Orphan_range(_VIPTR(_Where), this->_Mylast());
; 1478 : 		--this->_Mylast();
; 1479 : 		return (_Make_iter(_Where));
; 1480 : 		}
; 1481 : 
; 1482 :  #else /* _ITERATOR_DEBUG_LEVEL == 2 */
; 1483 : 	iterator erase(const_iterator _Where)
; 1484 : 		{	// erase element at where
; 1485 : 		_Move(_VIPTR(_Where) + 1, this->_Mylast(),
; 1486 : 			_VIPTR(_Where));
; 1487 : 		_Destroy(this->_Mylast() - 1, this->_Mylast());
; 1488 : 		--this->_Mylast();
; 1489 : 		return (_Make_iter(_Where));
; 1490 : 		}
; 1491 :  #endif /* _ITERATOR_DEBUG_LEVEL == 2 */
; 1492 : 
; 1493 : 	iterator erase(const_iterator _First_arg,
; 1494 : 		const_iterator _Last_arg)
; 1495 : 		{	// erase [_First, _Last)
; 1496 : 		if (_First_arg == begin() && _Last_arg == end())
; 1497 : 			clear();
; 1498 : 		else if (_First_arg != _Last_arg)
; 1499 : 			{	// clear partial
; 1500 : 			iterator _First = _Make_iter(_First_arg);
; 1501 : 			iterator _Last = _Make_iter(_Last_arg);
; 1502 : 
; 1503 : 			if (_First != _Last)
; 1504 : 				{	// worth doing, copy down over hole
; 1505 :  #if _ITERATOR_DEBUG_LEVEL == 2
; 1506 : 				if (_Last < _First || _VICONT(_First) != &this->_Get_data()
; 1507 : 					|| _VIPTR(_First) < this->_Myfirst()
; 1508 : 					|| this->_Mylast() < _VIPTR(_Last))
; 1509 : 					_DEBUG_ERROR("vector erase iterator outside range");
; 1510 : 				pointer _Ptr = _Move(_VIPTR(_Last), this->_Mylast(),
; 1511 : 					_VIPTR(_First));
; 1512 : 				_Orphan_range(_VIPTR(_First), this->_Mylast());
; 1513 : 
; 1514 :  #else /* _ITERATOR_DEBUG_LEVEL == 2 */
; 1515 : 				pointer _Ptr = _Move(_VIPTR(_Last), this->_Mylast(),
; 1516 : 					_VIPTR(_First));
; 1517 :  #endif /* _ITERATOR_DEBUG_LEVEL == 2 */
; 1518 : 
; 1519 : 				_Destroy(_Ptr, this->_Mylast());
; 1520 : 				this->_Mylast() = _Ptr;
; 1521 : 				}
; 1522 : 			}
; 1523 : 		return (_Make_iter(_First_arg));
; 1524 : 		}
; 1525 : 
; 1526 : 	void _Pop_back_n(size_type _Count)
; 1527 : 		{	// erase _Count elements at end
; 1528 : 		pointer _Ptr = this->_Mylast() - _Count;
; 1529 : 
; 1530 :  #if _ITERATOR_DEBUG_LEVEL == 2
; 1531 : 		_Orphan_range(_Ptr, this->_Mylast());
; 1532 :  #endif /* _ITERATOR_DEBUG_LEVEL == 2 */
; 1533 : 
; 1534 : 		_Destroy(_Ptr, this->_Mylast());
; 1535 : 		this->_Mylast() = _Ptr;
; 1536 : 		}
; 1537 : 
; 1538 : 	void clear() _NOEXCEPT
; 1539 : 		{	// erase all
; 1540 : 		this->_Orphan_all();
; 1541 : 		_Destroy(this->_Myfirst(), this->_Mylast());
; 1542 : 		this->_Mylast() = this->_Myfirst();
; 1543 : 		}
; 1544 : 
; 1545 : 	void swap(_Myt& _Right)
; 1546 : 		_NOEXCEPT_OP(_Alty::propagate_on_container_swap::value
; 1547 : 			|| _Alty::is_always_equal::value)
; 1548 : 		{	// exchange contents with _Right
; 1549 : 		if (this == &_Right)
; 1550 : 			;	// same object, do nothing
; 1551 : 		else if (this->_Getal() == _Right._Getal())
; 1552 : 			{	// same allocator, swap control information
; 1553 : 			this->_Swap_all(_Right);
; 1554 : 			_Swap_adl(this->_Myfirst(), _Right._Myfirst());
; 1555 : 			_Swap_adl(this->_Mylast(), _Right._Mylast());
; 1556 : 			_Swap_adl(this->_Myend(), _Right._Myend());
; 1557 : 			}
; 1558 : 
; 1559 : 		else if (_Alty::propagate_on_container_swap::value)
; 1560 : 			{	// swap allocators and control information
; 1561 : 			this->_Swap_alloc(_Right);
; 1562 : 			_Swap_adl(this->_Myfirst(), _Right._Myfirst());
; 1563 : 			_Swap_adl(this->_Mylast(), _Right._Mylast());
; 1564 : 			_Swap_adl(this->_Myend(), _Right._Myend());
; 1565 : 			}
; 1566 : 
; 1567 : 		else
; 1568 : 			{	// containers are incompatible
; 1569 :  #if _ITERATOR_DEBUG_LEVEL == 2
; 1570 : 			_DEBUG_ERROR("vector containers incompatible for swap");
; 1571 : 
; 1572 :  #else /* ITERATOR_DEBUG_LEVEL == 2 */
; 1573 : 			_XSTD terminate();
; 1574 :  #endif /* ITERATOR_DEBUG_LEVEL == 2 */
; 1575 : 			}
; 1576 : 		}
; 1577 : 
; 1578 : protected:
; 1579 : 	bool _Buy(size_type _Capacity)
; 1580 : 		{	// allocate array with _Capacity elements
; 1581 : 		this->_Myfirst() = pointer();
; 1582 : 		this->_Mylast() = pointer();
; 1583 : 		this->_Myend() = pointer();
; 1584 : 
; 1585 : 		if (_Capacity == 0)
; 1586 : 			return (false);
; 1587 : 		else if (max_size() < _Capacity)
; 1588 : 			_Xlen();	// result too long
; 1589 : 		else
; 1590 : 			{	// nonempty array, allocate storage
; 1591 : 			this->_Myfirst() = this->_Getal().allocate(_Capacity);
; 1592 : 			this->_Mylast() = this->_Myfirst();
; 1593 : 			this->_Myend() = this->_Myfirst() + _Capacity;
; 1594 : 			}
; 1595 : 		return (true);
; 1596 : 		}
; 1597 : 
; 1598 : 	void _Destroy(pointer _First, pointer _Last)
; 1599 : 		{	// destroy [_First, _Last) using allocator
; 1600 : 		_Destroy_range(_First, _Last, this->_Getal());
; 1601 : 		}
; 1602 : 
; 1603 : 	size_type _Grow_to(size_type _Count) const
; 1604 : 		{	// grow by 50% or at least to _Count
; 1605 : 		size_type _Capacity = capacity();
; 1606 : 
; 1607 : 		_Capacity = max_size() - _Capacity / 2 < _Capacity

  00064	ba 97 d0 5e 02	 mov	 edx, 39768215		; 025ed097H
  00069	8b c6		 mov	 eax, esi
  0006b	d1 e8		 shr	 eax, 1
  0006d	2b d0		 sub	 edx, eax
  0006f	3b d6		 cmp	 edx, esi
  00071	8d 0c 30	 lea	 ecx, DWORD PTR [eax+esi]
  00074	b8 00 00 00 00	 mov	 eax, 0
  00079	0f 42 c8	 cmovb	 ecx, eax

; 1608 : 			? 0 : _Capacity + _Capacity / 2;	// try to grow by 50%
; 1609 : 		if (_Capacity < _Count)

  0007c	3b cf		 cmp	 ecx, edi
  0007e	0f 42 cf	 cmovb	 ecx, edi

; 1649 : 				_Xlen();
; 1650 : 			_Reallocate(_Grow_to(size() + _Count));

  00081	51		 push	 ecx
  00082	8b cb		 mov	 ecx, ebx
  00084	e8 00 00 00 00	 call	 ?_Reallocate@?$vector@UNoticeRotateInfo@@V?$allocator@UNoticeRotateInfo@@@std@@@std@@IAEXI@Z ; std::vector<NoticeRotateInfo,std::allocator<NoticeRotateInfo> >::_Reallocate
$LN2@Reserve:
  00089	5f		 pop	 edi
  0008a	5e		 pop	 esi
  0008b	5b		 pop	 ebx

; 1651 : 			}
; 1652 : 		}

  0008c	5d		 pop	 ebp
  0008d	c2 04 00	 ret	 4
$LN134@Reserve:

; 1653 : 
; 1654 : 	void _Tidy()
; 1655 : 		{	// free all storage
; 1656 : 		if (this->_Myfirst() != pointer())
; 1657 : 			{	// something to free, destroy and deallocate it
; 1658 : 			this->_Orphan_all();
; 1659 : 			_Destroy(this->_Myfirst(), this->_Mylast());
; 1660 : 			this->_Getal().deallocate(this->_Myfirst(),
; 1661 : 				this->_Myend() - this->_Myfirst());
; 1662 : 			this->_Myfirst() = pointer();
; 1663 : 			this->_Mylast() = pointer();
; 1664 : 			this->_Myend() = pointer();
; 1665 : 			}
; 1666 : 		}
; 1667 : 
; 1668 : 	template<class _Iter>
; 1669 : 		pointer _Ucopy(_Iter _First, _Iter _Last, pointer _Ptr)
; 1670 : 		{	// copy initializing [_First, _Last), using allocator
; 1671 : 		return (_Uninitialized_copy(_First, _Last,
; 1672 : 			_Ptr, this->_Getal()));
; 1673 : 		}
; 1674 : 
; 1675 : 	template<class _Iter>
; 1676 : 		pointer _Umove(_Iter _First, _Iter _Last, pointer _Ptr)
; 1677 : 		{	// move initializing [_First, _Last), using allocator
; 1678 : 		return (_Uninitialized_move(_First, _Last,
; 1679 : 			_Ptr, this->_Getal()));
; 1680 : 		}
; 1681 : 
; 1682 : 	iterator _Insert_n(const_iterator _Where,
; 1683 : 		size_type _Count, const value_type& _Val)
; 1684 : 		{	// insert _Count * _Val at _Where
; 1685 :  #if _ITERATOR_DEBUG_LEVEL == 2
; 1686 : 		if (_VICONT(_Where) != &this->_Get_data()
; 1687 : 			|| _VIPTR(_Where) < this->_Myfirst()
; 1688 : 			|| this->_Mylast() < _VIPTR(_Where))
; 1689 : 			_DEBUG_ERROR("vector insert iterator outside range");
; 1690 :  #endif /* _ITERATOR_DEBUG_LEVEL == 2 */
; 1691 : 
; 1692 : 		size_type _Off = _VIPTR(_Where) - this->_Myfirst();
; 1693 : 		if (_Count == 0)
; 1694 : 			;
; 1695 : 		else if (_Unused_capacity() < _Count)
; 1696 : 			{	// not enough room, reallocate
; 1697 : 			if (max_size() - size() < _Count)
; 1698 : 				_Xlen();	// result too long
; 1699 : 
; 1700 : 			size_type _Capacity = _Grow_to(size() + _Count);
; 1701 : 			pointer _Newvec = this->_Getal().allocate(_Capacity);
; 1702 : 			size_type _Whereoff = _VIPTR(_Where) - this->_Myfirst();
; 1703 : 			int _Ncopied = 0;
; 1704 : 
; 1705 : 			_TRY_BEGIN
; 1706 : 			_Ufill(_Newvec + _Whereoff, _Count,
; 1707 : 				_STD addressof(_Val));	// add new stuff
; 1708 : 			++_Ncopied;
; 1709 : 			_Umove(this->_Myfirst(), _VIPTR(_Where),
; 1710 : 				_Newvec);	// copy prefix
; 1711 : 			++_Ncopied;
; 1712 : 			_Umove(_VIPTR(_Where), this->_Mylast(),
; 1713 : 				_Newvec + (_Whereoff + _Count));	// copy suffix
; 1714 : 			_CATCH_ALL
; 1715 : 			if (1 < _Ncopied)
; 1716 : 				_Destroy(_Newvec, _Newvec + _Whereoff);
; 1717 : 			if (0 < _Ncopied)
; 1718 : 				_Destroy(_Newvec + _Whereoff, _Newvec + _Whereoff + _Count);
; 1719 : 			this->_Getal().deallocate(_Newvec, _Capacity);
; 1720 : 			_RERAISE;
; 1721 : 			_CATCH_END
; 1722 : 
; 1723 : 			_Count += size();
; 1724 : 			if (this->_Myfirst() != pointer())
; 1725 : 				{	// destroy and deallocate old array
; 1726 : 				_Destroy(this->_Myfirst(), this->_Mylast());
; 1727 : 				this->_Getal().deallocate(this->_Myfirst(),
; 1728 : 					this->_Myend() - this->_Myfirst());
; 1729 : 				}
; 1730 : 
; 1731 : 			this->_Orphan_all();
; 1732 : 			this->_Myend() = _Newvec + _Capacity;
; 1733 : 			this->_Mylast() = _Newvec + _Count;
; 1734 : 			this->_Myfirst() = _Newvec;
; 1735 : 			}
; 1736 : 		else if ((size_type)(this->_Mylast() - _VIPTR(_Where))
; 1737 : 			< _Count)
; 1738 : 			{	// new stuff spills off end
; 1739 : 			value_type _Tmp = _Val;	// in case _Val is in sequence
; 1740 : 
; 1741 : 			_Umove(_VIPTR(_Where), this->_Mylast(),
; 1742 : 				_VIPTR(_Where) + _Count);	// copy suffix
; 1743 : 
; 1744 : 			_TRY_BEGIN
; 1745 : 			_Ufill(this->_Mylast(),
; 1746 : 				_Count - (this->_Mylast() - _VIPTR(_Where)),
; 1747 : 				_STD addressof(_Tmp));	// insert new stuff off end
; 1748 : 			_CATCH_ALL
; 1749 : 			_Destroy(_VIPTR(_Where) + _Count,
; 1750 : 				this->_Mylast() + _Count);
; 1751 : 			_RERAISE;
; 1752 : 			_CATCH_END
; 1753 : 
; 1754 : 			this->_Mylast() += _Count;
; 1755 : 			_Orphan_range(_VIPTR(_Where), this->_Mylast());
; 1756 : 			_STD fill(_VIPTR(_Where), this->_Mylast() - _Count,
; 1757 : 				_Tmp);	// insert up to old end
; 1758 : 			}
; 1759 : 		else
; 1760 : 			{	// new stuff can all be assigned
; 1761 : 			value_type _Tmp = _Val;	// in case _Val is in sequence
; 1762 : 
; 1763 : 			pointer _Oldend = this->_Mylast();
; 1764 : 			this->_Mylast() = _Umove(_Oldend - _Count, _Oldend,
; 1765 : 				this->_Mylast());	// copy suffix
; 1766 : 
; 1767 : 			_Orphan_range(_VIPTR(_Where), this->_Mylast());
; 1768 : 			_Move_backward(_VIPTR(_Where), _Oldend - _Count,
; 1769 : 				_Oldend);	// copy hole
; 1770 : 			_STD fill(_VIPTR(_Where),
; 1771 : 				_VIPTR(_Where) + _Count, _Tmp);	// insert into hole
; 1772 : 			}
; 1773 : 		return (begin() + _Off);
; 1774 : 		}
; 1775 : 
; 1776 : 	pointer _Ufill(pointer _Ptr, size_type _Count, const value_type *_Pval)
; 1777 : 		{	// copy initializing _Count * _Val, using allocator
; 1778 : 		_Uninitialized_fill_n(_Ptr, _Count, _Pval, this->_Getal());
; 1779 : 		return (_Ptr + _Count);
; 1780 : 		}
; 1781 : 
; 1782 : 	[[noreturn]] void _Xlen() const
; 1783 : 		{	// report a length_error
; 1784 : 		_Xlength_error("vector<T> too long");

  00090	68 00 00 00 00	 push	 OFFSET ??_C@_0BD@OLBABOEK@vector?$DMT?$DO?5too?5long?$AA@
  00095	e8 00 00 00 00	 call	 ?_Xlength_error@std@@YAXPBD@Z ; std::_Xlength_error
$LN136@Reserve:
$LN133@Reserve:
  0009a	cc		 int	 3
?_Reserve@?$vector@UNoticeRotateInfo@@V?$allocator@UNoticeRotateInfo@@@std@@@std@@IAEXI@Z ENDP ; std::vector<NoticeRotateInfo,std::allocator<NoticeRotateInfo> >::_Reserve
_TEXT	ENDS
; Function compile flags: /Ogtp
; File c:\program files (x86)\microsoft visual studio 14.0\vc\include\vector
; File c:\program files (x86)\microsoft visual studio 14.0\vc\include\xmemory0
; File c:\program files (x86)\microsoft visual studio 14.0\vc\include\xmemory
; File c:\program files (x86)\microsoft visual studio 14.0\vc\include\vector
; File c:\program files (x86)\microsoft visual studio 14.0\vc\include\xmemory
; File c:\program files (x86)\microsoft visual studio 14.0\vc\include\vector
; File c:\program files (x86)\microsoft visual studio 14.0\vc\include\xmemory
; File c:\program files (x86)\microsoft visual studio 14.0\vc\include\vector
; File c:\program files (x86)\microsoft visual studio 14.0\vc\include\xmemory
; File c:\program files (x86)\microsoft visual studio 14.0\vc\include\vector
;	COMDAT ?_Reallocate@?$vector@UNoticeRotateInfo@@V?$allocator@UNoticeRotateInfo@@@std@@@std@@IAEXI@Z
_TEXT	SEGMENT
_this$ = -24						; size = 4
__Ptr$ = -20						; size = 4
__$EHRec$ = -16						; size = 16
__Cat$2 = 8						; size = 1
__Count$ = 8						; size = 4
?_Reallocate@?$vector@UNoticeRotateInfo@@V?$allocator@UNoticeRotateInfo@@@std@@@std@@IAEXI@Z PROC ; std::vector<NoticeRotateInfo,std::allocator<NoticeRotateInfo> >::_Reallocate, COMDAT
; _this$ = ecx

; 1620 : 		{	// move to array of exactly _Count elements

  00000	55		 push	 ebp
  00001	8b ec		 mov	 ebp, esp
  00003	6a ff		 push	 -1
  00005	68 00 00 00 00	 push	 __ehhandler$?_Reallocate@?$vector@UNoticeRotateInfo@@V?$allocator@UNoticeRotateInfo@@@std@@@std@@IAEXI@Z
  0000a	64 a1 00 00 00
	00		 mov	 eax, DWORD PTR fs:0
  00010	50		 push	 eax
  00011	83 ec 0c	 sub	 esp, 12			; 0000000cH
  00014	53		 push	 ebx
  00015	56		 push	 esi
  00016	57		 push	 edi
  00017	a1 00 00 00 00	 mov	 eax, DWORD PTR ___security_cookie
  0001c	33 c5		 xor	 eax, ebp
  0001e	50		 push	 eax
  0001f	8d 45 f4	 lea	 eax, DWORD PTR __$EHRec$[ebp+4]
  00022	64 a3 00 00 00
	00		 mov	 DWORD PTR fs:0, eax
  00028	89 65 f0	 mov	 DWORD PTR __$EHRec$[ebp], esp
  0002b	8b f1		 mov	 esi, ecx
  0002d	89 75 e8	 mov	 DWORD PTR _this$[ebp], esi
; File c:\program files (x86)\microsoft visual studio 14.0\vc\include\xmemory0

; 898  : 		return (_Mybase::allocate(_Count));

  00030	ff 75 08	 push	 DWORD PTR __Count$[ebp]
  00033	e8 00 00 00 00	 call	 ?allocate@?$allocator@UNoticeRotateInfo@@@std@@QAEPAUNoticeRotateInfo@@I@Z ; std::allocator<NoticeRotateInfo>::allocate
; File c:\program files (x86)\microsoft visual studio 14.0\vc\include\xmemory

; 481  : 	return (_Uninit_move(_First, _Last, _Dest, _Al,

  00038	ff 75 08	 push	 DWORD PTR __Cat$2[ebp]
; File c:\program files (x86)\microsoft visual studio 14.0\vc\include\vector

; 1621 : 		pointer _Ptr = this->_Getal().allocate(_Count);

  0003b	8b f8		 mov	 edi, eax

; 1622 : 
; 1623 : 		_TRY_BEGIN

  0003d	c7 45 fc 00 00
	00 00		 mov	 DWORD PTR __$EHRec$[ebp+12], 0
; File c:\program files (x86)\microsoft visual studio 14.0\vc\include\xmemory

; 481  : 	return (_Uninit_move(_First, _Last, _Dest, _Al,

  00044	6a 00		 push	 0
  00046	56		 push	 esi
  00047	57		 push	 edi
  00048	ff 76 04	 push	 DWORD PTR [esi+4]
; File c:\program files (x86)\microsoft visual studio 14.0\vc\include\vector

; 1621 : 		pointer _Ptr = this->_Getal().allocate(_Count);

  0004b	89 7d ec	 mov	 DWORD PTR __Ptr$[ebp], edi
; File c:\program files (x86)\microsoft visual studio 14.0\vc\include\xmemory

; 481  : 	return (_Uninit_move(_First, _Last, _Dest, _Al,

  0004e	ff 36		 push	 DWORD PTR [esi]
  00050	e8 00 00 00 00	 call	 ??$_Uninit_move@PAUNoticeRotateInfo@@PAU1@V?$allocator@UNoticeRotateInfo@@@std@@U1@@std@@YAPAUNoticeRotateInfo@@PAU1@00AAU?$_Wrap_alloc@V?$allocator@UNoticeRotateInfo@@@std@@@0@0U_Nonscalar_ptr_iterator_tag@0@@Z ; std::_Uninit_move<NoticeRotateInfo *,NoticeRotateInfo *,std::allocator<NoticeRotateInfo>,NoticeRotateInfo>
; File c:\program files (x86)\microsoft visual studio 14.0\vc\include\vector

; 1179 : 		return (this->_Mylast() - this->_Myfirst());

  00055	8b 4e 04	 mov	 ecx, DWORD PTR [esi+4]
  00058	b8 f7 12 da 4b	 mov	 eax, 1272582903		; 4bda12f7H
  0005d	2b 0e		 sub	 ecx, DWORD PTR [esi]
; File c:\program files (x86)\microsoft visual studio 14.0\vc\include\xmemory

; 481  : 	return (_Uninit_move(_First, _Last, _Dest, _Al,

  0005f	83 c4 18	 add	 esp, 24			; 00000018H
; File c:\program files (x86)\microsoft visual studio 14.0\vc\include\vector

; 1179 : 		return (this->_Mylast() - this->_Myfirst());

  00062	f7 e9		 imul	 ecx

; 1628 : 		_CATCH_END
; 1629 : 
; 1630 : 		size_type _Size = size();
; 1631 : 		if (this->_Myfirst() != pointer())

  00064	8b 06		 mov	 eax, DWORD PTR [esi]

; 1179 : 		return (this->_Mylast() - this->_Myfirst());

  00066	c1 fa 05	 sar	 edx, 5
  00069	8b da		 mov	 ebx, edx
  0006b	c1 eb 1f	 shr	 ebx, 31			; 0000001fH
  0006e	03 da		 add	 ebx, edx

; 1628 : 		_CATCH_END
; 1629 : 
; 1630 : 		size_type _Size = size();
; 1631 : 		if (this->_Myfirst() != pointer())

  00070	85 c0		 test	 eax, eax
  00072	74 20		 je	 SHORT $LN3@Reallocate

; 1632 : 			{	// destroy and deallocate old array
; 1633 : 			_Destroy(this->_Myfirst(), this->_Mylast());
; 1634 : 			this->_Getal().deallocate(this->_Myfirst(),

  00074	8b 4e 08	 mov	 ecx, DWORD PTR [esi+8]
  00077	2b c8		 sub	 ecx, eax
  00079	b8 f7 12 da 4b	 mov	 eax, 1272582903		; 4bda12f7H
  0007e	f7 e9		 imul	 ecx
  00080	8b ce		 mov	 ecx, esi
  00082	c1 fa 05	 sar	 edx, 5
  00085	8b c2		 mov	 eax, edx
  00087	c1 e8 1f	 shr	 eax, 31			; 0000001fH
  0008a	03 c2		 add	 eax, edx
  0008c	50		 push	 eax
  0008d	ff 36		 push	 DWORD PTR [esi]
  0008f	e8 00 00 00 00	 call	 ?deallocate@?$_Wrap_alloc@V?$allocator@UNoticeRotateInfo@@@std@@@std@@QAEXPAUNoticeRotateInfo@@I@Z ; std::_Wrap_alloc<std::allocator<NoticeRotateInfo> >::deallocate
$LN3@Reallocate:

; 1635 : 				this->_Myend() - this->_Myfirst());
; 1636 : 			}
; 1637 : 
; 1638 : 		this->_Orphan_all();
; 1639 : 		this->_Myend() = _Ptr + _Count;

  00094	6b 45 08 6c	 imul	 eax, DWORD PTR __Count$[ebp], 108
  00098	03 c7		 add	 eax, edi
  0009a	89 46 08	 mov	 DWORD PTR [esi+8], eax

; 1640 : 		this->_Mylast() = _Ptr + _Size;

  0009d	6b c3 6c	 imul	 eax, ebx, 108
  000a0	03 c7		 add	 eax, edi
  000a2	89 46 04	 mov	 DWORD PTR [esi+4], eax

; 1641 : 		this->_Myfirst() = _Ptr;

  000a5	89 3e		 mov	 DWORD PTR [esi], edi

; 1642 : 		}

  000a7	8b 4d f4	 mov	 ecx, DWORD PTR __$EHRec$[ebp+4]
  000aa	64 89 0d 00 00
	00 00		 mov	 DWORD PTR fs:0, ecx
  000b1	59		 pop	 ecx
  000b2	5f		 pop	 edi
  000b3	5e		 pop	 esi
  000b4	5b		 pop	 ebx
  000b5	8b e5		 mov	 esp, ebp
  000b7	5d		 pop	 ebp
  000b8	c2 04 00	 ret	 4
__catch$?_Reallocate@?$vector@UNoticeRotateInfo@@V?$allocator@UNoticeRotateInfo@@@std@@@std@@IAEXI@Z$0:

; 1624 : 		_Umove(this->_Myfirst(), this->_Mylast(), _Ptr);
; 1625 : 		_CATCH_ALL
; 1626 : 		this->_Getal().deallocate(_Ptr, _Count);

  000bb	ff 75 08	 push	 DWORD PTR __Count$[ebp]
  000be	8b 4d e8	 mov	 ecx, DWORD PTR _this$[ebp]
  000c1	ff 75 ec	 push	 DWORD PTR __Ptr$[ebp]
  000c4	e8 00 00 00 00	 call	 ?deallocate@?$_Wrap_alloc@V?$allocator@UNoticeRotateInfo@@@std@@@std@@QAEXPAUNoticeRotateInfo@@I@Z ; std::_Wrap_alloc<std::allocator<NoticeRotateInfo> >::deallocate

; 1627 : 		_RERAISE;

  000c9	6a 00		 push	 0
  000cb	6a 00		 push	 0
  000cd	e8 00 00 00 00	 call	 __CxxThrowException@8
$LN175@Reallocate:
$LN174@Reallocate:
  000d2	cc		 int	 3
_TEXT	ENDS
;	COMDAT text$x
text$x	SEGMENT
__ehhandler$?_Reallocate@?$vector@UNoticeRotateInfo@@V?$allocator@UNoticeRotateInfo@@@std@@@std@@IAEXI@Z:
  00000	8b 54 24 08	 mov	 edx, DWORD PTR [esp+8]
  00004	8d 42 0c	 lea	 eax, DWORD PTR [edx+12]
  00007	8b 4a e4	 mov	 ecx, DWORD PTR [edx-28]
  0000a	33 c8		 xor	 ecx, eax
  0000c	e8 00 00 00 00	 call	 @__security_check_cookie@4
  00011	b8 00 00 00 00	 mov	 eax, OFFSET __ehfuncinfo$?_Reallocate@?$vector@UNoticeRotateInfo@@V?$allocator@UNoticeRotateInfo@@@std@@@std@@IAEXI@Z
  00016	e9 00 00 00 00	 jmp	 ___CxxFrameHandler3
text$x	ENDS
?_Reallocate@?$vector@UNoticeRotateInfo@@V?$allocator@UNoticeRotateInfo@@@std@@@std@@IAEXI@Z ENDP ; std::vector<NoticeRotateInfo,std::allocator<NoticeRotateInfo> >::_Reallocate
; Function compile flags: /Ogtp
; File c:\program files (x86)\microsoft visual studio 14.0\vc\include\vector
;	COMDAT ?_Inside@?$vector@UNoticeRotateInfo@@V?$allocator@UNoticeRotateInfo@@@std@@@std@@IBE_NPBUNoticeRotateInfo@@@Z
_TEXT	SEGMENT
__Ptr$ = 8						; size = 4
?_Inside@?$vector@UNoticeRotateInfo@@V?$allocator@UNoticeRotateInfo@@@std@@@std@@IBE_NPBUNoticeRotateInfo@@@Z PROC ; std::vector<NoticeRotateInfo,std::allocator<NoticeRotateInfo> >::_Inside, COMDAT
; _this$ = ecx

; 1615 : 		{	// test if _Ptr points inside vector

  00000	55		 push	 ebp
  00001	8b ec		 mov	 ebp, esp

; 1616 : 		return (_Ptr < this->_Mylast() && this->_Myfirst() <= _Ptr);

  00003	8b 45 08	 mov	 eax, DWORD PTR __Ptr$[ebp]
  00006	3b 41 04	 cmp	 eax, DWORD PTR [ecx+4]
  00009	73 0a		 jae	 SHORT $LN3@Inside
  0000b	39 01		 cmp	 DWORD PTR [ecx], eax
  0000d	77 06		 ja	 SHORT $LN3@Inside
  0000f	b0 01		 mov	 al, 1

; 1617 : 		}

  00011	5d		 pop	 ebp
  00012	c2 04 00	 ret	 4
$LN3@Inside:

; 1616 : 		return (_Ptr < this->_Mylast() && this->_Myfirst() <= _Ptr);

  00015	32 c0		 xor	 al, al

; 1617 : 		}

  00017	5d		 pop	 ebp
  00018	c2 04 00	 ret	 4
?_Inside@?$vector@UNoticeRotateInfo@@V?$allocator@UNoticeRotateInfo@@@std@@@std@@IBE_NPBUNoticeRotateInfo@@@Z ENDP ; std::vector<NoticeRotateInfo,std::allocator<NoticeRotateInfo> >::_Inside
_TEXT	ENDS
; Function compile flags: /Ogtp
; File c:\program files (x86)\microsoft visual studio 14.0\vc\include\vector
;	COMDAT ?_Grow_to@?$vector@UNoticeRotateInfo@@V?$allocator@UNoticeRotateInfo@@@std@@@std@@IBEII@Z
_TEXT	SEGMENT
__Count$ = 8						; size = 4
?_Grow_to@?$vector@UNoticeRotateInfo@@V?$allocator@UNoticeRotateInfo@@@std@@@std@@IBEII@Z PROC ; std::vector<NoticeRotateInfo,std::allocator<NoticeRotateInfo> >::_Grow_to, COMDAT
; _this$ = ecx

; 1604 : 		{	// grow by 50% or at least to _Count

  00000	55		 push	 ebp
  00001	8b ec		 mov	 ebp, esp

; 1042 : 		return (this->_Myend() - this->_Myfirst());

  00003	8b 51 08	 mov	 edx, DWORD PTR [ecx+8]
  00006	b8 f7 12 da 4b	 mov	 eax, 1272582903		; 4bda12f7H
  0000b	2b 11		 sub	 edx, DWORD PTR [ecx]

; 1605 : 		size_type _Capacity = capacity();
; 1606 : 
; 1607 : 		_Capacity = max_size() - _Capacity / 2 < _Capacity

  0000d	b9 97 d0 5e 02	 mov	 ecx, 39768215		; 025ed097H

; 1042 : 		return (this->_Myend() - this->_Myfirst());

  00012	f7 ea		 imul	 edx
  00014	56		 push	 esi
  00015	c1 fa 05	 sar	 edx, 5
  00018	8b f2		 mov	 esi, edx
  0001a	c1 ee 1f	 shr	 esi, 31			; 0000001fH
  0001d	03 f2		 add	 esi, edx

; 1605 : 		size_type _Capacity = capacity();
; 1606 : 
; 1607 : 		_Capacity = max_size() - _Capacity / 2 < _Capacity

  0001f	8b c6		 mov	 eax, esi
  00021	d1 e8		 shr	 eax, 1
  00023	57		 push	 edi
  00024	2b c8		 sub	 ecx, eax
  00026	33 ff		 xor	 edi, edi
  00028	3b ce		 cmp	 ecx, esi
  0002a	8d 14 30	 lea	 edx, DWORD PTR [eax+esi]
  0002d	0f 42 d7	 cmovb	 edx, edi

; 1608 : 			? 0 : _Capacity + _Capacity / 2;	// try to grow by 50%
; 1609 : 		if (_Capacity < _Count)

  00030	3b 55 08	 cmp	 edx, DWORD PTR __Count$[ebp]
  00033	5f		 pop	 edi
  00034	0f 42 55 08	 cmovb	 edx, DWORD PTR __Count$[ebp]

; 1610 : 			_Capacity = _Count;
; 1611 : 		return (_Capacity);

  00038	8b c2		 mov	 eax, edx
  0003a	5e		 pop	 esi

; 1612 : 		}

  0003b	5d		 pop	 ebp
  0003c	c2 04 00	 ret	 4
?_Grow_to@?$vector@UNoticeRotateInfo@@V?$allocator@UNoticeRotateInfo@@@std@@@std@@IBEII@Z ENDP ; std::vector<NoticeRotateInfo,std::allocator<NoticeRotateInfo> >::_Grow_to
_TEXT	ENDS
; Function compile flags: /Ogtp
; File c:\program files (x86)\microsoft visual studio 14.0\vc\include\vector
;	COMDAT ?_Destroy@?$vector@UNoticeRotateInfo@@V?$allocator@UNoticeRotateInfo@@@std@@@std@@IAEXPAUNoticeRotateInfo@@0@Z
_TEXT	SEGMENT
__First$ = 8						; size = 4
__Last$ = 12						; size = 4
?_Destroy@?$vector@UNoticeRotateInfo@@V?$allocator@UNoticeRotateInfo@@@std@@@std@@IAEXPAUNoticeRotateInfo@@0@Z PROC ; std::vector<NoticeRotateInfo,std::allocator<NoticeRotateInfo> >::_Destroy, COMDAT
; _this$ = ecx

; 1600 : 		_Destroy_range(_First, _Last, this->_Getal());
; 1601 : 		}

  00000	c2 08 00	 ret	 8
?_Destroy@?$vector@UNoticeRotateInfo@@V?$allocator@UNoticeRotateInfo@@@std@@@std@@IAEXPAUNoticeRotateInfo@@0@Z ENDP ; std::vector<NoticeRotateInfo,std::allocator<NoticeRotateInfo> >::_Destroy
_TEXT	ENDS
; Function compile flags: /Ogtp
; File c:\program files (x86)\microsoft visual studio 14.0\vc\include\vector
; File c:\program files (x86)\microsoft visual studio 14.0\vc\include\utility
; File c:\program files (x86)\microsoft visual studio 14.0\vc\include\vector
;	COMDAT ?swap@?$vector@UNoticeRotateInfo@@V?$allocator@UNoticeRotateInfo@@@std@@@std@@QAEXAAV12@@Z
_TEXT	SEGMENT
__Right$ = 8						; size = 4
?swap@?$vector@UNoticeRotateInfo@@V?$allocator@UNoticeRotateInfo@@@std@@@std@@QAEXAAV12@@Z PROC ; std::vector<NoticeRotateInfo,std::allocator<NoticeRotateInfo> >::swap, COMDAT
; _this$ = ecx

; 1548 : 		{	// exchange contents with _Right

  00000	55		 push	 ebp
  00001	8b ec		 mov	 ebp, esp
  00003	56		 push	 esi
  00004	57		 push	 edi

; 1549 : 		if (this == &_Right)

  00005	8b 7d 08	 mov	 edi, DWORD PTR __Right$[ebp]
  00008	8b f1		 mov	 esi, ecx
  0000a	3b f7		 cmp	 esi, edi
  0000c	74 20		 je	 SHORT $LN7@swap
; File c:\program files (x86)\microsoft visual studio 14.0\vc\include\utility

; 53   : 	_Left = _Move(_Right);

  0000e	8b 07		 mov	 eax, DWORD PTR [edi]
  00010	8b 16		 mov	 edx, DWORD PTR [esi]
  00012	89 06		 mov	 DWORD PTR [esi], eax

; 54   : 	_Right = _Move(_Tmp);

  00014	89 17		 mov	 DWORD PTR [edi], edx

; 52   : 	_Ty _Tmp = _Move(_Left);

  00016	8b 4e 04	 mov	 ecx, DWORD PTR [esi+4]

; 53   : 	_Left = _Move(_Right);

  00019	8b 47 04	 mov	 eax, DWORD PTR [edi+4]
  0001c	89 46 04	 mov	 DWORD PTR [esi+4], eax

; 54   : 	_Right = _Move(_Tmp);

  0001f	89 4f 04	 mov	 DWORD PTR [edi+4], ecx

; 52   : 	_Ty _Tmp = _Move(_Left);

  00022	8b 4e 08	 mov	 ecx, DWORD PTR [esi+8]

; 53   : 	_Left = _Move(_Right);

  00025	8b 47 08	 mov	 eax, DWORD PTR [edi+8]
  00028	89 46 08	 mov	 DWORD PTR [esi+8], eax

; 54   : 	_Right = _Move(_Tmp);

  0002b	89 4f 08	 mov	 DWORD PTR [edi+8], ecx
$LN7@swap:
  0002e	5f		 pop	 edi
  0002f	5e		 pop	 esi
; File c:\program files (x86)\microsoft visual studio 14.0\vc\include\vector

; 1576 : 		}

  00030	5d		 pop	 ebp
  00031	c2 04 00	 ret	 4
?swap@?$vector@UNoticeRotateInfo@@V?$allocator@UNoticeRotateInfo@@@std@@@std@@QAEXAAV12@@Z ENDP ; std::vector<NoticeRotateInfo,std::allocator<NoticeRotateInfo> >::swap
_TEXT	ENDS
; Function compile flags: /Ogtp
; File c:\program files (x86)\microsoft visual studio 14.0\vc\include\vector
;	COMDAT ?clear@?$vector@UNoticeRotateInfo@@V?$allocator@UNoticeRotateInfo@@@std@@@std@@QAEXXZ
_TEXT	SEGMENT
?clear@?$vector@UNoticeRotateInfo@@V?$allocator@UNoticeRotateInfo@@@std@@@std@@QAEXXZ PROC ; std::vector<NoticeRotateInfo,std::allocator<NoticeRotateInfo> >::clear, COMDAT
; _this$ = ecx

; 1540 : 		this->_Orphan_all();
; 1541 : 		_Destroy(this->_Myfirst(), this->_Mylast());
; 1542 : 		this->_Mylast() = this->_Myfirst();

  00000	8b 01		 mov	 eax, DWORD PTR [ecx]
  00002	89 41 04	 mov	 DWORD PTR [ecx+4], eax

; 1543 : 		}

  00005	c3		 ret	 0
?clear@?$vector@UNoticeRotateInfo@@V?$allocator@UNoticeRotateInfo@@@std@@@std@@QAEXXZ ENDP ; std::vector<NoticeRotateInfo,std::allocator<NoticeRotateInfo> >::clear
_TEXT	ENDS
; Function compile flags: /Ogtp
; File c:\program files (x86)\microsoft visual studio 14.0\vc\include\vector
; File c:\program files (x86)\microsoft visual studio 14.0\vc\include\xmemory0
; File c:\program files (x86)\microsoft visual studio 14.0\vc\include\vector
; File c:\program files (x86)\microsoft visual studio 14.0\vc\include\xmemory0
; File c:\program files (x86)\microsoft visual studio 14.0\vc\include\vector
; File c:\program files (x86)\microsoft visual studio 14.0\vc\include\xmemory0
; File c:\program files (x86)\microsoft visual studio 14.0\vc\include\vector
; File c:\program files (x86)\microsoft visual studio 14.0\vc\include\xmemory0
; File c:\program files (x86)\microsoft visual studio 14.0\vc\include\vector
;	COMDAT ?push_back@?$vector@UNoticeRotateInfo@@V?$allocator@UNoticeRotateInfo@@@std@@@std@@QAEXABUNoticeRotateInfo@@@Z
_TEXT	SEGMENT
__Val$ = 8						; size = 4
?push_back@?$vector@UNoticeRotateInfo@@V?$allocator@UNoticeRotateInfo@@@std@@@std@@QAEXABUNoticeRotateInfo@@@Z PROC ; std::vector<NoticeRotateInfo,std::allocator<NoticeRotateInfo> >::push_back, COMDAT
; _this$ = ecx

; 1274 : 		{	// insert element at end

  00000	55		 push	 ebp
  00001	8b ec		 mov	 ebp, esp
  00003	53		 push	 ebx
  00004	8b d9		 mov	 ebx, ecx
  00006	56		 push	 esi

; 1295 : 
; 1296 :  #if _ITERATOR_DEBUG_LEVEL == 2
; 1297 : 	void pop_back()
; 1298 : 		{	// erase element at end
; 1299 : 		if (empty())
; 1300 : 			_DEBUG_ERROR("vector empty before pop");
; 1301 : 		else
; 1302 : 			{	// erase last element
; 1303 : 			_Orphan_range(this->_Mylast() - 1, this->_Mylast());
; 1304 : 			this->_Getal().destroy(this->_Mylast() - 1);
; 1305 : 			--this->_Mylast();
; 1306 : 			}
; 1307 : 		}
; 1308 : 
; 1309 :  #else /* _ITERATOR_DEBUG_LEVEL == 2 */
; 1310 : 	void pop_back()
; 1311 : 		{	// erase element at end
; 1312 : 		this->_Getal().destroy(this->_Mylast() - 1);
; 1313 : 		--this->_Mylast();
; 1314 : 		}
; 1315 :  #endif /* _ITERATOR_DEBUG_LEVEL == 2 */
; 1316 : 
; 1317 : 	template<class _Iter>
; 1318 : 		typename enable_if<_Is_iterator<_Iter>::value,
; 1319 : 			void>::type
; 1320 : 		assign(_Iter _First, _Iter _Last)
; 1321 : 		{	// assign [_First, _Last)
; 1322 : 		clear();
; 1323 : 		_Assign(_First, _Last, _Iter_cat(_First));
; 1324 : 		}
; 1325 : 
; 1326 : 	template<class _Iter>
; 1327 : 		void _Assign(_Iter _First, _Iter _Last,
; 1328 : 			input_iterator_tag)
; 1329 : 		{	// assign [_First, _Last), input iterators
; 1330 : 		for (; _First != _Last; ++_First)
; 1331 : 			emplace_back(*_First);
; 1332 : 		}
; 1333 : 
; 1334 : 	template<class _Iter>
; 1335 : 		void _Assign(_Iter _First, _Iter _Last,
; 1336 : 			forward_iterator_tag)
; 1337 : 		{	// assign [_First, _Last), forward iterators
; 1338 : 		size_type _Newsize = _STD distance(_First, _Last);
; 1339 : 
; 1340 : 		if (capacity() < _Newsize)
; 1341 : 			{	// need more room, try to get it
; 1342 : 			size_type _Newcapacity = _Grow_to(_Newsize);
; 1343 : 			_Tidy();
; 1344 : 			_Buy(_Newcapacity);
; 1345 : 			}
; 1346 : 
; 1347 : 		this->_Mylast() = _Ucopy(_First, _Last, this->_Myfirst());
; 1348 : 		}
; 1349 : 
; 1350 : 	void assign(size_type _Count, const value_type& _Val)
; 1351 : 		{	// assign _Count * _Val
; 1352 : 		clear();
; 1353 : 		insert(begin(), _Count, _Val);
; 1354 : 		}
; 1355 : 
; 1356 : 	iterator insert(const_iterator _Where, const _Ty& _Val)
; 1357 : 		{	// insert _Val at _Where
; 1358 : 		return (_Insert_n(_Where, (size_type)1, _Val));
; 1359 : 		}
; 1360 : 
; 1361 : 	iterator insert(const_iterator _Where, size_type _Count,
; 1362 : 		const _Ty& _Val)
; 1363 : 		{	// insert _Count * _Val at _Where
; 1364 : 		return (_Insert_n(_Where, _Count, _Val));
; 1365 : 		}
; 1366 : 
; 1367 : 	template<class _Iter>
; 1368 : 		typename enable_if<_Is_iterator<_Iter>::value,
; 1369 : 			iterator>::type
; 1370 : 		insert(const_iterator _Where, _Iter _First, _Iter _Last)
; 1371 : 		{	// insert [_First, _Last) at _Where
; 1372 : 		size_type _Off = _VIPTR(_Where) - this->_Myfirst();
; 1373 : 		_Insert(_Where, _First, _Last, _Iter_cat(_First));
; 1374 : 		return (begin() + _Off);
; 1375 : 		}
; 1376 : 
; 1377 : 	template<class _Iter>
; 1378 : 		void _Insert(const_iterator _Where,
; 1379 : 			_Iter _First, _Iter _Last,
; 1380 : 				input_iterator_tag)
; 1381 : 		{	// insert [_First, _Last) at _Where, input iterators
; 1382 : 		size_type _Off = _VIPTR(_Where) - this->_Myfirst();
; 1383 : 
; 1384 :  #if _ITERATOR_DEBUG_LEVEL == 2
; 1385 : 		if (size() < _Off)
; 1386 : 			_DEBUG_ERROR("vector insert iterator outside range");
; 1387 :  #endif /* _ITERATOR_DEBUG_LEVEL == 2 */
; 1388 : 
; 1389 : 		if (_First != _Last)
; 1390 : 			{	// worth doing, gather at end and rotate into place
; 1391 : 			size_type _Oldsize = size();
; 1392 : 
; 1393 : 			_TRY_BEGIN
; 1394 : 			for (; _First != _Last; ++_First)
; 1395 : 				push_back(*_First);	// append
; 1396 : 
; 1397 : 			_CATCH_ALL
; 1398 : 			erase(begin() + _Oldsize, end());
; 1399 : 			_RERAISE;
; 1400 : 			_CATCH_END
; 1401 : 
; 1402 : 			_STD rotate(begin() + _Off, begin() + _Oldsize, end());
; 1403 : 			}
; 1404 : 		}
; 1405 : 
; 1406 : 	template<class _Iter>
; 1407 : 		void _Insert(const_iterator _Where,
; 1408 : 			_Iter _First, _Iter _Last,
; 1409 : 				forward_iterator_tag)
; 1410 : 		{	// insert [_First, _Last) at _Where, forward iterators
; 1411 :  #if _ITERATOR_DEBUG_LEVEL == 2
; 1412 : 		if (_VICONT(_Where) != &this->_Get_data()
; 1413 : 			|| _VIPTR(_Where) < this->_Myfirst()
; 1414 : 			|| this->_Mylast() < _VIPTR(_Where))
; 1415 : 			_DEBUG_ERROR("vector insert iterator outside range");
; 1416 : 		_DEBUG_RANGE(_First, _Last);
; 1417 :  #endif /* _ITERATOR_DEBUG_LEVEL == 2 */
; 1418 : 
; 1419 : 		size_type _Count = 0;
; 1420 : 		_Distance(_First, _Last, _Count);
; 1421 : 
; 1422 : 		if (_Count == 0)
; 1423 : 			;
; 1424 : 		else if (_Unused_capacity() < _Count)
; 1425 : 			{	// not enough room, reallocate
; 1426 : 			if (max_size() - size() < _Count)
; 1427 : 				_Xlen();	// result too long
; 1428 : 
; 1429 : 			size_type _Capacity = _Grow_to(size() + _Count);
; 1430 : 			pointer _Newvec = this->_Getal().allocate(_Capacity);
; 1431 : 			pointer _Ptr = _Newvec;
; 1432 : 
; 1433 : 			_TRY_BEGIN
; 1434 : 			_Ptr = _Umove(this->_Myfirst(), _VIPTR(_Where),
; 1435 : 				_Newvec);	// copy prefix
; 1436 : 			_Ptr = _Ucopy(_First, _Last, _Ptr);	// add new stuff
; 1437 : 			_Umove(_VIPTR(_Where), this->_Mylast(),
; 1438 : 				_Ptr);	// copy suffix
; 1439 : 			_CATCH_ALL
; 1440 : 			_Destroy(_Newvec, _Ptr);
; 1441 : 			this->_Getal().deallocate(_Newvec, _Capacity);
; 1442 : 			_RERAISE;
; 1443 : 			_CATCH_END
; 1444 : 
; 1445 : 			_Count += size();
; 1446 : 			if (this->_Myfirst() != pointer())
; 1447 : 				{	// destroy and deallocate old array
; 1448 : 				_Destroy(this->_Myfirst(), this->_Mylast());
; 1449 : 				this->_Getal().deallocate(this->_Myfirst(),
; 1450 : 					this->_Myend() - this->_Myfirst());
; 1451 : 				}
; 1452 : 
; 1453 : 			this->_Orphan_all();
; 1454 : 			this->_Myend() = _Newvec + _Capacity;
; 1455 : 			this->_Mylast() = _Newvec + _Count;
; 1456 : 			this->_Myfirst() = _Newvec;
; 1457 : 			}
; 1458 : 		else
; 1459 : 			{	// new stuff fits, append and rotate into place
; 1460 : 			_Ucopy(_First, _Last, this->_Mylast());
; 1461 : 			_STD rotate(_VIPTR(_Where), this->_Mylast(),
; 1462 : 				this->_Mylast() + _Count);
; 1463 : 			this->_Mylast() += _Count;
; 1464 : 			_Orphan_range(_VIPTR(_Where), this->_Mylast());
; 1465 : 			}
; 1466 : 		}
; 1467 : 
; 1468 :  #if _ITERATOR_DEBUG_LEVEL == 2
; 1469 : 	iterator erase(const_iterator _Where)
; 1470 : 		{	// erase element at where
; 1471 : 		if (_VICONT(_Where) != &this->_Get_data()
; 1472 : 			|| _VIPTR(_Where) < this->_Myfirst()
; 1473 : 			|| this->_Mylast() <= _VIPTR(_Where))
; 1474 : 			_DEBUG_ERROR("vector erase iterator outside range");
; 1475 : 		_Move(_VIPTR(_Where) + 1, this->_Mylast(), _VIPTR(_Where));
; 1476 : 		_Destroy(this->_Mylast() - 1, this->_Mylast());
; 1477 : 		_Orphan_range(_VIPTR(_Where), this->_Mylast());
; 1478 : 		--this->_Mylast();
; 1479 : 		return (_Make_iter(_Where));
; 1480 : 		}
; 1481 : 
; 1482 :  #else /* _ITERATOR_DEBUG_LEVEL == 2 */
; 1483 : 	iterator erase(const_iterator _Where)
; 1484 : 		{	// erase element at where
; 1485 : 		_Move(_VIPTR(_Where) + 1, this->_Mylast(),
; 1486 : 			_VIPTR(_Where));
; 1487 : 		_Destroy(this->_Mylast() - 1, this->_Mylast());
; 1488 : 		--this->_Mylast();
; 1489 : 		return (_Make_iter(_Where));
; 1490 : 		}
; 1491 :  #endif /* _ITERATOR_DEBUG_LEVEL == 2 */
; 1492 : 
; 1493 : 	iterator erase(const_iterator _First_arg,
; 1494 : 		const_iterator _Last_arg)
; 1495 : 		{	// erase [_First, _Last)
; 1496 : 		if (_First_arg == begin() && _Last_arg == end())
; 1497 : 			clear();
; 1498 : 		else if (_First_arg != _Last_arg)
; 1499 : 			{	// clear partial
; 1500 : 			iterator _First = _Make_iter(_First_arg);
; 1501 : 			iterator _Last = _Make_iter(_Last_arg);
; 1502 : 
; 1503 : 			if (_First != _Last)
; 1504 : 				{	// worth doing, copy down over hole
; 1505 :  #if _ITERATOR_DEBUG_LEVEL == 2
; 1506 : 				if (_Last < _First || _VICONT(_First) != &this->_Get_data()
; 1507 : 					|| _VIPTR(_First) < this->_Myfirst()
; 1508 : 					|| this->_Mylast() < _VIPTR(_Last))
; 1509 : 					_DEBUG_ERROR("vector erase iterator outside range");
; 1510 : 				pointer _Ptr = _Move(_VIPTR(_Last), this->_Mylast(),
; 1511 : 					_VIPTR(_First));
; 1512 : 				_Orphan_range(_VIPTR(_First), this->_Mylast());
; 1513 : 
; 1514 :  #else /* _ITERATOR_DEBUG_LEVEL == 2 */
; 1515 : 				pointer _Ptr = _Move(_VIPTR(_Last), this->_Mylast(),
; 1516 : 					_VIPTR(_First));
; 1517 :  #endif /* _ITERATOR_DEBUG_LEVEL == 2 */
; 1518 : 
; 1519 : 				_Destroy(_Ptr, this->_Mylast());
; 1520 : 				this->_Mylast() = _Ptr;
; 1521 : 				}
; 1522 : 			}
; 1523 : 		return (_Make_iter(_First_arg));
; 1524 : 		}
; 1525 : 
; 1526 : 	void _Pop_back_n(size_type _Count)
; 1527 : 		{	// erase _Count elements at end
; 1528 : 		pointer _Ptr = this->_Mylast() - _Count;
; 1529 : 
; 1530 :  #if _ITERATOR_DEBUG_LEVEL == 2
; 1531 : 		_Orphan_range(_Ptr, this->_Mylast());
; 1532 :  #endif /* _ITERATOR_DEBUG_LEVEL == 2 */
; 1533 : 
; 1534 : 		_Destroy(_Ptr, this->_Mylast());
; 1535 : 		this->_Mylast() = _Ptr;
; 1536 : 		}
; 1537 : 
; 1538 : 	void clear() _NOEXCEPT
; 1539 : 		{	// erase all
; 1540 : 		this->_Orphan_all();
; 1541 : 		_Destroy(this->_Myfirst(), this->_Mylast());
; 1542 : 		this->_Mylast() = this->_Myfirst();
; 1543 : 		}
; 1544 : 
; 1545 : 	void swap(_Myt& _Right)
; 1546 : 		_NOEXCEPT_OP(_Alty::propagate_on_container_swap::value
; 1547 : 			|| _Alty::is_always_equal::value)
; 1548 : 		{	// exchange contents with _Right
; 1549 : 		if (this == &_Right)
; 1550 : 			;	// same object, do nothing
; 1551 : 		else if (this->_Getal() == _Right._Getal())
; 1552 : 			{	// same allocator, swap control information
; 1553 : 			this->_Swap_all(_Right);
; 1554 : 			_Swap_adl(this->_Myfirst(), _Right._Myfirst());
; 1555 : 			_Swap_adl(this->_Mylast(), _Right._Mylast());
; 1556 : 			_Swap_adl(this->_Myend(), _Right._Myend());
; 1557 : 			}
; 1558 : 
; 1559 : 		else if (_Alty::propagate_on_container_swap::value)
; 1560 : 			{	// swap allocators and control information
; 1561 : 			this->_Swap_alloc(_Right);
; 1562 : 			_Swap_adl(this->_Myfirst(), _Right._Myfirst());
; 1563 : 			_Swap_adl(this->_Mylast(), _Right._Mylast());
; 1564 : 			_Swap_adl(this->_Myend(), _Right._Myend());
; 1565 : 			}
; 1566 : 
; 1567 : 		else
; 1568 : 			{	// containers are incompatible
; 1569 :  #if _ITERATOR_DEBUG_LEVEL == 2
; 1570 : 			_DEBUG_ERROR("vector containers incompatible for swap");
; 1571 : 
; 1572 :  #else /* ITERATOR_DEBUG_LEVEL == 2 */
; 1573 : 			_XSTD terminate();
; 1574 :  #endif /* ITERATOR_DEBUG_LEVEL == 2 */
; 1575 : 			}
; 1576 : 		}
; 1577 : 
; 1578 : protected:
; 1579 : 	bool _Buy(size_type _Capacity)
; 1580 : 		{	// allocate array with _Capacity elements
; 1581 : 		this->_Myfirst() = pointer();
; 1582 : 		this->_Mylast() = pointer();
; 1583 : 		this->_Myend() = pointer();
; 1584 : 
; 1585 : 		if (_Capacity == 0)
; 1586 : 			return (false);
; 1587 : 		else if (max_size() < _Capacity)
; 1588 : 			_Xlen();	// result too long
; 1589 : 		else
; 1590 : 			{	// nonempty array, allocate storage
; 1591 : 			this->_Myfirst() = this->_Getal().allocate(_Capacity);
; 1592 : 			this->_Mylast() = this->_Myfirst();
; 1593 : 			this->_Myend() = this->_Myfirst() + _Capacity;
; 1594 : 			}
; 1595 : 		return (true);
; 1596 : 		}
; 1597 : 
; 1598 : 	void _Destroy(pointer _First, pointer _Last)
; 1599 : 		{	// destroy [_First, _Last) using allocator
; 1600 : 		_Destroy_range(_First, _Last, this->_Getal());
; 1601 : 		}
; 1602 : 
; 1603 : 	size_type _Grow_to(size_type _Count) const
; 1604 : 		{	// grow by 50% or at least to _Count
; 1605 : 		size_type _Capacity = capacity();
; 1606 : 
; 1607 : 		_Capacity = max_size() - _Capacity / 2 < _Capacity
; 1608 : 			? 0 : _Capacity + _Capacity / 2;	// try to grow by 50%
; 1609 : 		if (_Capacity < _Count)
; 1610 : 			_Capacity = _Count;
; 1611 : 		return (_Capacity);
; 1612 : 		}
; 1613 : 
; 1614 : 	bool _Inside(const value_type *_Ptr) const
; 1615 : 		{	// test if _Ptr points inside vector
; 1616 : 		return (_Ptr < this->_Mylast() && this->_Myfirst() <= _Ptr);

  00007	8b 75 08	 mov	 esi, DWORD PTR __Val$[ebp]
  0000a	57		 push	 edi
  0000b	8b 4b 04	 mov	 ecx, DWORD PTR [ebx+4]
  0000e	3b f1		 cmp	 esi, ecx
  00010	73 45		 jae	 SHORT $LN2@push_back
  00012	8b 03		 mov	 eax, DWORD PTR [ebx]
  00014	3b c6		 cmp	 eax, esi
  00016	77 3f		 ja	 SHORT $LN2@push_back

; 1275 : 		if (_Inside(_STD addressof(_Val)))
; 1276 : 			{	// push back an element
; 1277 : 			size_type _Idx = _STD addressof(_Val) - this->_Myfirst();

  00018	2b f0		 sub	 esi, eax
  0001a	b8 f7 12 da 4b	 mov	 eax, 1272582903		; 4bda12f7H
  0001f	f7 ee		 imul	 esi
  00021	c1 fa 05	 sar	 edx, 5
  00024	8b f2		 mov	 esi, edx
  00026	c1 ee 1f	 shr	 esi, 31			; 0000001fH
  00029	03 f2		 add	 esi, edx

; 1278 : 			if (this->_Mylast() == this->_Myend())

  0002b	3b 4b 08	 cmp	 ecx, DWORD PTR [ebx+8]
  0002e	75 09		 jne	 SHORT $LN4@push_back

; 1279 : 				_Reserve(1);

  00030	6a 01		 push	 1
  00032	8b cb		 mov	 ecx, ebx
  00034	e8 00 00 00 00	 call	 ?_Reserve@?$vector@UNoticeRotateInfo@@V?$allocator@UNoticeRotateInfo@@@std@@@std@@IAEXI@Z ; std::vector<NoticeRotateInfo,std::allocator<NoticeRotateInfo> >::_Reserve
$LN4@push_back:
; File c:\program files (x86)\microsoft visual studio 14.0\vc\include\xmemory0

; 655  : 		::new ((void *)_Ptr) _Objty(_STD forward<_Types>(_Args)...);

  00039	8b 7b 04	 mov	 edi, DWORD PTR [ebx+4]
  0003c	85 ff		 test	 edi, edi
  0003e	74 33		 je	 SHORT $LN205@push_back
; File c:\program files (x86)\microsoft visual studio 14.0\vc\include\vector

; 1281 : 			this->_Getal().construct(this->_Mylast(),

  00040	6b f6 6c	 imul	 esi, esi, 108
; File c:\program files (x86)\microsoft visual studio 14.0\vc\include\xmemory0

; 655  : 		::new ((void *)_Ptr) _Objty(_STD forward<_Types>(_Args)...);

  00043	b9 1b 00 00 00	 mov	 ecx, 27			; 0000001bH
; File c:\program files (x86)\microsoft visual studio 14.0\vc\include\vector

; 1281 : 			this->_Getal().construct(this->_Mylast(),

  00048	03 33		 add	 esi, DWORD PTR [ebx]
; File c:\program files (x86)\microsoft visual studio 14.0\vc\include\xmemory0

; 655  : 		::new ((void *)_Ptr) _Objty(_STD forward<_Types>(_Args)...);

  0004a	f3 a5		 rep movsd
; File c:\program files (x86)\microsoft visual studio 14.0\vc\include\vector

; 1292 : 			++this->_Mylast();

  0004c	83 43 04 6c	 add	 DWORD PTR [ebx+4], 108	; 0000006cH
  00050	5f		 pop	 edi
  00051	5e		 pop	 esi
  00052	5b		 pop	 ebx

; 1293 : 			}
; 1294 : 		}

  00053	5d		 pop	 ebp
  00054	c2 04 00	 ret	 4
$LN2@push_back:

; 1282 : 				this->_Myfirst()[_Idx]);
; 1283 : 			++this->_Mylast();
; 1284 : 			}
; 1285 : 		else
; 1286 : 			{	// push back a non-element
; 1287 : 			if (this->_Mylast() == this->_Myend())

  00057	3b 4b 08	 cmp	 ecx, DWORD PTR [ebx+8]
  0005a	75 09		 jne	 SHORT $LN5@push_back

; 1288 : 				_Reserve(1);

  0005c	6a 01		 push	 1
  0005e	8b cb		 mov	 ecx, ebx
  00060	e8 00 00 00 00	 call	 ?_Reserve@?$vector@UNoticeRotateInfo@@V?$allocator@UNoticeRotateInfo@@@std@@@std@@IAEXI@Z ; std::vector<NoticeRotateInfo,std::allocator<NoticeRotateInfo> >::_Reserve
$LN5@push_back:
; File c:\program files (x86)\microsoft visual studio 14.0\vc\include\xmemory0

; 655  : 		::new ((void *)_Ptr) _Objty(_STD forward<_Types>(_Args)...);

  00065	8b 7b 04	 mov	 edi, DWORD PTR [ebx+4]
  00068	85 ff		 test	 edi, edi
  0006a	74 07		 je	 SHORT $LN205@push_back
  0006c	b9 1b 00 00 00	 mov	 ecx, 27			; 0000001bH
  00071	f3 a5		 rep movsd
$LN205@push_back:
; File c:\program files (x86)\microsoft visual studio 14.0\vc\include\vector

; 1292 : 			++this->_Mylast();

  00073	83 43 04 6c	 add	 DWORD PTR [ebx+4], 108	; 0000006cH
  00077	5f		 pop	 edi
  00078	5e		 pop	 esi
  00079	5b		 pop	 ebx

; 1293 : 			}
; 1294 : 		}

  0007a	5d		 pop	 ebp
  0007b	c2 04 00	 ret	 4
?push_back@?$vector@UNoticeRotateInfo@@V?$allocator@UNoticeRotateInfo@@@std@@@std@@QAEXABUNoticeRotateInfo@@@Z ENDP ; std::vector<NoticeRotateInfo,std::allocator<NoticeRotateInfo> >::push_back
_TEXT	ENDS
; Function compile flags: /Ogtp
; File c:\program files (x86)\microsoft visual studio 14.0\vc\include\vector
;	COMDAT ??A?$vector@UNoticeRotateInfo@@V?$allocator@UNoticeRotateInfo@@@std@@@std@@QAEAAUNoticeRotateInfo@@I@Z
_TEXT	SEGMENT
__Pos$ = 8						; size = 4
??A?$vector@UNoticeRotateInfo@@V?$allocator@UNoticeRotateInfo@@@std@@@std@@QAEAAUNoticeRotateInfo@@I@Z PROC ; std::vector<NoticeRotateInfo,std::allocator<NoticeRotateInfo> >::operator[], COMDAT
; _this$ = ecx

; 1228 : 		{	// subscript mutable sequence

  00000	55		 push	 ebp
  00001	8b ec		 mov	 ebp, esp

; 1229 :  #if _ITERATOR_DEBUG_LEVEL == 2
; 1230 : 		if (size() <= _Pos)
; 1231 : 			{	// report error
; 1232 : 			_DEBUG_ERROR("vector subscript out of range");
; 1233 : 			_SCL_SECURE_OUT_OF_RANGE;
; 1234 : 			}
; 1235 : 
; 1236 :  #elif _ITERATOR_DEBUG_LEVEL == 1
; 1237 : 		_SCL_SECURE_VALIDATE_RANGE(_Pos < size());
; 1238 :  #endif /* _ITERATOR_DEBUG_LEVEL */
; 1239 : 
; 1240 : 		return (*(this->_Myfirst() + _Pos));

  00003	6b 45 08 6c	 imul	 eax, DWORD PTR __Pos$[ebp], 108
  00007	03 01		 add	 eax, DWORD PTR [ecx]

; 1241 : 		}

  00009	5d		 pop	 ebp
  0000a	c2 04 00	 ret	 4
??A?$vector@UNoticeRotateInfo@@V?$allocator@UNoticeRotateInfo@@@std@@@std@@QAEAAUNoticeRotateInfo@@I@Z ENDP ; std::vector<NoticeRotateInfo,std::allocator<NoticeRotateInfo> >::operator[]
_TEXT	ENDS
; Function compile flags: /Ogtp
; File c:\program files (x86)\microsoft visual studio 14.0\vc\include\vector
;	COMDAT ?empty@?$vector@UNoticeRotateInfo@@V?$allocator@UNoticeRotateInfo@@@std@@@std@@QBE_NXZ
_TEXT	SEGMENT
?empty@?$vector@UNoticeRotateInfo@@V?$allocator@UNoticeRotateInfo@@@std@@@std@@QBE_NXZ PROC ; std::vector<NoticeRotateInfo,std::allocator<NoticeRotateInfo> >::empty, COMDAT
; _this$ = ecx

; 1189 : 		return (this->_Myfirst() == this->_Mylast());

  00000	8b 11		 mov	 edx, DWORD PTR [ecx]
  00002	33 c0		 xor	 eax, eax
  00004	3b 51 04	 cmp	 edx, DWORD PTR [ecx+4]
  00007	0f 94 c0	 sete	 al

; 1190 : 		}

  0000a	c3		 ret	 0
?empty@?$vector@UNoticeRotateInfo@@V?$allocator@UNoticeRotateInfo@@@std@@@std@@QBE_NXZ ENDP ; std::vector<NoticeRotateInfo,std::allocator<NoticeRotateInfo> >::empty
_TEXT	ENDS
; Function compile flags: /Ogtp
; File c:\program files (x86)\microsoft visual studio 14.0\vc\include\vector
;	COMDAT ?max_size@?$vector@UNoticeRotateInfo@@V?$allocator@UNoticeRotateInfo@@@std@@@std@@QBEIXZ
_TEXT	SEGMENT
?max_size@?$vector@UNoticeRotateInfo@@V?$allocator@UNoticeRotateInfo@@@std@@@std@@QBEIXZ PROC ; std::vector<NoticeRotateInfo,std::allocator<NoticeRotateInfo> >::max_size, COMDAT
; _this$ = ecx

; 1184 : 		return (this->_Getal().max_size());

  00000	b8 97 d0 5e 02	 mov	 eax, 39768215		; 025ed097H

; 1185 : 		}

  00005	c3		 ret	 0
?max_size@?$vector@UNoticeRotateInfo@@V?$allocator@UNoticeRotateInfo@@@std@@@std@@QBEIXZ ENDP ; std::vector<NoticeRotateInfo,std::allocator<NoticeRotateInfo> >::max_size
_TEXT	ENDS
; Function compile flags: /Ogtp
; File c:\program files (x86)\microsoft visual studio 14.0\vc\include\vector
;	COMDAT ?size@?$vector@UNoticeRotateInfo@@V?$allocator@UNoticeRotateInfo@@@std@@@std@@QBEIXZ
_TEXT	SEGMENT
?size@?$vector@UNoticeRotateInfo@@V?$allocator@UNoticeRotateInfo@@@std@@@std@@QBEIXZ PROC ; std::vector<NoticeRotateInfo,std::allocator<NoticeRotateInfo> >::size, COMDAT
; _this$ = ecx

; 1179 : 		return (this->_Mylast() - this->_Myfirst());

  00000	8b 51 04	 mov	 edx, DWORD PTR [ecx+4]
  00003	b8 f7 12 da 4b	 mov	 eax, 1272582903		; 4bda12f7H
  00008	2b 11		 sub	 edx, DWORD PTR [ecx]
  0000a	f7 ea		 imul	 edx
  0000c	c1 fa 05	 sar	 edx, 5
  0000f	8b c2		 mov	 eax, edx
  00011	c1 e8 1f	 shr	 eax, 31			; 0000001fH
  00014	03 c2		 add	 eax, edx

; 1180 : 		}

  00016	c3		 ret	 0
?size@?$vector@UNoticeRotateInfo@@V?$allocator@UNoticeRotateInfo@@@std@@@std@@QBEIXZ ENDP ; std::vector<NoticeRotateInfo,std::allocator<NoticeRotateInfo> >::size
_TEXT	ENDS
; Function compile flags: /Ogtp
; File c:\program files (x86)\microsoft visual studio 14.0\vc\include\vector
;	COMDAT ?_Unused_capacity@?$vector@UNoticeRotateInfo@@V?$allocator@UNoticeRotateInfo@@@std@@@std@@QBEIXZ
_TEXT	SEGMENT
?_Unused_capacity@?$vector@UNoticeRotateInfo@@V?$allocator@UNoticeRotateInfo@@@std@@@std@@QBEIXZ PROC ; std::vector<NoticeRotateInfo,std::allocator<NoticeRotateInfo> >::_Unused_capacity, COMDAT
; _this$ = ecx

; 1047 : 		return (this->_Myend() - this->_Mylast());

  00000	8b 51 08	 mov	 edx, DWORD PTR [ecx+8]
  00003	b8 f7 12 da 4b	 mov	 eax, 1272582903		; 4bda12f7H
  00008	2b 51 04	 sub	 edx, DWORD PTR [ecx+4]
  0000b	f7 ea		 imul	 edx
  0000d	c1 fa 05	 sar	 edx, 5
  00010	8b c2		 mov	 eax, edx
  00012	c1 e8 1f	 shr	 eax, 31			; 0000001fH
  00015	03 c2		 add	 eax, edx

; 1048 : 		}

  00017	c3		 ret	 0
?_Unused_capacity@?$vector@UNoticeRotateInfo@@V?$allocator@UNoticeRotateInfo@@@std@@@std@@QBEIXZ ENDP ; std::vector<NoticeRotateInfo,std::allocator<NoticeRotateInfo> >::_Unused_capacity
_TEXT	ENDS
; Function compile flags: /Ogtp
; File c:\program files (x86)\microsoft visual studio 14.0\vc\include\vector
;	COMDAT ?capacity@?$vector@UNoticeRotateInfo@@V?$allocator@UNoticeRotateInfo@@@std@@@std@@QBEIXZ
_TEXT	SEGMENT
?capacity@?$vector@UNoticeRotateInfo@@V?$allocator@UNoticeRotateInfo@@@std@@@std@@QBEIXZ PROC ; std::vector<NoticeRotateInfo,std::allocator<NoticeRotateInfo> >::capacity, COMDAT
; _this$ = ecx

; 1042 : 		return (this->_Myend() - this->_Myfirst());

  00000	8b 51 08	 mov	 edx, DWORD PTR [ecx+8]
  00003	b8 f7 12 da 4b	 mov	 eax, 1272582903		; 4bda12f7H
  00008	2b 11		 sub	 edx, DWORD PTR [ecx]
  0000a	f7 ea		 imul	 edx
  0000c	c1 fa 05	 sar	 edx, 5
  0000f	8b c2		 mov	 eax, edx
  00011	c1 e8 1f	 shr	 eax, 31			; 0000001fH
  00014	03 c2		 add	 eax, edx

; 1043 : 		}

  00016	c3		 ret	 0
?capacity@?$vector@UNoticeRotateInfo@@V?$allocator@UNoticeRotateInfo@@@std@@@std@@QBEIXZ ENDP ; std::vector<NoticeRotateInfo,std::allocator<NoticeRotateInfo> >::capacity
_TEXT	ENDS
; Function compile flags: /Ogtp
; File c:\program files (x86)\microsoft visual studio 14.0\vc\include\vector
;	COMDAT ??1?$vector@UNoticeRotateInfo@@V?$allocator@UNoticeRotateInfo@@@std@@@std@@QAE@XZ
_TEXT	SEGMENT
??1?$vector@UNoticeRotateInfo@@V?$allocator@UNoticeRotateInfo@@@std@@@std@@QAE@XZ PROC ; std::vector<NoticeRotateInfo,std::allocator<NoticeRotateInfo> >::~vector<NoticeRotateInfo,std::allocator<NoticeRotateInfo> >, COMDAT
; _this$ = ecx

; 974  : 		{	// destroy the object

  00000	56		 push	 esi
  00001	8b f1		 mov	 esi, ecx

; 977  : 
; 978  : 	_Myt& operator=(const _Myt& _Right)
; 979  : 		{	// assign _Right
; 980  : 		if (this != &_Right)
; 981  : 			{	// different, assign it
; 982  : 			if (this->_Getal() != _Right._Getal()
; 983  : 				&& _Alty::propagate_on_container_copy_assignment::value)
; 984  : 				{	// change allocator before copying
; 985  : 				_Tidy();
; 986  : 				this->_Copy_alloc(_Right._Getal());
; 987  : 				}
; 988  : 
; 989  : 			this->_Orphan_all();
; 990  : 
; 991  : 			if (_Right.empty())
; 992  : 				clear();	// new sequence empty, erase existing sequence
; 993  : 			else if (_Right.size() <= size())
; 994  : 				{	// enough elements, copy new and destroy old
; 995  : 				pointer _Ptr = _Copy_impl(_Right._Myfirst(),
; 996  : 					_Right._Mylast(), this->_Myfirst());	// copy new
; 997  : 				_Destroy(_Ptr, this->_Mylast());	// destroy old
; 998  : 				this->_Mylast() = this->_Myfirst() + _Right.size();
; 999  : 				}
; 1000 : 			else if (_Right.size() <= capacity())
; 1001 : 				{	// enough room, copy and construct new
; 1002 : 				pointer _Ptr = _Right._Myfirst() + size();
; 1003 : 				_Copy_impl(_Right._Myfirst(),
; 1004 : 					_Ptr, this->_Myfirst());
; 1005 : 				this->_Mylast() = _Ucopy(_Ptr, _Right._Mylast(),
; 1006 : 					this->_Mylast());
; 1007 : 				}
; 1008 : 			else
; 1009 : 				{	// not enough room, allocate new array and construct new
; 1010 : 				if (this->_Myfirst() != pointer())
; 1011 : 					{	// discard old array
; 1012 : 					_Destroy(this->_Myfirst(), this->_Mylast());
; 1013 : 					this->_Getal().deallocate(this->_Myfirst(),
; 1014 : 						this->_Myend() - this->_Myfirst());
; 1015 : 					}
; 1016 : 				if (_Buy(_Right.size()))
; 1017 : 					_TRY_BEGIN
; 1018 : 					this->_Mylast() =
; 1019 : 						_Ucopy(_Right._Myfirst(), _Right._Mylast(),
; 1020 : 						this->_Myfirst());
; 1021 : 					_CATCH_ALL
; 1022 : 					_Tidy();
; 1023 : 					_RERAISE;
; 1024 : 					_CATCH_END
; 1025 : 				}
; 1026 : 			}
; 1027 : 		return (*this);
; 1028 : 		}
; 1029 : 
; 1030 : 	void reserve(size_type _Count)
; 1031 : 		{	// determine new minimum length of allocated storage
; 1032 : 		if (capacity() < _Count)
; 1033 : 			{	// something to do, check and reallocate
; 1034 : 			if (max_size() < _Count)
; 1035 : 				_Xlen();
; 1036 : 			_Reallocate(_Count);
; 1037 : 			}
; 1038 : 		}
; 1039 : 
; 1040 : 	size_type capacity() const _NOEXCEPT
; 1041 : 		{	// return current length of allocated storage
; 1042 : 		return (this->_Myend() - this->_Myfirst());
; 1043 : 		}
; 1044 : 
; 1045 : 	size_type _Unused_capacity() const _NOEXCEPT
; 1046 : 		{	// micro-optimization for capacity() - size()
; 1047 : 		return (this->_Myend() - this->_Mylast());
; 1048 : 		}
; 1049 : 
; 1050 : 	size_type _Has_unused_capacity() const _NOEXCEPT
; 1051 : 		{	// micro-optimization for capacity() != size()
; 1052 : 		return (this->_Myend() != this->_Mylast());
; 1053 : 		}
; 1054 : 
; 1055 : 	iterator begin() _NOEXCEPT
; 1056 : 		{	// return iterator for beginning of mutable sequence
; 1057 : 		return (iterator(this->_Myfirst(), &this->_Get_data()));
; 1058 : 		}
; 1059 : 
; 1060 : 	const_iterator begin() const _NOEXCEPT
; 1061 : 		{	// return iterator for beginning of nonmutable sequence
; 1062 : 		return (const_iterator(this->_Myfirst(), &this->_Get_data()));
; 1063 : 		}
; 1064 : 
; 1065 : 	iterator end() _NOEXCEPT
; 1066 : 		{	// return iterator for end of mutable sequence
; 1067 : 		return (iterator(this->_Mylast(), &this->_Get_data()));
; 1068 : 		}
; 1069 : 
; 1070 : 	const_iterator end() const _NOEXCEPT
; 1071 : 		{	// return iterator for end of nonmutable sequence
; 1072 : 		return (const_iterator(this->_Mylast(), &this->_Get_data()));
; 1073 : 		}
; 1074 : 
; 1075 : 	iterator _Make_iter(const_iterator _Where) const
; 1076 : 		{	// make iterator from const_iterator
; 1077 : 		return (iterator(_Where._Ptr, &this->_Get_data()));
; 1078 : 		}
; 1079 : 
; 1080 : 	reverse_iterator rbegin() _NOEXCEPT
; 1081 : 		{	// return iterator for beginning of reversed mutable sequence
; 1082 : 		return (reverse_iterator(end()));
; 1083 : 		}
; 1084 : 
; 1085 : 	const_reverse_iterator rbegin() const _NOEXCEPT
; 1086 : 		{	// return iterator for beginning of reversed nonmutable sequence
; 1087 : 		return (const_reverse_iterator(end()));
; 1088 : 		}
; 1089 : 
; 1090 : 	reverse_iterator rend() _NOEXCEPT
; 1091 : 		{	// return iterator for end of reversed mutable sequence
; 1092 : 		return (reverse_iterator(begin()));
; 1093 : 		}
; 1094 : 
; 1095 : 	const_reverse_iterator rend() const _NOEXCEPT
; 1096 : 		{	// return iterator for end of reversed nonmutable sequence
; 1097 : 		return (const_reverse_iterator(begin()));
; 1098 : 		}
; 1099 : 
; 1100 : 	const_iterator cbegin() const _NOEXCEPT
; 1101 : 		{	// return iterator for beginning of nonmutable sequence
; 1102 : 		return (begin());
; 1103 : 		}
; 1104 : 
; 1105 : 	const_iterator cend() const _NOEXCEPT
; 1106 : 		{	// return iterator for end of nonmutable sequence
; 1107 : 		return (end());
; 1108 : 		}
; 1109 : 
; 1110 : 	const_reverse_iterator crbegin() const _NOEXCEPT
; 1111 : 		{	// return iterator for beginning of reversed nonmutable sequence
; 1112 : 		return (rbegin());
; 1113 : 		}
; 1114 : 
; 1115 : 	const_reverse_iterator crend() const _NOEXCEPT
; 1116 : 		{	// return iterator for end of reversed nonmutable sequence
; 1117 : 		return (rend());
; 1118 : 		}
; 1119 : 
; 1120 : 	void shrink_to_fit()
; 1121 : 		{	// reduce capacity
; 1122 : 		if (_Has_unused_capacity())
; 1123 : 			{	// worth shrinking, do it
; 1124 : 			if (empty())
; 1125 : 				_Tidy();
; 1126 : 			else
; 1127 : 				_Reallocate(size());
; 1128 : 			}
; 1129 : 		}
; 1130 : 
; 1131 : 	void resize(size_type _Newsize)
; 1132 : 		{	// determine new length, padding as needed
; 1133 : 		if (_Newsize < size())
; 1134 : 			_Pop_back_n(size() - _Newsize);
; 1135 : 		else if (size() < _Newsize)
; 1136 : 			{	// pad as needed
; 1137 : 			_Reserve(_Newsize - size());
; 1138 : 			_TRY_BEGIN
; 1139 : 			_Uninitialized_default_fill_n(this->_Mylast(), _Newsize - size(),
; 1140 : 				this->_Getal());
; 1141 : 			_CATCH_ALL
; 1142 : 			_Tidy();
; 1143 : 			_RERAISE;
; 1144 : 			_CATCH_END
; 1145 : 			this->_Mylast() += _Newsize - size();
; 1146 : 			}
; 1147 : 		}
; 1148 : 
; 1149 : 	void resize(size_type _Newsize, const value_type& _Val)
; 1150 : 		{	// determine new length, padding with _Val elements as needed
; 1151 : 		if (_Newsize < size())
; 1152 : 			_Pop_back_n(size() - _Newsize);
; 1153 : 		else if (size() < _Newsize)
; 1154 : 			{	// pad as needed
; 1155 : 			const value_type *_Ptr = _STD addressof(_Val);
; 1156 : 
; 1157 : 			if (_Inside(_Ptr))
; 1158 : 				{	// padding is inside vector, recompute _Ptr after reserve
; 1159 : 				const difference_type _Idx = _Ptr
; 1160 : 					- _STD addressof(*this->_Myfirst());
; 1161 : 				_Reserve(_Newsize - size());
; 1162 : 				_Ptr = _STD addressof(*this->_Myfirst()) + _Idx;
; 1163 : 				}
; 1164 : 			else
; 1165 : 				_Reserve(_Newsize - size());
; 1166 : 
; 1167 : 			_TRY_BEGIN
; 1168 : 			_Ufill(this->_Mylast(), _Newsize - size(), _Ptr);
; 1169 : 			_CATCH_ALL
; 1170 : 			_Tidy();
; 1171 : 			_RERAISE;
; 1172 : 			_CATCH_END
; 1173 : 			this->_Mylast() += _Newsize - size();
; 1174 : 			}
; 1175 : 		}
; 1176 : 
; 1177 : 	size_type size() const _NOEXCEPT
; 1178 : 		{	// return length of sequence
; 1179 : 		return (this->_Mylast() - this->_Myfirst());
; 1180 : 		}
; 1181 : 
; 1182 : 	size_type max_size() const _NOEXCEPT
; 1183 : 		{	// return maximum possible length of sequence
; 1184 : 		return (this->_Getal().max_size());
; 1185 : 		}
; 1186 : 
; 1187 : 	bool empty() const _NOEXCEPT
; 1188 : 		{	// test if sequence is empty
; 1189 : 		return (this->_Myfirst() == this->_Mylast());
; 1190 : 		}
; 1191 : 
; 1192 : 	_Alloc get_allocator() const _NOEXCEPT
; 1193 : 		{	// return allocator object for values
; 1194 : 		return (this->_Getal());
; 1195 : 		}
; 1196 : 
; 1197 : 	const_reference at(size_type _Pos) const
; 1198 : 		{	// subscript nonmutable sequence with checking
; 1199 : 		if (size() <= _Pos)
; 1200 : 			_Xran();
; 1201 : 		return (*(this->_Myfirst() + _Pos));
; 1202 : 		}
; 1203 : 
; 1204 : 	reference at(size_type _Pos)
; 1205 : 		{	// subscript mutable sequence with checking
; 1206 : 		if (size() <= _Pos)
; 1207 : 			_Xran();
; 1208 : 		return (*(this->_Myfirst() + _Pos));
; 1209 : 		}
; 1210 : 
; 1211 : 	const_reference operator[](size_type _Pos) const
; 1212 : 		{	// subscript nonmutable sequence
; 1213 :  #if _ITERATOR_DEBUG_LEVEL == 2
; 1214 : 		if (size() <= _Pos)
; 1215 : 			{	// report error
; 1216 : 			_DEBUG_ERROR("vector subscript out of range");
; 1217 : 			_SCL_SECURE_OUT_OF_RANGE;
; 1218 : 			}
; 1219 : 
; 1220 :  #elif _ITERATOR_DEBUG_LEVEL == 1
; 1221 : 		_SCL_SECURE_VALIDATE_RANGE(_Pos < size());
; 1222 :  #endif /* _ITERATOR_DEBUG_LEVEL */
; 1223 : 
; 1224 : 		return (*(this->_Myfirst() + _Pos));
; 1225 : 		}
; 1226 : 
; 1227 : 	reference operator[](size_type _Pos)
; 1228 : 		{	// subscript mutable sequence
; 1229 :  #if _ITERATOR_DEBUG_LEVEL == 2
; 1230 : 		if (size() <= _Pos)
; 1231 : 			{	// report error
; 1232 : 			_DEBUG_ERROR("vector subscript out of range");
; 1233 : 			_SCL_SECURE_OUT_OF_RANGE;
; 1234 : 			}
; 1235 : 
; 1236 :  #elif _ITERATOR_DEBUG_LEVEL == 1
; 1237 : 		_SCL_SECURE_VALIDATE_RANGE(_Pos < size());
; 1238 :  #endif /* _ITERATOR_DEBUG_LEVEL */
; 1239 : 
; 1240 : 		return (*(this->_Myfirst() + _Pos));
; 1241 : 		}
; 1242 : 
; 1243 : 	pointer data() _NOEXCEPT
; 1244 : 		{	// return address of first element
; 1245 : 		return (this->_Myfirst());
; 1246 : 		}
; 1247 : 
; 1248 : 	const_pointer data() const _NOEXCEPT
; 1249 : 		{	// return address of first element
; 1250 : 		return (this->_Myfirst());
; 1251 : 		}
; 1252 : 
; 1253 : 	reference front()
; 1254 : 		{	// return first element of mutable sequence
; 1255 : 		return (*begin());
; 1256 : 		}
; 1257 : 
; 1258 : 	const_reference front() const
; 1259 : 		{	// return first element of nonmutable sequence
; 1260 : 		return (*begin());
; 1261 : 		}
; 1262 : 
; 1263 : 	reference back()
; 1264 : 		{	// return last element of mutable sequence
; 1265 : 		return (*(end() - 1));
; 1266 : 		}
; 1267 : 
; 1268 : 	const_reference back() const
; 1269 : 		{	// return last element of nonmutable sequence
; 1270 : 		return (*(end() - 1));
; 1271 : 		}
; 1272 : 
; 1273 : 	void push_back(const value_type& _Val)
; 1274 : 		{	// insert element at end
; 1275 : 		if (_Inside(_STD addressof(_Val)))
; 1276 : 			{	// push back an element
; 1277 : 			size_type _Idx = _STD addressof(_Val) - this->_Myfirst();
; 1278 : 			if (this->_Mylast() == this->_Myend())
; 1279 : 				_Reserve(1);
; 1280 : 			_Orphan_range(this->_Mylast(), this->_Mylast());
; 1281 : 			this->_Getal().construct(this->_Mylast(),
; 1282 : 				this->_Myfirst()[_Idx]);
; 1283 : 			++this->_Mylast();
; 1284 : 			}
; 1285 : 		else
; 1286 : 			{	// push back a non-element
; 1287 : 			if (this->_Mylast() == this->_Myend())
; 1288 : 				_Reserve(1);
; 1289 : 			_Orphan_range(this->_Mylast(), this->_Mylast());
; 1290 : 			this->_Getal().construct(this->_Mylast(),
; 1291 : 				_Val);
; 1292 : 			++this->_Mylast();
; 1293 : 			}
; 1294 : 		}
; 1295 : 
; 1296 :  #if _ITERATOR_DEBUG_LEVEL == 2
; 1297 : 	void pop_back()
; 1298 : 		{	// erase element at end
; 1299 : 		if (empty())
; 1300 : 			_DEBUG_ERROR("vector empty before pop");
; 1301 : 		else
; 1302 : 			{	// erase last element
; 1303 : 			_Orphan_range(this->_Mylast() - 1, this->_Mylast());
; 1304 : 			this->_Getal().destroy(this->_Mylast() - 1);
; 1305 : 			--this->_Mylast();
; 1306 : 			}
; 1307 : 		}
; 1308 : 
; 1309 :  #else /* _ITERATOR_DEBUG_LEVEL == 2 */
; 1310 : 	void pop_back()
; 1311 : 		{	// erase element at end
; 1312 : 		this->_Getal().destroy(this->_Mylast() - 1);
; 1313 : 		--this->_Mylast();
; 1314 : 		}
; 1315 :  #endif /* _ITERATOR_DEBUG_LEVEL == 2 */
; 1316 : 
; 1317 : 	template<class _Iter>
; 1318 : 		typename enable_if<_Is_iterator<_Iter>::value,
; 1319 : 			void>::type
; 1320 : 		assign(_Iter _First, _Iter _Last)
; 1321 : 		{	// assign [_First, _Last)
; 1322 : 		clear();
; 1323 : 		_Assign(_First, _Last, _Iter_cat(_First));
; 1324 : 		}
; 1325 : 
; 1326 : 	template<class _Iter>
; 1327 : 		void _Assign(_Iter _First, _Iter _Last,
; 1328 : 			input_iterator_tag)
; 1329 : 		{	// assign [_First, _Last), input iterators
; 1330 : 		for (; _First != _Last; ++_First)
; 1331 : 			emplace_back(*_First);
; 1332 : 		}
; 1333 : 
; 1334 : 	template<class _Iter>
; 1335 : 		void _Assign(_Iter _First, _Iter _Last,
; 1336 : 			forward_iterator_tag)
; 1337 : 		{	// assign [_First, _Last), forward iterators
; 1338 : 		size_type _Newsize = _STD distance(_First, _Last);
; 1339 : 
; 1340 : 		if (capacity() < _Newsize)
; 1341 : 			{	// need more room, try to get it
; 1342 : 			size_type _Newcapacity = _Grow_to(_Newsize);
; 1343 : 			_Tidy();
; 1344 : 			_Buy(_Newcapacity);
; 1345 : 			}
; 1346 : 
; 1347 : 		this->_Mylast() = _Ucopy(_First, _Last, this->_Myfirst());
; 1348 : 		}
; 1349 : 
; 1350 : 	void assign(size_type _Count, const value_type& _Val)
; 1351 : 		{	// assign _Count * _Val
; 1352 : 		clear();
; 1353 : 		insert(begin(), _Count, _Val);
; 1354 : 		}
; 1355 : 
; 1356 : 	iterator insert(const_iterator _Where, const _Ty& _Val)
; 1357 : 		{	// insert _Val at _Where
; 1358 : 		return (_Insert_n(_Where, (size_type)1, _Val));
; 1359 : 		}
; 1360 : 
; 1361 : 	iterator insert(const_iterator _Where, size_type _Count,
; 1362 : 		const _Ty& _Val)
; 1363 : 		{	// insert _Count * _Val at _Where
; 1364 : 		return (_Insert_n(_Where, _Count, _Val));
; 1365 : 		}
; 1366 : 
; 1367 : 	template<class _Iter>
; 1368 : 		typename enable_if<_Is_iterator<_Iter>::value,
; 1369 : 			iterator>::type
; 1370 : 		insert(const_iterator _Where, _Iter _First, _Iter _Last)
; 1371 : 		{	// insert [_First, _Last) at _Where
; 1372 : 		size_type _Off = _VIPTR(_Where) - this->_Myfirst();
; 1373 : 		_Insert(_Where, _First, _Last, _Iter_cat(_First));
; 1374 : 		return (begin() + _Off);
; 1375 : 		}
; 1376 : 
; 1377 : 	template<class _Iter>
; 1378 : 		void _Insert(const_iterator _Where,
; 1379 : 			_Iter _First, _Iter _Last,
; 1380 : 				input_iterator_tag)
; 1381 : 		{	// insert [_First, _Last) at _Where, input iterators
; 1382 : 		size_type _Off = _VIPTR(_Where) - this->_Myfirst();
; 1383 : 
; 1384 :  #if _ITERATOR_DEBUG_LEVEL == 2
; 1385 : 		if (size() < _Off)
; 1386 : 			_DEBUG_ERROR("vector insert iterator outside range");
; 1387 :  #endif /* _ITERATOR_DEBUG_LEVEL == 2 */
; 1388 : 
; 1389 : 		if (_First != _Last)
; 1390 : 			{	// worth doing, gather at end and rotate into place
; 1391 : 			size_type _Oldsize = size();
; 1392 : 
; 1393 : 			_TRY_BEGIN
; 1394 : 			for (; _First != _Last; ++_First)
; 1395 : 				push_back(*_First);	// append
; 1396 : 
; 1397 : 			_CATCH_ALL
; 1398 : 			erase(begin() + _Oldsize, end());
; 1399 : 			_RERAISE;
; 1400 : 			_CATCH_END
; 1401 : 
; 1402 : 			_STD rotate(begin() + _Off, begin() + _Oldsize, end());
; 1403 : 			}
; 1404 : 		}
; 1405 : 
; 1406 : 	template<class _Iter>
; 1407 : 		void _Insert(const_iterator _Where,
; 1408 : 			_Iter _First, _Iter _Last,
; 1409 : 				forward_iterator_tag)
; 1410 : 		{	// insert [_First, _Last) at _Where, forward iterators
; 1411 :  #if _ITERATOR_DEBUG_LEVEL == 2
; 1412 : 		if (_VICONT(_Where) != &this->_Get_data()
; 1413 : 			|| _VIPTR(_Where) < this->_Myfirst()
; 1414 : 			|| this->_Mylast() < _VIPTR(_Where))
; 1415 : 			_DEBUG_ERROR("vector insert iterator outside range");
; 1416 : 		_DEBUG_RANGE(_First, _Last);
; 1417 :  #endif /* _ITERATOR_DEBUG_LEVEL == 2 */
; 1418 : 
; 1419 : 		size_type _Count = 0;
; 1420 : 		_Distance(_First, _Last, _Count);
; 1421 : 
; 1422 : 		if (_Count == 0)
; 1423 : 			;
; 1424 : 		else if (_Unused_capacity() < _Count)
; 1425 : 			{	// not enough room, reallocate
; 1426 : 			if (max_size() - size() < _Count)
; 1427 : 				_Xlen();	// result too long
; 1428 : 
; 1429 : 			size_type _Capacity = _Grow_to(size() + _Count);
; 1430 : 			pointer _Newvec = this->_Getal().allocate(_Capacity);
; 1431 : 			pointer _Ptr = _Newvec;
; 1432 : 
; 1433 : 			_TRY_BEGIN
; 1434 : 			_Ptr = _Umove(this->_Myfirst(), _VIPTR(_Where),
; 1435 : 				_Newvec);	// copy prefix
; 1436 : 			_Ptr = _Ucopy(_First, _Last, _Ptr);	// add new stuff
; 1437 : 			_Umove(_VIPTR(_Where), this->_Mylast(),
; 1438 : 				_Ptr);	// copy suffix
; 1439 : 			_CATCH_ALL
; 1440 : 			_Destroy(_Newvec, _Ptr);
; 1441 : 			this->_Getal().deallocate(_Newvec, _Capacity);
; 1442 : 			_RERAISE;
; 1443 : 			_CATCH_END
; 1444 : 
; 1445 : 			_Count += size();
; 1446 : 			if (this->_Myfirst() != pointer())
; 1447 : 				{	// destroy and deallocate old array
; 1448 : 				_Destroy(this->_Myfirst(), this->_Mylast());
; 1449 : 				this->_Getal().deallocate(this->_Myfirst(),
; 1450 : 					this->_Myend() - this->_Myfirst());
; 1451 : 				}
; 1452 : 
; 1453 : 			this->_Orphan_all();
; 1454 : 			this->_Myend() = _Newvec + _Capacity;
; 1455 : 			this->_Mylast() = _Newvec + _Count;
; 1456 : 			this->_Myfirst() = _Newvec;
; 1457 : 			}
; 1458 : 		else
; 1459 : 			{	// new stuff fits, append and rotate into place
; 1460 : 			_Ucopy(_First, _Last, this->_Mylast());
; 1461 : 			_STD rotate(_VIPTR(_Where), this->_Mylast(),
; 1462 : 				this->_Mylast() + _Count);
; 1463 : 			this->_Mylast() += _Count;
; 1464 : 			_Orphan_range(_VIPTR(_Where), this->_Mylast());
; 1465 : 			}
; 1466 : 		}
; 1467 : 
; 1468 :  #if _ITERATOR_DEBUG_LEVEL == 2
; 1469 : 	iterator erase(const_iterator _Where)
; 1470 : 		{	// erase element at where
; 1471 : 		if (_VICONT(_Where) != &this->_Get_data()
; 1472 : 			|| _VIPTR(_Where) < this->_Myfirst()
; 1473 : 			|| this->_Mylast() <= _VIPTR(_Where))
; 1474 : 			_DEBUG_ERROR("vector erase iterator outside range");
; 1475 : 		_Move(_VIPTR(_Where) + 1, this->_Mylast(), _VIPTR(_Where));
; 1476 : 		_Destroy(this->_Mylast() - 1, this->_Mylast());
; 1477 : 		_Orphan_range(_VIPTR(_Where), this->_Mylast());
; 1478 : 		--this->_Mylast();
; 1479 : 		return (_Make_iter(_Where));
; 1480 : 		}
; 1481 : 
; 1482 :  #else /* _ITERATOR_DEBUG_LEVEL == 2 */
; 1483 : 	iterator erase(const_iterator _Where)
; 1484 : 		{	// erase element at where
; 1485 : 		_Move(_VIPTR(_Where) + 1, this->_Mylast(),
; 1486 : 			_VIPTR(_Where));
; 1487 : 		_Destroy(this->_Mylast() - 1, this->_Mylast());
; 1488 : 		--this->_Mylast();
; 1489 : 		return (_Make_iter(_Where));
; 1490 : 		}
; 1491 :  #endif /* _ITERATOR_DEBUG_LEVEL == 2 */
; 1492 : 
; 1493 : 	iterator erase(const_iterator _First_arg,
; 1494 : 		const_iterator _Last_arg)
; 1495 : 		{	// erase [_First, _Last)
; 1496 : 		if (_First_arg == begin() && _Last_arg == end())
; 1497 : 			clear();
; 1498 : 		else if (_First_arg != _Last_arg)
; 1499 : 			{	// clear partial
; 1500 : 			iterator _First = _Make_iter(_First_arg);
; 1501 : 			iterator _Last = _Make_iter(_Last_arg);
; 1502 : 
; 1503 : 			if (_First != _Last)
; 1504 : 				{	// worth doing, copy down over hole
; 1505 :  #if _ITERATOR_DEBUG_LEVEL == 2
; 1506 : 				if (_Last < _First || _VICONT(_First) != &this->_Get_data()
; 1507 : 					|| _VIPTR(_First) < this->_Myfirst()
; 1508 : 					|| this->_Mylast() < _VIPTR(_Last))
; 1509 : 					_DEBUG_ERROR("vector erase iterator outside range");
; 1510 : 				pointer _Ptr = _Move(_VIPTR(_Last), this->_Mylast(),
; 1511 : 					_VIPTR(_First));
; 1512 : 				_Orphan_range(_VIPTR(_First), this->_Mylast());
; 1513 : 
; 1514 :  #else /* _ITERATOR_DEBUG_LEVEL == 2 */
; 1515 : 				pointer _Ptr = _Move(_VIPTR(_Last), this->_Mylast(),
; 1516 : 					_VIPTR(_First));
; 1517 :  #endif /* _ITERATOR_DEBUG_LEVEL == 2 */
; 1518 : 
; 1519 : 				_Destroy(_Ptr, this->_Mylast());
; 1520 : 				this->_Mylast() = _Ptr;
; 1521 : 				}
; 1522 : 			}
; 1523 : 		return (_Make_iter(_First_arg));
; 1524 : 		}
; 1525 : 
; 1526 : 	void _Pop_back_n(size_type _Count)
; 1527 : 		{	// erase _Count elements at end
; 1528 : 		pointer _Ptr = this->_Mylast() - _Count;
; 1529 : 
; 1530 :  #if _ITERATOR_DEBUG_LEVEL == 2
; 1531 : 		_Orphan_range(_Ptr, this->_Mylast());
; 1532 :  #endif /* _ITERATOR_DEBUG_LEVEL == 2 */
; 1533 : 
; 1534 : 		_Destroy(_Ptr, this->_Mylast());
; 1535 : 		this->_Mylast() = _Ptr;
; 1536 : 		}
; 1537 : 
; 1538 : 	void clear() _NOEXCEPT
; 1539 : 		{	// erase all
; 1540 : 		this->_Orphan_all();
; 1541 : 		_Destroy(this->_Myfirst(), this->_Mylast());
; 1542 : 		this->_Mylast() = this->_Myfirst();
; 1543 : 		}
; 1544 : 
; 1545 : 	void swap(_Myt& _Right)
; 1546 : 		_NOEXCEPT_OP(_Alty::propagate_on_container_swap::value
; 1547 : 			|| _Alty::is_always_equal::value)
; 1548 : 		{	// exchange contents with _Right
; 1549 : 		if (this == &_Right)
; 1550 : 			;	// same object, do nothing
; 1551 : 		else if (this->_Getal() == _Right._Getal())
; 1552 : 			{	// same allocator, swap control information
; 1553 : 			this->_Swap_all(_Right);
; 1554 : 			_Swap_adl(this->_Myfirst(), _Right._Myfirst());
; 1555 : 			_Swap_adl(this->_Mylast(), _Right._Mylast());
; 1556 : 			_Swap_adl(this->_Myend(), _Right._Myend());
; 1557 : 			}
; 1558 : 
; 1559 : 		else if (_Alty::propagate_on_container_swap::value)
; 1560 : 			{	// swap allocators and control information
; 1561 : 			this->_Swap_alloc(_Right);
; 1562 : 			_Swap_adl(this->_Myfirst(), _Right._Myfirst());
; 1563 : 			_Swap_adl(this->_Mylast(), _Right._Mylast());
; 1564 : 			_Swap_adl(this->_Myend(), _Right._Myend());
; 1565 : 			}
; 1566 : 
; 1567 : 		else
; 1568 : 			{	// containers are incompatible
; 1569 :  #if _ITERATOR_DEBUG_LEVEL == 2
; 1570 : 			_DEBUG_ERROR("vector containers incompatible for swap");
; 1571 : 
; 1572 :  #else /* ITERATOR_DEBUG_LEVEL == 2 */
; 1573 : 			_XSTD terminate();
; 1574 :  #endif /* ITERATOR_DEBUG_LEVEL == 2 */
; 1575 : 			}
; 1576 : 		}
; 1577 : 
; 1578 : protected:
; 1579 : 	bool _Buy(size_type _Capacity)
; 1580 : 		{	// allocate array with _Capacity elements
; 1581 : 		this->_Myfirst() = pointer();
; 1582 : 		this->_Mylast() = pointer();
; 1583 : 		this->_Myend() = pointer();
; 1584 : 
; 1585 : 		if (_Capacity == 0)
; 1586 : 			return (false);
; 1587 : 		else if (max_size() < _Capacity)
; 1588 : 			_Xlen();	// result too long
; 1589 : 		else
; 1590 : 			{	// nonempty array, allocate storage
; 1591 : 			this->_Myfirst() = this->_Getal().allocate(_Capacity);
; 1592 : 			this->_Mylast() = this->_Myfirst();
; 1593 : 			this->_Myend() = this->_Myfirst() + _Capacity;
; 1594 : 			}
; 1595 : 		return (true);
; 1596 : 		}
; 1597 : 
; 1598 : 	void _Destroy(pointer _First, pointer _Last)
; 1599 : 		{	// destroy [_First, _Last) using allocator
; 1600 : 		_Destroy_range(_First, _Last, this->_Getal());
; 1601 : 		}
; 1602 : 
; 1603 : 	size_type _Grow_to(size_type _Count) const
; 1604 : 		{	// grow by 50% or at least to _Count
; 1605 : 		size_type _Capacity = capacity();
; 1606 : 
; 1607 : 		_Capacity = max_size() - _Capacity / 2 < _Capacity
; 1608 : 			? 0 : _Capacity + _Capacity / 2;	// try to grow by 50%
; 1609 : 		if (_Capacity < _Count)
; 1610 : 			_Capacity = _Count;
; 1611 : 		return (_Capacity);
; 1612 : 		}
; 1613 : 
; 1614 : 	bool _Inside(const value_type *_Ptr) const
; 1615 : 		{	// test if _Ptr points inside vector
; 1616 : 		return (_Ptr < this->_Mylast() && this->_Myfirst() <= _Ptr);
; 1617 : 		}
; 1618 : 
; 1619 : 	void _Reallocate(size_type _Count)
; 1620 : 		{	// move to array of exactly _Count elements
; 1621 : 		pointer _Ptr = this->_Getal().allocate(_Count);
; 1622 : 
; 1623 : 		_TRY_BEGIN
; 1624 : 		_Umove(this->_Myfirst(), this->_Mylast(), _Ptr);
; 1625 : 		_CATCH_ALL
; 1626 : 		this->_Getal().deallocate(_Ptr, _Count);
; 1627 : 		_RERAISE;
; 1628 : 		_CATCH_END
; 1629 : 
; 1630 : 		size_type _Size = size();
; 1631 : 		if (this->_Myfirst() != pointer())
; 1632 : 			{	// destroy and deallocate old array
; 1633 : 			_Destroy(this->_Myfirst(), this->_Mylast());
; 1634 : 			this->_Getal().deallocate(this->_Myfirst(),
; 1635 : 				this->_Myend() - this->_Myfirst());
; 1636 : 			}
; 1637 : 
; 1638 : 		this->_Orphan_all();
; 1639 : 		this->_Myend() = _Ptr + _Count;
; 1640 : 		this->_Mylast() = _Ptr + _Size;
; 1641 : 		this->_Myfirst() = _Ptr;
; 1642 : 		}
; 1643 : 
; 1644 : 	void _Reserve(size_type _Count)
; 1645 : 		{	// ensure room for _Count new elements, grow exponentially
; 1646 : 		if (_Unused_capacity() < _Count)
; 1647 : 			{	// need more room, try to get it
; 1648 : 			if (max_size() - size() < _Count)
; 1649 : 				_Xlen();
; 1650 : 			_Reallocate(_Grow_to(size() + _Count));
; 1651 : 			}
; 1652 : 		}
; 1653 : 
; 1654 : 	void _Tidy()
; 1655 : 		{	// free all storage
; 1656 : 		if (this->_Myfirst() != pointer())

  00003	8b 0e		 mov	 ecx, DWORD PTR [esi]
  00005	85 c9		 test	 ecx, ecx
  00007	74 33		 je	 SHORT $LN4@vector

; 1657 : 			{	// something to free, destroy and deallocate it
; 1658 : 			this->_Orphan_all();
; 1659 : 			_Destroy(this->_Myfirst(), this->_Mylast());
; 1660 : 			this->_Getal().deallocate(this->_Myfirst(),

  00009	8b 56 08	 mov	 edx, DWORD PTR [esi+8]
  0000c	b8 f7 12 da 4b	 mov	 eax, 1272582903		; 4bda12f7H
  00011	2b d1		 sub	 edx, ecx
  00013	f7 ea		 imul	 edx
  00015	c1 fa 05	 sar	 edx, 5
  00018	8b c2		 mov	 eax, edx
  0001a	c1 e8 1f	 shr	 eax, 31			; 0000001fH
  0001d	03 c2		 add	 eax, edx
  0001f	50		 push	 eax
  00020	51		 push	 ecx
  00021	8b ce		 mov	 ecx, esi
  00023	e8 00 00 00 00	 call	 ?deallocate@?$_Wrap_alloc@V?$allocator@UNoticeRotateInfo@@@std@@@std@@QAEXPAUNoticeRotateInfo@@I@Z ; std::_Wrap_alloc<std::allocator<NoticeRotateInfo> >::deallocate

; 1661 : 				this->_Myend() - this->_Myfirst());
; 1662 : 			this->_Myfirst() = pointer();

  00028	c7 06 00 00 00
	00		 mov	 DWORD PTR [esi], 0

; 1663 : 			this->_Mylast() = pointer();

  0002e	c7 46 04 00 00
	00 00		 mov	 DWORD PTR [esi+4], 0

; 1664 : 			this->_Myend() = pointer();

  00035	c7 46 08 00 00
	00 00		 mov	 DWORD PTR [esi+8], 0
$LN4@vector:
  0003c	5e		 pop	 esi

; 975  : 		_Tidy();
; 976  : 		}

  0003d	c3		 ret	 0
??1?$vector@UNoticeRotateInfo@@V?$allocator@UNoticeRotateInfo@@@std@@@std@@QAE@XZ ENDP ; std::vector<NoticeRotateInfo,std::allocator<NoticeRotateInfo> >::~vector<NoticeRotateInfo,std::allocator<NoticeRotateInfo> >
_TEXT	ENDS
; Function compile flags: /Ogtp
; File c:\program files (x86)\microsoft visual studio 14.0\vc\include\vector
;	COMDAT ??0?$vector@UNoticeRotateInfo@@V?$allocator@UNoticeRotateInfo@@@std@@@std@@QAE@XZ
_TEXT	SEGMENT
??0?$vector@UNoticeRotateInfo@@V?$allocator@UNoticeRotateInfo@@@std@@@std@@QAE@XZ PROC ; std::vector<NoticeRotateInfo,std::allocator<NoticeRotateInfo> >::vector<NoticeRotateInfo,std::allocator<NoticeRotateInfo> >, COMDAT
; _this$ = ecx

; 480  : 		_Myfirst = pointer();

  00000	c7 01 00 00 00
	00		 mov	 DWORD PTR [ecx], 0

; 707  : 		}

  00006	8b c1		 mov	 eax, ecx

; 481  : 		_Mylast = pointer();

  00008	c7 41 04 00 00
	00 00		 mov	 DWORD PTR [ecx+4], 0

; 482  : 		_Myend = pointer();

  0000f	c7 41 08 00 00
	00 00		 mov	 DWORD PTR [ecx+8], 0

; 707  : 		}

  00016	c3		 ret	 0
??0?$vector@UNoticeRotateInfo@@V?$allocator@UNoticeRotateInfo@@@std@@@std@@QAE@XZ ENDP ; std::vector<NoticeRotateInfo,std::allocator<NoticeRotateInfo> >::vector<NoticeRotateInfo,std::allocator<NoticeRotateInfo> >
_TEXT	ENDS
; Function compile flags: /Ogtp
; File c:\program files (x86)\microsoft visual studio 14.0\vc\include\xutility
;	COMDAT ?_Get_second@?$_Compressed_pair@U?$_Wrap_alloc@V?$allocator@UNoticeRotateInfo@@@std@@@std@@V?$_Vector_val@U?$_Simple_types@UNoticeRotateInfo@@@std@@@2@$00@std@@QBEABV?$_Vector_val@U?$_Simple_types@UNoticeRotateInfo@@@std@@@2@XZ
_TEXT	SEGMENT
?_Get_second@?$_Compressed_pair@U?$_Wrap_alloc@V?$allocator@UNoticeRotateInfo@@@std@@@std@@V?$_Vector_val@U?$_Simple_types@UNoticeRotateInfo@@@std@@@2@$00@std@@QBEABV?$_Vector_val@U?$_Simple_types@UNoticeRotateInfo@@@std@@@2@XZ PROC ; std::_Compressed_pair<std::_Wrap_alloc<std::allocator<NoticeRotateInfo> >,std::_Vector_val<std::_Simple_types<NoticeRotateInfo> >,1>::_Get_second, COMDAT
; _this$ = ecx

; 319  : 		return (_Myval2);

  00000	8b c1		 mov	 eax, ecx

; 320  : 		}

  00002	c3		 ret	 0
?_Get_second@?$_Compressed_pair@U?$_Wrap_alloc@V?$allocator@UNoticeRotateInfo@@@std@@@std@@V?$_Vector_val@U?$_Simple_types@UNoticeRotateInfo@@@std@@@2@$00@std@@QBEABV?$_Vector_val@U?$_Simple_types@UNoticeRotateInfo@@@std@@@2@XZ ENDP ; std::_Compressed_pair<std::_Wrap_alloc<std::allocator<NoticeRotateInfo> >,std::_Vector_val<std::_Simple_types<NoticeRotateInfo> >,1>::_Get_second
_TEXT	ENDS
; Function compile flags: /Ogtp
; File c:\program files (x86)\microsoft visual studio 14.0\vc\include\xutility
;	COMDAT ?_Get_second@?$_Compressed_pair@U?$_Wrap_alloc@V?$allocator@UNoticeRotateInfo@@@std@@@std@@V?$_Vector_val@U?$_Simple_types@UNoticeRotateInfo@@@std@@@2@$00@std@@QAEAAV?$_Vector_val@U?$_Simple_types@UNoticeRotateInfo@@@std@@@2@XZ
_TEXT	SEGMENT
?_Get_second@?$_Compressed_pair@U?$_Wrap_alloc@V?$allocator@UNoticeRotateInfo@@@std@@@std@@V?$_Vector_val@U?$_Simple_types@UNoticeRotateInfo@@@std@@@2@$00@std@@QAEAAV?$_Vector_val@U?$_Simple_types@UNoticeRotateInfo@@@std@@@2@XZ PROC ; std::_Compressed_pair<std::_Wrap_alloc<std::allocator<NoticeRotateInfo> >,std::_Vector_val<std::_Simple_types<NoticeRotateInfo> >,1>::_Get_second, COMDAT
; _this$ = ecx

; 314  : 		return (_Myval2);

  00000	8b c1		 mov	 eax, ecx

; 315  : 		}

  00002	c3		 ret	 0
?_Get_second@?$_Compressed_pair@U?$_Wrap_alloc@V?$allocator@UNoticeRotateInfo@@@std@@@std@@V?$_Vector_val@U?$_Simple_types@UNoticeRotateInfo@@@std@@@2@$00@std@@QAEAAV?$_Vector_val@U?$_Simple_types@UNoticeRotateInfo@@@std@@@2@XZ ENDP ; std::_Compressed_pair<std::_Wrap_alloc<std::allocator<NoticeRotateInfo> >,std::_Vector_val<std::_Simple_types<NoticeRotateInfo> >,1>::_Get_second
_TEXT	ENDS
; Function compile flags: /Ogtp
; File c:\program files (x86)\microsoft visual studio 14.0\vc\include\xutility
;	COMDAT ?_Get_first@?$_Compressed_pair@U?$_Wrap_alloc@V?$allocator@UNoticeRotateInfo@@@std@@@std@@V?$_Vector_val@U?$_Simple_types@UNoticeRotateInfo@@@std@@@2@$00@std@@QBEABU?$_Wrap_alloc@V?$allocator@UNoticeRotateInfo@@@std@@@2@XZ
_TEXT	SEGMENT
?_Get_first@?$_Compressed_pair@U?$_Wrap_alloc@V?$allocator@UNoticeRotateInfo@@@std@@@std@@V?$_Vector_val@U?$_Simple_types@UNoticeRotateInfo@@@std@@@2@$00@std@@QBEABU?$_Wrap_alloc@V?$allocator@UNoticeRotateInfo@@@std@@@2@XZ PROC ; std::_Compressed_pair<std::_Wrap_alloc<std::allocator<NoticeRotateInfo> >,std::_Vector_val<std::_Simple_types<NoticeRotateInfo> >,1>::_Get_first, COMDAT
; _this$ = ecx

; 299  : 		return (*this);

  00000	8b c1		 mov	 eax, ecx

; 300  : 		}

  00002	c3		 ret	 0
?_Get_first@?$_Compressed_pair@U?$_Wrap_alloc@V?$allocator@UNoticeRotateInfo@@@std@@@std@@V?$_Vector_val@U?$_Simple_types@UNoticeRotateInfo@@@std@@@2@$00@std@@QBEABU?$_Wrap_alloc@V?$allocator@UNoticeRotateInfo@@@std@@@2@XZ ENDP ; std::_Compressed_pair<std::_Wrap_alloc<std::allocator<NoticeRotateInfo> >,std::_Vector_val<std::_Simple_types<NoticeRotateInfo> >,1>::_Get_first
_TEXT	ENDS
; Function compile flags: /Ogtp
; File c:\program files (x86)\microsoft visual studio 14.0\vc\include\xutility
;	COMDAT ?_Get_first@?$_Compressed_pair@U?$_Wrap_alloc@V?$allocator@UNoticeRotateInfo@@@std@@@std@@V?$_Vector_val@U?$_Simple_types@UNoticeRotateInfo@@@std@@@2@$00@std@@QAEAAU?$_Wrap_alloc@V?$allocator@UNoticeRotateInfo@@@std@@@2@XZ
_TEXT	SEGMENT
?_Get_first@?$_Compressed_pair@U?$_Wrap_alloc@V?$allocator@UNoticeRotateInfo@@@std@@@std@@V?$_Vector_val@U?$_Simple_types@UNoticeRotateInfo@@@std@@@2@$00@std@@QAEAAU?$_Wrap_alloc@V?$allocator@UNoticeRotateInfo@@@std@@@2@XZ PROC ; std::_Compressed_pair<std::_Wrap_alloc<std::allocator<NoticeRotateInfo> >,std::_Vector_val<std::_Simple_types<NoticeRotateInfo> >,1>::_Get_first, COMDAT
; _this$ = ecx

; 294  : 		return (*this);

  00000	8b c1		 mov	 eax, ecx

; 295  : 		}

  00002	c3		 ret	 0
?_Get_first@?$_Compressed_pair@U?$_Wrap_alloc@V?$allocator@UNoticeRotateInfo@@@std@@@std@@V?$_Vector_val@U?$_Simple_types@UNoticeRotateInfo@@@std@@@2@$00@std@@QAEAAU?$_Wrap_alloc@V?$allocator@UNoticeRotateInfo@@@std@@@2@XZ ENDP ; std::_Compressed_pair<std::_Wrap_alloc<std::allocator<NoticeRotateInfo> >,std::_Vector_val<std::_Simple_types<NoticeRotateInfo> >,1>::_Get_first
_TEXT	ENDS
; Function compile flags: /Ogtp
; File c:\program files (x86)\microsoft visual studio 14.0\vc\include\vector
;	COMDAT ??0?$_Vector_val@U?$_Simple_types@UNoticeRotateInfo@@@std@@@std@@QAE@XZ
_TEXT	SEGMENT
??0?$_Vector_val@U?$_Simple_types@UNoticeRotateInfo@@@std@@@std@@QAE@XZ PROC ; std::_Vector_val<std::_Simple_types<NoticeRotateInfo> >::_Vector_val<std::_Simple_types<NoticeRotateInfo> >, COMDAT
; _this$ = ecx

; 479  : 		{	// initialize values
; 480  : 		_Myfirst = pointer();

  00000	c7 01 00 00 00
	00		 mov	 DWORD PTR [ecx], 0

; 481  : 		_Mylast = pointer();
; 482  : 		_Myend = pointer();
; 483  : 		}

  00006	8b c1		 mov	 eax, ecx
  00008	c7 41 04 00 00
	00 00		 mov	 DWORD PTR [ecx+4], 0
  0000f	c7 41 08 00 00
	00 00		 mov	 DWORD PTR [ecx+8], 0
  00016	c3		 ret	 0
??0?$_Vector_val@U?$_Simple_types@UNoticeRotateInfo@@@std@@@std@@QAE@XZ ENDP ; std::_Vector_val<std::_Simple_types<NoticeRotateInfo> >::_Vector_val<std::_Simple_types<NoticeRotateInfo> >
_TEXT	ENDS
; Function compile flags: /Ogtp
; File c:\program files (x86)\microsoft visual studio 14.0\vc\include\vector
;	COMDAT ?_Myend@?$_Vector_alloc@U?$_Vec_base_types@UNoticeRotateInfo@@V?$allocator@UNoticeRotateInfo@@@std@@@std@@@std@@QBEABQAUNoticeRotateInfo@@XZ
_TEXT	SEGMENT
?_Myend@?$_Vector_alloc@U?$_Vec_base_types@UNoticeRotateInfo@@V?$allocator@UNoticeRotateInfo@@@std@@@std@@@std@@QBEABQAUNoticeRotateInfo@@XZ PROC ; std::_Vector_alloc<std::_Vec_base_types<NoticeRotateInfo,std::allocator<NoticeRotateInfo> > >::_Myend, COMDAT
; _this$ = ecx

; 667  : 		return (_Get_data()._Myend);

  00000	8d 41 08	 lea	 eax, DWORD PTR [ecx+8]

; 668  : 		}

  00003	c3		 ret	 0
?_Myend@?$_Vector_alloc@U?$_Vec_base_types@UNoticeRotateInfo@@V?$allocator@UNoticeRotateInfo@@@std@@@std@@@std@@QBEABQAUNoticeRotateInfo@@XZ ENDP ; std::_Vector_alloc<std::_Vec_base_types<NoticeRotateInfo,std::allocator<NoticeRotateInfo> > >::_Myend
_TEXT	ENDS
; Function compile flags: /Ogtp
; File c:\program files (x86)\microsoft visual studio 14.0\vc\include\vector
;	COMDAT ?_Myend@?$_Vector_alloc@U?$_Vec_base_types@UNoticeRotateInfo@@V?$allocator@UNoticeRotateInfo@@@std@@@std@@@std@@QAEAAPAUNoticeRotateInfo@@XZ
_TEXT	SEGMENT
?_Myend@?$_Vector_alloc@U?$_Vec_base_types@UNoticeRotateInfo@@V?$allocator@UNoticeRotateInfo@@@std@@@std@@@std@@QAEAAPAUNoticeRotateInfo@@XZ PROC ; std::_Vector_alloc<std::_Vec_base_types<NoticeRotateInfo,std::allocator<NoticeRotateInfo> > >::_Myend, COMDAT
; _this$ = ecx

; 662  : 		return (_Get_data()._Myend);

  00000	8d 41 08	 lea	 eax, DWORD PTR [ecx+8]

; 663  : 		}

  00003	c3		 ret	 0
?_Myend@?$_Vector_alloc@U?$_Vec_base_types@UNoticeRotateInfo@@V?$allocator@UNoticeRotateInfo@@@std@@@std@@@std@@QAEAAPAUNoticeRotateInfo@@XZ ENDP ; std::_Vector_alloc<std::_Vec_base_types<NoticeRotateInfo,std::allocator<NoticeRotateInfo> > >::_Myend
_TEXT	ENDS
; Function compile flags: /Ogtp
; File c:\program files (x86)\microsoft visual studio 14.0\vc\include\vector
;	COMDAT ?_Mylast@?$_Vector_alloc@U?$_Vec_base_types@UNoticeRotateInfo@@V?$allocator@UNoticeRotateInfo@@@std@@@std@@@std@@QBEABQAUNoticeRotateInfo@@XZ
_TEXT	SEGMENT
?_Mylast@?$_Vector_alloc@U?$_Vec_base_types@UNoticeRotateInfo@@V?$allocator@UNoticeRotateInfo@@@std@@@std@@@std@@QBEABQAUNoticeRotateInfo@@XZ PROC ; std::_Vector_alloc<std::_Vec_base_types<NoticeRotateInfo,std::allocator<NoticeRotateInfo> > >::_Mylast, COMDAT
; _this$ = ecx

; 657  : 		return (_Get_data()._Mylast);

  00000	8d 41 04	 lea	 eax, DWORD PTR [ecx+4]

; 658  : 		}

  00003	c3		 ret	 0
?_Mylast@?$_Vector_alloc@U?$_Vec_base_types@UNoticeRotateInfo@@V?$allocator@UNoticeRotateInfo@@@std@@@std@@@std@@QBEABQAUNoticeRotateInfo@@XZ ENDP ; std::_Vector_alloc<std::_Vec_base_types<NoticeRotateInfo,std::allocator<NoticeRotateInfo> > >::_Mylast
_TEXT	ENDS
; Function compile flags: /Ogtp
; File c:\program files (x86)\microsoft visual studio 14.0\vc\include\vector
;	COMDAT ?_Mylast@?$_Vector_alloc@U?$_Vec_base_types@UNoticeRotateInfo@@V?$allocator@UNoticeRotateInfo@@@std@@@std@@@std@@QAEAAPAUNoticeRotateInfo@@XZ
_TEXT	SEGMENT
?_Mylast@?$_Vector_alloc@U?$_Vec_base_types@UNoticeRotateInfo@@V?$allocator@UNoticeRotateInfo@@@std@@@std@@@std@@QAEAAPAUNoticeRotateInfo@@XZ PROC ; std::_Vector_alloc<std::_Vec_base_types<NoticeRotateInfo,std::allocator<NoticeRotateInfo> > >::_Mylast, COMDAT
; _this$ = ecx

; 652  : 		return (_Get_data()._Mylast);

  00000	8d 41 04	 lea	 eax, DWORD PTR [ecx+4]

; 653  : 		}

  00003	c3		 ret	 0
?_Mylast@?$_Vector_alloc@U?$_Vec_base_types@UNoticeRotateInfo@@V?$allocator@UNoticeRotateInfo@@@std@@@std@@@std@@QAEAAPAUNoticeRotateInfo@@XZ ENDP ; std::_Vector_alloc<std::_Vec_base_types<NoticeRotateInfo,std::allocator<NoticeRotateInfo> > >::_Mylast
_TEXT	ENDS
; Function compile flags: /Ogtp
; File c:\program files (x86)\microsoft visual studio 14.0\vc\include\vector
;	COMDAT ?_Myfirst@?$_Vector_alloc@U?$_Vec_base_types@UNoticeRotateInfo@@V?$allocator@UNoticeRotateInfo@@@std@@@std@@@std@@QBEABQAUNoticeRotateInfo@@XZ
_TEXT	SEGMENT
?_Myfirst@?$_Vector_alloc@U?$_Vec_base_types@UNoticeRotateInfo@@V?$allocator@UNoticeRotateInfo@@@std@@@std@@@std@@QBEABQAUNoticeRotateInfo@@XZ PROC ; std::_Vector_alloc<std::_Vec_base_types<NoticeRotateInfo,std::allocator<NoticeRotateInfo> > >::_Myfirst, COMDAT
; _this$ = ecx

; 647  : 		return (_Get_data()._Myfirst);

  00000	8b c1		 mov	 eax, ecx

; 648  : 		}

  00002	c3		 ret	 0
?_Myfirst@?$_Vector_alloc@U?$_Vec_base_types@UNoticeRotateInfo@@V?$allocator@UNoticeRotateInfo@@@std@@@std@@@std@@QBEABQAUNoticeRotateInfo@@XZ ENDP ; std::_Vector_alloc<std::_Vec_base_types<NoticeRotateInfo,std::allocator<NoticeRotateInfo> > >::_Myfirst
_TEXT	ENDS
; Function compile flags: /Ogtp
; File c:\program files (x86)\microsoft visual studio 14.0\vc\include\vector
;	COMDAT ?_Myfirst@?$_Vector_alloc@U?$_Vec_base_types@UNoticeRotateInfo@@V?$allocator@UNoticeRotateInfo@@@std@@@std@@@std@@QAEAAPAUNoticeRotateInfo@@XZ
_TEXT	SEGMENT
?_Myfirst@?$_Vector_alloc@U?$_Vec_base_types@UNoticeRotateInfo@@V?$allocator@UNoticeRotateInfo@@@std@@@std@@@std@@QAEAAPAUNoticeRotateInfo@@XZ PROC ; std::_Vector_alloc<std::_Vec_base_types<NoticeRotateInfo,std::allocator<NoticeRotateInfo> > >::_Myfirst, COMDAT
; _this$ = ecx

; 642  : 		return (_Get_data()._Myfirst);

  00000	8b c1		 mov	 eax, ecx

; 643  : 		}

  00002	c3		 ret	 0
?_Myfirst@?$_Vector_alloc@U?$_Vec_base_types@UNoticeRotateInfo@@V?$allocator@UNoticeRotateInfo@@@std@@@std@@@std@@QAEAAPAUNoticeRotateInfo@@XZ ENDP ; std::_Vector_alloc<std::_Vec_base_types<NoticeRotateInfo,std::allocator<NoticeRotateInfo> > >::_Myfirst
_TEXT	ENDS
; Function compile flags: /Ogtp
; File c:\program files (x86)\microsoft visual studio 14.0\vc\include\vector
;	COMDAT ?_Get_data@?$_Vector_alloc@U?$_Vec_base_types@UNoticeRotateInfo@@V?$allocator@UNoticeRotateInfo@@@std@@@std@@@std@@QBEABV?$_Vector_val@U?$_Simple_types@UNoticeRotateInfo@@@std@@@2@XZ
_TEXT	SEGMENT
?_Get_data@?$_Vector_alloc@U?$_Vec_base_types@UNoticeRotateInfo@@V?$allocator@UNoticeRotateInfo@@@std@@@std@@@std@@QBEABV?$_Vector_val@U?$_Simple_types@UNoticeRotateInfo@@@std@@@2@XZ PROC ; std::_Vector_alloc<std::_Vec_base_types<NoticeRotateInfo,std::allocator<NoticeRotateInfo> > >::_Get_data, COMDAT
; _this$ = ecx

; 637  : 		return (_Mypair._Get_second());

  00000	8b c1		 mov	 eax, ecx

; 638  : 		}

  00002	c3		 ret	 0
?_Get_data@?$_Vector_alloc@U?$_Vec_base_types@UNoticeRotateInfo@@V?$allocator@UNoticeRotateInfo@@@std@@@std@@@std@@QBEABV?$_Vector_val@U?$_Simple_types@UNoticeRotateInfo@@@std@@@2@XZ ENDP ; std::_Vector_alloc<std::_Vec_base_types<NoticeRotateInfo,std::allocator<NoticeRotateInfo> > >::_Get_data
_TEXT	ENDS
; Function compile flags: /Ogtp
; File c:\program files (x86)\microsoft visual studio 14.0\vc\include\vector
;	COMDAT ?_Get_data@?$_Vector_alloc@U?$_Vec_base_types@UNoticeRotateInfo@@V?$allocator@UNoticeRotateInfo@@@std@@@std@@@std@@QAEAAV?$_Vector_val@U?$_Simple_types@UNoticeRotateInfo@@@std@@@2@XZ
_TEXT	SEGMENT
?_Get_data@?$_Vector_alloc@U?$_Vec_base_types@UNoticeRotateInfo@@V?$allocator@UNoticeRotateInfo@@@std@@@std@@@std@@QAEAAV?$_Vector_val@U?$_Simple_types@UNoticeRotateInfo@@@std@@@2@XZ PROC ; std::_Vector_alloc<std::_Vec_base_types<NoticeRotateInfo,std::allocator<NoticeRotateInfo> > >::_Get_data, COMDAT
; _this$ = ecx

; 632  : 		return (_Mypair._Get_second());

  00000	8b c1		 mov	 eax, ecx

; 633  : 		}

  00002	c3		 ret	 0
?_Get_data@?$_Vector_alloc@U?$_Vec_base_types@UNoticeRotateInfo@@V?$allocator@UNoticeRotateInfo@@@std@@@std@@@std@@QAEAAV?$_Vector_val@U?$_Simple_types@UNoticeRotateInfo@@@std@@@2@XZ ENDP ; std::_Vector_alloc<std::_Vec_base_types<NoticeRotateInfo,std::allocator<NoticeRotateInfo> > >::_Get_data
_TEXT	ENDS
; Function compile flags: /Ogtp
; File c:\program files (x86)\microsoft visual studio 14.0\vc\include\vector
;	COMDAT ?_Getal@?$_Vector_alloc@U?$_Vec_base_types@UNoticeRotateInfo@@V?$allocator@UNoticeRotateInfo@@@std@@@std@@@std@@QBEABU?$_Wrap_alloc@V?$allocator@UNoticeRotateInfo@@@std@@@2@XZ
_TEXT	SEGMENT
?_Getal@?$_Vector_alloc@U?$_Vec_base_types@UNoticeRotateInfo@@V?$allocator@UNoticeRotateInfo@@@std@@@std@@@std@@QBEABU?$_Wrap_alloc@V?$allocator@UNoticeRotateInfo@@@std@@@2@XZ PROC ; std::_Vector_alloc<std::_Vec_base_types<NoticeRotateInfo,std::allocator<NoticeRotateInfo> > >::_Getal, COMDAT
; _this$ = ecx

; 627  : 		return (_Mypair._Get_first());

  00000	8b c1		 mov	 eax, ecx

; 628  : 		}

  00002	c3		 ret	 0
?_Getal@?$_Vector_alloc@U?$_Vec_base_types@UNoticeRotateInfo@@V?$allocator@UNoticeRotateInfo@@@std@@@std@@@std@@QBEABU?$_Wrap_alloc@V?$allocator@UNoticeRotateInfo@@@std@@@2@XZ ENDP ; std::_Vector_alloc<std::_Vec_base_types<NoticeRotateInfo,std::allocator<NoticeRotateInfo> > >::_Getal
_TEXT	ENDS
; Function compile flags: /Ogtp
; File c:\program files (x86)\microsoft visual studio 14.0\vc\include\vector
;	COMDAT ?_Getal@?$_Vector_alloc@U?$_Vec_base_types@UNoticeRotateInfo@@V?$allocator@UNoticeRotateInfo@@@std@@@std@@@std@@QAEAAU?$_Wrap_alloc@V?$allocator@UNoticeRotateInfo@@@std@@@2@XZ
_TEXT	SEGMENT
?_Getal@?$_Vector_alloc@U?$_Vec_base_types@UNoticeRotateInfo@@V?$allocator@UNoticeRotateInfo@@@std@@@std@@@std@@QAEAAU?$_Wrap_alloc@V?$allocator@UNoticeRotateInfo@@@std@@@2@XZ PROC ; std::_Vector_alloc<std::_Vec_base_types<NoticeRotateInfo,std::allocator<NoticeRotateInfo> > >::_Getal, COMDAT
; _this$ = ecx

; 622  : 		return (_Mypair._Get_first());

  00000	8b c1		 mov	 eax, ecx

; 623  : 		}

  00002	c3		 ret	 0
?_Getal@?$_Vector_alloc@U?$_Vec_base_types@UNoticeRotateInfo@@V?$allocator@UNoticeRotateInfo@@@std@@@std@@@std@@QAEAAU?$_Wrap_alloc@V?$allocator@UNoticeRotateInfo@@@std@@@2@XZ ENDP ; std::_Vector_alloc<std::_Vec_base_types<NoticeRotateInfo,std::allocator<NoticeRotateInfo> > >::_Getal
_TEXT	ENDS
; Function compile flags: /Ogtp
; File c:\program files (x86)\microsoft visual studio 14.0\vc\include\vector
;	COMDAT ?_Swap_all@?$_Vector_alloc@U?$_Vec_base_types@UNoticeRotateInfo@@V?$allocator@UNoticeRotateInfo@@@std@@@std@@@std@@QAEXAAV12@@Z
_TEXT	SEGMENT
__Right$ = 8						; size = 4
?_Swap_all@?$_Vector_alloc@U?$_Vec_base_types@UNoticeRotateInfo@@V?$allocator@UNoticeRotateInfo@@@std@@@std@@@std@@QAEXAAV12@@Z PROC ; std::_Vector_alloc<std::_Vec_base_types<NoticeRotateInfo,std::allocator<NoticeRotateInfo> > >::_Swap_all, COMDAT
; _this$ = ecx

; 617  : 		_Get_data()._Swap_all(_Right._Get_data());
; 618  : 		}

  00000	c2 04 00	 ret	 4
?_Swap_all@?$_Vector_alloc@U?$_Vec_base_types@UNoticeRotateInfo@@V?$allocator@UNoticeRotateInfo@@@std@@@std@@@std@@QAEXAAV12@@Z ENDP ; std::_Vector_alloc<std::_Vec_base_types<NoticeRotateInfo,std::allocator<NoticeRotateInfo> > >::_Swap_all
_TEXT	ENDS
; Function compile flags: /Ogtp
; File c:\program files (x86)\microsoft visual studio 14.0\vc\include\vector
;	COMDAT ?_Orphan_all@?$_Vector_alloc@U?$_Vec_base_types@UNoticeRotateInfo@@V?$allocator@UNoticeRotateInfo@@@std@@@std@@@std@@QAEXXZ
_TEXT	SEGMENT
?_Orphan_all@?$_Vector_alloc@U?$_Vec_base_types@UNoticeRotateInfo@@V?$allocator@UNoticeRotateInfo@@@std@@@std@@@std@@QAEXXZ PROC ; std::_Vector_alloc<std::_Vec_base_types<NoticeRotateInfo,std::allocator<NoticeRotateInfo> > >::_Orphan_all, COMDAT
; _this$ = ecx

; 612  : 		_Get_data()._Orphan_all();
; 613  : 		}

  00000	c3		 ret	 0
?_Orphan_all@?$_Vector_alloc@U?$_Vec_base_types@UNoticeRotateInfo@@V?$allocator@UNoticeRotateInfo@@@std@@@std@@@std@@QAEXXZ ENDP ; std::_Vector_alloc<std::_Vec_base_types<NoticeRotateInfo,std::allocator<NoticeRotateInfo> > >::_Orphan_all
_TEXT	ENDS
; Function compile flags: /Ogtp
; File c:\program files (x86)\microsoft visual studio 14.0\vc\include\vector
;	COMDAT ?_Swap_alloc@?$_Vector_alloc@U?$_Vec_base_types@UNoticeRotateInfo@@V?$allocator@UNoticeRotateInfo@@@std@@@std@@@std@@QAEXAAV12@@Z
_TEXT	SEGMENT
__Right$ = 8						; size = 4
?_Swap_alloc@?$_Vector_alloc@U?$_Vec_base_types@UNoticeRotateInfo@@V?$allocator@UNoticeRotateInfo@@@std@@@std@@@std@@QAEXAAV12@@Z PROC ; std::_Vector_alloc<std::_Vec_base_types<NoticeRotateInfo,std::allocator<NoticeRotateInfo> > >::_Swap_alloc, COMDAT
; _this$ = ecx

; 534  : 		_Pocs(_Getal(), _Right._Getal());
; 535  : 		}

  00000	c2 04 00	 ret	 4
?_Swap_alloc@?$_Vector_alloc@U?$_Vec_base_types@UNoticeRotateInfo@@V?$allocator@UNoticeRotateInfo@@@std@@@std@@@std@@QAEXAAV12@@Z ENDP ; std::_Vector_alloc<std::_Vec_base_types<NoticeRotateInfo,std::allocator<NoticeRotateInfo> > >::_Swap_alloc
_TEXT	ENDS
; Function compile flags: /Ogtp
; File c:\program files (x86)\microsoft visual studio 14.0\vc\include\vector
;	COMDAT ??0?$_Vector_alloc@U?$_Vec_base_types@UNoticeRotateInfo@@V?$allocator@UNoticeRotateInfo@@@std@@@std@@@std@@QAE@ABV?$allocator@UNoticeRotateInfo@@@1@@Z
_TEXT	SEGMENT
__Al$ = 8						; size = 4
??0?$_Vector_alloc@U?$_Vec_base_types@UNoticeRotateInfo@@V?$allocator@UNoticeRotateInfo@@@std@@@std@@@std@@QAE@ABV?$allocator@UNoticeRotateInfo@@@1@@Z PROC ; std::_Vector_alloc<std::_Vec_base_types<NoticeRotateInfo,std::allocator<NoticeRotateInfo> > >::_Vector_alloc<std::_Vec_base_types<NoticeRotateInfo,std::allocator<NoticeRotateInfo> > >, COMDAT
; _this$ = ecx

; 480  : 		_Myfirst = pointer();

  00000	c7 01 00 00 00
	00		 mov	 DWORD PTR [ecx], 0

; 515  : 		}

  00006	8b c1		 mov	 eax, ecx

; 481  : 		_Mylast = pointer();

  00008	c7 41 04 00 00
	00 00		 mov	 DWORD PTR [ecx+4], 0

; 482  : 		_Myend = pointer();

  0000f	c7 41 08 00 00
	00 00		 mov	 DWORD PTR [ecx+8], 0

; 515  : 		}

  00016	c2 04 00	 ret	 4
??0?$_Vector_alloc@U?$_Vec_base_types@UNoticeRotateInfo@@V?$allocator@UNoticeRotateInfo@@@std@@@std@@@std@@QAE@ABV?$allocator@UNoticeRotateInfo@@@1@@Z ENDP ; std::_Vector_alloc<std::_Vec_base_types<NoticeRotateInfo,std::allocator<NoticeRotateInfo> > >::_Vector_alloc<std::_Vec_base_types<NoticeRotateInfo,std::allocator<NoticeRotateInfo> > >
_TEXT	ENDS
; Function compile flags: /Ogtp
; File c:\program files (x86)\microsoft visual studio 14.0\vc\include\xmemory0
;	COMDAT ?max_size@?$_Wrap_alloc@V?$allocator@UNoticeRotateInfo@@@std@@@std@@QBEIU_Nil@2@@Z
_TEXT	SEGMENT
___formal$ = 8						; size = 1
?max_size@?$_Wrap_alloc@V?$allocator@UNoticeRotateInfo@@@std@@@std@@QBEIU_Nil@2@@Z PROC ; std::_Wrap_alloc<std::allocator<NoticeRotateInfo> >::max_size, COMDAT
; _this$ = ecx

; 930  : 		return (_Mytraits::max_size(*this));

  00000	b8 97 d0 5e 02	 mov	 eax, 39768215		; 025ed097H

; 931  : 		}

  00005	c2 04 00	 ret	 4
?max_size@?$_Wrap_alloc@V?$allocator@UNoticeRotateInfo@@@std@@@std@@QBEIU_Nil@2@@Z ENDP ; std::_Wrap_alloc<std::allocator<NoticeRotateInfo> >::max_size
_TEXT	ENDS
; Function compile flags: /Ogtp
; File c:\program files (x86)\microsoft visual studio 14.0\vc\include\xmemory0
;	COMDAT ?deallocate@?$_Wrap_alloc@V?$allocator@UNoticeRotateInfo@@@std@@@std@@QAEXPAUNoticeRotateInfo@@I@Z
_TEXT	SEGMENT
__Ptr$ = 8						; size = 4
__Count$ = 12						; size = 4
?deallocate@?$_Wrap_alloc@V?$allocator@UNoticeRotateInfo@@@std@@@std@@QAEXPAUNoticeRotateInfo@@I@Z PROC ; std::_Wrap_alloc<std::allocator<NoticeRotateInfo> >::deallocate, COMDAT
; _this$ = ecx

; 908  : 		{	// deallocate object at _Ptr, ignore size

  00000	55		 push	 ebp
  00001	8b ec		 mov	 ebp, esp

; 100  : 	_SCL_SECURE_ALWAYS_VALIDATE(_Count <= (size_t)(-1) / _Sz);

  00003	8b 45 0c	 mov	 eax, DWORD PTR __Count$[ebp]

; 139  : 	}
; 140  : 
; 141  : 		// TEMPLATE FUNCTION _Construct
; 142  : template<class _Ty1,
; 143  : 	class _Ty2> inline
; 144  : 	void _Construct(_Ty1 *_Ptr, _Ty2&& _Val)
; 145  : 	{	// construct object at _Ptr with value _Val
; 146  : 	void *_Vptr = _Ptr;
; 147  : 	::new (_Vptr) _Ty1(_STD forward<_Ty2>(_Val));
; 148  : 	}
; 149  : 
; 150  : template<class _Ty1> inline
; 151  : 	void _Construct(_Ty1 *_Ptr)
; 152  : 	{	// construct object at _Ptr with default value
; 153  : 	void *_Vptr = _Ptr;
; 154  : 
; 155  : 	::new (_Vptr) _Ty1();
; 156  : 	}
; 157  : 
; 158  : 		// TEMPLATE FUNCTION _Destroy
; 159  : template<class _Ty> inline
; 160  : 	void _Destroy(_Ty *_Ptr)
; 161  : 	{	// destroy object at _Ptr
; 162  : 	_Ptr->~_Ty();
; 163  : 	}
; 164  : 
; 165  : 		// TEMPLATE FUNCTION _Destroy_range
; 166  : template<class _Alloc> inline
; 167  : 	void _Destroy_range(typename _Alloc::pointer _First,
; 168  : 		typename _Alloc::pointer _Last, _Alloc& _Al,
; 169  : 		_Nonscalar_ptr_iterator_tag)
; 170  : 	{	// destroy [_First, _Last), arbitrary type
; 171  : 	for (; _First != _Last; ++_First)
; 172  : 		_Al.destroy(_STD addressof(*_First));
; 173  : 	}
; 174  : 
; 175  : template<class _Alloc> inline
; 176  : 	void _Destroy_range(typename _Alloc::pointer _First,
; 177  : 		typename _Alloc::pointer _Last, _Alloc& _Al,
; 178  : 		_Scalar_ptr_iterator_tag)
; 179  : 	{	// destroy [_First, _Last), scalar type (do nothing)
; 180  : 	}
; 181  : 
; 182  : template<class _Alloc> inline
; 183  : 	void _Destroy_range(typename _Alloc::pointer _First,
; 184  : 		typename _Alloc::pointer _Last, _Alloc& _Al)
; 185  : 	{	// destroy [_First, _Last)
; 186  : 	_Destroy_range(_First, _Last, _Al, _Ptr_cat(_First, _Last));
; 187  : 	}
; 188  : 
; 189  : 		// TEMPLATE CLASS _Is_simple_alloc
; 190  : template<class _Alty>
; 191  : 	struct _Is_simple_alloc
; 192  : 		: _Cat_base<is_same<typename _Alty::size_type, size_t>::value
; 193  : 		&& is_same<typename _Alty::difference_type, ptrdiff_t>::value
; 194  : 		&& is_same<typename _Alty::pointer,
; 195  : 			typename _Alty::value_type *>::value
; 196  : 		&& is_same<typename _Alty::const_pointer,
; 197  : 			const typename _Alty::value_type *>::value
; 198  : 		&& is_same<typename _Alty::reference,
; 199  : 			typename _Alty::value_type&>::value
; 200  : 		&& is_same<typename _Alty::const_reference,
; 201  : 			const typename _Alty::value_type&>::value>
; 202  : 	{	// tests if allocator has simple addressing
; 203  : 	};
; 204  : 
; 205  : 		// TEMPLATE CLASS _Simple_types
; 206  : template<class _Value_type>
; 207  : 	struct _Simple_types
; 208  : 	{	// wraps types needed by iterators
; 209  : 	typedef _Value_type value_type;
; 210  : 	typedef size_t size_type;
; 211  : 	typedef ptrdiff_t difference_type;
; 212  : 	typedef value_type *pointer;
; 213  : 	typedef const value_type *const_pointer;
; 214  : 	typedef value_type& reference;
; 215  : 	typedef const value_type& const_reference;
; 216  : 	};
; 217  : 
; 218  : 		// TEMPLATE CLASS _Get_voidptr
; 219  : template<class _Alty,
; 220  : 	class _Pointer>
; 221  : 	struct _Get_voidptr
; 222  : 	{	// get void pointer for allocator
; 223  : 	typedef typename _Alty::template rebind<void>::other _Alvoid;
; 224  : 	typedef typename _Alvoid::pointer type;
; 225  : 	};
; 226  : 
; 227  : template<class _Alty,
; 228  : 	class _Ty>
; 229  : 	struct _Get_voidptr<_Alty, _Ty *>
; 230  : 	{	// get raw void pointer for allocator
; 231  : 	typedef void *type;
; 232  : 	};
; 233  : 
; 234  : 		// TEMPLATE STRUCT _Get_first_parameter
; 235  : template<class _Ty>
; 236  : 	struct _Get_first_parameter;
; 237  : 
; 238  : template<template<class, class...> class _Ty,
; 239  : 	class _First,
; 240  : 	class... _Rest>
; 241  : 	struct _Get_first_parameter<_Ty<_First, _Rest...> >
; 242  : 	{	// given _Ty<_First, _Rest...>, extract _First
; 243  : 	typedef _First type;
; 244  : 	};
; 245  : 
; 246  : 		// TEMPLATE STRUCT _Replace_first_parameter
; 247  : template<class _Newfirst,
; 248  : 	class _Ty>
; 249  : 	struct _Replace_first_parameter;
; 250  : 
; 251  : template<class _Newfirst,
; 252  : 	template<class, class...> class _Ty,
; 253  : 	class _First,
; 254  : 	class... _Rest>
; 255  : 	struct _Replace_first_parameter<_Newfirst, _Ty<_First, _Rest...> >
; 256  : 	{	// given _Ty<_First, _Rest...>, replace _First
; 257  : 	typedef _Ty<_Newfirst, _Rest...> type;
; 258  : 	};
; 259  : 
; 260  : 		// TEMPLATE STRUCT _Get_element_type
; 261  : template<class _Ty>
; 262  : 	struct _Get_element_type
; 263  : 	_GET_TYPE_OR_DEFAULT(element_type,
; 264  : 		typename _Get_first_parameter<_Uty>::type);
; 265  : 
; 266  : 		// TEMPLATE STRUCT _Get_ptr_difference_type
; 267  : template<class _Ty>
; 268  : 	struct _Get_ptr_difference_type
; 269  : 	_GET_TYPE_OR_DEFAULT(difference_type,
; 270  : 		ptrdiff_t);
; 271  : 
; 272  : 		// TEMPLATE STRUCT _Get_rebind_type
; 273  : template<class _Ty,
; 274  : 	class _Other>
; 275  : 	struct _Get_rebind_type
; 276  : 	_GET_TYPE_OR_DEFAULT(template rebind<_Other>::other,
; 277  : 		typename _Replace_first_parameter<_Other _COMMA _Uty>::type);
; 278  : 
; 279  : 		// TEMPLATE CLASS pointer_traits
; 280  : template<class _Ty>
; 281  : 	struct pointer_traits
; 282  : 	{	// defines traits for arbitrary pointers
; 283  : 	typedef typename _Get_element_type<_Ty>::type element_type;
; 284  : 	typedef _Ty pointer;
; 285  : 	typedef typename _Get_ptr_difference_type<_Ty>::type difference_type;
; 286  : 
; 287  : 	template<class _Other>
; 288  : 		using rebind = typename _Get_rebind_type<_Ty, _Other>::type;
; 289  : 
; 290  : 	typedef typename _If<is_void<element_type>::value,
; 291  : 		char&,
; 292  : 		typename add_lvalue_reference<element_type>::type>::type _Reftype;
; 293  : 
; 294  : 	static pointer pointer_to(_Reftype _Val)
; 295  : 		{	// convert raw reference to pointer
; 296  : 		return (_Ty::pointer_to(_Val));
; 297  : 		}
; 298  : 	};
; 299  : 
; 300  : 		// TEMPLATE CLASS pointer_traits<_Ty *>
; 301  : template<class _Ty>
; 302  : 	struct pointer_traits<_Ty *>
; 303  : 	{	// defines traits for raw pointers
; 304  : 	typedef _Ty element_type;
; 305  : 	typedef _Ty *pointer;
; 306  : 	typedef ptrdiff_t difference_type;
; 307  : 
; 308  : 	template<class _Other>
; 309  : 		using rebind = _Other *;
; 310  : 
; 311  : 	typedef typename _If<is_void<_Ty>::value,
; 312  : 		char&,
; 313  : 		typename add_lvalue_reference<_Ty>::type>::type _Reftype;
; 314  : 
; 315  : 	static pointer pointer_to(_Reftype _Val)
; 316  : 		{	// convert raw reference to pointer
; 317  : 		return (_STD addressof(_Val));
; 318  : 		}
; 319  : 	};
; 320  : 
; 321  : 		// TEMPLATE STRUCT _Get_pointer_type
; 322  : template<class _Ty>
; 323  : 	struct _Get_pointer_type
; 324  : 	_GET_TYPE_OR_DEFAULT(pointer,
; 325  : 		typename _Ty::value_type *);
; 326  : 
; 327  : 		// TEMPLATE STRUCT _Get_const_pointer_type
; 328  : template<class _Ty>
; 329  : 	struct _Get_const_pointer_type
; 330  : 	_GET_TYPE_OR_DEFAULT(const_pointer,
; 331  : 		typename pointer_traits<typename _Get_pointer_type<_Ty>::type>
; 332  : 			::template rebind<const typename _Ty::value_type>);
; 333  : 
; 334  : 		// TEMPLATE STRUCT _Get_void_pointer_type
; 335  : template<class _Ty>
; 336  : 	struct _Get_void_pointer_type
; 337  : 	_GET_TYPE_OR_DEFAULT(void_pointer,
; 338  : 		typename pointer_traits<typename _Get_pointer_type<_Ty>::type>
; 339  : 			::template rebind<void>);
; 340  : 
; 341  : 		// TEMPLATE STRUCT _Get_const_void_pointer_type
; 342  : template<class _Ty>
; 343  : 	struct _Get_const_void_pointer_type
; 344  : 	_GET_TYPE_OR_DEFAULT(const_void_pointer,
; 345  : 		typename pointer_traits<typename _Get_pointer_type<_Ty>::type>
; 346  : 			::template rebind<const void>);
; 347  : 
; 348  : 		// TEMPLATE STRUCT _Get_difference_type
; 349  : template<class _Ty>
; 350  : 	struct _Get_difference_type
; 351  : 	_GET_TYPE_OR_DEFAULT(difference_type,
; 352  : 		typename _Get_ptr_difference_type<
; 353  : 			typename _Get_pointer_type<_Ty>::type>::type);
; 354  : 
; 355  : 		// TEMPLATE STRUCT _Get_size_type
; 356  : template<class _Ty>
; 357  : 	struct _Get_size_type
; 358  : 	_GET_TYPE_OR_DEFAULT(size_type,
; 359  : 		typename make_unsigned<
; 360  : 			typename _Get_difference_type<_Ty>::type>::type);
; 361  : 
; 362  : 		// TEMPLATE STRUCT _Get_propagate_on_container_copy
; 363  : template<class _Ty>
; 364  : 	struct _Get_propagate_on_container_copy
; 365  : 	_GET_TYPE_OR_DEFAULT(propagate_on_container_copy_assignment,
; 366  : 		false_type);
; 367  : 
; 368  : 		// TEMPLATE STRUCT _Get_propagate_on_container_move
; 369  : template<class _Ty>
; 370  : 	struct _Get_propagate_on_container_move
; 371  : 	_GET_TYPE_OR_DEFAULT(propagate_on_container_move_assignment,
; 372  : 		false_type);
; 373  : 
; 374  : 		// TEMPLATE STRUCT _Get_propagate_on_container_swap
; 375  : template<class _Ty>
; 376  : 	struct _Get_propagate_on_container_swap
; 377  : 	_GET_TYPE_OR_DEFAULT(propagate_on_container_swap,
; 378  : 		false_type);
; 379  : 
; 380  : 		// TEMPLATE STRUCT _Get_is_always_equal
; 381  : template<class _Ty>
; 382  : 	struct _Get_is_always_equal
; 383  : 	_GET_TYPE_OR_DEFAULT(is_always_equal,
; 384  : 		typename is_empty<_Ty>::type);
; 385  : 
; 386  : 		// STRUCT _Alloc_allocate
; 387  : struct _Alloc_allocate
; 388  : 	{	// determines allocator_traits<_Alloc>
; 389  : 		// ::allocate(size_type, const_void_pointer)
; 390  : 
; 391  : 	template<class _Alloc,
; 392  : 		class _Size_type,
; 393  : 		class _Const_void_pointer>
; 394  : 		static auto _Fn(int, _Alloc& _Al,
; 395  : 			_Size_type _Count,
; 396  : 			_Const_void_pointer _Hint)
; 397  : 			-> decltype(_Al.allocate(_Count, _Hint))
; 398  : 		{	// call allocator supplied version
; 399  : 		return (_Al.allocate(_Count, _Hint));
; 400  : 		}
; 401  : 
; 402  : 	template<class _Alloc,
; 403  : 		class _Size_type,
; 404  : 		class _Const_void_pointer>
; 405  : 		static auto _Fn(_Wrap_int, _Alloc& _Al,
; 406  : 			_Size_type _Count,
; 407  : 			_Const_void_pointer)
; 408  : 			-> decltype(_Al.allocate(_Count))
; 409  : 		{	// call default version
; 410  : 		return (_Al.allocate(_Count));
; 411  : 		}
; 412  : 	};
; 413  : 
; 414  : 		// STRUCT _Alloc_construct
; 415  : struct _Alloc_construct
; 416  : 	{	// determines allocator_traits<_Ty>
; 417  : 		// ::construct(_Ty&, _Objty *, _Types&&...)
; 418  : 
; 419  : 	template<class _Ty,
; 420  : 		class _Objty,
; 421  : 		class... _Types>
; 422  : 		static auto _Fn(int, _Ty& _Al, _Objty *_Ptr,
; 423  : 			_Types&&... _Args)
; 424  : 			-> void_t<decltype(
; 425  : 				_Al.construct(_Ptr, _STD forward<_Types>(_Args)...))>
; 426  : 		{	// call allocator supplied version
; 427  : 		_Al.construct(_Ptr, _STD forward<_Types>(_Args)...);
; 428  : 		}
; 429  : 
; 430  : 	template<class _Ty,
; 431  : 		class _Objty,
; 432  : 		class... _Types>
; 433  : 		static void _Fn(_Wrap_int, _Ty&, _Objty *_Ptr,
; 434  : 			_Types&&... _Args)
; 435  : 		{	// call default version
; 436  : 		::new (static_cast<void *>(_Ptr))
; 437  : 			_Objty(_STD forward<_Types>(_Args)...);
; 438  : 		}
; 439  : 
; 440  : 	};
; 441  : 
; 442  : 		// STRUCT _Alloc_destroy
; 443  : struct _Alloc_destroy
; 444  : 	{	// determines allocator_traits<_Ty>::destroy(_Ty&, _Objty *)
; 445  : 	template<class _Ty,
; 446  : 		class _Objty>
; 447  : 		static auto _Fn(int, _Ty& _Al, _Objty *_Ptr)
; 448  : 			-> void_t<decltype(_Al.destroy(_Ptr))>
; 449  : 		{	// call allocator supplied version
; 450  : 		_Al.destroy(_Ptr);
; 451  : 		}
; 452  : 
; 453  : 	template<class _Ty,
; 454  : 		class _Objty>
; 455  : 		static void _Fn(_Wrap_int, _Ty&, _Objty *_Ptr)
; 456  : 		{	// call default version
; 457  : 		_Ptr->~_Objty();
; 458  : 		}
; 459  : 	};
; 460  : 
; 461  : 		// STRUCT _Alloc_max_size
; 462  : struct _Alloc_max_size
; 463  : 	{	// determines allocator_traits<_Ty>::max_size(const _Ty&)
; 464  : 	template<class _Ty>
; 465  : 		static auto _Fn(int, const _Ty& _Al) _NOEXCEPT
; 466  : 			-> decltype(_Al.max_size())
; 467  : 		{	// call allocator supplied version
; 468  : 		return (_Al.max_size());
; 469  : 		}
; 470  : 
; 471  : 	template<class _Ty>
; 472  : 		static auto _Fn(_Wrap_int, const _Ty&) _NOEXCEPT
; 473  : 			-> typename _Get_size_type<_Ty>::type
; 474  : 		{	// call default version
; 475  : 		return ((numeric_limits<typename _Get_size_type<_Ty>::type>::max)());
; 476  : 		}
; 477  : 	};
; 478  : 
; 479  : 		// STRUCT _Alloc_select
; 480  : struct _Alloc_select
; 481  : 	{	// determines allocator_traits<_Ty>
; 482  : 		// ::select_on_container_copy_construction(const _Alloc&)
; 483  : 
; 484  : 	template<class _Ty>
; 485  : 		static auto _Fn(int, const _Ty& _Al)
; 486  : 			-> decltype((_Ty)_Al.select_on_container_copy_construction())
; 487  : 		{	// call allocator supplied version
; 488  : 		return (_Al.select_on_container_copy_construction());
; 489  : 		}
; 490  : 
; 491  : 	template<class _Ty>
; 492  : 		static auto _Fn(_Wrap_int, const _Ty& _Al)
; 493  : 			-> _Ty
; 494  : 		{	// call default version
; 495  : 		return (_Al);
; 496  : 		}
; 497  : 	};
; 498  : 
; 499  : 		// TEMPLATE CLASS allocator_traits
; 500  : template<class _Alloc>
; 501  : 	struct allocator_traits
; 502  : 	{	// defines traits for allocators
; 503  : 	typedef _Alloc allocator_type;
; 504  : 	typedef typename _Alloc::value_type value_type;
; 505  : 
; 506  : 	typedef typename _Get_pointer_type<_Alloc>::type
; 507  : 		pointer;
; 508  : 	typedef typename _Get_const_pointer_type<_Alloc>::type
; 509  : 		const_pointer;
; 510  : 	typedef typename _Get_void_pointer_type<_Alloc>::type
; 511  : 		void_pointer;
; 512  : 	typedef typename _Get_const_void_pointer_type<_Alloc>::type
; 513  : 		const_void_pointer;
; 514  : 
; 515  : 	typedef typename _Get_size_type<_Alloc>::type size_type;
; 516  : 	typedef typename _Get_difference_type<_Alloc>::type difference_type;
; 517  : 
; 518  : 	typedef typename _Get_propagate_on_container_copy<_Alloc>::type
; 519  : 		propagate_on_container_copy_assignment;
; 520  : 	typedef typename _Get_propagate_on_container_move<_Alloc>::type
; 521  : 		propagate_on_container_move_assignment;
; 522  : 	typedef typename _Get_propagate_on_container_swap<_Alloc>::type
; 523  : 		propagate_on_container_swap;
; 524  : 	typedef typename _Get_is_always_equal<_Alloc>::type
; 525  : 		is_always_equal;
; 526  : 
; 527  : 	template<class _Other>
; 528  : 		using rebind_alloc = typename _Get_rebind_type<_Alloc, _Other>::type;
; 529  : 
; 530  : 	template<class _Other>
; 531  : 		using rebind_traits = allocator_traits<rebind_alloc<_Other> >;
; 532  : 
; 533  : 	static _DECLSPEC_ALLOCATOR pointer allocate(_Alloc& _Al, size_type _Count)
; 534  : 		{	// allocate array of _Count elements
; 535  : 		return (_Al.allocate(_Count));
; 536  : 		}
; 537  : 
; 538  : 	static _DECLSPEC_ALLOCATOR pointer allocate(_Alloc& _Al, size_type _Count,
; 539  : 		const_void_pointer _Hint)
; 540  : 		{	// allocate array of _Count elements, with hint
; 541  : 		return (_Alloc_allocate::_Fn(0, _Al, _Count, _Hint));
; 542  : 		}
; 543  : 
; 544  : 	static void deallocate(_Alloc& _Al,
; 545  : 		pointer _Ptr, size_type _Count)
; 546  : 		{	// deallocate _Count elements at _Ptr
; 547  : 		_Al.deallocate(_Ptr, _Count);
; 548  : 		}
; 549  : 
; 550  : 	template<class _Ty,
; 551  : 		class... _Types>
; 552  : 		static void construct(_Alloc& _Al, _Ty *_Ptr,
; 553  : 			_Types&&... _Args)
; 554  : 		{	// construct _Ty(_Types...) at _Ptr
; 555  : 		_Alloc_construct::_Fn(0, _Al, _Ptr,
; 556  : 			_STD forward<_Types>(_Args)...);
; 557  : 		}
; 558  : 
; 559  : 
; 560  : 	template<class _Ty>
; 561  : 		static void destroy(_Alloc& _Al, _Ty *_Ptr)
; 562  : 		{	// destroy object at _Ptr
; 563  : 		_Alloc_destroy::_Fn(0, _Al, _Ptr);
; 564  : 		}
; 565  : 
; 566  : 	static size_type max_size(const _Alloc& _Al) _NOEXCEPT
; 567  : 		{	// get maximum size
; 568  : 		return (_Alloc_max_size::_Fn(0, _Al));
; 569  : 		}
; 570  : 
; 571  : 	static _Alloc select_on_container_copy_construction(
; 572  : 		const _Alloc& _Al)
; 573  : 		{	// get allocator to use
; 574  : 		return (_Alloc_select::_Fn(0, _Al));
; 575  : 		}
; 576  : 	};
; 577  : 
; 578  : 		// TEMPLATE CLASS allocator
; 579  : template<class _Ty>
; 580  : 	class allocator
; 581  : 	{	// generic allocator for objects of class _Ty
; 582  : public:
; 583  : 	static_assert(!is_const<_Ty>::value,
; 584  : 		"The C++ Standard forbids containers of const elements "
; 585  : 		"because allocator<const T> is ill-formed.");
; 586  : 
; 587  : 	typedef _Ty value_type;
; 588  : 
; 589  : 	typedef value_type *pointer;
; 590  : 	typedef const value_type *const_pointer;
; 591  : 
; 592  : 	typedef value_type& reference;
; 593  : 	typedef const value_type& const_reference;
; 594  : 
; 595  : 	typedef size_t size_type;
; 596  : 	typedef ptrdiff_t difference_type;
; 597  : 
; 598  : 	typedef true_type propagate_on_container_move_assignment;
; 599  : 	typedef true_type is_always_equal;
; 600  : 
; 601  : 	template<class _Other>
; 602  : 		struct rebind
; 603  : 		{	// convert this type to allocator<_Other>
; 604  : 		typedef allocator<_Other> other;
; 605  : 		};
; 606  : 
; 607  : 	pointer address(reference _Val) const _NOEXCEPT
; 608  : 		{	// return address of mutable _Val
; 609  : 		return (_STD addressof(_Val));
; 610  : 		}
; 611  : 
; 612  : 	const_pointer address(const_reference _Val) const _NOEXCEPT
; 613  : 		{	// return address of nonmutable _Val
; 614  : 		return (_STD addressof(_Val));
; 615  : 		}
; 616  : 
; 617  : 	allocator() _THROW0()
; 618  : 		{	// construct default allocator (do nothing)
; 619  : 		}
; 620  : 
; 621  : 	allocator(const allocator<_Ty>&) _THROW0()
; 622  : 		{	// construct by copying (do nothing)
; 623  : 		}
; 624  : 
; 625  : 	template<class _Other>
; 626  : 		allocator(const allocator<_Other>&) _THROW0()
; 627  : 		{	// construct from a related allocator (do nothing)
; 628  : 		}
; 629  : 
; 630  : 	template<class _Other>
; 631  : 		allocator<_Ty>& operator=(const allocator<_Other>&)
; 632  : 		{	// assign from a related allocator (do nothing)
; 633  : 		return (*this);
; 634  : 		}
; 635  : 
; 636  : 	void deallocate(pointer _Ptr, size_type _Count)
; 637  : 		{	// deallocate object at _Ptr
; 638  : 		_Deallocate(_Ptr, _Count, sizeof (_Ty));

  00006	8b 4d 08	 mov	 ecx, DWORD PTR __Ptr$[ebp]

; 100  : 	_SCL_SECURE_ALWAYS_VALIDATE(_Count <= (size_t)(-1) / _Sz);

  00009	3d 97 d0 5e 02	 cmp	 eax, 39768215		; 025ed097H
  0000e	77 31		 ja	 SHORT $LN16@deallocate

; 101  : 	const size_t _User_size = _Count * _Sz;

  00010	6b c0 6c	 imul	 eax, eax, 108

; 102  : 	if (_BIG_ALLOCATION_THRESHOLD <= _User_size)

  00013	3d 00 10 00 00	 cmp	 eax, 4096		; 00001000H
  00018	72 1a		 jb	 SHORT $LN7@deallocate

; 103  : 		{	// deallocate large block
; 104  : 		const uintptr_t _Ptr_user = reinterpret_cast<uintptr_t>(_Ptr);
; 105  : 		_SCL_SECURE_ALWAYS_VALIDATE(

  0001a	f6 c1 1f	 test	 cl, 31			; 0000001fH
  0001d	75 27		 jne	 SHORT $LN18@deallocate

; 106  : 			(_Ptr_user & (_BIG_ALLOCATION_ALIGNMENT - 1)) == 0);
; 107  : 		const uintptr_t _Ptr_ptr = _Ptr_user - sizeof(void *);
; 108  : 		const uintptr_t _Ptr_container =
; 109  : 			*reinterpret_cast<uintptr_t *>(_Ptr_ptr);

  0001f	8b 41 fc	 mov	 eax, DWORD PTR [ecx-4]

; 110  : 
; 111  :  #ifdef _DEBUG
; 112  : 		// If the following asserts, it likely means that we are performing
; 113  : 		// an aligned delete on memory coming from an unaligned allocation.
; 114  : 		_SCL_SECURE_ALWAYS_VALIDATE(
; 115  : 			reinterpret_cast<uintptr_t *>(_Ptr_ptr)[-1] ==
; 116  : 				_BIG_ALLOCATION_SENTINEL);
; 117  :  #endif /* _DEBUG */
; 118  : 
; 119  : 		// Extra paranoia on aligned allocation/deallocation
; 120  : 		_SCL_SECURE_ALWAYS_VALIDATE(_Ptr_container < _Ptr_user);

  00022	3b c1		 cmp	 eax, ecx
  00024	73 25		 jae	 SHORT $LN19@deallocate

; 121  : 
; 122  :  #ifdef _DEBUG
; 123  : 		_SCL_SECURE_ALWAYS_VALIDATE(2 * sizeof(void *)
; 124  : 			<= _Ptr_user - _Ptr_container);
; 125  : 
; 126  :  #else /* _DEBUG */
; 127  : 		_SCL_SECURE_ALWAYS_VALIDATE(sizeof(void *)

  00026	2b c8		 sub	 ecx, eax
  00028	83 f9 04	 cmp	 ecx, 4
  0002b	72 23		 jb	 SHORT $LN20@deallocate

; 128  : 			<= _Ptr_user - _Ptr_container);
; 129  :  #endif /* _DEBUG */
; 130  : 
; 131  : 		_SCL_SECURE_ALWAYS_VALIDATE(_Ptr_user - _Ptr_container

  0002d	83 f9 23	 cmp	 ecx, 35			; 00000023H
  00030	77 23		 ja	 SHORT $LN21@deallocate

; 132  : 			<= _NON_USER_SIZE);
; 133  : 
; 134  : 		_Ptr = reinterpret_cast<void *>(_Ptr_container);

  00032	8b c8		 mov	 ecx, eax
$LN7@deallocate:

; 135  : 		}
; 136  :  #endif /* defined(_M_IX86) || defined(_M_X64) */
; 137  : 
; 138  : 	::operator delete(_Ptr);

  00034	51		 push	 ecx
  00035	e8 00 00 00 00	 call	 ??3@YAXPAX@Z		; operator delete
  0003a	83 c4 04	 add	 esp, 4

; 909  : 		_Mybase::deallocate(_Ptr, _Count);
; 910  : 		}

  0003d	5d		 pop	 ebp
  0003e	c2 08 00	 ret	 8
$LN16@deallocate:

; 100  : 	_SCL_SECURE_ALWAYS_VALIDATE(_Count <= (size_t)(-1) / _Sz);

  00041	e8 00 00 00 00	 call	 __invalid_parameter_noinfo_noreturn
$LN22@deallocate:
$LN18@deallocate:

; 103  : 		{	// deallocate large block
; 104  : 		const uintptr_t _Ptr_user = reinterpret_cast<uintptr_t>(_Ptr);
; 105  : 		_SCL_SECURE_ALWAYS_VALIDATE(

  00046	e8 00 00 00 00	 call	 __invalid_parameter_noinfo_noreturn
$LN23@deallocate:
$LN19@deallocate:

; 110  : 
; 111  :  #ifdef _DEBUG
; 112  : 		// If the following asserts, it likely means that we are performing
; 113  : 		// an aligned delete on memory coming from an unaligned allocation.
; 114  : 		_SCL_SECURE_ALWAYS_VALIDATE(
; 115  : 			reinterpret_cast<uintptr_t *>(_Ptr_ptr)[-1] ==
; 116  : 				_BIG_ALLOCATION_SENTINEL);
; 117  :  #endif /* _DEBUG */
; 118  : 
; 119  : 		// Extra paranoia on aligned allocation/deallocation
; 120  : 		_SCL_SECURE_ALWAYS_VALIDATE(_Ptr_container < _Ptr_user);

  0004b	e8 00 00 00 00	 call	 __invalid_parameter_noinfo_noreturn
$LN24@deallocate:
$LN20@deallocate:

; 121  : 
; 122  :  #ifdef _DEBUG
; 123  : 		_SCL_SECURE_ALWAYS_VALIDATE(2 * sizeof(void *)
; 124  : 			<= _Ptr_user - _Ptr_container);
; 125  : 
; 126  :  #else /* _DEBUG */
; 127  : 		_SCL_SECURE_ALWAYS_VALIDATE(sizeof(void *)

  00050	e8 00 00 00 00	 call	 __invalid_parameter_noinfo_noreturn
$LN25@deallocate:
$LN21@deallocate:

; 128  : 			<= _Ptr_user - _Ptr_container);
; 129  :  #endif /* _DEBUG */
; 130  : 
; 131  : 		_SCL_SECURE_ALWAYS_VALIDATE(_Ptr_user - _Ptr_container

  00055	e8 00 00 00 00	 call	 __invalid_parameter_noinfo_noreturn
$LN26@deallocate:
$LN15@deallocate:
  0005a	cc		 int	 3
?deallocate@?$_Wrap_alloc@V?$allocator@UNoticeRotateInfo@@@std@@@std@@QAEXPAUNoticeRotateInfo@@I@Z ENDP ; std::_Wrap_alloc<std::allocator<NoticeRotateInfo> >::deallocate
_TEXT	ENDS
; Function compile flags: /Ogtp
; File c:\program files (x86)\microsoft visual studio 14.0\vc\include\xmemory0
;	COMDAT ?allocate@?$_Wrap_alloc@V?$allocator@UNoticeRotateInfo@@@std@@@std@@QAEPAUNoticeRotateInfo@@I@Z
_TEXT	SEGMENT
__Count$ = 8						; size = 4
?allocate@?$_Wrap_alloc@V?$allocator@UNoticeRotateInfo@@@std@@@std@@QAEPAUNoticeRotateInfo@@I@Z PROC ; std::_Wrap_alloc<std::allocator<NoticeRotateInfo> >::allocate, COMDAT
; _this$ = ecx

; 897  : 		{	// allocate array of _Count elements

  00000	55		 push	 ebp
  00001	8b ec		 mov	 ebp, esp

; 899  : 		}

  00003	5d		 pop	 ebp

; 898  : 		return (_Mybase::allocate(_Count));

  00004	e9 00 00 00 00	 jmp	 ?allocate@?$allocator@UNoticeRotateInfo@@@std@@QAEPAUNoticeRotateInfo@@I@Z ; std::allocator<NoticeRotateInfo>::allocate
?allocate@?$_Wrap_alloc@V?$allocator@UNoticeRotateInfo@@@std@@@std@@QAEPAUNoticeRotateInfo@@I@Z ENDP ; std::_Wrap_alloc<std::allocator<NoticeRotateInfo> >::allocate
_TEXT	ENDS
; Function compile flags: /Ogtp
; File c:\program files (x86)\microsoft visual studio 14.0\vc\include\xmemory0
;	COMDAT ??0?$_Wrap_alloc@V?$allocator@UNoticeRotateInfo@@@std@@@std@@QAE@ABV?$allocator@UNoticeRotateInfo@@@1@@Z
_TEXT	SEGMENT
__Right$ = 8						; size = 4
??0?$_Wrap_alloc@V?$allocator@UNoticeRotateInfo@@@std@@@std@@QAE@ABV?$allocator@UNoticeRotateInfo@@@1@@Z PROC ; std::_Wrap_alloc<std::allocator<NoticeRotateInfo> >::_Wrap_alloc<std::allocator<NoticeRotateInfo> >, COMDAT
; _this$ = ecx

; 858  : 		}

  00000	8b c1		 mov	 eax, ecx
  00002	c2 04 00	 ret	 4
??0?$_Wrap_alloc@V?$allocator@UNoticeRotateInfo@@@std@@@std@@QAE@ABV?$allocator@UNoticeRotateInfo@@@1@@Z ENDP ; std::_Wrap_alloc<std::allocator<NoticeRotateInfo> >::_Wrap_alloc<std::allocator<NoticeRotateInfo> >
_TEXT	ENDS
; Function compile flags: /Ogtp
; File c:\program files (x86)\microsoft visual studio 14.0\vc\include\xmemory0
;	COMDAT ?max_size@?$allocator_traits@V?$allocator@UNoticeRotateInfo@@@std@@@std@@SAIABV?$allocator@UNoticeRotateInfo@@@2@@Z
_TEXT	SEGMENT
__Al$ = 8						; size = 4
?max_size@?$allocator_traits@V?$allocator@UNoticeRotateInfo@@@std@@@std@@SAIABV?$allocator@UNoticeRotateInfo@@@2@@Z PROC ; std::allocator_traits<std::allocator<NoticeRotateInfo> >::max_size, COMDAT

; 785  : 		return (_Al.max_size());

  00000	b8 97 d0 5e 02	 mov	 eax, 39768215		; 025ed097H

; 786  : 		}

  00005	c3		 ret	 0
?max_size@?$allocator_traits@V?$allocator@UNoticeRotateInfo@@@std@@@std@@SAIABV?$allocator@UNoticeRotateInfo@@@2@@Z ENDP ; std::allocator_traits<std::allocator<NoticeRotateInfo> >::max_size
_TEXT	ENDS
; Function compile flags: /Ogtp
; File c:\program files (x86)\microsoft visual studio 14.0\vc\include\xmemory0
;	COMDAT ?max_size@?$allocator@UNoticeRotateInfo@@@std@@QBEIXZ
_TEXT	SEGMENT
?max_size@?$allocator@UNoticeRotateInfo@@@std@@QBEIXZ PROC ; std::allocator<NoticeRotateInfo>::max_size, COMDAT
; _this$ = ecx

; 667  : 		return ((size_t)(-1) / sizeof (_Ty));

  00000	b8 97 d0 5e 02	 mov	 eax, 39768215		; 025ed097H

; 668  : 		}

  00005	c3		 ret	 0
?max_size@?$allocator@UNoticeRotateInfo@@@std@@QBEIXZ ENDP ; std::allocator<NoticeRotateInfo>::max_size
_TEXT	ENDS
; Function compile flags: /Ogtp
; File c:\program files (x86)\microsoft visual studio 14.0\vc\include\xmemory0
;	COMDAT ?allocate@?$allocator@UNoticeRotateInfo@@@std@@QAEPAUNoticeRotateInfo@@I@Z
_TEXT	SEGMENT
__Count$ = 8						; size = 4
?allocate@?$allocator@UNoticeRotateInfo@@@std@@QAEPAUNoticeRotateInfo@@I@Z PROC ; std::allocator<NoticeRotateInfo>::allocate, COMDAT
; _this$ = ecx

; 642  : 		{	// allocate array of _Count elements

  00000	55		 push	 ebp
  00001	8b ec		 mov	 ebp, esp

; 57   : 	if (_Count == 0)

  00003	8b 45 08	 mov	 eax, DWORD PTR __Count$[ebp]
  00006	85 c0		 test	 eax, eax
  00008	75 04		 jne	 SHORT $LN4@allocate
$LN12@allocate:

; 643  : 		return (static_cast<pointer>(_Allocate(_Count, sizeof (_Ty))));
; 644  : 		}

  0000a	5d		 pop	 ebp
  0000b	c2 04 00	 ret	 4
$LN4@allocate:

; 58   : 		return (_Ptr);
; 59   : 
; 60   : 	// check overflow of multiply
; 61   : 	if ((size_t)(-1) / _Sz < _Count)

  0000e	3d 97 d0 5e 02	 cmp	 eax, 39768215		; 025ed097H
  00013	77 3c		 ja	 SHORT $LN14@allocate

; 63   : 	const size_t _User_size = _Count * _Sz;

  00015	6b c0 6c	 imul	 eax, eax, 108

; 64   : 
; 65   :  #if defined(_M_IX86) || defined(_M_X64)
; 66   : 	if (_Try_aligned_allocation
; 67   : 		&& _BIG_ALLOCATION_THRESHOLD <= _User_size)

  00018	3d 00 10 00 00	 cmp	 eax, 4096		; 00001000H
  0001d	72 23		 jb	 SHORT $LN6@allocate

; 68   : 		{	// allocate large block
; 69   : 		static_assert(sizeof (void *) < _BIG_ALLOCATION_ALIGNMENT,
; 70   : 			"Big allocations should at least match vector register size");
; 71   : 		const size_t _Block_size = _NON_USER_SIZE + _User_size;

  0001f	8d 48 23	 lea	 ecx, DWORD PTR [eax+35]

; 72   : 		if (_Block_size <= _User_size)

  00022	3b c8		 cmp	 ecx, eax
  00024	76 30		 jbe	 SHORT $LN16@allocate

; 74   : 		const uintptr_t _Ptr_container =
; 75   : 			reinterpret_cast<uintptr_t>(::operator new(_Block_size));

  00026	51		 push	 ecx
  00027	e8 00 00 00 00	 call	 ??2@YAPAXI@Z		; operator new
  0002c	8b c8		 mov	 ecx, eax
  0002e	83 c4 04	 add	 esp, 4

; 76   : 		_SCL_SECURE_ALWAYS_VALIDATE(_Ptr_container != 0);

  00031	85 c9		 test	 ecx, ecx
  00033	74 26		 je	 SHORT $LN17@allocate

; 77   : 		_Ptr = reinterpret_cast<void *>((_Ptr_container + _NON_USER_SIZE)

  00035	8d 41 23	 lea	 eax, DWORD PTR [ecx+35]
  00038	83 e0 e0	 and	 eax, -32		; ffffffe0H

; 78   : 			& ~(_BIG_ALLOCATION_ALIGNMENT - 1));
; 79   : 		static_cast<uintptr_t *>(_Ptr)[-1] = _Ptr_container;

  0003b	89 48 fc	 mov	 DWORD PTR [eax-4], ecx

; 643  : 		return (static_cast<pointer>(_Allocate(_Count, sizeof (_Ty))));
; 644  : 		}

  0003e	5d		 pop	 ebp
  0003f	c2 04 00	 ret	 4
$LN6@allocate:

; 80   : 
; 81   :  #ifdef _DEBUG
; 82   : 		static_cast<uintptr_t *>(_Ptr)[-2] = _BIG_ALLOCATION_SENTINEL;
; 83   :  #endif /* _DEBUG */
; 84   : 		}
; 85   : 	else
; 86   :  #endif /* defined(_M_IX86) || defined(_M_X64) */
; 87   : 
; 88   : 		{	// allocate normal block
; 89   : 		_Ptr = ::operator new(_User_size);

  00042	50		 push	 eax
  00043	e8 00 00 00 00	 call	 ??2@YAPAXI@Z		; operator new
  00048	83 c4 04	 add	 esp, 4

; 90   : 		_SCL_SECURE_ALWAYS_VALIDATE(_Ptr != 0);

  0004b	85 c0		 test	 eax, eax
  0004d	75 bb		 jne	 SHORT $LN12@allocate
  0004f	eb 0f		 jmp	 SHORT $LN18@allocate
$LN14@allocate:

; 62   : 		_Xbad_alloc();	// report no memory

  00051	e8 00 00 00 00	 call	 ?_Xbad_alloc@std@@YAXXZ	; std::_Xbad_alloc
$LN19@allocate:
$LN16@allocate:

; 73   : 			_Xbad_alloc();	// report no memory

  00056	e8 00 00 00 00	 call	 ?_Xbad_alloc@std@@YAXXZ	; std::_Xbad_alloc
$LN20@allocate:
$LN17@allocate:

; 76   : 		_SCL_SECURE_ALWAYS_VALIDATE(_Ptr_container != 0);

  0005b	e8 00 00 00 00	 call	 __invalid_parameter_noinfo_noreturn
$LN21@allocate:
$LN18@allocate:

; 90   : 		_SCL_SECURE_ALWAYS_VALIDATE(_Ptr != 0);

  00060	e8 00 00 00 00	 call	 __invalid_parameter_noinfo_noreturn
$LN22@allocate:
$LN13@allocate:
  00065	cc		 int	 3
?allocate@?$allocator@UNoticeRotateInfo@@@std@@QAEPAUNoticeRotateInfo@@I@Z ENDP ; std::allocator<NoticeRotateInfo>::allocate
_TEXT	ENDS
; Function compile flags: /Ogtp
; File c:\program files (x86)\microsoft visual studio 14.0\vc\include\xmemory0
;	COMDAT ?deallocate@?$allocator@UNoticeRotateInfo@@@std@@QAEXPAUNoticeRotateInfo@@I@Z
_TEXT	SEGMENT
__Ptr$ = 8						; size = 4
__Count$ = 12						; size = 4
?deallocate@?$allocator@UNoticeRotateInfo@@@std@@QAEXPAUNoticeRotateInfo@@I@Z PROC ; std::allocator<NoticeRotateInfo>::deallocate, COMDAT
; _this$ = ecx

; 637  : 		{	// deallocate object at _Ptr

  00000	55		 push	 ebp
  00001	8b ec		 mov	 ebp, esp

; 100  : 	_SCL_SECURE_ALWAYS_VALIDATE(_Count <= (size_t)(-1) / _Sz);

  00003	8b 45 0c	 mov	 eax, DWORD PTR __Count$[ebp]

; 638  : 		_Deallocate(_Ptr, _Count, sizeof (_Ty));

  00006	8b 4d 08	 mov	 ecx, DWORD PTR __Ptr$[ebp]

; 100  : 	_SCL_SECURE_ALWAYS_VALIDATE(_Count <= (size_t)(-1) / _Sz);

  00009	3d 97 d0 5e 02	 cmp	 eax, 39768215		; 025ed097H
  0000e	77 31		 ja	 SHORT $LN13@deallocate

; 101  : 	const size_t _User_size = _Count * _Sz;

  00010	6b c0 6c	 imul	 eax, eax, 108

; 102  : 	if (_BIG_ALLOCATION_THRESHOLD <= _User_size)

  00013	3d 00 10 00 00	 cmp	 eax, 4096		; 00001000H
  00018	72 1a		 jb	 SHORT $LN5@deallocate

; 103  : 		{	// deallocate large block
; 104  : 		const uintptr_t _Ptr_user = reinterpret_cast<uintptr_t>(_Ptr);
; 105  : 		_SCL_SECURE_ALWAYS_VALIDATE(

  0001a	f6 c1 1f	 test	 cl, 31			; 0000001fH
  0001d	75 27		 jne	 SHORT $LN15@deallocate

; 106  : 			(_Ptr_user & (_BIG_ALLOCATION_ALIGNMENT - 1)) == 0);
; 107  : 		const uintptr_t _Ptr_ptr = _Ptr_user - sizeof(void *);
; 108  : 		const uintptr_t _Ptr_container =
; 109  : 			*reinterpret_cast<uintptr_t *>(_Ptr_ptr);

  0001f	8b 41 fc	 mov	 eax, DWORD PTR [ecx-4]

; 110  : 
; 111  :  #ifdef _DEBUG
; 112  : 		// If the following asserts, it likely means that we are performing
; 113  : 		// an aligned delete on memory coming from an unaligned allocation.
; 114  : 		_SCL_SECURE_ALWAYS_VALIDATE(
; 115  : 			reinterpret_cast<uintptr_t *>(_Ptr_ptr)[-1] ==
; 116  : 				_BIG_ALLOCATION_SENTINEL);
; 117  :  #endif /* _DEBUG */
; 118  : 
; 119  : 		// Extra paranoia on aligned allocation/deallocation
; 120  : 		_SCL_SECURE_ALWAYS_VALIDATE(_Ptr_container < _Ptr_user);

  00022	3b c1		 cmp	 eax, ecx
  00024	73 25		 jae	 SHORT $LN16@deallocate

; 121  : 
; 122  :  #ifdef _DEBUG
; 123  : 		_SCL_SECURE_ALWAYS_VALIDATE(2 * sizeof(void *)
; 124  : 			<= _Ptr_user - _Ptr_container);
; 125  : 
; 126  :  #else /* _DEBUG */
; 127  : 		_SCL_SECURE_ALWAYS_VALIDATE(sizeof(void *)

  00026	2b c8		 sub	 ecx, eax
  00028	83 f9 04	 cmp	 ecx, 4
  0002b	72 23		 jb	 SHORT $LN17@deallocate

; 128  : 			<= _Ptr_user - _Ptr_container);
; 129  :  #endif /* _DEBUG */
; 130  : 
; 131  : 		_SCL_SECURE_ALWAYS_VALIDATE(_Ptr_user - _Ptr_container

  0002d	83 f9 23	 cmp	 ecx, 35			; 00000023H
  00030	77 23		 ja	 SHORT $LN18@deallocate

; 132  : 			<= _NON_USER_SIZE);
; 133  : 
; 134  : 		_Ptr = reinterpret_cast<void *>(_Ptr_container);

  00032	8b c8		 mov	 ecx, eax
$LN5@deallocate:

; 135  : 		}
; 136  :  #endif /* defined(_M_IX86) || defined(_M_X64) */
; 137  : 
; 138  : 	::operator delete(_Ptr);

  00034	51		 push	 ecx
  00035	e8 00 00 00 00	 call	 ??3@YAXPAX@Z		; operator delete
  0003a	83 c4 04	 add	 esp, 4

; 639  : 		}

  0003d	5d		 pop	 ebp
  0003e	c2 08 00	 ret	 8
$LN13@deallocate:

; 100  : 	_SCL_SECURE_ALWAYS_VALIDATE(_Count <= (size_t)(-1) / _Sz);

  00041	e8 00 00 00 00	 call	 __invalid_parameter_noinfo_noreturn
$LN19@deallocate:
$LN15@deallocate:

; 103  : 		{	// deallocate large block
; 104  : 		const uintptr_t _Ptr_user = reinterpret_cast<uintptr_t>(_Ptr);
; 105  : 		_SCL_SECURE_ALWAYS_VALIDATE(

  00046	e8 00 00 00 00	 call	 __invalid_parameter_noinfo_noreturn
$LN20@deallocate:
$LN16@deallocate:

; 110  : 
; 111  :  #ifdef _DEBUG
; 112  : 		// If the following asserts, it likely means that we are performing
; 113  : 		// an aligned delete on memory coming from an unaligned allocation.
; 114  : 		_SCL_SECURE_ALWAYS_VALIDATE(
; 115  : 			reinterpret_cast<uintptr_t *>(_Ptr_ptr)[-1] ==
; 116  : 				_BIG_ALLOCATION_SENTINEL);
; 117  :  #endif /* _DEBUG */
; 118  : 
; 119  : 		// Extra paranoia on aligned allocation/deallocation
; 120  : 		_SCL_SECURE_ALWAYS_VALIDATE(_Ptr_container < _Ptr_user);

  0004b	e8 00 00 00 00	 call	 __invalid_parameter_noinfo_noreturn
$LN21@deallocate:
$LN17@deallocate:

; 121  : 
; 122  :  #ifdef _DEBUG
; 123  : 		_SCL_SECURE_ALWAYS_VALIDATE(2 * sizeof(void *)
; 124  : 			<= _Ptr_user - _Ptr_container);
; 125  : 
; 126  :  #else /* _DEBUG */
; 127  : 		_SCL_SECURE_ALWAYS_VALIDATE(sizeof(void *)

  00050	e8 00 00 00 00	 call	 __invalid_parameter_noinfo_noreturn
$LN22@deallocate:
$LN18@deallocate:

; 128  : 			<= _Ptr_user - _Ptr_container);
; 129  :  #endif /* _DEBUG */
; 130  : 
; 131  : 		_SCL_SECURE_ALWAYS_VALIDATE(_Ptr_user - _Ptr_container

  00055	e8 00 00 00 00	 call	 __invalid_parameter_noinfo_noreturn
$LN23@deallocate:
$LN12@deallocate:
  0005a	cc		 int	 3
?deallocate@?$allocator@UNoticeRotateInfo@@@std@@QAEXPAUNoticeRotateInfo@@I@Z ENDP ; std::allocator<NoticeRotateInfo>::deallocate
_TEXT	ENDS
; Function compile flags: /Ogtp
; File c:\program files (x86)\microsoft visual studio 14.0\vc\include\xmemory0
;	COMDAT ??0?$allocator@UNoticeRotateInfo@@@std@@QAE@ABV01@@Z
_TEXT	SEGMENT
___formal$ = 8						; size = 4
??0?$allocator@UNoticeRotateInfo@@@std@@QAE@ABV01@@Z PROC ; std::allocator<NoticeRotateInfo>::allocator<NoticeRotateInfo>, COMDAT
; _this$ = ecx

; 622  : 		{	// construct by copying (do nothing)
; 623  : 		}

  00000	8b c1		 mov	 eax, ecx
  00002	c2 04 00	 ret	 4
??0?$allocator@UNoticeRotateInfo@@@std@@QAE@ABV01@@Z ENDP ; std::allocator<NoticeRotateInfo>::allocator<NoticeRotateInfo>
_TEXT	ENDS
; Function compile flags: /Ogtp
; File c:\program files (x86)\microsoft visual studio 14.0\vc\include\xmemory0
;	COMDAT ??0?$allocator@UNoticeRotateInfo@@@std@@QAE@XZ
_TEXT	SEGMENT
??0?$allocator@UNoticeRotateInfo@@@std@@QAE@XZ PROC	; std::allocator<NoticeRotateInfo>::allocator<NoticeRotateInfo>, COMDAT
; _this$ = ecx

; 618  : 		{	// construct default allocator (do nothing)
; 619  : 		}

  00000	8b c1		 mov	 eax, ecx
  00002	c3		 ret	 0
??0?$allocator@UNoticeRotateInfo@@@std@@QAE@XZ ENDP	; std::allocator<NoticeRotateInfo>::allocator<NoticeRotateInfo>
_TEXT	ENDS
; Function compile flags: /Ogtp
; File c:\program files (x86)\microsoft visual studio 14.0\vc\include\vector
;	COMDAT ?_Orphan_range@?$vector@UNoticeConnectInfo@@V?$allocator@UNoticeConnectInfo@@@std@@@std@@IBEXPAUNoticeConnectInfo@@0@Z
_TEXT	SEGMENT
___formal$ = 8						; size = 4
___formal$ = 12						; size = 4
?_Orphan_range@?$vector@UNoticeConnectInfo@@V?$allocator@UNoticeConnectInfo@@@std@@@std@@IBEXPAUNoticeConnectInfo@@0@Z PROC ; std::vector<NoticeConnectInfo,std::allocator<NoticeConnectInfo> >::_Orphan_range, COMDAT
; _this$ = ecx

; 1813 : 		}

  00000	c2 08 00	 ret	 8
?_Orphan_range@?$vector@UNoticeConnectInfo@@V?$allocator@UNoticeConnectInfo@@@std@@@std@@IBEXPAUNoticeConnectInfo@@0@Z ENDP ; std::vector<NoticeConnectInfo,std::allocator<NoticeConnectInfo> >::_Orphan_range
_TEXT	ENDS
; Function compile flags: /Ogtp
; File c:\program files (x86)\microsoft visual studio 14.0\vc\include\vector
;	COMDAT ?_Xlen@?$vector@UNoticeConnectInfo@@V?$allocator@UNoticeConnectInfo@@@std@@@std@@IBEXXZ
_TEXT	SEGMENT
?_Xlen@?$vector@UNoticeConnectInfo@@V?$allocator@UNoticeConnectInfo@@@std@@@std@@IBEXXZ PROC ; std::vector<NoticeConnectInfo,std::allocator<NoticeConnectInfo> >::_Xlen, COMDAT
; _this$ = ecx

; 1784 : 		_Xlength_error("vector<T> too long");

  00000	68 00 00 00 00	 push	 OFFSET ??_C@_0BD@OLBABOEK@vector?$DMT?$DO?5too?5long?$AA@
  00005	e8 00 00 00 00	 call	 ?_Xlength_error@std@@YAXPBD@Z ; std::_Xlength_error
$LN4@Xlen:
$LN3@Xlen:
  0000a	cc		 int	 3
?_Xlen@?$vector@UNoticeConnectInfo@@V?$allocator@UNoticeConnectInfo@@@std@@@std@@IBEXXZ ENDP ; std::vector<NoticeConnectInfo,std::allocator<NoticeConnectInfo> >::_Xlen
_TEXT	ENDS
; Function compile flags: /Ogtp
; File c:\program files (x86)\microsoft visual studio 14.0\vc\include\vector
;	COMDAT ?_Tidy@?$vector@UNoticeConnectInfo@@V?$allocator@UNoticeConnectInfo@@@std@@@std@@IAEXXZ
_TEXT	SEGMENT
?_Tidy@?$vector@UNoticeConnectInfo@@V?$allocator@UNoticeConnectInfo@@@std@@@std@@IAEXXZ PROC ; std::vector<NoticeConnectInfo,std::allocator<NoticeConnectInfo> >::_Tidy, COMDAT
; _this$ = ecx

; 1655 : 		{	// free all storage

  00000	56		 push	 esi
  00001	8b f1		 mov	 esi, ecx

; 1656 : 		if (this->_Myfirst() != pointer())

  00003	8b 0e		 mov	 ecx, DWORD PTR [esi]
  00005	85 c9		 test	 ecx, ecx
  00007	74 33		 je	 SHORT $LN2@Tidy

; 1657 : 			{	// something to free, destroy and deallocate it
; 1658 : 			this->_Orphan_all();
; 1659 : 			_Destroy(this->_Myfirst(), this->_Mylast());
; 1660 : 			this->_Getal().deallocate(this->_Myfirst(),

  00009	8b 56 08	 mov	 edx, DWORD PTR [esi+8]
  0000c	b8 cb f0 8d 28	 mov	 eax, 680390859		; 288df0cbH
  00011	2b d1		 sub	 edx, ecx
  00013	f7 ea		 imul	 edx
  00015	c1 fa 04	 sar	 edx, 4
  00018	8b c2		 mov	 eax, edx
  0001a	c1 e8 1f	 shr	 eax, 31			; 0000001fH
  0001d	03 c2		 add	 eax, edx
  0001f	50		 push	 eax
  00020	51		 push	 ecx
  00021	8b ce		 mov	 ecx, esi
  00023	e8 00 00 00 00	 call	 ?deallocate@?$_Wrap_alloc@V?$allocator@UNoticeConnectInfo@@@std@@@std@@QAEXPAUNoticeConnectInfo@@I@Z ; std::_Wrap_alloc<std::allocator<NoticeConnectInfo> >::deallocate

; 1661 : 				this->_Myend() - this->_Myfirst());
; 1662 : 			this->_Myfirst() = pointer();

  00028	c7 06 00 00 00
	00		 mov	 DWORD PTR [esi], 0

; 1663 : 			this->_Mylast() = pointer();

  0002e	c7 46 04 00 00
	00 00		 mov	 DWORD PTR [esi+4], 0

; 1664 : 			this->_Myend() = pointer();

  00035	c7 46 08 00 00
	00 00		 mov	 DWORD PTR [esi+8], 0
$LN2@Tidy:
  0003c	5e		 pop	 esi

; 1665 : 			}
; 1666 : 		}

  0003d	c3		 ret	 0
?_Tidy@?$vector@UNoticeConnectInfo@@V?$allocator@UNoticeConnectInfo@@@std@@@std@@IAEXXZ ENDP ; std::vector<NoticeConnectInfo,std::allocator<NoticeConnectInfo> >::_Tidy
_TEXT	ENDS
; Function compile flags: /Ogtp
; File c:\program files (x86)\microsoft visual studio 14.0\vc\include\vector
;	COMDAT ?_Reserve@?$vector@UNoticeConnectInfo@@V?$allocator@UNoticeConnectInfo@@@std@@@std@@IAEXI@Z
_TEXT	SEGMENT
tv202 = 8						; size = 4
__Count$ = 8						; size = 4
?_Reserve@?$vector@UNoticeConnectInfo@@V?$allocator@UNoticeConnectInfo@@@std@@@std@@IAEXI@Z PROC ; std::vector<NoticeConnectInfo,std::allocator<NoticeConnectInfo> >::_Reserve, COMDAT
; _this$ = ecx

; 1645 : 		{	// ensure room for _Count new elements, grow exponentially

  00000	55		 push	 ebp
  00001	8b ec		 mov	 ebp, esp
  00003	53		 push	 ebx
  00004	8b d9		 mov	 ebx, ecx

; 1043 : 		}
; 1044 : 
; 1045 : 	size_type _Unused_capacity() const _NOEXCEPT
; 1046 : 		{	// micro-optimization for capacity() - size()
; 1047 : 		return (this->_Myend() - this->_Mylast());

  00006	b8 cb f0 8d 28	 mov	 eax, 680390859		; 288df0cbH
  0000b	56		 push	 esi
  0000c	57		 push	 edi

; 1646 : 		if (_Unused_capacity() < _Count)

  0000d	8b 7d 08	 mov	 edi, DWORD PTR __Count$[ebp]

; 1043 : 		}
; 1044 : 
; 1045 : 	size_type _Unused_capacity() const _NOEXCEPT
; 1046 : 		{	// micro-optimization for capacity() - size()
; 1047 : 		return (this->_Myend() - this->_Mylast());

  00010	8b 53 08	 mov	 edx, DWORD PTR [ebx+8]
  00013	8b 73 04	 mov	 esi, DWORD PTR [ebx+4]
  00016	2b d6		 sub	 edx, esi
  00018	f7 ea		 imul	 edx
  0001a	c1 fa 04	 sar	 edx, 4
  0001d	8b c2		 mov	 eax, edx
  0001f	c1 e8 1f	 shr	 eax, 31			; 0000001fH
  00022	03 c2		 add	 eax, edx

; 1646 : 		if (_Unused_capacity() < _Count)

  00024	3b c7		 cmp	 eax, edi
  00026	73 61		 jae	 SHORT $LN2@Reserve

; 1048 : 		}
; 1049 : 
; 1050 : 	size_type _Has_unused_capacity() const _NOEXCEPT
; 1051 : 		{	// micro-optimization for capacity() != size()
; 1052 : 		return (this->_Myend() != this->_Mylast());
; 1053 : 		}
; 1054 : 
; 1055 : 	iterator begin() _NOEXCEPT
; 1056 : 		{	// return iterator for beginning of mutable sequence
; 1057 : 		return (iterator(this->_Myfirst(), &this->_Get_data()));
; 1058 : 		}
; 1059 : 
; 1060 : 	const_iterator begin() const _NOEXCEPT
; 1061 : 		{	// return iterator for beginning of nonmutable sequence
; 1062 : 		return (const_iterator(this->_Myfirst(), &this->_Get_data()));
; 1063 : 		}
; 1064 : 
; 1065 : 	iterator end() _NOEXCEPT
; 1066 : 		{	// return iterator for end of mutable sequence
; 1067 : 		return (iterator(this->_Mylast(), &this->_Get_data()));
; 1068 : 		}
; 1069 : 
; 1070 : 	const_iterator end() const _NOEXCEPT
; 1071 : 		{	// return iterator for end of nonmutable sequence
; 1072 : 		return (const_iterator(this->_Mylast(), &this->_Get_data()));
; 1073 : 		}
; 1074 : 
; 1075 : 	iterator _Make_iter(const_iterator _Where) const
; 1076 : 		{	// make iterator from const_iterator
; 1077 : 		return (iterator(_Where._Ptr, &this->_Get_data()));
; 1078 : 		}
; 1079 : 
; 1080 : 	reverse_iterator rbegin() _NOEXCEPT
; 1081 : 		{	// return iterator for beginning of reversed mutable sequence
; 1082 : 		return (reverse_iterator(end()));
; 1083 : 		}
; 1084 : 
; 1085 : 	const_reverse_iterator rbegin() const _NOEXCEPT
; 1086 : 		{	// return iterator for beginning of reversed nonmutable sequence
; 1087 : 		return (const_reverse_iterator(end()));
; 1088 : 		}
; 1089 : 
; 1090 : 	reverse_iterator rend() _NOEXCEPT
; 1091 : 		{	// return iterator for end of reversed mutable sequence
; 1092 : 		return (reverse_iterator(begin()));
; 1093 : 		}
; 1094 : 
; 1095 : 	const_reverse_iterator rend() const _NOEXCEPT
; 1096 : 		{	// return iterator for end of reversed nonmutable sequence
; 1097 : 		return (const_reverse_iterator(begin()));
; 1098 : 		}
; 1099 : 
; 1100 : 	const_iterator cbegin() const _NOEXCEPT
; 1101 : 		{	// return iterator for beginning of nonmutable sequence
; 1102 : 		return (begin());
; 1103 : 		}
; 1104 : 
; 1105 : 	const_iterator cend() const _NOEXCEPT
; 1106 : 		{	// return iterator for end of nonmutable sequence
; 1107 : 		return (end());
; 1108 : 		}
; 1109 : 
; 1110 : 	const_reverse_iterator crbegin() const _NOEXCEPT
; 1111 : 		{	// return iterator for beginning of reversed nonmutable sequence
; 1112 : 		return (rbegin());
; 1113 : 		}
; 1114 : 
; 1115 : 	const_reverse_iterator crend() const _NOEXCEPT
; 1116 : 		{	// return iterator for end of reversed nonmutable sequence
; 1117 : 		return (rend());
; 1118 : 		}
; 1119 : 
; 1120 : 	void shrink_to_fit()
; 1121 : 		{	// reduce capacity
; 1122 : 		if (_Has_unused_capacity())
; 1123 : 			{	// worth shrinking, do it
; 1124 : 			if (empty())
; 1125 : 				_Tidy();
; 1126 : 			else
; 1127 : 				_Reallocate(size());
; 1128 : 			}
; 1129 : 		}
; 1130 : 
; 1131 : 	void resize(size_type _Newsize)
; 1132 : 		{	// determine new length, padding as needed
; 1133 : 		if (_Newsize < size())
; 1134 : 			_Pop_back_n(size() - _Newsize);
; 1135 : 		else if (size() < _Newsize)
; 1136 : 			{	// pad as needed
; 1137 : 			_Reserve(_Newsize - size());
; 1138 : 			_TRY_BEGIN
; 1139 : 			_Uninitialized_default_fill_n(this->_Mylast(), _Newsize - size(),
; 1140 : 				this->_Getal());
; 1141 : 			_CATCH_ALL
; 1142 : 			_Tidy();
; 1143 : 			_RERAISE;
; 1144 : 			_CATCH_END
; 1145 : 			this->_Mylast() += _Newsize - size();
; 1146 : 			}
; 1147 : 		}
; 1148 : 
; 1149 : 	void resize(size_type _Newsize, const value_type& _Val)
; 1150 : 		{	// determine new length, padding with _Val elements as needed
; 1151 : 		if (_Newsize < size())
; 1152 : 			_Pop_back_n(size() - _Newsize);
; 1153 : 		else if (size() < _Newsize)
; 1154 : 			{	// pad as needed
; 1155 : 			const value_type *_Ptr = _STD addressof(_Val);
; 1156 : 
; 1157 : 			if (_Inside(_Ptr))
; 1158 : 				{	// padding is inside vector, recompute _Ptr after reserve
; 1159 : 				const difference_type _Idx = _Ptr
; 1160 : 					- _STD addressof(*this->_Myfirst());
; 1161 : 				_Reserve(_Newsize - size());
; 1162 : 				_Ptr = _STD addressof(*this->_Myfirst()) + _Idx;
; 1163 : 				}
; 1164 : 			else
; 1165 : 				_Reserve(_Newsize - size());
; 1166 : 
; 1167 : 			_TRY_BEGIN
; 1168 : 			_Ufill(this->_Mylast(), _Newsize - size(), _Ptr);
; 1169 : 			_CATCH_ALL
; 1170 : 			_Tidy();
; 1171 : 			_RERAISE;
; 1172 : 			_CATCH_END
; 1173 : 			this->_Mylast() += _Newsize - size();
; 1174 : 			}
; 1175 : 		}
; 1176 : 
; 1177 : 	size_type size() const _NOEXCEPT
; 1178 : 		{	// return length of sequence
; 1179 : 		return (this->_Mylast() - this->_Myfirst());

  00028	8b 03		 mov	 eax, DWORD PTR [ebx]
  0002a	2b f0		 sub	 esi, eax
  0002c	89 45 08	 mov	 DWORD PTR tv202[ebp], eax
  0002f	b8 cb f0 8d 28	 mov	 eax, 680390859		; 288df0cbH
  00034	f7 ee		 imul	 esi

; 1647 : 			{	// need more room, try to get it
; 1648 : 			if (max_size() - size() < _Count)

  00036	b8 0c df 88 02	 mov	 eax, 42524428		; 0288df0cH

; 1048 : 		}
; 1049 : 
; 1050 : 	size_type _Has_unused_capacity() const _NOEXCEPT
; 1051 : 		{	// micro-optimization for capacity() != size()
; 1052 : 		return (this->_Myend() != this->_Mylast());
; 1053 : 		}
; 1054 : 
; 1055 : 	iterator begin() _NOEXCEPT
; 1056 : 		{	// return iterator for beginning of mutable sequence
; 1057 : 		return (iterator(this->_Myfirst(), &this->_Get_data()));
; 1058 : 		}
; 1059 : 
; 1060 : 	const_iterator begin() const _NOEXCEPT
; 1061 : 		{	// return iterator for beginning of nonmutable sequence
; 1062 : 		return (const_iterator(this->_Myfirst(), &this->_Get_data()));
; 1063 : 		}
; 1064 : 
; 1065 : 	iterator end() _NOEXCEPT
; 1066 : 		{	// return iterator for end of mutable sequence
; 1067 : 		return (iterator(this->_Mylast(), &this->_Get_data()));
; 1068 : 		}
; 1069 : 
; 1070 : 	const_iterator end() const _NOEXCEPT
; 1071 : 		{	// return iterator for end of nonmutable sequence
; 1072 : 		return (const_iterator(this->_Mylast(), &this->_Get_data()));
; 1073 : 		}
; 1074 : 
; 1075 : 	iterator _Make_iter(const_iterator _Where) const
; 1076 : 		{	// make iterator from const_iterator
; 1077 : 		return (iterator(_Where._Ptr, &this->_Get_data()));
; 1078 : 		}
; 1079 : 
; 1080 : 	reverse_iterator rbegin() _NOEXCEPT
; 1081 : 		{	// return iterator for beginning of reversed mutable sequence
; 1082 : 		return (reverse_iterator(end()));
; 1083 : 		}
; 1084 : 
; 1085 : 	const_reverse_iterator rbegin() const _NOEXCEPT
; 1086 : 		{	// return iterator for beginning of reversed nonmutable sequence
; 1087 : 		return (const_reverse_iterator(end()));
; 1088 : 		}
; 1089 : 
; 1090 : 	reverse_iterator rend() _NOEXCEPT
; 1091 : 		{	// return iterator for end of reversed mutable sequence
; 1092 : 		return (reverse_iterator(begin()));
; 1093 : 		}
; 1094 : 
; 1095 : 	const_reverse_iterator rend() const _NOEXCEPT
; 1096 : 		{	// return iterator for end of reversed nonmutable sequence
; 1097 : 		return (const_reverse_iterator(begin()));
; 1098 : 		}
; 1099 : 
; 1100 : 	const_iterator cbegin() const _NOEXCEPT
; 1101 : 		{	// return iterator for beginning of nonmutable sequence
; 1102 : 		return (begin());
; 1103 : 		}
; 1104 : 
; 1105 : 	const_iterator cend() const _NOEXCEPT
; 1106 : 		{	// return iterator for end of nonmutable sequence
; 1107 : 		return (end());
; 1108 : 		}
; 1109 : 
; 1110 : 	const_reverse_iterator crbegin() const _NOEXCEPT
; 1111 : 		{	// return iterator for beginning of reversed nonmutable sequence
; 1112 : 		return (rbegin());
; 1113 : 		}
; 1114 : 
; 1115 : 	const_reverse_iterator crend() const _NOEXCEPT
; 1116 : 		{	// return iterator for end of reversed nonmutable sequence
; 1117 : 		return (rend());
; 1118 : 		}
; 1119 : 
; 1120 : 	void shrink_to_fit()
; 1121 : 		{	// reduce capacity
; 1122 : 		if (_Has_unused_capacity())
; 1123 : 			{	// worth shrinking, do it
; 1124 : 			if (empty())
; 1125 : 				_Tidy();
; 1126 : 			else
; 1127 : 				_Reallocate(size());
; 1128 : 			}
; 1129 : 		}
; 1130 : 
; 1131 : 	void resize(size_type _Newsize)
; 1132 : 		{	// determine new length, padding as needed
; 1133 : 		if (_Newsize < size())
; 1134 : 			_Pop_back_n(size() - _Newsize);
; 1135 : 		else if (size() < _Newsize)
; 1136 : 			{	// pad as needed
; 1137 : 			_Reserve(_Newsize - size());
; 1138 : 			_TRY_BEGIN
; 1139 : 			_Uninitialized_default_fill_n(this->_Mylast(), _Newsize - size(),
; 1140 : 				this->_Getal());
; 1141 : 			_CATCH_ALL
; 1142 : 			_Tidy();
; 1143 : 			_RERAISE;
; 1144 : 			_CATCH_END
; 1145 : 			this->_Mylast() += _Newsize - size();
; 1146 : 			}
; 1147 : 		}
; 1148 : 
; 1149 : 	void resize(size_type _Newsize, const value_type& _Val)
; 1150 : 		{	// determine new length, padding with _Val elements as needed
; 1151 : 		if (_Newsize < size())
; 1152 : 			_Pop_back_n(size() - _Newsize);
; 1153 : 		else if (size() < _Newsize)
; 1154 : 			{	// pad as needed
; 1155 : 			const value_type *_Ptr = _STD addressof(_Val);
; 1156 : 
; 1157 : 			if (_Inside(_Ptr))
; 1158 : 				{	// padding is inside vector, recompute _Ptr after reserve
; 1159 : 				const difference_type _Idx = _Ptr
; 1160 : 					- _STD addressof(*this->_Myfirst());
; 1161 : 				_Reserve(_Newsize - size());
; 1162 : 				_Ptr = _STD addressof(*this->_Myfirst()) + _Idx;
; 1163 : 				}
; 1164 : 			else
; 1165 : 				_Reserve(_Newsize - size());
; 1166 : 
; 1167 : 			_TRY_BEGIN
; 1168 : 			_Ufill(this->_Mylast(), _Newsize - size(), _Ptr);
; 1169 : 			_CATCH_ALL
; 1170 : 			_Tidy();
; 1171 : 			_RERAISE;
; 1172 : 			_CATCH_END
; 1173 : 			this->_Mylast() += _Newsize - size();
; 1174 : 			}
; 1175 : 		}
; 1176 : 
; 1177 : 	size_type size() const _NOEXCEPT
; 1178 : 		{	// return length of sequence
; 1179 : 		return (this->_Mylast() - this->_Myfirst());

  0003b	c1 fa 04	 sar	 edx, 4
  0003e	8b ca		 mov	 ecx, edx
  00040	c1 e9 1f	 shr	 ecx, 31			; 0000001fH
  00043	03 ca		 add	 ecx, edx

; 1647 : 			{	// need more room, try to get it
; 1648 : 			if (max_size() - size() < _Count)

  00045	2b c1		 sub	 eax, ecx
  00047	3b c7		 cmp	 eax, edi
  00049	72 45		 jb	 SHORT $LN134@Reserve

; 1649 : 				_Xlen();
; 1650 : 			_Reallocate(_Grow_to(size() + _Count));

  0004b	03 f9		 add	 edi, ecx

; 1042 : 		return (this->_Myend() - this->_Myfirst());

  0004d	b8 cb f0 8d 28	 mov	 eax, 680390859		; 288df0cbH
  00052	8b 4b 08	 mov	 ecx, DWORD PTR [ebx+8]
  00055	2b 4d 08	 sub	 ecx, DWORD PTR tv202[ebp]
  00058	f7 e9		 imul	 ecx
  0005a	c1 fa 04	 sar	 edx, 4
  0005d	8b f2		 mov	 esi, edx
  0005f	c1 ee 1f	 shr	 esi, 31			; 0000001fH
  00062	03 f2		 add	 esi, edx

; 1180 : 		}
; 1181 : 
; 1182 : 	size_type max_size() const _NOEXCEPT
; 1183 : 		{	// return maximum possible length of sequence
; 1184 : 		return (this->_Getal().max_size());
; 1185 : 		}
; 1186 : 
; 1187 : 	bool empty() const _NOEXCEPT
; 1188 : 		{	// test if sequence is empty
; 1189 : 		return (this->_Myfirst() == this->_Mylast());
; 1190 : 		}
; 1191 : 
; 1192 : 	_Alloc get_allocator() const _NOEXCEPT
; 1193 : 		{	// return allocator object for values
; 1194 : 		return (this->_Getal());
; 1195 : 		}
; 1196 : 
; 1197 : 	const_reference at(size_type _Pos) const
; 1198 : 		{	// subscript nonmutable sequence with checking
; 1199 : 		if (size() <= _Pos)
; 1200 : 			_Xran();
; 1201 : 		return (*(this->_Myfirst() + _Pos));
; 1202 : 		}
; 1203 : 
; 1204 : 	reference at(size_type _Pos)
; 1205 : 		{	// subscript mutable sequence with checking
; 1206 : 		if (size() <= _Pos)
; 1207 : 			_Xran();
; 1208 : 		return (*(this->_Myfirst() + _Pos));
; 1209 : 		}
; 1210 : 
; 1211 : 	const_reference operator[](size_type _Pos) const
; 1212 : 		{	// subscript nonmutable sequence
; 1213 :  #if _ITERATOR_DEBUG_LEVEL == 2
; 1214 : 		if (size() <= _Pos)
; 1215 : 			{	// report error
; 1216 : 			_DEBUG_ERROR("vector subscript out of range");
; 1217 : 			_SCL_SECURE_OUT_OF_RANGE;
; 1218 : 			}
; 1219 : 
; 1220 :  #elif _ITERATOR_DEBUG_LEVEL == 1
; 1221 : 		_SCL_SECURE_VALIDATE_RANGE(_Pos < size());
; 1222 :  #endif /* _ITERATOR_DEBUG_LEVEL */
; 1223 : 
; 1224 : 		return (*(this->_Myfirst() + _Pos));
; 1225 : 		}
; 1226 : 
; 1227 : 	reference operator[](size_type _Pos)
; 1228 : 		{	// subscript mutable sequence
; 1229 :  #if _ITERATOR_DEBUG_LEVEL == 2
; 1230 : 		if (size() <= _Pos)
; 1231 : 			{	// report error
; 1232 : 			_DEBUG_ERROR("vector subscript out of range");
; 1233 : 			_SCL_SECURE_OUT_OF_RANGE;
; 1234 : 			}
; 1235 : 
; 1236 :  #elif _ITERATOR_DEBUG_LEVEL == 1
; 1237 : 		_SCL_SECURE_VALIDATE_RANGE(_Pos < size());
; 1238 :  #endif /* _ITERATOR_DEBUG_LEVEL */
; 1239 : 
; 1240 : 		return (*(this->_Myfirst() + _Pos));
; 1241 : 		}
; 1242 : 
; 1243 : 	pointer data() _NOEXCEPT
; 1244 : 		{	// return address of first element
; 1245 : 		return (this->_Myfirst());
; 1246 : 		}
; 1247 : 
; 1248 : 	const_pointer data() const _NOEXCEPT
; 1249 : 		{	// return address of first element
; 1250 : 		return (this->_Myfirst());
; 1251 : 		}
; 1252 : 
; 1253 : 	reference front()
; 1254 : 		{	// return first element of mutable sequence
; 1255 : 		return (*begin());
; 1256 : 		}
; 1257 : 
; 1258 : 	const_reference front() const
; 1259 : 		{	// return first element of nonmutable sequence
; 1260 : 		return (*begin());
; 1261 : 		}
; 1262 : 
; 1263 : 	reference back()
; 1264 : 		{	// return last element of mutable sequence
; 1265 : 		return (*(end() - 1));
; 1266 : 		}
; 1267 : 
; 1268 : 	const_reference back() const
; 1269 : 		{	// return last element of nonmutable sequence
; 1270 : 		return (*(end() - 1));
; 1271 : 		}
; 1272 : 
; 1273 : 	void push_back(const value_type& _Val)
; 1274 : 		{	// insert element at end
; 1275 : 		if (_Inside(_STD addressof(_Val)))
; 1276 : 			{	// push back an element
; 1277 : 			size_type _Idx = _STD addressof(_Val) - this->_Myfirst();
; 1278 : 			if (this->_Mylast() == this->_Myend())
; 1279 : 				_Reserve(1);
; 1280 : 			_Orphan_range(this->_Mylast(), this->_Mylast());
; 1281 : 			this->_Getal().construct(this->_Mylast(),
; 1282 : 				this->_Myfirst()[_Idx]);
; 1283 : 			++this->_Mylast();
; 1284 : 			}
; 1285 : 		else
; 1286 : 			{	// push back a non-element
; 1287 : 			if (this->_Mylast() == this->_Myend())
; 1288 : 				_Reserve(1);
; 1289 : 			_Orphan_range(this->_Mylast(), this->_Mylast());
; 1290 : 			this->_Getal().construct(this->_Mylast(),
; 1291 : 				_Val);
; 1292 : 			++this->_Mylast();
; 1293 : 			}
; 1294 : 		}
; 1295 : 
; 1296 :  #if _ITERATOR_DEBUG_LEVEL == 2
; 1297 : 	void pop_back()
; 1298 : 		{	// erase element at end
; 1299 : 		if (empty())
; 1300 : 			_DEBUG_ERROR("vector empty before pop");
; 1301 : 		else
; 1302 : 			{	// erase last element
; 1303 : 			_Orphan_range(this->_Mylast() - 1, this->_Mylast());
; 1304 : 			this->_Getal().destroy(this->_Mylast() - 1);
; 1305 : 			--this->_Mylast();
; 1306 : 			}
; 1307 : 		}
; 1308 : 
; 1309 :  #else /* _ITERATOR_DEBUG_LEVEL == 2 */
; 1310 : 	void pop_back()
; 1311 : 		{	// erase element at end
; 1312 : 		this->_Getal().destroy(this->_Mylast() - 1);
; 1313 : 		--this->_Mylast();
; 1314 : 		}
; 1315 :  #endif /* _ITERATOR_DEBUG_LEVEL == 2 */
; 1316 : 
; 1317 : 	template<class _Iter>
; 1318 : 		typename enable_if<_Is_iterator<_Iter>::value,
; 1319 : 			void>::type
; 1320 : 		assign(_Iter _First, _Iter _Last)
; 1321 : 		{	// assign [_First, _Last)
; 1322 : 		clear();
; 1323 : 		_Assign(_First, _Last, _Iter_cat(_First));
; 1324 : 		}
; 1325 : 
; 1326 : 	template<class _Iter>
; 1327 : 		void _Assign(_Iter _First, _Iter _Last,
; 1328 : 			input_iterator_tag)
; 1329 : 		{	// assign [_First, _Last), input iterators
; 1330 : 		for (; _First != _Last; ++_First)
; 1331 : 			emplace_back(*_First);
; 1332 : 		}
; 1333 : 
; 1334 : 	template<class _Iter>
; 1335 : 		void _Assign(_Iter _First, _Iter _Last,
; 1336 : 			forward_iterator_tag)
; 1337 : 		{	// assign [_First, _Last), forward iterators
; 1338 : 		size_type _Newsize = _STD distance(_First, _Last);
; 1339 : 
; 1340 : 		if (capacity() < _Newsize)
; 1341 : 			{	// need more room, try to get it
; 1342 : 			size_type _Newcapacity = _Grow_to(_Newsize);
; 1343 : 			_Tidy();
; 1344 : 			_Buy(_Newcapacity);
; 1345 : 			}
; 1346 : 
; 1347 : 		this->_Mylast() = _Ucopy(_First, _Last, this->_Myfirst());
; 1348 : 		}
; 1349 : 
; 1350 : 	void assign(size_type _Count, const value_type& _Val)
; 1351 : 		{	// assign _Count * _Val
; 1352 : 		clear();
; 1353 : 		insert(begin(), _Count, _Val);
; 1354 : 		}
; 1355 : 
; 1356 : 	iterator insert(const_iterator _Where, const _Ty& _Val)
; 1357 : 		{	// insert _Val at _Where
; 1358 : 		return (_Insert_n(_Where, (size_type)1, _Val));
; 1359 : 		}
; 1360 : 
; 1361 : 	iterator insert(const_iterator _Where, size_type _Count,
; 1362 : 		const _Ty& _Val)
; 1363 : 		{	// insert _Count * _Val at _Where
; 1364 : 		return (_Insert_n(_Where, _Count, _Val));
; 1365 : 		}
; 1366 : 
; 1367 : 	template<class _Iter>
; 1368 : 		typename enable_if<_Is_iterator<_Iter>::value,
; 1369 : 			iterator>::type
; 1370 : 		insert(const_iterator _Where, _Iter _First, _Iter _Last)
; 1371 : 		{	// insert [_First, _Last) at _Where
; 1372 : 		size_type _Off = _VIPTR(_Where) - this->_Myfirst();
; 1373 : 		_Insert(_Where, _First, _Last, _Iter_cat(_First));
; 1374 : 		return (begin() + _Off);
; 1375 : 		}
; 1376 : 
; 1377 : 	template<class _Iter>
; 1378 : 		void _Insert(const_iterator _Where,
; 1379 : 			_Iter _First, _Iter _Last,
; 1380 : 				input_iterator_tag)
; 1381 : 		{	// insert [_First, _Last) at _Where, input iterators
; 1382 : 		size_type _Off = _VIPTR(_Where) - this->_Myfirst();
; 1383 : 
; 1384 :  #if _ITERATOR_DEBUG_LEVEL == 2
; 1385 : 		if (size() < _Off)
; 1386 : 			_DEBUG_ERROR("vector insert iterator outside range");
; 1387 :  #endif /* _ITERATOR_DEBUG_LEVEL == 2 */
; 1388 : 
; 1389 : 		if (_First != _Last)
; 1390 : 			{	// worth doing, gather at end and rotate into place
; 1391 : 			size_type _Oldsize = size();
; 1392 : 
; 1393 : 			_TRY_BEGIN
; 1394 : 			for (; _First != _Last; ++_First)
; 1395 : 				push_back(*_First);	// append
; 1396 : 
; 1397 : 			_CATCH_ALL
; 1398 : 			erase(begin() + _Oldsize, end());
; 1399 : 			_RERAISE;
; 1400 : 			_CATCH_END
; 1401 : 
; 1402 : 			_STD rotate(begin() + _Off, begin() + _Oldsize, end());
; 1403 : 			}
; 1404 : 		}
; 1405 : 
; 1406 : 	template<class _Iter>
; 1407 : 		void _Insert(const_iterator _Where,
; 1408 : 			_Iter _First, _Iter _Last,
; 1409 : 				forward_iterator_tag)
; 1410 : 		{	// insert [_First, _Last) at _Where, forward iterators
; 1411 :  #if _ITERATOR_DEBUG_LEVEL == 2
; 1412 : 		if (_VICONT(_Where) != &this->_Get_data()
; 1413 : 			|| _VIPTR(_Where) < this->_Myfirst()
; 1414 : 			|| this->_Mylast() < _VIPTR(_Where))
; 1415 : 			_DEBUG_ERROR("vector insert iterator outside range");
; 1416 : 		_DEBUG_RANGE(_First, _Last);
; 1417 :  #endif /* _ITERATOR_DEBUG_LEVEL == 2 */
; 1418 : 
; 1419 : 		size_type _Count = 0;
; 1420 : 		_Distance(_First, _Last, _Count);
; 1421 : 
; 1422 : 		if (_Count == 0)
; 1423 : 			;
; 1424 : 		else if (_Unused_capacity() < _Count)
; 1425 : 			{	// not enough room, reallocate
; 1426 : 			if (max_size() - size() < _Count)
; 1427 : 				_Xlen();	// result too long
; 1428 : 
; 1429 : 			size_type _Capacity = _Grow_to(size() + _Count);
; 1430 : 			pointer _Newvec = this->_Getal().allocate(_Capacity);
; 1431 : 			pointer _Ptr = _Newvec;
; 1432 : 
; 1433 : 			_TRY_BEGIN
; 1434 : 			_Ptr = _Umove(this->_Myfirst(), _VIPTR(_Where),
; 1435 : 				_Newvec);	// copy prefix
; 1436 : 			_Ptr = _Ucopy(_First, _Last, _Ptr);	// add new stuff
; 1437 : 			_Umove(_VIPTR(_Where), this->_Mylast(),
; 1438 : 				_Ptr);	// copy suffix
; 1439 : 			_CATCH_ALL
; 1440 : 			_Destroy(_Newvec, _Ptr);
; 1441 : 			this->_Getal().deallocate(_Newvec, _Capacity);
; 1442 : 			_RERAISE;
; 1443 : 			_CATCH_END
; 1444 : 
; 1445 : 			_Count += size();
; 1446 : 			if (this->_Myfirst() != pointer())
; 1447 : 				{	// destroy and deallocate old array
; 1448 : 				_Destroy(this->_Myfirst(), this->_Mylast());
; 1449 : 				this->_Getal().deallocate(this->_Myfirst(),
; 1450 : 					this->_Myend() - this->_Myfirst());
; 1451 : 				}
; 1452 : 
; 1453 : 			this->_Orphan_all();
; 1454 : 			this->_Myend() = _Newvec + _Capacity;
; 1455 : 			this->_Mylast() = _Newvec + _Count;
; 1456 : 			this->_Myfirst() = _Newvec;
; 1457 : 			}
; 1458 : 		else
; 1459 : 			{	// new stuff fits, append and rotate into place
; 1460 : 			_Ucopy(_First, _Last, this->_Mylast());
; 1461 : 			_STD rotate(_VIPTR(_Where), this->_Mylast(),
; 1462 : 				this->_Mylast() + _Count);
; 1463 : 			this->_Mylast() += _Count;
; 1464 : 			_Orphan_range(_VIPTR(_Where), this->_Mylast());
; 1465 : 			}
; 1466 : 		}
; 1467 : 
; 1468 :  #if _ITERATOR_DEBUG_LEVEL == 2
; 1469 : 	iterator erase(const_iterator _Where)
; 1470 : 		{	// erase element at where
; 1471 : 		if (_VICONT(_Where) != &this->_Get_data()
; 1472 : 			|| _VIPTR(_Where) < this->_Myfirst()
; 1473 : 			|| this->_Mylast() <= _VIPTR(_Where))
; 1474 : 			_DEBUG_ERROR("vector erase iterator outside range");
; 1475 : 		_Move(_VIPTR(_Where) + 1, this->_Mylast(), _VIPTR(_Where));
; 1476 : 		_Destroy(this->_Mylast() - 1, this->_Mylast());
; 1477 : 		_Orphan_range(_VIPTR(_Where), this->_Mylast());
; 1478 : 		--this->_Mylast();
; 1479 : 		return (_Make_iter(_Where));
; 1480 : 		}
; 1481 : 
; 1482 :  #else /* _ITERATOR_DEBUG_LEVEL == 2 */
; 1483 : 	iterator erase(const_iterator _Where)
; 1484 : 		{	// erase element at where
; 1485 : 		_Move(_VIPTR(_Where) + 1, this->_Mylast(),
; 1486 : 			_VIPTR(_Where));
; 1487 : 		_Destroy(this->_Mylast() - 1, this->_Mylast());
; 1488 : 		--this->_Mylast();
; 1489 : 		return (_Make_iter(_Where));
; 1490 : 		}
; 1491 :  #endif /* _ITERATOR_DEBUG_LEVEL == 2 */
; 1492 : 
; 1493 : 	iterator erase(const_iterator _First_arg,
; 1494 : 		const_iterator _Last_arg)
; 1495 : 		{	// erase [_First, _Last)
; 1496 : 		if (_First_arg == begin() && _Last_arg == end())
; 1497 : 			clear();
; 1498 : 		else if (_First_arg != _Last_arg)
; 1499 : 			{	// clear partial
; 1500 : 			iterator _First = _Make_iter(_First_arg);
; 1501 : 			iterator _Last = _Make_iter(_Last_arg);
; 1502 : 
; 1503 : 			if (_First != _Last)
; 1504 : 				{	// worth doing, copy down over hole
; 1505 :  #if _ITERATOR_DEBUG_LEVEL == 2
; 1506 : 				if (_Last < _First || _VICONT(_First) != &this->_Get_data()
; 1507 : 					|| _VIPTR(_First) < this->_Myfirst()
; 1508 : 					|| this->_Mylast() < _VIPTR(_Last))
; 1509 : 					_DEBUG_ERROR("vector erase iterator outside range");
; 1510 : 				pointer _Ptr = _Move(_VIPTR(_Last), this->_Mylast(),
; 1511 : 					_VIPTR(_First));
; 1512 : 				_Orphan_range(_VIPTR(_First), this->_Mylast());
; 1513 : 
; 1514 :  #else /* _ITERATOR_DEBUG_LEVEL == 2 */
; 1515 : 				pointer _Ptr = _Move(_VIPTR(_Last), this->_Mylast(),
; 1516 : 					_VIPTR(_First));
; 1517 :  #endif /* _ITERATOR_DEBUG_LEVEL == 2 */
; 1518 : 
; 1519 : 				_Destroy(_Ptr, this->_Mylast());
; 1520 : 				this->_Mylast() = _Ptr;
; 1521 : 				}
; 1522 : 			}
; 1523 : 		return (_Make_iter(_First_arg));
; 1524 : 		}
; 1525 : 
; 1526 : 	void _Pop_back_n(size_type _Count)
; 1527 : 		{	// erase _Count elements at end
; 1528 : 		pointer _Ptr = this->_Mylast() - _Count;
; 1529 : 
; 1530 :  #if _ITERATOR_DEBUG_LEVEL == 2
; 1531 : 		_Orphan_range(_Ptr, this->_Mylast());
; 1532 :  #endif /* _ITERATOR_DEBUG_LEVEL == 2 */
; 1533 : 
; 1534 : 		_Destroy(_Ptr, this->_Mylast());
; 1535 : 		this->_Mylast() = _Ptr;
; 1536 : 		}
; 1537 : 
; 1538 : 	void clear() _NOEXCEPT
; 1539 : 		{	// erase all
; 1540 : 		this->_Orphan_all();
; 1541 : 		_Destroy(this->_Myfirst(), this->_Mylast());
; 1542 : 		this->_Mylast() = this->_Myfirst();
; 1543 : 		}
; 1544 : 
; 1545 : 	void swap(_Myt& _Right)
; 1546 : 		_NOEXCEPT_OP(_Alty::propagate_on_container_swap::value
; 1547 : 			|| _Alty::is_always_equal::value)
; 1548 : 		{	// exchange contents with _Right
; 1549 : 		if (this == &_Right)
; 1550 : 			;	// same object, do nothing
; 1551 : 		else if (this->_Getal() == _Right._Getal())
; 1552 : 			{	// same allocator, swap control information
; 1553 : 			this->_Swap_all(_Right);
; 1554 : 			_Swap_adl(this->_Myfirst(), _Right._Myfirst());
; 1555 : 			_Swap_adl(this->_Mylast(), _Right._Mylast());
; 1556 : 			_Swap_adl(this->_Myend(), _Right._Myend());
; 1557 : 			}
; 1558 : 
; 1559 : 		else if (_Alty::propagate_on_container_swap::value)
; 1560 : 			{	// swap allocators and control information
; 1561 : 			this->_Swap_alloc(_Right);
; 1562 : 			_Swap_adl(this->_Myfirst(), _Right._Myfirst());
; 1563 : 			_Swap_adl(this->_Mylast(), _Right._Mylast());
; 1564 : 			_Swap_adl(this->_Myend(), _Right._Myend());
; 1565 : 			}
; 1566 : 
; 1567 : 		else
; 1568 : 			{	// containers are incompatible
; 1569 :  #if _ITERATOR_DEBUG_LEVEL == 2
; 1570 : 			_DEBUG_ERROR("vector containers incompatible for swap");
; 1571 : 
; 1572 :  #else /* ITERATOR_DEBUG_LEVEL == 2 */
; 1573 : 			_XSTD terminate();
; 1574 :  #endif /* ITERATOR_DEBUG_LEVEL == 2 */
; 1575 : 			}
; 1576 : 		}
; 1577 : 
; 1578 : protected:
; 1579 : 	bool _Buy(size_type _Capacity)
; 1580 : 		{	// allocate array with _Capacity elements
; 1581 : 		this->_Myfirst() = pointer();
; 1582 : 		this->_Mylast() = pointer();
; 1583 : 		this->_Myend() = pointer();
; 1584 : 
; 1585 : 		if (_Capacity == 0)
; 1586 : 			return (false);
; 1587 : 		else if (max_size() < _Capacity)
; 1588 : 			_Xlen();	// result too long
; 1589 : 		else
; 1590 : 			{	// nonempty array, allocate storage
; 1591 : 			this->_Myfirst() = this->_Getal().allocate(_Capacity);
; 1592 : 			this->_Mylast() = this->_Myfirst();
; 1593 : 			this->_Myend() = this->_Myfirst() + _Capacity;
; 1594 : 			}
; 1595 : 		return (true);
; 1596 : 		}
; 1597 : 
; 1598 : 	void _Destroy(pointer _First, pointer _Last)
; 1599 : 		{	// destroy [_First, _Last) using allocator
; 1600 : 		_Destroy_range(_First, _Last, this->_Getal());
; 1601 : 		}
; 1602 : 
; 1603 : 	size_type _Grow_to(size_type _Count) const
; 1604 : 		{	// grow by 50% or at least to _Count
; 1605 : 		size_type _Capacity = capacity();
; 1606 : 
; 1607 : 		_Capacity = max_size() - _Capacity / 2 < _Capacity

  00064	ba 0c df 88 02	 mov	 edx, 42524428		; 0288df0cH
  00069	8b c6		 mov	 eax, esi
  0006b	d1 e8		 shr	 eax, 1
  0006d	2b d0		 sub	 edx, eax
  0006f	3b d6		 cmp	 edx, esi
  00071	8d 0c 30	 lea	 ecx, DWORD PTR [eax+esi]
  00074	b8 00 00 00 00	 mov	 eax, 0
  00079	0f 42 c8	 cmovb	 ecx, eax

; 1608 : 			? 0 : _Capacity + _Capacity / 2;	// try to grow by 50%
; 1609 : 		if (_Capacity < _Count)

  0007c	3b cf		 cmp	 ecx, edi
  0007e	0f 42 cf	 cmovb	 ecx, edi

; 1649 : 				_Xlen();
; 1650 : 			_Reallocate(_Grow_to(size() + _Count));

  00081	51		 push	 ecx
  00082	8b cb		 mov	 ecx, ebx
  00084	e8 00 00 00 00	 call	 ?_Reallocate@?$vector@UNoticeConnectInfo@@V?$allocator@UNoticeConnectInfo@@@std@@@std@@IAEXI@Z ; std::vector<NoticeConnectInfo,std::allocator<NoticeConnectInfo> >::_Reallocate
$LN2@Reserve:
  00089	5f		 pop	 edi
  0008a	5e		 pop	 esi
  0008b	5b		 pop	 ebx

; 1651 : 			}
; 1652 : 		}

  0008c	5d		 pop	 ebp
  0008d	c2 04 00	 ret	 4
$LN134@Reserve:

; 1653 : 
; 1654 : 	void _Tidy()
; 1655 : 		{	// free all storage
; 1656 : 		if (this->_Myfirst() != pointer())
; 1657 : 			{	// something to free, destroy and deallocate it
; 1658 : 			this->_Orphan_all();
; 1659 : 			_Destroy(this->_Myfirst(), this->_Mylast());
; 1660 : 			this->_Getal().deallocate(this->_Myfirst(),
; 1661 : 				this->_Myend() - this->_Myfirst());
; 1662 : 			this->_Myfirst() = pointer();
; 1663 : 			this->_Mylast() = pointer();
; 1664 : 			this->_Myend() = pointer();
; 1665 : 			}
; 1666 : 		}
; 1667 : 
; 1668 : 	template<class _Iter>
; 1669 : 		pointer _Ucopy(_Iter _First, _Iter _Last, pointer _Ptr)
; 1670 : 		{	// copy initializing [_First, _Last), using allocator
; 1671 : 		return (_Uninitialized_copy(_First, _Last,
; 1672 : 			_Ptr, this->_Getal()));
; 1673 : 		}
; 1674 : 
; 1675 : 	template<class _Iter>
; 1676 : 		pointer _Umove(_Iter _First, _Iter _Last, pointer _Ptr)
; 1677 : 		{	// move initializing [_First, _Last), using allocator
; 1678 : 		return (_Uninitialized_move(_First, _Last,
; 1679 : 			_Ptr, this->_Getal()));
; 1680 : 		}
; 1681 : 
; 1682 : 	iterator _Insert_n(const_iterator _Where,
; 1683 : 		size_type _Count, const value_type& _Val)
; 1684 : 		{	// insert _Count * _Val at _Where
; 1685 :  #if _ITERATOR_DEBUG_LEVEL == 2
; 1686 : 		if (_VICONT(_Where) != &this->_Get_data()
; 1687 : 			|| _VIPTR(_Where) < this->_Myfirst()
; 1688 : 			|| this->_Mylast() < _VIPTR(_Where))
; 1689 : 			_DEBUG_ERROR("vector insert iterator outside range");
; 1690 :  #endif /* _ITERATOR_DEBUG_LEVEL == 2 */
; 1691 : 
; 1692 : 		size_type _Off = _VIPTR(_Where) - this->_Myfirst();
; 1693 : 		if (_Count == 0)
; 1694 : 			;
; 1695 : 		else if (_Unused_capacity() < _Count)
; 1696 : 			{	// not enough room, reallocate
; 1697 : 			if (max_size() - size() < _Count)
; 1698 : 				_Xlen();	// result too long
; 1699 : 
; 1700 : 			size_type _Capacity = _Grow_to(size() + _Count);
; 1701 : 			pointer _Newvec = this->_Getal().allocate(_Capacity);
; 1702 : 			size_type _Whereoff = _VIPTR(_Where) - this->_Myfirst();
; 1703 : 			int _Ncopied = 0;
; 1704 : 
; 1705 : 			_TRY_BEGIN
; 1706 : 			_Ufill(_Newvec + _Whereoff, _Count,
; 1707 : 				_STD addressof(_Val));	// add new stuff
; 1708 : 			++_Ncopied;
; 1709 : 			_Umove(this->_Myfirst(), _VIPTR(_Where),
; 1710 : 				_Newvec);	// copy prefix
; 1711 : 			++_Ncopied;
; 1712 : 			_Umove(_VIPTR(_Where), this->_Mylast(),
; 1713 : 				_Newvec + (_Whereoff + _Count));	// copy suffix
; 1714 : 			_CATCH_ALL
; 1715 : 			if (1 < _Ncopied)
; 1716 : 				_Destroy(_Newvec, _Newvec + _Whereoff);
; 1717 : 			if (0 < _Ncopied)
; 1718 : 				_Destroy(_Newvec + _Whereoff, _Newvec + _Whereoff + _Count);
; 1719 : 			this->_Getal().deallocate(_Newvec, _Capacity);
; 1720 : 			_RERAISE;
; 1721 : 			_CATCH_END
; 1722 : 
; 1723 : 			_Count += size();
; 1724 : 			if (this->_Myfirst() != pointer())
; 1725 : 				{	// destroy and deallocate old array
; 1726 : 				_Destroy(this->_Myfirst(), this->_Mylast());
; 1727 : 				this->_Getal().deallocate(this->_Myfirst(),
; 1728 : 					this->_Myend() - this->_Myfirst());
; 1729 : 				}
; 1730 : 
; 1731 : 			this->_Orphan_all();
; 1732 : 			this->_Myend() = _Newvec + _Capacity;
; 1733 : 			this->_Mylast() = _Newvec + _Count;
; 1734 : 			this->_Myfirst() = _Newvec;
; 1735 : 			}
; 1736 : 		else if ((size_type)(this->_Mylast() - _VIPTR(_Where))
; 1737 : 			< _Count)
; 1738 : 			{	// new stuff spills off end
; 1739 : 			value_type _Tmp = _Val;	// in case _Val is in sequence
; 1740 : 
; 1741 : 			_Umove(_VIPTR(_Where), this->_Mylast(),
; 1742 : 				_VIPTR(_Where) + _Count);	// copy suffix
; 1743 : 
; 1744 : 			_TRY_BEGIN
; 1745 : 			_Ufill(this->_Mylast(),
; 1746 : 				_Count - (this->_Mylast() - _VIPTR(_Where)),
; 1747 : 				_STD addressof(_Tmp));	// insert new stuff off end
; 1748 : 			_CATCH_ALL
; 1749 : 			_Destroy(_VIPTR(_Where) + _Count,
; 1750 : 				this->_Mylast() + _Count);
; 1751 : 			_RERAISE;
; 1752 : 			_CATCH_END
; 1753 : 
; 1754 : 			this->_Mylast() += _Count;
; 1755 : 			_Orphan_range(_VIPTR(_Where), this->_Mylast());
; 1756 : 			_STD fill(_VIPTR(_Where), this->_Mylast() - _Count,
; 1757 : 				_Tmp);	// insert up to old end
; 1758 : 			}
; 1759 : 		else
; 1760 : 			{	// new stuff can all be assigned
; 1761 : 			value_type _Tmp = _Val;	// in case _Val is in sequence
; 1762 : 
; 1763 : 			pointer _Oldend = this->_Mylast();
; 1764 : 			this->_Mylast() = _Umove(_Oldend - _Count, _Oldend,
; 1765 : 				this->_Mylast());	// copy suffix
; 1766 : 
; 1767 : 			_Orphan_range(_VIPTR(_Where), this->_Mylast());
; 1768 : 			_Move_backward(_VIPTR(_Where), _Oldend - _Count,
; 1769 : 				_Oldend);	// copy hole
; 1770 : 			_STD fill(_VIPTR(_Where),
; 1771 : 				_VIPTR(_Where) + _Count, _Tmp);	// insert into hole
; 1772 : 			}
; 1773 : 		return (begin() + _Off);
; 1774 : 		}
; 1775 : 
; 1776 : 	pointer _Ufill(pointer _Ptr, size_type _Count, const value_type *_Pval)
; 1777 : 		{	// copy initializing _Count * _Val, using allocator
; 1778 : 		_Uninitialized_fill_n(_Ptr, _Count, _Pval, this->_Getal());
; 1779 : 		return (_Ptr + _Count);
; 1780 : 		}
; 1781 : 
; 1782 : 	[[noreturn]] void _Xlen() const
; 1783 : 		{	// report a length_error
; 1784 : 		_Xlength_error("vector<T> too long");

  00090	68 00 00 00 00	 push	 OFFSET ??_C@_0BD@OLBABOEK@vector?$DMT?$DO?5too?5long?$AA@
  00095	e8 00 00 00 00	 call	 ?_Xlength_error@std@@YAXPBD@Z ; std::_Xlength_error
$LN136@Reserve:
$LN133@Reserve:
  0009a	cc		 int	 3
?_Reserve@?$vector@UNoticeConnectInfo@@V?$allocator@UNoticeConnectInfo@@@std@@@std@@IAEXI@Z ENDP ; std::vector<NoticeConnectInfo,std::allocator<NoticeConnectInfo> >::_Reserve
_TEXT	ENDS
; Function compile flags: /Ogtp
; File c:\program files (x86)\microsoft visual studio 14.0\vc\include\vector
; File c:\program files (x86)\microsoft visual studio 14.0\vc\include\xmemory0
; File c:\program files (x86)\microsoft visual studio 14.0\vc\include\xmemory
; File c:\program files (x86)\microsoft visual studio 14.0\vc\include\vector
; File c:\program files (x86)\microsoft visual studio 14.0\vc\include\xmemory
; File c:\program files (x86)\microsoft visual studio 14.0\vc\include\vector
; File c:\program files (x86)\microsoft visual studio 14.0\vc\include\xmemory
; File c:\program files (x86)\microsoft visual studio 14.0\vc\include\vector
; File c:\program files (x86)\microsoft visual studio 14.0\vc\include\xmemory
; File c:\program files (x86)\microsoft visual studio 14.0\vc\include\vector
;	COMDAT ?_Reallocate@?$vector@UNoticeConnectInfo@@V?$allocator@UNoticeConnectInfo@@@std@@@std@@IAEXI@Z
_TEXT	SEGMENT
_this$ = -24						; size = 4
__Ptr$ = -20						; size = 4
__$EHRec$ = -16						; size = 16
__Cat$2 = 8						; size = 1
__Count$ = 8						; size = 4
?_Reallocate@?$vector@UNoticeConnectInfo@@V?$allocator@UNoticeConnectInfo@@@std@@@std@@IAEXI@Z PROC ; std::vector<NoticeConnectInfo,std::allocator<NoticeConnectInfo> >::_Reallocate, COMDAT
; _this$ = ecx

; 1620 : 		{	// move to array of exactly _Count elements

  00000	55		 push	 ebp
  00001	8b ec		 mov	 ebp, esp
  00003	6a ff		 push	 -1
  00005	68 00 00 00 00	 push	 __ehhandler$?_Reallocate@?$vector@UNoticeConnectInfo@@V?$allocator@UNoticeConnectInfo@@@std@@@std@@IAEXI@Z
  0000a	64 a1 00 00 00
	00		 mov	 eax, DWORD PTR fs:0
  00010	50		 push	 eax
  00011	83 ec 0c	 sub	 esp, 12			; 0000000cH
  00014	53		 push	 ebx
  00015	56		 push	 esi
  00016	57		 push	 edi
  00017	a1 00 00 00 00	 mov	 eax, DWORD PTR ___security_cookie
  0001c	33 c5		 xor	 eax, ebp
  0001e	50		 push	 eax
  0001f	8d 45 f4	 lea	 eax, DWORD PTR __$EHRec$[ebp+4]
  00022	64 a3 00 00 00
	00		 mov	 DWORD PTR fs:0, eax
  00028	89 65 f0	 mov	 DWORD PTR __$EHRec$[ebp], esp
  0002b	8b f1		 mov	 esi, ecx
  0002d	89 75 e8	 mov	 DWORD PTR _this$[ebp], esi
; File c:\program files (x86)\microsoft visual studio 14.0\vc\include\xmemory0

; 898  : 		return (_Mybase::allocate(_Count));

  00030	ff 75 08	 push	 DWORD PTR __Count$[ebp]
  00033	e8 00 00 00 00	 call	 ?allocate@?$allocator@UNoticeConnectInfo@@@std@@QAEPAUNoticeConnectInfo@@I@Z ; std::allocator<NoticeConnectInfo>::allocate
; File c:\program files (x86)\microsoft visual studio 14.0\vc\include\xmemory

; 481  : 	return (_Uninit_move(_First, _Last, _Dest, _Al,

  00038	ff 75 08	 push	 DWORD PTR __Cat$2[ebp]
; File c:\program files (x86)\microsoft visual studio 14.0\vc\include\vector

; 1621 : 		pointer _Ptr = this->_Getal().allocate(_Count);

  0003b	8b f8		 mov	 edi, eax

; 1622 : 
; 1623 : 		_TRY_BEGIN

  0003d	c7 45 fc 00 00
	00 00		 mov	 DWORD PTR __$EHRec$[ebp+12], 0
; File c:\program files (x86)\microsoft visual studio 14.0\vc\include\xmemory

; 481  : 	return (_Uninit_move(_First, _Last, _Dest, _Al,

  00044	6a 00		 push	 0
  00046	56		 push	 esi
  00047	57		 push	 edi
  00048	ff 76 04	 push	 DWORD PTR [esi+4]
; File c:\program files (x86)\microsoft visual studio 14.0\vc\include\vector

; 1621 : 		pointer _Ptr = this->_Getal().allocate(_Count);

  0004b	89 7d ec	 mov	 DWORD PTR __Ptr$[ebp], edi
; File c:\program files (x86)\microsoft visual studio 14.0\vc\include\xmemory

; 481  : 	return (_Uninit_move(_First, _Last, _Dest, _Al,

  0004e	ff 36		 push	 DWORD PTR [esi]
  00050	e8 00 00 00 00	 call	 ??$_Uninit_move@PAUNoticeConnectInfo@@PAU1@V?$allocator@UNoticeConnectInfo@@@std@@U1@@std@@YAPAUNoticeConnectInfo@@PAU1@00AAU?$_Wrap_alloc@V?$allocator@UNoticeConnectInfo@@@std@@@0@0U_Nonscalar_ptr_iterator_tag@0@@Z ; std::_Uninit_move<NoticeConnectInfo *,NoticeConnectInfo *,std::allocator<NoticeConnectInfo>,NoticeConnectInfo>
; File c:\program files (x86)\microsoft visual studio 14.0\vc\include\vector

; 1179 : 		return (this->_Mylast() - this->_Myfirst());

  00055	8b 4e 04	 mov	 ecx, DWORD PTR [esi+4]
  00058	b8 cb f0 8d 28	 mov	 eax, 680390859		; 288df0cbH
  0005d	2b 0e		 sub	 ecx, DWORD PTR [esi]
; File c:\program files (x86)\microsoft visual studio 14.0\vc\include\xmemory

; 481  : 	return (_Uninit_move(_First, _Last, _Dest, _Al,

  0005f	83 c4 18	 add	 esp, 24			; 00000018H
; File c:\program files (x86)\microsoft visual studio 14.0\vc\include\vector

; 1179 : 		return (this->_Mylast() - this->_Myfirst());

  00062	f7 e9		 imul	 ecx

; 1628 : 		_CATCH_END
; 1629 : 
; 1630 : 		size_type _Size = size();
; 1631 : 		if (this->_Myfirst() != pointer())

  00064	8b 06		 mov	 eax, DWORD PTR [esi]

; 1179 : 		return (this->_Mylast() - this->_Myfirst());

  00066	c1 fa 04	 sar	 edx, 4
  00069	8b da		 mov	 ebx, edx
  0006b	c1 eb 1f	 shr	 ebx, 31			; 0000001fH
  0006e	03 da		 add	 ebx, edx

; 1628 : 		_CATCH_END
; 1629 : 
; 1630 : 		size_type _Size = size();
; 1631 : 		if (this->_Myfirst() != pointer())

  00070	85 c0		 test	 eax, eax
  00072	74 20		 je	 SHORT $LN3@Reallocate

; 1632 : 			{	// destroy and deallocate old array
; 1633 : 			_Destroy(this->_Myfirst(), this->_Mylast());
; 1634 : 			this->_Getal().deallocate(this->_Myfirst(),

  00074	8b 4e 08	 mov	 ecx, DWORD PTR [esi+8]
  00077	2b c8		 sub	 ecx, eax
  00079	b8 cb f0 8d 28	 mov	 eax, 680390859		; 288df0cbH
  0007e	f7 e9		 imul	 ecx
  00080	8b ce		 mov	 ecx, esi
  00082	c1 fa 04	 sar	 edx, 4
  00085	8b c2		 mov	 eax, edx
  00087	c1 e8 1f	 shr	 eax, 31			; 0000001fH
  0008a	03 c2		 add	 eax, edx
  0008c	50		 push	 eax
  0008d	ff 36		 push	 DWORD PTR [esi]
  0008f	e8 00 00 00 00	 call	 ?deallocate@?$_Wrap_alloc@V?$allocator@UNoticeConnectInfo@@@std@@@std@@QAEXPAUNoticeConnectInfo@@I@Z ; std::_Wrap_alloc<std::allocator<NoticeConnectInfo> >::deallocate
$LN3@Reallocate:

; 1635 : 				this->_Myend() - this->_Myfirst());
; 1636 : 			}
; 1637 : 
; 1638 : 		this->_Orphan_all();
; 1639 : 		this->_Myend() = _Ptr + _Count;

  00094	6b 45 08 65	 imul	 eax, DWORD PTR __Count$[ebp], 101
  00098	03 c7		 add	 eax, edi
  0009a	89 46 08	 mov	 DWORD PTR [esi+8], eax

; 1640 : 		this->_Mylast() = _Ptr + _Size;

  0009d	6b c3 65	 imul	 eax, ebx, 101
  000a0	03 c7		 add	 eax, edi
  000a2	89 46 04	 mov	 DWORD PTR [esi+4], eax

; 1641 : 		this->_Myfirst() = _Ptr;

  000a5	89 3e		 mov	 DWORD PTR [esi], edi

; 1642 : 		}

  000a7	8b 4d f4	 mov	 ecx, DWORD PTR __$EHRec$[ebp+4]
  000aa	64 89 0d 00 00
	00 00		 mov	 DWORD PTR fs:0, ecx
  000b1	59		 pop	 ecx
  000b2	5f		 pop	 edi
  000b3	5e		 pop	 esi
  000b4	5b		 pop	 ebx
  000b5	8b e5		 mov	 esp, ebp
  000b7	5d		 pop	 ebp
  000b8	c2 04 00	 ret	 4
__catch$?_Reallocate@?$vector@UNoticeConnectInfo@@V?$allocator@UNoticeConnectInfo@@@std@@@std@@IAEXI@Z$0:

; 1624 : 		_Umove(this->_Myfirst(), this->_Mylast(), _Ptr);
; 1625 : 		_CATCH_ALL
; 1626 : 		this->_Getal().deallocate(_Ptr, _Count);

  000bb	ff 75 08	 push	 DWORD PTR __Count$[ebp]
  000be	8b 4d e8	 mov	 ecx, DWORD PTR _this$[ebp]
  000c1	ff 75 ec	 push	 DWORD PTR __Ptr$[ebp]
  000c4	e8 00 00 00 00	 call	 ?deallocate@?$_Wrap_alloc@V?$allocator@UNoticeConnectInfo@@@std@@@std@@QAEXPAUNoticeConnectInfo@@I@Z ; std::_Wrap_alloc<std::allocator<NoticeConnectInfo> >::deallocate

; 1627 : 		_RERAISE;

  000c9	6a 00		 push	 0
  000cb	6a 00		 push	 0
  000cd	e8 00 00 00 00	 call	 __CxxThrowException@8
$LN175@Reallocate:
$LN174@Reallocate:
  000d2	cc		 int	 3
_TEXT	ENDS
;	COMDAT text$x
text$x	SEGMENT
__ehhandler$?_Reallocate@?$vector@UNoticeConnectInfo@@V?$allocator@UNoticeConnectInfo@@@std@@@std@@IAEXI@Z:
  00000	8b 54 24 08	 mov	 edx, DWORD PTR [esp+8]
  00004	8d 42 0c	 lea	 eax, DWORD PTR [edx+12]
  00007	8b 4a e4	 mov	 ecx, DWORD PTR [edx-28]
  0000a	33 c8		 xor	 ecx, eax
  0000c	e8 00 00 00 00	 call	 @__security_check_cookie@4
  00011	b8 00 00 00 00	 mov	 eax, OFFSET __ehfuncinfo$?_Reallocate@?$vector@UNoticeConnectInfo@@V?$allocator@UNoticeConnectInfo@@@std@@@std@@IAEXI@Z
  00016	e9 00 00 00 00	 jmp	 ___CxxFrameHandler3
text$x	ENDS
?_Reallocate@?$vector@UNoticeConnectInfo@@V?$allocator@UNoticeConnectInfo@@@std@@@std@@IAEXI@Z ENDP ; std::vector<NoticeConnectInfo,std::allocator<NoticeConnectInfo> >::_Reallocate
; Function compile flags: /Ogtp
; File c:\program files (x86)\microsoft visual studio 14.0\vc\include\vector
;	COMDAT ?_Inside@?$vector@UNoticeConnectInfo@@V?$allocator@UNoticeConnectInfo@@@std@@@std@@IBE_NPBUNoticeConnectInfo@@@Z
_TEXT	SEGMENT
__Ptr$ = 8						; size = 4
?_Inside@?$vector@UNoticeConnectInfo@@V?$allocator@UNoticeConnectInfo@@@std@@@std@@IBE_NPBUNoticeConnectInfo@@@Z PROC ; std::vector<NoticeConnectInfo,std::allocator<NoticeConnectInfo> >::_Inside, COMDAT
; _this$ = ecx

; 1615 : 		{	// test if _Ptr points inside vector

  00000	55		 push	 ebp
  00001	8b ec		 mov	 ebp, esp

; 1616 : 		return (_Ptr < this->_Mylast() && this->_Myfirst() <= _Ptr);

  00003	8b 45 08	 mov	 eax, DWORD PTR __Ptr$[ebp]
  00006	3b 41 04	 cmp	 eax, DWORD PTR [ecx+4]
  00009	73 0a		 jae	 SHORT $LN3@Inside
  0000b	39 01		 cmp	 DWORD PTR [ecx], eax
  0000d	77 06		 ja	 SHORT $LN3@Inside
  0000f	b0 01		 mov	 al, 1

; 1617 : 		}

  00011	5d		 pop	 ebp
  00012	c2 04 00	 ret	 4
$LN3@Inside:

; 1616 : 		return (_Ptr < this->_Mylast() && this->_Myfirst() <= _Ptr);

  00015	32 c0		 xor	 al, al

; 1617 : 		}

  00017	5d		 pop	 ebp
  00018	c2 04 00	 ret	 4
?_Inside@?$vector@UNoticeConnectInfo@@V?$allocator@UNoticeConnectInfo@@@std@@@std@@IBE_NPBUNoticeConnectInfo@@@Z ENDP ; std::vector<NoticeConnectInfo,std::allocator<NoticeConnectInfo> >::_Inside
_TEXT	ENDS
; Function compile flags: /Ogtp
; File c:\program files (x86)\microsoft visual studio 14.0\vc\include\vector
;	COMDAT ?_Grow_to@?$vector@UNoticeConnectInfo@@V?$allocator@UNoticeConnectInfo@@@std@@@std@@IBEII@Z
_TEXT	SEGMENT
__Count$ = 8						; size = 4
?_Grow_to@?$vector@UNoticeConnectInfo@@V?$allocator@UNoticeConnectInfo@@@std@@@std@@IBEII@Z PROC ; std::vector<NoticeConnectInfo,std::allocator<NoticeConnectInfo> >::_Grow_to, COMDAT
; _this$ = ecx

; 1604 : 		{	// grow by 50% or at least to _Count

  00000	55		 push	 ebp
  00001	8b ec		 mov	 ebp, esp

; 1042 : 		return (this->_Myend() - this->_Myfirst());

  00003	8b 51 08	 mov	 edx, DWORD PTR [ecx+8]
  00006	b8 cb f0 8d 28	 mov	 eax, 680390859		; 288df0cbH
  0000b	2b 11		 sub	 edx, DWORD PTR [ecx]

; 1605 : 		size_type _Capacity = capacity();
; 1606 : 
; 1607 : 		_Capacity = max_size() - _Capacity / 2 < _Capacity

  0000d	b9 0c df 88 02	 mov	 ecx, 42524428		; 0288df0cH

; 1042 : 		return (this->_Myend() - this->_Myfirst());

  00012	f7 ea		 imul	 edx
  00014	56		 push	 esi
  00015	c1 fa 04	 sar	 edx, 4
  00018	8b f2		 mov	 esi, edx
  0001a	c1 ee 1f	 shr	 esi, 31			; 0000001fH
  0001d	03 f2		 add	 esi, edx

; 1605 : 		size_type _Capacity = capacity();
; 1606 : 
; 1607 : 		_Capacity = max_size() - _Capacity / 2 < _Capacity

  0001f	8b c6		 mov	 eax, esi
  00021	d1 e8		 shr	 eax, 1
  00023	57		 push	 edi
  00024	2b c8		 sub	 ecx, eax
  00026	33 ff		 xor	 edi, edi
  00028	3b ce		 cmp	 ecx, esi
  0002a	8d 14 30	 lea	 edx, DWORD PTR [eax+esi]
  0002d	0f 42 d7	 cmovb	 edx, edi

; 1608 : 			? 0 : _Capacity + _Capacity / 2;	// try to grow by 50%
; 1609 : 		if (_Capacity < _Count)

  00030	3b 55 08	 cmp	 edx, DWORD PTR __Count$[ebp]
  00033	5f		 pop	 edi
  00034	0f 42 55 08	 cmovb	 edx, DWORD PTR __Count$[ebp]

; 1610 : 			_Capacity = _Count;
; 1611 : 		return (_Capacity);

  00038	8b c2		 mov	 eax, edx
  0003a	5e		 pop	 esi

; 1612 : 		}

  0003b	5d		 pop	 ebp
  0003c	c2 04 00	 ret	 4
?_Grow_to@?$vector@UNoticeConnectInfo@@V?$allocator@UNoticeConnectInfo@@@std@@@std@@IBEII@Z ENDP ; std::vector<NoticeConnectInfo,std::allocator<NoticeConnectInfo> >::_Grow_to
_TEXT	ENDS
; Function compile flags: /Ogtp
; File c:\program files (x86)\microsoft visual studio 14.0\vc\include\vector
;	COMDAT ?_Destroy@?$vector@UNoticeConnectInfo@@V?$allocator@UNoticeConnectInfo@@@std@@@std@@IAEXPAUNoticeConnectInfo@@0@Z
_TEXT	SEGMENT
__First$ = 8						; size = 4
__Last$ = 12						; size = 4
?_Destroy@?$vector@UNoticeConnectInfo@@V?$allocator@UNoticeConnectInfo@@@std@@@std@@IAEXPAUNoticeConnectInfo@@0@Z PROC ; std::vector<NoticeConnectInfo,std::allocator<NoticeConnectInfo> >::_Destroy, COMDAT
; _this$ = ecx

; 1600 : 		_Destroy_range(_First, _Last, this->_Getal());
; 1601 : 		}

  00000	c2 08 00	 ret	 8
?_Destroy@?$vector@UNoticeConnectInfo@@V?$allocator@UNoticeConnectInfo@@@std@@@std@@IAEXPAUNoticeConnectInfo@@0@Z ENDP ; std::vector<NoticeConnectInfo,std::allocator<NoticeConnectInfo> >::_Destroy
_TEXT	ENDS
; Function compile flags: /Ogtp
; File c:\program files (x86)\microsoft visual studio 14.0\vc\include\vector
; File c:\program files (x86)\microsoft visual studio 14.0\vc\include\utility
; File c:\program files (x86)\microsoft visual studio 14.0\vc\include\vector
;	COMDAT ?swap@?$vector@UNoticeConnectInfo@@V?$allocator@UNoticeConnectInfo@@@std@@@std@@QAEXAAV12@@Z
_TEXT	SEGMENT
__Right$ = 8						; size = 4
?swap@?$vector@UNoticeConnectInfo@@V?$allocator@UNoticeConnectInfo@@@std@@@std@@QAEXAAV12@@Z PROC ; std::vector<NoticeConnectInfo,std::allocator<NoticeConnectInfo> >::swap, COMDAT
; _this$ = ecx

; 1548 : 		{	// exchange contents with _Right

  00000	55		 push	 ebp
  00001	8b ec		 mov	 ebp, esp
  00003	56		 push	 esi
  00004	57		 push	 edi

; 1549 : 		if (this == &_Right)

  00005	8b 7d 08	 mov	 edi, DWORD PTR __Right$[ebp]
  00008	8b f1		 mov	 esi, ecx
  0000a	3b f7		 cmp	 esi, edi
  0000c	74 20		 je	 SHORT $LN7@swap
; File c:\program files (x86)\microsoft visual studio 14.0\vc\include\utility

; 53   : 	_Left = _Move(_Right);

  0000e	8b 07		 mov	 eax, DWORD PTR [edi]
  00010	8b 16		 mov	 edx, DWORD PTR [esi]
  00012	89 06		 mov	 DWORD PTR [esi], eax

; 54   : 	_Right = _Move(_Tmp);

  00014	89 17		 mov	 DWORD PTR [edi], edx

; 52   : 	_Ty _Tmp = _Move(_Left);

  00016	8b 4e 04	 mov	 ecx, DWORD PTR [esi+4]

; 53   : 	_Left = _Move(_Right);

  00019	8b 47 04	 mov	 eax, DWORD PTR [edi+4]
  0001c	89 46 04	 mov	 DWORD PTR [esi+4], eax

; 54   : 	_Right = _Move(_Tmp);

  0001f	89 4f 04	 mov	 DWORD PTR [edi+4], ecx

; 52   : 	_Ty _Tmp = _Move(_Left);

  00022	8b 4e 08	 mov	 ecx, DWORD PTR [esi+8]

; 53   : 	_Left = _Move(_Right);

  00025	8b 47 08	 mov	 eax, DWORD PTR [edi+8]
  00028	89 46 08	 mov	 DWORD PTR [esi+8], eax

; 54   : 	_Right = _Move(_Tmp);

  0002b	89 4f 08	 mov	 DWORD PTR [edi+8], ecx
$LN7@swap:
  0002e	5f		 pop	 edi
  0002f	5e		 pop	 esi
; File c:\program files (x86)\microsoft visual studio 14.0\vc\include\vector

; 1576 : 		}

  00030	5d		 pop	 ebp
  00031	c2 04 00	 ret	 4
?swap@?$vector@UNoticeConnectInfo@@V?$allocator@UNoticeConnectInfo@@@std@@@std@@QAEXAAV12@@Z ENDP ; std::vector<NoticeConnectInfo,std::allocator<NoticeConnectInfo> >::swap
_TEXT	ENDS
; Function compile flags: /Ogtp
; File c:\program files (x86)\microsoft visual studio 14.0\vc\include\vector
;	COMDAT ?clear@?$vector@UNoticeConnectInfo@@V?$allocator@UNoticeConnectInfo@@@std@@@std@@QAEXXZ
_TEXT	SEGMENT
?clear@?$vector@UNoticeConnectInfo@@V?$allocator@UNoticeConnectInfo@@@std@@@std@@QAEXXZ PROC ; std::vector<NoticeConnectInfo,std::allocator<NoticeConnectInfo> >::clear, COMDAT
; _this$ = ecx

; 1540 : 		this->_Orphan_all();
; 1541 : 		_Destroy(this->_Myfirst(), this->_Mylast());
; 1542 : 		this->_Mylast() = this->_Myfirst();

  00000	8b 01		 mov	 eax, DWORD PTR [ecx]
  00002	89 41 04	 mov	 DWORD PTR [ecx+4], eax

; 1543 : 		}

  00005	c3		 ret	 0
?clear@?$vector@UNoticeConnectInfo@@V?$allocator@UNoticeConnectInfo@@@std@@@std@@QAEXXZ ENDP ; std::vector<NoticeConnectInfo,std::allocator<NoticeConnectInfo> >::clear
_TEXT	ENDS
; Function compile flags: /Ogtp
; File c:\program files (x86)\microsoft visual studio 14.0\vc\include\vector
; File c:\program files (x86)\microsoft visual studio 14.0\vc\include\xmemory0
; File c:\program files (x86)\microsoft visual studio 14.0\vc\include\vector
; File c:\program files (x86)\microsoft visual studio 14.0\vc\include\xmemory0
; File c:\program files (x86)\microsoft visual studio 14.0\vc\include\vector
; File c:\program files (x86)\microsoft visual studio 14.0\vc\include\xmemory0
; File c:\program files (x86)\microsoft visual studio 14.0\vc\include\vector
; File c:\program files (x86)\microsoft visual studio 14.0\vc\include\xmemory0
; File c:\program files (x86)\microsoft visual studio 14.0\vc\include\vector
;	COMDAT ?push_back@?$vector@UNoticeConnectInfo@@V?$allocator@UNoticeConnectInfo@@@std@@@std@@QAEXABUNoticeConnectInfo@@@Z
_TEXT	SEGMENT
__Val$ = 8						; size = 4
?push_back@?$vector@UNoticeConnectInfo@@V?$allocator@UNoticeConnectInfo@@@std@@@std@@QAEXABUNoticeConnectInfo@@@Z PROC ; std::vector<NoticeConnectInfo,std::allocator<NoticeConnectInfo> >::push_back, COMDAT
; _this$ = ecx

; 1274 : 		{	// insert element at end

  00000	55		 push	 ebp
  00001	8b ec		 mov	 ebp, esp
  00003	53		 push	 ebx
  00004	8b d9		 mov	 ebx, ecx
  00006	56		 push	 esi

; 1295 : 
; 1296 :  #if _ITERATOR_DEBUG_LEVEL == 2
; 1297 : 	void pop_back()
; 1298 : 		{	// erase element at end
; 1299 : 		if (empty())
; 1300 : 			_DEBUG_ERROR("vector empty before pop");
; 1301 : 		else
; 1302 : 			{	// erase last element
; 1303 : 			_Orphan_range(this->_Mylast() - 1, this->_Mylast());
; 1304 : 			this->_Getal().destroy(this->_Mylast() - 1);
; 1305 : 			--this->_Mylast();
; 1306 : 			}
; 1307 : 		}
; 1308 : 
; 1309 :  #else /* _ITERATOR_DEBUG_LEVEL == 2 */
; 1310 : 	void pop_back()
; 1311 : 		{	// erase element at end
; 1312 : 		this->_Getal().destroy(this->_Mylast() - 1);
; 1313 : 		--this->_Mylast();
; 1314 : 		}
; 1315 :  #endif /* _ITERATOR_DEBUG_LEVEL == 2 */
; 1316 : 
; 1317 : 	template<class _Iter>
; 1318 : 		typename enable_if<_Is_iterator<_Iter>::value,
; 1319 : 			void>::type
; 1320 : 		assign(_Iter _First, _Iter _Last)
; 1321 : 		{	// assign [_First, _Last)
; 1322 : 		clear();
; 1323 : 		_Assign(_First, _Last, _Iter_cat(_First));
; 1324 : 		}
; 1325 : 
; 1326 : 	template<class _Iter>
; 1327 : 		void _Assign(_Iter _First, _Iter _Last,
; 1328 : 			input_iterator_tag)
; 1329 : 		{	// assign [_First, _Last), input iterators
; 1330 : 		for (; _First != _Last; ++_First)
; 1331 : 			emplace_back(*_First);
; 1332 : 		}
; 1333 : 
; 1334 : 	template<class _Iter>
; 1335 : 		void _Assign(_Iter _First, _Iter _Last,
; 1336 : 			forward_iterator_tag)
; 1337 : 		{	// assign [_First, _Last), forward iterators
; 1338 : 		size_type _Newsize = _STD distance(_First, _Last);
; 1339 : 
; 1340 : 		if (capacity() < _Newsize)
; 1341 : 			{	// need more room, try to get it
; 1342 : 			size_type _Newcapacity = _Grow_to(_Newsize);
; 1343 : 			_Tidy();
; 1344 : 			_Buy(_Newcapacity);
; 1345 : 			}
; 1346 : 
; 1347 : 		this->_Mylast() = _Ucopy(_First, _Last, this->_Myfirst());
; 1348 : 		}
; 1349 : 
; 1350 : 	void assign(size_type _Count, const value_type& _Val)
; 1351 : 		{	// assign _Count * _Val
; 1352 : 		clear();
; 1353 : 		insert(begin(), _Count, _Val);
; 1354 : 		}
; 1355 : 
; 1356 : 	iterator insert(const_iterator _Where, const _Ty& _Val)
; 1357 : 		{	// insert _Val at _Where
; 1358 : 		return (_Insert_n(_Where, (size_type)1, _Val));
; 1359 : 		}
; 1360 : 
; 1361 : 	iterator insert(const_iterator _Where, size_type _Count,
; 1362 : 		const _Ty& _Val)
; 1363 : 		{	// insert _Count * _Val at _Where
; 1364 : 		return (_Insert_n(_Where, _Count, _Val));
; 1365 : 		}
; 1366 : 
; 1367 : 	template<class _Iter>
; 1368 : 		typename enable_if<_Is_iterator<_Iter>::value,
; 1369 : 			iterator>::type
; 1370 : 		insert(const_iterator _Where, _Iter _First, _Iter _Last)
; 1371 : 		{	// insert [_First, _Last) at _Where
; 1372 : 		size_type _Off = _VIPTR(_Where) - this->_Myfirst();
; 1373 : 		_Insert(_Where, _First, _Last, _Iter_cat(_First));
; 1374 : 		return (begin() + _Off);
; 1375 : 		}
; 1376 : 
; 1377 : 	template<class _Iter>
; 1378 : 		void _Insert(const_iterator _Where,
; 1379 : 			_Iter _First, _Iter _Last,
; 1380 : 				input_iterator_tag)
; 1381 : 		{	// insert [_First, _Last) at _Where, input iterators
; 1382 : 		size_type _Off = _VIPTR(_Where) - this->_Myfirst();
; 1383 : 
; 1384 :  #if _ITERATOR_DEBUG_LEVEL == 2
; 1385 : 		if (size() < _Off)
; 1386 : 			_DEBUG_ERROR("vector insert iterator outside range");
; 1387 :  #endif /* _ITERATOR_DEBUG_LEVEL == 2 */
; 1388 : 
; 1389 : 		if (_First != _Last)
; 1390 : 			{	// worth doing, gather at end and rotate into place
; 1391 : 			size_type _Oldsize = size();
; 1392 : 
; 1393 : 			_TRY_BEGIN
; 1394 : 			for (; _First != _Last; ++_First)
; 1395 : 				push_back(*_First);	// append
; 1396 : 
; 1397 : 			_CATCH_ALL
; 1398 : 			erase(begin() + _Oldsize, end());
; 1399 : 			_RERAISE;
; 1400 : 			_CATCH_END
; 1401 : 
; 1402 : 			_STD rotate(begin() + _Off, begin() + _Oldsize, end());
; 1403 : 			}
; 1404 : 		}
; 1405 : 
; 1406 : 	template<class _Iter>
; 1407 : 		void _Insert(const_iterator _Where,
; 1408 : 			_Iter _First, _Iter _Last,
; 1409 : 				forward_iterator_tag)
; 1410 : 		{	// insert [_First, _Last) at _Where, forward iterators
; 1411 :  #if _ITERATOR_DEBUG_LEVEL == 2
; 1412 : 		if (_VICONT(_Where) != &this->_Get_data()
; 1413 : 			|| _VIPTR(_Where) < this->_Myfirst()
; 1414 : 			|| this->_Mylast() < _VIPTR(_Where))
; 1415 : 			_DEBUG_ERROR("vector insert iterator outside range");
; 1416 : 		_DEBUG_RANGE(_First, _Last);
; 1417 :  #endif /* _ITERATOR_DEBUG_LEVEL == 2 */
; 1418 : 
; 1419 : 		size_type _Count = 0;
; 1420 : 		_Distance(_First, _Last, _Count);
; 1421 : 
; 1422 : 		if (_Count == 0)
; 1423 : 			;
; 1424 : 		else if (_Unused_capacity() < _Count)
; 1425 : 			{	// not enough room, reallocate
; 1426 : 			if (max_size() - size() < _Count)
; 1427 : 				_Xlen();	// result too long
; 1428 : 
; 1429 : 			size_type _Capacity = _Grow_to(size() + _Count);
; 1430 : 			pointer _Newvec = this->_Getal().allocate(_Capacity);
; 1431 : 			pointer _Ptr = _Newvec;
; 1432 : 
; 1433 : 			_TRY_BEGIN
; 1434 : 			_Ptr = _Umove(this->_Myfirst(), _VIPTR(_Where),
; 1435 : 				_Newvec);	// copy prefix
; 1436 : 			_Ptr = _Ucopy(_First, _Last, _Ptr);	// add new stuff
; 1437 : 			_Umove(_VIPTR(_Where), this->_Mylast(),
; 1438 : 				_Ptr);	// copy suffix
; 1439 : 			_CATCH_ALL
; 1440 : 			_Destroy(_Newvec, _Ptr);
; 1441 : 			this->_Getal().deallocate(_Newvec, _Capacity);
; 1442 : 			_RERAISE;
; 1443 : 			_CATCH_END
; 1444 : 
; 1445 : 			_Count += size();
; 1446 : 			if (this->_Myfirst() != pointer())
; 1447 : 				{	// destroy and deallocate old array
; 1448 : 				_Destroy(this->_Myfirst(), this->_Mylast());
; 1449 : 				this->_Getal().deallocate(this->_Myfirst(),
; 1450 : 					this->_Myend() - this->_Myfirst());
; 1451 : 				}
; 1452 : 
; 1453 : 			this->_Orphan_all();
; 1454 : 			this->_Myend() = _Newvec + _Capacity;
; 1455 : 			this->_Mylast() = _Newvec + _Count;
; 1456 : 			this->_Myfirst() = _Newvec;
; 1457 : 			}
; 1458 : 		else
; 1459 : 			{	// new stuff fits, append and rotate into place
; 1460 : 			_Ucopy(_First, _Last, this->_Mylast());
; 1461 : 			_STD rotate(_VIPTR(_Where), this->_Mylast(),
; 1462 : 				this->_Mylast() + _Count);
; 1463 : 			this->_Mylast() += _Count;
; 1464 : 			_Orphan_range(_VIPTR(_Where), this->_Mylast());
; 1465 : 			}
; 1466 : 		}
; 1467 : 
; 1468 :  #if _ITERATOR_DEBUG_LEVEL == 2
; 1469 : 	iterator erase(const_iterator _Where)
; 1470 : 		{	// erase element at where
; 1471 : 		if (_VICONT(_Where) != &this->_Get_data()
; 1472 : 			|| _VIPTR(_Where) < this->_Myfirst()
; 1473 : 			|| this->_Mylast() <= _VIPTR(_Where))
; 1474 : 			_DEBUG_ERROR("vector erase iterator outside range");
; 1475 : 		_Move(_VIPTR(_Where) + 1, this->_Mylast(), _VIPTR(_Where));
; 1476 : 		_Destroy(this->_Mylast() - 1, this->_Mylast());
; 1477 : 		_Orphan_range(_VIPTR(_Where), this->_Mylast());
; 1478 : 		--this->_Mylast();
; 1479 : 		return (_Make_iter(_Where));
; 1480 : 		}
; 1481 : 
; 1482 :  #else /* _ITERATOR_DEBUG_LEVEL == 2 */
; 1483 : 	iterator erase(const_iterator _Where)
; 1484 : 		{	// erase element at where
; 1485 : 		_Move(_VIPTR(_Where) + 1, this->_Mylast(),
; 1486 : 			_VIPTR(_Where));
; 1487 : 		_Destroy(this->_Mylast() - 1, this->_Mylast());
; 1488 : 		--this->_Mylast();
; 1489 : 		return (_Make_iter(_Where));
; 1490 : 		}
; 1491 :  #endif /* _ITERATOR_DEBUG_LEVEL == 2 */
; 1492 : 
; 1493 : 	iterator erase(const_iterator _First_arg,
; 1494 : 		const_iterator _Last_arg)
; 1495 : 		{	// erase [_First, _Last)
; 1496 : 		if (_First_arg == begin() && _Last_arg == end())
; 1497 : 			clear();
; 1498 : 		else if (_First_arg != _Last_arg)
; 1499 : 			{	// clear partial
; 1500 : 			iterator _First = _Make_iter(_First_arg);
; 1501 : 			iterator _Last = _Make_iter(_Last_arg);
; 1502 : 
; 1503 : 			if (_First != _Last)
; 1504 : 				{	// worth doing, copy down over hole
; 1505 :  #if _ITERATOR_DEBUG_LEVEL == 2
; 1506 : 				if (_Last < _First || _VICONT(_First) != &this->_Get_data()
; 1507 : 					|| _VIPTR(_First) < this->_Myfirst()
; 1508 : 					|| this->_Mylast() < _VIPTR(_Last))
; 1509 : 					_DEBUG_ERROR("vector erase iterator outside range");
; 1510 : 				pointer _Ptr = _Move(_VIPTR(_Last), this->_Mylast(),
; 1511 : 					_VIPTR(_First));
; 1512 : 				_Orphan_range(_VIPTR(_First), this->_Mylast());
; 1513 : 
; 1514 :  #else /* _ITERATOR_DEBUG_LEVEL == 2 */
; 1515 : 				pointer _Ptr = _Move(_VIPTR(_Last), this->_Mylast(),
; 1516 : 					_VIPTR(_First));
; 1517 :  #endif /* _ITERATOR_DEBUG_LEVEL == 2 */
; 1518 : 
; 1519 : 				_Destroy(_Ptr, this->_Mylast());
; 1520 : 				this->_Mylast() = _Ptr;
; 1521 : 				}
; 1522 : 			}
; 1523 : 		return (_Make_iter(_First_arg));
; 1524 : 		}
; 1525 : 
; 1526 : 	void _Pop_back_n(size_type _Count)
; 1527 : 		{	// erase _Count elements at end
; 1528 : 		pointer _Ptr = this->_Mylast() - _Count;
; 1529 : 
; 1530 :  #if _ITERATOR_DEBUG_LEVEL == 2
; 1531 : 		_Orphan_range(_Ptr, this->_Mylast());
; 1532 :  #endif /* _ITERATOR_DEBUG_LEVEL == 2 */
; 1533 : 
; 1534 : 		_Destroy(_Ptr, this->_Mylast());
; 1535 : 		this->_Mylast() = _Ptr;
; 1536 : 		}
; 1537 : 
; 1538 : 	void clear() _NOEXCEPT
; 1539 : 		{	// erase all
; 1540 : 		this->_Orphan_all();
; 1541 : 		_Destroy(this->_Myfirst(), this->_Mylast());
; 1542 : 		this->_Mylast() = this->_Myfirst();
; 1543 : 		}
; 1544 : 
; 1545 : 	void swap(_Myt& _Right)
; 1546 : 		_NOEXCEPT_OP(_Alty::propagate_on_container_swap::value
; 1547 : 			|| _Alty::is_always_equal::value)
; 1548 : 		{	// exchange contents with _Right
; 1549 : 		if (this == &_Right)
; 1550 : 			;	// same object, do nothing
; 1551 : 		else if (this->_Getal() == _Right._Getal())
; 1552 : 			{	// same allocator, swap control information
; 1553 : 			this->_Swap_all(_Right);
; 1554 : 			_Swap_adl(this->_Myfirst(), _Right._Myfirst());
; 1555 : 			_Swap_adl(this->_Mylast(), _Right._Mylast());
; 1556 : 			_Swap_adl(this->_Myend(), _Right._Myend());
; 1557 : 			}
; 1558 : 
; 1559 : 		else if (_Alty::propagate_on_container_swap::value)
; 1560 : 			{	// swap allocators and control information
; 1561 : 			this->_Swap_alloc(_Right);
; 1562 : 			_Swap_adl(this->_Myfirst(), _Right._Myfirst());
; 1563 : 			_Swap_adl(this->_Mylast(), _Right._Mylast());
; 1564 : 			_Swap_adl(this->_Myend(), _Right._Myend());
; 1565 : 			}
; 1566 : 
; 1567 : 		else
; 1568 : 			{	// containers are incompatible
; 1569 :  #if _ITERATOR_DEBUG_LEVEL == 2
; 1570 : 			_DEBUG_ERROR("vector containers incompatible for swap");
; 1571 : 
; 1572 :  #else /* ITERATOR_DEBUG_LEVEL == 2 */
; 1573 : 			_XSTD terminate();
; 1574 :  #endif /* ITERATOR_DEBUG_LEVEL == 2 */
; 1575 : 			}
; 1576 : 		}
; 1577 : 
; 1578 : protected:
; 1579 : 	bool _Buy(size_type _Capacity)
; 1580 : 		{	// allocate array with _Capacity elements
; 1581 : 		this->_Myfirst() = pointer();
; 1582 : 		this->_Mylast() = pointer();
; 1583 : 		this->_Myend() = pointer();
; 1584 : 
; 1585 : 		if (_Capacity == 0)
; 1586 : 			return (false);
; 1587 : 		else if (max_size() < _Capacity)
; 1588 : 			_Xlen();	// result too long
; 1589 : 		else
; 1590 : 			{	// nonempty array, allocate storage
; 1591 : 			this->_Myfirst() = this->_Getal().allocate(_Capacity);
; 1592 : 			this->_Mylast() = this->_Myfirst();
; 1593 : 			this->_Myend() = this->_Myfirst() + _Capacity;
; 1594 : 			}
; 1595 : 		return (true);
; 1596 : 		}
; 1597 : 
; 1598 : 	void _Destroy(pointer _First, pointer _Last)
; 1599 : 		{	// destroy [_First, _Last) using allocator
; 1600 : 		_Destroy_range(_First, _Last, this->_Getal());
; 1601 : 		}
; 1602 : 
; 1603 : 	size_type _Grow_to(size_type _Count) const
; 1604 : 		{	// grow by 50% or at least to _Count
; 1605 : 		size_type _Capacity = capacity();
; 1606 : 
; 1607 : 		_Capacity = max_size() - _Capacity / 2 < _Capacity
; 1608 : 			? 0 : _Capacity + _Capacity / 2;	// try to grow by 50%
; 1609 : 		if (_Capacity < _Count)
; 1610 : 			_Capacity = _Count;
; 1611 : 		return (_Capacity);
; 1612 : 		}
; 1613 : 
; 1614 : 	bool _Inside(const value_type *_Ptr) const
; 1615 : 		{	// test if _Ptr points inside vector
; 1616 : 		return (_Ptr < this->_Mylast() && this->_Myfirst() <= _Ptr);

  00007	8b 75 08	 mov	 esi, DWORD PTR __Val$[ebp]
  0000a	57		 push	 edi
  0000b	8b 4b 04	 mov	 ecx, DWORD PTR [ebx+4]
  0000e	3b f1		 cmp	 esi, ecx
  00010	73 46		 jae	 SHORT $LN2@push_back
  00012	8b 03		 mov	 eax, DWORD PTR [ebx]
  00014	3b c6		 cmp	 eax, esi
  00016	77 40		 ja	 SHORT $LN2@push_back

; 1275 : 		if (_Inside(_STD addressof(_Val)))
; 1276 : 			{	// push back an element
; 1277 : 			size_type _Idx = _STD addressof(_Val) - this->_Myfirst();

  00018	2b f0		 sub	 esi, eax
  0001a	b8 cb f0 8d 28	 mov	 eax, 680390859		; 288df0cbH
  0001f	f7 ee		 imul	 esi
  00021	c1 fa 04	 sar	 edx, 4
  00024	8b f2		 mov	 esi, edx
  00026	c1 ee 1f	 shr	 esi, 31			; 0000001fH
  00029	03 f2		 add	 esi, edx

; 1278 : 			if (this->_Mylast() == this->_Myend())

  0002b	3b 4b 08	 cmp	 ecx, DWORD PTR [ebx+8]
  0002e	75 09		 jne	 SHORT $LN4@push_back

; 1279 : 				_Reserve(1);

  00030	6a 01		 push	 1
  00032	8b cb		 mov	 ecx, ebx
  00034	e8 00 00 00 00	 call	 ?_Reserve@?$vector@UNoticeConnectInfo@@V?$allocator@UNoticeConnectInfo@@@std@@@std@@IAEXI@Z ; std::vector<NoticeConnectInfo,std::allocator<NoticeConnectInfo> >::_Reserve
$LN4@push_back:
; File c:\program files (x86)\microsoft visual studio 14.0\vc\include\xmemory0

; 655  : 		::new ((void *)_Ptr) _Objty(_STD forward<_Types>(_Args)...);

  00039	8b 7b 04	 mov	 edi, DWORD PTR [ebx+4]
  0003c	85 ff		 test	 edi, edi
  0003e	74 35		 je	 SHORT $LN205@push_back
; File c:\program files (x86)\microsoft visual studio 14.0\vc\include\vector

; 1281 : 			this->_Getal().construct(this->_Mylast(),

  00040	6b f6 65	 imul	 esi, esi, 101
; File c:\program files (x86)\microsoft visual studio 14.0\vc\include\xmemory0

; 655  : 		::new ((void *)_Ptr) _Objty(_STD forward<_Types>(_Args)...);

  00043	b9 19 00 00 00	 mov	 ecx, 25			; 00000019H
; File c:\program files (x86)\microsoft visual studio 14.0\vc\include\vector

; 1281 : 			this->_Getal().construct(this->_Mylast(),

  00048	03 33		 add	 esi, DWORD PTR [ebx]
; File c:\program files (x86)\microsoft visual studio 14.0\vc\include\xmemory0

; 655  : 		::new ((void *)_Ptr) _Objty(_STD forward<_Types>(_Args)...);

  0004a	f3 a5		 rep movsd
  0004c	a4		 movsb
; File c:\program files (x86)\microsoft visual studio 14.0\vc\include\vector

; 1292 : 			++this->_Mylast();

  0004d	83 43 04 65	 add	 DWORD PTR [ebx+4], 101	; 00000065H
  00051	5f		 pop	 edi
  00052	5e		 pop	 esi
  00053	5b		 pop	 ebx

; 1293 : 			}
; 1294 : 		}

  00054	5d		 pop	 ebp
  00055	c2 04 00	 ret	 4
$LN2@push_back:

; 1282 : 				this->_Myfirst()[_Idx]);
; 1283 : 			++this->_Mylast();
; 1284 : 			}
; 1285 : 		else
; 1286 : 			{	// push back a non-element
; 1287 : 			if (this->_Mylast() == this->_Myend())

  00058	3b 4b 08	 cmp	 ecx, DWORD PTR [ebx+8]
  0005b	75 09		 jne	 SHORT $LN5@push_back

; 1288 : 				_Reserve(1);

  0005d	6a 01		 push	 1
  0005f	8b cb		 mov	 ecx, ebx
  00061	e8 00 00 00 00	 call	 ?_Reserve@?$vector@UNoticeConnectInfo@@V?$allocator@UNoticeConnectInfo@@@std@@@std@@IAEXI@Z ; std::vector<NoticeConnectInfo,std::allocator<NoticeConnectInfo> >::_Reserve
$LN5@push_back:
; File c:\program files (x86)\microsoft visual studio 14.0\vc\include\xmemory0

; 655  : 		::new ((void *)_Ptr) _Objty(_STD forward<_Types>(_Args)...);

  00066	8b 7b 04	 mov	 edi, DWORD PTR [ebx+4]
  00069	85 ff		 test	 edi, edi
  0006b	74 08		 je	 SHORT $LN205@push_back
  0006d	b9 19 00 00 00	 mov	 ecx, 25			; 00000019H
  00072	f3 a5		 rep movsd
  00074	a4		 movsb
$LN205@push_back:
; File c:\program files (x86)\microsoft visual studio 14.0\vc\include\vector

; 1292 : 			++this->_Mylast();

  00075	83 43 04 65	 add	 DWORD PTR [ebx+4], 101	; 00000065H
  00079	5f		 pop	 edi
  0007a	5e		 pop	 esi
  0007b	5b		 pop	 ebx

; 1293 : 			}
; 1294 : 		}

  0007c	5d		 pop	 ebp
  0007d	c2 04 00	 ret	 4
?push_back@?$vector@UNoticeConnectInfo@@V?$allocator@UNoticeConnectInfo@@@std@@@std@@QAEXABUNoticeConnectInfo@@@Z ENDP ; std::vector<NoticeConnectInfo,std::allocator<NoticeConnectInfo> >::push_back
_TEXT	ENDS
; Function compile flags: /Ogtp
; File c:\program files (x86)\microsoft visual studio 14.0\vc\include\vector
;	COMDAT ??A?$vector@UNoticeConnectInfo@@V?$allocator@UNoticeConnectInfo@@@std@@@std@@QAEAAUNoticeConnectInfo@@I@Z
_TEXT	SEGMENT
__Pos$ = 8						; size = 4
??A?$vector@UNoticeConnectInfo@@V?$allocator@UNoticeConnectInfo@@@std@@@std@@QAEAAUNoticeConnectInfo@@I@Z PROC ; std::vector<NoticeConnectInfo,std::allocator<NoticeConnectInfo> >::operator[], COMDAT
; _this$ = ecx

; 1228 : 		{	// subscript mutable sequence

  00000	55		 push	 ebp
  00001	8b ec		 mov	 ebp, esp

; 1229 :  #if _ITERATOR_DEBUG_LEVEL == 2
; 1230 : 		if (size() <= _Pos)
; 1231 : 			{	// report error
; 1232 : 			_DEBUG_ERROR("vector subscript out of range");
; 1233 : 			_SCL_SECURE_OUT_OF_RANGE;
; 1234 : 			}
; 1235 : 
; 1236 :  #elif _ITERATOR_DEBUG_LEVEL == 1
; 1237 : 		_SCL_SECURE_VALIDATE_RANGE(_Pos < size());
; 1238 :  #endif /* _ITERATOR_DEBUG_LEVEL */
; 1239 : 
; 1240 : 		return (*(this->_Myfirst() + _Pos));

  00003	6b 45 08 65	 imul	 eax, DWORD PTR __Pos$[ebp], 101
  00007	03 01		 add	 eax, DWORD PTR [ecx]

; 1241 : 		}

  00009	5d		 pop	 ebp
  0000a	c2 04 00	 ret	 4
??A?$vector@UNoticeConnectInfo@@V?$allocator@UNoticeConnectInfo@@@std@@@std@@QAEAAUNoticeConnectInfo@@I@Z ENDP ; std::vector<NoticeConnectInfo,std::allocator<NoticeConnectInfo> >::operator[]
_TEXT	ENDS
; Function compile flags: /Ogtp
; File c:\program files (x86)\microsoft visual studio 14.0\vc\include\vector
;	COMDAT ?empty@?$vector@UNoticeConnectInfo@@V?$allocator@UNoticeConnectInfo@@@std@@@std@@QBE_NXZ
_TEXT	SEGMENT
?empty@?$vector@UNoticeConnectInfo@@V?$allocator@UNoticeConnectInfo@@@std@@@std@@QBE_NXZ PROC ; std::vector<NoticeConnectInfo,std::allocator<NoticeConnectInfo> >::empty, COMDAT
; _this$ = ecx

; 1189 : 		return (this->_Myfirst() == this->_Mylast());

  00000	8b 11		 mov	 edx, DWORD PTR [ecx]
  00002	33 c0		 xor	 eax, eax
  00004	3b 51 04	 cmp	 edx, DWORD PTR [ecx+4]
  00007	0f 94 c0	 sete	 al

; 1190 : 		}

  0000a	c3		 ret	 0
?empty@?$vector@UNoticeConnectInfo@@V?$allocator@UNoticeConnectInfo@@@std@@@std@@QBE_NXZ ENDP ; std::vector<NoticeConnectInfo,std::allocator<NoticeConnectInfo> >::empty
_TEXT	ENDS
; Function compile flags: /Ogtp
; File c:\program files (x86)\microsoft visual studio 14.0\vc\include\vector
;	COMDAT ?max_size@?$vector@UNoticeConnectInfo@@V?$allocator@UNoticeConnectInfo@@@std@@@std@@QBEIXZ
_TEXT	SEGMENT
?max_size@?$vector@UNoticeConnectInfo@@V?$allocator@UNoticeConnectInfo@@@std@@@std@@QBEIXZ PROC ; std::vector<NoticeConnectInfo,std::allocator<NoticeConnectInfo> >::max_size, COMDAT
; _this$ = ecx

; 1184 : 		return (this->_Getal().max_size());

  00000	b8 0c df 88 02	 mov	 eax, 42524428		; 0288df0cH

; 1185 : 		}

  00005	c3		 ret	 0
?max_size@?$vector@UNoticeConnectInfo@@V?$allocator@UNoticeConnectInfo@@@std@@@std@@QBEIXZ ENDP ; std::vector<NoticeConnectInfo,std::allocator<NoticeConnectInfo> >::max_size
_TEXT	ENDS
; Function compile flags: /Ogtp
; File c:\program files (x86)\microsoft visual studio 14.0\vc\include\vector
;	COMDAT ?size@?$vector@UNoticeConnectInfo@@V?$allocator@UNoticeConnectInfo@@@std@@@std@@QBEIXZ
_TEXT	SEGMENT
?size@?$vector@UNoticeConnectInfo@@V?$allocator@UNoticeConnectInfo@@@std@@@std@@QBEIXZ PROC ; std::vector<NoticeConnectInfo,std::allocator<NoticeConnectInfo> >::size, COMDAT
; _this$ = ecx

; 1179 : 		return (this->_Mylast() - this->_Myfirst());

  00000	8b 51 04	 mov	 edx, DWORD PTR [ecx+4]
  00003	b8 cb f0 8d 28	 mov	 eax, 680390859		; 288df0cbH
  00008	2b 11		 sub	 edx, DWORD PTR [ecx]
  0000a	f7 ea		 imul	 edx
  0000c	c1 fa 04	 sar	 edx, 4
  0000f	8b c2		 mov	 eax, edx
  00011	c1 e8 1f	 shr	 eax, 31			; 0000001fH
  00014	03 c2		 add	 eax, edx

; 1180 : 		}

  00016	c3		 ret	 0
?size@?$vector@UNoticeConnectInfo@@V?$allocator@UNoticeConnectInfo@@@std@@@std@@QBEIXZ ENDP ; std::vector<NoticeConnectInfo,std::allocator<NoticeConnectInfo> >::size
_TEXT	ENDS
; Function compile flags: /Ogtp
; File c:\program files (x86)\microsoft visual studio 14.0\vc\include\vector
;	COMDAT ?_Unused_capacity@?$vector@UNoticeConnectInfo@@V?$allocator@UNoticeConnectInfo@@@std@@@std@@QBEIXZ
_TEXT	SEGMENT
?_Unused_capacity@?$vector@UNoticeConnectInfo@@V?$allocator@UNoticeConnectInfo@@@std@@@std@@QBEIXZ PROC ; std::vector<NoticeConnectInfo,std::allocator<NoticeConnectInfo> >::_Unused_capacity, COMDAT
; _this$ = ecx

; 1047 : 		return (this->_Myend() - this->_Mylast());

  00000	8b 51 08	 mov	 edx, DWORD PTR [ecx+8]
  00003	b8 cb f0 8d 28	 mov	 eax, 680390859		; 288df0cbH
  00008	2b 51 04	 sub	 edx, DWORD PTR [ecx+4]
  0000b	f7 ea		 imul	 edx
  0000d	c1 fa 04	 sar	 edx, 4
  00010	8b c2		 mov	 eax, edx
  00012	c1 e8 1f	 shr	 eax, 31			; 0000001fH
  00015	03 c2		 add	 eax, edx

; 1048 : 		}

  00017	c3		 ret	 0
?_Unused_capacity@?$vector@UNoticeConnectInfo@@V?$allocator@UNoticeConnectInfo@@@std@@@std@@QBEIXZ ENDP ; std::vector<NoticeConnectInfo,std::allocator<NoticeConnectInfo> >::_Unused_capacity
_TEXT	ENDS
; Function compile flags: /Ogtp
; File c:\program files (x86)\microsoft visual studio 14.0\vc\include\vector
;	COMDAT ?capacity@?$vector@UNoticeConnectInfo@@V?$allocator@UNoticeConnectInfo@@@std@@@std@@QBEIXZ
_TEXT	SEGMENT
?capacity@?$vector@UNoticeConnectInfo@@V?$allocator@UNoticeConnectInfo@@@std@@@std@@QBEIXZ PROC ; std::vector<NoticeConnectInfo,std::allocator<NoticeConnectInfo> >::capacity, COMDAT
; _this$ = ecx

; 1042 : 		return (this->_Myend() - this->_Myfirst());

  00000	8b 51 08	 mov	 edx, DWORD PTR [ecx+8]
  00003	b8 cb f0 8d 28	 mov	 eax, 680390859		; 288df0cbH
  00008	2b 11		 sub	 edx, DWORD PTR [ecx]
  0000a	f7 ea		 imul	 edx
  0000c	c1 fa 04	 sar	 edx, 4
  0000f	8b c2		 mov	 eax, edx
  00011	c1 e8 1f	 shr	 eax, 31			; 0000001fH
  00014	03 c2		 add	 eax, edx

; 1043 : 		}

  00016	c3		 ret	 0
?capacity@?$vector@UNoticeConnectInfo@@V?$allocator@UNoticeConnectInfo@@@std@@@std@@QBEIXZ ENDP ; std::vector<NoticeConnectInfo,std::allocator<NoticeConnectInfo> >::capacity
_TEXT	ENDS
; Function compile flags: /Ogtp
; File c:\program files (x86)\microsoft visual studio 14.0\vc\include\vector
;	COMDAT ??1?$vector@UNoticeConnectInfo@@V?$allocator@UNoticeConnectInfo@@@std@@@std@@QAE@XZ
_TEXT	SEGMENT
??1?$vector@UNoticeConnectInfo@@V?$allocator@UNoticeConnectInfo@@@std@@@std@@QAE@XZ PROC ; std::vector<NoticeConnectInfo,std::allocator<NoticeConnectInfo> >::~vector<NoticeConnectInfo,std::allocator<NoticeConnectInfo> >, COMDAT
; _this$ = ecx

; 974  : 		{	// destroy the object

  00000	56		 push	 esi
  00001	8b f1		 mov	 esi, ecx

; 977  : 
; 978  : 	_Myt& operator=(const _Myt& _Right)
; 979  : 		{	// assign _Right
; 980  : 		if (this != &_Right)
; 981  : 			{	// different, assign it
; 982  : 			if (this->_Getal() != _Right._Getal()
; 983  : 				&& _Alty::propagate_on_container_copy_assignment::value)
; 984  : 				{	// change allocator before copying
; 985  : 				_Tidy();
; 986  : 				this->_Copy_alloc(_Right._Getal());
; 987  : 				}
; 988  : 
; 989  : 			this->_Orphan_all();
; 990  : 
; 991  : 			if (_Right.empty())
; 992  : 				clear();	// new sequence empty, erase existing sequence
; 993  : 			else if (_Right.size() <= size())
; 994  : 				{	// enough elements, copy new and destroy old
; 995  : 				pointer _Ptr = _Copy_impl(_Right._Myfirst(),
; 996  : 					_Right._Mylast(), this->_Myfirst());	// copy new
; 997  : 				_Destroy(_Ptr, this->_Mylast());	// destroy old
; 998  : 				this->_Mylast() = this->_Myfirst() + _Right.size();
; 999  : 				}
; 1000 : 			else if (_Right.size() <= capacity())
; 1001 : 				{	// enough room, copy and construct new
; 1002 : 				pointer _Ptr = _Right._Myfirst() + size();
; 1003 : 				_Copy_impl(_Right._Myfirst(),
; 1004 : 					_Ptr, this->_Myfirst());
; 1005 : 				this->_Mylast() = _Ucopy(_Ptr, _Right._Mylast(),
; 1006 : 					this->_Mylast());
; 1007 : 				}
; 1008 : 			else
; 1009 : 				{	// not enough room, allocate new array and construct new
; 1010 : 				if (this->_Myfirst() != pointer())
; 1011 : 					{	// discard old array
; 1012 : 					_Destroy(this->_Myfirst(), this->_Mylast());
; 1013 : 					this->_Getal().deallocate(this->_Myfirst(),
; 1014 : 						this->_Myend() - this->_Myfirst());
; 1015 : 					}
; 1016 : 				if (_Buy(_Right.size()))
; 1017 : 					_TRY_BEGIN
; 1018 : 					this->_Mylast() =
; 1019 : 						_Ucopy(_Right._Myfirst(), _Right._Mylast(),
; 1020 : 						this->_Myfirst());
; 1021 : 					_CATCH_ALL
; 1022 : 					_Tidy();
; 1023 : 					_RERAISE;
; 1024 : 					_CATCH_END
; 1025 : 				}
; 1026 : 			}
; 1027 : 		return (*this);
; 1028 : 		}
; 1029 : 
; 1030 : 	void reserve(size_type _Count)
; 1031 : 		{	// determine new minimum length of allocated storage
; 1032 : 		if (capacity() < _Count)
; 1033 : 			{	// something to do, check and reallocate
; 1034 : 			if (max_size() < _Count)
; 1035 : 				_Xlen();
; 1036 : 			_Reallocate(_Count);
; 1037 : 			}
; 1038 : 		}
; 1039 : 
; 1040 : 	size_type capacity() const _NOEXCEPT
; 1041 : 		{	// return current length of allocated storage
; 1042 : 		return (this->_Myend() - this->_Myfirst());
; 1043 : 		}
; 1044 : 
; 1045 : 	size_type _Unused_capacity() const _NOEXCEPT
; 1046 : 		{	// micro-optimization for capacity() - size()
; 1047 : 		return (this->_Myend() - this->_Mylast());
; 1048 : 		}
; 1049 : 
; 1050 : 	size_type _Has_unused_capacity() const _NOEXCEPT
; 1051 : 		{	// micro-optimization for capacity() != size()
; 1052 : 		return (this->_Myend() != this->_Mylast());
; 1053 : 		}
; 1054 : 
; 1055 : 	iterator begin() _NOEXCEPT
; 1056 : 		{	// return iterator for beginning of mutable sequence
; 1057 : 		return (iterator(this->_Myfirst(), &this->_Get_data()));
; 1058 : 		}
; 1059 : 
; 1060 : 	const_iterator begin() const _NOEXCEPT
; 1061 : 		{	// return iterator for beginning of nonmutable sequence
; 1062 : 		return (const_iterator(this->_Myfirst(), &this->_Get_data()));
; 1063 : 		}
; 1064 : 
; 1065 : 	iterator end() _NOEXCEPT
; 1066 : 		{	// return iterator for end of mutable sequence
; 1067 : 		return (iterator(this->_Mylast(), &this->_Get_data()));
; 1068 : 		}
; 1069 : 
; 1070 : 	const_iterator end() const _NOEXCEPT
; 1071 : 		{	// return iterator for end of nonmutable sequence
; 1072 : 		return (const_iterator(this->_Mylast(), &this->_Get_data()));
; 1073 : 		}
; 1074 : 
; 1075 : 	iterator _Make_iter(const_iterator _Where) const
; 1076 : 		{	// make iterator from const_iterator
; 1077 : 		return (iterator(_Where._Ptr, &this->_Get_data()));
; 1078 : 		}
; 1079 : 
; 1080 : 	reverse_iterator rbegin() _NOEXCEPT
; 1081 : 		{	// return iterator for beginning of reversed mutable sequence
; 1082 : 		return (reverse_iterator(end()));
; 1083 : 		}
; 1084 : 
; 1085 : 	const_reverse_iterator rbegin() const _NOEXCEPT
; 1086 : 		{	// return iterator for beginning of reversed nonmutable sequence
; 1087 : 		return (const_reverse_iterator(end()));
; 1088 : 		}
; 1089 : 
; 1090 : 	reverse_iterator rend() _NOEXCEPT
; 1091 : 		{	// return iterator for end of reversed mutable sequence
; 1092 : 		return (reverse_iterator(begin()));
; 1093 : 		}
; 1094 : 
; 1095 : 	const_reverse_iterator rend() const _NOEXCEPT
; 1096 : 		{	// return iterator for end of reversed nonmutable sequence
; 1097 : 		return (const_reverse_iterator(begin()));
; 1098 : 		}
; 1099 : 
; 1100 : 	const_iterator cbegin() const _NOEXCEPT
; 1101 : 		{	// return iterator for beginning of nonmutable sequence
; 1102 : 		return (begin());
; 1103 : 		}
; 1104 : 
; 1105 : 	const_iterator cend() const _NOEXCEPT
; 1106 : 		{	// return iterator for end of nonmutable sequence
; 1107 : 		return (end());
; 1108 : 		}
; 1109 : 
; 1110 : 	const_reverse_iterator crbegin() const _NOEXCEPT
; 1111 : 		{	// return iterator for beginning of reversed nonmutable sequence
; 1112 : 		return (rbegin());
; 1113 : 		}
; 1114 : 
; 1115 : 	const_reverse_iterator crend() const _NOEXCEPT
; 1116 : 		{	// return iterator for end of reversed nonmutable sequence
; 1117 : 		return (rend());
; 1118 : 		}
; 1119 : 
; 1120 : 	void shrink_to_fit()
; 1121 : 		{	// reduce capacity
; 1122 : 		if (_Has_unused_capacity())
; 1123 : 			{	// worth shrinking, do it
; 1124 : 			if (empty())
; 1125 : 				_Tidy();
; 1126 : 			else
; 1127 : 				_Reallocate(size());
; 1128 : 			}
; 1129 : 		}
; 1130 : 
; 1131 : 	void resize(size_type _Newsize)
; 1132 : 		{	// determine new length, padding as needed
; 1133 : 		if (_Newsize < size())
; 1134 : 			_Pop_back_n(size() - _Newsize);
; 1135 : 		else if (size() < _Newsize)
; 1136 : 			{	// pad as needed
; 1137 : 			_Reserve(_Newsize - size());
; 1138 : 			_TRY_BEGIN
; 1139 : 			_Uninitialized_default_fill_n(this->_Mylast(), _Newsize - size(),
; 1140 : 				this->_Getal());
; 1141 : 			_CATCH_ALL
; 1142 : 			_Tidy();
; 1143 : 			_RERAISE;
; 1144 : 			_CATCH_END
; 1145 : 			this->_Mylast() += _Newsize - size();
; 1146 : 			}
; 1147 : 		}
; 1148 : 
; 1149 : 	void resize(size_type _Newsize, const value_type& _Val)
; 1150 : 		{	// determine new length, padding with _Val elements as needed
; 1151 : 		if (_Newsize < size())
; 1152 : 			_Pop_back_n(size() - _Newsize);
; 1153 : 		else if (size() < _Newsize)
; 1154 : 			{	// pad as needed
; 1155 : 			const value_type *_Ptr = _STD addressof(_Val);
; 1156 : 
; 1157 : 			if (_Inside(_Ptr))
; 1158 : 				{	// padding is inside vector, recompute _Ptr after reserve
; 1159 : 				const difference_type _Idx = _Ptr
; 1160 : 					- _STD addressof(*this->_Myfirst());
; 1161 : 				_Reserve(_Newsize - size());
; 1162 : 				_Ptr = _STD addressof(*this->_Myfirst()) + _Idx;
; 1163 : 				}
; 1164 : 			else
; 1165 : 				_Reserve(_Newsize - size());
; 1166 : 
; 1167 : 			_TRY_BEGIN
; 1168 : 			_Ufill(this->_Mylast(), _Newsize - size(), _Ptr);
; 1169 : 			_CATCH_ALL
; 1170 : 			_Tidy();
; 1171 : 			_RERAISE;
; 1172 : 			_CATCH_END
; 1173 : 			this->_Mylast() += _Newsize - size();
; 1174 : 			}
; 1175 : 		}
; 1176 : 
; 1177 : 	size_type size() const _NOEXCEPT
; 1178 : 		{	// return length of sequence
; 1179 : 		return (this->_Mylast() - this->_Myfirst());
; 1180 : 		}
; 1181 : 
; 1182 : 	size_type max_size() const _NOEXCEPT
; 1183 : 		{	// return maximum possible length of sequence
; 1184 : 		return (this->_Getal().max_size());
; 1185 : 		}
; 1186 : 
; 1187 : 	bool empty() const _NOEXCEPT
; 1188 : 		{	// test if sequence is empty
; 1189 : 		return (this->_Myfirst() == this->_Mylast());
; 1190 : 		}
; 1191 : 
; 1192 : 	_Alloc get_allocator() const _NOEXCEPT
; 1193 : 		{	// return allocator object for values
; 1194 : 		return (this->_Getal());
; 1195 : 		}
; 1196 : 
; 1197 : 	const_reference at(size_type _Pos) const
; 1198 : 		{	// subscript nonmutable sequence with checking
; 1199 : 		if (size() <= _Pos)
; 1200 : 			_Xran();
; 1201 : 		return (*(this->_Myfirst() + _Pos));
; 1202 : 		}
; 1203 : 
; 1204 : 	reference at(size_type _Pos)
; 1205 : 		{	// subscript mutable sequence with checking
; 1206 : 		if (size() <= _Pos)
; 1207 : 			_Xran();
; 1208 : 		return (*(this->_Myfirst() + _Pos));
; 1209 : 		}
; 1210 : 
; 1211 : 	const_reference operator[](size_type _Pos) const
; 1212 : 		{	// subscript nonmutable sequence
; 1213 :  #if _ITERATOR_DEBUG_LEVEL == 2
; 1214 : 		if (size() <= _Pos)
; 1215 : 			{	// report error
; 1216 : 			_DEBUG_ERROR("vector subscript out of range");
; 1217 : 			_SCL_SECURE_OUT_OF_RANGE;
; 1218 : 			}
; 1219 : 
; 1220 :  #elif _ITERATOR_DEBUG_LEVEL == 1
; 1221 : 		_SCL_SECURE_VALIDATE_RANGE(_Pos < size());
; 1222 :  #endif /* _ITERATOR_DEBUG_LEVEL */
; 1223 : 
; 1224 : 		return (*(this->_Myfirst() + _Pos));
; 1225 : 		}
; 1226 : 
; 1227 : 	reference operator[](size_type _Pos)
; 1228 : 		{	// subscript mutable sequence
; 1229 :  #if _ITERATOR_DEBUG_LEVEL == 2
; 1230 : 		if (size() <= _Pos)
; 1231 : 			{	// report error
; 1232 : 			_DEBUG_ERROR("vector subscript out of range");
; 1233 : 			_SCL_SECURE_OUT_OF_RANGE;
; 1234 : 			}
; 1235 : 
; 1236 :  #elif _ITERATOR_DEBUG_LEVEL == 1
; 1237 : 		_SCL_SECURE_VALIDATE_RANGE(_Pos < size());
; 1238 :  #endif /* _ITERATOR_DEBUG_LEVEL */
; 1239 : 
; 1240 : 		return (*(this->_Myfirst() + _Pos));
; 1241 : 		}
; 1242 : 
; 1243 : 	pointer data() _NOEXCEPT
; 1244 : 		{	// return address of first element
; 1245 : 		return (this->_Myfirst());
; 1246 : 		}
; 1247 : 
; 1248 : 	const_pointer data() const _NOEXCEPT
; 1249 : 		{	// return address of first element
; 1250 : 		return (this->_Myfirst());
; 1251 : 		}
; 1252 : 
; 1253 : 	reference front()
; 1254 : 		{	// return first element of mutable sequence
; 1255 : 		return (*begin());
; 1256 : 		}
; 1257 : 
; 1258 : 	const_reference front() const
; 1259 : 		{	// return first element of nonmutable sequence
; 1260 : 		return (*begin());
; 1261 : 		}
; 1262 : 
; 1263 : 	reference back()
; 1264 : 		{	// return last element of mutable sequence
; 1265 : 		return (*(end() - 1));
; 1266 : 		}
; 1267 : 
; 1268 : 	const_reference back() const
; 1269 : 		{	// return last element of nonmutable sequence
; 1270 : 		return (*(end() - 1));
; 1271 : 		}
; 1272 : 
; 1273 : 	void push_back(const value_type& _Val)
; 1274 : 		{	// insert element at end
; 1275 : 		if (_Inside(_STD addressof(_Val)))
; 1276 : 			{	// push back an element
; 1277 : 			size_type _Idx = _STD addressof(_Val) - this->_Myfirst();
; 1278 : 			if (this->_Mylast() == this->_Myend())
; 1279 : 				_Reserve(1);
; 1280 : 			_Orphan_range(this->_Mylast(), this->_Mylast());
; 1281 : 			this->_Getal().construct(this->_Mylast(),
; 1282 : 				this->_Myfirst()[_Idx]);
; 1283 : 			++this->_Mylast();
; 1284 : 			}
; 1285 : 		else
; 1286 : 			{	// push back a non-element
; 1287 : 			if (this->_Mylast() == this->_Myend())
; 1288 : 				_Reserve(1);
; 1289 : 			_Orphan_range(this->_Mylast(), this->_Mylast());
; 1290 : 			this->_Getal().construct(this->_Mylast(),
; 1291 : 				_Val);
; 1292 : 			++this->_Mylast();
; 1293 : 			}
; 1294 : 		}
; 1295 : 
; 1296 :  #if _ITERATOR_DEBUG_LEVEL == 2
; 1297 : 	void pop_back()
; 1298 : 		{	// erase element at end
; 1299 : 		if (empty())
; 1300 : 			_DEBUG_ERROR("vector empty before pop");
; 1301 : 		else
; 1302 : 			{	// erase last element
; 1303 : 			_Orphan_range(this->_Mylast() - 1, this->_Mylast());
; 1304 : 			this->_Getal().destroy(this->_Mylast() - 1);
; 1305 : 			--this->_Mylast();
; 1306 : 			}
; 1307 : 		}
; 1308 : 
; 1309 :  #else /* _ITERATOR_DEBUG_LEVEL == 2 */
; 1310 : 	void pop_back()
; 1311 : 		{	// erase element at end
; 1312 : 		this->_Getal().destroy(this->_Mylast() - 1);
; 1313 : 		--this->_Mylast();
; 1314 : 		}
; 1315 :  #endif /* _ITERATOR_DEBUG_LEVEL == 2 */
; 1316 : 
; 1317 : 	template<class _Iter>
; 1318 : 		typename enable_if<_Is_iterator<_Iter>::value,
; 1319 : 			void>::type
; 1320 : 		assign(_Iter _First, _Iter _Last)
; 1321 : 		{	// assign [_First, _Last)
; 1322 : 		clear();
; 1323 : 		_Assign(_First, _Last, _Iter_cat(_First));
; 1324 : 		}
; 1325 : 
; 1326 : 	template<class _Iter>
; 1327 : 		void _Assign(_Iter _First, _Iter _Last,
; 1328 : 			input_iterator_tag)
; 1329 : 		{	// assign [_First, _Last), input iterators
; 1330 : 		for (; _First != _Last; ++_First)
; 1331 : 			emplace_back(*_First);
; 1332 : 		}
; 1333 : 
; 1334 : 	template<class _Iter>
; 1335 : 		void _Assign(_Iter _First, _Iter _Last,
; 1336 : 			forward_iterator_tag)
; 1337 : 		{	// assign [_First, _Last), forward iterators
; 1338 : 		size_type _Newsize = _STD distance(_First, _Last);
; 1339 : 
; 1340 : 		if (capacity() < _Newsize)
; 1341 : 			{	// need more room, try to get it
; 1342 : 			size_type _Newcapacity = _Grow_to(_Newsize);
; 1343 : 			_Tidy();
; 1344 : 			_Buy(_Newcapacity);
; 1345 : 			}
; 1346 : 
; 1347 : 		this->_Mylast() = _Ucopy(_First, _Last, this->_Myfirst());
; 1348 : 		}
; 1349 : 
; 1350 : 	void assign(size_type _Count, const value_type& _Val)
; 1351 : 		{	// assign _Count * _Val
; 1352 : 		clear();
; 1353 : 		insert(begin(), _Count, _Val);
; 1354 : 		}
; 1355 : 
; 1356 : 	iterator insert(const_iterator _Where, const _Ty& _Val)
; 1357 : 		{	// insert _Val at _Where
; 1358 : 		return (_Insert_n(_Where, (size_type)1, _Val));
; 1359 : 		}
; 1360 : 
; 1361 : 	iterator insert(const_iterator _Where, size_type _Count,
; 1362 : 		const _Ty& _Val)
; 1363 : 		{	// insert _Count * _Val at _Where
; 1364 : 		return (_Insert_n(_Where, _Count, _Val));
; 1365 : 		}
; 1366 : 
; 1367 : 	template<class _Iter>
; 1368 : 		typename enable_if<_Is_iterator<_Iter>::value,
; 1369 : 			iterator>::type
; 1370 : 		insert(const_iterator _Where, _Iter _First, _Iter _Last)
; 1371 : 		{	// insert [_First, _Last) at _Where
; 1372 : 		size_type _Off = _VIPTR(_Where) - this->_Myfirst();
; 1373 : 		_Insert(_Where, _First, _Last, _Iter_cat(_First));
; 1374 : 		return (begin() + _Off);
; 1375 : 		}
; 1376 : 
; 1377 : 	template<class _Iter>
; 1378 : 		void _Insert(const_iterator _Where,
; 1379 : 			_Iter _First, _Iter _Last,
; 1380 : 				input_iterator_tag)
; 1381 : 		{	// insert [_First, _Last) at _Where, input iterators
; 1382 : 		size_type _Off = _VIPTR(_Where) - this->_Myfirst();
; 1383 : 
; 1384 :  #if _ITERATOR_DEBUG_LEVEL == 2
; 1385 : 		if (size() < _Off)
; 1386 : 			_DEBUG_ERROR("vector insert iterator outside range");
; 1387 :  #endif /* _ITERATOR_DEBUG_LEVEL == 2 */
; 1388 : 
; 1389 : 		if (_First != _Last)
; 1390 : 			{	// worth doing, gather at end and rotate into place
; 1391 : 			size_type _Oldsize = size();
; 1392 : 
; 1393 : 			_TRY_BEGIN
; 1394 : 			for (; _First != _Last; ++_First)
; 1395 : 				push_back(*_First);	// append
; 1396 : 
; 1397 : 			_CATCH_ALL
; 1398 : 			erase(begin() + _Oldsize, end());
; 1399 : 			_RERAISE;
; 1400 : 			_CATCH_END
; 1401 : 
; 1402 : 			_STD rotate(begin() + _Off, begin() + _Oldsize, end());
; 1403 : 			}
; 1404 : 		}
; 1405 : 
; 1406 : 	template<class _Iter>
; 1407 : 		void _Insert(const_iterator _Where,
; 1408 : 			_Iter _First, _Iter _Last,
; 1409 : 				forward_iterator_tag)
; 1410 : 		{	// insert [_First, _Last) at _Where, forward iterators
; 1411 :  #if _ITERATOR_DEBUG_LEVEL == 2
; 1412 : 		if (_VICONT(_Where) != &this->_Get_data()
; 1413 : 			|| _VIPTR(_Where) < this->_Myfirst()
; 1414 : 			|| this->_Mylast() < _VIPTR(_Where))
; 1415 : 			_DEBUG_ERROR("vector insert iterator outside range");
; 1416 : 		_DEBUG_RANGE(_First, _Last);
; 1417 :  #endif /* _ITERATOR_DEBUG_LEVEL == 2 */
; 1418 : 
; 1419 : 		size_type _Count = 0;
; 1420 : 		_Distance(_First, _Last, _Count);
; 1421 : 
; 1422 : 		if (_Count == 0)
; 1423 : 			;
; 1424 : 		else if (_Unused_capacity() < _Count)
; 1425 : 			{	// not enough room, reallocate
; 1426 : 			if (max_size() - size() < _Count)
; 1427 : 				_Xlen();	// result too long
; 1428 : 
; 1429 : 			size_type _Capacity = _Grow_to(size() + _Count);
; 1430 : 			pointer _Newvec = this->_Getal().allocate(_Capacity);
; 1431 : 			pointer _Ptr = _Newvec;
; 1432 : 
; 1433 : 			_TRY_BEGIN
; 1434 : 			_Ptr = _Umove(this->_Myfirst(), _VIPTR(_Where),
; 1435 : 				_Newvec);	// copy prefix
; 1436 : 			_Ptr = _Ucopy(_First, _Last, _Ptr);	// add new stuff
; 1437 : 			_Umove(_VIPTR(_Where), this->_Mylast(),
; 1438 : 				_Ptr);	// copy suffix
; 1439 : 			_CATCH_ALL
; 1440 : 			_Destroy(_Newvec, _Ptr);
; 1441 : 			this->_Getal().deallocate(_Newvec, _Capacity);
; 1442 : 			_RERAISE;
; 1443 : 			_CATCH_END
; 1444 : 
; 1445 : 			_Count += size();
; 1446 : 			if (this->_Myfirst() != pointer())
; 1447 : 				{	// destroy and deallocate old array
; 1448 : 				_Destroy(this->_Myfirst(), this->_Mylast());
; 1449 : 				this->_Getal().deallocate(this->_Myfirst(),
; 1450 : 					this->_Myend() - this->_Myfirst());
; 1451 : 				}
; 1452 : 
; 1453 : 			this->_Orphan_all();
; 1454 : 			this->_Myend() = _Newvec + _Capacity;
; 1455 : 			this->_Mylast() = _Newvec + _Count;
; 1456 : 			this->_Myfirst() = _Newvec;
; 1457 : 			}
; 1458 : 		else
; 1459 : 			{	// new stuff fits, append and rotate into place
; 1460 : 			_Ucopy(_First, _Last, this->_Mylast());
; 1461 : 			_STD rotate(_VIPTR(_Where), this->_Mylast(),
; 1462 : 				this->_Mylast() + _Count);
; 1463 : 			this->_Mylast() += _Count;
; 1464 : 			_Orphan_range(_VIPTR(_Where), this->_Mylast());
; 1465 : 			}
; 1466 : 		}
; 1467 : 
; 1468 :  #if _ITERATOR_DEBUG_LEVEL == 2
; 1469 : 	iterator erase(const_iterator _Where)
; 1470 : 		{	// erase element at where
; 1471 : 		if (_VICONT(_Where) != &this->_Get_data()
; 1472 : 			|| _VIPTR(_Where) < this->_Myfirst()
; 1473 : 			|| this->_Mylast() <= _VIPTR(_Where))
; 1474 : 			_DEBUG_ERROR("vector erase iterator outside range");
; 1475 : 		_Move(_VIPTR(_Where) + 1, this->_Mylast(), _VIPTR(_Where));
; 1476 : 		_Destroy(this->_Mylast() - 1, this->_Mylast());
; 1477 : 		_Orphan_range(_VIPTR(_Where), this->_Mylast());
; 1478 : 		--this->_Mylast();
; 1479 : 		return (_Make_iter(_Where));
; 1480 : 		}
; 1481 : 
; 1482 :  #else /* _ITERATOR_DEBUG_LEVEL == 2 */
; 1483 : 	iterator erase(const_iterator _Where)
; 1484 : 		{	// erase element at where
; 1485 : 		_Move(_VIPTR(_Where) + 1, this->_Mylast(),
; 1486 : 			_VIPTR(_Where));
; 1487 : 		_Destroy(this->_Mylast() - 1, this->_Mylast());
; 1488 : 		--this->_Mylast();
; 1489 : 		return (_Make_iter(_Where));
; 1490 : 		}
; 1491 :  #endif /* _ITERATOR_DEBUG_LEVEL == 2 */
; 1492 : 
; 1493 : 	iterator erase(const_iterator _First_arg,
; 1494 : 		const_iterator _Last_arg)
; 1495 : 		{	// erase [_First, _Last)
; 1496 : 		if (_First_arg == begin() && _Last_arg == end())
; 1497 : 			clear();
; 1498 : 		else if (_First_arg != _Last_arg)
; 1499 : 			{	// clear partial
; 1500 : 			iterator _First = _Make_iter(_First_arg);
; 1501 : 			iterator _Last = _Make_iter(_Last_arg);
; 1502 : 
; 1503 : 			if (_First != _Last)
; 1504 : 				{	// worth doing, copy down over hole
; 1505 :  #if _ITERATOR_DEBUG_LEVEL == 2
; 1506 : 				if (_Last < _First || _VICONT(_First) != &this->_Get_data()
; 1507 : 					|| _VIPTR(_First) < this->_Myfirst()
; 1508 : 					|| this->_Mylast() < _VIPTR(_Last))
; 1509 : 					_DEBUG_ERROR("vector erase iterator outside range");
; 1510 : 				pointer _Ptr = _Move(_VIPTR(_Last), this->_Mylast(),
; 1511 : 					_VIPTR(_First));
; 1512 : 				_Orphan_range(_VIPTR(_First), this->_Mylast());
; 1513 : 
; 1514 :  #else /* _ITERATOR_DEBUG_LEVEL == 2 */
; 1515 : 				pointer _Ptr = _Move(_VIPTR(_Last), this->_Mylast(),
; 1516 : 					_VIPTR(_First));
; 1517 :  #endif /* _ITERATOR_DEBUG_LEVEL == 2 */
; 1518 : 
; 1519 : 				_Destroy(_Ptr, this->_Mylast());
; 1520 : 				this->_Mylast() = _Ptr;
; 1521 : 				}
; 1522 : 			}
; 1523 : 		return (_Make_iter(_First_arg));
; 1524 : 		}
; 1525 : 
; 1526 : 	void _Pop_back_n(size_type _Count)
; 1527 : 		{	// erase _Count elements at end
; 1528 : 		pointer _Ptr = this->_Mylast() - _Count;
; 1529 : 
; 1530 :  #if _ITERATOR_DEBUG_LEVEL == 2
; 1531 : 		_Orphan_range(_Ptr, this->_Mylast());
; 1532 :  #endif /* _ITERATOR_DEBUG_LEVEL == 2 */
; 1533 : 
; 1534 : 		_Destroy(_Ptr, this->_Mylast());
; 1535 : 		this->_Mylast() = _Ptr;
; 1536 : 		}
; 1537 : 
; 1538 : 	void clear() _NOEXCEPT
; 1539 : 		{	// erase all
; 1540 : 		this->_Orphan_all();
; 1541 : 		_Destroy(this->_Myfirst(), this->_Mylast());
; 1542 : 		this->_Mylast() = this->_Myfirst();
; 1543 : 		}
; 1544 : 
; 1545 : 	void swap(_Myt& _Right)
; 1546 : 		_NOEXCEPT_OP(_Alty::propagate_on_container_swap::value
; 1547 : 			|| _Alty::is_always_equal::value)
; 1548 : 		{	// exchange contents with _Right
; 1549 : 		if (this == &_Right)
; 1550 : 			;	// same object, do nothing
; 1551 : 		else if (this->_Getal() == _Right._Getal())
; 1552 : 			{	// same allocator, swap control information
; 1553 : 			this->_Swap_all(_Right);
; 1554 : 			_Swap_adl(this->_Myfirst(), _Right._Myfirst());
; 1555 : 			_Swap_adl(this->_Mylast(), _Right._Mylast());
; 1556 : 			_Swap_adl(this->_Myend(), _Right._Myend());
; 1557 : 			}
; 1558 : 
; 1559 : 		else if (_Alty::propagate_on_container_swap::value)
; 1560 : 			{	// swap allocators and control information
; 1561 : 			this->_Swap_alloc(_Right);
; 1562 : 			_Swap_adl(this->_Myfirst(), _Right._Myfirst());
; 1563 : 			_Swap_adl(this->_Mylast(), _Right._Mylast());
; 1564 : 			_Swap_adl(this->_Myend(), _Right._Myend());
; 1565 : 			}
; 1566 : 
; 1567 : 		else
; 1568 : 			{	// containers are incompatible
; 1569 :  #if _ITERATOR_DEBUG_LEVEL == 2
; 1570 : 			_DEBUG_ERROR("vector containers incompatible for swap");
; 1571 : 
; 1572 :  #else /* ITERATOR_DEBUG_LEVEL == 2 */
; 1573 : 			_XSTD terminate();
; 1574 :  #endif /* ITERATOR_DEBUG_LEVEL == 2 */
; 1575 : 			}
; 1576 : 		}
; 1577 : 
; 1578 : protected:
; 1579 : 	bool _Buy(size_type _Capacity)
; 1580 : 		{	// allocate array with _Capacity elements
; 1581 : 		this->_Myfirst() = pointer();
; 1582 : 		this->_Mylast() = pointer();
; 1583 : 		this->_Myend() = pointer();
; 1584 : 
; 1585 : 		if (_Capacity == 0)
; 1586 : 			return (false);
; 1587 : 		else if (max_size() < _Capacity)
; 1588 : 			_Xlen();	// result too long
; 1589 : 		else
; 1590 : 			{	// nonempty array, allocate storage
; 1591 : 			this->_Myfirst() = this->_Getal().allocate(_Capacity);
; 1592 : 			this->_Mylast() = this->_Myfirst();
; 1593 : 			this->_Myend() = this->_Myfirst() + _Capacity;
; 1594 : 			}
; 1595 : 		return (true);
; 1596 : 		}
; 1597 : 
; 1598 : 	void _Destroy(pointer _First, pointer _Last)
; 1599 : 		{	// destroy [_First, _Last) using allocator
; 1600 : 		_Destroy_range(_First, _Last, this->_Getal());
; 1601 : 		}
; 1602 : 
; 1603 : 	size_type _Grow_to(size_type _Count) const
; 1604 : 		{	// grow by 50% or at least to _Count
; 1605 : 		size_type _Capacity = capacity();
; 1606 : 
; 1607 : 		_Capacity = max_size() - _Capacity / 2 < _Capacity
; 1608 : 			? 0 : _Capacity + _Capacity / 2;	// try to grow by 50%
; 1609 : 		if (_Capacity < _Count)
; 1610 : 			_Capacity = _Count;
; 1611 : 		return (_Capacity);
; 1612 : 		}
; 1613 : 
; 1614 : 	bool _Inside(const value_type *_Ptr) const
; 1615 : 		{	// test if _Ptr points inside vector
; 1616 : 		return (_Ptr < this->_Mylast() && this->_Myfirst() <= _Ptr);
; 1617 : 		}
; 1618 : 
; 1619 : 	void _Reallocate(size_type _Count)
; 1620 : 		{	// move to array of exactly _Count elements
; 1621 : 		pointer _Ptr = this->_Getal().allocate(_Count);
; 1622 : 
; 1623 : 		_TRY_BEGIN
; 1624 : 		_Umove(this->_Myfirst(), this->_Mylast(), _Ptr);
; 1625 : 		_CATCH_ALL
; 1626 : 		this->_Getal().deallocate(_Ptr, _Count);
; 1627 : 		_RERAISE;
; 1628 : 		_CATCH_END
; 1629 : 
; 1630 : 		size_type _Size = size();
; 1631 : 		if (this->_Myfirst() != pointer())
; 1632 : 			{	// destroy and deallocate old array
; 1633 : 			_Destroy(this->_Myfirst(), this->_Mylast());
; 1634 : 			this->_Getal().deallocate(this->_Myfirst(),
; 1635 : 				this->_Myend() - this->_Myfirst());
; 1636 : 			}
; 1637 : 
; 1638 : 		this->_Orphan_all();
; 1639 : 		this->_Myend() = _Ptr + _Count;
; 1640 : 		this->_Mylast() = _Ptr + _Size;
; 1641 : 		this->_Myfirst() = _Ptr;
; 1642 : 		}
; 1643 : 
; 1644 : 	void _Reserve(size_type _Count)
; 1645 : 		{	// ensure room for _Count new elements, grow exponentially
; 1646 : 		if (_Unused_capacity() < _Count)
; 1647 : 			{	// need more room, try to get it
; 1648 : 			if (max_size() - size() < _Count)
; 1649 : 				_Xlen();
; 1650 : 			_Reallocate(_Grow_to(size() + _Count));
; 1651 : 			}
; 1652 : 		}
; 1653 : 
; 1654 : 	void _Tidy()
; 1655 : 		{	// free all storage
; 1656 : 		if (this->_Myfirst() != pointer())

  00003	8b 0e		 mov	 ecx, DWORD PTR [esi]
  00005	85 c9		 test	 ecx, ecx
  00007	74 33		 je	 SHORT $LN4@vector

; 1657 : 			{	// something to free, destroy and deallocate it
; 1658 : 			this->_Orphan_all();
; 1659 : 			_Destroy(this->_Myfirst(), this->_Mylast());
; 1660 : 			this->_Getal().deallocate(this->_Myfirst(),

  00009	8b 56 08	 mov	 edx, DWORD PTR [esi+8]
  0000c	b8 cb f0 8d 28	 mov	 eax, 680390859		; 288df0cbH
  00011	2b d1		 sub	 edx, ecx
  00013	f7 ea		 imul	 edx
  00015	c1 fa 04	 sar	 edx, 4
  00018	8b c2		 mov	 eax, edx
  0001a	c1 e8 1f	 shr	 eax, 31			; 0000001fH
  0001d	03 c2		 add	 eax, edx
  0001f	50		 push	 eax
  00020	51		 push	 ecx
  00021	8b ce		 mov	 ecx, esi
  00023	e8 00 00 00 00	 call	 ?deallocate@?$_Wrap_alloc@V?$allocator@UNoticeConnectInfo@@@std@@@std@@QAEXPAUNoticeConnectInfo@@I@Z ; std::_Wrap_alloc<std::allocator<NoticeConnectInfo> >::deallocate

; 1661 : 				this->_Myend() - this->_Myfirst());
; 1662 : 			this->_Myfirst() = pointer();

  00028	c7 06 00 00 00
	00		 mov	 DWORD PTR [esi], 0

; 1663 : 			this->_Mylast() = pointer();

  0002e	c7 46 04 00 00
	00 00		 mov	 DWORD PTR [esi+4], 0

; 1664 : 			this->_Myend() = pointer();

  00035	c7 46 08 00 00
	00 00		 mov	 DWORD PTR [esi+8], 0
$LN4@vector:
  0003c	5e		 pop	 esi

; 975  : 		_Tidy();
; 976  : 		}

  0003d	c3		 ret	 0
??1?$vector@UNoticeConnectInfo@@V?$allocator@UNoticeConnectInfo@@@std@@@std@@QAE@XZ ENDP ; std::vector<NoticeConnectInfo,std::allocator<NoticeConnectInfo> >::~vector<NoticeConnectInfo,std::allocator<NoticeConnectInfo> >
_TEXT	ENDS
; Function compile flags: /Ogtp
; File c:\program files (x86)\microsoft visual studio 14.0\vc\include\vector
;	COMDAT ??0?$vector@UNoticeConnectInfo@@V?$allocator@UNoticeConnectInfo@@@std@@@std@@QAE@XZ
_TEXT	SEGMENT
??0?$vector@UNoticeConnectInfo@@V?$allocator@UNoticeConnectInfo@@@std@@@std@@QAE@XZ PROC ; std::vector<NoticeConnectInfo,std::allocator<NoticeConnectInfo> >::vector<NoticeConnectInfo,std::allocator<NoticeConnectInfo> >, COMDAT
; _this$ = ecx

; 480  : 		_Myfirst = pointer();

  00000	c7 01 00 00 00
	00		 mov	 DWORD PTR [ecx], 0

; 707  : 		}

  00006	8b c1		 mov	 eax, ecx

; 481  : 		_Mylast = pointer();

  00008	c7 41 04 00 00
	00 00		 mov	 DWORD PTR [ecx+4], 0

; 482  : 		_Myend = pointer();

  0000f	c7 41 08 00 00
	00 00		 mov	 DWORD PTR [ecx+8], 0

; 707  : 		}

  00016	c3		 ret	 0
??0?$vector@UNoticeConnectInfo@@V?$allocator@UNoticeConnectInfo@@@std@@@std@@QAE@XZ ENDP ; std::vector<NoticeConnectInfo,std::allocator<NoticeConnectInfo> >::vector<NoticeConnectInfo,std::allocator<NoticeConnectInfo> >
_TEXT	ENDS
; Function compile flags: /Ogtp
; File c:\program files (x86)\microsoft visual studio 14.0\vc\include\xutility
;	COMDAT ?_Get_second@?$_Compressed_pair@U?$_Wrap_alloc@V?$allocator@UNoticeConnectInfo@@@std@@@std@@V?$_Vector_val@U?$_Simple_types@UNoticeConnectInfo@@@std@@@2@$00@std@@QBEABV?$_Vector_val@U?$_Simple_types@UNoticeConnectInfo@@@std@@@2@XZ
_TEXT	SEGMENT
?_Get_second@?$_Compressed_pair@U?$_Wrap_alloc@V?$allocator@UNoticeConnectInfo@@@std@@@std@@V?$_Vector_val@U?$_Simple_types@UNoticeConnectInfo@@@std@@@2@$00@std@@QBEABV?$_Vector_val@U?$_Simple_types@UNoticeConnectInfo@@@std@@@2@XZ PROC ; std::_Compressed_pair<std::_Wrap_alloc<std::allocator<NoticeConnectInfo> >,std::_Vector_val<std::_Simple_types<NoticeConnectInfo> >,1>::_Get_second, COMDAT
; _this$ = ecx

; 319  : 		return (_Myval2);

  00000	8b c1		 mov	 eax, ecx

; 320  : 		}

  00002	c3		 ret	 0
?_Get_second@?$_Compressed_pair@U?$_Wrap_alloc@V?$allocator@UNoticeConnectInfo@@@std@@@std@@V?$_Vector_val@U?$_Simple_types@UNoticeConnectInfo@@@std@@@2@$00@std@@QBEABV?$_Vector_val@U?$_Simple_types@UNoticeConnectInfo@@@std@@@2@XZ ENDP ; std::_Compressed_pair<std::_Wrap_alloc<std::allocator<NoticeConnectInfo> >,std::_Vector_val<std::_Simple_types<NoticeConnectInfo> >,1>::_Get_second
_TEXT	ENDS
; Function compile flags: /Ogtp
; File c:\program files (x86)\microsoft visual studio 14.0\vc\include\xutility
;	COMDAT ?_Get_second@?$_Compressed_pair@U?$_Wrap_alloc@V?$allocator@UNoticeConnectInfo@@@std@@@std@@V?$_Vector_val@U?$_Simple_types@UNoticeConnectInfo@@@std@@@2@$00@std@@QAEAAV?$_Vector_val@U?$_Simple_types@UNoticeConnectInfo@@@std@@@2@XZ
_TEXT	SEGMENT
?_Get_second@?$_Compressed_pair@U?$_Wrap_alloc@V?$allocator@UNoticeConnectInfo@@@std@@@std@@V?$_Vector_val@U?$_Simple_types@UNoticeConnectInfo@@@std@@@2@$00@std@@QAEAAV?$_Vector_val@U?$_Simple_types@UNoticeConnectInfo@@@std@@@2@XZ PROC ; std::_Compressed_pair<std::_Wrap_alloc<std::allocator<NoticeConnectInfo> >,std::_Vector_val<std::_Simple_types<NoticeConnectInfo> >,1>::_Get_second, COMDAT
; _this$ = ecx

; 314  : 		return (_Myval2);

  00000	8b c1		 mov	 eax, ecx

; 315  : 		}

  00002	c3		 ret	 0
?_Get_second@?$_Compressed_pair@U?$_Wrap_alloc@V?$allocator@UNoticeConnectInfo@@@std@@@std@@V?$_Vector_val@U?$_Simple_types@UNoticeConnectInfo@@@std@@@2@$00@std@@QAEAAV?$_Vector_val@U?$_Simple_types@UNoticeConnectInfo@@@std@@@2@XZ ENDP ; std::_Compressed_pair<std::_Wrap_alloc<std::allocator<NoticeConnectInfo> >,std::_Vector_val<std::_Simple_types<NoticeConnectInfo> >,1>::_Get_second
_TEXT	ENDS
; Function compile flags: /Ogtp
; File c:\program files (x86)\microsoft visual studio 14.0\vc\include\xutility
;	COMDAT ?_Get_first@?$_Compressed_pair@U?$_Wrap_alloc@V?$allocator@UNoticeConnectInfo@@@std@@@std@@V?$_Vector_val@U?$_Simple_types@UNoticeConnectInfo@@@std@@@2@$00@std@@QBEABU?$_Wrap_alloc@V?$allocator@UNoticeConnectInfo@@@std@@@2@XZ
_TEXT	SEGMENT
?_Get_first@?$_Compressed_pair@U?$_Wrap_alloc@V?$allocator@UNoticeConnectInfo@@@std@@@std@@V?$_Vector_val@U?$_Simple_types@UNoticeConnectInfo@@@std@@@2@$00@std@@QBEABU?$_Wrap_alloc@V?$allocator@UNoticeConnectInfo@@@std@@@2@XZ PROC ; std::_Compressed_pair<std::_Wrap_alloc<std::allocator<NoticeConnectInfo> >,std::_Vector_val<std::_Simple_types<NoticeConnectInfo> >,1>::_Get_first, COMDAT
; _this$ = ecx

; 299  : 		return (*this);

  00000	8b c1		 mov	 eax, ecx

; 300  : 		}

  00002	c3		 ret	 0
?_Get_first@?$_Compressed_pair@U?$_Wrap_alloc@V?$allocator@UNoticeConnectInfo@@@std@@@std@@V?$_Vector_val@U?$_Simple_types@UNoticeConnectInfo@@@std@@@2@$00@std@@QBEABU?$_Wrap_alloc@V?$allocator@UNoticeConnectInfo@@@std@@@2@XZ ENDP ; std::_Compressed_pair<std::_Wrap_alloc<std::allocator<NoticeConnectInfo> >,std::_Vector_val<std::_Simple_types<NoticeConnectInfo> >,1>::_Get_first
_TEXT	ENDS
; Function compile flags: /Ogtp
; File c:\program files (x86)\microsoft visual studio 14.0\vc\include\xutility
;	COMDAT ?_Get_first@?$_Compressed_pair@U?$_Wrap_alloc@V?$allocator@UNoticeConnectInfo@@@std@@@std@@V?$_Vector_val@U?$_Simple_types@UNoticeConnectInfo@@@std@@@2@$00@std@@QAEAAU?$_Wrap_alloc@V?$allocator@UNoticeConnectInfo@@@std@@@2@XZ
_TEXT	SEGMENT
?_Get_first@?$_Compressed_pair@U?$_Wrap_alloc@V?$allocator@UNoticeConnectInfo@@@std@@@std@@V?$_Vector_val@U?$_Simple_types@UNoticeConnectInfo@@@std@@@2@$00@std@@QAEAAU?$_Wrap_alloc@V?$allocator@UNoticeConnectInfo@@@std@@@2@XZ PROC ; std::_Compressed_pair<std::_Wrap_alloc<std::allocator<NoticeConnectInfo> >,std::_Vector_val<std::_Simple_types<NoticeConnectInfo> >,1>::_Get_first, COMDAT
; _this$ = ecx

; 294  : 		return (*this);

  00000	8b c1		 mov	 eax, ecx

; 295  : 		}

  00002	c3		 ret	 0
?_Get_first@?$_Compressed_pair@U?$_Wrap_alloc@V?$allocator@UNoticeConnectInfo@@@std@@@std@@V?$_Vector_val@U?$_Simple_types@UNoticeConnectInfo@@@std@@@2@$00@std@@QAEAAU?$_Wrap_alloc@V?$allocator@UNoticeConnectInfo@@@std@@@2@XZ ENDP ; std::_Compressed_pair<std::_Wrap_alloc<std::allocator<NoticeConnectInfo> >,std::_Vector_val<std::_Simple_types<NoticeConnectInfo> >,1>::_Get_first
_TEXT	ENDS
; Function compile flags: /Ogtp
; File c:\program files (x86)\microsoft visual studio 14.0\vc\include\vector
;	COMDAT ??0?$_Vector_val@U?$_Simple_types@UNoticeConnectInfo@@@std@@@std@@QAE@XZ
_TEXT	SEGMENT
??0?$_Vector_val@U?$_Simple_types@UNoticeConnectInfo@@@std@@@std@@QAE@XZ PROC ; std::_Vector_val<std::_Simple_types<NoticeConnectInfo> >::_Vector_val<std::_Simple_types<NoticeConnectInfo> >, COMDAT
; _this$ = ecx

; 479  : 		{	// initialize values
; 480  : 		_Myfirst = pointer();

  00000	c7 01 00 00 00
	00		 mov	 DWORD PTR [ecx], 0

; 481  : 		_Mylast = pointer();
; 482  : 		_Myend = pointer();
; 483  : 		}

  00006	8b c1		 mov	 eax, ecx
  00008	c7 41 04 00 00
	00 00		 mov	 DWORD PTR [ecx+4], 0
  0000f	c7 41 08 00 00
	00 00		 mov	 DWORD PTR [ecx+8], 0
  00016	c3		 ret	 0
??0?$_Vector_val@U?$_Simple_types@UNoticeConnectInfo@@@std@@@std@@QAE@XZ ENDP ; std::_Vector_val<std::_Simple_types<NoticeConnectInfo> >::_Vector_val<std::_Simple_types<NoticeConnectInfo> >
_TEXT	ENDS
; Function compile flags: /Ogtp
; File c:\program files (x86)\microsoft visual studio 14.0\vc\include\vector
;	COMDAT ?_Myend@?$_Vector_alloc@U?$_Vec_base_types@UNoticeConnectInfo@@V?$allocator@UNoticeConnectInfo@@@std@@@std@@@std@@QBEABQAUNoticeConnectInfo@@XZ
_TEXT	SEGMENT
?_Myend@?$_Vector_alloc@U?$_Vec_base_types@UNoticeConnectInfo@@V?$allocator@UNoticeConnectInfo@@@std@@@std@@@std@@QBEABQAUNoticeConnectInfo@@XZ PROC ; std::_Vector_alloc<std::_Vec_base_types<NoticeConnectInfo,std::allocator<NoticeConnectInfo> > >::_Myend, COMDAT
; _this$ = ecx

; 667  : 		return (_Get_data()._Myend);

  00000	8d 41 08	 lea	 eax, DWORD PTR [ecx+8]

; 668  : 		}

  00003	c3		 ret	 0
?_Myend@?$_Vector_alloc@U?$_Vec_base_types@UNoticeConnectInfo@@V?$allocator@UNoticeConnectInfo@@@std@@@std@@@std@@QBEABQAUNoticeConnectInfo@@XZ ENDP ; std::_Vector_alloc<std::_Vec_base_types<NoticeConnectInfo,std::allocator<NoticeConnectInfo> > >::_Myend
_TEXT	ENDS
; Function compile flags: /Ogtp
; File c:\program files (x86)\microsoft visual studio 14.0\vc\include\vector
;	COMDAT ?_Myend@?$_Vector_alloc@U?$_Vec_base_types@UNoticeConnectInfo@@V?$allocator@UNoticeConnectInfo@@@std@@@std@@@std@@QAEAAPAUNoticeConnectInfo@@XZ
_TEXT	SEGMENT
?_Myend@?$_Vector_alloc@U?$_Vec_base_types@UNoticeConnectInfo@@V?$allocator@UNoticeConnectInfo@@@std@@@std@@@std@@QAEAAPAUNoticeConnectInfo@@XZ PROC ; std::_Vector_alloc<std::_Vec_base_types<NoticeConnectInfo,std::allocator<NoticeConnectInfo> > >::_Myend, COMDAT
; _this$ = ecx

; 662  : 		return (_Get_data()._Myend);

  00000	8d 41 08	 lea	 eax, DWORD PTR [ecx+8]

; 663  : 		}

  00003	c3		 ret	 0
?_Myend@?$_Vector_alloc@U?$_Vec_base_types@UNoticeConnectInfo@@V?$allocator@UNoticeConnectInfo@@@std@@@std@@@std@@QAEAAPAUNoticeConnectInfo@@XZ ENDP ; std::_Vector_alloc<std::_Vec_base_types<NoticeConnectInfo,std::allocator<NoticeConnectInfo> > >::_Myend
_TEXT	ENDS
; Function compile flags: /Ogtp
; File c:\program files (x86)\microsoft visual studio 14.0\vc\include\vector
;	COMDAT ?_Mylast@?$_Vector_alloc@U?$_Vec_base_types@UNoticeConnectInfo@@V?$allocator@UNoticeConnectInfo@@@std@@@std@@@std@@QBEABQAUNoticeConnectInfo@@XZ
_TEXT	SEGMENT
?_Mylast@?$_Vector_alloc@U?$_Vec_base_types@UNoticeConnectInfo@@V?$allocator@UNoticeConnectInfo@@@std@@@std@@@std@@QBEABQAUNoticeConnectInfo@@XZ PROC ; std::_Vector_alloc<std::_Vec_base_types<NoticeConnectInfo,std::allocator<NoticeConnectInfo> > >::_Mylast, COMDAT
; _this$ = ecx

; 657  : 		return (_Get_data()._Mylast);

  00000	8d 41 04	 lea	 eax, DWORD PTR [ecx+4]

; 658  : 		}

  00003	c3		 ret	 0
?_Mylast@?$_Vector_alloc@U?$_Vec_base_types@UNoticeConnectInfo@@V?$allocator@UNoticeConnectInfo@@@std@@@std@@@std@@QBEABQAUNoticeConnectInfo@@XZ ENDP ; std::_Vector_alloc<std::_Vec_base_types<NoticeConnectInfo,std::allocator<NoticeConnectInfo> > >::_Mylast
_TEXT	ENDS
; Function compile flags: /Ogtp
; File c:\program files (x86)\microsoft visual studio 14.0\vc\include\vector
;	COMDAT ?_Mylast@?$_Vector_alloc@U?$_Vec_base_types@UNoticeConnectInfo@@V?$allocator@UNoticeConnectInfo@@@std@@@std@@@std@@QAEAAPAUNoticeConnectInfo@@XZ
_TEXT	SEGMENT
?_Mylast@?$_Vector_alloc@U?$_Vec_base_types@UNoticeConnectInfo@@V?$allocator@UNoticeConnectInfo@@@std@@@std@@@std@@QAEAAPAUNoticeConnectInfo@@XZ PROC ; std::_Vector_alloc<std::_Vec_base_types<NoticeConnectInfo,std::allocator<NoticeConnectInfo> > >::_Mylast, COMDAT
; _this$ = ecx

; 652  : 		return (_Get_data()._Mylast);

  00000	8d 41 04	 lea	 eax, DWORD PTR [ecx+4]

; 653  : 		}

  00003	c3		 ret	 0
?_Mylast@?$_Vector_alloc@U?$_Vec_base_types@UNoticeConnectInfo@@V?$allocator@UNoticeConnectInfo@@@std@@@std@@@std@@QAEAAPAUNoticeConnectInfo@@XZ ENDP ; std::_Vector_alloc<std::_Vec_base_types<NoticeConnectInfo,std::allocator<NoticeConnectInfo> > >::_Mylast
_TEXT	ENDS
; Function compile flags: /Ogtp
; File c:\program files (x86)\microsoft visual studio 14.0\vc\include\vector
;	COMDAT ?_Myfirst@?$_Vector_alloc@U?$_Vec_base_types@UNoticeConnectInfo@@V?$allocator@UNoticeConnectInfo@@@std@@@std@@@std@@QBEABQAUNoticeConnectInfo@@XZ
_TEXT	SEGMENT
?_Myfirst@?$_Vector_alloc@U?$_Vec_base_types@UNoticeConnectInfo@@V?$allocator@UNoticeConnectInfo@@@std@@@std@@@std@@QBEABQAUNoticeConnectInfo@@XZ PROC ; std::_Vector_alloc<std::_Vec_base_types<NoticeConnectInfo,std::allocator<NoticeConnectInfo> > >::_Myfirst, COMDAT
; _this$ = ecx

; 647  : 		return (_Get_data()._Myfirst);

  00000	8b c1		 mov	 eax, ecx

; 648  : 		}

  00002	c3		 ret	 0
?_Myfirst@?$_Vector_alloc@U?$_Vec_base_types@UNoticeConnectInfo@@V?$allocator@UNoticeConnectInfo@@@std@@@std@@@std@@QBEABQAUNoticeConnectInfo@@XZ ENDP ; std::_Vector_alloc<std::_Vec_base_types<NoticeConnectInfo,std::allocator<NoticeConnectInfo> > >::_Myfirst
_TEXT	ENDS
; Function compile flags: /Ogtp
; File c:\program files (x86)\microsoft visual studio 14.0\vc\include\vector
;	COMDAT ?_Myfirst@?$_Vector_alloc@U?$_Vec_base_types@UNoticeConnectInfo@@V?$allocator@UNoticeConnectInfo@@@std@@@std@@@std@@QAEAAPAUNoticeConnectInfo@@XZ
_TEXT	SEGMENT
?_Myfirst@?$_Vector_alloc@U?$_Vec_base_types@UNoticeConnectInfo@@V?$allocator@UNoticeConnectInfo@@@std@@@std@@@std@@QAEAAPAUNoticeConnectInfo@@XZ PROC ; std::_Vector_alloc<std::_Vec_base_types<NoticeConnectInfo,std::allocator<NoticeConnectInfo> > >::_Myfirst, COMDAT
; _this$ = ecx

; 642  : 		return (_Get_data()._Myfirst);

  00000	8b c1		 mov	 eax, ecx

; 643  : 		}

  00002	c3		 ret	 0
?_Myfirst@?$_Vector_alloc@U?$_Vec_base_types@UNoticeConnectInfo@@V?$allocator@UNoticeConnectInfo@@@std@@@std@@@std@@QAEAAPAUNoticeConnectInfo@@XZ ENDP ; std::_Vector_alloc<std::_Vec_base_types<NoticeConnectInfo,std::allocator<NoticeConnectInfo> > >::_Myfirst
_TEXT	ENDS
; Function compile flags: /Ogtp
; File c:\program files (x86)\microsoft visual studio 14.0\vc\include\vector
;	COMDAT ?_Get_data@?$_Vector_alloc@U?$_Vec_base_types@UNoticeConnectInfo@@V?$allocator@UNoticeConnectInfo@@@std@@@std@@@std@@QBEABV?$_Vector_val@U?$_Simple_types@UNoticeConnectInfo@@@std@@@2@XZ
_TEXT	SEGMENT
?_Get_data@?$_Vector_alloc@U?$_Vec_base_types@UNoticeConnectInfo@@V?$allocator@UNoticeConnectInfo@@@std@@@std@@@std@@QBEABV?$_Vector_val@U?$_Simple_types@UNoticeConnectInfo@@@std@@@2@XZ PROC ; std::_Vector_alloc<std::_Vec_base_types<NoticeConnectInfo,std::allocator<NoticeConnectInfo> > >::_Get_data, COMDAT
; _this$ = ecx

; 637  : 		return (_Mypair._Get_second());

  00000	8b c1		 mov	 eax, ecx

; 638  : 		}

  00002	c3		 ret	 0
?_Get_data@?$_Vector_alloc@U?$_Vec_base_types@UNoticeConnectInfo@@V?$allocator@UNoticeConnectInfo@@@std@@@std@@@std@@QBEABV?$_Vector_val@U?$_Simple_types@UNoticeConnectInfo@@@std@@@2@XZ ENDP ; std::_Vector_alloc<std::_Vec_base_types<NoticeConnectInfo,std::allocator<NoticeConnectInfo> > >::_Get_data
_TEXT	ENDS
; Function compile flags: /Ogtp
; File c:\program files (x86)\microsoft visual studio 14.0\vc\include\vector
;	COMDAT ?_Get_data@?$_Vector_alloc@U?$_Vec_base_types@UNoticeConnectInfo@@V?$allocator@UNoticeConnectInfo@@@std@@@std@@@std@@QAEAAV?$_Vector_val@U?$_Simple_types@UNoticeConnectInfo@@@std@@@2@XZ
_TEXT	SEGMENT
?_Get_data@?$_Vector_alloc@U?$_Vec_base_types@UNoticeConnectInfo@@V?$allocator@UNoticeConnectInfo@@@std@@@std@@@std@@QAEAAV?$_Vector_val@U?$_Simple_types@UNoticeConnectInfo@@@std@@@2@XZ PROC ; std::_Vector_alloc<std::_Vec_base_types<NoticeConnectInfo,std::allocator<NoticeConnectInfo> > >::_Get_data, COMDAT
; _this$ = ecx

; 632  : 		return (_Mypair._Get_second());

  00000	8b c1		 mov	 eax, ecx

; 633  : 		}

  00002	c3		 ret	 0
?_Get_data@?$_Vector_alloc@U?$_Vec_base_types@UNoticeConnectInfo@@V?$allocator@UNoticeConnectInfo@@@std@@@std@@@std@@QAEAAV?$_Vector_val@U?$_Simple_types@UNoticeConnectInfo@@@std@@@2@XZ ENDP ; std::_Vector_alloc<std::_Vec_base_types<NoticeConnectInfo,std::allocator<NoticeConnectInfo> > >::_Get_data
_TEXT	ENDS
; Function compile flags: /Ogtp
; File c:\program files (x86)\microsoft visual studio 14.0\vc\include\vector
;	COMDAT ?_Getal@?$_Vector_alloc@U?$_Vec_base_types@UNoticeConnectInfo@@V?$allocator@UNoticeConnectInfo@@@std@@@std@@@std@@QBEABU?$_Wrap_alloc@V?$allocator@UNoticeConnectInfo@@@std@@@2@XZ
_TEXT	SEGMENT
?_Getal@?$_Vector_alloc@U?$_Vec_base_types@UNoticeConnectInfo@@V?$allocator@UNoticeConnectInfo@@@std@@@std@@@std@@QBEABU?$_Wrap_alloc@V?$allocator@UNoticeConnectInfo@@@std@@@2@XZ PROC ; std::_Vector_alloc<std::_Vec_base_types<NoticeConnectInfo,std::allocator<NoticeConnectInfo> > >::_Getal, COMDAT
; _this$ = ecx

; 627  : 		return (_Mypair._Get_first());

  00000	8b c1		 mov	 eax, ecx

; 628  : 		}

  00002	c3		 ret	 0
?_Getal@?$_Vector_alloc@U?$_Vec_base_types@UNoticeConnectInfo@@V?$allocator@UNoticeConnectInfo@@@std@@@std@@@std@@QBEABU?$_Wrap_alloc@V?$allocator@UNoticeConnectInfo@@@std@@@2@XZ ENDP ; std::_Vector_alloc<std::_Vec_base_types<NoticeConnectInfo,std::allocator<NoticeConnectInfo> > >::_Getal
_TEXT	ENDS
; Function compile flags: /Ogtp
; File c:\program files (x86)\microsoft visual studio 14.0\vc\include\vector
;	COMDAT ?_Getal@?$_Vector_alloc@U?$_Vec_base_types@UNoticeConnectInfo@@V?$allocator@UNoticeConnectInfo@@@std@@@std@@@std@@QAEAAU?$_Wrap_alloc@V?$allocator@UNoticeConnectInfo@@@std@@@2@XZ
_TEXT	SEGMENT
?_Getal@?$_Vector_alloc@U?$_Vec_base_types@UNoticeConnectInfo@@V?$allocator@UNoticeConnectInfo@@@std@@@std@@@std@@QAEAAU?$_Wrap_alloc@V?$allocator@UNoticeConnectInfo@@@std@@@2@XZ PROC ; std::_Vector_alloc<std::_Vec_base_types<NoticeConnectInfo,std::allocator<NoticeConnectInfo> > >::_Getal, COMDAT
; _this$ = ecx

; 622  : 		return (_Mypair._Get_first());

  00000	8b c1		 mov	 eax, ecx

; 623  : 		}

  00002	c3		 ret	 0
?_Getal@?$_Vector_alloc@U?$_Vec_base_types@UNoticeConnectInfo@@V?$allocator@UNoticeConnectInfo@@@std@@@std@@@std@@QAEAAU?$_Wrap_alloc@V?$allocator@UNoticeConnectInfo@@@std@@@2@XZ ENDP ; std::_Vector_alloc<std::_Vec_base_types<NoticeConnectInfo,std::allocator<NoticeConnectInfo> > >::_Getal
_TEXT	ENDS
; Function compile flags: /Ogtp
; File c:\program files (x86)\microsoft visual studio 14.0\vc\include\vector
;	COMDAT ?_Swap_all@?$_Vector_alloc@U?$_Vec_base_types@UNoticeConnectInfo@@V?$allocator@UNoticeConnectInfo@@@std@@@std@@@std@@QAEXAAV12@@Z
_TEXT	SEGMENT
__Right$ = 8						; size = 4
?_Swap_all@?$_Vector_alloc@U?$_Vec_base_types@UNoticeConnectInfo@@V?$allocator@UNoticeConnectInfo@@@std@@@std@@@std@@QAEXAAV12@@Z PROC ; std::_Vector_alloc<std::_Vec_base_types<NoticeConnectInfo,std::allocator<NoticeConnectInfo> > >::_Swap_all, COMDAT
; _this$ = ecx

; 617  : 		_Get_data()._Swap_all(_Right._Get_data());
; 618  : 		}

  00000	c2 04 00	 ret	 4
?_Swap_all@?$_Vector_alloc@U?$_Vec_base_types@UNoticeConnectInfo@@V?$allocator@UNoticeConnectInfo@@@std@@@std@@@std@@QAEXAAV12@@Z ENDP ; std::_Vector_alloc<std::_Vec_base_types<NoticeConnectInfo,std::allocator<NoticeConnectInfo> > >::_Swap_all
_TEXT	ENDS
; Function compile flags: /Ogtp
; File c:\program files (x86)\microsoft visual studio 14.0\vc\include\vector
;	COMDAT ?_Orphan_all@?$_Vector_alloc@U?$_Vec_base_types@UNoticeConnectInfo@@V?$allocator@UNoticeConnectInfo@@@std@@@std@@@std@@QAEXXZ
_TEXT	SEGMENT
?_Orphan_all@?$_Vector_alloc@U?$_Vec_base_types@UNoticeConnectInfo@@V?$allocator@UNoticeConnectInfo@@@std@@@std@@@std@@QAEXXZ PROC ; std::_Vector_alloc<std::_Vec_base_types<NoticeConnectInfo,std::allocator<NoticeConnectInfo> > >::_Orphan_all, COMDAT
; _this$ = ecx

; 612  : 		_Get_data()._Orphan_all();
; 613  : 		}

  00000	c3		 ret	 0
?_Orphan_all@?$_Vector_alloc@U?$_Vec_base_types@UNoticeConnectInfo@@V?$allocator@UNoticeConnectInfo@@@std@@@std@@@std@@QAEXXZ ENDP ; std::_Vector_alloc<std::_Vec_base_types<NoticeConnectInfo,std::allocator<NoticeConnectInfo> > >::_Orphan_all
_TEXT	ENDS
; Function compile flags: /Ogtp
; File c:\program files (x86)\microsoft visual studio 14.0\vc\include\vector
;	COMDAT ?_Swap_alloc@?$_Vector_alloc@U?$_Vec_base_types@UNoticeConnectInfo@@V?$allocator@UNoticeConnectInfo@@@std@@@std@@@std@@QAEXAAV12@@Z
_TEXT	SEGMENT
__Right$ = 8						; size = 4
?_Swap_alloc@?$_Vector_alloc@U?$_Vec_base_types@UNoticeConnectInfo@@V?$allocator@UNoticeConnectInfo@@@std@@@std@@@std@@QAEXAAV12@@Z PROC ; std::_Vector_alloc<std::_Vec_base_types<NoticeConnectInfo,std::allocator<NoticeConnectInfo> > >::_Swap_alloc, COMDAT
; _this$ = ecx

; 534  : 		_Pocs(_Getal(), _Right._Getal());
; 535  : 		}

  00000	c2 04 00	 ret	 4
?_Swap_alloc@?$_Vector_alloc@U?$_Vec_base_types@UNoticeConnectInfo@@V?$allocator@UNoticeConnectInfo@@@std@@@std@@@std@@QAEXAAV12@@Z ENDP ; std::_Vector_alloc<std::_Vec_base_types<NoticeConnectInfo,std::allocator<NoticeConnectInfo> > >::_Swap_alloc
_TEXT	ENDS
; Function compile flags: /Ogtp
; File c:\program files (x86)\microsoft visual studio 14.0\vc\include\vector
;	COMDAT ??0?$_Vector_alloc@U?$_Vec_base_types@UNoticeConnectInfo@@V?$allocator@UNoticeConnectInfo@@@std@@@std@@@std@@QAE@ABV?$allocator@UNoticeConnectInfo@@@1@@Z
_TEXT	SEGMENT
__Al$ = 8						; size = 4
??0?$_Vector_alloc@U?$_Vec_base_types@UNoticeConnectInfo@@V?$allocator@UNoticeConnectInfo@@@std@@@std@@@std@@QAE@ABV?$allocator@UNoticeConnectInfo@@@1@@Z PROC ; std::_Vector_alloc<std::_Vec_base_types<NoticeConnectInfo,std::allocator<NoticeConnectInfo> > >::_Vector_alloc<std::_Vec_base_types<NoticeConnectInfo,std::allocator<NoticeConnectInfo> > >, COMDAT
; _this$ = ecx

; 480  : 		_Myfirst = pointer();

  00000	c7 01 00 00 00
	00		 mov	 DWORD PTR [ecx], 0

; 515  : 		}

  00006	8b c1		 mov	 eax, ecx

; 481  : 		_Mylast = pointer();

  00008	c7 41 04 00 00
	00 00		 mov	 DWORD PTR [ecx+4], 0

; 482  : 		_Myend = pointer();

  0000f	c7 41 08 00 00
	00 00		 mov	 DWORD PTR [ecx+8], 0

; 515  : 		}

  00016	c2 04 00	 ret	 4
??0?$_Vector_alloc@U?$_Vec_base_types@UNoticeConnectInfo@@V?$allocator@UNoticeConnectInfo@@@std@@@std@@@std@@QAE@ABV?$allocator@UNoticeConnectInfo@@@1@@Z ENDP ; std::_Vector_alloc<std::_Vec_base_types<NoticeConnectInfo,std::allocator<NoticeConnectInfo> > >::_Vector_alloc<std::_Vec_base_types<NoticeConnectInfo,std::allocator<NoticeConnectInfo> > >
_TEXT	ENDS
; Function compile flags: /Ogtp
; File c:\program files (x86)\microsoft visual studio 14.0\vc\include\xmemory0
;	COMDAT ?max_size@?$_Wrap_alloc@V?$allocator@UNoticeConnectInfo@@@std@@@std@@QBEIU_Nil@2@@Z
_TEXT	SEGMENT
___formal$ = 8						; size = 1
?max_size@?$_Wrap_alloc@V?$allocator@UNoticeConnectInfo@@@std@@@std@@QBEIU_Nil@2@@Z PROC ; std::_Wrap_alloc<std::allocator<NoticeConnectInfo> >::max_size, COMDAT
; _this$ = ecx

; 930  : 		return (_Mytraits::max_size(*this));

  00000	b8 0c df 88 02	 mov	 eax, 42524428		; 0288df0cH

; 931  : 		}

  00005	c2 04 00	 ret	 4
?max_size@?$_Wrap_alloc@V?$allocator@UNoticeConnectInfo@@@std@@@std@@QBEIU_Nil@2@@Z ENDP ; std::_Wrap_alloc<std::allocator<NoticeConnectInfo> >::max_size
_TEXT	ENDS
; Function compile flags: /Ogtp
; File c:\program files (x86)\microsoft visual studio 14.0\vc\include\xmemory0
;	COMDAT ?deallocate@?$_Wrap_alloc@V?$allocator@UNoticeConnectInfo@@@std@@@std@@QAEXPAUNoticeConnectInfo@@I@Z
_TEXT	SEGMENT
__Ptr$ = 8						; size = 4
__Count$ = 12						; size = 4
?deallocate@?$_Wrap_alloc@V?$allocator@UNoticeConnectInfo@@@std@@@std@@QAEXPAUNoticeConnectInfo@@I@Z PROC ; std::_Wrap_alloc<std::allocator<NoticeConnectInfo> >::deallocate, COMDAT
; _this$ = ecx

; 908  : 		{	// deallocate object at _Ptr, ignore size

  00000	55		 push	 ebp
  00001	8b ec		 mov	 ebp, esp

; 100  : 	_SCL_SECURE_ALWAYS_VALIDATE(_Count <= (size_t)(-1) / _Sz);

  00003	8b 45 0c	 mov	 eax, DWORD PTR __Count$[ebp]

; 139  : 	}
; 140  : 
; 141  : 		// TEMPLATE FUNCTION _Construct
; 142  : template<class _Ty1,
; 143  : 	class _Ty2> inline
; 144  : 	void _Construct(_Ty1 *_Ptr, _Ty2&& _Val)
; 145  : 	{	// construct object at _Ptr with value _Val
; 146  : 	void *_Vptr = _Ptr;
; 147  : 	::new (_Vptr) _Ty1(_STD forward<_Ty2>(_Val));
; 148  : 	}
; 149  : 
; 150  : template<class _Ty1> inline
; 151  : 	void _Construct(_Ty1 *_Ptr)
; 152  : 	{	// construct object at _Ptr with default value
; 153  : 	void *_Vptr = _Ptr;
; 154  : 
; 155  : 	::new (_Vptr) _Ty1();
; 156  : 	}
; 157  : 
; 158  : 		// TEMPLATE FUNCTION _Destroy
; 159  : template<class _Ty> inline
; 160  : 	void _Destroy(_Ty *_Ptr)
; 161  : 	{	// destroy object at _Ptr
; 162  : 	_Ptr->~_Ty();
; 163  : 	}
; 164  : 
; 165  : 		// TEMPLATE FUNCTION _Destroy_range
; 166  : template<class _Alloc> inline
; 167  : 	void _Destroy_range(typename _Alloc::pointer _First,
; 168  : 		typename _Alloc::pointer _Last, _Alloc& _Al,
; 169  : 		_Nonscalar_ptr_iterator_tag)
; 170  : 	{	// destroy [_First, _Last), arbitrary type
; 171  : 	for (; _First != _Last; ++_First)
; 172  : 		_Al.destroy(_STD addressof(*_First));
; 173  : 	}
; 174  : 
; 175  : template<class _Alloc> inline
; 176  : 	void _Destroy_range(typename _Alloc::pointer _First,
; 177  : 		typename _Alloc::pointer _Last, _Alloc& _Al,
; 178  : 		_Scalar_ptr_iterator_tag)
; 179  : 	{	// destroy [_First, _Last), scalar type (do nothing)
; 180  : 	}
; 181  : 
; 182  : template<class _Alloc> inline
; 183  : 	void _Destroy_range(typename _Alloc::pointer _First,
; 184  : 		typename _Alloc::pointer _Last, _Alloc& _Al)
; 185  : 	{	// destroy [_First, _Last)
; 186  : 	_Destroy_range(_First, _Last, _Al, _Ptr_cat(_First, _Last));
; 187  : 	}
; 188  : 
; 189  : 		// TEMPLATE CLASS _Is_simple_alloc
; 190  : template<class _Alty>
; 191  : 	struct _Is_simple_alloc
; 192  : 		: _Cat_base<is_same<typename _Alty::size_type, size_t>::value
; 193  : 		&& is_same<typename _Alty::difference_type, ptrdiff_t>::value
; 194  : 		&& is_same<typename _Alty::pointer,
; 195  : 			typename _Alty::value_type *>::value
; 196  : 		&& is_same<typename _Alty::const_pointer,
; 197  : 			const typename _Alty::value_type *>::value
; 198  : 		&& is_same<typename _Alty::reference,
; 199  : 			typename _Alty::value_type&>::value
; 200  : 		&& is_same<typename _Alty::const_reference,
; 201  : 			const typename _Alty::value_type&>::value>
; 202  : 	{	// tests if allocator has simple addressing
; 203  : 	};
; 204  : 
; 205  : 		// TEMPLATE CLASS _Simple_types
; 206  : template<class _Value_type>
; 207  : 	struct _Simple_types
; 208  : 	{	// wraps types needed by iterators
; 209  : 	typedef _Value_type value_type;
; 210  : 	typedef size_t size_type;
; 211  : 	typedef ptrdiff_t difference_type;
; 212  : 	typedef value_type *pointer;
; 213  : 	typedef const value_type *const_pointer;
; 214  : 	typedef value_type& reference;
; 215  : 	typedef const value_type& const_reference;
; 216  : 	};
; 217  : 
; 218  : 		// TEMPLATE CLASS _Get_voidptr
; 219  : template<class _Alty,
; 220  : 	class _Pointer>
; 221  : 	struct _Get_voidptr
; 222  : 	{	// get void pointer for allocator
; 223  : 	typedef typename _Alty::template rebind<void>::other _Alvoid;
; 224  : 	typedef typename _Alvoid::pointer type;
; 225  : 	};
; 226  : 
; 227  : template<class _Alty,
; 228  : 	class _Ty>
; 229  : 	struct _Get_voidptr<_Alty, _Ty *>
; 230  : 	{	// get raw void pointer for allocator
; 231  : 	typedef void *type;
; 232  : 	};
; 233  : 
; 234  : 		// TEMPLATE STRUCT _Get_first_parameter
; 235  : template<class _Ty>
; 236  : 	struct _Get_first_parameter;
; 237  : 
; 238  : template<template<class, class...> class _Ty,
; 239  : 	class _First,
; 240  : 	class... _Rest>
; 241  : 	struct _Get_first_parameter<_Ty<_First, _Rest...> >
; 242  : 	{	// given _Ty<_First, _Rest...>, extract _First
; 243  : 	typedef _First type;
; 244  : 	};
; 245  : 
; 246  : 		// TEMPLATE STRUCT _Replace_first_parameter
; 247  : template<class _Newfirst,
; 248  : 	class _Ty>
; 249  : 	struct _Replace_first_parameter;
; 250  : 
; 251  : template<class _Newfirst,
; 252  : 	template<class, class...> class _Ty,
; 253  : 	class _First,
; 254  : 	class... _Rest>
; 255  : 	struct _Replace_first_parameter<_Newfirst, _Ty<_First, _Rest...> >
; 256  : 	{	// given _Ty<_First, _Rest...>, replace _First
; 257  : 	typedef _Ty<_Newfirst, _Rest...> type;
; 258  : 	};
; 259  : 
; 260  : 		// TEMPLATE STRUCT _Get_element_type
; 261  : template<class _Ty>
; 262  : 	struct _Get_element_type
; 263  : 	_GET_TYPE_OR_DEFAULT(element_type,
; 264  : 		typename _Get_first_parameter<_Uty>::type);
; 265  : 
; 266  : 		// TEMPLATE STRUCT _Get_ptr_difference_type
; 267  : template<class _Ty>
; 268  : 	struct _Get_ptr_difference_type
; 269  : 	_GET_TYPE_OR_DEFAULT(difference_type,
; 270  : 		ptrdiff_t);
; 271  : 
; 272  : 		// TEMPLATE STRUCT _Get_rebind_type
; 273  : template<class _Ty,
; 274  : 	class _Other>
; 275  : 	struct _Get_rebind_type
; 276  : 	_GET_TYPE_OR_DEFAULT(template rebind<_Other>::other,
; 277  : 		typename _Replace_first_parameter<_Other _COMMA _Uty>::type);
; 278  : 
; 279  : 		// TEMPLATE CLASS pointer_traits
; 280  : template<class _Ty>
; 281  : 	struct pointer_traits
; 282  : 	{	// defines traits for arbitrary pointers
; 283  : 	typedef typename _Get_element_type<_Ty>::type element_type;
; 284  : 	typedef _Ty pointer;
; 285  : 	typedef typename _Get_ptr_difference_type<_Ty>::type difference_type;
; 286  : 
; 287  : 	template<class _Other>
; 288  : 		using rebind = typename _Get_rebind_type<_Ty, _Other>::type;
; 289  : 
; 290  : 	typedef typename _If<is_void<element_type>::value,
; 291  : 		char&,
; 292  : 		typename add_lvalue_reference<element_type>::type>::type _Reftype;
; 293  : 
; 294  : 	static pointer pointer_to(_Reftype _Val)
; 295  : 		{	// convert raw reference to pointer
; 296  : 		return (_Ty::pointer_to(_Val));
; 297  : 		}
; 298  : 	};
; 299  : 
; 300  : 		// TEMPLATE CLASS pointer_traits<_Ty *>
; 301  : template<class _Ty>
; 302  : 	struct pointer_traits<_Ty *>
; 303  : 	{	// defines traits for raw pointers
; 304  : 	typedef _Ty element_type;
; 305  : 	typedef _Ty *pointer;
; 306  : 	typedef ptrdiff_t difference_type;
; 307  : 
; 308  : 	template<class _Other>
; 309  : 		using rebind = _Other *;
; 310  : 
; 311  : 	typedef typename _If<is_void<_Ty>::value,
; 312  : 		char&,
; 313  : 		typename add_lvalue_reference<_Ty>::type>::type _Reftype;
; 314  : 
; 315  : 	static pointer pointer_to(_Reftype _Val)
; 316  : 		{	// convert raw reference to pointer
; 317  : 		return (_STD addressof(_Val));
; 318  : 		}
; 319  : 	};
; 320  : 
; 321  : 		// TEMPLATE STRUCT _Get_pointer_type
; 322  : template<class _Ty>
; 323  : 	struct _Get_pointer_type
; 324  : 	_GET_TYPE_OR_DEFAULT(pointer,
; 325  : 		typename _Ty::value_type *);
; 326  : 
; 327  : 		// TEMPLATE STRUCT _Get_const_pointer_type
; 328  : template<class _Ty>
; 329  : 	struct _Get_const_pointer_type
; 330  : 	_GET_TYPE_OR_DEFAULT(const_pointer,
; 331  : 		typename pointer_traits<typename _Get_pointer_type<_Ty>::type>
; 332  : 			::template rebind<const typename _Ty::value_type>);
; 333  : 
; 334  : 		// TEMPLATE STRUCT _Get_void_pointer_type
; 335  : template<class _Ty>
; 336  : 	struct _Get_void_pointer_type
; 337  : 	_GET_TYPE_OR_DEFAULT(void_pointer,
; 338  : 		typename pointer_traits<typename _Get_pointer_type<_Ty>::type>
; 339  : 			::template rebind<void>);
; 340  : 
; 341  : 		// TEMPLATE STRUCT _Get_const_void_pointer_type
; 342  : template<class _Ty>
; 343  : 	struct _Get_const_void_pointer_type
; 344  : 	_GET_TYPE_OR_DEFAULT(const_void_pointer,
; 345  : 		typename pointer_traits<typename _Get_pointer_type<_Ty>::type>
; 346  : 			::template rebind<const void>);
; 347  : 
; 348  : 		// TEMPLATE STRUCT _Get_difference_type
; 349  : template<class _Ty>
; 350  : 	struct _Get_difference_type
; 351  : 	_GET_TYPE_OR_DEFAULT(difference_type,
; 352  : 		typename _Get_ptr_difference_type<
; 353  : 			typename _Get_pointer_type<_Ty>::type>::type);
; 354  : 
; 355  : 		// TEMPLATE STRUCT _Get_size_type
; 356  : template<class _Ty>
; 357  : 	struct _Get_size_type
; 358  : 	_GET_TYPE_OR_DEFAULT(size_type,
; 359  : 		typename make_unsigned<
; 360  : 			typename _Get_difference_type<_Ty>::type>::type);
; 361  : 
; 362  : 		// TEMPLATE STRUCT _Get_propagate_on_container_copy
; 363  : template<class _Ty>
; 364  : 	struct _Get_propagate_on_container_copy
; 365  : 	_GET_TYPE_OR_DEFAULT(propagate_on_container_copy_assignment,
; 366  : 		false_type);
; 367  : 
; 368  : 		// TEMPLATE STRUCT _Get_propagate_on_container_move
; 369  : template<class _Ty>
; 370  : 	struct _Get_propagate_on_container_move
; 371  : 	_GET_TYPE_OR_DEFAULT(propagate_on_container_move_assignment,
; 372  : 		false_type);
; 373  : 
; 374  : 		// TEMPLATE STRUCT _Get_propagate_on_container_swap
; 375  : template<class _Ty>
; 376  : 	struct _Get_propagate_on_container_swap
; 377  : 	_GET_TYPE_OR_DEFAULT(propagate_on_container_swap,
; 378  : 		false_type);
; 379  : 
; 380  : 		// TEMPLATE STRUCT _Get_is_always_equal
; 381  : template<class _Ty>
; 382  : 	struct _Get_is_always_equal
; 383  : 	_GET_TYPE_OR_DEFAULT(is_always_equal,
; 384  : 		typename is_empty<_Ty>::type);
; 385  : 
; 386  : 		// STRUCT _Alloc_allocate
; 387  : struct _Alloc_allocate
; 388  : 	{	// determines allocator_traits<_Alloc>
; 389  : 		// ::allocate(size_type, const_void_pointer)
; 390  : 
; 391  : 	template<class _Alloc,
; 392  : 		class _Size_type,
; 393  : 		class _Const_void_pointer>
; 394  : 		static auto _Fn(int, _Alloc& _Al,
; 395  : 			_Size_type _Count,
; 396  : 			_Const_void_pointer _Hint)
; 397  : 			-> decltype(_Al.allocate(_Count, _Hint))
; 398  : 		{	// call allocator supplied version
; 399  : 		return (_Al.allocate(_Count, _Hint));
; 400  : 		}
; 401  : 
; 402  : 	template<class _Alloc,
; 403  : 		class _Size_type,
; 404  : 		class _Const_void_pointer>
; 405  : 		static auto _Fn(_Wrap_int, _Alloc& _Al,
; 406  : 			_Size_type _Count,
; 407  : 			_Const_void_pointer)
; 408  : 			-> decltype(_Al.allocate(_Count))
; 409  : 		{	// call default version
; 410  : 		return (_Al.allocate(_Count));
; 411  : 		}
; 412  : 	};
; 413  : 
; 414  : 		// STRUCT _Alloc_construct
; 415  : struct _Alloc_construct
; 416  : 	{	// determines allocator_traits<_Ty>
; 417  : 		// ::construct(_Ty&, _Objty *, _Types&&...)
; 418  : 
; 419  : 	template<class _Ty,
; 420  : 		class _Objty,
; 421  : 		class... _Types>
; 422  : 		static auto _Fn(int, _Ty& _Al, _Objty *_Ptr,
; 423  : 			_Types&&... _Args)
; 424  : 			-> void_t<decltype(
; 425  : 				_Al.construct(_Ptr, _STD forward<_Types>(_Args)...))>
; 426  : 		{	// call allocator supplied version
; 427  : 		_Al.construct(_Ptr, _STD forward<_Types>(_Args)...);
; 428  : 		}
; 429  : 
; 430  : 	template<class _Ty,
; 431  : 		class _Objty,
; 432  : 		class... _Types>
; 433  : 		static void _Fn(_Wrap_int, _Ty&, _Objty *_Ptr,
; 434  : 			_Types&&... _Args)
; 435  : 		{	// call default version
; 436  : 		::new (static_cast<void *>(_Ptr))
; 437  : 			_Objty(_STD forward<_Types>(_Args)...);
; 438  : 		}
; 439  : 
; 440  : 	};
; 441  : 
; 442  : 		// STRUCT _Alloc_destroy
; 443  : struct _Alloc_destroy
; 444  : 	{	// determines allocator_traits<_Ty>::destroy(_Ty&, _Objty *)
; 445  : 	template<class _Ty,
; 446  : 		class _Objty>
; 447  : 		static auto _Fn(int, _Ty& _Al, _Objty *_Ptr)
; 448  : 			-> void_t<decltype(_Al.destroy(_Ptr))>
; 449  : 		{	// call allocator supplied version
; 450  : 		_Al.destroy(_Ptr);
; 451  : 		}
; 452  : 
; 453  : 	template<class _Ty,
; 454  : 		class _Objty>
; 455  : 		static void _Fn(_Wrap_int, _Ty&, _Objty *_Ptr)
; 456  : 		{	// call default version
; 457  : 		_Ptr->~_Objty();
; 458  : 		}
; 459  : 	};
; 460  : 
; 461  : 		// STRUCT _Alloc_max_size
; 462  : struct _Alloc_max_size
; 463  : 	{	// determines allocator_traits<_Ty>::max_size(const _Ty&)
; 464  : 	template<class _Ty>
; 465  : 		static auto _Fn(int, const _Ty& _Al) _NOEXCEPT
; 466  : 			-> decltype(_Al.max_size())
; 467  : 		{	// call allocator supplied version
; 468  : 		return (_Al.max_size());
; 469  : 		}
; 470  : 
; 471  : 	template<class _Ty>
; 472  : 		static auto _Fn(_Wrap_int, const _Ty&) _NOEXCEPT
; 473  : 			-> typename _Get_size_type<_Ty>::type
; 474  : 		{	// call default version
; 475  : 		return ((numeric_limits<typename _Get_size_type<_Ty>::type>::max)());
; 476  : 		}
; 477  : 	};
; 478  : 
; 479  : 		// STRUCT _Alloc_select
; 480  : struct _Alloc_select
; 481  : 	{	// determines allocator_traits<_Ty>
; 482  : 		// ::select_on_container_copy_construction(const _Alloc&)
; 483  : 
; 484  : 	template<class _Ty>
; 485  : 		static auto _Fn(int, const _Ty& _Al)
; 486  : 			-> decltype((_Ty)_Al.select_on_container_copy_construction())
; 487  : 		{	// call allocator supplied version
; 488  : 		return (_Al.select_on_container_copy_construction());
; 489  : 		}
; 490  : 
; 491  : 	template<class _Ty>
; 492  : 		static auto _Fn(_Wrap_int, const _Ty& _Al)
; 493  : 			-> _Ty
; 494  : 		{	// call default version
; 495  : 		return (_Al);
; 496  : 		}
; 497  : 	};
; 498  : 
; 499  : 		// TEMPLATE CLASS allocator_traits
; 500  : template<class _Alloc>
; 501  : 	struct allocator_traits
; 502  : 	{	// defines traits for allocators
; 503  : 	typedef _Alloc allocator_type;
; 504  : 	typedef typename _Alloc::value_type value_type;
; 505  : 
; 506  : 	typedef typename _Get_pointer_type<_Alloc>::type
; 507  : 		pointer;
; 508  : 	typedef typename _Get_const_pointer_type<_Alloc>::type
; 509  : 		const_pointer;
; 510  : 	typedef typename _Get_void_pointer_type<_Alloc>::type
; 511  : 		void_pointer;
; 512  : 	typedef typename _Get_const_void_pointer_type<_Alloc>::type
; 513  : 		const_void_pointer;
; 514  : 
; 515  : 	typedef typename _Get_size_type<_Alloc>::type size_type;
; 516  : 	typedef typename _Get_difference_type<_Alloc>::type difference_type;
; 517  : 
; 518  : 	typedef typename _Get_propagate_on_container_copy<_Alloc>::type
; 519  : 		propagate_on_container_copy_assignment;
; 520  : 	typedef typename _Get_propagate_on_container_move<_Alloc>::type
; 521  : 		propagate_on_container_move_assignment;
; 522  : 	typedef typename _Get_propagate_on_container_swap<_Alloc>::type
; 523  : 		propagate_on_container_swap;
; 524  : 	typedef typename _Get_is_always_equal<_Alloc>::type
; 525  : 		is_always_equal;
; 526  : 
; 527  : 	template<class _Other>
; 528  : 		using rebind_alloc = typename _Get_rebind_type<_Alloc, _Other>::type;
; 529  : 
; 530  : 	template<class _Other>
; 531  : 		using rebind_traits = allocator_traits<rebind_alloc<_Other> >;
; 532  : 
; 533  : 	static _DECLSPEC_ALLOCATOR pointer allocate(_Alloc& _Al, size_type _Count)
; 534  : 		{	// allocate array of _Count elements
; 535  : 		return (_Al.allocate(_Count));
; 536  : 		}
; 537  : 
; 538  : 	static _DECLSPEC_ALLOCATOR pointer allocate(_Alloc& _Al, size_type _Count,
; 539  : 		const_void_pointer _Hint)
; 540  : 		{	// allocate array of _Count elements, with hint
; 541  : 		return (_Alloc_allocate::_Fn(0, _Al, _Count, _Hint));
; 542  : 		}
; 543  : 
; 544  : 	static void deallocate(_Alloc& _Al,
; 545  : 		pointer _Ptr, size_type _Count)
; 546  : 		{	// deallocate _Count elements at _Ptr
; 547  : 		_Al.deallocate(_Ptr, _Count);
; 548  : 		}
; 549  : 
; 550  : 	template<class _Ty,
; 551  : 		class... _Types>
; 552  : 		static void construct(_Alloc& _Al, _Ty *_Ptr,
; 553  : 			_Types&&... _Args)
; 554  : 		{	// construct _Ty(_Types...) at _Ptr
; 555  : 		_Alloc_construct::_Fn(0, _Al, _Ptr,
; 556  : 			_STD forward<_Types>(_Args)...);
; 557  : 		}
; 558  : 
; 559  : 
; 560  : 	template<class _Ty>
; 561  : 		static void destroy(_Alloc& _Al, _Ty *_Ptr)
; 562  : 		{	// destroy object at _Ptr
; 563  : 		_Alloc_destroy::_Fn(0, _Al, _Ptr);
; 564  : 		}
; 565  : 
; 566  : 	static size_type max_size(const _Alloc& _Al) _NOEXCEPT
; 567  : 		{	// get maximum size
; 568  : 		return (_Alloc_max_size::_Fn(0, _Al));
; 569  : 		}
; 570  : 
; 571  : 	static _Alloc select_on_container_copy_construction(
; 572  : 		const _Alloc& _Al)
; 573  : 		{	// get allocator to use
; 574  : 		return (_Alloc_select::_Fn(0, _Al));
; 575  : 		}
; 576  : 	};
; 577  : 
; 578  : 		// TEMPLATE CLASS allocator
; 579  : template<class _Ty>
; 580  : 	class allocator
; 581  : 	{	// generic allocator for objects of class _Ty
; 582  : public:
; 583  : 	static_assert(!is_const<_Ty>::value,
; 584  : 		"The C++ Standard forbids containers of const elements "
; 585  : 		"because allocator<const T> is ill-formed.");
; 586  : 
; 587  : 	typedef _Ty value_type;
; 588  : 
; 589  : 	typedef value_type *pointer;
; 590  : 	typedef const value_type *const_pointer;
; 591  : 
; 592  : 	typedef value_type& reference;
; 593  : 	typedef const value_type& const_reference;
; 594  : 
; 595  : 	typedef size_t size_type;
; 596  : 	typedef ptrdiff_t difference_type;
; 597  : 
; 598  : 	typedef true_type propagate_on_container_move_assignment;
; 599  : 	typedef true_type is_always_equal;
; 600  : 
; 601  : 	template<class _Other>
; 602  : 		struct rebind
; 603  : 		{	// convert this type to allocator<_Other>
; 604  : 		typedef allocator<_Other> other;
; 605  : 		};
; 606  : 
; 607  : 	pointer address(reference _Val) const _NOEXCEPT
; 608  : 		{	// return address of mutable _Val
; 609  : 		return (_STD addressof(_Val));
; 610  : 		}
; 611  : 
; 612  : 	const_pointer address(const_reference _Val) const _NOEXCEPT
; 613  : 		{	// return address of nonmutable _Val
; 614  : 		return (_STD addressof(_Val));
; 615  : 		}
; 616  : 
; 617  : 	allocator() _THROW0()
; 618  : 		{	// construct default allocator (do nothing)
; 619  : 		}
; 620  : 
; 621  : 	allocator(const allocator<_Ty>&) _THROW0()
; 622  : 		{	// construct by copying (do nothing)
; 623  : 		}
; 624  : 
; 625  : 	template<class _Other>
; 626  : 		allocator(const allocator<_Other>&) _THROW0()
; 627  : 		{	// construct from a related allocator (do nothing)
; 628  : 		}
; 629  : 
; 630  : 	template<class _Other>
; 631  : 		allocator<_Ty>& operator=(const allocator<_Other>&)
; 632  : 		{	// assign from a related allocator (do nothing)
; 633  : 		return (*this);
; 634  : 		}
; 635  : 
; 636  : 	void deallocate(pointer _Ptr, size_type _Count)
; 637  : 		{	// deallocate object at _Ptr
; 638  : 		_Deallocate(_Ptr, _Count, sizeof (_Ty));

  00006	8b 4d 08	 mov	 ecx, DWORD PTR __Ptr$[ebp]

; 100  : 	_SCL_SECURE_ALWAYS_VALIDATE(_Count <= (size_t)(-1) / _Sz);

  00009	3d 0c df 88 02	 cmp	 eax, 42524428		; 0288df0cH
  0000e	77 31		 ja	 SHORT $LN16@deallocate

; 101  : 	const size_t _User_size = _Count * _Sz;

  00010	6b c0 65	 imul	 eax, eax, 101

; 102  : 	if (_BIG_ALLOCATION_THRESHOLD <= _User_size)

  00013	3d 00 10 00 00	 cmp	 eax, 4096		; 00001000H
  00018	72 1a		 jb	 SHORT $LN7@deallocate

; 103  : 		{	// deallocate large block
; 104  : 		const uintptr_t _Ptr_user = reinterpret_cast<uintptr_t>(_Ptr);
; 105  : 		_SCL_SECURE_ALWAYS_VALIDATE(

  0001a	f6 c1 1f	 test	 cl, 31			; 0000001fH
  0001d	75 27		 jne	 SHORT $LN18@deallocate

; 106  : 			(_Ptr_user & (_BIG_ALLOCATION_ALIGNMENT - 1)) == 0);
; 107  : 		const uintptr_t _Ptr_ptr = _Ptr_user - sizeof(void *);
; 108  : 		const uintptr_t _Ptr_container =
; 109  : 			*reinterpret_cast<uintptr_t *>(_Ptr_ptr);

  0001f	8b 41 fc	 mov	 eax, DWORD PTR [ecx-4]

; 110  : 
; 111  :  #ifdef _DEBUG
; 112  : 		// If the following asserts, it likely means that we are performing
; 113  : 		// an aligned delete on memory coming from an unaligned allocation.
; 114  : 		_SCL_SECURE_ALWAYS_VALIDATE(
; 115  : 			reinterpret_cast<uintptr_t *>(_Ptr_ptr)[-1] ==
; 116  : 				_BIG_ALLOCATION_SENTINEL);
; 117  :  #endif /* _DEBUG */
; 118  : 
; 119  : 		// Extra paranoia on aligned allocation/deallocation
; 120  : 		_SCL_SECURE_ALWAYS_VALIDATE(_Ptr_container < _Ptr_user);

  00022	3b c1		 cmp	 eax, ecx
  00024	73 25		 jae	 SHORT $LN19@deallocate

; 121  : 
; 122  :  #ifdef _DEBUG
; 123  : 		_SCL_SECURE_ALWAYS_VALIDATE(2 * sizeof(void *)
; 124  : 			<= _Ptr_user - _Ptr_container);
; 125  : 
; 126  :  #else /* _DEBUG */
; 127  : 		_SCL_SECURE_ALWAYS_VALIDATE(sizeof(void *)

  00026	2b c8		 sub	 ecx, eax
  00028	83 f9 04	 cmp	 ecx, 4
  0002b	72 23		 jb	 SHORT $LN20@deallocate

; 128  : 			<= _Ptr_user - _Ptr_container);
; 129  :  #endif /* _DEBUG */
; 130  : 
; 131  : 		_SCL_SECURE_ALWAYS_VALIDATE(_Ptr_user - _Ptr_container

  0002d	83 f9 23	 cmp	 ecx, 35			; 00000023H
  00030	77 23		 ja	 SHORT $LN21@deallocate

; 132  : 			<= _NON_USER_SIZE);
; 133  : 
; 134  : 		_Ptr = reinterpret_cast<void *>(_Ptr_container);

  00032	8b c8		 mov	 ecx, eax
$LN7@deallocate:

; 135  : 		}
; 136  :  #endif /* defined(_M_IX86) || defined(_M_X64) */
; 137  : 
; 138  : 	::operator delete(_Ptr);

  00034	51		 push	 ecx
  00035	e8 00 00 00 00	 call	 ??3@YAXPAX@Z		; operator delete
  0003a	83 c4 04	 add	 esp, 4

; 909  : 		_Mybase::deallocate(_Ptr, _Count);
; 910  : 		}

  0003d	5d		 pop	 ebp
  0003e	c2 08 00	 ret	 8
$LN16@deallocate:

; 100  : 	_SCL_SECURE_ALWAYS_VALIDATE(_Count <= (size_t)(-1) / _Sz);

  00041	e8 00 00 00 00	 call	 __invalid_parameter_noinfo_noreturn
$LN22@deallocate:
$LN18@deallocate:

; 103  : 		{	// deallocate large block
; 104  : 		const uintptr_t _Ptr_user = reinterpret_cast<uintptr_t>(_Ptr);
; 105  : 		_SCL_SECURE_ALWAYS_VALIDATE(

  00046	e8 00 00 00 00	 call	 __invalid_parameter_noinfo_noreturn
$LN23@deallocate:
$LN19@deallocate:

; 110  : 
; 111  :  #ifdef _DEBUG
; 112  : 		// If the following asserts, it likely means that we are performing
; 113  : 		// an aligned delete on memory coming from an unaligned allocation.
; 114  : 		_SCL_SECURE_ALWAYS_VALIDATE(
; 115  : 			reinterpret_cast<uintptr_t *>(_Ptr_ptr)[-1] ==
; 116  : 				_BIG_ALLOCATION_SENTINEL);
; 117  :  #endif /* _DEBUG */
; 118  : 
; 119  : 		// Extra paranoia on aligned allocation/deallocation
; 120  : 		_SCL_SECURE_ALWAYS_VALIDATE(_Ptr_container < _Ptr_user);

  0004b	e8 00 00 00 00	 call	 __invalid_parameter_noinfo_noreturn
$LN24@deallocate:
$LN20@deallocate:

; 121  : 
; 122  :  #ifdef _DEBUG
; 123  : 		_SCL_SECURE_ALWAYS_VALIDATE(2 * sizeof(void *)
; 124  : 			<= _Ptr_user - _Ptr_container);
; 125  : 
; 126  :  #else /* _DEBUG */
; 127  : 		_SCL_SECURE_ALWAYS_VALIDATE(sizeof(void *)

  00050	e8 00 00 00 00	 call	 __invalid_parameter_noinfo_noreturn
$LN25@deallocate:
$LN21@deallocate:

; 128  : 			<= _Ptr_user - _Ptr_container);
; 129  :  #endif /* _DEBUG */
; 130  : 
; 131  : 		_SCL_SECURE_ALWAYS_VALIDATE(_Ptr_user - _Ptr_container

  00055	e8 00 00 00 00	 call	 __invalid_parameter_noinfo_noreturn
$LN26@deallocate:
$LN15@deallocate:
  0005a	cc		 int	 3
?deallocate@?$_Wrap_alloc@V?$allocator@UNoticeConnectInfo@@@std@@@std@@QAEXPAUNoticeConnectInfo@@I@Z ENDP ; std::_Wrap_alloc<std::allocator<NoticeConnectInfo> >::deallocate
_TEXT	ENDS
; Function compile flags: /Ogtp
; File c:\program files (x86)\microsoft visual studio 14.0\vc\include\xmemory0
;	COMDAT ?allocate@?$_Wrap_alloc@V?$allocator@UNoticeConnectInfo@@@std@@@std@@QAEPAUNoticeConnectInfo@@I@Z
_TEXT	SEGMENT
__Count$ = 8						; size = 4
?allocate@?$_Wrap_alloc@V?$allocator@UNoticeConnectInfo@@@std@@@std@@QAEPAUNoticeConnectInfo@@I@Z PROC ; std::_Wrap_alloc<std::allocator<NoticeConnectInfo> >::allocate, COMDAT
; _this$ = ecx

; 897  : 		{	// allocate array of _Count elements

  00000	55		 push	 ebp
  00001	8b ec		 mov	 ebp, esp

; 899  : 		}

  00003	5d		 pop	 ebp

; 898  : 		return (_Mybase::allocate(_Count));

  00004	e9 00 00 00 00	 jmp	 ?allocate@?$allocator@UNoticeConnectInfo@@@std@@QAEPAUNoticeConnectInfo@@I@Z ; std::allocator<NoticeConnectInfo>::allocate
?allocate@?$_Wrap_alloc@V?$allocator@UNoticeConnectInfo@@@std@@@std@@QAEPAUNoticeConnectInfo@@I@Z ENDP ; std::_Wrap_alloc<std::allocator<NoticeConnectInfo> >::allocate
_TEXT	ENDS
; Function compile flags: /Ogtp
; File c:\program files (x86)\microsoft visual studio 14.0\vc\include\xmemory0
;	COMDAT ??0?$_Wrap_alloc@V?$allocator@UNoticeConnectInfo@@@std@@@std@@QAE@ABV?$allocator@UNoticeConnectInfo@@@1@@Z
_TEXT	SEGMENT
__Right$ = 8						; size = 4
??0?$_Wrap_alloc@V?$allocator@UNoticeConnectInfo@@@std@@@std@@QAE@ABV?$allocator@UNoticeConnectInfo@@@1@@Z PROC ; std::_Wrap_alloc<std::allocator<NoticeConnectInfo> >::_Wrap_alloc<std::allocator<NoticeConnectInfo> >, COMDAT
; _this$ = ecx

; 858  : 		}

  00000	8b c1		 mov	 eax, ecx
  00002	c2 04 00	 ret	 4
??0?$_Wrap_alloc@V?$allocator@UNoticeConnectInfo@@@std@@@std@@QAE@ABV?$allocator@UNoticeConnectInfo@@@1@@Z ENDP ; std::_Wrap_alloc<std::allocator<NoticeConnectInfo> >::_Wrap_alloc<std::allocator<NoticeConnectInfo> >
_TEXT	ENDS
; Function compile flags: /Ogtp
; File c:\program files (x86)\microsoft visual studio 14.0\vc\include\xmemory0
;	COMDAT ?max_size@?$allocator_traits@V?$allocator@UNoticeConnectInfo@@@std@@@std@@SAIABV?$allocator@UNoticeConnectInfo@@@2@@Z
_TEXT	SEGMENT
__Al$ = 8						; size = 4
?max_size@?$allocator_traits@V?$allocator@UNoticeConnectInfo@@@std@@@std@@SAIABV?$allocator@UNoticeConnectInfo@@@2@@Z PROC ; std::allocator_traits<std::allocator<NoticeConnectInfo> >::max_size, COMDAT

; 785  : 		return (_Al.max_size());

  00000	b8 0c df 88 02	 mov	 eax, 42524428		; 0288df0cH

; 786  : 		}

  00005	c3		 ret	 0
?max_size@?$allocator_traits@V?$allocator@UNoticeConnectInfo@@@std@@@std@@SAIABV?$allocator@UNoticeConnectInfo@@@2@@Z ENDP ; std::allocator_traits<std::allocator<NoticeConnectInfo> >::max_size
_TEXT	ENDS
; Function compile flags: /Ogtp
; File c:\program files (x86)\microsoft visual studio 14.0\vc\include\xmemory0
;	COMDAT ?max_size@?$allocator@UNoticeConnectInfo@@@std@@QBEIXZ
_TEXT	SEGMENT
?max_size@?$allocator@UNoticeConnectInfo@@@std@@QBEIXZ PROC ; std::allocator<NoticeConnectInfo>::max_size, COMDAT
; _this$ = ecx

; 667  : 		return ((size_t)(-1) / sizeof (_Ty));

  00000	b8 0c df 88 02	 mov	 eax, 42524428		; 0288df0cH

; 668  : 		}

  00005	c3		 ret	 0
?max_size@?$allocator@UNoticeConnectInfo@@@std@@QBEIXZ ENDP ; std::allocator<NoticeConnectInfo>::max_size
_TEXT	ENDS
; Function compile flags: /Ogtp
; File c:\program files (x86)\microsoft visual studio 14.0\vc\include\xmemory0
;	COMDAT ?allocate@?$allocator@UNoticeConnectInfo@@@std@@QAEPAUNoticeConnectInfo@@I@Z
_TEXT	SEGMENT
__Count$ = 8						; size = 4
?allocate@?$allocator@UNoticeConnectInfo@@@std@@QAEPAUNoticeConnectInfo@@I@Z PROC ; std::allocator<NoticeConnectInfo>::allocate, COMDAT
; _this$ = ecx

; 642  : 		{	// allocate array of _Count elements

  00000	55		 push	 ebp
  00001	8b ec		 mov	 ebp, esp

; 57   : 	if (_Count == 0)

  00003	8b 45 08	 mov	 eax, DWORD PTR __Count$[ebp]
  00006	85 c0		 test	 eax, eax
  00008	75 04		 jne	 SHORT $LN4@allocate
$LN12@allocate:

; 643  : 		return (static_cast<pointer>(_Allocate(_Count, sizeof (_Ty))));
; 644  : 		}

  0000a	5d		 pop	 ebp
  0000b	c2 04 00	 ret	 4
$LN4@allocate:

; 58   : 		return (_Ptr);
; 59   : 
; 60   : 	// check overflow of multiply
; 61   : 	if ((size_t)(-1) / _Sz < _Count)

  0000e	3d 0c df 88 02	 cmp	 eax, 42524428		; 0288df0cH
  00013	77 3c		 ja	 SHORT $LN14@allocate

; 63   : 	const size_t _User_size = _Count * _Sz;

  00015	6b c0 65	 imul	 eax, eax, 101

; 64   : 
; 65   :  #if defined(_M_IX86) || defined(_M_X64)
; 66   : 	if (_Try_aligned_allocation
; 67   : 		&& _BIG_ALLOCATION_THRESHOLD <= _User_size)

  00018	3d 00 10 00 00	 cmp	 eax, 4096		; 00001000H
  0001d	72 23		 jb	 SHORT $LN6@allocate

; 68   : 		{	// allocate large block
; 69   : 		static_assert(sizeof (void *) < _BIG_ALLOCATION_ALIGNMENT,
; 70   : 			"Big allocations should at least match vector register size");
; 71   : 		const size_t _Block_size = _NON_USER_SIZE + _User_size;

  0001f	8d 48 23	 lea	 ecx, DWORD PTR [eax+35]

; 72   : 		if (_Block_size <= _User_size)

  00022	3b c8		 cmp	 ecx, eax
  00024	76 30		 jbe	 SHORT $LN16@allocate

; 74   : 		const uintptr_t _Ptr_container =
; 75   : 			reinterpret_cast<uintptr_t>(::operator new(_Block_size));

  00026	51		 push	 ecx
  00027	e8 00 00 00 00	 call	 ??2@YAPAXI@Z		; operator new
  0002c	8b c8		 mov	 ecx, eax
  0002e	83 c4 04	 add	 esp, 4

; 76   : 		_SCL_SECURE_ALWAYS_VALIDATE(_Ptr_container != 0);

  00031	85 c9		 test	 ecx, ecx
  00033	74 26		 je	 SHORT $LN17@allocate

; 77   : 		_Ptr = reinterpret_cast<void *>((_Ptr_container + _NON_USER_SIZE)

  00035	8d 41 23	 lea	 eax, DWORD PTR [ecx+35]
  00038	83 e0 e0	 and	 eax, -32		; ffffffe0H

; 78   : 			& ~(_BIG_ALLOCATION_ALIGNMENT - 1));
; 79   : 		static_cast<uintptr_t *>(_Ptr)[-1] = _Ptr_container;

  0003b	89 48 fc	 mov	 DWORD PTR [eax-4], ecx

; 643  : 		return (static_cast<pointer>(_Allocate(_Count, sizeof (_Ty))));
; 644  : 		}

  0003e	5d		 pop	 ebp
  0003f	c2 04 00	 ret	 4
$LN6@allocate:

; 80   : 
; 81   :  #ifdef _DEBUG
; 82   : 		static_cast<uintptr_t *>(_Ptr)[-2] = _BIG_ALLOCATION_SENTINEL;
; 83   :  #endif /* _DEBUG */
; 84   : 		}
; 85   : 	else
; 86   :  #endif /* defined(_M_IX86) || defined(_M_X64) */
; 87   : 
; 88   : 		{	// allocate normal block
; 89   : 		_Ptr = ::operator new(_User_size);

  00042	50		 push	 eax
  00043	e8 00 00 00 00	 call	 ??2@YAPAXI@Z		; operator new
  00048	83 c4 04	 add	 esp, 4

; 90   : 		_SCL_SECURE_ALWAYS_VALIDATE(_Ptr != 0);

  0004b	85 c0		 test	 eax, eax
  0004d	75 bb		 jne	 SHORT $LN12@allocate
  0004f	eb 0f		 jmp	 SHORT $LN18@allocate
$LN14@allocate:

; 62   : 		_Xbad_alloc();	// report no memory

  00051	e8 00 00 00 00	 call	 ?_Xbad_alloc@std@@YAXXZ	; std::_Xbad_alloc
$LN19@allocate:
$LN16@allocate:

; 73   : 			_Xbad_alloc();	// report no memory

  00056	e8 00 00 00 00	 call	 ?_Xbad_alloc@std@@YAXXZ	; std::_Xbad_alloc
$LN20@allocate:
$LN17@allocate:

; 76   : 		_SCL_SECURE_ALWAYS_VALIDATE(_Ptr_container != 0);

  0005b	e8 00 00 00 00	 call	 __invalid_parameter_noinfo_noreturn
$LN21@allocate:
$LN18@allocate:

; 90   : 		_SCL_SECURE_ALWAYS_VALIDATE(_Ptr != 0);

  00060	e8 00 00 00 00	 call	 __invalid_parameter_noinfo_noreturn
$LN22@allocate:
$LN13@allocate:
  00065	cc		 int	 3
?allocate@?$allocator@UNoticeConnectInfo@@@std@@QAEPAUNoticeConnectInfo@@I@Z ENDP ; std::allocator<NoticeConnectInfo>::allocate
_TEXT	ENDS
; Function compile flags: /Ogtp
; File c:\program files (x86)\microsoft visual studio 14.0\vc\include\xmemory0
;	COMDAT ?deallocate@?$allocator@UNoticeConnectInfo@@@std@@QAEXPAUNoticeConnectInfo@@I@Z
_TEXT	SEGMENT
__Ptr$ = 8						; size = 4
__Count$ = 12						; size = 4
?deallocate@?$allocator@UNoticeConnectInfo@@@std@@QAEXPAUNoticeConnectInfo@@I@Z PROC ; std::allocator<NoticeConnectInfo>::deallocate, COMDAT
; _this$ = ecx

; 637  : 		{	// deallocate object at _Ptr

  00000	55		 push	 ebp
  00001	8b ec		 mov	 ebp, esp

; 100  : 	_SCL_SECURE_ALWAYS_VALIDATE(_Count <= (size_t)(-1) / _Sz);

  00003	8b 45 0c	 mov	 eax, DWORD PTR __Count$[ebp]

; 638  : 		_Deallocate(_Ptr, _Count, sizeof (_Ty));

  00006	8b 4d 08	 mov	 ecx, DWORD PTR __Ptr$[ebp]

; 100  : 	_SCL_SECURE_ALWAYS_VALIDATE(_Count <= (size_t)(-1) / _Sz);

  00009	3d 0c df 88 02	 cmp	 eax, 42524428		; 0288df0cH
  0000e	77 31		 ja	 SHORT $LN13@deallocate

; 101  : 	const size_t _User_size = _Count * _Sz;

  00010	6b c0 65	 imul	 eax, eax, 101

; 102  : 	if (_BIG_ALLOCATION_THRESHOLD <= _User_size)

  00013	3d 00 10 00 00	 cmp	 eax, 4096		; 00001000H
  00018	72 1a		 jb	 SHORT $LN5@deallocate

; 103  : 		{	// deallocate large block
; 104  : 		const uintptr_t _Ptr_user = reinterpret_cast<uintptr_t>(_Ptr);
; 105  : 		_SCL_SECURE_ALWAYS_VALIDATE(

  0001a	f6 c1 1f	 test	 cl, 31			; 0000001fH
  0001d	75 27		 jne	 SHORT $LN15@deallocate

; 106  : 			(_Ptr_user & (_BIG_ALLOCATION_ALIGNMENT - 1)) == 0);
; 107  : 		const uintptr_t _Ptr_ptr = _Ptr_user - sizeof(void *);
; 108  : 		const uintptr_t _Ptr_container =
; 109  : 			*reinterpret_cast<uintptr_t *>(_Ptr_ptr);

  0001f	8b 41 fc	 mov	 eax, DWORD PTR [ecx-4]

; 110  : 
; 111  :  #ifdef _DEBUG
; 112  : 		// If the following asserts, it likely means that we are performing
; 113  : 		// an aligned delete on memory coming from an unaligned allocation.
; 114  : 		_SCL_SECURE_ALWAYS_VALIDATE(
; 115  : 			reinterpret_cast<uintptr_t *>(_Ptr_ptr)[-1] ==
; 116  : 				_BIG_ALLOCATION_SENTINEL);
; 117  :  #endif /* _DEBUG */
; 118  : 
; 119  : 		// Extra paranoia on aligned allocation/deallocation
; 120  : 		_SCL_SECURE_ALWAYS_VALIDATE(_Ptr_container < _Ptr_user);

  00022	3b c1		 cmp	 eax, ecx
  00024	73 25		 jae	 SHORT $LN16@deallocate

; 121  : 
; 122  :  #ifdef _DEBUG
; 123  : 		_SCL_SECURE_ALWAYS_VALIDATE(2 * sizeof(void *)
; 124  : 			<= _Ptr_user - _Ptr_container);
; 125  : 
; 126  :  #else /* _DEBUG */
; 127  : 		_SCL_SECURE_ALWAYS_VALIDATE(sizeof(void *)

  00026	2b c8		 sub	 ecx, eax
  00028	83 f9 04	 cmp	 ecx, 4
  0002b	72 23		 jb	 SHORT $LN17@deallocate

; 128  : 			<= _Ptr_user - _Ptr_container);
; 129  :  #endif /* _DEBUG */
; 130  : 
; 131  : 		_SCL_SECURE_ALWAYS_VALIDATE(_Ptr_user - _Ptr_container

  0002d	83 f9 23	 cmp	 ecx, 35			; 00000023H
  00030	77 23		 ja	 SHORT $LN18@deallocate

; 132  : 			<= _NON_USER_SIZE);
; 133  : 
; 134  : 		_Ptr = reinterpret_cast<void *>(_Ptr_container);

  00032	8b c8		 mov	 ecx, eax
$LN5@deallocate:

; 135  : 		}
; 136  :  #endif /* defined(_M_IX86) || defined(_M_X64) */
; 137  : 
; 138  : 	::operator delete(_Ptr);

  00034	51		 push	 ecx
  00035	e8 00 00 00 00	 call	 ??3@YAXPAX@Z		; operator delete
  0003a	83 c4 04	 add	 esp, 4

; 639  : 		}

  0003d	5d		 pop	 ebp
  0003e	c2 08 00	 ret	 8
$LN13@deallocate:

; 100  : 	_SCL_SECURE_ALWAYS_VALIDATE(_Count <= (size_t)(-1) / _Sz);

  00041	e8 00 00 00 00	 call	 __invalid_parameter_noinfo_noreturn
$LN19@deallocate:
$LN15@deallocate:

; 103  : 		{	// deallocate large block
; 104  : 		const uintptr_t _Ptr_user = reinterpret_cast<uintptr_t>(_Ptr);
; 105  : 		_SCL_SECURE_ALWAYS_VALIDATE(

  00046	e8 00 00 00 00	 call	 __invalid_parameter_noinfo_noreturn
$LN20@deallocate:
$LN16@deallocate:

; 110  : 
; 111  :  #ifdef _DEBUG
; 112  : 		// If the following asserts, it likely means that we are performing
; 113  : 		// an aligned delete on memory coming from an unaligned allocation.
; 114  : 		_SCL_SECURE_ALWAYS_VALIDATE(
; 115  : 			reinterpret_cast<uintptr_t *>(_Ptr_ptr)[-1] ==
; 116  : 				_BIG_ALLOCATION_SENTINEL);
; 117  :  #endif /* _DEBUG */
; 118  : 
; 119  : 		// Extra paranoia on aligned allocation/deallocation
; 120  : 		_SCL_SECURE_ALWAYS_VALIDATE(_Ptr_container < _Ptr_user);

  0004b	e8 00 00 00 00	 call	 __invalid_parameter_noinfo_noreturn
$LN21@deallocate:
$LN17@deallocate:

; 121  : 
; 122  :  #ifdef _DEBUG
; 123  : 		_SCL_SECURE_ALWAYS_VALIDATE(2 * sizeof(void *)
; 124  : 			<= _Ptr_user - _Ptr_container);
; 125  : 
; 126  :  #else /* _DEBUG */
; 127  : 		_SCL_SECURE_ALWAYS_VALIDATE(sizeof(void *)

  00050	e8 00 00 00 00	 call	 __invalid_parameter_noinfo_noreturn
$LN22@deallocate:
$LN18@deallocate:

; 128  : 			<= _Ptr_user - _Ptr_container);
; 129  :  #endif /* _DEBUG */
; 130  : 
; 131  : 		_SCL_SECURE_ALWAYS_VALIDATE(_Ptr_user - _Ptr_container

  00055	e8 00 00 00 00	 call	 __invalid_parameter_noinfo_noreturn
$LN23@deallocate:
$LN12@deallocate:
  0005a	cc		 int	 3
?deallocate@?$allocator@UNoticeConnectInfo@@@std@@QAEXPAUNoticeConnectInfo@@I@Z ENDP ; std::allocator<NoticeConnectInfo>::deallocate
_TEXT	ENDS
; Function compile flags: /Ogtp
; File c:\program files (x86)\microsoft visual studio 14.0\vc\include\xmemory0
;	COMDAT ??0?$allocator@UNoticeConnectInfo@@@std@@QAE@ABV01@@Z
_TEXT	SEGMENT
___formal$ = 8						; size = 4
??0?$allocator@UNoticeConnectInfo@@@std@@QAE@ABV01@@Z PROC ; std::allocator<NoticeConnectInfo>::allocator<NoticeConnectInfo>, COMDAT
; _this$ = ecx

; 622  : 		{	// construct by copying (do nothing)
; 623  : 		}

  00000	8b c1		 mov	 eax, ecx
  00002	c2 04 00	 ret	 4
??0?$allocator@UNoticeConnectInfo@@@std@@QAE@ABV01@@Z ENDP ; std::allocator<NoticeConnectInfo>::allocator<NoticeConnectInfo>
_TEXT	ENDS
; Function compile flags: /Ogtp
; File c:\program files (x86)\microsoft visual studio 14.0\vc\include\xmemory0
;	COMDAT ??0?$allocator@UNoticeConnectInfo@@@std@@QAE@XZ
_TEXT	SEGMENT
??0?$allocator@UNoticeConnectInfo@@@std@@QAE@XZ PROC	; std::allocator<NoticeConnectInfo>::allocator<NoticeConnectInfo>, COMDAT
; _this$ = ecx

; 618  : 		{	// construct default allocator (do nothing)
; 619  : 		}

  00000	8b c1		 mov	 eax, ecx
  00002	c3		 ret	 0
??0?$allocator@UNoticeConnectInfo@@@std@@QAE@XZ ENDP	; std::allocator<NoticeConnectInfo>::allocator<NoticeConnectInfo>
_TEXT	ENDS
; Function compile flags: /Ogtp
; File c:\users\michel\desktop\source\gameserver\source\notice.cpp
; File c:\program files (x86)\microsoft visual studio 14.0\vc\include\vector
; File c:\users\michel\desktop\source\gameserver\source\notice.cpp
; File c:\program files (x86)\microsoft visual studio 14.0\vc\include\vector
; File c:\users\michel\desktop\source\gameserver\source\notice.cpp
; File c:\program files (x86)\microsoft visual studio 14.0\vc\include\vector
; File c:\users\michel\desktop\source\gameserver\source\notice.cpp
; File c:\program files (x86)\microsoft visual studio 14.0\vc\include\vector
; File c:\users\michel\desktop\source\gameserver\source\notice.cpp
; File c:\program files (x86)\microsoft visual studio 14.0\vc\include\vector
; File c:\users\michel\desktop\source\gameserver\source\notice.cpp
; File c:\program files (x86)\microsoft visual studio 14.0\vc\include\vector
; File c:\users\michel\desktop\source\gameserver\source\notice.cpp
; File c:\program files (x86)\microsoft visual studio 14.0\vc\include\vector
; File c:\users\michel\desktop\source\gameserver\source\notice.cpp
; File c:\program files (x86)\microsoft visual studio 14.0\vc\include\vector
; File c:\users\michel\desktop\source\gameserver\source\notice.cpp
; File c:\program files (x86)\microsoft visual studio 14.0\vc\include\vector
; File c:\users\michel\desktop\source\gameserver\source\notice.cpp
;	COMDAT ?SendOnPoint@Notice@@QAEXXZ
_TEXT	SEGMENT
tv385 = -268						; size = 4
_i$1$ = -264						; size = 4
_Temp$1 = -260						; size = 256
__$ArrayPad$ = -4					; size = 4
?SendOnPoint@Notice@@QAEXXZ PROC			; Notice::SendOnPoint, COMDAT
; _this$ = ecx

; 147  : {

  00000	55		 push	 ebp
  00001	8b ec		 mov	 ebp, esp
  00003	81 ec 0c 01 00
	00		 sub	 esp, 268		; 0000010cH
  00009	a1 00 00 00 00	 mov	 eax, DWORD PTR ___security_cookie
  0000e	33 c5		 xor	 eax, ebp
  00010	89 45 fc	 mov	 DWORD PTR __$ArrayPad$[ebp], eax
  00013	53		 push	 ebx
  00014	8b d9		 mov	 ebx, ecx
; File c:\program files (x86)\microsoft visual studio 14.0\vc\include\vector

; 1189 : 		return (this->_Myfirst() == this->_Mylast());

  00016	8b 43 10	 mov	 eax, DWORD PTR [ebx+16]
  00019	3b 43 14	 cmp	 eax, DWORD PTR [ebx+20]
; File c:\users\michel\desktop\source\gameserver\source\notice.cpp

; 148  : 	if( this->m_RotateList.empty() )

  0001c	0f 84 09 01 00
	00		 je	 $LN3@SendOnPoin
; File c:\program files (x86)\microsoft visual studio 14.0\vc\include\vector

; 1179 : 		return (this->_Mylast() - this->_Myfirst());

  00022	8b 4b 14	 mov	 ecx, DWORD PTR [ebx+20]
  00025	2b c8		 sub	 ecx, eax
; File c:\users\michel\desktop\source\gameserver\source\notice.cpp

; 153  : 	for( int i = 0; i < this->m_RotateList.size(); i++ )

  00027	c7 85 f8 fe ff
	ff 00 00 00 00	 mov	 DWORD PTR _i$1$[ebp], 0
; File c:\program files (x86)\microsoft visual studio 14.0\vc\include\vector

; 1179 : 		return (this->_Mylast() - this->_Myfirst());

  00031	b8 f7 12 da 4b	 mov	 eax, 1272582903		; 4bda12f7H
  00036	f7 e9		 imul	 ecx
  00038	c1 fa 05	 sar	 edx, 5
  0003b	8b c2		 mov	 eax, edx
  0003d	c1 e8 1f	 shr	 eax, 31			; 0000001fH
  00040	03 c2		 add	 eax, edx
; File c:\users\michel\desktop\source\gameserver\source\notice.cpp

; 153  : 	for( int i = 0; i < this->m_RotateList.size(); i++ )

  00042	0f 84 e3 00 00
	00		 je	 $LN3@SendOnPoin
  00048	56		 push	 esi
  00049	57		 push	 edi
  0004a	33 ff		 xor	 edi, edi
  0004c	89 bd f4 fe ff
	ff		 mov	 DWORD PTR tv385[ebp], edi
$LL4@SendOnPoin:
; File c:\program files (x86)\microsoft visual studio 14.0\vc\include\vector

; 1240 : 		return (*(this->_Myfirst() + _Pos));

  00052	8b 73 10	 mov	 esi, DWORD PTR [ebx+16]
; File c:\users\michel\desktop\source\gameserver\source\notice.cpp

; 155  : 		if( m_RotateList[i].Tick < GetTickCount() )

  00055	ff 15 00 00 00
	00		 call	 DWORD PTR __imp__GetTickCount@0
  0005b	39 44 3e 04	 cmp	 DWORD PTR [esi+edi+4], eax
  0005f	0f 83 8f 00 00
	00		 jae	 $LN2@SendOnPoin

; 156  : 		{
; 157  : 			BYTE Temp[256] = { 0 };
; 158  : 			this->Create(Temp, this->m_RotateList[i].Type, this->m_RotateList[i].Text);

  00065	68 00 01 00 00	 push	 256			; 00000100H
  0006a	8d 85 fc fe ff
	ff		 lea	 eax, DWORD PTR _Temp$1[ebp]
  00070	6a 00		 push	 0
  00072	50		 push	 eax
  00073	e8 00 00 00 00	 call	 _memset
  00078	8b 4b 10	 mov	 ecx, DWORD PTR [ebx+16]
  0007b	83 c4 0c	 add	 esp, 12			; 0000000cH
  0007e	8d 41 08	 lea	 eax, DWORD PTR [ecx+8]
  00081	03 c7		 add	 eax, edi
  00083	50		 push	 eax
  00084	0f b6 04 39	 movzx	 eax, BYTE PTR [ecx+edi]
  00088	8b cb		 mov	 ecx, ebx
  0008a	50		 push	 eax
  0008b	8d 85 fc fe ff
	ff		 lea	 eax, DWORD PTR _Temp$1[ebp]
  00091	50		 push	 eax
  00092	e8 00 00 00 00	 call	 ?Create@Notice@@QAEXPAEEPAD@Z ; Notice::Create

; 159  : 			// ----
; 160  : 			for( int UserIndex = OBJ_STARTUSERINDEX; UserIndex < OBJMAX; UserIndex++ )

  00097	bf 04 29 00 00	 mov	 edi, 10500		; 00002904H
  0009c	be 00 dd 49 06	 mov	 esi, 105504000		; 0649dd00H
$LL7@SendOnPoin:

; 161  : 			{
; 162  : 				if( gObj[UserIndex].Connected == PLAYER_PLAYING )

  000a1	a1 00 00 00 00	 mov	 eax, DWORD PTR ?gObj@@3PAUOBJECTSTRUCT@@A ; gObj
  000a6	83 7c 06 04 03	 cmp	 DWORD PTR [esi+eax+4], 3
  000ab	75 18		 jne	 SHORT $LN5@SendOnPoin

; 163  : 				{
; 164  : 					DataSend(UserIndex, Temp, ((PBMSG_HEAD*)(Temp))->size);

  000ad	0f b6 85 fd fe
	ff ff		 movzx	 eax, BYTE PTR _Temp$1[ebp+1]
  000b4	50		 push	 eax
  000b5	8d 85 fc fe ff
	ff		 lea	 eax, DWORD PTR _Temp$1[ebp]
  000bb	50		 push	 eax
  000bc	57		 push	 edi
  000bd	e8 00 00 00 00	 call	 ?DataSend@@YAHHPAEK@Z	; DataSend
  000c2	83 c4 0c	 add	 esp, 12			; 0000000cH
$LN5@SendOnPoin:

; 159  : 			// ----
; 160  : 			for( int UserIndex = OBJ_STARTUSERINDEX; UserIndex < OBJMAX; UserIndex++ )

  000c5	81 c6 40 27 00
	00		 add	 esi, 10048		; 00002740H
  000cb	47		 inc	 edi
  000cc	81 fe 00 2f e3
	06		 cmp	 esi, 115552000		; 06e32f00H
  000d2	7c cd		 jl	 SHORT $LL7@SendOnPoin
; File c:\program files (x86)\microsoft visual studio 14.0\vc\include\vector

; 1240 : 		return (*(this->_Myfirst() + _Pos));

  000d4	8b 73 10	 mov	 esi, DWORD PTR [ebx+16]
  000d7	8b bd f4 fe ff
	ff		 mov	 edi, DWORD PTR tv385[ebp]
; File c:\users\michel\desktop\source\gameserver\source\notice.cpp

; 168  : 			this->m_RotateList[i].Tick = GetTickCount() + this->m_RotateList[i].Delay * 60000;

  000dd	ff 15 00 00 00
	00		 call	 DWORD PTR __imp__GetTickCount@0
  000e3	0f bf 4c 3e 02	 movsx	 ecx, WORD PTR [esi+edi+2]
  000e8	69 c9 60 ea 00
	00		 imul	 ecx, ecx, 60000
  000ee	03 c1		 add	 eax, ecx
  000f0	89 44 3e 04	 mov	 DWORD PTR [esi+edi+4], eax
$LN2@SendOnPoin:
; File c:\program files (x86)\microsoft visual studio 14.0\vc\include\vector

; 1179 : 		return (this->_Mylast() - this->_Myfirst());

  000f4	8b 4b 14	 mov	 ecx, DWORD PTR [ebx+20]
  000f7	b8 f7 12 da 4b	 mov	 eax, 1272582903		; 4bda12f7H
  000fc	2b 4b 10	 sub	 ecx, DWORD PTR [ebx+16]
; File c:\users\michel\desktop\source\gameserver\source\notice.cpp

; 153  : 	for( int i = 0; i < this->m_RotateList.size(); i++ )

  000ff	83 c7 6c	 add	 edi, 108		; 0000006cH
  00102	8b b5 f8 fe ff
	ff		 mov	 esi, DWORD PTR _i$1$[ebp]
; File c:\program files (x86)\microsoft visual studio 14.0\vc\include\vector

; 1179 : 		return (this->_Mylast() - this->_Myfirst());

  00108	f7 e9		 imul	 ecx
; File c:\users\michel\desktop\source\gameserver\source\notice.cpp

; 153  : 	for( int i = 0; i < this->m_RotateList.size(); i++ )

  0010a	46		 inc	 esi
  0010b	89 bd f4 fe ff
	ff		 mov	 DWORD PTR tv385[ebp], edi
; File c:\program files (x86)\microsoft visual studio 14.0\vc\include\vector

; 1179 : 		return (this->_Mylast() - this->_Myfirst());

  00111	c1 fa 05	 sar	 edx, 5
  00114	8b c2		 mov	 eax, edx
; File c:\users\michel\desktop\source\gameserver\source\notice.cpp

; 153  : 	for( int i = 0; i < this->m_RotateList.size(); i++ )

  00116	89 b5 f8 fe ff
	ff		 mov	 DWORD PTR _i$1$[ebp], esi
; File c:\program files (x86)\microsoft visual studio 14.0\vc\include\vector

; 1179 : 		return (this->_Mylast() - this->_Myfirst());

  0011c	c1 e8 1f	 shr	 eax, 31			; 0000001fH
  0011f	03 c2		 add	 eax, edx
; File c:\users\michel\desktop\source\gameserver\source\notice.cpp

; 153  : 	for( int i = 0; i < this->m_RotateList.size(); i++ )

  00121	3b f0		 cmp	 esi, eax
  00123	0f 82 29 ff ff
	ff		 jb	 $LL4@SendOnPoin
  00129	5f		 pop	 edi
  0012a	5e		 pop	 esi
$LN3@SendOnPoin:

; 169  : 		}
; 170  : 	}
; 171  : }

  0012b	8b 4d fc	 mov	 ecx, DWORD PTR __$ArrayPad$[ebp]
  0012e	33 cd		 xor	 ecx, ebp
  00130	5b		 pop	 ebx
  00131	e8 00 00 00 00	 call	 @__security_check_cookie@4
  00136	8b e5		 mov	 esp, ebp
  00138	5d		 pop	 ebp
  00139	c3		 ret	 0
?SendOnPoint@Notice@@QAEXXZ ENDP			; Notice::SendOnPoint
_TEXT	ENDS
; Function compile flags: /Ogtp
; File c:\users\michel\desktop\source\gameserver\source\notice.cpp
; File c:\program files (x86)\microsoft visual studio 14.0\vc\include\vector
; File c:\users\michel\desktop\source\gameserver\source\notice.cpp
; File c:\program files (x86)\microsoft visual studio 14.0\vc\include\vector
; File c:\users\michel\desktop\source\gameserver\source\notice.cpp
; File c:\program files (x86)\microsoft visual studio 14.0\vc\include\vector
; File c:\users\michel\desktop\source\gameserver\source\notice.cpp
; File c:\program files (x86)\microsoft visual studio 14.0\vc\include\vector
; File c:\users\michel\desktop\source\gameserver\source\notice.cpp
; File c:\program files (x86)\microsoft visual studio 14.0\vc\include\vector
; File c:\users\michel\desktop\source\gameserver\source\notice.cpp
;	COMDAT ?SendOnConnect@Notice@@QAEXH@Z
_TEXT	SEGMENT
_i$1$ = -264						; size = 4
_Temp$1 = -260						; size = 256
__$ArrayPad$ = -4					; size = 4
_UserIndex$ = 8						; size = 4
?SendOnConnect@Notice@@QAEXH@Z PROC			; Notice::SendOnConnect, COMDAT
; _this$ = ecx

; 131  : {

  00000	55		 push	 ebp
  00001	8b ec		 mov	 ebp, esp
  00003	81 ec 08 01 00
	00		 sub	 esp, 264		; 00000108H
  00009	a1 00 00 00 00	 mov	 eax, DWORD PTR ___security_cookie
  0000e	33 c5		 xor	 eax, ebp
  00010	89 45 fc	 mov	 DWORD PTR __$ArrayPad$[ebp], eax
  00013	56		 push	 esi
  00014	8b f1		 mov	 esi, ecx
; File c:\program files (x86)\microsoft visual studio 14.0\vc\include\vector

; 1189 : 		return (this->_Myfirst() == this->_Mylast());

  00016	8b 46 04	 mov	 eax, DWORD PTR [esi+4]
  00019	3b 46 08	 cmp	 eax, DWORD PTR [esi+8]
; File c:\users\michel\desktop\source\gameserver\source\notice.cpp

; 132  : 	if( this->m_ConnectList.empty() || !OBJMAX_RANGE(UserIndex) )

  0001c	0f 84 c2 00 00
	00		 je	 $LN6@SendOnConn
  00022	57		 push	 edi
  00023	8b 7d 08	 mov	 edi, DWORD PTR _UserIndex$[ebp]
  00026	85 ff		 test	 edi, edi
  00028	0f 88 b5 00 00
	00		 js	 $LN78@SendOnConn
  0002e	33 c0		 xor	 eax, eax
  00030	81 ff eb 2c 00
	00		 cmp	 edi, 11499		; 00002cebH
  00036	0f 9e c0	 setle	 al
  00039	85 c0		 test	 eax, eax
  0003b	0f 84 a2 00 00
	00		 je	 $LN78@SendOnConn

; 137  : 	for( int i = 0; i < this->m_ConnectList.size(); i++ )

  00041	33 c9		 xor	 ecx, ecx
; File c:\program files (x86)\microsoft visual studio 14.0\vc\include\vector

; 1179 : 		return (this->_Mylast() - this->_Myfirst());

  00043	b8 cb f0 8d 28	 mov	 eax, 680390859		; 288df0cbH
; File c:\users\michel\desktop\source\gameserver\source\notice.cpp

; 137  : 	for( int i = 0; i < this->m_ConnectList.size(); i++ )

  00048	89 8d f8 fe ff
	ff		 mov	 DWORD PTR _i$1$[ebp], ecx
; File c:\program files (x86)\microsoft visual studio 14.0\vc\include\vector

; 1179 : 		return (this->_Mylast() - this->_Myfirst());

  0004e	8b 4e 08	 mov	 ecx, DWORD PTR [esi+8]
  00051	2b 4e 04	 sub	 ecx, DWORD PTR [esi+4]
  00054	f7 e9		 imul	 ecx
  00056	c1 fa 04	 sar	 edx, 4
  00059	8b c2		 mov	 eax, edx
  0005b	c1 e8 1f	 shr	 eax, 31			; 0000001fH
  0005e	03 c2		 add	 eax, edx
; File c:\users\michel\desktop\source\gameserver\source\notice.cpp

; 137  : 	for( int i = 0; i < this->m_ConnectList.size(); i++ )

  00060	0f 84 7d 00 00
	00		 je	 $LN78@SendOnConn
  00066	53		 push	 ebx
  00067	33 db		 xor	 ebx, ebx
  00069	0f 1f 80 00 00
	00 00		 npad	 7
$LL4@SendOnConn:

; 138  : 	{
; 139  : 		BYTE Temp[256] = { 0 };
; 140  : 		this->Create(Temp, this->m_ConnectList[i].Type, this->m_ConnectList[i].Text);

  00070	68 00 01 00 00	 push	 256			; 00000100H
  00075	8d 85 fc fe ff
	ff		 lea	 eax, DWORD PTR _Temp$1[ebp]
  0007b	6a 00		 push	 0
  0007d	50		 push	 eax
  0007e	e8 00 00 00 00	 call	 _memset
  00083	8b 4e 04	 mov	 ecx, DWORD PTR [esi+4]
  00086	83 c4 0c	 add	 esp, 12			; 0000000cH
  00089	8d 41 01	 lea	 eax, DWORD PTR [ecx+1]
  0008c	03 c3		 add	 eax, ebx
  0008e	50		 push	 eax
  0008f	0f b6 04 19	 movzx	 eax, BYTE PTR [ecx+ebx]
  00093	8b ce		 mov	 ecx, esi
  00095	50		 push	 eax
  00096	8d 85 fc fe ff
	ff		 lea	 eax, DWORD PTR _Temp$1[ebp]
  0009c	50		 push	 eax
  0009d	e8 00 00 00 00	 call	 ?Create@Notice@@QAEXPAEEPAD@Z ; Notice::Create

; 141  : 		DataSend(UserIndex, Temp, ((PBMSG_HEAD*)(Temp))->size);

  000a2	0f b6 85 fd fe
	ff ff		 movzx	 eax, BYTE PTR _Temp$1[ebp+1]
  000a9	50		 push	 eax
  000aa	8d 85 fc fe ff
	ff		 lea	 eax, DWORD PTR _Temp$1[ebp]
  000b0	50		 push	 eax
  000b1	57		 push	 edi
  000b2	e8 00 00 00 00	 call	 ?DataSend@@YAHHPAEK@Z	; DataSend
; File c:\program files (x86)\microsoft visual studio 14.0\vc\include\vector

; 1179 : 		return (this->_Mylast() - this->_Myfirst());

  000b7	8b 4e 08	 mov	 ecx, DWORD PTR [esi+8]
  000ba	b8 cb f0 8d 28	 mov	 eax, 680390859		; 288df0cbH
  000bf	2b 4e 04	 sub	 ecx, DWORD PTR [esi+4]
; File c:\users\michel\desktop\source\gameserver\source\notice.cpp

; 141  : 		DataSend(UserIndex, Temp, ((PBMSG_HEAD*)(Temp))->size);

  000c2	83 c4 0c	 add	 esp, 12			; 0000000cH
  000c5	ff 85 f8 fe ff
	ff		 inc	 DWORD PTR _i$1$[ebp]
  000cb	83 c3 65	 add	 ebx, 101		; 00000065H
; File c:\program files (x86)\microsoft visual studio 14.0\vc\include\vector

; 1179 : 		return (this->_Mylast() - this->_Myfirst());

  000ce	f7 e9		 imul	 ecx
  000d0	c1 fa 04	 sar	 edx, 4
  000d3	8b c2		 mov	 eax, edx
  000d5	c1 e8 1f	 shr	 eax, 31			; 0000001fH
  000d8	03 c2		 add	 eax, edx
; File c:\users\michel\desktop\source\gameserver\source\notice.cpp

; 137  : 	for( int i = 0; i < this->m_ConnectList.size(); i++ )

  000da	39 85 f8 fe ff
	ff		 cmp	 DWORD PTR _i$1$[ebp], eax
  000e0	72 8e		 jb	 SHORT $LL4@SendOnConn
  000e2	5b		 pop	 ebx
$LN78@SendOnConn:
  000e3	5f		 pop	 edi
$LN6@SendOnConn:

; 142  : 	}
; 143  : }

  000e4	8b 4d fc	 mov	 ecx, DWORD PTR __$ArrayPad$[ebp]
  000e7	33 cd		 xor	 ecx, ebp
  000e9	5e		 pop	 esi
  000ea	e8 00 00 00 00	 call	 @__security_check_cookie@4
  000ef	8b e5		 mov	 esp, ebp
  000f1	5d		 pop	 ebp
  000f2	c2 04 00	 ret	 4
?SendOnConnect@Notice@@QAEXH@Z ENDP			; Notice::SendOnConnect
_TEXT	ENDS
; Function compile flags: /Ogtp
; File c:\users\michel\desktop\source\gameserver\source\notice.cpp
;	COMDAT ?Create@Notice@@QAEXPAEEPAD@Z
_TEXT	SEGMENT
_Buffer$ = 8						; size = 4
_Type$ = 12						; size = 1
_Text$ = 16						; size = 4
?Create@Notice@@QAEXPAEEPAD@Z PROC			; Notice::Create, COMDAT
; _this$ = ecx

; 84   : {

  00000	55		 push	 ebp
  00001	8b ec		 mov	 ebp, esp
  00003	56		 push	 esi

; 85   : 	if( Buffer == NULL || Text == NULL )

  00004	8b 75 08	 mov	 esi, DWORD PTR _Buffer$[ebp]
  00007	85 f6		 test	 esi, esi
  00009	0f 84 ab 00 00
	00		 je	 $LN5@Create
  0000f	53		 push	 ebx
  00010	8b 5d 10	 mov	 ebx, DWORD PTR _Text$[ebp]
  00013	85 db		 test	 ebx, ebx
  00015	0f 84 9e 00 00
	00		 je	 $LN22@Create

; 86   : 	{
; 87   : 		return;
; 88   : 	}
; 89   : 	// ----
; 90   : 	PMSG_CHATDATA_WHISPER* lpChat = (PMSG_CHATDATA_WHISPER*)Buffer;
; 91   : 	PHeadSetB((LPBYTE)lpChat, 0, sizeof(PMSG_CHATDATA_WHISPER));

  0001b	6a 71		 push	 113			; 00000071H
  0001d	6a 00		 push	 0
  0001f	56		 push	 esi
  00020	e8 00 00 00 00	 call	 ?PHeadSetB@@YAXPAEEH@Z	; PHeadSetB

; 92   : 	strcpy(lpChat->id, "[Notice]");

  00025	b9 00 00 00 00	 mov	 ecx, OFFSET ??_C@_08MEBDPAPN@?$FLNotice?$FN?$AA@
  0002a	8d 56 03	 lea	 edx, DWORD PTR [esi+3]
  0002d	83 c4 0c	 add	 esp, 12			; 0000000cH
  00030	2b d1		 sub	 edx, ecx
$LL16@Create:
  00032	8a 01		 mov	 al, BYTE PTR [ecx]
  00034	8d 49 01	 lea	 ecx, DWORD PTR [ecx+1]
  00037	88 44 0a ff	 mov	 BYTE PTR [edx+ecx-1], al
  0003b	84 c0		 test	 al, al
  0003d	75 f3		 jne	 SHORT $LL16@Create

; 93   : 	// ----
; 94   : 	switch(Type)

  0003f	8a 45 0c	 mov	 al, BYTE PTR _Type$[ebp]
  00042	0f b6 c8	 movzx	 ecx, al
  00045	83 f9 06	 cmp	 ecx, 6
  00048	77 2c		 ja	 SHORT $LN13@Create
  0004a	ff 24 8d 00 00
	00 00		 jmp	 DWORD PTR $LN25@Create[ecx*4]
$LN7@Create:

; 95   : 	{
; 96   : 	case 0:
; 97   : 		TNotice::MakeNoticeMsg(Buffer, 0, Text);
; 98   : 		break;
; 99   : 	case 1:
; 100  : 		TNotice::MakeNoticeMsg(Buffer, 1, Text);

  00051	53		 push	 ebx
  00052	6a 01		 push	 1

; 101  : 		break;

  00054	eb 23		 jmp	 SHORT $LN23@Create
$LN8@Create:

; 102  : 	case 2:
; 103  : 		lpChat->h.headcode = 2;

  00056	c6 46 02 02	 mov	 BYTE PTR [esi+2], 2

; 104  : 		break;

  0005a	eb 29		 jmp	 SHORT $LN2@Create
$LN9@Create:

; 105  : 	case 3:
; 106  : 		lpChat->chatmsg[0] = '~';

  0005c	c6 46 0d 7e	 mov	 BYTE PTR [esi+13], 126	; 0000007eH

; 107  : 		break;

  00060	eb 23		 jmp	 SHORT $LN2@Create
$LN10@Create:

; 108  : 	case 4:
; 109  : 		lpChat->chatmsg[0] = '@';

  00062	c6 46 0d 40	 mov	 BYTE PTR [esi+13], 64	; 00000040H

; 110  : 		break;

  00066	eb 1d		 jmp	 SHORT $LN2@Create
$LN11@Create:

; 111  : 	case 5:
; 112  : 		lpChat->chatmsg[0] = '@';

  00068	66 c7 46 0d 40
	40		 mov	 WORD PTR [esi+13], 16448 ; 00004040H

; 113  : 		lpChat->chatmsg[1] = '@';
; 114  : 		break;

  0006e	eb 15		 jmp	 SHORT $LN2@Create
$LN12@Create:

; 115  : 	case 6:
; 116  : 		lpChat->chatmsg[0] = '$';

  00070	c6 46 0d 24	 mov	 BYTE PTR [esi+13], 36	; 00000024H

; 117  : 		break;

  00074	eb 0f		 jmp	 SHORT $LN2@Create
$LN13@Create:

; 118  : 	default:
; 119  : 		TNotice::MakeNoticeMsg(Buffer, 0, Text);

  00076	53		 push	 ebx
  00077	6a 00		 push	 0
$LN23@Create:
  00079	56		 push	 esi
  0007a	e8 00 00 00 00	 call	 ?MakeNoticeMsg@TNotice@@SAXPAXEPAD@Z ; TNotice::MakeNoticeMsg
  0007f	8a 45 0c	 mov	 al, BYTE PTR _Type$[ebp]
  00082	83 c4 0c	 add	 esp, 12			; 0000000cH
$LN2@Create:

; 120  : 		break;
; 121  : 	}
; 122  : 	// ----
; 123  : 	if( Type >= 2 && Type <= 6 )

  00085	2c 02		 sub	 al, 2
  00087	3c 04		 cmp	 al, 4
  00089	77 2e		 ja	 SHORT $LN22@Create

; 124  : 	{
; 125  : 		strcat(lpChat->chatmsg, Text);

  0008b	8b d3		 mov	 edx, ebx
  0008d	0f 1f 00	 npad	 3
$LL20@Create:
  00090	8a 03		 mov	 al, BYTE PTR [ebx]
  00092	43		 inc	 ebx
  00093	84 c0		 test	 al, al
  00095	75 f9		 jne	 SHORT $LL20@Create
  00097	57		 push	 edi
  00098	2b da		 sub	 ebx, edx
  0009a	8d 7e 0c	 lea	 edi, DWORD PTR [esi+12]
  0009d	0f 1f 00	 npad	 3
$LL21@Create:
  000a0	8a 47 01	 mov	 al, BYTE PTR [edi+1]
  000a3	47		 inc	 edi
  000a4	84 c0		 test	 al, al
  000a6	75 f8		 jne	 SHORT $LL21@Create
  000a8	8b cb		 mov	 ecx, ebx
  000aa	8b f2		 mov	 esi, edx
  000ac	c1 e9 02	 shr	 ecx, 2
  000af	f3 a5		 rep movsd
  000b1	8b cb		 mov	 ecx, ebx
  000b3	83 e1 03	 and	 ecx, 3
  000b6	f3 a4		 rep movsb
  000b8	5f		 pop	 edi
$LN22@Create:
  000b9	5b		 pop	 ebx
$LN5@Create:
  000ba	5e		 pop	 esi

; 126  : 	}
; 127  : }

  000bb	5d		 pop	 ebp
  000bc	c2 0c 00	 ret	 12			; 0000000cH
  000bf	90		 npad	 1
$LN25@Create:
  000c0	00 00 00 00	 DD	 $LN13@Create
  000c4	00 00 00 00	 DD	 $LN7@Create
  000c8	00 00 00 00	 DD	 $LN8@Create
  000cc	00 00 00 00	 DD	 $LN9@Create
  000d0	00 00 00 00	 DD	 $LN10@Create
  000d4	00 00 00 00	 DD	 $LN11@Create
  000d8	00 00 00 00	 DD	 $LN12@Create
?Create@Notice@@QAEXPAEEPAD@Z ENDP			; Notice::Create
_TEXT	ENDS
; Function compile flags: /Ogtp
; File c:\users\michel\desktop\source\gameserver\source\notice.cpp
; File c:\program files (x86)\microsoft visual studio 14.0\vc\include\vector
; File c:\program files (x86)\microsoft visual studio 14.0\vc\include\xmemory0
; File c:\program files (x86)\microsoft visual studio 14.0\vc\include\vector
; File c:\program files (x86)\microsoft visual studio 14.0\vc\include\xmemory0
; File c:\program files (x86)\microsoft visual studio 14.0\vc\include\vector
; File c:\users\michel\desktop\source\gameserver\source\notice.cpp
;	COMDAT ?Read@Notice@@QAEXPAD@Z
_TEXT	SEGMENT
_Result$ = -368						; size = 12
$T2 = -356						; size = 4
$T3 = -352						; size = 4
$T4 = -352						; size = 4
_Rotate$ = -348						; size = 4
_Connect$ = -344					; size = 4
$T5 = -340						; size = 4
$T6 = -340						; size = 4
$T7 = -340						; size = 4
$T8 = -336						; size = 4
$T9 = -336						; size = 4
$T10 = -336						; size = 4
_Notice$ = -332						; size = 4
_Node$ = -328						; size = 4
_Document$ = -324					; size = 200
_lpData$11 = -124					; size = 108
_lpData$12 = -120					; size = 101
__$ArrayPad$ = -16					; size = 4
__$EHRec$ = -12						; size = 12
_File$ = 8						; size = 4
?Read@Notice@@QAEXPAD@Z PROC				; Notice::Read, COMDAT
; _this$ = ecx

; 48   : {

  00000	55		 push	 ebp
  00001	8b ec		 mov	 ebp, esp
  00003	6a ff		 push	 -1
  00005	68 00 00 00 00	 push	 __ehhandler$?Read@Notice@@QAEXPAD@Z
  0000a	64 a1 00 00 00
	00		 mov	 eax, DWORD PTR fs:0
  00010	50		 push	 eax
  00011	81 ec 64 01 00
	00		 sub	 esp, 356		; 00000164H
  00017	a1 00 00 00 00	 mov	 eax, DWORD PTR ___security_cookie
  0001c	33 c5		 xor	 eax, ebp
  0001e	89 45 f0	 mov	 DWORD PTR __$ArrayPad$[ebp], eax
  00021	53		 push	 ebx
  00022	56		 push	 esi
  00023	57		 push	 edi
  00024	50		 push	 eax
  00025	8d 45 f4	 lea	 eax, DWORD PTR __$EHRec$[ebp]
  00028	64 a3 00 00 00
	00		 mov	 DWORD PTR fs:0, eax
  0002e	8b d9		 mov	 ebx, ecx
  00030	8b 75 08	 mov	 esi, DWORD PTR _File$[ebp]

; 49   : 	xml_document Document;

  00033	8d 8d bc fe ff
	ff		 lea	 ecx, DWORD PTR _Document$[ebp]
  00039	e8 00 00 00 00	 call	 ??0xml_document@pugi@@QAE@XZ ; pugi::xml_document::xml_document

; 50   : 	xml_parse_result Result = Document.load_file(File);

  0003e	6a 00		 push	 0
  00040	6a 74		 push	 116			; 00000074H
  00042	56		 push	 esi
  00043	8d 85 90 fe ff
	ff		 lea	 eax, DWORD PTR _Result$[ebp]
  00049	c7 45 fc 00 00
	00 00		 mov	 DWORD PTR __$EHRec$[ebp+8], 0
  00050	50		 push	 eax
  00051	8d 8d bc fe ff
	ff		 lea	 ecx, DWORD PTR _Document$[ebp]
  00057	e8 00 00 00 00	 call	 ?load_file@xml_document@pugi@@QAE?AUxml_parse_result@2@PBDIW4xml_encoding@2@@Z ; pugi::xml_document::load_file

; 51   : 	// ----
; 52   : 	if( Result.status != status_ok )

  0005c	83 bd 90 fe ff
	ff 00		 cmp	 DWORD PTR _Result$[ebp], 0
  00063	74 13		 je	 SHORT $LN8@Read

; 53   : 	{
; 54   : 		MsgBox("[Notice] File %s not found!", File);

  00065	56		 push	 esi
  00066	68 00 00 00 00	 push	 OFFSET ??_C@_0BM@LALPKKLG@?$FLNotice?$FN?5File?5?$CFs?5not?5found?$CB?$AA@
  0006b	e8 00 00 00 00	 call	 ?MsgBox@@YAXPADZZ	; MsgBox
  00070	83 c4 08	 add	 esp, 8
  00073	e9 6c 02 00 00	 jmp	 $LN6@Read
$LN8@Read:

; 55   : 		return;
; 56   : 	}
; 57   : 	// ----
; 58   : 	xml_node Notice = Document.child("notice");

  00078	68 00 00 00 00	 push	 OFFSET ??_C@_06FINPLOKL@notice?$AA@
  0007d	8d 85 b4 fe ff
	ff		 lea	 eax, DWORD PTR _Notice$[ebp]
  00083	50		 push	 eax
  00084	8d 8d bc fe ff
	ff		 lea	 ecx, DWORD PTR _Document$[ebp]
  0008a	e8 00 00 00 00	 call	 ?child@xml_node@pugi@@QBE?AV12@PBD@Z ; pugi::xml_node::child

; 59   : 	xml_node Connect = Notice.child("connect");

  0008f	68 00 00 00 00	 push	 OFFSET ??_C@_07KAIBNCHO@connect?$AA@
  00094	8d 85 a8 fe ff
	ff		 lea	 eax, DWORD PTR _Connect$[ebp]
  0009a	50		 push	 eax
  0009b	8d 8d b4 fe ff
	ff		 lea	 ecx, DWORD PTR _Notice$[ebp]
  000a1	e8 00 00 00 00	 call	 ?child@xml_node@pugi@@QBE?AV12@PBD@Z ; pugi::xml_node::child

; 60   : 	xml_node Rotate = Notice.child("rotate");

  000a6	68 00 00 00 00	 push	 OFFSET ??_C@_06CEHMNFAL@rotate?$AA@
  000ab	8d 85 a4 fe ff
	ff		 lea	 eax, DWORD PTR _Rotate$[ebp]
  000b1	50		 push	 eax
  000b2	8d 8d b4 fe ff
	ff		 lea	 ecx, DWORD PTR _Notice$[ebp]
  000b8	e8 00 00 00 00	 call	 ?child@xml_node@pugi@@QBE?AV12@PBD@Z ; pugi::xml_node::child

; 61   : 	xml_node Node;

  000bd	8d 8d b8 fe ff
	ff		 lea	 ecx, DWORD PTR _Node$[ebp]
  000c3	e8 00 00 00 00	 call	 ??0xml_node@pugi@@QAE@XZ ; pugi::xml_node::xml_node

; 62   : 	// ----
; 63   : 	for( Node = Connect.child("message"); Node; Node = Node.next_sibling() )

  000c8	68 00 00 00 00	 push	 OFFSET ??_C@_07ONPBMBOP@message?$AA@
  000cd	8d 85 b0 fe ff
	ff		 lea	 eax, DWORD PTR $T10[ebp]
  000d3	50		 push	 eax
  000d4	8d 8d a8 fe ff
	ff		 lea	 ecx, DWORD PTR _Connect$[ebp]
  000da	e8 00 00 00 00	 call	 ?child@xml_node@pugi@@QBE?AV12@PBD@Z ; pugi::xml_node::child
  000df	8d 8d b8 fe ff
	ff		 lea	 ecx, DWORD PTR _Node$[ebp]
  000e5	8b 00		 mov	 eax, DWORD PTR [eax]
  000e7	89 85 b8 fe ff
	ff		 mov	 DWORD PTR _Node$[ebp], eax
  000ed	e8 00 00 00 00	 call	 ??Bxml_node@pugi@@QBEP6AXPAPAPAV01@@ZXZ ; pugi::xml_node::operator void (__cdecl*)(pugi::xml_node * * *)
  000f2	85 c0		 test	 eax, eax
  000f4	0f 84 92 00 00
	00		 je	 $LN3@Read
  000fa	66 0f 1f 44 00
	00		 npad	 6
$LL4@Read:

; 64   : 	{
; 65   : 		NoticeConnectInfo lpData;
; 66   : 		lpData.Type = Node.attribute("type").as_int();

  00100	6a 00		 push	 0
  00102	68 00 00 00 00	 push	 OFFSET ??_C@_04GPMDFGEJ@type?$AA@
  00107	8d 85 b0 fe ff
	ff		 lea	 eax, DWORD PTR $T9[ebp]
  0010d	50		 push	 eax
  0010e	8d 8d b8 fe ff
	ff		 lea	 ecx, DWORD PTR _Node$[ebp]
  00114	e8 00 00 00 00	 call	 ?attribute@xml_node@pugi@@QBE?AVxml_attribute@2@PBD@Z ; pugi::xml_node::attribute
  00119	8b c8		 mov	 ecx, eax
  0011b	e8 00 00 00 00	 call	 ?as_int@xml_attribute@pugi@@QBEHH@Z ; pugi::xml_attribute::as_int
  00120	88 45 88	 mov	 BYTE PTR _lpData$12[ebp], al

; 67   : 		strcpy(lpData.Text, Node.text().as_string());

  00123	8d 8d b8 fe ff
	ff		 lea	 ecx, DWORD PTR _Node$[ebp]
  00129	68 00 00 00 00	 push	 OFFSET ??_C@_00CNPNBAHC@?$AA@
  0012e	8d 85 a0 fe ff
	ff		 lea	 eax, DWORD PTR $T4[ebp]
  00134	50		 push	 eax
  00135	e8 00 00 00 00	 call	 ?text@xml_node@pugi@@QBE?AVxml_text@2@XZ ; pugi::xml_node::text
  0013a	8b c8		 mov	 ecx, eax
  0013c	e8 00 00 00 00	 call	 ?as_string@xml_text@pugi@@QBEPBDPBD@Z ; pugi::xml_text::as_string
  00141	8d 55 89	 lea	 edx, DWORD PTR _lpData$12[ebp+1]
  00144	2b d0		 sub	 edx, eax
$LL10@Read:
  00146	8a 08		 mov	 cl, BYTE PTR [eax]
  00148	8d 40 01	 lea	 eax, DWORD PTR [eax+1]
  0014b	88 4c 02 ff	 mov	 BYTE PTR [edx+eax-1], cl
  0014f	84 c9		 test	 cl, cl
  00151	75 f3		 jne	 SHORT $LL10@Read

; 68   : 		this->m_ConnectList.push_back(lpData);

  00153	8d 45 88	 lea	 eax, DWORD PTR _lpData$12[ebp]
  00156	50		 push	 eax
  00157	8d 4b 04	 lea	 ecx, DWORD PTR [ebx+4]
  0015a	e8 00 00 00 00	 call	 ?push_back@?$vector@UNoticeConnectInfo@@V?$allocator@UNoticeConnectInfo@@@std@@@std@@QAEXABUNoticeConnectInfo@@@Z ; std::vector<NoticeConnectInfo,std::allocator<NoticeConnectInfo> >::push_back
  0015f	8d 85 ac fe ff
	ff		 lea	 eax, DWORD PTR $T7[ebp]
  00165	50		 push	 eax
  00166	8d 8d b8 fe ff
	ff		 lea	 ecx, DWORD PTR _Node$[ebp]
  0016c	e8 00 00 00 00	 call	 ?next_sibling@xml_node@pugi@@QBE?AV12@XZ ; pugi::xml_node::next_sibling
  00171	8d 8d b8 fe ff
	ff		 lea	 ecx, DWORD PTR _Node$[ebp]
  00177	8b 00		 mov	 eax, DWORD PTR [eax]
  00179	89 85 b8 fe ff
	ff		 mov	 DWORD PTR _Node$[ebp], eax
  0017f	e8 00 00 00 00	 call	 ??Bxml_node@pugi@@QBEP6AXPAPAPAV01@@ZXZ ; pugi::xml_node::operator void (__cdecl*)(pugi::xml_node * * *)
  00184	85 c0		 test	 eax, eax
  00186	0f 85 74 ff ff
	ff		 jne	 $LL4@Read
$LN3@Read:

; 71   : 	for( Node = Rotate.child("message"); Node; Node = Node.next_sibling() )

  0018c	68 00 00 00 00	 push	 OFFSET ??_C@_07ONPBMBOP@message?$AA@
  00191	8d 85 ac fe ff
	ff		 lea	 eax, DWORD PTR $T6[ebp]
  00197	50		 push	 eax
  00198	8d 8d a4 fe ff
	ff		 lea	 ecx, DWORD PTR _Rotate$[ebp]
  0019e	e8 00 00 00 00	 call	 ?child@xml_node@pugi@@QBE?AV12@PBD@Z ; pugi::xml_node::child
  001a3	8d 8d b8 fe ff
	ff		 lea	 ecx, DWORD PTR _Node$[ebp]
  001a9	8b 00		 mov	 eax, DWORD PTR [eax]
  001ab	89 85 b8 fe ff
	ff		 mov	 DWORD PTR _Node$[ebp], eax
  001b1	e8 00 00 00 00	 call	 ??Bxml_node@pugi@@QBEP6AXPAPAPAV01@@ZXZ ; pugi::xml_node::operator void (__cdecl*)(pugi::xml_node * * *)
  001b6	85 c0		 test	 eax, eax
  001b8	0f 84 26 01 00
	00		 je	 $LN6@Read
  001be	66 90		 npad	 2
$LL7@Read:

; 72   : 	{
; 73   : 		NoticeRotateInfo lpData;
; 74   : 		lpData.Type = Node.attribute("type").as_int();

  001c0	6a 00		 push	 0
  001c2	68 00 00 00 00	 push	 OFFSET ??_C@_04GPMDFGEJ@type?$AA@
  001c7	8d 85 ac fe ff
	ff		 lea	 eax, DWORD PTR $T5[ebp]
  001cd	50		 push	 eax
  001ce	8d 8d b8 fe ff
	ff		 lea	 ecx, DWORD PTR _Node$[ebp]
  001d4	e8 00 00 00 00	 call	 ?attribute@xml_node@pugi@@QBE?AVxml_attribute@2@PBD@Z ; pugi::xml_node::attribute
  001d9	8b c8		 mov	 ecx, eax
  001db	e8 00 00 00 00	 call	 ?as_int@xml_attribute@pugi@@QBEHH@Z ; pugi::xml_attribute::as_int

; 75   : 		lpData.Delay = Node.attribute("delay").as_int();

  001e0	6a 00		 push	 0
  001e2	88 45 84	 mov	 BYTE PTR _lpData$11[ebp], al
  001e5	8d 8d b8 fe ff
	ff		 lea	 ecx, DWORD PTR _Node$[ebp]
  001eb	68 00 00 00 00	 push	 OFFSET ??_C@_05EKJCMADO@delay?$AA@
  001f0	8d 85 a0 fe ff
	ff		 lea	 eax, DWORD PTR $T3[ebp]
  001f6	50		 push	 eax
  001f7	e8 00 00 00 00	 call	 ?attribute@xml_node@pugi@@QBE?AVxml_attribute@2@PBD@Z ; pugi::xml_node::attribute
  001fc	8b c8		 mov	 ecx, eax
  001fe	e8 00 00 00 00	 call	 ?as_int@xml_attribute@pugi@@QBEHH@Z ; pugi::xml_attribute::as_int
  00203	66 8b f0	 mov	 si, ax
  00206	66 89 75 86	 mov	 WORD PTR _lpData$11[ebp+2], si

; 76   : 		lpData.Tick = GetTickCount() + lpData.Delay * 60000;

  0020a	ff 15 00 00 00
	00		 call	 DWORD PTR __imp__GetTickCount@0
  00210	0f bf ce	 movsx	 ecx, si
  00213	69 c9 60 ea 00
	00		 imul	 ecx, ecx, 60000

; 77   : 		strcpy(lpData.Text, Node.text().as_string());

  00219	68 00 00 00 00	 push	 OFFSET ??_C@_00CNPNBAHC@?$AA@
  0021e	03 c1		 add	 eax, ecx
  00220	8d 8d b8 fe ff
	ff		 lea	 ecx, DWORD PTR _Node$[ebp]
  00226	89 45 88	 mov	 DWORD PTR _lpData$11[ebp+4], eax
  00229	8d 85 b0 fe ff
	ff		 lea	 eax, DWORD PTR $T8[ebp]
  0022f	50		 push	 eax
  00230	e8 00 00 00 00	 call	 ?text@xml_node@pugi@@QBE?AVxml_text@2@XZ ; pugi::xml_node::text
  00235	8b c8		 mov	 ecx, eax
  00237	e8 00 00 00 00	 call	 ?as_string@xml_text@pugi@@QBEPBDPBD@Z ; pugi::xml_text::as_string
  0023c	8d 55 8c	 lea	 edx, DWORD PTR _lpData$11[ebp+8]
  0023f	2b d0		 sub	 edx, eax
$LL11@Read:
  00241	8a 08		 mov	 cl, BYTE PTR [eax]
  00243	8d 40 01	 lea	 eax, DWORD PTR [eax+1]
  00246	88 4c 02 ff	 mov	 BYTE PTR [edx+eax-1], cl
  0024a	84 c9		 test	 cl, cl
  0024c	75 f3		 jne	 SHORT $LL11@Read
; File c:\program files (x86)\microsoft visual studio 14.0\vc\include\vector

; 1616 : 		return (_Ptr < this->_Mylast() && this->_Myfirst() <= _Ptr);

  0024e	8b 7b 14	 mov	 edi, DWORD PTR [ebx+20]
  00251	8d 45 84	 lea	 eax, DWORD PTR _lpData$11[ebp]
  00254	3b c7		 cmp	 eax, edi
  00256	73 3b		 jae	 SHORT $LN15@Read
  00258	8b 43 10	 mov	 eax, DWORD PTR [ebx+16]
  0025b	8d 4d 84	 lea	 ecx, DWORD PTR _lpData$11[ebp]
  0025e	3b c1		 cmp	 eax, ecx
  00260	77 31		 ja	 SHORT $LN15@Read

; 1277 : 			size_type _Idx = _STD addressof(_Val) - this->_Myfirst();

  00262	2b c8		 sub	 ecx, eax
  00264	b8 f7 12 da 4b	 mov	 eax, 1272582903		; 4bda12f7H
  00269	f7 e9		 imul	 ecx
  0026b	c1 fa 05	 sar	 edx, 5
  0026e	8b f2		 mov	 esi, edx
  00270	c1 ee 1f	 shr	 esi, 31			; 0000001fH
  00273	03 f2		 add	 esi, edx

; 1278 : 			if (this->_Mylast() == this->_Myend())

  00275	3b 7b 18	 cmp	 edi, DWORD PTR [ebx+24]
  00278	75 0a		 jne	 SHORT $LN17@Read

; 1279 : 				_Reserve(1);

  0027a	6a 01		 push	 1
  0027c	8d 4b 10	 lea	 ecx, DWORD PTR [ebx+16]
  0027f	e8 00 00 00 00	 call	 ?_Reserve@?$vector@UNoticeRotateInfo@@V?$allocator@UNoticeRotateInfo@@@std@@@std@@IAEXI@Z ; std::vector<NoticeRotateInfo,std::allocator<NoticeRotateInfo> >::_Reserve
$LN17@Read:
; File c:\program files (x86)\microsoft visual studio 14.0\vc\include\xmemory0

; 655  : 		::new ((void *)_Ptr) _Objty(_STD forward<_Types>(_Args)...);

  00284	8b 7b 14	 mov	 edi, DWORD PTR [ebx+20]
  00287	85 ff		 test	 edi, edi
  00289	74 28		 je	 SHORT $LN218@Read
; File c:\program files (x86)\microsoft visual studio 14.0\vc\include\vector

; 1281 : 			this->_Getal().construct(this->_Mylast(),

  0028b	6b f6 6c	 imul	 esi, esi, 108
  0028e	03 73 10	 add	 esi, DWORD PTR [ebx+16]

; 1282 : 				this->_Myfirst()[_Idx]);
; 1283 : 			++this->_Mylast();
; 1284 : 			}
; 1285 : 		else

  00291	eb 19		 jmp	 SHORT $LN250@Read
$LN15@Read:

; 1286 : 			{	// push back a non-element
; 1287 : 			if (this->_Mylast() == this->_Myend())

  00293	3b 7b 18	 cmp	 edi, DWORD PTR [ebx+24]
  00296	75 0a		 jne	 SHORT $LN18@Read

; 1288 : 				_Reserve(1);

  00298	6a 01		 push	 1
  0029a	8d 4b 10	 lea	 ecx, DWORD PTR [ebx+16]
  0029d	e8 00 00 00 00	 call	 ?_Reserve@?$vector@UNoticeRotateInfo@@V?$allocator@UNoticeRotateInfo@@@std@@@std@@IAEXI@Z ; std::vector<NoticeRotateInfo,std::allocator<NoticeRotateInfo> >::_Reserve
$LN18@Read:
; File c:\program files (x86)\microsoft visual studio 14.0\vc\include\xmemory0

; 655  : 		::new ((void *)_Ptr) _Objty(_STD forward<_Types>(_Args)...);

  002a2	8b 7b 14	 mov	 edi, DWORD PTR [ebx+20]
  002a5	85 ff		 test	 edi, edi
  002a7	74 0a		 je	 SHORT $LN218@Read
  002a9	8d 75 84	 lea	 esi, DWORD PTR _lpData$11[ebp]
$LN250@Read:
  002ac	b9 1b 00 00 00	 mov	 ecx, 27			; 0000001bH
  002b1	f3 a5		 rep movsd
$LN218@Read:
; File c:\program files (x86)\microsoft visual studio 14.0\vc\include\vector

; 1292 : 			++this->_Mylast();

  002b3	83 43 14 6c	 add	 DWORD PTR [ebx+20], 108	; 0000006cH
; File c:\users\michel\desktop\source\gameserver\source\notice.cpp

; 71   : 	for( Node = Rotate.child("message"); Node; Node = Node.next_sibling() )

  002b7	8d 85 9c fe ff
	ff		 lea	 eax, DWORD PTR $T2[ebp]
  002bd	50		 push	 eax
  002be	8d 8d b8 fe ff
	ff		 lea	 ecx, DWORD PTR _Node$[ebp]
  002c4	e8 00 00 00 00	 call	 ?next_sibling@xml_node@pugi@@QBE?AV12@XZ ; pugi::xml_node::next_sibling
  002c9	8d 8d b8 fe ff
	ff		 lea	 ecx, DWORD PTR _Node$[ebp]
  002cf	8b 00		 mov	 eax, DWORD PTR [eax]
  002d1	89 85 b8 fe ff
	ff		 mov	 DWORD PTR _Node$[ebp], eax
  002d7	e8 00 00 00 00	 call	 ??Bxml_node@pugi@@QBEP6AXPAPAPAV01@@ZXZ ; pugi::xml_node::operator void (__cdecl*)(pugi::xml_node * * *)
  002dc	85 c0		 test	 eax, eax
  002de	0f 85 dc fe ff
	ff		 jne	 $LL7@Read
$LN6@Read:

; 78   : 		this->m_RotateList.push_back(lpData);
; 79   : 	}
; 80   : }

  002e4	8d 8d bc fe ff
	ff		 lea	 ecx, DWORD PTR _Document$[ebp]
  002ea	e8 00 00 00 00	 call	 ??1xml_document@pugi@@QAE@XZ ; pugi::xml_document::~xml_document
  002ef	8b 4d f4	 mov	 ecx, DWORD PTR __$EHRec$[ebp]
  002f2	64 89 0d 00 00
	00 00		 mov	 DWORD PTR fs:0, ecx
  002f9	59		 pop	 ecx
  002fa	5f		 pop	 edi
  002fb	5e		 pop	 esi
  002fc	5b		 pop	 ebx
  002fd	8b 4d f0	 mov	 ecx, DWORD PTR __$ArrayPad$[ebp]
  00300	33 cd		 xor	 ecx, ebp
  00302	e8 00 00 00 00	 call	 @__security_check_cookie@4
  00307	8b e5		 mov	 esp, ebp
  00309	5d		 pop	 ebp
  0030a	c2 04 00	 ret	 4
_TEXT	ENDS
;	COMDAT text$x
text$x	SEGMENT
__unwindfunclet$?Read@Notice@@QAEXPAD@Z$0:
  00000	8d 8d bc fe ff
	ff		 lea	 ecx, DWORD PTR _Document$[ebp]
  00006	e9 00 00 00 00	 jmp	 ??1xml_document@pugi@@QAE@XZ ; pugi::xml_document::~xml_document
__ehhandler$?Read@Notice@@QAEXPAD@Z:
  0000b	8b 54 24 08	 mov	 edx, DWORD PTR [esp+8]
  0000f	8d 42 0c	 lea	 eax, DWORD PTR [edx+12]
  00012	8b 8a 8c fe ff
	ff		 mov	 ecx, DWORD PTR [edx-372]
  00018	33 c8		 xor	 ecx, eax
  0001a	e8 00 00 00 00	 call	 @__security_check_cookie@4
  0001f	8b 4a fc	 mov	 ecx, DWORD PTR [edx-4]
  00022	33 c8		 xor	 ecx, eax
  00024	e8 00 00 00 00	 call	 @__security_check_cookie@4
  00029	b8 00 00 00 00	 mov	 eax, OFFSET __ehfuncinfo$?Read@Notice@@QAEXPAD@Z
  0002e	e9 00 00 00 00	 jmp	 ___CxxFrameHandler3
text$x	ENDS
?Read@Notice@@QAEXPAD@Z ENDP				; Notice::Read
; Function compile flags: /Ogtp
; File c:\users\michel\desktop\source\gameserver\source\notice.cpp
;	COMDAT ?Load@Notice@@QAEXXZ
_TEXT	SEGMENT
?Load@Notice@@QAEXXZ PROC				; Notice::Load, COMDAT
; _this$ = ecx

; 41   : {

  00000	56		 push	 esi
  00001	8b f1		 mov	 esi, ecx

; 42   : 	this->Init();

  00003	e8 00 00 00 00	 call	 ?Init@Notice@@QAEXXZ	; Notice::Init

; 43   : 	this->Read(gDirPath.GetNewPath(FILE_CUSTOM_NOTICE));

  00008	68 00 00 00 00	 push	 OFFSET ??_C@_0BC@PFPPHIBL@Custom?2Notice?4xml?$AA@
  0000d	b9 00 00 00 00	 mov	 ecx, OFFSET ?gDirPath@@3VCDirPath@@A ; gDirPath
  00012	e8 00 00 00 00	 call	 ?GetNewPath@CDirPath@@QAEPADPAD@Z ; CDirPath::GetNewPath
  00017	50		 push	 eax
  00018	8b ce		 mov	 ecx, esi
  0001a	e8 00 00 00 00	 call	 ?Read@Notice@@QAEXPAD@Z	; Notice::Read
  0001f	5e		 pop	 esi

; 44   : }

  00020	c3		 ret	 0
?Load@Notice@@QAEXXZ ENDP				; Notice::Load
_TEXT	ENDS
; Function compile flags: /Ogtp
; File c:\users\michel\desktop\source\gameserver\source\notice.cpp
; File c:\program files (x86)\microsoft visual studio 14.0\vc\include\vector
; File c:\users\michel\desktop\source\gameserver\source\notice.cpp
; File c:\program files (x86)\microsoft visual studio 14.0\vc\include\vector
; File c:\users\michel\desktop\source\gameserver\source\notice.cpp
; File c:\program files (x86)\microsoft visual studio 14.0\vc\include\vector
; File c:\program files (x86)\microsoft visual studio 14.0\vc\include\utility
; File c:\program files (x86)\microsoft visual studio 14.0\vc\include\vector
; File c:\users\michel\desktop\source\gameserver\source\notice.cpp
; File c:\program files (x86)\microsoft visual studio 14.0\vc\include\vector
; File c:\users\michel\desktop\source\gameserver\source\notice.cpp
; File c:\program files (x86)\microsoft visual studio 14.0\vc\include\vector
; File c:\program files (x86)\microsoft visual studio 14.0\vc\include\utility
; File c:\program files (x86)\microsoft visual studio 14.0\vc\include\vector
; File c:\users\michel\desktop\source\gameserver\source\notice.cpp
;	COMDAT ?Init@Notice@@QAEXXZ
_TEXT	SEGMENT
$T1 = -12						; size = 12
$T2 = -12						; size = 12
?Init@Notice@@QAEXXZ PROC				; Notice::Init, COMDAT
; _this$ = ecx

; 26   : {

  00000	55		 push	 ebp
  00001	8b ec		 mov	 ebp, esp
  00003	83 ec 0c	 sub	 esp, 12			; 0000000cH
  00006	56		 push	 esi
  00007	57		 push	 edi
  00008	8b f9		 mov	 edi, ecx
; File c:\program files (x86)\microsoft visual studio 14.0\vc\include\vector

; 1542 : 		this->_Mylast() = this->_Myfirst();

  0000a	8b 47 04	 mov	 eax, DWORD PTR [edi+4]
; File c:\users\michel\desktop\source\gameserver\source\notice.cpp

; 27   : 	this->m_ConnectList.clear();

  0000d	8d 77 04	 lea	 esi, DWORD PTR [edi+4]
; File c:\program files (x86)\microsoft visual studio 14.0\vc\include\vector

; 1542 : 		this->_Mylast() = this->_Myfirst();

  00010	89 46 04	 mov	 DWORD PTR [esi+4], eax

; 1042 : 		return (this->_Myend() - this->_Myfirst());

  00013	b8 cb f0 8d 28	 mov	 eax, 680390859		; 288df0cbH
  00018	8b 56 08	 mov	 edx, DWORD PTR [esi+8]
  0001b	2b 16		 sub	 edx, DWORD PTR [esi]
  0001d	f7 ea		 imul	 edx
  0001f	c1 fa 04	 sar	 edx, 4
  00022	8b c2		 mov	 eax, edx
  00024	c1 e8 1f	 shr	 eax, 31			; 0000001fH
  00027	03 c2		 add	 eax, edx
; File c:\users\michel\desktop\source\gameserver\source\notice.cpp

; 28   : 	if( this->m_ConnectList.capacity() > 0 )

  00029	74 41		 je	 SHORT $LN312@Init
; File c:\program files (x86)\microsoft visual studio 14.0\vc\include\vector

; 1549 : 		if (this == &_Right)

  0002b	8d 45 f4	 lea	 eax, DWORD PTR $T2[ebp]
  0002e	3b c6		 cmp	 eax, esi
  00030	74 3a		 je	 SHORT $LN312@Init
; File c:\program files (x86)\microsoft visual studio 14.0\vc\include\utility

; 53   : 	_Left = _Move(_Right);

  00032	8b 0e		 mov	 ecx, DWORD PTR [esi]

; 54   : 	_Right = _Move(_Tmp);

  00034	c7 06 00 00 00
	00		 mov	 DWORD PTR [esi], 0
  0003a	c7 46 04 00 00
	00 00		 mov	 DWORD PTR [esi+4], 0

; 53   : 	_Left = _Move(_Right);

  00041	8b 56 08	 mov	 edx, DWORD PTR [esi+8]

; 54   : 	_Right = _Move(_Tmp);

  00044	c7 46 08 00 00
	00 00		 mov	 DWORD PTR [esi+8], 0
; File c:\program files (x86)\microsoft visual studio 14.0\vc\include\vector

; 1656 : 		if (this->_Myfirst() != pointer())

  0004b	85 c9		 test	 ecx, ecx
  0004d	74 1d		 je	 SHORT $LN312@Init

; 1657 : 			{	// something to free, destroy and deallocate it
; 1658 : 			this->_Orphan_all();
; 1659 : 			_Destroy(this->_Myfirst(), this->_Mylast());
; 1660 : 			this->_Getal().deallocate(this->_Myfirst(),

  0004f	2b d1		 sub	 edx, ecx
  00051	b8 cb f0 8d 28	 mov	 eax, 680390859		; 288df0cbH
  00056	f7 ea		 imul	 edx
  00058	c1 fa 04	 sar	 edx, 4
  0005b	8b c2		 mov	 eax, edx
  0005d	c1 e8 1f	 shr	 eax, 31			; 0000001fH
  00060	03 c2		 add	 eax, edx
  00062	50		 push	 eax
  00063	51		 push	 ecx
  00064	8d 4d f4	 lea	 ecx, DWORD PTR $T2[ebp]
  00067	e8 00 00 00 00	 call	 ?deallocate@?$_Wrap_alloc@V?$allocator@UNoticeConnectInfo@@@std@@@std@@QAEXPAUNoticeConnectInfo@@I@Z ; std::_Wrap_alloc<std::allocator<NoticeConnectInfo> >::deallocate
$LN312@Init:

; 1542 : 		this->_Mylast() = this->_Myfirst();

  0006c	8b 47 10	 mov	 eax, DWORD PTR [edi+16]
; File c:\users\michel\desktop\source\gameserver\source\notice.cpp

; 32   : 	this->m_RotateList.clear();

  0006f	8d 77 10	 lea	 esi, DWORD PTR [edi+16]
; File c:\program files (x86)\microsoft visual studio 14.0\vc\include\vector

; 1542 : 		this->_Mylast() = this->_Myfirst();

  00072	89 46 04	 mov	 DWORD PTR [esi+4], eax

; 1042 : 		return (this->_Myend() - this->_Myfirst());

  00075	b8 f7 12 da 4b	 mov	 eax, 1272582903		; 4bda12f7H
  0007a	8b 4e 08	 mov	 ecx, DWORD PTR [esi+8]
  0007d	2b 0e		 sub	 ecx, DWORD PTR [esi]
  0007f	f7 e9		 imul	 ecx
  00081	c1 fa 05	 sar	 edx, 5
  00084	8b c2		 mov	 eax, edx
  00086	c1 e8 1f	 shr	 eax, 31			; 0000001fH
  00089	03 c2		 add	 eax, edx
; File c:\users\michel\desktop\source\gameserver\source\notice.cpp

; 33   : 	if( this->m_RotateList.capacity() > 0 )

  0008b	74 41		 je	 SHORT $LN705@Init
; File c:\program files (x86)\microsoft visual studio 14.0\vc\include\vector

; 1549 : 		if (this == &_Right)

  0008d	8d 45 f4	 lea	 eax, DWORD PTR $T1[ebp]
  00090	3b c6		 cmp	 eax, esi
  00092	74 3a		 je	 SHORT $LN705@Init
; File c:\program files (x86)\microsoft visual studio 14.0\vc\include\utility

; 53   : 	_Left = _Move(_Right);

  00094	8b 0e		 mov	 ecx, DWORD PTR [esi]

; 54   : 	_Right = _Move(_Tmp);

  00096	c7 06 00 00 00
	00		 mov	 DWORD PTR [esi], 0
  0009c	c7 46 04 00 00
	00 00		 mov	 DWORD PTR [esi+4], 0

; 53   : 	_Left = _Move(_Right);

  000a3	8b 56 08	 mov	 edx, DWORD PTR [esi+8]

; 54   : 	_Right = _Move(_Tmp);

  000a6	c7 46 08 00 00
	00 00		 mov	 DWORD PTR [esi+8], 0
; File c:\program files (x86)\microsoft visual studio 14.0\vc\include\vector

; 1656 : 		if (this->_Myfirst() != pointer())

  000ad	85 c9		 test	 ecx, ecx
  000af	74 1d		 je	 SHORT $LN705@Init

; 1657 : 			{	// something to free, destroy and deallocate it
; 1658 : 			this->_Orphan_all();
; 1659 : 			_Destroy(this->_Myfirst(), this->_Mylast());
; 1660 : 			this->_Getal().deallocate(this->_Myfirst(),

  000b1	2b d1		 sub	 edx, ecx
  000b3	b8 f7 12 da 4b	 mov	 eax, 1272582903		; 4bda12f7H
  000b8	f7 ea		 imul	 edx
  000ba	c1 fa 05	 sar	 edx, 5
  000bd	8b c2		 mov	 eax, edx
  000bf	c1 e8 1f	 shr	 eax, 31			; 0000001fH
  000c2	03 c2		 add	 eax, edx
  000c4	50		 push	 eax
  000c5	51		 push	 ecx
  000c6	8d 4d f4	 lea	 ecx, DWORD PTR $T1[ebp]
  000c9	e8 00 00 00 00	 call	 ?deallocate@?$_Wrap_alloc@V?$allocator@UNoticeRotateInfo@@@std@@@std@@QAEXPAUNoticeRotateInfo@@I@Z ; std::_Wrap_alloc<std::allocator<NoticeRotateInfo> >::deallocate
$LN705@Init:
  000ce	5f		 pop	 edi
  000cf	5e		 pop	 esi
; File c:\users\michel\desktop\source\gameserver\source\notice.cpp

; 37   : }

  000d0	8b e5		 mov	 esp, ebp
  000d2	5d		 pop	 ebp
  000d3	c3		 ret	 0
?Init@Notice@@QAEXXZ ENDP				; Notice::Init
_TEXT	ENDS
; Function compile flags: /Ogtp
; File c:\users\michel\desktop\source\gameserver\source\notice.cpp
; File c:\program files (x86)\microsoft visual studio 14.0\vc\include\vector
; File c:\users\michel\desktop\source\gameserver\source\notice.cpp
;	COMDAT ??1Notice@@UAE@XZ
_TEXT	SEGMENT
??1Notice@@UAE@XZ PROC					; Notice::~Notice, COMDAT
; _this$ = ecx

; 20   : {

  00000	53		 push	 ebx
  00001	56		 push	 esi
  00002	8b f1		 mov	 esi, ecx
  00004	57		 push	 edi
  00005	c7 06 00 00 00
	00		 mov	 DWORD PTR [esi], OFFSET ??_7Notice@@6B@
; File c:\program files (x86)\microsoft visual studio 14.0\vc\include\vector

; 1656 : 		if (this->_Myfirst() != pointer())

  0000b	8b 5e 10	 mov	 ebx, DWORD PTR [esi+16]
  0000e	85 db		 test	 ebx, ebx
  00010	74 35		 je	 SHORT $LN7@Notice

; 1657 : 			{	// something to free, destroy and deallocate it
; 1658 : 			this->_Orphan_all();
; 1659 : 			_Destroy(this->_Myfirst(), this->_Mylast());
; 1660 : 			this->_Getal().deallocate(this->_Myfirst(),

  00012	8b 4e 18	 mov	 ecx, DWORD PTR [esi+24]
  00015	b8 f7 12 da 4b	 mov	 eax, 1272582903		; 4bda12f7H
  0001a	2b cb		 sub	 ecx, ebx
  0001c	f7 e9		 imul	 ecx
  0001e	8d 4e 10	 lea	 ecx, DWORD PTR [esi+16]
  00021	c1 fa 05	 sar	 edx, 5
  00024	8b c2		 mov	 eax, edx
  00026	c1 e8 1f	 shr	 eax, 31			; 0000001fH
  00029	03 c2		 add	 eax, edx
  0002b	50		 push	 eax
  0002c	53		 push	 ebx
  0002d	e8 00 00 00 00	 call	 ?deallocate@?$_Wrap_alloc@V?$allocator@UNoticeRotateInfo@@@std@@@std@@QAEXPAUNoticeRotateInfo@@I@Z ; std::_Wrap_alloc<std::allocator<NoticeRotateInfo> >::deallocate

; 1661 : 				this->_Myend() - this->_Myfirst());
; 1662 : 			this->_Myfirst() = pointer();

  00032	c7 46 10 00 00
	00 00		 mov	 DWORD PTR [esi+16], 0

; 1663 : 			this->_Mylast() = pointer();

  00039	c7 46 14 00 00
	00 00		 mov	 DWORD PTR [esi+20], 0

; 1664 : 			this->_Myend() = pointer();

  00040	c7 46 18 00 00
	00 00		 mov	 DWORD PTR [esi+24], 0
$LN7@Notice:

; 1656 : 		if (this->_Myfirst() != pointer())

  00047	8b 7e 04	 mov	 edi, DWORD PTR [esi+4]
  0004a	85 ff		 test	 edi, edi
  0004c	74 35		 je	 SHORT $LN100@Notice

; 1657 : 			{	// something to free, destroy and deallocate it
; 1658 : 			this->_Orphan_all();
; 1659 : 			_Destroy(this->_Myfirst(), this->_Mylast());
; 1660 : 			this->_Getal().deallocate(this->_Myfirst(),

  0004e	8b 4e 0c	 mov	 ecx, DWORD PTR [esi+12]
  00051	b8 cb f0 8d 28	 mov	 eax, 680390859		; 288df0cbH
  00056	2b cf		 sub	 ecx, edi
  00058	f7 e9		 imul	 ecx
  0005a	8d 4e 04	 lea	 ecx, DWORD PTR [esi+4]
  0005d	c1 fa 04	 sar	 edx, 4
  00060	8b c2		 mov	 eax, edx
  00062	c1 e8 1f	 shr	 eax, 31			; 0000001fH
  00065	03 c2		 add	 eax, edx
  00067	50		 push	 eax
  00068	57		 push	 edi
  00069	e8 00 00 00 00	 call	 ?deallocate@?$_Wrap_alloc@V?$allocator@UNoticeConnectInfo@@@std@@@std@@QAEXPAUNoticeConnectInfo@@I@Z ; std::_Wrap_alloc<std::allocator<NoticeConnectInfo> >::deallocate

; 1661 : 				this->_Myend() - this->_Myfirst());
; 1662 : 			this->_Myfirst() = pointer();

  0006e	c7 46 04 00 00
	00 00		 mov	 DWORD PTR [esi+4], 0

; 1663 : 			this->_Mylast() = pointer();

  00075	c7 46 08 00 00
	00 00		 mov	 DWORD PTR [esi+8], 0

; 1664 : 			this->_Myend() = pointer();

  0007c	c7 46 0c 00 00
	00 00		 mov	 DWORD PTR [esi+12], 0
$LN100@Notice:
  00083	5f		 pop	 edi
  00084	5e		 pop	 esi
  00085	5b		 pop	 ebx
; File c:\users\michel\desktop\source\gameserver\source\notice.cpp

; 22   : }

  00086	c3		 ret	 0
??1Notice@@UAE@XZ ENDP					; Notice::~Notice
_TEXT	ENDS
; Function compile flags: /Ogtp
; File c:\users\michel\desktop\source\gameserver\source\notice.cpp
; File c:\program files (x86)\microsoft visual studio 14.0\vc\include\vector
; File c:\users\michel\desktop\source\gameserver\source\notice.cpp
; File c:\program files (x86)\microsoft visual studio 14.0\vc\include\vector
; File c:\users\michel\desktop\source\gameserver\source\notice.cpp
;	COMDAT ??0Notice@@QAE@XZ
_TEXT	SEGMENT
_this$ = -4						; size = 4
??0Notice@@QAE@XZ PROC					; Notice::Notice, COMDAT
; _this$ = ecx

; 14   : {

  00000	55		 push	 ebp
  00001	8b ec		 mov	 ebp, esp
  00003	51		 push	 ecx
  00004	c7 01 00 00 00
	00		 mov	 DWORD PTR [ecx], OFFSET ??_7Notice@@6B@

; 16   : }

  0000a	8b c1		 mov	 eax, ecx
; File c:\program files (x86)\microsoft visual studio 14.0\vc\include\vector

; 480  : 		_Myfirst = pointer();

  0000c	c7 41 04 00 00
	00 00		 mov	 DWORD PTR [ecx+4], 0

; 481  : 		_Mylast = pointer();

  00013	c7 41 08 00 00
	00 00		 mov	 DWORD PTR [ecx+8], 0

; 482  : 		_Myend = pointer();

  0001a	c7 41 0c 00 00
	00 00		 mov	 DWORD PTR [ecx+12], 0
; File c:\users\michel\desktop\source\gameserver\source\notice.cpp

; 14   : {

  00021	89 4d fc	 mov	 DWORD PTR _this$[ebp], ecx
; File c:\program files (x86)\microsoft visual studio 14.0\vc\include\vector

; 480  : 		_Myfirst = pointer();

  00024	c7 41 10 00 00
	00 00		 mov	 DWORD PTR [ecx+16], 0

; 481  : 		_Mylast = pointer();

  0002b	c7 41 14 00 00
	00 00		 mov	 DWORD PTR [ecx+20], 0

; 482  : 		_Myend = pointer();

  00032	c7 41 18 00 00
	00 00		 mov	 DWORD PTR [ecx+24], 0
; File c:\users\michel\desktop\source\gameserver\source\notice.cpp

; 16   : }

  00039	8b e5		 mov	 esp, ebp
  0003b	5d		 pop	 ebp
  0003c	c3		 ret	 0
??0Notice@@QAE@XZ ENDP					; Notice::Notice
_TEXT	ENDS
; Function compile flags: /Ogtp
; File c:\program files (x86)\microsoft visual studio 14.0\vc\include\xmemory0
;	COMDAT ?_Deallocate@std@@YAXPAXII@Z
_TEXT	SEGMENT
__Ptr$ = 8						; size = 4
__Count$ = 12						; size = 4
__Sz$ = 16						; size = 4
?_Deallocate@std@@YAXPAXII@Z PROC			; std::_Deallocate, COMDAT

; 98   : 	{	// deallocate storage for _Count elements of size _Sz

  00000	55		 push	 ebp
  00001	8b ec		 mov	 ebp, esp

; 99   :  #if defined(_M_IX86) || defined(_M_X64)
; 100  : 	_SCL_SECURE_ALWAYS_VALIDATE(_Count <= (size_t)(-1) / _Sz);

  00003	83 c8 ff	 or	 eax, -1
  00006	8b 4d 0c	 mov	 ecx, DWORD PTR __Count$[ebp]
  00009	33 d2		 xor	 edx, edx
  0000b	f7 75 10	 div	 DWORD PTR __Sz$[ebp]
  0000e	3b c8		 cmp	 ecx, eax
  00010	0f 87 00 00 00
	00		 ja	 __invalid_parameter_noinfo_noreturn

; 101  : 	const size_t _User_size = _Count * _Sz;

  00016	0f af 4d 10	 imul	 ecx, DWORD PTR __Sz$[ebp]

; 102  : 	if (_BIG_ALLOCATION_THRESHOLD <= _User_size)

  0001a	81 f9 00 10 00
	00		 cmp	 ecx, 4096		; 00001000H
  00020	72 2b		 jb	 SHORT $LN9@Deallocate

; 103  : 		{	// deallocate large block
; 104  : 		const uintptr_t _Ptr_user = reinterpret_cast<uintptr_t>(_Ptr);
; 105  : 		_SCL_SECURE_ALWAYS_VALIDATE(

  00022	8b 45 08	 mov	 eax, DWORD PTR __Ptr$[ebp]
  00025	a8 1f		 test	 al, 31			; 0000001fH
  00027	0f 85 00 00 00
	00		 jne	 __invalid_parameter_noinfo_noreturn

; 106  : 			(_Ptr_user & (_BIG_ALLOCATION_ALIGNMENT - 1)) == 0);
; 107  : 		const uintptr_t _Ptr_ptr = _Ptr_user - sizeof(void *);
; 108  : 		const uintptr_t _Ptr_container =
; 109  : 			*reinterpret_cast<uintptr_t *>(_Ptr_ptr);

  0002d	8b 48 fc	 mov	 ecx, DWORD PTR [eax-4]

; 110  : 
; 111  :  #ifdef _DEBUG
; 112  : 		// If the following asserts, it likely means that we are performing
; 113  : 		// an aligned delete on memory coming from an unaligned allocation.
; 114  : 		_SCL_SECURE_ALWAYS_VALIDATE(
; 115  : 			reinterpret_cast<uintptr_t *>(_Ptr_ptr)[-1] ==
; 116  : 				_BIG_ALLOCATION_SENTINEL);
; 117  :  #endif /* _DEBUG */
; 118  : 
; 119  : 		// Extra paranoia on aligned allocation/deallocation
; 120  : 		_SCL_SECURE_ALWAYS_VALIDATE(_Ptr_container < _Ptr_user);

  00030	3b c8		 cmp	 ecx, eax
  00032	0f 83 00 00 00
	00		 jae	 __invalid_parameter_noinfo_noreturn

; 121  : 
; 122  :  #ifdef _DEBUG
; 123  : 		_SCL_SECURE_ALWAYS_VALIDATE(2 * sizeof(void *)
; 124  : 			<= _Ptr_user - _Ptr_container);
; 125  : 
; 126  :  #else /* _DEBUG */
; 127  : 		_SCL_SECURE_ALWAYS_VALIDATE(sizeof(void *)

  00038	2b c1		 sub	 eax, ecx
  0003a	83 f8 04	 cmp	 eax, 4
  0003d	0f 82 00 00 00
	00		 jb	 __invalid_parameter_noinfo_noreturn

; 128  : 			<= _Ptr_user - _Ptr_container);
; 129  :  #endif /* _DEBUG */
; 130  : 
; 131  : 		_SCL_SECURE_ALWAYS_VALIDATE(_Ptr_user - _Ptr_container

  00043	83 f8 23	 cmp	 eax, 35			; 00000023H
  00046	76 08		 jbe	 SHORT $LN3@Deallocate
  00048	e9 00 00 00 00	 jmp	 __invalid_parameter_noinfo_noreturn
$LN9@Deallocate:

; 132  : 			<= _NON_USER_SIZE);
; 133  : 
; 134  : 		_Ptr = reinterpret_cast<void *>(_Ptr_container);

  0004d	8b 4d 08	 mov	 ecx, DWORD PTR __Ptr$[ebp]
$LN3@Deallocate:

; 135  : 		}
; 136  :  #endif /* defined(_M_IX86) || defined(_M_X64) */
; 137  : 
; 138  : 	::operator delete(_Ptr);

  00050	51		 push	 ecx
  00051	e8 00 00 00 00	 call	 ??3@YAXPAX@Z		; operator delete
  00056	83 c4 04	 add	 esp, 4

; 139  : 	}

  00059	5d		 pop	 ebp
  0005a	c3		 ret	 0
?_Deallocate@std@@YAXPAXII@Z ENDP			; std::_Deallocate
_TEXT	ENDS
; Function compile flags: /Ogtp
; File c:\program files (x86)\microsoft visual studio 14.0\vc\include\xmemory0
;	COMDAT ?_Allocate@std@@YAPAXII_N@Z
_TEXT	SEGMENT
__Count$ = 8						; size = 4
__Sz$ = 12						; size = 4
__Try_aligned_allocation$ = 16				; size = 1
?_Allocate@std@@YAPAXII_N@Z PROC			; std::_Allocate, COMDAT

; 54   : 	{	// allocate storage for _Count elements of size _Sz

  00000	55		 push	 ebp
  00001	8b ec		 mov	 ebp, esp

; 55   : 	void *_Ptr = 0;
; 56   : 
; 57   : 	if (_Count == 0)

  00003	8b 4d 08	 mov	 ecx, DWORD PTR __Count$[ebp]
  00006	85 c9		 test	 ecx, ecx
  00008	75 04		 jne	 SHORT $LN2@Allocate

; 58   : 		return (_Ptr);

  0000a	33 c0		 xor	 eax, eax

; 91   : 		}
; 92   : 	return (_Ptr);
; 93   : 	}

  0000c	5d		 pop	 ebp
  0000d	c3		 ret	 0
$LN2@Allocate:

; 59   : 
; 60   : 	// check overflow of multiply
; 61   : 	if ((size_t)(-1) / _Sz < _Count)

  0000e	83 c8 ff	 or	 eax, -1
  00011	33 d2		 xor	 edx, edx
  00013	f7 75 0c	 div	 DWORD PTR __Sz$[ebp]
  00016	3b c1		 cmp	 eax, ecx
  00018	0f 82 00 00 00
	00		 jb	 ?_Xbad_alloc@std@@YAXXZ	; std::_Xbad_alloc

; 62   : 		_Xbad_alloc();	// report no memory
; 63   : 	const size_t _User_size = _Count * _Sz;

  0001e	0f af 4d 0c	 imul	 ecx, DWORD PTR __Sz$[ebp]

; 64   : 
; 65   :  #if defined(_M_IX86) || defined(_M_X64)
; 66   : 	if (_Try_aligned_allocation
; 67   : 		&& _BIG_ALLOCATION_THRESHOLD <= _User_size)

  00022	80 7d 10 00	 cmp	 BYTE PTR __Try_aligned_allocation$[ebp], 0
  00026	74 31		 je	 SHORT $LN4@Allocate
  00028	81 f9 00 10 00
	00		 cmp	 ecx, 4096		; 00001000H
  0002e	72 29		 jb	 SHORT $LN4@Allocate

; 68   : 		{	// allocate large block
; 69   : 		static_assert(sizeof (void *) < _BIG_ALLOCATION_ALIGNMENT,
; 70   : 			"Big allocations should at least match vector register size");
; 71   : 		const size_t _Block_size = _NON_USER_SIZE + _User_size;

  00030	8d 41 23	 lea	 eax, DWORD PTR [ecx+35]

; 72   : 		if (_Block_size <= _User_size)

  00033	3b c1		 cmp	 eax, ecx
  00035	0f 86 00 00 00
	00		 jbe	 ?_Xbad_alloc@std@@YAXXZ	; std::_Xbad_alloc

; 73   : 			_Xbad_alloc();	// report no memory
; 74   : 		const uintptr_t _Ptr_container =
; 75   : 			reinterpret_cast<uintptr_t>(::operator new(_Block_size));

  0003b	50		 push	 eax
  0003c	e8 00 00 00 00	 call	 ??2@YAPAXI@Z		; operator new
  00041	8b c8		 mov	 ecx, eax
  00043	83 c4 04	 add	 esp, 4

; 76   : 		_SCL_SECURE_ALWAYS_VALIDATE(_Ptr_container != 0);

  00046	85 c9		 test	 ecx, ecx
  00048	0f 84 00 00 00
	00		 je	 __invalid_parameter_noinfo_noreturn

; 77   : 		_Ptr = reinterpret_cast<void *>((_Ptr_container + _NON_USER_SIZE)

  0004e	8d 41 23	 lea	 eax, DWORD PTR [ecx+35]
  00051	83 e0 e0	 and	 eax, -32		; ffffffe0H

; 78   : 			& ~(_BIG_ALLOCATION_ALIGNMENT - 1));
; 79   : 		static_cast<uintptr_t *>(_Ptr)[-1] = _Ptr_container;

  00054	89 48 fc	 mov	 DWORD PTR [eax-4], ecx

; 91   : 		}
; 92   : 	return (_Ptr);
; 93   : 	}

  00057	5d		 pop	 ebp
  00058	c3		 ret	 0
$LN4@Allocate:

; 80   : 
; 81   :  #ifdef _DEBUG
; 82   : 		static_cast<uintptr_t *>(_Ptr)[-2] = _BIG_ALLOCATION_SENTINEL;
; 83   :  #endif /* _DEBUG */
; 84   : 		}
; 85   : 	else
; 86   :  #endif /* defined(_M_IX86) || defined(_M_X64) */
; 87   : 
; 88   : 		{	// allocate normal block
; 89   : 		_Ptr = ::operator new(_User_size);

  00059	51		 push	 ecx
  0005a	e8 00 00 00 00	 call	 ??2@YAPAXI@Z		; operator new
  0005f	83 c4 04	 add	 esp, 4

; 90   : 		_SCL_SECURE_ALWAYS_VALIDATE(_Ptr != 0);

  00062	85 c0		 test	 eax, eax
  00064	0f 84 00 00 00
	00		 je	 __invalid_parameter_noinfo_noreturn

; 91   : 		}
; 92   : 	return (_Ptr);
; 93   : 	}

  0006a	5d		 pop	 ebp
  0006b	c3		 ret	 0
?_Allocate@std@@YAPAXII_N@Z ENDP			; std::_Allocate
_TEXT	ENDS
; Function compile flags: /Ogtp
; File c:\program files (x86)\microsoft visual studio 14.0\vc\include\xutility
;	COMDAT ?_Swap_all@_Container_base0@std@@QAEXAAU12@@Z
_TEXT	SEGMENT
___formal$ = 8						; size = 4
?_Swap_all@_Container_base0@std@@QAEXAAU12@@Z PROC	; std::_Container_base0::_Swap_all, COMDAT
; _this$ = ecx

; 48   : 		}

  00000	c2 04 00	 ret	 4
?_Swap_all@_Container_base0@std@@QAEXAAU12@@Z ENDP	; std::_Container_base0::_Swap_all
_TEXT	ENDS
; Function compile flags: /Ogtp
; File c:\program files (x86)\microsoft visual studio 14.0\vc\include\xutility
;	COMDAT ?_Orphan_all@_Container_base0@std@@QAEXXZ
_TEXT	SEGMENT
?_Orphan_all@_Container_base0@std@@QAEXXZ PROC		; std::_Container_base0::_Orphan_all, COMDAT
; _this$ = ecx

; 44   : 		}

  00000	c3		 ret	 0
?_Orphan_all@_Container_base0@std@@QAEXXZ ENDP		; std::_Container_base0::_Orphan_all
_TEXT	ENDS
; Function compile flags: /Ogtp
; File c:\program files (x86)\microsoft visual studio 14.0\vc\include\vcruntime_new.h
;	COMDAT ??2@YAPAXIPAX@Z
_TEXT	SEGMENT
__Size$ = 8						; size = 4
__Where$ = 12						; size = 4
??2@YAPAXIPAX@Z PROC					; operator new, COMDAT

; 87   :     {

  00000	55		 push	 ebp
  00001	8b ec		 mov	 ebp, esp

; 88   :         (void)_Size;
; 89   :         return _Where;

  00003	8b 45 0c	 mov	 eax, DWORD PTR __Where$[ebp]

; 90   :     }

  00006	5d		 pop	 ebp
  00007	c3		 ret	 0
??2@YAPAXIPAX@Z ENDP					; operator new
_TEXT	ENDS
; Function compile flags: /Ogtp
; File c:\users\michel\desktop\source\gameserver\source\notice.cpp
;	COMDAT ?__empty_global_delete@@YAXPAXI@Z
_TEXT	SEGMENT
___formal$ = 8						; size = 4
___formal$ = 12						; size = 4
?__empty_global_delete@@YAXPAXI@Z PROC			; __empty_global_delete, COMDAT

; 173  : // -------------------------------------------------------------------------------

  00000	c3		 ret	 0
?__empty_global_delete@@YAXPAXI@Z ENDP			; __empty_global_delete
_TEXT	ENDS
; Function compile flags: /Ogtp
; File c:\users\michel\desktop\source\gameserver\source\notice.cpp
;	COMDAT ?__empty_global_delete@@YAXPAX@Z
_TEXT	SEGMENT
___formal$ = 8						; size = 4
?__empty_global_delete@@YAXPAX@Z PROC			; __empty_global_delete, COMDAT

; 173  : // -------------------------------------------------------------------------------

  00000	c3		 ret	 0
?__empty_global_delete@@YAXPAX@Z ENDP			; __empty_global_delete
_TEXT	ENDS
END
