; Listing generated by Microsoft (R) Optimizing Compiler Version 19.00.23506.0 

	TITLE	C:\Users\Michel\Desktop\Source\GameServer\Source\ObjAttack.cpp
	.686P
	.XMM
	include listing.inc
	.model	flat

INCLUDELIB LIBCMT
INCLUDELIB OLDNAMES

PUBLIC	??_H@YGXPAXIIP6EPAX0@Z@Z			; `vector constructor iterator'
PUBLIC	?__empty_global_delete@@YAXPAX@Z		; __empty_global_delete
PUBLIC	?__empty_global_delete@@YAXPAXI@Z		; __empty_global_delete
PUBLIC	___local_stdio_printf_options
PUBLIC	??$__vcrt_va_start_verify_argument_type@QBD@@YAXXZ ; __vcrt_va_start_verify_argument_type<char const * const>
PUBLIC	_sprintf
PUBLIC	??1OBJECTSTRUCT@@QAE@XZ				; OBJECTSTRUCT::~OBJECTSTRUCT
PUBLIC	??_EOBJECTSTRUCT@@QAEPAXI@Z			; OBJECTSTRUCT::`vector deleting destructor'
PUBLIC	??0CObjAttack@@QAE@XZ				; CObjAttack::CObjAttack
PUBLIC	??1CObjAttack@@UAE@XZ				; CObjAttack::~CObjAttack
PUBLIC	?Attack@CObjAttack@@QAEHPAUOBJECTSTRUCT@@0PAVCMagicInf@@HEHHEE@Z ; CObjAttack::Attack
PUBLIC	?GetAttackDamage@CObjAttack@@QAEHPAUOBJECTSTRUCT@@HAAHHPAVCMagicInf@@@Z ; CObjAttack::GetAttackDamage
PUBLIC	?GetAttackDamageWizard@CObjAttack@@QAEHPAUOBJECTSTRUCT@@HPAVCMagicInf@@AAHH@Z ; CObjAttack::GetAttackDamageWizard
PUBLIC	?GetAttackDamageSummoner@CObjAttack@@QAEHPAUOBJECTSTRUCT@@HPAVCMagicInf@@AAHH@Z ; CObjAttack::GetAttackDamageSummoner
PUBLIC	?GetShieldDamage@CObjAttack@@QAEHPAUOBJECTSTRUCT@@0H@Z ; CObjAttack::GetShieldDamage
PUBLIC	?GetBuffTypePhysicalIncrease@CObjAttack@@QAE_NPAUOBJECTSTRUCT@@AAH1H@Z ; CObjAttack::GetBuffTypePhysicalIncrease
PUBLIC	??_GCObjAttack@@UAEPAXI@Z			; CObjAttack::`scalar deleting destructor'
PUBLIC	?gObjDenorantSprite@@YAHPAUOBJECTSTRUCT@@@Z	; gObjDenorantSprite
PUBLIC	?gObjDarkHorse@@YAHPAUOBJECTSTRUCT@@@Z		; gObjDarkHorse
PUBLIC	?gObjFenrir@@YAHPAUOBJECTSTRUCT@@@Z		; gObjFenrir
PUBLIC	?_OptionsStorage@?1??__local_stdio_printf_options@@9@4_KA ; `__local_stdio_printf_options'::`2'::_OptionsStorage
PUBLIC	??_7CObjAttack@@6B@				; CObjAttack::`vftable'
PUBLIC	?gclassObjAttack@@3VCObjAttack@@A		; gclassObjAttack
PUBLIC	??_C@_08FOLAHAHG@CRITICAL?$AA@			; `string'
PUBLIC	??_C@_09PBMNMIBJ@EXCELLENT?$AA@			; `string'
PUBLIC	??_C@_0BH@NMKEOPCM@?$CFs?5AttackDamage?3?5?$CFd?5?$CFd?$AA@ ; `string'
PUBLIC	??_C@_0DB@MDAHJJLM@error?9Level1?5?3?5?$FL?$CFs?$FN?$FL?$CFs?$FN?5Str?3?$CFd?5?$CF@ ; `string'
PUBLIC	??_C@_0FB@HEJCKECH@?$FLPvP?5System?$FN?5Victim?3?$FL?$CFs?$FN?$FL?$CFs?$FN?0?5At@ ; `string'
PUBLIC	??_C@_0IE@HMIJIHBA@?$FLJewelOfHarmony?$FN?$FLPvP?5System?$FN?5Att@ ; `string'
PUBLIC	??_R4CObjAttack@@6B@				; CObjAttack::`RTTI Complete Object Locator'
PUBLIC	??_R0?AVCObjAttack@@@8				; CObjAttack `RTTI Type Descriptor'
PUBLIC	??_R3CObjAttack@@8				; CObjAttack::`RTTI Class Hierarchy Descriptor'
PUBLIC	??_R2CObjAttack@@8				; CObjAttack::`RTTI Base Class Array'
PUBLIC	??_R1A@?0A@EA@CObjAttack@@8			; CObjAttack::`RTTI Base Class Descriptor at (0,-1,0,64)'
PUBLIC	??_R1A@?0A@EA@CObjBaseAttack@@8			; CObjBaseAttack::`RTTI Base Class Descriptor at (0,-1,0,64)'
PUBLIC	??_R0?AVCObjBaseAttack@@@8			; CObjBaseAttack `RTTI Type Descriptor'
PUBLIC	??_R3CObjBaseAttack@@8				; CObjBaseAttack::`RTTI Class Hierarchy Descriptor'
PUBLIC	??_R2CObjBaseAttack@@8				; CObjBaseAttack::`RTTI Base Class Array'
PUBLIC	__real@00000000
PUBLIC	__real@3ca3d70a
PUBLIC	__real@3f800000
PUBLIC	__real@3fe0000000000000
PUBLIC	__real@40000000
PUBLIC	__real@4004000000000000
PUBLIC	__real@400ccccd
PUBLIC	__real@40133333
PUBLIC	__real@40200000
PUBLIC	__real@40400000
PUBLIC	__real@40800000
PUBLIC	__real@40a00000
PUBLIC	__real@41200000
PUBLIC	__real@41a00000
PUBLIC	__real@41f00000
PUBLIC	__real@42700000
PUBLIC	__real@42c80000
PUBLIC	__real@447a0000
PUBLIC	__xmm@00000005000000040000000300000002
PUBLIC	__xmm@00000063000000320000001400000000
PUBLIC	__xmm@000001a900000145000000e1000000a0
PUBLIC	__xmm@0000044200000370000002bc00000226
EXTRN	??_M@YGXPAXIIP6EX0@Z@Z:PROC			; `eh vector destructor iterator'
EXTRN	??3@YAXPAXI@Z:PROC				; operator delete
EXTRN	??_V@YAXPAXI@Z:PROC				; operator delete[]
EXTRN	_atexit:PROC
EXTRN	__imp__GetTickCount@0:PROC
EXTRN	___stdio_common_vsprintf:PROC
EXTRN	_rand:PROC
EXTRN	?IsItem@CItem@@QAEHXZ:PROC			; CItem::IsItem
EXTRN	?IsDinorantReduceAttackDamaege@CItem@@QAEHXZ:PROC ; CItem::IsDinorantReduceAttackDamaege
EXTRN	?IsFenrirIncLastAttackDamage@CItem@@QAEHXZ:PROC	; CItem::IsFenrirIncLastAttackDamage
EXTRN	?IsFenrirDecLastAttackDamage@CItem@@QAEHXZ:PROC	; CItem::IsFenrirDecLastAttackDamage
EXTRN	?GetDetailItemType@CItem@@QAEHXZ:PROC		; CItem::GetDetailItemType
EXTRN	?SkillGet@CMagicDamage@@QAEHH@Z:PROC		; CMagicDamage::SkillGet
EXTRN	?GetSkillAttr@CMagicDamage@@QAEHH@Z:PROC	; CMagicDamage::GetSkillAttr
EXTRN	?GetDamage@CMagicInf@@QAEHXZ:PROC		; CMagicInf::GetDamage
EXTRN	??1CSkillDelay@@UAE@XZ:PROC			; CSkillDelay::~CSkillDelay
EXTRN	?GensMap@CGensSystem@@QAEHH@Z:PROC		; CGensSystem::GensMap
EXTRN	??1TMonsterAIAgro@@UAE@XZ:PROC			; TMonsterAIAgro::~TMonsterAIAgro
EXTRN	?IncAgro@TMonsterAIAgro@@QAEHHH@Z:PROC		; TMonsterAIAgro::IncAgro
EXTRN	?GCServerMsgStringSend@@YAXPADHE@Z:PROC		; GCServerMsgStringSend
EXTRN	?GCDamageSend@@YAXHHHHHH@Z:PROC			; GCDamageSend
EXTRN	?GCActionSend@@YAXPAUOBJECTSTRUCT@@EHH@Z:PROC	; GCActionSend
EXTRN	?GCMagicAttackNumberSend@@YAXPAUOBJECTSTRUCT@@GHE@Z:PROC ; GCMagicAttackNumberSend
EXTRN	?GCMagicCancelSend@@YAXPAUOBJECTSTRUCT@@H@Z:PROC ; GCMagicCancelSend
EXTRN	?GCReFillSend@@YAXHGEEG@Z:PROC			; GCReFillSend
EXTRN	?GCManaSend@@YAXHFEEG@Z:PROC			; GCManaSend
EXTRN	?GCItemDurSend@@YAXHEEE@Z:PROC			; GCItemDurSend
EXTRN	?GCSendEffectInfo@@YAXHE@Z:PROC			; GCSendEffectInfo
EXTRN	?gObjIsConnected@@YAHPAUOBJECTSTRUCT@@@Z:PROC	; gObjIsConnected
EXTRN	?gObjAddMsgSendDelay@@YAXPAUOBJECTSTRUCT@@HHHH@Z:PROC ; gObjAddMsgSendDelay
EXTRN	?gObjBackSpring@@YAHPAUOBJECTSTRUCT@@0@Z:PROC	; gObjBackSpring
EXTRN	?gObjBackSpring2@@YAHPAUOBJECTSTRUCT@@0H@Z:PROC	; gObjBackSpring2
EXTRN	?gObjAttackQ@@YAHPAUOBJECTSTRUCT@@@Z:PROC	; gObjAttackQ
EXTRN	?gObjAngelSprite@@YAHPAUOBJECTSTRUCT@@@Z:PROC	; gObjAngelSprite
EXTRN	?gObjSatanSprite@@YAHPAUOBJECTSTRUCT@@@Z:PROC	; gObjSatanSprite
EXTRN	?gObjWingSprite@@YAHPAUOBJECTSTRUCT@@@Z:PROC	; gObjWingSprite
EXTRN	?gObjUniriaSprite@@YAHPAUOBJECTSTRUCT@@@Z:PROC	; gObjUniriaSprite
EXTRN	?gObjSpriteDamage@@YAXPAUOBJECTSTRUCT@@H@Z:PROC	; gObjSpriteDamage
EXTRN	?gObjWeaponDurDown@@YAXPAUOBJECTSTRUCT@@0H@Z:PROC ; gObjWeaponDurDown
EXTRN	?gObjArmorRandomDurDown@@YAXPAUOBJECTSTRUCT@@0@Z:PROC ; gObjArmorRandomDurDown
EXTRN	?gObjCheckSelfDefense@@YAXPAUOBJECTSTRUCT@@H@Z:PROC ; gObjCheckSelfDefense
EXTRN	?gObjLifeCheck@@YAXPAUOBJECTSTRUCT@@0HHHHGH@Z:PROC ; gObjLifeCheck
EXTRN	?gObjTargetGuildWarCheck@@YAHPAUOBJECTSTRUCT@@0@Z:PROC ; gObjTargetGuildWarCheck
EXTRN	?gObjSetPosition@@YAXHHH@Z:PROC			; gObjSetPosition
EXTRN	?gObjDuelCheck@@YAHPAUOBJECTSTRUCT@@0@Z:PROC	; gObjDuelCheck
EXTRN	?gObjCheckAttackTypeMagic@@YAHHH@Z:PROC		; gObjCheckAttackTypeMagic
EXTRN	?gObjGetRelationShip@@YAHPAUOBJECTSTRUCT@@0@Z:PROC ; gObjGetRelationShip
EXTRN	?gObjWeaponDurDownInCastle@@YAXPAUOBJECTSTRUCT@@0H@Z:PROC ; gObjWeaponDurDownInCastle
EXTRN	?gObjGuardianSprice@@YAHPAUOBJECTSTRUCT@@@Z:PROC ; gObjGuardianSprice
EXTRN	??0CObjBaseAttack@@QAE@XZ:PROC			; CObjBaseAttack::CObjBaseAttack
EXTRN	??1CObjBaseAttack@@UAE@XZ:PROC			; CObjBaseAttack::~CObjBaseAttack
EXTRN	?DecreaseArrow@CObjBaseAttack@@QAEHPAUOBJECTSTRUCT@@@Z:PROC ; CObjBaseAttack::DecreaseArrow
EXTRN	?CheckAttackArea@CObjBaseAttack@@QAEHPAUOBJECTSTRUCT@@0@Z:PROC ; CObjBaseAttack::CheckAttackArea
EXTRN	?PkCheck@CObjBaseAttack@@QAEHPAUOBJECTSTRUCT@@0@Z:PROC ; CObjBaseAttack::PkCheck
EXTRN	?ResistanceCheck@CObjBaseAttack@@QAEHPAUOBJECTSTRUCT@@0H@Z:PROC ; CObjBaseAttack::ResistanceCheck
EXTRN	?MissCheckPvP@CObjBaseAttack@@QAEHPAUOBJECTSTRUCT@@0HHHAAHE@Z:PROC ; CObjBaseAttack::MissCheckPvP
EXTRN	?GetTargetDefense@CObjBaseAttack@@QAEHPAUOBJECTSTRUCT@@0AAH@Z:PROC ; CObjBaseAttack::GetTargetDefense
EXTRN	?GetPartyMemberCount@CObjBaseAttack@@QAEHPAUOBJECTSTRUCT@@@Z:PROC ; CObjBaseAttack::GetPartyMemberCount
EXTRN	?MissCheck@CObjBaseAttack@@UAEHPAUOBJECTSTRUCT@@0HHHAAHE@Z:PROC ; CObjBaseAttack::MissCheck
EXTRN	??_ECObjAttack@@UAEPAXI@Z:PROC			; CObjAttack::`vector deleting destructor'
EXTRN	?GetBattleSoccerGoalMove@@YAHH@Z:PROC		; GetBattleSoccerGoalMove
EXTRN	?SetTarget@CDarkSpirit@@QAEXH@Z:PROC		; CDarkSpirit::SetTarget
EXTRN	?RemoveCloakingEffect@CObjUseSkill@@QAEHH@Z:PROC ; CObjUseSkill::RemoveCloakingEffect
EXTRN	?FireScreamExplosionAttack@CObjUseSkill@@QAEHPAUOBJECTSTRUCT@@0H@Z:PROC ; CObjUseSkill::FireScreamExplosionAttack
EXTRN	?SpecificSkillAdditionTreat@CObjUseSkill@@QAEXPAUOBJECTSTRUCT@@0PAVCMagicInf@@H@Z:PROC ; CObjUseSkill::SpecificSkillAdditionTreat
EXTRN	?SkillLightExplode@CObjUseSkill@@QAEHPAUOBJECTSTRUCT@@0HHHH@Z:PROC ; CObjUseSkill::SkillLightExplode
EXTRN	?gObjCallMonsterSetEnemy@@YAHPAUOBJECTSTRUCT@@H@Z:PROC ; gObjCallMonsterSetEnemy
EXTRN	?gObjMonsterStateProc@@YAXPAUOBJECTSTRUCT@@HHH@Z:PROC ; gObjMonsterStateProc
EXTRN	?GetCastleState@CCastleSiege@@QAEHXZ:PROC	; CCastleSiege::GetCastleState
EXTRN	?gObjAddBuffEffect@@YA_NPAUOBJECTSTRUCT@@HEHEHH@Z:PROC ; gObjAddBuffEffect
EXTRN	?gObjAddBuffEffect@@YA_NPAUOBJECTSTRUCT@@HH@Z:PROC ; gObjAddBuffEffect
EXTRN	?gObjRemoveBuffEffect@@YA_NPAUOBJECTSTRUCT@@H@Z:PROC ; gObjRemoveBuffEffect
EXTRN	?gObjCheckUsedBuffEffect@@YA_NPAUOBJECTSTRUCT@@H@Z:PROC ; gObjCheckUsedBuffEffect
EXTRN	?gObjCheckPowerfulEffect@@YA_NPAUOBJECTSTRUCT@@HHH@Z:PROC ; gObjCheckPowerfulEffect
EXTRN	?gObjGetTotalValueOfEffect@@YAHPAUOBJECTSTRUCT@@H@Z:PROC ; gObjGetTotalValueOfEffect
EXTRN	?gObjGetValueOfBuffIndex@@YA_NPAUOBJECTSTRUCT@@HPAH1@Z:PROC ; gObjGetValueOfBuffIndex
EXTRN	?CheckMasterLevelSkill@CMasterLevelSkillTreeSystem@@QAEHH@Z:PROC ; CMasterLevelSkillTreeSystem::CheckMasterLevelSkill
EXTRN	?GetBaseMasterLevelSkill@CMasterLevelSkillTreeSystem@@QAEHH@Z:PROC ; CMasterLevelSkillTreeSystem::GetBaseMasterLevelSkill
EXTRN	?GetMasterSkillValue@CMasterLevelSkillTreeSystem@@QAEMHH@Z:PROC ; CMasterLevelSkillTreeSystem::GetMasterSkillValue
EXTRN	?GetBrandOfMasterSkillValue@CMasterLevelSkillTreeSystem@@QAEMPAUOBJECTSTRUCT@@HH@Z:PROC ; CMasterLevelSkillTreeSystem::GetBrandOfMasterSkillValue
EXTRN	?GetSkillAttackDamage@CMasterLevelSkillTreeSystem@@QAEMPAUOBJECTSTRUCT@@H@Z:PROC ; CMasterLevelSkillTreeSystem::GetSkillAttackDamage
EXTRN	?GetPartyPkLevel@PartyClass@@QAEDH@Z:PROC	; PartyClass::GetPartyPkLevel
EXTRN	?IsAttackAbleMonster@CImperialGuardian@@QAE_NH@Z:PROC ; CImperialGuardian::IsAttackAbleMonster
EXTRN	?GetEffect@BuffSkillEffect@@QAEPAUBuffSkillEffectInfo@@H@Z:PROC ; BuffSkillEffect::GetEffect
EXTRN	?IsSafeState@CNewPVP@@QAEHAAUOBJECTSTRUCT@@@Z:PROC ; CNewPVP::IsSafeState
EXTRN	?modifyDamage@PvPBalance@@QAEXFFAAH@Z:PROC	; PvPBalance::modifyDamage
EXTRN	@__security_check_cookie@4:PROC
EXTRN	___CxxFrameHandler3:PROC
EXTRN	__except_handler4:PROC
EXTRN	??_7type_info@@6B@:QWORD			; type_info::`vftable'
EXTRN	?MagicDamageC@@3VCMagicDamage@@A:BYTE		; MagicDamageC
EXTRN	?DefMagicInf@@3PAVCMagicInf@@A:BYTE		; DefMagicInf
EXTRN	?LogAdd@@3P6AXPADZZA:DWORD			; LogAdd
EXTRN	?LogAddTD@@3P6AXPADZZA:DWORD			; LogAddTD
EXTRN	?gGensSystem@@3VCGensSystem@@A:BYTE		; gGensSystem
EXTRN	?gObj@@3PAUOBJECTSTRUCT@@A:DWORD		; gObj
EXTRN	?gDarkSpirit@@3PAVCDarkSpirit@@A:BYTE		; gDarkSpirit
EXTRN	?gObjUseSkill@@3VCObjUseSkill@@A:DWORD		; gObjUseSkill
EXTRN	?g_CastleSiege@@3VCCastleSiege@@A:BYTE		; g_CastleSiege
EXTRN	?g_Crywolf@@3VCCrywolf@@A:BYTE			; g_Crywolf
EXTRN	?g_MasterSkillSystem@@3VCMasterLevelSkillTreeSystem@@A:BYTE ; g_MasterSkillSystem
EXTRN	?gParty@@3VPartyClass@@A:BYTE			; gParty
EXTRN	?g_iUseCharacterAutoRecuperationSystem@@3HA:DWORD ; g_iUseCharacterAutoRecuperationSystem
EXTRN	?g_iCharacterRecuperationMaxLevel@@3HA:DWORD	; g_iCharacterRecuperationMaxLevel
EXTRN	?g_ShieldSystemOn@@3HA:DWORD			; g_ShieldSystemOn
EXTRN	?g_iDamageDevideToSDRate@@3HA:DWORD		; g_iDamageDevideToSDRate
EXTRN	?g_bAbilityDebug@@3HA:DWORD			; g_bAbilityDebug
EXTRN	?g_ImperialGuardian@@3VCImperialGuardian@@A:BYTE ; g_ImperialGuardian
EXTRN	?g_BuffSkillEffect@@3VBuffSkillEffect@@A:BYTE	; g_BuffSkillEffect
EXTRN	?g_NewPVP@@3VCNewPVP@@A:BYTE			; g_NewPVP
EXTRN	?g_PvPBalance@@3VPvPBalance@@A:BYTE		; g_PvPBalance
EXTRN	___security_cookie:DWORD
EXTRN	__fltused:DWORD
;	COMDAT ?_OptionsStorage@?1??__local_stdio_printf_options@@9@4_KA
_BSS	SEGMENT
?_OptionsStorage@?1??__local_stdio_printf_options@@9@4_KA DQ 01H DUP (?) ; `__local_stdio_printf_options'::`2'::_OptionsStorage
_BSS	ENDS
_BSS	SEGMENT
?gclassObjAttack@@3VCObjAttack@@A DD 01H DUP (?)	; gclassObjAttack
_BSS	ENDS
CRT$XCU	SEGMENT
?gclassObjAttack$initializer$@@3P6AXXZA DD FLAT:??__EgclassObjAttack@@YAXXZ ; gclassObjAttack$initializer$
CRT$XCU	ENDS
;	COMDAT __xmm@0000044200000370000002bc00000226
CONST	SEGMENT
__xmm@0000044200000370000002bc00000226 DB '&', 02H, 00H, 00H, 0bcH, 02H, 00H
	DB	00H, 'p', 03H, 00H, 00H, 'B', 04H, 00H, 00H
CONST	ENDS
;	COMDAT __xmm@000001a900000145000000e1000000a0
CONST	SEGMENT
__xmm@000001a900000145000000e1000000a0 DB 0a0H, 00H, 00H, 00H, 0e1H, 00H, 00H
	DB	00H, 'E', 01H, 00H, 00H, 0a9H, 01H, 00H, 00H
CONST	ENDS
;	COMDAT __xmm@00000063000000320000001400000000
CONST	SEGMENT
__xmm@00000063000000320000001400000000 DB 00H, 00H, 00H, 00H, 014H, 00H, 00H
	DB	00H, '2', 00H, 00H, 00H, 'c', 00H, 00H, 00H
CONST	ENDS
;	COMDAT __xmm@00000005000000040000000300000002
CONST	SEGMENT
__xmm@00000005000000040000000300000002 DB 02H, 00H, 00H, 00H, 03H, 00H, 00H
	DB	00H, 04H, 00H, 00H, 00H, 05H, 00H, 00H, 00H
CONST	ENDS
;	COMDAT __real@447a0000
CONST	SEGMENT
__real@447a0000 DD 0447a0000r			; 1000
CONST	ENDS
;	COMDAT __real@42c80000
CONST	SEGMENT
__real@42c80000 DD 042c80000r			; 100
CONST	ENDS
;	COMDAT __real@42700000
CONST	SEGMENT
__real@42700000 DD 042700000r			; 60
CONST	ENDS
;	COMDAT __real@41f00000
CONST	SEGMENT
__real@41f00000 DD 041f00000r			; 30
CONST	ENDS
;	COMDAT __real@41a00000
CONST	SEGMENT
__real@41a00000 DD 041a00000r			; 20
CONST	ENDS
;	COMDAT __real@41200000
CONST	SEGMENT
__real@41200000 DD 041200000r			; 10
CONST	ENDS
;	COMDAT __real@40a00000
CONST	SEGMENT
__real@40a00000 DD 040a00000r			; 5
CONST	ENDS
;	COMDAT __real@40800000
CONST	SEGMENT
__real@40800000 DD 040800000r			; 4
CONST	ENDS
;	COMDAT __real@40400000
CONST	SEGMENT
__real@40400000 DD 040400000r			; 3
CONST	ENDS
;	COMDAT __real@40200000
CONST	SEGMENT
__real@40200000 DD 040200000r			; 2.5
CONST	ENDS
;	COMDAT __real@40133333
CONST	SEGMENT
__real@40133333 DD 040133333r			; 2.3
CONST	ENDS
;	COMDAT __real@400ccccd
CONST	SEGMENT
__real@400ccccd DD 0400ccccdr			; 2.2
CONST	ENDS
;	COMDAT __real@4004000000000000
CONST	SEGMENT
__real@4004000000000000 DQ 04004000000000000r	; 2.5
CONST	ENDS
;	COMDAT __real@40000000
CONST	SEGMENT
__real@40000000 DD 040000000r			; 2
CONST	ENDS
;	COMDAT __real@3fe0000000000000
CONST	SEGMENT
__real@3fe0000000000000 DQ 03fe0000000000000r	; 0.5
CONST	ENDS
;	COMDAT __real@3f800000
CONST	SEGMENT
__real@3f800000 DD 03f800000r			; 1
CONST	ENDS
;	COMDAT __real@3ca3d70a
CONST	SEGMENT
__real@3ca3d70a DD 03ca3d70ar			; 0.02
CONST	ENDS
;	COMDAT __real@00000000
CONST	SEGMENT
__real@00000000 DD 000000000r			; 0
CONST	ENDS
;	COMDAT ??_R2CObjBaseAttack@@8
rdata$r	SEGMENT
??_R2CObjBaseAttack@@8 DD FLAT:??_R1A@?0A@EA@CObjBaseAttack@@8 ; CObjBaseAttack::`RTTI Base Class Array'
rdata$r	ENDS
;	COMDAT ??_R3CObjBaseAttack@@8
rdata$r	SEGMENT
??_R3CObjBaseAttack@@8 DD 00H				; CObjBaseAttack::`RTTI Class Hierarchy Descriptor'
	DD	00H
	DD	01H
	DD	FLAT:??_R2CObjBaseAttack@@8
rdata$r	ENDS
;	COMDAT ??_R0?AVCObjBaseAttack@@@8
data$r	SEGMENT
??_R0?AVCObjBaseAttack@@@8 DD FLAT:??_7type_info@@6B@	; CObjBaseAttack `RTTI Type Descriptor'
	DD	00H
	DB	'.?AVCObjBaseAttack@@', 00H
data$r	ENDS
;	COMDAT ??_R1A@?0A@EA@CObjBaseAttack@@8
rdata$r	SEGMENT
??_R1A@?0A@EA@CObjBaseAttack@@8 DD FLAT:??_R0?AVCObjBaseAttack@@@8 ; CObjBaseAttack::`RTTI Base Class Descriptor at (0,-1,0,64)'
	DD	00H
	DD	00H
	DD	0ffffffffH
	DD	00H
	DD	040H
	DD	FLAT:??_R3CObjBaseAttack@@8
rdata$r	ENDS
;	COMDAT ??_R1A@?0A@EA@CObjAttack@@8
rdata$r	SEGMENT
??_R1A@?0A@EA@CObjAttack@@8 DD FLAT:??_R0?AVCObjAttack@@@8 ; CObjAttack::`RTTI Base Class Descriptor at (0,-1,0,64)'
	DD	01H
	DD	00H
	DD	0ffffffffH
	DD	00H
	DD	040H
	DD	FLAT:??_R3CObjAttack@@8
rdata$r	ENDS
;	COMDAT ??_R2CObjAttack@@8
rdata$r	SEGMENT
??_R2CObjAttack@@8 DD FLAT:??_R1A@?0A@EA@CObjAttack@@8	; CObjAttack::`RTTI Base Class Array'
	DD	FLAT:??_R1A@?0A@EA@CObjBaseAttack@@8
rdata$r	ENDS
;	COMDAT ??_R3CObjAttack@@8
rdata$r	SEGMENT
??_R3CObjAttack@@8 DD 00H				; CObjAttack::`RTTI Class Hierarchy Descriptor'
	DD	00H
	DD	02H
	DD	FLAT:??_R2CObjAttack@@8
rdata$r	ENDS
;	COMDAT ??_R0?AVCObjAttack@@@8
data$r	SEGMENT
??_R0?AVCObjAttack@@@8 DD FLAT:??_7type_info@@6B@	; CObjAttack `RTTI Type Descriptor'
	DD	00H
	DB	'.?AVCObjAttack@@', 00H
data$r	ENDS
;	COMDAT ??_R4CObjAttack@@6B@
rdata$r	SEGMENT
??_R4CObjAttack@@6B@ DD 00H				; CObjAttack::`RTTI Complete Object Locator'
	DD	00H
	DD	00H
	DD	FLAT:??_R0?AVCObjAttack@@@8
	DD	FLAT:??_R3CObjAttack@@8
rdata$r	ENDS
;	COMDAT ??_C@_0IE@HMIJIHBA@?$FLJewelOfHarmony?$FN?$FLPvP?5System?$FN?5Att@
CONST	SEGMENT
??_C@_0IE@HMIJIHBA@?$FLJewelOfHarmony?$FN?$FLPvP?5System?$FN?5Att@ DB '[J'
	DB	'ewelOfHarmony][PvP System] Attacker:[%s][%s]-SD Decrease[%d] '
	DB	'SD Ignore[%d] Defender:[%s][%s] SD Increase Option[%d] - SD R'
	DB	'ate[%d]', 00H				; `string'
CONST	ENDS
;	COMDAT ??_C@_0FB@HEJCKECH@?$FLPvP?5System?$FN?5Victim?3?$FL?$CFs?$FN?$FL?$CFs?$FN?0?5At@
CONST	SEGMENT
??_C@_0FB@HEJCKECH@?$FLPvP?5System?$FN?5Victim?3?$FL?$CFs?$FN?$FL?$CFs?$FN?0?5At@ DB '['
	DB	'PvP System] Victim:[%s][%s], Attacker:[%s][%s] - SD[%d] HP[%f'
	DB	'] -> SD[%d] HP[%f]', 00H			; `string'
CONST	ENDS
;	COMDAT ??_C@_0DB@MDAHJJLM@error?9Level1?5?3?5?$FL?$CFs?$FN?$FL?$CFs?$FN?5Str?3?$CFd?5?$CF@
CONST	SEGMENT
??_C@_0DB@MDAHJJLM@error?9Level1?5?3?5?$FL?$CFs?$FN?$FL?$CFs?$FN?5Str?3?$CFd?5?$CF@ DB 'e'
	DB	'rror-Level1 : [%s][%s] Str:%d %d %d %d %d %d %d', 00H ; `string'
CONST	ENDS
;	COMDAT ??_C@_0BH@NMKEOPCM@?$CFs?5AttackDamage?3?5?$CFd?5?$CFd?$AA@
CONST	SEGMENT
??_C@_0BH@NMKEOPCM@?$CFs?5AttackDamage?3?5?$CFd?5?$CFd?$AA@ DB '%s Attack'
	DB	'Damage: %d %d', 00H				; `string'
CONST	ENDS
;	COMDAT ??_C@_09PBMNMIBJ@EXCELLENT?$AA@
CONST	SEGMENT
??_C@_09PBMNMIBJ@EXCELLENT?$AA@ DB 'EXCELLENT', 00H	; `string'
CONST	ENDS
;	COMDAT ??_C@_08FOLAHAHG@CRITICAL?$AA@
CONST	SEGMENT
??_C@_08FOLAHAHG@CRITICAL?$AA@ DB 'CRITICAL', 00H	; `string'
CONST	ENDS
;	COMDAT ??_7CObjAttack@@6B@
CONST	SEGMENT
??_7CObjAttack@@6B@ DD FLAT:??_R4CObjAttack@@6B@	; CObjAttack::`vftable'
	DD	FLAT:??_ECObjAttack@@UAEPAXI@Z
	DD	FLAT:?MissCheck@CObjBaseAttack@@UAEHPAUOBJECTSTRUCT@@0HHHAAHE@Z
CONST	ENDS
;	COMDAT xdata$x
xdata$x	SEGMENT
__sehtable$?GetAttackDamageSummoner@CObjAttack@@QAEHPAUOBJECTSTRUCT@@HPAVCMagicInf@@AAHH@Z DD 0fffffffeH
	DD	00H
	DD	0ffffffc0H
	DD	00H
	DD	0fffffffeH
	DD	FLAT:$LN64@GetAttackD
	DD	FLAT:$LN48@GetAttackD
xdata$x	ENDS
;	COMDAT xdata$x
xdata$x	SEGMENT
__sehtable$?GetAttackDamageWizard@CObjAttack@@QAEHPAUOBJECTSTRUCT@@HPAVCMagicInf@@AAHH@Z DD 0ffffffe4H
	DD	00H
	DD	0ffffff80H
	DD	00H
	DD	0fffffffeH
	DD	FLAT:$LN58@GetAttackD
	DD	FLAT:$LN40@GetAttackD
xdata$x	ENDS
;	COMDAT xdata$x
xdata$x	SEGMENT
__sehtable$?GetAttackDamage@CObjAttack@@QAEHPAUOBJECTSTRUCT@@HAAHHPAVCMagicInf@@@Z DD 0fffffffeH
	DD	00H
	DD	0ffffffa4H
	DD	00H
	DD	0fffffffeH
	DD	FLAT:$LN170@GetAttackD
	DD	FLAT:$LN123@GetAttackD
	DD	0fffffffeH
	DD	FLAT:$LN171@GetAttackD
	DD	FLAT:$LN127@GetAttackD
xdata$x	ENDS
;	COMDAT xdata$x
xdata$x	SEGMENT
__ehfuncinfo$??_EOBJECTSTRUCT@@QAEPAXI@Z DD 019930522H
	DD	00H
	DD	00H
	DD	2 DUP(00H)
	DD	2 DUP(00H)
	DD	00H
	DD	05H
xdata$x	ENDS
; Function compile flags: /Ogtp
;	COMDAT ??__FgclassObjAttack@@YAXXZ
text$yd	SEGMENT
??__FgclassObjAttack@@YAXXZ PROC			; `dynamic atexit destructor for 'gclassObjAttack'', COMDAT
  00000	b9 00 00 00 00	 mov	 ecx, OFFSET ?gclassObjAttack@@3VCObjAttack@@A ; gclassObjAttack
  00005	e9 00 00 00 00	 jmp	 ??1CObjAttack@@UAE@XZ	; CObjAttack::~CObjAttack
??__FgclassObjAttack@@YAXXZ ENDP			; `dynamic atexit destructor for 'gclassObjAttack''
text$yd	ENDS
; Function compile flags: /Ogtp
; File c:\users\michel\desktop\source\gameserver\source\objattack.cpp
;	COMDAT ??__EgclassObjAttack@@YAXXZ
text$di	SEGMENT
??__EgclassObjAttack@@YAXXZ PROC			; `dynamic initializer for 'gclassObjAttack'', COMDAT

; 46   : CObjAttack gclassObjAttack;

  00000	b9 00 00 00 00	 mov	 ecx, OFFSET ?gclassObjAttack@@3VCObjAttack@@A ; gclassObjAttack
  00005	e8 00 00 00 00	 call	 ??0CObjAttack@@QAE@XZ	; CObjAttack::CObjAttack
  0000a	68 00 00 00 00	 push	 OFFSET ??__FgclassObjAttack@@YAXXZ ; `dynamic atexit destructor for 'gclassObjAttack''
  0000f	e8 00 00 00 00	 call	 _atexit
  00014	59		 pop	 ecx
  00015	c3		 ret	 0
??__EgclassObjAttack@@YAXXZ ENDP			; `dynamic initializer for 'gclassObjAttack''
text$di	ENDS
; Function compile flags: /Ogtp
; File c:\users\michel\desktop\source\gameserver\source\newpvp.h
;	COMDAT ?IsVulcanusMap@CNewPVP@@QAEHH@Z
_TEXT	SEGMENT
_nMapNumber$ = 8					; size = 4
?IsVulcanusMap@CNewPVP@@QAEHH@Z PROC			; CNewPVP::IsVulcanusMap, COMDAT
; _this$ = ecx

; 307  : 	{

  00000	55		 push	 ebp
  00001	8b ec		 mov	 ebp, esp

; 308  : 		return nMapNumber == MAP_INDEX_VULCANUS;

  00003	33 c0		 xor	 eax, eax
  00005	83 7d 08 3f	 cmp	 DWORD PTR _nMapNumber$[ebp], 63 ; 0000003fH
  00009	0f 94 c0	 sete	 al

; 309  : 	}

  0000c	5d		 pop	 ebp
  0000d	c2 04 00	 ret	 4
?IsVulcanusMap@CNewPVP@@QAEHH@Z ENDP			; CNewPVP::IsVulcanusMap
_TEXT	ENDS
; Function compile flags: /Ogtp
; File c:\users\michel\desktop\source\gameserver\source\newpvp.h
;	COMDAT ?IsDuel@CNewPVP@@QAEHAAUOBJECTSTRUCT@@@Z
_TEXT	SEGMENT
_obj$ = 8						; size = 4
?IsDuel@CNewPVP@@QAEHAAUOBJECTSTRUCT@@@Z PROC		; CNewPVP::IsDuel, COMDAT
; _this$ = ecx

; 296  : 	{

  00000	55		 push	 ebp
  00001	8b ec		 mov	 ebp, esp

; 297  : 		return CHECK_LIMIT(obj.m_iDuelUser, OBJMAX);

  00003	8b 45 08	 mov	 eax, DWORD PTR _obj$[ebp]
  00006	8b 88 50 12 00
	00		 mov	 ecx, DWORD PTR [eax+4688]
  0000c	33 c0		 xor	 eax, eax
  0000e	85 c9		 test	 ecx, ecx
  00010	78 09		 js	 SHORT $LN4@IsDuel
  00012	81 f9 eb 2c 00
	00		 cmp	 ecx, 11499		; 00002cebH
  00018	0f 9e c0	 setle	 al
$LN4@IsDuel:

; 298  : 	}

  0001b	5d		 pop	 ebp
  0001c	c2 04 00	 ret	 4
?IsDuel@CNewPVP@@QAEHAAUOBJECTSTRUCT@@@Z ENDP		; CNewPVP::IsDuel
_TEXT	ENDS
; Function compile flags: /Ogtp
; File c:\users\michel\desktop\source\gameserver\source\crywolf.h
;	COMDAT ?GetCrywolfState@CCrywolf@@QAEHXZ
_TEXT	SEGMENT
?GetCrywolfState@CCrywolf@@QAEHXZ PROC			; CCrywolf::GetCrywolfState, COMDAT
; _this$ = ecx

; 92   : 	int GetCrywolfState(){return this->m_iCrywolfState;}

  00000	8b 81 8c a8 0f
	00		 mov	 eax, DWORD PTR [ecx+1026188]
  00006	c3		 ret	 0
?GetCrywolfState@CCrywolf@@QAEHXZ ENDP			; CCrywolf::GetCrywolfState
_TEXT	ENDS
; Function compile flags: /Ogtp
; File c:\users\michel\desktop\source\gameserver\source\objattack.cpp
;	COMDAT ?gObjFenrir@@YAHPAUOBJECTSTRUCT@@@Z
_TEXT	SEGMENT
_lpObj$ = 8						; size = 4
?gObjFenrir@@YAHPAUOBJECTSTRUCT@@@Z PROC		; gObjFenrir, COMDAT

; 4588 : {

  00000	55		 push	 ebp
  00001	8b ec		 mov	 ebp, esp
  00003	56		 push	 esi

; 4589 : 	if ( lpObj->Type != OBJ_USER )

  00004	8b 75 08	 mov	 esi, DWORD PTR _lpObj$[ebp]
  00007	80 7e 50 01	 cmp	 BYTE PTR [esi+80], 1
  0000b	75 42		 jne	 SHORT $LN5@gObjFenrir

; 4590 : 	{
; 4591 : 		return FALSE;
; 4592 : 	}
; 4593 : 
; 4594 : 	if ( lpObj->pInventory[8].IsItem() == FALSE )

  0000d	8b 8e c0 11 00
	00		 mov	 ecx, DWORD PTR [esi+4544]
  00013	81 c1 a0 06 00
	00		 add	 ecx, 1696		; 000006a0H
  00019	e8 00 00 00 00	 call	 ?IsItem@CItem@@QAEHXZ	; CItem::IsItem
  0001e	85 c0		 test	 eax, eax
  00020	74 2d		 je	 SHORT $LN5@gObjFenrir

; 4595 : 	{
; 4596 : 		return FALSE;
; 4597 : 	}
; 4598 : 
; 4599 : 	CItem * lpFenrir = & lpObj->pInventory[8];

  00022	8b 86 c0 11 00
	00		 mov	 eax, DWORD PTR [esi+4544]

; 4600 : 
; 4601 : 	if ( lpFenrir->m_Type == ITEMGET(13,37) )	// Fenrir

  00028	b9 25 1a 00 00	 mov	 ecx, 6693		; 00001a25H
  0002d	66 39 88 a6 06
	00 00		 cmp	 WORD PTR [eax+1702], cx
  00034	75 19		 jne	 SHORT $LN5@gObjFenrir

; 4602 : 	{
; 4603 : 		if ( lpFenrir->m_Durability > 0.0f )

  00036	f3 0f 10 80 c4
	06 00 00	 movss	 xmm0, DWORD PTR [eax+1732]
  0003e	0f 2f 05 00 00
	00 00		 comiss	 xmm0, DWORD PTR __real@00000000
  00045	76 08		 jbe	 SHORT $LN5@gObjFenrir

; 4604 : 		{
; 4605 : 			return TRUE;

  00047	b8 01 00 00 00	 mov	 eax, 1
  0004c	5e		 pop	 esi

; 4610 : }

  0004d	5d		 pop	 ebp
  0004e	c3		 ret	 0
$LN5@gObjFenrir:

; 4606 : 		}
; 4607 : 	}
; 4608 : 
; 4609 : 	return FALSE;

  0004f	33 c0		 xor	 eax, eax
  00051	5e		 pop	 esi

; 4610 : }

  00052	5d		 pop	 ebp
  00053	c3		 ret	 0
?gObjFenrir@@YAHPAUOBJECTSTRUCT@@@Z ENDP		; gObjFenrir
_TEXT	ENDS
; Function compile flags: /Ogtp
; File c:\users\michel\desktop\source\gameserver\source\objattack.cpp
;	COMDAT ?gObjDarkHorse@@YAHPAUOBJECTSTRUCT@@@Z
_TEXT	SEGMENT
_lpObj$ = 8						; size = 4
?gObjDarkHorse@@YAHPAUOBJECTSTRUCT@@@Z PROC		; gObjDarkHorse, COMDAT

; 4561 : {

  00000	55		 push	 ebp
  00001	8b ec		 mov	 ebp, esp
  00003	56		 push	 esi

; 4562 : 	if ( lpObj->Type != OBJ_USER )

  00004	8b 75 08	 mov	 esi, DWORD PTR _lpObj$[ebp]
  00007	80 7e 50 01	 cmp	 BYTE PTR [esi+80], 1
  0000b	75 42		 jne	 SHORT $LN5@gObjDarkHo

; 4563 : 	{
; 4564 : 		return FALSE;
; 4565 : 	}
; 4566 : 
; 4567 : 	if ( lpObj->pInventory[8].IsItem() == FALSE )

  0000d	8b 8e c0 11 00
	00		 mov	 ecx, DWORD PTR [esi+4544]
  00013	81 c1 a0 06 00
	00		 add	 ecx, 1696		; 000006a0H
  00019	e8 00 00 00 00	 call	 ?IsItem@CItem@@QAEHXZ	; CItem::IsItem
  0001e	85 c0		 test	 eax, eax
  00020	74 2d		 je	 SHORT $LN5@gObjDarkHo

; 4568 : 	{
; 4569 : 		return FALSE;
; 4570 : 	}
; 4571 : 
; 4572 : 	CItem * Denorant = & lpObj->pInventory[8];

  00022	8b 86 c0 11 00
	00		 mov	 eax, DWORD PTR [esi+4544]

; 4573 : 
; 4574 : 	if ( Denorant->m_Type == ITEMGET(13,4) )

  00028	b9 04 1a 00 00	 mov	 ecx, 6660		; 00001a04H
  0002d	66 39 88 a6 06
	00 00		 cmp	 WORD PTR [eax+1702], cx
  00034	75 19		 jne	 SHORT $LN5@gObjDarkHo

; 4575 : 	{
; 4576 : 		if ( Denorant->m_Durability > 0.0f )

  00036	f3 0f 10 80 c4
	06 00 00	 movss	 xmm0, DWORD PTR [eax+1732]
  0003e	0f 2f 05 00 00
	00 00		 comiss	 xmm0, DWORD PTR __real@00000000
  00045	76 08		 jbe	 SHORT $LN5@gObjDarkHo

; 4577 : 		{
; 4578 : 			return TRUE;

  00047	b8 01 00 00 00	 mov	 eax, 1
  0004c	5e		 pop	 esi

; 4583 : }

  0004d	5d		 pop	 ebp
  0004e	c3		 ret	 0
$LN5@gObjDarkHo:

; 4579 : 		}
; 4580 : 	}
; 4581 : 
; 4582 : 	return FALSE;

  0004f	33 c0		 xor	 eax, eax
  00051	5e		 pop	 esi

; 4583 : }

  00052	5d		 pop	 ebp
  00053	c3		 ret	 0
?gObjDarkHorse@@YAHPAUOBJECTSTRUCT@@@Z ENDP		; gObjDarkHorse
_TEXT	ENDS
; Function compile flags: /Ogtp
; File c:\users\michel\desktop\source\gameserver\source\objattack.cpp
;	COMDAT ?gObjDenorantSprite@@YAHPAUOBJECTSTRUCT@@@Z
_TEXT	SEGMENT
_lpObj$ = 8						; size = 4
?gObjDenorantSprite@@YAHPAUOBJECTSTRUCT@@@Z PROC	; gObjDenorantSprite, COMDAT

; 4533 : {

  00000	55		 push	 ebp
  00001	8b ec		 mov	 ebp, esp
  00003	56		 push	 esi

; 4534 : 	if ( lpObj->Type != OBJ_USER )

  00004	8b 75 08	 mov	 esi, DWORD PTR _lpObj$[ebp]
  00007	80 7e 50 01	 cmp	 BYTE PTR [esi+80], 1
  0000b	75 42		 jne	 SHORT $LN5@gObjDenora

; 4535 : 	{
; 4536 : 		return FALSE;
; 4537 : 	}
; 4538 : 
; 4539 : 	if ( lpObj->pInventory[8].IsItem() == FALSE )

  0000d	8b 8e c0 11 00
	00		 mov	 ecx, DWORD PTR [esi+4544]
  00013	81 c1 a0 06 00
	00		 add	 ecx, 1696		; 000006a0H
  00019	e8 00 00 00 00	 call	 ?IsItem@CItem@@QAEHXZ	; CItem::IsItem
  0001e	85 c0		 test	 eax, eax
  00020	74 2d		 je	 SHORT $LN5@gObjDenora

; 4540 : 	{
; 4541 : 		return FALSE;
; 4542 : 	}
; 4543 : 
; 4544 : 	CItem * Denorant = & lpObj->pInventory[8];

  00022	8b 86 c0 11 00
	00		 mov	 eax, DWORD PTR [esi+4544]

; 4545 : 
; 4546 : 	if ( Denorant->m_Type == ITEMGET(13,3) )

  00028	b9 03 1a 00 00	 mov	 ecx, 6659		; 00001a03H
  0002d	66 39 88 a6 06
	00 00		 cmp	 WORD PTR [eax+1702], cx
  00034	75 19		 jne	 SHORT $LN5@gObjDenora

; 4547 : 	{
; 4548 : 		if ( Denorant->m_Durability > 0.0f )

  00036	f3 0f 10 80 c4
	06 00 00	 movss	 xmm0, DWORD PTR [eax+1732]
  0003e	0f 2f 05 00 00
	00 00		 comiss	 xmm0, DWORD PTR __real@00000000
  00045	76 08		 jbe	 SHORT $LN5@gObjDenora

; 4549 : 		{
; 4550 : 			return TRUE;

  00047	b8 01 00 00 00	 mov	 eax, 1
  0004c	5e		 pop	 esi

; 4555 : }

  0004d	5d		 pop	 ebp
  0004e	c3		 ret	 0
$LN5@gObjDenora:

; 4551 : 		}
; 4552 : 	}
; 4553 : 
; 4554 : 	return FALSE;

  0004f	33 c0		 xor	 eax, eax
  00051	5e		 pop	 esi

; 4555 : }

  00052	5d		 pop	 ebp
  00053	c3		 ret	 0
?gObjDenorantSprite@@YAHPAUOBJECTSTRUCT@@@Z ENDP	; gObjDenorantSprite
_TEXT	ENDS
; Function compile flags: /Ogtp
;	COMDAT ??_GCObjAttack@@UAEPAXI@Z
_TEXT	SEGMENT
___flags$ = 8						; size = 4
??_GCObjAttack@@UAEPAXI@Z PROC				; CObjAttack::`scalar deleting destructor', COMDAT
; _this$ = ecx
  00000	55		 push	 ebp
  00001	8b ec		 mov	 ebp, esp
  00003	56		 push	 esi
  00004	8b f1		 mov	 esi, ecx
  00006	e8 00 00 00 00	 call	 ??1CObjAttack@@UAE@XZ	; CObjAttack::~CObjAttack
  0000b	f6 45 08 01	 test	 BYTE PTR ___flags$[ebp], 1
  0000f	74 0b		 je	 SHORT $LN4@scalar
  00011	6a 04		 push	 4
  00013	56		 push	 esi
  00014	e8 00 00 00 00	 call	 ??3@YAXPAXI@Z		; operator delete
  00019	83 c4 08	 add	 esp, 8
$LN4@scalar:
  0001c	8b c6		 mov	 eax, esi
  0001e	5e		 pop	 esi
  0001f	5d		 pop	 ebp
  00020	c2 04 00	 ret	 4
??_GCObjAttack@@UAEPAXI@Z ENDP				; CObjAttack::`scalar deleting destructor'
_TEXT	ENDS
; Function compile flags: /Ogtp
; File c:\users\michel\desktop\source\gameserver\source\objattack.cpp
;	COMDAT ?GetBuffTypePhysicalIncrease@CObjAttack@@QAE_NPAUOBJECTSTRUCT@@AAH1H@Z
_TEXT	SEGMENT
_iValue$ = 8						; size = 4
_lpObj$ = 8						; size = 4
_iAttackBerserkerMin$ = 12				; size = 4
_iAttackBerserkerMax$ = 16				; size = 4
_nBuffType$ = 20					; size = 4
?GetBuffTypePhysicalIncrease@CObjAttack@@QAE_NPAUOBJECTSTRUCT@@AAH1H@Z PROC ; CObjAttack::GetBuffTypePhysicalIncrease, COMDAT
; _this$ = ecx

; 4689 : {

  00000	55		 push	 ebp
  00001	8b ec		 mov	 ebp, esp
  00003	53		 push	 ebx
  00004	56		 push	 esi

; 4690 : 	iAttackBerserkerMin = ( lpObj->Strength+lpObj->AddStrength + lpObj->Dexterity + lpObj->AddDexterity ) / 7;

  00005	8b 75 08	 mov	 esi, DWORD PTR _lpObj$[ebp]
  00008	8b 5d 0c	 mov	 ebx, DWORD PTR _iAttackBerserkerMin$[ebp]
  0000b	57		 push	 edi

; 4691 : 	iAttackBerserkerMax = ( lpObj->Strength+lpObj->AddStrength + lpObj->Dexterity + lpObj->AddDexterity ) / 4;

  0000c	8b 7d 10	 mov	 edi, DWORD PTR _iAttackBerserkerMax$[ebp]
  0000f	0f b7 86 d2 00
	00 00		 movzx	 eax, WORD PTR [esi+210]
  00016	0f b7 8e d0 00
	00 00		 movzx	 ecx, WORD PTR [esi+208]
  0001d	03 c8		 add	 ecx, eax

; 4692 : 
; 4693 : 	int iValue = 0;

  0001f	c7 45 08 00 00
	00 00		 mov	 DWORD PTR _iValue$[ebp], 0
  00026	0f b7 86 fe 00
	00 00		 movzx	 eax, WORD PTR [esi+254]
  0002d	03 c8		 add	 ecx, eax
  0002f	0f b7 86 fc 00
	00 00		 movzx	 eax, WORD PTR [esi+252]
  00036	03 c8		 add	 ecx, eax
  00038	b8 93 24 49 92	 mov	 eax, -1840700269	; 92492493H
  0003d	f7 e9		 imul	 ecx

; 4694 : 	gObjGetValueOfBuffIndex(lpObj,nBuffType,&iValue,0);

  0003f	6a 00		 push	 0
  00041	03 d1		 add	 edx, ecx
  00043	c1 fa 02	 sar	 edx, 2
  00046	8b c2		 mov	 eax, edx
  00048	c1 e8 1f	 shr	 eax, 31			; 0000001fH
  0004b	03 c2		 add	 eax, edx
  0004d	89 03		 mov	 DWORD PTR [ebx], eax
  0004f	0f b7 8e d2 00
	00 00		 movzx	 ecx, WORD PTR [esi+210]
  00056	0f b7 86 d0 00
	00 00		 movzx	 eax, WORD PTR [esi+208]
  0005d	03 c1		 add	 eax, ecx
  0005f	0f b7 8e fe 00
	00 00		 movzx	 ecx, WORD PTR [esi+254]
  00066	03 c1		 add	 eax, ecx
  00068	0f b7 8e fc 00
	00 00		 movzx	 ecx, WORD PTR [esi+252]
  0006f	03 c1		 add	 eax, ecx
  00071	99		 cdq
  00072	83 e2 03	 and	 edx, 3
  00075	03 c2		 add	 eax, edx
  00077	c1 f8 02	 sar	 eax, 2
  0007a	89 07		 mov	 DWORD PTR [edi], eax
  0007c	8d 45 08	 lea	 eax, DWORD PTR _iValue$[ebp]
  0007f	50		 push	 eax
  00080	ff 75 14	 push	 DWORD PTR _nBuffType$[ebp]
  00083	56		 push	 esi
  00084	e8 00 00 00 00	 call	 ?gObjGetValueOfBuffIndex@@YA_NPAUOBJECTSTRUCT@@HPAH1@Z ; gObjGetValueOfBuffIndex

; 4695 : 
; 4696 : 	iAttackBerserkerMin = iAttackBerserkerMin*iValue / 100;

  00089	8b 0b		 mov	 ecx, DWORD PTR [ebx]
  0008b	b8 1f 85 eb 51	 mov	 eax, 1374389535		; 51eb851fH
  00090	0f af 4d 08	 imul	 ecx, DWORD PTR _iValue$[ebp]
  00094	83 c4 10	 add	 esp, 16			; 00000010H
  00097	f7 e9		 imul	 ecx

; 4697 : 	iAttackBerserkerMax = iAttackBerserkerMax*iValue / 100;

  00099	b8 1f 85 eb 51	 mov	 eax, 1374389535		; 51eb851fH
  0009e	c1 fa 05	 sar	 edx, 5
  000a1	8b ca		 mov	 ecx, edx
  000a3	c1 e9 1f	 shr	 ecx, 31			; 0000001fH
  000a6	03 ca		 add	 ecx, edx
  000a8	89 0b		 mov	 DWORD PTR [ebx], ecx
  000aa	8b 0f		 mov	 ecx, DWORD PTR [edi]
  000ac	0f af 4d 08	 imul	 ecx, DWORD PTR _iValue$[ebp]
  000b0	f7 e9		 imul	 ecx
  000b2	c1 fa 05	 sar	 edx, 5
  000b5	8b c2		 mov	 eax, edx
  000b7	c1 e8 1f	 shr	 eax, 31			; 0000001fH
  000ba	03 c2		 add	 eax, edx
  000bc	89 07		 mov	 DWORD PTR [edi], eax

; 4698 : return true;

  000be	b0 01		 mov	 al, 1
  000c0	5f		 pop	 edi
  000c1	5e		 pop	 esi
  000c2	5b		 pop	 ebx

; 4699 : }

  000c3	5d		 pop	 ebp
  000c4	c2 10 00	 ret	 16			; 00000010H
?GetBuffTypePhysicalIncrease@CObjAttack@@QAE_NPAUOBJECTSTRUCT@@AAH1H@Z ENDP ; CObjAttack::GetBuffTypePhysicalIncrease
_TEXT	ENDS
; Function compile flags: /Ogtp
; File c:\users\michel\desktop\source\gameserver\source\objattack.cpp
;	COMDAT ?GetShieldDamage@CObjAttack@@QAEHPAUOBJECTSTRUCT@@0H@Z
_TEXT	SEGMENT
tv280 = 8						; size = 4
_lpObj$ = 8						; size = 4
_lpTargetObj$ = 12					; size = 4
_iAttackDamage$ = 16					; size = 4
?GetShieldDamage@CObjAttack@@QAEHPAUOBJECTSTRUCT@@0H@Z PROC ; CObjAttack::GetShieldDamage, COMDAT
; _this$ = ecx

; 4614 : {

  00000	55		 push	 ebp
  00001	8b ec		 mov	 ebp, esp

; 4615 : 	int iShieldDamage = 0;
; 4616 : 
; 4617 : 	if ( g_ShieldSystemOn == FALSE )

  00003	83 3d 00 00 00
	00 00		 cmp	 DWORD PTR ?g_ShieldSystemOn@@3HA, 0 ; g_ShieldSystemOn
  0000a	75 06		 jne	 SHORT $LN2@GetShieldD

; 4618 : 		return 0;

  0000c	33 c0		 xor	 eax, eax

; 4685 : }

  0000e	5d		 pop	 ebp
  0000f	c2 0c 00	 ret	 12			; 0000000cH
$LN2@GetShieldD:
  00012	53		 push	 ebx

; 4619 : 
; 4620 : 	if ( iAttackDamage <= 0 )

  00013	8b 5d 10	 mov	 ebx, DWORD PTR _iAttackDamage$[ebp]
  00016	85 db		 test	 ebx, ebx
  00018	7f 07		 jg	 SHORT $LN3@GetShieldD

; 4621 : 		return 0;

  0001a	33 c0		 xor	 eax, eax
  0001c	5b		 pop	 ebx

; 4685 : }

  0001d	5d		 pop	 ebp
  0001e	c2 0c 00	 ret	 12			; 0000000cH
$LN3@GetShieldD:

; 4622 : 
; 4623 : 	int iReduceLife = 0;
; 4624 : 	int iReduceShield = 0;
; 4625 : 	int iReduceLifeForEffect = 0; 
; 4626 : 	bool bReduceShieldGage = 0;
; 4627 : 	int iDamageDevideToSDRate = g_iDamageDevideToSDRate;
; 4628 : 	iDamageDevideToSDRate -= lpObj->m_JewelOfHarmonyEffect.HJOpDecreaseSDRate;

  00021	8b 4d 08	 mov	 ecx, DWORD PTR _lpObj$[ebp]
  00024	56		 push	 esi
  00025	57		 push	 edi

; 4629 : 	iDamageDevideToSDRate += lpTargetObj->m_JewelOfHarmonyEffect.HJOpAddSDRate;

  00026	8b 7d 0c	 mov	 edi, DWORD PTR _lpTargetObj$[ebp]
  00029	0f bf 81 3c 24
	00 00		 movsx	 eax, WORD PTR [ecx+9276]
  00030	0f bf b7 50 24
	00 00		 movsx	 esi, WORD PTR [edi+9296]
  00037	2b f0		 sub	 esi, eax

; 4630 : 
; 4631 : 	if ( iDamageDevideToSDRate < 0 )

  00039	b8 64 00 00 00	 mov	 eax, 100		; 00000064H
  0003e	03 35 00 00 00
	00		 add	 esi, DWORD PTR ?g_iDamageDevideToSDRate@@3HA ; g_iDamageDevideToSDRate
  00044	79 04		 jns	 SHORT $LN4@GetShieldD

; 4632 : 		iDamageDevideToSDRate = 0;

  00046	33 f6		 xor	 esi, esi

; 4633 : 
; 4634 : 	if ( iDamageDevideToSDRate > 100 )

  00048	eb 05		 jmp	 SHORT $LN5@GetShieldD
$LN4@GetShieldD:
  0004a	3b f0		 cmp	 esi, eax
  0004c	0f 4f f0	 cmovg	 esi, eax
$LN5@GetShieldD:

; 4635 : 		iDamageDevideToSDRate = 100;
; 4636 : 
; 4637 : 	if ( lpObj->m_JewelOfHarmonyEffect.HJOpAddIgnoreSDRate > 0 )

  0004f	0f b7 91 3e 24
	00 00		 movzx	 edx, WORD PTR [ecx+9278]
  00056	66 85 d2	 test	 dx, dx
  00059	7e 2c		 jle	 SHORT $LN7@GetShieldD

; 4638 : 	{
; 4639 : 		int iRand = rand()%100;

  0005b	e8 00 00 00 00	 call	 _rand
  00060	99		 cdq
  00061	b9 64 00 00 00	 mov	 ecx, 100		; 00000064H
  00066	f7 f9		 idiv	 ecx

; 4640 : 
; 4641 : 		if ( iRand < lpObj->m_JewelOfHarmonyEffect.HJOpAddIgnoreSDRate )

  00068	8b 4d 08	 mov	 ecx, DWORD PTR _lpObj$[ebp]
  0006b	c7 45 08 00 00
	00 00		 mov	 DWORD PTR tv280[ebp], 0
  00072	0f b7 81 3e 24
	00 00		 movzx	 eax, WORD PTR [ecx+9278]
  00079	98		 cwde
  0007a	3b d0		 cmp	 edx, eax
  0007c	0f b7 91 3e 24
	00 00		 movzx	 edx, WORD PTR [ecx+9278]
  00083	0f 4c 75 08	 cmovl	 esi, DWORD PTR tv280[ebp]
$LN7@GetShieldD:

; 4642 : 		{
; 4643 : 			iDamageDevideToSDRate = 0;
; 4644 : 		}
; 4645 : 	}
; 4646 : 
; 4647 : 	if ( lpObj->m_JewelOfHarmonyEffect.HJOpDecreaseSDRate ||
; 4648 : 		 lpTargetObj->m_JewelOfHarmonyEffect.HJOpAddSDRate ||

  00087	0f b7 81 3c 24
	00 00		 movzx	 eax, WORD PTR [ecx+9276]
  0008e	66 85 c0	 test	 ax, ax
  00091	75 0e		 jne	 SHORT $LN9@GetShieldD
  00093	66 39 87 50 24
	00 00		 cmp	 WORD PTR [edi+9296], ax
  0009a	75 05		 jne	 SHORT $LN9@GetShieldD
  0009c	66 85 d2	 test	 dx, dx
  0009f	74 34		 je	 SHORT $LN8@GetShieldD
$LN9@GetShieldD:

; 4649 : 		 lpObj->m_JewelOfHarmonyEffect.HJOpAddIgnoreSDRate )
; 4650 : 	{
; 4651 : 		LogAddTD("[JewelOfHarmony][PvP System] Attacker:[%s][%s]-SD Decrease[%d] SD Ignore[%d] Defender:[%s][%s] SD Increase Option[%d] - SD Rate[%d]",

  000a1	0f bf 87 50 24
	00 00		 movsx	 eax, WORD PTR [edi+9296]
  000a8	56		 push	 esi
  000a9	50		 push	 eax
  000aa	8d 47 5d	 lea	 eax, DWORD PTR [edi+93]
  000ad	50		 push	 eax
  000ae	8d 47 52	 lea	 eax, DWORD PTR [edi+82]
  000b1	50		 push	 eax
  000b2	0f bf c2	 movsx	 eax, dx
  000b5	50		 push	 eax
  000b6	0f b7 81 3c 24
	00 00		 movzx	 eax, WORD PTR [ecx+9276]
  000bd	98		 cwde
  000be	50		 push	 eax
  000bf	8d 41 5d	 lea	 eax, DWORD PTR [ecx+93]
  000c2	50		 push	 eax
  000c3	8d 41 52	 lea	 eax, DWORD PTR [ecx+82]
  000c6	50		 push	 eax
  000c7	68 00 00 00 00	 push	 OFFSET ??_C@_0IE@HMIJIHBA@?$FLJewelOfHarmony?$FN?$FLPvP?5System?$FN?5Att@
  000cc	ff 15 00 00 00
	00		 call	 DWORD PTR ?LogAddTD@@3P6AXPADZZA ; LogAddTD
  000d2	83 c4 24	 add	 esp, 36			; 00000024H
$LN8@GetShieldD:

; 4652 : 			lpObj->AccountID, lpObj->Name,
; 4653 : 			lpObj->m_JewelOfHarmonyEffect.HJOpDecreaseSDRate,
; 4654 : 			lpObj->m_JewelOfHarmonyEffect.HJOpAddIgnoreSDRate,
; 4655 : 			lpTargetObj->AccountID, lpTargetObj->Name,
; 4656 : 			lpTargetObj->m_JewelOfHarmonyEffect.HJOpAddSDRate,
; 4657 : 			iDamageDevideToSDRate);
; 4658 : 	}
; 4659 : 
; 4660 : 	iReduceShield = iAttackDamage * iDamageDevideToSDRate / 100;
; 4661 : 	iReduceLife = iAttackDamage - iReduceShield;
; 4662 : 
; 4663 : 	if ( (lpTargetObj->iShield-iReduceShield) <0 )

  000d5	8b 8f 2c 01 00
	00		 mov	 ecx, DWORD PTR [edi+300]
  000db	b8 1f 85 eb 51	 mov	 eax, 1374389535		; 51eb851fH
  000e0	0f af f3	 imul	 esi, ebx
  000e3	f7 ee		 imul	 esi
  000e5	8b c1		 mov	 eax, ecx
  000e7	c1 fa 05	 sar	 edx, 5
  000ea	8b f2		 mov	 esi, edx
  000ec	c1 ee 1f	 shr	 esi, 31			; 0000001fH
  000ef	03 f2		 add	 esi, edx
  000f1	2b de		 sub	 ebx, esi
  000f3	2b c6		 sub	 eax, esi
  000f5	79 5a		 jns	 SHORT $LN13@GetShieldD

; 4664 : 	{
; 4665 : 		iReduceLife += iReduceShield  - lpTargetObj->iShield;

  000f7	2b f1		 sub	 esi, ecx
  000f9	03 de		 add	 ebx, esi

; 4666 : 		iReduceShield = lpTargetObj->iShield;

  000fb	8b f1		 mov	 esi, ecx

; 4667 : 
; 4668 : 		if ( lpTargetObj->iShield > 0 )

  000fd	85 c9		 test	 ecx, ecx
  000ff	7e 50		 jle	 SHORT $LN13@GetShieldD

; 4669 : 		{
; 4670 : 			bReduceShieldGage = true;
; 4671 : 		}
; 4672 : 	}
; 4673 : 
; 4674 : 	iReduceLifeForEffect = (int)(( lpTargetObj->MaxLife + lpTargetObj->AddLife ) * 20.0f / 100.0f);

  00101	66 0f 6e 87 24
	01 00 00	 movd	 xmm0, DWORD PTR [edi+292]
  00109	0f 5b c0	 cvtdq2ps xmm0, xmm0
  0010c	f3 0f 58 87 dc
	00 00 00	 addss	 xmm0, DWORD PTR [edi+220]
  00114	f3 0f 59 05 00
	00 00 00	 mulss	 xmm0, DWORD PTR __real@41a00000
  0011c	f3 0f 5e 05 00
	00 00 00	 divss	 xmm0, DWORD PTR __real@42c80000
  00124	f3 0f 2c c0	 cvttss2si eax, xmm0

; 4675 : 
; 4676 : 	if ( bReduceShieldGage == true && iReduceLife > iReduceLifeForEffect )

  00128	3b d8		 cmp	 ebx, eax
  0012a	7e 25		 jle	 SHORT $LN13@GetShieldD

; 4677 : 	{
; 4678 : 		if ( !CC_MAP_RANGE(lpTargetObj->MapNumber) )

  0012c	8a 87 23 01 00
	00		 mov	 al, BYTE PTR [edi+291]
  00132	3c 35		 cmp	 al, 53			; 00000035H
  00134	74 1b		 je	 SHORT $LN13@GetShieldD
  00136	3c 12		 cmp	 al, 18			; 00000012H
  00138	72 0b		 jb	 SHORT $LN20@GetShieldD
  0013a	b1 17		 mov	 cl, 23			; 00000017H
  0013c	3a c8		 cmp	 cl, al
  0013e	1b c0		 sbb	 eax, eax
  00140	83 c0 01	 add	 eax, 1
  00143	75 0c		 jne	 SHORT $LN13@GetShieldD
$LN20@GetShieldD:

; 4679 : 		{
; 4680 : 			GCSendEffectInfo(lpTargetObj->m_Index, 17);

  00145	6a 11		 push	 17			; 00000011H
  00147	ff 37		 push	 DWORD PTR [edi]
  00149	e8 00 00 00 00	 call	 ?GCSendEffectInfo@@YAXHE@Z ; GCSendEffectInfo
  0014e	83 c4 08	 add	 esp, 8
$LN13@GetShieldD:

; 4681 : 		}
; 4682 : 	}
; 4683 : 
; 4684 : 	return iReduceShield;

  00151	5f		 pop	 edi
  00152	8b c6		 mov	 eax, esi
  00154	5e		 pop	 esi
  00155	5b		 pop	 ebx

; 4685 : }

  00156	5d		 pop	 ebp
  00157	c2 0c 00	 ret	 12			; 0000000cH
?GetShieldDamage@CObjAttack@@QAEHPAUOBJECTSTRUCT@@0H@Z ENDP ; CObjAttack::GetShieldDamage
_TEXT	ENDS
; Function compile flags: /Ogtp
; File c:\users\michel\desktop\source\gameserver\source\objattack.cpp
;	COMDAT ?GetAttackDamageSummoner@CObjAttack@@QAEHPAUOBJECTSTRUCT@@HPAVCMagicInf@@AAHH@Z
_TEXT	SEGMENT
_fMagicDamageMax$1$ = -48				; size = 4
_Left$1$ = -48						; size = 4
_Right$1$ = -48						; size = 4
_ad$ = -48						; size = 4
_fMagicDamageMin$1$ = -44				; size = 4
_subd$ = -40						; size = 4
_fCurseDamageMax$1$ = -36				; size = 4
_bIsOnDuel$1$ = -32					; size = 4
_skilldamage$ = -28					; size = 4
__$SEHRec$ = -24					; size = 24
_lpObj$ = 8						; size = 4
_targetDefense$ = 12					; size = 4
_AddCriticalDmg$2 = 16					; size = 4
_lpMagic$ = 16						; size = 4
_effect$ = 20						; size = 4
_fCurseDamageMin$1$ = 24				; size = 4
_damagemin$1$ = 24					; size = 4
_fDamage$3 = 24						; size = 4
_fDamage$4 = 24						; size = 4
_bIsOnDuel$ = 24					; size = 4
?GetAttackDamageSummoner@CObjAttack@@QAEHPAUOBJECTSTRUCT@@HPAVCMagicInf@@AAHH@Z PROC ; CObjAttack::GetAttackDamageSummoner, COMDAT
; _this$ = ecx

; 4219 : {

  00000	55		 push	 ebp
  00001	8b ec		 mov	 ebp, esp
  00003	6a fe		 push	 -2			; fffffffeH
  00005	68 00 00 00 00	 push	 OFFSET __sehtable$?GetAttackDamageSummoner@CObjAttack@@QAEHPAUOBJECTSTRUCT@@HPAVCMagicInf@@AAHH@Z
  0000a	68 00 00 00 00	 push	 OFFSET __except_handler4
  0000f	64 a1 00 00 00
	00		 mov	 eax, DWORD PTR fs:0
  00015	50		 push	 eax
  00016	83 ec 20	 sub	 esp, 32			; 00000020H
  00019	53		 push	 ebx
  0001a	56		 push	 esi
  0001b	57		 push	 edi
  0001c	a1 00 00 00 00	 mov	 eax, DWORD PTR ___security_cookie
  00021	31 45 f8	 xor	 DWORD PTR __$SEHRec$[ebp+16], eax
  00024	33 c5		 xor	 eax, ebp
  00026	50		 push	 eax
  00027	8d 45 f0	 lea	 eax, DWORD PTR __$SEHRec$[ebp+8]
  0002a	64 a3 00 00 00
	00		 mov	 DWORD PTR fs:0, eax
  00030	89 65 e8	 mov	 DWORD PTR __$SEHRec$[ebp], esp

; 4220 : 	if ( g_ShieldSystemOn == TRUE )

  00033	83 3d 00 00 00
	00 01		 cmp	 DWORD PTR ?g_ShieldSystemOn@@3HA, 1 ; g_ShieldSystemOn
  0003a	75 10		 jne	 SHORT $LN51@GetAttackD

; 4221 : 	{
; 4222 : 		if ( bIsOnDuel == TRUE )

  0003c	8b 75 18	 mov	 esi, DWORD PTR _bIsOnDuel$[ebp]
  0003f	33 c0		 xor	 eax, eax
  00041	83 fe 01	 cmp	 esi, 1
  00044	0f 44 f0	 cmove	 esi, eax
  00047	89 75 e0	 mov	 DWORD PTR _bIsOnDuel$1$[ebp], esi
  0004a	eb 06		 jmp	 SHORT $LN5@GetAttackD
$LN51@GetAttackD:
  0004c	8b 45 18	 mov	 eax, DWORD PTR _bIsOnDuel$[ebp]
  0004f	89 45 e0	 mov	 DWORD PTR _bIsOnDuel$1$[ebp], eax
$LN5@GetAttackD:
  00052	0f 57 c0	 xorps	 xmm0, xmm0

; 4223 : 		{
; 4224 : 			bIsOnDuel = FALSE;
; 4225 : 		}
; 4226 : 	}
; 4227 : 
; 4228 : 	float fCurseDamageMin = 0;

  00055	f3 0f 11 45 18	 movss	 DWORD PTR _fCurseDamageMin$1$[ebp], xmm0

; 4229 : 	float fCurseDamageMax = 0;

  0005a	f3 0f 11 45 dc	 movss	 DWORD PTR _fCurseDamageMax$1$[ebp], xmm0

; 4230 : 
; 4231 : 	float fMagicDamageMin = 0;

  0005f	0f 28 c8	 movaps	 xmm1, xmm0
  00062	f3 0f 11 4d d4	 movss	 DWORD PTR _fMagicDamageMin$1$[ebp], xmm1

; 4232 : 	float fMagicDamageMax = 0;

  00067	f3 0f 11 45 d0	 movss	 DWORD PTR _fMagicDamageMax$1$[ebp], xmm0

; 4233 : 
; 4234 : 	int damagemin;
; 4235 : 	int damagemax;
; 4236 : 	int skilldamage;
; 4237 : 
; 4238 : 	int ad = 0;
; 4239 : 
; 4240 : 	skilldamage = lpMagic->GetDamage();

  0006c	8b 5d 10	 mov	 ebx, DWORD PTR _lpMagic$[ebp]
  0006f	8b cb		 mov	 ecx, ebx
  00071	e8 00 00 00 00	 call	 ?GetDamage@CMagicInf@@QAEHXZ ; CMagicInf::GetDamage
  00076	89 45 e4	 mov	 DWORD PTR _skilldamage$[ebp], eax

; 4241 : 
; 4242 : 	switch( lpMagic->m_Skill )

  00079	8b 43 08	 mov	 eax, DWORD PTR [ebx+8]
  0007c	3d db 00 00 00	 cmp	 eax, 219		; 000000dbH
  00081	0f 8c e8 02 00
	00		 jl	 $LN17@GetAttackD
  00087	3d e1 00 00 00	 cmp	 eax, 225		; 000000e1H
  0008c	7e 0b		 jle	 SHORT $LN6@GetAttackD
  0008e	3d cc 01 00 00	 cmp	 eax, 460		; 000001ccH
  00093	0f 85 d6 02 00
	00		 jne	 $LN17@GetAttackD
$LN6@GetAttackD:

; 4243 : 	{
; 4244 : 	case 219:
; 4245 : 	case 220:
; 4246 : 	case 221:
; 4247 : 	case AT_SKILL_INNOVATION:
; 4248 : 	case AT_MSKILL_SUM_INNOVATION1:
; 4249 : 	case 223:
; 4250 : 	case 224:
; 4251 : 	case 225:
; 4252 : 		{
; 4253 : 			if( gObjCheckUsedBuffEffect(lpObj,BUFF_BERSERKER) == TRUE )

  00099	6a 51		 push	 81			; 00000051H
  0009b	8b 7d 08	 mov	 edi, DWORD PTR _lpObj$[ebp]
  0009e	57		 push	 edi
  0009f	e8 00 00 00 00	 call	 ?gObjCheckUsedBuffEffect@@YA_NPAUOBJECTSTRUCT@@H@Z ; gObjCheckUsedBuffEffect
  000a4	83 c4 08	 add	 esp, 8
  000a7	3c 01		 cmp	 al, 1
  000a9	75 6d		 jne	 SHORT $LN52@GetAttackD

; 4254 : 			{
; 4255 : 				float adddmgperc = (float)gObjGetTotalValueOfEffect(lpObj,31);

  000ab	6a 1f		 push	 31			; 0000001fH
  000ad	57		 push	 edi
  000ae	e8 00 00 00 00	 call	 ?gObjGetTotalValueOfEffect@@YAHPAUOBJECTSTRUCT@@H@Z ; gObjGetTotalValueOfEffect
  000b3	83 c4 08	 add	 esp, 8
  000b6	66 0f 6e c0	 movd	 xmm0, eax
  000ba	0f 5b c0	 cvtdq2ps xmm0, xmm0

; 4256 : 
; 4257 : 				fCurseDamageMax = ((lpObj->Energy + lpObj->AddEnergy)/4) * adddmgperc / 100.0f;

  000bd	0f b7 8f 02 01
	00 00		 movzx	 ecx, WORD PTR [edi+258]
  000c4	0f b7 87 d6 00
	00 00		 movzx	 eax, WORD PTR [edi+214]
  000cb	03 c8		 add	 ecx, eax
  000cd	8b c1		 mov	 eax, ecx
  000cf	99		 cdq
  000d0	83 e2 03	 and	 edx, 3
  000d3	03 c2		 add	 eax, edx
  000d5	c1 f8 02	 sar	 eax, 2
  000d8	66 0f 6e c8	 movd	 xmm1, eax
  000dc	0f 5b c9	 cvtdq2ps xmm1, xmm1
  000df	f3 0f 59 c8	 mulss	 xmm1, xmm0
  000e3	f3 0f 5e 0d 00
	00 00 00	 divss	 xmm1, DWORD PTR __real@42c80000
  000eb	f3 0f 11 4d dc	 movss	 DWORD PTR _fCurseDamageMax$1$[ebp], xmm1

; 4258 : 				fCurseDamageMin = ((lpObj->Energy + lpObj->AddEnergy)/9) * adddmgperc / 100.0f;

  000f0	b8 39 8e e3 38	 mov	 eax, 954437177		; 38e38e39H
  000f5	f7 e9		 imul	 ecx
  000f7	d1 fa		 sar	 edx, 1
  000f9	8b c2		 mov	 eax, edx
  000fb	c1 e8 1f	 shr	 eax, 31			; 0000001fH
  000fe	03 c2		 add	 eax, edx
  00100	66 0f 6e c8	 movd	 xmm1, eax
  00104	0f 5b c9	 cvtdq2ps xmm1, xmm1
  00107	f3 0f 59 c8	 mulss	 xmm1, xmm0
  0010b	f3 0f 5e 0d 00
	00 00 00	 divss	 xmm1, DWORD PTR __real@42c80000
  00113	f3 0f 11 4d 18	 movss	 DWORD PTR _fCurseDamageMin$1$[ebp], xmm1
$LN52@GetAttackD:

; 4259 : 			}
; 4260 : 
; 4261 : 			if( gObjCheckUsedBuffEffect(lpObj,BUFF_BERSERKER2) == TRUE ||
; 4262 : 				gObjCheckUsedBuffEffect(lpObj,BUFF_BERSERKER3) == TRUE ||

  00118	68 96 00 00 00	 push	 150			; 00000096H
  0011d	57		 push	 edi
  0011e	e8 00 00 00 00	 call	 ?gObjCheckUsedBuffEffect@@YA_NPAUOBJECTSTRUCT@@H@Z ; gObjCheckUsedBuffEffect
  00123	83 c4 08	 add	 esp, 8
  00126	3c 01		 cmp	 al, 1
  00128	74 28		 je	 SHORT $LN9@GetAttackD
  0012a	68 97 00 00 00	 push	 151			; 00000097H
  0012f	57		 push	 edi
  00130	e8 00 00 00 00	 call	 ?gObjCheckUsedBuffEffect@@YA_NPAUOBJECTSTRUCT@@H@Z ; gObjCheckUsedBuffEffect
  00135	83 c4 08	 add	 esp, 8
  00138	3c 01		 cmp	 al, 1
  0013a	74 16		 je	 SHORT $LN9@GetAttackD
  0013c	68 98 00 00 00	 push	 152			; 00000098H
  00141	57		 push	 edi
  00142	e8 00 00 00 00	 call	 ?gObjCheckUsedBuffEffect@@YA_NPAUOBJECTSTRUCT@@H@Z ; gObjCheckUsedBuffEffect
  00147	83 c4 08	 add	 esp, 8
  0014a	3c 01		 cmp	 al, 1
  0014c	0f 85 82 00 00
	00		 jne	 $LN8@GetAttackD
$LN9@GetAttackD:

; 4263 : 				gObjCheckUsedBuffEffect(lpObj,BUFF_BERSERKER4) == TRUE )
; 4264 : 			{
; 4265 : 				float adddmgperc = (float)gObjGetTotalValueOfEffect(lpObj,31);

  00152	6a 1f		 push	 31			; 0000001fH
  00154	57		 push	 edi
  00155	e8 00 00 00 00	 call	 ?gObjGetTotalValueOfEffect@@YAHPAUOBJECTSTRUCT@@H@Z ; gObjGetTotalValueOfEffect
  0015a	83 c4 08	 add	 esp, 8
  0015d	66 0f 6e c8	 movd	 xmm1, eax
  00161	0f 5b c9	 cvtdq2ps xmm1, xmm1

; 4266 : 
; 4267 : 				if( lpObj->m_MPSkillOpt.MpsBerserkInc1 > 0.0f )

  00164	f3 0f 10 87 90
	07 00 00	 movss	 xmm0, DWORD PTR [edi+1936]
  0016c	0f 2f 05 00 00
	00 00		 comiss	 xmm0, DWORD PTR __real@00000000
  00173	76 04		 jbe	 SHORT $LN10@GetAttackD

; 4268 : 				{
; 4269 : 					adddmgperc += lpObj->m_MPSkillOpt.MpsBerserkInc1;

  00175	f3 0f 58 c8	 addss	 xmm1, xmm0
$LN10@GetAttackD:

; 4270 : 				}
; 4271 : 
; 4272 : 				fCurseDamageMax = ((lpObj->Energy + lpObj->AddEnergy)/4) * adddmgperc / 100.0f;

  00179	0f b7 8f 02 01
	00 00		 movzx	 ecx, WORD PTR [edi+258]
  00180	0f b7 87 d6 00
	00 00		 movzx	 eax, WORD PTR [edi+214]
  00187	03 c8		 add	 ecx, eax
  00189	8b c1		 mov	 eax, ecx
  0018b	99		 cdq
  0018c	83 e2 03	 and	 edx, 3
  0018f	03 c2		 add	 eax, edx
  00191	c1 f8 02	 sar	 eax, 2
  00194	66 0f 6e c0	 movd	 xmm0, eax
  00198	0f 5b c0	 cvtdq2ps xmm0, xmm0
  0019b	f3 0f 59 c1	 mulss	 xmm0, xmm1
  0019f	f3 0f 5e 05 00
	00 00 00	 divss	 xmm0, DWORD PTR __real@42c80000
  001a7	f3 0f 11 45 dc	 movss	 DWORD PTR _fCurseDamageMax$1$[ebp], xmm0

; 4273 : 				fCurseDamageMin = ((lpObj->Energy + lpObj->AddEnergy)/9) * adddmgperc / 100.0f;

  001ac	b8 39 8e e3 38	 mov	 eax, 954437177		; 38e38e39H
  001b1	f7 e9		 imul	 ecx
  001b3	d1 fa		 sar	 edx, 1
  001b5	8b c2		 mov	 eax, edx
  001b7	c1 e8 1f	 shr	 eax, 31			; 0000001fH
  001ba	03 c2		 add	 eax, edx
  001bc	66 0f 6e c0	 movd	 xmm0, eax
  001c0	0f 5b c0	 cvtdq2ps xmm0, xmm0
  001c3	f3 0f 59 c1	 mulss	 xmm0, xmm1
  001c7	f3 0f 5e 05 00
	00 00 00	 divss	 xmm0, DWORD PTR __real@42c80000
  001cf	f3 0f 11 45 18	 movss	 DWORD PTR _fCurseDamageMin$1$[ebp], xmm0
$LN8@GetAttackD:

; 4274 : 			}
; 4275 : 
; 4276 : 			damagemin = int(lpMagic->m_DamageMin + lpObj->m_CurseDamageMin + fCurseDamageMin);

  001d4	8b 87 84 06 00
	00		 mov	 eax, DWORD PTR [edi+1668]
  001da	03 43 0c	 add	 eax, DWORD PTR [ebx+12]
  001dd	66 0f 6e c0	 movd	 xmm0, eax
  001e1	0f 5b c0	 cvtdq2ps xmm0, xmm0
  001e4	f3 0f 58 45 18	 addss	 xmm0, DWORD PTR _fCurseDamageMin$1$[ebp]
  001e9	f3 0f 2c f0	 cvttss2si esi, xmm0
  001ed	89 75 18	 mov	 DWORD PTR _damagemin$1$[ebp], esi

; 4277 : 			damagemax = int(lpMagic->m_DamageMax + lpObj->m_CurseDamageMax + fCurseDamageMax);

  001f0	8b 87 88 06 00
	00		 mov	 eax, DWORD PTR [edi+1672]
  001f6	03 43 10	 add	 eax, DWORD PTR [ebx+16]
  001f9	66 0f 6e c0	 movd	 xmm0, eax
  001fd	0f 5b c0	 cvtdq2ps xmm0, xmm0
  00200	f3 0f 58 45 dc	 addss	 xmm0, DWORD PTR _fCurseDamageMax$1$[ebp]
  00205	f3 0f 2c d8	 cvttss2si ebx, xmm0

; 4278 : 
; 4279 : 			if( g_MasterSkillSystem.CheckMasterLevelSkill(lpMagic->m_Skill) )

  00209	8b 45 10	 mov	 eax, DWORD PTR _lpMagic$[ebp]
  0020c	ff 70 08	 push	 DWORD PTR [eax+8]
  0020f	b9 00 00 00 00	 mov	 ecx, OFFSET ?g_MasterSkillSystem@@3VCMasterLevelSkillTreeSystem@@A ; g_MasterSkillSystem
  00214	e8 00 00 00 00	 call	 ?CheckMasterLevelSkill@CMasterLevelSkillTreeSystem@@QAEHH@Z ; CMasterLevelSkillTreeSystem::CheckMasterLevelSkill
  00219	85 c0		 test	 eax, eax
  0021b	74 3a		 je	 SHORT $LN11@GetAttackD

; 4280 : 			{
; 4281 : 				float fDamage = g_MasterSkillSystem.GetSkillAttackDamage(lpObj,lpMagic->m_Skill);

  0021d	8b 45 10	 mov	 eax, DWORD PTR _lpMagic$[ebp]
  00220	ff 70 08	 push	 DWORD PTR [eax+8]
  00223	57		 push	 edi
  00224	b9 00 00 00 00	 mov	 ecx, OFFSET ?g_MasterSkillSystem@@3VCMasterLevelSkillTreeSystem@@A ; g_MasterSkillSystem
  00229	e8 00 00 00 00	 call	 ?GetSkillAttackDamage@CMasterLevelSkillTreeSystem@@QAEMPAUOBJECTSTRUCT@@H@Z ; CMasterLevelSkillTreeSystem::GetSkillAttackDamage
  0022e	d9 5d 18	 fstp	 DWORD PTR _fDamage$4[ebp]
  00231	66 0f 6e c6	 movd	 xmm0, esi

; 4282 : 
; 4283 : 				damagemin += fDamage;

  00235	0f 5b c0	 cvtdq2ps xmm0, xmm0
  00238	f3 0f 10 4d 18	 movss	 xmm1, DWORD PTR _fDamage$4[ebp]
  0023d	f3 0f 58 c1	 addss	 xmm0, xmm1
  00241	f3 0f 2c f0	 cvttss2si esi, xmm0
  00245	89 75 18	 mov	 DWORD PTR _damagemin$1$[ebp], esi
  00248	66 0f 6e c3	 movd	 xmm0, ebx

; 4284 : 				damagemax += fDamage;

  0024c	0f 5b c0	 cvtdq2ps xmm0, xmm0
  0024f	f3 0f 58 c1	 addss	 xmm0, xmm1
  00253	f3 0f 2c d8	 cvttss2si ebx, xmm0
$LN11@GetAttackD:

; 4285 : 			}
; 4286 : 
; 4287 : 			if( lpObj->m_MPSkillOpt.MpsMagicMastery2 > 0.0f )

  00257	f3 0f 10 97 64
	07 00 00	 movss	 xmm2, DWORD PTR [edi+1892]
  0025f	0f 57 c9	 xorps	 xmm1, xmm1
  00262	0f 2f d1	 comiss	 xmm2, xmm1
  00265	76 21		 jbe	 SHORT $LN12@GetAttackD
  00267	66 0f 6e c6	 movd	 xmm0, esi

; 4288 : 			{
; 4289 : 				damagemin += lpObj->m_MPSkillOpt.MpsMagicMastery2;

  0026b	0f 5b c0	 cvtdq2ps xmm0, xmm0
  0026e	f3 0f 58 c2	 addss	 xmm0, xmm2
  00272	f3 0f 2c f0	 cvttss2si esi, xmm0
  00276	89 75 18	 mov	 DWORD PTR _damagemin$1$[ebp], esi
  00279	66 0f 6e c3	 movd	 xmm0, ebx

; 4290 : 				damagemax += lpObj->m_MPSkillOpt.MpsMagicMastery2;

  0027d	0f 5b c0	 cvtdq2ps xmm0, xmm0
  00280	f3 0f 58 c2	 addss	 xmm0, xmm2
  00284	f3 0f 2c d8	 cvttss2si ebx, xmm0
$LN12@GetAttackD:

; 4291 : 			}
; 4292 : 
; 4293 : 			if( lpObj->m_MPSkillOpt.MpsMinWizCurseInc > 0.0f )

  00288	f3 0f 10 97 9c
	07 00 00	 movss	 xmm2, DWORD PTR [edi+1948]
  00290	0f 2f d1	 comiss	 xmm2, xmm1
  00293	76 12		 jbe	 SHORT $LN13@GetAttackD
  00295	66 0f 6e c6	 movd	 xmm0, esi

; 4294 : 			{
; 4295 : 				damagemin += lpObj->m_MPSkillOpt.MpsMinWizCurseInc;

  00299	0f 5b c0	 cvtdq2ps xmm0, xmm0
  0029c	f3 0f 58 c2	 addss	 xmm0, xmm2
  002a0	f3 0f 2c f0	 cvttss2si esi, xmm0
  002a4	89 75 18	 mov	 DWORD PTR _damagemin$1$[ebp], esi
$LN13@GetAttackD:

; 4296 : 			}
; 4297 : 
; 4298 : 			if( lpObj->m_MPSkillOpt.MpsWingAttackIncrease > 0.0f )

  002a7	f3 0f 10 97 4c
	08 00 00	 movss	 xmm2, DWORD PTR [edi+2124]
  002af	0f 2f d1	 comiss	 xmm2, xmm1
  002b2	76 21		 jbe	 SHORT $LN14@GetAttackD
  002b4	66 0f 6e c6	 movd	 xmm0, esi

; 4299 : 			{
; 4300 : 				damagemin += lpObj->m_MPSkillOpt.MpsWingAttackIncrease;

  002b8	0f 5b c0	 cvtdq2ps xmm0, xmm0
  002bb	f3 0f 58 c2	 addss	 xmm0, xmm2
  002bf	f3 0f 2c c0	 cvttss2si eax, xmm0
  002c3	89 45 18	 mov	 DWORD PTR _damagemin$1$[ebp], eax
  002c6	66 0f 6e c3	 movd	 xmm0, ebx

; 4301 : 				damagemax += lpObj->m_MPSkillOpt.MpsWingAttackIncrease;

  002ca	0f 5b c0	 cvtdq2ps xmm0, xmm0
  002cd	f3 0f 58 c2	 addss	 xmm0, xmm2
  002d1	f3 0f 2c d8	 cvttss2si ebx, xmm0
$LN14@GetAttackD:

; 4302 : 			}
; 4303 : 
; 4304 : 			CItem* Right = &lpObj->pInventory[1];

  002d5	8b b7 c0 11 00
	00		 mov	 esi, DWORD PTR [edi+4544]
  002db	81 c6 d4 00 00
	00		 add	 esi, 212		; 000000d4H
  002e1	89 75 d0	 mov	 DWORD PTR _Right$1$[ebp], esi

; 4305 : 	
; 4306 : 			int CurseDamage;
; 4307 : 	
; 4308 : 			if( Right->IsItem() )

  002e4	8b ce		 mov	 ecx, esi
  002e6	e8 00 00 00 00	 call	 ?IsItem@CItem@@QAEHXZ	; CItem::IsItem
  002eb	85 c0		 test	 eax, eax
  002ed	74 79		 je	 SHORT $LN53@GetAttackD

; 4309 : 			{
; 4310 : 				if( ( Right->m_Type >= ITEMGET(5,0) && Right->m_Type < ITEMGET(6,0) )
; 4311 : 					&& Right->m_IsValidItem )

  002ef	0f b7 46 06	 movzx	 eax, WORD PTR [esi+6]
  002f3	b9 00 0a 00 00	 mov	 ecx, 2560		; 00000a00H
  002f8	66 3b c1	 cmp	 ax, cx
  002fb	7c 6b		 jl	 SHORT $LN53@GetAttackD
  002fd	b9 00 0c 00 00	 mov	 ecx, 3072		; 00000c00H
  00302	66 3b c1	 cmp	 ax, cx
  00305	7d 61		 jge	 SHORT $LN53@GetAttackD
  00307	80 be ac 00 00
	00 00		 cmp	 BYTE PTR [esi+172], 0
  0030e	74 58		 je	 SHORT $LN53@GetAttackD

; 4312 : 				{
; 4313 : 					CurseDamage = Right->m_CurseMagic / 2 + Right->m_Level * 2;

  00310	0f b7 4e 22	 movzx	 ecx, WORD PTR [esi+34]
  00314	d1 e9		 shr	 ecx, 1
  00316	0f bf 46 08	 movsx	 eax, WORD PTR [esi+8]
  0031a	8d 34 41	 lea	 esi, DWORD PTR [ecx+eax*2]
  0031d	66 0f 6e c6	 movd	 xmm0, esi

; 4314 : 					CurseDamage -= (WORD)(Right->m_CurrentDurabilityState * CurseDamage);	// #formula

  00321	0f 5b c0	 cvtdq2ps xmm0, xmm0
  00324	8b 45 d0	 mov	 eax, DWORD PTR _Right$1$[ebp]
  00327	f3 0f 59 80 a4
	00 00 00	 mulss	 xmm0, DWORD PTR [eax+164]
  0032f	f3 0f 2c c0	 cvttss2si eax, xmm0
  00333	0f b7 c0	 movzx	 eax, ax
  00336	2b f0		 sub	 esi, eax

; 4315 : 	
; 4316 : 					damagemin += damagemin * CurseDamage / 100;

  00338	8b ce		 mov	 ecx, esi
  0033a	0f af 4d 18	 imul	 ecx, DWORD PTR _damagemin$1$[ebp]
  0033e	b8 1f 85 eb 51	 mov	 eax, 1374389535		; 51eb851fH
  00343	f7 e9		 imul	 ecx
  00345	c1 fa 05	 sar	 edx, 5
  00348	8b c2		 mov	 eax, edx
  0034a	c1 e8 1f	 shr	 eax, 31			; 0000001fH
  0034d	03 c2		 add	 eax, edx
  0034f	01 45 18	 add	 DWORD PTR _damagemin$1$[ebp], eax

; 4317 : 					damagemax += damagemax * CurseDamage / 100;

  00352	0f af f3	 imul	 esi, ebx
  00355	b8 1f 85 eb 51	 mov	 eax, 1374389535		; 51eb851fH
  0035a	f7 ee		 imul	 esi
  0035c	c1 fa 05	 sar	 edx, 5
  0035f	8b c2		 mov	 eax, edx
  00361	c1 e8 1f	 shr	 eax, 31			; 0000001fH
  00364	03 c2		 add	 eax, edx
  00366	03 d8		 add	 ebx, eax
$LN53@GetAttackD:

; 4318 : 				}
; 4319 : 			}
; 4320 : 
; 4321 : 			ad += gObjGetTotalValueOfEffect(lpObj,0x1B);

  00368	6a 1b		 push	 27			; 0000001bH

; 4322 : 		}
; 4323 : 		break;

  0036a	e9 a6 02 00 00	 jmp	 $LN60@GetAttackD
$LN17@GetAttackD:

; 4324 : 	default:
; 4325 : 		{
; 4326 : 			if( gObjCheckUsedBuffEffect(lpObj,BUFF_BERSERKER) == TRUE )

  0036f	6a 51		 push	 81			; 00000051H
  00371	8b 7d 08	 mov	 edi, DWORD PTR _lpObj$[ebp]
  00374	57		 push	 edi
  00375	e8 00 00 00 00	 call	 ?gObjCheckUsedBuffEffect@@YA_NPAUOBJECTSTRUCT@@H@Z ; gObjCheckUsedBuffEffect
  0037a	83 c4 08	 add	 esp, 8
  0037d	3c 01		 cmp	 al, 1
  0037f	75 6d		 jne	 SHORT $LN54@GetAttackD

; 4327 : 			{
; 4328 : 				float adddmgperc = (float)gObjGetTotalValueOfEffect(lpObj,31);

  00381	6a 1f		 push	 31			; 0000001fH
  00383	57		 push	 edi
  00384	e8 00 00 00 00	 call	 ?gObjGetTotalValueOfEffect@@YAHPAUOBJECTSTRUCT@@H@Z ; gObjGetTotalValueOfEffect
  00389	83 c4 08	 add	 esp, 8
  0038c	66 0f 6e c0	 movd	 xmm0, eax
  00390	0f 5b c0	 cvtdq2ps xmm0, xmm0

; 4329 : 
; 4330 : 				fMagicDamageMin = ((lpObj->Energy + lpObj->AddEnergy)/9) * adddmgperc / 100 ;

  00393	0f b7 b7 02 01
	00 00		 movzx	 esi, WORD PTR [edi+258]
  0039a	0f b7 87 d6 00
	00 00		 movzx	 eax, WORD PTR [edi+214]
  003a1	03 f0		 add	 esi, eax
  003a3	b8 39 8e e3 38	 mov	 eax, 954437177		; 38e38e39H
  003a8	f7 ee		 imul	 esi
  003aa	d1 fa		 sar	 edx, 1
  003ac	8b ca		 mov	 ecx, edx
  003ae	c1 e9 1f	 shr	 ecx, 31			; 0000001fH
  003b1	03 ca		 add	 ecx, edx
  003b3	66 0f 6e c9	 movd	 xmm1, ecx
  003b7	0f 5b c9	 cvtdq2ps xmm1, xmm1
  003ba	f3 0f 59 c8	 mulss	 xmm1, xmm0
  003be	f3 0f 5e 0d 00
	00 00 00	 divss	 xmm1, DWORD PTR __real@42c80000
  003c6	f3 0f 11 4d d4	 movss	 DWORD PTR _fMagicDamageMin$1$[ebp], xmm1

; 4331 : 				fMagicDamageMax = ((lpObj->Energy + lpObj->AddEnergy)/4) * adddmgperc / 100 ;

  003cb	8b c6		 mov	 eax, esi
  003cd	99		 cdq
  003ce	83 e2 03	 and	 edx, 3
  003d1	03 c2		 add	 eax, edx
  003d3	c1 f8 02	 sar	 eax, 2
  003d6	66 0f 6e c8	 movd	 xmm1, eax
  003da	0f 5b c9	 cvtdq2ps xmm1, xmm1
  003dd	f3 0f 59 c8	 mulss	 xmm1, xmm0
  003e1	f3 0f 5e 0d 00
	00 00 00	 divss	 xmm1, DWORD PTR __real@42c80000
  003e9	f3 0f 11 4d d0	 movss	 DWORD PTR _fMagicDamageMax$1$[ebp], xmm1
$LN54@GetAttackD:

; 4332 : 			}
; 4333 : 
; 4334 : 			if( gObjCheckUsedBuffEffect(lpObj,BUFF_BERSERKER2) == TRUE ||
; 4335 : 				gObjCheckUsedBuffEffect(lpObj,BUFF_BERSERKER3) == TRUE ||

  003ee	68 96 00 00 00	 push	 150			; 00000096H
  003f3	57		 push	 edi
  003f4	e8 00 00 00 00	 call	 ?gObjCheckUsedBuffEffect@@YA_NPAUOBJECTSTRUCT@@H@Z ; gObjCheckUsedBuffEffect
  003f9	83 c4 08	 add	 esp, 8
  003fc	3c 01		 cmp	 al, 1
  003fe	74 24		 je	 SHORT $LN20@GetAttackD
  00400	68 97 00 00 00	 push	 151			; 00000097H
  00405	57		 push	 edi
  00406	e8 00 00 00 00	 call	 ?gObjCheckUsedBuffEffect@@YA_NPAUOBJECTSTRUCT@@H@Z ; gObjCheckUsedBuffEffect
  0040b	83 c4 08	 add	 esp, 8
  0040e	3c 01		 cmp	 al, 1
  00410	74 12		 je	 SHORT $LN20@GetAttackD
  00412	68 98 00 00 00	 push	 152			; 00000098H
  00417	57		 push	 edi
  00418	e8 00 00 00 00	 call	 ?gObjCheckUsedBuffEffect@@YA_NPAUOBJECTSTRUCT@@H@Z ; gObjCheckUsedBuffEffect
  0041d	83 c4 08	 add	 esp, 8
  00420	3c 01		 cmp	 al, 1
  00422	75 79		 jne	 SHORT $LN58@GetAttackD
$LN20@GetAttackD:

; 4336 : 				gObjCheckUsedBuffEffect(lpObj,BUFF_BERSERKER4) == TRUE )
; 4337 : 			{
; 4338 : 				float adddmgperc = (float)gObjGetTotalValueOfEffect(lpObj,31);

  00424	6a 1f		 push	 31			; 0000001fH
  00426	57		 push	 edi
  00427	e8 00 00 00 00	 call	 ?gObjGetTotalValueOfEffect@@YAHPAUOBJECTSTRUCT@@H@Z ; gObjGetTotalValueOfEffect
  0042c	83 c4 08	 add	 esp, 8
  0042f	66 0f 6e d8	 movd	 xmm3, eax
  00433	0f 5b db	 cvtdq2ps xmm3, xmm3

; 4339 : 
; 4340 : 				if( lpObj->m_MPSkillOpt.MpsBerserkInc2 > 0.0f )

  00436	f3 0f 10 87 94
	07 00 00	 movss	 xmm0, DWORD PTR [edi+1940]
  0043e	0f 57 c9	 xorps	 xmm1, xmm1
  00441	0f 2f c1	 comiss	 xmm0, xmm1
  00444	76 04		 jbe	 SHORT $LN21@GetAttackD

; 4341 : 				{
; 4342 : 					adddmgperc += lpObj->m_MPSkillOpt.MpsBerserkInc2;

  00446	f3 0f 58 d8	 addss	 xmm3, xmm0
$LN21@GetAttackD:

; 4343 : 				}
; 4344 : 
; 4345 : 				fMagicDamageMin = ((lpObj->Energy + lpObj->AddEnergy)/9) * adddmgperc / 100;

  0044a	0f b7 b7 02 01
	00 00		 movzx	 esi, WORD PTR [edi+258]
  00451	0f b7 87 d6 00
	00 00		 movzx	 eax, WORD PTR [edi+214]
  00458	03 f0		 add	 esi, eax
  0045a	b8 39 8e e3 38	 mov	 eax, 954437177		; 38e38e39H
  0045f	f7 ee		 imul	 esi
  00461	d1 fa		 sar	 edx, 1
  00463	8b ca		 mov	 ecx, edx
  00465	c1 e9 1f	 shr	 ecx, 31			; 0000001fH
  00468	03 ca		 add	 ecx, edx
  0046a	66 0f 6e d1	 movd	 xmm2, ecx
  0046e	0f 5b d2	 cvtdq2ps xmm2, xmm2
  00471	f3 0f 59 d3	 mulss	 xmm2, xmm3
  00475	f3 0f 5e 15 00
	00 00 00	 divss	 xmm2, DWORD PTR __real@42c80000

; 4346 : 				fMagicDamageMax = ((lpObj->Energy + lpObj->AddEnergy)/4) * adddmgperc / 100;

  0047d	8b c6		 mov	 eax, esi
  0047f	99		 cdq
  00480	83 e2 03	 and	 edx, 3
  00483	03 c2		 add	 eax, edx
  00485	c1 f8 02	 sar	 eax, 2
  00488	66 0f 6e e0	 movd	 xmm4, eax
  0048c	0f 5b e4	 cvtdq2ps xmm4, xmm4
  0048f	f3 0f 59 e3	 mulss	 xmm4, xmm3
  00493	f3 0f 5e 25 00
	00 00 00	 divss	 xmm4, DWORD PTR __real@42c80000
  0049b	eb 0d		 jmp	 SHORT $LN19@GetAttackD
$LN58@GetAttackD:
  0049d	0f 57 c9	 xorps	 xmm1, xmm1
  004a0	f3 0f 10 55 d4	 movss	 xmm2, DWORD PTR _fMagicDamageMin$1$[ebp]
  004a5	f3 0f 10 65 d0	 movss	 xmm4, DWORD PTR _fMagicDamageMax$1$[ebp]
$LN19@GetAttackD:

; 4347 : 			}
; 4348 : 
; 4349 : 			if( lpObj->m_MPSkillOpt.MpsMagicMastery2 > 0.0f )

  004aa	f3 0f 10 9f 64
	07 00 00	 movss	 xmm3, DWORD PTR [edi+1892]
  004b2	0f 2f d9	 comiss	 xmm3, xmm1
  004b5	76 0b		 jbe	 SHORT $LN22@GetAttackD

; 4350 : 			{
; 4351 : 				fMagicDamageMin += lpObj->m_MPSkillOpt.MpsMagicMastery2;

  004b7	0f 28 c3	 movaps	 xmm0, xmm3
  004ba	f3 0f 58 d0	 addss	 xmm2, xmm0

; 4352 : 				fMagicDamageMax += lpObj->m_MPSkillOpt.MpsMagicMastery2;

  004be	f3 0f 58 e3	 addss	 xmm4, xmm3
$LN22@GetAttackD:

; 4353 : 			}
; 4354 : 
; 4355 : 			if( lpObj->m_MPSkillOpt.MpsMinWizCurseInc > 0.0f )

  004c2	f3 0f 10 87 9c
	07 00 00	 movss	 xmm0, DWORD PTR [edi+1948]
  004ca	0f 2f c1	 comiss	 xmm0, xmm1
  004cd	76 04		 jbe	 SHORT $LN23@GetAttackD

; 4356 : 			{
; 4357 : 				fMagicDamageMin += lpObj->m_MPSkillOpt.MpsMinWizCurseInc;

  004cf	f3 0f 58 d0	 addss	 xmm2, xmm0
$LN23@GetAttackD:

; 4358 : 			}
; 4359 : 
; 4360 : 			damagemin = (int)(lpMagic->m_DamageMin + lpObj->m_MagicDamageMin + fMagicDamageMin);

  004d3	8b 87 48 06 00
	00		 mov	 eax, DWORD PTR [edi+1608]
  004d9	03 43 0c	 add	 eax, DWORD PTR [ebx+12]
  004dc	66 0f 6e c0	 movd	 xmm0, eax
  004e0	0f 5b c0	 cvtdq2ps xmm0, xmm0
  004e3	f3 0f 58 c2	 addss	 xmm0, xmm2
  004e7	f3 0f 2c f0	 cvttss2si esi, xmm0
  004eb	89 75 18	 mov	 DWORD PTR _damagemin$1$[ebp], esi

; 4361 : 			damagemax = (int)(lpMagic->m_DamageMax + lpObj->m_MagicDamageMax + fMagicDamageMax);

  004ee	8b 87 4c 06 00
	00		 mov	 eax, DWORD PTR [edi+1612]
  004f4	03 43 10	 add	 eax, DWORD PTR [ebx+16]
  004f7	66 0f 6e c0	 movd	 xmm0, eax
  004fb	0f 5b c0	 cvtdq2ps xmm0, xmm0
  004fe	f3 0f 58 c4	 addss	 xmm0, xmm4
  00502	f3 0f 2c d8	 cvttss2si ebx, xmm0

; 4362 : 
; 4363 : 			if( g_MasterSkillSystem.CheckMasterLevelSkill(lpMagic->m_Skill) )

  00506	8b 45 10	 mov	 eax, DWORD PTR _lpMagic$[ebp]
  00509	ff 70 08	 push	 DWORD PTR [eax+8]
  0050c	b9 00 00 00 00	 mov	 ecx, OFFSET ?g_MasterSkillSystem@@3VCMasterLevelSkillTreeSystem@@A ; g_MasterSkillSystem
  00511	e8 00 00 00 00	 call	 ?CheckMasterLevelSkill@CMasterLevelSkillTreeSystem@@QAEHH@Z ; CMasterLevelSkillTreeSystem::CheckMasterLevelSkill
  00516	85 c0		 test	 eax, eax
  00518	74 3a		 je	 SHORT $LN24@GetAttackD

; 4364 : 			{
; 4365 : 				float fDamage = g_MasterSkillSystem.GetSkillAttackDamage(lpObj,lpMagic->m_Skill);

  0051a	8b 45 10	 mov	 eax, DWORD PTR _lpMagic$[ebp]
  0051d	ff 70 08	 push	 DWORD PTR [eax+8]
  00520	57		 push	 edi
  00521	b9 00 00 00 00	 mov	 ecx, OFFSET ?g_MasterSkillSystem@@3VCMasterLevelSkillTreeSystem@@A ; g_MasterSkillSystem
  00526	e8 00 00 00 00	 call	 ?GetSkillAttackDamage@CMasterLevelSkillTreeSystem@@QAEMPAUOBJECTSTRUCT@@H@Z ; CMasterLevelSkillTreeSystem::GetSkillAttackDamage
  0052b	d9 5d 18	 fstp	 DWORD PTR _fDamage$3[ebp]
  0052e	66 0f 6e c6	 movd	 xmm0, esi

; 4366 : 
; 4367 : 				damagemin += fDamage;

  00532	0f 5b c0	 cvtdq2ps xmm0, xmm0
  00535	f3 0f 10 4d 18	 movss	 xmm1, DWORD PTR _fDamage$3[ebp]
  0053a	f3 0f 58 c1	 addss	 xmm0, xmm1
  0053e	f3 0f 2c f0	 cvttss2si esi, xmm0
  00542	89 75 18	 mov	 DWORD PTR _damagemin$1$[ebp], esi
  00545	66 0f 6e c3	 movd	 xmm0, ebx

; 4368 : 				damagemax += fDamage;

  00549	0f 5b c0	 cvtdq2ps xmm0, xmm0
  0054c	f3 0f 58 c1	 addss	 xmm0, xmm1
  00550	f3 0f 2c d8	 cvttss2si ebx, xmm0
$LN24@GetAttackD:

; 4369 : 			}
; 4370 : 
; 4371 : 			if( lpObj->m_MPSkillOpt.MpsWingAttackIncrease > 0.0f )

  00554	f3 0f 10 8f 4c
	08 00 00	 movss	 xmm1, DWORD PTR [edi+2124]
  0055c	0f 2f 0d 00 00
	00 00		 comiss	 xmm1, DWORD PTR __real@00000000
  00563	76 21		 jbe	 SHORT $LN25@GetAttackD
  00565	66 0f 6e c6	 movd	 xmm0, esi

; 4372 : 			{
; 4373 : 				damagemin += lpObj->m_MPSkillOpt.MpsWingAttackIncrease;

  00569	0f 5b c0	 cvtdq2ps xmm0, xmm0
  0056c	f3 0f 58 c1	 addss	 xmm0, xmm1
  00570	f3 0f 2c c0	 cvttss2si eax, xmm0
  00574	89 45 18	 mov	 DWORD PTR _damagemin$1$[ebp], eax
  00577	66 0f 6e c3	 movd	 xmm0, ebx

; 4374 : 				damagemax += lpObj->m_MPSkillOpt.MpsWingAttackIncrease;

  0057b	0f 5b c0	 cvtdq2ps xmm0, xmm0
  0057e	f3 0f 58 c1	 addss	 xmm0, xmm1
  00582	f3 0f 2c d8	 cvttss2si ebx, xmm0
$LN25@GetAttackD:

; 4375 : 			}
; 4376 : 	
; 4377 : 			CItem* Left = &lpObj->pInventory[0];

  00586	8b b7 c0 11 00
	00		 mov	 esi, DWORD PTR [edi+4544]
  0058c	89 75 d0	 mov	 DWORD PTR _Left$1$[ebp], esi

; 4378 : 
; 4379 : 			int Damage;
; 4380 : 	
; 4381 : 			if( Left->IsItem() )

  0058f	8b ce		 mov	 ecx, esi
  00591	e8 00 00 00 00	 call	 ?IsItem@CItem@@QAEHXZ	; CItem::IsItem
  00596	85 c0		 test	 eax, eax
  00598	74 79		 je	 SHORT $LN55@GetAttackD

; 4382 : 			{
; 4383 : 				if( ( Left->m_Type >= ITEMGET(5,0) && Left->m_Type < ITEMGET(6,0) )
; 4384 : 					&& Left->m_IsValidItem )

  0059a	0f b7 46 06	 movzx	 eax, WORD PTR [esi+6]
  0059e	b9 00 0a 00 00	 mov	 ecx, 2560		; 00000a00H
  005a3	66 3b c1	 cmp	 ax, cx
  005a6	7c 6b		 jl	 SHORT $LN55@GetAttackD
  005a8	b9 00 0c 00 00	 mov	 ecx, 3072		; 00000c00H
  005ad	66 3b c1	 cmp	 ax, cx
  005b0	7d 61		 jge	 SHORT $LN55@GetAttackD
  005b2	80 be ac 00 00
	00 00		 cmp	 BYTE PTR [esi+172], 0
  005b9	74 58		 je	 SHORT $LN55@GetAttackD

; 4385 : 				{
; 4386 : 					Damage = Left->m_Magic / 2 + Left->m_Level * 2;

  005bb	0f b7 4e 20	 movzx	 ecx, WORD PTR [esi+32]
  005bf	d1 e9		 shr	 ecx, 1
  005c1	0f bf 46 08	 movsx	 eax, WORD PTR [esi+8]
  005c5	8d 34 41	 lea	 esi, DWORD PTR [ecx+eax*2]
  005c8	66 0f 6e c6	 movd	 xmm0, esi

; 4387 : 					Damage -= (WORD)(Left->m_CurrentDurabilityState * Damage);	// #formula

  005cc	0f 5b c0	 cvtdq2ps xmm0, xmm0
  005cf	8b 45 d0	 mov	 eax, DWORD PTR _Left$1$[ebp]
  005d2	f3 0f 59 80 a4
	00 00 00	 mulss	 xmm0, DWORD PTR [eax+164]
  005da	f3 0f 2c c0	 cvttss2si eax, xmm0
  005de	0f b7 c0	 movzx	 eax, ax
  005e1	2b f0		 sub	 esi, eax

; 4388 : 	
; 4389 : 					damagemin += damagemin * Damage / 100;

  005e3	8b ce		 mov	 ecx, esi
  005e5	0f af 4d 18	 imul	 ecx, DWORD PTR _damagemin$1$[ebp]
  005e9	b8 1f 85 eb 51	 mov	 eax, 1374389535		; 51eb851fH
  005ee	f7 e9		 imul	 ecx
  005f0	c1 fa 05	 sar	 edx, 5
  005f3	8b c2		 mov	 eax, edx
  005f5	c1 e8 1f	 shr	 eax, 31			; 0000001fH
  005f8	03 c2		 add	 eax, edx
  005fa	01 45 18	 add	 DWORD PTR _damagemin$1$[ebp], eax

; 4390 : 					damagemax += damagemax * Damage / 100;

  005fd	0f af f3	 imul	 esi, ebx
  00600	b8 1f 85 eb 51	 mov	 eax, 1374389535		; 51eb851fH
  00605	f7 ee		 imul	 esi
  00607	c1 fa 05	 sar	 edx, 5
  0060a	8b c2		 mov	 eax, edx
  0060c	c1 e8 1f	 shr	 eax, 31			; 0000001fH
  0060f	03 c2		 add	 eax, edx
  00611	03 d8		 add	 ebx, eax
$LN55@GetAttackD:

; 4391 : 				}
; 4392 : 			}
; 4393 : 
; 4394 : 			ad += gObjGetTotalValueOfEffect(lpObj,15);

  00613	6a 0f		 push	 15			; 0000000fH
$LN60@GetAttackD:
  00615	57		 push	 edi
  00616	e8 00 00 00 00	 call	 ?gObjGetTotalValueOfEffect@@YAHPAUOBJECTSTRUCT@@H@Z ; gObjGetTotalValueOfEffect
  0061b	89 45 d0	 mov	 DWORD PTR _ad$[ebp], eax
  0061e	83 c4 08	 add	 esp, 8

; 4395 : 		}
; 4396 : 		break;
; 4397 : 	}
; 4398 : 
; 4399 : 	damagemin += lpObj->SetOpAddSkillAttack;

  00621	0f bf 87 b2 14
	00 00		 movsx	 eax, WORD PTR [edi+5298]
  00628	8b 75 18	 mov	 esi, DWORD PTR _damagemin$1$[ebp]
  0062b	03 f0		 add	 esi, eax

; 4400 : 	damagemax += lpObj->SetOpAddSkillAttack;

  0062d	03 d8		 add	 ebx, eax

; 4401 : 
; 4402 : 	int SkillAttr = MagicDamageC.GetSkillAttr(lpMagic->m_Skill);

  0062f	8b 45 10	 mov	 eax, DWORD PTR _lpMagic$[ebp]
  00632	ff 70 08	 push	 DWORD PTR [eax+8]
  00635	b9 00 00 00 00	 mov	 ecx, OFFSET ?MagicDamageC@@3VCMagicDamage@@A ; MagicDamageC
  0063a	e8 00 00 00 00	 call	 ?GetSkillAttr@CMagicDamage@@QAEHH@Z ; CMagicDamage::GetSkillAttr

; 4403 : 
; 4404 : 	if ( SkillAttr != -1 )

  0063f	83 f8 ff	 cmp	 eax, -1
  00642	74 40		 je	 SHORT $LN30@GetAttackD

; 4405 : 	{
; 4406 : 		if( (lpObj->Authority & 32) == 32 &&

  00644	f6 87 bc 01 00
	00 20		 test	 BYTE PTR [edi+444], 32	; 00000020H
  0064b	74 2b		 je	 SHORT $LN29@GetAttackD
  0064d	8b 8f c0 11 00
	00		 mov	 ecx, DWORD PTR [edi+4544]
  00653	ba 2a 1a 00 00	 mov	 edx, 6698		; 00001a2aH
  00658	66 39 91 4e 08
	00 00		 cmp	 WORD PTR [ecx+2126], dx
  0065f	74 09		 je	 SHORT $LN31@GetAttackD
  00661	66 39 91 22 09
	00 00		 cmp	 WORD PTR [ecx+2338], dx
  00668	75 0e		 jne	 SHORT $LN29@GetAttackD
$LN31@GetAttackD:

; 4407 : 			(lpObj->pInventory[10].m_Type == ITEMGET(13,42) ||
; 4408 : 			lpObj->pInventory[11].m_Type == ITEMGET(13,42) ) )
; 4409 : 		{
; 4410 : 			damagemin += 0xFF;

  0066a	81 c6 ff 00 00
	00		 add	 esi, 255		; 000000ffH

; 4411 : 			damagemax += 0xFF;

  00670	81 c3 ff 00 00
	00		 add	 ebx, 255		; 000000ffH

; 4412 : 		}
; 4413 : 		else

  00676	eb 0c		 jmp	 SHORT $LN30@GetAttackD
$LN29@GetAttackD:

; 4414 : 		{
; 4415 : 			damagemin += (BYTE)lpObj->m_AddResistance[SkillAttr];

  00678	0f b6 84 38 9d
	08 00 00	 movzx	 eax, BYTE PTR [eax+edi+2205]
  00680	03 f0		 add	 esi, eax

; 4416 : 			damagemax += (BYTE)lpObj->m_AddResistance[SkillAttr];

  00682	03 d8		 add	 ebx, eax
$LN30@GetAttackD:

; 4417 : 		}
; 4418 : 	}
; 4419 : 
; 4420 : 
; 4421 : 	damagemin += lpObj->m_JewelOfHarmonyEffect.HJOpAddSkillAttack;

  00684	0f bf 87 38 24
	00 00		 movsx	 eax, WORD PTR [edi+9272]
  0068b	03 f0		 add	 esi, eax
  0068d	89 75 18	 mov	 DWORD PTR _damagemin$1$[ebp], esi

; 4422 : 	damagemax += lpObj->m_JewelOfHarmonyEffect.HJOpAddSkillAttack;

  00690	03 d8		 add	 ebx, eax

; 4423 : 
; 4424 : #if (ENABLETEST_MUUN == 1) 
; 4425 : 		int nMuunItemEffectValue = 0;
; 4426 : 		if (g_CMuunSystem.GetMuunItemValueOfOptType(lpObj, 5, &nMuunItemEffectValue, 0)) {
; 4427 : 			damagemin += nMuunItemEffectValue;
; 4428 : 			damagemax += nMuunItemEffectValue;
; 4429 : 		}
; 4430 : #endif
; 4431 : 
; 4432 : 	int subd = damagemax - damagemin;

  00692	8b c3		 mov	 eax, ebx
  00694	2b c6		 sub	 eax, esi
  00696	89 45 d8	 mov	 DWORD PTR _subd$[ebp], eax

; 4433 : 
; 4434 : 	__try

  00699	9b		 fwait
  0069a	c7 45 fc 00 00
	00 00		 mov	 DWORD PTR __$SEHRec$[ebp+20], 0

; 4437 : 		{
; 4438 : 			skilldamage = ( damagemin + (rand()%(subd+1)) ) * 60 / 100 - targetDefense;	// #formula

  006a1	e8 00 00 00 00	 call	 _rand
  006a6	8b 4d d8	 mov	 ecx, DWORD PTR _subd$[ebp]
  006a9	99		 cdq
  006aa	41		 inc	 ecx
  006ab	f7 f9		 idiv	 ecx

; 4435 : 	{
; 4436 : 		if ( bIsOnDuel )

  006ad	83 7d e0 00	 cmp	 DWORD PTR _bIsOnDuel$1$[ebp], 0
  006b1	74 22		 je	 SHORT $LN33@GetAttackD

; 4437 : 		{
; 4438 : 			skilldamage = ( damagemin + (rand()%(subd+1)) ) * 60 / 100 - targetDefense;	// #formula

  006b3	03 d6		 add	 edx, esi
  006b5	8b ca		 mov	 ecx, edx
  006b7	c1 e1 04	 shl	 ecx, 4
  006ba	2b ca		 sub	 ecx, edx
  006bc	c1 e1 02	 shl	 ecx, 2
  006bf	b8 1f 85 eb 51	 mov	 eax, 1374389535		; 51eb851fH
  006c4	f7 e9		 imul	 ecx
  006c6	c1 fa 05	 sar	 edx, 5
  006c9	8b f2		 mov	 esi, edx
  006cb	c1 ee 1f	 shr	 esi, 31			; 0000001fH
  006ce	03 f2		 add	 esi, edx
  006d0	2b 75 0c	 sub	 esi, DWORD PTR _targetDefense$[ebp]

; 4439 : 		}
; 4440 : 		else

  006d3	eb 08		 jmp	 SHORT $LN61@GetAttackD
$LN33@GetAttackD:

; 4441 : 		{
; 4442 : 			skilldamage = ( damagemin + (rand()%(subd+1)) ) - targetDefense;

  006d5	8b f2		 mov	 esi, edx
  006d7	2b 75 0c	 sub	 esi, DWORD PTR _targetDefense$[ebp]
  006da	03 75 18	 add	 esi, DWORD PTR _damagemin$1$[ebp]
$LN61@GetAttackD:
  006dd	89 75 e4	 mov	 DWORD PTR _skilldamage$[ebp], esi

; 4443 : 		}
; 4444 : 
; 4445 : 		if ( lpObj->m_CriticalDamage > 0 )

  006e0	83 bf 9c 06 00
	00 00		 cmp	 DWORD PTR [edi+1692], 0
  006e7	0f 8e b1 00 00
	00		 jle	 $LN57@GetAttackD

; 4446 : 		{
; 4447 : 			if ( (rand()%100) < lpObj->m_CriticalDamage )

  006ed	e8 00 00 00 00	 call	 _rand
  006f2	99		 cdq
  006f3	b9 64 00 00 00	 mov	 ecx, 100		; 00000064H
  006f8	f7 f9		 idiv	 ecx
  006fa	3b 97 9c 06 00
	00		 cmp	 edx, DWORD PTR [edi+1692]
  00700	0f 8d 98 00 00
	00		 jge	 $LN57@GetAttackD

; 4448 : 			{
; 4449 : 				if ( bIsOnDuel )

  00706	83 7d e0 00	 cmp	 DWORD PTR _bIsOnDuel$1$[ebp], 0
  0070a	74 1d		 je	 SHORT $LN37@GetAttackD

; 4450 : 				{
; 4451 : 					skilldamage = damagemax * 60 / 100 - targetDefense;

  0070c	8b cb		 mov	 ecx, ebx
  0070e	c1 e1 04	 shl	 ecx, 4
  00711	2b cb		 sub	 ecx, ebx
  00713	c1 e1 02	 shl	 ecx, 2
  00716	b8 1f 85 eb 51	 mov	 eax, 1374389535		; 51eb851fH
  0071b	f7 e9		 imul	 ecx
  0071d	c1 fa 05	 sar	 edx, 5
  00720	8b f2		 mov	 esi, edx
  00722	c1 ee 1f	 shr	 esi, 31			; 0000001fH
  00725	03 f2		 add	 esi, edx

; 4452 : 				}
; 4453 : 				else

  00727	eb 02		 jmp	 SHORT $LN62@GetAttackD
$LN37@GetAttackD:

; 4454 : 				{
; 4455 : 					skilldamage = damagemax - targetDefense;

  00729	8b f3		 mov	 esi, ebx
$LN62@GetAttackD:
  0072b	2b 75 0c	 sub	 esi, DWORD PTR _targetDefense$[ebp]
  0072e	89 75 e4	 mov	 DWORD PTR _skilldamage$[ebp], esi

; 4456 : 				}
; 4457 : 
; 4458 : 				skilldamage += lpObj->SetOpAddCriticalDamage;

  00731	0f bf 87 b8 14
	00 00		 movsx	 eax, WORD PTR [edi+5304]
  00738	03 f0		 add	 esi, eax
  0073a	89 75 e4	 mov	 DWORD PTR _skilldamage$[ebp], esi

; 4459 : 				skilldamage += lpObj->m_JewelOfHarmonyEffect.HJOpAddCriticalDamage;

  0073d	0f bf 87 36 24
	00 00		 movsx	 eax, WORD PTR [edi+9270]
  00744	03 f0		 add	 esi, eax
  00746	89 75 e4	 mov	 DWORD PTR _skilldamage$[ebp], esi

; 4460 : 
; 4461 : 				int AddCriticalDmg = 0;

  00749	c7 45 10 00 00
	00 00		 mov	 DWORD PTR _AddCriticalDmg$2[ebp], 0

; 4462 : 				gObjGetValueOfBuffIndex(lpObj,BUFF_ADD_CRITDMG,&AddCriticalDmg,0);

  00750	6a 00		 push	 0
  00752	8d 45 10	 lea	 eax, DWORD PTR _AddCriticalDmg$2[ebp]
  00755	50		 push	 eax
  00756	6a 05		 push	 5
  00758	57		 push	 edi
  00759	e8 00 00 00 00	 call	 ?gObjGetValueOfBuffIndex@@YA_NPAUOBJECTSTRUCT@@HPAH1@Z ; gObjGetValueOfBuffIndex

; 4463 : 				skilldamage += AddCriticalDmg;

  0075e	03 75 10	 add	 esi, DWORD PTR _AddCriticalDmg$2[ebp]
  00761	89 75 e4	 mov	 DWORD PTR _skilldamage$[ebp], esi

; 4464 : 				gObjGetValueOfBuffIndex(lpObj,BUFF_ADD_CRITDMG2,&AddCriticalDmg,0);

  00764	6a 00		 push	 0
  00766	8d 45 10	 lea	 eax, DWORD PTR _AddCriticalDmg$2[ebp]
  00769	50		 push	 eax
  0076a	68 94 00 00 00	 push	 148			; 00000094H
  0076f	57		 push	 edi
  00770	e8 00 00 00 00	 call	 ?gObjGetValueOfBuffIndex@@YA_NPAUOBJECTSTRUCT@@HPAH1@Z ; gObjGetValueOfBuffIndex

; 4465 : 				skilldamage += AddCriticalDmg;

  00775	03 75 10	 add	 esi, DWORD PTR _AddCriticalDmg$2[ebp]
  00778	89 75 e4	 mov	 DWORD PTR _skilldamage$[ebp], esi

; 4466 : 				gObjGetValueOfBuffIndex(lpObj,BUFF_ADD_CRITDMG3,&AddCriticalDmg,0);

  0077b	6a 00		 push	 0
  0077d	8d 45 10	 lea	 eax, DWORD PTR _AddCriticalDmg$2[ebp]
  00780	50		 push	 eax
  00781	68 95 00 00 00	 push	 149			; 00000095H
  00786	57		 push	 edi
  00787	e8 00 00 00 00	 call	 ?gObjGetValueOfBuffIndex@@YA_NPAUOBJECTSTRUCT@@HPAH1@Z ; gObjGetValueOfBuffIndex
  0078c	83 c4 30	 add	 esp, 48			; 00000030H

; 4467 : 				skilldamage += AddCriticalDmg;

  0078f	03 75 10	 add	 esi, DWORD PTR _AddCriticalDmg$2[ebp]
  00792	89 75 e4	 mov	 DWORD PTR _skilldamage$[ebp], esi

; 4468 : 				effect = 3;

  00795	8b 45 14	 mov	 eax, DWORD PTR _effect$[ebp]
  00798	c7 00 03 00 00
	00		 mov	 DWORD PTR [eax], 3
$LN57@GetAttackD:

; 4469 : 
; 4470 : #if (CUSTOM_EXOPT==1)
; 4471 : 				if( lpObj->m_CriticalDamageMul > 0 )
; 4472 : 				{
; 4473 : 					ad += ad * lpObj->m_CriticalDamageMul / 100;
; 4474 : 				}
; 4475 : #endif
; 4476 : 			}
; 4477 : 		}
; 4478 : 
; 4479 : 		if ( lpObj->m_ExcelentDamage > 0 )

  0079e	83 bf a0 06 00
	00 00		 cmp	 DWORD PTR [edi+1696], 0
  007a5	7e 71		 jle	 SHORT $LN40@GetAttackD

; 4480 : 		{
; 4481 : 			if ( (rand()%100) < lpObj->m_ExcelentDamage )

  007a7	e8 00 00 00 00	 call	 _rand
  007ac	99		 cdq
  007ad	b9 64 00 00 00	 mov	 ecx, 100		; 00000064H
  007b2	f7 f9		 idiv	 ecx
  007b4	3b 97 a0 06 00
	00		 cmp	 edx, DWORD PTR [edi+1696]
  007ba	7d 5c		 jge	 SHORT $LN40@GetAttackD

; 4482 : 			{
; 4483 : 				if ( bIsOnDuel )

  007bc	83 7d e0 00	 cmp	 DWORD PTR _bIsOnDuel$1$[ebp], 0
  007c0	74 1d		 je	 SHORT $LN41@GetAttackD

; 4484 : 				{
; 4485 : 					skilldamage= damagemax * 60 / 100 - targetDefense;

  007c2	8b cb		 mov	 ecx, ebx
  007c4	c1 e1 04	 shl	 ecx, 4
  007c7	2b cb		 sub	 ecx, ebx
  007c9	c1 e1 02	 shl	 ecx, 2
  007cc	b8 1f 85 eb 51	 mov	 eax, 1374389535		; 51eb851fH
  007d1	f7 e9		 imul	 ecx
  007d3	c1 fa 05	 sar	 edx, 5
  007d6	8b f2		 mov	 esi, edx
  007d8	c1 ee 1f	 shr	 esi, 31			; 0000001fH
  007db	03 f2		 add	 esi, edx

; 4486 : 				}
; 4487 : 				else

  007dd	eb 02		 jmp	 SHORT $LN63@GetAttackD
$LN41@GetAttackD:

; 4488 : 				{
; 4489 : 					skilldamage = damagemax - targetDefense;

  007df	8b f3		 mov	 esi, ebx
$LN63@GetAttackD:
  007e1	2b 75 0c	 sub	 esi, DWORD PTR _targetDefense$[ebp]
  007e4	89 75 e4	 mov	 DWORD PTR _skilldamage$[ebp], esi

; 4490 : 				}
; 4491 : 
; 4492 : 				skilldamage += damagemax * 20 / 100;

  007e7	8d 0c 9b	 lea	 ecx, DWORD PTR [ebx+ebx*4]
  007ea	c1 e1 02	 shl	 ecx, 2
  007ed	b8 1f 85 eb 51	 mov	 eax, 1374389535		; 51eb851fH
  007f2	f7 e9		 imul	 ecx
  007f4	c1 fa 05	 sar	 edx, 5
  007f7	8b c2		 mov	 eax, edx
  007f9	c1 e8 1f	 shr	 eax, 31			; 0000001fH
  007fc	03 c2		 add	 eax, edx
  007fe	03 f0		 add	 esi, eax
  00800	89 75 e4	 mov	 DWORD PTR _skilldamage$[ebp], esi

; 4493 : 				skilldamage += lpObj->SetOpAddExDamage;

  00803	0f bf 87 b4 14
	00 00		 movsx	 eax, WORD PTR [edi+5300]
  0080a	03 f0		 add	 esi, eax
  0080c	89 75 e4	 mov	 DWORD PTR _skilldamage$[ebp], esi

; 4494 : 
; 4495 : 				effect = 2;

  0080f	8b 45 14	 mov	 eax, DWORD PTR _effect$[ebp]
  00812	c7 00 02 00 00
	00		 mov	 DWORD PTR [eax], 2
$LN40@GetAttackD:

; 4496 : 
; 4497 : #if (CUSTOM_EXOPT==1)
; 4498 : 				if( lpObj->m_ExcelentDamageMul > 0 )
; 4499 : 				{
; 4500 : 					ad += ad * lpObj->m_ExcelentDamageMul / 100;
; 4501 : 				}
; 4502 : #endif
; 4503 : 			}
; 4504 : 		}
; 4505 : 	}

  00818	9b		 fwait
  00819	c7 45 fc fe ff
	ff ff		 mov	 DWORD PTR __$SEHRec$[ebp+20], -2 ; fffffffeH
  00820	eb 1d		 jmp	 SHORT $LN50@GetAttackD
$LN47@GetAttackD:
$LN64@GetAttackD:

; 4506 : 	__except( subd=1, 1 )

  00822	c7 45 d8 01 00
	00 00		 mov	 DWORD PTR _subd$[ebp], 1
  00829	b8 01 00 00 00	 mov	 eax, 1
$LN59@GetAttackD:
$LN49@GetAttackD:
  0082e	c3		 ret	 0
$LN48@GetAttackD:
  0082f	8b 65 e8	 mov	 esp, DWORD PTR __$SEHRec$[ebp]

; 4496 : 
; 4497 : #if (CUSTOM_EXOPT==1)
; 4498 : 				if( lpObj->m_ExcelentDamageMul > 0 )
; 4499 : 				{
; 4500 : 					ad += ad * lpObj->m_ExcelentDamageMul / 100;
; 4501 : 				}
; 4502 : #endif
; 4503 : 			}
; 4504 : 		}
; 4505 : 	}

  00832	c7 45 fc fe ff
	ff ff		 mov	 DWORD PTR __$SEHRec$[ebp+20], -2 ; fffffffeH
  00839	8b 7d 08	 mov	 edi, DWORD PTR _lpObj$[ebp]
  0083c	8b 75 e4	 mov	 esi, DWORD PTR _skilldamage$[ebp]
$LN50@GetAttackD:

; 4507 : 	{
; 4508 : 
; 4509 : 	}
; 4510 : 
; 4511 : 	ad += gObjGetTotalValueOfEffect(lpObj,ADD_OPTION_ATTACK_DAMAGE);

  0083f	6a 02		 push	 2
  00841	57		 push	 edi
  00842	e8 00 00 00 00	 call	 ?gObjGetTotalValueOfEffect@@YAHPAUOBJECTSTRUCT@@H@Z ; gObjGetTotalValueOfEffect
  00847	83 c4 08	 add	 esp, 8

; 4512 : 	skilldamage += ad;

  0084a	03 45 d0	 add	 eax, DWORD PTR _ad$[ebp]
  0084d	03 f0		 add	 esi, eax

; 4513 : 
; 4514 : 	if ( lpObj->m_SkillAttack2 )

  0084f	83 bf 04 06 00
	00 00		 cmp	 DWORD PTR [edi+1540], 0
  00856	74 03		 je	 SHORT $LN43@GetAttackD

; 4515 : 	{
; 4516 : #ifdef __NOVUS__
; 4517 : 		skilldamage += 15 + lpObj->Level / 2;
; 4518 : #else
; 4519 : 		skilldamage += 10;

  00858	83 c6 0a	 add	 esi, 10			; 0000000aH
$LN43@GetAttackD:

; 4520 : #endif
; 4521 : 	}
; 4522 : 
; 4523 : 	if( lpObj->m_MPSkillOpt.MpsBerserkInc2 > 0.0f )

  0085b	f3 0f 10 8f 94
	07 00 00	 movss	 xmm1, DWORD PTR [edi+1940]
  00863	0f 2f 0d 00 00
	00 00		 comiss	 xmm1, DWORD PTR __real@00000000
  0086a	76 1b		 jbe	 SHORT $LN44@GetAttackD
  0086c	66 0f 6e c6	 movd	 xmm0, esi

; 4524 : 	{
; 4525 : 		skilldamage += skilldamage*lpObj->m_MPSkillOpt.MpsBerserkInc2/100.0f;

  00870	0f 5b c0	 cvtdq2ps xmm0, xmm0
  00873	f3 0f 59 c8	 mulss	 xmm1, xmm0
  00877	f3 0f 5e 0d 00
	00 00 00	 divss	 xmm1, DWORD PTR __real@42c80000
  0087f	f3 0f 58 c8	 addss	 xmm1, xmm0
  00883	f3 0f 2c f1	 cvttss2si esi, xmm1
$LN44@GetAttackD:

; 4526 : 	}
; 4527 : 	
; 4528 : 	return skilldamage;

  00887	8b c6		 mov	 eax, esi

; 4529 : }

  00889	8b 4d f0	 mov	 ecx, DWORD PTR __$SEHRec$[ebp+8]
  0088c	64 89 0d 00 00
	00 00		 mov	 DWORD PTR fs:0, ecx
  00893	59		 pop	 ecx
  00894	5f		 pop	 edi
  00895	5e		 pop	 esi
  00896	5b		 pop	 ebx
  00897	8b e5		 mov	 esp, ebp
  00899	5d		 pop	 ebp
  0089a	c2 14 00	 ret	 20			; 00000014H
?GetAttackDamageSummoner@CObjAttack@@QAEHPAUOBJECTSTRUCT@@HPAVCMagicInf@@AAHH@Z ENDP ; CObjAttack::GetAttackDamageSummoner
_TEXT	ENDS
; Function compile flags: /Ogtp
; File c:\users\michel\desktop\source\gameserver\source\objattack.cpp
;	COMDAT ?GetAttackDamageWizard@CObjAttack@@QAEHPAUOBJECTSTRUCT@@HPAVCMagicInf@@AAHH@Z
_TEXT	SEGMENT
_lpObj$GSCopy$ = -112					; size = 4
_Staff$1$ = -108					; size = 4
_effect$GSCopy$1$ = -104				; size = 4
_subd$ = -100						; size = 4
_bIsOnDuel$2$ = -96					; size = 4
_nCritical$1$ = -92					; size = 4
_damagemin$1$ = -92					; size = 4
tv583 = -92						; size = 4
_fDamage$2 = -92					; size = 4
_ad$ = -88						; size = 4
_lpMagic$GSCopy$1$ = -84				; size = 4
_damagemax$1$ = -84					; size = 4
_AddCriticalDmg$3 = -84					; size = 4
_SkillHellFire2CountDamageTable$4 = -80			; size = 52
__$ArrayPad$ = -28					; size = 4
__$SEHRec$ = -24					; size = 24
_lpObj$ = 8						; size = 4
_targetDefense$ = 12					; size = 4
_lpMagic$ = 16						; size = 4
_effect$ = 20						; size = 4
_bIsOnDuel$ = 24					; size = 4
?GetAttackDamageWizard@CObjAttack@@QAEHPAUOBJECTSTRUCT@@HPAVCMagicInf@@AAHH@Z PROC ; CObjAttack::GetAttackDamageWizard, COMDAT
; _this$ = ecx

; 3966 : {

  00000	55		 push	 ebp
  00001	8b ec		 mov	 ebp, esp
  00003	6a fe		 push	 -2			; fffffffeH
  00005	68 00 00 00 00	 push	 OFFSET __sehtable$?GetAttackDamageWizard@CObjAttack@@QAEHPAUOBJECTSTRUCT@@HPAVCMagicInf@@AAHH@Z
  0000a	68 00 00 00 00	 push	 OFFSET __except_handler4
  0000f	64 a1 00 00 00
	00		 mov	 eax, DWORD PTR fs:0
  00015	50		 push	 eax
  00016	83 ec 60	 sub	 esp, 96			; 00000060H
  00019	a1 00 00 00 00	 mov	 eax, DWORD PTR ___security_cookie
  0001e	31 45 f8	 xor	 DWORD PTR __$SEHRec$[ebp+16], eax
  00021	33 c5		 xor	 eax, ebp
  00023	89 45 e4	 mov	 DWORD PTR __$ArrayPad$[ebp], eax
  00026	53		 push	 ebx
  00027	56		 push	 esi
  00028	57		 push	 edi
  00029	50		 push	 eax
  0002a	8d 45 f0	 lea	 eax, DWORD PTR __$SEHRec$[ebp+8]
  0002d	64 a3 00 00 00
	00		 mov	 DWORD PTR fs:0, eax
  00033	89 65 e8	 mov	 DWORD PTR __$SEHRec$[ebp], esp
  00036	8b 5d 08	 mov	 ebx, DWORD PTR _lpObj$[ebp]
  00039	89 5d 90	 mov	 DWORD PTR _lpObj$GSCopy$[ebp], ebx
  0003c	8b 75 10	 mov	 esi, DWORD PTR _lpMagic$[ebp]
  0003f	89 75 ac	 mov	 DWORD PTR _lpMagic$GSCopy$1$[ebp], esi
  00042	8b 45 14	 mov	 eax, DWORD PTR _effect$[ebp]
  00045	89 45 98	 mov	 DWORD PTR _effect$GSCopy$1$[ebp], eax

; 3968 : 	{
; 3969 : 		if ( bIsOnDuel == TRUE )

  00048	8b 45 18	 mov	 eax, DWORD PTR _bIsOnDuel$[ebp]

; 3967 : 	if ( g_ShieldSystemOn == TRUE )

  0004b	83 3d 00 00 00
	00 01		 cmp	 DWORD PTR ?g_ShieldSystemOn@@3HA, 1 ; g_ShieldSystemOn
  00052	75 08		 jne	 SHORT $LN43@GetAttackD

; 3968 : 	{
; 3969 : 		if ( bIsOnDuel == TRUE )

  00054	33 c9		 xor	 ecx, ecx
  00056	83 f8 01	 cmp	 eax, 1
  00059	0f 44 c1	 cmove	 eax, ecx
$LN43@GetAttackD:
  0005c	89 45 a0	 mov	 DWORD PTR _bIsOnDuel$2$[ebp], eax

; 3970 : 		{
; 3971 : 			bIsOnDuel = FALSE;
; 3972 : 		}
; 3973 : 	}
; 3974 : 
; 3975 : 	int damagemin;
; 3976 : 	int damagemax;
; 3977 : 	int ad;
; 3978 : 
; 3979 : 	if ( lpMagic->m_Skill == AT_SKILL_EXPHELL || lpMagic->m_Skill == AT_MSKILL_DW_NOVA1 )

  0005f	8b 46 08	 mov	 eax, DWORD PTR [esi+8]
  00062	89 45 a4	 mov	 DWORD PTR tv583[ebp], eax
  00065	83 f8 28	 cmp	 eax, 40			; 00000028H
  00068	74 2b		 je	 SHORT $LN6@GetAttackD
  0006a	3d 88 01 00 00	 cmp	 eax, 392		; 00000188H
  0006f	74 24		 je	 SHORT $LN6@GetAttackD

; 4038 : 		}
; 4039 : 	}
; 4040 : 	else
; 4041 : 	{
; 4042 : 		ad = lpMagic->GetDamage();

  00071	8b ce		 mov	 ecx, esi
  00073	e8 00 00 00 00	 call	 ?GetDamage@CMagicInf@@QAEHXZ ; CMagicInf::GetDamage
  00078	89 45 a8	 mov	 DWORD PTR _ad$[ebp], eax

; 4043 : 
; 4044 : 
; 4045 : 		damagemin = lpMagic->m_DamageMin + lpObj->m_MagicDamageMin;

  0007b	8b bb 48 06 00
	00		 mov	 edi, DWORD PTR [ebx+1608]
  00081	03 7e 0c	 add	 edi, DWORD PTR [esi+12]

; 4046 : 		damagemax = lpMagic->m_DamageMax + lpObj->m_MagicDamageMax;

  00084	8b b3 4c 06 00
	00		 mov	 esi, DWORD PTR [ebx+1612]
  0008a	8b 45 ac	 mov	 eax, DWORD PTR _lpMagic$GSCopy$1$[ebp]
  0008d	03 70 10	 add	 esi, DWORD PTR [eax+16]

; 4047 : 
; 4048 : 		if( g_MasterSkillSystem.CheckMasterLevelSkill(lpMagic->m_Skill) )

  00090	ff 70 08	 push	 DWORD PTR [eax+8]

; 4049 : 		{
; 4050 : 			float fDamage = g_MasterSkillSystem.GetSkillAttackDamage(lpObj,lpMagic->m_Skill);
; 4051 : 
; 4052 : 			damagemin += fDamage;
; 4053 : 			damagemax += fDamage;
; 4054 : 		}
; 4055 : 
; 4056 : #if (ENABLETEST_MUUN == 1) 
; 4057 : 		int nMuunItemEffectValue = 0;
; 4058 : 		if (g_CMuunSystem.GetMuunItemValueOfOptType(lpObj, 5, &nMuunItemEffectValue, 0)) {
; 4059 : 			damagemin += nMuunItemEffectValue;
; 4060 : 			damagemax += nMuunItemEffectValue;
; 4061 : 		}
; 4062 : #endif
; 4063 : 
; 4064 : 		damagemin += lpObj->SetOpAddSkillAttack;
; 4065 : 		damagemax += lpObj->SetOpAddSkillAttack;
; 4066 : 
; 4067 : 		int SkillAttr = MagicDamageC.GetSkillAttr(lpMagic->m_Skill);
; 4068 : 
; 4069 : 		if ( SkillAttr != -1 )
; 4070 : 		{
; 4071 : 			if( (lpObj->Authority & 32) == 32 &&
; 4072 : 				(lpObj->pInventory[10].m_Type == ITEMGET(13,42) ||
; 4073 : 				lpObj->pInventory[11].m_Type == ITEMGET(13,42) ) )
; 4074 : 			{
; 4075 : 				damagemin += 0xFF;
; 4076 : 				damagemax += 0xFF;
; 4077 : 			}
; 4078 : 		}
; 4079 : 
; 4080 : 		damagemin += lpObj->m_JewelOfHarmonyEffect.HJOpAddSkillAttack;
; 4081 : 		damagemax += lpObj->m_JewelOfHarmonyEffect.HJOpAddSkillAttack;

  00093	eb 6a		 jmp	 SHORT $LN54@GetAttackD
$LN6@GetAttackD:
  00095	0f 28 05 00 00
	00 00		 movaps	 xmm0, XMMWORD PTR __xmm@00000063000000320000001400000000
  0009c	0f 11 45 b0	 movups	 XMMWORD PTR _SkillHellFire2CountDamageTable$4[ebp], xmm0
  000a0	0f 28 05 00 00
	00 00		 movaps	 xmm0, XMMWORD PTR __xmm@000001a900000145000000e1000000a0
  000a7	0f 11 45 c0	 movups	 XMMWORD PTR _SkillHellFire2CountDamageTable$4[ebp+16], xmm0
  000ab	0f 28 05 00 00
	00 00		 movaps	 xmm0, XMMWORD PTR __xmm@0000044200000370000002bc00000226
  000b2	0f 11 45 d0	 movups	 XMMWORD PTR _SkillHellFire2CountDamageTable$4[ebp+32], xmm0

; 3980 : 	{
; 3981 : 		if ( lpObj->SkillHellFire2Count >= 0 )
; 3982 : 		{
; 3983 : 			int SkillHellFire2CountDamageTable[13] =
; 3984 : 			{
; 3985 : 				0,	20,	50,	99,	160,
; 3986 : 				225,	325,	425,	550,	700,
; 3987 : 				880,	1090,	1320

  000b6	c7 45 e0 28 05
	00 00		 mov	 DWORD PTR _SkillHellFire2CountDamageTable$4[ebp+48], 1320 ; 00000528H

; 3988 : 			};
; 3989 : 			int CountDamage;
; 3990 : 
; 3991 : 			if ( lpObj->SkillHellFire2Count > 12 )

  000bd	8a 83 a9 14 00
	00		 mov	 al, BYTE PTR [ebx+5289]
  000c3	3c 0c		 cmp	 al, 12			; 0000000cH
  000c5	76 04		 jbe	 SHORT $LN8@GetAttackD

; 3992 : 			{
; 3993 : 				CountDamage = 0;

  000c7	33 f6		 xor	 esi, esi

; 3994 : 			}
; 3995 : 			else

  000c9	eb 07		 jmp	 SHORT $LN9@GetAttackD
$LN8@GetAttackD:

; 3996 : 			{
; 3997 : 				CountDamage = SkillHellFire2CountDamageTable[lpObj->SkillHellFire2Count];

  000cb	0f b6 c0	 movzx	 eax, al
  000ce	8b 74 85 b0	 mov	 esi, DWORD PTR _SkillHellFire2CountDamageTable$4[ebp+eax*4]
$LN9@GetAttackD:

; 3998 : 			}
; 3999 : 
; 4000 : 			ad = ( lpObj->Strength + lpObj->AddStrength ) / 2 + CountDamage;

  000d2	0f b7 83 fc 00
	00 00		 movzx	 eax, WORD PTR [ebx+252]
  000d9	0f b7 8b d0 00
	00 00		 movzx	 ecx, WORD PTR [ebx+208]
  000e0	03 c1		 add	 eax, ecx
  000e2	99		 cdq
  000e3	2b c2		 sub	 eax, edx
  000e5	d1 f8		 sar	 eax, 1
  000e7	03 c6		 add	 eax, esi
  000e9	89 45 a8	 mov	 DWORD PTR _ad$[ebp], eax

; 4001 : 			damagemin = ad + lpObj->m_MagicDamageMin;

  000ec	8b bb 48 06 00
	00		 mov	 edi, DWORD PTR [ebx+1608]
  000f2	03 f8		 add	 edi, eax

; 4002 : 			damagemax = ad + lpObj->m_MagicDamageMax;

  000f4	8b b3 4c 06 00
	00		 mov	 esi, DWORD PTR [ebx+1612]
  000fa	03 f0		 add	 esi, eax

; 4003 : 
; 4004 : 			if( g_MasterSkillSystem.CheckMasterLevelSkill(lpMagic->m_Skill) )

  000fc	ff 75 a4	 push	 DWORD PTR tv583[ebp]
$LN54@GetAttackD:
  000ff	b9 00 00 00 00	 mov	 ecx, OFFSET ?g_MasterSkillSystem@@3VCMasterLevelSkillTreeSystem@@A ; g_MasterSkillSystem
  00104	e8 00 00 00 00	 call	 ?CheckMasterLevelSkill@CMasterLevelSkillTreeSystem@@QAEHH@Z ; CMasterLevelSkillTreeSystem::CheckMasterLevelSkill
  00109	85 c0		 test	 eax, eax
  0010b	74 34		 je	 SHORT $LN10@GetAttackD

; 4005 : 			{
; 4006 : 				float fDamage = g_MasterSkillSystem.GetSkillAttackDamage(lpObj,lpMagic->m_Skill);

  0010d	8b 45 ac	 mov	 eax, DWORD PTR _lpMagic$GSCopy$1$[ebp]
  00110	ff 70 08	 push	 DWORD PTR [eax+8]
  00113	53		 push	 ebx
  00114	b9 00 00 00 00	 mov	 ecx, OFFSET ?g_MasterSkillSystem@@3VCMasterLevelSkillTreeSystem@@A ; g_MasterSkillSystem
  00119	e8 00 00 00 00	 call	 ?GetSkillAttackDamage@CMasterLevelSkillTreeSystem@@QAEMPAUOBJECTSTRUCT@@H@Z ; CMasterLevelSkillTreeSystem::GetSkillAttackDamage
  0011e	66 0f 6e c7	 movd	 xmm0, edi
  00122	d9 5d a4	 fstp	 DWORD PTR _fDamage$2[ebp]

; 4007 : 
; 4008 : 				damagemin += fDamage;

  00125	0f 5b c0	 cvtdq2ps xmm0, xmm0
  00128	f3 0f 58 45 a4	 addss	 xmm0, DWORD PTR _fDamage$2[ebp]
  0012d	f3 0f 2c f8	 cvttss2si edi, xmm0
  00131	66 0f 6e c6	 movd	 xmm0, esi

; 4009 : 				damagemax += fDamage;

  00135	0f 5b c0	 cvtdq2ps xmm0, xmm0
  00138	f3 0f 58 45 a4	 addss	 xmm0, DWORD PTR _fDamage$2[ebp]
  0013d	f3 0f 2c f0	 cvttss2si esi, xmm0
$LN10@GetAttackD:

; 4010 : 			}
; 4011 : 
; 4012 : #if (ENABLETEST_MUUN == 1) 
; 4013 : 			int nMuunItemEffectValue = 0;
; 4014 : 			if (g_CMuunSystem.GetMuunItemValueOfOptType(lpObj, 5, &nMuunItemEffectValue, 0)) {
; 4015 : 				damagemin += nMuunItemEffectValue;
; 4016 : 				damagemax += nMuunItemEffectValue;
; 4017 : 			}
; 4018 : #endif
; 4019 : 
; 4020 : 			damagemin += lpObj->SetOpAddSkillAttack;

  00141	0f bf 83 b2 14
	00 00		 movsx	 eax, WORD PTR [ebx+5298]
  00148	03 f8		 add	 edi, eax

; 4021 : 			damagemax += lpObj->SetOpAddSkillAttack;

  0014a	03 f0		 add	 esi, eax

; 4022 : 
; 4023 : 			int SkillAttr = MagicDamageC.GetSkillAttr(lpMagic->m_Skill);

  0014c	8b 45 ac	 mov	 eax, DWORD PTR _lpMagic$GSCopy$1$[ebp]
  0014f	ff 70 08	 push	 DWORD PTR [eax+8]
  00152	b9 00 00 00 00	 mov	 ecx, OFFSET ?MagicDamageC@@3VCMagicDamage@@A ; MagicDamageC
  00157	e8 00 00 00 00	 call	 ?GetSkillAttr@CMagicDamage@@QAEHH@Z ; CMagicDamage::GetSkillAttr

; 4024 : 
; 4025 : 			if ( SkillAttr != -1 )

  0015c	83 f8 ff	 cmp	 eax, -1
  0015f	74 32		 je	 SHORT $LN12@GetAttackD

; 4026 : 			{
; 4027 : 				if( (lpObj->Authority & 32) == 32 &&

  00161	f6 83 bc 01 00
	00 20		 test	 BYTE PTR [ebx+444], 32	; 00000020H
  00168	74 29		 je	 SHORT $LN12@GetAttackD
  0016a	8b 8b c0 11 00
	00		 mov	 ecx, DWORD PTR [ebx+4544]
  00170	b8 2a 1a 00 00	 mov	 eax, 6698		; 00001a2aH
  00175	66 39 81 4e 08
	00 00		 cmp	 WORD PTR [ecx+2126], ax
  0017c	74 09		 je	 SHORT $LN13@GetAttackD
  0017e	66 39 81 22 09
	00 00		 cmp	 WORD PTR [ecx+2338], ax
  00185	75 0c		 jne	 SHORT $LN12@GetAttackD
$LN13@GetAttackD:

; 4028 : 					(lpObj->pInventory[10].m_Type == ITEMGET(13,42) ||
; 4029 : 					lpObj->pInventory[11].m_Type == ITEMGET(13,42) ) )
; 4030 : 				{
; 4031 : 					damagemin += 0xFF;

  00187	81 c7 ff 00 00
	00		 add	 edi, 255		; 000000ffH

; 4032 : 					damagemax += 0xFF;

  0018d	81 c6 ff 00 00
	00		 add	 esi, 255		; 000000ffH
$LN12@GetAttackD:

; 4033 : 				}
; 4034 : 			}
; 4035 : 
; 4036 : 			damagemin += lpObj->m_JewelOfHarmonyEffect.HJOpAddSkillAttack;

  00193	0f bf 83 38 24
	00 00		 movsx	 eax, WORD PTR [ebx+9272]
  0019a	03 f8		 add	 edi, eax

; 4037 : 			damagemax += lpObj->m_JewelOfHarmonyEffect.HJOpAddSkillAttack;

  0019c	03 f0		 add	 esi, eax
  0019e	89 75 ac	 mov	 DWORD PTR _damagemax$1$[ebp], esi

; 4033 : 				}
; 4034 : 			}
; 4035 : 
; 4036 : 			damagemin += lpObj->m_JewelOfHarmonyEffect.HJOpAddSkillAttack;

  001a1	89 7d a4	 mov	 DWORD PTR _damagemin$1$[ebp], edi

; 4082 : 	}
; 4083 : 
; 4084 : 	if( lpObj->m_MPSkillOpt.MpsWingAttackIncrease > 0.0f )

  001a4	f3 0f 10 8b 4c
	08 00 00	 movss	 xmm1, DWORD PTR [ebx+2124]
  001ac	0f 2f 0d 00 00
	00 00		 comiss	 xmm1, DWORD PTR __real@00000000
  001b3	76 24		 jbe	 SHORT $LN18@GetAttackD
  001b5	66 0f 6e c7	 movd	 xmm0, edi

; 4085 : 	{
; 4086 : 		damagemin += lpObj->m_MPSkillOpt.MpsWingAttackIncrease;

  001b9	0f 5b c0	 cvtdq2ps xmm0, xmm0
  001bc	f3 0f 58 c1	 addss	 xmm0, xmm1
  001c0	f3 0f 2c f8	 cvttss2si edi, xmm0
  001c4	89 7d a4	 mov	 DWORD PTR _damagemin$1$[ebp], edi
  001c7	66 0f 6e c6	 movd	 xmm0, esi

; 4087 : 		damagemax += lpObj->m_MPSkillOpt.MpsWingAttackIncrease;

  001cb	0f 5b c0	 cvtdq2ps xmm0, xmm0
  001ce	f3 0f 58 c1	 addss	 xmm0, xmm1
  001d2	f3 0f 2c f0	 cvttss2si esi, xmm0
  001d6	89 75 ac	 mov	 DWORD PTR _damagemax$1$[ebp], esi
$LN18@GetAttackD:

; 4088 : 	}
; 4089 : 
; 4090 : 	CItem * Staff = &lpObj->pInventory[0];

  001d9	8b 8b c0 11 00
	00		 mov	 ecx, DWORD PTR [ebx+4544]
  001df	89 4d 94	 mov	 DWORD PTR _Staff$1$[ebp], ecx

; 4091 : 
; 4092 : 	if ( Staff->IsItem() )

  001e2	e8 00 00 00 00	 call	 ?IsItem@CItem@@QAEHXZ	; CItem::IsItem
  001e7	85 c0		 test	 eax, eax
  001e9	0f 84 a2 00 00
	00		 je	 $LN44@GetAttackD

; 4093 : 	{
; 4094 : 		if ( (Staff->m_Type >= ITEMGET(5,0) && Staff->m_Type < ITEMGET(6,0) ) ||
; 4095 : 			 Staff->m_Type == ITEMGET(0,30) ||
; 4096 : 			 Staff->m_Type == ITEMGET(0,31) ||
; 4097 : 			 Staff->m_Type == ITEMGET(0,21) ||
; 4098 : 			 Staff->m_Type == ITEMGET(0,23) ||
; 4099 : 			 Staff->m_Type == ITEMGET(0,25) ||

  001ef	8b 55 94	 mov	 edx, DWORD PTR _Staff$1$[ebp]
  001f2	0f b7 42 06	 movzx	 eax, WORD PTR [edx+6]
  001f6	b9 00 0a 00 00	 mov	 ecx, 2560		; 00000a00H
  001fb	66 3b c1	 cmp	 ax, cx
  001fe	7c 0a		 jl	 SHORT $LN22@GetAttackD
  00200	b9 00 0c 00 00	 mov	 ecx, 3072		; 00000c00H
  00205	66 3b c1	 cmp	 ax, cx
  00208	7c 24		 jl	 SHORT $LN21@GetAttackD
$LN22@GetAttackD:
  0020a	66 83 f8 1e	 cmp	 ax, 30			; 0000001eH
  0020e	74 1e		 je	 SHORT $LN21@GetAttackD
  00210	66 83 f8 1f	 cmp	 ax, 31			; 0000001fH
  00214	74 18		 je	 SHORT $LN21@GetAttackD
  00216	66 83 f8 15	 cmp	 ax, 21			; 00000015H
  0021a	74 12		 je	 SHORT $LN21@GetAttackD
  0021c	66 83 f8 17	 cmp	 ax, 23			; 00000017H
  00220	74 0c		 je	 SHORT $LN21@GetAttackD
  00222	66 83 f8 19	 cmp	 ax, 25			; 00000019H
  00226	74 06		 je	 SHORT $LN21@GetAttackD
  00228	66 83 f8 1c	 cmp	 ax, 28			; 0000001cH
  0022c	75 63		 jne	 SHORT $LN44@GetAttackD
$LN21@GetAttackD:

; 4100 : 			 Staff->m_Type == ITEMGET(0,28) )
; 4101 : 		{
; 4102 : 			if ( Staff->m_IsValidItem  )

  0022e	80 ba ac 00 00
	00 00		 cmp	 BYTE PTR [edx+172], 0
  00235	74 5a		 je	 SHORT $LN44@GetAttackD

; 4103 : 			{
; 4104 : 				int damage = Staff->m_Magic / 2 + Staff->m_Level * 2;	// #formula

  00237	0f b7 4a 20	 movzx	 ecx, WORD PTR [edx+32]
  0023b	d1 e9		 shr	 ecx, 1
  0023d	0f bf 42 08	 movsx	 eax, WORD PTR [edx+8]
  00241	8d 34 41	 lea	 esi, DWORD PTR [ecx+eax*2]
  00244	66 0f 6e c6	 movd	 xmm0, esi

; 4105 : 				damage -= (WORD)(Staff->m_CurrentDurabilityState * damage);	// #formula

  00248	0f 5b c0	 cvtdq2ps xmm0, xmm0
  0024b	f3 0f 59 82 a4
	00 00 00	 mulss	 xmm0, DWORD PTR [edx+164]
  00253	f3 0f 2c c0	 cvttss2si eax, xmm0
  00257	0f b7 c0	 movzx	 eax, ax
  0025a	2b f0		 sub	 esi, eax

; 4106 : 
; 4107 : 				damagemin += damagemin * damage / 100;	// #formula

  0025c	8b ce		 mov	 ecx, esi
  0025e	0f af cf	 imul	 ecx, edi
  00261	b8 1f 85 eb 51	 mov	 eax, 1374389535		; 51eb851fH
  00266	f7 e9		 imul	 ecx
  00268	c1 fa 05	 sar	 edx, 5
  0026b	8b c2		 mov	 eax, edx
  0026d	c1 e8 1f	 shr	 eax, 31			; 0000001fH
  00270	03 c2		 add	 eax, edx
  00272	03 f8		 add	 edi, eax
  00274	89 7d a4	 mov	 DWORD PTR _damagemin$1$[ebp], edi

; 4108 : 				damagemax += damagemax * damage / 100;	// #formula

  00277	0f af 75 ac	 imul	 esi, DWORD PTR _damagemax$1$[ebp]
  0027b	b8 1f 85 eb 51	 mov	 eax, 1374389535		; 51eb851fH
  00280	f7 ee		 imul	 esi
  00282	c1 fa 05	 sar	 edx, 5
  00285	8b c2		 mov	 eax, edx
  00287	c1 e8 1f	 shr	 eax, 31			; 0000001fH
  0028a	03 c2		 add	 eax, edx
  0028c	8b 75 ac	 mov	 esi, DWORD PTR _damagemax$1$[ebp]
  0028f	03 f0		 add	 esi, eax
$LN44@GetAttackD:

; 4109 : 			}
; 4110 : 		}
; 4111 : 	}
; 4112 : 
; 4113 : 	int subd = damagemax - damagemin;

  00291	8b c6		 mov	 eax, esi
  00293	2b c7		 sub	 eax, edi
  00295	89 45 9c	 mov	 DWORD PTR _subd$[ebp], eax

; 4114 : 
; 4115 : 	__try

  00298	9b		 fwait
  00299	c7 45 fc 00 00
	00 00		 mov	 DWORD PTR __$SEHRec$[ebp+20], 0

; 4118 : 		{
; 4119 : 			ad = ( damagemin + (rand()%(subd+1)) ) * 60 / 100 - targetDefense;	// #formula

  002a0	e8 00 00 00 00	 call	 _rand
  002a5	8b 4d 9c	 mov	 ecx, DWORD PTR _subd$[ebp]
  002a8	99		 cdq
  002a9	41		 inc	 ecx
  002aa	f7 f9		 idiv	 ecx

; 4116 : 	{
; 4117 : 		if ( bIsOnDuel )

  002ac	83 7d a0 00	 cmp	 DWORD PTR _bIsOnDuel$2$[ebp], 0
  002b0	74 22		 je	 SHORT $LN25@GetAttackD

; 4118 : 		{
; 4119 : 			ad = ( damagemin + (rand()%(subd+1)) ) * 60 / 100 - targetDefense;	// #formula

  002b2	03 d7		 add	 edx, edi
  002b4	8b ca		 mov	 ecx, edx
  002b6	c1 e1 04	 shl	 ecx, 4
  002b9	2b ca		 sub	 ecx, edx
  002bb	c1 e1 02	 shl	 ecx, 2
  002be	b8 1f 85 eb 51	 mov	 eax, 1374389535		; 51eb851fH
  002c3	f7 e9		 imul	 ecx
  002c5	c1 fa 05	 sar	 edx, 5
  002c8	8b fa		 mov	 edi, edx
  002ca	c1 ef 1f	 shr	 edi, 31			; 0000001fH
  002cd	03 fa		 add	 edi, edx
  002cf	2b 7d 0c	 sub	 edi, DWORD PTR _targetDefense$[ebp]

; 4120 : 		}
; 4121 : 		else

  002d2	eb 08		 jmp	 SHORT $LN55@GetAttackD
$LN25@GetAttackD:

; 4122 : 		{
; 4123 : 			ad = ( damagemin + (rand()%(subd+1)) ) - targetDefense;

  002d4	8b fa		 mov	 edi, edx
  002d6	2b 7d 0c	 sub	 edi, DWORD PTR _targetDefense$[ebp]
  002d9	03 7d a4	 add	 edi, DWORD PTR _damagemin$1$[ebp]
$LN55@GetAttackD:
  002dc	89 7d a8	 mov	 DWORD PTR _ad$[ebp], edi

; 4124 : 		}
; 4125 : 
; 4126 : 		int nCritical = lpObj->m_CriticalDamage;

  002df	8b 83 9c 06 00
	00		 mov	 eax, DWORD PTR [ebx+1692]
  002e5	89 45 a4	 mov	 DWORD PTR _nCritical$1$[ebp], eax

; 4127 : 
; 4128 : 		if ( gObjCheckUsedBuffEffect(lpObj,BUFF_EXP_WIZARDRY3) == TRUE )

  002e8	68 8b 00 00 00	 push	 139			; 0000008bH
  002ed	53		 push	 ebx
  002ee	e8 00 00 00 00	 call	 ?gObjCheckUsedBuffEffect@@YA_NPAUOBJECTSTRUCT@@H@Z ; gObjCheckUsedBuffEffect
  002f3	83 c4 08	 add	 esp, 8
  002f6	3c 01		 cmp	 al, 1
  002f8	75 19		 jne	 SHORT $LN46@GetAttackD
  002fa	66 0f 6e 45 a4	 movd	 xmm0, DWORD PTR _nCritical$1$[ebp]

; 4129 : 		{
; 4130 : 			nCritical += lpObj->m_MPSkillOpt.MpsExpWizardryCrit;

  002ff	0f 5b c0	 cvtdq2ps xmm0, xmm0
  00302	f3 0f 58 83 d4
	07 00 00	 addss	 xmm0, DWORD PTR [ebx+2004]
  0030a	f3 0f 2c c0	 cvttss2si eax, xmm0
  0030e	89 45 a4	 mov	 DWORD PTR _nCritical$1$[ebp], eax
  00311	eb 03		 jmp	 SHORT $LN27@GetAttackD
$LN46@GetAttackD:
  00313	8b 45 a4	 mov	 eax, DWORD PTR _nCritical$1$[ebp]
$LN27@GetAttackD:

; 4131 : 		}
; 4132 : 
; 4133 : 		if ( nCritical )

  00316	85 c0		 test	 eax, eax
  00318	0f 84 ae 00 00
	00		 je	 $LN45@GetAttackD

; 4134 : 		{
; 4135 : 			if ( (rand()%100) < nCritical )

  0031e	e8 00 00 00 00	 call	 _rand
  00323	99		 cdq
  00324	b9 64 00 00 00	 mov	 ecx, 100		; 00000064H
  00329	f7 f9		 idiv	 ecx
  0032b	3b 55 a4	 cmp	 edx, DWORD PTR _nCritical$1$[ebp]
  0032e	0f 8d 98 00 00
	00		 jge	 $LN45@GetAttackD

; 4136 : 			{
; 4137 : 				if ( bIsOnDuel )

  00334	83 7d a0 00	 cmp	 DWORD PTR _bIsOnDuel$2$[ebp], 0
  00338	74 1d		 je	 SHORT $LN30@GetAttackD

; 4138 : 				{
; 4139 : 					ad = damagemax * 60 / 100 - targetDefense;

  0033a	8b ce		 mov	 ecx, esi
  0033c	c1 e1 04	 shl	 ecx, 4
  0033f	2b ce		 sub	 ecx, esi
  00341	c1 e1 02	 shl	 ecx, 2
  00344	b8 1f 85 eb 51	 mov	 eax, 1374389535		; 51eb851fH
  00349	f7 e9		 imul	 ecx
  0034b	c1 fa 05	 sar	 edx, 5
  0034e	8b fa		 mov	 edi, edx
  00350	c1 ef 1f	 shr	 edi, 31			; 0000001fH
  00353	03 fa		 add	 edi, edx

; 4140 : 				}
; 4141 : 				else

  00355	eb 02		 jmp	 SHORT $LN56@GetAttackD
$LN30@GetAttackD:

; 4142 : 				{
; 4143 : 					ad = damagemax - targetDefense;

  00357	8b fe		 mov	 edi, esi
$LN56@GetAttackD:
  00359	2b 7d 0c	 sub	 edi, DWORD PTR _targetDefense$[ebp]
  0035c	89 7d a8	 mov	 DWORD PTR _ad$[ebp], edi

; 4144 : 				}
; 4145 : 
; 4146 : 				ad += lpObj->SetOpAddCriticalDamage;

  0035f	0f bf 83 b8 14
	00 00		 movsx	 eax, WORD PTR [ebx+5304]
  00366	03 f8		 add	 edi, eax
  00368	89 7d a8	 mov	 DWORD PTR _ad$[ebp], edi

; 4147 : 				ad += lpObj->m_JewelOfHarmonyEffect.HJOpAddCriticalDamage;

  0036b	0f bf 83 36 24
	00 00		 movsx	 eax, WORD PTR [ebx+9270]
  00372	03 f8		 add	 edi, eax
  00374	89 7d a8	 mov	 DWORD PTR _ad$[ebp], edi

; 4148 : 
; 4149 : 				int AddCriticalDmg = 0;

  00377	c7 45 ac 00 00
	00 00		 mov	 DWORD PTR _AddCriticalDmg$3[ebp], 0

; 4150 : 				gObjGetValueOfBuffIndex(lpObj,BUFF_ADD_CRITDMG,&AddCriticalDmg,0);

  0037e	6a 00		 push	 0
  00380	8d 45 ac	 lea	 eax, DWORD PTR _AddCriticalDmg$3[ebp]
  00383	50		 push	 eax
  00384	6a 05		 push	 5
  00386	53		 push	 ebx
  00387	e8 00 00 00 00	 call	 ?gObjGetValueOfBuffIndex@@YA_NPAUOBJECTSTRUCT@@HPAH1@Z ; gObjGetValueOfBuffIndex

; 4151 : 				ad += AddCriticalDmg;

  0038c	03 7d ac	 add	 edi, DWORD PTR _AddCriticalDmg$3[ebp]
  0038f	89 7d a8	 mov	 DWORD PTR _ad$[ebp], edi

; 4152 : 				gObjGetValueOfBuffIndex(lpObj,BUFF_ADD_CRITDMG2,&AddCriticalDmg,0);

  00392	6a 00		 push	 0
  00394	8d 45 ac	 lea	 eax, DWORD PTR _AddCriticalDmg$3[ebp]
  00397	50		 push	 eax
  00398	68 94 00 00 00	 push	 148			; 00000094H
  0039d	53		 push	 ebx
  0039e	e8 00 00 00 00	 call	 ?gObjGetValueOfBuffIndex@@YA_NPAUOBJECTSTRUCT@@HPAH1@Z ; gObjGetValueOfBuffIndex

; 4153 : 				ad += AddCriticalDmg;

  003a3	03 7d ac	 add	 edi, DWORD PTR _AddCriticalDmg$3[ebp]
  003a6	89 7d a8	 mov	 DWORD PTR _ad$[ebp], edi

; 4154 : 				gObjGetValueOfBuffIndex(lpObj,BUFF_ADD_CRITDMG3,&AddCriticalDmg,0);

  003a9	6a 00		 push	 0
  003ab	8d 45 ac	 lea	 eax, DWORD PTR _AddCriticalDmg$3[ebp]
  003ae	50		 push	 eax
  003af	68 95 00 00 00	 push	 149			; 00000095H
  003b4	53		 push	 ebx
  003b5	e8 00 00 00 00	 call	 ?gObjGetValueOfBuffIndex@@YA_NPAUOBJECTSTRUCT@@HPAH1@Z ; gObjGetValueOfBuffIndex
  003ba	83 c4 30	 add	 esp, 48			; 00000030H

; 4155 : 				ad += AddCriticalDmg;

  003bd	03 7d ac	 add	 edi, DWORD PTR _AddCriticalDmg$3[ebp]
  003c0	89 7d a8	 mov	 DWORD PTR _ad$[ebp], edi

; 4156 : 
; 4157 : 				effect = 3;

  003c3	8b 45 98	 mov	 eax, DWORD PTR _effect$GSCopy$1$[ebp]
  003c6	c7 00 03 00 00
	00		 mov	 DWORD PTR [eax], 3
$LN45@GetAttackD:

; 4158 : 
; 4159 : #if (CUSTOM_EXOPT==1)
; 4160 : 				if( lpObj->m_CriticalDamageMul > 0 )
; 4161 : 				{
; 4162 : 					ad += ad * lpObj->m_CriticalDamageMul / 100;
; 4163 : 				}
; 4164 : #endif
; 4165 : 			}
; 4166 : 		}
; 4167 : 
; 4168 : 		if ( lpObj->m_ExcelentDamage > 0 )

  003cc	83 bb a0 06 00
	00 00		 cmp	 DWORD PTR [ebx+1696], 0
  003d3	7e 71		 jle	 SHORT $LN33@GetAttackD

; 4169 : 		{
; 4170 : 			if ( (rand()%100) < lpObj->m_ExcelentDamage )

  003d5	e8 00 00 00 00	 call	 _rand
  003da	99		 cdq
  003db	b9 64 00 00 00	 mov	 ecx, 100		; 00000064H
  003e0	f7 f9		 idiv	 ecx
  003e2	3b 93 a0 06 00
	00		 cmp	 edx, DWORD PTR [ebx+1696]
  003e8	7d 5c		 jge	 SHORT $LN33@GetAttackD

; 4171 : 			{
; 4172 : 				if ( bIsOnDuel )

  003ea	83 7d a0 00	 cmp	 DWORD PTR _bIsOnDuel$2$[ebp], 0
  003ee	74 1d		 je	 SHORT $LN34@GetAttackD

; 4173 : 				{
; 4174 : 					ad = damagemax * 60 / 100 - targetDefense;

  003f0	8b ce		 mov	 ecx, esi
  003f2	c1 e1 04	 shl	 ecx, 4
  003f5	2b ce		 sub	 ecx, esi
  003f7	c1 e1 02	 shl	 ecx, 2
  003fa	b8 1f 85 eb 51	 mov	 eax, 1374389535		; 51eb851fH
  003ff	f7 e9		 imul	 ecx
  00401	c1 fa 05	 sar	 edx, 5
  00404	8b fa		 mov	 edi, edx
  00406	c1 ef 1f	 shr	 edi, 31			; 0000001fH
  00409	03 fa		 add	 edi, edx

; 4175 : 				}
; 4176 : 				else

  0040b	eb 02		 jmp	 SHORT $LN57@GetAttackD
$LN34@GetAttackD:

; 4177 : 				{
; 4178 : 					ad = damagemax - targetDefense;

  0040d	8b fe		 mov	 edi, esi
$LN57@GetAttackD:
  0040f	2b 7d 0c	 sub	 edi, DWORD PTR _targetDefense$[ebp]
  00412	89 7d a8	 mov	 DWORD PTR _ad$[ebp], edi

; 4179 : 				}
; 4180 : 
; 4181 : 				ad += damagemax * 20 / 100;

  00415	8d 0c b6	 lea	 ecx, DWORD PTR [esi+esi*4]
  00418	c1 e1 02	 shl	 ecx, 2
  0041b	b8 1f 85 eb 51	 mov	 eax, 1374389535		; 51eb851fH
  00420	f7 e9		 imul	 ecx
  00422	c1 fa 05	 sar	 edx, 5
  00425	8b c2		 mov	 eax, edx
  00427	c1 e8 1f	 shr	 eax, 31			; 0000001fH
  0042a	03 c2		 add	 eax, edx
  0042c	03 f8		 add	 edi, eax
  0042e	89 7d a8	 mov	 DWORD PTR _ad$[ebp], edi

; 4182 : 				ad += lpObj->SetOpAddExDamage;

  00431	0f bf 83 b4 14
	00 00		 movsx	 eax, WORD PTR [ebx+5300]
  00438	03 f8		 add	 edi, eax
  0043a	89 7d a8	 mov	 DWORD PTR _ad$[ebp], edi

; 4183 : 
; 4184 : 				effect = 2;

  0043d	8b 45 98	 mov	 eax, DWORD PTR _effect$GSCopy$1$[ebp]
  00440	c7 00 02 00 00
	00		 mov	 DWORD PTR [eax], 2
$LN33@GetAttackD:

; 4185 : 
; 4186 : #if (CUSTOM_EXOPT==1)
; 4187 : 				if( lpObj->m_ExcelentDamageMul > 0 )
; 4188 : 				{
; 4189 : 					ad += ad * lpObj->m_ExcelentDamageMul / 100;
; 4190 : 				}
; 4191 : #endif
; 4192 : 			}
; 4193 : 		}
; 4194 : 	}

  00446	9b		 fwait
  00447	c7 45 fc fe ff
	ff ff		 mov	 DWORD PTR __$SEHRec$[ebp+20], -2 ; fffffffeH
  0044e	eb 1d		 jmp	 SHORT $LN42@GetAttackD
$LN39@GetAttackD:
$LN58@GetAttackD:

; 4195 : 	__except ( subd=1, 1 )

  00450	c7 45 9c 01 00
	00 00		 mov	 DWORD PTR _subd$[ebp], 1
  00457	b8 01 00 00 00	 mov	 eax, 1
$LN47@GetAttackD:
$LN41@GetAttackD:
  0045c	c3		 ret	 0
$LN40@GetAttackD:
  0045d	8b 65 e8	 mov	 esp, DWORD PTR __$SEHRec$[ebp]

; 4185 : 
; 4186 : #if (CUSTOM_EXOPT==1)
; 4187 : 				if( lpObj->m_ExcelentDamageMul > 0 )
; 4188 : 				{
; 4189 : 					ad += ad * lpObj->m_ExcelentDamageMul / 100;
; 4190 : 				}
; 4191 : #endif
; 4192 : 			}
; 4193 : 		}
; 4194 : 	}

  00460	c7 45 fc fe ff
	ff ff		 mov	 DWORD PTR __$SEHRec$[ebp+20], -2 ; fffffffeH
  00467	8b 7d a8	 mov	 edi, DWORD PTR _ad$[ebp]
  0046a	8b 5d 90	 mov	 ebx, DWORD PTR _lpObj$GSCopy$[ebp]
$LN42@GetAttackD:

; 4196 : 	{
; 4197 : 
; 4198 : 	}
; 4199 : 
; 4200 : 	int AddDamage = 0;
; 4201 : 
; 4202 : 	AddDamage = gObjGetTotalValueOfEffect(lpObj,ADD_OPTION_ATTACK_DAMAGE);

  0046d	6a 02		 push	 2
  0046f	53		 push	 ebx
  00470	e8 00 00 00 00	 call	 ?gObjGetTotalValueOfEffect@@YAHPAUOBJECTSTRUCT@@H@Z ; gObjGetTotalValueOfEffect
  00475	8b f0		 mov	 esi, eax

; 4203 : 	AddDamage += gObjGetTotalValueOfEffect(lpObj,15);

  00477	6a 0f		 push	 15			; 0000000fH
  00479	53		 push	 ebx
  0047a	e8 00 00 00 00	 call	 ?gObjGetTotalValueOfEffect@@YAHPAUOBJECTSTRUCT@@H@Z ; gObjGetTotalValueOfEffect
  0047f	83 c4 10	 add	 esp, 16			; 00000010H

; 4204 : 	ad+= AddDamage;

  00482	03 c6		 add	 eax, esi
  00484	03 f8		 add	 edi, eax

; 4205 : 
; 4206 : 	if ( lpObj->m_SkillAttack2 )

  00486	83 bb 04 06 00
	00 00		 cmp	 DWORD PTR [ebx+1540], 0
  0048d	74 03		 je	 SHORT $LN36@GetAttackD

; 4207 : 	{
; 4208 : #ifdef __NOVUS__
; 4209 : 		ad += 15 + lpObj->Level / 2;
; 4210 : #else
; 4211 : 		ad += 10;

  0048f	83 c7 0a	 add	 edi, 10			; 0000000aH
$LN36@GetAttackD:

; 4212 : #endif
; 4213 : 	}
; 4214 : 
; 4215 : 	return ad;

  00492	8b c7		 mov	 eax, edi

; 4216 : }

  00494	8b 4d f0	 mov	 ecx, DWORD PTR __$SEHRec$[ebp+8]
  00497	64 89 0d 00 00
	00 00		 mov	 DWORD PTR fs:0, ecx
  0049e	59		 pop	 ecx
  0049f	5f		 pop	 edi
  004a0	5e		 pop	 esi
  004a1	5b		 pop	 ebx
  004a2	8b 4d e4	 mov	 ecx, DWORD PTR __$ArrayPad$[ebp]
  004a5	33 cd		 xor	 ecx, ebp
  004a7	e8 00 00 00 00	 call	 @__security_check_cookie@4
  004ac	8b e5		 mov	 esp, ebp
  004ae	5d		 pop	 ebp
  004af	c2 14 00	 ret	 20			; 00000014H
?GetAttackDamageWizard@CObjAttack@@QAEHPAUOBJECTSTRUCT@@HPAVCMagicInf@@AAHH@Z ENDP ; CObjAttack::GetAttackDamageWizard
_TEXT	ENDS
; Function compile flags: /Ogtp
; File c:\users\michel\desktop\source\gameserver\source\objattack.cpp
;	COMDAT ?GetAttackDamage@CObjAttack@@QAEHPAUOBJECTSTRUCT@@HAAHHPAVCMagicInf@@@Z
_TEXT	SEGMENT
_ReduceDamage$ = -76					; size = 4
_cDamage$2 = -72					; size = 4
_Right$ = -68						; size = 4
_Left$ = -64						; size = 4
_sub$ = -60						; size = 4
_bTwoHandWeapon$ = -56					; size = 4
_this$1$ = -52						; size = 4
_AddCriticalDmg$3 = -52					; size = 4
_AddDmgMax$4 = -48					; size = 4
_fDamage$5 = -48					; size = 4
_SkillRightMaxDamage$ = -44				; size = 4
_SkillLeftMinDamage$ = -40				; size = 4
_SkillLeftMaxDamage$ = -36				; size = 4
_SkillLeftMinDamage$1$ = -32				; size = 4
_SkillRightMinDamage$1$ = -28				; size = 4
__$SEHRec$ = -24					; size = 24
_lpObj$ = 8						; size = 4
_nAddAttackDamageLeft$1$ = 12				; size = 4
_targetDefense$ = 12					; size = 4
_effect$ = 16						; size = 4
_nAddAttackDamageRight$1$ = 20				; size = 4
_bIsOnDuel$ = 20					; size = 4
_AddDmgMin$6 = 24					; size = 4
_lpMagic$ = 24						; size = 4
?GetAttackDamage@CObjAttack@@QAEHPAUOBJECTSTRUCT@@HAAHHPAVCMagicInf@@@Z PROC ; CObjAttack::GetAttackDamage, COMDAT
; _this$ = ecx

; 3416 : {

  00000	55		 push	 ebp
  00001	8b ec		 mov	 ebp, esp
  00003	6a fe		 push	 -2			; fffffffeH
  00005	68 00 00 00 00	 push	 OFFSET __sehtable$?GetAttackDamage@CObjAttack@@QAEHPAUOBJECTSTRUCT@@HAAHHPAVCMagicInf@@@Z
  0000a	68 00 00 00 00	 push	 OFFSET __except_handler4
  0000f	64 a1 00 00 00
	00		 mov	 eax, DWORD PTR fs:0
  00015	50		 push	 eax
  00016	83 ec 3c	 sub	 esp, 60			; 0000003cH
  00019	53		 push	 ebx
  0001a	56		 push	 esi
  0001b	57		 push	 edi
  0001c	a1 00 00 00 00	 mov	 eax, DWORD PTR ___security_cookie
  00021	31 45 f8	 xor	 DWORD PTR __$SEHRec$[ebp+16], eax
  00024	33 c5		 xor	 eax, ebp
  00026	50		 push	 eax
  00027	8d 45 f0	 lea	 eax, DWORD PTR __$SEHRec$[ebp+8]
  0002a	64 a3 00 00 00
	00		 mov	 DWORD PTR fs:0, eax
  00030	89 65 e8	 mov	 DWORD PTR __$SEHRec$[ebp], esp
  00033	89 4d cc	 mov	 DWORD PTR _this$1$[ebp], ecx

; 3417 : 	if ( g_ShieldSystemOn == TRUE )

  00036	83 3d 00 00 00
	00 01		 cmp	 DWORD PTR ?g_ShieldSystemOn@@3HA, 1 ; g_ShieldSystemOn
  0003d	75 0e		 jne	 SHORT $LN132@GetAttackD

; 3418 : 	{
; 3419 : 		if ( bIsOnDuel == TRUE )

  0003f	33 c9		 xor	 ecx, ecx
  00041	8b 45 14	 mov	 eax, DWORD PTR _bIsOnDuel$[ebp]
  00044	83 f8 01	 cmp	 eax, 1
  00047	0f 44 c1	 cmove	 eax, ecx
  0004a	89 45 14	 mov	 DWORD PTR _bIsOnDuel$[ebp], eax
$LN132@GetAttackD:

; 3420 : 		{
; 3421 : 			bIsOnDuel = FALSE;
; 3422 : 		}
; 3423 : 	}
; 3424 : 
; 3425 : 	int ad;
; 3426 : 	int sub;
; 3427 : 	int SkillRightMaxDamage =0;

  0004d	33 db		 xor	 ebx, ebx
  0004f	89 5d d4	 mov	 DWORD PTR _SkillRightMaxDamage$[ebp], ebx

; 3428 : 	int SkillRightMinDamage =0;

  00052	89 5d e4	 mov	 DWORD PTR _SkillRightMinDamage$1$[ebp], ebx

; 3429 : 	int SkillLeftMaxDamage =0;

  00055	33 f6		 xor	 esi, esi
  00057	89 75 dc	 mov	 DWORD PTR _SkillLeftMaxDamage$[ebp], esi

; 3430 : 	int SkillLeftMinDamage =0;

  0005a	33 c0		 xor	 eax, eax
  0005c	89 45 e0	 mov	 DWORD PTR _SkillLeftMinDamage$1$[ebp], eax
  0005f	89 45 d8	 mov	 DWORD PTR _SkillLeftMinDamage$[ebp], eax

; 3431 : 	CItem * Right = &lpObj->pInventory[0];

  00062	8b 7d 08	 mov	 edi, DWORD PTR _lpObj$[ebp]
  00065	8b 97 c0 11 00
	00		 mov	 edx, DWORD PTR [edi+4544]
  0006b	89 55 bc	 mov	 DWORD PTR _Right$[ebp], edx

; 3432 : 	CItem * Left = &lpObj->pInventory[1];

  0006e	8d 82 d4 00 00
	00		 lea	 eax, DWORD PTR [edx+212]
  00074	89 45 c0	 mov	 DWORD PTR _Left$[ebp], eax

; 3433 : 	BOOL bTwoHandWeapon = FALSE;

  00077	33 c0		 xor	 eax, eax
  00079	89 45 c8	 mov	 DWORD PTR _bTwoHandWeapon$[ebp], eax

; 3434 : 
; 3435 : 	if ( lpObj->Type == OBJ_MONSTER || lpObj->Type == OBJ_NPC )

  0007c	8a 47 50	 mov	 al, BYTE PTR [edi+80]
  0007f	3c 02		 cmp	 al, 2
  00081	0f 84 a1 06 00
	00		 je	 $LN10@GetAttackD
  00087	3c 03		 cmp	 al, 3
  00089	0f 84 99 06 00
	00		 je	 $LN10@GetAttackD

; 3442 : 	}
; 3443 : 	else
; 3444 : 	{
; 3445 : 		int cDamage=0;

  0008f	89 5d b8	 mov	 DWORD PTR _cDamage$2[ebp], ebx

; 3446 : 
; 3447 : 		if ( lpObj->Class == CLASS_DARKLORD ||
; 3448 : 			 lpObj->Class == CLASS_KNIGHT   ||
; 3449 : 			 lpObj->Class == CLASS_MAGUMSA ||

  00092	0f b7 87 90 00
	00 00		 movzx	 eax, WORD PTR [edi+144]
  00099	83 f8 04	 cmp	 eax, 4
  0009c	74 0f		 je	 SHORT $LN12@GetAttackD
  0009e	83 f8 01	 cmp	 eax, 1
  000a1	74 0a		 je	 SHORT $LN12@GetAttackD
  000a3	83 f8 03	 cmp	 eax, 3
  000a6	74 05		 je	 SHORT $LN12@GetAttackD
  000a8	83 f8 06	 cmp	 eax, 6
  000ab	75 42		 jne	 SHORT $LN133@GetAttackD
$LN12@GetAttackD:

; 3450 : 			 lpObj->Class == CLASS_FIGHTER )
; 3451 : 		{
; 3452 : 			if ( Right->m_Type >= ITEMGET(0,0) && Right->m_Type < ITEMGET(4,0) &&
; 3453 : 				 Left->m_Type >= ITEMGET(0,0) && Left->m_Type < ITEMGET(4,0) )

  000ad	0f b7 42 06	 movzx	 eax, WORD PTR [edx+6]
  000b1	66 85 c0	 test	 ax, ax
  000b4	78 39		 js	 SHORT $LN133@GetAttackD
  000b6	b9 00 08 00 00	 mov	 ecx, 2048		; 00000800H
  000bb	66 3b c1	 cmp	 ax, cx
  000be	7d 2f		 jge	 SHORT $LN133@GetAttackD
  000c0	8b 45 c0	 mov	 eax, DWORD PTR _Left$[ebp]
  000c3	0f b7 40 06	 movzx	 eax, WORD PTR [eax+6]
  000c7	66 85 c0	 test	 ax, ax
  000ca	78 23		 js	 SHORT $LN133@GetAttackD
  000cc	66 3b c1	 cmp	 ax, cx
  000cf	7d 1e		 jge	 SHORT $LN133@GetAttackD

; 3454 : 			{
; 3455 : 				if ( Right->m_IsValidItem && Left->m_IsValidItem )

  000d1	38 9a ac 00 00
	00		 cmp	 BYTE PTR [edx+172], bl
  000d7	74 16		 je	 SHORT $LN133@GetAttackD
  000d9	33 c9		 xor	 ecx, ecx
  000db	ba 01 00 00 00	 mov	 edx, 1
  000e0	8b 45 c0	 mov	 eax, DWORD PTR _Left$[ebp]
  000e3	38 88 ac 00 00
	00		 cmp	 BYTE PTR [eax+172], cl
  000e9	0f 45 ca	 cmovne	 ecx, edx
  000ec	89 4d c8	 mov	 DWORD PTR _bTwoHandWeapon$[ebp], ecx
$LN133@GetAttackD:

; 3456 : 				{
; 3457 : 					bTwoHandWeapon = TRUE;
; 3458 : 				}
; 3459 : 			}
; 3460 : 		}
; 3461 : 
; 3462 : 		if ( lpMagic )

  000ef	8b 45 18	 mov	 eax, DWORD PTR _lpMagic$[ebp]
  000f2	85 c0		 test	 eax, eax
  000f4	0f 84 42 03 00
	00		 je	 $LN135@GetAttackD

; 3463 : 		{
; 3464 : 			if ( (lpMagic ->m_Skill == AT_SKILL_SPEAR ||
; 3465 : 				  lpMagic ->m_Skill == AT_MSKILL_DL_FORCEWAVE1)
; 3466 : 				 && lpObj->SkillLongSpearChange )

  000fa	8b 48 08	 mov	 ecx, DWORD PTR [eax+8]
  000fd	83 f9 3c	 cmp	 ecx, 60			; 0000003cH
  00100	74 08		 je	 SHORT $LN18@GetAttackD
  00102	81 f9 fd 01 00
	00		 cmp	 ecx, 509		; 000001fdH
  00108	75 15		 jne	 SHORT $LN16@GetAttackD
$LN18@GetAttackD:
  0010a	38 9f 0a 16 00
	00		 cmp	 BYTE PTR [edi+5642], bl
  00110	74 0d		 je	 SHORT $LN16@GetAttackD

; 3467 : 			{
; 3468 : 				SkillRightMaxDamage = DefMagicInf[66].m_DamageMax;

  00112	8b 1d 40 06 00
	00		 mov	 ebx, DWORD PTR ?DefMagicInf@@3PAVCMagicInf@@A+1600

; 3469 : 				SkillRightMinDamage = DefMagicInf[66].m_DamageMin;

  00118	a1 3c 06 00 00	 mov	 eax, DWORD PTR ?DefMagicInf@@3PAVCMagicInf@@A+1596

; 3470 : 			}
; 3471 : 			else

  0011d	eb 06		 jmp	 SHORT $LN153@GetAttackD
$LN16@GetAttackD:

; 3472 : 			{
; 3473 : 				SkillRightMaxDamage = lpMagic->m_DamageMax;

  0011f	8b 58 10	 mov	 ebx, DWORD PTR [eax+16]

; 3474 : 				SkillRightMinDamage = lpMagic->m_DamageMin;

  00122	8b 40 0c	 mov	 eax, DWORD PTR [eax+12]
$LN153@GetAttackD:
  00125	89 45 e4	 mov	 DWORD PTR _SkillRightMinDamage$1$[ebp], eax

; 3475 : 			}
; 3476 : 
; 3477 : 			if ( g_MasterSkillSystem.CheckMasterLevelSkill(lpMagic->m_Skill) )

  00128	51		 push	 ecx
  00129	b9 00 00 00 00	 mov	 ecx, OFFSET ?g_MasterSkillSystem@@3VCMasterLevelSkillTreeSystem@@A ; g_MasterSkillSystem
  0012e	e8 00 00 00 00	 call	 ?CheckMasterLevelSkill@CMasterLevelSkillTreeSystem@@QAEHH@Z ; CMasterLevelSkillTreeSystem::CheckMasterLevelSkill
  00133	85 c0		 test	 eax, eax
  00135	74 3a		 je	 SHORT $LN148@GetAttackD

; 3478 : 			{
; 3479 : 				float fDamage = g_MasterSkillSystem.GetSkillAttackDamage(lpObj,lpMagic->m_Skill);

  00137	8b 45 18	 mov	 eax, DWORD PTR _lpMagic$[ebp]
  0013a	ff 70 08	 push	 DWORD PTR [eax+8]
  0013d	57		 push	 edi
  0013e	b9 00 00 00 00	 mov	 ecx, OFFSET ?g_MasterSkillSystem@@3VCMasterLevelSkillTreeSystem@@A ; g_MasterSkillSystem
  00143	e8 00 00 00 00	 call	 ?GetSkillAttackDamage@CMasterLevelSkillTreeSystem@@QAEMPAUOBJECTSTRUCT@@H@Z ; CMasterLevelSkillTreeSystem::GetSkillAttackDamage
  00148	d9 5d d0	 fstp	 DWORD PTR _fDamage$5[ebp]
  0014b	66 0f 6e c3	 movd	 xmm0, ebx

; 3480 : 				SkillRightMaxDamage += fDamage;

  0014f	0f 5b c0	 cvtdq2ps xmm0, xmm0
  00152	f3 0f 10 4d d0	 movss	 xmm1, DWORD PTR _fDamage$5[ebp]
  00157	f3 0f 58 c1	 addss	 xmm0, xmm1
  0015b	f3 0f 2c d8	 cvttss2si ebx, xmm0
  0015f	66 0f 6e 45 e4	 movd	 xmm0, DWORD PTR _SkillRightMinDamage$1$[ebp]

; 3481 : 				SkillRightMinDamage += fDamage;

  00164	0f 5b c0	 cvtdq2ps xmm0, xmm0
  00167	f3 0f 58 c1	 addss	 xmm0, xmm1
  0016b	f3 0f 2c d0	 cvttss2si edx, xmm0
  0016f	eb 03		 jmp	 SHORT $LN19@GetAttackD
$LN148@GetAttackD:
  00171	8b 55 e4	 mov	 edx, DWORD PTR _SkillRightMinDamage$1$[ebp]
$LN19@GetAttackD:

; 3482 : 			}
; 3483 : 
; 3484 : 			if ( bTwoHandWeapon == FALSE )

  00174	39 75 c8	 cmp	 DWORD PTR _bTwoHandWeapon$[ebp], esi
  00177	75 06		 jne	 SHORT $LN146@GetAttackD

; 3485 : 			{
; 3486 : 				SkillLeftMaxDamage = SkillRightMaxDamage;

  00179	8b f3		 mov	 esi, ebx

; 3487 : 				SkillLeftMinDamage = SkillRightMinDamage;

  0017b	8b ca		 mov	 ecx, edx
  0017d	eb 02		 jmp	 SHORT $LN20@GetAttackD
$LN146@GetAttackD:
  0017f	33 c9		 xor	 ecx, ecx
$LN20@GetAttackD:

; 3488 : 			}
; 3489 : 
; 3490 : 			SkillRightMaxDamage += lpObj->SetOpAddSkillAttack;

  00181	0f bf 87 b2 14
	00 00		 movsx	 eax, WORD PTR [edi+5298]
  00188	03 d8		 add	 ebx, eax

; 3491 : 			SkillRightMinDamage += lpObj->SetOpAddSkillAttack;

  0018a	03 d0		 add	 edx, eax
  0018c	89 55 e4	 mov	 DWORD PTR _SkillRightMinDamage$1$[ebp], edx

; 3492 : 			SkillLeftMaxDamage += lpObj->SetOpAddSkillAttack;

  0018f	03 f0		 add	 esi, eax

; 3493 : 			SkillLeftMinDamage += lpObj->SetOpAddSkillAttack;

  00191	03 c8		 add	 ecx, eax
  00193	89 4d e0	 mov	 DWORD PTR _SkillLeftMinDamage$1$[ebp], ecx

; 3494 : 
; 3495 : #if (ENABLETEST_MUUN == 1) 
; 3496 : 			int nMuunItemEffectValue = 0;
; 3497 : 			if (g_CMuunSystem.GetMuunItemValueOfOptType(lpObj, 5, &nMuunItemEffectValue, 0)) {
; 3498 : 				SkillLeftMaxDamage += nMuunItemEffectValue;
; 3499 : 				SkillLeftMinDamage += nMuunItemEffectValue;
; 3500 : 				SkillRightMaxDamage += nMuunItemEffectValue;
; 3501 : 				SkillRightMinDamage += nMuunItemEffectValue;
; 3502 : 			}
; 3503 : #endif
; 3504 : 
; 3505 : 			int SkillAttr = MagicDamageC.GetSkillAttr(lpMagic->m_Skill);

  00196	8b 45 18	 mov	 eax, DWORD PTR _lpMagic$[ebp]
  00199	ff 70 08	 push	 DWORD PTR [eax+8]
  0019c	b9 00 00 00 00	 mov	 ecx, OFFSET ?MagicDamageC@@3VCMagicDamage@@A ; MagicDamageC
  001a1	e8 00 00 00 00	 call	 ?GetSkillAttr@CMagicDamage@@QAEHH@Z ; CMagicDamage::GetSkillAttr

; 3506 : 
; 3507 : 			if ( SkillAttr != -1 )

  001a6	83 f8 ff	 cmp	 eax, -1
  001a9	74 5e		 je	 SHORT $LN147@GetAttackD

; 3508 : 			{
; 3509 : 				if( (lpObj->Authority & 32) == 32 && 

  001ab	f6 87 bc 01 00
	00 20		 test	 BYTE PTR [edi+444], 32	; 00000020H
  001b2	74 3d		 je	 SHORT $LN22@GetAttackD
  001b4	8b 8f c0 11 00
	00		 mov	 ecx, DWORD PTR [edi+4544]
  001ba	ba 2a 1a 00 00	 mov	 edx, 6698		; 00001a2aH
  001bf	66 39 91 4e 08
	00 00		 cmp	 WORD PTR [ecx+2126], dx
  001c6	74 09		 je	 SHORT $LN24@GetAttackD
  001c8	66 39 91 22 09
	00 00		 cmp	 WORD PTR [ecx+2338], dx
  001cf	75 20		 jne	 SHORT $LN22@GetAttackD
$LN24@GetAttackD:

; 3510 : 					(lpObj->pInventory[10].m_Type == ITEMGET(13,42) ||
; 3511 : 						lpObj->pInventory[11].m_Type == ITEMGET(13,42) ))
; 3512 : 				{
; 3513 : 					SkillRightMaxDamage += 0xFF;

  001d1	81 c3 ff 00 00
	00		 add	 ebx, 255		; 000000ffH

; 3514 : 					SkillRightMinDamage += 0xFF;

  001d7	8b 55 e4	 mov	 edx, DWORD PTR _SkillRightMinDamage$1$[ebp]
  001da	81 c2 ff 00 00
	00		 add	 edx, 255		; 000000ffH

; 3515 : 					SkillLeftMaxDamage += 0xFF;

  001e0	81 c6 ff 00 00
	00		 add	 esi, 255		; 000000ffH

; 3516 : 					SkillLeftMinDamage += 0xFF;

  001e6	8b 4d e0	 mov	 ecx, DWORD PTR _SkillLeftMinDamage$1$[ebp]
  001e9	81 c1 ff 00 00
	00		 add	 ecx, 255		; 000000ffH

; 3517 : 				}
; 3518 : 				else

  001ef	eb 1e		 jmp	 SHORT $LN23@GetAttackD
$LN22@GetAttackD:

; 3519 : 				{
; 3520 : 					SkillRightMaxDamage += (BYTE)lpObj->m_AddResistance[SkillAttr];

  001f1	0f b6 84 38 9d
	08 00 00	 movzx	 eax, BYTE PTR [eax+edi+2205]
  001f9	03 d8		 add	 ebx, eax

; 3521 : 					SkillRightMinDamage += (BYTE)lpObj->m_AddResistance[SkillAttr];

  001fb	8b 55 e4	 mov	 edx, DWORD PTR _SkillRightMinDamage$1$[ebp]
  001fe	03 d0		 add	 edx, eax

; 3522 : 					SkillLeftMaxDamage  += (BYTE)lpObj->m_AddResistance[SkillAttr];

  00200	03 f0		 add	 esi, eax

; 3523 : 					SkillLeftMinDamage  += (BYTE)lpObj->m_AddResistance[SkillAttr];

  00202	8b 4d e0	 mov	 ecx, DWORD PTR _SkillLeftMinDamage$1$[ebp]
  00205	03 c8		 add	 ecx, eax
  00207	eb 06		 jmp	 SHORT $LN23@GetAttackD
$LN147@GetAttackD:
  00209	8b 4d e0	 mov	 ecx, DWORD PTR _SkillLeftMinDamage$1$[ebp]
  0020c	8b 55 e4	 mov	 edx, DWORD PTR _SkillRightMinDamage$1$[ebp]
$LN23@GetAttackD:

; 3524 : 				}
; 3525 : 			}
; 3526 : 
; 3527 : 			SkillRightMaxDamage += lpObj->m_JewelOfHarmonyEffect.HJOpAddSkillAttack;

  0020f	0f bf 87 38 24
	00 00		 movsx	 eax, WORD PTR [edi+9272]
  00216	03 d8		 add	 ebx, eax
  00218	89 5d d4	 mov	 DWORD PTR _SkillRightMaxDamage$[ebp], ebx

; 3528 : 			SkillRightMinDamage += lpObj->m_JewelOfHarmonyEffect.HJOpAddSkillAttack;

  0021b	03 d0		 add	 edx, eax
  0021d	89 55 e4	 mov	 DWORD PTR _SkillRightMinDamage$1$[ebp], edx

; 3529 : 			SkillLeftMaxDamage += lpObj->m_JewelOfHarmonyEffect.HJOpAddSkillAttack;

  00220	03 f0		 add	 esi, eax
  00222	89 75 dc	 mov	 DWORD PTR _SkillLeftMaxDamage$[ebp], esi

; 3530 : 			SkillLeftMinDamage += lpObj->m_JewelOfHarmonyEffect.HJOpAddSkillAttack;

  00225	03 c8		 add	 ecx, eax
  00227	89 4d e0	 mov	 DWORD PTR _SkillLeftMinDamage$1$[ebp], ecx
  0022a	89 4d d8	 mov	 DWORD PTR _SkillLeftMinDamage$[ebp], ecx

; 3531 : 
; 3532 : 			if ( lpMagic->m_Skill == 65 )

  0022d	8b 4d 18	 mov	 ecx, DWORD PTR _lpMagic$[ebp]
  00230	8b 41 08	 mov	 eax, DWORD PTR [ecx+8]
  00233	83 f8 41	 cmp	 eax, 65			; 00000041H
  00236	75 4b		 jne	 SHORT $LN25@GetAttackD

; 3533 : 			{
; 3534 : 				int iPartyCount = this->GetPartyMemberCount(lpObj);

  00238	57		 push	 edi
  00239	8b 4d cc	 mov	 ecx, DWORD PTR _this$1$[ebp]
  0023c	e8 00 00 00 00	 call	 ?GetPartyMemberCount@CObjBaseAttack@@QAEHPAUOBJECTSTRUCT@@@Z ; CObjBaseAttack::GetPartyMemberCount
  00241	8b f0		 mov	 esi, eax

; 3535 : 				int addskilldamage = ( lpObj->Leadership + lpObj->AddLeadership ) / 10 + ( iPartyCount * 50 );	// #formula

  00243	0f b7 97 f6 00
	00 00		 movzx	 edx, WORD PTR [edi+246]
  0024a	0f b7 8f f4 00
	00 00		 movzx	 ecx, WORD PTR [edi+244]
  00251	03 d1		 add	 edx, ecx
  00253	b8 67 66 66 66	 mov	 eax, 1717986919		; 66666667H
  00258	f7 ea		 imul	 edx
  0025a	c1 fa 02	 sar	 edx, 2
  0025d	8b ca		 mov	 ecx, edx
  0025f	c1 e9 1f	 shr	 ecx, 31			; 0000001fH
  00262	03 ca		 add	 ecx, edx
  00264	6b c6 32	 imul	 eax, esi, 50
  00267	03 c8		 add	 ecx, eax

; 3536 : 
; 3537 : 				SkillRightMaxDamage += addskilldamage;

  00269	03 d9		 add	 ebx, ecx

; 3538 : 				SkillRightMinDamage += addskilldamage;

  0026b	01 4d e4	 add	 DWORD PTR _SkillRightMinDamage$1$[ebp], ecx

; 3539 : 				SkillLeftMaxDamage += addskilldamage;

  0026e	8b 75 dc	 mov	 esi, DWORD PTR _SkillLeftMaxDamage$[ebp]
  00271	03 f1		 add	 esi, ecx

; 3540 : 				SkillLeftMinDamage += addskilldamage;

  00273	8b 55 e0	 mov	 edx, DWORD PTR _SkillLeftMinDamage$1$[ebp]
  00276	03 d1		 add	 edx, ecx
  00278	89 55 e0	 mov	 DWORD PTR _SkillLeftMinDamage$1$[ebp], edx
  0027b	89 55 d8	 mov	 DWORD PTR _SkillLeftMinDamage$[ebp], edx

; 3541 : 			}
; 3542 : 			else if( lpMagic->m_Skill == 62

  0027e	e9 54 01 00 00	 jmp	 $LN154@GetAttackD
$LN25@GetAttackD:

; 3543 : 					|| lpMagic->m_Skill == AT_MSKILL_DL_EARTHSHAKE1
; 3544 : 					|| lpMagic->m_Skill == AT_MSKILL_DL_EARTHSHAKE2 )

  00283	83 f8 3e	 cmp	 eax, 62			; 0000003eH
  00286	0f 84 cd 00 00
	00		 je	 $LN29@GetAttackD
  0028c	3d 00 02 00 00	 cmp	 eax, 512		; 00000200H
  00291	0f 84 c2 00 00
	00		 je	 $LN29@GetAttackD
  00297	3d 04 02 00 00	 cmp	 eax, 516		; 00000204H
  0029c	0f 84 b7 00 00
	00		 je	 $LN29@GetAttackD

; 3554 : 				}
; 3555 : 			}
; 3556 : 			else if ( lpObj->Class == CLASS_DARKLORD && 

  002a2	0f b7 97 90 00
	00 00		 movzx	 edx, WORD PTR [edi+144]
  002a9	83 fa 04	 cmp	 edx, 4
  002ac	0f 85 2e 01 00
	00		 jne	 $LN134@GetAttackD
  002b2	3d ee 00 00 00	 cmp	 eax, 238		; 000000eeH
  002b7	74 07		 je	 SHORT $LN33@GetAttackD
  002b9	3d 0b 02 00 00	 cmp	 eax, 523		; 0000020bH
  002be	75 4a		 jne	 SHORT $LN31@GetAttackD
$LN33@GetAttackD:

; 3557 : 				(lpMagic->m_Skill == AT_SKILL_CHAOTICDISEIER || lpMagic->m_Skill == AT_MSKILL_DL_CHAOTICDESEAR1))
; 3558 : 			{
; 3559 : 				int addskilldamage = ( lpObj->Strength + lpObj->AddStrength ) / 30 + ( lpObj->Energy + lpObj->AddEnergy ) / 55;

  002c0	0f b7 8f 02 01
	00 00		 movzx	 ecx, WORD PTR [edi+258]
  002c7	0f b7 87 d6 00
	00 00		 movzx	 eax, WORD PTR [edi+214]
  002ce	03 c8		 add	 ecx, eax
  002d0	b8 95 20 4f 09	 mov	 eax, 156180629		; 094f2095H
  002d5	f7 e9		 imul	 ecx
  002d7	d1 fa		 sar	 edx, 1
  002d9	8b f2		 mov	 esi, edx
  002db	c1 ee 1f	 shr	 esi, 31			; 0000001fH
  002de	03 f2		 add	 esi, edx
  002e0	0f b7 8f fc 00
	00 00		 movzx	 ecx, WORD PTR [edi+252]
  002e7	0f b7 87 d0 00
	00 00		 movzx	 eax, WORD PTR [edi+208]
  002ee	03 c8		 add	 ecx, eax
  002f0	b8 89 88 88 88	 mov	 eax, -2004318071	; 88888889H
  002f5	f7 e9		 imul	 ecx
  002f7	03 d1		 add	 edx, ecx
  002f9	c1 fa 04	 sar	 edx, 4
  002fc	8b c2		 mov	 eax, edx
  002fe	c1 e8 1f	 shr	 eax, 31			; 0000001fH
  00301	03 f2		 add	 esi, edx
  00303	03 c6		 add	 eax, esi

; 3560 : 
; 3561 : 
; 3562 : 				SkillRightMaxDamage += addskilldamage;
; 3563 : 				SkillRightMinDamage += addskilldamage;
; 3564 : 				SkillLeftMaxDamage += addskilldamage;
; 3565 : 				SkillLeftMinDamage += addskilldamage;

  00305	e9 b8 00 00 00	 jmp	 $LN156@GetAttackD
$LN31@GetAttackD:

; 3566 : 			}
; 3567 : 			else if ( lpObj->Class == CLASS_DARKLORD )

  0030a	83 fa 04	 cmp	 edx, 4
  0030d	0f 85 cd 00 00
	00		 jne	 $LN134@GetAttackD

; 3568 : 			{
; 3569 : 				int iadddamage = ( lpObj->Strength + lpObj->AddStrength ) / 25 + ( lpObj->Energy + lpObj->AddEnergy ) / 50;	// #formula

  00313	0f b7 8f 02 01
	00 00		 movzx	 ecx, WORD PTR [edi+258]
  0031a	0f b7 87 d6 00
	00 00		 movzx	 eax, WORD PTR [edi+214]
  00321	03 c8		 add	 ecx, eax
  00323	b8 1f 85 eb 51	 mov	 eax, 1374389535		; 51eb851fH
  00328	f7 e9		 imul	 ecx
  0032a	c1 fa 04	 sar	 edx, 4
  0032d	8b f2		 mov	 esi, edx
  0032f	c1 ee 1f	 shr	 esi, 31			; 0000001fH
  00332	03 f2		 add	 esi, edx
  00334	0f b7 8f fc 00
	00 00		 movzx	 ecx, WORD PTR [edi+252]
  0033b	0f b7 87 d0 00
	00 00		 movzx	 eax, WORD PTR [edi+208]
  00342	03 c8		 add	 ecx, eax
  00344	b8 1f 85 eb 51	 mov	 eax, 1374389535		; 51eb851fH
  00349	f7 e9		 imul	 ecx
  0034b	c1 fa 03	 sar	 edx, 3
  0034e	8b c2		 mov	 eax, edx
  00350	c1 e8 1f	 shr	 eax, 31			; 0000001fH
  00353	03 f2		 add	 esi, edx
  00355	03 c6		 add	 eax, esi

; 3570 : 
; 3571 : 				SkillRightMaxDamage += iadddamage;
; 3572 : 				SkillRightMinDamage += iadddamage;
; 3573 : 				SkillLeftMaxDamage += iadddamage;
; 3574 : 				SkillLeftMinDamage += iadddamage;

  00357	eb 69		 jmp	 SHORT $LN156@GetAttackD
$LN29@GetAttackD:

; 3545 : 			{
; 3546 : 				if (lpObj->pInventory[8].m_Type == ITEMGET(13,4) )	// Dark Horse

  00359	8b 87 c0 11 00
	00		 mov	 eax, DWORD PTR [edi+4544]
  0035f	ba 04 1a 00 00	 mov	 edx, 6660		; 00001a04H
  00364	66 39 90 a6 06
	00 00		 cmp	 WORD PTR [eax+1702], dx
  0036b	75 73		 jne	 SHORT $LN134@GetAttackD

; 3547 : 				{
; 3548 : 					int addskilldamage = ( lpObj->Strength + lpObj->AddStrength ) / 10 + ( lpObj->Leadership + lpObj->AddLeadership ) / 5 + lpObj->pInventory[8].m_PetItem_Level * 10;	// #formula

  0036d	0f b7 8f f6 00
	00 00		 movzx	 ecx, WORD PTR [edi+246]
  00374	0f b7 87 f4 00
	00 00		 movzx	 eax, WORD PTR [edi+244]
  0037b	03 c8		 add	 ecx, eax
  0037d	b8 67 66 66 66	 mov	 eax, 1717986919		; 66666667H
  00382	f7 e9		 imul	 ecx
  00384	d1 fa		 sar	 edx, 1
  00386	8b f2		 mov	 esi, edx
  00388	c1 ee 1f	 shr	 esi, 31			; 0000001fH
  0038b	03 f2		 add	 esi, edx
  0038d	0f b7 97 fc 00
	00 00		 movzx	 edx, WORD PTR [edi+252]
  00394	0f b7 8f d0 00
	00 00		 movzx	 ecx, WORD PTR [edi+208]
  0039b	03 d1		 add	 edx, ecx
  0039d	b8 67 66 66 66	 mov	 eax, 1717986919		; 66666667H
  003a2	f7 ea		 imul	 edx
  003a4	c1 fa 02	 sar	 edx, 2
  003a7	8b ca		 mov	 ecx, edx
  003a9	c1 e9 1f	 shr	 ecx, 31			; 0000001fH
  003ac	03 f2		 add	 esi, edx
  003ae	03 ce		 add	 ecx, esi
  003b0	8b 87 c0 11 00
	00		 mov	 eax, DWORD PTR [edi+4544]
  003b6	8b 80 58 07 00
	00		 mov	 eax, DWORD PTR [eax+1880]
  003bc	8d 04 80	 lea	 eax, DWORD PTR [eax+eax*4]
  003bf	8d 04 41	 lea	 eax, DWORD PTR [ecx+eax*2]
$LN156@GetAttackD:

; 3552 : 					SkillLeftMaxDamage += addskilldamage;

  003c2	8b 75 dc	 mov	 esi, DWORD PTR _SkillLeftMaxDamage$[ebp]

; 3549 : 
; 3550 : 					SkillRightMaxDamage += addskilldamage;

  003c5	03 d8		 add	 ebx, eax

; 3551 : 					SkillRightMinDamage += addskilldamage;

  003c7	01 45 e4	 add	 DWORD PTR _SkillRightMinDamage$1$[ebp], eax

; 3552 : 					SkillLeftMaxDamage += addskilldamage;

  003ca	03 f0		 add	 esi, eax

; 3553 : 					SkillLeftMinDamage += addskilldamage;

  003cc	8b 4d e0	 mov	 ecx, DWORD PTR _SkillLeftMinDamage$1$[ebp]
  003cf	03 c8		 add	 ecx, eax
  003d1	89 4d e0	 mov	 DWORD PTR _SkillLeftMinDamage$1$[ebp], ecx
  003d4	89 4d d8	 mov	 DWORD PTR _SkillLeftMinDamage$[ebp], ecx
$LN154@GetAttackD:
  003d7	8b 4d 18	 mov	 ecx, DWORD PTR _lpMagic$[ebp]

; 3552 : 					SkillLeftMaxDamage += addskilldamage;

  003da	89 75 dc	 mov	 DWORD PTR _SkillLeftMaxDamage$[ebp], esi

; 3549 : 
; 3550 : 					SkillRightMaxDamage += addskilldamage;

  003dd	89 5d d4	 mov	 DWORD PTR _SkillRightMaxDamage$[ebp], ebx
$LN134@GetAttackD:

; 3575 : 			}
; 3576 : 			
; 3577 : 			
; 3578 : 			if ( lpObj->Class == CLASS_ELF && 

  003e0	66 83 bf 90 00
	00 00 02	 cmp	 WORD PTR [edi+144], 2
  003e8	75 52		 jne	 SHORT $LN135@GetAttackD
  003ea	8b 41 08	 mov	 eax, DWORD PTR [ecx+8]
  003ed	3d eb 00 00 00	 cmp	 eax, 235		; 000000ebH
  003f2	74 0e		 je	 SHORT $LN36@GetAttackD
  003f4	3d 9b 01 00 00	 cmp	 eax, 411		; 0000019bH
  003f9	74 07		 je	 SHORT $LN36@GetAttackD
  003fb	3d af 01 00 00	 cmp	 eax, 431		; 000001afH
  00400	75 3a		 jne	 SHORT $LN135@GetAttackD
$LN36@GetAttackD:

; 3579 : 				(lpMagic->m_Skill == AT_SKILL_MULTISHOT ||
; 3580 : 				 lpMagic->m_Skill == AT_MSKILL_FE_MULTISHOT1 ||
; 3581 : 				 lpMagic->m_Skill == AT_MSKILL_FE_MULTISHOT2) )
; 3582 : 			{
; 3583 : 				SkillLeftMaxDamage = SkillLeftMaxDamage * 80 / 100;

  00402	8d 0c b6	 lea	 ecx, DWORD PTR [esi+esi*4]
  00405	c1 e1 04	 shl	 ecx, 4
  00408	b8 1f 85 eb 51	 mov	 eax, 1374389535		; 51eb851fH
  0040d	f7 e9		 imul	 ecx
  0040f	c1 fa 05	 sar	 edx, 5
  00412	8b f2		 mov	 esi, edx
  00414	c1 ee 1f	 shr	 esi, 31			; 0000001fH
  00417	03 f2		 add	 esi, edx
  00419	89 75 dc	 mov	 DWORD PTR _SkillLeftMaxDamage$[ebp], esi

; 3584 : 				SkillLeftMinDamage = SkillLeftMinDamage * 80 / 100;

  0041c	8b 4d e0	 mov	 ecx, DWORD PTR _SkillLeftMinDamage$1$[ebp]
  0041f	8d 0c 89	 lea	 ecx, DWORD PTR [ecx+ecx*4]
  00422	c1 e1 04	 shl	 ecx, 4
  00425	b8 1f 85 eb 51	 mov	 eax, 1374389535		; 51eb851fH
  0042a	f7 e9		 imul	 ecx
  0042c	c1 fa 05	 sar	 edx, 5
  0042f	8b ca		 mov	 ecx, edx
  00431	c1 e9 1f	 shr	 ecx, 31			; 0000001fH
  00434	03 ca		 add	 ecx, edx
  00436	89 4d e0	 mov	 DWORD PTR _SkillLeftMinDamage$1$[ebp], ecx
  00439	89 4d d8	 mov	 DWORD PTR _SkillLeftMinDamage$[ebp], ecx
$LN135@GetAttackD:

; 3585 : 			}
; 3586 : 		}
; 3587 : 
; 3588 : 		if ( lpObj->m_CriticalDamage > 0 )

  0043c	83 bf 9c 06 00
	00 00		 cmp	 DWORD PTR [edi+1692], 0
  00443	7e 25		 jle	 SHORT $LN137@GetAttackD

; 3589 : 		{
; 3590 : 			if ( (rand()%100) < lpObj->m_CriticalDamage )

  00445	e8 00 00 00 00	 call	 _rand
  0044a	99		 cdq
  0044b	b9 64 00 00 00	 mov	 ecx, 100		; 00000064H
  00450	f7 f9		 idiv	 ecx
  00452	3b 97 9c 06 00
	00		 cmp	 edx, DWORD PTR [edi+1692]
  00458	7d 10		 jge	 SHORT $LN137@GetAttackD

; 3591 : 			{
; 3592 : 				cDamage = TRUE;

  0045a	c7 45 b8 01 00
	00 00		 mov	 DWORD PTR _cDamage$2[ebp], 1

; 3593 : 				effect = 3;

  00461	8b 45 10	 mov	 eax, DWORD PTR _effect$[ebp]
  00464	c7 00 03 00 00
	00		 mov	 DWORD PTR [eax], 3
$LN137@GetAttackD:

; 3594 : 			}
; 3595 : 		}
; 3596 : 
; 3597 : 		if ( lpObj->m_ExcelentDamage > 0 )

  0046a	83 bf a0 06 00
	00 00		 cmp	 DWORD PTR [edi+1696], 0
  00471	7e 25		 jle	 SHORT $LN40@GetAttackD

; 3598 : 		{
; 3599 : 			if ( (rand()%100) < lpObj->m_ExcelentDamage )

  00473	e8 00 00 00 00	 call	 _rand
  00478	99		 cdq
  00479	b9 64 00 00 00	 mov	 ecx, 100		; 00000064H
  0047e	f7 f9		 idiv	 ecx
  00480	3b 97 a0 06 00
	00		 cmp	 edx, DWORD PTR [edi+1696]
  00486	7d 10		 jge	 SHORT $LN40@GetAttackD

; 3600 : 			{
; 3601 : 				cDamage = TRUE;

  00488	c7 45 b8 01 00
	00 00		 mov	 DWORD PTR _cDamage$2[ebp], 1

; 3602 : 				effect = 2;

  0048f	8b 45 10	 mov	 eax, DWORD PTR _effect$[ebp]
  00492	c7 00 02 00 00
	00		 mov	 DWORD PTR [eax], 2
$LN40@GetAttackD:

; 3603 : 			}
; 3604 : 		}
; 3605 : 
; 3606 : 		int AddDmgMin = 0;

  00498	c7 45 18 00 00
	00 00		 mov	 DWORD PTR _AddDmgMin$6[ebp], 0

; 3607 : 		int AddDmgMax = 0;

  0049f	c7 45 d0 00 00
	00 00		 mov	 DWORD PTR _AddDmgMax$4[ebp], 0

; 3608 : 
; 3609 : 		if( gObjCheckUsedBuffEffect( lpObj,BUFF_BERSERKER ) == TRUE )

  004a6	6a 51		 push	 81			; 00000051H
  004a8	57		 push	 edi
  004a9	e8 00 00 00 00	 call	 ?gObjCheckUsedBuffEffect@@YA_NPAUOBJECTSTRUCT@@H@Z ; gObjCheckUsedBuffEffect
  004ae	83 c4 08	 add	 esp, 8
  004b1	3c 01		 cmp	 al, 1
  004b3	75 13		 jne	 SHORT $LN41@GetAttackD

; 3610 : 		{
; 3611 : 			this->GetBuffTypePhysicalIncrease( lpObj, AddDmgMin,AddDmgMax, BUFF_BERSERKER );

  004b5	6a 51		 push	 81			; 00000051H
  004b7	8d 45 d0	 lea	 eax, DWORD PTR _AddDmgMax$4[ebp]
  004ba	50		 push	 eax
  004bb	8d 45 18	 lea	 eax, DWORD PTR _AddDmgMin$6[ebp]
  004be	50		 push	 eax
  004bf	57		 push	 edi
  004c0	8b 4d cc	 mov	 ecx, DWORD PTR _this$1$[ebp]
  004c3	e8 00 00 00 00	 call	 ?GetBuffTypePhysicalIncrease@CObjAttack@@QAE_NPAUOBJECTSTRUCT@@AAH1H@Z ; CObjAttack::GetBuffTypePhysicalIncrease
$LN41@GetAttackD:

; 3612 : 		}
; 3613 : 
; 3614 : 		if( gObjCheckUsedBuffEffect( lpObj,BUFF_BERSERKER2 ) == TRUE )

  004c8	68 96 00 00 00	 push	 150			; 00000096H
  004cd	57		 push	 edi
  004ce	e8 00 00 00 00	 call	 ?gObjCheckUsedBuffEffect@@YA_NPAUOBJECTSTRUCT@@H@Z ; gObjCheckUsedBuffEffect
  004d3	83 c4 08	 add	 esp, 8
  004d6	3c 01		 cmp	 al, 1
  004d8	75 16		 jne	 SHORT $LN42@GetAttackD

; 3615 : 		{
; 3616 : 			this->GetBuffTypePhysicalIncrease( lpObj, AddDmgMin,AddDmgMax, BUFF_BERSERKER2 );

  004da	68 96 00 00 00	 push	 150			; 00000096H
  004df	8d 45 d0	 lea	 eax, DWORD PTR _AddDmgMax$4[ebp]
  004e2	50		 push	 eax
  004e3	8d 45 18	 lea	 eax, DWORD PTR _AddDmgMin$6[ebp]
  004e6	50		 push	 eax
  004e7	57		 push	 edi
  004e8	8b 4d cc	 mov	 ecx, DWORD PTR _this$1$[ebp]
  004eb	e8 00 00 00 00	 call	 ?GetBuffTypePhysicalIncrease@CObjAttack@@QAE_NPAUOBJECTSTRUCT@@AAH1H@Z ; CObjAttack::GetBuffTypePhysicalIncrease
$LN42@GetAttackD:

; 3617 : 		}
; 3618 : 
; 3619 : 		if( gObjCheckUsedBuffEffect( lpObj,BUFF_BERSERKER3 ) == TRUE )

  004f0	68 97 00 00 00	 push	 151			; 00000097H
  004f5	57		 push	 edi
  004f6	e8 00 00 00 00	 call	 ?gObjCheckUsedBuffEffect@@YA_NPAUOBJECTSTRUCT@@H@Z ; gObjCheckUsedBuffEffect
  004fb	83 c4 08	 add	 esp, 8
  004fe	3c 01		 cmp	 al, 1
  00500	75 16		 jne	 SHORT $LN43@GetAttackD

; 3620 : 		{
; 3621 : 			this->GetBuffTypePhysicalIncrease( lpObj, AddDmgMin,AddDmgMax, BUFF_BERSERKER3 );

  00502	68 97 00 00 00	 push	 151			; 00000097H
  00507	8d 45 d0	 lea	 eax, DWORD PTR _AddDmgMax$4[ebp]
  0050a	50		 push	 eax
  0050b	8d 45 18	 lea	 eax, DWORD PTR _AddDmgMin$6[ebp]
  0050e	50		 push	 eax
  0050f	57		 push	 edi
  00510	8b 4d cc	 mov	 ecx, DWORD PTR _this$1$[ebp]
  00513	e8 00 00 00 00	 call	 ?GetBuffTypePhysicalIncrease@CObjAttack@@QAE_NPAUOBJECTSTRUCT@@AAH1H@Z ; CObjAttack::GetBuffTypePhysicalIncrease
$LN43@GetAttackD:

; 3622 : 		}
; 3623 : 
; 3624 : 		if( gObjCheckUsedBuffEffect( lpObj,BUFF_BERSERKER4 ) == TRUE )

  00518	68 98 00 00 00	 push	 152			; 00000098H
  0051d	57		 push	 edi
  0051e	e8 00 00 00 00	 call	 ?gObjCheckUsedBuffEffect@@YA_NPAUOBJECTSTRUCT@@H@Z ; gObjCheckUsedBuffEffect
  00523	83 c4 08	 add	 esp, 8
  00526	3c 01		 cmp	 al, 1
  00528	75 16		 jne	 SHORT $LN44@GetAttackD

; 3625 : 		{
; 3626 : 			this->GetBuffTypePhysicalIncrease( lpObj, AddDmgMin,AddDmgMax, BUFF_BERSERKER4 );

  0052a	68 98 00 00 00	 push	 152			; 00000098H
  0052f	8d 45 d0	 lea	 eax, DWORD PTR _AddDmgMax$4[ebp]
  00532	50		 push	 eax
  00533	8d 45 18	 lea	 eax, DWORD PTR _AddDmgMin$6[ebp]
  00536	50		 push	 eax
  00537	57		 push	 edi
  00538	8b 4d cc	 mov	 ecx, DWORD PTR _this$1$[ebp]
  0053b	e8 00 00 00 00	 call	 ?GetBuffTypePhysicalIncrease@CObjAttack@@QAE_NPAUOBJECTSTRUCT@@AAH1H@Z ; CObjAttack::GetBuffTypePhysicalIncrease
$LN44@GetAttackD:

; 3627 : 		}
; 3628 : 
; 3629 : 		__try

  00540	9b		 fwait
  00541	c7 45 fc 00 00
	00 00		 mov	 DWORD PTR __$SEHRec$[ebp+20], 0

; 3630 : 		{
; 3631 : 			sub = ( lpObj->m_AttackDamageMaxRight + SkillRightMaxDamage + AddDmgMax) - ( lpObj->m_AttackDamageMinRight + SkillRightMinDamage + AddDmgMin );	// #formula

  00548	8b 87 60 06 00
	00		 mov	 eax, DWORD PTR [edi+1632]
  0054e	2b 87 64 06 00
	00		 sub	 eax, DWORD PTR [edi+1636]
  00554	2b 45 18	 sub	 eax, DWORD PTR _AddDmgMin$6[ebp]
  00557	2b 45 e4	 sub	 eax, DWORD PTR _SkillRightMinDamage$1$[ebp]
  0055a	03 45 d0	 add	 eax, DWORD PTR _AddDmgMax$4[ebp]
  0055d	03 c3		 add	 eax, ebx
  0055f	89 45 c4	 mov	 DWORD PTR _sub$[ebp], eax

; 3632 : 			lpObj->m_AttackDamageRight = ( lpObj->m_AttackDamageMinRight + SkillRightMinDamage + AddDmgMin ) + (rand()%(sub+1));

  00562	e8 00 00 00 00	 call	 _rand
  00567	8b 4d c4	 mov	 ecx, DWORD PTR _sub$[ebp]
  0056a	41		 inc	 ecx
  0056b	99		 cdq
  0056c	f7 f9		 idiv	 ecx
  0056e	03 97 64 06 00
	00		 add	 edx, DWORD PTR [edi+1636]
  00574	03 55 18	 add	 edx, DWORD PTR _AddDmgMin$6[ebp]
  00577	03 55 e4	 add	 edx, DWORD PTR _SkillRightMinDamage$1$[ebp]
  0057a	89 97 54 06 00
	00		 mov	 DWORD PTR [edi+1620], edx

; 3633 : 		}

  00580	9b		 fwait
  00581	c7 45 fc fe ff
	ff ff		 mov	 DWORD PTR __$SEHRec$[ebp+20], -2 ; fffffffeH
  00588	8b 4d e0	 mov	 ecx, DWORD PTR _SkillLeftMinDamage$1$[ebp]
  0058b	eb 26		 jmp	 SHORT $LN125@GetAttackD
$LN122@GetAttackD:
$LN170@GetAttackD:

; 3634 : 		__except ( sub=1, 1 )

  0058d	c7 45 c4 01 00
	00 00		 mov	 DWORD PTR _sub$[ebp], 1
  00594	b8 01 00 00 00	 mov	 eax, 1
$LN151@GetAttackD:
$LN124@GetAttackD:
  00599	c3		 ret	 0
$LN123@GetAttackD:
  0059a	8b 65 e8	 mov	 esp, DWORD PTR __$SEHRec$[ebp]

; 3633 : 		}

  0059d	c7 45 fc fe ff
	ff ff		 mov	 DWORD PTR __$SEHRec$[ebp+20], -2 ; fffffffeH
  005a4	8b 7d 08	 mov	 edi, DWORD PTR _lpObj$[ebp]
  005a7	8b 5d d4	 mov	 ebx, DWORD PTR _SkillRightMaxDamage$[ebp]
  005aa	8b 75 dc	 mov	 esi, DWORD PTR _SkillLeftMaxDamage$[ebp]
  005ad	8b 4d d8	 mov	 ecx, DWORD PTR _SkillLeftMinDamage$[ebp]
  005b0	89 4d e0	 mov	 DWORD PTR _SkillLeftMinDamage$1$[ebp], ecx
$LN125@GetAttackD:

; 3635 : 		{
; 3636 : 
; 3637 : 		}
; 3638 : 
; 3639 : 		__try

  005b3	9b		 fwait
  005b4	c7 45 fc 01 00
	00 00		 mov	 DWORD PTR __$SEHRec$[ebp+20], 1

; 3640 : 		{
; 3641 : 			sub = ( lpObj->m_AttackDamageMaxLeft + SkillLeftMaxDamage + AddDmgMax ) - ( lpObj->m_AttackDamageMinLeft + SkillLeftMinDamage + AddDmgMin );	// #formula

  005bb	8b 87 58 06 00
	00		 mov	 eax, DWORD PTR [edi+1624]
  005c1	2b 87 5c 06 00
	00		 sub	 eax, DWORD PTR [edi+1628]
  005c7	2b 45 18	 sub	 eax, DWORD PTR _AddDmgMin$6[ebp]
  005ca	2b c1		 sub	 eax, ecx
  005cc	03 45 d0	 add	 eax, DWORD PTR _AddDmgMax$4[ebp]
  005cf	03 c6		 add	 eax, esi
  005d1	89 45 c4	 mov	 DWORD PTR _sub$[ebp], eax

; 3642 : 			lpObj->m_AttackDamageLeft = ( lpObj->m_AttackDamageMinLeft + SkillLeftMinDamage + AddDmgMin ) + (rand()%(sub+1));

  005d4	e8 00 00 00 00	 call	 _rand
  005d9	8b 4d c4	 mov	 ecx, DWORD PTR _sub$[ebp]
  005dc	41		 inc	 ecx
  005dd	99		 cdq
  005de	f7 f9		 idiv	 ecx
  005e0	03 97 5c 06 00
	00		 add	 edx, DWORD PTR [edi+1628]
  005e6	03 55 18	 add	 edx, DWORD PTR _AddDmgMin$6[ebp]
  005e9	03 55 e0	 add	 edx, DWORD PTR _SkillLeftMinDamage$1$[ebp]
  005ec	89 97 50 06 00
	00		 mov	 DWORD PTR [edi+1616], edx

; 3643 : 		}

  005f2	9b		 fwait
  005f3	c7 45 fc fe ff
	ff ff		 mov	 DWORD PTR __$SEHRec$[ebp+20], -2 ; fffffffeH
  005fa	eb 20		 jmp	 SHORT $LN129@GetAttackD
$LN126@GetAttackD:
$LN171@GetAttackD:

; 3644 : 		__except ( sub=1, 1 )

  005fc	c7 45 c4 01 00
	00 00		 mov	 DWORD PTR _sub$[ebp], 1
  00603	b8 01 00 00 00	 mov	 eax, 1
$LN152@GetAttackD:
$LN128@GetAttackD:
  00608	c3		 ret	 0
$LN127@GetAttackD:
  00609	8b 65 e8	 mov	 esp, DWORD PTR __$SEHRec$[ebp]

; 3643 : 		}

  0060c	c7 45 fc fe ff
	ff ff		 mov	 DWORD PTR __$SEHRec$[ebp+20], -2 ; fffffffeH
  00613	8b 7d 08	 mov	 edi, DWORD PTR _lpObj$[ebp]
  00616	8b 5d d4	 mov	 ebx, DWORD PTR _SkillRightMaxDamage$[ebp]
  00619	8b 75 dc	 mov	 esi, DWORD PTR _SkillLeftMaxDamage$[ebp]
$LN129@GetAttackD:

; 3645 : 		{
; 3646 : 
; 3647 : 		}
; 3648 : 
; 3649 : 		if ( cDamage )

  0061c	83 7d b8 00	 cmp	 DWORD PTR _cDamage$2[ebp], 0
  00620	0f 84 2b 01 00
	00		 je	 $LN150@GetAttackD

; 3650 : 		{
; 3651 : 			lpObj->m_AttackDamageRight = lpObj->m_AttackDamageMaxRight + SkillRightMaxDamage+ AddDmgMax;
; 3652 : 			lpObj->m_AttackDamageLeft = lpObj->m_AttackDamageMaxLeft + SkillLeftMaxDamage+AddDmgMin;
; 3653 : 
; 3654 : 			lpObj->m_AttackDamageRight += lpObj->SetOpAddCriticalDamage;

  00626	0f bf 97 b8 14
	00 00		 movsx	 edx, WORD PTR [edi+5304]

; 3655 : 			lpObj->m_AttackDamageLeft += lpObj->SetOpAddCriticalDamage;
; 3656 : 
; 3657 : 			lpObj->m_AttackDamageRight += lpObj->m_JewelOfHarmonyEffect.HJOpAddCriticalDamage;

  0062d	0f bf 8f 36 24
	00 00		 movsx	 ecx, WORD PTR [edi+9270]
  00634	8d 04 11	 lea	 eax, DWORD PTR [ecx+edx]
  00637	03 45 d0	 add	 eax, DWORD PTR _AddDmgMax$4[ebp]
  0063a	03 c3		 add	 eax, ebx
  0063c	03 87 60 06 00
	00		 add	 eax, DWORD PTR [edi+1632]
  00642	89 87 54 06 00
	00		 mov	 DWORD PTR [edi+1620], eax

; 3658 : 			lpObj->m_AttackDamageLeft += lpObj->m_JewelOfHarmonyEffect.HJOpAddCriticalDamage;

  00648	8b 87 58 06 00
	00		 mov	 eax, DWORD PTR [edi+1624]
  0064e	03 c1		 add	 eax, ecx
  00650	03 c2		 add	 eax, edx
  00652	03 45 18	 add	 eax, DWORD PTR _AddDmgMin$6[ebp]
  00655	03 c6		 add	 eax, esi
  00657	89 87 50 06 00
	00		 mov	 DWORD PTR [edi+1616], eax

; 3659 : 
; 3660 : 			int AddCriticalDmg = 0;

  0065d	c7 45 cc 00 00
	00 00		 mov	 DWORD PTR _AddCriticalDmg$3[ebp], 0

; 3661 : 
; 3662 : 			gObjGetValueOfBuffIndex(lpObj,BUFF_ADD_CRITDMG,&AddCriticalDmg,0);

  00664	6a 00		 push	 0
  00666	8d 45 cc	 lea	 eax, DWORD PTR _AddCriticalDmg$3[ebp]
  00669	50		 push	 eax
  0066a	6a 05		 push	 5
  0066c	57		 push	 edi
  0066d	e8 00 00 00 00	 call	 ?gObjGetValueOfBuffIndex@@YA_NPAUOBJECTSTRUCT@@HPAH1@Z ; gObjGetValueOfBuffIndex

; 3663 : 
; 3664 : 			lpObj->m_AttackDamageRight += AddCriticalDmg;

  00672	8b 45 cc	 mov	 eax, DWORD PTR _AddCriticalDmg$3[ebp]
  00675	01 87 54 06 00
	00		 add	 DWORD PTR [edi+1620], eax

; 3665 : 			lpObj->m_AttackDamageLeft += AddCriticalDmg;

  0067b	01 87 50 06 00
	00		 add	 DWORD PTR [edi+1616], eax

; 3666 : 
; 3667 : 			gObjGetValueOfBuffIndex(lpObj,BUFF_ADD_CRITDMG2,&AddCriticalDmg,0);

  00681	6a 00		 push	 0
  00683	8d 45 cc	 lea	 eax, DWORD PTR _AddCriticalDmg$3[ebp]
  00686	50		 push	 eax
  00687	68 94 00 00 00	 push	 148			; 00000094H
  0068c	57		 push	 edi
  0068d	e8 00 00 00 00	 call	 ?gObjGetValueOfBuffIndex@@YA_NPAUOBJECTSTRUCT@@HPAH1@Z ; gObjGetValueOfBuffIndex

; 3668 : 
; 3669 : 			lpObj->m_AttackDamageRight += AddCriticalDmg;

  00692	8b 45 cc	 mov	 eax, DWORD PTR _AddCriticalDmg$3[ebp]
  00695	01 87 54 06 00
	00		 add	 DWORD PTR [edi+1620], eax

; 3670 : 			lpObj->m_AttackDamageLeft += AddCriticalDmg;

  0069b	01 87 50 06 00
	00		 add	 DWORD PTR [edi+1616], eax

; 3671 : 
; 3672 : 			gObjGetValueOfBuffIndex(lpObj,BUFF_ADD_CRITDMG3,&AddCriticalDmg,0);

  006a1	6a 00		 push	 0
  006a3	8d 45 cc	 lea	 eax, DWORD PTR _AddCriticalDmg$3[ebp]
  006a6	50		 push	 eax
  006a7	68 95 00 00 00	 push	 149			; 00000095H
  006ac	57		 push	 edi
  006ad	e8 00 00 00 00	 call	 ?gObjGetValueOfBuffIndex@@YA_NPAUOBJECTSTRUCT@@HPAH1@Z ; gObjGetValueOfBuffIndex
  006b2	83 c4 30	 add	 esp, 48			; 00000030H

; 3673 : 
; 3674 : 			lpObj->m_AttackDamageRight += AddCriticalDmg;

  006b5	8b 45 cc	 mov	 eax, DWORD PTR _AddCriticalDmg$3[ebp]
  006b8	01 87 54 06 00
	00		 add	 DWORD PTR [edi+1620], eax

; 3675 : 			lpObj->m_AttackDamageLeft += AddCriticalDmg;

  006be	01 87 50 06 00
	00		 add	 DWORD PTR [edi+1616], eax

; 3676 : 
; 3677 : 			
; 3678 : 
; 3679 : 			if ( effect == 2 )

  006c4	8b 45 10	 mov	 eax, DWORD PTR _effect$[ebp]
  006c7	83 38 02	 cmp	 DWORD PTR [eax], 2
  006ca	0f 85 81 00 00
	00		 jne	 $LN150@GetAttackD

; 3683 : 
; 3684 : 				lpObj->m_AttackDamageRight += lpObj->SetOpAddExDamage;

  006d0	0f bf b7 b4 14
	00 00		 movsx	 esi, WORD PTR [edi+5300]
  006d7	8b 87 60 06 00
	00		 mov	 eax, DWORD PTR [edi+1632]
  006dd	03 c3		 add	 eax, ebx

; 3680 : 			{
; 3681 : 				lpObj->m_AttackDamageRight += ( lpObj->m_AttackDamageMaxRight + SkillRightMaxDamage ) * 20 / 100;

  006df	8d 0c 80	 lea	 ecx, DWORD PTR [eax+eax*4]
  006e2	c1 e1 02	 shl	 ecx, 2
  006e5	b8 1f 85 eb 51	 mov	 eax, 1374389535		; 51eb851fH
  006ea	f7 e9		 imul	 ecx
  006ec	c1 fa 05	 sar	 edx, 5
  006ef	8b c2		 mov	 eax, edx
  006f1	c1 e8 1f	 shr	 eax, 31			; 0000001fH
  006f4	03 c2		 add	 eax, edx

; 3683 : 
; 3684 : 				lpObj->m_AttackDamageRight += lpObj->SetOpAddExDamage;

  006f6	03 c6		 add	 eax, esi
  006f8	01 87 54 06 00
	00		 add	 DWORD PTR [edi+1620], eax

; 3685 : 				lpObj->m_AttackDamageLeft += lpObj->SetOpAddExDamage;

  006fe	8b 87 58 06 00
	00		 mov	 eax, DWORD PTR [edi+1624]
  00704	03 45 dc	 add	 eax, DWORD PTR _SkillLeftMaxDamage$[ebp]

; 3682 : 				lpObj->m_AttackDamageLeft += ( lpObj->m_AttackDamageMaxLeft + SkillLeftMaxDamage ) * 20 / 100;

  00707	8d 0c 80	 lea	 ecx, DWORD PTR [eax+eax*4]
  0070a	c1 e1 02	 shl	 ecx, 2
  0070d	b8 1f 85 eb 51	 mov	 eax, 1374389535		; 51eb851fH
  00712	f7 e9		 imul	 ecx
  00714	c1 fa 05	 sar	 edx, 5
  00717	8b c2		 mov	 eax, edx
  00719	c1 e8 1f	 shr	 eax, 31			; 0000001fH
  0071c	03 c2		 add	 eax, edx

; 3685 : 				lpObj->m_AttackDamageLeft += lpObj->SetOpAddExDamage;

  0071e	03 c6		 add	 eax, esi
  00720	01 87 50 06 00
	00		 add	 DWORD PTR [edi+1616], eax
  00726	eb 29		 jmp	 SHORT $LN150@GetAttackD
$LN10@GetAttackD:

; 3436 : 	{
; 3437 : 		int AttackMin = 0;
; 3438 : 		sub = lpObj->m_AttackDamageMax - lpObj->m_AttackDamageMin;

  00728	8b b7 44 06 00
	00		 mov	 esi, DWORD PTR [edi+1604]
  0072e	2b b7 40 06 00
	00		 sub	 esi, DWORD PTR [edi+1600]

; 3439 : 		AttackMin = lpObj->m_AttackDamageMin + (rand()%(sub+1));

  00734	e8 00 00 00 00	 call	 _rand
  00739	8d 4e 01	 lea	 ecx, DWORD PTR [esi+1]
  0073c	99		 cdq
  0073d	f7 f9		 idiv	 ecx
  0073f	03 97 40 06 00
	00		 add	 edx, DWORD PTR [edi+1600]

; 3440 : 		lpObj->m_AttackDamageRight = AttackMin;

  00745	89 97 54 06 00
	00		 mov	 DWORD PTR [edi+1620], edx

; 3441 : 		lpObj->m_AttackDamageLeft = AttackMin;

  0074b	89 97 50 06 00
	00		 mov	 DWORD PTR [edi+1616], edx
$LN150@GetAttackD:
  00751	bb 00 08 00 00	 mov	 ebx, 2048		; 00000800H

; 3686 : 			}
; 3687 : 
; 3688 : #if (CUSTOM_EXOPT==1)
; 3689 : 
; 3690 : 			if( effect == 3 )
; 3691 : 			{
; 3692 : 				if( lpObj->m_CriticalDamageMul > 0 )
; 3693 : 				{
; 3694 : 					lpObj->m_AttackDamageRight += ( lpObj->m_AttackDamageMaxRight + SkillRightMaxDamage ) * lpObj->m_CriticalDamageMul / 100;
; 3695 : 					lpObj->m_AttackDamageLeft += ( lpObj->m_AttackDamageMaxLeft + SkillLeftMaxDamage ) * lpObj->m_CriticalDamageMul / 100;
; 3696 : 				}
; 3697 : 			}
; 3698 : 			else if( effect == 2 )
; 3699 : 			{
; 3700 : 				if( lpObj->m_ExcelentDamageMul > 0 )
; 3701 : 				{
; 3702 : 					lpObj->m_AttackDamageRight += ( lpObj->m_AttackDamageMaxRight + SkillRightMaxDamage ) * lpObj->m_ExcelentDamageMul / 100;
; 3703 : 					lpObj->m_AttackDamageLeft += ( lpObj->m_AttackDamageMaxLeft + SkillLeftMaxDamage ) * lpObj->m_ExcelentDamageMul / 100;
; 3704 : 				}
; 3705 : 			}
; 3706 : 
; 3707 : #endif
; 3708 : 		}
; 3709 : 	}
; 3710 : 
; 3711 : 	if ( bTwoHandWeapon )

  00756	83 7d c8 00	 cmp	 DWORD PTR _bTwoHandWeapon$[ebp], 0
  0075a	74 5b		 je	 SHORT $LN49@GetAttackD

; 3712 : 	{
; 3713 : 		if ( bIsOnDuel )

  0075c	83 7d 14 00	 cmp	 DWORD PTR _bIsOnDuel$[ebp], 0
  00760	74 38		 je	 SHORT $LN51@GetAttackD

; 3714 : 		{
; 3715 : 			ad = ( lpObj->m_AttackDamageRight + lpObj->m_AttackDamageLeft ) * 60 / 100 - targetDefense;

  00762	8b 87 54 06 00
	00		 mov	 eax, DWORD PTR [edi+1620]
  00768	03 87 50 06 00
	00		 add	 eax, DWORD PTR [edi+1616]
  0076e	8b c8		 mov	 ecx, eax
  00770	c1 e1 04	 shl	 ecx, 4
  00773	2b c8		 sub	 ecx, eax
  00775	c1 e1 02	 shl	 ecx, 2
  00778	b8 1f 85 eb 51	 mov	 eax, 1374389535		; 51eb851fH
  0077d	f7 e9		 imul	 ecx
  0077f	c1 fa 05	 sar	 edx, 5
  00782	8b da		 mov	 ebx, edx
  00784	c1 eb 1f	 shr	 ebx, 31			; 0000001fH
  00787	03 da		 add	 ebx, edx

; 3716 : 		}
; 3717 : 		else
; 3718 : 		{
; 3719 : 			ad = ( lpObj->m_AttackDamageRight + lpObj->m_AttackDamageLeft ) - targetDefense;

  00789	2b 5d 0c	 sub	 ebx, DWORD PTR _targetDefense$[ebp]

; 3720 : 		}
; 3721 : 
; 3722 : 		ad -= lpObj->SetOpAddCriticalDamage;

  0078c	0f bf 87 b8 14
	00 00		 movsx	 eax, WORD PTR [edi+5304]
  00793	2b d8		 sub	 ebx, eax

; 3723 : 	}
; 3724 : 	else if ( (Left->m_Type >= ITEMGET(4, 0) && Left->m_Type < ITEMGET(4, 7)) ||

  00795	e9 2f 02 00 00	 jmp	 $LN59@GetAttackD
$LN51@GetAttackD:

; 3716 : 		}
; 3717 : 		else
; 3718 : 		{
; 3719 : 			ad = ( lpObj->m_AttackDamageRight + lpObj->m_AttackDamageLeft ) - targetDefense;

  0079a	8b 9f 54 06 00
	00		 mov	 ebx, DWORD PTR [edi+1620]
  007a0	03 9f 50 06 00
	00		 add	 ebx, DWORD PTR [edi+1616]
  007a6	2b 5d 0c	 sub	 ebx, DWORD PTR _targetDefense$[ebp]

; 3720 : 		}
; 3721 : 
; 3722 : 		ad -= lpObj->SetOpAddCriticalDamage;

  007a9	0f bf 87 b8 14
	00 00		 movsx	 eax, WORD PTR [edi+5304]
  007b0	2b d8		 sub	 ebx, eax

; 3723 : 	}
; 3724 : 	else if ( (Left->m_Type >= ITEMGET(4, 0) && Left->m_Type < ITEMGET(4, 7)) ||

  007b2	e9 12 02 00 00	 jmp	 $LN59@GetAttackD
$LN49@GetAttackD:

; 3725 : 			 Left->m_Type == ITEMGET(4,20) ||
; 3726 : 			 Left->m_Type == ITEMGET(4,21) ||
; 3727 : 			 Left->m_Type == ITEMGET(4,22) ||

  007b7	8b 45 c0	 mov	 eax, DWORD PTR _Left$[ebp]
  007ba	0f b7 40 06	 movzx	 eax, WORD PTR [eax+6]
  007be	66 3b c3	 cmp	 ax, bx
  007c1	7c 0e		 jl	 SHORT $LN56@GetAttackD
  007c3	b9 07 08 00 00	 mov	 ecx, 2055		; 00000807H
  007c8	66 3b c1	 cmp	 ax, cx
  007cb	0f 8c a6 01 00
	00		 jl	 $LN55@GetAttackD
$LN56@GetAttackD:
  007d1	b9 14 08 00 00	 mov	 ecx, 2068		; 00000814H
  007d6	66 3b c1	 cmp	 ax, cx
  007d9	0f 84 98 01 00
	00		 je	 $LN55@GetAttackD
  007df	b9 15 08 00 00	 mov	 ecx, 2069		; 00000815H
  007e4	66 3b c1	 cmp	 ax, cx
  007e7	0f 84 8a 01 00
	00		 je	 $LN55@GetAttackD
  007ed	b9 16 08 00 00	 mov	 ecx, 2070		; 00000816H
  007f2	66 3b c1	 cmp	 ax, cx
  007f5	0f 84 7c 01 00
	00		 je	 $LN55@GetAttackD
  007fb	b9 17 08 00 00	 mov	 ecx, 2071		; 00000817H
  00800	66 3b c1	 cmp	 ax, cx
  00803	0f 84 6e 01 00
	00		 je	 $LN55@GetAttackD

; 3742 : 		}
; 3743 : 	}
; 3744 : 	else if ( (Right->m_Type >= ITEMGET(4, 8) && Right->m_Type < ITEMGET(4, 15)) ||

  00809	8b 4d bc	 mov	 ecx, DWORD PTR _Right$[ebp]
  0080c	0f b7 41 06	 movzx	 eax, WORD PTR [ecx+6]
  00810	ba 08 08 00 00	 mov	 edx, 2056		; 00000808H
  00815	66 3b c2	 cmp	 ax, dx
  00818	7c 0a		 jl	 SHORT $LN63@GetAttackD
  0081a	ba 0f 08 00 00	 mov	 edx, 2063		; 0000080fH
  0081f	66 3b c2	 cmp	 ax, dx
  00822	7c 14		 jl	 SHORT $LN62@GetAttackD
$LN63@GetAttackD:
  00824	ba 10 08 00 00	 mov	 edx, 2064		; 00000810H
  00829	be 00 0a 00 00	 mov	 esi, 2560		; 00000a00H
  0082e	66 3b c2	 cmp	 ax, dx
  00831	7c 4c		 jl	 SHORT $LN60@GetAttackD
  00833	66 3b c6	 cmp	 ax, si
  00836	7d 47		 jge	 SHORT $LN60@GetAttackD
$LN62@GetAttackD:

; 3745 : 			  ( Right->m_Type >= ITEMGET(4,16) && Right->m_Type < ITEMGET(5,0) )  )
; 3746 : 	{
; 3747 : 		if ( bIsOnDuel )

  00838	83 7d 14 00	 cmp	 DWORD PTR _bIsOnDuel$[ebp], 0
  0083c	74 2e		 je	 SHORT $LN64@GetAttackD

; 3748 : 		{
; 3749 : 			ad = ( lpObj->m_AttackDamageRight ) * 60 / 100 - targetDefense;

  0083e	8b 87 54 06 00
	00		 mov	 eax, DWORD PTR [edi+1620]
  00844	8b c8		 mov	 ecx, eax
  00846	c1 e1 04	 shl	 ecx, 4
  00849	2b c8		 sub	 ecx, eax
  0084b	c1 e1 02	 shl	 ecx, 2
  0084e	b8 1f 85 eb 51	 mov	 eax, 1374389535		; 51eb851fH
  00853	f7 e9		 imul	 ecx
  00855	c1 fa 05	 sar	 edx, 5
  00858	8b da		 mov	 ebx, edx
  0085a	c1 eb 1f	 shr	 ebx, 31			; 0000001fH
  0085d	03 da		 add	 ebx, edx

; 3754 : 		}
; 3755 : 
; 3756 : 		if( lpObj->m_MPSkillOpt.MpsCrossbowStrength > 0.0f )

  0085f	f3 0f 10 8f 44
	07 00 00	 movss	 xmm1, DWORD PTR [edi+1860]

; 3757 : 		{
; 3758 : 			ad += lpObj->m_MPSkillOpt.MpsCrossbowStrength;
; 3759 : 		}
; 3760 : 	}

  00867	e9 42 01 00 00	 jmp	 $LN167@GetAttackD
$LN64@GetAttackD:

; 3750 : 		}
; 3751 : 		else
; 3752 : 		{
; 3753 : 			ad = lpObj->m_AttackDamageRight - targetDefense;

  0086c	8b 9f 54 06 00
	00		 mov	 ebx, DWORD PTR [edi+1620]

; 3754 : 		}
; 3755 : 
; 3756 : 		if( lpObj->m_MPSkillOpt.MpsCrossbowStrength > 0.0f )

  00872	f3 0f 10 8f 44
	07 00 00	 movss	 xmm1, DWORD PTR [edi+1860]

; 3757 : 		{
; 3758 : 			ad += lpObj->m_MPSkillOpt.MpsCrossbowStrength;
; 3759 : 		}
; 3760 : 	}

  0087a	e9 2f 01 00 00	 jmp	 $LN167@GetAttackD
$LN60@GetAttackD:

; 3761 : 	else if ( Right->GetDetailItemType() == 0 || Left->GetDetailItemType() == 0 )

  0087f	e8 00 00 00 00	 call	 ?GetDetailItemType@CItem@@QAEHXZ ; CItem::GetDetailItemType
  00884	85 c0		 test	 eax, eax
  00886	0f 84 aa 00 00
	00		 je	 $LN69@GetAttackD
  0088c	8b 4d c0	 mov	 ecx, DWORD PTR _Left$[ebp]
  0088f	e8 00 00 00 00	 call	 ?GetDetailItemType@CItem@@QAEHXZ ; CItem::GetDetailItemType
  00894	85 c0		 test	 eax, eax
  00896	0f 84 9a 00 00
	00		 je	 $LN69@GetAttackD

; 3777 : 	else if ( Right->m_Type >= ITEMGET(0,0) && Right->m_Type < ITEMGET(4,0) )

  0089c	8b 45 bc	 mov	 eax, DWORD PTR _Right$[ebp]
  0089f	0f b7 40 06	 movzx	 eax, WORD PTR [eax+6]
  008a3	66 85 c0	 test	 ax, ax
  008a6	78 34		 js	 SHORT $LN73@GetAttackD
  008a8	66 3b c3	 cmp	 ax, bx
  008ab	7d 2f		 jge	 SHORT $LN73@GetAttackD
$LN163@GetAttackD:

; 3778 : 	{
; 3779 : 		if ( bIsOnDuel )

  008ad	83 7d 14 00	 cmp	 DWORD PTR _bIsOnDuel$[ebp], 0
  008b1	74 67		 je	 SHORT $LN79@GetAttackD

; 3780 : 		{
; 3781 : 			ad = ( lpObj->m_AttackDamageRight ) * 60 / 100 - targetDefense;

  008b3	8b 87 54 06 00
	00		 mov	 eax, DWORD PTR [edi+1620]
  008b9	8b c8		 mov	 ecx, eax
  008bb	c1 e1 04	 shl	 ecx, 4
  008be	2b c8		 sub	 ecx, eax
  008c0	c1 e1 02	 shl	 ecx, 2
  008c3	b8 1f 85 eb 51	 mov	 eax, 1374389535		; 51eb851fH
  008c8	f7 e9		 imul	 ecx
  008ca	c1 fa 05	 sar	 edx, 5
  008cd	8b da		 mov	 ebx, edx
  008cf	c1 eb 1f	 shr	 ebx, 31			; 0000001fH
  008d2	03 da		 add	 ebx, edx
  008d4	2b 5d 0c	 sub	 ebx, DWORD PTR _targetDefense$[ebp]

; 3782 : 		}
; 3783 : 		else

  008d7	e9 ed 00 00 00	 jmp	 $LN59@GetAttackD
$LN73@GetAttackD:

; 3784 : 		{
; 3785 : 			ad = lpObj->m_AttackDamageRight - targetDefense;
; 3786 : 		}
; 3787 : 	}
; 3788 : 	else if ( Right->m_Type >= ITEMGET(5,0) && Right->m_Type < ITEMGET(6,0) )

  008dc	66 3b c6	 cmp	 ax, si
  008df	7c 0a		 jl	 SHORT $LN77@GetAttackD
  008e1	b9 00 0c 00 00	 mov	 ecx, 3072		; 00000c00H
  008e6	66 3b c1	 cmp	 ax, cx
  008e9	7c c2		 jl	 SHORT $LN163@GetAttackD
$LN77@GetAttackD:

; 3798 : 	}
; 3799 : 	else if ( bIsOnDuel )

  008eb	83 7d 14 00	 cmp	 DWORD PTR _bIsOnDuel$[ebp], 0
  008ef	74 37		 je	 SHORT $LN81@GetAttackD

; 3800 : 	{
; 3801 : 		ad = ( lpObj->m_AttackDamageLeft ) * 60 / 100 - targetDefense;

  008f1	8b 87 50 06 00
	00		 mov	 eax, DWORD PTR [edi+1616]
  008f7	8b c8		 mov	 ecx, eax
  008f9	c1 e1 04	 shl	 ecx, 4
  008fc	2b c8		 sub	 ecx, eax
  008fe	c1 e1 02	 shl	 ecx, 2
  00901	b8 1f 85 eb 51	 mov	 eax, 1374389535		; 51eb851fH
  00906	f7 e9		 imul	 ecx
  00908	c1 fa 05	 sar	 edx, 5
  0090b	8b da		 mov	 ebx, edx
  0090d	c1 eb 1f	 shr	 ebx, 31			; 0000001fH
  00910	03 da		 add	 ebx, edx
  00912	2b 5d 0c	 sub	 ebx, DWORD PTR _targetDefense$[ebp]

; 3802 : 	}
; 3803 : 	else

  00915	e9 af 00 00 00	 jmp	 $LN59@GetAttackD
$LN79@GetAttackD:

; 3789 : 	{
; 3790 : 		if ( bIsOnDuel )
; 3791 : 		{
; 3792 : 			ad = ( lpObj->m_AttackDamageRight ) * 60 / 100 - targetDefense;
; 3793 : 		}
; 3794 : 		else
; 3795 : 		{
; 3796 : 			ad = lpObj->m_AttackDamageRight - targetDefense;

  0091a	8b 9f 54 06 00
	00		 mov	 ebx, DWORD PTR [edi+1620]
  00920	2b 5d 0c	 sub	 ebx, DWORD PTR _targetDefense$[ebp]

; 3797 : 		}

  00923	e9 a1 00 00 00	 jmp	 $LN59@GetAttackD
$LN81@GetAttackD:

; 3804 : 	{
; 3805 : 		ad = lpObj->m_AttackDamageLeft - targetDefense;

  00928	8b 9f 50 06 00
	00		 mov	 ebx, DWORD PTR [edi+1616]
  0092e	2b 5d 0c	 sub	 ebx, DWORD PTR _targetDefense$[ebp]
  00931	e9 93 00 00 00	 jmp	 $LN59@GetAttackD
$LN69@GetAttackD:

; 3762 : 	{
; 3763 : 		if ( bIsOnDuel )

  00936	83 7d 14 00	 cmp	 DWORD PTR _bIsOnDuel$[ebp], 0
  0093a	74 2b		 je	 SHORT $LN70@GetAttackD

; 3764 : 		{
; 3765 : 			ad = ( lpObj->m_AttackDamageRight ) * 60 / 100 - targetDefense;

  0093c	8b 87 54 06 00
	00		 mov	 eax, DWORD PTR [edi+1620]
  00942	8b c8		 mov	 ecx, eax
  00944	c1 e1 04	 shl	 ecx, 4
  00947	2b c8		 sub	 ecx, eax
  00949	c1 e1 02	 shl	 ecx, 2
  0094c	b8 1f 85 eb 51	 mov	 eax, 1374389535		; 51eb851fH
  00951	f7 e9		 imul	 ecx
  00953	c1 fa 05	 sar	 edx, 5
  00956	8b da		 mov	 ebx, edx
  00958	c1 eb 1f	 shr	 ebx, 31			; 0000001fH
  0095b	03 da		 add	 ebx, edx

; 3770 : 		}
; 3771 : 
; 3772 : 		if( lpObj->m_MPSkillOpt.MpsTwoHandSwordStrength > 0.0f )

  0095d	f3 0f 10 8f f8
	06 00 00	 movss	 xmm1, DWORD PTR [edi+1784]

; 3773 : 		{
; 3774 : 			ad += lpObj->m_MPSkillOpt.MpsTwoHandSwordStrength;
; 3775 : 		}
; 3776 : 	}

  00965	eb 47		 jmp	 SHORT $LN167@GetAttackD
$LN70@GetAttackD:

; 3766 : 		}
; 3767 : 		else
; 3768 : 		{
; 3769 : 			ad = lpObj->m_AttackDamageRight - targetDefense;

  00967	8b 9f 54 06 00
	00		 mov	 ebx, DWORD PTR [edi+1620]

; 3770 : 		}
; 3771 : 
; 3772 : 		if( lpObj->m_MPSkillOpt.MpsTwoHandSwordStrength > 0.0f )

  0096d	f3 0f 10 8f f8
	06 00 00	 movss	 xmm1, DWORD PTR [edi+1784]

; 3773 : 		{
; 3774 : 			ad += lpObj->m_MPSkillOpt.MpsTwoHandSwordStrength;
; 3775 : 		}
; 3776 : 	}

  00975	eb 37		 jmp	 SHORT $LN167@GetAttackD
$LN55@GetAttackD:

; 3728 : 			 Left->m_Type == ITEMGET(4,23) )
; 3729 : 	{
; 3730 : 		if ( bIsOnDuel )

  00977	83 7d 14 00	 cmp	 DWORD PTR _bIsOnDuel$[ebp], 0
  0097b	74 23		 je	 SHORT $LN57@GetAttackD

; 3731 : 		{
; 3732 : 			ad = ( lpObj->m_AttackDamageLeft ) * 60 / 100 - targetDefense;

  0097d	8b 87 50 06 00
	00		 mov	 eax, DWORD PTR [edi+1616]
  00983	8b c8		 mov	 ecx, eax
  00985	c1 e1 04	 shl	 ecx, 4
  00988	2b c8		 sub	 ecx, eax
  0098a	c1 e1 02	 shl	 ecx, 2
  0098d	b8 1f 85 eb 51	 mov	 eax, 1374389535		; 51eb851fH
  00992	f7 e9		 imul	 ecx
  00994	c1 fa 05	 sar	 edx, 5
  00997	8b da		 mov	 ebx, edx
  00999	c1 eb 1f	 shr	 ebx, 31			; 0000001fH
  0099c	03 da		 add	 ebx, edx

; 3733 : 		}
; 3734 : 		else

  0099e	eb 06		 jmp	 SHORT $LN162@GetAttackD
$LN57@GetAttackD:

; 3735 : 		{
; 3736 : 			ad = lpObj->m_AttackDamageLeft - targetDefense;

  009a0	8b 9f 50 06 00
	00		 mov	 ebx, DWORD PTR [edi+1616]
$LN162@GetAttackD:

; 3737 : 		}
; 3738 : 
; 3739 : 		if( lpObj->m_MPSkillOpt.MpsBowStrength > 0.0f )

  009a6	f3 0f 10 8f 3c
	07 00 00	 movss	 xmm1, DWORD PTR [edi+1852]
$LN167@GetAttackD:

; 3735 : 		{
; 3736 : 			ad = lpObj->m_AttackDamageLeft - targetDefense;

  009ae	2b 5d 0c	 sub	 ebx, DWORD PTR _targetDefense$[ebp]

; 3737 : 		}
; 3738 : 
; 3739 : 		if( lpObj->m_MPSkillOpt.MpsBowStrength > 0.0f )

  009b1	0f 2f 0d 00 00
	00 00		 comiss	 xmm1, DWORD PTR __real@00000000
  009b8	76 0f		 jbe	 SHORT $LN59@GetAttackD
  009ba	66 0f 6e c3	 movd	 xmm0, ebx

; 3740 : 		{
; 3741 : 			ad += lpObj->m_MPSkillOpt.MpsBowStrength;

  009be	0f 5b c0	 cvtdq2ps xmm0, xmm0
  009c1	f3 0f 58 c1	 addss	 xmm0, xmm1
  009c5	f3 0f 2c d8	 cvttss2si ebx, xmm0
$LN59@GetAttackD:

; 3806 : 	}
; 3807 : 
; 3808 : 	if ( lpObj->SetOpTwoHandSwordImproveDamage )

  009c9	8a 87 ce 14 00
	00		 mov	 al, BYTE PTR [edi+5326]
  009cf	84 c0		 test	 al, al
  009d1	74 19		 je	 SHORT $LN83@GetAttackD

; 3809 : 	{
; 3810 : 		ad += ad * lpObj->SetOpTwoHandSwordImproveDamage  / 100;

  009d3	0f b6 c8	 movzx	 ecx, al
  009d6	0f af cb	 imul	 ecx, ebx
  009d9	b8 1f 85 eb 51	 mov	 eax, 1374389535		; 51eb851fH
  009de	f7 e9		 imul	 ecx
  009e0	c1 fa 05	 sar	 edx, 5
  009e3	8b c2		 mov	 eax, edx
  009e5	c1 e8 1f	 shr	 eax, 31			; 0000001fH
  009e8	03 c2		 add	 eax, edx
  009ea	03 d8		 add	 ebx, eax
$LN83@GetAttackD:

; 3811 : 	}
; 3812 : 
; 3813 : 	int AddDamage = 0;
; 3814 : 	AddDamage = gObjGetTotalValueOfEffect(lpObj,ADD_OPTION_ATTACK_DAMAGE);

  009ec	6a 02		 push	 2
  009ee	57		 push	 edi
  009ef	e8 00 00 00 00	 call	 ?gObjGetTotalValueOfEffect@@YAHPAUOBJECTSTRUCT@@H@Z ; gObjGetTotalValueOfEffect
  009f4	8b f0		 mov	 esi, eax

; 3815 : 	AddDamage += gObjGetTotalValueOfEffect(lpObj,14);

  009f6	6a 0e		 push	 14			; 0000000eH
  009f8	57		 push	 edi
  009f9	e8 00 00 00 00	 call	 ?gObjGetTotalValueOfEffect@@YAHPAUOBJECTSTRUCT@@H@Z ; gObjGetTotalValueOfEffect
  009fe	83 c4 10	 add	 esp, 16			; 00000010H

; 3816 : 	ad += AddDamage;

  00a01	03 c6		 add	 eax, esi
  00a03	03 d8		 add	 ebx, eax

; 3817 : 	
; 3818 : 	if( lpObj->m_SkillAttack2 )

  00a05	83 bf 04 06 00
	00 00		 cmp	 DWORD PTR [edi+1540], 0
  00a0c	74 03		 je	 SHORT $LN84@GetAttackD

; 3819 : 	{
; 3820 : #ifdef __NOVUS__
; 3821 : 		ad += 15 + lpObj->Level / 2;
; 3822 : #else
; 3823 : 		ad += 15;

  00a0e	83 c3 0f	 add	 ebx, 15			; 0000000fH
$LN84@GetAttackD:

; 3824 : #endif
; 3825 : 	}
; 3826 : 
; 3827 : 	if ( lpObj->m_MonsterSkillElementInfo.m_iSkillElementAttackTime > 0 )

  00a11	83 bf 84 20 00
	00 00		 cmp	 DWORD PTR [edi+8324], 0
  00a18	7e 0e		 jle	 SHORT $LN86@GetAttackD

; 3828 : 	{
; 3829 : 		ad += lpObj->m_MonsterSkillElementInfo.m_iSkillElementAttack;

  00a1a	03 9f 80 20 00
	00		 add	 ebx, DWORD PTR [edi+8320]

; 3830 : 
; 3831 : 		if ( ad < 0 )

  00a20	b8 00 00 00 00	 mov	 eax, 0
  00a25	0f 48 d8	 cmovs	 ebx, eax
$LN86@GetAttackD:

; 3832 : 		{
; 3833 : 			ad = 0;
; 3834 : 		}
; 3835 : 	}
; 3836 : 
; 3837 : 	int ReduceDamage = 0;

  00a28	c7 45 b4 00 00
	00 00		 mov	 DWORD PTR _ReduceDamage$[ebp], 0

; 3838 : 	gObjGetValueOfBuffIndex(lpObj,BUFF_WEAKNESS,&ReduceDamage,0);

  00a2f	6a 00		 push	 0
  00a31	8d 45 b4	 lea	 eax, DWORD PTR _ReduceDamage$[ebp]
  00a34	50		 push	 eax
  00a35	6a 4c		 push	 76			; 0000004cH
  00a37	57		 push	 edi
  00a38	e8 00 00 00 00	 call	 ?gObjGetValueOfBuffIndex@@YA_NPAUOBJECTSTRUCT@@HPAH1@Z ; gObjGetValueOfBuffIndex
  00a3d	83 c4 10	 add	 esp, 16			; 00000010H

; 3839 : 	ad -= ad * ReduceDamage / 100;

  00a40	8b 4d b4	 mov	 ecx, DWORD PTR _ReduceDamage$[ebp]
  00a43	0f af cb	 imul	 ecx, ebx
  00a46	b8 e1 7a 14 ae	 mov	 eax, -1374389535	; ae147ae1H
  00a4b	f7 e9		 imul	 ecx
  00a4d	c1 fa 05	 sar	 edx, 5
  00a50	8b c2		 mov	 eax, edx
  00a52	c1 e8 1f	 shr	 eax, 31			; 0000001fH
  00a55	03 c2		 add	 eax, edx
  00a57	03 d8		 add	 ebx, eax
  00a59	0f 57 c0	 xorps	 xmm0, xmm0

; 3840 : 
; 3841 : 	float nAddAttackDamageLeft = 0;

  00a5c	f3 0f 11 45 0c	 movss	 DWORD PTR _nAddAttackDamageLeft$1$[ebp], xmm0

; 3842 : 	float nAddAttackDamageRight = 0;

  00a61	f3 0f 11 45 14	 movss	 DWORD PTR _nAddAttackDamageRight$1$[ebp], xmm0

; 3843 : 
; 3844 : 	switch( Left->GetDetailItemType() )

  00a66	8b 4d c0	 mov	 ecx, DWORD PTR _Left$[ebp]
  00a69	e8 00 00 00 00	 call	 ?GetDetailItemType@CItem@@QAEHXZ ; CItem::GetDetailItemType
  00a6e	48		 dec	 eax
  00a6f	83 f8 0b	 cmp	 eax, 11			; 0000000bH
  00a72	77 4f		 ja	 SHORT $LN96@GetAttackD
  00a74	0f b6 80 00 00
	00 00		 movzx	 eax, BYTE PTR $LN130@GetAttackD[eax]
  00a7b	ff 24 85 00 00
	00 00		 jmp	 DWORD PTR $LN168@GetAttackD[eax*4]
$LN87@GetAttackD:

; 3845 : 	{
; 3846 : 	case 1:
; 3847 : 		if( lpObj->m_MPSkillOpt.MpsOneHandSwordStrength > 0.0f )

  00a82	f3 0f 10 8f fc
	06 00 00	 movss	 xmm1, DWORD PTR [edi+1788]

; 3848 : 		{
; 3849 : 			nAddAttackDamageLeft += lpObj->m_MPSkillOpt.MpsOneHandSwordStrength;
; 3850 : 		}
; 3851 : 		break;

  00a8a	eb 26		 jmp	 SHORT $LN165@GetAttackD
$LN89@GetAttackD:

; 3852 : 	case 2:
; 3853 : 		if( lpObj->m_MPSkillOpt.MpsMaceStrength > 0.0f )

  00a8c	f3 0f 10 8f 00
	07 00 00	 movss	 xmm1, DWORD PTR [edi+1792]

; 3854 : 		{
; 3855 : 			nAddAttackDamageLeft += lpObj->m_MPSkillOpt.MpsMaceStrength;
; 3856 : 		}
; 3857 : 		break;

  00a94	eb 1c		 jmp	 SHORT $LN165@GetAttackD
$LN91@GetAttackD:

; 3858 : 	case 3:
; 3859 : 		if( lpObj->m_MPSkillOpt.MpsSpearStrength > 0.0f )

  00a96	f3 0f 10 8f 04
	07 00 00	 movss	 xmm1, DWORD PTR [edi+1796]

; 3860 : 		{
; 3861 : 			nAddAttackDamageLeft += lpObj->m_MPSkillOpt.MpsSpearStrength;
; 3862 : 		}
; 3863 : 		break;

  00a9e	eb 12		 jmp	 SHORT $LN165@GetAttackD
$LN93@GetAttackD:

; 3864 : 	case 11:
; 3865 : 		if( lpObj->m_MPSkillOpt.MpsScepterStrength > 0.0f )

  00aa0	f3 0f 10 8f b4
	07 00 00	 movss	 xmm1, DWORD PTR [edi+1972]

; 3866 : 		{
; 3867 : 			nAddAttackDamageLeft += lpObj->m_MPSkillOpt.MpsScepterStrength;
; 3868 : 		}
; 3869 : 		break;

  00aa8	eb 08		 jmp	 SHORT $LN165@GetAttackD
$LN95@GetAttackD:

; 3870 : 	case 12:
; 3871 : 		if( lpObj->m_MPSkillOpt.MpsFistStrength > 0.0f )

  00aaa	f3 0f 10 8f 24
	08 00 00	 movss	 xmm1, DWORD PTR [edi+2084]
$LN165@GetAttackD:
  00ab2	0f 57 c0	 xorps	 xmm0, xmm0
  00ab5	0f 2f c8	 comiss	 xmm1, xmm0
  00ab8	76 09		 jbe	 SHORT $LN96@GetAttackD

; 3872 : 		{
; 3873 : 			nAddAttackDamageLeft += lpObj->m_MPSkillOpt.MpsFistStrength;

  00aba	f3 0f 58 c8	 addss	 xmm1, xmm0
  00abe	f3 0f 11 4d 0c	 movss	 DWORD PTR _nAddAttackDamageLeft$1$[ebp], xmm1
$LN96@GetAttackD:

; 3874 : 		}
; 3875 : 		break;
; 3876 : 	default:break;
; 3877 : 	}
; 3878 : 
; 3879 : 	switch( Right->GetDetailItemType() )

  00ac3	8b 4d bc	 mov	 ecx, DWORD PTR _Right$[ebp]
  00ac6	e8 00 00 00 00	 call	 ?GetDetailItemType@CItem@@QAEHXZ ; CItem::GetDetailItemType
  00acb	48		 dec	 eax
  00acc	83 f8 0b	 cmp	 eax, 11			; 0000000bH
  00acf	77 61		 ja	 SHORT $LN139@GetAttackD
  00ad1	0f b6 80 00 00
	00 00		 movzx	 eax, BYTE PTR $LN131@GetAttackD[eax]
  00ad8	ff 24 85 00 00
	00 00		 jmp	 DWORD PTR $LN169@GetAttackD[eax*4]
$LN98@GetAttackD:

; 3880 : 	{
; 3881 : 	case 1:
; 3882 : 		if( lpObj->m_MPSkillOpt.MpsOneHandSwordStrength > 0.0f )

  00adf	f3 0f 10 8f fc
	06 00 00	 movss	 xmm1, DWORD PTR [edi+1788]
$LN166@GetAttackD:
  00ae7	0f 57 db	 xorps	 xmm3, xmm3

; 3885 : 		}
; 3886 : 		break;

  00aea	f3 0f 10 65 0c	 movss	 xmm4, DWORD PTR _nAddAttackDamageLeft$1$[ebp]

; 3880 : 	{
; 3881 : 	case 1:
; 3882 : 		if( lpObj->m_MPSkillOpt.MpsOneHandSwordStrength > 0.0f )

  00aef	0f 2f cb	 comiss	 xmm1, xmm3
  00af2	76 7d		 jbe	 SHORT $LN141@GetAttackD

; 3883 : 		{
; 3884 : 			nAddAttackDamageRight += lpObj->m_MPSkillOpt.MpsOneHandSwordStrength;

  00af4	f3 0f 58 cb	 addss	 xmm1, xmm3

; 3885 : 		}
; 3886 : 		break;

  00af8	eb 45		 jmp	 SHORT $LN107@GetAttackD
$LN100@GetAttackD:

; 3887 : 	case 2:
; 3888 : 		if( lpObj->m_MPSkillOpt.MpsMaceStrength > 0.0f )

  00afa	f3 0f 10 8f 00
	07 00 00	 movss	 xmm1, DWORD PTR [edi+1792]

; 3889 : 		{
; 3890 : 			nAddAttackDamageRight += lpObj->m_MPSkillOpt.MpsMaceStrength;
; 3891 : 		}
; 3892 : 		break;

  00b02	eb e3		 jmp	 SHORT $LN166@GetAttackD
$LN102@GetAttackD:

; 3893 : 	case 3:
; 3894 : 		if( lpObj->m_MPSkillOpt.MpsSpearStrength > 0.0f )

  00b04	f3 0f 10 8f 04
	07 00 00	 movss	 xmm1, DWORD PTR [edi+1796]

; 3895 : 		{
; 3896 : 			nAddAttackDamageRight += lpObj->m_MPSkillOpt.MpsSpearStrength;
; 3897 : 		}
; 3898 : 		break;

  00b0c	eb d9		 jmp	 SHORT $LN166@GetAttackD
$LN104@GetAttackD:

; 3899 : 	case 11:
; 3900 : 		if( lpObj->m_MPSkillOpt.MpsScepterStrength > 0.0f )

  00b0e	f3 0f 10 8f b4
	07 00 00	 movss	 xmm1, DWORD PTR [edi+1972]

; 3901 : 		{
; 3902 : 			nAddAttackDamageRight += lpObj->m_MPSkillOpt.MpsScepterStrength;
; 3903 : 		}
; 3904 : 		break;

  00b16	eb cf		 jmp	 SHORT $LN166@GetAttackD
$LN106@GetAttackD:

; 3905 : 	case 12:
; 3906 : 		if( lpObj->m_MPSkillOpt.MpsFistStrength > 0.0f )

  00b18	f3 0f 10 a7 24
	08 00 00	 movss	 xmm4, DWORD PTR [edi+2084]
  00b20	0f 57 db	 xorps	 xmm3, xmm3

; 3907 : 		{
; 3908 : 			nAddAttackDamageLeft += lpObj->m_MPSkillOpt.MpsFistStrength;

  00b23	0f 28 cb	 movaps	 xmm1, xmm3

; 3905 : 	case 12:
; 3906 : 		if( lpObj->m_MPSkillOpt.MpsFistStrength > 0.0f )

  00b26	0f 2f e3	 comiss	 xmm4, xmm3
  00b29	76 0f		 jbe	 SHORT $LN145@GetAttackD

; 3907 : 		{
; 3908 : 			nAddAttackDamageLeft += lpObj->m_MPSkillOpt.MpsFistStrength;

  00b2b	f3 0f 58 65 0c	 addss	 xmm4, DWORD PTR _nAddAttackDamageLeft$1$[ebp]
  00b30	eb 0d		 jmp	 SHORT $LN107@GetAttackD
$LN139@GetAttackD:
  00b32	0f 57 db	 xorps	 xmm3, xmm3
  00b35	f3 0f 10 4d 14	 movss	 xmm1, DWORD PTR _nAddAttackDamageRight$1$[ebp]
$LN145@GetAttackD:
  00b3a	f3 0f 10 65 0c	 movss	 xmm4, DWORD PTR _nAddAttackDamageLeft$1$[ebp]
$LN107@GetAttackD:

; 3909 : 		}
; 3910 : 		break;
; 3911 : 	default:break;
; 3912 : 	}
; 3913 : 
; 3914 : 	if( bTwoHandWeapon != 0 )

  00b3f	83 7d c8 00	 cmp	 DWORD PTR _bTwoHandWeapon$[ebp], 0
  00b43	74 31		 je	 SHORT $LN109@GetAttackD

; 3915 : 	{
; 3916 : 		ad += nAddAttackDamageRight*0.5+nAddAttackDamageLeft*0.5;

  00b45	0f 5a d1	 cvtps2pd xmm2, xmm1
  00b48	f2 0f 59 15 00
	00 00 00	 mulsd	 xmm2, QWORD PTR __real@3fe0000000000000
  00b50	0f 5a c4	 cvtps2pd xmm0, xmm4
  00b53	f2 0f 59 05 00
	00 00 00	 mulsd	 xmm0, QWORD PTR __real@3fe0000000000000
  00b5b	f2 0f 58 d0	 addsd	 xmm2, xmm0
  00b5f	66 0f 6e c3	 movd	 xmm0, ebx
  00b63	f3 0f e6 c0	 cvtdq2pd xmm0, xmm0
  00b67	f2 0f 58 d0	 addsd	 xmm2, xmm0
  00b6b	f2 0f 2c f2	 cvttsd2si esi, xmm2

; 3917 : 	}
; 3918 : 	else

  00b6f	eb 23		 jmp	 SHORT $LN110@GetAttackD
$LN141@GetAttackD:
  00b71	0f 28 cb	 movaps	 xmm1, xmm3
  00b74	eb c9		 jmp	 SHORT $LN107@GetAttackD
$LN109@GetAttackD:
  00b76	66 0f 6e c3	 movd	 xmm0, ebx

; 3919 : 	{
; 3920 : 		ad += nAddAttackDamageRight;

  00b7a	0f 5b c0	 cvtdq2ps xmm0, xmm0
  00b7d	f3 0f 58 c1	 addss	 xmm0, xmm1
  00b81	f3 0f 2c c0	 cvttss2si eax, xmm0
  00b85	66 0f 6e c0	 movd	 xmm0, eax

; 3921 : 		ad += nAddAttackDamageLeft;

  00b89	0f 5b c0	 cvtdq2ps xmm0, xmm0
  00b8c	f3 0f 58 c4	 addss	 xmm0, xmm4
  00b90	f3 0f 2c f0	 cvttss2si esi, xmm0
$LN110@GetAttackD:

; 3922 : 	}
; 3923 : 
; 3924 : 	if( lpObj->Class == CLASS_KNIGHT ||
; 3925 : 		lpObj->Class == CLASS_MAGUMSA ||
; 3926 : 		lpObj->Class == CLASS_DARKLORD || 

  00b94	0f b7 87 90 00
	00 00		 movzx	 eax, WORD PTR [edi+144]
  00b9b	83 f8 01	 cmp	 eax, 1
  00b9e	74 0f		 je	 SHORT $LN112@GetAttackD
  00ba0	83 f8 03	 cmp	 eax, 3
  00ba3	74 0a		 je	 SHORT $LN112@GetAttackD
  00ba5	83 f8 04	 cmp	 eax, 4
  00ba8	74 05		 je	 SHORT $LN112@GetAttackD
  00baa	83 f8 06	 cmp	 eax, 6
  00bad	75 1c		 jne	 SHORT $LN113@GetAttackD
$LN112@GetAttackD:

; 3927 : 		lpObj->Class == CLASS_FIGHTER )
; 3928 : 	{
; 3929 : 		if( lpObj->m_MPSkillOpt.MpsWeaponMastery > 0.0f )

  00baf	f3 0f 10 8f f0
	06 00 00	 movss	 xmm1, DWORD PTR [edi+1776]
  00bb7	0f 2f cb	 comiss	 xmm1, xmm3
  00bba	76 0f		 jbe	 SHORT $LN113@GetAttackD
  00bbc	66 0f 6e c6	 movd	 xmm0, esi

; 3930 : 		{
; 3931 : 			ad += lpObj->m_MPSkillOpt.MpsWeaponMastery;

  00bc0	0f 5b c0	 cvtdq2ps xmm0, xmm0
  00bc3	f3 0f 58 c1	 addss	 xmm0, xmm1
  00bc7	f3 0f 2c f0	 cvttss2si esi, xmm0
$LN113@GetAttackD:

; 3932 : 		}
; 3933 : 	}
; 3934 : 
; 3935 : 	if( lpObj->Class == CLASS_ELF )

  00bcb	83 f8 02	 cmp	 eax, 2
  00bce	75 1c		 jne	 SHORT $LN115@GetAttackD

; 3936 : 	{
; 3937 : 		if( lpObj->m_MPSkillOpt.MpsWeaponMastery2 > 0.0f )

  00bd0	f3 0f 10 8f 54
	07 00 00	 movss	 xmm1, DWORD PTR [edi+1876]
  00bd8	0f 2f cb	 comiss	 xmm1, xmm3
  00bdb	76 0f		 jbe	 SHORT $LN115@GetAttackD
  00bdd	66 0f 6e c6	 movd	 xmm0, esi

; 3938 : 		{
; 3939 : 			ad += lpObj->m_MPSkillOpt.MpsWeaponMastery2;

  00be1	0f 5b c0	 cvtdq2ps xmm0, xmm0
  00be4	f3 0f 58 c1	 addss	 xmm0, xmm1
  00be8	f3 0f 2c f0	 cvttss2si esi, xmm0
$LN115@GetAttackD:

; 3940 : 		}
; 3941 : 	}
; 3942 : 
; 3943 : 	if( lpObj->m_MPSkillOpt.MpsWingAttackIncrease > 0.0f )

  00bec	f3 0f 10 8f 4c
	08 00 00	 movss	 xmm1, DWORD PTR [edi+2124]
  00bf4	0f 2f cb	 comiss	 xmm1, xmm3
  00bf7	76 0f		 jbe	 SHORT $LN116@GetAttackD
  00bf9	66 0f 6e c6	 movd	 xmm0, esi

; 3944 : 	{
; 3945 : 		ad += lpObj->m_MPSkillOpt.MpsWingAttackIncrease;

  00bfd	0f 5b c0	 cvtdq2ps xmm0, xmm0
  00c00	f3 0f 58 c1	 addss	 xmm0, xmm1
  00c04	f3 0f 2c f0	 cvttss2si esi, xmm0
$LN116@GetAttackD:

; 3946 : 	}
; 3947 : 
; 3948 : 	if( lpObj->m_MPSkillOpt.MpsCommandAttackInc > 0.0f )

  00c08	f3 0f 10 87 c8
	07 00 00	 movss	 xmm0, DWORD PTR [edi+1992]
  00c10	0f 2f c3	 comiss	 xmm0, xmm3
  00c13	76 4b		 jbe	 SHORT $LN118@GetAttackD

; 3949 : 	{
; 3950 : 		if( lpObj->pInventory[0].GetDetailItemType() == 11 ||

  00c15	8b 8f c0 11 00
	00		 mov	 ecx, DWORD PTR [edi+4544]
  00c1b	e8 00 00 00 00	 call	 ?GetDetailItemType@CItem@@QAEHXZ ; CItem::GetDetailItemType
  00c20	83 f8 0b	 cmp	 eax, 11			; 0000000bH
  00c23	74 16		 je	 SHORT $LN119@GetAttackD
  00c25	8b 8f c0 11 00
	00		 mov	 ecx, DWORD PTR [edi+4544]
  00c2b	81 c1 d4 00 00
	00		 add	 ecx, 212		; 000000d4H
  00c31	e8 00 00 00 00	 call	 ?GetDetailItemType@CItem@@QAEHXZ ; CItem::GetDetailItemType
  00c36	83 f8 0b	 cmp	 eax, 11			; 0000000bH
  00c39	75 25		 jne	 SHORT $LN118@GetAttackD
$LN119@GetAttackD:

; 3951 : 			lpObj->pInventory[1].GetDetailItemType() == 11 )
; 3952 : 		{
; 3953 : 			int nAddAttack = (lpObj->Leadership+lpObj->AddLeadership)/lpObj->m_MPSkillOpt.MpsCommandAttackInc;

  00c3b	0f b7 97 f6 00
	00 00		 movzx	 edx, WORD PTR [edi+246]
  00c42	0f b7 8f f4 00
	00 00		 movzx	 ecx, WORD PTR [edi+244]
  00c49	03 d1		 add	 edx, ecx
  00c4b	66 0f 6e c2	 movd	 xmm0, edx
  00c4f	0f 5b c0	 cvtdq2ps xmm0, xmm0
  00c52	f3 0f 5e 87 c8
	07 00 00	 divss	 xmm0, DWORD PTR [edi+1992]
  00c5a	f3 0f 2c c8	 cvttss2si ecx, xmm0

; 3954 : 			ad += nAddAttack;

  00c5e	03 f1		 add	 esi, ecx
$LN118@GetAttackD:

; 3955 : 		}
; 3956 : 	}
; 3957 : 
; 3958 : 	return ad;

  00c60	8b c6		 mov	 eax, esi

; 3959 : }

  00c62	8b 4d f0	 mov	 ecx, DWORD PTR __$SEHRec$[ebp+8]
  00c65	64 89 0d 00 00
	00 00		 mov	 DWORD PTR fs:0, ecx
  00c6c	59		 pop	 ecx
  00c6d	5f		 pop	 edi
  00c6e	5e		 pop	 esi
  00c6f	5b		 pop	 ebx
  00c70	8b e5		 mov	 esp, ebp
  00c72	5d		 pop	 ebp
  00c73	c2 14 00	 ret	 20			; 00000014H
  00c76	66 90		 npad	 2
$LN168@GetAttackD:
  00c78	00 00 00 00	 DD	 $LN87@GetAttackD
  00c7c	00 00 00 00	 DD	 $LN89@GetAttackD
  00c80	00 00 00 00	 DD	 $LN91@GetAttackD
  00c84	00 00 00 00	 DD	 $LN93@GetAttackD
  00c88	00 00 00 00	 DD	 $LN95@GetAttackD
  00c8c	00 00 00 00	 DD	 $LN96@GetAttackD
$LN130@GetAttackD:
  00c90	00		 DB	 0
  00c91	01		 DB	 1
  00c92	02		 DB	 2
  00c93	05		 DB	 5
  00c94	05		 DB	 5
  00c95	05		 DB	 5
  00c96	05		 DB	 5
  00c97	05		 DB	 5
  00c98	05		 DB	 5
  00c99	05		 DB	 5
  00c9a	03		 DB	 3
  00c9b	04		 DB	 4
$LN169@GetAttackD:
  00c9c	00 00 00 00	 DD	 $LN98@GetAttackD
  00ca0	00 00 00 00	 DD	 $LN100@GetAttackD
  00ca4	00 00 00 00	 DD	 $LN102@GetAttackD
  00ca8	00 00 00 00	 DD	 $LN104@GetAttackD
  00cac	00 00 00 00	 DD	 $LN106@GetAttackD
  00cb0	00 00 00 00	 DD	 $LN139@GetAttackD
$LN131@GetAttackD:
  00cb4	00		 DB	 0
  00cb5	01		 DB	 1
  00cb6	02		 DB	 2
  00cb7	05		 DB	 5
  00cb8	05		 DB	 5
  00cb9	05		 DB	 5
  00cba	05		 DB	 5
  00cbb	05		 DB	 5
  00cbc	05		 DB	 5
  00cbd	05		 DB	 5
  00cbe	03		 DB	 3
  00cbf	04		 DB	 4
?GetAttackDamage@CObjAttack@@QAEHPAUOBJECTSTRUCT@@HAAHHPAVCMagicInf@@@Z ENDP ; CObjAttack::GetAttackDamage
_TEXT	ENDS
; Function compile flags: /Ogtp
; File c:\users\michel\desktop\source\gameserver\source\objattack.cpp
; File c:\users\michel\desktop\source\gameserver\source\newpvp.h
; File c:\users\michel\desktop\source\gameserver\source\objattack.cpp
; File c:\users\michel\desktop\source\gameserver\source\newpvp.h
; File c:\users\michel\desktop\source\gameserver\source\objattack.cpp
; File c:\users\michel\desktop\source\gameserver\source\newpvp.h
; File c:\users\michel\desktop\source\gameserver\source\objattack.cpp
; File c:\users\michel\desktop\source\gameserver\source\newpvp.h
; File c:\users\michel\desktop\source\gameserver\source\objattack.cpp
;	COMDAT ?Attack@CObjAttack@@QAEHPAUOBJECTSTRUCT@@0PAVCMagicInf@@HEHHEE@Z
_TEXT	SEGMENT
tv3265 = -384						; size = 4
tv3257 = -380						; size = 4
_bDamageReflect$1$ = -376				; size = 4
_Dexterity$1$ = -372					; size = 4
_iCurseValue$1 = -368					; size = 4
_bDragonKickSDAttackSuccess$1$ = -364			; size = 4
_iEquipmentPos$1$ = -360				; size = 4
_iEquipmentPos$1$ = -360				; size = 4
tv3275 = -360						; size = 4
_ManaChange$1$ = -356					; size = 4
_fSpringValue$2 = -356					; size = 4
_iDurEquipment$1$ = -352				; size = 4
_Vitality$1$ = -352					; size = 4
_iFenrirAttackDmg$2$ = -348				; size = 4
_iWizardSkillDefense$3 = -348				; size = 4
_bAllMiss$ = -344					; size = 4
_magicsend$1$ = -340					; size = 4
_nValue$4 = -336					; size = 4
_MSBFlag$1$ = -329					; size = 1
_lpEquipment$1$ = -328					; size = 4
_iDurEquipment$1$ = -328				; size = 4
_RestoreSD$1$ = -328					; size = 4
tv4541 = -328						; size = 4
_fSkillValue$5 = -328					; size = 4
_fDurDownRate$6 = -328					; size = 4
tv3322 = -328						; size = 4
_fRate$1$ = -324					; size = 4
_lpInfo$1$ = -324					; size = 4
_Strength$1$ = -324					; size = 4
_this$GSCopy$1$ = -320					; size = 4
_iTotalShieldDamage$1$ = -316				; size = 4
_MsgDamage$ = -312					; size = 4
_DecTime$1$ = -308					; size = 4
_DecTime$1$ = -308					; size = 4
_DecTime$1$ = -308					; size = 4
_DecTime$1$ = -308					; size = 4
_skillSuccess$1$ = -308					; size = 4
_targetdefense$1$ = -304				; size = 4
_iSkillValue$7 = -304					; size = 4
_Energy$1$ = -300					; size = 4
_lpTargetObj$GSCopy$1$ = -296				; size = 4
_Rate$1$ = -296						; size = 4
_Rate$1$ = -296						; size = 4
_Rate$1$ = -296						; size = 4
_Rate$1$ = -296						; size = 4
_RestoreMP$1$ = -296					; size = 4
_attackdamagebefore$1$ = -296				; size = 4
_lpCallObj$2$ = -296					; size = 4
_iManaRate$8 = -296					; size = 4
_lpMagic$GSCopy$1$ = -292				; size = 4
_skill$1$ = -288					; size = 4
_DecValue$1$ = -284					; size = 4
_DecValue$1$ = -284					; size = 4
_DecValue$1$ = -284					; size = 4
_DecValue$1$ = -284					; size = 4
_bIsOnDuel$1$ = -284					; size = 4
_AttackDamage$5$ = -284					; size = 4
_iSkillBrandValue1$9 = -284				; size = 4
_adddamage$10 = -284					; size = 4
_item_num$11 = -280					; size = 20
_szTmpMsg$12 = -260					; size = 256
__$ArrayPad$ = -4					; size = 4
_lpObj$ = 8						; size = 4
_lpTargetObj$ = 12					; size = 4
_lpMagic$ = 16						; size = 4
_magicsend$ = 20					; size = 4
_MSBFlag$ = 24						; size = 1
_AttackDamage$ = 28					; size = 4
_bCombo$ = 32						; size = 4
_byBarrageCount$ = 36					; size = 1
_byReflect$ = 40					; size = 1
?Attack@CObjAttack@@QAEHPAUOBJECTSTRUCT@@0PAVCMagicInf@@HEHHEE@Z PROC ; CObjAttack::Attack, COMDAT
; _this$ = ecx

; 63   : {

  00000	55		 push	 ebp
  00001	8b ec		 mov	 ebp, esp
  00003	81 ec 80 01 00
	00		 sub	 esp, 384		; 00000180H
  00009	a1 00 00 00 00	 mov	 eax, DWORD PTR ___security_cookie
  0000e	33 c5		 xor	 eax, ebp
  00010	89 45 fc	 mov	 DWORD PTR __$ArrayPad$[ebp], eax
  00013	8b 45 10	 mov	 eax, DWORD PTR _lpMagic$[ebp]
  00016	53		 push	 ebx
  00017	8b 5d 08	 mov	 ebx, DWORD PTR _lpObj$[ebp]
  0001a	57		 push	 edi
  0001b	8b 7d 0c	 mov	 edi, DWORD PTR _lpTargetObj$[ebp]
  0001e	89 85 dc fe ff
	ff		 mov	 DWORD PTR _lpMagic$GSCopy$1$[ebp], eax
  00024	89 8d c0 fe ff
	ff		 mov	 DWORD PTR _this$GSCopy$1$[ebp], ecx
  0002a	89 bd d8 fe ff
	ff		 mov	 DWORD PTR _lpTargetObj$GSCopy$1$[ebp], edi

; 64   : 	int skillSuccess = 0;
; 65   : 	LPOBJ lpCallObj;
; 66   : 	LPOBJ lpCallTargetObj;
; 67   : 	int MsgDamage = 0;
; 68   : 	int ManaChange = 0;
; 69   : 	int iTempShieldDamage = 0;
; 70   : 	int iTotalShieldDamage = 0;
; 71   : 	int bDragonKickSDAttackSuccess = 0;
; 72   : 
; 73   : 	if ( (lpTargetObj->Authority&2) == 2 )

  00030	8b 87 bc 01 00
	00		 mov	 eax, DWORD PTR [edi+444]
  00036	c7 85 c8 fe ff
	ff 00 00 00 00	 mov	 DWORD PTR _MsgDamage$[ebp], 0
  00040	c7 85 9c fe ff
	ff 00 00 00 00	 mov	 DWORD PTR _ManaChange$1$[ebp], 0
  0004a	c7 85 c4 fe ff
	ff 00 00 00 00	 mov	 DWORD PTR _iTotalShieldDamage$1$[ebp], 0
  00054	c7 85 94 fe ff
	ff 00 00 00 00	 mov	 DWORD PTR _bDragonKickSDAttackSuccess$1$[ebp], 0
  0005e	a8 02		 test	 al, 2
  00060	74 14		 je	 SHORT $LN20@Attack
$LN961@Attack:
  00062	5f		 pop	 edi

; 74   : 		return FALSE;

  00063	33 c0		 xor	 eax, eax
  00065	5b		 pop	 ebx

; 3407 : 	}
; 3408 : 	return TRUE;
; 3409 : }

  00066	8b 4d fc	 mov	 ecx, DWORD PTR __$ArrayPad$[ebp]
  00069	33 cd		 xor	 ecx, ebp
  0006b	e8 00 00 00 00	 call	 @__security_check_cookie@4
  00070	8b e5		 mov	 esp, ebp
  00072	5d		 pop	 ebp
  00073	c2 24 00	 ret	 36			; 00000024H
$LN20@Attack:

; 75   : 
; 76   : 	if ( (lpObj->Authority&32) == 32 ||

  00076	f6 83 bc 01 00
	00 20		 test	 BYTE PTR [ebx+444], 32	; 00000020H
  0007d	75 04		 jne	 SHORT $LN22@Attack
  0007f	a8 20		 test	 al, 32			; 00000020H
  00081	74 0f		 je	 SHORT $LN23@Attack
$LN22@Attack:

; 77   : 		 (lpTargetObj->Authority&32) == 32 )
; 78   : 	{
; 79   : 		if( gObjCheckUsedBuffEffect(lpObj,BUFF_INVISIBILITY) == TRUE)

  00083	6a 12		 push	 18			; 00000012H
  00085	53		 push	 ebx
  00086	e8 00 00 00 00	 call	 ?gObjCheckUsedBuffEffect@@YA_NPAUOBJECTSTRUCT@@H@Z ; gObjCheckUsedBuffEffect
  0008b	83 c4 08	 add	 esp, 8
  0008e	3c 01		 cmp	 al, 1
  00090	74 d0		 je	 SHORT $LN961@Attack
$LN23@Attack:

; 80   : 		{
; 81   : 			return false;
; 82   : 		}
; 83   : 	}
; 84   : 
; 85   : 	if ( lpObj->MapNumber != lpTargetObj->MapNumber )

  00092	8a 83 23 01 00
	00		 mov	 al, BYTE PTR [ebx+291]
  00098	3a 87 23 01 00
	00		 cmp	 al, BYTE PTR [edi+291]
  0009e	75 c2		 jne	 SHORT $LN961@Attack

; 91   : 	if (lpObj->Type == OBJ_USER && g_NewPVP.IsDuel(*lpObj) && g_NewPVP.IsSafeState(*lpObj)) {

  000a0	80 7b 50 01	 cmp	 BYTE PTR [ebx+80], 1
  000a4	75 28		 jne	 SHORT $LN25@Attack
; File c:\users\michel\desktop\source\gameserver\source\newpvp.h

; 297  : 		return CHECK_LIMIT(obj.m_iDuelUser, OBJMAX);

  000a6	8b 8b 50 12 00
	00		 mov	 ecx, DWORD PTR [ebx+4688]
  000ac	85 c9		 test	 ecx, ecx
  000ae	78 1e		 js	 SHORT $LN25@Attack
  000b0	33 c0		 xor	 eax, eax
  000b2	81 f9 eb 2c 00
	00		 cmp	 ecx, 11499		; 00002cebH
  000b8	0f 9e c0	 setle	 al
; File c:\users\michel\desktop\source\gameserver\source\objattack.cpp

; 91   : 	if (lpObj->Type == OBJ_USER && g_NewPVP.IsDuel(*lpObj) && g_NewPVP.IsSafeState(*lpObj)) {

  000bb	85 c0		 test	 eax, eax
  000bd	74 0f		 je	 SHORT $LN25@Attack
  000bf	53		 push	 ebx
  000c0	b9 00 00 00 00	 mov	 ecx, OFFSET ?g_NewPVP@@3VCNewPVP@@A ; g_NewPVP
  000c5	e8 00 00 00 00	 call	 ?IsSafeState@CNewPVP@@QAEHAAUOBJECTSTRUCT@@@Z ; CNewPVP::IsSafeState
  000ca	85 c0		 test	 eax, eax
  000cc	75 94		 jne	 SHORT $LN961@Attack
$LN25@Attack:

; 95   : 	if (lpTargetObj->Type == OBJ_USER && g_NewPVP.IsDuel(*lpTargetObj) && g_NewPVP.IsSafeState(*lpTargetObj)) {

  000ce	80 7f 50 01	 cmp	 BYTE PTR [edi+80], 1
  000d2	75 2c		 jne	 SHORT $LN26@Attack
; File c:\users\michel\desktop\source\gameserver\source\newpvp.h

; 297  : 		return CHECK_LIMIT(obj.m_iDuelUser, OBJMAX);

  000d4	8b 8f 50 12 00
	00		 mov	 ecx, DWORD PTR [edi+4688]
  000da	85 c9		 test	 ecx, ecx
  000dc	78 22		 js	 SHORT $LN26@Attack
  000de	33 c0		 xor	 eax, eax
  000e0	81 f9 eb 2c 00
	00		 cmp	 ecx, 11499		; 00002cebH
  000e6	0f 9e c0	 setle	 al
; File c:\users\michel\desktop\source\gameserver\source\objattack.cpp

; 95   : 	if (lpTargetObj->Type == OBJ_USER && g_NewPVP.IsDuel(*lpTargetObj) && g_NewPVP.IsSafeState(*lpTargetObj)) {

  000e9	85 c0		 test	 eax, eax
  000eb	74 13		 je	 SHORT $LN26@Attack
  000ed	57		 push	 edi
  000ee	b9 00 00 00 00	 mov	 ecx, OFFSET ?g_NewPVP@@3VCNewPVP@@A ; g_NewPVP
  000f3	e8 00 00 00 00	 call	 ?IsSafeState@CNewPVP@@QAEHAAUOBJECTSTRUCT@@@Z ; CNewPVP::IsSafeState
  000f8	85 c0		 test	 eax, eax
  000fa	0f 85 62 ff ff
	ff		 jne	 $LN961@Attack
$LN26@Attack:

; 96   : 		return false;
; 97   : 	}
; 98   : #endif
; 99   : 
; 100  : #if (__GENS_SYSTEM__ == 1)
; 101  : 	if (!gGensSystem.GetFriendlyFire() && gGensSystem.GensMap(lpObj->MapNumber)) {

  00100	80 3d 38 00 00
	00 00		 cmp	 BYTE PTR ?gGensSystem@@3VCGensSystem@@A+56, 0
  00107	75 34		 jne	 SHORT $LN28@Attack
  00109	0f b6 83 23 01
	00 00		 movzx	 eax, BYTE PTR [ebx+291]
  00110	b9 00 00 00 00	 mov	 ecx, OFFSET ?gGensSystem@@3VCGensSystem@@A ; gGensSystem
  00115	50		 push	 eax
  00116	e8 00 00 00 00	 call	 ?GensMap@CGensSystem@@QAEHH@Z ; CGensSystem::GensMap
  0011b	85 c0		 test	 eax, eax
  0011d	74 1e		 je	 SHORT $LN28@Attack

; 102  : 		if (lpObj->Type == OBJ_USER && lpTargetObj->Type == OBJ_USER
; 103  : 			&& lpObj->m_GensInfo.btFamily == lpTargetObj->m_GensInfo.btFamily) {

  0011f	80 7b 50 01	 cmp	 BYTE PTR [ebx+80], 1
  00123	75 18		 jne	 SHORT $LN28@Attack
  00125	80 7f 50 01	 cmp	 BYTE PTR [edi+80], 1
  00129	75 12		 jne	 SHORT $LN28@Attack
  0012b	8a 83 ac 26 00
	00		 mov	 al, BYTE PTR [ebx+9900]
  00131	3a 87 ac 26 00
	00		 cmp	 al, BYTE PTR [edi+9900]
  00137	0f 84 25 ff ff
	ff		 je	 $LN961@Attack
$LN28@Attack:

; 104  : 			return false;
; 105  : 		}
; 106  : 	}
; 107  : #endif
; 108  : 
; 109  : #if (GS_CASTLE == 1)
; 110  : 
; 111  : 	if(g_Crywolf.GetCrywolfState() == CRYWOLF_STATE_READY || g_Crywolf.GetCrywolfState() == CRYWOLF_STATE_END)

  0013d	a1 8c a8 0f 00	 mov	 eax, DWORD PTR ?g_Crywolf@@3VCCrywolf@@A+1026188
  00142	83 f8 03	 cmp	 eax, 3
  00145	74 05		 je	 SHORT $LN30@Attack
  00147	83 f8 05	 cmp	 eax, 5
  0014a	75 13		 jne	 SHORT $LN31@Attack
$LN30@Attack:

; 112  : 	{
; 113  : 		if( ((lpTargetObj->MapNumber == MAP_INDEX_CRYWOLF_FIRSTZONE) ? TRUE : FALSE) && lpTargetObj->Type == OBJ_MONSTER)

  0014c	80 bf 23 01 00
	00 22		 cmp	 BYTE PTR [edi+291], 34	; 00000022H
  00153	75 0a		 jne	 SHORT $LN31@Attack
  00155	80 7f 50 02	 cmp	 BYTE PTR [edi+80], 2
  00159	0f 84 03 ff ff
	ff		 je	 $LN961@Attack
$LN31@Attack:

; 114  : 		{
; 115  : 			return FALSE;
; 116  : 		}
; 117  : 	}
; 118  : 
; 119  : #endif
; 120  : 
; 121  : #if (ENABLETEST_ARCA)
; 122  : 	if (g_ArcaBattle.IsArcaBattleServer() && !g_AcheronGuardianEvent.IsPlayStart() )
; 123  : 	{
; 124  : 		if (lpObj->Type == 1 && lpTargetObj->Type == 1 && !g_ArcaBattle.IsPkEnable(*lpObj, *lpTargetObj))
; 125  : 		  return 0;
; 126  : 
; 127  : 		if (lpObj->Type == 1 && lpTargetObj->Type == 2 && !g_ArcaBattle.IsEnableAttackObelisk(*lpObj, lpTargetObj->Class))
; 128  : 		  return 0;
; 129  : 
; 130  : 		if (lpObj->Type == 2 && lpTargetObj->Type == 2 && lpObj->m_Attribute == 100 
; 131  : 			&& !g_ArcaBattle.IsEnableAttackObelisk(*lpObj, lpTargetObj->Class))
; 132  : 		{
; 133  : 			//lpObj->m_ActState._bf0 &= 0xFFFF00FFu;
; 134  : 			//lpObj->m_ActState._bf0 &= 0xFFFFFF0Fu;
; 135  : 			return 0;
; 136  : 		}
; 137  : 	}
; 138  : #endif
; 139  : 
; 140  : 	if ( g_iUseCharacterAutoRecuperationSystem && lpObj->Level <= g_iCharacterRecuperationMaxLevel )

  0015f	83 3d 00 00 00
	00 00		 cmp	 DWORD PTR ?g_iUseCharacterAutoRecuperationSystem@@3HA, 0 ; g_iUseCharacterAutoRecuperationSystem
  00166	56		 push	 esi
  00167	8b 35 00 00 00
	00		 mov	 esi, DWORD PTR __imp__GetTickCount@0
  0016d	74 3e		 je	 SHORT $LN36@Attack
  0016f	0f bf 83 96 00
	00 00		 movsx	 eax, WORD PTR [ebx+150]
  00176	8b 0d 00 00 00
	00		 mov	 ecx, DWORD PTR ?g_iCharacterRecuperationMaxLevel@@3HA ; g_iCharacterRecuperationMaxLevel
  0017c	3b c1		 cmp	 eax, ecx
  0017e	7f 2d		 jg	 SHORT $LN36@Attack

; 141  : 	{
; 142  : 		if ( lpObj->Type == OBJ_USER )

  00180	80 7b 50 01	 cmp	 BYTE PTR [ebx+80], 1
  00184	75 0e		 jne	 SHORT $LN34@Attack

; 143  : 		{
; 144  : 			if ( lpObj->Level <= g_iCharacterRecuperationMaxLevel ) // #warning useless code
; 145  : 			{
; 146  : 				lpObj->m_iAutoRecuperationTime = GetTickCount();

  00186	ff d6		 call	 esi
  00188	89 83 20 24 00
	00		 mov	 DWORD PTR [ebx+9248], eax
  0018e	8b 0d 00 00 00
	00		 mov	 ecx, DWORD PTR ?g_iCharacterRecuperationMaxLevel@@3HA ; g_iCharacterRecuperationMaxLevel
$LN34@Attack:

; 147  : 			}
; 148  : 		}
; 149  : 
; 150  : 		if ( lpTargetObj->Type == OBJ_USER )

  00194	80 7f 50 01	 cmp	 BYTE PTR [edi+80], 1
  00198	75 13		 jne	 SHORT $LN36@Attack

; 151  : 		{
; 152  : 			if ( lpTargetObj->Level <= g_iCharacterRecuperationMaxLevel )

  0019a	0f bf 87 96 00
	00 00		 movsx	 eax, WORD PTR [edi+150]
  001a1	3b c1		 cmp	 eax, ecx
  001a3	7f 08		 jg	 SHORT $LN36@Attack

; 153  : 			{
; 154  : 				lpTargetObj->m_iAutoRecuperationTime = GetTickCount();

  001a5	ff d6		 call	 esi
  001a7	89 87 20 24 00
	00		 mov	 DWORD PTR [edi+9248], eax
$LN36@Attack:

; 155  : 			}
; 156  : 		}
; 157  : 	}
; 158  : 
; 159  : 	if ( lpObj->Type == OBJ_USER )

  001ad	80 7b 50 01	 cmp	 BYTE PTR [ebx+80], 1
  001b1	75 08		 jne	 SHORT $LN37@Attack

; 160  : 		lpObj->dwShieldAutoRefillTimer = GetTickCount();

  001b3	ff d6		 call	 esi
  001b5	89 83 44 01 00
	00		 mov	 DWORD PTR [ebx+324], eax
$LN37@Attack:

; 161  : 
; 162  : 	if ( lpTargetObj->Type == OBJ_USER )

  001bb	80 7f 50 01	 cmp	 BYTE PTR [edi+80], 1
  001bf	75 08		 jne	 SHORT $LN38@Attack

; 163  : 		lpTargetObj->dwShieldAutoRefillTimer = GetTickCount();

  001c1	ff d6		 call	 esi
  001c3	89 87 44 01 00
	00		 mov	 DWORD PTR [edi+324], eax
$LN38@Attack:

; 164  : 
; 165  : 	int skill = 0;
; 166  : 	
; 167  : 	if ( lpMagic )

  001c9	8b 8d dc fe ff
	ff		 mov	 ecx, DWORD PTR _lpMagic$GSCopy$1$[ebp]
  001cf	33 c0		 xor	 eax, eax
  001d1	89 85 e0 fe ff
	ff		 mov	 DWORD PTR _skill$1$[ebp], eax
  001d7	85 c9		 test	 ecx, ecx
  001d9	74 09		 je	 SHORT $LN39@Attack

; 168  : 		skill = lpMagic->m_Skill;

  001db	8b 41 08	 mov	 eax, DWORD PTR [ecx+8]
  001de	89 85 e0 fe ff
	ff		 mov	 DWORD PTR _skill$1$[ebp], eax
$LN39@Attack:

; 169  : 
; 170  : 	if ( lpObj->Class == 77 )

  001e4	66 83 bb 90 00
	00 00 4d	 cmp	 WORD PTR [ebx+144], 77	; 0000004dH
  001ec	b9 03 00 00 00	 mov	 ecx, 3
  001f1	75 15		 jne	 SHORT $LN41@Attack

; 171  : 	{
; 172  : 		if ( lpObj->m_SkyBossMonSheild && skill == 17 )

  001f3	83 bb 5c 14 00
	00 00		 cmp	 DWORD PTR [ebx+5212], 0
  001fa	74 0c		 je	 SHORT $LN41@Attack
  001fc	83 f8 11	 cmp	 eax, 17			; 00000011H
  001ff	0f 44 c1	 cmove	 eax, ecx
  00202	89 85 e0 fe ff
	ff		 mov	 DWORD PTR _skill$1$[ebp], eax
$LN41@Attack:

; 173  : 		{
; 174  : 			skill = 3;
; 175  : 		}
; 176  : 	}
; 177  : 
; 178  : 	skillSuccess = TRUE;
; 179  : 
; 180  : 	if ( lpObj->GuildNumber > 0 )

  00208	83 bb 14 06 00
	00 00		 cmp	 DWORD PTR [ebx+1556], 0
  0020f	7e 55		 jle	 SHORT $LN49@Attack

; 181  : 	{
; 182  : 		if ( lpObj->lpGuild )

  00211	8b 83 18 06 00
	00		 mov	 eax, DWORD PTR [ebx+1560]
  00217	85 c0		 test	 eax, eax
  00219	74 4b		 je	 SHORT $LN49@Attack

; 183  : 		{
; 184  : 			if ( lpObj->lpGuild->WarState )

  0021b	80 b8 91 05 00
	00 00		 cmp	 BYTE PTR [eax+1425], 0
  00222	74 1b		 je	 SHORT $LN46@Attack

; 185  : 			{
; 186  : 				if ( lpObj->lpGuild->WarType == 1 )

  00224	80 b8 92 05 00
	00 01		 cmp	 BYTE PTR [eax+1426], 1
  0022b	75 12		 jne	 SHORT $LN46@Attack

; 187  : 				{
; 188  : 					if ( !GetBattleSoccerGoalMove(0) )

  0022d	6a 00		 push	 0
  0022f	e8 00 00 00 00	 call	 ?GetBattleSoccerGoalMove@@YAHH@Z ; GetBattleSoccerGoalMove
  00234	83 c4 04	 add	 esp, 4
  00237	85 c0		 test	 eax, eax
  00239	0f 84 65 49 00
	00		 je	 $LN739@Attack
$LN46@Attack:

; 189  : 					{
; 190  : 						return TRUE;
; 191  : 					}
; 192  : 				}
; 193  : 			}
; 194  : 
; 195  : 			if ( lpObj->lpGuild->WarState )

  0023f	8b 83 18 06 00
	00		 mov	 eax, DWORD PTR [ebx+1560]
  00245	80 b8 91 05 00
	00 00		 cmp	 BYTE PTR [eax+1425], 0
  0024c	74 18		 je	 SHORT $LN49@Attack

; 196  : 			{
; 197  : 				if ( lpObj->lpGuild->WarType == 0 )

  0024e	80 b8 92 05 00
	00 00		 cmp	 BYTE PTR [eax+1426], 0
  00255	75 0f		 jne	 SHORT $LN49@Attack

; 198  : 				{
; 199  : 					if ( lpTargetObj->Type == OBJ_MONSTER )

  00257	80 7f 50 02	 cmp	 BYTE PTR [edi+80], 2
  0025b	0f 85 57 01 00
	00		 jne	 $LN65@Attack

; 200  : 					{
; 201  : 						return TRUE;

  00261	e9 3e 49 00 00	 jmp	 $LN739@Attack
$LN49@Attack:

; 202  : 					}
; 203  : 				}
; 204  : 			}
; 205  : 		}
; 206  : 	}
; 207  : 
; 208  : 	if ( lpTargetObj->Type == OBJ_MONSTER )

  00266	80 7f 50 02	 cmp	 BYTE PTR [edi+80], 2
  0026a	0f 85 48 01 00
	00		 jne	 $LN65@Attack

; 209  : 	{
; 210  : 		if ( lpTargetObj->m_iMonsterBattleDelay > 0 )

  00270	80 bf a9 05 00
	00 00		 cmp	 BYTE PTR [edi+1449], 0
  00277	0f 8f 27 49 00
	00		 jg	 $LN739@Attack

; 211  : 			return TRUE;
; 212  : 
; 213  : 		if ( lpTargetObj->Class == 200 )

  0027d	b8 c8 00 00 00	 mov	 eax, 200		; 000000c8H
  00282	66 39 87 90 00
	00 00		 cmp	 WORD PTR [edi+144], ax
  00289	75 3a		 jne	 SHORT $LN52@Attack

; 214  : 		{
; 215  : 			if ( skill )

  0028b	8b b5 e0 fe ff
	ff		 mov	 esi, DWORD PTR _skill$1$[ebp]

; 216  : 			{
; 217  : 				gObjMonsterStateProc(lpTargetObj, 7, lpObj->m_Index, 0);

  00291	6a 00		 push	 0
  00293	ff 33		 push	 DWORD PTR [ebx]
  00295	85 f6		 test	 esi, esi
  00297	74 04		 je	 SHORT $LN53@Attack
  00299	6a 07		 push	 7

; 218  : 			}
; 219  : 			else

  0029b	eb 02		 jmp	 SHORT $LN884@Attack
$LN53@Attack:

; 220  : 			{
; 221  : 				gObjMonsterStateProc(lpTargetObj, 6, lpObj->m_Index, 0);

  0029d	6a 06		 push	 6
$LN884@Attack:
  0029f	57		 push	 edi
  002a0	e8 00 00 00 00	 call	 ?gObjMonsterStateProc@@YAXPAUOBJECTSTRUCT@@HHH@Z ; gObjMonsterStateProc
  002a5	83 c4 10	 add	 esp, 16			; 00000010H

; 222  : 			}
; 223  : 
; 224  : 			if ( magicsend )

  002a8	83 7d 14 00	 cmp	 DWORD PTR _magicsend$[ebp], 0
  002ac	0f 84 f2 48 00
	00		 je	 $LN739@Attack

; 225  : 			{
; 226  : 				GCMagicAttackNumberSend(lpObj, skill, lpTargetObj->m_Index, skillSuccess);

  002b2	6a 01		 push	 1
  002b4	ff 37		 push	 DWORD PTR [edi]
  002b6	56		 push	 esi
  002b7	53		 push	 ebx
  002b8	e8 00 00 00 00	 call	 ?GCMagicAttackNumberSend@@YAXPAUOBJECTSTRUCT@@GHE@Z ; GCMagicAttackNumberSend
  002bd	83 c4 10	 add	 esp, 16			; 00000010H

; 227  : 			}
; 228  : 
; 229  : 			return TRUE;

  002c0	e9 df 48 00 00	 jmp	 $LN739@Attack
$LN52@Attack:

; 230  : 		}
; 231  : 
; 232  : 		if ( gObjCheckUsedBuffEffect(lpTargetObj,BUFF_MONSTERMAGIC_RESIST) == TRUE )

  002c5	6a 3f		 push	 63			; 0000003fH
  002c7	57		 push	 edi
  002c8	e8 00 00 00 00	 call	 ?gObjCheckUsedBuffEffect@@YA_NPAUOBJECTSTRUCT@@H@Z ; gObjCheckUsedBuffEffect
  002cd	83 c4 08	 add	 esp, 8
  002d0	3c 01		 cmp	 al, 1
  002d2	75 33		 jne	 SHORT $LN57@Attack

; 233  : 		{
; 234  : 			BOOL bCheckAttackIsMagicType = gObjCheckAttackTypeMagic(lpObj->Class, skill);

  002d4	ff b5 e0 fe ff
	ff		 push	 DWORD PTR _skill$1$[ebp]
  002da	0f b7 83 90 00
	00 00		 movzx	 eax, WORD PTR [ebx+144]
  002e1	50		 push	 eax
  002e2	e8 00 00 00 00	 call	 ?gObjCheckAttackTypeMagic@@YAHHH@Z ; gObjCheckAttackTypeMagic
  002e7	83 c4 08	 add	 esp, 8

; 235  : 
; 236  : 			if ( bCheckAttackIsMagicType == 1 )

  002ea	83 f8 01	 cmp	 eax, 1
  002ed	75 18		 jne	 SHORT $LN57@Attack

; 237  : 			{
; 238  : 				GCMagicAttackNumberSend(lpObj, skill, lpTargetObj->m_Index, 0);

  002ef	6a 00		 push	 0
  002f1	ff 37		 push	 DWORD PTR [edi]
  002f3	ff b5 e0 fe ff
	ff		 push	 DWORD PTR _skill$1$[ebp]
  002f9	53		 push	 ebx
  002fa	e8 00 00 00 00	 call	 ?GCMagicAttackNumberSend@@YAXPAUOBJECTSTRUCT@@GHE@Z ; GCMagicAttackNumberSend
  002ff	83 c4 10	 add	 esp, 16			; 00000010H

; 239  : 				return TRUE;

  00302	e9 9d 48 00 00	 jmp	 $LN739@Attack
$LN57@Attack:

; 240  : 			}
; 241  : 		}
; 242  : 
; 243  : 		if ( gObjCheckUsedBuffEffect(lpTargetObj,BUFF_MONCHEMISTRY_RESIST) == TRUE  )

  00307	6a 40		 push	 64			; 00000040H
  00309	57		 push	 edi
  0030a	e8 00 00 00 00	 call	 ?gObjCheckUsedBuffEffect@@YA_NPAUOBJECTSTRUCT@@H@Z ; gObjCheckUsedBuffEffect
  0030f	83 c4 08	 add	 esp, 8
  00312	3c 01		 cmp	 al, 1
  00314	75 31		 jne	 SHORT $LN59@Attack

; 244  : 		{
; 245  : 			BOOL bCheckAttackIsMagicType = gObjCheckAttackTypeMagic(lpObj->Class, skill);

  00316	ff b5 e0 fe ff
	ff		 push	 DWORD PTR _skill$1$[ebp]
  0031c	0f b7 83 90 00
	00 00		 movzx	 eax, WORD PTR [ebx+144]
  00323	50		 push	 eax
  00324	e8 00 00 00 00	 call	 ?gObjCheckAttackTypeMagic@@YAHHH@Z ; gObjCheckAttackTypeMagic
  00329	83 c4 08	 add	 esp, 8

; 246  : 
; 247  : 			if ( bCheckAttackIsMagicType == 0 )

  0032c	85 c0		 test	 eax, eax
  0032e	75 17		 jne	 SHORT $LN59@Attack

; 248  : 			{
; 249  : 				GCDamageSend(lpObj->m_Index, lpTargetObj->m_Index, 0, 0, 0, 0);

  00330	50		 push	 eax
  00331	50		 push	 eax
$LN954@Attack:
  00332	6a 00		 push	 0
  00334	6a 00		 push	 0
  00336	ff 37		 push	 DWORD PTR [edi]
  00338	ff 33		 push	 DWORD PTR [ebx]
  0033a	e8 00 00 00 00	 call	 ?GCDamageSend@@YAXHHHHHH@Z ; GCDamageSend
  0033f	83 c4 18	 add	 esp, 24			; 00000018H

; 250  : 				return TRUE;

  00342	e9 5d 48 00 00	 jmp	 $LN739@Attack
$LN59@Attack:

; 251  : 			}
; 252  : 		}
; 253  : 
; 254  : 
; 255  : 		if ( lpTargetObj->m_MonsterSkillElementInfo.m_iSkillElementImmuneTime > 0 )

  00347	83 bf b0 20 00
	00 00		 cmp	 DWORD PTR [edi+8368], 0
  0034e	7e 12		 jle	 SHORT $LN61@Attack

; 256  : 		{
; 257  : 			if ( lpTargetObj->m_MonsterSkillElementInfo.m_iSkillElementImmuneNumber == skill )

  00350	8b 85 e0 fe ff
	ff		 mov	 eax, DWORD PTR _skill$1$[ebp]
  00356	39 87 ac 20 00
	00		 cmp	 DWORD PTR [edi+8364], eax
  0035c	0f 84 42 48 00
	00		 je	 $LN739@Attack
$LN61@Attack:

; 258  : 			{
; 259  : 				return TRUE;
; 260  : 			}
; 261  : 		}
; 262  : 
; 263  : 		if ( lpTargetObj->m_MonsterSkillElementInfo.m_iSkillElementSpecialImmuneTime > 0 )

  00362	83 bf c8 20 00
	00 00		 cmp	 DWORD PTR [edi+8392], 0
  00369	7e 06		 jle	 SHORT $LN62@Attack

; 264  : 		{
; 265  : 			int MSBDamage = 32;
; 266  : 			GCDamageSend(lpObj->m_Index, lpTargetObj->m_Index, 0, 0, MSBDamage, 0);

  0036b	6a 00		 push	 0
  0036d	6a 20		 push	 32			; 00000020H

; 267  : 			return TRUE;

  0036f	eb c1		 jmp	 SHORT $LN954@Attack
$LN62@Attack:

; 268  : 		}
; 269  : 
; 270  : 		if ( lpTargetObj->Class == 523 )

  00371	0f b7 87 90 00
	00 00		 movzx	 eax, WORD PTR [edi+144]
  00378	b9 0b 02 00 00	 mov	 ecx, 523		; 0000020bH
  0037d	66 3b c1	 cmp	 ax, cx
  00380	0f 84 1e 48 00
	00		 je	 $LN739@Attack

; 271  : 			return true;
; 272  : 
; 273  : 		if ( lpTargetObj->Class >= 524 && lpTargetObj->Class <= 528 && lpTargetObj->Class != 526 )

  00386	b9 0c 02 00 00	 mov	 ecx, 524		; 0000020cH
  0038b	66 3b c1	 cmp	 ax, cx
  0038e	72 28		 jb	 SHORT $LN65@Attack
  00390	b9 10 02 00 00	 mov	 ecx, 528		; 00000210H
  00395	66 3b c1	 cmp	 ax, cx
  00398	77 1e		 ja	 SHORT $LN65@Attack
  0039a	b9 0e 02 00 00	 mov	 ecx, 526		; 0000020eH
  0039f	66 3b c1	 cmp	 ax, cx
  003a2	74 14		 je	 SHORT $LN65@Attack

; 274  : 		{
; 275  : 			if( !g_ImperialGuardian.IsAttackAbleMonster(lpTargetObj->m_Index) )

  003a4	ff 37		 push	 DWORD PTR [edi]
  003a6	b9 00 00 00 00	 mov	 ecx, OFFSET ?g_ImperialGuardian@@3VCImperialGuardian@@A ; g_ImperialGuardian
  003ab	e8 00 00 00 00	 call	 ?IsAttackAbleMonster@CImperialGuardian@@QAE_NH@Z ; CImperialGuardian::IsAttackAbleMonster
  003b0	84 c0		 test	 al, al
  003b2	0f 84 ec 47 00
	00		 je	 $LN739@Attack
$LN65@Attack:

; 276  : 				return true;
; 277  : 		}
; 278  : 	}
; 279  : 
; 280  : 	if ( lpObj->Type == OBJ_USER )

  003b8	80 7b 50 01	 cmp	 BYTE PTR [ebx+80], 1
  003bc	75 26		 jne	 SHORT $LN66@Attack

; 281  : 	{
; 282  : 		if ( !gObjIsConnected(lpObj) )

  003be	53		 push	 ebx
  003bf	e8 00 00 00 00	 call	 ?gObjIsConnected@@YAHPAUOBJECTSTRUCT@@@Z ; gObjIsConnected
  003c4	83 c4 04	 add	 esp, 4
  003c7	85 c0		 test	 eax, eax
  003c9	0f 84 86 38 00
	00		 je	 $LN956@Attack

; 283  : 		{
; 284  : 			return FALSE;
; 285  : 		}
; 286  : 
; 287  : 		gDarkSpirit[lpObj->m_Index].SetTarget(lpTargetObj->m_Index);

  003cf	8b 03		 mov	 eax, DWORD PTR [ebx]
  003d1	ff 37		 push	 DWORD PTR [edi]
  003d3	8d 0c 40	 lea	 ecx, DWORD PTR [eax+eax*2]
  003d6	c1 e1 04	 shl	 ecx, 4
  003d9	81 c1 00 00 00
	00		 add	 ecx, OFFSET ?gDarkSpirit@@3PAVCDarkSpirit@@A ; gDarkSpirit
  003df	e8 00 00 00 00	 call	 ?SetTarget@CDarkSpirit@@QAEXH@Z ; CDarkSpirit::SetTarget
$LN66@Attack:

; 288  : 	}
; 289  : 
; 290  : 	if ( lpTargetObj->Type == OBJ_USER )

  003e4	80 7f 50 01	 cmp	 BYTE PTR [edi+80], 1
  003e8	75 11		 jne	 SHORT $LN69@Attack

; 291  : 	{
; 292  : 		if ( !gObjIsConnected(lpTargetObj))

  003ea	57		 push	 edi
  003eb	e8 00 00 00 00	 call	 ?gObjIsConnected@@YAHPAUOBJECTSTRUCT@@@Z ; gObjIsConnected
  003f0	83 c4 04	 add	 esp, 4
  003f3	85 c0		 test	 eax, eax
  003f5	0f 84 5a 38 00
	00		 je	 $LN956@Attack
$LN69@Attack:

; 293  : 		{
; 294  : 			return FALSE;
; 295  : 		}
; 296  : 	}
; 297  : 
; 298  : 	if(lpObj->m_RecallMon == lpTargetObj->m_Index)

  003fb	8b 83 30 06 00
	00		 mov	 eax, DWORD PTR [ebx+1584]
  00401	3b 07		 cmp	 eax, DWORD PTR [edi]
  00403	75 14		 jne	 SHORT $LN73@Attack

; 299  : 
; 300  : 	if ( lpObj->Type == OBJ_USER && lpTargetObj->Type == OBJ_MONSTER )	// PLAYER VS MONSTER

  00405	80 7b 50 01	 cmp	 BYTE PTR [ebx+80], 1
  00409	75 0e		 jne	 SHORT $LN73@Attack
  0040b	80 7f 50 02	 cmp	 BYTE PTR [edi+80], 2
  0040f	75 08		 jne	 SHORT $LN73@Attack

; 301  : 	{
; 302  : 		if ( lpObj->m_RecallMon >= 0 )

  00411	85 c0		 test	 eax, eax
  00413	0f 89 3c 38 00
	00		 jns	 $LN956@Attack
$LN73@Attack:

; 303  : 		{
; 304  : 			if ( lpObj->m_RecallMon == lpTargetObj->m_Index )
; 305  : 			{
; 306  : 				return FALSE;
; 307  : 			}
; 308  : 		}
; 309  : 	}
; 310  : 	
; 311  : 	if ( !gObjAttackQ(lpTargetObj))

  00419	57		 push	 edi
  0041a	e8 00 00 00 00	 call	 ?gObjAttackQ@@YAHPAUOBJECTSTRUCT@@@Z ; gObjAttackQ
  0041f	83 c4 04	 add	 esp, 4
  00422	85 c0		 test	 eax, eax
  00424	0f 84 2b 38 00
	00		 je	 $LN956@Attack

; 312  : 	{
; 313  : 		return FALSE;
; 314  : 	}
; 315  : 
; 316  : 	if ( lpObj->m_RecallMon >= 0 )

  0042a	83 bb 30 06 00
	00 00		 cmp	 DWORD PTR [ebx+1584], 0
  00431	7c 0b		 jl	 SHORT $LN75@Attack

; 317  : 		gObjCallMonsterSetEnemy(lpObj, lpTargetObj->m_Index);

  00433	ff 37		 push	 DWORD PTR [edi]
  00435	53		 push	 ebx
  00436	e8 00 00 00 00	 call	 ?gObjCallMonsterSetEnemy@@YAHPAUOBJECTSTRUCT@@H@Z ; gObjCallMonsterSetEnemy
  0043b	83 c4 08	 add	 esp, 8
$LN75@Attack:

; 318  : 
; 319  : 	if ( AttackDamage == 0 )

  0043e	83 7d 1c 00	 cmp	 DWORD PTR _AttackDamage$[ebp], 0
  00442	75 3e		 jne	 SHORT $LN79@Attack

; 320  : 	{
; 321  : 		if ( skill != 76 )

  00444	83 bd e0 fe ff
	ff 4c		 cmp	 DWORD PTR _skill$1$[ebp], 76 ; 0000004cH
  0044b	74 35		 je	 SHORT $LN79@Attack

; 322  : 		{
; 323  : 			if ( gObjCheckUsedBuffEffect(lpObj,BUFF_INFINITY_ARROW) == FALSE &&

  0044d	6a 06		 push	 6
  0044f	53		 push	 ebx
  00450	e8 00 00 00 00	 call	 ?gObjCheckUsedBuffEffect@@YA_NPAUOBJECTSTRUCT@@H@Z ; gObjCheckUsedBuffEffect
  00455	83 c4 08	 add	 esp, 8
  00458	84 c0		 test	 al, al
  0045a	75 26		 jne	 SHORT $LN79@Attack
  0045c	68 8f 00 00 00	 push	 143			; 0000008fH
  00461	53		 push	 ebx
  00462	e8 00 00 00 00	 call	 ?gObjCheckUsedBuffEffect@@YA_NPAUOBJECTSTRUCT@@H@Z ; gObjCheckUsedBuffEffect
  00467	83 c4 08	 add	 esp, 8
  0046a	84 c0		 test	 al, al
  0046c	75 14		 jne	 SHORT $LN79@Attack

; 324  : 				 gObjCheckUsedBuffEffect(lpObj,BUFF_INFINITY_ARROW2) == FALSE )
; 325  : 			{
; 326  : 				if ( !this->DecreaseArrow(lpObj) )

  0046e	8b 8d c0 fe ff
	ff		 mov	 ecx, DWORD PTR _this$GSCopy$1$[ebp]
  00474	53		 push	 ebx
  00475	e8 00 00 00 00	 call	 ?DecreaseArrow@CObjBaseAttack@@QAEHPAUOBJECTSTRUCT@@@Z ; CObjBaseAttack::DecreaseArrow
  0047a	85 c0		 test	 eax, eax
  0047c	0f 84 d3 37 00
	00		 je	 $LN956@Attack
$LN79@Attack:

; 327  : 				{
; 328  : 					return FALSE;
; 329  : 				}
; 330  : 			}
; 331  : 		}
; 332  : 	}
; 333  : 
; 334  : 	if ( this->CheckAttackArea(lpObj, lpTargetObj) == FALSE )

  00482	8b 8d c0 fe ff
	ff		 mov	 ecx, DWORD PTR _this$GSCopy$1$[ebp]
  00488	57		 push	 edi
  00489	53		 push	 ebx
  0048a	e8 00 00 00 00	 call	 ?CheckAttackArea@CObjBaseAttack@@QAEHPAUOBJECTSTRUCT@@0@Z ; CObjBaseAttack::CheckAttackArea
  0048f	85 c0		 test	 eax, eax
  00491	0f 84 be 37 00
	00		 je	 $LN956@Attack

; 335  : 	{
; 336  : 		return FALSE;
; 337  : 	}
; 338  : 
; 339  : 	lpCallObj = lpObj;
; 340  : 
; 341  : 	if ( lpObj->Type == OBJ_MONSTER )

  00497	80 7b 50 02	 cmp	 BYTE PTR [ebx+80], 2
  0049b	8b c3		 mov	 eax, ebx
  0049d	75 16		 jne	 SHORT $LN82@Attack

; 342  : 	{
; 343  : 		if ( lpObj->m_RecallMon >= 0 )

  0049f	8b 8b 30 06 00
	00		 mov	 ecx, DWORD PTR [ebx+1584]
  004a5	85 c9		 test	 ecx, ecx
  004a7	78 0c		 js	 SHORT $LN82@Attack

; 344  : 		{
; 345  : 			lpCallObj = &gObj[lpObj->m_RecallMon];

  004a9	69 c1 40 27 00
	00		 imul	 eax, ecx, 10048
  004af	03 05 00 00 00
	00		 add	 eax, DWORD PTR ?gObj@@3PAUOBJECTSTRUCT@@A ; gObj
$LN82@Attack:

; 346  : 		}
; 347  : 	}
; 348  : 
; 349  : 	lpCallTargetObj = lpTargetObj;
; 350  : 
; 351  : 	if ( lpTargetObj->Type == OBJ_MONSTER )
; 352  : 	{
; 353  : 		if ( lpTargetObj->m_RecallMon >= 0 )
; 354  : 		{
; 355  : 			lpCallTargetObj = &gObj[lpTargetObj->m_RecallMon];
; 356  : 		}
; 357  : 	}
; 358  : 
; 359  : 	if ( this->PkCheck(lpCallObj, lpTargetObj) == FALSE )

  004b5	8b 8d c0 fe ff
	ff		 mov	 ecx, DWORD PTR _this$GSCopy$1$[ebp]
  004bb	57		 push	 edi
  004bc	50		 push	 eax
  004bd	e8 00 00 00 00	 call	 ?PkCheck@CObjBaseAttack@@QAEHPAUOBJECTSTRUCT@@0@Z ; CObjBaseAttack::PkCheck
  004c2	85 c0		 test	 eax, eax
  004c4	0f 84 8b 37 00
	00		 je	 $LN956@Attack

; 360  : 		return FALSE;
; 361  : 
; 362  : 	int Strength = lpObj->Strength + lpObj->AddStrength;

  004ca	0f b7 83 d0 00
	00 00		 movzx	 eax, WORD PTR [ebx+208]
  004d1	0f b7 8b fc 00
	00 00		 movzx	 ecx, WORD PTR [ebx+252]
  004d8	03 c8		 add	 ecx, eax

; 363  : 	int Dexterity = lpObj->Dexterity + lpObj->AddDexterity;

  004da	0f b7 83 d2 00
	00 00		 movzx	 eax, WORD PTR [ebx+210]
  004e1	89 8d bc fe ff
	ff		 mov	 DWORD PTR _Strength$1$[ebp], ecx
  004e7	0f b7 8b fe 00
	00 00		 movzx	 ecx, WORD PTR [ebx+254]
  004ee	03 c8		 add	 ecx, eax

; 364  : 	int Vitality = lpObj->Vitality + lpObj->AddVitality;

  004f0	0f b7 83 d4 00
	00 00		 movzx	 eax, WORD PTR [ebx+212]
  004f7	89 8d 8c fe ff
	ff		 mov	 DWORD PTR _Dexterity$1$[ebp], ecx
  004fd	0f b7 8b 00 01
	00 00		 movzx	 ecx, WORD PTR [ebx+256]
  00504	03 c8		 add	 ecx, eax

; 365  : 	int Energy = lpObj->Energy + lpObj->AddEnergy;

  00506	0f b7 83 d6 00
	00 00		 movzx	 eax, WORD PTR [ebx+214]
  0050d	89 8d a0 fe ff
	ff		 mov	 DWORD PTR _Vitality$1$[ebp], ecx
  00513	0f b7 8b 02 01
	00 00		 movzx	 ecx, WORD PTR [ebx+258]
  0051a	03 c8		 add	 ecx, eax

; 366  : 	BOOL bIsOnDuel = gObjDuelCheck(lpObj, lpTargetObj);

  0051c	57		 push	 edi
  0051d	53		 push	 ebx
  0051e	89 8d d4 fe ff
	ff		 mov	 DWORD PTR _Energy$1$[ebp], ecx
  00524	e8 00 00 00 00	 call	 ?gObjDuelCheck@@YAHPAUOBJECTSTRUCT@@0@Z ; gObjDuelCheck
  00529	83 c4 08	 add	 esp, 8
  0052c	89 85 e4 fe ff
	ff		 mov	 DWORD PTR _bIsOnDuel$1$[ebp], eax

; 367  : 
; 368  : #if (CUSTOM_OLYMP!=1)
; 369  : 	if ( bIsOnDuel )

  00532	85 c0		 test	 eax, eax
  00534	74 10		 je	 SHORT $LN86@Attack

; 370  : 	{
; 371  : 		lpObj->m_iDuelTickCount = GetTickCount();

  00536	ff d6		 call	 esi
  00538	89 83 58 12 00
	00		 mov	 DWORD PTR [ebx+4696], eax

; 372  : 		lpTargetObj->m_iDuelTickCount = GetTickCount();

  0053e	ff d6		 call	 esi
  00540	89 87 58 12 00
	00		 mov	 DWORD PTR [edi+4696], eax
$LN86@Attack:

; 373  : 	}
; 374  : #endif
; 375  : 
; 376  : 	if ( lpObj->pInventory[0].m_Type == ITEMGET(2,5) && lpObj->pInventory[0].m_IsValidItem != false )	// Crystal Sword

  00546	8b 83 c0 11 00
	00		 mov	 eax, DWORD PTR [ebx+4544]
  0054c	b9 05 04 00 00	 mov	 ecx, 1029		; 00000405H
  00551	66 39 48 06	 cmp	 WORD PTR [eax+6], cx
  00555	75 3b		 jne	 SHORT $LN87@Attack
  00557	80 b8 ac 00 00
	00 00		 cmp	 BYTE PTR [eax+172], 0
  0055e	74 32		 je	 SHORT $LN87@Attack
$LN885@Attack:

; 377  : 	{
; 378  : 		if ( (rand()%20) == 0 )

  00560	e8 00 00 00 00	 call	 _rand
  00565	99		 cdq
  00566	b9 14 00 00 00	 mov	 ecx, 20			; 00000014H
  0056b	f7 f9		 idiv	 ecx
  0056d	85 d2		 test	 edx, edx
  0056f	75 33		 jne	 SHORT $LN824@Attack

; 379  : 		{
; 380  : 			skill = 7;

  00571	b8 07 00 00 00	 mov	 eax, 7

; 381  : 			lpMagic = &DefMagicInf[7];

  00576	c7 85 dc fe ff
	ff a8 00 00 00	 mov	 DWORD PTR _lpMagic$GSCopy$1$[ebp], OFFSET ?DefMagicInf@@3PAVCMagicInf@@A+168
  00580	89 85 e0 fe ff
	ff		 mov	 DWORD PTR _skill$1$[ebp], eax

; 382  : 			magicsend = 1;

  00586	c7 85 ac fe ff
	ff 01 00 00 00	 mov	 DWORD PTR _magicsend$1$[ebp], 1

; 383  : 		}
; 384  : 	}

  00590	eb 21		 jmp	 SHORT $LN91@Attack
$LN87@Attack:

; 385  : 	else if ( lpObj->pInventory[1].m_Type == ITEMGET(2,5) && lpObj->pInventory[1].m_IsValidItem != false )	// Crystal Sword

  00592	66 39 88 da 00
	00 00		 cmp	 WORD PTR [eax+218], cx
  00599	75 09		 jne	 SHORT $LN824@Attack
  0059b	80 b8 80 01 00
	00 00		 cmp	 BYTE PTR [eax+384], 0
  005a2	75 bc		 jne	 SHORT $LN885@Attack
$LN824@Attack:

; 386  : 	{
; 387  : 		if ( (rand()%20) == 0 )
; 388  : 		{
; 389  : 			skill = 7;
; 390  : 			lpMagic = &DefMagicInf[7];
; 391  : 			magicsend = 1;

  005a4	8b 45 14	 mov	 eax, DWORD PTR _magicsend$[ebp]
  005a7	89 85 ac fe ff
	ff		 mov	 DWORD PTR _magicsend$1$[ebp], eax
  005ad	8b 85 e0 fe ff
	ff		 mov	 eax, DWORD PTR _skill$1$[ebp]
$LN91@Attack:

; 392  : 		}
; 393  : 	}
; 394  : 
; 395  : 	MSBFlag = 0;
; 396  : 	MsgDamage = 0;
; 397  : 	skillSuccess = this->ResistanceCheck(lpObj, lpTargetObj, skill);

  005b3	8b 8d c0 fe ff
	ff		 mov	 ecx, DWORD PTR _this$GSCopy$1$[ebp]
  005b9	50		 push	 eax
  005ba	57		 push	 edi
  005bb	53		 push	 ebx
  005bc	c6 85 b7 fe ff
	ff 00		 mov	 BYTE PTR _MSBFlag$1$[ebp], 0
  005c3	c7 85 c8 fe ff
	ff 00 00 00 00	 mov	 DWORD PTR _MsgDamage$[ebp], 0
  005cd	e8 00 00 00 00	 call	 ?ResistanceCheck@CObjBaseAttack@@QAEHPAUOBJECTSTRUCT@@0H@Z ; CObjBaseAttack::ResistanceCheck
  005d2	89 85 cc fe ff
	ff		 mov	 DWORD PTR _skillSuccess$1$[ebp], eax

; 398  : 	BOOL skillIceArrowSuccess = skillSuccess;

  005d8	8b f0		 mov	 esi, eax

; 399  : 
; 400  : 	if ( skill == AT_SKILL_ELFHARDEN || skill == AT_MSKILL_FE_ICEARROW1 )

  005da	8b 85 e0 fe ff
	ff		 mov	 eax, DWORD PTR _skill$1$[ebp]
  005e0	83 f8 33	 cmp	 eax, 51			; 00000033H
  005e3	74 07		 je	 SHORT $LN93@Attack
  005e5	3d a8 01 00 00	 cmp	 eax, 424		; 000001a8H
  005ea	75 0a		 jne	 SHORT $LN92@Attack
$LN93@Attack:

; 401  : 	{
; 402  : 		skillSuccess = 0;

  005ec	c7 85 cc fe ff
	ff 00 00 00 00	 mov	 DWORD PTR _skillSuccess$1$[ebp], 0
$LN92@Attack:

; 403  : 	}
; 404  : 	BOOL bAllMiss = FALSE;
; 405  : 	
; 406  : 	if ( gObjCheckUsedBuffEffect(lpObj,BUFF_INVISIBILITY) == TRUE && (lpObj->Authority & 32) != 32)

  005f6	6a 12		 push	 18			; 00000012H
  005f8	53		 push	 ebx
  005f9	c7 85 a8 fe ff
	ff 00 00 00 00	 mov	 DWORD PTR _bAllMiss$[ebp], 0
  00603	e8 00 00 00 00	 call	 ?gObjCheckUsedBuffEffect@@YA_NPAUOBJECTSTRUCT@@H@Z ; gObjCheckUsedBuffEffect
  00608	83 c4 08	 add	 esp, 8
  0060b	3c 01		 cmp	 al, 1
  0060d	75 15		 jne	 SHORT $LN94@Attack
  0060f	f6 83 bc 01 00
	00 20		 test	 BYTE PTR [ebx+444], 32	; 00000020H
  00616	75 0c		 jne	 SHORT $LN94@Attack

; 407  : 	{
; 408  : 		gObjUseSkill.RemoveCloakingEffect(lpObj->m_Index);

  00618	ff 33		 push	 DWORD PTR [ebx]
  0061a	b9 00 00 00 00	 mov	 ecx, OFFSET ?gObjUseSkill@@3VCObjUseSkill@@A ; gObjUseSkill
  0061f	e8 00 00 00 00	 call	 ?RemoveCloakingEffect@CObjUseSkill@@QAEHH@Z ; CObjUseSkill::RemoveCloakingEffect
$LN94@Attack:

; 409  : 	}
; 410  : 
; 411  : 	BOOL bDamageReflect = FALSE;
; 412  : 	
; 413  : 	if ( AttackDamage == 0 )

  00624	83 7d 1c 00	 cmp	 DWORD PTR _AttackDamage$[ebp], 0
  00628	c7 85 88 fe ff
	ff 00 00 00 00	 mov	 DWORD PTR _bDamageReflect$1$[ebp], 0
  00632	c7 85 84 fe ff
	ff 24 18 00 00	 mov	 DWORD PTR tv3257[ebp], 6180 ; 00001824H
  0063c	c7 85 80 fe ff
	ff 28 18 00 00	 mov	 DWORD PTR tv3265[ebp], 6184 ; 00001828H
  00646	c7 85 98 fe ff
	ff 2b 18 00 00	 mov	 DWORD PTR tv3275[ebp], 6187 ; 0000182bH
  00650	c7 85 b8 fe ff
	ff 32 18 00 00	 mov	 DWORD PTR tv3322[ebp], 6194 ; 00001832H
  0065a	0f 85 a6 35 00
	00		 jne	 $LN95@Attack

; 414  : 	{
; 415  : 		if ( g_ShieldSystemOn == TRUE )

  00660	83 3d 00 00 00
	00 01		 cmp	 DWORD PTR ?g_ShieldSystemOn@@3HA, 1 ; g_ShieldSystemOn
  00667	0f 85 90 00 00
	00		 jne	 $LN97@Attack

; 416  : 		{
; 417  : 			if ( lpObj->Type == OBJ_USER && lpTargetObj->Type == OBJ_USER )

  0066d	80 7b 50 01	 cmp	 BYTE PTR [ebx+80], 1
  00671	75 4a		 jne	 SHORT $LN99@Attack
  00673	80 7f 50 01	 cmp	 BYTE PTR [edi+80], 1
  00677	75 44		 jne	 SHORT $LN99@Attack

; 418  : 			{
; 419  : 				if ( !this->MissCheckPvP(lpObj, lpTargetObj, skill, skillSuccess, magicsend, bAllMiss, byBarrageCount) )

  00679	ff 75 24	 push	 DWORD PTR _byBarrageCount$[ebp]
  0067c	8b 8d c0 fe ff
	ff		 mov	 ecx, DWORD PTR _this$GSCopy$1$[ebp]
  00682	8d 85 a8 fe ff
	ff		 lea	 eax, DWORD PTR _bAllMiss$[ebp]
  00688	50		 push	 eax
  00689	ff b5 ac fe ff
	ff		 push	 DWORD PTR _magicsend$1$[ebp]
  0068f	ff b5 cc fe ff
	ff		 push	 DWORD PTR _skillSuccess$1$[ebp]
  00695	ff b5 e0 fe ff
	ff		 push	 DWORD PTR _skill$1$[ebp]
  0069b	57		 push	 edi
  0069c	53		 push	 ebx
  0069d	e8 00 00 00 00	 call	 ?MissCheckPvP@CObjBaseAttack@@QAEHPAUOBJECTSTRUCT@@0HHHAAHE@Z ; CObjBaseAttack::MissCheckPvP
  006a2	85 c0		 test	 eax, eax
  006a4	0f 85 84 00 00
	00		 jne	 $LN103@Attack
  006aa	5e		 pop	 esi
  006ab	5f		 pop	 edi
  006ac	5b		 pop	 ebx

; 3407 : 	}
; 3408 : 	return TRUE;
; 3409 : }

  006ad	8b 4d fc	 mov	 ecx, DWORD PTR __$ArrayPad$[ebp]
  006b0	33 cd		 xor	 ecx, ebp
  006b2	e8 00 00 00 00	 call	 @__security_check_cookie@4
  006b7	8b e5		 mov	 esp, ebp
  006b9	5d		 pop	 ebp
  006ba	c2 24 00	 ret	 36			; 00000024H
$LN99@Attack:

; 420  : 				{
; 421  : 					return FALSE;
; 422  : 				}
; 423  : 			}
; 424  : 			else if ( !this->MissCheck(lpObj, lpTargetObj, skill, skillSuccess, magicsend, bAllMiss, byBarrageCount) )

  006bd	ff 75 24	 push	 DWORD PTR _byBarrageCount$[ebp]
  006c0	8b 8d c0 fe ff
	ff		 mov	 ecx, DWORD PTR _this$GSCopy$1$[ebp]
  006c6	8d 95 a8 fe ff
	ff		 lea	 edx, DWORD PTR _bAllMiss$[ebp]
  006cc	52		 push	 edx
  006cd	ff b5 ac fe ff
	ff		 push	 DWORD PTR _magicsend$1$[ebp]
  006d3	ff b5 cc fe ff
	ff		 push	 DWORD PTR _skillSuccess$1$[ebp]
  006d9	8b 01		 mov	 eax, DWORD PTR [ecx]
  006db	ff b5 e0 fe ff
	ff		 push	 DWORD PTR _skill$1$[ebp]
  006e1	57		 push	 edi
  006e2	53		 push	 ebx
  006e3	ff 50 04	 call	 DWORD PTR [eax+4]
  006e6	85 c0		 test	 eax, eax
  006e8	75 44		 jne	 SHORT $LN103@Attack
  006ea	5e		 pop	 esi
  006eb	5f		 pop	 edi
  006ec	5b		 pop	 ebx

; 3407 : 	}
; 3408 : 	return TRUE;
; 3409 : }

  006ed	8b 4d fc	 mov	 ecx, DWORD PTR __$ArrayPad$[ebp]
  006f0	33 cd		 xor	 ecx, ebp
  006f2	e8 00 00 00 00	 call	 @__security_check_cookie@4
  006f7	8b e5		 mov	 esp, ebp
  006f9	5d		 pop	 ebp
  006fa	c2 24 00	 ret	 36			; 00000024H
$LN97@Attack:

; 425  : 			{
; 426  : 				return FALSE;
; 427  : 			}
; 428  : 
; 429  : 		}
; 430  : 		else if ( !this->MissCheck(lpObj, lpTargetObj, skill, skillSuccess, magicsend, bAllMiss, byBarrageCount) )

  006fd	ff 75 24	 push	 DWORD PTR _byBarrageCount$[ebp]
  00700	8b 8d c0 fe ff
	ff		 mov	 ecx, DWORD PTR _this$GSCopy$1$[ebp]
  00706	8d 95 a8 fe ff
	ff		 lea	 edx, DWORD PTR _bAllMiss$[ebp]
  0070c	52		 push	 edx
  0070d	ff b5 ac fe ff
	ff		 push	 DWORD PTR _magicsend$1$[ebp]
  00713	ff b5 cc fe ff
	ff		 push	 DWORD PTR _skillSuccess$1$[ebp]
  00719	8b 01		 mov	 eax, DWORD PTR [ecx]
  0071b	ff b5 e0 fe ff
	ff		 push	 DWORD PTR _skill$1$[ebp]
  00721	57		 push	 edi
  00722	53		 push	 ebx
  00723	ff 50 04	 call	 DWORD PTR [eax+4]
  00726	85 c0		 test	 eax, eax
  00728	0f 84 27 35 00
	00		 je	 $LN956@Attack
$LN103@Attack:

; 431  : 		{
; 432  : 			return FALSE;
; 433  : 		}
; 434  : 
; 435  : 		if ( (skill == AT_SKILL_ELFHARDEN || skill == AT_MSKILL_FE_ICEARROW1) && skillIceArrowSuccess == TRUE )

  0072e	8b 85 e0 fe ff
	ff		 mov	 eax, DWORD PTR _skill$1$[ebp]
  00734	83 f8 33	 cmp	 eax, 51			; 00000033H
  00737	74 07		 je	 SHORT $LN105@Attack
  00739	3d a8 01 00 00	 cmp	 eax, 424		; 000001a8H
  0073e	75 65		 jne	 SHORT $LN104@Attack
$LN105@Attack:
  00740	83 fe 01	 cmp	 esi, 1
  00743	75 60		 jne	 SHORT $LN104@Attack

; 436  : 		{
; 437  : 			BuffSkillEffectInfo* lpInfo = g_BuffSkillEffect.GetEffect(skill);

  00745	50		 push	 eax
  00746	b9 00 00 00 00	 mov	 ecx, OFFSET ?g_BuffSkillEffect@@3VBuffSkillEffect@@A ; g_BuffSkillEffect
  0074b	e8 00 00 00 00	 call	 ?GetEffect@BuffSkillEffect@@QAEPAUBuffSkillEffectInfo@@H@Z ; BuffSkillEffect::GetEffect

; 438  : 
; 439  : 			if( !lpInfo )

  00750	85 c0		 test	 eax, eax
  00752	0f 84 fd 34 00
	00		 je	 $LN956@Attack

; 440  : 			{
; 441  : 				return 0;
; 442  : 			}
; 443  : 
; 444  : 			gObjAddBuffEffect(lpTargetObj,BUFF_ICEARROW,0,0,0,0,lpInfo->m_Arg1);

  00758	f3 0f 2c 40 04	 cvttss2si eax, DWORD PTR [eax+4]
  0075d	50		 push	 eax
  0075e	6a 00		 push	 0
  00760	6a 00		 push	 0
  00762	6a 00		 push	 0
  00764	6a 00		 push	 0
  00766	6a 39		 push	 57			; 00000039H
  00768	57		 push	 edi
  00769	e8 00 00 00 00	 call	 ?gObjAddBuffEffect@@YA_NPAUOBJECTSTRUCT@@HEHEHH@Z ; gObjAddBuffEffect

; 445  : 			lpTargetObj->lpAttackObj = lpObj;
; 446  : 			lpTargetObj->PathCount = 0;
; 447  : 			lpTargetObj->PathStartEnd = 0;
; 448  : 			skillSuccess = TRUE;
; 449  : 			gObjSetPosition(lpTargetObj->m_Index, lpTargetObj->X, lpTargetObj->Y);

  0076e	0f b6 87 21 01
	00 00		 movzx	 eax, BYTE PTR [edi+289]
  00775	50		 push	 eax
  00776	0f b6 87 20 01
	00 00		 movzx	 eax, BYTE PTR [edi+288]
  0077d	50		 push	 eax
  0077e	ff 37		 push	 DWORD PTR [edi]
  00780	89 9f b4 05 00
	00		 mov	 DWORD PTR [edi+1460], ebx
  00786	c7 87 58 01 00
	00 00 00 00 00	 mov	 DWORD PTR [edi+344], 0
  00790	c6 87 60 01 00
	00 00		 mov	 BYTE PTR [edi+352], 0
  00797	89 b5 cc fe ff
	ff		 mov	 DWORD PTR _skillSuccess$1$[ebp], esi
  0079d	e8 00 00 00 00	 call	 ?gObjSetPosition@@YAXHHH@Z ; gObjSetPosition
  007a2	83 c4 28	 add	 esp, 40			; 00000028H
$LN104@Attack:

; 450  : 		}
; 451  : 		
; 452  : 		int targetdefense = this->GetTargetDefense(lpObj, lpTargetObj, MsgDamage);

  007a5	8b 8d c0 fe ff
	ff		 mov	 ecx, DWORD PTR _this$GSCopy$1$[ebp]
  007ab	8d 85 c8 fe ff
	ff		 lea	 eax, DWORD PTR _MsgDamage$[ebp]
  007b1	50		 push	 eax
  007b2	57		 push	 edi
  007b3	53		 push	 ebx
  007b4	e8 00 00 00 00	 call	 ?GetTargetDefense@CObjBaseAttack@@QAEHPAUOBJECTSTRUCT@@0AAH@Z ; CObjBaseAttack::GetTargetDefense

; 453  : 		
; 454  : 		if( gObjCheckUsedBuffEffect(lpTargetObj,BUFF_BERSERKER) == TRUE ||
; 455  : 			gObjCheckUsedBuffEffect(lpTargetObj,BUFF_BERSERKER2) == TRUE ||
; 456  : 			gObjCheckUsedBuffEffect(lpTargetObj,BUFF_BERSERKER3) == TRUE ||

  007b9	6a 51		 push	 81			; 00000051H
  007bb	57		 push	 edi
  007bc	8b f0		 mov	 esi, eax
  007be	e8 00 00 00 00	 call	 ?gObjCheckUsedBuffEffect@@YA_NPAUOBJECTSTRUCT@@H@Z ; gObjCheckUsedBuffEffect
  007c3	83 c4 08	 add	 esp, 8
  007c6	3c 01		 cmp	 al, 1
  007c8	74 36		 je	 SHORT $LN108@Attack
  007ca	68 96 00 00 00	 push	 150			; 00000096H
  007cf	57		 push	 edi
  007d0	e8 00 00 00 00	 call	 ?gObjCheckUsedBuffEffect@@YA_NPAUOBJECTSTRUCT@@H@Z ; gObjCheckUsedBuffEffect
  007d5	83 c4 08	 add	 esp, 8
  007d8	3c 01		 cmp	 al, 1
  007da	74 24		 je	 SHORT $LN108@Attack
  007dc	68 97 00 00 00	 push	 151			; 00000097H
  007e1	57		 push	 edi
  007e2	e8 00 00 00 00	 call	 ?gObjCheckUsedBuffEffect@@YA_NPAUOBJECTSTRUCT@@H@Z ; gObjCheckUsedBuffEffect
  007e7	83 c4 08	 add	 esp, 8
  007ea	3c 01		 cmp	 al, 1
  007ec	74 12		 je	 SHORT $LN108@Attack
  007ee	68 98 00 00 00	 push	 152			; 00000098H
  007f3	57		 push	 edi
  007f4	e8 00 00 00 00	 call	 ?gObjCheckUsedBuffEffect@@YA_NPAUOBJECTSTRUCT@@H@Z ; gObjCheckUsedBuffEffect
  007f9	83 c4 08	 add	 esp, 8
  007fc	3c 01		 cmp	 al, 1
  007fe	75 0b		 jne	 SHORT $LN741@Attack
$LN108@Attack:

; 457  : 			gObjCheckUsedBuffEffect(lpTargetObj,BUFF_BERSERKER4) == TRUE )
; 458  : 		{
; 459  : 			float fDefense = (lpTargetObj->Dexterity+lpTargetObj->AddDexterity)/3;
; 460  : 			float fValue = (float)gObjGetTotalValueOfEffect(lpTargetObj,ADD_OPTION_BERSERKLIFE_PERC);

  00800	6a 20		 push	 32			; 00000020H
  00802	57		 push	 edi
  00803	e8 00 00 00 00	 call	 ?gObjGetTotalValueOfEffect@@YAHPAUOBJECTSTRUCT@@H@Z ; gObjGetTotalValueOfEffect
  00808	83 c4 08	 add	 esp, 8
$LN741@Attack:

; 461  : 			float fPercent = (40- (fValue+lpObj->m_MPSkillOpt.MpsBerserkInc1))/100;
; 462  : 			fPercent = (0.1f > fPercent) ? 0.1f : fPercent;
; 463  : 		}
; 464  : 
; 465  : 		int iCurseValue = 0;
; 466  : 		if( !gObjGetValueOfBuffIndex(lpTargetObj,BUFF_INNOVATION2,&iCurseValue,0) )

  0080b	6a 00		 push	 0
  0080d	8d 85 90 fe ff
	ff		 lea	 eax, DWORD PTR _iCurseValue$1[ebp]
  00813	c7 85 90 fe ff
	ff 00 00 00 00	 mov	 DWORD PTR _iCurseValue$1[ebp], 0
  0081d	50		 push	 eax
  0081e	68 a3 00 00 00	 push	 163			; 000000a3H
  00823	57		 push	 edi
  00824	e8 00 00 00 00	 call	 ?gObjGetValueOfBuffIndex@@YA_NPAUOBJECTSTRUCT@@HPAH1@Z ; gObjGetValueOfBuffIndex
  00829	83 c4 10	 add	 esp, 16			; 00000010H
  0082c	84 c0		 test	 al, al
  0082e	75 14		 jne	 SHORT $LN109@Attack

; 467  : 			gObjGetValueOfBuffIndex(lpTargetObj,BUFF_INNOVATION,&iCurseValue,0);

  00830	6a 00		 push	 0
  00832	8d 85 90 fe ff
	ff		 lea	 eax, DWORD PTR _iCurseValue$1[ebp]
  00838	50		 push	 eax
  00839	6a 4d		 push	 77			; 0000004dH
  0083b	57		 push	 edi
  0083c	e8 00 00 00 00	 call	 ?gObjGetValueOfBuffIndex@@YA_NPAUOBJECTSTRUCT@@HPAH1@Z ; gObjGetValueOfBuffIndex
  00841	83 c4 10	 add	 esp, 16			; 00000010H
$LN109@Attack:

; 468  : 
; 469  : 		targetdefense -= targetdefense * iCurseValue / 100;

  00844	8b 8d 90 fe ff
	ff		 mov	 ecx, DWORD PTR _iCurseValue$1[ebp]
  0084a	b8 e1 7a 14 ae	 mov	 eax, -1374389535	; ae147ae1H
  0084f	0f af ce	 imul	 ecx, esi
  00852	f7 e9		 imul	 ecx

; 470  : 		
; 471  : 		switch( skill )

  00854	8b 8d e0 fe ff
	ff		 mov	 ecx, DWORD PTR _skill$1$[ebp]
  0085a	c1 fa 05	 sar	 edx, 5
  0085d	8b c2		 mov	 eax, edx
  0085f	c1 e8 1f	 shr	 eax, 31			; 0000001fH
  00862	03 c2		 add	 eax, edx
  00864	03 f0		 add	 esi, eax
  00866	89 b5 d0 fe ff
	ff		 mov	 DWORD PTR _targetdefense$1$[ebp], esi
  0086c	81 f9 4d 01 00
	00		 cmp	 ecx, 333		; 0000014dH
  00872	0f 8f 21 03 00
	00		 jg	 $LN743@Attack
  00878	81 f9 46 01 00
	00		 cmp	 ecx, 326		; 00000146H
  0087e	0f 8d aa 03 00
	00		 jge	 $LN137@Attack
  00884	8d 41 ed	 lea	 eax, DWORD PTR [ecx-19]
  00887	3d db 00 00 00	 cmp	 eax, 219		; 000000dbH
  0088c	0f 87 22 03 00
	00		 ja	 $LN129@Attack
  00892	0f b6 80 00 00
	00 00		 movzx	 eax, BYTE PTR $LN820@Attack[eax]
  00899	ff 24 85 00 00
	00 00		 jmp	 DWORD PTR $LN983@Attack[eax*4]
$LN112@Attack:

; 472  : 		{
; 473  : 		case AT_SKILL_SWORD1:
; 474  : 		case AT_SKILL_SWORD2:
; 475  : 		case AT_SKILL_SWORD3:
; 476  : 		case AT_SKILL_SWORD4:
; 477  : 		case AT_SKILL_SWORD5:
; 478  : 		case AT_SKILL_SWORD6:
; 479  : 		case AT_SKILL_WHEEL:
; 480  : 		case AT_SKILL_KNIGHTSPEAR:
; 481  : 		case AT_SKILL_BLOWOFFURY:
; 482  : 		case AT_SKILL_KNIGHTDINORANT:
; 483  : 		case AT_SKILL_STRIKE:
; 484  : 		case AT_SKILL_DEFENSEDOWN:
; 485  : 		case AT_SKILL_RUSH:
; 486  : 		case AT_SKILL_ONE_FLASH:
; 487  : 		case AT_SKILL_SPACE_SPLIT:
; 488  : 		case AT_SKILL_MULTISHOT:
; 489  : 		case AT_SKILL_DESTRUCT:
; 490  : 		case AT_SKILL_FLAMESTRIKE:
; 491  : 		case AT_SKILL_CHAOTICDISEIER:
; 492  : 		case AT_MSKILL_DK_CYCLONE1:
; 493  : 		case AT_MSKILL_DK_SLASH1:
; 494  : 		case AT_MSKILL_DK_FALLINGSLASH1:
; 495  : 		case AT_MSKILL_DK_LUNGE1:
; 496  : 		case AT_MSKILL_DK_TWISTINGSLASH1:
; 497  : 		case AT_MSKILL_DK_RAGEFULBLOW1:
; 498  : 		case AT_MSKILL_DK_TWISTINGSLASH2:
; 499  : 		case AT_MSKILL_DK_RAGEFULBLOW2:
; 500  : 		case AT_MSKILL_DK_DEATHSTAB1:
; 501  : 		case AT_MSKILL_DK_DEATHSTAB2:
; 502  : 		case AT_MSKILL_DK_DEATHSTAB3:
; 503  : 		case AT_MSKILL_DK_DESTRUCTION1:
; 504  : 		case AT_MSKILL_DK_DESTRUCTION2:
; 505  : 		case AT_MSKILL_DK_DESTRUCTION3:
; 506  : 		case AT_MSKILL_DK_BLOODSTORM:
; 507  : 		case AT_MSKILL_DK_BLOODSTORM1:
; 508  : 		case AT_MSKILL_FE_MULTISHOT1:
; 509  : 		case AT_MSKILL_FE_MULTISHOT2:
; 510  : 		case AT_MSKILL_MG_CYCLONE1:
; 511  : 		case AT_MSKILL_MG_TWISTINGSLASH1:
; 512  : 		case AT_MSKILL_MG_FIRESLASH1:
; 513  : 		case AT_MSKILL_MG_FIRESLASH2:
; 514  : 		case AT_MSKILL_MG_POWERSLASH1:
; 515  : 		case AT_MSKILL_MG_FLAMESTRIKE1:
; 516  : 		case AT_MSKILL_MG_FLAMESTRIKE2:
; 517  : 			{
; 518  : 				AttackDamage = this->GetAttackDamage(lpObj, targetdefense, MsgDamage, bIsOnDuel, lpMagic);
; 519  : 
; 520  : 				if ( AttackDamage > 0 )
; 521  : 				{
; 522  : 					gObjWeaponDurDown(lpObj, lpTargetObj, 0);
; 523  : 				}
; 524  : 			}
; 525  : 			break;
; 526  : 		case 76:
; 527  : 			{
; 528  : 				int iFenrirAttackDmg = 0;
; 529  : 
; 530  : 				if ( lpObj->Class == CLASS_KNIGHT || lpObj->Class == CLASS_MAGUMSA )

  008a0	0f b7 83 90 00
	00 00		 movzx	 eax, WORD PTR [ebx+144]
  008a7	83 f8 01	 cmp	 eax, 1
  008aa	0f 84 03 01 00
	00		 je	 $LN115@Attack
  008b0	83 f8 03	 cmp	 eax, 3
  008b3	0f 84 fa 00 00
	00		 je	 $LN115@Attack

; 533  : 				}
; 534  : 				else if ( lpObj->Class == CLASS_WIZARD )

  008b9	66 85 c0	 test	 ax, ax
  008bc	75 68		 jne	 SHORT $LN116@Attack

; 535  : 				{
; 536  : 					iFenrirAttackDmg = lpObj->Strength / 5 + lpObj->Dexterity / 5 + lpObj->Vitality / 7 + lpObj->Energy / 3;	// #formula

  008be	0f b7 8b d2 00
	00 00		 movzx	 ecx, WORD PTR [ebx+210]
  008c5	b8 67 66 66 66	 mov	 eax, 1717986919		; 66666667H
  008ca	f7 e9		 imul	 ecx
  008cc	d1 fa		 sar	 edx, 1
  008ce	8b fa		 mov	 edi, edx
  008d0	c1 ef 1f	 shr	 edi, 31			; 0000001fH
  008d3	03 fa		 add	 edi, edx
$LN887@Attack:
  008d5	0f b7 8b d0 00
	00 00		 movzx	 ecx, WORD PTR [ebx+208]
  008dc	b8 67 66 66 66	 mov	 eax, 1717986919		; 66666667H
  008e1	f7 e9		 imul	 ecx
  008e3	0f b7 8b d6 00
	00 00		 movzx	 ecx, WORD PTR [ebx+214]
  008ea	b8 56 55 55 55	 mov	 eax, 1431655766		; 55555556H
  008ef	d1 fa		 sar	 edx, 1
  008f1	03 fa		 add	 edi, edx
  008f3	8b f2		 mov	 esi, edx
  008f5	f7 e9		 imul	 ecx
  008f7	0f b7 8b d4 00
	00 00		 movzx	 ecx, WORD PTR [ebx+212]
  008fe	b8 93 24 49 92	 mov	 eax, -1840700269	; 92492493H
  00903	c1 ee 1f	 shr	 esi, 31			; 0000001fH
  00906	03 f7		 add	 esi, edi
  00908	8b fa		 mov	 edi, edx
  0090a	03 f2		 add	 esi, edx
  0090c	c1 ef 1f	 shr	 edi, 31			; 0000001fH
  0090f	f7 e9		 imul	 ecx
  00911	03 fe		 add	 edi, esi
  00913	03 d1		 add	 edx, ecx
  00915	c1 fa 02	 sar	 edx, 2
  00918	8b c2		 mov	 eax, edx
  0091a	03 fa		 add	 edi, edx
  0091c	c1 e8 1f	 shr	 eax, 31			; 0000001fH
  0091f	03 c7		 add	 eax, edi
  00921	e9 f0 00 00 00	 jmp	 $LN119@Attack
$LN116@Attack:

; 537  : 				}
; 538  : 				else if ( lpObj->Class == CLASS_ELF )

  00926	83 f8 02	 cmp	 eax, 2

; 539  : 				{
; 540  : 					iFenrirAttackDmg = lpObj->Strength / 5 + lpObj->Dexterity / 3 + lpObj->Vitality / 7 + lpObj->Energy / 5;	// #formula

  00929	b8 56 55 55 55	 mov	 eax, 1431655766		; 55555556H
  0092e	75 55		 jne	 SHORT $LN118@Attack
  00930	0f b7 8b d2 00
	00 00		 movzx	 ecx, WORD PTR [ebx+210]
  00937	f7 e9		 imul	 ecx
  00939	0f b7 8b d0 00
	00 00		 movzx	 ecx, WORD PTR [ebx+208]
  00940	b8 67 66 66 66	 mov	 eax, 1717986919		; 66666667H
  00945	8b f2		 mov	 esi, edx
  00947	c1 ee 1f	 shr	 esi, 31			; 0000001fH
  0094a	03 f2		 add	 esi, edx
  0094c	f7 e9		 imul	 ecx
  0094e	0f b7 8b d6 00
	00 00		 movzx	 ecx, WORD PTR [ebx+214]
  00955	b8 67 66 66 66	 mov	 eax, 1717986919		; 66666667H
  0095a	d1 fa		 sar	 edx, 1
  0095c	03 f2		 add	 esi, edx
  0095e	8b fa		 mov	 edi, edx
  00960	f7 e9		 imul	 ecx
  00962	0f b7 8b d4 00
	00 00		 movzx	 ecx, WORD PTR [ebx+212]
  00969	b8 93 24 49 92	 mov	 eax, -1840700269	; 92492493H
  0096e	c1 ef 1f	 shr	 edi, 31			; 0000001fH
  00971	d1 fa		 sar	 edx, 1
  00973	03 fe		 add	 edi, esi
  00975	8b f2		 mov	 esi, edx
  00977	03 fa		 add	 edi, edx
  00979	f7 e9		 imul	 ecx
  0097b	03 d1		 add	 edx, ecx
  0097d	c1 fa 02	 sar	 edx, 2

; 541  : 				}
; 542  : 				else	// Dark Lord

  00980	e9 83 00 00 00	 jmp	 $LN886@Attack
$LN118@Attack:

; 543  : 				{
; 544  : 					iFenrirAttackDmg = lpObj->Strength / 5 + lpObj->Dexterity / 5 + lpObj->Vitality / 7 + lpObj->Energy / 3 + lpObj->Leadership / 3;	// #formula

  00985	0f b7 8b f4 00
	00 00		 movzx	 ecx, WORD PTR [ebx+244]
  0098c	f7 e9		 imul	 ecx
  0098e	0f b7 8b d2 00
	00 00		 movzx	 ecx, WORD PTR [ebx+210]
  00995	b8 67 66 66 66	 mov	 eax, 1717986919		; 66666667H
  0099a	8b f2		 mov	 esi, edx
  0099c	c1 ee 1f	 shr	 esi, 31			; 0000001fH
  0099f	03 f2		 add	 esi, edx
  009a1	f7 e9		 imul	 ecx
  009a3	d1 fa		 sar	 edx, 1
  009a5	8b fa		 mov	 edi, edx
  009a7	03 f2		 add	 esi, edx
  009a9	c1 ef 1f	 shr	 edi, 31			; 0000001fH
  009ac	03 fe		 add	 edi, esi
  009ae	e9 22 ff ff ff	 jmp	 $LN887@Attack
$LN115@Attack:

; 531  : 				{
; 532  : 					iFenrirAttackDmg = lpObj->Strength / 3 + lpObj->Dexterity / 5 + lpObj->Vitality / 5 + lpObj->Energy / 7;	// #formula

  009b3	0f b7 8b d2 00
	00 00		 movzx	 ecx, WORD PTR [ebx+210]
  009ba	b8 67 66 66 66	 mov	 eax, 1717986919		; 66666667H
  009bf	f7 e9		 imul	 ecx
  009c1	0f b7 8b d0 00
	00 00		 movzx	 ecx, WORD PTR [ebx+208]
  009c8	b8 56 55 55 55	 mov	 eax, 1431655766		; 55555556H
  009cd	d1 fa		 sar	 edx, 1
  009cf	8b f2		 mov	 esi, edx
  009d1	c1 ee 1f	 shr	 esi, 31			; 0000001fH
  009d4	03 f2		 add	 esi, edx
  009d6	f7 e9		 imul	 ecx
  009d8	0f b7 8b d6 00
	00 00		 movzx	 ecx, WORD PTR [ebx+214]
  009df	b8 93 24 49 92	 mov	 eax, -1840700269	; 92492493H
  009e4	03 f2		 add	 esi, edx
  009e6	8b fa		 mov	 edi, edx
  009e8	f7 e9		 imul	 ecx
  009ea	c1 ef 1f	 shr	 edi, 31			; 0000001fH
  009ed	b8 67 66 66 66	 mov	 eax, 1717986919		; 66666667H
  009f2	03 d1		 add	 edx, ecx
  009f4	03 fe		 add	 edi, esi
  009f6	0f b7 8b d4 00
	00 00		 movzx	 ecx, WORD PTR [ebx+212]
  009fd	c1 fa 02	 sar	 edx, 2
  00a00	8b f2		 mov	 esi, edx
  00a02	03 fa		 add	 edi, edx
  00a04	f7 e9		 imul	 ecx
  00a06	d1 fa		 sar	 edx, 1
$LN886@Attack:
  00a08	c1 ee 1f	 shr	 esi, 31			; 0000001fH
  00a0b	8b c2		 mov	 eax, edx
  00a0d	03 f7		 add	 esi, edi
  00a0f	c1 e8 1f	 shr	 eax, 31			; 0000001fH
  00a12	03 f2		 add	 esi, edx
  00a14	03 c6		 add	 eax, esi
$LN119@Attack:

; 545  : 				}
; 546  : 
; 547  : 				if ( iFenrirAttackDmg < 0 )

  00a16	33 c9		 xor	 ecx, ecx
  00a18	85 c0		 test	 eax, eax
  00a1a	0f 48 c1	 cmovs	 eax, ecx
  00a1d	89 85 a4 fe ff
	ff		 mov	 DWORD PTR _iFenrirAttackDmg$2$[ebp], eax

; 548  : 					iFenrirAttackDmg = 0;
; 549  : 
; 550  : 				if ( lpObj->m_CriticalDamage > 0 )

  00a23	39 8b 9c 06 00
	00		 cmp	 DWORD PTR [ebx+1692], ecx
  00a29	7e 29		 jle	 SHORT $LN874@Attack

; 551  : 				{
; 552  : 					if ( (rand()%100) < lpObj->m_CriticalDamage )

  00a2b	e8 00 00 00 00	 call	 _rand
  00a30	99		 cdq
  00a31	be 64 00 00 00	 mov	 esi, 100		; 00000064H
  00a36	f7 fe		 idiv	 esi
  00a38	8b 85 c8 fe ff
	ff		 mov	 eax, DWORD PTR _MsgDamage$[ebp]
  00a3e	b9 03 00 00 00	 mov	 ecx, 3
  00a43	3b 93 9c 06 00
	00		 cmp	 edx, DWORD PTR [ebx+1692]
  00a49	0f 4c c1	 cmovl	 eax, ecx
  00a4c	89 85 c8 fe ff
	ff		 mov	 DWORD PTR _MsgDamage$[ebp], eax
  00a52	eb 05		 jmp	 SHORT $LN825@Attack
$LN874@Attack:
  00a54	be 64 00 00 00	 mov	 esi, 100		; 00000064H
$LN825@Attack:

; 553  : 					{
; 554  : 						MsgDamage = 3;
; 555  : 					}
; 556  : 				}
; 557  : 
; 558  : 				if ( lpObj->m_ExcelentDamage > 0 )

  00a59	83 bb a0 06 00
	00 00		 cmp	 DWORD PTR [ebx+1696], 0
  00a60	7e 1f		 jle	 SHORT $LN826@Attack

; 559  : 				{
; 560  : 					if ( (rand()%100) < lpObj->m_ExcelentDamage )

  00a62	e8 00 00 00 00	 call	 _rand
  00a67	99		 cdq
  00a68	f7 fe		 idiv	 esi
  00a6a	3b 93 a0 06 00
	00		 cmp	 edx, DWORD PTR [ebx+1696]
  00a70	7d 0f		 jge	 SHORT $LN826@Attack

; 561  : 					{
; 562  : 						MsgDamage = 2;

  00a72	c7 85 c8 fe ff
	ff 02 00 00 00	 mov	 DWORD PTR _MsgDamage$[ebp], 2

; 563  : 					}
; 564  : 				}
; 565  : 
; 566  : 				if ( MsgDamage == 3 )	// Critical Damage

  00a7c	e9 8c 00 00 00	 jmp	 $LN802@Attack
$LN826@Attack:
  00a81	83 bd c8 fe ff
	ff 03		 cmp	 DWORD PTR _MsgDamage$[ebp], 3
  00a88	75 7a		 jne	 SHORT $LN125@Attack

; 567  : 				{
; 568  : 					AttackDamage =  iFenrirAttackDmg + lpMagic->m_DamageMax;
; 569  : 					AttackDamage += lpObj->SetOpAddCriticalDamage;

  00a8a	8b 8d dc fe ff
	ff		 mov	 ecx, DWORD PTR _lpMagic$GSCopy$1$[ebp]
  00a90	0f bf 83 b8 14
	00 00		 movsx	 eax, WORD PTR [ebx+5304]

; 570  : 					int adddamage = 0;
; 571  : 					gObjGetValueOfBuffIndex(lpObj,5,&adddamage,0);

  00a97	6a 00		 push	 0
  00a99	c7 85 e4 fe ff
	ff 00 00 00 00	 mov	 DWORD PTR _adddamage$10[ebp], 0
  00aa3	03 41 10	 add	 eax, DWORD PTR [ecx+16]
  00aa6	03 85 a4 fe ff
	ff		 add	 eax, DWORD PTR _iFenrirAttackDmg$2$[ebp]
  00aac	89 45 1c	 mov	 DWORD PTR _AttackDamage$[ebp], eax
  00aaf	8d 85 e4 fe ff
	ff		 lea	 eax, DWORD PTR _adddamage$10[ebp]
  00ab5	50		 push	 eax
  00ab6	6a 05		 push	 5
  00ab8	53		 push	 ebx
  00ab9	e8 00 00 00 00	 call	 ?gObjGetValueOfBuffIndex@@YA_NPAUOBJECTSTRUCT@@HPAH1@Z ; gObjGetValueOfBuffIndex

; 572  : 					AttackDamage += adddamage;

  00abe	8b 85 e4 fe ff
	ff		 mov	 eax, DWORD PTR _adddamage$10[ebp]
  00ac4	01 45 1c	 add	 DWORD PTR _AttackDamage$[ebp], eax

; 573  : 					gObjGetValueOfBuffIndex(lpObj,148,&adddamage,0);

  00ac7	8d 85 e4 fe ff
	ff		 lea	 eax, DWORD PTR _adddamage$10[ebp]
  00acd	6a 00		 push	 0
  00acf	50		 push	 eax
  00ad0	68 94 00 00 00	 push	 148			; 00000094H
  00ad5	53		 push	 ebx
  00ad6	e8 00 00 00 00	 call	 ?gObjGetValueOfBuffIndex@@YA_NPAUOBJECTSTRUCT@@HPAH1@Z ; gObjGetValueOfBuffIndex

; 574  : 					AttackDamage += adddamage;
; 575  : 					AttackDamage += lpObj->m_JewelOfHarmonyEffect.HJOpAddCriticalDamage;

  00adb	0f bf 83 36 24
	00 00		 movsx	 eax, WORD PTR [ebx+9270]
  00ae2	83 c4 20	 add	 esp, 32			; 00000020H

; 576  : 					AttackDamage -= targetdefense;

  00ae5	2b 85 d0 fe ff
	ff		 sub	 eax, DWORD PTR _targetdefense$1$[ebp]
  00aeb	8b 75 1c	 mov	 esi, DWORD PTR _AttackDamage$[ebp]
  00aee	03 85 e4 fe ff
	ff		 add	 eax, DWORD PTR _adddamage$10[ebp]
  00af4	8b bd d8 fe ff
	ff		 mov	 edi, DWORD PTR _lpTargetObj$GSCopy$1$[ebp]
  00afa	03 f0		 add	 esi, eax
  00afc	89 75 1c	 mov	 DWORD PTR _AttackDamage$[ebp], esi
  00aff	e9 63 01 00 00	 jmp	 $LN827@Attack
$LN125@Attack:

; 577  : 				}
; 578  : 				else if ( MsgDamage == 2 )	// Excellent

  00b04	83 bd c8 fe ff
	ff 02		 cmp	 DWORD PTR _MsgDamage$[ebp], 2
  00b0b	75 51		 jne	 SHORT $LN127@Attack
$LN802@Attack:

; 579  : 				{
; 580  : 					
; 581  : 					AttackDamage = iFenrirAttackDmg + lpMagic->m_DamageMax;

  00b0d	8b 8d dc fe ff
	ff		 mov	 ecx, DWORD PTR _lpMagic$GSCopy$1$[ebp]

; 582  : 					AttackDamage += AttackDamage * 20 / 100;

  00b13	b8 1f 85 eb 51	 mov	 eax, 1374389535		; 51eb851fH

; 583  : 					AttackDamage += lpObj->SetOpAddExDamage;

  00b18	0f bf b3 b4 14
	00 00		 movsx	 esi, WORD PTR [ebx+5300]

; 584  : 					AttackDamage -= targetdefense;
; 585  : 				}
; 586  : 				else

  00b1f	8b bd d8 fe ff
	ff		 mov	 edi, DWORD PTR _lpTargetObj$GSCopy$1$[ebp]
  00b25	8b 51 10	 mov	 edx, DWORD PTR [ecx+16]
  00b28	03 95 a4 fe ff
	ff		 add	 edx, DWORD PTR _iFenrirAttackDmg$2$[ebp]
  00b2e	89 95 e4 fe ff
	ff		 mov	 DWORD PTR _AttackDamage$5$[ebp], edx
  00b34	8d 0c 92	 lea	 ecx, DWORD PTR [edx+edx*4]
  00b37	c1 e1 02	 shl	 ecx, 2
  00b3a	f7 e9		 imul	 ecx
  00b3c	c1 fa 05	 sar	 edx, 5
  00b3f	8b c2		 mov	 eax, edx
  00b41	03 f2		 add	 esi, edx
  00b43	c1 e8 1f	 shr	 eax, 31			; 0000001fH
  00b46	03 c6		 add	 eax, esi
  00b48	8b b5 e4 fe ff
	ff		 mov	 esi, DWORD PTR _AttackDamage$5$[ebp]
  00b4e	2b 85 d0 fe ff
	ff		 sub	 eax, DWORD PTR _targetdefense$1$[ebp]
  00b54	03 f0		 add	 esi, eax
  00b56	89 75 1c	 mov	 DWORD PTR _AttackDamage$[ebp], esi
  00b59	e9 09 01 00 00	 jmp	 $LN827@Attack
$LN127@Attack:

; 587  : 				{
; 588  : 					AttackDamage = (iFenrirAttackDmg + lpMagic->m_DamageMin) + (rand()%(lpMagic->m_DamageMax - lpMagic->m_DamageMin + 1));
; 589  : 					AttackDamage -= targetdefense;

  00b5e	8b bd dc fe ff
	ff		 mov	 edi, DWORD PTR _lpMagic$GSCopy$1$[ebp]
  00b64	8b 77 0c	 mov	 esi, DWORD PTR [edi+12]
  00b67	e8 00 00 00 00	 call	 _rand
  00b6c	8b 4f 10	 mov	 ecx, DWORD PTR [edi+16]
  00b6f	2b ce		 sub	 ecx, esi
  00b71	99		 cdq
  00b72	41		 inc	 ecx

; 590  : 				}
; 591  : 			}
; 592  : 			break;

  00b73	8b bd d8 fe ff
	ff		 mov	 edi, DWORD PTR _lpTargetObj$GSCopy$1$[ebp]
  00b79	f7 f9		 idiv	 ecx
  00b7b	2b 95 d0 fe ff
	ff		 sub	 edx, DWORD PTR _targetdefense$1$[ebp]
  00b81	03 d6		 add	 edx, esi
  00b83	8b f2		 mov	 esi, edx
  00b85	89 95 e4 fe ff
	ff		 mov	 DWORD PTR _AttackDamage$5$[ebp], edx
  00b8b	03 b5 a4 fe ff
	ff		 add	 esi, DWORD PTR _iFenrirAttackDmg$2$[ebp]
  00b91	89 75 1c	 mov	 DWORD PTR _AttackDamage$[ebp], esi
  00b94	e9 ce 00 00 00	 jmp	 $LN827@Attack
$LN743@Attack:

; 470  : 		
; 471  : 		switch( skill )

  00b99	8d 81 b0 fe ff
	ff		 lea	 eax, DWORD PTR [ecx-336]
  00b9f	3d 9e 00 00 00	 cmp	 eax, 158		; 0000009eH
  00ba4	77 0e		 ja	 SHORT $LN129@Attack
  00ba6	0f b6 80 00 00
	00 00		 movzx	 eax, BYTE PTR $LN821@Attack[eax]
  00bad	ff 24 85 00 00
	00 00		 jmp	 DWORD PTR $LN984@Attack[eax*4]
$LN129@Attack:

; 593  : 		default:
; 594  : 			{
; 595  : 				if ( ( lpObj->Class == CLASS_WIZARD || lpObj->Class == CLASS_MAGUMSA ) && skill )

  00bb4	0f b7 83 90 00
	00 00		 movzx	 eax, WORD PTR [ebx+144]
  00bbb	66 85 c0	 test	 ax, ax
  00bbe	74 05		 je	 SHORT $LN132@Attack
  00bc0	83 f8 03	 cmp	 eax, 3
  00bc3	75 32		 jne	 SHORT $LN130@Attack
$LN132@Attack:
  00bc5	85 c9		 test	 ecx, ecx
  00bc7	74 2e		 je	 SHORT $LN130@Attack

; 596  : 				{
; 597  : 					AttackDamage = GetAttackDamageWizard(lpObj, targetdefense, lpMagic, MsgDamage, bIsOnDuel);

  00bc9	ff b5 e4 fe ff
	ff		 push	 DWORD PTR _bIsOnDuel$1$[ebp]
  00bcf	8b 8d dc fe ff
	ff		 mov	 ecx, DWORD PTR _lpMagic$GSCopy$1$[ebp]
  00bd5	8d 85 c8 fe ff
	ff		 lea	 eax, DWORD PTR _MsgDamage$[ebp]
  00bdb	50		 push	 eax
  00bdc	51		 push	 ecx
  00bdd	8b 8d c0 fe ff
	ff		 mov	 ecx, DWORD PTR _this$GSCopy$1$[ebp]
  00be3	56		 push	 esi
  00be4	53		 push	 ebx
  00be5	e8 00 00 00 00	 call	 ?GetAttackDamageWizard@CObjAttack@@QAEHPAUOBJECTSTRUCT@@HPAVCMagicInf@@AAHH@Z ; CObjAttack::GetAttackDamageWizard
  00bea	8b f0		 mov	 esi, eax
  00bec	89 75 1c	 mov	 DWORD PTR _AttackDamage$[ebp], esi

; 598  : 	
; 599  : 					if ( AttackDamage > 0 )

  00bef	85 f6		 test	 esi, esi
  00bf1	7e 74		 jle	 SHORT $LN827@Attack

; 600  : 					{
; 601  : 						gObjWeaponDurDown(lpObj, lpTargetObj, 1);

  00bf3	6a 01		 push	 1

; 602  : 					}
; 603  : 				}

  00bf5	eb 63		 jmp	 SHORT $LN889@Attack
$LN130@Attack:

; 604  : 				else if( lpObj->Class == CLASS_SUMMONER && skill )

  00bf7	83 f8 05	 cmp	 eax, 5
  00bfa	75 32		 jne	 SHORT $LN137@Attack
