; Listing generated by Microsoft (R) Optimizing Compiler Version 19.00.23506.0 

	TITLE	C:\Users\Michel\Desktop\Source\GameServer\Source\ObjCalCharacter.cpp
	.686P
	.XMM
	include listing.inc
	.model	flat

INCLUDELIB LIBCMT
INCLUDELIB OLDNAMES

PUBLIC	?__empty_global_delete@@YAXPAX@Z		; __empty_global_delete
PUBLIC	?__empty_global_delete@@YAXPAXI@Z		; __empty_global_delete
PUBLIC	___local_stdio_printf_options
PUBLIC	??$__vcrt_va_start_verify_argument_type@QBD@@YAXXZ ; __vcrt_va_start_verify_argument_type<char const * const>
PUBLIC	_sprintf
PUBLIC	??1OBJECTSTRUCT@@QAE@XZ				; OBJECTSTRUCT::~OBJECTSTRUCT
PUBLIC	??_EOBJECTSTRUCT@@QAEPAXI@Z			; OBJECTSTRUCT::`vector deleting destructor'
PUBLIC	?gObjCalCharacter@@YAXH@Z			; gObjCalCharacter
PUBLIC	?GObjExtItemApply@@YAXPAUOBJECTSTRUCT@@@Z	; GObjExtItemApply
PUBLIC	?gObjCalcSetItemStat@@YAXPAUOBJECTSTRUCT@@@Z	; gObjCalcSetItemStat
PUBLIC	?gObjGetSetItemOption@@YAXPAUOBJECTSTRUCT@@PAE1PAH@Z ; gObjGetSetItemOption
PUBLIC	?gObjCalcSetItemOption@@YAXPAUOBJECTSTRUCT@@@Z	; gObjCalcSetItemOption
PUBLIC	?gObjSetItemStatPlusSpecial@@YAXPAUOBJECTSTRUCT@@HH@Z ; gObjSetItemStatPlusSpecial
PUBLIC	?gObjSetItemPlusSpecial@@YAXPAUOBJECTSTRUCT@@HH@Z ; gObjSetItemPlusSpecial
PUBLIC	?gObjSetItemApply@@YAXPAUOBJECTSTRUCT@@@Z	; gObjSetItemApply
PUBLIC	?gObjValidItem@@YAHPAUOBJECTSTRUCT@@PAVCItem@@H@Z ; gObjValidItem
PUBLIC	?gObjCalcShieldPoint@@YAXPAUOBJECTSTRUCT@@@Z	; gObjCalcShieldPoint
PUBLIC	?gObjCalcMLSkillItemOption@@YAXPAUOBJECTSTRUCT@@@Z ; gObjCalcMLSkillItemOption
PUBLIC	?_OptionsStorage@?1??__local_stdio_printf_options@@9@4_KA ; `__local_stdio_printf_options'::`2'::_OptionsStorage
PUBLIC	??_C@_0CE@OBLIFBFL@Strength?3?5?$CFd?0?$CFd?5?5?5?5Dexterity?3?5?$CFd@ ; `string'
PUBLIC	??_C@_0CB@KNPOLDNB@Vitality?3?5?$CFd?0?$CFd?5?5?5?5Energy?3?5?$CFd?0?$CFd@ ; `string'
PUBLIC	??_C@_0BC@GFGEFHFO@Leadership?3?5?$CFd?0?$CFd?$AA@ ; `string'
PUBLIC	??_C@_0CG@MJJCFDMJ@?$LO?g?$LM?U?$LP?$KB?5?$LA?$LA?$MA?$LK?5?$LM?$LM?F?$KO?$LA?$KB?5?$MA?$PL?$LP?k?$LF?G?$LO?z?$LE?Y?5?$LJ?$KL@ ; `string'
PUBLIC	??_C@_0CG@HNELGANH@?$LJ?$NN?A?v?$LP?$KB?5?$LA?$LA?$MA?$LK?5?$LM?$LM?F?$KO?$LA?$KB?5?$MA?$PL?$LP?k?$LF?G?$LO?z?$LE?Y?5?$LJ?$KL@ ; `string'
PUBLIC	??_C@_0M@CMDBHBEK@?G?$KO?$LP?I?$LM?G?5?$MA?$PL?$LP?k?$AA@ ; `string'
PUBLIC	??_C@_0BJ@CDNBOFLN@?$FL?$CFs?$FN?$FL?$CFs?$FN?5Ancient?5Set?3?5?$CFs?$AA@ ; `string'
PUBLIC	??_C@_0O@OLIBOAPO@Full?5Set?5Item?$AA@		; `string'
PUBLIC	__real@3cf5c28f
PUBLIC	__real@3d4ccccd
PUBLIC	__real@3dcccccd
PUBLIC	__real@3f800000
PUBLIC	__real@3fc999999999999a
PUBLIC	__real@41a00000
PUBLIC	__real@42c80000
PUBLIC	__xmm@00000005000000040000000300000002
PUBLIC	__xmm@0000000a000000080000000700000006
PUBLIC	__xmm@41f00000000000000000000000000000
EXTRN	??_M@YGXPAXIIP6EX0@Z@Z:PROC			; `eh vector destructor iterator'
EXTRN	??3@YAXPAXI@Z:PROC				; operator delete
EXTRN	??_V@YAXPAXI@Z:PROC				; operator delete[]
EXTRN	___stdio_common_vsprintf:PROC
EXTRN	?IsItem@CItem@@QAEHXZ:PROC			; CItem::IsItem
EXTRN	?IsSetItem@CItem@@QAEHXZ:PROC			; CItem::IsSetItem
EXTRN	?GetAddStatType@CItem@@QAEHXZ:PROC		; CItem::GetAddStatType
EXTRN	?ItemDefense@CItem@@QAEHXZ:PROC			; CItem::ItemDefense
EXTRN	?ItemCurseDamage@CItem@@QAEHXZ:PROC		; CItem::ItemCurseDamage
EXTRN	?PlusSpecial@CItem@@QAEXPAHH@Z:PROC		; CItem::PlusSpecial
EXTRN	?PlusSpecialPercentEx@CItem@@QAEXPAHHH@Z:PROC	; CItem::PlusSpecialPercentEx
EXTRN	?SetItemPlusSpecialStat@CItem@@QAEXPAGH@Z:PROC	; CItem::SetItemPlusSpecialStat
EXTRN	?GetWeaponType@CItem@@QAEHXZ:PROC		; CItem::GetWeaponType
EXTRN	?PlusSpecialSetRing@CItem@@QAEXPAE@Z:PROC	; CItem::PlusSpecialSetRing
EXTRN	?IsExtItem@CItem@@QAEHXZ:PROC			; CItem::IsExtItem
EXTRN	?IsExtLifeAdd@CItem@@QAEHXZ:PROC		; CItem::IsExtLifeAdd
EXTRN	?IsExtManaAdd@CItem@@QAEHXZ:PROC		; CItem::IsExtManaAdd
EXTRN	?IsExtDamageMinus@CItem@@QAEHXZ:PROC		; CItem::IsExtDamageMinus
EXTRN	?IsExtDamageReflect@CItem@@QAEHXZ:PROC		; CItem::IsExtDamageReflect
EXTRN	?IsExtDefenseSuccessfull@CItem@@QAEHXZ:PROC	; CItem::IsExtDefenseSuccessfull
EXTRN	?IsExtMonsterMoney@CItem@@QAEHXZ:PROC		; CItem::IsExtMonsterMoney
EXTRN	?IsExtExcellentDamage@CItem@@QAEHXZ:PROC	; CItem::IsExtExcellentDamage
EXTRN	?IsExtAttackRate@CItem@@QAEHXZ:PROC		; CItem::IsExtAttackRate
EXTRN	?IsExtAttackRate2@CItem@@QAEHXZ:PROC		; CItem::IsExtAttackRate2
EXTRN	?IsExtAttackSpeed@CItem@@QAEHXZ:PROC		; CItem::IsExtAttackSpeed
EXTRN	?IsExtMonsterDieLife@CItem@@QAEHXZ:PROC		; CItem::IsExtMonsterDieLife
EXTRN	?IsExtMonsterDieMana@CItem@@QAEHXZ:PROC		; CItem::IsExtMonsterDieMana
EXTRN	?IsFenrirSpecial@CItem@@QAEHXZ:PROC		; CItem::IsFenrirSpecial
EXTRN	?GetDetailItemType@CItem@@QAEHXZ:PROC		; CItem::GetDetailItemType
EXTRN	??1CSkillDelay@@UAE@XZ:PROC			; CSkillDelay::~CSkillDelay
EXTRN	??1TMonsterAIAgro@@UAE@XZ:PROC			; TMonsterAIAgro::~TMonsterAIAgro
EXTRN	?SetApplyStrengthenItem@CJewelOfHarmonySystem@@QAEXPAUOBJECTSTRUCT@@@Z:PROC ; CJewelOfHarmonySystem::SetApplyStrengthenItem
EXTRN	?ApplyFor380Option@CItemSystemFor380@@QAEHPAUOBJECTSTRUCT@@@Z:PROC ; CItemSystemFor380::ApplyFor380Option
EXTRN	?SetApplySocketItem@CSocketItems@@QAEEPAUOBJECTSTRUCT@@@Z:PROC ; CSocketItems::SetApplySocketItem
EXTRN	?GCServerMsgStringSend@@YAXPADHE@Z:PROC		; GCServerMsgStringSend
EXTRN	?GCReFillSend@@YAXHGEEG@Z:PROC			; GCReFillSend
EXTRN	?GCManaSend@@YAXHFEEG@Z:PROC			; GCManaSend
EXTRN	?GCAttackSpeedSend@@YAXH@Z:PROC			; GCAttackSpeedSend
EXTRN	?gObjSetBP@@YAXH@Z:PROC				; gObjSetBP
EXTRN	?gObjNextExpCal@@YAXPAUOBJECTSTRUCT@@@Z:PROC	; gObjNextExpCal
EXTRN	?gObjDemonSprite@@YAHPAUOBJECTSTRUCT@@@Z:PROC	; gObjDemonSprite
EXTRN	?gObjGuardianSprice@@YAHPAUOBJECTSTRUCT@@@Z:PROC ; gObjGuardianSprice
EXTRN	?gObjPandaSprite@@YAHPAUOBJECTSTRUCT@@@Z:PROC	; gObjPandaSprite
EXTRN	?gObjUnicornSprite@@YAHPAUOBJECTSTRUCT@@@Z:PROC	; gObjUnicornSprite
EXTRN	?gObjInventoryEquipment@@YAHPAUOBJECTSTRUCT@@@Z:PROC ; gObjInventoryEquipment
EXTRN	?Set@CDarkSpirit@@QAEXHPAVCItem@@@Z:PROC	; CDarkSpirit::Set
EXTRN	?PrevSetItemLastEffectForHallowin@CItemAddOption@@QAE_NPAUOBJECTSTRUCT@@@Z:PROC ; CItemAddOption::PrevSetItemLastEffectForHallowin
EXTRN	?NextSetItemLastEffectForHallowin@CItemAddOption@@QAE_NPAUOBJECTSTRUCT@@@Z:PROC ; CItemAddOption::NextSetItemLastEffectForHallowin
EXTRN	?SetPeriodItemEffect1@CItemAddOption@@QAEEPAUOBJECTSTRUCT@@@Z:PROC ; CItemAddOption::SetPeriodItemEffect1
EXTRN	?SetPeriodItemEffect2@CItemAddOption@@QAEEPAUOBJECTSTRUCT@@@Z:PROC ; CItemAddOption::SetPeriodItemEffect2
EXTRN	?GetOptionTableIndex@CSetItemOption@@QAEHHH@Z:PROC ; CSetItemOption::GetOptionTableIndex
EXTRN	?GetSetOptionName@CSetItemOption@@QAEPADH@Z:PROC ; CSetItemOption::GetSetOptionName
EXTRN	?GetSetOption@CSetItemOption@@QAEHHHAAH000HH@Z:PROC ; CSetItemOption::GetSetOption
EXTRN	?GetMaxSetOptionCount@CSetItemOption@@QAEHH@Z:PROC ; CSetItemOption::GetMaxSetOptionCount
EXTRN	?GetGetFullSetOption@CSetItemOption@@QAEHHAAH000000000HH@Z:PROC ; CSetItemOption::GetGetFullSetOption
EXTRN	?IsRequireClass@CSetItemOption@@QAEHHHH@Z:PROC	; CSetItemOption::IsRequireClass
EXTRN	?SetPrevEffect@CBuffEffect@@QAEXPAUOBJECTSTRUCT@@@Z:PROC ; CBuffEffect::SetPrevEffect
EXTRN	?SetNextEffect@CBuffEffect@@QAEXPAUOBJECTSTRUCT@@@Z:PROC ; CBuffEffect::SetNextEffect
EXTRN	?gObjCheckUsedBuffEffect@@YA_NPAUOBJECTSTRUCT@@H@Z:PROC ; gObjCheckUsedBuffEffect
EXTRN	?gObjGetTotalValueOfEffect@@YAHPAUOBJECTSTRUCT@@H@Z:PROC ; gObjGetTotalValueOfEffect
EXTRN	?gObjGetValueOfBuffIndex@@YA_NPAUOBJECTSTRUCT@@HPAH1@Z:PROC ; gObjGetValueOfBuffIndex
EXTRN	?ApplyElementItem@CElementalSystem@@QAEXPAUOBJECTSTRUCT@@@Z:PROC ; CElementalSystem::ApplyElementItem
EXTRN	?SetItemMLPassiveSkill@CMasterLevelSkillTreeSystem@@QAEXPAUOBJECTSTRUCT@@H@Z:PROC ; CMasterLevelSkillTreeSystem::SetItemMLPassiveSkill
EXTRN	?SetPetItemMLPassiveSkill@CMasterLevelSkillTreeSystem@@QAEXPAUOBJECTSTRUCT@@H@Z:PROC ; CMasterLevelSkillTreeSystem::SetPetItemMLPassiveSkill
EXTRN	?GetAttackDamage@ClassCalc@@QAEXPAUOBJECTSTRUCT@@@Z:PROC ; ClassCalc::GetAttackDamage
EXTRN	?GetMagicDamage@ClassCalc@@QAEXPAUOBJECTSTRUCT@@@Z:PROC ; ClassCalc::GetMagicDamage
EXTRN	?GetAttackSpeed@ClassCalc@@QAEXPAUOBJECTSTRUCT@@@Z:PROC ; ClassCalc::GetAttackSpeed
EXTRN	?GetSuccessfulBlocking@ClassCalc@@QAEXPAUOBJECTSTRUCT@@@Z:PROC ; ClassCalc::GetSuccessfulBlocking
EXTRN	?GetDefense@ClassCalc@@QAEXPAUOBJECTSTRUCT@@@Z:PROC ; ClassCalc::GetDefense
EXTRN	@__security_check_cookie@4:PROC
EXTRN	___CxxFrameHandler3:PROC
EXTRN	_memset:PROC
EXTRN	?ItemAttribute@@3PAUITEM_ATTRIBUTE@@A:BYTE	; ItemAttribute
EXTRN	?LogAdd@@3P6AXPADZZA:DWORD			; LogAdd
EXTRN	?LogAddC@@3P6AXEPADZZA:DWORD			; LogAddC
EXTRN	?LogAddTD@@3P6AXPADZZA:DWORD			; LogAddTD
EXTRN	?g_kJewelOfHarmonySystem@@3VCJewelOfHarmonySystem@@A:BYTE ; g_kJewelOfHarmonySystem
EXTRN	?g_kItemSystemFor380@@3VCItemSystemFor380@@A:BYTE ; g_kItemSystemFor380
EXTRN	?g_SocketItem@@3VCSocketItems@@A:BYTE		; g_SocketItem
EXTRN	?gObj@@3PAUOBJECTSTRUCT@@A:DWORD		; gObj
EXTRN	?DCInfo@@3Vclassdef@@A:BYTE			; DCInfo
EXTRN	?g_iShieldGageConstA@@3HA:DWORD			; g_iShieldGageConstA
EXTRN	?g_iShieldGageConstB@@3HA:DWORD			; g_iShieldGageConstB
EXTRN	?gAttackSpeedTimeLimit@@3KA:DWORD		; gAttackSpeedTimeLimit
EXTRN	?gDecTimePerAttackSpeed@@3MA:DWORD		; gDecTimePerAttackSpeed
EXTRN	?gMinimumAttackSpeedTime@@3HA:DWORD		; gMinimumAttackSpeedTime
EXTRN	?g_bAbilityDebug@@3HA:DWORD			; g_bAbilityDebug
EXTRN	?gDarkSpirit@@3PAVCDarkSpirit@@A:BYTE		; gDarkSpirit
EXTRN	?g_ItemAddOption@@3VCItemAddOption@@A:BYTE	; g_ItemAddOption
EXTRN	?gSetItemOption@@3VCSetItemOption@@A:BYTE	; gSetItemOption
EXTRN	?g_BuffEffect@@3VCBuffEffect@@A:DWORD		; g_BuffEffect
EXTRN	?g_ElementalSystem@@3VCElementalSystem@@A:BYTE	; g_ElementalSystem
EXTRN	?g_MasterSkillSystem@@3VCMasterLevelSkillTreeSystem@@A:BYTE ; g_MasterSkillSystem
EXTRN	?g_ClassCalc@@3VClassCalc@@A:BYTE		; g_ClassCalc
EXTRN	___security_cookie:DWORD
EXTRN	__fltused:DWORD
;	COMDAT ?_OptionsStorage@?1??__local_stdio_printf_options@@9@4_KA
_BSS	SEGMENT
?_OptionsStorage@?1??__local_stdio_printf_options@@9@4_KA DQ 01H DUP (?) ; `__local_stdio_printf_options'::`2'::_OptionsStorage
_BSS	ENDS
;	COMDAT __xmm@41f00000000000000000000000000000
CONST	SEGMENT
__xmm@41f00000000000000000000000000000 DB 00H, 00H, 00H, 00H, 00H, 00H, 00H
	DB	00H, 00H, 00H, 00H, 00H, 00H, 00H, 0f0H, 'A'
CONST	ENDS
;	COMDAT __xmm@0000000a000000080000000700000006
CONST	SEGMENT
__xmm@0000000a000000080000000700000006 DB 06H, 00H, 00H, 00H, 07H, 00H, 00H
	DB	00H, 08H, 00H, 00H, 00H, 0aH, 00H, 00H, 00H
CONST	ENDS
;	COMDAT __xmm@00000005000000040000000300000002
CONST	SEGMENT
__xmm@00000005000000040000000300000002 DB 02H, 00H, 00H, 00H, 03H, 00H, 00H
	DB	00H, 04H, 00H, 00H, 00H, 05H, 00H, 00H, 00H
CONST	ENDS
;	COMDAT __real@42c80000
CONST	SEGMENT
__real@42c80000 DD 042c80000r			; 100
CONST	ENDS
;	COMDAT __real@41a00000
CONST	SEGMENT
__real@41a00000 DD 041a00000r			; 20
CONST	ENDS
;	COMDAT __real@3fc999999999999a
CONST	SEGMENT
__real@3fc999999999999a DQ 03fc999999999999ar	; 0.2
CONST	ENDS
;	COMDAT __real@3f800000
CONST	SEGMENT
__real@3f800000 DD 03f800000r			; 1
CONST	ENDS
;	COMDAT __real@3dcccccd
CONST	SEGMENT
__real@3dcccccd DD 03dcccccdr			; 0.1
CONST	ENDS
;	COMDAT __real@3d4ccccd
CONST	SEGMENT
__real@3d4ccccd DD 03d4ccccdr			; 0.05
CONST	ENDS
;	COMDAT __real@3cf5c28f
CONST	SEGMENT
__real@3cf5c28f DD 03cf5c28fr			; 0.03
CONST	ENDS
;	COMDAT ??_C@_0O@OLIBOAPO@Full?5Set?5Item?$AA@
CONST	SEGMENT
??_C@_0O@OLIBOAPO@Full?5Set?5Item?$AA@ DB 'Full Set Item', 00H ; `string'
CONST	ENDS
;	COMDAT ??_C@_0BJ@CDNBOFLN@?$FL?$CFs?$FN?$FL?$CFs?$FN?5Ancient?5Set?3?5?$CFs?$AA@
CONST	SEGMENT
??_C@_0BJ@CDNBOFLN@?$FL?$CFs?$FN?$FL?$CFs?$FN?5Ancient?5Set?3?5?$CFs?$AA@ DB '['
	DB	'%s][%s] Ancient Set: %s', 00H		; `string'
CONST	ENDS
;	COMDAT ??_C@_0M@CMDBHBEK@?G?$KO?$LP?I?$LM?G?5?$MA?$PL?$LP?k?$AA@
CONST	SEGMENT
??_C@_0M@CMDBHBEK@?G?$KO?$LP?I?$LM?G?5?$MA?$PL?$LP?k?$AA@ DB 0c7H, 0aeH, 0bfH
	DB	0c9H, 0bcH, 0c7H, ' ', 0c0H, 0fbH, 0bfH, 0ebH, 00H ; `string'
CONST	ENDS
;	COMDAT ??_C@_0CG@HNELGANH@?$LJ?$NN?A?v?$LP?$KB?5?$LA?$LA?$MA?$LK?5?$LM?$LM?F?$KO?$LA?$KB?5?$MA?$PL?$LP?k?$LF?G?$LO?z?$LE?Y?5?$LJ?$KL@
CONST	SEGMENT
??_C@_0CG@HNELGANH@?$LJ?$NN?A?v?$LP?$KB?5?$LA?$LA?$MA?$LK?5?$LM?$LM?F?$KO?$LA?$KB?5?$MA?$PL?$LP?k?$LF?G?$LO?z?$LE?Y?5?$LJ?$KL@ DB 0b9H
	DB	0ddH, 0c1H, 0f6H, 0bfH, 0a1H, ' ', 0b0H, 0b0H, 0c0H, 0baH, ' ', 0bcH
	DB	0bcH, 0c6H, 0aeH, 0b0H, 0a1H, ' ', 0c0H, 0fbH, 0bfH, 0ebH, 0b5H
	DB	0c7H, 0beH, 0faH, 0b4H, 0d9H, ' ', 0b9H, 0abH, 0bdH, 0c3H, '..'
	DB	'.', 00H					; `string'
CONST	ENDS
;	COMDAT ??_C@_0CG@MJJCFDMJ@?$LO?g?$LM?U?$LP?$KB?5?$LA?$LA?$MA?$LK?5?$LM?$LM?F?$KO?$LA?$KB?5?$MA?$PL?$LP?k?$LF?G?$LO?z?$LE?Y?5?$LJ?$KL@
CONST	SEGMENT
??_C@_0CG@MJJCFDMJ@?$LO?g?$LM?U?$LP?$KB?5?$LA?$LA?$MA?$LK?5?$LM?$LM?F?$KO?$LA?$KB?5?$MA?$PL?$LP?k?$LF?G?$LO?z?$LE?Y?5?$LJ?$KL@ DB 0beH
	DB	0e7H, 0bcH, 0d5H, 0bfH, 0a1H, ' ', 0b0H, 0b0H, 0c0H, 0baH, ' ', 0bcH
	DB	0bcH, 0c6H, 0aeH, 0b0H, 0a1H, ' ', 0c0H, 0fbH, 0bfH, 0ebH, 0b5H
	DB	0c7H, 0beH, 0faH, 0b4H, 0d9H, ' ', 0b9H, 0abH, 0bdH, 0c3H, '..'
	DB	'.', 00H					; `string'
CONST	ENDS
;	COMDAT ??_C@_0BC@GFGEFHFO@Leadership?3?5?$CFd?0?$CFd?$AA@
CONST	SEGMENT
??_C@_0BC@GFGEFHFO@Leadership?3?5?$CFd?0?$CFd?$AA@ DB 'Leadership: %d,%d', 00H ; `string'
CONST	ENDS
;	COMDAT ??_C@_0CB@KNPOLDNB@Vitality?3?5?$CFd?0?$CFd?5?5?5?5Energy?3?5?$CFd?0?$CFd@
CONST	SEGMENT
??_C@_0CB@KNPOLDNB@Vitality?3?5?$CFd?0?$CFd?5?5?5?5Energy?3?5?$CFd?0?$CFd@ DB 'V'
	DB	'itality: %d,%d    Energy: %d,%d', 00H	; `string'
CONST	ENDS
;	COMDAT ??_C@_0CE@OBLIFBFL@Strength?3?5?$CFd?0?$CFd?5?5?5?5Dexterity?3?5?$CFd@
CONST	SEGMENT
??_C@_0CE@OBLIFBFL@Strength?3?5?$CFd?0?$CFd?5?5?5?5Dexterity?3?5?$CFd@ DB 'S'
	DB	'trength: %d,%d    Dexterity: %d,%d', 00H	; `string'
CONST	ENDS
;	COMDAT xdata$x
xdata$x	SEGMENT
__ehfuncinfo$??_EOBJECTSTRUCT@@QAEPAXI@Z DD 019930522H
	DD	00H
	DD	00H
	DD	2 DUP(00H)
	DD	2 DUP(00H)
	DD	00H
	DD	05H
xdata$x	ENDS
; Function compile flags: /Ogtp
; File c:\users\michel\desktop\source\gameserver\source\objcalcharacter.cpp
;	COMDAT ?gObjCalcMLSkillItemOption@@YAXPAUOBJECTSTRUCT@@@Z
_TEXT	SEGMENT
_lpObj$ = 8						; size = 4
?gObjCalcMLSkillItemOption@@YAXPAUOBJECTSTRUCT@@@Z PROC	; gObjCalcMLSkillItemOption, COMDAT

; 1835 : {

  00000	55		 push	 ebp
  00001	8b ec		 mov	 ebp, esp
  00003	56		 push	 esi

; 1836 : 	if( lpObj->m_MPSkillOpt.MpsTwoHandSwordStrength > 0.0f )

  00004	8b 75 08	 mov	 esi, DWORD PTR _lpObj$[ebp]
  00007	0f 57 c9	 xorps	 xmm1, xmm1
  0000a	f3 0f 10 86 f8
	06 00 00	 movss	 xmm0, DWORD PTR [esi+1784]
  00012	0f 2f c1	 comiss	 xmm0, xmm1
  00015	76 36		 jbe	 SHORT $LN3@gObjCalcML

; 1837 : 	{
; 1838 : 		if( lpObj->pInventory[0].GetDetailItemType() != 0 &&

  00017	8b 8e c0 11 00
	00		 mov	 ecx, DWORD PTR [esi+4544]
  0001d	e8 00 00 00 00	 call	 ?GetDetailItemType@CItem@@QAEHXZ ; CItem::GetDetailItemType
  00022	85 c0		 test	 eax, eax
  00024	74 24		 je	 SHORT $LN162@gObjCalcML
  00026	8b 8e c0 11 00
	00		 mov	 ecx, DWORD PTR [esi+4544]
  0002c	81 c1 d4 00 00
	00		 add	 ecx, 212		; 000000d4H
  00032	e8 00 00 00 00	 call	 ?GetDetailItemType@CItem@@QAEHXZ ; CItem::GetDetailItemType
  00037	0f 57 c9	 xorps	 xmm1, xmm1
  0003a	85 c0		 test	 eax, eax
  0003c	74 0f		 je	 SHORT $LN3@gObjCalcML

; 1839 : 			lpObj->pInventory[1].GetDetailItemType() != 0 )
; 1840 : 		{
; 1841 : 			lpObj->m_MPSkillOpt.MpsTwoHandSwordStrength = 0;

  0003e	c7 86 f8 06 00
	00 00 00 00 00	 mov	 DWORD PTR [esi+1784], 0
  00048	eb 03		 jmp	 SHORT $LN3@gObjCalcML
$LN162@gObjCalcML:
  0004a	0f 57 c9	 xorps	 xmm1, xmm1
$LN3@gObjCalcML:

; 1842 : 		}
; 1843 : 	}
; 1844 : 
; 1845 : 	if( lpObj->m_MPSkillOpt.MpsTwoHandSwordMastery > 0.0f )

  0004d	f3 0f 10 86 08
	07 00 00	 movss	 xmm0, DWORD PTR [esi+1800]
  00055	0f 2f c1	 comiss	 xmm0, xmm1
  00058	76 36		 jbe	 SHORT $LN5@gObjCalcML

; 1846 : 	{
; 1847 : 		if( lpObj->pInventory[0].GetDetailItemType() != 0 &&

  0005a	8b 8e c0 11 00
	00		 mov	 ecx, DWORD PTR [esi+4544]
  00060	e8 00 00 00 00	 call	 ?GetDetailItemType@CItem@@QAEHXZ ; CItem::GetDetailItemType
  00065	85 c0		 test	 eax, eax
  00067	74 24		 je	 SHORT $LN160@gObjCalcML
  00069	8b 8e c0 11 00
	00		 mov	 ecx, DWORD PTR [esi+4544]
  0006f	81 c1 d4 00 00
	00		 add	 ecx, 212		; 000000d4H
  00075	e8 00 00 00 00	 call	 ?GetDetailItemType@CItem@@QAEHXZ ; CItem::GetDetailItemType
  0007a	0f 57 c9	 xorps	 xmm1, xmm1
  0007d	85 c0		 test	 eax, eax
  0007f	74 0f		 je	 SHORT $LN5@gObjCalcML

; 1848 : 			lpObj->pInventory[1].GetDetailItemType() != 0 )
; 1849 : 		{
; 1850 : 			lpObj->m_MPSkillOpt.MpsTwoHandSwordMastery = 0;

  00081	c7 86 08 07 00
	00 00 00 00 00	 mov	 DWORD PTR [esi+1800], 0
  0008b	eb 03		 jmp	 SHORT $LN5@gObjCalcML
$LN160@gObjCalcML:
  0008d	0f 57 c9	 xorps	 xmm1, xmm1
$LN5@gObjCalcML:

; 1851 : 		}
; 1852 : 	}
; 1853 : 
; 1854 : 	if( lpObj->m_MPSkillOpt.MpsTwoHandStaffStrength > 0.0f )

  00090	f3 0f 10 86 24
	07 00 00	 movss	 xmm0, DWORD PTR [esi+1828]
  00098	0f 2f c1	 comiss	 xmm0, xmm1
  0009b	76 63		 jbe	 SHORT $LN7@gObjCalcML

; 1855 : 	{
; 1856 : 		if( lpObj->pInventory[0].GetDetailItemType() == 5 ||

  0009d	8b 8e c0 11 00
	00		 mov	 ecx, DWORD PTR [esi+4544]
  000a3	e8 00 00 00 00	 call	 ?GetDetailItemType@CItem@@QAEHXZ ; CItem::GetDetailItemType
  000a8	83 f8 05	 cmp	 eax, 5
  000ab	74 16		 je	 SHORT $LN8@gObjCalcML
  000ad	8b 8e c0 11 00
	00		 mov	 ecx, DWORD PTR [esi+4544]
  000b3	81 c1 d4 00 00
	00		 add	 ecx, 212		; 000000d4H
  000b9	e8 00 00 00 00	 call	 ?GetDetailItemType@CItem@@QAEHXZ ; CItem::GetDetailItemType
  000be	83 f8 05	 cmp	 eax, 5
  000c1	75 3a		 jne	 SHORT $LN158@gObjCalcML
$LN8@gObjCalcML:
  000c3	66 0f 6e 86 48
	06 00 00	 movd	 xmm0, DWORD PTR [esi+1608]

; 1857 : 			lpObj->pInventory[1].GetDetailItemType() == 5 )
; 1858 : 		{
; 1859 : 			lpObj->m_MagicDamageMin += lpObj->m_MPSkillOpt.MpsTwoHandStaffStrength;

  000cb	f3 0f 10 8e 24
	07 00 00	 movss	 xmm1, DWORD PTR [esi+1828]
  000d3	0f 5b c0	 cvtdq2ps xmm0, xmm0
  000d6	f3 0f 58 c1	 addss	 xmm0, xmm1
  000da	f3 0f 2c c0	 cvttss2si eax, xmm0
  000de	66 0f 6e 86 4c
	06 00 00	 movd	 xmm0, DWORD PTR [esi+1612]

; 1860 : 			lpObj->m_MagicDamageMax += lpObj->m_MPSkillOpt.MpsTwoHandStaffStrength;

  000e6	0f 5b c0	 cvtdq2ps xmm0, xmm0
  000e9	89 86 48 06 00
	00		 mov	 DWORD PTR [esi+1608], eax
  000ef	f3 0f 58 c1	 addss	 xmm0, xmm1
  000f3	f3 0f 2c c0	 cvttss2si eax, xmm0
  000f7	89 86 4c 06 00
	00		 mov	 DWORD PTR [esi+1612], eax
$LN158@gObjCalcML:
  000fd	0f 57 c9	 xorps	 xmm1, xmm1
$LN7@gObjCalcML:

; 1861 : 		}
; 1862 : 	}
; 1863 : 
; 1864 : 	if( lpObj->m_MPSkillOpt.MpsOneHandStaffStrength > 0.0f )

  00100	f3 0f 10 86 28
	07 00 00	 movss	 xmm0, DWORD PTR [esi+1832]
  00108	0f 2f c1	 comiss	 xmm0, xmm1
  0010b	76 63		 jbe	 SHORT $LN10@gObjCalcML

; 1865 : 	{
; 1866 : 		if( lpObj->pInventory[0].GetDetailItemType() == 4 ||

  0010d	8b 8e c0 11 00
	00		 mov	 ecx, DWORD PTR [esi+4544]
  00113	e8 00 00 00 00	 call	 ?GetDetailItemType@CItem@@QAEHXZ ; CItem::GetDetailItemType
  00118	83 f8 04	 cmp	 eax, 4
  0011b	74 16		 je	 SHORT $LN11@gObjCalcML
  0011d	8b 8e c0 11 00
	00		 mov	 ecx, DWORD PTR [esi+4544]
  00123	81 c1 d4 00 00
	00		 add	 ecx, 212		; 000000d4H
  00129	e8 00 00 00 00	 call	 ?GetDetailItemType@CItem@@QAEHXZ ; CItem::GetDetailItemType
  0012e	83 f8 04	 cmp	 eax, 4
  00131	75 3a		 jne	 SHORT $LN157@gObjCalcML
$LN11@gObjCalcML:
  00133	66 0f 6e 86 48
	06 00 00	 movd	 xmm0, DWORD PTR [esi+1608]

; 1867 : 			lpObj->pInventory[1].GetDetailItemType() == 4 )
; 1868 : 		{
; 1869 : 			lpObj->m_MagicDamageMin += lpObj->m_MPSkillOpt.MpsOneHandStaffStrength;

  0013b	f3 0f 10 8e 28
	07 00 00	 movss	 xmm1, DWORD PTR [esi+1832]
  00143	0f 5b c0	 cvtdq2ps xmm0, xmm0
  00146	f3 0f 58 c1	 addss	 xmm0, xmm1
  0014a	f3 0f 2c c0	 cvttss2si eax, xmm0
  0014e	66 0f 6e 86 4c
	06 00 00	 movd	 xmm0, DWORD PTR [esi+1612]

; 1870 : 			lpObj->m_MagicDamageMax += lpObj->m_MPSkillOpt.MpsOneHandStaffStrength;

  00156	0f 5b c0	 cvtdq2ps xmm0, xmm0
  00159	89 86 48 06 00
	00		 mov	 DWORD PTR [esi+1608], eax
  0015f	f3 0f 58 c1	 addss	 xmm0, xmm1
  00163	f3 0f 2c c0	 cvttss2si eax, xmm0
  00167	89 86 4c 06 00
	00		 mov	 DWORD PTR [esi+1612], eax
$LN157@gObjCalcML:
  0016d	0f 57 c9	 xorps	 xmm1, xmm1
$LN10@gObjCalcML:

; 1871 : 		}
; 1872 : 	}
; 1873 : 
; 1874 : 	if( lpObj->m_MPSkillOpt.MpsStickStrength > 0.0f )

  00170	f3 0f 10 86 80
	07 00 00	 movss	 xmm0, DWORD PTR [esi+1920]
  00178	0f 2f c1	 comiss	 xmm0, xmm1
  0017b	76 63		 jbe	 SHORT $LN13@gObjCalcML

; 1875 : 	{
; 1876 : 		if( lpObj->pInventory[0].GetDetailItemType() == 9 ||

  0017d	8b 8e c0 11 00
	00		 mov	 ecx, DWORD PTR [esi+4544]
  00183	e8 00 00 00 00	 call	 ?GetDetailItemType@CItem@@QAEHXZ ; CItem::GetDetailItemType
  00188	83 f8 09	 cmp	 eax, 9
  0018b	74 16		 je	 SHORT $LN14@gObjCalcML
  0018d	8b 8e c0 11 00
	00		 mov	 ecx, DWORD PTR [esi+4544]
  00193	81 c1 d4 00 00
	00		 add	 ecx, 212		; 000000d4H
  00199	e8 00 00 00 00	 call	 ?GetDetailItemType@CItem@@QAEHXZ ; CItem::GetDetailItemType
  0019e	83 f8 09	 cmp	 eax, 9
  001a1	75 3a		 jne	 SHORT $LN156@gObjCalcML
$LN14@gObjCalcML:
  001a3	66 0f 6e 86 48
	06 00 00	 movd	 xmm0, DWORD PTR [esi+1608]

; 1877 : 			lpObj->pInventory[1].GetDetailItemType() == 9 )
; 1878 : 		{
; 1879 : 			lpObj->m_MagicDamageMin += lpObj->m_MPSkillOpt.MpsStickStrength;

  001ab	f3 0f 10 8e 80
	07 00 00	 movss	 xmm1, DWORD PTR [esi+1920]
  001b3	0f 5b c0	 cvtdq2ps xmm0, xmm0
  001b6	f3 0f 58 c1	 addss	 xmm0, xmm1
  001ba	f3 0f 2c c0	 cvttss2si eax, xmm0
  001be	66 0f 6e 86 4c
	06 00 00	 movd	 xmm0, DWORD PTR [esi+1612]

; 1880 : 			lpObj->m_MagicDamageMax += lpObj->m_MPSkillOpt.MpsStickStrength;

  001c6	0f 5b c0	 cvtdq2ps xmm0, xmm0
  001c9	89 86 48 06 00
	00		 mov	 DWORD PTR [esi+1608], eax
  001cf	f3 0f 58 c1	 addss	 xmm0, xmm1
  001d3	f3 0f 2c c0	 cvttss2si eax, xmm0
  001d7	89 86 4c 06 00
	00		 mov	 DWORD PTR [esi+1612], eax
$LN156@gObjCalcML:
  001dd	0f 57 c9	 xorps	 xmm1, xmm1
$LN13@gObjCalcML:

; 1881 : 		}
; 1882 : 	}
; 1883 : 
; 1884 : 	if( lpObj->m_MPSkillOpt.MpsShieldStrength > 0.0f )

  001e0	f3 0f 10 86 2c
	07 00 00	 movss	 xmm0, DWORD PTR [esi+1836]
  001e8	0f 2f c1	 comiss	 xmm0, xmm1
  001eb	76 59		 jbe	 SHORT $LN16@gObjCalcML

; 1885 : 	{
; 1886 : 		if( lpObj->pInventory[0].GetDetailItemType() == 6 ||

  001ed	8b 8e c0 11 00
	00		 mov	 ecx, DWORD PTR [esi+4544]
  001f3	e8 00 00 00 00	 call	 ?GetDetailItemType@CItem@@QAEHXZ ; CItem::GetDetailItemType
  001f8	83 f8 06	 cmp	 eax, 6
  001fb	74 16		 je	 SHORT $LN17@gObjCalcML
  001fd	8b 8e c0 11 00
	00		 mov	 ecx, DWORD PTR [esi+4544]
  00203	81 c1 d4 00 00
	00		 add	 ecx, 212		; 000000d4H
  00209	e8 00 00 00 00	 call	 ?GetDetailItemType@CItem@@QAEHXZ ; CItem::GetDetailItemType
  0020e	83 f8 06	 cmp	 eax, 6
  00211	75 30		 jne	 SHORT $LN155@gObjCalcML
$LN17@gObjCalcML:
  00213	66 0f 6e 86 74
	06 00 00	 movd	 xmm0, DWORD PTR [esi+1652]

; 1887 : 			lpObj->pInventory[1].GetDetailItemType() == 6 )
; 1888 : 		{
; 1889 : 			lpObj->m_Defense += lpObj->m_MPSkillOpt.MpsShieldStrength;

  0021b	0f 5b c0	 cvtdq2ps xmm0, xmm0
  0021e	f3 0f 58 86 2c
	07 00 00	 addss	 xmm0, DWORD PTR [esi+1836]
  00226	f3 0f 2c c0	 cvttss2si eax, xmm0
  0022a	66 0f 6e c0	 movd	 xmm0, eax

; 1890 : 			lpObj->m_Defense += lpObj->m_MPSkillOpt.MpsShieldStrength2;	// bug ? 

  0022e	0f 5b c0	 cvtdq2ps xmm0, xmm0
  00231	f3 0f 58 86 4c
	07 00 00	 addss	 xmm0, DWORD PTR [esi+1868]
  00239	f3 0f 2c c0	 cvttss2si eax, xmm0
  0023d	89 86 74 06 00
	00		 mov	 DWORD PTR [esi+1652], eax
$LN155@gObjCalcML:
  00243	0f 57 c9	 xorps	 xmm1, xmm1
$LN16@gObjCalcML:

; 1891 : 		}
; 1892 : 	}
; 1893 : 
; 1894 : 	if( lpObj->m_MPSkillOpt.MpsShieldStrength2 > 0.0f )

  00246	f3 0f 10 86 4c
	07 00 00	 movss	 xmm0, DWORD PTR [esi+1868]
  0024e	0f 2f c1	 comiss	 xmm0, xmm1
  00251	76 46		 jbe	 SHORT $LN19@gObjCalcML

; 1895 : 	{
; 1896 : 		if( lpObj->pInventory[0].GetDetailItemType() == 6 ||

  00253	8b 8e c0 11 00
	00		 mov	 ecx, DWORD PTR [esi+4544]
  00259	e8 00 00 00 00	 call	 ?GetDetailItemType@CItem@@QAEHXZ ; CItem::GetDetailItemType
  0025e	83 f8 06	 cmp	 eax, 6
  00261	74 16		 je	 SHORT $LN20@gObjCalcML
  00263	8b 8e c0 11 00
	00		 mov	 ecx, DWORD PTR [esi+4544]
  00269	81 c1 d4 00 00
	00		 add	 ecx, 212		; 000000d4H
  0026f	e8 00 00 00 00	 call	 ?GetDetailItemType@CItem@@QAEHXZ ; CItem::GetDetailItemType
  00274	83 f8 06	 cmp	 eax, 6
  00277	75 1d		 jne	 SHORT $LN154@gObjCalcML
$LN20@gObjCalcML:
  00279	66 0f 6e 86 74
	06 00 00	 movd	 xmm0, DWORD PTR [esi+1652]

; 1897 : 			lpObj->pInventory[1].GetDetailItemType() == 6 )
; 1898 : 		{
; 1899 : 			lpObj->m_Defense += lpObj->m_MPSkillOpt.MpsShieldStrength2;

  00281	0f 5b c0	 cvtdq2ps xmm0, xmm0
  00284	f3 0f 58 86 4c
	07 00 00	 addss	 xmm0, DWORD PTR [esi+1868]
  0028c	f3 0f 2c c0	 cvttss2si eax, xmm0
  00290	89 86 74 06 00
	00		 mov	 DWORD PTR [esi+1652], eax
$LN154@gObjCalcML:
  00296	0f 57 c9	 xorps	 xmm1, xmm1
$LN19@gObjCalcML:

; 1900 : 		}
; 1901 : 	}
; 1902 : 
; 1903 : 	if( lpObj->m_MPSkillOpt.MpsShieldStrength3 > 0.0f )

  00299	f3 0f 10 86 bc
	07 00 00	 movss	 xmm0, DWORD PTR [esi+1980]
  002a1	0f 2f c1	 comiss	 xmm0, xmm1
  002a4	76 46		 jbe	 SHORT $LN22@gObjCalcML

; 1904 : 	{
; 1905 : 		if( lpObj->pInventory[0].GetDetailItemType() == 6 ||

  002a6	8b 8e c0 11 00
	00		 mov	 ecx, DWORD PTR [esi+4544]
  002ac	e8 00 00 00 00	 call	 ?GetDetailItemType@CItem@@QAEHXZ ; CItem::GetDetailItemType
  002b1	83 f8 06	 cmp	 eax, 6
  002b4	74 16		 je	 SHORT $LN23@gObjCalcML
  002b6	8b 8e c0 11 00
	00		 mov	 ecx, DWORD PTR [esi+4544]
  002bc	81 c1 d4 00 00
	00		 add	 ecx, 212		; 000000d4H
  002c2	e8 00 00 00 00	 call	 ?GetDetailItemType@CItem@@QAEHXZ ; CItem::GetDetailItemType
  002c7	83 f8 06	 cmp	 eax, 6
  002ca	75 1d		 jne	 SHORT $LN153@gObjCalcML
$LN23@gObjCalcML:
  002cc	66 0f 6e 86 74
	06 00 00	 movd	 xmm0, DWORD PTR [esi+1652]

; 1906 : 			lpObj->pInventory[1].GetDetailItemType() == 6 )
; 1907 : 		{
; 1908 : 			lpObj->m_Defense += lpObj->m_MPSkillOpt.MpsShieldStrength3;

  002d4	0f 5b c0	 cvtdq2ps xmm0, xmm0
  002d7	f3 0f 58 86 bc
	07 00 00	 addss	 xmm0, DWORD PTR [esi+1980]
  002df	f3 0f 2c c0	 cvttss2si eax, xmm0
  002e3	89 86 74 06 00
	00		 mov	 DWORD PTR [esi+1652], eax
$LN153@gObjCalcML:
  002e9	0f 57 c9	 xorps	 xmm1, xmm1
$LN22@gObjCalcML:

; 1909 : 		}
; 1910 : 	}
; 1911 : 
; 1912 : 	if( lpObj->m_MPSkillOpt.MpsOneHandStaffMastery > 0.0f )

  002ec	f3 0f 10 86 30
	07 00 00	 movss	 xmm0, DWORD PTR [esi+1840]
  002f4	0f 2f c1	 comiss	 xmm0, xmm1
  002f7	76 63		 jbe	 SHORT $LN25@gObjCalcML

; 1913 : 	{
; 1914 : 		if( lpObj->pInventory[0].GetDetailItemType() == 4 ||

  002f9	8b 8e c0 11 00
	00		 mov	 ecx, DWORD PTR [esi+4544]
  002ff	e8 00 00 00 00	 call	 ?GetDetailItemType@CItem@@QAEHXZ ; CItem::GetDetailItemType
  00304	83 f8 04	 cmp	 eax, 4
  00307	74 16		 je	 SHORT $LN26@gObjCalcML
  00309	8b 8e c0 11 00
	00		 mov	 ecx, DWORD PTR [esi+4544]
  0030f	81 c1 d4 00 00
	00		 add	 ecx, 212		; 000000d4H
  00315	e8 00 00 00 00	 call	 ?GetDetailItemType@CItem@@QAEHXZ ; CItem::GetDetailItemType
  0031a	83 f8 04	 cmp	 eax, 4
  0031d	75 3a		 jne	 SHORT $LN152@gObjCalcML
$LN26@gObjCalcML:
  0031f	66 0f 6e 86 6c
	06 00 00	 movd	 xmm0, DWORD PTR [esi+1644]

; 1915 : 			lpObj->pInventory[1].GetDetailItemType() == 4 )
; 1916 : 		{
; 1917 : 			lpObj->m_AttackSpeed += lpObj->m_MPSkillOpt.MpsOneHandStaffMastery;

  00327	f3 0f 10 8e 30
	07 00 00	 movss	 xmm1, DWORD PTR [esi+1840]
  0032f	0f 5b c0	 cvtdq2ps xmm0, xmm0
  00332	f3 0f 58 c1	 addss	 xmm0, xmm1
  00336	f3 0f 2c c0	 cvttss2si eax, xmm0
  0033a	66 0f 6e 86 70
	06 00 00	 movd	 xmm0, DWORD PTR [esi+1648]

; 1918 : 			lpObj->m_MagicSpeed += lpObj->m_MPSkillOpt.MpsOneHandStaffMastery;

  00342	0f 5b c0	 cvtdq2ps xmm0, xmm0
  00345	89 86 6c 06 00
	00		 mov	 DWORD PTR [esi+1644], eax
  0034b	f3 0f 58 c1	 addss	 xmm0, xmm1
  0034f	f3 0f 2c c0	 cvttss2si eax, xmm0
  00353	89 86 70 06 00
	00		 mov	 DWORD PTR [esi+1648], eax
$LN152@gObjCalcML:
  00359	0f 57 c9	 xorps	 xmm1, xmm1
$LN25@gObjCalcML:

; 1919 : 		}
; 1920 : 	}
; 1921 : 
; 1922 : 	if( lpObj->m_MPSkillOpt.MpsTomeMastery > 0.0f )

  0035c	f3 0f 10 86 8c
	07 00 00	 movss	 xmm0, DWORD PTR [esi+1932]
  00364	0f 2f c1	 comiss	 xmm0, xmm1
  00367	76 63		 jbe	 SHORT $LN28@gObjCalcML

; 1923 : 	{
; 1924 : 		if( lpObj->pInventory[0].GetDetailItemType() == 10 ||

  00369	8b 8e c0 11 00
	00		 mov	 ecx, DWORD PTR [esi+4544]
  0036f	e8 00 00 00 00	 call	 ?GetDetailItemType@CItem@@QAEHXZ ; CItem::GetDetailItemType
  00374	83 f8 0a	 cmp	 eax, 10			; 0000000aH
  00377	74 16		 je	 SHORT $LN29@gObjCalcML
  00379	8b 8e c0 11 00
	00		 mov	 ecx, DWORD PTR [esi+4544]
  0037f	81 c1 d4 00 00
	00		 add	 ecx, 212		; 000000d4H
  00385	e8 00 00 00 00	 call	 ?GetDetailItemType@CItem@@QAEHXZ ; CItem::GetDetailItemType
  0038a	83 f8 0a	 cmp	 eax, 10			; 0000000aH
  0038d	75 3a		 jne	 SHORT $LN151@gObjCalcML
$LN29@gObjCalcML:
  0038f	66 0f 6e 86 6c
	06 00 00	 movd	 xmm0, DWORD PTR [esi+1644]

; 1925 : 			lpObj->pInventory[1].GetDetailItemType() == 10 )
; 1926 : 		{
; 1927 : 			lpObj->m_AttackSpeed += lpObj->m_MPSkillOpt.MpsTomeMastery;

  00397	f3 0f 10 8e 8c
	07 00 00	 movss	 xmm1, DWORD PTR [esi+1932]
  0039f	0f 5b c0	 cvtdq2ps xmm0, xmm0
  003a2	f3 0f 58 c1	 addss	 xmm0, xmm1
  003a6	f3 0f 2c c0	 cvttss2si eax, xmm0
  003aa	66 0f 6e 86 70
	06 00 00	 movd	 xmm0, DWORD PTR [esi+1648]

; 1928 : 			lpObj->m_MagicSpeed += lpObj->m_MPSkillOpt.MpsTomeMastery;

  003b2	0f 5b c0	 cvtdq2ps xmm0, xmm0
  003b5	89 86 6c 06 00
	00		 mov	 DWORD PTR [esi+1644], eax
  003bb	f3 0f 58 c1	 addss	 xmm0, xmm1
  003bf	f3 0f 2c c0	 cvttss2si eax, xmm0
  003c3	89 86 70 06 00
	00		 mov	 DWORD PTR [esi+1648], eax
$LN151@gObjCalcML:
  003c9	0f 57 c9	 xorps	 xmm1, xmm1
$LN28@gObjCalcML:

; 1929 : 		}
; 1930 : 	}
; 1931 : 
; 1932 : 	if( lpObj->m_MPSkillOpt.MpsTomeStrength > 0.0f )

  003cc	f3 0f 10 86 84
	07 00 00	 movss	 xmm0, DWORD PTR [esi+1924]
  003d4	0f 2f c1	 comiss	 xmm0, xmm1
  003d7	76 63		 jbe	 SHORT $LN31@gObjCalcML

; 1933 : 	{
; 1934 : 		if( lpObj->pInventory[0].GetDetailItemType() == 10 ||

  003d9	8b 8e c0 11 00
	00		 mov	 ecx, DWORD PTR [esi+4544]
  003df	e8 00 00 00 00	 call	 ?GetDetailItemType@CItem@@QAEHXZ ; CItem::GetDetailItemType
  003e4	83 f8 0a	 cmp	 eax, 10			; 0000000aH
  003e7	74 16		 je	 SHORT $LN32@gObjCalcML
  003e9	8b 8e c0 11 00
	00		 mov	 ecx, DWORD PTR [esi+4544]
  003ef	81 c1 d4 00 00
	00		 add	 ecx, 212		; 000000d4H
  003f5	e8 00 00 00 00	 call	 ?GetDetailItemType@CItem@@QAEHXZ ; CItem::GetDetailItemType
  003fa	83 f8 0a	 cmp	 eax, 10			; 0000000aH
  003fd	75 3a		 jne	 SHORT $LN150@gObjCalcML
$LN32@gObjCalcML:
  003ff	66 0f 6e 86 84
	06 00 00	 movd	 xmm0, DWORD PTR [esi+1668]

; 1935 : 			lpObj->pInventory[1].GetDetailItemType() == 10 )
; 1936 : 		{
; 1937 : 			lpObj->m_CurseDamageMin += lpObj->m_MPSkillOpt.MpsTomeStrength;

  00407	f3 0f 10 8e 84
	07 00 00	 movss	 xmm1, DWORD PTR [esi+1924]
  0040f	0f 5b c0	 cvtdq2ps xmm0, xmm0
  00412	f3 0f 58 c1	 addss	 xmm0, xmm1
  00416	f3 0f 2c c0	 cvttss2si eax, xmm0
  0041a	66 0f 6e 86 88
	06 00 00	 movd	 xmm0, DWORD PTR [esi+1672]

; 1938 : 			lpObj->m_CurseDamageMax += lpObj->m_MPSkillOpt.MpsTomeStrength;

  00422	0f 5b c0	 cvtdq2ps xmm0, xmm0
  00425	89 86 84 06 00
	00		 mov	 DWORD PTR [esi+1668], eax
  0042b	f3 0f 58 c1	 addss	 xmm0, xmm1
  0042f	f3 0f 2c c0	 cvttss2si eax, xmm0
  00433	89 86 88 06 00
	00		 mov	 DWORD PTR [esi+1672], eax
$LN150@gObjCalcML:
  00439	0f 57 c9	 xorps	 xmm1, xmm1
$LN31@gObjCalcML:

; 1939 : 		}
; 1940 : 	}
; 1941 : 
; 1942 : 	if( lpObj->m_MPSkillOpt.MpsTwoHandStaffMastery > 0.0f )

  0043c	f3 0f 10 86 34
	07 00 00	 movss	 xmm0, DWORD PTR [esi+1844]
  00444	0f 2f c1	 comiss	 xmm0, xmm1
  00447	76 38		 jbe	 SHORT $LN34@gObjCalcML

; 1943 : 	{
; 1944 : 		if( lpObj->pInventory[0].GetDetailItemType() != 5 &&

  00449	8b 8e c0 11 00
	00		 mov	 ecx, DWORD PTR [esi+4544]
  0044f	e8 00 00 00 00	 call	 ?GetDetailItemType@CItem@@QAEHXZ ; CItem::GetDetailItemType
  00454	83 f8 05	 cmp	 eax, 5
  00457	74 25		 je	 SHORT $LN149@gObjCalcML
  00459	8b 8e c0 11 00
	00		 mov	 ecx, DWORD PTR [esi+4544]
  0045f	81 c1 d4 00 00
	00		 add	 ecx, 212		; 000000d4H
  00465	e8 00 00 00 00	 call	 ?GetDetailItemType@CItem@@QAEHXZ ; CItem::GetDetailItemType
  0046a	0f 57 c9	 xorps	 xmm1, xmm1
  0046d	83 f8 05	 cmp	 eax, 5
  00470	74 0f		 je	 SHORT $LN34@gObjCalcML

; 1945 : 			lpObj->pInventory[1].GetDetailItemType() != 5 )
; 1946 : 		{
; 1947 : 			lpObj->m_MPSkillOpt.MpsTwoHandStaffMastery = 0;

  00472	c7 86 34 07 00
	00 00 00 00 00	 mov	 DWORD PTR [esi+1844], 0
  0047c	eb 03		 jmp	 SHORT $LN34@gObjCalcML
$LN149@gObjCalcML:
  0047e	0f 57 c9	 xorps	 xmm1, xmm1
$LN34@gObjCalcML:

; 1948 : 		}
; 1949 : 	}
; 1950 : 
; 1951 : 	if( lpObj->m_MPSkillOpt.MpsCrossbowMastery > 0.0f )

  00481	f3 0f 10 86 48
	07 00 00	 movss	 xmm0, DWORD PTR [esi+1864]
  00489	0f 2f c1	 comiss	 xmm0, xmm1
  0048c	76 38		 jbe	 SHORT $LN36@gObjCalcML

; 1952 : 	{
; 1953 : 		if( lpObj->pInventory[0].GetDetailItemType() != 8 &&

  0048e	8b 8e c0 11 00
	00		 mov	 ecx, DWORD PTR [esi+4544]
  00494	e8 00 00 00 00	 call	 ?GetDetailItemType@CItem@@QAEHXZ ; CItem::GetDetailItemType
  00499	83 f8 08	 cmp	 eax, 8
  0049c	74 25		 je	 SHORT $LN147@gObjCalcML
  0049e	8b 8e c0 11 00
	00		 mov	 ecx, DWORD PTR [esi+4544]
  004a4	81 c1 d4 00 00
	00		 add	 ecx, 212		; 000000d4H
  004aa	e8 00 00 00 00	 call	 ?GetDetailItemType@CItem@@QAEHXZ ; CItem::GetDetailItemType
  004af	0f 57 c9	 xorps	 xmm1, xmm1
  004b2	83 f8 08	 cmp	 eax, 8
  004b5	74 0f		 je	 SHORT $LN36@gObjCalcML

; 1954 : 			lpObj->pInventory[1].GetDetailItemType() != 8 )
; 1955 : 		{
; 1956 : 			lpObj->m_MPSkillOpt.MpsCrossbowMastery = 0;

  004b7	c7 86 48 07 00
	00 00 00 00 00	 mov	 DWORD PTR [esi+1864], 0
  004c1	eb 03		 jmp	 SHORT $LN36@gObjCalcML
$LN147@gObjCalcML:
  004c3	0f 57 c9	 xorps	 xmm1, xmm1
$LN36@gObjCalcML:

; 1957 : 		}
; 1958 : 	}
; 1959 : 
; 1960 : 	if( lpObj->m_MPSkillOpt.MpsStickMastery > 0.0f )

  004c6	f3 0f 10 86 88
	07 00 00	 movss	 xmm0, DWORD PTR [esi+1928]
  004ce	0f 2f c1	 comiss	 xmm0, xmm1
  004d1	76 38		 jbe	 SHORT $LN38@gObjCalcML

; 1961 : 	{
; 1962 : 		if( lpObj->pInventory[0].GetDetailItemType() != 9 &&

  004d3	8b 8e c0 11 00
	00		 mov	 ecx, DWORD PTR [esi+4544]
  004d9	e8 00 00 00 00	 call	 ?GetDetailItemType@CItem@@QAEHXZ ; CItem::GetDetailItemType
  004de	83 f8 09	 cmp	 eax, 9
  004e1	74 25		 je	 SHORT $LN145@gObjCalcML
  004e3	8b 8e c0 11 00
	00		 mov	 ecx, DWORD PTR [esi+4544]
  004e9	81 c1 d4 00 00
	00		 add	 ecx, 212		; 000000d4H
  004ef	e8 00 00 00 00	 call	 ?GetDetailItemType@CItem@@QAEHXZ ; CItem::GetDetailItemType
  004f4	0f 57 c9	 xorps	 xmm1, xmm1
  004f7	83 f8 09	 cmp	 eax, 9
  004fa	74 0f		 je	 SHORT $LN38@gObjCalcML

; 1963 : 			lpObj->pInventory[1].GetDetailItemType() != 9 )
; 1964 : 		{
; 1965 : 			lpObj->m_MPSkillOpt.MpsStickMastery = 0;

  004fc	c7 86 88 07 00
	00 00 00 00 00	 mov	 DWORD PTR [esi+1928], 0
  00506	eb 03		 jmp	 SHORT $LN38@gObjCalcML
$LN145@gObjCalcML:
  00508	0f 57 c9	 xorps	 xmm1, xmm1
$LN38@gObjCalcML:

; 1966 : 		}
; 1967 : 	}
; 1968 : 
; 1969 : 	if( lpObj->m_MPSkillOpt.MpsScepterMastery > 0.0f )

  0050b	f3 0f 10 86 b8
	07 00 00	 movss	 xmm0, DWORD PTR [esi+1976]
  00513	0f 2f c1	 comiss	 xmm0, xmm1
  00516	76 38		 jbe	 SHORT $LN40@gObjCalcML

; 1970 : 	{
; 1971 : 		if( lpObj->pInventory[0].GetDetailItemType() != 11 &&

  00518	8b 8e c0 11 00
	00		 mov	 ecx, DWORD PTR [esi+4544]
  0051e	e8 00 00 00 00	 call	 ?GetDetailItemType@CItem@@QAEHXZ ; CItem::GetDetailItemType
  00523	83 f8 0b	 cmp	 eax, 11			; 0000000bH
  00526	74 25		 je	 SHORT $LN143@gObjCalcML
  00528	8b 8e c0 11 00
	00		 mov	 ecx, DWORD PTR [esi+4544]
  0052e	81 c1 d4 00 00
	00		 add	 ecx, 212		; 000000d4H
  00534	e8 00 00 00 00	 call	 ?GetDetailItemType@CItem@@QAEHXZ ; CItem::GetDetailItemType
  00539	0f 57 c9	 xorps	 xmm1, xmm1
  0053c	83 f8 0b	 cmp	 eax, 11			; 0000000bH
  0053f	74 0f		 je	 SHORT $LN40@gObjCalcML

; 1972 : 			lpObj->pInventory[1].GetDetailItemType() != 11 )
; 1973 : 		{
; 1974 : 			lpObj->m_MPSkillOpt.MpsScepterMastery = 0;

  00541	c7 86 b8 07 00
	00 00 00 00 00	 mov	 DWORD PTR [esi+1976], 0
  0054b	eb 03		 jmp	 SHORT $LN40@gObjCalcML
$LN143@gObjCalcML:
  0054d	0f 57 c9	 xorps	 xmm1, xmm1
$LN40@gObjCalcML:

; 1975 : 		}
; 1976 : 	}
; 1977 : 
; 1978 : 	if( lpObj->m_MPSkillOpt.MpsShieldMastery > 0.0f )

  00550	f3 0f 10 86 38
	07 00 00	 movss	 xmm0, DWORD PTR [esi+1848]
  00558	0f 2f c1	 comiss	 xmm0, xmm1
  0055b	76 38		 jbe	 SHORT $LN42@gObjCalcML

; 1979 : 	{
; 1980 : 		if( lpObj->pInventory[0].GetDetailItemType() != 6 &&

  0055d	8b 8e c0 11 00
	00		 mov	 ecx, DWORD PTR [esi+4544]
  00563	e8 00 00 00 00	 call	 ?GetDetailItemType@CItem@@QAEHXZ ; CItem::GetDetailItemType
  00568	83 f8 06	 cmp	 eax, 6
  0056b	74 25		 je	 SHORT $LN141@gObjCalcML
  0056d	8b 8e c0 11 00
	00		 mov	 ecx, DWORD PTR [esi+4544]
  00573	81 c1 d4 00 00
	00		 add	 ecx, 212		; 000000d4H
  00579	e8 00 00 00 00	 call	 ?GetDetailItemType@CItem@@QAEHXZ ; CItem::GetDetailItemType
  0057e	0f 57 c9	 xorps	 xmm1, xmm1
  00581	83 f8 06	 cmp	 eax, 6
  00584	74 0f		 je	 SHORT $LN42@gObjCalcML

; 1981 : 			lpObj->pInventory[1].GetDetailItemType() != 6 )
; 1982 : 		{
; 1983 : 			lpObj->m_MPSkillOpt.MpsShieldMastery = 0;

  00586	c7 86 38 07 00
	00 00 00 00 00	 mov	 DWORD PTR [esi+1848], 0
  00590	eb 03		 jmp	 SHORT $LN42@gObjCalcML
$LN141@gObjCalcML:
  00592	0f 57 c9	 xorps	 xmm1, xmm1
$LN42@gObjCalcML:

; 1984 : 		}
; 1985 : 	}
; 1986 : 
; 1987 : 	if( lpObj->m_MPSkillOpt.MpsShieldMastery2 > 0.0f )

  00595	f3 0f 10 86 50
	07 00 00	 movss	 xmm0, DWORD PTR [esi+1872]
  0059d	0f 2f c1	 comiss	 xmm0, xmm1
  005a0	76 38		 jbe	 SHORT $LN44@gObjCalcML

; 1988 : 	{
; 1989 : 		if( lpObj->pInventory[0].GetDetailItemType() != 6 &&

  005a2	8b 8e c0 11 00
	00		 mov	 ecx, DWORD PTR [esi+4544]
  005a8	e8 00 00 00 00	 call	 ?GetDetailItemType@CItem@@QAEHXZ ; CItem::GetDetailItemType
  005ad	83 f8 06	 cmp	 eax, 6
  005b0	74 25		 je	 SHORT $LN139@gObjCalcML
  005b2	8b 8e c0 11 00
	00		 mov	 ecx, DWORD PTR [esi+4544]
  005b8	81 c1 d4 00 00
	00		 add	 ecx, 212		; 000000d4H
  005be	e8 00 00 00 00	 call	 ?GetDetailItemType@CItem@@QAEHXZ ; CItem::GetDetailItemType
  005c3	0f 57 c9	 xorps	 xmm1, xmm1
  005c6	83 f8 06	 cmp	 eax, 6
  005c9	74 0f		 je	 SHORT $LN44@gObjCalcML

; 1990 : 			lpObj->pInventory[1].GetDetailItemType() != 6 )
; 1991 : 		{
; 1992 : 			lpObj->m_MPSkillOpt.MpsShieldMastery2 = 0;

  005cb	c7 86 50 07 00
	00 00 00 00 00	 mov	 DWORD PTR [esi+1872], 0
  005d5	eb 03		 jmp	 SHORT $LN44@gObjCalcML
$LN139@gObjCalcML:
  005d7	0f 57 c9	 xorps	 xmm1, xmm1
$LN44@gObjCalcML:

; 1993 : 		}
; 1994 : 	}
; 1995 : 
; 1996 : 	if( lpObj->m_MPSkillOpt.MpsShieldMastery3 > 0.0f )

  005da	f3 0f 10 86 c0
	07 00 00	 movss	 xmm0, DWORD PTR [esi+1984]
  005e2	0f 2f c1	 comiss	 xmm0, xmm1
  005e5	76 38		 jbe	 SHORT $LN46@gObjCalcML

; 1997 : 	{
; 1998 : 		if( lpObj->pInventory[0].GetDetailItemType() != 6 &&

  005e7	8b 8e c0 11 00
	00		 mov	 ecx, DWORD PTR [esi+4544]
  005ed	e8 00 00 00 00	 call	 ?GetDetailItemType@CItem@@QAEHXZ ; CItem::GetDetailItemType
  005f2	83 f8 06	 cmp	 eax, 6
  005f5	74 25		 je	 SHORT $LN137@gObjCalcML
  005f7	8b 8e c0 11 00
	00		 mov	 ecx, DWORD PTR [esi+4544]
  005fd	81 c1 d4 00 00
	00		 add	 ecx, 212		; 000000d4H
  00603	e8 00 00 00 00	 call	 ?GetDetailItemType@CItem@@QAEHXZ ; CItem::GetDetailItemType
  00608	0f 57 c9	 xorps	 xmm1, xmm1
  0060b	83 f8 06	 cmp	 eax, 6
  0060e	74 0f		 je	 SHORT $LN46@gObjCalcML

; 1999 : 			lpObj->pInventory[1].GetDetailItemType() != 6 )
; 2000 : 		{
; 2001 : 			lpObj->m_MPSkillOpt.MpsShieldMastery3 = 0;

  00610	c7 86 c0 07 00
	00 00 00 00 00	 mov	 DWORD PTR [esi+1984], 0
  0061a	eb 03		 jmp	 SHORT $LN46@gObjCalcML
$LN137@gObjCalcML:
  0061c	0f 57 c9	 xorps	 xmm1, xmm1
$LN46@gObjCalcML:

; 2002 : 		}
; 2003 : 	}
; 2004 : 
; 2005 : 	if( lpObj->m_MPSkillOpt.MpsOneHandSwordMastery > 0.0f )

  0061f	f3 0f 10 86 0c
	07 00 00	 movss	 xmm0, DWORD PTR [esi+1804]
  00627	0f 2f c1	 comiss	 xmm0, xmm1
  0062a	76 63		 jbe	 SHORT $LN48@gObjCalcML

; 2006 : 	{
; 2007 : 		if( lpObj->pInventory[0].GetDetailItemType() == 1 ||

  0062c	8b 8e c0 11 00
	00		 mov	 ecx, DWORD PTR [esi+4544]
  00632	e8 00 00 00 00	 call	 ?GetDetailItemType@CItem@@QAEHXZ ; CItem::GetDetailItemType
  00637	83 f8 01	 cmp	 eax, 1
  0063a	74 16		 je	 SHORT $LN49@gObjCalcML
  0063c	8b 8e c0 11 00
	00		 mov	 ecx, DWORD PTR [esi+4544]
  00642	81 c1 d4 00 00
	00		 add	 ecx, 212		; 000000d4H
  00648	e8 00 00 00 00	 call	 ?GetDetailItemType@CItem@@QAEHXZ ; CItem::GetDetailItemType
  0064d	83 f8 01	 cmp	 eax, 1
  00650	75 3a		 jne	 SHORT $LN135@gObjCalcML
$LN49@gObjCalcML:
  00652	66 0f 6e 86 6c
	06 00 00	 movd	 xmm0, DWORD PTR [esi+1644]

; 2008 : 			lpObj->pInventory[1].GetDetailItemType() == 1 )
; 2009 : 		{
; 2010 : 			lpObj->m_AttackSpeed += lpObj->m_MPSkillOpt.MpsOneHandSwordMastery;

  0065a	f3 0f 10 8e 0c
	07 00 00	 movss	 xmm1, DWORD PTR [esi+1804]
  00662	0f 5b c0	 cvtdq2ps xmm0, xmm0
  00665	f3 0f 58 c1	 addss	 xmm0, xmm1
  00669	f3 0f 2c c0	 cvttss2si eax, xmm0
  0066d	66 0f 6e 86 70
	06 00 00	 movd	 xmm0, DWORD PTR [esi+1648]

; 2011 : 			lpObj->m_MagicSpeed += lpObj->m_MPSkillOpt.MpsOneHandSwordMastery;

  00675	0f 5b c0	 cvtdq2ps xmm0, xmm0
  00678	89 86 6c 06 00
	00		 mov	 DWORD PTR [esi+1644], eax
  0067e	f3 0f 58 c1	 addss	 xmm0, xmm1
  00682	f3 0f 2c c0	 cvttss2si eax, xmm0
  00686	89 86 70 06 00
	00		 mov	 DWORD PTR [esi+1648], eax
$LN135@gObjCalcML:
  0068c	0f 57 c9	 xorps	 xmm1, xmm1
$LN48@gObjCalcML:

; 2012 : 		}
; 2013 : 	}
; 2014 : 
; 2015 : 	if( lpObj->m_MPSkillOpt.MpsOneHandSwordStrength > 0.0f )

  0068f	f3 0f 10 86 fc
	06 00 00	 movss	 xmm0, DWORD PTR [esi+1788]
  00697	0f 2f c1	 comiss	 xmm0, xmm1
  0069a	76 38		 jbe	 SHORT $LN51@gObjCalcML

; 2016 : 	{
; 2017 : 		if( lpObj->pInventory[0].GetDetailItemType() != 1 &&

  0069c	8b 8e c0 11 00
	00		 mov	 ecx, DWORD PTR [esi+4544]
  006a2	e8 00 00 00 00	 call	 ?GetDetailItemType@CItem@@QAEHXZ ; CItem::GetDetailItemType
  006a7	83 f8 01	 cmp	 eax, 1
  006aa	74 25		 je	 SHORT $LN134@gObjCalcML
  006ac	8b 8e c0 11 00
	00		 mov	 ecx, DWORD PTR [esi+4544]
  006b2	81 c1 d4 00 00
	00		 add	 ecx, 212		; 000000d4H
  006b8	e8 00 00 00 00	 call	 ?GetDetailItemType@CItem@@QAEHXZ ; CItem::GetDetailItemType
  006bd	0f 57 c9	 xorps	 xmm1, xmm1
  006c0	83 f8 01	 cmp	 eax, 1
  006c3	74 0f		 je	 SHORT $LN51@gObjCalcML

; 2018 : 			lpObj->pInventory[1].GetDetailItemType() != 1 )
; 2019 : 		{
; 2020 : 			lpObj->m_MPSkillOpt.MpsOneHandSwordStrength = 0;

  006c5	c7 86 fc 06 00
	00 00 00 00 00	 mov	 DWORD PTR [esi+1788], 0
  006cf	eb 03		 jmp	 SHORT $LN51@gObjCalcML
$LN134@gObjCalcML:
  006d1	0f 57 c9	 xorps	 xmm1, xmm1
$LN51@gObjCalcML:

; 2021 : 		}
; 2022 : 	}
; 2023 : 
; 2024 : 	if( lpObj->m_MPSkillOpt.MpsMaceStrength > 0.0f )

  006d4	f3 0f 10 86 00
	07 00 00	 movss	 xmm0, DWORD PTR [esi+1792]
  006dc	0f 2f c1	 comiss	 xmm0, xmm1
  006df	76 38		 jbe	 SHORT $LN53@gObjCalcML

; 2025 : 	{
; 2026 : 		if( lpObj->pInventory[0].GetDetailItemType() != 2 &&

  006e1	8b 8e c0 11 00
	00		 mov	 ecx, DWORD PTR [esi+4544]
  006e7	e8 00 00 00 00	 call	 ?GetDetailItemType@CItem@@QAEHXZ ; CItem::GetDetailItemType
  006ec	83 f8 02	 cmp	 eax, 2
  006ef	74 25		 je	 SHORT $LN132@gObjCalcML
  006f1	8b 8e c0 11 00
	00		 mov	 ecx, DWORD PTR [esi+4544]
  006f7	81 c1 d4 00 00
	00		 add	 ecx, 212		; 000000d4H
  006fd	e8 00 00 00 00	 call	 ?GetDetailItemType@CItem@@QAEHXZ ; CItem::GetDetailItemType
  00702	0f 57 c9	 xorps	 xmm1, xmm1
  00705	83 f8 02	 cmp	 eax, 2
  00708	74 0f		 je	 SHORT $LN53@gObjCalcML

; 2027 : 			lpObj->pInventory[1].GetDetailItemType() != 2 )
; 2028 : 		{
; 2029 : 			lpObj->m_MPSkillOpt.MpsMaceStrength = 0;

  0070a	c7 86 00 07 00
	00 00 00 00 00	 mov	 DWORD PTR [esi+1792], 0
  00714	eb 03		 jmp	 SHORT $LN53@gObjCalcML
$LN132@gObjCalcML:
  00716	0f 57 c9	 xorps	 xmm1, xmm1
$LN53@gObjCalcML:

; 2030 : 		}
; 2031 : 	}
; 2032 : 
; 2033 : 	if( lpObj->m_MPSkillOpt.MpsMaceMastery > 0.0f )

  00719	f3 0f 10 86 18
	07 00 00	 movss	 xmm0, DWORD PTR [esi+1816]
  00721	0f 2f c1	 comiss	 xmm0, xmm1
  00724	76 38		 jbe	 SHORT $LN55@gObjCalcML

; 2034 : 	{
; 2035 : 		if( lpObj->pInventory[0].GetDetailItemType() != 2 &&

  00726	8b 8e c0 11 00
	00		 mov	 ecx, DWORD PTR [esi+4544]
  0072c	e8 00 00 00 00	 call	 ?GetDetailItemType@CItem@@QAEHXZ ; CItem::GetDetailItemType
  00731	83 f8 02	 cmp	 eax, 2
  00734	74 25		 je	 SHORT $LN130@gObjCalcML
  00736	8b 8e c0 11 00
	00		 mov	 ecx, DWORD PTR [esi+4544]
  0073c	81 c1 d4 00 00
	00		 add	 ecx, 212		; 000000d4H
  00742	e8 00 00 00 00	 call	 ?GetDetailItemType@CItem@@QAEHXZ ; CItem::GetDetailItemType
  00747	0f 57 c9	 xorps	 xmm1, xmm1
  0074a	83 f8 02	 cmp	 eax, 2
  0074d	74 0f		 je	 SHORT $LN55@gObjCalcML

; 2036 : 			lpObj->pInventory[1].GetDetailItemType() != 2 )
; 2037 : 		{
; 2038 : 			lpObj->m_MPSkillOpt.MpsMaceMastery = 0;

  0074f	c7 86 18 07 00
	00 00 00 00 00	 mov	 DWORD PTR [esi+1816], 0
  00759	eb 03		 jmp	 SHORT $LN55@gObjCalcML
$LN130@gObjCalcML:
  0075b	0f 57 c9	 xorps	 xmm1, xmm1
$LN55@gObjCalcML:

; 2039 : 		}
; 2040 : 	}
; 2041 : 
; 2042 : 	if( lpObj->m_MPSkillOpt.MpsSpearStrength > 0.0f )

  0075e	f3 0f 10 86 04
	07 00 00	 movss	 xmm0, DWORD PTR [esi+1796]
  00766	0f 2f c1	 comiss	 xmm0, xmm1
  00769	76 38		 jbe	 SHORT $LN57@gObjCalcML

; 2043 : 	{
; 2044 : 		if( lpObj->pInventory[0].GetDetailItemType() != 3 &&

  0076b	8b 8e c0 11 00
	00		 mov	 ecx, DWORD PTR [esi+4544]
  00771	e8 00 00 00 00	 call	 ?GetDetailItemType@CItem@@QAEHXZ ; CItem::GetDetailItemType
  00776	83 f8 03	 cmp	 eax, 3
  00779	74 25		 je	 SHORT $LN128@gObjCalcML
  0077b	8b 8e c0 11 00
	00		 mov	 ecx, DWORD PTR [esi+4544]
  00781	81 c1 d4 00 00
	00		 add	 ecx, 212		; 000000d4H
  00787	e8 00 00 00 00	 call	 ?GetDetailItemType@CItem@@QAEHXZ ; CItem::GetDetailItemType
  0078c	0f 57 c9	 xorps	 xmm1, xmm1
  0078f	83 f8 03	 cmp	 eax, 3
  00792	74 0f		 je	 SHORT $LN57@gObjCalcML

; 2045 : 			lpObj->pInventory[1].GetDetailItemType() != 3 )
; 2046 : 		{
; 2047 : 			lpObj->m_MPSkillOpt.MpsSpearStrength = 0;

  00794	c7 86 04 07 00
	00 00 00 00 00	 mov	 DWORD PTR [esi+1796], 0
  0079e	eb 03		 jmp	 SHORT $LN57@gObjCalcML
$LN128@gObjCalcML:
  007a0	0f 57 c9	 xorps	 xmm1, xmm1
$LN57@gObjCalcML:

; 2048 : 		}
; 2049 : 	}
; 2050 : 
; 2051 : 	if( lpObj->m_MPSkillOpt.MpsSpearMastery > 0.0f )

  007a3	f3 0f 10 86 14
	07 00 00	 movss	 xmm0, DWORD PTR [esi+1812]
  007ab	0f 2f c1	 comiss	 xmm0, xmm1
  007ae	76 38		 jbe	 SHORT $LN59@gObjCalcML

; 2052 : 	{
; 2053 : 		if( lpObj->pInventory[0].GetDetailItemType() != 3 &&

  007b0	8b 8e c0 11 00
	00		 mov	 ecx, DWORD PTR [esi+4544]
  007b6	e8 00 00 00 00	 call	 ?GetDetailItemType@CItem@@QAEHXZ ; CItem::GetDetailItemType
  007bb	83 f8 03	 cmp	 eax, 3
  007be	74 25		 je	 SHORT $LN126@gObjCalcML
  007c0	8b 8e c0 11 00
	00		 mov	 ecx, DWORD PTR [esi+4544]
  007c6	81 c1 d4 00 00
	00		 add	 ecx, 212		; 000000d4H
  007cc	e8 00 00 00 00	 call	 ?GetDetailItemType@CItem@@QAEHXZ ; CItem::GetDetailItemType
  007d1	0f 57 c9	 xorps	 xmm1, xmm1
  007d4	83 f8 03	 cmp	 eax, 3
  007d7	74 0f		 je	 SHORT $LN59@gObjCalcML

; 2054 : 			lpObj->pInventory[1].GetDetailItemType() != 3 )
; 2055 : 		{
; 2056 : 			lpObj->m_MPSkillOpt.MpsSpearMastery = 0;

  007d9	c7 86 14 07 00
	00 00 00 00 00	 mov	 DWORD PTR [esi+1812], 0
  007e3	eb 03		 jmp	 SHORT $LN59@gObjCalcML
$LN126@gObjCalcML:
  007e5	0f 57 c9	 xorps	 xmm1, xmm1
$LN59@gObjCalcML:

; 2057 : 		}
; 2058 : 	}
; 2059 : 
; 2060 : 	if( lpObj->m_MPSkillOpt.MpsBowStrength > 0.0f )

  007e8	f3 0f 10 86 3c
	07 00 00	 movss	 xmm0, DWORD PTR [esi+1852]
  007f0	0f 2f c1	 comiss	 xmm0, xmm1
  007f3	76 38		 jbe	 SHORT $LN61@gObjCalcML

; 2061 : 	{
; 2062 : 		if( lpObj->pInventory[0].GetDetailItemType() != 7 &&

  007f5	8b 8e c0 11 00
	00		 mov	 ecx, DWORD PTR [esi+4544]
  007fb	e8 00 00 00 00	 call	 ?GetDetailItemType@CItem@@QAEHXZ ; CItem::GetDetailItemType
  00800	83 f8 07	 cmp	 eax, 7
  00803	74 25		 je	 SHORT $LN124@gObjCalcML
  00805	8b 8e c0 11 00
	00		 mov	 ecx, DWORD PTR [esi+4544]
  0080b	81 c1 d4 00 00
	00		 add	 ecx, 212		; 000000d4H
  00811	e8 00 00 00 00	 call	 ?GetDetailItemType@CItem@@QAEHXZ ; CItem::GetDetailItemType
  00816	0f 57 c9	 xorps	 xmm1, xmm1
  00819	83 f8 07	 cmp	 eax, 7
  0081c	74 0f		 je	 SHORT $LN61@gObjCalcML

; 2063 : 			lpObj->pInventory[1].GetDetailItemType() != 7 )
; 2064 : 		{
; 2065 : 			lpObj->m_MPSkillOpt.MpsBowStrength = 0;

  0081e	c7 86 3c 07 00
	00 00 00 00 00	 mov	 DWORD PTR [esi+1852], 0
  00828	eb 03		 jmp	 SHORT $LN61@gObjCalcML
$LN124@gObjCalcML:
  0082a	0f 57 c9	 xorps	 xmm1, xmm1
$LN61@gObjCalcML:

; 2066 : 		}
; 2067 : 	}
; 2068 : 
; 2069 : 	if( lpObj->m_MPSkillOpt.MpsScepterStrength > 0.0f )

  0082d	f3 0f 10 86 b4
	07 00 00	 movss	 xmm0, DWORD PTR [esi+1972]
  00835	0f 2f c1	 comiss	 xmm0, xmm1
  00838	76 38		 jbe	 SHORT $LN63@gObjCalcML

; 2070 : 	{
; 2071 : 		if( lpObj->pInventory[0].GetDetailItemType() != 11 &&

  0083a	8b 8e c0 11 00
	00		 mov	 ecx, DWORD PTR [esi+4544]
  00840	e8 00 00 00 00	 call	 ?GetDetailItemType@CItem@@QAEHXZ ; CItem::GetDetailItemType
  00845	83 f8 0b	 cmp	 eax, 11			; 0000000bH
  00848	74 25		 je	 SHORT $LN122@gObjCalcML
  0084a	8b 8e c0 11 00
	00		 mov	 ecx, DWORD PTR [esi+4544]
  00850	81 c1 d4 00 00
	00		 add	 ecx, 212		; 000000d4H
  00856	e8 00 00 00 00	 call	 ?GetDetailItemType@CItem@@QAEHXZ ; CItem::GetDetailItemType
  0085b	0f 57 c9	 xorps	 xmm1, xmm1
  0085e	83 f8 0b	 cmp	 eax, 11			; 0000000bH
  00861	74 0f		 je	 SHORT $LN63@gObjCalcML

; 2072 : 			lpObj->pInventory[1].GetDetailItemType() != 11 )
; 2073 : 		{
; 2074 : 			lpObj->m_MPSkillOpt.MpsScepterStrength = 0;

  00863	c7 86 b4 07 00
	00 00 00 00 00	 mov	 DWORD PTR [esi+1972], 0
  0086d	eb 03		 jmp	 SHORT $LN63@gObjCalcML
$LN122@gObjCalcML:
  0086f	0f 57 c9	 xorps	 xmm1, xmm1
$LN63@gObjCalcML:

; 2075 : 		}
; 2076 : 	}
; 2077 : 
; 2078 : 	if( lpObj->m_MPSkillOpt.MpsUseScepterPetStr > 0.0f )

  00872	f3 0f 10 86 c4
	07 00 00	 movss	 xmm0, DWORD PTR [esi+1988]
  0087a	0f 2f c1	 comiss	 xmm0, xmm1
  0087d	76 38		 jbe	 SHORT $LN65@gObjCalcML

; 2079 : 	{
; 2080 : 		if( lpObj->pInventory[0].GetDetailItemType() != 11 &&

  0087f	8b 8e c0 11 00
	00		 mov	 ecx, DWORD PTR [esi+4544]
  00885	e8 00 00 00 00	 call	 ?GetDetailItemType@CItem@@QAEHXZ ; CItem::GetDetailItemType
  0088a	83 f8 0b	 cmp	 eax, 11			; 0000000bH
  0088d	74 25		 je	 SHORT $LN120@gObjCalcML
  0088f	8b 8e c0 11 00
	00		 mov	 ecx, DWORD PTR [esi+4544]
  00895	81 c1 d4 00 00
	00		 add	 ecx, 212		; 000000d4H
  0089b	e8 00 00 00 00	 call	 ?GetDetailItemType@CItem@@QAEHXZ ; CItem::GetDetailItemType
  008a0	0f 57 c9	 xorps	 xmm1, xmm1
  008a3	83 f8 0b	 cmp	 eax, 11			; 0000000bH
  008a6	74 0f		 je	 SHORT $LN65@gObjCalcML

; 2081 : 			lpObj->pInventory[1].GetDetailItemType() != 11 )
; 2082 : 		{
; 2083 : 			lpObj->m_MPSkillOpt.MpsUseScepterPetStr = 0;

  008a8	c7 86 c4 07 00
	00 00 00 00 00	 mov	 DWORD PTR [esi+1988], 0
  008b2	eb 03		 jmp	 SHORT $LN65@gObjCalcML
$LN120@gObjCalcML:
  008b4	0f 57 c9	 xorps	 xmm1, xmm1
$LN65@gObjCalcML:

; 2084 : 		}
; 2085 : 	}
; 2086 : 
; 2087 : 	if( lpObj->m_MPSkillOpt.MpsCommandAttackInc > 0.0f )

  008b7	f3 0f 10 86 c8
	07 00 00	 movss	 xmm0, DWORD PTR [esi+1992]
  008bf	0f 2f c1	 comiss	 xmm0, xmm1
  008c2	76 38		 jbe	 SHORT $LN67@gObjCalcML

; 2088 : 	{
; 2089 : 		if( lpObj->pInventory[0].GetDetailItemType() != 11 &&

  008c4	8b 8e c0 11 00
	00		 mov	 ecx, DWORD PTR [esi+4544]
  008ca	e8 00 00 00 00	 call	 ?GetDetailItemType@CItem@@QAEHXZ ; CItem::GetDetailItemType
  008cf	83 f8 0b	 cmp	 eax, 11			; 0000000bH
  008d2	74 25		 je	 SHORT $LN118@gObjCalcML
  008d4	8b 8e c0 11 00
	00		 mov	 ecx, DWORD PTR [esi+4544]
  008da	81 c1 d4 00 00
	00		 add	 ecx, 212		; 000000d4H
  008e0	e8 00 00 00 00	 call	 ?GetDetailItemType@CItem@@QAEHXZ ; CItem::GetDetailItemType
  008e5	0f 57 c9	 xorps	 xmm1, xmm1
  008e8	83 f8 0b	 cmp	 eax, 11			; 0000000bH
  008eb	74 0f		 je	 SHORT $LN67@gObjCalcML

; 2090 : 			lpObj->pInventory[1].GetDetailItemType() != 11 )
; 2091 : 		{
; 2092 : 			lpObj->m_MPSkillOpt.MpsCommandAttackInc = 0;

  008ed	c7 86 c8 07 00
	00 00 00 00 00	 mov	 DWORD PTR [esi+1992], 0
  008f7	eb 03		 jmp	 SHORT $LN67@gObjCalcML
$LN118@gObjCalcML:
  008f9	0f 57 c9	 xorps	 xmm1, xmm1
$LN67@gObjCalcML:

; 2093 : 		}
; 2094 : 	}
; 2095 : 
; 2096 : 	if( lpObj->m_MPSkillOpt.MpsBowMastery > 0.0f )

  008fc	f3 0f 10 86 40
	07 00 00	 movss	 xmm0, DWORD PTR [esi+1856]
  00904	0f 2f c1	 comiss	 xmm0, xmm1
  00907	76 63		 jbe	 SHORT $LN69@gObjCalcML

; 2097 : 	{
; 2098 : 		if( lpObj->pInventory[0].GetDetailItemType() == 7 ||

  00909	8b 8e c0 11 00
	00		 mov	 ecx, DWORD PTR [esi+4544]
  0090f	e8 00 00 00 00	 call	 ?GetDetailItemType@CItem@@QAEHXZ ; CItem::GetDetailItemType
  00914	83 f8 07	 cmp	 eax, 7
  00917	74 16		 je	 SHORT $LN70@gObjCalcML
  00919	8b 8e c0 11 00
	00		 mov	 ecx, DWORD PTR [esi+4544]
  0091f	81 c1 d4 00 00
	00		 add	 ecx, 212		; 000000d4H
  00925	e8 00 00 00 00	 call	 ?GetDetailItemType@CItem@@QAEHXZ ; CItem::GetDetailItemType
  0092a	83 f8 07	 cmp	 eax, 7
  0092d	75 3a		 jne	 SHORT $LN116@gObjCalcML
$LN70@gObjCalcML:
  0092f	66 0f 6e 86 6c
	06 00 00	 movd	 xmm0, DWORD PTR [esi+1644]

; 2099 : 			lpObj->pInventory[1].GetDetailItemType() == 7 )
; 2100 : 		{
; 2101 : 			lpObj->m_AttackSpeed += lpObj->m_MPSkillOpt.MpsBowMastery;

  00937	f3 0f 10 8e 40
	07 00 00	 movss	 xmm1, DWORD PTR [esi+1856]
  0093f	0f 5b c0	 cvtdq2ps xmm0, xmm0
  00942	f3 0f 58 c1	 addss	 xmm0, xmm1
  00946	f3 0f 2c c0	 cvttss2si eax, xmm0
  0094a	66 0f 6e 86 70
	06 00 00	 movd	 xmm0, DWORD PTR [esi+1648]

; 2102 : 			lpObj->m_MagicSpeed += lpObj->m_MPSkillOpt.MpsBowMastery;

  00952	0f 5b c0	 cvtdq2ps xmm0, xmm0
  00955	89 86 6c 06 00
	00		 mov	 DWORD PTR [esi+1644], eax
  0095b	f3 0f 58 c1	 addss	 xmm0, xmm1
  0095f	f3 0f 2c c0	 cvttss2si eax, xmm0
  00963	89 86 70 06 00
	00		 mov	 DWORD PTR [esi+1648], eax
$LN116@gObjCalcML:
  00969	0f 57 c9	 xorps	 xmm1, xmm1
$LN69@gObjCalcML:

; 2103 : 		}
; 2104 : 	}
; 2105 : 
; 2106 : 	if( lpObj->m_MPSkillOpt.MpsCrossbowStrength > 0.0f )

  0096c	f3 0f 10 86 44
	07 00 00	 movss	 xmm0, DWORD PTR [esi+1860]
  00974	0f 2f c1	 comiss	 xmm0, xmm1
  00977	76 30		 jbe	 SHORT $LN72@gObjCalcML

; 2107 : 	{
; 2108 : 		if( lpObj->pInventory[0].GetDetailItemType() != 8 &&

  00979	8b 8e c0 11 00
	00		 mov	 ecx, DWORD PTR [esi+4544]
  0097f	e8 00 00 00 00	 call	 ?GetDetailItemType@CItem@@QAEHXZ ; CItem::GetDetailItemType
  00984	83 f8 08	 cmp	 eax, 8
  00987	74 20		 je	 SHORT $LN72@gObjCalcML
  00989	8b 8e c0 11 00
	00		 mov	 ecx, DWORD PTR [esi+4544]
  0098f	81 c1 d4 00 00
	00		 add	 ecx, 212		; 000000d4H
  00995	e8 00 00 00 00	 call	 ?GetDetailItemType@CItem@@QAEHXZ ; CItem::GetDetailItemType
  0099a	83 f8 08	 cmp	 eax, 8
  0099d	74 0a		 je	 SHORT $LN72@gObjCalcML

; 2109 : 			lpObj->pInventory[1].GetDetailItemType() != 8 )
; 2110 : 		{
; 2111 : 			lpObj->m_MPSkillOpt.MpsCrossbowStrength = 0;

  0099f	c7 86 44 07 00
	00 00 00 00 00	 mov	 DWORD PTR [esi+1860], 0
$LN72@gObjCalcML:

; 2112 : 		}
; 2113 : 	}
; 2114 : 
; 2115 : 	if( lpObj->m_MPSkillOpt.MpsDarkHorseStrength > 0.0f )

  009a9	f3 0f 10 8e a0
	07 00 00	 movss	 xmm1, DWORD PTR [esi+1952]
  009b1	0f 57 c0	 xorps	 xmm0, xmm0
  009b4	0f 2f c8	 comiss	 xmm1, xmm0
  009b7	76 2d		 jbe	 SHORT $LN74@gObjCalcML

; 2116 : 	{
; 2117 : 		if( lpObj->pInventory[8].m_Type == ITEMGET(13,4) )

  009b9	8b 86 c0 11 00
	00		 mov	 eax, DWORD PTR [esi+4544]
  009bf	b9 04 1a 00 00	 mov	 ecx, 6660		; 00001a04H
  009c4	66 39 88 a6 06
	00 00		 cmp	 WORD PTR [eax+1702], cx
  009cb	75 19		 jne	 SHORT $LN74@gObjCalcML

; 2118 : 		{
; 2119 : 			lpObj->m_Defense += lpObj->m_MPSkillOpt.MpsDarkHorseStrength;

  009cd	66 0f 6e 86 74
	06 00 00	 movd	 xmm0, DWORD PTR [esi+1652]
  009d5	0f 5b c0	 cvtdq2ps xmm0, xmm0
  009d8	f3 0f 58 c1	 addss	 xmm0, xmm1
  009dc	f3 0f 2c c0	 cvttss2si eax, xmm0
  009e0	89 86 74 06 00
	00		 mov	 DWORD PTR [esi+1652], eax
$LN74@gObjCalcML:

; 2120 : 		}
; 2121 : 	}
; 2122 : 
; 2123 : 	if( lpObj->m_MPSkillOpt.MpsFistStrength > 0.0f )

  009e6	f3 0f 10 86 24
	08 00 00	 movss	 xmm0, DWORD PTR [esi+2084]
  009ee	0f 57 c9	 xorps	 xmm1, xmm1
  009f1	0f 2f c1	 comiss	 xmm0, xmm1
  009f4	76 38		 jbe	 SHORT $LN76@gObjCalcML

; 2124 : 	{
; 2125 : 		if( lpObj->pInventory[0].GetDetailItemType() != 12 &&

  009f6	8b 8e c0 11 00
	00		 mov	 ecx, DWORD PTR [esi+4544]
  009fc	e8 00 00 00 00	 call	 ?GetDetailItemType@CItem@@QAEHXZ ; CItem::GetDetailItemType
  00a01	83 f8 0c	 cmp	 eax, 12			; 0000000cH
  00a04	74 25		 je	 SHORT $LN172@gObjCalcML
  00a06	8b 8e c0 11 00
	00		 mov	 ecx, DWORD PTR [esi+4544]
  00a0c	81 c1 d4 00 00
	00		 add	 ecx, 212		; 000000d4H
  00a12	e8 00 00 00 00	 call	 ?GetDetailItemType@CItem@@QAEHXZ ; CItem::GetDetailItemType
  00a17	0f 57 c9	 xorps	 xmm1, xmm1
  00a1a	83 f8 0c	 cmp	 eax, 12			; 0000000cH
  00a1d	74 0f		 je	 SHORT $LN76@gObjCalcML

; 2126 : 			lpObj->pInventory[1].GetDetailItemType() != 12 )
; 2127 : 		{
; 2128 : 			lpObj->m_MPSkillOpt.MpsFistStrength = 0;

  00a1f	c7 86 24 08 00
	00 00 00 00 00	 mov	 DWORD PTR [esi+2084], 0
  00a29	eb 03		 jmp	 SHORT $LN76@gObjCalcML
$LN172@gObjCalcML:
  00a2b	0f 57 c9	 xorps	 xmm1, xmm1
$LN76@gObjCalcML:

; 2129 : 		}
; 2130 : 	}
; 2131 : 
; 2132 : 	if( lpObj->m_MPSkillOpt.MpsFistMastery > 0.0f )

  00a2e	f3 0f 10 86 28
	08 00 00	 movss	 xmm0, DWORD PTR [esi+2088]
  00a36	0f 2f c1	 comiss	 xmm0, xmm1
  00a39	76 38		 jbe	 SHORT $LN78@gObjCalcML

; 2133 : 	{
; 2134 : 		if( lpObj->pInventory[0].GetDetailItemType() != 12 &&

  00a3b	8b 8e c0 11 00
	00		 mov	 ecx, DWORD PTR [esi+4544]
  00a41	e8 00 00 00 00	 call	 ?GetDetailItemType@CItem@@QAEHXZ ; CItem::GetDetailItemType
  00a46	83 f8 0c	 cmp	 eax, 12			; 0000000cH
  00a49	74 25		 je	 SHORT $LN170@gObjCalcML
  00a4b	8b 8e c0 11 00
	00		 mov	 ecx, DWORD PTR [esi+4544]
  00a51	81 c1 d4 00 00
	00		 add	 ecx, 212		; 000000d4H
  00a57	e8 00 00 00 00	 call	 ?GetDetailItemType@CItem@@QAEHXZ ; CItem::GetDetailItemType
  00a5c	0f 57 c9	 xorps	 xmm1, xmm1
  00a5f	83 f8 0c	 cmp	 eax, 12			; 0000000cH
  00a62	74 0f		 je	 SHORT $LN78@gObjCalcML

; 2135 : 			lpObj->pInventory[1].GetDetailItemType() != 12 )
; 2136 : 		{
; 2137 : 			lpObj->m_MPSkillOpt.MpsFistMastery = 0;

  00a64	c7 86 28 08 00
	00 00 00 00 00	 mov	 DWORD PTR [esi+2088], 0
  00a6e	eb 03		 jmp	 SHORT $LN78@gObjCalcML
$LN170@gObjCalcML:
  00a70	0f 57 c9	 xorps	 xmm1, xmm1
$LN78@gObjCalcML:

; 2138 : 		}
; 2139 : 	}
; 2140 : 
; 2141 : 	if( lpObj->m_MPSkillOpt.MpsWingDefenseIncrease > 0.0f )

  00a73	f3 0f 10 86 48
	08 00 00	 movss	 xmm0, DWORD PTR [esi+2120]
  00a7b	0f 2f c1	 comiss	 xmm0, xmm1
  00a7e	0f 86 b9 00 00
	00		 jbe	 $LN96@gObjCalcML

; 2142 : 	{
; 2143 : 		if( lpObj->Class == CLASS_KNIGHT )

  00a84	0f b7 86 90 00
	00 00		 movzx	 eax, WORD PTR [esi+144]
  00a8b	83 f8 01	 cmp	 eax, 1
  00a8e	75 19		 jne	 SHORT $LN80@gObjCalcML

; 2144 : 		{
; 2145 : 			if( lpObj->pInventory[7].GetDetailItemType() != 20 )

  00a90	8b 8e c0 11 00
	00		 mov	 ecx, DWORD PTR [esi+4544]
  00a96	81 c1 cc 05 00
	00		 add	 ecx, 1484		; 000005ccH
  00a9c	e8 00 00 00 00	 call	 ?GetDetailItemType@CItem@@QAEHXZ ; CItem::GetDetailItemType
  00aa1	83 f8 14	 cmp	 eax, 20			; 00000014H

; 2146 : 			{
; 2147 : 				lpObj->m_MPSkillOpt.MpsWingDefenseIncrease = 0;
; 2148 : 			}
; 2149 : 		}

  00aa4	e9 85 00 00 00	 jmp	 $LN175@gObjCalcML
$LN80@gObjCalcML:

; 2150 : 		else if( lpObj->Class == CLASS_WIZARD )

  00aa9	66 85 c0	 test	 ax, ax
  00aac	75 16		 jne	 SHORT $LN83@gObjCalcML

; 2151 : 		{
; 2152 : 			if( lpObj->pInventory[7].GetDetailItemType() != 21 )

  00aae	8b 8e c0 11 00
	00		 mov	 ecx, DWORD PTR [esi+4544]
  00ab4	81 c1 cc 05 00
	00		 add	 ecx, 1484		; 000005ccH
  00aba	e8 00 00 00 00	 call	 ?GetDetailItemType@CItem@@QAEHXZ ; CItem::GetDetailItemType
  00abf	83 f8 15	 cmp	 eax, 21			; 00000015H

; 2153 : 			{
; 2154 : 				lpObj->m_MPSkillOpt.MpsWingDefenseIncrease = 0;
; 2155 : 			}
; 2156 : 		}

  00ac2	eb 6a		 jmp	 SHORT $LN175@gObjCalcML
$LN83@gObjCalcML:

; 2157 : 		else if( lpObj->Class == CLASS_ELF )

  00ac4	83 f8 02	 cmp	 eax, 2
  00ac7	75 16		 jne	 SHORT $LN86@gObjCalcML

; 2158 : 		{
; 2159 : 			if( lpObj->pInventory[7].GetDetailItemType() != 22 )

  00ac9	8b 8e c0 11 00
	00		 mov	 ecx, DWORD PTR [esi+4544]
  00acf	81 c1 cc 05 00
	00		 add	 ecx, 1484		; 000005ccH
  00ad5	e8 00 00 00 00	 call	 ?GetDetailItemType@CItem@@QAEHXZ ; CItem::GetDetailItemType
  00ada	83 f8 16	 cmp	 eax, 22			; 00000016H

; 2160 : 			{
; 2161 : 				lpObj->m_MPSkillOpt.MpsWingDefenseIncrease = 0;
; 2162 : 			}
; 2163 : 		}

  00add	eb 4f		 jmp	 SHORT $LN175@gObjCalcML
$LN86@gObjCalcML:

; 2164 : 		else if( lpObj->Class == CLASS_MAGUMSA )

  00adf	83 f8 03	 cmp	 eax, 3
  00ae2	75 16		 jne	 SHORT $LN89@gObjCalcML

; 2165 : 		{
; 2166 : 			if( lpObj->pInventory[7].GetDetailItemType() != 23 )

  00ae4	8b 8e c0 11 00
	00		 mov	 ecx, DWORD PTR [esi+4544]
  00aea	81 c1 cc 05 00
	00		 add	 ecx, 1484		; 000005ccH
  00af0	e8 00 00 00 00	 call	 ?GetDetailItemType@CItem@@QAEHXZ ; CItem::GetDetailItemType
  00af5	83 f8 17	 cmp	 eax, 23			; 00000017H

; 2167 : 			{
; 2168 : 				lpObj->m_MPSkillOpt.MpsWingDefenseIncrease = 0;
; 2169 : 			}
; 2170 : 		}

  00af8	eb 34		 jmp	 SHORT $LN175@gObjCalcML
$LN89@gObjCalcML:

; 2171 : 		else if( lpObj->Class == CLASS_DARKLORD )

  00afa	83 f8 04	 cmp	 eax, 4
  00afd	75 16		 jne	 SHORT $LN92@gObjCalcML

; 2172 : 		{
; 2173 : 			if( lpObj->pInventory[7].GetDetailItemType() != 24 )

  00aff	8b 8e c0 11 00
	00		 mov	 ecx, DWORD PTR [esi+4544]
  00b05	81 c1 cc 05 00
	00		 add	 ecx, 1484		; 000005ccH
  00b0b	e8 00 00 00 00	 call	 ?GetDetailItemType@CItem@@QAEHXZ ; CItem::GetDetailItemType
  00b10	83 f8 18	 cmp	 eax, 24			; 00000018H

; 2174 : 			{
; 2175 : 				lpObj->m_MPSkillOpt.MpsWingDefenseIncrease = 0;
; 2176 : 			}
; 2177 : 		}

  00b13	eb 19		 jmp	 SHORT $LN175@gObjCalcML
$LN92@gObjCalcML:

; 2178 : 		else if( lpObj->Class == CLASS_SUMMONER )

  00b15	83 f8 05	 cmp	 eax, 5
  00b18	75 23		 jne	 SHORT $LN96@gObjCalcML

; 2179 : 		{
; 2180 : 			if( lpObj->pInventory[7].GetDetailItemType() != 25 )

  00b1a	8b 8e c0 11 00
	00		 mov	 ecx, DWORD PTR [esi+4544]
  00b20	81 c1 cc 05 00
	00		 add	 ecx, 1484		; 000005ccH
  00b26	e8 00 00 00 00	 call	 ?GetDetailItemType@CItem@@QAEHXZ ; CItem::GetDetailItemType
  00b2b	83 f8 19	 cmp	 eax, 25			; 00000019H
$LN175@gObjCalcML:
  00b2e	0f 57 c9	 xorps	 xmm1, xmm1
  00b31	74 0a		 je	 SHORT $LN96@gObjCalcML

; 2181 : 			{
; 2182 : 				lpObj->m_MPSkillOpt.MpsWingDefenseIncrease = 0;

  00b33	c7 86 48 08 00
	00 00 00 00 00	 mov	 DWORD PTR [esi+2120], 0
$LN96@gObjCalcML:

; 2183 : 			}
; 2184 : 		}
; 2185 : 	}
; 2186 : 
; 2187 : 	if( lpObj->m_MPSkillOpt.MpsWingAttackIncrease > 0.0f )

  00b3d	f3 0f 10 86 4c
	08 00 00	 movss	 xmm0, DWORD PTR [esi+2124]
  00b45	0f 2f c1	 comiss	 xmm0, xmm1
  00b48	0f 86 b6 00 00
	00		 jbe	 $LN114@gObjCalcML

; 2188 : 	{
; 2189 : 		if( lpObj->Class == CLASS_KNIGHT )

  00b4e	0f b7 86 90 00
	00 00		 movzx	 eax, WORD PTR [esi+144]
  00b55	83 f8 01	 cmp	 eax, 1
  00b58	75 19		 jne	 SHORT $LN98@gObjCalcML

; 2190 : 		{
; 2191 : 			if( lpObj->pInventory[7].GetDetailItemType() != 20 )

  00b5a	8b 8e c0 11 00
	00		 mov	 ecx, DWORD PTR [esi+4544]
  00b60	81 c1 cc 05 00
	00		 add	 ecx, 1484		; 000005ccH
  00b66	e8 00 00 00 00	 call	 ?GetDetailItemType@CItem@@QAEHXZ ; CItem::GetDetailItemType
  00b6b	83 f8 14	 cmp	 eax, 20			; 00000014H

; 2192 : 			{
; 2193 : 				lpObj->m_MPSkillOpt.MpsWingAttackIncrease = 0;
; 2194 : 			}
; 2195 : 		}

  00b6e	e9 85 00 00 00	 jmp	 $LN174@gObjCalcML
$LN98@gObjCalcML:

; 2196 : 		else if( lpObj->Class == CLASS_WIZARD )

  00b73	66 85 c0	 test	 ax, ax
  00b76	75 16		 jne	 SHORT $LN101@gObjCalcML

; 2197 : 		{
; 2198 : 			if( lpObj->pInventory[7].GetDetailItemType() != 21 )

  00b78	8b 8e c0 11 00
	00		 mov	 ecx, DWORD PTR [esi+4544]
  00b7e	81 c1 cc 05 00
	00		 add	 ecx, 1484		; 000005ccH
  00b84	e8 00 00 00 00	 call	 ?GetDetailItemType@CItem@@QAEHXZ ; CItem::GetDetailItemType
  00b89	83 f8 15	 cmp	 eax, 21			; 00000015H

; 2199 : 			{
; 2200 : 				lpObj->m_MPSkillOpt.MpsWingAttackIncrease = 0;
; 2201 : 			}
; 2202 : 		}

  00b8c	eb 6a		 jmp	 SHORT $LN174@gObjCalcML
$LN101@gObjCalcML:

; 2203 : 		else if( lpObj->Class == CLASS_ELF )

  00b8e	83 f8 02	 cmp	 eax, 2
  00b91	75 16		 jne	 SHORT $LN104@gObjCalcML

; 2204 : 		{
; 2205 : 			if( lpObj->pInventory[7].GetDetailItemType() != 22 )

  00b93	8b 8e c0 11 00
	00		 mov	 ecx, DWORD PTR [esi+4544]
  00b99	81 c1 cc 05 00
	00		 add	 ecx, 1484		; 000005ccH
  00b9f	e8 00 00 00 00	 call	 ?GetDetailItemType@CItem@@QAEHXZ ; CItem::GetDetailItemType
  00ba4	83 f8 16	 cmp	 eax, 22			; 00000016H

; 2206 : 			{
; 2207 : 				lpObj->m_MPSkillOpt.MpsWingAttackIncrease = 0;
; 2208 : 			}
; 2209 : 		}

  00ba7	eb 4f		 jmp	 SHORT $LN174@gObjCalcML
$LN104@gObjCalcML:

; 2210 : 		else if( lpObj->Class == CLASS_MAGUMSA )

  00ba9	83 f8 03	 cmp	 eax, 3
  00bac	75 16		 jne	 SHORT $LN107@gObjCalcML

; 2211 : 		{
; 2212 : 			if( lpObj->pInventory[7].GetDetailItemType() != 23 )

  00bae	8b 8e c0 11 00
	00		 mov	 ecx, DWORD PTR [esi+4544]
  00bb4	81 c1 cc 05 00
	00		 add	 ecx, 1484		; 000005ccH
  00bba	e8 00 00 00 00	 call	 ?GetDetailItemType@CItem@@QAEHXZ ; CItem::GetDetailItemType
  00bbf	83 f8 17	 cmp	 eax, 23			; 00000017H

; 2213 : 			{
; 2214 : 				lpObj->m_MPSkillOpt.MpsWingAttackIncrease = 0;
; 2215 : 			}
; 2216 : 		}

  00bc2	eb 34		 jmp	 SHORT $LN174@gObjCalcML
$LN107@gObjCalcML:

; 2217 : 		else if( lpObj->Class == CLASS_DARKLORD )

  00bc4	83 f8 04	 cmp	 eax, 4
  00bc7	75 16		 jne	 SHORT $LN110@gObjCalcML

; 2218 : 		{
; 2219 : 			if( lpObj->pInventory[7].GetDetailItemType() != 24 )

  00bc9	8b 8e c0 11 00
	00		 mov	 ecx, DWORD PTR [esi+4544]
  00bcf	81 c1 cc 05 00
	00		 add	 ecx, 1484		; 000005ccH
  00bd5	e8 00 00 00 00	 call	 ?GetDetailItemType@CItem@@QAEHXZ ; CItem::GetDetailItemType
  00bda	83 f8 18	 cmp	 eax, 24			; 00000018H

; 2220 : 			{
; 2221 : 				lpObj->m_MPSkillOpt.MpsWingAttackIncrease = 0;
; 2222 : 			}
; 2223 : 		}

  00bdd	eb 19		 jmp	 SHORT $LN174@gObjCalcML
$LN110@gObjCalcML:

; 2224 : 		else if( lpObj->Class == CLASS_SUMMONER )

  00bdf	83 f8 05	 cmp	 eax, 5
  00be2	75 20		 jne	 SHORT $LN114@gObjCalcML

; 2225 : 		{
; 2226 : 			if( lpObj->pInventory[7].GetDetailItemType() != 25 )

  00be4	8b 8e c0 11 00
	00		 mov	 ecx, DWORD PTR [esi+4544]
  00bea	81 c1 cc 05 00
	00		 add	 ecx, 1484		; 000005ccH
  00bf0	e8 00 00 00 00	 call	 ?GetDetailItemType@CItem@@QAEHXZ ; CItem::GetDetailItemType
  00bf5	83 f8 19	 cmp	 eax, 25			; 00000019H
$LN174@gObjCalcML:
  00bf8	74 0a		 je	 SHORT $LN114@gObjCalcML

; 2227 : 			{
; 2228 : 				lpObj->m_MPSkillOpt.MpsWingAttackIncrease = 0;

  00bfa	c7 86 4c 08 00
	00 00 00 00 00	 mov	 DWORD PTR [esi+2124], 0
$LN114@gObjCalcML:
  00c04	5e		 pop	 esi

; 2229 : 			}
; 2230 : 		}
; 2231 : 	}
; 2232 : }

  00c05	5d		 pop	 ebp
  00c06	c3		 ret	 0
?gObjCalcMLSkillItemOption@@YAXPAUOBJECTSTRUCT@@@Z ENDP	; gObjCalcMLSkillItemOption
_TEXT	ENDS
; Function compile flags: /Ogtp
; File c:\users\michel\desktop\source\gameserver\source\objcalcharacter.cpp
;	COMDAT ?gObjCalcShieldPoint@@YAXPAUOBJECTSTRUCT@@@Z
_TEXT	SEGMENT
_lpObj$ = 8						; size = 4
?gObjCalcShieldPoint@@YAXPAUOBJECTSTRUCT@@@Z PROC	; gObjCalcShieldPoint, COMDAT

; 1805 : {

  00000	55		 push	 ebp
  00001	8b ec		 mov	 ebp, esp
  00003	53		 push	 ebx

; 1806 : #if (ENABLETEST_ZTLUA == 1)
; 1807 : 	ZTLuaManager* LuaMng = new ZTLuaManager(FILE_LUA_CHARACTERBASICS);
; 1808 : 	ZTLuaUnit::Bind(LuaMng->getLua());
; 1809 : 	ZTLuaItem::Bind(LuaMng->getLua());
; 1810 : 	LuaMng->Call("setShieldPool", lpObj->m_Index);
; 1811 : 	ZTLuaManager::Delete(LuaMng);
; 1812 : #else
; 1813 : 	int iMaxShieldPoint = 0;
; 1814 : 	int iExpressionA = ( lpObj->Strength + lpObj->AddStrength ) + ( lpObj->Dexterity + lpObj->AddDexterity ) + ( lpObj->Vitality + lpObj->AddVitality ) + (lpObj->Energy + lpObj->AddEnergy );

  00004	8b 5d 08	 mov	 ebx, DWORD PTR _lpObj$[ebp]
  00007	56		 push	 esi
  00008	57		 push	 edi
  00009	0f b7 83 00 01
	00 00		 movzx	 eax, WORD PTR [ebx+256]
  00010	0f b7 bb 02 01
	00 00		 movzx	 edi, WORD PTR [ebx+258]
  00017	03 f8		 add	 edi, eax
  00019	0f b7 83 fe 00
	00 00		 movzx	 eax, WORD PTR [ebx+254]
  00020	03 f8		 add	 edi, eax
  00022	0f b7 83 fc 00
	00 00		 movzx	 eax, WORD PTR [ebx+252]
  00029	03 f8		 add	 edi, eax
  0002b	0f b7 83 d6 00
	00 00		 movzx	 eax, WORD PTR [ebx+214]
  00032	03 f8		 add	 edi, eax
  00034	0f b7 83 d4 00
	00 00		 movzx	 eax, WORD PTR [ebx+212]
  0003b	03 f8		 add	 edi, eax
  0003d	0f b7 83 d2 00
	00 00		 movzx	 eax, WORD PTR [ebx+210]
  00044	03 f8		 add	 edi, eax
  00046	0f b7 83 d0 00
	00 00		 movzx	 eax, WORD PTR [ebx+208]
  0004d	03 f8		 add	 edi, eax

; 1815 : 
; 1816 : 	if ( lpObj->Class == CLASS_DARKLORD )

  0004f	66 83 bb 90 00
	00 00 04	 cmp	 WORD PTR [ebx+144], 4
  00057	75 12		 jne	 SHORT $LN2@gObjCalcSh

; 1817 : 	{
; 1818 : 		iExpressionA += lpObj->Leadership + lpObj->AddLeadership;

  00059	0f b7 83 f4 00
	00 00		 movzx	 eax, WORD PTR [ebx+244]
  00060	0f b7 8b f6 00
	00 00		 movzx	 ecx, WORD PTR [ebx+246]
  00067	03 f8		 add	 edi, eax
  00069	03 f9		 add	 edi, ecx
$LN2@gObjCalcSh:

; 1819 : 	}
; 1820 : 
; 1821 : 	if ( g_iShieldGageConstB == 0 )

  0006b	8b 0d 00 00 00
	00		 mov	 ecx, DWORD PTR ?g_iShieldGageConstB@@3HA ; g_iShieldGageConstB
  00071	b8 1e 00 00 00	 mov	 eax, 30			; 0000001eH
  00076	85 c9		 test	 ecx, ecx
  00078	0f 44 c8	 cmove	 ecx, eax
  0007b	89 0d 00 00 00
	00		 mov	 DWORD PTR ?g_iShieldGageConstB@@3HA, ecx ; g_iShieldGageConstB

; 1822 : 		g_iShieldGageConstB = 30;
; 1823 : 
; 1824 : 	int iExpressionB = ( lpObj->Level * lpObj->Level) / g_iShieldGageConstB;

  00081	0f bf 83 96 00
	00 00		 movsx	 eax, WORD PTR [ebx+150]
  00088	0f af c0	 imul	 eax, eax
  0008b	99		 cdq
  0008c	f7 f9		 idiv	 ecx

; 1825 : 
; 1826 : 	if ( g_iShieldGageConstA == 0 )

  0008e	8b 0d 00 00 00
	00		 mov	 ecx, DWORD PTR ?g_iShieldGageConstA@@3HA ; g_iShieldGageConstA
  00094	85 c9		 test	 ecx, ecx
  00096	8b f0		 mov	 esi, eax
  00098	b8 0c 00 00 00	 mov	 eax, 12			; 0000000cH
  0009d	0f 44 c8	 cmove	 ecx, eax

; 1827 : 		g_iShieldGageConstA = 12;
; 1828 : 
; 1829 : 	iMaxShieldPoint = ( iExpressionA * g_iShieldGageConstA ) / 10 + iExpressionB  + lpObj->m_Defense;

  000a0	b8 67 66 66 66	 mov	 eax, 1717986919		; 66666667H
  000a5	89 0d 00 00 00
	00		 mov	 DWORD PTR ?g_iShieldGageConstA@@3HA, ecx ; g_iShieldGageConstA
  000ab	0f af cf	 imul	 ecx, edi
  000ae	5f		 pop	 edi
  000af	f7 e9		 imul	 ecx
  000b1	c1 fa 02	 sar	 edx, 2
  000b4	8b c2		 mov	 eax, edx
  000b6	c1 e8 1f	 shr	 eax, 31			; 0000001fH
  000b9	03 c2		 add	 eax, edx
  000bb	03 83 74 06 00
	00		 add	 eax, DWORD PTR [ebx+1652]
  000c1	03 c6		 add	 eax, esi
  000c3	5e		 pop	 esi

; 1830 : 	lpObj->iMaxShield = iMaxShieldPoint;

  000c4	89 83 30 01 00
	00		 mov	 DWORD PTR [ebx+304], eax
  000ca	5b		 pop	 ebx

; 1831 : #endif
; 1832 : }

  000cb	5d		 pop	 ebp
  000cc	c3		 ret	 0
?gObjCalcShieldPoint@@YAXPAUOBJECTSTRUCT@@@Z ENDP	; gObjCalcShieldPoint
_TEXT	ENDS
; Function compile flags: /Ogtp
; File c:\users\michel\desktop\source\gameserver\source\objcalcharacter.cpp
;	COMDAT ?gObjValidItem@@YAHPAUOBJECTSTRUCT@@PAVCItem@@H@Z
_TEXT	SEGMENT
_lpObj$ = 8						; size = 4
_lpItem$ = 12						; size = 4
_pos$ = 16						; size = 4
?gObjValidItem@@YAHPAUOBJECTSTRUCT@@PAVCItem@@H@Z PROC	; gObjValidItem, COMDAT

; 1744 : {

  00000	55		 push	 ebp
  00001	8b ec		 mov	 ebp, esp
  00003	53		 push	 ebx

; 1745 : 	LPITEM_ATTRIBUTE p = &ItemAttribute[lpItem->m_Type];

  00004	8b 5d 0c	 mov	 ebx, DWORD PTR _lpItem$[ebp]
  00007	56		 push	 esi

; 1746 : 	
; 1747 : 	if ( p->RequireStrength != 0 )

  00008	8b 75 08	 mov	 esi, DWORD PTR _lpObj$[ebp]
  0000b	57		 push	 edi
  0000c	0f b7 43 06	 movzx	 eax, WORD PTR [ebx+6]
  00010	98		 cwde
  00011	6b f8 70	 imul	 edi, eax, 112
  00014	81 c7 00 00 00
	00		 add	 edi, OFFSET ?ItemAttribute@@3PAUITEM_ATTRIBUTE@@A ; ItemAttribute
  0001a	66 83 7f 34 00	 cmp	 WORD PTR [edi+52], 0
  0001f	74 28		 je	 SHORT $LN3@gObjValidI

; 1748 : 	{
; 1749 : 		if ( (lpObj->Strength + lpObj->AddStrength) < ( lpItem->m_RequireStrength - lpItem->m_HJOpStrength ) )

  00021	0f b7 86 d0 00
	00 00		 movzx	 eax, WORD PTR [esi+208]
  00028	0f b7 96 fc 00
	00 00		 movzx	 edx, WORD PTR [esi+252]
  0002f	0f b7 4b 52	 movzx	 ecx, WORD PTR [ebx+82]
  00033	03 d0		 add	 edx, eax
  00035	0f b7 83 c2 00
	00 00		 movzx	 eax, WORD PTR [ebx+194]
  0003c	2b c8		 sub	 ecx, eax
  0003e	3b d1		 cmp	 edx, ecx
  00040	7d 07		 jge	 SHORT $LN3@gObjValidI
$LN16@gObjValidI:
  00042	5f		 pop	 edi
  00043	5e		 pop	 esi

; 1750 : 		{
; 1751 : 			return FALSE;

  00044	33 c0		 xor	 eax, eax
  00046	5b		 pop	 ebx

; 1800 : }

  00047	5d		 pop	 ebp
  00048	c3		 ret	 0
$LN3@gObjValidI:

; 1752 : 		}
; 1753 : 	}
; 1754 : 
; 1755 : 	if ( p->RequireDexterity != 0 )

  00049	66 83 7f 36 00	 cmp	 WORD PTR [edi+54], 0
  0004e	74 21		 je	 SHORT $LN5@gObjValidI

; 1756 : 	{
; 1757 : 		if ( (lpObj->Dexterity + lpObj->AddDexterity) < ( lpItem->m_RequireDexterity - lpItem->m_HJOpDexterity ) )

  00050	0f b7 86 d2 00
	00 00		 movzx	 eax, WORD PTR [esi+210]
  00057	0f b7 96 fe 00
	00 00		 movzx	 edx, WORD PTR [esi+254]
  0005e	0f b7 4b 54	 movzx	 ecx, WORD PTR [ebx+84]
  00062	03 d0		 add	 edx, eax
  00064	0f b7 83 c4 00
	00 00		 movzx	 eax, WORD PTR [ebx+196]
  0006b	2b c8		 sub	 ecx, eax
  0006d	3b d1		 cmp	 edx, ecx
  0006f	7c d1		 jl	 SHORT $LN16@gObjValidI
$LN5@gObjValidI:

; 1758 : 		{
; 1759 : 			return FALSE;
; 1760 : 		}
; 1761 : 	}
; 1762 : 
; 1763 : 
; 1764 : 	if ( p->RequireEnergy != 0 )

  00071	66 83 7f 38 00	 cmp	 WORD PTR [edi+56], 0
  00076	74 18		 je	 SHORT $LN7@gObjValidI

; 1765 : 	{
; 1766 : 		if ( (lpObj->Energy + lpObj->AddEnergy) < lpItem->m_RequireEnergy )

  00078	0f b7 86 d6 00
	00 00		 movzx	 eax, WORD PTR [esi+214]
  0007f	0f b7 8e 02 01
	00 00		 movzx	 ecx, WORD PTR [esi+258]
  00086	03 c8		 add	 ecx, eax
  00088	0f b7 43 56	 movzx	 eax, WORD PTR [ebx+86]
  0008c	3b c8		 cmp	 ecx, eax
  0008e	7c b2		 jl	 SHORT $LN16@gObjValidI
$LN7@gObjValidI:

; 1767 : 		{
; 1768 : 			return FALSE;
; 1769 : 		}
; 1770 : 	}
; 1771 : 
; 1772 : 	if ( p->RequireLevel != 0 )

  00090	66 83 7f 3a 00	 cmp	 WORD PTR [edi+58], 0
  00095	74 0f		 je	 SHORT $LN9@gObjValidI

; 1773 : 	{
; 1774 : 		if ( (lpObj->Level) < lpItem->m_RequireLevel )

  00097	0f bf 8e 96 00
	00 00		 movsx	 ecx, WORD PTR [esi+150]
  0009e	0f b7 43 58	 movzx	 eax, WORD PTR [ebx+88]
  000a2	3b c8		 cmp	 ecx, eax
  000a4	7c 9c		 jl	 SHORT $LN16@gObjValidI
$LN9@gObjValidI:

; 1775 : 		{
; 1776 : 			return FALSE;
; 1777 : 		}
; 1778 : 	}
; 1779 : 
; 1780 : 	if ( lpItem->m_Type >= ITEMGET(0,0) && lpItem->m_Type <= ITEMGET(11, 0) )

  000a6	0f b7 43 06	 movzx	 eax, WORD PTR [ebx+6]
  000aa	66 85 c0	 test	 ax, ax
  000ad	78 4f		 js	 SHORT $LN14@gObjValidI
  000af	b9 00 16 00 00	 mov	 ecx, 5632		; 00001600H
  000b4	66 3b c1	 cmp	 ax, cx
  000b7	7f 45		 jg	 SHORT $LN14@gObjValidI

; 1781 : 	{
; 1782 : 		if ( p->RequireVitality )

  000b9	66 83 7f 4c 00	 cmp	 WORD PTR [edi+76], 0
  000be	74 1c		 je	 SHORT $LN12@gObjValidI

; 1783 : 		{
; 1784 : 			if ( (lpObj->Vitality + lpObj->AddVitality ) < lpItem->m_RequireVitality )

  000c0	0f b7 86 d4 00
	00 00		 movzx	 eax, WORD PTR [esi+212]
  000c7	0f b7 8e 00 01
	00 00		 movzx	 ecx, WORD PTR [esi+256]
  000ce	03 c8		 add	 ecx, eax
  000d0	0f b7 43 5a	 movzx	 eax, WORD PTR [ebx+90]
  000d4	3b c8		 cmp	 ecx, eax
  000d6	0f 8c 66 ff ff
	ff		 jl	 $LN16@gObjValidI
$LN12@gObjValidI:

; 1785 : 			{
; 1786 : 				return FALSE;
; 1787 : 			}
; 1788 : 		}
; 1789 : 
; 1790 : 		if ( p->RequireLeadership )

  000dc	83 7f 6c 00	 cmp	 DWORD PTR [edi+108], 0
  000e0	74 1c		 je	 SHORT $LN14@gObjValidI

; 1791 : 		{
; 1792 : 			if ( (lpObj->Leadership + lpObj->AddLeadership ) < lpItem->m_RequireLeaderShip )

  000e2	0f b7 86 f4 00
	00 00		 movzx	 eax, WORD PTR [esi+244]
  000e9	0f b7 8e f6 00
	00 00		 movzx	 ecx, WORD PTR [esi+246]
  000f0	03 c8		 add	 ecx, eax
  000f2	0f b7 43 5c	 movzx	 eax, WORD PTR [ebx+92]
  000f6	3b c8		 cmp	 ecx, eax
  000f8	0f 8c 44 ff ff
	ff		 jl	 $LN16@gObjValidI
$LN14@gObjValidI:
  000fe	5f		 pop	 edi
  000ff	5e		 pop	 esi

; 1793 : 			{
; 1794 : 				return FALSE;
; 1795 : 			}
; 1796 : 		}
; 1797 : 	}
; 1798 : 
; 1799 : 	return TRUE;

  00100	b8 01 00 00 00	 mov	 eax, 1
  00105	5b		 pop	 ebx

; 1800 : }

  00106	5d		 pop	 ebp
  00107	c3		 ret	 0
?gObjValidItem@@YAHPAUOBJECTSTRUCT@@PAVCItem@@H@Z ENDP	; gObjValidItem
_TEXT	ENDS
; Function compile flags: /Ogtp
; File c:\users\michel\desktop\source\gameserver\source\objcalcharacter.cpp
;	COMDAT ?gObjSetItemApply@@YAXPAUOBJECTSTRUCT@@@Z
_TEXT	SEGMENT
_lpObj$ = 8						; size = 4
?gObjSetItemApply@@YAXPAUOBJECTSTRUCT@@@Z PROC		; gObjSetItemApply, COMDAT

; 1662 : {

  00000	55		 push	 ebp
  00001	8b ec		 mov	 ebp, esp
  00003	53		 push	 ebx

; 1663 : 	lpObj->m_AttackDamageMinLeft += lpObj->SetOpAddAttackDamage;

  00004	8b 5d 08	 mov	 ebx, DWORD PTR _lpObj$[ebp]
  00007	56		 push	 esi
  00008	57		 push	 edi
  00009	0f bf 93 c4 14
	00 00		 movsx	 edx, WORD PTR [ebx+5316]

; 1664 : 	lpObj->m_AttackDamageMaxLeft += lpObj->SetOpAddAttackDamage;
; 1665 : 	lpObj->m_AttackDamageMinRight += lpObj->SetOpAddAttackDamage;
; 1666 : 	lpObj->m_AttackDamageMaxRight += lpObj->SetOpAddAttackDamage;
; 1667 : 
; 1668 : 	lpObj->m_AttackDamageMinLeft += lpObj->SetOpAddMinAttackDamage;

  00010	0f bf 8b c0 14
	00 00		 movsx	 ecx, WORD PTR [ebx+5312]

; 1669 : 	lpObj->m_AttackDamageMinRight += lpObj->SetOpAddMinAttackDamage;
; 1670 : 
; 1671 : 	lpObj->m_AttackDamageMaxLeft += lpObj->SetOpAddMaxAttackDamage;
; 1672 : 	lpObj->m_AttackDamageMaxRight += lpObj->SetOpAddMaxAttackDamage;
; 1673 : 
; 1674 : 	lpObj->m_MagicDamageMin += lpObj->m_MagicDamageMin * lpObj->SetOpAddMagicPower / 100;

  00017	8b b3 48 06 00
	00		 mov	 esi, DWORD PTR [ebx+1608]
  0001d	0f bf bb ca 14
	00 00		 movsx	 edi, WORD PTR [ebx+5322]
  00024	8d 04 11	 lea	 eax, DWORD PTR [ecx+edx]
  00027	01 83 5c 06 00
	00		 add	 DWORD PTR [ebx+1628], eax
  0002d	8d 04 11	 lea	 eax, DWORD PTR [ecx+edx]
  00030	01 83 64 06 00
	00		 add	 DWORD PTR [ebx+1636], eax
  00036	0f bf 8b c2 14
	00 00		 movsx	 ecx, WORD PTR [ebx+5314]
  0003d	8d 04 11	 lea	 eax, DWORD PTR [ecx+edx]
  00040	01 83 58 06 00
	00		 add	 DWORD PTR [ebx+1624], eax
  00046	8d 04 11	 lea	 eax, DWORD PTR [ecx+edx]
  00049	01 83 60 06 00
	00		 add	 DWORD PTR [ebx+1632], eax
  0004f	8b ce		 mov	 ecx, esi
  00051	0f af cf	 imul	 ecx, edi
  00054	b8 1f 85 eb 51	 mov	 eax, 1374389535		; 51eb851fH
  00059	f7 e9		 imul	 ecx
  0005b	c1 fa 05	 sar	 edx, 5
  0005e	8b c2		 mov	 eax, edx
  00060	c1 e8 1f	 shr	 eax, 31			; 0000001fH
  00063	03 c2		 add	 eax, edx
  00065	03 c6		 add	 eax, esi

; 1675 : 	lpObj->m_MagicDamageMax += lpObj->m_MagicDamageMax * lpObj->SetOpAddMagicPower / 100;

  00067	8b b3 4c 06 00
	00		 mov	 esi, DWORD PTR [ebx+1612]
  0006d	89 83 48 06 00
	00		 mov	 DWORD PTR [ebx+1608], eax
  00073	8b ce		 mov	 ecx, esi
  00075	0f af cf	 imul	 ecx, edi
  00078	b8 1f 85 eb 51	 mov	 eax, 1374389535		; 51eb851fH
  0007d	f7 e9		 imul	 ecx
  0007f	c1 fa 05	 sar	 edx, 5
  00082	8b c2		 mov	 eax, edx
  00084	c1 e8 1f	 shr	 eax, 31			; 0000001fH
  00087	03 c2		 add	 eax, edx
  00089	03 c6		 add	 eax, esi
  0008b	89 83 4c 06 00
	00		 mov	 DWORD PTR [ebx+1612], eax

; 1676 : 
; 1677 : 	lpObj->AddLife += INT(lpObj->AddVitality * DCInfo.DefClass[lpObj->Class].VitalityToLife);

  00091	0f b7 83 90 00
	00 00		 movzx	 eax, WORD PTR [ebx+144]
  00098	69 c8 c8 0b 00
	00		 imul	 ecx, eax, 3016
  0009e	0f b7 83 00 01
	00 00		 movzx	 eax, WORD PTR [ebx+256]
  000a5	66 0f 6e c0	 movd	 xmm0, eax
  000a9	0f 5b c0	 cvtdq2ps xmm0, xmm0
  000ac	f3 0f 59 81 28
	00 00 00	 mulss	 xmm0, DWORD PTR ?DCInfo@@3Vclassdef@@A[ecx+40]
  000b4	f3 0f 2c c0	 cvttss2si eax, xmm0
  000b8	01 83 24 01 00
	00		 add	 DWORD PTR [ebx+292], eax

; 1678 : 	lpObj->AddMana += INT(lpObj->AddEnergy * DCInfo.DefClass[lpObj->Class].EnergyToMana);

  000be	0f b7 83 02 01
	00 00		 movzx	 eax, WORD PTR [ebx+258]
  000c5	66 0f 6e c0	 movd	 xmm0, eax
  000c9	0f 5b c0	 cvtdq2ps xmm0, xmm0
  000cc	f3 0f 59 81 2c
	00 00 00	 mulss	 xmm0, DWORD PTR ?DCInfo@@3Vclassdef@@A[ecx+44]

; 1679 : 
; 1680 : 	lpObj->m_CriticalDamage += lpObj->SetOpAddCriticalDamageSuccessRate;
; 1681 : 	lpObj->m_ExcelentDamage += lpObj->SetOpAddExDamageSuccessRate;
; 1682 : 
; 1683 : 	if ( lpObj->pInventory[10].IsSetItem() )

  000d4	8b 8b c0 11 00
	00		 mov	 ecx, DWORD PTR [ebx+4544]
  000da	81 c1 48 08 00
	00		 add	 ecx, 2120		; 00000848H
  000e0	f3 0f 2c c0	 cvttss2si eax, xmm0
  000e4	01 83 28 01 00
	00		 add	 DWORD PTR [ebx+296], eax
  000ea	0f bf 83 ba 14
	00 00		 movsx	 eax, WORD PTR [ebx+5306]
  000f1	01 83 9c 06 00
	00		 add	 DWORD PTR [ebx+1692], eax
  000f7	0f bf 83 b6 14
	00 00		 movsx	 eax, WORD PTR [ebx+5302]
  000fe	01 83 a0 06 00
	00		 add	 DWORD PTR [ebx+1696], eax
  00104	e8 00 00 00 00	 call	 ?IsSetItem@CItem@@QAEHXZ ; CItem::IsSetItem
  00109	85 c0		 test	 eax, eax
  0010b	74 18		 je	 SHORT $LN2@gObjSetIte

; 1684 : 	{
; 1685 : 		lpObj->pInventory[10].PlusSpecialSetRing((LPBYTE)lpObj->m_AddResistance);

  0010d	8b 8b c0 11 00
	00		 mov	 ecx, DWORD PTR [ebx+4544]
  00113	8d 83 9d 08 00
	00		 lea	 eax, DWORD PTR [ebx+2205]
  00119	50		 push	 eax
  0011a	81 c1 48 08 00
	00		 add	 ecx, 2120		; 00000848H
  00120	e8 00 00 00 00	 call	 ?PlusSpecialSetRing@CItem@@QAEXPAE@Z ; CItem::PlusSpecialSetRing
$LN2@gObjSetIte:

; 1686 : 	}
; 1687 : 
; 1688 : 	if ( lpObj->pInventory[11].IsSetItem() )

  00125	8b 8b c0 11 00
	00		 mov	 ecx, DWORD PTR [ebx+4544]
  0012b	81 c1 1c 09 00
	00		 add	 ecx, 2332		; 0000091cH
  00131	e8 00 00 00 00	 call	 ?IsSetItem@CItem@@QAEHXZ ; CItem::IsSetItem
  00136	85 c0		 test	 eax, eax
  00138	74 18		 je	 SHORT $LN3@gObjSetIte

; 1689 : 	{
; 1690 : 		lpObj->pInventory[11].PlusSpecialSetRing((LPBYTE)lpObj->m_AddResistance);

  0013a	8b 8b c0 11 00
	00		 mov	 ecx, DWORD PTR [ebx+4544]
  00140	8d 83 9d 08 00
	00		 lea	 eax, DWORD PTR [ebx+2205]
  00146	50		 push	 eax
  00147	81 c1 1c 09 00
	00		 add	 ecx, 2332		; 0000091cH
  0014d	e8 00 00 00 00	 call	 ?PlusSpecialSetRing@CItem@@QAEXPAE@Z ; CItem::PlusSpecialSetRing
$LN3@gObjSetIte:

; 1691 : 	}
; 1692 : 
; 1693 : 	if ( lpObj->pInventory[9].IsSetItem() )

  00152	8b 8b c0 11 00
	00		 mov	 ecx, DWORD PTR [ebx+4544]
  00158	81 c1 74 07 00
	00		 add	 ecx, 1908		; 00000774H
  0015e	e8 00 00 00 00	 call	 ?IsSetItem@CItem@@QAEHXZ ; CItem::IsSetItem
  00163	85 c0		 test	 eax, eax
  00165	74 18		 je	 SHORT $LN4@gObjSetIte

; 1694 : 	{
; 1695 : 		lpObj->pInventory[9].PlusSpecialSetRing((LPBYTE)lpObj->m_AddResistance);

  00167	8b 8b c0 11 00
	00		 mov	 ecx, DWORD PTR [ebx+4544]
  0016d	8d 83 9d 08 00
	00		 lea	 eax, DWORD PTR [ebx+2205]
  00173	50		 push	 eax
  00174	81 c1 74 07 00
	00		 add	 ecx, 1908		; 00000774H
  0017a	e8 00 00 00 00	 call	 ?PlusSpecialSetRing@CItem@@QAEXPAE@Z ; CItem::PlusSpecialSetRing
$LN4@gObjSetIte:

; 1696 : 	}
; 1697 : 
; 1698 : 	if ( lpObj->SetOpTwoHandSwordImproveDamage )

  0017f	80 bb ce 14 00
	00 00		 cmp	 BYTE PTR [ebx+5326], 0
  00186	74 77		 je	 SHORT $LN8@gObjSetIte

; 1699 : 	{
; 1700 : 		if ( !lpObj->pInventory[1].IsItem() && !lpObj->pInventory[0].IsItem() )

  00188	8b 8b c0 11 00
	00		 mov	 ecx, DWORD PTR [ebx+4544]
  0018e	81 c1 d4 00 00
	00		 add	 ecx, 212		; 000000d4H
  00194	e8 00 00 00 00	 call	 ?IsItem@CItem@@QAEHXZ	; CItem::IsItem
  00199	85 c0		 test	 eax, eax
  0019b	75 15		 jne	 SHORT $LN6@gObjSetIte
  0019d	8b 8b c0 11 00
	00		 mov	 ecx, DWORD PTR [ebx+4544]
  001a3	e8 00 00 00 00	 call	 ?IsItem@CItem@@QAEHXZ	; CItem::IsItem
  001a8	85 c0		 test	 eax, eax
  001aa	75 06		 jne	 SHORT $LN6@gObjSetIte

; 1701 : 		{
; 1702 : 			lpObj->SetOpTwoHandSwordImproveDamage = 0;

  001ac	88 83 ce 14 00
	00		 mov	 BYTE PTR [ebx+5326], al
$LN6@gObjSetIte:

; 1703 : 		}
; 1704 : 
; 1705 : 		if ( lpObj->pInventory[1].IsItem() && lpObj->pInventory[1].m_TwoHand == FALSE )

  001b2	8b 8b c0 11 00
	00		 mov	 ecx, DWORD PTR [ebx+4544]
  001b8	81 c1 d4 00 00
	00		 add	 ecx, 212		; 000000d4H
  001be	e8 00 00 00 00	 call	 ?IsItem@CItem@@QAEHXZ	; CItem::IsItem
  001c3	85 c0		 test	 eax, eax
  001c5	74 16		 je	 SHORT $LN7@gObjSetIte
  001c7	8b 83 c0 11 00
	00		 mov	 eax, DWORD PTR [ebx+4544]
  001cd	80 b8 e0 00 00
	00 00		 cmp	 BYTE PTR [eax+224], 0
  001d4	75 07		 jne	 SHORT $LN7@gObjSetIte

; 1706 : 		{
; 1707 : 			lpObj->SetOpTwoHandSwordImproveDamage = 0;

  001d6	c6 83 ce 14 00
	00 00		 mov	 BYTE PTR [ebx+5326], 0
$LN7@gObjSetIte:

; 1708 : 		}
; 1709 : 
; 1710 : 		if ( lpObj->pInventory[0].IsItem() && lpObj->pInventory[0].m_TwoHand == FALSE )

  001dd	8b 8b c0 11 00
	00		 mov	 ecx, DWORD PTR [ebx+4544]
  001e3	e8 00 00 00 00	 call	 ?IsItem@CItem@@QAEHXZ	; CItem::IsItem
  001e8	85 c0		 test	 eax, eax
  001ea	74 13		 je	 SHORT $LN8@gObjSetIte
  001ec	8b 83 c0 11 00
	00		 mov	 eax, DWORD PTR [ebx+4544]
  001f2	80 78 0c 00	 cmp	 BYTE PTR [eax+12], 0
  001f6	75 07		 jne	 SHORT $LN8@gObjSetIte

; 1711 : 		{
; 1712 : 			lpObj->SetOpTwoHandSwordImproveDamage = 0;

  001f8	c6 83 ce 14 00
	00 00		 mov	 BYTE PTR [ebx+5326], 0
$LN8@gObjSetIte:
  001ff	66 0f 6e 83 24
	01 00 00	 movd	 xmm0, DWORD PTR [ebx+292]

; 1713 : 		}
; 1714 : 	}
; 1715 : 
; 1716 : 	if ( (lpObj->MaxLife + lpObj->AddLife ) < lpObj->Life )

  00207	f3 0f 10 8b dc
	00 00 00	 movss	 xmm1, DWORD PTR [ebx+220]
  0020f	0f 5b c0	 cvtdq2ps xmm0, xmm0
  00212	f3 0f 58 c8	 addss	 xmm1, xmm0
  00216	f3 0f 10 83 d8
	00 00 00	 movss	 xmm0, DWORD PTR [ebx+216]
  0021e	0f 2f c1	 comiss	 xmm0, xmm1
  00221	76 29		 jbe	 SHORT $LN9@gObjSetIte

; 1717 : 	{
; 1718 : 		lpObj->Life = lpObj->MaxLife + lpObj->AddLife;
; 1719 : 		GCReFillSend(lpObj->m_Index, (WORD)lpObj->Life, 0xFF, 0, lpObj->iShield);

  00223	0f b7 83 2c 01
	00 00		 movzx	 eax, WORD PTR [ebx+300]
  0022a	50		 push	 eax
  0022b	f3 0f 2c c1	 cvttss2si eax, xmm1
  0022f	6a 00		 push	 0
  00231	68 ff 00 00 00	 push	 255			; 000000ffH
  00236	f3 0f 11 8b d8
	00 00 00	 movss	 DWORD PTR [ebx+216], xmm1
  0023e	0f b7 c0	 movzx	 eax, ax
  00241	50		 push	 eax
  00242	ff 33		 push	 DWORD PTR [ebx]
  00244	e8 00 00 00 00	 call	 ?GCReFillSend@@YAXHGEEG@Z ; GCReFillSend
  00249	83 c4 14	 add	 esp, 20			; 00000014H
$LN9@gObjSetIte:

; 1720 : 	}
; 1721 : 
; 1722 : 	gObjSetBP(lpObj->m_Index);

  0024c	ff 33		 push	 DWORD PTR [ebx]
  0024e	e8 00 00 00 00	 call	 ?gObjSetBP@@YAXH@Z	; gObjSetBP
  00253	66 0f 6e 83 28
	01 00 00	 movd	 xmm0, DWORD PTR [ebx+296]
  0025b	83 c4 04	 add	 esp, 4

; 1723 : 
; 1724 : 	if ( (lpObj->MaxMana + lpObj->AddMana ) < lpObj->Mana )

  0025e	f3 0f 10 8b f0
	00 00 00	 movss	 xmm1, DWORD PTR [ebx+240]
  00266	0f 5b c0	 cvtdq2ps xmm0, xmm0
  00269	f3 0f 58 c8	 addss	 xmm1, xmm0
  0026d	f3 0f 10 83 ec
	00 00 00	 movss	 xmm0, DWORD PTR [ebx+236]
  00275	0f 2f c1	 comiss	 xmm0, xmm1
  00278	76 29		 jbe	 SHORT $LN10@gObjSetIte

; 1725 : 	{
; 1726 : 		lpObj->Mana = lpObj->MaxMana + lpObj->AddMana;
; 1727 : 		GCManaSend(lpObj->m_Index, (WORD)lpObj->Mana, 0xFF, 0, lpObj->BP);

  0027a	0f b7 83 04 01
	00 00		 movzx	 eax, WORD PTR [ebx+260]
  00281	50		 push	 eax
  00282	f3 0f 2c c1	 cvttss2si eax, xmm1
  00286	6a 00		 push	 0
  00288	68 ff 00 00 00	 push	 255			; 000000ffH
  0028d	f3 0f 11 8b ec
	00 00 00	 movss	 DWORD PTR [ebx+236], xmm1
  00295	0f b7 c0	 movzx	 eax, ax
  00298	50		 push	 eax
  00299	ff 33		 push	 DWORD PTR [ebx]
  0029b	e8 00 00 00 00	 call	 ?GCManaSend@@YAXHFEEG@Z	; GCManaSend
  002a0	83 c4 14	 add	 esp, 20			; 00000014H
$LN10@gObjSetIte:

; 1728 : 	}
; 1729 : 
; 1730 : 	lpObj->m_Defense += lpObj->SetOpAddDefence * 10 / 20;

  002a3	0f bf 83 c6 14
	00 00		 movsx	 eax, WORD PTR [ebx+5318]
  002aa	8d 0c 80	 lea	 ecx, DWORD PTR [eax+eax*4]
  002ad	b8 67 66 66 66	 mov	 eax, 1717986919		; 66666667H
  002b2	03 c9		 add	 ecx, ecx
  002b4	f7 e9		 imul	 ecx

; 1731 : 	lpObj->m_Defense += lpObj->m_Defense * lpObj->SetOpAddDefenceRate / 100;

  002b6	0f bf 8b c8 14
	00 00		 movsx	 ecx, WORD PTR [ebx+5320]
  002bd	b8 1f 85 eb 51	 mov	 eax, 1374389535		; 51eb851fH
  002c2	c1 fa 03	 sar	 edx, 3
  002c5	8b f2		 mov	 esi, edx
  002c7	c1 ee 1f	 shr	 esi, 31			; 0000001fH
  002ca	03 f2		 add	 esi, edx
  002cc	03 b3 74 06 00
	00		 add	 esi, DWORD PTR [ebx+1652]
  002d2	0f af ce	 imul	 ecx, esi
  002d5	f7 e9		 imul	 ecx
  002d7	c1 fa 05	 sar	 edx, 5
  002da	8b c2		 mov	 eax, edx
  002dc	c1 e8 1f	 shr	 eax, 31			; 0000001fH
  002df	03 c2		 add	 eax, edx
  002e1	03 f0		 add	 esi, eax

; 1732 : 
; 1733 : 	if (lpObj->pInventory[1].m_Type >= ITEMGET(6, 0) && lpObj->pInventory[1].m_Type < ITEMGET(7, 0))

  002e3	8b 83 c0 11 00
	00		 mov	 eax, DWORD PTR [ebx+4544]
  002e9	89 b3 74 06 00
	00		 mov	 DWORD PTR [ebx+1652], esi
  002ef	0f b7 88 da 00
	00 00		 movzx	 ecx, WORD PTR [eax+218]
  002f6	b8 00 0c 00 00	 mov	 eax, 3072		; 00000c00H
  002fb	66 3b c8	 cmp	 cx, ax
  002fe	7c 2d		 jl	 SHORT $LN11@gObjSetIte
  00300	ba 00 0e 00 00	 mov	 edx, 3584		; 00000e00H
  00305	66 3b ca	 cmp	 cx, dx
  00308	7d 23		 jge	 SHORT $LN11@gObjSetIte

; 1734 : 	{
; 1735 : 		lpObj->m_Defense += lpObj->m_Defense * lpObj->SetOpImproveSheldDefence / 100;

  0030a	0f b6 8b d1 14
	00 00		 movzx	 ecx, BYTE PTR [ebx+5329]
  00311	b8 1f 85 eb 51	 mov	 eax, 1374389535		; 51eb851fH
  00316	0f af ce	 imul	 ecx, esi
  00319	f7 e9		 imul	 ecx
  0031b	c1 fa 05	 sar	 edx, 5
  0031e	8b c2		 mov	 eax, edx
  00320	c1 e8 1f	 shr	 eax, 31			; 0000001fH
  00323	03 c2		 add	 eax, edx
  00325	03 c6		 add	 eax, esi
  00327	89 83 74 06 00
	00		 mov	 DWORD PTR [ebx+1652], eax
$LN11@gObjSetIte:
  0032d	5f		 pop	 edi
  0032e	5e		 pop	 esi
  0032f	5b		 pop	 ebx

; 1736 : 	}
; 1737 : }

  00330	5d		 pop	 ebp
  00331	c3		 ret	 0
?gObjSetItemApply@@YAXPAUOBJECTSTRUCT@@@Z ENDP		; gObjSetItemApply
_TEXT	ENDS
; Function compile flags: /Ogtp
; File c:\users\michel\desktop\source\gameserver\source\objcalcharacter.cpp
;	COMDAT ?gObjSetItemPlusSpecial@@YAXPAUOBJECTSTRUCT@@HH@Z
_TEXT	SEGMENT
_lpObj$ = 8						; size = 4
_option$ = 12						; size = 4
_ivalue$ = 16						; size = 4
?gObjSetItemPlusSpecial@@YAXPAUOBJECTSTRUCT@@HH@Z PROC	; gObjSetItemPlusSpecial, COMDAT

; 1556 : {

  00000	55		 push	 ebp
  00001	8b ec		 mov	 ebp, esp

; 1557 : 	if ( option == -1 )

  00003	8b 45 0c	 mov	 eax, DWORD PTR _option$[ebp]
  00006	83 f8 ff	 cmp	 eax, -1
  00009	0f 84 55 02 00
	00		 je	 $LN2@gObjSetIte

; 1558 : 		return;
; 1559 : 
; 1560 : 	switch ( option )

  0000f	05 5b ff ff ff	 add	 eax, -165		; ffffff5bH
  00014	83 f8 1e	 cmp	 eax, 30			; 0000001eH
  00017	0f 87 47 02 00
	00		 ja	 $LN2@gObjSetIte
  0001d	56		 push	 esi
  0001e	ff 24 85 00 00
	00 00		 jmp	 DWORD PTR $LN39@gObjSetIte[eax*4]
$LN5@gObjSetIte:

; 1561 : 	{
; 1562 : 		case AT_SET_OPTION_DOUBLE_DAMAGE:
; 1563 : 			lpObj->SetOpDoubleDamage += ivalue;

  00025	8b 4d 08	 mov	 ecx, DWORD PTR _lpObj$[ebp]
  00028	8a 45 10	 mov	 al, BYTE PTR _ivalue$[ebp]
  0002b	5e		 pop	 esi
  0002c	00 81 cd 14 00
	00		 add	 BYTE PTR [ecx+5325], al

; 1654 : 			break;
; 1655 : 	}
; 1656 : }

  00032	5d		 pop	 ebp
  00033	c3		 ret	 0
$LN6@gObjSetIte:

; 1564 : 			break;
; 1565 : 		case AT_SET_OPTION_IMPROVE_SHIELD_DEFENCE:
; 1566 : 			lpObj->SetOpImproveSheldDefence += ivalue;

  00034	8b 4d 08	 mov	 ecx, DWORD PTR _lpObj$[ebp]
  00037	8a 45 10	 mov	 al, BYTE PTR _ivalue$[ebp]
  0003a	5e		 pop	 esi
  0003b	00 81 d1 14 00
	00		 add	 BYTE PTR [ecx+5329], al

; 1654 : 			break;
; 1655 : 	}
; 1656 : }

  00041	5d		 pop	 ebp
  00042	c3		 ret	 0
$LN7@gObjSetIte:

; 1567 : 			break;
; 1568 : 		case AT_SET_OPTION_TWO_HAND_SWORD_IMPROVE_DAMAGE:
; 1569 : 			lpObj->SetOpTwoHandSwordImproveDamage += ivalue;

  00043	8b 4d 08	 mov	 ecx, DWORD PTR _lpObj$[ebp]
  00046	8a 45 10	 mov	 al, BYTE PTR _ivalue$[ebp]
  00049	5e		 pop	 esi
  0004a	00 81 ce 14 00
	00		 add	 BYTE PTR [ecx+5326], al

; 1654 : 			break;
; 1655 : 	}
; 1656 : }

  00050	5d		 pop	 ebp
  00051	c3		 ret	 0
$LN8@gObjSetIte:

; 1570 : 			break;
; 1571 : 		case AT_SET_OPTION_IMPROVE_MINATTACKDAMAGE:
; 1572 : 			lpObj->SetOpAddMinAttackDamage += ivalue;

  00052	8b 4d 08	 mov	 ecx, DWORD PTR _lpObj$[ebp]
  00055	66 8b 45 10	 mov	 ax, WORD PTR _ivalue$[ebp]
  00059	5e		 pop	 esi
  0005a	66 01 81 c0 14
	00 00		 add	 WORD PTR [ecx+5312], ax

; 1654 : 			break;
; 1655 : 	}
; 1656 : }

  00061	5d		 pop	 ebp
  00062	c3		 ret	 0
$LN9@gObjSetIte:

; 1573 : 			break;
; 1574 : 		case AT_SET_OPTION_IMPROVE_MAXATTACKDAMAGE:
; 1575 : 			lpObj->SetOpAddMaxAttackDamage += ivalue;

  00063	8b 4d 08	 mov	 ecx, DWORD PTR _lpObj$[ebp]
  00066	66 8b 45 10	 mov	 ax, WORD PTR _ivalue$[ebp]
  0006a	5e		 pop	 esi
  0006b	66 01 81 c2 14
	00 00		 add	 WORD PTR [ecx+5314], ax

; 1654 : 			break;
; 1655 : 	}
; 1656 : }

  00072	5d		 pop	 ebp
  00073	c3		 ret	 0
$LN10@gObjSetIte:

; 1576 : 			break;
; 1577 : 		case AT_SET_OPTION_IMPROVE_MAGICDAMAGE:
; 1578 : 			lpObj->SetOpAddMagicPower += ivalue;

  00074	8b 4d 08	 mov	 ecx, DWORD PTR _lpObj$[ebp]
  00077	66 8b 45 10	 mov	 ax, WORD PTR _ivalue$[ebp]
  0007b	5e		 pop	 esi
  0007c	66 01 81 ca 14
	00 00		 add	 WORD PTR [ecx+5322], ax

; 1654 : 			break;
; 1655 : 	}
; 1656 : }

  00083	5d		 pop	 ebp
  00084	c3		 ret	 0
$LN11@gObjSetIte:

; 1579 : 			break;
; 1580 : 		case AT_SET_OPTION_IMPROVE_DAMAGE:
; 1581 : 			lpObj->SetOpAddDamage += ivalue;

  00085	8b 4d 08	 mov	 ecx, DWORD PTR _lpObj$[ebp]
  00088	66 8b 45 10	 mov	 ax, WORD PTR _ivalue$[ebp]
  0008c	5e		 pop	 esi
  0008d	66 01 81 be 14
	00 00		 add	 WORD PTR [ecx+5310], ax

; 1654 : 			break;
; 1655 : 	}
; 1656 : }

  00094	5d		 pop	 ebp
  00095	c3		 ret	 0
$LN12@gObjSetIte:

; 1582 : 			break;
; 1583 : 		case AT_SET_OPTION_IMPROVE_ATTACKRATE:
; 1584 : 			lpObj->SetOpImproveSuccessAttackRate += ivalue;

  00096	8b 4d 08	 mov	 ecx, DWORD PTR _lpObj$[ebp]
  00099	8a 45 10	 mov	 al, BYTE PTR _ivalue$[ebp]
  0009c	5e		 pop	 esi
  0009d	00 81 cf 14 00
	00		 add	 BYTE PTR [ecx+5327], al

; 1654 : 			break;
; 1655 : 	}
; 1656 : }

  000a3	5d		 pop	 ebp
  000a4	c3		 ret	 0
$LN13@gObjSetIte:

; 1585 : 			break;
; 1586 : 		case AT_SET_OPTION_IMPROVE_DEFENCE:
; 1587 : 			lpObj->SetOpAddDefence += ivalue;

  000a5	8b 4d 08	 mov	 ecx, DWORD PTR _lpObj$[ebp]
  000a8	66 8b 45 10	 mov	 ax, WORD PTR _ivalue$[ebp]
  000ac	5e		 pop	 esi
  000ad	66 01 81 c6 14
	00 00		 add	 WORD PTR [ecx+5318], ax

; 1654 : 			break;
; 1655 : 	}
; 1656 : }

  000b4	5d		 pop	 ebp
  000b5	c3		 ret	 0
$LN14@gObjSetIte:

; 1588 : 			break;
; 1589 : 		case AT_SET_OPTION_DEFENCE_IGNORE:
; 1590 : 			lpObj->SetOpIgnoreDefense += ivalue;

  000b6	8b 4d 08	 mov	 ecx, DWORD PTR _lpObj$[ebp]
  000b9	8a 45 10	 mov	 al, BYTE PTR _ivalue$[ebp]
  000bc	5e		 pop	 esi
  000bd	00 81 cc 14 00
	00		 add	 BYTE PTR [ecx+5324], al

; 1654 : 			break;
; 1655 : 	}
; 1656 : }

  000c3	5d		 pop	 ebp
  000c4	c3		 ret	 0
$LN15@gObjSetIte:

; 1591 : 			break;
; 1592 : 		case AT_SET_OPTION_IMPROVE_MAXLIFE:
; 1593 : 			lpObj->AddLife += ivalue;

  000c5	8b 4d 08	 mov	 ecx, DWORD PTR _lpObj$[ebp]
  000c8	8b 45 10	 mov	 eax, DWORD PTR _ivalue$[ebp]
  000cb	5e		 pop	 esi
  000cc	01 81 24 01 00
	00		 add	 DWORD PTR [ecx+292], eax

; 1654 : 			break;
; 1655 : 	}
; 1656 : }

  000d2	5d		 pop	 ebp
  000d3	c3		 ret	 0
$LN16@gObjSetIte:

; 1594 : 			break;
; 1595 : 		case AT_SET_OPTION_IMPROVE_MAXMANA:
; 1596 : 			lpObj->AddMana += ivalue;

  000d4	8b 4d 08	 mov	 ecx, DWORD PTR _lpObj$[ebp]
  000d7	8b 45 10	 mov	 eax, DWORD PTR _ivalue$[ebp]
  000da	5e		 pop	 esi
  000db	01 81 28 01 00
	00		 add	 DWORD PTR [ecx+296], eax

; 1654 : 			break;
; 1655 : 	}
; 1656 : }

  000e1	5d		 pop	 ebp
  000e2	c3		 ret	 0
$LN17@gObjSetIte:

; 1597 : 			break;
; 1598 : 		case AT_SET_OPTION_IMPROVE_MAXAG:
; 1599 : 			lpObj->AddBP += ivalue;

  000e3	8b 4d 08	 mov	 ecx, DWORD PTR _lpObj$[ebp]
  000e6	8b 45 10	 mov	 eax, DWORD PTR _ivalue$[ebp]
  000e9	5e		 pop	 esi
  000ea	01 81 0c 01 00
	00		 add	 DWORD PTR [ecx+268], eax

; 1654 : 			break;
; 1655 : 	}
; 1656 : }

  000f0	5d		 pop	 ebp
  000f1	c3		 ret	 0
$LN18@gObjSetIte:

; 1600 : 			break;
; 1601 : 		case AT_SET_OPTION_IMPROVE_AG_VALUE:
; 1602 : 			lpObj->SetOpIncAGValue += ivalue;

  000f2	8b 4d 08	 mov	 ecx, DWORD PTR _lpObj$[ebp]
  000f5	66 8b 45 10	 mov	 ax, WORD PTR _ivalue$[ebp]
  000f9	5e		 pop	 esi
  000fa	66 01 81 bc 14
	00 00		 add	 WORD PTR [ecx+5308], ax

; 1654 : 			break;
; 1655 : 	}
; 1656 : }

  00101	5d		 pop	 ebp
  00102	c3		 ret	 0
$LN19@gObjSetIte:

; 1603 : 			break;
; 1604 : 		case AT_SET_OPTION_IMPROVE_CRITICALDAMAGE:
; 1605 : 			lpObj->SetOpAddCriticalDamage += ivalue;

  00103	8b 4d 08	 mov	 ecx, DWORD PTR _lpObj$[ebp]
  00106	66 8b 45 10	 mov	 ax, WORD PTR _ivalue$[ebp]
  0010a	5e		 pop	 esi
  0010b	66 01 81 b8 14
	00 00		 add	 WORD PTR [ecx+5304], ax

; 1654 : 			break;
; 1655 : 	}
; 1656 : }

  00112	5d		 pop	 ebp
  00113	c3		 ret	 0
$LN20@gObjSetIte:

; 1606 : 			break;
; 1607 : 		case AT_SET_OPTION_IMPROVE_CRITICALDAMAGE_SUCCESS:
; 1608 : 			lpObj->SetOpAddCriticalDamageSuccessRate += ivalue;

  00114	8b 4d 08	 mov	 ecx, DWORD PTR _lpObj$[ebp]
  00117	66 8b 45 10	 mov	 ax, WORD PTR _ivalue$[ebp]
  0011b	5e		 pop	 esi
  0011c	66 01 81 ba 14
	00 00		 add	 WORD PTR [ecx+5306], ax

; 1654 : 			break;
; 1655 : 	}
; 1656 : }

  00123	5d		 pop	 ebp
  00124	c3		 ret	 0
$LN21@gObjSetIte:

; 1609 : 			break;
; 1610 : 		case AT_SET_OPTION_IMPROVE_EX_DAMAGE:
; 1611 : 			lpObj->SetOpAddExDamage += ivalue;

  00125	8b 4d 08	 mov	 ecx, DWORD PTR _lpObj$[ebp]
  00128	66 8b 45 10	 mov	 ax, WORD PTR _ivalue$[ebp]
  0012c	5e		 pop	 esi
  0012d	66 01 81 b4 14
	00 00		 add	 WORD PTR [ecx+5300], ax

; 1654 : 			break;
; 1655 : 	}
; 1656 : }

  00134	5d		 pop	 ebp
  00135	c3		 ret	 0
$LN22@gObjSetIte:

; 1612 : 			break;
; 1613 : 		case AT_SET_OPTION_IMPROVE_EX_DAMAGE_SUCCESS:
; 1614 : 			lpObj->SetOpAddExDamageSuccessRate += ivalue;

  00136	8b 4d 08	 mov	 ecx, DWORD PTR _lpObj$[ebp]
  00139	66 8b 45 10	 mov	 ax, WORD PTR _ivalue$[ebp]
  0013d	5e		 pop	 esi
  0013e	66 01 81 b6 14
	00 00		 add	 WORD PTR [ecx+5302], ax

; 1654 : 			break;
; 1655 : 	}
; 1656 : }

  00145	5d		 pop	 ebp
  00146	c3		 ret	 0
$LN23@gObjSetIte:

; 1615 : 			break;
; 1616 : 		case AT_SET_OPTION_IMPROVE_SKILLDAMAGE:
; 1617 : 			lpObj->SetOpAddSkillAttack += ivalue;

  00147	8b 4d 08	 mov	 ecx, DWORD PTR _lpObj$[ebp]
  0014a	66 8b 45 10	 mov	 ax, WORD PTR _ivalue$[ebp]
  0014e	5e		 pop	 esi
  0014f	66 01 81 b2 14
	00 00		 add	 WORD PTR [ecx+5298], ax

; 1654 : 			break;
; 1655 : 	}
; 1656 : }

  00156	5d		 pop	 ebp
  00157	c3		 ret	 0
$LN24@gObjSetIte:

; 1618 : 			break;
; 1619 : 		case AT_SET_OPTION_IMPROVE_ATTACKDAMAGE_WITH_DEX:
; 1620 : 			lpObj->SetOpAddAttackDamage += ( lpObj->Dexterity + lpObj->AddDexterity ) / ivalue;

  00158	8b 75 08	 mov	 esi, DWORD PTR _lpObj$[ebp]
  0015b	0f b7 86 fe 00
	00 00		 movzx	 eax, WORD PTR [esi+254]
  00162	0f b7 8e d2 00
	00 00		 movzx	 ecx, WORD PTR [esi+210]
  00169	03 c1		 add	 eax, ecx
  0016b	99		 cdq
  0016c	f7 7d 10	 idiv	 DWORD PTR _ivalue$[ebp]
  0016f	66 01 86 c4 14
	00 00		 add	 WORD PTR [esi+5316], ax
  00176	5e		 pop	 esi

; 1654 : 			break;
; 1655 : 	}
; 1656 : }

  00177	5d		 pop	 ebp
  00178	c3		 ret	 0
$LN25@gObjSetIte:

; 1621 : 			break;
; 1622 : 		case AT_SET_OPTION_IMPROVE_ATTACKDAMAGE_WITH_STR:
; 1623 : 			lpObj->SetOpAddAttackDamage += ( lpObj->Strength + lpObj->AddStrength ) / ivalue;

  00179	8b 75 08	 mov	 esi, DWORD PTR _lpObj$[ebp]
  0017c	0f b7 86 fc 00
	00 00		 movzx	 eax, WORD PTR [esi+252]
  00183	0f b7 8e d0 00
	00 00		 movzx	 ecx, WORD PTR [esi+208]
  0018a	03 c1		 add	 eax, ecx
  0018c	99		 cdq
  0018d	f7 7d 10	 idiv	 DWORD PTR _ivalue$[ebp]
  00190	66 01 86 c4 14
	00 00		 add	 WORD PTR [esi+5316], ax
  00197	5e		 pop	 esi

; 1654 : 			break;
; 1655 : 	}
; 1656 : }

  00198	5d		 pop	 ebp
  00199	c3		 ret	 0
$LN26@gObjSetIte:

; 1624 : 			break;
; 1625 : 		case AT_SET_OPTION_IMPROVE_MAGICDAMAGE_WITH_ENERGY:
; 1626 : 			lpObj->SetOpAddMagicPower += ( lpObj->Energy + lpObj->AddEnergy ) / ivalue;

  0019a	8b 75 08	 mov	 esi, DWORD PTR _lpObj$[ebp]
  0019d	0f b7 86 02 01
	00 00		 movzx	 eax, WORD PTR [esi+258]
  001a4	0f b7 8e d6 00
	00 00		 movzx	 ecx, WORD PTR [esi+214]
  001ab	03 c1		 add	 eax, ecx
  001ad	99		 cdq
  001ae	f7 7d 10	 idiv	 DWORD PTR _ivalue$[ebp]
  001b1	66 01 86 ca 14
	00 00		 add	 WORD PTR [esi+5322], ax
  001b8	5e		 pop	 esi

; 1654 : 			break;
; 1655 : 	}
; 1656 : }

  001b9	5d		 pop	 ebp
  001ba	c3		 ret	 0
$LN27@gObjSetIte:

; 1627 : 			break;
; 1628 : 		case AT_SET_OPTION_IMPROVE_DEFENCE_WITH_DEX:
; 1629 : 			lpObj->SetOpAddDefence += ( lpObj->Dexterity + lpObj->AddDexterity )  / ivalue;

  001bb	8b 75 08	 mov	 esi, DWORD PTR _lpObj$[ebp]
  001be	0f b7 86 fe 00
	00 00		 movzx	 eax, WORD PTR [esi+254]
  001c5	0f b7 8e d2 00
	00 00		 movzx	 ecx, WORD PTR [esi+210]
  001cc	03 c1		 add	 eax, ecx
  001ce	99		 cdq
  001cf	f7 7d 10	 idiv	 DWORD PTR _ivalue$[ebp]
  001d2	66 01 86 c6 14
	00 00		 add	 WORD PTR [esi+5318], ax
  001d9	5e		 pop	 esi

; 1654 : 			break;
; 1655 : 	}
; 1656 : }

  001da	5d		 pop	 ebp
  001db	c3		 ret	 0
$LN28@gObjSetIte:

; 1630 : 			break;
; 1631 : 		case AT_SET_OPTION_IMPROVE_DEFENCE_WITH_VIT:
; 1632 : 			lpObj->SetOpAddDefence += ( lpObj->Vitality + lpObj->AddVitality ) / ivalue;

  001dc	8b 75 08	 mov	 esi, DWORD PTR _lpObj$[ebp]
  001df	0f b7 86 00 01
	00 00		 movzx	 eax, WORD PTR [esi+256]
  001e6	0f b7 8e d4 00
	00 00		 movzx	 ecx, WORD PTR [esi+212]
  001ed	03 c1		 add	 eax, ecx
  001ef	99		 cdq
  001f0	f7 7d 10	 idiv	 DWORD PTR _ivalue$[ebp]
  001f3	66 01 86 c6 14
	00 00		 add	 WORD PTR [esi+5318], ax
  001fa	5e		 pop	 esi

; 1654 : 			break;
; 1655 : 	}
; 1656 : }

  001fb	5d		 pop	 ebp
  001fc	c3		 ret	 0
$LN29@gObjSetIte:

; 1633 : 			break;
; 1634 : 		case AT_SET_OPTION_FIRE_MASTERY:
; 1635 : 			lpObj->m_AddResistance[R_FIRE] += ivalue;

  001fd	8b 4d 08	 mov	 ecx, DWORD PTR _lpObj$[ebp]
  00200	8a 45 10	 mov	 al, BYTE PTR _ivalue$[ebp]
  00203	5e		 pop	 esi
  00204	00 81 a0 08 00
	00		 add	 BYTE PTR [ecx+2208], al

; 1654 : 			break;
; 1655 : 	}
; 1656 : }

  0020a	5d		 pop	 ebp
  0020b	c3		 ret	 0
$LN30@gObjSetIte:

; 1636 : 			break;
; 1637 : 		case AT_SET_OPTION_ICE_MASTERY:
; 1638 : 			lpObj->m_AddResistance[R_ICE] += ivalue;

  0020c	8b 4d 08	 mov	 ecx, DWORD PTR _lpObj$[ebp]
  0020f	8a 45 10	 mov	 al, BYTE PTR _ivalue$[ebp]
  00212	5e		 pop	 esi
  00213	00 81 9d 08 00
	00		 add	 BYTE PTR [ecx+2205], al

; 1654 : 			break;
; 1655 : 	}
; 1656 : }

  00219	5d		 pop	 ebp
  0021a	c3		 ret	 0
$LN31@gObjSetIte:

; 1639 : 			break;
; 1640 : 		case AT_SET_OPTION_THUNDER_MASTERY:
; 1641 : 			lpObj->m_AddResistance[R_LIGHTNING] += ivalue;

  0021b	8b 4d 08	 mov	 ecx, DWORD PTR _lpObj$[ebp]
  0021e	8a 45 10	 mov	 al, BYTE PTR _ivalue$[ebp]
  00221	5e		 pop	 esi
  00222	00 81 9f 08 00
	00		 add	 BYTE PTR [ecx+2207], al

; 1654 : 			break;
; 1655 : 	}
; 1656 : }

  00228	5d		 pop	 ebp
  00229	c3		 ret	 0
$LN32@gObjSetIte:

; 1642 : 			break;
; 1643 : 		case AT_SET_OPTION_POSION_MASTERY:
; 1644 : 			lpObj->m_AddResistance[R_POISON] += ivalue;

  0022a	8b 4d 08	 mov	 ecx, DWORD PTR _lpObj$[ebp]
  0022d	8a 45 10	 mov	 al, BYTE PTR _ivalue$[ebp]
  00230	5e		 pop	 esi
  00231	00 81 9e 08 00
	00		 add	 BYTE PTR [ecx+2206], al

; 1654 : 			break;
; 1655 : 	}
; 1656 : }

  00237	5d		 pop	 ebp
  00238	c3		 ret	 0
$LN33@gObjSetIte:

; 1645 : 			break;
; 1646 : 		case AT_SET_OPTION_WATER_MASTERY:
; 1647 : 			lpObj->m_AddResistance[R_WATER] += ivalue;

  00239	8b 4d 08	 mov	 ecx, DWORD PTR _lpObj$[ebp]
  0023c	8a 45 10	 mov	 al, BYTE PTR _ivalue$[ebp]
  0023f	5e		 pop	 esi
  00240	00 81 a3 08 00
	00		 add	 BYTE PTR [ecx+2211], al

; 1654 : 			break;
; 1655 : 	}
; 1656 : }

  00246	5d		 pop	 ebp
  00247	c3		 ret	 0
$LN34@gObjSetIte:

; 1648 : 			break;
; 1649 : 		case AT_SET_OPTION_WIND_MASTERY:
; 1650 : 			lpObj->m_AddResistance[R_WIND] += ivalue;

  00248	8b 4d 08	 mov	 ecx, DWORD PTR _lpObj$[ebp]
  0024b	8a 45 10	 mov	 al, BYTE PTR _ivalue$[ebp]
  0024e	5e		 pop	 esi
  0024f	00 81 a2 08 00
	00		 add	 BYTE PTR [ecx+2210], al

; 1654 : 			break;
; 1655 : 	}
; 1656 : }

  00255	5d		 pop	 ebp
  00256	c3		 ret	 0
$LN35@gObjSetIte:

; 1651 : 			break;
; 1652 : 		case AT_SET_OPTION_EARTH_MASTERY:
; 1653 : 			lpObj->m_AddResistance[R_EARTH] += ivalue;

  00257	8b 4d 08	 mov	 ecx, DWORD PTR _lpObj$[ebp]
  0025a	8a 45 10	 mov	 al, BYTE PTR _ivalue$[ebp]
  0025d	00 81 a1 08 00
	00		 add	 BYTE PTR [ecx+2209], al
$LN37@gObjSetIte:
  00263	5e		 pop	 esi
$LN2@gObjSetIte:

; 1654 : 			break;
; 1655 : 	}
; 1656 : }

  00264	5d		 pop	 ebp
  00265	c3		 ret	 0
  00266	66 90		 npad	 2
$LN39@gObjSetIte:
  00268	00 00 00 00	 DD	 $LN8@gObjSetIte
  0026c	00 00 00 00	 DD	 $LN9@gObjSetIte
  00270	00 00 00 00	 DD	 $LN10@gObjSetIte
  00274	00 00 00 00	 DD	 $LN11@gObjSetIte
  00278	00 00 00 00	 DD	 $LN12@gObjSetIte
  0027c	00 00 00 00	 DD	 $LN13@gObjSetIte
  00280	00 00 00 00	 DD	 $LN15@gObjSetIte
  00284	00 00 00 00	 DD	 $LN16@gObjSetIte
  00288	00 00 00 00	 DD	 $LN17@gObjSetIte
  0028c	00 00 00 00	 DD	 $LN18@gObjSetIte
  00290	00 00 00 00	 DD	 $LN20@gObjSetIte
  00294	00 00 00 00	 DD	 $LN19@gObjSetIte
  00298	00 00 00 00	 DD	 $LN22@gObjSetIte
  0029c	00 00 00 00	 DD	 $LN21@gObjSetIte
  002a0	00 00 00 00	 DD	 $LN23@gObjSetIte
  002a4	00 00 00 00	 DD	 $LN5@gObjSetIte
  002a8	00 00 00 00	 DD	 $LN14@gObjSetIte
  002ac	00 00 00 00	 DD	 $LN6@gObjSetIte
  002b0	00 00 00 00	 DD	 $LN7@gObjSetIte
  002b4	00 00 00 00	 DD	 $LN25@gObjSetIte
  002b8	00 00 00 00	 DD	 $LN24@gObjSetIte
  002bc	00 00 00 00	 DD	 $LN27@gObjSetIte
  002c0	00 00 00 00	 DD	 $LN28@gObjSetIte
  002c4	00 00 00 00	 DD	 $LN26@gObjSetIte
  002c8	00 00 00 00	 DD	 $LN30@gObjSetIte
  002cc	00 00 00 00	 DD	 $LN32@gObjSetIte
  002d0	00 00 00 00	 DD	 $LN31@gObjSetIte
  002d4	00 00 00 00	 DD	 $LN29@gObjSetIte
  002d8	00 00 00 00	 DD	 $LN35@gObjSetIte
  002dc	00 00 00 00	 DD	 $LN34@gObjSetIte
  002e0	00 00 00 00	 DD	 $LN33@gObjSetIte
?gObjSetItemPlusSpecial@@YAXPAUOBJECTSTRUCT@@HH@Z ENDP	; gObjSetItemPlusSpecial
_TEXT	ENDS
; Function compile flags: /Ogtp
; File c:\users\michel\desktop\source\gameserver\source\objcalcharacter.cpp
;	COMDAT ?gObjSetItemStatPlusSpecial@@YAXPAUOBJECTSTRUCT@@HH@Z
_TEXT	SEGMENT
_lpObj$ = 8						; size = 4
_option$ = 12						; size = 4
_ivalue$ = 16						; size = 4
?gObjSetItemStatPlusSpecial@@YAXPAUOBJECTSTRUCT@@HH@Z PROC ; gObjSetItemStatPlusSpecial, COMDAT

; 1532 : {

  00000	55		 push	 ebp
  00001	8b ec		 mov	 ebp, esp

; 1533 : 	if ( option == -1 )

  00003	8b 45 0c	 mov	 eax, DWORD PTR _option$[ebp]
  00006	83 f8 ff	 cmp	 eax, -1
  00009	74 4f		 je	 SHORT $LN2@gObjSetIte

; 1534 : 		return;
; 1535 : 
; 1536 : 	switch ( option )	// #warning Add AT_SET_OPTION_IMPROVE_LEADERSHIP

  0000b	05 60 ff ff ff	 add	 eax, -160		; ffffff60H
  00010	83 f8 03	 cmp	 eax, 3
  00013	77 45		 ja	 SHORT $LN2@gObjSetIte
  00015	ff 24 85 00 00
	00 00		 jmp	 DWORD PTR $LN11@gObjSetIte[eax*4]
$LN5@gObjSetIte:

; 1537 : 	{
; 1538 : 		case AT_SET_OPTION_IMPROVE_STRENGTH:
; 1539 : 			lpObj->AddStrength += ivalue;

  0001c	8b 4d 08	 mov	 ecx, DWORD PTR _lpObj$[ebp]
  0001f	66 8b 45 10	 mov	 ax, WORD PTR _ivalue$[ebp]
  00023	66 01 81 fc 00
	00 00		 add	 WORD PTR [ecx+252], ax

; 1549 : 			break;
; 1550 : 	}
; 1551 : }

  0002a	5d		 pop	 ebp
  0002b	c3		 ret	 0
$LN6@gObjSetIte:

; 1540 : 			break;
; 1541 : 		case AT_SET_OPTION_IMPROVE_DEXTERITY:
; 1542 : 			lpObj->AddDexterity += ivalue;

  0002c	8b 4d 08	 mov	 ecx, DWORD PTR _lpObj$[ebp]
  0002f	66 8b 45 10	 mov	 ax, WORD PTR _ivalue$[ebp]
  00033	66 01 81 fe 00
	00 00		 add	 WORD PTR [ecx+254], ax

; 1549 : 			break;
; 1550 : 	}
; 1551 : }

  0003a	5d		 pop	 ebp
  0003b	c3		 ret	 0
$LN7@gObjSetIte:

; 1543 : 			break;
; 1544 : 		case AT_SET_OPTION_IMPROVE_ENERGY:
; 1545 : 			lpObj->AddEnergy += ivalue;

  0003c	8b 4d 08	 mov	 ecx, DWORD PTR _lpObj$[ebp]
  0003f	66 8b 45 10	 mov	 ax, WORD PTR _ivalue$[ebp]
  00043	66 01 81 02 01
	00 00		 add	 WORD PTR [ecx+258], ax

; 1549 : 			break;
; 1550 : 	}
; 1551 : }

  0004a	5d		 pop	 ebp
  0004b	c3		 ret	 0
$LN8@gObjSetIte:

; 1546 : 			break;
; 1547 : 		case AT_SET_OPTION_IMPROVE_VITALITY:
; 1548 : 			lpObj->AddVitality += ivalue;

  0004c	8b 4d 08	 mov	 ecx, DWORD PTR _lpObj$[ebp]
  0004f	66 8b 45 10	 mov	 ax, WORD PTR _ivalue$[ebp]
  00053	66 01 81 00 01
	00 00		 add	 WORD PTR [ecx+256], ax
$LN2@gObjSetIte:

; 1549 : 			break;
; 1550 : 	}
; 1551 : }

  0005a	5d		 pop	 ebp
  0005b	c3		 ret	 0
$LN11@gObjSetIte:
  0005c	00 00 00 00	 DD	 $LN5@gObjSetIte
  00060	00 00 00 00	 DD	 $LN6@gObjSetIte
  00064	00 00 00 00	 DD	 $LN7@gObjSetIte
  00068	00 00 00 00	 DD	 $LN8@gObjSetIte
?gObjSetItemStatPlusSpecial@@YAXPAUOBJECTSTRUCT@@HH@Z ENDP ; gObjSetItemStatPlusSpecial
_TEXT	ENDS
; Function compile flags: /Ogtp
; File c:\users\michel\desktop\source\gameserver\source\objcalcharacter.cpp
;	COMDAT ?gObjCalcSetItemOption@@YAXPAUOBJECTSTRUCT@@@Z
_TEXT	SEGMENT
_op5$ = -120						; size = 4
_opvalue5$ = -116					; size = 4
_op4$ = -112						; size = 4
_opvalue4$ = -108					; size = 4
_op3$ = -104						; size = 4
_opvalue3$ = -100					; size = 4
_SetOptionCount$ = -96					; size = 4
_OptionTableCount$1$ = -92				; size = 4
_OptionTableCount$1$ = -92				; size = 4
_optioncount$2$ = -88					; size = 4
_optioncount$1$ = -88					; size = 4
_op2$ = -84						; size = 4
_opvalue2$ = -80					; size = 4
_op1$ = -76						; size = 4
_opvalue1$ = -72					; size = 4
_SetOptionCountTable$ = -68				; size = 29
_SetOptionTable$ = -36					; size = 29
__$ArrayPad$ = -4					; size = 4
_lpObj$ = 8						; size = 4
?gObjCalcSetItemOption@@YAXPAUOBJECTSTRUCT@@@Z PROC	; gObjCalcSetItemOption, COMDAT

; 1430 : {

  00000	55		 push	 ebp
  00001	8b ec		 mov	 ebp, esp
  00003	83 ec 78	 sub	 esp, 120		; 00000078H
  00006	a1 00 00 00 00	 mov	 eax, DWORD PTR ___security_cookie
  0000b	33 c5		 xor	 eax, ebp
  0000d	89 45 fc	 mov	 DWORD PTR __$ArrayPad$[ebp], eax
  00010	53		 push	 ebx
  00011	56		 push	 esi
  00012	8b 75 08	 mov	 esi, DWORD PTR _lpObj$[ebp]

; 1431 : 	BYTE SetOptionTable[29];
; 1432 : 	BYTE SetOptionCountTable[29];
; 1433 : 	int SetOptionCount = 0;
; 1434 : 	int op1;
; 1435 : 	int op2;
; 1436 : 	int op3;
; 1437 : 	int op4;
; 1438 : 	int op5;
; 1439 : 	int opvalue1;
; 1440 : 	int opvalue2;
; 1441 : 	int opvalue3;
; 1442 : 	int opvalue4;
; 1443 : 	int opvalue5;
; 1444 : 
; 1445 : 	memset(SetOptionTable, 0, sizeof(SetOptionTable));
; 1446 : 	memset(SetOptionCountTable, 0, sizeof(SetOptionCountTable));
; 1447 : 	gObjGetSetItemOption(lpObj, SetOptionTable, SetOptionCountTable, &SetOptionCount);

  00015	8d 45 a0	 lea	 eax, DWORD PTR _SetOptionCount$[ebp]
  00018	57		 push	 edi
  00019	50		 push	 eax
  0001a	8d 45 bc	 lea	 eax, DWORD PTR _SetOptionCountTable$[ebp]
  0001d	c7 45 a0 00 00
	00 00		 mov	 DWORD PTR _SetOptionCount$[ebp], 0
  00024	50		 push	 eax
  00025	0f 57 c0	 xorps	 xmm0, xmm0
  00028	c7 45 f4 00 00
	00 00		 mov	 DWORD PTR _SetOptionTable$[ebp+24], 0
  0002f	8d 45 dc	 lea	 eax, DWORD PTR _SetOptionTable$[ebp]
  00032	66 0f d6 45 ec	 movq	 QWORD PTR _SetOptionTable$[ebp+16], xmm0
  00037	50		 push	 eax
  00038	56		 push	 esi
  00039	0f 11 45 dc	 movups	 XMMWORD PTR _SetOptionTable$[ebp], xmm0
  0003d	c6 45 f8 00	 mov	 BYTE PTR _SetOptionTable$[ebp+28], 0
  00041	0f 11 45 bc	 movups	 XMMWORD PTR _SetOptionCountTable$[ebp], xmm0
  00045	c7 45 d4 00 00
	00 00		 mov	 DWORD PTR _SetOptionCountTable$[ebp+24], 0
  0004c	66 0f d6 45 cc	 movq	 QWORD PTR _SetOptionCountTable$[ebp+16], xmm0
  00051	c6 45 d8 00	 mov	 BYTE PTR _SetOptionCountTable$[ebp+28], 0
  00055	e8 00 00 00 00	 call	 ?gObjGetSetItemOption@@YAXPAUOBJECTSTRUCT@@PAE1PAH@Z ; gObjGetSetItemOption

; 1448 : 
; 1449 : 	int optioncount;
; 1450 : 	for ( optioncount=0;optioncount<SetOptionCount;optioncount++)

  0005a	8b 5d a0	 mov	 ebx, DWORD PTR _SetOptionCount$[ebp]
  0005d	33 c0		 xor	 eax, eax
  0005f	83 c4 10	 add	 esp, 16			; 00000010H
  00062	89 45 a8	 mov	 DWORD PTR _optioncount$1$[ebp], eax
  00065	85 db		 test	 ebx, ebx
  00067	0f 8e 56 01 00
	00		 jle	 $LN3@gObjCalcSe
  0006d	0f 1f 00	 npad	 3
$LL4@gObjCalcSe:

; 1451 : 	{
; 1452 : 		int OptionTableIndex = SetOptionTable[optioncount];
; 1453 : 		int OptionTableCount = SetOptionCountTable[optioncount];

  00070	0f b6 7c 05 bc	 movzx	 edi, BYTE PTR _SetOptionCountTable$[ebp+eax]
  00075	0f b6 5c 05 dc	 movzx	 ebx, BYTE PTR _SetOptionTable$[ebp+eax]
  0007a	89 7d a4	 mov	 DWORD PTR _OptionTableCount$1$[ebp], edi

; 1454 : 
; 1455 : 		if ( OptionTableCount >= 2 )

  0007d	83 ff 02	 cmp	 edi, 2
  00080	0f 8c 2e 01 00
	00		 jl	 $LN2@gObjCalcSe

; 1456 : 		{
; 1457 : 			gSetItemOption.IsRequireClass(OptionTableIndex, lpObj->Class, lpObj->ChangeUP);

  00086	0f b6 86 93 00
	00 00		 movzx	 eax, BYTE PTR [esi+147]
  0008d	b9 00 00 00 00	 mov	 ecx, OFFSET ?gSetItemOption@@3VCSetItemOption@@A ; gSetItemOption
  00092	50		 push	 eax
  00093	0f b7 86 90 00
	00 00		 movzx	 eax, WORD PTR [esi+144]
  0009a	50		 push	 eax
  0009b	53		 push	 ebx
  0009c	e8 00 00 00 00	 call	 ?IsRequireClass@CSetItemOption@@QAEHHHH@Z ; CSetItemOption::IsRequireClass

; 1458 : 
; 1459 : 			for ( int tablecnt=0;tablecnt<(OptionTableCount-1);tablecnt++)

  000a1	8d 47 ff	 lea	 eax, DWORD PTR [edi-1]
  000a4	33 ff		 xor	 edi, edi
  000a6	85 c0		 test	 eax, eax
  000a8	7e 5a		 jle	 SHORT $LN6@gObjCalcSe
  000aa	66 0f 1f 44 00
	00		 npad	 6
$LL7@gObjCalcSe:

; 1460 : 			{
; 1461 : 				if ( gSetItemOption.GetSetOption(OptionTableIndex, tablecnt,

  000b0	0f b6 86 93 00
	00 00		 movzx	 eax, BYTE PTR [esi+147]
  000b7	b9 00 00 00 00	 mov	 ecx, OFFSET ?gSetItemOption@@3VCSetItemOption@@A ; gSetItemOption
  000bc	50		 push	 eax
  000bd	0f b7 86 90 00
	00 00		 movzx	 eax, WORD PTR [esi+144]
  000c4	50		 push	 eax
  000c5	8d 45 b0	 lea	 eax, DWORD PTR _opvalue2$[ebp]
  000c8	50		 push	 eax
  000c9	8d 45 b8	 lea	 eax, DWORD PTR _opvalue1$[ebp]
  000cc	50		 push	 eax
  000cd	8d 45 ac	 lea	 eax, DWORD PTR _op2$[ebp]
  000d0	50		 push	 eax
  000d1	8d 45 b4	 lea	 eax, DWORD PTR _op1$[ebp]
  000d4	50		 push	 eax
  000d5	57		 push	 edi
  000d6	53		 push	 ebx
  000d7	e8 00 00 00 00	 call	 ?GetSetOption@CSetItemOption@@QAEHHHAAH000HH@Z ; CSetItemOption::GetSetOption
  000dc	85 c0		 test	 eax, eax
  000de	74 1b		 je	 SHORT $LN5@gObjCalcSe

; 1462 : 					op1, op2, opvalue1, opvalue2, lpObj->Class, lpObj->ChangeUP) )
; 1463 : 				{
; 1464 : 					gObjSetItemStatPlusSpecial(lpObj, op1, opvalue1);

  000e0	ff 75 b8	 push	 DWORD PTR _opvalue1$[ebp]
  000e3	ff 75 b4	 push	 DWORD PTR _op1$[ebp]
  000e6	56		 push	 esi
  000e7	e8 00 00 00 00	 call	 ?gObjSetItemStatPlusSpecial@@YAXPAUOBJECTSTRUCT@@HH@Z ; gObjSetItemStatPlusSpecial

; 1465 : 					gObjSetItemStatPlusSpecial(lpObj, op2, opvalue2);

  000ec	ff 75 b0	 push	 DWORD PTR _opvalue2$[ebp]
  000ef	ff 75 ac	 push	 DWORD PTR _op2$[ebp]
  000f2	56		 push	 esi
  000f3	e8 00 00 00 00	 call	 ?gObjSetItemStatPlusSpecial@@YAXPAUOBJECTSTRUCT@@HH@Z ; gObjSetItemStatPlusSpecial
  000f8	83 c4 18	 add	 esp, 24			; 00000018H
$LN5@gObjCalcSe:

; 1458 : 
; 1459 : 			for ( int tablecnt=0;tablecnt<(OptionTableCount-1);tablecnt++)

  000fb	8b 45 a4	 mov	 eax, DWORD PTR _OptionTableCount$1$[ebp]
  000fe	47		 inc	 edi
  000ff	48		 dec	 eax
  00100	3b f8		 cmp	 edi, eax
  00102	7c ac		 jl	 SHORT $LL7@gObjCalcSe
$LN6@gObjCalcSe:

; 1466 : 				}
; 1467 : 			}
; 1468 : 
; 1469 : 			if ( gSetItemOption.GetMaxSetOptionCount(OptionTableIndex) < OptionTableCount )

  00104	53		 push	 ebx
  00105	b9 00 00 00 00	 mov	 ecx, OFFSET ?gSetItemOption@@3VCSetItemOption@@A ; gSetItemOption
  0010a	e8 00 00 00 00	 call	 ?GetMaxSetOptionCount@CSetItemOption@@QAEHH@Z ; CSetItemOption::GetMaxSetOptionCount
  0010f	3b 45 a4	 cmp	 eax, DWORD PTR _OptionTableCount$1$[ebp]
  00112	0f 8d 99 00 00
	00		 jge	 $LN38@gObjCalcSe

; 1470 : 			{
; 1471 : 				lpObj->IsFullSetItem = true;
; 1472 : 				LogAddC(2, " ");

  00118	68 00 00 00 00	 push	 OFFSET ??_C@_0M@CMDBHBEK@?G?$KO?$LP?I?$LM?G?5?$MA?$PL?$LP?k?$AA@
  0011d	6a 02		 push	 2
  0011f	c6 86 d4 14 00
	00 01		 mov	 BYTE PTR [esi+5332], 1
  00126	ff 15 00 00 00
	00		 call	 DWORD PTR ?LogAddC@@3P6AXEPADZZA ; LogAddC

; 1473 : 
; 1474 : 				gSetItemOption.GetGetFullSetOption(OptionTableIndex,

  0012c	0f b6 86 93 00
	00 00		 movzx	 eax, BYTE PTR [esi+147]
  00133	83 c4 08	 add	 esp, 8
  00136	b9 00 00 00 00	 mov	 ecx, OFFSET ?gSetItemOption@@3VCSetItemOption@@A ; gSetItemOption
  0013b	50		 push	 eax
  0013c	0f b7 86 90 00
	00 00		 movzx	 eax, WORD PTR [esi+144]
  00143	50		 push	 eax
  00144	8d 45 8c	 lea	 eax, DWORD PTR _opvalue5$[ebp]
  00147	50		 push	 eax
  00148	8d 45 94	 lea	 eax, DWORD PTR _opvalue4$[ebp]
  0014b	50		 push	 eax
  0014c	8d 45 9c	 lea	 eax, DWORD PTR _opvalue3$[ebp]
  0014f	50		 push	 eax
  00150	8d 45 b0	 lea	 eax, DWORD PTR _opvalue2$[ebp]
  00153	50		 push	 eax
  00154	8d 45 b8	 lea	 eax, DWORD PTR _opvalue1$[ebp]
  00157	50		 push	 eax
  00158	8d 45 88	 lea	 eax, DWORD PTR _op5$[ebp]
  0015b	50		 push	 eax
  0015c	8d 45 90	 lea	 eax, DWORD PTR _op4$[ebp]
  0015f	50		 push	 eax
  00160	8d 45 98	 lea	 eax, DWORD PTR _op3$[ebp]
  00163	50		 push	 eax
  00164	8d 45 ac	 lea	 eax, DWORD PTR _op2$[ebp]
  00167	50		 push	 eax
  00168	8d 45 b4	 lea	 eax, DWORD PTR _op1$[ebp]
  0016b	50		 push	 eax
  0016c	53		 push	 ebx
  0016d	e8 00 00 00 00	 call	 ?GetGetFullSetOption@CSetItemOption@@QAEHHAAH000000000HH@Z ; CSetItemOption::GetGetFullSetOption

; 1475 : 					op1, op2, op3, op4, op5,
; 1476 : 					opvalue1, opvalue2, opvalue3, opvalue4, opvalue5,
; 1477 : 					lpObj->Class, lpObj->ChangeUP);
; 1478 : 
; 1479 : 				gObjSetItemStatPlusSpecial(lpObj, op1, opvalue1);

  00172	ff 75 b8	 push	 DWORD PTR _opvalue1$[ebp]
  00175	ff 75 b4	 push	 DWORD PTR _op1$[ebp]
  00178	56		 push	 esi
  00179	e8 00 00 00 00	 call	 ?gObjSetItemStatPlusSpecial@@YAXPAUOBJECTSTRUCT@@HH@Z ; gObjSetItemStatPlusSpecial

; 1480 : 				gObjSetItemStatPlusSpecial(lpObj, op2, opvalue2);

  0017e	ff 75 b0	 push	 DWORD PTR _opvalue2$[ebp]
  00181	ff 75 ac	 push	 DWORD PTR _op2$[ebp]
  00184	56		 push	 esi
  00185	e8 00 00 00 00	 call	 ?gObjSetItemStatPlusSpecial@@YAXPAUOBJECTSTRUCT@@HH@Z ; gObjSetItemStatPlusSpecial

; 1481 : 				gObjSetItemStatPlusSpecial(lpObj, op3, opvalue3);

  0018a	ff 75 9c	 push	 DWORD PTR _opvalue3$[ebp]
  0018d	ff 75 98	 push	 DWORD PTR _op3$[ebp]
  00190	56		 push	 esi
  00191	e8 00 00 00 00	 call	 ?gObjSetItemStatPlusSpecial@@YAXPAUOBJECTSTRUCT@@HH@Z ; gObjSetItemStatPlusSpecial

; 1482 : 				gObjSetItemStatPlusSpecial(lpObj, op4, opvalue4);

  00196	ff 75 94	 push	 DWORD PTR _opvalue4$[ebp]
  00199	ff 75 90	 push	 DWORD PTR _op4$[ebp]
  0019c	56		 push	 esi
  0019d	e8 00 00 00 00	 call	 ?gObjSetItemStatPlusSpecial@@YAXPAUOBJECTSTRUCT@@HH@Z ; gObjSetItemStatPlusSpecial

; 1483 : 				gObjSetItemStatPlusSpecial(lpObj, op5, opvalue5);

  001a2	ff 75 8c	 push	 DWORD PTR _opvalue5$[ebp]
  001a5	ff 75 88	 push	 DWORD PTR _op5$[ebp]
  001a8	56		 push	 esi
  001a9	e8 00 00 00 00	 call	 ?gObjSetItemStatPlusSpecial@@YAXPAUOBJECTSTRUCT@@HH@Z ; gObjSetItemStatPlusSpecial
  001ae	83 c4 3c	 add	 esp, 60			; 0000003cH
$LN38@gObjCalcSe:
  001b1	8b 45 a8	 mov	 eax, DWORD PTR _optioncount$1$[ebp]
$LN2@gObjCalcSe:

; 1448 : 
; 1449 : 	int optioncount;
; 1450 : 	for ( optioncount=0;optioncount<SetOptionCount;optioncount++)

  001b4	8b 5d a0	 mov	 ebx, DWORD PTR _SetOptionCount$[ebp]
  001b7	40		 inc	 eax
  001b8	89 45 a8	 mov	 DWORD PTR _optioncount$1$[ebp], eax
  001bb	3b c3		 cmp	 eax, ebx
  001bd	0f 8c ad fe ff
	ff		 jl	 $LL4@gObjCalcSe
$LN3@gObjCalcSe:

; 1484 : 			}		
; 1485 : 		}
; 1486 : 	}
; 1487 : 
; 1488 : 	for ( optioncount=0;optioncount<SetOptionCount;optioncount++)

  001c3	33 c0		 xor	 eax, eax
  001c5	89 45 a8	 mov	 DWORD PTR _optioncount$2$[ebp], eax
  001c8	85 db		 test	 ebx, ebx
  001ca	0f 8e 52 01 00
	00		 jle	 $LN9@gObjCalcSe
$LL10@gObjCalcSe:

; 1489 : 	{
; 1490 : 		int OptionTableIndex = SetOptionTable[optioncount];
; 1491 : 		int OptionTableCount = SetOptionCountTable[optioncount];

  001d0	0f b6 7c 05 bc	 movzx	 edi, BYTE PTR _SetOptionCountTable$[ebp+eax]
  001d5	0f b6 5c 05 dc	 movzx	 ebx, BYTE PTR _SetOptionTable$[ebp+eax]
  001da	89 7d a4	 mov	 DWORD PTR _OptionTableCount$1$[ebp], edi

; 1492 : 
; 1493 : 		if ( OptionTableCount >= 2 )

  001dd	83 ff 02	 cmp	 edi, 2
  001e0	0f 8c 2f 01 00
	00		 jl	 $LN8@gObjCalcSe

; 1494 : 		{
; 1495 : 			LogAdd("[%s][%s] Ancient Set: %s",

  001e6	53		 push	 ebx
  001e7	b9 00 00 00 00	 mov	 ecx, OFFSET ?gSetItemOption@@3VCSetItemOption@@A ; gSetItemOption
  001ec	e8 00 00 00 00	 call	 ?GetSetOptionName@CSetItemOption@@QAEPADH@Z ; CSetItemOption::GetSetOptionName
  001f1	50		 push	 eax
  001f2	8d 46 5d	 lea	 eax, DWORD PTR [esi+93]
  001f5	50		 push	 eax
  001f6	8d 46 52	 lea	 eax, DWORD PTR [esi+82]
  001f9	50		 push	 eax
  001fa	68 00 00 00 00	 push	 OFFSET ??_C@_0BJ@CDNBOFLN@?$FL?$CFs?$FN?$FL?$CFs?$FN?5Ancient?5Set?3?5?$CFs?$AA@
  001ff	ff 15 00 00 00
	00		 call	 DWORD PTR ?LogAdd@@3P6AXPADZZA ; LogAdd

; 1496 : 				lpObj->AccountID, lpObj->Name, gSetItemOption.GetSetOptionName(OptionTableIndex));
; 1497 : 
; 1498 : 			for ( int tablecnt=0;tablecnt<(OptionTableCount-1);tablecnt++)

  00205	8d 47 ff	 lea	 eax, DWORD PTR [edi-1]
  00208	83 c4 10	 add	 esp, 16			; 00000010H
  0020b	33 ff		 xor	 edi, edi
  0020d	85 c0		 test	 eax, eax
  0020f	7e 54		 jle	 SHORT $LN12@gObjCalcSe
$LL13@gObjCalcSe:

; 1499 : 			{
; 1500 : 				if ( gSetItemOption.GetSetOption(OptionTableIndex, tablecnt,

  00211	0f b6 86 93 00
	00 00		 movzx	 eax, BYTE PTR [esi+147]
  00218	b9 00 00 00 00	 mov	 ecx, OFFSET ?gSetItemOption@@3VCSetItemOption@@A ; gSetItemOption
  0021d	50		 push	 eax
  0021e	0f b7 86 90 00
	00 00		 movzx	 eax, WORD PTR [esi+144]
  00225	50		 push	 eax
  00226	8d 45 b0	 lea	 eax, DWORD PTR _opvalue2$[ebp]
  00229	50		 push	 eax
  0022a	8d 45 b8	 lea	 eax, DWORD PTR _opvalue1$[ebp]
  0022d	50		 push	 eax
  0022e	8d 45 ac	 lea	 eax, DWORD PTR _op2$[ebp]
  00231	50		 push	 eax
  00232	8d 45 b4	 lea	 eax, DWORD PTR _op1$[ebp]
  00235	50		 push	 eax
  00236	57		 push	 edi
  00237	53		 push	 ebx
  00238	e8 00 00 00 00	 call	 ?GetSetOption@CSetItemOption@@QAEHHHAAH000HH@Z ; CSetItemOption::GetSetOption
  0023d	85 c0		 test	 eax, eax
  0023f	74 1b		 je	 SHORT $LN11@gObjCalcSe

; 1501 : 					op1, op2, opvalue1, opvalue2, lpObj->Class, lpObj->ChangeUP) )
; 1502 : 				{
; 1503 : 					gObjSetItemPlusSpecial(lpObj, op1, opvalue1);

  00241	ff 75 b8	 push	 DWORD PTR _opvalue1$[ebp]
  00244	ff 75 b4	 push	 DWORD PTR _op1$[ebp]
  00247	56		 push	 esi
  00248	e8 00 00 00 00	 call	 ?gObjSetItemPlusSpecial@@YAXPAUOBJECTSTRUCT@@HH@Z ; gObjSetItemPlusSpecial

; 1504 : 					gObjSetItemPlusSpecial(lpObj, op2, opvalue2);

  0024d	ff 75 b0	 push	 DWORD PTR _opvalue2$[ebp]
  00250	ff 75 ac	 push	 DWORD PTR _op2$[ebp]
  00253	56		 push	 esi
  00254	e8 00 00 00 00	 call	 ?gObjSetItemPlusSpecial@@YAXPAUOBJECTSTRUCT@@HH@Z ; gObjSetItemPlusSpecial
  00259	83 c4 18	 add	 esp, 24			; 00000018H
$LN11@gObjCalcSe:

; 1496 : 				lpObj->AccountID, lpObj->Name, gSetItemOption.GetSetOptionName(OptionTableIndex));
; 1497 : 
; 1498 : 			for ( int tablecnt=0;tablecnt<(OptionTableCount-1);tablecnt++)

  0025c	8b 45 a4	 mov	 eax, DWORD PTR _OptionTableCount$1$[ebp]
  0025f	47		 inc	 edi
  00260	48		 dec	 eax
  00261	3b f8		 cmp	 edi, eax
  00263	7c ac		 jl	 SHORT $LL13@gObjCalcSe
$LN12@gObjCalcSe:

; 1505 : 				}
; 1506 : 			}
; 1507 : 				
; 1508 : 			if ( gSetItemOption.GetMaxSetOptionCount(OptionTableIndex) < OptionTableCount )

  00265	53		 push	 ebx
  00266	b9 00 00 00 00	 mov	 ecx, OFFSET ?gSetItemOption@@3VCSetItemOption@@A ; gSetItemOption
  0026b	e8 00 00 00 00	 call	 ?GetMaxSetOptionCount@CSetItemOption@@QAEHH@Z ; CSetItemOption::GetMaxSetOptionCount
  00270	3b 45 a4	 cmp	 eax, DWORD PTR _OptionTableCount$1$[ebp]
  00273	0f 8d 99 00 00
	00		 jge	 $LN37@gObjCalcSe

; 1509 : 			{
; 1510 : 				LogAddC(2, "Full Set Item");

  00279	68 00 00 00 00	 push	 OFFSET ??_C@_0O@OLIBOAPO@Full?5Set?5Item?$AA@
  0027e	6a 02		 push	 2
  00280	ff 15 00 00 00
	00		 call	 DWORD PTR ?LogAddC@@3P6AXEPADZZA ; LogAddC

; 1511 : 				lpObj->IsFullSetItem = true;
; 1512 : 
; 1513 : 				gSetItemOption.GetGetFullSetOption(OptionTableIndex,

  00286	0f b6 86 93 00
	00 00		 movzx	 eax, BYTE PTR [esi+147]
  0028d	83 c4 08	 add	 esp, 8
  00290	b9 00 00 00 00	 mov	 ecx, OFFSET ?gSetItemOption@@3VCSetItemOption@@A ; gSetItemOption
  00295	c6 86 d4 14 00
	00 01		 mov	 BYTE PTR [esi+5332], 1
  0029c	50		 push	 eax
  0029d	0f b7 86 90 00
	00 00		 movzx	 eax, WORD PTR [esi+144]
  002a4	50		 push	 eax
  002a5	8d 45 8c	 lea	 eax, DWORD PTR _opvalue5$[ebp]
  002a8	50		 push	 eax
  002a9	8d 45 94	 lea	 eax, DWORD PTR _opvalue4$[ebp]
  002ac	50		 push	 eax
  002ad	8d 45 9c	 lea	 eax, DWORD PTR _opvalue3$[ebp]
  002b0	50		 push	 eax
  002b1	8d 45 b0	 lea	 eax, DWORD PTR _opvalue2$[ebp]
  002b4	50		 push	 eax
  002b5	8d 45 b8	 lea	 eax, DWORD PTR _opvalue1$[ebp]
  002b8	50		 push	 eax
  002b9	8d 45 88	 lea	 eax, DWORD PTR _op5$[ebp]
  002bc	50		 push	 eax
  002bd	8d 45 90	 lea	 eax, DWORD PTR _op4$[ebp]
  002c0	50		 push	 eax
  002c1	8d 45 98	 lea	 eax, DWORD PTR _op3$[ebp]
  002c4	50		 push	 eax
  002c5	8d 45 ac	 lea	 eax, DWORD PTR _op2$[ebp]
  002c8	50		 push	 eax
  002c9	8d 45 b4	 lea	 eax, DWORD PTR _op1$[ebp]
  002cc	50		 push	 eax
  002cd	53		 push	 ebx
  002ce	e8 00 00 00 00	 call	 ?GetGetFullSetOption@CSetItemOption@@QAEHHAAH000000000HH@Z ; CSetItemOption::GetGetFullSetOption

; 1514 : 					op1, op2, op3, op4, op5,
; 1515 : 					opvalue1, opvalue2, opvalue3, opvalue4, opvalue5,
; 1516 : 					lpObj->Class, lpObj->ChangeUP);
; 1517 : 
; 1518 : 				gObjSetItemPlusSpecial(lpObj, op1, opvalue1);

  002d3	ff 75 b8	 push	 DWORD PTR _opvalue1$[ebp]
  002d6	ff 75 b4	 push	 DWORD PTR _op1$[ebp]
  002d9	56		 push	 esi
  002da	e8 00 00 00 00	 call	 ?gObjSetItemPlusSpecial@@YAXPAUOBJECTSTRUCT@@HH@Z ; gObjSetItemPlusSpecial

; 1519 : 				gObjSetItemPlusSpecial(lpObj, op2, opvalue2);

  002df	ff 75 b0	 push	 DWORD PTR _opvalue2$[ebp]
  002e2	ff 75 ac	 push	 DWORD PTR _op2$[ebp]
  002e5	56		 push	 esi
  002e6	e8 00 00 00 00	 call	 ?gObjSetItemPlusSpecial@@YAXPAUOBJECTSTRUCT@@HH@Z ; gObjSetItemPlusSpecial

; 1520 : 				gObjSetItemPlusSpecial(lpObj, op3, opvalue3);

  002eb	ff 75 9c	 push	 DWORD PTR _opvalue3$[ebp]
  002ee	ff 75 98	 push	 DWORD PTR _op3$[ebp]
  002f1	56		 push	 esi
  002f2	e8 00 00 00 00	 call	 ?gObjSetItemPlusSpecial@@YAXPAUOBJECTSTRUCT@@HH@Z ; gObjSetItemPlusSpecial

; 1521 : 				gObjSetItemPlusSpecial(lpObj, op4, opvalue4);

  002f7	ff 75 94	 push	 DWORD PTR _opvalue4$[ebp]
  002fa	ff 75 90	 push	 DWORD PTR _op4$[ebp]
  002fd	56		 push	 esi
  002fe	e8 00 00 00 00	 call	 ?gObjSetItemPlusSpecial@@YAXPAUOBJECTSTRUCT@@HH@Z ; gObjSetItemPlusSpecial

; 1522 : 				gObjSetItemPlusSpecial(lpObj, op5, opvalue5);

  00303	ff 75 8c	 push	 DWORD PTR _opvalue5$[ebp]
  00306	ff 75 88	 push	 DWORD PTR _op5$[ebp]
  00309	56		 push	 esi
  0030a	e8 00 00 00 00	 call	 ?gObjSetItemPlusSpecial@@YAXPAUOBJECTSTRUCT@@HH@Z ; gObjSetItemPlusSpecial
  0030f	83 c4 3c	 add	 esp, 60			; 0000003cH
$LN37@gObjCalcSe:
  00312	8b 45 a8	 mov	 eax, DWORD PTR _optioncount$2$[ebp]
$LN8@gObjCalcSe:

; 1484 : 			}		
; 1485 : 		}
; 1486 : 	}
; 1487 : 
; 1488 : 	for ( optioncount=0;optioncount<SetOptionCount;optioncount++)

  00315	40		 inc	 eax
  00316	89 45 a8	 mov	 DWORD PTR _optioncount$2$[ebp], eax
  00319	3b 45 a0	 cmp	 eax, DWORD PTR _SetOptionCount$[ebp]
  0031c	0f 8c ae fe ff
	ff		 jl	 $LL10@gObjCalcSe
$LN9@gObjCalcSe:

; 1523 : 			}		
; 1524 : 		}
; 1525 : 	}
; 1526 : }

  00322	8b 4d fc	 mov	 ecx, DWORD PTR __$ArrayPad$[ebp]
  00325	5f		 pop	 edi
  00326	5e		 pop	 esi
  00327	33 cd		 xor	 ecx, ebp
  00329	5b		 pop	 ebx
  0032a	e8 00 00 00 00	 call	 @__security_check_cookie@4
  0032f	8b e5		 mov	 esp, ebp
  00331	5d		 pop	 ebp
  00332	c3		 ret	 0
?gObjCalcSetItemOption@@YAXPAUOBJECTSTRUCT@@@Z ENDP	; gObjCalcSetItemOption
_TEXT	ENDS
; Function compile flags: /Ogtp
; File c:\users\michel\desktop\source\gameserver\source\objcalcharacter.cpp
;	COMDAT ?gObjGetSetItemOption@@YAXPAUOBJECTSTRUCT@@PAE1PAH@Z
_TEXT	SEGMENT
_RightSetOptionIndex$1$ = -4				; size = 4
_lpObj$ = 8						; size = 4
_pSetOptionTable$ = 12					; size = 4
_pSetOptionCountTable$ = 16				; size = 4
_pSetOptionCount$ = 20					; size = 4
?gObjGetSetItemOption@@YAXPAUOBJECTSTRUCT@@PAE1PAH@Z PROC ; gObjGetSetItemOption, COMDAT

; 1360 : {

  00000	55		 push	 ebp
  00001	8b ec		 mov	 ebp, esp
  00003	51		 push	 ecx

; 1361 : 	*pSetOptionCount = 0;

  00004	8b 45 14	 mov	 eax, DWORD PTR _pSetOptionCount$[ebp]
  00007	53		 push	 ebx
  00008	8b 5d 08	 mov	 ebx, DWORD PTR _lpObj$[ebp]
  0000b	56		 push	 esi
  0000c	57		 push	 edi
  0000d	c7 00 00 00 00
	00		 mov	 DWORD PTR [eax], 0

; 1362 : 	int RightSetOptionIndex = -1;
; 1363 : 	int RightRingSetOptionIndex = -1;
; 1364 : 
; 1365 : 	for ( int i=0;i<INVETORY_WEAR_SIZE;i++)

  00013	33 ff		 xor	 edi, edi
  00015	c7 45 fc ff ff
	ff ff		 mov	 DWORD PTR _RightSetOptionIndex$1$[ebp], -1
  0001c	0f 1f 40 00	 npad	 4
$LL4@gObjGetSet:

; 1366 : 	{
; 1367 : 		int iSetItemType = lpObj->pInventory[i].IsSetItem();

  00020	8b 8b c0 11 00
	00		 mov	 ecx, DWORD PTR [ebx+4544]
  00026	69 f7 d4 00 00
	00		 imul	 esi, edi, 212
  0002c	03 ce		 add	 ecx, esi
  0002e	e8 00 00 00 00	 call	 ?IsSetItem@CItem@@QAEHXZ ; CItem::IsSetItem

; 1368 : 
; 1369 : 		if ( iSetItemType )

  00033	85 c0		 test	 eax, eax
  00035	74 61		 je	 SHORT $LN2@gObjGetSet

; 1370 : 		{
; 1371 : 			if ( lpObj->pInventory[i].m_IsValidItem )

  00037	8b 8b c0 11 00
	00		 mov	 ecx, DWORD PTR [ebx+4544]
  0003d	80 bc 31 ac 00
	00 00 00	 cmp	 BYTE PTR [ecx+esi+172], 0
  00045	74 51		 je	 SHORT $LN2@gObjGetSet

; 1372 : 			{
; 1373 : 				int iSetItemOption = gSetItemOption.GetOptionTableIndex(lpObj->pInventory[i].m_Type, iSetItemType );

  00047	50		 push	 eax
  00048	0f bf 44 31 06	 movsx	 eax, WORD PTR [ecx+esi+6]
  0004d	b9 00 00 00 00	 mov	 ecx, OFFSET ?gSetItemOption@@3VCSetItemOption@@A ; gSetItemOption
  00052	50		 push	 eax
  00053	e8 00 00 00 00	 call	 ?GetOptionTableIndex@CSetItemOption@@QAEHHH@Z ; CSetItemOption::GetOptionTableIndex
  00058	8b d8		 mov	 ebx, eax

; 1374 : 
; 1375 : 				if ( iSetItemOption != -1 )

  0005a	83 fb ff	 cmp	 ebx, -1
  0005d	74 36		 je	 SHORT $LN34@gObjGetSet

; 1376 : 				{
; 1377 : 					if ( i == 0 )

  0005f	85 ff		 test	 edi, edi
  00061	75 42		 jne	 SHORT $LN11@gObjGetSet

; 1378 : 					{
; 1379 : 						RightSetOptionIndex = iSetItemOption;

  00063	89 5d fc	 mov	 DWORD PTR _RightSetOptionIndex$1$[ebp], ebx
$LN19@gObjGetSet:

; 1403 : 						}
; 1404 : 					}
; 1405 : 
; 1406 : 					BOOL bFound = FALSE;
; 1407 : 
; 1408 : 					for ( int n=0;n<*pSetOptionCount;n++)

  00066	8b 75 14	 mov	 esi, DWORD PTR _pSetOptionCount$[ebp]
  00069	33 c0		 xor	 eax, eax
  0006b	8b 16		 mov	 edx, DWORD PTR [esi]
  0006d	85 d2		 test	 edx, edx
  0006f	7e 14		 jle	 SHORT $LN33@gObjGetSet
$LL7@gObjGetSet:

; 1409 : 					{
; 1410 : 						if ( pSetOptionTable[n] == iSetItemOption )

  00071	8b 4d 0c	 mov	 ecx, DWORD PTR _pSetOptionTable$[ebp]
  00074	0f b6 0c 08	 movzx	 ecx, BYTE PTR [eax+ecx]
  00078	3b cb		 cmp	 ecx, ebx
  0007a	0f 84 d2 00 00
	00		 je	 $LN25@gObjGetSet

; 1403 : 						}
; 1404 : 					}
; 1405 : 
; 1406 : 					BOOL bFound = FALSE;
; 1407 : 
; 1408 : 					for ( int n=0;n<*pSetOptionCount;n++)

  00080	40		 inc	 eax
  00081	3b c2		 cmp	 eax, edx
  00083	7c ec		 jl	 SHORT $LL7@gObjGetSet
$LN33@gObjGetSet:

; 1419 : 					{
; 1420 : 						pSetOptionTable[*pSetOptionCount] = iSetItemOption;

  00085	8b 45 0c	 mov	 eax, DWORD PTR _pSetOptionTable$[ebp]

; 1421 : 						pSetOptionCountTable[*pSetOptionCount]++;

  00088	8b 4d 10	 mov	 ecx, DWORD PTR _pSetOptionCountTable$[ebp]
  0008b	88 1c 02	 mov	 BYTE PTR [edx+eax], bl
  0008e	8b 06		 mov	 eax, DWORD PTR [esi]
  00090	fe 04 08	 inc	 BYTE PTR [eax+ecx]

; 1422 : 						*pSetOptionCount += 1;

  00093	ff 06		 inc	 DWORD PTR [esi]
$LN34@gObjGetSet:
  00095	8b 5d 08	 mov	 ebx, DWORD PTR _lpObj$[ebp]
$LN2@gObjGetSet:

; 1362 : 	int RightSetOptionIndex = -1;
; 1363 : 	int RightRingSetOptionIndex = -1;
; 1364 : 
; 1365 : 	for ( int i=0;i<INVETORY_WEAR_SIZE;i++)

  00098	47		 inc	 edi
  00099	83 ff 0c	 cmp	 edi, 12			; 0000000cH
  0009c	7c 82		 jl	 SHORT $LL4@gObjGetSet
  0009e	5f		 pop	 edi
  0009f	5e		 pop	 esi
  000a0	5b		 pop	 ebx

; 1423 : 					}
; 1424 : 				}
; 1425 : 			}
; 1426 : 		}
; 1427 : 	}
; 1428 : }

  000a1	8b e5		 mov	 esp, ebp
  000a3	5d		 pop	 ebp
  000a4	c3		 ret	 0
$LN11@gObjGetSet:

; 1380 : 					}
; 1381 : 					else if ( i == 1  )

  000a5	83 ff 01	 cmp	 edi, 1
  000a8	75 53		 jne	 SHORT $LN15@gObjGetSet

; 1382 : 					{
; 1383 : 						if (  RightSetOptionIndex == iSetItemOption )

  000aa	39 5d fc	 cmp	 DWORD PTR _RightSetOptionIndex$1$[ebp], ebx
  000ad	75 b7		 jne	 SHORT $LN19@gObjGetSet

; 1384 : 						{
; 1385 : 							if ( lpObj->pInventory[0].GetWeaponType() == lpObj->pInventory[1].GetWeaponType() && lpObj->pInventory[0].IsSetItem() )

  000af	8b 4d 08	 mov	 ecx, DWORD PTR _lpObj$[ebp]
  000b2	8b 89 c0 11 00
	00		 mov	 ecx, DWORD PTR [ecx+4544]
  000b8	81 c1 d4 00 00
	00		 add	 ecx, 212		; 000000d4H
  000be	e8 00 00 00 00	 call	 ?GetWeaponType@CItem@@QAEHXZ ; CItem::GetWeaponType
  000c3	8b f0		 mov	 esi, eax
  000c5	8b 45 08	 mov	 eax, DWORD PTR _lpObj$[ebp]
  000c8	8b 88 c0 11 00
	00		 mov	 ecx, DWORD PTR [eax+4544]
  000ce	e8 00 00 00 00	 call	 ?GetWeaponType@CItem@@QAEHXZ ; CItem::GetWeaponType
  000d3	3b c6		 cmp	 eax, esi
  000d5	75 8f		 jne	 SHORT $LN19@gObjGetSet
  000d7	8b 45 08	 mov	 eax, DWORD PTR _lpObj$[ebp]
  000da	8b 88 c0 11 00
	00		 mov	 ecx, DWORD PTR [eax+4544]
  000e0	e8 00 00 00 00	 call	 ?IsSetItem@CItem@@QAEHXZ ; CItem::IsSetItem
  000e5	85 c0		 test	 eax, eax
  000e7	0f 84 79 ff ff
	ff		 je	 $LN19@gObjGetSet

; 1386 : 							{
; 1387 : 								LogAddTD("    ...");

  000ed	68 00 00 00 00	 push	 OFFSET ??_C@_0CG@MJJCFDMJ@?$LO?g?$LM?U?$LP?$KB?5?$LA?$LA?$MA?$LK?5?$LM?$LM?F?$KO?$LA?$KB?5?$MA?$PL?$LP?k?$LF?G?$LO?z?$LE?Y?5?$LJ?$KL@
  000f2	ff 15 00 00 00
	00		 call	 DWORD PTR ?LogAddTD@@3P6AXPADZZA ; LogAddTD
  000f8	83 c4 04	 add	 esp, 4

; 1388 : 								continue;

  000fb	eb 98		 jmp	 SHORT $LN34@gObjGetSet
$LN15@gObjGetSet:

; 1389 : 							}
; 1390 : 						}
; 1391 : 					}
; 1392 : 					
; 1393 : 					if ( i == 10 )

  000fd	83 ff 0a	 cmp	 edi, 10			; 0000000aH
  00100	0f 84 60 ff ff
	ff		 je	 $LN19@gObjGetSet

; 1394 : 					{
; 1395 : 						RightRingSetOptionIndex = iSetItemOption;
; 1396 : 					}
; 1397 : 					else if ( i == 11   )

  00106	83 ff 0b	 cmp	 edi, 11			; 0000000bH
  00109	0f 85 57 ff ff
	ff		 jne	 $LN19@gObjGetSet

; 1398 : 					{
; 1399 : 						if ( lpObj->pInventory[10].m_Type == lpObj->pInventory[11].m_Type && lpObj->pInventory[10].IsSetItem() )

  0010f	8b 45 08	 mov	 eax, DWORD PTR _lpObj$[ebp]
  00112	8b 88 c0 11 00
	00		 mov	 ecx, DWORD PTR [eax+4544]
  00118	66 8b 81 4e 08
	00 00		 mov	 ax, WORD PTR [ecx+2126]
  0011f	66 3b 81 22 09
	00 00		 cmp	 ax, WORD PTR [ecx+2338]
  00126	0f 85 3a ff ff
	ff		 jne	 $LN19@gObjGetSet
  0012c	81 c1 48 08 00
	00		 add	 ecx, 2120		; 00000848H
  00132	e8 00 00 00 00	 call	 ?IsSetItem@CItem@@QAEHXZ ; CItem::IsSetItem
  00137	85 c0		 test	 eax, eax
  00139	0f 84 27 ff ff
	ff		 je	 $LN19@gObjGetSet

; 1400 : 						{
; 1401 : 							LogAddTD("    ...");

  0013f	68 00 00 00 00	 push	 OFFSET ??_C@_0CG@HNELGANH@?$LJ?$NN?A?v?$LP?$KB?5?$LA?$LA?$MA?$LK?5?$LM?$LM?F?$KO?$LA?$KB?5?$MA?$PL?$LP?k?$LF?G?$LO?z?$LE?Y?5?$LJ?$KL@
  00144	ff 15 00 00 00
	00		 call	 DWORD PTR ?LogAddTD@@3P6AXPADZZA ; LogAddTD
  0014a	83 c4 04	 add	 esp, 4

; 1402 : 							continue;

  0014d	e9 43 ff ff ff	 jmp	 $LN34@gObjGetSet
$LN25@gObjGetSet:

; 1411 : 						{
; 1412 : 							pSetOptionCountTable[n]++;

  00152	8b 4d 10	 mov	 ecx, DWORD PTR _pSetOptionCountTable$[ebp]
  00155	fe 04 08	 inc	 BYTE PTR [eax+ecx]

; 1413 : 							bFound = TRUE;
; 1414 : 							break;
; 1415 : 						}
; 1416 : 					}
; 1417 : 
; 1418 : 					if ( bFound == FALSE )

  00158	e9 38 ff ff ff	 jmp	 $LN34@gObjGetSet
?gObjGetSetItemOption@@YAXPAUOBJECTSTRUCT@@PAE1PAH@Z ENDP ; gObjGetSetItemOption
_TEXT	ENDS
; Function compile flags: /Ogtp
; File c:\users\michel\desktop\source\gameserver\source\objcalcharacter.cpp
;	COMDAT ?gObjCalcSetItemStat@@YAXPAUOBJECTSTRUCT@@@Z
_TEXT	SEGMENT
_lpObj$ = 8						; size = 4
?gObjCalcSetItemStat@@YAXPAUOBJECTSTRUCT@@@Z PROC	; gObjCalcSetItemStat, COMDAT

; 1329 : {

  00000	55		 push	 ebp
  00001	8b ec		 mov	 ebp, esp
  00003	56		 push	 esi
  00004	57		 push	 edi
  00005	8b 7d 08	 mov	 edi, DWORD PTR _lpObj$[ebp]

; 1330 : 	for ( int i=0;i<INVETORY_WEAR_SIZE;i++)

  00008	33 f6		 xor	 esi, esi
  0000a	66 0f 1f 44 00
	00		 npad	 6
$LL4@gObjCalcSe:

; 1331 : 	{
; 1332 : 		if ( lpObj->pInventory[i].IsSetItem() && lpObj->pInventory[i].m_IsValidItem && lpObj->pInventory[i].m_Durability != 0.0f )

  00010	8b 8f c0 11 00
	00		 mov	 ecx, DWORD PTR [edi+4544]
  00016	03 ce		 add	 ecx, esi
  00018	e8 00 00 00 00	 call	 ?IsSetItem@CItem@@QAEHXZ ; CItem::IsSetItem
  0001d	85 c0		 test	 eax, eax
  0001f	74 74		 je	 SHORT $LN2@gObjCalcSe
  00021	8b 8f c0 11 00
	00		 mov	 ecx, DWORD PTR [edi+4544]
  00027	03 ce		 add	 ecx, esi
  00029	80 b9 ac 00 00
	00 00		 cmp	 BYTE PTR [ecx+172], 0
  00030	74 63		 je	 SHORT $LN2@gObjCalcSe
  00032	f3 0f 10 41 24	 movss	 xmm0, DWORD PTR [ecx+36]
  00037	0f 57 c9	 xorps	 xmm1, xmm1
  0003a	0f 2e c1	 ucomiss xmm0, xmm1
  0003d	9f		 lahf
  0003e	f6 c4 44	 test	 ah, 68			; 00000044H
  00041	7b 52		 jnp	 SHORT $LN2@gObjCalcSe

; 1333 : 		{
; 1334 : 			int AddStatType = lpObj->pInventory[i].GetAddStatType();

  00043	e8 00 00 00 00	 call	 ?GetAddStatType@CItem@@QAEHXZ ; CItem::GetAddStatType

; 1335 : 
; 1336 : 			switch ( AddStatType )

  00048	48		 dec	 eax
  00049	83 f8 03	 cmp	 eax, 3
  0004c	77 47		 ja	 SHORT $LN2@gObjCalcSe
  0004e	ff 24 85 00 00
	00 00		 jmp	 DWORD PTR $LN19@gObjCalcSe[eax*4]
$LN8@gObjCalcSe:

; 1337 : 			{
; 1338 : 				case 1:
; 1339 : 					lpObj->pInventory[i].SetItemPlusSpecialStat(&lpObj->AddStrength, 196);

  00055	68 c4 00 00 00	 push	 196			; 000000c4H
  0005a	8d 87 fc 00 00
	00		 lea	 eax, DWORD PTR [edi+252]

; 1340 : 					break;

  00060	eb 25		 jmp	 SHORT $LN17@gObjCalcSe
$LN9@gObjCalcSe:

; 1341 : 				case 2:
; 1342 : 					lpObj->pInventory[i].SetItemPlusSpecialStat(&lpObj->AddDexterity, 197);

  00062	68 c5 00 00 00	 push	 197			; 000000c5H
  00067	8d 87 fe 00 00
	00		 lea	 eax, DWORD PTR [edi+254]

; 1343 : 					break;

  0006d	eb 18		 jmp	 SHORT $LN17@gObjCalcSe
$LN10@gObjCalcSe:

; 1344 : 				case 3:
; 1345 : 					lpObj->pInventory[i].SetItemPlusSpecialStat(&lpObj->AddEnergy, 198);

  0006f	68 c6 00 00 00	 push	 198			; 000000c6H
  00074	8d 87 02 01 00
	00		 lea	 eax, DWORD PTR [edi+258]

; 1346 : 					break;

  0007a	eb 0b		 jmp	 SHORT $LN17@gObjCalcSe
$LN11@gObjCalcSe:

; 1347 : 				case 4:
; 1348 : 					lpObj->pInventory[i].SetItemPlusSpecialStat(&lpObj->AddVitality, 199);

  0007c	68 c7 00 00 00	 push	 199			; 000000c7H
  00081	8d 87 00 01 00
	00		 lea	 eax, DWORD PTR [edi+256]
$LN17@gObjCalcSe:
  00087	8b 8f c0 11 00
	00		 mov	 ecx, DWORD PTR [edi+4544]
  0008d	50		 push	 eax
  0008e	03 ce		 add	 ecx, esi
  00090	e8 00 00 00 00	 call	 ?SetItemPlusSpecialStat@CItem@@QAEXPAGH@Z ; CItem::SetItemPlusSpecialStat
$LN2@gObjCalcSe:

; 1330 : 	for ( int i=0;i<INVETORY_WEAR_SIZE;i++)

  00095	81 c6 d4 00 00
	00		 add	 esi, 212		; 000000d4H
  0009b	81 fe f0 09 00
	00		 cmp	 esi, 2544		; 000009f0H
  000a1	0f 8c 69 ff ff
	ff		 jl	 $LL4@gObjCalcSe
  000a7	5f		 pop	 edi
  000a8	5e		 pop	 esi

; 1349 : 					break;
; 1350 : 			}
; 1351 : 		}
; 1352 : 	}
; 1353 : }

  000a9	5d		 pop	 ebp
  000aa	c3		 ret	 0
  000ab	90		 npad	 1
$LN19@gObjCalcSe:
  000ac	00 00 00 00	 DD	 $LN8@gObjCalcSe
  000b0	00 00 00 00	 DD	 $LN9@gObjCalcSe
  000b4	00 00 00 00	 DD	 $LN10@gObjCalcSe
  000b8	00 00 00 00	 DD	 $LN11@gObjCalcSe
?gObjCalcSetItemStat@@YAXPAUOBJECTSTRUCT@@@Z ENDP	; gObjCalcSetItemStat
_TEXT	ENDS
; Function compile flags: /Ogtp
; File c:\users\michel\desktop\source\gameserver\source\objcalcharacter.cpp
;	COMDAT ?GObjExtItemApply@@YAXPAUOBJECTSTRUCT@@@Z
_TEXT	SEGMENT
tv433 = -76						; size = 4
_maxn2_loop$1$ = -72					; size = 4
_n$1$ = -68						; size = 4
_i$2$ = -64						; size = 4
_i$1$ = -64						; size = 4
_max_count$1$ = -60					; size = 4
_temp_n2$ = -56						; size = 40
_temp_n$ = -16						; size = 12
__$ArrayPad$ = -4					; size = 4
_lpObj$ = 8						; size = 4
?GObjExtItemApply@@YAXPAUOBJECTSTRUCT@@@Z PROC		; GObjExtItemApply, COMDAT

; 1208 : {

  00000	55		 push	 ebp
  00001	8b ec		 mov	 ebp, esp
  00003	83 ec 4c	 sub	 esp, 76			; 0000004cH
  00006	a1 00 00 00 00	 mov	 eax, DWORD PTR ___security_cookie
  0000b	33 c5		 xor	 eax, ebp
  0000d	89 45 fc	 mov	 DWORD PTR __$ArrayPad$[ebp], eax
  00010	0f 28 05 00 00
	00 00		 movaps	 xmm0, XMMWORD PTR __xmm@00000005000000040000000300000002

; 1209 : 
; 1210 : 	int n;
; 1211 : 	int i;
; 1212 : 	int max_count = 0;
; 1213 : 	int temp_n[3] = {0, 1, 9};
; 1214 : 	int temp_n2[10] = {2, 3, 4, 5, 6, 7, 8, 10, 11, 1};
; 1215 : 	int maxn2_loop = 9;
; 1216 : 
; 1217 : 	for ( i=0;i<3;i++ )

  00017	33 c0		 xor	 eax, eax
  00019	53		 push	 ebx
  0001a	56		 push	 esi
  0001b	0f 11 45 c8	 movups	 XMMWORD PTR _temp_n2$[ebp], xmm0
  0001f	ba 00 0c 00 00	 mov	 edx, 3072		; 00000c00H
  00024	c7 45 c4 00 00
	00 00		 mov	 DWORD PTR _max_count$1$[ebp], 0
  0002b	0f 28 05 00 00
	00 00		 movaps	 xmm0, XMMWORD PTR __xmm@0000000a000000080000000700000006
  00032	57		 push	 edi
  00033	8b 7d 08	 mov	 edi, DWORD PTR _lpObj$[ebp]
  00036	c7 45 f0 00 00
	00 00		 mov	 DWORD PTR _temp_n$[ebp], 0
  0003d	c7 45 f4 01 00
	00 00		 mov	 DWORD PTR _temp_n$[ebp+4], 1
  00044	c7 45 f8 09 00
	00 00		 mov	 DWORD PTR _temp_n$[ebp+8], 9
  0004b	0f 11 45 d8	 movups	 XMMWORD PTR _temp_n2$[ebp+16], xmm0
  0004f	c7 45 e8 0b 00
	00 00		 mov	 DWORD PTR _temp_n2$[ebp+32], 11 ; 0000000bH
  00056	c7 45 ec 01 00
	00 00		 mov	 DWORD PTR _temp_n2$[ebp+36], 1
  0005d	c7 45 b8 09 00
	00 00		 mov	 DWORD PTR _maxn2_loop$1$[ebp], 9
  00064	89 45 c0	 mov	 DWORD PTR _i$1$[ebp], eax
  00067	c7 45 b4 00 0e
	00 00		 mov	 DWORD PTR tv433[ebp], 3584 ; 00000e00H
  0006e	66 90		 npad	 2
$LL4@GObjExtIte:

; 1218 : 	{
; 1219 : 		n = temp_n[i];

  00070	8b 74 85 f0	 mov	 esi, DWORD PTR _temp_n$[ebp+eax*4]

; 1220 : 
; 1221 : 		if ( lpObj->pInventory[n].m_Type >= ITEMGET(6, 0) && lpObj->pInventory[n].m_Type < ITEMGET(7, 0) )

  00074	8b 8f c0 11 00
	00		 mov	 ecx, DWORD PTR [edi+4544]
  0007a	69 de d4 00 00
	00		 imul	 ebx, esi, 212
  00080	03 cb		 add	 ecx, ebx
  00082	89 75 bc	 mov	 DWORD PTR _n$1$[ebp], esi
  00085	0f b7 41 06	 movzx	 eax, WORD PTR [ecx+6]
  00089	66 3b c2	 cmp	 ax, dx
  0008c	7c 0a		 jl	 SHORT $LN8@GObjExtIte
  0008e	66 3b 45 b4	 cmp	 ax, WORD PTR tv433[ebp]
  00092	0f 8c 8b 03 00
	00		 jl	 $LN2@GObjExtIte
$LN8@GObjExtIte:

; 1222 : 			continue;
; 1223 : 
; 1224 : 		if ( lpObj->pInventory[n].IsItem() == TRUE )

  00098	e8 00 00 00 00	 call	 ?IsItem@CItem@@QAEHXZ	; CItem::IsItem
  0009d	83 f8 01	 cmp	 eax, 1
  000a0	0f 85 78 03 00
	00		 jne	 $LN51@GObjExtIte

; 1225 : 		{
; 1226 : 			if ( lpObj->pInventory[n].m_Durability != 0.0f )

  000a6	8b 8f c0 11 00
	00		 mov	 ecx, DWORD PTR [edi+4544]
  000ac	0f 57 c9	 xorps	 xmm1, xmm1
  000af	03 cb		 add	 ecx, ebx
  000b1	f3 0f 10 41 24	 movss	 xmm0, DWORD PTR [ecx+36]
  000b6	0f 2e c1	 ucomiss xmm0, xmm1
  000b9	9f		 lahf
  000ba	f6 c4 44	 test	 ah, 68			; 00000044H
  000bd	0f 8b 5b 03 00
	00		 jnp	 $LN51@GObjExtIte

; 1227 : 			{
; 1228 : 				if ( lpObj->pInventory[n].m_IsValidItem == true )

  000c3	80 b9 ac 00 00
	00 01		 cmp	 BYTE PTR [ecx+172], 1
  000ca	0f 85 4e 03 00
	00		 jne	 $LN51@GObjExtIte

; 1229 : 				{
; 1230 : 					if ( lpObj->pInventory[n].IsExtAttackRate() )

  000d0	e8 00 00 00 00	 call	 ?IsExtAttackRate@CItem@@QAEHXZ ; CItem::IsExtAttackRate
  000d5	85 c0		 test	 eax, eax
  000d7	0f 84 4d 01 00
	00		 je	 $LN19@GObjExtIte

; 1231 : 					{
; 1232 : 						if ( ( lpObj->pInventory[n].m_Type >= ITEMGET(5, 0) && lpObj->pInventory[n].m_Type < ITEMGET(6, 0) ) ||
; 1233 : 							lpObj->pInventory[n].m_Type == ITEMGET(13,12) ||
; 1234 : 							lpObj->pInventory[n].m_Type == ITEMGET(13,25) ||

  000dd	8b 8f c0 11 00
	00		 mov	 ecx, DWORD PTR [edi+4544]
  000e3	ba 00 0a 00 00	 mov	 edx, 2560		; 00000a00H
  000e8	03 cb		 add	 ecx, ebx
  000ea	0f b7 41 06	 movzx	 eax, WORD PTR [ecx+6]
  000ee	66 3b c2	 cmp	 ax, dx
  000f1	7c 0e		 jl	 SHORT $LN16@GObjExtIte
  000f3	ba 00 0c 00 00	 mov	 edx, 3072		; 00000c00H
  000f8	66 3b c2	 cmp	 ax, dx
  000fb	0f 8c de 00 00
	00		 jl	 $LN15@GObjExtIte
$LN16@GObjExtIte:
  00101	ba 0c 1a 00 00	 mov	 edx, 6668		; 00001a0cH
  00106	66 3b c2	 cmp	 ax, dx
  00109	0f 84 d0 00 00
	00		 je	 $LN15@GObjExtIte
  0010f	ba 19 1a 00 00	 mov	 edx, 6681		; 00001a19H
  00114	66 3b c2	 cmp	 ax, dx
  00117	0f 84 c2 00 00
	00		 je	 $LN15@GObjExtIte
  0011d	ba 1b 1a 00 00	 mov	 edx, 6683		; 00001a1bH
  00122	66 3b c2	 cmp	 ax, dx
  00125	0f 84 b4 00 00
	00		 je	 $LN15@GObjExtIte

; 1239 : 						}
; 1240 : 						else 
; 1241 : 						{
; 1242 : 							if ( n == 0 || n == 9 )

  0012b	85 f6		 test	 esi, esi
  0012d	74 05		 je	 SHORT $LN18@GObjExtIte
  0012f	83 fe 09	 cmp	 esi, 9
  00132	75 4b		 jne	 SHORT $LN17@GObjExtIte
$LN18@GObjExtIte:

; 1243 : 							{
; 1244 : 								lpObj->m_AttackDamageMinRight += (lpObj->Level + lpObj->MasterLevel) / lpObj->pInventory[n].IsExtAttackRate();

  00134	e8 00 00 00 00	 call	 ?IsExtAttackRate@CItem@@QAEHXZ ; CItem::IsExtAttackRate
  00139	0f bf 8f 96 00
	00 00		 movsx	 ecx, WORD PTR [edi+150]
  00140	8b f0		 mov	 esi, eax
  00142	0f bf 87 a8 00
	00 00		 movsx	 eax, WORD PTR [edi+168]
  00149	03 c1		 add	 eax, ecx

; 1245 : 								lpObj->m_AttackDamageMaxRight += (lpObj->Level + lpObj->MasterLevel) / lpObj->pInventory[n].IsExtAttackRate();

  0014b	8b 8f c0 11 00
	00		 mov	 ecx, DWORD PTR [edi+4544]
  00151	99		 cdq
  00152	03 cb		 add	 ecx, ebx
  00154	f7 fe		 idiv	 esi
  00156	01 87 64 06 00
	00		 add	 DWORD PTR [edi+1636], eax
  0015c	e8 00 00 00 00	 call	 ?IsExtAttackRate@CItem@@QAEHXZ ; CItem::IsExtAttackRate
  00161	0f bf 8f 96 00
	00 00		 movsx	 ecx, WORD PTR [edi+150]
  00168	8b f0		 mov	 esi, eax
  0016a	0f bf 87 a8 00
	00 00		 movsx	 eax, WORD PTR [edi+168]
  00171	03 c1		 add	 eax, ecx
  00173	99		 cdq
  00174	f7 fe		 idiv	 esi
  00176	8b 75 bc	 mov	 esi, DWORD PTR _n$1$[ebp]
  00179	01 87 60 06 00
	00		 add	 DWORD PTR [edi+1632], eax
$LN17@GObjExtIte:

; 1246 : 							}
; 1247 : 							
; 1248 : 							if ( n == 1 || n == 9 )

  0017f	83 fe 01	 cmp	 esi, 1
  00182	74 09		 je	 SHORT $LN20@GObjExtIte
  00184	83 fe 09	 cmp	 esi, 9
  00187	0f 85 9d 00 00
	00		 jne	 $LN19@GObjExtIte
$LN20@GObjExtIte:

; 1249 : 							{
; 1250 : 								lpObj->m_AttackDamageMinLeft += (lpObj->Level + lpObj->MasterLevel) / lpObj->pInventory[n].IsExtAttackRate();

  0018d	8b 8f c0 11 00
	00		 mov	 ecx, DWORD PTR [edi+4544]
  00193	03 cb		 add	 ecx, ebx
  00195	e8 00 00 00 00	 call	 ?IsExtAttackRate@CItem@@QAEHXZ ; CItem::IsExtAttackRate
  0019a	0f bf 8f 96 00
	00 00		 movsx	 ecx, WORD PTR [edi+150]
  001a1	8b f0		 mov	 esi, eax
  001a3	0f bf 87 a8 00
	00 00		 movsx	 eax, WORD PTR [edi+168]
  001aa	03 c1		 add	 eax, ecx

; 1251 : 								lpObj->m_AttackDamageMaxLeft += (lpObj->Level + lpObj->MasterLevel) / lpObj->pInventory[n].IsExtAttackRate();

  001ac	8b 8f c0 11 00
	00		 mov	 ecx, DWORD PTR [edi+4544]
  001b2	99		 cdq
  001b3	03 cb		 add	 ecx, ebx
  001b5	f7 fe		 idiv	 esi
  001b7	01 87 5c 06 00
	00		 add	 DWORD PTR [edi+1628], eax
  001bd	e8 00 00 00 00	 call	 ?IsExtAttackRate@CItem@@QAEHXZ ; CItem::IsExtAttackRate
  001c2	0f bf 8f 96 00
	00 00		 movsx	 ecx, WORD PTR [edi+150]
  001c9	8b f0		 mov	 esi, eax
  001cb	0f bf 87 a8 00
	00 00		 movsx	 eax, WORD PTR [edi+168]
  001d2	03 c1		 add	 eax, ecx
  001d4	99		 cdq
  001d5	f7 fe		 idiv	 esi
  001d7	01 87 58 06 00
	00		 add	 DWORD PTR [edi+1624], eax
  001dd	eb 48		 jmp	 SHORT $LN52@GObjExtIte
$LN15@GObjExtIte:

; 1235 : 							lpObj->pInventory[n].m_Type == ITEMGET(13,27) )
; 1236 : 						{
; 1237 : 							lpObj->m_MagicDamageMax += (lpObj->Level + lpObj->MasterLevel) / lpObj->pInventory[n].IsExtAttackRate();

  001df	e8 00 00 00 00	 call	 ?IsExtAttackRate@CItem@@QAEHXZ ; CItem::IsExtAttackRate
  001e4	0f bf 8f 96 00
	00 00		 movsx	 ecx, WORD PTR [edi+150]
  001eb	8b f0		 mov	 esi, eax
  001ed	0f bf 87 a8 00
	00 00		 movsx	 eax, WORD PTR [edi+168]
  001f4	03 c1		 add	 eax, ecx

; 1238 : 							lpObj->m_MagicDamageMin += (lpObj->Level + lpObj->MasterLevel) / lpObj->pInventory[n].IsExtAttackRate();

  001f6	8b 8f c0 11 00
	00		 mov	 ecx, DWORD PTR [edi+4544]
  001fc	99		 cdq
  001fd	03 cb		 add	 ecx, ebx
  001ff	f7 fe		 idiv	 esi
  00201	01 87 4c 06 00
	00		 add	 DWORD PTR [edi+1612], eax
  00207	e8 00 00 00 00	 call	 ?IsExtAttackRate@CItem@@QAEHXZ ; CItem::IsExtAttackRate
  0020c	0f bf 8f 96 00
	00 00		 movsx	 ecx, WORD PTR [edi+150]
  00213	8b f0		 mov	 esi, eax
  00215	0f bf 87 a8 00
	00 00		 movsx	 eax, WORD PTR [edi+168]
  0021c	03 c1		 add	 eax, ecx
  0021e	99		 cdq
  0021f	f7 fe		 idiv	 esi
  00221	01 87 48 06 00
	00		 add	 DWORD PTR [edi+1608], eax
$LN52@GObjExtIte:
  00227	8b 75 bc	 mov	 esi, DWORD PTR _n$1$[ebp]
$LN19@GObjExtIte:

; 1252 : 							}
; 1253 : 						}
; 1254 : 					}
; 1255 : 
; 1256 : 					if ( lpObj->pInventory[n].IsExtAttackRate2() )

  0022a	8b 8f c0 11 00
	00		 mov	 ecx, DWORD PTR [edi+4544]
  00230	03 cb		 add	 ecx, ebx
  00232	e8 00 00 00 00	 call	 ?IsExtAttackRate2@CItem@@QAEHXZ ; CItem::IsExtAttackRate2
  00237	85 c0		 test	 eax, eax
  00239	0f 84 80 01 00
	00		 je	 $LN28@GObjExtIte

; 1257 : 					{
; 1258 : 						if ( ( lpObj->pInventory[n].m_Type >= ITEMGET(5, 0) && lpObj->pInventory[n].m_Type < ITEMGET(6, 0) ) ||
; 1259 : 							lpObj->pInventory[n].m_Type == ITEMGET(13,12) ||
; 1260 : 							lpObj->pInventory[n].m_Type == ITEMGET(13,25) ||

  0023f	8b 8f c0 11 00
	00		 mov	 ecx, DWORD PTR [edi+4544]
  00245	ba 00 0a 00 00	 mov	 edx, 2560		; 00000a00H
  0024a	03 cb		 add	 ecx, ebx
  0024c	0f b7 41 06	 movzx	 eax, WORD PTR [ecx+6]
  00250	66 3b c2	 cmp	 ax, dx
  00253	7c 0e		 jl	 SHORT $LN25@GObjExtIte
  00255	ba 00 0c 00 00	 mov	 edx, 3072		; 00000c00H
  0025a	66 3b c2	 cmp	 ax, dx
  0025d	0f 8c 02 01 00
	00		 jl	 $LN24@GObjExtIte
$LN25@GObjExtIte:
  00263	ba 0c 1a 00 00	 mov	 edx, 6668		; 00001a0cH
  00268	66 3b c2	 cmp	 ax, dx
  0026b	0f 84 f4 00 00
	00		 je	 $LN24@GObjExtIte
  00271	ba 19 1a 00 00	 mov	 edx, 6681		; 00001a19H
  00276	66 3b c2	 cmp	 ax, dx
  00279	0f 84 e6 00 00
	00		 je	 $LN24@GObjExtIte
  0027f	ba 1b 1a 00 00	 mov	 edx, 6683		; 00001a1bH
  00284	66 3b c2	 cmp	 ax, dx
  00287	0f 84 d8 00 00
	00		 je	 $LN24@GObjExtIte

; 1265 : 						}
; 1266 : 						else 
; 1267 : 						{
; 1268 : 							if ( n == 0 || n == 9 )

  0028d	85 f6		 test	 esi, esi
  0028f	74 05		 je	 SHORT $LN27@GObjExtIte
  00291	83 fe 09	 cmp	 esi, 9
  00294	75 5d		 jne	 SHORT $LN26@GObjExtIte
$LN27@GObjExtIte:

; 1269 : 							{
; 1270 : 								lpObj->m_AttackDamageMinRight += lpObj->m_AttackDamageMinRight * lpObj->pInventory[n].IsExtAttackRate2() / 100;

  00296	8b b7 64 06 00
	00		 mov	 esi, DWORD PTR [edi+1636]
  0029c	e8 00 00 00 00	 call	 ?IsExtAttackRate2@CItem@@QAEHXZ ; CItem::IsExtAttackRate2
  002a1	8b c8		 mov	 ecx, eax
  002a3	b8 1f 85 eb 51	 mov	 eax, 1374389535		; 51eb851fH
  002a8	0f af ce	 imul	 ecx, esi
  002ab	f7 e9		 imul	 ecx

; 1271 : 								lpObj->m_AttackDamageMaxRight += lpObj->m_AttackDamageMaxRight * lpObj->pInventory[n].IsExtAttackRate2() / 100;

  002ad	8b 8f c0 11 00
	00		 mov	 ecx, DWORD PTR [edi+4544]
  002b3	c1 fa 05	 sar	 edx, 5
  002b6	03 cb		 add	 ecx, ebx
  002b8	8b c2		 mov	 eax, edx
  002ba	c1 e8 1f	 shr	 eax, 31			; 0000001fH
  002bd	03 c2		 add	 eax, edx
  002bf	03 c6		 add	 eax, esi
  002c1	8b b7 60 06 00
	00		 mov	 esi, DWORD PTR [edi+1632]
  002c7	89 87 64 06 00
	00		 mov	 DWORD PTR [edi+1636], eax
  002cd	e8 00 00 00 00	 call	 ?IsExtAttackRate2@CItem@@QAEHXZ ; CItem::IsExtAttackRate2
  002d2	8b c8		 mov	 ecx, eax
  002d4	b8 1f 85 eb 51	 mov	 eax, 1374389535		; 51eb851fH
  002d9	0f af ce	 imul	 ecx, esi
  002dc	f7 e9		 imul	 ecx
  002de	c1 fa 05	 sar	 edx, 5
  002e1	8b c2		 mov	 eax, edx
  002e3	c1 e8 1f	 shr	 eax, 31			; 0000001fH
  002e6	03 c2		 add	 eax, edx
  002e8	03 c6		 add	 eax, esi
  002ea	8b 75 bc	 mov	 esi, DWORD PTR _n$1$[ebp]
  002ed	89 87 60 06 00
	00		 mov	 DWORD PTR [edi+1632], eax
$LN26@GObjExtIte:

; 1272 : 							}
; 1273 : 							
; 1274 : 							if ( n == 1 || n == 9 )

  002f3	83 fe 01	 cmp	 esi, 1
  002f6	74 09		 je	 SHORT $LN29@GObjExtIte
  002f8	83 fe 09	 cmp	 esi, 9
  002fb	0f 85 be 00 00
	00		 jne	 $LN28@GObjExtIte
$LN29@GObjExtIte:

; 1275 : 							{
; 1276 : 								lpObj->m_AttackDamageMinLeft += lpObj->m_AttackDamageMinLeft * lpObj->pInventory[n].IsExtAttackRate2() / 100;

  00301	8b 8f c0 11 00
	00		 mov	 ecx, DWORD PTR [edi+4544]
  00307	8b b7 5c 06 00
	00		 mov	 esi, DWORD PTR [edi+1628]
  0030d	03 cb		 add	 ecx, ebx
  0030f	e8 00 00 00 00	 call	 ?IsExtAttackRate2@CItem@@QAEHXZ ; CItem::IsExtAttackRate2
  00314	8b c8		 mov	 ecx, eax
  00316	b8 1f 85 eb 51	 mov	 eax, 1374389535		; 51eb851fH
  0031b	0f af ce	 imul	 ecx, esi
  0031e	f7 e9		 imul	 ecx

; 1277 : 								lpObj->m_AttackDamageMaxLeft += lpObj->m_AttackDamageMaxLeft * lpObj->pInventory[n].IsExtAttackRate2() / 100;

  00320	8b 8f c0 11 00
	00		 mov	 ecx, DWORD PTR [edi+4544]
  00326	c1 fa 05	 sar	 edx, 5
  00329	03 cb		 add	 ecx, ebx
  0032b	8b c2		 mov	 eax, edx
  0032d	c1 e8 1f	 shr	 eax, 31			; 0000001fH
  00330	03 c2		 add	 eax, edx
  00332	03 c6		 add	 eax, esi
  00334	8b b7 58 06 00
	00		 mov	 esi, DWORD PTR [edi+1624]
  0033a	89 87 5c 06 00
	00		 mov	 DWORD PTR [edi+1628], eax
  00340	e8 00 00 00 00	 call	 ?IsExtAttackRate2@CItem@@QAEHXZ ; CItem::IsExtAttackRate2
  00345	8b c8		 mov	 ecx, eax
  00347	b8 1f 85 eb 51	 mov	 eax, 1374389535		; 51eb851fH
  0034c	0f af ce	 imul	 ecx, esi
  0034f	f7 e9		 imul	 ecx
  00351	c1 fa 05	 sar	 edx, 5
  00354	8b c2		 mov	 eax, edx
  00356	c1 e8 1f	 shr	 eax, 31			; 0000001fH
  00359	03 c2		 add	 eax, edx
  0035b	03 c6		 add	 eax, esi
  0035d	89 87 58 06 00
	00		 mov	 DWORD PTR [edi+1624], eax
  00363	eb 5a		 jmp	 SHORT $LN28@GObjExtIte
$LN24@GObjExtIte:

; 1261 : 							lpObj->pInventory[n].m_Type == ITEMGET(13,27) )
; 1262 : 						{
; 1263 : 							lpObj->m_MagicDamageMax += lpObj->m_MagicDamageMax * lpObj->pInventory[n].IsExtAttackRate2() / 100;

  00365	8b b7 4c 06 00
	00		 mov	 esi, DWORD PTR [edi+1612]
  0036b	e8 00 00 00 00	 call	 ?IsExtAttackRate2@CItem@@QAEHXZ ; CItem::IsExtAttackRate2
  00370	8b c8		 mov	 ecx, eax
  00372	b8 1f 85 eb 51	 mov	 eax, 1374389535		; 51eb851fH
  00377	0f af ce	 imul	 ecx, esi
  0037a	f7 e9		 imul	 ecx

; 1264 : 							lpObj->m_MagicDamageMin += lpObj->m_MagicDamageMin * lpObj->pInventory[n].IsExtAttackRate2() / 100;

  0037c	8b 8f c0 11 00
	00		 mov	 ecx, DWORD PTR [edi+4544]
  00382	c1 fa 05	 sar	 edx, 5
  00385	03 cb		 add	 ecx, ebx
  00387	8b c2		 mov	 eax, edx
  00389	c1 e8 1f	 shr	 eax, 31			; 0000001fH
  0038c	03 c2		 add	 eax, edx
  0038e	03 c6		 add	 eax, esi
  00390	8b b7 48 06 00
	00		 mov	 esi, DWORD PTR [edi+1608]
  00396	89 87 4c 06 00
	00		 mov	 DWORD PTR [edi+1612], eax
  0039c	e8 00 00 00 00	 call	 ?IsExtAttackRate2@CItem@@QAEHXZ ; CItem::IsExtAttackRate2
  003a1	8b c8		 mov	 ecx, eax
  003a3	b8 1f 85 eb 51	 mov	 eax, 1374389535		; 51eb851fH
  003a8	0f af ce	 imul	 ecx, esi
  003ab	f7 e9		 imul	 ecx
  003ad	c1 fa 05	 sar	 edx, 5
  003b0	8b c2		 mov	 eax, edx
  003b2	c1 e8 1f	 shr	 eax, 31			; 0000001fH
  003b5	03 c2		 add	 eax, edx
  003b7	03 c6		 add	 eax, esi
  003b9	89 87 48 06 00
	00		 mov	 DWORD PTR [edi+1608], eax
$LN28@GObjExtIte:

; 1278 : 							}
; 1279 : 						}
; 1280 : 					}
; 1281 : 
; 1282 : 					lpObj->m_ExcelentDamage += lpObj->pInventory[n].IsExtExcellentDamage();

  003bf	8b 8f c0 11 00
	00		 mov	 ecx, DWORD PTR [edi+4544]
  003c5	03 cb		 add	 ecx, ebx
  003c7	e8 00 00 00 00	 call	 ?IsExtExcellentDamage@CItem@@QAEHXZ ; CItem::IsExtExcellentDamage

; 1283 : 					lpObj->m_AttackSpeed += lpObj->pInventory[n].IsExtAttackSpeed();

  003cc	8b 8f c0 11 00
	00		 mov	 ecx, DWORD PTR [edi+4544]
  003d2	01 87 a0 06 00
	00		 add	 DWORD PTR [edi+1696], eax
  003d8	03 cb		 add	 ecx, ebx
  003da	e8 00 00 00 00	 call	 ?IsExtAttackSpeed@CItem@@QAEHXZ ; CItem::IsExtAttackSpeed

; 1284 : 					lpObj->m_MagicSpeed += lpObj->pInventory[n].IsExtAttackSpeed();

  003df	8b 8f c0 11 00
	00		 mov	 ecx, DWORD PTR [edi+4544]
  003e5	01 87 6c 06 00
	00		 add	 DWORD PTR [edi+1644], eax
  003eb	03 cb		 add	 ecx, ebx
  003ed	e8 00 00 00 00	 call	 ?IsExtAttackSpeed@CItem@@QAEHXZ ; CItem::IsExtAttackSpeed

; 1285 : 					lpObj->MonsterDieGetLife += lpObj->pInventory[n].IsExtMonsterDieLife();

  003f2	8b 8f c0 11 00
	00		 mov	 ecx, DWORD PTR [edi+4544]
  003f8	01 87 70 06 00
	00		 add	 DWORD PTR [edi+1648], eax
  003fe	03 cb		 add	 ecx, ebx
  00400	e8 00 00 00 00	 call	 ?IsExtMonsterDieLife@CItem@@QAEHXZ ; CItem::IsExtMonsterDieLife

; 1286 : 					lpObj->MonsterDieGetMana += lpObj->pInventory[n].IsExtMonsterDieMana();

  00405	8b 8f c0 11 00
	00		 mov	 ecx, DWORD PTR [edi+4544]
  0040b	00 87 4c 01 00
	00		 add	 BYTE PTR [edi+332], al
  00411	03 cb		 add	 ecx, ebx
  00413	e8 00 00 00 00	 call	 ?IsExtMonsterDieMana@CItem@@QAEHXZ ; CItem::IsExtMonsterDieMana
  00418	00 87 4d 01 00
	00		 add	 BYTE PTR [edi+333], al
$LN51@GObjExtIte:
  0041e	ba 00 0c 00 00	 mov	 edx, 3072		; 00000c00H
$LN2@GObjExtIte:

; 1209 : 
; 1210 : 	int n;
; 1211 : 	int i;
; 1212 : 	int max_count = 0;
; 1213 : 	int temp_n[3] = {0, 1, 9};
; 1214 : 	int temp_n2[10] = {2, 3, 4, 5, 6, 7, 8, 10, 11, 1};
; 1215 : 	int maxn2_loop = 9;
; 1216 : 
; 1217 : 	for ( i=0;i<3;i++ )

  00423	8b 45 c0	 mov	 eax, DWORD PTR _i$1$[ebp]
  00426	40		 inc	 eax
  00427	89 45 c0	 mov	 DWORD PTR _i$1$[ebp], eax
  0042a	83 f8 03	 cmp	 eax, 3
  0042d	0f 8c 3d fc ff
	ff		 jl	 $LL4@GObjExtIte

; 1287 : 				}
; 1288 : 			}
; 1289 : 		}
; 1290 : 	}
; 1291 : 		
; 1292 : 	if ( lpObj->pInventory[1].IsItem() == TRUE )

  00433	8b 8f c0 11 00
	00		 mov	 ecx, DWORD PTR [edi+4544]
  00439	81 c1 d4 00 00
	00		 add	 ecx, 212		; 000000d4H
  0043f	e8 00 00 00 00	 call	 ?IsItem@CItem@@QAEHXZ	; CItem::IsItem
  00444	83 f8 01	 cmp	 eax, 1
  00447	75 2f		 jne	 SHORT $LN31@GObjExtIte

; 1293 : 	{
; 1294 : 		if ( lpObj->pInventory[1].m_Type >= ITEMGET(6, 0) && lpObj->pInventory[1].m_Type < ITEMGET(7, 0) )

  00449	8b 87 c0 11 00
	00		 mov	 eax, DWORD PTR [edi+4544]
  0044f	b9 00 0c 00 00	 mov	 ecx, 3072		; 00000c00H
  00454	0f b7 80 da 00
	00 00		 movzx	 eax, WORD PTR [eax+218]
  0045b	66 3b c1	 cmp	 ax, cx
  0045e	7c 18		 jl	 SHORT $LN31@GObjExtIte
  00460	ba 00 0e 00 00	 mov	 edx, 3584		; 00000e00H
  00465	be 09 00 00 00	 mov	 esi, 9
  0046a	66 3b c2	 cmp	 ax, dx
  0046d	b9 0a 00 00 00	 mov	 ecx, 10			; 0000000aH
  00472	0f 4c f1	 cmovl	 esi, ecx
  00475	89 75 b8	 mov	 DWORD PTR _maxn2_loop$1$[ebp], esi
$LN31@GObjExtIte:

; 1295 : 		{
; 1296 : 			maxn2_loop = 10;
; 1297 : 		}
; 1298 : 	}
; 1299 : 
; 1300 : 	for ( i=0;i<maxn2_loop;i++)

  00478	33 f6		 xor	 esi, esi
  0047a	89 75 c0	 mov	 DWORD PTR _i$2$[ebp], esi
  0047d	39 75 b8	 cmp	 DWORD PTR _maxn2_loop$1$[ebp], esi
  00480	0f 8e 54 01 00
	00		 jle	 $LN6@GObjExtIte
  00486	33 c9		 xor	 ecx, ecx
  00488	0f 1f 84 00 00
	00 00 00	 npad	 8
$LL7@GObjExtIte:

; 1301 : 	{
; 1302 : 		n = temp_n2[i];

  00490	8b 44 b5 c8	 mov	 eax, DWORD PTR _temp_n2$[ebp+esi*4]

; 1303 : 
; 1304 : 		if ( max_count < 8 )

  00494	83 f9 08	 cmp	 ecx, 8
  00497	0f 8d 30 01 00
	00		 jge	 $LN5@GObjExtIte

; 1305 : 		{
; 1306 : 			if ( lpObj->pInventory[n].IsItem() == TRUE &&
; 1307 : 				 lpObj->pInventory[n].IsExtItem() &&
; 1308 : 				 lpObj->pInventory[n].m_Durability != 0.0f &&

  0049d	8b 8f c0 11 00
	00		 mov	 ecx, DWORD PTR [edi+4544]
  004a3	69 d8 d4 00 00
	00		 imul	 ebx, eax, 212
  004a9	03 cb		 add	 ecx, ebx
  004ab	e8 00 00 00 00	 call	 ?IsItem@CItem@@QAEHXZ	; CItem::IsItem
  004b0	83 f8 01	 cmp	 eax, 1
  004b3	0f 85 11 01 00
	00		 jne	 $LN48@GObjExtIte
  004b9	8b 8f c0 11 00
	00		 mov	 ecx, DWORD PTR [edi+4544]
  004bf	03 cb		 add	 ecx, ebx
  004c1	e8 00 00 00 00	 call	 ?IsExtItem@CItem@@QAEHXZ ; CItem::IsExtItem
  004c6	85 c0		 test	 eax, eax
  004c8	0f 84 fc 00 00
	00		 je	 $LN48@GObjExtIte
  004ce	8b 8f c0 11 00
	00		 mov	 ecx, DWORD PTR [edi+4544]
  004d4	0f 57 c9	 xorps	 xmm1, xmm1
  004d7	03 cb		 add	 ecx, ebx
  004d9	f3 0f 10 41 24	 movss	 xmm0, DWORD PTR [ecx+36]
  004de	0f 2e c1	 ucomiss xmm0, xmm1
  004e1	9f		 lahf
  004e2	f6 c4 44	 test	 ah, 68			; 00000044H
  004e5	0f 8b df 00 00
	00		 jnp	 $LN48@GObjExtIte
  004eb	80 b9 ac 00 00
	00 01		 cmp	 BYTE PTR [ecx+172], 1
  004f2	0f 85 d2 00 00
	00		 jne	 $LN48@GObjExtIte

; 1309 : 				 lpObj->pInventory[n].m_IsValidItem == true )
; 1310 : 			{
; 1311 : 				if ( n != 7 )	// #warning this will unselect ONLY wings

  004f8	83 7c b5 c8 07	 cmp	 DWORD PTR _temp_n2$[ebp+esi*4], 7
  004fd	0f 84 c7 00 00
	00		 je	 $LN48@GObjExtIte

; 1312 : 				{
; 1313 : 					lpObj->AddLife += (short)(lpObj->MaxLife * lpObj->pInventory[n].IsExtLifeAdd()  / 100.0f);	// #stat

  00503	e8 00 00 00 00	 call	 ?IsExtLifeAdd@CItem@@QAEHXZ ; CItem::IsExtLifeAdd

; 1314 : 					lpObj->AddMana += (short)(lpObj->MaxMana * lpObj->pInventory[n].IsExtManaAdd() / 100.0f);	// #stat

  00508	8b 8f c0 11 00
	00		 mov	 ecx, DWORD PTR [edi+4544]
  0050e	03 cb		 add	 ecx, ebx
  00510	66 0f 6e c0	 movd	 xmm0, eax
  00514	0f 5b c0	 cvtdq2ps xmm0, xmm0
  00517	f3 0f 59 87 dc
	00 00 00	 mulss	 xmm0, DWORD PTR [edi+220]
  0051f	f3 0f 5e 05 00
	00 00 00	 divss	 xmm0, DWORD PTR __real@42c80000
  00527	f3 0f 2c c0	 cvttss2si eax, xmm0
  0052b	98		 cwde
  0052c	01 87 24 01 00
	00		 add	 DWORD PTR [edi+292], eax
  00532	e8 00 00 00 00	 call	 ?IsExtManaAdd@CItem@@QAEHXZ ; CItem::IsExtManaAdd

; 1315 : 					lpObj->m_SuccessfulBlocking += lpObj->m_SuccessfulBlocking * lpObj->pInventory[n].IsExtDefenseSuccessfull() / 100;

  00537	8b 8f c0 11 00
	00		 mov	 ecx, DWORD PTR [edi+4544]
  0053d	8b b7 7c 06 00
	00		 mov	 esi, DWORD PTR [edi+1660]
  00543	03 cb		 add	 ecx, ebx
  00545	66 0f 6e c0	 movd	 xmm0, eax
  00549	0f 5b c0	 cvtdq2ps xmm0, xmm0
  0054c	f3 0f 59 87 f0
	00 00 00	 mulss	 xmm0, DWORD PTR [edi+240]
  00554	f3 0f 5e 05 00
	00 00 00	 divss	 xmm0, DWORD PTR __real@42c80000
  0055c	f3 0f 2c c0	 cvttss2si eax, xmm0
  00560	98		 cwde
  00561	01 87 28 01 00
	00		 add	 DWORD PTR [edi+296], eax
  00567	e8 00 00 00 00	 call	 ?IsExtDefenseSuccessfull@CItem@@QAEHXZ ; CItem::IsExtDefenseSuccessfull
  0056c	8b c8		 mov	 ecx, eax
  0056e	b8 1f 85 eb 51	 mov	 eax, 1374389535		; 51eb851fH
  00573	0f af ce	 imul	 ecx, esi
  00576	f7 e9		 imul	 ecx

; 1316 : 					lpObj->MonsterDieGetMoney += lpObj->pInventory[n].IsExtMonsterMoney();

  00578	8b 8f c0 11 00
	00		 mov	 ecx, DWORD PTR [edi+4544]
  0057e	c1 fa 05	 sar	 edx, 5
  00581	03 cb		 add	 ecx, ebx
  00583	8b c2		 mov	 eax, edx
  00585	c1 e8 1f	 shr	 eax, 31			; 0000001fH
  00588	03 c2		 add	 eax, edx
  0058a	03 c6		 add	 eax, esi
  0058c	89 87 7c 06 00
	00		 mov	 DWORD PTR [edi+1660], eax
  00592	e8 00 00 00 00	 call	 ?IsExtMonsterMoney@CItem@@QAEHXZ ; CItem::IsExtMonsterMoney

; 1317 : 					lpObj->DamageMinus += lpObj->pInventory[n].IsExtDamageMinus();

  00597	8b 8f c0 11 00
	00		 mov	 ecx, DWORD PTR [edi+4544]
  0059d	66 01 87 4a 01
	00 00		 add	 WORD PTR [edi+330], ax
  005a4	03 cb		 add	 ecx, ebx
  005a6	e8 00 00 00 00	 call	 ?IsExtDamageMinus@CItem@@QAEHXZ ; CItem::IsExtDamageMinus

; 1318 : 					lpObj->DamageReflect += lpObj->pInventory[n].IsExtDamageReflect();

  005ab	8b 8f c0 11 00
	00		 mov	 ecx, DWORD PTR [edi+4544]
  005b1	00 87 48 01 00
	00		 add	 BYTE PTR [edi+328], al
  005b7	03 cb		 add	 ecx, ebx
  005b9	e8 00 00 00 00	 call	 ?IsExtDamageReflect@CItem@@QAEHXZ ; CItem::IsExtDamageReflect
  005be	00 87 49 01 00
	00		 add	 BYTE PTR [edi+329], al

; 1319 : 					max_count++;

  005c4	ff 45 c4	 inc	 DWORD PTR _max_count$1$[ebp]
  005c7	8b 75 c0	 mov	 esi, DWORD PTR _i$2$[ebp]
$LN48@GObjExtIte:
  005ca	8b 4d c4	 mov	 ecx, DWORD PTR _max_count$1$[ebp]
$LN5@GObjExtIte:

; 1295 : 		{
; 1296 : 			maxn2_loop = 10;
; 1297 : 		}
; 1298 : 	}
; 1299 : 
; 1300 : 	for ( i=0;i<maxn2_loop;i++)

  005cd	46		 inc	 esi
  005ce	89 75 c0	 mov	 DWORD PTR _i$2$[ebp], esi
  005d1	3b 75 b8	 cmp	 esi, DWORD PTR _maxn2_loop$1$[ebp]
  005d4	0f 8c b6 fe ff
	ff		 jl	 $LL7@GObjExtIte
$LN6@GObjExtIte:

; 1320 : 				}
; 1321 : 			}
; 1322 : 		}
; 1323 : 	}
; 1324 : }

  005da	8b 4d fc	 mov	 ecx, DWORD PTR __$ArrayPad$[ebp]
  005dd	5f		 pop	 edi
  005de	5e		 pop	 esi
  005df	33 cd		 xor	 ecx, ebp
  005e1	5b		 pop	 ebx
  005e2	e8 00 00 00 00	 call	 @__security_check_cookie@4
  005e7	8b e5		 mov	 esp, ebp
  005e9	5d		 pop	 ebp
  005ea	c3		 ret	 0
?GObjExtItemApply@@YAXPAUOBJECTSTRUCT@@@Z ENDP		; GObjExtItemApply
_TEXT	ENDS
; Function compile flags: /Ogtp
; File c:\users\michel\desktop\source\gameserver\source\objcalcharacter.cpp
;	COMDAT ?gObjCalCharacter@@YAXH@Z
_TEXT	SEGMENT
_addmana$ = -320					; size = 4
_addlife$ = -316					; size = 4
_Right$1$ = -312					; size = 4
_AddLeadership$ = -308					; size = 4
_Level10Count$1$ = -304					; size = 4
_Level12Count$1$ = -300					; size = 4
_Level13Count$1$ = -296					; size = 4
tv5650 = -292						; size = 4
tv5253 = -292						; size = 4
_Dexterity$1$ = -292					; size = 4
tv5649 = -288						; size = 4
tv5271 = -288						; size = 4
_lpObj$1$ = -288					; size = 4
_Level14Count$1$ = -284					; size = 4
_iItemIndex$1$ = -284					; size = 4
_in$1$ = -280						; size = 4
tv5491 = -280						; size = 4
_in$2$ = -276						; size = 4
tv5101 = -276						; size = 4
tv5638 = -270						; size = 1
tv5639 = -269						; size = 1
tv5647 = -268						; size = 4
tv5436 = -268						; size = 4
tv5099 = -268						; size = 4
_bIsChangeItem$1$ = -268				; size = 4
_Level11Count$1$ = -268					; size = 4
_Level15Count$1$ = -264					; size = 4
tv5806 = -264						; size = 4
tv5648 = -264						; size = 4
tv5404 = -264						; size = 4
tv5262 = -264						; size = 4
_Strength$1$ = -264					; size = 4
_nIncreasedVitality$1 = -264				; size = 4
_szNotice$2 = -260					; size = 256
__$ArrayPad$ = -4					; size = 4
_aIndex$ = 8						; size = 4
?gObjCalCharacter@@YAXH@Z PROC				; gObjCalCharacter, COMDAT

; 28   : {

  00000	55		 push	 ebp
  00001	8b ec		 mov	 ebp, esp
  00003	81 ec 40 01 00
	00		 sub	 esp, 320		; 00000140H
  00009	a1 00 00 00 00	 mov	 eax, DWORD PTR ___security_cookie
  0000e	33 c5		 xor	 eax, ebp
  00010	89 45 fc	 mov	 DWORD PTR __$ArrayPad$[ebp], eax
  00013	8b 45 08	 mov	 eax, DWORD PTR _aIndex$[ebp]
  00016	57		 push	 edi

; 29   : 	LPOBJ lpObj = &gObj[aIndex];

  00017	69 f8 40 27 00
	00		 imul	 edi, eax, 10048
  0001d	03 3d 00 00 00
	00		 add	 edi, DWORD PTR ?gObj@@3PAUOBJECTSTRUCT@@A ; gObj
  00023	89 bd e0 fe ff
	ff		 mov	 DWORD PTR _lpObj$1$[ebp], edi

; 30   : 
; 31   : 	int Strength = 0;
; 32   : 	int Dexterity = 0;
; 33   : 	int Vitality = 0;
; 34   : 	int Energy = 0;
; 35   : 	CItem * Right = &lpObj->pInventory[0];

  00029	8b 87 c0 11 00
	00		 mov	 eax, DWORD PTR [edi+4544]
  0002f	89 85 c8 fe ff
	ff		 mov	 DWORD PTR _Right$1$[ebp], eax

; 36   : 	CItem * Left  = &lpObj->pInventory[1];
; 37   : 	CItem * Gloves = &lpObj->pInventory[5];
; 38   : 	CItem * Amulet = &lpObj->pInventory[9];
; 39   : 	CItem * Helper = &lpObj->pInventory[8];
; 40   : 
; 41   : 	lpObj->AddLife = 0;
; 42   : 	lpObj->AddMana = 0;
; 43   : 	lpObj->MonsterDieGetMoney = 0;

  00035	33 c0		 xor	 eax, eax
  00037	c7 87 24 01 00
	00 00 00 00 00	 mov	 DWORD PTR [edi+292], 0
  00041	c7 87 28 01 00
	00 00 00 00 00	 mov	 DWORD PTR [edi+296], 0
  0004b	89 87 4a 01 00
	00		 mov	 DWORD PTR [edi+330], eax

; 44   : 	lpObj->MonsterDieGetLife = 0;
; 45   : 	lpObj->MonsterDieGetMana = 0;
; 46   : 	lpObj->DamageReflect = 0;
; 47   : 	lpObj->DamageMinus = 0;

  00051	66 89 87 48 01
	00 00		 mov	 WORD PTR [edi+328], ax

; 48   : 	lpObj->SkillLongSpearChange = false;

  00058	88 87 0a 16 00
	00		 mov	 BYTE PTR [edi+5642], al

; 49   : 
; 50   : #if (CUSTOM_EXOPT==1)
; 51   : 	lpObj->m_CriticalDamageMul = 0;
; 52   : 	lpObj->m_ExcelentDamageMul = 0;
; 53   : #endif
; 54   : 
; 55   : 	if ( lpObj->m_iItemEffectValidTime > 0 )

  0005e	39 87 64 24 00
	00		 cmp	 DWORD PTR [edi+9316], eax
  00064	7e 0b		 jle	 SHORT $LN23@gObjCalCha

; 56   : 	{
; 57   : 		g_ItemAddOption.PrevSetItemLastEffectForHallowin(lpObj);

  00066	57		 push	 edi
  00067	b9 00 00 00 00	 mov	 ecx, OFFSET ?g_ItemAddOption@@3VCItemAddOption@@A ; g_ItemAddOption
  0006c	e8 00 00 00 00	 call	 ?PrevSetItemLastEffectForHallowin@CItemAddOption@@QAE_NPAUOBJECTSTRUCT@@@Z ; CItemAddOption::PrevSetItemLastEffectForHallowin
$LN23@gObjCalCha:

; 58   : 	}
; 59   : 
; 60   : 	int iItemIndex;
; 61   : 	BOOL bIsChangeItem;	// lc34
; 62   : 
; 63   : 	for ( iItemIndex=0; iItemIndex<MAX_PLAYER_EQUIPMENT;iItemIndex++)

  00071	53		 push	 ebx
  00072	56		 push	 esi
  00073	33 f6		 xor	 esi, esi
  00075	66 66 66 0f 1f
	84 00 00 00 00
	00		 npad	 11
$LL4@gObjCalCha:

; 64   : 	{
; 65   : 		if ( lpObj->pInventory[iItemIndex].IsItem() != FALSE )

  00080	8b 8f c0 11 00
	00		 mov	 ecx, DWORD PTR [edi+4544]
  00086	03 ce		 add	 ecx, esi
  00088	e8 00 00 00 00	 call	 ?IsItem@CItem@@QAEHXZ	; CItem::IsItem
  0008d	85 c0		 test	 eax, eax
  0008f	74 0e		 je	 SHORT $LN2@gObjCalCha

; 66   : 		{
; 67   : 			lpObj->pInventory[iItemIndex].m_IsValidItem = true;

  00091	8b 87 c0 11 00
	00		 mov	 eax, DWORD PTR [edi+4544]
  00097	c6 84 30 ac 00
	00 00 01	 mov	 BYTE PTR [eax+esi+172], 1
$LN2@gObjCalCha:

; 58   : 	}
; 59   : 
; 60   : 	int iItemIndex;
; 61   : 	BOOL bIsChangeItem;	// lc34
; 62   : 
; 63   : 	for ( iItemIndex=0; iItemIndex<MAX_PLAYER_EQUIPMENT;iItemIndex++)

  0009f	81 c6 d4 00 00
	00		 add	 esi, 212		; 000000d4H
  000a5	81 fe f0 09 00
	00		 cmp	 esi, 2544		; 000009f0H
  000ab	7c d3		 jl	 SHORT $LL4@gObjCalCha
  000ad	8d 87 0c 01 00
	00		 lea	 eax, DWORD PTR [edi+268]
$LL7@gObjCalCha:

; 68   : 		}
; 69   : 	}
; 70   : 
; 71   : 	do
; 72   : 	{
; 73   : 		lpObj->SetOpAddMaxAttackDamage = 0;

  000b3	33 c9		 xor	 ecx, ecx

; 74   : 		lpObj->SetOpAddMinAttackDamage = 0;
; 75   : 		lpObj->SetOpAddDamage = 0;
; 76   : 		lpObj->SetOpIncAGValue = 0;
; 77   : 		lpObj->SetOpAddCriticalDamageSuccessRate = 0;
; 78   : 		lpObj->SetOpAddCriticalDamage = 0;
; 79   : 		lpObj->SetOpAddExDamageSuccessRate = 0;
; 80   : 		lpObj->SetOpAddExDamage = 0;
; 81   : 		lpObj->SetOpAddSkillAttack = 0;
; 82   : 		lpObj->AddStrength = 0;
; 83   : 		lpObj->AddDexterity = 0;
; 84   : 		lpObj->AddVitality = 0;
; 85   : 		lpObj->AddEnergy = 0;
; 86   : 		lpObj->AddLeadership = 0;
; 87   : 		lpObj->AddBP = 0;
; 88   : 		lpObj->iAddShield = 0;
; 89   : 		lpObj->SetOpAddAttackDamage = 0;
; 90   : 		lpObj->SetOpAddDefence = 0;
; 91   : 		lpObj->SetOpAddMagicPower = 0;
; 92   : 		lpObj->SetOpAddDefenceRate = 0;
; 93   : 		lpObj->SetOpIgnoreDefense = 0;
; 94   : 		lpObj->SetOpDoubleDamage = 0;
; 95   : 		lpObj->SetOpTwoHandSwordImproveDamage = 0;
; 96   : 		lpObj->SetOpImproveSuccessAttackRate = 0;
; 97   : 		lpObj->SetOpReflectionDamage = 0;
; 98   : 		lpObj->SetOpImproveSheldDefence = 0;
; 99   : 		lpObj->SetOpDecreaseAG = 0;
; 100  : 		lpObj->SetOpImproveItemDropRate = 0;
; 101  : 		lpObj->IsFullSetItem = false;
; 102  : 
; 103  : 		memset(lpObj->m_AddResistance, 0, sizeof(lpObj->m_AddResistance));
; 104  : 		bIsChangeItem = 0;

  000b5	33 f6		 xor	 esi, esi
  000b7	89 08		 mov	 DWORD PTR [eax], ecx
  000b9	33 c0		 xor	 eax, eax
  000bb	89 8f c0 14 00
	00		 mov	 DWORD PTR [edi+5312], ecx
  000c1	89 8f bc 14 00
	00		 mov	 DWORD PTR [edi+5308], ecx
  000c7	89 8f b8 14 00
	00		 mov	 DWORD PTR [edi+5304], ecx
  000cd	89 8f b4 14 00
	00		 mov	 DWORD PTR [edi+5300], ecx
  000d3	66 89 8f b2 14
	00 00		 mov	 WORD PTR [edi+5298], cx
  000da	89 8f fc 00 00
	00		 mov	 DWORD PTR [edi+252], ecx
  000e0	89 8f 00 01 00
	00		 mov	 DWORD PTR [edi+256], ecx
  000e6	66 89 8f f6 00
	00 00		 mov	 WORD PTR [edi+246], cx
  000ed	89 8f 34 01 00
	00		 mov	 DWORD PTR [edi+308], ecx

; 105  : 
; 106  : 		g_ItemAddOption.SetPeriodItemEffect1(lpObj); //Why disabled?

  000f3	b9 00 00 00 00	 mov	 ecx, OFFSET ?g_ItemAddOption@@3VCItemAddOption@@A ; g_ItemAddOption
  000f8	89 87 c4 14 00
	00		 mov	 DWORD PTR [edi+5316], eax
  000fe	89 87 c8 14 00
	00		 mov	 DWORD PTR [edi+5320], eax
  00104	89 87 cc 14 00
	00		 mov	 DWORD PTR [edi+5324], eax
  0010a	89 87 d0 14 00
	00		 mov	 DWORD PTR [edi+5328], eax
  00110	88 87 d4 14 00
	00		 mov	 BYTE PTR [edi+5332], al
  00116	89 87 9d 08 00
	00		 mov	 DWORD PTR [edi+2205], eax
  0011c	66 89 87 a1 08
	00 00		 mov	 WORD PTR [edi+2209], ax
  00123	57		 push	 edi
  00124	88 87 a3 08 00
	00		 mov	 BYTE PTR [edi+2211], al
  0012a	89 b5 f4 fe ff
	ff		 mov	 DWORD PTR _bIsChangeItem$1$[ebp], esi
  00130	e8 00 00 00 00	 call	 ?SetPeriodItemEffect1@CItemAddOption@@QAEEPAUOBJECTSTRUCT@@@Z ; CItemAddOption::SetPeriodItemEffect1

; 107  : 		g_BuffEffect.SetPrevEffect(lpObj);

  00135	57		 push	 edi
  00136	b9 00 00 00 00	 mov	 ecx, OFFSET ?g_BuffEffect@@3VCBuffEffect@@A ; g_BuffEffect
  0013b	e8 00 00 00 00	 call	 ?SetPrevEffect@CBuffEffect@@QAEXPAUOBJECTSTRUCT@@@Z ; CBuffEffect::SetPrevEffect

; 108  : 
; 109  : 		gObjCalcSetItemStat(lpObj);

  00140	57		 push	 edi
  00141	e8 00 00 00 00	 call	 ?gObjCalcSetItemStat@@YAXPAUOBJECTSTRUCT@@@Z ; gObjCalcSetItemStat

; 110  : 		gObjCalcSetItemOption(lpObj);

  00146	57		 push	 edi
  00147	e8 00 00 00 00	 call	 ?gObjCalcSetItemOption@@YAXPAUOBJECTSTRUCT@@@Z ; gObjCalcSetItemOption

; 111  : 
; 112  : 		g_MasterSkillSystem.SetItemMLPassiveSkill(lpObj,lpObj->pInventory[0].GetDetailItemType());

  0014c	8b 8f c0 11 00
	00		 mov	 ecx, DWORD PTR [edi+4544]
  00152	83 c4 08	 add	 esp, 8
  00155	e8 00 00 00 00	 call	 ?GetDetailItemType@CItem@@QAEHXZ ; CItem::GetDetailItemType
  0015a	50		 push	 eax
  0015b	57		 push	 edi
  0015c	b9 00 00 00 00	 mov	 ecx, OFFSET ?g_MasterSkillSystem@@3VCMasterLevelSkillTreeSystem@@A ; g_MasterSkillSystem
  00161	e8 00 00 00 00	 call	 ?SetItemMLPassiveSkill@CMasterLevelSkillTreeSystem@@QAEXPAUOBJECTSTRUCT@@H@Z ; CMasterLevelSkillTreeSystem::SetItemMLPassiveSkill

; 113  : 		g_MasterSkillSystem.SetItemMLPassiveSkill(lpObj,lpObj->pInventory[1].GetDetailItemType());

  00166	8b 8f c0 11 00
	00		 mov	 ecx, DWORD PTR [edi+4544]
  0016c	81 c1 d4 00 00
	00		 add	 ecx, 212		; 000000d4H
  00172	e8 00 00 00 00	 call	 ?GetDetailItemType@CItem@@QAEHXZ ; CItem::GetDetailItemType
  00177	50		 push	 eax
  00178	57		 push	 edi
  00179	b9 00 00 00 00	 mov	 ecx, OFFSET ?g_MasterSkillSystem@@3VCMasterLevelSkillTreeSystem@@A ; g_MasterSkillSystem
  0017e	e8 00 00 00 00	 call	 ?SetItemMLPassiveSkill@CMasterLevelSkillTreeSystem@@QAEXPAUOBJECTSTRUCT@@H@Z ; CMasterLevelSkillTreeSystem::SetItemMLPassiveSkill

; 114  : 		g_MasterSkillSystem.SetItemMLPassiveSkill(lpObj,lpObj->pInventory[7].GetDetailItemType());

  00183	8b 8f c0 11 00
	00		 mov	 ecx, DWORD PTR [edi+4544]
  00189	81 c1 cc 05 00
	00		 add	 ecx, 1484		; 000005ccH
  0018f	e8 00 00 00 00	 call	 ?GetDetailItemType@CItem@@QAEHXZ ; CItem::GetDetailItemType
  00194	50		 push	 eax
  00195	57		 push	 edi
  00196	b9 00 00 00 00	 mov	 ecx, OFFSET ?g_MasterSkillSystem@@3VCMasterLevelSkillTreeSystem@@A ; g_MasterSkillSystem
  0019b	e8 00 00 00 00	 call	 ?SetItemMLPassiveSkill@CMasterLevelSkillTreeSystem@@QAEXPAUOBJECTSTRUCT@@H@Z ; CMasterLevelSkillTreeSystem::SetItemMLPassiveSkill

; 115  : 		g_MasterSkillSystem.SetPetItemMLPassiveSkill(lpObj,lpObj->pInventory[8].m_Type);

  001a0	8b 87 c0 11 00
	00		 mov	 eax, DWORD PTR [edi+4544]
  001a6	b9 00 00 00 00	 mov	 ecx, OFFSET ?g_MasterSkillSystem@@3VCMasterLevelSkillTreeSystem@@A ; g_MasterSkillSystem
  001ab	0f bf 80 a6 06
	00 00		 movsx	 eax, WORD PTR [eax+1702]
  001b2	50		 push	 eax
  001b3	57		 push	 edi
  001b4	e8 00 00 00 00	 call	 ?SetPetItemMLPassiveSkill@CMasterLevelSkillTreeSystem@@QAEXPAUOBJECTSTRUCT@@H@Z ; CMasterLevelSkillTreeSystem::SetPetItemMLPassiveSkill

; 116  : 
; 117  : 		if( gObjCheckUsedBuffEffect(lpObj,BUFF_INCREASE_VIT) == TRUE )

  001b9	68 82 00 00 00	 push	 130			; 00000082H
  001be	57		 push	 edi
  001bf	e8 00 00 00 00	 call	 ?gObjCheckUsedBuffEffect@@YA_NPAUOBJECTSTRUCT@@H@Z ; gObjCheckUsedBuffEffect
  001c4	83 c4 08	 add	 esp, 8
  001c7	3c 01		 cmp	 al, 1
  001c9	75 2a		 jne	 SHORT $LN25@gObjCalCha

; 118  : 		{
; 119  : 			int nIncreasedVitality = 0;
; 120  : 			gObjGetValueOfBuffIndex(lpObj,BUFF_INCREASE_VIT,&nIncreasedVitality,0);

  001cb	56		 push	 esi
  001cc	8d 85 f8 fe ff
	ff		 lea	 eax, DWORD PTR _nIncreasedVitality$1[ebp]
  001d2	89 b5 f8 fe ff
	ff		 mov	 DWORD PTR _nIncreasedVitality$1[ebp], esi
  001d8	50		 push	 eax
  001d9	68 82 00 00 00	 push	 130			; 00000082H
  001de	57		 push	 edi
  001df	e8 00 00 00 00	 call	 ?gObjGetValueOfBuffIndex@@YA_NPAUOBJECTSTRUCT@@HPAH1@Z ; gObjGetValueOfBuffIndex

; 121  : 			lpObj->AddVitality += nIncreasedVitality; 

  001e4	66 8b 85 f8 fe
	ff ff		 mov	 ax, WORD PTR _nIncreasedVitality$1[ebp]
  001eb	83 c4 10	 add	 esp, 16			; 00000010H
  001ee	66 01 87 00 01
	00 00		 add	 WORD PTR [edi+256], ax
$LN25@gObjCalCha:

; 122  : 		}
; 123  : 
; 124  : 		if( gObjCheckUsedBuffEffect(lpObj,BUFF_BLESS) == TRUE ||

  001f5	68 8e 00 00 00	 push	 142			; 0000008eH
  001fa	57		 push	 edi
  001fb	e8 00 00 00 00	 call	 ?gObjCheckUsedBuffEffect@@YA_NPAUOBJECTSTRUCT@@H@Z ; gObjCheckUsedBuffEffect
  00200	83 c4 08	 add	 esp, 8
  00203	3c 01		 cmp	 al, 1
  00205	74 12		 je	 SHORT $LN27@gObjCalCha
  00207	68 a1 00 00 00	 push	 161			; 000000a1H
  0020c	57		 push	 edi
  0020d	e8 00 00 00 00	 call	 ?gObjCheckUsedBuffEffect@@YA_NPAUOBJECTSTRUCT@@H@Z ; gObjCheckUsedBuffEffect
  00212	83 c4 08	 add	 esp, 8
  00215	3c 01		 cmp	 al, 1
  00217	75 2e		 jne	 SHORT $LN26@gObjCalCha
$LN27@gObjCalCha:

; 125  : 			gObjCheckUsedBuffEffect(lpObj,BUFF_BLESS2) == TRUE )
; 126  : 		{
; 127  : 			int nIncreaseStats = gObjGetTotalValueOfEffect(lpObj,ADD_OPTION_ALLSTATS);

  00219	6a 67		 push	 103			; 00000067H
  0021b	57		 push	 edi
  0021c	e8 00 00 00 00	 call	 ?gObjGetTotalValueOfEffect@@YAHPAUOBJECTSTRUCT@@H@Z ; gObjGetTotalValueOfEffect

; 128  : 			lpObj->AddStrength += nIncreaseStats;

  00221	66 01 87 fc 00
	00 00		 add	 WORD PTR [edi+252], ax
  00228	83 c4 08	 add	 esp, 8

; 129  : 			lpObj->AddDexterity += nIncreaseStats;

  0022b	66 01 87 fe 00
	00 00		 add	 WORD PTR [edi+254], ax

; 130  : 			lpObj->AddVitality += nIncreaseStats;

  00232	66 01 87 00 01
	00 00		 add	 WORD PTR [edi+256], ax

; 131  : 			lpObj->AddEnergy += nIncreaseStats;

  00239	66 01 87 02 01
	00 00		 add	 WORD PTR [edi+258], ax

; 132  : 			lpObj->AddLeadership += nIncreaseStats;

  00240	66 01 87 f6 00
	00 00		 add	 WORD PTR [edi+246], ax
$LN26@gObjCalCha:

; 133  : 		}
; 134  : 
; 135  : 		lpObj->AddStrength += lpObj->m_MPSkillOpt.MpsStrengthIncrease;

  00247	0f b7 87 fc 00
	00 00		 movzx	 eax, WORD PTR [edi+252]
  0024e	33 db		 xor	 ebx, ebx

; 136  : 		lpObj->AddDexterity += lpObj->m_MPSkillOpt.MpsDexterityIncrease;
; 137  : 		lpObj->AddVitality += lpObj->m_MPSkillOpt.MpsVitalityIncrease;
; 138  : 		lpObj->AddEnergy += lpObj->m_MPSkillOpt.MpsEnergyIncrease;
; 139  : 		lpObj->AddLeadership += lpObj->m_MPSkillOpt.MpsLeadershipIncrease;
; 140  : 
; 141  : 		for (iItemIndex=0;iItemIndex<MAX_PLAYER_EQUIPMENT;iItemIndex++)

  00250	89 b5 e4 fe ff
	ff		 mov	 DWORD PTR _iItemIndex$1$[ebp], esi
  00256	66 0f 6e c0	 movd	 xmm0, eax
  0025a	0f 5b c0	 cvtdq2ps xmm0, xmm0
  0025d	f3 0f 58 87 40
	08 00 00	 addss	 xmm0, DWORD PTR [edi+2112]
  00265	f3 0f 2c c0	 cvttss2si eax, xmm0
  00269	66 89 87 fc 00
	00 00		 mov	 WORD PTR [edi+252], ax
  00270	0f b7 87 fe 00
	00 00		 movzx	 eax, WORD PTR [edi+254]
  00277	66 0f 6e c0	 movd	 xmm0, eax
  0027b	0f 5b c0	 cvtdq2ps xmm0, xmm0
  0027e	f3 0f 58 87 3c
	08 00 00	 addss	 xmm0, DWORD PTR [edi+2108]
  00286	f3 0f 2c c0	 cvttss2si eax, xmm0
  0028a	66 89 87 fe 00
	00 00		 mov	 WORD PTR [edi+254], ax
  00291	0f b7 87 00 01
	00 00		 movzx	 eax, WORD PTR [edi+256]
  00298	66 0f 6e c0	 movd	 xmm0, eax
  0029c	0f 5b c0	 cvtdq2ps xmm0, xmm0
  0029f	f3 0f 58 87 38
	08 00 00	 addss	 xmm0, DWORD PTR [edi+2104]
  002a7	f3 0f 2c c0	 cvttss2si eax, xmm0
  002ab	66 89 87 00 01
	00 00		 mov	 WORD PTR [edi+256], ax
  002b2	0f b7 87 02 01
	00 00		 movzx	 eax, WORD PTR [edi+258]
  002b9	66 0f 6e c0	 movd	 xmm0, eax
  002bd	0f 5b c0	 cvtdq2ps xmm0, xmm0
  002c0	f3 0f 58 87 34
	08 00 00	 addss	 xmm0, DWORD PTR [edi+2100]
  002c8	f3 0f 2c c0	 cvttss2si eax, xmm0
  002cc	66 89 87 02 01
	00 00		 mov	 WORD PTR [edi+258], ax
  002d3	0f b7 87 f6 00
	00 00		 movzx	 eax, WORD PTR [edi+246]
  002da	66 0f 6e c0	 movd	 xmm0, eax
  002de	0f 5b c0	 cvtdq2ps xmm0, xmm0
  002e1	f3 0f 58 87 44
	08 00 00	 addss	 xmm0, DWORD PTR [edi+2116]
  002e9	f3 0f 2c c0	 cvttss2si eax, xmm0
  002ed	66 89 87 f6 00
	00 00		 mov	 WORD PTR [edi+246], ax
  002f4	0f 1f 40 00 0f
	1f 84 00 00 00
	00 00		 npad	 12
$LL10@gObjCalCha:

; 142  : 		{
; 143  : 			if ( lpObj->pInventory[iItemIndex].IsItem() != FALSE && lpObj->pInventory[iItemIndex].m_IsValidItem != false )

  00300	8b 8f c0 11 00
	00		 mov	 ecx, DWORD PTR [edi+4544]
  00306	03 cb		 add	 ecx, ebx
  00308	e8 00 00 00 00	 call	 ?IsItem@CItem@@QAEHXZ	; CItem::IsItem
  0030d	85 c0		 test	 eax, eax
  0030f	74 36		 je	 SHORT $LN8@gObjCalCha
  00311	8b b7 c0 11 00
	00		 mov	 esi, DWORD PTR [edi+4544]
  00317	03 f3		 add	 esi, ebx
  00319	80 be ac 00 00
	00 00		 cmp	 BYTE PTR [esi+172], 0
  00320	74 1f		 je	 SHORT $LN414@gObjCalCha

; 144  : 			{
; 145  : 				if ( gObjValidItem( lpObj, &lpObj->pInventory[iItemIndex], iItemIndex) != FALSE )

  00322	ff b5 e4 fe ff
	ff		 push	 DWORD PTR _iItemIndex$1$[ebp]
  00328	56		 push	 esi
  00329	57		 push	 edi
  0032a	e8 00 00 00 00	 call	 ?gObjValidItem@@YAHPAUOBJECTSTRUCT@@PAVCItem@@H@Z ; gObjValidItem
  0032f	83 c4 0c	 add	 esp, 12			; 0000000cH
  00332	85 c0		 test	 eax, eax
  00334	0f 84 a7 02 00
	00		 je	 $LN29@gObjCalCha

; 146  : 				{
; 147  : 					lpObj->pInventory[iItemIndex].m_IsValidItem = true;

  0033a	c6 86 ac 00 00
	00 01		 mov	 BYTE PTR [esi+172], 1
$LN414@gObjCalCha:
  00341	8b b5 f4 fe ff
	ff		 mov	 esi, DWORD PTR _bIsChangeItem$1$[ebp]
$LN8@gObjCalCha:

; 136  : 		lpObj->AddDexterity += lpObj->m_MPSkillOpt.MpsDexterityIncrease;
; 137  : 		lpObj->AddVitality += lpObj->m_MPSkillOpt.MpsVitalityIncrease;
; 138  : 		lpObj->AddEnergy += lpObj->m_MPSkillOpt.MpsEnergyIncrease;
; 139  : 		lpObj->AddLeadership += lpObj->m_MPSkillOpt.MpsLeadershipIncrease;
; 140  : 
; 141  : 		for (iItemIndex=0;iItemIndex<MAX_PLAYER_EQUIPMENT;iItemIndex++)

  00347	ff 85 e4 fe ff
	ff		 inc	 DWORD PTR _iItemIndex$1$[ebp]
  0034d	81 c3 d4 00 00
	00		 add	 ebx, 212		; 000000d4H
  00353	81 fb f0 09 00
	00		 cmp	 ebx, 2544		; 000009f0H
  00359	7c a5		 jl	 SHORT $LL10@gObjCalCha

; 154  : 				}
; 155  : 			}
; 156  : 		}
; 157  : 	}
; 158  : 	while ( bIsChangeItem != FALSE );

  0035b	8d 87 0c 01 00
	00		 lea	 eax, DWORD PTR [edi+268]
  00361	85 f6		 test	 esi, esi
  00363	0f 85 4a fd ff
	ff		 jne	 $LL7@gObjCalCha

; 159  : 
; 160  : 	Strength = lpObj->Strength + lpObj->AddStrength;
; 161  : 	Dexterity = lpObj->Dexterity + lpObj->AddDexterity;
; 162  : 	Vitality = lpObj->Vitality + lpObj->AddVitality;
; 163  : 	Energy = lpObj->Energy + lpObj->AddEnergy;
; 164  : 
; 165  : 	if ( g_bAbilityDebug == TRUE )

  00369	83 3d 00 00 00
	00 01		 cmp	 DWORD PTR ?g_bAbilityDebug@@3HA, 1 ; g_bAbilityDebug
  00370	0f b7 87 fc 00
	00 00		 movzx	 eax, WORD PTR [edi+252]
  00377	0f b7 8f d0 00
	00 00		 movzx	 ecx, WORD PTR [edi+208]
  0037e	0f b7 b7 d2 00
	00 00		 movzx	 esi, WORD PTR [edi+210]
  00385	8d 14 01	 lea	 edx, DWORD PTR [ecx+eax]
  00388	89 95 f8 fe ff
	ff		 mov	 DWORD PTR _Strength$1$[ebp], edx
  0038e	0f b7 97 fe 00
	00 00		 movzx	 edx, WORD PTR [edi+254]
  00395	8d 1c 16	 lea	 ebx, DWORD PTR [esi+edx]
  00398	89 9d dc fe ff
	ff		 mov	 DWORD PTR _Dexterity$1$[ebp], ebx
  0039e	0f 85 c3 00 00
	00		 jne	 $LN31@gObjCalCha

; 166  : 	{
; 167  : 		char szNotice[256];
; 168  : 		sprintf(szNotice,"Strength: %d,%d    Dexterity: %d,%d",

  003a4	52		 push	 edx
  003a5	56		 push	 esi
  003a6	50		 push	 eax
  003a7	51		 push	 ecx
  003a8	8d 85 fc fe ff
	ff		 lea	 eax, DWORD PTR _szNotice$2[ebp]
  003ae	68 00 00 00 00	 push	 OFFSET ??_C@_0CE@OBLIFBFL@Strength?3?5?$CFd?0?$CFd?5?5?5?5Dexterity?3?5?$CFd@
  003b3	50		 push	 eax
  003b4	e8 00 00 00 00	 call	 _sprintf

; 169  : 			lpObj->Strength,lpObj->AddStrength,lpObj->Dexterity,lpObj->AddDexterity);
; 170  : 		GCServerMsgStringSend(szNotice,lpObj->m_Index,1);

  003b9	6a 01		 push	 1
  003bb	ff 37		 push	 DWORD PTR [edi]
  003bd	8d 85 fc fe ff
	ff		 lea	 eax, DWORD PTR _szNotice$2[ebp]
  003c3	50		 push	 eax
  003c4	e8 00 00 00 00	 call	 ?GCServerMsgStringSend@@YAXPADHE@Z ; GCServerMsgStringSend

; 171  : 		memset(szNotice,0,sizeof(szNotice));

  003c9	68 00 01 00 00	 push	 256			; 00000100H
  003ce	8d 85 fc fe ff
	ff		 lea	 eax, DWORD PTR _szNotice$2[ebp]
  003d4	6a 00		 push	 0
  003d6	50		 push	 eax
  003d7	e8 00 00 00 00	 call	 _memset

; 172  : 
; 173  : 		sprintf(szNotice,"Vitality: %d,%d    Energy: %d,%d",

  003dc	0f b7 87 02 01
	00 00		 movzx	 eax, WORD PTR [edi+258]
  003e3	50		 push	 eax
  003e4	0f b7 87 d6 00
	00 00		 movzx	 eax, WORD PTR [edi+214]
  003eb	50		 push	 eax
  003ec	0f b7 87 00 01
	00 00		 movzx	 eax, WORD PTR [edi+256]
  003f3	50		 push	 eax
  003f4	0f b7 87 d4 00
	00 00		 movzx	 eax, WORD PTR [edi+212]
  003fb	50		 push	 eax
  003fc	8d 85 fc fe ff
	ff		 lea	 eax, DWORD PTR _szNotice$2[ebp]
  00402	68 00 00 00 00	 push	 OFFSET ??_C@_0CB@KNPOLDNB@Vitality?3?5?$CFd?0?$CFd?5?5?5?5Energy?3?5?$CFd?0?$CFd@
  00407	50		 push	 eax
  00408	e8 00 00 00 00	 call	 _sprintf
  0040d	83 c4 48	 add	 esp, 72			; 00000048H

; 174  : 			lpObj->Vitality,lpObj->AddVitality,lpObj->Energy,lpObj->AddEnergy);
; 175  : 		GCServerMsgStringSend(szNotice,lpObj->m_Index,1);

  00410	8d 85 fc fe ff
	ff		 lea	 eax, DWORD PTR _szNotice$2[ebp]
  00416	6a 01		 push	 1
  00418	ff 37		 push	 DWORD PTR [edi]
  0041a	50		 push	 eax
  0041b	e8 00 00 00 00	 call	 ?GCServerMsgStringSend@@YAXPADHE@Z ; GCServerMsgStringSend

; 176  : 
; 177  : 		memset(szNotice,0,sizeof(szNotice));

  00420	68 00 01 00 00	 push	 256			; 00000100H
  00425	8d 85 fc fe ff
	ff		 lea	 eax, DWORD PTR _szNotice$2[ebp]
  0042b	6a 00		 push	 0
  0042d	50		 push	 eax
  0042e	e8 00 00 00 00	 call	 _memset

; 178  : 		sprintf(szNotice,"Leadership: %d,%d",lpObj->Leadership,lpObj->AddLeadership);

  00433	0f b7 87 f6 00
	00 00		 movzx	 eax, WORD PTR [edi+246]
  0043a	50		 push	 eax
  0043b	0f b7 87 f4 00
	00 00		 movzx	 eax, WORD PTR [edi+244]
  00442	50		 push	 eax
  00443	8d 85 fc fe ff
	ff		 lea	 eax, DWORD PTR _szNotice$2[ebp]
  00449	68 00 00 00 00	 push	 OFFSET ??_C@_0BC@GFGEFHFO@Leadership?3?5?$CFd?0?$CFd?$AA@
  0044e	50		 push	 eax
  0044f	e8 00 00 00 00	 call	 _sprintf

; 179  : 		GCServerMsgStringSend(szNotice,lpObj->m_Index,1);

  00454	6a 01		 push	 1
  00456	ff 37		 push	 DWORD PTR [edi]
  00458	8d 85 fc fe ff
	ff		 lea	 eax, DWORD PTR _szNotice$2[ebp]
  0045e	50		 push	 eax
  0045f	e8 00 00 00 00	 call	 ?GCServerMsgStringSend@@YAXPADHE@Z ; GCServerMsgStringSend
  00464	83 c4 34	 add	 esp, 52			; 00000034H
$LN31@gObjCalCha:

; 180  : 	}
; 181  : 
; 182  : #if (ENABLE_CUSTOM_CLASSCALC == 1)
; 183  : 	g_ClassCalc.GetAttackDamage(lpObj);

  00467	57		 push	 edi
  00468	b9 00 00 00 00	 mov	 ecx, OFFSET ?g_ClassCalc@@3VClassCalc@@A ; g_ClassCalc
  0046d	e8 00 00 00 00	 call	 ?GetAttackDamage@ClassCalc@@QAEXPAUOBJECTSTRUCT@@@Z ; ClassCalc::GetAttackDamage

; 184  : #else
; 185  : 	if ( lpObj->Class == CLASS_ELF ) // Elf
; 186  : 	{
; 187  : 		if ( (Right->m_Type >= ITEMGET(4,8) && Right->m_Type < ITEMGET(4,15) ) ||
; 188  : 			 (Left->m_Type >= ITEMGET(4,0) && Left->m_Type < ITEMGET(4,7)) ||
; 189  : 			  Right->m_Type == ITEMGET(4,16) ||
; 190  : 			  Left->m_Type == ITEMGET(4,20) ||
; 191  : 			  Left->m_Type == ITEMGET(4,21) ||
; 192  : 			  Left->m_Type == ITEMGET(4,22) ||
; 193  : 			  Left->m_Type == ITEMGET(4,23) ||
; 194  : 			  Right->m_Type == ITEMGET(4,18) ||
; 195  : 			  Right->m_Type == ITEMGET(4,19) ||
; 196  : 			  Left->m_Type == ITEMGET(4,17) )
; 197  : 		{
; 198  : 			if ( (Right->IsItem() != FALSE && Right->m_IsValidItem == false) || (Left->IsItem() != FALSE && Left->m_IsValidItem == false) )
; 199  : 			{
; 200  : 				lpObj->m_AttackDamageMinRight = (Dexterity + Strength ) / 7;
; 201  : 				lpObj->m_AttackDamageMaxRight = (Dexterity + Strength ) / 4;
; 202  : 				lpObj->m_AttackDamageMinLeft = (Dexterity + Strength ) / 7;
; 203  : 				lpObj->m_AttackDamageMaxLeft = (Dexterity + Strength ) / 4;
; 204  : 			}
; 205  : 			else
; 206  : 			{
; 207  : 				lpObj->m_AttackDamageMinRight = (Dexterity / 7) + (Strength / 14);
; 208  : 				lpObj->m_AttackDamageMaxRight = (Dexterity / 4) + (Strength / 8 );
; 209  : 				lpObj->m_AttackDamageMinLeft = (Dexterity / 7) + (Strength / 14);
; 210  : 				lpObj->m_AttackDamageMaxLeft = (Dexterity / 4) + (Strength / 8 );
; 211  : 			}
; 212  : 		}
; 213  : 		else
; 214  : 		{
; 215  : 			lpObj->m_AttackDamageMinRight = (Dexterity + Strength) / 7;
; 216  : 			lpObj->m_AttackDamageMaxRight = (Dexterity + Strength) / 4;
; 217  : 			lpObj->m_AttackDamageMinLeft = (Dexterity + Strength) / 7;
; 218  : 			lpObj->m_AttackDamageMaxLeft = (Dexterity + Strength) / 4;
; 219  : 		}
; 220  : 	}
; 221  : 	else if ( lpObj->Class == CLASS_KNIGHT ) // Dark Knight
; 222  : 	{
; 223  : 		lpObj->m_AttackDamageMinRight = Strength / 6;
; 224  : 		lpObj->m_AttackDamageMaxRight = Strength / 4;
; 225  : 		lpObj->m_AttackDamageMinLeft = Strength / 6;
; 226  : 		lpObj->m_AttackDamageMaxLeft = Strength / 4;
; 227  : 	}
; 228  : 	else if (lpObj->Class == CLASS_MAGUMSA ) // MAgic Gladiator
; 229  : 	{
; 230  : 		lpObj->m_AttackDamageMinRight = (Strength / 6) + (Energy / 12);
; 231  : 		lpObj->m_AttackDamageMaxRight = (Strength / 4) + (Energy / 8);
; 232  : 		lpObj->m_AttackDamageMinLeft = (Strength / 6) + (Energy / 12);
; 233  : 		lpObj->m_AttackDamageMaxLeft = (Strength / 4) + (Energy / 8);
; 234  : 	}
; 235  : 	else if ( lpObj->Class == CLASS_DARKLORD ) // Dark Lord
; 236  : 	{
; 237  : 		lpObj->m_AttackDamageMinRight = (Strength / 7) + (Energy / 14);
; 238  : 		lpObj->m_AttackDamageMaxRight = (Strength / 5) + (Energy / 10);
; 239  : 		lpObj->m_AttackDamageMinLeft = (Strength / 7) + (Energy / 14);
; 240  : 		lpObj->m_AttackDamageMaxLeft = (Strength / 5) + (Energy / 10);
; 241  : 	}
; 242  : 	else if ( lpObj->Class == CLASS_SUMMONER )
; 243  : 	{
; 244  : 		lpObj->m_AttackDamageMinRight = (Strength + Dexterity) / 7;
; 245  : 		lpObj->m_AttackDamageMaxRight = (Strength + Dexterity) / 4;
; 246  : 		lpObj->m_AttackDamageMinLeft = (Strength + Dexterity) / 7;
; 247  : 		lpObj->m_AttackDamageMaxLeft = (Strength + Dexterity) / 4;
; 248  : 	}
; 249  : 	else if ( lpObj->Class == CLASS_FIGHTER )
; 250  : 	{
; 251  : 		lpObj->m_AttackDamageMinRight = (Strength / 7) + (Vitality / 15);
; 252  : 		lpObj->m_AttackDamageMaxRight = (Strength / 5) + (Vitality / 12);
; 253  : 		lpObj->m_AttackDamageMinLeft = (Strength / 7) + (Vitality / 15);
; 254  : 		lpObj->m_AttackDamageMaxLeft = (Strength / 5) + (Vitality / 12);
; 255  : 	}
; 256  : 	else
; 257  : 	{
; 258  : 		lpObj->m_AttackDamageMinRight = (Strength / 8);
; 259  : 		lpObj->m_AttackDamageMaxRight = (Strength / 4);
; 260  : 		lpObj->m_AttackDamageMinLeft = (Strength / 8);
; 261  : 		lpObj->m_AttackDamageMaxLeft = (Strength / 4);
; 262  : 	}
; 263  : #endif
; 264  : 
; 265  : 	if( lpObj->Class == CLASS_KNIGHT ||
; 266  : 		lpObj->Class == CLASS_ELF ||
; 267  : 		lpObj->Class == CLASS_DARKLORD || 

  00472	0f b7 87 90 00
	00 00		 movzx	 eax, WORD PTR [edi+144]
  00479	83 f8 01	 cmp	 eax, 1
  0047c	74 0f		 je	 SHORT $LN33@gObjCalCha
  0047e	83 f8 02	 cmp	 eax, 2
  00481	74 0a		 je	 SHORT $LN33@gObjCalCha
  00483	83 f8 04	 cmp	 eax, 4
  00486	74 05		 je	 SHORT $LN33@gObjCalCha
  00488	83 f8 06	 cmp	 eax, 6
  0048b	75 74		 jne	 SHORT $LN32@gObjCalCha
$LN33@gObjCalCha:
  0048d	66 0f 6e 87 60
	06 00 00	 movd	 xmm0, DWORD PTR [edi+1632]

; 268  : 		lpObj->Class == CLASS_FIGHTER )
; 269  : 	{
; 270  : 		lpObj->m_AttackDamageMaxRight += lpObj->m_MPSkillOpt.MpsMaxAttackInc;

  00495	f3 0f 10 8f d0
	07 00 00	 movss	 xmm1, DWORD PTR [edi+2000]
  0049d	0f 5b c0	 cvtdq2ps xmm0, xmm0
  004a0	f3 0f 58 c1	 addss	 xmm0, xmm1
  004a4	f3 0f 2c c0	 cvttss2si eax, xmm0
  004a8	66 0f 6e 87 58
	06 00 00	 movd	 xmm0, DWORD PTR [edi+1624]

; 271  : 		lpObj->m_AttackDamageMaxLeft += lpObj->m_MPSkillOpt.MpsMaxAttackInc;

  004b0	0f 5b c0	 cvtdq2ps xmm0, xmm0
  004b3	89 87 60 06 00
	00		 mov	 DWORD PTR [edi+1632], eax
  004b9	f3 0f 58 c1	 addss	 xmm0, xmm1

; 272  : 
; 273  : 		lpObj->m_AttackDamageMinRight += lpObj->m_MPSkillOpt.MpsMinAttackInc;

  004bd	f3 0f 10 8f cc
	07 00 00	 movss	 xmm1, DWORD PTR [edi+1996]
  004c5	f3 0f 2c c0	 cvttss2si eax, xmm0
  004c9	66 0f 6e 87 64
	06 00 00	 movd	 xmm0, DWORD PTR [edi+1636]
  004d1	0f 5b c0	 cvtdq2ps xmm0, xmm0
  004d4	89 87 58 06 00
	00		 mov	 DWORD PTR [edi+1624], eax
  004da	f3 0f 58 c1	 addss	 xmm0, xmm1
  004de	f3 0f 2c c0	 cvttss2si eax, xmm0
  004e2	66 0f 6e 87 5c
	06 00 00	 movd	 xmm0, DWORD PTR [edi+1628]

; 274  : 		lpObj->m_AttackDamageMinLeft += lpObj->m_MPSkillOpt.MpsMinAttackInc;

  004ea	0f 5b c0	 cvtdq2ps xmm0, xmm0
  004ed	89 87 64 06 00
	00		 mov	 DWORD PTR [edi+1636], eax
  004f3	f3 0f 58 c1	 addss	 xmm0, xmm1
  004f7	f3 0f 2c c0	 cvttss2si eax, xmm0
  004fb	89 87 5c 06 00
	00		 mov	 DWORD PTR [edi+1628], eax
$LN32@gObjCalCha:

; 275  : 	}
; 276  : 
; 277  : 	lpObj->pInventory[7].PlusSpecial(&lpObj->m_AttackDamageMinRight, 80);

  00501	8b 8f c0 11 00
	00		 mov	 ecx, DWORD PTR [edi+4544]
  00507	8d b7 64 06 00
	00		 lea	 esi, DWORD PTR [edi+1636]
  0050d	6a 50		 push	 80			; 00000050H
  0050f	56		 push	 esi
  00510	81 c1 cc 05 00
	00		 add	 ecx, 1484		; 000005ccH
  00516	e8 00 00 00 00	 call	 ?PlusSpecial@CItem@@QAEXPAHH@Z ; CItem::PlusSpecial

; 278  : 	lpObj->pInventory[7].PlusSpecial(&lpObj->m_AttackDamageMaxRight, 80);

  0051b	8b 8f c0 11 00
	00		 mov	 ecx, DWORD PTR [edi+4544]
  00521	8d 87 60 06 00
	00		 lea	 eax, DWORD PTR [edi+1632]
  00527	6a 50		 push	 80			; 00000050H
  00529	50		 push	 eax
  0052a	81 c1 cc 05 00
	00		 add	 ecx, 1484		; 000005ccH
  00530	e8 00 00 00 00	 call	 ?PlusSpecial@CItem@@QAEXPAHH@Z ; CItem::PlusSpecial

; 279  : 	lpObj->pInventory[7].PlusSpecial(&lpObj->m_AttackDamageMinLeft, 80);

  00535	8b 8f c0 11 00
	00		 mov	 ecx, DWORD PTR [edi+4544]
  0053b	8d 87 5c 06 00
	00		 lea	 eax, DWORD PTR [edi+1628]
  00541	6a 50		 push	 80			; 00000050H
  00543	50		 push	 eax
  00544	81 c1 cc 05 00
	00		 add	 ecx, 1484		; 000005ccH
  0054a	e8 00 00 00 00	 call	 ?PlusSpecial@CItem@@QAEXPAHH@Z ; CItem::PlusSpecial

; 280  : 	lpObj->pInventory[7].PlusSpecial(&lpObj->m_AttackDamageMaxLeft, 80);

  0054f	8b 8f c0 11 00
	00		 mov	 ecx, DWORD PTR [edi+4544]
  00555	8d 87 58 06 00
	00		 lea	 eax, DWORD PTR [edi+1624]
  0055b	6a 50		 push	 80			; 00000050H
  0055d	50		 push	 eax
  0055e	81 c1 cc 05 00
	00		 add	 ecx, 1484		; 000005ccH
  00564	e8 00 00 00 00	 call	 ?PlusSpecial@CItem@@QAEXPAHH@Z ; CItem::PlusSpecial

; 281  : 
; 282  : 	int AddLeadership = 0;

  00569	c7 85 cc fe ff
	ff 00 00 00 00	 mov	 DWORD PTR _AddLeadership$[ebp], 0

; 283  : 
; 284  : 	if ( lpObj->pInventory[7].IsItem() != FALSE && lpObj->pInventory[7].m_IsValidItem != false)

  00573	8b 8f c0 11 00
	00		 mov	 ecx, DWORD PTR [edi+4544]
  00579	81 c1 cc 05 00
	00		 add	 ecx, 1484		; 000005ccH
  0057f	e8 00 00 00 00	 call	 ?IsItem@CItem@@QAEHXZ	; CItem::IsItem
  00584	85 c0		 test	 eax, eax
  00586	74 1c		 je	 SHORT $LN34@gObjCalCha
  00588	8b 87 c0 11 00
	00		 mov	 eax, DWORD PTR [edi+4544]
  0058e	80 b8 78 06 00
	00 00		 cmp	 BYTE PTR [eax+1656], 0
  00595	74 0d		 je	 SHORT $LN34@gObjCalCha

; 285  : 	{
; 286  : 		AddLeadership += lpObj->pInventory[7].m_Leadership;

  00597	0f b7 80 2a 06
	00 00		 movzx	 eax, WORD PTR [eax+1578]
  0059e	01 85 cc fe ff
	ff		 add	 DWORD PTR _AddLeadership$[ebp], eax
$LN34@gObjCalCha:

; 287  : 	}
; 288  : 
; 289  : 	if ( Right->m_Type != -1 )

  005a4	8b 9d c8 fe ff
	ff		 mov	 ebx, DWORD PTR _Right$1$[ebp]
  005aa	ba 00 0a 00 00	 mov	 edx, 2560		; 00000a00H
  005af	b9 00 0c 00 00	 mov	 ecx, 3072		; 00000c00H
  005b4	0f b7 43 06	 movzx	 eax, WORD PTR [ebx+6]
  005b8	66 83 f8 ff	 cmp	 ax, -1
  005bc	74 7c		 je	 SHORT $LN35@gObjCalCha

; 290  : 	{
; 291  : 		if ( Right->m_IsValidItem != false )

  005be	80 bb ac 00 00
	00 00		 cmp	 BYTE PTR [ebx+172], 0
  005c5	74 41		 je	 SHORT $LN38@gObjCalCha

; 292  : 		{
; 293  : 			if ( Right->m_Type >= ITEMGET(5,0) && Right->m_Type < ITEMGET(6,0) )

  005c7	66 3b c2	 cmp	 ax, dx
  005ca	7c 2c		 jl	 SHORT $LN37@gObjCalCha
  005cc	66 3b c1	 cmp	 ax, cx
  005cf	7d 27		 jge	 SHORT $LN37@gObjCalCha

; 294  : 			{
; 295  : 				lpObj->m_AttackDamageMinRight += Right->m_DamageMin / 2;

  005d1	0f b7 43 10	 movzx	 eax, WORD PTR [ebx+16]
  005d5	d1 e8		 shr	 eax, 1
  005d7	01 06		 add	 DWORD PTR [esi], eax

; 296  : 				lpObj->m_AttackDamageMaxRight += Right->m_DamageMax / 2;

  005d9	0f b7 43 12	 movzx	 eax, WORD PTR [ebx+18]
  005dd	d1 e8		 shr	 eax, 1

; 297  : 			}
; 298  : 			else

  005df	eb 21		 jmp	 SHORT $LN432@gObjCalCha
$LN29@gObjCalCha:

; 148  : 				}
; 149  : 				else
; 150  : 				{
; 151  : 					lpObj->pInventory[iItemIndex].m_IsValidItem  = false;

  005e1	c6 86 ac 00 00
	00 00		 mov	 BYTE PTR [esi+172], 0

; 152  : 					//g_BuffEffect.ClearAllBuffEffect(lpObj); //bugged if use active buff & have wrong item
; 153  : 					bIsChangeItem = TRUE;

  005e8	be 01 00 00 00	 mov	 esi, 1
  005ed	89 b5 f4 fe ff
	ff		 mov	 DWORD PTR _bIsChangeItem$1$[ebp], esi
  005f3	e9 4f fd ff ff	 jmp	 $LN8@gObjCalCha
$LN37@gObjCalCha:

; 299  : 			{
; 300  : 				lpObj->m_AttackDamageMinRight += Right->m_DamageMin;

  005f8	0f b7 43 10	 movzx	 eax, WORD PTR [ebx+16]
  005fc	01 06		 add	 DWORD PTR [esi], eax

; 301  : 				lpObj->m_AttackDamageMaxRight += Right->m_DamageMax;

  005fe	0f b7 43 12	 movzx	 eax, WORD PTR [ebx+18]
$LN432@gObjCalCha:
  00602	01 87 60 06 00
	00		 add	 DWORD PTR [edi+1632], eax
$LN38@gObjCalCha:

; 302  : 			}
; 303  : 		}
; 304  : 
; 305  : 		if ( lpObj->pInventory[0].m_SkillChange != FALSE )

  00608	8b 8f c0 11 00
	00		 mov	 ecx, DWORD PTR [edi+4544]
  0060e	80 b9 a8 00 00
	00 00		 cmp	 BYTE PTR [ecx+168], 0
  00615	74 07		 je	 SHORT $LN39@gObjCalCha

; 306  : 		{
; 307  : 			lpObj->SkillLongSpearChange = true;

  00617	c6 87 0a 16 00
	00 01		 mov	 BYTE PTR [edi+5642], 1
$LN39@gObjCalCha:

; 308  : 		}
; 309  : 
; 310  : 		lpObj->pInventory[0].PlusSpecial(&lpObj->m_AttackDamageMinRight, 80);

  0061e	6a 50		 push	 80			; 00000050H
  00620	56		 push	 esi
  00621	e8 00 00 00 00	 call	 ?PlusSpecial@CItem@@QAEXPAHH@Z ; CItem::PlusSpecial

; 311  : 		lpObj->pInventory[0].PlusSpecial(&lpObj->m_AttackDamageMaxRight, 80);

  00626	6a 50		 push	 80			; 00000050H
  00628	8d 8f 60 06 00
	00		 lea	 ecx, DWORD PTR [edi+1632]
  0062e	51		 push	 ecx
  0062f	8b 8f c0 11 00
	00		 mov	 ecx, DWORD PTR [edi+4544]
  00635	e8 00 00 00 00	 call	 ?PlusSpecial@CItem@@QAEXPAHH@Z ; CItem::PlusSpecial
$LN35@gObjCalCha:

; 312  : 	}
; 313  : 		
; 314  : 	if ( Left->m_Type != -1 )

  0063a	66 83 bb da 00
	00 00 ff	 cmp	 WORD PTR [ebx+218], -1
  00642	74 57		 je	 SHORT $LN40@gObjCalCha

; 315  : 	{
; 316  : 		if ( Left->m_IsValidItem != false)

  00644	80 bb 80 01 00
	00 00		 cmp	 BYTE PTR [ebx+384], 0
  0064b	74 1a		 je	 SHORT $LN41@gObjCalCha

; 317  : 		{
; 318  : 			lpObj->m_AttackDamageMinLeft += Left->m_DamageMin;

  0064d	0f b7 83 e4 00
	00 00		 movzx	 eax, WORD PTR [ebx+228]
  00654	01 87 5c 06 00
	00		 add	 DWORD PTR [edi+1628], eax

; 319  : 			lpObj->m_AttackDamageMaxLeft += Left->m_DamageMax;

  0065a	0f b7 83 e6 00
	00 00		 movzx	 eax, WORD PTR [ebx+230]
  00661	01 87 58 06 00
	00		 add	 DWORD PTR [edi+1624], eax
$LN41@gObjCalCha:

; 320  : 		}
; 321  : 
; 322  : 		lpObj->pInventory[1].PlusSpecial(&lpObj->m_AttackDamageMinLeft, 80);

  00667	6a 50		 push	 80			; 00000050H
  00669	8d 8f 5c 06 00
	00		 lea	 ecx, DWORD PTR [edi+1628]
  0066f	51		 push	 ecx
  00670	8b 8f c0 11 00
	00		 mov	 ecx, DWORD PTR [edi+4544]
  00676	81 c1 d4 00 00
	00		 add	 ecx, 212		; 000000d4H
  0067c	e8 00 00 00 00	 call	 ?PlusSpecial@CItem@@QAEXPAHH@Z ; CItem::PlusSpecial

; 323  : 		lpObj->pInventory[1].PlusSpecial(&lpObj->m_AttackDamageMaxLeft, 80);

  00681	6a 50		 push	 80			; 00000050H
  00683	8d 8f 58 06 00
	00		 lea	 ecx, DWORD PTR [edi+1624]
  00689	51		 push	 ecx
  0068a	8b 8f c0 11 00
	00		 mov	 ecx, DWORD PTR [edi+4544]
  00690	81 c1 d4 00 00
	00		 add	 ecx, 212		; 000000d4H
  00696	e8 00 00 00 00	 call	 ?PlusSpecial@CItem@@QAEXPAHH@Z ; CItem::PlusSpecial
$LN40@gObjCalCha:

; 324  : 	}
; 325  : 
; 326  : 	lpObj->m_CriticalDamage = 0;
; 327  : 	lpObj->m_ExcelentDamage = 0;
; 328  : 
; 329  : 	lpObj->pInventory[0].PlusSpecial(&lpObj->m_CriticalDamage, 84);

  0069b	8b 8f c0 11 00
	00		 mov	 ecx, DWORD PTR [edi+4544]
  006a1	8d b7 9c 06 00
	00		 lea	 esi, DWORD PTR [edi+1692]
  006a7	6a 54		 push	 84			; 00000054H
  006a9	56		 push	 esi
  006aa	c7 06 00 00 00
	00		 mov	 DWORD PTR [esi], 0
  006b0	c7 87 a0 06 00
	00 00 00 00 00	 mov	 DWORD PTR [edi+1696], 0
  006ba	e8 00 00 00 00	 call	 ?PlusSpecial@CItem@@QAEXPAHH@Z ; CItem::PlusSpecial

; 330  : 	lpObj->pInventory[1].PlusSpecial(&lpObj->m_CriticalDamage, 84);

  006bf	8b 8f c0 11 00
	00		 mov	 ecx, DWORD PTR [edi+4544]
  006c5	6a 54		 push	 84			; 00000054H
  006c7	56		 push	 esi
  006c8	81 c1 d4 00 00
	00		 add	 ecx, 212		; 000000d4H
  006ce	e8 00 00 00 00	 call	 ?PlusSpecial@CItem@@QAEXPAHH@Z ; CItem::PlusSpecial

; 331  : 	lpObj->pInventory[2].PlusSpecial(&lpObj->m_CriticalDamage, 84);

  006d3	8b 8f c0 11 00
	00		 mov	 ecx, DWORD PTR [edi+4544]
  006d9	6a 54		 push	 84			; 00000054H
  006db	56		 push	 esi
  006dc	81 c1 a8 01 00
	00		 add	 ecx, 424		; 000001a8H
  006e2	e8 00 00 00 00	 call	 ?PlusSpecial@CItem@@QAEXPAHH@Z ; CItem::PlusSpecial

; 332  : 	lpObj->pInventory[3].PlusSpecial(&lpObj->m_CriticalDamage, 84);

  006e7	8b 8f c0 11 00
	00		 mov	 ecx, DWORD PTR [edi+4544]
  006ed	6a 54		 push	 84			; 00000054H
  006ef	56		 push	 esi
  006f0	81 c1 7c 02 00
	00		 add	 ecx, 636		; 0000027cH
  006f6	e8 00 00 00 00	 call	 ?PlusSpecial@CItem@@QAEXPAHH@Z ; CItem::PlusSpecial

; 333  : 	lpObj->pInventory[4].PlusSpecial(&lpObj->m_CriticalDamage, 84);

  006fb	8b 8f c0 11 00
	00		 mov	 ecx, DWORD PTR [edi+4544]
  00701	6a 54		 push	 84			; 00000054H
  00703	56		 push	 esi
  00704	81 c1 50 03 00
	00		 add	 ecx, 848		; 00000350H
  0070a	e8 00 00 00 00	 call	 ?PlusSpecial@CItem@@QAEXPAHH@Z ; CItem::PlusSpecial

; 334  : 	lpObj->pInventory[5].PlusSpecial(&lpObj->m_CriticalDamage, 84);

  0070f	8b 8f c0 11 00
	00		 mov	 ecx, DWORD PTR [edi+4544]
  00715	6a 54		 push	 84			; 00000054H
  00717	56		 push	 esi
  00718	81 c1 24 04 00
	00		 add	 ecx, 1060		; 00000424H
  0071e	e8 00 00 00 00	 call	 ?PlusSpecial@CItem@@QAEXPAHH@Z ; CItem::PlusSpecial

; 335  : 	lpObj->pInventory[6].PlusSpecial(&lpObj->m_CriticalDamage, 84);

  00723	8b 8f c0 11 00
	00		 mov	 ecx, DWORD PTR [edi+4544]
  00729	6a 54		 push	 84			; 00000054H
  0072b	56		 push	 esi
  0072c	81 c1 f8 04 00
	00		 add	 ecx, 1272		; 000004f8H
  00732	e8 00 00 00 00	 call	 ?PlusSpecial@CItem@@QAEXPAHH@Z ; CItem::PlusSpecial

; 336  : 	lpObj->pInventory[7].PlusSpecial(&lpObj->m_CriticalDamage, 84);

  00737	8b 8f c0 11 00
	00		 mov	 ecx, DWORD PTR [edi+4544]
  0073d	6a 54		 push	 84			; 00000054H
  0073f	56		 push	 esi
  00740	81 c1 cc 05 00
	00		 add	 ecx, 1484		; 000005ccH
  00746	e8 00 00 00 00	 call	 ?PlusSpecial@CItem@@QAEXPAHH@Z ; CItem::PlusSpecial

; 337  : 
; 338  : 
; 339  : 	if( gObjCheckUsedBuffEffect(lpObj,BUFF_ADD_CRITDMG3) == TRUE )

  0074b	68 95 00 00 00	 push	 149			; 00000095H
  00750	57		 push	 edi
  00751	e8 00 00 00 00	 call	 ?gObjCheckUsedBuffEffect@@YA_NPAUOBJECTSTRUCT@@H@Z ; gObjCheckUsedBuffEffect
  00756	83 c4 08	 add	 esp, 8
  00759	3c 01		 cmp	 al, 1
  0075b	75 1d		 jne	 SHORT $LN42@gObjCalCha

; 340  : 	{
; 341  : 		lpObj->m_ExcelentDamage += lpObj->m_MPSkillOpt.MpsCritBuffExcDamage;

  0075d	66 0f 6e 87 a0
	06 00 00	 movd	 xmm0, DWORD PTR [edi+1696]
  00765	0f 5b c0	 cvtdq2ps xmm0, xmm0
  00768	f3 0f 58 87 74
	08 00 00	 addss	 xmm0, DWORD PTR [edi+2164]
  00770	f3 0f 2c c0	 cvttss2si eax, xmm0
  00774	89 87 a0 06 00
	00		 mov	 DWORD PTR [edi+1696], eax
$LN42@gObjCalCha:

; 342  : 	}
; 343  : 
; 344  : 	/*lpObj->m_CriticalDamage += gObjGetTotalValueOfEffect(lpObj,ADD_OPTION_INCCRITDMG);
; 345  : 	iValue = 0;
; 346  : 	gObjGetValueOfBuffIndex(lpObj,BUFF_ICE,&iValue,0);
; 347  : 	lpObj->m_ExcelentDamage += iValue;*/
; 348  : 
; 349  : 	if( lpObj->m_MPSkillOpt.MpsCriticalRateIncrease > 0.0f )

  0077a	f3 0f 10 8f 54
	08 00 00	 movss	 xmm1, DWORD PTR [edi+2132]
  00782	0f 57 d2	 xorps	 xmm2, xmm2
  00785	0f 2f ca	 comiss	 xmm1, xmm2
  00788	76 11		 jbe	 SHORT $LN43@gObjCalCha

; 350  : 	{
; 351  : 		lpObj->m_CriticalDamage += lpObj->m_MPSkillOpt.MpsCriticalRateIncrease;

  0078a	66 0f 6e 06	 movd	 xmm0, DWORD PTR [esi]
  0078e	0f 5b c0	 cvtdq2ps xmm0, xmm0
  00791	f3 0f 58 c1	 addss	 xmm0, xmm1
  00795	f3 0f 2c c0	 cvttss2si eax, xmm0
  00799	89 06		 mov	 DWORD PTR [esi], eax
$LN43@gObjCalCha:

; 352  : 	}
; 353  : 
; 354  : 	if( lpObj->m_MPSkillOpt.MpsExcelentRateIncrease > 0.0f )

  0079b	f3 0f 10 8f 58
	08 00 00	 movss	 xmm1, DWORD PTR [edi+2136]
  007a3	0f 2f ca	 comiss	 xmm1, xmm2
  007a6	76 19		 jbe	 SHORT $LN44@gObjCalCha

; 355  : 	{
; 356  : 		lpObj->m_ExcelentDamage += lpObj->m_MPSkillOpt.MpsExcelentRateIncrease;

  007a8	66 0f 6e 87 a0
	06 00 00	 movd	 xmm0, DWORD PTR [edi+1696]
  007b0	0f 5b c0	 cvtdq2ps xmm0, xmm0
  007b3	f3 0f 58 c1	 addss	 xmm0, xmm1
  007b7	f3 0f 2c c0	 cvttss2si eax, xmm0
  007bb	89 87 a0 06 00
	00		 mov	 DWORD PTR [edi+1696], eax
$LN44@gObjCalCha:

; 357  : 	}
; 358  : 
; 359  : #if (ENABLE_CUSTOM_CLASSCALC == 1)
; 360  : 	g_ClassCalc.GetMagicDamage(lpObj);

  007c1	57		 push	 edi
  007c2	b9 00 00 00 00	 mov	 ecx, OFFSET ?g_ClassCalc@@3VClassCalc@@A ; g_ClassCalc
  007c7	e8 00 00 00 00	 call	 ?GetMagicDamage@ClassCalc@@QAEXPAUOBJECTSTRUCT@@@Z ; ClassCalc::GetMagicDamage

; 361  : #else
; 362  : 	lpObj->m_MagicDamageMin = Energy / 9;
; 363  : 	lpObj->m_MagicDamageMax = Energy / 4;
; 364  : 
; 365  : 	if( lpObj->Class == CLASS_SUMMONER )
; 366  : 	{
; 367  : 		lpObj->m_MagicDamageMin = Energy / 9;
; 368  : 		lpObj->m_MagicDamageMax = (int)(double(0.015) + Energy / 4);
; 369  : 		lpObj->m_CurseDamageMin = Energy / 9;
; 370  : 		lpObj->m_CurseDamageMax = (int)(double(0.015) + Energy / 4);
; 371  : 
; 372  : 		lpObj->m_MagicDamageMax += lpObj->m_MPSkillOpt.MpsMaxMagicDamage;
; 373  : 		lpObj->m_MagicDamageMin += lpObj->m_MPSkillOpt.MpsMinMagicDamage;
; 374  : 	}
; 375  : #endif
; 376  : 
; 377  : 	if( lpObj->Class == CLASS_WIZARD || lpObj->Class == CLASS_MAGUMSA )

  007cc	0f b7 87 90 00
	00 00		 movzx	 eax, WORD PTR [edi+144]
  007d3	66 85 c0	 test	 ax, ax
  007d6	74 05		 je	 SHORT $LN46@gObjCalCha
  007d8	83 f8 03	 cmp	 eax, 3
  007db	75 60		 jne	 SHORT $LN45@gObjCalCha
$LN46@gObjCalCha:
  007dd	66 0f 6e 87 4c
	06 00 00	 movd	 xmm0, DWORD PTR [edi+1612]

; 378  : 	{
; 379  : 		lpObj->m_MagicDamageMax += lpObj->m_MPSkillOpt.MpsMaxMagicDamage;

  007e5	0f 5b c0	 cvtdq2ps xmm0, xmm0

; 380  : 		lpObj->m_MagicDamageMin += lpObj->m_MPSkillOpt.MpsMinMagicDamage;
; 381  : 		lpObj->m_MagicDamageMax += lpObj->m_MPSkillOpt.MpsMagicMastery;

  007e8	f3 0f 10 8f 20
	07 00 00	 movss	 xmm1, DWORD PTR [edi+1824]
  007f0	f3 0f 58 87 10
	08 00 00	 addss	 xmm0, DWORD PTR [edi+2064]
  007f8	f3 0f 2c c0	 cvttss2si eax, xmm0
  007fc	66 0f 6e c0	 movd	 xmm0, eax
  00800	0f 5b c0	 cvtdq2ps xmm0, xmm0
  00803	f3 0f 58 c1	 addss	 xmm0, xmm1
  00807	f3 0f 2c c0	 cvttss2si eax, xmm0
  0080b	66 0f 6e 87 48
	06 00 00	 movd	 xmm0, DWORD PTR [edi+1608]
  00813	0f 5b c0	 cvtdq2ps xmm0, xmm0
  00816	89 87 4c 06 00
	00		 mov	 DWORD PTR [edi+1612], eax
  0081c	f3 0f 58 87 14
	08 00 00	 addss	 xmm0, DWORD PTR [edi+2068]
  00824	f3 0f 2c c0	 cvttss2si eax, xmm0
  00828	66 0f 6e c0	 movd	 xmm0, eax

; 382  : 		lpObj->m_MagicDamageMin += lpObj->m_MPSkillOpt.MpsMagicMastery;

  0082c	0f 5b c0	 cvtdq2ps xmm0, xmm0
  0082f	f3 0f 58 c1	 addss	 xmm0, xmm1
  00833	f3 0f 2c c0	 cvttss2si eax, xmm0
  00837	89 87 48 06 00
	00		 mov	 DWORD PTR [edi+1608], eax
$LN45@gObjCalCha:

; 383  : 	}
; 384  : 
; 385  : 	lpObj->pInventory[7].PlusSpecial(&lpObj->m_MagicDamageMin, 81);

  0083d	8b 8f c0 11 00
	00		 mov	 ecx, DWORD PTR [edi+4544]
  00843	8d b7 48 06 00
	00		 lea	 esi, DWORD PTR [edi+1608]
  00849	6a 51		 push	 81			; 00000051H
  0084b	56		 push	 esi
  0084c	81 c1 cc 05 00
	00		 add	 ecx, 1484		; 000005ccH
  00852	e8 00 00 00 00	 call	 ?PlusSpecial@CItem@@QAEXPAHH@Z ; CItem::PlusSpecial

; 386  : 	lpObj->pInventory[7].PlusSpecial(&lpObj->m_MagicDamageMax, 81);

  00857	8b 8f c0 11 00
	00		 mov	 ecx, DWORD PTR [edi+4544]
  0085d	8d 87 4c 06 00
	00		 lea	 eax, DWORD PTR [edi+1612]
  00863	6a 51		 push	 81			; 00000051H
  00865	50		 push	 eax
  00866	81 c1 cc 05 00
	00		 add	 ecx, 1484		; 000005ccH
  0086c	e8 00 00 00 00	 call	 ?PlusSpecial@CItem@@QAEXPAHH@Z ; CItem::PlusSpecial

; 387  : 	lpObj->pInventory[7].PlusSpecial(&lpObj->m_CurseDamageMin, 113);

  00871	8b 8f c0 11 00
	00		 mov	 ecx, DWORD PTR [edi+4544]
  00877	8d 87 84 06 00
	00		 lea	 eax, DWORD PTR [edi+1668]
  0087d	6a 71		 push	 113			; 00000071H
  0087f	50		 push	 eax
  00880	81 c1 cc 05 00
	00		 add	 ecx, 1484		; 000005ccH
  00886	e8 00 00 00 00	 call	 ?PlusSpecial@CItem@@QAEXPAHH@Z ; CItem::PlusSpecial

; 388  : 	lpObj->pInventory[7].PlusSpecial(&lpObj->m_CurseDamageMax, 113);

  0088b	8b 8f c0 11 00
	00		 mov	 ecx, DWORD PTR [edi+4544]
  00891	8d 87 88 06 00
	00		 lea	 eax, DWORD PTR [edi+1672]
  00897	6a 71		 push	 113			; 00000071H
  00899	50		 push	 eax
  0089a	81 c1 cc 05 00
	00		 add	 ecx, 1484		; 000005ccH
  008a0	e8 00 00 00 00	 call	 ?PlusSpecial@CItem@@QAEXPAHH@Z ; CItem::PlusSpecial

; 389  : 
; 390  : 	if ( Right->m_Type != -1 )

  008a5	66 83 7b 06 ff	 cmp	 WORD PTR [ebx+6], -1
  008aa	74 50		 je	 SHORT $LN49@gObjCalCha

; 391  : 	{
; 392  : 		if ( lpObj->pInventory[0].m_Type == ITEMGET(0,31) ||
; 393  : 			 lpObj->pInventory[0].m_Type == ITEMGET(0,21) ||
; 394  : 			 lpObj->pInventory[0].m_Type == ITEMGET(0,23) ||
; 395  : 			 lpObj->pInventory[0].m_Type == ITEMGET(0,25) ||

  008ac	8b 8f c0 11 00
	00		 mov	 ecx, DWORD PTR [edi+4544]
  008b2	0f b7 41 06	 movzx	 eax, WORD PTR [ecx+6]
  008b6	66 83 f8 1f	 cmp	 ax, 31			; 0000001fH
  008ba	74 24		 je	 SHORT $LN50@gObjCalCha
  008bc	66 83 f8 15	 cmp	 ax, 21			; 00000015H
  008c0	74 1e		 je	 SHORT $LN50@gObjCalCha
  008c2	66 83 f8 17	 cmp	 ax, 23			; 00000017H
  008c6	74 18		 je	 SHORT $LN50@gObjCalCha
  008c8	66 83 f8 19	 cmp	 ax, 25			; 00000019H
  008cc	74 12		 je	 SHORT $LN50@gObjCalCha
  008ce	66 83 f8 1c	 cmp	 ax, 28			; 0000001cH
  008d2	74 0c		 je	 SHORT $LN50@gObjCalCha

; 400  : 		}
; 401  : 		else
; 402  : 		{
; 403  : 			lpObj->pInventory[0].PlusSpecial(&lpObj->m_MagicDamageMin, 81);

  008d4	6a 51		 push	 81			; 00000051H
  008d6	56		 push	 esi
  008d7	e8 00 00 00 00	 call	 ?PlusSpecial@CItem@@QAEXPAHH@Z ; CItem::PlusSpecial

; 404  : 			lpObj->pInventory[0].PlusSpecial(&lpObj->m_MagicDamageMax, 81);

  008dc	6a 51		 push	 81			; 00000051H
  008de	eb 0a		 jmp	 SHORT $LN433@gObjCalCha
$LN50@gObjCalCha:

; 396  : 			 lpObj->pInventory[0].m_Type == ITEMGET(0,28) ) 
; 397  : 		{
; 398  : 			lpObj->pInventory[0].PlusSpecial(&lpObj->m_MagicDamageMin, 80);

  008e0	6a 50		 push	 80			; 00000050H
  008e2	56		 push	 esi
  008e3	e8 00 00 00 00	 call	 ?PlusSpecial@CItem@@QAEXPAHH@Z ; CItem::PlusSpecial

; 399  : 			lpObj->pInventory[0].PlusSpecial(&lpObj->m_MagicDamageMax, 80);

  008e8	6a 50		 push	 80			; 00000050H
$LN433@gObjCalCha:
  008ea	8d 8f 4c 06 00
	00		 lea	 ecx, DWORD PTR [edi+1612]
  008f0	51		 push	 ecx
  008f1	8b 8f c0 11 00
	00		 mov	 ecx, DWORD PTR [edi+4544]
  008f7	e8 00 00 00 00	 call	 ?PlusSpecial@CItem@@QAEXPAHH@Z ; CItem::PlusSpecial
$LN49@gObjCalCha:

; 405  : 		}
; 406  : 	}
; 407  : 
; 408  : 	if ( Left->m_Type != -1 )

  008fc	66 83 bb da 00
	00 00 ff	 cmp	 WORD PTR [ebx+218], -1
  00904	74 34		 je	 SHORT $LN51@gObjCalCha

; 409  : 	{
; 410  : 		lpObj->pInventory[1].PlusSpecial(&lpObj->m_CurseDamageMin, 113);

  00906	6a 71		 push	 113			; 00000071H
  00908	8d 8f 84 06 00
	00		 lea	 ecx, DWORD PTR [edi+1668]
  0090e	51		 push	 ecx
  0090f	8b 8f c0 11 00
	00		 mov	 ecx, DWORD PTR [edi+4544]
  00915	81 c1 d4 00 00
	00		 add	 ecx, 212		; 000000d4H
  0091b	e8 00 00 00 00	 call	 ?PlusSpecial@CItem@@QAEXPAHH@Z ; CItem::PlusSpecial

; 411  : 		lpObj->pInventory[1].PlusSpecial(&lpObj->m_CurseDamageMax, 113);

  00920	8b 8f c0 11 00
	00		 mov	 ecx, DWORD PTR [edi+4544]
  00926	8d 87 88 06 00
	00		 lea	 eax, DWORD PTR [edi+1672]
  0092c	6a 71		 push	 113			; 00000071H
  0092e	50		 push	 eax
  0092f	81 c1 d4 00 00
	00		 add	 ecx, 212		; 000000d4H
  00935	e8 00 00 00 00	 call	 ?PlusSpecial@CItem@@QAEXPAHH@Z ; CItem::PlusSpecial
$LN51@gObjCalCha:

; 412  : 	}
; 413  : 
; 414  : 	lpObj->m_AttackRating = (Strength + Dexterity) / 2;

  0093a	8b 85 f8 fe ff
	ff		 mov	 eax, DWORD PTR _Strength$1$[ebp]
  00940	03 85 dc fe ff
	ff		 add	 eax, DWORD PTR _Dexterity$1$[ebp]

; 415  : 	lpObj->m_AttackRating += lpObj->pInventory[5].ItemDefense();

  00946	8b 8f c0 11 00
	00		 mov	 ecx, DWORD PTR [edi+4544]
  0094c	99		 cdq
  0094d	81 c1 24 04 00
	00		 add	 ecx, 1060		; 00000424H
  00953	2b c2		 sub	 eax, edx
  00955	d1 f8		 sar	 eax, 1
  00957	89 87 68 06 00
	00		 mov	 DWORD PTR [edi+1640], eax
  0095d	e8 00 00 00 00	 call	 ?ItemDefense@CItem@@QAEHXZ ; CItem::ItemDefense
  00962	01 87 68 06 00
	00		 add	 DWORD PTR [edi+1640], eax

; 416  : 
; 417  : #if (ENABLE_CUSTOM_CLASSCALC == 1)
; 418  : 	g_ClassCalc.GetAttackSpeed(lpObj);

  00968	b9 00 00 00 00	 mov	 ecx, OFFSET ?g_ClassCalc@@3VClassCalc@@A ; g_ClassCalc
  0096d	57		 push	 edi
  0096e	e8 00 00 00 00	 call	 ?GetAttackSpeed@ClassCalc@@QAEXPAUOBJECTSTRUCT@@@Z ; ClassCalc::GetAttackSpeed

; 419  : #else
; 420  : 	if ( lpObj->Class == CLASS_ELF ) // Elf
; 421  : 	{
; 422  : 		lpObj->m_AttackSpeed = Dexterity / 50;
; 423  : 		lpObj->m_MagicSpeed = Dexterity / 50;
; 424  : 	}
; 425  : 	else if ( lpObj->Class == CLASS_KNIGHT || lpObj->Class == CLASS_MAGUMSA) // Dark Knigh and MG
; 426  : 	{
; 427  : 		lpObj->m_AttackSpeed = Dexterity / 15;
; 428  : 		lpObj->m_MagicSpeed = Dexterity / 20;
; 429  : 	}
; 430  : 	else if ( lpObj->Class == CLASS_DARKLORD ) // DarkLord
; 431  : 	{
; 432  : 		lpObj->m_AttackSpeed = Dexterity / 10;
; 433  : 		lpObj->m_MagicSpeed = Dexterity / 10;
; 434  : 	}
; 435  : 	else if ( lpObj->Class == CLASS_SUMMONER )
; 436  : 	{
; 437  : 		lpObj->m_AttackSpeed = Dexterity / 20;
; 438  : 		lpObj->m_MagicSpeed = Dexterity / 20;
; 439  : 	}
; 440  : 	else if ( lpObj->Class == CLASS_FIGHTER )
; 441  : 	{
; 442  : 		lpObj->m_AttackSpeed = Dexterity / 9;
; 443  : 		lpObj->m_MagicSpeed = Dexterity / 9;
; 444  : 	}
; 445  : 	else
; 446  : 	{
; 447  : 		lpObj->m_AttackSpeed = Dexterity / 20;
; 448  : 		lpObj->m_MagicSpeed = Dexterity / 10;
; 449  : 	}
; 450  : #endif
; 451  : 
; 452  : 	bool bRight = false;
; 453  : 	bool bLeft = false;
; 454  : 
; 455  : 	if ( Right->m_Type != ITEMGET(4,7) && Right->m_Type != ITEMGET(4,15) && Right->m_Type >= ITEMGET(0,0) && Right->m_Type < ITEMGET(6,0) )

  00973	0f b7 4b 06	 movzx	 ecx, WORD PTR [ebx+6]
  00977	32 d2		 xor	 dl, dl
  00979	32 c0		 xor	 al, al
  0097b	c7 85 f8 fe ff
	ff 07 08 00 00	 mov	 DWORD PTR tv5404[ebp], 2055 ; 00000807H
  00985	be 0f 08 00 00	 mov	 esi, 2063		; 0000080fH
  0098a	89 b5 f4 fe ff
	ff		 mov	 DWORD PTR tv5436[ebp], esi
  00990	66 3b 8d f8 fe
	ff ff		 cmp	 cx, WORD PTR tv5404[ebp]
  00997	74 34		 je	 SHORT $LN412@gObjCalCha
  00999	66 3b ce	 cmp	 cx, si
  0099c	be 00 0c 00 00	 mov	 esi, 3072		; 00000c00H
  009a1	74 2f		 je	 SHORT $LN409@gObjCalCha
  009a3	66 85 c9	 test	 cx, cx
  009a6	78 2a		 js	 SHORT $LN409@gObjCalCha
  009a8	66 3b ce	 cmp	 cx, si
  009ab	7d 25		 jge	 SHORT $LN409@gObjCalCha

; 456  : 	{
; 457  : 		if ( Right->m_IsValidItem != false &&

  009ad	0f 57 c9	 xorps	 xmm1, xmm1
  009b0	38 83 ac 00 00
	00		 cmp	 BYTE PTR [ebx+172], al
  009b6	74 1d		 je	 SHORT $LN53@gObjCalCha
  009b8	f3 0f 10 43 24	 movss	 xmm0, DWORD PTR [ebx+36]
  009bd	b9 01 00 00 00	 mov	 ecx, 1
  009c2	0f 2f c1	 comiss	 xmm0, xmm1
  009c5	0f b6 d2	 movzx	 edx, dl
  009c8	0f 47 d1	 cmova	 edx, ecx
  009cb	eb 08		 jmp	 SHORT $LN53@gObjCalCha
$LN412@gObjCalCha:
  009cd	be 00 0c 00 00	 mov	 esi, 3072		; 00000c00H
$LN409@gObjCalCha:
  009d2	0f 57 c9	 xorps	 xmm1, xmm1
$LN53@gObjCalCha:

; 458  : 			 Right->m_Durability > 0.0f)
; 459  : 		{
; 460  : 			bRight = true;
; 461  : 		}
; 462  : 	}
; 463  : 
; 464  : 	if ( Left->m_Type != ITEMGET(4,7) && Left->m_Type != ITEMGET(4,15) && Left->m_Type >= ITEMGET(0,0) && Left->m_Type < ITEMGET(6,0) )

  009d5	0f b7 8b da 00
	00 00		 movzx	 ecx, WORD PTR [ebx+218]
  009dc	66 3b 8d f8 fe
	ff ff		 cmp	 cx, WORD PTR tv5404[ebp]
  009e3	74 32		 je	 SHORT $LN55@gObjCalCha
  009e5	66 3b 8d f4 fe
	ff ff		 cmp	 cx, WORD PTR tv5436[ebp]
  009ec	74 29		 je	 SHORT $LN55@gObjCalCha
  009ee	66 85 c9	 test	 cx, cx
  009f1	78 24		 js	 SHORT $LN55@gObjCalCha
  009f3	66 3b ce	 cmp	 cx, si
  009f6	7d 1f		 jge	 SHORT $LN55@gObjCalCha

; 465  : 	{
; 466  : 		if ( Left->m_IsValidItem != false &&

  009f8	80 bb 80 01 00
	00 00		 cmp	 BYTE PTR [ebx+384], 0
  009ff	74 16		 je	 SHORT $LN55@gObjCalCha
  00a01	f3 0f 10 83 f8
	00 00 00	 movss	 xmm0, DWORD PTR [ebx+248]
  00a09	b9 01 00 00 00	 mov	 ecx, 1
  00a0e	0f 2f c1	 comiss	 xmm0, xmm1
  00a11	0f b6 c0	 movzx	 eax, al
  00a14	0f 47 c1	 cmova	 eax, ecx
$LN55@gObjCalCha:

; 467  : 			 Left->m_Durability > 0.0f)
; 468  : 		{
; 469  : 			bLeft = true;
; 470  : 		}
; 471  : 	}
; 472  : 
; 473  : 	if ( bRight != false && bLeft != false )

  00a17	84 d2		 test	 dl, dl
  00a19	74 40		 je	 SHORT $LN58@gObjCalCha
  00a1b	84 c0		 test	 al, al
  00a1d	74 2c		 je	 SHORT $LN56@gObjCalCha

; 474  : 	{
; 475  : 		lpObj->m_AttackSpeed += (Right->m_AttackSpeed + Left->m_AttackSpeed)/2;

  00a1f	0f b6 4b 0d	 movzx	 ecx, BYTE PTR [ebx+13]
  00a23	0f b6 83 e1 00
	00 00		 movzx	 eax, BYTE PTR [ebx+225]
  00a2a	03 c1		 add	 eax, ecx
  00a2c	99		 cdq
  00a2d	2b c2		 sub	 eax, edx
  00a2f	d1 f8		 sar	 eax, 1
  00a31	01 87 6c 06 00
	00		 add	 DWORD PTR [edi+1644], eax

; 476  : 		lpObj->m_MagicSpeed += (Right->m_AttackSpeed + Left->m_AttackSpeed)/2;

  00a37	0f b6 83 e1 00
	00 00		 movzx	 eax, BYTE PTR [ebx+225]
  00a3e	0f b6 4b 0d	 movzx	 ecx, BYTE PTR [ebx+13]
  00a42	03 c1		 add	 eax, ecx
  00a44	99		 cdq
  00a45	2b c2		 sub	 eax, edx
  00a47	d1 f8		 sar	 eax, 1
  00a49	eb 28		 jmp	 SHORT $LN434@gObjCalCha
$LN56@gObjCalCha:

; 477  : 	}
; 478  : 	else if ( bRight!= false )
; 479  : 	{
; 480  : 		lpObj->m_AttackSpeed += Right->m_AttackSpeed;

  00a4b	0f b6 43 0d	 movzx	 eax, BYTE PTR [ebx+13]
  00a4f	01 87 6c 06 00
	00		 add	 DWORD PTR [edi+1644], eax

; 481  : 		lpObj->m_MagicSpeed += Right->m_AttackSpeed;

  00a55	0f b6 43 0d	 movzx	 eax, BYTE PTR [ebx+13]
  00a59	eb 18		 jmp	 SHORT $LN434@gObjCalCha
$LN58@gObjCalCha:

; 482  : 	}
; 483  : 	else if ( bLeft != false )

  00a5b	84 c0		 test	 al, al
  00a5d	74 1a		 je	 SHORT $LN60@gObjCalCha

; 484  : 	{
; 485  : 		lpObj->m_AttackSpeed += Left->m_AttackSpeed;

  00a5f	0f b6 83 e1 00
	00 00		 movzx	 eax, BYTE PTR [ebx+225]
  00a66	01 87 6c 06 00
	00		 add	 DWORD PTR [edi+1644], eax

; 486  : 		lpObj->m_MagicSpeed += Left->m_AttackSpeed;

  00a6c	0f b6 83 e1 00
	00 00		 movzx	 eax, BYTE PTR [ebx+225]
$LN434@gObjCalCha:
  00a73	01 87 70 06 00
	00		 add	 DWORD PTR [edi+1648], eax
$LN60@gObjCalCha:

; 487  : 	}
; 488  : 
; 489  : 	if ( Gloves->m_Type != -1 )

  00a79	66 83 bb 2a 04
	00 00 ff	 cmp	 WORD PTR [ebx+1066], -1
  00a81	74 23		 je	 SHORT $LN62@gObjCalCha

; 490  : 	{
; 491  : 		if ( Gloves->m_IsValidItem != false )

  00a83	80 bb d0 04 00
	00 00		 cmp	 BYTE PTR [ebx+1232], 0
  00a8a	74 1a		 je	 SHORT $LN62@gObjCalCha

; 492  : 		{
; 493  : 			lpObj->m_AttackSpeed += Gloves->m_AttackSpeed;

  00a8c	0f b6 83 31 04
	00 00		 movzx	 eax, BYTE PTR [ebx+1073]
  00a93	01 87 6c 06 00
	00		 add	 DWORD PTR [edi+1644], eax

; 494  : 			lpObj->m_MagicSpeed += Gloves->m_AttackSpeed;

  00a99	0f b6 83 31 04
	00 00		 movzx	 eax, BYTE PTR [ebx+1073]
  00aa0	01 87 70 06 00
	00		 add	 DWORD PTR [edi+1648], eax
$LN62@gObjCalCha:

; 495  : 		}
; 496  : 	}
; 497  : 
; 498  : 	if ( Helper->m_Type != -1 )

  00aa6	66 83 bb a6 06
	00 00 ff	 cmp	 WORD PTR [ebx+1702], -1
  00aae	74 23		 je	 SHORT $LN64@gObjCalCha

; 499  : 	{
; 500  : 		if ( Helper->m_IsValidItem != false )

  00ab0	80 bb 4c 07 00
	00 00		 cmp	 BYTE PTR [ebx+1868], 0
  00ab7	74 1a		 je	 SHORT $LN64@gObjCalCha

; 501  : 		{
; 502  : 			lpObj->m_AttackSpeed += Helper->m_AttackSpeed;

  00ab9	0f b6 83 ad 06
	00 00		 movzx	 eax, BYTE PTR [ebx+1709]
  00ac0	01 87 6c 06 00
	00		 add	 DWORD PTR [edi+1644], eax

; 503  : 			lpObj->m_MagicSpeed += Helper->m_AttackSpeed;

  00ac6	0f b6 83 ad 06
	00 00		 movzx	 eax, BYTE PTR [ebx+1709]
  00acd	01 87 70 06 00
	00		 add	 DWORD PTR [edi+1648], eax
$LN64@gObjCalCha:

; 504  : 		}
; 505  : 	}
; 506  : 
; 507  : 	if ( Amulet->m_Type != -1 )

  00ad3	66 83 bb 7a 07
	00 00 ff	 cmp	 WORD PTR [ebx+1914], -1
  00adb	74 23		 je	 SHORT $LN66@gObjCalCha

; 508  : 	{
; 509  : 		if ( Amulet->m_IsValidItem != false )

  00add	80 bb 20 08 00
	00 00		 cmp	 BYTE PTR [ebx+2080], 0
  00ae4	74 1a		 je	 SHORT $LN66@gObjCalCha

; 510  : 		{
; 511  : 			lpObj->m_AttackSpeed += Amulet->m_AttackSpeed;

  00ae6	0f b6 83 81 07
	00 00		 movzx	 eax, BYTE PTR [ebx+1921]
  00aed	01 87 6c 06 00
	00		 add	 DWORD PTR [edi+1644], eax

; 512  : 			lpObj->m_MagicSpeed += Amulet->m_AttackSpeed;

  00af3	0f b6 83 81 07
	00 00		 movzx	 eax, BYTE PTR [ebx+1921]
  00afa	01 87 70 06 00
	00		 add	 DWORD PTR [edi+1648], eax
$LN66@gObjCalCha:

; 513  : 		}
; 514  : 	}
; 515  : 
; 516  : 	// Wizard Ring effect
; 517  : 	if ( (lpObj->pInventory[10].IsItem() == TRUE && lpObj->pInventory[10].m_Type == ITEMGET(13,20) && lpObj->pInventory[10].m_Level == 0 && lpObj->pInventory[10].m_Durability > 0.0f ) ||

  00b00	8b 8f c0 11 00
	00		 mov	 ecx, DWORD PTR [edi+4544]
  00b06	81 c1 48 08 00
	00		 add	 ecx, 2120		; 00000848H
  00b0c	e8 00 00 00 00	 call	 ?IsItem@CItem@@QAEHXZ	; CItem::IsItem
  00b11	be 14 1a 00 00	 mov	 esi, 6676		; 00001a14H
  00b16	83 f8 01	 cmp	 eax, 1
  00b19	75 29		 jne	 SHORT $LN69@gObjCalCha
  00b1b	8b 87 c0 11 00
	00		 mov	 eax, DWORD PTR [edi+4544]
  00b21	66 39 b0 4e 08
	00 00		 cmp	 WORD PTR [eax+2126], si
  00b28	75 1a		 jne	 SHORT $LN69@gObjCalCha
  00b2a	66 83 b8 50 08
	00 00 00	 cmp	 WORD PTR [eax+2128], 0
  00b32	75 10		 jne	 SHORT $LN69@gObjCalCha
  00b34	f3 0f 10 80 6c
	08 00 00	 movss	 xmm0, DWORD PTR [eax+2156]
  00b3c	0f 57 c9	 xorps	 xmm1, xmm1
  00b3f	0f 2f c1	 comiss	 xmm0, xmm1
  00b42	77 4f		 ja	 SHORT $LN68@gObjCalCha
$LN69@gObjCalCha:
  00b44	8b 8f c0 11 00
	00		 mov	 ecx, DWORD PTR [edi+4544]
  00b4a	81 c1 1c 09 00
	00		 add	 ecx, 2332		; 0000091cH
  00b50	e8 00 00 00 00	 call	 ?IsItem@CItem@@QAEHXZ	; CItem::IsItem
  00b55	83 f8 01	 cmp	 eax, 1
  00b58	0f 85 1b 01 00
	00		 jne	 $LN67@gObjCalCha
  00b5e	8b 87 c0 11 00
	00		 mov	 eax, DWORD PTR [edi+4544]
  00b64	66 39 b0 22 09
	00 00		 cmp	 WORD PTR [eax+2338], si
  00b6b	0f 85 08 01 00
	00		 jne	 $LN67@gObjCalCha
  00b71	66 83 b8 24 09
	00 00 00	 cmp	 WORD PTR [eax+2340], 0
  00b79	0f 85 fa 00 00
	00		 jne	 $LN67@gObjCalCha
  00b7f	f3 0f 10 80 40
	09 00 00	 movss	 xmm0, DWORD PTR [eax+2368]
  00b87	0f 57 c9	 xorps	 xmm1, xmm1
  00b8a	0f 2f c1	 comiss	 xmm0, xmm1
  00b8d	0f 86 e6 00 00
	00		 jbe	 $LN67@gObjCalCha
$LN68@gObjCalCha:

; 518  : 		 (lpObj->pInventory[11].IsItem() == TRUE && lpObj->pInventory[11].m_Type == ITEMGET(13,20) && lpObj->pInventory[11].m_Level == 0 && lpObj->pInventory[11].m_Durability > 0.0f ) )
; 519  : 	{
; 520  : 		lpObj->m_AttackDamageMinRight += lpObj->m_AttackDamageMinRight * 10 / 100;

  00b93	8b b7 64 06 00
	00		 mov	 esi, DWORD PTR [edi+1636]
  00b99	b8 1f 85 eb 51	 mov	 eax, 1374389535		; 51eb851fH

; 521  : 		lpObj->m_AttackDamageMaxRight += lpObj->m_AttackDamageMaxRight * 10 / 100;
; 522  : 		lpObj->m_AttackDamageMinLeft += lpObj->m_AttackDamageMinLeft * 10 / 100;
; 523  : 		lpObj->m_AttackDamageMaxLeft += lpObj->m_AttackDamageMaxLeft * 10 / 100;
; 524  : 		lpObj->m_MagicDamageMin += lpObj->m_MagicDamageMin * 10 / 100;
; 525  : 		lpObj->m_MagicDamageMax += lpObj->m_MagicDamageMax * 10 / 100;
; 526  : 		lpObj->m_AttackSpeed += 10;

  00b9e	83 87 6c 06 00
	00 0a		 add	 DWORD PTR [edi+1644], 10 ; 0000000aH
  00ba5	8d 0c b6	 lea	 ecx, DWORD PTR [esi+esi*4]
  00ba8	03 c9		 add	 ecx, ecx
  00baa	f7 e9		 imul	 ecx
  00bac	c1 fa 05	 sar	 edx, 5
  00baf	8b c2		 mov	 eax, edx
  00bb1	c1 e8 1f	 shr	 eax, 31			; 0000001fH
  00bb4	03 c2		 add	 eax, edx
  00bb6	03 c6		 add	 eax, esi
  00bb8	8b b7 60 06 00
	00		 mov	 esi, DWORD PTR [edi+1632]
  00bbe	89 87 64 06 00
	00		 mov	 DWORD PTR [edi+1636], eax
  00bc4	b8 1f 85 eb 51	 mov	 eax, 1374389535		; 51eb851fH
  00bc9	8d 0c b6	 lea	 ecx, DWORD PTR [esi+esi*4]
  00bcc	03 c9		 add	 ecx, ecx
  00bce	f7 e9		 imul	 ecx
  00bd0	c1 fa 05	 sar	 edx, 5
  00bd3	8b c2		 mov	 eax, edx
  00bd5	c1 e8 1f	 shr	 eax, 31			; 0000001fH
  00bd8	03 c2		 add	 eax, edx
  00bda	03 c6		 add	 eax, esi
  00bdc	8b b7 5c 06 00
	00		 mov	 esi, DWORD PTR [edi+1628]
  00be2	89 87 60 06 00
	00		 mov	 DWORD PTR [edi+1632], eax
  00be8	b8 1f 85 eb 51	 mov	 eax, 1374389535		; 51eb851fH
  00bed	8d 0c b6	 lea	 ecx, DWORD PTR [esi+esi*4]
  00bf0	03 c9		 add	 ecx, ecx
  00bf2	f7 e9		 imul	 ecx
  00bf4	c1 fa 05	 sar	 edx, 5
  00bf7	8b c2		 mov	 eax, edx
  00bf9	c1 e8 1f	 shr	 eax, 31			; 0000001fH
  00bfc	03 c2		 add	 eax, edx
  00bfe	03 c6		 add	 eax, esi
  00c00	8b b7 58 06 00
	00		 mov	 esi, DWORD PTR [edi+1624]
  00c06	89 87 5c 06 00
	00		 mov	 DWORD PTR [edi+1628], eax
  00c0c	b8 1f 85 eb 51	 mov	 eax, 1374389535		; 51eb851fH
  00c11	8d 0c b6	 lea	 ecx, DWORD PTR [esi+esi*4]
  00c14	03 c9		 add	 ecx, ecx
  00c16	f7 e9		 imul	 ecx
  00c18	c1 fa 05	 sar	 edx, 5
  00c1b	8b c2		 mov	 eax, edx
  00c1d	c1 e8 1f	 shr	 eax, 31			; 0000001fH
  00c20	03 c2		 add	 eax, edx
  00c22	03 c6		 add	 eax, esi
  00c24	8b b7 48 06 00
	00		 mov	 esi, DWORD PTR [edi+1608]
  00c2a	89 87 58 06 00
	00		 mov	 DWORD PTR [edi+1624], eax
  00c30	b8 1f 85 eb 51	 mov	 eax, 1374389535		; 51eb851fH
  00c35	8d 0c b6	 lea	 ecx, DWORD PTR [esi+esi*4]
  00c38	03 c9		 add	 ecx, ecx
  00c3a	f7 e9		 imul	 ecx
  00c3c	c1 fa 05	 sar	 edx, 5
  00c3f	8b c2		 mov	 eax, edx
  00c41	c1 e8 1f	 shr	 eax, 31			; 0000001fH
  00c44	03 c2		 add	 eax, edx
  00c46	03 c6		 add	 eax, esi
  00c48	8b b7 4c 06 00
	00		 mov	 esi, DWORD PTR [edi+1612]
  00c4e	89 87 48 06 00
	00		 mov	 DWORD PTR [edi+1608], eax
  00c54	b8 1f 85 eb 51	 mov	 eax, 1374389535		; 51eb851fH
  00c59	8d 0c b6	 lea	 ecx, DWORD PTR [esi+esi*4]
  00c5c	03 c9		 add	 ecx, ecx
  00c5e	f7 e9		 imul	 ecx
  00c60	c1 fa 05	 sar	 edx, 5
  00c63	8b c2		 mov	 eax, edx
  00c65	c1 e8 1f	 shr	 eax, 31			; 0000001fH
  00c68	03 c2		 add	 eax, edx
  00c6a	03 c6		 add	 eax, esi

; 527  : 		lpObj->m_MagicSpeed += 10;

  00c6c	83 87 70 06 00
	00 0a		 add	 DWORD PTR [edi+1648], 10 ; 0000000aH
  00c73	89 87 4c 06 00
	00		 mov	 DWORD PTR [edi+1612], eax
$LN67@gObjCalCha:

; 528  : 	}
; 529  : 
; 530  : 	if ( (lpObj->pInventory[10].IsItem() == TRUE && lpObj->pInventory[10].m_Type == ITEMGET(13,107) && lpObj->pInventory[10].m_Level == 0 && lpObj->pInventory[10].m_Durability > 0.0f ) ||

  00c79	8b 8f c0 11 00
	00		 mov	 ecx, DWORD PTR [edi+4544]
  00c7f	81 c1 48 08 00
	00		 add	 ecx, 2120		; 00000848H
  00c85	e8 00 00 00 00	 call	 ?IsItem@CItem@@QAEHXZ	; CItem::IsItem
  00c8a	be 6b 1a 00 00	 mov	 esi, 6763		; 00001a6bH
  00c8f	83 f8 01	 cmp	 eax, 1
  00c92	75 29		 jne	 SHORT $LN72@gObjCalCha
  00c94	8b 87 c0 11 00
	00		 mov	 eax, DWORD PTR [edi+4544]
  00c9a	66 39 b0 4e 08
	00 00		 cmp	 WORD PTR [eax+2126], si
  00ca1	75 1a		 jne	 SHORT $LN72@gObjCalCha
  00ca3	66 83 b8 50 08
	00 00 00	 cmp	 WORD PTR [eax+2128], 0
  00cab	75 10		 jne	 SHORT $LN72@gObjCalCha
  00cad	f3 0f 10 80 6c
	08 00 00	 movss	 xmm0, DWORD PTR [eax+2156]
  00cb5	0f 57 c9	 xorps	 xmm1, xmm1
  00cb8	0f 2f c1	 comiss	 xmm0, xmm1
  00cbb	77 4f		 ja	 SHORT $LN71@gObjCalCha
$LN72@gObjCalCha:
  00cbd	8b 8f c0 11 00
	00		 mov	 ecx, DWORD PTR [edi+4544]
  00cc3	81 c1 1c 09 00
	00		 add	 ecx, 2332		; 0000091cH
  00cc9	e8 00 00 00 00	 call	 ?IsItem@CItem@@QAEHXZ	; CItem::IsItem
  00cce	83 f8 01	 cmp	 eax, 1
  00cd1	0f 85 27 01 00
	00		 jne	 $LN70@gObjCalCha
  00cd7	8b 87 c0 11 00
	00		 mov	 eax, DWORD PTR [edi+4544]
  00cdd	66 39 b0 22 09
	00 00		 cmp	 WORD PTR [eax+2338], si
  00ce4	0f 85 14 01 00
	00		 jne	 $LN70@gObjCalCha
  00cea	66 83 b8 24 09
	00 00 00	 cmp	 WORD PTR [eax+2340], 0
  00cf2	0f 85 06 01 00
	00		 jne	 $LN70@gObjCalCha
  00cf8	f3 0f 10 80 40
	09 00 00	 movss	 xmm0, DWORD PTR [eax+2368]
  00d00	0f 57 c9	 xorps	 xmm1, xmm1
  00d03	0f 2f c1	 comiss	 xmm0, xmm1
  00d06	0f 86 f2 00 00
	00		 jbe	 $LN70@gObjCalCha
$LN71@gObjCalCha:

; 531  : 		 (lpObj->pInventory[11].IsItem() == TRUE && lpObj->pInventory[11].m_Type == ITEMGET(13,107) && lpObj->pInventory[11].m_Level == 0 && lpObj->pInventory[11].m_Durability > 0.0f ) )
; 532  : 	{
; 533  : 		lpObj->m_AttackDamageMinRight += lpObj->m_AttackDamageMinRight * 15 / 100;

  00d0c	8b b7 64 06 00
	00		 mov	 esi, DWORD PTR [edi+1636]
  00d12	b8 1f 85 eb 51	 mov	 eax, 1374389535		; 51eb851fH
  00d17	8b ce		 mov	 ecx, esi

; 534  : 		lpObj->m_AttackDamageMaxRight += lpObj->m_AttackDamageMaxRight * 15 / 100;
; 535  : 		lpObj->m_AttackDamageMinLeft += lpObj->m_AttackDamageMinLeft * 15 / 100;
; 536  : 		lpObj->m_AttackDamageMaxLeft += lpObj->m_AttackDamageMaxLeft * 15 / 100;
; 537  : 		lpObj->m_MagicDamageMin += lpObj->m_MagicDamageMin * 15 / 100;
; 538  : 		lpObj->m_MagicDamageMax += lpObj->m_MagicDamageMax * 15 / 100;
; 539  : 		lpObj->m_AttackSpeed += 10;

  00d19	83 87 6c 06 00
	00 0a		 add	 DWORD PTR [edi+1644], 10 ; 0000000aH
  00d20	c1 e1 04	 shl	 ecx, 4
  00d23	2b ce		 sub	 ecx, esi
  00d25	f7 e9		 imul	 ecx
  00d27	c1 fa 05	 sar	 edx, 5
  00d2a	8b c2		 mov	 eax, edx
  00d2c	c1 e8 1f	 shr	 eax, 31			; 0000001fH
  00d2f	03 c2		 add	 eax, edx
  00d31	03 c6		 add	 eax, esi
  00d33	8b b7 60 06 00
	00		 mov	 esi, DWORD PTR [edi+1632]
  00d39	89 87 64 06 00
	00		 mov	 DWORD PTR [edi+1636], eax
  00d3f	8b ce		 mov	 ecx, esi
  00d41	c1 e1 04	 shl	 ecx, 4
  00d44	b8 1f 85 eb 51	 mov	 eax, 1374389535		; 51eb851fH
  00d49	2b ce		 sub	 ecx, esi
  00d4b	f7 e9		 imul	 ecx
  00d4d	c1 fa 05	 sar	 edx, 5
  00d50	8b c2		 mov	 eax, edx
  00d52	c1 e8 1f	 shr	 eax, 31			; 0000001fH
  00d55	03 c2		 add	 eax, edx
  00d57	03 c6		 add	 eax, esi
  00d59	8b b7 5c 06 00
	00		 mov	 esi, DWORD PTR [edi+1628]
  00d5f	89 87 60 06 00
	00		 mov	 DWORD PTR [edi+1632], eax
  00d65	8b ce		 mov	 ecx, esi
  00d67	c1 e1 04	 shl	 ecx, 4
  00d6a	b8 1f 85 eb 51	 mov	 eax, 1374389535		; 51eb851fH
  00d6f	2b ce		 sub	 ecx, esi
  00d71	f7 e9		 imul	 ecx
  00d73	c1 fa 05	 sar	 edx, 5
  00d76	8b c2		 mov	 eax, edx
  00d78	c1 e8 1f	 shr	 eax, 31			; 0000001fH
  00d7b	03 c2		 add	 eax, edx
  00d7d	03 c6		 add	 eax, esi
  00d7f	8b b7 58 06 00
	00		 mov	 esi, DWORD PTR [edi+1624]
  00d85	89 87 5c 06 00
	00		 mov	 DWORD PTR [edi+1628], eax
  00d8b	8b ce		 mov	 ecx, esi
  00d8d	c1 e1 04	 shl	 ecx, 4
  00d90	b8 1f 85 eb 51	 mov	 eax, 1374389535		; 51eb851fH
  00d95	2b ce		 sub	 ecx, esi
  00d97	f7 e9		 imul	 ecx
  00d99	c1 fa 05	 sar	 edx, 5
  00d9c	8b c2		 mov	 eax, edx
  00d9e	c1 e8 1f	 shr	 eax, 31			; 0000001fH
  00da1	03 c2		 add	 eax, edx
  00da3	03 c6		 add	 eax, esi
  00da5	8b b7 48 06 00
	00		 mov	 esi, DWORD PTR [edi+1608]
  00dab	89 87 58 06 00
	00		 mov	 DWORD PTR [edi+1624], eax
  00db1	8b ce		 mov	 ecx, esi
  00db3	c1 e1 04	 shl	 ecx, 4
  00db6	b8 1f 85 eb 51	 mov	 eax, 1374389535		; 51eb851fH
  00dbb	2b ce		 sub	 ecx, esi
  00dbd	f7 e9		 imul	 ecx
  00dbf	c1 fa 05	 sar	 edx, 5
  00dc2	8b c2		 mov	 eax, edx
  00dc4	c1 e8 1f	 shr	 eax, 31			; 0000001fH
  00dc7	03 c2		 add	 eax, edx
  00dc9	03 c6		 add	 eax, esi
  00dcb	8b b7 4c 06 00
	00		 mov	 esi, DWORD PTR [edi+1612]
  00dd1	89 87 48 06 00
	00		 mov	 DWORD PTR [edi+1608], eax
  00dd7	8b ce		 mov	 ecx, esi
  00dd9	c1 e1 04	 shl	 ecx, 4
  00ddc	b8 1f 85 eb 51	 mov	 eax, 1374389535		; 51eb851fH
  00de1	2b ce		 sub	 ecx, esi
  00de3	f7 e9		 imul	 ecx
  00de5	c1 fa 05	 sar	 edx, 5
  00de8	8b c2		 mov	 eax, edx
  00dea	c1 e8 1f	 shr	 eax, 31			; 0000001fH
  00ded	03 c2		 add	 eax, edx
  00def	03 c6		 add	 eax, esi

; 540  : 		lpObj->m_MagicSpeed += 10;

  00df1	83 87 70 06 00
	00 0a		 add	 DWORD PTR [edi+1648], 10 ; 0000000aH
  00df8	89 87 4c 06 00
	00		 mov	 DWORD PTR [edi+1612], eax
$LN70@gObjCalCha:

; 541  : 	}
; 542  : 
; 543  : 	if ( lpObj->pInventory[8].m_Type == ITEMGET(13,123) &&

  00dfe	8b 87 c0 11 00
	00		 mov	 eax, DWORD PTR [edi+4544]

; 544  : 		 lpObj->pInventory[8].m_Durability > 0.0f )
; 545  : 	{
; 546  : 		lpObj->m_AttackDamageMaxLeft += lpObj->m_AttackDamageMaxLeft*0.2;

  00e04	8d b7 58 06 00
	00		 lea	 esi, DWORD PTR [edi+1624]
  00e0a	b9 7b 1a 00 00	 mov	 ecx, 6779		; 00001a7bH
  00e0f	66 39 88 a6 06
	00 00		 cmp	 WORD PTR [eax+1702], cx
  00e16	0f 85 d7 00 00
	00		 jne	 $LN73@gObjCalCha

; 541  : 	}
; 542  : 
; 543  : 	if ( lpObj->pInventory[8].m_Type == ITEMGET(13,123) &&

  00e1c	f3 0f 10 80 c4
	06 00 00	 movss	 xmm0, DWORD PTR [eax+1732]
  00e24	0f 57 c9	 xorps	 xmm1, xmm1
  00e27	0f 2f c1	 comiss	 xmm0, xmm1
  00e2a	0f 86 c3 00 00
	00		 jbe	 $LN73@gObjCalCha

; 544  : 		 lpObj->pInventory[8].m_Durability > 0.0f )
; 545  : 	{
; 546  : 		lpObj->m_AttackDamageMaxLeft += lpObj->m_AttackDamageMaxLeft*0.2;

  00e30	f2 0f 10 15 00
	00 00 00	 movsd	 xmm2, QWORD PTR __real@3fc999999999999a
  00e38	8b ce		 mov	 ecx, esi
  00e3a	ba 04 00 00 00	 mov	 edx, 4
  00e3f	90		 npad	 1
$LL263@gObjCalCha:
  00e40	66 0f 6e 09	 movd	 xmm1, DWORD PTR [ecx]
  00e44	f3 0f e6 c9	 cvtdq2pd xmm1, xmm1
  00e48	0f 28 c1	 movaps	 xmm0, xmm1
  00e4b	f2 0f 59 c2	 mulsd	 xmm0, xmm2
  00e4f	f2 0f 58 c1	 addsd	 xmm0, xmm1
  00e53	f2 0f 2c c0	 cvttsd2si eax, xmm0
  00e57	89 01		 mov	 DWORD PTR [ecx], eax
  00e59	83 c1 04	 add	 ecx, 4
  00e5c	83 ea 01	 sub	 edx, 1
  00e5f	75 df		 jne	 SHORT $LL263@gObjCalCha

; 547  : 		lpObj->m_AttackDamageMinLeft += lpObj->m_AttackDamageMinLeft*0.2;
; 548  : 		lpObj->m_AttackDamageMaxRight += lpObj->m_AttackDamageMaxRight*0.2;
; 549  : 		lpObj->m_AttackDamageMinRight += lpObj->m_AttackDamageMinRight*0.2;
; 550  : 		lpObj->m_MagicDamageMin += lpObj->m_MagicDamageMin*0.2;

  00e61	66 0f 6e 8f 48
	06 00 00	 movd	 xmm1, DWORD PTR [edi+1608]
  00e69	f3 0f e6 c9	 cvtdq2pd xmm1, xmm1

; 551  : 		lpObj->m_MagicDamageMax += lpObj->m_MagicDamageMax*0.2;
; 552  : 		lpObj->m_CurseDamageMin += lpObj->m_CurseDamageMin*0.2;
; 553  : 		lpObj->m_CurseDamageMax += lpObj->m_CurseDamageMax*0.2;
; 554  : 		lpObj->m_AttackSpeed += 10;

  00e6d	83 87 6c 06 00
	00 0a		 add	 DWORD PTR [edi+1644], 10 ; 0000000aH

; 555  : 		lpObj->m_MagicSpeed += 10;

  00e74	83 87 70 06 00
	00 0a		 add	 DWORD PTR [edi+1648], 10 ; 0000000aH
  00e7b	0f 28 c1	 movaps	 xmm0, xmm1
  00e7e	f2 0f 59 c2	 mulsd	 xmm0, xmm2
  00e82	f2 0f 58 c1	 addsd	 xmm0, xmm1
  00e86	66 0f 6e 8f 4c
	06 00 00	 movd	 xmm1, DWORD PTR [edi+1612]
  00e8e	f3 0f e6 c9	 cvtdq2pd xmm1, xmm1
  00e92	f2 0f 2c c0	 cvttsd2si eax, xmm0
  00e96	0f 28 c1	 movaps	 xmm0, xmm1
  00e99	f2 0f 59 c2	 mulsd	 xmm0, xmm2
  00e9d	89 87 48 06 00
	00		 mov	 DWORD PTR [edi+1608], eax
  00ea3	f2 0f 58 c1	 addsd	 xmm0, xmm1
  00ea7	66 0f 6e 8f 84
	06 00 00	 movd	 xmm1, DWORD PTR [edi+1668]
  00eaf	f3 0f e6 c9	 cvtdq2pd xmm1, xmm1
  00eb3	f2 0f 2c c0	 cvttsd2si eax, xmm0
  00eb7	0f 28 c1	 movaps	 xmm0, xmm1
  00eba	f2 0f 59 c2	 mulsd	 xmm0, xmm2
  00ebe	89 87 4c 06 00
	00		 mov	 DWORD PTR [edi+1612], eax
  00ec4	f2 0f 58 c1	 addsd	 xmm0, xmm1
  00ec8	66 0f 6e 8f 88
	06 00 00	 movd	 xmm1, DWORD PTR [edi+1672]
  00ed0	f3 0f e6 c9	 cvtdq2pd xmm1, xmm1
  00ed4	f2 0f 2c c0	 cvttsd2si eax, xmm0
  00ed8	0f 28 c1	 movaps	 xmm0, xmm1
  00edb	f2 0f 59 c2	 mulsd	 xmm0, xmm2
  00edf	89 87 84 06 00
	00		 mov	 DWORD PTR [edi+1668], eax
  00ee5	f2 0f 58 c1	 addsd	 xmm0, xmm1
  00ee9	f2 0f 2c c0	 cvttsd2si eax, xmm0
  00eed	89 87 88 06 00
	00		 mov	 DWORD PTR [edi+1672], eax
$LN73@gObjCalCha:

; 556  : 	}
; 557  : 
; 558  : 	if ( (lpObj->pInventory[10].IsItem() == TRUE && lpObj->pInventory[10].m_Type == ITEMGET(13,122) && lpObj->pInventory[10].m_Level == 0 && lpObj->pInventory[10].m_Durability > 0.0f ) ||

  00ef3	8b 8f c0 11 00
	00		 mov	 ecx, DWORD PTR [edi+4544]
  00ef9	81 c1 48 08 00
	00		 add	 ecx, 2120		; 00000848H
  00eff	e8 00 00 00 00	 call	 ?IsItem@CItem@@QAEHXZ	; CItem::IsItem
  00f04	b9 7a 1a 00 00	 mov	 ecx, 6778		; 00001a7aH
  00f09	83 f8 01	 cmp	 eax, 1
  00f0c	75 29		 jne	 SHORT $LN76@gObjCalCha
  00f0e	8b 87 c0 11 00
	00		 mov	 eax, DWORD PTR [edi+4544]
  00f14	66 39 88 4e 08
	00 00		 cmp	 WORD PTR [eax+2126], cx
  00f1b	75 1a		 jne	 SHORT $LN76@gObjCalCha
  00f1d	66 83 b8 50 08
	00 00 00	 cmp	 WORD PTR [eax+2128], 0
  00f25	75 10		 jne	 SHORT $LN76@gObjCalCha
  00f27	f3 0f 10 80 6c
	08 00 00	 movss	 xmm0, DWORD PTR [eax+2156]
  00f2f	0f 57 c9	 xorps	 xmm1, xmm1
  00f32	0f 2f c1	 comiss	 xmm0, xmm1
  00f35	77 44		 ja	 SHORT $LN75@gObjCalCha
$LN76@gObjCalCha:
  00f37	8b 8f c0 11 00
	00		 mov	 ecx, DWORD PTR [edi+4544]
  00f3d	81 c1 1c 09 00
	00		 add	 ecx, 2332		; 0000091cH
  00f43	e8 00 00 00 00	 call	 ?IsItem@CItem@@QAEHXZ	; CItem::IsItem
  00f48	83 f8 01	 cmp	 eax, 1
  00f4b	75 62		 jne	 SHORT $LN74@gObjCalCha
  00f4d	8b 87 c0 11 00
	00		 mov	 eax, DWORD PTR [edi+4544]
  00f53	b9 7a 1a 00 00	 mov	 ecx, 6778		; 00001a7aH
  00f58	66 39 88 22 09
	00 00		 cmp	 WORD PTR [eax+2338], cx
  00f5f	75 4e		 jne	 SHORT $LN74@gObjCalCha
  00f61	66 83 b8 24 09
	00 00 00	 cmp	 WORD PTR [eax+2340], 0
  00f69	75 44		 jne	 SHORT $LN74@gObjCalCha
  00f6b	f3 0f 10 80 40
	09 00 00	 movss	 xmm0, DWORD PTR [eax+2368]
  00f73	0f 57 c9	 xorps	 xmm1, xmm1
  00f76	0f 2f c1	 comiss	 xmm0, xmm1
  00f79	76 34		 jbe	 SHORT $LN74@gObjCalCha
$LN75@gObjCalCha:

; 559  : 		 (lpObj->pInventory[11].IsItem() == TRUE && lpObj->pInventory[11].m_Type == ITEMGET(13,122) && lpObj->pInventory[11].m_Level == 0 && lpObj->pInventory[11].m_Durability > 0.0f ) )
; 560  : 	{
; 561  : 		lpObj->m_AttackDamageMinRight += 40;

  00f7b	83 87 64 06 00
	00 28		 add	 DWORD PTR [edi+1636], 40 ; 00000028H

; 562  : 		lpObj->m_AttackDamageMaxRight += 40;

  00f82	83 87 60 06 00
	00 28		 add	 DWORD PTR [edi+1632], 40 ; 00000028H

; 563  : 		lpObj->m_AttackDamageMinLeft += 40;

  00f89	83 87 5c 06 00
	00 28		 add	 DWORD PTR [edi+1628], 40 ; 00000028H

; 564  : 		lpObj->m_AttackDamageMaxLeft += 40;

  00f90	83 06 28	 add	 DWORD PTR [esi], 40	; 00000028H

; 565  : 		lpObj->m_MagicDamageMin += 40;

  00f93	83 87 48 06 00
	00 28		 add	 DWORD PTR [edi+1608], 40 ; 00000028H

; 566  : 		lpObj->m_MagicDamageMax += 40;

  00f9a	83 87 4c 06 00
	00 28		 add	 DWORD PTR [edi+1612], 40 ; 00000028H

; 567  : 		lpObj->m_CurseDamageMin += 40;

  00fa1	83 87 84 06 00
	00 28		 add	 DWORD PTR [edi+1668], 40 ; 00000028H

; 568  : 		lpObj->m_CurseDamageMax += 40;

  00fa8	83 87 88 06 00
	00 28		 add	 DWORD PTR [edi+1672], 40 ; 00000028H
$LN74@gObjCalCha:

; 569  : 	}
; 570  : 
; 571  : 	if ( lpObj->Class == CLASS_WIZARD ) // Dark Wizard;
; 572  : 	{
; 573  : 		lpObj->m_DetectSpeedHackTime = (int)(gAttackSpeedTimeLimit - (lpObj->m_MagicSpeed*2 * gDecTimePerAttackSpeed) );

  00faf	a1 00 00 00 00	 mov	 eax, DWORD PTR ?gAttackSpeedTimeLimit@@3KA ; gAttackSpeedTimeLimit
  00fb4	66 0f 6e c0	 movd	 xmm0, eax
  00fb8	f3 0f e6 c0	 cvtdq2pd xmm0, xmm0
  00fbc	c1 e8 1f	 shr	 eax, 31			; 0000001fH
  00fbf	66 83 bf 90 00
	00 00 00	 cmp	 WORD PTR [edi+144], 0
  00fc7	f2 0f 58 04 c5
	00 00 00 00	 addsd	 xmm0, QWORD PTR __xmm@41f00000000000000000000000000000[eax*8]
  00fd0	66 0f 5a c8	 cvtpd2ps xmm1, xmm0
  00fd4	75 0e		 jne	 SHORT $LN77@gObjCalCha
  00fd6	8b 87 70 06 00
	00		 mov	 eax, DWORD PTR [edi+1648]
  00fdc	03 c0		 add	 eax, eax
  00fde	66 0f 6e c0	 movd	 xmm0, eax

; 574  : 	}
; 575  : 	else

  00fe2	eb 08		 jmp	 SHORT $LN435@gObjCalCha
$LN77@gObjCalCha:
  00fe4	66 0f 6e 87 6c
	06 00 00	 movd	 xmm0, DWORD PTR [edi+1644]
$LN435@gObjCalCha:

; 576  : 	{
; 577  : 		lpObj->m_DetectSpeedHackTime = (int)(gAttackSpeedTimeLimit - (lpObj->m_AttackSpeed * gDecTimePerAttackSpeed) );

  00fec	0f 5b c0	 cvtdq2ps xmm0, xmm0
  00fef	f3 0f 59 05 00
	00 00 00	 mulss	 xmm0, DWORD PTR ?gDecTimePerAttackSpeed@@3MA
  00ff7	f3 0f 5c c8	 subss	 xmm1, xmm0
  00ffb	f3 0f 2c c1	 cvttss2si eax, xmm1
  00fff	89 87 64 05 00
	00		 mov	 DWORD PTR [edi+1380], eax

; 578  : 	}
; 579  : 
; 580  : 	if ( lpObj->m_DetectSpeedHackTime < gMinimumAttackSpeedTime )

  01005	a1 00 00 00 00	 mov	 eax, DWORD PTR ?gMinimumAttackSpeedTime@@3HA ; gMinimumAttackSpeedTime
  0100a	39 87 64 05 00
	00		 cmp	 DWORD PTR [edi+1380], eax
  01010	7d 06		 jge	 SHORT $LN79@gObjCalCha

; 581  : 	{
; 582  : 		lpObj->m_DetectSpeedHackTime = gMinimumAttackSpeedTime;

  01012	89 87 64 05 00
	00		 mov	 DWORD PTR [edi+1380], eax
$LN79@gObjCalCha:

; 583  : 	}
; 584  : 
; 585  : #if (ENABLE_CUSTOM_CLASSCALC == 1)
; 586  : 	g_ClassCalc.GetSuccessfulBlocking(lpObj);

  01018	57		 push	 edi
  01019	b9 00 00 00 00	 mov	 ecx, OFFSET ?g_ClassCalc@@3VClassCalc@@A ; g_ClassCalc
  0101e	e8 00 00 00 00	 call	 ?GetSuccessfulBlocking@ClassCalc@@QAEXPAUOBJECTSTRUCT@@@Z ; ClassCalc::GetSuccessfulBlocking

; 587  : #else
; 588  : 	if ( lpObj->Class == CLASS_ELF ) // elf
; 589  : 	{
; 590  : 		lpObj->m_SuccessfulBlocking = Dexterity / 4;
; 591  : 	}
; 592  : 	else if ( lpObj->Class == CLASS_DARKLORD ) // DL
; 593  : 	{
; 594  : 		lpObj->m_SuccessfulBlocking = Dexterity / 7;
; 595  : 	}
; 596  : 	else if ( lpObj->Class == CLASS_SUMMONER )
; 597  : 	{
; 598  : 		lpObj->m_SuccessfulBlocking = Dexterity / 4;
; 599  : 	}
; 600  : 	else if ( lpObj->Class == CLASS_FIGHTER )
; 601  : 	{
; 602  : 		lpObj->m_SuccessfulBlocking = Dexterity / 10;
; 603  : 	}
; 604  : 	else
; 605  : 	{
; 606  : 		lpObj->m_SuccessfulBlocking = Dexterity / 3;
; 607  : 	}
; 608  : #endif
; 609  : 
; 610  : 	if ( Left->m_Type != -1 )

  01023	66 83 bb da 00
	00 00 ff	 cmp	 WORD PTR [ebx+218], -1
  0102b	74 2c		 je	 SHORT $LN81@gObjCalCha

; 611  : 	{
; 612  : 		if ( Left->m_IsValidItem != false )

  0102d	80 bb 80 01 00
	00 00		 cmp	 BYTE PTR [ebx+384], 0
  01034	74 23		 je	 SHORT $LN81@gObjCalCha

; 613  : 		{
; 614  : 			lpObj->m_SuccessfulBlocking += Left->m_SuccessfulBlocking;

  01036	0f b6 83 e8 00
	00 00		 movzx	 eax, BYTE PTR [ebx+232]
  0103d	8d 8f 7c 06 00
	00		 lea	 ecx, DWORD PTR [edi+1660]
  01043	01 01		 add	 DWORD PTR [ecx], eax

; 615  : 			lpObj->pInventory[1].PlusSpecial(&lpObj->m_SuccessfulBlocking, 82);

  01045	6a 52		 push	 82			; 00000052H
  01047	51		 push	 ecx
  01048	8b 8f c0 11 00
	00		 mov	 ecx, DWORD PTR [edi+4544]
  0104e	81 c1 d4 00 00
	00		 add	 ecx, 212		; 000000d4H
  01054	e8 00 00 00 00	 call	 ?PlusSpecial@CItem@@QAEXPAHH@Z ; CItem::PlusSpecial
$LN81@gObjCalCha:

; 616  : 		}
; 617  : 	}
; 618  : 
; 619  : 	bool Success = true;
; 620  : 
; 621  : 	if ( lpObj->Class == CLASS_MAGUMSA ) // MG

  01059	0f b7 b7 90 00
	00 00		 movzx	 esi, WORD PTR [edi+144]
  01060	ba 01 00 00 00	 mov	 edx, 1
  01065	89 95 ec fe ff
	ff		 mov	 DWORD PTR tv5101[ebp], edx
  0106b	89 b5 e8 fe ff
	ff		 mov	 DWORD PTR tv5491[ebp], esi
  01071	83 fe 03	 cmp	 esi, 3
  01074	75 29		 jne	 SHORT $LN82@gObjCalCha

; 624  : 		{
; 625  : 			if ( lpObj->pInventory[j].m_Type == -1 )

  01076	8b 87 c0 11 00
	00		 mov	 eax, DWORD PTR [edi+4544]
  0107c	8b ce		 mov	 ecx, esi
  0107e	05 28 03 00 00	 add	 eax, 808		; 00000328H
$LL13@gObjCalCha:
  01083	66 83 b8 5a ff
	ff ff ff	 cmp	 WORD PTR [eax-166], -1
  0108b	74 5c		 je	 SHORT $LN249@gObjCalCha

; 626  : 			{
; 627  : 				Success = false;
; 628  : 				break;
; 629  : 			}
; 630  : 
; 631  : 			if ( lpObj->pInventory[j].m_IsValidItem == false )

  0108d	80 38 00	 cmp	 BYTE PTR [eax], 0
  01090	74 57		 je	 SHORT $LN249@gObjCalCha

; 622  : 	{
; 623  : 		for ( int j=3;j<=6;j++)

  01092	41		 inc	 ecx
  01093	05 d4 00 00 00	 add	 eax, 212		; 000000d4H
  01098	83 f9 06	 cmp	 ecx, 6
  0109b	7e e6		 jle	 SHORT $LL13@gObjCalCha

; 632  : 			{
; 633  : 				Success = false;
; 634  : 				break;
; 635  : 			}
; 636  : 		}
; 637  : 	}
; 638  : 	else

  0109d	eb 52		 jmp	 SHORT $LN15@gObjCalCha
$LN82@gObjCalCha:

; 639  : 	{
; 640  : 		for  ( int k=2;k<=6;k++)

  0109f	b9 02 00 00 00	 mov	 ecx, 2
  010a4	b8 a8 01 00 00	 mov	 eax, 424		; 000001a8H
  010a9	0f 1f 80 00 00
	00 00		 npad	 7
$LL16@gObjCalCha:

; 641  : 		{
; 642  : 			if ( lpObj->Class == CLASS_FIGHTER && k == 5 )

  010b0	66 83 fe 06	 cmp	 si, 6
  010b4	75 05		 jne	 SHORT $LN86@gObjCalCha
  010b6	83 f9 05	 cmp	 ecx, 5
  010b9	74 1f		 je	 SHORT $LN14@gObjCalCha
$LN86@gObjCalCha:

; 643  : 				continue;
; 644  : 
; 645  : 			if ( lpObj->pInventory[k].m_Type == -1 )

  010bb	8b b7 c0 11 00
	00		 mov	 esi, DWORD PTR [edi+4544]
  010c1	66 83 7c 30 06
	ff		 cmp	 WORD PTR [eax+esi+6], -1
  010c7	74 20		 je	 SHORT $LN249@gObjCalCha

; 648  : 				break;
; 649  : 			}
; 650  : 
; 651  : 			if ( lpObj->pInventory[k].m_IsValidItem == false )

  010c9	80 bc 30 ac 00
	00 00 00	 cmp	 BYTE PTR [eax+esi+172], 0
  010d1	74 16		 je	 SHORT $LN249@gObjCalCha
  010d3	0f b7 b7 90 00
	00 00		 movzx	 esi, WORD PTR [edi+144]
$LN14@gObjCalCha:

; 639  : 	{
; 640  : 		for  ( int k=2;k<=6;k++)

  010da	05 d4 00 00 00	 add	 eax, 212		; 000000d4H
  010df	41		 inc	 ecx
  010e0	3d f8 04 00 00	 cmp	 eax, 1272		; 000004f8H
  010e5	7e c9		 jle	 SHORT $LL16@gObjCalCha

; 648  : 				break;
; 649  : 			}
; 650  : 
; 651  : 			if ( lpObj->pInventory[k].m_IsValidItem == false )

  010e7	eb 08		 jmp	 SHORT $LN15@gObjCalCha
$LN249@gObjCalCha:

; 646  : 			{
; 647  : 				Success = false;

  010e9	32 d2		 xor	 dl, dl
  010eb	89 95 ec fe ff
	ff		 mov	 DWORD PTR tv5101[ebp], edx
$LN15@gObjCalCha:

; 652  : 			{
; 653  : 				Success = false;
; 654  : 				break;
; 655  : 			}
; 656  : 		}
; 657  : 	}
; 658  : 
; 659  : 	int Level11Count = 0;
; 660  : 	int Level10Count = 0;
; 661  : 	int Level12Count = 0;
; 662  : 	int Level13Count = 0;
; 663  : 	int Level14Count = 0;
; 664  : 	int Level15Count = 0;

  010f1	33 f6		 xor	 esi, esi
  010f3	c7 85 f4 fe ff
	ff 00 00 00 00	 mov	 DWORD PTR _Level11Count$1$[ebp], 0
  010fd	c7 85 d0 fe ff
	ff 00 00 00 00	 mov	 DWORD PTR _Level10Count$1$[ebp], 0
  01107	c7 85 d4 fe ff
	ff 00 00 00 00	 mov	 DWORD PTR _Level12Count$1$[ebp], 0
  01111	c7 85 d8 fe ff
	ff 00 00 00 00	 mov	 DWORD PTR _Level13Count$1$[ebp], 0
  0111b	c7 85 e4 fe ff
	ff 00 00 00 00	 mov	 DWORD PTR _Level14Count$1$[ebp], 0

; 665  : 
; 666  : 	if ( Success != false )

  01125	84 d2		 test	 dl, dl
  01127	0f 84 2d 02 00
	00		 je	 $LN120@gObjCalCha

; 667  : 	{
; 668  : 		int in;
; 669  : 
; 670  : 		if ( lpObj->Class == CLASS_MAGUMSA ) // MG

  0112d	0f b7 8f 90 00
	00 00		 movzx	 ecx, WORD PTR [edi+144]

; 671  : 		{
; 672  : 			in = lpObj->pInventory[3].m_Type % MAX_SUBTYPE_ITEMS;

  01134	8b 87 c0 11 00
	00		 mov	 eax, DWORD PTR [edi+4544]
  0113a	83 f9 03	 cmp	 ecx, 3
  0113d	0f 85 04 01 00
	00		 jne	 $LN90@gObjCalCha
  01143	0f bf 80 82 02
	00 00		 movsx	 eax, WORD PTR [eax+642]
  0114a	25 ff 01 00 80	 and	 eax, -2147483137	; 800001ffH
  0114f	79 07		 jns	 SHORT $LN428@gObjCalCha
  01151	48		 dec	 eax
  01152	0d 00 fe ff ff	 or	 eax, -512		; fffffe00H
  01157	40		 inc	 eax
$LN428@gObjCalCha:
  01158	89 85 e8 fe ff
	ff		 mov	 DWORD PTR _in$1$[ebp], eax

; 673  : 
; 674  : 			if ( in != ITEMGET(0,15) &&
; 675  : 				 in != ITEMGET(0,20) &&
; 676  : 				 in != ITEMGET(0,23) &&
; 677  : 				 in != ITEMGET(0,33) &&
; 678  : 				 in != ITEMGET(0,32) &&
; 679  : 				 in != ITEMGET(0,37) &&
; 680  : 				 in != ITEMGET(0,47) &&

  0115e	83 f8 0f	 cmp	 eax, 15			; 0000000fH
  01161	74 2f		 je	 SHORT $LN92@gObjCalCha
  01163	83 f8 14	 cmp	 eax, 20			; 00000014H
  01166	74 2a		 je	 SHORT $LN92@gObjCalCha
  01168	83 f8 17	 cmp	 eax, 23			; 00000017H
  0116b	74 25		 je	 SHORT $LN92@gObjCalCha
  0116d	83 f8 21	 cmp	 eax, 33			; 00000021H
  01170	74 20		 je	 SHORT $LN92@gObjCalCha
  01172	83 f8 20	 cmp	 eax, 32			; 00000020H
  01175	74 1b		 je	 SHORT $LN92@gObjCalCha
  01177	83 f8 25	 cmp	 eax, 37			; 00000025H
  0117a	74 16		 je	 SHORT $LN92@gObjCalCha
  0117c	83 f8 2f	 cmp	 eax, 47			; 0000002fH
  0117f	74 11		 je	 SHORT $LN92@gObjCalCha
  01181	83 f8 30	 cmp	 eax, 48			; 00000030H
  01184	74 0c		 je	 SHORT $LN92@gObjCalCha

; 681  : 				 in != ITEMGET(0,48) )
; 682  : 			{
; 683  : 				Success = false;

  01186	c6 85 ec fe ff
	ff 00		 mov	 BYTE PTR tv5101[ebp], 0

; 684  : 			}
; 685  : 			else

  0118d	e9 c8 01 00 00	 jmp	 $LN120@gObjCalCha
$LN92@gObjCalCha:

; 690  : 				{
; 691  : 					if ( in != ( lpObj->pInventory[m].m_Type % MAX_SUBTYPE_ITEMS) )

  01192	8b 8f c0 11 00
	00		 mov	 ecx, DWORD PTR [edi+4544]
  01198	33 db		 xor	 ebx, ebx
  0119a	81 c1 84 02 00
	00		 add	 ecx, 644		; 00000284H
  011a0	c7 85 f8 fe ff
	ff 04 00 00 00	 mov	 DWORD PTR tv5806[ebp], 4
  011aa	be 01 00 00 00	 mov	 esi, 1
  011af	33 ff		 xor	 edi, edi
$LL308@gObjCalCha:
  011b1	0f bf 41 fe	 movsx	 eax, WORD PTR [ecx-2]
  011b5	25 ff 01 00 80	 and	 eax, -2147483137	; 800001ffH
  011ba	79 07		 jns	 SHORT $LN429@gObjCalCha
  011bc	48		 dec	 eax
  011bd	0d 00 fe ff ff	 or	 eax, -512		; fffffe00H
  011c2	40		 inc	 eax
$LN429@gObjCalCha:
  011c3	39 85 e8 fe ff
	ff		 cmp	 DWORD PTR _in$1$[ebp], eax

; 692  : 					{
; 693  : 						Success = false;
; 694  : 					}
; 695  : 
; 696  : 					if( lpObj->pInventory[m].m_Level > 14 )

  011c9	0f b7 01	 movzx	 eax, WORD PTR [ecx]
  011cc	0f b6 d2	 movzx	 edx, dl
  011cf	c7 85 f4 fe ff
	ff 00 00 00 00	 mov	 DWORD PTR tv5099[ebp], 0
  011d9	0f 45 95 f4 fe
	ff ff		 cmovne	 edx, DWORD PTR tv5099[ebp]
  011e0	66 83 f8 0e	 cmp	 ax, 14			; 0000000eH
  011e4	7e 03		 jle	 SHORT $LN310@gObjCalCha

; 697  : 					{
; 698  : 						Level15Count++;

  011e6	46		 inc	 esi
  011e7	eb 3a		 jmp	 SHORT $LN315@gObjCalCha
$LN310@gObjCalCha:

; 699  : 					}
; 700  : 					else if ( lpObj->pInventory[m].m_Level > 13 )

  011e9	66 83 f8 0d	 cmp	 ax, 13			; 0000000dH
  011ed	7e 03		 jle	 SHORT $LN311@gObjCalCha

; 701  : 					{
; 702  : 						Level14Count++;

  011ef	47		 inc	 edi
  011f0	eb 31		 jmp	 SHORT $LN315@gObjCalCha
$LN311@gObjCalCha:

; 703  : 					}
; 704  : 					else if ( lpObj->pInventory[m].m_Level > 12 )

  011f2	66 83 f8 0c	 cmp	 ax, 12			; 0000000cH
  011f6	7e 08		 jle	 SHORT $LN312@gObjCalCha

; 705  : 					{
; 706  : 						Level13Count++;

  011f8	ff 85 d8 fe ff
	ff		 inc	 DWORD PTR _Level13Count$1$[ebp]
  011fe	eb 23		 jmp	 SHORT $LN315@gObjCalCha
$LN312@gObjCalCha:

; 707  : 					}
; 708  : 					else if ( lpObj->pInventory[m].m_Level > 11 )

  01200	66 83 f8 0b	 cmp	 ax, 11			; 0000000bH
  01204	7e 08		 jle	 SHORT $LN313@gObjCalCha

; 709  : 					{
; 710  : 						Level12Count++;

  01206	ff 85 d4 fe ff
	ff		 inc	 DWORD PTR _Level12Count$1$[ebp]
  0120c	eb 15		 jmp	 SHORT $LN315@gObjCalCha
$LN313@gObjCalCha:

; 711  : 					}
; 712  : 					else if ( lpObj->pInventory[m].m_Level > 10 )

  0120e	66 83 f8 0a	 cmp	 ax, 10			; 0000000aH
  01212	7e 03		 jle	 SHORT $LN314@gObjCalCha

; 713  : 					{
; 714  : 						Level11Count++;

  01214	43		 inc	 ebx
  01215	eb 0c		 jmp	 SHORT $LN315@gObjCalCha
$LN314@gObjCalCha:

; 715  : 					}
; 716  : 					else if ( lpObj->pInventory[m].m_Level > 9 )

  01217	66 83 f8 09	 cmp	 ax, 9
  0121b	7e 06		 jle	 SHORT $LN315@gObjCalCha

; 717  : 					{
; 718  : 						Level10Count++;

  0121d	ff 85 d0 fe ff
	ff		 inc	 DWORD PTR _Level10Count$1$[ebp]
$LN315@gObjCalCha:

; 686  : 			{
; 687  : 				Level15Count++;
; 688  : 
; 689  : 				for (int m=3;m<=6;m++)

  01223	81 c1 d4 00 00
	00		 add	 ecx, 212		; 000000d4H
  01229	83 ad f8 fe ff
	ff 01		 sub	 DWORD PTR tv5806[ebp], 1
  01230	0f 85 7b ff ff
	ff		 jne	 $LL308@gObjCalCha

; 719  : 					}
; 720  : 				}
; 721  : 			}
; 722  : 		}
; 723  : 		else

  01236	89 bd e4 fe ff
	ff		 mov	 DWORD PTR _Level14Count$1$[ebp], edi
  0123c	89 9d f4 fe ff
	ff		 mov	 DWORD PTR _Level11Count$1$[ebp], ebx
  01242	e9 de 00 00 00	 jmp	 $LN437@gObjCalCha
$LN90@gObjCalCha:

; 724  : 		{
; 725  : 			in = lpObj->pInventory[2].m_Type % MAX_SUBTYPE_ITEMS;

  01247	0f bf 98 ae 01
	00 00		 movsx	 ebx, WORD PTR [eax+430]
  0124e	81 e3 ff 01 00
	80		 and	 ebx, -2147483137	; 800001ffH
  01254	79 08		 jns	 SHORT $LN430@gObjCalCha
  01256	4b		 dec	 ebx
  01257	81 cb 00 fe ff
	ff		 or	 ebx, -512		; fffffe00H
  0125d	43		 inc	 ebx
$LN430@gObjCalCha:

; 726  : 
; 727  : 			if ( lpObj->Class == CLASS_FIGHTER )

  0125e	bf 01 00 00 00	 mov	 edi, 1
  01263	89 9d ec fe ff
	ff		 mov	 DWORD PTR _in$2$[ebp], ebx
  01269	83 f9 06	 cmp	 ecx, 6

; 728  : 			{
; 729  : 				Level15Count++;
; 730  : 			}
; 731  : 
; 732  : 			for (int m=2;m<=6;m++)

  0126c	8d 98 b0 01 00
	00		 lea	 ebx, DWORD PTR [eax+432]
  01272	0f 44 f7	 cmove	 esi, edi
  01275	89 b5 f8 fe ff
	ff		 mov	 DWORD PTR _Level15Count$1$[ebp], esi
  0127b	8d 77 01	 lea	 esi, DWORD PTR [edi+1]
  0127e	8b bd f8 fe ff
	ff		 mov	 edi, DWORD PTR _Level15Count$1$[ebp]
$LL22@gObjCalCha:

; 733  : 			{
; 734  : 				if ( lpObj->Class == CLASS_FIGHTER && m == 5 )

  01284	66 83 f9 06	 cmp	 cx, 6
  01288	75 09		 jne	 SHORT $LN107@gObjCalCha
  0128a	83 fe 05	 cmp	 esi, 5
  0128d	0f 84 7a 00 00
	00		 je	 $LN20@gObjCalCha
$LN107@gObjCalCha:

; 735  : 					continue;
; 736  : 
; 737  : 				if ( in !=  ( lpObj->pInventory[m].m_Type % MAX_SUBTYPE_ITEMS) )

  01293	0f bf 4b fe	 movsx	 ecx, WORD PTR [ebx-2]
  01297	81 e1 ff 01 00
	80		 and	 ecx, -2147483137	; 800001ffH
  0129d	79 08		 jns	 SHORT $LN431@gObjCalCha
  0129f	49		 dec	 ecx
  012a0	81 c9 00 fe ff
	ff		 or	 ecx, -512		; fffffe00H
  012a6	41		 inc	 ecx
$LN431@gObjCalCha:
  012a7	0f b6 c2	 movzx	 eax, dl
  012aa	33 d2		 xor	 edx, edx
  012ac	39 8d ec fe ff
	ff		 cmp	 DWORD PTR _in$2$[ebp], ecx
  012b2	0f 45 c2	 cmovne	 eax, edx
  012b5	8a d0		 mov	 dl, al

; 738  : 				{
; 739  : 					Success = false;
; 740  : 				}
; 741  : 
; 742  : 				if( lpObj->pInventory[m].m_Level > 14 )

  012b7	0f b7 03	 movzx	 eax, WORD PTR [ebx]
  012ba	66 83 f8 0e	 cmp	 ax, 14			; 0000000eH
  012be	7e 03		 jle	 SHORT $LN109@gObjCalCha

; 743  : 				{
; 744  : 					Level15Count++;

  012c0	47		 inc	 edi
  012c1	eb 44		 jmp	 SHORT $LN415@gObjCalCha
$LN109@gObjCalCha:

; 745  : 				}
; 746  : 				else if ( lpObj->pInventory[m].m_Level > 13 )

  012c3	66 83 f8 0d	 cmp	 ax, 13			; 0000000dH
  012c7	7e 08		 jle	 SHORT $LN111@gObjCalCha

; 747  : 				{
; 748  : 					Level14Count++;

  012c9	ff 85 e4 fe ff
	ff		 inc	 DWORD PTR _Level14Count$1$[ebp]
  012cf	eb 36		 jmp	 SHORT $LN415@gObjCalCha
$LN111@gObjCalCha:

; 749  : 				}
; 750  : 				else if ( lpObj->pInventory[m].m_Level > 12 )

  012d1	66 83 f8 0c	 cmp	 ax, 12			; 0000000cH
  012d5	7e 08		 jle	 SHORT $LN113@gObjCalCha

; 751  : 				{
; 752  : 					Level13Count++;

  012d7	ff 85 d8 fe ff
	ff		 inc	 DWORD PTR _Level13Count$1$[ebp]
  012dd	eb 28		 jmp	 SHORT $LN415@gObjCalCha
$LN113@gObjCalCha:

; 753  : 				}
; 754  : 				else if ( lpObj->pInventory[m].m_Level > 11 )

  012df	66 83 f8 0b	 cmp	 ax, 11			; 0000000bH
  012e3	7e 08		 jle	 SHORT $LN115@gObjCalCha

; 755  : 				{
; 756  : 					Level12Count++;

  012e5	ff 85 d4 fe ff
	ff		 inc	 DWORD PTR _Level12Count$1$[ebp]
  012eb	eb 1a		 jmp	 SHORT $LN415@gObjCalCha
$LN115@gObjCalCha:

; 757  : 				}
; 758  : 				else if ( lpObj->pInventory[m].m_Level > 10 )

  012ed	66 83 f8 0a	 cmp	 ax, 10			; 0000000aH
  012f1	7e 08		 jle	 SHORT $LN117@gObjCalCha

; 759  : 				{
; 760  : 					Level11Count++;

  012f3	ff 85 f4 fe ff
	ff		 inc	 DWORD PTR _Level11Count$1$[ebp]
  012f9	eb 0c		 jmp	 SHORT $LN415@gObjCalCha
$LN117@gObjCalCha:

; 761  : 				}
; 762  : 				else if ( lpObj->pInventory[m].m_Level > 9 )

  012fb	66 83 f8 09	 cmp	 ax, 9
  012ff	7e 06		 jle	 SHORT $LN415@gObjCalCha

; 763  : 				{
; 764  : 					Level10Count++;

  01301	ff 85 d0 fe ff
	ff		 inc	 DWORD PTR _Level10Count$1$[ebp]
$LN415@gObjCalCha:
  01307	8b 8d e8 fe ff
	ff		 mov	 ecx, DWORD PTR tv5491[ebp]
$LN20@gObjCalCha:

; 728  : 			{
; 729  : 				Level15Count++;
; 730  : 			}
; 731  : 
; 732  : 			for (int m=2;m<=6;m++)

  0130d	46		 inc	 esi
  0130e	81 c3 d4 00 00
	00		 add	 ebx, 212		; 000000d4H
  01314	83 fe 06	 cmp	 esi, 6
  01317	0f 8e 67 ff ff
	ff		 jle	 $LL22@gObjCalCha
  0131d	89 bd f8 fe ff
	ff		 mov	 DWORD PTR _Level15Count$1$[ebp], edi
  01323	8b f7		 mov	 esi, edi
$LN437@gObjCalCha:
  01325	8b 9d c8 fe ff
	ff		 mov	 ebx, DWORD PTR _Right$1$[ebp]
  0132b	8b bd e0 fe ff
	ff		 mov	 edi, DWORD PTR _lpObj$1$[ebp]
  01331	89 95 ec fe ff
	ff		 mov	 DWORD PTR tv5101[ebp], edx

; 765  : 				}
; 766  : 			}
; 767  : 		}
; 768  : 
; 769  : 		if ( Success != false )	// #warning unuseful if

  01337	84 d2		 test	 dl, dl
  01339	74 1f		 je	 SHORT $LN120@gObjCalCha

; 770  : 		{
; 771  : 			lpObj->m_SuccessfulBlocking += lpObj->m_SuccessfulBlocking / 10;

  0133b	8b 8f 7c 06 00
	00		 mov	 ecx, DWORD PTR [edi+1660]
  01341	b8 67 66 66 66	 mov	 eax, 1717986919		; 66666667H
  01346	f7 e9		 imul	 ecx
  01348	c1 fa 02	 sar	 edx, 2
  0134b	8b c2		 mov	 eax, edx
  0134d	c1 e8 1f	 shr	 eax, 31			; 0000001fH
  01350	03 c2		 add	 eax, edx
  01352	03 c1		 add	 eax, ecx
  01354	89 87 7c 06 00
	00		 mov	 DWORD PTR [edi+1660], eax
$LN120@gObjCalCha:

; 772  : 		}
; 773  : 	}
; 774  : 
; 775  : 	if( lpObj->m_MPSkillOpt.MpsBlockingRate > 0.0f )

  0135a	f3 0f 10 97 bc
	06 00 00	 movss	 xmm2, DWORD PTR [edi+1724]
  01362	0f 57 c0	 xorps	 xmm0, xmm0
  01365	0f 2f d0	 comiss	 xmm2, xmm0
  01368	76 28		 jbe	 SHORT $LN121@gObjCalCha

; 776  : 	{
; 777  : 		lpObj->m_SuccessfulBlocking += lpObj->m_SuccessfulBlocking/100.0f*lpObj->m_MPSkillOpt.MpsBlockingRate;

  0136a	66 0f 6e 8f 7c
	06 00 00	 movd	 xmm1, DWORD PTR [edi+1660]
  01372	0f 5b c9	 cvtdq2ps xmm1, xmm1
  01375	0f 28 c1	 movaps	 xmm0, xmm1
  01378	f3 0f 5e 05 00
	00 00 00	 divss	 xmm0, DWORD PTR __real@42c80000
  01380	f3 0f 59 c2	 mulss	 xmm0, xmm2
  01384	f3 0f 58 c1	 addss	 xmm0, xmm1
  01388	f3 0f 2c c0	 cvttss2si eax, xmm0
  0138c	89 87 7c 06 00
	00		 mov	 DWORD PTR [edi+1660], eax
$LN121@gObjCalCha:

; 778  : 	}
; 779  : 
; 780  : 	lpObj->m_SuccessfulBlocking += lpObj->m_MPSkillOpt.MpsShieldMastery;
; 781  : 	lpObj->m_SuccessfulBlocking += lpObj->m_MPSkillOpt.MpsShieldMastery2;
; 782  : 	lpObj->m_SuccessfulBlocking += lpObj->m_MPSkillOpt.MpsShieldMastery3;
; 783  : 
; 784  : #if (ENABLE_CUSTOM_CLASSCALC == 1)
; 785  : 	g_ClassCalc.GetDefense(lpObj);

  01392	66 0f 6e 87 7c
	06 00 00	 movd	 xmm0, DWORD PTR [edi+1660]
  0139a	b9 00 00 00 00	 mov	 ecx, OFFSET ?g_ClassCalc@@3VClassCalc@@A ; g_ClassCalc
  0139f	0f 5b c0	 cvtdq2ps xmm0, xmm0
  013a2	57		 push	 edi
  013a3	f3 0f 58 87 38
	07 00 00	 addss	 xmm0, DWORD PTR [edi+1848]
  013ab	f3 0f 2c c0	 cvttss2si eax, xmm0
  013af	66 0f 6e c0	 movd	 xmm0, eax
  013b3	0f 5b c0	 cvtdq2ps xmm0, xmm0
  013b6	f3 0f 58 87 50
	07 00 00	 addss	 xmm0, DWORD PTR [edi+1872]
  013be	f3 0f 2c c0	 cvttss2si eax, xmm0
  013c2	66 0f 6e c0	 movd	 xmm0, eax
  013c6	0f 5b c0	 cvtdq2ps xmm0, xmm0
  013c9	f3 0f 58 87 c0
	07 00 00	 addss	 xmm0, DWORD PTR [edi+1984]
  013d1	f3 0f 2c c0	 cvttss2si eax, xmm0
  013d5	89 87 7c 06 00
	00		 mov	 DWORD PTR [edi+1660], eax
  013db	e8 00 00 00 00	 call	 ?GetDefense@ClassCalc@@QAEXPAUOBJECTSTRUCT@@@Z ; ClassCalc::GetDefense

; 786  : #else
; 787  : 	if ( lpObj->Class == CLASS_ELF ) // Elf
; 788  : 	{
; 789  : 		lpObj->m_Defense = Dexterity / 10;
; 790  : 	}
; 791  : 	else if ( lpObj->Class == 1 ) // DK
; 792  : 	{
; 793  : 		lpObj->m_Defense = Dexterity / 3;
; 794  : 	}
; 795  : 	else if ( lpObj->Class == 4 ) // DL
; 796  : 	{
; 797  : 		lpObj->m_Defense = Dexterity / 7;
; 798  : 	}
; 799  : 	else if ( lpObj->Class == CLASS_SUMMONER )
; 800  : 	{
; 801  : 		lpObj->m_Defense = Dexterity / 3;
; 802  : 	}
; 803  : 	else if ( lpObj->Class == CLASS_FIGHTER )
; 804  : 	{
; 805  : 		lpObj->m_Defense = Dexterity / 8;
; 806  : 	}
; 807  : 	else
; 808  : 	{
; 809  : 		lpObj->m_Defense = Dexterity / 4;
; 810  : 	}
; 811  : #endif
; 812  : 
; 813  : 	lpObj->m_Defense += lpObj->pInventory[2].ItemDefense();

  013e0	8b 8f c0 11 00
	00		 mov	 ecx, DWORD PTR [edi+4544]
  013e6	81 c1 a8 01 00
	00		 add	 ecx, 424		; 000001a8H
  013ec	e8 00 00 00 00	 call	 ?ItemDefense@CItem@@QAEHXZ ; CItem::ItemDefense

; 814  : 	lpObj->m_Defense += lpObj->pInventory[3].ItemDefense();

  013f1	8b 8f c0 11 00
	00		 mov	 ecx, DWORD PTR [edi+4544]
  013f7	01 87 74 06 00
	00		 add	 DWORD PTR [edi+1652], eax
  013fd	81 c1 7c 02 00
	00		 add	 ecx, 636		; 0000027cH
  01403	e8 00 00 00 00	 call	 ?ItemDefense@CItem@@QAEHXZ ; CItem::ItemDefense

; 815  : 	lpObj->m_Defense += lpObj->pInventory[4].ItemDefense();

  01408	8b 8f c0 11 00
	00		 mov	 ecx, DWORD PTR [edi+4544]
  0140e	01 87 74 06 00
	00		 add	 DWORD PTR [edi+1652], eax
  01414	81 c1 50 03 00
	00		 add	 ecx, 848		; 00000350H
  0141a	e8 00 00 00 00	 call	 ?ItemDefense@CItem@@QAEHXZ ; CItem::ItemDefense

; 816  : 	lpObj->m_Defense += lpObj->pInventory[5].ItemDefense();

  0141f	8b 8f c0 11 00
	00		 mov	 ecx, DWORD PTR [edi+4544]
  01425	01 87 74 06 00
	00		 add	 DWORD PTR [edi+1652], eax
  0142b	81 c1 24 04 00
	00		 add	 ecx, 1060		; 00000424H
  01431	e8 00 00 00 00	 call	 ?ItemDefense@CItem@@QAEHXZ ; CItem::ItemDefense

; 817  : 	lpObj->m_Defense += lpObj->pInventory[6].ItemDefense();

  01436	8b 8f c0 11 00
	00		 mov	 ecx, DWORD PTR [edi+4544]
  0143c	01 87 74 06 00
	00		 add	 DWORD PTR [edi+1652], eax
  01442	81 c1 f8 04 00
	00		 add	 ecx, 1272		; 000004f8H
  01448	e8 00 00 00 00	 call	 ?ItemDefense@CItem@@QAEHXZ ; CItem::ItemDefense

; 818  : 	lpObj->m_Defense += lpObj->pInventory[1].ItemDefense();

  0144d	8b 8f c0 11 00
	00		 mov	 ecx, DWORD PTR [edi+4544]
  01453	01 87 74 06 00
	00		 add	 DWORD PTR [edi+1652], eax
  01459	81 c1 d4 00 00
	00		 add	 ecx, 212		; 000000d4H
  0145f	e8 00 00 00 00	 call	 ?ItemDefense@CItem@@QAEHXZ ; CItem::ItemDefense

; 819  : 	lpObj->m_Defense += lpObj->pInventory[7].ItemDefense();

  01464	8b 8f c0 11 00
	00		 mov	 ecx, DWORD PTR [edi+4544]
  0146a	01 87 74 06 00
	00		 add	 DWORD PTR [edi+1652], eax
  01470	81 c1 cc 05 00
	00		 add	 ecx, 1484		; 000005ccH
  01476	e8 00 00 00 00	 call	 ?ItemDefense@CItem@@QAEHXZ ; CItem::ItemDefense

; 820  : 
; 821  : 	if ( lpObj->pInventory[8].IsItem() != FALSE )

  0147b	8b 8f c0 11 00
	00		 mov	 ecx, DWORD PTR [edi+4544]
  01481	01 87 74 06 00
	00		 add	 DWORD PTR [edi+1652], eax
  01487	81 c1 a0 06 00
	00		 add	 ecx, 1696		; 000006a0H
  0148d	e8 00 00 00 00	 call	 ?IsItem@CItem@@QAEHXZ	; CItem::IsItem
  01492	85 c0		 test	 eax, eax
  01494	74 4b		 je	 SHORT $LN123@gObjCalCha

; 822  : 	{
; 823  : 		if ( lpObj->pInventory[8].m_Type == ITEMGET(13,4) && lpObj->pInventory[8].m_Durability > 0.0f )	// Dark Horse

  01496	8b 87 c0 11 00
	00		 mov	 eax, DWORD PTR [edi+4544]
  0149c	b9 04 1a 00 00	 mov	 ecx, 6660		; 00001a04H
  014a1	66 39 88 a6 06
	00 00		 cmp	 WORD PTR [eax+1702], cx
  014a8	75 37		 jne	 SHORT $LN123@gObjCalCha
  014aa	f3 0f 10 80 c4
	06 00 00	 movss	 xmm0, DWORD PTR [eax+1732]
  014b2	0f 57 c9	 xorps	 xmm1, xmm1
  014b5	0f 2f c1	 comiss	 xmm0, xmm1
  014b8	76 27		 jbe	 SHORT $LN123@gObjCalCha

; 824  : 		{
; 825  : 			lpObj->m_Defense += INT( Dexterity / 20 + 5 + Helper->m_PetItem_Level * 2 );

  014ba	8b 8b 58 07 00
	00		 mov	 ecx, DWORD PTR [ebx+1880]
  014c0	b8 67 66 66 66	 mov	 eax, 1717986919		; 66666667H
  014c5	f7 ad dc fe ff
	ff		 imul	 DWORD PTR _Dexterity$1$[ebp]
  014cb	c1 fa 03	 sar	 edx, 3
  014ce	8b c2		 mov	 eax, edx
  014d0	c1 e8 1f	 shr	 eax, 31			; 0000001fH
  014d3	03 c2		 add	 eax, edx
  014d5	8d 04 48	 lea	 eax, DWORD PTR [eax+ecx*2]
  014d8	83 c0 05	 add	 eax, 5
  014db	01 87 74 06 00
	00		 add	 DWORD PTR [edi+1652], eax
$LN123@gObjCalCha:

; 826  : 		}
; 827  : 	}
; 828  : 
; 829  : 	if ( lpObj->pInventory[8].IsItem() && lpObj->pInventory[8].m_Type == ITEMGET(13,37) )

  014e1	8b 8f c0 11 00
	00		 mov	 ecx, DWORD PTR [edi+4544]
  014e7	81 c1 a0 06 00
	00		 add	 ecx, 1696		; 000006a0H
  014ed	e8 00 00 00 00	 call	 ?IsItem@CItem@@QAEHXZ	; CItem::IsItem
  014f2	85 c0		 test	 eax, eax
  014f4	0f 84 8f 00 00
	00		 je	 $LN125@gObjCalCha
  014fa	8b 8f c0 11 00
	00		 mov	 ecx, DWORD PTR [edi+4544]
  01500	b8 25 1a 00 00	 mov	 eax, 6693		; 00001a25H
  01505	66 39 81 a6 06
	00 00		 cmp	 WORD PTR [ecx+1702], ax
  0150c	0f 85 77 00 00
	00		 jne	 $LN125@gObjCalCha

; 830  : 	{
; 831  : 		if( lpObj->pInventory[8].IsFenrirSpecial() )

  01512	81 c1 a0 06 00
	00		 add	 ecx, 1696		; 000006a0H
  01518	e8 00 00 00 00	 call	 ?IsFenrirSpecial@CItem@@QAEHXZ ; CItem::IsFenrirSpecial
  0151d	85 c0		 test	 eax, eax
  0151f	74 68		 je	 SHORT $LN125@gObjCalCha

; 832  : 		{
; 833  : 			int Level = lpObj->Level + lpObj->MasterLevel;

  01521	0f bf 87 96 00
	00 00		 movsx	 eax, WORD PTR [edi+150]
  01528	0f bf 8f a8 00
	00 00		 movsx	 ecx, WORD PTR [edi+168]
  0152f	03 c8		 add	 ecx, eax

; 834  : 
; 835  : 			lpObj->AddLife += Level / 2;

  01531	8b c1		 mov	 eax, ecx
  01533	99		 cdq
  01534	2b c2		 sub	 eax, edx
  01536	d1 f8		 sar	 eax, 1
  01538	01 87 24 01 00
	00		 add	 DWORD PTR [edi+292], eax

; 836  : 			lpObj->AddMana += Level / 2;

  0153e	01 87 28 01 00
	00		 add	 DWORD PTR [edi+296], eax

; 837  : 
; 838  : 			lpObj->m_AttackDamageMinRight += Level / 12;

  01544	b8 ab aa aa 2a	 mov	 eax, 715827883		; 2aaaaaabH
  01549	f7 e9		 imul	 ecx
  0154b	d1 fa		 sar	 edx, 1
  0154d	8b c2		 mov	 eax, edx
  0154f	c1 e8 1f	 shr	 eax, 31			; 0000001fH
  01552	03 c2		 add	 eax, edx
  01554	01 87 64 06 00
	00		 add	 DWORD PTR [edi+1636], eax

; 839  : 			lpObj->m_AttackDamageMaxRight += Level / 12;

  0155a	01 87 60 06 00
	00		 add	 DWORD PTR [edi+1632], eax

; 840  : 			lpObj->m_AttackDamageMinLeft += Level / 12;

  01560	01 87 5c 06 00
	00		 add	 DWORD PTR [edi+1628], eax

; 841  : 			lpObj->m_AttackDamageMaxLeft += Level / 12;

  01566	01 87 58 06 00
	00		 add	 DWORD PTR [edi+1624], eax

; 842  : 			lpObj->m_MagicDamageMax += Level / 25;

  0156c	b8 1f 85 eb 51	 mov	 eax, 1374389535		; 51eb851fH
  01571	f7 e9		 imul	 ecx
  01573	c1 fa 03	 sar	 edx, 3
  01576	8b c2		 mov	 eax, edx
  01578	c1 e8 1f	 shr	 eax, 31			; 0000001fH
  0157b	03 c2		 add	 eax, edx
  0157d	01 87 4c 06 00
	00		 add	 DWORD PTR [edi+1612], eax

; 843  : 			lpObj->m_MagicDamageMin += Level / 25;

  01583	01 87 48 06 00
	00		 add	 DWORD PTR [edi+1608], eax
$LN125@gObjCalCha:

; 844  : 		}
; 845  : 	}
; 846  : 
; 847  : 	if ( (Level15Count+Level14Count+Level13Count+Level12Count+Level11Count+Level10Count) >= 5 )

  01589	8b 95 e4 fe ff
	ff		 mov	 edx, DWORD PTR _Level14Count$1$[ebp]
  0158f	8b 85 d0 fe ff
	ff		 mov	 eax, DWORD PTR _Level10Count$1$[ebp]
  01595	8d 0c 16	 lea	 ecx, DWORD PTR [esi+edx]
  01598	89 8d dc fe ff
	ff		 mov	 DWORD PTR tv5650[ebp], ecx
  0159e	03 8d d8 fe ff
	ff		 add	 ecx, DWORD PTR _Level13Count$1$[ebp]
  015a4	89 8d e0 fe ff
	ff		 mov	 DWORD PTR tv5649[ebp], ecx
  015aa	03 8d d4 fe ff
	ff		 add	 ecx, DWORD PTR _Level12Count$1$[ebp]
  015b0	03 c1		 add	 eax, ecx
  015b2	89 8d f8 fe ff
	ff		 mov	 DWORD PTR tv5648[ebp], ecx
  015b8	8b 8d f4 fe ff
	ff		 mov	 ecx, DWORD PTR _Level11Count$1$[ebp]
  015be	03 c1		 add	 eax, ecx
  015c0	89 85 f4 fe ff
	ff		 mov	 DWORD PTR tv5647[ebp], eax
  015c6	83 f8 05	 cmp	 eax, 5
  015c9	0f 8c ca 00 00
	00		 jl	 $LN141@gObjCalCha

; 848  : 	{
; 849  : 		if ( Level15Count == 5 )

  015cf	83 fe 05	 cmp	 esi, 5
  015d2	75 14		 jne	 SHORT $LN127@gObjCalCha

; 850  : 		{
; 851  : 			lpObj->m_Defense += lpObj->m_Defense * 30 / 100;

  015d4	8b b7 74 06 00
	00		 mov	 esi, DWORD PTR [edi+1652]
  015da	8b ce		 mov	 ecx, esi
  015dc	c1 e1 04	 shl	 ecx, 4
  015df	2b ce		 sub	 ecx, esi
  015e1	03 c9		 add	 ecx, ecx
  015e3	e9 98 00 00 00	 jmp	 $LN438@gObjCalCha
$LN127@gObjCalCha:

; 852  : 		}
; 853  : 		else if ( Level14Count == 5 || (Level14Count+Level15Count)== 5)

  015e8	83 fa 05	 cmp	 edx, 5
  015eb	0f 84 86 00 00
	00		 je	 $LN131@gObjCalCha
  015f1	83 bd dc fe ff
	ff 05		 cmp	 DWORD PTR tv5650[ebp], 5
  015f8	0f 84 79 00 00
	00		 je	 $LN131@gObjCalCha

; 856  : 		}
; 857  : 		else if ( Level13Count == 5 || (Level13Count+Level14Count+Level15Count) == 5)

  015fe	83 bd d8 fe ff
	ff 05		 cmp	 DWORD PTR _Level13Count$1$[ebp], 5
  01605	74 62		 je	 SHORT $LN134@gObjCalCha
  01607	83 bd e0 fe ff
	ff 05		 cmp	 DWORD PTR tv5649[ebp], 5
  0160e	74 59		 je	 SHORT $LN134@gObjCalCha

; 860  : 		}
; 861  : 		else if ( Level12Count == 5 || (Level12Count+Level13Count+Level14Count+Level15Count) == 5 )

  01610	83 bd d4 fe ff
	ff 05		 cmp	 DWORD PTR _Level12Count$1$[ebp], 5
  01617	74 41		 je	 SHORT $LN137@gObjCalCha
  01619	8b 85 f8 fe ff
	ff		 mov	 eax, DWORD PTR tv5648[ebp]
  0161f	83 f8 05	 cmp	 eax, 5
  01622	74 36		 je	 SHORT $LN137@gObjCalCha

; 864  : 		}
; 865  : 		else if ( Level11Count == 5 || (Level11Count+Level12Count+Level13Count+Level14Count+Level15Count) == 5 )

  01624	83 f9 05	 cmp	 ecx, 5
  01627	74 24		 je	 SHORT $LN140@gObjCalCha
  01629	03 c1		 add	 eax, ecx
  0162b	83 f8 05	 cmp	 eax, 5
  0162e	74 1d		 je	 SHORT $LN140@gObjCalCha

; 868  : 		}
; 869  : 		else if ( Level10Count == 5 || (Level10Count+Level11Count+Level12Count+Level13Count+Level14Count+Level15Count) == 5)

  01630	83 bd d0 fe ff
	ff 05		 cmp	 DWORD PTR _Level10Count$1$[ebp], 5
  01637	74 09		 je	 SHORT $LN142@gObjCalCha
  01639	83 bd f4 fe ff
	ff 05		 cmp	 DWORD PTR tv5647[ebp], 5
  01640	75 57		 jne	 SHORT $LN141@gObjCalCha
$LN142@gObjCalCha:

; 870  : 		{
; 871  : 			lpObj->m_Defense += lpObj->m_Defense * 5 / 100;

  01642	8b b7 74 06 00
	00		 mov	 esi, DWORD PTR [edi+1652]
  01648	8d 0c b6	 lea	 ecx, DWORD PTR [esi+esi*4]
  0164b	eb 33		 jmp	 SHORT $LN438@gObjCalCha
$LN140@gObjCalCha:

; 866  : 		{
; 867  : 			lpObj->m_Defense += lpObj->m_Defense * 10 / 100;

  0164d	8b b7 74 06 00
	00		 mov	 esi, DWORD PTR [edi+1652]
  01653	8d 0c b6	 lea	 ecx, DWORD PTR [esi+esi*4]
  01656	03 c9		 add	 ecx, ecx
  01658	eb 26		 jmp	 SHORT $LN438@gObjCalCha
$LN137@gObjCalCha:

; 862  : 		{
; 863  : 			lpObj->m_Defense += lpObj->m_Defense * 15 / 100;

  0165a	8b b7 74 06 00
	00		 mov	 esi, DWORD PTR [edi+1652]
  01660	8b ce		 mov	 ecx, esi
  01662	c1 e1 04	 shl	 ecx, 4
  01665	2b ce		 sub	 ecx, esi
  01667	eb 17		 jmp	 SHORT $LN438@gObjCalCha
$LN134@gObjCalCha:

; 858  : 		{
; 859  : 			lpObj->m_Defense += lpObj->m_Defense * 20 / 100;

  01669	8b b7 74 06 00
	00		 mov	 esi, DWORD PTR [edi+1652]
  0166f	8d 0c b6	 lea	 ecx, DWORD PTR [esi+esi*4]
  01672	c1 e1 02	 shl	 ecx, 2
  01675	eb 09		 jmp	 SHORT $LN438@gObjCalCha
$LN131@gObjCalCha:

; 854  : 		{
; 855  : 			lpObj->m_Defense += lpObj->m_Defense * 25 / 100;

  01677	8b b7 74 06 00
	00		 mov	 esi, DWORD PTR [edi+1652]
  0167d	6b ce 19	 imul	 ecx, esi, 25
$LN438@gObjCalCha:
  01680	b8 1f 85 eb 51	 mov	 eax, 1374389535		; 51eb851fH
  01685	f7 e9		 imul	 ecx
  01687	c1 fa 05	 sar	 edx, 5
  0168a	8b c2		 mov	 eax, edx
  0168c	c1 e8 1f	 shr	 eax, 31			; 0000001fH
  0168f	03 c2		 add	 eax, edx
  01691	03 c6		 add	 eax, esi
  01693	89 87 74 06 00
	00		 mov	 DWORD PTR [edi+1652], eax
$LN141@gObjCalCha:

; 872  : 		}
; 873  : 	}
; 874  : 
; 875  : 	if( Success == true )

  01699	80 bd ec fe ff
	ff 01		 cmp	 BYTE PTR tv5101[ebp], 1
  016a0	75 1d		 jne	 SHORT $LN143@gObjCalCha

; 876  : 	{
; 877  : 		lpObj->m_Defense += lpObj->m_MPSkillOpt.MpsArmorSetBonusIncrease;

  016a2	66 0f 6e 87 74
	06 00 00	 movd	 xmm0, DWORD PTR [edi+1652]
  016aa	0f 5b c0	 cvtdq2ps xmm0, xmm0
  016ad	f3 0f 58 87 2c
	08 00 00	 addss	 xmm0, DWORD PTR [edi+2092]
  016b5	f3 0f 2c c0	 cvttss2si eax, xmm0
  016b9	89 87 74 06 00
	00		 mov	 DWORD PTR [edi+1652], eax
$LN143@gObjCalCha:

; 878  : 	}
; 879  : 
; 880  : 	lpObj->m_Defense += lpObj->m_MPSkillOpt.MpsDefence;

  016bf	66 0f 6e 87 74
	06 00 00	 movd	 xmm0, DWORD PTR [edi+1652]
  016c7	0f 5b c0	 cvtdq2ps xmm0, xmm0
  016ca	f3 0f 58 87 dc
	07 00 00	 addss	 xmm0, DWORD PTR [edi+2012]
  016d2	f3 0f 2c c0	 cvttss2si eax, xmm0

; 881  : 	lpObj->m_Defense = lpObj->m_Defense * 10 / 20;

  016d6	8d 0c 80	 lea	 ecx, DWORD PTR [eax+eax*4]
  016d9	b8 67 66 66 66	 mov	 eax, 1717986919		; 66666667H
  016de	03 c9		 add	 ecx, ecx
  016e0	f7 e9		 imul	 ecx

; 882  : 
; 883  : 	if ( lpObj->m_Change == 9 )

  016e2	8b 87 34 06 00
	00		 mov	 eax, DWORD PTR [edi+1588]
  016e8	c1 fa 03	 sar	 edx, 3
  016eb	8b ca		 mov	 ecx, edx
  016ed	c1 e9 1f	 shr	 ecx, 31			; 0000001fH
  016f0	03 ca		 add	 ecx, edx
  016f2	89 8f 74 06 00
	00		 mov	 DWORD PTR [edi+1652], ecx
  016f8	83 f8 09	 cmp	 eax, 9
  016fb	74 34		 je	 SHORT $LN425@gObjCalCha

; 884  : 	{
; 885  : 
; 886  : 	}
; 887  : 	else if ( lpObj->m_Change == 41 )

  016fd	83 f8 29	 cmp	 eax, 41			; 00000029H
  01700	0f 85 7c 01 00
	00		 jne	 $LN146@gObjCalCha

; 888  : 	{
; 889  : 		lpObj->AddLife = ((int)(lpObj->MaxLife * 20.0f))/100;

  01706	f3 0f 10 87 dc
	00 00 00	 movss	 xmm0, DWORD PTR [edi+220]
  0170e	b8 1f 85 eb 51	 mov	 eax, 1374389535		; 51eb851fH
  01713	f3 0f 59 05 00
	00 00 00	 mulss	 xmm0, DWORD PTR __real@41a00000
  0171b	f3 0f 2c c8	 cvttss2si ecx, xmm0
  0171f	f7 e9		 imul	 ecx
  01721	c1 fa 05	 sar	 edx, 5
  01724	8b c2		 mov	 eax, edx
  01726	c1 e8 1f	 shr	 eax, 31			; 0000001fH
  01729	03 c2		 add	 eax, edx
  0172b	89 87 24 01 00
	00		 mov	 DWORD PTR [edi+292], eax
$LN425@gObjCalCha:
  01731	8d b7 58 06 00
	00		 lea	 esi, DWORD PTR [edi+1624]
$LN158@gObjCalCha:

; 951  : 	}
; 952  : 
; 953  : 	if ( gObjDemonSprite(lpObj) == TRUE )

  01737	57		 push	 edi
  01738	e8 00 00 00 00	 call	 ?gObjDemonSprite@@YAHPAUOBJECTSTRUCT@@@Z ; gObjDemonSprite
  0173d	83 c4 04	 add	 esp, 4
  01740	83 f8 01	 cmp	 eax, 1
  01743	0f 85 65 02 00
	00		 jne	 $LN159@gObjCalCha

; 954  : 	{
; 955  : 		lpObj->m_AttackDamageMaxLeft += lpObj->m_AttackDamageMaxLeft*40/100;

  01749	8b 36		 mov	 esi, DWORD PTR [esi]
  0174b	b8 1f 85 eb 51	 mov	 eax, 1374389535		; 51eb851fH
  01750	8d 0c b6	 lea	 ecx, DWORD PTR [esi+esi*4]
  01753	c1 e1 03	 shl	 ecx, 3
  01756	f7 e9		 imul	 ecx
  01758	c1 fa 05	 sar	 edx, 5
  0175b	8b c2		 mov	 eax, edx
  0175d	c1 e8 1f	 shr	 eax, 31			; 0000001fH
  01760	03 c2		 add	 eax, edx
  01762	03 c6		 add	 eax, esi
  01764	89 87 58 06 00
	00		 mov	 DWORD PTR [edi+1624], eax
  0176a	b8 1f 85 eb 51	 mov	 eax, 1374389535		; 51eb851fH
  0176f	8b b7 5c 06 00
	00		 mov	 esi, DWORD PTR [edi+1628]
  01775	8d 0c b6	 lea	 ecx, DWORD PTR [esi+esi*4]
  01778	c1 e1 03	 shl	 ecx, 3
  0177b	f7 e9		 imul	 ecx
  0177d	c1 fa 05	 sar	 edx, 5
  01780	8b c2		 mov	 eax, edx
  01782	c1 e8 1f	 shr	 eax, 31			; 0000001fH
  01785	03 c2		 add	 eax, edx
  01787	03 c6		 add	 eax, esi
  01789	89 87 5c 06 00
	00		 mov	 DWORD PTR [edi+1628], eax
  0178f	b8 1f 85 eb 51	 mov	 eax, 1374389535		; 51eb851fH
  01794	8b b7 60 06 00
	00		 mov	 esi, DWORD PTR [edi+1632]
  0179a	8d 0c b6	 lea	 ecx, DWORD PTR [esi+esi*4]
  0179d	c1 e1 03	 shl	 ecx, 3
  017a0	f7 e9		 imul	 ecx
  017a2	c1 fa 05	 sar	 edx, 5
  017a5	8b c2		 mov	 eax, edx
  017a7	c1 e8 1f	 shr	 eax, 31			; 0000001fH
  017aa	03 c2		 add	 eax, edx
  017ac	03 c6		 add	 eax, esi
  017ae	89 87 60 06 00
	00		 mov	 DWORD PTR [edi+1632], eax
  017b4	b8 1f 85 eb 51	 mov	 eax, 1374389535		; 51eb851fH
  017b9	8b b7 64 06 00
	00		 mov	 esi, DWORD PTR [edi+1636]
  017bf	8d 0c b6	 lea	 ecx, DWORD PTR [esi+esi*4]
  017c2	c1 e1 03	 shl	 ecx, 3
  017c5	f7 e9		 imul	 ecx
  017c7	c1 fa 05	 sar	 edx, 5
  017ca	8b c2		 mov	 eax, edx
  017cc	c1 e8 1f	 shr	 eax, 31			; 0000001fH
  017cf	03 c2		 add	 eax, edx
  017d1	03 c6		 add	 eax, esi
  017d3	89 87 64 06 00
	00		 mov	 DWORD PTR [edi+1636], eax

; 956  : 		lpObj->m_AttackDamageMinLeft += lpObj->m_AttackDamageMinLeft*40/100;
; 957  : 		lpObj->m_AttackDamageMaxRight += lpObj->m_AttackDamageMaxRight*40/100;
; 958  : 		lpObj->m_AttackDamageMinRight += lpObj->m_AttackDamageMinRight*40/100;
; 959  : 		lpObj->m_MagicDamageMin += lpObj->m_MagicDamageMin*40/100;

  017d9	b8 1f 85 eb 51	 mov	 eax, 1374389535		; 51eb851fH
  017de	8b b7 48 06 00
	00		 mov	 esi, DWORD PTR [edi+1608]
  017e4	8d 0c b6	 lea	 ecx, DWORD PTR [esi+esi*4]
  017e7	c1 e1 03	 shl	 ecx, 3
  017ea	f7 e9		 imul	 ecx
  017ec	c1 fa 05	 sar	 edx, 5
  017ef	8b c2		 mov	 eax, edx
  017f1	c1 e8 1f	 shr	 eax, 31			; 0000001fH
  017f4	03 c2		 add	 eax, edx
  017f6	03 c6		 add	 eax, esi

; 960  : 		lpObj->m_MagicDamageMax += lpObj->m_MagicDamageMax*40/100;

  017f8	8b b7 4c 06 00
	00		 mov	 esi, DWORD PTR [edi+1612]
  017fe	89 87 48 06 00
	00		 mov	 DWORD PTR [edi+1608], eax
  01804	b8 1f 85 eb 51	 mov	 eax, 1374389535		; 51eb851fH
  01809	8d 0c b6	 lea	 ecx, DWORD PTR [esi+esi*4]
  0180c	c1 e1 03	 shl	 ecx, 3
  0180f	f7 e9		 imul	 ecx
  01811	c1 fa 05	 sar	 edx, 5
  01814	8b c2		 mov	 eax, edx
  01816	c1 e8 1f	 shr	 eax, 31			; 0000001fH
  01819	03 c2		 add	 eax, edx
  0181b	03 c6		 add	 eax, esi

; 961  : 		lpObj->m_CurseDamageMin += lpObj->m_CurseDamageMin*40/100;

  0181d	8b b7 84 06 00
	00		 mov	 esi, DWORD PTR [edi+1668]
  01823	89 87 4c 06 00
	00		 mov	 DWORD PTR [edi+1612], eax
  01829	b8 1f 85 eb 51	 mov	 eax, 1374389535		; 51eb851fH
  0182e	8d 0c b6	 lea	 ecx, DWORD PTR [esi+esi*4]
  01831	c1 e1 03	 shl	 ecx, 3
  01834	f7 e9		 imul	 ecx
  01836	c1 fa 05	 sar	 edx, 5
  01839	8b c2		 mov	 eax, edx
  0183b	c1 e8 1f	 shr	 eax, 31			; 0000001fH
  0183e	03 c2		 add	 eax, edx
  01840	03 c6		 add	 eax, esi

; 962  : 		lpObj->m_CurseDamageMax += lpObj->m_CurseDamageMax*40/100;

  01842	8b b7 88 06 00
	00		 mov	 esi, DWORD PTR [edi+1672]
  01848	89 87 84 06 00
	00		 mov	 DWORD PTR [edi+1668], eax
  0184e	b8 1f 85 eb 51	 mov	 eax, 1374389535		; 51eb851fH
  01853	8d 0c b6	 lea	 ecx, DWORD PTR [esi+esi*4]
  01856	c1 e1 03	 shl	 ecx, 3

; 963  : 		lpObj->m_AttackSpeed += 10;

  01859	83 87 6c 06 00
	00 0a		 add	 DWORD PTR [edi+1644], 10 ; 0000000aH
  01860	f7 e9		 imul	 ecx
  01862	c1 fa 05	 sar	 edx, 5
  01865	8b c2		 mov	 eax, edx
  01867	c1 e8 1f	 shr	 eax, 31			; 0000001fH
  0186a	03 c2		 add	 eax, edx
  0186c	03 c6		 add	 eax, esi

; 964  : 		lpObj->m_MagicSpeed += 10;

  0186e	83 87 70 06 00
	00 0a		 add	 DWORD PTR [edi+1648], 10 ; 0000000aH
  01875	8d b7 88 06 00
	00		 lea	 esi, DWORD PTR [edi+1672]
  0187b	89 06		 mov	 DWORD PTR [esi], eax
  0187d	e9 89 01 00 00	 jmp	 $LN167@gObjCalCha
$LN146@gObjCalCha:

; 890  : 	}
; 891  : 	else if ( lpObj->m_Change == 372 )

  01882	3d 74 01 00 00	 cmp	 eax, 372		; 00000174H
  01887	75 34		 jne	 SHORT $LN148@gObjCalCha

; 892  : 	{
; 893  : 		lpObj->m_Defense += lpObj->m_Defense / 10;

  01889	b8 67 66 66 66	 mov	 eax, 1717986919		; 66666667H
  0188e	f7 e9		 imul	 ecx
  01890	c1 fa 02	 sar	 edx, 2
  01893	8b c2		 mov	 eax, edx
  01895	c1 e8 1f	 shr	 eax, 31			; 0000001fH
  01898	03 c2		 add	 eax, edx
  0189a	03 c1		 add	 eax, ecx

; 894  : 		lpObj->AddLife += (lpObj->Level + lpObj->MasterLevel);

  0189c	0f bf 8f a8 00
	00 00		 movsx	 ecx, WORD PTR [edi+168]
  018a3	89 87 74 06 00
	00		 mov	 DWORD PTR [edi+1652], eax
  018a9	0f bf 87 96 00
	00 00		 movsx	 eax, WORD PTR [edi+150]
  018b0	03 c8		 add	 ecx, eax
  018b2	01 8f 24 01 00
	00		 add	 DWORD PTR [edi+292], ecx
  018b8	e9 74 fe ff ff	 jmp	 $LN425@gObjCalCha
$LN148@gObjCalCha:

; 895  : 	}
; 896  : 	else if ( lpObj->m_Change == 374 )

  018bd	3d 76 01 00 00	 cmp	 eax, 374		; 00000176H
  018c2	75 2f		 jne	 SHORT $LN150@gObjCalCha

; 897  : 	{
; 898  : 		lpObj->m_AttackDamageMaxLeft += 20;

  018c4	83 87 58 06 00
	00 14		 add	 DWORD PTR [edi+1624], 20 ; 00000014H
  018cb	83 87 5c 06 00
	00 14		 add	 DWORD PTR [edi+1628], 20 ; 00000014H
  018d2	83 87 60 06 00
	00 14		 add	 DWORD PTR [edi+1632], 20 ; 00000014H
  018d9	83 87 64 06 00
	00 14		 add	 DWORD PTR [edi+1636], 20 ; 00000014H

; 899  : 		lpObj->m_AttackDamageMinLeft += 20;
; 900  : 		lpObj->m_AttackDamageMaxRight += 20;
; 901  : 		lpObj->m_AttackDamageMinRight += 20;
; 902  : 		lpObj->m_MagicDamageMin += 20;

  018e0	83 87 48 06 00
	00 14		 add	 DWORD PTR [edi+1608], 20 ; 00000014H

; 903  : 		lpObj->m_MagicDamageMax += 20;

  018e7	83 87 4c 06 00
	00 14		 add	 DWORD PTR [edi+1612], 20 ; 00000014H
  018ee	e9 3e fe ff ff	 jmp	 $LN425@gObjCalCha
$LN150@gObjCalCha:

; 904  : 	}
; 905  : 	else if ( lpObj->m_Change == 503 )

  018f3	3d f7 01 00 00	 cmp	 eax, 503		; 000001f7H
  018f8	75 3d		 jne	 SHORT $LN152@gObjCalCha
$LN439@gObjCalCha:

; 906  : 	{
; 907  : 		lpObj->m_AttackDamageMaxLeft += 30;

  018fa	83 87 58 06 00
	00 1e		 add	 DWORD PTR [edi+1624], 30 ; 0000001eH
  01901	83 87 5c 06 00
	00 1e		 add	 DWORD PTR [edi+1628], 30 ; 0000001eH
  01908	83 87 60 06 00
	00 1e		 add	 DWORD PTR [edi+1632], 30 ; 0000001eH
  0190f	83 87 64 06 00
	00 1e		 add	 DWORD PTR [edi+1636], 30 ; 0000001eH

; 908  : 		lpObj->m_AttackDamageMinLeft += 30;
; 909  : 		lpObj->m_AttackDamageMaxRight += 30;
; 910  : 		lpObj->m_AttackDamageMinRight += 30;
; 911  : 		lpObj->m_MagicDamageMin += 30;

  01916	83 87 48 06 00
	00 1e		 add	 DWORD PTR [edi+1608], 30 ; 0000001eH

; 912  : 		lpObj->m_MagicDamageMax += 30;

  0191d	83 87 4c 06 00
	00 1e		 add	 DWORD PTR [edi+1612], 30 ; 0000001eH

; 913  : 		lpObj->m_CurseDamageMin += 30;

  01924	83 87 84 06 00
	00 1e		 add	 DWORD PTR [edi+1668], 30 ; 0000001eH

; 914  : 		lpObj->m_CurseDamageMax += 30;

  0192b	83 87 88 06 00
	00 1e		 add	 DWORD PTR [edi+1672], 30 ; 0000001eH
  01932	e9 fa fd ff ff	 jmp	 $LN425@gObjCalCha
$LN152@gObjCalCha:

; 915  : 	}
; 916  : 	else if( lpObj->m_Change == 625 )

  01937	3d 71 02 00 00	 cmp	 eax, 625		; 00000271H
  0193c	75 0b		 jne	 SHORT $LN154@gObjCalCha

; 917  : 	{
; 918  : 		lpObj->m_Defense += 10;

  0193e	8d 41 0a	 lea	 eax, DWORD PTR [ecx+10]
  01941	89 87 74 06 00
	00		 mov	 DWORD PTR [edi+1652], eax

; 919  : 		lpObj->m_AttackDamageMaxLeft += 30;
; 920  : 		lpObj->m_AttackDamageMinLeft += 30;
; 921  : 		lpObj->m_AttackDamageMaxRight += 30;
; 922  : 		lpObj->m_AttackDamageMinRight += 30;
; 923  : 		lpObj->m_MagicDamageMin += 30;
; 924  : 		lpObj->m_MagicDamageMax += 30;
; 925  : 		lpObj->m_CurseDamageMin += 30;
; 926  : 		lpObj->m_CurseDamageMax += 30;

  01947	eb b1		 jmp	 SHORT $LN439@gObjCalCha
$LN154@gObjCalCha:

; 927  : 	}
; 928  : 	else if( lpObj->m_Change == 626 )

  01949	3d 72 02 00 00	 cmp	 eax, 626		; 00000272H
  0194e	75 10		 jne	 SHORT $LN156@gObjCalCha

; 929  : 	{
; 930  : 		lpObj->m_AttackSpeed += 7;

  01950	83 87 6c 06 00
	00 07		 add	 DWORD PTR [edi+1644], 7

; 931  : 		lpObj->m_MagicSpeed += 7;

  01957	83 87 70 06 00
	00 07		 add	 DWORD PTR [edi+1648], 7

; 932  : 		lpObj->m_AttackDamageMaxLeft += 30;
; 933  : 		lpObj->m_AttackDamageMinLeft += 30;
; 934  : 		lpObj->m_AttackDamageMaxRight += 30;
; 935  : 		lpObj->m_AttackDamageMinRight += 30;
; 936  : 		lpObj->m_MagicDamageMin += 30;
; 937  : 		lpObj->m_MagicDamageMax += 30;
; 938  : 		lpObj->m_CurseDamageMin += 30;
; 939  : 		lpObj->m_CurseDamageMax += 30;

  0195e	eb 9a		 jmp	 SHORT $LN439@gObjCalCha
$LN156@gObjCalCha:

; 940  : 	}
; 941  : 	else if( lpObj->m_Change == 642 )

  01960	3d 82 02 00 00	 cmp	 eax, 642		; 00000282H
  01965	0f 85 c6 fd ff
	ff		 jne	 $LN425@gObjCalCha

; 942  : 	{
; 943  : 		lpObj->m_AttackDamageMaxLeft += 40;

  0196b	83 87 58 06 00
	00 28		 add	 DWORD PTR [edi+1624], 40 ; 00000028H
  01972	8d b7 58 06 00
	00		 lea	 esi, DWORD PTR [edi+1624]
  01978	83 87 5c 06 00
	00 28		 add	 DWORD PTR [edi+1628], 40 ; 00000028H
  0197f	83 87 60 06 00
	00 28		 add	 DWORD PTR [edi+1632], 40 ; 00000028H
  01986	83 87 64 06 00
	00 28		 add	 DWORD PTR [edi+1636], 40 ; 00000028H

; 944  : 		lpObj->m_AttackDamageMinLeft += 40;
; 945  : 		lpObj->m_AttackDamageMaxRight += 40;
; 946  : 		lpObj->m_AttackDamageMinRight += 40;
; 947  : 		lpObj->m_MagicDamageMin += 40;

  0198d	83 87 48 06 00
	00 28		 add	 DWORD PTR [edi+1608], 40 ; 00000028H

; 948  : 		lpObj->m_MagicDamageMax += 40;

  01994	83 87 4c 06 00
	00 28		 add	 DWORD PTR [edi+1612], 40 ; 00000028H

; 949  : 		lpObj->m_CurseDamageMin += 40;

  0199b	83 87 84 06 00
	00 28		 add	 DWORD PTR [edi+1668], 40 ; 00000028H

; 950  : 		lpObj->m_CurseDamageMax += 40;

  019a2	83 87 88 06 00
	00 28		 add	 DWORD PTR [edi+1672], 40 ; 00000028H
  019a9	e9 89 fd ff ff	 jmp	 $LN158@gObjCalCha
$LN159@gObjCalCha:

; 965  : 	}
; 966  : 	else if ( gObjGuardianSprice(lpObj) == TRUE )

  019ae	57		 push	 edi
  019af	e8 00 00 00 00	 call	 ?gObjGuardianSprice@@YAHPAUOBJECTSTRUCT@@@Z ; gObjGuardianSprice
  019b4	83 c4 04	 add	 esp, 4
  019b7	83 f8 01	 cmp	 eax, 1
  019ba	74 42		 je	 SHORT $LN449@gObjCalCha

; 967  : 	{
; 968  : 		lpObj->AddLife += 50;
; 969  : 	}
; 970  : 	else if( gObjPandaSprite(lpObj) == TRUE )

  019bc	57		 push	 edi
  019bd	e8 00 00 00 00	 call	 ?gObjPandaSprite@@YAHPAUOBJECTSTRUCT@@@Z ; gObjPandaSprite
  019c2	83 c4 04	 add	 esp, 4
  019c5	83 f8 01	 cmp	 eax, 1
  019c8	75 09		 jne	 SHORT $LN163@gObjCalCha

; 971  : 	{
; 972  : 		lpObj->m_Defense += 50;

  019ca	83 87 74 06 00
	00 32		 add	 DWORD PTR [edi+1652], 50 ; 00000032H
  019d1	eb 32		 jmp	 SHORT $LN426@gObjCalCha
$LN163@gObjCalCha:

; 973  : 	}
; 974  : 	else if( gObjUnicornSprite(lpObj) == TRUE )

  019d3	57		 push	 edi
  019d4	e8 00 00 00 00	 call	 ?gObjUnicornSprite@@YAHPAUOBJECTSTRUCT@@@Z ; gObjUnicornSprite
  019d9	83 c4 04	 add	 esp, 4
  019dc	83 f8 01	 cmp	 eax, 1
  019df	75 09		 jne	 SHORT $LN165@gObjCalCha

; 975  : 	{
; 976  : 		lpObj->m_Defense += 50;

  019e1	83 87 74 06 00
	00 32		 add	 DWORD PTR [edi+1652], 50 ; 00000032H
  019e8	eb 1b		 jmp	 SHORT $LN426@gObjCalCha
$LN165@gObjCalCha:

; 977  : 	}
; 978  : 	else if ( lpObj->pInventory[8].m_Type == ITEMGET(13,0) )

  019ea	8b 87 c0 11 00
	00		 mov	 eax, DWORD PTR [edi+4544]
  019f0	b9 00 1a 00 00	 mov	 ecx, 6656		; 00001a00H
  019f5	66 39 88 a6 06
	00 00		 cmp	 WORD PTR [eax+1702], cx
  019fc	75 07		 jne	 SHORT $LN426@gObjCalCha
$LN449@gObjCalCha:

; 979  : 	{
; 980  : 		lpObj->AddLife += 50;

  019fe	83 87 24 01 00
	00 32		 add	 DWORD PTR [edi+292], 50	; 00000032H
$LN426@gObjCalCha:
  01a05	8d b7 88 06 00
	00		 lea	 esi, DWORD PTR [edi+1672]
$LN167@gObjCalCha:

; 981  : 	}
; 982  : 
; 983  : 	int addlife = 0;

  01a0b	c7 85 c4 fe ff
	ff 00 00 00 00	 mov	 DWORD PTR _addlife$[ebp], 0

; 984  : 	int addmana = 0;
; 985  : 
; 986  : 	lpObj->pInventory[7].PlusSpecial(&addlife, 100);

  01a15	8d 85 c4 fe ff
	ff		 lea	 eax, DWORD PTR _addlife$[ebp]
  01a1b	c7 85 c0 fe ff
	ff 00 00 00 00	 mov	 DWORD PTR _addmana$[ebp], 0
  01a25	8b 8f c0 11 00
	00		 mov	 ecx, DWORD PTR [edi+4544]
  01a2b	6a 64		 push	 100			; 00000064H
  01a2d	50		 push	 eax
  01a2e	81 c1 cc 05 00
	00		 add	 ecx, 1484		; 000005ccH
  01a34	e8 00 00 00 00	 call	 ?PlusSpecial@CItem@@QAEXPAHH@Z ; CItem::PlusSpecial

; 987  : 	lpObj->pInventory[7].PlusSpecial(&addmana, 101);

  01a39	8b 8f c0 11 00
	00		 mov	 ecx, DWORD PTR [edi+4544]
  01a3f	8d 85 c0 fe ff
	ff		 lea	 eax, DWORD PTR _addmana$[ebp]
  01a45	6a 65		 push	 101			; 00000065H
  01a47	50		 push	 eax
  01a48	81 c1 cc 05 00
	00		 add	 ecx, 1484		; 000005ccH
  01a4e	e8 00 00 00 00	 call	 ?PlusSpecial@CItem@@QAEXPAHH@Z ; CItem::PlusSpecial

; 988  : 	lpObj->pInventory[7].PlusSpecial(&AddLeadership, 105);

  01a53	8b 8f c0 11 00
	00		 mov	 ecx, DWORD PTR [edi+4544]
  01a59	8d 85 cc fe ff
	ff		 lea	 eax, DWORD PTR _AddLeadership$[ebp]
  01a5f	6a 69		 push	 105			; 00000069H
  01a61	50		 push	 eax
  01a62	81 c1 cc 05 00
	00		 add	 ecx, 1484		; 000005ccH
  01a68	e8 00 00 00 00	 call	 ?PlusSpecial@CItem@@QAEXPAHH@Z ; CItem::PlusSpecial

; 989  : 
; 990  : #if (CUSTOM_WINGS == 1)
; 991  : 	lpObj->pInventory[7].PlusSpecial(&addlife, 200);
; 992  : #endif
; 993  : 
; 994  : 	lpObj->AddLeadership += AddLeadership;

  01a6d	66 8b 85 cc fe
	ff ff		 mov	 ax, WORD PTR _AddLeadership$[ebp]
  01a74	66 01 87 f6 00
	00 00		 add	 WORD PTR [edi+246], ax

; 995  : 	lpObj->AddLife += addlife;

  01a7b	8b 85 c4 fe ff
	ff		 mov	 eax, DWORD PTR _addlife$[ebp]
  01a81	01 87 24 01 00
	00		 add	 DWORD PTR [edi+292], eax

; 996  : 	lpObj->AddMana += addmana;

  01a87	8b 85 c0 fe ff
	ff		 mov	 eax, DWORD PTR _addmana$[ebp]

; 997  : 
; 998  : 	if ( lpObj->pInventory[8].m_Type == ITEMGET(13,3) )

  01a8d	8b 8f c0 11 00
	00		 mov	 ecx, DWORD PTR [edi+4544]
  01a93	01 87 28 01 00
	00		 add	 DWORD PTR [edi+296], eax
  01a99	b8 03 1a 00 00	 mov	 eax, 6659		; 00001a03H
  01a9e	66 39 81 a6 06
	00 00		 cmp	 WORD PTR [ecx+1702], ax
  01aa5	75 14		 jne	 SHORT $LN168@gObjCalCha

; 999  : 	{
; 1000 : 		lpObj->pInventory[8].PlusSpecial(&lpObj->AddBP, 103 );

  01aa7	6a 67		 push	 103			; 00000067H
  01aa9	8d 97 0c 01 00
	00		 lea	 edx, DWORD PTR [edi+268]
  01aaf	81 c1 a0 06 00
	00		 add	 ecx, 1696		; 000006a0H
  01ab5	52		 push	 edx
  01ab6	e8 00 00 00 00	 call	 ?PlusSpecial@CItem@@QAEXPAHH@Z ; CItem::PlusSpecial
$LN168@gObjCalCha:

; 1001 : 	}
; 1002 : 
; 1003 : 	if ( lpObj->Type == OBJ_USER )

  01abb	80 7f 50 01	 cmp	 BYTE PTR [edi+80], 1
  01abf	75 20		 jne	 SHORT $LN169@gObjCalCha

; 1004 : 	{
; 1005 : 		gDarkSpirit[lpObj->m_Index].Set(lpObj->m_Index, &lpObj->pInventory[1]);

  01ac1	8b 87 c0 11 00
	00		 mov	 eax, DWORD PTR [edi+4544]
  01ac7	8b 0f		 mov	 ecx, DWORD PTR [edi]
  01ac9	05 d4 00 00 00	 add	 eax, 212		; 000000d4H
  01ace	50		 push	 eax
  01acf	51		 push	 ecx
  01ad0	8d 0c 49	 lea	 ecx, DWORD PTR [ecx+ecx*2]
  01ad3	c1 e1 04	 shl	 ecx, 4
  01ad6	81 c1 00 00 00
	00		 add	 ecx, OFFSET ?gDarkSpirit@@3PAVCDarkSpirit@@A ; gDarkSpirit
  01adc	e8 00 00 00 00	 call	 ?Set@CDarkSpirit@@QAEXHPAVCItem@@@Z ; CDarkSpirit::Set
$LN169@gObjCalCha:

; 1006 : 	}
; 1007 : 
; 1008 : #if (ENABLETEST_MUUN == 1)
; 1009 : 	int nMuunItemEffectValue = 0;
; 1010 : 	if ( g_CMuunSystem.GetMuunItemValueOfOptType(lpObj, 1, &nMuunItemEffectValue, 0)) {
; 1011 : 		lpObj->m_AttackDamageMaxLeft += nMuunItemEffectValue;
; 1012 : 		lpObj->m_AttackDamageMinLeft += nMuunItemEffectValue;
; 1013 : 		lpObj->m_AttackDamageMaxRight += nMuunItemEffectValue;
; 1014 : 		lpObj->m_AttackDamageMinRight += nMuunItemEffectValue;
; 1015 : 		lpObj->m_MagicDamageMin += nMuunItemEffectValue;
; 1016 : 		lpObj->m_MagicDamageMax += nMuunItemEffectValue;
; 1017 : 		lpObj->m_CurseDamageMin += nMuunItemEffectValue;
; 1018 : 		lpObj->m_CurseDamageMax += nMuunItemEffectValue;
; 1019 : 	}
; 1020 : 	if (g_CMuunSystem.GetMuunItemValueOfOptType(lpObj, 7, &nMuunItemEffectValue, 0)) {
; 1021 : 		lpObj->m_AttackDamageMinLeft += nMuunItemEffectValue;
; 1022 : 		lpObj->m_AttackDamageMinRight += nMuunItemEffectValue;
; 1023 : 		lpObj->m_AttackDamageMaxLeft += nMuunItemEffectValue;
; 1024 : 		lpObj->m_AttackDamageMaxRight += nMuunItemEffectValue;
; 1025 : 		lpObj->m_MagicDamageMin += nMuunItemEffectValue;
; 1026 : 		lpObj->m_MagicDamageMax += nMuunItemEffectValue;
; 1027 : 		lpObj->m_CurseDamageMin += nMuunItemEffectValue;
; 1028 : 		lpObj->m_CurseDamageMax += nMuunItemEffectValue;
; 1029 : 	}
; 1030 : #endif
; 1031 : 
; 1032 : 	lpObj->pInventory[9].PlusSpecialPercentEx(&lpObj->AddBP, lpObj->MaxBP, 173);

  01ae1	8b 8f c0 11 00
	00		 mov	 ecx, DWORD PTR [edi+4544]
  01ae7	8d 87 0c 01 00
	00		 lea	 eax, DWORD PTR [edi+268]
  01aed	68 ad 00 00 00	 push	 173			; 000000adH
  01af2	ff b7 08 01 00
	00		 push	 DWORD PTR [edi+264]
  01af8	81 c1 74 07 00
	00		 add	 ecx, 1908		; 00000774H
  01afe	50		 push	 eax
  01aff	e8 00 00 00 00	 call	 ?PlusSpecialPercentEx@CItem@@QAEXPAHHH@Z ; CItem::PlusSpecialPercentEx

; 1033 : 	lpObj->pInventory[10].PlusSpecialPercentEx(&lpObj->AddMana, (int)lpObj->MaxMana, 172);

  01b04	f3 0f 2c 87 f0
	00 00 00	 cvttss2si eax, DWORD PTR [edi+240]
  01b0c	8b 8f c0 11 00
	00		 mov	 ecx, DWORD PTR [edi+4544]
  01b12	68 ac 00 00 00	 push	 172			; 000000acH
  01b17	81 c1 48 08 00
	00		 add	 ecx, 2120		; 00000848H
  01b1d	50		 push	 eax
  01b1e	8d 87 28 01 00
	00		 lea	 eax, DWORD PTR [edi+296]
  01b24	50		 push	 eax
  01b25	e8 00 00 00 00	 call	 ?PlusSpecialPercentEx@CItem@@QAEXPAHHH@Z ; CItem::PlusSpecialPercentEx

; 1034 : 	lpObj->pInventory[11].PlusSpecialPercentEx(&lpObj->AddMana, (int)lpObj->MaxMana, 172);

  01b2a	f3 0f 2c 87 f0
	00 00 00	 cvttss2si eax, DWORD PTR [edi+240]
  01b32	8b 8f c0 11 00
	00		 mov	 ecx, DWORD PTR [edi+4544]
  01b38	68 ac 00 00 00	 push	 172			; 000000acH
  01b3d	81 c1 1c 09 00
	00		 add	 ecx, 2332		; 0000091cH
  01b43	50		 push	 eax
  01b44	8d 87 28 01 00
	00		 lea	 eax, DWORD PTR [edi+296]
  01b4a	50		 push	 eax
  01b4b	e8 00 00 00 00	 call	 ?PlusSpecialPercentEx@CItem@@QAEXPAHHH@Z ; CItem::PlusSpecialPercentEx

; 1035 : 
; 1036 : 	if( lpObj->Class == CLASS_SUMMONER )

  01b50	66 83 bf 90 00
	00 00 05	 cmp	 WORD PTR [edi+144], 5
  01b58	75 17		 jne	 SHORT $LN170@gObjCalCha

; 1037 : 	{
; 1038 : 		lpObj->m_CurseDamageBook = lpObj->pInventory[1].ItemCurseDamage();

  01b5a	8b 8f c0 11 00
	00		 mov	 ecx, DWORD PTR [edi+4544]
  01b60	81 c1 d4 00 00
	00		 add	 ecx, 212		; 000000d4H
  01b66	e8 00 00 00 00	 call	 ?ItemCurseDamage@CItem@@QAEHXZ ; CItem::ItemCurseDamage
  01b6b	89 87 80 06 00
	00		 mov	 DWORD PTR [edi+1664], eax
$LN170@gObjCalCha:

; 1039 : 	}
; 1040 : 
; 1041 : 	CItem * rItem[3];
; 1042 : 	int comparecount = 0;
; 1043 : 	
; 1044 : 	rItem[0] = &lpObj->pInventory[10];

  01b71	8b 97 c0 11 00
	00		 mov	 edx, DWORD PTR [edi+4544]

; 1045 : 	rItem[1] = &lpObj->pInventory[11];
; 1046 : 	rItem[2] = &lpObj->pInventory[9];
; 1047 : 
; 1048 : #define GET_MAX_RESISTANCE(x,y,z) ( ( ( ( (x) > (y) ) ? (x) : (y) ) > (z) ) ? ( ( (x) > (y) ) ? (x) : (y) ) : (z) )	
; 1049 : 
; 1050 : 	lpObj->m_Resistance[1] = GET_MAX_RESISTANCE(rItem[0]->m_Resistance[1], rItem[1]->m_Resistance[1], rItem[2]->m_Resistance[1]);

  01b77	8a 9a 84 09 00
	00		 mov	 bl, BYTE PTR [edx+2436]
  01b7d	8a ba b0 08 00
	00		 mov	 bh, BYTE PTR [edx+2224]
  01b83	3a fb		 cmp	 bh, bl
  01b85	0f b6 c7	 movzx	 eax, bh
  01b88	0f b6 cb	 movzx	 ecx, bl
  01b8b	0f 47 c8	 cmova	 ecx, eax
  01b8e	8a 82 dc 07 00
	00		 mov	 al, BYTE PTR [edx+2012]
  01b94	3a c8		 cmp	 cl, al
  01b96	76 0d		 jbe	 SHORT $LN202@gObjCalCha
  01b98	3a fb		 cmp	 bh, bl
  01b9a	0f b6 cb	 movzx	 ecx, bl
  01b9d	0f b6 c7	 movzx	 eax, bh
  01ba0	0f 47 c8	 cmova	 ecx, eax
  01ba3	eb 02		 jmp	 SHORT $LN440@gObjCalCha
$LN202@gObjCalCha:
  01ba5	8a c8		 mov	 cl, al
$LN440@gObjCalCha:
  01ba7	88 8f 97 08 00
	00		 mov	 BYTE PTR [edi+2199], cl

; 1051 : 	lpObj->m_Resistance[0] = GET_MAX_RESISTANCE(rItem[0]->m_Resistance[0], rItem[1]->m_Resistance[0], rItem[2]->m_Resistance[0]);

  01bad	8a a2 af 08 00
	00		 mov	 ah, BYTE PTR [edx+2223]
  01bb3	8a 82 83 09 00
	00		 mov	 al, BYTE PTR [edx+2435]
  01bb9	88 a5 f2 fe ff
	ff		 mov	 BYTE PTR tv5638[ebp], ah
  01bbf	8a dc		 mov	 bl, ah
  01bc1	88 85 f3 fe ff
	ff		 mov	 BYTE PTR tv5639[ebp], al
  01bc7	3a 9d f3 fe ff
	ff		 cmp	 bl, BYTE PTR tv5639[ebp]
  01bcd	89 8d dc fe ff
	ff		 mov	 DWORD PTR tv5253[ebp], ecx
  01bd3	0f b6 c8	 movzx	 ecx, al
  01bd6	0f b6 c4	 movzx	 eax, ah
  01bd9	0f 47 c8	 cmova	 ecx, eax
  01bdc	8a 82 db 07 00
	00		 mov	 al, BYTE PTR [edx+2011]
  01be2	3a c8		 cmp	 cl, al
  01be4	76 1b		 jbe	 SHORT $LN208@gObjCalCha
  01be6	8a 8d f3 fe ff
	ff		 mov	 cl, BYTE PTR tv5639[ebp]
  01bec	38 8d f2 fe ff
	ff		 cmp	 BYTE PTR tv5638[ebp], cl
  01bf2	0f b6 85 f2 fe
	ff ff		 movzx	 eax, BYTE PTR tv5638[ebp]
  01bf9	0f b6 d9	 movzx	 ebx, cl
  01bfc	0f 47 d8	 cmova	 ebx, eax
  01bff	eb 02		 jmp	 SHORT $LN441@gObjCalCha
$LN208@gObjCalCha:
  01c01	8a d8		 mov	 bl, al
$LN441@gObjCalCha:
  01c03	88 9f 96 08 00
	00		 mov	 BYTE PTR [edi+2198], bl
  01c09	89 9d f8 fe ff
	ff		 mov	 DWORD PTR tv5262[ebp], ebx

; 1052 : 	lpObj->m_Resistance[2] = GET_MAX_RESISTANCE(rItem[0]->m_Resistance[2], rItem[1]->m_Resistance[2], rItem[2]->m_Resistance[2]);

  01c0f	8a 9a 85 09 00
	00		 mov	 bl, BYTE PTR [edx+2437]
  01c15	8a ba b1 08 00
	00		 mov	 bh, BYTE PTR [edx+2225]
  01c1b	3a fb		 cmp	 bh, bl
  01c1d	0f b6 c7	 movzx	 eax, bh
  01c20	0f b6 cb	 movzx	 ecx, bl
  01c23	0f 47 c8	 cmova	 ecx, eax
  01c26	8a 82 dd 07 00
	00		 mov	 al, BYTE PTR [edx+2013]
  01c2c	3a c8		 cmp	 cl, al
  01c2e	76 0d		 jbe	 SHORT $LN214@gObjCalCha
  01c30	3a fb		 cmp	 bh, bl
  01c32	0f b6 cb	 movzx	 ecx, bl
  01c35	0f b6 c7	 movzx	 eax, bh
  01c38	0f 47 c8	 cmova	 ecx, eax
  01c3b	eb 02		 jmp	 SHORT $LN442@gObjCalCha
$LN214@gObjCalCha:
  01c3d	8a c8		 mov	 cl, al
$LN442@gObjCalCha:
  01c3f	88 8f 98 08 00
	00		 mov	 BYTE PTR [edi+2200], cl

; 1053 : 	lpObj->m_Resistance[3] = GET_MAX_RESISTANCE(rItem[0]->m_Resistance[3], rItem[1]->m_Resistance[3], rItem[2]->m_Resistance[3]);

  01c45	8a 9a 86 09 00
	00		 mov	 bl, BYTE PTR [edx+2438]
  01c4b	8a ba b2 08 00
	00		 mov	 bh, BYTE PTR [edx+2226]
  01c51	89 8d e0 fe ff
	ff		 mov	 DWORD PTR tv5271[ebp], ecx
  01c57	3a fb		 cmp	 bh, bl
  01c59	0f b6 c7	 movzx	 eax, bh
  01c5c	0f b6 cb	 movzx	 ecx, bl
  01c5f	0f 47 c8	 cmova	 ecx, eax
  01c62	8a 82 de 07 00
	00		 mov	 al, BYTE PTR [edx+2014]
  01c68	3a c8		 cmp	 cl, al
  01c6a	76 0d		 jbe	 SHORT $LN220@gObjCalCha
  01c6c	3a fb		 cmp	 bh, bl
  01c6e	0f b6 cb	 movzx	 ecx, bl
  01c71	0f b6 c7	 movzx	 eax, bh
  01c74	0f 47 c8	 cmova	 ecx, eax
  01c77	eb 02		 jmp	 SHORT $LN221@gObjCalCha
$LN220@gObjCalCha:
  01c79	8a c8		 mov	 cl, al
$LN221@gObjCalCha:
  01c7b	88 8f 99 08 00
	00		 mov	 BYTE PTR [edi+2201], cl

; 1054 : 	lpObj->m_Resistance[4] = GET_MAX_RESISTANCE(rItem[0]->m_Resistance[4], rItem[1]->m_Resistance[4], rItem[2]->m_Resistance[4]);

  01c81	8a 9a 87 09 00
	00		 mov	 bl, BYTE PTR [edx+2439]
  01c87	8a ba b3 08 00
	00		 mov	 bh, BYTE PTR [edx+2227]
  01c8d	3a fb		 cmp	 bh, bl
  01c8f	0f b6 c7	 movzx	 eax, bh
  01c92	0f b6 cb	 movzx	 ecx, bl
  01c95	0f 47 c8	 cmova	 ecx, eax
  01c98	8a 82 df 07 00
	00		 mov	 al, BYTE PTR [edx+2015]
  01c9e	3a c8		 cmp	 cl, al
  01ca0	76 0d		 jbe	 SHORT $LN226@gObjCalCha
  01ca2	3a fb		 cmp	 bh, bl
  01ca4	0f b6 cb	 movzx	 ecx, bl
  01ca7	0f b6 c7	 movzx	 eax, bh
  01caa	0f 47 c8	 cmova	 ecx, eax
  01cad	eb 02		 jmp	 SHORT $LN227@gObjCalCha
$LN226@gObjCalCha:
  01caf	8a c8		 mov	 cl, al
$LN227@gObjCalCha:
  01cb1	88 8f 9a 08 00
	00		 mov	 BYTE PTR [edi+2202], cl

; 1055 : 	lpObj->m_Resistance[5] = GET_MAX_RESISTANCE(rItem[0]->m_Resistance[5], rItem[1]->m_Resistance[5], rItem[2]->m_Resistance[5]);

  01cb7	8a 9a 88 09 00
	00		 mov	 bl, BYTE PTR [edx+2440]
  01cbd	8a ba b4 08 00
	00		 mov	 bh, BYTE PTR [edx+2228]
  01cc3	3a fb		 cmp	 bh, bl
  01cc5	0f b6 c7	 movzx	 eax, bh
  01cc8	0f b6 cb	 movzx	 ecx, bl
  01ccb	0f 47 c8	 cmova	 ecx, eax
  01cce	8a 82 e0 07 00
	00		 mov	 al, BYTE PTR [edx+2016]
  01cd4	3a c8		 cmp	 cl, al
  01cd6	76 0d		 jbe	 SHORT $LN232@gObjCalCha
  01cd8	3a fb		 cmp	 bh, bl
  01cda	0f b6 cb	 movzx	 ecx, bl
  01cdd	0f b6 c7	 movzx	 eax, bh
  01ce0	0f 47 c8	 cmova	 ecx, eax
  01ce3	eb 02		 jmp	 SHORT $LN233@gObjCalCha
$LN232@gObjCalCha:
  01ce5	8a c8		 mov	 cl, al
$LN233@gObjCalCha:
  01ce7	88 8f 9b 08 00
	00		 mov	 BYTE PTR [edi+2203], cl

; 1056 : 	lpObj->m_Resistance[6] = GET_MAX_RESISTANCE(rItem[0]->m_Resistance[6], rItem[1]->m_Resistance[6], rItem[2]->m_Resistance[6]);

  01ced	8a 9a 89 09 00
	00		 mov	 bl, BYTE PTR [edx+2441]
  01cf3	8a ba b5 08 00
	00		 mov	 bh, BYTE PTR [edx+2229]
  01cf9	3a fb		 cmp	 bh, bl
  01cfb	0f b6 c7	 movzx	 eax, bh
  01cfe	0f b6 cb	 movzx	 ecx, bl
  01d01	0f 47 c8	 cmova	 ecx, eax
  01d04	8a 82 e1 07 00
	00		 mov	 al, BYTE PTR [edx+2017]
  01d0a	3a c8		 cmp	 cl, al
  01d0c	76 0d		 jbe	 SHORT $LN238@gObjCalCha
  01d0e	3a fb		 cmp	 bh, bl
  01d10	0f b6 cb	 movzx	 ecx, bl
  01d13	0f b6 c7	 movzx	 eax, bh
  01d16	0f 47 c8	 cmova	 ecx, eax
  01d19	eb 02		 jmp	 SHORT $LN239@gObjCalCha
$LN238@gObjCalCha:
  01d1b	8a c8		 mov	 cl, al
$LN239@gObjCalCha:

; 1057 : 
; 1058 : 	lpObj->m_Resistance[R_POISON] += lpObj->m_MPSkillOpt.MpsResistancePoison;

  01d1d	8b 85 dc fe ff
	ff		 mov	 eax, DWORD PTR tv5253[ebp]
  01d23	0f be c0	 movsx	 eax, al
  01d26	88 8f 9c 08 00
	00		 mov	 BYTE PTR [edi+2204], cl

; 1059 : 	lpObj->m_Resistance[R_LIGHTNING] += lpObj->m_MPSkillOpt.MpsResistanceThunder;
; 1060 : 	lpObj->m_Resistance[R_ICE] += lpObj->m_MPSkillOpt.MpsResistanceIce;
; 1061 : 
; 1062 : 	g_kItemSystemFor380.ApplyFor380Option(lpObj);

  01d2c	b9 00 00 00 00	 mov	 ecx, OFFSET ?g_kItemSystemFor380@@3VCItemSystemFor380@@A ; g_kItemSystemFor380
  01d31	57		 push	 edi
  01d32	66 0f 6e c0	 movd	 xmm0, eax
  01d36	0f 5b c0	 cvtdq2ps xmm0, xmm0
  01d39	f3 0f 58 87 d8
	06 00 00	 addss	 xmm0, DWORD PTR [edi+1752]
  01d41	f3 0f 2c c0	 cvttss2si eax, xmm0
  01d45	88 87 97 08 00
	00		 mov	 BYTE PTR [edi+2199], al
  01d4b	8b 85 e0 fe ff
	ff		 mov	 eax, DWORD PTR tv5271[ebp]
  01d51	0f be c0	 movsx	 eax, al
  01d54	66 0f 6e c0	 movd	 xmm0, eax
  01d58	0f 5b c0	 cvtdq2ps xmm0, xmm0
  01d5b	f3 0f 58 87 dc
	06 00 00	 addss	 xmm0, DWORD PTR [edi+1756]
  01d63	f3 0f 2c c0	 cvttss2si eax, xmm0
  01d67	88 87 98 08 00
	00		 mov	 BYTE PTR [edi+2200], al
  01d6d	8b 85 f8 fe ff
	ff		 mov	 eax, DWORD PTR tv5262[ebp]
  01d73	0f be c0	 movsx	 eax, al
  01d76	66 0f 6e c0	 movd	 xmm0, eax
  01d7a	0f 5b c0	 cvtdq2ps xmm0, xmm0
  01d7d	f3 0f 58 87 e0
	06 00 00	 addss	 xmm0, DWORD PTR [edi+1760]
  01d85	f3 0f 2c c0	 cvttss2si eax, xmm0
  01d89	88 87 96 08 00
	00		 mov	 BYTE PTR [edi+2198], al
  01d8f	e8 00 00 00 00	 call	 ?ApplyFor380Option@CItemSystemFor380@@QAEHPAUOBJECTSTRUCT@@@Z ; CItemSystemFor380::ApplyFor380Option

; 1063 : 	g_kJewelOfHarmonySystem.SetApplyStrengthenItem(lpObj); 

  01d94	57		 push	 edi
  01d95	b9 00 00 00 00	 mov	 ecx, OFFSET ?g_kJewelOfHarmonySystem@@3VCJewelOfHarmonySystem@@A ; g_kJewelOfHarmonySystem
  01d9a	e8 00 00 00 00	 call	 ?SetApplyStrengthenItem@CJewelOfHarmonySystem@@QAEXPAUOBJECTSTRUCT@@@Z ; CJewelOfHarmonySystem::SetApplyStrengthenItem

; 1064 : 	g_SocketItem.SetApplySocketItem(lpObj);

  01d9f	57		 push	 edi
  01da0	b9 00 00 00 00	 mov	 ecx, OFFSET ?g_SocketItem@@3VCSocketItems@@A ; g_SocketItem
  01da5	e8 00 00 00 00	 call	 ?SetApplySocketItem@CSocketItems@@QAEEPAUOBJECTSTRUCT@@@Z ; CSocketItems::SetApplySocketItem

; 1065 : 	g_ElementalSystem.ApplyElementItem(lpObj);

  01daa	57		 push	 edi
  01dab	b9 00 00 00 00	 mov	 ecx, OFFSET ?g_ElementalSystem@@3VCElementalSystem@@A ; g_ElementalSystem
  01db0	e8 00 00 00 00	 call	 ?ApplyElementItem@CElementalSystem@@QAEXPAUOBJECTSTRUCT@@@Z ; CElementalSystem::ApplyElementItem

; 1066 : 	gObjInventoryEquipment(lpObj);

  01db5	57		 push	 edi
  01db6	e8 00 00 00 00	 call	 ?gObjInventoryEquipment@@YAHPAUOBJECTSTRUCT@@@Z ; gObjInventoryEquipment
  01dbb	66 0f 6e 87 24
	01 00 00	 movd	 xmm0, DWORD PTR [edi+292]

; 1067 : 
; 1068 : 	lpObj->AddLife += lpObj->m_MPSkillOpt.MpsMaxHP;

  01dc3	0f 5b c0	 cvtdq2ps xmm0, xmm0

; 1069 : 	lpObj->AddBP += lpObj->m_MPSkillOpt.MpsMaxBP;
; 1070 : 
; 1071 : 	if( gObjCheckUsedBuffEffect(lpObj,BUFF_SWELL_LIFE3) == TRUE )

  01dc6	68 88 00 00 00	 push	 136			; 00000088H
  01dcb	57		 push	 edi
  01dcc	f3 0f 58 87 e0
	07 00 00	 addss	 xmm0, DWORD PTR [edi+2016]
  01dd4	f3 0f 2c c0	 cvttss2si eax, xmm0
  01dd8	66 0f 6e 87 0c
	01 00 00	 movd	 xmm0, DWORD PTR [edi+268]
  01de0	0f 5b c0	 cvtdq2ps xmm0, xmm0
  01de3	89 87 24 01 00
	00		 mov	 DWORD PTR [edi+292], eax
  01de9	f3 0f 58 87 e4
	07 00 00	 addss	 xmm0, DWORD PTR [edi+2020]
  01df1	f3 0f 2c c0	 cvttss2si eax, xmm0
  01df5	89 87 0c 01 00
	00		 mov	 DWORD PTR [edi+268], eax
  01dfb	e8 00 00 00 00	 call	 ?gObjCheckUsedBuffEffect@@YA_NPAUOBJECTSTRUCT@@H@Z ; gObjCheckUsedBuffEffect
  01e00	8b 9d c8 fe ff
	ff		 mov	 ebx, DWORD PTR _Right$1$[ebp]
  01e06	83 c4 0c	 add	 esp, 12			; 0000000cH
  01e09	3c 01		 cmp	 al, 1
  01e0b	75 1d		 jne	 SHORT $LN171@gObjCalCha

; 1072 : 	{
; 1073 : 		lpObj->AddBP += lpObj->m_MPSkillOpt.MpsSwellLifeAddBP;

  01e0d	66 0f 6e 87 0c
	01 00 00	 movd	 xmm0, DWORD PTR [edi+268]
  01e15	0f 5b c0	 cvtdq2ps xmm0, xmm0
  01e18	f3 0f 58 87 6c
	08 00 00	 addss	 xmm0, DWORD PTR [edi+2156]
  01e20	f3 0f 2c c0	 cvttss2si eax, xmm0
  01e24	89 87 0c 01 00
	00		 mov	 DWORD PTR [edi+268], eax
$LN171@gObjCalCha:

; 1074 : 	}
; 1075 : 
; 1076 : 	lpObj->iAddShield += lpObj->m_MPSkillOpt.MpsMaxSD;
; 1077 : 	lpObj->AddMana += lpObj->m_MPSkillOpt.MpsMaxMP;
; 1078 : 	lpObj->AddMana += lpObj->MaxMana/100*lpObj->m_MPSkillOpt.MpsMaxMPMul;

  01e2a	66 0f 6e 87 34
	01 00 00	 movd	 xmm0, DWORD PTR [edi+308]
  01e32	f3 0f 10 8f f0
	00 00 00	 movss	 xmm1, DWORD PTR [edi+240]
  01e3a	f3 0f 5e 0d 00
	00 00 00	 divss	 xmm1, DWORD PTR __real@42c80000

; 1079 : 
; 1080 : 	if( gObjCheckUsedBuffEffect(lpObj,BUFF_MANASHIELD2) == TRUE )

  01e42	68 8c 00 00 00	 push	 140			; 0000008cH
  01e47	57		 push	 edi
  01e48	0f 5b c0	 cvtdq2ps xmm0, xmm0
  01e4b	f3 0f 58 87 fc
	07 00 00	 addss	 xmm0, DWORD PTR [edi+2044]
  01e53	f3 0f 2c c0	 cvttss2si eax, xmm0
  01e57	66 0f 6e 87 28
	01 00 00	 movd	 xmm0, DWORD PTR [edi+296]
  01e5f	0f 5b c0	 cvtdq2ps xmm0, xmm0
  01e62	89 87 34 01 00
	00		 mov	 DWORD PTR [edi+308], eax
  01e68	f3 0f 58 87 e8
	07 00 00	 addss	 xmm0, DWORD PTR [edi+2024]
  01e70	f3 0f 2c c0	 cvttss2si eax, xmm0
  01e74	89 87 28 01 00
	00		 mov	 DWORD PTR [edi+296], eax
  01e7a	f3 0f 59 8f 1c
	07 00 00	 mulss	 xmm1, DWORD PTR [edi+1820]
  01e82	66 0f 6e c0	 movd	 xmm0, eax
  01e86	0f 5b c0	 cvtdq2ps xmm0, xmm0
  01e89	f3 0f 58 c8	 addss	 xmm1, xmm0
  01e8d	f3 0f 2c c1	 cvttss2si eax, xmm1
  01e91	89 87 28 01 00
	00		 mov	 DWORD PTR [edi+296], eax
  01e97	e8 00 00 00 00	 call	 ?gObjCheckUsedBuffEffect@@YA_NPAUOBJECTSTRUCT@@H@Z ; gObjCheckUsedBuffEffect
  01e9c	83 c4 08	 add	 esp, 8
  01e9f	3c 01		 cmp	 al, 1
  01ea1	75 1d		 jne	 SHORT $LN172@gObjCalCha

; 1081 : 	{
; 1082 : 		lpObj->AddMana += lpObj->m_MPSkillOpt.MpsManaShieldAddMana;

  01ea3	66 0f 6e 87 28
	01 00 00	 movd	 xmm0, DWORD PTR [edi+296]
  01eab	0f 5b c0	 cvtdq2ps xmm0, xmm0
  01eae	f3 0f 58 87 70
	08 00 00	 addss	 xmm0, DWORD PTR [edi+2160]
  01eb6	f3 0f 2c c0	 cvttss2si eax, xmm0
  01eba	89 87 28 01 00
	00		 mov	 DWORD PTR [edi+296], eax
$LN172@gObjCalCha:

; 1083 : 	}
; 1084 : 
; 1085 : 	GObjExtItemApply(lpObj);

  01ec0	57		 push	 edi
  01ec1	e8 00 00 00 00	 call	 ?GObjExtItemApply@@YAXPAUOBJECTSTRUCT@@@Z ; GObjExtItemApply

; 1086 : 	gObjSetItemApply(lpObj);

  01ec6	57		 push	 edi
  01ec7	e8 00 00 00 00	 call	 ?gObjSetItemApply@@YAXPAUOBJECTSTRUCT@@@Z ; gObjSetItemApply

; 1087 : 
; 1088 : #if (CUSTOM_EXOPT == 1)
; 1089 : 	gNewOptions.SetEnchantOptions(lpObj);
; 1090 : #endif
; 1091 : 
; 1092 : 	if( gObjCheckUsedBuffEffect(lpObj,BUFF_BERSERKER4) )

  01ecc	68 98 00 00 00	 push	 152			; 00000098H
  01ed1	57		 push	 edi
  01ed2	e8 00 00 00 00	 call	 ?gObjCheckUsedBuffEffect@@YA_NPAUOBJECTSTRUCT@@H@Z ; gObjCheckUsedBuffEffect
  01ed7	83 c4 10	 add	 esp, 16			; 00000010H
  01eda	84 c0		 test	 al, al
  01edc	74 5f		 je	 SHORT $LN278@gObjCalCha

; 1093 : 	{
; 1094 : 		lpObj->m_CurseDamageMin += lpObj->m_MPSkillOpt.MpsBerserkInc3;

  01ede	66 0f 6e 87 84
	06 00 00	 movd	 xmm0, DWORD PTR [edi+1668]
  01ee6	8d 8f 40 06 00
	00		 lea	 ecx, DWORD PTR [edi+1600]
  01eec	0f 5b c0	 cvtdq2ps xmm0, xmm0
  01eef	ba 04 00 00 00	 mov	 edx, 4
  01ef4	f3 0f 58 87 98
	07 00 00	 addss	 xmm0, DWORD PTR [edi+1944]
  01efc	f3 0f 2c c0	 cvttss2si eax, xmm0
  01f00	66 0f 6e 06	 movd	 xmm0, DWORD PTR [esi]

; 1095 : 		lpObj->m_CurseDamageMax += lpObj->m_MPSkillOpt.MpsBerserkInc3;

  01f04	0f 5b c0	 cvtdq2ps xmm0, xmm0
  01f07	89 87 84 06 00
	00		 mov	 DWORD PTR [edi+1668], eax
  01f0d	f3 0f 58 87 98
	07 00 00	 addss	 xmm0, DWORD PTR [edi+1944]
  01f15	f3 0f 2c c0	 cvttss2si eax, xmm0
  01f19	89 06		 mov	 DWORD PTR [esi], eax
  01f1b	0f 1f 44 00 00	 npad	 5
$LL277@gObjCalCha:

; 1096 : 		lpObj->m_AttackDamageMin += lpObj->m_MPSkillOpt.MpsBerserkInc3;

  01f20	66 0f 6e 01	 movd	 xmm0, DWORD PTR [ecx]
  01f24	0f 5b c0	 cvtdq2ps xmm0, xmm0
  01f27	f3 0f 58 87 98
	07 00 00	 addss	 xmm0, DWORD PTR [edi+1944]
  01f2f	f3 0f 2c c0	 cvttss2si eax, xmm0
  01f33	89 01		 mov	 DWORD PTR [ecx], eax
  01f35	83 c1 04	 add	 ecx, 4
  01f38	83 ea 01	 sub	 edx, 1
  01f3b	75 e3		 jne	 SHORT $LL277@gObjCalCha
$LN278@gObjCalCha:

; 1097 : 		lpObj->m_AttackDamageMax += lpObj->m_MPSkillOpt.MpsBerserkInc3;
; 1098 : 		lpObj->m_MagicDamageMin += lpObj->m_MPSkillOpt.MpsBerserkInc3;
; 1099 : 		lpObj->m_MagicDamageMax += lpObj->m_MPSkillOpt.MpsBerserkInc3;
; 1100 : 	}
; 1101 : 
; 1102 : 	gObjNextExpCal(lpObj);

  01f3d	57		 push	 edi
  01f3e	e8 00 00 00 00	 call	 ?gObjNextExpCal@@YAXPAUOBJECTSTRUCT@@@Z ; gObjNextExpCal

; 1103 : 
; 1104 : 	if ( (Left->m_Type >= ITEMGET(4,0) && Left->m_Type < ITEMGET(4,7) ) ||
; 1105 : 		  Left->m_Type == ITEMGET(4,17) ||
; 1106 : 		  Left->m_Type == ITEMGET(4,20) ||
; 1107 : 		  Left->m_Type == ITEMGET(4,21) ||
; 1108 : 		  Left->m_Type == ITEMGET(4,22) ||
; 1109 : 		  Left->m_Type == ITEMGET(4,23) ||

  01f43	0f b7 83 da 00
	00 00		 movzx	 eax, WORD PTR [ebx+218]
  01f4a	ba 00 08 00 00	 mov	 edx, 2048		; 00000800H
  01f4f	83 c4 04	 add	 esp, 4
  01f52	8d 72 07	 lea	 esi, DWORD PTR [edx+7]
  01f55	66 3b c2	 cmp	 ax, dx
  01f58	7c 09		 jl	 SHORT $LN177@gObjCalCha
  01f5a	66 3b c6	 cmp	 ax, si
  01f5d	0f 8c c4 01 00
	00		 jl	 $LN176@gObjCalCha
$LN177@gObjCalCha:
  01f63	b9 11 08 00 00	 mov	 ecx, 2065		; 00000811H
  01f68	66 3b c1	 cmp	 ax, cx
  01f6b	0f 84 b6 01 00
	00		 je	 $LN176@gObjCalCha
  01f71	b9 14 08 00 00	 mov	 ecx, 2068		; 00000814H
  01f76	66 3b c1	 cmp	 ax, cx
  01f79	0f 84 a8 01 00
	00		 je	 $LN176@gObjCalCha
  01f7f	b9 15 08 00 00	 mov	 ecx, 2069		; 00000815H
  01f84	66 3b c1	 cmp	 ax, cx
  01f87	0f 84 9a 01 00
	00		 je	 $LN176@gObjCalCha
  01f8d	b9 16 08 00 00	 mov	 ecx, 2070		; 00000816H
  01f92	66 3b c1	 cmp	 ax, cx
  01f95	0f 84 8c 01 00
	00		 je	 $LN176@gObjCalCha
  01f9b	b9 17 08 00 00	 mov	 ecx, 2071		; 00000817H
  01fa0	66 3b c1	 cmp	 ax, cx
  01fa3	0f 84 7e 01 00
	00		 je	 $LN176@gObjCalCha
  01fa9	b9 18 08 00 00	 mov	 ecx, 2072		; 00000818H
  01fae	66 3b c1	 cmp	 ax, cx
  01fb1	0f 84 70 01 00
	00		 je	 $LN176@gObjCalCha

; 1126 : 		}
; 1127 : 	}
; 1128 : 	else if ( (Right->m_Type >= ITEMGET(4,8) && Right->m_Type < ITEMGET(4,15) ) ||

  01fb7	0f b7 4b 06	 movzx	 ecx, WORD PTR [ebx+6]
  01fbb	ba 08 08 00 00	 mov	 edx, 2056		; 00000808H
  01fc0	66 3b ca	 cmp	 cx, dx
  01fc3	7c 0a		 jl	 SHORT $LN185@gObjCalCha
  01fc5	ba 0f 08 00 00	 mov	 edx, 2063		; 0000080fH
  01fca	66 3b ca	 cmp	 cx, dx
  01fcd	7c 1c		 jl	 SHORT $LN184@gObjCalCha
$LN185@gObjCalCha:
  01fcf	ba 10 08 00 00	 mov	 edx, 2064		; 00000810H
  01fd4	66 3b ca	 cmp	 cx, dx
  01fd7	0f 8c 79 02 00
	00		 jl	 $LN419@gObjCalCha
  01fdd	ba 00 0a 00 00	 mov	 edx, 2560		; 00000a00H
  01fe2	66 3b ca	 cmp	 cx, dx
  01fe5	0f 8d 6b 02 00
	00		 jge	 $LN419@gObjCalCha
$LN184@gObjCalCha:

; 1129 : 		      (Right->m_Type >= ITEMGET(4,16) && Right->m_Type < ITEMGET(5,0)) )
; 1130 : 	{
; 1131 : 		if ( Left->m_Type == ITEMGET(4,7) && Left->m_Level == 1 )

  01feb	66 3b c6	 cmp	 ax, si
  01fee	0f 85 62 02 00
	00		 jne	 $LN419@gObjCalCha
  01ff4	66 83 bb dc 00
	00 00 01	 cmp	 WORD PTR [ebx+220], 1
  01ffc	75 3f		 jne	 SHORT $LN186@gObjCalCha

; 1132 : 		{
; 1133 : 				lpObj->m_AttackDamageMinRight += (WORD)(lpObj->m_AttackDamageMinRight * 0.03f + 1.0f);

  01ffe	8b 8f 64 06 00
	00		 mov	 ecx, DWORD PTR [edi+1636]

; 1134 : 				lpObj->m_AttackDamageMaxRight += (WORD)(lpObj->m_AttackDamageMaxRight * 0.03f + 1.0f);

  02004	8d b7 60 06 00
	00		 lea	 esi, DWORD PTR [edi+1632]
  0200a	66 0f 6e c1	 movd	 xmm0, ecx
  0200e	0f 5b c0	 cvtdq2ps xmm0, xmm0
  02011	f3 0f 59 05 00
	00 00 00	 mulss	 xmm0, DWORD PTR __real@3cf5c28f
  02019	f3 0f 58 05 00
	00 00 00	 addss	 xmm0, DWORD PTR __real@3f800000
  02021	f3 0f 2c c0	 cvttss2si eax, xmm0
  02025	0f b7 c0	 movzx	 eax, ax
  02028	03 c1		 add	 eax, ecx
  0202a	8b 0e		 mov	 ecx, DWORD PTR [esi]
  0202c	66 0f 6e c1	 movd	 xmm0, ecx
  02030	0f 5b c0	 cvtdq2ps xmm0, xmm0
  02033	f3 0f 59 05 00
	00 00 00	 mulss	 xmm0, DWORD PTR __real@3cf5c28f
  0203b	eb 50		 jmp	 SHORT $LN450@gObjCalCha
$LN186@gObjCalCha:

; 1135 : 		}
; 1136 : 		else if ( Left->m_Type == ITEMGET(4,7) && Left->m_Level == 2 )

  0203d	66 3b c6	 cmp	 ax, si
  02040	0f 85 10 02 00
	00		 jne	 $LN419@gObjCalCha
  02046	66 83 bb dc 00
	00 00 02	 cmp	 WORD PTR [ebx+220], 2
  0204e	75 60		 jne	 SHORT $LN188@gObjCalCha

; 1137 : 		{
; 1138 : 				lpObj->m_AttackDamageMinRight += (WORD)(lpObj->m_AttackDamageMinRight * 0.05f + 1.0f);

  02050	8b 8f 64 06 00
	00		 mov	 ecx, DWORD PTR [edi+1636]

; 1139 : 				lpObj->m_AttackDamageMaxRight += (WORD)(lpObj->m_AttackDamageMaxRight * 0.05f + 1.0f);

  02056	8d b7 60 06 00
	00		 lea	 esi, DWORD PTR [edi+1632]
  0205c	66 0f 6e c1	 movd	 xmm0, ecx
  02060	0f 5b c0	 cvtdq2ps xmm0, xmm0
  02063	f3 0f 59 05 00
	00 00 00	 mulss	 xmm0, DWORD PTR __real@3d4ccccd
  0206b	f3 0f 58 05 00
	00 00 00	 addss	 xmm0, DWORD PTR __real@3f800000
  02073	f3 0f 2c c0	 cvttss2si eax, xmm0
  02077	0f b7 c0	 movzx	 eax, ax
  0207a	03 c1		 add	 eax, ecx
  0207c	8b 0e		 mov	 ecx, DWORD PTR [esi]
  0207e	66 0f 6e c1	 movd	 xmm0, ecx
  02082	0f 5b c0	 cvtdq2ps xmm0, xmm0
  02085	f3 0f 59 05 00
	00 00 00	 mulss	 xmm0, DWORD PTR __real@3d4ccccd
$LN450@gObjCalCha:
  0208d	f3 0f 58 05 00
	00 00 00	 addss	 xmm0, DWORD PTR __real@3f800000
  02095	89 87 64 06 00
	00		 mov	 DWORD PTR [edi+1636], eax
  0209b	ba 00 08 00 00	 mov	 edx, 2048		; 00000800H
  020a0	f3 0f 2c c0	 cvttss2si eax, xmm0
  020a4	0f b7 c0	 movzx	 eax, ax
  020a7	03 c1		 add	 eax, ecx
  020a9	89 06		 mov	 DWORD PTR [esi], eax
  020ab	e9 b1 01 00 00	 jmp	 $LN182@gObjCalCha
$LN188@gObjCalCha:

; 1140 : 		}
; 1141 : 		else if ( Left->m_Type == ITEMGET(4,7) && Left->m_Level == 3 )

  020b0	66 3b c6	 cmp	 ax, si
  020b3	0f 85 9d 01 00
	00		 jne	 $LN419@gObjCalCha
  020b9	66 83 bb dc 00
	00 00 03	 cmp	 WORD PTR [ebx+220], 3

; 1144 : 				lpObj->m_AttackDamageMaxRight += (WORD)(lpObj->m_AttackDamageMaxRight * 0.1f + 1.0f);

  020c1	8d b7 60 06 00
	00		 lea	 esi, DWORD PTR [edi+1632]
  020c7	ba 00 08 00 00	 mov	 edx, 2048		; 00000800H
  020cc	0f 85 8f 01 00
	00		 jne	 $LN182@gObjCalCha

; 1142 : 		{
; 1143 : 				lpObj->m_AttackDamageMinRight += (WORD)(lpObj->m_AttackDamageMinRight * 0.1f + 1.0f);

  020d2	8b 8f 64 06 00
	00		 mov	 ecx, DWORD PTR [edi+1636]
  020d8	66 0f 6e c1	 movd	 xmm0, ecx
  020dc	0f 5b c0	 cvtdq2ps xmm0, xmm0
  020df	f3 0f 59 05 00
	00 00 00	 mulss	 xmm0, DWORD PTR __real@3dcccccd
  020e7	f3 0f 58 05 00
	00 00 00	 addss	 xmm0, DWORD PTR __real@3f800000
  020ef	f3 0f 2c c0	 cvttss2si eax, xmm0
  020f3	0f b7 c0	 movzx	 eax, ax
  020f6	03 c1		 add	 eax, ecx

; 1144 : 				lpObj->m_AttackDamageMaxRight += (WORD)(lpObj->m_AttackDamageMaxRight * 0.1f + 1.0f);

  020f8	8b 0e		 mov	 ecx, DWORD PTR [esi]
  020fa	89 87 64 06 00
	00		 mov	 DWORD PTR [edi+1636], eax
  02100	66 0f 6e c1	 movd	 xmm0, ecx
  02104	0f 5b c0	 cvtdq2ps xmm0, xmm0
  02107	f3 0f 59 05 00
	00 00 00	 mulss	 xmm0, DWORD PTR __real@3dcccccd
  0210f	f3 0f 58 05 00
	00 00 00	 addss	 xmm0, DWORD PTR __real@3f800000
  02117	f3 0f 2c c0	 cvttss2si eax, xmm0
  0211b	0f b7 c0	 movzx	 eax, ax
  0211e	03 c1		 add	 eax, ecx
  02120	89 06		 mov	 DWORD PTR [esi], eax
  02122	e9 3a 01 00 00	 jmp	 $LN182@gObjCalCha
$LN176@gObjCalCha:

; 1110 : 		  Left->m_Type == ITEMGET(4,24) )
; 1111 : 	{
; 1112 : 		if ( Right->m_Type == ITEMGET(4,15) && Right->m_Level == 1 )

  02127	0f b7 43 06	 movzx	 eax, WORD PTR [ebx+6]
  0212b	b9 0f 08 00 00	 mov	 ecx, 2063		; 0000080fH
  02130	66 3b c1	 cmp	 ax, cx
  02133	0f 85 22 01 00
	00		 jne	 $LN421@gObjCalCha
  02139	66 83 7b 08 01	 cmp	 WORD PTR [ebx+8], 1
  0213e	75 5d		 jne	 SHORT $LN178@gObjCalCha

; 1113 : 		{
; 1114 : 			lpObj->m_AttackDamageMinLeft += (WORD)(lpObj->m_AttackDamageMinLeft * 0.03f + 1.0f);

  02140	8b 8f 5c 06 00
	00		 mov	 ecx, DWORD PTR [edi+1628]
  02146	66 0f 6e c1	 movd	 xmm0, ecx
  0214a	0f 5b c0	 cvtdq2ps xmm0, xmm0
  0214d	f3 0f 59 05 00
	00 00 00	 mulss	 xmm0, DWORD PTR __real@3cf5c28f
  02155	f3 0f 58 05 00
	00 00 00	 addss	 xmm0, DWORD PTR __real@3f800000
  0215d	f3 0f 2c c0	 cvttss2si eax, xmm0
  02161	0f b7 c0	 movzx	 eax, ax
  02164	03 c1		 add	 eax, ecx

; 1115 : 			lpObj->m_AttackDamageMaxLeft += (WORD)(lpObj->m_AttackDamageMaxLeft * 0.03f + 1.0f);

  02166	8b 8f 58 06 00
	00		 mov	 ecx, DWORD PTR [edi+1624]
  0216c	66 0f 6e c1	 movd	 xmm0, ecx
  02170	0f 5b c0	 cvtdq2ps xmm0, xmm0
  02173	f3 0f 59 05 00
	00 00 00	 mulss	 xmm0, DWORD PTR __real@3cf5c28f
$LN451@gObjCalCha:
  0217b	f3 0f 58 05 00
	00 00 00	 addss	 xmm0, DWORD PTR __real@3f800000
  02183	89 87 5c 06 00
	00		 mov	 DWORD PTR [edi+1628], eax
  02189	f3 0f 2c c0	 cvttss2si eax, xmm0
  0218d	0f b7 c0	 movzx	 eax, ax
  02190	03 c1		 add	 eax, ecx
  02192	89 87 58 06 00
	00		 mov	 DWORD PTR [edi+1624], eax
  02198	e9 be 00 00 00	 jmp	 $LN421@gObjCalCha
$LN178@gObjCalCha:

; 1116 : 		}
; 1117 : 		else if ( Right->m_Type == ITEMGET(4,15) && Right->m_Level == 2 )

  0219d	66 3b c1	 cmp	 ax, cx
  021a0	0f 85 b5 00 00
	00		 jne	 $LN421@gObjCalCha
  021a6	66 83 7b 08 02	 cmp	 WORD PTR [ebx+8], 2
  021ab	75 3d		 jne	 SHORT $LN180@gObjCalCha

; 1118 : 		{
; 1119 : 			lpObj->m_AttackDamageMinLeft += (WORD)(lpObj->m_AttackDamageMinLeft * 0.05f + 1.0f);

  021ad	8b 8f 5c 06 00
	00		 mov	 ecx, DWORD PTR [edi+1628]
  021b3	66 0f 6e c1	 movd	 xmm0, ecx
  021b7	0f 5b c0	 cvtdq2ps xmm0, xmm0
  021ba	f3 0f 59 05 00
	00 00 00	 mulss	 xmm0, DWORD PTR __real@3d4ccccd
  021c2	f3 0f 58 05 00
	00 00 00	 addss	 xmm0, DWORD PTR __real@3f800000
  021ca	f3 0f 2c c0	 cvttss2si eax, xmm0
  021ce	0f b7 c0	 movzx	 eax, ax
  021d1	03 c1		 add	 eax, ecx

; 1120 : 			lpObj->m_AttackDamageMaxLeft += (WORD)(lpObj->m_AttackDamageMaxLeft * 0.05f + 1.0f);

  021d3	8b 8f 58 06 00
	00		 mov	 ecx, DWORD PTR [edi+1624]
  021d9	66 0f 6e c1	 movd	 xmm0, ecx
  021dd	0f 5b c0	 cvtdq2ps xmm0, xmm0
  021e0	f3 0f 59 05 00
	00 00 00	 mulss	 xmm0, DWORD PTR __real@3d4ccccd
  021e8	eb 91		 jmp	 SHORT $LN451@gObjCalCha
$LN180@gObjCalCha:

; 1121 : 		}
; 1122 : 		else if ( Right->m_Type == ITEMGET(4,15) && Right->m_Level == 3 )

  021ea	66 3b c1	 cmp	 ax, cx
  021ed	75 6c		 jne	 SHORT $LN421@gObjCalCha
  021ef	66 83 7b 08 03	 cmp	 WORD PTR [ebx+8], 3
  021f4	8d b7 60 06 00
	00		 lea	 esi, DWORD PTR [edi+1632]
  021fa	75 65		 jne	 SHORT $LN182@gObjCalCha

; 1123 : 		{
; 1124 : 			lpObj->m_AttackDamageMinLeft += (WORD)(lpObj->m_AttackDamageMinLeft * 0.1f + 1.0f);

  021fc	8b 8f 5c 06 00
	00		 mov	 ecx, DWORD PTR [edi+1628]
  02202	66 0f 6e c1	 movd	 xmm0, ecx
  02206	0f 5b c0	 cvtdq2ps xmm0, xmm0
  02209	f3 0f 59 05 00
	00 00 00	 mulss	 xmm0, DWORD PTR __real@3dcccccd
  02211	f3 0f 58 05 00
	00 00 00	 addss	 xmm0, DWORD PTR __real@3f800000
  02219	f3 0f 2c c0	 cvttss2si eax, xmm0
  0221d	0f b7 c0	 movzx	 eax, ax
  02220	03 c1		 add	 eax, ecx

; 1125 : 			lpObj->m_AttackDamageMaxLeft += (WORD)(lpObj->m_AttackDamageMaxLeft * 0.1f + 1.0f);

  02222	8b 8f 58 06 00
	00		 mov	 ecx, DWORD PTR [edi+1624]
  02228	89 87 5c 06 00
	00		 mov	 DWORD PTR [edi+1628], eax
  0222e	66 0f 6e c1	 movd	 xmm0, ecx
  02232	0f 5b c0	 cvtdq2ps xmm0, xmm0
  02235	f3 0f 59 05 00
	00 00 00	 mulss	 xmm0, DWORD PTR __real@3dcccccd
  0223d	f3 0f 58 05 00
	00 00 00	 addss	 xmm0, DWORD PTR __real@3f800000
  02245	f3 0f 2c c0	 cvttss2si eax, xmm0
  02249	0f b7 c0	 movzx	 eax, ax
  0224c	03 c1		 add	 eax, ecx
  0224e	89 87 58 06 00
	00		 mov	 DWORD PTR [edi+1624], eax
  02254	eb 0b		 jmp	 SHORT $LN182@gObjCalCha
$LN419@gObjCalCha:
  02256	ba 00 08 00 00	 mov	 edx, 2048		; 00000800H
$LN421@gObjCalCha:
  0225b	8d b7 60 06 00
	00		 lea	 esi, DWORD PTR [edi+1632]
$LN182@gObjCalCha:

; 1145 : 		}
; 1146 : 	}
; 1147 : 
; 1148 : 	if ( lpObj->Class == CLASS_KNIGHT || lpObj->Class == CLASS_MAGUMSA || lpObj->Class == CLASS_DARKLORD || lpObj->Class == CLASS_FIGHTER  )

  02261	0f b7 87 90 00
	00 00		 movzx	 eax, WORD PTR [edi+144]
  02268	83 f8 01	 cmp	 eax, 1
  0226b	74 13		 je	 SHORT $LN192@gObjCalCha
  0226d	83 f8 03	 cmp	 eax, 3
  02270	74 0e		 je	 SHORT $LN192@gObjCalCha
  02272	83 f8 04	 cmp	 eax, 4
  02275	74 09		 je	 SHORT $LN192@gObjCalCha
  02277	83 f8 06	 cmp	 eax, 6
  0227a	0f 85 b3 00 00
	00		 jne	 $LN194@gObjCalCha
$LN192@gObjCalCha:

; 1149 : 	{
; 1150 : 		if ( Right->m_Type != -1 && Left->m_Type != -1 )

  02280	0f b7 43 06	 movzx	 eax, WORD PTR [ebx+6]
  02284	66 83 f8 ff	 cmp	 ax, -1
  02288	0f 84 a5 00 00
	00		 je	 $LN194@gObjCalCha
  0228e	0f b7 8b da 00
	00 00		 movzx	 ecx, WORD PTR [ebx+218]
  02295	66 83 f9 ff	 cmp	 cx, -1
  02299	0f 84 94 00 00
	00		 je	 $LN194@gObjCalCha

; 1151 : 		{
; 1152 : 			if ( Right->m_Type >= ITEMGET(0,0) && Right->m_Type < ITEMGET(4,0) && Left->m_Type >= ITEMGET(0,0) && Left->m_Type < ITEMGET(4,0) )

  0229f	66 85 c0	 test	 ax, ax
  022a2	0f 88 8b 00 00
	00		 js	 $LN194@gObjCalCha
  022a8	66 3b c2	 cmp	 ax, dx
  022ab	0f 8d 82 00 00
	00		 jge	 $LN194@gObjCalCha
  022b1	66 85 c9	 test	 cx, cx
  022b4	0f 88 79 00 00
	00		 js	 $LN194@gObjCalCha
  022ba	66 3b ca	 cmp	 cx, dx
  022bd	0f 8d 70 00 00
	00		 jge	 $LN194@gObjCalCha

; 1153 : 			{
; 1154 : 				lpObj->m_AttackDamageMinRight = lpObj->m_AttackDamageMinRight * 55 / 100;

  022c3	6b 8f 64 06 00
	00 37		 imul	 ecx, DWORD PTR [edi+1636], 55
  022ca	b8 1f 85 eb 51	 mov	 eax, 1374389535		; 51eb851fH
  022cf	f7 e9		 imul	 ecx

; 1155 : 				lpObj->m_AttackDamageMaxRight = lpObj->m_AttackDamageMaxRight * 55 / 100;

  022d1	6b 0e 37	 imul	 ecx, DWORD PTR [esi], 55
  022d4	c1 fa 05	 sar	 edx, 5
  022d7	8b c2		 mov	 eax, edx
  022d9	c1 e8 1f	 shr	 eax, 31			; 0000001fH
  022dc	03 c2		 add	 eax, edx
  022de	89 87 64 06 00
	00		 mov	 DWORD PTR [edi+1636], eax
  022e4	b8 1f 85 eb 51	 mov	 eax, 1374389535		; 51eb851fH
  022e9	f7 e9		 imul	 ecx

; 1156 : 				lpObj->m_AttackDamageMinLeft = lpObj->m_AttackDamageMinLeft * 55 / 100;

  022eb	6b 8f 5c 06 00
	00 37		 imul	 ecx, DWORD PTR [edi+1628], 55
  022f2	c1 fa 05	 sar	 edx, 5
  022f5	8b c2		 mov	 eax, edx
  022f7	c1 e8 1f	 shr	 eax, 31			; 0000001fH
  022fa	03 c2		 add	 eax, edx
  022fc	89 06		 mov	 DWORD PTR [esi], eax
  022fe	b8 1f 85 eb 51	 mov	 eax, 1374389535		; 51eb851fH
  02303	f7 e9		 imul	 ecx

; 1157 : 				lpObj->m_AttackDamageMaxLeft = lpObj->m_AttackDamageMaxLeft * 55 / 100;

  02305	b8 1f 85 eb 51	 mov	 eax, 1374389535		; 51eb851fH
  0230a	c1 fa 05	 sar	 edx, 5
  0230d	8b ca		 mov	 ecx, edx
  0230f	c1 e9 1f	 shr	 ecx, 31			; 0000001fH
  02312	03 ca		 add	 ecx, edx
  02314	89 8f 5c 06 00
	00		 mov	 DWORD PTR [edi+1628], ecx
  0231a	6b 8f 58 06 00
	00 37		 imul	 ecx, DWORD PTR [edi+1624], 55
  02321	f7 e9		 imul	 ecx
  02323	c1 fa 05	 sar	 edx, 5
  02326	8b c2		 mov	 eax, edx
  02328	c1 e8 1f	 shr	 eax, 31			; 0000001fH
  0232b	03 c2		 add	 eax, edx
  0232d	89 87 58 06 00
	00		 mov	 DWORD PTR [edi+1624], eax
$LN194@gObjCalCha:

; 1158 : 			}
; 1159 : 		}
; 1160 : 	}
; 1161 : 
; 1162 : #if (CUSTOM_OLYMP==1)
; 1163 : 	if( gObjCheckUsedBuffEffect(lpObj,BUFF_GLADIATOR_HONOR) )
; 1164 : 	{
; 1165 : 		lpObj->SetOpDoubleDamage += 10;
; 1166 : 		lpObj->SetOpTripleDamage += 5;
; 1167 : 	}
; 1168 : #endif
; 1169 : 
; 1170 : 	g_ItemAddOption.SetPeriodItemEffect2(lpObj);

  02333	57		 push	 edi
  02334	b9 00 00 00 00	 mov	 ecx, OFFSET ?g_ItemAddOption@@3VCItemAddOption@@A ; g_ItemAddOption
  02339	e8 00 00 00 00	 call	 ?SetPeriodItemEffect2@CItemAddOption@@QAEEPAUOBJECTSTRUCT@@@Z ; CItemAddOption::SetPeriodItemEffect2

; 1171 : 	g_BuffEffect.SetNextEffect(lpObj);

  0233e	57		 push	 edi
  0233f	b9 00 00 00 00	 mov	 ecx, OFFSET ?g_BuffEffect@@3VCBuffEffect@@A ; g_BuffEffect
  02344	e8 00 00 00 00	 call	 ?SetNextEffect@CBuffEffect@@QAEXPAUOBJECTSTRUCT@@@Z ; CBuffEffect::SetNextEffect

; 1172 : 
; 1173 : 	if ( lpObj->m_iItemEffectValidTime > 0 )

  02349	83 bf 64 24 00
	00 00		 cmp	 DWORD PTR [edi+9316], 0
  02350	5e		 pop	 esi
  02351	5b		 pop	 ebx
  02352	7e 0b		 jle	 SHORT $LN195@gObjCalCha

; 1174 : 	{
; 1175 : 		g_ItemAddOption.NextSetItemLastEffectForHallowin(lpObj);

  02354	57		 push	 edi
  02355	b9 00 00 00 00	 mov	 ecx, OFFSET ?g_ItemAddOption@@3VCItemAddOption@@A ; g_ItemAddOption
  0235a	e8 00 00 00 00	 call	 ?NextSetItemLastEffectForHallowin@CItemAddOption@@QAE_NPAUOBJECTSTRUCT@@@Z ; CItemAddOption::NextSetItemLastEffectForHallowin
$LN195@gObjCalCha:

; 1176 : 	}
; 1177 : 
; 1178 : 	gObjCalcShieldPoint(lpObj);

  0235f	57		 push	 edi
  02360	e8 00 00 00 00	 call	 ?gObjCalcShieldPoint@@YAXPAUOBJECTSTRUCT@@@Z ; gObjCalcShieldPoint

; 1179 : 	gObjCalcMLSkillItemOption(lpObj);

  02365	57		 push	 edi
  02366	e8 00 00 00 00	 call	 ?gObjCalcMLSkillItemOption@@YAXPAUOBJECTSTRUCT@@@Z ; gObjCalcMLSkillItemOption

; 1180 : 
; 1181 : 	if( lpObj->iShield > (lpObj->iMaxShield+lpObj->iAddShield) )

  0236b	8b 87 30 01 00
	00		 mov	 eax, DWORD PTR [edi+304]
  02371	83 c4 08	 add	 esp, 8
  02374	03 87 34 01 00
	00		 add	 eax, DWORD PTR [edi+308]
  0237a	39 87 2c 01 00
	00		 cmp	 DWORD PTR [edi+300], eax
  02380	7e 06		 jle	 SHORT $LN196@gObjCalCha

; 1182 : 	{
; 1183 : 		lpObj->iShield = lpObj->iMaxShield + lpObj->iAddShield;

  02382	89 87 2c 01 00
	00		 mov	 DWORD PTR [edi+300], eax
$LN196@gObjCalCha:

; 1184 : 	}
; 1185 : 
; 1186 : #if(__NOVUS__ == 1)
; 1187 : 	g_StatGem.SimpleEffectAdd(lpObj);
; 1188 : #endif
; 1189 : 
; 1190 : #if( __4GAMERS__ == 1 )
; 1191 : 	g_ExtraClassBalance.Apply(lpObj);
; 1192 : #endif
; 1193 : 
; 1194 : 	GCReFillSend(lpObj->m_Index, (WORD)lpObj->Life, 0xFF, 0, lpObj->iShield);

  02388	0f b7 87 2c 01
	00 00		 movzx	 eax, WORD PTR [edi+300]
  0238f	50		 push	 eax
  02390	f3 0f 2c 87 d8
	00 00 00	 cvttss2si eax, DWORD PTR [edi+216]
  02398	6a 00		 push	 0
  0239a	68 ff 00 00 00	 push	 255			; 000000ffH
  0239f	0f b7 c0	 movzx	 eax, ax
  023a2	50		 push	 eax
  023a3	ff 37		 push	 DWORD PTR [edi]
  023a5	e8 00 00 00 00	 call	 ?GCReFillSend@@YAXHGEEG@Z ; GCReFillSend
  023aa	66 0f 6e 87 24
	01 00 00	 movd	 xmm0, DWORD PTR [edi+292]

; 1195 : 	GCReFillSend(lpObj->m_Index, (WORD)(lpObj->MaxLife + lpObj->AddLife), 0xFE, 0, lpObj->iMaxShield + lpObj->iAddShield);

  023b2	0f b7 87 34 01
	00 00		 movzx	 eax, WORD PTR [edi+308]
  023b9	66 03 87 30 01
	00 00		 add	 ax, WORD PTR [edi+304]
  023c0	0f 5b c0	 cvtdq2ps xmm0, xmm0
  023c3	0f b7 c0	 movzx	 eax, ax
  023c6	50		 push	 eax
  023c7	6a 00		 push	 0
  023c9	68 fe 00 00 00	 push	 254			; 000000feH
  023ce	f3 0f 58 87 dc
	00 00 00	 addss	 xmm0, DWORD PTR [edi+220]
  023d6	f3 0f 2c c0	 cvttss2si eax, xmm0
  023da	0f b7 c0	 movzx	 eax, ax
  023dd	50		 push	 eax
  023de	ff 37		 push	 DWORD PTR [edi]
  023e0	e8 00 00 00 00	 call	 ?GCReFillSend@@YAXHGEEG@Z ; GCReFillSend
  023e5	66 0f 6e 87 28
	01 00 00	 movd	 xmm0, DWORD PTR [edi+296]

; 1196 : 	GCManaSend(lpObj->m_Index, (WORD)(lpObj->MaxMana + lpObj->AddMana), 0xFE, 0, lpObj->MaxBP + lpObj->AddBP);

  023ed	0f b7 87 08 01
	00 00		 movzx	 eax, WORD PTR [edi+264]
  023f4	66 03 87 0c 01
	00 00		 add	 ax, WORD PTR [edi+268]
  023fb	0f 5b c0	 cvtdq2ps xmm0, xmm0
  023fe	0f b7 c0	 movzx	 eax, ax
  02401	50		 push	 eax
  02402	6a 00		 push	 0
  02404	68 fe 00 00 00	 push	 254			; 000000feH
  02409	f3 0f 58 87 f0
	00 00 00	 addss	 xmm0, DWORD PTR [edi+240]
  02411	f3 0f 2c c0	 cvttss2si eax, xmm0
  02415	0f b7 c0	 movzx	 eax, ax
  02418	50		 push	 eax
  02419	ff 37		 push	 DWORD PTR [edi]
  0241b	e8 00 00 00 00	 call	 ?GCManaSend@@YAXHFEEG@Z	; GCManaSend

; 1197 : 	GCAttackSpeedSend(lpObj->m_Index);

  02420	ff 37		 push	 DWORD PTR [edi]
  02422	e8 00 00 00 00	 call	 ?GCAttackSpeedSend@@YAXH@Z ; GCAttackSpeedSend

; 1198 : }

  02427	8b 4d fc	 mov	 ecx, DWORD PTR __$ArrayPad$[ebp]
  0242a	83 c4 40	 add	 esp, 64			; 00000040H
  0242d	33 cd		 xor	 ecx, ebp
  0242f	5f		 pop	 edi
  02430	e8 00 00 00 00	 call	 @__security_check_cookie@4
  02435	8b e5		 mov	 esp, ebp
  02437	5d		 pop	 ebp
  02438	c3		 ret	 0
?gObjCalCharacter@@YAXH@Z ENDP				; gObjCalCharacter
_TEXT	ENDS
; Function compile flags: /Ogtp
;	COMDAT ??_EOBJECTSTRUCT@@QAEPAXI@Z
_TEXT	SEGMENT
__$EHRec$ = -12						; size = 12
___flags$ = 8						; size = 4
??_EOBJECTSTRUCT@@QAEPAXI@Z PROC			; OBJECTSTRUCT::`vector deleting destructor', COMDAT
; _this$ = ecx
  00000	55		 push	 ebp
  00001	8b ec		 mov	 ebp, esp
  00003	6a ff		 push	 -1
  00005	68 00 00 00 00	 push	 __ehhandler$??_EOBJECTSTRUCT@@QAEPAXI@Z
  0000a	64 a1 00 00 00
	00		 mov	 eax, DWORD PTR fs:0
  00010	50		 push	 eax
  00011	53		 push	 ebx
  00012	56		 push	 esi
  00013	57		 push	 edi
  00014	a1 00 00 00 00	 mov	 eax, DWORD PTR ___security_cookie
  00019	33 c5		 xor	 eax, ebp
  0001b	50		 push	 eax
  0001c	8d 45 f4	 lea	 eax, DWORD PTR __$EHRec$[ebp]
  0001f	64 a3 00 00 00
	00		 mov	 DWORD PTR fs:0, eax
  00025	8b f1		 mov	 esi, ecx
  00027	8b 5d 08	 mov	 ebx, DWORD PTR ___flags$[ebp]
  0002a	f6 c3 02	 test	 bl, 2
  0002d	74 44		 je	 SHORT $LN2@vector
  0002f	68 00 00 00 00	 push	 OFFSET ??1OBJECTSTRUCT@@QAE@XZ
  00034	ff 76 fc	 push	 DWORD PTR [esi-4]
  00037	8d 7e fc	 lea	 edi, DWORD PTR [esi-4]
  0003a	68 40 27 00 00	 push	 10048			; 00002740H
  0003f	56		 push	 esi
  00040	e8 00 00 00 00	 call	 ??_M@YGXPAXIIP6EX0@Z@Z
  00045	f6 c3 01	 test	 bl, 1
  00048	74 13		 je	 SHORT $LN3@vector
  0004a	69 0f 40 27 00
	00		 imul	 ecx, DWORD PTR [edi], 10048
  00050	83 c1 04	 add	 ecx, 4
  00053	51		 push	 ecx
  00054	57		 push	 edi
  00055	e8 00 00 00 00	 call	 ??_V@YAXPAXI@Z		; operator delete[]
  0005a	83 c4 08	 add	 esp, 8
$LN3@vector:
  0005d	8b c7		 mov	 eax, edi
  0005f	8b 4d f4	 mov	 ecx, DWORD PTR __$EHRec$[ebp]
  00062	64 89 0d 00 00
	00 00		 mov	 DWORD PTR fs:0, ecx
  00069	59		 pop	 ecx
  0006a	5f		 pop	 edi
  0006b	5e		 pop	 esi
  0006c	5b		 pop	 ebx
  0006d	8b e5		 mov	 esp, ebp
  0006f	5d		 pop	 ebp
  00070	c2 04 00	 ret	 4
$LN2@vector:
  00073	8d 8e ec 20 00
	00		 lea	 ecx, DWORD PTR [esi+8428]
  00079	e8 00 00 00 00	 call	 ??1TMonsterAIAgro@@UAE@XZ ; TMonsterAIAgro::~TMonsterAIAgro
  0007e	8d 8e 0c 16 00
	00		 lea	 ecx, DWORD PTR [esi+5644]
  00084	e8 00 00 00 00	 call	 ??1CSkillDelay@@UAE@XZ	; CSkillDelay::~CSkillDelay
  00089	f6 c3 01	 test	 bl, 1
  0008c	74 0e		 je	 SHORT $LN4@vector
  0008e	68 40 27 00 00	 push	 10048			; 00002740H
  00093	56		 push	 esi
  00094	e8 00 00 00 00	 call	 ??3@YAXPAXI@Z		; operator delete
  00099	83 c4 08	 add	 esp, 8
$LN4@vector:
  0009c	8b c6		 mov	 eax, esi
  0009e	8b 4d f4	 mov	 ecx, DWORD PTR __$EHRec$[ebp]
  000a1	64 89 0d 00 00
	00 00		 mov	 DWORD PTR fs:0, ecx
  000a8	59		 pop	 ecx
  000a9	5f		 pop	 edi
  000aa	5e		 pop	 esi
  000ab	5b		 pop	 ebx
  000ac	8b e5		 mov	 esp, ebp
  000ae	5d		 pop	 ebp
  000af	c2 04 00	 ret	 4
_TEXT	ENDS
;	COMDAT text$x
text$x	SEGMENT
__ehhandler$??_EOBJECTSTRUCT@@QAEPAXI@Z:
  00000	8b 54 24 08	 mov	 edx, DWORD PTR [esp+8]
  00004	8d 42 0c	 lea	 eax, DWORD PTR [edx+12]
  00007	8b 4a f0	 mov	 ecx, DWORD PTR [edx-16]
  0000a	33 c8		 xor	 ecx, eax
  0000c	e8 00 00 00 00	 call	 @__security_check_cookie@4
  00011	b8 00 00 00 00	 mov	 eax, OFFSET __ehfuncinfo$??_EOBJECTSTRUCT@@QAEPAXI@Z
  00016	e9 00 00 00 00	 jmp	 ___CxxFrameHandler3
text$x	ENDS
??_EOBJECTSTRUCT@@QAEPAXI@Z ENDP			; OBJECTSTRUCT::`vector deleting destructor'
; Function compile flags: /Ogtp
;	COMDAT ??1OBJECTSTRUCT@@QAE@XZ
_TEXT	SEGMENT
??1OBJECTSTRUCT@@QAE@XZ PROC				; OBJECTSTRUCT::~OBJECTSTRUCT, COMDAT
; _this$ = ecx
  00000	56		 push	 esi
  00001	8b f1		 mov	 esi, ecx
  00003	8d 8e ec 20 00
	00		 lea	 ecx, DWORD PTR [esi+8428]
  00009	e8 00 00 00 00	 call	 ??1TMonsterAIAgro@@UAE@XZ ; TMonsterAIAgro::~TMonsterAIAgro
  0000e	8d 8e 0c 16 00
	00		 lea	 ecx, DWORD PTR [esi+5644]
  00014	5e		 pop	 esi
  00015	e9 00 00 00 00	 jmp	 ??1CSkillDelay@@UAE@XZ	; CSkillDelay::~CSkillDelay
??1OBJECTSTRUCT@@QAE@XZ ENDP				; OBJECTSTRUCT::~OBJECTSTRUCT
_TEXT	ENDS
; Function compile flags: /Ogtp
; File c:\program files (x86)\windows kits\10\include\10.0.10240.0\ucrt\stdio.h
;	COMDAT _sprintf
_TEXT	SEGMENT
__Buffer$ = 8						; size = 4
__Format$ = 12						; size = 4
_sprintf PROC						; COMDAT

; 1776 : {

  00000	55		 push	 ebp
  00001	8b ec		 mov	 ebp, esp

; 1386 :     int const _Result = __stdio_common_vsprintf(

  00003	8d 45 10	 lea	 eax, DWORD PTR __Format$[ebp+4]
  00006	50		 push	 eax
  00007	6a 00		 push	 0
  00009	ff 75 0c	 push	 DWORD PTR __Format$[ebp]
  0000c	6a ff		 push	 -1
  0000e	ff 75 08	 push	 DWORD PTR __Buffer$[ebp]
  00011	e8 00 00 00 00	 call	 ___local_stdio_printf_options
  00016	8b 08		 mov	 ecx, DWORD PTR [eax]
  00018	ff 70 04	 push	 DWORD PTR [eax+4]
  0001b	83 c9 01	 or	 ecx, 1
  0001e	51		 push	 ecx
  0001f	e8 00 00 00 00	 call	 ___stdio_common_vsprintf

; 1387 :         _CRT_INTERNAL_LOCAL_PRINTF_OPTIONS | _CRT_INTERNAL_PRINTF_LEGACY_VSPRINTF_NULL_TERMINATION,
; 1388 :         _Buffer, _BufferCount, _Format, _Locale, _ArgList);
; 1389 : 
; 1390 :     return _Result < 0 ? -1 : _Result;

  00024	83 c9 ff	 or	 ecx, -1
  00027	83 c4 1c	 add	 esp, 28			; 0000001cH
  0002a	85 c0		 test	 eax, eax
  0002c	0f 48 c1	 cmovs	 eax, ecx

; 1777 :     int _Result;
; 1778 :     va_list _ArgList;
; 1779 :     __crt_va_start(_ArgList, _Format);
; 1780 : 
; 1781 :     #pragma warning(push)
; 1782 :     #pragma warning(disable: 4996) // Deprecation
; 1783 :     _Result = _vsprintf_l(_Buffer, _Format, NULL, _ArgList);
; 1784 :     #pragma warning(pop)
; 1785 : 
; 1786 :     __crt_va_end(_ArgList);
; 1787 :     return _Result;
; 1788 : }

  0002f	5d		 pop	 ebp
  00030	c3		 ret	 0
_sprintf ENDP
_TEXT	ENDS
; Function compile flags: /Ogtp
; File c:\program files (x86)\windows kits\10\include\10.0.10240.0\ucrt\stdio.h
;	COMDAT __vsprintf_l
_TEXT	SEGMENT
__Buffer$ = 8						; size = 4
__Format$ = 12						; size = 4
__Locale$ = 16						; size = 4
__ArgList$ = 20						; size = 4
__vsprintf_l PROC					; COMDAT

; 1455 : {

  00000	55		 push	 ebp
  00001	8b ec		 mov	 ebp, esp

; 1386 :     int const _Result = __stdio_common_vsprintf(

  00003	ff 75 14	 push	 DWORD PTR __ArgList$[ebp]
  00006	ff 75 10	 push	 DWORD PTR __Locale$[ebp]
  00009	ff 75 0c	 push	 DWORD PTR __Format$[ebp]
  0000c	6a ff		 push	 -1
  0000e	ff 75 08	 push	 DWORD PTR __Buffer$[ebp]
  00011	e8 00 00 00 00	 call	 ___local_stdio_printf_options
  00016	8b 08		 mov	 ecx, DWORD PTR [eax]
  00018	ff 70 04	 push	 DWORD PTR [eax+4]
  0001b	83 c9 01	 or	 ecx, 1
  0001e	51		 push	 ecx
  0001f	e8 00 00 00 00	 call	 ___stdio_common_vsprintf

; 1387 :         _CRT_INTERNAL_LOCAL_PRINTF_OPTIONS | _CRT_INTERNAL_PRINTF_LEGACY_VSPRINTF_NULL_TERMINATION,
; 1388 :         _Buffer, _BufferCount, _Format, _Locale, _ArgList);
; 1389 : 
; 1390 :     return _Result < 0 ? -1 : _Result;

  00024	83 c9 ff	 or	 ecx, -1
  00027	83 c4 1c	 add	 esp, 28			; 0000001cH
  0002a	85 c0		 test	 eax, eax
  0002c	0f 48 c1	 cmovs	 eax, ecx

; 1456 :     #pragma warning(push)
; 1457 :     #pragma warning(disable: 4996) // Deprecation
; 1458 :     return _vsnprintf_l(_Buffer, (size_t)-1, _Format, _Locale, _ArgList);
; 1459 :     #pragma warning(pop)
; 1460 : }

  0002f	5d		 pop	 ebp
  00030	c3		 ret	 0
__vsprintf_l ENDP
_TEXT	ENDS
; Function compile flags: /Ogtp
; File c:\program files (x86)\windows kits\10\include\10.0.10240.0\ucrt\stdio.h
;	COMDAT __vsnprintf_l
_TEXT	SEGMENT
__Buffer$ = 8						; size = 4
__BufferCount$ = 12					; size = 4
__Format$ = 16						; size = 4
__Locale$ = 20						; size = 4
__ArgList$ = 24						; size = 4
__vsnprintf_l PROC					; COMDAT

; 1385 : {

  00000	55		 push	 ebp
  00001	8b ec		 mov	 ebp, esp

; 1386 :     int const _Result = __stdio_common_vsprintf(

  00003	ff 75 18	 push	 DWORD PTR __ArgList$[ebp]
  00006	ff 75 14	 push	 DWORD PTR __Locale$[ebp]
  00009	ff 75 10	 push	 DWORD PTR __Format$[ebp]
  0000c	ff 75 0c	 push	 DWORD PTR __BufferCount$[ebp]
  0000f	ff 75 08	 push	 DWORD PTR __Buffer$[ebp]
  00012	e8 00 00 00 00	 call	 ___local_stdio_printf_options
  00017	8b 08		 mov	 ecx, DWORD PTR [eax]
  00019	ff 70 04	 push	 DWORD PTR [eax+4]
  0001c	83 c9 01	 or	 ecx, 1
  0001f	51		 push	 ecx
  00020	e8 00 00 00 00	 call	 ___stdio_common_vsprintf

; 1387 :         _CRT_INTERNAL_LOCAL_PRINTF_OPTIONS | _CRT_INTERNAL_PRINTF_LEGACY_VSPRINTF_NULL_TERMINATION,
; 1388 :         _Buffer, _BufferCount, _Format, _Locale, _ArgList);
; 1389 : 
; 1390 :     return _Result < 0 ? -1 : _Result;

  00025	83 c9 ff	 or	 ecx, -1
  00028	83 c4 1c	 add	 esp, 28			; 0000001cH
  0002b	85 c0		 test	 eax, eax
  0002d	0f 48 c1	 cmovs	 eax, ecx

; 1391 : }

  00030	5d		 pop	 ebp
  00031	c3		 ret	 0
__vsnprintf_l ENDP
_TEXT	ENDS
; Function compile flags: /Ogtp
; File c:\program files (x86)\microsoft visual studio 14.0\vc\include\vadefs.h
;	COMDAT ??$__vcrt_va_start_verify_argument_type@QBD@@YAXXZ
_TEXT	SEGMENT
??$__vcrt_va_start_verify_argument_type@QBD@@YAXXZ PROC	; __vcrt_va_start_verify_argument_type<char const * const>, COMDAT

; 145  :             static_assert(!__vcrt_va_list_is_reference<_Ty>::__the_value, "va_start argument must not have reference type and must not be parenthesized");
; 146  :         }

  00000	c3		 ret	 0
??$__vcrt_va_start_verify_argument_type@QBD@@YAXXZ ENDP	; __vcrt_va_start_verify_argument_type<char const * const>
_TEXT	ENDS
; Function compile flags: /Ogtp
; File c:\program files (x86)\windows kits\10\include\10.0.10240.0\ucrt\corecrt_stdio_config.h
;	COMDAT ___local_stdio_printf_options
_TEXT	SEGMENT
___local_stdio_printf_options PROC			; COMDAT

; 74   :     static unsigned __int64 _OptionsStorage;
; 75   :     return &_OptionsStorage;

  00000	b8 00 00 00 00	 mov	 eax, OFFSET ?_OptionsStorage@?1??__local_stdio_printf_options@@9@4_KA ; `__local_stdio_printf_options'::`2'::_OptionsStorage

; 76   : }

  00005	c3		 ret	 0
___local_stdio_printf_options ENDP
_TEXT	ENDS
; Function compile flags: /Ogtp
; File c:\users\michel\desktop\source\gameserver\source\objcalcharacter.cpp
;	COMDAT ?__empty_global_delete@@YAXPAXI@Z
_TEXT	SEGMENT
___formal$ = 8						; size = 4
___formal$ = 12						; size = 4
?__empty_global_delete@@YAXPAXI@Z PROC			; __empty_global_delete, COMDAT

  00000	c3		 ret	 0
?__empty_global_delete@@YAXPAXI@Z ENDP			; __empty_global_delete
_TEXT	ENDS
; Function compile flags: /Ogtp
; File c:\users\michel\desktop\source\gameserver\source\objcalcharacter.cpp
;	COMDAT ?__empty_global_delete@@YAXPAX@Z
_TEXT	SEGMENT
___formal$ = 8						; size = 4
?__empty_global_delete@@YAXPAX@Z PROC			; __empty_global_delete, COMDAT

; 2233 : }

  00000	c3		 ret	 0
?__empty_global_delete@@YAXPAX@Z ENDP			; __empty_global_delete
_TEXT	ENDS
END
