; Listing generated by Microsoft (R) Optimizing Compiler Version 19.00.23506.0 

	TITLE	C:\Users\Michel\Desktop\Source\GameServer\Source\ObjUseSkill.cpp
	.686P
	.XMM
	include listing.inc
	.model	flat

INCLUDELIB LIBCMT
INCLUDELIB OLDNAMES

PUBLIC	??_H@YGXPAXIIP6EPAX0@Z@Z			; `vector constructor iterator'
PUBLIC	?__empty_global_delete@@YAXPAX@Z		; __empty_global_delete
PUBLIC	?__empty_global_delete@@YAXPAXI@Z		; __empty_global_delete
PUBLIC	??1OBJECTSTRUCT@@QAE@XZ				; OBJECTSTRUCT::~OBJECTSTRUCT
PUBLIC	??_EOBJECTSTRUCT@@QAEPAXI@Z			; OBJECTSTRUCT::`vector deleting destructor'
PUBLIC	??0CObjUseSkill@@QAE@XZ				; CObjUseSkill::CObjUseSkill
PUBLIC	??1CObjUseSkill@@UAE@XZ				; CObjUseSkill::~CObjUseSkill
PUBLIC	?SpeedHackCheck@CObjUseSkill@@QAEHH@Z		; CObjUseSkill::SpeedHackCheck
PUBLIC	?EnableSkill@CObjUseSkill@@QAEHH@Z		; CObjUseSkill::EnableSkill
PUBLIC	?CheckWeapon@CObjUseSkill@@QAEHPAUOBJECTSTRUCT@@H@Z ; CObjUseSkill::CheckWeapon
PUBLIC	?GetUseMana@CObjUseSkill@@QAEHHPAVCMagicInf@@@Z	; CObjUseSkill::GetUseMana
PUBLIC	?GetAddUseMana@CObjUseSkill@@QAEHPAUOBJECTSTRUCT@@PAVCMagicInf@@@Z ; CObjUseSkill::GetAddUseMana
PUBLIC	?GetUseBP@CObjUseSkill@@QAEHHPAVCMagicInf@@@Z	; CObjUseSkill::GetUseBP
PUBLIC	?UseSkill@CObjUseSkill@@QAEXHHPAVCMagicInf@@@Z	; CObjUseSkill::UseSkill
PUBLIC	?UseSkill@CObjUseSkill@@QAEXHPAVCMagicInf@@EEEEH@Z ; CObjUseSkill::UseSkill
PUBLIC	?RunningSkill@CObjUseSkill@@QAEHHHPAVCMagicInf@@H@Z ; CObjUseSkill::RunningSkill
PUBLIC	?SkillFrustrum3@CObjUseSkill@@QAEXHEMMMM@Z	; CObjUseSkill::SkillFrustrum3
PUBLIC	?MaGumSkillDefenseDown@CObjUseSkill@@QAEXHHPAVCMagicInf@@@Z ; CObjUseSkill::MaGumSkillDefenseDown
PUBLIC	?KnightSkillAddLife@CObjUseSkill@@QAEXHHPAVCMagicInf@@@Z ; CObjUseSkill::KnightSkillAddLife
PUBLIC	?WizardMagicDefense@CObjUseSkill@@QAEXHHPAVCMagicInf@@@Z ; CObjUseSkill::WizardMagicDefense
PUBLIC	?SkillDefense@CObjUseSkill@@QAEXHHPAVCMagicInf@@@Z ; CObjUseSkill::SkillDefense
PUBLIC	?SkillAttack@CObjUseSkill@@QAEXHHPAVCMagicInf@@@Z ; CObjUseSkill::SkillAttack
PUBLIC	?SkillChangeUse@CObjUseSkill@@QAEHH@Z		; CObjUseSkill::SkillChangeUse
PUBLIC	?SkillHealing@CObjUseSkill@@QAEXHHPAVCMagicInf@@@Z ; CObjUseSkill::SkillHealing
PUBLIC	?SkillMonsterCall@CObjUseSkill@@QAEHHHHH@Z	; CObjUseSkill::SkillMonsterCall
PUBLIC	?SkillDeathPoison@CObjUseSkill@@QAEHHPAVCMagicInf@@EEEEH@Z ; CObjUseSkill::SkillDeathPoison
PUBLIC	?SkillSuddenIce@CObjUseSkill@@QAEHHPAVCMagicInf@@EEEEH@Z ; CObjUseSkill::SkillSuddenIce
PUBLIC	?SkillHellFire2Start@CObjUseSkill@@QAEHHPAVCMagicInf@@@Z ; CObjUseSkill::SkillHellFire2Start
PUBLIC	?SkillHellFire2@CObjUseSkill@@QAEHHHPAVCMagicInf@@@Z ; CObjUseSkill::SkillHellFire2
PUBLIC	?SkillBlowOfFury@CObjUseSkill@@QAEXHPAVCMagicInf@@EEEEHH@Z ; CObjUseSkill::SkillBlowOfFury
PUBLIC	?SkillWheel@CObjUseSkill@@QAEXHPAVCMagicInf@@HH@Z ; CObjUseSkill::SkillWheel
PUBLIC	?SkillKnightBlow@CObjUseSkill@@QAEHHHPAVCMagicInf@@H@Z ; CObjUseSkill::SkillKnightBlow
PUBLIC	?SkillPowerSlash@CObjUseSkill@@QAEXHPAVCMagicInf@@EEEEH@Z ; CObjUseSkill::SkillPowerSlash
PUBLIC	?SkillFrustrum@CObjUseSkill@@QAEXHMMM@Z		; CObjUseSkill::SkillFrustrum
PUBLIC	?GetTargetLinePath@CObjUseSkill@@QAEHHHHHPAH0H@Z ; CObjUseSkill::GetTargetLinePath
PUBLIC	?GetAngle@CObjUseSkill@@QAEHHHHH@Z		; CObjUseSkill::GetAngle
PUBLIC	?CalDistance@CObjUseSkill@@QAEHHHHH@Z		; CObjUseSkill::CalDistance
PUBLIC	?SkillFrustrum2@CObjUseSkill@@QAEXHMMM@Z	; CObjUseSkill::SkillFrustrum2
PUBLIC	?SkillAreaCheck@CObjUseSkill@@QAEHHHHHHHH@Z	; CObjUseSkill::SkillAreaCheck
PUBLIC	?SkillSpear@CObjUseSkill@@QAEHHHPAVCMagicInf@@@Z ; CObjUseSkill::SkillSpear
PUBLIC	?SkillFireBurst@CObjUseSkill@@QAEHHHPAVCMagicInf@@@Z ; CObjUseSkill::SkillFireBurst
PUBLIC	?SkillDarkHorseAttack@CObjUseSkill@@QAEHHHPAVCMagicInf@@@Z ; CObjUseSkill::SkillDarkHorseAttack
PUBLIC	?RecallPartyCheck@CObjUseSkill@@QAEHHH@Z	; CObjUseSkill::RecallPartyCheck
PUBLIC	?SkillRecallParty@CObjUseSkill@@QAEXHH@Z	; CObjUseSkill::SkillRecallParty
PUBLIC	?SkillAddCriticalDamage@CObjUseSkill@@QAEXHPAVCMagicInf@@@Z ; CObjUseSkill::SkillAddCriticalDamage
PUBLIC	?SkillElectricSpark@CObjUseSkill@@QAEXHPAVCMagicInf@@EEEEH@Z ; CObjUseSkill::SkillElectricSpark
PUBLIC	?SkillSummon@CObjUseSkill@@QAEHHHPAVCMagicInf@@@Z ; CObjUseSkill::SkillSummon
PUBLIC	?SkillImmuneToMagic@CObjUseSkill@@QAEHHPAVCMagicInf@@@Z ; CObjUseSkill::SkillImmuneToMagic
PUBLIC	?SkillImmuneToHarm@CObjUseSkill@@QAEHHPAVCMagicInf@@@Z ; CObjUseSkill::SkillImmuneToHarm
PUBLIC	?SkillKnightRush@CObjUseSkill@@QAEHHHPAVCMagicInf@@@Z ; CObjUseSkill::SkillKnightRush
PUBLIC	?SkillWizardJavalin@CObjUseSkill@@QAEHHHPAVCMagicInf@@@Z ; CObjUseSkill::SkillWizardJavalin
PUBLIC	?SkillElfRush@CObjUseSkill@@QAEHHHPAVCMagicInf@@@Z ; CObjUseSkill::SkillElfRush
PUBLIC	?SkillMagumOneFlash@CObjUseSkill@@QAEHHHPAVCMagicInf@@@Z ; CObjUseSkill::SkillMagumOneFlash
PUBLIC	?SkillMagumDeathCannon@CObjUseSkill@@QAEHHHPAVCMagicInf@@@Z ; CObjUseSkill::SkillMagumDeathCannon
PUBLIC	?SkillDarklordSpaceSplit@CObjUseSkill@@QAEHHHPAVCMagicInf@@@Z ; CObjUseSkill::SkillDarklordSpaceSplit
PUBLIC	?SkillBrandOfSkill@CObjUseSkill@@QAEHHHPAVCMagicInf@@@Z ; CObjUseSkill::SkillBrandOfSkill
PUBLIC	?SkillRemoveStun@CObjUseSkill@@QAEHHHPAVCMagicInf@@@Z ; CObjUseSkill::SkillRemoveStun
PUBLIC	?SkillAddMana@CObjUseSkill@@QAEHHHPAVCMagicInf@@@Z ; CObjUseSkill::SkillAddMana
PUBLIC	?SkillCloaking@CObjUseSkill@@QAEHHHPAVCMagicInf@@@Z ; CObjUseSkill::SkillCloaking
PUBLIC	?SkillRemoveCloaking@CObjUseSkill@@QAEHHHPAVCMagicInf@@@Z ; CObjUseSkill::SkillRemoveCloaking
PUBLIC	?SkillRemoveMagic@CObjUseSkill@@QAEHHHPAVCMagicInf@@@Z ; CObjUseSkill::SkillRemoveMagic
PUBLIC	?RemoveCloakingEffect@CObjUseSkill@@QAEHH@Z	; CObjUseSkill::RemoveCloakingEffect
PUBLIC	?SkillStun@CObjUseSkill@@QAEHHHPAVCMagicInf@@EEEE@Z ; CObjUseSkill::SkillStun
PUBLIC	?RemoveAllCharacterInvalidMagicAndSkillState@CObjUseSkill@@QAEHPAUOBJECTSTRUCT@@@Z ; CObjUseSkill::RemoveAllCharacterInvalidMagicAndSkillState
PUBLIC	?RemoveSpecificSkillState@CObjUseSkill@@QAEHPAUOBJECTSTRUCT@@H@Z ; CObjUseSkill::RemoveSpecificSkillState
PUBLIC	?SkillFenrirAttack@CObjUseSkill@@QAEHHHPAVCMagicInf@@@Z ; CObjUseSkill::SkillFenrirAttack
PUBLIC	?SkillInfinityArrow@CObjUseSkill@@QAEHHHPAVCMagicInf@@@Z ; CObjUseSkill::SkillInfinityArrow
PUBLIC	?SkillFireScream@CObjUseSkill@@QAEHHHPAVCMagicInf@@@Z ; CObjUseSkill::SkillFireScream
PUBLIC	?FireScreamExplosionAttack@CObjUseSkill@@QAEHPAUOBJECTSTRUCT@@0H@Z ; CObjUseSkill::FireScreamExplosionAttack
PUBLIC	?SpecificSkillAdditionTreat@CObjUseSkill@@QAEXPAUOBJECTSTRUCT@@0PAVCMagicInf@@H@Z ; CObjUseSkill::SpecificSkillAdditionTreat
PUBLIC	?SkillDrainLife@CObjUseSkill@@QAEHHHPAVCMagicInf@@@Z ; CObjUseSkill::SkillDrainLife
PUBLIC	?SkillChainLightning@CObjUseSkill@@QAEHHHPAVCMagicInf@@@Z ; CObjUseSkill::SkillChainLightning
PUBLIC	?SkillLightExplode@CObjUseSkill@@QAEHHHPAVCMagicInf@@@Z ; CObjUseSkill::SkillLightExplode
PUBLIC	?SkillLightExplode@CObjUseSkill@@QAEHPAUOBJECTSTRUCT@@0HHHH@Z ; CObjUseSkill::SkillLightExplode
PUBLIC	?SkillCurse@CObjUseSkill@@QAEHHPAVCMagicInf@@EEH@Z ; CObjUseSkill::SkillCurse
PUBLIC	?SkillDamageReflect@CObjUseSkill@@QAEHHHPAVCMagicInf@@@Z ; CObjUseSkill::SkillDamageReflect
PUBLIC	?SkillSleep@CObjUseSkill@@QAEHHHPAVCMagicInf@@@Z ; CObjUseSkill::SkillSleep
PUBLIC	?SkillWeakness@CObjUseSkill@@QAEHHPAVCMagicInf@@EEH@Z ; CObjUseSkill::SkillWeakness
PUBLIC	?SkillInnovation@CObjUseSkill@@QAEHHPAVCMagicInf@@EEH@Z ; CObjUseSkill::SkillInnovation
PUBLIC	?SkillAreaMonsterAttack@CObjUseSkill@@QAEHHPAVCMagicInf@@EEHHHH@Z ; CObjUseSkill::SkillAreaMonsterAttack
PUBLIC	?SkillLagle@CObjUseSkill@@QAEHHPAVCMagicInf@@EEHH@Z ; CObjUseSkill::SkillLagle
PUBLIC	?SkillBerserker@CObjUseSkill@@QAEHHPAVCMagicInf@@@Z ; CObjUseSkill::SkillBerserker
PUBLIC	?SkillRecovery@CObjUseSkill@@QAEXHHPAVCMagicInf@@@Z ; CObjUseSkill::SkillRecovery
PUBLIC	?SkillExpWizard@CObjUseSkill@@QAEHHHPAVCMagicInf@@@Z ; CObjUseSkill::SkillExpWizard
PUBLIC	?SkillDestruct@CObjUseSkill@@QAEXHPAVCMagicInf@@EEH@Z ; CObjUseSkill::SkillDestruct
PUBLIC	?SkillLightShock@CObjUseSkill@@QAEHHHPAVCMagicInf@@@Z ; CObjUseSkill::SkillLightShock
PUBLIC	?SkillFlameStrike@CObjUseSkill@@QAEXHPAVCMagicInf@@EH@Z ; CObjUseSkill::SkillFlameStrike
PUBLIC	?SkillGiganticStorm@CObjUseSkill@@QAEXHPAVCMagicInf@@EEH@Z ; CObjUseSkill::SkillGiganticStorm
PUBLIC	?SkillMultiShot@CObjUseSkill@@QAEXHPAVCMagicInf@@EH@Z ; CObjUseSkill::SkillMultiShot
PUBLIC	?SkillChaoticDesier@CObjUseSkill@@QAEXHPAVCMagicInf@@EH@Z ; CObjUseSkill::SkillChaoticDesier
PUBLIC	?SkillEvilMonster@CObjUseSkill@@QAEHHHPAVCMagicInf@@@Z ; CObjUseSkill::SkillEvilMonster
PUBLIC	?SkillDeathPoisonForMeDusa@CObjUseSkill@@QAEHHPAVCMagicInf@@EEH@Z ; CObjUseSkill::SkillDeathPoisonForMeDusa
PUBLIC	?SkillMonkBarrageJustOneTarget@CObjUseSkill@@QAEXHPAVCMagicInf@@H@Z ; CObjUseSkill::SkillMonkBarrageJustOneTarget
PUBLIC	?SkillMonkDarkSideGetTargetIndex@CObjUseSkill@@QAEHHHPAVCMagicInf@@PAG@Z ; CObjUseSkill::SkillMonkDarkSideGetTargetIndex
PUBLIC	?SkillMonkBuff@CObjUseSkill@@QAEHHPAVCMagicInf@@@Z ; CObjUseSkill::SkillMonkBuff
PUBLIC	?SkillMonkBuffApplyParty@CObjUseSkill@@QAEHHPAVCMagicInf@@@Z ; CObjUseSkill::SkillMonkBuffApplyParty
PUBLIC	?SkillCharge@CObjUseSkill@@QAEHHPAVCMagicInf@@H@Z ; CObjUseSkill::SkillCharge
PUBLIC	?SkillBloodStorm@CObjUseSkill@@QAEXHHPAVCMagicInf@@H@Z ; CObjUseSkill::SkillBloodStorm
PUBLIC	?BloodStormExplosionAttack@CObjUseSkill@@QAEHPAUOBJECTSTRUCT@@0H@Z ; CObjUseSkill::BloodStormExplosionAttack
PUBLIC	??_GCObjUseSkill@@UAEPAXI@Z			; CObjUseSkill::`scalar deleting destructor'
PUBLIC	?DecPartyMemberHPandMP@@YAHPAUOBJECTSTRUCT@@@Z	; DecPartyMemberHPandMP
PUBLIC	??_7CObjUseSkill@@6B@				; CObjUseSkill::`vftable'
PUBLIC	?gObjUseSkill@@3VCObjUseSkill@@A		; gObjUseSkill
PUBLIC	??_C@_0BI@LPGINHLP@?$FL?$CFd?$FN?5Skill?5delay?5error?$CB?$AA@ ; `string'
PUBLIC	??_C@_0BI@HDEGKDLO@?$FL?$CFs?$FN?5Skill?5delay?5error?$CB?$AA@ ; `string'
PUBLIC	??_C@_0FO@IFELCABO@?$FLInvalidTargetIndex?$FN?$FLCObjUseSkil@ ; `string'
PUBLIC	??_C@_0FO@JAMLMINI@?$FLInvalidTargetIndex?$FN?$FLCObjUseSkil@ ; `string'
PUBLIC	??_C@_0CH@FEMHONHI@?$FL?$CFs?$FN?$FL?$CFs?$FN?5SkillHellFire2?5error?5on@ ; `string'
PUBLIC	??_C@_0BA@DNENMBIK@ObjUseSkill?4cpp?$AA@	; `string'
PUBLIC	??_C@_0CE@CEJHKGA@error?5?3?5DecPartyMemberHPandMP?5?$CFs@ ; `string'
PUBLIC	??_C@_0FJ@KFEKMJMJ@?$FLANTI?9HACK?$FN?$FLCloaking?5Skill?$FN?5?$FL?$CFs?$FN@ ; `string'
PUBLIC	??_C@_0FA@NONLFBKD@?$FL?$CFs?$FN?$FL?$CFs?$FN?5Use?5Infinity?5Arrow?5Skil@ ; `string'
PUBLIC	??_C@_0FA@JGPGPLCI@?$FLInvalidTargetIndex?$FN?$FLSkillMonkBa@ ; `string'
PUBLIC	??_C@_0EM@PCLLIACM@?$FLInvalidTargetIndex?$FN?$FLSkillDeathP@ ; `string'
PUBLIC	??_R4CObjUseSkill@@6B@				; CObjUseSkill::`RTTI Complete Object Locator'
PUBLIC	??_R0?AVCObjUseSkill@@@8			; CObjUseSkill `RTTI Type Descriptor'
PUBLIC	??_R3CObjUseSkill@@8				; CObjUseSkill::`RTTI Class Hierarchy Descriptor'
PUBLIC	??_R2CObjUseSkill@@8				; CObjUseSkill::`RTTI Base Class Array'
PUBLIC	??_R1A@?0A@EA@CObjUseSkill@@8			; CObjUseSkill::`RTTI Base Class Descriptor at (0,-1,0,64)'
PUBLIC	__real@3f800000
PUBLIC	__real@400921fb5fffffff
PUBLIC	__real@4024000000000000
PUBLIC	__real@4056800000000000
PUBLIC	__real@4066800000000000
PUBLIC	__real@40a00000
PUBLIC	__real@41200000
PUBLIC	__real@41a00000
PUBLIC	__real@42480000
PUBLIC	__real@42c80000
PUBLIC	__real@c0a00000
PUBLIC	__xmm@00000000000000003f80000000000000
PUBLIC	__xmm@000000000000000041a0000000000000
PUBLIC	__xmm@00000000422000000000000000000000
PUBLIC	__xmm@43a00000000000000000000043aa0000
PUBLIC	__xmm@80000000800000008000000080000000
PUBLIC	__xmm@ffffffffffffffffffffffffffffffff
EXTRN	??_M@YGXPAXIIP6EX0@Z@Z:PROC			; `eh vector destructor iterator'
EXTRN	??3@YAXPAXI@Z:PROC				; operator delete
EXTRN	??_V@YAXPAXI@Z:PROC				; operator delete[]
EXTRN	_atexit:PROC
EXTRN	__imp__GetTickCount@0:PROC
EXTRN	__imp__wsprintfA:PROC
EXTRN	_rand:PROC
EXTRN	?Get@Message@@QAEPADH@Z:PROC			; Message::Get
EXTRN	?IsItem@CItem@@QAEHXZ:PROC			; CItem::IsItem
EXTRN	?SkillGet@CMagicDamage@@QAEHH@Z:PROC		; CMagicDamage::SkillGet
EXTRN	?SkillGetMana@CMagicDamage@@QAEHH@Z:PROC	; CMagicDamage::SkillGetMana
EXTRN	?SkillGetBP@CMagicDamage@@QAEHH@Z:PROC		; CMagicDamage::SkillGetBP
EXTRN	?GetSkillDistance@CMagicDamage@@QAEHH@Z:PROC	; CMagicDamage::GetSkillDistance
EXTRN	??1CSkillDelay@@UAE@XZ:PROC			; CSkillDelay::~CSkillDelay
EXTRN	?Check@CSkillDelay@@QAEHE@Z:PROC		; CSkillDelay::Check
EXTRN	?CheckCombo@CComboAttack@@QAEHHH@Z:PROC		; CComboAttack::CheckCombo
EXTRN	?DataSend@@YAHHPAEK@Z:PROC			; DataSend
EXTRN	??1TMonsterAIAgro@@UAE@XZ:PROC			; TMonsterAIAgro::~TMonsterAIAgro
EXTRN	?IncAgro@TMonsterAIAgro@@QAEHHH@Z:PROC		; TMonsterAIAgro::IncAgro
EXTRN	?MsgSendV2@@YAXPAUOBJECTSTRUCT@@PAEH@Z:PROC	; MsgSendV2
EXTRN	?GCServerMsgStringSend@@YAXPADHE@Z:PROC		; GCServerMsgStringSend
EXTRN	?GCRecallMonLife@@YAXHHH@Z:PROC			; GCRecallMonLife
EXTRN	?GCActionSend@@YAXPAUOBJECTSTRUCT@@EHH@Z:PROC	; GCActionSend
EXTRN	?GCMagicAttackNumberSend@@YAXPAUOBJECTSTRUCT@@GHE@Z:PROC ; GCMagicAttackNumberSend
EXTRN	?GCStateInfoSend@@YAXPAUOBJECTSTRUCT@@EE@Z:PROC	; GCStateInfoSend
EXTRN	?GCReFillSend@@YAXHGEEG@Z:PROC			; GCReFillSend
EXTRN	?GCManaSend@@YAXHFEEG@Z:PROC			; GCManaSend
EXTRN	?GCMonkDarkSideTargetSelect@@YAXPAUPMSG_MONK_DARKSIDE_RECV@@H@Z:PROC ; GCMonkDarkSideTargetSelect
EXTRN	?gObjCalCharacter@@YAXH@Z:PROC			; gObjCalCharacter
EXTRN	?gObjSetMonster@@YAHHH@Z:PROC			; gObjSetMonster
EXTRN	?gObjAddMonster@@YAFH@Z:PROC			; gObjAddMonster
EXTRN	?gObjAddCallMon@@YAFXZ:PROC			; gObjAddCallMon
EXTRN	?gObjIsConnected@@YAHH@Z:PROC			; gObjIsConnected
EXTRN	?gObjCalDistance@@YAHPAUOBJECTSTRUCT@@0@Z:PROC	; gObjCalDistance
EXTRN	?gObjAddMsgSendDelay@@YAXPAUOBJECTSTRUCT@@HHHH@Z:PROC ; gObjAddMsgSendDelay
EXTRN	?gObjAddAttackProcMsgSendDelay@@YAXPAUOBJECTSTRUCT@@HHHHH@Z:PROC ; gObjAddAttackProcMsgSendDelay
EXTRN	?retResistance@@YAHPAUOBJECTSTRUCT@@H@Z:PROC	; retResistance
EXTRN	?retCalcSkillResistance@@YAHPAUOBJECTSTRUCT@@H@Z:PROC ; retCalcSkillResistance
EXTRN	?gObjAttackQ@@YAHPAUOBJECTSTRUCT@@@Z:PROC	; gObjAttackQ
EXTRN	?gObjAttack@@YAXPAUOBJECTSTRUCT@@0PAVCMagicInf@@HEHHEE@Z:PROC ; gObjAttack
EXTRN	?gObjViewportListProtocolCreate@@YAXPAUOBJECTSTRUCT@@@Z:PROC ; gObjViewportListProtocolCreate
EXTRN	?gObjGetMagicSearch@@YAPAVCMagicInf@@PAUOBJECTSTRUCT@@H@Z:PROC ; gObjGetMagicSearch
EXTRN	?gObjMagicBPUse@@YAHPAUOBJECTSTRUCT@@PAVCMagicInf@@@Z:PROC ; gObjMagicBPUse
EXTRN	?gObjTargetGuildWarCheck@@YAHPAUOBJECTSTRUCT@@0@Z:PROC ; gObjTargetGuildWarCheck
EXTRN	?gObjMonsterCallKill@@YAXH@Z:PROC		; gObjMonsterCallKill
EXTRN	?gObjCheckTeleportArea@@YAHHEE@Z:PROC		; gObjCheckTeleportArea
EXTRN	?gObjSetPosition@@YAXHHH@Z:PROC			; gObjSetPosition
EXTRN	?gObjDuelCheck@@YAHPAUOBJECTSTRUCT@@@Z:PROC	; gObjDuelCheck
EXTRN	?SkillFrustrum@@YAXEH@Z:PROC			; SkillFrustrum
EXTRN	?SkillTestFrustrum@@YAHHHH@Z:PROC		; SkillTestFrustrum
EXTRN	?gObjGetRandomFreeLocation@@YAHHAAE0HHH@Z:PROC	; gObjGetRandomFreeLocation
EXTRN	?gObjSetKillCount@@YAXHH@Z:PROC			; gObjSetKillCount
EXTRN	?MsgOutput@@YAXHPADZZ:PROC			; MsgOutput
EXTRN	?gCheckSkillDistance@@YAHHHH@Z:PROC		; gCheckSkillDistance
EXTRN	??_ECObjUseSkill@@UAEPAXI@Z:PROC		; CObjUseSkill::`vector deleting destructor'
EXTRN	?VectorRotate@@YAXQBM0QAM@Z:PROC		; VectorRotate
EXTRN	?AngleMatrix@@YAXPBMPAY03M@Z:PROC		; AngleMatrix
EXTRN	?HitCheck@CSkillHitBox@@QAEHHHHHH@Z:PROC	; CSkillHitBox::HitCheck
EXTRN	?GetMoveLevel@CMoveCommand@@QAEHHHHH@Z:PROC	; CMoveCommand::GetMoveLevel
EXTRN	?CheckMainToMove@CMoveCommand@@QAEHPAUOBJECTSTRUCT@@@Z:PROC ; CMoveCommand::CheckMainToMove
EXTRN	?CheckEquipmentToMove@CMoveCommand@@QAEHPAUOBJECTSTRUCT@@H@Z:PROC ; CMoveCommand::CheckEquipmentToMove
EXTRN	?CheckInterfaceToMove@CMoveCommand@@QAEHPAUOBJECTSTRUCT@@@Z:PROC ; CMoveCommand::CheckInterfaceToMove
EXTRN	?GetCastleState@CCastleSiege@@QAEHXZ:PROC	; CCastleSiege::GetCastleState
EXTRN	?NotifySelfCsJoinSide@CCastleSiege@@QAEXH@Z:PROC ; CCastleSiege::NotifySelfCsJoinSide
EXTRN	?gObjAddBuffEffect@@YA_NPAUOBJECTSTRUCT@@HEHEHH@Z:PROC ; gObjAddBuffEffect
EXTRN	?gObjRemoveBuffEffect@@YA_NPAUOBJECTSTRUCT@@H@Z:PROC ; gObjRemoveBuffEffect
EXTRN	?gObjCheckUsedBuffEffect@@YA_NPAUOBJECTSTRUCT@@H@Z:PROC ; gObjCheckUsedBuffEffect
EXTRN	?gObjCheckPowerfulEffect@@YA_NPAUOBJECTSTRUCT@@HHH@Z:PROC ; gObjCheckPowerfulEffect
EXTRN	?PHeadSubSetB@@YAXPAEEEH@Z:PROC			; PHeadSubSetB
EXTRN	?PHeadSetBE@@YAXPAEEH@Z:PROC			; PHeadSetBE
EXTRN	?GetState@CIllusionTempleEvent@@QAEEE@Z:PROC	; CIllusionTempleEvent::GetState
EXTRN	?GetTeam@CIllusionTempleEvent@@QAEEEH@Z:PROC	; CIllusionTempleEvent::GetTeam
EXTRN	?CheckMasterLevelSkill@CMasterLevelSkillTreeSystem@@QAEHH@Z:PROC ; CMasterLevelSkillTreeSystem::CheckMasterLevelSkill
EXTRN	?RunningSkill_MLS@CMasterLevelSkillTreeSystem@@QAEHPAUOBJECTSTRUCT@@HPAVCMagicInf@@HEEEE@Z:PROC ; CMasterLevelSkillTreeSystem::RunningSkill_MLS
EXTRN	?GetMasterSkillValue@CMasterLevelSkillTreeSystem@@QAEMHH@Z:PROC ; CMasterLevelSkillTreeSystem::GetMasterSkillValue
EXTRN	?GetMasterSkillManaIncRate@CMasterLevelSkillTreeSystem@@QAEMH@Z:PROC ; CMasterLevelSkillTreeSystem::GetMasterSkillManaIncRate
EXTRN	?GetEffect@BuffSkillEffect@@QAEPAUBuffSkillEffectInfo@@H@Z:PROC ; BuffSkillEffect::GetEffect
EXTRN	?GetRaklionState@CRaklion@@QAEHXZ:PROC		; CRaklion::GetRaklionState
EXTRN	?AddUserData@CRaklionBattleUserMng@@QAEHH@Z:PROC ; CRaklionBattleUserMng::AddUserData
EXTRN	@__security_check_cookie@4:PROC
EXTRN	__CIatan2:PROC
EXTRN	___CxxFrameHandler3:PROC
EXTRN	__libm_sse2_sqrt_precise:PROC
EXTRN	??_7type_info@@6B@:QWORD			; type_info::`vftable'
EXTRN	?lMsg@@3VMessage@@A:BYTE			; lMsg
EXTRN	?MagicDamageC@@3VCMagicDamage@@A:BYTE		; MagicDamageC
EXTRN	?gComboAttack@@3VCComboAttack@@A:DWORD		; gComboAttack
EXTRN	?LogAdd@@3P6AXPADZZA:DWORD			; LogAdd
EXTRN	?LogAddTD@@3P6AXPADZZA:DWORD			; LogAddTD
EXTRN	?gObj@@3PAUOBJECTSTRUCT@@A:DWORD		; gObj
EXTRN	?gParty@@3VPartyClass@@A:BYTE			; gParty
EXTRN	?SkillSpearHitBox@@3VCSkillHitBox@@A:BYTE	; SkillSpearHitBox
EXTRN	?SkillElectricSparkHitBox@@3VCSkillHitBox@@A:BYTE ; SkillElectricSparkHitBox
EXTRN	?gMoveCommand@@3VCMoveCommand@@A:BYTE		; gMoveCommand
EXTRN	?g_SkillAdditionInfo@@3VCSkillAdditionInfo@@A:BYTE ; g_SkillAdditionInfo
EXTRN	?g_CastleSiege@@3VCCastleSiege@@A:BYTE		; g_CastleSiege
EXTRN	?g_IllusionTemple@@3VCIllusionTempleEvent@@A:BYTE ; g_IllusionTemple
EXTRN	?g_MasterSkillSystem@@3VCMasterLevelSkillTreeSystem@@A:BYTE ; g_MasterSkillSystem
EXTRN	?g_BuffSkillEffect@@3VBuffSkillEffect@@A:BYTE	; g_BuffSkillEffect
EXTRN	?g_Raklion@@3VCRaklion@@A:BYTE			; g_Raklion
EXTRN	?g_RaklionBattleUserMng@@3VCRaklionBattleUserMng@@A:BYTE ; g_RaklionBattleUserMng
EXTRN	___security_cookie:DWORD
EXTRN	__fltused:DWORD
_BSS	SEGMENT
?gObjUseSkill@@3VCObjUseSkill@@A DD 01H DUP (?)		; gObjUseSkill
_BSS	ENDS
CRT$XCU	SEGMENT
?gObjUseSkill$initializer$@@3P6AXXZA DD FLAT:??__EgObjUseSkill@@YAXXZ ; gObjUseSkill$initializer$
CRT$XCU	ENDS
;	COMDAT __xmm@ffffffffffffffffffffffffffffffff
CONST	SEGMENT
__xmm@ffffffffffffffffffffffffffffffff DB 0ffH, 0ffH, 0ffH, 0ffH, 0ffH, 0ffH
	DB	0ffH, 0ffH, 0ffH, 0ffH, 0ffH, 0ffH, 0ffH, 0ffH, 0ffH, 0ffH
CONST	ENDS
;	COMDAT __xmm@80000000800000008000000080000000
CONST	SEGMENT
__xmm@80000000800000008000000080000000 DB 00H, 00H, 00H, 080H, 00H, 00H, 00H
	DB	080H, 00H, 00H, 00H, 080H, 00H, 00H, 00H, 080H
CONST	ENDS
;	COMDAT __xmm@43a00000000000000000000043aa0000
CONST	SEGMENT
__xmm@43a00000000000000000000043aa0000 DB 00H, 00H, 0aaH, 'C', 00H, 00H, 00H
	DB	00H, 00H, 00H, 00H, 00H, 00H, 00H, 0a0H, 'C'
CONST	ENDS
;	COMDAT __xmm@00000000422000000000000000000000
CONST	SEGMENT
__xmm@00000000422000000000000000000000 DB 00H, 00H, 00H, 00H, 00H, 00H, 00H
	DB	00H, 00H, 00H, ' B', 00H, 00H, 00H, 00H
CONST	ENDS
;	COMDAT __xmm@000000000000000041a0000000000000
CONST	SEGMENT
__xmm@000000000000000041a0000000000000 DB 00H, 00H, 00H, 00H, 00H, 00H, 0a0H
	DB	'A', 00H, 00H, 00H, 00H, 00H, 00H, 00H, 00H
CONST	ENDS
;	COMDAT __xmm@00000000000000003f80000000000000
CONST	SEGMENT
__xmm@00000000000000003f80000000000000 DB 00H, 00H, 00H, 00H, 00H, 00H, 080H
	DB	'?', 00H, 00H, 00H, 00H, 00H, 00H, 00H, 00H
CONST	ENDS
;	COMDAT __real@c0a00000
CONST	SEGMENT
__real@c0a00000 DD 0c0a00000r			; -5
CONST	ENDS
;	COMDAT __real@42c80000
CONST	SEGMENT
__real@42c80000 DD 042c80000r			; 100
CONST	ENDS
;	COMDAT __real@42480000
CONST	SEGMENT
__real@42480000 DD 042480000r			; 50
CONST	ENDS
;	COMDAT __real@41a00000
CONST	SEGMENT
__real@41a00000 DD 041a00000r			; 20
CONST	ENDS
;	COMDAT __real@41200000
CONST	SEGMENT
__real@41200000 DD 041200000r			; 10
CONST	ENDS
;	COMDAT __real@40a00000
CONST	SEGMENT
__real@40a00000 DD 040a00000r			; 5
CONST	ENDS
;	COMDAT __real@4066800000000000
CONST	SEGMENT
__real@4066800000000000 DQ 04066800000000000r	; 180
CONST	ENDS
;	COMDAT __real@4056800000000000
CONST	SEGMENT
__real@4056800000000000 DQ 04056800000000000r	; 90
CONST	ENDS
;	COMDAT __real@4024000000000000
CONST	SEGMENT
__real@4024000000000000 DQ 04024000000000000r	; 10
CONST	ENDS
;	COMDAT __real@400921fb5fffffff
CONST	SEGMENT
__real@400921fb5fffffff DQ 0400921fb5fffffffr	; 3.14159
CONST	ENDS
;	COMDAT __real@3f800000
CONST	SEGMENT
__real@3f800000 DD 03f800000r			; 1
CONST	ENDS
;	COMDAT ??_R1A@?0A@EA@CObjUseSkill@@8
rdata$r	SEGMENT
??_R1A@?0A@EA@CObjUseSkill@@8 DD FLAT:??_R0?AVCObjUseSkill@@@8 ; CObjUseSkill::`RTTI Base Class Descriptor at (0,-1,0,64)'
	DD	00H
	DD	00H
	DD	0ffffffffH
	DD	00H
	DD	040H
	DD	FLAT:??_R3CObjUseSkill@@8
rdata$r	ENDS
;	COMDAT ??_R2CObjUseSkill@@8
rdata$r	SEGMENT
??_R2CObjUseSkill@@8 DD FLAT:??_R1A@?0A@EA@CObjUseSkill@@8 ; CObjUseSkill::`RTTI Base Class Array'
rdata$r	ENDS
;	COMDAT ??_R3CObjUseSkill@@8
rdata$r	SEGMENT
??_R3CObjUseSkill@@8 DD 00H				; CObjUseSkill::`RTTI Class Hierarchy Descriptor'
	DD	00H
	DD	01H
	DD	FLAT:??_R2CObjUseSkill@@8
rdata$r	ENDS
;	COMDAT ??_R0?AVCObjUseSkill@@@8
data$r	SEGMENT
??_R0?AVCObjUseSkill@@@8 DD FLAT:??_7type_info@@6B@	; CObjUseSkill `RTTI Type Descriptor'
	DD	00H
	DB	'.?AVCObjUseSkill@@', 00H
data$r	ENDS
;	COMDAT ??_R4CObjUseSkill@@6B@
rdata$r	SEGMENT
??_R4CObjUseSkill@@6B@ DD 00H				; CObjUseSkill::`RTTI Complete Object Locator'
	DD	00H
	DD	00H
	DD	FLAT:??_R0?AVCObjUseSkill@@@8
	DD	FLAT:??_R3CObjUseSkill@@8
rdata$r	ENDS
;	COMDAT ??_C@_0EM@PCLLIACM@?$FLInvalidTargetIndex?$FN?$FLSkillDeathP@
CONST	SEGMENT
??_C@_0EM@PCLLIACM@?$FLInvalidTargetIndex?$FN?$FLSkillDeathP@ DB '[Invali'
	DB	'dTargetIndex][SkillDeathPoisonForMeDusa] Index :%d , AccountI'
	DB	'D : %s ', 00H				; `string'
CONST	ENDS
;	COMDAT ??_C@_0FA@JGPGPLCI@?$FLInvalidTargetIndex?$FN?$FLSkillMonkBa@
CONST	SEGMENT
??_C@_0FA@JGPGPLCI@?$FLInvalidTargetIndex?$FN?$FLSkillMonkBa@ DB '[Invali'
	DB	'dTargetIndex][SkillMonkBarrageJustOneTarget] Index :%d , Acco'
	DB	'untID : %s ', 00H				; `string'
CONST	ENDS
;	COMDAT ??_C@_0FA@NONLFBKD@?$FL?$CFs?$FN?$FL?$CFs?$FN?5Use?5Infinity?5Arrow?5Skil@
CONST	SEGMENT
??_C@_0FA@NONLFBKD@?$FL?$CFs?$FN?$FL?$CFs?$FN?5Use?5Infinity?5Arrow?5Skil@ DB '['
	DB	'%s][%s] Use Infinity Arrow Skill (Time:%d)(Character Level : '
	DB	'%d)(ChangeUp: %d)', 00H			; `string'
CONST	ENDS
;	COMDAT ??_C@_0FJ@KFEKMJMJ@?$FLANTI?9HACK?$FN?$FLCloaking?5Skill?$FN?5?$FL?$CFs?$FN@
CONST	SEGMENT
??_C@_0FJ@KFEKMJMJ@?$FLANTI?9HACK?$FN?$FLCloaking?5Skill?$FN?5?$FL?$CFs?$FN@ DB '['
	DB	'ANTI-HACK][Cloaking Skill] [%s][%s] Invalid Targeting  Target'
	DB	'Type [%d] TargetClass [%d]', 00H		; `string'
CONST	ENDS
;	COMDAT ??_C@_0CE@CEJHKGA@error?5?3?5DecPartyMemberHPandMP?5?$CFs@
CONST	SEGMENT
??_C@_0CE@CEJHKGA@error?5?3?5DecPartyMemberHPandMP?5?$CFs@ DB 'error : De'
	DB	'cPartyMemberHPandMP %s %d', 00H		; `string'
CONST	ENDS
;	COMDAT ??_C@_0BA@DNENMBIK@ObjUseSkill?4cpp?$AA@
CONST	SEGMENT
??_C@_0BA@DNENMBIK@ObjUseSkill?4cpp?$AA@ DB 'ObjUseSkill.cpp', 00H ; `string'
CONST	ENDS
;	COMDAT ??_C@_0CH@FEMHONHI@?$FL?$CFs?$FN?$FL?$CFs?$FN?5SkillHellFire2?5error?5on@
CONST	SEGMENT
??_C@_0CH@FEMHONHI@?$FL?$CFs?$FN?$FL?$CFs?$FN?5SkillHellFire2?5error?5on@ DB '['
	DB	'%s][%s] SkillHellFire2 error on start', 00H	; `string'
CONST	ENDS
;	COMDAT ??_C@_0FO@JAMLMINI@?$FLInvalidTargetIndex?$FN?$FLCObjUseSkil@
CONST	SEGMENT
??_C@_0FO@JAMLMINI@?$FLInvalidTargetIndex?$FN?$FLCObjUseSkil@ DB '[Invali'
	DB	'dTargetIndex][CObjUseSkill.UseSkill][AT_SKILL_PHOENIXSHOT] In'
	DB	'dex :%d , AccountID : %s ', 00H		; `string'
CONST	ENDS
;	COMDAT ??_C@_0FO@IFELCABO@?$FLInvalidTargetIndex?$FN?$FLCObjUseSkil@
CONST	SEGMENT
??_C@_0FO@IFELCABO@?$FLInvalidTargetIndex?$FN?$FLCObjUseSkil@ DB '[Invali'
	DB	'dTargetIndex][CObjUseSkill.UseSkill][AT_SKILL_DRAGON_ROAR] In'
	DB	'dex :%d , AccountID : %s ', 00H		; `string'
CONST	ENDS
;	COMDAT ??_C@_0BI@HDEGKDLO@?$FL?$CFs?$FN?5Skill?5delay?5error?$CB?$AA@
CONST	SEGMENT
??_C@_0BI@HDEGKDLO@?$FL?$CFs?$FN?5Skill?5delay?5error?$CB?$AA@ DB '[%s] S'
	DB	'kill delay error!', 00H			; `string'
CONST	ENDS
;	COMDAT ??_C@_0BI@LPGINHLP@?$FL?$CFd?$FN?5Skill?5delay?5error?$CB?$AA@
CONST	SEGMENT
??_C@_0BI@LPGINHLP@?$FL?$CFd?$FN?5Skill?5delay?5error?$CB?$AA@ DB '[%d] S'
	DB	'kill delay error!', 00H			; `string'
CONST	ENDS
;	COMDAT ??_7CObjUseSkill@@6B@
CONST	SEGMENT
??_7CObjUseSkill@@6B@ DD FLAT:??_R4CObjUseSkill@@6B@	; CObjUseSkill::`vftable'
	DD	FLAT:??_ECObjUseSkill@@UAEPAXI@Z
CONST	ENDS
;	COMDAT xdata$x
xdata$x	SEGMENT
__ehfuncinfo$??_EOBJECTSTRUCT@@QAEPAXI@Z DD 019930522H
	DD	00H
	DD	00H
	DD	2 DUP(00H)
	DD	2 DUP(00H)
	DD	00H
	DD	05H
xdata$x	ENDS
; Function compile flags: /Ogtp
;	COMDAT ??__FgObjUseSkill@@YAXXZ
text$yd	SEGMENT
??__FgObjUseSkill@@YAXXZ PROC				; `dynamic atexit destructor for 'gObjUseSkill'', COMDAT
  00000	b9 00 00 00 00	 mov	 ecx, OFFSET ?gObjUseSkill@@3VCObjUseSkill@@A ; gObjUseSkill
  00005	e9 00 00 00 00	 jmp	 ??1CObjUseSkill@@UAE@XZ	; CObjUseSkill::~CObjUseSkill
??__FgObjUseSkill@@YAXXZ ENDP				; `dynamic atexit destructor for 'gObjUseSkill''
text$yd	ENDS
; Function compile flags: /Ogtp
; File c:\users\michel\desktop\source\gameserver\source\objuseskill.cpp
;	COMDAT ??__EgObjUseSkill@@YAXXZ
text$di	SEGMENT
??__EgObjUseSkill@@YAXXZ PROC				; `dynamic initializer for 'gObjUseSkill'', COMDAT

; 26   : CObjUseSkill gObjUseSkill;

  00000	b9 00 00 00 00	 mov	 ecx, OFFSET ?gObjUseSkill@@3VCObjUseSkill@@A ; gObjUseSkill
  00005	e8 00 00 00 00	 call	 ??0CObjUseSkill@@QAE@XZ	; CObjUseSkill::CObjUseSkill
  0000a	68 00 00 00 00	 push	 OFFSET ??__FgObjUseSkill@@YAXXZ ; `dynamic atexit destructor for 'gObjUseSkill''
  0000f	e8 00 00 00 00	 call	 _atexit
  00014	59		 pop	 ecx
  00015	c3		 ret	 0
??__EgObjUseSkill@@YAXXZ ENDP				; `dynamic initializer for 'gObjUseSkill''
text$di	ENDS
; Function compile flags: /Ogtp
; File c:\users\michel\desktop\source\gameserver\source\newpvp.h
;	COMDAT ?IsDuel@CNewPVP@@QAEHAAUOBJECTSTRUCT@@@Z
_TEXT	SEGMENT
_obj$ = 8						; size = 4
?IsDuel@CNewPVP@@QAEHAAUOBJECTSTRUCT@@@Z PROC		; CNewPVP::IsDuel, COMDAT
; _this$ = ecx

; 296  : 	{

  00000	55		 push	 ebp
  00001	8b ec		 mov	 ebp, esp

; 297  : 		return CHECK_LIMIT(obj.m_iDuelUser, OBJMAX);

  00003	8b 45 08	 mov	 eax, DWORD PTR _obj$[ebp]
  00006	8b 88 50 12 00
	00		 mov	 ecx, DWORD PTR [eax+4688]
  0000c	33 c0		 xor	 eax, eax
  0000e	85 c9		 test	 ecx, ecx
  00010	78 09		 js	 SHORT $LN4@IsDuel
  00012	81 f9 eb 2c 00
	00		 cmp	 ecx, 11499		; 00002cebH
  00018	0f 9e c0	 setle	 al
$LN4@IsDuel:

; 298  : 	}

  0001b	5d		 pop	 ebp
  0001c	c2 04 00	 ret	 4
?IsDuel@CNewPVP@@QAEHAAUOBJECTSTRUCT@@@Z ENDP		; CNewPVP::IsDuel
_TEXT	ENDS
; Function compile flags: /Ogtp
; File c:\users\michel\desktop\source\gameserver\source\skilladditioninfo.h
;	COMDAT ?GetBloodStormExplosionDamage@CSkillAdditionInfo@@QAEHXZ
_TEXT	SEGMENT
?GetBloodStormExplosionDamage@CSkillAdditionInfo@@QAEHXZ PROC ; CSkillAdditionInfo::GetBloodStormExplosionDamage, COMDAT
; _this$ = ecx

; 51   : 	int GetBloodStormExplosionDamage() { return this->m_iBloodStormExplosionDamage; }

  00000	8b 41 3c	 mov	 eax, DWORD PTR [ecx+60]
  00003	c3		 ret	 0
?GetBloodStormExplosionDamage@CSkillAdditionInfo@@QAEHXZ ENDP ; CSkillAdditionInfo::GetBloodStormExplosionDamage
_TEXT	ENDS
; Function compile flags: /Ogtp
; File c:\users\michel\desktop\source\gameserver\source\skilladditioninfo.h
;	COMDAT ?GetBloodStormExplosionDistance@CSkillAdditionInfo@@QAEHXZ
_TEXT	SEGMENT
?GetBloodStormExplosionDistance@CSkillAdditionInfo@@QAEHXZ PROC ; CSkillAdditionInfo::GetBloodStormExplosionDistance, COMDAT
; _this$ = ecx

; 50   : 	int GetBloodStormExplosionDistance() { return this->m_iBloodStormExplosionAttackDistance; }

  00000	8b 41 34	 mov	 eax, DWORD PTR [ecx+52]
  00003	c3		 ret	 0
?GetBloodStormExplosionDistance@CSkillAdditionInfo@@QAEHXZ ENDP ; CSkillAdditionInfo::GetBloodStormExplosionDistance
_TEXT	ENDS
; Function compile flags: /Ogtp
; File c:\users\michel\desktop\source\gameserver\source\skilladditioninfo.h
;	COMDAT ?GetBloodStormExplosionRate@CSkillAdditionInfo@@QAEHXZ
_TEXT	SEGMENT
?GetBloodStormExplosionRate@CSkillAdditionInfo@@QAEHXZ PROC ; CSkillAdditionInfo::GetBloodStormExplosionRate, COMDAT
; _this$ = ecx

; 49   : 	int GetBloodStormExplosionRate() { return this->m_iBloodStormExplosionRate; }

  00000	8b 41 38	 mov	 eax, DWORD PTR [ecx+56]
  00003	c3		 ret	 0
?GetBloodStormExplosionRate@CSkillAdditionInfo@@QAEHXZ ENDP ; CSkillAdditionInfo::GetBloodStormExplosionRate
_TEXT	ENDS
; Function compile flags: /Ogtp
; File c:\users\michel\desktop\source\gameserver\source\skilladditioninfo.h
;	COMDAT ?GetFireScreamExplosionRate@CSkillAdditionInfo@@QAEHXZ
_TEXT	SEGMENT
?GetFireScreamExplosionRate@CSkillAdditionInfo@@QAEHXZ PROC ; CSkillAdditionInfo::GetFireScreamExplosionRate, COMDAT
; _this$ = ecx

; 39   : 	int GetFireScreamExplosionRate(){return this->m_iFireScreamExplosionRate;}

  00000	8b 41 24	 mov	 eax, DWORD PTR [ecx+36]
  00003	c3		 ret	 0
?GetFireScreamExplosionRate@CSkillAdditionInfo@@QAEHXZ ENDP ; CSkillAdditionInfo::GetFireScreamExplosionRate
_TEXT	ENDS
; Function compile flags: /Ogtp
; File c:\users\michel\desktop\source\gameserver\source\skilladditioninfo.h
;	COMDAT ?GetFireScreamExplosionAttackDistance@CSkillAdditionInfo@@QAEHXZ
_TEXT	SEGMENT
?GetFireScreamExplosionAttackDistance@CSkillAdditionInfo@@QAEHXZ PROC ; CSkillAdditionInfo::GetFireScreamExplosionAttackDistance, COMDAT
; _this$ = ecx

; 37   : 	int GetFireScreamExplosionAttackDistance(){return this->m_iFireScreamExplosionAttackDistance;}

  00000	8b 41 20	 mov	 eax, DWORD PTR [ecx+32]
  00003	c3		 ret	 0
?GetFireScreamExplosionAttackDistance@CSkillAdditionInfo@@QAEHXZ ENDP ; CSkillAdditionInfo::GetFireScreamExplosionAttackDistance
_TEXT	ENDS
; Function compile flags: /Ogtp
; File c:\users\michel\desktop\source\gameserver\source\skilladditioninfo.h
;	COMDAT ?GetFireScreamSkill@CSkillAdditionInfo@@QAEHXZ
_TEXT	SEGMENT
?GetFireScreamSkill@CSkillAdditionInfo@@QAEHXZ PROC	; CSkillAdditionInfo::GetFireScreamSkill, COMDAT
; _this$ = ecx

; 35   : 	BOOL GetFireScreamSkill(){return this->m_bFireScreamSkill;}

  00000	8b 41 1c	 mov	 eax, DWORD PTR [ecx+28]
  00003	c3		 ret	 0
?GetFireScreamSkill@CSkillAdditionInfo@@QAEHXZ ENDP	; CSkillAdditionInfo::GetFireScreamSkill
_TEXT	ENDS
; Function compile flags: /Ogtp
; File c:\users\michel\desktop\source\gameserver\source\skilladditioninfo.h
;	COMDAT ?GetInfinityArrowMPConsumptionPlus3@CSkillAdditionInfo@@QAEHXZ
_TEXT	SEGMENT
?GetInfinityArrowMPConsumptionPlus3@CSkillAdditionInfo@@QAEHXZ PROC ; CSkillAdditionInfo::GetInfinityArrowMPConsumptionPlus3, COMDAT
; _this$ = ecx

; 33   : 	int GetInfinityArrowMPConsumptionPlus3(){return this->m_iInfinityArrowMPConsumptionPlus3;}

  00000	8b 41 18	 mov	 eax, DWORD PTR [ecx+24]
  00003	c3		 ret	 0
?GetInfinityArrowMPConsumptionPlus3@CSkillAdditionInfo@@QAEHXZ ENDP ; CSkillAdditionInfo::GetInfinityArrowMPConsumptionPlus3
_TEXT	ENDS
; Function compile flags: /Ogtp
; File c:\users\michel\desktop\source\gameserver\source\skilladditioninfo.h
;	COMDAT ?GetInfinityArrowMPConsumptionPlus2@CSkillAdditionInfo@@QAEHXZ
_TEXT	SEGMENT
?GetInfinityArrowMPConsumptionPlus2@CSkillAdditionInfo@@QAEHXZ PROC ; CSkillAdditionInfo::GetInfinityArrowMPConsumptionPlus2, COMDAT
; _this$ = ecx

; 31   : 	int GetInfinityArrowMPConsumptionPlus2(){return this->m_iInfinityArrowMPConsumptionPlus2;}

  00000	8b 41 14	 mov	 eax, DWORD PTR [ecx+20]
  00003	c3		 ret	 0
?GetInfinityArrowMPConsumptionPlus2@CSkillAdditionInfo@@QAEHXZ ENDP ; CSkillAdditionInfo::GetInfinityArrowMPConsumptionPlus2
_TEXT	ENDS
; Function compile flags: /Ogtp
; File c:\users\michel\desktop\source\gameserver\source\skilladditioninfo.h
;	COMDAT ?GetInfinityArrowMPConsumptionPlus1@CSkillAdditionInfo@@QAEHXZ
_TEXT	SEGMENT
?GetInfinityArrowMPConsumptionPlus1@CSkillAdditionInfo@@QAEHXZ PROC ; CSkillAdditionInfo::GetInfinityArrowMPConsumptionPlus1, COMDAT
; _this$ = ecx

; 29   : 	int GetInfinityArrowMPConsumptionPlus1(){return this->m_iInfinityArrowMPConsumptionPlus1;}

  00000	8b 41 10	 mov	 eax, DWORD PTR [ecx+16]
  00003	c3		 ret	 0
?GetInfinityArrowMPConsumptionPlus1@CSkillAdditionInfo@@QAEHXZ ENDP ; CSkillAdditionInfo::GetInfinityArrowMPConsumptionPlus1
_TEXT	ENDS
; Function compile flags: /Ogtp
; File c:\users\michel\desktop\source\gameserver\source\skilladditioninfo.h
;	COMDAT ?GetInfinityArrowMPConsumptionPlus0@CSkillAdditionInfo@@QAEHXZ
_TEXT	SEGMENT
?GetInfinityArrowMPConsumptionPlus0@CSkillAdditionInfo@@QAEHXZ PROC ; CSkillAdditionInfo::GetInfinityArrowMPConsumptionPlus0, COMDAT
; _this$ = ecx

; 27   : 	int GetInfinityArrowMPConsumptionPlus0(){return this->m_iInfinityArrowMPConsumptionPlus0;}

  00000	8b 41 0c	 mov	 eax, DWORD PTR [ecx+12]
  00003	c3		 ret	 0
?GetInfinityArrowMPConsumptionPlus0@CSkillAdditionInfo@@QAEHXZ ENDP ; CSkillAdditionInfo::GetInfinityArrowMPConsumptionPlus0
_TEXT	ENDS
; Function compile flags: /Ogtp
; File c:\users\michel\desktop\source\gameserver\source\skilladditioninfo.h
;	COMDAT ?GetInfinityArrowSkillTime@CSkillAdditionInfo@@QAEHXZ
_TEXT	SEGMENT
?GetInfinityArrowSkillTime@CSkillAdditionInfo@@QAEHXZ PROC ; CSkillAdditionInfo::GetInfinityArrowSkillTime, COMDAT
; _this$ = ecx

; 23   : 	int GetInfinityArrowSkillTime(){return this->m_iInfinityArrowSkillTime;}

  00000	8b 41 04	 mov	 eax, DWORD PTR [ecx+4]
  00003	c3		 ret	 0
?GetInfinityArrowSkillTime@CSkillAdditionInfo@@QAEHXZ ENDP ; CSkillAdditionInfo::GetInfinityArrowSkillTime
_TEXT	ENDS
; Function compile flags: /Ogtp
; File c:\users\michel\desktop\source\gameserver\source\objuseskill.cpp
;	COMDAT ?DecPartyMemberHPandMP@@YAHPAUOBJECTSTRUCT@@@Z
_TEXT	SEGMENT
tv293 = -8						; size = 4
tv292 = -4						; size = 4
_retcount$1$ = 8					; size = 4
_lpObj$ = 8						; size = 4
?DecPartyMemberHPandMP@@YAHPAUOBJECTSTRUCT@@@Z PROC	; DecPartyMemberHPandMP, COMDAT

; 3269 : {

  00000	55		 push	 ebp
  00001	8b ec		 mov	 ebp, esp
  00003	83 ec 08	 sub	 esp, 8
  00006	57		 push	 edi

; 3270 : 	LPOBJ lpPartyObj;
; 3271 : 	int partynum = lpObj->PartyNumber;

  00007	8b 7d 08	 mov	 edi, DWORD PTR _lpObj$[ebp]
  0000a	8b 8f 0c 06 00
	00		 mov	 ecx, DWORD PTR [edi+1548]

; 3272 : 
; 3273 : 	if(OBJMAX_RANGE(partynum)==false)

  00010	85 c9		 test	 ecx, ecx
  00012	0f 88 67 01 00
	00		 js	 $LN16@DecPartyMe
  00018	33 c0		 xor	 eax, eax
  0001a	81 f9 eb 2c 00
	00		 cmp	 ecx, 11499		; 00002cebH
  00020	0f 9e c0	 setle	 al
  00023	85 c0		 test	 eax, eax
  00025	0f 84 54 01 00
	00		 je	 $LN16@DecPartyMe

; 3277 : 	}
; 3278 : 
; 3279 : 	int partycount = gParty.m_PartyS[partynum].Count;
; 3280 : 	int retcount = 0;

  0002b	8b c1		 mov	 eax, ecx
  0002d	33 d2		 xor	 edx, edx
  0002f	c1 e0 04	 shl	 eax, 4
  00032	53		 push	 ebx
  00033	2b c1		 sub	 eax, ecx
  00035	89 55 08	 mov	 DWORD PTR _retcount$1$[ebp], edx
  00038	56		 push	 esi
  00039	be 05 00 00 00	 mov	 esi, 5
  0003e	89 75 f8	 mov	 DWORD PTR tv293[ebp], esi
  00041	8d 1c 85 0c 00
	00 00		 lea	 ebx, DWORD PTR ?gParty@@3VPartyClass@@A[eax*4+12]
  00048	0f 1f 84 00 00
	00 00 00	 npad	 8
$LL4@DecPartyMe:

; 3283 : 	{
; 3284 : 		int number = gParty.m_PartyS[partynum].Number[n];

  00050	8b 0b		 mov	 ecx, DWORD PTR [ebx]

; 3285 : 
; 3286 : 		if(number >= 0)

  00052	85 c9		 test	 ecx, ecx
  00054	0f 88 0d 01 00
	00		 js	 $LN2@DecPartyMe

; 3287 : 		{
; 3288 : 			lpPartyObj = &gObj[number];
; 3289 : 
; 3290 : 			if(lpObj->MapNumber == lpPartyObj->MapNumber && lpObj->m_Index != number)

  0005a	8a 87 23 01 00
	00		 mov	 al, BYTE PTR [edi+291]
  00060	69 d1 40 27 00
	00		 imul	 edx, ecx, 10048
  00066	89 55 fc	 mov	 DWORD PTR tv292[ebp], edx
  00069	03 15 00 00 00
	00		 add	 edx, DWORD PTR ?gObj@@3PAUOBJECTSTRUCT@@A ; gObj
  0006f	3a 82 23 01 00
	00		 cmp	 al, BYTE PTR [edx+291]
  00075	0f 85 e9 00 00
	00		 jne	 $LN20@DecPartyMe
  0007b	39 0f		 cmp	 DWORD PTR [edi], ecx
  0007d	0f 84 e1 00 00
	00		 je	 $LN20@DecPartyMe

; 3291 : 			{
; 3292 : 				int dis = gObjCalDistance(lpObj,&gObj[number]);

  00083	52		 push	 edx
  00084	57		 push	 edi
  00085	e8 00 00 00 00	 call	 ?gObjCalDistance@@YAHPAUOBJECTSTRUCT@@0@Z ; gObjCalDistance
  0008a	83 c4 08	 add	 esp, 8

; 3293 : 				if(dis < 10)

  0008d	83 f8 0a	 cmp	 eax, 10			; 0000000aH
  00090	0f 8d ce 00 00
	00		 jge	 $LN20@DecPartyMe

; 3294 : 				{
; 3295 : 					lpPartyObj = &gObj[number];

  00096	8b 35 00 00 00
	00		 mov	 esi, DWORD PTR ?gObj@@3PAUOBJECTSTRUCT@@A ; gObj

; 3296 : 
; 3297 : 					int declife = (int)(lpPartyObj->Life * 20.0f / 100.0f);

  0009c	8b 4d fc	 mov	 ecx, DWORD PTR tv292[ebp]
  0009f	f3 0f 10 84 31
	d8 00 00 00	 movss	 xmm0, DWORD PTR [ecx+esi+216]
  000a8	f3 0f 59 05 00
	00 00 00	 mulss	 xmm0, DWORD PTR __real@41a00000

; 3298 : 					int decmana = (int)(lpPartyObj->Mana * 5.0f / 100.0f);
; 3299 : 
; 3300 : 					lpPartyObj->Life = lpPartyObj->Life - declife;

  000b0	f3 0f 10 94 31
	d8 00 00 00	 movss	 xmm2, DWORD PTR [ecx+esi+216]
  000b9	f3 0f 10 8c 31
	ec 00 00 00	 movss	 xmm1, DWORD PTR [ecx+esi+236]
  000c2	f3 0f 5e 05 00
	00 00 00	 divss	 xmm0, DWORD PTR __real@42c80000
  000ca	f3 0f 2c c0	 cvttss2si eax, xmm0
  000ce	66 0f 6e c0	 movd	 xmm0, eax
  000d2	0f 5b c0	 cvtdq2ps xmm0, xmm0
  000d5	f3 0f 5c d0	 subss	 xmm2, xmm0
  000d9	0f 28 c1	 movaps	 xmm0, xmm1
  000dc	f3 0f 59 05 00
	00 00 00	 mulss	 xmm0, DWORD PTR __real@40a00000
  000e4	f3 0f 5e 05 00
	00 00 00	 divss	 xmm0, DWORD PTR __real@42c80000
  000ec	f3 0f 11 94 31
	d8 00 00 00	 movss	 DWORD PTR [ecx+esi+216], xmm2
  000f5	f3 0f 2c c0	 cvttss2si eax, xmm0
  000f9	66 0f 6e c0	 movd	 xmm0, eax

; 3301 : 					lpPartyObj->Mana = lpPartyObj->Mana - decmana;
; 3302 : 
; 3303 : 					GCReFillSend(lpPartyObj->m_Index,(WORD)lpPartyObj->Life,0xFF,0,lpPartyObj->iShield);

  000fd	0f b7 84 31 2c
	01 00 00	 movzx	 eax, WORD PTR [ecx+esi+300]
  00105	50		 push	 eax
  00106	f3 0f 2c c2	 cvttss2si eax, xmm2
  0010a	6a 00		 push	 0
  0010c	68 ff 00 00 00	 push	 255			; 000000ffH
  00111	0f 5b c0	 cvtdq2ps xmm0, xmm0
  00114	0f b7 c0	 movzx	 eax, ax
  00117	50		 push	 eax
  00118	ff 34 31	 push	 DWORD PTR [ecx+esi]
  0011b	f3 0f 5c c8	 subss	 xmm1, xmm0
  0011f	f3 0f 11 8c 31
	ec 00 00 00	 movss	 DWORD PTR [ecx+esi+236], xmm1
  00128	e8 00 00 00 00	 call	 ?GCReFillSend@@YAXHGEEG@Z ; GCReFillSend

; 3304 : 					GCManaSend(lpPartyObj->m_Index,(WORD)lpPartyObj->Mana,0xFF,0,lpPartyObj->BP);

  0012d	8b 55 fc	 mov	 edx, DWORD PTR tv292[ebp]
  00130	0f b7 84 32 04
	01 00 00	 movzx	 eax, WORD PTR [edx+esi+260]
  00138	50		 push	 eax
  00139	f3 0f 2c 84 32
	ec 00 00 00	 cvttss2si eax, DWORD PTR [edx+esi+236]
  00142	6a 00		 push	 0
  00144	68 ff 00 00 00	 push	 255			; 000000ffH
  00149	0f b7 c0	 movzx	 eax, ax
  0014c	50		 push	 eax
  0014d	ff 34 32	 push	 DWORD PTR [edx+esi]
  00150	e8 00 00 00 00	 call	 ?GCManaSend@@YAXHFEEG@Z	; GCManaSend

; 3305 : 
; 3306 : 					retcount++;

  00155	8b 55 08	 mov	 edx, DWORD PTR _retcount$1$[ebp]
  00158	83 c4 28	 add	 esp, 40			; 00000028H
  0015b	8b 75 f8	 mov	 esi, DWORD PTR tv293[ebp]
  0015e	42		 inc	 edx
  0015f	89 55 08	 mov	 DWORD PTR _retcount$1$[ebp], edx
  00162	eb 03		 jmp	 SHORT $LN2@DecPartyMe
$LN20@DecPartyMe:
  00164	8b 55 08	 mov	 edx, DWORD PTR _retcount$1$[ebp]
$LN2@DecPartyMe:

; 3281 : 
; 3282 : 	for(int n = 0; n < MAX_USER_IN_PARTY;n++)

  00167	83 c3 04	 add	 ebx, 4
  0016a	83 ee 01	 sub	 esi, 1
  0016d	89 75 f8	 mov	 DWORD PTR tv293[ebp], esi
  00170	0f 85 da fe ff
	ff		 jne	 $LL4@DecPartyMe

; 3307 : 				}
; 3308 : 			}
; 3309 : 		}
; 3310 : 	}
; 3311 : 
; 3312 : 	return retcount;

  00176	5e		 pop	 esi
  00177	5b		 pop	 ebx
  00178	8b c2		 mov	 eax, edx
  0017a	5f		 pop	 edi

; 3313 : }

  0017b	8b e5		 mov	 esp, ebp
  0017d	5d		 pop	 ebp
  0017e	c3		 ret	 0
$LN16@DecPartyMe:

; 3274 : 	{
; 3275 : 		LogAdd("error : DecPartyMemberHPandMP %s %d",__FILE__,__LINE__);

  0017f	68 cb 0c 00 00	 push	 3275			; 00000ccbH
  00184	68 00 00 00 00	 push	 OFFSET ??_C@_0BA@DNENMBIK@ObjUseSkill?4cpp?$AA@
  00189	68 00 00 00 00	 push	 OFFSET ??_C@_0CE@CEJHKGA@error?5?3?5DecPartyMemberHPandMP?5?$CFs@
  0018e	ff 15 00 00 00
	00		 call	 DWORD PTR ?LogAdd@@3P6AXPADZZA ; LogAdd
  00194	83 c4 0c	 add	 esp, 12			; 0000000cH

; 3276 : 		return false;

  00197	33 c0		 xor	 eax, eax
  00199	5f		 pop	 edi

; 3313 : }

  0019a	8b e5		 mov	 esp, ebp
  0019c	5d		 pop	 ebp
  0019d	c3		 ret	 0
?DecPartyMemberHPandMP@@YAHPAUOBJECTSTRUCT@@@Z ENDP	; DecPartyMemberHPandMP
_TEXT	ENDS
; Function compile flags: /Ogtp
;	COMDAT ??_GCObjUseSkill@@UAEPAXI@Z
_TEXT	SEGMENT
___flags$ = 8						; size = 4
??_GCObjUseSkill@@UAEPAXI@Z PROC			; CObjUseSkill::`scalar deleting destructor', COMDAT
; _this$ = ecx
  00000	55		 push	 ebp
  00001	8b ec		 mov	 ebp, esp
  00003	56		 push	 esi
  00004	8b f1		 mov	 esi, ecx
  00006	e8 00 00 00 00	 call	 ??1CObjUseSkill@@UAE@XZ	; CObjUseSkill::~CObjUseSkill
  0000b	f6 45 08 01	 test	 BYTE PTR ___flags$[ebp], 1
  0000f	74 0b		 je	 SHORT $LN4@scalar
  00011	6a 04		 push	 4
  00013	56		 push	 esi
  00014	e8 00 00 00 00	 call	 ??3@YAXPAXI@Z		; operator delete
  00019	83 c4 08	 add	 esp, 8
$LN4@scalar:
  0001c	8b c6		 mov	 eax, esi
  0001e	5e		 pop	 esi
  0001f	5d		 pop	 ebp
  00020	c2 04 00	 ret	 4
??_GCObjUseSkill@@UAEPAXI@Z ENDP			; CObjUseSkill::`scalar deleting destructor'
_TEXT	ENDS
; Function compile flags: /Ogtp
; File c:\users\michel\desktop\source\gameserver\source\objuseskill.cpp
; File c:\users\michel\desktop\source\gameserver\source\skilladditioninfo.h
; File c:\users\michel\desktop\source\gameserver\source\objuseskill.cpp
;	COMDAT ?BloodStormExplosionAttack@CObjUseSkill@@QAEHPAUOBJECTSTRUCT@@0H@Z
_TEXT	SEGMENT
_iExplosionDamage$1$ = -4				; size = 4
tv397 = 8						; size = 4
_lpObj$ = 8						; size = 4
_lpTargetObj$ = 12					; size = 4
tv402 = 16						; size = 4
_iAttackDamage$ = 16					; size = 4
?BloodStormExplosionAttack@CObjUseSkill@@QAEHPAUOBJECTSTRUCT@@0H@Z PROC ; CObjUseSkill::BloodStormExplosionAttack, COMDAT
; _this$ = ecx

; 6052 : {

  00000	55		 push	 ebp
  00001	8b ec		 mov	 ebp, esp
  00003	51		 push	 ecx
  00004	57		 push	 edi

; 6053 : 
; 6054 : 	if(gObjIsConnected(lpObj->m_Index) == false && gObjIsConnected(lpTargetObj->m_Index) == false)

  00005	8b 7d 08	 mov	 edi, DWORD PTR _lpObj$[ebp]
  00008	ff 37		 push	 DWORD PTR [edi]
  0000a	e8 00 00 00 00	 call	 ?gObjIsConnected@@YAHH@Z ; gObjIsConnected
  0000f	83 c4 04	 add	 esp, 4
  00012	85 c0		 test	 eax, eax
  00014	75 18		 jne	 SHORT $LN4@BloodStorm
  00016	8b 45 0c	 mov	 eax, DWORD PTR _lpTargetObj$[ebp]
  00019	ff 30		 push	 DWORD PTR [eax]
  0001b	e8 00 00 00 00	 call	 ?gObjIsConnected@@YAHH@Z ; gObjIsConnected
  00020	83 c4 04	 add	 esp, 4
  00023	85 c0		 test	 eax, eax
  00025	75 07		 jne	 SHORT $LN4@BloodStorm
  00027	5f		 pop	 edi

; 6127 : }

  00028	8b e5		 mov	 esp, ebp
  0002a	5d		 pop	 ebp
  0002b	c2 0c 00	 ret	 12			; 0000000cH
$LN4@BloodStorm:
  0002e	56		 push	 esi
; File c:\users\michel\desktop\source\gameserver\source\skilladditioninfo.h

; 49   : 	int GetBloodStormExplosionRate() { return this->m_iBloodStormExplosionRate; }

  0002f	8b 35 38 00 00
	00		 mov	 esi, DWORD PTR ?g_SkillAdditionInfo@@3VCSkillAdditionInfo@@A+56
; File c:\users\michel\desktop\source\gameserver\source\objuseskill.cpp

; 6059 : 	if(rand()%10000 > g_SkillAdditionInfo.GetBloodStormExplosionRate())

  00035	e8 00 00 00 00	 call	 _rand
  0003a	99		 cdq
  0003b	b9 10 27 00 00	 mov	 ecx, 10000		; 00002710H
  00040	f7 f9		 idiv	 ecx
  00042	3b d6		 cmp	 edx, esi
  00044	7e 0a		 jle	 SHORT $LN5@BloodStorm

; 6060 : 	{
; 6061 : 		return false;

  00046	5e		 pop	 esi
  00047	33 c0		 xor	 eax, eax
  00049	5f		 pop	 edi

; 6127 : }

  0004a	8b e5		 mov	 esp, ebp
  0004c	5d		 pop	 ebp
  0004d	c2 0c 00	 ret	 12			; 0000000cH
$LN5@BloodStorm:

; 6062 : 	}
; 6063 : 
; 6064 : 	int iExplosionDamage = iAttackDamage*g_SkillAdditionInfo.GetBloodStormExplosionDamage() / 100;

  00050	8b 0d 3c 00 00
	00		 mov	 ecx, DWORD PTR ?g_SkillAdditionInfo@@3VCSkillAdditionInfo@@A+60
  00056	b8 1f 85 eb 51	 mov	 eax, 1374389535		; 51eb851fH
  0005b	0f af 4d 10	 imul	 ecx, DWORD PTR _iAttackDamage$[ebp]
  0005f	f7 e9		 imul	 ecx
  00061	c1 fa 05	 sar	 edx, 5
  00064	8b c2		 mov	 eax, edx
  00066	c1 e8 1f	 shr	 eax, 31			; 0000001fH
  00069	03 c2		 add	 eax, edx
  0006b	89 45 fc	 mov	 DWORD PTR _iExplosionDamage$1$[ebp], eax

; 6065 : 	int iTarObjNum;
; 6066 : 
; 6067 : 	if(iExplosionDamage < 1)

  0006e	83 f8 01	 cmp	 eax, 1
  00071	0f 8c e0 00 00
	00		 jl	 $LN44@BloodStorm

; 6068 : 	{
; 6069 : 		return true;
; 6070 : 	}
; 6071 : 
; 6072 : 	int iCount = 0;

  00077	b8 4b 00 00 00	 mov	 eax, 75			; 0000004bH
  0007c	8d b7 4a 0c 00
	00		 lea	 esi, DWORD PTR [edi+3146]
  00082	89 45 08	 mov	 DWORD PTR tv397[ebp], eax
  00085	53		 push	 ebx
$LL2@BloodStorm:

; 6073 : 	int bEnableAttack;
; 6074 : 
; 6075 : 	while( true )
; 6076 : 	{
; 6077 : 		if(lpObj->VpPlayer2[iCount].state != 0)

  00086	80 7e fe 00	 cmp	 BYTE PTR [esi-2], 0
  0008a	0f 84 b7 00 00
	00		 je	 $LN35@BloodStorm

; 6078 : 		{
; 6079 : 			iTarObjNum = lpObj->VpPlayer2[iCount].number;

  00090	0f bf 1e	 movsx	 ebx, WORD PTR [esi]

; 6080 : 
; 6081 : 			if(iTarObjNum >= 0)

  00093	85 db		 test	 ebx, ebx
  00095	0f 88 ac 00 00
	00		 js	 $LN35@BloodStorm

; 6082 : 			{
; 6083 : 				bEnableAttack = 0;
; 6084 : 
; 6085 : 				if(gObj[iTarObjNum].Type == OBJ_MONSTER && gObj[iTarObjNum].m_RecallMon < 0)

  0009b	a1 00 00 00 00	 mov	 eax, DWORD PTR ?gObj@@3PAUOBJECTSTRUCT@@A ; gObj
  000a0	69 cb 40 27 00
	00		 imul	 ecx, ebx, 10048
  000a6	89 4d 10	 mov	 DWORD PTR tv402[ebp], ecx
  000a9	03 c8		 add	 ecx, eax
  000ab	8a 41 50	 mov	 al, BYTE PTR [ecx+80]
  000ae	3c 02		 cmp	 al, 2
  000b0	75 09		 jne	 SHORT $LN9@BloodStorm
  000b2	83 b9 30 06 00
	00 00		 cmp	 DWORD PTR [ecx+1584], 0
  000b9	7c 5a		 jl	 SHORT $LN36@BloodStorm
$LN9@BloodStorm:

; 6086 : 				{
; 6087 : 					bEnableAttack = 1;
; 6088 : 				}
; 6089 : 				else if(lpTargetObj->Type == OBJ_USER && lpObj->Type == OBJ_USER && gObj[iTarObjNum].Type != OBJ_NPC)

  000bb	8b 55 0c	 mov	 edx, DWORD PTR _lpTargetObj$[ebp]
  000be	80 7a 50 01	 cmp	 BYTE PTR [edx+80], 1
  000c2	75 0a		 jne	 SHORT $LN11@BloodStorm
  000c4	80 7f 50 01	 cmp	 BYTE PTR [edi+80], 1
  000c8	75 04		 jne	 SHORT $LN11@BloodStorm
  000ca	3c 03		 cmp	 al, 3
  000cc	75 4a		 jne	 SHORT $LN34@BloodStorm
$LN11@BloodStorm:

; 6090 : 				{
; 6091 : 					bEnableAttack = 1;
; 6092 : 				}
; 6093 : 				else if(lpTargetObj->m_cChaosCastleIndex == gObj[iTarObjNum].m_cChaosCastleIndex && lpTargetObj->m_cChaosCastleIndex != -1)

  000ce	8a 82 3d 12 00
	00		 mov	 al, BYTE PTR [edx+4669]
  000d4	3a 81 3d 12 00
	00		 cmp	 al, BYTE PTR [ecx+4669]
  000da	75 04		 jne	 SHORT $LN13@BloodStorm
  000dc	3c ff		 cmp	 al, -1
  000de	75 38		 jne	 SHORT $LN34@BloodStorm
$LN13@BloodStorm:

; 6094 : 				{
; 6095 : 					bEnableAttack = 1;
; 6096 : 				}
; 6097 : #if (GS_CASTLE == 1)
; 6098 : 				else if(lpObj->VpPlayer2[iCount].type != OBJ_NPC && gObj[iTarObjNum].MapNumber == MAP_INDEX_CASTLESIEGE && g_CastleSiege.GetCastleState() == 7)

  000e0	80 7e 02 03	 cmp	 BYTE PTR [esi+2], 3
  000e4	74 5e		 je	 SHORT $LN42@BloodStorm
  000e6	80 b9 23 01 00
	00 1e		 cmp	 BYTE PTR [ecx+291], 30	; 0000001eH
  000ed	75 55		 jne	 SHORT $LN42@BloodStorm
  000ef	b9 00 00 00 00	 mov	 ecx, OFFSET ?g_CastleSiege@@3VCCastleSiege@@A ; g_CastleSiege
  000f4	e8 00 00 00 00	 call	 ?GetCastleState@CCastleSiege@@QAEHXZ ; CCastleSiege::GetCastleState
  000f9	83 f8 07	 cmp	 eax, 7
  000fc	75 46		 jne	 SHORT $LN42@BloodStorm

; 6099 : 				{
; 6100 : 					if( lpObj->m_btCsJoinSide != gObj[iTarObjNum].m_btCsJoinSide )

  000fe	8b 4d 10	 mov	 ecx, DWORD PTR tv402[ebp]
  00101	03 0d 00 00 00
	00		 add	 ecx, DWORD PTR ?gObj@@3PAUOBJECTSTRUCT@@A ; gObj
  00107	8a 87 5a 20 00
	00		 mov	 al, BYTE PTR [edi+8282]
  0010d	3a 81 5a 20 00
	00		 cmp	 al, BYTE PTR [ecx+8282]
  00113	74 2f		 je	 SHORT $LN42@BloodStorm
$LN36@BloodStorm:
  00115	8b 55 0c	 mov	 edx, DWORD PTR _lpTargetObj$[ebp]
$LN34@BloodStorm:

; 6101 : 						bEnableAttack = 1;
; 6102 : 				}
; 6103 : #endif
; 6104 : 				if(bEnableAttack != 0)
; 6105 : 				{
; 6106 : 					if(lpObj->m_Index != gObj[iTarObjNum].m_Index)

  00118	8b 07		 mov	 eax, DWORD PTR [edi]
  0011a	3b 01		 cmp	 eax, DWORD PTR [ecx]
  0011c	74 26		 je	 SHORT $LN42@BloodStorm

; 6107 : 					{
; 6108 : 						int iSkillDistance = gObjCalDistance(lpTargetObj,&gObj[iTarObjNum]);

  0011e	51		 push	 ecx
  0011f	52		 push	 edx
  00120	e8 00 00 00 00	 call	 ?gObjCalDistance@@YAHPAUOBJECTSTRUCT@@0@Z ; gObjCalDistance
  00125	83 c4 08	 add	 esp, 8

; 6109 : 
; 6110 : 						if(iSkillDistance <= g_SkillAdditionInfo.GetBloodStormExplosionDistance())

  00128	3b 05 34 00 00
	00		 cmp	 eax, DWORD PTR ?g_SkillAdditionInfo@@3VCSkillAdditionInfo@@A+52
  0012e	7f 14		 jg	 SHORT $LN42@BloodStorm

; 6111 : 						{
; 6112 : 							gObjAddMsgSendDelay(lpObj,54,iTarObjNum,800,iExplosionDamage);

  00130	ff 75 fc	 push	 DWORD PTR _iExplosionDamage$1$[ebp]
  00133	68 20 03 00 00	 push	 800			; 00000320H
  00138	53		 push	 ebx
  00139	6a 36		 push	 54			; 00000036H
  0013b	57		 push	 edi
  0013c	e8 00 00 00 00	 call	 ?gObjAddMsgSendDelay@@YAXPAUOBJECTSTRUCT@@HHHH@Z ; gObjAddMsgSendDelay
  00141	83 c4 14	 add	 esp, 20			; 00000014H
$LN42@BloodStorm:
  00144	8b 45 08	 mov	 eax, DWORD PTR tv397[ebp]
$LN35@BloodStorm:

; 6113 : 						}
; 6114 : 					}
; 6115 : 				}
; 6116 : 			}
; 6117 : 		}
; 6118 : 
; 6119 : 		iCount++;

  00147	83 c6 0c	 add	 esi, 12			; 0000000cH

; 6120 : 
; 6121 : 		if(iCount > MAX_VIEWPORT -1)

  0014a	83 e8 01	 sub	 eax, 1
  0014d	89 45 08	 mov	 DWORD PTR tv397[ebp], eax
  00150	0f 85 30 ff ff
	ff		 jne	 $LL2@BloodStorm
  00156	5b		 pop	 ebx
$LN44@BloodStorm:
  00157	5e		 pop	 esi

; 6122 : 		{
; 6123 : 			break;
; 6124 : 		}
; 6125 : 	}
; 6126 : 	return true;

  00158	b8 01 00 00 00	 mov	 eax, 1
  0015d	5f		 pop	 edi

; 6127 : }

  0015e	8b e5		 mov	 esp, ebp
  00160	5d		 pop	 ebp
  00161	c2 0c 00	 ret	 12			; 0000000cH
?BloodStormExplosionAttack@CObjUseSkill@@QAEHPAUOBJECTSTRUCT@@0H@Z ENDP ; CObjUseSkill::BloodStormExplosionAttack
_TEXT	ENDS
; Function compile flags: /Ogtp
; File c:\users\michel\desktop\source\gameserver\source\objuseskill.cpp
;	COMDAT ?SkillBloodStorm@CObjUseSkill@@QAEXHHPAVCMagicInf@@H@Z
_TEXT	SEGMENT
_DuelIndex$1$ = -20					; size = 4
_HitCount$1$ = -16					; size = 4
_bAttack$1$ = -12					; size = 4
tv492 = -8						; size = 4
tv491 = -4						; size = 4
_lpObj$1$ = 8						; size = 4
_aIndex$ = 8						; size = 4
_aTargetIndex$ = 12					; size = 4
_lpMagic$ = 16						; size = 4
_isCombo$ = 20						; size = 4
?SkillBloodStorm@CObjUseSkill@@QAEXHHPAVCMagicInf@@H@Z PROC ; CObjUseSkill::SkillBloodStorm, COMDAT
; _this$ = ecx

; 5948 : {

  00000	55		 push	 ebp
  00001	8b ec		 mov	 ebp, esp
  00003	83 ec 14	 sub	 esp, 20			; 00000014H
  00006	53		 push	 ebx
  00007	56		 push	 esi

; 5949 : 	LPOBJ lpObj = &gObj[aIndex];
; 5950 : 	int tmpvar = 0;
; 5951 : 	int bAttack = 0;

  00008	33 c0		 xor	 eax, eax

; 5952 : 	int tObjNum;
; 5953 : 	int count = 0;
; 5954 : 	int HitCount = 0;

  0000a	33 c9		 xor	 ecx, ecx
  0000c	57		 push	 edi
  0000d	69 7d 08 40 27
	00 00		 imul	 edi, DWORD PTR _aIndex$[ebp], 10048
  00014	89 45 f4	 mov	 DWORD PTR _bAttack$1$[ebp], eax

; 5955 : 
; 5956 : 	GCMagicAttackNumberSend(lpObj,lpMagic->m_Skill,aTargetIndex,1);

  00017	8b 45 10	 mov	 eax, DWORD PTR _lpMagic$[ebp]
  0001a	6a 01		 push	 1
  0001c	ff 75 0c	 push	 DWORD PTR _aTargetIndex$[ebp]
  0001f	03 3d 00 00 00
	00		 add	 edi, DWORD PTR ?gObj@@3PAUOBJECTSTRUCT@@A ; gObj
  00025	0f b7 40 08	 movzx	 eax, WORD PTR [eax+8]
  00029	50		 push	 eax
  0002a	57		 push	 edi
  0002b	89 7d 08	 mov	 DWORD PTR _lpObj$1$[ebp], edi
  0002e	89 4d f0	 mov	 DWORD PTR _HitCount$1$[ebp], ecx
  00031	e8 00 00 00 00	 call	 ?GCMagicAttackNumberSend@@YAXPAUOBJECTSTRUCT@@GHE@Z ; GCMagicAttackNumberSend

; 5957 : 
; 5958 : 	int EnableAttack;
; 5959 : 	int bForceAttack = TRUE;
; 5960 : 	int DuelIndex = lpObj->m_iDuelUser;

  00036	8b 87 50 12 00
	00		 mov	 eax, DWORD PTR [edi+4688]
  0003c	83 c4 10	 add	 esp, 16			; 00000010H
  0003f	8b 0d 00 00 00
	00		 mov	 ecx, DWORD PTR ?gObj@@3PAUOBJECTSTRUCT@@A ; gObj
  00045	ba 4b 00 00 00	 mov	 edx, 75			; 0000004bH
  0004a	89 45 ec	 mov	 DWORD PTR _DuelIndex$1$[ebp], eax
  0004d	8d 87 4c 0c 00
	00		 lea	 eax, DWORD PTR [edi+3148]
  00053	89 45 fc	 mov	 DWORD PTR tv491[ebp], eax
  00056	c7 45 f8 4b 00
	00 00		 mov	 DWORD PTR tv492[ebp], 75 ; 0000004bH
  0005d	0f 1f 00	 npad	 3
$LL2@SkillBlood:

; 5961 : 
; 5962 : 	while ( true )
; 5963 : 	{
; 5964 : 		if(lpObj->VpPlayer2[count].state != 0)

  00060	80 78 fc 00	 cmp	 BYTE PTR [eax-4], 0
  00064	0f 84 b4 00 00
	00		 je	 $LN27@SkillBlood

; 5965 : 		{
; 5966 : 			tObjNum = lpObj->VpPlayer2[count].number;

  0006a	0f bf 70 fe	 movsx	 esi, WORD PTR [eax-2]

; 5967 : 
; 5968 : 			if(tObjNum >= 0)

  0006e	85 f6		 test	 esi, esi
  00070	0f 88 a8 00 00
	00		 js	 $LN27@SkillBlood

; 5969 : 			{
; 5970 : 				EnableAttack = 0;
; 5971 : 
; 5972 : 				if(lpObj->VpPlayer2[count].type == OBJ_MONSTER && gObj[tObjNum].m_RecallMon < 0)

  00076	8a 18		 mov	 bl, BYTE PTR [eax]
  00078	80 fb 02	 cmp	 bl, 2
  0007b	75 14		 jne	 SHORT $LN6@SkillBlood
  0007d	69 c6 40 27 00
	00		 imul	 eax, esi, 10048
  00083	83 bc 08 30 06
	00 00 00	 cmp	 DWORD PTR [eax+ecx+1584], 0
  0008b	0f 8c f0 00 00
	00		 jl	 $LN52@SkillBlood
$LN6@SkillBlood:

; 5973 : 				{
; 5974 : 					EnableAttack = 1;
; 5975 : 				}
; 5976 : 				else if( CC_MAP_RANGE( lpObj->MapNumber ) || IT_MAP_RANGE( lpObj->MapNumber ) )

  00091	8a 97 23 01 00
	00		 mov	 dl, BYTE PTR [edi+291]
  00097	80 fa 35	 cmp	 dl, 53			; 00000035H
  0009a	0f 84 e1 00 00
	00		 je	 $LN52@SkillBlood
  000a0	80 fa 12	 cmp	 dl, 18			; 00000012H
  000a3	72 0f		 jb	 SHORT $LN43@SkillBlood
  000a5	b0 17		 mov	 al, 23			; 00000017H
  000a7	3a c2		 cmp	 al, dl
  000a9	1b c0		 sbb	 eax, eax
  000ab	83 c0 01	 add	 eax, 1
  000ae	0f 85 cd 00 00
	00		 jne	 $LN52@SkillBlood
$LN43@SkillBlood:
  000b4	80 fa 2d	 cmp	 dl, 45			; 0000002dH
  000b7	72 0f		 jb	 SHORT $LN44@SkillBlood
  000b9	b0 32		 mov	 al, 50			; 00000032H
  000bb	3a c2		 cmp	 al, dl
  000bd	1b c0		 sbb	 eax, eax
  000bf	83 c0 01	 add	 eax, 1
  000c2	0f 85 b9 00 00
	00		 jne	 $LN52@SkillBlood
$LN44@SkillBlood:

; 5977 : 				{
; 5978 : 					EnableAttack = 1;
; 5979 : 				}
; 5980 : 				else if( (tObjNum == aTargetIndex && bForceAttack == TRUE ) || DuelIndex == tObjNum)

  000c8	3b 75 0c	 cmp	 esi, DWORD PTR _aTargetIndex$[ebp]
  000cb	0f 84 b0 00 00
	00		 je	 $LN52@SkillBlood
  000d1	39 75 ec	 cmp	 DWORD PTR _DuelIndex$1$[ebp], esi
  000d4	0f 84 a7 00 00
	00		 je	 $LN52@SkillBlood

; 5981 : 				{
; 5982 : 					EnableAttack = 1;
; 5983 : 				}
; 5984 : #if (GS_CASTLE == 1)
; 5985 : 				else if(lpObj->VpPlayer2[count].type != OBJ_NPC && gObj[tObjNum].MapNumber == MAP_INDEX_CASTLESIEGE && g_CastleSiege.GetCastleState() == 7)

  000da	80 fb 03	 cmp	 bl, 3
  000dd	74 5d		 je	 SHORT $LN15@SkillBlood
  000df	69 fe 40 27 00
	00		 imul	 edi, esi, 10048
  000e5	80 bc 0f 23 01
	00 00 1e	 cmp	 BYTE PTR [edi+ecx+291], 30 ; 0000001eH
  000ed	75 4a		 jne	 SHORT $LN57@SkillBlood
  000ef	b9 00 00 00 00	 mov	 ecx, OFFSET ?g_CastleSiege@@3VCCastleSiege@@A ; g_CastleSiege
  000f4	e8 00 00 00 00	 call	 ?GetCastleState@CCastleSiege@@QAEHXZ ; CCastleSiege::GetCastleState

; 5986 : 				{
; 5987 : 					if( lpObj->m_btCsJoinSide != gObj[tObjNum].m_btCsJoinSide )

  000f9	8b 0d 00 00 00
	00		 mov	 ecx, DWORD PTR ?gObj@@3PAUOBJECTSTRUCT@@A ; gObj
  000ff	83 f8 07	 cmp	 eax, 7
  00102	75 35		 jne	 SHORT $LN57@SkillBlood
  00104	8b 5d 08	 mov	 ebx, DWORD PTR _lpObj$1$[ebp]
  00107	8a 83 5a 20 00
	00		 mov	 al, BYTE PTR [ebx+8282]
  0010d	3a 84 0f 5a 20
	00 00		 cmp	 al, BYTE PTR [edi+ecx+8282]
  00114	75 6e		 jne	 SHORT $LN10@SkillBlood
  00116	8b fb		 mov	 edi, ebx
$LN60@SkillBlood:
  00118	8b 55 f8	 mov	 edx, DWORD PTR tv492[ebp]
  0011b	8b 45 fc	 mov	 eax, DWORD PTR tv491[ebp]
$LN27@SkillBlood:

; 6036 : 							}
; 6037 : 						}
; 6038 : 					}
; 6039 : 				}
; 6040 : 			}
; 6041 : 		}
; 6042 : 
; 6043 : 		count++;

  0011e	83 c0 0c	 add	 eax, 12			; 0000000cH

; 6044 : 		if(count > MAX_VIEWPORT -1)

  00121	83 ea 01	 sub	 edx, 1
  00124	89 45 fc	 mov	 DWORD PTR tv491[ebp], eax
  00127	89 55 f8	 mov	 DWORD PTR tv492[ebp], edx
  0012a	0f 85 30 ff ff
	ff		 jne	 $LL2@SkillBlood
  00130	5f		 pop	 edi
  00131	5e		 pop	 esi
  00132	5b		 pop	 ebx

; 6045 : 		{
; 6046 : 			break;
; 6047 : 		}
; 6048 : 	}
; 6049 : }

  00133	8b e5		 mov	 esp, ebp
  00135	5d		 pop	 ebp
  00136	c2 10 00	 ret	 16			; 00000010H
$LN57@SkillBlood:
  00139	8b 7d 08	 mov	 edi, DWORD PTR _lpObj$1$[ebp]
$LN15@SkillBlood:

; 5988 : 						EnableAttack = 1;
; 5989 : 				}
; 5990 : #endif
; 5991 : 				else
; 5992 : 				{
; 5993 : 					int CallMonIndex = gObj[tObjNum].m_Index;

  0013c	69 c6 40 27 00
	00		 imul	 eax, esi, 10048

; 5994 : 
; 5995 : 					if(gObj[tObjNum].Type == OBJ_MONSTER && gObj[tObjNum].m_RecallMon >= 0)

  00142	80 7c 08 50 02	 cmp	 BYTE PTR [eax+ecx+80], 2
  00147	8b 14 08	 mov	 edx, DWORD PTR [eax+ecx]
  0014a	75 14		 jne	 SHORT $LN18@SkillBlood
  0014c	8b 84 08 30 06
	00 00		 mov	 eax, DWORD PTR [eax+ecx+1584]
  00153	85 c0		 test	 eax, eax
  00155	78 09		 js	 SHORT $LN18@SkillBlood

; 5996 : 					{
; 5997 : 						CallMonIndex = gObj[gObj[tObjNum].m_RecallMon].m_Index;

  00157	69 c0 40 27 00
	00		 imul	 eax, eax, 10048
  0015d	8b 14 08	 mov	 edx, DWORD PTR [eax+ecx]
$LN18@SkillBlood:

; 5998 : 					}
; 5999 : 
; 6000 : 					if(gObjTargetGuildWarCheck(lpObj,&gObj[CallMonIndex])==1)

  00160	69 c2 40 27 00
	00		 imul	 eax, edx, 10048
  00166	03 c1		 add	 eax, ecx
  00168	50		 push	 eax
  00169	57		 push	 edi
  0016a	e8 00 00 00 00	 call	 ?gObjTargetGuildWarCheck@@YAHPAUOBJECTSTRUCT@@0@Z ; gObjTargetGuildWarCheck
  0016f	83 c4 08	 add	 esp, 8
  00172	83 f8 01	 cmp	 eax, 1
  00175	0f 85 b5 00 00
	00		 jne	 $LN46@SkillBlood
  0017b	8b 0d 00 00 00
	00		 mov	 ecx, DWORD PTR ?gObj@@3PAUOBJECTSTRUCT@@A ; gObj
$LN52@SkillBlood:
  00181	8b 5d 08	 mov	 ebx, DWORD PTR _lpObj$1$[ebp]
$LN10@SkillBlood:

; 6001 : 					{
; 6002 : 						EnableAttack = 1;
; 6003 : 					}
; 6004 : 				}
; 6005 : 
; 6006 : 				if(EnableAttack != 0)
; 6007 : 				{
; 6008 : 					if(gObjCalDistance(lpObj,&gObj[tObjNum]) <= 3)

  00184	69 fe 40 27 00
	00		 imul	 edi, esi, 10048
  0018a	8d 04 0f	 lea	 eax, DWORD PTR [edi+ecx]
  0018d	50		 push	 eax
  0018e	53		 push	 ebx
  0018f	e8 00 00 00 00	 call	 ?gObjCalDistance@@YAHPAUOBJECTSTRUCT@@0@Z ; gObjCalDistance
  00194	83 c4 08	 add	 esp, 8
  00197	83 f8 03	 cmp	 eax, 3
  0019a	0f 8f 8d 00 00
	00		 jg	 $LN56@SkillBlood

; 6009 : 					{
; 6010 : 						HitCount++;

  001a0	8b 45 f0	 mov	 eax, DWORD PTR _HitCount$1$[ebp]
  001a3	40		 inc	 eax
  001a4	89 45 f0	 mov	 DWORD PTR _HitCount$1$[ebp], eax

; 6011 : 
; 6012 : 						if(HitCount > 5)

  001a7	83 f8 05	 cmp	 eax, 5
  001aa	7e 13		 jle	 SHORT $LN22@SkillBlood

; 6013 : 						{
; 6014 : 							if( rand()%2 )

  001ac	e8 00 00 00 00	 call	 _rand
  001b1	25 01 00 00 80	 and	 eax, -2147483647	; 80000001H
  001b6	79 05		 jns	 SHORT $LN59@SkillBlood
  001b8	48		 dec	 eax
  001b9	83 c8 fe	 or	 eax, -2			; fffffffeH
  001bc	40		 inc	 eax
$LN59@SkillBlood:
  001bd	74 0a		 je	 SHORT $LN58@SkillBlood
$LN22@SkillBlood:

; 6015 : 							{
; 6016 : 								bAttack = TRUE;

  001bf	b8 01 00 00 00	 mov	 eax, 1
  001c4	89 45 f4	 mov	 DWORD PTR _bAttack$1$[ebp], eax

; 6017 : 							}
; 6018 : 						}
; 6019 : 						else

  001c7	eb 03		 jmp	 SHORT $LN23@SkillBlood
$LN58@SkillBlood:
  001c9	8b 45 f4	 mov	 eax, DWORD PTR _bAttack$1$[ebp]
$LN23@SkillBlood:

; 6020 : 						{
; 6021 : 							bAttack = TRUE;
; 6022 : 						}
; 6023 : 
; 6024 : 						if(HitCount > 12)

  001cc	83 7d f0 0c	 cmp	 DWORD PTR _HitCount$1$[ebp], 12 ; 0000000cH
  001d0	7e 13		 jle	 SHORT $LN25@SkillBlood

; 6025 : 						{
; 6026 : 							bAttack = FALSE;
; 6027 : 						}
; 6028 : 
; 6029 : 						if(bAttack == TRUE)

  001d2	8b 0d 00 00 00
	00		 mov	 ecx, DWORD PTR ?gObj@@3PAUOBJECTSTRUCT@@A ; gObj
  001d8	33 c0		 xor	 eax, eax
  001da	8b 7d 08	 mov	 edi, DWORD PTR _lpObj$1$[ebp]
  001dd	89 45 f4	 mov	 DWORD PTR _bAttack$1$[ebp], eax
  001e0	e9 33 ff ff ff	 jmp	 $LN60@SkillBlood
$LN25@SkillBlood:
  001e5	83 f8 01	 cmp	 eax, 1
  001e8	75 43		 jne	 SHORT $LN56@SkillBlood

; 6030 : 						{
; 6031 : 							gObjAddAttackProcMsgSendDelay(lpObj,50,tObjNum,500,lpMagic->m_Skill,isCombo);

  001ea	ff 75 14	 push	 DWORD PTR _isCombo$[ebp]
  001ed	8b 45 10	 mov	 eax, DWORD PTR _lpMagic$[ebp]
  001f0	ff 70 08	 push	 DWORD PTR [eax+8]
  001f3	68 f4 01 00 00	 push	 500			; 000001f4H
  001f8	56		 push	 esi
  001f9	6a 32		 push	 50			; 00000032H
  001fb	53		 push	 ebx
  001fc	e8 00 00 00 00	 call	 ?gObjAddAttackProcMsgSendDelay@@YAXPAUOBJECTSTRUCT@@HHHHH@Z ; gObjAddAttackProcMsgSendDelay
  00201	83 c4 18	 add	 esp, 24			; 00000018H

; 6032 : 
; 6033 : 							if(isCombo != 0)

  00204	83 7d 14 00	 cmp	 DWORD PTR _isCombo$[ebp], 0
  00208	74 23		 je	 SHORT $LN56@SkillBlood

; 6034 : 							{
; 6035 : 								GCMagicAttackNumberSend(lpObj,AT_SKILL_COMBO,gObj[tObjNum].m_Index,1);

  0020a	a1 00 00 00 00	 mov	 eax, DWORD PTR ?gObj@@3PAUOBJECTSTRUCT@@A ; gObj
  0020f	6a 01		 push	 1
  00211	ff 34 07	 push	 DWORD PTR [edi+eax]
  00214	8b 7d 08	 mov	 edi, DWORD PTR _lpObj$1$[ebp]
  00217	6a 3b		 push	 59			; 0000003bH
  00219	57		 push	 edi
  0021a	e8 00 00 00 00	 call	 ?GCMagicAttackNumberSend@@YAXPAUOBJECTSTRUCT@@GHE@Z ; GCMagicAttackNumberSend
  0021f	8b 0d 00 00 00
	00		 mov	 ecx, DWORD PTR ?gObj@@3PAUOBJECTSTRUCT@@A ; gObj
  00225	83 c4 10	 add	 esp, 16			; 00000010H
  00228	e9 eb fe ff ff	 jmp	 $LN60@SkillBlood
$LN56@SkillBlood:
  0022d	8b 7d 08	 mov	 edi, DWORD PTR _lpObj$1$[ebp]
$LN46@SkillBlood:
  00230	8b 0d 00 00 00
	00		 mov	 ecx, DWORD PTR ?gObj@@3PAUOBJECTSTRUCT@@A ; gObj
  00236	e9 dd fe ff ff	 jmp	 $LN60@SkillBlood
?SkillBloodStorm@CObjUseSkill@@QAEXHHPAVCMagicInf@@H@Z ENDP ; CObjUseSkill::SkillBloodStorm
_TEXT	ENDS
; Function compile flags: /Ogtp
; File c:\users\michel\desktop\source\gameserver\source\objuseskill.cpp
;	COMDAT ?SkillCharge@CObjUseSkill@@QAEHHPAVCMagicInf@@H@Z
_TEXT	SEGMENT
_aIndex$ = 8						; size = 4
_lpMagic$ = 12						; size = 4
_aTargetIndex$ = 16					; size = 4
?SkillCharge@CObjUseSkill@@QAEHHPAVCMagicInf@@H@Z PROC	; CObjUseSkill::SkillCharge, COMDAT
; _this$ = ecx

; 6567 : {

  00000	55		 push	 ebp
  00001	8b ec		 mov	 ebp, esp

; 6568 : 	if( !OBJMAX_RANGE(aIndex) )

  00003	8b 4d 08	 mov	 ecx, DWORD PTR _aIndex$[ebp]
  00006	85 c9		 test	 ecx, ecx
  00008	78 61		 js	 SHORT $LN6@SkillCharg
  0000a	33 c0		 xor	 eax, eax
  0000c	81 f9 eb 2c 00
	00		 cmp	 ecx, 11499		; 00002cebH
  00012	0f 9e c0	 setle	 al
  00015	85 c0		 test	 eax, eax
  00017	74 52		 je	 SHORT $LN6@SkillCharg

; 6570 : 
; 6571 : 	LPOBJ lpObj = &gObj[aIndex];
; 6572 : 
; 6573 : 	GCMagicAttackNumberSend(lpObj,lpMagic->m_Skill,aTargetIndex,TRUE);

  00019	53		 push	 ebx
  0001a	56		 push	 esi
  0001b	8b 75 0c	 mov	 esi, DWORD PTR _lpMagic$[ebp]
  0001e	57		 push	 edi
  0001f	8b 7d 10	 mov	 edi, DWORD PTR _aTargetIndex$[ebp]
  00022	69 d9 40 27 00
	00		 imul	 ebx, ecx, 10048
  00028	0f b7 46 08	 movzx	 eax, WORD PTR [esi+8]
  0002c	6a 01		 push	 1
  0002e	57		 push	 edi
  0002f	50		 push	 eax
  00030	03 1d 00 00 00
	00		 add	 ebx, DWORD PTR ?gObj@@3PAUOBJECTSTRUCT@@A ; gObj
  00036	53		 push	 ebx
  00037	e8 00 00 00 00	 call	 ?GCMagicAttackNumberSend@@YAXPAUOBJECTSTRUCT@@GHE@Z ; GCMagicAttackNumberSend

; 6574 : 	gObjAttack(lpObj,&gObj[aTargetIndex],lpMagic,FALSE,TRUE,0,0,0,0);

  0003c	6a 00		 push	 0
  0003e	6a 00		 push	 0
  00040	6a 00		 push	 0
  00042	6a 00		 push	 0
  00044	6a 01		 push	 1
  00046	69 c7 40 27 00
	00		 imul	 eax, edi, 10048
  0004c	6a 00		 push	 0
  0004e	56		 push	 esi
  0004f	03 05 00 00 00
	00		 add	 eax, DWORD PTR ?gObj@@3PAUOBJECTSTRUCT@@A ; gObj
  00055	50		 push	 eax
  00056	53		 push	 ebx
  00057	e8 00 00 00 00	 call	 ?gObjAttack@@YAXPAUOBJECTSTRUCT@@0PAVCMagicInf@@HEHHEE@Z ; gObjAttack
  0005c	83 c4 34	 add	 esp, 52			; 00000034H

; 6575 : 
; 6576 : return true;

  0005f	b8 01 00 00 00	 mov	 eax, 1
  00064	5f		 pop	 edi
  00065	5e		 pop	 esi
  00066	5b		 pop	 ebx

; 6577 : 
; 6578 : }

  00067	5d		 pop	 ebp
  00068	c2 0c 00	 ret	 12			; 0000000cH
$LN6@SkillCharg:

; 6569 : 		return false;

  0006b	33 c0		 xor	 eax, eax

; 6577 : 
; 6578 : }

  0006d	5d		 pop	 ebp
  0006e	c2 0c 00	 ret	 12			; 0000000cH
?SkillCharge@CObjUseSkill@@QAEHHPAVCMagicInf@@H@Z ENDP	; CObjUseSkill::SkillCharge
_TEXT	ENDS
; Function compile flags: /Ogtp
; File c:\users\michel\desktop\source\gameserver\source\objuseskill.cpp
;	COMDAT ?SkillMonkBuffApplyParty@CObjUseSkill@@QAEHHPAVCMagicInf@@@Z
_TEXT	SEGMENT
_partynum$1$ = -36					; size = 4
_lpMagic$GSCopy$1$ = -32				; size = 4
_nEffectValue$1$ = -28					; size = 4
_lpPartyObj$1$ = -28					; size = 4
_ApplyPartyIndex$ = -24					; size = 20
__$ArrayPad$ = -4					; size = 4
_aIndex$ = 8						; size = 4
_lpMagic$ = 12						; size = 4
?SkillMonkBuffApplyParty@CObjUseSkill@@QAEHHPAVCMagicInf@@@Z PROC ; CObjUseSkill::SkillMonkBuffApplyParty, COMDAT
; _this$ = ecx

; 6439 : {

  00000	55		 push	 ebp
  00001	8b ec		 mov	 ebp, esp
  00003	83 ec 24	 sub	 esp, 36			; 00000024H
  00006	a1 00 00 00 00	 mov	 eax, DWORD PTR ___security_cookie
  0000b	33 c5		 xor	 eax, ebp
  0000d	89 45 fc	 mov	 DWORD PTR __$ArrayPad$[ebp], eax
  00010	8b 45 08	 mov	 eax, DWORD PTR _aIndex$[ebp]
  00013	53		 push	 ebx
  00014	8b 5d 0c	 mov	 ebx, DWORD PTR _lpMagic$[ebp]
  00017	56		 push	 esi

; 6440 : 	int skillSuccess = TRUE;
; 6441 : 	LPOBJ lpObj = &gObj[aIndex];

  00018	69 f0 40 27 00
	00		 imul	 esi, eax, 10048
  0001e	89 5d e0	 mov	 DWORD PTR _lpMagic$GSCopy$1$[ebp], ebx
  00021	03 35 00 00 00
	00		 add	 esi, DWORD PTR ?gObj@@3PAUOBJECTSTRUCT@@A ; gObj

; 6442 : 	int number;
; 6443 : 
; 6444 : 	if( lpObj->Type != OBJ_USER && lpObj->m_RecallMon == -1 )

  00027	80 7e 50 01	 cmp	 BYTE PTR [esi+80], 1
  0002b	74 1d		 je	 SHORT $LN8@SkillMonkB
  0002d	83 be 30 06 00
	00 ff		 cmp	 DWORD PTR [esi+1584], -1
  00034	75 14		 jne	 SHORT $LN8@SkillMonkB
$LN47@SkillMonkB:
  00036	5e		 pop	 esi

; 6445 : 		return FALSE;

  00037	33 c0		 xor	 eax, eax
  00039	5b		 pop	 ebx

; 6564 : }

  0003a	8b 4d fc	 mov	 ecx, DWORD PTR __$ArrayPad$[ebp]
  0003d	33 cd		 xor	 ecx, ebp
  0003f	e8 00 00 00 00	 call	 @__security_check_cookie@4
  00044	8b e5		 mov	 esp, ebp
  00046	5d		 pop	 ebp
  00047	c2 08 00	 ret	 8
$LN8@SkillMonkB:

; 6446 : 
; 6447 : 	if( lpObj->Class != CLASS_FIGHTER )

  0004a	66 83 be 90 00
	00 00 06	 cmp	 WORD PTR [esi+144], 6
  00052	75 e2		 jne	 SHORT $LN47@SkillMonkB

; 6448 : 		return FALSE;
; 6449 : 
; 6450 : 	int partynum = 0;
; 6451 : 	int partycount;
; 6452 : 	int dis;
; 6453 : 	int ApplyPartyIndex[MAX_USER_IN_PARTY];
; 6454 : 	int nEffectValue;
; 6455 : 	memset(ApplyPartyIndex,-1,sizeof(ApplyPartyIndex));
; 6456 : 	LPOBJ lpPartyObj;
; 6457 : 
; 6458 : 	partynum = lpObj->PartyNumber;

  00054	8b 8e 0c 06 00
	00		 mov	 ecx, DWORD PTR [esi+1548]
  0005a	0f 28 05 00 00
	00 00		 movaps	 xmm0, XMMWORD PTR __xmm@ffffffffffffffffffffffffffffffff
  00061	c7 45 f8 ff ff
	ff ff		 mov	 DWORD PTR _ApplyPartyIndex$[ebp+16], -1
  00068	89 4d dc	 mov	 DWORD PTR _partynum$1$[ebp], ecx
  0006b	57		 push	 edi
  0006c	0f 11 45 e8	 movups	 XMMWORD PTR _ApplyPartyIndex$[ebp], xmm0

; 6459 : 
; 6460 : 	if( partynum != -1 )

  00070	83 f9 ff	 cmp	 ecx, -1
  00073	74 57		 je	 SHORT $LN3@SkillMonkB

; 6461 : 	{
; 6462 : 		partycount = gParty.m_PartyS[partynum].Count;
; 6463 : 
; 6464 : 		for(int n = 0; n < MAX_USER_IN_PARTY; n++)

  00075	8b c1		 mov	 eax, ecx
  00077	33 ff		 xor	 edi, edi
  00079	c1 e0 04	 shl	 eax, 4
  0007c	2b c1		 sub	 eax, ecx
  0007e	8d 1c 85 0c 00
	00 00		 lea	 ebx, DWORD PTR ?gParty@@3VPartyClass@@A[eax*4+12]
$LL4@SkillMonkB:

; 6465 : 		{
; 6466 : 			number = gParty.m_PartyS[partynum].Number[n];

  00085	8b 03		 mov	 eax, DWORD PTR [ebx]

; 6467 : 
; 6468 : 			if( number >= 0 )

  00087	85 c0		 test	 eax, eax
  00089	78 35		 js	 SHORT $LN2@SkillMonkB

; 6469 : 			{
; 6470 : 				lpPartyObj = &gObj[number];

  0008b	69 c8 40 27 00
	00		 imul	 ecx, eax, 10048
  00091	03 0d 00 00 00
	00		 add	 ecx, DWORD PTR ?gObj@@3PAUOBJECTSTRUCT@@A ; gObj
  00097	89 4d e4	 mov	 DWORD PTR _lpPartyObj$1$[ebp], ecx

; 6471 : 
; 6472 : 
; 6473 : 				if( lpPartyObj->MapNumber == lpObj->MapNumber )

  0009a	8a 81 23 01 00
	00		 mov	 al, BYTE PTR [ecx+291]
  000a0	3a 86 23 01 00
	00		 cmp	 al, BYTE PTR [esi+291]
  000a6	75 18		 jne	 SHORT $LN2@SkillMonkB

; 6474 : 				{
; 6475 : 					dis = gObjCalDistance(lpObj,&gObj[number]);

  000a8	51		 push	 ecx
  000a9	56		 push	 esi
  000aa	e8 00 00 00 00	 call	 ?gObjCalDistance@@YAHPAUOBJECTSTRUCT@@0@Z ; gObjCalDistance
  000af	83 c4 08	 add	 esp, 8

; 6476 : 					if( dis < 4 )

  000b2	83 f8 04	 cmp	 eax, 4
  000b5	7d 09		 jge	 SHORT $LN2@SkillMonkB

; 6477 : 					{
; 6478 : 						ApplyPartyIndex[n] = lpPartyObj->m_Index;

  000b7	8b 45 e4	 mov	 eax, DWORD PTR _lpPartyObj$1$[ebp]
  000ba	8b 00		 mov	 eax, DWORD PTR [eax]
  000bc	89 44 bd e8	 mov	 DWORD PTR _ApplyPartyIndex$[ebp+edi*4], eax
$LN2@SkillMonkB:

; 6461 : 	{
; 6462 : 		partycount = gParty.m_PartyS[partynum].Count;
; 6463 : 
; 6464 : 		for(int n = 0; n < MAX_USER_IN_PARTY; n++)

  000c0	47		 inc	 edi
  000c1	83 c3 04	 add	 ebx, 4
  000c4	83 ff 05	 cmp	 edi, 5
  000c7	7c bc		 jl	 SHORT $LL4@SkillMonkB
  000c9	8b 5d e0	 mov	 ebx, DWORD PTR _lpMagic$GSCopy$1$[ebp]
$LN3@SkillMonkB:

; 6479 : 					}
; 6480 : 				}
; 6481 : 			}
; 6482 : 		}
; 6483 : 	}
; 6484 : 
; 6485 : 	BuffSkillEffectInfo* lpInfo = g_BuffSkillEffect.GetEffect(lpMagic->m_Skill);

  000cc	ff 73 08	 push	 DWORD PTR [ebx+8]
  000cf	b9 00 00 00 00	 mov	 ecx, OFFSET ?g_BuffSkillEffect@@3VBuffSkillEffect@@A ; g_BuffSkillEffect
  000d4	e8 00 00 00 00	 call	 ?GetEffect@BuffSkillEffect@@QAEPAUBuffSkillEffectInfo@@H@Z ; BuffSkillEffect::GetEffect
  000d9	8b c8		 mov	 ecx, eax

; 6486 : 
; 6487 : 	if( !lpInfo )

  000db	85 c9		 test	 ecx, ecx
  000dd	0f 84 df 01 00
	00		 je	 $LN19@SkillMonkB

; 6488 : 	{
; 6489 : 		return 0;
; 6490 : 	}
; 6491 : 	
; 6492 : 	int Duration;
; 6493 : 
; 6494 : 	if( lpMagic->m_Skill == AT_SKILL_RAGEFIGHTER_FITNESS )

  000e3	8b 53 08	 mov	 edx, DWORD PTR [ebx+8]
  000e6	81 fa 0b 01 00
	00		 cmp	 edx, 267		; 0000010bH
  000ec	74 0c		 je	 SHORT $LN46@SkillMonkB

; 6495 : 	{
; 6496 : 		nEffectValue = lpInfo->m_Arg1 + (lpObj->Energy+lpObj->AddEnergy-lpInfo->m_Arg2)/10.0;
; 6497 : 
; 6498 : 		if( nEffectValue > lpInfo->m_Arg3 )
; 6499 : 			nEffectValue = lpInfo->m_Arg3;
; 6500 : 
; 6501 : 		Duration = lpInfo->m_Arg4+lpObj->Energy/lpInfo->m_Arg5;
; 6502 : 
; 6503 : 		if( Duration > lpInfo->m_Arg6 )
; 6504 : 		{
; 6505 : 			Duration = lpInfo->m_Arg6;
; 6506 : 		}
; 6507 : 
; 6508 : 	}
; 6509 : 	else if( lpMagic->m_Skill == AT_SKILL_RAGEFIGHTER_DEFRATE )

  000ee	81 fa 0c 01 00
	00		 cmp	 edx, 268		; 0000010cH
  000f4	0f 85 c8 01 00
	00		 jne	 $LN19@SkillMonkB
$LN46@SkillMonkB:

; 6510 : 	{
; 6511 : 		nEffectValue = lpInfo->m_Arg1 + (lpObj->Energy+lpObj->AddEnergy-lpInfo->m_Arg2)/10.0;

  000fa	0f b7 be d6 00
	00 00		 movzx	 edi, WORD PTR [esi+214]
  00101	0f b7 86 02 01
	00 00		 movzx	 eax, WORD PTR [esi+258]
  00108	03 c7		 add	 eax, edi
  0010a	66 0f 6e c0	 movd	 xmm0, eax
  0010e	0f 5b c0	 cvtdq2ps xmm0, xmm0
  00111	f3 0f 5c 41 08	 subss	 xmm0, DWORD PTR [ecx+8]
  00116	0f 5a c8	 cvtps2pd xmm1, xmm0
  00119	f3 0f 10 41 04	 movss	 xmm0, DWORD PTR [ecx+4]
  0011e	f2 0f 5e 0d 00
	00 00 00	 divsd	 xmm1, QWORD PTR __real@4024000000000000
  00126	0f 5a c0	 cvtps2pd xmm0, xmm0
  00129	f2 0f 58 c8	 addsd	 xmm1, xmm0
  0012d	f2 0f 2c c1	 cvttsd2si eax, xmm1

; 6512 : 
; 6513 : 		if( nEffectValue > lpInfo->m_Arg3 )

  00131	f3 0f 10 49 0c	 movss	 xmm1, DWORD PTR [ecx+12]
  00136	89 45 e4	 mov	 DWORD PTR _nEffectValue$1$[ebp], eax
  00139	66 0f 6e c0	 movd	 xmm0, eax
  0013d	0f 5b c0	 cvtdq2ps xmm0, xmm0
  00140	0f 2f c1	 comiss	 xmm0, xmm1
  00143	76 07		 jbe	 SHORT $LN21@SkillMonkB

; 6514 : 			nEffectValue = lpInfo->m_Arg3;

  00145	f3 0f 2c c1	 cvttss2si eax, xmm1
  00149	89 45 e4	 mov	 DWORD PTR _nEffectValue$1$[ebp], eax
$LN21@SkillMonkB:

; 6515 : 
; 6516 : 		Duration = lpInfo->m_Arg4+lpObj->Energy/lpInfo->m_Arg5;

  0014c	66 0f 6e c7	 movd	 xmm0, edi
  00150	0f 5b c0	 cvtdq2ps xmm0, xmm0

; 6517 : 
; 6518 : 		if( Duration > lpInfo->m_Arg6 )

  00153	f3 0f 10 49 18	 movss	 xmm1, DWORD PTR [ecx+24]
  00158	f3 0f 5e 41 14	 divss	 xmm0, DWORD PTR [ecx+20]
  0015d	f3 0f 58 41 10	 addss	 xmm0, DWORD PTR [ecx+16]
  00162	f3 0f 2c d8	 cvttss2si ebx, xmm0
  00166	66 0f 6e c3	 movd	 xmm0, ebx
  0016a	0f 5b c0	 cvtdq2ps xmm0, xmm0
  0016d	0f 2f c1	 comiss	 xmm0, xmm1
  00170	76 04		 jbe	 SHORT $LN22@SkillMonkB

; 6519 : 		{
; 6520 : 			Duration = lpInfo->m_Arg6;

  00172	f3 0f 2c d9	 cvttss2si ebx, xmm1
$LN22@SkillMonkB:

; 6521 : 		}
; 6522 : 	}
; 6523 : 	else
; 6524 : 	{
; 6525 : 		return FALSE;
; 6526 : 	}
; 6527 : 
; 6528 : 	if( partynum == -1 )

  00176	83 7d dc ff	 cmp	 DWORD PTR _partynum$1$[ebp], -1
  0017a	0f 85 99 00 00
	00		 jne	 $LN23@SkillMonkB

; 6529 : 	{
; 6530 : 		if( lpMagic->m_Skill == AT_SKILL_RAGEFIGHTER_FITNESS )

  00180	81 fa 0b 01 00
	00		 cmp	 edx, 267		; 0000010bH
  00186	75 46		 jne	 SHORT $LN25@SkillMonkB

; 6531 : 		{
; 6532 : 			gObjAddBuffEffect(lpObj,BUFF_INCREASE_VIT,ADD_OPTION_INCRVITALITY,nEffectValue,0,0,Duration);

  00188	53		 push	 ebx
  00189	6a 00		 push	 0
  0018b	6a 00		 push	 0
  0018d	ff 75 e4	 push	 DWORD PTR _nEffectValue$1$[ebp]
  00190	6a 49		 push	 73			; 00000049H
  00192	68 82 00 00 00	 push	 130			; 00000082H
  00197	56		 push	 esi
  00198	e8 00 00 00 00	 call	 ?gObjAddBuffEffect@@YA_NPAUOBJECTSTRUCT@@HEHEHH@Z ; gObjAddBuffEffect

; 6533 : 			GCMagicAttackNumberSend(lpObj,AT_SKILL_RAGEFIGHTER_FITNESS,lpObj->m_Index,TRUE);

  0019d	6a 01		 push	 1
  0019f	ff 36		 push	 DWORD PTR [esi]
  001a1	68 0b 01 00 00	 push	 267			; 0000010bH
  001a6	56		 push	 esi
  001a7	e8 00 00 00 00	 call	 ?GCMagicAttackNumberSend@@YAXPAUOBJECTSTRUCT@@GHE@Z ; GCMagicAttackNumberSend

; 6534 : 			gObjCalCharacter(lpObj->m_Index);

  001ac	ff 36		 push	 DWORD PTR [esi]
  001ae	e8 00 00 00 00	 call	 ?gObjCalCharacter@@YAXH@Z ; gObjCalCharacter
  001b3	83 c4 30	 add	 esp, 48			; 00000030H

; 6559 : 				}
; 6560 : 			}
; 6561 : 		}
; 6562 : 	}
; 6563 : 	return TRUE;

  001b6	b8 01 00 00 00	 mov	 eax, 1
  001bb	5f		 pop	 edi
  001bc	5e		 pop	 esi
  001bd	5b		 pop	 ebx

; 6564 : }

  001be	8b 4d fc	 mov	 ecx, DWORD PTR __$ArrayPad$[ebp]
  001c1	33 cd		 xor	 ecx, ebp
  001c3	e8 00 00 00 00	 call	 @__security_check_cookie@4
  001c8	8b e5		 mov	 esp, ebp
  001ca	5d		 pop	 ebp
  001cb	c2 08 00	 ret	 8
$LN25@SkillMonkB:

; 6535 : 		}
; 6536 : 		else if( lpMagic->m_Skill == AT_SKILL_RAGEFIGHTER_DEFRATE )

  001ce	81 fa 0c 01 00
	00		 cmp	 edx, 268		; 0000010cH
  001d4	0f 85 d0 00 00
	00		 jne	 $LN6@SkillMonkB

; 6537 : 		{
; 6538 : 			gObjAddBuffEffect(lpObj,BUFF_INCREASE_DEFRATE,ADD_OPTION_DEFRATE,nEffectValue,0,0,Duration);

  001da	53		 push	 ebx
  001db	6a 00		 push	 0
  001dd	6a 00		 push	 0
  001df	ff 75 e4	 push	 DWORD PTR _nEffectValue$1$[ebp]
  001e2	6a 4a		 push	 74			; 0000004aH
  001e4	68 83 00 00 00	 push	 131			; 00000083H
  001e9	56		 push	 esi
  001ea	e8 00 00 00 00	 call	 ?gObjAddBuffEffect@@YA_NPAUOBJECTSTRUCT@@HEHEHH@Z ; gObjAddBuffEffect

; 6539 : 			GCMagicAttackNumberSend(lpObj,AT_SKILL_RAGEFIGHTER_DEFRATE,lpObj->m_Index,TRUE);

  001ef	6a 01		 push	 1
  001f1	ff 36		 push	 DWORD PTR [esi]
  001f3	68 0c 01 00 00	 push	 268			; 0000010cH
  001f8	56		 push	 esi
  001f9	e8 00 00 00 00	 call	 ?GCMagicAttackNumberSend@@YAXPAUOBJECTSTRUCT@@GHE@Z ; GCMagicAttackNumberSend
  001fe	83 c4 2c	 add	 esp, 44			; 0000002cH

; 6559 : 				}
; 6560 : 			}
; 6561 : 		}
; 6562 : 	}
; 6563 : 	return TRUE;

  00201	b8 01 00 00 00	 mov	 eax, 1
  00206	5f		 pop	 edi
  00207	5e		 pop	 esi
  00208	5b		 pop	 ebx

; 6564 : }

  00209	8b 4d fc	 mov	 ecx, DWORD PTR __$ArrayPad$[ebp]
  0020c	33 cd		 xor	 ecx, ebp
  0020e	e8 00 00 00 00	 call	 @__security_check_cookie@4
  00213	8b e5		 mov	 esp, ebp
  00215	5d		 pop	 ebp
  00216	c2 08 00	 ret	 8
$LN23@SkillMonkB:

; 6540 : 		}
; 6541 : 	}
; 6542 : 	else
; 6543 : 	{
; 6544 : 		for(int n = 0; n < MAX_USER_IN_PARTY; n++)

  00219	33 ff		 xor	 edi, edi
  0021b	0f 1f 44 00 00	 npad	 5
$LL7@SkillMonkB:

; 6545 : 		{
; 6546 : 			if( ApplyPartyIndex[n] != -1 )

  00220	8b 44 bd e8	 mov	 eax, DWORD PTR _ApplyPartyIndex$[ebp+edi*4]
  00224	83 f8 ff	 cmp	 eax, -1
  00227	74 77		 je	 SHORT $LN5@SkillMonkB

; 6547 : 			{
; 6548 : 				lpPartyObj = &gObj[ApplyPartyIndex[n]];

  00229	69 f0 40 27 00
	00		 imul	 esi, eax, 10048

; 6549 : 				if( lpMagic->m_Skill == AT_SKILL_RAGEFIGHTER_FITNESS )

  0022f	8b 45 e0	 mov	 eax, DWORD PTR _lpMagic$GSCopy$1$[ebp]
  00232	03 35 00 00 00
	00		 add	 esi, DWORD PTR ?gObj@@3PAUOBJECTSTRUCT@@A ; gObj
  00238	8b 40 08	 mov	 eax, DWORD PTR [eax+8]
  0023b	3d 0b 01 00 00	 cmp	 eax, 267		; 0000010bH
  00240	75 30		 jne	 SHORT $LN29@SkillMonkB

; 6550 : 				{
; 6551 : 					gObjAddBuffEffect(lpPartyObj,BUFF_INCREASE_VIT,ADD_OPTION_INCRVITALITY,nEffectValue,0,0,Duration);

  00242	53		 push	 ebx
  00243	6a 00		 push	 0
  00245	6a 00		 push	 0
  00247	ff 75 e4	 push	 DWORD PTR _nEffectValue$1$[ebp]
  0024a	6a 49		 push	 73			; 00000049H
  0024c	68 82 00 00 00	 push	 130			; 00000082H
  00251	56		 push	 esi
  00252	e8 00 00 00 00	 call	 ?gObjAddBuffEffect@@YA_NPAUOBJECTSTRUCT@@HEHEHH@Z ; gObjAddBuffEffect

; 6552 : 					GCMagicAttackNumberSend(lpPartyObj,AT_SKILL_RAGEFIGHTER_FITNESS,lpPartyObj->m_Index,TRUE);

  00257	6a 01		 push	 1
  00259	ff 36		 push	 DWORD PTR [esi]
  0025b	68 0b 01 00 00	 push	 267			; 0000010bH
  00260	56		 push	 esi
  00261	e8 00 00 00 00	 call	 ?GCMagicAttackNumberSend@@YAXPAUOBJECTSTRUCT@@GHE@Z ; GCMagicAttackNumberSend

; 6553 : 					gObjCalCharacter(lpPartyObj->m_Index);

  00266	ff 36		 push	 DWORD PTR [esi]
  00268	e8 00 00 00 00	 call	 ?gObjCalCharacter@@YAXH@Z ; gObjCalCharacter
  0026d	83 c4 30	 add	 esp, 48			; 00000030H
  00270	eb 2e		 jmp	 SHORT $LN5@SkillMonkB
$LN29@SkillMonkB:

; 6554 : 				}
; 6555 : 				else if( lpMagic->m_Skill == AT_SKILL_RAGEFIGHTER_DEFRATE )

  00272	3d 0c 01 00 00	 cmp	 eax, 268		; 0000010cH
  00277	75 27		 jne	 SHORT $LN5@SkillMonkB

; 6556 : 				{
; 6557 : 					gObjAddBuffEffect(lpPartyObj,BUFF_INCREASE_DEFRATE,ADD_OPTION_DEFRATE,nEffectValue,0,0,Duration);

  00279	53		 push	 ebx
  0027a	6a 00		 push	 0
  0027c	6a 00		 push	 0
  0027e	ff 75 e4	 push	 DWORD PTR _nEffectValue$1$[ebp]
  00281	6a 4a		 push	 74			; 0000004aH
  00283	68 83 00 00 00	 push	 131			; 00000083H
  00288	56		 push	 esi
  00289	e8 00 00 00 00	 call	 ?gObjAddBuffEffect@@YA_NPAUOBJECTSTRUCT@@HEHEHH@Z ; gObjAddBuffEffect

; 6558 : 					GCMagicAttackNumberSend(lpPartyObj,AT_SKILL_RAGEFIGHTER_DEFRATE,lpPartyObj->m_Index,TRUE);

  0028e	6a 01		 push	 1
  00290	ff 36		 push	 DWORD PTR [esi]
  00292	68 0c 01 00 00	 push	 268			; 0000010cH
  00297	56		 push	 esi
  00298	e8 00 00 00 00	 call	 ?GCMagicAttackNumberSend@@YAXPAUOBJECTSTRUCT@@GHE@Z ; GCMagicAttackNumberSend
  0029d	83 c4 2c	 add	 esp, 44			; 0000002cH
$LN5@SkillMonkB:

; 6540 : 		}
; 6541 : 	}
; 6542 : 	else
; 6543 : 	{
; 6544 : 		for(int n = 0; n < MAX_USER_IN_PARTY; n++)

  002a0	47		 inc	 edi
  002a1	83 ff 05	 cmp	 edi, 5
  002a4	0f 8c 76 ff ff
	ff		 jl	 $LL7@SkillMonkB
$LN6@SkillMonkB:
  002aa	5f		 pop	 edi
  002ab	5e		 pop	 esi

; 6559 : 				}
; 6560 : 			}
; 6561 : 		}
; 6562 : 	}
; 6563 : 	return TRUE;

  002ac	b8 01 00 00 00	 mov	 eax, 1
  002b1	5b		 pop	 ebx

; 6564 : }

  002b2	8b 4d fc	 mov	 ecx, DWORD PTR __$ArrayPad$[ebp]
  002b5	33 cd		 xor	 ecx, ebp
  002b7	e8 00 00 00 00	 call	 @__security_check_cookie@4
  002bc	8b e5		 mov	 esp, ebp
  002be	5d		 pop	 ebp
  002bf	c2 08 00	 ret	 8
$LN19@SkillMonkB:
  002c2	8b 4d fc	 mov	 ecx, DWORD PTR __$ArrayPad$[ebp]
  002c5	33 c0		 xor	 eax, eax
  002c7	5f		 pop	 edi
  002c8	5e		 pop	 esi
  002c9	33 cd		 xor	 ecx, ebp
  002cb	5b		 pop	 ebx
  002cc	e8 00 00 00 00	 call	 @__security_check_cookie@4
  002d1	8b e5		 mov	 esp, ebp
  002d3	5d		 pop	 ebp
  002d4	c2 08 00	 ret	 8
?SkillMonkBuffApplyParty@CObjUseSkill@@QAEHHPAVCMagicInf@@@Z ENDP ; CObjUseSkill::SkillMonkBuffApplyParty
_TEXT	ENDS
; Function compile flags: /Ogtp
; File c:\users\michel\desktop\source\gameserver\source\objuseskill.cpp
;	COMDAT ?SkillMonkBuff@CObjUseSkill@@QAEHHPAVCMagicInf@@@Z
_TEXT	SEGMENT
_aIndex$ = 8						; size = 4
_lpMagic$ = 12						; size = 4
?SkillMonkBuff@CObjUseSkill@@QAEHHPAVCMagicInf@@@Z PROC	; CObjUseSkill::SkillMonkBuff, COMDAT
; _this$ = ecx

; 6392 : {

  00000	55		 push	 ebp
  00001	8b ec		 mov	 ebp, esp
  00003	56		 push	 esi

; 6393 : 	LPOBJ lpObj = &gObj[aIndex];

  00004	69 75 08 40 27
	00 00		 imul	 esi, DWORD PTR _aIndex$[ebp], 10048
  0000b	03 35 00 00 00
	00		 add	 esi, DWORD PTR ?gObj@@3PAUOBJECTSTRUCT@@A ; gObj

; 6394 : 
; 6395 : 	if( lpObj->Type != OBJ_USER )

  00011	80 7e 50 01	 cmp	 BYTE PTR [esi+80], 1
  00015	74 07		 je	 SHORT $LN2@SkillMonkB
$LN12@SkillMonkB:

; 6396 : 		return false;

  00017	33 c0		 xor	 eax, eax
  00019	5e		 pop	 esi

; 6436 : }

  0001a	5d		 pop	 ebp
  0001b	c2 08 00	 ret	 8
$LN2@SkillMonkB:

; 6397 : 
; 6398 : 	if( lpObj->Class != CLASS_FIGHTER )

  0001e	66 83 be 90 00
	00 00 06	 cmp	 WORD PTR [esi+144], 6
  00026	75 ef		 jne	 SHORT $LN12@SkillMonkB

; 6399 : 		return false;
; 6400 : 
; 6401 : 	if( lpMagic == NULL )

  00028	57		 push	 edi
  00029	8b 7d 0c	 mov	 edi, DWORD PTR _lpMagic$[ebp]
  0002c	85 ff		 test	 edi, edi
  0002e	0f 84 c0 00 00
	00		 je	 $LN6@SkillMonkB

; 6402 : 		return false;
; 6403 : 
; 6404 : 	int nEffectValue = 0;
; 6405 : 
; 6406 : 	BuffSkillEffectInfo* lpInfo = g_BuffSkillEffect.GetEffect(lpMagic->m_Skill);

  00034	ff 77 08	 push	 DWORD PTR [edi+8]
  00037	b9 00 00 00 00	 mov	 ecx, OFFSET ?g_BuffSkillEffect@@3VBuffSkillEffect@@A ; g_BuffSkillEffect
  0003c	e8 00 00 00 00	 call	 ?GetEffect@BuffSkillEffect@@QAEPAUBuffSkillEffectInfo@@H@Z ; BuffSkillEffect::GetEffect
  00041	8b c8		 mov	 ecx, eax

; 6407 : 
; 6408 : 	if( !lpInfo )

  00043	85 c9		 test	 ecx, ecx
  00045	0f 84 a9 00 00
	00		 je	 $LN6@SkillMonkB

; 6409 : 	{
; 6410 : 		return 0;
; 6411 : 	}
; 6412 : 
; 6413 : 	if( lpMagic->m_Skill == AT_SKILL_RAGEFIGHTER_REDARMOR )

  0004b	81 7f 08 0a 01
	00 00		 cmp	 DWORD PTR [edi+8], 266	; 0000010aH
  00052	0f 85 9c 00 00
	00		 jne	 $LN6@SkillMonkB

; 6414 : 	{
; 6415 : 		nEffectValue = lpInfo->m_Arg1 + (lpObj->Energy+lpObj->AddEnergy-lpInfo->m_Arg2)/100.0f;

  00058	0f b7 be d6 00
	00 00		 movzx	 edi, WORD PTR [esi+214]
  0005f	0f b7 86 02 01
	00 00		 movzx	 eax, WORD PTR [esi+258]
  00066	03 c7		 add	 eax, edi

; 6416 : 
; 6417 : 		if( nEffectValue > lpInfo->m_Arg3 )

  00068	f3 0f 10 49 0c	 movss	 xmm1, DWORD PTR [ecx+12]
  0006d	66 0f 6e c0	 movd	 xmm0, eax
  00071	0f 5b c0	 cvtdq2ps xmm0, xmm0
  00074	f3 0f 5c 41 08	 subss	 xmm0, DWORD PTR [ecx+8]
  00079	f3 0f 5e 05 00
	00 00 00	 divss	 xmm0, DWORD PTR __real@42c80000
  00081	f3 0f 58 41 04	 addss	 xmm0, DWORD PTR [ecx+4]
  00086	f3 0f 2c d0	 cvttss2si edx, xmm0
  0008a	66 0f 6e c2	 movd	 xmm0, edx
  0008e	0f 5b c0	 cvtdq2ps xmm0, xmm0
  00091	0f 2f c1	 comiss	 xmm0, xmm1
  00094	76 04		 jbe	 SHORT $LN8@SkillMonkB

; 6418 : 			nEffectValue = lpInfo->m_Arg3;

  00096	f3 0f 2c d1	 cvttss2si edx, xmm1
$LN8@SkillMonkB:
  0009a	66 0f 6e c7	 movd	 xmm0, edi

; 6419 : 
; 6420 : 		int Duration = lpInfo->m_Arg4+lpObj->Energy/lpInfo->m_Arg5;

  0009e	0f 5b c0	 cvtdq2ps xmm0, xmm0

; 6421 : 
; 6422 : 		if( Duration > lpInfo->m_Arg6 )

  000a1	f3 0f 10 49 18	 movss	 xmm1, DWORD PTR [ecx+24]
  000a6	f3 0f 5e 41 14	 divss	 xmm0, DWORD PTR [ecx+20]
  000ab	f3 0f 58 41 10	 addss	 xmm0, DWORD PTR [ecx+16]
  000b0	f3 0f 2c c0	 cvttss2si eax, xmm0
  000b4	66 0f 6e c0	 movd	 xmm0, eax
  000b8	0f 5b c0	 cvtdq2ps xmm0, xmm0
  000bb	0f 2f c1	 comiss	 xmm0, xmm1
  000be	76 04		 jbe	 SHORT $LN9@SkillMonkB

; 6423 : 		{
; 6424 : 			Duration = lpInfo->m_Arg6;

  000c0	f3 0f 2c c1	 cvttss2si eax, xmm1
$LN9@SkillMonkB:

; 6425 : 		}
; 6426 : 
; 6427 : 		gObjAddBuffEffect(lpObj,BUFF_IGNORE_DEFENSE,ADD_OPTION_DEFENSEIGNORE,nEffectValue,0,0, Duration);

  000c4	50		 push	 eax
  000c5	6a 00		 push	 0
  000c7	6a 00		 push	 0
  000c9	52		 push	 edx
  000ca	6a 48		 push	 72			; 00000048H
  000cc	68 81 00 00 00	 push	 129			; 00000081H
  000d1	56		 push	 esi
  000d2	e8 00 00 00 00	 call	 ?gObjAddBuffEffect@@YA_NPAUOBJECTSTRUCT@@HEHEHH@Z ; gObjAddBuffEffect

; 6428 : 		GCMagicAttackNumberSend(lpObj,AT_SKILL_RAGEFIGHTER_REDARMOR,lpObj->m_Index,TRUE);

  000d7	6a 01		 push	 1
  000d9	ff 36		 push	 DWORD PTR [esi]
  000db	68 0a 01 00 00	 push	 266			; 0000010aH
  000e0	56		 push	 esi
  000e1	e8 00 00 00 00	 call	 ?GCMagicAttackNumberSend@@YAXPAUOBJECTSTRUCT@@GHE@Z ; GCMagicAttackNumberSend
  000e6	83 c4 2c	 add	 esp, 44			; 0000002cH

; 6433 : 	}
; 6434 : 
; 6435 : 	return true;

  000e9	b8 01 00 00 00	 mov	 eax, 1
  000ee	5f		 pop	 edi
  000ef	5e		 pop	 esi

; 6436 : }

  000f0	5d		 pop	 ebp
  000f1	c2 08 00	 ret	 8
$LN6@SkillMonkB:
  000f4	5f		 pop	 edi

; 6429 : 	}
; 6430 : 	else
; 6431 : 	{
; 6432 : 		return false;

  000f5	33 c0		 xor	 eax, eax
  000f7	5e		 pop	 esi

; 6436 : }

  000f8	5d		 pop	 ebp
  000f9	c2 08 00	 ret	 8
?SkillMonkBuff@CObjUseSkill@@QAEHHPAVCMagicInf@@@Z ENDP	; CObjUseSkill::SkillMonkBuff
_TEXT	ENDS
; Function compile flags: /Ogtp
; File c:\users\michel\desktop\source\gameserver\source\objuseskill.cpp
;	COMDAT ?SkillMonkDarkSideGetTargetIndex@CObjUseSkill@@QAEHHHPAVCMagicInf@@PAG@Z
_TEXT	SEGMENT
_DuelIndex$1$ = -20					; size = 4
tv662 = -16						; size = 4
_nTargetObjNum$1$ = -16					; size = 4
_this$1$ = -12						; size = 4
_nHitTargetCount$1$ = -8				; size = 4
_lpObj$1$ = -4						; size = 4
_nAttackRange$1$ = 8					; size = 4
_nViewPortObjectCount$1$ = 8				; size = 4
_aIndex$ = 8						; size = 4
_aTargetIndex$ = 12					; size = 4
_lpMagic$ = 16						; size = 4
_wTargetList$ = 20					; size = 4
?SkillMonkDarkSideGetTargetIndex@CObjUseSkill@@QAEHHHPAVCMagicInf@@PAG@Z PROC ; CObjUseSkill::SkillMonkDarkSideGetTargetIndex, COMDAT
; _this$ = ecx

; 6257 : {

  00000	55		 push	 ebp
  00001	8b ec		 mov	 ebp, esp
  00003	83 ec 14	 sub	 esp, 20			; 00000014H

; 6258 : 	LPOBJ lpObj = &gObj[aIndex];

  00006	69 55 08 40 27
	00 00		 imul	 edx, DWORD PTR _aIndex$[ebp], 10048

; 6259 : 	int nTargetObjNum = 0;
; 6260 : 	int nViewPortObjectCount = 0;
; 6261 : 	int nHitTargetCount = 0;

  0000d	33 c0		 xor	 eax, eax
  0000f	89 4d f4	 mov	 DWORD PTR _this$1$[ebp], ecx
  00012	8b 0d 00 00 00
	00		 mov	 ecx, DWORD PTR ?gObj@@3PAUOBJECTSTRUCT@@A ; gObj
  00018	03 d1		 add	 edx, ecx
  0001a	89 45 f8	 mov	 DWORD PTR _nHitTargetCount$1$[ebp], eax
  0001d	57		 push	 edi
  0001e	33 ff		 xor	 edi, edi
  00020	89 55 fc	 mov	 DWORD PTR _lpObj$1$[ebp], edx
  00023	89 7d 08	 mov	 DWORD PTR _nViewPortObjectCount$1$[ebp], edi

; 6262 : 	int DuelIndex = lpObj->m_iDuelUser;

  00026	8b 82 50 12 00
	00		 mov	 eax, DWORD PTR [edx+4688]
  0002c	89 45 ec	 mov	 DWORD PTR _DuelIndex$1$[ebp], eax

; 6263 : 	int EnableAttack = 0;
; 6264 : 
; 6265 :     if( wTargetList == NULL)

  0002f	39 7d 14	 cmp	 DWORD PTR _wTargetList$[ebp], edi
  00032	75 09		 jne	 SHORT $LN6@SkillMonkD

; 6266 :         return false;

  00034	33 c0		 xor	 eax, eax
  00036	5f		 pop	 edi

; 6389 : }

  00037	8b e5		 mov	 esp, ebp
  00039	5d		 pop	 ebp
  0003a	c2 10 00	 ret	 16			; 00000010H
$LN6@SkillMonkD:
  0003d	53		 push	 ebx

; 6267 : 
; 6268 :     if( lpMagic->m_Skill != AT_SKILL_RAGEFIGHTER_DARKSIDE &&
; 6269 : 		lpMagic->m_Skill != AT_MSKILL_RF_DARKSIDE1 &&

  0003e	8b 5d 10	 mov	 ebx, DWORD PTR _lpMagic$[ebp]
  00041	8b 5b 08	 mov	 ebx, DWORD PTR [ebx+8]
  00044	81 fb 07 01 00
	00		 cmp	 ebx, 263		; 00000107H
  0004a	74 1a		 je	 SHORT $LN7@SkillMonkD
  0004c	81 fb 2f 02 00
	00		 cmp	 ebx, 559		; 0000022fH
  00052	74 12		 je	 SHORT $LN7@SkillMonkD
  00054	81 fb 33 02 00
	00		 cmp	 ebx, 563		; 00000233H
  0005a	74 0a		 je	 SHORT $LN7@SkillMonkD

; 6270 : 		lpMagic->m_Skill != AT_MSKILL_RF_DARKSIDE2 )
; 6271 :         return false;

  0005c	5b		 pop	 ebx
  0005d	33 c0		 xor	 eax, eax
  0005f	5f		 pop	 edi

; 6389 : }

  00060	8b e5		 mov	 esp, ebp
  00062	5d		 pop	 ebp
  00063	c2 10 00	 ret	 16			; 00000010H
$LN7@SkillMonkD:
  00066	56		 push	 esi

; 6272 : 
; 6273 :     if( aTargetIndex != 0 )

  00067	39 7d 0c	 cmp	 DWORD PTR _aTargetIndex$[ebp], edi
  0006a	0f 84 b5 00 00
	00		 je	 $LN52@SkillMonkD

; 6286 : 						nTargetObjNum == aTargetIndex )
; 6287 : 					{
; 6288 : 						int nAttackRange = 0;
; 6289 : 
; 6290 : 						if( lpMagic->m_Skill == AT_SKILL_RAGEFIGHTER_DARKSIDE ||
; 6291 : 							lpMagic->m_Skill == AT_MSKILL_RF_DARKSIDE1 ||

  00070	8d b2 4a 0c 00
	00		 lea	 esi, DWORD PTR [edx+3146]
$LL2@SkillMonkD:

; 6274 :     {
; 6275 :         while(true)
; 6276 :         {
; 6277 :             if( lpObj->VpPlayer2[nViewPortObjectCount].state != 0 )

  00076	80 7e fe 00	 cmp	 BYTE PTR [esi-2], 0
  0007a	74 7c		 je	 SHORT $LN15@SkillMonkD

; 6278 :             {
; 6279 : 				nTargetObjNum = lpObj->VpPlayer2[nViewPortObjectCount].number;

  0007c	0f bf 06	 movsx	 eax, WORD PTR [esi]
  0007f	89 45 f0	 mov	 DWORD PTR _nTargetObjNum$1$[ebp], eax

; 6280 : 
; 6281 : 				if( nTargetObjNum >= 0 && nTargetObjNum < OBJMAX )

  00082	3d eb 2c 00 00	 cmp	 eax, 11499		; 00002cebH
  00087	77 6f		 ja	 SHORT $LN15@SkillMonkD

; 6282 : 				{
; 6283 : 					LPOBJ lpTargetObj = &gObj[nTargetObjNum];
; 6284 : 
; 6285 : 					if( lpObj->VpPlayer2[nViewPortObjectCount].type == OBJ_USER &&

  00089	80 7e 02 01	 cmp	 BYTE PTR [esi+2], 1
  0008d	75 69		 jne	 SHORT $LN15@SkillMonkD
  0008f	3b 45 0c	 cmp	 eax, DWORD PTR _aTargetIndex$[ebp]
  00092	75 64		 jne	 SHORT $LN15@SkillMonkD

; 6286 : 						nTargetObjNum == aTargetIndex )
; 6287 : 					{
; 6288 : 						int nAttackRange = 0;
; 6289 : 
; 6290 : 						if( lpMagic->m_Skill == AT_SKILL_RAGEFIGHTER_DARKSIDE ||
; 6291 : 							lpMagic->m_Skill == AT_MSKILL_RF_DARKSIDE1 ||

  00094	81 fb 07 01 00
	00		 cmp	 ebx, 263		; 00000107H
  0009a	74 17		 je	 SHORT $LN14@SkillMonkD
  0009c	81 fb 2f 02 00
	00		 cmp	 ebx, 559		; 0000022fH
  000a2	74 0f		 je	 SHORT $LN14@SkillMonkD

; 6294 : 						else
; 6295 : 							nAttackRange = 0;

  000a4	c7 45 08 00 00
	00 00		 mov	 DWORD PTR _nAttackRange$1$[ebp], 0
  000ab	81 fb 33 02 00
	00		 cmp	 ebx, 563		; 00000233H
  000b1	75 07		 jne	 SHORT $LN13@SkillMonkD
$LN14@SkillMonkD:

; 6292 : 							lpMagic->m_Skill == AT_MSKILL_RF_DARKSIDE2 )
; 6293 : 							nAttackRange = 5;

  000b3	c7 45 08 05 00
	00 00		 mov	 DWORD PTR _nAttackRange$1$[ebp], 5
$LN13@SkillMonkD:

; 6296 : 
; 6297 : 						if( CalDistance(lpObj->X,lpObj->Y,gObj[nTargetObjNum].X,gObj[nTargetObjNum].Y) < nAttackRange )

  000ba	69 c0 40 27 00
	00		 imul	 eax, eax, 10048
  000c0	03 c8		 add	 ecx, eax
  000c2	0f b6 81 21 01
	00 00		 movzx	 eax, BYTE PTR [ecx+289]
  000c9	50		 push	 eax
  000ca	0f b6 81 20 01
	00 00		 movzx	 eax, BYTE PTR [ecx+288]
  000d1	8b 4d f4	 mov	 ecx, DWORD PTR _this$1$[ebp]
  000d4	50		 push	 eax
  000d5	0f b6 82 21 01
	00 00		 movzx	 eax, BYTE PTR [edx+289]
  000dc	50		 push	 eax
  000dd	0f b6 82 20 01
	00 00		 movzx	 eax, BYTE PTR [edx+288]
  000e4	50		 push	 eax
  000e5	e8 00 00 00 00	 call	 ?CalDistance@CObjUseSkill@@QAEHHHHH@Z ; CObjUseSkill::CalDistance
  000ea	3b 45 08	 cmp	 eax, DWORD PTR _nAttackRange$1$[ebp]
  000ed	7c 18		 jl	 SHORT $LN39@SkillMonkD
  000ef	8b 0d 00 00 00
	00		 mov	 ecx, DWORD PTR ?gObj@@3PAUOBJECTSTRUCT@@A ; gObj
  000f5	8b 55 fc	 mov	 edx, DWORD PTR _lpObj$1$[ebp]
$LN15@SkillMonkD:

; 6301 : 							break;
; 6302 : 						}
; 6303 : 					}
; 6304 : 				}
; 6305 :             }
; 6306 : 
; 6307 : 			nViewPortObjectCount++;

  000f8	47		 inc	 edi
  000f9	83 c6 0c	 add	 esi, 12			; 0000000cH

; 6308 : 
; 6309 : 			if( nViewPortObjectCount > MAX_VIEWPORT-1 )

  000fc	83 ff 4a	 cmp	 edi, 74			; 0000004aH
  000ff	0f 8e 71 ff ff
	ff		 jle	 $LL2@SkillMonkD

; 6310 : 				break;
; 6311 : 		}

  00105	eb 10		 jmp	 SHORT $LN40@SkillMonkD
$LN39@SkillMonkD:

; 6298 : 						{
; 6299 : 							wTargetList[nHitTargetCount] = nTargetObjNum;

  00107	8b 4d 14	 mov	 ecx, DWORD PTR _wTargetList$[ebp]
  0010a	8b 45 f0	 mov	 eax, DWORD PTR _nTargetObjNum$1$[ebp]

; 6300 : 							nHitTargetCount++;

  0010d	c7 45 f8 01 00
	00 00		 mov	 DWORD PTR _nHitTargetCount$1$[ebp], 1
  00114	66 89 01	 mov	 WORD PTR [ecx], ax
$LN40@SkillMonkD:

; 6312 : 
; 6313 : 		nViewPortObjectCount = 0;

  00117	8b 0d 00 00 00
	00		 mov	 ecx, DWORD PTR ?gObj@@3PAUOBJECTSTRUCT@@A ; gObj
  0011d	33 ff		 xor	 edi, edi
  0011f	8b 55 fc	 mov	 edx, DWORD PTR _lpObj$1$[ebp]
  00122	89 7d 08	 mov	 DWORD PTR _nViewPortObjectCount$1$[ebp], edi
$LN52@SkillMonkD:
  00125	8d 9a 4a 0c 00
	00		 lea	 ebx, DWORD PTR [edx+3146]
  0012b	0f 1f 44 00 00	 npad	 5
$LL4@SkillMonkD:

; 6314 : 	}
; 6315 : 
; 6316 : 	while(true)
; 6317 : 	{
; 6318 : 		if( lpObj->VpPlayer2[nViewPortObjectCount].state != 0 )

  00130	80 7b fe 00	 cmp	 BYTE PTR [ebx-2], 0
  00134	0f 84 ef 00 00
	00		 je	 $LN33@SkillMonkD

; 6319 : 		{
; 6320 : 			nTargetObjNum = lpObj->VpPlayer2[nViewPortObjectCount].number;

  0013a	0f bf 3b	 movsx	 edi, WORD PTR [ebx]

; 6321 : 
; 6322 : 			if( nTargetObjNum >= 0 && nTargetObjNum < OBJMAX )

  0013d	81 ff eb 2c 00
	00		 cmp	 edi, 11499		; 00002cebH
  00143	0f 87 dd 00 00
	00		 ja	 $LN55@SkillMonkD

; 6323 : 			{
; 6324 : 				EnableAttack = FALSE;
; 6325 : 
; 6326 : 				LPOBJ lpTargetObj = &gObj[nTargetObjNum];

  00149	69 c7 40 27 00
	00		 imul	 eax, edi, 10048

; 6327 : 
; 6328 : 				if( lpObj->VpPlayer2[nViewPortObjectCount].type == OBJ_USER &&

  0014f	80 7b 02 01	 cmp	 BYTE PTR [ebx+2], 1
  00153	89 45 f0	 mov	 DWORD PTR tv662[ebp], eax
  00156	8d 34 08	 lea	 esi, DWORD PTR [eax+ecx]
  00159	75 05		 jne	 SHORT $LN19@SkillMonkD
  0015b	3b 7d 0c	 cmp	 edi, DWORD PTR _aTargetIndex$[ebp]
  0015e	74 48		 je	 SHORT $LN50@SkillMonkD
$LN19@SkillMonkD:

; 6329 : 						nTargetObjNum == aTargetIndex )
; 6330 : 					// here we need to add gens battle zone check )
; 6331 : 				{
; 6332 : 					EnableAttack = TRUE;
; 6333 : 				}
; 6334 : 				else if( lpTargetObj->Type == OBJ_MONSTER && lpTargetObj->m_RecallMon < 0 )

  00160	80 7e 50 02	 cmp	 BYTE PTR [esi+80], 2
  00164	75 09		 jne	 SHORT $LN21@SkillMonkD
  00166	83 be 30 06 00
	00 00		 cmp	 DWORD PTR [esi+1584], 0
  0016d	7c 39		 jl	 SHORT $LN50@SkillMonkD
$LN21@SkillMonkD:

; 6335 : 				{
; 6336 : 					EnableAttack = TRUE;
; 6337 : 				}
; 6338 : 				else if( DuelIndex == nTargetObjNum )

  0016f	39 7d ec	 cmp	 DWORD PTR _DuelIndex$1$[ebp], edi
  00172	74 34		 je	 SHORT $LN50@SkillMonkD

; 6339 : 				{
; 6340 : 					EnableAttack = TRUE;
; 6341 : 				}
; 6342 : 				else
; 6343 : 				{
; 6344 : 					int CallMonIndex = gObj[nTargetObjNum].m_Index;
; 6345 : 
; 6346 : 					if(gObj[nTargetObjNum].Type == OBJ_MONSTER && gObj[nTargetObjNum].m_RecallMon >= 0)

  00174	80 7e 50 02	 cmp	 BYTE PTR [esi+80], 2
  00178	8b 16		 mov	 edx, DWORD PTR [esi]
  0017a	75 13		 jne	 SHORT $LN25@SkillMonkD
  0017c	8b 86 30 06 00
	00		 mov	 eax, DWORD PTR [esi+1584]
  00182	85 c0		 test	 eax, eax
  00184	78 09		 js	 SHORT $LN25@SkillMonkD

; 6347 : 					{
; 6348 : 						CallMonIndex = gObj[gObj[nTargetObjNum].m_RecallMon].m_Index;

  00186	69 c0 40 27 00
	00		 imul	 eax, eax, 10048
  0018c	8b 14 08	 mov	 edx, DWORD PTR [eax+ecx]
$LN25@SkillMonkD:

; 6349 : 					}
; 6350 : 
; 6351 : 					if(gObjTargetGuildWarCheck(lpObj,&gObj[CallMonIndex])==1)

  0018f	69 c2 40 27 00
	00		 imul	 eax, edx, 10048
  00195	03 c1		 add	 eax, ecx
  00197	50		 push	 eax
  00198	ff 75 fc	 push	 DWORD PTR _lpObj$1$[ebp]
  0019b	e8 00 00 00 00	 call	 ?gObjTargetGuildWarCheck@@YAHPAUOBJECTSTRUCT@@0@Z ; gObjTargetGuildWarCheck
  001a0	83 c4 08	 add	 esp, 8
  001a3	83 f8 01	 cmp	 eax, 1
  001a6	75 7e		 jne	 SHORT $LN55@SkillMonkD
$LN50@SkillMonkD:

; 6352 : 					{
; 6353 : 						EnableAttack = TRUE;
; 6354 : 					}
; 6355 : 				}
; 6356 : 
; 6357 : 				if( EnableAttack != FALSE && !gObjAttackQ(lpTargetObj) )

  001a8	56		 push	 esi
  001a9	e8 00 00 00 00	 call	 ?gObjAttackQ@@YAHPAUOBJECTSTRUCT@@@Z ; gObjAttackQ
  001ae	83 c4 04	 add	 esp, 4
  001b1	85 c0		 test	 eax, eax
  001b3	74 71		 je	 SHORT $LN55@SkillMonkD

; 6358 : 					EnableAttack = FALSE;
; 6359 : 
; 6360 : 				if( EnableAttack != FALSE )
; 6361 : 				{
; 6362 : 					int nAttackRange = 0;
; 6363 : 
; 6364 : 					if( lpMagic->m_Skill == AT_SKILL_RAGEFIGHTER_DARKSIDE ||
; 6365 : 						lpMagic->m_Skill == AT_MSKILL_RF_DARKSIDE1 ||

  001b5	8b 45 10	 mov	 eax, DWORD PTR _lpMagic$[ebp]
  001b8	8b 40 08	 mov	 eax, DWORD PTR [eax+8]
  001bb	3d 07 01 00 00	 cmp	 eax, 263		; 00000107H
  001c0	74 12		 je	 SHORT $LN31@SkillMonkD
  001c2	3d 2f 02 00 00	 cmp	 eax, 559		; 0000022fH
  001c7	74 0b		 je	 SHORT $LN31@SkillMonkD
  001c9	3d 33 02 00 00	 cmp	 eax, 563		; 00000233H
  001ce	74 04		 je	 SHORT $LN31@SkillMonkD

; 6368 : 					else
; 6369 : 						nAttackRange = 0;

  001d0	33 f6		 xor	 esi, esi
  001d2	eb 05		 jmp	 SHORT $LN30@SkillMonkD
$LN31@SkillMonkD:

; 6366 : 						lpMagic->m_Skill == AT_MSKILL_RF_DARKSIDE2 )
; 6367 : 						nAttackRange = 5;

  001d4	be 05 00 00 00	 mov	 esi, 5
$LN30@SkillMonkD:

; 6370 : 
; 6371 : 					if( CalDistance(lpObj->X,lpObj->Y,gObj[nTargetObjNum].X,gObj[nTargetObjNum].Y) < nAttackRange )

  001d9	8b 0d 00 00 00
	00		 mov	 ecx, DWORD PTR ?gObj@@3PAUOBJECTSTRUCT@@A ; gObj
  001df	8b 55 f0	 mov	 edx, DWORD PTR tv662[ebp]
  001e2	0f b6 84 0a 21
	01 00 00	 movzx	 eax, BYTE PTR [edx+ecx+289]
  001ea	50		 push	 eax
  001eb	0f b6 84 0a 20
	01 00 00	 movzx	 eax, BYTE PTR [edx+ecx+288]
  001f3	8b 4d fc	 mov	 ecx, DWORD PTR _lpObj$1$[ebp]
  001f6	50		 push	 eax
  001f7	0f b6 81 21 01
	00 00		 movzx	 eax, BYTE PTR [ecx+289]
  001fe	50		 push	 eax
  001ff	0f b6 81 20 01
	00 00		 movzx	 eax, BYTE PTR [ecx+288]
  00206	8b 4d f4	 mov	 ecx, DWORD PTR _this$1$[ebp]
  00209	50		 push	 eax
  0020a	e8 00 00 00 00	 call	 ?CalDistance@CObjUseSkill@@QAEHHHHH@Z ; CObjUseSkill::CalDistance
  0020f	3b c6		 cmp	 eax, esi
  00211	7d 13		 jge	 SHORT $LN55@SkillMonkD

; 6372 : 					{
; 6373 : 						wTargetList[nHitTargetCount] = nTargetObjNum;

  00213	8b 45 f8	 mov	 eax, DWORD PTR _nHitTargetCount$1$[ebp]
  00216	8b 4d 14	 mov	 ecx, DWORD PTR _wTargetList$[ebp]
  00219	66 89 3c 41	 mov	 WORD PTR [ecx+eax*2], di

; 6374 : 						nHitTargetCount++;

  0021d	40		 inc	 eax
  0021e	89 45 f8	 mov	 DWORD PTR _nHitTargetCount$1$[ebp], eax

; 6375 : 
; 6376 : 						if( nHitTargetCount >= 5 )

  00221	83 f8 05	 cmp	 eax, 5
  00224	7d 19		 jge	 SHORT $LN41@SkillMonkD
$LN55@SkillMonkD:
  00226	8b 7d 08	 mov	 edi, DWORD PTR _nViewPortObjectCount$1$[ebp]
$LN33@SkillMonkD:

; 6377 : 							break;
; 6378 : 					}
; 6379 : 				}
; 6380 : 
; 6381 : 			}
; 6382 : 		}
; 6383 : 		nViewPortObjectCount++;
; 6384 : 
; 6385 : 		if( nViewPortObjectCount > MAX_VIEWPORT-1 )

  00229	8b 0d 00 00 00
	00		 mov	 ecx, DWORD PTR ?gObj@@3PAUOBJECTSTRUCT@@A ; gObj
  0022f	47		 inc	 edi
  00230	83 c3 0c	 add	 ebx, 12			; 0000000cH
  00233	89 7d 08	 mov	 DWORD PTR _nViewPortObjectCount$1$[ebp], edi
  00236	83 ff 4a	 cmp	 edi, 74			; 0000004aH
  00239	0f 8e f1 fe ff
	ff		 jle	 $LL4@SkillMonkD
$LN41@SkillMonkD:
  0023f	5e		 pop	 esi
  00240	5b		 pop	 ebx

; 6386 : 			break;
; 6387 : 	}
; 6388 :     return true;

  00241	b8 01 00 00 00	 mov	 eax, 1
  00246	5f		 pop	 edi

; 6389 : }

  00247	8b e5		 mov	 esp, ebp
  00249	5d		 pop	 ebp
  0024a	c2 10 00	 ret	 16			; 00000010H
?SkillMonkDarkSideGetTargetIndex@CObjUseSkill@@QAEHHHPAVCMagicInf@@PAG@Z ENDP ; CObjUseSkill::SkillMonkDarkSideGetTargetIndex
_TEXT	ENDS
; Function compile flags: /Ogtp
; File c:\users\michel\desktop\source\gameserver\source\objuseskill.cpp
;	COMDAT ?SkillMonkBarrageJustOneTarget@CObjUseSkill@@QAEXHPAVCMagicInf@@H@Z
_TEXT	SEGMENT
_this$1$ = -8						; size = 4
tv500 = -4						; size = 4
_lpObj$1$ = 8						; size = 4
_aIndex$ = 8						; size = 4
tv493 = 12						; size = 4
_lpMagic$ = 12						; size = 4
_nMaxBarrageCount$1$ = 16				; size = 4
_aTargetIndex$ = 16					; size = 4
?SkillMonkBarrageJustOneTarget@CObjUseSkill@@QAEXHPAVCMagicInf@@H@Z PROC ; CObjUseSkill::SkillMonkBarrageJustOneTarget, COMDAT
; _this$ = ecx

; 6130 : {

  00000	55		 push	 ebp
  00001	8b ec		 mov	 ebp, esp
  00003	83 ec 08	 sub	 esp, 8
  00006	53		 push	 ebx

; 6131 : 	LPOBJ lpObj = &gObj[aIndex];

  00007	8b 1d 00 00 00
	00		 mov	 ebx, DWORD PTR ?gObj@@3PAUOBJECTSTRUCT@@A ; gObj

; 6132 : 	int nTargetObjNum = 0;
; 6133 : 	int nViewPortObjectCount = 0;

  0000d	33 d2		 xor	 edx, edx
  0000f	56		 push	 esi

; 6134 : 	int DuelIndex = lpObj->m_iDuelUser;
; 6135 : 
; 6136 : 	if( !OBJMAX_RANGE(aTargetIndex) )

  00010	8b 75 10	 mov	 esi, DWORD PTR _aTargetIndex$[ebp]
  00013	57		 push	 edi
  00014	8b 7d 08	 mov	 edi, DWORD PTR _aIndex$[ebp]
  00017	89 4d f8	 mov	 DWORD PTR _this$1$[ebp], ecx
  0001a	69 cf 40 27 00
	00		 imul	 ecx, edi, 10048
  00020	03 cb		 add	 ecx, ebx
  00022	89 4d 08	 mov	 DWORD PTR _lpObj$1$[ebp], ecx
  00025	85 f6		 test	 esi, esi
  00027	0f 88 1d 02 00
	00		 js	 $LN48@SkillMonkB
  0002d	33 c0		 xor	 eax, eax
  0002f	81 fe eb 2c 00
	00		 cmp	 esi, 11499		; 00002cebH
  00035	0f 9e c0	 setle	 al
  00038	85 c0		 test	 eax, eax
  0003a	0f 84 0a 02 00
	00		 je	 $LN48@SkillMonkB

; 6139 : 			aIndex,gObj[aIndex].AccountID);
; 6140 : 		return;
; 6141 : 	}
; 6142 : 
; 6143 : 	int EnableAttack;
; 6144 : 	LPOBJ lpTargetObj = &gObj[aTargetIndex];

  00040	69 c6 40 27 00
	00		 imul	 eax, esi, 10048
  00046	89 45 fc	 mov	 DWORD PTR tv500[ebp], eax
  00049	8d 3c 18	 lea	 edi, DWORD PTR [eax+ebx]
  0004c	8d 81 4a 0c 00
	00		 lea	 eax, DWORD PTR [ecx+3146]
$LL2@SkillMonkB:

; 6145 : 
; 6146 : 	while( TRUE )
; 6147 : 	{
; 6148 : 		if( lpObj->VpPlayer2[nViewPortObjectCount].state != 0 )

  00052	80 78 fe 00	 cmp	 BYTE PTR [eax-2], 0
  00056	74 0c		 je	 SHORT $LN9@SkillMonkB

; 6149 : 		{
; 6150 : 			nTargetObjNum = lpObj->VpPlayer2[nViewPortObjectCount].number;

  00058	0f bf 30	 movsx	 esi, WORD PTR [eax]

; 6151 : 
; 6152 : 			if( nTargetObjNum >= 0 && 

  0005b	85 f6		 test	 esi, esi
  0005d	78 05		 js	 SHORT $LN9@SkillMonkB
  0005f	3b 75 10	 cmp	 esi, DWORD PTR _aTargetIndex$[ebp]
  00062	74 12		 je	 SHORT $LN41@SkillMonkB
$LN9@SkillMonkB:

; 6240 : 						}
; 6241 : 					}
; 6242 : 				}
; 6243 : 				break;
; 6244 : 			}
; 6245 : 		}
; 6246 : 
; 6247 : 		nViewPortObjectCount++;

  00064	42		 inc	 edx
  00065	83 c0 0c	 add	 eax, 12			; 0000000cH

; 6248 : 
; 6249 : 		if(nViewPortObjectCount > MAX_VIEWPORT -1)

  00068	83 fa 4a	 cmp	 edx, 74			; 0000004aH
  0006b	7e e5		 jle	 SHORT $LL2@SkillMonkB
  0006d	5f		 pop	 edi
  0006e	5e		 pop	 esi
  0006f	5b		 pop	 ebx

; 6250 : 		{
; 6251 : 			break;
; 6252 : 		}
; 6253 : 	}
; 6254 : }

  00070	8b e5		 mov	 esp, ebp
  00072	5d		 pop	 ebp
  00073	c2 0c 00	 ret	 12			; 0000000cH
$LN41@SkillMonkB:

; 6153 : 				nTargetObjNum == aTargetIndex )
; 6154 : 			{
; 6155 : 				EnableAttack = FALSE;
; 6156 : 
; 6157 : 				
; 6158 : 				if(lpObj->VpPlayer2[nViewPortObjectCount].type == OBJ_USER && nTargetObjNum == aTargetIndex)

  00076	8d 04 52	 lea	 eax, DWORD PTR [edx+edx*2]
  00079	80 bc 81 4c 0c
	00 00 01	 cmp	 BYTE PTR [ecx+eax*4+3148], 1
  00081	74 63		 je	 SHORT $LN49@SkillMonkB

; 6159 : 				{
; 6160 : 					EnableAttack = TRUE;
; 6161 : 				}
; 6162 : 				else if( lpTargetObj->Type == OBJ_MONSTER && gObj[nTargetObjNum].m_RecallMon < 0 )

  00083	80 7f 50 02	 cmp	 BYTE PTR [edi+80], 2
  00087	75 10		 jne	 SHORT $LN12@SkillMonkB
  00089	69 c6 40 27 00
	00		 imul	 eax, esi, 10048
  0008f	83 bc 18 30 06
	00 00 00	 cmp	 DWORD PTR [eax+ebx+1584], 0
  00097	7c 4d		 jl	 SHORT $LN49@SkillMonkB
$LN12@SkillMonkB:

; 6163 : 				{
; 6164 : 					EnableAttack = TRUE;
; 6165 : 				}
; 6166 : 				else if( nTargetObjNum == DuelIndex )

  00099	3b b1 50 12 00
	00		 cmp	 esi, DWORD PTR [ecx+4688]
  0009f	74 45		 je	 SHORT $LN49@SkillMonkB

; 6167 : 				{
; 6168 : 					EnableAttack = TRUE;
; 6169 : 				}
; 6170 : 				else
; 6171 : 				{
; 6172 : 					int CallMonIndex = gObj[nTargetObjNum].m_Index;

  000a1	69 c6 40 27 00
	00		 imul	 eax, esi, 10048

; 6173 : 
; 6174 : 					if(gObj[nTargetObjNum].Type == OBJ_MONSTER && gObj[nTargetObjNum].m_RecallMon >= 0)

  000a7	80 7c 18 50 02	 cmp	 BYTE PTR [eax+ebx+80], 2
  000ac	8b 14 18	 mov	 edx, DWORD PTR [eax+ebx]
  000af	75 14		 jne	 SHORT $LN16@SkillMonkB
  000b1	8b 84 18 30 06
	00 00		 mov	 eax, DWORD PTR [eax+ebx+1584]
  000b8	85 c0		 test	 eax, eax
  000ba	78 09		 js	 SHORT $LN16@SkillMonkB

; 6175 : 					{
; 6176 : 						CallMonIndex = gObj[gObj[nTargetObjNum].m_RecallMon].m_Index;

  000bc	69 c0 40 27 00
	00		 imul	 eax, eax, 10048
  000c2	8b 14 18	 mov	 edx, DWORD PTR [eax+ebx]
$LN16@SkillMonkB:

; 6177 : 					}
; 6178 : 
; 6179 : 					if(gObjTargetGuildWarCheck(lpObj,&gObj[CallMonIndex])==1)

  000c5	69 c2 40 27 00
	00		 imul	 eax, edx, 10048
  000cb	03 c3		 add	 eax, ebx
  000cd	50		 push	 eax
  000ce	51		 push	 ecx
  000cf	e8 00 00 00 00	 call	 ?gObjTargetGuildWarCheck@@YAHPAUOBJECTSTRUCT@@0@Z ; gObjTargetGuildWarCheck
  000d4	83 c4 08	 add	 esp, 8
  000d7	83 f8 01	 cmp	 eax, 1
  000da	0f 85 7d 01 00
	00		 jne	 $LN5@SkillMonkB
  000e0	8b 1d 00 00 00
	00		 mov	 ebx, DWORD PTR ?gObj@@3PAUOBJECTSTRUCT@@A ; gObj
$LN49@SkillMonkB:

; 6180 : 					{
; 6181 : 						EnableAttack = TRUE;
; 6182 : 					}
; 6183 : 				}
; 6184 : 
; 6185 : 				if( EnableAttack != FALSE && 

  000e6	69 ce 40 27 00
	00		 imul	 ecx, esi, 10048
  000ec	0f b6 84 19 21
	01 00 00	 movzx	 eax, BYTE PTR [ecx+ebx+289]
  000f4	50		 push	 eax
  000f5	0f b6 84 19 20
	01 00 00	 movzx	 eax, BYTE PTR [ecx+ebx+288]
  000fd	8b 4d fc	 mov	 ecx, DWORD PTR tv500[ebp]
  00100	50		 push	 eax
  00101	0f b6 84 19 21
	01 00 00	 movzx	 eax, BYTE PTR [ecx+ebx+289]
  00109	50		 push	 eax
  0010a	0f b6 84 19 20
	01 00 00	 movzx	 eax, BYTE PTR [ecx+ebx+288]
  00112	8b 4d f8	 mov	 ecx, DWORD PTR _this$1$[ebp]
  00115	50		 push	 eax
  00116	e8 00 00 00 00	 call	 ?CalDistance@CObjUseSkill@@QAEHHHHH@Z ; CObjUseSkill::CalDistance
  0011b	83 f8 04	 cmp	 eax, 4
  0011e	0f 8d 39 01 00
	00		 jge	 $LN5@SkillMonkB

; 6186 : 					CalDistance(gObj[aTargetIndex].X,gObj[aTargetIndex].Y,gObj[nTargetObjNum].X,gObj[nTargetObjNum].Y) < 4 )
; 6187 : 				{
; 6188 : 					int nMaxBarrageCount = 0;
; 6189 : 
; 6190 : 					if( lpMagic->m_Skill == AT_SKILL_RAGEFIGHTER_WEAPON1 )

  00124	8b 5d 0c	 mov	 ebx, DWORD PTR _lpMagic$[ebp]
  00127	8b 4b 08	 mov	 ecx, DWORD PTR [ebx+8]
  0012a	81 f9 04 01 00
	00		 cmp	 ecx, 260		; 00000104H
  00130	75 09		 jne	 SHORT $LN19@SkillMonkB

; 6191 : 					{
; 6192 : 						nMaxBarrageCount = 5;

  00132	c7 45 10 05 00
	00 00		 mov	 DWORD PTR _nMaxBarrageCount$1$[ebp], 5
  00139	eb 35		 jmp	 SHORT $LN25@SkillMonkB
$LN19@SkillMonkB:

; 6193 : 					}
; 6194 : 					else if( lpMagic->m_Skill == AT_SKILL_RAGEFIGHTER_WEAPON2 )

  0013b	81 f9 05 01 00
	00		 cmp	 ecx, 261		; 00000105H
  00141	75 09		 jne	 SHORT $LN21@SkillMonkB

; 6195 : 					{
; 6196 : 						nMaxBarrageCount = 3;

  00143	c7 45 10 03 00
	00 00		 mov	 DWORD PTR _nMaxBarrageCount$1$[ebp], 3
  0014a	eb 24		 jmp	 SHORT $LN25@SkillMonkB
$LN21@SkillMonkB:

; 6197 : 					}
; 6198 : 					else if( lpMagic->m_Skill == AT_SKILL_RAGEFIGHTER_CHAINDRIVE )

  0014c	81 f9 06 01 00
	00		 cmp	 ecx, 262		; 00000106H
  00152	75 09		 jne	 SHORT $LN23@SkillMonkB

; 6199 : 					{
; 6200 : 						nMaxBarrageCount = 5;

  00154	c7 45 10 05 00
	00 00		 mov	 DWORD PTR _nMaxBarrageCount$1$[ebp], 5
  0015b	eb 13		 jmp	 SHORT $LN25@SkillMonkB
$LN23@SkillMonkB:

; 6201 : 					}
; 6202 : 					else if( lpMagic->m_Skill == AT_SKILL_RAGEFIGHTER_DARKSIDE )

  0015d	33 c0		 xor	 eax, eax
  0015f	ba 03 00 00 00	 mov	 edx, 3
  00164	81 f9 07 01 00
	00		 cmp	 ecx, 263		; 00000107H
  0016a	0f 44 c2	 cmove	 eax, edx
  0016d	89 45 10	 mov	 DWORD PTR _nMaxBarrageCount$1$[ebp], eax
$LN25@SkillMonkB:

; 6203 : 					{
; 6204 : 						nMaxBarrageCount = 3;
; 6205 : 					}
; 6206 : 					else
; 6207 : 					{
; 6208 : 						nMaxBarrageCount = 0;
; 6209 : 					}
; 6210 : 
; 6211 : 					if( lpMagic->m_Skill == AT_SKILL_RAGEFIGHTER_WEAPON1 && 

  00170	be 64 00 00 00	 mov	 esi, 100		; 00000064H
  00175	81 f9 04 01 00
	00		 cmp	 ecx, 260		; 00000104H
  0017b	75 1b		 jne	 SHORT $LN27@SkillMonkB
  0017d	e8 00 00 00 00	 call	 _rand
  00182	99		 cdq
  00183	f7 fe		 idiv	 esi
  00185	83 fa 0a	 cmp	 edx, 10			; 0000000aH
  00188	7d 0e		 jge	 SHORT $LN27@SkillMonkB

; 6212 : 						rand()%100 < 10 )
; 6213 : 					{
; 6214 : 						gObjAddBuffEffect(lpTargetObj,BUFF_WEAKNESS,ADD_OPTION_WEAKNESS,5,0,0,10);

  0018a	6a 0a		 push	 10			; 0000000aH
  0018c	6a 00		 push	 0
  0018e	6a 00		 push	 0
  00190	6a 05		 push	 5
  00192	6a 1d		 push	 29			; 0000001dH
  00194	6a 4c		 push	 76			; 0000004cH
  00196	eb 60		 jmp	 SHORT $LN50@SkillMonkB
$LN27@SkillMonkB:

; 6215 : 					}
; 6216 : 					else if( lpMagic->m_Skill == AT_SKILL_RAGEFIGHTER_WEAPON2 &&

  00198	81 7b 08 05 01
	00 00		 cmp	 DWORD PTR [ebx+8], 261	; 00000105H
  0019f	75 1b		 jne	 SHORT $LN29@SkillMonkB
  001a1	e8 00 00 00 00	 call	 _rand
  001a6	99		 cdq
  001a7	f7 fe		 idiv	 esi
  001a9	83 fa 0a	 cmp	 edx, 10			; 0000000aH
  001ac	7d 0e		 jge	 SHORT $LN29@SkillMonkB

; 6217 : 						rand()%100 < 10 )
; 6218 : 					{
; 6219 : 						gObjAddBuffEffect(lpTargetObj,BUFF_DEFENSEDOWN,ADD_OPTION_DEFENSEDOWN,10,0,0,10);

  001ae	6a 0a		 push	 10			; 0000000aH
  001b0	6a 00		 push	 0
  001b2	6a 00		 push	 0
  001b4	6a 0a		 push	 10			; 0000000aH
  001b6	6a 17		 push	 23			; 00000017H
  001b8	6a 3a		 push	 58			; 0000003aH
  001ba	eb 3c		 jmp	 SHORT $LN50@SkillMonkB
$LN29@SkillMonkB:

; 6220 : 					}
; 6221 : 					else if( lpMagic->m_Skill == AT_SKILL_RAGEFIGHTER_CHAINDRIVE &&

  001bc	81 7b 08 06 01
	00 00		 cmp	 DWORD PTR [ebx+8], 262	; 00000106H
  001c3	75 3c		 jne	 SHORT $LN31@SkillMonkB
  001c5	e8 00 00 00 00	 call	 _rand
  001ca	99		 cdq
  001cb	f7 fe		 idiv	 esi
  001cd	83 fa 28	 cmp	 edx, 40			; 00000028H
  001d0	7d 2f		 jge	 SHORT $LN31@SkillMonkB

; 6222 : 						rand()%100 < 40 )
; 6223 : 					{
; 6224 : 						lpTargetObj->lpAttackObj = lpObj;

  001d2	8b 45 08	 mov	 eax, DWORD PTR _lpObj$1$[ebp]

; 6225 : 						lpTargetObj->DelayActionTime = 1000;
; 6226 : 						lpTargetObj->DelayLevel = 1;
; 6227 : 
; 6228 : 						gObjAddBuffEffect(lpTargetObj,BUFF_COLD,ADD_OPTION_REDUCEMOVEMENT,0,0,0,10);

  001d5	6a 0a		 push	 10			; 0000000aH
  001d7	6a 00		 push	 0
  001d9	6a 00		 push	 0
  001db	6a 00		 push	 0
  001dd	6a 14		 push	 20			; 00000014H
  001df	89 87 b4 05 00
	00		 mov	 DWORD PTR [edi+1460], eax
  001e5	c7 87 a4 05 00
	00 e8 03 00 00	 mov	 DWORD PTR [edi+1444], 1000 ; 000003e8H
  001ef	c6 87 a8 05 00
	00 01		 mov	 BYTE PTR [edi+1448], 1
  001f6	6a 56		 push	 86			; 00000056H
$LN50@SkillMonkB:
  001f8	57		 push	 edi
  001f9	e8 00 00 00 00	 call	 ?gObjAddBuffEffect@@YA_NPAUOBJECTSTRUCT@@HEHEHH@Z ; gObjAddBuffEffect
  001fe	83 c4 1c	 add	 esp, 28			; 0000001cH
$LN31@SkillMonkB:

; 6229 : 					}
; 6230 : 
; 6231 : 					for(int i = 1; i < nMaxBarrageCount; i++)

  00201	8b 45 10	 mov	 eax, DWORD PTR _nMaxBarrageCount$1$[ebp]
  00204	be 01 00 00 00	 mov	 esi, 1
  00209	3b c6		 cmp	 eax, esi
  0020b	7e 50		 jle	 SHORT $LN5@SkillMonkB
  0020d	8d 48 ff	 lea	 ecx, DWORD PTR [eax-1]
  00210	89 4d 0c	 mov	 DWORD PTR tv493[ebp], ecx
$LL6@SkillMonkB:

; 6232 : 					{
; 6233 : 						if( (i%(nMaxBarrageCount-1)) == TRUE  )

  00213	8b c6		 mov	 eax, esi
  00215	99		 cdq
  00216	f7 f9		 idiv	 ecx

; 6234 : 						{
; 6235 : 							gObjAttack(lpObj,lpTargetObj,lpMagic,TRUE,TRUE,0,0,i,0);

  00218	6a 00		 push	 0
  0021a	56		 push	 esi
  0021b	6a 00		 push	 0
  0021d	6a 00		 push	 0
  0021f	6a 01		 push	 1
  00221	83 fa 01	 cmp	 edx, 1
  00224	75 03		 jne	 SHORT $LN32@SkillMonkB
  00226	52		 push	 edx

; 6236 : 						}
; 6237 : 						else

  00227	eb 02		 jmp	 SHORT $LN51@SkillMonkB
$LN32@SkillMonkB:

; 6238 : 						{
; 6239 : 							gObjAttack(lpObj,lpTargetObj,lpMagic,FALSE,TRUE,0,0,i,0);

  00229	6a 00		 push	 0
$LN51@SkillMonkB:
  0022b	53		 push	 ebx
  0022c	57		 push	 edi
  0022d	ff 75 08	 push	 DWORD PTR _lpObj$1$[ebp]
  00230	e8 00 00 00 00	 call	 ?gObjAttack@@YAXPAUOBJECTSTRUCT@@0PAVCMagicInf@@HEHHEE@Z ; gObjAttack
  00235	8b 4d 0c	 mov	 ecx, DWORD PTR tv493[ebp]
  00238	46		 inc	 esi
  00239	83 c4 24	 add	 esp, 36			; 00000024H
  0023c	3b 75 10	 cmp	 esi, DWORD PTR _nMaxBarrageCount$1$[ebp]
  0023f	7c d2		 jl	 SHORT $LL6@SkillMonkB
  00241	5f		 pop	 edi
  00242	5e		 pop	 esi
  00243	5b		 pop	 ebx

; 6250 : 		{
; 6251 : 			break;
; 6252 : 		}
; 6253 : 	}
; 6254 : }

  00244	8b e5		 mov	 esp, ebp
  00246	5d		 pop	 ebp
  00247	c2 0c 00	 ret	 12			; 0000000cH
$LN48@SkillMonkB:

; 6137 : 	{
; 6138 : 		LogAddTD("[InvalidTargetIndex][SkillMonkBarrageJustOneTarget] Index :%d , AccountID : %s ",

  0024a	8d 41 52	 lea	 eax, DWORD PTR [ecx+82]
  0024d	50		 push	 eax
  0024e	57		 push	 edi
  0024f	68 00 00 00 00	 push	 OFFSET ??_C@_0FA@JGPGPLCI@?$FLInvalidTargetIndex?$FN?$FLSkillMonkBa@
  00254	ff 15 00 00 00
	00		 call	 DWORD PTR ?LogAddTD@@3P6AXPADZZA ; LogAddTD
  0025a	83 c4 0c	 add	 esp, 12			; 0000000cH
$LN5@SkillMonkB:
  0025d	5f		 pop	 edi
  0025e	5e		 pop	 esi
  0025f	5b		 pop	 ebx

; 6250 : 		{
; 6251 : 			break;
; 6252 : 		}
; 6253 : 	}
; 6254 : }

  00260	8b e5		 mov	 esp, ebp
  00262	5d		 pop	 ebp
  00263	c2 0c 00	 ret	 12			; 0000000cH
?SkillMonkBarrageJustOneTarget@CObjUseSkill@@QAEXHPAVCMagicInf@@H@Z ENDP ; CObjUseSkill::SkillMonkBarrageJustOneTarget
_TEXT	ENDS
; Function compile flags: /Ogtp
; File c:\users\michel\desktop\source\gameserver\source\objuseskill.cpp
;	COMDAT ?SkillDeathPoisonForMeDusa@CObjUseSkill@@QAEHHPAVCMagicInf@@EEH@Z
_TEXT	SEGMENT
_tObjNum$1$ = -12					; size = 4
_this$1$ = -8						; size = 4
_lpObj$1$ = -4						; size = 4
tv405 = 8						; size = 4
_aIndex$ = 8						; size = 4
_lpMagic$ = 12						; size = 4
_x$ = 16						; size = 1
_y$ = 20						; size = 1
_lpTargetObj$1$ = 24					; size = 4
_aTargetIndex$ = 24					; size = 4
?SkillDeathPoisonForMeDusa@CObjUseSkill@@QAEHHPAVCMagicInf@@EEH@Z PROC ; CObjUseSkill::SkillDeathPoisonForMeDusa, COMDAT
; _this$ = ecx

; 6581 : {

  00000	55		 push	 ebp
  00001	8b ec		 mov	 ebp, esp
  00003	83 ec 0c	 sub	 esp, 12			; 0000000cH

; 6582 : 	LPOBJ lpObj		= &gObj[aIndex];
; 6583 : 	int tObjNum;
; 6584 : 	int count		= 0;
; 6585 : 	int FirstHit	= 0;
; 6586 : 	int HitCount	= 0;
; 6587 : 	int DuelIndex	= lpObj->m_iDuelUser;
; 6588 : 	int EnableAttack;
; 6589 : 	// ----
; 6590 : 	if( !OBJMAX_RANGE(aTargetIndex) )

  00006	8b 55 18	 mov	 edx, DWORD PTR _aTargetIndex$[ebp]
  00009	56		 push	 esi
  0000a	8b 75 08	 mov	 esi, DWORD PTR _aIndex$[ebp]
  0000d	57		 push	 edi
  0000e	69 fe 40 27 00
	00		 imul	 edi, esi, 10048
  00014	89 4d f8	 mov	 DWORD PTR _this$1$[ebp], ecx
  00017	8b 0d 00 00 00
	00		 mov	 ecx, DWORD PTR ?gObj@@3PAUOBJECTSTRUCT@@A ; gObj
  0001d	03 f9		 add	 edi, ecx
  0001f	89 7d fc	 mov	 DWORD PTR _lpObj$1$[ebp], edi
  00022	85 d2		 test	 edx, edx
  00024	0f 88 54 01 00
	00		 js	 $LN24@SkillDeath
  0002a	33 c0		 xor	 eax, eax
  0002c	81 fa eb 2c 00
	00		 cmp	 edx, 11499		; 00002cebH
  00032	0f 9e c0	 setle	 al
  00035	85 c0		 test	 eax, eax
  00037	0f 84 41 01 00
	00		 je	 $LN24@SkillDeath

; 6595 : 	}
; 6596 : 	// ----
; 6597 : 	LPOBJ lpTargetObj = &gObj[aTargetIndex];

  0003d	69 c2 40 27 00
	00		 imul	 eax, edx, 10048
  00043	8d b7 4a 0c 00
	00		 lea	 esi, DWORD PTR [edi+3146]
  00049	53		 push	 ebx
  0004a	03 c1		 add	 eax, ecx
  0004c	b9 4b 00 00 00	 mov	 ecx, 75			; 0000004bH
  00051	89 45 18	 mov	 DWORD PTR _lpTargetObj$1$[ebp], eax
  00054	89 4d 08	 mov	 DWORD PTR tv405[ebp], ecx
  00057	66 0f 1f 84 00
	00 00 00 00	 npad	 9
$LL2@SkillDeath:

; 6598 : 	// ----
; 6599 : 	while(true)
; 6600 : 	{
; 6601 : 		if( lpObj->VpPlayer2[count].state != 0 )

  00060	80 7e fe 00	 cmp	 BYTE PTR [esi-2], 0
  00064	0f 84 f7 00 00
	00		 je	 $LN26@SkillDeath

; 6602 : 		{
; 6603 : 			tObjNum = lpObj->VpPlayer2[count].number;

  0006a	0f bf 06	 movsx	 eax, WORD PTR [esi]
  0006d	89 45 f4	 mov	 DWORD PTR _tObjNum$1$[ebp], eax

; 6604 : 			// ----
; 6605 : 			if( tObjNum >= 0 )

  00070	85 c0		 test	 eax, eax
  00072	0f 88 e9 00 00
	00		 js	 $LN26@SkillDeath

; 6606 : 			{
; 6607 : 				EnableAttack = 0;
; 6608 : 				// ----
; 6609 : 				if( lpObj->VpPlayer2[count].type == OBJ_USER && gObj[tObjNum].m_RecallMon < 0 )

  00078	80 7e 02 01	 cmp	 BYTE PTR [esi+2], 1
  0007c	0f 85 df 00 00
	00		 jne	 $LN26@SkillDeath
  00082	8b 3d 00 00 00
	00		 mov	 edi, DWORD PTR ?gObj@@3PAUOBJECTSTRUCT@@A ; gObj
  00088	69 d8 40 27 00
	00		 imul	 ebx, eax, 10048
  0008e	03 fb		 add	 edi, ebx
  00090	83 bf 30 06 00
	00 00		 cmp	 DWORD PTR [edi+1584], 0
  00097	0f 8d c4 00 00
	00		 jge	 $LN26@SkillDeath

; 6610 : 				{
; 6611 : 					EnableAttack = 1;
; 6612 : 				}
; 6613 : 				// ----
; 6614 : 				if( EnableAttack )
; 6615 : 				{
; 6616 : 					if( this->CalDistance(x, y, gObj[tObjNum].X, gObj[tObjNum].Y) < 8 )

  0009d	0f b6 87 21 01
	00 00		 movzx	 eax, BYTE PTR [edi+289]
  000a4	8b 4d f8	 mov	 ecx, DWORD PTR _this$1$[ebp]
  000a7	50		 push	 eax
  000a8	0f b6 87 20 01
	00 00		 movzx	 eax, BYTE PTR [edi+288]
  000af	50		 push	 eax
  000b0	0f b6 45 14	 movzx	 eax, BYTE PTR _y$[ebp]
  000b4	50		 push	 eax
  000b5	0f b6 45 10	 movzx	 eax, BYTE PTR _x$[ebp]
  000b9	50		 push	 eax
  000ba	e8 00 00 00 00	 call	 ?CalDistance@CObjUseSkill@@QAEHHHHH@Z ; CObjUseSkill::CalDistance
  000bf	83 f8 08	 cmp	 eax, 8
  000c2	0f 8d 96 00 00
	00		 jge	 $LN31@SkillDeath

; 6617 : 					{
; 6618 : 						if( lpObj->m_Index != gObj[tObjNum].m_Index )

  000c8	8b 45 fc	 mov	 eax, DWORD PTR _lpObj$1$[ebp]
  000cb	8b 00		 mov	 eax, DWORD PTR [eax]
  000cd	3b 07		 cmp	 eax, DWORD PTR [edi]
  000cf	0f 84 89 00 00
	00		 je	 $LN31@SkillDeath

; 6619 : 						{
; 6620 : 							int iSkillDistance = gObjCalDistance(lpTargetObj, &gObj[tObjNum]);

  000d5	57		 push	 edi
  000d6	ff 75 18	 push	 DWORD PTR _lpTargetObj$1$[ebp]
  000d9	e8 00 00 00 00	 call	 ?gObjCalDistance@@YAHPAUOBJECTSTRUCT@@0@Z ; gObjCalDistance
  000de	83 c4 08	 add	 esp, 8

; 6621 : 							// ----
; 6622 : 							if( iSkillDistance <= 3 )

  000e1	83 f8 03	 cmp	 eax, 3
  000e4	7f 78		 jg	 SHORT $LN31@SkillDeath

; 6623 : 							{
; 6624 : 								int delay = rand() % 500;

  000e6	e8 00 00 00 00	 call	 _rand
  000eb	99		 cdq
  000ec	b9 f4 01 00 00	 mov	 ecx, 500		; 000001f4H
  000f1	f7 f9		 idiv	 ecx

; 6625 : 								gObjAddAttackProcMsgSendDelay(lpObj, 50, tObjNum, delay, lpMagic->m_Skill, 0);

  000f3	8b 45 0c	 mov	 eax, DWORD PTR _lpMagic$[ebp]
  000f6	8b 7d fc	 mov	 edi, DWORD PTR _lpObj$1$[ebp]
  000f9	6a 00		 push	 0
  000fb	ff 70 08	 push	 DWORD PTR [eax+8]
  000fe	52		 push	 edx
  000ff	ff 75 f4	 push	 DWORD PTR _tObjNum$1$[ebp]
  00102	6a 32		 push	 50			; 00000032H
  00104	57		 push	 edi
  00105	e8 00 00 00 00	 call	 ?gObjAddAttackProcMsgSendDelay@@YAXPAUOBJECTSTRUCT@@HHHHH@Z ; gObjAddAttackProcMsgSendDelay

; 6626 : 								// ----
; 6627 : 								if( gObjCheckUsedBuffEffect(&gObj[tObjNum], 55) )

  0010a	a1 00 00 00 00	 mov	 eax, DWORD PTR ?gObj@@3PAUOBJECTSTRUCT@@A ; gObj
  0010f	03 c3		 add	 eax, ebx
  00111	6a 37		 push	 55			; 00000037H
  00113	50		 push	 eax
  00114	e8 00 00 00 00	 call	 ?gObjCheckUsedBuffEffect@@YA_NPAUOBJECTSTRUCT@@H@Z ; gObjCheckUsedBuffEffect
  00119	83 c4 20	 add	 esp, 32			; 00000020H
  0011c	84 c0		 test	 al, al
  0011e	74 3e		 je	 SHORT $LN31@SkillDeath

; 6628 : 								{
; 6629 : 									if( !retResistance(&gObj[tObjNum], 1) )

  00120	a1 00 00 00 00	 mov	 eax, DWORD PTR ?gObj@@3PAUOBJECTSTRUCT@@A ; gObj
  00125	03 c3		 add	 eax, ebx
  00127	6a 01		 push	 1
  00129	50		 push	 eax
  0012a	e8 00 00 00 00	 call	 ?retResistance@@YAHPAUOBJECTSTRUCT@@H@Z ; retResistance
  0012f	83 c4 08	 add	 esp, 8
  00132	85 c0		 test	 eax, eax
  00134	75 28		 jne	 SHORT $LN31@SkillDeath

; 6630 : 									{
; 6631 : 										gObj[tObjNum].lpAttackObj = lpObj;

  00136	a1 00 00 00 00	 mov	 eax, DWORD PTR ?gObj@@3PAUOBJECTSTRUCT@@A ; gObj

; 6632 : 										gObjAddBuffEffect(&gObj[tObjNum], 55, 19, 3, 0, 0, 20);

  0013b	6a 14		 push	 20			; 00000014H
  0013d	6a 00		 push	 0
  0013f	6a 00		 push	 0
  00141	6a 03		 push	 3
  00143	89 bc 03 b4 05
	00 00		 mov	 DWORD PTR [ebx+eax+1460], edi
  0014a	a1 00 00 00 00	 mov	 eax, DWORD PTR ?gObj@@3PAUOBJECTSTRUCT@@A ; gObj
  0014f	6a 13		 push	 19			; 00000013H
  00151	03 c3		 add	 eax, ebx
  00153	6a 37		 push	 55			; 00000037H
  00155	50		 push	 eax
  00156	e8 00 00 00 00	 call	 ?gObjAddBuffEffect@@YA_NPAUOBJECTSTRUCT@@HEHEHH@Z ; gObjAddBuffEffect
  0015b	83 c4 1c	 add	 esp, 28			; 0000001cH
$LN31@SkillDeath:
  0015e	8b 4d 08	 mov	 ecx, DWORD PTR tv405[ebp]
$LN26@SkillDeath:

; 6633 : 									}
; 6634 : 								}
; 6635 : 							}
; 6636 : 						}
; 6637 : 					}
; 6638 : 				}
; 6639 : 			}
; 6640 : 		}
; 6641 : 		// ----
; 6642 : 		count++;

  00161	83 c6 0c	 add	 esi, 12			; 0000000cH

; 6643 : 		// ----
; 6644 : 		if( count > MAX_VIEWPORT -1 )

  00164	83 e9 01	 sub	 ecx, 1
  00167	89 4d 08	 mov	 DWORD PTR tv405[ebp], ecx
  0016a	0f 85 f0 fe ff
	ff		 jne	 $LL2@SkillDeath

; 6645 : 		{
; 6646 : 			break;
; 6647 : 		}
; 6648 : 	}
; 6649 : 	// ----
; 6650 : 	return 1;

  00170	5b		 pop	 ebx
  00171	5f		 pop	 edi
  00172	b8 01 00 00 00	 mov	 eax, 1
  00177	5e		 pop	 esi

; 6651 : }

  00178	8b e5		 mov	 esp, ebp
  0017a	5d		 pop	 ebp
  0017b	c2 14 00	 ret	 20			; 00000014H
$LN24@SkillDeath:

; 6591 : 	{
; 6592 : 		LogAddTD("[InvalidTargetIndex][SkillDeathPoisonForMeDusa] Index :%d , AccountID : %s ",

  0017e	8d 47 52	 lea	 eax, DWORD PTR [edi+82]
  00181	50		 push	 eax
  00182	56		 push	 esi
  00183	68 00 00 00 00	 push	 OFFSET ??_C@_0EM@PCLLIACM@?$FLInvalidTargetIndex?$FN?$FLSkillDeathP@
  00188	ff 15 00 00 00
	00		 call	 DWORD PTR ?LogAddTD@@3P6AXPADZZA ; LogAddTD
  0018e	83 c4 0c	 add	 esp, 12			; 0000000cH

; 6593 : 			aIndex, gObj[aIndex].AccountID);
; 6594 : 		return 0;

  00191	33 c0		 xor	 eax, eax
  00193	5f		 pop	 edi
  00194	5e		 pop	 esi

; 6651 : }

  00195	8b e5		 mov	 esp, ebp
  00197	5d		 pop	 ebp
  00198	c2 14 00	 ret	 20			; 00000014H
?SkillDeathPoisonForMeDusa@CObjUseSkill@@QAEHHPAVCMagicInf@@EEH@Z ENDP ; CObjUseSkill::SkillDeathPoisonForMeDusa
_TEXT	ENDS
; Function compile flags: /Ogtp
; File c:\users\michel\desktop\source\gameserver\source\objuseskill.cpp
;	COMDAT ?SkillEvilMonster@CObjUseSkill@@QAEHHHPAVCMagicInf@@@Z
_TEXT	SEGMENT
tv381 = -8						; size = 4
_HitCount$1$ = -4					; size = 4
tv378 = 8						; size = 4
_aIndex$ = 8						; size = 4
_aTargetIndex$ = 12					; size = 4
_lpMagic$ = 16						; size = 4
?SkillEvilMonster@CObjUseSkill@@QAEHHHPAVCMagicInf@@@Z PROC ; CObjUseSkill::SkillEvilMonster, COMDAT
; _this$ = ecx

; 6654 : {

  00000	55		 push	 ebp
  00001	8b ec		 mov	 ebp, esp
  00003	83 ec 08	 sub	 esp, 8
  00006	53		 push	 ebx

; 6655 : 	LPOBJ lpObj		= &gObj[aIndex];

  00007	69 5d 08 40 27
	00 00		 imul	 ebx, DWORD PTR _aIndex$[ebp], 10048
  0000e	ba 4b 00 00 00	 mov	 edx, 75			; 0000004bH
  00013	56		 push	 esi
  00014	57		 push	 edi

; 6656 : 	int tObjNum;
; 6657 : 	int count		= 0;
; 6658 : 	int HitCount	= 0;

  00015	c7 45 fc 00 00
	00 00		 mov	 DWORD PTR _HitCount$1$[ebp], 0
  0001c	89 55 08	 mov	 DWORD PTR tv378[ebp], edx
  0001f	03 1d 00 00 00
	00		 add	 ebx, DWORD PTR ?gObj@@3PAUOBJECTSTRUCT@@A ; gObj
  00025	8d b3 4a 0c 00
	00		 lea	 esi, DWORD PTR [ebx+3146]
  0002b	0f 1f 44 00 00	 npad	 5
$LL2@SkillEvilM:

; 6659 : 	int bAttack;
; 6660 : 	int DuelIndex	= lpObj->m_iDuelUser;
; 6661 : 	// ----
; 6662 : 	while(true)
; 6663 : 	{
; 6664 : 		if( lpObj->VpPlayer2[count].state )

  00030	80 7e fe 00	 cmp	 BYTE PTR [esi-2], 0
  00034	0f 84 b9 00 00
	00		 je	 $LN27@SkillEvilM

; 6665 : 		{
; 6666 : 			tObjNum = lpObj->VpPlayer2[count].number;

  0003a	0f bf 3e	 movsx	 edi, WORD PTR [esi]

; 6667 : 			// ----
; 6668 : 			if( tObjNum >= 0 )

  0003d	85 ff		 test	 edi, edi
  0003f	0f 88 ae 00 00
	00		 js	 $LN27@SkillEvilM

; 6669 : 			{
; 6670 : 				int EnableAttack = false;
; 6671 : 				// ----
; 6672 : 				if( lpObj->VpPlayer2[count].type == 1 )

  00045	80 7e 02 01	 cmp	 BYTE PTR [esi+2], 1
  00049	0f 85 a4 00 00
	00		 jne	 $LN27@SkillEvilM

; 6673 : 				{
; 6674 : 					EnableAttack = true;
; 6675 : 					// ----
; 6676 : 					if( gObj[tObjNum].m_RecallMon >= 0 )

  0004f	a1 00 00 00 00	 mov	 eax, DWORD PTR ?gObj@@3PAUOBJECTSTRUCT@@A ; gObj
  00054	69 cf 40 27 00
	00		 imul	 ecx, edi, 10048
  0005a	03 c1		 add	 eax, ecx
  0005c	89 4d f8	 mov	 DWORD PTR tv381[ebp], ecx
  0005f	83 b8 30 06 00
	00 00		 cmp	 DWORD PTR [eax+1584], 0
  00066	7c 09		 jl	 SHORT $LN25@SkillEvilM

; 6677 : 					{
; 6678 : 						if( tObjNum != aTargetIndex )

  00068	3b 7d 0c	 cmp	 edi, DWORD PTR _aTargetIndex$[ebp]
  0006b	0f 85 82 00 00
	00		 jne	 $LN27@SkillEvilM
$LN25@SkillEvilM:

; 6679 : 						{
; 6680 : 							EnableAttack = false;
; 6681 : 						}
; 6682 : 					}
; 6683 : 				}
; 6684 : 				// ----
; 6685 : 				if( EnableAttack )
; 6686 : 				{
; 6687 : 					if( gObjCalDistance(lpObj, &gObj[tObjNum]) < 6 )

  00071	50		 push	 eax
  00072	53		 push	 ebx
  00073	e8 00 00 00 00	 call	 ?gObjCalDistance@@YAHPAUOBJECTSTRUCT@@0@Z ; gObjCalDistance
  00078	83 c4 08	 add	 esp, 8
  0007b	83 f8 06	 cmp	 eax, 6
  0007e	7d 70		 jge	 SHORT $LN31@SkillEvilM

; 6688 : 					{
; 6689 : 						bAttack = false;
; 6690 : 						// ----
; 6691 : 						if( HitCount >= 5 )

  00080	33 c0		 xor	 eax, eax
  00082	83 7d fc 05	 cmp	 DWORD PTR _HitCount$1$[ebp], 5
  00086	0f 9c c0	 setl	 al

; 6692 : 						{
; 6693 : 							bAttack = false;
; 6694 : 						}
; 6695 : 						else
; 6696 : 						{
; 6697 : 							bAttack = true;
; 6698 : 						}
; 6699 : 						// ----
; 6700 : 						if( tObjNum == aTargetIndex )

  00089	3b 7d 0c	 cmp	 edi, DWORD PTR _aTargetIndex$[ebp]
  0008c	74 04		 je	 SHORT $LN26@SkillEvilM

; 6701 : 						{
; 6702 : 							bAttack = true;
; 6703 : 						}
; 6704 : 						// ----
; 6705 : 						if( bAttack )

  0008e	85 c0		 test	 eax, eax
  00090	74 5e		 je	 SHORT $LN31@SkillEvilM
$LN26@SkillEvilM:

; 6706 : 						{
; 6707 : 							int delay = rand() % 2000;

  00092	e8 00 00 00 00	 call	 _rand

; 6708 : 							// ----
; 6709 : 							gObjAddAttackProcMsgSendDelay(lpObj, 50, tObjNum, 300, lpMagic->m_Skill, 0);

  00097	8b 45 10	 mov	 eax, DWORD PTR _lpMagic$[ebp]
  0009a	6a 00		 push	 0
  0009c	ff 70 08	 push	 DWORD PTR [eax+8]
  0009f	68 2c 01 00 00	 push	 300			; 0000012cH
  000a4	57		 push	 edi
  000a5	6a 32		 push	 50			; 00000032H
  000a7	53		 push	 ebx
  000a8	e8 00 00 00 00	 call	 ?gObjAddAttackProcMsgSendDelay@@YAXPAUOBJECTSTRUCT@@HHHHH@Z ; gObjAddAttackProcMsgSendDelay

; 6710 : 							HitCount++;
; 6711 : 							// ----
; 6712 : 							LPOBJ lpTargetObj = &gObj[tObjNum];

  000ad	8b 7d f8	 mov	 edi, DWORD PTR tv381[ebp]
  000b0	03 3d 00 00 00
	00		 add	 edi, DWORD PTR ?gObj@@3PAUOBJECTSTRUCT@@A ; gObj
  000b6	ff 45 fc	 inc	 DWORD PTR _HitCount$1$[ebp]

; 6713 : 							// ----
; 6714 : 							if( !gObjCheckUsedBuffEffect(lpTargetObj, 55) )

  000b9	6a 37		 push	 55			; 00000037H
  000bb	57		 push	 edi
  000bc	e8 00 00 00 00	 call	 ?gObjCheckUsedBuffEffect@@YA_NPAUOBJECTSTRUCT@@H@Z ; gObjCheckUsedBuffEffect
  000c1	83 c4 20	 add	 esp, 32			; 00000020H
  000c4	84 c0		 test	 al, al
  000c6	75 28		 jne	 SHORT $LN31@SkillEvilM

; 6715 : 							{
; 6716 : 								if( !retResistance(lpTargetObj, 1) )

  000c8	6a 01		 push	 1
  000ca	57		 push	 edi
  000cb	e8 00 00 00 00	 call	 ?retResistance@@YAHPAUOBJECTSTRUCT@@H@Z ; retResistance
  000d0	83 c4 08	 add	 esp, 8
  000d3	85 c0		 test	 eax, eax
  000d5	75 19		 jne	 SHORT $LN31@SkillEvilM

; 6717 : 								{
; 6718 : 									lpTargetObj->lpAttackObj = lpObj;
; 6719 : 									gObjAddBuffEffect(lpTargetObj, 55, 19, 3, 0, 0, 20);

  000d7	6a 14		 push	 20			; 00000014H
  000d9	50		 push	 eax
  000da	50		 push	 eax
  000db	6a 03		 push	 3
  000dd	6a 13		 push	 19			; 00000013H
  000df	6a 37		 push	 55			; 00000037H
  000e1	57		 push	 edi
  000e2	89 9f b4 05 00
	00		 mov	 DWORD PTR [edi+1460], ebx
  000e8	e8 00 00 00 00	 call	 ?gObjAddBuffEffect@@YA_NPAUOBJECTSTRUCT@@HEHEHH@Z ; gObjAddBuffEffect
  000ed	83 c4 1c	 add	 esp, 28			; 0000001cH
$LN31@SkillEvilM:
  000f0	8b 55 08	 mov	 edx, DWORD PTR tv378[ebp]
$LN27@SkillEvilM:

; 6720 : 								}
; 6721 : 							}
; 6722 : 						}
; 6723 : 					}
; 6724 : 				}
; 6725 : 			}
; 6726 : 		}
; 6727 : 		// ----
; 6728 : 		count++;

  000f3	83 c6 0c	 add	 esi, 12			; 0000000cH

; 6729 : 		// ----
; 6730 : 		if( count > MAX_VIEWPORT-1 )

  000f6	83 ea 01	 sub	 edx, 1
  000f9	89 55 08	 mov	 DWORD PTR tv378[ebp], edx
  000fc	0f 85 2e ff ff
	ff		 jne	 $LL2@SkillEvilM

; 6731 : 		{
; 6732 : 			break;
; 6733 : 		}
; 6734 : 	}
; 6735 : 	// ----
; 6736 : 	return true;

  00102	5f		 pop	 edi
  00103	5e		 pop	 esi
  00104	b8 01 00 00 00	 mov	 eax, 1
  00109	5b		 pop	 ebx

; 6737 : }

  0010a	8b e5		 mov	 esp, ebp
  0010c	5d		 pop	 ebp
  0010d	c2 0c 00	 ret	 12			; 0000000cH
?SkillEvilMonster@CObjUseSkill@@QAEHHHPAVCMagicInf@@@Z ENDP ; CObjUseSkill::SkillEvilMonster
_TEXT	ENDS
; Function compile flags: /Ogtp
; File c:\users\michel\desktop\source\gameserver\source\objuseskill.cpp
;	COMDAT ?SkillChaoticDesier@CObjUseSkill@@QAEXHPAVCMagicInf@@EH@Z
_TEXT	SEGMENT
_DuelIndex$1$ = -12					; size = 4
_HitCount$1$ = -8					; size = 4
_lpObj$1$ = -4						; size = 4
_aIndex$ = 8						; size = 4
_lpMagic$ = 12						; size = 4
tv478 = 16						; size = 4
_TargetPos$ = 16					; size = 1
_aTargetIndex$ = 20					; size = 4
?SkillChaoticDesier@CObjUseSkill@@QAEXHPAVCMagicInf@@EH@Z PROC ; CObjUseSkill::SkillChaoticDesier, COMDAT
; _this$ = ecx

; 5490 : {

  00000	55		 push	 ebp
  00001	8b ec		 mov	 ebp, esp
  00003	83 ec 0c	 sub	 esp, 12			; 0000000cH

; 5491 : 	LPOBJ lpObj = &gObj[aIndex];

  00006	8b 45 08	 mov	 eax, DWORD PTR _aIndex$[ebp]
  00009	53		 push	 ebx
  0000a	56		 push	 esi
  0000b	57		 push	 edi

; 5492 : 	int bSuccess = TRUE;
; 5493 : 
; 5494 : 	SkillFrustrum3(aIndex,TargetPos,1.5f,6.0f,1.5f,0);

  0000c	83 ec 10	 sub	 esp, 16			; 00000010H
  0000f	69 d8 40 27 00
	00		 imul	 ebx, eax, 10048
  00015	c7 44 24 0c 00
	00 00 00	 mov	 DWORD PTR [esp+12], 0
  0001d	03 1d 00 00 00
	00		 add	 ebx, DWORD PTR ?gObj@@3PAUOBJECTSTRUCT@@A ; gObj
  00023	c7 44 24 08 00
	00 c0 3f	 mov	 DWORD PTR [esp+8], 1069547520 ; 3fc00000H
  0002b	c7 44 24 04 00
	00 c0 40	 mov	 DWORD PTR [esp+4], 1086324736 ; 40c00000H
  00033	c7 04 24 00 00
	c0 3f		 mov	 DWORD PTR [esp], 1069547520 ; 3fc00000H
  0003a	ff 75 10	 push	 DWORD PTR _TargetPos$[ebp]
  0003d	89 5d fc	 mov	 DWORD PTR _lpObj$1$[ebp], ebx
  00040	50		 push	 eax
  00041	e8 00 00 00 00	 call	 ?SkillFrustrum3@CObjUseSkill@@QAEXHEMMMM@Z ; CObjUseSkill::SkillFrustrum3

; 5495 : 
; 5496 : 	int tObjNum;
; 5497 : 	int count = 0;
; 5498 : 	int HitCount = 0;
; 5499 : 	int bAttack;
; 5500 : 	int DuelIndex = lpObj->m_iDuelUser;

  00046	8b 83 50 12 00
	00		 mov	 eax, DWORD PTR [ebx+4688]
  0004c	81 c3 4c 0c 00
	00		 add	 ebx, 3148		; 00000c4cH
  00052	8b 7d 14	 mov	 edi, DWORD PTR _aTargetIndex$[ebp]
  00055	8b 15 00 00 00
	00		 mov	 edx, DWORD PTR ?gObj@@3PAUOBJECTSTRUCT@@A ; gObj
  0005b	89 45 f4	 mov	 DWORD PTR _DuelIndex$1$[ebp], eax
  0005e	b8 4b 00 00 00	 mov	 eax, 75			; 0000004bH
  00063	c7 45 f8 00 00
	00 00		 mov	 DWORD PTR _HitCount$1$[ebp], 0
  0006a	c7 45 10 4b 00
	00 00		 mov	 DWORD PTR tv478[ebp], 75 ; 0000004bH
$LL2@SkillChaot:

; 5501 : 	int EnableAttack;
; 5502 : 
; 5503 : 	while ( true )
; 5504 : 	{
; 5505 : 		if(lpObj->VpPlayer2[count].state != 0)

  00071	80 7b fc 00	 cmp	 BYTE PTR [ebx-4], 0
  00075	0f 84 6d 01 00
	00		 je	 $LN16@SkillChaot

; 5506 : 		{
; 5507 : 			tObjNum = lpObj->VpPlayer2[count].number;

  0007b	0f bf 73 fe	 movsx	 esi, WORD PTR [ebx-2]

; 5508 : 
; 5509 : 			if(tObjNum >= 0)

  0007f	85 f6		 test	 esi, esi
  00081	0f 88 61 01 00
	00		 js	 $LN16@SkillChaot

; 5510 : 			{
; 5511 : 				EnableAttack = 0;
; 5512 : 
; 5513 : 				if(lpObj->VpPlayer2[count].type == OBJ_MONSTER && gObj[tObjNum].m_RecallMon < 0)

  00087	8a 0b		 mov	 cl, BYTE PTR [ebx]
  00089	80 f9 02	 cmp	 cl, 2
  0008c	75 10		 jne	 SHORT $LN6@SkillChaot
  0008e	69 c6 40 27 00
	00		 imul	 eax, esi, 10048
  00094	83 bc 10 30 06
	00 00 00	 cmp	 DWORD PTR [eax+edx+1584], 0
  0009c	7c 55		 jl	 SHORT $LN39@SkillChaot
$LN6@SkillChaot:

; 5514 : 				{
; 5515 : 					EnableAttack = 1;
; 5516 : 				}
; 5517 : 				else if( tObjNum == aTargetIndex || DuelIndex == tObjNum)

  0009e	3b f7		 cmp	 esi, edi
  000a0	74 51		 je	 SHORT $LN39@SkillChaot
  000a2	39 75 f4	 cmp	 DWORD PTR _DuelIndex$1$[ebp], esi
  000a5	74 4c		 je	 SHORT $LN39@SkillChaot

; 5518 : 				{
; 5519 : 					EnableAttack = 1;
; 5520 : 				}
; 5521 : #if (GS_CASTLE == 1)
; 5522 : 				else if(lpObj->VpPlayer2[count].type != OBJ_NPC && gObj[tObjNum].MapNumber == MAP_INDEX_CASTLESIEGE && g_CastleSiege.GetCastleState() == 7)

  000a7	80 f9 03	 cmp	 cl, 3
  000aa	0f 84 e3 00 00
	00		 je	 $LN11@SkillChaot
  000b0	69 fe 40 27 00
	00		 imul	 edi, esi, 10048
  000b6	80 bc 17 23 01
	00 00 1e	 cmp	 BYTE PTR [edi+edx+291], 30 ; 0000001eH
  000be	0f 85 cf 00 00
	00		 jne	 $LN11@SkillChaot
  000c4	b9 00 00 00 00	 mov	 ecx, OFFSET ?g_CastleSiege@@3VCCastleSiege@@A ; g_CastleSiege
  000c9	e8 00 00 00 00	 call	 ?GetCastleState@CCastleSiege@@QAEHXZ ; CCastleSiege::GetCastleState

; 5523 : 				{
; 5524 : 					if( lpObj->m_btCsJoinSide != gObj[tObjNum].m_btCsJoinSide )

  000ce	8b 15 00 00 00
	00		 mov	 edx, DWORD PTR ?gObj@@3PAUOBJECTSTRUCT@@A ; gObj
  000d4	83 f8 07	 cmp	 eax, 7
  000d7	0f 85 b6 00 00
	00		 jne	 $LN11@SkillChaot
  000dd	8b 45 fc	 mov	 eax, DWORD PTR _lpObj$1$[ebp]
  000e0	8a 80 5a 20 00
	00		 mov	 al, BYTE PTR [eax+8282]
  000e6	3a 84 17 5a 20
	00 00		 cmp	 al, BYTE PTR [edi+edx+8282]
  000ed	0f 84 ef 00 00
	00		 je	 $LN36@SkillChaot
$LN39@SkillChaot:
  000f3	8b 7d fc	 mov	 edi, DWORD PTR _lpObj$1$[ebp]
$LN10@SkillChaot:

; 5538 : 					{
; 5539 : 						EnableAttack = 1;
; 5540 : 					}
; 5541 : 				}
; 5542 : 
; 5543 : 				if( EnableAttack != FALSE && SkillTestFrustrum(gObj[tObjNum].X,gObj[tObjNum].Y,aIndex) )

  000f6	ff 75 08	 push	 DWORD PTR _aIndex$[ebp]
  000f9	69 ce 40 27 00
	00		 imul	 ecx, esi, 10048
  000ff	0f b6 84 11 21
	01 00 00	 movzx	 eax, BYTE PTR [ecx+edx+289]
  00107	50		 push	 eax
  00108	0f b6 84 11 20
	01 00 00	 movzx	 eax, BYTE PTR [ecx+edx+288]
  00110	50		 push	 eax
  00111	e8 00 00 00 00	 call	 ?SkillTestFrustrum@@YAHHHH@Z ; SkillTestFrustrum
  00116	83 c4 0c	 add	 esp, 12			; 0000000cH
  00119	85 c0		 test	 eax, eax
  0011b	0f 84 bb 00 00
	00		 je	 $LN35@SkillChaot

; 5544 : 				{
; 5545 : 					bAttack = FALSE;
; 5546 : 
; 5547 : 					if( HitCount > 8 )

  00121	83 7d f8 08	 cmp	 DWORD PTR _HitCount$1$[ebp], 8
  00125	7e 13		 jle	 SHORT $LN17@SkillChaot

; 5548 : 					{
; 5549 : 						if(rand()%2)

  00127	e8 00 00 00 00	 call	 _rand
  0012c	25 01 00 00 80	 and	 eax, -2147483647	; 80000001H
  00131	79 05		 jns	 SHORT $LN40@SkillChaot
  00133	48		 dec	 eax
  00134	83 c8 fe	 or	 eax, -2			; fffffffeH
  00137	40		 inc	 eax
$LN40@SkillChaot:
  00138	74 19		 je	 SHORT $LN20@SkillChaot
$LN17@SkillChaot:

; 5550 : 						{
; 5551 : 							bAttack = TRUE;
; 5552 : 						}
; 5553 : 					}
; 5554 : 					else
; 5555 : 					{
; 5556 : 						bAttack = TRUE;
; 5557 : 					}
; 5558 : 
; 5559 : 					if( bAttack != FALSE )
; 5560 : 					{
; 5561 : 						gObjAddAttackProcMsgSendDelay(lpObj,50,tObjNum,250,lpMagic->m_Skill,0);

  0013a	8b 45 0c	 mov	 eax, DWORD PTR _lpMagic$[ebp]
  0013d	6a 00		 push	 0
  0013f	ff 70 08	 push	 DWORD PTR [eax+8]
  00142	68 fa 00 00 00	 push	 250			; 000000faH
  00147	56		 push	 esi
  00148	6a 32		 push	 50			; 00000032H
  0014a	57		 push	 edi
  0014b	e8 00 00 00 00	 call	 ?gObjAddAttackProcMsgSendDelay@@YAXPAUOBJECTSTRUCT@@HHHHH@Z ; gObjAddAttackProcMsgSendDelay
  00150	83 c4 18	 add	 esp, 24			; 00000018H
$LN20@SkillChaot:

; 5562 : 					}
; 5563 : 
; 5564 : 					if( OBJMAX_RANGE(aTargetIndex) && aTargetIndex == tObjNum)

  00153	8b 7d 14	 mov	 edi, DWORD PTR _aTargetIndex$[ebp]
  00156	85 ff		 test	 edi, edi
  00158	78 2e		 js	 SHORT $LN21@SkillChaot
  0015a	33 c0		 xor	 eax, eax
  0015c	81 ff eb 2c 00
	00		 cmp	 edi, 11499		; 00002cebH
  00162	0f 9e c0	 setle	 al
  00165	85 c0		 test	 eax, eax
  00167	74 1f		 je	 SHORT $LN21@SkillChaot
  00169	3b fe		 cmp	 edi, esi
  0016b	75 1b		 jne	 SHORT $LN21@SkillChaot

; 5565 : 					{
; 5566 : 						gObjAddAttackProcMsgSendDelay(lpObj,50,tObjNum,300,lpMagic->m_Skill,0);

  0016d	8b 45 0c	 mov	 eax, DWORD PTR _lpMagic$[ebp]
  00170	6a 00		 push	 0
  00172	ff 70 08	 push	 DWORD PTR [eax+8]
  00175	68 2c 01 00 00	 push	 300			; 0000012cH
  0017a	56		 push	 esi
  0017b	6a 32		 push	 50			; 00000032H
  0017d	ff 75 fc	 push	 DWORD PTR _lpObj$1$[ebp]
  00180	e8 00 00 00 00	 call	 ?gObjAddAttackProcMsgSendDelay@@YAXPAUOBJECTSTRUCT@@HHHHH@Z ; gObjAddAttackProcMsgSendDelay
  00185	83 c4 18	 add	 esp, 24			; 00000018H
$LN21@SkillChaot:

; 5567 : 					}
; 5568 : 
; 5569 : 					HitCount++;

  00188	ff 45 f8	 inc	 DWORD PTR _HitCount$1$[ebp]
  0018b	8b 15 00 00 00
	00		 mov	 edx, DWORD PTR ?gObj@@3PAUOBJECTSTRUCT@@A ; gObj
  00191	eb 52		 jmp	 SHORT $LN42@SkillChaot
$LN11@SkillChaot:

; 5525 : 						EnableAttack = 1;
; 5526 : 				}
; 5527 : #endif
; 5528 : 				else
; 5529 : 				{
; 5530 : 					int CallMonIndex = gObj[tObjNum].m_Index;

  00193	69 c6 40 27 00
	00		 imul	 eax, esi, 10048

; 5531 : 
; 5532 : 					if(gObj[tObjNum].Type == OBJ_MONSTER && gObj[tObjNum].m_RecallMon >= 0)

  00199	80 7c 10 50 02	 cmp	 BYTE PTR [eax+edx+80], 2
  0019e	8b 0c 10	 mov	 ecx, DWORD PTR [eax+edx]
  001a1	75 14		 jne	 SHORT $LN14@SkillChaot
  001a3	8b 84 10 30 06
	00 00		 mov	 eax, DWORD PTR [eax+edx+1584]
  001aa	85 c0		 test	 eax, eax
  001ac	78 09		 js	 SHORT $LN14@SkillChaot

; 5533 : 					{
; 5534 : 						CallMonIndex = gObj[gObj[tObjNum].m_RecallMon].m_Index;

  001ae	69 c0 40 27 00
	00		 imul	 eax, eax, 10048
  001b4	8b 0c 10	 mov	 ecx, DWORD PTR [eax+edx]
$LN14@SkillChaot:

; 5535 : 					}
; 5536 : 
; 5537 : 					if(gObjTargetGuildWarCheck(lpObj,&gObj[CallMonIndex])==1)

  001b7	8b 7d fc	 mov	 edi, DWORD PTR _lpObj$1$[ebp]
  001ba	69 c1 40 27 00
	00		 imul	 eax, ecx, 10048
  001c0	03 c2		 add	 eax, edx
  001c2	50		 push	 eax
  001c3	57		 push	 edi
  001c4	e8 00 00 00 00	 call	 ?gObjTargetGuildWarCheck@@YAHPAUOBJECTSTRUCT@@0@Z ; gObjTargetGuildWarCheck
  001c9	83 c4 08	 add	 esp, 8
  001cc	83 f8 01	 cmp	 eax, 1
  001cf	75 0b		 jne	 SHORT $LN35@SkillChaot
  001d1	8b 15 00 00 00
	00		 mov	 edx, DWORD PTR ?gObj@@3PAUOBJECTSTRUCT@@A ; gObj
  001d7	e9 1a ff ff ff	 jmp	 $LN10@SkillChaot
$LN35@SkillChaot:

; 5567 : 					}
; 5568 : 
; 5569 : 					HitCount++;

  001dc	8b 15 00 00 00
	00		 mov	 edx, DWORD PTR ?gObj@@3PAUOBJECTSTRUCT@@A ; gObj
$LN36@SkillChaot:
  001e2	8b 7d 14	 mov	 edi, DWORD PTR _aTargetIndex$[ebp]
$LN42@SkillChaot:
  001e5	8b 45 10	 mov	 eax, DWORD PTR tv478[ebp]
$LN16@SkillChaot:

; 5570 : 				}
; 5571 : 			}
; 5572 : 		}
; 5573 : 
; 5574 : 		count++;

  001e8	83 c3 0c	 add	 ebx, 12			; 0000000cH

; 5575 : 		if(count > MAX_VIEWPORT -1)

  001eb	83 e8 01	 sub	 eax, 1
  001ee	89 45 10	 mov	 DWORD PTR tv478[ebp], eax
  001f1	0f 85 7a fe ff
	ff		 jne	 $LL2@SkillChaot
  001f7	5f		 pop	 edi
  001f8	5e		 pop	 esi
  001f9	5b		 pop	 ebx

; 5576 : 		{
; 5577 : 			break;
; 5578 : 		}
; 5579 : 	}
; 5580 : }

  001fa	8b e5		 mov	 esp, ebp
  001fc	5d		 pop	 ebp
  001fd	c2 10 00	 ret	 16			; 00000010H
?SkillChaoticDesier@CObjUseSkill@@QAEXHPAVCMagicInf@@EH@Z ENDP ; CObjUseSkill::SkillChaoticDesier
_TEXT	ENDS
; Function compile flags: /Ogtp
; File c:\users\michel\desktop\source\gameserver\source\objuseskill.cpp
;	COMDAT ?SkillMultiShot@CObjUseSkill@@QAEXHPAVCMagicInf@@EH@Z
_TEXT	SEGMENT
_lpMagic$GSCopy$1$ = -304				; size = 4
_tObjNum$1$ = -300					; size = 4
_aIndex$GSCopy$1$ = -296				; size = 4
_DuelIndex$1$ = -292					; size = 4
tv813 = -288						; size = 4
_lpObj$1$ = -284					; size = 4
tv812 = -280						; size = 4
tv828 = -276						; size = 4
_vFrustrum2$ = -272					; size = 60
_fSkillFrustrumY$ = -212				; size = 20
_fSkillFrustrumX$ = -192				; size = 20
_vFrustrum$ = -172					; size = 60
_Matrix$ = -112						; size = 48
_p$ = -64						; size = 60
__$ArrayPad$ = -4					; size = 4
_aIndex$ = 8						; size = 4
_lpMagic$ = 12						; size = 4
_targetpos$ = 16					; size = 1
_aTargetIndex$ = 20					; size = 4
?SkillMultiShot@CObjUseSkill@@QAEXHPAVCMagicInf@@EH@Z PROC ; CObjUseSkill::SkillMultiShot, COMDAT
; _this$ = ecx

; 5810 : {

  00000	55		 push	 ebp
  00001	8b ec		 mov	 ebp, esp
  00003	81 ec 30 01 00
	00		 sub	 esp, 304		; 00000130H
  00009	a1 00 00 00 00	 mov	 eax, DWORD PTR ___security_cookie
  0000e	33 c5		 xor	 eax, ebp
  00010	89 45 fc	 mov	 DWORD PTR __$ArrayPad$[ebp], eax
  00013	8b 55 08	 mov	 edx, DWORD PTR _aIndex$[ebp]
  00016	8b 45 0c	 mov	 eax, DWORD PTR _lpMagic$[ebp]
  00019	53		 push	 ebx

; 5811 : LPOBJ lpObj = &gObj[aIndex];
; 5812 : 
; 5813 : 	SkillFrustrum3(aIndex,targetpos,6.0f,7.0f,1.0f,0);

  0001a	8b 5d 10	 mov	 ebx, DWORD PTR _targetpos$[ebp]
  0001d	56		 push	 esi
  0001e	57		 push	 edi
  0001f	83 ec 10	 sub	 esp, 16			; 00000010H
  00022	89 85 d0 fe ff
	ff		 mov	 DWORD PTR _lpMagic$GSCopy$1$[ebp], eax
  00028	69 c2 40 27 00
	00		 imul	 eax, edx, 10048
  0002e	89 95 d8 fe ff
	ff		 mov	 DWORD PTR _aIndex$GSCopy$1$[ebp], edx
  00034	c7 44 24 0c 00
	00 00 00	 mov	 DWORD PTR [esp+12], 0
  0003c	c7 44 24 08 00
	00 80 3f	 mov	 DWORD PTR [esp+8], 1065353216 ; 3f800000H
  00044	03 05 00 00 00
	00		 add	 eax, DWORD PTR ?gObj@@3PAUOBJECTSTRUCT@@A ; gObj
  0004a	c7 44 24 04 00
	00 e0 40	 mov	 DWORD PTR [esp+4], 1088421888 ; 40e00000H
  00052	c7 04 24 00 00
	c0 40		 mov	 DWORD PTR [esp], 1086324736 ; 40c00000H
  00059	53		 push	 ebx
  0005a	52		 push	 edx
  0005b	89 85 e4 fe ff
	ff		 mov	 DWORD PTR _lpObj$1$[ebp], eax
  00061	e8 00 00 00 00	 call	 ?SkillFrustrum3@CObjUseSkill@@QAEXHEMMMM@Z ; CObjUseSkill::SkillFrustrum3
  00066	0f 28 05 00 00
	00 00		 movaps	 xmm0, XMMWORD PTR __xmm@00000000422000000000000000000000

; 5814 : 
; 5815 : 	float p[5][3];
; 5816 : 	float Matrix[3][MAX_ARRAY_FRUSTRUM];
; 5817 : 	float vFrustrum[5][3];
; 5818 : 
; 5819 : 	p[4][0] = 0;
; 5820 : 	p[4][1] = 6.0f;
; 5821 : 	p[4][2] = 0;
; 5822 : 
; 5823 : 	p[0][0] = 0;
; 5824 : 	p[0][1] = 0;
; 5825 : 	p[0][2] = 40.0f;
; 5826 : 
; 5827 : 	p[1][0] = 0;
; 5828 : 	p[1][1] = 0;
; 5829 : 	p[1][2] = 20.0f;
; 5830 : 
; 5831 : 	p[2][0] = 0;
; 5832 : 	p[2][1] = 0;
; 5833 : 	p[2][2] = 340.0f;
; 5834 : 
; 5835 : 	p[3][0] = 0;
; 5836 : 	p[3][1] = 0;
; 5837 : 	p[3][2] = 320.0f;
; 5838 : 
; 5839 : 	AngleMatrix((const float *)&p[0],Matrix);

  0006d	8d 45 90	 lea	 eax, DWORD PTR _Matrix$[ebp]
  00070	0f 11 45 c0	 movups	 XMMWORD PTR _p$[ebp], xmm0
  00074	50		 push	 eax
  00075	0f 28 05 00 00
	00 00		 movaps	 xmm0, XMMWORD PTR __xmm@000000000000000041a0000000000000
  0007c	8d 45 c0	 lea	 eax, DWORD PTR _p$[ebp]
  0007f	0f 11 45 d0	 movups	 XMMWORD PTR _p$[ebp+16], xmm0
  00083	50		 push	 eax
  00084	0f 28 05 00 00
	00 00		 movaps	 xmm0, XMMWORD PTR __xmm@43a00000000000000000000043aa0000
  0008b	c7 45 f0 00 00
	00 00		 mov	 DWORD PTR _p$[ebp+48], 0
  00092	c7 45 f4 00 00
	c0 40		 mov	 DWORD PTR _p$[ebp+52], 1086324736 ; 40c00000H
  00099	c7 45 f8 00 00
	00 00		 mov	 DWORD PTR _p$[ebp+56], 0
  000a0	0f 11 45 e0	 movups	 XMMWORD PTR _p$[ebp+32], xmm0
  000a4	e8 00 00 00 00	 call	 ?AngleMatrix@@YAXPBMPAY03M@Z ; AngleMatrix

; 5840 : 	VectorRotate((const float *)&p[4],(const float *)&Matrix[0],(float *)&vFrustrum[0]);

  000a9	8d 85 54 ff ff
	ff		 lea	 eax, DWORD PTR _vFrustrum$[ebp]
  000af	50		 push	 eax
  000b0	8d 45 90	 lea	 eax, DWORD PTR _Matrix$[ebp]
  000b3	50		 push	 eax
  000b4	8d 45 f0	 lea	 eax, DWORD PTR _p$[ebp+48]
  000b7	50		 push	 eax
  000b8	e8 00 00 00 00	 call	 ?VectorRotate@@YAXQBM0QAM@Z ; VectorRotate

; 5841 : 
; 5842 : 	AngleMatrix((const float *)&p[1],Matrix);

  000bd	8d 45 90	 lea	 eax, DWORD PTR _Matrix$[ebp]
  000c0	50		 push	 eax
  000c1	8d 45 cc	 lea	 eax, DWORD PTR _p$[ebp+12]
  000c4	50		 push	 eax
  000c5	e8 00 00 00 00	 call	 ?AngleMatrix@@YAXPBMPAY03M@Z ; AngleMatrix

; 5843 : 	VectorRotate((const float *)&p[4],(const float *)&Matrix[0],(float *)&vFrustrum[1]);

  000ca	8d 85 60 ff ff
	ff		 lea	 eax, DWORD PTR _vFrustrum$[ebp+12]
  000d0	50		 push	 eax
  000d1	8d 45 90	 lea	 eax, DWORD PTR _Matrix$[ebp]
  000d4	50		 push	 eax
  000d5	8d 45 f0	 lea	 eax, DWORD PTR _p$[ebp+48]
  000d8	50		 push	 eax
  000d9	e8 00 00 00 00	 call	 ?VectorRotate@@YAXQBM0QAM@Z ; VectorRotate

; 5844 : 
; 5845 : 	vFrustrum[2][0] = 0;
; 5846 : 	vFrustrum[2][1] = 6.0f;
; 5847 : 	vFrustrum[2][2] = 0;
; 5848 : 
; 5849 : 	AngleMatrix((const float *)&p[2],Matrix);

  000de	8d 45 90	 lea	 eax, DWORD PTR _Matrix$[ebp]
  000e1	c7 85 6c ff ff
	ff 00 00 00 00	 mov	 DWORD PTR _vFrustrum$[ebp+24], 0
  000eb	50		 push	 eax
  000ec	8d 45 d8	 lea	 eax, DWORD PTR _p$[ebp+24]
  000ef	c7 85 70 ff ff
	ff 00 00 c0 40	 mov	 DWORD PTR _vFrustrum$[ebp+28], 1086324736 ; 40c00000H
  000f9	50		 push	 eax
  000fa	c7 85 74 ff ff
	ff 00 00 00 00	 mov	 DWORD PTR _vFrustrum$[ebp+32], 0
  00104	e8 00 00 00 00	 call	 ?AngleMatrix@@YAXPBMPAY03M@Z ; AngleMatrix

; 5850 : 	VectorRotate((const float *)&p[4],(const float *)&Matrix[0],(float *)&vFrustrum[3]);

  00109	8d 85 78 ff ff
	ff		 lea	 eax, DWORD PTR _vFrustrum$[ebp+36]
  0010f	50		 push	 eax
  00110	8d 45 90	 lea	 eax, DWORD PTR _Matrix$[ebp]
  00113	50		 push	 eax
  00114	8d 45 f0	 lea	 eax, DWORD PTR _p$[ebp+48]
  00117	50		 push	 eax
  00118	e8 00 00 00 00	 call	 ?VectorRotate@@YAXQBM0QAM@Z ; VectorRotate

; 5851 : 
; 5852 : 	AngleMatrix((const float *)&p[3],Matrix);

  0011d	8d 45 90	 lea	 eax, DWORD PTR _Matrix$[ebp]
  00120	50		 push	 eax
  00121	8d 45 e4	 lea	 eax, DWORD PTR _p$[ebp+36]
  00124	50		 push	 eax
  00125	e8 00 00 00 00	 call	 ?AngleMatrix@@YAXPBMPAY03M@Z ; AngleMatrix
  0012a	83 c4 44	 add	 esp, 68			; 00000044H

; 5853 : 	VectorRotate((const float *)&p[4],(const float *)&Matrix[0],(float *)&vFrustrum[4]);

  0012d	8d 45 84	 lea	 eax, DWORD PTR _vFrustrum$[ebp+48]
  00130	50		 push	 eax
  00131	8d 45 90	 lea	 eax, DWORD PTR _Matrix$[ebp]
  00134	50		 push	 eax
  00135	8d 45 f0	 lea	 eax, DWORD PTR _p$[ebp+48]
  00138	50		 push	 eax
  00139	e8 00 00 00 00	 call	 ?VectorRotate@@YAXQBM0QAM@Z ; VectorRotate

; 5854 : 
; 5855 : 	p[0][0] = 0;

  0013e	c7 45 c0 00 00
	00 00		 mov	 DWORD PTR _p$[ebp], 0

; 5856 : 	p[0][1] = 0;
; 5857 : 	p[0][2] = targetpos*360/255;

  00145	0f b6 c3	 movzx	 eax, bl
  00148	69 c8 68 01 00
	00		 imul	 ecx, eax, 360
  0014e	b8 81 80 80 80	 mov	 eax, -2139062143	; 80808081H
  00153	c7 45 c4 00 00
	00 00		 mov	 DWORD PTR _p$[ebp+4], 0
  0015a	f7 e9		 imul	 ecx
  0015c	03 d1		 add	 edx, ecx
  0015e	c1 fa 07	 sar	 edx, 7
  00161	8b c2		 mov	 eax, edx
  00163	c1 e8 1f	 shr	 eax, 31			; 0000001fH
  00166	03 c2		 add	 eax, edx
  00168	66 0f 6e c0	 movd	 xmm0, eax

; 5858 : 
; 5859 : 	AngleMatrix((const float *)&p[0],Matrix);

  0016c	8d 45 90	 lea	 eax, DWORD PTR _Matrix$[ebp]
  0016f	0f 5b c0	 cvtdq2ps xmm0, xmm0
  00172	50		 push	 eax
  00173	8d 45 c0	 lea	 eax, DWORD PTR _p$[ebp]
  00176	50		 push	 eax
  00177	f3 0f 11 45 c8	 movss	 DWORD PTR _p$[ebp+8], xmm0
  0017c	e8 00 00 00 00	 call	 ?AngleMatrix@@YAXPBMPAY03M@Z ; AngleMatrix
  00181	83 c4 14	 add	 esp, 20			; 00000014H

; 5860 : 
; 5861 : 	int fSkillFrustrumX[5];
; 5862 : 	int fSkillFrustrumY[5];
; 5863 : 
; 5864 : 	float vFrustrum2[5][3];
; 5865 : 
; 5866 : 	for(int i = 0; i < 5; i++)

  00184	33 ff		 xor	 edi, edi
  00186	33 db		 xor	 ebx, ebx
  00188	0f 1f 84 00 00
	00 00 00	 npad	 8
$LL4@SkillMulti:

; 5867 : 	{
; 5868 : 		VectorRotate(vFrustrum[i],(const float *)&Matrix[0],vFrustrum2[i]);

  00190	8d b5 f0 fe ff
	ff		 lea	 esi, DWORD PTR _vFrustrum2$[ebp]
  00196	03 f7		 add	 esi, edi
  00198	8d 45 90	 lea	 eax, DWORD PTR _Matrix$[ebp]
  0019b	56		 push	 esi
  0019c	50		 push	 eax
  0019d	8d 85 54 ff ff
	ff		 lea	 eax, DWORD PTR _vFrustrum$[ebp]
  001a3	03 c7		 add	 eax, edi
  001a5	50		 push	 eax
  001a6	e8 00 00 00 00	 call	 ?VectorRotate@@YAXQBM0QAM@Z ; VectorRotate

; 5869 : 
; 5870 : 		fSkillFrustrumX[i] = int(vFrustrum2[i][0]) + lpObj->X;

  001ab	f3 0f 2c 0e	 cvttss2si ecx, DWORD PTR [esi]
  001af	8b b5 e4 fe ff
	ff		 mov	 esi, DWORD PTR _lpObj$1$[ebp]
  001b5	8d 5b 04	 lea	 ebx, DWORD PTR [ebx+4]
  001b8	83 c4 0c	 add	 esp, 12			; 0000000cH
  001bb	0f b6 86 20 01
	00 00		 movzx	 eax, BYTE PTR [esi+288]
  001c2	03 c8		 add	 ecx, eax

; 5871 : 		fSkillFrustrumY[i] = int(vFrustrum2[i][1]) + lpObj->Y;

  001c4	0f b6 86 21 01
	00 00		 movzx	 eax, BYTE PTR [esi+289]
  001cb	89 8c 1d 3c ff
	ff ff		 mov	 DWORD PTR _fSkillFrustrumX$[ebp+ebx-4], ecx
  001d2	f3 0f 2c 8c 3d
	f4 fe ff ff	 cvttss2si ecx, DWORD PTR _vFrustrum2$[ebp+edi+4]
  001db	83 c7 0c	 add	 edi, 12			; 0000000cH
  001de	03 c8		 add	 ecx, eax
  001e0	89 8c 1d 28 ff
	ff ff		 mov	 DWORD PTR _fSkillFrustrumY$[ebp+ebx-4], ecx
  001e7	83 ff 3c	 cmp	 edi, 60			; 0000003cH
  001ea	7c a4		 jl	 SHORT $LL4@SkillMulti

; 5872 : 	}
; 5873 : 
; 5874 : 	int tObjNum;
; 5875 : 	int count = 0;
; 5876 : 	int tmpvar = 0;
; 5877 : 	int DuelIndex = lpObj->m_iDuelUser;

  001ec	8b 96 50 12 00
	00		 mov	 edx, DWORD PTR [esi+4688]
  001f2	8d 8e 4c 0c 00
	00		 lea	 ecx, DWORD PTR [esi+3148]
  001f8	8b 3d 00 00 00
	00		 mov	 edi, DWORD PTR ?gObj@@3PAUOBJECTSTRUCT@@A ; gObj
  001fe	b8 4b 00 00 00	 mov	 eax, 75			; 0000004bH
  00203	89 95 dc fe ff
	ff		 mov	 DWORD PTR _DuelIndex$1$[ebp], edx
  00209	89 8d e8 fe ff
	ff		 mov	 DWORD PTR tv812[ebp], ecx
  0020f	c7 85 ec fe ff
	ff 4b 00 00 00	 mov	 DWORD PTR tv828[ebp], 75 ; 0000004bH
  00219	0f 1f 80 00 00
	00 00		 npad	 7
$LL5@SkillMulti:

; 5878 : 	int EnableAttack;
; 5879 : 
; 5880 : 	while ( true )
; 5881 : 	{
; 5882 : 		if(lpObj->VpPlayer2[count].state != 0)

  00220	80 79 fc 00	 cmp	 BYTE PTR [ecx-4], 0
  00224	0f 84 c5 01 00
	00		 je	 $LN8@SkillMulti

; 5883 : 		{
; 5884 : 			tObjNum = lpObj->VpPlayer2[count].number;

  0022a	0f bf 41 fe	 movsx	 eax, WORD PTR [ecx-2]
  0022e	89 85 d4 fe ff
	ff		 mov	 DWORD PTR _tObjNum$1$[ebp], eax

; 5885 : 
; 5886 : 			if(tObjNum >= 0 && gObj[tObjNum].Live)

  00234	85 c0		 test	 eax, eax
  00236	0f 88 ad 01 00
	00		 js	 $LN49@SkillMulti
  0023c	69 d8 40 27 00
	00		 imul	 ebx, eax, 10048
  00242	80 7c 3b 51 00	 cmp	 BYTE PTR [ebx+edi+81], 0
  00247	0f 84 9c 01 00
	00		 je	 $LN49@SkillMulti

; 5887 : 			{
; 5888 : 				EnableAttack = 0;
; 5889 : 
; 5890 : 				if(lpObj->VpPlayer2[count].type == OBJ_MONSTER && gObj[tObjNum].m_RecallMon < 0)

  0024d	8a 09		 mov	 cl, BYTE PTR [ecx]
  0024f	80 f9 02	 cmp	 cl, 2
  00252	75 0e		 jne	 SHORT $LN12@SkillMulti
  00254	83 bc 3b 30 06
	00 00 00	 cmp	 DWORD PTR [ebx+edi+1584], 0
  0025c	0f 8c 81 00 00
	00		 jl	 $LN16@SkillMulti
$LN12@SkillMulti:

; 5891 : 				{
; 5892 : 					EnableAttack = 1;
; 5893 : 				}
; 5894 : 				else if(tObjNum == aTargetIndex || DuelIndex == tObjNum)

  00262	3b 45 14	 cmp	 eax, DWORD PTR _aTargetIndex$[ebp]
  00265	74 7c		 je	 SHORT $LN16@SkillMulti
  00267	3b d0		 cmp	 edx, eax
  00269	74 78		 je	 SHORT $LN16@SkillMulti

; 5895 : 				{
; 5896 : 					EnableAttack = 1;
; 5897 : 				}
; 5898 : #if (GS_CASTLE == 1)
; 5899 : 				else if(lpObj->VpPlayer2[count].type != OBJ_NPC && gObj[tObjNum].MapNumber == MAP_INDEX_CASTLESIEGE && g_CastleSiege.GetCastleState() == 7)

  0026b	80 f9 03	 cmp	 cl, 3
  0026e	74 34		 je	 SHORT $LN17@SkillMulti
  00270	80 bc 3b 23 01
	00 00 1e	 cmp	 BYTE PTR [ebx+edi+291], 30 ; 0000001eH
  00278	75 2a		 jne	 SHORT $LN17@SkillMulti
  0027a	b9 00 00 00 00	 mov	 ecx, OFFSET ?g_CastleSiege@@3VCCastleSiege@@A ; g_CastleSiege
  0027f	e8 00 00 00 00	 call	 ?GetCastleState@CCastleSiege@@QAEHXZ ; CCastleSiege::GetCastleState

; 5900 : 				{
; 5901 : 					if( lpObj->m_btCsJoinSide != gObj[tObjNum].m_btCsJoinSide )

  00284	8b 3d 00 00 00
	00		 mov	 edi, DWORD PTR ?gObj@@3PAUOBJECTSTRUCT@@A ; gObj
  0028a	83 f8 07	 cmp	 eax, 7
  0028d	75 15		 jne	 SHORT $LN17@SkillMulti
  0028f	8a 86 5a 20 00
	00		 mov	 al, BYTE PTR [esi+8282]
  00295	3a 84 3b 5a 20
	00 00		 cmp	 al, BYTE PTR [ebx+edi+8282]
  0029c	0f 84 3b 01 00
	00		 je	 $LN47@SkillMulti

; 5902 : 						EnableAttack = 1;
; 5903 : 				}
; 5904 : #endif
; 5905 : 				else

  002a2	eb 3f		 jmp	 SHORT $LN16@SkillMulti
$LN17@SkillMulti:

; 5906 : 				{
; 5907 : 					int CallMonIndex = gObj[tObjNum].m_Index;
; 5908 : 
; 5909 : 					if(gObj[tObjNum].Type == OBJ_MONSTER && gObj[tObjNum].m_RecallMon >= 0)

  002a4	80 7c 3b 50 02	 cmp	 BYTE PTR [ebx+edi+80], 2
  002a9	8b 0c 3b	 mov	 ecx, DWORD PTR [ebx+edi]
  002ac	75 14		 jne	 SHORT $LN20@SkillMulti
  002ae	8b 84 3b 30 06
	00 00		 mov	 eax, DWORD PTR [ebx+edi+1584]
  002b5	85 c0		 test	 eax, eax
  002b7	78 09		 js	 SHORT $LN20@SkillMulti

; 5910 : 					{
; 5911 : 						CallMonIndex = gObj[gObj[tObjNum].m_RecallMon].m_Index;

  002b9	69 c0 40 27 00
	00		 imul	 eax, eax, 10048
  002bf	8b 0c 38	 mov	 ecx, DWORD PTR [eax+edi]
$LN20@SkillMulti:

; 5912 : 					}
; 5913 : 
; 5914 : 					if(gObjTargetGuildWarCheck(lpObj,&gObj[CallMonIndex])==1)

  002c2	69 c1 40 27 00
	00		 imul	 eax, ecx, 10048
  002c8	03 c7		 add	 eax, edi
  002ca	50		 push	 eax
  002cb	56		 push	 esi
  002cc	e8 00 00 00 00	 call	 ?gObjTargetGuildWarCheck@@YAHPAUOBJECTSTRUCT@@0@Z ; gObjTargetGuildWarCheck
  002d1	83 c4 08	 add	 esp, 8
  002d4	83 f8 01	 cmp	 eax, 1
  002d7	0f 85 fa 00 00
	00		 jne	 $LN45@SkillMulti
  002dd	8b 3d 00 00 00
	00		 mov	 edi, DWORD PTR ?gObj@@3PAUOBJECTSTRUCT@@A ; gObj
$LN16@SkillMulti:

; 5915 : 					{
; 5916 : 						EnableAttack = 1;
; 5917 : 					}
; 5918 : 				}
; 5919 : 
; 5920 : 				if( EnableAttack != FALSE )
; 5921 : 				{
; 5922 : 					if( SkillTestFrustrum(gObj[tObjNum].X,gObj[tObjNum].Y,aIndex) )

  002e3	ff b5 d8 fe ff
	ff		 push	 DWORD PTR _aIndex$GSCopy$1$[ebp]
  002e9	0f b6 84 3b 21
	01 00 00	 movzx	 eax, BYTE PTR [ebx+edi+289]
  002f1	50		 push	 eax
  002f2	0f b6 84 3b 20
	01 00 00	 movzx	 eax, BYTE PTR [ebx+edi+288]
  002fa	50		 push	 eax
  002fb	e8 00 00 00 00	 call	 ?SkillTestFrustrum@@YAHHHH@Z ; SkillTestFrustrum
  00300	83 c4 0c	 add	 esp, 12			; 0000000cH
  00303	85 c0		 test	 eax, eax
  00305	0f 84 cc 00 00
	00		 je	 $LN45@SkillMulti

; 5923 : 					{
; 5924 : 						for(int i = 0; i < 5; i++)

  0030b	8b 3d 00 00 00
	00		 mov	 edi, DWORD PTR ?gObj@@3PAUOBJECTSTRUCT@@A ; gObj
  00311	33 c0		 xor	 eax, eax
  00313	89 85 e0 fe ff
	ff		 mov	 DWORD PTR tv813[ebp], eax
  00319	0f 1f 80 00 00
	00 00		 npad	 7
$LL9@SkillMulti:

; 5925 : 						{
; 5926 : 							float Dis = (fSkillFrustrumY[i] - lpObj->Y)*(gObj[tObjNum].Y - lpObj->Y) - (fSkillFrustrumX[i] - lpObj->X)*(gObj[tObjNum].X - lpObj->X);

  00320	0f b6 96 21 01
	00 00		 movzx	 edx, BYTE PTR [esi+289]
  00327	0f b6 8e 20 01
	00 00		 movzx	 ecx, BYTE PTR [esi+288]
  0032e	8b 84 05 40 ff
	ff ff		 mov	 eax, DWORD PTR _fSkillFrustrumX$[ebp+eax]
  00335	0f b6 b4 3b 20
	01 00 00	 movzx	 esi, BYTE PTR [ebx+edi+288]
  0033d	2b c1		 sub	 eax, ecx
  0033f	2b f1		 sub	 esi, ecx
  00341	0f b6 8c 3b 21
	01 00 00	 movzx	 ecx, BYTE PTR [ebx+edi+289]
  00349	0f af f0	 imul	 esi, eax
  0034c	2b ca		 sub	 ecx, edx
  0034e	8b 85 e0 fe ff
	ff		 mov	 eax, DWORD PTR tv813[ebp]
  00354	8b 84 05 2c ff
	ff ff		 mov	 eax, DWORD PTR _fSkillFrustrumY$[ebp+eax]
  0035b	2b c2		 sub	 eax, edx
  0035d	0f af c8	 imul	 ecx, eax
  00360	2b ce		 sub	 ecx, esi
  00362	66 0f 6e c1	 movd	 xmm0, ecx
  00366	0f 5b c0	 cvtdq2ps xmm0, xmm0

; 5927 : 						
; 5928 : 							if( (Dis >= -5 && Dis <= 5) || tObjNum == aTargetIndex )

  00369	0f 2f 05 00 00
	00 00		 comiss	 xmm0, DWORD PTR __real@c0a00000
  00370	72 0d		 jb	 SHORT $LN26@SkillMulti
  00372	f3 0f 10 0d 00
	00 00 00	 movss	 xmm1, DWORD PTR __real@40a00000
  0037a	0f 2f c8	 comiss	 xmm1, xmm0
  0037d	73 0b		 jae	 SHORT $LN25@SkillMulti
$LN26@SkillMulti:
  0037f	8b 45 14	 mov	 eax, DWORD PTR _aTargetIndex$[ebp]
  00382	39 85 d4 fe ff
	ff		 cmp	 DWORD PTR _tObjNum$1$[ebp], eax
  00388	75 2d		 jne	 SHORT $LN46@SkillMulti
$LN25@SkillMulti:

; 5929 : 							{
; 5930 : 								gObjAttack(lpObj,&gObj[tObjNum],lpMagic,TRUE,0,0,0,0,0);

  0038a	8b b5 e4 fe ff
	ff		 mov	 esi, DWORD PTR _lpObj$1$[ebp]
  00390	8d 04 3b	 lea	 eax, DWORD PTR [ebx+edi]
  00393	6a 00		 push	 0
  00395	6a 00		 push	 0
  00397	6a 00		 push	 0
  00399	6a 00		 push	 0
  0039b	6a 00		 push	 0
  0039d	6a 01		 push	 1
  0039f	ff b5 d0 fe ff
	ff		 push	 DWORD PTR _lpMagic$GSCopy$1$[ebp]
  003a5	50		 push	 eax
  003a6	56		 push	 esi
  003a7	e8 00 00 00 00	 call	 ?gObjAttack@@YAXPAUOBJECTSTRUCT@@0PAVCMagicInf@@HEHHEE@Z ; gObjAttack
  003ac	8b 3d 00 00 00
	00		 mov	 edi, DWORD PTR ?gObj@@3PAUOBJECTSTRUCT@@A ; gObj
  003b2	83 c4 24	 add	 esp, 36			; 00000024H
  003b5	eb 06		 jmp	 SHORT $LN7@SkillMulti
$LN46@SkillMulti:
  003b7	8b b5 e4 fe ff
	ff		 mov	 esi, DWORD PTR _lpObj$1$[ebp]
$LN7@SkillMulti:
  003bd	8b 85 e0 fe ff
	ff		 mov	 eax, DWORD PTR tv813[ebp]
  003c3	83 c0 04	 add	 eax, 4
  003c6	89 85 e0 fe ff
	ff		 mov	 DWORD PTR tv813[ebp], eax

; 5923 : 					{
; 5924 : 						for(int i = 0; i < 5; i++)

  003cc	83 f8 14	 cmp	 eax, 20			; 00000014H
  003cf	0f 8c 4b ff ff
	ff		 jl	 $LL9@SkillMulti
  003d5	eb 06		 jmp	 SHORT $LN47@SkillMulti
$LN45@SkillMulti:
  003d7	8b 3d 00 00 00
	00		 mov	 edi, DWORD PTR ?gObj@@3PAUOBJECTSTRUCT@@A ; gObj
$LN47@SkillMulti:
  003dd	8b 8d e8 fe ff
	ff		 mov	 ecx, DWORD PTR tv812[ebp]
  003e3	8b 95 dc fe ff
	ff		 mov	 edx, DWORD PTR _DuelIndex$1$[ebp]
$LN49@SkillMulti:
  003e9	8b 85 ec fe ff
	ff		 mov	 eax, DWORD PTR tv828[ebp]
$LN8@SkillMulti:

; 5931 : 							}
; 5932 : 						}
; 5933 : 					}
; 5934 : 				}
; 5935 : 			}
; 5936 : 		}
; 5937 : 
; 5938 : 		count++;

  003ef	83 c1 0c	 add	 ecx, 12			; 0000000cH

; 5939 : 
; 5940 : 		if( count > (MAX_VIEWPORT-1) )

  003f2	83 e8 01	 sub	 eax, 1
  003f5	89 8d e8 fe ff
	ff		 mov	 DWORD PTR tv812[ebp], ecx
  003fb	89 85 ec fe ff
	ff		 mov	 DWORD PTR tv828[ebp], eax
  00401	0f 85 19 fe ff
	ff		 jne	 $LL5@SkillMulti

; 5941 : 		{
; 5942 : 			break;
; 5943 : 		}
; 5944 : 	}
; 5945 : }

  00407	8b 4d fc	 mov	 ecx, DWORD PTR __$ArrayPad$[ebp]
  0040a	5f		 pop	 edi
  0040b	5e		 pop	 esi
  0040c	33 cd		 xor	 ecx, ebp
  0040e	5b		 pop	 ebx
  0040f	e8 00 00 00 00	 call	 @__security_check_cookie@4
  00414	8b e5		 mov	 esp, ebp
  00416	5d		 pop	 ebp
  00417	c2 10 00	 ret	 16			; 00000010H
?SkillMultiShot@CObjUseSkill@@QAEXHPAVCMagicInf@@EH@Z ENDP ; CObjUseSkill::SkillMultiShot
_TEXT	ENDS
; Function compile flags: /Ogtp
; File c:\users\michel\desktop\source\gameserver\source\objuseskill.cpp
;	COMDAT ?SkillGiganticStorm@CObjUseSkill@@QAEXHPAVCMagicInf@@EEH@Z
_TEXT	SEGMENT
_aIndex$ = 8						; size = 4
_lpMagic$ = 12						; size = 4
_x$ = 16						; size = 1
_y$ = 20						; size = 1
_aTargetIndex$ = 24					; size = 4
?SkillGiganticStorm@CObjUseSkill@@QAEXHPAVCMagicInf@@EEH@Z PROC ; CObjUseSkill::SkillGiganticStorm, COMDAT
; _this$ = ecx

; 5485 : {

  00000	55		 push	 ebp
  00001	8b ec		 mov	 ebp, esp

; 5486 : 	SkillAreaMonsterAttack(aIndex,lpMagic,x,y,aTargetIndex,6,1,400);

  00003	68 90 01 00 00	 push	 400			; 00000190H
  00008	6a 01		 push	 1
  0000a	6a 06		 push	 6
  0000c	ff 75 18	 push	 DWORD PTR _aTargetIndex$[ebp]
  0000f	ff 75 14	 push	 DWORD PTR _y$[ebp]
  00012	ff 75 10	 push	 DWORD PTR _x$[ebp]
  00015	ff 75 0c	 push	 DWORD PTR _lpMagic$[ebp]
  00018	ff 75 08	 push	 DWORD PTR _aIndex$[ebp]
  0001b	e8 00 00 00 00	 call	 ?SkillAreaMonsterAttack@CObjUseSkill@@QAEHHPAVCMagicInf@@EEHHHH@Z ; CObjUseSkill::SkillAreaMonsterAttack

; 5487 : }

  00020	5d		 pop	 ebp
  00021	c2 14 00	 ret	 20			; 00000014H
?SkillGiganticStorm@CObjUseSkill@@QAEXHPAVCMagicInf@@EEH@Z ENDP ; CObjUseSkill::SkillGiganticStorm
_TEXT	ENDS
; Function compile flags: /Ogtp
; File c:\users\michel\desktop\source\gameserver\source\objuseskill.cpp
;	COMDAT ?SkillFlameStrike@CObjUseSkill@@QAEXHPAVCMagicInf@@EH@Z
_TEXT	SEGMENT
_DuelIndex$1$ = -12					; size = 4
tv469 = -8						; size = 4
_lpObj$1$ = -4						; size = 4
_aIndex$ = 8						; size = 4
_lpMagic$ = 12						; size = 4
_HitCount$1$ = 16					; size = 4
_targetangle$ = 16					; size = 1
_aTargetIndex$ = 20					; size = 4
?SkillFlameStrike@CObjUseSkill@@QAEXHPAVCMagicInf@@EH@Z PROC ; CObjUseSkill::SkillFlameStrike, COMDAT
; _this$ = ecx

; 5391 : {

  00000	55		 push	 ebp
  00001	8b ec		 mov	 ebp, esp
  00003	83 ec 0c	 sub	 esp, 12			; 0000000cH

; 5392 : 	LPOBJ lpObj = &gObj[aIndex];

  00006	8b 45 08	 mov	 eax, DWORD PTR _aIndex$[ebp]
  00009	53		 push	 ebx
  0000a	56		 push	 esi
  0000b	57		 push	 edi

; 5393 : 	int bSuccess = TRUE;
; 5394 : 	int tObjNum;
; 5395 : 
; 5396 : 	SkillFrustrum3(aIndex,targetangle,2.0f,4.0f,5.0f,0);

  0000c	83 ec 10	 sub	 esp, 16			; 00000010H
  0000f	69 d8 40 27 00
	00		 imul	 ebx, eax, 10048
  00015	c7 44 24 0c 00
	00 00 00	 mov	 DWORD PTR [esp+12], 0
  0001d	03 1d 00 00 00
	00		 add	 ebx, DWORD PTR ?gObj@@3PAUOBJECTSTRUCT@@A ; gObj
  00023	c7 44 24 08 00
	00 a0 40	 mov	 DWORD PTR [esp+8], 1084227584 ; 40a00000H
  0002b	c7 44 24 04 00
	00 80 40	 mov	 DWORD PTR [esp+4], 1082130432 ; 40800000H
  00033	c7 04 24 00 00
	00 40		 mov	 DWORD PTR [esp], 1073741824 ; 40000000H
  0003a	ff 75 10	 push	 DWORD PTR _targetangle$[ebp]
  0003d	89 5d fc	 mov	 DWORD PTR _lpObj$1$[ebp], ebx
  00040	50		 push	 eax
  00041	e8 00 00 00 00	 call	 ?SkillFrustrum3@CObjUseSkill@@QAEXHEMMMM@Z ; CObjUseSkill::SkillFrustrum3

; 5397 : 
; 5398 : 	int count = 0;
; 5399 : 	int HitCount = 0;
; 5400 : 	int bAttack;
; 5401 : 	int DuelIndex = lpObj->m_iDuelUser;

  00046	8b 83 50 12 00
	00		 mov	 eax, DWORD PTR [ebx+4688]
  0004c	8d bb 4c 0c 00
	00		 lea	 edi, DWORD PTR [ebx+3148]
  00052	8b 0d 00 00 00
	00		 mov	 ecx, DWORD PTR ?gObj@@3PAUOBJECTSTRUCT@@A ; gObj
  00058	c7 45 10 00 00
	00 00		 mov	 DWORD PTR _HitCount$1$[ebp], 0
  0005f	89 45 f4	 mov	 DWORD PTR _DuelIndex$1$[ebp], eax
  00062	c7 45 f8 4b 00
	00 00		 mov	 DWORD PTR tv469[ebp], 75 ; 0000004bH
  00069	0f 1f 80 00 00
	00 00		 npad	 7
$LL2@SkillFlame:

; 5402 : 	int EnableAttack;
; 5403 : 
; 5404 : 	while ( true )
; 5405 : 	{
; 5406 : 		if(lpObj->VpPlayer2[count].state != 0)

  00070	80 7f fc 00	 cmp	 BYTE PTR [edi-4], 0
  00074	0f 84 4c 01 00
	00		 je	 $LN17@SkillFlame

; 5407 : 		{
; 5408 : 			tObjNum = lpObj->VpPlayer2[count].number;

  0007a	0f bf 77 fe	 movsx	 esi, WORD PTR [edi-2]

; 5409 : 
; 5410 : 			if(tObjNum >= 0)

  0007e	85 f6		 test	 esi, esi
  00080	0f 88 40 01 00
	00		 js	 $LN17@SkillFlame

; 5411 : 			{
; 5412 : 				EnableAttack = 0;
; 5413 : 
; 5414 : 				if(lpObj->VpPlayer2[count].type == OBJ_MONSTER && gObj[tObjNum].m_RecallMon < 0)

  00086	8a 17		 mov	 dl, BYTE PTR [edi]
  00088	80 fa 02	 cmp	 dl, 2
  0008b	75 14		 jne	 SHORT $LN6@SkillFlame
  0008d	69 c6 40 27 00
	00		 imul	 eax, esi, 10048
  00093	83 bc 08 30 06
	00 00 00	 cmp	 DWORD PTR [eax+ecx+1584], 0
  0009b	0f 8c 9f 00 00
	00		 jl	 $LN10@SkillFlame
$LN6@SkillFlame:

; 5415 : 				{
; 5416 : 					EnableAttack = 1;
; 5417 : 				}
; 5418 : 				else if( tObjNum == aTargetIndex || DuelIndex == tObjNum)

  000a1	3b 75 14	 cmp	 esi, DWORD PTR _aTargetIndex$[ebp]
  000a4	0f 84 96 00 00
	00		 je	 $LN10@SkillFlame
  000aa	39 75 f4	 cmp	 DWORD PTR _DuelIndex$1$[ebp], esi
  000ad	0f 84 8d 00 00
	00		 je	 $LN10@SkillFlame

; 5419 : 				{
; 5420 : 					EnableAttack = 1;
; 5421 : 				}
; 5422 : #if (GS_CASTLE == 1)
; 5423 : 				else if(lpObj->VpPlayer2[count].type != OBJ_NPC && gObj[tObjNum].MapNumber == MAP_INDEX_CASTLESIEGE && g_CastleSiege.GetCastleState() == 7)

  000b3	80 fa 03	 cmp	 dl, 3
  000b6	74 43		 je	 SHORT $LN11@SkillFlame
  000b8	69 de 40 27 00
	00		 imul	 ebx, esi, 10048
  000be	80 bc 0b 23 01
	00 00 1e	 cmp	 BYTE PTR [ebx+ecx+291], 30 ; 0000001eH
  000c6	75 30		 jne	 SHORT $LN34@SkillFlame
  000c8	b9 00 00 00 00	 mov	 ecx, OFFSET ?g_CastleSiege@@3VCCastleSiege@@A ; g_CastleSiege
  000cd	e8 00 00 00 00	 call	 ?GetCastleState@CCastleSiege@@QAEHXZ ; CCastleSiege::GetCastleState

; 5424 : 				{
; 5425 : 					if( lpObj->m_btCsJoinSide != gObj[tObjNum].m_btCsJoinSide )

  000d2	8b 0d 00 00 00
	00		 mov	 ecx, DWORD PTR ?gObj@@3PAUOBJECTSTRUCT@@A ; gObj
  000d8	83 f8 07	 cmp	 eax, 7
  000db	75 1b		 jne	 SHORT $LN34@SkillFlame
  000dd	8b 45 fc	 mov	 eax, DWORD PTR _lpObj$1$[ebp]
  000e0	8a 80 5a 20 00
	00		 mov	 al, BYTE PTR [eax+8282]
  000e6	3a 84 0b 5a 20
	00 00		 cmp	 al, BYTE PTR [ebx+ecx+8282]
  000ed	0f 84 d3 00 00
	00		 je	 $LN17@SkillFlame

; 5426 : 						EnableAttack = 1;
; 5427 : 				}
; 5428 : #endif
; 5429 : 				else

  000f3	8b 5d fc	 mov	 ebx, DWORD PTR _lpObj$1$[ebp]
  000f6	eb 48		 jmp	 SHORT $LN10@SkillFlame
$LN34@SkillFlame:
  000f8	8b 5d fc	 mov	 ebx, DWORD PTR _lpObj$1$[ebp]
$LN11@SkillFlame:

; 5430 : 				{
; 5431 : 					int CallMonIndex = gObj[tObjNum].m_Index;

  000fb	69 c6 40 27 00
	00		 imul	 eax, esi, 10048

; 5432 : 
; 5433 : 					if(gObj[tObjNum].Type == OBJ_MONSTER && gObj[tObjNum].m_RecallMon >= 0)

  00101	80 7c 08 50 02	 cmp	 BYTE PTR [eax+ecx+80], 2
  00106	8b 14 08	 mov	 edx, DWORD PTR [eax+ecx]
  00109	75 14		 jne	 SHORT $LN14@SkillFlame
  0010b	8b 84 08 30 06
	00 00		 mov	 eax, DWORD PTR [eax+ecx+1584]
  00112	85 c0		 test	 eax, eax
  00114	78 09		 js	 SHORT $LN14@SkillFlame

; 5434 : 					{
; 5435 : 						CallMonIndex = gObj[gObj[tObjNum].m_RecallMon].m_Index;

  00116	69 c0 40 27 00
	00		 imul	 eax, eax, 10048
  0011c	8b 14 08	 mov	 edx, DWORD PTR [eax+ecx]
$LN14@SkillFlame:

; 5436 : 					}
; 5437 : 
; 5438 : 					if(gObjTargetGuildWarCheck(lpObj,&gObj[CallMonIndex])==1)

  0011f	69 c2 40 27 00
	00		 imul	 eax, edx, 10048
  00125	03 c1		 add	 eax, ecx
  00127	50		 push	 eax
  00128	53		 push	 ebx
  00129	e8 00 00 00 00	 call	 ?gObjTargetGuildWarCheck@@YAHPAUOBJECTSTRUCT@@0@Z ; gObjTargetGuildWarCheck
  0012e	83 c4 08	 add	 esp, 8
  00131	83 f8 01	 cmp	 eax, 1
  00134	0f 85 86 00 00
	00		 jne	 $LN33@SkillFlame
  0013a	8b 0d 00 00 00
	00		 mov	 ecx, DWORD PTR ?gObj@@3PAUOBJECTSTRUCT@@A ; gObj
$LN10@SkillFlame:

; 5439 : 					{
; 5440 : 						EnableAttack = 1;
; 5441 : 					}
; 5442 : 				}
; 5443 : 
; 5444 : 				if(EnableAttack != 0)
; 5445 : 				{
; 5446 : 					if( SkillTestFrustrum(gObj[tObjNum].X,gObj[tObjNum].Y,aIndex) )

  00140	ff 75 08	 push	 DWORD PTR _aIndex$[ebp]
  00143	69 f6 40 27 00
	00		 imul	 esi, esi, 10048
  00149	0f b6 84 0e 21
	01 00 00	 movzx	 eax, BYTE PTR [esi+ecx+289]
  00151	50		 push	 eax
  00152	0f b6 84 0e 20
	01 00 00	 movzx	 eax, BYTE PTR [esi+ecx+288]
  0015a	50		 push	 eax
  0015b	e8 00 00 00 00	 call	 ?SkillTestFrustrum@@YAHHHH@Z ; SkillTestFrustrum
  00160	83 c4 0c	 add	 esp, 12			; 0000000cH
  00163	85 c0		 test	 eax, eax
  00165	74 59		 je	 SHORT $LN33@SkillFlame

; 5447 : 					{
; 5448 : 						bAttack = FALSE;
; 5449 : 
; 5450 : 						if(HitCount > 8)

  00167	83 7d 10 08	 cmp	 DWORD PTR _HitCount$1$[ebp], 8
  0016b	7e 13		 jle	 SHORT $LN18@SkillFlame

; 5451 : 						{
; 5452 : 							if( rand()%2 )

  0016d	e8 00 00 00 00	 call	 _rand
  00172	25 01 00 00 80	 and	 eax, -2147483647	; 80000001H
  00177	79 05		 jns	 SHORT $LN35@SkillFlame
  00179	48		 dec	 eax
  0017a	83 c8 fe	 or	 eax, -2			; fffffffeH
  0017d	40		 inc	 eax
$LN35@SkillFlame:
  0017e	74 3d		 je	 SHORT $LN21@SkillFlame
$LN18@SkillFlame:

; 5453 : 							{
; 5454 : 								bAttack = TRUE;
; 5455 : 							}
; 5456 : 						}
; 5457 : 						else
; 5458 : 						{
; 5459 : 							bAttack = TRUE;
; 5460 : 						}
; 5461 : 
; 5462 : 						if(bAttack != FALSE)
; 5463 : 						{
; 5464 : 							gObjAttack(lpObj,&gObj[tObjNum],lpMagic,TRUE,0,0,0,0,0);

  00180	a1 00 00 00 00	 mov	 eax, DWORD PTR ?gObj@@3PAUOBJECTSTRUCT@@A ; gObj
  00185	6a 00		 push	 0
  00187	6a 00		 push	 0
  00189	6a 00		 push	 0
  0018b	6a 00		 push	 0
  0018d	6a 00		 push	 0
  0018f	6a 01		 push	 1
  00191	ff 75 0c	 push	 DWORD PTR _lpMagic$[ebp]
  00194	03 c6		 add	 eax, esi
  00196	50		 push	 eax
  00197	53		 push	 ebx
  00198	e8 00 00 00 00	 call	 ?gObjAttack@@YAXPAUOBJECTSTRUCT@@0PAVCMagicInf@@HEHHEE@Z ; gObjAttack

; 5465 : 							gObjAttack(lpObj,&gObj[tObjNum],lpMagic,TRUE,0,0,0,0,0);

  0019d	a1 00 00 00 00	 mov	 eax, DWORD PTR ?gObj@@3PAUOBJECTSTRUCT@@A ; gObj
  001a2	6a 00		 push	 0
  001a4	6a 00		 push	 0
  001a6	6a 00		 push	 0
  001a8	6a 00		 push	 0
  001aa	6a 00		 push	 0
  001ac	6a 01		 push	 1
  001ae	ff 75 0c	 push	 DWORD PTR _lpMagic$[ebp]
  001b1	03 c6		 add	 eax, esi
  001b3	50		 push	 eax
  001b4	53		 push	 ebx
  001b5	e8 00 00 00 00	 call	 ?gObjAttack@@YAXPAUOBJECTSTRUCT@@0PAVCMagicInf@@HEHHEE@Z ; gObjAttack
  001ba	83 c4 48	 add	 esp, 72			; 00000048H
$LN21@SkillFlame:

; 5466 : 						}
; 5467 : 
; 5468 : 						HitCount++;

  001bd	ff 45 10	 inc	 DWORD PTR _HitCount$1$[ebp]
$LN33@SkillFlame:
  001c0	8b 0d 00 00 00
	00		 mov	 ecx, DWORD PTR ?gObj@@3PAUOBJECTSTRUCT@@A ; gObj
$LN17@SkillFlame:

; 5469 : 					}
; 5470 : 				}
; 5471 : 			}
; 5472 : 		}
; 5473 : 
; 5474 : 		count++;
; 5475 : 		if(count > MAX_VIEWPORT -1)

  001c6	8b 5d fc	 mov	 ebx, DWORD PTR _lpObj$1$[ebp]
  001c9	83 c7 0c	 add	 edi, 12			; 0000000cH
  001cc	83 6d f8 01	 sub	 DWORD PTR tv469[ebp], 1
  001d0	0f 85 9a fe ff
	ff		 jne	 $LL2@SkillFlame
  001d6	5f		 pop	 edi
  001d7	5e		 pop	 esi
  001d8	5b		 pop	 ebx

; 5476 : 		{
; 5477 : 			break;
; 5478 : 		}
; 5479 : 	}
; 5480 : 
; 5481 : }

  001d9	8b e5		 mov	 esp, ebp
  001db	5d		 pop	 ebp
  001dc	c2 10 00	 ret	 16			; 00000010H
?SkillFlameStrike@CObjUseSkill@@QAEXHPAVCMagicInf@@EH@Z ENDP ; CObjUseSkill::SkillFlameStrike
_TEXT	ENDS
; Function compile flags: /Ogtp
; File c:\users\michel\desktop\source\gameserver\source\objuseskill.cpp
;	COMDAT ?SkillLightShock@CObjUseSkill@@QAEHHHPAVCMagicInf@@@Z
_TEXT	SEGMENT
_DuelIndex$1$ = -16					; size = 4
_HitCount$1$ = -12					; size = 4
_bAttack$1$ = -8					; size = 4
tv498 = -4						; size = 4
tv503 = 8						; size = 4
_aIndex$ = 8						; size = 4
_aTargetIndex$ = 12					; size = 4
_lpMagic$ = 16						; size = 4
?SkillLightShock@CObjUseSkill@@QAEHHHPAVCMagicInf@@@Z PROC ; CObjUseSkill::SkillLightShock, COMDAT
; _this$ = ecx

; 5286 : {

  00000	55		 push	 ebp
  00001	8b ec		 mov	 ebp, esp
  00003	83 ec 10	 sub	 esp, 16			; 00000010H
  00006	53		 push	 ebx

; 5287 : 	LPOBJ lpObj = &gObj[aIndex];

  00007	69 5d 08 40 27
	00 00		 imul	 ebx, DWORD PTR _aIndex$[ebp], 10048

; 5288 : 	int tmpvar = 0;
; 5289 : 	int bAttack = 0;

  0000e	33 c0		 xor	 eax, eax
  00010	56		 push	 esi
  00011	57		 push	 edi
  00012	89 45 f8	 mov	 DWORD PTR _bAttack$1$[ebp], eax

; 5290 : 	int tObjNum;
; 5291 : 	int count = 0;
; 5292 : 	int tmpvar2 = 0;
; 5293 : 	int tmpvar3 = 7;
; 5294 : 	int HitCount = 0;

  00015	33 c9		 xor	 ecx, ecx

; 5295 : 
; 5296 : 	GCMagicAttackNumberSend(lpObj,lpMagic->m_Skill,aTargetIndex,1);

  00017	8b 45 10	 mov	 eax, DWORD PTR _lpMagic$[ebp]
  0001a	03 1d 00 00 00
	00		 add	 ebx, DWORD PTR ?gObj@@3PAUOBJECTSTRUCT@@A ; gObj
  00020	6a 01		 push	 1
  00022	ff 75 0c	 push	 DWORD PTR _aTargetIndex$[ebp]
  00025	0f b7 40 08	 movzx	 eax, WORD PTR [eax+8]
  00029	50		 push	 eax
  0002a	53		 push	 ebx
  0002b	89 4d f4	 mov	 DWORD PTR _HitCount$1$[ebp], ecx
  0002e	e8 00 00 00 00	 call	 ?GCMagicAttackNumberSend@@YAXPAUOBJECTSTRUCT@@GHE@Z ; GCMagicAttackNumberSend

; 5297 : 
; 5298 : 	int EnableAttack;
; 5299 : 	int bForceAttack = TRUE;
; 5300 : 	int DuelIndex = lpObj->m_iDuelUser;

  00033	8b 83 50 12 00
	00		 mov	 eax, DWORD PTR [ebx+4688]
  00039	8d bb 4c 0c 00
	00		 lea	 edi, DWORD PTR [ebx+3148]
  0003f	b9 4b 00 00 00	 mov	 ecx, 75			; 0000004bH
  00044	89 45 f0	 mov	 DWORD PTR _DuelIndex$1$[ebp], eax
  00047	83 c4 10	 add	 esp, 16			; 00000010H
  0004a	89 4d fc	 mov	 DWORD PTR tv498[ebp], ecx
  0004d	0f 1f 00	 npad	 3
$LL2@SkillLight:

; 5301 : 
; 5302 : 	while ( true )
; 5303 : 	{
; 5304 : 		if(lpObj->VpPlayer2[count].state != 0)

  00050	80 7f fc 00	 cmp	 BYTE PTR [edi-4], 0
  00054	0f 84 6d 01 00
	00		 je	 $LN45@SkillLight

; 5305 : 		{
; 5306 : 			tObjNum = lpObj->VpPlayer2[count].number;

  0005a	0f bf 77 fe	 movsx	 esi, WORD PTR [edi-2]

; 5307 : 
; 5308 : 			if(tObjNum >= 0 && gObj[tObjNum].Live )

  0005e	85 f6		 test	 esi, esi
  00060	0f 88 61 01 00
	00		 js	 $LN45@SkillLight
  00066	69 d6 40 27 00
	00		 imul	 edx, esi, 10048
  0006c	89 55 08	 mov	 DWORD PTR tv503[ebp], edx
  0006f	03 15 00 00 00
	00		 add	 edx, DWORD PTR ?gObj@@3PAUOBJECTSTRUCT@@A ; gObj
  00075	80 7a 51 00	 cmp	 BYTE PTR [edx+81], 0
  00079	0f 84 48 01 00
	00		 je	 $LN45@SkillLight

; 5309 : 			{
; 5310 : 				EnableAttack = 0;
; 5311 : 
; 5312 : 				if(lpObj->VpPlayer2[count].type == OBJ_MONSTER && gObj[tObjNum].m_RecallMon < 0)

  0007f	8a 2f		 mov	 ch, BYTE PTR [edi]
  00081	80 fd 02	 cmp	 ch, 2
  00084	75 0d		 jne	 SHORT $LN6@SkillLight
  00086	83 ba 30 06 00
	00 00		 cmp	 DWORD PTR [edx+1584], 0
  0008d	0f 8c c1 00 00
	00		 jl	 $LN51@SkillLight
$LN6@SkillLight:

; 5313 : 				{
; 5314 : 					EnableAttack = 1;
; 5315 : 				}
; 5316 : 				else if( CC_MAP_RANGE( lpObj->MapNumber ) || IT_MAP_RANGE( lpObj->MapNumber ) 

  00093	8a 8b 23 01 00
	00		 mov	 cl, BYTE PTR [ebx+291]
  00099	80 f9 35	 cmp	 cl, 53			; 00000035H
  0009c	0f 84 b2 00 00
	00		 je	 $LN51@SkillLight
  000a2	80 f9 12	 cmp	 cl, 18			; 00000012H
  000a5	72 0f		 jb	 SHORT $LN42@SkillLight
  000a7	b0 17		 mov	 al, 23			; 00000017H
  000a9	3a c1		 cmp	 al, cl
  000ab	1b c0		 sbb	 eax, eax
  000ad	83 c0 01	 add	 eax, 1
  000b0	0f 85 9e 00 00
	00		 jne	 $LN51@SkillLight
$LN42@SkillLight:
  000b6	80 f9 2d	 cmp	 cl, 45			; 0000002dH
  000b9	72 0f		 jb	 SHORT $LN43@SkillLight
  000bb	b0 32		 mov	 al, 50			; 00000032H
  000bd	3a c1		 cmp	 al, cl
  000bf	1b c0		 sbb	 eax, eax
  000c1	83 c0 01	 add	 eax, 1
  000c4	0f 85 8a 00 00
	00		 jne	 $LN51@SkillLight
$LN43@SkillLight:

; 5317 : //					|| lpObj->MapNumber == MAP_INDEX_VULCANUS
; 5318 : 					)
; 5319 : 				{
; 5320 : 					EnableAttack = 1;
; 5321 : 				}
; 5322 : 				else if( (tObjNum == aTargetIndex && bForceAttack == TRUE ) || DuelIndex == tObjNum)

  000ca	3b 75 0c	 cmp	 esi, DWORD PTR _aTargetIndex$[ebp]
  000cd	0f 84 81 00 00
	00		 je	 $LN51@SkillLight
  000d3	39 75 f0	 cmp	 DWORD PTR _DuelIndex$1$[ebp], esi
  000d6	74 7c		 je	 SHORT $LN51@SkillLight

; 5323 : 				{
; 5324 : 					EnableAttack = 1;
; 5325 : 				}
; 5326 : #if (GS_CASTLE == 1)
; 5327 : 				else if(lpObj->VpPlayer2[count].type != OBJ_NPC && gObj[tObjNum].MapNumber == MAP_INDEX_CASTLESIEGE && g_CastleSiege.GetCastleState() == 7)

  000d8	80 fd 03	 cmp	 ch, 3
  000db	74 35		 je	 SHORT $LN44@SkillLight
  000dd	80 ba 23 01 00
	00 1e		 cmp	 BYTE PTR [edx+291], 30	; 0000001eH
  000e4	75 2c		 jne	 SHORT $LN44@SkillLight
  000e6	b9 00 00 00 00	 mov	 ecx, OFFSET ?g_CastleSiege@@3VCCastleSiege@@A ; g_CastleSiege
  000eb	e8 00 00 00 00	 call	 ?GetCastleState@CCastleSiege@@QAEHXZ ; CCastleSiege::GetCastleState
  000f0	83 f8 07	 cmp	 eax, 7
  000f3	75 1d		 jne	 SHORT $LN44@SkillLight

; 5328 : 				{
; 5329 : 					if( lpObj->m_btCsJoinSide != gObj[tObjNum].m_btCsJoinSide )

  000f5	a1 00 00 00 00	 mov	 eax, DWORD PTR ?gObj@@3PAUOBJECTSTRUCT@@A ; gObj
  000fa	8b 55 08	 mov	 edx, DWORD PTR tv503[ebp]
  000fd	8a 8b 5a 20 00
	00		 mov	 cl, BYTE PTR [ebx+8282]
  00103	3a 8c 02 5a 20
	00 00		 cmp	 cl, BYTE PTR [edx+eax+8282]
  0010a	0f 84 b4 00 00
	00		 je	 $LN56@SkillLight

; 5330 : 						EnableAttack = 1;
; 5331 : 				}
; 5332 : #endif
; 5333 : 				else

  00110	eb 45		 jmp	 SHORT $LN10@SkillLight
$LN44@SkillLight:

; 5334 : 				{
; 5335 : 					int CallMonIndex = gObj[tObjNum].m_Index;

  00112	8b 0d 00 00 00
	00		 mov	 ecx, DWORD PTR ?gObj@@3PAUOBJECTSTRUCT@@A ; gObj
  00118	8b 55 08	 mov	 edx, DWORD PTR tv503[ebp]

; 5336 : 
; 5337 : 					if(gObj[tObjNum].Type == OBJ_MONSTER && gObj[tObjNum].m_RecallMon >= 0)

  0011b	80 7c 0a 50 02	 cmp	 BYTE PTR [edx+ecx+80], 2
  00120	8b 04 0a	 mov	 eax, DWORD PTR [edx+ecx]
  00123	75 14		 jne	 SHORT $LN18@SkillLight
  00125	8b 94 0a 30 06
	00 00		 mov	 edx, DWORD PTR [edx+ecx+1584]
  0012c	85 d2		 test	 edx, edx
  0012e	78 09		 js	 SHORT $LN18@SkillLight

; 5338 : 					{
; 5339 : 						CallMonIndex = gObj[gObj[tObjNum].m_RecallMon].m_Index;

  00130	69 c2 40 27 00
	00		 imul	 eax, edx, 10048
  00136	8b 04 08	 mov	 eax, DWORD PTR [eax+ecx]
$LN18@SkillLight:

; 5340 : 					}
; 5341 : 
; 5342 : 					if(gObjTargetGuildWarCheck(lpObj,&gObj[CallMonIndex])==1)

  00139	69 c0 40 27 00
	00		 imul	 eax, eax, 10048
  0013f	03 05 00 00 00
	00		 add	 eax, DWORD PTR ?gObj@@3PAUOBJECTSTRUCT@@A ; gObj
  00145	50		 push	 eax
  00146	53		 push	 ebx
  00147	e8 00 00 00 00	 call	 ?gObjTargetGuildWarCheck@@YAHPAUOBJECTSTRUCT@@0@Z ; gObjTargetGuildWarCheck
  0014c	83 c4 08	 add	 esp, 8
  0014f	83 f8 01	 cmp	 eax, 1
  00152	75 70		 jne	 SHORT $LN56@SkillLight
$LN51@SkillLight:
  00154	8b 55 08	 mov	 edx, DWORD PTR tv503[ebp]
$LN10@SkillLight:

; 5343 : 					{
; 5344 : 						EnableAttack = 1;
; 5345 : 					}
; 5346 : 				}
; 5347 : 
; 5348 : 				if(EnableAttack != 0)
; 5349 : 				{
; 5350 : 					if(gObjCalDistance(lpObj,&gObj[tObjNum]) < 7)

  00157	a1 00 00 00 00	 mov	 eax, DWORD PTR ?gObj@@3PAUOBJECTSTRUCT@@A ; gObj
  0015c	03 c2		 add	 eax, edx
  0015e	50		 push	 eax
  0015f	53		 push	 ebx
  00160	e8 00 00 00 00	 call	 ?gObjCalDistance@@YAHPAUOBJECTSTRUCT@@0@Z ; gObjCalDistance
  00165	83 c4 08	 add	 esp, 8
  00168	83 f8 07	 cmp	 eax, 7
  0016b	7d 57		 jge	 SHORT $LN56@SkillLight

; 5351 : 					{
; 5352 : 						HitCount++;

  0016d	8b 45 f4	 mov	 eax, DWORD PTR _HitCount$1$[ebp]
  00170	40		 inc	 eax
  00171	89 45 f4	 mov	 DWORD PTR _HitCount$1$[ebp], eax

; 5353 : 
; 5354 : 						if(HitCount > 5)

  00174	83 f8 05	 cmp	 eax, 5
  00177	7e 13		 jle	 SHORT $LN22@SkillLight

; 5355 : 						{
; 5356 : 							if( rand()%2 )

  00179	e8 00 00 00 00	 call	 _rand
  0017e	25 01 00 00 80	 and	 eax, -2147483647	; 80000001H
  00183	79 05		 jns	 SHORT $LN57@SkillLight
  00185	48		 dec	 eax
  00186	83 c8 fe	 or	 eax, -2			; fffffffeH
  00189	40		 inc	 eax
$LN57@SkillLight:
  0018a	74 0a		 je	 SHORT $LN52@SkillLight
$LN22@SkillLight:

; 5357 : 							{
; 5358 : 								bAttack = TRUE;

  0018c	b8 01 00 00 00	 mov	 eax, 1
  00191	89 45 f8	 mov	 DWORD PTR _bAttack$1$[ebp], eax

; 5359 : 							}
; 5360 : 						}
; 5361 : 						else

  00194	eb 03		 jmp	 SHORT $LN23@SkillLight
$LN52@SkillLight:
  00196	8b 45 f8	 mov	 eax, DWORD PTR _bAttack$1$[ebp]
$LN23@SkillLight:

; 5362 : 						{
; 5363 : 							bAttack = TRUE;
; 5364 : 						}
; 5365 : 
; 5366 : 						if(HitCount > 12)

  00199	83 7d f4 0c	 cmp	 DWORD PTR _HitCount$1$[ebp], 12 ; 0000000cH
  0019d	7e 07		 jle	 SHORT $LN25@SkillLight

; 5367 : 						{
; 5368 : 							bAttack = FALSE;

  0019f	33 c0		 xor	 eax, eax
  001a1	89 45 f8	 mov	 DWORD PTR _bAttack$1$[ebp], eax

; 5369 : 						}
; 5370 : 
; 5371 : 						if(bAttack == TRUE)

  001a4	eb 1e		 jmp	 SHORT $LN56@SkillLight
$LN25@SkillLight:
  001a6	83 f8 01	 cmp	 eax, 1
  001a9	75 19		 jne	 SHORT $LN56@SkillLight

; 5372 : 						{
; 5373 : 							gObjAddAttackProcMsgSendDelay(lpObj,50,tObjNum,250,lpMagic->m_Skill,0);

  001ab	8b 45 10	 mov	 eax, DWORD PTR _lpMagic$[ebp]
  001ae	6a 00		 push	 0
  001b0	ff 70 08	 push	 DWORD PTR [eax+8]
  001b3	68 fa 00 00 00	 push	 250			; 000000faH
  001b8	56		 push	 esi
  001b9	6a 32		 push	 50			; 00000032H
  001bb	53		 push	 ebx
  001bc	e8 00 00 00 00	 call	 ?gObjAddAttackProcMsgSendDelay@@YAXPAUOBJECTSTRUCT@@HHHHH@Z ; gObjAddAttackProcMsgSendDelay
  001c1	83 c4 18	 add	 esp, 24			; 00000018H
$LN56@SkillLight:
  001c4	8b 4d fc	 mov	 ecx, DWORD PTR tv498[ebp]
$LN45@SkillLight:

; 5374 : 						}
; 5375 : 					}
; 5376 : 				}
; 5377 : 			}
; 5378 : 		}
; 5379 : 
; 5380 : 		count++;

  001c7	83 c7 0c	 add	 edi, 12			; 0000000cH

; 5381 : 		if(count > MAX_VIEWPORT -1)

  001ca	83 e9 01	 sub	 ecx, 1
  001cd	89 4d fc	 mov	 DWORD PTR tv498[ebp], ecx
  001d0	0f 85 7a fe ff
	ff		 jne	 $LL2@SkillLight

; 5382 : 		{
; 5383 : 			break;
; 5384 : 		}
; 5385 : 	}
; 5386 : return TRUE;

  001d6	5f		 pop	 edi
  001d7	5e		 pop	 esi
  001d8	b8 01 00 00 00	 mov	 eax, 1
  001dd	5b		 pop	 ebx

; 5387 : }

  001de	8b e5		 mov	 esp, ebp
  001e0	5d		 pop	 ebp
  001e1	c2 0c 00	 ret	 12			; 0000000cH
?SkillLightShock@CObjUseSkill@@QAEHHHPAVCMagicInf@@@Z ENDP ; CObjUseSkill::SkillLightShock
_TEXT	ENDS
; Function compile flags: /Ogtp
; File c:\users\michel\desktop\source\gameserver\source\objuseskill.cpp
;	COMDAT ?SkillDestruct@CObjUseSkill@@QAEXHPAVCMagicInf@@EEH@Z
_TEXT	SEGMENT
_aIndex$ = 8						; size = 4
_lpMagic$ = 12						; size = 4
_X$ = 16						; size = 1
_Y$ = 20						; size = 1
_aTargetIndex$ = 24					; size = 4
?SkillDestruct@CObjUseSkill@@QAEXHPAVCMagicInf@@EEH@Z PROC ; CObjUseSkill::SkillDestruct, COMDAT
; _this$ = ecx

; 5241 : {

  00000	55		 push	 ebp
  00001	8b ec		 mov	 ebp, esp

; 5242 : 	SkillAreaMonsterAttack(aIndex,lpMagic,X,Y,aTargetIndex,3,1,500);

  00003	68 f4 01 00 00	 push	 500			; 000001f4H
  00008	6a 01		 push	 1
  0000a	6a 03		 push	 3
  0000c	ff 75 18	 push	 DWORD PTR _aTargetIndex$[ebp]
  0000f	ff 75 14	 push	 DWORD PTR _Y$[ebp]
  00012	ff 75 10	 push	 DWORD PTR _X$[ebp]
  00015	ff 75 0c	 push	 DWORD PTR _lpMagic$[ebp]
  00018	ff 75 08	 push	 DWORD PTR _aIndex$[ebp]
  0001b	e8 00 00 00 00	 call	 ?SkillAreaMonsterAttack@CObjUseSkill@@QAEHHPAVCMagicInf@@EEHHHH@Z ; CObjUseSkill::SkillAreaMonsterAttack

; 5243 : }

  00020	5d		 pop	 ebp
  00021	c2 14 00	 ret	 20			; 00000014H
?SkillDestruct@CObjUseSkill@@QAEXHPAVCMagicInf@@EEH@Z ENDP ; CObjUseSkill::SkillDestruct
_TEXT	ENDS
; Function compile flags: /Ogtp
; File c:\users\michel\desktop\source\gameserver\source\objuseskill.cpp
;	COMDAT ?SkillExpWizard@CObjUseSkill@@QAEHHHPAVCMagicInf@@@Z
_TEXT	SEGMENT
_aIndex$ = 8						; size = 4
_aTargetIndex$ = 12					; size = 4
_lpMagic$ = 16						; size = 4
?SkillExpWizard@CObjUseSkill@@QAEHHHPAVCMagicInf@@@Z PROC ; CObjUseSkill::SkillExpWizard, COMDAT
; _this$ = ecx

; 5246 : {

  00000	55		 push	 ebp
  00001	8b ec		 mov	 ebp, esp
  00003	56		 push	 esi
  00004	57		 push	 edi

; 5247 : 	LPOBJ lpObj = &gObj[aIndex];

  00005	8b 7d 08	 mov	 edi, DWORD PTR _aIndex$[ebp]
  00008	69 f7 40 27 00
	00		 imul	 esi, edi, 10048
  0000e	03 35 00 00 00
	00		 add	 esi, DWORD PTR ?gObj@@3PAUOBJECTSTRUCT@@A ; gObj

; 5248 : 
; 5249 : 	if( lpObj->Type != OBJ_USER )

  00014	80 7e 50 01	 cmp	 BYTE PTR [esi+80], 1
  00018	74 08		 je	 SHORT $LN2@SkillExpWi
$LN10@SkillExpWi:
  0001a	5f		 pop	 edi

; 5250 : 	{
; 5251 : 		return false;

  0001b	33 c0		 xor	 eax, eax
  0001d	5e		 pop	 esi

; 5283 : }

  0001e	5d		 pop	 ebp
  0001f	c2 0c 00	 ret	 12			; 0000000cH
$LN2@SkillExpWi:

; 5252 : 	}
; 5253 : 
; 5254 : 	if( lpObj->Class != CLASS_WIZARD )

  00022	66 83 be 90 00
	00 00 00	 cmp	 WORD PTR [esi+144], 0
  0002a	75 ee		 jne	 SHORT $LN10@SkillExpWi

; 5255 : 	{
; 5256 : 		return false;
; 5257 : 	}
; 5258 : 
; 5259 : 	if( gObjCheckUsedBuffEffect(lpObj,BUFF_EXP_WIZARDRY) == TRUE ||
; 5260 : 		gObjCheckUsedBuffEffect(lpObj,BUFF_EXP_WIZARDRY2) == TRUE ||

  0002c	6a 52		 push	 82			; 00000052H
  0002e	56		 push	 esi
  0002f	e8 00 00 00 00	 call	 ?gObjCheckUsedBuffEffect@@YA_NPAUOBJECTSTRUCT@@H@Z ; gObjCheckUsedBuffEffect
  00034	83 c4 08	 add	 esp, 8
  00037	3c 01		 cmp	 al, 1
  00039	74 df		 je	 SHORT $LN10@SkillExpWi
  0003b	68 8a 00 00 00	 push	 138			; 0000008aH
  00040	56		 push	 esi
  00041	e8 00 00 00 00	 call	 ?gObjCheckUsedBuffEffect@@YA_NPAUOBJECTSTRUCT@@H@Z ; gObjCheckUsedBuffEffect
  00046	83 c4 08	 add	 esp, 8
  00049	3c 01		 cmp	 al, 1
  0004b	74 cd		 je	 SHORT $LN10@SkillExpWi
  0004d	68 8b 00 00 00	 push	 139			; 0000008bH
  00052	56		 push	 esi
  00053	e8 00 00 00 00	 call	 ?gObjCheckUsedBuffEffect@@YA_NPAUOBJECTSTRUCT@@H@Z ; gObjCheckUsedBuffEffect
  00058	83 c4 08	 add	 esp, 8
  0005b	3c 01		 cmp	 al, 1
  0005d	74 bb		 je	 SHORT $LN10@SkillExpWi

; 5261 : 		gObjCheckUsedBuffEffect(lpObj,BUFF_EXP_WIZARDRY3) == TRUE )
; 5262 : 	{
; 5263 : 		return false;
; 5264 : 	}
; 5265 : 
; 5266 : 	BuffSkillEffectInfo* lpInfo = g_BuffSkillEffect.GetEffect(lpMagic->m_Skill);

  0005f	53		 push	 ebx
  00060	8b 5d 10	 mov	 ebx, DWORD PTR _lpMagic$[ebp]
  00063	b9 00 00 00 00	 mov	 ecx, OFFSET ?g_BuffSkillEffect@@3VBuffSkillEffect@@A ; g_BuffSkillEffect
  00068	ff 73 08	 push	 DWORD PTR [ebx+8]
  0006b	e8 00 00 00 00	 call	 ?GetEffect@BuffSkillEffect@@QAEPAUBuffSkillEffectInfo@@H@Z ; BuffSkillEffect::GetEffect
  00070	8b c8		 mov	 ecx, eax

; 5267 : 
; 5268 : 	if( !lpInfo )

  00072	85 c9		 test	 ecx, ecx
  00074	75 07		 jne	 SHORT $LN6@SkillExpWi
  00076	5b		 pop	 ebx
  00077	5f		 pop	 edi
  00078	5e		 pop	 esi

; 5283 : }

  00079	5d		 pop	 ebp
  0007a	c2 0c 00	 ret	 12			; 0000000cH
$LN6@SkillExpWi:

; 5269 : 	{
; 5270 : 		return 0;
; 5271 : 	}
; 5272 : 
; 5273 : 	int AddMinDmg = (lpObj->Energy/lpInfo->m_Arg1)*lpInfo->m_Arg2;

  0007d	0f b7 86 d6 00
	00 00		 movzx	 eax, WORD PTR [esi+214]

; 5274 : 
; 5275 : 	if( AddMinDmg > lpInfo->m_Arg3 )

  00084	f3 0f 10 49 0c	 movss	 xmm1, DWORD PTR [ecx+12]
  00089	66 0f 6e c0	 movd	 xmm0, eax
  0008d	0f 5b c0	 cvtdq2ps xmm0, xmm0
  00090	f3 0f 5e 41 04	 divss	 xmm0, DWORD PTR [ecx+4]
  00095	f3 0f 59 41 08	 mulss	 xmm0, DWORD PTR [ecx+8]
  0009a	f3 0f 2c d0	 cvttss2si edx, xmm0
  0009e	66 0f 6e c2	 movd	 xmm0, edx
  000a2	0f 5b c0	 cvtdq2ps xmm0, xmm0
  000a5	0f 2f c1	 comiss	 xmm0, xmm1
  000a8	76 04		 jbe	 SHORT $LN7@SkillExpWi

; 5276 : 	{
; 5277 : 		AddMinDmg = lpInfo->m_Arg3;

  000aa	f3 0f 2c d1	 cvttss2si edx, xmm1
$LN7@SkillExpWi:

; 5278 : 	}
; 5279 : 
; 5280 : 	gObjAddBuffEffect(lpObj,BUFF_EXP_WIZARDRY,ADD_OPTION_MAGICDAMAGEMIN,AddMinDmg,0,0,lpInfo->m_Arg4);

  000ae	f3 0f 2c 41 10	 cvttss2si eax, DWORD PTR [ecx+16]
  000b3	50		 push	 eax
  000b4	6a 00		 push	 0
  000b6	6a 00		 push	 0
  000b8	52		 push	 edx
  000b9	6a 21		 push	 33			; 00000021H
  000bb	6a 52		 push	 82			; 00000052H
  000bd	56		 push	 esi
  000be	e8 00 00 00 00	 call	 ?gObjAddBuffEffect@@YA_NPAUOBJECTSTRUCT@@HEHEHH@Z ; gObjAddBuffEffect

; 5281 : 	GCMagicAttackNumberSend(lpObj,lpMagic->m_Skill,aIndex,TRUE);

  000c3	0f b7 43 08	 movzx	 eax, WORD PTR [ebx+8]
  000c7	6a 01		 push	 1
  000c9	57		 push	 edi
  000ca	50		 push	 eax
  000cb	56		 push	 esi
  000cc	e8 00 00 00 00	 call	 ?GCMagicAttackNumberSend@@YAXPAUOBJECTSTRUCT@@GHE@Z ; GCMagicAttackNumberSend
  000d1	83 c4 2c	 add	 esp, 44			; 0000002cH

; 5282 : 	return true;

  000d4	b8 01 00 00 00	 mov	 eax, 1
  000d9	5b		 pop	 ebx
  000da	5f		 pop	 edi
  000db	5e		 pop	 esi

; 5283 : }

  000dc	5d		 pop	 ebp
  000dd	c2 0c 00	 ret	 12			; 0000000cH
?SkillExpWizard@CObjUseSkill@@QAEHHHPAVCMagicInf@@@Z ENDP ; CObjUseSkill::SkillExpWizard
_TEXT	ENDS
; Function compile flags: /Ogtp
; File c:\users\michel\desktop\source\gameserver\source\objuseskill.cpp
;	COMDAT ?SkillRecovery@CObjUseSkill@@QAEXHHPAVCMagicInf@@@Z
_TEXT	SEGMENT
tv441 = 8						; size = 4
_aIndex$ = 8						; size = 4
_aTargetIndex$ = 12					; size = 4
_lpMagic$ = 16						; size = 4
?SkillRecovery@CObjUseSkill@@QAEXHHPAVCMagicInf@@@Z PROC ; CObjUseSkill::SkillRecovery, COMDAT
; _this$ = ecx

; 5182 : {

  00000	55		 push	 ebp
  00001	8b ec		 mov	 ebp, esp

; 5183 : 	int skillSuccess = true;
; 5184 : 	LPOBJ lpObj = &gObj[aIndex];

  00003	a1 00 00 00 00	 mov	 eax, DWORD PTR ?gObj@@3PAUOBJECTSTRUCT@@A ; gObj
  00008	53		 push	 ebx
  00009	69 5d 08 40 27
	00 00		 imul	 ebx, DWORD PTR _aIndex$[ebp], 10048
  00010	56		 push	 esi

; 5185 : 	LPOBJ lpTargetObj = &gObj[aTargetIndex];

  00011	69 75 0c 40 27
	00 00		 imul	 esi, DWORD PTR _aTargetIndex$[ebp], 10048
  00018	03 d8		 add	 ebx, eax
  0001a	03 f0		 add	 esi, eax

; 5186 : 
; 5187 : 	if(lpTargetObj->Type != OBJ_USER && lpTargetObj->m_RecallMon == -1)

  0001c	80 7e 50 01	 cmp	 BYTE PTR [esi+80], 1
  00020	74 0d		 je	 SHORT $LN5@SkillRecov
  00022	83 be 30 06 00
	00 ff		 cmp	 DWORD PTR [esi+1584], -1
  00029	0f 84 40 01 00
	00		 je	 $LN3@SkillRecov
$LN5@SkillRecov:

; 5188 : 	{
; 5189 : 		return;
; 5190 : 	}
; 5191 : 
; 5192 : 	if(lpObj->Class != CLASS_ELF)

  0002f	66 83 bb 90 00
	00 00 02	 cmp	 WORD PTR [ebx+144], 2
  00037	0f 85 32 01 00
	00		 jne	 $LN3@SkillRecov

; 5193 : 	{
; 5194 : 		return;
; 5195 : 	}
; 5196 : 
; 5197 : 	if(CC_MAP_RANGE(lpObj->MapNumber) && lpObj->m_Index != lpTargetObj->m_Index)

  0003d	8a 83 23 01 00
	00		 mov	 al, BYTE PTR [ebx+291]
  00043	3c 35		 cmp	 al, 53			; 00000035H
  00045	74 0f		 je	 SHORT $LN23@SkillRecov
  00047	3c 12		 cmp	 al, 18			; 00000012H
  00049	72 15		 jb	 SHORT $LN7@SkillRecov
  0004b	b1 17		 mov	 cl, 23			; 00000017H
  0004d	3a c8		 cmp	 cl, al
  0004f	1b c0		 sbb	 eax, eax
  00051	83 c0 01	 add	 eax, 1
  00054	74 0a		 je	 SHORT $LN7@SkillRecov
$LN23@SkillRecov:
  00056	8b 03		 mov	 eax, DWORD PTR [ebx]
  00058	3b 06		 cmp	 eax, DWORD PTR [esi]
  0005a	0f 85 0f 01 00
	00		 jne	 $LN3@SkillRecov
$LN7@SkillRecov:
  00060	57		 push	 edi

; 5198 : 	{
; 5199 : 		return;
; 5200 : 	}
; 5201 : 
; 5202 : 	if(gObjDuelCheck(lpTargetObj) )

  00061	56		 push	 esi
  00062	e8 00 00 00 00	 call	 ?gObjDuelCheck@@YAHPAUOBJECTSTRUCT@@@Z ; gObjDuelCheck
  00067	83 c4 04	 add	 esp, 4
  0006a	85 c0		 test	 eax, eax
  0006c	0f 45 f3	 cmovne	 esi, ebx

; 5203 : 	{
; 5204 : 		lpTargetObj = lpObj;
; 5205 : 	}
; 5206 : 
; 5207 : 	if( lpTargetObj->iShield >= lpTargetObj->iMaxShield+lpTargetObj->iAddShield )

  0006f	8b 96 34 01 00
	00		 mov	 edx, DWORD PTR [esi+308]
  00075	03 96 30 01 00
	00		 add	 edx, DWORD PTR [esi+304]
  0007b	8b be 2c 01 00
	00		 mov	 edi, DWORD PTR [esi+300]
  00081	3b fa		 cmp	 edi, edx
  00083	7c 19		 jl	 SHORT $LN9@SkillRecov

; 5208 : 	{
; 5209 : 		GCMagicAttackNumberSend(lpObj,AT_SKILL_RECOVERY,lpTargetObj->m_Index,FALSE);

  00085	6a 00		 push	 0
  00087	ff 36		 push	 DWORD PTR [esi]
  00089	68 ea 00 00 00	 push	 234			; 000000eaH
  0008e	53		 push	 ebx
  0008f	e8 00 00 00 00	 call	 ?GCMagicAttackNumberSend@@YAXPAUOBJECTSTRUCT@@GHE@Z ; GCMagicAttackNumberSend
  00094	83 c4 10	 add	 esp, 16			; 00000010H
  00097	5f		 pop	 edi
  00098	5e		 pop	 esi
  00099	5b		 pop	 ebx

; 5234 : 				}
; 5235 : 			}
; 5236 : 		}
; 5237 : 	}
; 5238 : }

  0009a	5d		 pop	 ebp
  0009b	c2 0c 00	 ret	 12			; 0000000cH
$LN9@SkillRecov:

; 5210 : 		return;
; 5211 : 	}
; 5212 : 
; 5213 : 	lpTargetObj->iShield += (lpObj->Energy / 4)+lpObj->Level;

  0009e	0f b7 8b d6 00
	00 00		 movzx	 ecx, WORD PTR [ebx+214]
  000a5	0f bf 83 96 00
	00 00		 movsx	 eax, WORD PTR [ebx+150]
  000ac	c1 e9 02	 shr	 ecx, 2
  000af	03 cf		 add	 ecx, edi
  000b1	03 c1		 add	 eax, ecx

; 5214 : 
; 5215 : 	if( lpTargetObj->iShield > lpTargetObj->iMaxShield+lpTargetObj->iAddShield )

  000b3	3b c2		 cmp	 eax, edx
  000b5	0f 4f c2	 cmovg	 eax, edx

; 5216 : 	{
; 5217 : 		lpTargetObj->iShield = lpTargetObj->iMaxShield+lpTargetObj->iAddShield;
; 5218 : 	}
; 5219 : 
; 5220 : 	if( lpTargetObj->Type == OBJ_USER )

  000b8	80 7e 50 01	 cmp	 BYTE PTR [esi+80], 1
  000bc	89 86 2c 01 00
	00		 mov	 DWORD PTR [esi+300], eax
  000c2	0f 85 a6 00 00
	00		 jne	 $LN24@SkillRecov

; 5221 : 	{
; 5222 : 
; 5223 : 		GCReFillSend(lpTargetObj->m_Index,(WORD)lpTargetObj->Life,0xFF,0,lpTargetObj->iShield);

  000c8	0f b7 c0	 movzx	 eax, ax
  000cb	50		 push	 eax
  000cc	f3 0f 2c 86 d8
	00 00 00	 cvttss2si eax, DWORD PTR [esi+216]
  000d4	6a 00		 push	 0
  000d6	68 ff 00 00 00	 push	 255			; 000000ffH
  000db	0f b7 c0	 movzx	 eax, ax
  000de	50		 push	 eax
  000df	ff 36		 push	 DWORD PTR [esi]
  000e1	e8 00 00 00 00	 call	 ?GCReFillSend@@YAXHGEEG@Z ; GCReFillSend

; 5224 : 		GCMagicAttackNumberSend(lpObj,AT_SKILL_RECOVERY,lpTargetObj->m_Index,skillSuccess);

  000e6	6a 01		 push	 1
  000e8	ff 36		 push	 DWORD PTR [esi]
  000ea	68 ea 00 00 00	 push	 234			; 000000eaH
  000ef	53		 push	 ebx
  000f0	e8 00 00 00 00	 call	 ?GCMagicAttackNumberSend@@YAXPAUOBJECTSTRUCT@@GHE@Z ; GCMagicAttackNumberSend
  000f5	b9 4b 00 00 00	 mov	 ecx, 75			; 0000004bH
  000fa	8d b3 48 0c 00
	00		 lea	 esi, DWORD PTR [ebx+3144]
  00100	83 c4 24	 add	 esp, 36			; 00000024H
  00103	89 4d 08	 mov	 DWORD PTR tv441[ebp], ecx
$LL4@SkillRecov:

; 5227 : 		{
; 5228 : 			if(lpObj->VpPlayer2[n].type == OBJ_MONSTER && lpObj->VpPlayer2[n].state != 0)

  00106	80 7e 04 02	 cmp	 BYTE PTR [esi+4], 2
  0010a	75 57		 jne	 SHORT $LN2@SkillRecov
  0010c	80 3e 00	 cmp	 BYTE PTR [esi], 0
  0010f	74 52		 je	 SHORT $LN2@SkillRecov

; 5229 : 			{
; 5230 : 				LPOBJ lpMonster = &gObj[lpObj->VpPlayer2[n].number];

  00111	0f bf 46 02	 movsx	 eax, WORD PTR [esi+2]
  00115	69 f8 40 27 00
	00		 imul	 edi, eax, 10048
  0011b	03 3d 00 00 00
	00		 add	 edi, DWORD PTR ?gObj@@3PAUOBJECTSTRUCT@@A ; gObj

; 5231 : 				if(lpMonster->m_iCurrentAI != 0)

  00121	83 bf d0 20 00
	00 00		 cmp	 DWORD PTR [edi+8400], 0
  00128	74 39		 je	 SHORT $LN2@SkillRecov

; 5232 : 				{
; 5233 : 					lpMonster->m_Agro.IncAgro(lpObj->m_Index,(lpObj->Energy / 5)/40);

  0012a	0f b7 8b d6 00
	00 00		 movzx	 ecx, WORD PTR [ebx+214]
  00131	b8 67 66 66 66	 mov	 eax, 1717986919		; 66666667H
  00136	f7 e9		 imul	 ecx
  00138	b8 67 66 66 66	 mov	 eax, 1717986919		; 66666667H
  0013d	d1 fa		 sar	 edx, 1
  0013f	8b ca		 mov	 ecx, edx
  00141	c1 e9 1f	 shr	 ecx, 31			; 0000001fH
  00144	03 ca		 add	 ecx, edx
  00146	f7 e9		 imul	 ecx
  00148	8d 8f ec 20 00
	00		 lea	 ecx, DWORD PTR [edi+8428]
  0014e	c1 fa 04	 sar	 edx, 4
  00151	8b c2		 mov	 eax, edx
  00153	c1 e8 1f	 shr	 eax, 31			; 0000001fH
  00156	03 c2		 add	 eax, edx
  00158	50		 push	 eax
  00159	ff 33		 push	 DWORD PTR [ebx]
  0015b	e8 00 00 00 00	 call	 ?IncAgro@TMonsterAIAgro@@QAEHHH@Z ; TMonsterAIAgro::IncAgro
  00160	8b 4d 08	 mov	 ecx, DWORD PTR tv441[ebp]
$LN2@SkillRecov:

; 5225 : 
; 5226 : 		for(int n = 0; n < MAX_VIEWPORT; n++)

  00163	83 c6 0c	 add	 esi, 12			; 0000000cH
  00166	83 e9 01	 sub	 ecx, 1
  00169	89 4d 08	 mov	 DWORD PTR tv441[ebp], ecx
  0016c	75 98		 jne	 SHORT $LL4@SkillRecov
$LN24@SkillRecov:
  0016e	5f		 pop	 edi
$LN3@SkillRecov:
  0016f	5e		 pop	 esi
  00170	5b		 pop	 ebx

; 5234 : 				}
; 5235 : 			}
; 5236 : 		}
; 5237 : 	}
; 5238 : }

  00171	5d		 pop	 ebp
  00172	c2 0c 00	 ret	 12			; 0000000cH
?SkillRecovery@CObjUseSkill@@QAEXHHPAVCMagicInf@@@Z ENDP ; CObjUseSkill::SkillRecovery
_TEXT	ENDS
; Function compile flags: /Ogtp
; File c:\users\michel\desktop\source\gameserver\source\objuseskill.cpp
;	COMDAT ?SkillBerserker@CObjUseSkill@@QAEHHPAVCMagicInf@@@Z
_TEXT	SEGMENT
_aIndex$ = 8						; size = 4
_lpMagic$ = 12						; size = 4
?SkillBerserker@CObjUseSkill@@QAEHHPAVCMagicInf@@@Z PROC ; CObjUseSkill::SkillBerserker, COMDAT
; _this$ = ecx

; 5145 : {

  00000	55		 push	 ebp
  00001	8b ec		 mov	 ebp, esp

; 5146 : 	if( OBJMAX_RANGE(aIndex) == FALSE )

  00003	8b 4d 08	 mov	 ecx, DWORD PTR _aIndex$[ebp]
  00006	85 c9		 test	 ecx, ecx
  00008	0f 88 c4 00 00
	00		 js	 $LN9@SkillBerse
  0000e	33 c0		 xor	 eax, eax
  00010	81 f9 eb 2c 00
	00		 cmp	 ecx, 11499		; 00002cebH
  00016	0f 9e c0	 setle	 al
  00019	85 c0		 test	 eax, eax
  0001b	0f 84 b1 00 00
	00		 je	 $LN9@SkillBerse

; 5149 : 	}
; 5150 : 
; 5151 : 	LPOBJ lpObj = &gObj[aIndex];
; 5152 : 
; 5153 : 	BuffSkillEffectInfo* lpInfo = g_BuffSkillEffect.GetEffect(lpMagic->m_Skill);

  00021	53		 push	 ebx
  00022	8b 5d 0c	 mov	 ebx, DWORD PTR _lpMagic$[ebp]
  00025	56		 push	 esi
  00026	69 f1 40 27 00
	00		 imul	 esi, ecx, 10048
  0002c	b9 00 00 00 00	 mov	 ecx, OFFSET ?g_BuffSkillEffect@@3VBuffSkillEffect@@A ; g_BuffSkillEffect
  00031	ff 73 08	 push	 DWORD PTR [ebx+8]
  00034	03 35 00 00 00
	00		 add	 esi, DWORD PTR ?gObj@@3PAUOBJECTSTRUCT@@A ; gObj
  0003a	e8 00 00 00 00	 call	 ?GetEffect@BuffSkillEffect@@QAEPAUBuffSkillEffectInfo@@H@Z ; BuffSkillEffect::GetEffect
  0003f	8b c8		 mov	 ecx, eax

; 5154 : 
; 5155 : 	if( !lpInfo )

  00041	85 c9		 test	 ecx, ecx
  00043	75 06		 jne	 SHORT $LN3@SkillBerse
  00045	5e		 pop	 esi
  00046	5b		 pop	 ebx

; 5180 : }

  00047	5d		 pop	 ebp
  00048	c2 08 00	 ret	 8
$LN3@SkillBerse:

; 5156 : 	{
; 5157 : 		return 0;
; 5158 : 	}
; 5159 : 
; 5160 : 	int iTime = lpInfo->m_Arg3 + lpObj->Energy / lpInfo->m_Arg4;

  0004b	0f b7 86 d6 00
	00 00		 movzx	 eax, WORD PTR [esi+214]

; 5161 : 
; 5162 : 	if( iTime > lpInfo->m_Arg5 )

  00052	f3 0f 10 51 14	 movss	 xmm2, DWORD PTR [ecx+20]
  00057	66 0f 6e c8	 movd	 xmm1, eax
  0005b	0f 5b c9	 cvtdq2ps xmm1, xmm1
  0005e	0f 28 c1	 movaps	 xmm0, xmm1
  00061	f3 0f 5e 41 10	 divss	 xmm0, DWORD PTR [ecx+16]
  00066	f3 0f 58 41 0c	 addss	 xmm0, DWORD PTR [ecx+12]
  0006b	f3 0f 2c c0	 cvttss2si eax, xmm0
  0006f	66 0f 6e c0	 movd	 xmm0, eax
  00073	0f 5b c0	 cvtdq2ps xmm0, xmm0
  00076	0f 2f c2	 comiss	 xmm0, xmm2
  00079	76 04		 jbe	 SHORT $LN4@SkillBerse

; 5163 : 	{
; 5164 : 		iTime = lpInfo->m_Arg5;

  0007b	f3 0f 2c c2	 cvttss2si eax, xmm2
$LN4@SkillBerse:

; 5165 : 	}
; 5166 : 
; 5167 : 	int iIncDmg = lpObj->Energy / lpInfo->m_Arg1;

  0007f	f3 0f 5e 49 04	 divss	 xmm1, DWORD PTR [ecx+4]
  00084	57		 push	 edi
  00085	f3 0f 2c f9	 cvttss2si edi, xmm1

; 5168 : 
; 5169 : 	if( iIncDmg > lpInfo->m_Arg2 )

  00089	f3 0f 10 49 08	 movss	 xmm1, DWORD PTR [ecx+8]
  0008e	66 0f 6e c7	 movd	 xmm0, edi
  00092	0f 5b c0	 cvtdq2ps xmm0, xmm0
  00095	0f 2f c1	 comiss	 xmm0, xmm1
  00098	76 04		 jbe	 SHORT $LN5@SkillBerse

; 5170 : 	{
; 5171 : 		iIncDmg = lpInfo->m_Arg2;

  0009a	f3 0f 2c f9	 cvttss2si edi, xmm1
$LN5@SkillBerse:

; 5172 : 	}
; 5173 : 
; 5174 : 	int iDecDef = iIncDmg / 2;
; 5175 : 
; 5176 : 	gObjAddBuffEffect(lpObj,BUFF_BERSERKER,ADD_OPTION_BERSERKMANA_PERC,iIncDmg,ADD_OPTION_BERSERKLIFE_PERC,iDecDef,iTime);

  0009e	50		 push	 eax
  0009f	8b c7		 mov	 eax, edi
  000a1	99		 cdq
  000a2	2b c2		 sub	 eax, edx
  000a4	d1 f8		 sar	 eax, 1
  000a6	50		 push	 eax
  000a7	6a 20		 push	 32			; 00000020H
  000a9	57		 push	 edi
  000aa	6a 1f		 push	 31			; 0000001fH
  000ac	6a 51		 push	 81			; 00000051H
  000ae	56		 push	 esi
  000af	e8 00 00 00 00	 call	 ?gObjAddBuffEffect@@YA_NPAUOBJECTSTRUCT@@HEHEHH@Z ; gObjAddBuffEffect

; 5177 : 	GCMagicAttackNumberSend(lpObj,lpMagic->m_Skill,lpObj->m_Index,TRUE);

  000b4	0f b7 43 08	 movzx	 eax, WORD PTR [ebx+8]
  000b8	6a 01		 push	 1
  000ba	ff 36		 push	 DWORD PTR [esi]
  000bc	50		 push	 eax
  000bd	56		 push	 esi
  000be	e8 00 00 00 00	 call	 ?GCMagicAttackNumberSend@@YAXPAUOBJECTSTRUCT@@GHE@Z ; GCMagicAttackNumberSend
  000c3	83 c4 2c	 add	 esp, 44			; 0000002cH

; 5178 : 
; 5179 : return true;

  000c6	b8 01 00 00 00	 mov	 eax, 1
  000cb	5f		 pop	 edi
  000cc	5e		 pop	 esi
  000cd	5b		 pop	 ebx

; 5180 : }

  000ce	5d		 pop	 ebp
  000cf	c2 08 00	 ret	 8
$LN9@SkillBerse:

; 5147 : 	{
; 5148 : 		return false;

  000d2	33 c0		 xor	 eax, eax

; 5180 : }

  000d4	5d		 pop	 ebp
  000d5	c2 08 00	 ret	 8
?SkillBerserker@CObjUseSkill@@QAEHHPAVCMagicInf@@@Z ENDP ; CObjUseSkill::SkillBerserker
_TEXT	ENDS
; Function compile flags: /Ogtp
; File c:\users\michel\desktop\source\gameserver\source\objuseskill.cpp
;	COMDAT ?SkillLagle@CObjUseSkill@@QAEHHPAVCMagicInf@@EEHH@Z
_TEXT	SEGMENT
_this$1$ = -4						; size = 4
_aIndex$ = 8						; size = 4
_lpMagic$ = 12						; size = 4
_x$ = 16						; size = 1
_y$ = 20						; size = 1
_aTargetIndex$ = 24					; size = 4
_type$ = 28						; size = 4
?SkillLagle@CObjUseSkill@@QAEHHPAVCMagicInf@@EEHH@Z PROC ; CObjUseSkill::SkillLagle, COMDAT
; _this$ = ecx

; 5583 : {

  00000	55		 push	 ebp
  00001	8b ec		 mov	 ebp, esp
  00003	51		 push	 ecx

; 5584 : 	LPOBJ lpObj = &gObj[aIndex];

  00004	8b 45 08	 mov	 eax, DWORD PTR _aIndex$[ebp]
  00007	53		 push	 ebx
  00008	69 d8 40 27 00
	00		 imul	 ebx, eax, 10048
  0000e	56		 push	 esi

; 5585 : 	int bSuccess = FALSE;
; 5586 : 
; 5587 : 	if( type == 59 )

  0000f	8b 75 0c	 mov	 esi, DWORD PTR _lpMagic$[ebp]
  00012	57		 push	 edi
  00013	8b 7d 18	 mov	 edi, DWORD PTR _aTargetIndex$[ebp]
  00016	03 1d 00 00 00
	00		 add	 ebx, DWORD PTR ?gObj@@3PAUOBJECTSTRUCT@@A ; gObj
  0001c	83 7d 1c 3b	 cmp	 DWORD PTR _type$[ebp], 59 ; 0000003bH
  00020	89 4d fc	 mov	 DWORD PTR _this$1$[ebp], ecx
  00023	75 14		 jne	 SHORT $LN2@SkillLagle

; 5588 : 	{
; 5589 : 		GCMagicAttackNumberSend(lpObj,lpMagic->m_Skill,aTargetIndex,TRUE);

  00025	0f b7 46 08	 movzx	 eax, WORD PTR [esi+8]
  00029	6a 01		 push	 1
  0002b	57		 push	 edi
  0002c	50		 push	 eax
  0002d	53		 push	 ebx
  0002e	e8 00 00 00 00	 call	 ?GCMagicAttackNumberSend@@YAXPAUOBJECTSTRUCT@@GHE@Z ; GCMagicAttackNumberSend
  00033	8b 45 08	 mov	 eax, DWORD PTR _aIndex$[ebp]
  00036	83 c4 10	 add	 esp, 16			; 00000010H
$LN2@SkillLagle:

; 5590 : 	}
; 5591 : 
; 5592 : 	bSuccess = SkillAreaMonsterAttack(aIndex,lpMagic,x,y,aTargetIndex,3,1,0);

  00039	8b 4d fc	 mov	 ecx, DWORD PTR _this$1$[ebp]
  0003c	6a 00		 push	 0
  0003e	6a 01		 push	 1
  00040	6a 03		 push	 3
  00042	57		 push	 edi
  00043	ff 75 14	 push	 DWORD PTR _y$[ebp]
  00046	ff 75 10	 push	 DWORD PTR _x$[ebp]
  00049	56		 push	 esi
  0004a	50		 push	 eax
  0004b	e8 00 00 00 00	 call	 ?SkillAreaMonsterAttack@CObjUseSkill@@QAEHHPAVCMagicInf@@EEHHHH@Z ; CObjUseSkill::SkillAreaMonsterAttack
  00050	8b f0		 mov	 esi, eax

; 5593 : 
; 5594 : 	if( type >= 59 && type < 64 && OBJMAX_RANGE(aTargetIndex) )

  00052	8b 45 1c	 mov	 eax, DWORD PTR _type$[ebp]
  00055	8d 48 c5	 lea	 ecx, DWORD PTR [eax-59]
  00058	83 f9 04	 cmp	 ecx, 4
  0005b	77 44		 ja	 SHORT $LN7@SkillLagle
  0005d	85 ff		 test	 edi, edi
  0005f	78 40		 js	 SHORT $LN7@SkillLagle
  00061	33 c9		 xor	 ecx, ecx
  00063	81 ff eb 2c 00
	00		 cmp	 edi, 11499		; 00002cebH
  00069	0f 9e c1	 setle	 cl
  0006c	85 c9		 test	 ecx, ecx
  0006e	74 31		 je	 SHORT $LN7@SkillLagle

; 5595 : 	{
; 5596 : 		gObjAddMsgSendDelay(lpObj,59,aTargetIndex,1000,((((x&0xFF)&0xFF | ((y&0xFF)&0xFF)<<8)&0xFFFF)&0xFFFF)&0xFFFF | (((type+1)&0xFFFF)&0xFFFF)<<16);

  00070	8d 48 01	 lea	 ecx, DWORD PTR [eax+1]
  00073	8b 45 14	 mov	 eax, DWORD PTR _y$[ebp]
  00076	c1 e1 10	 shl	 ecx, 16			; 00000010H
  00079	0f b6 c0	 movzx	 eax, al
  0007c	81 e1 00 00 ff
	ff		 and	 ecx, -65536		; ffff0000H
  00082	c1 e0 08	 shl	 eax, 8
  00085	0b c8		 or	 ecx, eax
  00087	8b 45 10	 mov	 eax, DWORD PTR _x$[ebp]
  0008a	0f b6 c0	 movzx	 eax, al
  0008d	0b c8		 or	 ecx, eax
  0008f	51		 push	 ecx
  00090	68 e8 03 00 00	 push	 1000			; 000003e8H
  00095	57		 push	 edi
  00096	6a 3b		 push	 59			; 0000003bH
  00098	53		 push	 ebx
  00099	e8 00 00 00 00	 call	 ?gObjAddMsgSendDelay@@YAXPAUOBJECTSTRUCT@@HHHH@Z ; gObjAddMsgSendDelay
  0009e	83 c4 14	 add	 esp, 20			; 00000014H
$LN7@SkillLagle:

; 5597 : 	}
; 5598 : 
; 5599 : return bSuccess;

  000a1	5f		 pop	 edi
  000a2	8b c6		 mov	 eax, esi
  000a4	5e		 pop	 esi
  000a5	5b		 pop	 ebx

; 5600 : }

  000a6	8b e5		 mov	 esp, ebp
  000a8	5d		 pop	 ebp
  000a9	c2 18 00	 ret	 24			; 00000018H
?SkillLagle@CObjUseSkill@@QAEHHPAVCMagicInf@@EEHH@Z ENDP ; CObjUseSkill::SkillLagle
_TEXT	ENDS
; Function compile flags: /Ogtp
; File c:\users\michel\desktop\source\gameserver\source\objuseskill.cpp
;	COMDAT ?SkillAreaMonsterAttack@CObjUseSkill@@QAEHHPAVCMagicInf@@EEHHHH@Z
_TEXT	SEGMENT
_DuelIndex$1$ = -32					; size = 4
_nMaxCount$1$ = -28					; size = 4
_nMinCount$1$ = -24					; size = 4
tv646 = -20						; size = 4
tv645 = -16						; size = 4
_nHitCount$1$ = -12					; size = 4
_bAttack$1$ = -8					; size = 4
_bRet$1$ = -4						; size = 4
_lpObj$1$ = 8						; size = 4
_aIndex$ = 8						; size = 4
_lpMagic$ = 12						; size = 4
tv635 = 16						; size = 4
_x$ = 16						; size = 1
tv650 = 20						; size = 4
_y$ = 20						; size = 1
_aTargetIndex$ = 24					; size = 4
_aDistance$ = 28					; size = 4
_bPVP$ = 32						; size = 4
_nDelay$ = 36						; size = 4
?SkillAreaMonsterAttack@CObjUseSkill@@QAEHHPAVCMagicInf@@EEHHHH@Z PROC ; CObjUseSkill::SkillAreaMonsterAttack, COMDAT
; _this$ = ecx

; 5603 : {

  00000	55		 push	 ebp
  00001	8b ec		 mov	 ebp, esp
  00003	83 ec 20	 sub	 esp, 32			; 00000020H
  00006	53		 push	 ebx

; 5604 : 	LPOBJ lpObj = &gObj[aIndex];

  00007	69 5d 08 40 27
	00 00		 imul	 ebx, DWORD PTR _aIndex$[ebp], 10048
  0000e	56		 push	 esi
  0000f	57		 push	 edi
  00010	8b f9		 mov	 edi, ecx

; 5605 : 	int bRet = FALSE;

  00012	c7 45 fc 00 00
	00 00		 mov	 DWORD PTR _bRet$1$[ebp], 0

; 5606 : 	int count = 0;
; 5607 : 	int tObjNum;
; 5608 : 	int DuelIndex = lpObj->m_iDuelUser;
; 5609 : 	int nHitCount = 0;
; 5610 : 	int bAttack = FALSE;
; 5611 : 	int nMinCount = 4;

  00019	c7 45 e8 04 00
	00 00		 mov	 DWORD PTR _nMinCount$1$[ebp], 4
  00020	03 1d 00 00 00
	00		 add	 ebx, DWORD PTR ?gObj@@3PAUOBJECTSTRUCT@@A ; gObj
  00026	89 5d 08	 mov	 DWORD PTR _lpObj$1$[ebp], ebx

; 5612 : 	int nMaxCount = 8;

  00029	c7 45 e4 08 00
	00 00		 mov	 DWORD PTR _nMaxCount$1$[ebp], 8
  00030	8b 83 50 12 00
	00		 mov	 eax, DWORD PTR [ebx+4688]
  00036	89 45 e0	 mov	 DWORD PTR _DuelIndex$1$[ebp], eax
  00039	33 c0		 xor	 eax, eax
  0003b	89 45 f4	 mov	 DWORD PTR _nHitCount$1$[ebp], eax
  0003e	89 45 f8	 mov	 DWORD PTR _bAttack$1$[ebp], eax

; 5613 : 
; 5614 : 	if( lpMagic->m_Skill == AT_SKILL_GIGANTICSTORM )

  00041	8b 45 0c	 mov	 eax, DWORD PTR _lpMagic$[ebp]
  00044	8b 40 08	 mov	 eax, DWORD PTR [eax+8]
  00047	3d ed 00 00 00	 cmp	 eax, 237		; 000000edH
  0004c	75 0e		 jne	 SHORT $LN7@SkillAreaM

; 5615 : 	{
; 5616 : 		nMinCount = 8;

  0004e	c7 45 e8 08 00
	00 00		 mov	 DWORD PTR _nMinCount$1$[ebp], 8

; 5617 : 		nMaxCount = 12;

  00055	c7 45 e4 0c 00
	00 00		 mov	 DWORD PTR _nMaxCount$1$[ebp], 12 ; 0000000cH
$LN7@SkillAreaM:

; 5618 : 	}
; 5619 : 
; 5620 : 	int iSkillDistance = MagicDamageC.GetSkillDistance(lpMagic->m_Skill);

  0005c	50		 push	 eax
  0005d	b9 00 00 00 00	 mov	 ecx, OFFSET ?MagicDamageC@@3VCMagicDamage@@A ; MagicDamageC
  00062	e8 00 00 00 00	 call	 ?GetSkillDistance@CMagicDamage@@QAEHH@Z ; CMagicDamage::GetSkillDistance

; 5621 : 
; 5622 : 	if( CalDistance(lpObj->X,lpObj->Y,x,y) <= iSkillDistance )

  00067	0f b6 4d 10	 movzx	 ecx, BYTE PTR _x$[ebp]
  0006b	8b f0		 mov	 esi, eax
  0006d	0f b6 45 14	 movzx	 eax, BYTE PTR _y$[ebp]
  00071	50		 push	 eax
  00072	89 45 ec	 mov	 DWORD PTR tv646[ebp], eax
  00075	0f b6 83 21 01
	00 00		 movzx	 eax, BYTE PTR [ebx+289]
  0007c	51		 push	 ecx
  0007d	50		 push	 eax
  0007e	0f b6 83 20 01
	00 00		 movzx	 eax, BYTE PTR [ebx+288]
  00085	89 4d f0	 mov	 DWORD PTR tv645[ebp], ecx
  00088	8b cf		 mov	 ecx, edi
  0008a	50		 push	 eax
  0008b	e8 00 00 00 00	 call	 ?CalDistance@CObjUseSkill@@QAEHHHHH@Z ; CObjUseSkill::CalDistance
  00090	3b c6		 cmp	 eax, esi
  00092	0f 8f 28 03 00
	00		 jg	 $LN55@SkillAreaM

; 5618 : 	}
; 5619 : 
; 5620 : 	int iSkillDistance = MagicDamageC.GetSkillDistance(lpMagic->m_Skill);

  00098	8b 0d 00 00 00
	00		 mov	 ecx, DWORD PTR ?gObj@@3PAUOBJECTSTRUCT@@A ; gObj
  0009e	8b f3		 mov	 esi, ebx
  000a0	c7 45 14 4b 00
	00 00		 mov	 DWORD PTR tv650[ebp], 75 ; 0000004bH
  000a7	ba 4b 00 00 00	 mov	 edx, 75			; 0000004bH
  000ac	8d 86 4c 0c 00
	00		 lea	 eax, DWORD PTR [esi+3148]
  000b2	89 45 10	 mov	 DWORD PTR tv635[ebp], eax
  000b5	eb 03		 jmp	 SHORT $LN2@SkillAreaM
$LL67@SkillAreaM:
  000b7	8b 45 10	 mov	 eax, DWORD PTR tv635[ebp]
$LN2@SkillAreaM:

; 5623 : 	{
; 5624 : 		while( TRUE )
; 5625 : 		{
; 5626 : 			if(lpObj->VpPlayer2[count].state != 0)

  000ba	80 78 fc 00	 cmp	 BYTE PTR [eax-4], 0
  000be	74 7d		 je	 SHORT $LN65@SkillAreaM

; 5627 : 			{
; 5628 : 				tObjNum = lpObj->VpPlayer2[count].number;

  000c0	0f bf 58 fe	 movsx	 ebx, WORD PTR [eax-2]

; 5629 : 
; 5630 : 				if( tObjNum >= 0 )

  000c4	85 db		 test	 ebx, ebx
  000c6	78 75		 js	 SHORT $LN65@SkillAreaM

; 5631 : 				{
; 5632 : 					int EnableAttack = 0;
; 5633 : 
; 5634 : 					if(lpObj->VpPlayer2[count].type == OBJ_MONSTER && gObj[tObjNum].m_RecallMon < 0)

  000c8	8a 10		 mov	 dl, BYTE PTR [eax]
  000ca	80 fa 02	 cmp	 dl, 2
  000cd	75 14		 jne	 SHORT $LN11@SkillAreaM
  000cf	69 c3 40 27 00
	00		 imul	 eax, ebx, 10048
  000d5	83 bc 08 30 06
	00 00 00	 cmp	 DWORD PTR [eax+ecx+1584], 0
  000dd	0f 8c ba 00 00
	00		 jl	 $LN53@SkillAreaM
$LN11@SkillAreaM:

; 5635 : 					{
; 5636 : 						EnableAttack = 1;
; 5637 : 					}
; 5638 : 					else if( (tObjNum == aTargetIndex && bPVP == 1) || DuelIndex ==tObjNum )

  000e3	3b 5d 18	 cmp	 ebx, DWORD PTR _aTargetIndex$[ebp]
  000e6	75 0a		 jne	 SHORT $LN16@SkillAreaM
  000e8	83 7d 20 01	 cmp	 DWORD PTR _bPVP$[ebp], 1
  000ec	0f 84 ab 00 00
	00		 je	 $LN53@SkillAreaM
$LN16@SkillAreaM:
  000f2	39 5d e0	 cmp	 DWORD PTR _DuelIndex$1$[ebp], ebx
  000f5	0f 84 a2 00 00
	00		 je	 $LN53@SkillAreaM

; 5639 : 					{
; 5640 : 						EnableAttack = 1;
; 5641 : 					}
; 5642 : #if (GS_CASTLE == 1)
; 5643 : 					else if(lpObj->VpPlayer2[count].type != OBJ_NPC && gObj[tObjNum].MapNumber == MAP_INDEX_CASTLESIEGE && g_CastleSiege.GetCastleState() == 7)

  000fb	80 fa 03	 cmp	 dl, 3
  000fe	74 5c		 je	 SHORT $LN17@SkillAreaM
  00100	69 f3 40 27 00
	00		 imul	 esi, ebx, 10048
  00106	80 bc 0e 23 01
	00 00 1e	 cmp	 BYTE PTR [esi+ecx+291], 30 ; 0000001eH
  0010e	75 49		 jne	 SHORT $LN63@SkillAreaM
  00110	b9 00 00 00 00	 mov	 ecx, OFFSET ?g_CastleSiege@@3VCCastleSiege@@A ; g_CastleSiege
  00115	e8 00 00 00 00	 call	 ?GetCastleState@CCastleSiege@@QAEHXZ ; CCastleSiege::GetCastleState

; 5644 : 					{
; 5645 : 						if( lpObj->m_btCsJoinSide != gObj[tObjNum].m_btCsJoinSide )

  0011a	8b 0d 00 00 00
	00		 mov	 ecx, DWORD PTR ?gObj@@3PAUOBJECTSTRUCT@@A ; gObj
  00120	83 f8 07	 cmp	 eax, 7
  00123	75 34		 jne	 SHORT $LN63@SkillAreaM
  00125	8b 45 08	 mov	 eax, DWORD PTR _lpObj$1$[ebp]
  00128	8a 80 5a 20 00
	00		 mov	 al, BYTE PTR [eax+8282]
  0012e	3a 84 0e 5a 20
	00 00		 cmp	 al, BYTE PTR [esi+ecx+8282]
  00135	75 66		 jne	 SHORT $LN53@SkillAreaM
$LN62@SkillAreaM:
  00137	8b 75 08	 mov	 esi, DWORD PTR _lpObj$1$[ebp]
$LN59@SkillAreaM:
  0013a	8b 55 14	 mov	 edx, DWORD PTR tv650[ebp]
$LN65@SkillAreaM:
  0013d	8b 45 fc	 mov	 eax, DWORD PTR _bRet$1$[ebp]
$LN23@SkillAreaM:

; 5754 : 						}
; 5755 : 					}
; 5756 : 				}
; 5757 : 			}
; 5758 : 
; 5759 : 			count++;

  00140	83 45 10 0c	 add	 DWORD PTR tv635[ebp], 12 ; 0000000cH

; 5760 : 
; 5761 : 			if( count > (MAX_VIEWPORT-1) )

  00144	83 ea 01	 sub	 edx, 1
  00147	89 55 14	 mov	 DWORD PTR tv650[ebp], edx
  0014a	0f 85 67 ff ff
	ff		 jne	 $LL67@SkillAreaM
  00150	5f		 pop	 edi
  00151	5e		 pop	 esi
  00152	5b		 pop	 ebx

; 5768 : }

  00153	8b e5		 mov	 esp, ebp
  00155	5d		 pop	 ebp
  00156	c2 20 00	 ret	 32			; 00000020H
$LN63@SkillAreaM:
  00159	8b 75 08	 mov	 esi, DWORD PTR _lpObj$1$[ebp]
$LN17@SkillAreaM:

; 5646 : 							EnableAttack = 1;
; 5647 : 					}	
; 5648 : #endif
; 5649 : 					else
; 5650 : 					{
; 5651 : 						int CallMonIndex = gObj[tObjNum].m_Index;

  0015c	69 c3 40 27 00
	00		 imul	 eax, ebx, 10048

; 5652 : 	
; 5653 : 						if(gObj[tObjNum].Type == OBJ_MONSTER && gObj[tObjNum].m_RecallMon >= 0)

  00162	80 7c 08 50 02	 cmp	 BYTE PTR [eax+ecx+80], 2
  00167	8b 14 08	 mov	 edx, DWORD PTR [eax+ecx]
  0016a	75 14		 jne	 SHORT $LN20@SkillAreaM
  0016c	8b 84 08 30 06
	00 00		 mov	 eax, DWORD PTR [eax+ecx+1584]
  00173	85 c0		 test	 eax, eax
  00175	78 09		 js	 SHORT $LN20@SkillAreaM

; 5654 : 						{
; 5655 : 							CallMonIndex = gObj[gObj[tObjNum].m_RecallMon].m_Index;

  00177	69 c0 40 27 00
	00		 imul	 eax, eax, 10048
  0017d	8b 14 08	 mov	 edx, DWORD PTR [eax+ecx]
$LN20@SkillAreaM:

; 5656 : 						}
; 5657 : 	
; 5658 : 						if(gObjTargetGuildWarCheck(lpObj,&gObj[CallMonIndex])==1)

  00180	69 c2 40 27 00
	00		 imul	 eax, edx, 10048
  00186	03 c1		 add	 eax, ecx
  00188	50		 push	 eax
  00189	56		 push	 esi
  0018a	e8 00 00 00 00	 call	 ?gObjTargetGuildWarCheck@@YAHPAUOBJECTSTRUCT@@0@Z ; gObjTargetGuildWarCheck
  0018f	8b 0d 00 00 00
	00		 mov	 ecx, DWORD PTR ?gObj@@3PAUOBJECTSTRUCT@@A ; gObj
  00195	83 c4 08	 add	 esp, 8
  00198	83 f8 01	 cmp	 eax, 1
  0019b	75 9d		 jne	 SHORT $LN59@SkillAreaM
$LN53@SkillAreaM:

; 5659 : 						{
; 5660 : 							EnableAttack = 1;
; 5661 : 						}
; 5662 : 					}
; 5663 : 
; 5664 : 					if( EnableAttack != 0 )
; 5665 : 					{
; 5666 : 						if( gObj[tObjNum].X >= (x -aDistance) &&
; 5667 : 							gObj[tObjNum].X <= (x +aDistance) &&
; 5668 : 							gObj[tObjNum].Y >= (y -aDistance) &&

  0019d	8b 45 f0	 mov	 eax, DWORD PTR tv645[ebp]
  001a0	2b 45 1c	 sub	 eax, DWORD PTR _aDistance$[ebp]
  001a3	69 fb 40 27 00
	00		 imul	 edi, ebx, 10048
  001a9	0f b6 b4 0f 20
	01 00 00	 movzx	 esi, BYTE PTR [edi+ecx+288]
  001b1	8d 14 0f	 lea	 edx, DWORD PTR [edi+ecx]
  001b4	3b f0		 cmp	 esi, eax
  001b6	0f 8c 7b ff ff
	ff		 jl	 $LN62@SkillAreaM
  001bc	8b 45 1c	 mov	 eax, DWORD PTR _aDistance$[ebp]
  001bf	03 45 f0	 add	 eax, DWORD PTR tv645[ebp]
  001c2	8b 0d 00 00 00
	00		 mov	 ecx, DWORD PTR ?gObj@@3PAUOBJECTSTRUCT@@A ; gObj
  001c8	3b f0		 cmp	 esi, eax
  001ca	0f 8f 67 ff ff
	ff		 jg	 $LN62@SkillAreaM
  001d0	8b 45 ec	 mov	 eax, DWORD PTR tv646[ebp]
  001d3	0f b6 b2 21 01
	00 00		 movzx	 esi, BYTE PTR [edx+289]
  001da	2b 45 1c	 sub	 eax, DWORD PTR _aDistance$[ebp]
  001dd	3b f0		 cmp	 esi, eax
  001df	0f 8c 52 ff ff
	ff		 jl	 $LN62@SkillAreaM
  001e5	8b 45 1c	 mov	 eax, DWORD PTR _aDistance$[ebp]
  001e8	03 45 ec	 add	 eax, DWORD PTR tv646[ebp]
  001eb	3b f0		 cmp	 esi, eax

; 5669 : 							gObj[tObjNum].Y <= (y +aDistance) )
; 5670 : 						{
; 5671 : 							gObj[tObjNum].lpAttackObj = lpObj;

  001ed	8b 75 08	 mov	 esi, DWORD PTR _lpObj$1$[ebp]
  001f0	0f 8f 44 ff ff
	ff		 jg	 $LN59@SkillAreaM
  001f6	89 b2 b4 05 00
	00		 mov	 DWORD PTR [edx+1460], esi

; 5672 : 							nHitCount++;

  001fc	8b 55 f4	 mov	 edx, DWORD PTR _nHitCount$1$[ebp]
  001ff	42		 inc	 edx
  00200	89 55 f4	 mov	 DWORD PTR _nHitCount$1$[ebp], edx

; 5673 : 	
; 5674 : 							if( nHitCount > nMinCount )

  00203	3b 55 e8	 cmp	 edx, DWORD PTR _nMinCount$1$[ebp]
  00206	7e 13		 jle	 SHORT $LN24@SkillAreaM

; 5675 : 							{
; 5676 : 								if(rand()%2)

  00208	e8 00 00 00 00	 call	 _rand
  0020d	25 01 00 00 80	 and	 eax, -2147483647	; 80000001H
  00212	79 05		 jns	 SHORT $LN69@SkillAreaM
  00214	48		 dec	 eax
  00215	83 c8 fe	 or	 eax, -2			; fffffffeH
  00218	40		 inc	 eax
$LN69@SkillAreaM:
  00219	74 0a		 je	 SHORT $LN68@SkillAreaM
$LN24@SkillAreaM:

; 5677 : 								{
; 5678 : 									bAttack = TRUE;

  0021b	ba 01 00 00 00	 mov	 edx, 1
  00220	89 55 f8	 mov	 DWORD PTR _bAttack$1$[ebp], edx

; 5679 : 								}
; 5680 : 							}
; 5681 : 							else

  00223	eb 03		 jmp	 SHORT $LN25@SkillAreaM
$LN68@SkillAreaM:
  00225	8b 55 f8	 mov	 edx, DWORD PTR _bAttack$1$[ebp]
$LN25@SkillAreaM:

; 5682 : 							{
; 5683 : 								bAttack = TRUE;
; 5684 : 							}
; 5685 : 	
; 5686 : 							if( nHitCount > nMaxCount )

  00228	8b 45 f4	 mov	 eax, DWORD PTR _nHitCount$1$[ebp]
  0022b	3b 45 e4	 cmp	 eax, DWORD PTR _nMaxCount$1$[ebp]
  0022e	7e 0a		 jle	 SHORT $LN27@SkillAreaM

; 5687 : 							{
; 5688 : 								bAttack = FALSE;

  00230	33 c0		 xor	 eax, eax
  00232	89 45 f8	 mov	 DWORD PTR _bAttack$1$[ebp], eax

; 5689 : 							}
; 5690 : 
; 5691 : 							if( bAttack == TRUE )

  00235	e9 70 01 00 00	 jmp	 $LN30@SkillAreaM
$LN27@SkillAreaM:
  0023a	83 fa 01	 cmp	 edx, 1
  0023d	0f 85 67 01 00
	00		 jne	 $LN30@SkillAreaM

; 5692 : 							{
; 5693 : 								if( nDelay == 0 )

  00243	83 7d 24 00	 cmp	 DWORD PTR _nDelay$[ebp], 0
  00247	0f 85 d1 00 00
	00		 jne	 $LN29@SkillAreaM

; 5694 : 								{
; 5695 : 									if( lpMagic->m_Skill == AT_SKILL_RAGEFIGHTER_DRAGONLORE ||

  0024d	8b 4d 0c	 mov	 ecx, DWORD PTR _lpMagic$[ebp]
  00250	8b 41 08	 mov	 eax, DWORD PTR [ecx+8]
  00253	3d 08 01 00 00	 cmp	 eax, 264		; 00000108H
  00258	74 29		 je	 SHORT $LN33@SkillAreaM
  0025a	3d 0e 01 00 00	 cmp	 eax, 270		; 0000010eH
  0025f	74 29		 je	 SHORT $LN54@SkillAreaM

; 5727 : 											}
; 5728 : 										}
; 5729 : 									}
; 5730 : 									else
; 5731 : 									{
; 5732 : 										gObjAttack(lpObj,&gObj[tObjNum],lpMagic,TRUE,FALSE,0,0,0,0);

  00261	a1 00 00 00 00	 mov	 eax, DWORD PTR ?gObj@@3PAUOBJECTSTRUCT@@A ; gObj
  00266	6a 00		 push	 0
  00268	6a 00		 push	 0
  0026a	6a 00		 push	 0
  0026c	6a 00		 push	 0
  0026e	6a 00		 push	 0
  00270	52		 push	 edx
  00271	51		 push	 ecx
  00272	03 c7		 add	 eax, edi
  00274	50		 push	 eax
  00275	56		 push	 esi
  00276	e8 00 00 00 00	 call	 ?gObjAttack@@YAXPAUOBJECTSTRUCT@@0PAVCMagicInf@@HEHHEE@Z ; gObjAttack
  0027b	83 c4 24	 add	 esp, 36			; 00000024H
  0027e	e9 27 01 00 00	 jmp	 $LN30@SkillAreaM
$LN33@SkillAreaM:

; 5696 : 										lpMagic->m_Skill == AT_SKILL_PHOENIXSHOT )
; 5697 : 									{
; 5698 : 										if( lpMagic->m_Skill == AT_SKILL_PHOENIXSHOT && rand()%100 < 10 )

  00283	3d 0e 01 00 00	 cmp	 eax, 270		; 0000010eH
  00288	75 50		 jne	 SHORT $LN34@SkillAreaM
$LN54@SkillAreaM:
  0028a	e8 00 00 00 00	 call	 _rand
  0028f	99		 cdq
  00290	b9 64 00 00 00	 mov	 ecx, 100		; 00000064H
  00295	f7 f9		 idiv	 ecx
  00297	83 fa 0a	 cmp	 edx, 10			; 0000000aH
  0029a	7d 3b		 jge	 SHORT $LN66@SkillAreaM

; 5699 : 										{
; 5700 : 											int nEffectValue = 0;
; 5701 : 
; 5702 : 											if( gObj[tObjNum].Type == OBJ_MONSTER )

  0029c	8b 15 00 00 00
	00		 mov	 edx, DWORD PTR ?gObj@@3PAUOBJECTSTRUCT@@A ; gObj
  002a2	03 d7		 add	 edx, edi
  002a4	8a 4a 50	 mov	 cl, BYTE PTR [edx+80]
  002a7	80 f9 02	 cmp	 cl, 2
  002aa	75 07		 jne	 SHORT $LN35@SkillAreaM

; 5703 : 											{
; 5704 : 												nEffectValue = 50;

  002ac	b8 32 00 00 00	 mov	 eax, 50			; 00000032H
  002b1	eb 0d		 jmp	 SHORT $LN37@SkillAreaM
$LN35@SkillAreaM:

; 5705 : 											}
; 5706 : 											else if( gObj[tObjNum].Type == OBJ_USER )

  002b3	33 c0		 xor	 eax, eax
  002b5	80 f9 01	 cmp	 cl, 1
  002b8	b9 14 00 00 00	 mov	 ecx, 20			; 00000014H
  002bd	0f 44 c1	 cmove	 eax, ecx
$LN37@SkillAreaM:

; 5707 : 											{
; 5708 : 												nEffectValue = 20;
; 5709 : 											}
; 5710 : 											else
; 5711 : 											{
; 5712 : 												nEffectValue = 0;
; 5713 : 											}
; 5714 : 
; 5715 : 											gObjAddBuffEffect(&gObj[tObjNum],BUFF_DECREASE_DEFRATE,SUB_OPTION_SUCCESSFULBLOCKING,nEffectValue,0,0,10);

  002c0	6a 0a		 push	 10			; 0000000aH
  002c2	6a 00		 push	 0
  002c4	6a 00		 push	 0
  002c6	50		 push	 eax
  002c7	6a 4b		 push	 75			; 0000004bH
  002c9	68 84 00 00 00	 push	 132			; 00000084H
  002ce	52		 push	 edx
  002cf	e8 00 00 00 00	 call	 ?gObjAddBuffEffect@@YA_NPAUOBJECTSTRUCT@@HEHEHH@Z ; gObjAddBuffEffect
  002d4	83 c4 1c	 add	 esp, 28			; 0000001cH
$LN66@SkillAreaM:
  002d7	8b 4d 0c	 mov	 ecx, DWORD PTR _lpMagic$[ebp]
$LN34@SkillAreaM:

; 5716 : 										}
; 5717 : 
; 5718 : 										for(int i = 1; i <= 4; i++)

  002da	be 01 00 00 00	 mov	 esi, 1
  002df	90		 npad	 1
$LL6@SkillAreaM:

; 5719 : 										{
; 5720 : 											if( i == 1 )
; 5721 : 											{
; 5722 : 												gObjAttack(lpObj,&gObj[tObjNum],lpMagic,TRUE,TRUE,0,0,i,0);

  002e0	a1 00 00 00 00	 mov	 eax, DWORD PTR ?gObj@@3PAUOBJECTSTRUCT@@A ; gObj
  002e5	03 c7		 add	 eax, edi
  002e7	6a 00		 push	 0
  002e9	83 fe 01	 cmp	 esi, 1
  002ec	75 09		 jne	 SHORT $LN39@SkillAreaM
  002ee	56		 push	 esi
  002ef	6a 00		 push	 0
  002f1	6a 00		 push	 0
  002f3	56		 push	 esi
  002f4	56		 push	 esi

; 5723 : 											}
; 5724 : 											else

  002f5	eb 09		 jmp	 SHORT $LN70@SkillAreaM
$LN39@SkillAreaM:

; 5725 : 											{
; 5726 : 												gObjAttack(lpObj,&gObj[tObjNum],lpMagic,FALSE,TRUE,0,0,i,0);

  002f7	56		 push	 esi
  002f8	6a 00		 push	 0
  002fa	6a 00		 push	 0
  002fc	6a 01		 push	 1
  002fe	6a 00		 push	 0
$LN70@SkillAreaM:
  00300	51		 push	 ecx
  00301	50		 push	 eax
  00302	ff 75 08	 push	 DWORD PTR _lpObj$1$[ebp]
  00305	e8 00 00 00 00	 call	 ?gObjAttack@@YAXPAUOBJECTSTRUCT@@0PAVCMagicInf@@HEHHEE@Z ; gObjAttack
  0030a	8b 4d 0c	 mov	 ecx, DWORD PTR _lpMagic$[ebp]
  0030d	46		 inc	 esi
  0030e	83 c4 24	 add	 esp, 36			; 00000024H
  00311	83 fe 04	 cmp	 esi, 4
  00314	7e ca		 jle	 SHORT $LL6@SkillAreaM

; 5733 : 									}
; 5734 : 								}
; 5735 : 								else

  00316	8b 75 08	 mov	 esi, DWORD PTR _lpObj$1$[ebp]
  00319	e9 8c 00 00 00	 jmp	 $LN30@SkillAreaM
$LN29@SkillAreaM:

; 5736 : 								{
; 5737 : 									if( lpMagic->m_Skill == AT_SKILL_GIGANTICSTORM &&

  0031e	8b 45 0c	 mov	 eax, DWORD PTR _lpMagic$[ebp]
  00321	81 78 08 ed 00
	00 00		 cmp	 DWORD PTR [eax+8], 237	; 000000edH
  00328	75 69		 jne	 SHORT $LN42@SkillAreaM
  0032a	b8 31 02 00 00	 mov	 eax, 561		; 00000231H
  0032f	66 39 86 90 00
	00 00		 cmp	 WORD PTR [esi+144], ax
  00336	75 5b		 jne	 SHORT $LN42@SkillAreaM

; 5738 : 										lpObj->Class == 561 )
; 5739 : 									{
; 5740 : 										if( gObjCheckUsedBuffEffect(&gObj[tObjNum],BUFF_ICE) == FALSE )

  00338	a1 00 00 00 00	 mov	 eax, DWORD PTR ?gObj@@3PAUOBJECTSTRUCT@@A ; gObj
  0033d	03 c7		 add	 eax, edi
  0033f	6a 38		 push	 56			; 00000038H
  00341	50		 push	 eax
  00342	e8 00 00 00 00	 call	 ?gObjCheckUsedBuffEffect@@YA_NPAUOBJECTSTRUCT@@H@Z ; gObjCheckUsedBuffEffect
  00347	83 c4 08	 add	 esp, 8
  0034a	84 c0		 test	 al, al
  0034c	75 45		 jne	 SHORT $LN42@SkillAreaM

; 5741 : 										{
; 5742 : 											gObj[tObjNum].DelayActionTime = 800;

  0034e	a1 00 00 00 00	 mov	 eax, DWORD PTR ?gObj@@3PAUOBJECTSTRUCT@@A ; gObj

; 5743 : 											gObj[tObjNum].DelayLevel = 1;
; 5744 : 											gObj[tObjNum].lpAttackObj = lpObj;
; 5745 : 											gObjAddBuffEffect(&gObj[tObjNum],BUFF_ICE,0,0,0,0,3);

  00353	6a 03		 push	 3
  00355	6a 00		 push	 0
  00357	6a 00		 push	 0
  00359	c7 84 07 a4 05
	00 00 20 03 00
	00		 mov	 DWORD PTR [edi+eax+1444], 800 ; 00000320H
  00364	a1 00 00 00 00	 mov	 eax, DWORD PTR ?gObj@@3PAUOBJECTSTRUCT@@A ; gObj
  00369	6a 00		 push	 0
  0036b	6a 00		 push	 0
  0036d	6a 38		 push	 56			; 00000038H
  0036f	c6 84 07 a8 05
	00 00 01	 mov	 BYTE PTR [edi+eax+1448], 1
  00377	a1 00 00 00 00	 mov	 eax, DWORD PTR ?gObj@@3PAUOBJECTSTRUCT@@A ; gObj
  0037c	89 b4 07 b4 05
	00 00		 mov	 DWORD PTR [edi+eax+1460], esi
  00383	a1 00 00 00 00	 mov	 eax, DWORD PTR ?gObj@@3PAUOBJECTSTRUCT@@A ; gObj
  00388	03 c7		 add	 eax, edi
  0038a	50		 push	 eax
  0038b	e8 00 00 00 00	 call	 ?gObjAddBuffEffect@@YA_NPAUOBJECTSTRUCT@@HEHEHH@Z ; gObjAddBuffEffect
  00390	83 c4 1c	 add	 esp, 28			; 0000001cH
$LN42@SkillAreaM:

; 5746 : 										}
; 5747 : 									}
; 5748 : 
; 5749 : 									gObjAddAttackProcMsgSendDelay(lpObj,50,tObjNum,nDelay,lpMagic->m_Skill,0);

  00393	8b 7d 0c	 mov	 edi, DWORD PTR _lpMagic$[ebp]
  00396	6a 00		 push	 0
  00398	ff 77 08	 push	 DWORD PTR [edi+8]
  0039b	ff 75 24	 push	 DWORD PTR _nDelay$[ebp]
  0039e	53		 push	 ebx
  0039f	6a 32		 push	 50			; 00000032H
  003a1	56		 push	 esi
  003a2	e8 00 00 00 00	 call	 ?gObjAddAttackProcMsgSendDelay@@YAXPAUOBJECTSTRUCT@@HHHHH@Z ; gObjAddAttackProcMsgSendDelay
  003a7	83 c4 18	 add	 esp, 24			; 00000018H
$LN30@SkillAreaM:

; 5750 : 								}
; 5751 : 							}
; 5752 : 
; 5753 : 							bRet = TRUE;

  003aa	8b 0d 00 00 00
	00		 mov	 ecx, DWORD PTR ?gObj@@3PAUOBJECTSTRUCT@@A ; gObj
  003b0	b8 01 00 00 00	 mov	 eax, 1
  003b5	8b 55 14	 mov	 edx, DWORD PTR tv650[ebp]
  003b8	89 45 fc	 mov	 DWORD PTR _bRet$1$[ebp], eax
  003bb	e9 80 fd ff ff	 jmp	 $LN23@SkillAreaM
$LN55@SkillAreaM:
  003c0	5f		 pop	 edi
  003c1	5e		 pop	 esi

; 5762 : 			{
; 5763 : 				break;
; 5764 : 			}
; 5765 : 		}
; 5766 : 	}
; 5767 : 	return bRet;

  003c2	33 c0		 xor	 eax, eax
  003c4	5b		 pop	 ebx

; 5768 : }

  003c5	8b e5		 mov	 esp, ebp
  003c7	5d		 pop	 ebp
  003c8	c2 20 00	 ret	 32			; 00000020H
?SkillAreaMonsterAttack@CObjUseSkill@@QAEHHPAVCMagicInf@@EEHHHH@Z ENDP ; CObjUseSkill::SkillAreaMonsterAttack
_TEXT	ENDS
; Function compile flags: /Ogtp
; File c:\users\michel\desktop\source\gameserver\source\objuseskill.cpp
;	COMDAT ?SkillInnovation@CObjUseSkill@@QAEHHPAVCMagicInf@@EEH@Z
_TEXT	SEGMENT
_DuelIndex$1$ = -12					; size = 4
_HitCount$1$ = -8					; size = 4
_count$1$ = -4						; size = 4
_lpObj$1$ = 8						; size = 4
_aIndex$ = 8						; size = 4
_lpMagic$ = 12						; size = 4
_x$ = 16						; size = 1
_y$ = 20						; size = 1
tv479 = 24						; size = 4
_aTargetIndex$ = 24					; size = 4
?SkillInnovation@CObjUseSkill@@QAEHHPAVCMagicInf@@EEH@Z PROC ; CObjUseSkill::SkillInnovation, COMDAT
; _this$ = ecx

; 5058 : {

  00000	55		 push	 ebp
  00001	8b ec		 mov	 ebp, esp
  00003	83 ec 0c	 sub	 esp, 12			; 0000000cH
  00006	53		 push	 ebx
  00007	56		 push	 esi
  00008	57		 push	 edi

; 5059 : 	LPOBJ lpObj = &gObj[aIndex];

  00009	69 7d 08 40 27
	00 00		 imul	 edi, DWORD PTR _aIndex$[ebp], 10048

; 5060 : 	int bSuccess = FALSE;
; 5061 : 	int tObjNum;
; 5062 : 	int count = 0;
; 5063 : 	int HitCount = 0;
; 5064 : 	int DuelIndex = lpObj->m_iDuelUser;
; 5065 : 	int EnableAttack;
; 5066 : 
; 5067 : 	GCMagicAttackNumberSend(lpObj,lpMagic->m_Skill,aTargetIndex,1);

  00010	6a 01		 push	 1
  00012	ff 75 18	 push	 DWORD PTR _aTargetIndex$[ebp]
  00015	c7 45 fc 00 00
	00 00		 mov	 DWORD PTR _count$1$[ebp], 0
  0001c	c7 45 f8 00 00
	00 00		 mov	 DWORD PTR _HitCount$1$[ebp], 0
  00023	03 3d 00 00 00
	00		 add	 edi, DWORD PTR ?gObj@@3PAUOBJECTSTRUCT@@A ; gObj
  00029	89 7d 08	 mov	 DWORD PTR _lpObj$1$[ebp], edi
  0002c	8b 87 50 12 00
	00		 mov	 eax, DWORD PTR [edi+4688]
  00032	89 45 f4	 mov	 DWORD PTR _DuelIndex$1$[ebp], eax
  00035	8b 45 0c	 mov	 eax, DWORD PTR _lpMagic$[ebp]
  00038	0f b7 40 08	 movzx	 eax, WORD PTR [eax+8]
  0003c	50		 push	 eax
  0003d	57		 push	 edi
  0003e	e8 00 00 00 00	 call	 ?GCMagicAttackNumberSend@@YAXPAUOBJECTSTRUCT@@GHE@Z ; GCMagicAttackNumberSend
  00043	8b 0d 00 00 00
	00		 mov	 ecx, DWORD PTR ?gObj@@3PAUOBJECTSTRUCT@@A ; gObj
  00049	8d 87 4c 0c 00
	00		 lea	 eax, DWORD PTR [edi+3148]
  0004f	83 c4 10	 add	 esp, 16			; 00000010H
  00052	89 45 18	 mov	 DWORD PTR tv479[ebp], eax
  00055	33 d2		 xor	 edx, edx
  00057	66 0f 1f 84 00
	00 00 00 00	 npad	 9
$LL2@SkillInnov:

; 5068 : 
; 5069 : 	while( TRUE )
; 5070 : 	{
; 5071 : 		if(lpObj->VpPlayer2[count].state != 0)

  00060	80 78 fc 00	 cmp	 BYTE PTR [eax-4], 0
  00064	0f 84 6a 01 00
	00		 je	 $LN20@SkillInnov

; 5072 : 		{
; 5073 : 			tObjNum = lpObj->VpPlayer2[count].number;

  0006a	0f bf 70 fe	 movsx	 esi, WORD PTR [eax-2]

; 5074 : 
; 5075 : 			if( tObjNum >= 0 )

  0006e	85 f6		 test	 esi, esi
  00070	0f 88 5e 01 00
	00		 js	 $LN20@SkillInnov

; 5076 : 			{
; 5077 : 				EnableAttack = 0;
; 5078 : 
; 5079 : 				if(lpObj->VpPlayer2[count].type == OBJ_MONSTER && gObj[tObjNum].m_RecallMon < 0)

  00076	8a 18		 mov	 bl, BYTE PTR [eax]
  00078	80 fb 02	 cmp	 bl, 2
  0007b	75 14		 jne	 SHORT $LN6@SkillInnov
  0007d	69 c6 40 27 00
	00		 imul	 eax, esi, 10048
  00083	83 bc 08 30 06
	00 00 00	 cmp	 DWORD PTR [eax+ecx+1584], 0
  0008b	0f 8c f6 00 00
	00		 jl	 $LN12@SkillInnov
$LN6@SkillInnov:

; 5080 : 				{
; 5081 : 					EnableAttack = 1;
; 5082 : 				}
; 5083 : 				else if(DuelIndex == tObjNum)

  00091	39 75 f4	 cmp	 DWORD PTR _DuelIndex$1$[ebp], esi
  00094	0f 84 ed 00 00
	00		 je	 $LN12@SkillInnov

; 5084 : 				{
; 5085 : 					EnableAttack = 1;
; 5086 : 				}
; 5087 : 				else if( CC_MAP_RANGE(lpObj->MapNumber) ||
; 5088 : 						 IT_MAP_RANGE(lpObj->MapNumber) ||

  0009a	8a 97 23 01 00
	00		 mov	 dl, BYTE PTR [edi+291]
  000a0	80 fa 35	 cmp	 dl, 53			; 00000035H
  000a3	0f 84 de 00 00
	00		 je	 $LN12@SkillInnov
  000a9	80 fa 12	 cmp	 dl, 18			; 00000012H
  000ac	72 0f		 jb	 SHORT $LN36@SkillInnov
  000ae	b0 17		 mov	 al, 23			; 00000017H
  000b0	3a c2		 cmp	 al, dl
  000b2	1b c0		 sbb	 eax, eax
  000b4	83 c0 01	 add	 eax, 1
  000b7	0f 85 ca 00 00
	00		 jne	 $LN12@SkillInnov
$LN36@SkillInnov:
  000bd	80 fa 2d	 cmp	 dl, 45			; 0000002dH
  000c0	72 0f		 jb	 SHORT $LN37@SkillInnov
  000c2	b0 32		 mov	 al, 50			; 00000032H
  000c4	3a c2		 cmp	 al, dl
  000c6	1b c0		 sbb	 eax, eax
  000c8	83 c0 01	 add	 eax, 1
  000cb	0f 85 b6 00 00
	00		 jne	 $LN12@SkillInnov
$LN37@SkillInnov:
  000d1	80 fa 3f	 cmp	 dl, 63			; 0000003fH
  000d4	0f 84 ad 00 00
	00		 je	 $LN12@SkillInnov

; 5089 : 						 lpObj->MapNumber == MAP_INDEX_VULCANUS)
; 5090 : 				{
; 5091 : 					EnableAttack = 1;
; 5092 : 				}
; 5093 : #if (GS_CASTLE == 1)
; 5094 : 				else if(lpObj->VpPlayer2[count].type != OBJ_NPC && gObj[tObjNum].MapNumber == MAP_INDEX_CASTLESIEGE && g_CastleSiege.GetCastleState() == 7)

  000da	80 fb 03	 cmp	 bl, 3
  000dd	74 67		 je	 SHORT $LN13@SkillInnov
  000df	69 fe 40 27 00
	00		 imul	 edi, esi, 10048
  000e5	80 bc 0f 23 01
	00 00 1e	 cmp	 BYTE PTR [edi+ecx+291], 30 ; 0000001eH
  000ed	75 54		 jne	 SHORT $LN45@SkillInnov
  000ef	b9 00 00 00 00	 mov	 ecx, OFFSET ?g_CastleSiege@@3VCCastleSiege@@A ; g_CastleSiege
  000f4	e8 00 00 00 00	 call	 ?GetCastleState@CCastleSiege@@QAEHXZ ; CCastleSiege::GetCastleState

; 5095 : 				{
; 5096 : 					if( lpObj->m_btCsJoinSide != gObj[tObjNum].m_btCsJoinSide )

  000f9	8b 0d 00 00 00
	00		 mov	 ecx, DWORD PTR ?gObj@@3PAUOBJECTSTRUCT@@A ; gObj
  000ff	83 f8 07	 cmp	 eax, 7
  00102	75 3f		 jne	 SHORT $LN45@SkillInnov
  00104	8b 45 08	 mov	 eax, DWORD PTR _lpObj$1$[ebp]
  00107	8a 80 5a 20 00
	00		 mov	 al, BYTE PTR [eax+8282]
  0010d	3a 84 0f 5a 20
	00 00		 cmp	 al, BYTE PTR [edi+ecx+8282]
  00114	0f 84 b1 00 00
	00		 je	 $LN44@SkillInnov

; 5097 : 					{
; 5098 : 						if( gObj[tObjNum].Class != 283 &&

  0011a	0f b7 84 0f 90
	00 00 00	 movzx	 eax, WORD PTR [edi+ecx+144]
  00122	ba 1b 01 00 00	 mov	 edx, 283		; 0000011bH

; 5099 : 							gObj[tObjNum].Class != 277 )
; 5100 : 							EnableAttack = 1;
; 5101 : 					}
; 5102 : 				}
; 5103 : #endif
; 5104 : 				else

  00127	8b 7d 08	 mov	 edi, DWORD PTR _lpObj$1$[ebp]
  0012a	66 3b c2	 cmp	 ax, dx
  0012d	0f 84 9b 00 00
	00		 je	 $LN46@SkillInnov

; 5097 : 					{
; 5098 : 						if( gObj[tObjNum].Class != 283 &&

  00133	ba 15 01 00 00	 mov	 edx, 277		; 00000115H
  00138	66 3b c2	 cmp	 ax, dx
  0013b	0f 84 8d 00 00
	00		 je	 $LN46@SkillInnov

; 5099 : 							gObj[tObjNum].Class != 277 )
; 5100 : 							EnableAttack = 1;
; 5101 : 					}
; 5102 : 				}
; 5103 : #endif
; 5104 : 				else

  00141	eb 44		 jmp	 SHORT $LN12@SkillInnov
$LN45@SkillInnov:
  00143	8b 7d 08	 mov	 edi, DWORD PTR _lpObj$1$[ebp]
$LN13@SkillInnov:

; 5105 : 				{
; 5106 : 					int CallMonIndex = gObj[tObjNum].m_Index;

  00146	69 c6 40 27 00
	00		 imul	 eax, esi, 10048

; 5107 : 
; 5108 : 					if(gObj[tObjNum].Type == OBJ_MONSTER && gObj[tObjNum].m_RecallMon >= 0)

  0014c	80 7c 08 50 02	 cmp	 BYTE PTR [eax+ecx+80], 2
  00151	8b 14 08	 mov	 edx, DWORD PTR [eax+ecx]
  00154	75 14		 jne	 SHORT $LN17@SkillInnov
  00156	8b 84 08 30 06
	00 00		 mov	 eax, DWORD PTR [eax+ecx+1584]
  0015d	85 c0		 test	 eax, eax
  0015f	78 09		 js	 SHORT $LN17@SkillInnov

; 5109 : 					{
; 5110 : 						CallMonIndex = gObj[gObj[tObjNum].m_RecallMon].m_Index;

  00161	69 c0 40 27 00
	00		 imul	 eax, eax, 10048
  00167	8b 14 08	 mov	 edx, DWORD PTR [eax+ecx]
$LN17@SkillInnov:

; 5111 : 					}
; 5112 : 
; 5113 : 					if(gObjTargetGuildWarCheck(lpObj,&gObj[CallMonIndex])==1)

  0016a	69 c2 40 27 00
	00		 imul	 eax, edx, 10048
  00170	03 c1		 add	 eax, ecx
  00172	50		 push	 eax
  00173	57		 push	 edi
  00174	e8 00 00 00 00	 call	 ?gObjTargetGuildWarCheck@@YAHPAUOBJECTSTRUCT@@0@Z ; gObjTargetGuildWarCheck
  00179	83 c4 08	 add	 esp, 8
  0017c	83 f8 01	 cmp	 eax, 1
  0017f	75 42		 jne	 SHORT $LN40@SkillInnov
  00181	8b 0d 00 00 00
	00		 mov	 ecx, DWORD PTR ?gObj@@3PAUOBJECTSTRUCT@@A ; gObj
$LN12@SkillInnov:

; 5114 : 					{
; 5115 : 						EnableAttack = 1;
; 5116 : 					}
; 5117 : 				}
; 5118 : 
; 5119 : 				if( EnableAttack != 0 &&

  00187	69 c6 40 27 00
	00		 imul	 eax, esi, 10048
  0018d	03 c1		 add	 eax, ecx
  0018f	50		 push	 eax
  00190	57		 push	 edi
  00191	e8 00 00 00 00	 call	 ?gObjCalDistance@@YAHPAUOBJECTSTRUCT@@0@Z ; gObjCalDistance
  00196	83 c4 08	 add	 esp, 8
  00199	83 f8 05	 cmp	 eax, 5
  0019c	7d 25		 jge	 SHORT $LN40@SkillInnov

; 5120 : 					gObjCalDistance(lpObj,&gObj[tObjNum]) < 5 )
; 5121 : 				{
; 5122 : 					gObjAddAttackProcMsgSendDelay(lpObj,50,tObjNum,700,lpMagic->m_Skill,0);

  0019e	8b 45 0c	 mov	 eax, DWORD PTR _lpMagic$[ebp]
  001a1	6a 00		 push	 0
  001a3	ff 70 08	 push	 DWORD PTR [eax+8]
  001a6	68 bc 02 00 00	 push	 700			; 000002bcH
  001ab	56		 push	 esi
  001ac	6a 32		 push	 50			; 00000032H
  001ae	57		 push	 edi
  001af	e8 00 00 00 00	 call	 ?gObjAddAttackProcMsgSendDelay@@YAXPAUOBJECTSTRUCT@@HHHHH@Z ; gObjAddAttackProcMsgSendDelay

; 5123 : 					HitCount++;

  001b4	8b 5d f8	 mov	 ebx, DWORD PTR _HitCount$1$[ebp]
  001b7	83 c4 18	 add	 esp, 24			; 00000018H
  001ba	43		 inc	 ebx
  001bb	89 5d f8	 mov	 DWORD PTR _HitCount$1$[ebp], ebx

; 5124 : 
; 5125 : 					if(HitCount >= 5)

  001be	83 fb 05	 cmp	 ebx, 5
  001c1	7d 24		 jge	 SHORT $LN41@SkillInnov
$LN40@SkillInnov:
  001c3	8b 0d 00 00 00
	00		 mov	 ecx, DWORD PTR ?gObj@@3PAUOBJECTSTRUCT@@A ; gObj
  001c9	eb 03		 jmp	 SHORT $LN46@SkillInnov
$LN44@SkillInnov:
  001cb	8b 7d 08	 mov	 edi, DWORD PTR _lpObj$1$[ebp]
$LN46@SkillInnov:
  001ce	8b 55 fc	 mov	 edx, DWORD PTR _count$1$[ebp]
  001d1	8b 45 18	 mov	 eax, DWORD PTR tv479[ebp]
$LN20@SkillInnov:

; 5126 : 					{
; 5127 : 						break;
; 5128 : 					}
; 5129 : 				}
; 5130 : 			}
; 5131 : 		}
; 5132 : 
; 5133 : 		count++;

  001d4	42		 inc	 edx
  001d5	83 c0 0c	 add	 eax, 12			; 0000000cH
  001d8	89 55 fc	 mov	 DWORD PTR _count$1$[ebp], edx
  001db	89 45 18	 mov	 DWORD PTR tv479[ebp], eax

; 5134 : 
; 5135 : 		if( count > MAX_VIEWPORT -1)

  001de	83 fa 4a	 cmp	 edx, 74			; 0000004aH
  001e1	0f 8e 79 fe ff
	ff		 jle	 $LL2@SkillInnov
$LN41@SkillInnov:
  001e7	5f		 pop	 edi
  001e8	5e		 pop	 esi

; 5136 : 		{
; 5137 : 			break;
; 5138 : 		}
; 5139 : 	}
; 5140 : 
; 5141 : return bSuccess;

  001e9	33 c0		 xor	 eax, eax
  001eb	5b		 pop	 ebx

; 5142 : }

  001ec	8b e5		 mov	 esp, ebp
  001ee	5d		 pop	 ebp
  001ef	c2 14 00	 ret	 20			; 00000014H
?SkillInnovation@CObjUseSkill@@QAEHHPAVCMagicInf@@EEH@Z ENDP ; CObjUseSkill::SkillInnovation
_TEXT	ENDS
; Function compile flags: /Ogtp
; File c:\users\michel\desktop\source\gameserver\source\objuseskill.cpp
;	COMDAT ?SkillWeakness@CObjUseSkill@@QAEHHPAVCMagicInf@@EEH@Z
_TEXT	SEGMENT
_DuelIndex$1$ = -12					; size = 4
_HitCount$1$ = -8					; size = 4
_count$1$ = -4						; size = 4
_lpObj$1$ = 8						; size = 4
_aIndex$ = 8						; size = 4
_lpMagic$ = 12						; size = 4
_x$ = 16						; size = 1
_y$ = 20						; size = 1
tv479 = 24						; size = 4
_aTargetIndex$ = 24					; size = 4
?SkillWeakness@CObjUseSkill@@QAEHHPAVCMagicInf@@EEH@Z PROC ; CObjUseSkill::SkillWeakness, COMDAT
; _this$ = ecx

; 4971 : {

  00000	55		 push	 ebp
  00001	8b ec		 mov	 ebp, esp
  00003	83 ec 0c	 sub	 esp, 12			; 0000000cH
  00006	53		 push	 ebx
  00007	56		 push	 esi
  00008	57		 push	 edi

; 4972 : 	LPOBJ lpObj = &gObj[aIndex];

  00009	69 7d 08 40 27
	00 00		 imul	 edi, DWORD PTR _aIndex$[ebp], 10048

; 4973 : 	int bSuccess = FALSE;
; 4974 : 	int tObjNum;
; 4975 : 	int count = 0;
; 4976 : 	int HitCount = 0;
; 4977 : 	int DuelIndex = lpObj->m_iDuelUser;
; 4978 : 	int EnableAttack;
; 4979 : 
; 4980 : 	GCMagicAttackNumberSend(lpObj,lpMagic->m_Skill,aTargetIndex,1);

  00010	6a 01		 push	 1
  00012	ff 75 18	 push	 DWORD PTR _aTargetIndex$[ebp]
  00015	c7 45 fc 00 00
	00 00		 mov	 DWORD PTR _count$1$[ebp], 0
  0001c	c7 45 f8 00 00
	00 00		 mov	 DWORD PTR _HitCount$1$[ebp], 0
  00023	03 3d 00 00 00
	00		 add	 edi, DWORD PTR ?gObj@@3PAUOBJECTSTRUCT@@A ; gObj
  00029	89 7d 08	 mov	 DWORD PTR _lpObj$1$[ebp], edi
  0002c	8b 87 50 12 00
	00		 mov	 eax, DWORD PTR [edi+4688]
  00032	89 45 f4	 mov	 DWORD PTR _DuelIndex$1$[ebp], eax
  00035	8b 45 0c	 mov	 eax, DWORD PTR _lpMagic$[ebp]
  00038	0f b7 40 08	 movzx	 eax, WORD PTR [eax+8]
  0003c	50		 push	 eax
  0003d	57		 push	 edi
  0003e	e8 00 00 00 00	 call	 ?GCMagicAttackNumberSend@@YAXPAUOBJECTSTRUCT@@GHE@Z ; GCMagicAttackNumberSend
  00043	8b 0d 00 00 00
	00		 mov	 ecx, DWORD PTR ?gObj@@3PAUOBJECTSTRUCT@@A ; gObj
  00049	8d 87 4c 0c 00
	00		 lea	 eax, DWORD PTR [edi+3148]
  0004f	83 c4 10	 add	 esp, 16			; 00000010H
  00052	89 45 18	 mov	 DWORD PTR tv479[ebp], eax
  00055	33 d2		 xor	 edx, edx
  00057	66 0f 1f 84 00
	00 00 00 00	 npad	 9
$LL2@SkillWeakn:

; 4981 : 
; 4982 : 	while( TRUE )
; 4983 : 	{
; 4984 : 		if(lpObj->VpPlayer2[count].state != 0)

  00060	80 78 fc 00	 cmp	 BYTE PTR [eax-4], 0
  00064	0f 84 6a 01 00
	00		 je	 $LN20@SkillWeakn

; 4985 : 		{
; 4986 : 			tObjNum = lpObj->VpPlayer2[count].number;

  0006a	0f bf 70 fe	 movsx	 esi, WORD PTR [eax-2]

; 4987 : 
; 4988 : 			if( tObjNum >= 0 )

  0006e	85 f6		 test	 esi, esi
  00070	0f 88 5e 01 00
	00		 js	 $LN20@SkillWeakn

; 4989 : 			{
; 4990 : 				EnableAttack = 0;
; 4991 : 
; 4992 : 				if(lpObj->VpPlayer2[count].type == OBJ_MONSTER && gObj[tObjNum].m_RecallMon < 0)

  00076	8a 18		 mov	 bl, BYTE PTR [eax]
  00078	80 fb 02	 cmp	 bl, 2
  0007b	75 14		 jne	 SHORT $LN6@SkillWeakn
  0007d	69 c6 40 27 00
	00		 imul	 eax, esi, 10048
  00083	83 bc 08 30 06
	00 00 00	 cmp	 DWORD PTR [eax+ecx+1584], 0
  0008b	0f 8c f6 00 00
	00		 jl	 $LN12@SkillWeakn
$LN6@SkillWeakn:

; 4993 : 				{
; 4994 : 					EnableAttack = 1;
; 4995 : 				}
; 4996 : 				else if(DuelIndex == tObjNum)

  00091	39 75 f4	 cmp	 DWORD PTR _DuelIndex$1$[ebp], esi
  00094	0f 84 ed 00 00
	00		 je	 $LN12@SkillWeakn

; 4997 : 				{
; 4998 : 					EnableAttack = 1;
; 4999 : 				}
; 5000 : 				else if( CC_MAP_RANGE(lpObj->MapNumber) ||
; 5001 : 						 IT_MAP_RANGE(lpObj->MapNumber) ||

  0009a	8a 97 23 01 00
	00		 mov	 dl, BYTE PTR [edi+291]
  000a0	80 fa 35	 cmp	 dl, 53			; 00000035H
  000a3	0f 84 de 00 00
	00		 je	 $LN12@SkillWeakn
  000a9	80 fa 12	 cmp	 dl, 18			; 00000012H
  000ac	72 0f		 jb	 SHORT $LN36@SkillWeakn
  000ae	b0 17		 mov	 al, 23			; 00000017H
  000b0	3a c2		 cmp	 al, dl
  000b2	1b c0		 sbb	 eax, eax
  000b4	83 c0 01	 add	 eax, 1
  000b7	0f 85 ca 00 00
	00		 jne	 $LN12@SkillWeakn
$LN36@SkillWeakn:
  000bd	80 fa 2d	 cmp	 dl, 45			; 0000002dH
  000c0	72 0f		 jb	 SHORT $LN37@SkillWeakn
  000c2	b0 32		 mov	 al, 50			; 00000032H
  000c4	3a c2		 cmp	 al, dl
  000c6	1b c0		 sbb	 eax, eax
  000c8	83 c0 01	 add	 eax, 1
  000cb	0f 85 b6 00 00
	00		 jne	 $LN12@SkillWeakn
$LN37@SkillWeakn:
  000d1	80 fa 3f	 cmp	 dl, 63			; 0000003fH
  000d4	0f 84 ad 00 00
	00		 je	 $LN12@SkillWeakn

; 5002 : 						 lpObj->MapNumber == MAP_INDEX_VULCANUS)
; 5003 : 				{
; 5004 : 					EnableAttack = 1;
; 5005 : 				}
; 5006 : #if (GS_CASTLE == 1)
; 5007 : 				else if(lpObj->VpPlayer2[count].type != OBJ_NPC && gObj[tObjNum].MapNumber == MAP_INDEX_CASTLESIEGE && g_CastleSiege.GetCastleState() == 7)

  000da	80 fb 03	 cmp	 bl, 3
  000dd	74 67		 je	 SHORT $LN13@SkillWeakn
  000df	69 fe 40 27 00
	00		 imul	 edi, esi, 10048
  000e5	80 bc 0f 23 01
	00 00 1e	 cmp	 BYTE PTR [edi+ecx+291], 30 ; 0000001eH
  000ed	75 54		 jne	 SHORT $LN45@SkillWeakn
  000ef	b9 00 00 00 00	 mov	 ecx, OFFSET ?g_CastleSiege@@3VCCastleSiege@@A ; g_CastleSiege
  000f4	e8 00 00 00 00	 call	 ?GetCastleState@CCastleSiege@@QAEHXZ ; CCastleSiege::GetCastleState

; 5008 : 				{
; 5009 : 					if( lpObj->m_btCsJoinSide != gObj[tObjNum].m_btCsJoinSide )

  000f9	8b 0d 00 00 00
	00		 mov	 ecx, DWORD PTR ?gObj@@3PAUOBJECTSTRUCT@@A ; gObj
  000ff	83 f8 07	 cmp	 eax, 7
  00102	75 3f		 jne	 SHORT $LN45@SkillWeakn
  00104	8b 45 08	 mov	 eax, DWORD PTR _lpObj$1$[ebp]
  00107	8a 80 5a 20 00
	00		 mov	 al, BYTE PTR [eax+8282]
  0010d	3a 84 0f 5a 20
	00 00		 cmp	 al, BYTE PTR [edi+ecx+8282]
  00114	0f 84 b1 00 00
	00		 je	 $LN44@SkillWeakn

; 5010 : 					{
; 5011 : 						if( gObj[tObjNum].Class != 283 &&

  0011a	0f b7 84 0f 90
	00 00 00	 movzx	 eax, WORD PTR [edi+ecx+144]
  00122	ba 1b 01 00 00	 mov	 edx, 283		; 0000011bH

; 5012 : 							gObj[tObjNum].Class != 277 )
; 5013 : 							EnableAttack = 1;
; 5014 : 					}
; 5015 : 				}
; 5016 : #endif
; 5017 : 				else

  00127	8b 7d 08	 mov	 edi, DWORD PTR _lpObj$1$[ebp]
  0012a	66 3b c2	 cmp	 ax, dx
  0012d	0f 84 9b 00 00
	00		 je	 $LN46@SkillWeakn

; 5010 : 					{
; 5011 : 						if( gObj[tObjNum].Class != 283 &&

  00133	ba 15 01 00 00	 mov	 edx, 277		; 00000115H
  00138	66 3b c2	 cmp	 ax, dx
  0013b	0f 84 8d 00 00
	00		 je	 $LN46@SkillWeakn

; 5012 : 							gObj[tObjNum].Class != 277 )
; 5013 : 							EnableAttack = 1;
; 5014 : 					}
; 5015 : 				}
; 5016 : #endif
; 5017 : 				else

  00141	eb 44		 jmp	 SHORT $LN12@SkillWeakn
$LN45@SkillWeakn:
  00143	8b 7d 08	 mov	 edi, DWORD PTR _lpObj$1$[ebp]
$LN13@SkillWeakn:

; 5018 : 				{
; 5019 : 					int CallMonIndex = gObj[tObjNum].m_Index;

  00146	69 c6 40 27 00
	00		 imul	 eax, esi, 10048

; 5020 : 
; 5021 : 					if(gObj[tObjNum].Type == OBJ_MONSTER && gObj[tObjNum].m_RecallMon >= 0)

  0014c	80 7c 08 50 02	 cmp	 BYTE PTR [eax+ecx+80], 2
  00151	8b 14 08	 mov	 edx, DWORD PTR [eax+ecx]
  00154	75 14		 jne	 SHORT $LN17@SkillWeakn
  00156	8b 84 08 30 06
	00 00		 mov	 eax, DWORD PTR [eax+ecx+1584]
  0015d	85 c0		 test	 eax, eax
  0015f	78 09		 js	 SHORT $LN17@SkillWeakn

; 5022 : 					{
; 5023 : 						CallMonIndex = gObj[gObj[tObjNum].m_RecallMon].m_Index;

  00161	69 c0 40 27 00
	00		 imul	 eax, eax, 10048
  00167	8b 14 08	 mov	 edx, DWORD PTR [eax+ecx]
$LN17@SkillWeakn:

; 5024 : 					}
; 5025 : 
; 5026 : 					if(gObjTargetGuildWarCheck(lpObj,&gObj[CallMonIndex])==1)

  0016a	69 c2 40 27 00
	00		 imul	 eax, edx, 10048
  00170	03 c1		 add	 eax, ecx
  00172	50		 push	 eax
  00173	57		 push	 edi
  00174	e8 00 00 00 00	 call	 ?gObjTargetGuildWarCheck@@YAHPAUOBJECTSTRUCT@@0@Z ; gObjTargetGuildWarCheck
  00179	83 c4 08	 add	 esp, 8
  0017c	83 f8 01	 cmp	 eax, 1
  0017f	75 42		 jne	 SHORT $LN40@SkillWeakn
  00181	8b 0d 00 00 00
	00		 mov	 ecx, DWORD PTR ?gObj@@3PAUOBJECTSTRUCT@@A ; gObj
$LN12@SkillWeakn:

; 5027 : 					{
; 5028 : 						EnableAttack = 1;
; 5029 : 					}
; 5030 : 				}
; 5031 : 
; 5032 : 				if( EnableAttack != 0 &&

  00187	69 c6 40 27 00
	00		 imul	 eax, esi, 10048
  0018d	03 c1		 add	 eax, ecx
  0018f	50		 push	 eax
  00190	57		 push	 edi
  00191	e8 00 00 00 00	 call	 ?gObjCalDistance@@YAHPAUOBJECTSTRUCT@@0@Z ; gObjCalDistance
  00196	83 c4 08	 add	 esp, 8
  00199	83 f8 05	 cmp	 eax, 5
  0019c	7d 25		 jge	 SHORT $LN40@SkillWeakn

; 5033 : 					gObjCalDistance(lpObj,&gObj[tObjNum]) < 5 )
; 5034 : 				{
; 5035 : 					gObjAddAttackProcMsgSendDelay(lpObj,50,tObjNum,700,lpMagic->m_Skill,0);

  0019e	8b 45 0c	 mov	 eax, DWORD PTR _lpMagic$[ebp]
  001a1	6a 00		 push	 0
  001a3	ff 70 08	 push	 DWORD PTR [eax+8]
  001a6	68 bc 02 00 00	 push	 700			; 000002bcH
  001ab	56		 push	 esi
  001ac	6a 32		 push	 50			; 00000032H
  001ae	57		 push	 edi
  001af	e8 00 00 00 00	 call	 ?gObjAddAttackProcMsgSendDelay@@YAXPAUOBJECTSTRUCT@@HHHHH@Z ; gObjAddAttackProcMsgSendDelay

; 5036 : 					HitCount++;

  001b4	8b 5d f8	 mov	 ebx, DWORD PTR _HitCount$1$[ebp]
  001b7	83 c4 18	 add	 esp, 24			; 00000018H
  001ba	43		 inc	 ebx
  001bb	89 5d f8	 mov	 DWORD PTR _HitCount$1$[ebp], ebx

