; Listing generated by Microsoft (R) Optimizing Compiler Version 19.00.23506.0 

	TITLE	C:\Users\Michel\Desktop\Source\GameServer\Source\PCBangPointSystem.cpp
	.686P
	.XMM
	include listing.inc
	.model	flat

INCLUDELIB LIBCMT
INCLUDELIB OLDNAMES

PUBLIC	??_H@YGXPAXIIP6EPAX0@Z@Z			; `vector constructor iterator'
PUBLIC	?__empty_global_delete@@YAXPAX@Z		; __empty_global_delete
PUBLIC	?__empty_global_delete@@YAXPAXI@Z		; __empty_global_delete
PUBLIC	??1OBJECTSTRUCT@@QAE@XZ				; OBJECTSTRUCT::~OBJECTSTRUCT
PUBLIC	??_EOBJECTSTRUCT@@QAEPAXI@Z			; OBJECTSTRUCT::`vector deleting destructor'
PUBLIC	??0CGoblinPointSystem@@QAE@XZ			; CGoblinPointSystem::CGoblinPointSystem
PUBLIC	??1CGoblinPointSystem@@UAE@XZ			; CGoblinPointSystem::~CGoblinPointSystem
PUBLIC	?LoadData@CGoblinPointSystem@@QAEHXZ		; CGoblinPointSystem::LoadData
PUBLIC	?UserProc@CGoblinPointSystem@@QAEHPAUOBJECTSTRUCT@@@Z ; CGoblinPointSystem::UserProc
PUBLIC	??_GCGoblinPointSystem@@UAEPAXI@Z		; CGoblinPointSystem::`scalar deleting destructor'
PUBLIC	??_7CGoblinPointSystem@@6B@			; CGoblinPointSystem::`vftable'
PUBLIC	?g_GoblinPointSystem@@3VCGoblinPointSystem@@A	; g_GoblinPointSystem
PUBLIC	??_C@_0BB@COIIOJMI@CommonServer?4cfg?$AA@	; `string'
PUBLIC	??_C@_0BE@KILGAPKL@GoblinPointSystemOn?$AA@	; `string'
PUBLIC	??_C@_0P@EMJDPFDH@GameServerInfo?$AA@		; `string'
PUBLIC	??_C@_0BK@KJGKDLEH@GoblinPointCommonRuleTime?$AA@ ; `string'
PUBLIC	??_C@_0BP@KPKELIJF@GoblinPointCommonRuleTimePoint?$AA@ ; `string'
PUBLIC	??_C@_0BK@IEMLBBMA@GoblinPointFeverStartHour?$AA@ ; `string'
PUBLIC	??_C@_0BI@IMDDAKPK@GoblinPointFeverEndHour?$AA@	; `string'
PUBLIC	??_C@_0BO@CBAICLJ@GoblinPointFeverMultipleValue?$AA@ ; `string'
PUBLIC	??_C@_0DE@GKOHGEKD@?$FLGoblinPointSystem?$FN?$FLSetGoblinPoi@ ; `string'
PUBLIC	??_C@_0DH@OKDBODHM@?$FLGoblinPointSystem?$FN?$FLAdd?5Point?$FN?5?$FL@ ; `string'
PUBLIC	??_R4CGoblinPointSystem@@6B@			; CGoblinPointSystem::`RTTI Complete Object Locator'
PUBLIC	??_R0?AVCGoblinPointSystem@@@8			; CGoblinPointSystem `RTTI Type Descriptor'
PUBLIC	??_R3CGoblinPointSystem@@8			; CGoblinPointSystem::`RTTI Class Hierarchy Descriptor'
PUBLIC	??_R2CGoblinPointSystem@@8			; CGoblinPointSystem::`RTTI Base Class Array'
PUBLIC	??_R1A@?0A@EA@CGoblinPointSystem@@8		; CGoblinPointSystem::`RTTI Base Class Descriptor at (0,-1,0,64)'
EXTRN	??_M@YGXPAXIIP6EX0@Z@Z:PROC			; `eh vector destructor iterator'
EXTRN	??3@YAXPAXI@Z:PROC				; operator delete
EXTRN	??_V@YAXPAXI@Z:PROC				; operator delete[]
EXTRN	_atexit:PROC
EXTRN	__imp__GetLocalTime@4:PROC
EXTRN	__imp__GetTickCount@0:PROC
EXTRN	__imp__GetPrivateProfileIntA@16:PROC
EXTRN	??1CSkillDelay@@UAE@XZ:PROC			; CSkillDelay::~CSkillDelay
EXTRN	??1TMonsterAIAgro@@UAE@XZ:PROC			; TMonsterAIAgro::~TMonsterAIAgro
EXTRN	??_ECGoblinPointSystem@@UAEPAXI@Z:PROC		; CGoblinPointSystem::`vector deleting destructor'
EXTRN	?GetNewPath@CDirPath@@QAEPADPAD@Z:PROC		; CDirPath::GetNewPath
EXTRN	?DataSend@wsShopServerCli@@QAEHPADH@Z:PROC	; wsShopServerCli::DataSend
EXTRN	@__security_check_cookie@4:PROC
EXTRN	___CxxFrameHandler3:PROC
EXTRN	??_7type_info@@6B@:QWORD			; type_info::`vftable'
EXTRN	?LogAdd@@3P6AXPADZZA:DWORD			; LogAdd
EXTRN	?LogAddTD@@3P6AXPADZZA:DWORD			; LogAddTD
EXTRN	?m_ObjBill@@3PAVBILL_CLASS@@A:BYTE		; m_ObjBill
EXTRN	?gDirPath@@3VCDirPath@@A:BYTE			; gDirPath
EXTRN	?g_ShopServerClient@@3VwsShopServerCli@@A:BYTE	; g_ShopServerClient
EXTRN	___security_cookie:DWORD
_BSS	SEGMENT
?g_GoblinPointSystem@@3VCGoblinPointSystem@@A DQ 01H DUP (?) ; g_GoblinPointSystem
?GoblinPointCommonRuleTime@@3FA DW 01H DUP (?)		; GoblinPointCommonRuleTime
	ALIGN	4

?GoblinPointCommonRuleTimePoint@@3FA DW 01H DUP (?)	; GoblinPointCommonRuleTimePoint
	ALIGN	4

?GoblinPointFeverStartHour@@3FA DW 01H DUP (?)		; GoblinPointFeverStartHour
	ALIGN	4

?GoblinPointFeverEndHour@@3FA DW 01H DUP (?)		; GoblinPointFeverEndHour
	ALIGN	4

?GoblinPointFeverMultipleValue@@3FA DW 01H DUP (?)	; GoblinPointFeverMultipleValue
_BSS	ENDS
CRT$XCU	SEGMENT
?g_GoblinPointSystem$initializer$@@3P6AXXZA DD FLAT:??__Eg_GoblinPointSystem@@YAXXZ ; g_GoblinPointSystem$initializer$
CRT$XCU	ENDS
;	COMDAT ??_R1A@?0A@EA@CGoblinPointSystem@@8
rdata$r	SEGMENT
??_R1A@?0A@EA@CGoblinPointSystem@@8 DD FLAT:??_R0?AVCGoblinPointSystem@@@8 ; CGoblinPointSystem::`RTTI Base Class Descriptor at (0,-1,0,64)'
	DD	00H
	DD	00H
	DD	0ffffffffH
	DD	00H
	DD	040H
	DD	FLAT:??_R3CGoblinPointSystem@@8
rdata$r	ENDS
;	COMDAT ??_R2CGoblinPointSystem@@8
rdata$r	SEGMENT
??_R2CGoblinPointSystem@@8 DD FLAT:??_R1A@?0A@EA@CGoblinPointSystem@@8 ; CGoblinPointSystem::`RTTI Base Class Array'
rdata$r	ENDS
;	COMDAT ??_R3CGoblinPointSystem@@8
rdata$r	SEGMENT
??_R3CGoblinPointSystem@@8 DD 00H			; CGoblinPointSystem::`RTTI Class Hierarchy Descriptor'
	DD	00H
	DD	01H
	DD	FLAT:??_R2CGoblinPointSystem@@8
rdata$r	ENDS
;	COMDAT ??_R0?AVCGoblinPointSystem@@@8
data$r	SEGMENT
??_R0?AVCGoblinPointSystem@@@8 DD FLAT:??_7type_info@@6B@ ; CGoblinPointSystem `RTTI Type Descriptor'
	DD	00H
	DB	'.?AVCGoblinPointSystem@@', 00H
data$r	ENDS
;	COMDAT ??_R4CGoblinPointSystem@@6B@
rdata$r	SEGMENT
??_R4CGoblinPointSystem@@6B@ DD 00H			; CGoblinPointSystem::`RTTI Complete Object Locator'
	DD	00H
	DD	00H
	DD	FLAT:??_R0?AVCGoblinPointSystem@@@8
	DD	FLAT:??_R3CGoblinPointSystem@@8
rdata$r	ENDS
;	COMDAT ??_C@_0DH@OKDBODHM@?$FLGoblinPointSystem?$FN?$FLAdd?5Point?$FN?5?$FL@
CONST	SEGMENT
??_C@_0DH@OKDBODHM@?$FLGoblinPointSystem?$FN?$FLAdd?5Point?$FN?5?$FL@ DB '['
	DB	'GoblinPointSystem][Add Point] [%s] PointAdd: [%d][%d]', 00H ; `string'
CONST	ENDS
;	COMDAT ??_C@_0DE@GKOHGEKD@?$FLGoblinPointSystem?$FN?$FLSetGoblinPoi@
CONST	SEGMENT
??_C@_0DE@GKOHGEKD@?$FLGoblinPointSystem?$FN?$FLSetGoblinPoi@ DB '[Goblin'
	DB	'PointSystem][SetGoblinPointInfo] SystemOn:%d', 00H ; `string'
CONST	ENDS
;	COMDAT ??_C@_0BO@CBAICLJ@GoblinPointFeverMultipleValue?$AA@
CONST	SEGMENT
??_C@_0BO@CBAICLJ@GoblinPointFeverMultipleValue?$AA@ DB 'GoblinPointFever'
	DB	'MultipleValue', 00H				; `string'
CONST	ENDS
;	COMDAT ??_C@_0BI@IMDDAKPK@GoblinPointFeverEndHour?$AA@
CONST	SEGMENT
??_C@_0BI@IMDDAKPK@GoblinPointFeverEndHour?$AA@ DB 'GoblinPointFeverEndHo'
	DB	'ur', 00H					; `string'
CONST	ENDS
;	COMDAT ??_C@_0BK@IEMLBBMA@GoblinPointFeverStartHour?$AA@
CONST	SEGMENT
??_C@_0BK@IEMLBBMA@GoblinPointFeverStartHour?$AA@ DB 'GoblinPointFeverSta'
	DB	'rtHour', 00H				; `string'
CONST	ENDS
;	COMDAT ??_C@_0BP@KPKELIJF@GoblinPointCommonRuleTimePoint?$AA@
CONST	SEGMENT
??_C@_0BP@KPKELIJF@GoblinPointCommonRuleTimePoint?$AA@ DB 'GoblinPointCom'
	DB	'monRuleTimePoint', 00H			; `string'
CONST	ENDS
;	COMDAT ??_C@_0BK@KJGKDLEH@GoblinPointCommonRuleTime?$AA@
CONST	SEGMENT
??_C@_0BK@KJGKDLEH@GoblinPointCommonRuleTime?$AA@ DB 'GoblinPointCommonRu'
	DB	'leTime', 00H				; `string'
CONST	ENDS
;	COMDAT ??_C@_0P@EMJDPFDH@GameServerInfo?$AA@
CONST	SEGMENT
??_C@_0P@EMJDPFDH@GameServerInfo?$AA@ DB 'GameServerInfo', 00H ; `string'
CONST	ENDS
;	COMDAT ??_C@_0BE@KILGAPKL@GoblinPointSystemOn?$AA@
CONST	SEGMENT
??_C@_0BE@KILGAPKL@GoblinPointSystemOn?$AA@ DB 'GoblinPointSystemOn', 00H ; `string'
CONST	ENDS
;	COMDAT ??_C@_0BB@COIIOJMI@CommonServer?4cfg?$AA@
CONST	SEGMENT
??_C@_0BB@COIIOJMI@CommonServer?4cfg?$AA@ DB 'CommonServer.cfg', 00H ; `string'
CONST	ENDS
;	COMDAT ??_7CGoblinPointSystem@@6B@
CONST	SEGMENT
??_7CGoblinPointSystem@@6B@ DD FLAT:??_R4CGoblinPointSystem@@6B@ ; CGoblinPointSystem::`vftable'
	DD	FLAT:??_ECGoblinPointSystem@@UAEPAXI@Z
CONST	ENDS
;	COMDAT xdata$x
xdata$x	SEGMENT
__ehfuncinfo$??_EOBJECTSTRUCT@@QAEPAXI@Z DD 019930522H
	DD	00H
	DD	00H
	DD	2 DUP(00H)
	DD	2 DUP(00H)
	DD	00H
	DD	05H
xdata$x	ENDS
; Function compile flags: /Ogtp
;	COMDAT ??__Fg_GoblinPointSystem@@YAXXZ
text$yd	SEGMENT
??__Fg_GoblinPointSystem@@YAXXZ PROC			; `dynamic atexit destructor for 'g_GoblinPointSystem'', COMDAT
  00000	b9 00 00 00 00	 mov	 ecx, OFFSET ?g_GoblinPointSystem@@3VCGoblinPointSystem@@A ; g_GoblinPointSystem
  00005	e9 00 00 00 00	 jmp	 ??1CGoblinPointSystem@@UAE@XZ ; CGoblinPointSystem::~CGoblinPointSystem
??__Fg_GoblinPointSystem@@YAXXZ ENDP			; `dynamic atexit destructor for 'g_GoblinPointSystem''
text$yd	ENDS
; Function compile flags: /Ogtp
; File c:\users\michel\desktop\source\gameserver\source\pcbangpointsystem.cpp
;	COMDAT ??__Eg_GoblinPointSystem@@YAXXZ
text$di	SEGMENT
??__Eg_GoblinPointSystem@@YAXXZ PROC			; `dynamic initializer for 'g_GoblinPointSystem'', COMDAT

; 21   : CGoblinPointSystem g_GoblinPointSystem;

  00000	b9 00 00 00 00	 mov	 ecx, OFFSET ?g_GoblinPointSystem@@3VCGoblinPointSystem@@A ; g_GoblinPointSystem
  00005	e8 00 00 00 00	 call	 ??0CGoblinPointSystem@@QAE@XZ ; CGoblinPointSystem::CGoblinPointSystem
  0000a	68 00 00 00 00	 push	 OFFSET ??__Fg_GoblinPointSystem@@YAXXZ ; `dynamic atexit destructor for 'g_GoblinPointSystem''
  0000f	e8 00 00 00 00	 call	 _atexit
  00014	59		 pop	 ecx
  00015	c3		 ret	 0
??__Eg_GoblinPointSystem@@YAXXZ ENDP			; `dynamic initializer for 'g_GoblinPointSystem''
text$di	ENDS
; Function compile flags: /Ogtp
; File c:\users\michel\desktop\source\gameserver\source\pcsprotocol.h
;	COMDAT ??1MSG_GTOS_UPDATE_POINT_EX@protocol@@QAE@XZ
_TEXT	SEGMENT
??1MSG_GTOS_UPDATE_POINT_EX@protocol@@QAE@XZ PROC	; protocol::MSG_GTOS_UPDATE_POINT_EX::~MSG_GTOS_UPDATE_POINT_EX, COMDAT
; _this$ = ecx

; 638  : 		};

  00000	c3		 ret	 0
??1MSG_GTOS_UPDATE_POINT_EX@protocol@@QAE@XZ ENDP	; protocol::MSG_GTOS_UPDATE_POINT_EX::~MSG_GTOS_UPDATE_POINT_EX
_TEXT	ENDS
; Function compile flags: /Ogtp
; File c:\users\michel\desktop\source\gameserver\source\pcsprotocol.h
;	COMDAT ??0MSG_GTOS_UPDATE_POINT_EX@protocol@@QAE@XZ
_TEXT	SEGMENT
??0MSG_GTOS_UPDATE_POINT_EX@protocol@@QAE@XZ PROC	; protocol::MSG_GTOS_UPDATE_POINT_EX::MSG_GTOS_UPDATE_POINT_EX, COMDAT
; _this$ = ecx

; 630  : 		{
; 631  : 			this->size = sizeof(MSG_GTOS_UPDATE_POINT_EX);

  00000	c7 01 18 00 00
	00		 mov	 DWORD PTR [ecx], 24	; 00000018H

; 632  : 			this->hdrid.category = 0xF00;
; 633  : 			this->hdrid.messageID = 1;
; 634  : 		};

  00006	8b c1		 mov	 eax, ecx
  00008	c7 41 04 00 0f
	01 00		 mov	 DWORD PTR [ecx+4], 69376 ; 00010f00H
  0000f	c3		 ret	 0
??0MSG_GTOS_UPDATE_POINT_EX@protocol@@QAE@XZ ENDP	; protocol::MSG_GTOS_UPDATE_POINT_EX::MSG_GTOS_UPDATE_POINT_EX
_TEXT	ENDS
; Function compile flags: /Ogtp
;	COMDAT ??_GCGoblinPointSystem@@UAEPAXI@Z
_TEXT	SEGMENT
___flags$ = 8						; size = 4
??_GCGoblinPointSystem@@UAEPAXI@Z PROC			; CGoblinPointSystem::`scalar deleting destructor', COMDAT
; _this$ = ecx
  00000	55		 push	 ebp
  00001	8b ec		 mov	 ebp, esp
  00003	56		 push	 esi
  00004	8b f1		 mov	 esi, ecx
  00006	e8 00 00 00 00	 call	 ??1CGoblinPointSystem@@UAE@XZ ; CGoblinPointSystem::~CGoblinPointSystem
  0000b	f6 45 08 01	 test	 BYTE PTR ___flags$[ebp], 1
  0000f	74 0b		 je	 SHORT $LN4@scalar
  00011	6a 08		 push	 8
  00013	56		 push	 esi
  00014	e8 00 00 00 00	 call	 ??3@YAXPAXI@Z		; operator delete
  00019	83 c4 08	 add	 esp, 8
$LN4@scalar:
  0001c	8b c6		 mov	 eax, esi
  0001e	5e		 pop	 esi
  0001f	5d		 pop	 ebp
  00020	c2 04 00	 ret	 4
??_GCGoblinPointSystem@@UAEPAXI@Z ENDP			; CGoblinPointSystem::`scalar deleting destructor'
_TEXT	ENDS
; Function compile flags: /Ogtp
; File c:\users\michel\desktop\source\gameserver\source\pcbangpointsystem.cpp
; File c:\users\michel\desktop\source\gameserver\source\pcsprotocol.h
; File c:\users\michel\desktop\source\gameserver\source\pcbangpointsystem.cpp
;	COMDAT ?UserProc@CGoblinPointSystem@@QAEHPAUOBJECTSTRUCT@@@Z
_TEXT	SEGMENT
_pTime$ = -44						; size = 16
_pMsg$1 = -28						; size = 24
__$ArrayPad$ = -4					; size = 4
_lpObj$ = 8						; size = 4
?UserProc@CGoblinPointSystem@@QAEHPAUOBJECTSTRUCT@@@Z PROC ; CGoblinPointSystem::UserProc, COMDAT
; _this$ = ecx

; 47   : {

  00000	55		 push	 ebp
  00001	8b ec		 mov	 ebp, esp
  00003	83 ec 2c	 sub	 esp, 44			; 0000002cH
  00006	a1 00 00 00 00	 mov	 eax, DWORD PTR ___security_cookie
  0000b	33 c5		 xor	 eax, ebp
  0000d	89 45 fc	 mov	 DWORD PTR __$ArrayPad$[ebp], eax
  00010	56		 push	 esi
  00011	8b 75 08	 mov	 esi, DWORD PTR _lpObj$[ebp]

; 48   : 	if( lpObj->Type != OBJ_USER )

  00014	80 7e 50 01	 cmp	 BYTE PTR [esi+80], 1
  00018	75 1b		 jne	 SHORT $LN26@UserProc

; 49   : 		return true;
; 50   : 
; 51   : 	if( m_bEnabled == FALSE )

  0001a	83 79 04 00	 cmp	 DWORD PTR [ecx+4], 0
  0001e	74 15		 je	 SHORT $LN26@UserProc

; 52   : 		return true;
; 53   : 
; 54   : 	if( lpObj->GoblinPointTick <= 0 )

  00020	83 be 74 24 00
	00 00		 cmp	 DWORD PTR [esi+9332], 0
  00027	77 22		 ja	 SHORT $LN4@UserProc

; 55   : 	{
; 56   : 		lpObj->GoblinPointTick = GetTickCount();

  00029	ff 15 00 00 00
	00		 call	 DWORD PTR __imp__GetTickCount@0
  0002f	89 86 74 24 00
	00		 mov	 DWORD PTR [esi+9332], eax
$LN26@UserProc:

; 57   : 		return true;

  00035	b8 01 00 00 00	 mov	 eax, 1
  0003a	5e		 pop	 esi

; 109  : }

  0003b	8b 4d fc	 mov	 ecx, DWORD PTR __$ArrayPad$[ebp]
  0003e	33 cd		 xor	 ecx, ebp
  00040	e8 00 00 00 00	 call	 @__security_check_cookie@4
  00045	8b e5		 mov	 esp, ebp
  00047	5d		 pop	 ebp
  00048	c2 04 00	 ret	 4
$LN4@UserProc:

; 58   : 	}
; 59   : 
; 60   : #if (ENABLE_CUSTOM_OFFLINETRADE == 1)
; 61   : 	if( lpObj->bOffTrade )

  0004b	80 be 31 27 00
	00 00		 cmp	 BYTE PTR [esi+10033], 0
  00052	75 e1		 jne	 SHORT $LN26@UserProc

; 62   : 	{
; 63   : 		return true;
; 64   : 	}
; 65   : #endif
; 66   : 
; 67   : 	int bFever;
; 68   : 	SYSTEMTIME pTime;
; 69   : 	GetLocalTime(&pTime);

  00054	57		 push	 edi
  00055	8d 45 d4	 lea	 eax, DWORD PTR _pTime$[ebp]
  00058	50		 push	 eax
  00059	ff 15 00 00 00
	00		 call	 DWORD PTR __imp__GetLocalTime@4

; 70   : 
; 71   : 	bFever = FALSE;
; 72   : 
; 73   : 	if( GoblinPointFeverStartHour <= GoblinPointFeverEndHour )

  0005f	66 a1 00 00 00
	00		 mov	 ax, WORD PTR ?GoblinPointFeverStartHour@@3FA
  00065	33 ff		 xor	 edi, edi
  00067	66 8b 0d 00 00
	00 00		 mov	 cx, WORD PTR ?GoblinPointFeverEndHour@@3FA

; 74   : 	{
; 75   : 		if( pTime.wHour >= GoblinPointFeverStartHour && pTime.wHour < GoblinPointFeverEndHour )

  0006e	0f b7 55 dc	 movzx	 edx, WORD PTR _pTime$[ebp+8]
  00072	66 3b c1	 cmp	 ax, cx
  00075	98		 cwde
  00076	7f 06		 jg	 SHORT $LN6@UserProc
  00078	3b d0		 cmp	 edx, eax
  0007a	7c 12		 jl	 SHORT $LN9@UserProc

; 76   : 		{
; 77   : 			bFever = TRUE;
; 78   : 		}
; 79   : 	}

  0007c	eb 04		 jmp	 SHORT $LN25@UserProc
$LN6@UserProc:

; 80   : 	else if( pTime.wHour >= GoblinPointFeverStartHour ||

  0007e	3b d0		 cmp	 edx, eax
  00080	7d 07		 jge	 SHORT $LN10@UserProc
$LN25@UserProc:
  00082	0f bf c1	 movsx	 eax, cx
  00085	3b d0		 cmp	 edx, eax
  00087	7d 05		 jge	 SHORT $LN9@UserProc
$LN10@UserProc:

; 81   : 		     pTime.wHour < GoblinPointFeverEndHour )
; 82   : 	{
; 83   : 		bFever = TRUE;

  00089	bf 01 00 00 00	 mov	 edi, 1
$LN9@UserProc:

; 84   : 	}
; 85   : 
; 86   : 	DWORD tmSec = (GetTickCount() - lpObj->GoblinPointTick) / 1000;

  0008e	ff 15 00 00 00
	00		 call	 DWORD PTR __imp__GetTickCount@0
  00094	8b c8		 mov	 ecx, eax
  00096	b8 d3 4d 62 10	 mov	 eax, 274877907		; 10624dd3H
  0009b	2b 8e 74 24 00
	00		 sub	 ecx, DWORD PTR [esi+9332]
  000a1	f7 e1		 mul	 ecx

; 87   : 
; 88   : 	if( tmSec >= (DWORD)GoblinPointCommonRuleTime )

  000a3	0f bf 05 00 00
	00 00		 movsx	 eax, WORD PTR ?GoblinPointCommonRuleTime@@3FA
  000aa	b9 01 00 00 00	 mov	 ecx, 1
  000af	c1 ea 06	 shr	 edx, 6
  000b2	3b d0		 cmp	 edx, eax
  000b4	0f 82 94 00 00
	00		 jb	 $LN22@UserProc

; 89   : 	{
; 90   : 		lpObj->GoblinPointTick = GetTickCount();

  000ba	ff 15 00 00 00
	00		 call	 DWORD PTR __imp__GetTickCount@0
  000c0	89 86 74 24 00
	00		 mov	 DWORD PTR [esi+9332], eax

; 91   : 
; 92   : 		int IncPt = (bFever == TRUE) ? ( GoblinPointCommonRuleTimePoint * GoblinPointFeverMultipleValue ) : GoblinPointCommonRuleTimePoint;

  000c6	83 ff 01	 cmp	 edi, 1
  000c9	75 13		 jne	 SHORT $LN13@UserProc
  000cb	0f bf 3d 00 00
	00 00		 movsx	 edi, WORD PTR ?GoblinPointFeverMultipleValue@@3FA
  000d2	0f bf 05 00 00
	00 00		 movsx	 eax, WORD PTR ?GoblinPointCommonRuleTimePoint@@3FA
  000d9	0f af f8	 imul	 edi, eax
  000dc	eb 07		 jmp	 SHORT $LN14@UserProc
$LN13@UserProc:
  000de	0f bf 3d 00 00
	00 00		 movsx	 edi, WORD PTR ?GoblinPointCommonRuleTimePoint@@3FA
$LN14@UserProc:

; 93   : 		IncPt += m_ObjBill[lpObj->m_Index].GetGPBonus();

  000e5	8b 06		 mov	 eax, DWORD PTR [esi]

; 100  : 		pMsg.dwAddPoint[2] = IncPt;
; 101  : 
; 102  : 		g_ShopServerClient.DataSend((PCHAR)&pMsg,sizeof(pMsg));

  000e7	b9 00 00 00 00	 mov	 ecx, OFFSET ?g_ShopServerClient@@3VwsShopServerCli@@A ; g_ShopServerClient
  000ec	6a 18		 push	 24			; 00000018H
; File c:\users\michel\desktop\source\gameserver\source\pcsprotocol.h

; 631  : 			this->size = sizeof(MSG_GTOS_UPDATE_POINT_EX);

  000ee	c7 45 e4 18 00
	00 00		 mov	 DWORD PTR _pMsg$1[ebp], 24 ; 00000018H

; 632  : 			this->hdrid.category = 0xF00;

  000f5	c7 45 e8 00 0f
	01 00		 mov	 DWORD PTR _pMsg$1[ebp+4], 69376 ; 00010f00H
; File c:\users\michel\desktop\source\gameserver\source\pcbangpointsystem.cpp

; 93   : 		IncPt += m_ObjBill[lpObj->m_Index].GetGPBonus();

  000fc	8d 04 40	 lea	 eax, DWORD PTR [eax+eax*2]

; 94   : 
; 95   : 		protocol::MSG_GTOS_UPDATE_POINT_EX pMsg;
; 96   : 
; 97   : 		pMsg.dwUserGuid = lpObj->DBNumber;
; 98   : 		pMsg.dwAddPoint[0] = 0;

  000ff	c7 45 f0 00 00
	00 00		 mov	 DWORD PTR _pMsg$1[ebp+12], 0
  00106	c1 e0 04	 shl	 eax, 4

; 99   : 		pMsg.dwAddPoint[1] = 0;

  00109	c7 45 f4 00 00
	00 00		 mov	 DWORD PTR _pMsg$1[ebp+16], 0
  00110	03 b8 2c 00 00
	00		 add	 edi, DWORD PTR ?m_ObjBill@@3PAVBILL_CLASS@@A[eax+44]
  00116	8b 46 30	 mov	 eax, DWORD PTR [esi+48]
  00119	89 45 ec	 mov	 DWORD PTR _pMsg$1[ebp+8], eax

; 100  : 		pMsg.dwAddPoint[2] = IncPt;
; 101  : 
; 102  : 		g_ShopServerClient.DataSend((PCHAR)&pMsg,sizeof(pMsg));

  0011c	8d 45 e4	 lea	 eax, DWORD PTR _pMsg$1[ebp]
  0011f	50		 push	 eax
  00120	89 7d f8	 mov	 DWORD PTR _pMsg$1[ebp+20], edi
  00123	e8 00 00 00 00	 call	 ?DataSend@wsShopServerCli@@QAEHPADH@Z ; wsShopServerCli::DataSend

; 103  : 		
; 104  : 		LogAddTD("[GoblinPointSystem][Add Point] [%s] PointAdd: [%d][%d]",

  00128	8b 06		 mov	 eax, DWORD PTR [esi]
  0012a	8d 0c 40	 lea	 ecx, DWORD PTR [eax+eax*2]
  0012d	c1 e1 04	 shl	 ecx, 4
  00130	ff b1 2c 00 00
	00		 push	 DWORD PTR ?m_ObjBill@@3PAVBILL_CLASS@@A[ecx+44]
  00136	8d 4e 52	 lea	 ecx, DWORD PTR [esi+82]
  00139	57		 push	 edi
  0013a	51		 push	 ecx
  0013b	68 00 00 00 00	 push	 OFFSET ??_C@_0DH@OKDBODHM@?$FLGoblinPointSystem?$FN?$FLAdd?5Point?$FN?5?$FL@
  00140	ff 15 00 00 00
	00		 call	 DWORD PTR ?LogAddTD@@3P6AXPADZZA ; LogAddTD
  00146	83 c4 10	 add	 esp, 16			; 00000010H
  00149	b9 01 00 00 00	 mov	 ecx, 1
$LN22@UserProc:

; 105  : 			lpObj->AccountID, IncPt, m_ObjBill[lpObj->m_Index].GetGPBonus());
; 106  : 	}
; 107  : 
; 108  : return true;

  0014e	8b c1		 mov	 eax, ecx

; 109  : }

  00150	8b 4d fc	 mov	 ecx, DWORD PTR __$ArrayPad$[ebp]
  00153	5f		 pop	 edi
  00154	33 cd		 xor	 ecx, ebp
  00156	5e		 pop	 esi
  00157	e8 00 00 00 00	 call	 @__security_check_cookie@4
  0015c	8b e5		 mov	 esp, ebp
  0015e	5d		 pop	 ebp
  0015f	c2 04 00	 ret	 4
?UserProc@CGoblinPointSystem@@QAEHPAUOBJECTSTRUCT@@@Z ENDP ; CGoblinPointSystem::UserProc
_TEXT	ENDS
; Function compile flags: /Ogtp
; File c:\users\michel\desktop\source\gameserver\source\pcbangpointsystem.cpp
;	COMDAT ?LoadData@CGoblinPointSystem@@QAEHXZ
_TEXT	SEGMENT
?LoadData@CGoblinPointSystem@@QAEHXZ PROC		; CGoblinPointSystem::LoadData, COMDAT
; _this$ = ecx

; 32   : {

  00000	56		 push	 esi
  00001	57		 push	 edi
  00002	8b f9		 mov	 edi, ecx

; 33   : 	m_bEnabled = GetPrivateProfileInt("GameServerInfo","GoblinPointSystemOn",1, gDirPath.GetNewPath(FILE_SERVER_COMMON));

  00004	b9 00 00 00 00	 mov	 ecx, OFFSET ?gDirPath@@3VCDirPath@@A ; gDirPath
  00009	68 00 00 00 00	 push	 OFFSET ??_C@_0BB@COIIOJMI@CommonServer?4cfg?$AA@
  0000e	e8 00 00 00 00	 call	 ?GetNewPath@CDirPath@@QAEPADPAD@Z ; CDirPath::GetNewPath
  00013	8b 35 00 00 00
	00		 mov	 esi, DWORD PTR __imp__GetPrivateProfileIntA@16
  00019	50		 push	 eax
  0001a	6a 01		 push	 1
  0001c	68 00 00 00 00	 push	 OFFSET ??_C@_0BE@KILGAPKL@GoblinPointSystemOn?$AA@
  00021	68 00 00 00 00	 push	 OFFSET ??_C@_0P@EMJDPFDH@GameServerInfo?$AA@
  00026	ff d6		 call	 esi

; 34   : 
; 35   : 	GoblinPointCommonRuleTime = GetPrivateProfileInt("GameServerInfo","GoblinPointCommonRuleTime",1, gDirPath.GetNewPath(FILE_SERVER_COMMON));

  00028	68 00 00 00 00	 push	 OFFSET ??_C@_0BB@COIIOJMI@CommonServer?4cfg?$AA@
  0002d	b9 00 00 00 00	 mov	 ecx, OFFSET ?gDirPath@@3VCDirPath@@A ; gDirPath
  00032	89 47 04	 mov	 DWORD PTR [edi+4], eax
  00035	e8 00 00 00 00	 call	 ?GetNewPath@CDirPath@@QAEPADPAD@Z ; CDirPath::GetNewPath
  0003a	50		 push	 eax
  0003b	6a 01		 push	 1
  0003d	68 00 00 00 00	 push	 OFFSET ??_C@_0BK@KJGKDLEH@GoblinPointCommonRuleTime?$AA@
  00042	68 00 00 00 00	 push	 OFFSET ??_C@_0P@EMJDPFDH@GameServerInfo?$AA@
  00047	ff d6		 call	 esi

; 36   : 	GoblinPointCommonRuleTimePoint = GetPrivateProfileInt("GameServerInfo","GoblinPointCommonRuleTimePoint",1, gDirPath.GetNewPath(FILE_SERVER_COMMON));

  00049	68 00 00 00 00	 push	 OFFSET ??_C@_0BB@COIIOJMI@CommonServer?4cfg?$AA@
  0004e	b9 00 00 00 00	 mov	 ecx, OFFSET ?gDirPath@@3VCDirPath@@A ; gDirPath
  00053	66 a3 00 00 00
	00		 mov	 WORD PTR ?GoblinPointCommonRuleTime@@3FA, ax
  00059	e8 00 00 00 00	 call	 ?GetNewPath@CDirPath@@QAEPADPAD@Z ; CDirPath::GetNewPath
  0005e	50		 push	 eax
  0005f	6a 01		 push	 1
  00061	68 00 00 00 00	 push	 OFFSET ??_C@_0BP@KPKELIJF@GoblinPointCommonRuleTimePoint?$AA@
  00066	68 00 00 00 00	 push	 OFFSET ??_C@_0P@EMJDPFDH@GameServerInfo?$AA@
  0006b	ff d6		 call	 esi

; 37   : 	GoblinPointFeverStartHour = GetPrivateProfileInt("GameServerInfo","GoblinPointFeverStartHour",1, gDirPath.GetNewPath(FILE_SERVER_COMMON));

  0006d	68 00 00 00 00	 push	 OFFSET ??_C@_0BB@COIIOJMI@CommonServer?4cfg?$AA@
  00072	b9 00 00 00 00	 mov	 ecx, OFFSET ?gDirPath@@3VCDirPath@@A ; gDirPath
  00077	66 a3 00 00 00
	00		 mov	 WORD PTR ?GoblinPointCommonRuleTimePoint@@3FA, ax
  0007d	e8 00 00 00 00	 call	 ?GetNewPath@CDirPath@@QAEPADPAD@Z ; CDirPath::GetNewPath
  00082	50		 push	 eax
  00083	6a 01		 push	 1
  00085	68 00 00 00 00	 push	 OFFSET ??_C@_0BK@IEMLBBMA@GoblinPointFeverStartHour?$AA@
  0008a	68 00 00 00 00	 push	 OFFSET ??_C@_0P@EMJDPFDH@GameServerInfo?$AA@
  0008f	ff d6		 call	 esi

; 38   : 	GoblinPointFeverEndHour = GetPrivateProfileInt("GameServerInfo","GoblinPointFeverEndHour",1, gDirPath.GetNewPath(FILE_SERVER_COMMON));

  00091	68 00 00 00 00	 push	 OFFSET ??_C@_0BB@COIIOJMI@CommonServer?4cfg?$AA@
  00096	b9 00 00 00 00	 mov	 ecx, OFFSET ?gDirPath@@3VCDirPath@@A ; gDirPath
  0009b	66 a3 00 00 00
	00		 mov	 WORD PTR ?GoblinPointFeverStartHour@@3FA, ax
  000a1	e8 00 00 00 00	 call	 ?GetNewPath@CDirPath@@QAEPADPAD@Z ; CDirPath::GetNewPath
  000a6	50		 push	 eax
  000a7	6a 01		 push	 1
  000a9	68 00 00 00 00	 push	 OFFSET ??_C@_0BI@IMDDAKPK@GoblinPointFeverEndHour?$AA@
  000ae	68 00 00 00 00	 push	 OFFSET ??_C@_0P@EMJDPFDH@GameServerInfo?$AA@
  000b3	ff d6		 call	 esi

; 39   : 	GoblinPointFeverMultipleValue = GetPrivateProfileInt("GameServerInfo","GoblinPointFeverMultipleValue",1, gDirPath.GetNewPath(FILE_SERVER_COMMON));

  000b5	68 00 00 00 00	 push	 OFFSET ??_C@_0BB@COIIOJMI@CommonServer?4cfg?$AA@
  000ba	b9 00 00 00 00	 mov	 ecx, OFFSET ?gDirPath@@3VCDirPath@@A ; gDirPath
  000bf	66 a3 00 00 00
	00		 mov	 WORD PTR ?GoblinPointFeverEndHour@@3FA, ax
  000c5	e8 00 00 00 00	 call	 ?GetNewPath@CDirPath@@QAEPADPAD@Z ; CDirPath::GetNewPath
  000ca	50		 push	 eax
  000cb	6a 01		 push	 1
  000cd	68 00 00 00 00	 push	 OFFSET ??_C@_0BO@CBAICLJ@GoblinPointFeverMultipleValue?$AA@
  000d2	68 00 00 00 00	 push	 OFFSET ??_C@_0P@EMJDPFDH@GameServerInfo?$AA@
  000d7	ff d6		 call	 esi

; 40   : 
; 41   : 	LogAdd("[GoblinPointSystem][SetGoblinPointInfo] SystemOn:%d", m_bEnabled);

  000d9	ff 77 04	 push	 DWORD PTR [edi+4]
  000dc	66 a3 00 00 00
	00		 mov	 WORD PTR ?GoblinPointFeverMultipleValue@@3FA, ax
  000e2	68 00 00 00 00	 push	 OFFSET ??_C@_0DE@GKOHGEKD@?$FLGoblinPointSystem?$FN?$FLSetGoblinPoi@
  000e7	ff 15 00 00 00
	00		 call	 DWORD PTR ?LogAdd@@3P6AXPADZZA ; LogAdd
  000ed	83 c4 08	 add	 esp, 8

; 42   : 
; 43   : return TRUE;

  000f0	b8 01 00 00 00	 mov	 eax, 1
  000f5	5f		 pop	 edi
  000f6	5e		 pop	 esi

; 44   : }

  000f7	c3		 ret	 0
?LoadData@CGoblinPointSystem@@QAEHXZ ENDP		; CGoblinPointSystem::LoadData
_TEXT	ENDS
; Function compile flags: /Ogtp
; File c:\users\michel\desktop\source\gameserver\source\pcbangpointsystem.cpp
;	COMDAT ??1CGoblinPointSystem@@UAE@XZ
_TEXT	SEGMENT
??1CGoblinPointSystem@@UAE@XZ PROC			; CGoblinPointSystem::~CGoblinPointSystem, COMDAT
; _this$ = ecx

; 28   : {

  00000	c7 01 00 00 00
	00		 mov	 DWORD PTR [ecx], OFFSET ??_7CGoblinPointSystem@@6B@

; 29   : }

  00006	c3		 ret	 0
??1CGoblinPointSystem@@UAE@XZ ENDP			; CGoblinPointSystem::~CGoblinPointSystem
_TEXT	ENDS
; Function compile flags: /Ogtp
; File c:\users\michel\desktop\source\gameserver\source\pcbangpointsystem.cpp
;	COMDAT ??0CGoblinPointSystem@@QAE@XZ
_TEXT	SEGMENT
??0CGoblinPointSystem@@QAE@XZ PROC			; CGoblinPointSystem::CGoblinPointSystem, COMDAT
; _this$ = ecx

; 24   : {

  00000	c7 01 00 00 00
	00		 mov	 DWORD PTR [ecx], OFFSET ??_7CGoblinPointSystem@@6B@

; 25   : }

  00006	8b c1		 mov	 eax, ecx
  00008	c3		 ret	 0
??0CGoblinPointSystem@@QAE@XZ ENDP			; CGoblinPointSystem::CGoblinPointSystem
_TEXT	ENDS
; Function compile flags: /Ogtp
; File c:\users\michel\desktop\source\gameserver\source\user.h
;	COMDAT ?GetGPBonus@BILL_CLASS@@QAEHXZ
_TEXT	SEGMENT
?GetGPBonus@BILL_CLASS@@QAEHXZ PROC			; BILL_CLASS::GetGPBonus, COMDAT
; _this$ = ecx

; 2033 : 	int GetGPBonus() { return GPBonus; };

  00000	8b 41 2c	 mov	 eax, DWORD PTR [ecx+44]
  00003	c3		 ret	 0
?GetGPBonus@BILL_CLASS@@QAEHXZ ENDP			; BILL_CLASS::GetGPBonus
_TEXT	ENDS
; Function compile flags: /Ogtp
;	COMDAT ??_EOBJECTSTRUCT@@QAEPAXI@Z
_TEXT	SEGMENT
__$EHRec$ = -12						; size = 12
___flags$ = 8						; size = 4
??_EOBJECTSTRUCT@@QAEPAXI@Z PROC			; OBJECTSTRUCT::`vector deleting destructor', COMDAT
; _this$ = ecx
  00000	55		 push	 ebp
  00001	8b ec		 mov	 ebp, esp
  00003	6a ff		 push	 -1
  00005	68 00 00 00 00	 push	 __ehhandler$??_EOBJECTSTRUCT@@QAEPAXI@Z
  0000a	64 a1 00 00 00
	00		 mov	 eax, DWORD PTR fs:0
  00010	50		 push	 eax
  00011	53		 push	 ebx
  00012	56		 push	 esi
  00013	57		 push	 edi
  00014	a1 00 00 00 00	 mov	 eax, DWORD PTR ___security_cookie
  00019	33 c5		 xor	 eax, ebp
  0001b	50		 push	 eax
  0001c	8d 45 f4	 lea	 eax, DWORD PTR __$EHRec$[ebp]
  0001f	64 a3 00 00 00
	00		 mov	 DWORD PTR fs:0, eax
  00025	8b f1		 mov	 esi, ecx
  00027	8b 5d 08	 mov	 ebx, DWORD PTR ___flags$[ebp]
  0002a	f6 c3 02	 test	 bl, 2
  0002d	74 44		 je	 SHORT $LN2@vector
  0002f	68 00 00 00 00	 push	 OFFSET ??1OBJECTSTRUCT@@QAE@XZ
  00034	ff 76 fc	 push	 DWORD PTR [esi-4]
  00037	8d 7e fc	 lea	 edi, DWORD PTR [esi-4]
  0003a	68 40 27 00 00	 push	 10048			; 00002740H
  0003f	56		 push	 esi
  00040	e8 00 00 00 00	 call	 ??_M@YGXPAXIIP6EX0@Z@Z
  00045	f6 c3 01	 test	 bl, 1
  00048	74 13		 je	 SHORT $LN3@vector
  0004a	69 0f 40 27 00
	00		 imul	 ecx, DWORD PTR [edi], 10048
  00050	83 c1 04	 add	 ecx, 4
  00053	51		 push	 ecx
  00054	57		 push	 edi
  00055	e8 00 00 00 00	 call	 ??_V@YAXPAXI@Z		; operator delete[]
  0005a	83 c4 08	 add	 esp, 8
$LN3@vector:
  0005d	8b c7		 mov	 eax, edi
  0005f	8b 4d f4	 mov	 ecx, DWORD PTR __$EHRec$[ebp]
  00062	64 89 0d 00 00
	00 00		 mov	 DWORD PTR fs:0, ecx
  00069	59		 pop	 ecx
  0006a	5f		 pop	 edi
  0006b	5e		 pop	 esi
  0006c	5b		 pop	 ebx
  0006d	8b e5		 mov	 esp, ebp
  0006f	5d		 pop	 ebp
  00070	c2 04 00	 ret	 4
$LN2@vector:
  00073	8d 8e ec 20 00
	00		 lea	 ecx, DWORD PTR [esi+8428]
  00079	e8 00 00 00 00	 call	 ??1TMonsterAIAgro@@UAE@XZ ; TMonsterAIAgro::~TMonsterAIAgro
  0007e	8d 8e 0c 16 00
	00		 lea	 ecx, DWORD PTR [esi+5644]
  00084	e8 00 00 00 00	 call	 ??1CSkillDelay@@UAE@XZ	; CSkillDelay::~CSkillDelay
  00089	f6 c3 01	 test	 bl, 1
  0008c	74 0e		 je	 SHORT $LN4@vector
  0008e	68 40 27 00 00	 push	 10048			; 00002740H
  00093	56		 push	 esi
  00094	e8 00 00 00 00	 call	 ??3@YAXPAXI@Z		; operator delete
  00099	83 c4 08	 add	 esp, 8
$LN4@vector:
  0009c	8b c6		 mov	 eax, esi
  0009e	8b 4d f4	 mov	 ecx, DWORD PTR __$EHRec$[ebp]
  000a1	64 89 0d 00 00
	00 00		 mov	 DWORD PTR fs:0, ecx
  000a8	59		 pop	 ecx
  000a9	5f		 pop	 edi
  000aa	5e		 pop	 esi
  000ab	5b		 pop	 ebx
  000ac	8b e5		 mov	 esp, ebp
  000ae	5d		 pop	 ebp
  000af	c2 04 00	 ret	 4
_TEXT	ENDS
;	COMDAT text$x
text$x	SEGMENT
__ehhandler$??_EOBJECTSTRUCT@@QAEPAXI@Z:
  00000	8b 54 24 08	 mov	 edx, DWORD PTR [esp+8]
  00004	8d 42 0c	 lea	 eax, DWORD PTR [edx+12]
  00007	8b 4a f0	 mov	 ecx, DWORD PTR [edx-16]
  0000a	33 c8		 xor	 ecx, eax
  0000c	e8 00 00 00 00	 call	 @__security_check_cookie@4
  00011	b8 00 00 00 00	 mov	 eax, OFFSET __ehfuncinfo$??_EOBJECTSTRUCT@@QAEPAXI@Z
  00016	e9 00 00 00 00	 jmp	 ___CxxFrameHandler3
text$x	ENDS
??_EOBJECTSTRUCT@@QAEPAXI@Z ENDP			; OBJECTSTRUCT::`vector deleting destructor'
; Function compile flags: /Ogtp
;	COMDAT ??1OBJECTSTRUCT@@QAE@XZ
_TEXT	SEGMENT
??1OBJECTSTRUCT@@QAE@XZ PROC				; OBJECTSTRUCT::~OBJECTSTRUCT, COMDAT
; _this$ = ecx
  00000	56		 push	 esi
  00001	8b f1		 mov	 esi, ecx
  00003	8d 8e ec 20 00
	00		 lea	 ecx, DWORD PTR [esi+8428]
  00009	e8 00 00 00 00	 call	 ??1TMonsterAIAgro@@UAE@XZ ; TMonsterAIAgro::~TMonsterAIAgro
  0000e	8d 8e 0c 16 00
	00		 lea	 ecx, DWORD PTR [esi+5644]
  00014	5e		 pop	 esi
  00015	e9 00 00 00 00	 jmp	 ??1CSkillDelay@@UAE@XZ	; CSkillDelay::~CSkillDelay
??1OBJECTSTRUCT@@QAE@XZ ENDP				; OBJECTSTRUCT::~OBJECTSTRUCT
_TEXT	ENDS
; Function compile flags: /Ogtp
; File c:\users\michel\desktop\source\gameserver\source\pcbangpointsystem.cpp
;	COMDAT ?__empty_global_delete@@YAXPAXI@Z
_TEXT	SEGMENT
___formal$ = 8						; size = 4
___formal$ = 12						; size = 4
?__empty_global_delete@@YAXPAXI@Z PROC			; __empty_global_delete, COMDAT

  00000	c3		 ret	 0
?__empty_global_delete@@YAXPAXI@Z ENDP			; __empty_global_delete
_TEXT	ENDS
; Function compile flags: /Ogtp
; File c:\users\michel\desktop\source\gameserver\source\pcbangpointsystem.cpp
;	COMDAT ?__empty_global_delete@@YAXPAX@Z
_TEXT	SEGMENT
___formal$ = 8						; size = 4
?__empty_global_delete@@YAXPAX@Z PROC			; __empty_global_delete, COMDAT

  00000	c3		 ret	 0
?__empty_global_delete@@YAXPAX@Z ENDP			; __empty_global_delete
_TEXT	ENDS
; Function compile flags: /Ogtp
;	COMDAT ??_H@YGXPAXIIP6EPAX0@Z@Z
_TEXT	SEGMENT
___t$ = 8						; size = 4
___s$ = 12						; size = 4
___n$ = 16						; size = 4
___f$ = 20						; size = 4
??_H@YGXPAXIIP6EPAX0@Z@Z PROC				; `vector constructor iterator', COMDAT
  00000	55		 push	 ebp
  00001	8b ec		 mov	 ebp, esp
  00003	56		 push	 esi
  00004	8b 75 10	 mov	 esi, DWORD PTR ___n$[ebp]
  00007	85 f6		 test	 esi, esi
  00009	74 16		 je	 SHORT $LN6@vector
  0000b	53		 push	 ebx
  0000c	8b 5d 14	 mov	 ebx, DWORD PTR ___f$[ebp]
  0000f	57		 push	 edi
  00010	8b 7d 08	 mov	 edi, DWORD PTR ___t$[ebp]
$LL2@vector:
  00013	8b cf		 mov	 ecx, edi
  00015	ff d3		 call	 ebx
  00017	03 7d 0c	 add	 edi, DWORD PTR ___s$[ebp]
  0001a	83 ee 01	 sub	 esi, 1
  0001d	75 f4		 jne	 SHORT $LL2@vector
  0001f	5f		 pop	 edi
  00020	5b		 pop	 ebx
$LN6@vector:
  00021	5e		 pop	 esi
  00022	5d		 pop	 ebp
  00023	c2 10 00	 ret	 16			; 00000010H
??_H@YGXPAXIIP6EPAX0@Z@Z ENDP				; `vector constructor iterator'
_TEXT	ENDS
END
