; Listing generated by Microsoft (R) Optimizing Compiler Version 19.00.23506.0 

	TITLE	C:\Users\Michel\Desktop\Source\GameServer\Source\protocol.cpp
	.686P
	.XMM
	include listing.inc
	.model	flat

INCLUDELIB LIBCMT
INCLUDELIB OLDNAMES

PUBLIC	?ltesttime@@3HA					; ltesttime
PUBLIC	?logincounttest@@3HA				; logincounttest
PUBLIC	?tempindex@@3HA					; tempindex
PUBLIC	?iCount@@3HA					; iCount
_BSS	SEGMENT
?ltesttime@@3HA DD 01H DUP (?)				; ltesttime
?logincounttest@@3HA DD 01H DUP (?)			; logincounttest
?tempindex@@3HA DD 01H DUP (?)				; tempindex
?iCount@@3HA DD	01H DUP (?)				; iCount
_BSS	ENDS
PUBLIC	??_H@YGXPAXIIP6EPAX0@Z@Z			; `vector constructor iterator'
PUBLIC	?__empty_global_delete@@YAXPAX@Z		; __empty_global_delete
PUBLIC	?__empty_global_delete@@YAXPAXI@Z		; __empty_global_delete
PUBLIC	___local_stdio_printf_options
PUBLIC	??$__vcrt_va_start_verify_argument_type@QBD@@YAXXZ ; __vcrt_va_start_verify_argument_type<char const * const>
PUBLIC	_sprintf
PUBLIC	_sprintf_s
PUBLIC	?compare@?$char_traits@D@std@@SAHPBD0I@Z	; std::char_traits<char>::compare
PUBLIC	?allocate@?$allocator@D@std@@QAEPADI@Z		; std::allocator<char>::allocate
PUBLIC	?deallocate@?$_Wrap_alloc@V?$allocator@D@std@@@std@@QAEXPADI@Z ; std::_Wrap_alloc<std::allocator<char> >::deallocate
PUBLIC	?assign@?$basic_string@DU?$char_traits@D@std@@V?$allocator@D@2@@std@@QAEAAV12@ABV12@II@Z ; std::basic_string<char,std::char_traits<char>,std::allocator<char> >::assign
PUBLIC	?assign@?$basic_string@DU?$char_traits@D@std@@V?$allocator@D@2@@std@@QAEAAV12@PBDI@Z ; std::basic_string<char,std::char_traits<char>,std::allocator<char> >::assign
PUBLIC	?erase@?$basic_string@DU?$char_traits@D@std@@V?$allocator@D@2@@std@@QAEAAV12@II@Z ; std::basic_string<char,std::char_traits<char>,std::allocator<char> >::erase
PUBLIC	?find@?$basic_string@DU?$char_traits@D@std@@V?$allocator@D@2@@std@@QBEIPBDII@Z ; std::basic_string<char,std::char_traits<char>,std::allocator<char> >::find
PUBLIC	?_Copy@?$basic_string@DU?$char_traits@D@std@@V?$allocator@D@2@@std@@QAEXII@Z ; std::basic_string<char,std::char_traits<char>,std::allocator<char> >::_Copy
PUBLIC	?isValidChatSyntax@ZTHelper@@SA_NPBD@Z		; ZTHelper::isValidChatSyntax
PUBLIC	??$__vcrt_va_start_verify_argument_type@PBD@@YAXXZ ; __vcrt_va_start_verify_argument_type<char const *>
PUBLIC	?IsValidDurationTime@TDurMagicKeyChecker@@QAEHE@Z ; TDurMagicKeyChecker::IsValidDurationTime
PUBLIC	?SetDurationTime@TDurMagicKeyChecker@@QAEXEK@Z	; TDurMagicKeyChecker::SetDurationTime
PUBLIC	?GetValidDurationTime@TDurMagicKeyChecker@@QAEHE@Z ; TDurMagicKeyChecker::GetValidDurationTime
PUBLIC	?GetValidCount@TDurMagicKeyChecker@@QAEHE@Z	; TDurMagicKeyChecker::GetValidCount
PUBLIC	??$__vcrt_va_start_verify_argument_type@PAD@@YAXXZ ; __vcrt_va_start_verify_argument_type<char *>
PUBLIC	??1OBJECTSTRUCT@@QAE@XZ				; OBJECTSTRUCT::~OBJECTSTRUCT
PUBLIC	??_EOBJECTSTRUCT@@QAEPAXI@Z			; OBJECTSTRUCT::`vector deleting destructor'
PUBLIC	?ProtocolCore@@YAXEPAEHHHH@Z			; ProtocolCore
PUBLIC	?TestSend@@YAXXZ				; TestSend
PUBLIC	?MsgSendV2@@YAXPAUOBJECTSTRUCT@@PAEH@Z		; MsgSendV2
PUBLIC	?CGLiveClient@@YAXPAUPMSG_CLIENTTIME@@F@Z	; CGLiveClient
PUBLIC	?GCCheckMainExeKeySend@@YAXH@Z			; GCCheckMainExeKeySend
PUBLIC	?EncryptCheckSumKey@@YAGG@Z			; EncryptCheckSumKey
PUBLIC	?CGCheckMainRecv@@YAXPAUPMSG_CHECK_MAINEXE_RESULT@@H@Z ; CGCheckMainRecv
PUBLIC	?PEchoProc@@YAXPAEHF@Z				; PEchoProc
PUBLIC	?GCResultSend@@YAXHEE@Z				; GCResultSend
PUBLIC	?ChatSend@@YAXPAUOBJECTSTRUCT@@PAD@Z		; ChatSend
PUBLIC	?vChatSend@@YAXPAUOBJECTSTRUCT@@PADZZ		; vChatSend
PUBLIC	?AllSendServerMsg@@YAXPAD@Z			; AllSendServerMsg
PUBLIC	?DataSendAll@@YAXPAEH@Z				; DataSendAll
PUBLIC	?ChatTargetSend@@YAXPAUOBJECTSTRUCT@@PADH@Z	; ChatTargetSend
PUBLIC	?PChatProc@@YAXPAUPMSG_CHATDATA@@F@Z		; PChatProc
PUBLIC	?CGChatRecv@@YAXPAUPMSG_CHATDATA_NUMBER@@H@Z	; CGChatRecv
PUBLIC	?GCServerMsgSend@@YAXEH@Z			; GCServerMsgSend
PUBLIC	?GCServerMsgStringSend@@YAXPADHE@Z		; GCServerMsgStringSend
PUBLIC	?GCServerMsgStringSendGuild@@YAXPAU_GUILD_INFO_STRUCT@@PADE@Z ; GCServerMsgStringSendGuild
PUBLIC	?GCEventStateSend@@YAXHEE@Z			; GCEventStateSend
PUBLIC	?GCMapEventStateSend@@YAXHEE@Z			; GCMapEventStateSend
PUBLIC	?CGChatWhisperRecv@@YAXPAUPMSG_CHATDATA_WHISPER@@H@Z ; CGChatWhisperRecv
PUBLIC	?SCPJoinResultSend@@YAXHE@Z			; SCPJoinResultSend
PUBLIC	?CSPJoinIdPassRequest@@YAXPAUPMSG_IDPASS@@H@Z	; CSPJoinIdPassRequest
PUBLIC	?CSPJoinIdPassRequestTEST@@YAXPAUPMSG_IDPASS@@H@Z ; CSPJoinIdPassRequestTEST
PUBLIC	?GCJoinBillCheckSend@@YAXPADH@Z			; GCJoinBillCheckSend
PUBLIC	?GCJoinResult@@YAXEH@Z				; GCJoinResult
PUBLIC	?GCJoinSocketResult@@YAXEI@Z			; GCJoinSocketResult
PUBLIC	?CGClientCloseMsg@@YAXPAUPMSG_CLIENTCLOSE@@H@Z	; CGClientCloseMsg
PUBLIC	?GCCloseMsgSend@@YAXHE@Z			; GCCloseMsgSend
PUBLIC	?CGClientMsg@@YAXPAUPMSG_CLIENTMSG@@H@Z		; CGClientMsg
PUBLIC	?CGPCharacterCreate@@YAXPAUPMSG_CHARCREATE@@H@Z	; CGPCharacterCreate
PUBLIC	?CGPCharDel@@YAXPAUPMSG_CHARDELETE@@H@Z		; CGPCharDel
PUBLIC	?CGPCharacterMapJoinRequest@@YAXPAUPMSG_CHARMAPJOIN@@H@Z ; CGPCharacterMapJoinRequest
PUBLIC	?GCLevelUpMsgSend@@YAXHH@Z			; GCLevelUpMsgSend
PUBLIC	?CGLevelUpPointAdd@@YAXPAUPMSG_LVPOINTADD@@H@Z	; CGLevelUpPointAdd
PUBLIC	?GCInventoryItemOneSend@@YAXHH@Z		; GCInventoryItemOneSend
PUBLIC	?GCPkLevelSend@@YAXHE@Z				; GCPkLevelSend
PUBLIC	?GCMagicListOneSend@@YAXHDGEEE@Z		; GCMagicListOneSend
PUBLIC	?GCMagicListOneDelSend@@YAXHDGEEE@Z		; GCMagicListOneDelSend
PUBLIC	?GCMagicListMultiSend@@YAXPAUOBJECTSTRUCT@@E@Z	; GCMagicListMultiSend
PUBLIC	?GCEquipmentSend@@YAXH@Z			; GCEquipmentSend
PUBLIC	?GCRecallMonLife@@YAXHHH@Z			; GCRecallMonLife
PUBLIC	?GCTimeViewSend@@YAXHH@Z			; GCTimeViewSend
PUBLIC	?GCGoalSend@@YAXHPADE0E@Z			; GCGoalSend
PUBLIC	?GCSkillKeyRecv@@YAXPAUPMSG_SKILLKEY@@H@Z	; GCSkillKeyRecv
PUBLIC	?GCSkillKeySend@@YAXHPAEEEEEEEK@Z		; GCSkillKeySend
PUBLIC	?GCMoneySend@@YAXHK@Z				; GCMoneySend
PUBLIC	?GCItemInventoryPutSend@@YAXHEEE@Z		; GCItemInventoryPutSend
PUBLIC	?CGItemGetRequest@@YAXPAUPMSG_ITEMGETREQUEST@@H@Z ; CGItemGetRequest
PUBLIC	?CGItemDropRequest@@YAHPAUPMSG_ITEMTHROW@@HH@Z	; CGItemDropRequest
PUBLIC	?GCItemMoveResultSend@@YAXHEEQAE@Z		; GCItemMoveResultSend
PUBLIC	?CGInventoryItemMove@@YAXPAUPMSG_INVENTORYITEMMOVE@@H@Z ; CGInventoryItemMove
PUBLIC	?GCEquipmentChange@@YAXHH@Z			; GCEquipmentChange
PUBLIC	?CGTalkRequestRecv@@YAXPAUPMSG_TALKREQUEST@@H@Z	; CGTalkRequestRecv
PUBLIC	?GCUserWarehouseSend@@YAXPAUOBJECTSTRUCT@@@Z	; GCUserWarehouseSend
PUBLIC	?CGBuyRequestRecv@@YAXPAUPMSG_BUYREQUEST@@H@Z	; CGBuyRequestRecv
PUBLIC	?CGSellRequestRecv@@YAXPAUPMSG_SELLREQUEST@@H@Z	; CGSellRequestRecv
PUBLIC	?GetNeedMoneyItemDurRepaire@@YAHPAVCItem@@H@Z	; GetNeedMoneyItemDurRepaire
PUBLIC	?ItemDurRepaire@@YAXPAUOBJECTSTRUCT@@PAVCItem@@HH@Z ; ItemDurRepaire
PUBLIC	?CGModifyRequestItem@@YAXPAUPMSG_ITEMDURREPAIR@@H@Z ; CGModifyRequestItem
PUBLIC	?CGTradeRequestSend@@YAXPAUPMSG_TRADE_REQUEST@@H@Z ; CGTradeRequestSend
PUBLIC	?CGTradeResponseRecv@@YAXPAUPMSG_TRADE_RESPONSE@@H@Z ; CGTradeResponseRecv
PUBLIC	?GCTradeResponseSend@@YAHEHPADGH@Z		; GCTradeResponseSend
PUBLIC	?GCTradeOtherDel@@YAHHE@Z			; GCTradeOtherDel
PUBLIC	?GCTradeOtherAdd@@YAHHEPAE@Z			; GCTradeOtherAdd
PUBLIC	?CGTradeMoneyRecv@@YAXPAUPMSG_TRADE_GOLD@@H@Z	; CGTradeMoneyRecv
PUBLIC	?GCTradeMoneyOther@@YAHHK@Z			; GCTradeMoneyOther
PUBLIC	?GCTradeOkButtonSend@@YAHHE@Z			; GCTradeOkButtonSend
PUBLIC	?CGTradeOkButtonRecv@@YAXPAUPMSG_TRADE_OKBUTTON@@H@Z ; CGTradeOkButtonRecv
PUBLIC	?CGTradeCancelButtonRecv@@YAXH@Z		; CGTradeCancelButtonRecv
PUBLIC	?CGTradeResult@@YAXHE@Z				; CGTradeResult
PUBLIC	?CGPShopReqSetItemPrice@@YAXPAUPMSG_REQ_PSHOP_SETITEMPRICE@@H@Z ; CGPShopReqSetItemPrice
PUBLIC	?CGPShopAnsSetItemPrice@@YAXHEE@Z		; CGPShopAnsSetItemPrice
PUBLIC	?CGPShopReqOpen@@YAXPAUPMSG_REQ_PSHOP_OPEN@@H@Z	; CGPShopReqOpen
PUBLIC	?CGPShopAnsOpen@@YAXHE@Z			; CGPShopAnsOpen
PUBLIC	?CGPShopReqClose@@YAXH@Z			; CGPShopReqClose
PUBLIC	?CGPShopAnsClose@@YAXHE@Z			; CGPShopAnsClose
PUBLIC	?CGPShopReqBuyList@@YAXPAUPMSG_REQ_BUYLIST_FROM_PSHOP@@H@Z ; CGPShopReqBuyList
PUBLIC	?CGPShopAnsBuyList@@YAXHHE_N@Z			; CGPShopAnsBuyList
PUBLIC	?CGPShopReqBuyItem@@YAXPAUPMSG_REQ_BUYITEM_FROM_PSHOP@@H@Z ; CGPShopReqBuyItem
PUBLIC	?CGPShopAnsBuyItem@@YAXHHHE@Z			; CGPShopAnsBuyItem
PUBLIC	?CGPShopReqCloseDeal@@YAXPAUPMSG_REQ_PSHOPDEAL_CLOSE@@H@Z ; CGPShopReqCloseDeal
PUBLIC	?CGPShopAnsSoldItem@@YAXHHH@Z			; CGPShopAnsSoldItem
PUBLIC	?CGPShopAnsDealerClosedShop@@YAXHH@Z		; CGPShopAnsDealerClosedShop
PUBLIC	?CGPartyRequestRecv@@YAXPAUPMSG_PARTYREQUEST@@H@Z ; CGPartyRequestRecv
PUBLIC	?CGPartyRequestResultRecv@@YAXPAUPMSG_PARTYREQUESTRESULT@@H@Z ; CGPartyRequestResultRecv
PUBLIC	?CGPartyList@@YAXH@Z				; CGPartyList
PUBLIC	?CGPartyListAll@@YAXH@Z				; CGPartyListAll
PUBLIC	?CGPartyDelUser@@YAXPAUPMSG_PARTYDELUSER@@H@Z	; CGPartyDelUser
PUBLIC	?CGPartyDelUserAsExitGameByForce@@YAXPAUPMSG_PARTYDELUSER@@H@Z ; CGPartyDelUserAsExitGameByForce
PUBLIC	?GCPartyDelUserSend@@YAXH@Z			; GCPartyDelUserSend
PUBLIC	?CGGuildRequestRecv@@YAXPAUPMSG_GUILDJOINQ@@H@Z	; CGGuildRequestRecv
PUBLIC	?CGGuildRequestResultRecv@@YAXPAUPMSG_GUILDQRESULT@@H@Z ; CGGuildRequestResultRecv
PUBLIC	?CGGuildListAll@@YAXH@Z				; CGGuildListAll
PUBLIC	?CGGuildDelUser@@YAXPAUPMSG_GUILDDELUSER@@H@Z	; CGGuildDelUser
PUBLIC	?GCGuildDelUserResult@@YAXHE@Z			; GCGuildDelUserResult
PUBLIC	?GCGuildMasterQuestionSend@@YAXH@Z		; GCGuildMasterQuestionSend
PUBLIC	?CGGuildMasterAnswerRecv@@YAXPAUPMSG_GUILDMASTERANSWER@@H@Z ; CGGuildMasterAnswerRecv
PUBLIC	?GCGuildMasterManagerRun@@YAXH@Z		; GCGuildMasterManagerRun
PUBLIC	?CGGuildMasterInfoSave@@YAXHPAUPMSG_GUILDINFOSAVE@@@Z ; CGGuildMasterInfoSave
PUBLIC	?CGGuildMasterCreateCancel@@YAXH@Z		; CGGuildMasterCreateCancel
PUBLIC	?GCGuildViewportNowPaint@@YAXHPADPAEH@Z		; GCGuildViewportNowPaint
PUBLIC	?GCGuildViewportDelNow@@YAXHH@Z			; GCGuildViewportDelNow
PUBLIC	?GCManagerGuildWarEnd@@YAXPAD@Z			; GCManagerGuildWarEnd
PUBLIC	?GCManagerGuildWarSet@@YAXPAD0H@Z		; GCManagerGuildWarSet
PUBLIC	?GCGuildWarRequestResult@@YAXPADHH@Z		; GCGuildWarRequestResult
PUBLIC	?GCGuildWarRequestSend@@YAXPADHH@Z		; GCGuildWarRequestSend
PUBLIC	?GCGuildWarRequestSendRecv@@YAXPAUPMSG_GUILDWARSEND_RESULT@@H@Z ; GCGuildWarRequestSendRecv
PUBLIC	?GCGuildWarDeclare@@YAXHPAD@Z			; GCGuildWarDeclare
PUBLIC	?GCGuildWarEnd@@YAXHEPAD@Z			; GCGuildWarEnd
PUBLIC	?GCGuildWarScore@@YAXH@Z			; GCGuildWarScore
PUBLIC	?CGWarehouseMoneyInOut@@YAXHPAUPMSG_WAREHOUSEMONEYINOUT@@@Z ; CGWarehouseMoneyInOut
PUBLIC	?GCWarehouseInventoryMoneySend@@YAXHEHH@Z	; GCWarehouseInventoryMoneySend
PUBLIC	?CGWarehouseUseEnd@@YAXH@Z			; CGWarehouseUseEnd
PUBLIC	?GCWarehouseStateSend@@YAXHE@Z			; GCWarehouseStateSend
PUBLIC	?GCWarehouseRecivePassword@@YAXHPAUPMSG_WAREHOUSEPASSSEND@@@Z ; GCWarehouseRecivePassword
PUBLIC	?GCUserChaosBoxSend@@YAXPAUOBJECTSTRUCT@@H@Z	; GCUserChaosBoxSend
PUBLIC	?CGChaosBoxItemMixButtonClick@@YAXPAUPMSG_CHAOSMIX@@H@Z ; CGChaosBoxItemMixButtonClick
PUBLIC	?CGChaosBoxUseEnd@@YAXH@Z			; CGChaosBoxUseEnd
PUBLIC	?PMoveProc@@YAXPAUPMSG_MOVE@@H@Z		; PMoveProc
PUBLIC	?RecvPositionSetProc@@YAXPAUPMSG_POSISTION_SET@@H@Z ; RecvPositionSetProc
PUBLIC	?CGAttack@@YAXPAUPMSG_ATTACK@@H@Z		; CGAttack
PUBLIC	?GCDamageSend@@YAXHHH@Z				; GCDamageSend
PUBLIC	?GCDamageSend@@YAXHHHHHH@Z			; GCDamageSend
PUBLIC	?GCDamageSend@@YAXHHHE@Z			; GCDamageSend
PUBLIC	?GCLifeSendAll@@YAXPAUOBJECTSTRUCT@@@Z		; GCLifeSendAll
PUBLIC	?GCKillPlayerExpSend@@YAXHHHHH@Z		; GCKillPlayerExpSend
PUBLIC	?GCDiePlayerSend@@YAXPAUOBJECTSTRUCT@@HGH@Z	; GCDiePlayerSend
PUBLIC	?GCActionSend@@YAXPAUOBJECTSTRUCT@@EHH@Z	; GCActionSend
PUBLIC	?CGActionRecv@@YAXPAUPMSG_ACTION@@H@Z		; CGActionRecv
PUBLIC	?CGMagicAttack@@YAXPAUPMSG_MAGICATTACK@@H@Z	; CGMagicAttack
PUBLIC	?GCMagicAttackNumberSend@@YAXPAUOBJECTSTRUCT@@GHE@Z ; GCMagicAttackNumberSend
PUBLIC	?GCMagicCancelSend@@YAXPAUOBJECTSTRUCT@@H@Z	; GCMagicCancelSend
PUBLIC	?GCSendEffect@@YAXPAUOBJECTSTRUCT@@HHHH@Z	; GCSendEffect
PUBLIC	?CGMagicCancel@@YAXPAUPMSG_MAGICCANCEL@@H@Z	; CGMagicCancel
PUBLIC	?GCUseMonsterSkillSend@@YAXPAUOBJECTSTRUCT@@0H@Z ; GCUseMonsterSkillSend
PUBLIC	?GCStateInfoSend@@YAXPAUOBJECTSTRUCT@@EE@Z	; GCStateInfoSend
PUBLIC	?CGTeleportRecv@@YAXPAUPMSG_TELEPORT@@H@Z	; CGTeleportRecv
PUBLIC	?CGTargetTeleportRecv@@YAXPAUPMSG_TARGET_TELEPORT@@H@Z ; CGTargetTeleportRecv
PUBLIC	?GCTeleportSend@@YAXPAUOBJECTSTRUCT@@HEEEE@Z	; GCTeleportSend
PUBLIC	?CGBeattackRecv@@YAXPAEHH@Z			; CGBeattackRecv
PUBLIC	?CGDurationMagicRecv@@YAXPAUPMSG_DURATION_MAGIC_RECV@@H@Z ; CGDurationMagicRecv
PUBLIC	?ObjectMapJoinPositionSend@@YAXF@Z		; ObjectMapJoinPositionSend
PUBLIC	?CGUseItemRecv@@YAXPAUPMSG_USEITEM@@H@Z		; CGUseItemRecv
PUBLIC	?GCReFillSend@@YAXHGEEG@Z			; GCReFillSend
PUBLIC	?GCManaSend@@YAXHFEEG@Z				; GCManaSend
PUBLIC	?GCInventoryItemDeleteSend@@YAXHEE@Z		; GCInventoryItemDeleteSend
PUBLIC	?GCItemUseSpecialTimeSend@@YAXHEH@Z		; GCItemUseSpecialTimeSend
PUBLIC	?GCItemDurSend@@YAXHEEE@Z			; GCItemDurSend
PUBLIC	?GCItemDurSend2@@YAXHEEE@Z			; GCItemDurSend2
PUBLIC	?CGWeatherSend@@YAXHE@Z				; CGWeatherSend
PUBLIC	?GCServerCmd@@YAXHEEE@Z				; GCServerCmd
PUBLIC	?GCReqmoveDevilSquare@@YAXPAUPMSG_REQ_MOVEDEVILSQUARE@@H@Z ; GCReqmoveDevilSquare
PUBLIC	?GCReqDevilSquareRemainTime@@YAXPAUPMSG_REQ_DEVILSQUARE_REMAINTIME@@H@Z ; GCReqDevilSquareRemainTime
PUBLIC	?AllSendMsg@@YAXPAEH@Z				; AllSendMsg
PUBLIC	?AllSendSameMapMsg@@YAXPAEHE@Z			; AllSendSameMapMsg
PUBLIC	?GCRegEventChipRecv@@YAXPAUPMSG_REGEVENTCHIP@@H@Z ; GCRegEventChipRecv
PUBLIC	?GCGetMutoNumRecv@@YAXPAUPMSG_GETMUTONUMBER@@H@Z ; GCGetMutoNumRecv
PUBLIC	?GCUseEndEventChipRescv@@YAXH@Z			; GCUseEndEventChipRescv
PUBLIC	?GCUseRenaChangeZenRecv@@YAXPAUPMSG_EXCHANGE_EVENTCHIP@@H@Z ; GCUseRenaChangeZenRecv
PUBLIC	?CGRequestQuestInfo@@YAXH@Z			; CGRequestQuestInfo
PUBLIC	?GCSendQuestInfo@@YAXHH@Z			; GCSendQuestInfo
PUBLIC	?CGSetQuestState@@YAXPAUPMSG_SETQUEST@@H@Z	; CGSetQuestState
PUBLIC	?GCSendQuestPrize@@YAXHEE@Z			; GCSendQuestPrize
PUBLIC	?CGCloseWindow@@YAXH@Z				; CGCloseWindow
PUBLIC	?CGRequestEnterBloodCastle@@YAXPAUPMSG_REQ_MOVEBLOODCASTLE@@H@Z ; CGRequestEnterBloodCastle
PUBLIC	?CGRequestEnterChaosCastle@@YAXPAUPMSG_REQ_MOVECHAOSCASTLE@@H@Z ; CGRequestEnterChaosCastle
PUBLIC	?CGRequestRepositionUserInChaosCastle@@YAXPAUPMSG_REQ_REPOSUSER_IN_CC@@H@Z ; CGRequestRepositionUserInChaosCastle
PUBLIC	?CGRequestEventEnterCount@@YAXPAUPMSG_REQ_CL_ENTERCOUNT@@H@Z ; CGRequestEventEnterCount
PUBLIC	?CGRequestLottoRegister@@YAXPAUPMSG_REQ_2ANV_LOTTO_EVENT@@H@Z ; CGRequestLottoRegister
PUBLIC	?CGReqMoveOtherServer@@YAXPAUPMSG_REQ_MOVE_OTHERSERVER@@H@Z ; CGReqMoveOtherServer
PUBLIC	?GCPacketCheckSumRecv@@YAXPAUPMSG_PACKETCHECKSUM@@H@Z ; GCPacketCheckSumRecv
PUBLIC	?GCNPggSendCheckSum@@YAXHPAU_GG_AUTH_DATA@@@Z	; GCNPggSendCheckSum
PUBLIC	?GCNPggCheckSumRecv@@YAXPAUPMSG_NPROTECTGGCHECKSUM@@H@Z ; GCNPggCheckSumRecv
PUBLIC	?CGDuelStartRequestRecv@@YAXPAUPMSG_REQ_START_DUEL@@H@Z ; CGDuelStartRequestRecv
PUBLIC	?CGDuelEndRequestRecv@@YAXPAUPMSG_REQ_END_DUEL@@H@Z ; CGDuelEndRequestRecv
PUBLIC	?CGDuelOkRequestRecv@@YAXPAUPMSG_ANS_DUEL_OK@@H@Z ; CGDuelOkRequestRecv
PUBLIC	?GCSendGetItemInfoForParty@@YAXHPAVCMapItem@@@Z	; GCSendGetItemInfoForParty
PUBLIC	?GCSendEffectInfo@@YAXHE@Z			; GCSendEffectInfo
PUBLIC	?CGRequestPetItemCommand@@YAXPAUPMSG_REQUEST_PET_ITEM_COMMAND@@H@Z ; CGRequestPetItemCommand
PUBLIC	?CGRequestPetItemInfo@@YAXPAUPMSG_REQUEST_PET_ITEMINFO@@H@Z ; CGRequestPetItemInfo
PUBLIC	?GCGuildViewportInfo@@YAXPAUPMSG_REQ_GUILDVIEWPORT@@H@Z ; GCGuildViewportInfo
PUBLIC	?CGGuildAssignStatus@@YAXPAUPMSG_GUILD_ASSIGN_STATUS_REQ@@H@Z ; CGGuildAssignStatus
PUBLIC	?CGGuildAssignType@@YAXPAUPMSG_GUILD_ASSIGN_TYPE_REQ@@H@Z ; CGGuildAssignType
PUBLIC	?CGRelationShipReqJoinBreakOff@@YAXPAUPMSG_RELATIONSHIP_JOIN_BREAKOFF_REQ@@H@Z ; CGRelationShipReqJoinBreakOff
PUBLIC	?CGRelationShipAnsJoinBreakOff@@YAXPAUPMSG_RELATIONSHIP_JOIN_BREAKOFF_ANS@@H@Z ; CGRelationShipAnsJoinBreakOff
PUBLIC	?CGUnionList@@YAXPAUPMSG_UNIONLIST_REQ@@H@Z	; CGUnionList
PUBLIC	?CGRelationShipReqKickOutUnionMember@@YAXPAUPMSG_KICKOUT_UNIONMEMBER_REQ@@H@Z ; CGRelationShipReqKickOutUnionMember
PUBLIC	?CGReqMapSvrAuth@@YAXPAUPMSG_REQ_MAPSERVERAUTH@@H@Z ; CGReqMapSvrAuth
PUBLIC	?GCAnsMapSvrAuth@@YAXHH@Z			; GCAnsMapSvrAuth
PUBLIC	?CGReqCastleSiegeState@@YAXPAUPMSG_REQ_CASTLESIEGESTATE@@H@Z ; CGReqCastleSiegeState
PUBLIC	?GCAnsCastleSiegeState@@YAXHHPAD0@Z		; GCAnsCastleSiegeState
PUBLIC	?CGReqRegCastleSiege@@YAXPAUPMSG_REQ_REGCASTLESIEGE@@H@Z ; CGReqRegCastleSiege
PUBLIC	?GCAnsRegCastleSiege@@YAXHHPAD@Z		; GCAnsRegCastleSiege
PUBLIC	?CGReqGiveUpCastleSiege@@YAXPAUPMSG_REQ_GIVEUPCASTLESIEGE@@H@Z ; CGReqGiveUpCastleSiege
PUBLIC	?CGReqGuildRegInfo@@YAXPAUPMSG_REQ_GUILDREGINFO@@H@Z ; CGReqGuildRegInfo
PUBLIC	?GCAnsGuildRegInfo@@YAXHHPAUCSP_ANS_GUILDREGINFO@@@Z ; GCAnsGuildRegInfo
PUBLIC	?CGReqRegGuildMark@@YAXPAUPMSG_REQ_REGGUILDMARK@@H@Z ; CGReqRegGuildMark
PUBLIC	?GCAnsRegGuildMark@@YAXHHPAUCSP_ANS_GUILDREGMARK@@@Z ; GCAnsRegGuildMark
PUBLIC	?CGReqNpcBuy@@YAXPAUPMSG_REQ_NPCBUY@@H@Z	; CGReqNpcBuy
PUBLIC	?GCAnsNpcBuy@@YAXHHHH@Z				; GCAnsNpcBuy
PUBLIC	?CGReqNpcRepair@@YAXPAUPMSG_REQ_NPCREPAIR@@H@Z	; CGReqNpcRepair
PUBLIC	?GCAnsNpcRepair@@YAXHHHHHH@Z			; GCAnsNpcRepair
PUBLIC	?CGReqNpcUpgrade@@YAXPAUPMSG_REQ_NPCUPGRADE@@H@Z ; CGReqNpcUpgrade
PUBLIC	?GCAnsNpcUpgrade@@YAXHHHHHH@Z			; GCAnsNpcUpgrade
PUBLIC	?CGReqTaxMoneyInfo@@YAXPAUPMSG_REQ_TAXMONEYINFO@@H@Z ; CGReqTaxMoneyInfo
PUBLIC	?GCAnsTaxMoneyInfo@@YAXHHEE_J@Z			; GCAnsTaxMoneyInfo
PUBLIC	?CGReqTaxRateChange@@YAXPAUPMSG_REQ_TAXRATECHANGE@@H@Z ; CGReqTaxRateChange
PUBLIC	?GCAnsTaxRateChange@@YAXHHEH@Z			; GCAnsTaxRateChange
PUBLIC	?CGReqMoneyDrawOut@@YAXPAUPMSG_REQ_MONEYDRAWOUT@@H@Z ; CGReqMoneyDrawOut
PUBLIC	?GCAnsMoneyDrawOut@@YAXHH_J@Z			; GCAnsMoneyDrawOut
PUBLIC	?GCAnsCsGateState@@YAXHHH@Z			; GCAnsCsGateState
PUBLIC	?CGReqCsGateOperate@@YAXPAUPMSG_REQ_CSGATEOPERATE@@H@Z ; CGReqCsGateOperate
PUBLIC	?GCAnsCsGateOperate@@YAXHHHH@Z			; GCAnsCsGateOperate
PUBLIC	?GCAnsCsGateCurState@@YAXHHH@Z			; GCAnsCsGateCurState
PUBLIC	?GCAnsCsAccessSwitchState@@YAXHHHE@Z		; GCAnsCsAccessSwitchState
PUBLIC	?GCAnsCsAccessCrownState@@YAXHE@Z		; GCAnsCsAccessCrownState
PUBLIC	?GCAnsCsNotifyStart@@YAXHE@Z			; GCAnsCsNotifyStart
PUBLIC	?GCAnsCsMapSvrTaxInfo@@YAXHEE@Z			; GCAnsCsMapSvrTaxInfo
PUBLIC	?CGReqCsMiniMapData@@YAXPAUPMSG_REQ_MINIMAPDATA@@H@Z ; CGReqCsMiniMapData
PUBLIC	?GCAnsCsMiniMapData@@YAXHE@Z			; GCAnsCsMiniMapData
PUBLIC	?CGReqStopCsMiniMapData@@YAXPAUPMSG_REQ_STOPMINIMAPDATA@@H@Z ; CGReqStopCsMiniMapData
PUBLIC	?CGReqCsSendCommand@@YAXPAUPMSG_REQ_CSCOMMAND@@H@Z ; CGReqCsSendCommand
PUBLIC	?GCAnsCsSendCommand@@YAXHEEEE@Z			; GCAnsCsSendCommand
PUBLIC	?GCAnsCsLeftTimeAlarm@@YAXEE@Z			; GCAnsCsLeftTimeAlarm
PUBLIC	?GCAnsSelfCsLeftTimeAlarm@@YAXHEE@Z		; GCAnsSelfCsLeftTimeAlarm
PUBLIC	?CGReqCsSetEnterHuntZone@@YAXPAUPMSG_REQ_CSHUNTZONEENTER@@H@Z ; CGReqCsSetEnterHuntZone
PUBLIC	?GCAnsCsSetEnterHuntZone@@YAXHEE@Z		; GCAnsCsSetEnterHuntZone
PUBLIC	?CGReqNpcDbList@@YAXPAUPMSG_REQ_NPCDBLIST@@H@Z	; CGReqNpcDbList
PUBLIC	?CGReqCsRegGuildList@@YAXPAUPMSG_REQ_CSREGGUILDLIST@@H@Z ; CGReqCsRegGuildList
PUBLIC	?CGReqCsAttkGuildList@@YAXPAUPMSG_REQ_CSATTKGUILDLIST@@H@Z ; CGReqCsAttkGuildList
PUBLIC	?CGReqWeaponUse@@YAXPAUPMSG_REQ_USEWEAPON@@H@Z	; CGReqWeaponUse
PUBLIC	?CGReqWeaponDamageValue@@YAXPAUPMSG_REQ_WEAPON_DAMAGE_VALUE@@H@Z ; CGReqWeaponDamageValue
PUBLIC	?CGReqGuildMarkOfCastleOwner@@YAXPAUPMSG_REQ_GUILDMARK_OF_CASTLEOWNER@@H@Z ; CGReqGuildMarkOfCastleOwner
PUBLIC	?CGReqJewelMix@@YAXPAUPMSG_REQ_JEWEL_MIX@@H@Z	; CGReqJewelMix
PUBLIC	?GCAnsJewelMix@@YAXHH@Z				; GCAnsJewelMix
PUBLIC	?CGReqJewelUnMix@@YAXPAUPMSG_REQ_JEWEL_UNMIX@@H@Z ; CGReqJewelUnMix
PUBLIC	?GCAnsJewelUnMix@@YAXHH@Z			; GCAnsJewelUnMix
PUBLIC	?CGReqCrywolfInfo@@YAXPAUPMSG_REQ_CRYWOLF_INFO@@H@Z ; CGReqCrywolfInfo
PUBLIC	?GCAnsCrywolfInfo@@YAXHEE@Z			; GCAnsCrywolfInfo
PUBLIC	?CGReqAlatrContract@@YAXPAUPMSG_REQ_CRYWOLF_ALTAR_CONTRACT@@H@Z ; CGReqAlatrContract
PUBLIC	?CGReqPlusChaosRate@@YAXPAUPMSG_REQ_CRYWOLF_BENEFIT_PLUS_CHAOSRATE@@H@Z ; CGReqPlusChaosRate
PUBLIC	?CGReqKanturuStateInfo@@YAXPAUPMSG_REQ_KANTURU_STATE_INFO@@H@Z ; CGReqKanturuStateInfo
PUBLIC	?GCReqEnterKanturuBossMap@@YAXPAUPMSG_REQ_ENTER_KANTURU_BOSS_MAP@@H@Z ; GCReqEnterKanturuBossMap
PUBLIC	?GCAnsGiveUpCastleSiege@@YAXHH_NHPAD@Z		; GCAnsGiveUpCastleSiege
PUBLIC	?GCSendObjectCreationState@@YAXH@Z		; GCSendObjectCreationState
PUBLIC	?CGReqCastleHuntZoneEntrance@@YAXPAUPMSG_REQ_MOVE_TO_CASTLE_HUNTZONE@@H@Z ; CGReqCastleHuntZoneEntrance
PUBLIC	?GCReqEnterBarracks@@YAXH@Z			; GCReqEnterBarracks
PUBLIC	?GCReqEnterBalgassLair@@YAXH@Z			; GCReqEnterBalgassLair
PUBLIC	?GCReqmoveIllusionTemple@@YAXPAUPMSG_REQ_MOVEILLUSIONTEMPLE@@H@Z ; GCReqmoveIllusionTemple
PUBLIC	?GCIllusionSkillUseSend@@YAXPAUPMSG_ILLUSION_REQ_SKILLUSE@@H@Z ; GCIllusionSkillUseSend
PUBLIC	?GCIllusionSendPoint@@YAXHE@Z			; GCIllusionSendPoint
PUBLIC	?CGIllusionTempleReward@@YAXH@Z			; CGIllusionTempleReward
PUBLIC	?GCSendEffectInfo@@YAXPAUOBJECTSTRUCT@@HHHH@Z	; GCSendEffectInfo
PUBLIC	?GCAttackSpeedSend@@YAXH@Z			; GCAttackSpeedSend
PUBLIC	?CGOpenPCBangShop@@YAXPAEH@Z			; CGOpenPCBangShop
PUBLIC	?CGBuyPCBangShop@@YAXPAEH@Z			; CGBuyPCBangShop
PUBLIC	?PacketCheckTime@@YAHPAUOBJECTSTRUCT@@@Z	; PacketCheckTime
PUBLIC	?CGReqmoveDoubleGoer@@YAXPAEH@Z			; CGReqmoveDoubleGoer
PUBLIC	?CGReqEnterZone@@YAXPAUPMSG_REQ_ENTERZONE@@H@Z	; CGReqEnterZone
PUBLIC	?GCSendExp@@YAXHH_JHH@Z				; GCSendExp
PUBLIC	?CGReqmoveLorenMarket@@YAXH@Z			; CGReqmoveLorenMarket
PUBLIC	?CGReqMoveAcheron@@YAXH@Z			; CGReqMoveAcheron
PUBLIC	?CGWindowReqMove@@YAXPAUPMSG_MOVE_REQUEST@@H@Z	; CGWindowReqMove
PUBLIC	?GCMonkMagicAttack@@YAXPAUPMSG_MAGICATTACK@@H@Z	; GCMonkMagicAttack
PUBLIC	?GCMonkMagicAttackNumberSend@@YAXPAUOBJECTSTRUCT@@HHH@Z ; GCMonkMagicAttackNumberSend
PUBLIC	?GCMonkDarkSideTargetSelect@@YAXPAUPMSG_MONK_DARKSIDE_RECV@@H@Z ; GCMonkDarkSideTargetSelect
PUBLIC	?CGSaveMuBotSettings@@YAXPAUPMSG_MUBOT_SETTINGS_RECV@@H@Z ; CGSaveMuBotSettings
PUBLIC	?GCSendMuBotSettings@@YAXHPAE@Z			; GCSendMuBotSettings
PUBLIC	?CGRequestStartMuBot@@YAXPAUPMSG_MUBOT_REQ_START@@H@Z ; CGRequestStartMuBot
PUBLIC	?CGEnableUsePolymorphSkinrRecv@@YAXPAUPMSG_REQ_USE_POLYMORPH_SKIN@@H@Z ; CGEnableUsePolymorphSkinrRecv
PUBLIC	?ClientTestSend@@YAXHPAUClientTest@@@Z		; ClientTestSend
PUBLIC	?CGInventoryEquipment@@YAXPAU_tagPMSG_REQ_INVENTORY_EQUIPMENT_ITEM@@H@Z ; CGInventoryEquipment
PUBLIC	?TalkRefDel@CQeustNpcTeleport@@QAEXXZ		; CQeustNpcTeleport::TalkRefDel
PUBLIC	??0_CS_NPC_DATA@@QAE@XZ				; _CS_NPC_DATA::_CS_NPC_DATA
PUBLIC	??1_CS_NPC_DATA@@UAE@XZ				; _CS_NPC_DATA::~_CS_NPC_DATA
PUBLIC	?Clear@_CS_NPC_DATA@@QAEXXZ			; _CS_NPC_DATA::Clear
PUBLIC	??_G_CS_NPC_DATA@@UAEPAXI@Z			; _CS_NPC_DATA::`scalar deleting destructor'
PUBLIC	?IsDuel@CNewPVP@@QAEHAAUOBJECTSTRUCT@@@Z	; CNewPVP::IsDuel
PUBLIC	?getInstance@MonsterSpawnerMng@@SAPAV1@XZ	; MonsterSpawnerMng::getInstance
PUBLIC	?DataEncryptCheck@@YAHHEH@Z			; DataEncryptCheck
PUBLIC	??$sprintf_s@$0BAA@@@YAHAAY0BAA@DPBDZZ		; sprintf_s<256>
PUBLIC	?GCAnsCsNotifyProgress@@YAXHEPBD@Z		; GCAnsCsNotifyProgress
PUBLIC	?_OptionsStorage@?1??__local_stdio_printf_options@@9@4_KA ; `__local_stdio_printf_options'::`2'::_OptionsStorage
PUBLIC	??_C@_00CNPNBAHC@?$AA@				; `string'
PUBLIC	??_C@_01MNNFJEPP@?$DM?$AA@			; `string'
PUBLIC	??_C@_0BI@CFPLBAOH@invalid?5string?5position?$AA@ ; `string'
PUBLIC	??_C@_0BA@JFNIOLAK@string?5too?5long?$AA@	; `string'
PUBLIC	??_C@_0BK@CPKHJPAP@QeustNpc?5RefCount?5Dec?$DN?5?$CFd?$AA@ ; `string'
PUBLIC	??_7_CS_NPC_DATA@@6B@				; _CS_NPC_DATA::`vftable'
PUBLIC	?g_CreditLog@@3VCLogToFile@@A			; g_CreditLog
PUBLIC	??_C@_0O@BDDJAJFG@?4?2Log?2Credits?$AA@		; `string'
PUBLIC	??_C@_07GDHHDJMO@Credits?$AA@			; `string'
PUBLIC	??_C@_0BN@LAHEKONH@Error?9L1?5?3?5Not?5Encrypt?5?$CFs?5?$CFd?$AA@ ; `string'
PUBLIC	??_C@_0DG@JHLFDPKE@Error?9L1?5?3?5Socket?5Serial?5?$CFs?5?$CFd?5o@ ; `string'
PUBLIC	??_C@_0L@HMJAEILC@1111111111?$AA@		; `string'
PUBLIC	??_C@_0BM@BJHJAKKO@?$FL0xBF?$FN?5Unknown?5packet?5BF?3?$CFd?$AA@ ; `string'
PUBLIC	??_C@_0N@ENFKFPKA@protocol?4cpp?$AA@		; `string'
PUBLIC	??_C@_0DH@ONNNLLKC@error?9L2?5?3?5account?3?$CFs?5name?3?$CFs?5HE@ ; `string'
PUBLIC	??_C@_0P@KNPEEFN@TEST?5Data?5Send?$AA@		; `string'
PUBLIC	??_C@_0EJ@EJAGKNML@?$FL?$CFs?$FN?$FL?$CFs?$FN?$FL?$CFs?$FN?5ClientHack?5Detected@ ; `string'
PUBLIC	??_C@_0DF@BCJCJNCO@?$FLAnti?9HACK?$FN?$FLPChatProc?$FN?$FL?$CFs?$FN?$FL?$CFs?$FN?5C@ ; `string'
PUBLIC	??_C@_0BB@FKJLBJJB@Incorrect?5syntax?$AA@	; `string'
PUBLIC	??_C@_08IOFCDDNP@?1post?5?$CFs?$AA@		; `string'
PUBLIC	??_C@_0BM@KJGOCGNH@Need?5more?5zen?5for?5gens?5chat?$AA@ ; `string'
PUBLIC	??_C@_0CB@GGKFEOLP@error?9L1?3?5Serial?5error?5?$FL?$CFs?$FN?5?$FL?$CFs?$FN@ ; `string'
PUBLIC	??_C@_0BB@PPEDKKBK@error?5?3?5?$CFd?5?$CFs?5?$CFd?$AA@ ; `string'
PUBLIC	??_C@_0BD@CICILPEN@join?5send?5?3?5?$CI?$CFd?$CJ?$CFs?$AA@ ; `string'
PUBLIC	??_C@_08NPLAPO@?$LN?$LI?$LF?$LJ?$MA?L?$CFd?$AA@	; `string'
PUBLIC	??_C@_04FLFDNKBN@m321?$AA@			; `string'
PUBLIC	??_C@_0BD@CNPHLENH@login?5send?5?3?5?$CFs?5?$CFs?$AA@ ; `string'
PUBLIC	??_C@_0DA@BEHJLACI@?$FLUserSelClose?$FN?5Go?5Exit?5?$FL?$CFs?$FN?$FL?$CFs?$FN?5@ ; `string'
PUBLIC	??_C@_0DG@MAGKNHGP@?$FLUserSelClose?$FN?5Go?5ServerList?5?$FL?$CFs@ ; `string'
PUBLIC	??_C@_0DG@JEMIEEON@?$FLUserSelClose?$FN?5Go?5CharSelect?5?$FL?$CFs@ ; `string'
PUBLIC	??_C@_0CI@KOHNJIIP@error?9L1?5?3?5HackCheck?5?$FL?$CFs?$FN?$FL?$CFs?$FN?50x@ ; `string'
PUBLIC	??_C@_0FF@BEFIFKBL@?$FLAnti?9HACK?$FN?$FLCGPCharacterCreate?$FN?5@ ; `string'
PUBLIC	??_C@_0CA@LCMJGFID@Character?5creation?5is?5disabled?$CB?$AA@ ; `string'
PUBLIC	??_C@_0DN@NJBNDAEI@?$FL?$CFs?$FN?5Create?5character?5error?5?$CIReq@ ; `string'
PUBLIC	??_C@_0CO@FCKNKLJK@error?9L1?3?5Magumsa?5Character?5crea@ ; `string'
PUBLIC	??_C@_0CP@FFBFNNND@error?9L1?3?5Darklord?5Character?5cre@ ; `string'
PUBLIC	??_C@_0BJ@GDNNOEGN@Character?5create?5?3?5?$CFs?0?$CFs?$AA@ ; `string'
PUBLIC	??_C@_0EN@HJCICDL@?$FLAnti?9HACK?$FN?$FLCGPCharDel?$FN?5Attempte@ ; `string'
PUBLIC	??_C@_0FD@NNHNDILD@?$FLAnti?9HACK?$FN?$FLCGPCharDel?$FN?5Attempte@ ; `string'
PUBLIC	??_C@_0BJ@HPDAEMEM@Character?5delete?5?3?5?$CFs?0?$CFs?$AA@ ; `string'
PUBLIC	??_C@_0BO@LCFCBICD@Option?5Recv?5?$CFd?5?$CFd?5?$CFd?5?$CFd?5?$CFd?5?$CFd?$AA@ ; `string'
PUBLIC	??_C@_0BO@KLPIKBAN@Option?5Send?5?$CFd?5?$CFd?5?$CFd?5?$CFd?5?$CFd?5?$CFd?$AA@ ; `string'
PUBLIC	??_C@_0CG@NFDFKIHI@?$FLFix?5Inv?4Ptr?$FN?5False?5Location?5?9?5?$CF@ ; `string'
PUBLIC	??_C@_0EE@JLFGKDAP@?$FL?$CFs?$FN?$FL?$CFs?$FN?5CGItemGetRequest?$CI?$CJ?5Fail@ ; `string'
PUBLIC	??_C@_0BB@LBNJKNBE@error?9L3?5?3?5?$CFs?5?$CFd?$AA@ ; `string'
PUBLIC	??_C@_0EI@IFAFBJMM@?$FLRing?5Event?$FN?5Too?5many?5have?5Magic@ ; `string'
PUBLIC	??_C@_0FD@GAPCMOG@?$FL?5MoonStonePendant?5?$FN?5Too?5many?5ha@ ; `string'
PUBLIC	??_C@_0EH@LLDKIPIA@?$FL?5ChangeRing?5?$FN?5Too?5many?5have?5Cha@ ; `string'
PUBLIC	??_C@_0DN@NBANJING@?$FLKalima?$FN?5?$FL?$CFs?$FN?$FL?$CFs?$FN?5Make?5Lost?5Kali@ ; `string'
PUBLIC	??_C@_0EH@MPCKANHC@?$FLDoppelganger?$FN?5?$FL?$CFs?$FN?$FL?$CFs?$FN?5Make?5Dim@ ; `string'
PUBLIC	??_C@_0EJ@KBMFDFFG@?$FLImperialGuardianFort?$FN?5?$FL?$CFs?$FN?$FL?$CFs?$FN?5@ ; `string'
PUBLIC	??_C@_0DF@EMLONCAM@?$FLAcheron?$FN?5?$FL?$CFs?$FN?$FL?$CFs?$FN?5Make?5Spirit?5M@ ; `string'
PUBLIC	??_C@_0EN@INJOAAFP@?$FLBlood?5Castle?$FN?5?$CI?$CFd?$CJ?5?$CIAccount?3?$CFs?0@ ; `string'
PUBLIC	??_C@_0EO@IHPJKMLA@?$FLIllusion?5Temple?$FN?5?$CI?$CFd?$CJ?5?$CIAccount?3@ ; `string'
PUBLIC	??_C@_0EJ@FINNND@?$FLANTI?9HACK?$FN?$FLItem?5Duplication?$FN?5?9?5@ ; `string'
PUBLIC	??_C@_0EF@ILLBNEEI@?$FL?$CFs?$FN?$FL?$CFs?$FN?5CGItemDropRequest?$CI?$CJ?5Fai@ ; `string'
PUBLIC	??_C@_0M@HHKDDFJH@error?3?$CFs?5?$CFd?$AA@	; `string'
PUBLIC	??_C@_04BGCMBJDA@Item?$AA@			; `string'
PUBLIC	??_C@_0EA@MFJKFJAM@?$FLANTI?9HACK?$FN?$FLSerial?50?5Item?$FN?5?$FLItem@ ; `string'
PUBLIC	??_C@_0EM@HPFBFIFH@?$FL?$CFs?$FN?$FL?$CFs?$FN?$FL?$CFd?$FN?$CFd?1?$CFd?5Used?5Fireworks@ ; `string'
PUBLIC	??_C@_0FC@GOMPGJDH@?$FLHidden?5TreasureBox?5Event?$FN?5?$FL?$CFs?$FN?$FL@ ; `string'
PUBLIC	??_C@_0ED@PDKMNGPH@?$FLHidden?5TreasureBox?5Event?$FN?5?$FL?$CFs?$FN?$FL@ ; `string'
PUBLIC	??_C@_0EM@LPMBPPDG@?$FLHidden?5TreasureBox?5Event?$FN?5?$FL?$CFs?$FN?$FL@ ; `string'
PUBLIC	??_C@_0EF@GOCIBGLO@?$FLHidden?5TreasureBox?5Event?$FN?5?$FL?$CFs?$FN?$FL@ ; `string'
PUBLIC	??_C@_0EK@IDAEHEED@?$FLKalima?$FN?5?$FL?$CFs?$FN?$FL?$CFs?$FN?5Success?5to?5Mak@ ; `string'
PUBLIC	??_C@_0CP@KAEBPCMA@?$FLSnakeBegins?$FN?5?$FL?$CFs?$FN?$FL?$CFs?$FN?5Success?5t@ ; `string'
PUBLIC	??_C@_0BC@JIBNBHEG@?$FL?$CFs?$FN?$FL?$CFd?$FN?5error?9L3?$AA@ ; `string'
PUBLIC	??_C@_0CG@KBCIHFJL@?$FL?$CFs?$FN?$FL?$CFs?$FN?5error?9L1?5?3?5used?5not?5Cha@ ; `string'
PUBLIC	??_C@_0BN@NBPOCOLJ@?$FL?$CFs?$FN?$FL?$CFs?$FN?5error?9L3?5?3?5CBMixing?$AA@ ; `string'
PUBLIC	??_C@_0CM@KBDLDMLI@?$FL?$CFs?$FN?$FL?$CFs?$FN?5error?9L1?5?3?5used?5not?5Dar@ ; `string'
PUBLIC	??_C@_0CJ@GOOLKLEE@?$FL?$CFs?$FN?$FL?$CFs?$FN?5error?9L3?5?3?5DarkTrainerB@ ; `string'
PUBLIC	??_C@_0CG@BBKNKKF@?$FL?$CFs?$FN?$FL?$CFs?$FN?5error?9L1?5?3?5used?5not?5Cha@ ; `string'
PUBLIC	??_C@_0CK@JNCNGNMJ@?$FL?$CFs?$FN?$FL?$CFs?$FN?5error?9L3?5?3?5JewelOfHarmo@ ; `string'
PUBLIC	??_C@_0CG@JPIJOKEC@?$FL?$CFs?$FN?$FL?$CFs?$FN?5error?9L3?5?3?5SocketItem?5M@ ; `string'
PUBLIC	??_C@_0CF@LHICMFIE@?$FL?$CFs?$FN?$FL?$CFs?$FN?5error?9L3?5?3?5LuckyItem?5Mi@ ; `string'
PUBLIC	??_C@_0CF@GLNEHHDC@?$FL?$CFs?$FN?$FL?$CFs?$FN?5error?9L3?5?3?5Elemental?5Mi@ ; `string'
PUBLIC	??_C@_0CH@JCEGNOH@?$FL?$CFs?$FN?$FL?$CFs?$FN?5error?9L1?5?3?5used?5not?5War@ ; `string'
PUBLIC	??_C@_0CD@LILEALBE@?$FL?$CFs?$FN?$FL?$CFs?$FN?5error?9L1?5?3?5used?5not?5Tra@ ; `string'
PUBLIC	??_C@_0DB@BBIIADPJ@Pay?5WareHouse?5Money?$CIIn?5Inventory@ ; `string'
PUBLIC	??_C@_0DB@OHHNKGKH@Pay?5WareHouse?5Money?$CIIn?5WareHouse@ ; `string'
PUBLIC	??_C@_0CP@GINMLCLK@?$FLANTI?9HACK?$FN?$FLNPC?5Talk?$FN?5Couldn?8t?5t@ ; `string'
PUBLIC	??_C@_0DD@KJEEOOOJ@?$FL?$CFs?$FN?$FL?$CFs?$FN?5is?5Already?5Opening?5PSho@ ; `string'
PUBLIC	??_C@_0BI@EKFBANFN@?$FL?$CFs?$FN?$FL?$CFs?$FN?5Open?5Chaos?5Box?$AA@ ; `string'
PUBLIC	??_C@_0CF@MFLOOBGJ@Item?5has?5been?5purchased?0?5balance@ ; `string'
PUBLIC	??_C@_0DP@ONDPGNEF@?$FL?$CFs?$FN?5?$FL?$CFs?$FN?5item?5has?5been?5purchase@ ; `string'
PUBLIC	??_C@_0BP@FPLNFNIC@You?5have?5no?5enough?5empty?5space?$AA@ ; `string'
PUBLIC	??_C@_0EI@PNDIMLBH@?$FL?$CFs?$FN?$FL?$CFs?$FN?5?$CI?$CFd?$CJ?5Shop?5buy?5?$FL?$CFd?$FN?$FL?$CFd?$FN?$FL@ ; `string'
PUBLIC	??_C@_0EF@KJAJLIMD@?$FL?$CFs?$FN?$FL?$CFs?$FN?5CGSellRequestRecv?$CI?$CJ?5Fai@ ; `string'
PUBLIC	??_C@_0EB@IPNHKJAG@?$FLANTI?9HACK?$FN?$FLSerial?50?5Item?$FN?5?$FLSell@ ; `string'
PUBLIC	??_C@_0BB@NPCMBJOG@ID?3?$CFs?5CharID?3?$CFs?5?$AA@ ; `string'
PUBLIC	??_C@_0BD@DBIFHAEB@error?5?3?5?$CFs?5?$CFd?5?$CI?$CFd?$CJ?$AA@ ; `string'
PUBLIC	??_C@_0CJ@GFPCHONE@You?5cannot?5trade?5inside?5Illusion@ ; `string'
PUBLIC	??_C@_0CG@MDHDJBIA@You?5cannot?5trade?5inside?5Doppelga@ ; `string'
PUBLIC	??_C@_0CH@BFADMIPH@You?5cannot?5trade?5inside?5Imperial@ ; `string'
PUBLIC	??_C@_0CA@CHOLFFAK@Trade?5not?5allowed?5on?5duel?5arena?$AA@ ; `string'
PUBLIC	??_C@_0EG@MCMMANNG@?$FL?$CFs?$FN?$FL?$CFs?$FN?5CGTradeRequestSend?$CI?$CJ?5Fa@ ; `string'
PUBLIC	??_C@_0BO@JKBNIPAM@error?9L1?5?3?5?$CFd?5?$CIA_ID?3?$CFs?$CJ?5?$CFs?5?$CFd?$AA@ ; `string'
PUBLIC	??_C@_0CF@HCOAINND@error?9L1?5?3?5target?3?$CFd?5?$CIA_ID?3?$CFs?$CJ?5?$CF@ ; `string'
PUBLIC	??_C@_0DG@NABAHPDJ@?$CI?$CFs?$CJ?$CI?$CFs?$CJ?5Trade?5Interface?5State?5E@ ; `string'
PUBLIC	??_C@_0EH@CCMPCECD@?$FL?$CFs?$FN?$FL?$CFs?$FN?5CGTradeResponseRecv?$CI?$CJ?5F@ ; `string'
PUBLIC	??_C@_0DE@KMOKLCNA@?$FL?$CFs?$FN?$FL?$CFs?$FN?5Made?5Trade?5Error?5?$CIin?5Tr@ ; `string'
PUBLIC	??_C@_0BO@GMBGLGLP@?$FL?$CFs?$FN?$FL?$CFs?$FN?5Trade?5Ready?5?$FL?$CFs?$FN?$FL?$CFs?$FN?$AA@ ; `string'
PUBLIC	??_C@_0BF@FJPPKIGA@Interface?5State?5?3?5?$CFd?$AA@ ; `string'
PUBLIC	??_C@_0BG@FLFOODFC@?$FL?$CFs?$FN?$FL?$CFs?$FN?5Trade?5Accept?$AA@ ; `string'
PUBLIC	??_C@_0CM@OJAPKEAG@?$FLPShop?$FN?5ERROR?5?3?5Index?5is?5not?5CON@ ; `string'
PUBLIC	??_C@_0CM@BGHHKBPI@?$FLPShop?$FN?5ERROR?5?3?5Index?5is?5not?5CHA@ ; `string'
PUBLIC	??_C@_0CP@JILLNCMO@?$FLPShop?$FN?5?$FL?$CFs?$FN?$FL?$CFs?$FN?5ERROR?5?3?5Level?5i@ ; `string'
PUBLIC	??_C@_0DJ@POEGOMMJ@?$FLPShop?$FN?5?$FL?$CFs?$FN?$FL?$CFs?$FN?5ERROR?5?3?5Item?5Po@ ; `string'
PUBLIC	??_C@_0DC@LNPMCBEG@?$FLPShop?$FN?5?$FL?$CFs?$FN?$FL?$CFs?$FN?5ERROR?5?3?5Item?5Do@ ; `string'
PUBLIC	??_C@_0DN@IOKIFLHM@?$FLANTI?9HACK?$FN?$FLSerial?50?5Item?$FN?5?$FLPSho@ ; `string'
PUBLIC	??_C@_0CK@IBOOILII@error?9L2?5?3?5CopyItem?5?$FL?$CFs?$FN?$FL?$CFs?$FN?5ret@ ; `string'
PUBLIC	??_C@_0DN@CBDABIEA@?$FLPShop?$FN?5?$FL?$CFs?$FN?$FL?$CFs?$FN?5ERROR?5?3?5Persona@ ; `string'
PUBLIC	??_C@_0DI@GBAILLEI@?$FLPShop?$FN?5?$FL?$CFs?$FN?$FL?$CFs?$FN?5ERROR?5?3?5Item?5Pr@ ; `string'
PUBLIC	??_C@_0CK@ODKADHDC@?$FLPShop?$FN?5?$FL?$CFs?$FN?$FL?$CFs?$FN?5ERROR?5?3?5Item?5Ou@ ; `string'
PUBLIC	??_C@_0GJ@BBHGJODA@?$FLPShop?$FN?5?$FL?$CFs?$FN?$FL?$CFs?$FN?5Changing?5Item?5P@ ; `string'
PUBLIC	??_C@_0DH@KPCEONNB@?$FLPShop?$FN?5?$FL?$CFs?$FN?$FL?$CFs?$FN?5ERROR?5?3?5Cant?8t?5@ ; `string'
PUBLIC	??_C@_0DL@LHDFDIDM@You?5cannot?5open?5your?5Personal?5Sh@ ; `string'
PUBLIC	??_C@_0DI@MIGHMEIJ@You?5cannot?5open?5your?5Personal?5Sh@ ; `string'
PUBLIC	??_C@_0DJ@GMNEGEAG@You?5cannot?5open?5your?5Personal?5Sh@ ; `string'
PUBLIC	??_C@_0DG@MLHOMIKA@?$FLPShop?$FN?5?$FL?$CFs?$FN?$FL?$CFs?$FN?5ERROR?5?3?5m_IfSta@ ; `string'
PUBLIC	??_C@_0DF@PANDKIEM@?$FLPShop?$FN?5?$FL?$CFs?$FN?$FL?$CFs?$FN?5ERROR?5?3?5Unknown@ ; `string'
PUBLIC	??_C@_0DI@OHKHPELK@?$FLPShop?$FN?5?$FL?$CFs?$FN?$FL?$CFs?$FN?5ERROR?5?3?5Transac@ ; `string'
PUBLIC	??_C@_0CG@HMFGEBKO@?$FLPShop?$FN?5?$FL?$CFs?$FN?$FL?$CFs?$FN?5Personal?5Shop?5O@ ; `string'
PUBLIC	??_C@_0EE@CGDKDDB@?$FLPShop?$FN?5?$FL?$CFs?$FN?$FL?$CFs?$FN?5Personal?5Shop?5A@ ; `string'
PUBLIC	??_C@_0CK@BPLBGOKP@?$FLPShop?$FN?5?$FL?$CFs?$FN?$FL?$CFs?$FN?5Requested?5to?5Cl@ ; `string'
PUBLIC	??_C@_0BN@PJEAPNNK@?$FLPShop?$FN?5?$FL?$CFs?$FN?$FL?$CFs?$FN?5Close?5PShop?$AA@ ; `string'
PUBLIC	??_C@_0EL@IDFNOCHJ@?$FLPShop?$FN?5?$FL?$CFs?$FN?$FL?$CFs?$FN?5PShop?5List?5Requ@ ; `string'
PUBLIC	??_C@_0EK@PCNOKFHF@?$FLPShop?$FN?5?$FL?$CFs?$FN?$FL?$CFs?$FN?5PShop?5List?5Requ@ ; `string'
PUBLIC	??_C@_0EI@OFDKLOHJ@?$FLPShop?$FN?5?$FL?$CFs?$FN?$FL?$CFs?$FN?5PShop?5Item?5Buy?5@ ; `string'
PUBLIC	??_C@_0EH@KILFPGAO@?$FLPShop?$FN?5?$FL?$CFs?$FN?$FL?$CFs?$FN?5PShop?5Item?5Buy?5@ ; `string'
PUBLIC	??_C@_0DH@DOFEJGME@?$FLPShop?$FN?5?$FL?$CFs?$FN?$FL?$CFs?$FN?5PShop?5List?5Requ@ ; `string'
PUBLIC	??_C@_0EJ@NIGLANBE@?$FLPShop?$FN?5?$FL?$CFs?$FN?$FL?$CFs?$FN?5PShop?5List?5Requ@ ; `string'
PUBLIC	??_C@_0EH@MBNOENIG@?$FLPShop?$FN?5?$FL?$CFs?$FN?$FL?$CFs?$FN?5PShop?5List?5Requ@ ; `string'
PUBLIC	??_C@_0FG@BJMCDCO@?$FLPShop?$FN?5?$FL?$CFs?$FN?$FL?$CFs?$FN?5PShop?5List?5Requ@ ; `string'
PUBLIC	??_C@_0DH@ODEDNFIK@?$FLPShop?$FN?5?$FL?$CFs?$FN?$FL?$CFs?$FN?5is?5Receiving?5PS@ ; `string'
PUBLIC	??_C@_0EP@OPAFJLAF@?$FLPShop?$FN?5?$FL?$CFs?$FN?$FL?$CFs?$FN?5PShop?5Item?5Buy?5@ ; `string'
PUBLIC	??_C@_0EO@KMDCDECB@?$FLPShop?$FN?5?$FL?$CFs?$FN?$FL?$CFs?$FN?5PShop?5Item?5Buy?5@ ; `string'
PUBLIC	??_C@_0EG@KFEECMPB@?$FLPShop?$FN?5?$FL?$CFs?$FN?$FL?$CFs?$FN?5PShop?5Item?5Buy?5@ ; `string'
PUBLIC	??_C@_0EN@OKADFHGM@?$FLPShop?$FN?5?$FL?$CFs?$FN?$FL?$CFs?$FN?5PShop?5Item?5Buy?5@ ; `string'
PUBLIC	??_C@_0EL@PJOAJAPF@?$FLPShop?$FN?5?$FL?$CFs?$FN?$FL?$CFs?$FN?5PShop?5Item?5Buy?5@ ; `string'
PUBLIC	??_C@_0FA@NMMBBGEG@?$FLPShop?$FN?5?$FL?$CFs?$FN?$FL?$CFs?$FN?5PShop?5Item?5Buy?5@ ; `string'
PUBLIC	??_C@_0EL@CHNNEDPM@?$FLPShop?$FN?5?$FL?$CFs?$FN?$FL?$CFs?$FN?5PShop?5Item?5Buy?5@ ; `string'
PUBLIC	??_C@_0FD@GGINPDPA@?$FLPShop?$FN?5?$FL?$CFs?$FN?$FL?$CFs?$FN?5PShop?5Item?5Buy?5@ ; `string'
PUBLIC	??_C@_0EB@DKCMAHPG@?$FLANTI?9HACK?$FN?$FLSerial?50?5Item?$FN?5?$FLPSho@ ; `string'
PUBLIC	??_C@_0FK@LBDGBLNC@?$FLPShop?$FN?5?$FL?$CFs?$FN?$FL?$CFs?$FN?5PShop?5Item?5Buy?5@ ; `string'
PUBLIC	??_C@_0FE@PIIJDCEI@?$FLPShop?$FN?5?$FL?$CFs?$FN?$FL?$CFs?$FN?5PShop?5Item?5Buy?5@ ; `string'
PUBLIC	??_C@_0EG@BJIIHLIN@?$FLPShop?$FN?5?$FL?$CFs?$FN?$FL?$CFs?$FN?5PShop?5Item?5Buy?5@ ; `string'
PUBLIC	??_C@_0FE@GMGAEINP@?$FLPShop?$FN?5?$FL?$CFs?$FN?$FL?$CFs?$FN?5PShop?5Item?5Buy?5@ ; `string'
PUBLIC	??_C@_0FC@CGGBJBAH@?$FLPShop?$FN?5?$FL?$CFs?$FN?$FL?$CFs?$FN?5PShop?5Item?5Buy?5@ ; `string'
PUBLIC	??_C@_0FG@GNOMFPND@?$FLPShop?$FN?5?$FL?$CFs?$FN?$FL?$CFs?$FN?5PShop?5Item?5Buy?5@ ; `string'
PUBLIC	??_C@_0FE@GCLCNLCC@?$FLPShop?$FN?5?$FL?$CFs?$FN?$FL?$CFs?$FN?5PShop?5Item?5Buy?5@ ; `string'
PUBLIC	??_C@_0EO@NGLHGNOL@?$FLPShop?$FN?5?$FL?$CFs?$FN?$FL?$CFs?$FN?5PShop?5Item?5Buy?5@ ; `string'
PUBLIC	??_C@_0IE@NPCEKOLA@?$FLPShop?$FN?5?$FL?$CFs?$FN?$FL?$CFs?$FN?$FL?$CFs?$FN?5PShop?5Item?5@ ; `string'
PUBLIC	??_C@_0DF@HMKJEHOO@?$FLPShop?$FN?5?$FL?$CFs?$FN?$FL?$CFs?$FN?5Sold?5All?5Items?5@ ; `string'
PUBLIC	??_C@_0CG@OFOEABOJ@Party?5not?5allowed?5in?5Illusion?5Te@ ; `string'
PUBLIC	??_C@_0CD@ECCPKOHJ@Party?5not?5allowed?5in?5Doppelgange@ ; `string'
PUBLIC	??_C@_0CE@NBODNOHA@Party?5not?5allowed?5in?5Imperial?5Fo@ ; `string'
PUBLIC	??_C@_0BL@OEGODNEF@Party?5result?5?3?5?$CFd?5?$CFd?5?$CFd?5?$CFd?$AA@ ; `string'
PUBLIC	??_C@_05DNIIFBMG@?$CFs?5?$CFs?$AA@		; `string'
PUBLIC	??_C@_0P@JLFGIHAP@No?5Party?5?$CFs?5?$CFs?$AA@	; `string'
PUBLIC	??_C@_0P@GAPFACKC@User?5Not?5found?$AA@		; `string'
PUBLIC	??_C@_05DIALNFFA@?$CFs?5?$CFd?$AA@		; `string'
PUBLIC	??_C@_0CG@IDLFABNI@PartyMember?$CI?$CFd?$CJ?5?3?5Party?5Out?4?5?$FL?$CFs@ ; `string'
PUBLIC	??_C@_0P@IDGHFMPH@No?5party?5?$CFs?5?$CFs?$AA@	; `string'
PUBLIC	??_C@_0P@CPKIABHC@User?5not?5found?$AA@		; `string'
PUBLIC	??_C@_0CD@KPIJPFAI@?$FL?$CFs?$FN?$FL?$CFs?$FN?5Guild?5Request?5?9?5Join?5?3?5@ ; `string'
PUBLIC	??_C@_0CK@LPFOPCOO@?$FL?$CFs?$FN?$FL?$CFs?$FN?5Guild?5Request?5?9?5Dismiss@ ; `string'
PUBLIC	??_C@_0CE@CALGKPMO@?$FL?$CFs?$FN?$FL?$CFs?$FN?5Guild?5Request?5?9?5Leave?5?3@ ; `string'
PUBLIC	??_C@_0DM@KAENPAGM@Error?5on?5declaring?5war?5?3?5GuildMa@ ; `string'
PUBLIC	??_C@_0FH@HAMEKJOJ@?$FLU?4System?$FN?$FLGuildwar?$FN?5Can?8t?5decla@ ; `string'
PUBLIC	??_C@_0ED@OFKACPCN@Error?5on?5declaring?5war?5?3?5Target?5@ ; `string'
PUBLIC	??_C@_0DE@OPCGOEPD@Guild?5War?5cannot?5be?5started?5with@ ; `string'
PUBLIC	??_C@_0DB@IJAALLLN@Guild?5War?5cannot?5be?5started?5with@ ; `string'
PUBLIC	??_C@_0DC@ENCBPHMM@Guild?5War?5cannot?5be?5started?5with@ ; `string'
PUBLIC	??_C@_0M@NJMAOJLE@Score?5?$CFs?5?$CFd?$AA@	; `string'
PUBLIC	??_C@_0BD@ICJCOFEA@Target?5Score?5?$CFs?5?$CFd?$AA@ ; `string'
PUBLIC	??_C@_0BC@OFCHNMFP@error?9L3?5?$FL?$CFs?$FN?$FL?$CFd?$FN?$AA@ ; `string'
PUBLIC	??_C@_0DB@IPFMNKBF@Get?5WareHouse?5Money?$CIIn?5Inventory@ ; `string'
PUBLIC	??_C@_0DB@HJKJHPEL@Get?5WareHouse?5Money?$CIIn?5WareHouse@ ; `string'
PUBLIC	??_C@_0BM@GLBENMI@?$FL?$CFs?$FN?$FL?$CFs?$FN?5Already?5Used?5Chaos?$AA@ ; `string'
PUBLIC	??_C@_0CK@PKJFNKMA@?$FL?$CFs?$FN?$FL?$CFs?$FN?5Undefine?5chaosmix?5type?5@ ; `string'
PUBLIC	??_C@_0CL@HEMFEGBB@error?9L3?5?3?5move?5protocol?5index?5e@ ; `string'
PUBLIC	??_C@_0CL@FPLHDOJG@error?9L3?5?3?5Path?5Count?5error?5?$CFd?5i@ ; `string'
PUBLIC	??_C@_0CI@HDJHDEIB@error?5?3?5move?5protocol?5index?5erro@ ; `string'
PUBLIC	??_C@_0CH@PODPFEHM@?$FLCGAttack?$FN?5?$FLUserIndex?5Error?$FN?5?3?$CFs@ ; `string'
PUBLIC	??_C@_0DI@CILMICFP@?$FL?$CFs?$FN?$FL?$CFs?$FN?5?$CFs?5Kick?5DetecHackCountL@ ; `string'
PUBLIC	??_C@_0EB@PGHIAIFO@?$FL?$CFs?$FN?$FL?$CFs?$FN?5?$CFs?5Attack?5Speed?5Is?5Wron@ ; `string'
PUBLIC	??_C@_0DF@LECGNCFD@?$FL?$CFs?$FN?$FL?$CFs?$FN?5?$CFs?5Apply?5Attack?5Speed?5P@ ; `string'
PUBLIC	??_C@_0BA@GMMKNNFF@error?5?3?$CFs?5?$CFd?5?$CFd?$AA@ ; `string'
PUBLIC	??_C@_0EM@CEMNDEFL@?$FL?$CFs?$FN?$FL?$CFs?$FN?5Try?5Attack?5In?5Not?5Attac@ ; `string'
PUBLIC	??_C@_0CI@GEFMIMGG@?$FL0x19?$FN?5CGMagicAttack?$CI?$CJ?5?9?5Invalid@ ; `string'
PUBLIC	??_C@_0CL@DNLLEKGJ@?$FL0x19?$FN?5CGMagicAttack?$CI?$CJ?5?9?5Invalid@ ; `string'
PUBLIC	??_C@_0EI@OFFDPBJO@?$FLSKILL?5DISTANCE?5CHECK?$FN?5?$FL?$CFs?$FN?$FL?$CFs?$FN?5@ ; `string'
PUBLIC	??_C@_0CM@PIOKLDC@?$FL?$CFs?$FN?$FL?$CFs?$FN?5Try?5Teleport?5Not?5Move?5A@ ; `string'
PUBLIC	??_C@_0DD@FGHCMCNO@?$FL?$CFs?$FN?$FL?$CFs?$FN?5Try?5Target?5Teleport?5Not@ ; `string'
PUBLIC	??_C@_0P@EEHIDPGB@error?9L3?5?$CFs?5?$CFd?$AA@	; `string'
PUBLIC	??_C@_0DM@BJOBFIFA@Too?5long?5time?5passed?5after?5casti@ ; `string'
PUBLIC	??_C@_0DE@ENPGLNLL@?$FL?$CFs?$FN?$FL?$CFs?$FN?5?$CFs?5Kick?5DetecHackCountL@ ; `string'
PUBLIC	??_C@_0DN@IEDPAONG@?$FL?$CFs?$FN?$FL?$CFs?$FN?5?$CFs?5Attack?5Speed?5Is?5Wron@ ; `string'
PUBLIC	??_C@_0DB@JJPLIMIC@?$FL?$CFs?$FN?$FL?$CFs?$FN?5?$CFs?5Apply?5Attack?5Speed?5P@ ; `string'
PUBLIC	??_C@_0DN@PFIDPOLC@?$KB?Z?$KB?Z?$KB?Z?$KB?Z?5InValid?5DurationTime?5Ke@ ; `string'
PUBLIC	??_C@_0DJ@COJBHLGO@?$KB?Z?$KB?Z?$KB?Z?$KB?Z?5InValid?5VailidCount?5?$DN?5?$CF@ ; `string'
PUBLIC	??_C@_0CH@MOHJLJHL@?$FL?$CFs?$FN?$FL?$CFs?$FN?5?$CFs?5Detect?5Hack?5?3?5Multi?5@ ; `string'
PUBLIC	??_C@_0CO@PPJIEIFO@?$FL0x1E?$FN?5CGDurationMagicRecv?$CI?$CJ?5?9?5I@ ; `string'
PUBLIC	??_C@_0DB@CEFMOKDJ@?$FL0x1E?$FN?5CGDurationMagicRecv?$CI?$CJ?5?9?5I@ ; `string'
PUBLIC	??_C@_0CJ@BOAIHIHD@?$FL?$CFs?$FN?$FL?$CFs?$FN?5CGUseItemRecv?$CI?$CJ_If?5retu@ ; `string'
PUBLIC	??_C@_0DA@MJHNJBGE@?$FL?$CFs?$FN?$FL?$CFs?$FN?5CGUseItemRecv?$CI?$CJ_CloseTy@ ; `string'
PUBLIC	??_C@_0EB@BNHHPHMK@?$FL?$CFs?$FN?$FL?$CFs?$FN?5CGUseItemRecv?$CI?$CJ?5Failed?5@ ; `string'
PUBLIC	??_C@_0DA@FOMIHIHO@?$FL?$CFs?$FN?$FL?$CFs?$FN?5CGUseItemRecv?$CI?$CJ_Invento@ ; `string'
PUBLIC	??_C@_0DF@KEJKEDMK@error?9L1?5?3?5?$FL?$CFs?$FN?$FL?$CFs?$FN?5CGUseItemRec@ ; `string'
PUBLIC	??_C@_0DP@BFNIJADP@?$FLANTI?9HACK?$FN?$FLSerial?50?5Item?$FN?5?$FLUseI@ ; `string'
PUBLIC	??_C@_0EB@CKLOJJGD@?$FL?$CFs?$FN?$FL?$CFs?$FNUse?5Compound?5Potion?5Lv1?5@ ; `string'
PUBLIC	??_C@_0EB@KBGNKHHK@?$FL?$CFs?$FN?$FL?$CFs?$FNUse?5Compound?5Potion?5Lv2?5@ ; `string'
PUBLIC	??_C@_0EB@GOPDLALC@?$FL?$CFs?$FN?$FL?$CFs?$FNUse?5Compound?5Potion?5Lv3?5@ ; `string'
PUBLIC	??_C@_0DJ@OLFFBGBF@?$FLUsing?5Item?$FN?5?$FLReturn?5Scroll?$FN?5?$FL?$CFs@ ; `string'
PUBLIC	??_C@_0FH@OKKOPLEO@?$FLCastleSiege?$FN?5Using?5CastleSiege?5@ ; `string'
PUBLIC	??_C@_0EI@HHBGCCMK@?$FLCastleSiege?$FN?5Using?5CastleSiege?5@ ; `string'
PUBLIC	??_C@_0CF@HJJFJDGL@?$FLPCS?$FN?5Use?5Free?5Kalima?5Ticket?5Suc@ ; `string'
PUBLIC	??_C@_0CE@DKNGJAAK@?$FLPCS?$FN?5Use?5Free?5Kalima?5Ticket?5Fai@ ; `string'
PUBLIC	??_C@_0EL@CDNJHAJK@?$FLUsing?5Item?$FN?5?$FLCharm?5of?5Raise?$FN?5?$FL?$CF@ ; `string'
PUBLIC	??_C@_0CG@HCHOOMNP@?$FLUsing?5Item?$FN?5?$FLCharm?5of?5Move?$FN?5?$FL?$CFs@ ; `string'
PUBLIC	??_C@_0EM@IOOAJBNM@?$FLUsing?5Item?$FN?5?$FLCharm?5of?5Move?5?9?5Sa@ ; `string'
PUBLIC	??_C@_0CN@HEGKGIOI@?$FL?$CFs?$FN?5?$FL?$CFs?$FN?5?$FLMasterLevelSkill?5Rese@ ; `string'
PUBLIC	??_C@_0BI@IGJGPHCH@Master?5Skill?5Reset?5Fail?$AA@ ; `string'
PUBLIC	??_C@_0DG@CEAHPFGG@?$FL?$CFs?$FN?5?$FL?$CFs?$FN?5?$FLMasterLevelSkill?5Rese@ ; `string'
PUBLIC	??_C@_0EB@LLBOIAD@?$FL?$CFs?$FN?5?$FL?$CFs?$FN?5?$FLMasterLevelSkill?5Rese@ ; `string'
PUBLIC	??_C@_0CJ@HAOMGPEH@?$FL?$CFs?$FN?5?$FL?$CFs?$FN?5?$FLMasterLevelSkill?5Rese@ ; `string'
PUBLIC	??_C@_0CB@DBLGBMBL@error?9L3?5?3?5?$CFs?5return?5?$CFs?5?$CFd?5?$CFd?5?$CFs@ ; `string'
PUBLIC	??_C@_0BO@FLPOFOKL@error?9L3?5?3?5?$CFs?5return?5?$CFs?5?$CFd?5?$CFd?$AA@ ; `string'
PUBLIC	??_C@_0BK@CHOMIMBC@GCManaSend?$CI?$CJ?5return?5?$CFs?5?$CFd?$AA@ ; `string'
PUBLIC	??_C@_0N@GGPGOPEN@return?5?$CFs?5?$CFd?$AA@	; `string'
PUBLIC	??_C@_0DN@EDDIPEJF@?$FLDevilSquare?$FN?5?$FL?$CFs?$FN?$FL?$CFs?$FN?5Request?5M@ ; `string'
PUBLIC	??_C@_0DK@HAACDBFD@?$FLDevilSquare?$FN?5?$FL?$CFs?$FN?$FL?$CFs?$FN?5Move?5Devi@ ; `string'
PUBLIC	??_C@_0EP@OANDGE@?$FLDevilSquare?$FN?5?$FL?$CFs?$FN?$FL?$CFs?$FN?5Move?5Devi@ ; `string'
PUBLIC	??_C@_0DE@NILIJDCN@?$FLDevilSquare?$FN?5?$FL?$CFs?$FN?$FL?$CFs?$FN?5GetUserLe@ ; `string'
PUBLIC	??_C@_0DO@GMGNNGG@?$FLDevilSquare?$FN?5?$FL?$CFs?$FN?$FL?$CFs?$FN?5Move?5Devi@ ; `string'
PUBLIC	??_C@_0FE@INNDGJO@?$FLDevilSquare?$FN?5?$FL?$CFs?$FN?$FL?$CFs?$FN?5Move?5Devi@ ; `string'
PUBLIC	??_C@_0DI@DOLGONFI@?$FLPK?5User?$FN?$FLDevilSquare?$FN?5?$FL?$CFs?$FN?$FL?$CFs?$FN?5@ ; `string'
PUBLIC	??_C@_0DI@MOALMGDC@?$FLPK?5User?$FN?$FLBloodCastle?$FN?5?$FL?$CFs?$FN?$FL?$CFs?$FN?5@ ; `string'
PUBLIC	??_C@_0DL@CMJKPIPK@?$FLEventChip?$FN?5?$FL?$CFs?$FN?$FL?$CFs?$FN?5Attempted?5I@ ; `string'
PUBLIC	??_C@_0DO@JBAPFEJ@?$FLEventChip?$FN?5?$FL?$CFs?$FN?$FL?$CFs?$FN?5Attempted?5I@ ; `string'
PUBLIC	??_C@_0DO@JJFBLCKD@?$FLEventChip?$FN?5?$FL?$CFs?$FN?$FL?$CFs?$FN?5Not?5Found?5E@ ; `string'
PUBLIC	??_C@_0DO@NOPBMIHD@?$FLEventChip?$FN?5?$FL?$CFs?$FN?$FL?$CFs?$FN?5Not?5Found?5E@ ; `string'
PUBLIC	??_C@_0BM@JDNCDNDO@You?5lack?5items?5to?5exchange?$CB?$AA@ ; `string'
PUBLIC	??_C@_0BO@DNEDNODE@?$MA?L?$LJ?L?5?$LH?g?$LA?$KB?$LF?e?$MA?G?5?$LM?$PN?$MA?Z?$LA?$KB?5?$MA?V?$LN?$MA?$LE?O?$LE?Y?$AA@ ; `string'
PUBLIC	??_C@_0CI@GJEFDNKH@?$FLEventChip?$FN?5?$FL?$CFs?$FN?$FL?$CFs?$FN?5Request?5Mut@ ; `string'
PUBLIC	??_C@_0CL@LPOFFCFH@?$FLEventChip?$FN?5?$FL?$CFs?$FN?$FL?$CFs?$FN?5Request?5Cha@ ; `string'
PUBLIC	??_C@_0CJ@OIKODDDO@?$FLEventChip?$FN?5?$FL?$CFs?$FN?$FL?$CFs?$FN?5Request?5Cha@ ; `string'
PUBLIC	??_C@_0FL@KOIEBFHD@?$FLBlood?5Castle?$FN?5?$CI?$CFd?$CJ?5?$CIAccount?3?$CFs?0@ ; `string'
PUBLIC	??_C@_0FK@NPJPMFON@?$FLChaos?5Castle?$FN?5?$CI?$CFd?$CJ?5?$CIAccount?3?$CFs?0@ ; `string'
PUBLIC	??_C@_0EC@MLMNLDLI@?$FLMu_2Anv_Event?$FN?5?$FL?$CFs?$FN?$FL?$CFs?$FN?5Registe@ ; `string'
PUBLIC	??_C@_0CL@NFPFJCOO@?$FLCharTrasfer?$FN?5Fail?5?$CIJoominNumber@ ; `string'
PUBLIC	??_C@_0DI@PPPCGFPL@?$LJ?$KO?A?$KG?5?$LJ?$NP?$LL?$PN?$LN?C?5change?$EAwebzen?4co?4kr?$LH@ ; `string'
PUBLIC	??_C@_0DB@HNLHIMNJ@?$FLCharTrasfer?$FN?5Request?5Character?5@ ; `string'
PUBLIC	??_C@_0DE@MJGAINFG@?$FLDuel?$FN?5?$FL?$CFs?$FN?$FL?$CFs?$FN?5Requested?5to?5Sta@ ; `string'
PUBLIC	??_C@_0CE@OCKCINJI@?$FLDuel?$FN?5?$FL?$CFs?$FN?$FL?$CFs?$FN?5Duel?5Ended?5?$FL?$CFs?$FN?$FL@ ; `string'
PUBLIC	??_C@_0BH@LCDOHCGD@error?9L2?5?3?5Index?5?$CFs?5?$CFd?$AA@ ; `string'
PUBLIC	??_C@_0DL@GJNDCDLC@?$FLPetItem?$FN?5?$FL?$CFs?$FN?$FL?$CFs?$FN?5RequestPetIte@ ; `string'
PUBLIC	??_C@_0DM@BLGKOALL@?$FLPetItem?$FN?5?$FL?$CFs?$FN?$FL?$CFs?$FN?5RequestPetIte@ ; `string'
PUBLIC	??_C@_0DI@LFOOFHNO@?$FLPetItem?$FN?5?$FL?$CFs?$FN?$FL?$CFs?$FN?5RequestPetIte@ ; `string'
PUBLIC	??_C@_0DO@OIKHDOGN@?$FLPetItem?$FN?5?$FL?$CFs?$FN?$FL?$CFs?$FN?5RequestPetIte@ ; `string'
PUBLIC	??_C@_0DI@DBFIHHGF@?$FLPetItem?$FN?5?$FL?$CFs?$FN?$FL?$CFs?$FN?5RequestPetIte@ ; `string'
PUBLIC	??_C@_0DE@DNMHOFNM@?$KB?Z?$KB?Z?$KB?Y?5?$LB?f?$LF?e?5?A?$KE?$LK?$LI?5?C?$KD?$MA?$LL?$LM?v?5?$LO?x?$MA?$LN?4?5?$MA?L@ ; `string'
PUBLIC	??_C@_0BE@PGBMBNEJ@?$KB?Z?5Terminated?5User?4?$AA@ ; `string'
PUBLIC	??_C@_0BF@IFHLAKIO@?$KB?Y?5Terminated?5Guild?4?$AA@ ; `string'
PUBLIC	??_C@_0DD@OALOABGE@?$FLMapServerMng?$FN?5Map?5Server?5Join?5S@ ; `string'
PUBLIC	??_C@_0EA@IPNBBDAL@?$FLMapServerMng?$FN?5Packet?5Error?5JG?5?$FL@ ; `string'
PUBLIC	??_C@_0EG@CHMKLDIE@?$FLCastleSiege?$FN?5?$FL?$CFs?$FN?$FL?$CFs?$FN?5Registere@ ; `string'
PUBLIC	??_C@_0EC@MMKDCAAJ@?$FLCastleSiege?$FN?5?$FL?$CFs?$FN?$FL?$CFs?$FN?5GiveUp?5Ca@ ; `string'
PUBLIC	??_C@_0GC@FDJJPEIB@?$FLCastleSiege?$FN?5CGReqNpcBuy?$CI?$CJ?5ERRO@ ; `string'
PUBLIC	??_C@_0HB@FHABJKFG@?$FLCastleSiege?$FN?5CGReqNpcBuy?$CI?$CJ?5ERRO@ ; `string'
PUBLIC	??_C@_0FA@NJFDHFJL@?$FLCastleSiege?$FN?5CGReqNpcBuy?$CI?$CJ?5OK?5?9@ ; `string'
PUBLIC	??_C@_0EP@JKAOCMDF@?$FLCastleSiege?$FN?5CGReqNpcRepair?$CI?$CJ?5E@ ; `string'
PUBLIC	??_C@_0GG@EJLCHNOA@?$FLCastleSiege?$FN?5CGReqNpcRepair?$CI?$CJ?5E@ ; `string'
PUBLIC	??_C@_0GO@OKDMDNNG@?$FLCastleSiege?$FN?5CGReqNpcRepair?$CI?$CJ?5E@ ; `string'
PUBLIC	??_C@_0GJ@EAKLGMOB@?$FLCastleSiege?$FN?5CGReqNpcRepair?$CI?$CJ?5E@ ; `string'
PUBLIC	??_C@_0FD@DOALANGE@?$FLCastleSiege?$FN?5CGReqNpcRepair?$CI?$CJ?5O@ ; `string'
PUBLIC	??_C@_0FA@FOFEAMPC@?$FLCastleSiege?$FN?5CGReqNpcUpgrade?$CI?$CJ?5@ ; `string'
PUBLIC	??_C@_0HP@CCMCIINC@?$FLCastleSiege?$FN?5CGReqNpcUpgrade?$CI?$CJ?5@ ; `string'
PUBLIC	??_C@_0JK@PKCLEPDN@?$FLCastleSiege?$FN?5CGReqNpcUpgrade?$CI?$CJ?5@ ; `string'
PUBLIC	??_C@_0JE@MAAHAGJP@?$FLCastleSiege?$FN?5CGReqNpcUpgrade?$CI?$CJ?5@ ; `string'
PUBLIC	??_C@_0GJ@BFDGFKFN@?$FLCastleSiege?$FN?5?$FL0xB2?$FN?$FL0x07?$FN?5CGReq@ ; `string'
PUBLIC	??_C@_0HF@MKGLJLP@?$FLCastleSiege?$FN?5CGReqNpcUpgrade?$CI?$CJ?5@ ; `string'
PUBLIC	??_C@_0FC@DCLHCCNM@?$FLCastleSiege?$FN?5CGReqTaxMoneyInfo?$CI@ ; `string'
PUBLIC	??_C@_0EE@COLPGPNH@?$FLCastleSiege?$FN?5CGReqTaxMoneyInfo?$CI@ ; `string'
PUBLIC	??_C@_0FD@KBBNDHCP@?$FLCastleSiege?$FN?5CGReqTaxRateChange@ ; `string'
PUBLIC	??_C@_0HC@JOOCDJDK@?$FLCastleSiege?$FN?5CGReqTaxRateChange@ ; `string'
PUBLIC	??_C@_0FN@BAMHEEPO@?$FLCastleSiege?$FN?5CGReqTaxRateChange@ ; `string'
PUBLIC	??_C@_0FC@DGNKBDAH@?$FLCastleSiege?$FN?5CGReqMoneyDrawOut?$CI@ ; `string'
PUBLIC	??_C@_0GI@OMCJPOBC@?$FLCastleSiege?$FN?5CGReqMoneyDrawOut?$CI@ ; `string'
PUBLIC	??_C@_0GO@PDPPHBEL@?$FLCastleSiege?$FN?5CGReqMoneyDrawOut?$CI@ ; `string'
PUBLIC	??_C@_0FL@OCIHBNNC@?$FLCastleSiege?$FN?5CGReqMoneyDrawOut?$CI@ ; `string'
PUBLIC	??_C@_0FD@CLDAEBMI@?$FLCastleSiege?$FN?5CGReqCsGateOperate@ ; `string'
PUBLIC	??_C@_0FI@ECEJELNH@?$FLCastleSiege?$FN?5CGReqCsGateOperate@ ; `string'
PUBLIC	??_C@_0GC@PPNJMEKD@?$FLCastleSiege?$FN?5CGReqCsGateOperate@ ; `string'
PUBLIC	??_C@_0FH@PFCGGCDO@?$FLCastleSiege?$FN?5CGReqCsGateOperate@ ; `string'
PUBLIC	??_C@_0EM@JNCLHJJ@?$FLCastleSiege?$FN?5?$FLReg?4?5Attempt?$FN?5Acc@ ; `string'
PUBLIC	??_C@_0EM@IGJJMHPI@?$FLCastleSiege?$FN?5?$FLReg?4?5Success?$FN?5Acc@ ; `string'
PUBLIC	??_C@_0EJ@JHNFCADN@?$FLCastleSiege?$FN?5?$FLReg?4?5Fail?$FN?5Accumu@ ; `string'
PUBLIC	??_C@_0EP@MCHCDEEO@?$FLCastleSiege?$FN?5CGReqNpcDbList?$CI?$CJ?5E@ ; `string'
PUBLIC	??_C@_0DJ@POFOHDII@?$FLCastle?5HuntZone?$FN?5?$FL?$CFs?$FN?$FL?$CFs?$FN?5?9?5Ent@ ; `string'
PUBLIC	??_C@_0EM@GKLOHMBB@?$FL?$CFs?$FN?$FL?$CFs?$FN?5Try?5Attack?5In?5Not?5Attac@ ; `string'
PUBLIC	??_C@_0CH@MELJEGBP@?$FL0x4A?$FN?5CGRageAttack?$CI?$CJ?5?9?5Invalid?5@ ; `string'
PUBLIC	??_C@_0CK@IHOODACF@?$FL0x4A?$FN?5CGRageAttack?$CI?$CJ?5?9?5Invalid?5@ ; `string'
PUBLIC	??_C@_0BN@JLEKNDOL@?$FLMuBot?$FN?5Option?5Save?5?$FL?$CFs?$FN?$FL?$CFs?$FN?$AA@ ; `string'
PUBLIC	??_C@_0BN@JAGJPNLP@?$FLMuBot?$FN?5Option?5Send?5?$FL?$CFs?$FN?$FL?$CFs?$FN?$AA@ ; `string'
PUBLIC	??_C@_0DB@OKKAKFII@Only?5characters?5above?5?$CFd?5level?5c@ ; `string'
PUBLIC	??_C@_0CE@IHDJCCIO@MU?5Helper?5cant?5run?5on?5this?5locat@ ; `string'
PUBLIC	??_C@_0GN@LMFACHAA@?$FLUseCahngeSkinState?$FN?$FLCGEnableUse@ ; `string'
PUBLIC	??_C@_0BM@JGJDNBPL@?$FLDEBUG?$FN?5Text?3?5?$CFs?0?5Value?3?5?$CFd?$AA@ ; `string'
PUBLIC	??_R4_CS_NPC_DATA@@6B@				; _CS_NPC_DATA::`RTTI Complete Object Locator'
PUBLIC	??_R0?AU_CS_NPC_DATA@@@8			; _CS_NPC_DATA `RTTI Type Descriptor'
PUBLIC	??_R3_CS_NPC_DATA@@8				; _CS_NPC_DATA::`RTTI Class Hierarchy Descriptor'
PUBLIC	??_R2_CS_NPC_DATA@@8				; _CS_NPC_DATA::`RTTI Base Class Array'
PUBLIC	??_R1A@?0A@EA@_CS_NPC_DATA@@8			; _CS_NPC_DATA::`RTTI Base Class Descriptor at (0,-1,0,64)'
PUBLIC	__real@00000000
PUBLIC	__real@3f800000
PUBLIC	__real@3fc00000
PUBLIC	__real@3fe4cccccccccccd
PUBLIC	__real@40000000
PUBLIC	__real@40400000
PUBLIC	__real@406fc00000000000
PUBLIC	__real@406fe00000000000
PUBLIC	__real@40a00000
PUBLIC	__real@41200000
PUBLIC	__real@41c80000
PUBLIC	__real@42340000
PUBLIC	__real@42c80000
PUBLIC	__xmm@ffffffffffffffffffffffffffffffff
EXTRN	??_M@YGXPAXIIP6EX0@Z@Z:PROC			; `eh vector destructor iterator'
EXTRN	??2@YAPAXI@Z:PROC				; operator new
EXTRN	??3@YAXPAX@Z:PROC				; operator delete
EXTRN	??3@YAXPAXI@Z:PROC				; operator delete
EXTRN	??_V@YAXPAXI@Z:PROC				; operator delete[]
EXTRN	_atexit:PROC
EXTRN	__invalid_parameter_noinfo_noreturn:PROC
EXTRN	_isalnum:PROC
EXTRN	_memchr:PROC
EXTRN	_memmove:PROC
EXTRN	_strncmp:PROC
EXTRN	__imp__EnterCriticalSection@4:PROC
EXTRN	__imp__LeaveCriticalSection@4:PROC
EXTRN	__imp__GetTickCount@0:PROC
EXTRN	__imp__wsprintfA:PROC
EXTRN	___stdio_common_vsprintf:PROC
EXTRN	___stdio_common_vsprintf_s:PROC
EXTRN	_rand:PROC
EXTRN	__imp__ntohl@4:PROC
EXTRN	?_Xbad_alloc@std@@YAXXZ:PROC			; std::_Xbad_alloc
EXTRN	?_Xlength_error@std@@YAXPBD@Z:PROC		; std::_Xlength_error
EXTRN	?_Xout_of_range@std@@YAXPBD@Z:PROC		; std::_Xout_of_range
EXTRN	?Get@Message@@QAEPADH@Z:PROC			; Message::Get
EXTRN	?SearchGuild@CGuildClass@@QAEPAU_GUILD_INFO_STRUCT@@PAD@Z:PROC ; CGuildClass::SearchGuild
EXTRN	?SearchGuild_Number@CGuildClass@@QAEPAU_GUILD_INFO_STRUCT@@H@Z:PROC ; CGuildClass::SearchGuild_Number
EXTRN	?CGJoinRequest@CGensSystem@@QAEXPAEH@Z:PROC	; CGensSystem::CGJoinRequest
EXTRN	?CGLeaveRequest@CGensSystem@@QAEXH@Z:PROC	; CGensSystem::CGLeaveRequest
EXTRN	?CGRequestPrize@CGensSystem@@QAEXPAEH@Z:PROC	; CGensSystem::CGRequestPrize
EXTRN	?SendGensInfo@CGensSystem@@QAEXH@Z:PROC		; CGensSystem::SendGensInfo
EXTRN	?Convert@CItem@@QAEXHEEEEEEPAEEE@Z:PROC		; CItem::Convert
EXTRN	?Value@CItem@@QAEXXZ:PROC			; CItem::Value
EXTRN	?GetSize@CItem@@QAEHAAH0@Z:PROC			; CItem::GetSize
EXTRN	?Clear@CItem@@QAEXXZ:PROC			; CItem::Clear
EXTRN	?IsItem@CItem@@QAEHXZ:PROC			; CItem::IsItem
EXTRN	?IsSetItem@CItem@@QAEHXZ:PROC			; CItem::IsSetItem
EXTRN	?PetValue@CItem@@QAEXXZ:PROC			; CItem::PetValue
EXTRN	?IsClass@CItem@@QAEHDHH@Z:PROC			; CItem::IsClass
EXTRN	?GetName@CItem@@QAEPADXZ:PROC			; CItem::GetName
EXTRN	?GetNumber@CItem@@QAEKXZ:PROC			; CItem::GetNumber
EXTRN	?IsExtItem@CItem@@QAEHXZ:PROC			; CItem::IsExtItem
EXTRN	?IsFullAncient@CItem@@QAEHXZ:PROC		; CItem::IsFullAncient
EXTRN	?IsFullExcellent@CItem@@QAE_NXZ:PROC		; CItem::IsFullExcellent
EXTRN	?ItemByteConvert@@YAXPAEVCItem@@@Z:PROC		; ItemByteConvert
EXTRN	?ItemByteConvert@@YAXPAEHEEEEEEEEE0E@Z:PROC	; ItemByteConvert
EXTRN	?ItemGetNumberMake@@YAHHH@Z:PROC		; ItemGetNumberMake
EXTRN	?HasItemDurability@@YAHH@Z:PROC			; HasItemDurability
EXTRN	?GetAllRepairItemRate@@YAMH@Z:PROC		; GetAllRepairItemRate
EXTRN	?GetItemAttr@@YAPAUITEM_ATTRIBUTE@@H@Z:PROC	; GetItemAttr
EXTRN	?SkillGetRequireClass@CMagicDamage@@QAEHHHHH@Z:PROC ; CMagicDamage::SkillGetRequireClass
EXTRN	?CheckStatus@CMagicDamage@@QAEHHH@Z:PROC	; CMagicDamage::CheckStatus
EXTRN	?CheckKillCount@CMagicDamage@@QAEHHH@Z:PROC	; CMagicDamage::CheckKillCount
EXTRN	?GetSkillUseType@CMagicDamage@@QAEHH@Z:PROC	; CMagicDamage::GetSkillUseType
EXTRN	??1CSkillDelay@@UAE@XZ:PROC			; CSkillDelay::~CSkillDelay
EXTRN	?CheckCombo@CComboAttack@@QAEHHH@Z:PROC		; CComboAttack::CheckCombo
EXTRN	?DataSend@@YAHHPAEK@Z:PROC			; DataSend
EXTRN	?CloseClient@@YAXH@Z:PROC			; CloseClient
EXTRN	?IsMagic@CMagicInf@@QAEHXZ:PROC			; CMagicInf::IsMagic
EXTRN	??1TMonsterAIAgro@@UAE@XZ:PROC			; TMonsterAIAgro::~TMonsterAIAgro
EXTRN	?IsJewelOfHarmonyOriginal@CJewelOfHarmonySystem@@QAEHF@Z:PROC ; CJewelOfHarmonySystem::IsJewelOfHarmonyOriginal
EXTRN	?IsJewelOfHarmonyPurity@CJewelOfHarmonySystem@@QAEHF@Z:PROC ; CJewelOfHarmonySystem::IsJewelOfHarmonyPurity
EXTRN	?IsJewelOfHarmonySmeltingItems@CJewelOfHarmonySystem@@QAEHF@Z:PROC ; CJewelOfHarmonySystem::IsJewelOfHarmonySmeltingItems
EXTRN	?PurityJewelOfHarmony@CJewelOfHarmonySystem@@QAEXPAUOBJECTSTRUCT@@@Z:PROC ; CJewelOfHarmonySystem::PurityJewelOfHarmony
EXTRN	?GetItemStrengthenOption@CJewelOfHarmonySystem@@QAEEPAVCItem@@@Z:PROC ; CJewelOfHarmonySystem::GetItemStrengthenOption
EXTRN	?GetItemOptionLevel@CJewelOfHarmonySystem@@QAEEPAVCItem@@@Z:PROC ; CJewelOfHarmonySystem::GetItemOptionLevel
EXTRN	?IsStrengthenByJewelOfHarmony@CJewelOfHarmonySystem@@QAEHPAVCItem@@@Z:PROC ; CJewelOfHarmonySystem::IsStrengthenByJewelOfHarmony
EXTRN	?MakeSmeltingStoneItem@CJewelOfHarmonySystem@@QAEHPAUOBJECTSTRUCT@@@Z:PROC ; CJewelOfHarmonySystem::MakeSmeltingStoneItem
EXTRN	?SmeltItemBySmeltingStone@CJewelOfHarmonySystem@@QAEHPAUOBJECTSTRUCT@@HH@Z:PROC ; CJewelOfHarmonySystem::SmeltItemBySmeltingStone
EXTRN	?RestoreStrengthenItem@CJewelOfHarmonySystem@@QAEHPAUOBJECTSTRUCT@@@Z:PROC ; CJewelOfHarmonySystem::RestoreStrengthenItem
EXTRN	?Is380OptionItem@CItemSystemFor380@@QAEHPBVCItem@@@Z:PROC ; CItemSystemFor380::Is380OptionItem
EXTRN	?ChaosMix380ItemOption@CItemSystemFor380@@QAEHPAUOBJECTSTRUCT@@@Z:PROC ; CItemSystemFor380::ChaosMix380ItemOption
EXTRN	?GetItemOptions@CSocketItems@@QAEXPAVCItem@@PAE1@Z:PROC ; CSocketItems::GetItemOptions
EXTRN	?gObjCalCharacter@@YAXH@Z:PROC			; gObjCalCharacter
EXTRN	?gObjClearViewport@@YAXPAUOBJECTSTRUCT@@@Z:PROC	; gObjClearViewport
EXTRN	?gObjCloseSet@@YAXHH@Z:PROC			; gObjCloseSet
EXTRN	?IsDuelEnable@@YA_NH@Z:PROC			; IsDuelEnable
EXTRN	?gObjSetBP@@YAXH@Z:PROC				; gObjSetBP
EXTRN	?gObjCanItemTouch@@YAHPAUOBJECTSTRUCT@@H@Z:PROC	; gObjCanItemTouch
EXTRN	?ItemIsBufExOption@@YAXPAEPAVCItem@@@Z:PROC	; ItemIsBufExOption
EXTRN	?gObjItemTextSave@@YAXPAUOBJECTSTRUCT@@@Z:PROC	; gObjItemTextSave
EXTRN	?gObjWarehouseTextSave@@YAXPAUOBJECTSTRUCT@@@Z:PROC ; gObjWarehouseTextSave
EXTRN	?gObjUserKill@@YAXH@Z:PROC			; gObjUserKill
EXTRN	?gObjDel@@YAFH@Z:PROC				; gObjDel
EXTRN	?gObjIsGamePlaing@@YAHPAUOBJECTSTRUCT@@@Z:PROC	; gObjIsGamePlaing
EXTRN	?gObjIsConnectedGP@@YAHH@Z:PROC			; gObjIsConnectedGP
EXTRN	?gObjIsConnected@@YAHPAUOBJECTSTRUCT@@H@Z:PROC	; gObjIsConnected
EXTRN	?gObjIsConnected@@YAHH@Z:PROC			; gObjIsConnected
EXTRN	?gObjIsConnected@@YAHPAUOBJECTSTRUCT@@@Z:PROC	; gObjIsConnected
EXTRN	?gObjIsAccontConnect@@YAHHPAD@Z:PROC		; gObjIsAccontConnect
EXTRN	?gObjJoominCheck@@YAHHPAD@Z:PROC		; gObjJoominCheck
EXTRN	?gObjCheckXYMapTile@@YAHPAUOBJECTSTRUCT@@H@Z:PROC ; gObjCheckXYMapTile
EXTRN	?gObjCalDistance@@YAHPAUOBJECTSTRUCT@@0@Z:PROC	; gObjCalDistance
EXTRN	?gObjPositionCheck@@YAHPAUOBJECTSTRUCT@@@Z:PROC	; gObjPositionCheck
EXTRN	?gObjAddMsgSendDelay@@YAXPAUOBJECTSTRUCT@@HHHH@Z:PROC ; gObjAddMsgSendDelay
EXTRN	?gObjLevelUpPointAdd@@YAHEPAUOBJECTSTRUCT@@@Z:PROC ; gObjLevelUpPointAdd
EXTRN	?gObjGuildMasterCapacityTest@@YAHPAUOBJECTSTRUCT@@@Z:PROC ; gObjGuildMasterCapacityTest
EXTRN	?gObjAttack@@YAXPAUOBJECTSTRUCT@@0PAVCMagicInf@@HEHHEE@Z:PROC ; gObjAttack
EXTRN	?gObjInventoryTrans@@YAHH@Z:PROC		; gObjInventoryTrans
EXTRN	?gObjInventoryCommit@@YAHH@Z:PROC		; gObjInventoryCommit
EXTRN	?gObjInventoryItemSet@@YAXHHE@Z:PROC		; gObjInventoryItemSet
EXTRN	?gObjFixInventoryPointer@@YA_NH@Z:PROC		; gObjFixInventoryPointer
EXTRN	?gObjInventoryItemSet_PShop@@YAXHHE@Z:PROC	; gObjInventoryItemSet_PShop
EXTRN	?gObjInventoryDeleteItem@@YAEHH@Z:PROC		; gObjInventoryDeleteItem
EXTRN	?gObjOnlyInventoryInsertItem@@YAEHVCItem@@@Z:PROC ; gObjOnlyInventoryInsertItem
EXTRN	?gObjSearchItem@@YAHPAUOBJECTSTRUCT@@HHH@Z:PROC	; gObjSearchItem
EXTRN	?gObjSearchItemMinus@@YAHPAUOBJECTSTRUCT@@HH@Z:PROC ; gObjSearchItemMinus
EXTRN	?gObjShopBuyInventoryInsertItem@@YAEHVCItem@@@Z:PROC ; gObjShopBuyInventoryInsertItem
EXTRN	?gObjInventoryInsertItemTemp@@YAEPAUOBJECTSTRUCT@@PAVCMapItem@@@Z:PROC ; gObjInventoryInsertItemTemp
EXTRN	?gObjInventoryInsertItem@@YAEHPAVCMapItem@@@Z:PROC ; gObjInventoryInsertItem
EXTRN	?CheckInventoryEmptySpace@@YAHPAUOBJECTSTRUCT@@HH@Z:PROC ; CheckInventoryEmptySpace
EXTRN	?gObjInventorySearchSerialNumber@@YAHPAUOBJECTSTRUCT@@K@Z:PROC ; gObjInventorySearchSerialNumber
EXTRN	?gObjInventoryMoveItem@@YAEHEEAAH0EEPAE@Z:PROC	; gObjInventoryMoveItem
EXTRN	?gObjTradeInventoryMove@@YAEPAUOBJECTSTRUCT@@EE@Z:PROC ; gObjTradeInventoryMove
EXTRN	?gObjInventoryTradeMove@@YAEPAUOBJECTSTRUCT@@EE@Z:PROC ; gObjInventoryTradeMove
EXTRN	?gObjTradeTradeMove@@YAEPAUOBJECTSTRUCT@@EE@Z:PROC ; gObjTradeTradeMove
EXTRN	?gObjTradeCancel@@YAXH@Z:PROC			; gObjTradeCancel
EXTRN	?gObjTradeOkButton@@YAXH@Z:PROC			; gObjTradeOkButton
EXTRN	?LevelSmallConvert@@YAEHH@Z:PROC		; LevelSmallConvert
EXTRN	?gObjMakePreviewCharSet@@YAXH@Z:PROC		; gObjMakePreviewCharSet
EXTRN	?CreateFrustrum@@YAXHHH@Z:PROC			; CreateFrustrum
EXTRN	?PShop_CheckInventoryEmpty@@YA_NF@Z:PROC	; PShop_CheckInventoryEmpty
EXTRN	?gObjUseDrink@@YAXPAUOBJECTSTRUCT@@H@Z:PROC	; gObjUseDrink
EXTRN	?gObjViewportListProtocolCreate@@YAXPAUOBJECTSTRUCT@@@Z:PROC ; gObjViewportListProtocolCreate
EXTRN	?gObjTeleportMagicUse@@YAXHEE@Z:PROC		; gObjTeleportMagicUse
EXTRN	?gObjMoveGate@@YAHHH@Z:PROC			; gObjMoveGate
EXTRN	?gObjTeleport@@YAXHHHH@Z:PROC			; gObjTeleport
EXTRN	?gObjMoveDataLoadingOK@@YAXH@Z:PROC		; gObjMoveDataLoadingOK
EXTRN	?gObjGetMagic@@YAPAVCMagicInf@@PAUOBJECTSTRUCT@@H@Z:PROC ; gObjGetMagic
EXTRN	?gObjGetMagicSearch@@YAPAVCMagicInf@@PAUOBJECTSTRUCT@@H@Z:PROC ; gObjGetMagicSearch
EXTRN	?gObjMagicManaUse@@YAHPAUOBJECTSTRUCT@@PAVCMagicInf@@@Z:PROC ; gObjMagicManaUse
EXTRN	?gObjMagicBPUse@@YAHPAUOBJECTSTRUCT@@PAVCMagicInf@@@Z:PROC ; gObjMagicBPUse
EXTRN	?gObjMagicAdd@@YAHPAUOBJECTSTRUCT@@EEEAAG@Z:PROC ; gObjMagicAdd
EXTRN	?gObjItemLevelUpPickAxe@@YAHPAUOBJECTSTRUCT@@HH@Z:PROC ; gObjItemLevelUpPickAxe
EXTRN	?gObjItemDurUp@@YAHPAUOBJECTSTRUCT@@HH@Z:PROC	; gObjItemDurUp
EXTRN	?gObjItemStrenghtenUp@@YAHPAUOBJECTSTRUCT@@HH@Z:PROC ; gObjItemStrenghtenUp
EXTRN	?gObjGuildWarEndSend@@YAXPAU_GUILD_INFO_STRUCT@@0EE@Z:PROC ; gObjGuildWarEndSend
EXTRN	?gObjGuildWarEnd@@YAXPAU_GUILD_INFO_STRUCT@@0@Z:PROC ; gObjGuildWarEnd
EXTRN	?gObjGuildWarMasterClose@@YAHPAUOBJECTSTRUCT@@@Z:PROC ; gObjGuildWarMasterClose
EXTRN	?gObjMonsterCallKill@@YAXH@Z:PROC		; gObjMonsterCallKill
EXTRN	?gObjCheckTeleportArea@@YAHHEE@Z:PROC		; gObjCheckTeleportArea
EXTRN	?gObjCheckAttackArea@@YAHHH@Z:PROC		; gObjCheckAttackArea
EXTRN	?gObjFind10EventChip@@YAHH@Z:PROC		; gObjFind10EventChip
EXTRN	?gObjSetPosition@@YAXHHH@Z:PROC			; gObjSetPosition
EXTRN	?gObjGetItemCountInIventory@@YAHHHHH@Z:PROC	; gObjGetItemCountInIventory
EXTRN	?gObjDelteItemCountInInventory@@YAXHHHHH@Z:PROC	; gObjDelteItemCountInInventory
EXTRN	?gObjGetStatPointState@@YAXHAAF000@Z:PROC	; gObjGetStatPointState
EXTRN	?gObjUsePlusStatFruit@@YAXHH@Z:PROC		; gObjUsePlusStatFruit
EXTRN	?gObjUseMinusStatFruit@@YAXHH@Z:PROC		; gObjUseMinusStatFruit
EXTRN	?gObjDuelCheck@@YAHPAUOBJECTSTRUCT@@@Z:PROC	; gObjDuelCheck
EXTRN	?gObjCheckMaxZen@@YAHHH@Z:PROC			; gObjCheckMaxZen
EXTRN	?gObjGetRelationShip@@YAHPAUOBJECTSTRUCT@@0@Z:PROC ; gObjGetRelationShip
EXTRN	?gObjNotifyUseWeaponV1@@YAXPAUOBJECTSTRUCT@@0HH@Z:PROC ; gObjNotifyUseWeaponV1
EXTRN	?gObjNotifyUseWeaponDamage@@YAXPAUOBJECTSTRUCT@@HH@Z:PROC ; gObjNotifyUseWeaponDamage
EXTRN	?gObjUseBlessAndSoulPotion@@YAXHH@Z:PROC	; gObjUseBlessAndSoulPotion
EXTRN	?MsgOutput@@YAXHPADZZ:PROC			; MsgOutput
EXTRN	?gObjCheckOverlapItemUsingDur@@YAHHHHH@Z:PROC	; gObjCheckOverlapItemUsingDur
EXTRN	?gObjOverlapItemUsingDur@@YAHPAVCItem@@HHHHHH@Z:PROC ; gObjOverlapItemUsingDur
EXTRN	?gObjCheckSerial0ItemList@@YAHPAVCItem@@@Z:PROC	; gObjCheckSerial0ItemList
EXTRN	?gCheckSkillDistance@@YAHHHH@Z:PROC		; gCheckSkillDistance
EXTRN	?ExMinusStatFruit@@YAXPAUOBJECTSTRUCT@@H@Z:PROC	; ExMinusStatFruit
EXTRN	?UseCashItems@@YAXPAUOBJECTSTRUCT@@H@Z:PROC	; UseCashItems
EXTRN	?UsePKRemoveItem@@YAXPAUOBJECTSTRUCT@@H@Z:PROC	; UsePKRemoveItem
EXTRN	?UseExCashPotions@@YAXPAUOBJECTSTRUCT@@H@Z:PROC	; UseExCashPotions
EXTRN	?UseMediumElitePotion@@YAXPAUOBJECTSTRUCT@@HN@Z:PROC ; UseMediumElitePotion
EXTRN	?CheckAuthority@@YAEHPAUOBJECTSTRUCT@@@Z:PROC	; CheckAuthority
EXTRN	?gObjCheckMapBind@@YAHH@Z:PROC			; gObjCheckMapBind
EXTRN	?IsTransformCharcterSkin@@YA_NH@Z:PROC		; IsTransformCharcterSkin
EXTRN	?IsTransformEquipment@@YA_NH@Z:PROC		; IsTransformEquipment
EXTRN	?ItemGive@MapClass@@QAEHHH_N@Z:PROC		; MapClass::ItemGive
EXTRN	?ItemDrop@MapClass@@QAEHHHMHHEEEEEKHHHEPAEE@Z:PROC ; MapClass::ItemDrop
EXTRN	?MoneyItemDrop@MapClass@@QAEHHHH@Z:PROC		; MapClass::MoneyItemDrop
EXTRN	?SetStandAttr@MapClass@@QAEXHH@Z:PROC		; MapClass::SetStandAttr
EXTRN	?ClearStandAttr@MapClass@@QAEXHH@Z:PROC		; MapClass::ClearStandAttr
EXTRN	?GetAttr@MapClass@@QAEEHH@Z:PROC		; MapClass::GetAttr
EXTRN	?DataSendEventChip@@YAXPADH@Z:PROC		; DataSendEventChip
EXTRN	?EGReqBloodCastleEnterCount@@YAXH@Z:PROC	; EGReqBloodCastleEnterCount
EXTRN	?DataSend@wsJoinServerCli@@QAEHPADH@Z:PROC	; wsJoinServerCli::DataSend
EXTRN	?DataSocketSend@CwsGameServer@@QAEHIPADH@Z:PROC	; CwsGameServer::DataSocketSend
EXTRN	?InCheck@NSerialCheck@@QAEHE@Z:PROC		; NSerialCheck::InCheck
EXTRN	?GetSerial@NSerialCheck@@QAEHXZ:PROC		; NSerialCheck::GetSerial
EXTRN	?AddCash@CWhisperCash@@QAEHPAD@Z:PROC		; CWhisperCash::AddCash
EXTRN	?IsParty@PartyClass@@QAEHH@Z:PROC		; PartyClass::IsParty
EXTRN	?Create@PartyClass@@QAEHHHH@Z:PROC		; PartyClass::Create
EXTRN	?Destroy@PartyClass@@QAEHH@Z:PROC		; PartyClass::Destroy
EXTRN	?Add@PartyClass@@QAEHHHHH@Z:PROC		; PartyClass::Add
EXTRN	?Delete@PartyClass@@QAEXHH@Z:PROC		; PartyClass::Delete
EXTRN	?GetCount@PartyClass@@QAEHH@Z:PROC		; PartyClass::GetCount
EXTRN	?GetIndexUser@PartyClass@@QAEHHHAAH0@Z:PROC	; PartyClass::GetIndexUser
EXTRN	?GetPartyCount@PartyClass@@QAEHH@Z:PROC		; PartyClass::GetPartyCount
EXTRN	?GetIndex@PartyClass@@QAEHHHH@Z:PROC		; PartyClass::GetIndex
EXTRN	?Paint@PartyClass@@QAEXH@Z:PROC			; PartyClass::Paint
EXTRN	?UpdatePKPartyPanalty@PartyClass@@QAEXH@Z:PROC	; PartyClass::UpdatePKPartyPanalty
EXTRN	?GetReallyConnectPartyMemberCount@PartyClass@@QAEHH@Z:PROC ; PartyClass::GetReallyConnectPartyMemberCount
EXTRN	?SwitchLeader@PartyClass@@QAEXH@Z:PROC		; PartyClass::SwitchLeader
EXTRN	?ChangeLeader@PartyClass@@QAEXH@Z:PROC		; PartyClass::ChangeLeader
EXTRN	?GetPartyPkLevel@PartyClass@@QAEDH@Z:PROC	; PartyClass::GetPartyPkLevel
EXTRN	?CGReqPartyMatchWindow@@YAXPAUPMSG_PARTYMATCH_INFO_REQ@@H@Z:PROC ; CGReqPartyMatchWindow
EXTRN	?CGReqPartyMatchReg@@YAXPAUPMSG_PARTYMATCH_REG_REQ@@H@Z:PROC ; CGReqPartyMatchReg
EXTRN	?CGReqPartyMatchJoin@@YAXPAUPMSG_PARTYMATCH_JOIN_REQ@@H@Z:PROC ; CGReqPartyMatchJoin
EXTRN	?CGReqPartyMatchWaitingList@@YAXH@Z:PROC	; CGReqPartyMatchWaitingList
EXTRN	?CGReqPartyMatchCancel@@YAXPAUPMSG_PARTYMATCH_CANCEL_REQ@@H@Z:PROC ; CGReqPartyMatchCancel
EXTRN	?CGReqPartyMatchAcceptList@@YAXH@Z:PROC		; CGReqPartyMatchAcceptList
EXTRN	?CGReqPartyMatchRequestAnswer@@YAXPAUPARTYMATCH_CGREQ_REQUESTANSWER@@H@Z:PROC ; CGReqPartyMatchRequestAnswer
EXTRN	?GetWarehouseUsedHowMuch@@YAHHHH@Z:PROC		; GetWarehouseUsedHowMuch
EXTRN	?BuxConvert@@YAXPADH@Z:PROC			; BuxConvert
EXTRN	?PHeadSetB@@YAXPAEEH@Z:PROC			; PHeadSetB
EXTRN	?PHeadSubSetB@@YAXPAEEEH@Z:PROC			; PHeadSubSetB
EXTRN	?PHeadSetW@@YAXPAEEH@Z:PROC			; PHeadSetW
EXTRN	?PHeadSetBE@@YAXPAEEH@Z:PROC			; PHeadSetBE
EXTRN	?PHeadSubSetBE@@YAXPAEEEH@Z:PROC		; PHeadSubSetBE
EXTRN	?MakeNoticeMsg@TNotice@@SAXPAXEPAD@Z:PROC	; TNotice::MakeNoticeMsg
EXTRN	?MakeNoticeMsgEx@TNotice@@SAXPAXEPADZZ:PROC	; TNotice::MakeNoticeMsgEx
EXTRN	?GetQuestInfo@CQuestInfo@@QAEPAUQUEST_INFO@@H@Z:PROC ; CQuestInfo::GetQuestInfo
EXTRN	?GetQuestState@CQuestInfo@@QAEHPAUOBJECTSTRUCT@@H@Z:PROC ; CQuestInfo::GetQuestState
EXTRN	?GetQuestStateBYTE@CQuestInfo@@QAEEPAUOBJECTSTRUCT@@H@Z:PROC ; CQuestInfo::GetQuestStateBYTE
EXTRN	?SetQuestState@CQuestInfo@@QAEEPAUOBJECTSTRUCT@@HH@Z:PROC ; CQuestInfo::SetQuestState
EXTRN	?NotifyResultEnterBarracks@CQuestInfo@@QAEXH@Z:PROC ; CQuestInfo::NotifyResultEnterBarracks
EXTRN	?NotifyResultEnterRefuge@CQuestInfo@@QAEXH@Z:PROC ; CQuestInfo::NotifyResultEnterRefuge
EXTRN	?CheckItemCount@CQuestInfo@@QAEHHFF@Z:PROC	; CQuestInfo::CheckItemCount
EXTRN	?CGRequestQuestState@CQuestInfoEx@@QAEXH@Z:PROC	; CQuestInfoEx::CGRequestQuestState
EXTRN	?CGRequestInitQuest@CQuestInfoEx@@QAEXPAEH@Z:PROC ; CQuestInfoEx::CGRequestInitQuest
EXTRN	?CGQuestComplete@CQuestInfoEx@@QAEXPAEH@Z:PROC	; CQuestInfoEx::CGQuestComplete
EXTRN	?CGQuitQuest@CQuestInfoEx@@QAEXPAEH@Z:PROC	; CQuestInfoEx::CGQuitQuest
EXTRN	?CGRequestQuestStep@CQuestInfoEx@@QAEXPAEH@Z:PROC ; CQuestInfoEx::CGRequestQuestStep
EXTRN	?CGClientAction@CQuestInfoEx@@QAEXPAEH@Z:PROC	; CQuestInfoEx::CGClientAction
EXTRN	?CGReqQuestInfo@CQuestInfoEx@@QAEXPAEH@Z:PROC	; CQuestInfoEx::CGReqQuestInfo
EXTRN	?GCSendAvaibleQuest@CQuestInfoEx@@QAEXH@Z:PROC	; CQuestInfoEx::GCSendAvaibleQuest
EXTRN	?GCSendBuff@CQuestInfoEx@@QAEXH@Z:PROC		; CQuestInfoEx::GCSendBuff
EXTRN	?IsMember@CConMember@@QAEHPAD@Z:PROC		; CConMember::IsMember
EXTRN	?gCheckBlankBattleGround@@YAHXZ:PROC		; gCheckBlankBattleGround
EXTRN	?gBattleGroundEnable@@YAXHH@Z:PROC		; gBattleGroundEnable
EXTRN	?gSetBattleTeamMaster@@YAXHHPADPAU_GUILD_INFO_STRUCT@@@Z:PROC ; gSetBattleTeamMaster
EXTRN	?BattleSoccerGoalEnd@@YAXH@Z:PROC		; BattleSoccerGoalEnd
EXTRN	?ChaosBoxInit@CChaosBox@@QAEHPAUOBJECTSTRUCT@@@Z:PROC ; CChaosBox::ChaosBoxInit
EXTRN	?PlusItemLevelChaosMix@CChaosBox@@QAEHPAUOBJECTSTRUCT@@H@Z:PROC ; CChaosBox::PlusItemLevelChaosMix
EXTRN	?PegasiaChaosMix@CChaosBox@@QAEHPAUOBJECTSTRUCT@@@Z:PROC ; CChaosBox::PegasiaChaosMix
EXTRN	?CircleChaosMix@CChaosBox@@QAEHPAUOBJECTSTRUCT@@@Z:PROC ; CChaosBox::CircleChaosMix
EXTRN	?WingChaosMix@CChaosBox@@QAEHPAUOBJECTSTRUCT@@@Z:PROC ; CChaosBox::WingChaosMix
EXTRN	?DefaultChaosMix@CChaosBox@@QAEXPAUOBJECTSTRUCT@@@Z:PROC ; CChaosBox::DefaultChaosMix
EXTRN	?DevilSquareItemChaosMix@CChaosBox@@QAEXPAUOBJECTSTRUCT@@@Z:PROC ; CChaosBox::DevilSquareItemChaosMix
EXTRN	?BloodCastleItemChaosMix@CChaosBox@@QAEXPAUOBJECTSTRUCT@@@Z:PROC ; CChaosBox::BloodCastleItemChaosMix
EXTRN	?DarkHorseChaosMix@CChaosBox@@QAEXPAUOBJECTSTRUCT@@@Z:PROC ; CChaosBox::DarkHorseChaosMix
EXTRN	?DarkSpiritChaosMix@CChaosBox@@QAEXPAUOBJECTSTRUCT@@@Z:PROC ; CChaosBox::DarkSpiritChaosMix
EXTRN	?BlessPotionChaosMix@CChaosBox@@QAEXPAUOBJECTSTRUCT@@@Z:PROC ; CChaosBox::BlessPotionChaosMix
EXTRN	?SoulPotionChaosMix@CChaosBox@@QAEXPAUOBJECTSTRUCT@@@Z:PROC ; CChaosBox::SoulPotionChaosMix
EXTRN	?LifeStoneChaosMix@CChaosBox@@QAEXPAUOBJECTSTRUCT@@@Z:PROC ; CChaosBox::LifeStoneChaosMix
EXTRN	?HiddenTreasureBoxItemMix@CChaosBox@@QAEXPAUOBJECTSTRUCT@@@Z:PROC ; CChaosBox::HiddenTreasureBoxItemMix
EXTRN	?Fenrir_01Level_Mix@CChaosBox@@QAEXPAUOBJECTSTRUCT@@@Z:PROC ; CChaosBox::Fenrir_01Level_Mix
EXTRN	?Fenrir_02Level_Mix@CChaosBox@@QAEXPAUOBJECTSTRUCT@@@Z:PROC ; CChaosBox::Fenrir_02Level_Mix
EXTRN	?Fenrir_03Level_Mix@CChaosBox@@QAEXPAUOBJECTSTRUCT@@@Z:PROC ; CChaosBox::Fenrir_03Level_Mix
EXTRN	?Fenrir_04Upgrade_Mix@CChaosBox@@QAEXPAUOBJECTSTRUCT@@@Z:PROC ; CChaosBox::Fenrir_04Upgrade_Mix
EXTRN	?ShieldPotionLv1_Mix@CChaosBox@@QAEXPAUOBJECTSTRUCT@@@Z:PROC ; CChaosBox::ShieldPotionLv1_Mix
EXTRN	?ShieldPotionLv2_Mix@CChaosBox@@QAEXPAUOBJECTSTRUCT@@@Z:PROC ; CChaosBox::ShieldPotionLv2_Mix
EXTRN	?ShieldPotionLv3_Mix@CChaosBox@@QAEXPAUOBJECTSTRUCT@@@Z:PROC ; CChaosBox::ShieldPotionLv3_Mix
EXTRN	?CondorFeather_Mix@CChaosBox@@QAEXPAUOBJECTSTRUCT@@@Z:PROC ; CChaosBox::CondorFeather_Mix
EXTRN	?NewWingChaos_Mix@CChaosBox@@QAEXPAUOBJECTSTRUCT@@@Z:PROC ; CChaosBox::NewWingChaos_Mix
EXTRN	?LotteryItemMix@CChaosBox@@QAEXPAUOBJECTSTRUCT@@@Z:PROC ; CChaosBox::LotteryItemMix
EXTRN	?CherryBlossomMix@CChaosBox@@QAEXPAUOBJECTSTRUCT@@@Z:PROC ; CChaosBox::CherryBlossomMix
EXTRN	?IllusionTemple_Mix@CChaosBox@@QAEXPAUOBJECTSTRUCT@@@Z:PROC ; CChaosBox::IllusionTemple_Mix
EXTRN	?SeedExtractMix@CChaosBox@@QAEXPAUOBJECTSTRUCT@@@Z:PROC ; CChaosBox::SeedExtractMix
EXTRN	?SeedSphereCompositeMix@CChaosBox@@QAEXPAUOBJECTSTRUCT@@@Z:PROC ; CChaosBox::SeedSphereCompositeMix
EXTRN	?SetSeedSphereMix@CChaosBox@@QAEXPAUOBJECTSTRUCT@@E@Z:PROC ; CChaosBox::SetSeedSphereMix
EXTRN	?RemoveSeedSphereMix@CChaosBox@@QAEXPAUOBJECTSTRUCT@@E@Z:PROC ; CChaosBox::RemoveSeedSphereMix
EXTRN	?SecromiconMix@CChaosBox@@QAEXPAUOBJECTSTRUCT@@@Z:PROC ; CChaosBox::SecromiconMix
EXTRN	?LuckySystemItemCreate@CChaosBox@@QAEXPAUOBJECTSTRUCT@@@Z:PROC ; CChaosBox::LuckySystemItemCreate
EXTRN	?LuckySystemJewelCreate@CChaosBox@@QAEXPAUOBJECTSTRUCT@@@Z:PROC ; CChaosBox::LuckySystemJewelCreate
EXTRN	?GoldenNSilverBoxMix@CChaosBox@@QAEXPAUOBJECTSTRUCT@@@Z:PROC ; CChaosBox::GoldenNSilverBoxMix
EXTRN	?Wing25Mix@CChaosBox@@QAEXPAUOBJECTSTRUCT@@@Z:PROC ; CChaosBox::Wing25Mix
EXTRN	?SocketItemMix@CChaosBox@@QAEXPAUOBJECTSTRUCT@@H@Z:PROC ; CChaosBox::SocketItemMix
EXTRN	?CastleSpecialItemMix@CChaosBox@@QAEXPAUOBJECTSTRUCT@@@Z:PROC ; CChaosBox::CastleSpecialItemMix
EXTRN	?GetTaxRateChaos@CCastleSiegeSync@@QAEHH@Z:PROC	; CCastleSiegeSync::GetTaxRateChaos
EXTRN	?GetTaxRateStore@CCastleSiegeSync@@QAEHH@Z:PROC	; CCastleSiegeSync::GetTaxRateStore
EXTRN	?GetTaxHuntZone@CCastleSiegeSync@@QAEHHH@Z:PROC	; CCastleSiegeSync::GetTaxHuntZone
EXTRN	?AddTributeMoney@CCastleSiegeSync@@QAEXH@Z:PROC	; CCastleSiegeSync::AddTributeMoney
EXTRN	?CheckOverlapCsMarks@CCastleSiegeSync@@QAEHH@Z:PROC ; CCastleSiegeSync::CheckOverlapCsMarks
EXTRN	?GetGuildRelationShipCount@TUnion@@QAEHHH@Z:PROC ; TUnion::GetGuildRelationShipCount
EXTRN	?GetGuildUnionMemberList@TUnion@@QAEHHAAHPAH@Z:PROC ; TUnion::GetGuildUnionMemberList
EXTRN	?SearchUnion@TUnion@@QAEPAVTUnionInfo@@H@Z:PROC	; TUnion::SearchUnion
EXTRN	?MixJewel@CJewelMixSystem@@SAHHHH@Z:PROC	; CJewelMixSystem::MixJewel
EXTRN	?UnMixJewel@CJewelMixSystem@@SAHHHHH@Z:PROC	; CJewelMixSystem::UnMixJewel
EXTRN	?SetWeaponCalDamageInfo@CWeapon@@QAEHGEEH@Z:PROC ; CWeapon::SetWeaponCalDamageInfo
EXTRN	?GetWeaponCalDamageInfo@CWeapon@@QAEHGAAE0@Z:PROC ; CWeapon::GetWeaponCalDamageInfo
EXTRN	?GetTargetPointXY@CWeapon@@QAEHHHAAE0H@Z:PROC	; CWeapon::GetTargetPointXY
EXTRN	?Send@DBSockMng@@QAEHPADH@Z:PROC		; DBSockMng::Send
EXTRN	?CreateKalimaGate@CKalimaGate@@QAEHHEEE@Z:PROC	; CKalimaGate::CreateKalimaGate
EXTRN	?CheckOverlapKundunMark@CKalimaGate@@QAEHHE@Z:PROC ; CKalimaGate::CheckOverlapKundunMark
EXTRN	?GetKalimaGateLevel2@CKalimaGate@@QAEHH@Z:PROC	; CKalimaGate::GetKalimaGateLevel2
EXTRN	?SpeedHackCheck@CObjUseSkill@@QAEHH@Z:PROC	; CObjUseSkill::SpeedHackCheck
EXTRN	?EnableSkill@CObjUseSkill@@QAEHH@Z:PROC		; CObjUseSkill::EnableSkill
EXTRN	?CheckWeapon@CObjUseSkill@@QAEHPAUOBJECTSTRUCT@@H@Z:PROC ; CObjUseSkill::CheckWeapon
EXTRN	?UseSkill@CObjUseSkill@@QAEXHHPAVCMagicInf@@@Z:PROC ; CObjUseSkill::UseSkill
EXTRN	?UseSkill@CObjUseSkill@@QAEXHPAVCMagicInf@@EEEEH@Z:PROC ; CObjUseSkill::UseSkill
EXTRN	?MaGumSkillDefenseDown@CObjUseSkill@@QAEXHHPAVCMagicInf@@@Z:PROC ; CObjUseSkill::MaGumSkillDefenseDown
EXTRN	?SkillChangeUse@CObjUseSkill@@QAEHH@Z:PROC	; CObjUseSkill::SkillChangeUse
EXTRN	?SkillFireScream@CObjUseSkill@@QAEHHHPAVCMagicInf@@@Z:PROC ; CObjUseSkill::SkillFireScream
EXTRN	?SkillMonkDarkSideGetTargetIndex@CObjUseSkill@@QAEHHHPAVCMagicInf@@PAG@Z:PROC ; CObjUseSkill::SkillMonkDarkSideGetTargetIndex
EXTRN	?PickupRelic@CIllusionTempleEvent@@QAEXEHE@Z:PROC ; CIllusionTempleEvent::PickupRelic
EXTRN	?PickupRelicSend@CIllusionTempleEvent@@QAEXPAUOBJECTSTRUCT@@@Z:PROC ; CIllusionTempleEvent::PickupRelicSend
EXTRN	?Enter@CIllusionTempleEvent@@QAEHHEE@Z:PROC	; CIllusionTempleEvent::Enter
EXTRN	?DropRelic@CIllusionTempleEvent@@QAEXEH@Z:PROC	; CIllusionTempleEvent::DropRelic
EXTRN	?GetState@CIllusionTempleEvent@@QAEEE@Z:PROC	; CIllusionTempleEvent::GetState
EXTRN	?UseSkill@CIllusionTempleEvent@@QAEXHGHE@Z:PROC	; CIllusionTempleEvent::UseSkill
EXTRN	?TeleportLock@CIllusionTempleEvent@@QAEHH@Z:PROC ; CIllusionTempleEvent::TeleportLock
EXTRN	?DropReward@CIllusionTempleEvent@@QAEXH@Z:PROC	; CIllusionTempleEvent::DropReward
EXTRN	?GetLeftTime@CIllusionTempleEvent@@QAEEXZ:PROC	; CIllusionTempleEvent::GetLeftTime
EXTRN	?Is2ndSkillActive@CIllusionTempleEvent@@QAEHHE@Z:PROC ; CIllusionTempleEvent::Is2ndSkillActive
EXTRN	?NpcTalk@@YAHPAUOBJECTSTRUCT@@0@Z:PROC		; NpcTalk
EXTRN	?Get@ShopManager@@QAEPAVCShop@@H@Z:PROC		; ShopManager::Get
EXTRN	?GDReqPeriodItemInsert@CCashItemPeriodSystem@@QAEXPAUOBJECTSTRUCT@@HH@Z:PROC ; CCashItemPeriodSystem::GDReqPeriodItemInsert
EXTRN	?GDReqPeriodItemDelete@CCashItemPeriodSystem@@QAEXPAUOBJECTSTRUCT@@PAD@Z:PROC ; CCashItemPeriodSystem::GDReqPeriodItemDelete
EXTRN	?gObjMonsterRegen@@YAHPAUOBJECTSTRUCT@@@Z:PROC	; gObjMonsterRegen
EXTRN	?IsInGate@CGate@@QAEHHH@Z:PROC			; CGate::IsInGate
EXTRN	?AddCheckSum@CPacketCheckSum@@QAEXHHK@Z:PROC	; CPacketCheckSum::AddCheckSum
EXTRN	?ChangeCommand@CDarkSpirit@@QAEXHH@Z:PROC	; CDarkSpirit::ChangeCommand
EXTRN	?GetAltarState@CCrywolfAltar@@QAEHH@Z:PROC	; CCrywolfAltar::GetAltarState
EXTRN	?SetAltarUserIndex@CCrywolfAltar@@QAEHHHH@Z:PROC ; CCrywolfAltar::SetAltarUserIndex
EXTRN	?GetOccupationState@CCrywolfSync@@QAEHXZ:PROC	; CCrywolfSync::GetOccupationState
EXTRN	?GetCrywolfState@CCrywolfSync@@QAEHXZ:PROC	; CCrywolfSync::GetCrywolfState
EXTRN	?GetPlusChaosRate@CCrywolfSync@@QAEHXZ:PROC	; CCrywolfSync::GetPlusChaosRate
EXTRN	?IncObjCount@CDevilSquareGround@@QAEXXZ:PROC	; CDevilSquareGround::IncObjCount
EXTRN	?GetObjCount@CDevilSquareGround@@QAEJXZ:PROC	; CDevilSquareGround::GetObjCount
EXTRN	?GetRemainTime@CDevilSquare@@QAEHXZ:PROC	; CDevilSquare::GetRemainTime
EXTRN	?GetDevilSquareIndex@CDevilSquare@@QAEHH@Z:PROC	; CDevilSquare::GetDevilSquareIndex
EXTRN	?GetUserLevelToEnter@CDevilSquare@@QAEHHAAH@Z:PROC ; CDevilSquare::GetUserLevelToEnter
EXTRN	?NotifyEntranceInfo@CKanturuEntranceNPC@@QAEXH@Z:PROC ; CKanturuEntranceNPC::NotifyEntranceInfo
EXTRN	?NotifyResultEnterKanturuBossMap@CKanturuEntranceNPC@@QAEXH@Z:PROC ; CKanturuEntranceNPC::NotifyResultEnterKanturuBossMap
EXTRN	?CGCashShopOpen@CCashShop@@QAEHPAUOBJECTSTRUCT@@PAUPMSG_REQ_CASHSHOPOPEN@@@Z:PROC ; CCashShop::CGCashShopOpen
EXTRN	?CGCashPoint@CCashShop@@QAEHPAUOBJECTSTRUCT@@@Z:PROC ; CCashShop::CGCashPoint
EXTRN	?CGReqInfo@CCashShop@@QAEHPAEH@Z:PROC		; CCashShop::CGReqInfo
EXTRN	?GCSendItemInfo@CCashShop@@QAEXHHHK@Z:PROC	; CCashShop::GCSendItemInfo
EXTRN	?CGCashItemBuy@CCashShop@@QAEXPAUOBJECTSTRUCT@@PAUPMSG_REQ_CASHITEM_BUY@@@Z:PROC ; CCashShop::CGCashItemBuy
EXTRN	?CGCashGiftSend@CCashShop@@QAEXPAUOBJECTSTRUCT@@PAUPMSG_REQ_CASHITEM_GIFT@@@Z:PROC ; CCashShop::CGCashGiftSend
EXTRN	?CGReqUseItem@CCashShop@@QAEXPAUOBJECTSTRUCT@@PAUPSMG_REQ_CASHITEM_USE@@@Z:PROC ; CCashShop::CGReqUseItem
EXTRN	?IsCashItem@@YAHH@Z:PROC			; IsCashItem
EXTRN	?IsCashSpecialItem@@YAHH@Z:PROC			; IsCashSpecialItem
EXTRN	??_E_CS_NPC_DATA@@UAEPAXI@Z:PROC		; _CS_NPC_DATA::`vector deleting destructor'
EXTRN	?GetCastleState@CCastleSiege@@QAEHXZ:PROC	; CCastleSiege::GetCastleState
EXTRN	?GetCastleLeftSiegeDate@CCastleSiege@@QAE?AU_SYSTEMTIME@@XZ:PROC ; CCastleSiege::GetCastleLeftSiegeDate
EXTRN	?GetCastleStateTerm@CCastleSiege@@QAEHPAU_SYSTEMTIME@@0@Z:PROC ; CCastleSiege::GetCastleStateTerm
EXTRN	?GetCurRemainSec@CCastleSiege@@QAEHXZ:PROC	; CCastleSiege::GetCurRemainSec
EXTRN	?CheckAddDbNPC@CCastleSiege@@QAEHHHHPAE@Z:PROC	; CCastleSiege::CheckAddDbNPC
EXTRN	?PayForUpgradeDbNPC@CCastleSiege@@QAEHHHHHHH@Z:PROC ; CCastleSiege::PayForUpgradeDbNPC
EXTRN	?SendNpcStateList@CCastleSiege@@QAEXHH@Z:PROC	; CCastleSiege::SendNpcStateList
EXTRN	?GetNpcData@CCastleSiege@@QAEHHHAAU_CS_NPC_DATA@@@Z:PROC ; CCastleSiege::GetNpcData
EXTRN	?SendCsGateStateViewPort@CCastleSiege@@QAEXHE@Z:PROC ; CCastleSiege::SendCsGateStateViewPort
EXTRN	?CheckCsGateAlive@CCastleSiege@@QAEHH@Z:PROC	; CCastleSiege::CheckCsGateAlive
EXTRN	?CheckCastleHasMoney@CCastleSiege@@QAEH_J@Z:PROC ; CCastleSiege::CheckCastleHasMoney
EXTRN	?CheckGuildOwnCastle@CCastleSiege@@QAEHPAD@Z:PROC ; CCastleSiege::CheckGuildOwnCastle
EXTRN	?GetHuntZoneEnter@CCastleSiege@@QAEHXZ:PROC	; CCastleSiege::GetHuntZoneEnter
EXTRN	?SetHuntZoneEnter@CCastleSiege@@QAEXH@Z:PROC	; CCastleSiege::SetHuntZoneEnter
EXTRN	?NotifySelfCsJoinSide@CCastleSiege@@QAEXH@Z:PROC ; CCastleSiege::NotifySelfCsJoinSide
EXTRN	?OperateGate@CCastleSiege@@QAEHHHH@Z:PROC	; CCastleSiege::OperateGate
EXTRN	?CheckCastleOwnerMember@CCastleSiege@@QAEHH@Z:PROC ; CCastleSiege::CheckCastleOwnerMember
EXTRN	?CheckCastleOwnerUnionMember@CCastleSiege@@QAEHH@Z:PROC ; CCastleSiege::CheckCastleOwnerUnionMember
EXTRN	?CheckUnionGuildMaster@CCastleSiege@@QAEHH@Z:PROC ; CCastleSiege::CheckUnionGuildMaster
EXTRN	?GetCsAttkGuildList@CCastleSiege@@QAEHPAUPMSG_CSATTKGUILDLIST@@PAH@Z:PROC ; CCastleSiege::GetCsAttkGuildList
EXTRN	?CheckTeleportMagicAxisY@CCastleSiege@@QAEHHHH@Z:PROC ; CCastleSiege::CheckTeleportMagicAxisY
EXTRN	?NotifyCsSelfLeftTime@CCastleSiege@@QAEXH@Z:PROC ; CCastleSiege::NotifyCsSelfLeftTime
EXTRN	?AddMiniMapDataReqUser@CCastleSiege@@QAEXH@Z:PROC ; CCastleSiege::AddMiniMapDataReqUser
EXTRN	?DelMiniMapDataReqUser@CCastleSiege@@QAEXH@Z:PROC ; CCastleSiege::DelMiniMapDataReqUser
EXTRN	?GetCrownAccessTickCount@CCastleSiege@@QAEHXZ:PROC ; CCastleSiege::GetCrownAccessTickCount
EXTRN	?CreateLifeStone@CLifeStone@@QAEHH@Z:PROC	; CLifeStone::CreateLifeStone
EXTRN	?gObjAddBuffEffect@@YA_NPAUOBJECTSTRUCT@@H@Z:PROC ; gObjAddBuffEffect
EXTRN	?gObjRemoveBuffEffect@@YA_NPAUOBJECTSTRUCT@@H@Z:PROC ; gObjRemoveBuffEffect
EXTRN	?gObjCheckUsedBuffEffect@@YA_NPAUOBJECTSTRUCT@@H@Z:PROC ; gObjCheckUsedBuffEffect
EXTRN	?GDGuildCreateSend@@YAXHPAD0PAEH@Z:PROC		; GDGuildCreateSend
EXTRN	?GDGuildDestroySend@@YAXHPAD0@Z:PROC		; GDGuildDestroySend
EXTRN	?GDGuildMemberAdd@@YAXHPAD0@Z:PROC		; GDGuildMemberAdd
EXTRN	?GDGuildMemberDel@@YAXHPAD0@Z:PROC		; GDGuildMemberDel
EXTRN	?GDGuildNoticeSave@@YAXPAD0@Z:PROC		; GDGuildNoticeSave
EXTRN	?GDGuildServerGroupChattingSend@@YAXHPAUPMSG_CHATDATA@@@Z:PROC ; GDGuildServerGroupChattingSend
EXTRN	?GDUnionServerGroupChattingSend@@YAXHPAUPMSG_CHATDATA@@@Z:PROC ; GDUnionServerGroupChattingSend
EXTRN	?GDGuildReqAssignStatus@@YAXHHPADH@Z:PROC	; GDGuildReqAssignStatus
EXTRN	?GDGuildReqAssignType@@YAXHH@Z:PROC		; GDGuildReqAssignType
EXTRN	?GDRelationShipReqJoin@@YAXHHH@Z:PROC		; GDRelationShipReqJoin
EXTRN	?GDUnionBreakOff@@YAXHH@Z:PROC			; GDUnionBreakOff
EXTRN	?GDRelationShipReqBreakOff@@YAXHHH@Z:PROC	; GDRelationShipReqBreakOff
EXTRN	?GDUnionListSend@@YAXHH@Z:PROC			; GDUnionListSend
EXTRN	?GDRelationShipReqKickOutUnionMember@@YAXHPAD@Z:PROC ; GDRelationShipReqKickOutUnionMember
EXTRN	?FriendListRequest@@YAXH@Z:PROC			; FriendListRequest
EXTRN	?FriendStateClientRecv@@YAXPAUPMSG_FRIEND_STATE_C@@H@Z:PROC ; FriendStateClientRecv
EXTRN	?FriendAddRequest@@YAXPAUPMSG_FRIEND_ADD_REQ@@H@Z:PROC ; FriendAddRequest
EXTRN	?WaitFriendAddRequest@@YAXPAUPMSG_FRIEND_ADD_SIN_RESULT@@H@Z:PROC ; WaitFriendAddRequest
EXTRN	?FriendDelRequest@@YAXPAUPMSG_FRIEND_DEL_REQ@@H@Z:PROC ; FriendDelRequest
EXTRN	?FriendChatRoomCreateReq@@YAXPAUPMSG_FRIEND_ROOMCREATE_REQ@@H@Z:PROC ; FriendChatRoomCreateReq
EXTRN	?FriendMemoSend@@YAXPAUPMSG_FRIEND_MEMO@@H@Z:PROC ; FriendMemoSend
EXTRN	?FriendMemoListReq@@YAXH@Z:PROC			; FriendMemoListReq
EXTRN	?FriendMemoReadReq@@YAXPAUPMSG_FRIEND_READ_MEMO_REQ@@H@Z:PROC ; FriendMemoReadReq
EXTRN	?FriendMemoDelReq@@YAXPAUPMSG_FRIEND_MEMO_DEL_REQ@@H@Z:PROC ; FriendMemoDelReq
EXTRN	?FriendRoomInvitationReq@@YAXPAUPMSG_ROOM_INVITATION@@H@Z:PROC ; FriendRoomInvitationReq
EXTRN	?GJReqMapSvrAuth@@YAXHPAD0HHHH@Z:PROC		; GJReqMapSvrAuth
EXTRN	?Output@CLogToFile@@QAAXPADZZ:PROC		; CLogToFile::Output
EXTRN	??0CLogToFile@@QAE@QAD0H@Z:PROC			; CLogToFile::CLogToFile
EXTRN	??1CLogToFile@@QAE@XZ:PROC			; CLogToFile::~CLogToFile
EXTRN	?DataServerGetCharListRequest@@YAXF@Z:PROC	; DataServerGetCharListRequest
EXTRN	?JGCharacterCreateFailSend@@YAXHPAD@Z:PROC	; JGCharacterCreateFailSend
EXTRN	?GCItemListSend@@YAXH@Z:PROC			; GCItemListSend
EXTRN	?GJSetCharacterInfo@@YAXPAUOBJECTSTRUCT@@HHH@Z:PROC ; GJSetCharacterInfo
EXTRN	?GDGetWarehouseList@@YAXHPAD@Z:PROC		; GDGetWarehouseList
EXTRN	?GDSetWarehouseList@@YAXH@Z:PROC		; GDSetWarehouseList
EXTRN	?GDUserItemSave@@YAXPAUOBJECTSTRUCT@@@Z:PROC	; GDUserItemSave
EXTRN	?ItemSerialCreateSend@@YAXHEEEHEEEEEHEEEPAE@Z:PROC ; ItemSerialCreateSend
EXTRN	?DGOptionDataSend@@YAXHPADPAEEEEEEEKD@Z:PROC	; DGOptionDataSend
EXTRN	?GS_GDReqOwnerGuildMaster@@YAXHH@Z:PROC		; GS_GDReqOwnerGuildMaster
EXTRN	?GS_GDReqCastleNpcRepair@@YAXHHHHH@Z:PROC	; GS_GDReqCastleNpcRepair
EXTRN	?GS_GDReqCastleNpcUpgrade@@YAXHHHHHHH@Z:PROC	; GS_GDReqCastleNpcUpgrade
EXTRN	?GS_GDReqTaxInfo@@YAXHH@Z:PROC			; GS_GDReqTaxInfo
EXTRN	?GS_GDReqTaxRateChange@@YAXHHHH@Z:PROC		; GS_GDReqTaxRateChange
EXTRN	?GS_GDReqCastleMoneyChange@@YAXHHH@Z:PROC	; GS_GDReqCastleMoneyChange
EXTRN	?GS_GDReqGuildMarkRegInfo@@YAXHH@Z:PROC		; GS_GDReqGuildMarkRegInfo
EXTRN	?GS_GDReqRegAttackGuild@@YAXHH@Z:PROC		; GS_GDReqRegAttackGuild
EXTRN	?GS_GDReqRegGuildMark@@YAXHHH@Z:PROC		; GS_GDReqRegGuildMark
EXTRN	?GS_GDReqGuildSetGiveUp@@YAXHHH@Z:PROC		; GS_GDReqGuildSetGiveUp
EXTRN	?GS_GDReqAllGuildMarkRegInfo@@YAXHH@Z:PROC	; GS_GDReqAllGuildMarkRegInfo
EXTRN	?GDExpandWarehouseSend@@YAXPAUOBJECTSTRUCT@@H@Z:PROC ; GDExpandWarehouseSend
EXTRN	?GDExpandInventorySend@@YAXPAUOBJECTSTRUCT@@H@Z:PROC ; GDExpandInventorySend
EXTRN	?DGMuBotSettingsSend@@YAXHPADPAE@Z:PROC		; DGMuBotSettingsSend
EXTRN	?requestDbUpdateCredits@@YAXPAUOBJECTSTRUCT@@FF@Z:PROC ; requestDbUpdateCredits
EXTRN	?CheckMasterLevelSkill@CMasterLevelSkillTreeSystem@@QAEHH@Z:PROC ; CMasterLevelSkillTreeSystem::CheckMasterLevelSkill
EXTRN	?IsExistMLSBasedSkill@CMasterLevelSkillTreeSystem@@QAEHPAUOBJECTSTRUCT@@H@Z:PROC ; CMasterLevelSkillTreeSystem::IsExistMLSBasedSkill
EXTRN	?GetBaseMasterLevelSkill@CMasterLevelSkillTreeSystem@@QAEHH@Z:PROC ; CMasterLevelSkillTreeSystem::GetBaseMasterLevelSkill
EXTRN	?CGReqGetMasterLevelSkill@CMasterLevelSkillTreeSystem@@QAEXPAUPMSG_REQ_MASTERLEVEL_SKILL@@H@Z:PROC ; CMasterLevelSkillTreeSystem::CGReqGetMasterLevelSkill
EXTRN	?MLS_MaGumSkillDefenseDown@CMasterLevelSkillTreeSystem@@QAEXHH@Z:PROC ; CMasterLevelSkillTreeSystem::MLS_MaGumSkillDefenseDown
EXTRN	?MLS_FireScream@CMasterLevelSkillTreeSystem@@QAEHHHPAVCMagicInf@@@Z:PROC ; CMasterLevelSkillTreeSystem::MLS_FireScream
EXTRN	?CheckUsableWeaponSkill@CMasterLevelSkillTreeSystem@@QAEHPAUOBJECTSTRUCT@@H@Z:PROC ; CMasterLevelSkillTreeSystem::CheckUsableWeaponSkill
EXTRN	?MLS_MaGumSkillDefenseDownMastery@CMasterLevelSkillTreeSystem@@QAEXHHPAVCMagicInf@@@Z:PROC ; CMasterLevelSkillTreeSystem::MLS_MaGumSkillDefenseDownMastery
EXTRN	?CheckMasterSkillPoint@CMasterLevelSkillTreeSystem@@QAEDHH@Z:PROC ; CMasterLevelSkillTreeSystem::CheckMasterSkillPoint
EXTRN	?ResetMasterSkill@CMasterLevelSkillTreeSystem@@QAEDHH@Z:PROC ; CMasterLevelSkillTreeSystem::ResetMasterSkill
EXTRN	?CreateMercenary@CMercenary@@QAEHHHEE@Z:PROC	; CMercenary::CreateMercenary
EXTRN	?CreateGuardian@CGuardian@@QAEHH@Z:PROC		; CGuardian::CreateGuardian
EXTRN	?CheckEquipmentToMove@CMoveCommand@@QAEHPAUOBJECTSTRUCT@@H@Z:PROC ; CMoveCommand::CheckEquipmentToMove
EXTRN	?Move@CMoveCommand@@QAEHPAUOBJECTSTRUCT@@H@Z:PROC ; CMoveCommand::Move
EXTRN	?BuyRequest@CGamblingEvent@@QAEEHEEEE@Z:PROC	; CGamblingEvent::BuyRequest
EXTRN	?OpenBox@EventItemBagManager@@QAEEHHE@Z:PROC	; EventItemBagManager::OpenBox
EXTRN	?OpenSpecial@EventItemBagManager@@QAEEEHHEE@Z:PROC ; EventItemBagManager::OpenSpecial
EXTRN	?EnterRequest@CDoubleGoerEvent@@QAEXPAUPMSG_DOUBLEGOER_REQ_ENTER@@H@Z:PROC ; CDoubleGoerEvent::EnterRequest
EXTRN	?CGEnterPortal@CImperialGuardian@@QAEXHH@Z:PROC	; CImperialGuardian::CGEnterPortal
EXTRN	?GetCurrentZoneIndex@CImperialGuardian@@QAEHH@Z:PROC ; CImperialGuardian::GetCurrentZoneIndex
EXTRN	?CheckOverlapMysteriousPaper@CImperialGuardian@@QAEHHH@Z:PROC ; CImperialGuardian::CheckOverlapMysteriousPaper
EXTRN	?IsElementalItem@CElementalSystem@@QAEHH@Z:PROC	; CElementalSystem::IsElementalItem
EXTRN	?SendShopElementalItem@CElementalSystem@@QAEXHH@Z:PROC ; CElementalSystem::SendShopElementalItem
EXTRN	?CGInsertErtel@CElementalSystem@@QAEXHPAUPMSG_REQ_INSERTERTEL@@@Z:PROC ; CElementalSystem::CGInsertErtel
EXTRN	?CGRemoveErtel@CElementalSystem@@QAEXHPAUPMSG_REQ_REMOVEERTEL@@@Z:PROC ; CElementalSystem::CGRemoveErtel
EXTRN	?ClearErtel@CElementalSystem@@QAEXPAUOBJECTSTRUCT@@PAVCItem@@@Z:PROC ; CElementalSystem::ClearErtel
EXTRN	?PShopErtel@CElementalSystem@@QAEXPAUOBJECTSTRUCT@@0PAVCItem@@@Z:PROC ; CElementalSystem::PShopErtel
EXTRN	?CGCombineButtonClick@CElementalSystem@@QAEXPAUPMSG_ERTEL_COMBINE@@H@Z:PROC ; CElementalSystem::CGCombineButtonClick
EXTRN	?CGUpgradeButtonClick@CElementalSystem@@QAEXPAUPMSG_ERTEL_LEVELUP@@H@Z:PROC ; CElementalSystem::CGUpgradeButtonClick
EXTRN	?TidyUpTempuserdate@@YAXHHE@Z:PROC		; TidyUpTempuserdate
EXTRN	?CGMiningRequest@@YAXPAUPMSG_MINING_REQUEST@@H@Z:PROC ; CGMiningRequest
EXTRN	?CGRewardRequest@@YAXPAUPMSG_MINING_REWARD_REQUEST@@H@Z:PROC ; CGRewardRequest
EXTRN	?CGMiningEnd@@YAXPAUPMSG_MINING_END@@H@Z:PROC	; CGMiningEnd
EXTRN	?CGReqSendMemberPosInfoStart@Minimap@@QAEXH@Z:PROC ; Minimap::CGReqSendMemberPosInfoStart
EXTRN	?CGReqSendMemberPosInfoStop@Minimap@@QAEXH@Z:PROC ; Minimap::CGReqSendMemberPosInfoStop
EXTRN	?GCReqSendNpcPosInfo@Minimap@@QAEXPAU_PMSG_REQ_NPC_POSITION@@H@Z:PROC ; Minimap::GCReqSendNpcPosInfo
EXTRN	?CGReqItemSearch@ShopBoard@@QAEXHPAUSHOPBOARD_CGREQ_ITEM@@@Z:PROC ; ShopBoard::CGReqItemSearch
EXTRN	?CGReqOfferList@GuildMatch@@QAEXHPAUGUILDMATCH_CGREQ_OFFERLIST@@@Z:PROC ; GuildMatch::CGReqOfferList
EXTRN	?CGReqOfferListByFilter@GuildMatch@@QAEXHPAUGUILDMATCH_CGREQ_OFFERLISTFILTER@@@Z:PROC ; GuildMatch::CGReqOfferListByFilter
EXTRN	?CGReqOfferCreate@GuildMatch@@QAEXHPAUGUILDMATCH_CGREQ_OFFERCREATE@@@Z:PROC ; GuildMatch::CGReqOfferCreate
EXTRN	?CGReqOfferDelete@GuildMatch@@QAEXHPAUGUILDMATCH_CGREQ_OFFERDELETE@@@Z:PROC ; GuildMatch::CGReqOfferDelete
EXTRN	?CGReqJoinReq@GuildMatch@@QAEXHPAUGUILDMATCH_CGREQ_JOINREQ@@@Z:PROC ; GuildMatch::CGReqJoinReq
EXTRN	?CGReqJoinReqDelete@GuildMatch@@QAEXHPAUGUILDMATCH_CGREQ_JOINREQDELETE@@@Z:PROC ; GuildMatch::CGReqJoinReqDelete
EXTRN	?CGReqJoinReqAnswer@GuildMatch@@QAEXHPAUGUILDMATCH_CGREQ_REQUESTANSWER@@@Z:PROC ; GuildMatch::CGReqJoinReqAnswer
EXTRN	?CGReqJoinReqList@GuildMatch@@QAEXHPAUGUILDMATCH_CGREQ_REQUESTLIST@@@Z:PROC ; GuildMatch::CGReqJoinReqList
EXTRN	?CGReqJoinReqStatus@GuildMatch@@QAEXHPAUGUILDMATCH_CGREQ_JOINREQSTATUS@@@Z:PROC ; GuildMatch::CGReqJoinReqStatus
EXTRN	?AddExperience@CBloodCastle@@QAE_NHH@Z:PROC	; CBloodCastle::AddExperience
EXTRN	?SearchUserDeleteQuestItem@CBloodCastle@@QAEXH@Z:PROC ; CBloodCastle::SearchUserDeleteQuestItem
EXTRN	?SearchUserDropQuestItem@CBloodCastle@@QAEXH@Z:PROC ; CBloodCastle::SearchUserDropQuestItem
EXTRN	?SendNoticeMessage@CBloodCastle@@QAEXHPAD@Z:PROC ; CBloodCastle::SendNoticeMessage
EXTRN	?EnterUserBridge@CBloodCastle@@QAEHHH@Z:PROC	; CBloodCastle::EnterUserBridge
EXTRN	?GetCurrentState@CBloodCastle@@QAEHH@Z:PROC	; CBloodCastle::GetCurrentState
EXTRN	?GetRemainTime@CBloodCastle@@QAEHH@Z:PROC	; CBloodCastle::GetRemainTime
EXTRN	?CheckEnterLevel@CBloodCastle@@QAEHHH@Z:PROC	; CBloodCastle::CheckEnterLevel
EXTRN	?CheckCanEnter@CBloodCastle@@QAE_NH@Z:PROC	; CBloodCastle::CheckCanEnter
EXTRN	?CheckPlayStart@CBloodCastle@@QAE_NH@Z:PROC	; CBloodCastle::CheckPlayStart
EXTRN	?CheckQuestItemSerial@CBloodCastle@@QAE_NHPAVCMapItem@@@Z:PROC ; CBloodCastle::CheckQuestItemSerial
EXTRN	?GetBridgeLevel@CBloodCastle@@QAEHH@Z:PROC	; CBloodCastle::GetBridgeLevel
EXTRN	?EnterUserChaosCastle@CChaosCastle@@QAEHHH@Z:PROC ; CChaosCastle::EnterUserChaosCastle
EXTRN	?LeaveUserChaosCastle@CChaosCastle@@QAEHHH@Z:PROC ; CChaosCastle::LeaveUserChaosCastle
EXTRN	?GetUserLevelToEnter@CChaosCastle@@QAEHH@Z:PROC	; CChaosCastle::GetUserLevelToEnter
EXTRN	?CheckUserEnterMoney@CChaosCastle@@QAEHHH@Z:PROC ; CChaosCastle::CheckUserEnterMoney
EXTRN	?PayUserEnterMoney@CChaosCastle@@QAEHHH@Z:PROC	; CChaosCastle::PayUserEnterMoney
EXTRN	?GetCurrentState@CChaosCastle@@QAEHH@Z:PROC	; CChaosCastle::GetCurrentState
EXTRN	?GetCurEnteredUser@CChaosCastle@@QAEHH@Z:PROC	; CChaosCastle::GetCurEnteredUser
EXTRN	?GetRemainTime@CChaosCastle@@QAEHH@Z:PROC	; CChaosCastle::GetRemainTime
EXTRN	?CheckCanEnter@CChaosCastle@@QAE_NH@Z:PROC	; CChaosCastle::CheckCanEnter
EXTRN	?ObjSetPosition@CChaosCastle@@QAEHHHH@Z:PROC	; CChaosCastle::ObjSetPosition
EXTRN	?DropScroll@SnakeBegins@@QAE_NPAUOBJECTSTRUCT@@G@Z:PROC ; SnakeBegins::DropScroll
EXTRN	?Mix@SnakeBegins@@QAEXPAUOBJECTSTRUCT@@@Z:PROC	; SnakeBegins::Mix
EXTRN	?GetPrice@ItemPrice@@QAE_NFGEAAKAAE@Z:PROC	; ItemPrice::GetPrice
EXTRN	?SendPrice@ItemPrice@@QAEXHH@Z:PROC		; ItemPrice::SendPrice
EXTRN	?ProcInsert@ItemUpgradeJewels@@QAEXPAUOBJECTSTRUCT@@HH@Z:PROC ; ItemUpgradeJewels::ProcInsert
EXTRN	?IsJewel@ItemUpgradeJewels@@QAE_NH@Z:PROC	; ItemUpgradeJewels::IsJewel
EXTRN	?IsObserver@CNewPVP@@QAEHAAUOBJECTSTRUCT@@@Z:PROC ; CNewPVP::IsObserver
EXTRN	?Reset@CNewPVP@@QAEXAAUOBJECTSTRUCT@@@Z:PROC	; CNewPVP::Reset
EXTRN	?OnCGInviteDuel@@YAHPAU_tagPMSG_REQ_DUEL_INVITE@@H@Z:PROC ; OnCGInviteDuel
EXTRN	?OnCGAnswerDuel@@YAHPAU_tagPMSG_ANS_DUEL_ANSWER@@H@Z:PROC ; OnCGAnswerDuel
EXTRN	?OnCGLeaveDuel@@YAHPAU_tagPMSG_REQ_DUEL_EXIT@@H@Z:PROC ; OnCGLeaveDuel
EXTRN	?OnDuelChannelJoin@@YAHPAU_tagPMSG_REQ_DUEL_JOINCNANNEL@@H@Z:PROC ; OnDuelChannelJoin
EXTRN	?OnDuelChannelLeave@@YAHPAU_tagPMSG_REQ_DUEL_LEAVECNANNEL@@H@Z:PROC ; OnDuelChannelLeave
EXTRN	??0MonsterSpawnerMng@@QAE@XZ:PROC		; MonsterSpawnerMng::MonsterSpawnerMng
EXTRN	?procCreate@MonsterSpawnerMng@@QAE_NFH@Z:PROC	; MonsterSpawnerMng::procCreate
EXTRN	?isKeyItem@MonsterSpawnerMng@@QAE_NH@Z:PROC	; MonsterSpawnerMng::isKeyItem
EXTRN	?CG_RequestStart@ResetSystem@@QAEXHPAUPacketResetStart@@@Z:PROC ; ResetSystem::CG_RequestStart
EXTRN	?Run@CommandManager@@QAEXPAUOBJECTSTRUCT@@PAD@Z:PROC ; CommandManager::Run
EXTRN	@__security_check_cookie@4:PROC
EXTRN	__CxxThrowException@8:PROC
EXTRN	___CxxFrameHandler3:PROC
EXTRN	__alldiv:PROC
EXTRN	__allmul:PROC
EXTRN	__chkstk:PROC
EXTRN	__except_handler4:PROC
EXTRN	__libm_sse2_sqrt_precise:PROC
EXTRN	__local_unwind4:PROC
EXTRN	_memcpy:PROC
EXTRN	_memset:PROC
EXTRN	??_7type_info@@6B@:QWORD			; type_info::`vftable'
EXTRN	?lMsg@@3VMessage@@A:BYTE			; lMsg
EXTRN	?gGensSystem@@3VCGensSystem@@A:BYTE		; gGensSystem
EXTRN	?ItemAttribute@@3PAUITEM_ATTRIBUTE@@A:BYTE	; ItemAttribute
EXTRN	?MagicDamageC@@3VCMagicDamage@@A:BYTE		; MagicDamageC
EXTRN	?gComboAttack@@3VCComboAttack@@A:DWORD		; gComboAttack
EXTRN	?LogAdd@@3P6AXPADZZA:DWORD			; LogAdd
EXTRN	?LogAddC@@3P6AXEPADZZA:DWORD			; LogAddC
EXTRN	?LogAddTD@@3P6AXPADZZA:DWORD			; LogAddTD
EXTRN	?LogAddHeadHex@@3P6AXPAD0H@ZA:DWORD		; LogAddHeadHex
EXTRN	?LogAddL@@3P6AXPADZZA:DWORD			; LogAddL
EXTRN	?g_kJewelOfHarmonySystem@@3VCJewelOfHarmonySystem@@A:BYTE ; g_kJewelOfHarmonySystem
EXTRN	?g_kItemSystemFor380@@3VCItemSystemFor380@@A:BYTE ; g_kItemSystemFor380
EXTRN	?g_SocketItem@@3VCSocketItems@@A:BYTE		; g_SocketItem
EXTRN	?RoadPathTable@@3PAFA:BYTE			; RoadPathTable
EXTRN	?gObj@@3PAUOBJECTSTRUCT@@A:DWORD		; gObj
EXTRN	?g_SelfDefenseOn@@3_NA:BYTE			; g_SelfDefenseOn
EXTRN	?g_SelfDefenseTime@@3HA:DWORD			; g_SelfDefenseTime
EXTRN	?g_ConnectMemberLoad@@3_NA:BYTE			; g_ConnectMemberLoad
EXTRN	?gSpeedHackPenalty@@3HA:DWORD			; gSpeedHackPenalty
EXTRN	?gEnableServerDivision@@3HA:DWORD		; gEnableServerDivision
EXTRN	?gMerryXMasNpcEvent@@3HA:DWORD			; gMerryXMasNpcEvent
EXTRN	?gHappyNewYearNpcEvent@@3HA:DWORD		; gHappyNewYearNpcEvent
EXTRN	?gStalkProtocolId@@3PADA:BYTE			; gStalkProtocolId
EXTRN	?gNonPK@@3HA:DWORD				; gNonPK
EXTRN	?gPkLimitFree@@3HA:DWORD			; gPkLimitFree
EXTRN	?bIsIgnorePacketSpeedHackDetect@@3HA:DWORD	; bIsIgnorePacketSpeedHackDetect
EXTRN	?gIsKickDetecHackCountLimit@@3HA:DWORD		; gIsKickDetecHackCountLimit
EXTRN	?gDoPShopOpen@@3HA:DWORD			; gDoPShopOpen
EXTRN	?wsGServer@@3VCwsGameServer@@A:BYTE		; wsGServer
EXTRN	?wsJServerCli@@3VwsJoinServerCli@@A:BYTE	; wsJServerCli
EXTRN	?MapC@@3PAVMapClass@@A:BYTE			; MapC
EXTRN	?WhisperCash@@3VCWhisperCash@@A:BYTE		; WhisperCash
EXTRN	?gParty@@3VPartyClass@@A:BYTE			; gParty
EXTRN	?Guild@@3VCGuildClass@@A:BYTE			; Guild
EXTRN	?gNSerialCheck@@3PAVNSerialCheck@@A:BYTE	; gNSerialCheck
EXTRN	?szGameServerExeSerial@@3PADA:BYTE		; szGameServerExeSerial
EXTRN	?g_iServerGroupGuildChatting@@3HA:DWORD		; g_iServerGroupGuildChatting
EXTRN	?g_iServerGroupUnionChatting@@3HA:DWORD		; g_iServerGroupUnionChatting
EXTRN	?g_iSkillDistanceKick@@3HA:DWORD		; g_iSkillDistanceKick
EXTRN	?g_iSkillDistanceKickCount@@3HA:DWORD		; g_iSkillDistanceKickCount
EXTRN	?g_iSkillDiatanceKickCheckTime@@3KA:DWORD	; g_iSkillDiatanceKickCheckTime
EXTRN	?gGameServerCode@@3FA:WORD			; gGameServerCode
EXTRN	?gStalkProtocol@@3HA:DWORD			; gStalkProtocol
EXTRN	?szClientVersion@@3PADA:QWORD			; szClientVersion
EXTRN	?bCanTrade@@3HA:DWORD				; bCanTrade
EXTRN	?bCanChaosBox@@3HA:DWORD			; bCanChaosBox
EXTRN	?bCanWarehouseLock@@3HA:DWORD			; bCanWarehouseLock
EXTRN	?gCreateCharacter@@3HA:DWORD			; gCreateCharacter
EXTRN	?gGuildDestroy@@3HA:DWORD			; gGuildDestroy
EXTRN	?g_GuildMaxMember@@3HA:DWORD			; g_GuildMaxMember
EXTRN	?g_GuildMaxAllianceMember@@3HA:DWORD		; g_GuildMaxAllianceMember
EXTRN	?g_CastleMinGuildMember@@3HA:DWORD		; g_CastleMinGuildMember
EXTRN	?gDQChaosSuccessRateLevel1@@3HA:DWORD		; gDQChaosSuccessRateLevel1
EXTRN	?gDQChaosSuccessRateLevel2@@3HA:DWORD		; gDQChaosSuccessRateLevel2
EXTRN	?gDQChaosSuccessRateLevel3@@3HA:DWORD		; gDQChaosSuccessRateLevel3
EXTRN	?gDQChaosSuccessRateLevel4@@3HA:DWORD		; gDQChaosSuccessRateLevel4
EXTRN	?gDQChaosSuccessRateLevel5@@3HA:DWORD		; gDQChaosSuccessRateLevel5
EXTRN	?gDQChaosSuccessRateLevel6@@3HA:DWORD		; gDQChaosSuccessRateLevel6
EXTRN	?gDQChaosSuccessRateLevel7@@3HA:DWORD		; gDQChaosSuccessRateLevel7
EXTRN	?gHackCheckCount@@3KA:DWORD			; gHackCheckCount
EXTRN	?gDetectedHackKickCount@@3HA:DWORD		; gDetectedHackKickCount
EXTRN	?g_bMuBotSystemOn@@3HA:DWORD			; g_bMuBotSystemOn
EXTRN	?g_iMuBotSystemUserLevel@@3HA:DWORD		; g_iMuBotSystemUserLevel
EXTRN	?g_iMuBotStage1Zen@@3HA:DWORD			; g_iMuBotStage1Zen
EXTRN	?g_CreateCharLevelRF@@3FA:WORD			; g_CreateCharLevelRF
EXTRN	?g_CreateCharLevelSUM@@3FA:WORD			; g_CreateCharLevelSUM
EXTRN	?g_CreateCharLevelDL@@3FA:WORD			; g_CreateCharLevelDL
EXTRN	?g_CreateCharLevelMG@@3FA:WORD			; g_CreateCharLevelMG
EXTRN	?g_MultilangCharacterName@@3EA:BYTE		; g_MultilangCharacterName
EXTRN	?g_MultilangGuildName@@3EA:BYTE			; g_MultilangGuildName
EXTRN	?gc_bBlockFullExcellent@@3HA:DWORD		; gc_bBlockFullExcellent
EXTRN	?gc_bBlockFullAncient@@3HA:DWORD		; gc_bBlockFullAncient
EXTRN	?gc_bPersonalID@@3HA:DWORD			; gc_bPersonalID
EXTRN	?g_RenaCount@@3HA:DWORD				; g_RenaCount
EXTRN	?g_StoneCount@@3HA:DWORD			; g_StoneCount
EXTRN	?g_QuestInfo@@3VCQuestInfo@@A:BYTE		; g_QuestInfo
EXTRN	?gQuestInfoEx@@3VCQuestInfoEx@@A:BYTE		; gQuestInfoEx
EXTRN	?ConMember@@3VCConMember@@A:BYTE		; ConMember
EXTRN	?g_ChaosBox@@3VCChaosBox@@A:BYTE		; g_ChaosBox
EXTRN	?g_CastleSiegeSync@@3VCCastleSiegeSync@@A:BYTE	; g_CastleSiegeSync
EXTRN	?UnionManager@@3VTUnion@@A:BYTE			; UnionManager
EXTRN	?g_CsNPC_Weapon@@3VCWeapon@@A:BYTE		; g_CsNPC_Weapon
EXTRN	?cDBSMng@@3VDBSockMng@@A:BYTE			; cDBSMng
EXTRN	?g_KalimaGate@@3VCKalimaGate@@A:BYTE		; g_KalimaGate
EXTRN	?gObjUseSkill@@3VCObjUseSkill@@A:DWORD		; gObjUseSkill
EXTRN	?g_IllusionTemple@@3VCIllusionTempleEvent@@A:BYTE ; g_IllusionTemple
EXTRN	?g_ShopManager@@3VShopManager@@A:BYTE		; g_ShopManager
EXTRN	?g_CashItemPeriodSystem@@3VCCashItemPeriodSystem@@A:BYTE ; g_CashItemPeriodSystem
EXTRN	?gBSGround@@3PAPAVCBattleSoccer@@A:DWORD	; gBSGround
EXTRN	?gQeustNpcTeleport@@3VCQeustNpcTeleport@@A:BYTE	; gQeustNpcTeleport
EXTRN	?gGateC@@3VCGate@@A:BYTE			; gGateC
EXTRN	?gPacketCheckSum@@3VCPacketCheckSum@@A:BYTE	; gPacketCheckSum
EXTRN	?gDarkSpirit@@3PAVCDarkSpirit@@A:BYTE		; gDarkSpirit
EXTRN	?g_CrywolfNPC_Altar@@3VCCrywolfAltar@@A:BYTE	; g_CrywolfNPC_Altar
EXTRN	?g_CrywolfSync@@3VCCrywolfSync@@A:BYTE		; g_CrywolfSync
EXTRN	?g_DevilSquare@@3VCDevilSquare@@A:BYTE		; g_DevilSquare
EXTRN	?g_KanturuEntranceNPC@@3VCKanturuEntranceNPC@@A:DWORD ; g_KanturuEntranceNPC
EXTRN	?g_CashShop@@3VCCashShop@@A:BYTE		; g_CashShop
EXTRN	?g_MapServerManager@@3VCMapServerManager@@A:BYTE ; g_MapServerManager
EXTRN	?g_CastleSiege@@3VCCastleSiege@@A:BYTE		; g_CastleSiege
EXTRN	?g_iNpcUpDfLevel_CGATE@@3PAY02HA:BYTE		; g_iNpcUpDfLevel_CGATE
EXTRN	?g_iNpcUpDfLevel_CSTATUE@@3PAY02HA:BYTE		; g_iNpcUpDfLevel_CSTATUE
EXTRN	?g_iNpcUpMaxHP_CGATE@@3PAY02HA:BYTE		; g_iNpcUpMaxHP_CGATE
EXTRN	?g_iNpcUpMaxHP_CSTATUE@@3PAY02HA:BYTE		; g_iNpcUpMaxHP_CSTATUE
EXTRN	?g_iNpcUpRgLevel_CSTATUE@@3PAY02HA:BYTE		; g_iNpcUpRgLevel_CSTATUE
EXTRN	?g_CsNPC_LifeStone@@3VCLifeStone@@A:DWORD	; g_CsNPC_LifeStone
EXTRN	?g_MasterSkillSystem@@3VCMasterLevelSkillTreeSystem@@A:BYTE ; g_MasterSkillSystem
EXTRN	?g_CsNPC_Mercenary@@3VCMercenary@@A:QWORD	; g_CsNPC_Mercenary
EXTRN	?g_CsNPC_Guardian@@3VCGuardian@@A:DWORD		; g_CsNPC_Guardian
EXTRN	?gMoveCommand@@3VCMoveCommand@@A:BYTE		; gMoveCommand
EXTRN	?gGamblingEvent@@3VCGamblingEvent@@A:BYTE	; gGamblingEvent
EXTRN	?g_EventItemBagManager@@3VEventItemBagManager@@A:BYTE ; g_EventItemBagManager
EXTRN	?gDoubleGoer@@3VCDoubleGoerEvent@@A:BYTE	; gDoubleGoer
EXTRN	?g_ImperialGuardian@@3VCImperialGuardian@@A:BYTE ; g_ImperialGuardian
EXTRN	?g_ElementalSystem@@3VCElementalSystem@@A:BYTE	; g_ElementalSystem
EXTRN	?g_Minimap@@3VMinimap@@A:BYTE			; g_Minimap
EXTRN	?g_ShopBoard@@3VShopBoard@@A:DWORD		; g_ShopBoard
EXTRN	?g_GuildMatch@@3VGuildMatch@@A:BYTE		; g_GuildMatch
EXTRN	?g_BloodCastle@@3VCBloodCastle@@A:BYTE		; g_BloodCastle
EXTRN	?g_ChaosCastle@@3VCChaosCastle@@A:BYTE		; g_ChaosCastle
EXTRN	?g_SnakeBegins@@3VSnakeBegins@@A:BYTE		; g_SnakeBegins
EXTRN	?g_ItemPrice@@3VItemPrice@@A:BYTE		; g_ItemPrice
EXTRN	?g_ItemUpgradeJewels@@3VItemUpgradeJewels@@A:BYTE ; g_ItemUpgradeJewels
EXTRN	?g_NewPVP@@3VCNewPVP@@A:BYTE			; g_NewPVP
EXTRN	?m_Instance@MonsterSpawnerMng@@0PAV1@A:DWORD	; MonsterSpawnerMng::m_Instance
EXTRN	?g_ResetSystem@@3VResetSystem@@A:BYTE		; g_ResetSystem
EXTRN	?g_CommandManager@@3VCommandManager@@A:BYTE	; g_CommandManager
EXTRN	___security_cookie:DWORD
EXTRN	__fltused:DWORD
;	COMDAT ?_OptionsStorage@?1??__local_stdio_printf_options@@9@4_KA
_BSS	SEGMENT
?_OptionsStorage@?1??__local_stdio_printf_options@@9@4_KA DQ 01H DUP (?) ; `__local_stdio_printf_options'::`2'::_OptionsStorage
_BSS	ENDS
_BSS	SEGMENT
?g_CreditLog@@3VCLogToFile@@A DB 010228H DUP (?)	; g_CreditLog
_BSS	ENDS
CRT$XCU	SEGMENT
?g_CreditLog$initializer$@@3P6AXXZA DD FLAT:??__Eg_CreditLog@@YAXXZ ; g_CreditLog$initializer$
CRT$XCU	ENDS
;	COMDAT __xmm@ffffffffffffffffffffffffffffffff
CONST	SEGMENT
__xmm@ffffffffffffffffffffffffffffffff DB 0ffH, 0ffH, 0ffH, 0ffH, 0ffH, 0ffH
	DB	0ffH, 0ffH, 0ffH, 0ffH, 0ffH, 0ffH, 0ffH, 0ffH, 0ffH, 0ffH
CONST	ENDS
;	COMDAT __real@42c80000
CONST	SEGMENT
__real@42c80000 DD 042c80000r			; 100
CONST	ENDS
;	COMDAT __real@42340000
CONST	SEGMENT
__real@42340000 DD 042340000r			; 45
CONST	ENDS
;	COMDAT __real@41c80000
CONST	SEGMENT
__real@41c80000 DD 041c80000r			; 25
CONST	ENDS
;	COMDAT __real@41200000
CONST	SEGMENT
__real@41200000 DD 041200000r			; 10
CONST	ENDS
;	COMDAT __real@40a00000
CONST	SEGMENT
__real@40a00000 DD 040a00000r			; 5
CONST	ENDS
;	COMDAT __real@406fe00000000000
CONST	SEGMENT
__real@406fe00000000000 DQ 0406fe00000000000r	; 255
CONST	ENDS
;	COMDAT __real@406fc00000000000
CONST	SEGMENT
__real@406fc00000000000 DQ 0406fc00000000000r	; 254
CONST	ENDS
;	COMDAT __real@40400000
CONST	SEGMENT
__real@40400000 DD 040400000r			; 3
CONST	ENDS
;	COMDAT __real@40000000
CONST	SEGMENT
__real@40000000 DD 040000000r			; 2
CONST	ENDS
;	COMDAT __real@3fe4cccccccccccd
CONST	SEGMENT
__real@3fe4cccccccccccd DQ 03fe4cccccccccccdr	; 0.65
CONST	ENDS
;	COMDAT __real@3fc00000
CONST	SEGMENT
__real@3fc00000 DD 03fc00000r			; 1.5
CONST	ENDS
;	COMDAT __real@3f800000
CONST	SEGMENT
__real@3f800000 DD 03f800000r			; 1
CONST	ENDS
;	COMDAT __real@00000000
CONST	SEGMENT
__real@00000000 DD 000000000r			; 0
CONST	ENDS
;	COMDAT ??_R1A@?0A@EA@_CS_NPC_DATA@@8
rdata$r	SEGMENT
??_R1A@?0A@EA@_CS_NPC_DATA@@8 DD FLAT:??_R0?AU_CS_NPC_DATA@@@8 ; _CS_NPC_DATA::`RTTI Base Class Descriptor at (0,-1,0,64)'
	DD	00H
	DD	00H
	DD	0ffffffffH
	DD	00H
	DD	040H
	DD	FLAT:??_R3_CS_NPC_DATA@@8
rdata$r	ENDS
;	COMDAT ??_R2_CS_NPC_DATA@@8
rdata$r	SEGMENT
??_R2_CS_NPC_DATA@@8 DD FLAT:??_R1A@?0A@EA@_CS_NPC_DATA@@8 ; _CS_NPC_DATA::`RTTI Base Class Array'
rdata$r	ENDS
;	COMDAT ??_R3_CS_NPC_DATA@@8
rdata$r	SEGMENT
??_R3_CS_NPC_DATA@@8 DD 00H				; _CS_NPC_DATA::`RTTI Class Hierarchy Descriptor'
	DD	00H
	DD	01H
	DD	FLAT:??_R2_CS_NPC_DATA@@8
rdata$r	ENDS
;	COMDAT ??_R0?AU_CS_NPC_DATA@@@8
data$r	SEGMENT
??_R0?AU_CS_NPC_DATA@@@8 DD FLAT:??_7type_info@@6B@	; _CS_NPC_DATA `RTTI Type Descriptor'
	DD	00H
	DB	'.?AU_CS_NPC_DATA@@', 00H
data$r	ENDS
;	COMDAT ??_R4_CS_NPC_DATA@@6B@
rdata$r	SEGMENT
??_R4_CS_NPC_DATA@@6B@ DD 00H				; _CS_NPC_DATA::`RTTI Complete Object Locator'
	DD	00H
	DD	00H
	DD	FLAT:??_R0?AU_CS_NPC_DATA@@@8
	DD	FLAT:??_R3_CS_NPC_DATA@@8
rdata$r	ENDS
;	COMDAT ??_C@_0BM@JGJDNBPL@?$FLDEBUG?$FN?5Text?3?5?$CFs?0?5Value?3?5?$CFd?$AA@
CONST	SEGMENT
??_C@_0BM@JGJDNBPL@?$FLDEBUG?$FN?5Text?3?5?$CFs?0?5Value?3?5?$CFd?$AA@ DB '['
	DB	'DEBUG] Text: %s, Value: %d', 00H		; `string'
CONST	ENDS
;	COMDAT ??_C@_0GN@LMFACHAA@?$FLUseCahngeSkinState?$FN?$FLCGEnableUse@
CONST	SEGMENT
??_C@_0GN@LMFACHAA@?$FLUseCahngeSkinState?$FN?$FLCGEnableUse@ DB '[UseCah'
	DB	'ngeSkinState][CGEnableUsePolymorphSkinrRecv] [ChaageEanbleSta'
	DB	'te : %d] On(Use): 0 / Off: 1(Don''t Use) ', 00H ; `string'
CONST	ENDS
;	COMDAT ??_C@_0CE@IHDJCCIO@MU?5Helper?5cant?5run?5on?5this?5locat@
CONST	SEGMENT
??_C@_0CE@IHDJCCIO@MU?5Helper?5cant?5run?5on?5this?5locat@ DB 'MU Helper '
	DB	'cant run on this location', 00H		; `string'
CONST	ENDS
;	COMDAT ??_C@_0DB@OKKAKFII@Only?5characters?5above?5?$CFd?5level?5c@
CONST	SEGMENT
??_C@_0DB@OKKAKFII@Only?5characters?5above?5?$CFd?5level?5c@ DB 'Only cha'
	DB	'racters above %d level can run MU Helper', 00H ; `string'
CONST	ENDS
;	COMDAT ??_C@_0BN@JAGJPNLP@?$FLMuBot?$FN?5Option?5Send?5?$FL?$CFs?$FN?$FL?$CFs?$FN?$AA@
CONST	SEGMENT
??_C@_0BN@JAGJPNLP@?$FLMuBot?$FN?5Option?5Send?5?$FL?$CFs?$FN?$FL?$CFs?$FN?$AA@ DB '['
	DB	'MuBot] Option Send [%s][%s]', 00H		; `string'
CONST	ENDS
;	COMDAT ??_C@_0BN@JLEKNDOL@?$FLMuBot?$FN?5Option?5Save?5?$FL?$CFs?$FN?$FL?$CFs?$FN?$AA@
CONST	SEGMENT
??_C@_0BN@JLEKNDOL@?$FLMuBot?$FN?5Option?5Save?5?$FL?$CFs?$FN?$FL?$CFs?$FN?$AA@ DB '['
	DB	'MuBot] Option Save [%s][%s]', 00H		; `string'
CONST	ENDS
;	COMDAT ??_C@_0CK@IHOODACF@?$FL0x4A?$FN?5CGRageAttack?$CI?$CJ?5?9?5Invalid?5@
CONST	SEGMENT
??_C@_0CK@IHOODACF@?$FL0x4A?$FN?5CGRageAttack?$CI?$CJ?5?9?5Invalid?5@ DB '['
	DB	'0x4A] CGRageAttack() - Invalid KillCount', 00H ; `string'
CONST	ENDS
;	COMDAT ??_C@_0CH@MELJEGBP@?$FL0x4A?$FN?5CGRageAttack?$CI?$CJ?5?9?5Invalid?5@
CONST	SEGMENT
??_C@_0CH@MELJEGBP@?$FL0x4A?$FN?5CGRageAttack?$CI?$CJ?5?9?5Invalid?5@ DB '['
	DB	'0x4A] CGRageAttack() - Invalid Status', 00H	; `string'
CONST	ENDS
;	COMDAT ??_C@_0EM@GKLOHMBB@?$FL?$CFs?$FN?$FL?$CFs?$FN?5Try?5Attack?5In?5Not?5Attac@
CONST	SEGMENT
??_C@_0EM@GKLOHMBB@?$FL?$CFs?$FN?$FL?$CFs?$FN?5Try?5Attack?5In?5Not?5Attac@ DB '['
	DB	'%s][%s] Try Attack In Not Attack Area [Protocol] (%d:%d,%d) e'
	DB	'rrortype = %d', 00H				; `string'
CONST	ENDS
;	COMDAT ??_C@_0DJ@POFOHDII@?$FLCastle?5HuntZone?$FN?5?$FL?$CFs?$FN?$FL?$CFs?$FN?5?9?5Ent@
CONST	SEGMENT
??_C@_0DJ@POFOHDII@?$FLCastle?5HuntZone?$FN?5?$FL?$CFs?$FN?$FL?$CFs?$FN?5?9?5Ent@ DB '['
	DB	'Castle HuntZone] [%s][%s] - Entrance TAX : %d - %d = %d', 00H ; `string'
CONST	ENDS
;	COMDAT ??_C@_0EP@MCHCDEEO@?$FLCastleSiege?$FN?5CGReqNpcDbList?$CI?$CJ?5E@
CONST	SEGMENT
??_C@_0EP@MCHCDEEO@?$FLCastleSiege?$FN?5CGReqNpcDbList?$CI?$CJ?5E@ DB '[C'
	DB	'astleSiege] CGReqNpcDbList() ERROR - Authority Fail [%s][%s],'
	DB	' Guild:(%s)(%d)', 00H			; `string'
CONST	ENDS
;	COMDAT ??_C@_0EJ@JHNFCADN@?$FLCastleSiege?$FN?5?$FLReg?4?5Fail?$FN?5Accumu@
CONST	SEGMENT
??_C@_0EJ@JHNFCADN@?$FLCastleSiege?$FN?5?$FLReg?4?5Fail?$FN?5Accumu@ DB '['
	DB	'CastleSiege] [Reg. Fail] Accumulated Crown AccessTime : %d [%'
	DB	's](%s)(%s)', 00H				; `string'
CONST	ENDS
;	COMDAT ??_C@_0EM@IGJJMHPI@?$FLCastleSiege?$FN?5?$FLReg?4?5Success?$FN?5Acc@
CONST	SEGMENT
??_C@_0EM@IGJJMHPI@?$FLCastleSiege?$FN?5?$FLReg?4?5Success?$FN?5Acc@ DB '['
	DB	'CastleSiege] [Reg. Success] Accumulated Crown AccessTime : %d'
	DB	' [%s](%s)(%s)', 00H				; `string'
CONST	ENDS
;	COMDAT ??_C@_0EM@JNCLHJJ@?$FLCastleSiege?$FN?5?$FLReg?4?5Attempt?$FN?5Acc@
CONST	SEGMENT
??_C@_0EM@JNCLHJJ@?$FLCastleSiege?$FN?5?$FLReg?4?5Attempt?$FN?5Acc@ DB '['
	DB	'CastleSiege] [Reg. Attempt] Accumulated Crown AccessTime : %d'
	DB	' [%s](%s)(%s)', 00H				; `string'
CONST	ENDS
;	COMDAT ??_C@_0FH@PFCGGCDO@?$FLCastleSiege?$FN?5CGReqCsGateOperate@
CONST	SEGMENT
??_C@_0FH@PFCGGCDO@?$FLCastleSiege?$FN?5CGReqCsGateOperate@ DB '[CastleSi'
	DB	'ege] CGReqCsGateOperate() ERROR - Gate Doesn''t Exist [%s][%s'
	DB	'], Guild:(%s)(%d)', 00H			; `string'
CONST	ENDS
;	COMDAT ??_C@_0GC@PPNJMEKD@?$FLCastleSiege?$FN?5CGReqCsGateOperate@
CONST	SEGMENT
??_C@_0GC@PPNJMEKD@?$FLCastleSiege?$FN?5CGReqCsGateOperate@ DB '[CastleSi'
	DB	'ege] CGReqCsGateOperate() OK - [%s][%s], Guild:(%s)(%d), DOOR'
	DB	':(%d)(X:%d,Y:%d)(STATUE:%d)', 00H		; `string'
CONST	ENDS
;	COMDAT ??_C@_0FI@ECEJELNH@?$FLCastleSiege?$FN?5CGReqCsGateOperate@
CONST	SEGMENT
??_C@_0FI@ECEJELNH@?$FLCastleSiege?$FN?5CGReqCsGateOperate@ DB '[CastleSi'
	DB	'ege] CGReqCsGateOperate() ERROR - Operate Gate Failed [%s][%s'
	DB	'], Guild:(%s)(%d)', 00H			; `string'
CONST	ENDS
;	COMDAT ??_C@_0FD@CLDAEBMI@?$FLCastleSiege?$FN?5CGReqCsGateOperate@
CONST	SEGMENT
??_C@_0FD@CLDAEBMI@?$FLCastleSiege?$FN?5CGReqCsGateOperate@ DB '[CastleSi'
	DB	'ege] CGReqCsGateOperate() ERROR - Authority Fail [%s][%s], Gu'
	DB	'ild:(%s)(%d)', 00H				; `string'
CONST	ENDS
;	COMDAT ??_C@_0FL@OCIHBNNC@?$FLCastleSiege?$FN?5CGReqMoneyDrawOut?$CI@
CONST	SEGMENT
??_C@_0FL@OCIHBNNC@?$FLCastleSiege?$FN?5CGReqMoneyDrawOut?$CI@ DB '[Castl'
	DB	'eSiege] CGReqMoneyDrawOut() REQ OK - [%s][%s], Guild:(%s)(%d)'
	DB	', Money:%d, TotMoney:%d', 00H		; `string'
CONST	ENDS
;	COMDAT ??_C@_0GO@PDPPHBEL@?$FLCastleSiege?$FN?5CGReqMoneyDrawOut?$CI@
CONST	SEGMENT
??_C@_0GO@PDPPHBEL@?$FLCastleSiege?$FN?5CGReqMoneyDrawOut?$CI@ DB '[Castl'
	DB	'eSiege] CGReqMoneyDrawOut() ERROR - Castle Money is Low [%s]['
	DB	'%s], Guild:(%s)(%d), Money:%d, TotMoney:%d', 00H ; `string'
CONST	ENDS
;	COMDAT ??_C@_0GI@OMCJPOBC@?$FLCastleSiege?$FN?5CGReqMoneyDrawOut?$CI@
CONST	SEGMENT
??_C@_0GI@OMCJPOBC@?$FLCastleSiege?$FN?5CGReqMoneyDrawOut?$CI@ DB '[Castl'
	DB	'eSiege] CGReqMoneyDrawOut() ERROR - Req Money < 0 [%s][%s], G'
	DB	'uild:(%s)(%d), Money:%d, TotMoney:%d', 00H	; `string'
CONST	ENDS
;	COMDAT ??_C@_0FC@DGNKBDAH@?$FLCastleSiege?$FN?5CGReqMoneyDrawOut?$CI@
CONST	SEGMENT
??_C@_0FC@DGNKBDAH@?$FLCastleSiege?$FN?5CGReqMoneyDrawOut?$CI@ DB '[Castl'
	DB	'eSiege] CGReqMoneyDrawOut() ERROR - Authority Fail [%s][%s], '
	DB	'Guild:(%s)(%d)', 00H			; `string'
CONST	ENDS
;	COMDAT ??_C@_0FN@BAMHEEPO@?$FLCastleSiege?$FN?5CGReqTaxRateChange@
CONST	SEGMENT
??_C@_0FN@BAMHEEPO@?$FLCastleSiege?$FN?5CGReqTaxRateChange@ DB '[CastleSi'
	DB	'ege] CGReqTaxRateChange() REQ OK - [%s][%s], Guild:(%s)(%d), '
	DB	'TaxType:%d, TaxRate:%d', 00H		; `string'
CONST	ENDS
;	COMDAT ??_C@_0HC@JOOCDJDK@?$FLCastleSiege?$FN?5CGReqTaxRateChange@
CONST	SEGMENT
??_C@_0HC@JOOCDJDK@?$FLCastleSiege?$FN?5CGReqTaxRateChange@ DB '[CastleSi'
	DB	'ege] CGReqTaxRateChange() ERROR - Tax Rate Out of Range [%s]['
	DB	'%s], Guild:(%s)(%d), TaxType:%d, TaxRate:%d', 00H ; `string'
CONST	ENDS
;	COMDAT ??_C@_0FD@KBBNDHCP@?$FLCastleSiege?$FN?5CGReqTaxRateChange@
CONST	SEGMENT
??_C@_0FD@KBBNDHCP@?$FLCastleSiege?$FN?5CGReqTaxRateChange@ DB '[CastleSi'
	DB	'ege] CGReqTaxRateChange() ERROR - Authority Fail [%s][%s], Gu'
	DB	'ild:(%s)(%d)', 00H				; `string'
CONST	ENDS
;	COMDAT ??_C@_0EE@COLPGPNH@?$FLCastleSiege?$FN?5CGReqTaxMoneyInfo?$CI@
CONST	SEGMENT
??_C@_0EE@COLPGPNH@?$FLCastleSiege?$FN?5CGReqTaxMoneyInfo?$CI@ DB '[Castl'
	DB	'eSiege] CGReqTaxMoneyInfo() REQ OK - [%s][%s], Guild:(%s)(%d)'
	DB	00H						; `string'
CONST	ENDS
;	COMDAT ??_C@_0FC@DCLHCCNM@?$FLCastleSiege?$FN?5CGReqTaxMoneyInfo?$CI@
CONST	SEGMENT
??_C@_0FC@DCLHCCNM@?$FLCastleSiege?$FN?5CGReqTaxMoneyInfo?$CI@ DB '[Castl'
	DB	'eSiege] CGReqTaxMoneyInfo() ERROR - Authority Fail [%s][%s], '
	DB	'Guild:(%s)(%d)', 00H			; `string'
CONST	ENDS
;	COMDAT ??_C@_0HF@MKGLJLP@?$FLCastleSiege?$FN?5CGReqNpcUpgrade?$CI?$CJ?5@
CONST	SEGMENT
??_C@_0HF@MKGLJLP@?$FLCastleSiege?$FN?5CGReqNpcUpgrade?$CI?$CJ?5@ DB '[Ca'
	DB	'stleSiege] CGReqNpcUpgrade() REQ OK - [%s][%s], Guild:(%s)(%d'
	DB	'), NPC CLS:%d, IDX:%d, UPTYPE:%d, UPVAL:%d, NXTLV:%d', 00H ; `string'
CONST	ENDS
;	COMDAT ??_C@_0GJ@BFDGFKFN@?$FLCastleSiege?$FN?5?$FL0xB2?$FN?$FL0x07?$FN?5CGReq@
CONST	SEGMENT
??_C@_0GJ@BFDGFKFN@?$FLCastleSiege?$FN?5?$FL0xB2?$FN?$FL0x07?$FN?5CGReq@ DB '['
	DB	'CastleSiege] [0xB2][0x07] CGReqNpcUpgrade() - Pay For Npc Upg'
	DB	'rade (CLS:%d, IDX:%d, UPTYPE:%d, UPVAL:%d)', 00H ; `string'
CONST	ENDS
;	COMDAT ??_C@_0JE@MAAHAGJP@?$FLCastleSiege?$FN?5CGReqNpcUpgrade?$CI?$CJ?5@
CONST	SEGMENT
??_C@_0JE@MAAHAGJP@?$FLCastleSiege?$FN?5CGReqNpcUpgrade?$CI?$CJ?5@ DB '[C'
	DB	'astleSiege] CGReqNpcUpgrade() ERROR - Gem is Low [%s][%s], Gu'
	DB	'ild:(%s)(%d), NPC CLS:%d, IDX:%d, UPTYPE:%d, UPVAL:%d, NXTLV:'
	DB	'%d, Gem:%d, Need Gem:%d', 00H		; `string'
CONST	ENDS
;	COMDAT ??_C@_0JK@PKCLEPDN@?$FLCastleSiege?$FN?5CGReqNpcUpgrade?$CI?$CJ?5@
CONST	SEGMENT
??_C@_0JK@PKCLEPDN@?$FLCastleSiege?$FN?5CGReqNpcUpgrade?$CI?$CJ?5@ DB '[C'
	DB	'astleSiege] CGReqNpcUpgrade() ERROR - Money is Low [%s][%s], '
	DB	'Guild:(%s)(%d), NPC CLS:%d, IDX:%d, UPTYPE:%d, UPVAL:%d, NXTL'
	DB	'V:%d, Money:%d, Need Money:%d', 00H		; `string'
CONST	ENDS
;	COMDAT ??_C@_0HP@CCMCIINC@?$FLCastleSiege?$FN?5CGReqNpcUpgrade?$CI?$CJ?5@
CONST	SEGMENT
??_C@_0HP@CCMCIINC@?$FLCastleSiege?$FN?5CGReqNpcUpgrade?$CI?$CJ?5@ DB '[C'
	DB	'astleSiege] CGReqNpcUpgrade() ERROR - UpType doesn''t Exist ['
	DB	'%s][%s], Guild:(%s)(%d), NPC CLS:%d, IDX:%d, UPTYPE:%d, UPVAL'
	DB	':%d', 00H					; `string'
CONST	ENDS
;	COMDAT ??_C@_0FA@FOFEAMPC@?$FLCastleSiege?$FN?5CGReqNpcUpgrade?$CI?$CJ?5@
CONST	SEGMENT
??_C@_0FA@FOFEAMPC@?$FLCastleSiege?$FN?5CGReqNpcUpgrade?$CI?$CJ?5@ DB '[C'
	DB	'astleSiege] CGReqNpcUpgrade() ERROR - Authority Fail [%s][%s]'
	DB	', Guild:(%s)(%d)', 00H			; `string'
CONST	ENDS
;	COMDAT ??_C@_0FD@DOALANGE@?$FLCastleSiege?$FN?5CGReqNpcRepair?$CI?$CJ?5O@
CONST	SEGMENT
??_C@_0FD@DOALANGE@?$FLCastleSiege?$FN?5CGReqNpcRepair?$CI?$CJ?5O@ DB '[C'
	DB	'astleSiege] CGReqNpcRepair() OK - [%s][%s], Guild:(%s)(%d), N'
	DB	'pc:(CLS:%d, IDX:%d)', 00H			; `string'
CONST	ENDS
;	COMDAT ??_C@_0GJ@EAKLGMOB@?$FLCastleSiege?$FN?5CGReqNpcRepair?$CI?$CJ?5E@
CONST	SEGMENT
??_C@_0GJ@EAKLGMOB@?$FLCastleSiege?$FN?5CGReqNpcRepair?$CI?$CJ?5E@ DB '[C'
	DB	'astleSiege] CGReqNpcRepair() ERROR - Money isn''t enough [%s]'
	DB	'[%s], Guild:(%s)(%d), Npc:(CLS:%d, IDX:%d)', 00H ; `string'
CONST	ENDS
;	COMDAT ??_C@_0GO@OKDMDNNG@?$FLCastleSiege?$FN?5CGReqNpcRepair?$CI?$CJ?5E@
CONST	SEGMENT
??_C@_0GO@OKDMDNNG@?$FLCastleSiege?$FN?5CGReqNpcRepair?$CI?$CJ?5E@ DB '[C'
	DB	'astleSiege] CGReqNpcRepair() ERROR - Npc Alive Data Mismatch '
	DB	'[%s][%s], Guild:(%s)(%d), Npc:(CLS:%d, IDX:%d)', 00H ; `string'
CONST	ENDS
;	COMDAT ??_C@_0GG@EJLCHNOA@?$FLCastleSiege?$FN?5CGReqNpcRepair?$CI?$CJ?5E@
CONST	SEGMENT
??_C@_0GG@EJLCHNOA@?$FLCastleSiege?$FN?5CGReqNpcRepair?$CI?$CJ?5E@ DB '[C'
	DB	'astleSiege] CGReqNpcRepair() ERROR - CL Request Fail [%s][%s]'
	DB	', Guild:(%s)(%d), Npc:(CLS:%d, IDX:%d)', 00H ; `string'
CONST	ENDS
;	COMDAT ??_C@_0EP@JKAOCMDF@?$FLCastleSiege?$FN?5CGReqNpcRepair?$CI?$CJ?5E@
CONST	SEGMENT
??_C@_0EP@JKAOCMDF@?$FLCastleSiege?$FN?5CGReqNpcRepair?$CI?$CJ?5E@ DB '[C'
	DB	'astleSiege] CGReqNpcRepair() ERROR - Authority Fail [%s][%s],'
	DB	' Guild:(%s)(%d)', 00H			; `string'
CONST	ENDS
;	COMDAT ??_C@_0FA@NJFDHFJL@?$FLCastleSiege?$FN?5CGReqNpcBuy?$CI?$CJ?5OK?5?9@
CONST	SEGMENT
??_C@_0FA@NJFDHFJL@?$FLCastleSiege?$FN?5CGReqNpcBuy?$CI?$CJ?5OK?5?9@ DB '['
	DB	'CastleSiege] CGReqNpcBuy() OK - [%s][%s], Guild:(%s)(%d), Npc'
	DB	':(CLS:%d, IDX:%d)', 00H			; `string'
CONST	ENDS
;	COMDAT ??_C@_0HB@FHABJKFG@?$FLCastleSiege?$FN?5CGReqNpcBuy?$CI?$CJ?5ERRO@
CONST	SEGMENT
??_C@_0HB@FHABJKFG@?$FLCastleSiege?$FN?5CGReqNpcBuy?$CI?$CJ?5ERRO@ DB '[C'
	DB	'astleSiege] CGReqNpcBuy() ERROR - CCastleSiege::CheckAddDbNPC'
	DB	'() [%s][%s], Guild:(%s)(%d), Npc:(CLS:%d, IDX:%d)', 00H ; `string'
CONST	ENDS
;	COMDAT ??_C@_0GC@FDJJPEIB@?$FLCastleSiege?$FN?5CGReqNpcBuy?$CI?$CJ?5ERRO@
CONST	SEGMENT
??_C@_0GC@FDJJPEIB@?$FLCastleSiege?$FN?5CGReqNpcBuy?$CI?$CJ?5ERRO@ DB '[C'
	DB	'astleSiege] CGReqNpcBuy() ERROR - Authority Fail [%s][%s], Gu'
	DB	'ild:(%s)(%d), Npc:(CLS:%d, IDX:%d)', 00H	; `string'
CONST	ENDS
;	COMDAT ??_C@_0EC@MMKDCAAJ@?$FLCastleSiege?$FN?5?$FL?$CFs?$FN?$FL?$CFs?$FN?5GiveUp?5Ca@
CONST	SEGMENT
??_C@_0EC@MMKDCAAJ@?$FLCastleSiege?$FN?5?$FL?$CFs?$FN?$FL?$CFs?$FN?5GiveUp?5Ca@ DB '['
	DB	'CastleSiege] [%s][%s] GiveUp Castle Siege (GUILD:%s) - Result'
	DB	':%d', 00H					; `string'
CONST	ENDS
;	COMDAT ??_C@_0EG@CHMKLDIE@?$FLCastleSiege?$FN?5?$FL?$CFs?$FN?$FL?$CFs?$FN?5Registere@
CONST	SEGMENT
??_C@_0EG@CHMKLDIE@?$FLCastleSiege?$FN?5?$FL?$CFs?$FN?$FL?$CFs?$FN?5Registere@ DB '['
	DB	'CastleSiege] [%s][%s] Registered Castle Siege (GUILD:%s) - Re'
	DB	'sult:%d', 00H				; `string'
CONST	ENDS
;	COMDAT ??_C@_0EA@IPNBBDAL@?$FLMapServerMng?$FN?5Packet?5Error?5JG?5?$FL@
CONST	SEGMENT
??_C@_0EA@IPNBBDAL@?$FLMapServerMng?$FN?5Packet?5Error?5JG?5?$FL@ DB '[Ma'
	DB	'pServerMng] Packet Error JG [0x7B] - Index out of bound : %d', 00H ; `string'
CONST	ENDS
;	COMDAT ??_C@_0DD@OALOABGE@?$FLMapServerMng?$FN?5Map?5Server?5Join?5S@
CONST	SEGMENT
??_C@_0DD@OALOABGE@?$FLMapServerMng?$FN?5Map?5Server?5Join?5S@ DB '[MapSe'
	DB	'rverMng] Map Server Join Send : [%s][%s](%d)', 00H ; `string'
CONST	ENDS
;	COMDAT ??_C@_0BF@IFHLAKIO@?$KB?Y?5Terminated?5Guild?4?$AA@
CONST	SEGMENT
??_C@_0BF@IFHLAKIO@?$KB?Y?5Terminated?5Guild?4?$AA@ DB 0a1H, 0d9H, ' Term'
	DB	'inated Guild.', 00H				; `string'
CONST	ENDS
;	COMDAT ??_C@_0BE@PGBMBNEJ@?$KB?Z?5Terminated?5User?4?$AA@
CONST	SEGMENT
??_C@_0BE@PGBMBNEJ@?$KB?Z?5Terminated?5User?4?$AA@ DB 0a1H, 0daH, ' Termi'
	DB	'nated User.', 00H				; `string'
CONST	ENDS
;	COMDAT ??_C@_0DE@DNMHOFNM@?$KB?Z?$KB?Z?$KB?Y?5?$LB?f?$LF?e?5?A?$KE?$LK?$LI?5?C?$KD?$MA?$LL?$LM?v?5?$LO?x?$MA?$LN?4?5?$MA?L@
CONST	SEGMENT
??_C@_0DE@DNMHOFNM@?$KB?Z?$KB?Z?$KB?Y?5?$LB?f?$LF?e?5?A?$KE?$LK?$LI?5?C?$KD?$MA?$LL?$LM?v?5?$LO?x?$MA?$LN?4?5?$MA?L@ DB 0a1H
	DB	0daH, 0a1H, 0daH, 0a1H, 0d9H, ' ', 0b1H, 0e6H, 0b5H, 0e5H, ' ', 0c1H
	DB	0a4H, 0baH, 0b8H, ' ', 0c3H, 0a3H, 0c0H, 0bbH, 0bcH, 0f6H, ' ', 0beH
	DB	0f8H, 0c0H, 0bdH, '. ', 0c0H, 0ccH, 0b8H, 0a7H, ' : [%s] ', 0b9H
	DB	0f8H, 0c8H, 0a3H, ' : %d', 00H		; `string'
CONST	ENDS
;	COMDAT ??_C@_0DI@DBFIHHGF@?$FLPetItem?$FN?5?$FL?$CFs?$FN?$FL?$CFs?$FN?5RequestPetIte@
CONST	SEGMENT
??_C@_0DI@DBFIHHGF@?$FLPetItem?$FN?5?$FL?$CFs?$FN?$FL?$CFs?$FN?5RequestPetIte@ DB '['
	DB	'PetItem] [%s][%s] RequestPetItem Invalid Chaos nPos %d', 00H ; `string'
CONST	ENDS
;	COMDAT ??_C@_0DO@OIKHDOGN@?$FLPetItem?$FN?5?$FL?$CFs?$FN?$FL?$CFs?$FN?5RequestPetIte@
CONST	SEGMENT
??_C@_0DO@OIKHDOGN@?$FLPetItem?$FN?5?$FL?$CFs?$FN?$FL?$CFs?$FN?5RequestPetIte@ DB '['
	DB	'PetItem] [%s][%s] RequestPetItem Invalid TargetTrade nPos %d', 00H ; `string'
CONST	ENDS
;	COMDAT ??_C@_0DI@LFOOFHNO@?$FLPetItem?$FN?5?$FL?$CFs?$FN?$FL?$CFs?$FN?5RequestPetIte@
CONST	SEGMENT
??_C@_0DI@LFOOFHNO@?$FLPetItem?$FN?5?$FL?$CFs?$FN?$FL?$CFs?$FN?5RequestPetIte@ DB '['
	DB	'PetItem] [%s][%s] RequestPetItem Invalid Trade nPos %d', 00H ; `string'
CONST	ENDS
;	COMDAT ??_C@_0DM@BLGKOALL@?$FLPetItem?$FN?5?$FL?$CFs?$FN?$FL?$CFs?$FN?5RequestPetIte@
CONST	SEGMENT
??_C@_0DM@BLGKOALL@?$FLPetItem?$FN?5?$FL?$CFs?$FN?$FL?$CFs?$FN?5RequestPetIte@ DB '['
	DB	'PetItem] [%s][%s] RequestPetItem Invalid WareHouse nPos %d', 00H ; `string'
CONST	ENDS
;	COMDAT ??_C@_0DL@GJNDCDLC@?$FLPetItem?$FN?5?$FL?$CFs?$FN?$FL?$CFs?$FN?5RequestPetIte@
CONST	SEGMENT
??_C@_0DL@GJNDCDLC@?$FLPetItem?$FN?5?$FL?$CFs?$FN?$FL?$CFs?$FN?5RequestPetIte@ DB '['
	DB	'PetItem] [%s][%s] RequestPetItem Invalid Iventory nPos %d', 00H ; `string'
CONST	ENDS
;	COMDAT ??_C@_0BH@LCDOHCGD@error?9L2?5?3?5Index?5?$CFs?5?$CFd?$AA@
CONST	SEGMENT
??_C@_0BH@LCDOHCGD@error?9L2?5?3?5Index?5?$CFs?5?$CFd?$AA@ DB 'error-L2 :'
	DB	' Index %s %d', 00H				; `string'
CONST	ENDS
;	COMDAT ??_C@_0CE@OCKCINJI@?$FLDuel?$FN?5?$FL?$CFs?$FN?$FL?$CFs?$FN?5Duel?5Ended?5?$FL?$CFs?$FN?$FL@
CONST	SEGMENT
??_C@_0CE@OCKCINJI@?$FLDuel?$FN?5?$FL?$CFs?$FN?$FL?$CFs?$FN?5Duel?5Ended?5?$FL?$CFs?$FN?$FL@ DB '['
	DB	'Duel] [%s][%s] Duel Ended [%s][%s]', 00H	; `string'
CONST	ENDS
;	COMDAT ??_C@_0DE@MJGAINFG@?$FLDuel?$FN?5?$FL?$CFs?$FN?$FL?$CFs?$FN?5Requested?5to?5Sta@
CONST	SEGMENT
??_C@_0DE@MJGAINFG@?$FLDuel?$FN?5?$FL?$CFs?$FN?$FL?$CFs?$FN?5Requested?5to?5Sta@ DB '['
	DB	'Duel] [%s][%s] Requested to Start Duel to [%s][%s]', 00H ; `string'
CONST	ENDS
;	COMDAT ??_C@_0DB@HNLHIMNJ@?$FLCharTrasfer?$FN?5Request?5Character?5@
CONST	SEGMENT
??_C@_0DB@HNLHIMNJ@?$FLCharTrasfer?$FN?5Request?5Character?5@ DB '[CharTr'
	DB	'asfer] Request Character Trasfer [%s][%s]', 00H ; `string'
CONST	ENDS
;	COMDAT ??_C@_0DI@PPPCGFPL@?$LJ?$KO?A?$KG?5?$LJ?$NP?$LL?$PN?$LN?C?5change?$EAwebzen?4co?4kr?$LH@
CONST	SEGMENT
??_C@_0DI@PPPCGFPL@?$LJ?$KO?A?$KG?5?$LJ?$NP?$LL?$PN?$LN?C?5change?$EAwebzen?4co?4kr?$LH@ DB 0b9H
	DB	0aeH, 0c1H, 0a6H, ' ', 0b9H, 0dfH, 0bbH, 0fdH, 0bdH, 0c3H, ' c'
	DB	'hange@webzen.co.kr', 0b7H, 0ceH, ' ', 0b9H, 0aeH, 0c0H, 0c7H, 0c7H
	DB	0d8H, ' ', 0c1H, 0d6H, 0bdH, 0c3H, 0b1H, 0e2H, 0b9H, 0d9H, 0b6H
	DB	0f8H, 0b4H, 0cfH, 0b4H, 0d9H, 00H		; `string'
CONST	ENDS
;	COMDAT ??_C@_0CL@NFPFJCOO@?$FLCharTrasfer?$FN?5Fail?5?$CIJoominNumber@
CONST	SEGMENT
??_C@_0CL@NFPFJCOO@?$FLCharTrasfer?$FN?5Fail?5?$CIJoominNumber@ DB '[Char'
	DB	'Trasfer] Fail (JoominNumber) [%s][%s]', 00H	; `string'
CONST	ENDS
;	COMDAT ??_C@_0EC@MLMNLDLI@?$FLMu_2Anv_Event?$FN?5?$FL?$CFs?$FN?$FL?$CFs?$FN?5Registe@
CONST	SEGMENT
??_C@_0EC@MLMNLDLI@?$FLMu_2Anv_Event?$FN?5?$FL?$CFs?$FN?$FL?$CFs?$FN?5Registe@ DB '['
	DB	'Mu_2Anv_Event] [%s][%s] Register Lotto Number (Serial: %s-%s-'
	DB	'%s)', 00H					; `string'
CONST	ENDS
;	COMDAT ??_C@_0FK@NPJPMFON@?$FLChaos?5Castle?$FN?5?$CI?$CFd?$CJ?5?$CIAccount?3?$CFs?0@
CONST	SEGMENT
??_C@_0FK@NPJPMFON@?$FLChaos?5Castle?$FN?5?$CI?$CFd?$CJ?5?$CIAccount?3?$CFs?0@ DB '['
	DB	'Chaos Castle] (%d) (Account:%s, Name:%s) Entered Chaos Castle'
	DB	' (Guard Mail Set Serial:%d)', 00H		; `string'
CONST	ENDS
;	COMDAT ??_C@_0FL@KOIEBFHD@?$FLBlood?5Castle?$FN?5?$CI?$CFd?$CJ?5?$CIAccount?3?$CFs?0@
CONST	SEGMENT
??_C@_0FL@KOIEBFHD@?$FLBlood?5Castle?$FN?5?$CI?$CFd?$CJ?5?$CIAccount?3?$CFs?0@ DB '['
	DB	'Blood Castle] (%d) (Account:%s, Name:%s) Entered Blood Castle'
	DB	' (Invisible Cloak Serial:%d)', 00H		; `string'
CONST	ENDS
;	COMDAT ??_C@_0CJ@OIKODDDO@?$FLEventChip?$FN?5?$FL?$CFs?$FN?$FL?$CFs?$FN?5Request?5Cha@
CONST	SEGMENT
??_C@_0CJ@OIKODDDO@?$FLEventChip?$FN?5?$FL?$CFs?$FN?$FL?$CFs?$FN?5Request?5Cha@ DB '['
	DB	'EventChip] [%s][%s] Request Change Rena', 00H ; `string'
CONST	ENDS
;	COMDAT ??_C@_0CL@LPOFFCFH@?$FLEventChip?$FN?5?$FL?$CFs?$FN?$FL?$CFs?$FN?5Request?5Cha@
CONST	SEGMENT
??_C@_0CL@LPOFFCFH@?$FLEventChip?$FN?5?$FL?$CFs?$FN?$FL?$CFs?$FN?5Request?5Cha@ DB '['
	DB	'EventChip] [%s][%s] Request Change Stones', 00H ; `string'
CONST	ENDS
;	COMDAT ??_C@_0CI@GJEFDNKH@?$FLEventChip?$FN?5?$FL?$CFs?$FN?$FL?$CFs?$FN?5Request?5Mut@
CONST	SEGMENT
??_C@_0CI@GJEFDNKH@?$FLEventChip?$FN?5?$FL?$CFs?$FN?$FL?$CFs?$FN?5Request?5Mut@ DB '['
	DB	'EventChip] [%s][%s] Request MutoNumber', 00H ; `string'
CONST	ENDS
;	COMDAT ??_C@_0BO@DNEDNODE@?$MA?L?$LJ?L?5?$LH?g?$LA?$KB?$LF?e?$MA?G?5?$LM?$PN?$MA?Z?$LA?$KB?5?$MA?V?$LN?$MA?$LE?O?$LE?Y?$AA@
CONST	SEGMENT
??_C@_0BO@DNEDNODE@?$MA?L?$LJ?L?5?$LH?g?$LA?$KB?$LF?e?$MA?G?5?$LM?$PN?$MA?Z?$LA?$KB?5?$MA?V?$LN?$MA?$LE?O?$LE?Y?$AA@ DB 0c0H
	DB	0ccH, 0b9H, 0ccH, ' ', 0b7H, 0e7H, 0b0H, 0a1H, 0b5H, 0e5H, 0c0H
	DB	0c7H, ' ', 0bcH, 0fdH, 0c0H, 0daH, 0b0H, 0a1H, ' ', 0c0H, 0d6H
	DB	0bdH, 0c0H, 0b4H, 0cfH, 0b4H, 0d9H, 00H	; `string'
CONST	ENDS
;	COMDAT ??_C@_0BM@JDNCDNDO@You?5lack?5items?5to?5exchange?$CB?$AA@
CONST	SEGMENT
??_C@_0BM@JDNCDNDO@You?5lack?5items?5to?5exchange?$CB?$AA@ DB 'You lack i'
	DB	'tems to exchange!', 00H			; `string'
CONST	ENDS
;	COMDAT ??_C@_0DO@NOPBMIHD@?$FLEventChip?$FN?5?$FL?$CFs?$FN?$FL?$CFs?$FN?5Not?5Found?5E@
CONST	SEGMENT
??_C@_0DO@NOPBMIHD@?$FLEventChip?$FN?5?$FL?$CFs?$FN?$FL?$CFs?$FN?5Not?5Found?5E@ DB '['
	DB	'EventChip] [%s][%s] Not Found EventChip (RegEventchip) #2 %d', 00H ; `string'
CONST	ENDS
;	COMDAT ??_C@_0DO@JJFBLCKD@?$FLEventChip?$FN?5?$FL?$CFs?$FN?$FL?$CFs?$FN?5Not?5Found?5E@
CONST	SEGMENT
??_C@_0DO@JJFBLCKD@?$FLEventChip?$FN?5?$FL?$CFs?$FN?$FL?$CFs?$FN?5Not?5Found?5E@ DB '['
	DB	'EventChip] [%s][%s] Not Found EventChip (RegEventchip) #1 %d', 00H ; `string'
CONST	ENDS
;	COMDAT ??_C@_0DO@JBAPFEJ@?$FLEventChip?$FN?5?$FL?$CFs?$FN?$FL?$CFs?$FN?5Attempted?5I@
CONST	SEGMENT
??_C@_0DO@JBAPFEJ@?$FLEventChip?$FN?5?$FL?$CFs?$FN?$FL?$CFs?$FN?5Attempted?5I@ DB '['
	DB	'EventChip] [%s][%s] Attempted ItemCopy using ChaosBox Window', 00H ; `string'
CONST	ENDS
;	COMDAT ??_C@_0DL@CMJKPIPK@?$FLEventChip?$FN?5?$FL?$CFs?$FN?$FL?$CFs?$FN?5Attempted?5I@
CONST	SEGMENT
??_C@_0DL@CMJKPIPK@?$FLEventChip?$FN?5?$FL?$CFs?$FN?$FL?$CFs?$FN?5Attempted?5I@ DB '['
	DB	'EventChip] [%s][%s] Attempted ItemCopy using Trade Window', 00H ; `string'
CONST	ENDS
;	COMDAT ??_C@_0DI@MOALMGDC@?$FLPK?5User?$FN?$FLBloodCastle?$FN?5?$FL?$CFs?$FN?$FL?$CFs?$FN?5@
CONST	SEGMENT
??_C@_0DI@MOALMGDC@?$FLPK?5User?$FN?$FLBloodCastle?$FN?5?$FL?$CFs?$FN?$FL?$CFs?$FN?5@ DB '['
	DB	'PK User][BloodCastle] [%s][%s] Move Fail [PK Level:%d]', 00H ; `string'
CONST	ENDS
;	COMDAT ??_C@_0DI@DOLGONFI@?$FLPK?5User?$FN?$FLDevilSquare?$FN?5?$FL?$CFs?$FN?$FL?$CFs?$FN?5@
CONST	SEGMENT
??_C@_0DI@DOLGONFI@?$FLPK?5User?$FN?$FLDevilSquare?$FN?5?$FL?$CFs?$FN?$FL?$CFs?$FN?5@ DB '['
	DB	'PK User][DevilSquare] [%s][%s] Move Fail [PK Level:%d]', 00H ; `string'
CONST	ENDS
;	COMDAT ??_C@_0FE@INNDGJO@?$FLDevilSquare?$FN?5?$FL?$CFs?$FN?$FL?$CFs?$FN?5Move?5Devi@
CONST	SEGMENT
??_C@_0FE@INNDGJO@?$FLDevilSquare?$FN?5?$FL?$CFs?$FN?$FL?$CFs?$FN?5Move?5Devi@ DB '['
	DB	'DevilSquare] [%s][%s] Move DevilSquare success [%d][%d] Remov'
	DB	'eItem[%s][%d][%d][%d]', 00H			; `string'
CONST	ENDS
;	COMDAT ??_C@_0DO@GMGNNGG@?$FLDevilSquare?$FN?5?$FL?$CFs?$FN?$FL?$CFs?$FN?5Move?5Devi@
CONST	SEGMENT
??_C@_0DO@GMGNNGG@?$FLDevilSquare?$FN?5?$FL?$CFs?$FN?$FL?$CFs?$FN?5Move?5Devi@ DB '['
	DB	'DevilSquare] [%s][%s] Move DevilSquare Fail [%d][%d][%d][%d]', 00H ; `string'
CONST	ENDS
;	COMDAT ??_C@_0DE@NILIJDCN@?$FLDevilSquare?$FN?5?$FL?$CFs?$FN?$FL?$CFs?$FN?5GetUserLe@
CONST	SEGMENT
??_C@_0DE@NILIJDCN@?$FLDevilSquare?$FN?5?$FL?$CFs?$FN?$FL?$CFs?$FN?5GetUserLe@ DB '['
	DB	'DevilSquare] [%s][%s] GetUserLevelToEnter() failed', 00H ; `string'
CONST	ENDS
;	COMDAT ??_C@_0EP@OANDGE@?$FLDevilSquare?$FN?5?$FL?$CFs?$FN?$FL?$CFs?$FN?5Move?5Devi@
CONST	SEGMENT
??_C@_0EP@OANDGE@?$FLDevilSquare?$FN?5?$FL?$CFs?$FN?$FL?$CFs?$FN?5Move?5Devi@ DB '['
	DB	'DevilSquare] [%s][%s] Move DevilSquare Invitation LevelError '
	DB	'[%d][%d][%d][%d]', 00H			; `string'
CONST	ENDS
;	COMDAT ??_C@_0DK@HAACDBFD@?$FLDevilSquare?$FN?5?$FL?$CFs?$FN?$FL?$CFs?$FN?5Move?5Devi@
CONST	SEGMENT
??_C@_0DK@HAACDBFD@?$FLDevilSquare?$FN?5?$FL?$CFs?$FN?$FL?$CFs?$FN?5Move?5Devi@ DB '['
	DB	'DevilSquare] [%s][%s] Move DevilSquare Fail [%d][%d][%d]', 00H ; `string'
CONST	ENDS
;	COMDAT ??_C@_0DN@EDDIPEJF@?$FLDevilSquare?$FN?5?$FL?$CFs?$FN?$FL?$CFs?$FN?5Request?5M@
CONST	SEGMENT
??_C@_0DN@EDDIPEJF@?$FLDevilSquare?$FN?5?$FL?$CFs?$FN?$FL?$CFs?$FN?5Request?5M@ DB '['
	DB	'DevilSquare] [%s][%s] Request Move DevilSquare [%d][%d][%d]', 00H ; `string'
CONST	ENDS
;	COMDAT ??_C@_0N@GGPGOPEN@return?5?$CFs?5?$CFd?$AA@
CONST	SEGMENT
??_C@_0N@GGPGOPEN@return?5?$CFs?5?$CFd?$AA@ DB 'return %s %d', 00H ; `string'
CONST	ENDS
;	COMDAT ??_C@_0BK@CHOMIMBC@GCManaSend?$CI?$CJ?5return?5?$CFs?5?$CFd?$AA@
CONST	SEGMENT
??_C@_0BK@CHOMIMBC@GCManaSend?$CI?$CJ?5return?5?$CFs?5?$CFd?$AA@ DB 'GCMa'
	DB	'naSend() return %s %d', 00H			; `string'
CONST	ENDS
;	COMDAT ??_C@_0BO@FLPOFOKL@error?9L3?5?3?5?$CFs?5return?5?$CFs?5?$CFd?5?$CFd?$AA@
CONST	SEGMENT
??_C@_0BO@FLPOFOKL@error?9L3?5?3?5?$CFs?5return?5?$CFs?5?$CFd?5?$CFd?$AA@ DB 'e'
	DB	'rror-L3 : %s return %s %d %d', 00H		; `string'
CONST	ENDS
;	COMDAT ??_C@_0CB@DBLGBMBL@error?9L3?5?3?5?$CFs?5return?5?$CFs?5?$CFd?5?$CFd?5?$CFs@
CONST	SEGMENT
??_C@_0CB@DBLGBMBL@error?9L3?5?3?5?$CFs?5return?5?$CFs?5?$CFd?5?$CFd?5?$CFs@ DB 'e'
	DB	'rror-L3 : %s return %s %d %d %s', 00H	; `string'
CONST	ENDS
;	COMDAT ??_C@_0CJ@HAOMGPEH@?$FL?$CFs?$FN?5?$FL?$CFs?$FN?5?$FLMasterLevelSkill?5Rese@
CONST	SEGMENT
??_C@_0CJ@HAOMGPEH@?$FL?$CFs?$FN?5?$FL?$CFs?$FN?5?$FLMasterLevelSkill?5Rese@ DB '['
	DB	'%s] [%s] [MasterLevelSkill Reset] - All', 00H ; `string'
CONST	ENDS
;	COMDAT ??_C@_0EB@LLBOIAD@?$FL?$CFs?$FN?5?$FL?$CFs?$FN?5?$FLMasterLevelSkill?5Rese@
CONST	SEGMENT
??_C@_0EB@LLBOIAD@?$FL?$CFs?$FN?5?$FL?$CFs?$FN?5?$FLMasterLevelSkill?5Rese@ DB '['
	DB	'%s] [%s] [MasterLevelSkill Reset] - Enhance Attack/Defense (%'
	DB	'd)', 00H					; `string'
CONST	ENDS
;	COMDAT ??_C@_0DG@CEAHPFGG@?$FL?$CFs?$FN?5?$FL?$CFs?$FN?5?$FLMasterLevelSkill?5Rese@
CONST	SEGMENT
??_C@_0DG@CEAHPFGG@?$FL?$CFs?$FN?5?$FL?$CFs?$FN?5?$FLMasterLevelSkill?5Rese@ DB '['
	DB	'%s] [%s] [MasterLevelSkill Reset] - Strengthen Skill', 00H ; `string'
CONST	ENDS
;	COMDAT ??_C@_0BI@IGJGPHCH@Master?5Skill?5Reset?5Fail?$AA@
CONST	SEGMENT
??_C@_0BI@IGJGPHCH@Master?5Skill?5Reset?5Fail?$AA@ DB 'Master Skill Reset'
	DB	' Fail', 00H					; `string'
CONST	ENDS
;	COMDAT ??_C@_0CN@HEGKGIOI@?$FL?$CFs?$FN?5?$FL?$CFs?$FN?5?$FLMasterLevelSkill?5Rese@
CONST	SEGMENT
??_C@_0CN@HEGKGIOI@?$FL?$CFs?$FN?5?$FL?$CFs?$FN?5?$FLMasterLevelSkill?5Rese@ DB '['
	DB	'%s] [%s] [MasterLevelSkill Reset] - Passive', 00H ; `string'
CONST	ENDS
;	COMDAT ??_C@_0EM@IOOAJBNM@?$FLUsing?5Item?$FN?5?$FLCharm?5of?5Move?5?9?5Sa@
CONST	SEGMENT
??_C@_0EM@IOOAJBNM@?$FLUsing?5Item?$FN?5?$FLCharm?5of?5Move?5?9?5Sa@ DB '['
	DB	'Using Item] [Charm of Move - SavePosition] [%s][%s] Map:[%d] '
	DB	'X:[%d] Y:[%d]', 00H				; `string'
CONST	ENDS
;	COMDAT ??_C@_0CG@HCHOOMNP@?$FLUsing?5Item?$FN?5?$FLCharm?5of?5Move?$FN?5?$FL?$CFs@
CONST	SEGMENT
??_C@_0CG@HCHOOMNP@?$FLUsing?5Item?$FN?5?$FLCharm?5of?5Move?$FN?5?$FL?$CFs@ DB '['
	DB	'Using Item] [Charm of Move] [%s][%s]', 00H	; `string'
CONST	ENDS
;	COMDAT ??_C@_0EL@CDNJHAJK@?$FLUsing?5Item?$FN?5?$FLCharm?5of?5Raise?$FN?5?$FL?$CF@
CONST	SEGMENT
??_C@_0EL@CDNJHAJK@?$FLUsing?5Item?$FN?5?$FLCharm?5of?5Raise?$FN?5?$FL?$CF@ DB '['
	DB	'Using Item] [Charm of Raise] [%s][%s] Die Position Map:[%d] X'
	DB	':[%d] Y:[%d]', 00H				; `string'
CONST	ENDS
;	COMDAT ??_C@_0CE@DKNGJAAK@?$FLPCS?$FN?5Use?5Free?5Kalima?5Ticket?5Fai@
CONST	SEGMENT
??_C@_0CE@DKNGJAAK@?$FLPCS?$FN?5Use?5Free?5Kalima?5Ticket?5Fai@ DB '[PCS]'
	DB	' Use Free Kalima Ticket Failed', 00H	; `string'
CONST	ENDS
;	COMDAT ??_C@_0CF@HJJFJDGL@?$FLPCS?$FN?5Use?5Free?5Kalima?5Ticket?5Suc@
CONST	SEGMENT
??_C@_0CF@HJJFJDGL@?$FLPCS?$FN?5Use?5Free?5Kalima?5Ticket?5Suc@ DB '[PCS]'
	DB	' Use Free Kalima Ticket Success', 00H	; `string'
CONST	ENDS
;	COMDAT ??_C@_0EI@HHBGCCMK@?$FLCastleSiege?$FN?5Using?5CastleSiege?5@
CONST	SEGMENT
??_C@_0EI@HHBGCCMK@?$FLCastleSiege?$FN?5Using?5CastleSiege?5@ DB '[Castle'
	DB	'Siege] Using CastleSiege Potion Lv[%d]/Si[%d]/Dur[%d] - [%s]['
	DB	'%s]', 00H					; `string'
CONST	ENDS
;	COMDAT ??_C@_0FH@OKKOPLEO@?$FLCastleSiege?$FN?5Using?5CastleSiege?5@
CONST	SEGMENT
??_C@_0FH@OKKOPLEO@?$FLCastleSiege?$FN?5Using?5CastleSiege?5@ DB '[Castle'
	DB	'Siege] Using CastleSiege Potion Lv[%d]/Si[%d]/Dur[%d] - [%s]['
	DB	'%s] - (Guild : %s)', 00H			; `string'
CONST	ENDS
;	COMDAT ??_C@_0DJ@OLFFBGBF@?$FLUsing?5Item?$FN?5?$FLReturn?5Scroll?$FN?5?$FL?$CFs@
CONST	SEGMENT
??_C@_0DJ@OLFFBGBF@?$FLUsing?5Item?$FN?5?$FLReturn?5Scroll?$FN?5?$FL?$CFs@ DB '['
	DB	'Using Item] [Return Scroll] [%s][%s] - Current Map:[%d]', 00H ; `string'
CONST	ENDS
;	COMDAT ??_C@_0EB@GOPDLALC@?$FL?$CFs?$FN?$FL?$CFs?$FNUse?5Compound?5Potion?5Lv3?5@
CONST	SEGMENT
??_C@_0EB@GOPDLALC@?$FL?$CFs?$FN?$FL?$CFs?$FNUse?5Compound?5Potion?5Lv3?5@ DB '['
	DB	'%s][%s]Use Compound Potion Lv3 - SD[%d] HP[%f] -> SD[%d] HP[%'
	DB	'f]', 00H					; `string'
CONST	ENDS
;	COMDAT ??_C@_0EB@KBGNKHHK@?$FL?$CFs?$FN?$FL?$CFs?$FNUse?5Compound?5Potion?5Lv2?5@
CONST	SEGMENT
??_C@_0EB@KBGNKHHK@?$FL?$CFs?$FN?$FL?$CFs?$FNUse?5Compound?5Potion?5Lv2?5@ DB '['
	DB	'%s][%s]Use Compound Potion Lv2 - SD[%d] HP[%f] -> SD[%d] HP[%'
	DB	'f]', 00H					; `string'
CONST	ENDS
;	COMDAT ??_C@_0EB@CKLOJJGD@?$FL?$CFs?$FN?$FL?$CFs?$FNUse?5Compound?5Potion?5Lv1?5@
CONST	SEGMENT
??_C@_0EB@CKLOJJGD@?$FL?$CFs?$FN?$FL?$CFs?$FNUse?5Compound?5Potion?5Lv1?5@ DB '['
	DB	'%s][%s]Use Compound Potion Lv1 - SD[%d] HP[%f] -> SD[%d] HP[%'
	DB	'f]', 00H					; `string'
CONST	ENDS
;	COMDAT ??_C@_0DP@BFNIJADP@?$FLANTI?9HACK?$FN?$FLSerial?50?5Item?$FN?5?$FLUseI@
CONST	SEGMENT
??_C@_0DP@BFNIJADP@?$FLANTI?9HACK?$FN?$FLSerial?50?5Item?$FN?5?$FLUseI@ DB '['
	DB	'ANTI-HACK][Serial 0 Item] [UseItem] (%s)(%s) Item(%s) Pos(%d)'
	DB	00H						; `string'
CONST	ENDS
;	COMDAT ??_C@_0DF@KEJKEDMK@error?9L1?5?3?5?$FL?$CFs?$FN?$FL?$CFs?$FN?5CGUseItemRec@
CONST	SEGMENT
??_C@_0DF@KEJKEDMK@error?9L1?5?3?5?$FL?$CFs?$FN?$FL?$CFs?$FN?5CGUseItemRec@ DB 'e'
	DB	'rror-L1 : [%s][%s] CGUseItemRecv()_Pos return %s %d', 00H ; `string'
CONST	ENDS
;	COMDAT ??_C@_0DA@FOMIHIHO@?$FL?$CFs?$FN?$FL?$CFs?$FN?5CGUseItemRecv?$CI?$CJ_Invento@
CONST	SEGMENT
??_C@_0DA@FOMIHIHO@?$FL?$CFs?$FN?$FL?$CFs?$FN?5CGUseItemRecv?$CI?$CJ_Invento@ DB '['
	DB	'%s][%s] CGUseItemRecv()_Inventory return %s %d', 00H ; `string'
CONST	ENDS
;	COMDAT ??_C@_0EB@BNHHPHMK@?$FL?$CFs?$FN?$FL?$CFs?$FN?5CGUseItemRecv?$CI?$CJ?5Failed?5@
CONST	SEGMENT
??_C@_0EB@BNHHPHMK@?$FL?$CFs?$FN?$FL?$CFs?$FN?5CGUseItemRecv?$CI?$CJ?5Failed?5@ DB '['
	DB	'%s][%s] CGUseItemRecv() Failed : Transaction == 1, IF_TYPE : '
	DB	'%d', 00H					; `string'
CONST	ENDS
;	COMDAT ??_C@_0DA@MJHNJBGE@?$FL?$CFs?$FN?$FL?$CFs?$FN?5CGUseItemRecv?$CI?$CJ_CloseTy@
CONST	SEGMENT
??_C@_0DA@MJHNJBGE@?$FL?$CFs?$FN?$FL?$CFs?$FN?5CGUseItemRecv?$CI?$CJ_CloseTy@ DB '['
	DB	'%s][%s] CGUseItemRecv()_CloseType return %s %d', 00H ; `string'
CONST	ENDS
;	COMDAT ??_C@_0CJ@BOAIHIHD@?$FL?$CFs?$FN?$FL?$CFs?$FN?5CGUseItemRecv?$CI?$CJ_If?5retu@
CONST	SEGMENT
??_C@_0CJ@BOAIHIHD@?$FL?$CFs?$FN?$FL?$CFs?$FN?5CGUseItemRecv?$CI?$CJ_If?5retu@ DB '['
	DB	'%s][%s] CGUseItemRecv()_If return %s %d', 00H ; `string'
CONST	ENDS
;	COMDAT ??_C@_0DB@CEFMOKDJ@?$FL0x1E?$FN?5CGDurationMagicRecv?$CI?$CJ?5?9?5I@
CONST	SEGMENT
??_C@_0DB@CEFMOKDJ@?$FL0x1E?$FN?5CGDurationMagicRecv?$CI?$CJ?5?9?5I@ DB '['
	DB	'0x1E] CGDurationMagicRecv() - Invalid KillCount', 00H ; `string'
CONST	ENDS
;	COMDAT ??_C@_0CO@PPJIEIFO@?$FL0x1E?$FN?5CGDurationMagicRecv?$CI?$CJ?5?9?5I@
CONST	SEGMENT
??_C@_0CO@PPJIEIFO@?$FL0x1E?$FN?5CGDurationMagicRecv?$CI?$CJ?5?9?5I@ DB '['
	DB	'0x1E] CGDurationMagicRecv() - Invalid Status', 00H ; `string'
CONST	ENDS
;	COMDAT ??_C@_0CH@MOHJLJHL@?$FL?$CFs?$FN?$FL?$CFs?$FN?5?$CFs?5Detect?5Hack?5?3?5Multi?5@
CONST	SEGMENT
??_C@_0CH@MOHJLJHL@?$FL?$CFs?$FN?$FL?$CFs?$FN?5?$CFs?5Detect?5Hack?5?3?5Multi?5@ DB '['
	DB	'%s][%s] %s Detect Hack : Multi Attack', 00H	; `string'
CONST	ENDS
;	COMDAT ??_C@_0DJ@COJBHLGO@?$KB?Z?$KB?Z?$KB?Z?$KB?Z?5InValid?5VailidCount?5?$DN?5?$CF@
CONST	SEGMENT
??_C@_0DJ@COJBHLGO@?$KB?Z?$KB?Z?$KB?Z?$KB?Z?5InValid?5VailidCount?5?$DN?5?$CF@ DB 0a1H
	DB	0daH, 0a1H, 0daH, 0a1H, 0daH, 0a1H, 0daH, ' InValid VailidCoun'
	DB	't = %d ( Count : %d) [%s][%s]', 00H		; `string'
CONST	ENDS
;	COMDAT ??_C@_0DN@PFIDPOLC@?$KB?Z?$KB?Z?$KB?Z?$KB?Z?5InValid?5DurationTime?5Ke@
CONST	SEGMENT
??_C@_0DN@PFIDPOLC@?$KB?Z?$KB?Z?$KB?Z?$KB?Z?5InValid?5DurationTime?5Ke@ DB 0a1H
	DB	0daH, 0a1H, 0daH, 0a1H, 0daH, 0a1H, 0daH, ' InValid DurationTi'
	DB	'me Key = %d ( Time : %d) [%s][%s]', 00H	; `string'
CONST	ENDS
;	COMDAT ??_C@_0DB@JJPLIMIC@?$FL?$CFs?$FN?$FL?$CFs?$FN?5?$CFs?5Apply?5Attack?5Speed?5P@
CONST	SEGMENT
??_C@_0DB@JJPLIMIC@?$FL?$CFs?$FN?$FL?$CFs?$FN?5?$CFs?5Apply?5Attack?5Speed?5P@ DB '['
	DB	'%s][%s] %s Apply Attack Speed Penalty (%d left)', 00H ; `string'
CONST	ENDS
;	COMDAT ??_C@_0DN@IEDPAONG@?$FL?$CFs?$FN?$FL?$CFs?$FN?5?$CFs?5Attack?5Speed?5Is?5Wron@
CONST	SEGMENT
??_C@_0DN@IEDPAONG@?$FL?$CFs?$FN?$FL?$CFs?$FN?5?$CFs?5Attack?5Speed?5Is?5Wron@ DB '['
	DB	'%s][%s] %s Attack Speed Is Wrong Magic3 (%d)(%d) Penalty %d', 00H ; `string'
CONST	ENDS
;	COMDAT ??_C@_0DE@ENPGLNLL@?$FL?$CFs?$FN?$FL?$CFs?$FN?5?$CFs?5Kick?5DetecHackCountL@
CONST	SEGMENT
??_C@_0DE@ENPGLNLL@?$FL?$CFs?$FN?$FL?$CFs?$FN?5?$CFs?5Kick?5DetecHackCountL@ DB '['
	DB	'%s][%s] %s Kick DetecHackCountLimit Over User (%d)', 00H ; `string'
CONST	ENDS
;	COMDAT ??_C@_0DM@BJOBFIFA@Too?5long?5time?5passed?5after?5casti@
CONST	SEGMENT
??_C@_0DM@BJOBFIFA@Too?5long?5time?5passed?5after?5casti@ DB 'Too long ti'
	DB	'me passed after casting magic. [%s][%s] (%d)(%d)', 00H ; `string'
CONST	ENDS
;	COMDAT ??_C@_0P@EEHIDPGB@error?9L3?5?$CFs?5?$CFd?$AA@
CONST	SEGMENT
??_C@_0P@EEHIDPGB@error?9L3?5?$CFs?5?$CFd?$AA@ DB 'error-L3 %s %d', 00H ; `string'
CONST	ENDS
;	COMDAT ??_C@_0DD@FGHCMCNO@?$FL?$CFs?$FN?$FL?$CFs?$FN?5Try?5Target?5Teleport?5Not@
CONST	SEGMENT
??_C@_0DD@FGHCMCNO@?$FL?$CFs?$FN?$FL?$CFs?$FN?5Try?5Target?5Teleport?5Not@ DB '['
	DB	'%s][%s] Try Target Teleport Not Move Area [%d,%d]', 00H ; `string'
CONST	ENDS
;	COMDAT ??_C@_0CM@PIOKLDC@?$FL?$CFs?$FN?$FL?$CFs?$FN?5Try?5Teleport?5Not?5Move?5A@
CONST	SEGMENT
??_C@_0CM@PIOKLDC@?$FL?$CFs?$FN?$FL?$CFs?$FN?5Try?5Teleport?5Not?5Move?5A@ DB '['
	DB	'%s][%s] Try Teleport Not Move Area [%d,%d]', 00H ; `string'
CONST	ENDS
;	COMDAT ??_C@_0EI@OFFDPBJO@?$FLSKILL?5DISTANCE?5CHECK?$FN?5?$FL?$CFs?$FN?$FL?$CFs?$FN?5@
CONST	SEGMENT
??_C@_0EI@OFFDPBJO@?$FLSKILL?5DISTANCE?5CHECK?$FN?5?$FL?$CFs?$FN?$FL?$CFs?$FN?5@ DB '['
	DB	'SKILL DISTANCE CHECK] [%s][%s] Kick Invalid Skill Area User. '
	DB	'count(%d)', 00H				; `string'
CONST	ENDS
;	COMDAT ??_C@_0CL@DNLLEKGJ@?$FL0x19?$FN?5CGMagicAttack?$CI?$CJ?5?9?5Invalid@
CONST	SEGMENT
??_C@_0CL@DNLLEKGJ@?$FL0x19?$FN?5CGMagicAttack?$CI?$CJ?5?9?5Invalid@ DB '['
	DB	'0x19] CGMagicAttack() - Invalid KillCount', 00H ; `string'
CONST	ENDS
;	COMDAT ??_C@_0CI@GEFMIMGG@?$FL0x19?$FN?5CGMagicAttack?$CI?$CJ?5?9?5Invalid@
CONST	SEGMENT
??_C@_0CI@GEFMIMGG@?$FL0x19?$FN?5CGMagicAttack?$CI?$CJ?5?9?5Invalid@ DB '['
	DB	'0x19] CGMagicAttack() - Invalid Status', 00H ; `string'
CONST	ENDS
;	COMDAT ??_C@_0EM@CEMNDEFL@?$FL?$CFs?$FN?$FL?$CFs?$FN?5Try?5Attack?5In?5Not?5Attac@
CONST	SEGMENT
??_C@_0EM@CEMNDEFL@?$FL?$CFs?$FN?$FL?$CFs?$FN?5Try?5Attack?5In?5Not?5Attac@ DB '['
	DB	'%s][%s] Try Attack In Not Attack Area [Protocol] (%s:%d,%d) e'
	DB	'rrortype = %d', 00H				; `string'
CONST	ENDS
;	COMDAT ??_C@_0BA@GMMKNNFF@error?5?3?$CFs?5?$CFd?5?$CFd?$AA@
CONST	SEGMENT
??_C@_0BA@GMMKNNFF@error?5?3?$CFs?5?$CFd?5?$CFd?$AA@ DB 'error :%s %d %d', 00H ; `string'
CONST	ENDS
;	COMDAT ??_C@_0DF@LECGNCFD@?$FL?$CFs?$FN?$FL?$CFs?$FN?5?$CFs?5Apply?5Attack?5Speed?5P@
CONST	SEGMENT
??_C@_0DF@LECGNCFD@?$FL?$CFs?$FN?$FL?$CFs?$FN?5?$CFs?5Apply?5Attack?5Speed?5P@ DB '['
	DB	'%s][%s] %s Apply Attack Speed Penalty (%d left) @%d', 00H ; `string'
CONST	ENDS
;	COMDAT ??_C@_0EB@PGHIAIFO@?$FL?$CFs?$FN?$FL?$CFs?$FN?5?$CFs?5Attack?5Speed?5Is?5Wron@
CONST	SEGMENT
??_C@_0EB@PGHIAIFO@?$FL?$CFs?$FN?$FL?$CFs?$FN?5?$CFs?5Attack?5Speed?5Is?5Wron@ DB '['
	DB	'%s][%s] %s Attack Speed Is Wrong Normal (%d)(%d) Penalty %d @'
	DB	'%d', 00H					; `string'
CONST	ENDS
;	COMDAT ??_C@_0DI@CILMICFP@?$FL?$CFs?$FN?$FL?$CFs?$FN?5?$CFs?5Kick?5DetecHackCountL@
CONST	SEGMENT
??_C@_0DI@CILMICFP@?$FL?$CFs?$FN?$FL?$CFs?$FN?5?$CFs?5Kick?5DetecHackCountL@ DB '['
	DB	'%s][%s] %s Kick DetecHackCountLimit Over User (%d) @%d', 00H ; `string'
CONST	ENDS
;	COMDAT ??_C@_0CH@PODPFEHM@?$FLCGAttack?$FN?5?$FLUserIndex?5Error?$FN?5?3?$CFs@
CONST	SEGMENT
??_C@_0CH@PODPFEHM@?$FLCGAttack?$FN?5?$FLUserIndex?5Error?$FN?5?3?$CFs@ DB '['
	DB	'CGAttack] [UserIndex Error] :%s %d %d', 00H	; `string'
CONST	ENDS
;	COMDAT ??_C@_0CI@HDJHDEIB@error?5?3?5move?5protocol?5index?5erro@
CONST	SEGMENT
??_C@_0CI@HDJHDEIB@error?5?3?5move?5protocol?5index?5erro@ DB 'error : mo'
	DB	've protocol index error %s %d', 00H		; `string'
CONST	ENDS
;	COMDAT ??_C@_0CL@FPLHDOJG@error?9L3?5?3?5Path?5Count?5error?5?$CFd?5i@
CONST	SEGMENT
??_C@_0CL@FPLHDOJG@error?9L3?5?3?5Path?5Count?5error?5?$CFd?5i@ DB 'error'
	DB	'-L3 : Path Count error %d id:%s %s %d', 00H	; `string'
CONST	ENDS
;	COMDAT ??_C@_0CL@HEMFEGBB@error?9L3?5?3?5move?5protocol?5index?5e@
CONST	SEGMENT
??_C@_0CL@HEMFEGBB@error?9L3?5?3?5move?5protocol?5index?5e@ DB 'error-L3 '
	DB	': move protocol index error %s %d', 00H	; `string'
CONST	ENDS
;	COMDAT ??_C@_0CK@PKJFNKMA@?$FL?$CFs?$FN?$FL?$CFs?$FN?5Undefine?5chaosmix?5type?5@
CONST	SEGMENT
??_C@_0CK@PKJFNKMA@?$FL?$CFs?$FN?$FL?$CFs?$FN?5Undefine?5chaosmix?5type?5@ DB '['
	DB	'%s][%s] Undefine chaosmix type detect %d', 00H ; `string'
CONST	ENDS
;	COMDAT ??_C@_0BM@GLBENMI@?$FL?$CFs?$FN?$FL?$CFs?$FN?5Already?5Used?5Chaos?$AA@
CONST	SEGMENT
??_C@_0BM@GLBENMI@?$FL?$CFs?$FN?$FL?$CFs?$FN?5Already?5Used?5Chaos?$AA@ DB '['
	DB	'%s][%s] Already Used Chaos', 00H		; `string'
CONST	ENDS
;	COMDAT ??_C@_0DB@HJKJHPEL@Get?5WareHouse?5Money?$CIIn?5WareHouse@
CONST	SEGMENT
??_C@_0DB@HJKJHPEL@Get?5WareHouse?5Money?$CIIn?5WareHouse@ DB 'Get WareHo'
	DB	'use Money(In WareHouse) : %d - %d = %d', 00H ; `string'
CONST	ENDS
;	COMDAT ??_C@_0DB@IPFMNKBF@Get?5WareHouse?5Money?$CIIn?5Inventory@
CONST	SEGMENT
??_C@_0DB@IPFMNKBF@Get?5WareHouse?5Money?$CIIn?5Inventory@ DB 'Get WareHo'
	DB	'use Money(In Inventory) : %d - %d = %d', 00H ; `string'
CONST	ENDS
;	COMDAT ??_C@_0BC@OFCHNMFP@error?9L3?5?$FL?$CFs?$FN?$FL?$CFd?$FN?$AA@
CONST	SEGMENT
??_C@_0BC@OFCHNMFP@error?9L3?5?$FL?$CFs?$FN?$FL?$CFd?$FN?$AA@ DB 'error-L'
	DB	'3 [%s][%d]', 00H				; `string'
CONST	ENDS
;	COMDAT ??_C@_0BD@ICJCOFEA@Target?5Score?5?$CFs?5?$CFd?$AA@
CONST	SEGMENT
??_C@_0BD@ICJCOFEA@Target?5Score?5?$CFs?5?$CFd?$AA@ DB 'Target Score %s %'
	DB	'd', 00H					; `string'
CONST	ENDS
;	COMDAT ??_C@_0M@NJMAOJLE@Score?5?$CFs?5?$CFd?$AA@
CONST	SEGMENT
??_C@_0M@NJMAOJLE@Score?5?$CFs?5?$CFd?$AA@ DB 'Score %s %d', 00H ; `string'
CONST	ENDS
;	COMDAT ??_C@_0DC@ENCBPHMM@Guild?5War?5cannot?5be?5started?5with@
CONST	SEGMENT
??_C@_0DC@ENCBPHMM@Guild?5War?5cannot?5be?5started?5with@ DB 'Guild War c'
	DB	'annot be started within Imperial Fort.', 00H ; `string'
CONST	ENDS
;	COMDAT ??_C@_0DB@IJAALLLN@Guild?5War?5cannot?5be?5started?5with@
CONST	SEGMENT
??_C@_0DB@IJAALLLN@Guild?5War?5cannot?5be?5started?5with@ DB 'Guild War c'
	DB	'annot be started within Doppelganger.', 00H	; `string'
CONST	ENDS
;	COMDAT ??_C@_0DE@OPCGOEPD@Guild?5War?5cannot?5be?5started?5with@
CONST	SEGMENT
??_C@_0DE@OPCGOEPD@Guild?5War?5cannot?5be?5started?5with@ DB 'Guild War c'
	DB	'annot be started within Illusion Temple.', 00H ; `string'
CONST	ENDS
;	COMDAT ??_C@_0ED@OFKACPCN@Error?5on?5declaring?5war?5?3?5Target?5@
CONST	SEGMENT
??_C@_0ED@OFKACPCN@Error?5on?5declaring?5war?5?3?5Target?5@ DB 'Error on '
	DB	'declaring war : Target GuildMaster Is Murderer 0x04 %s %s', 00H ; `string'
CONST	ENDS
;	COMDAT ??_C@_0FH@HAMEKJOJ@?$FLU?4System?$FN?$FLGuildwar?$FN?5Can?8t?5decla@
CONST	SEGMENT
??_C@_0FH@HAMEKJOJ@?$FLU?4System?$FN?$FLGuildwar?$FN?5Can?8t?5decla@ DB '['
	DB	'U.System][Guildwar] Can''t declare guildwar between Same Unio'
	DB	'n (%s / %d) <-> (%s / %d)', 00H		; `string'
CONST	ENDS
;	COMDAT ??_C@_0DM@KAENPAGM@Error?5on?5declaring?5war?5?3?5GuildMa@
CONST	SEGMENT
??_C@_0DM@KAENPAGM@Error?5on?5declaring?5war?5?3?5GuildMa@ DB 'Error on d'
	DB	'eclaring war : GuildMaster Is Murderer 0x04 %s %s', 00H ; `string'
CONST	ENDS
;	COMDAT ??_C@_0CE@CALGKPMO@?$FL?$CFs?$FN?$FL?$CFs?$FN?5Guild?5Request?5?9?5Leave?5?3@
CONST	SEGMENT
??_C@_0CE@CALGKPMO@?$FL?$CFs?$FN?$FL?$CFs?$FN?5Guild?5Request?5?9?5Leave?5?3@ DB '['
	DB	'%s][%s] Guild Request - Leave : %s', 00H	; `string'
CONST	ENDS
;	COMDAT ??_C@_0CK@LPFOPCOO@?$FL?$CFs?$FN?$FL?$CFs?$FN?5Guild?5Request?5?9?5Dismiss@
CONST	SEGMENT
??_C@_0CK@LPFOPCOO@?$FL?$CFs?$FN?$FL?$CFs?$FN?5Guild?5Request?5?9?5Dismiss@ DB '['
	DB	'%s][%s] Guild Request - Dismiss All : %s', 00H ; `string'
CONST	ENDS
;	COMDAT ??_C@_0CD@KPIJPFAI@?$FL?$CFs?$FN?$FL?$CFs?$FN?5Guild?5Request?5?9?5Join?5?3?5@
CONST	SEGMENT
??_C@_0CD@KPIJPFAI@?$FL?$CFs?$FN?$FL?$CFs?$FN?5Guild?5Request?5?9?5Join?5?3?5@ DB '['
	DB	'%s][%s] Guild Request - Join : %s', 00H	; `string'
CONST	ENDS
;	COMDAT ??_C@_0P@CPKIABHC@User?5not?5found?$AA@
CONST	SEGMENT
??_C@_0P@CPKIABHC@User?5not?5found?$AA@ DB 'User not found', 00H ; `string'
CONST	ENDS
;	COMDAT ??_C@_0P@IDGHFMPH@No?5party?5?$CFs?5?$CFs?$AA@
CONST	SEGMENT
??_C@_0P@IDGHFMPH@No?5party?5?$CFs?5?$CFs?$AA@ DB 'No party %s %s', 00H ; `string'
CONST	ENDS
;	COMDAT ??_C@_0CG@IDLFABNI@PartyMember?$CI?$CFd?$CJ?5?3?5Party?5Out?4?5?$FL?$CFs@
CONST	SEGMENT
??_C@_0CG@IDLFABNI@PartyMember?$CI?$CFd?$CJ?5?3?5Party?5Out?4?5?$FL?$CFs@ DB 'P'
	DB	'artyMember(%d) : Party Out. [%s][%s]', 00H	; `string'
CONST	ENDS
;	COMDAT ??_C@_05DIALNFFA@?$CFs?5?$CFd?$AA@
CONST	SEGMENT
??_C@_05DIALNFFA@?$CFs?5?$CFd?$AA@ DB '%s %d', 00H	; `string'
CONST	ENDS
;	COMDAT ??_C@_0P@GAPFACKC@User?5Not?5found?$AA@
CONST	SEGMENT
??_C@_0P@GAPFACKC@User?5Not?5found?$AA@ DB 'User Not found', 00H ; `string'
CONST	ENDS
;	COMDAT ??_C@_0P@JLFGIHAP@No?5Party?5?$CFs?5?$CFs?$AA@
CONST	SEGMENT
??_C@_0P@JLFGIHAP@No?5Party?5?$CFs?5?$CFs?$AA@ DB 'No Party %s %s', 00H ; `string'
CONST	ENDS
;	COMDAT ??_C@_05DNIIFBMG@?$CFs?5?$CFs?$AA@
CONST	SEGMENT
??_C@_05DNIIFBMG@?$CFs?5?$CFs?$AA@ DB '%s %s', 00H	; `string'
CONST	ENDS
;	COMDAT ??_C@_0BL@OEGODNEF@Party?5result?5?3?5?$CFd?5?$CFd?5?$CFd?5?$CFd?$AA@
CONST	SEGMENT
??_C@_0BL@OEGODNEF@Party?5result?5?3?5?$CFd?5?$CFd?5?$CFd?5?$CFd?$AA@ DB 'P'
	DB	'arty result : %d %d %d %d', 00H		; `string'
CONST	ENDS
;	COMDAT ??_C@_0CE@NBODNOHA@Party?5not?5allowed?5in?5Imperial?5Fo@
CONST	SEGMENT
??_C@_0CE@NBODNOHA@Party?5not?5allowed?5in?5Imperial?5Fo@ DB 'Party not a'
	DB	'llowed in Imperial Fort.', 00H		; `string'
CONST	ENDS
;	COMDAT ??_C@_0CD@ECCPKOHJ@Party?5not?5allowed?5in?5Doppelgange@
CONST	SEGMENT
??_C@_0CD@ECCPKOHJ@Party?5not?5allowed?5in?5Doppelgange@ DB 'Party not al'
	DB	'lowed in Doppelganger.', 00H		; `string'
CONST	ENDS
;	COMDAT ??_C@_0CG@OFOEABOJ@Party?5not?5allowed?5in?5Illusion?5Te@
CONST	SEGMENT
??_C@_0CG@OFOEABOJ@Party?5not?5allowed?5in?5Illusion?5Te@ DB 'Party not a'
	DB	'llowed in Illusion Temple.', 00H		; `string'
CONST	ENDS
;	COMDAT ??_C@_0DF@HMKJEHOO@?$FLPShop?$FN?5?$FL?$CFs?$FN?$FL?$CFs?$FN?5Sold?5All?5Items?5@
CONST	SEGMENT
??_C@_0DF@HMKJEHOO@?$FLPShop?$FN?5?$FL?$CFs?$FN?$FL?$CFs?$FN?5Sold?5All?5Items?5@ DB '['
	DB	'PShop] [%s][%s] Sold All Items - Auto Closing PShop', 00H ; `string'
CONST	ENDS
;	COMDAT ??_C@_0IE@NPCEKOLA@?$FLPShop?$FN?5?$FL?$CFs?$FN?$FL?$CFs?$FN?$FL?$CFs?$FN?5PShop?5Item?5@
CONST	SEGMENT
??_C@_0IE@NPCEKOLA@?$FLPShop?$FN?5?$FL?$CFs?$FN?$FL?$CFs?$FN?$FL?$CFs?$FN?5PShop?5Item?5@ DB '['
	DB	'PShop] [%s][%s][%s] PShop Item Buy Request Succeed : [%s][%s]'
	DB	'[%s] (Price=%d, ItemType:%d (%s), ItemLevel:%d, ItemDur:%d, S'
	DB	'erial:%d', 00H				; `string'
CONST	ENDS
;	COMDAT ??_C@_0EO@NGLHGNOL@?$FLPShop?$FN?5?$FL?$CFs?$FN?$FL?$CFs?$FN?5PShop?5Item?5Buy?5@
CONST	SEGMENT
??_C@_0EO@NGLHGNOL@?$FLPShop?$FN?5?$FL?$CFs?$FN?$FL?$CFs?$FN?5PShop?5Item?5Buy?5@ DB '['
	DB	'PShop] [%s][%s] PShop Item Buy Request Failed : [%s][%s] No R'
	DB	'oom to Buy Item', 00H			; `string'
CONST	ENDS
;	COMDAT ??_C@_0FE@GCLCNLCC@?$FLPShop?$FN?5?$FL?$CFs?$FN?$FL?$CFs?$FN?5PShop?5Item?5Buy?5@
CONST	SEGMENT
??_C@_0FE@GCLCNLCC@?$FLPShop?$FN?5?$FL?$CFs?$FN?$FL?$CFs?$FN?5PShop?5Item?5Buy?5@ DB '['
	DB	'PShop] [%s][%s] PShop Item Buy Request Failed : [%s][%s] Boun'
	DB	'dle Jewels - Type: %d', 00H			; `string'
CONST	ENDS
;	COMDAT ??_C@_0FG@GNOMFPND@?$FLPShop?$FN?5?$FL?$CFs?$FN?$FL?$CFs?$FN?5PShop?5Item?5Buy?5@
CONST	SEGMENT
??_C@_0FG@GNOMFPND@?$FLPShop?$FN?5?$FL?$CFs?$FN?$FL?$CFs?$FN?5PShop?5Item?5Buy?5@ DB '['
	DB	'PShop] [%s][%s] PShop Item Buy Request Failed : [%s][%s] No e'
	DB	'nough Jewels - Type: %d', 00H		; `string'
CONST	ENDS
;	COMDAT ??_C@_0FC@CGGBJBAH@?$FLPShop?$FN?5?$FL?$CFs?$FN?$FL?$CFs?$FN?5PShop?5Item?5Buy?5@
CONST	SEGMENT
??_C@_0FC@CGGBJBAH@?$FLPShop?$FN?5?$FL?$CFs?$FN?$FL?$CFs?$FN?5PShop?5Item?5Buy?5@ DB '['
	DB	'PShop] [%s][%s] PShop Item Buy Request Failed : [%s][%s] No R'
	DB	'oom to Store Reward', 00H			; `string'
CONST	ENDS
;	COMDAT ??_C@_0FE@GMGAEINP@?$FLPShop?$FN?5?$FL?$CFs?$FN?$FL?$CFs?$FN?5PShop?5Item?5Buy?5@
CONST	SEGMENT
??_C@_0FE@GMGAEINP@?$FLPShop?$FN?5?$FL?$CFs?$FN?$FL?$CFs?$FN?5PShop?5Item?5Buy?5@ DB '['
	DB	'PShop] [%s][%s] PShop Item Buy Request Failed : [%s][%s] Exce'
	DB	'eding Zen of the Host', 00H			; `string'
CONST	ENDS
;	COMDAT ??_C@_0EG@BJIIHLIN@?$FLPShop?$FN?5?$FL?$CFs?$FN?$FL?$CFs?$FN?5PShop?5Item?5Buy?5@
CONST	SEGMENT
??_C@_0EG@BJIIHLIN@?$FLPShop?$FN?5?$FL?$CFs?$FN?$FL?$CFs?$FN?5PShop?5Item?5Buy?5@ DB '['
	DB	'PShop] [%s][%s] PShop Item Buy Request Failed : [%s][%s] Lack'
	DB	' of Zen', 00H				; `string'
CONST	ENDS
;	COMDAT ??_C@_0FE@PIIJDCEI@?$FLPShop?$FN?5?$FL?$CFs?$FN?$FL?$CFs?$FN?5PShop?5Item?5Buy?5@
CONST	SEGMENT
??_C@_0FE@PIIJDCEI@?$FLPShop?$FN?5?$FL?$CFs?$FN?$FL?$CFs?$FN?5PShop?5Item?5Buy?5@ DB '['
	DB	'PShop] [%s][%s] PShop Item Buy Request Failed : [%s][%s] Did '
	DB	'Not Choose Item Price', 00H			; `string'
CONST	ENDS
;	COMDAT ??_C@_0FK@LBDGBLNC@?$FLPShop?$FN?5?$FL?$CFs?$FN?$FL?$CFs?$FN?5PShop?5Item?5Buy?5@
CONST	SEGMENT
??_C@_0FK@LBDGBLNC@?$FLPShop?$FN?5?$FL?$CFs?$FN?$FL?$CFs?$FN?5PShop?5Item?5Buy?5@ DB '['
	DB	'PShop] [%s][%s] PShop Item Buy Request Failed : Requester Tra'
	DB	'nsaction == 1, IF_TYPE : %d', 00H		; `string'
CONST	ENDS
;	COMDAT ??_C@_0EB@DKCMAHPG@?$FLANTI?9HACK?$FN?$FLSerial?50?5Item?$FN?5?$FLPSho@
CONST	SEGMENT
??_C@_0EB@DKCMAHPG@?$FLANTI?9HACK?$FN?$FLSerial?50?5Item?$FN?5?$FLPSho@ DB '['
	DB	'ANTI-HACK][Serial 0 Item] [PShop Buy] (%s)(%s) Item(%s) Pos(%'
	DB	'd)', 00H					; `string'
CONST	ENDS
;	COMDAT ??_C@_0FD@GGINPDPA@?$FLPShop?$FN?5?$FL?$CFs?$FN?$FL?$CFs?$FN?5PShop?5Item?5Buy?5@
CONST	SEGMENT
??_C@_0FD@GGINPDPA@?$FLPShop?$FN?5?$FL?$CFs?$FN?$FL?$CFs?$FN?5PShop?5Item?5Buy?5@ DB '['
	DB	'PShop] [%s][%s] PShop Item Buy Request Failed : [%s][%s] Alre'
	DB	'ady Trade With Other', 00H			; `string'
CONST	ENDS
;	COMDAT ??_C@_0EL@CHNNEDPM@?$FLPShop?$FN?5?$FL?$CFs?$FN?$FL?$CFs?$FN?5PShop?5Item?5Buy?5@
CONST	SEGMENT
??_C@_0EL@CHNNEDPM@?$FLPShop?$FN?5?$FL?$CFs?$FN?$FL?$CFs?$FN?5PShop?5Item?5Buy?5@ DB '['
	DB	'PShop] [%s][%s] PShop Item Buy Request Failed : [%s][%s] is i'
	DB	'n Item Block', 00H				; `string'
CONST	ENDS
;	COMDAT ??_C@_0FA@NMMBBGEG@?$FLPShop?$FN?5?$FL?$CFs?$FN?$FL?$CFs?$FN?5PShop?5Item?5Buy?5@
CONST	SEGMENT
??_C@_0FA@NMMBBGEG@?$FLPShop?$FN?5?$FL?$CFs?$FN?$FL?$CFs?$FN?5PShop?5Item?5Buy?5@ DB '['
	DB	'PShop] [%s][%s] PShop Item Buy Request Failed : [%s][%s] is C'
	DB	'losing Connection', 00H			; `string'
CONST	ENDS
;	COMDAT ??_C@_0EL@PJOAJAPF@?$FLPShop?$FN?5?$FL?$CFs?$FN?$FL?$CFs?$FN?5PShop?5Item?5Buy?5@
CONST	SEGMENT
??_C@_0EL@PJOAJAPF@?$FLPShop?$FN?5?$FL?$CFs?$FN?$FL?$CFs?$FN?5PShop?5Item?5Buy?5@ DB '['
	DB	'PShop] [%s][%s] PShop Item Buy Request Failed : Name Mismatch'
	DB	' [%s] - [%s]', 00H				; `string'
CONST	ENDS
;	COMDAT ??_C@_0EN@OKADFHGM@?$FLPShop?$FN?5?$FL?$CFs?$FN?$FL?$CFs?$FN?5PShop?5Item?5Buy?5@
CONST	SEGMENT
??_C@_0EN@OKADFHGM@?$FLPShop?$FN?5?$FL?$CFs?$FN?$FL?$CFs?$FN?5PShop?5Item?5Buy?5@ DB '['
	DB	'PShop] [%s][%s] PShop Item Buy Request Failed : [%s][%s] Did '
	DB	'not Open PShop', 00H			; `string'
CONST	ENDS
;	COMDAT ??_C@_0EG@KFEECMPB@?$FLPShop?$FN?5?$FL?$CFs?$FN?$FL?$CFs?$FN?5PShop?5Item?5Buy?5@
CONST	SEGMENT
??_C@_0EG@KFEECMPB@?$FLPShop?$FN?5?$FL?$CFs?$FN?$FL?$CFs?$FN?5PShop?5Item?5Buy?5@ DB '['
	DB	'PShop] [%s][%s] PShop Item Buy Request Failed : Buyer is Mini'
	DB	'ng (%d)', 00H				; `string'
CONST	ENDS
;	COMDAT ??_C@_0EO@KMDCDECB@?$FLPShop?$FN?5?$FL?$CFs?$FN?$FL?$CFs?$FN?5PShop?5Item?5Buy?5@
CONST	SEGMENT
??_C@_0EO@KMDCDECB@?$FLPShop?$FN?5?$FL?$CFs?$FN?$FL?$CFs?$FN?5PShop?5Item?5Buy?5@ DB '['
	DB	'PShop] [%s][%s] PShop Item Buy Request Failed : Seller is Not'
	DB	' CHARACTER (%d)', 00H			; `string'
CONST	ENDS
;	COMDAT ??_C@_0EP@OPAFJLAF@?$FLPShop?$FN?5?$FL?$CFs?$FN?$FL?$CFs?$FN?5PShop?5Item?5Buy?5@
CONST	SEGMENT
??_C@_0EP@OPAFJLAF@?$FLPShop?$FN?5?$FL?$CFs?$FN?$FL?$CFs?$FN?5PShop?5Item?5Buy?5@ DB '['
	DB	'PShop] [%s][%s] PShop Item Buy Request Failed : Seller did No'
	DB	't CONNECTED (%d)', 00H			; `string'
CONST	ENDS
;	COMDAT ??_C@_0DH@ODEDNFIK@?$FLPShop?$FN?5?$FL?$CFs?$FN?$FL?$CFs?$FN?5is?5Receiving?5PS@
CONST	SEGMENT
??_C@_0DH@ODEDNFIK@?$FLPShop?$FN?5?$FL?$CFs?$FN?$FL?$CFs?$FN?5is?5Receiving?5PS@ DB '['
	DB	'PShop] [%s][%s] is Receiving PShop List From [%s][%s]', 00H ; `string'
CONST	ENDS
;	COMDAT ??_C@_0FG@BJMCDCO@?$FLPShop?$FN?5?$FL?$CFs?$FN?$FL?$CFs?$FN?5PShop?5List?5Requ@
CONST	SEGMENT
??_C@_0FG@BJMCDCO@?$FLPShop?$FN?5?$FL?$CFs?$FN?$FL?$CFs?$FN?5PShop?5List?5Requ@ DB '['
	DB	'PShop] [%s][%s] PShop List Request Failed : Requester Transac'
	DB	'tion == 1, IF_TYPE : %d', 00H		; `string'
CONST	ENDS
;	COMDAT ??_C@_0EH@MBNOENIG@?$FLPShop?$FN?5?$FL?$CFs?$FN?$FL?$CFs?$FN?5PShop?5List?5Requ@
CONST	SEGMENT
??_C@_0EH@MBNOENIG@?$FLPShop?$FN?5?$FL?$CFs?$FN?$FL?$CFs?$FN?5PShop?5List?5Requ@ DB '['
	DB	'PShop] [%s][%s] PShop List Request Failed : [%s][%s] is in It'
	DB	'em Block', 00H				; `string'
CONST	ENDS
;	COMDAT ??_C@_0EJ@NIGLANBE@?$FLPShop?$FN?5?$FL?$CFs?$FN?$FL?$CFs?$FN?5PShop?5List?5Requ@
CONST	SEGMENT
??_C@_0EJ@NIGLANBE@?$FLPShop?$FN?5?$FL?$CFs?$FN?$FL?$CFs?$FN?5PShop?5List?5Requ@ DB '['
	DB	'PShop] [%s][%s] PShop List Request Failed : [%s][%s] Did not '
	DB	'Open PShop', 00H				; `string'
CONST	ENDS
;	COMDAT ??_C@_0DH@DOFEJGME@?$FLPShop?$FN?5?$FL?$CFs?$FN?$FL?$CFs?$FN?5PShop?5List?5Requ@
CONST	SEGMENT
??_C@_0DH@DOFEJGME@?$FLPShop?$FN?5?$FL?$CFs?$FN?$FL?$CFs?$FN?5PShop?5List?5Requ@ DB '['
	DB	'PShop] [%s][%s] PShop List Requested to Him(/Her)Self', 00H ; `string'
CONST	ENDS
;	COMDAT ??_C@_0EH@KILFPGAO@?$FLPShop?$FN?5?$FL?$CFs?$FN?$FL?$CFs?$FN?5PShop?5Item?5Buy?5@
CONST	SEGMENT
??_C@_0EH@KILFPGAO@?$FLPShop?$FN?5?$FL?$CFs?$FN?$FL?$CFs?$FN?5PShop?5Item?5Buy?5@ DB '['
	DB	'PShop] [%s][%s] PShop Item Buy Request Failed : Buyer is Clos'
	DB	'ing (%d)', 00H				; `string'
CONST	ENDS
;	COMDAT ??_C@_0EI@OFDKLOHJ@?$FLPShop?$FN?5?$FL?$CFs?$FN?$FL?$CFs?$FN?5PShop?5Item?5Buy?5@
CONST	SEGMENT
??_C@_0EI@OFDKLOHJ@?$FLPShop?$FN?5?$FL?$CFs?$FN?$FL?$CFs?$FN?5PShop?5Item?5Buy?5@ DB '['
	DB	'PShop] [%s][%s] PShop Item Buy Request Failed : Seller is Clo'
	DB	'sing (%d)', 00H				; `string'
CONST	ENDS
;	COMDAT ??_C@_0EK@PCNOKFHF@?$FLPShop?$FN?5?$FL?$CFs?$FN?$FL?$CFs?$FN?5PShop?5List?5Requ@
CONST	SEGMENT
??_C@_0EK@PCNOKFHF@?$FLPShop?$FN?5?$FL?$CFs?$FN?$FL?$CFs?$FN?5PShop?5List?5Requ@ DB '['
	DB	'PShop] [%s][%s] PShop List Request Failed : Seller is Not CHA'
	DB	'RACTER (%d)', 00H				; `string'
CONST	ENDS
;	COMDAT ??_C@_0EL@IDFNOCHJ@?$FLPShop?$FN?5?$FL?$CFs?$FN?$FL?$CFs?$FN?5PShop?5List?5Requ@
CONST	SEGMENT
??_C@_0EL@IDFNOCHJ@?$FLPShop?$FN?5?$FL?$CFs?$FN?$FL?$CFs?$FN?5PShop?5List?5Requ@ DB '['
	DB	'PShop] [%s][%s] PShop List Request Failed : Seller did Not CO'
	DB	'NNECTED (%d)', 00H				; `string'
CONST	ENDS
;	COMDAT ??_C@_0BN@PJEAPNNK@?$FLPShop?$FN?5?$FL?$CFs?$FN?$FL?$CFs?$FN?5Close?5PShop?$AA@
CONST	SEGMENT
??_C@_0BN@PJEAPNNK@?$FLPShop?$FN?5?$FL?$CFs?$FN?$FL?$CFs?$FN?5Close?5PShop?$AA@ DB '['
	DB	'PShop] [%s][%s] Close PShop', 00H		; `string'
CONST	ENDS
;	COMDAT ??_C@_0CK@BPLBGOKP@?$FLPShop?$FN?5?$FL?$CFs?$FN?$FL?$CFs?$FN?5Requested?5to?5Cl@
CONST	SEGMENT
??_C@_0CK@BPLBGOKP@?$FLPShop?$FN?5?$FL?$CFs?$FN?$FL?$CFs?$FN?5Requested?5to?5Cl@ DB '['
	DB	'PShop] [%s][%s] Requested to Close PShop', 00H ; `string'
CONST	ENDS
;	COMDAT ??_C@_0EE@CGDKDDB@?$FLPShop?$FN?5?$FL?$CFs?$FN?$FL?$CFs?$FN?5Personal?5Shop?5A@
CONST	SEGMENT
??_C@_0EE@CGDKDDB@?$FLPShop?$FN?5?$FL?$CFs?$FN?$FL?$CFs?$FN?5Personal?5Shop?5A@ DB '['
	DB	'PShop] [%s][%s] Personal Shop Already Opened - Changing PShop'
	DB	' Name', 00H					; `string'
CONST	ENDS
;	COMDAT ??_C@_0CG@HMFGEBKO@?$FLPShop?$FN?5?$FL?$CFs?$FN?$FL?$CFs?$FN?5Personal?5Shop?5O@
CONST	SEGMENT
??_C@_0CG@HMFGEBKO@?$FLPShop?$FN?5?$FL?$CFs?$FN?$FL?$CFs?$FN?5Personal?5Shop?5O@ DB '['
	DB	'PShop] [%s][%s] Personal Shop Opened', 00H	; `string'
CONST	ENDS
;	COMDAT ??_C@_0DI@OHKHPELK@?$FLPShop?$FN?5?$FL?$CFs?$FN?$FL?$CFs?$FN?5ERROR?5?3?5Transac@
CONST	SEGMENT
??_C@_0DI@OHKHPELK@?$FLPShop?$FN?5?$FL?$CFs?$FN?$FL?$CFs?$FN?5ERROR?5?3?5Transac@ DB '['
	DB	'PShop] [%s][%s] ERROR : Transaction == 1, IF_TYPE : %d', 00H ; `string'
CONST	ENDS
;	COMDAT ??_C@_0DF@PANDKIEM@?$FLPShop?$FN?5?$FL?$CFs?$FN?$FL?$CFs?$FN?5ERROR?5?3?5Unknown@
CONST	SEGMENT
??_C@_0DF@PANDKIEM@?$FLPShop?$FN?5?$FL?$CFs?$FN?$FL?$CFs?$FN?5ERROR?5?3?5Unknown@ DB '['
	DB	'PShop] [%s][%s] ERROR : Unknown m_IfState.type : %d', 00H ; `string'
CONST	ENDS
;	COMDAT ??_C@_0DG@MLHOMIKA@?$FLPShop?$FN?5?$FL?$CFs?$FN?$FL?$CFs?$FN?5ERROR?5?3?5m_IfSta@
CONST	SEGMENT
??_C@_0DG@MLHOMIKA@?$FLPShop?$FN?5?$FL?$CFs?$FN?$FL?$CFs?$FN?5ERROR?5?3?5m_IfSta@ DB '['
	DB	'PShop] [%s][%s] ERROR : m_IfState.type is Using : %d', 00H ; `string'
CONST	ENDS
;	COMDAT ??_C@_0DJ@GMNEGEAG@You?5cannot?5open?5your?5Personal?5Sh@
CONST	SEGMENT
??_C@_0DJ@GMNEGEAG@You?5cannot?5open?5your?5Personal?5Sh@ DB 'You cannot '
	DB	'open your Personal Shop within Imperial Fort.', 00H ; `string'
CONST	ENDS
;	COMDAT ??_C@_0DI@MIGHMEIJ@You?5cannot?5open?5your?5Personal?5Sh@
CONST	SEGMENT
??_C@_0DI@MIGHMEIJ@You?5cannot?5open?5your?5Personal?5Sh@ DB 'You cannot '
	DB	'open your Personal Shop within Doppelganger.', 00H ; `string'
CONST	ENDS
;	COMDAT ??_C@_0DL@LHDFDIDM@You?5cannot?5open?5your?5Personal?5Sh@
CONST	SEGMENT
??_C@_0DL@LHDFDIDM@You?5cannot?5open?5your?5Personal?5Sh@ DB 'You cannot '
	DB	'open your Personal Shop within Illusion Temple.', 00H ; `string'
CONST	ENDS
;	COMDAT ??_C@_0DH@KPCEONNB@?$FLPShop?$FN?5?$FL?$CFs?$FN?$FL?$CFs?$FN?5ERROR?5?3?5Cant?8t?5@
CONST	SEGMENT
??_C@_0DH@KPCEONNB@?$FLPShop?$FN?5?$FL?$CFs?$FN?$FL?$CFs?$FN?5ERROR?5?3?5Cant?8t?5@ DB '['
	DB	'PShop] [%s][%s] ERROR : Cant''t Open Shop - Item Block', 00H ; `string'
CONST	ENDS
;	COMDAT ??_C@_0GJ@BBHGJODA@?$FLPShop?$FN?5?$FL?$CFs?$FN?$FL?$CFs?$FN?5Changing?5Item?5P@
CONST	SEGMENT
??_C@_0GJ@BBHGJODA@?$FLPShop?$FN?5?$FL?$CFs?$FN?$FL?$CFs?$FN?5Changing?5Item?5P@ DB '['
	DB	'PShop] [%s][%s] Changing Item Price : %d (B: %d, S: %d, C: %d'
	DB	') (Type:%d (%s), Lev:%d, Serial:%d, Dur:%d', 00H ; `string'
CONST	ENDS
;	COMDAT ??_C@_0CK@ODKADHDC@?$FLPShop?$FN?5?$FL?$CFs?$FN?$FL?$CFs?$FN?5ERROR?5?3?5Item?5Ou@
CONST	SEGMENT
??_C@_0CK@ODKADHDC@?$FLPShop?$FN?5?$FL?$CFs?$FN?$FL?$CFs?$FN?5ERROR?5?3?5Item?5Ou@ DB '['
	DB	'PShop] [%s][%s] ERROR : Item Outof Bound', 00H ; `string'
CONST	ENDS
;	COMDAT ??_C@_0DI@GBAILLEI@?$FLPShop?$FN?5?$FL?$CFs?$FN?$FL?$CFs?$FN?5ERROR?5?3?5Item?5Pr@
CONST	SEGMENT
??_C@_0DI@GBAILLEI@?$FLPShop?$FN?5?$FL?$CFs?$FN?$FL?$CFs?$FN?5ERROR?5?3?5Item?5Pr@ DB '['
	DB	'PShop] [%s][%s] ERROR : Item Price Change - Item Block', 00H ; `string'
CONST	ENDS
;	COMDAT ??_C@_0DN@CBDABIEA@?$FLPShop?$FN?5?$FL?$CFs?$FN?$FL?$CFs?$FN?5ERROR?5?3?5Persona@
CONST	SEGMENT
??_C@_0DN@CBDABIEA@?$FLPShop?$FN?5?$FL?$CFs?$FN?$FL?$CFs?$FN?5ERROR?5?3?5Persona@ DB '['
	DB	'PShop] [%s][%s] ERROR : Personal Shop Item Price <= 0 : %d ', 00H ; `string'
CONST	ENDS
;	COMDAT ??_C@_0CK@IBOOILII@error?9L2?5?3?5CopyItem?5?$FL?$CFs?$FN?$FL?$CFs?$FN?5ret@
CONST	SEGMENT
??_C@_0CK@IBOOILII@error?9L2?5?3?5CopyItem?5?$FL?$CFs?$FN?$FL?$CFs?$FN?5ret@ DB 'e'
	DB	'rror-L2 : CopyItem [%s][%s] return %s %d', 00H ; `string'
CONST	ENDS
;	COMDAT ??_C@_0DN@IOKIFLHM@?$FLANTI?9HACK?$FN?$FLSerial?50?5Item?$FN?5?$FLPSho@
CONST	SEGMENT
??_C@_0DN@IOKIFLHM@?$FLANTI?9HACK?$FN?$FLSerial?50?5Item?$FN?5?$FLPSho@ DB '['
	DB	'ANTI-HACK][Serial 0 Item] [PShop] (%s)(%s) Item(%s) Pos(%d)', 00H ; `string'
CONST	ENDS
;	COMDAT ??_C@_0DC@LNPMCBEG@?$FLPShop?$FN?5?$FL?$CFs?$FN?$FL?$CFs?$FN?5ERROR?5?3?5Item?5Do@
CONST	SEGMENT
??_C@_0DC@LNPMCBEG@?$FLPShop?$FN?5?$FL?$CFs?$FN?$FL?$CFs?$FN?5ERROR?5?3?5Item?5Do@ DB '['
	DB	'PShop] [%s][%s] ERROR : Item Does Not Exist : %d', 00H ; `string'
CONST	ENDS
;	COMDAT ??_C@_0DJ@POEGOMMJ@?$FLPShop?$FN?5?$FL?$CFs?$FN?$FL?$CFs?$FN?5ERROR?5?3?5Item?5Po@
CONST	SEGMENT
??_C@_0DJ@POEGOMMJ@?$FLPShop?$FN?5?$FL?$CFs?$FN?$FL?$CFs?$FN?5ERROR?5?3?5Item?5Po@ DB '['
	DB	'PShop] [%s][%s] ERROR : Item Position Out of Bound : %d', 00H ; `string'
CONST	ENDS
;	COMDAT ??_C@_0CP@JILLNCMO@?$FLPShop?$FN?5?$FL?$CFs?$FN?$FL?$CFs?$FN?5ERROR?5?3?5Level?5i@
CONST	SEGMENT
??_C@_0CP@JILLNCMO@?$FLPShop?$FN?5?$FL?$CFs?$FN?$FL?$CFs?$FN?5ERROR?5?3?5Level?5i@ DB '['
	DB	'PShop] [%s][%s] ERROR : Level is Under 6 : %d', 00H ; `string'
CONST	ENDS
;	COMDAT ??_C@_0CM@BGHHKBPI@?$FLPShop?$FN?5ERROR?5?3?5Index?5is?5not?5CHA@
CONST	SEGMENT
??_C@_0CM@BGHHKBPI@?$FLPShop?$FN?5ERROR?5?3?5Index?5is?5not?5CHA@ DB '[PS'
	DB	'hop] ERROR : Index is not CHARACTER : %d', 00H ; `string'
CONST	ENDS
;	COMDAT ??_C@_0CM@OJAPKEAG@?$FLPShop?$FN?5ERROR?5?3?5Index?5is?5not?5CON@
CONST	SEGMENT
??_C@_0CM@OJAPKEAG@?$FLPShop?$FN?5ERROR?5?3?5Index?5is?5not?5CON@ DB '[PS'
	DB	'hop] ERROR : Index is not CONNECTED : %d', 00H ; `string'
CONST	ENDS
;	COMDAT ??_C@_0BG@FLFOODFC@?$FL?$CFs?$FN?$FL?$CFs?$FN?5Trade?5Accept?$AA@
CONST	SEGMENT
??_C@_0BG@FLFOODFC@?$FL?$CFs?$FN?$FL?$CFs?$FN?5Trade?5Accept?$AA@ DB '[%s'
	DB	'][%s] Trade Accept', 00H			; `string'
CONST	ENDS
;	COMDAT ??_C@_0BF@FJPPKIGA@Interface?5State?5?3?5?$CFd?$AA@
CONST	SEGMENT
??_C@_0BF@FJPPKIGA@Interface?5State?5?3?5?$CFd?$AA@ DB 'Interface State :'
	DB	' %d', 00H					; `string'
CONST	ENDS
;	COMDAT ??_C@_0BO@GMBGLGLP@?$FL?$CFs?$FN?$FL?$CFs?$FN?5Trade?5Ready?5?$FL?$CFs?$FN?$FL?$CFs?$FN?$AA@
CONST	SEGMENT
??_C@_0BO@GMBGLGLP@?$FL?$CFs?$FN?$FL?$CFs?$FN?5Trade?5Ready?5?$FL?$CFs?$FN?$FL?$CFs?$FN?$AA@ DB '['
	DB	'%s][%s] Trade Ready [%s][%s]', 00H		; `string'
CONST	ENDS
;	COMDAT ??_C@_0DE@KMOKLCNA@?$FL?$CFs?$FN?$FL?$CFs?$FN?5Made?5Trade?5Error?5?$CIin?5Tr@
CONST	SEGMENT
??_C@_0DE@KMOKLCNA@?$FL?$CFs?$FN?$FL?$CFs?$FN?5Made?5Trade?5Error?5?$CIin?5Tr@ DB '['
	DB	'%s][%s] Made Trade Error (in Transaction) [%s][%s]', 00H ; `string'
CONST	ENDS
;	COMDAT ??_C@_0EH@CCMPCECD@?$FL?$CFs?$FN?$FL?$CFs?$FN?5CGTradeResponseRecv?$CI?$CJ?5F@
CONST	SEGMENT
??_C@_0EH@CCMPCECD@?$FL?$CFs?$FN?$FL?$CFs?$FN?5CGTradeResponseRecv?$CI?$CJ?5F@ DB '['
	DB	'%s][%s] CGTradeResponseRecv() Failed : Transaction == 1, IF_T'
	DB	'YPE : %d', 00H				; `string'
CONST	ENDS
;	COMDAT ??_C@_0DG@NABAHPDJ@?$CI?$CFs?$CJ?$CI?$CFs?$CJ?5Trade?5Interface?5State?5E@
CONST	SEGMENT
??_C@_0DG@NABAHPDJ@?$CI?$CFs?$CJ?$CI?$CFs?$CJ?5Trade?5Interface?5State?5E@ DB '('
	DB	'%s)(%s) Trade Interface State Error : use:%d type:%d', 00H ; `string'
CONST	ENDS
;	COMDAT ??_C@_0CF@HCOAINND@error?9L1?5?3?5target?3?$CFd?5?$CIA_ID?3?$CFs?$CJ?5?$CF@
CONST	SEGMENT
??_C@_0CF@HCOAINND@error?9L1?5?3?5target?3?$CFd?5?$CIA_ID?3?$CFs?$CJ?5?$CF@ DB 'e'
	DB	'rror-L1 : target:%d (A_ID:%s) %s %d', 00H	; `string'
CONST	ENDS
;	COMDAT ??_C@_0BO@JKBNIPAM@error?9L1?5?3?5?$CFd?5?$CIA_ID?3?$CFs?$CJ?5?$CFs?5?$CFd?$AA@
CONST	SEGMENT
??_C@_0BO@JKBNIPAM@error?9L1?5?3?5?$CFd?5?$CIA_ID?3?$CFs?$CJ?5?$CFs?5?$CFd?$AA@ DB 'e'
	DB	'rror-L1 : %d (A_ID:%s) %s %d', 00H		; `string'
CONST	ENDS
;	COMDAT ??_C@_0EG@MCMMANNG@?$FL?$CFs?$FN?$FL?$CFs?$FN?5CGTradeRequestSend?$CI?$CJ?5Fa@
CONST	SEGMENT
??_C@_0EG@MCMMANNG@?$FL?$CFs?$FN?$FL?$CFs?$FN?5CGTradeRequestSend?$CI?$CJ?5Fa@ DB '['
	DB	'%s][%s] CGTradeRequestSend() Failed : Transaction == 1, IF_TY'
	DB	'PE : %d', 00H				; `string'
CONST	ENDS
;	COMDAT ??_C@_0CA@CHOLFFAK@Trade?5not?5allowed?5on?5duel?5arena?$AA@
CONST	SEGMENT
??_C@_0CA@CHOLFFAK@Trade?5not?5allowed?5on?5duel?5arena?$AA@ DB 'Trade no'
	DB	't allowed on duel arena', 00H		; `string'
CONST	ENDS
;	COMDAT ??_C@_0CH@BFADMIPH@You?5cannot?5trade?5inside?5Imperial@
CONST	SEGMENT
??_C@_0CH@BFADMIPH@You?5cannot?5trade?5inside?5Imperial@ DB 'You cannot t'
	DB	'rade inside Imperial Fort.', 00H		; `string'
CONST	ENDS
;	COMDAT ??_C@_0CG@MDHDJBIA@You?5cannot?5trade?5inside?5Doppelga@
CONST	SEGMENT
??_C@_0CG@MDHDJBIA@You?5cannot?5trade?5inside?5Doppelga@ DB 'You cannot t'
	DB	'rade inside Doppelganger.', 00H		; `string'
CONST	ENDS
;	COMDAT ??_C@_0CJ@GFPCHONE@You?5cannot?5trade?5inside?5Illusion@
CONST	SEGMENT
??_C@_0CJ@GFPCHONE@You?5cannot?5trade?5inside?5Illusion@ DB 'You cannot t'
	DB	'rade inside Illusion Temple.', 00H		; `string'
CONST	ENDS
;	COMDAT ??_C@_0BD@DBIFHAEB@error?5?3?5?$CFs?5?$CFd?5?$CI?$CFd?$CJ?$AA@
CONST	SEGMENT
??_C@_0BD@DBIFHAEB@error?5?3?5?$CFs?5?$CFd?5?$CI?$CFd?$CJ?$AA@ DB 'error '
	DB	': %s %d (%d)', 00H				; `string'
CONST	ENDS
;	COMDAT ??_C@_0BB@NPCMBJOG@ID?3?$CFs?5CharID?3?$CFs?5?$AA@
CONST	SEGMENT
??_C@_0BB@NPCMBJOG@ID?3?$CFs?5CharID?3?$CFs?5?$AA@ DB 'ID:%s CharID:%s ', 00H ; `string'
CONST	ENDS
;	COMDAT ??_C@_0EB@IPNHKJAG@?$FLANTI?9HACK?$FN?$FLSerial?50?5Item?$FN?5?$FLSell@
CONST	SEGMENT
??_C@_0EB@IPNHKJAG@?$FLANTI?9HACK?$FN?$FLSerial?50?5Item?$FN?5?$FLSell@ DB '['
	DB	'ANTI-HACK][Serial 0 Item] [Sell Item] (%s)(%s) Item(%s) Pos(%'
	DB	'd)', 00H					; `string'
CONST	ENDS
;	COMDAT ??_C@_0EF@KJAJLIMD@?$FL?$CFs?$FN?$FL?$CFs?$FN?5CGSellRequestRecv?$CI?$CJ?5Fai@
CONST	SEGMENT
??_C@_0EF@KJAJLIMD@?$FL?$CFs?$FN?$FL?$CFs?$FN?5CGSellRequestRecv?$CI?$CJ?5Fai@ DB '['
	DB	'%s][%s] CGSellRequestRecv() Failed : Transaction == 1, IF_TYP'
	DB	'E : %d', 00H				; `string'
CONST	ENDS
;	COMDAT ??_C@_0EI@PNDIMLBH@?$FL?$CFs?$FN?$FL?$CFs?$FN?5?$CI?$CFd?$CJ?5Shop?5buy?5?$FL?$CFd?$FN?$FL?$CFd?$FN?$FL@
CONST	SEGMENT
??_C@_0EI@PNDIMLBH@?$FL?$CFs?$FN?$FL?$CFs?$FN?5?$CI?$CFd?$CJ?5Shop?5buy?5?$FL?$CFd?$FN?$FL?$CFd?$FN?$FL@ DB '['
	DB	'%s][%s] (%d) Shop buy [%d][%d][%d][%s] LEV:%d, DUR:%d, OP:[%d'
	DB	'][%d][%d]', 00H				; `string'
CONST	ENDS
;	COMDAT ??_C@_0BP@FPLNFNIC@You?5have?5no?5enough?5empty?5space?$AA@
CONST	SEGMENT
??_C@_0BP@FPLNFNIC@You?5have?5no?5enough?5empty?5space?$AA@ DB 'You have '
	DB	'no enough empty space', 00H			; `string'
CONST	ENDS
;	COMDAT ??_C@_0DP@ONDPGNEF@?$FL?$CFs?$FN?5?$FL?$CFs?$FN?5item?5has?5been?5purchase@
CONST	SEGMENT
??_C@_0DP@ONDPGNEF@?$FL?$CFs?$FN?5?$FL?$CFs?$FN?5item?5has?5been?5purchase@ DB '['
	DB	'%s] [%s] item has been purchased (%s, price: %d), balance: %d'
	DB	00H						; `string'
CONST	ENDS
;	COMDAT ??_C@_0CF@MFLOOBGJ@Item?5has?5been?5purchased?0?5balance@
CONST	SEGMENT
??_C@_0CF@MFLOOBGJ@Item?5has?5been?5purchased?0?5balance@ DB 'Item has be'
	DB	'en purchased, balance: %d', 00H		; `string'
CONST	ENDS
;	COMDAT ??_C@_0BI@EKFBANFN@?$FL?$CFs?$FN?$FL?$CFs?$FN?5Open?5Chaos?5Box?$AA@
CONST	SEGMENT
??_C@_0BI@EKFBANFN@?$FL?$CFs?$FN?$FL?$CFs?$FN?5Open?5Chaos?5Box?$AA@ DB '['
	DB	'%s][%s] Open Chaos Box', 00H		; `string'
CONST	ENDS
;	COMDAT ??_C@_0DD@KJEEOOOJ@?$FL?$CFs?$FN?$FL?$CFs?$FN?5is?5Already?5Opening?5PSho@
CONST	SEGMENT
??_C@_0DD@KJEEOOOJ@?$FL?$CFs?$FN?$FL?$CFs?$FN?5is?5Already?5Opening?5PSho@ DB '['
	DB	'%s][%s] is Already Opening PShop, ChaosBox Failed', 00H ; `string'
CONST	ENDS
;	COMDAT ??_C@_0CP@GINMLCLK@?$FLANTI?9HACK?$FN?$FLNPC?5Talk?$FN?5Couldn?8t?5t@
CONST	SEGMENT
??_C@_0CP@GINMLCLK@?$FLANTI?9HACK?$FN?$FLNPC?5Talk?$FN?5Couldn?8t?5t@ DB '['
	DB	'ANTI-HACK][NPC Talk] Couldn''t talk.. (%s)(%s)', 00H ; `string'
CONST	ENDS
;	COMDAT ??_C@_0DB@OHHNKGKH@Pay?5WareHouse?5Money?$CIIn?5WareHouse@
CONST	SEGMENT
??_C@_0DB@OHHNKGKH@Pay?5WareHouse?5Money?$CIIn?5WareHouse@ DB 'Pay WareHo'
	DB	'use Money(In WareHouse) : %d - %d = %d', 00H ; `string'
CONST	ENDS
;	COMDAT ??_C@_0DB@BBIIADPJ@Pay?5WareHouse?5Money?$CIIn?5Inventory@
CONST	SEGMENT
??_C@_0DB@BBIIADPJ@Pay?5WareHouse?5Money?$CIIn?5Inventory@ DB 'Pay WareHo'
	DB	'use Money(In Inventory) : %d - %d = %d', 00H ; `string'
CONST	ENDS
;	COMDAT ??_C@_0CD@LILEALBE@?$FL?$CFs?$FN?$FL?$CFs?$FN?5error?9L1?5?3?5used?5not?5Tra@
CONST	SEGMENT
??_C@_0CD@LILEALBE@?$FL?$CFs?$FN?$FL?$CFs?$FN?5error?9L1?5?3?5used?5not?5Tra@ DB '['
	DB	'%s][%s] error-L1 : used not Trade', 00H	; `string'
CONST	ENDS
;	COMDAT ??_C@_0CH@JCEGNOH@?$FL?$CFs?$FN?$FL?$CFs?$FN?5error?9L1?5?3?5used?5not?5War@
CONST	SEGMENT
??_C@_0CH@JCEGNOH@?$FL?$CFs?$FN?$FL?$CFs?$FN?5error?9L1?5?3?5used?5not?5War@ DB '['
	DB	'%s][%s] error-L1 : used not Warehouse', 00H	; `string'
CONST	ENDS
;	COMDAT ??_C@_0CF@GLNEHHDC@?$FL?$CFs?$FN?$FL?$CFs?$FN?5error?9L3?5?3?5Elemental?5Mi@
CONST	SEGMENT
??_C@_0CF@GLNEHHDC@?$FL?$CFs?$FN?$FL?$CFs?$FN?5error?9L3?5?3?5Elemental?5Mi@ DB '['
	DB	'%s][%s] error-L3 : Elemental Mixing', 00H	; `string'
CONST	ENDS
;	COMDAT ??_C@_0CF@LHICMFIE@?$FL?$CFs?$FN?$FL?$CFs?$FN?5error?9L3?5?3?5LuckyItem?5Mi@
CONST	SEGMENT
??_C@_0CF@LHICMFIE@?$FL?$CFs?$FN?$FL?$CFs?$FN?5error?9L3?5?3?5LuckyItem?5Mi@ DB '['
	DB	'%s][%s] error-L3 : LuckyItem Mixing', 00H	; `string'
CONST	ENDS
;	COMDAT ??_C@_0CG@JPIJOKEC@?$FL?$CFs?$FN?$FL?$CFs?$FN?5error?9L3?5?3?5SocketItem?5M@
CONST	SEGMENT
??_C@_0CG@JPIJOKEC@?$FL?$CFs?$FN?$FL?$CFs?$FN?5error?9L3?5?3?5SocketItem?5M@ DB '['
	DB	'%s][%s] error-L3 : SocketItem Mixing', 00H	; `string'
CONST	ENDS
;	COMDAT ??_C@_0CK@JNCNGNMJ@?$FL?$CFs?$FN?$FL?$CFs?$FN?5error?9L3?5?3?5JewelOfHarmo@
CONST	SEGMENT
??_C@_0CK@JNCNGNMJ@?$FL?$CFs?$FN?$FL?$CFs?$FN?5error?9L3?5?3?5JewelOfHarmo@ DB '['
	DB	'%s][%s] error-L3 : JewelOfHarmony Mixing', 00H ; `string'
CONST	ENDS
;	COMDAT ??_C@_0CG@BBKNKKF@?$FL?$CFs?$FN?$FL?$CFs?$FN?5error?9L1?5?3?5used?5not?5Cha@
CONST	SEGMENT
??_C@_0CG@BBKNKKF@?$FL?$CFs?$FN?$FL?$CFs?$FN?5error?9L1?5?3?5used?5not?5Cha@ DB '['
	DB	'%s][%s] error-L1 : used not ChaosBox', 00H	; `string'
CONST	ENDS
;	COMDAT ??_C@_0CJ@GOOLKLEE@?$FL?$CFs?$FN?$FL?$CFs?$FN?5error?9L3?5?3?5DarkTrainerB@
CONST	SEGMENT
??_C@_0CJ@GOOLKLEE@?$FL?$CFs?$FN?$FL?$CFs?$FN?5error?9L3?5?3?5DarkTrainerB@ DB '['
	DB	'%s][%s] error-L3 : DarkTrainerBoxMixing', 00H ; `string'
CONST	ENDS
;	COMDAT ??_C@_0CM@KBDLDMLI@?$FL?$CFs?$FN?$FL?$CFs?$FN?5error?9L1?5?3?5used?5not?5Dar@
CONST	SEGMENT
??_C@_0CM@KBDLDMLI@?$FL?$CFs?$FN?$FL?$CFs?$FN?5error?9L1?5?3?5used?5not?5Dar@ DB '['
	DB	'%s][%s] error-L1 : used not DarkTrainerBox', 00H ; `string'
CONST	ENDS
;	COMDAT ??_C@_0BN@NBPOCOLJ@?$FL?$CFs?$FN?$FL?$CFs?$FN?5error?9L3?5?3?5CBMixing?$AA@
CONST	SEGMENT
??_C@_0BN@NBPOCOLJ@?$FL?$CFs?$FN?$FL?$CFs?$FN?5error?9L3?5?3?5CBMixing?$AA@ DB '['
	DB	'%s][%s] error-L3 : CBMixing', 00H		; `string'
CONST	ENDS
;	COMDAT ??_C@_0CG@KBCIHFJL@?$FL?$CFs?$FN?$FL?$CFs?$FN?5error?9L1?5?3?5used?5not?5Cha@
CONST	SEGMENT
??_C@_0CG@KBCIHFJL@?$FL?$CFs?$FN?$FL?$CFs?$FN?5error?9L1?5?3?5used?5not?5Cha@ DB '['
	DB	'%s][%s] error-L1 : used not Chaosbox', 00H	; `string'
CONST	ENDS
;	COMDAT ??_C@_0BC@JIBNBHEG@?$FL?$CFs?$FN?$FL?$CFd?$FN?5error?9L3?$AA@
CONST	SEGMENT
??_C@_0BC@JIBNBHEG@?$FL?$CFs?$FN?$FL?$CFd?$FN?5error?9L3?$AA@ DB '[%s][%d'
	DB	'] error-L3', 00H				; `string'
CONST	ENDS
;	COMDAT ??_C@_0CP@KAEBPCMA@?$FLSnakeBegins?$FN?5?$FL?$CFs?$FN?$FL?$CFs?$FN?5Success?5t@
CONST	SEGMENT
??_C@_0CP@KAEBPCMA@?$FLSnakeBegins?$FN?5?$FL?$CFs?$FN?$FL?$CFs?$FN?5Success?5t@ DB '['
	DB	'SnakeBegins] [%s][%s] Success to create Snake', 00H ; `string'
CONST	ENDS
;	COMDAT ??_C@_0EK@IDAEHEED@?$FLKalima?$FN?5?$FL?$CFs?$FN?$FL?$CFs?$FN?5Success?5to?5Mak@
CONST	SEGMENT
??_C@_0EK@IDAEHEED@?$FLKalima?$FN?5?$FL?$CFs?$FN?$FL?$CFs?$FN?5Success?5to?5Mak@ DB '['
	DB	'Kalima] [%s][%s] Success to Make Kalima Gate (Lost Kalima Map'
	DB	' Serial:%d)', 00H				; `string'
CONST	ENDS
;	COMDAT ??_C@_0EF@GOCIBGLO@?$FLHidden?5TreasureBox?5Event?$FN?5?$FL?$CFs?$FN?$FL@
CONST	SEGMENT
??_C@_0EF@GOCIBGLO@?$FLHidden?5TreasureBox?5Event?$FN?5?$FL?$CFs?$FN?$FL@ DB '['
	DB	'Hidden TreasureBox Event] [%s][%s] Event ZenDrop : %d : (%d)('
	DB	'%d/%d)', 00H				; `string'
CONST	ENDS
;	COMDAT ??_C@_0EM@LPMBPPDG@?$FLHidden?5TreasureBox?5Event?$FN?5?$FL?$CFs?$FN?$FL@
CONST	SEGMENT
??_C@_0EM@LPMBPPDG@?$FLHidden?5TreasureBox?5Event?$FN?5?$FL?$CFs?$FN?$FL@ DB '['
	DB	'Hidden TreasureBox Event] [%s][%s] Throw Surprise Treasure Bo'
	DB	'x - serial:%d', 00H				; `string'
CONST	ENDS
;	COMDAT ??_C@_0ED@PDKMNGPH@?$FLHidden?5TreasureBox?5Event?$FN?5?$FL?$CFs?$FN?$FL@
CONST	SEGMENT
??_C@_0ED@PDKMNGPH@?$FLHidden?5TreasureBox?5Event?$FN?5?$FL?$CFs?$FN?$FL@ DB '['
	DB	'Hidden TreasureBox Event] [%s][%s] Throw Crystal (%d) - seria'
	DB	'l:%d', 00H					; `string'
CONST	ENDS
;	COMDAT ??_C@_0FC@GOMPGJDH@?$FLHidden?5TreasureBox?5Event?$FN?5?$FL?$CFs?$FN?$FL@
CONST	SEGMENT
??_C@_0FC@GOMPGJDH@?$FLHidden?5TreasureBox?5Event?$FN?5?$FL?$CFs?$FN?$FL@ DB '['
	DB	'Hidden TreasureBox Event] [%s][%s] Throw Mysterious Bead : Dr'
	DB	'op (%d) - serial:%d', 00H			; `string'
CONST	ENDS
;	COMDAT ??_C@_0EM@HPFBFIFH@?$FL?$CFs?$FN?$FL?$CFs?$FN?$FL?$CFd?$FN?$CFd?1?$CFd?5Used?5Fireworks@
CONST	SEGMENT
??_C@_0EM@HPFBFIFH@?$FL?$CFs?$FN?$FL?$CFs?$FN?$FL?$CFd?$FN?$CFd?1?$CFd?5Used?5Fireworks@ DB '['
	DB	'%s][%s][%d]%d/%d Used Fireworks:%u (%s:%d/level:%d/skill:%d/o'
	DB	'p2:%d/op3:%d)', 00H				; `string'
CONST	ENDS
;	COMDAT ??_C@_0EA@MFJKFJAM@?$FLANTI?9HACK?$FN?$FLSerial?50?5Item?$FN?5?$FLItem@
CONST	SEGMENT
??_C@_0EA@MFJKFJAM@?$FLANTI?9HACK?$FN?$FLSerial?50?5Item?$FN?5?$FLItem@ DB '['
	DB	'ANTI-HACK][Serial 0 Item] [ItemDrop] (%s)(%s) Item(%s) Pos(%d'
	DB	')', 00H					; `string'
CONST	ENDS
;	COMDAT ??_C@_04BGCMBJDA@Item?$AA@
CONST	SEGMENT
??_C@_04BGCMBJDA@Item?$AA@ DB 'Item', 00H		; `string'
CONST	ENDS
;	COMDAT ??_C@_0M@HHKDDFJH@error?3?$CFs?5?$CFd?$AA@
CONST	SEGMENT
??_C@_0M@HHKDDFJH@error?3?$CFs?5?$CFd?$AA@ DB 'error:%s %d', 00H ; `string'
CONST	ENDS
;	COMDAT ??_C@_0EF@ILLBNEEI@?$FL?$CFs?$FN?$FL?$CFs?$FN?5CGItemDropRequest?$CI?$CJ?5Fai@
CONST	SEGMENT
??_C@_0EF@ILLBNEEI@?$FL?$CFs?$FN?$FL?$CFs?$FN?5CGItemDropRequest?$CI?$CJ?5Fai@ DB '['
	DB	'%s][%s] CGItemDropRequest() Failed : Transaction == 1, IF_TYP'
	DB	'E : %d', 00H				; `string'
CONST	ENDS
;	COMDAT ??_C@_0EJ@FINNND@?$FLANTI?9HACK?$FN?$FLItem?5Duplication?$FN?5?9?5@
CONST	SEGMENT
??_C@_0EJ@FINNND@?$FLANTI?9HACK?$FN?$FLItem?5Duplication?$FN?5?9?5@ DB '['
	DB	'ANTI-HACK][Item Duplication] - Item Drop during MapServer Mov'
	DB	'e [%s][%s]', 00H				; `string'
CONST	ENDS
;	COMDAT ??_C@_0EO@IHPJKMLA@?$FLIllusion?5Temple?$FN?5?$CI?$CFd?$CJ?5?$CIAccount?3@
CONST	SEGMENT
??_C@_0EO@IHPJKMLA@?$FLIllusion?5Temple?$FN?5?$CI?$CFd?$CJ?5?$CIAccount?3@ DB '['
	DB	'Illusion Temple] (%d) (Account:%s, Name:%s) picked up Relics '
	DB	'Item(serial:%u)', 00H			; `string'
CONST	ENDS
;	COMDAT ??_C@_0EN@INJOAAFP@?$FLBlood?5Castle?$FN?5?$CI?$CFd?$CJ?5?$CIAccount?3?$CFs?0@
CONST	SEGMENT
??_C@_0EN@INJOAAFP@?$FLBlood?5Castle?$FN?5?$CI?$CFd?$CJ?5?$CIAccount?3?$CFs?0@ DB '['
	DB	'Blood Castle] (%d) (Account:%s, Name:%s) picked up Angel King'
	DB	'''s Weapon (%d)', 00H			; `string'
CONST	ENDS
;	COMDAT ??_C@_0DF@EMLONCAM@?$FLAcheron?$FN?5?$FL?$CFs?$FN?$FL?$CFs?$FN?5Make?5Spirit?5M@
CONST	SEGMENT
??_C@_0DF@EMLONCAM@?$FLAcheron?$FN?5?$FL?$CFs?$FN?$FL?$CFs?$FN?5Make?5Spirit?5M@ DB '['
	DB	'Acheron] [%s][%s] Make Spirit Map (Left Old Map:%d)', 00H ; `string'
CONST	ENDS
;	COMDAT ??_C@_0EJ@KBMFDFFG@?$FLImperialGuardianFort?$FN?5?$FL?$CFs?$FN?$FL?$CFs?$FN?5@
CONST	SEGMENT
??_C@_0EJ@KBMFDFFG@?$FLImperialGuardianFort?$FN?5?$FL?$CFs?$FN?$FL?$CFs?$FN?5@ DB '['
	DB	'ImperialGuardianFort] [%s][%s] Make Imperial Letter (Left Old'
	DB	' Paper:%d)', 00H				; `string'
CONST	ENDS
;	COMDAT ??_C@_0EH@MPCKANHC@?$FLDoppelganger?$FN?5?$FL?$CFs?$FN?$FL?$CFs?$FN?5Make?5Dim@
CONST	SEGMENT
??_C@_0EH@MPCKANHC@?$FLDoppelganger?$FN?5?$FL?$CFs?$FN?$FL?$CFs?$FN?5Make?5Dim@ DB '['
	DB	'Doppelganger] [%s][%s] Make Dimension Mirror (Left Dimension '
	DB	'Mark:%d)', 00H				; `string'
CONST	ENDS
;	COMDAT ??_C@_0DN@NBANJING@?$FLKalima?$FN?5?$FL?$CFs?$FN?$FL?$CFs?$FN?5Make?5Lost?5Kali@
CONST	SEGMENT
??_C@_0DN@NBANJING@?$FLKalima?$FN?5?$FL?$CFs?$FN?$FL?$CFs?$FN?5Make?5Lost?5Kali@ DB '['
	DB	'Kalima] [%s][%s] Make Lost Kalima Map (Left Kundun Mark:%d)', 00H ; `string'
CONST	ENDS
;	COMDAT ??_C@_0EH@LLDKIPIA@?$FL?5ChangeRing?5?$FN?5Too?5many?5have?5Cha@
CONST	SEGMENT
??_C@_0EH@LLDKIPIA@?$FL?5ChangeRing?5?$FN?5Too?5many?5have?5Cha@ DB '[ Ch'
	DB	'angeRing ] Too many have ChangeRing [%s][%s] ( Name:%s, Count'
	DB	':%d )', 00H					; `string'
CONST	ENDS
;	COMDAT ??_C@_0FD@GAPCMOG@?$FL?5MoonStonePendant?5?$FN?5Too?5many?5ha@
CONST	SEGMENT
??_C@_0FD@GAPCMOG@?$FL?5MoonStonePendant?5?$FN?5Too?5many?5ha@ DB '[ Moon'
	DB	'StonePendant ] Too many have MoonStonePendant [%s][%s] ( Name'
	DB	':%s, Count:%d )', 00H			; `string'
CONST	ENDS
;	COMDAT ??_C@_0EI@IFAFBJMM@?$FLRing?5Event?$FN?5Too?5many?5have?5Magic@
CONST	SEGMENT
??_C@_0EI@IFAFBJMM@?$FLRing?5Event?$FN?5Too?5many?5have?5Magic@ DB '[Ring'
	DB	' Event] Too many have Magician''s Ring [%s][%s] (Name:%s, Cou'
	DB	'nt:%d)', 00H				; `string'
CONST	ENDS
;	COMDAT ??_C@_0BB@LBNJKNBE@error?9L3?5?3?5?$CFs?5?$CFd?$AA@
CONST	SEGMENT
??_C@_0BB@LBNJKNBE@error?9L3?5?3?5?$CFs?5?$CFd?$AA@ DB 'error-L3 : %s %d', 00H ; `string'
CONST	ENDS
;	COMDAT ??_C@_0EE@JLFGKDAP@?$FL?$CFs?$FN?$FL?$CFs?$FN?5CGItemGetRequest?$CI?$CJ?5Fail@
CONST	SEGMENT
??_C@_0EE@JLFGKDAP@?$FL?$CFs?$FN?$FL?$CFs?$FN?5CGItemGetRequest?$CI?$CJ?5Fail@ DB '['
	DB	'%s][%s] CGItemGetRequest() Failed : Transaction == 1, IF_TYPE'
	DB	' : %d', 00H					; `string'
CONST	ENDS
;	COMDAT ??_C@_0CG@NFDFKIHI@?$FLFix?5Inv?4Ptr?$FN?5False?5Location?5?9?5?$CF@
CONST	SEGMENT
??_C@_0CG@NFDFKIHI@?$FLFix?5Inv?4Ptr?$FN?5False?5Location?5?9?5?$CF@ DB '['
	DB	'Fix Inv.Ptr] False Location - %s, %d', 00H	; `string'
CONST	ENDS
;	COMDAT ??_C@_0BO@KLPIKBAN@Option?5Send?5?$CFd?5?$CFd?5?$CFd?5?$CFd?5?$CFd?5?$CFd?$AA@
CONST	SEGMENT
??_C@_0BO@KLPIKBAN@Option?5Send?5?$CFd?5?$CFd?5?$CFd?5?$CFd?5?$CFd?5?$CFd?$AA@ DB 'O'
	DB	'ption Send %d %d %d %d %d %d', 00H		; `string'
CONST	ENDS
;	COMDAT ??_C@_0BO@LCFCBICD@Option?5Recv?5?$CFd?5?$CFd?5?$CFd?5?$CFd?5?$CFd?5?$CFd?$AA@
CONST	SEGMENT
??_C@_0BO@LCFCBICD@Option?5Recv?5?$CFd?5?$CFd?5?$CFd?5?$CFd?5?$CFd?5?$CFd?$AA@ DB 'O'
	DB	'ption Recv %d %d %d %d %d %d', 00H		; `string'
CONST	ENDS
;	COMDAT ??_C@_0BJ@HPDAEMEM@Character?5delete?5?3?5?$CFs?0?$CFs?$AA@
CONST	SEGMENT
??_C@_0BJ@HPDAEMEM@Character?5delete?5?3?5?$CFs?0?$CFs?$AA@ DB 'Character'
	DB	' delete : %s,%s', 00H			; `string'
CONST	ENDS
;	COMDAT ??_C@_0FD@NNHNDILD@?$FLAnti?9HACK?$FN?$FLCGPCharDel?$FN?5Attempte@
CONST	SEGMENT
??_C@_0FD@NNHNDILD@?$FLAnti?9HACK?$FN?$FLCGPCharDel?$FN?5Attempte@ DB '[A'
	DB	'nti-HACK][CGPCharDel] Attempted Character Delete during Preve'
	DB	'nted Time. [%s][%s]', 00H			; `string'
CONST	ENDS
;	COMDAT ??_C@_0EN@HJCICDL@?$FLAnti?9HACK?$FN?$FLCGPCharDel?$FN?5Attempte@
CONST	SEGMENT
??_C@_0EN@HJCICDL@?$FLAnti?9HACK?$FN?$FLCGPCharDel?$FN?5Attempte@ DB '[An'
	DB	'ti-HACK][CGPCharDel] Attempted Character Delete during GamePl'
	DB	'ay. [%s][%s]', 00H				; `string'
CONST	ENDS
;	COMDAT ??_C@_0BJ@GDNNOEGN@Character?5create?5?3?5?$CFs?0?$CFs?$AA@
CONST	SEGMENT
??_C@_0BJ@GDNNOEGN@Character?5create?5?3?5?$CFs?0?$CFs?$AA@ DB 'Character'
	DB	' create : %s,%s', 00H			; `string'
CONST	ENDS
;	COMDAT ??_C@_0CP@FFBFNNND@error?9L1?3?5Darklord?5Character?5cre@
CONST	SEGMENT
??_C@_0CP@FFBFNNND@error?9L1?3?5Darklord?5Character?5cre@ DB 'error-L1: D'
	DB	'arklord Character create error [%s]', 00H	; `string'
CONST	ENDS
;	COMDAT ??_C@_0CO@FCKNKLJK@error?9L1?3?5Magumsa?5Character?5crea@
CONST	SEGMENT
??_C@_0CO@FCKNKLJK@error?9L1?3?5Magumsa?5Character?5crea@ DB 'error-L1: M'
	DB	'agumsa Character create error [%s]', 00H	; `string'
CONST	ENDS
;	COMDAT ??_C@_0DN@NJBNDAEI@?$FL?$CFs?$FN?5Create?5character?5error?5?$CIReq@
CONST	SEGMENT
??_C@_0DN@NJBNDAEI@?$FL?$CFs?$FN?5Create?5character?5error?5?$CIReq@ DB '['
	DB	'%s] Create character error (ReqLevel: %d, AccountLevel: %d)', 00H ; `string'
CONST	ENDS
;	COMDAT ??_C@_0CA@LCMJGFID@Character?5creation?5is?5disabled?$CB?$AA@
CONST	SEGMENT
??_C@_0CA@LCMJGFID@Character?5creation?5is?5disabled?$CB?$AA@ DB 'Charact'
	DB	'er creation is disabled!', 00H		; `string'
CONST	ENDS
;	COMDAT ??_C@_0FF@BEFIFKBL@?$FLAnti?9HACK?$FN?$FLCGPCharacterCreate?$FN?5@
CONST	SEGMENT
??_C@_0FF@BEFIFKBL@?$FLAnti?9HACK?$FN?$FLCGPCharacterCreate?$FN?5@ DB '[A'
	DB	'nti-HACK][CGPCharacterCreate] Attempted Character Create duri'
	DB	'ng GamePlay. [%s][%s]', 00H			; `string'
CONST	ENDS
;	COMDAT ??_C@_0CI@KOHNJIIP@error?9L1?5?3?5HackCheck?5?$FL?$CFs?$FN?$FL?$CFs?$FN?50x@
CONST	SEGMENT
??_C@_0CI@KOHNJIIP@error?9L1?5?3?5HackCheck?5?$FL?$CFs?$FN?$FL?$CFs?$FN?50x@ DB 'e'
	DB	'rror-L1 : HackCheck [%s][%s] 0x%x 0x%x', 00H ; `string'
CONST	ENDS
;	COMDAT ??_C@_0DG@JEMIEEON@?$FLUserSelClose?$FN?5Go?5CharSelect?5?$FL?$CFs@
CONST	SEGMENT
??_C@_0DG@JEMIEEON@?$FLUserSelClose?$FN?5Go?5CharSelect?5?$FL?$CFs@ DB '['
	DB	'UserSelClose] Go CharSelect [%s][%s] Map:[%d][%d/%d]', 00H ; `string'
CONST	ENDS
;	COMDAT ??_C@_0DG@MAGKNHGP@?$FLUserSelClose?$FN?5Go?5ServerList?5?$FL?$CFs@
CONST	SEGMENT
??_C@_0DG@MAGKNHGP@?$FLUserSelClose?$FN?5Go?5ServerList?5?$FL?$CFs@ DB '['
	DB	'UserSelClose] Go ServerList [%s][%s] Map:[%d][%d/%d]', 00H ; `string'
CONST	ENDS
;	COMDAT ??_C@_0DA@BEHJLACI@?$FLUserSelClose?$FN?5Go?5Exit?5?$FL?$CFs?$FN?$FL?$CFs?$FN?5@
CONST	SEGMENT
??_C@_0DA@BEHJLACI@?$FLUserSelClose?$FN?5Go?5Exit?5?$FL?$CFs?$FN?$FL?$CFs?$FN?5@ DB '['
	DB	'UserSelClose] Go Exit [%s][%s] Map:[%d][%d/%d]', 00H ; `string'
CONST	ENDS
;	COMDAT ??_C@_0BD@CNPHLENH@login?5send?5?3?5?$CFs?5?$CFs?$AA@
CONST	SEGMENT
??_C@_0BD@CNPHLENH@login?5send?5?3?5?$CFs?5?$CFs?$AA@ DB 'login send : %s'
	DB	' %s', 00H					; `string'
CONST	ENDS
;	COMDAT ??_C@_04FLFDNKBN@m321?$AA@
CONST	SEGMENT
??_C@_04FLFDNKBN@m321?$AA@ DB 'm321', 00H		; `string'
CONST	ENDS
;	COMDAT ??_C@_08NPLAPO@?$LN?$LI?$LF?$LJ?$MA?L?$CFd?$AA@
CONST	SEGMENT
??_C@_08NPLAPO@?$LN?$LI?$LF?$LJ?$MA?L?$CFd?$AA@ DB 0bdH, 0b8H, 0b5H, 0b9H
	DB	0c0H, 0ccH, '%d', 00H			; `string'
CONST	ENDS
;	COMDAT ??_C@_0BD@CICILPEN@join?5send?5?3?5?$CI?$CFd?$CJ?$CFs?$AA@
CONST	SEGMENT
??_C@_0BD@CICILPEN@join?5send?5?3?5?$CI?$CFd?$CJ?$CFs?$AA@ DB 'join send '
	DB	': (%d)%s', 00H				; `string'
CONST	ENDS
;	COMDAT ??_C@_0BB@PPEDKKBK@error?5?3?5?$CFd?5?$CFs?5?$CFd?$AA@
CONST	SEGMENT
??_C@_0BB@PPEDKKBK@error?5?3?5?$CFd?5?$CFs?5?$CFd?$AA@ DB 'error : %d %s '
	DB	'%d', 00H					; `string'
CONST	ENDS
;	COMDAT ??_C@_0CB@GGKFEOLP@error?9L1?3?5Serial?5error?5?$FL?$CFs?$FN?5?$FL?$CFs?$FN@
CONST	SEGMENT
??_C@_0CB@GGKFEOLP@error?9L1?3?5Serial?5error?5?$FL?$CFs?$FN?5?$FL?$CFs?$FN@ DB 'e'
	DB	'rror-L1: Serial error [%s] [%s]', 00H	; `string'
CONST	ENDS
;	COMDAT ??_C@_0BM@KJGOCGNH@Need?5more?5zen?5for?5gens?5chat?$AA@
CONST	SEGMENT
??_C@_0BM@KJGOCGNH@Need?5more?5zen?5for?5gens?5chat?$AA@ DB 'Need more ze'
	DB	'n for gens chat', 00H			; `string'
CONST	ENDS
;	COMDAT ??_C@_08IOFCDDNP@?1post?5?$CFs?$AA@
CONST	SEGMENT
??_C@_08IOFCDDNP@?1post?5?$CFs?$AA@ DB '/post %s', 00H	; `string'
CONST	ENDS
;	COMDAT ??_C@_0BB@FKJLBJJB@Incorrect?5syntax?$AA@
CONST	SEGMENT
??_C@_0BB@FKJLBJJB@Incorrect?5syntax?$AA@ DB 'Incorrect syntax', 00H ; `string'
CONST	ENDS
;	COMDAT ??_C@_0DF@BCJCJNCO@?$FLAnti?9HACK?$FN?$FLPChatProc?$FN?$FL?$CFs?$FN?$FL?$CFs?$FN?5C@
CONST	SEGMENT
??_C@_0DF@BCJCJNCO@?$FLAnti?9HACK?$FN?$FLPChatProc?$FN?$FL?$CFs?$FN?$FL?$CFs?$FN?5C@ DB '['
	DB	'Anti-HACK][PChatProc][%s][%s] Chat Message Len : %d', 00H ; `string'
CONST	ENDS
;	COMDAT ??_C@_0EJ@EJAGKNML@?$FL?$CFs?$FN?$FL?$CFs?$FN?$FL?$CFs?$FN?5ClientHack?5Detected@
CONST	SEGMENT
??_C@_0EJ@EJAGKNML@?$FL?$CFs?$FN?$FL?$CFs?$FN?$FL?$CFs?$FN?5ClientHack?5Detected@ DB '['
	DB	'%s][%s][%s] ClientHack Detected : Editing AttackSpeed [%d][%d'
	DB	'] [%d][%d]', 00H				; `string'
CONST	ENDS
;	COMDAT ??_C@_0P@KNPEEFN@TEST?5Data?5Send?$AA@
CONST	SEGMENT
??_C@_0P@KNPEEFN@TEST?5Data?5Send?$AA@ DB 'TEST Data Send', 00H ; `string'
CONST	ENDS
;	COMDAT ??_C@_0DH@ONNNLLKC@error?9L2?5?3?5account?3?$CFs?5name?3?$CFs?5HE@
CONST	SEGMENT
??_C@_0DH@ONNNLLKC@error?9L2?5?3?5account?3?$CFs?5name?3?$CFs?5HE@ DB 'er'
	DB	'ror-L2 : account:%s name:%s HEAD:%x (%s,%d) State:%d', 00H ; `string'
CONST	ENDS
;	COMDAT ??_C@_0N@ENFKFPKA@protocol?4cpp?$AA@
CONST	SEGMENT
??_C@_0N@ENFKFPKA@protocol?4cpp?$AA@ DB 'protocol.cpp', 00H ; `string'
CONST	ENDS
;	COMDAT ??_C@_0BM@BJHJAKKO@?$FL0xBF?$FN?5Unknown?5packet?5BF?3?$CFd?$AA@
CONST	SEGMENT
??_C@_0BM@BJHJAKKO@?$FL0xBF?$FN?5Unknown?5packet?5BF?3?$CFd?$AA@ DB '[0xB'
	DB	'F] Unknown packet BF:%d', 00H		; `string'
CONST	ENDS
;	COMDAT ??_C@_0L@HMJAEILC@1111111111?$AA@
CONST	SEGMENT
??_C@_0L@HMJAEILC@1111111111?$AA@ DB '1111111111', 00H	; `string'
CONST	ENDS
;	COMDAT ??_C@_0DG@JHLFDPKE@Error?9L1?5?3?5Socket?5Serial?5?$CFs?5?$CFd?5o@
CONST	SEGMENT
??_C@_0DG@JHLFDPKE@Error?9L1?5?3?5Socket?5Serial?5?$CFs?5?$CFd?5o@ DB 'Er'
	DB	'ror-L1 : Socket Serial %s %d o_serial:%d serial:%d ', 00H ; `string'
CONST	ENDS
;	COMDAT ??_C@_0BN@LAHEKONH@Error?9L1?5?3?5Not?5Encrypt?5?$CFs?5?$CFd?$AA@
CONST	SEGMENT
??_C@_0BN@LAHEKONH@Error?9L1?5?3?5Not?5Encrypt?5?$CFs?5?$CFd?$AA@ DB 'Err'
	DB	'or-L1 : Not Encrypt %s %d', 00H		; `string'
CONST	ENDS
;	COMDAT ??_C@_07GDHHDJMO@Credits?$AA@
CONST	SEGMENT
??_C@_07GDHHDJMO@Credits?$AA@ DB 'Credits', 00H		; `string'
CONST	ENDS
;	COMDAT ??_C@_0O@BDDJAJFG@?4?2Log?2Credits?$AA@
CONST	SEGMENT
??_C@_0O@BDDJAJFG@?4?2Log?2Credits?$AA@ DB '.\Log\Credits', 00H ; `string'
CONST	ENDS
;	COMDAT ??_7_CS_NPC_DATA@@6B@
CONST	SEGMENT
??_7_CS_NPC_DATA@@6B@ DD FLAT:??_R4_CS_NPC_DATA@@6B@	; _CS_NPC_DATA::`vftable'
	DD	FLAT:??_E_CS_NPC_DATA@@UAEPAXI@Z
CONST	ENDS
;	COMDAT ??_C@_0BK@CPKHJPAP@QeustNpc?5RefCount?5Dec?$DN?5?$CFd?$AA@
CONST	SEGMENT
??_C@_0BK@CPKHJPAP@QeustNpc?5RefCount?5Dec?$DN?5?$CFd?$AA@ DB 'QeustNpc R'
	DB	'efCount Dec= %d', 00H			; `string'
CONST	ENDS
;	COMDAT ??_C@_0BA@JFNIOLAK@string?5too?5long?$AA@
CONST	SEGMENT
??_C@_0BA@JFNIOLAK@string?5too?5long?$AA@ DB 'string too long', 00H ; `string'
CONST	ENDS
;	COMDAT ??_C@_0BI@CFPLBAOH@invalid?5string?5position?$AA@
CONST	SEGMENT
??_C@_0BI@CFPLBAOH@invalid?5string?5position?$AA@ DB 'invalid string posi'
	DB	'tion', 00H					; `string'
CONST	ENDS
;	COMDAT ??_C@_01MNNFJEPP@?$DM?$AA@
CONST	SEGMENT
??_C@_01MNNFJEPP@?$DM?$AA@ DB '<', 00H			; `string'
CONST	ENDS
;	COMDAT ??_C@_00CNPNBAHC@?$AA@
CONST	SEGMENT
??_C@_00CNPNBAHC@?$AA@ DB 00H				; `string'
CONST	ENDS
;	COMDAT xdata$x
xdata$x	SEGMENT
__unwindtable$?getInstance@MonsterSpawnerMng@@SAPAV1@XZ DD 0ffffffffH
	DD	FLAT:__unwindfunclet$?getInstance@MonsterSpawnerMng@@SAPAV1@XZ$0
__ehfuncinfo$?getInstance@MonsterSpawnerMng@@SAPAV1@XZ DD 019930522H
	DD	01H
	DD	FLAT:__unwindtable$?getInstance@MonsterSpawnerMng@@SAPAV1@XZ
	DD	2 DUP(00H)
	DD	2 DUP(00H)
	DD	00H
	DD	01H
xdata$x	ENDS
;	COMDAT xdata$x
xdata$x	SEGMENT
__unwindtable$?CGReqNpcUpgrade@@YAXPAUPMSG_REQ_NPCUPGRADE@@H@Z DD 0ffffffffH
	DD	FLAT:__unwindfunclet$?CGReqNpcUpgrade@@YAXPAUPMSG_REQ_NPCUPGRADE@@H@Z$0
	DD	0ffffffffH
	DD	FLAT:__unwindfunclet$?CGReqNpcUpgrade@@YAXPAUPMSG_REQ_NPCUPGRADE@@H@Z$1
__ehfuncinfo$?CGReqNpcUpgrade@@YAXPAUPMSG_REQ_NPCUPGRADE@@H@Z DD 019930522H
	DD	02H
	DD	FLAT:__unwindtable$?CGReqNpcUpgrade@@YAXPAUPMSG_REQ_NPCUPGRADE@@H@Z
	DD	2 DUP(00H)
	DD	2 DUP(00H)
	DD	00H
	DD	01H
xdata$x	ENDS
;	COMDAT xdata$x
xdata$x	SEGMENT
__unwindtable$?CGReqNpcRepair@@YAXPAUPMSG_REQ_NPCREPAIR@@H@Z DD 0ffffffffH
	DD	FLAT:__unwindfunclet$?CGReqNpcRepair@@YAXPAUPMSG_REQ_NPCREPAIR@@H@Z$0
__ehfuncinfo$?CGReqNpcRepair@@YAXPAUPMSG_REQ_NPCREPAIR@@H@Z DD 019930522H
	DD	01H
	DD	FLAT:__unwindtable$?CGReqNpcRepair@@YAXPAUPMSG_REQ_NPCREPAIR@@H@Z
	DD	2 DUP(00H)
	DD	2 DUP(00H)
	DD	00H
	DD	01H
xdata$x	ENDS
;	COMDAT xdata$x
xdata$x	SEGMENT
__sehtable$?CGPShopReqBuyItem@@YAXPAUPMSG_REQ_BUYITEM_FROM_PSHOP@@H@Z DD 0ffffffe4H
	DD	00H
	DD	0ffffff14H
	DD	00H
	DD	0fffffffeH
	DD	00H
	DD	FLAT:$LN175@CGPShopReq
xdata$x	ENDS
;	COMDAT xdata$x
xdata$x	SEGMENT
__ehfuncinfo$??_EOBJECTSTRUCT@@QAEPAXI@Z DD 019930522H
	DD	00H
	DD	00H
	DD	2 DUP(00H)
	DD	2 DUP(00H)
	DD	00H
	DD	05H
xdata$x	ENDS
;	COMDAT xdata$x
xdata$x	SEGMENT
__catchsym$?_Copy@?$basic_string@DU?$char_traits@D@std@@V?$allocator@D@2@@std@@QAEXII@Z$129 DD 040H
	DD	00H
	DD	00H
	DD	FLAT:__catch$?_Copy@?$basic_string@DU?$char_traits@D@std@@V?$allocator@D@2@@std@@QAEXII@Z$0
__catchsym$?_Copy@?$basic_string@DU?$char_traits@D@std@@V?$allocator@D@2@@std@@QAEXII@Z$128 DD 040H
	DD	00H
	DD	00H
	DD	FLAT:__catch$?_Copy@?$basic_string@DU?$char_traits@D@std@@V?$allocator@D@2@@std@@QAEXII@Z$1
__unwindtable$?_Copy@?$basic_string@DU?$char_traits@D@std@@V?$allocator@D@2@@std@@QAEXII@Z DD 0ffffffffH
	DD	00H
	DD	0ffffffffH
	DD	00H
	DD	01H
	DD	00H
	DD	01H
	DD	00H
__ehfuncinfo$?_Copy@?$basic_string@DU?$char_traits@D@std@@V?$allocator@D@2@@std@@QAEXII@Z DD 019930522H
	DD	04H
	DD	FLAT:__unwindtable$?_Copy@?$basic_string@DU?$char_traits@D@std@@V?$allocator@D@2@@std@@QAEXII@Z
	DD	02H
	DD	FLAT:__tryblocktable$?_Copy@?$basic_string@DU?$char_traits@D@std@@V?$allocator@D@2@@std@@QAEXII@Z
	DD	2 DUP(00H)
	DD	00H
	DD	01H
__tryblocktable$?_Copy@?$basic_string@DU?$char_traits@D@std@@V?$allocator@D@2@@std@@QAEXII@Z DD 02H
	DD	02H
	DD	03H
	DD	01H
	DD	FLAT:__catchsym$?_Copy@?$basic_string@DU?$char_traits@D@std@@V?$allocator@D@2@@std@@QAEXII@Z$128
	DD	00H
	DD	00H
	DD	03H
	DD	01H
	DD	FLAT:__catchsym$?_Copy@?$basic_string@DU?$char_traits@D@std@@V?$allocator@D@2@@std@@QAEXII@Z$129
xdata$x	ENDS
; Function compile flags: /Ogtp
; File c:\users\michel\desktop\source\gameserver\source\protocol.cpp
; File c:\users\michel\desktop\source\gameserver\include\prodef.h
; File c:\users\michel\desktop\source\gameserver\source\protocol.cpp
; File c:\users\michel\desktop\source\gameserver\include\prodef.h
; File c:\users\michel\desktop\source\gameserver\source\protocol.cpp
;	COMDAT ?GCAnsCsNotifyProgress@@YAXHEPBD@Z
_TEXT	SEGMENT
_pMsgResult$ = -20					; size = 13
__$ArrayPad$ = -4					; size = 4
_iIndex$ = 8						; size = 4
_btCastleSiegeState$ = 12				; size = 1
_lpszGuildName$ = 16					; size = 4
?GCAnsCsNotifyProgress@@YAXHEPBD@Z PROC			; GCAnsCsNotifyProgress, COMDAT

; 19049: {

  00000	55		 push	 ebp
  00001	8b ec		 mov	 ebp, esp
  00003	83 ec 14	 sub	 esp, 20			; 00000014H
  00006	a1 00 00 00 00	 mov	 eax, DWORD PTR ___security_cookie
  0000b	33 c5		 xor	 eax, ebp
  0000d	89 45 fc	 mov	 DWORD PTR __$ArrayPad$[ebp], eax
  00010	8b 4d 10	 mov	 ecx, DWORD PTR _lpszGuildName$[ebp]

; 19050: 	if ( lpszGuildName == NULL )

  00013	85 c9		 test	 ecx, ecx
  00015	74 35		 je	 SHORT $LN1@GCAnsCsNot

; 19051: 		return;
; 19052: 
; 19053: 	PMSG_ANS_NOTIFYCSPROGRESS pMsgResult;
; 19054: 
; 19055: 	pMsgResult.h.set((LPBYTE)&pMsgResult, 0xB2, 0x18, sizeof(pMsgResult));
; 19056: 	pMsgResult.btCastleSiegeState = btCastleSiegeState;

  00017	8a 45 0c	 mov	 al, BYTE PTR _btCastleSiegeState$[ebp]
  0001a	0f 57 c0	 xorps	 xmm0, xmm0
  0001d	88 45 f0	 mov	 BYTE PTR _pMsgResult$[ebp+4], al
; File c:\users\michel\desktop\source\gameserver\include\prodef.h

; 141  : 		lpBuf[1] = size;

  00020	b2 0d		 mov	 dl, 13			; 0000000dH
; File c:\users\michel\desktop\source\gameserver\source\protocol.cpp

; 19058: 	memcpy(pMsgResult.szGuildName, lpszGuildName, sizeof(pMsgResult.szGuildName));

  00022	8b 01		 mov	 eax, DWORD PTR [ecx]
  00024	66 0f d6 45 f1	 movq	 QWORD PTR _pMsgResult$[ebp+5], xmm0
  00029	89 45 f1	 mov	 DWORD PTR _pMsgResult$[ebp+5], eax
  0002c	8b 41 04	 mov	 eax, DWORD PTR [ecx+4]
  0002f	89 45 f5	 mov	 DWORD PTR _pMsgResult$[ebp+9], eax

; 19060: 	DataSend(iIndex, (UCHAR*)&pMsgResult, pMsgResult.h.size);

  00032	0f b6 c2	 movzx	 eax, dl
  00035	50		 push	 eax
  00036	8d 45 ec	 lea	 eax, DWORD PTR _pMsgResult$[ebp]
; File c:\users\michel\desktop\source\gameserver\include\prodef.h

; 140  : 		lpBuf[0] = 0xC1;

  00039	c7 45 ec c1 0d
	b2 18		 mov	 DWORD PTR _pMsgResult$[ebp], 414322113 ; 18b20dc1H
; File c:\users\michel\desktop\source\gameserver\source\protocol.cpp

; 19060: 	DataSend(iIndex, (UCHAR*)&pMsgResult, pMsgResult.h.size);

  00040	50		 push	 eax
  00041	ff 75 08	 push	 DWORD PTR _iIndex$[ebp]
  00044	e8 00 00 00 00	 call	 ?DataSend@@YAHHPAEK@Z	; DataSend
  00049	83 c4 0c	 add	 esp, 12			; 0000000cH
$LN1@GCAnsCsNot:

; 19061: }

  0004c	8b 4d fc	 mov	 ecx, DWORD PTR __$ArrayPad$[ebp]
  0004f	33 cd		 xor	 ecx, ebp
  00051	e8 00 00 00 00	 call	 @__security_check_cookie@4
  00056	8b e5		 mov	 esp, ebp
  00058	5d		 pop	 ebp
  00059	c3		 ret	 0
?GCAnsCsNotifyProgress@@YAXHEPBD@Z ENDP			; GCAnsCsNotifyProgress
_TEXT	ENDS
; Function compile flags: /Ogtp
; File c:\program files (x86)\windows kits\10\include\10.0.10240.0\ucrt\stdio.h
;	COMDAT ??$sprintf_s@$0BAA@@@YAHAAY0BAA@DPBDZZ
_TEXT	SEGMENT
__Buffer$ = 8						; size = 4
__Format$ = 12						; size = 4
??$sprintf_s@$0BAA@@@YAHAAY0BAA@DPBDZZ PROC		; sprintf_s<256>, COMDAT

; 1850 :     )

  00000	55		 push	 ebp
  00001	8b ec		 mov	 ebp, esp

; 1494 :     int const _Result = __stdio_common_vsprintf_s(

  00003	8d 45 10	 lea	 eax, DWORD PTR __Format$[ebp+4]
  00006	50		 push	 eax
  00007	6a 00		 push	 0
  00009	ff 75 0c	 push	 DWORD PTR __Format$[ebp]
  0000c	68 00 01 00 00	 push	 256			; 00000100H
  00011	ff 75 08	 push	 DWORD PTR __Buffer$[ebp]
  00014	e8 00 00 00 00	 call	 ___local_stdio_printf_options
  00019	ff 70 04	 push	 DWORD PTR [eax+4]
  0001c	ff 30		 push	 DWORD PTR [eax]
  0001e	e8 00 00 00 00	 call	 ___stdio_common_vsprintf_s

; 1495 :         _CRT_INTERNAL_LOCAL_PRINTF_OPTIONS,
; 1496 :         _Buffer, _BufferCount, _Format, _Locale, _ArgList);
; 1497 : 
; 1498 :     return _Result < 0 ? -1 : _Result;

  00023	83 c9 ff	 or	 ecx, -1
  00026	83 c4 1c	 add	 esp, 28			; 0000001cH
  00029	85 c0		 test	 eax, eax
  0002b	0f 48 c1	 cmovs	 eax, ecx

; 1499 : }
; 1500 : #endif
; 1501 : 
; 1502 : #if __STDC_WANT_SECURE_LIB__
; 1503 : 
; 1504 :     _Success_(return >= 0)
; 1505 :     _Check_return_opt_
; 1506 :     _CRT_STDIO_INLINE int __CRTDECL vsprintf_s(
; 1507 :         _Out_writes_z_(_BufferCount)  char*       const _Buffer,
; 1508 :         _In_                          size_t      const _BufferCount,
; 1509 :         _In_z_ _Printf_format_string_ char const* const _Format,
; 1510 :                                       va_list           _ArgList
; 1511 :         )
; 1512 : #if defined _NO_CRT_STDIO_INLINE
; 1513 : ;
; 1514 : #else
; 1515 :     {
; 1516 :         return _vsprintf_s_l(_Buffer, _BufferCount, _Format, NULL, _ArgList);
; 1517 :     }
; 1518 : #endif
; 1519 :     
; 1520 :     __DEFINE_CPP_OVERLOAD_SECURE_FUNC_0_2(
; 1521 :         _Success_(return >= 0)
; 1522 :         int, vsprintf_s,
; 1523 :         _Post_z_                      char,        _Buffer,
; 1524 :         _In_z_ _Printf_format_string_ char const*, _Format,
; 1525 :                                       va_list,     _ArgList
; 1526 :         )
; 1527 : 
; 1528 : #endif
; 1529 : 
; 1530 : _Success_(return >= 0)
; 1531 : _Check_return_opt_
; 1532 : _CRT_STDIO_INLINE int __CRTDECL _vsprintf_p_l(
; 1533 :     _Out_writes_z_(_BufferCount)            char*       const _Buffer,
; 1534 :     _In_                                    size_t      const _BufferCount,
; 1535 :     _In_z_ _Printf_format_string_params_(2) char const* const _Format,
; 1536 :     _In_opt_                                _locale_t   const _Locale,
; 1537 :                                             va_list           _ArgList
; 1538 :     )
; 1539 : #if defined _NO_CRT_STDIO_INLINE
; 1540 : ;
; 1541 : #else
; 1542 : {
; 1543 :     int const _Result = __stdio_common_vsprintf_p(
; 1544 :         _CRT_INTERNAL_LOCAL_PRINTF_OPTIONS,
; 1545 :         _Buffer, _BufferCount, _Format, _Locale, _ArgList);
; 1546 : 
; 1547 :     return _Result < 0 ? -1 : _Result;
; 1548 : }
; 1549 : #endif
; 1550 : 
; 1551 : _Success_(return >= 0)
; 1552 : _Check_return_opt_
; 1553 : _CRT_STDIO_INLINE int __CRTDECL _vsprintf_p(
; 1554 :     _Out_writes_z_(_BufferCount)  char*       const _Buffer,
; 1555 :     _In_                          size_t      const _BufferCount,
; 1556 :     _In_z_ _Printf_format_string_ char const* const _Format,
; 1557 :                                   va_list           _ArgList
; 1558 :     )
; 1559 : #if defined _NO_CRT_STDIO_INLINE
; 1560 : ;
; 1561 : #else
; 1562 : {
; 1563 :     return _vsprintf_p_l(_Buffer, _BufferCount, _Format, NULL, _ArgList);
; 1564 : }
; 1565 : #endif
; 1566 : 
; 1567 : _Success_(return >= 0)
; 1568 : _Check_return_opt_
; 1569 : _CRT_STDIO_INLINE int __CRTDECL _vsnprintf_s_l(
; 1570 :     _Out_writes_z_(_BufferCount)            char*       const _Buffer,
; 1571 :     _In_                                    size_t      const _BufferCount,
; 1572 :     _In_                                    size_t      const _MaxCount,
; 1573 :     _In_z_ _Printf_format_string_params_(2) char const* const _Format,
; 1574 :     _In_opt_                                _locale_t   const _Locale,
; 1575 :                                             va_list          _ArgList
; 1576 :     )
; 1577 : #if defined _NO_CRT_STDIO_INLINE
; 1578 : ;
; 1579 : #else
; 1580 : {
; 1581 :     int const _Result = __stdio_common_vsnprintf_s(
; 1582 :         _CRT_INTERNAL_LOCAL_PRINTF_OPTIONS,
; 1583 :         _Buffer, _BufferCount, _MaxCount, _Format, _Locale, _ArgList);
; 1584 : 
; 1585 :     return _Result < 0 ? -1 : _Result;
; 1586 : }
; 1587 : #endif
; 1588 : 
; 1589 : _Success_(return >= 0)
; 1590 : _Check_return_opt_
; 1591 : _CRT_STDIO_INLINE int __CRTDECL _vsnprintf_s(
; 1592 :     _Out_writes_z_(_BufferCount)  char*       const _Buffer,
; 1593 :     _In_                          size_t      const _BufferCount,
; 1594 :     _In_                          size_t      const _MaxCount,
; 1595 :     _In_z_ _Printf_format_string_ char const* const _Format,
; 1596 :                                   va_list           _ArgList
; 1597 :     )
; 1598 : #if defined _NO_CRT_STDIO_INLINE
; 1599 : ;
; 1600 : #else
; 1601 : {
; 1602 :     return _vsnprintf_s_l(_Buffer, _BufferCount, _MaxCount, _Format, NULL, _ArgList);
; 1603 : }
; 1604 : #endif
; 1605 : 
; 1606 : __DEFINE_CPP_OVERLOAD_SECURE_FUNC_0_3(
; 1607 :     _Success_(return >= 0)
; 1608 :     int, _vsnprintf_s,
; 1609 :     _Post_z_                      char,        _Buffer,
; 1610 :     _In_                          size_t,      _BufferCount,
; 1611 :     _In_z_ _Printf_format_string_ char const*, _Format,
; 1612 :                                   va_list,     _ArgList
; 1613 :     )
; 1614 : 
; 1615 : #if __STDC_WANT_SECURE_LIB__
; 1616 : 
; 1617 :     _Success_(return >= 0)
; 1618 :     _Check_return_opt_
; 1619 :     _CRT_STDIO_INLINE int __CRTDECL vsnprintf_s(
; 1620 :         _Out_writes_z_(_BufferCount)  char*       const _Buffer,
; 1621 :         _In_                          size_t      const _BufferCount,
; 1622 :         _In_                          size_t      const _MaxCount,
; 1623 :         _In_z_ _Printf_format_string_ char const* const _Format,
; 1624 :                                       va_list           _ArgList
; 1625 :         )
; 1626 : #if defined _NO_CRT_STDIO_INLINE
; 1627 : ;
; 1628 : #else
; 1629 :     {
; 1630 :         return _vsnprintf_s_l(_Buffer, _BufferCount, _MaxCount, _Format, NULL, _ArgList);
; 1631 :     }
; 1632 : #endif
; 1633 :     
; 1634 :     __DEFINE_CPP_OVERLOAD_SECURE_FUNC_0_3(
; 1635 :         _Success_(return >= 0)
; 1636 :         int, vsnprintf_s,
; 1637 :         _Post_z_                      char,        _Buffer,
; 1638 :         _In_                          size_t,      _BufferCount,
; 1639 :         _In_z_ _Printf_format_string_ char const*, _Format,
; 1640 :                                       va_list,     _ArgList
; 1641 :         )
; 1642 : 
; 1643 : #endif
; 1644 : 
; 1645 : _Check_return_opt_
; 1646 : _CRT_STDIO_INLINE int __CRTDECL _vscprintf_l(
; 1647 :     _In_z_ _Printf_format_string_params_(2) char const* const _Format,
; 1648 :     _In_opt_                                _locale_t   const _Locale,
; 1649 :                                             va_list           _ArgList
; 1650 :     )
; 1651 : #if defined _NO_CRT_STDIO_INLINE
; 1652 : ;
; 1653 : #else
; 1654 : {
; 1655 :     int const _Result = __stdio_common_vsprintf(
; 1656 :         _CRT_INTERNAL_LOCAL_PRINTF_OPTIONS | _CRT_INTERNAL_PRINTF_STANDARD_SNPRINTF_BEHAVIOR,
; 1657 :         NULL, 0, _Format, _Locale, _ArgList);
; 1658 : 
; 1659 :     return _Result < 0 ? -1 : _Result;
; 1660 : }
; 1661 : #endif
; 1662 : 
; 1663 : _Check_return_
; 1664 : _CRT_STDIO_INLINE int __CRTDECL _vscprintf(
; 1665 :     _In_z_ _Printf_format_string_ char const* const _Format,
; 1666 :                                   va_list           _ArgList
; 1667 :     )
; 1668 : #if defined _NO_CRT_STDIO_INLINE
; 1669 : ;
; 1670 : #else
; 1671 : {
; 1672 :     return _vscprintf_l(_Format, NULL, _ArgList);
; 1673 : }
; 1674 : #endif
; 1675 : 
; 1676 : _Check_return_opt_
; 1677 : _CRT_STDIO_INLINE int __CRTDECL _vscprintf_p_l(
; 1678 :     _In_z_ _Printf_format_string_params_(2) char const* const _Format,
; 1679 :     _In_opt_                                _locale_t   const _Locale,
; 1680 :                                             va_list           _ArgList
; 1681 :     )
; 1682 : #if defined _NO_CRT_STDIO_INLINE
; 1683 : ;
; 1684 : #else
; 1685 : {
; 1686 :     int const _Result = __stdio_common_vsprintf_p(
; 1687 :         _CRT_INTERNAL_LOCAL_PRINTF_OPTIONS | _CRT_INTERNAL_PRINTF_STANDARD_SNPRINTF_BEHAVIOR,
; 1688 :         NULL, 0, _Format, _Locale, _ArgList);
; 1689 : 
; 1690 :     return _Result < 0 ? -1 : _Result;
; 1691 : }
; 1692 : #endif
; 1693 : 
; 1694 : _Check_return_
; 1695 : _CRT_STDIO_INLINE int __CRTDECL _vscprintf_p(
; 1696 :     _In_z_ _Printf_format_string_ char const* const _Format,
; 1697 :                                   va_list           _ArgList
; 1698 :     )
; 1699 : #if defined _NO_CRT_STDIO_INLINE
; 1700 : ;
; 1701 : #else
; 1702 : {
; 1703 :     return _vscprintf_p_l(_Format, NULL, _ArgList);
; 1704 : }
; 1705 : #endif
; 1706 : 
; 1707 : _Check_return_opt_
; 1708 : _CRT_STDIO_INLINE int __CRTDECL _vsnprintf_c_l(
; 1709 :     _Out_writes_(_BufferCount)              char*       const _Buffer,
; 1710 :     _In_                                    size_t      const _BufferCount,
; 1711 :     _In_z_ _Printf_format_string_params_(2) char const* const _Format,
; 1712 :     _In_opt_                                _locale_t   const _Locale,
; 1713 :                                             va_list           _ArgList
; 1714 :     )
; 1715 : #if defined _NO_CRT_STDIO_INLINE
; 1716 : ;
; 1717 : #else
; 1718 : {
; 1719 :     int const _Result = __stdio_common_vsprintf(
; 1720 :         _CRT_INTERNAL_LOCAL_PRINTF_OPTIONS,
; 1721 :         _Buffer, _BufferCount, _Format, _Locale, _ArgList);
; 1722 : 
; 1723 :     return _Result < 0 ? -1 : _Result;
; 1724 : }
; 1725 : #endif
; 1726 : 
; 1727 : _Success_(return >= 0)
; 1728 : _Check_return_opt_
; 1729 : _CRT_STDIO_INLINE int __CRTDECL _vsnprintf_c(
; 1730 :     _Out_writes_(_BufferCount)    char*       const _Buffer,
; 1731 :     _In_                          size_t      const _BufferCount,
; 1732 :     _In_z_ _Printf_format_string_ char const* const _Format,
; 1733 :                                   va_list           _ArgList
; 1734 :     )
; 1735 : #if defined _NO_CRT_STDIO_INLINE
; 1736 : ;
; 1737 : #else
; 1738 : {
; 1739 :     return _vsnprintf_c_l(_Buffer, _BufferCount, _Format, NULL, _ArgList);
; 1740 : }
; 1741 : #endif
; 1742 : 
; 1743 : _Check_return_opt_ _CRT_INSECURE_DEPRECATE(_sprintf_s_l)
; 1744 : _CRT_STDIO_INLINE int __CRTDECL _sprintf_l(
; 1745 :     _Pre_notnull_ _Post_z_                  char*       const _Buffer,
; 1746 :     _In_z_ _Printf_format_string_params_(0) char const* const _Format,
; 1747 :     _In_opt_                                _locale_t   const _Locale,
; 1748 :     ...)
; 1749 : #if defined _NO_CRT_STDIO_INLINE
; 1750 : ;
; 1751 : #else
; 1752 : {
; 1753 :     int _Result;
; 1754 :     va_list _ArgList;
; 1755 :     __crt_va_start(_ArgList, _Locale);
; 1756 : 
; 1757 :     #pragma warning(push)
; 1758 :     #pragma warning(disable: 4996) // Deprecation
; 1759 :     _Result = _vsprintf_l(_Buffer, _Format, _Locale, _ArgList);
; 1760 :     #pragma warning(pop)
; 1761 : 
; 1762 :     __crt_va_end(_ArgList);
; 1763 :     return _Result;
; 1764 : }
; 1765 : #endif
; 1766 : 
; 1767 : _Success_(return >= 0)
; 1768 : _Check_return_opt_
; 1769 : _CRT_STDIO_INLINE int __CRTDECL sprintf(
; 1770 :     _Pre_notnull_ _Post_z_        char*       const _Buffer,
; 1771 :     _In_z_ _Printf_format_string_ char const* const _Format,
; 1772 :     ...)
; 1773 : #if defined _NO_CRT_STDIO_INLINE
; 1774 : ;
; 1775 : #else
; 1776 : {
; 1777 :     int _Result;
; 1778 :     va_list _ArgList;
; 1779 :     __crt_va_start(_ArgList, _Format);
; 1780 : 
; 1781 :     #pragma warning(push)
; 1782 :     #pragma warning(disable: 4996) // Deprecation
; 1783 :     _Result = _vsprintf_l(_Buffer, _Format, NULL, _ArgList);
; 1784 :     #pragma warning(pop)
; 1785 : 
; 1786 :     __crt_va_end(_ArgList);
; 1787 :     return _Result;
; 1788 : }
; 1789 : #endif
; 1790 : 
; 1791 : #pragma warning(push)
; 1792 : #pragma warning(disable: 4996)
; 1793 : __DEFINE_CPP_OVERLOAD_STANDARD_FUNC_0_1_ARGLIST(
; 1794 :     _Success_(return >= 0)
; 1795 :     int, __RETURN_POLICY_SAME, __EMPTY_DECLSPEC, __CRTDECL, sprintf, vsprintf,
; 1796 :     _Pre_notnull_ _Post_z_,       char,        _Buffer,
; 1797 :     _In_z_ _Printf_format_string_ char const*, _Format
; 1798 :     )
; 1799 : #pragma warning(pop)
; 1800 : 
; 1801 : _Success_(return >= 0)
; 1802 : _Check_return_opt_
; 1803 : _CRT_STDIO_INLINE int __CRTDECL _sprintf_s_l(
; 1804 :     _Out_writes_z_(_BufferCount)            char*       const _Buffer,
; 1805 :     _In_                                    size_t      const _BufferCount,
; 1806 :     _In_z_ _Printf_format_string_params_(0) char const* const _Format,
; 1807 :     _In_opt_                                _locale_t   const _Locale,
; 1808 :     ...)
; 1809 : #if defined _NO_CRT_STDIO_INLINE
; 1810 : ;
; 1811 : #else
; 1812 : {
; 1813 :     int _Result;
; 1814 :     va_list _ArgList;
; 1815 :     __crt_va_start(_ArgList, _Locale);
; 1816 :     _Result = _vsprintf_s_l(_Buffer, _BufferCount, _Format, _Locale, _ArgList);
; 1817 :     __crt_va_end(_ArgList);
; 1818 :     return _Result;
; 1819 : }
; 1820 : #endif
; 1821 : 
; 1822 : #if __STDC_WANT_SECURE_LIB__
; 1823 : 
; 1824 :     _Success_(return >= 0)
; 1825 :     _Check_return_opt_
; 1826 :     _CRT_STDIO_INLINE int __CRTDECL sprintf_s(
; 1827 :         _Out_writes_z_(_BufferCount)  char*       const _Buffer,
; 1828 :         _In_                          size_t      const _BufferCount,
; 1829 :         _In_z_ _Printf_format_string_ char const* const _Format,
; 1830 :         ...)
; 1831 : #if defined _NO_CRT_STDIO_INLINE
; 1832 : ;
; 1833 : #else
; 1834 :     {
; 1835 :         int _Result;
; 1836 :         va_list _ArgList;
; 1837 :         __crt_va_start(_ArgList, _Format);
; 1838 :         _Result = _vsprintf_s_l(_Buffer, _BufferCount, _Format, NULL, _ArgList);
; 1839 :         __crt_va_end(_ArgList);
; 1840 :         return _Result;
; 1841 :     }
; 1842 : #endif
; 1843 : 
; 1844 : #endif
; 1845 : 
; 1846 : __DEFINE_CPP_OVERLOAD_SECURE_FUNC_0_1_ARGLIST(

  0002e	5d		 pop	 ebp
  0002f	c3		 ret	 0
??$sprintf_s@$0BAA@@@YAHAAY0BAA@DPBDZZ ENDP		; sprintf_s<256>
_TEXT	ENDS
; Function compile flags: /Ogtp
; File c:\users\michel\desktop\source\gameserver\source\protocol.cpp
;	COMDAT ?DataEncryptCheck@@YAHHEH@Z
_TEXT	SEGMENT
_aIndex$ = 8						; size = 4
_protoNum$ = 12						; size = 1
_Encrypt$ = 16						; size = 4
?DataEncryptCheck@@YAHHEH@Z PROC			; DataEncryptCheck, COMDAT

; 132  : {

  00000	55		 push	 ebp
  00001	8b ec		 mov	 ebp, esp

; 133  : 	if ( Encrypt == FALSE )

  00003	83 7d 10 00	 cmp	 DWORD PTR _Encrypt$[ebp], 0
  00007	75 33		 jne	 SHORT $LN2@DataEncryp

; 134  : 	{
; 135  : 		LogAdd("Error-L1 : Not Encrypt %s %d", gObj[aIndex].AccountID, protoNum);

  00009	0f b6 45 0c	 movzx	 eax, BYTE PTR _protoNum$[ebp]
  0000d	56		 push	 esi
  0000e	8b 75 08	 mov	 esi, DWORD PTR _aIndex$[ebp]
  00011	50		 push	 eax
  00012	a1 00 00 00 00	 mov	 eax, DWORD PTR ?gObj@@3PAUOBJECTSTRUCT@@A ; gObj
  00017	69 ce 40 27 00
	00		 imul	 ecx, esi, 10048
  0001d	83 c0 52	 add	 eax, 82			; 00000052H
  00020	03 c1		 add	 eax, ecx
  00022	50		 push	 eax
  00023	68 00 00 00 00	 push	 OFFSET ??_C@_0BN@LAHEKONH@Error?9L1?5?3?5Not?5Encrypt?5?$CFs?5?$CFd?$AA@
  00028	ff 15 00 00 00
	00		 call	 DWORD PTR ?LogAdd@@3P6AXPADZZA ; LogAdd

; 136  : 		CloseClient(aIndex);

  0002e	56		 push	 esi
  0002f	e8 00 00 00 00	 call	 ?CloseClient@@YAXH@Z	; CloseClient
  00034	83 c4 10	 add	 esp, 16			; 00000010H

; 137  : 		return FALSE;

  00037	33 c0		 xor	 eax, eax
  00039	5e		 pop	 esi

; 141  : }

  0003a	5d		 pop	 ebp
  0003b	c3		 ret	 0
$LN2@DataEncryp:

; 138  : 	}
; 139  : 
; 140  : 	return TRUE;

  0003c	b8 01 00 00 00	 mov	 eax, 1

; 141  : }

  00041	5d		 pop	 ebp
  00042	c3		 ret	 0
?DataEncryptCheck@@YAHHEH@Z ENDP			; DataEncryptCheck
_TEXT	ENDS
; Function compile flags: /Ogtp
;	COMDAT ??__Fg_CreditLog@@YAXXZ
text$yd	SEGMENT
??__Fg_CreditLog@@YAXXZ PROC				; `dynamic atexit destructor for 'g_CreditLog'', COMDAT
  00000	b9 00 00 00 00	 mov	 ecx, OFFSET ?g_CreditLog@@3VCLogToFile@@A ; g_CreditLog
  00005	e9 00 00 00 00	 jmp	 ??1CLogToFile@@QAE@XZ	; CLogToFile::~CLogToFile
??__Fg_CreditLog@@YAXXZ ENDP				; `dynamic atexit destructor for 'g_CreditLog''
text$yd	ENDS
; Function compile flags: /Ogtp
; File c:\users\michel\desktop\source\gameserver\source\protocol.cpp
;	COMDAT ??__Eg_CreditLog@@YAXXZ
text$di	SEGMENT
??__Eg_CreditLog@@YAXXZ PROC				; `dynamic initializer for 'g_CreditLog'', COMDAT

; 108  : CLogToFile g_CreditLog(LOG_NAME_CREDITS, LOG_PATH_CREDITS, TRUE);

  00000	6a 01		 push	 1
  00002	68 00 00 00 00	 push	 OFFSET ??_C@_0O@BDDJAJFG@?4?2Log?2Credits?$AA@
  00007	68 00 00 00 00	 push	 OFFSET ??_C@_07GDHHDJMO@Credits?$AA@
  0000c	b9 00 00 00 00	 mov	 ecx, OFFSET ?g_CreditLog@@3VCLogToFile@@A ; g_CreditLog
  00011	e8 00 00 00 00	 call	 ??0CLogToFile@@QAE@QAD0H@Z ; CLogToFile::CLogToFile
  00016	68 00 00 00 00	 push	 OFFSET ??__Fg_CreditLog@@YAXXZ ; `dynamic atexit destructor for 'g_CreditLog''
  0001b	e8 00 00 00 00	 call	 _atexit
  00020	59		 pop	 ecx
  00021	c3		 ret	 0
??__Eg_CreditLog@@YAXXZ ENDP				; `dynamic initializer for 'g_CreditLog''
text$di	ENDS
; Function compile flags: /Ogtp
; File c:\users\michel\desktop\source\gameserver\source\monsterspawner.h
;	COMDAT ?getInstance@MonsterSpawnerMng@@SAPAV1@XZ
_TEXT	SEGMENT
$T2 = -16						; size = 4
__$EHRec$ = -12						; size = 12
?getInstance@MonsterSpawnerMng@@SAPAV1@XZ PROC		; MonsterSpawnerMng::getInstance, COMDAT

; 137  : 	static MonsterSpawnerMng* getInstance() {

  00000	55		 push	 ebp
  00001	8b ec		 mov	 ebp, esp
  00003	6a ff		 push	 -1
  00005	68 00 00 00 00	 push	 __ehhandler$?getInstance@MonsterSpawnerMng@@SAPAV1@XZ
  0000a	64 a1 00 00 00
	00		 mov	 eax, DWORD PTR fs:0
  00010	50		 push	 eax
  00011	51		 push	 ecx
  00012	a1 00 00 00 00	 mov	 eax, DWORD PTR ___security_cookie
  00017	33 c5		 xor	 eax, ebp
  00019	50		 push	 eax
  0001a	8d 45 f4	 lea	 eax, DWORD PTR __$EHRec$[ebp]
  0001d	64 a3 00 00 00
	00		 mov	 DWORD PTR fs:0, eax

; 138  : 		if (m_Instance == NULL) {

  00023	a1 00 00 00 00	 mov	 eax, DWORD PTR ?m_Instance@MonsterSpawnerMng@@0PAV1@A ; MonsterSpawnerMng::m_Instance
  00028	85 c0		 test	 eax, eax
  0002a	75 3a		 jne	 SHORT $LN2@getInstanc

; 139  : 			m_Instance = new MonsterSpawnerMng();

  0002c	6a 1c		 push	 28			; 0000001cH
  0002e	e8 00 00 00 00	 call	 ??2@YAPAXI@Z		; operator new
  00033	83 c4 04	 add	 esp, 4
  00036	89 45 f0	 mov	 DWORD PTR $T2[ebp], eax
  00039	c7 45 fc 00 00
	00 00		 mov	 DWORD PTR __$EHRec$[ebp+8], 0
  00040	85 c0		 test	 eax, eax
  00042	74 1b		 je	 SHORT $LN4@getInstanc
  00044	8b c8		 mov	 ecx, eax
  00046	e8 00 00 00 00	 call	 ??0MonsterSpawnerMng@@QAE@XZ ; MonsterSpawnerMng::MonsterSpawnerMng
  0004b	a3 00 00 00 00	 mov	 DWORD PTR ?m_Instance@MonsterSpawnerMng@@0PAV1@A, eax ; MonsterSpawnerMng::m_Instance

; 140  : 		}
; 141  : 		return m_Instance;
; 142  : 	}

  00050	8b 4d f4	 mov	 ecx, DWORD PTR __$EHRec$[ebp]
  00053	64 89 0d 00 00
	00 00		 mov	 DWORD PTR fs:0, ecx
  0005a	59		 pop	 ecx
  0005b	8b e5		 mov	 esp, ebp
  0005d	5d		 pop	 ebp
  0005e	c3		 ret	 0
$LN4@getInstanc:

; 139  : 			m_Instance = new MonsterSpawnerMng();

  0005f	33 c0		 xor	 eax, eax
  00061	a3 00 00 00 00	 mov	 DWORD PTR ?m_Instance@MonsterSpawnerMng@@0PAV1@A, eax ; MonsterSpawnerMng::m_Instance
$LN2@getInstanc:

; 140  : 		}
; 141  : 		return m_Instance;
; 142  : 	}

  00066	8b 4d f4	 mov	 ecx, DWORD PTR __$EHRec$[ebp]
  00069	64 89 0d 00 00
	00 00		 mov	 DWORD PTR fs:0, ecx
  00070	59		 pop	 ecx
  00071	8b e5		 mov	 esp, ebp
  00073	5d		 pop	 ebp
  00074	c3		 ret	 0
_TEXT	ENDS
;	COMDAT text$x
text$x	SEGMENT
__unwindfunclet$?getInstance@MonsterSpawnerMng@@SAPAV1@XZ$0:
  00000	6a 1c		 push	 28			; 0000001cH
  00002	8b 45 f0	 mov	 eax, DWORD PTR $T2[ebp]
  00005	50		 push	 eax
  00006	e8 00 00 00 00	 call	 ??3@YAXPAXI@Z		; operator delete
  0000b	83 c4 08	 add	 esp, 8
  0000e	c3		 ret	 0
__ehhandler$?getInstance@MonsterSpawnerMng@@SAPAV1@XZ:
  0000f	8b 54 24 08	 mov	 edx, DWORD PTR [esp+8]
  00013	8d 42 0c	 lea	 eax, DWORD PTR [edx+12]
  00016	8b 4a f8	 mov	 ecx, DWORD PTR [edx-8]
  00019	33 c8		 xor	 ecx, eax
  0001b	e8 00 00 00 00	 call	 @__security_check_cookie@4
  00020	b8 00 00 00 00	 mov	 eax, OFFSET __ehfuncinfo$?getInstance@MonsterSpawnerMng@@SAPAV1@XZ
  00025	e9 00 00 00 00	 jmp	 ___CxxFrameHandler3
text$x	ENDS
?getInstance@MonsterSpawnerMng@@SAPAV1@XZ ENDP		; MonsterSpawnerMng::getInstance
; Function compile flags: /Ogtp
; File c:\users\michel\desktop\source\gameserver\source\newpvp.h
;	COMDAT ?IsPKFieldMap@CNewPVP@@QAEHH@Z
_TEXT	SEGMENT
_nMapNumber$ = 8					; size = 4
?IsPKFieldMap@CNewPVP@@QAEHH@Z PROC			; CNewPVP::IsPKFieldMap, COMDAT
; _this$ = ecx

; 312  : 	{

  00000	55		 push	 ebp
  00001	8b ec		 mov	 ebp, esp

; 313  : 		return nMapNumber == MAP_INDEX_PKFIELD;

  00003	33 c0		 xor	 eax, eax
  00005	83 7d 08 40	 cmp	 DWORD PTR _nMapNumber$[ebp], 64 ; 00000040H
  00009	0f 94 c0	 sete	 al

; 314  : 	}

  0000c	5d		 pop	 ebp
  0000d	c2 04 00	 ret	 4
?IsPKFieldMap@CNewPVP@@QAEHH@Z ENDP			; CNewPVP::IsPKFieldMap
_TEXT	ENDS
; Function compile flags: /Ogtp
; File c:\users\michel\desktop\source\gameserver\source\newpvp.h
;	COMDAT ?IsVulcanusMap@CNewPVP@@QAEHH@Z
_TEXT	SEGMENT
_nMapNumber$ = 8					; size = 4
?IsVulcanusMap@CNewPVP@@QAEHH@Z PROC			; CNewPVP::IsVulcanusMap, COMDAT
; _this$ = ecx

; 307  : 	{

  00000	55		 push	 ebp
  00001	8b ec		 mov	 ebp, esp

; 308  : 		return nMapNumber == MAP_INDEX_VULCANUS;

  00003	33 c0		 xor	 eax, eax
  00005	83 7d 08 3f	 cmp	 DWORD PTR _nMapNumber$[ebp], 63 ; 0000003fH
  00009	0f 94 c0	 sete	 al

; 309  : 	}

  0000c	5d		 pop	 ebp
  0000d	c2 04 00	 ret	 4
?IsVulcanusMap@CNewPVP@@QAEHH@Z ENDP			; CNewPVP::IsVulcanusMap
_TEXT	ENDS
; Function compile flags: /Ogtp
; File c:\users\michel\desktop\source\gameserver\source\newpvp.h
;	COMDAT ?IsDuel@CNewPVP@@QAEHAAUOBJECTSTRUCT@@@Z
_TEXT	SEGMENT
_obj$ = 8						; size = 4
?IsDuel@CNewPVP@@QAEHAAUOBJECTSTRUCT@@@Z PROC		; CNewPVP::IsDuel, COMDAT
; _this$ = ecx

; 296  : 	{

  00000	55		 push	 ebp
  00001	8b ec		 mov	 ebp, esp

; 297  : 		return CHECK_LIMIT(obj.m_iDuelUser, OBJMAX);

  00003	8b 45 08	 mov	 eax, DWORD PTR _obj$[ebp]
  00006	8b 88 50 12 00
	00		 mov	 ecx, DWORD PTR [eax+4688]
  0000c	33 c0		 xor	 eax, eax
  0000e	85 c9		 test	 ecx, ecx
  00010	78 09		 js	 SHORT $LN4@IsDuel
  00012	81 f9 eb 2c 00
	00		 cmp	 ecx, 11499		; 00002cebH
  00018	0f 9e c0	 setle	 al
$LN4@IsDuel:

; 298  : 	}

  0001b	5d		 pop	 ebp
  0001c	c2 04 00	 ret	 4
?IsDuel@CNewPVP@@QAEHAAUOBJECTSTRUCT@@@Z ENDP		; CNewPVP::IsDuel
_TEXT	ENDS
; Function compile flags: /Ogtp
; File c:\users\michel\desktop\source\gameserver\source\snakebegins.h
;	COMDAT ?IsScroll@SnakeBegins@@QAE_NG@Z
_TEXT	SEGMENT
_ItemType$ = 8						; size = 2
?IsScroll@SnakeBegins@@QAE_NG@Z PROC			; SnakeBegins::IsScroll, COMDAT
; _this$ = ecx

; 18   : 	bool	IsScroll(WORD ItemType) { return ItemType >= ITEMGET(14, 210) && ItemType <= ITEMGET(14, 213); };

  00000	55		 push	 ebp
  00001	8b ec		 mov	 ebp, esp
  00003	8b 45 08	 mov	 eax, DWORD PTR _ItemType$[ebp]
  00006	66 b9 03 00	 mov	 cx, 3
  0000a	05 2e e3 ff ff	 add	 eax, -7378		; ffffe32eH
  0000f	66 3b c8	 cmp	 cx, ax
  00012	1b c0		 sbb	 eax, eax
  00014	40		 inc	 eax
  00015	5d		 pop	 ebp
  00016	c2 04 00	 ret	 4
?IsScroll@SnakeBegins@@QAE_NG@Z ENDP			; SnakeBegins::IsScroll
_TEXT	ENDS
; Function compile flags: /Ogtp
; File c:\users\michel\desktop\source\gameserver\source\castlesiege.h
;	COMDAT ??_G_CS_NPC_DATA@@UAEPAXI@Z
_TEXT	SEGMENT
___flags$ = 8						; size = 4
??_G_CS_NPC_DATA@@UAEPAXI@Z PROC			; _CS_NPC_DATA::`scalar deleting destructor', COMDAT
; _this$ = ecx
  00000	55		 push	 ebp
  00001	8b ec		 mov	 ebp, esp
  00003	f6 45 08 01	 test	 BYTE PTR ___flags$[ebp], 1
  00007	56		 push	 esi
  00008	8b f1		 mov	 esi, ecx

; 75   : 	{

  0000a	c7 06 00 00 00
	00		 mov	 DWORD PTR [esi], OFFSET ??_7_CS_NPC_DATA@@6B@
  00010	74 0b		 je	 SHORT $LN7@scalar
  00012	6a 74		 push	 116			; 00000074H
  00014	56		 push	 esi
  00015	e8 00 00 00 00	 call	 ??3@YAXPAXI@Z		; operator delete
  0001a	83 c4 08	 add	 esp, 8
$LN7@scalar:
  0001d	8b c6		 mov	 eax, esi
  0001f	5e		 pop	 esi
  00020	5d		 pop	 ebp
  00021	c2 04 00	 ret	 4
??_G_CS_NPC_DATA@@UAEPAXI@Z ENDP			; _CS_NPC_DATA::`scalar deleting destructor'
_TEXT	ENDS
; Function compile flags: /Ogtp
; File c:\users\michel\desktop\source\gameserver\source\castlesiege.h
;	COMDAT ?Clear@_CS_NPC_DATA@@QAEXXZ
_TEXT	SEGMENT
?Clear@_CS_NPC_DATA@@QAEXXZ PROC			; _CS_NPC_DATA::Clear, COMDAT
; _this$ = ecx

; 81   : 		m_bIN_USE = 0;

  00000	c7 41 04 00 00
	00 00		 mov	 DWORD PTR [ecx+4], 0

; 82   : 		m_iNPC_NUM = -1;

  00007	c7 41 08 ff ff
	ff ff		 mov	 DWORD PTR [ecx+8], -1

; 83   : 		m_iNPC_INDEX = -1;

  0000e	c7 41 0c ff ff
	ff ff		 mov	 DWORD PTR [ecx+12], -1

; 84   : 		m_iNPC_LIVE = 0;

  00015	c7 41 68 00 00
	00 00		 mov	 DWORD PTR [ecx+104], 0

; 85   : 		m_iNPC_AUTH = -1;

  0001c	c7 41 6c ff ff
	ff ff		 mov	 DWORD PTR [ecx+108], -1

; 86   : 		m_bNPC_DBSAVE = 0;

  00023	c7 41 10 00 00
	00 00		 mov	 DWORD PTR [ecx+16], 0

; 87   : 		m_iNPC_SIDE = 0;

  0002a	c7 41 14 00 00
	00 00		 mov	 DWORD PTR [ecx+20], 0

; 88   : 		m_iNPC_OBJINDEX = -1;

  00031	c7 41 18 ff ff
	ff ff		 mov	 DWORD PTR [ecx+24], -1

; 89   : 		m_iNPC_DF_LEVEL = 0;

  00038	c7 41 1c 00 00
	00 00		 mov	 DWORD PTR [ecx+28], 0

; 90   : 		m_iNPC_RG_LEVEL = 0;

  0003f	c7 41 20 00 00
	00 00		 mov	 DWORD PTR [ecx+32], 0

; 91   : 		m_iNPC_MAXHP = 0;

  00046	c7 41 24 00 00
	00 00		 mov	 DWORD PTR [ecx+36], 0

; 92   : 		m_iNPC_HP = 0;

  0004d	c7 41 28 00 00
	00 00		 mov	 DWORD PTR [ecx+40], 0

; 93   : 		m_iNPC_SX = -1;

  00054	c7 41 2c ff ff
	ff ff		 mov	 DWORD PTR [ecx+44], -1

; 94   : 		m_iNPC_SY = -1;

  0005b	c7 41 30 ff ff
	ff ff		 mov	 DWORD PTR [ecx+48], -1

; 95   : 		m_iNPC_DX = -1;

  00062	c7 41 34 ff ff
	ff ff		 mov	 DWORD PTR [ecx+52], -1

; 96   : 		m_iNPC_DY = -1;

  00069	c7 41 38 ff ff
	ff ff		 mov	 DWORD PTR [ecx+56], -1

; 97   : 		m_iNPC_DIR = -1;

  00070	c7 41 3c ff ff
	ff ff		 mov	 DWORD PTR [ecx+60], -1

; 98   : 		m_iNPC_BASE_DF_LEVEL = 0;

  00077	c7 41 40 00 00
	00 00		 mov	 DWORD PTR [ecx+64], 0

; 99   : 		m_iNPC_BASE_RG_LEVEL = 0;

  0007e	c7 41 44 00 00
	00 00		 mov	 DWORD PTR [ecx+68], 0

; 100  : 		m_iNPC_BASE_MAXHP = 0;

  00085	c7 41 48 00 00
	00 00		 mov	 DWORD PTR [ecx+72], 0

; 101  : 		m_iNPC_BASE_HP = 0;

  0008c	c7 41 4c 00 00
	00 00		 mov	 DWORD PTR [ecx+76], 0

; 102  : 		m_iNPC_BASE_SX = -1;

  00093	c7 41 50 ff ff
	ff ff		 mov	 DWORD PTR [ecx+80], -1

; 103  : 		m_iNPC_BASE_SY = -1;

  0009a	c7 41 54 ff ff
	ff ff		 mov	 DWORD PTR [ecx+84], -1

; 104  : 		m_iNPC_BASE_DX = -1;

  000a1	c7 41 58 ff ff
	ff ff		 mov	 DWORD PTR [ecx+88], -1

; 105  : 		m_iNPC_BASE_DY = -1;

  000a8	c7 41 5c ff ff
	ff ff		 mov	 DWORD PTR [ecx+92], -1

; 106  : 		m_iNPC_BASE_DIR = -1;

  000af	c7 41 60 ff ff
	ff ff		 mov	 DWORD PTR [ecx+96], -1

; 107  : 		m_iCsNpcExistVal = 0;

  000b6	c7 41 70 00 00
	00 00		 mov	 DWORD PTR [ecx+112], 0

; 108  : 	}

  000bd	c3		 ret	 0
?Clear@_CS_NPC_DATA@@QAEXXZ ENDP			; _CS_NPC_DATA::Clear
_TEXT	ENDS
; Function compile flags: /Ogtp
; File c:\users\michel\desktop\source\gameserver\source\castlesiege.h
;	COMDAT ??1_CS_NPC_DATA@@UAE@XZ
_TEXT	SEGMENT
??1_CS_NPC_DATA@@UAE@XZ PROC				; _CS_NPC_DATA::~_CS_NPC_DATA, COMDAT
; _this$ = ecx

; 75   : 	{

  00000	c7 01 00 00 00
	00		 mov	 DWORD PTR [ecx], OFFSET ??_7_CS_NPC_DATA@@6B@

; 76   : 
; 77   : 	};

  00006	c3		 ret	 0
??1_CS_NPC_DATA@@UAE@XZ ENDP				; _CS_NPC_DATA::~_CS_NPC_DATA
_TEXT	ENDS
; Function compile flags: /Ogtp
; File c:\users\michel\desktop\source\gameserver\source\castlesiege.h
;	COMDAT ??0_CS_NPC_DATA@@QAE@XZ
_TEXT	SEGMENT
??0_CS_NPC_DATA@@QAE@XZ PROC				; _CS_NPC_DATA::_CS_NPC_DATA, COMDAT
; _this$ = ecx

; 68   : 	_CS_NPC_DATA()

  00000	56		 push	 esi
  00001	8b f1		 mov	 esi, ecx

; 69   : 	{

  00003	c7 06 00 00 00
	00		 mov	 DWORD PTR [esi], OFFSET ??_7_CS_NPC_DATA@@6B@

; 70   : 		Clear();

  00009	e8 00 00 00 00	 call	 ?Clear@_CS_NPC_DATA@@QAEXXZ ; _CS_NPC_DATA::Clear

; 71   : 		m_iCS_GATE_LEVER_INDEX = -1;

  0000e	c7 46 64 ff ff
	ff ff		 mov	 DWORD PTR [esi+100], -1

; 72   : 	};

  00015	8b c6		 mov	 eax, esi
  00017	5e		 pop	 esi
  00018	c3		 ret	 0
??0_CS_NPC_DATA@@QAE@XZ ENDP				; _CS_NPC_DATA::_CS_NPC_DATA
_TEXT	ENDS
; Function compile flags: /Ogtp
; File c:\users\michel\desktop\source\gameserver\source\mapservermanager.h
;	COMDAT ?GetMapSvrGroup@CMapServerManager@@QAEHXZ
_TEXT	SEGMENT
?GetMapSvrGroup@CMapServerManager@@QAEHXZ PROC		; CMapServerManager::GetMapSvrGroup, COMDAT
; _this$ = ecx

; 55   : 		if ( this->m_lpThisMapSvrData != NULL )

  00000	8b 81 f8 6a 01
	00		 mov	 eax, DWORD PTR [ecx+92920]
  00006	85 c0		 test	 eax, eax
  00008	74 05		 je	 SHORT $LN2@GetMapSvrG

; 56   : 		{
; 57   : 			return m_lpThisMapSvrData->m_btMAPSVR_GROUP;

  0000a	0f b6 40 08	 movzx	 eax, BYTE PTR [eax+8]

; 60   : 	}

  0000e	c3		 ret	 0
$LN2@GetMapSvrG:

; 58   : 		}
; 59   : 		return -1;

  0000f	83 c8 ff	 or	 eax, -1

; 60   : 	}

  00012	c3		 ret	 0
?GetMapSvrGroup@CMapServerManager@@QAEHXZ ENDP		; CMapServerManager::GetMapSvrGroup
_TEXT	ENDS
; Function compile flags: /Ogtp
; File c:\users\michel\desktop\source\gameserver\source\devilsquare.h
;	COMDAT ?GetState@CDevilSquare@@QAE?AW4eDevilSquareState@@XZ
_TEXT	SEGMENT
?GetState@CDevilSquare@@QAE?AW4eDevilSquareState@@XZ PROC ; CDevilSquare::GetState, COMDAT
; _this$ = ecx

; 46   : 	enum eDevilSquareState GetState(){return this->m_eState;};	// line : 93

  00000	8b 41 04	 mov	 eax, DWORD PTR [ecx+4]
  00003	c3		 ret	 0
?GetState@CDevilSquare@@QAE?AW4eDevilSquareState@@XZ ENDP ; CDevilSquare::GetState
_TEXT	ENDS
; Function compile flags: /Ogtp
; File c:\users\michel\desktop\source\gameserver\source\gobjmonster.h
;	COMDAT ?TalkRefDel@CQeustNpcTeleport@@QAEXXZ
_TEXT	SEGMENT
?TalkRefDel@CQeustNpcTeleport@@QAEXXZ PROC		; CQeustNpcTeleport::TalkRefDel, COMDAT
; _this$ = ecx

; 75   : 	{

  00000	56		 push	 esi
  00001	8b f1		 mov	 esi, ecx
  00003	57		 push	 edi

; 76   : 		EnterCriticalSection(&this->CsRef);

  00004	8d 7e 04	 lea	 edi, DWORD PTR [esi+4]
  00007	57		 push	 edi
  00008	ff 15 00 00 00
	00		 call	 DWORD PTR __imp__EnterCriticalSection@4

; 77   : 		this->RefCount--;

  0000e	83 06 ff	 add	 DWORD PTR [esi], -1

; 78   : 
; 79   : 		if ( this->RefCount < 0 )

  00011	79 06		 jns	 SHORT $LN2@TalkRefDel

; 80   : 		{
; 81   : 			this->RefCount = 0;

  00013	c7 06 00 00 00
	00		 mov	 DWORD PTR [esi], 0
$LN2@TalkRefDel:

; 82   : 		}
; 83   : 		
; 84   : 		LogAdd("QeustNpc RefCount Dec= %d", this->RefCount);

  00019	ff 36		 push	 DWORD PTR [esi]
  0001b	68 00 00 00 00	 push	 OFFSET ??_C@_0BK@CPKHJPAP@QeustNpc?5RefCount?5Dec?$DN?5?$CFd?$AA@
  00020	ff 15 00 00 00
	00		 call	 DWORD PTR ?LogAdd@@3P6AXPADZZA ; LogAdd
  00026	83 c4 08	 add	 esp, 8

; 85   : 		LeaveCriticalSection(&this->CsRef);

  00029	57		 push	 edi
  0002a	ff 15 00 00 00
	00		 call	 DWORD PTR __imp__LeaveCriticalSection@4
  00030	5f		 pop	 edi
  00031	5e		 pop	 esi

; 86   : 	};	// line : 135

  00032	c3		 ret	 0
?TalkRefDel@CQeustNpcTeleport@@QAEXXZ ENDP		; CQeustNpcTeleport::TalkRefDel
_TEXT	ENDS
; Function compile flags: /Ogtp
; File c:\users\michel\desktop\source\gameserver\source\castlesiegesync.h
;	COMDAT ?GetCastleOwnerGuild@CCastleSiegeSync@@QAEPADXZ
_TEXT	SEGMENT
?GetCastleOwnerGuild@CCastleSiegeSync@@QAEPADXZ PROC	; CCastleSiegeSync::GetCastleOwnerGuild, COMDAT
; _this$ = ecx

; 36   : 	LPSTR GetCastleOwnerGuild(){return this->m_szCastleOwnerGuild;};	// line : 85

  00000	8d 41 18	 lea	 eax, DWORD PTR [ecx+24]
  00003	c3		 ret	 0
?GetCastleOwnerGuild@CCastleSiegeSync@@QAEPADXZ ENDP	; CCastleSiegeSync::GetCastleOwnerGuild
_TEXT	ENDS
; Function compile flags: /Ogtp
; File c:\users\michel\desktop\source\gameserver\source\castlesiegesync.h
;	COMDAT ?GetCastleState@CCastleSiegeSync@@QAEHXZ
_TEXT	SEGMENT
?GetCastleState@CCastleSiegeSync@@QAEHXZ PROC		; CCastleSiegeSync::GetCastleState, COMDAT
; _this$ = ecx

; 34   : 	int  GetCastleState(){return this->m_iCurCastleState;};	// line : 70

  00000	8b 41 04	 mov	 eax, DWORD PTR [ecx+4]
  00003	c3		 ret	 0
?GetCastleState@CCastleSiegeSync@@QAEHXZ ENDP		; CCastleSiegeSync::GetCastleState
_TEXT	ENDS
; Function compile flags: /Ogtp
; File c:\users\michel\desktop\source\gameserver\source\questinfo.h
;	COMDAT ?GetQeustCount@CQuestInfo@@QAEHXZ
_TEXT	SEGMENT
?GetQeustCount@CQuestInfo@@QAEHXZ PROC			; CQuestInfo::GetQeustCount, COMDAT
; _this$ = ecx

; 84   : 	int GetQeustCount(){return m_QuestCount;}

  00000	8b 41 04	 mov	 eax, DWORD PTR [ecx+4]
  00003	c3		 ret	 0
?GetQeustCount@CQuestInfo@@QAEHXZ ENDP			; CQuestInfo::GetQeustCount
_TEXT	ENDS
; Function compile flags: /Ogtp
; File c:\users\michel\desktop\source\gameserver\source\protocol.cpp
;	COMDAT ?CGInventoryEquipment@@YAXPAU_tagPMSG_REQ_INVENTORY_EQUIPMENT_ITEM@@H@Z
_TEXT	SEGMENT
_pMsg$ = -8						; size = 6
_lpMsg$ = 8						; size = 4
tv477 = 12						; size = 4
_iIndex$ = 12						; size = 4
?CGInventoryEquipment@@YAXPAU_tagPMSG_REQ_INVENTORY_EQUIPMENT_ITEM@@H@Z PROC ; CGInventoryEquipment, COMDAT

; 20425: {

  00000	55		 push	 ebp
  00001	8b ec		 mov	 ebp, esp
  00003	83 ec 08	 sub	 esp, 8
  00006	56		 push	 esi

; 20426: 	if( !OBJMAX_RANGE(iIndex) )

  00007	8b 75 0c	 mov	 esi, DWORD PTR _iIndex$[ebp]
  0000a	85 f6		 test	 esi, esi
  0000c	0f 88 e4 01 00
	00		 js	 $LN1@CGInventor
  00012	33 c0		 xor	 eax, eax
  00014	81 fe eb 2c 00
	00		 cmp	 esi, 11499		; 00002cebH
  0001a	0f 9e c0	 setle	 al
  0001d	85 c0		 test	 eax, eax
  0001f	0f 84 d1 01 00
	00		 je	 $LN1@CGInventor

; 20427: 	{
; 20428: 		return;
; 20429: 	}
; 20430: 	// ----
; 20431: 	LPOBJ lpObj = &gObj[iIndex];

  00025	57		 push	 edi
  00026	69 fe 40 27 00
	00		 imul	 edi, esi, 10048

; 20432: 	// ----
; 20433: 	if( !gObjIsConnected(iIndex) )

  0002c	56		 push	 esi
  0002d	03 3d 00 00 00
	00		 add	 edi, DWORD PTR ?gObj@@3PAUOBJECTSTRUCT@@A ; gObj
  00033	e8 00 00 00 00	 call	 ?gObjIsConnected@@YAHH@Z ; gObjIsConnected
  00038	83 c4 04	 add	 esp, 4
  0003b	85 c0		 test	 eax, eax
  0003d	0f 84 b2 01 00
	00		 je	 $LN34@CGInventor

; 20434: 	{
; 20435: 		return;
; 20436: 	}
; 20437: 	// ----
; 20438: 	_tagPMSG_ANS_INVENTORY_EQUIPMENT_ITEM pMsg = { 0 };
; 20439: 	pMsg.btResult = 0;
; 20440: 	PHeadSubSetB((LPBYTE)&pMsg, 0xBF, 0x20, sizeof(_tagPMSG_ANS_INVENTORY_EQUIPMENT_ITEM));

  00043	53		 push	 ebx
  00044	6a 06		 push	 6
  00046	6a 20		 push	 32			; 00000020H
  00048	8d 45 f8	 lea	 eax, DWORD PTR _pMsg$[ebp]
  0004b	c6 45 fd 00	 mov	 BYTE PTR _pMsg$[ebp+5], 0
  0004f	68 bf 00 00 00	 push	 191			; 000000bfH
  00054	50		 push	 eax
  00055	c6 45 f8 00	 mov	 BYTE PTR _pMsg$[ebp], 0
  00059	c7 45 f9 00 00
	00 00		 mov	 DWORD PTR _pMsg$[ebp+1], 0
  00060	c6 45 fd 00	 mov	 BYTE PTR _pMsg$[ebp+5], 0
  00064	e8 00 00 00 00	 call	 ?PHeadSubSetB@@YAXPAEEEH@Z ; PHeadSubSetB

; 20441: 	pMsg.btItemPos = lpMsg->btItemPos;

  00069	8b 4d 08	 mov	 ecx, DWORD PTR _lpMsg$[ebp]
  0006c	83 c4 10	 add	 esp, 16			; 00000010H
  0006f	8a 59 04	 mov	 bl, BYTE PTR [ecx+4]

; 20442: 	// ----
; 20443: 	if( lpObj->pInventory[lpMsg->btItemPos].m_Durability == 0.0 )

  00072	0f b6 c3	 movzx	 eax, bl
  00075	69 c0 d4 00 00
	00		 imul	 eax, eax, 212
  0007b	88 5d fc	 mov	 BYTE PTR _pMsg$[ebp+4], bl
  0007e	8b 97 c0 11 00
	00		 mov	 edx, DWORD PTR [edi+4544]
  00084	89 45 0c	 mov	 DWORD PTR tv477[ebp], eax
  00087	f3 0f 10 44 10
	24		 movss	 xmm0, DWORD PTR [eax+edx+36]
  0008d	0f 2e 05 00 00
	00 00		 ucomiss xmm0, DWORD PTR __real@00000000
  00094	9f		 lahf
  00095	f6 c4 44	 test	 ah, 68			; 00000044H
  00098	7a 1d		 jp	 SHORT $LN6@CGInventor

; 20444: 	{
; 20445: 		pMsg.btResult = -1;
; 20446: 		DataSend(iIndex, (LPBYTE)&pMsg, pMsg.h.size);

  0009a	0f b6 45 f9	 movzx	 eax, BYTE PTR _pMsg$[ebp+1]
  0009e	50		 push	 eax
  0009f	8d 45 f8	 lea	 eax, DWORD PTR _pMsg$[ebp]
  000a2	c6 45 fd ff	 mov	 BYTE PTR _pMsg$[ebp+5], 255 ; 000000ffH
  000a6	50		 push	 eax
  000a7	56		 push	 esi
  000a8	e8 00 00 00 00	 call	 ?DataSend@@YAHHPAEK@Z	; DataSend
  000ad	83 c4 0c	 add	 esp, 12			; 0000000cH
  000b0	5b		 pop	 ebx
  000b1	5f		 pop	 edi
  000b2	5e		 pop	 esi

; 20573: }

  000b3	8b e5		 mov	 esp, ebp
  000b5	5d		 pop	 ebp
  000b6	c3		 ret	 0
$LN6@CGInventor:

; 20447: 		return;
; 20448: 	}
; 20449: 	// ----
; 20450: 	switch( lpObj->pInventory[lpMsg->btItemPos].m_Type )

  000b7	8b 45 0c	 mov	 eax, DWORD PTR tv477[ebp]
  000ba	0f bf 44 10 06	 movsx	 eax, WORD PTR [eax+edx+6]
  000bf	05 80 e5 ff ff	 add	 eax, -6784		; ffffe580H
  000c4	83 f8 06	 cmp	 eax, 6
  000c7	0f 87 0f 01 00
	00		 ja	 $LN28@CGInventor
  000cd	ff 24 85 00 00
	00 00		 jmp	 DWORD PTR $LN43@CGInventor[eax*4]
$LN7@CGInventor:

; 20451: 	{
; 20452: 	case ITEMGET(13, 128):
; 20453: 	case ITEMGET(13, 129):
; 20454: 		{
; 20455: 			if( !lpObj->m_btSculptPos )

  000d4	8a 87 9c 25 00
	00		 mov	 al, BYTE PTR [edi+9628]
  000da	84 c0		 test	 al, al
  000dc	0f 85 9b 00 00
	00		 jne	 $LN24@CGInventor

; 20456: 			{
; 20457: 				if( lpMsg->btValue == 254 )

  000e2	80 79 05 fe	 cmp	 BYTE PTR [ecx+5], 254	; 000000feH
  000e6	0f 85 f0 00 00
	00		 jne	 $LN28@CGInventor

; 20458: 				{
; 20459: 					if( lpObj->pInventory[lpMsg->btItemPos].m_Durability == 255.0 )

  000ec	0f 5a c0	 cvtps2pd xmm0, xmm0
  000ef	66 0f 2e 05 00
	00 00 00	 ucomisd xmm0, QWORD PTR __real@406fe00000000000
  000f7	9f		 lahf
  000f8	f6 c4 44	 test	 ah, 68			; 00000044H
  000fb	0f 8a db 00 00
	00		 jp	 $LN28@CGInventor

; 20460: 					{
; 20461: 						lpObj->m_btSculptPos = lpMsg->btItemPos;

  00101	88 9f 9c 25 00
	00		 mov	 BYTE PTR [edi+9628], bl

; 20462: 						lpObj->pInventory[lpMsg->btItemPos].m_Durability = 254.0;
; 20463: 						pMsg.btResult = -2;
; 20464: 					}
; 20465: 				}
; 20466: 				break;
; 20467: 			}
; 20468: 			// ----
; 20469: 			if(		lpObj->m_btSculptPos < INVETORY_WEAR_SIZE 
; 20470: 				||	lpObj->m_btSculptPos >= MAIN_INVENTORY_SIZE )
; 20471: 			{
; 20472: 				break;
; 20473: 			}
; 20474: 			// ----
; 20475: 			if(		lpMsg->btValue			== 255
; 20476: 				&&	lpObj->m_btSculptPos	== lpMsg->btItemPos )
; 20477: 			{
; 20478: 				if( lpObj->pInventory[lpMsg->btItemPos].m_Durability == 254.0 )
; 20479: 				{
; 20480: 					lpObj->pInventory[lpMsg->btItemPos].m_Durability = 255.0;
; 20481: 					pMsg.btResult = -1;
; 20482: 				}
; 20483: 				break;
; 20484: 			}
; 20485: 			// ----
; 20486: 			GCServerMsgStringSend(lMsg.Get(3480), lpObj->m_Index, 1);
; 20487:             DataSend(iIndex, (LPBYTE)&pMsg, pMsg.h.size);
; 20488: 		}
; 20489: 		break;

  00107	eb 5c		 jmp	 SHORT $LN41@CGInventor
$LN15@CGInventor:

; 20490: 		// --
; 20491: 	case ITEMGET(13, 130):
; 20492: 	case ITEMGET(13, 131):
; 20493: 	case ITEMGET(13, 132):
; 20494: 	case ITEMGET(13, 133):
; 20495: 		{
; 20496: 			if( !lpObj->m_btCharmPos )

  00109	8a 87 9d 25 00
	00		 mov	 al, BYTE PTR [edi+9629]
  0010f	84 c0		 test	 al, al
  00111	75 6a		 jne	 SHORT $LN24@CGInventor

; 20497: 			{
; 20498: 				if( lpMsg->btValue == 254 )

  00113	80 79 05 fe	 cmp	 BYTE PTR [ecx+5], 254	; 000000feH
  00117	0f 85 bf 00 00
	00		 jne	 $LN28@CGInventor

; 20499: 				{
; 20500: 					if( lpObj->pInventory[lpMsg->btItemPos].m_Durability == 255.0 )

  0011d	0f 5a c0	 cvtps2pd xmm0, xmm0
  00120	66 0f 2e 05 00
	00 00 00	 ucomisd xmm0, QWORD PTR __real@406fe00000000000
  00128	9f		 lahf
  00129	f6 c4 44	 test	 ah, 68			; 00000044H
  0012c	0f 8a aa 00 00
	00		 jp	 $LN28@CGInventor

; 20501: 					{
; 20502: 						lpObj->m_btCharmPos = lpMsg->btItemPos;

  00132	88 9f 9d 25 00
	00		 mov	 BYTE PTR [edi+9629], bl

; 20503: 						lpObj->pInventory[lpMsg->btItemPos].m_Durability = 254.0;
; 20504: 						pMsg.btResult = -2;
; 20505: 					}
; 20506: 				}
; 20507: 				break;
; 20508: 			}
; 20509: 			// ----
; 20510: 			if(		lpObj->m_btCharmPos < INVETORY_WEAR_SIZE 
; 20511: 				||	lpObj->m_btCharmPos >= MAIN_INVENTORY_SIZE )
; 20512: 			{
; 20513: 				break;
; 20514: 			}
; 20515: 			// ----
; 20516: 			if(		lpMsg->btValue		== 255
; 20517: 				&&	lpObj->m_btCharmPos == lpMsg->btItemPos )
; 20518: 			{
; 20519: 				if( lpObj->pInventory[lpMsg->btItemPos].m_Durability == 254.0 )
; 20520: 				{
; 20521: 					lpObj->pInventory[lpMsg->btItemPos].m_Durability = 255.0;
; 20522: 					pMsg.btResult = -1;
; 20523: 				}
; 20524: 				break;
; 20525: 			}
; 20526: 			// ----
; 20527: 			GCServerMsgStringSend(lMsg.Get(3480), lpObj->m_Index, 1);
; 20528:             DataSend(iIndex, (LPBYTE)&pMsg, pMsg.h.size);
; 20529: 		}
; 20530: 		break;

  00138	eb 2b		 jmp	 SHORT $LN41@CGInventor
$LN23@CGInventor:

; 20531: 		// --
; 20532: 	case ITEMGET(13, 134):
; 20533: 		{
; 20534: 			if( !lpObj->m_btArtifactPos )

  0013a	8a 87 9e 25 00
	00		 mov	 al, BYTE PTR [edi+9630]
  00140	84 c0		 test	 al, al
  00142	75 39		 jne	 SHORT $LN24@CGInventor

; 20535: 			{
; 20536: 				if( lpMsg->btValue == 254 )

  00144	80 79 05 fe	 cmp	 BYTE PTR [ecx+5], 254	; 000000feH
  00148	0f 85 8e 00 00
	00		 jne	 $LN28@CGInventor

; 20537: 				{
; 20538: 					if( lpObj->pInventory[lpMsg->btItemPos].m_Durability == 255.0 )

  0014e	0f 5a c0	 cvtps2pd xmm0, xmm0
  00151	66 0f 2e 05 00
	00 00 00	 ucomisd xmm0, QWORD PTR __real@406fe00000000000
  00159	9f		 lahf
  0015a	f6 c4 44	 test	 ah, 68			; 00000044H
  0015d	7a 7d		 jp	 SHORT $LN28@CGInventor

; 20539: 					{
; 20540: 						lpObj->m_btArtifactPos = lpMsg->btItemPos;

  0015f	88 9f 9e 25 00
	00		 mov	 BYTE PTR [edi+9630], bl
$LN41@CGInventor:

; 20541: 						lpObj->pInventory[lpMsg->btItemPos].m_Durability = 254.0;

  00165	0f b6 41 04	 movzx	 eax, BYTE PTR [ecx+4]
  00169	69 c0 d4 00 00
	00		 imul	 eax, eax, 212
  0016f	c7 44 10 24 00
	00 7e 43	 mov	 DWORD PTR [eax+edx+36], 1132331008 ; 437e0000H

; 20542: 						pMsg.btResult = -2;

  00177	c6 45 fd fe	 mov	 BYTE PTR _pMsg$[ebp+5], 254 ; 000000feH

; 20543: 					}
; 20544: 				}
; 20545: 				break;

  0017b	eb 5f		 jmp	 SHORT $LN28@CGInventor
$LN24@CGInventor:

; 20546: 			}
; 20547: 			// ----
; 20548: 			if(		lpObj->m_btArtifactPos < INVETORY_WEAR_SIZE 
; 20549: 				||	lpObj->m_btArtifactPos >= MAIN_INVENTORY_SIZE )

  0017d	3c 0c		 cmp	 al, 12			; 0000000cH
  0017f	72 5b		 jb	 SHORT $LN28@CGInventor
  00181	3c cc		 cmp	 al, 204			; 000000ccH
  00183	73 57		 jae	 SHORT $LN28@CGInventor

; 20550: 			{
; 20551: 				break;
; 20552: 			}
; 20553: 			// ----
; 20554: 			if(		lpMsg->btValue			== 255
; 20555: 				&&	lpObj->m_btArtifactPos	== lpMsg->btItemPos )

  00185	80 79 05 ff	 cmp	 BYTE PTR [ecx+5], 255	; 000000ffH
  00189	75 26		 jne	 SHORT $LN29@CGInventor
  0018b	3a c3		 cmp	 al, bl
  0018d	75 22		 jne	 SHORT $LN29@CGInventor

; 20556: 			{
; 20557: 				if( lpObj->pInventory[lpMsg->btItemPos].m_Durability == 254.0 )

  0018f	0f 5a c0	 cvtps2pd xmm0, xmm0
  00192	66 0f 2e 05 00
	00 00 00	 ucomisd xmm0, QWORD PTR __real@406fc00000000000
  0019a	9f		 lahf
  0019b	f6 c4 44	 test	 ah, 68			; 00000044H
  0019e	7a 3c		 jp	 SHORT $LN28@CGInventor

; 20558: 				{
; 20559: 					lpObj->pInventory[lpMsg->btItemPos].m_Durability = 255.0;

  001a0	8b 45 0c	 mov	 eax, DWORD PTR tv477[ebp]
  001a3	c7 44 10 24 00
	00 7f 43	 mov	 DWORD PTR [eax+edx+36], 1132396544 ; 437f0000H

; 20560: 					pMsg.btResult = -1;

  001ab	c6 45 fd ff	 mov	 BYTE PTR _pMsg$[ebp+5], 255 ; 000000ffH

; 20561: 				}
; 20562: 				break;

  001af	eb 2b		 jmp	 SHORT $LN28@CGInventor
$LN29@CGInventor:

; 20563: 			}
; 20564: 			// ----
; 20565: 			GCServerMsgStringSend(lMsg.Get(3480), lpObj->m_Index, 1);

  001b1	6a 01		 push	 1
  001b3	ff 37		 push	 DWORD PTR [edi]
  001b5	b9 00 00 00 00	 mov	 ecx, OFFSET ?lMsg@@3VMessage@@A ; lMsg
  001ba	68 98 0d 00 00	 push	 3480			; 00000d98H
  001bf	e8 00 00 00 00	 call	 ?Get@Message@@QAEPADH@Z	; Message::Get
  001c4	50		 push	 eax
  001c5	e8 00 00 00 00	 call	 ?GCServerMsgStringSend@@YAXPADHE@Z ; GCServerMsgStringSend

; 20566:             DataSend(iIndex, (LPBYTE)&pMsg, pMsg.h.size);

  001ca	0f b6 45 f9	 movzx	 eax, BYTE PTR _pMsg$[ebp+1]
  001ce	50		 push	 eax
  001cf	8d 45 f8	 lea	 eax, DWORD PTR _pMsg$[ebp]
  001d2	50		 push	 eax
  001d3	56		 push	 esi
  001d4	e8 00 00 00 00	 call	 ?DataSend@@YAHHPAEK@Z	; DataSend
  001d9	83 c4 18	 add	 esp, 24			; 00000018H
$LN28@CGInventor:

; 20567: 		}
; 20568: 		break;
; 20569: 	}
; 20570: 	// ----
; 20571: 	gObjCalCharacter(iIndex);

  001dc	56		 push	 esi
  001dd	e8 00 00 00 00	 call	 ?gObjCalCharacter@@YAXH@Z ; gObjCalCharacter

; 20572: 	DataSend(iIndex,(LPBYTE)&pMsg, pMsg.h.size);

  001e2	0f b6 45 f9	 movzx	 eax, BYTE PTR _pMsg$[ebp+1]
  001e6	50		 push	 eax
  001e7	8d 45 f8	 lea	 eax, DWORD PTR _pMsg$[ebp]
  001ea	50		 push	 eax
  001eb	56		 push	 esi
  001ec	e8 00 00 00 00	 call	 ?DataSend@@YAHHPAEK@Z	; DataSend
  001f1	83 c4 10	 add	 esp, 16			; 00000010H
  001f4	5b		 pop	 ebx
$LN34@CGInventor:
  001f5	5f		 pop	 edi
$LN1@CGInventor:
  001f6	5e		 pop	 esi

; 20573: }

  001f7	8b e5		 mov	 esp, ebp
  001f9	5d		 pop	 ebp
  001fa	c3		 ret	 0
  001fb	90		 npad	 1
$LN43@CGInventor:
  001fc	00 00 00 00	 DD	 $LN7@CGInventor
  00200	00 00 00 00	 DD	 $LN7@CGInventor
  00204	00 00 00 00	 DD	 $LN15@CGInventor
  00208	00 00 00 00	 DD	 $LN15@CGInventor
  0020c	00 00 00 00	 DD	 $LN15@CGInventor
  00210	00 00 00 00	 DD	 $LN15@CGInventor
  00214	00 00 00 00	 DD	 $LN23@CGInventor
?CGInventoryEquipment@@YAXPAU_tagPMSG_REQ_INVENTORY_EQUIPMENT_ITEM@@H@Z ENDP ; CGInventoryEquipment
_TEXT	ENDS
; Function compile flags: /Ogtp
; File c:\users\michel\desktop\source\gameserver\source\protocol.cpp
;	COMDAT ?ClientTestSend@@YAXHPAUClientTest@@@Z
_TEXT	SEGMENT
_UserIndex$ = 8						; size = 4
_lpResult$ = 12						; size = 4
?ClientTestSend@@YAXHPAUClientTest@@@Z PROC		; ClientTestSend, COMDAT

; 20576: {

  00000	55		 push	 ebp
  00001	8b ec		 mov	 ebp, esp

; 20577: 	LogAddC(2, "[DEBUG] Text: %s, Value: %d",

  00003	8b 45 0c	 mov	 eax, DWORD PTR _lpResult$[ebp]
  00006	ff 70 68	 push	 DWORD PTR [eax+104]
  00009	83 c0 04	 add	 eax, 4
  0000c	50		 push	 eax
  0000d	68 00 00 00 00	 push	 OFFSET ??_C@_0BM@JGJDNBPL@?$FLDEBUG?$FN?5Text?3?5?$CFs?0?5Value?3?5?$CFd?$AA@
  00012	6a 02		 push	 2
  00014	ff 15 00 00 00
	00		 call	 DWORD PTR ?LogAddC@@3P6AXEPADZZA ; LogAddC
  0001a	83 c4 10	 add	 esp, 16			; 00000010H

; 20578: 		lpResult->Text, lpResult->Value);
; 20579: }

  0001d	5d		 pop	 ebp
  0001e	c3		 ret	 0
?ClientTestSend@@YAXHPAUClientTest@@@Z ENDP		; ClientTestSend
_TEXT	ENDS
; Function compile flags: /Ogtp
; File c:\users\michel\desktop\source\gameserver\source\protocol.cpp
;	COMDAT ?CGEnableUsePolymorphSkinrRecv@@YAXPAUPMSG_REQ_USE_POLYMORPH_SKIN@@H@Z
_TEXT	SEGMENT
_pMove$ = -20						; size = 13
__$ArrayPad$ = -4					; size = 4
_lpMsg$ = 8						; size = 4
_aIndex$ = 12						; size = 4
?CGEnableUsePolymorphSkinrRecv@@YAXPAUPMSG_REQ_USE_POLYMORPH_SKIN@@H@Z PROC ; CGEnableUsePolymorphSkinrRecv, COMDAT

; 20397: {

  00000	55		 push	 ebp
  00001	8b ec		 mov	 ebp, esp
  00003	83 ec 14	 sub	 esp, 20			; 00000014H
  00006	a1 00 00 00 00	 mov	 eax, DWORD PTR ___security_cookie
  0000b	33 c5		 xor	 eax, ebp
  0000d	89 45 fc	 mov	 DWORD PTR __$ArrayPad$[ebp], eax

; 20398: 	PMSG_MOVE pMove = { 0 };
; 20399: 	// ---
; 20400: 	if( lpMsg->EnableUsePolymorphSkin == 1 )

  00010	8b 45 08	 mov	 eax, DWORD PTR _lpMsg$[ebp]
  00013	0f 57 c0	 xorps	 xmm0, xmm0
  00016	56		 push	 esi
  00017	57		 push	 edi
  00018	8b 7d 0c	 mov	 edi, DWORD PTR _aIndex$[ebp]

; 20401: 	{
; 20402: 		if( IsTransformCharcterSkin(gObj[aIndex].m_Change) )

  0001b	69 f7 40 27 00
	00		 imul	 esi, edi, 10048
  00021	80 78 04 01	 cmp	 BYTE PTR [eax+4], 1
  00025	a1 00 00 00 00	 mov	 eax, DWORD PTR ?gObj@@3PAUOBJECTSTRUCT@@A ; gObj
  0002a	66 0f d6 45 ed	 movq	 QWORD PTR _pMove$[ebp+1], xmm0
  0002f	c7 45 f5 00 00
	00 00		 mov	 DWORD PTR _pMove$[ebp+9], 0
  00036	75 22		 jne	 SHORT $LN2@CGEnableUs
  00038	ff b4 06 34 06
	00 00		 push	 DWORD PTR [esi+eax+1588]
  0003f	e8 00 00 00 00	 call	 ?IsTransformCharcterSkin@@YA_NH@Z ; IsTransformCharcterSkin
  00044	83 c4 04	 add	 esp, 4
  00047	84 c0		 test	 al, al
  00049	74 17		 je	 SHORT $LN3@CGEnableUs

; 20403: 		{
; 20404: 		  gObj[aIndex].m_EnableUseChangeSkin = 0;

  0004b	a1 00 00 00 00	 mov	 eax, DWORD PTR ?gObj@@3PAUOBJECTSTRUCT@@A ; gObj
  00050	c6 84 06 12 27
	00 00 00	 mov	 BYTE PTR [esi+eax+10002], 0

; 20405: 		}
; 20406: 	 }
; 20407: 	 else

  00058	eb 08		 jmp	 SHORT $LN3@CGEnableUs
$LN2@CGEnableUs:

; 20408: 	 {
; 20409: 		gObj[aIndex].m_EnableUseChangeSkin = 1;

  0005a	c6 84 06 12 27
	00 00 01	 mov	 BYTE PTR [esi+eax+10002], 1
$LN3@CGEnableUs:

; 20410: 	 }
; 20411: 	 // ----
; 20412: 	 pMove.h.c			= 0xC1;
; 20413: 	 pMove.h.headcode	= 0xD7;
; 20414: 	 pMove.h.size		= 0xD;
; 20415: 	 pMove.X			= gObj[aIndex].X;

  00062	8b 0d 00 00 00
	00		 mov	 ecx, DWORD PTR ?gObj@@3PAUOBJECTSTRUCT@@A ; gObj

; 20416: 	 pMove.Y			= gObj[aIndex].Y;
; 20417: 	 PMoveProc(&pMove, aIndex);

  00068	57		 push	 edi
  00069	66 c7 45 ec c1
	0d		 mov	 WORD PTR _pMove$[ebp], 3521 ; 00000dc1H
  0006f	c6 45 ee d7	 mov	 BYTE PTR _pMove$[ebp+2], 215 ; 000000d7H
  00073	8a 84 31 20 01
	00 00		 mov	 al, BYTE PTR [ecx+esi+288]
  0007a	88 45 ef	 mov	 BYTE PTR _pMove$[ebp+3], al
  0007d	8a 84 31 21 01
	00 00		 mov	 al, BYTE PTR [ecx+esi+289]
  00084	88 45 f0	 mov	 BYTE PTR _pMove$[ebp+4], al
  00087	8d 45 ec	 lea	 eax, DWORD PTR _pMove$[ebp]
  0008a	50		 push	 eax
  0008b	e8 00 00 00 00	 call	 ?PMoveProc@@YAXPAUPMSG_MOVE@@H@Z ; PMoveProc

; 20418: 	 LogAddTD("[UseCahngeSkinState][CGEnableUsePolymorphSkinrRecv] [ChaageEanbleState : %d] On(Use): 0 / Off: 1(Don't Use) ",

  00090	8b 0d 00 00 00
	00		 mov	 ecx, DWORD PTR ?gObj@@3PAUOBJECTSTRUCT@@A ; gObj
  00096	8d 41 5d	 lea	 eax, DWORD PTR [ecx+93]
  00099	03 c6		 add	 eax, esi
  0009b	50		 push	 eax
  0009c	8d 41 52	 lea	 eax, DWORD PTR [ecx+82]
  0009f	03 c6		 add	 eax, esi
  000a1	50		 push	 eax
  000a2	0f be 84 31 12
	27 00 00	 movsx	 eax, BYTE PTR [ecx+esi+10002]
  000aa	50		 push	 eax
  000ab	68 00 00 00 00	 push	 OFFSET ??_C@_0GN@LMFACHAA@?$FLUseCahngeSkinState?$FN?$FLCGEnableUse@
  000b0	ff 15 00 00 00
	00		 call	 DWORD PTR ?LogAddTD@@3P6AXPADZZA ; LogAddTD

; 20419: 		gObj[aIndex].m_EnableUseChangeSkin, gObj[aIndex].AccountID, gObj[aIndex].Name);
; 20420: 	 gObjViewportListProtocolCreate(&gObj[aIndex]);

  000b6	a1 00 00 00 00	 mov	 eax, DWORD PTR ?gObj@@3PAUOBJECTSTRUCT@@A ; gObj
  000bb	03 c6		 add	 eax, esi
  000bd	50		 push	 eax
  000be	e8 00 00 00 00	 call	 ?gObjViewportListProtocolCreate@@YAXPAUOBJECTSTRUCT@@@Z ; gObjViewportListProtocolCreate

; 20421: }

  000c3	8b 4d fc	 mov	 ecx, DWORD PTR __$ArrayPad$[ebp]
  000c6	83 c4 1c	 add	 esp, 28			; 0000001cH
  000c9	33 cd		 xor	 ecx, ebp
  000cb	5f		 pop	 edi
  000cc	5e		 pop	 esi
  000cd	e8 00 00 00 00	 call	 @__security_check_cookie@4
  000d2	8b e5		 mov	 esp, ebp
  000d4	5d		 pop	 ebp
  000d5	c3		 ret	 0
?CGEnableUsePolymorphSkinrRecv@@YAXPAUPMSG_REQ_USE_POLYMORPH_SKIN@@H@Z ENDP ; CGEnableUsePolymorphSkinrRecv
_TEXT	ENDS
; Function compile flags: /Ogtp
; File c:\users\michel\desktop\source\gameserver\source\protocol.cpp
;	COMDAT ?CGRequestStartMuBot@@YAXPAUPMSG_MUBOT_REQ_START@@H@Z
_TEXT	SEGMENT
_pMsg$ = -20						; size = 16
__$ArrayPad$ = -4					; size = 4
_lpMsg$ = 8						; size = 4
_aIndex$ = 12						; size = 4
?CGRequestStartMuBot@@YAXPAUPMSG_MUBOT_REQ_START@@H@Z PROC ; CGRequestStartMuBot, COMDAT

; 20319: {

  00000	55		 push	 ebp
  00001	8b ec		 mov	 ebp, esp
  00003	83 ec 14	 sub	 esp, 20			; 00000014H
  00006	a1 00 00 00 00	 mov	 eax, DWORD PTR ___security_cookie
  0000b	33 c5		 xor	 eax, ebp
  0000d	89 45 fc	 mov	 DWORD PTR __$ArrayPad$[ebp], eax

; 20320: 	if (g_bMuBotSystemOn == FALSE) {

  00010	83 3d 00 00 00
	00 00		 cmp	 DWORD PTR ?g_bMuBotSystemOn@@3HA, 0 ; g_bMuBotSystemOn
  00017	57		 push	 edi
  00018	8b 7d 0c	 mov	 edi, DWORD PTR _aIndex$[ebp]
  0001b	0f 84 62 01 00
	00		 je	 $LN1@CGRequestS

; 20321: 		return;
; 20322: 	}
; 20323: 
; 20324: 	if (!gObjIsConnectedGP(aIndex)) {

  00021	57		 push	 edi
  00022	e8 00 00 00 00	 call	 ?gObjIsConnectedGP@@YAHH@Z ; gObjIsConnectedGP
  00027	83 c4 04	 add	 esp, 4
  0002a	85 c0		 test	 eax, eax
  0002c	0f 84 51 01 00
	00		 je	 $LN1@CGRequestS

; 20325: 		return;
; 20326: 	}
; 20327: 
; 20328: 	PMSG_MUBOT_USE pMsg;
; 20329: 	PHeadSubSetB((LPBYTE)&pMsg, 0xBF, 0x51, sizeof(pMsg));

  00032	56		 push	 esi
  00033	6a 10		 push	 16			; 00000010H
  00035	6a 51		 push	 81			; 00000051H
  00037	8d 45 ec	 lea	 eax, DWORD PTR _pMsg$[ebp]
  0003a	68 bf 00 00 00	 push	 191			; 000000bfH
  0003f	50		 push	 eax
  00040	e8 00 00 00 00	 call	 ?PHeadSubSetB@@YAXPAEEEH@Z ; PHeadSubSetB

; 20330: 	pMsg.Money = 0;
; 20331: 	pMsg.Time = 0;
; 20332: 	pMsg.Status = 1;
; 20333: 
; 20334: 	LPOBJ lpObj = &gObj[aIndex];

  00045	69 f7 40 27 00
	00		 imul	 esi, edi, 10048
  0004b	33 c0		 xor	 eax, eax
  0004d	66 89 45 f0	 mov	 WORD PTR _pMsg$[ebp+4], ax
  00051	83 c4 10	 add	 esp, 16			; 00000010H
  00054	c7 45 f4 00 00
	00 00		 mov	 DWORD PTR _pMsg$[ebp+8], 0
  0005b	c6 45 f8 01	 mov	 BYTE PTR _pMsg$[ebp+12], 1
  0005f	03 35 00 00 00
	00		 add	 esi, DWORD PTR ?gObj@@3PAUOBJECTSTRUCT@@A ; gObj

; 20335: 
; 20336: 	if (lpObj->m_IfState.use == TRUE) {

  00065	8b 86 b8 11 00
	00		 mov	 eax, DWORD PTR [esi+4536]
  0006b	24 03		 and	 al, 3
  0006d	3c 01		 cmp	 al, 1
  0006f	0f 84 0d 01 00
	00		 je	 $LN13@CGRequestS

; 20337: 		return;
; 20338: 	}
; 20339: 
; 20340: 	if (lpObj->Level < g_iMuBotSystemUserLevel) {

  00075	0f bf 86 96 00
	00 00		 movsx	 eax, WORD PTR [esi+150]
  0007c	8b 0d 00 00 00
	00		 mov	 ecx, DWORD PTR ?g_iMuBotSystemUserLevel@@3HA ; g_iMuBotSystemUserLevel
  00082	3b c1		 cmp	 eax, ecx
  00084	7d 2e		 jge	 SHORT $LN5@CGRequestS

; 20341: 		MsgOutput(aIndex, "Only characters above %d level can run MU Helper", g_iMuBotSystemUserLevel);

  00086	51		 push	 ecx
  00087	68 00 00 00 00	 push	 OFFSET ??_C@_0DB@OKKAKFII@Only?5characters?5above?5?$CFd?5level?5c@
  0008c	57		 push	 edi
  0008d	e8 00 00 00 00	 call	 ?MsgOutput@@YAXHPADZZ	; MsgOutput

; 20342: 		DataSend(aIndex, (LPBYTE)&pMsg, pMsg.h.size);

  00092	0f b6 45 ed	 movzx	 eax, BYTE PTR _pMsg$[ebp+1]
  00096	50		 push	 eax
  00097	8d 45 ec	 lea	 eax, DWORD PTR _pMsg$[ebp]
  0009a	50		 push	 eax
  0009b	57		 push	 edi
  0009c	e8 00 00 00 00	 call	 ?DataSend@@YAHHPAEK@Z	; DataSend

; 20349: 		DataSend(aIndex, (LPBYTE)&pMsg, pMsg.h.size);

  000a1	83 c4 18	 add	 esp, 24			; 00000018H
  000a4	5e		 pop	 esi
