; Listing generated by Microsoft (R) Optimizing Compiler Version 19.00.23506.0 

	TITLE	C:\Users\Michel\Desktop\Source\GameServer\Source\QuestInfo.cpp
	.686P
	.XMM
	include listing.inc
	.model	flat

INCLUDELIB LIBCMT
INCLUDELIB OLDNAMES

PUBLIC	?QuestBitMask@@3PAEA				; QuestBitMask
PUBLIC	?sQuestString@@3PAY0DC@DA			; sQuestString
_BSS	SEGMENT
?QuestBitMask@@3PAEA DB 08H DUP (?)			; QuestBitMask
_BSS	ENDS
CONST	SEGMENT
?piecewise_construct@std@@3Upiecewise_construct_t@1@B	ORG $+1 ; std::piecewise_construct
CONST	ENDS
_DATA	SEGMENT
?sQuestString@@3PAY0DC@DA DB 'None', 00H		; sQuestString
	ORG $+45
	DB	'Accept', 00H
	ORG $+43
	DB	'Clear', 00H
	ORG $+44
	DB	'None', 00H
	ORG $+45
_DATA	ENDS
PUBLIC	?__empty_global_delete@@YAXPAX@Z		; __empty_global_delete
PUBLIC	?__empty_global_delete@@YAXPAXI@Z		; __empty_global_delete
PUBLIC	??1OBJECTSTRUCT@@QAE@XZ				; OBJECTSTRUCT::~OBJECTSTRUCT
PUBLIC	??_EOBJECTSTRUCT@@QAEPAXI@Z			; OBJECTSTRUCT::`vector deleting destructor'
PUBLIC	??0CQuestInfo@@QAE@XZ				; CQuestInfo::CQuestInfo
PUBLIC	??1CQuestInfo@@UAE@XZ				; CQuestInfo::~CQuestInfo
PUBLIC	?Init@CQuestInfo@@QAEXXZ			; CQuestInfo::Init
PUBLIC	?IsQuest@CQuestInfo@@QAEHH@Z			; CQuestInfo::IsQuest
PUBLIC	?LoadQuestInfo@CQuestInfo@@QAEHPADH@Z		; CQuestInfo::LoadQuestInfo
PUBLIC	?LoadQuestInfo@CQuestInfo@@QAEHPAD@Z		; CQuestInfo::LoadQuestInfo
PUBLIC	?InitQuestItem@CQuestInfo@@QAEXXZ		; CQuestInfo::InitQuestItem
PUBLIC	?GetQuestInfo@CQuestInfo@@QAEPAUQUEST_INFO@@H@Z	; CQuestInfo::GetQuestInfo
PUBLIC	?GetSubquestInfo@CQuestInfo@@QAEPAUQUEST_SUB_INFO@@PAUOBJECTSTRUCT@@PAUQUEST_INFO@@H@Z ; CQuestInfo::GetSubquestInfo
PUBLIC	?GetQuestCondition@CQuestInfo@@QAEPAUQUEST_CONDITION@@PAUQUEST_INFO@@H@Z ; CQuestInfo::GetQuestCondition
PUBLIC	?GetQuestState@CQuestInfo@@QAEHPAUOBJECTSTRUCT@@H@Z ; CQuestInfo::GetQuestState
PUBLIC	?GetQuestStateBYTE@CQuestInfo@@QAEEPAUOBJECTSTRUCT@@H@Z ; CQuestInfo::GetQuestStateBYTE
PUBLIC	?SetQuestState@CQuestInfo@@QAEEPAUOBJECTSTRUCT@@HH@Z ; CQuestInfo::SetQuestState
PUBLIC	?ReSetQuestState@CQuestInfo@@QAEEPAUOBJECTSTRUCT@@H@Z ; CQuestInfo::ReSetQuestState
PUBLIC	?QuestClearConditionCheck@CQuestInfo@@QAEEPAUOBJECTSTRUCT@@H@Z ; CQuestInfo::QuestClearConditionCheck
PUBLIC	?QuestRunConditionCheck@CQuestInfo@@QAEEPAUOBJECTSTRUCT@@H@Z ; CQuestInfo::QuestRunConditionCheck
PUBLIC	?CompareCondition@CQuestInfo@@QAEHPAUOBJECTSTRUCT@@PAUQUEST_CONDITION@@@Z ; CQuestInfo::CompareCondition
PUBLIC	?NpcTalk@CQuestInfo@@QAEHPAUOBJECTSTRUCT@@0@Z	; CQuestInfo::NpcTalk
PUBLIC	?MonsterKill@CQuestInfo@@QAEHPAUOBJECTSTRUCT@@0@Z ; CQuestInfo::MonsterKill
PUBLIC	?MonsterItemDrop@CQuestInfo@@QAEHPAUOBJECTSTRUCT@@@Z ; CQuestInfo::MonsterItemDrop
PUBLIC	?MonsterItemDropParty@CQuestInfo@@QAEHPAUOBJECTSTRUCT@@0@Z ; CQuestInfo::MonsterItemDropParty
PUBLIC	?QuestAccept@CQuestInfo@@QAEHPAUOBJECTSTRUCT@@H@Z ; CQuestInfo::QuestAccept
PUBLIC	?QuestClear@CQuestInfo@@QAEHPAUOBJECTSTRUCT@@H@Z ; CQuestInfo::QuestClear
PUBLIC	?QuestInfoSave@CQuestInfo@@QAEXPAUOBJECTSTRUCT@@@Z ; CQuestInfo::QuestInfoSave
PUBLIC	?SendMonsterKillInfo@CQuestInfo@@QAEHHH@Z	; CQuestInfo::SendMonsterKillInfo
PUBLIC	?NotifyResultEnterBarracks@CQuestInfo@@QAEXH@Z	; CQuestInfo::NotifyResultEnterBarracks
PUBLIC	?NotifyResultEnterRefuge@CQuestInfo@@QAEXH@Z	; CQuestInfo::NotifyResultEnterRefuge
PUBLIC	?CheckItemCount@CQuestInfo@@QAEHHFF@Z		; CQuestInfo::CheckItemCount
PUBLIC	??_GCQuestInfo@@UAEPAXI@Z			; CQuestInfo::`scalar deleting destructor'
PUBLIC	??1CQuestMonsterKillInfo@@UAE@XZ		; CQuestMonsterKillInfo::~CQuestMonsterKillInfo
PUBLIC	?DGReqMonsterKillInfo@CQuestMonsterKillInfo@@QAEXPAUOBJECTSTRUCT@@@Z ; CQuestMonsterKillInfo::DGReqMonsterKillInfo
PUBLIC	?GDAnsMonsterKillInfo@CQuestMonsterKillInfo@@QAEXPAE@Z ; CQuestMonsterKillInfo::GDAnsMonsterKillInfo
PUBLIC	?SaveMonsterKillInfo@CQuestMonsterKillInfo@@QAEXPAUOBJECTSTRUCT@@@Z ; CQuestMonsterKillInfo::SaveMonsterKillInfo
PUBLIC	??_GCQuestMonsterKillInfo@@UAEPAXI@Z		; CQuestMonsterKillInfo::`scalar deleting destructor'
PUBLIC	??0CQuestInfoEx@@QAE@XZ				; CQuestInfoEx::CQuestInfoEx
PUBLIC	??1CQuestInfoEx@@UAE@XZ				; CQuestInfoEx::~CQuestInfoEx
PUBLIC	?LoadQuestProgress@CQuestInfoEx@@QAEXPAD@Z	; CQuestInfoEx::LoadQuestProgress
PUBLIC	?LoadQuestInfo@CQuestInfoEx@@QAEXPAD@Z		; CQuestInfoEx::LoadQuestInfo
PUBLIC	?GCQuestInit@CQuestInfoEx@@QAEXH@Z		; CQuestInfoEx::GCQuestInit
PUBLIC	?CGRequestQuestState@CQuestInfoEx@@QAEXH@Z	; CQuestInfoEx::CGRequestQuestState
PUBLIC	?CGRequestInitQuest@CQuestInfoEx@@QAEXPAEH@Z	; CQuestInfoEx::CGRequestInitQuest
PUBLIC	?CGQuestComplete@CQuestInfoEx@@QAEXPAEH@Z	; CQuestInfoEx::CGQuestComplete
PUBLIC	?CGQuitQuest@CQuestInfoEx@@QAEXPAEH@Z		; CQuestInfoEx::CGQuitQuest
PUBLIC	?CGRequestQuestStep@CQuestInfoEx@@QAEXPAEH@Z	; CQuestInfoEx::CGRequestQuestStep
PUBLIC	?CGClientAction@CQuestInfoEx@@QAEXPAEH@Z	; CQuestInfoEx::CGClientAction
PUBLIC	?CGReqQuestInfo@CQuestInfoEx@@QAEXPAEH@Z	; CQuestInfoEx::CGReqQuestInfo
PUBLIC	?GDSaveQuestInfo@CQuestInfoEx@@QAEXPAUOBJECTSTRUCT@@@Z ; CQuestInfoEx::GDSaveQuestInfo
PUBLIC	?GDReqQuestInfo@CQuestInfoEx@@QAEXPAUOBJECTSTRUCT@@@Z ; CQuestInfoEx::GDReqQuestInfo
PUBLIC	?DGAnsQuestInfo@CQuestInfoEx@@QAEXPAE@Z		; CQuestInfoEx::DGAnsQuestInfo
PUBLIC	?GCSendAvaibleQuest@CQuestInfoEx@@QAEXH@Z	; CQuestInfoEx::GCSendAvaibleQuest
PUBLIC	?GCSendQuestAction@CQuestInfoEx@@QAEXHHH@Z	; CQuestInfoEx::GCSendQuestAction
PUBLIC	?GCSendQuestStart@CQuestInfoEx@@QAEXHHH@Z	; CQuestInfoEx::GCSendQuestStart
PUBLIC	?GCSendBuff@CQuestInfoEx@@QAEXH@Z		; CQuestInfoEx::GCSendBuff
PUBLIC	?GetQuestAction@CQuestInfoEx@@QAEPAUQUESTEX_PROGRESS_ACTION@@HHPAUOBJECTSTRUCT@@@Z ; CQuestInfoEx::GetQuestAction
PUBLIC	?GetQuestAction@CQuestInfoEx@@QAEPAUQUESTEX_PROGRESS_ACTION@@PAUQUESTEX_PROGRESS_GROUP@@PAUOBJECTSTRUCT@@@Z ; CQuestInfoEx::GetQuestAction
PUBLIC	?GetQuestInfo@CQuestInfoEx@@QAEPAUQUESTEX_INFO@@HH@Z ; CQuestInfoEx::GetQuestInfo
PUBLIC	?CheckConditions@CQuestInfoEx@@QAEHPAUQUESTEX_INFO@@PAUQUESTEX_USER@@H@Z ; CQuestInfoEx::CheckConditions
PUBLIC	?GiveReward@CQuestInfoEx@@QAEHPAUQUESTEX_INFO@@H@Z ; CQuestInfoEx::GiveReward
PUBLIC	?CreateInfoMsg@CQuestInfoEx@@QAEXPAUPMSG_QUESTEX_CONDITION@@PAUQUESTEX_INFO@@PAUOBJECTSTRUCT@@@Z ; CQuestInfoEx::CreateInfoMsg
PUBLIC	?GetItemCount@CQuestInfoEx@@QAEHPAUOBJECTSTRUCT@@HH@Z ; CQuestInfoEx::GetItemCount
PUBLIC	?MonsterKill@CQuestInfoEx@@QAEHPAUOBJECTSTRUCT@@0@Z ; CQuestInfoEx::MonsterKill
PUBLIC	?_Buyheadnode@?$_Tree_comp_alloc@V?$_Tmap_traits@EUQUESTEX_PROGRESS_GROUP@@U?$less@E@std@@V?$allocator@U?$pair@$$CBEUQUESTEX_PROGRESS_GROUP@@@std@@@3@$0A@@std@@@std@@QAEPAU?$_Tree_node@U?$pair@$$CBEUQUESTEX_PROGRESS_GROUP@@@std@@PAX@2@XZ ; std::_Tree_comp_alloc<std::_Tmap_traits<unsigned char,QUESTEX_PROGRESS_GROUP,std::less<unsigned char>,std::allocator<std::pair<unsigned char const ,QUESTEX_PROGRESS_GROUP> >,0> >::_Buyheadnode
PUBLIC	?_Buynode0@?$_Tree_comp_alloc@V?$_Tmap_traits@EUQUESTEX_PROGRESS_GROUP@@U?$less@E@std@@V?$allocator@U?$pair@$$CBEUQUESTEX_PROGRESS_GROUP@@@std@@@3@$0A@@std@@@std@@QAEPAU?$_Tree_node@U?$pair@$$CBEUQUESTEX_PROGRESS_GROUP@@@std@@PAX@2@XZ ; std::_Tree_comp_alloc<std::_Tmap_traits<unsigned char,QUESTEX_PROGRESS_GROUP,std::less<unsigned char>,std::allocator<std::pair<unsigned char const ,QUESTEX_PROGRESS_GROUP> >,0> >::_Buynode0
PUBLIC	?erase@?$_Tree@V?$_Tmap_traits@EUQUESTEX_PROGRESS_GROUP@@U?$less@E@std@@V?$allocator@U?$pair@$$CBEUQUESTEX_PROGRESS_GROUP@@@std@@@3@$0A@@std@@@std@@QAE?AV?$_Tree_iterator@V?$_Tree_val@U?$_Tree_simple_types@U?$pair@$$CBEUQUESTEX_PROGRESS_GROUP@@@std@@@std@@@std@@@2@V?$_Tree_const_iterator@V?$_Tree_val@U?$_Tree_simple_types@U?$pair@$$CBEUQUESTEX_PROGRESS_GROUP@@@std@@@std@@@std@@@2@@Z ; std::_Tree<std::_Tmap_traits<unsigned char,QUESTEX_PROGRESS_GROUP,std::less<unsigned char>,std::allocator<std::pair<unsigned char const ,QUESTEX_PROGRESS_GROUP> >,0> >::erase
PUBLIC	?erase@?$_Tree@V?$_Tmap_traits@EUQUESTEX_PROGRESS_GROUP@@U?$less@E@std@@V?$allocator@U?$pair@$$CBEUQUESTEX_PROGRESS_GROUP@@@std@@@3@$0A@@std@@@std@@QAE?AV?$_Tree_iterator@V?$_Tree_val@U?$_Tree_simple_types@U?$pair@$$CBEUQUESTEX_PROGRESS_GROUP@@@std@@@std@@@std@@@2@V?$_Tree_const_iterator@V?$_Tree_val@U?$_Tree_simple_types@U?$pair@$$CBEUQUESTEX_PROGRESS_GROUP@@@std@@@std@@@std@@@2@0@Z ; std::_Tree<std::_Tmap_traits<unsigned char,QUESTEX_PROGRESS_GROUP,std::less<unsigned char>,std::allocator<std::pair<unsigned char const ,QUESTEX_PROGRESS_GROUP> >,0> >::erase
PUBLIC	?clear@?$_Tree@V?$_Tmap_traits@EUQUESTEX_PROGRESS_GROUP@@U?$less@E@std@@V?$allocator@U?$pair@$$CBEUQUESTEX_PROGRESS_GROUP@@@std@@@3@$0A@@std@@@std@@QAEXXZ ; std::_Tree<std::_Tmap_traits<unsigned char,QUESTEX_PROGRESS_GROUP,std::less<unsigned char>,std::allocator<std::pair<unsigned char const ,QUESTEX_PROGRESS_GROUP> >,0> >::clear
PUBLIC	?_Erase@?$_Tree@V?$_Tmap_traits@EUQUESTEX_PROGRESS_GROUP@@U?$less@E@std@@V?$allocator@U?$pair@$$CBEUQUESTEX_PROGRESS_GROUP@@@std@@@3@$0A@@std@@@std@@IAEXPAU?$_Tree_node@U?$pair@$$CBEUQUESTEX_PROGRESS_GROUP@@@std@@PAX@2@@Z ; std::_Tree<std::_Tmap_traits<unsigned char,QUESTEX_PROGRESS_GROUP,std::less<unsigned char>,std::allocator<std::pair<unsigned char const ,QUESTEX_PROGRESS_GROUP> >,0> >::_Erase
PUBLIC	?_Lrotate@?$_Tree@V?$_Tmap_traits@EUQUESTEX_PROGRESS_GROUP@@U?$less@E@std@@V?$allocator@U?$pair@$$CBEUQUESTEX_PROGRESS_GROUP@@@std@@@3@$0A@@std@@@std@@IAEXPAU?$_Tree_node@U?$pair@$$CBEUQUESTEX_PROGRESS_GROUP@@@std@@PAX@2@@Z ; std::_Tree<std::_Tmap_traits<unsigned char,QUESTEX_PROGRESS_GROUP,std::less<unsigned char>,std::allocator<std::pair<unsigned char const ,QUESTEX_PROGRESS_GROUP> >,0> >::_Lrotate
PUBLIC	?_Rrotate@?$_Tree@V?$_Tmap_traits@EUQUESTEX_PROGRESS_GROUP@@U?$less@E@std@@V?$allocator@U?$pair@$$CBEUQUESTEX_PROGRESS_GROUP@@@std@@@3@$0A@@std@@@std@@IAEXPAU?$_Tree_node@U?$pair@$$CBEUQUESTEX_PROGRESS_GROUP@@@std@@PAX@2@@Z ; std::_Tree<std::_Tmap_traits<unsigned char,QUESTEX_PROGRESS_GROUP,std::less<unsigned char>,std::allocator<std::pair<unsigned char const ,QUESTEX_PROGRESS_GROUP> >,0> >::_Rrotate
PUBLIC	??A?$map@EUQUESTEX_PROGRESS_GROUP@@U?$less@E@std@@V?$allocator@U?$pair@$$CBEUQUESTEX_PROGRESS_GROUP@@@std@@@3@@std@@QAEAAUQUESTEX_PROGRESS_GROUP@@ABE@Z ; std::map<unsigned char,QUESTEX_PROGRESS_GROUP,std::less<unsigned char>,std::allocator<std::pair<unsigned char const ,QUESTEX_PROGRESS_GROUP> > >::operator[]
PUBLIC	??1?$map@EUQUESTEX_PROGRESS_GROUP@@U?$less@E@std@@V?$allocator@U?$pair@$$CBEUQUESTEX_PROGRESS_GROUP@@@std@@@3@@std@@QAE@XZ ; std::map<unsigned char,QUESTEX_PROGRESS_GROUP,std::less<unsigned char>,std::allocator<std::pair<unsigned char const ,QUESTEX_PROGRESS_GROUP> > >::~map<unsigned char,QUESTEX_PROGRESS_GROUP,std::less<unsigned char>,std::allocator<std::pair<unsigned char const ,QUESTEX_PROGRESS_GROUP> > >
PUBLIC	?_Buyheadnode@?$_Tree_comp_alloc@V?$_Tmap_traits@EUQUESTEX_GROUP_INFO@@U?$less@E@std@@V?$allocator@U?$pair@$$CBEUQUESTEX_GROUP_INFO@@@std@@@3@$0A@@std@@@std@@QAEPAU?$_Tree_node@U?$pair@$$CBEUQUESTEX_GROUP_INFO@@@std@@PAX@2@XZ ; std::_Tree_comp_alloc<std::_Tmap_traits<unsigned char,QUESTEX_GROUP_INFO,std::less<unsigned char>,std::allocator<std::pair<unsigned char const ,QUESTEX_GROUP_INFO> >,0> >::_Buyheadnode
PUBLIC	?_Buynode0@?$_Tree_comp_alloc@V?$_Tmap_traits@EUQUESTEX_GROUP_INFO@@U?$less@E@std@@V?$allocator@U?$pair@$$CBEUQUESTEX_GROUP_INFO@@@std@@@3@$0A@@std@@@std@@QAEPAU?$_Tree_node@U?$pair@$$CBEUQUESTEX_GROUP_INFO@@@std@@PAX@2@XZ ; std::_Tree_comp_alloc<std::_Tmap_traits<unsigned char,QUESTEX_GROUP_INFO,std::less<unsigned char>,std::allocator<std::pair<unsigned char const ,QUESTEX_GROUP_INFO> >,0> >::_Buynode0
PUBLIC	?erase@?$_Tree@V?$_Tmap_traits@EUQUESTEX_GROUP_INFO@@U?$less@E@std@@V?$allocator@U?$pair@$$CBEUQUESTEX_GROUP_INFO@@@std@@@3@$0A@@std@@@std@@QAE?AV?$_Tree_iterator@V?$_Tree_val@U?$_Tree_simple_types@U?$pair@$$CBEUQUESTEX_GROUP_INFO@@@std@@@std@@@std@@@2@V?$_Tree_const_iterator@V?$_Tree_val@U?$_Tree_simple_types@U?$pair@$$CBEUQUESTEX_GROUP_INFO@@@std@@@std@@@std@@@2@@Z ; std::_Tree<std::_Tmap_traits<unsigned char,QUESTEX_GROUP_INFO,std::less<unsigned char>,std::allocator<std::pair<unsigned char const ,QUESTEX_GROUP_INFO> >,0> >::erase
PUBLIC	?erase@?$_Tree@V?$_Tmap_traits@EUQUESTEX_GROUP_INFO@@U?$less@E@std@@V?$allocator@U?$pair@$$CBEUQUESTEX_GROUP_INFO@@@std@@@3@$0A@@std@@@std@@QAE?AV?$_Tree_iterator@V?$_Tree_val@U?$_Tree_simple_types@U?$pair@$$CBEUQUESTEX_GROUP_INFO@@@std@@@std@@@std@@@2@V?$_Tree_const_iterator@V?$_Tree_val@U?$_Tree_simple_types@U?$pair@$$CBEUQUESTEX_GROUP_INFO@@@std@@@std@@@std@@@2@0@Z ; std::_Tree<std::_Tmap_traits<unsigned char,QUESTEX_GROUP_INFO,std::less<unsigned char>,std::allocator<std::pair<unsigned char const ,QUESTEX_GROUP_INFO> >,0> >::erase
PUBLIC	?_Destroy_if_not_nil@?$_Tree@V?$_Tmap_traits@EUQUESTEX_GROUP_INFO@@U?$less@E@std@@V?$allocator@U?$pair@$$CBEUQUESTEX_GROUP_INFO@@@std@@@3@$0A@@std@@@std@@IAEXPAU?$_Tree_node@U?$pair@$$CBEUQUESTEX_GROUP_INFO@@@std@@PAX@2@@Z ; std::_Tree<std::_Tmap_traits<unsigned char,QUESTEX_GROUP_INFO,std::less<unsigned char>,std::allocator<std::pair<unsigned char const ,QUESTEX_GROUP_INFO> >,0> >::_Destroy_if_not_nil
PUBLIC	?_Erase@?$_Tree@V?$_Tmap_traits@EUQUESTEX_GROUP_INFO@@U?$less@E@std@@V?$allocator@U?$pair@$$CBEUQUESTEX_GROUP_INFO@@@std@@@3@$0A@@std@@@std@@IAEXPAU?$_Tree_node@U?$pair@$$CBEUQUESTEX_GROUP_INFO@@@std@@PAX@2@@Z ; std::_Tree<std::_Tmap_traits<unsigned char,QUESTEX_GROUP_INFO,std::less<unsigned char>,std::allocator<std::pair<unsigned char const ,QUESTEX_GROUP_INFO> >,0> >::_Erase
PUBLIC	?_Lrotate@?$_Tree@V?$_Tmap_traits@EUQUESTEX_GROUP_INFO@@U?$less@E@std@@V?$allocator@U?$pair@$$CBEUQUESTEX_GROUP_INFO@@@std@@@3@$0A@@std@@@std@@IAEXPAU?$_Tree_node@U?$pair@$$CBEUQUESTEX_GROUP_INFO@@@std@@PAX@2@@Z ; std::_Tree<std::_Tmap_traits<unsigned char,QUESTEX_GROUP_INFO,std::less<unsigned char>,std::allocator<std::pair<unsigned char const ,QUESTEX_GROUP_INFO> >,0> >::_Lrotate
PUBLIC	?_Rrotate@?$_Tree@V?$_Tmap_traits@EUQUESTEX_GROUP_INFO@@U?$less@E@std@@V?$allocator@U?$pair@$$CBEUQUESTEX_GROUP_INFO@@@std@@@3@$0A@@std@@@std@@IAEXPAU?$_Tree_node@U?$pair@$$CBEUQUESTEX_GROUP_INFO@@@std@@PAX@2@@Z ; std::_Tree<std::_Tmap_traits<unsigned char,QUESTEX_GROUP_INFO,std::less<unsigned char>,std::allocator<std::pair<unsigned char const ,QUESTEX_GROUP_INFO> >,0> >::_Rrotate
PUBLIC	??A?$map@EUQUESTEX_GROUP_INFO@@U?$less@E@std@@V?$allocator@U?$pair@$$CBEUQUESTEX_GROUP_INFO@@@std@@@3@@std@@QAEAAUQUESTEX_GROUP_INFO@@ABE@Z ; std::map<unsigned char,QUESTEX_GROUP_INFO,std::less<unsigned char>,std::allocator<std::pair<unsigned char const ,QUESTEX_GROUP_INFO> > >::operator[]
PUBLIC	??1?$map@EUQUESTEX_GROUP_INFO@@U?$less@E@std@@V?$allocator@U?$pair@$$CBEUQUESTEX_GROUP_INFO@@@std@@@3@@std@@QAE@XZ ; std::map<unsigned char,QUESTEX_GROUP_INFO,std::less<unsigned char>,std::allocator<std::pair<unsigned char const ,QUESTEX_GROUP_INFO> > >::~map<unsigned char,QUESTEX_GROUP_INFO,std::less<unsigned char>,std::allocator<std::pair<unsigned char const ,QUESTEX_GROUP_INFO> > >
PUBLIC	??_GCQuestInfoEx@@UAEPAXI@Z			; CQuestInfoEx::`scalar deleting destructor'
PUBLIC	??E?$_Tree_unchecked_const_iterator@V?$_Tree_val@U?$_Tree_simple_types@U?$pair@$$CBEUQUESTEX_PROGRESS_GROUP@@@std@@@std@@@std@@U_Iterator_base0@2@@std@@QAEAAV01@XZ ; std::_Tree_unchecked_const_iterator<std::_Tree_val<std::_Tree_simple_types<std::pair<unsigned char const ,QUESTEX_PROGRESS_GROUP> > >,std::_Iterator_base0>::operator++
PUBLIC	??F?$_Tree_unchecked_const_iterator@V?$_Tree_val@U?$_Tree_simple_types@U?$pair@$$CBEUQUESTEX_PROGRESS_GROUP@@@std@@@std@@@std@@U_Iterator_base0@2@@std@@QAEAAV01@XZ ; std::_Tree_unchecked_const_iterator<std::_Tree_val<std::_Tree_simple_types<std::pair<unsigned char const ,QUESTEX_PROGRESS_GROUP> > >,std::_Iterator_base0>::operator--
PUBLIC	??E?$_Tree_unchecked_const_iterator@V?$_Tree_val@U?$_Tree_simple_types@U?$pair@$$CBEUQUESTEX_GROUP_INFO@@@std@@@std@@@std@@U_Iterator_base0@2@@std@@QAEAAV01@XZ ; std::_Tree_unchecked_const_iterator<std::_Tree_val<std::_Tree_simple_types<std::pair<unsigned char const ,QUESTEX_GROUP_INFO> > >,std::_Iterator_base0>::operator++
PUBLIC	??F?$_Tree_unchecked_const_iterator@V?$_Tree_val@U?$_Tree_simple_types@U?$pair@$$CBEUQUESTEX_GROUP_INFO@@@std@@@std@@@std@@U_Iterator_base0@2@@std@@QAEAAV01@XZ ; std::_Tree_unchecked_const_iterator<std::_Tree_val<std::_Tree_simple_types<std::pair<unsigned char const ,QUESTEX_GROUP_INFO> > >,std::_Iterator_base0>::operator--
PUBLIC	??$_Buynode@ABUpiecewise_construct_t@std@@V?$tuple@ABE@2@V?$tuple@$$V@2@@?$_Tree_comp_alloc@V?$_Tmap_traits@EUQUESTEX_GROUP_INFO@@U?$less@E@std@@V?$allocator@U?$pair@$$CBEUQUESTEX_GROUP_INFO@@@std@@@3@$0A@@std@@@std@@QAEPAU?$_Tree_node@U?$pair@$$CBEUQUESTEX_GROUP_INFO@@@std@@PAX@1@ABUpiecewise_construct_t@1@$$QAV?$tuple@ABE@1@$$QAV?$tuple@$$V@1@@Z ; std::_Tree_comp_alloc<std::_Tmap_traits<unsigned char,QUESTEX_GROUP_INFO,std::less<unsigned char>,std::allocator<std::pair<unsigned char const ,QUESTEX_GROUP_INFO> >,0> >::_Buynode<std::piecewise_construct_t const &,std::tuple<unsigned char const &>,std::tuple<> >
PUBLIC	??$_Insert_hint@AAU?$pair@$$CBEUQUESTEX_GROUP_INFO@@@std@@PAU?$_Tree_node@U?$pair@$$CBEUQUESTEX_GROUP_INFO@@@std@@PAX@2@@?$_Tree@V?$_Tmap_traits@EUQUESTEX_GROUP_INFO@@U?$less@E@std@@V?$allocator@U?$pair@$$CBEUQUESTEX_GROUP_INFO@@@std@@@3@$0A@@std@@@std@@IAE?AV?$_Tree_iterator@V?$_Tree_val@U?$_Tree_simple_types@U?$pair@$$CBEUQUESTEX_GROUP_INFO@@@std@@@std@@@std@@@1@V?$_Tree_const_iterator@V?$_Tree_val@U?$_Tree_simple_types@U?$pair@$$CBEUQUESTEX_GROUP_INFO@@@std@@@std@@@std@@@1@AAU?$pair@$$CBEUQUESTEX_GROUP_INFO@@@1@PAU?$_Tree_node@U?$pair@$$CBEUQUESTEX_GROUP_INFO@@@std@@PAX@1@@Z ; std::_Tree<std::_Tmap_traits<unsigned char,QUESTEX_GROUP_INFO,std::less<unsigned char>,std::allocator<std::pair<unsigned char const ,QUESTEX_GROUP_INFO> >,0> >::_Insert_hint<std::pair<unsigned char const ,QUESTEX_GROUP_INFO> &,std::_Tree_node<std::pair<unsigned char const ,QUESTEX_GROUP_INFO>,void *> *>
PUBLIC	??$_Buynode@ABUpiecewise_construct_t@std@@V?$tuple@ABE@2@V?$tuple@$$V@2@@?$_Tree_comp_alloc@V?$_Tmap_traits@EUQUESTEX_PROGRESS_GROUP@@U?$less@E@std@@V?$allocator@U?$pair@$$CBEUQUESTEX_PROGRESS_GROUP@@@std@@@3@$0A@@std@@@std@@QAEPAU?$_Tree_node@U?$pair@$$CBEUQUESTEX_PROGRESS_GROUP@@@std@@PAX@1@ABUpiecewise_construct_t@1@$$QAV?$tuple@ABE@1@$$QAV?$tuple@$$V@1@@Z ; std::_Tree_comp_alloc<std::_Tmap_traits<unsigned char,QUESTEX_PROGRESS_GROUP,std::less<unsigned char>,std::allocator<std::pair<unsigned char const ,QUESTEX_PROGRESS_GROUP> >,0> >::_Buynode<std::piecewise_construct_t const &,std::tuple<unsigned char const &>,std::tuple<> >
PUBLIC	??$_Insert_hint@AAU?$pair@$$CBEUQUESTEX_PROGRESS_GROUP@@@std@@PAU?$_Tree_node@U?$pair@$$CBEUQUESTEX_PROGRESS_GROUP@@@std@@PAX@2@@?$_Tree@V?$_Tmap_traits@EUQUESTEX_PROGRESS_GROUP@@U?$less@E@std@@V?$allocator@U?$pair@$$CBEUQUESTEX_PROGRESS_GROUP@@@std@@@3@$0A@@std@@@std@@IAE?AV?$_Tree_iterator@V?$_Tree_val@U?$_Tree_simple_types@U?$pair@$$CBEUQUESTEX_PROGRESS_GROUP@@@std@@@std@@@std@@@1@V?$_Tree_const_iterator@V?$_Tree_val@U?$_Tree_simple_types@U?$pair@$$CBEUQUESTEX_PROGRESS_GROUP@@@std@@@std@@@std@@@1@AAU?$pair@$$CBEUQUESTEX_PROGRESS_GROUP@@@1@PAU?$_Tree_node@U?$pair@$$CBEUQUESTEX_PROGRESS_GROUP@@@std@@PAX@1@@Z ; std::_Tree<std::_Tmap_traits<unsigned char,QUESTEX_PROGRESS_GROUP,std::less<unsigned char>,std::allocator<std::pair<unsigned char const ,QUESTEX_PROGRESS_GROUP> >,0> >::_Insert_hint<std::pair<unsigned char const ,QUESTEX_PROGRESS_GROUP> &,std::_Tree_node<std::pair<unsigned char const ,QUESTEX_PROGRESS_GROUP>,void *> *>
PUBLIC	??$_Insert_at@AAU?$pair@$$CBEUQUESTEX_GROUP_INFO@@@std@@PAU?$_Tree_node@U?$pair@$$CBEUQUESTEX_GROUP_INFO@@@std@@PAX@2@@?$_Tree@V?$_Tmap_traits@EUQUESTEX_GROUP_INFO@@U?$less@E@std@@V?$allocator@U?$pair@$$CBEUQUESTEX_GROUP_INFO@@@std@@@3@$0A@@std@@@std@@IAE?AV?$_Tree_iterator@V?$_Tree_val@U?$_Tree_simple_types@U?$pair@$$CBEUQUESTEX_GROUP_INFO@@@std@@@std@@@std@@@1@_NPAU?$_Tree_node@U?$pair@$$CBEUQUESTEX_GROUP_INFO@@@std@@PAX@1@AAU?$pair@$$CBEUQUESTEX_GROUP_INFO@@@1@1@Z ; std::_Tree<std::_Tmap_traits<unsigned char,QUESTEX_GROUP_INFO,std::less<unsigned char>,std::allocator<std::pair<unsigned char const ,QUESTEX_GROUP_INFO> >,0> >::_Insert_at<std::pair<unsigned char const ,QUESTEX_GROUP_INFO> &,std::_Tree_node<std::pair<unsigned char const ,QUESTEX_GROUP_INFO>,void *> *>
PUBLIC	??$_Insert_nohint@AAU?$pair@$$CBEUQUESTEX_GROUP_INFO@@@std@@PAU?$_Tree_node@U?$pair@$$CBEUQUESTEX_GROUP_INFO@@@std@@PAX@2@@?$_Tree@V?$_Tmap_traits@EUQUESTEX_GROUP_INFO@@U?$less@E@std@@V?$allocator@U?$pair@$$CBEUQUESTEX_GROUP_INFO@@@std@@@3@$0A@@std@@@std@@IAE?AU?$pair@V?$_Tree_iterator@V?$_Tree_val@U?$_Tree_simple_types@U?$pair@$$CBEUQUESTEX_GROUP_INFO@@@std@@@std@@@std@@@std@@_N@1@_NAAU?$pair@$$CBEUQUESTEX_GROUP_INFO@@@1@PAU?$_Tree_node@U?$pair@$$CBEUQUESTEX_GROUP_INFO@@@std@@PAX@1@@Z ; std::_Tree<std::_Tmap_traits<unsigned char,QUESTEX_GROUP_INFO,std::less<unsigned char>,std::allocator<std::pair<unsigned char const ,QUESTEX_GROUP_INFO> >,0> >::_Insert_nohint<std::pair<unsigned char const ,QUESTEX_GROUP_INFO> &,std::_Tree_node<std::pair<unsigned char const ,QUESTEX_GROUP_INFO>,void *> *>
PUBLIC	??$_Insert_at@AAU?$pair@$$CBEUQUESTEX_PROGRESS_GROUP@@@std@@PAU?$_Tree_node@U?$pair@$$CBEUQUESTEX_PROGRESS_GROUP@@@std@@PAX@2@@?$_Tree@V?$_Tmap_traits@EUQUESTEX_PROGRESS_GROUP@@U?$less@E@std@@V?$allocator@U?$pair@$$CBEUQUESTEX_PROGRESS_GROUP@@@std@@@3@$0A@@std@@@std@@IAE?AV?$_Tree_iterator@V?$_Tree_val@U?$_Tree_simple_types@U?$pair@$$CBEUQUESTEX_PROGRESS_GROUP@@@std@@@std@@@std@@@1@_NPAU?$_Tree_node@U?$pair@$$CBEUQUESTEX_PROGRESS_GROUP@@@std@@PAX@1@AAU?$pair@$$CBEUQUESTEX_PROGRESS_GROUP@@@1@1@Z ; std::_Tree<std::_Tmap_traits<unsigned char,QUESTEX_PROGRESS_GROUP,std::less<unsigned char>,std::allocator<std::pair<unsigned char const ,QUESTEX_PROGRESS_GROUP> >,0> >::_Insert_at<std::pair<unsigned char const ,QUESTEX_PROGRESS_GROUP> &,std::_Tree_node<std::pair<unsigned char const ,QUESTEX_PROGRESS_GROUP>,void *> *>
PUBLIC	??$_Insert_nohint@AAU?$pair@$$CBEUQUESTEX_PROGRESS_GROUP@@@std@@PAU?$_Tree_node@U?$pair@$$CBEUQUESTEX_PROGRESS_GROUP@@@std@@PAX@2@@?$_Tree@V?$_Tmap_traits@EUQUESTEX_PROGRESS_GROUP@@U?$less@E@std@@V?$allocator@U?$pair@$$CBEUQUESTEX_PROGRESS_GROUP@@@std@@@3@$0A@@std@@@std@@IAE?AU?$pair@V?$_Tree_iterator@V?$_Tree_val@U?$_Tree_simple_types@U?$pair@$$CBEUQUESTEX_PROGRESS_GROUP@@@std@@@std@@@std@@@std@@_N@1@_NAAU?$pair@$$CBEUQUESTEX_PROGRESS_GROUP@@@1@PAU?$_Tree_node@U?$pair@$$CBEUQUESTEX_PROGRESS_GROUP@@@std@@PAX@1@@Z ; std::_Tree<std::_Tmap_traits<unsigned char,QUESTEX_PROGRESS_GROUP,std::less<unsigned char>,std::allocator<std::pair<unsigned char const ,QUESTEX_PROGRESS_GROUP> >,0> >::_Insert_nohint<std::pair<unsigned char const ,QUESTEX_PROGRESS_GROUP> &,std::_Tree_node<std::pair<unsigned char const ,QUESTEX_PROGRESS_GROUP>,void *> *>
PUBLIC	??_7CQuestInfo@@6B@				; CQuestInfo::`vftable'
PUBLIC	?g_QuestInfo@@3VCQuestInfo@@A			; g_QuestInfo
PUBLIC	??_7CQuestMonsterKillInfo@@6B@			; CQuestMonsterKillInfo::`vftable'
PUBLIC	?g_MonsterKillInfo@@3VCQuestMonsterKillInfo@@A	; g_MonsterKillInfo
PUBLIC	??_7CQuestInfoEx@@6B@				; CQuestInfoEx::`vftable'
PUBLIC	?gQuestInfoEx@@3VCQuestInfoEx@@A		; gQuestInfoEx
PUBLIC	??_C@_01KDCPPGHE@r?$AA@				; `string'
PUBLIC	??_C@_0O@NOCIMNHO@load?5error?5?$CFs?$AA@	; `string'
PUBLIC	??_C@_03JBJLGPFL@end?$AA@			; `string'
PUBLIC	??_C@_0CO@IPPCPA@?$FLQuest?$FN?5?$CI?$CFs?$CJ?5Load?5?3?5Index?5?$CFd?0?5Su@ ; `string'
PUBLIC	??_C@_0BF@JAOCNINL@Quest?5Info?5Read?5Fail?$AA@	; `string'
PUBLIC	??_C@_0BK@EGHNLLGE@?$FLQuest?$FN?5?$FLSetQuestItem?$FN?5?$CFs?$AA@ ; `string'
PUBLIC	??_C@_0CC@BPALCPGE@?$FLQuest?$FN?5AcceptQuest?5?$FL?$CFs?$FN?$FL?$CFs?$FN?5?$CI?$CFs@ ; `string'
PUBLIC	??_C@_0CB@KKBMLGHJ@?$FLQuest?$FN?5ClearQuest?5?$FL?$CFs?$FN?$FL?$CFs?$FN?5?$CI?$CFs?$CJ@ ; `string'
PUBLIC	??_C@_0EM@GFMDAEDC@?$FLQuest?$FN?5Error?5?9?5Invalid?5MonsterK@ ; `string'
PUBLIC	??_C@_0DE@CLGCKBPA@?$FLQuest?$FN?5Quest?5Item?5Drop?5?$FL?$CFs?$FN?3?5?$FL?$CF@ ; `string'
PUBLIC	??_C@_0DL@ODHGIMOD@?$FLQuest?$FN?5Quest?5Item?5Drop?$CIParty?$CJ?5?$FL@ ; `string'
PUBLIC	??_C@_0DM@DEIPHGLI@?$FLQuest?$FN?5Quest?5Accept?5?9?5MonsterKi@ ; `string'
PUBLIC	??_C@_0DK@OGOONICP@?$FLQuest?$FN?5Quest?5Clear?5?$CI?$CFs?$CJ?5?3?5?$FL?$CFs?$FN?$FL@ ; `string'
PUBLIC	??_C@_0DA@FJIJPLFD@?$FLQuest?$FN?5Quest?5Clear?5?$CI?$CFs?$CJ?5?3?5?$FL?$CFs?$FN?$FL@ ; `string'
PUBLIC	??_C@_0DK@CADKKHAN@?$FLQuest?$FN?5Quest?5Clear?5?$CI?$CFs?$CJ?5?3?5?$FL?$CFs?$FN?$FL@ ; `string'
PUBLIC	??_C@_0CP@JAPDAPMO@?$FLQuest?$FN?5Quest?5Clear?5?$CI?$CFs?$CJ?5?3?5?$FL?$CFs?$FN?$FL@ ; `string'
PUBLIC	??_C@_0DP@MIGJKFOH@?$FLQuest?$FN?5Quest?5Clear?5?$CI?$CFs?$CJ?5?3?5?$FL?$CFs?$FN?$FL@ ; `string'
PUBLIC	??_C@_0DN@GBDKNIEG@?$FLQuest?$FN?5Quest?5Clear?5?9?5MonsterKil@ ; `string'
PUBLIC	??_C@_0ED@KLNCEAII@?$FLQuest?$FN?5Quest?5Clear?5?$CI?$CFs?$CJ?5?3?5?$FL?$CFs?$FN?$FL@ ; `string'
PUBLIC	??_C@_0DI@HHHLGGKH@?$FLQuest?$FN?5QuestSave?5?$FL?$CFs?$FN?$FL?$CFs?$FN?5index@ ; `string'
PUBLIC	??_C@_0DC@NKBKBJEI@?$FLQuest?$FN?5Too?5many?5has?5quest?5items@ ; `string'
PUBLIC	??_C@_0FC@NKLIHJLF@?$FLQuest?$FN?5Set?5MonsterKillInfo?5?$FL?$CFs?$FN@ ; `string'
PUBLIC	??_C@_0EP@JGJNAFCF@?$FLQuest?$FN?5Save?5MonsterKillInfo?5?$FL?$CFs@ ; `string'
PUBLIC	??_C@_0CF@GAMOBHPH@?$FLQuestSystem?$FN?5Load?5file?5failed?$CB?5@ ; `string'
PUBLIC	??_C@_0DA@LBIFEBPE@?$FLQuestSystem?$FN?5QuestGroup?$CI?$CFd?$CJ?5not@ ; `string'
PUBLIC	??_C@_0DG@OHPKOHKM@?$FLQuestSystem?$FN?5QuestGroup?$CI?$CFd?$CJ?5Add@ ; `string'
PUBLIC	??_C@_0EB@IMFOBCIG@?$FLQuestSystem?$FN?5QuestCount?5in?5grou@ ; `string'
PUBLIC	??_C@_0CN@CNCOLAFH@?$FLQuestSystem?$FN?5iCondition?5out?5of?5@ ; `string'
PUBLIC	??_C@_0CK@FKLKJBAE@?$FLQuestSystem?$FN?5iReward?5out?5of?5bou@ ; `string'
PUBLIC	??_C@_0CL@NJENEGHF@?$FLQuestSystem?$FN?5Group?$CI?$CFd?$CJ?5Added?5?$FL?$CF@ ; `string'
PUBLIC	??_C@_0DB@IBKBDOHP@?$FLQuestSystem?$FN?$FLERROR?$FN?5QuestInfo?5l@ ; `string'
PUBLIC	??_C@_0DF@PNKEGFCJ@?$FLQuestSystem?$FN?5QuestAction?5not?5fo@ ; `string'
PUBLIC	??_C@_0DC@IKDMNACG@?$FLQuestSystem?$FN?5QuestInfo?5not?5foun@ ; `string'
PUBLIC	??_C@_0CB@KGECDGPP@?$FLQuestSystem?$FN?5Request?5info?$CB?5?$CI?$CFs?$CJ@ ; `string'
PUBLIC	??_C@_0BE@JONHPENG@map?1set?$DMT?$DO?5too?5long?$AA@ ; `string'
PUBLIC	??_R4CQuestInfo@@6B@				; CQuestInfo::`RTTI Complete Object Locator'
PUBLIC	??_R0?AVCQuestInfo@@@8				; CQuestInfo `RTTI Type Descriptor'
PUBLIC	??_R3CQuestInfo@@8				; CQuestInfo::`RTTI Class Hierarchy Descriptor'
PUBLIC	??_R2CQuestInfo@@8				; CQuestInfo::`RTTI Base Class Array'
PUBLIC	??_R1A@?0A@EA@CQuestInfo@@8			; CQuestInfo::`RTTI Base Class Descriptor at (0,-1,0,64)'
PUBLIC	??_R4CQuestMonsterKillInfo@@6B@			; CQuestMonsterKillInfo::`RTTI Complete Object Locator'
PUBLIC	??_R0?AVCQuestMonsterKillInfo@@@8		; CQuestMonsterKillInfo `RTTI Type Descriptor'
PUBLIC	??_R3CQuestMonsterKillInfo@@8			; CQuestMonsterKillInfo::`RTTI Class Hierarchy Descriptor'
PUBLIC	??_R2CQuestMonsterKillInfo@@8			; CQuestMonsterKillInfo::`RTTI Base Class Array'
PUBLIC	??_R1A@?0A@EA@CQuestMonsterKillInfo@@8		; CQuestMonsterKillInfo::`RTTI Base Class Descriptor at (0,-1,0,64)'
PUBLIC	??_R4CQuestInfoEx@@6B@				; CQuestInfoEx::`RTTI Complete Object Locator'
PUBLIC	??_R0?AVCQuestInfoEx@@@8			; CQuestInfoEx `RTTI Type Descriptor'
PUBLIC	??_R3CQuestInfoEx@@8				; CQuestInfoEx::`RTTI Class Hierarchy Descriptor'
PUBLIC	??_R2CQuestInfoEx@@8				; CQuestInfoEx::`RTTI Base Class Array'
PUBLIC	??_R1A@?0A@EA@CQuestInfoEx@@8			; CQuestInfoEx::`RTTI Base Class Descriptor at (0,-1,0,64)'
EXTRN	??_M@YGXPAXIIP6EX0@Z@Z:PROC			; `eh vector destructor iterator'
EXTRN	??2@YAPAXI@Z:PROC				; operator new
EXTRN	??3@YAXPAX@Z:PROC				; operator delete
EXTRN	??3@YAXPAXI@Z:PROC				; operator delete
EXTRN	??_V@YAXPAXI@Z:PROC				; operator delete[]
EXTRN	_atexit:PROC
EXTRN	___std_terminate:PROC
EXTRN	__invalid_parameter_noinfo_noreturn:PROC
EXTRN	_isalpha:PROC
EXTRN	_isdigit:PROC
EXTRN	_isspace:PROC
EXTRN	_isalnum:PROC
EXTRN	_strcpy_s:PROC
EXTRN	_fclose:PROC
EXTRN	_fgetc:PROC
EXTRN	_fopen:PROC
EXTRN	_getc:PROC
EXTRN	_ungetc:PROC
EXTRN	_rand:PROC
EXTRN	_atof:PROC
EXTRN	?_Xbad_alloc@std@@YAXXZ:PROC			; std::_Xbad_alloc
EXTRN	?_Xlength_error@std@@YAXPBD@Z:PROC		; std::_Xlength_error
EXTRN	??0CItem@@QAE@XZ:PROC				; CItem::CItem
EXTRN	?Convert@CItem@@QAEXHEEEEEEPAEEE@Z:PROC		; CItem::Convert
EXTRN	?IsItem@CItem@@QAEHXZ:PROC			; CItem::IsItem
EXTRN	?ItemByteConvert@@YAXPAEVCItem@@@Z:PROC		; ItemByteConvert
EXTRN	?ItemGetNumberMake@@YAHHH@Z:PROC		; ItemGetNumberMake
EXTRN	?ItemGetSize@@YAXHAAH0@Z:PROC			; ItemGetSize
EXTRN	?ItemGetDurability@@YAHHHHH@Z:PROC		; ItemGetDurability
EXTRN	??1CSkillDelay@@UAE@XZ:PROC			; CSkillDelay::~CSkillDelay
EXTRN	?MsgBox@@YAXPADZZ:PROC				; MsgBox
EXTRN	?DataSend@@YAHHPAEK@Z:PROC			; DataSend
EXTRN	??1TMonsterAIAgro@@UAE@XZ:PROC			; TMonsterAIAgro::~TMonsterAIAgro
EXTRN	?GCMoneySend@@YAXHK@Z:PROC			; GCMoneySend
EXTRN	?GCKillPlayerExpSend@@YAXHHHHH@Z:PROC		; GCKillPlayerExpSend
EXTRN	?GCServerCmd@@YAXHEEE@Z:PROC			; GCServerCmd
EXTRN	?GCSendQuestInfo@@YAXHH@Z:PROC			; GCSendQuestInfo
EXTRN	?GCSendQuestPrize@@YAXHEE@Z:PROC		; GCSendQuestPrize
EXTRN	?gObjIsConnected@@YAHH@Z:PROC			; gObjIsConnected
EXTRN	?gObjCalDistance@@YAHPAUOBJECTSTRUCT@@0@Z:PROC	; gObjCalDistance
EXTRN	?gObjLevelUp@@YA_NPAUOBJECTSTRUCT@@PA_JHH@Z:PROC ; gObjLevelUp
EXTRN	?CheckInventoryEmptySpace@@YAHPAUOBJECTSTRUCT@@HH@Z:PROC ; CheckInventoryEmptySpace
EXTRN	?gObjMakePreviewCharSet@@YAXH@Z:PROC		; gObjMakePreviewCharSet
EXTRN	?gObjMoveGate@@YAHHH@Z:PROC			; gObjMoveGate
EXTRN	?gObjGetMagicSearch@@YAPAVCMagicInf@@PAUOBJECTSTRUCT@@H@Z:PROC ; gObjGetMagicSearch
EXTRN	?gObjGetItemCountInIventory@@YAHHH@Z:PROC	; gObjGetItemCountInIventory
EXTRN	?gObjGetItemCountInIventory@@YAHHHHH@Z:PROC	; gObjGetItemCountInIventory
EXTRN	?gObjDelteItemCountInInventory@@YAXHHHH@Z:PROC	; gObjDelteItemCountInInventory
EXTRN	??_ECQuestInfo@@UAEPAXI@Z:PROC			; CQuestInfo::`vector deleting destructor'
EXTRN	??_ECQuestMonsterKillInfo@@UAEPAXI@Z:PROC	; CQuestMonsterKillInfo::`vector deleting destructor'
EXTRN	??_ECQuestInfoEx@@UAEPAXI@Z:PROC		; CQuestInfoEx::`vector deleting destructor'
EXTRN	??0CWzMemScript@@QAE@XZ:PROC			; CWzMemScript::CWzMemScript
EXTRN	??1CWzMemScript@@UAE@XZ:PROC			; CWzMemScript::~CWzMemScript
EXTRN	?SetBuffer@CWzMemScript@@QAEHPADH@Z:PROC	; CWzMemScript::SetBuffer
EXTRN	?GetToken@CWzMemScript@@QAE?AW4SMDToken@@XZ:PROC ; CWzMemScript::GetToken
EXTRN	?GetNumber@CWzMemScript@@QAEHXZ:PROC		; CWzMemScript::GetNumber
EXTRN	?GetString@CWzMemScript@@QAEPADXZ:PROC		; CWzMemScript::GetString
EXTRN	?GetPartyCount@PartyClass@@QAEHH@Z:PROC		; PartyClass::GetPartyCount
EXTRN	?gObjMonsterTopHitDamageUser@@YAHPAUOBJECTSTRUCT@@@Z:PROC ; gObjMonsterTopHitDamageUser
EXTRN	?ItemSerialCreateSend@@YAXHEEEHEEEEEHEEEPAE@Z:PROC ; ItemSerialCreateSend
EXTRN	?PHeadSetB@@YAXPAEEH@Z:PROC			; PHeadSetB
EXTRN	?PHeadSubSetB@@YAXPAEEEH@Z:PROC			; PHeadSubSetB
EXTRN	?PHeadSetW@@YAXPAEEH@Z:PROC			; PHeadSetW
EXTRN	?Send@DBSockMng@@QAEHPADH@Z:PROC		; DBSockMng::Send
EXTRN	?gObjAddBuffEffect@@YA_NPAUOBJECTSTRUCT@@HEHEHH@Z:PROC ; gObjAddBuffEffect
EXTRN	?IsEnabled@CMasterExperience@@QAEHPAUOBJECTSTRUCT@@@Z:PROC ; CMasterExperience::IsEnabled
EXTRN	@__security_check_cookie@4:PROC
EXTRN	__CxxThrowException@8:PROC
EXTRN	___CxxFrameHandler3:PROC
EXTRN	__chkstk:PROC
EXTRN	_memcpy:PROC
EXTRN	_memset:PROC
EXTRN	??_7type_info@@6B@:QWORD			; type_info::`vftable'
EXTRN	?ItemAttribute@@3PAUITEM_ATTRIBUTE@@A:BYTE	; ItemAttribute
EXTRN	?LogAdd@@3P6AXPADZZA:DWORD			; LogAdd
EXTRN	?LogAddC@@3P6AXEPADZZA:DWORD			; LogAddC
EXTRN	?LogAddTD@@3P6AXPADZZA:DWORD			; LogAddTD
EXTRN	?gObj@@3PAUOBJECTSTRUCT@@A:DWORD		; gObj
EXTRN	?gParty@@3VPartyClass@@A:BYTE			; gParty
EXTRN	?g_NPCBuffLevel@@3HA:DWORD			; g_NPCBuffLevel
EXTRN	?g_ElfBuffDefenseDiv@@3HA:DWORD			; g_ElfBuffDefenseDiv
EXTRN	?g_ElfBuffDefenseStart@@3HA:DWORD		; g_ElfBuffDefenseStart
EXTRN	?g_ElfBuffAttackDiv@@3HA:DWORD			; g_ElfBuffAttackDiv
EXTRN	?g_ElfBuffAttackStart@@3HA:DWORD		; g_ElfBuffAttackStart
EXTRN	?g_ElfBuffTime@@3HA:DWORD			; g_ElfBuffTime
EXTRN	?cDBSMng@@3VDBSockMng@@A:BYTE			; cDBSMng
EXTRN	?g_MasterExp@@3VCMasterExperience@@A:BYTE	; g_MasterExp
EXTRN	___security_cookie:DWORD
EXTRN	__fltused:DWORD
_BSS	SEGMENT
?g_QuestInfo@@3VCQuestInfo@@A DB 034588H DUP (?)	; g_QuestInfo
?gQuestInfoEx@@3VCQuestInfoEx@@A DB 014H DUP (?)	; gQuestInfoEx
?SMDFile@@3PAU_iobuf@@A DD 01H DUP (?)			; SMDFile
?TokenNumber@@3MA DD 01H DUP (?)			; TokenNumber
?TokenString@@3PADA DB 064H DUP (?)			; TokenString
?CurrentToken@@3W4SMDToken@@A DD 01H DUP (?)		; CurrentToken
_BSS	ENDS
CRT$XCU	SEGMENT
?g_QuestInfo$initializer$@@3P6AXXZA DD FLAT:??__Eg_QuestInfo@@YAXXZ ; g_QuestInfo$initializer$
CRT$XCU	ENDS
;	COMDAT ??_R1A@?0A@EA@CQuestInfoEx@@8
rdata$r	SEGMENT
??_R1A@?0A@EA@CQuestInfoEx@@8 DD FLAT:??_R0?AVCQuestInfoEx@@@8 ; CQuestInfoEx::`RTTI Base Class Descriptor at (0,-1,0,64)'
	DD	00H
	DD	00H
	DD	0ffffffffH
	DD	00H
	DD	040H
	DD	FLAT:??_R3CQuestInfoEx@@8
rdata$r	ENDS
;	COMDAT ??_R2CQuestInfoEx@@8
rdata$r	SEGMENT
??_R2CQuestInfoEx@@8 DD FLAT:??_R1A@?0A@EA@CQuestInfoEx@@8 ; CQuestInfoEx::`RTTI Base Class Array'
rdata$r	ENDS
;	COMDAT ??_R3CQuestInfoEx@@8
rdata$r	SEGMENT
??_R3CQuestInfoEx@@8 DD 00H				; CQuestInfoEx::`RTTI Class Hierarchy Descriptor'
	DD	00H
	DD	01H
	DD	FLAT:??_R2CQuestInfoEx@@8
rdata$r	ENDS
;	COMDAT ??_R0?AVCQuestInfoEx@@@8
data$r	SEGMENT
??_R0?AVCQuestInfoEx@@@8 DD FLAT:??_7type_info@@6B@	; CQuestInfoEx `RTTI Type Descriptor'
	DD	00H
	DB	'.?AVCQuestInfoEx@@', 00H
data$r	ENDS
;	COMDAT ??_R4CQuestInfoEx@@6B@
rdata$r	SEGMENT
??_R4CQuestInfoEx@@6B@ DD 00H				; CQuestInfoEx::`RTTI Complete Object Locator'
	DD	00H
	DD	00H
	DD	FLAT:??_R0?AVCQuestInfoEx@@@8
	DD	FLAT:??_R3CQuestInfoEx@@8
rdata$r	ENDS
;	COMDAT ??_R1A@?0A@EA@CQuestMonsterKillInfo@@8
rdata$r	SEGMENT
??_R1A@?0A@EA@CQuestMonsterKillInfo@@8 DD FLAT:??_R0?AVCQuestMonsterKillInfo@@@8 ; CQuestMonsterKillInfo::`RTTI Base Class Descriptor at (0,-1,0,64)'
	DD	00H
	DD	00H
	DD	0ffffffffH
	DD	00H
	DD	040H
	DD	FLAT:??_R3CQuestMonsterKillInfo@@8
rdata$r	ENDS
;	COMDAT ??_R2CQuestMonsterKillInfo@@8
rdata$r	SEGMENT
??_R2CQuestMonsterKillInfo@@8 DD FLAT:??_R1A@?0A@EA@CQuestMonsterKillInfo@@8 ; CQuestMonsterKillInfo::`RTTI Base Class Array'
rdata$r	ENDS
;	COMDAT ??_R3CQuestMonsterKillInfo@@8
rdata$r	SEGMENT
??_R3CQuestMonsterKillInfo@@8 DD 00H			; CQuestMonsterKillInfo::`RTTI Class Hierarchy Descriptor'
	DD	00H
	DD	01H
	DD	FLAT:??_R2CQuestMonsterKillInfo@@8
rdata$r	ENDS
;	COMDAT ??_R0?AVCQuestMonsterKillInfo@@@8
data$r	SEGMENT
??_R0?AVCQuestMonsterKillInfo@@@8 DD FLAT:??_7type_info@@6B@ ; CQuestMonsterKillInfo `RTTI Type Descriptor'
	DD	00H
	DB	'.?AVCQuestMonsterKillInfo@@', 00H
data$r	ENDS
;	COMDAT ??_R4CQuestMonsterKillInfo@@6B@
rdata$r	SEGMENT
??_R4CQuestMonsterKillInfo@@6B@ DD 00H			; CQuestMonsterKillInfo::`RTTI Complete Object Locator'
	DD	00H
	DD	00H
	DD	FLAT:??_R0?AVCQuestMonsterKillInfo@@@8
	DD	FLAT:??_R3CQuestMonsterKillInfo@@8
rdata$r	ENDS
;	COMDAT ??_R1A@?0A@EA@CQuestInfo@@8
rdata$r	SEGMENT
??_R1A@?0A@EA@CQuestInfo@@8 DD FLAT:??_R0?AVCQuestInfo@@@8 ; CQuestInfo::`RTTI Base Class Descriptor at (0,-1,0,64)'
	DD	00H
	DD	00H
	DD	0ffffffffH
	DD	00H
	DD	040H
	DD	FLAT:??_R3CQuestInfo@@8
rdata$r	ENDS
;	COMDAT ??_R2CQuestInfo@@8
rdata$r	SEGMENT
??_R2CQuestInfo@@8 DD FLAT:??_R1A@?0A@EA@CQuestInfo@@8	; CQuestInfo::`RTTI Base Class Array'
rdata$r	ENDS
;	COMDAT ??_R3CQuestInfo@@8
rdata$r	SEGMENT
??_R3CQuestInfo@@8 DD 00H				; CQuestInfo::`RTTI Class Hierarchy Descriptor'
	DD	00H
	DD	01H
	DD	FLAT:??_R2CQuestInfo@@8
rdata$r	ENDS
;	COMDAT ??_R0?AVCQuestInfo@@@8
data$r	SEGMENT
??_R0?AVCQuestInfo@@@8 DD FLAT:??_7type_info@@6B@	; CQuestInfo `RTTI Type Descriptor'
	DD	00H
	DB	'.?AVCQuestInfo@@', 00H
data$r	ENDS
;	COMDAT ??_R4CQuestInfo@@6B@
rdata$r	SEGMENT
??_R4CQuestInfo@@6B@ DD 00H				; CQuestInfo::`RTTI Complete Object Locator'
	DD	00H
	DD	00H
	DD	FLAT:??_R0?AVCQuestInfo@@@8
	DD	FLAT:??_R3CQuestInfo@@8
rdata$r	ENDS
;	COMDAT ??_C@_0BE@JONHPENG@map?1set?$DMT?$DO?5too?5long?$AA@
CONST	SEGMENT
??_C@_0BE@JONHPENG@map?1set?$DMT?$DO?5too?5long?$AA@ DB 'map/set<T> too l'
	DB	'ong', 00H					; `string'
CONST	ENDS
;	COMDAT ??_C@_0CB@KGECDGPP@?$FLQuestSystem?$FN?5Request?5info?$CB?5?$CI?$CFs?$CJ@
CONST	SEGMENT
??_C@_0CB@KGECDGPP@?$FLQuestSystem?$FN?5Request?5info?$CB?5?$CI?$CFs?$CJ@ DB '['
	DB	'QuestSystem] Request info! (%s)', 00H	; `string'
CONST	ENDS
;	COMDAT ??_C@_0DC@IKDMNACG@?$FLQuestSystem?$FN?5QuestInfo?5not?5foun@
CONST	SEGMENT
??_C@_0DC@IKDMNACG@?$FLQuestSystem?$FN?5QuestInfo?5not?5foun@ DB '[QuestS'
	DB	'ystem] QuestInfo not found(%d,%d) [%s][%s]', 00H ; `string'
CONST	ENDS
;	COMDAT ??_C@_0DF@PNKEGFCJ@?$FLQuestSystem?$FN?5QuestAction?5not?5fo@
CONST	SEGMENT
??_C@_0DF@PNKEGFCJ@?$FLQuestSystem?$FN?5QuestAction?5not?5fo@ DB '[QuestS'
	DB	'ystem] QuestAction not found!(Group:%d,Id:%d)', 00H ; `string'
CONST	ENDS
;	COMDAT ??_C@_0DB@IBKBDOHP@?$FLQuestSystem?$FN?$FLERROR?$FN?5QuestInfo?5l@
CONST	SEGMENT
??_C@_0DB@IBKBDOHP@?$FLQuestSystem?$FN?$FLERROR?$FN?5QuestInfo?5l@ DB '[Q'
	DB	'uestSystem][ERROR] QuestInfo load failed! (%s)', 00H ; `string'
CONST	ENDS
;	COMDAT ??_C@_0CL@NJENEGHF@?$FLQuestSystem?$FN?5Group?$CI?$CFd?$CJ?5Added?5?$FL?$CF@
CONST	SEGMENT
??_C@_0CL@NJENEGHF@?$FLQuestSystem?$FN?5Group?$CI?$CFd?$CJ?5Added?5?$FL?$CF@ DB '['
	DB	'QuestSystem] Group(%d) Added [%d] quests!', 00H ; `string'
CONST	ENDS
;	COMDAT ??_C@_0CK@FKLKJBAE@?$FLQuestSystem?$FN?5iReward?5out?5of?5bou@
CONST	SEGMENT
??_C@_0CK@FKLKJBAE@?$FLQuestSystem?$FN?5iReward?5out?5of?5bou@ DB '[Quest'
	DB	'System] iReward out of bounds! (%s)', 00H	; `string'
CONST	ENDS
;	COMDAT ??_C@_0CN@CNCOLAFH@?$FLQuestSystem?$FN?5iCondition?5out?5of?5@
CONST	SEGMENT
??_C@_0CN@CNCOLAFH@?$FLQuestSystem?$FN?5iCondition?5out?5of?5@ DB '[Quest'
	DB	'System] iCondition out of bounds! (%s)', 00H ; `string'
CONST	ENDS
;	COMDAT ??_C@_0EB@IMFOBCIG@?$FLQuestSystem?$FN?5QuestCount?5in?5grou@
CONST	SEGMENT
??_C@_0EB@IMFOBCIG@?$FLQuestSystem?$FN?5QuestCount?5in?5grou@ DB '[QuestS'
	DB	'ystem] QuestCount in group exceded MAX_QUESTEX_INFO! (%s)', 00H ; `string'
CONST	ENDS
;	COMDAT ??_C@_0DG@OHPKOHKM@?$FLQuestSystem?$FN?5QuestGroup?$CI?$CFd?$CJ?5Add@
CONST	SEGMENT
??_C@_0DG@OHPKOHKM@?$FLQuestSystem?$FN?5QuestGroup?$CI?$CFd?$CJ?5Add@ DB '['
	DB	'QuestSystem] QuestGroup(%d) Added (%d) quest strings', 00H ; `string'
CONST	ENDS
;	COMDAT ??_C@_0DA@LBIFEBPE@?$FLQuestSystem?$FN?5QuestGroup?$CI?$CFd?$CJ?5not@
CONST	SEGMENT
??_C@_0DA@LBIFEBPE@?$FLQuestSystem?$FN?5QuestGroup?$CI?$CFd?$CJ?5not@ DB '['
	DB	'QuestSystem] QuestGroup(%d) not in range! (%s)', 00H ; `string'
CONST	ENDS
;	COMDAT ??_C@_0CF@GAMOBHPH@?$FLQuestSystem?$FN?5Load?5file?5failed?$CB?5@
CONST	SEGMENT
??_C@_0CF@GAMOBHPH@?$FLQuestSystem?$FN?5Load?5file?5failed?$CB?5@ DB '[Qu'
	DB	'estSystem] Load file failed! (%s)', 00H	; `string'
CONST	ENDS
;	COMDAT ??_C@_0EP@JGJNAFCF@?$FLQuest?$FN?5Save?5MonsterKillInfo?5?$FL?$CFs@
CONST	SEGMENT
??_C@_0EP@JGJNAFCF@?$FLQuest?$FN?5Save?5MonsterKillInfo?5?$FL?$CFs@ DB '['
	DB	'Quest] Save MonsterKillInfo [%s][%s] (%d : %d/%d, %d/%d, %d/%'
	DB	'd, %d/%d, %d/%d)', 00H			; `string'
CONST	ENDS
;	COMDAT ??_C@_0FC@NKLIHJLF@?$FLQuest?$FN?5Set?5MonsterKillInfo?5?$FL?$CFs?$FN@
CONST	SEGMENT
??_C@_0FC@NKLIHJLF@?$FLQuest?$FN?5Set?5MonsterKillInfo?5?$FL?$CFs?$FN@ DB '['
	DB	'Quest] Set MonsterKillInfo [%s][%s](%d) (%d : %d/%d, %d/%d, %'
	DB	'd/%d, %d/%d, %d/%d)', 00H			; `string'
CONST	ENDS
;	COMDAT ??_C@_0DC@NKBKBJEI@?$FLQuest?$FN?5Too?5many?5has?5quest?5items@
CONST	SEGMENT
??_C@_0DC@NKBKBJEI@?$FLQuest?$FN?5Too?5many?5has?5quest?5items@ DB '[Ques'
	DB	't] Too many has quest items [%s][%s] (%d/%d)', 00H ; `string'
CONST	ENDS
;	COMDAT ??_C@_0DI@HHHLGGKH@?$FLQuest?$FN?5QuestSave?5?$FL?$CFs?$FN?$FL?$CFs?$FN?5index@
CONST	SEGMENT
??_C@_0DI@HHHLGGKH@?$FLQuest?$FN?5QuestSave?5?$FL?$CFs?$FN?$FL?$CFs?$FN?5index@ DB '['
	DB	'Quest] QuestSave [%s][%s] index(%d) name(%s) state(%s)', 00H ; `string'
CONST	ENDS
;	COMDAT ??_C@_0ED@KLNCEAII@?$FLQuest?$FN?5Quest?5Clear?5?$CI?$CFs?$CJ?5?3?5?$FL?$CFs?$FN?$FL@
CONST	SEGMENT
??_C@_0ED@KLNCEAII@?$FLQuest?$FN?5Quest?5Clear?5?$CI?$CFs?$CJ?5?3?5?$FL?$CFs?$FN?$FL@ DB '['
	DB	'Quest] Quest Clear (%s) : [%s][%s] Stat(%d,%d), Class:%d Plus'
	DB	'Stat', 00H					; `string'
CONST	ENDS
;	COMDAT ??_C@_0DN@GBDKNIEG@?$FLQuest?$FN?5Quest?5Clear?5?9?5MonsterKil@
CONST	SEGMENT
??_C@_0DN@GBDKNIEG@?$FLQuest?$FN?5Quest?5Clear?5?9?5MonsterKil@ DB '[Ques'
	DB	't] Quest Clear - MonsterKillCount Reset (%s) : [%s][%s]', 00H ; `string'
CONST	ENDS
;	COMDAT ??_C@_0DP@MIGJKFOH@?$FLQuest?$FN?5Quest?5Clear?5?$CI?$CFs?$CJ?5?3?5?$FL?$CFs?$FN?$FL@
CONST	SEGMENT
??_C@_0DP@MIGJKFOH@?$FLQuest?$FN?5Quest?5Clear?5?$CI?$CFs?$CJ?5?3?5?$FL?$CFs?$FN?$FL@ DB '['
	DB	'Quest] Quest Clear (%s) : [%s][%s] Class:%d(%d), 3rd ChangeUp'
	DB	00H						; `string'
CONST	ENDS
;	COMDAT ??_C@_0CP@JAPDAPMO@?$FLQuest?$FN?5Quest?5Clear?5?$CI?$CFs?$CJ?5?3?5?$FL?$CFs?$FN?$FL@
CONST	SEGMENT
??_C@_0CP@JAPDAPMO@?$FLQuest?$FN?5Quest?5Clear?5?$CI?$CFs?$CJ?5?3?5?$FL?$CFs?$FN?$FL@ DB '['
	DB	'Quest] Quest Clear (%s) : [%s][%s] ComboSkill', 00H ; `string'
CONST	ENDS
;	COMDAT ??_C@_0DK@CADKKHAN@?$FLQuest?$FN?5Quest?5Clear?5?$CI?$CFs?$CJ?5?3?5?$FL?$CFs?$FN?$FL@
CONST	SEGMENT
??_C@_0DK@CADKKHAN@?$FLQuest?$FN?5Quest?5Clear?5?$CI?$CFs?$CJ?5?3?5?$FL?$CFs?$FN?$FL@ DB '['
	DB	'Quest] Quest Clear (%s) : [%s][%s] Stat(%d,%d), PlusStat', 00H ; `string'
CONST	ENDS
;	COMDAT ??_C@_0DA@FJIJPLFD@?$FLQuest?$FN?5Quest?5Clear?5?$CI?$CFs?$CJ?5?3?5?$FL?$CFs?$FN?$FL@
CONST	SEGMENT
??_C@_0DA@FJIJPLFD@?$FLQuest?$FN?5Quest?5Clear?5?$CI?$CFs?$CJ?5?3?5?$FL?$CFs?$FN?$FL@ DB '['
	DB	'Quest] Quest Clear (%s) : [%s][%s] Stat(%d,%d)', 00H ; `string'
CONST	ENDS
;	COMDAT ??_C@_0DK@OGOONICP@?$FLQuest?$FN?5Quest?5Clear?5?$CI?$CFs?$CJ?5?3?5?$FL?$CFs?$FN?$FL@
CONST	SEGMENT
??_C@_0DK@OGOONICP@?$FLQuest?$FN?5Quest?5Clear?5?$CI?$CFs?$CJ?5?3?5?$FL?$CFs?$FN?$FL@ DB '['
	DB	'Quest] Quest Clear (%s) : [%s][%s] Stat(%d,%d), ChangeUp', 00H ; `string'
CONST	ENDS
;	COMDAT ??_C@_0DM@DEIPHGLI@?$FLQuest?$FN?5Quest?5Accept?5?9?5MonsterKi@
CONST	SEGMENT
??_C@_0DM@DEIPHGLI@?$FLQuest?$FN?5Quest?5Accept?5?9?5MonsterKi@ DB '[Ques'
	DB	't] Quest Accept - MonsterKillCount Set (%s) : [%s][%s]', 00H ; `string'
CONST	ENDS
;	COMDAT ??_C@_0DL@ODHGIMOD@?$FLQuest?$FN?5Quest?5Item?5Drop?$CIParty?$CJ?5?$FL@
CONST	SEGMENT
??_C@_0DL@ODHGIMOD@?$FLQuest?$FN?5Quest?5Item?5Drop?$CIParty?$CJ?5?$FL@ DB '['
	DB	'Quest] Quest Item Drop(Party) [%s]: [%s][%s] (%s) (%d,%d)', 00H ; `string'
CONST	ENDS
;	COMDAT ??_C@_0DE@CLGCKBPA@?$FLQuest?$FN?5Quest?5Item?5Drop?5?$FL?$CFs?$FN?3?5?$FL?$CF@
CONST	SEGMENT
??_C@_0DE@CLGCKBPA@?$FLQuest?$FN?5Quest?5Item?5Drop?5?$FL?$CFs?$FN?3?5?$FL?$CF@ DB '['
	DB	'Quest] Quest Item Drop [%s]: [%s][%s] (%s) (%d,%d)', 00H ; `string'
CONST	ENDS
;	COMDAT ??_C@_0EM@GFMDAEDC@?$FLQuest?$FN?5Error?5?9?5Invalid?5MonsterK@
CONST	SEGMENT
??_C@_0EM@GFMDAEDC@?$FLQuest?$FN?5Error?5?9?5Invalid?5MonsterK@ DB '[Ques'
	DB	't] Error - Invalid MonsterKillInfo [%s][%s] (QuestIndex:%d/DB'
	DB	'Index:%d)', 00H				; `string'
CONST	ENDS
;	COMDAT ??_C@_0CB@KKBMLGHJ@?$FLQuest?$FN?5ClearQuest?5?$FL?$CFs?$FN?$FL?$CFs?$FN?5?$CI?$CFs?$CJ@
CONST	SEGMENT
??_C@_0CB@KKBMLGHJ@?$FLQuest?$FN?5ClearQuest?5?$FL?$CFs?$FN?$FL?$CFs?$FN?5?$CI?$CFs?$CJ@ DB '['
	DB	'Quest] ClearQuest [%s][%s] (%s)', 00H	; `string'
CONST	ENDS
;	COMDAT ??_C@_0CC@BPALCPGE@?$FLQuest?$FN?5AcceptQuest?5?$FL?$CFs?$FN?$FL?$CFs?$FN?5?$CI?$CFs@
CONST	SEGMENT
??_C@_0CC@BPALCPGE@?$FLQuest?$FN?5AcceptQuest?5?$FL?$CFs?$FN?$FL?$CFs?$FN?5?$CI?$CFs@ DB '['
	DB	'Quest] AcceptQuest [%s][%s] (%s)', 00H	; `string'
CONST	ENDS
;	COMDAT ??_C@_0BK@EGHNLLGE@?$FLQuest?$FN?5?$FLSetQuestItem?$FN?5?$CFs?$AA@
CONST	SEGMENT
??_C@_0BK@EGHNLLGE@?$FLQuest?$FN?5?$FLSetQuestItem?$FN?5?$CFs?$AA@ DB '[Q'
	DB	'uest] [SetQuestItem] %s', 00H		; `string'
CONST	ENDS
;	COMDAT ??_C@_0BF@JAOCNINL@Quest?5Info?5Read?5Fail?$AA@
CONST	SEGMENT
??_C@_0BF@JAOCNINL@Quest?5Info?5Read?5Fail?$AA@ DB 'Quest Info Read Fail', 00H ; `string'
CONST	ENDS
;	COMDAT ??_C@_0CO@IPPCPA@?$FLQuest?$FN?5?$CI?$CFs?$CJ?5Load?5?3?5Index?5?$CFd?0?5Su@
CONST	SEGMENT
??_C@_0CO@IPPCPA@?$FLQuest?$FN?5?$CI?$CFs?$CJ?5Load?5?3?5Index?5?$CFd?0?5Su@ DB '['
	DB	'Quest] (%s) Load : Index %d, SubInfoCount %d', 00H ; `string'
CONST	ENDS
;	COMDAT ??_C@_03JBJLGPFL@end?$AA@
CONST	SEGMENT
??_C@_03JBJLGPFL@end?$AA@ DB 'end', 00H			; `string'
CONST	ENDS
;	COMDAT ??_C@_0O@NOCIMNHO@load?5error?5?$CFs?$AA@
CONST	SEGMENT
??_C@_0O@NOCIMNHO@load?5error?5?$CFs?$AA@ DB 'load error %s', 00H ; `string'
CONST	ENDS
;	COMDAT ??_C@_01KDCPPGHE@r?$AA@
CONST	SEGMENT
??_C@_01KDCPPGHE@r?$AA@ DB 'r', 00H			; `string'
CONST	ENDS
;	COMDAT ??_7CQuestInfoEx@@6B@
CONST	SEGMENT
??_7CQuestInfoEx@@6B@ DD FLAT:??_R4CQuestInfoEx@@6B@	; CQuestInfoEx::`vftable'
	DD	FLAT:??_ECQuestInfoEx@@UAEPAXI@Z
CONST	ENDS
_DATA	SEGMENT
?g_MonsterKillInfo@@3VCQuestMonsterKillInfo@@A DD FLAT:??_7CQuestMonsterKillInfo@@6B@ ; g_MonsterKillInfo
_DATA	ENDS
;	COMDAT ??_7CQuestMonsterKillInfo@@6B@
CONST	SEGMENT
??_7CQuestMonsterKillInfo@@6B@ DD FLAT:??_R4CQuestMonsterKillInfo@@6B@ ; CQuestMonsterKillInfo::`vftable'
	DD	FLAT:??_ECQuestMonsterKillInfo@@UAEPAXI@Z
CONST	ENDS
;	COMDAT ??_7CQuestInfo@@6B@
CONST	SEGMENT
??_7CQuestInfo@@6B@ DD FLAT:??_R4CQuestInfo@@6B@	; CQuestInfo::`vftable'
	DD	FLAT:??_ECQuestInfo@@UAEPAXI@Z
CONST	ENDS
;	COMDAT xdata$x
xdata$x	SEGMENT
__catchsym$??$_Insert_nohint@AAU?$pair@$$CBEUQUESTEX_PROGRESS_GROUP@@@std@@PAU?$_Tree_node@U?$pair@$$CBEUQUESTEX_PROGRESS_GROUP@@@std@@PAX@2@@?$_Tree@V?$_Tmap_traits@EUQUESTEX_PROGRESS_GROUP@@U?$less@E@std@@V?$allocator@U?$pair@$$CBEUQUESTEX_PROGRESS_GROUP@@@std@@@3@$0A@@std@@@std@@IAE?AU?$pair@V?$_Tree_iterator@V?$_Tree_val@U?$_Tree_simple_types@U?$pair@$$CBEUQUESTEX_PROGRESS_GROUP@@@std@@@std@@@std@@@std@@_N@1@_NAAU?$pair@$$CBEUQUESTEX_PROGRESS_GROUP@@@1@PAU?$_Tree_node@U?$pair@$$CBEUQUESTEX_PROGRESS_GROUP@@@std@@PAX@1@@Z$58 DD 040H
	DD	00H
	DD	00H
	DD	FLAT:__catch$??$_Insert_nohint@AAU?$pair@$$CBEUQUESTEX_PROGRESS_GROUP@@@std@@PAU?$_Tree_node@U?$pair@$$CBEUQUESTEX_PROGRESS_GROUP@@@std@@PAX@2@@?$_Tree@V?$_Tmap_traits@EUQUESTEX_PROGRESS_GROUP@@U?$less@E@std@@V?$allocator@U?$pair@$$CBEUQUESTEX_PROGRESS_GROUP@@@std@@@3@$0A@@std@@@std@@IAE?AU?$pair@V?$_Tree_iterator@V?$_Tree_val@U?$_Tree_simple_types@U?$pair@$$CBEUQUESTEX_PROGRESS_GROUP@@@std@@@std@@@std@@@std@@_N@1@_NAAU?$pair@$$CBEUQUESTEX_PROGRESS_GROUP@@@1@PAU?$_Tree_node@U?$pair@$$CBEUQUESTEX_PROGRESS_GROUP@@@std@@PAX@1@@Z$0
__unwindtable$??$_Insert_nohint@AAU?$pair@$$CBEUQUESTEX_PROGRESS_GROUP@@@std@@PAU?$_Tree_node@U?$pair@$$CBEUQUESTEX_PROGRESS_GROUP@@@std@@PAX@2@@?$_Tree@V?$_Tmap_traits@EUQUESTEX_PROGRESS_GROUP@@U?$less@E@std@@V?$allocator@U?$pair@$$CBEUQUESTEX_PROGRESS_GROUP@@@std@@@3@$0A@@std@@@std@@IAE?AU?$pair@V?$_Tree_iterator@V?$_Tree_val@U?$_Tree_simple_types@U?$pair@$$CBEUQUESTEX_PROGRESS_GROUP@@@std@@@std@@@std@@@std@@_N@1@_NAAU?$pair@$$CBEUQUESTEX_PROGRESS_GROUP@@@1@PAU?$_Tree_node@U?$pair@$$CBEUQUESTEX_PROGRESS_GROUP@@@std@@PAX@1@@Z DD 0ffffffffH
	DD	00H
	DD	0ffffffffH
	DD	00H
__tryblocktable$??$_Insert_nohint@AAU?$pair@$$CBEUQUESTEX_PROGRESS_GROUP@@@std@@PAU?$_Tree_node@U?$pair@$$CBEUQUESTEX_PROGRESS_GROUP@@@std@@PAX@2@@?$_Tree@V?$_Tmap_traits@EUQUESTEX_PROGRESS_GROUP@@U?$less@E@std@@V?$allocator@U?$pair@$$CBEUQUESTEX_PROGRESS_GROUP@@@std@@@3@$0A@@std@@@std@@IAE?AU?$pair@V?$_Tree_iterator@V?$_Tree_val@U?$_Tree_simple_types@U?$pair@$$CBEUQUESTEX_PROGRESS_GROUP@@@std@@@std@@@std@@@std@@_N@1@_NAAU?$pair@$$CBEUQUESTEX_PROGRESS_GROUP@@@1@PAU?$_Tree_node@U?$pair@$$CBEUQUESTEX_PROGRESS_GROUP@@@std@@PAX@1@@Z DD 00H
	DD	00H
	DD	01H
	DD	01H
	DD	FLAT:__catchsym$??$_Insert_nohint@AAU?$pair@$$CBEUQUESTEX_PROGRESS_GROUP@@@std@@PAU?$_Tree_node@U?$pair@$$CBEUQUESTEX_PROGRESS_GROUP@@@std@@PAX@2@@?$_Tree@V?$_Tmap_traits@EUQUESTEX_PROGRESS_GROUP@@U?$less@E@std@@V?$allocator@U?$pair@$$CBEUQUESTEX_PROGRESS_GROUP@@@std@@@3@$0A@@std@@@std@@IAE?AU?$pair@V?$_Tree_iterator@V?$_Tree_val@U?$_Tree_simple_types@U?$pair@$$CBEUQUESTEX_PROGRESS_GROUP@@@std@@@std@@@std@@@std@@_N@1@_NAAU?$pair@$$CBEUQUESTEX_PROGRESS_GROUP@@@1@PAU?$_Tree_node@U?$pair@$$CBEUQUESTEX_PROGRESS_GROUP@@@std@@PAX@1@@Z$58
__ehfuncinfo$??$_Insert_nohint@AAU?$pair@$$CBEUQUESTEX_PROGRESS_GROUP@@@std@@PAU?$_Tree_node@U?$pair@$$CBEUQUESTEX_PROGRESS_GROUP@@@std@@PAX@2@@?$_Tree@V?$_Tmap_traits@EUQUESTEX_PROGRESS_GROUP@@U?$less@E@std@@V?$allocator@U?$pair@$$CBEUQUESTEX_PROGRESS_GROUP@@@std@@@3@$0A@@std@@@std@@IAE?AU?$pair@V?$_Tree_iterator@V?$_Tree_val@U?$_Tree_simple_types@U?$pair@$$CBEUQUESTEX_PROGRESS_GROUP@@@std@@@std@@@std@@@std@@_N@1@_NAAU?$pair@$$CBEUQUESTEX_PROGRESS_GROUP@@@1@PAU?$_Tree_node@U?$pair@$$CBEUQUESTEX_PROGRESS_GROUP@@@std@@PAX@1@@Z DD 019930522H
	DD	02H
	DD	FLAT:__unwindtable$??$_Insert_nohint@AAU?$pair@$$CBEUQUESTEX_PROGRESS_GROUP@@@std@@PAU?$_Tree_node@U?$pair@$$CBEUQUESTEX_PROGRESS_GROUP@@@std@@PAX@2@@?$_Tree@V?$_Tmap_traits@EUQUESTEX_PROGRESS_GROUP@@U?$less@E@std@@V?$allocator@U?$pair@$$CBEUQUESTEX_PROGRESS_GROUP@@@std@@@3@$0A@@std@@@std@@IAE?AU?$pair@V?$_Tree_iterator@V?$_Tree_val@U?$_Tree_simple_types@U?$pair@$$CBEUQUESTEX_PROGRESS_GROUP@@@std@@@std@@@std@@@std@@_N@1@_NAAU?$pair@$$CBEUQUESTEX_PROGRESS_GROUP@@@1@PAU?$_Tree_node@U?$pair@$$CBEUQUESTEX_PROGRESS_GROUP@@@std@@PAX@1@@Z
	DD	01H
	DD	FLAT:__tryblocktable$??$_Insert_nohint@AAU?$pair@$$CBEUQUESTEX_PROGRESS_GROUP@@@std@@PAU?$_Tree_node@U?$pair@$$CBEUQUESTEX_PROGRESS_GROUP@@@std@@PAX@2@@?$_Tree@V?$_Tmap_traits@EUQUESTEX_PROGRESS_GROUP@@U?$less@E@std@@V?$allocator@U?$pair@$$CBEUQUESTEX_PROGRESS_GROUP@@@std@@@3@$0A@@std@@@std@@IAE?AU?$pair@V?$_Tree_iterator@V?$_Tree_val@U?$_Tree_simple_types@U?$pair@$$CBEUQUESTEX_PROGRESS_GROUP@@@std@@@std@@@std@@@std@@_N@1@_NAAU?$pair@$$CBEUQUESTEX_PROGRESS_GROUP@@@1@PAU?$_Tree_node@U?$pair@$$CBEUQUESTEX_PROGRESS_GROUP@@@std@@PAX@1@@Z
	DD	2 DUP(00H)
	DD	00H
	DD	01H
xdata$x	ENDS
;	COMDAT xdata$x
xdata$x	SEGMENT
__catchsym$??$_Insert_nohint@AAU?$pair@$$CBEUQUESTEX_GROUP_INFO@@@std@@PAU?$_Tree_node@U?$pair@$$CBEUQUESTEX_GROUP_INFO@@@std@@PAX@2@@?$_Tree@V?$_Tmap_traits@EUQUESTEX_GROUP_INFO@@U?$less@E@std@@V?$allocator@U?$pair@$$CBEUQUESTEX_GROUP_INFO@@@std@@@3@$0A@@std@@@std@@IAE?AU?$pair@V?$_Tree_iterator@V?$_Tree_val@U?$_Tree_simple_types@U?$pair@$$CBEUQUESTEX_GROUP_INFO@@@std@@@std@@@std@@@std@@_N@1@_NAAU?$pair@$$CBEUQUESTEX_GROUP_INFO@@@1@PAU?$_Tree_node@U?$pair@$$CBEUQUESTEX_GROUP_INFO@@@std@@PAX@1@@Z$42 DD 040H
	DD	00H
	DD	00H
	DD	FLAT:__catch$??$_Insert_nohint@AAU?$pair@$$CBEUQUESTEX_GROUP_INFO@@@std@@PAU?$_Tree_node@U?$pair@$$CBEUQUESTEX_GROUP_INFO@@@std@@PAX@2@@?$_Tree@V?$_Tmap_traits@EUQUESTEX_GROUP_INFO@@U?$less@E@std@@V?$allocator@U?$pair@$$CBEUQUESTEX_GROUP_INFO@@@std@@@3@$0A@@std@@@std@@IAE?AU?$pair@V?$_Tree_iterator@V?$_Tree_val@U?$_Tree_simple_types@U?$pair@$$CBEUQUESTEX_GROUP_INFO@@@std@@@std@@@std@@@std@@_N@1@_NAAU?$pair@$$CBEUQUESTEX_GROUP_INFO@@@1@PAU?$_Tree_node@U?$pair@$$CBEUQUESTEX_GROUP_INFO@@@std@@PAX@1@@Z$0
__unwindtable$??$_Insert_nohint@AAU?$pair@$$CBEUQUESTEX_GROUP_INFO@@@std@@PAU?$_Tree_node@U?$pair@$$CBEUQUESTEX_GROUP_INFO@@@std@@PAX@2@@?$_Tree@V?$_Tmap_traits@EUQUESTEX_GROUP_INFO@@U?$less@E@std@@V?$allocator@U?$pair@$$CBEUQUESTEX_GROUP_INFO@@@std@@@3@$0A@@std@@@std@@IAE?AU?$pair@V?$_Tree_iterator@V?$_Tree_val@U?$_Tree_simple_types@U?$pair@$$CBEUQUESTEX_GROUP_INFO@@@std@@@std@@@std@@@std@@_N@1@_NAAU?$pair@$$CBEUQUESTEX_GROUP_INFO@@@1@PAU?$_Tree_node@U?$pair@$$CBEUQUESTEX_GROUP_INFO@@@std@@PAX@1@@Z DD 0ffffffffH
	DD	00H
	DD	0ffffffffH
	DD	00H
__tryblocktable$??$_Insert_nohint@AAU?$pair@$$CBEUQUESTEX_GROUP_INFO@@@std@@PAU?$_Tree_node@U?$pair@$$CBEUQUESTEX_GROUP_INFO@@@std@@PAX@2@@?$_Tree@V?$_Tmap_traits@EUQUESTEX_GROUP_INFO@@U?$less@E@std@@V?$allocator@U?$pair@$$CBEUQUESTEX_GROUP_INFO@@@std@@@3@$0A@@std@@@std@@IAE?AU?$pair@V?$_Tree_iterator@V?$_Tree_val@U?$_Tree_simple_types@U?$pair@$$CBEUQUESTEX_GROUP_INFO@@@std@@@std@@@std@@@std@@_N@1@_NAAU?$pair@$$CBEUQUESTEX_GROUP_INFO@@@1@PAU?$_Tree_node@U?$pair@$$CBEUQUESTEX_GROUP_INFO@@@std@@PAX@1@@Z DD 00H
	DD	00H
	DD	01H
	DD	01H
	DD	FLAT:__catchsym$??$_Insert_nohint@AAU?$pair@$$CBEUQUESTEX_GROUP_INFO@@@std@@PAU?$_Tree_node@U?$pair@$$CBEUQUESTEX_GROUP_INFO@@@std@@PAX@2@@?$_Tree@V?$_Tmap_traits@EUQUESTEX_GROUP_INFO@@U?$less@E@std@@V?$allocator@U?$pair@$$CBEUQUESTEX_GROUP_INFO@@@std@@@3@$0A@@std@@@std@@IAE?AU?$pair@V?$_Tree_iterator@V?$_Tree_val@U?$_Tree_simple_types@U?$pair@$$CBEUQUESTEX_GROUP_INFO@@@std@@@std@@@std@@@std@@_N@1@_NAAU?$pair@$$CBEUQUESTEX_GROUP_INFO@@@1@PAU?$_Tree_node@U?$pair@$$CBEUQUESTEX_GROUP_INFO@@@std@@PAX@1@@Z$42
__ehfuncinfo$??$_Insert_nohint@AAU?$pair@$$CBEUQUESTEX_GROUP_INFO@@@std@@PAU?$_Tree_node@U?$pair@$$CBEUQUESTEX_GROUP_INFO@@@std@@PAX@2@@?$_Tree@V?$_Tmap_traits@EUQUESTEX_GROUP_INFO@@U?$less@E@std@@V?$allocator@U?$pair@$$CBEUQUESTEX_GROUP_INFO@@@std@@@3@$0A@@std@@@std@@IAE?AU?$pair@V?$_Tree_iterator@V?$_Tree_val@U?$_Tree_simple_types@U?$pair@$$CBEUQUESTEX_GROUP_INFO@@@std@@@std@@@std@@@std@@_N@1@_NAAU?$pair@$$CBEUQUESTEX_GROUP_INFO@@@1@PAU?$_Tree_node@U?$pair@$$CBEUQUESTEX_GROUP_INFO@@@std@@PAX@1@@Z DD 019930522H
	DD	02H
	DD	FLAT:__unwindtable$??$_Insert_nohint@AAU?$pair@$$CBEUQUESTEX_GROUP_INFO@@@std@@PAU?$_Tree_node@U?$pair@$$CBEUQUESTEX_GROUP_INFO@@@std@@PAX@2@@?$_Tree@V?$_Tmap_traits@EUQUESTEX_GROUP_INFO@@U?$less@E@std@@V?$allocator@U?$pair@$$CBEUQUESTEX_GROUP_INFO@@@std@@@3@$0A@@std@@@std@@IAE?AU?$pair@V?$_Tree_iterator@V?$_Tree_val@U?$_Tree_simple_types@U?$pair@$$CBEUQUESTEX_GROUP_INFO@@@std@@@std@@@std@@@std@@_N@1@_NAAU?$pair@$$CBEUQUESTEX_GROUP_INFO@@@1@PAU?$_Tree_node@U?$pair@$$CBEUQUESTEX_GROUP_INFO@@@std@@PAX@1@@Z
	DD	01H
	DD	FLAT:__tryblocktable$??$_Insert_nohint@AAU?$pair@$$CBEUQUESTEX_GROUP_INFO@@@std@@PAU?$_Tree_node@U?$pair@$$CBEUQUESTEX_GROUP_INFO@@@std@@PAX@2@@?$_Tree@V?$_Tmap_traits@EUQUESTEX_GROUP_INFO@@U?$less@E@std@@V?$allocator@U?$pair@$$CBEUQUESTEX_GROUP_INFO@@@std@@@3@$0A@@std@@@std@@IAE?AU?$pair@V?$_Tree_iterator@V?$_Tree_val@U?$_Tree_simple_types@U?$pair@$$CBEUQUESTEX_GROUP_INFO@@@std@@@std@@@std@@@std@@_N@1@_NAAU?$pair@$$CBEUQUESTEX_GROUP_INFO@@@1@PAU?$_Tree_node@U?$pair@$$CBEUQUESTEX_GROUP_INFO@@@std@@PAX@1@@Z
	DD	2 DUP(00H)
	DD	00H
	DD	01H
xdata$x	ENDS
;	COMDAT xdata$x
xdata$x	SEGMENT
__catchsym$??$_Insert_hint@AAU?$pair@$$CBEUQUESTEX_PROGRESS_GROUP@@@std@@PAU?$_Tree_node@U?$pair@$$CBEUQUESTEX_PROGRESS_GROUP@@@std@@PAX@2@@?$_Tree@V?$_Tmap_traits@EUQUESTEX_PROGRESS_GROUP@@U?$less@E@std@@V?$allocator@U?$pair@$$CBEUQUESTEX_PROGRESS_GROUP@@@std@@@3@$0A@@std@@@std@@IAE?AV?$_Tree_iterator@V?$_Tree_val@U?$_Tree_simple_types@U?$pair@$$CBEUQUESTEX_PROGRESS_GROUP@@@std@@@std@@@std@@@1@V?$_Tree_const_iterator@V?$_Tree_val@U?$_Tree_simple_types@U?$pair@$$CBEUQUESTEX_PROGRESS_GROUP@@@std@@@std@@@std@@@1@AAU?$pair@$$CBEUQUESTEX_PROGRESS_GROUP@@@1@PAU?$_Tree_node@U?$pair@$$CBEUQUESTEX_PROGRESS_GROUP@@@std@@PAX@1@@Z$121 DD 040H
	DD	00H
	DD	00H
	DD	FLAT:__catch$??$_Insert_hint@AAU?$pair@$$CBEUQUESTEX_PROGRESS_GROUP@@@std@@PAU?$_Tree_node@U?$pair@$$CBEUQUESTEX_PROGRESS_GROUP@@@std@@PAX@2@@?$_Tree@V?$_Tmap_traits@EUQUESTEX_PROGRESS_GROUP@@U?$less@E@std@@V?$allocator@U?$pair@$$CBEUQUESTEX_PROGRESS_GROUP@@@std@@@3@$0A@@std@@@std@@IAE?AV?$_Tree_iterator@V?$_Tree_val@U?$_Tree_simple_types@U?$pair@$$CBEUQUESTEX_PROGRESS_GROUP@@@std@@@std@@@std@@@1@V?$_Tree_const_iterator@V?$_Tree_val@U?$_Tree_simple_types@U?$pair@$$CBEUQUESTEX_PROGRESS_GROUP@@@std@@@std@@@std@@@1@AAU?$pair@$$CBEUQUESTEX_PROGRESS_GROUP@@@1@PAU?$_Tree_node@U?$pair@$$CBEUQUESTEX_PROGRESS_GROUP@@@std@@PAX@1@@Z$0
__unwindtable$??$_Insert_hint@AAU?$pair@$$CBEUQUESTEX_PROGRESS_GROUP@@@std@@PAU?$_Tree_node@U?$pair@$$CBEUQUESTEX_PROGRESS_GROUP@@@std@@PAX@2@@?$_Tree@V?$_Tmap_traits@EUQUESTEX_PROGRESS_GROUP@@U?$less@E@std@@V?$allocator@U?$pair@$$CBEUQUESTEX_PROGRESS_GROUP@@@std@@@3@$0A@@std@@@std@@IAE?AV?$_Tree_iterator@V?$_Tree_val@U?$_Tree_simple_types@U?$pair@$$CBEUQUESTEX_PROGRESS_GROUP@@@std@@@std@@@std@@@1@V?$_Tree_const_iterator@V?$_Tree_val@U?$_Tree_simple_types@U?$pair@$$CBEUQUESTEX_PROGRESS_GROUP@@@std@@@std@@@std@@@1@AAU?$pair@$$CBEUQUESTEX_PROGRESS_GROUP@@@1@PAU?$_Tree_node@U?$pair@$$CBEUQUESTEX_PROGRESS_GROUP@@@std@@PAX@1@@Z DD 0ffffffffH
	DD	00H
	DD	0ffffffffH
	DD	00H
__tryblocktable$??$_Insert_hint@AAU?$pair@$$CBEUQUESTEX_PROGRESS_GROUP@@@std@@PAU?$_Tree_node@U?$pair@$$CBEUQUESTEX_PROGRESS_GROUP@@@std@@PAX@2@@?$_Tree@V?$_Tmap_traits@EUQUESTEX_PROGRESS_GROUP@@U?$less@E@std@@V?$allocator@U?$pair@$$CBEUQUESTEX_PROGRESS_GROUP@@@std@@@3@$0A@@std@@@std@@IAE?AV?$_Tree_iterator@V?$_Tree_val@U?$_Tree_simple_types@U?$pair@$$CBEUQUESTEX_PROGRESS_GROUP@@@std@@@std@@@std@@@1@V?$_Tree_const_iterator@V?$_Tree_val@U?$_Tree_simple_types@U?$pair@$$CBEUQUESTEX_PROGRESS_GROUP@@@std@@@std@@@std@@@1@AAU?$pair@$$CBEUQUESTEX_PROGRESS_GROUP@@@1@PAU?$_Tree_node@U?$pair@$$CBEUQUESTEX_PROGRESS_GROUP@@@std@@PAX@1@@Z DD 00H
	DD	00H
	DD	01H
	DD	01H
	DD	FLAT:__catchsym$??$_Insert_hint@AAU?$pair@$$CBEUQUESTEX_PROGRESS_GROUP@@@std@@PAU?$_Tree_node@U?$pair@$$CBEUQUESTEX_PROGRESS_GROUP@@@std@@PAX@2@@?$_Tree@V?$_Tmap_traits@EUQUESTEX_PROGRESS_GROUP@@U?$less@E@std@@V?$allocator@U?$pair@$$CBEUQUESTEX_PROGRESS_GROUP@@@std@@@3@$0A@@std@@@std@@IAE?AV?$_Tree_iterator@V?$_Tree_val@U?$_Tree_simple_types@U?$pair@$$CBEUQUESTEX_PROGRESS_GROUP@@@std@@@std@@@std@@@1@V?$_Tree_const_iterator@V?$_Tree_val@U?$_Tree_simple_types@U?$pair@$$CBEUQUESTEX_PROGRESS_GROUP@@@std@@@std@@@std@@@1@AAU?$pair@$$CBEUQUESTEX_PROGRESS_GROUP@@@1@PAU?$_Tree_node@U?$pair@$$CBEUQUESTEX_PROGRESS_GROUP@@@std@@PAX@1@@Z$121
__ehfuncinfo$??$_Insert_hint@AAU?$pair@$$CBEUQUESTEX_PROGRESS_GROUP@@@std@@PAU?$_Tree_node@U?$pair@$$CBEUQUESTEX_PROGRESS_GROUP@@@std@@PAX@2@@?$_Tree@V?$_Tmap_traits@EUQUESTEX_PROGRESS_GROUP@@U?$less@E@std@@V?$allocator@U?$pair@$$CBEUQUESTEX_PROGRESS_GROUP@@@std@@@3@$0A@@std@@@std@@IAE?AV?$_Tree_iterator@V?$_Tree_val@U?$_Tree_simple_types@U?$pair@$$CBEUQUESTEX_PROGRESS_GROUP@@@std@@@std@@@std@@@1@V?$_Tree_const_iterator@V?$_Tree_val@U?$_Tree_simple_types@U?$pair@$$CBEUQUESTEX_PROGRESS_GROUP@@@std@@@std@@@std@@@1@AAU?$pair@$$CBEUQUESTEX_PROGRESS_GROUP@@@1@PAU?$_Tree_node@U?$pair@$$CBEUQUESTEX_PROGRESS_GROUP@@@std@@PAX@1@@Z DD 019930522H
	DD	02H
	DD	FLAT:__unwindtable$??$_Insert_hint@AAU?$pair@$$CBEUQUESTEX_PROGRESS_GROUP@@@std@@PAU?$_Tree_node@U?$pair@$$CBEUQUESTEX_PROGRESS_GROUP@@@std@@PAX@2@@?$_Tree@V?$_Tmap_traits@EUQUESTEX_PROGRESS_GROUP@@U?$less@E@std@@V?$allocator@U?$pair@$$CBEUQUESTEX_PROGRESS_GROUP@@@std@@@3@$0A@@std@@@std@@IAE?AV?$_Tree_iterator@V?$_Tree_val@U?$_Tree_simple_types@U?$pair@$$CBEUQUESTEX_PROGRESS_GROUP@@@std@@@std@@@std@@@1@V?$_Tree_const_iterator@V?$_Tree_val@U?$_Tree_simple_types@U?$pair@$$CBEUQUESTEX_PROGRESS_GROUP@@@std@@@std@@@std@@@1@AAU?$pair@$$CBEUQUESTEX_PROGRESS_GROUP@@@1@PAU?$_Tree_node@U?$pair@$$CBEUQUESTEX_PROGRESS_GROUP@@@std@@PAX@1@@Z
	DD	01H
	DD	FLAT:__tryblocktable$??$_Insert_hint@AAU?$pair@$$CBEUQUESTEX_PROGRESS_GROUP@@@std@@PAU?$_Tree_node@U?$pair@$$CBEUQUESTEX_PROGRESS_GROUP@@@std@@PAX@2@@?$_Tree@V?$_Tmap_traits@EUQUESTEX_PROGRESS_GROUP@@U?$less@E@std@@V?$allocator@U?$pair@$$CBEUQUESTEX_PROGRESS_GROUP@@@std@@@3@$0A@@std@@@std@@IAE?AV?$_Tree_iterator@V?$_Tree_val@U?$_Tree_simple_types@U?$pair@$$CBEUQUESTEX_PROGRESS_GROUP@@@std@@@std@@@std@@@1@V?$_Tree_const_iterator@V?$_Tree_val@U?$_Tree_simple_types@U?$pair@$$CBEUQUESTEX_PROGRESS_GROUP@@@std@@@std@@@std@@@1@AAU?$pair@$$CBEUQUESTEX_PROGRESS_GROUP@@@1@PAU?$_Tree_node@U?$pair@$$CBEUQUESTEX_PROGRESS_GROUP@@@std@@PAX@1@@Z
	DD	2 DUP(00H)
	DD	00H
	DD	01H
xdata$x	ENDS
;	COMDAT xdata$x
xdata$x	SEGMENT
__catchsym$??$_Insert_hint@AAU?$pair@$$CBEUQUESTEX_GROUP_INFO@@@std@@PAU?$_Tree_node@U?$pair@$$CBEUQUESTEX_GROUP_INFO@@@std@@PAX@2@@?$_Tree@V?$_Tmap_traits@EUQUESTEX_GROUP_INFO@@U?$less@E@std@@V?$allocator@U?$pair@$$CBEUQUESTEX_GROUP_INFO@@@std@@@3@$0A@@std@@@std@@IAE?AV?$_Tree_iterator@V?$_Tree_val@U?$_Tree_simple_types@U?$pair@$$CBEUQUESTEX_GROUP_INFO@@@std@@@std@@@std@@@1@V?$_Tree_const_iterator@V?$_Tree_val@U?$_Tree_simple_types@U?$pair@$$CBEUQUESTEX_GROUP_INFO@@@std@@@std@@@std@@@1@AAU?$pair@$$CBEUQUESTEX_GROUP_INFO@@@1@PAU?$_Tree_node@U?$pair@$$CBEUQUESTEX_GROUP_INFO@@@std@@PAX@1@@Z$113 DD 040H
	DD	00H
	DD	00H
	DD	FLAT:__catch$??$_Insert_hint@AAU?$pair@$$CBEUQUESTEX_GROUP_INFO@@@std@@PAU?$_Tree_node@U?$pair@$$CBEUQUESTEX_GROUP_INFO@@@std@@PAX@2@@?$_Tree@V?$_Tmap_traits@EUQUESTEX_GROUP_INFO@@U?$less@E@std@@V?$allocator@U?$pair@$$CBEUQUESTEX_GROUP_INFO@@@std@@@3@$0A@@std@@@std@@IAE?AV?$_Tree_iterator@V?$_Tree_val@U?$_Tree_simple_types@U?$pair@$$CBEUQUESTEX_GROUP_INFO@@@std@@@std@@@std@@@1@V?$_Tree_const_iterator@V?$_Tree_val@U?$_Tree_simple_types@U?$pair@$$CBEUQUESTEX_GROUP_INFO@@@std@@@std@@@std@@@1@AAU?$pair@$$CBEUQUESTEX_GROUP_INFO@@@1@PAU?$_Tree_node@U?$pair@$$CBEUQUESTEX_GROUP_INFO@@@std@@PAX@1@@Z$0
__unwindtable$??$_Insert_hint@AAU?$pair@$$CBEUQUESTEX_GROUP_INFO@@@std@@PAU?$_Tree_node@U?$pair@$$CBEUQUESTEX_GROUP_INFO@@@std@@PAX@2@@?$_Tree@V?$_Tmap_traits@EUQUESTEX_GROUP_INFO@@U?$less@E@std@@V?$allocator@U?$pair@$$CBEUQUESTEX_GROUP_INFO@@@std@@@3@$0A@@std@@@std@@IAE?AV?$_Tree_iterator@V?$_Tree_val@U?$_Tree_simple_types@U?$pair@$$CBEUQUESTEX_GROUP_INFO@@@std@@@std@@@std@@@1@V?$_Tree_const_iterator@V?$_Tree_val@U?$_Tree_simple_types@U?$pair@$$CBEUQUESTEX_GROUP_INFO@@@std@@@std@@@std@@@1@AAU?$pair@$$CBEUQUESTEX_GROUP_INFO@@@1@PAU?$_Tree_node@U?$pair@$$CBEUQUESTEX_GROUP_INFO@@@std@@PAX@1@@Z DD 0ffffffffH
	DD	00H
	DD	0ffffffffH
	DD	00H
__tryblocktable$??$_Insert_hint@AAU?$pair@$$CBEUQUESTEX_GROUP_INFO@@@std@@PAU?$_Tree_node@U?$pair@$$CBEUQUESTEX_GROUP_INFO@@@std@@PAX@2@@?$_Tree@V?$_Tmap_traits@EUQUESTEX_GROUP_INFO@@U?$less@E@std@@V?$allocator@U?$pair@$$CBEUQUESTEX_GROUP_INFO@@@std@@@3@$0A@@std@@@std@@IAE?AV?$_Tree_iterator@V?$_Tree_val@U?$_Tree_simple_types@U?$pair@$$CBEUQUESTEX_GROUP_INFO@@@std@@@std@@@std@@@1@V?$_Tree_const_iterator@V?$_Tree_val@U?$_Tree_simple_types@U?$pair@$$CBEUQUESTEX_GROUP_INFO@@@std@@@std@@@std@@@1@AAU?$pair@$$CBEUQUESTEX_GROUP_INFO@@@1@PAU?$_Tree_node@U?$pair@$$CBEUQUESTEX_GROUP_INFO@@@std@@PAX@1@@Z DD 00H
	DD	00H
	DD	01H
	DD	01H
	DD	FLAT:__catchsym$??$_Insert_hint@AAU?$pair@$$CBEUQUESTEX_GROUP_INFO@@@std@@PAU?$_Tree_node@U?$pair@$$CBEUQUESTEX_GROUP_INFO@@@std@@PAX@2@@?$_Tree@V?$_Tmap_traits@EUQUESTEX_GROUP_INFO@@U?$less@E@std@@V?$allocator@U?$pair@$$CBEUQUESTEX_GROUP_INFO@@@std@@@3@$0A@@std@@@std@@IAE?AV?$_Tree_iterator@V?$_Tree_val@U?$_Tree_simple_types@U?$pair@$$CBEUQUESTEX_GROUP_INFO@@@std@@@std@@@std@@@1@V?$_Tree_const_iterator@V?$_Tree_val@U?$_Tree_simple_types@U?$pair@$$CBEUQUESTEX_GROUP_INFO@@@std@@@std@@@std@@@1@AAU?$pair@$$CBEUQUESTEX_GROUP_INFO@@@1@PAU?$_Tree_node@U?$pair@$$CBEUQUESTEX_GROUP_INFO@@@std@@PAX@1@@Z$113
__ehfuncinfo$??$_Insert_hint@AAU?$pair@$$CBEUQUESTEX_GROUP_INFO@@@std@@PAU?$_Tree_node@U?$pair@$$CBEUQUESTEX_GROUP_INFO@@@std@@PAX@2@@?$_Tree@V?$_Tmap_traits@EUQUESTEX_GROUP_INFO@@U?$less@E@std@@V?$allocator@U?$pair@$$CBEUQUESTEX_GROUP_INFO@@@std@@@3@$0A@@std@@@std@@IAE?AV?$_Tree_iterator@V?$_Tree_val@U?$_Tree_simple_types@U?$pair@$$CBEUQUESTEX_GROUP_INFO@@@std@@@std@@@std@@@1@V?$_Tree_const_iterator@V?$_Tree_val@U?$_Tree_simple_types@U?$pair@$$CBEUQUESTEX_GROUP_INFO@@@std@@@std@@@std@@@1@AAU?$pair@$$CBEUQUESTEX_GROUP_INFO@@@1@PAU?$_Tree_node@U?$pair@$$CBEUQUESTEX_GROUP_INFO@@@std@@PAX@1@@Z DD 019930522H
	DD	02H
	DD	FLAT:__unwindtable$??$_Insert_hint@AAU?$pair@$$CBEUQUESTEX_GROUP_INFO@@@std@@PAU?$_Tree_node@U?$pair@$$CBEUQUESTEX_GROUP_INFO@@@std@@PAX@2@@?$_Tree@V?$_Tmap_traits@EUQUESTEX_GROUP_INFO@@U?$less@E@std@@V?$allocator@U?$pair@$$CBEUQUESTEX_GROUP_INFO@@@std@@@3@$0A@@std@@@std@@IAE?AV?$_Tree_iterator@V?$_Tree_val@U?$_Tree_simple_types@U?$pair@$$CBEUQUESTEX_GROUP_INFO@@@std@@@std@@@std@@@1@V?$_Tree_const_iterator@V?$_Tree_val@U?$_Tree_simple_types@U?$pair@$$CBEUQUESTEX_GROUP_INFO@@@std@@@std@@@std@@@1@AAU?$pair@$$CBEUQUESTEX_GROUP_INFO@@@1@PAU?$_Tree_node@U?$pair@$$CBEUQUESTEX_GROUP_INFO@@@std@@PAX@1@@Z
	DD	01H
	DD	FLAT:__tryblocktable$??$_Insert_hint@AAU?$pair@$$CBEUQUESTEX_GROUP_INFO@@@std@@PAU?$_Tree_node@U?$pair@$$CBEUQUESTEX_GROUP_INFO@@@std@@PAX@2@@?$_Tree@V?$_Tmap_traits@EUQUESTEX_GROUP_INFO@@U?$less@E@std@@V?$allocator@U?$pair@$$CBEUQUESTEX_GROUP_INFO@@@std@@@3@$0A@@std@@@std@@IAE?AV?$_Tree_iterator@V?$_Tree_val@U?$_Tree_simple_types@U?$pair@$$CBEUQUESTEX_GROUP_INFO@@@std@@@std@@@std@@@1@V?$_Tree_const_iterator@V?$_Tree_val@U?$_Tree_simple_types@U?$pair@$$CBEUQUESTEX_GROUP_INFO@@@std@@@std@@@std@@@1@AAU?$pair@$$CBEUQUESTEX_GROUP_INFO@@@1@PAU?$_Tree_node@U?$pair@$$CBEUQUESTEX_GROUP_INFO@@@std@@PAX@1@@Z
	DD	2 DUP(00H)
	DD	00H
	DD	01H
xdata$x	ENDS
;	COMDAT xdata$x
xdata$x	SEGMENT
__unwindtable$??1?$map@EUQUESTEX_GROUP_INFO@@U?$less@E@std@@V?$allocator@U?$pair@$$CBEUQUESTEX_GROUP_INFO@@@std@@@3@@std@@QAE@XZ DD 0ffffffffH
	DD	FLAT:__unwindfunclet$??1?$map@EUQUESTEX_GROUP_INFO@@U?$less@E@std@@V?$allocator@U?$pair@$$CBEUQUESTEX_GROUP_INFO@@@std@@@3@@std@@QAE@XZ$0
__ehfuncinfo$??1?$map@EUQUESTEX_GROUP_INFO@@U?$less@E@std@@V?$allocator@U?$pair@$$CBEUQUESTEX_GROUP_INFO@@@std@@@3@@std@@QAE@XZ DD 019930522H
	DD	01H
	DD	FLAT:__unwindtable$??1?$map@EUQUESTEX_GROUP_INFO@@U?$less@E@std@@V?$allocator@U?$pair@$$CBEUQUESTEX_GROUP_INFO@@@std@@@3@@std@@QAE@XZ
	DD	2 DUP(00H)
	DD	2 DUP(00H)
	DD	00H
	DD	05H
xdata$x	ENDS
;	COMDAT xdata$x
xdata$x	SEGMENT
__ehfuncinfo$?clear@?$_Tree@V?$_Tmap_traits@EUQUESTEX_GROUP_INFO@@U?$less@E@std@@V?$allocator@U?$pair@$$CBEUQUESTEX_GROUP_INFO@@@std@@@3@$0A@@std@@@std@@QAEXXZ DD 019930522H
	DD	00H
	DD	00H
	DD	2 DUP(00H)
	DD	2 DUP(00H)
	DD	00H
	DD	05H
xdata$x	ENDS
;	COMDAT xdata$x
xdata$x	SEGMENT
__unwindtable$?erase@?$_Tree@V?$_Tmap_traits@EUQUESTEX_GROUP_INFO@@U?$less@E@std@@V?$allocator@U?$pair@$$CBEUQUESTEX_GROUP_INFO@@@std@@@3@$0A@@std@@@std@@QAE?AV?$_Tree_iterator@V?$_Tree_val@U?$_Tree_simple_types@U?$pair@$$CBEUQUESTEX_GROUP_INFO@@@std@@@std@@@std@@@2@V?$_Tree_const_iterator@V?$_Tree_val@U?$_Tree_simple_types@U?$pair@$$CBEUQUESTEX_GROUP_INFO@@@std@@@std@@@std@@@2@0@Z DD 0ffffffffH
	DD	FLAT:__unwindfunclet$?erase@?$_Tree@V?$_Tmap_traits@EUQUESTEX_GROUP_INFO@@U?$less@E@std@@V?$allocator@U?$pair@$$CBEUQUESTEX_GROUP_INFO@@@std@@@3@$0A@@std@@@std@@QAE?AV?$_Tree_iterator@V?$_Tree_val@U?$_Tree_simple_types@U?$pair@$$CBEUQUESTEX_GROUP_INFO@@@std@@@std@@@std@@@2@V?$_Tree_const_iterator@V?$_Tree_val@U?$_Tree_simple_types@U?$pair@$$CBEUQUESTEX_GROUP_INFO@@@std@@@std@@@std@@@2@0@Z$16
__ehfuncinfo$?erase@?$_Tree@V?$_Tmap_traits@EUQUESTEX_GROUP_INFO@@U?$less@E@std@@V?$allocator@U?$pair@$$CBEUQUESTEX_GROUP_INFO@@@std@@@3@$0A@@std@@@std@@QAE?AV?$_Tree_iterator@V?$_Tree_val@U?$_Tree_simple_types@U?$pair@$$CBEUQUESTEX_GROUP_INFO@@@std@@@std@@@std@@@2@V?$_Tree_const_iterator@V?$_Tree_val@U?$_Tree_simple_types@U?$pair@$$CBEUQUESTEX_GROUP_INFO@@@std@@@std@@@std@@@2@0@Z DD 019930522H
	DD	01H
	DD	FLAT:__unwindtable$?erase@?$_Tree@V?$_Tmap_traits@EUQUESTEX_GROUP_INFO@@U?$less@E@std@@V?$allocator@U?$pair@$$CBEUQUESTEX_GROUP_INFO@@@std@@@3@$0A@@std@@@std@@QAE?AV?$_Tree_iterator@V?$_Tree_val@U?$_Tree_simple_types@U?$pair@$$CBEUQUESTEX_GROUP_INFO@@@std@@@std@@@std@@@2@V?$_Tree_const_iterator@V?$_Tree_val@U?$_Tree_simple_types@U?$pair@$$CBEUQUESTEX_GROUP_INFO@@@std@@@std@@@std@@@2@0@Z
	DD	2 DUP(00H)
	DD	2 DUP(00H)
	DD	00H
	DD	01H
xdata$x	ENDS
;	COMDAT xdata$x
xdata$x	SEGMENT
__ehfuncinfo$??1?$_Tree@V?$_Tmap_traits@EUQUESTEX_GROUP_INFO@@U?$less@E@std@@V?$allocator@U?$pair@$$CBEUQUESTEX_GROUP_INFO@@@std@@@3@$0A@@std@@@std@@QAE@XZ DD 019930522H
	DD	00H
	DD	00H
	DD	2 DUP(00H)
	DD	2 DUP(00H)
	DD	00H
	DD	05H
xdata$x	ENDS
;	COMDAT xdata$x
xdata$x	SEGMENT
__ehfuncinfo$?clear@?$_Tree@V?$_Tmap_traits@EUQUESTEX_PROGRESS_GROUP@@U?$less@E@std@@V?$allocator@U?$pair@$$CBEUQUESTEX_PROGRESS_GROUP@@@std@@@3@$0A@@std@@@std@@QAEXXZ DD 019930522H
	DD	00H
	DD	00H
	DD	2 DUP(00H)
	DD	2 DUP(00H)
	DD	00H
	DD	05H
xdata$x	ENDS
;	COMDAT xdata$x
xdata$x	SEGMENT
__unwindtable$?LoadQuestInfo@CQuestInfoEx@@QAEXPAD@Z DD 0ffffffffH
	DD	FLAT:__unwindfunclet$?LoadQuestInfo@CQuestInfoEx@@QAEXPAD@Z$0
__ehfuncinfo$?LoadQuestInfo@CQuestInfoEx@@QAEXPAD@Z DD 019930522H
	DD	01H
	DD	FLAT:__unwindtable$?LoadQuestInfo@CQuestInfoEx@@QAEXPAD@Z
	DD	2 DUP(00H)
	DD	2 DUP(00H)
	DD	00H
	DD	01H
xdata$x	ENDS
;	COMDAT xdata$x
xdata$x	SEGMENT
__unwindtable$??0CQuestInfoEx@@QAE@XZ DD 0ffffffffH
	DD	FLAT:__unwindfunclet$??0CQuestInfoEx@@QAE@XZ$0
__ehfuncinfo$??0CQuestInfoEx@@QAE@XZ DD 019930522H
	DD	01H
	DD	FLAT:__unwindtable$??0CQuestInfoEx@@QAE@XZ
	DD	2 DUP(00H)
	DD	2 DUP(00H)
	DD	00H
	DD	01H
xdata$x	ENDS
;	COMDAT xdata$x
xdata$x	SEGMENT
__unwindtable$?LoadQuestInfo@CQuestInfo@@QAEHPADH@Z DD 0ffffffffH
	DD	FLAT:__unwindfunclet$?LoadQuestInfo@CQuestInfo@@QAEHPADH@Z$0
__ehfuncinfo$?LoadQuestInfo@CQuestInfo@@QAEHPADH@Z DD 019930522H
	DD	01H
	DD	FLAT:__unwindtable$?LoadQuestInfo@CQuestInfo@@QAEHPADH@Z
	DD	2 DUP(00H)
	DD	2 DUP(00H)
	DD	00H
	DD	01H
xdata$x	ENDS
;	COMDAT xdata$x
xdata$x	SEGMENT
__ehfuncinfo$??_EOBJECTSTRUCT@@QAEPAXI@Z DD 019930522H
	DD	00H
	DD	00H
	DD	2 DUP(00H)
	DD	2 DUP(00H)
	DD	00H
	DD	05H
xdata$x	ENDS
CRT$XCU	SEGMENT
?g_MonsterKillInfo$initializer$@@3P6AXXZA DD FLAT:??__Eg_MonsterKillInfo@@YAXXZ ; g_MonsterKillInfo$initializer$
CRT$XCU	ENDS
CRT$XCU	SEGMENT
?gQuestInfoEx$initializer$@@3P6AXXZA DD FLAT:??__EgQuestInfoEx@@YAXXZ ; gQuestInfoEx$initializer$
CRT$XCU	ENDS
; Function compile flags: /Ogtp
; File c:\program files (x86)\microsoft visual studio 14.0\vc\include\tuple
;	COMDAT ??$get@$0A@ABE@std@@YAABE$$QAV?$tuple@ABE@0@@Z
_TEXT	SEGMENT
__Tuple$ = 8						; size = 4
??$get@$0A@ABE@std@@YAABE$$QAV?$tuple@ABE@0@@Z PROC	; std::get<0,unsigned char const &>, COMDAT

; 609  : 	{	// get rvalue reference to _Index element of tuple

  00000	55		 push	 ebp
  00001	8b ec		 mov	 ebp, esp

; 610  : 	typedef typename tuple_element<_Index, tuple<_Types...> >::_Ttype
; 611  : 		_Ttype;
; 612  : 	typedef typename tuple_element<_Index, tuple<_Types...> >::type&&
; 613  : 		_RRtype;
; 614  : 	return (_STD forward<_RRtype>(((_Ttype&)_Tuple)._Myfirst._Val));

  00003	8b 45 08	 mov	 eax, DWORD PTR __Tuple$[ebp]
  00006	8b 00		 mov	 eax, DWORD PTR [eax]

; 615  : 	}

  00008	5d		 pop	 ebp
  00009	c3		 ret	 0
??$get@$0A@ABE@std@@YAABE$$QAV?$tuple@ABE@0@@Z ENDP	; std::get<0,unsigned char const &>
_TEXT	ENDS
; Function compile flags: /Ogtp
; File c:\program files (x86)\microsoft visual studio 14.0\vc\include\type_traits
;	COMDAT ??$move@AAV?$tuple@ABE@std@@@std@@YA$$QAV?$tuple@ABE@0@AAV10@@Z
_TEXT	SEGMENT
__Arg$ = 8						; size = 4
??$move@AAV?$tuple@ABE@std@@@std@@YA$$QAV?$tuple@ABE@0@AAV10@@Z PROC ; std::move<std::tuple<unsigned char const &> &>, COMDAT

; 1249 : 	{	// forward _Arg as movable

  00000	55		 push	 ebp
  00001	8b ec		 mov	 ebp, esp

; 1250 : 	return (static_cast<typename remove_reference<_Ty>::type&&>(_Arg));

  00003	8b 45 08	 mov	 eax, DWORD PTR __Arg$[ebp]

; 1251 : 	}

  00006	5d		 pop	 ebp
  00007	c3		 ret	 0
??$move@AAV?$tuple@ABE@std@@@std@@YA$$QAV?$tuple@ABE@0@AAV10@@Z ENDP ; std::move<std::tuple<unsigned char const &> &>
_TEXT	ENDS
; Function compile flags: /Ogtp
; File c:\program files (x86)\microsoft visual studio 14.0\vc\include\tuple
;	COMDAT ??$?0V?$tuple@ABE@std@@V?$tuple@$$V@1@$0A@$$Z$S@?$pair@$$CBEUQUESTEX_PROGRESS_GROUP@@@std@@QAE@AAV?$tuple@ABE@1@AAV?$tuple@$$V@1@U?$integer_sequence@I$0A@@1@U?$integer_sequence@I$S@1@@Z
_TEXT	SEGMENT
__Val1$ = 8						; size = 4
__Val2$ = 12						; size = 4
___formal$ = 16						; size = 1
___formal$ = 20						; size = 1
??$?0V?$tuple@ABE@std@@V?$tuple@$$V@1@$0A@$$Z$S@?$pair@$$CBEUQUESTEX_PROGRESS_GROUP@@@std@@QAE@AAV?$tuple@ABE@1@AAV?$tuple@$$V@1@U?$integer_sequence@I$0A@@1@U?$integer_sequence@I$S@1@@Z PROC ; std::pair<unsigned char const ,QUESTEX_PROGRESS_GROUP>::pair<unsigned char const ,QUESTEX_PROGRESS_GROUP><std::tuple<unsigned char const &>,std::tuple<>,0>, COMDAT
; _this$ = ecx

; 829  : 		{	// construct from pair of tuples

  00000	55		 push	 ebp
  00001	8b ec		 mov	 ebp, esp

; 614  : 	return (_STD forward<_RRtype>(((_Ttype&)_Tuple)._Myfirst._Val));

  00003	8b 45 08	 mov	 eax, DWORD PTR __Val1$[ebp]
  00006	56		 push	 esi

; 829  : 		{	// construct from pair of tuples

  00007	8b f1		 mov	 esi, ecx

; 615  : 	}
; 616  : 
; 617  : 	// TEMPLATE FUNCTION get (by type)
; 618  : template<class _Ty,
; 619  : 	class... _Types> inline
; 620  : 	_CONST_FUN _Ty& get(tuple<_Types...>& _Tuple) _NOEXCEPT
; 621  : 	{	// get reference to _Ty element of tuple
; 622  : 	typedef typename _Tuple_element<_Ty, tuple<_Types...> >::_Ttype _Ttype;
; 623  : 	return (((_Ttype&)_Tuple)._Myfirst._Val);
; 624  : 	}
; 625  : 
; 626  : template<class _Ty,
; 627  : 	class... _Types> inline
; 628  : 	_CONST_FUN const _Ty& get(const tuple<_Types...>& _Tuple) _NOEXCEPT
; 629  : 	{	// get const reference to _Ty element of tuple
; 630  : 	typedef typename _Tuple_element<_Ty, tuple<_Types...> >::_Ttype _Ttype;
; 631  : 	return (((_Ttype&)_Tuple)._Myfirst._Val);
; 632  : 	}
; 633  : 
; 634  : template<class _Ty,
; 635  : 	class... _Types> inline
; 636  : 	_CONST_FUN _Ty&& get(tuple<_Types...>&& _Tuple) _NOEXCEPT
; 637  : 	{	// get rvalue reference to _Ty element of tuple
; 638  : 	typedef typename _Tuple_element<_Ty, tuple<_Types...> >::_Ttype _Ttype;
; 639  : 	return (_STD forward<_Ty&&>(((_Ttype&)_Tuple)._Myfirst._Val));
; 640  : 	}
; 641  : 
; 642  : 	// TEMPLATE FUNCTION make_tuple
; 643  : template<class... _Types> inline
; 644  : 	_CONST_FUN tuple<typename _Unrefwrap<_Types>::type...>
; 645  : 		make_tuple(_Types&&... _Args)
; 646  : 	{	// make tuple from elements
; 647  : 	typedef tuple<typename _Unrefwrap<_Types>::type...> _Ttype;
; 648  : 	return (_Ttype(_STD forward<_Types>(_Args)...));
; 649  : 	}
; 650  : 
; 651  : 	// TEMPLATE FUNCTION tie
; 652  : template<class... _Types> inline
; 653  : 	_CONST_FUN tuple<_Types&...>
; 654  : 		tie(_Types&... _Args) _NOEXCEPT
; 655  : 	{	// make tuple from elements
; 656  : 	typedef tuple<_Types&...> _Ttype;
; 657  : 	return (_Ttype(_Args...));
; 658  : 	}
; 659  : 
; 660  : 
; 661  : 	// TEMPLATE FUNCTION forward_as_tuple
; 662  : 
; 663  : template<class... _Types> inline
; 664  : 	_CONST_FUN tuple<_Types&&...>
; 665  : 		forward_as_tuple(_Types&&... _Args) _NOEXCEPT
; 666  : 	{	// forward arguments in a tuple
; 667  : 	return (tuple<_Types&&...>(_STD forward<_Types>(_Args)...));
; 668  : 	}
; 669  : 
; 670  : 
; 671  : 	// TEMPLATE STRUCT _Cat_sequences
; 672  : template<class _Seq_type1,
; 673  : 	class _Seq_type2>
; 674  : 	struct _Cat_sequences;
; 675  : 
; 676  : template<size_t... _Indexes1,
; 677  : 	size_t... _Indexes2>
; 678  : 	struct _Cat_sequences<integer_sequence<size_t, _Indexes1...>,
; 679  : 		integer_sequence<size_t, _Indexes2...> >
; 680  : 	{	// concatenates two integer_sequence types
; 681  : 	typedef integer_sequence<size_t, _Indexes1..., _Indexes2...> type;
; 682  : 	};
; 683  : 
; 684  : 	// FORWARD DECLARATIONS
; 685  : template<class _Ty,
; 686  : 	size_t _Size>
; 687  : 	class array;
; 688  : 
; 689  : template<size_t _Idx,
; 690  : 	class _Ty,
; 691  : 	size_t _Size>
; 692  : 	_CONST_FUN _Ty& get(array<_Ty, _Size>& _Arr) _NOEXCEPT;
; 693  : 
; 694  : template<size_t _Idx,
; 695  : 	class _Ty,
; 696  : 	size_t _Size>
; 697  : 	_CONST_FUN const _Ty& get(const array<_Ty, _Size>& _Arr) _NOEXCEPT;
; 698  : 
; 699  : template<size_t _Idx,
; 700  : 	class _Ty,
; 701  : 	size_t _Size>
; 702  : 	_CONST_FUN _Ty&& get(array<_Ty, _Size>&& _Arr) _NOEXCEPT;
; 703  : 
; 704  : 	// TEMPLATE STRUCT _View_as_tuple
; 705  : template<class _Ty,
; 706  : 	class... _For_array>
; 707  : 	struct _View_as_tuple
; 708  : 	{	// tuple_cat() supports only tuples, pairs, and arrays
; 709  : 	static_assert(_Always_false<_Ty>::value,
; 710  : 		"Unsupported tuple_cat arguments.");
; 711  : 	};
; 712  : 
; 713  : template<class... _Types>
; 714  : 	struct _View_as_tuple<tuple<_Types...> >
; 715  : 	{	// view a tuple as a tuple
; 716  : 	typedef tuple<_Types...> type;
; 717  : 	};
; 718  : 
; 719  : template<class _Ty1,
; 720  : 	class _Ty2>
; 721  : 	struct _View_as_tuple<pair<_Ty1, _Ty2> >
; 722  : 	{	// view a pair as a tuple
; 723  : 	typedef tuple<_Ty1, _Ty2> type;
; 724  : 	};
; 725  : 
; 726  : template<class _Ty,
; 727  : 	class... _Types>
; 728  : 	struct _View_as_tuple<array<_Ty, 0>, _Types...>
; 729  : 	{	// view an array as a tuple; ends recursion at 0
; 730  : 	typedef tuple<_Types...> type;
; 731  : 	};
; 732  : 
; 733  : template<class _Ty,
; 734  : 	size_t _Size,
; 735  : 	class... _Types>
; 736  : 	struct _View_as_tuple<array<_Ty, _Size>, _Types...>
; 737  : 		: _View_as_tuple<array<_Ty, _Size - 1>, _Ty, _Types...>
; 738  : 	{	// view an array as a tuple; counts down to 0
; 739  : 	};
; 740  : 
; 741  : 	// TEMPLATE STRUCT _Repeat_for
; 742  : template<size_t _Nx,
; 743  : 	class _Ty>
; 744  : 	struct _Repeat_for
; 745  : 		: integral_constant<size_t, _Nx>
; 746  : 	{	// repeats _Nx for each _Ty in a parameter pack
; 747  : 	};
; 748  : 
; 749  : 	// TEMPLATE FUNCTION tuple_cat
; 750  : template<class _Ret,
; 751  : 	class _Kx_arg,
; 752  : 	class _Ix_arg,
; 753  : 	size_t _Ix_next,
; 754  : 	class... _Tuples>
; 755  : 	struct _Tuple_cat2
; 756  : 	{	// determine tuple_cat's return type and _Kx/_Ix indices
; 757  : 	static_assert(sizeof...(_Tuples) == 0,
; 758  : 		"Unsupported tuple_cat arguments.");
; 759  : 	typedef _Ret type;
; 760  : 	typedef _Kx_arg _Kx_arg_seq;
; 761  : 	typedef _Ix_arg _Ix_arg_seq;
; 762  : 	};
; 763  : 
; 764  : template<class... _Types1,
; 765  : 	class _Kx_arg,
; 766  : 	size_t... _Ix,
; 767  : 	size_t _Ix_next,
; 768  : 	class... _Types2,
; 769  : 	class... _Rest>
; 770  : 	struct _Tuple_cat2<tuple<_Types1...>, _Kx_arg,
; 771  : 		integer_sequence<size_t, _Ix...>, _Ix_next,
; 772  : 		tuple<_Types2...>, _Rest...>
; 773  : 		: _Tuple_cat2<
; 774  : 			tuple<_Types1..., _Types2...>,
; 775  : 			typename _Cat_sequences<_Kx_arg,
; 776  : 
; 777  : 				make_integer_sequence<size_t, sizeof...(_Types2)> >::type,
; 778  : 
; 779  : 			integer_sequence<size_t, _Ix...,
; 780  : 				_Repeat_for<_Ix_next, _Types2>::value...>,
; 781  : 			_Ix_next + 1,
; 782  : 			_Rest...>
; 783  : 	{	// determine tuple_cat's return type and _Kx/_Ix indices
; 784  : 	};
; 785  : 
; 786  : template<class... _Tuples>
; 787  : 	struct _Tuple_cat1
; 788  : 		: _Tuple_cat2<tuple<>, integer_sequence<size_t>,
; 789  : 				integer_sequence<size_t>, 0,
; 790  : 			typename _View_as_tuple<typename decay<_Tuples>::type>::type...>
; 791  : 	{	// prepare to determine tuple_cat's return type and _Kx/_Ix indices
; 792  : 	};
; 793  : 
; 794  : template<class _Ret,
; 795  : 	size_t... _Kx,
; 796  : 	size_t... _Ix,
; 797  : 	class _Ty> inline
; 798  : 	_CONST_FUN _Ret _Tuple_cat(integer_sequence<size_t, _Kx...>,
; 799  : 		integer_sequence<size_t, _Ix...>, _Ty&& _Arg)
; 800  : 	{	// concatenate tuples
; 801  : 	return (_Ret(_STD get<_Kx>(_STD get<_Ix>(_STD forward<_Ty>(_Arg)))...));
; 802  : 	}
; 803  : 
; 804  : template<class... _Tuples> inline
; 805  : 	_CONST_FUN typename _Tuple_cat1<_Tuples...>::type
; 806  : 		tuple_cat(_Tuples&&... _Tpls)
; 807  : 	{	// concatenate tuples
; 808  : 	typedef _Tuple_cat1<_Tuples...> _Cat1;
; 809  : 	return (_Tuple_cat<typename _Cat1::type>(
; 810  : 		typename _Cat1::_Kx_arg_seq(), typename _Cat1::_Ix_arg_seq(),
; 811  : 		_STD forward_as_tuple(_STD forward<_Tuples>(_Tpls)...)));
; 812  : 	}
; 813  : 
; 814  : 
; 815  : 
; 816  : 	// TEMPLATE CONSTRUCTOR pair::pair(tuple, tuple, sequence, sequence)
; 817  : template<class _Ty1,
; 818  : 	class _Ty2>
; 819  : 	template<class _Tuple1,
; 820  : 		class _Tuple2,
; 821  : 		size_t... _Indexes1,
; 822  : 		size_t... _Indexes2> inline
; 823  : 		pair<_Ty1, _Ty2>::pair(_Tuple1& _Val1,
; 824  : 			_Tuple2& _Val2,
; 825  : 			integer_sequence<size_t, _Indexes1...>,
; 826  : 			integer_sequence<size_t, _Indexes2...>)
; 827  : 		: first(_STD get<_Indexes1>(_STD move(_Val1))...),
; 828  : 			second(_STD get<_Indexes2>(_STD move(_Val2))...)

  00009	68 ac 0f 00 00	 push	 4012			; 00000facH

; 614  : 	return (_STD forward<_RRtype>(((_Ttype&)_Tuple)._Myfirst._Val));

  0000e	8b 00		 mov	 eax, DWORD PTR [eax]

; 615  : 	}
; 616  : 
; 617  : 	// TEMPLATE FUNCTION get (by type)
; 618  : template<class _Ty,
; 619  : 	class... _Types> inline
; 620  : 	_CONST_FUN _Ty& get(tuple<_Types...>& _Tuple) _NOEXCEPT
; 621  : 	{	// get reference to _Ty element of tuple
; 622  : 	typedef typename _Tuple_element<_Ty, tuple<_Types...> >::_Ttype _Ttype;
; 623  : 	return (((_Ttype&)_Tuple)._Myfirst._Val);
; 624  : 	}
; 625  : 
; 626  : template<class _Ty,
; 627  : 	class... _Types> inline
; 628  : 	_CONST_FUN const _Ty& get(const tuple<_Types...>& _Tuple) _NOEXCEPT
; 629  : 	{	// get const reference to _Ty element of tuple
; 630  : 	typedef typename _Tuple_element<_Ty, tuple<_Types...> >::_Ttype _Ttype;
; 631  : 	return (((_Ttype&)_Tuple)._Myfirst._Val);
; 632  : 	}
; 633  : 
; 634  : template<class _Ty,
; 635  : 	class... _Types> inline
; 636  : 	_CONST_FUN _Ty&& get(tuple<_Types...>&& _Tuple) _NOEXCEPT
; 637  : 	{	// get rvalue reference to _Ty element of tuple
; 638  : 	typedef typename _Tuple_element<_Ty, tuple<_Types...> >::_Ttype _Ttype;
; 639  : 	return (_STD forward<_Ty&&>(((_Ttype&)_Tuple)._Myfirst._Val));
; 640  : 	}
; 641  : 
; 642  : 	// TEMPLATE FUNCTION make_tuple
; 643  : template<class... _Types> inline
; 644  : 	_CONST_FUN tuple<typename _Unrefwrap<_Types>::type...>
; 645  : 		make_tuple(_Types&&... _Args)
; 646  : 	{	// make tuple from elements
; 647  : 	typedef tuple<typename _Unrefwrap<_Types>::type...> _Ttype;
; 648  : 	return (_Ttype(_STD forward<_Types>(_Args)...));
; 649  : 	}
; 650  : 
; 651  : 	// TEMPLATE FUNCTION tie
; 652  : template<class... _Types> inline
; 653  : 	_CONST_FUN tuple<_Types&...>
; 654  : 		tie(_Types&... _Args) _NOEXCEPT
; 655  : 	{	// make tuple from elements
; 656  : 	typedef tuple<_Types&...> _Ttype;
; 657  : 	return (_Ttype(_Args...));
; 658  : 	}
; 659  : 
; 660  : 
; 661  : 	// TEMPLATE FUNCTION forward_as_tuple
; 662  : 
; 663  : template<class... _Types> inline
; 664  : 	_CONST_FUN tuple<_Types&&...>
; 665  : 		forward_as_tuple(_Types&&... _Args) _NOEXCEPT
; 666  : 	{	// forward arguments in a tuple
; 667  : 	return (tuple<_Types&&...>(_STD forward<_Types>(_Args)...));
; 668  : 	}
; 669  : 
; 670  : 
; 671  : 	// TEMPLATE STRUCT _Cat_sequences
; 672  : template<class _Seq_type1,
; 673  : 	class _Seq_type2>
; 674  : 	struct _Cat_sequences;
; 675  : 
; 676  : template<size_t... _Indexes1,
; 677  : 	size_t... _Indexes2>
; 678  : 	struct _Cat_sequences<integer_sequence<size_t, _Indexes1...>,
; 679  : 		integer_sequence<size_t, _Indexes2...> >
; 680  : 	{	// concatenates two integer_sequence types
; 681  : 	typedef integer_sequence<size_t, _Indexes1..., _Indexes2...> type;
; 682  : 	};
; 683  : 
; 684  : 	// FORWARD DECLARATIONS
; 685  : template<class _Ty,
; 686  : 	size_t _Size>
; 687  : 	class array;
; 688  : 
; 689  : template<size_t _Idx,
; 690  : 	class _Ty,
; 691  : 	size_t _Size>
; 692  : 	_CONST_FUN _Ty& get(array<_Ty, _Size>& _Arr) _NOEXCEPT;
; 693  : 
; 694  : template<size_t _Idx,
; 695  : 	class _Ty,
; 696  : 	size_t _Size>
; 697  : 	_CONST_FUN const _Ty& get(const array<_Ty, _Size>& _Arr) _NOEXCEPT;
; 698  : 
; 699  : template<size_t _Idx,
; 700  : 	class _Ty,
; 701  : 	size_t _Size>
; 702  : 	_CONST_FUN _Ty&& get(array<_Ty, _Size>&& _Arr) _NOEXCEPT;
; 703  : 
; 704  : 	// TEMPLATE STRUCT _View_as_tuple
; 705  : template<class _Ty,
; 706  : 	class... _For_array>
; 707  : 	struct _View_as_tuple
; 708  : 	{	// tuple_cat() supports only tuples, pairs, and arrays
; 709  : 	static_assert(_Always_false<_Ty>::value,
; 710  : 		"Unsupported tuple_cat arguments.");
; 711  : 	};
; 712  : 
; 713  : template<class... _Types>
; 714  : 	struct _View_as_tuple<tuple<_Types...> >
; 715  : 	{	// view a tuple as a tuple
; 716  : 	typedef tuple<_Types...> type;
; 717  : 	};
; 718  : 
; 719  : template<class _Ty1,
; 720  : 	class _Ty2>
; 721  : 	struct _View_as_tuple<pair<_Ty1, _Ty2> >
; 722  : 	{	// view a pair as a tuple
; 723  : 	typedef tuple<_Ty1, _Ty2> type;
; 724  : 	};
; 725  : 
; 726  : template<class _Ty,
; 727  : 	class... _Types>
; 728  : 	struct _View_as_tuple<array<_Ty, 0>, _Types...>
; 729  : 	{	// view an array as a tuple; ends recursion at 0
; 730  : 	typedef tuple<_Types...> type;
; 731  : 	};
; 732  : 
; 733  : template<class _Ty,
; 734  : 	size_t _Size,
; 735  : 	class... _Types>
; 736  : 	struct _View_as_tuple<array<_Ty, _Size>, _Types...>
; 737  : 		: _View_as_tuple<array<_Ty, _Size - 1>, _Ty, _Types...>
; 738  : 	{	// view an array as a tuple; counts down to 0
; 739  : 	};
; 740  : 
; 741  : 	// TEMPLATE STRUCT _Repeat_for
; 742  : template<size_t _Nx,
; 743  : 	class _Ty>
; 744  : 	struct _Repeat_for
; 745  : 		: integral_constant<size_t, _Nx>
; 746  : 	{	// repeats _Nx for each _Ty in a parameter pack
; 747  : 	};
; 748  : 
; 749  : 	// TEMPLATE FUNCTION tuple_cat
; 750  : template<class _Ret,
; 751  : 	class _Kx_arg,
; 752  : 	class _Ix_arg,
; 753  : 	size_t _Ix_next,
; 754  : 	class... _Tuples>
; 755  : 	struct _Tuple_cat2
; 756  : 	{	// determine tuple_cat's return type and _Kx/_Ix indices
; 757  : 	static_assert(sizeof...(_Tuples) == 0,
; 758  : 		"Unsupported tuple_cat arguments.");
; 759  : 	typedef _Ret type;
; 760  : 	typedef _Kx_arg _Kx_arg_seq;
; 761  : 	typedef _Ix_arg _Ix_arg_seq;
; 762  : 	};
; 763  : 
; 764  : template<class... _Types1,
; 765  : 	class _Kx_arg,
; 766  : 	size_t... _Ix,
; 767  : 	size_t _Ix_next,
; 768  : 	class... _Types2,
; 769  : 	class... _Rest>
; 770  : 	struct _Tuple_cat2<tuple<_Types1...>, _Kx_arg,
; 771  : 		integer_sequence<size_t, _Ix...>, _Ix_next,
; 772  : 		tuple<_Types2...>, _Rest...>
; 773  : 		: _Tuple_cat2<
; 774  : 			tuple<_Types1..., _Types2...>,
; 775  : 			typename _Cat_sequences<_Kx_arg,
; 776  : 
; 777  : 				make_integer_sequence<size_t, sizeof...(_Types2)> >::type,
; 778  : 
; 779  : 			integer_sequence<size_t, _Ix...,
; 780  : 				_Repeat_for<_Ix_next, _Types2>::value...>,
; 781  : 			_Ix_next + 1,
; 782  : 			_Rest...>
; 783  : 	{	// determine tuple_cat's return type and _Kx/_Ix indices
; 784  : 	};
; 785  : 
; 786  : template<class... _Tuples>
; 787  : 	struct _Tuple_cat1
; 788  : 		: _Tuple_cat2<tuple<>, integer_sequence<size_t>,
; 789  : 				integer_sequence<size_t>, 0,
; 790  : 			typename _View_as_tuple<typename decay<_Tuples>::type>::type...>
; 791  : 	{	// prepare to determine tuple_cat's return type and _Kx/_Ix indices
; 792  : 	};
; 793  : 
; 794  : template<class _Ret,
; 795  : 	size_t... _Kx,
; 796  : 	size_t... _Ix,
; 797  : 	class _Ty> inline
; 798  : 	_CONST_FUN _Ret _Tuple_cat(integer_sequence<size_t, _Kx...>,
; 799  : 		integer_sequence<size_t, _Ix...>, _Ty&& _Arg)
; 800  : 	{	// concatenate tuples
; 801  : 	return (_Ret(_STD get<_Kx>(_STD get<_Ix>(_STD forward<_Ty>(_Arg)))...));
; 802  : 	}
; 803  : 
; 804  : template<class... _Tuples> inline
; 805  : 	_CONST_FUN typename _Tuple_cat1<_Tuples...>::type
; 806  : 		tuple_cat(_Tuples&&... _Tpls)
; 807  : 	{	// concatenate tuples
; 808  : 	typedef _Tuple_cat1<_Tuples...> _Cat1;
; 809  : 	return (_Tuple_cat<typename _Cat1::type>(
; 810  : 		typename _Cat1::_Kx_arg_seq(), typename _Cat1::_Ix_arg_seq(),
; 811  : 		_STD forward_as_tuple(_STD forward<_Tuples>(_Tpls)...)));
; 812  : 	}
; 813  : 
; 814  : 
; 815  : 
; 816  : 	// TEMPLATE CONSTRUCTOR pair::pair(tuple, tuple, sequence, sequence)
; 817  : template<class _Ty1,
; 818  : 	class _Ty2>
; 819  : 	template<class _Tuple1,
; 820  : 		class _Tuple2,
; 821  : 		size_t... _Indexes1,
; 822  : 		size_t... _Indexes2> inline
; 823  : 		pair<_Ty1, _Ty2>::pair(_Tuple1& _Val1,
; 824  : 			_Tuple2& _Val2,
; 825  : 			integer_sequence<size_t, _Indexes1...>,
; 826  : 			integer_sequence<size_t, _Indexes2...>)
; 827  : 		: first(_STD get<_Indexes1>(_STD move(_Val1))...),
; 828  : 			second(_STD get<_Indexes2>(_STD move(_Val2))...)

  00010	6a 00		 push	 0
  00012	8a 00		 mov	 al, BYTE PTR [eax]
  00014	88 06		 mov	 BYTE PTR [esi], al
  00016	8d 46 04	 lea	 eax, DWORD PTR [esi+4]
  00019	50		 push	 eax
  0001a	e8 00 00 00 00	 call	 _memset
  0001f	83 c4 0c	 add	 esp, 12			; 0000000cH

; 830  : 		}

  00022	8b c6		 mov	 eax, esi
  00024	5e		 pop	 esi
  00025	5d		 pop	 ebp
  00026	c2 10 00	 ret	 16			; 00000010H
??$?0V?$tuple@ABE@std@@V?$tuple@$$V@1@$0A@$$Z$S@?$pair@$$CBEUQUESTEX_PROGRESS_GROUP@@@std@@QAE@AAV?$tuple@ABE@1@AAV?$tuple@$$V@1@U?$integer_sequence@I$0A@@1@U?$integer_sequence@I$S@1@@Z ENDP ; std::pair<unsigned char const ,QUESTEX_PROGRESS_GROUP>::pair<unsigned char const ,QUESTEX_PROGRESS_GROUP><std::tuple<unsigned char const &>,std::tuple<>,0>
_TEXT	ENDS
; Function compile flags: /Ogtp
; File c:\program files (x86)\microsoft visual studio 14.0\vc\include\tuple
;	COMDAT ??$?0V?$tuple@ABE@std@@V?$tuple@$$V@1@$0A@$$Z$S@?$pair@$$CBEUQUESTEX_GROUP_INFO@@@std@@QAE@AAV?$tuple@ABE@1@AAV?$tuple@$$V@1@U?$integer_sequence@I$0A@@1@U?$integer_sequence@I$S@1@@Z
_TEXT	SEGMENT
__Val1$ = 8						; size = 4
__Val2$ = 12						; size = 4
___formal$ = 16						; size = 1
___formal$ = 20						; size = 1
??$?0V?$tuple@ABE@std@@V?$tuple@$$V@1@$0A@$$Z$S@?$pair@$$CBEUQUESTEX_GROUP_INFO@@@std@@QAE@AAV?$tuple@ABE@1@AAV?$tuple@$$V@1@U?$integer_sequence@I$0A@@1@U?$integer_sequence@I$S@1@@Z PROC ; std::pair<unsigned char const ,QUESTEX_GROUP_INFO>::pair<unsigned char const ,QUESTEX_GROUP_INFO><std::tuple<unsigned char const &>,std::tuple<>,0>, COMDAT
; _this$ = ecx

; 829  : 		{	// construct from pair of tuples

  00000	55		 push	 ebp
  00001	8b ec		 mov	 ebp, esp

; 614  : 	return (_STD forward<_RRtype>(((_Ttype&)_Tuple)._Myfirst._Val));

  00003	8b 45 08	 mov	 eax, DWORD PTR __Val1$[ebp]
  00006	56		 push	 esi

; 829  : 		{	// construct from pair of tuples

  00007	8b f1		 mov	 esi, ecx

; 615  : 	}
; 616  : 
; 617  : 	// TEMPLATE FUNCTION get (by type)
; 618  : template<class _Ty,
; 619  : 	class... _Types> inline
; 620  : 	_CONST_FUN _Ty& get(tuple<_Types...>& _Tuple) _NOEXCEPT
; 621  : 	{	// get reference to _Ty element of tuple
; 622  : 	typedef typename _Tuple_element<_Ty, tuple<_Types...> >::_Ttype _Ttype;
; 623  : 	return (((_Ttype&)_Tuple)._Myfirst._Val);
; 624  : 	}
; 625  : 
; 626  : template<class _Ty,
; 627  : 	class... _Types> inline
; 628  : 	_CONST_FUN const _Ty& get(const tuple<_Types...>& _Tuple) _NOEXCEPT
; 629  : 	{	// get const reference to _Ty element of tuple
; 630  : 	typedef typename _Tuple_element<_Ty, tuple<_Types...> >::_Ttype _Ttype;
; 631  : 	return (((_Ttype&)_Tuple)._Myfirst._Val);
; 632  : 	}
; 633  : 
; 634  : template<class _Ty,
; 635  : 	class... _Types> inline
; 636  : 	_CONST_FUN _Ty&& get(tuple<_Types...>&& _Tuple) _NOEXCEPT
; 637  : 	{	// get rvalue reference to _Ty element of tuple
; 638  : 	typedef typename _Tuple_element<_Ty, tuple<_Types...> >::_Ttype _Ttype;
; 639  : 	return (_STD forward<_Ty&&>(((_Ttype&)_Tuple)._Myfirst._Val));
; 640  : 	}
; 641  : 
; 642  : 	// TEMPLATE FUNCTION make_tuple
; 643  : template<class... _Types> inline
; 644  : 	_CONST_FUN tuple<typename _Unrefwrap<_Types>::type...>
; 645  : 		make_tuple(_Types&&... _Args)
; 646  : 	{	// make tuple from elements
; 647  : 	typedef tuple<typename _Unrefwrap<_Types>::type...> _Ttype;
; 648  : 	return (_Ttype(_STD forward<_Types>(_Args)...));
; 649  : 	}
; 650  : 
; 651  : 	// TEMPLATE FUNCTION tie
; 652  : template<class... _Types> inline
; 653  : 	_CONST_FUN tuple<_Types&...>
; 654  : 		tie(_Types&... _Args) _NOEXCEPT
; 655  : 	{	// make tuple from elements
; 656  : 	typedef tuple<_Types&...> _Ttype;
; 657  : 	return (_Ttype(_Args...));
; 658  : 	}
; 659  : 
; 660  : 
; 661  : 	// TEMPLATE FUNCTION forward_as_tuple
; 662  : 
; 663  : template<class... _Types> inline
; 664  : 	_CONST_FUN tuple<_Types&&...>
; 665  : 		forward_as_tuple(_Types&&... _Args) _NOEXCEPT
; 666  : 	{	// forward arguments in a tuple
; 667  : 	return (tuple<_Types&&...>(_STD forward<_Types>(_Args)...));
; 668  : 	}
; 669  : 
; 670  : 
; 671  : 	// TEMPLATE STRUCT _Cat_sequences
; 672  : template<class _Seq_type1,
; 673  : 	class _Seq_type2>
; 674  : 	struct _Cat_sequences;
; 675  : 
; 676  : template<size_t... _Indexes1,
; 677  : 	size_t... _Indexes2>
; 678  : 	struct _Cat_sequences<integer_sequence<size_t, _Indexes1...>,
; 679  : 		integer_sequence<size_t, _Indexes2...> >
; 680  : 	{	// concatenates two integer_sequence types
; 681  : 	typedef integer_sequence<size_t, _Indexes1..., _Indexes2...> type;
; 682  : 	};
; 683  : 
; 684  : 	// FORWARD DECLARATIONS
; 685  : template<class _Ty,
; 686  : 	size_t _Size>
; 687  : 	class array;
; 688  : 
; 689  : template<size_t _Idx,
; 690  : 	class _Ty,
; 691  : 	size_t _Size>
; 692  : 	_CONST_FUN _Ty& get(array<_Ty, _Size>& _Arr) _NOEXCEPT;
; 693  : 
; 694  : template<size_t _Idx,
; 695  : 	class _Ty,
; 696  : 	size_t _Size>
; 697  : 	_CONST_FUN const _Ty& get(const array<_Ty, _Size>& _Arr) _NOEXCEPT;
; 698  : 
; 699  : template<size_t _Idx,
; 700  : 	class _Ty,
; 701  : 	size_t _Size>
; 702  : 	_CONST_FUN _Ty&& get(array<_Ty, _Size>&& _Arr) _NOEXCEPT;
; 703  : 
; 704  : 	// TEMPLATE STRUCT _View_as_tuple
; 705  : template<class _Ty,
; 706  : 	class... _For_array>
; 707  : 	struct _View_as_tuple
; 708  : 	{	// tuple_cat() supports only tuples, pairs, and arrays
; 709  : 	static_assert(_Always_false<_Ty>::value,
; 710  : 		"Unsupported tuple_cat arguments.");
; 711  : 	};
; 712  : 
; 713  : template<class... _Types>
; 714  : 	struct _View_as_tuple<tuple<_Types...> >
; 715  : 	{	// view a tuple as a tuple
; 716  : 	typedef tuple<_Types...> type;
; 717  : 	};
; 718  : 
; 719  : template<class _Ty1,
; 720  : 	class _Ty2>
; 721  : 	struct _View_as_tuple<pair<_Ty1, _Ty2> >
; 722  : 	{	// view a pair as a tuple
; 723  : 	typedef tuple<_Ty1, _Ty2> type;
; 724  : 	};
; 725  : 
; 726  : template<class _Ty,
; 727  : 	class... _Types>
; 728  : 	struct _View_as_tuple<array<_Ty, 0>, _Types...>
; 729  : 	{	// view an array as a tuple; ends recursion at 0
; 730  : 	typedef tuple<_Types...> type;
; 731  : 	};
; 732  : 
; 733  : template<class _Ty,
; 734  : 	size_t _Size,
; 735  : 	class... _Types>
; 736  : 	struct _View_as_tuple<array<_Ty, _Size>, _Types...>
; 737  : 		: _View_as_tuple<array<_Ty, _Size - 1>, _Ty, _Types...>
; 738  : 	{	// view an array as a tuple; counts down to 0
; 739  : 	};
; 740  : 
; 741  : 	// TEMPLATE STRUCT _Repeat_for
; 742  : template<size_t _Nx,
; 743  : 	class _Ty>
; 744  : 	struct _Repeat_for
; 745  : 		: integral_constant<size_t, _Nx>
; 746  : 	{	// repeats _Nx for each _Ty in a parameter pack
; 747  : 	};
; 748  : 
; 749  : 	// TEMPLATE FUNCTION tuple_cat
; 750  : template<class _Ret,
; 751  : 	class _Kx_arg,
; 752  : 	class _Ix_arg,
; 753  : 	size_t _Ix_next,
; 754  : 	class... _Tuples>
; 755  : 	struct _Tuple_cat2
; 756  : 	{	// determine tuple_cat's return type and _Kx/_Ix indices
; 757  : 	static_assert(sizeof...(_Tuples) == 0,
; 758  : 		"Unsupported tuple_cat arguments.");
; 759  : 	typedef _Ret type;
; 760  : 	typedef _Kx_arg _Kx_arg_seq;
; 761  : 	typedef _Ix_arg _Ix_arg_seq;
; 762  : 	};
; 763  : 
; 764  : template<class... _Types1,
; 765  : 	class _Kx_arg,
; 766  : 	size_t... _Ix,
; 767  : 	size_t _Ix_next,
; 768  : 	class... _Types2,
; 769  : 	class... _Rest>
; 770  : 	struct _Tuple_cat2<tuple<_Types1...>, _Kx_arg,
; 771  : 		integer_sequence<size_t, _Ix...>, _Ix_next,
; 772  : 		tuple<_Types2...>, _Rest...>
; 773  : 		: _Tuple_cat2<
; 774  : 			tuple<_Types1..., _Types2...>,
; 775  : 			typename _Cat_sequences<_Kx_arg,
; 776  : 
; 777  : 				make_integer_sequence<size_t, sizeof...(_Types2)> >::type,
; 778  : 
; 779  : 			integer_sequence<size_t, _Ix...,
; 780  : 				_Repeat_for<_Ix_next, _Types2>::value...>,
; 781  : 			_Ix_next + 1,
; 782  : 			_Rest...>
; 783  : 	{	// determine tuple_cat's return type and _Kx/_Ix indices
; 784  : 	};
; 785  : 
; 786  : template<class... _Tuples>
; 787  : 	struct _Tuple_cat1
; 788  : 		: _Tuple_cat2<tuple<>, integer_sequence<size_t>,
; 789  : 				integer_sequence<size_t>, 0,
; 790  : 			typename _View_as_tuple<typename decay<_Tuples>::type>::type...>
; 791  : 	{	// prepare to determine tuple_cat's return type and _Kx/_Ix indices
; 792  : 	};
; 793  : 
; 794  : template<class _Ret,
; 795  : 	size_t... _Kx,
; 796  : 	size_t... _Ix,
; 797  : 	class _Ty> inline
; 798  : 	_CONST_FUN _Ret _Tuple_cat(integer_sequence<size_t, _Kx...>,
; 799  : 		integer_sequence<size_t, _Ix...>, _Ty&& _Arg)
; 800  : 	{	// concatenate tuples
; 801  : 	return (_Ret(_STD get<_Kx>(_STD get<_Ix>(_STD forward<_Ty>(_Arg)))...));
; 802  : 	}
; 803  : 
; 804  : template<class... _Tuples> inline
; 805  : 	_CONST_FUN typename _Tuple_cat1<_Tuples...>::type
; 806  : 		tuple_cat(_Tuples&&... _Tpls)
; 807  : 	{	// concatenate tuples
; 808  : 	typedef _Tuple_cat1<_Tuples...> _Cat1;
; 809  : 	return (_Tuple_cat<typename _Cat1::type>(
; 810  : 		typename _Cat1::_Kx_arg_seq(), typename _Cat1::_Ix_arg_seq(),
; 811  : 		_STD forward_as_tuple(_STD forward<_Tuples>(_Tpls)...)));
; 812  : 	}
; 813  : 
; 814  : 
; 815  : 
; 816  : 	// TEMPLATE CONSTRUCTOR pair::pair(tuple, tuple, sequence, sequence)
; 817  : template<class _Ty1,
; 818  : 	class _Ty2>
; 819  : 	template<class _Tuple1,
; 820  : 		class _Tuple2,
; 821  : 		size_t... _Indexes1,
; 822  : 		size_t... _Indexes2> inline
; 823  : 		pair<_Ty1, _Ty2>::pair(_Tuple1& _Val1,
; 824  : 			_Tuple2& _Val2,
; 825  : 			integer_sequence<size_t, _Indexes1...>,
; 826  : 			integer_sequence<size_t, _Indexes2...>)
; 827  : 		: first(_STD get<_Indexes1>(_STD move(_Val1))...),
; 828  : 			second(_STD get<_Indexes2>(_STD move(_Val2))...)

  00009	68 04 69 00 00	 push	 26884			; 00006904H

; 614  : 	return (_STD forward<_RRtype>(((_Ttype&)_Tuple)._Myfirst._Val));

  0000e	8b 00		 mov	 eax, DWORD PTR [eax]

; 615  : 	}
; 616  : 
; 617  : 	// TEMPLATE FUNCTION get (by type)
; 618  : template<class _Ty,
; 619  : 	class... _Types> inline
; 620  : 	_CONST_FUN _Ty& get(tuple<_Types...>& _Tuple) _NOEXCEPT
; 621  : 	{	// get reference to _Ty element of tuple
; 622  : 	typedef typename _Tuple_element<_Ty, tuple<_Types...> >::_Ttype _Ttype;
; 623  : 	return (((_Ttype&)_Tuple)._Myfirst._Val);
; 624  : 	}
; 625  : 
; 626  : template<class _Ty,
; 627  : 	class... _Types> inline
; 628  : 	_CONST_FUN const _Ty& get(const tuple<_Types...>& _Tuple) _NOEXCEPT
; 629  : 	{	// get const reference to _Ty element of tuple
; 630  : 	typedef typename _Tuple_element<_Ty, tuple<_Types...> >::_Ttype _Ttype;
; 631  : 	return (((_Ttype&)_Tuple)._Myfirst._Val);
; 632  : 	}
; 633  : 
; 634  : template<class _Ty,
; 635  : 	class... _Types> inline
; 636  : 	_CONST_FUN _Ty&& get(tuple<_Types...>&& _Tuple) _NOEXCEPT
; 637  : 	{	// get rvalue reference to _Ty element of tuple
; 638  : 	typedef typename _Tuple_element<_Ty, tuple<_Types...> >::_Ttype _Ttype;
; 639  : 	return (_STD forward<_Ty&&>(((_Ttype&)_Tuple)._Myfirst._Val));
; 640  : 	}
; 641  : 
; 642  : 	// TEMPLATE FUNCTION make_tuple
; 643  : template<class... _Types> inline
; 644  : 	_CONST_FUN tuple<typename _Unrefwrap<_Types>::type...>
; 645  : 		make_tuple(_Types&&... _Args)
; 646  : 	{	// make tuple from elements
; 647  : 	typedef tuple<typename _Unrefwrap<_Types>::type...> _Ttype;
; 648  : 	return (_Ttype(_STD forward<_Types>(_Args)...));
; 649  : 	}
; 650  : 
; 651  : 	// TEMPLATE FUNCTION tie
; 652  : template<class... _Types> inline
; 653  : 	_CONST_FUN tuple<_Types&...>
; 654  : 		tie(_Types&... _Args) _NOEXCEPT
; 655  : 	{	// make tuple from elements
; 656  : 	typedef tuple<_Types&...> _Ttype;
; 657  : 	return (_Ttype(_Args...));
; 658  : 	}
; 659  : 
; 660  : 
; 661  : 	// TEMPLATE FUNCTION forward_as_tuple
; 662  : 
; 663  : template<class... _Types> inline
; 664  : 	_CONST_FUN tuple<_Types&&...>
; 665  : 		forward_as_tuple(_Types&&... _Args) _NOEXCEPT
; 666  : 	{	// forward arguments in a tuple
; 667  : 	return (tuple<_Types&&...>(_STD forward<_Types>(_Args)...));
; 668  : 	}
; 669  : 
; 670  : 
; 671  : 	// TEMPLATE STRUCT _Cat_sequences
; 672  : template<class _Seq_type1,
; 673  : 	class _Seq_type2>
; 674  : 	struct _Cat_sequences;
; 675  : 
; 676  : template<size_t... _Indexes1,
; 677  : 	size_t... _Indexes2>
; 678  : 	struct _Cat_sequences<integer_sequence<size_t, _Indexes1...>,
; 679  : 		integer_sequence<size_t, _Indexes2...> >
; 680  : 	{	// concatenates two integer_sequence types
; 681  : 	typedef integer_sequence<size_t, _Indexes1..., _Indexes2...> type;
; 682  : 	};
; 683  : 
; 684  : 	// FORWARD DECLARATIONS
; 685  : template<class _Ty,
; 686  : 	size_t _Size>
; 687  : 	class array;
; 688  : 
; 689  : template<size_t _Idx,
; 690  : 	class _Ty,
; 691  : 	size_t _Size>
; 692  : 	_CONST_FUN _Ty& get(array<_Ty, _Size>& _Arr) _NOEXCEPT;
; 693  : 
; 694  : template<size_t _Idx,
; 695  : 	class _Ty,
; 696  : 	size_t _Size>
; 697  : 	_CONST_FUN const _Ty& get(const array<_Ty, _Size>& _Arr) _NOEXCEPT;
; 698  : 
; 699  : template<size_t _Idx,
; 700  : 	class _Ty,
; 701  : 	size_t _Size>
; 702  : 	_CONST_FUN _Ty&& get(array<_Ty, _Size>&& _Arr) _NOEXCEPT;
; 703  : 
; 704  : 	// TEMPLATE STRUCT _View_as_tuple
; 705  : template<class _Ty,
; 706  : 	class... _For_array>
; 707  : 	struct _View_as_tuple
; 708  : 	{	// tuple_cat() supports only tuples, pairs, and arrays
; 709  : 	static_assert(_Always_false<_Ty>::value,
; 710  : 		"Unsupported tuple_cat arguments.");
; 711  : 	};
; 712  : 
; 713  : template<class... _Types>
; 714  : 	struct _View_as_tuple<tuple<_Types...> >
; 715  : 	{	// view a tuple as a tuple
; 716  : 	typedef tuple<_Types...> type;
; 717  : 	};
; 718  : 
; 719  : template<class _Ty1,
; 720  : 	class _Ty2>
; 721  : 	struct _View_as_tuple<pair<_Ty1, _Ty2> >
; 722  : 	{	// view a pair as a tuple
; 723  : 	typedef tuple<_Ty1, _Ty2> type;
; 724  : 	};
; 725  : 
; 726  : template<class _Ty,
; 727  : 	class... _Types>
; 728  : 	struct _View_as_tuple<array<_Ty, 0>, _Types...>
; 729  : 	{	// view an array as a tuple; ends recursion at 0
; 730  : 	typedef tuple<_Types...> type;
; 731  : 	};
; 732  : 
; 733  : template<class _Ty,
; 734  : 	size_t _Size,
; 735  : 	class... _Types>
; 736  : 	struct _View_as_tuple<array<_Ty, _Size>, _Types...>
; 737  : 		: _View_as_tuple<array<_Ty, _Size - 1>, _Ty, _Types...>
; 738  : 	{	// view an array as a tuple; counts down to 0
; 739  : 	};
; 740  : 
; 741  : 	// TEMPLATE STRUCT _Repeat_for
; 742  : template<size_t _Nx,
; 743  : 	class _Ty>
; 744  : 	struct _Repeat_for
; 745  : 		: integral_constant<size_t, _Nx>
; 746  : 	{	// repeats _Nx for each _Ty in a parameter pack
; 747  : 	};
; 748  : 
; 749  : 	// TEMPLATE FUNCTION tuple_cat
; 750  : template<class _Ret,
; 751  : 	class _Kx_arg,
; 752  : 	class _Ix_arg,
; 753  : 	size_t _Ix_next,
; 754  : 	class... _Tuples>
; 755  : 	struct _Tuple_cat2
; 756  : 	{	// determine tuple_cat's return type and _Kx/_Ix indices
; 757  : 	static_assert(sizeof...(_Tuples) == 0,
; 758  : 		"Unsupported tuple_cat arguments.");
; 759  : 	typedef _Ret type;
; 760  : 	typedef _Kx_arg _Kx_arg_seq;
; 761  : 	typedef _Ix_arg _Ix_arg_seq;
; 762  : 	};
; 763  : 
; 764  : template<class... _Types1,
; 765  : 	class _Kx_arg,
; 766  : 	size_t... _Ix,
; 767  : 	size_t _Ix_next,
; 768  : 	class... _Types2,
; 769  : 	class... _Rest>
; 770  : 	struct _Tuple_cat2<tuple<_Types1...>, _Kx_arg,
; 771  : 		integer_sequence<size_t, _Ix...>, _Ix_next,
; 772  : 		tuple<_Types2...>, _Rest...>
; 773  : 		: _Tuple_cat2<
; 774  : 			tuple<_Types1..., _Types2...>,
; 775  : 			typename _Cat_sequences<_Kx_arg,
; 776  : 
; 777  : 				make_integer_sequence<size_t, sizeof...(_Types2)> >::type,
; 778  : 
; 779  : 			integer_sequence<size_t, _Ix...,
; 780  : 				_Repeat_for<_Ix_next, _Types2>::value...>,
; 781  : 			_Ix_next + 1,
; 782  : 			_Rest...>
; 783  : 	{	// determine tuple_cat's return type and _Kx/_Ix indices
; 784  : 	};
; 785  : 
; 786  : template<class... _Tuples>
; 787  : 	struct _Tuple_cat1
; 788  : 		: _Tuple_cat2<tuple<>, integer_sequence<size_t>,
; 789  : 				integer_sequence<size_t>, 0,
; 790  : 			typename _View_as_tuple<typename decay<_Tuples>::type>::type...>
; 791  : 	{	// prepare to determine tuple_cat's return type and _Kx/_Ix indices
; 792  : 	};
; 793  : 
; 794  : template<class _Ret,
; 795  : 	size_t... _Kx,
; 796  : 	size_t... _Ix,
; 797  : 	class _Ty> inline
; 798  : 	_CONST_FUN _Ret _Tuple_cat(integer_sequence<size_t, _Kx...>,
; 799  : 		integer_sequence<size_t, _Ix...>, _Ty&& _Arg)
; 800  : 	{	// concatenate tuples
; 801  : 	return (_Ret(_STD get<_Kx>(_STD get<_Ix>(_STD forward<_Ty>(_Arg)))...));
; 802  : 	}
; 803  : 
; 804  : template<class... _Tuples> inline
; 805  : 	_CONST_FUN typename _Tuple_cat1<_Tuples...>::type
; 806  : 		tuple_cat(_Tuples&&... _Tpls)
; 807  : 	{	// concatenate tuples
; 808  : 	typedef _Tuple_cat1<_Tuples...> _Cat1;
; 809  : 	return (_Tuple_cat<typename _Cat1::type>(
; 810  : 		typename _Cat1::_Kx_arg_seq(), typename _Cat1::_Ix_arg_seq(),
; 811  : 		_STD forward_as_tuple(_STD forward<_Tuples>(_Tpls)...)));
; 812  : 	}
; 813  : 
; 814  : 
; 815  : 
; 816  : 	// TEMPLATE CONSTRUCTOR pair::pair(tuple, tuple, sequence, sequence)
; 817  : template<class _Ty1,
; 818  : 	class _Ty2>
; 819  : 	template<class _Tuple1,
; 820  : 		class _Tuple2,
; 821  : 		size_t... _Indexes1,
; 822  : 		size_t... _Indexes2> inline
; 823  : 		pair<_Ty1, _Ty2>::pair(_Tuple1& _Val1,
; 824  : 			_Tuple2& _Val2,
; 825  : 			integer_sequence<size_t, _Indexes1...>,
; 826  : 			integer_sequence<size_t, _Indexes2...>)
; 827  : 		: first(_STD get<_Indexes1>(_STD move(_Val1))...),
; 828  : 			second(_STD get<_Indexes2>(_STD move(_Val2))...)

  00010	6a 00		 push	 0
  00012	8a 00		 mov	 al, BYTE PTR [eax]
  00014	88 06		 mov	 BYTE PTR [esi], al
  00016	8d 46 04	 lea	 eax, DWORD PTR [esi+4]
  00019	50		 push	 eax
  0001a	e8 00 00 00 00	 call	 _memset
  0001f	83 c4 0c	 add	 esp, 12			; 0000000cH

; 830  : 		}

  00022	8b c6		 mov	 eax, esi
  00024	5e		 pop	 esi
  00025	5d		 pop	 ebp
  00026	c2 10 00	 ret	 16			; 00000010H
??$?0V?$tuple@ABE@std@@V?$tuple@$$V@1@$0A@$$Z$S@?$pair@$$CBEUQUESTEX_GROUP_INFO@@@std@@QAE@AAV?$tuple@ABE@1@AAV?$tuple@$$V@1@U?$integer_sequence@I$0A@@1@U?$integer_sequence@I$S@1@@Z ENDP ; std::pair<unsigned char const ,QUESTEX_GROUP_INFO>::pair<unsigned char const ,QUESTEX_GROUP_INFO><std::tuple<unsigned char const &>,std::tuple<>,0>
_TEXT	ENDS
; Function compile flags: /Ogtp
; File c:\program files (x86)\microsoft visual studio 14.0\vc\include\tuple
;	COMDAT ??$?0ABE$$Z$$V@?$pair@$$CBEUQUESTEX_PROGRESS_GROUP@@@std@@QAE@Upiecewise_construct_t@1@V?$tuple@ABE@1@V?$tuple@$$V@1@@Z
_TEXT	SEGMENT
___formal$ = 8						; size = 1
__Val1$ = 12						; size = 4
__Val2$ = 16						; size = 1
??$?0ABE$$Z$$V@?$pair@$$CBEUQUESTEX_PROGRESS_GROUP@@@std@@QAE@Upiecewise_construct_t@1@V?$tuple@ABE@1@V?$tuple@$$V@1@@Z PROC ; std::pair<unsigned char const ,QUESTEX_PROGRESS_GROUP>::pair<unsigned char const ,QUESTEX_PROGRESS_GROUP><unsigned char const &>, COMDAT
; _this$ = ecx

; 843  : 		{	// construct from pair of tuples

  00000	55		 push	 ebp
  00001	8b ec		 mov	 ebp, esp

; 827  : 		: first(_STD get<_Indexes1>(_STD move(_Val1))...),

  00003	8b 45 0c	 mov	 eax, DWORD PTR __Val1$[ebp]
  00006	56		 push	 esi

; 843  : 		{	// construct from pair of tuples

  00007	8b f1		 mov	 esi, ecx

; 828  : 			second(_STD get<_Indexes2>(_STD move(_Val2))...)

  00009	68 ac 0f 00 00	 push	 4012			; 00000facH
  0000e	8a 00		 mov	 al, BYTE PTR [eax]
  00010	6a 00		 push	 0
  00012	88 06		 mov	 BYTE PTR [esi], al
  00014	8d 46 04	 lea	 eax, DWORD PTR [esi+4]
  00017	50		 push	 eax
  00018	e8 00 00 00 00	 call	 _memset
  0001d	83 c4 0c	 add	 esp, 12			; 0000000cH

; 844  : 		}

  00020	8b c6		 mov	 eax, esi
  00022	5e		 pop	 esi
  00023	5d		 pop	 ebp
  00024	c2 0c 00	 ret	 12			; 0000000cH
??$?0ABE$$Z$$V@?$pair@$$CBEUQUESTEX_PROGRESS_GROUP@@@std@@QAE@Upiecewise_construct_t@1@V?$tuple@ABE@1@V?$tuple@$$V@1@@Z ENDP ; std::pair<unsigned char const ,QUESTEX_PROGRESS_GROUP>::pair<unsigned char const ,QUESTEX_PROGRESS_GROUP><unsigned char const &>
_TEXT	ENDS
; Function compile flags: /Ogtp
; File c:\program files (x86)\microsoft visual studio 14.0\vc\include\tuple
;	COMDAT ??$?0ABE$$Z$$V@?$pair@$$CBEUQUESTEX_GROUP_INFO@@@std@@QAE@Upiecewise_construct_t@1@V?$tuple@ABE@1@V?$tuple@$$V@1@@Z
_TEXT	SEGMENT
___formal$ = 8						; size = 1
__Val1$ = 12						; size = 4
__Val2$ = 16						; size = 1
??$?0ABE$$Z$$V@?$pair@$$CBEUQUESTEX_GROUP_INFO@@@std@@QAE@Upiecewise_construct_t@1@V?$tuple@ABE@1@V?$tuple@$$V@1@@Z PROC ; std::pair<unsigned char const ,QUESTEX_GROUP_INFO>::pair<unsigned char const ,QUESTEX_GROUP_INFO><unsigned char const &>, COMDAT
; _this$ = ecx

; 843  : 		{	// construct from pair of tuples

  00000	55		 push	 ebp
  00001	8b ec		 mov	 ebp, esp

; 827  : 		: first(_STD get<_Indexes1>(_STD move(_Val1))...),

  00003	8b 45 0c	 mov	 eax, DWORD PTR __Val1$[ebp]
  00006	56		 push	 esi

; 843  : 		{	// construct from pair of tuples

  00007	8b f1		 mov	 esi, ecx

; 828  : 			second(_STD get<_Indexes2>(_STD move(_Val2))...)

  00009	68 04 69 00 00	 push	 26884			; 00006904H
  0000e	8a 00		 mov	 al, BYTE PTR [eax]
  00010	6a 00		 push	 0
  00012	88 06		 mov	 BYTE PTR [esi], al
  00014	8d 46 04	 lea	 eax, DWORD PTR [esi+4]
  00017	50		 push	 eax
  00018	e8 00 00 00 00	 call	 _memset
  0001d	83 c4 0c	 add	 esp, 12			; 0000000cH

; 844  : 		}

  00020	8b c6		 mov	 eax, esi
  00022	5e		 pop	 esi
  00023	5d		 pop	 ebp
  00024	c2 0c 00	 ret	 12			; 0000000cH
??$?0ABE$$Z$$V@?$pair@$$CBEUQUESTEX_GROUP_INFO@@@std@@QAE@Upiecewise_construct_t@1@V?$tuple@ABE@1@V?$tuple@$$V@1@@Z ENDP ; std::pair<unsigned char const ,QUESTEX_GROUP_INFO>::pair<unsigned char const ,QUESTEX_GROUP_INFO><unsigned char const &>
_TEXT	ENDS
; Function compile flags: /Ogtp
; File c:\program files (x86)\microsoft visual studio 14.0\vc\include\type_traits
;	COMDAT ??$forward@AAV?$_Tree_iterator@V?$_Tree_val@U?$_Tree_simple_types@U?$pair@$$CBEUQUESTEX_PROGRESS_GROUP@@@std@@@std@@@std@@@std@@@std@@YAAAV?$_Tree_iterator@V?$_Tree_val@U?$_Tree_simple_types@U?$pair@$$CBEUQUESTEX_PROGRESS_GROUP@@@std@@@std@@@std@@@0@AAV10@@Z
_TEXT	SEGMENT
__Arg$ = 8						; size = 4
??$forward@AAV?$_Tree_iterator@V?$_Tree_val@U?$_Tree_simple_types@U?$pair@$$CBEUQUESTEX_PROGRESS_GROUP@@@std@@@std@@@std@@@std@@@std@@YAAAV?$_Tree_iterator@V?$_Tree_val@U?$_Tree_simple_types@U?$pair@$$CBEUQUESTEX_PROGRESS_GROUP@@@std@@@std@@@std@@@0@AAV10@@Z PROC ; std::forward<std::_Tree_iterator<std::_Tree_val<std::_Tree_simple_types<std::pair<unsigned char const ,QUESTEX_PROGRESS_GROUP> > > > &>, COMDAT

; 1233 : 	{	// forward an lvalue as either an lvalue or an rvalue

  00000	55		 push	 ebp
  00001	8b ec		 mov	 ebp, esp

; 1234 : 	return (static_cast<_Ty&&>(_Arg));

  00003	8b 45 08	 mov	 eax, DWORD PTR __Arg$[ebp]

; 1235 : 	}

  00006	5d		 pop	 ebp
  00007	c3		 ret	 0
??$forward@AAV?$_Tree_iterator@V?$_Tree_val@U?$_Tree_simple_types@U?$pair@$$CBEUQUESTEX_PROGRESS_GROUP@@@std@@@std@@@std@@@std@@@std@@YAAAV?$_Tree_iterator@V?$_Tree_val@U?$_Tree_simple_types@U?$pair@$$CBEUQUESTEX_PROGRESS_GROUP@@@std@@@std@@@std@@@0@AAV10@@Z ENDP ; std::forward<std::_Tree_iterator<std::_Tree_val<std::_Tree_simple_types<std::pair<unsigned char const ,QUESTEX_PROGRESS_GROUP> > > > &>
_TEXT	ENDS
; Function compile flags: /Ogtp
; File c:\program files (x86)\microsoft visual studio 14.0\vc\include\type_traits
;	COMDAT ??$forward@V?$_Tree_iterator@V?$_Tree_val@U?$_Tree_simple_types@U?$pair@$$CBEUQUESTEX_PROGRESS_GROUP@@@std@@@std@@@std@@@std@@@std@@YA$$QAV?$_Tree_iterator@V?$_Tree_val@U?$_Tree_simple_types@U?$pair@$$CBEUQUESTEX_PROGRESS_GROUP@@@std@@@std@@@std@@@0@AAV10@@Z
_TEXT	SEGMENT
__Arg$ = 8						; size = 4
??$forward@V?$_Tree_iterator@V?$_Tree_val@U?$_Tree_simple_types@U?$pair@$$CBEUQUESTEX_PROGRESS_GROUP@@@std@@@std@@@std@@@std@@@std@@YA$$QAV?$_Tree_iterator@V?$_Tree_val@U?$_Tree_simple_types@U?$pair@$$CBEUQUESTEX_PROGRESS_GROUP@@@std@@@std@@@std@@@0@AAV10@@Z PROC ; std::forward<std::_Tree_iterator<std::_Tree_val<std::_Tree_simple_types<std::pair<unsigned char const ,QUESTEX_PROGRESS_GROUP> > > > >, COMDAT

; 1233 : 	{	// forward an lvalue as either an lvalue or an rvalue

  00000	55		 push	 ebp
  00001	8b ec		 mov	 ebp, esp

; 1234 : 	return (static_cast<_Ty&&>(_Arg));

  00003	8b 45 08	 mov	 eax, DWORD PTR __Arg$[ebp]

; 1235 : 	}

  00006	5d		 pop	 ebp
  00007	c3		 ret	 0
??$forward@V?$_Tree_iterator@V?$_Tree_val@U?$_Tree_simple_types@U?$pair@$$CBEUQUESTEX_PROGRESS_GROUP@@@std@@@std@@@std@@@std@@@std@@YA$$QAV?$_Tree_iterator@V?$_Tree_val@U?$_Tree_simple_types@U?$pair@$$CBEUQUESTEX_PROGRESS_GROUP@@@std@@@std@@@std@@@0@AAV10@@Z ENDP ; std::forward<std::_Tree_iterator<std::_Tree_val<std::_Tree_simple_types<std::pair<unsigned char const ,QUESTEX_PROGRESS_GROUP> > > > >
_TEXT	ENDS
; Function compile flags: /Ogtp
; File c:\program files (x86)\microsoft visual studio 14.0\vc\include\xmemory0
; File c:\users\michel\desktop\source\gameserver\source\questinfo.cpp
; File c:\program files (x86)\microsoft visual studio 14.0\vc\include\tuple
; File c:\users\michel\desktop\source\gameserver\source\questinfo.cpp
; File c:\program files (x86)\microsoft visual studio 14.0\vc\include\tuple
; File c:\program files (x86)\microsoft visual studio 14.0\vc\include\xmemory0
;	COMDAT ??$construct@U?$pair@$$CBEUQUESTEX_PROGRESS_GROUP@@@std@@ABUpiecewise_construct_t@2@V?$tuple@ABE@2@V?$tuple@$$V@2@@?$allocator@U?$_Tree_node@U?$pair@$$CBEUQUESTEX_PROGRESS_GROUP@@@std@@PAX@std@@@std@@QAEXPAU?$pair@$$CBEUQUESTEX_PROGRESS_GROUP@@@1@ABUpiecewise_construct_t@1@$$QAV?$tuple@ABE@1@$$QAV?$tuple@$$V@1@@Z
_TEXT	SEGMENT
__Ptr$ = 8						; size = 4
_<_Args_0>$ = 12					; size = 4
_<_Args_1>$ = 16					; size = 4
_<_Args_2>$ = 20					; size = 4
??$construct@U?$pair@$$CBEUQUESTEX_PROGRESS_GROUP@@@std@@ABUpiecewise_construct_t@2@V?$tuple@ABE@2@V?$tuple@$$V@2@@?$allocator@U?$_Tree_node@U?$pair@$$CBEUQUESTEX_PROGRESS_GROUP@@@std@@PAX@std@@@std@@QAEXPAU?$pair@$$CBEUQUESTEX_PROGRESS_GROUP@@@1@ABUpiecewise_construct_t@1@$$QAV?$tuple@ABE@1@$$QAV?$tuple@$$V@1@@Z PROC ; std::allocator<std::_Tree_node<std::pair<unsigned char const ,QUESTEX_PROGRESS_GROUP>,void *> >::construct<std::pair<unsigned char const ,QUESTEX_PROGRESS_GROUP>,std::piecewise_construct_t const &,std::tuple<unsigned char const &>,std::tuple<> >, COMDAT
; _this$ = ecx

; 654  : 		{	// construct _Objty(_Types...) at _Ptr

  00000	55		 push	 ebp
  00001	8b ec		 mov	 ebp, esp

; 655  : 		::new ((void *)_Ptr) _Objty(_STD forward<_Types>(_Args)...);

  00003	8b 4d 08	 mov	 ecx, DWORD PTR __Ptr$[ebp]
  00006	85 c9		 test	 ecx, ecx
  00008	74 1c		 je	 SHORT $LN3@construct
; File c:\users\michel\desktop\source\gameserver\source\questinfo.cpp

  0000a	8b 45 10	 mov	 eax, DWORD PTR _<_Args_1>$[ebp]
; File c:\program files (x86)\microsoft visual studio 14.0\vc\include\tuple

; 828  : 			second(_STD get<_Indexes2>(_STD move(_Val2))...)

  0000d	68 ac 0f 00 00	 push	 4012			; 00000facH
  00012	6a 00		 push	 0
; File c:\users\michel\desktop\source\gameserver\source\questinfo.cpp

  00014	8b 00		 mov	 eax, DWORD PTR [eax]
; File c:\program files (x86)\microsoft visual studio 14.0\vc\include\tuple

; 827  : 		: first(_STD get<_Indexes1>(_STD move(_Val1))...),

  00016	8a 00		 mov	 al, BYTE PTR [eax]
  00018	88 01		 mov	 BYTE PTR [ecx], al

; 828  : 			second(_STD get<_Indexes2>(_STD move(_Val2))...)

  0001a	8d 41 04	 lea	 eax, DWORD PTR [ecx+4]
  0001d	50		 push	 eax
  0001e	e8 00 00 00 00	 call	 _memset
  00023	83 c4 0c	 add	 esp, 12			; 0000000cH
$LN3@construct:
; File c:\program files (x86)\microsoft visual studio 14.0\vc\include\xmemory0

; 656  : 		}

  00026	5d		 pop	 ebp
  00027	c2 10 00	 ret	 16			; 00000010H
??$construct@U?$pair@$$CBEUQUESTEX_PROGRESS_GROUP@@@std@@ABUpiecewise_construct_t@2@V?$tuple@ABE@2@V?$tuple@$$V@2@@?$allocator@U?$_Tree_node@U?$pair@$$CBEUQUESTEX_PROGRESS_GROUP@@@std@@PAX@std@@@std@@QAEXPAU?$pair@$$CBEUQUESTEX_PROGRESS_GROUP@@@1@ABUpiecewise_construct_t@1@$$QAV?$tuple@ABE@1@$$QAV?$tuple@$$V@1@@Z ENDP ; std::allocator<std::_Tree_node<std::pair<unsigned char const ,QUESTEX_PROGRESS_GROUP>,void *> >::construct<std::pair<unsigned char const ,QUESTEX_PROGRESS_GROUP>,std::piecewise_construct_t const &,std::tuple<unsigned char const &>,std::tuple<> >
_TEXT	ENDS
; Function compile flags: /Ogtp
; File c:\program files (x86)\microsoft visual studio 14.0\vc\include\type_traits
;	COMDAT ??$forward@AAV?$_Tree_iterator@V?$_Tree_val@U?$_Tree_simple_types@U?$pair@$$CBEUQUESTEX_GROUP_INFO@@@std@@@std@@@std@@@std@@@std@@YAAAV?$_Tree_iterator@V?$_Tree_val@U?$_Tree_simple_types@U?$pair@$$CBEUQUESTEX_GROUP_INFO@@@std@@@std@@@std@@@0@AAV10@@Z
_TEXT	SEGMENT
__Arg$ = 8						; size = 4
??$forward@AAV?$_Tree_iterator@V?$_Tree_val@U?$_Tree_simple_types@U?$pair@$$CBEUQUESTEX_GROUP_INFO@@@std@@@std@@@std@@@std@@@std@@YAAAV?$_Tree_iterator@V?$_Tree_val@U?$_Tree_simple_types@U?$pair@$$CBEUQUESTEX_GROUP_INFO@@@std@@@std@@@std@@@0@AAV10@@Z PROC ; std::forward<std::_Tree_iterator<std::_Tree_val<std::_Tree_simple_types<std::pair<unsigned char const ,QUESTEX_GROUP_INFO> > > > &>, COMDAT

; 1233 : 	{	// forward an lvalue as either an lvalue or an rvalue

  00000	55		 push	 ebp
  00001	8b ec		 mov	 ebp, esp

; 1234 : 	return (static_cast<_Ty&&>(_Arg));

  00003	8b 45 08	 mov	 eax, DWORD PTR __Arg$[ebp]

; 1235 : 	}

  00006	5d		 pop	 ebp
  00007	c3		 ret	 0
??$forward@AAV?$_Tree_iterator@V?$_Tree_val@U?$_Tree_simple_types@U?$pair@$$CBEUQUESTEX_GROUP_INFO@@@std@@@std@@@std@@@std@@@std@@YAAAV?$_Tree_iterator@V?$_Tree_val@U?$_Tree_simple_types@U?$pair@$$CBEUQUESTEX_GROUP_INFO@@@std@@@std@@@std@@@0@AAV10@@Z ENDP ; std::forward<std::_Tree_iterator<std::_Tree_val<std::_Tree_simple_types<std::pair<unsigned char const ,QUESTEX_GROUP_INFO> > > > &>
_TEXT	ENDS
; Function compile flags: /Ogtp
; File c:\program files (x86)\microsoft visual studio 14.0\vc\include\type_traits
;	COMDAT ??$forward@_N@std@@YA$$QA_NAA_N@Z
_TEXT	SEGMENT
__Arg$ = 8						; size = 4
??$forward@_N@std@@YA$$QA_NAA_N@Z PROC			; std::forward<bool>, COMDAT

; 1233 : 	{	// forward an lvalue as either an lvalue or an rvalue

  00000	55		 push	 ebp
  00001	8b ec		 mov	 ebp, esp

; 1234 : 	return (static_cast<_Ty&&>(_Arg));

  00003	8b 45 08	 mov	 eax, DWORD PTR __Arg$[ebp]

; 1235 : 	}

  00006	5d		 pop	 ebp
  00007	c3		 ret	 0
??$forward@_N@std@@YA$$QA_NAA_N@Z ENDP			; std::forward<bool>
_TEXT	ENDS
; Function compile flags: /Ogtp
; File c:\program files (x86)\microsoft visual studio 14.0\vc\include\type_traits
;	COMDAT ??$forward@V?$_Tree_iterator@V?$_Tree_val@U?$_Tree_simple_types@U?$pair@$$CBEUQUESTEX_GROUP_INFO@@@std@@@std@@@std@@@std@@@std@@YA$$QAV?$_Tree_iterator@V?$_Tree_val@U?$_Tree_simple_types@U?$pair@$$CBEUQUESTEX_GROUP_INFO@@@std@@@std@@@std@@@0@AAV10@@Z
_TEXT	SEGMENT
__Arg$ = 8						; size = 4
??$forward@V?$_Tree_iterator@V?$_Tree_val@U?$_Tree_simple_types@U?$pair@$$CBEUQUESTEX_GROUP_INFO@@@std@@@std@@@std@@@std@@@std@@YA$$QAV?$_Tree_iterator@V?$_Tree_val@U?$_Tree_simple_types@U?$pair@$$CBEUQUESTEX_GROUP_INFO@@@std@@@std@@@std@@@0@AAV10@@Z PROC ; std::forward<std::_Tree_iterator<std::_Tree_val<std::_Tree_simple_types<std::pair<unsigned char const ,QUESTEX_GROUP_INFO> > > > >, COMDAT

; 1233 : 	{	// forward an lvalue as either an lvalue or an rvalue

  00000	55		 push	 ebp
  00001	8b ec		 mov	 ebp, esp

; 1234 : 	return (static_cast<_Ty&&>(_Arg));

  00003	8b 45 08	 mov	 eax, DWORD PTR __Arg$[ebp]

; 1235 : 	}

  00006	5d		 pop	 ebp
  00007	c3		 ret	 0
??$forward@V?$_Tree_iterator@V?$_Tree_val@U?$_Tree_simple_types@U?$pair@$$CBEUQUESTEX_GROUP_INFO@@@std@@@std@@@std@@@std@@@std@@YA$$QAV?$_Tree_iterator@V?$_Tree_val@U?$_Tree_simple_types@U?$pair@$$CBEUQUESTEX_GROUP_INFO@@@std@@@std@@@std@@@0@AAV10@@Z ENDP ; std::forward<std::_Tree_iterator<std::_Tree_val<std::_Tree_simple_types<std::pair<unsigned char const ,QUESTEX_GROUP_INFO> > > > >
_TEXT	ENDS
; Function compile flags: /Ogtp
; File c:\program files (x86)\microsoft visual studio 14.0\vc\include\xmemory0
; File c:\users\michel\desktop\source\gameserver\source\questinfo.cpp
; File c:\program files (x86)\microsoft visual studio 14.0\vc\include\tuple
; File c:\users\michel\desktop\source\gameserver\source\questinfo.cpp
; File c:\program files (x86)\microsoft visual studio 14.0\vc\include\tuple
; File c:\program files (x86)\microsoft visual studio 14.0\vc\include\xmemory0
;	COMDAT ??$construct@U?$pair@$$CBEUQUESTEX_GROUP_INFO@@@std@@ABUpiecewise_construct_t@2@V?$tuple@ABE@2@V?$tuple@$$V@2@@?$allocator@U?$_Tree_node@U?$pair@$$CBEUQUESTEX_GROUP_INFO@@@std@@PAX@std@@@std@@QAEXPAU?$pair@$$CBEUQUESTEX_GROUP_INFO@@@1@ABUpiecewise_construct_t@1@$$QAV?$tuple@ABE@1@$$QAV?$tuple@$$V@1@@Z
_TEXT	SEGMENT
__Ptr$ = 8						; size = 4
_<_Args_0>$ = 12					; size = 4
_<_Args_1>$ = 16					; size = 4
_<_Args_2>$ = 20					; size = 4
??$construct@U?$pair@$$CBEUQUESTEX_GROUP_INFO@@@std@@ABUpiecewise_construct_t@2@V?$tuple@ABE@2@V?$tuple@$$V@2@@?$allocator@U?$_Tree_node@U?$pair@$$CBEUQUESTEX_GROUP_INFO@@@std@@PAX@std@@@std@@QAEXPAU?$pair@$$CBEUQUESTEX_GROUP_INFO@@@1@ABUpiecewise_construct_t@1@$$QAV?$tuple@ABE@1@$$QAV?$tuple@$$V@1@@Z PROC ; std::allocator<std::_Tree_node<std::pair<unsigned char const ,QUESTEX_GROUP_INFO>,void *> >::construct<std::pair<unsigned char const ,QUESTEX_GROUP_INFO>,std::piecewise_construct_t const &,std::tuple<unsigned char const &>,std::tuple<> >, COMDAT
; _this$ = ecx

; 654  : 		{	// construct _Objty(_Types...) at _Ptr

  00000	55		 push	 ebp
  00001	8b ec		 mov	 ebp, esp

; 655  : 		::new ((void *)_Ptr) _Objty(_STD forward<_Types>(_Args)...);

  00003	8b 4d 08	 mov	 ecx, DWORD PTR __Ptr$[ebp]
  00006	85 c9		 test	 ecx, ecx
  00008	74 1c		 je	 SHORT $LN3@construct
; File c:\users\michel\desktop\source\gameserver\source\questinfo.cpp

  0000a	8b 45 10	 mov	 eax, DWORD PTR _<_Args_1>$[ebp]
; File c:\program files (x86)\microsoft visual studio 14.0\vc\include\tuple

; 828  : 			second(_STD get<_Indexes2>(_STD move(_Val2))...)

  0000d	68 04 69 00 00	 push	 26884			; 00006904H
  00012	6a 00		 push	 0
; File c:\users\michel\desktop\source\gameserver\source\questinfo.cpp

  00014	8b 00		 mov	 eax, DWORD PTR [eax]
; File c:\program files (x86)\microsoft visual studio 14.0\vc\include\tuple

; 827  : 		: first(_STD get<_Indexes1>(_STD move(_Val1))...),

  00016	8a 00		 mov	 al, BYTE PTR [eax]
  00018	88 01		 mov	 BYTE PTR [ecx], al

; 828  : 			second(_STD get<_Indexes2>(_STD move(_Val2))...)

  0001a	8d 41 04	 lea	 eax, DWORD PTR [ecx+4]
  0001d	50		 push	 eax
  0001e	e8 00 00 00 00	 call	 _memset
  00023	83 c4 0c	 add	 esp, 12			; 0000000cH
$LN3@construct:
; File c:\program files (x86)\microsoft visual studio 14.0\vc\include\xmemory0

; 656  : 		}

  00026	5d		 pop	 ebp
  00027	c2 10 00	 ret	 16			; 00000010H
??$construct@U?$pair@$$CBEUQUESTEX_GROUP_INFO@@@std@@ABUpiecewise_construct_t@2@V?$tuple@ABE@2@V?$tuple@$$V@2@@?$allocator@U?$_Tree_node@U?$pair@$$CBEUQUESTEX_GROUP_INFO@@@std@@PAX@std@@@std@@QAEXPAU?$pair@$$CBEUQUESTEX_GROUP_INFO@@@1@ABUpiecewise_construct_t@1@$$QAV?$tuple@ABE@1@$$QAV?$tuple@$$V@1@@Z ENDP ; std::allocator<std::_Tree_node<std::pair<unsigned char const ,QUESTEX_GROUP_INFO>,void *> >::construct<std::pair<unsigned char const ,QUESTEX_GROUP_INFO>,std::piecewise_construct_t const &,std::tuple<unsigned char const &>,std::tuple<> >
_TEXT	ENDS
; Function compile flags: /Ogtp
; File c:\program files (x86)\microsoft visual studio 14.0\vc\include\utility
;	COMDAT ??$?0AAV?$_Tree_iterator@V?$_Tree_val@U?$_Tree_simple_types@U?$pair@$$CBEUQUESTEX_PROGRESS_GROUP@@@std@@@std@@@std@@@std@@_NX@?$pair@V?$_Tree_iterator@V?$_Tree_val@U?$_Tree_simple_types@U?$pair@$$CBEUQUESTEX_PROGRESS_GROUP@@@std@@@std@@@std@@@std@@_N@std@@QAE@AAV?$_Tree_iterator@V?$_Tree_val@U?$_Tree_simple_types@U?$pair@$$CBEUQUESTEX_PROGRESS_GROUP@@@std@@@std@@@std@@@1@$$QA_N@Z
_TEXT	SEGMENT
__Val1$ = 8						; size = 4
__Val2$ = 12						; size = 4
??$?0AAV?$_Tree_iterator@V?$_Tree_val@U?$_Tree_simple_types@U?$pair@$$CBEUQUESTEX_PROGRESS_GROUP@@@std@@@std@@@std@@@std@@_NX@?$pair@V?$_Tree_iterator@V?$_Tree_val@U?$_Tree_simple_types@U?$pair@$$CBEUQUESTEX_PROGRESS_GROUP@@@std@@@std@@@std@@@std@@_N@std@@QAE@AAV?$_Tree_iterator@V?$_Tree_val@U?$_Tree_simple_types@U?$pair@$$CBEUQUESTEX_PROGRESS_GROUP@@@std@@@std@@@std@@@1@$$QA_N@Z PROC ; std::pair<std::_Tree_iterator<std::_Tree_val<std::_Tree_simple_types<std::pair<unsigned char const ,QUESTEX_PROGRESS_GROUP> > > >,bool>::pair<std::_Tree_iterator<std::_Tree_val<std::_Tree_simple_types<std::pair<unsigned char const ,QUESTEX_PROGRESS_GROUP> > > >,bool><std::_Tree_iterator<std::_Tree_val<std::_Tree_simple_types<std::pair<unsigned char const ,QUESTEX_PROGRESS_GROUP> > > > &,bool,void>, COMDAT
; _this$ = ecx

; 145  : 		{	// construct from moved values

  00000	55		 push	 ebp
  00001	8b ec		 mov	 ebp, esp

; 143  : 		: first(_STD forward<_Other1>(_Val1)),

  00003	8b 45 08	 mov	 eax, DWORD PTR __Val1$[ebp]
  00006	8b 00		 mov	 eax, DWORD PTR [eax]
  00008	89 01		 mov	 DWORD PTR [ecx], eax

; 144  : 				second(_STD forward<_Other2>(_Val2))

  0000a	8b 45 0c	 mov	 eax, DWORD PTR __Val2$[ebp]
  0000d	8a 00		 mov	 al, BYTE PTR [eax]
  0000f	88 41 04	 mov	 BYTE PTR [ecx+4], al

; 146  : 		}

  00012	8b c1		 mov	 eax, ecx
  00014	5d		 pop	 ebp
  00015	c2 08 00	 ret	 8
??$?0AAV?$_Tree_iterator@V?$_Tree_val@U?$_Tree_simple_types@U?$pair@$$CBEUQUESTEX_PROGRESS_GROUP@@@std@@@std@@@std@@@std@@_NX@?$pair@V?$_Tree_iterator@V?$_Tree_val@U?$_Tree_simple_types@U?$pair@$$CBEUQUESTEX_PROGRESS_GROUP@@@std@@@std@@@std@@@std@@_N@std@@QAE@AAV?$_Tree_iterator@V?$_Tree_val@U?$_Tree_simple_types@U?$pair@$$CBEUQUESTEX_PROGRESS_GROUP@@@std@@@std@@@std@@@1@$$QA_N@Z ENDP ; std::pair<std::_Tree_iterator<std::_Tree_val<std::_Tree_simple_types<std::pair<unsigned char const ,QUESTEX_PROGRESS_GROUP> > > >,bool>::pair<std::_Tree_iterator<std::_Tree_val<std::_Tree_simple_types<std::pair<unsigned char const ,QUESTEX_PROGRESS_GROUP> > > >,bool><std::_Tree_iterator<std::_Tree_val<std::_Tree_simple_types<std::pair<unsigned char const ,QUESTEX_PROGRESS_GROUP> > > > &,bool,void>
_TEXT	ENDS
; Function compile flags: /Ogtp
; File c:\program files (x86)\microsoft visual studio 14.0\vc\include\utility
;	COMDAT ??$?0V?$_Tree_iterator@V?$_Tree_val@U?$_Tree_simple_types@U?$pair@$$CBEUQUESTEX_PROGRESS_GROUP@@@std@@@std@@@std@@@std@@_NX@?$pair@V?$_Tree_iterator@V?$_Tree_val@U?$_Tree_simple_types@U?$pair@$$CBEUQUESTEX_PROGRESS_GROUP@@@std@@@std@@@std@@@std@@_N@std@@QAE@$$QAV?$_Tree_iterator@V?$_Tree_val@U?$_Tree_simple_types@U?$pair@$$CBEUQUESTEX_PROGRESS_GROUP@@@std@@@std@@@std@@@1@$$QA_N@Z
_TEXT	SEGMENT
__Val1$ = 8						; size = 4
__Val2$ = 12						; size = 4
??$?0V?$_Tree_iterator@V?$_Tree_val@U?$_Tree_simple_types@U?$pair@$$CBEUQUESTEX_PROGRESS_GROUP@@@std@@@std@@@std@@@std@@_NX@?$pair@V?$_Tree_iterator@V?$_Tree_val@U?$_Tree_simple_types@U?$pair@$$CBEUQUESTEX_PROGRESS_GROUP@@@std@@@std@@@std@@@std@@_N@std@@QAE@$$QAV?$_Tree_iterator@V?$_Tree_val@U?$_Tree_simple_types@U?$pair@$$CBEUQUESTEX_PROGRESS_GROUP@@@std@@@std@@@std@@@1@$$QA_N@Z PROC ; std::pair<std::_Tree_iterator<std::_Tree_val<std::_Tree_simple_types<std::pair<unsigned char const ,QUESTEX_PROGRESS_GROUP> > > >,bool>::pair<std::_Tree_iterator<std::_Tree_val<std::_Tree_simple_types<std::pair<unsigned char const ,QUESTEX_PROGRESS_GROUP> > > >,bool><std::_Tree_iterator<std::_Tree_val<std::_Tree_simple_types<std::pair<unsigned char const ,QUESTEX_PROGRESS_GROUP> > > >,bool,void>, COMDAT
; _this$ = ecx

; 145  : 		{	// construct from moved values

  00000	55		 push	 ebp
  00001	8b ec		 mov	 ebp, esp

; 143  : 		: first(_STD forward<_Other1>(_Val1)),

  00003	8b 45 08	 mov	 eax, DWORD PTR __Val1$[ebp]
  00006	8b 00		 mov	 eax, DWORD PTR [eax]
  00008	89 01		 mov	 DWORD PTR [ecx], eax

; 144  : 				second(_STD forward<_Other2>(_Val2))

  0000a	8b 45 0c	 mov	 eax, DWORD PTR __Val2$[ebp]
  0000d	8a 00		 mov	 al, BYTE PTR [eax]
  0000f	88 41 04	 mov	 BYTE PTR [ecx+4], al

; 146  : 		}

  00012	8b c1		 mov	 eax, ecx
  00014	5d		 pop	 ebp
  00015	c2 08 00	 ret	 8
??$?0V?$_Tree_iterator@V?$_Tree_val@U?$_Tree_simple_types@U?$pair@$$CBEUQUESTEX_PROGRESS_GROUP@@@std@@@std@@@std@@@std@@_NX@?$pair@V?$_Tree_iterator@V?$_Tree_val@U?$_Tree_simple_types@U?$pair@$$CBEUQUESTEX_PROGRESS_GROUP@@@std@@@std@@@std@@@std@@_N@std@@QAE@$$QAV?$_Tree_iterator@V?$_Tree_val@U?$_Tree_simple_types@U?$pair@$$CBEUQUESTEX_PROGRESS_GROUP@@@std@@@std@@@std@@@1@$$QA_N@Z ENDP ; std::pair<std::_Tree_iterator<std::_Tree_val<std::_Tree_simple_types<std::pair<unsigned char const ,QUESTEX_PROGRESS_GROUP> > > >,bool>::pair<std::_Tree_iterator<std::_Tree_val<std::_Tree_simple_types<std::pair<unsigned char const ,QUESTEX_PROGRESS_GROUP> > > >,bool><std::_Tree_iterator<std::_Tree_val<std::_Tree_simple_types<std::pair<unsigned char const ,QUESTEX_PROGRESS_GROUP> > > >,bool,void>
_TEXT	ENDS
; Function compile flags: /Ogtp
; File c:\program files (x86)\microsoft visual studio 14.0\vc\include\xtree
;	COMDAT ??$_Buynode_if_nil@AAU?$pair@$$CBEUQUESTEX_PROGRESS_GROUP@@@std@@@?$_Tree@V?$_Tmap_traits@EUQUESTEX_PROGRESS_GROUP@@U?$less@E@std@@V?$allocator@U?$pair@$$CBEUQUESTEX_PROGRESS_GROUP@@@std@@@3@$0A@@std@@@std@@IAEPAU?$_Tree_node@U?$pair@$$CBEUQUESTEX_PROGRESS_GROUP@@@std@@PAX@1@PAU21@AAU?$pair@$$CBEUQUESTEX_PROGRESS_GROUP@@@1@@Z
_TEXT	SEGMENT
__Node$ = 8						; size = 4
___formal$ = 12						; size = 4
??$_Buynode_if_nil@AAU?$pair@$$CBEUQUESTEX_PROGRESS_GROUP@@@std@@@?$_Tree@V?$_Tmap_traits@EUQUESTEX_PROGRESS_GROUP@@U?$less@E@std@@V?$allocator@U?$pair@$$CBEUQUESTEX_PROGRESS_GROUP@@@std@@@3@$0A@@std@@@std@@IAEPAU?$_Tree_node@U?$pair@$$CBEUQUESTEX_PROGRESS_GROUP@@@std@@PAX@1@PAU21@AAU?$pair@$$CBEUQUESTEX_PROGRESS_GROUP@@@1@@Z PROC ; std::_Tree<std::_Tmap_traits<unsigned char,QUESTEX_PROGRESS_GROUP,std::less<unsigned char>,std::allocator<std::pair<unsigned char const ,QUESTEX_PROGRESS_GROUP> >,0> >::_Buynode_if_nil<std::pair<unsigned char const ,QUESTEX_PROGRESS_GROUP> &>, COMDAT
; _this$ = ecx

; 1657 : 		{	// node exists, just return it

  00000	55		 push	 ebp
  00001	8b ec		 mov	 ebp, esp

; 1658 : 		return (_Node);

  00003	8b 45 08	 mov	 eax, DWORD PTR __Node$[ebp]

; 1659 : 		}

  00006	5d		 pop	 ebp
  00007	c2 08 00	 ret	 8
??$_Buynode_if_nil@AAU?$pair@$$CBEUQUESTEX_PROGRESS_GROUP@@@std@@@?$_Tree@V?$_Tmap_traits@EUQUESTEX_PROGRESS_GROUP@@U?$less@E@std@@V?$allocator@U?$pair@$$CBEUQUESTEX_PROGRESS_GROUP@@@std@@@3@$0A@@std@@@std@@IAEPAU?$_Tree_node@U?$pair@$$CBEUQUESTEX_PROGRESS_GROUP@@@std@@PAX@1@PAU21@AAU?$pair@$$CBEUQUESTEX_PROGRESS_GROUP@@@1@@Z ENDP ; std::_Tree<std::_Tmap_traits<unsigned char,QUESTEX_PROGRESS_GROUP,std::less<unsigned char>,std::allocator<std::pair<unsigned char const ,QUESTEX_PROGRESS_GROUP> >,0> >::_Buynode_if_nil<std::pair<unsigned char const ,QUESTEX_PROGRESS_GROUP> &>
_TEXT	ENDS
; Function compile flags: /Ogtp
; File c:\program files (x86)\microsoft visual studio 14.0\vc\include\xmemory0
; File c:\users\michel\desktop\source\gameserver\source\questinfo.cpp
; File c:\program files (x86)\microsoft visual studio 14.0\vc\include\tuple
; File c:\users\michel\desktop\source\gameserver\source\questinfo.cpp
; File c:\program files (x86)\microsoft visual studio 14.0\vc\include\tuple
; File c:\program files (x86)\microsoft visual studio 14.0\vc\include\xmemory0
;	COMDAT ??$construct@U?$pair@$$CBEUQUESTEX_PROGRESS_GROUP@@@std@@ABUpiecewise_construct_t@2@V?$tuple@ABE@2@V?$tuple@$$V@2@@?$allocator_traits@V?$allocator@U?$_Tree_node@U?$pair@$$CBEUQUESTEX_PROGRESS_GROUP@@@std@@PAX@std@@@std@@@std@@SAXAAV?$allocator@U?$_Tree_node@U?$pair@$$CBEUQUESTEX_PROGRESS_GROUP@@@std@@PAX@std@@@1@PAU?$pair@$$CBEUQUESTEX_PROGRESS_GROUP@@@1@ABUpiecewise_construct_t@1@$$QAV?$tuple@ABE@1@$$QAV?$tuple@$$V@1@@Z
_TEXT	SEGMENT
__Al$ = 8						; size = 4
__Ptr$ = 12						; size = 4
_<_Args_0>$ = 16					; size = 4
_<_Args_1>$ = 20					; size = 4
_<_Args_2>$ = 24					; size = 4
??$construct@U?$pair@$$CBEUQUESTEX_PROGRESS_GROUP@@@std@@ABUpiecewise_construct_t@2@V?$tuple@ABE@2@V?$tuple@$$V@2@@?$allocator_traits@V?$allocator@U?$_Tree_node@U?$pair@$$CBEUQUESTEX_PROGRESS_GROUP@@@std@@PAX@std@@@std@@@std@@SAXAAV?$allocator@U?$_Tree_node@U?$pair@$$CBEUQUESTEX_PROGRESS_GROUP@@@std@@PAX@std@@@1@PAU?$pair@$$CBEUQUESTEX_PROGRESS_GROUP@@@1@ABUpiecewise_construct_t@1@$$QAV?$tuple@ABE@1@$$QAV?$tuple@$$V@1@@Z PROC ; std::allocator_traits<std::allocator<std::_Tree_node<std::pair<unsigned char const ,QUESTEX_PROGRESS_GROUP>,void *> > >::construct<std::pair<unsigned char const ,QUESTEX_PROGRESS_GROUP>,std::piecewise_construct_t const &,std::tuple<unsigned char const &>,std::tuple<> >, COMDAT

; 772  : 		{	// construct _Objty(_Types...) at _Ptr

  00000	55		 push	 ebp
  00001	8b ec		 mov	 ebp, esp

; 655  : 		::new ((void *)_Ptr) _Objty(_STD forward<_Types>(_Args)...);

  00003	8b 4d 0c	 mov	 ecx, DWORD PTR __Ptr$[ebp]
  00006	85 c9		 test	 ecx, ecx
  00008	74 1c		 je	 SHORT $LN14@construct
; File c:\users\michel\desktop\source\gameserver\source\questinfo.cpp

  0000a	8b 45 14	 mov	 eax, DWORD PTR _<_Args_1>$[ebp]
; File c:\program files (x86)\microsoft visual studio 14.0\vc\include\tuple

; 828  : 			second(_STD get<_Indexes2>(_STD move(_Val2))...)

  0000d	68 ac 0f 00 00	 push	 4012			; 00000facH
  00012	6a 00		 push	 0
; File c:\users\michel\desktop\source\gameserver\source\questinfo.cpp

  00014	8b 00		 mov	 eax, DWORD PTR [eax]
; File c:\program files (x86)\microsoft visual studio 14.0\vc\include\tuple

; 827  : 		: first(_STD get<_Indexes1>(_STD move(_Val1))...),

  00016	8a 00		 mov	 al, BYTE PTR [eax]
  00018	88 01		 mov	 BYTE PTR [ecx], al

; 828  : 			second(_STD get<_Indexes2>(_STD move(_Val2))...)

  0001a	8d 41 04	 lea	 eax, DWORD PTR [ecx+4]
  0001d	50		 push	 eax
  0001e	e8 00 00 00 00	 call	 _memset
  00023	83 c4 0c	 add	 esp, 12			; 0000000cH
$LN14@construct:
; File c:\program files (x86)\microsoft visual studio 14.0\vc\include\xmemory0

; 774  : 		}

  00026	5d		 pop	 ebp
  00027	c3		 ret	 0
??$construct@U?$pair@$$CBEUQUESTEX_PROGRESS_GROUP@@@std@@ABUpiecewise_construct_t@2@V?$tuple@ABE@2@V?$tuple@$$V@2@@?$allocator_traits@V?$allocator@U?$_Tree_node@U?$pair@$$CBEUQUESTEX_PROGRESS_GROUP@@@std@@PAX@std@@@std@@@std@@SAXAAV?$allocator@U?$_Tree_node@U?$pair@$$CBEUQUESTEX_PROGRESS_GROUP@@@std@@PAX@std@@@1@PAU?$pair@$$CBEUQUESTEX_PROGRESS_GROUP@@@1@ABUpiecewise_construct_t@1@$$QAV?$tuple@ABE@1@$$QAV?$tuple@$$V@1@@Z ENDP ; std::allocator_traits<std::allocator<std::_Tree_node<std::pair<unsigned char const ,QUESTEX_PROGRESS_GROUP>,void *> > >::construct<std::pair<unsigned char const ,QUESTEX_PROGRESS_GROUP>,std::piecewise_construct_t const &,std::tuple<unsigned char const &>,std::tuple<> >
_TEXT	ENDS
; Function compile flags: /Ogtp
; File c:\program files (x86)\microsoft visual studio 14.0\vc\include\utility
;	COMDAT ??$?0AAV?$_Tree_iterator@V?$_Tree_val@U?$_Tree_simple_types@U?$pair@$$CBEUQUESTEX_GROUP_INFO@@@std@@@std@@@std@@@std@@_NX@?$pair@V?$_Tree_iterator@V?$_Tree_val@U?$_Tree_simple_types@U?$pair@$$CBEUQUESTEX_GROUP_INFO@@@std@@@std@@@std@@@std@@_N@std@@QAE@AAV?$_Tree_iterator@V?$_Tree_val@U?$_Tree_simple_types@U?$pair@$$CBEUQUESTEX_GROUP_INFO@@@std@@@std@@@std@@@1@$$QA_N@Z
_TEXT	SEGMENT
__Val1$ = 8						; size = 4
__Val2$ = 12						; size = 4
??$?0AAV?$_Tree_iterator@V?$_Tree_val@U?$_Tree_simple_types@U?$pair@$$CBEUQUESTEX_GROUP_INFO@@@std@@@std@@@std@@@std@@_NX@?$pair@V?$_Tree_iterator@V?$_Tree_val@U?$_Tree_simple_types@U?$pair@$$CBEUQUESTEX_GROUP_INFO@@@std@@@std@@@std@@@std@@_N@std@@QAE@AAV?$_Tree_iterator@V?$_Tree_val@U?$_Tree_simple_types@U?$pair@$$CBEUQUESTEX_GROUP_INFO@@@std@@@std@@@std@@@1@$$QA_N@Z PROC ; std::pair<std::_Tree_iterator<std::_Tree_val<std::_Tree_simple_types<std::pair<unsigned char const ,QUESTEX_GROUP_INFO> > > >,bool>::pair<std::_Tree_iterator<std::_Tree_val<std::_Tree_simple_types<std::pair<unsigned char const ,QUESTEX_GROUP_INFO> > > >,bool><std::_Tree_iterator<std::_Tree_val<std::_Tree_simple_types<std::pair<unsigned char const ,QUESTEX_GROUP_INFO> > > > &,bool,void>, COMDAT
; _this$ = ecx

; 145  : 		{	// construct from moved values

  00000	55		 push	 ebp
  00001	8b ec		 mov	 ebp, esp

; 143  : 		: first(_STD forward<_Other1>(_Val1)),

  00003	8b 45 08	 mov	 eax, DWORD PTR __Val1$[ebp]
  00006	8b 00		 mov	 eax, DWORD PTR [eax]
  00008	89 01		 mov	 DWORD PTR [ecx], eax

; 144  : 				second(_STD forward<_Other2>(_Val2))

  0000a	8b 45 0c	 mov	 eax, DWORD PTR __Val2$[ebp]
  0000d	8a 00		 mov	 al, BYTE PTR [eax]
  0000f	88 41 04	 mov	 BYTE PTR [ecx+4], al

; 146  : 		}

  00012	8b c1		 mov	 eax, ecx
  00014	5d		 pop	 ebp
  00015	c2 08 00	 ret	 8
??$?0AAV?$_Tree_iterator@V?$_Tree_val@U?$_Tree_simple_types@U?$pair@$$CBEUQUESTEX_GROUP_INFO@@@std@@@std@@@std@@@std@@_NX@?$pair@V?$_Tree_iterator@V?$_Tree_val@U?$_Tree_simple_types@U?$pair@$$CBEUQUESTEX_GROUP_INFO@@@std@@@std@@@std@@@std@@_N@std@@QAE@AAV?$_Tree_iterator@V?$_Tree_val@U?$_Tree_simple_types@U?$pair@$$CBEUQUESTEX_GROUP_INFO@@@std@@@std@@@std@@@1@$$QA_N@Z ENDP ; std::pair<std::_Tree_iterator<std::_Tree_val<std::_Tree_simple_types<std::pair<unsigned char const ,QUESTEX_GROUP_INFO> > > >,bool>::pair<std::_Tree_iterator<std::_Tree_val<std::_Tree_simple_types<std::pair<unsigned char const ,QUESTEX_GROUP_INFO> > > >,bool><std::_Tree_iterator<std::_Tree_val<std::_Tree_simple_types<std::pair<unsigned char const ,QUESTEX_GROUP_INFO> > > > &,bool,void>
_TEXT	ENDS
; Function compile flags: /Ogtp
; File c:\program files (x86)\microsoft visual studio 14.0\vc\include\utility
;	COMDAT ??$?0V?$_Tree_iterator@V?$_Tree_val@U?$_Tree_simple_types@U?$pair@$$CBEUQUESTEX_GROUP_INFO@@@std@@@std@@@std@@@std@@_NX@?$pair@V?$_Tree_iterator@V?$_Tree_val@U?$_Tree_simple_types@U?$pair@$$CBEUQUESTEX_GROUP_INFO@@@std@@@std@@@std@@@std@@_N@std@@QAE@$$QAV?$_Tree_iterator@V?$_Tree_val@U?$_Tree_simple_types@U?$pair@$$CBEUQUESTEX_GROUP_INFO@@@std@@@std@@@std@@@1@$$QA_N@Z
_TEXT	SEGMENT
__Val1$ = 8						; size = 4
__Val2$ = 12						; size = 4
??$?0V?$_Tree_iterator@V?$_Tree_val@U?$_Tree_simple_types@U?$pair@$$CBEUQUESTEX_GROUP_INFO@@@std@@@std@@@std@@@std@@_NX@?$pair@V?$_Tree_iterator@V?$_Tree_val@U?$_Tree_simple_types@U?$pair@$$CBEUQUESTEX_GROUP_INFO@@@std@@@std@@@std@@@std@@_N@std@@QAE@$$QAV?$_Tree_iterator@V?$_Tree_val@U?$_Tree_simple_types@U?$pair@$$CBEUQUESTEX_GROUP_INFO@@@std@@@std@@@std@@@1@$$QA_N@Z PROC ; std::pair<std::_Tree_iterator<std::_Tree_val<std::_Tree_simple_types<std::pair<unsigned char const ,QUESTEX_GROUP_INFO> > > >,bool>::pair<std::_Tree_iterator<std::_Tree_val<std::_Tree_simple_types<std::pair<unsigned char const ,QUESTEX_GROUP_INFO> > > >,bool><std::_Tree_iterator<std::_Tree_val<std::_Tree_simple_types<std::pair<unsigned char const ,QUESTEX_GROUP_INFO> > > >,bool,void>, COMDAT
; _this$ = ecx

; 145  : 		{	// construct from moved values

  00000	55		 push	 ebp
  00001	8b ec		 mov	 ebp, esp

; 143  : 		: first(_STD forward<_Other1>(_Val1)),

  00003	8b 45 08	 mov	 eax, DWORD PTR __Val1$[ebp]
  00006	8b 00		 mov	 eax, DWORD PTR [eax]
  00008	89 01		 mov	 DWORD PTR [ecx], eax

; 144  : 				second(_STD forward<_Other2>(_Val2))

  0000a	8b 45 0c	 mov	 eax, DWORD PTR __Val2$[ebp]
  0000d	8a 00		 mov	 al, BYTE PTR [eax]
  0000f	88 41 04	 mov	 BYTE PTR [ecx+4], al

; 146  : 		}

  00012	8b c1		 mov	 eax, ecx
  00014	5d		 pop	 ebp
  00015	c2 08 00	 ret	 8
??$?0V?$_Tree_iterator@V?$_Tree_val@U?$_Tree_simple_types@U?$pair@$$CBEUQUESTEX_GROUP_INFO@@@std@@@std@@@std@@@std@@_NX@?$pair@V?$_Tree_iterator@V?$_Tree_val@U?$_Tree_simple_types@U?$pair@$$CBEUQUESTEX_GROUP_INFO@@@std@@@std@@@std@@@std@@_N@std@@QAE@$$QAV?$_Tree_iterator@V?$_Tree_val@U?$_Tree_simple_types@U?$pair@$$CBEUQUESTEX_GROUP_INFO@@@std@@@std@@@std@@@1@$$QA_N@Z ENDP ; std::pair<std::_Tree_iterator<std::_Tree_val<std::_Tree_simple_types<std::pair<unsigned char const ,QUESTEX_GROUP_INFO> > > >,bool>::pair<std::_Tree_iterator<std::_Tree_val<std::_Tree_simple_types<std::pair<unsigned char const ,QUESTEX_GROUP_INFO> > > >,bool><std::_Tree_iterator<std::_Tree_val<std::_Tree_simple_types<std::pair<unsigned char const ,QUESTEX_GROUP_INFO> > > >,bool,void>
_TEXT	ENDS
; Function compile flags: /Ogtp
; File c:\program files (x86)\microsoft visual studio 14.0\vc\include\xtree
;	COMDAT ??$_Buynode_if_nil@AAU?$pair@$$CBEUQUESTEX_GROUP_INFO@@@std@@@?$_Tree@V?$_Tmap_traits@EUQUESTEX_GROUP_INFO@@U?$less@E@std@@V?$allocator@U?$pair@$$CBEUQUESTEX_GROUP_INFO@@@std@@@3@$0A@@std@@@std@@IAEPAU?$_Tree_node@U?$pair@$$CBEUQUESTEX_GROUP_INFO@@@std@@PAX@1@PAU21@AAU?$pair@$$CBEUQUESTEX_GROUP_INFO@@@1@@Z
_TEXT	SEGMENT
__Node$ = 8						; size = 4
___formal$ = 12						; size = 4
??$_Buynode_if_nil@AAU?$pair@$$CBEUQUESTEX_GROUP_INFO@@@std@@@?$_Tree@V?$_Tmap_traits@EUQUESTEX_GROUP_INFO@@U?$less@E@std@@V?$allocator@U?$pair@$$CBEUQUESTEX_GROUP_INFO@@@std@@@3@$0A@@std@@@std@@IAEPAU?$_Tree_node@U?$pair@$$CBEUQUESTEX_GROUP_INFO@@@std@@PAX@1@PAU21@AAU?$pair@$$CBEUQUESTEX_GROUP_INFO@@@1@@Z PROC ; std::_Tree<std::_Tmap_traits<unsigned char,QUESTEX_GROUP_INFO,std::less<unsigned char>,std::allocator<std::pair<unsigned char const ,QUESTEX_GROUP_INFO> >,0> >::_Buynode_if_nil<std::pair<unsigned char const ,QUESTEX_GROUP_INFO> &>, COMDAT
; _this$ = ecx

; 1657 : 		{	// node exists, just return it

  00000	55		 push	 ebp
  00001	8b ec		 mov	 ebp, esp

; 1658 : 		return (_Node);

  00003	8b 45 08	 mov	 eax, DWORD PTR __Node$[ebp]

; 1659 : 		}

  00006	5d		 pop	 ebp
  00007	c2 08 00	 ret	 8
??$_Buynode_if_nil@AAU?$pair@$$CBEUQUESTEX_GROUP_INFO@@@std@@@?$_Tree@V?$_Tmap_traits@EUQUESTEX_GROUP_INFO@@U?$less@E@std@@V?$allocator@U?$pair@$$CBEUQUESTEX_GROUP_INFO@@@std@@@3@$0A@@std@@@std@@IAEPAU?$_Tree_node@U?$pair@$$CBEUQUESTEX_GROUP_INFO@@@std@@PAX@1@PAU21@AAU?$pair@$$CBEUQUESTEX_GROUP_INFO@@@1@@Z ENDP ; std::_Tree<std::_Tmap_traits<unsigned char,QUESTEX_GROUP_INFO,std::less<unsigned char>,std::allocator<std::pair<unsigned char const ,QUESTEX_GROUP_INFO> >,0> >::_Buynode_if_nil<std::pair<unsigned char const ,QUESTEX_GROUP_INFO> &>
_TEXT	ENDS
; Function compile flags: /Ogtp
; File c:\program files (x86)\microsoft visual studio 14.0\vc\include\xmemory0
; File c:\users\michel\desktop\source\gameserver\source\questinfo.cpp
; File c:\program files (x86)\microsoft visual studio 14.0\vc\include\tuple
; File c:\users\michel\desktop\source\gameserver\source\questinfo.cpp
; File c:\program files (x86)\microsoft visual studio 14.0\vc\include\tuple
; File c:\program files (x86)\microsoft visual studio 14.0\vc\include\xmemory0
;	COMDAT ??$construct@U?$pair@$$CBEUQUESTEX_GROUP_INFO@@@std@@ABUpiecewise_construct_t@2@V?$tuple@ABE@2@V?$tuple@$$V@2@@?$allocator_traits@V?$allocator@U?$_Tree_node@U?$pair@$$CBEUQUESTEX_GROUP_INFO@@@std@@PAX@std@@@std@@@std@@SAXAAV?$allocator@U?$_Tree_node@U?$pair@$$CBEUQUESTEX_GROUP_INFO@@@std@@PAX@std@@@1@PAU?$pair@$$CBEUQUESTEX_GROUP_INFO@@@1@ABUpiecewise_construct_t@1@$$QAV?$tuple@ABE@1@$$QAV?$tuple@$$V@1@@Z
_TEXT	SEGMENT
__Al$ = 8						; size = 4
__Ptr$ = 12						; size = 4
_<_Args_0>$ = 16					; size = 4
_<_Args_1>$ = 20					; size = 4
_<_Args_2>$ = 24					; size = 4
??$construct@U?$pair@$$CBEUQUESTEX_GROUP_INFO@@@std@@ABUpiecewise_construct_t@2@V?$tuple@ABE@2@V?$tuple@$$V@2@@?$allocator_traits@V?$allocator@U?$_Tree_node@U?$pair@$$CBEUQUESTEX_GROUP_INFO@@@std@@PAX@std@@@std@@@std@@SAXAAV?$allocator@U?$_Tree_node@U?$pair@$$CBEUQUESTEX_GROUP_INFO@@@std@@PAX@std@@@1@PAU?$pair@$$CBEUQUESTEX_GROUP_INFO@@@1@ABUpiecewise_construct_t@1@$$QAV?$tuple@ABE@1@$$QAV?$tuple@$$V@1@@Z PROC ; std::allocator_traits<std::allocator<std::_Tree_node<std::pair<unsigned char const ,QUESTEX_GROUP_INFO>,void *> > >::construct<std::pair<unsigned char const ,QUESTEX_GROUP_INFO>,std::piecewise_construct_t const &,std::tuple<unsigned char const &>,std::tuple<> >, COMDAT

; 772  : 		{	// construct _Objty(_Types...) at _Ptr

  00000	55		 push	 ebp
  00001	8b ec		 mov	 ebp, esp

; 655  : 		::new ((void *)_Ptr) _Objty(_STD forward<_Types>(_Args)...);

  00003	8b 4d 0c	 mov	 ecx, DWORD PTR __Ptr$[ebp]
  00006	85 c9		 test	 ecx, ecx
  00008	74 1c		 je	 SHORT $LN14@construct
; File c:\users\michel\desktop\source\gameserver\source\questinfo.cpp

  0000a	8b 45 14	 mov	 eax, DWORD PTR _<_Args_1>$[ebp]
; File c:\program files (x86)\microsoft visual studio 14.0\vc\include\tuple

; 828  : 			second(_STD get<_Indexes2>(_STD move(_Val2))...)

  0000d	68 04 69 00 00	 push	 26884			; 00006904H
  00012	6a 00		 push	 0
; File c:\users\michel\desktop\source\gameserver\source\questinfo.cpp

  00014	8b 00		 mov	 eax, DWORD PTR [eax]
; File c:\program files (x86)\microsoft visual studio 14.0\vc\include\tuple

; 827  : 		: first(_STD get<_Indexes1>(_STD move(_Val1))...),

  00016	8a 00		 mov	 al, BYTE PTR [eax]
  00018	88 01		 mov	 BYTE PTR [ecx], al

; 828  : 			second(_STD get<_Indexes2>(_STD move(_Val2))...)

  0001a	8d 41 04	 lea	 eax, DWORD PTR [ecx+4]
  0001d	50		 push	 eax
  0001e	e8 00 00 00 00	 call	 _memset
  00023	83 c4 0c	 add	 esp, 12			; 0000000cH
$LN14@construct:
; File c:\program files (x86)\microsoft visual studio 14.0\vc\include\xmemory0

; 774  : 		}

  00026	5d		 pop	 ebp
  00027	c3		 ret	 0
??$construct@U?$pair@$$CBEUQUESTEX_GROUP_INFO@@@std@@ABUpiecewise_construct_t@2@V?$tuple@ABE@2@V?$tuple@$$V@2@@?$allocator_traits@V?$allocator@U?$_Tree_node@U?$pair@$$CBEUQUESTEX_GROUP_INFO@@@std@@PAX@std@@@std@@@std@@SAXAAV?$allocator@U?$_Tree_node@U?$pair@$$CBEUQUESTEX_GROUP_INFO@@@std@@PAX@std@@@1@PAU?$pair@$$CBEUQUESTEX_GROUP_INFO@@@1@ABUpiecewise_construct_t@1@$$QAV?$tuple@ABE@1@$$QAV?$tuple@$$V@1@@Z ENDP ; std::allocator_traits<std::allocator<std::_Tree_node<std::pair<unsigned char const ,QUESTEX_GROUP_INFO>,void *> > >::construct<std::pair<unsigned char const ,QUESTEX_GROUP_INFO>,std::piecewise_construct_t const &,std::tuple<unsigned char const &>,std::tuple<> >
_TEXT	ENDS
; Function compile flags: /Ogtp
; File c:\program files (x86)\microsoft visual studio 14.0\vc\include\xmemory0
;	COMDAT ??$construct@PAU?$_Tree_node@U?$pair@$$CBEUQUESTEX_PROGRESS_GROUP@@@std@@PAX@std@@AAPAU12@@?$allocator@U?$_Tree_node@U?$pair@$$CBEUQUESTEX_PROGRESS_GROUP@@@std@@PAX@std@@@std@@QAEXPAPAU?$_Tree_node@U?$pair@$$CBEUQUESTEX_PROGRESS_GROUP@@@std@@PAX@1@AAPAU21@@Z
_TEXT	SEGMENT
__Ptr$ = 8						; size = 4
_<_Args_0>$ = 12					; size = 4
??$construct@PAU?$_Tree_node@U?$pair@$$CBEUQUESTEX_PROGRESS_GROUP@@@std@@PAX@std@@AAPAU12@@?$allocator@U?$_Tree_node@U?$pair@$$CBEUQUESTEX_PROGRESS_GROUP@@@std@@PAX@std@@@std@@QAEXPAPAU?$_Tree_node@U?$pair@$$CBEUQUESTEX_PROGRESS_GROUP@@@std@@PAX@1@AAPAU21@@Z PROC ; std::allocator<std::_Tree_node<std::pair<unsigned char const ,QUESTEX_PROGRESS_GROUP>,void *> >::construct<std::_Tree_node<std::pair<unsigned char const ,QUESTEX_PROGRESS_GROUP>,void *> *,std::_Tree_node<std::pair<unsigned char const ,QUESTEX_PROGRESS_GROUP>,void *> * &>, COMDAT
; _this$ = ecx

; 654  : 		{	// construct _Objty(_Types...) at _Ptr

  00000	55		 push	 ebp
  00001	8b ec		 mov	 ebp, esp

; 655  : 		::new ((void *)_Ptr) _Objty(_STD forward<_Types>(_Args)...);

  00003	8b 4d 08	 mov	 ecx, DWORD PTR __Ptr$[ebp]
  00006	85 c9		 test	 ecx, ecx
  00008	74 07		 je	 SHORT $LN3@construct
  0000a	8b 45 0c	 mov	 eax, DWORD PTR _<_Args_0>$[ebp]
  0000d	8b 00		 mov	 eax, DWORD PTR [eax]
  0000f	89 01		 mov	 DWORD PTR [ecx], eax
$LN3@construct:

; 656  : 		}

  00011	5d		 pop	 ebp
  00012	c2 08 00	 ret	 8
??$construct@PAU?$_Tree_node@U?$pair@$$CBEUQUESTEX_PROGRESS_GROUP@@@std@@PAX@std@@AAPAU12@@?$allocator@U?$_Tree_node@U?$pair@$$CBEUQUESTEX_PROGRESS_GROUP@@@std@@PAX@std@@@std@@QAEXPAPAU?$_Tree_node@U?$pair@$$CBEUQUESTEX_PROGRESS_GROUP@@@std@@PAX@1@AAPAU21@@Z ENDP ; std::allocator<std::_Tree_node<std::pair<unsigned char const ,QUESTEX_PROGRESS_GROUP>,void *> >::construct<std::_Tree_node<std::pair<unsigned char const ,QUESTEX_PROGRESS_GROUP>,void *> *,std::_Tree_node<std::pair<unsigned char const ,QUESTEX_PROGRESS_GROUP>,void *> * &>
_TEXT	ENDS
; Function compile flags: /Ogtp
; File c:\program files (x86)\microsoft visual studio 14.0\vc\include\xmemory0
;	COMDAT ??$construct@PAU?$_Tree_node@U?$pair@$$CBEUQUESTEX_GROUP_INFO@@@std@@PAX@std@@AAPAU12@@?$allocator@U?$_Tree_node@U?$pair@$$CBEUQUESTEX_GROUP_INFO@@@std@@PAX@std@@@std@@QAEXPAPAU?$_Tree_node@U?$pair@$$CBEUQUESTEX_GROUP_INFO@@@std@@PAX@1@AAPAU21@@Z
_TEXT	SEGMENT
__Ptr$ = 8						; size = 4
_<_Args_0>$ = 12					; size = 4
??$construct@PAU?$_Tree_node@U?$pair@$$CBEUQUESTEX_GROUP_INFO@@@std@@PAX@std@@AAPAU12@@?$allocator@U?$_Tree_node@U?$pair@$$CBEUQUESTEX_GROUP_INFO@@@std@@PAX@std@@@std@@QAEXPAPAU?$_Tree_node@U?$pair@$$CBEUQUESTEX_GROUP_INFO@@@std@@PAX@1@AAPAU21@@Z PROC ; std::allocator<std::_Tree_node<std::pair<unsigned char const ,QUESTEX_GROUP_INFO>,void *> >::construct<std::_Tree_node<std::pair<unsigned char const ,QUESTEX_GROUP_INFO>,void *> *,std::_Tree_node<std::pair<unsigned char const ,QUESTEX_GROUP_INFO>,void *> * &>, COMDAT
; _this$ = ecx

; 654  : 		{	// construct _Objty(_Types...) at _Ptr

  00000	55		 push	 ebp
  00001	8b ec		 mov	 ebp, esp

; 655  : 		::new ((void *)_Ptr) _Objty(_STD forward<_Types>(_Args)...);

  00003	8b 4d 08	 mov	 ecx, DWORD PTR __Ptr$[ebp]
  00006	85 c9		 test	 ecx, ecx
  00008	74 07		 je	 SHORT $LN3@construct
  0000a	8b 45 0c	 mov	 eax, DWORD PTR _<_Args_0>$[ebp]
  0000d	8b 00		 mov	 eax, DWORD PTR [eax]
  0000f	89 01		 mov	 DWORD PTR [ecx], eax
$LN3@construct:

; 656  : 		}

  00011	5d		 pop	 ebp
  00012	c2 08 00	 ret	 8
??$construct@PAU?$_Tree_node@U?$pair@$$CBEUQUESTEX_GROUP_INFO@@@std@@PAX@std@@AAPAU12@@?$allocator@U?$_Tree_node@U?$pair@$$CBEUQUESTEX_GROUP_INFO@@@std@@PAX@std@@@std@@QAEXPAPAU?$_Tree_node@U?$pair@$$CBEUQUESTEX_GROUP_INFO@@@std@@PAX@1@AAPAU21@@Z ENDP ; std::allocator<std::_Tree_node<std::pair<unsigned char const ,QUESTEX_GROUP_INFO>,void *> >::construct<std::_Tree_node<std::pair<unsigned char const ,QUESTEX_GROUP_INFO>,void *> *,std::_Tree_node<std::pair<unsigned char const ,QUESTEX_GROUP_INFO>,void *> * &>
_TEXT	ENDS
; Function compile flags: /Ogtp
; File c:\program files (x86)\microsoft visual studio 14.0\vc\include\xmemory0
;	COMDAT ??$?0U?$pair@$$CBEUQUESTEX_PROGRESS_GROUP@@@std@@@?$allocator@U?$_Tree_node@U?$pair@$$CBEUQUESTEX_PROGRESS_GROUP@@@std@@PAX@std@@@std@@QAE@ABV?$allocator@U?$pair@$$CBEUQUESTEX_PROGRESS_GROUP@@@std@@@1@@Z
_TEXT	SEGMENT
___formal$ = 8						; size = 4
??$?0U?$pair@$$CBEUQUESTEX_PROGRESS_GROUP@@@std@@@?$allocator@U?$_Tree_node@U?$pair@$$CBEUQUESTEX_PROGRESS_GROUP@@@std@@PAX@std@@@std@@QAE@ABV?$allocator@U?$pair@$$CBEUQUESTEX_PROGRESS_GROUP@@@std@@@1@@Z PROC ; std::allocator<std::_Tree_node<std::pair<unsigned char const ,QUESTEX_PROGRESS_GROUP>,void *> >::allocator<std::_Tree_node<std::pair<unsigned char const ,QUESTEX_PROGRESS_GROUP>,void *> ><std::pair<unsigned char const ,QUESTEX_PROGRESS_GROUP> >, COMDAT
; _this$ = ecx

; 628  : 		}

  00000	8b c1		 mov	 eax, ecx
  00002	c2 04 00	 ret	 4
??$?0U?$pair@$$CBEUQUESTEX_PROGRESS_GROUP@@@std@@@?$allocator@U?$_Tree_node@U?$pair@$$CBEUQUESTEX_PROGRESS_GROUP@@@std@@PAX@std@@@std@@QAE@ABV?$allocator@U?$pair@$$CBEUQUESTEX_PROGRESS_GROUP@@@std@@@1@@Z ENDP ; std::allocator<std::_Tree_node<std::pair<unsigned char const ,QUESTEX_PROGRESS_GROUP>,void *> >::allocator<std::_Tree_node<std::pair<unsigned char const ,QUESTEX_PROGRESS_GROUP>,void *> ><std::pair<unsigned char const ,QUESTEX_PROGRESS_GROUP> >
_TEXT	ENDS
; Function compile flags: /Ogtp
; File c:\program files (x86)\microsoft visual studio 14.0\vc\include\xmemory0
;	COMDAT ??$?0V?$allocator@U?$pair@$$CBEUQUESTEX_PROGRESS_GROUP@@@std@@@std@@@?$_Wrap_alloc@V?$allocator@U?$_Tree_node@U?$pair@$$CBEUQUESTEX_PROGRESS_GROUP@@@std@@PAX@std@@@std@@@std@@QAE@ABV?$allocator@U?$pair@$$CBEUQUESTEX_PROGRESS_GROUP@@@std@@@1@@Z
_TEXT	SEGMENT
__Right$ = 8						; size = 4
??$?0V?$allocator@U?$pair@$$CBEUQUESTEX_PROGRESS_GROUP@@@std@@@std@@@?$_Wrap_alloc@V?$allocator@U?$_Tree_node@U?$pair@$$CBEUQUESTEX_PROGRESS_GROUP@@@std@@PAX@std@@@std@@@std@@QAE@ABV?$allocator@U?$pair@$$CBEUQUESTEX_PROGRESS_GROUP@@@std@@@1@@Z PROC ; std::_Wrap_alloc<std::allocator<std::_Tree_node<std::pair<unsigned char const ,QUESTEX_PROGRESS_GROUP>,void *> > >::_Wrap_alloc<std::allocator<std::_Tree_node<std::pair<unsigned char const ,QUESTEX_PROGRESS_GROUP>,void *> > ><std::allocator<std::pair<unsigned char const ,QUESTEX_PROGRESS_GROUP> > >, COMDAT
; _this$ = ecx

; 869  : 		}

  00000	8b c1		 mov	 eax, ecx
  00002	c2 04 00	 ret	 4
??$?0V?$allocator@U?$pair@$$CBEUQUESTEX_PROGRESS_GROUP@@@std@@@std@@@?$_Wrap_alloc@V?$allocator@U?$_Tree_node@U?$pair@$$CBEUQUESTEX_PROGRESS_GROUP@@@std@@PAX@std@@@std@@@std@@QAE@ABV?$allocator@U?$pair@$$CBEUQUESTEX_PROGRESS_GROUP@@@std@@@1@@Z ENDP ; std::_Wrap_alloc<std::allocator<std::_Tree_node<std::pair<unsigned char const ,QUESTEX_PROGRESS_GROUP>,void *> > >::_Wrap_alloc<std::allocator<std::_Tree_node<std::pair<unsigned char const ,QUESTEX_PROGRESS_GROUP>,void *> > ><std::allocator<std::pair<unsigned char const ,QUESTEX_PROGRESS_GROUP> > >
_TEXT	ENDS
; Function compile flags: /Ogtp
; File c:\program files (x86)\microsoft visual studio 14.0\vc\include\xmemory0
;	COMDAT ??$destroy@PAU?$_Tree_node@U?$pair@$$CBEUQUESTEX_PROGRESS_GROUP@@@std@@PAX@std@@@?$allocator@U?$_Tree_node@U?$pair@$$CBEUQUESTEX_PROGRESS_GROUP@@@std@@PAX@std@@@std@@QAEXPAPAU?$_Tree_node@U?$pair@$$CBEUQUESTEX_PROGRESS_GROUP@@@std@@PAX@1@@Z
_TEXT	SEGMENT
__Ptr$ = 8						; size = 4
??$destroy@PAU?$_Tree_node@U?$pair@$$CBEUQUESTEX_PROGRESS_GROUP@@@std@@PAX@std@@@?$allocator@U?$_Tree_node@U?$pair@$$CBEUQUESTEX_PROGRESS_GROUP@@@std@@PAX@std@@@std@@QAEXPAPAU?$_Tree_node@U?$pair@$$CBEUQUESTEX_PROGRESS_GROUP@@@std@@PAX@1@@Z PROC ; std::allocator<std::_Tree_node<std::pair<unsigned char const ,QUESTEX_PROGRESS_GROUP>,void *> >::destroy<std::_Tree_node<std::pair<unsigned char const ,QUESTEX_PROGRESS_GROUP>,void *> *>, COMDAT
; _this$ = ecx

; 662  : 		_Ptr->~_Uty();
; 663  : 		}

  00000	c2 04 00	 ret	 4
??$destroy@PAU?$_Tree_node@U?$pair@$$CBEUQUESTEX_PROGRESS_GROUP@@@std@@PAX@std@@@?$allocator@U?$_Tree_node@U?$pair@$$CBEUQUESTEX_PROGRESS_GROUP@@@std@@PAX@std@@@std@@QAEXPAPAU?$_Tree_node@U?$pair@$$CBEUQUESTEX_PROGRESS_GROUP@@@std@@PAX@1@@Z ENDP ; std::allocator<std::_Tree_node<std::pair<unsigned char const ,QUESTEX_PROGRESS_GROUP>,void *> >::destroy<std::_Tree_node<std::pair<unsigned char const ,QUESTEX_PROGRESS_GROUP>,void *> *>
_TEXT	ENDS
; Function compile flags: /Ogtp
; File c:\program files (x86)\microsoft visual studio 14.0\vc\include\xmemory0
;	COMDAT ??$?0U?$pair@$$CBEUQUESTEX_GROUP_INFO@@@std@@@?$allocator@U?$_Tree_node@U?$pair@$$CBEUQUESTEX_GROUP_INFO@@@std@@PAX@std@@@std@@QAE@ABV?$allocator@U?$pair@$$CBEUQUESTEX_GROUP_INFO@@@std@@@1@@Z
_TEXT	SEGMENT
___formal$ = 8						; size = 4
??$?0U?$pair@$$CBEUQUESTEX_GROUP_INFO@@@std@@@?$allocator@U?$_Tree_node@U?$pair@$$CBEUQUESTEX_GROUP_INFO@@@std@@PAX@std@@@std@@QAE@ABV?$allocator@U?$pair@$$CBEUQUESTEX_GROUP_INFO@@@std@@@1@@Z PROC ; std::allocator<std::_Tree_node<std::pair<unsigned char const ,QUESTEX_GROUP_INFO>,void *> >::allocator<std::_Tree_node<std::pair<unsigned char const ,QUESTEX_GROUP_INFO>,void *> ><std::pair<unsigned char const ,QUESTEX_GROUP_INFO> >, COMDAT
; _this$ = ecx

; 628  : 		}

  00000	8b c1		 mov	 eax, ecx
  00002	c2 04 00	 ret	 4
??$?0U?$pair@$$CBEUQUESTEX_GROUP_INFO@@@std@@@?$allocator@U?$_Tree_node@U?$pair@$$CBEUQUESTEX_GROUP_INFO@@@std@@PAX@std@@@std@@QAE@ABV?$allocator@U?$pair@$$CBEUQUESTEX_GROUP_INFO@@@std@@@1@@Z ENDP ; std::allocator<std::_Tree_node<std::pair<unsigned char const ,QUESTEX_GROUP_INFO>,void *> >::allocator<std::_Tree_node<std::pair<unsigned char const ,QUESTEX_GROUP_INFO>,void *> ><std::pair<unsigned char const ,QUESTEX_GROUP_INFO> >
_TEXT	ENDS
; Function compile flags: /Ogtp
; File c:\program files (x86)\microsoft visual studio 14.0\vc\include\xmemory0
;	COMDAT ??$?0V?$allocator@U?$pair@$$CBEUQUESTEX_GROUP_INFO@@@std@@@std@@@?$_Wrap_alloc@V?$allocator@U?$_Tree_node@U?$pair@$$CBEUQUESTEX_GROUP_INFO@@@std@@PAX@std@@@std@@@std@@QAE@ABV?$allocator@U?$pair@$$CBEUQUESTEX_GROUP_INFO@@@std@@@1@@Z
_TEXT	SEGMENT
__Right$ = 8						; size = 4
??$?0V?$allocator@U?$pair@$$CBEUQUESTEX_GROUP_INFO@@@std@@@std@@@?$_Wrap_alloc@V?$allocator@U?$_Tree_node@U?$pair@$$CBEUQUESTEX_GROUP_INFO@@@std@@PAX@std@@@std@@@std@@QAE@ABV?$allocator@U?$pair@$$CBEUQUESTEX_GROUP_INFO@@@std@@@1@@Z PROC ; std::_Wrap_alloc<std::allocator<std::_Tree_node<std::pair<unsigned char const ,QUESTEX_GROUP_INFO>,void *> > >::_Wrap_alloc<std::allocator<std::_Tree_node<std::pair<unsigned char const ,QUESTEX_GROUP_INFO>,void *> > ><std::allocator<std::pair<unsigned char const ,QUESTEX_GROUP_INFO> > >, COMDAT
; _this$ = ecx

; 869  : 		}

  00000	8b c1		 mov	 eax, ecx
  00002	c2 04 00	 ret	 4
??$?0V?$allocator@U?$pair@$$CBEUQUESTEX_GROUP_INFO@@@std@@@std@@@?$_Wrap_alloc@V?$allocator@U?$_Tree_node@U?$pair@$$CBEUQUESTEX_GROUP_INFO@@@std@@PAX@std@@@std@@@std@@QAE@ABV?$allocator@U?$pair@$$CBEUQUESTEX_GROUP_INFO@@@std@@@1@@Z ENDP ; std::_Wrap_alloc<std::allocator<std::_Tree_node<std::pair<unsigned char const ,QUESTEX_GROUP_INFO>,void *> > >::_Wrap_alloc<std::allocator<std::_Tree_node<std::pair<unsigned char const ,QUESTEX_GROUP_INFO>,void *> > ><std::allocator<std::pair<unsigned char const ,QUESTEX_GROUP_INFO> > >
_TEXT	ENDS
; Function compile flags: /Ogtp
; File c:\program files (x86)\microsoft visual studio 14.0\vc\include\xmemory0
;	COMDAT ??$destroy@PAU?$_Tree_node@U?$pair@$$CBEUQUESTEX_GROUP_INFO@@@std@@PAX@std@@@?$allocator@U?$_Tree_node@U?$pair@$$CBEUQUESTEX_GROUP_INFO@@@std@@PAX@std@@@std@@QAEXPAPAU?$_Tree_node@U?$pair@$$CBEUQUESTEX_GROUP_INFO@@@std@@PAX@1@@Z
_TEXT	SEGMENT
__Ptr$ = 8						; size = 4
??$destroy@PAU?$_Tree_node@U?$pair@$$CBEUQUESTEX_GROUP_INFO@@@std@@PAX@std@@@?$allocator@U?$_Tree_node@U?$pair@$$CBEUQUESTEX_GROUP_INFO@@@std@@PAX@std@@@std@@QAEXPAPAU?$_Tree_node@U?$pair@$$CBEUQUESTEX_GROUP_INFO@@@std@@PAX@1@@Z PROC ; std::allocator<std::_Tree_node<std::pair<unsigned char const ,QUESTEX_GROUP_INFO>,void *> >::destroy<std::_Tree_node<std::pair<unsigned char const ,QUESTEX_GROUP_INFO>,void *> *>, COMDAT
; _this$ = ecx

; 662  : 		_Ptr->~_Uty();
; 663  : 		}

  00000	c2 04 00	 ret	 4
??$destroy@PAU?$_Tree_node@U?$pair@$$CBEUQUESTEX_GROUP_INFO@@@std@@PAX@std@@@?$allocator@U?$_Tree_node@U?$pair@$$CBEUQUESTEX_GROUP_INFO@@@std@@PAX@std@@@std@@QAEXPAPAU?$_Tree_node@U?$pair@$$CBEUQUESTEX_GROUP_INFO@@@std@@PAX@1@@Z ENDP ; std::allocator<std::_Tree_node<std::pair<unsigned char const ,QUESTEX_GROUP_INFO>,void *> >::destroy<std::_Tree_node<std::pair<unsigned char const ,QUESTEX_GROUP_INFO>,void *> *>
_TEXT	ENDS
; Function compile flags: /Ogtp
; File c:\program files (x86)\microsoft visual studio 14.0\vc\include\xmemory0
;	COMDAT ??$destroy@U?$pair@$$CBEUQUESTEX_PROGRESS_GROUP@@@std@@@?$allocator@U?$_Tree_node@U?$pair@$$CBEUQUESTEX_PROGRESS_GROUP@@@std@@PAX@std@@@std@@QAEXPAU?$pair@$$CBEUQUESTEX_PROGRESS_GROUP@@@1@@Z
_TEXT	SEGMENT
__Ptr$ = 8						; size = 4
??$destroy@U?$pair@$$CBEUQUESTEX_PROGRESS_GROUP@@@std@@@?$allocator@U?$_Tree_node@U?$pair@$$CBEUQUESTEX_PROGRESS_GROUP@@@std@@PAX@std@@@std@@QAEXPAU?$pair@$$CBEUQUESTEX_PROGRESS_GROUP@@@1@@Z PROC ; std::allocator<std::_Tree_node<std::pair<unsigned char const ,QUESTEX_PROGRESS_GROUP>,void *> >::destroy<std::pair<unsigned char const ,QUESTEX_PROGRESS_GROUP> >, COMDAT
; _this$ = ecx

; 662  : 		_Ptr->~_Uty();
; 663  : 		}

  00000	c2 04 00	 ret	 4
??$destroy@U?$pair@$$CBEUQUESTEX_PROGRESS_GROUP@@@std@@@?$allocator@U?$_Tree_node@U?$pair@$$CBEUQUESTEX_PROGRESS_GROUP@@@std@@PAX@std@@@std@@QAEXPAU?$pair@$$CBEUQUESTEX_PROGRESS_GROUP@@@1@@Z ENDP ; std::allocator<std::_Tree_node<std::pair<unsigned char const ,QUESTEX_PROGRESS_GROUP>,void *> >::destroy<std::pair<unsigned char const ,QUESTEX_PROGRESS_GROUP> >
_TEXT	ENDS
; Function compile flags: /Ogtp
; File c:\program files (x86)\microsoft visual studio 14.0\vc\include\xmemory0
;	COMDAT ??$destroy@U?$pair@$$CBEUQUESTEX_GROUP_INFO@@@std@@@?$allocator@U?$_Tree_node@U?$pair@$$CBEUQUESTEX_GROUP_INFO@@@std@@PAX@std@@@std@@QAEXPAU?$pair@$$CBEUQUESTEX_GROUP_INFO@@@1@@Z
_TEXT	SEGMENT
__Ptr$ = 8						; size = 4
??$destroy@U?$pair@$$CBEUQUESTEX_GROUP_INFO@@@std@@@?$allocator@U?$_Tree_node@U?$pair@$$CBEUQUESTEX_GROUP_INFO@@@std@@PAX@std@@@std@@QAEXPAU?$pair@$$CBEUQUESTEX_GROUP_INFO@@@1@@Z PROC ; std::allocator<std::_Tree_node<std::pair<unsigned char const ,QUESTEX_GROUP_INFO>,void *> >::destroy<std::pair<unsigned char const ,QUESTEX_GROUP_INFO> >, COMDAT
; _this$ = ecx

; 662  : 		_Ptr->~_Uty();
; 663  : 		}

  00000	c2 04 00	 ret	 4
??$destroy@U?$pair@$$CBEUQUESTEX_GROUP_INFO@@@std@@@?$allocator@U?$_Tree_node@U?$pair@$$CBEUQUESTEX_GROUP_INFO@@@std@@PAX@std@@@std@@QAEXPAU?$pair@$$CBEUQUESTEX_GROUP_INFO@@@1@@Z ENDP ; std::allocator<std::_Tree_node<std::pair<unsigned char const ,QUESTEX_GROUP_INFO>,void *> >::destroy<std::pair<unsigned char const ,QUESTEX_GROUP_INFO> >
_TEXT	ENDS
; Function compile flags: /Ogtp
; File c:\program files (x86)\microsoft visual studio 14.0\vc\include\xtree
; File c:\program files (x86)\microsoft visual studio 14.0\vc\include\xstddef
; File c:\program files (x86)\microsoft visual studio 14.0\vc\include\xtree
; File c:\program files (x86)\microsoft visual studio 14.0\vc\include\xstddef
; File c:\program files (x86)\microsoft visual studio 14.0\vc\include\xtree
; File c:\program files (x86)\microsoft visual studio 14.0\vc\include\utility
; File c:\program files (x86)\microsoft visual studio 14.0\vc\include\xtree
; File c:\program files (x86)\microsoft visual studio 14.0\vc\include\xstddef
; File c:\program files (x86)\microsoft visual studio 14.0\vc\include\xtree
; File c:\program files (x86)\microsoft visual studio 14.0\vc\include\xstddef
; File c:\program files (x86)\microsoft visual studio 14.0\vc\include\xtree
; File c:\program files (x86)\microsoft visual studio 14.0\vc\include\xmemory0
; File c:\program files (x86)\microsoft visual studio 14.0\vc\include\xtree
; File c:\program files (x86)\microsoft visual studio 14.0\vc\include\xmemory0
; File c:\program files (x86)\microsoft visual studio 14.0\vc\include\utility
; File c:\program files (x86)\microsoft visual studio 14.0\vc\include\xmemory0
; File c:\program files (x86)\microsoft visual studio 14.0\vc\include\utility
; File c:\program files (x86)\microsoft visual studio 14.0\vc\include\xtree
;	COMDAT ??$_Insert_nohint@AAU?$pair@$$CBEUQUESTEX_PROGRESS_GROUP@@@std@@PAU?$_Tree_node@U?$pair@$$CBEUQUESTEX_PROGRESS_GROUP@@@std@@PAX@2@@?$_Tree@V?$_Tmap_traits@EUQUESTEX_PROGRESS_GROUP@@U?$less@E@std@@V?$allocator@U?$pair@$$CBEUQUESTEX_PROGRESS_GROUP@@@std@@@3@$0A@@std@@@std@@IAE?AU?$pair@V?$_Tree_iterator@V?$_Tree_val@U?$_Tree_simple_types@U?$pair@$$CBEUQUESTEX_PROGRESS_GROUP@@@std@@@std@@@std@@@std@@_N@1@_NAAU?$pair@$$CBEUQUESTEX_PROGRESS_GROUP@@@1@PAU?$_Tree_node@U?$pair@$$CBEUQUESTEX_PROGRESS_GROUP@@@std@@PAX@1@@Z
_TEXT	SEGMENT
tv734 = -28						; size = 4
_this$1$ = -24						; size = 4
__Addleft$2 = -20					; size = 1
__$EHRec$ = -16						; size = 16
___$ReturnUdt$ = 8					; size = 4
$T3 = 12						; size = 4
__Where$4 = 12						; size = 4
__Leftish$ = 12						; size = 1
__Val$ = 16						; size = 4
__Newnode$ = 20						; size = 4
??$_Insert_nohint@AAU?$pair@$$CBEUQUESTEX_PROGRESS_GROUP@@@std@@PAU?$_Tree_node@U?$pair@$$CBEUQUESTEX_PROGRESS_GROUP@@@std@@PAX@2@@?$_Tree@V?$_Tmap_traits@EUQUESTEX_PROGRESS_GROUP@@U?$less@E@std@@V?$allocator@U?$pair@$$CBEUQUESTEX_PROGRESS_GROUP@@@std@@@3@$0A@@std@@@std@@IAE?AU?$pair@V?$_Tree_iterator@V?$_Tree_val@U?$_Tree_simple_types@U?$pair@$$CBEUQUESTEX_PROGRESS_GROUP@@@std@@@std@@@std@@@std@@_N@1@_NAAU?$pair@$$CBEUQUESTEX_PROGRESS_GROUP@@@1@PAU?$_Tree_node@U?$pair@$$CBEUQUESTEX_PROGRESS_GROUP@@@std@@PAX@1@@Z PROC ; std::_Tree<std::_Tmap_traits<unsigned char,QUESTEX_PROGRESS_GROUP,std::less<unsigned char>,std::allocator<std::pair<unsigned char const ,QUESTEX_PROGRESS_GROUP> >,0> >::_Insert_nohint<std::pair<unsigned char const ,QUESTEX_PROGRESS_GROUP> &,std::_Tree_node<std::pair<unsigned char const ,QUESTEX_PROGRESS_GROUP>,void *> *>, COMDAT
; _this$ = ecx

; 1799 : 		{	// try to insert node, on left if _Leftish

  00000	55		 push	 ebp
  00001	8b ec		 mov	 ebp, esp
  00003	6a ff		 push	 -1
  00005	68 00 00 00 00	 push	 __ehhandler$??$_Insert_nohint@AAU?$pair@$$CBEUQUESTEX_PROGRESS_GROUP@@@std@@PAU?$_Tree_node@U?$pair@$$CBEUQUESTEX_PROGRESS_GROUP@@@std@@PAX@2@@?$_Tree@V?$_Tmap_traits@EUQUESTEX_PROGRESS_GROUP@@U?$less@E@std@@V?$allocator@U?$pair@$$CBEUQUESTEX_PROGRESS_GROUP@@@std@@@3@$0A@@std@@@std@@IAE?AU?$pair@V?$_Tree_iterator@V?$_Tree_val@U?$_Tree_simple_types@U?$pair@$$CBEUQUESTEX_PROGRESS_GROUP@@@std@@@std@@@std@@@std@@_N@1@_NAAU?$pair@$$CBEUQUESTEX_PROGRESS_GROUP@@@1@PAU?$_Tree_node@U?$pair@$$CBEUQUESTEX_PROGRESS_GROUP@@@std@@PAX@1@@Z
  0000a	64 a1 00 00 00
	00		 mov	 eax, DWORD PTR fs:0
  00010	50		 push	 eax
  00011	83 ec 10	 sub	 esp, 16			; 00000010H
  00014	53		 push	 ebx
  00015	56		 push	 esi
  00016	57		 push	 edi
  00017	a1 00 00 00 00	 mov	 eax, DWORD PTR ___security_cookie
  0001c	33 c5		 xor	 eax, ebp
  0001e	50		 push	 eax
  0001f	8d 45 f4	 lea	 eax, DWORD PTR __$EHRec$[ebp+4]
  00022	64 a3 00 00 00
	00		 mov	 DWORD PTR fs:0, eax
  00028	89 65 f0	 mov	 DWORD PTR __$EHRec$[ebp], esp
  0002b	8b c1		 mov	 eax, ecx
  0002d	89 45 e8	 mov	 DWORD PTR _this$1$[ebp], eax

; 335  : 		}
; 336  : 
; 337  : 	bool operator!=(const _Myiter& _Right) const
; 338  : 		{	// test for iterator inequality
; 339  : 		return (!(*this == _Right));
; 340  : 		}
; 341  : 	};
; 342  : 
; 343  : template<class _Mytree> inline
; 344  : 	typename _Tree_const_iterator<_Mytree>::_Unchecked_type
; 345  : 		_Unchecked(_Tree_const_iterator<_Mytree> _Iter)
; 346  : 	{	// convert to unchecked
; 347  : 	return (_Iter._Unchecked());
; 348  : 	}
; 349  : 
; 350  : template<class _Mytree> inline
; 351  : 	_Tree_const_iterator<_Mytree>&
; 352  : 		_Rechecked(_Tree_const_iterator<_Mytree>& _Iter,
; 353  : 			typename _Tree_const_iterator<_Mytree>
; 354  : 				::_Unchecked_type _Right)
; 355  : 	{	// convert to checked
; 356  : 	return (_Iter._Rechecked(_Right));
; 357  : 	}
; 358  : 
; 359  : 	// TEMPLATE CLASS _Tree_iterator
; 360  : template<class _Mytree>
; 361  : 	class _Tree_iterator
; 362  : 		: public _Tree_const_iterator<_Mytree>
; 363  : 	{	// iterator for mutable tree
; 364  : public:
; 365  : 	typedef _Tree_iterator<_Mytree> _Myiter;
; 366  : 	typedef _Tree_const_iterator<_Mytree> _Mybase;
; 367  : 	typedef bidirectional_iterator_tag iterator_category;
; 368  : 
; 369  : 	typedef typename _Mytree::_Nodeptr _Nodeptr;
; 370  : 	typedef typename _Mytree::value_type value_type;
; 371  : 	typedef typename _Mytree::difference_type difference_type;
; 372  : 
; 373  : 	typedef typename _Mytree::pointer pointer;
; 374  : 	typedef typename _Mytree::reference reference;
; 375  : 
; 376  : 	_Tree_iterator()
; 377  : 		{	// construct with null node
; 378  : 		}
; 379  : 
; 380  : 	_Tree_iterator(_Nodeptr _Pnode, const _Mytree *_Plist)
; 381  : 		: _Mybase(_Pnode, _Plist)
; 382  : 		{	// construct with node pointer _Pnode
; 383  : 		}
; 384  : 
; 385  : 	typedef _Tree_unchecked_iterator<_Mytree> _Unchecked_type;
; 386  : 
; 387  : 	_Myiter& _Rechecked(_Unchecked_type _Right)
; 388  : 		{	// reset from unchecked iterator
; 389  : 		this->_Ptr = _Right._Ptr;
; 390  : 		return (*this);
; 391  : 		}
; 392  : 
; 393  : 	_Unchecked_type _Unchecked() const
; 394  : 		{	// make an unchecked iterator
; 395  : 		return (_Unchecked_type(this->_Ptr, (_Mytree *)this->_Getcont()));
; 396  : 		}
; 397  : 
; 398  : 	reference operator*() const
; 399  : 		{	// return designated value
; 400  : 		return ((reference)**(_Mybase *)this);
; 401  : 		}
; 402  : 
; 403  : 	pointer operator->() const
; 404  : 		{	// return pointer to class object
; 405  : 		return (_STD pointer_traits<pointer>::pointer_to(**this));
; 406  : 		}
; 407  : 
; 408  : 	_Myiter& operator++()
; 409  : 		{	// preincrement
; 410  : 		++(*(_Mybase *)this);
; 411  : 		return (*this);
; 412  : 		}
; 413  : 
; 414  : 	_Myiter operator++(int)
; 415  : 		{	// postincrement
; 416  : 		_Myiter _Tmp = *this;
; 417  : 		++*this;
; 418  : 		return (_Tmp);
; 419  : 		}
; 420  : 
; 421  : 	_Myiter& operator--()
; 422  : 		{	// predecrement
; 423  : 		--(*(_Mybase *)this);
; 424  : 		return (*this);
; 425  : 		}
; 426  : 
; 427  : 	_Myiter operator--(int)
; 428  : 		{	// postdecrement
; 429  : 		_Myiter _Tmp = *this;
; 430  : 		--*this;
; 431  : 		return (_Tmp);
; 432  : 		}
; 433  : 	};
; 434  : 
; 435  : template<class _Mytree> inline
; 436  : 	typename _Tree_iterator<_Mytree>::_Unchecked_type
; 437  : 		_Unchecked(_Tree_iterator<_Mytree> _Iter)
; 438  : 	{	// convert to unchecked
; 439  : 	return (_Iter._Unchecked());
; 440  : 	}
; 441  : 
; 442  : template<class _Mytree> inline
; 443  : 	_Tree_iterator<_Mytree>&
; 444  : 		_Rechecked(_Tree_iterator<_Mytree>& _Iter,
; 445  : 			typename _Tree_iterator<_Mytree>
; 446  : 				::_Unchecked_type _Right)
; 447  : 	{	// convert to checked
; 448  : 	return (_Iter._Rechecked(_Right));
; 449  : 	}
; 450  : 
; 451  : 		// tree TYPE WRAPPERS
; 452  : template<class _Value_type,
; 453  : 	class _Size_type,
; 454  : 	class _Difference_type,
; 455  : 	class _Pointer,
; 456  : 	class _Const_pointer,
; 457  : 	class _Reference,
; 458  : 	class _Const_reference,
; 459  : 	class _Nodeptr_type>
; 460  : 	struct _Tree_iter_types
; 461  : 	{	// wraps types needed by iterators
; 462  : 	typedef _Value_type value_type;
; 463  : 	typedef _Size_type size_type;
; 464  : 	typedef _Difference_type difference_type;
; 465  : 	typedef _Pointer pointer;
; 466  : 	typedef _Const_pointer const_pointer;
; 467  : 	typedef _Reference reference;
; 468  : 	typedef _Const_reference const_reference;
; 469  : 	typedef _Nodeptr_type _Nodeptr;
; 470  : 	};
; 471  : 
; 472  : template<class _Value_type,
; 473  : 	class _Voidptr>
; 474  : 	struct _Tree_node
; 475  : 		{	// tree node
; 476  : 		_Voidptr _Left;	// left subtree, or smallest element if head
; 477  : 		_Voidptr _Parent;	// parent, or root of tree if head
; 478  : 		_Voidptr _Right;	// right subtree, or largest element if head
; 479  : 		char _Color;	// _Red or _Black, _Black if head
; 480  : 		char _Isnil;	// true only if head (also nil) node
; 481  : 		_Value_type _Myval;	// the stored value, unused if head
; 482  : 
; 483  : 	private:
; 484  : 		_Tree_node& operator=(const _Tree_node&);
; 485  : 		};
; 486  : 
; 487  : template<class _Value_type>
; 488  : 	struct _Tree_node<_Value_type, void *>
; 489  : 		{	// tree node
; 490  : 		typedef _Tree_node<_Value_type, void *> *_Nodeptr;
; 491  : 		_Nodeptr _Left;	// left subtree, or smallest element if head
; 492  : 		_Nodeptr _Parent;	// parent, or root of tree if head
; 493  : 		_Nodeptr _Right;	// right subtree, or largest element if head
; 494  : 		char _Color;	// _Red or _Black, _Black if head
; 495  : 		char _Isnil;	// true only if head (also nil) node
; 496  : 		_Value_type _Myval;	// the stored value, unused if head
; 497  : 
; 498  : 	private:
; 499  : 		_Tree_node& operator=(const _Tree_node&);
; 500  : 		};
; 501  : 
; 502  : template<class _Ty>
; 503  : 	struct _Tree_simple_types
; 504  : 		: public _Simple_types<_Ty>
; 505  : 	{	// wraps types needed by iterators
; 506  : 	typedef _Tree_node<_Ty, void *> _Node;
; 507  : 	typedef _Node *_Nodeptr;
; 508  : 	};
; 509  : 
; 510  : template<class _Ty,
; 511  : 	class _Alloc0>
; 512  : 	struct _Tree_base_types
; 513  : 	{	// types needed for a container base
; 514  : 	typedef _Alloc0 _Alloc;
; 515  : 	typedef _Tree_base_types<_Ty, _Alloc> _Myt;
; 516  : 
; 517  : 	typedef _Wrap_alloc<_Alloc> _Alty0;
; 518  : 	typedef typename _Alty0::template rebind<_Ty>::other _Alty;
; 519  : 
; 520  : 
; 521  : 	typedef typename _Get_voidptr<_Alty, typename _Alty::pointer>::type
; 522  : 		_Voidptr;
; 523  : 	typedef _Tree_node<typename _Alty::value_type,
; 524  : 		_Voidptr> _Node;
; 525  : 
; 526  : 	typedef typename _Alty::template rebind<_Node>::other _Alnod_type;
; 527  : 	typedef typename _Alnod_type::pointer _Nodeptr;
; 528  : 	typedef _Nodeptr& _Nodepref;
; 529  : 
; 530  : 	typedef typename _If<_Is_simple_alloc<_Alty>::value,
; 531  : 		_Tree_simple_types<typename _Alty::value_type>,
; 532  : 		_Tree_iter_types<typename _Alty::value_type,
; 533  : 			typename _Alty::size_type,
; 534  : 			typename _Alty::difference_type,
; 535  : 			typename _Alty::pointer,
; 536  : 			typename _Alty::const_pointer,
; 537  : 			typename _Alty::reference,
; 538  : 			typename _Alty::const_reference,
; 539  : 			_Nodeptr> >::type
; 540  : 		_Val_types;
; 541  : 	};
; 542  : 
; 543  : 		// TEMPLATE CLASS _Tree_val
; 544  : template<class _Val_types>
; 545  : 	class _Tree_val
; 546  : 		: public _Container_base
; 547  : 	{	// base class for tree to hold data
; 548  : public:
; 549  : 	typedef _Tree_val<_Val_types> _Myt;
; 550  : 
; 551  : 	typedef typename _Val_types::_Nodeptr _Nodeptr;
; 552  : 	typedef _Nodeptr& _Nodepref;
; 553  : 
; 554  : 	typedef typename _Val_types::value_type value_type;
; 555  : 	typedef typename _Val_types::size_type size_type;
; 556  : 	typedef typename _Val_types::difference_type difference_type;
; 557  : 	typedef typename _Val_types::pointer pointer;
; 558  : 	typedef typename _Val_types::const_pointer const_pointer;
; 559  : 	typedef typename _Val_types::reference reference;
; 560  : 	typedef typename _Val_types::const_reference const_reference;
; 561  : 
; 562  : 	typedef _Tree_const_iterator<_Myt> const_iterator;
; 563  : 	typedef _Tree_iterator<_Myt> iterator;
; 564  : 
; 565  : 	_Tree_val()
; 566  : 		{	// initialize data
; 567  : 		this->_Myhead = 0;
; 568  : 		this->_Mysize = 0;
; 569  : 		}
; 570  : 
; 571  : 	enum _Redbl
; 572  : 		{	// colors for link to parent
; 573  : 		_Red, _Black};
; 574  : 
; 575  : 	static char& _Color(_Nodeptr _Pnode)
; 576  : 		{	// return reference to color in node
; 577  : 		return ((char&)_Pnode->_Color);
; 578  : 		}
; 579  : 
; 580  : 	static char& _Isnil(_Nodeptr _Pnode)
; 581  : 		{	// return reference to nil flag in node
; 582  : 		return ((char&)_Pnode->_Isnil);
; 583  : 		}
; 584  : 
; 585  : 	static _Nodepref _Left(_Nodeptr _Pnode)
; 586  : 		{	// return reference to left pointer in node
; 587  : 		return ((_Nodepref)_Pnode->_Left);
; 588  : 		}
; 589  : 
; 590  : 	static _Nodepref _Parent(_Nodeptr _Pnode)
; 591  : 		{	// return reference to parent pointer in node
; 592  : 		return ((_Nodepref)_Pnode->_Parent);

  00030	8b 08		 mov	 ecx, DWORD PTR [eax]

; 1802 : 		_Nodeptr _Wherenode = this->_Myhead();
; 1803 : 		bool _Addleft = true;	// add to left of head if tree empty

  00032	b2 01		 mov	 dl, 1
  00034	8b 5d 10	 mov	 ebx, DWORD PTR __Val$[ebp]
  00037	8b f9		 mov	 edi, ecx
  00039	c7 45 fc 00 00
	00 00		 mov	 DWORD PTR __$EHRec$[ebp+12], 0

; 335  : 		}
; 336  : 
; 337  : 	bool operator!=(const _Myiter& _Right) const
; 338  : 		{	// test for iterator inequality
; 339  : 		return (!(*this == _Right));
; 340  : 		}
; 341  : 	};
; 342  : 
; 343  : template<class _Mytree> inline
; 344  : 	typename _Tree_const_iterator<_Mytree>::_Unchecked_type
; 345  : 		_Unchecked(_Tree_const_iterator<_Mytree> _Iter)
; 346  : 	{	// convert to unchecked
; 347  : 	return (_Iter._Unchecked());
; 348  : 	}
; 349  : 
; 350  : template<class _Mytree> inline
; 351  : 	_Tree_const_iterator<_Mytree>&
; 352  : 		_Rechecked(_Tree_const_iterator<_Mytree>& _Iter,
; 353  : 			typename _Tree_const_iterator<_Mytree>
; 354  : 				::_Unchecked_type _Right)
; 355  : 	{	// convert to checked
; 356  : 	return (_Iter._Rechecked(_Right));
; 357  : 	}
; 358  : 
; 359  : 	// TEMPLATE CLASS _Tree_iterator
; 360  : template<class _Mytree>
; 361  : 	class _Tree_iterator
; 362  : 		: public _Tree_const_iterator<_Mytree>
; 363  : 	{	// iterator for mutable tree
; 364  : public:
; 365  : 	typedef _Tree_iterator<_Mytree> _Myiter;
; 366  : 	typedef _Tree_const_iterator<_Mytree> _Mybase;
; 367  : 	typedef bidirectional_iterator_tag iterator_category;
; 368  : 
; 369  : 	typedef typename _Mytree::_Nodeptr _Nodeptr;
; 370  : 	typedef typename _Mytree::value_type value_type;
; 371  : 	typedef typename _Mytree::difference_type difference_type;
; 372  : 
; 373  : 	typedef typename _Mytree::pointer pointer;
; 374  : 	typedef typename _Mytree::reference reference;
; 375  : 
; 376  : 	_Tree_iterator()
; 377  : 		{	// construct with null node
; 378  : 		}
; 379  : 
; 380  : 	_Tree_iterator(_Nodeptr _Pnode, const _Mytree *_Plist)
; 381  : 		: _Mybase(_Pnode, _Plist)
; 382  : 		{	// construct with node pointer _Pnode
; 383  : 		}
; 384  : 
; 385  : 	typedef _Tree_unchecked_iterator<_Mytree> _Unchecked_type;
; 386  : 
; 387  : 	_Myiter& _Rechecked(_Unchecked_type _Right)
; 388  : 		{	// reset from unchecked iterator
; 389  : 		this->_Ptr = _Right._Ptr;
; 390  : 		return (*this);
; 391  : 		}
; 392  : 
; 393  : 	_Unchecked_type _Unchecked() const
; 394  : 		{	// make an unchecked iterator
; 395  : 		return (_Unchecked_type(this->_Ptr, (_Mytree *)this->_Getcont()));
; 396  : 		}
; 397  : 
; 398  : 	reference operator*() const
; 399  : 		{	// return designated value
; 400  : 		return ((reference)**(_Mybase *)this);
; 401  : 		}
; 402  : 
; 403  : 	pointer operator->() const
; 404  : 		{	// return pointer to class object
; 405  : 		return (_STD pointer_traits<pointer>::pointer_to(**this));
; 406  : 		}
; 407  : 
; 408  : 	_Myiter& operator++()
; 409  : 		{	// preincrement
; 410  : 		++(*(_Mybase *)this);
; 411  : 		return (*this);
; 412  : 		}
; 413  : 
; 414  : 	_Myiter operator++(int)
; 415  : 		{	// postincrement
; 416  : 		_Myiter _Tmp = *this;
; 417  : 		++*this;
; 418  : 		return (_Tmp);
; 419  : 		}
; 420  : 
; 421  : 	_Myiter& operator--()
; 422  : 		{	// predecrement
; 423  : 		--(*(_Mybase *)this);
; 424  : 		return (*this);
; 425  : 		}
; 426  : 
; 427  : 	_Myiter operator--(int)
; 428  : 		{	// postdecrement
; 429  : 		_Myiter _Tmp = *this;
; 430  : 		--*this;
; 431  : 		return (_Tmp);
; 432  : 		}
; 433  : 	};
; 434  : 
; 435  : template<class _Mytree> inline
; 436  : 	typename _Tree_iterator<_Mytree>::_Unchecked_type
; 437  : 		_Unchecked(_Tree_iterator<_Mytree> _Iter)
; 438  : 	{	// convert to unchecked
; 439  : 	return (_Iter._Unchecked());
; 440  : 	}
; 441  : 
; 442  : template<class _Mytree> inline
; 443  : 	_Tree_iterator<_Mytree>&
; 444  : 		_Rechecked(_Tree_iterator<_Mytree>& _Iter,
; 445  : 			typename _Tree_iterator<_Mytree>
; 446  : 				::_Unchecked_type _Right)
; 447  : 	{	// convert to checked
; 448  : 	return (_Iter._Rechecked(_Right));
; 449  : 	}
; 450  : 
; 451  : 		// tree TYPE WRAPPERS
; 452  : template<class _Value_type,
; 453  : 	class _Size_type,
; 454  : 	class _Difference_type,
; 455  : 	class _Pointer,
; 456  : 	class _Const_pointer,
; 457  : 	class _Reference,
; 458  : 	class _Const_reference,
; 459  : 	class _Nodeptr_type>
; 460  : 	struct _Tree_iter_types
; 461  : 	{	// wraps types needed by iterators
; 462  : 	typedef _Value_type value_type;
; 463  : 	typedef _Size_type size_type;
; 464  : 	typedef _Difference_type difference_type;
; 465  : 	typedef _Pointer pointer;
; 466  : 	typedef _Const_pointer const_pointer;
; 467  : 	typedef _Reference reference;
; 468  : 	typedef _Const_reference const_reference;
; 469  : 	typedef _Nodeptr_type _Nodeptr;
; 470  : 	};
; 471  : 
; 472  : template<class _Value_type,
; 473  : 	class _Voidptr>
; 474  : 	struct _Tree_node
; 475  : 		{	// tree node
; 476  : 		_Voidptr _Left;	// left subtree, or smallest element if head
; 477  : 		_Voidptr _Parent;	// parent, or root of tree if head
; 478  : 		_Voidptr _Right;	// right subtree, or largest element if head
; 479  : 		char _Color;	// _Red or _Black, _Black if head
; 480  : 		char _Isnil;	// true only if head (also nil) node
; 481  : 		_Value_type _Myval;	// the stored value, unused if head
; 482  : 
; 483  : 	private:
; 484  : 		_Tree_node& operator=(const _Tree_node&);
; 485  : 		};
; 486  : 
; 487  : template<class _Value_type>
; 488  : 	struct _Tree_node<_Value_type, void *>
; 489  : 		{	// tree node
; 490  : 		typedef _Tree_node<_Value_type, void *> *_Nodeptr;
; 491  : 		_Nodeptr _Left;	// left subtree, or smallest element if head
; 492  : 		_Nodeptr _Parent;	// parent, or root of tree if head
; 493  : 		_Nodeptr _Right;	// right subtree, or largest element if head
; 494  : 		char _Color;	// _Red or _Black, _Black if head
; 495  : 		char _Isnil;	// true only if head (also nil) node
; 496  : 		_Value_type _Myval;	// the stored value, unused if head
; 497  : 
; 498  : 	private:
; 499  : 		_Tree_node& operator=(const _Tree_node&);
; 500  : 		};
; 501  : 
; 502  : template<class _Ty>
; 503  : 	struct _Tree_simple_types
; 504  : 		: public _Simple_types<_Ty>
; 505  : 	{	// wraps types needed by iterators
; 506  : 	typedef _Tree_node<_Ty, void *> _Node;
; 507  : 	typedef _Node *_Nodeptr;
; 508  : 	};
; 509  : 
; 510  : template<class _Ty,
; 511  : 	class _Alloc0>
; 512  : 	struct _Tree_base_types
; 513  : 	{	// types needed for a container base
; 514  : 	typedef _Alloc0 _Alloc;
; 515  : 	typedef _Tree_base_types<_Ty, _Alloc> _Myt;
; 516  : 
; 517  : 	typedef _Wrap_alloc<_Alloc> _Alty0;
; 518  : 	typedef typename _Alty0::template rebind<_Ty>::other _Alty;
; 519  : 
; 520  : 
; 521  : 	typedef typename _Get_voidptr<_Alty, typename _Alty::pointer>::type
; 522  : 		_Voidptr;
; 523  : 	typedef _Tree_node<typename _Alty::value_type,
; 524  : 		_Voidptr> _Node;
; 525  : 
; 526  : 	typedef typename _Alty::template rebind<_Node>::other _Alnod_type;
; 527  : 	typedef typename _Alnod_type::pointer _Nodeptr;
; 528  : 	typedef _Nodeptr& _Nodepref;
; 529  : 
; 530  : 	typedef typename _If<_Is_simple_alloc<_Alty>::value,
; 531  : 		_Tree_simple_types<typename _Alty::value_type>,
; 532  : 		_Tree_iter_types<typename _Alty::value_type,
; 533  : 			typename _Alty::size_type,
; 534  : 			typename _Alty::difference_type,
; 535  : 			typename _Alty::pointer,
; 536  : 			typename _Alty::const_pointer,
; 537  : 			typename _Alty::reference,
; 538  : 			typename _Alty::const_reference,
; 539  : 			_Nodeptr> >::type
; 540  : 		_Val_types;
; 541  : 	};
; 542  : 
; 543  : 		// TEMPLATE CLASS _Tree_val
; 544  : template<class _Val_types>
; 545  : 	class _Tree_val
; 546  : 		: public _Container_base
; 547  : 	{	// base class for tree to hold data
; 548  : public:
; 549  : 	typedef _Tree_val<_Val_types> _Myt;
; 550  : 
; 551  : 	typedef typename _Val_types::_Nodeptr _Nodeptr;
; 552  : 	typedef _Nodeptr& _Nodepref;
; 553  : 
; 554  : 	typedef typename _Val_types::value_type value_type;
; 555  : 	typedef typename _Val_types::size_type size_type;
; 556  : 	typedef typename _Val_types::difference_type difference_type;
; 557  : 	typedef typename _Val_types::pointer pointer;
; 558  : 	typedef typename _Val_types::const_pointer const_pointer;
; 559  : 	typedef typename _Val_types::reference reference;
; 560  : 	typedef typename _Val_types::const_reference const_reference;
; 561  : 
; 562  : 	typedef _Tree_const_iterator<_Myt> const_iterator;
; 563  : 	typedef _Tree_iterator<_Myt> iterator;
; 564  : 
; 565  : 	_Tree_val()
; 566  : 		{	// initialize data
; 567  : 		this->_Myhead = 0;
; 568  : 		this->_Mysize = 0;
; 569  : 		}
; 570  : 
; 571  : 	enum _Redbl
; 572  : 		{	// colors for link to parent
; 573  : 		_Red, _Black};
; 574  : 
; 575  : 	static char& _Color(_Nodeptr _Pnode)
; 576  : 		{	// return reference to color in node
; 577  : 		return ((char&)_Pnode->_Color);
; 578  : 		}
; 579  : 
; 580  : 	static char& _Isnil(_Nodeptr _Pnode)
; 581  : 		{	// return reference to nil flag in node
; 582  : 		return ((char&)_Pnode->_Isnil);
; 583  : 		}
; 584  : 
; 585  : 	static _Nodepref _Left(_Nodeptr _Pnode)
; 586  : 		{	// return reference to left pointer in node
; 587  : 		return ((_Nodepref)_Pnode->_Left);
; 588  : 		}
; 589  : 
; 590  : 	static _Nodepref _Parent(_Nodeptr _Pnode)
; 591  : 		{	// return reference to parent pointer in node
; 592  : 		return ((_Nodepref)_Pnode->_Parent);

  00040	89 4d e4	 mov	 DWORD PTR tv734[ebp], ecx

; 1800 : 		_TRY_BEGIN
; 1801 : 		_Nodeptr _Trynode = _Root();

  00043	8b 41 04	 mov	 eax, DWORD PTR [ecx+4]

; 1802 : 		_Nodeptr _Wherenode = this->_Myhead();
; 1803 : 		bool _Addleft = true;	// add to left of head if tree empty

  00046	88 55 ec	 mov	 BYTE PTR __Addleft$2[ebp], dl

; 1804 : 
; 1805 : 		while (!this->_Isnil(_Trynode))

  00049	80 78 0d 00	 cmp	 BYTE PTR [eax+13], 0
  0004d	75 30		 jne	 SHORT $LN3@Insert_noh
  0004f	8a 0b		 mov	 cl, BYTE PTR [ebx]
  00051	8a 6d 0c	 mov	 ch, BYTE PTR __Leftish$[ebp]
$LL2@Insert_noh:

; 1806 : 			{	// look for leaf to insert before (_Addleft) or after
; 1807 : 			_Wherenode = _Trynode;

  00054	8b f8		 mov	 edi, eax

; 1808 : 			if (_Leftish)

  00056	84 ed		 test	 ch, ch
  00058	74 08		 je	 SHORT $LN5@Insert_noh
; File c:\program files (x86)\microsoft visual studio 14.0\vc\include\xstddef

; 240  : 		return (_Left < _Right);

  0005a	38 48 10	 cmp	 BYTE PTR [eax+16], cl
; File c:\program files (x86)\microsoft visual studio 14.0\vc\include\xtree

; 1809 : 				_Addleft = !_DEBUG_LT_PRED(this->_Getcomp(),

  0005d	0f 93 c2	 setae	 dl

; 1810 : 					this->_Key(_Trynode),
; 1811 : 					this->_Kfn(_Val));	// favor left end
; 1812 : 			else

  00060	eb 06		 jmp	 SHORT $LN336@Insert_noh
$LN5@Insert_noh:
; File c:\program files (x86)\microsoft visual studio 14.0\vc\include\xstddef

; 240  : 		return (_Left < _Right);

  00062	3a 48 10	 cmp	 cl, BYTE PTR [eax+16]
  00065	0f 92 c2	 setb	 dl
$LN336@Insert_noh:
; File c:\program files (x86)\microsoft visual studio 14.0\vc\include\xtree

; 1813 : 				_Addleft = _DEBUG_LT_PRED(this->_Getcomp(),

  00068	88 55 ec	 mov	 BYTE PTR __Addleft$2[ebp], dl

; 1814 : 					this->_Kfn(_Val),
; 1815 : 					this->_Key(_Trynode));	// favor right end
; 1816 : 			_Trynode = _Addleft ? this->_Left(_Trynode)

  0006b	84 d2		 test	 dl, dl
  0006d	74 04		 je	 SHORT $LN16@Insert_noh
  0006f	8b 00		 mov	 eax, DWORD PTR [eax]
  00071	eb 03		 jmp	 SHORT $LN17@Insert_noh
$LN16@Insert_noh:
  00073	8b 40 08	 mov	 eax, DWORD PTR [eax+8]
$LN17@Insert_noh:

; 1804 : 
; 1805 : 		while (!this->_Isnil(_Trynode))

  00076	80 78 0d 00	 cmp	 BYTE PTR [eax+13], 0
  0007a	74 d8		 je	 SHORT $LL2@Insert_noh
  0007c	8b 4d e4	 mov	 ecx, DWORD PTR tv734[ebp]
$LN3@Insert_noh:

; 43   : 		: _Ptr(_Pnode)

  0007f	8b f7		 mov	 esi, edi
  00081	89 75 0c	 mov	 DWORD PTR __Where$4[ebp], esi

; 1817 : 				: this->_Right(_Trynode);
; 1818 : 			}
; 1819 : 
; 1820 : 		if (this->_Multi)
; 1821 : 			return (_Pairib(_Insert_at(_Addleft, _Wherenode,
; 1822 : 				_STD forward<_Valty>(_Val), _Newnode), true));
; 1823 : 		else
; 1824 : 			{	// insert only if unique
; 1825 : 			iterator _Where = iterator(_Wherenode, &this->_Get_data());
; 1826 : 			if (!_Addleft)

  00084	84 d2		 test	 dl, dl
  00086	74 41		 je	 SHORT $LN12@Insert_noh

; 309  :  #endif /* _ITERATOR_DEBUG_LEVEL */
; 310  : 
; 311  : 		return (*this);
; 312  : 		}
; 313  : 
; 314  : 	_Myiter operator--(int)
; 315  : 		{	// postdecrement
; 316  : 		_Myiter _Tmp = *this;
; 317  : 		--*this;
; 318  : 		return (_Tmp);
; 319  : 		}
; 320  : 
; 321  : 	bool operator==(const _Myiter& _Right) const
; 322  : 		{	// test for iterator equality
; 323  :  #if _ITERATOR_DEBUG_LEVEL == 2
; 324  : 		if (this->_Getcont() != _Right._Getcont())
; 325  : 			{	// report error
; 326  : 			_DEBUG_ERROR("map/set iterators incompatible");
; 327  : 			_SCL_SECURE_INVALID_ARGUMENT;
; 328  : 			}
; 329  : 
; 330  :  #elif _ITERATOR_DEBUG_LEVEL == 1
; 331  : 		_SCL_SECURE_VALIDATE(this->_Getcont() == _Right._Getcont());
; 332  :  #endif /* _ITERATOR_DEBUG_LEVEL */
; 333  : 
; 334  : 		return (this->_Ptr == _Right._Ptr);

  00088	3b 39		 cmp	 edi, DWORD PTR [ecx]

; 1827 : 				;	// need to test if insert after is okay
; 1828 : 			else if (_Where == begin())

  0008a	75 32		 jne	 SHORT $LN11@Insert_noh

; 1829 : 				return (_Pairib(_Insert_at(true, _Wherenode,

  0008c	ff 75 14	 push	 DWORD PTR __Newnode$[ebp]
  0008f	53		 push	 ebx
  00090	57		 push	 edi
  00091	6a 01		 push	 1
$LN337@Insert_noh:
  00093	8b 4d e8	 mov	 ecx, DWORD PTR _this$1$[ebp]
  00096	8d 45 0c	 lea	 eax, DWORD PTR $T3[ebp]
  00099	50		 push	 eax
  0009a	e8 00 00 00 00	 call	 ??$_Insert_at@AAU?$pair@$$CBEUQUESTEX_PROGRESS_GROUP@@@std@@PAU?$_Tree_node@U?$pair@$$CBEUQUESTEX_PROGRESS_GROUP@@@std@@PAX@2@@?$_Tree@V?$_Tmap_traits@EUQUESTEX_PROGRESS_GROUP@@U?$less@E@std@@V?$allocator@U?$pair@$$CBEUQUESTEX_PROGRESS_GROUP@@@std@@@3@$0A@@std@@@std@@IAE?AV?$_Tree_iterator@V?$_Tree_val@U?$_Tree_simple_types@U?$pair@$$CBEUQUESTEX_PROGRESS_GROUP@@@std@@@std@@@std@@@1@_NPAU?$_Tree_node@U?$pair@$$CBEUQUESTEX_PROGRESS_GROUP@@@std@@PAX@1@AAU?$pair@$$CBEUQUESTEX_PROGRESS_GROUP@@@1@1@Z ; std::_Tree<std::_Tmap_traits<unsigned char,QUESTEX_PROGRESS_GROUP,std::less<unsigned char>,std::allocator<std::pair<unsigned char const ,QUESTEX_PROGRESS_GROUP> >,0> >::_Insert_at<std::pair<unsigned char const ,QUESTEX_PROGRESS_GROUP> &,std::_Tree_node<std::pair<unsigned char const ,QUESTEX_PROGRESS_GROUP>,void *> *>
; File c:\program files (x86)\microsoft visual studio 14.0\vc\include\utility

; 143  : 		: first(_STD forward<_Other1>(_Val1)),

  0009f	8b 08		 mov	 ecx, DWORD PTR [eax]
  000a1	8b 45 08	 mov	 eax, DWORD PTR ___$ReturnUdt$[ebp]
  000a4	89 08		 mov	 DWORD PTR [eax], ecx

; 144  : 				second(_STD forward<_Other2>(_Val2))

  000a6	c6 40 04 01	 mov	 BYTE PTR [eax+4], 1
; File c:\program files (x86)\microsoft visual studio 14.0\vc\include\xtree

; 1849 : 		}

  000aa	8b 4d f4	 mov	 ecx, DWORD PTR __$EHRec$[ebp+4]
  000ad	64 89 0d 00 00
	00 00		 mov	 DWORD PTR fs:0, ecx
  000b4	59		 pop	 ecx
  000b5	5f		 pop	 edi
  000b6	5e		 pop	 esi
  000b7	5b		 pop	 ebx
  000b8	8b e5		 mov	 esp, ebp
  000ba	5d		 pop	 ebp
  000bb	c2 10 00	 ret	 16			; 00000010H
$LN11@Insert_noh:

; 44   : 		{	// construct with node pointer _Pnode
; 45   : 		this->_Adopt(_Plist);
; 46   : 		}
; 47   : 
; 48   : 	reference operator*() const
; 49   : 		{	// return designated value
; 50   : 		return (_Mytree::_Myval(_Ptr));
; 51   : 		}
; 52   : 
; 53   : 	pointer operator->() const
; 54   : 		{	// return pointer to class object
; 55   : 		return (_STD pointer_traits<pointer>::pointer_to(**this));
; 56   : 		}
; 57   : 
; 58   : 	_Myiter& operator++()
; 59   : 		{	// preincrement
; 60   : 		if (_Mytree::_Isnil(_Ptr))
; 61   : 			;	// end() shouldn't be incremented, don't move
; 62   : 		else if (!_Mytree::_Isnil(_Mytree::_Right(_Ptr)))
; 63   : 			_Ptr = _Mytree::_Min(
; 64   : 				_Mytree::_Right(_Ptr));	// ==> smallest of right subtree
; 65   : 		else
; 66   : 			{	// climb looking for right subtree
; 67   : 			_Nodeptr _Pnode;
; 68   : 			while (!_Mytree::_Isnil(_Pnode = _Mytree::_Parent(_Ptr))
; 69   : 				&& _Ptr == _Mytree::_Right(_Pnode))
; 70   : 				_Ptr = _Pnode;	// ==> parent while right subtree
; 71   : 			_Ptr = _Pnode;	// ==> parent (head if end())
; 72   : 			}
; 73   : 		return (*this);
; 74   : 		}
; 75   : 
; 76   : 	_Myiter operator++(int)
; 77   : 		{	// postincrement
; 78   : 		_Myiter _Tmp = *this;
; 79   : 		++*this;
; 80   : 		return (_Tmp);
; 81   : 		}
; 82   : 
; 83   : 	_Myiter& operator--()
; 84   : 		{	// predecrement
; 85   : 		if (_Mytree::_Isnil(_Ptr))
; 86   : 			_Ptr = _Mytree::_Right(_Ptr);	// end() ==> rightmost
; 87   : 		else if (!_Mytree::_Isnil(_Mytree::_Left(_Ptr)))
; 88   : 			_Ptr = _Mytree::_Max(
; 89   : 				_Mytree::_Left(_Ptr));	// ==> largest of left subtree
; 90   : 		else
; 91   : 			{	// climb looking for left subtree
; 92   : 			_Nodeptr _Pnode;
; 93   : 			while (!_Mytree::_Isnil(_Pnode = _Mytree::_Parent(_Ptr))
; 94   : 				&& _Ptr == _Mytree::_Left(_Pnode))
; 95   : 				_Ptr = _Pnode;	// ==> parent while left subtree
; 96   : 			if (_Mytree::_Isnil(_Ptr))
; 97   : 				;	// begin() shouldn't be decremented, don't move
; 98   : 			else
; 99   : 				_Ptr = _Pnode;	// ==> parent if not head
; 100  : 			}
; 101  : 		return (*this);
; 102  : 		}
; 103  : 
; 104  : 	_Myiter operator--(int)
; 105  : 		{	// postdecrement
; 106  : 		_Myiter _Tmp = *this;
; 107  : 		--*this;
; 108  : 		return (_Tmp);
; 109  : 		}
; 110  : 
; 111  : 	bool operator==(const _Myiter& _Right) const
; 112  : 		{	// test for iterator equality
; 113  : 		return (_Ptr == _Right._Ptr);
; 114  : 		}
; 115  : 
; 116  : 	bool operator!=(const _Myiter& _Right) const
; 117  : 		{	// test for iterator inequality
; 118  : 		return (!(*this == _Right));
; 119  : 		}
; 120  : 
; 121  : 	_Nodeptr _Mynode() const
; 122  : 		{	// return node pointer
; 123  : 		return (_Ptr);
; 124  : 		}
; 125  : 
; 126  : 	_Nodeptr _Ptr;	// pointer to node
; 127  : 	};
; 128  : 
; 129  : 	// TEMPLATE CLASS _Tree_unchecked_iterator
; 130  : template<class _Mytree>
; 131  : 	class _Tree_unchecked_iterator
; 132  : 		: public _Tree_unchecked_const_iterator<_Mytree>
; 133  : 	{	// unchecked iterator for mutable tree
; 134  : public:
; 135  : 	typedef _Tree_unchecked_iterator<_Mytree> _Myiter;
; 136  : 	typedef _Tree_unchecked_const_iterator<_Mytree> _Mybase;
; 137  : 	typedef bidirectional_iterator_tag iterator_category;
; 138  : 
; 139  : 	typedef typename _Mytree::_Nodeptr _Nodeptr;
; 140  : 	typedef typename _Mytree::value_type value_type;
; 141  : 	typedef typename _Mytree::difference_type difference_type;
; 142  : 	typedef typename _Mytree::pointer pointer;
; 143  : 	typedef typename _Mytree::reference reference;
; 144  : 
; 145  : 	_Tree_unchecked_iterator()
; 146  : 		{	// construct with null node
; 147  : 		}
; 148  : 
; 149  : 	_Tree_unchecked_iterator(_Nodeptr _Pnode, const _Mytree *_Plist)
; 150  : 		: _Mybase(_Pnode, _Plist)
; 151  : 		{	// construct with node pointer _Pnode
; 152  : 		}
; 153  : 
; 154  : 	reference operator*() const
; 155  : 		{	// return designated value
; 156  : 		return ((reference)**(_Mybase *)this);
; 157  : 		}
; 158  : 
; 159  : 	pointer operator->() const
; 160  : 		{	// return pointer to class object
; 161  : 		return (_STD pointer_traits<pointer>::pointer_to(**this));
; 162  : 		}
; 163  : 
; 164  : 	_Myiter& operator++()
; 165  : 		{	// preincrement
; 166  : 		++(*(_Mybase *)this);
; 167  : 		return (*this);
; 168  : 		}
; 169  : 
; 170  : 	_Myiter operator++(int)
; 171  : 		{	// postincrement
; 172  : 		_Myiter _Tmp = *this;
; 173  : 		++*this;
; 174  : 		return (_Tmp);
; 175  : 		}
; 176  : 
; 177  : 	_Myiter& operator--()
; 178  : 		{	// predecrement
; 179  : 		--(*(_Mybase *)this);
; 180  : 		return (*this);
; 181  : 		}
; 182  : 
; 183  : 	_Myiter operator--(int)
; 184  : 		{	// postdecrement
; 185  : 		_Myiter _Tmp = *this;
; 186  : 		--*this;
; 187  : 		return (_Tmp);
; 188  : 		}
; 189  : 	};
; 190  : 
; 191  : 	// TEMPLATE CLASS _Tree_const_iterator
; 192  : template<class _Mytree>
; 193  : 	class _Tree_const_iterator
; 194  : 		: public _Tree_unchecked_const_iterator<_Mytree, _Iterator_base>
; 195  : 	{	// iterator for nonmutable tree
; 196  : public:
; 197  : 	typedef _Tree_const_iterator<_Mytree> _Myiter;
; 198  : 	typedef _Tree_unchecked_const_iterator<_Mytree, _Iterator_base> _Mybase;
; 199  : 	typedef bidirectional_iterator_tag iterator_category;
; 200  : 
; 201  : 	typedef typename _Mytree::_Nodeptr _Nodeptr;
; 202  : 	typedef typename _Mytree::value_type value_type;
; 203  : 	typedef typename _Mytree::difference_type difference_type;
; 204  : 	typedef typename _Mytree::const_pointer pointer;
; 205  : 	typedef typename _Mytree::const_reference reference;
; 206  : 
; 207  : 	_Tree_const_iterator()
; 208  : 		: _Mybase()
; 209  : 		{	// construct with null node pointer
; 210  : 		}
; 211  : 
; 212  : 	_Tree_const_iterator(_Nodeptr _Pnode, const _Mytree *_Plist)
; 213  : 		: _Mybase(_Pnode, _Plist)
; 214  : 		{	// construct with node pointer _Pnode
; 215  : 		}
; 216  : 
; 217  : 	typedef _Tree_unchecked_const_iterator<_Mytree> _Unchecked_type;
; 218  : 
; 219  : 	_Myiter& _Rechecked(_Unchecked_type _Right)
; 220  : 		{	// reset from unchecked iterator
; 221  : 		this->_Ptr = _Right._Ptr;
; 222  : 		return (*this);
; 223  : 		}
; 224  : 
; 225  : 	_Unchecked_type _Unchecked() const
; 226  : 		{	// make an unchecked iterator
; 227  : 		return (_Unchecked_type(this->_Ptr, (_Mytree *)this->_Getcont()));
; 228  : 		}
; 229  : 
; 230  : 	reference operator*() const
; 231  : 		{	// return designated value
; 232  :  #if _ITERATOR_DEBUG_LEVEL == 2
; 233  : 		if (this->_Getcont() == 0
; 234  : 			|| this->_Ptr == 0
; 235  : 			|| this->_Ptr == ((_Mytree *)this->_Getcont())->_Myhead)
; 236  : 			{	// report error
; 237  : 			_DEBUG_ERROR("map/set iterator not dereferencable");
; 238  : 			_SCL_SECURE_OUT_OF_RANGE;
; 239  : 			}
; 240  : 
; 241  :  #elif _ITERATOR_DEBUG_LEVEL == 1
; 242  : 		_SCL_SECURE_VALIDATE(this->_Getcont() != 0 && this->_Ptr != 0);
; 243  : 		_SCL_SECURE_VALIDATE_RANGE(this->_Ptr !=
; 244  : 			((_Mytree *)this->_Getcont())->_Myhead);
; 245  :  #endif /* _ITERATOR_DEBUG_LEVEL */
; 246  : 
; 247  : 		return (_Mytree::_Myval(this->_Ptr));
; 248  : 		}
; 249  : 
; 250  : 	pointer operator->() const
; 251  : 		{	// return pointer to class object
; 252  : 		return (_STD pointer_traits<pointer>::pointer_to(**this));
; 253  : 		}
; 254  : 
; 255  : 	_Myiter& operator++()
; 256  : 		{	// preincrement
; 257  :  #if _ITERATOR_DEBUG_LEVEL == 2
; 258  : 		if (this->_Getcont() == 0
; 259  : 			|| this->_Ptr == 0
; 260  : 			|| _Mytree::_Isnil(this->_Ptr))
; 261  : 			{	// report error
; 262  : 			_DEBUG_ERROR("map/set iterator not incrementable");
; 263  : 			_SCL_SECURE_OUT_OF_RANGE;
; 264  : 			}
; 265  : 
; 266  :  #elif _ITERATOR_DEBUG_LEVEL == 1
; 267  : 		_SCL_SECURE_VALIDATE(this->_Getcont() != 0 && this->_Ptr != 0);
; 268  : 		_SCL_SECURE_VALIDATE_RANGE(!_Mytree::_Isnil(this->_Ptr));
; 269  :  #endif /* _ITERATOR_DEBUG_LEVEL */
; 270  : 
; 271  : 		++(*(_Mybase *)this);
; 272  : 		return (*this);
; 273  : 		}
; 274  : 
; 275  : 	_Myiter operator++(int)
; 276  : 		{	// postincrement
; 277  : 		_Myiter _Tmp = *this;
; 278  : 		++*this;
; 279  : 		return (_Tmp);
; 280  : 		}
; 281  : 
; 282  : 	_Myiter& operator--()
; 283  : 		{	// predecrement
; 284  :  #if _ITERATOR_DEBUG_LEVEL == 2
; 285  : 		if (this->_Getcont() == 0
; 286  : 			|| this->_Ptr == 0)
; 287  : 			{	// report error
; 288  : 			_DEBUG_ERROR("map/set iterator not decrementable");
; 289  : 			_SCL_SECURE_OUT_OF_RANGE;
; 290  : 			}
; 291  : 
; 292  : 		_Nodeptr _Ptrsav = this->_Ptr;
; 293  : 		--(*(_Mybase *)this);
; 294  : 		if (_Ptrsav == this->_Ptr)
; 295  : 			{	// report error
; 296  : 			_DEBUG_ERROR("map/set iterator not decrementable");
; 297  : 			_SCL_SECURE_OUT_OF_RANGE;
; 298  : 			}
; 299  : 
; 300  :  #elif _ITERATOR_DEBUG_LEVEL == 1
; 301  : 		_SCL_SECURE_VALIDATE(this->_Getcont() != 0 && this->_Ptr != 0);
; 302  : 
; 303  : 		_Nodeptr _Ptrsav = this->_Ptr;
; 304  : 		--(*(_Mybase *)this);
; 305  : 		_SCL_SECURE_VALIDATE(_Ptrsav != this->_Ptr);
; 306  : 
; 307  :  #else /* _ITERATOR_DEBUG_LEVEL == 0 */
; 308  : 		--(*(_Mybase *)this);

  000be	8d 4d 0c	 lea	 ecx, DWORD PTR __Where$4[ebp]
  000c1	e8 00 00 00 00	 call	 ??F?$_Tree_unchecked_const_iterator@V?$_Tree_val@U?$_Tree_simple_types@U?$pair@$$CBEUQUESTEX_PROGRESS_GROUP@@@std@@@std@@@std@@U_Iterator_base0@2@@std@@QAEAAV01@XZ ; std::_Tree_unchecked_const_iterator<std::_Tree_val<std::_Tree_simple_types<std::pair<unsigned char const ,QUESTEX_PROGRESS_GROUP> > >,std::_Iterator_base0>::operator--
  000c6	8b 75 0c	 mov	 esi, DWORD PTR __Where$4[ebp]
$LN12@Insert_noh:
; File c:\program files (x86)\microsoft visual studio 14.0\vc\include\xstddef

; 240  : 		return (_Left < _Right);

  000c9	8a 46 10	 mov	 al, BYTE PTR [esi+16]
; File c:\program files (x86)\microsoft visual studio 14.0\vc\include\xtree

; 1837 : 				return (_Pairib(_Insert_at(_Addleft, _Wherenode,

  000cc	ff 75 14	 push	 DWORD PTR __Newnode$[ebp]
; File c:\program files (x86)\microsoft visual studio 14.0\vc\include\xstddef

; 240  : 		return (_Left < _Right);

  000cf	3a 03		 cmp	 al, BYTE PTR [ebx]
; File c:\program files (x86)\microsoft visual studio 14.0\vc\include\xtree

; 1834 : 			if (_DEBUG_LT_PRED(this->_Getcomp(),

  000d1	73 1b		 jae	 SHORT $LN13@Insert_noh

; 1837 : 				return (_Pairib(_Insert_at(_Addleft, _Wherenode,

  000d3	53		 push	 ebx
  000d4	57		 push	 edi
  000d5	ff 75 ec	 push	 DWORD PTR __Addleft$2[ebp]
  000d8	eb b9		 jmp	 SHORT $LN337@Insert_noh
__catch$??$_Insert_nohint@AAU?$pair@$$CBEUQUESTEX_PROGRESS_GROUP@@@std@@PAU?$_Tree_node@U?$pair@$$CBEUQUESTEX_PROGRESS_GROUP@@@std@@PAX@2@@?$_Tree@V?$_Tmap_traits@EUQUESTEX_PROGRESS_GROUP@@U?$less@E@std@@V?$allocator@U?$pair@$$CBEUQUESTEX_PROGRESS_GROUP@@@std@@@3@$0A@@std@@@std@@IAE?AU?$pair@V?$_Tree_iterator@V?$_Tree_val@U?$_Tree_simple_types@U?$pair@$$CBEUQUESTEX_PROGRESS_GROUP@@@std@@@std@@@std@@@std@@_N@1@_NAAU?$pair@$$CBEUQUESTEX_PROGRESS_GROUP@@@1@PAU?$_Tree_node@U?$pair@$$CBEUQUESTEX_PROGRESS_GROUP@@@std@@PAX@1@@Z$0:
; File c:\program files (x86)\microsoft visual studio 14.0\vc\include\xmemory0

; 138  : 	::operator delete(_Ptr);

  000da	ff 75 14	 push	 DWORD PTR __Newnode$[ebp]
  000dd	e8 00 00 00 00	 call	 ??3@YAXPAX@Z		; operator delete
  000e2	83 c4 04	 add	 esp, 4
; File c:\program files (x86)\microsoft visual studio 14.0\vc\include\xtree

; 1847 : 		_RERAISE;

  000e5	6a 00		 push	 0
  000e7	6a 00		 push	 0
  000e9	e8 00 00 00 00	 call	 __CxxThrowException@8
$LN338@Insert_noh:
$LN13@Insert_noh:
; File c:\program files (x86)\microsoft visual studio 14.0\vc\include\xmemory0

; 138  : 	::operator delete(_Ptr);

  000ee	e8 00 00 00 00	 call	 ??3@YAXPAX@Z		; operator delete
; File c:\program files (x86)\microsoft visual studio 14.0\vc\include\utility

; 143  : 		: first(_STD forward<_Other1>(_Val1)),

  000f3	8b 45 08	 mov	 eax, DWORD PTR ___$ReturnUdt$[ebp]
; File c:\program files (x86)\microsoft visual studio 14.0\vc\include\xmemory0

; 138  : 	::operator delete(_Ptr);

  000f6	83 c4 04	 add	 esp, 4
; File c:\program files (x86)\microsoft visual studio 14.0\vc\include\utility

; 143  : 		: first(_STD forward<_Other1>(_Val1)),

  000f9	89 30		 mov	 DWORD PTR [eax], esi

; 144  : 				second(_STD forward<_Other2>(_Val2))

  000fb	c6 40 04 00	 mov	 BYTE PTR [eax+4], 0
; File c:\program files (x86)\microsoft visual studio 14.0\vc\include\xtree

; 1849 : 		}

  000ff	8b 4d f4	 mov	 ecx, DWORD PTR __$EHRec$[ebp+4]
  00102	64 89 0d 00 00
	00 00		 mov	 DWORD PTR fs:0, ecx
  00109	59		 pop	 ecx
  0010a	5f		 pop	 edi
  0010b	5e		 pop	 esi
  0010c	5b		 pop	 ebx
  0010d	8b e5		 mov	 esp, ebp
  0010f	5d		 pop	 ebp
  00110	c2 10 00	 ret	 16			; 00000010H
$LN335@Insert_noh:
_TEXT	ENDS
;	COMDAT text$x
text$x	SEGMENT
__ehhandler$??$_Insert_nohint@AAU?$pair@$$CBEUQUESTEX_PROGRESS_GROUP@@@std@@PAU?$_Tree_node@U?$pair@$$CBEUQUESTEX_PROGRESS_GROUP@@@std@@PAX@2@@?$_Tree@V?$_Tmap_traits@EUQUESTEX_PROGRESS_GROUP@@U?$less@E@std@@V?$allocator@U?$pair@$$CBEUQUESTEX_PROGRESS_GROUP@@@std@@@3@$0A@@std@@@std@@IAE?AU?$pair@V?$_Tree_iterator@V?$_Tree_val@U?$_Tree_simple_types@U?$pair@$$CBEUQUESTEX_PROGRESS_GROUP@@@std@@@std@@@std@@@std@@_N@1@_NAAU?$pair@$$CBEUQUESTEX_PROGRESS_GROUP@@@1@PAU?$_Tree_node@U?$pair@$$CBEUQUESTEX_PROGRESS_GROUP@@@std@@PAX@1@@Z:
  00000	8b 54 24 08	 mov	 edx, DWORD PTR [esp+8]
  00004	8d 42 0c	 lea	 eax, DWORD PTR [edx+12]
  00007	8b 4a e0	 mov	 ecx, DWORD PTR [edx-32]
  0000a	33 c8		 xor	 ecx, eax
  0000c	e8 00 00 00 00	 call	 @__security_check_cookie@4
  00011	b8 00 00 00 00	 mov	 eax, OFFSET __ehfuncinfo$??$_Insert_nohint@AAU?$pair@$$CBEUQUESTEX_PROGRESS_GROUP@@@std@@PAU?$_Tree_node@U?$pair@$$CBEUQUESTEX_PROGRESS_GROUP@@@std@@PAX@2@@?$_Tree@V?$_Tmap_traits@EUQUESTEX_PROGRESS_GROUP@@U?$less@E@std@@V?$allocator@U?$pair@$$CBEUQUESTEX_PROGRESS_GROUP@@@std@@@3@$0A@@std@@@std@@IAE?AU?$pair@V?$_Tree_iterator@V?$_Tree_val@U?$_Tree_simple_types@U?$pair@$$CBEUQUESTEX_PROGRESS_GROUP@@@std@@@std@@@std@@@std@@_N@1@_NAAU?$pair@$$CBEUQUESTEX_PROGRESS_GROUP@@@1@PAU?$_Tree_node@U?$pair@$$CBEUQUESTEX_PROGRESS_GROUP@@@std@@PAX@1@@Z
  00016	e9 00 00 00 00	 jmp	 ___CxxFrameHandler3
text$x	ENDS
??$_Insert_nohint@AAU?$pair@$$CBEUQUESTEX_PROGRESS_GROUP@@@std@@PAU?$_Tree_node@U?$pair@$$CBEUQUESTEX_PROGRESS_GROUP@@@std@@PAX@2@@?$_Tree@V?$_Tmap_traits@EUQUESTEX_PROGRESS_GROUP@@U?$less@E@std@@V?$allocator@U?$pair@$$CBEUQUESTEX_PROGRESS_GROUP@@@std@@@3@$0A@@std@@@std@@IAE?AU?$pair@V?$_Tree_iterator@V?$_Tree_val@U?$_Tree_simple_types@U?$pair@$$CBEUQUESTEX_PROGRESS_GROUP@@@std@@@std@@@std@@@std@@_N@1@_NAAU?$pair@$$CBEUQUESTEX_PROGRESS_GROUP@@@1@PAU?$_Tree_node@U?$pair@$$CBEUQUESTEX_PROGRESS_GROUP@@@std@@PAX@1@@Z ENDP ; std::_Tree<std::_Tmap_traits<unsigned char,QUESTEX_PROGRESS_GROUP,std::less<unsigned char>,std::allocator<std::pair<unsigned char const ,QUESTEX_PROGRESS_GROUP> >,0> >::_Insert_nohint<std::pair<unsigned char const ,QUESTEX_PROGRESS_GROUP> &,std::_Tree_node<std::pair<unsigned char const ,QUESTEX_PROGRESS_GROUP>,void *> *>
; Function compile flags: /Ogtp
; File c:\program files (x86)\microsoft visual studio 14.0\vc\include\xtree
; File c:\program files (x86)\microsoft visual studio 14.0\vc\include\xmemory0
; File c:\program files (x86)\microsoft visual studio 14.0\vc\include\xtree
;	COMDAT ??$_Insert_at@AAU?$pair@$$CBEUQUESTEX_PROGRESS_GROUP@@@std@@PAU?$_Tree_node@U?$pair@$$CBEUQUESTEX_PROGRESS_GROUP@@@std@@PAX@2@@?$_Tree@V?$_Tmap_traits@EUQUESTEX_PROGRESS_GROUP@@U?$less@E@std@@V?$allocator@U?$pair@$$CBEUQUESTEX_PROGRESS_GROUP@@@std@@@3@$0A@@std@@@std@@IAE?AV?$_Tree_iterator@V?$_Tree_val@U?$_Tree_simple_types@U?$pair@$$CBEUQUESTEX_PROGRESS_GROUP@@@std@@@std@@@std@@@1@_NPAU?$_Tree_node@U?$pair@$$CBEUQUESTEX_PROGRESS_GROUP@@@std@@PAX@1@AAU?$pair@$$CBEUQUESTEX_PROGRESS_GROUP@@@1@1@Z
_TEXT	SEGMENT
___$ReturnUdt$ = 8					; size = 4
__Addleft$ = 12						; size = 1
__Wherenode$ = 16					; size = 4
__Val$ = 20						; size = 4
__Node$ = 24						; size = 4
??$_Insert_at@AAU?$pair@$$CBEUQUESTEX_PROGRESS_GROUP@@@std@@PAU?$_Tree_node@U?$pair@$$CBEUQUESTEX_PROGRESS_GROUP@@@std@@PAX@2@@?$_Tree@V?$_Tmap_traits@EUQUESTEX_PROGRESS_GROUP@@U?$less@E@std@@V?$allocator@U?$pair@$$CBEUQUESTEX_PROGRESS_GROUP@@@std@@@3@$0A@@std@@@std@@IAE?AV?$_Tree_iterator@V?$_Tree_val@U?$_Tree_simple_types@U?$pair@$$CBEUQUESTEX_PROGRESS_GROUP@@@std@@@std@@@std@@@1@_NPAU?$_Tree_node@U?$pair@$$CBEUQUESTEX_PROGRESS_GROUP@@@std@@PAX@1@AAU?$pair@$$CBEUQUESTEX_PROGRESS_GROUP@@@1@1@Z PROC ; std::_Tree<std::_Tmap_traits<unsigned char,QUESTEX_PROGRESS_GROUP,std::less<unsigned char>,std::allocator<std::pair<unsigned char const ,QUESTEX_PROGRESS_GROUP> >,0> >::_Insert_at<std::pair<unsigned char const ,QUESTEX_PROGRESS_GROUP> &,std::_Tree_node<std::pair<unsigned char const ,QUESTEX_PROGRESS_GROUP>,void *> *>, COMDAT
; _this$ = ecx

; 1855 : 		{	// add node with value next to _Wherenode, to left if _Addleft

  00000	55		 push	 ebp
  00001	8b ec		 mov	 ebp, esp
  00003	53		 push	 ebx
  00004	56		 push	 esi
  00005	57		 push	 edi
  00006	8b f9		 mov	 edi, ecx

; 1856 : 		if (max_size() - 1 <= this->_Mysize())

  00008	8b 47 04	 mov	 eax, DWORD PTR [edi+4]
  0000b	3d 03 41 10 00	 cmp	 eax, 1065219		; 00104103H
  00010	0f 83 6e 01 00
	00		 jae	 $LN730@Insert_at

; 1860 : 			}
; 1861 : 		_Nodeptr _Newnode = _Buynode_if_nil(_Node,
; 1862 : 			_STD forward<_Valty>(_Val));
; 1863 : 
; 1864 : 		++this->_Mysize();
; 1865 : 		_Newnode->_Parent = _Wherenode;

  00016	8b 5d 18	 mov	 ebx, DWORD PTR __Node$[ebp]
  00019	40		 inc	 eax
  0001a	89 47 04	 mov	 DWORD PTR [edi+4], eax
  0001d	8b 45 10	 mov	 eax, DWORD PTR __Wherenode$[ebp]
  00020	89 43 04	 mov	 DWORD PTR [ebx+4], eax

; 1866 : 
; 1867 : 		if (_Wherenode == this->_Myhead())

  00023	8b 0f		 mov	 ecx, DWORD PTR [edi]
  00025	3b c1		 cmp	 eax, ecx
  00027	75 0e		 jne	 SHORT $LN6@Insert_at

; 1868 : 			{	// first node in tree, just set head values
; 1869 : 			_Root() = _Newnode;

  00029	89 59 04	 mov	 DWORD PTR [ecx+4], ebx

; 583  : 		}
; 584  : 
; 585  : 	static _Nodepref _Left(_Nodeptr _Pnode)
; 586  : 		{	// return reference to left pointer in node
; 587  : 		return ((_Nodepref)_Pnode->_Left);

  0002c	8b 07		 mov	 eax, DWORD PTR [edi]

; 1870 : 			_Lmost() = _Newnode;

  0002e	89 18		 mov	 DWORD PTR [eax], ebx

; 1871 : 			_Rmost() = _Newnode;

  00030	8b 07		 mov	 eax, DWORD PTR [edi]
  00032	89 58 08	 mov	 DWORD PTR [eax+8], ebx
  00035	eb 1f		 jmp	 SHORT $LN11@Insert_at
$LN6@Insert_at:

; 1872 : 			}
; 1873 : 		else if (_Addleft)

  00037	80 7d 0c 00	 cmp	 BYTE PTR __Addleft$[ebp], 0
  0003b	74 0c		 je	 SHORT $LN8@Insert_at

; 1874 : 			{	// add to left of _Wherenode
; 1875 : 			this->_Left(_Wherenode) = _Newnode;

  0003d	89 18		 mov	 DWORD PTR [eax], ebx

; 583  : 		}
; 584  : 
; 585  : 	static _Nodepref _Left(_Nodeptr _Pnode)
; 586  : 		{	// return reference to left pointer in node
; 587  : 		return ((_Nodepref)_Pnode->_Left);

  0003f	8b 0f		 mov	 ecx, DWORD PTR [edi]

; 1876 : 			if (_Wherenode == _Lmost())

  00041	3b 01		 cmp	 eax, DWORD PTR [ecx]
  00043	75 11		 jne	 SHORT $LN11@Insert_at

; 1877 : 				_Lmost() = _Newnode;

  00045	89 19		 mov	 DWORD PTR [ecx], ebx

; 1878 : 			}
; 1879 : 		else

  00047	eb 0d		 jmp	 SHORT $LN11@Insert_at
$LN8@Insert_at:

; 1880 : 			{	// add to right of _Wherenode
; 1881 : 			this->_Right(_Wherenode) = _Newnode;

  00049	89 58 08	 mov	 DWORD PTR [eax+8], ebx

; 593  : 		}
; 594  : 
; 595  : 	static _Nodepref _Right(_Nodeptr _Pnode)
; 596  : 		{	// return reference to right pointer in node
; 597  : 		return ((_Nodepref)_Pnode->_Right);

  0004c	8b 0f		 mov	 ecx, DWORD PTR [edi]

; 1882 : 			if (_Wherenode == _Rmost())

  0004e	3b 41 08	 cmp	 eax, DWORD PTR [ecx+8]
  00051	75 03		 jne	 SHORT $LN11@Insert_at

; 1883 : 				_Rmost() = _Newnode;

  00053	89 59 08	 mov	 DWORD PTR [ecx+8], ebx
$LN11@Insert_at:

; 1884 : 			}
; 1885 : 
; 1886 : 		for (_Nodeptr _Pnode = _Newnode;
; 1887 : 			this->_Color(this->_Parent(_Pnode)) == this->_Red; )

  00056	8b 43 04	 mov	 eax, DWORD PTR [ebx+4]
  00059	8b f3		 mov	 esi, ebx
  0005b	80 78 0c 00	 cmp	 BYTE PTR [eax+12], 0
  0005f	0f 85 0a 01 00
	00		 jne	 $LN3@Insert_at
$LL2@Insert_at:

; 588  : 		}
; 589  : 
; 590  : 	static _Nodepref _Parent(_Nodeptr _Pnode)
; 591  : 		{	// return reference to parent pointer in node
; 592  : 		return ((_Nodepref)_Pnode->_Parent);

  00065	8b 46 04	 mov	 eax, DWORD PTR [esi+4]

; 583  : 		}
; 584  : 
; 585  : 	static _Nodepref _Left(_Nodeptr _Pnode)
; 586  : 		{	// return reference to left pointer in node
; 587  : 		return ((_Nodepref)_Pnode->_Left);

  00068	8b 50 04	 mov	 edx, DWORD PTR [eax+4]

; 1888 : 			if (this->_Parent(_Pnode)
; 1889 : 				== this->_Left(this->_Parent(this->_Parent(_Pnode))))

  0006b	8b 0a		 mov	 ecx, DWORD PTR [edx]
  0006d	3b c1		 cmp	 eax, ecx
  0006f	75 74		 jne	 SHORT $LN12@Insert_at

; 1890 : 				{	// fixup red-red in left subtree
; 1891 : 				_Wherenode =

  00071	8b 4a 08	 mov	 ecx, DWORD PTR [edx+8]

; 1892 : 					this->_Right(this->_Parent(this->_Parent(_Pnode)));
; 1893 : 				if (this->_Color(_Wherenode) == this->_Red)

  00074	80 79 0c 00	 cmp	 BYTE PTR [ecx+12], 0
  00078	74 71		 je	 SHORT $LN729@Insert_at

; 1894 : 					{	// parent has two red children, blacken both
; 1895 : 					this->_Color(this->_Parent(_Pnode)) = this->_Black;
; 1896 : 					this->_Color(_Wherenode) = this->_Black;
; 1897 : 					this->_Color(this->_Parent(this->_Parent(_Pnode)))
; 1898 : 						= this->_Red;
; 1899 : 					_Pnode = this->_Parent(this->_Parent(_Pnode));
; 1900 : 					}
; 1901 : 				else
; 1902 : 					{	// parent has red and black children
; 1903 : 					if (_Pnode == this->_Right(this->_Parent(_Pnode)))

  0007a	3b 70 08	 cmp	 esi, DWORD PTR [eax+8]
  0007d	75 0a		 jne	 SHORT $LN16@Insert_at

; 1904 : 						{	// rotate right child to left
; 1905 : 						_Pnode = this->_Parent(_Pnode);

  0007f	8b f0		 mov	 esi, eax

; 1906 : 						_Lrotate(_Pnode);

  00081	8b cf		 mov	 ecx, edi
  00083	56		 push	 esi
  00084	e8 00 00 00 00	 call	 ?_Lrotate@?$_Tree@V?$_Tmap_traits@EUQUESTEX_PROGRESS_GROUP@@U?$less@E@std@@V?$allocator@U?$pair@$$CBEUQUESTEX_PROGRESS_GROUP@@@std@@@3@$0A@@std@@@std@@IAEXPAU?$_Tree_node@U?$pair@$$CBEUQUESTEX_PROGRESS_GROUP@@@std@@PAX@2@@Z ; std::_Tree<std::_Tmap_traits<unsigned char,QUESTEX_PROGRESS_GROUP,std::less<unsigned char>,std::allocator<std::pair<unsigned char const ,QUESTEX_PROGRESS_GROUP> >,0> >::_Lrotate
$LN16@Insert_at:

; 1907 : 						}
; 1908 : 					this->_Color(this->_Parent(_Pnode)) =

  00089	8b 46 04	 mov	 eax, DWORD PTR [esi+4]
  0008c	c6 40 0c 01	 mov	 BYTE PTR [eax+12], 1

; 1909 : 						this->_Black;	// propagate red up
; 1910 : 					this->_Color(this->_Parent(this->_Parent(_Pnode))) =

  00090	8b 46 04	 mov	 eax, DWORD PTR [esi+4]
  00093	8b 40 04	 mov	 eax, DWORD PTR [eax+4]
  00096	c6 40 0c 00	 mov	 BYTE PTR [eax+12], 0

; 1911 : 						this->_Red;
; 1912 : 					_Rrotate(this->_Parent(this->_Parent(_Pnode)));

  0009a	8b 46 04	 mov	 eax, DWORD PTR [esi+4]
  0009d	8b 48 04	 mov	 ecx, DWORD PTR [eax+4]

; 2126 : 		}
; 2127 : 
; 2128 : 	_Nodeptr& _Rmost() const
; 2129 : 		{	// return rightmost node in nonmutable tree
; 2130 : 		return (this->_Right(this->_Myhead()));
; 2131 : 		}
; 2132 : 
; 2133 : 	_Nodeptr& _Root() const
; 2134 : 		{	// return root of nonmutable tree
; 2135 : 		return (this->_Parent(this->_Myhead()));
; 2136 : 		}
; 2137 : 
; 2138 : 	void _Rrotate(_Nodeptr _Wherenode)
; 2139 : 		{	// promote left node to root of subtree
; 2140 : 		_Nodeptr _Pnode = this->_Left(_Wherenode);

  000a0	8b 11		 mov	 edx, DWORD PTR [ecx]

; 2141 : 		this->_Left(_Wherenode) = this->_Right(_Pnode);

  000a2	8b 42 08	 mov	 eax, DWORD PTR [edx+8]
  000a5	89 01		 mov	 DWORD PTR [ecx], eax

; 44   : 		{	// construct with node pointer _Pnode
; 45   : 		this->_Adopt(_Plist);
; 46   : 		}
; 47   : 
; 48   : 	reference operator*() const
; 49   : 		{	// return designated value
; 50   : 		return (_Mytree::_Myval(_Ptr));
; 51   : 		}
; 52   : 
; 53   : 	pointer operator->() const
; 54   : 		{	// return pointer to class object
; 55   : 		return (_STD pointer_traits<pointer>::pointer_to(**this));
; 56   : 		}
; 57   : 
; 58   : 	_Myiter& operator++()
; 59   : 		{	// preincrement
; 60   : 		if (_Mytree::_Isnil(_Ptr))
; 61   : 			;	// end() shouldn't be incremented, don't move
; 62   : 		else if (!_Mytree::_Isnil(_Mytree::_Right(_Ptr)))
; 63   : 			_Ptr = _Mytree::_Min(
; 64   : 				_Mytree::_Right(_Ptr));	// ==> smallest of right subtree
; 65   : 		else
; 66   : 			{	// climb looking for right subtree
; 67   : 			_Nodeptr _Pnode;
; 68   : 			while (!_Mytree::_Isnil(_Pnode = _Mytree::_Parent(_Ptr))
; 69   : 				&& _Ptr == _Mytree::_Right(_Pnode))
; 70   : 				_Ptr = _Pnode;	// ==> parent while right subtree
; 71   : 			_Ptr = _Pnode;	// ==> parent (head if end())
; 72   : 			}
; 73   : 		return (*this);
; 74   : 		}
; 75   : 
; 76   : 	_Myiter operator++(int)
; 77   : 		{	// postincrement
; 78   : 		_Myiter _Tmp = *this;
; 79   : 		++*this;
; 80   : 		return (_Tmp);
; 81   : 		}
; 82   : 
; 83   : 	_Myiter& operator--()
; 84   : 		{	// predecrement
; 85   : 		if (_Mytree::_Isnil(_Ptr))
; 86   : 			_Ptr = _Mytree::_Right(_Ptr);	// end() ==> rightmost
; 87   : 		else if (!_Mytree::_Isnil(_Mytree::_Left(_Ptr)))
; 88   : 			_Ptr = _Mytree::_Max(
; 89   : 				_Mytree::_Left(_Ptr));	// ==> largest of left subtree
; 90   : 		else
; 91   : 			{	// climb looking for left subtree
; 92   : 			_Nodeptr _Pnode;
; 93   : 			while (!_Mytree::_Isnil(_Pnode = _Mytree::_Parent(_Ptr))
; 94   : 				&& _Ptr == _Mytree::_Left(_Pnode))
; 95   : 				_Ptr = _Pnode;	// ==> parent while left subtree
; 96   : 			if (_Mytree::_Isnil(_Ptr))
; 97   : 				;	// begin() shouldn't be decremented, don't move
; 98   : 			else
; 99   : 				_Ptr = _Pnode;	// ==> parent if not head
; 100  : 			}
; 101  : 		return (*this);
; 102  : 		}
; 103  : 
; 104  : 	_Myiter operator--(int)
; 105  : 		{	// postdecrement
; 106  : 		_Myiter _Tmp = *this;
; 107  : 		--*this;
; 108  : 		return (_Tmp);
; 109  : 		}
; 110  : 
; 111  : 	bool operator==(const _Myiter& _Right) const
; 112  : 		{	// test for iterator equality
; 113  : 		return (_Ptr == _Right._Ptr);
; 114  : 		}
; 115  : 
; 116  : 	bool operator!=(const _Myiter& _Right) const
; 117  : 		{	// test for iterator inequality
; 118  : 		return (!(*this == _Right));
; 119  : 		}
; 120  : 
; 121  : 	_Nodeptr _Mynode() const
; 122  : 		{	// return node pointer
; 123  : 		return (_Ptr);
; 124  : 		}
; 125  : 
; 126  : 	_Nodeptr _Ptr;	// pointer to node
; 127  : 	};
; 128  : 
; 129  : 	// TEMPLATE CLASS _Tree_unchecked_iterator
; 130  : template<class _Mytree>
; 131  : 	class _Tree_unchecked_iterator
; 132  : 		: public _Tree_unchecked_const_iterator<_Mytree>
; 133  : 	{	// unchecked iterator for mutable tree
; 134  : public:
; 135  : 	typedef _Tree_unchecked_iterator<_Mytree> _Myiter;
; 136  : 	typedef _Tree_unchecked_const_iterator<_Mytree> _Mybase;
; 137  : 	typedef bidirectional_iterator_tag iterator_category;
; 138  : 
; 139  : 	typedef typename _Mytree::_Nodeptr _Nodeptr;
; 140  : 	typedef typename _Mytree::value_type value_type;
; 141  : 	typedef typename _Mytree::difference_type difference_type;
; 142  : 	typedef typename _Mytree::pointer pointer;
; 143  : 	typedef typename _Mytree::reference reference;
; 144  : 
; 145  : 	_Tree_unchecked_iterator()
; 146  : 		{	// construct with null node
; 147  : 		}
; 148  : 
; 149  : 	_Tree_unchecked_iterator(_Nodeptr _Pnode, const _Mytree *_Plist)
; 150  : 		: _Mybase(_Pnode, _Plist)
; 151  : 		{	// construct with node pointer _Pnode
; 152  : 		}
; 153  : 
; 154  : 	reference operator*() const
; 155  : 		{	// return designated value
; 156  : 		return ((reference)**(_Mybase *)this);
; 157  : 		}
; 158  : 
; 159  : 	pointer operator->() const
; 160  : 		{	// return pointer to class object
; 161  : 		return (_STD pointer_traits<pointer>::pointer_to(**this));
; 162  : 		}
; 163  : 
; 164  : 	_Myiter& operator++()
; 165  : 		{	// preincrement
; 166  : 		++(*(_Mybase *)this);
; 167  : 		return (*this);
; 168  : 		}
; 169  : 
; 170  : 	_Myiter operator++(int)
; 171  : 		{	// postincrement
; 172  : 		_Myiter _Tmp = *this;
; 173  : 		++*this;
; 174  : 		return (_Tmp);
; 175  : 		}
; 176  : 
; 177  : 	_Myiter& operator--()
; 178  : 		{	// predecrement
; 179  : 		--(*(_Mybase *)this);
; 180  : 		return (*this);
; 181  : 		}
; 182  : 
; 183  : 	_Myiter operator--(int)
; 184  : 		{	// postdecrement
; 185  : 		_Myiter _Tmp = *this;
; 186  : 		--*this;
; 187  : 		return (_Tmp);
; 188  : 		}
; 189  : 	};
; 190  : 
; 191  : 	// TEMPLATE CLASS _Tree_const_iterator
; 192  : template<class _Mytree>
; 193  : 	class _Tree_const_iterator
; 194  : 		: public _Tree_unchecked_const_iterator<_Mytree, _Iterator_base>
; 195  : 	{	// iterator for nonmutable tree
; 196  : public:
; 197  : 	typedef _Tree_const_iterator<_Mytree> _Myiter;
; 198  : 	typedef _Tree_unchecked_const_iterator<_Mytree, _Iterator_base> _Mybase;
; 199  : 	typedef bidirectional_iterator_tag iterator_category;
; 200  : 
; 201  : 	typedef typename _Mytree::_Nodeptr _Nodeptr;
; 202  : 	typedef typename _Mytree::value_type value_type;
; 203  : 	typedef typename _Mytree::difference_type difference_type;
; 204  : 	typedef typename _Mytree::const_pointer pointer;
; 205  : 	typedef typename _Mytree::const_reference reference;
; 206  : 
; 207  : 	_Tree_const_iterator()
; 208  : 		: _Mybase()
; 209  : 		{	// construct with null node pointer
; 210  : 		}
; 211  : 
; 212  : 	_Tree_const_iterator(_Nodeptr _Pnode, const _Mytree *_Plist)
; 213  : 		: _Mybase(_Pnode, _Plist)
; 214  : 		{	// construct with node pointer _Pnode
; 215  : 		}
; 216  : 
; 217  : 	typedef _Tree_unchecked_const_iterator<_Mytree> _Unchecked_type;
; 218  : 
; 219  : 	_Myiter& _Rechecked(_Unchecked_type _Right)
; 220  : 		{	// reset from unchecked iterator
; 221  : 		this->_Ptr = _Right._Ptr;
; 222  : 		return (*this);
; 223  : 		}
; 224  : 
; 225  : 	_Unchecked_type _Unchecked() const
; 226  : 		{	// make an unchecked iterator
; 227  : 		return (_Unchecked_type(this->_Ptr, (_Mytree *)this->_Getcont()));
; 228  : 		}
; 229  : 
; 230  : 	reference operator*() const
; 231  : 		{	// return designated value
; 232  :  #if _ITERATOR_DEBUG_LEVEL == 2
; 233  : 		if (this->_Getcont() == 0
; 234  : 			|| this->_Ptr == 0
; 235  : 			|| this->_Ptr == ((_Mytree *)this->_Getcont())->_Myhead)
; 236  : 			{	// report error
; 237  : 			_DEBUG_ERROR("map/set iterator not dereferencable");
; 238  : 			_SCL_SECURE_OUT_OF_RANGE;
; 239  : 			}
; 240  : 
; 241  :  #elif _ITERATOR_DEBUG_LEVEL == 1
; 242  : 		_SCL_SECURE_VALIDATE(this->_Getcont() != 0 && this->_Ptr != 0);
; 243  : 		_SCL_SECURE_VALIDATE_RANGE(this->_Ptr !=
; 244  : 			((_Mytree *)this->_Getcont())->_Myhead);
; 245  :  #endif /* _ITERATOR_DEBUG_LEVEL */
; 246  : 
; 247  : 		return (_Mytree::_Myval(this->_Ptr));
; 248  : 		}
; 249  : 
; 250  : 	pointer operator->() const
; 251  : 		{	// return pointer to class object
; 252  : 		return (_STD pointer_traits<pointer>::pointer_to(**this));
; 253  : 		}
; 254  : 
; 255  : 	_Myiter& operator++()
; 256  : 		{	// preincrement
; 257  :  #if _ITERATOR_DEBUG_LEVEL == 2
; 258  : 		if (this->_Getcont() == 0
; 259  : 			|| this->_Ptr == 0
; 260  : 			|| _Mytree::_Isnil(this->_Ptr))
; 261  : 			{	// report error
; 262  : 			_DEBUG_ERROR("map/set iterator not incrementable");
; 263  : 			_SCL_SECURE_OUT_OF_RANGE;
; 264  : 			}
; 265  : 
; 266  :  #elif _ITERATOR_DEBUG_LEVEL == 1
; 267  : 		_SCL_SECURE_VALIDATE(this->_Getcont() != 0 && this->_Ptr != 0);
; 268  : 		_SCL_SECURE_VALIDATE_RANGE(!_Mytree::_Isnil(this->_Ptr));
; 269  :  #endif /* _ITERATOR_DEBUG_LEVEL */
; 270  : 
; 271  : 		++(*(_Mybase *)this);
; 272  : 		return (*this);
; 273  : 		}
; 274  : 
; 275  : 	_Myiter operator++(int)
; 276  : 		{	// postincrement
; 277  : 		_Myiter _Tmp = *this;
; 278  : 		++*this;
; 279  : 		return (_Tmp);
; 280  : 		}
; 281  : 
; 282  : 	_Myiter& operator--()
; 283  : 		{	// predecrement
; 284  :  #if _ITERATOR_DEBUG_LEVEL == 2
; 285  : 		if (this->_Getcont() == 0
; 286  : 			|| this->_Ptr == 0)
; 287  : 			{	// report error
; 288  : 			_DEBUG_ERROR("map/set iterator not decrementable");
; 289  : 			_SCL_SECURE_OUT_OF_RANGE;
; 290  : 			}
; 291  : 
; 292  : 		_Nodeptr _Ptrsav = this->_Ptr;
; 293  : 		--(*(_Mybase *)this);
; 294  : 		if (_Ptrsav == this->_Ptr)
; 295  : 			{	// report error
; 296  : 			_DEBUG_ERROR("map/set iterator not decrementable");
; 297  : 			_SCL_SECURE_OUT_OF_RANGE;
; 298  : 			}
; 299  : 
; 300  :  #elif _ITERATOR_DEBUG_LEVEL == 1
; 301  : 		_SCL_SECURE_VALIDATE(this->_Getcont() != 0 && this->_Ptr != 0);
; 302  : 
; 303  : 		_Nodeptr _Ptrsav = this->_Ptr;
; 304  : 		--(*(_Mybase *)this);
; 305  : 		_SCL_SECURE_VALIDATE(_Ptrsav != this->_Ptr);
; 306  : 
; 307  :  #else /* _ITERATOR_DEBUG_LEVEL == 0 */
; 308  : 		--(*(_Mybase *)this);
; 309  :  #endif /* _ITERATOR_DEBUG_LEVEL */
; 310  : 
; 311  : 		return (*this);
; 312  : 		}
; 313  : 
; 314  : 	_Myiter operator--(int)
; 315  : 		{	// postdecrement
; 316  : 		_Myiter _Tmp = *this;
; 317  : 		--*this;
; 318  : 		return (_Tmp);
; 319  : 		}
; 320  : 
; 321  : 	bool operator==(const _Myiter& _Right) const
; 322  : 		{	// test for iterator equality
; 323  :  #if _ITERATOR_DEBUG_LEVEL == 2
; 324  : 		if (this->_Getcont() != _Right._Getcont())
; 325  : 			{	// report error
; 326  : 			_DEBUG_ERROR("map/set iterators incompatible");
; 327  : 			_SCL_SECURE_INVALID_ARGUMENT;
; 328  : 			}
; 329  : 
; 330  :  #elif _ITERATOR_DEBUG_LEVEL == 1
; 331  : 		_SCL_SECURE_VALIDATE(this->_Getcont() == _Right._Getcont());
; 332  :  #endif /* _ITERATOR_DEBUG_LEVEL */
; 333  : 
; 334  : 		return (this->_Ptr == _Right._Ptr);
; 335  : 		}
; 336  : 
; 337  : 	bool operator!=(const _Myiter& _Right) const
; 338  : 		{	// test for iterator inequality
; 339  : 		return (!(*this == _Right));
; 340  : 		}
; 341  : 	};
; 342  : 
; 343  : template<class _Mytree> inline
; 344  : 	typename _Tree_const_iterator<_Mytree>::_Unchecked_type
; 345  : 		_Unchecked(_Tree_const_iterator<_Mytree> _Iter)
; 346  : 	{	// convert to unchecked
; 347  : 	return (_Iter._Unchecked());
; 348  : 	}
; 349  : 
; 350  : template<class _Mytree> inline
; 351  : 	_Tree_const_iterator<_Mytree>&
; 352  : 		_Rechecked(_Tree_const_iterator<_Mytree>& _Iter,
; 353  : 			typename _Tree_const_iterator<_Mytree>
; 354  : 				::_Unchecked_type _Right)
; 355  : 	{	// convert to checked
; 356  : 	return (_Iter._Rechecked(_Right));
; 357  : 	}
; 358  : 
; 359  : 	// TEMPLATE CLASS _Tree_iterator
; 360  : template<class _Mytree>
; 361  : 	class _Tree_iterator
; 362  : 		: public _Tree_const_iterator<_Mytree>
; 363  : 	{	// iterator for mutable tree
; 364  : public:
; 365  : 	typedef _Tree_iterator<_Mytree> _Myiter;
; 366  : 	typedef _Tree_const_iterator<_Mytree> _Mybase;
; 367  : 	typedef bidirectional_iterator_tag iterator_category;
; 368  : 
; 369  : 	typedef typename _Mytree::_Nodeptr _Nodeptr;
; 370  : 	typedef typename _Mytree::value_type value_type;
; 371  : 	typedef typename _Mytree::difference_type difference_type;
; 372  : 
; 373  : 	typedef typename _Mytree::pointer pointer;
; 374  : 	typedef typename _Mytree::reference reference;
; 375  : 
; 376  : 	_Tree_iterator()
; 377  : 		{	// construct with null node
; 378  : 		}
; 379  : 
; 380  : 	_Tree_iterator(_Nodeptr _Pnode, const _Mytree *_Plist)
; 381  : 		: _Mybase(_Pnode, _Plist)
; 382  : 		{	// construct with node pointer _Pnode
; 383  : 		}
; 384  : 
; 385  : 	typedef _Tree_unchecked_iterator<_Mytree> _Unchecked_type;
; 386  : 
; 387  : 	_Myiter& _Rechecked(_Unchecked_type _Right)
; 388  : 		{	// reset from unchecked iterator
; 389  : 		this->_Ptr = _Right._Ptr;
; 390  : 		return (*this);
; 391  : 		}
; 392  : 
; 393  : 	_Unchecked_type _Unchecked() const
; 394  : 		{	// make an unchecked iterator
; 395  : 		return (_Unchecked_type(this->_Ptr, (_Mytree *)this->_Getcont()));
; 396  : 		}
; 397  : 
; 398  : 	reference operator*() const
; 399  : 		{	// return designated value
; 400  : 		return ((reference)**(_Mybase *)this);
; 401  : 		}
; 402  : 
; 403  : 	pointer operator->() const
; 404  : 		{	// return pointer to class object
; 405  : 		return (_STD pointer_traits<pointer>::pointer_to(**this));
; 406  : 		}
; 407  : 
; 408  : 	_Myiter& operator++()
; 409  : 		{	// preincrement
; 410  : 		++(*(_Mybase *)this);
; 411  : 		return (*this);
; 412  : 		}
; 413  : 
; 414  : 	_Myiter operator++(int)
; 415  : 		{	// postincrement
; 416  : 		_Myiter _Tmp = *this;
; 417  : 		++*this;
; 418  : 		return (_Tmp);
; 419  : 		}
; 420  : 
; 421  : 	_Myiter& operator--()
; 422  : 		{	// predecrement
; 423  : 		--(*(_Mybase *)this);
; 424  : 		return (*this);
; 425  : 		}
; 426  : 
; 427  : 	_Myiter operator--(int)
; 428  : 		{	// postdecrement
; 429  : 		_Myiter _Tmp = *this;
; 430  : 		--*this;
; 431  : 		return (_Tmp);
; 432  : 		}
; 433  : 	};
; 434  : 
; 435  : template<class _Mytree> inline
; 436  : 	typename _Tree_iterator<_Mytree>::_Unchecked_type
; 437  : 		_Unchecked(_Tree_iterator<_Mytree> _Iter)
; 438  : 	{	// convert to unchecked
; 439  : 	return (_Iter._Unchecked());
; 440  : 	}
; 441  : 
; 442  : template<class _Mytree> inline
; 443  : 	_Tree_iterator<_Mytree>&
; 444  : 		_Rechecked(_Tree_iterator<_Mytree>& _Iter,
; 445  : 			typename _Tree_iterator<_Mytree>
; 446  : 				::_Unchecked_type _Right)
; 447  : 	{	// convert to checked
; 448  : 	return (_Iter._Rechecked(_Right));
; 449  : 	}
; 450  : 
; 451  : 		// tree TYPE WRAPPERS
; 452  : template<class _Value_type,
; 453  : 	class _Size_type,
; 454  : 	class _Difference_type,
; 455  : 	class _Pointer,
; 456  : 	class _Const_pointer,
; 457  : 	class _Reference,
; 458  : 	class _Const_reference,
; 459  : 	class _Nodeptr_type>
; 460  : 	struct _Tree_iter_types
; 461  : 	{	// wraps types needed by iterators
; 462  : 	typedef _Value_type value_type;
; 463  : 	typedef _Size_type size_type;
; 464  : 	typedef _Difference_type difference_type;
; 465  : 	typedef _Pointer pointer;
; 466  : 	typedef _Const_pointer const_pointer;
; 467  : 	typedef _Reference reference;
; 468  : 	typedef _Const_reference const_reference;
; 469  : 	typedef _Nodeptr_type _Nodeptr;
; 470  : 	};
; 471  : 
; 472  : template<class _Value_type,
; 473  : 	class _Voidptr>
; 474  : 	struct _Tree_node
; 475  : 		{	// tree node
; 476  : 		_Voidptr _Left;	// left subtree, or smallest element if head
; 477  : 		_Voidptr _Parent;	// parent, or root of tree if head
; 478  : 		_Voidptr _Right;	// right subtree, or largest element if head
; 479  : 		char _Color;	// _Red or _Black, _Black if head
; 480  : 		char _Isnil;	// true only if head (also nil) node
; 481  : 		_Value_type _Myval;	// the stored value, unused if head
; 482  : 
; 483  : 	private:
; 484  : 		_Tree_node& operator=(const _Tree_node&);
; 485  : 		};
; 486  : 
; 487  : template<class _Value_type>
; 488  : 	struct _Tree_node<_Value_type, void *>
; 489  : 		{	// tree node
; 490  : 		typedef _Tree_node<_Value_type, void *> *_Nodeptr;
; 491  : 		_Nodeptr _Left;	// left subtree, or smallest element if head
; 492  : 		_Nodeptr _Parent;	// parent, or root of tree if head
; 493  : 		_Nodeptr _Right;	// right subtree, or largest element if head
; 494  : 		char _Color;	// _Red or _Black, _Black if head
; 495  : 		char _Isnil;	// true only if head (also nil) node
; 496  : 		_Value_type _Myval;	// the stored value, unused if head
; 497  : 
; 498  : 	private:
; 499  : 		_Tree_node& operator=(const _Tree_node&);
; 500  : 		};
; 501  : 
; 502  : template<class _Ty>
; 503  : 	struct _Tree_simple_types
; 504  : 		: public _Simple_types<_Ty>
; 505  : 	{	// wraps types needed by iterators
; 506  : 	typedef _Tree_node<_Ty, void *> _Node;
; 507  : 	typedef _Node *_Nodeptr;
; 508  : 	};
; 509  : 
; 510  : template<class _Ty,
; 511  : 	class _Alloc0>
; 512  : 	struct _Tree_base_types
; 513  : 	{	// types needed for a container base
; 514  : 	typedef _Alloc0 _Alloc;
; 515  : 	typedef _Tree_base_types<_Ty, _Alloc> _Myt;
; 516  : 
; 517  : 	typedef _Wrap_alloc<_Alloc> _Alty0;
; 518  : 	typedef typename _Alty0::template rebind<_Ty>::other _Alty;
; 519  : 
; 520  : 
; 521  : 	typedef typename _Get_voidptr<_Alty, typename _Alty::pointer>::type
; 522  : 		_Voidptr;
; 523  : 	typedef _Tree_node<typename _Alty::value_type,
; 524  : 		_Voidptr> _Node;
; 525  : 
; 526  : 	typedef typename _Alty::template rebind<_Node>::other _Alnod_type;
; 527  : 	typedef typename _Alnod_type::pointer _Nodeptr;
; 528  : 	typedef _Nodeptr& _Nodepref;
; 529  : 
; 530  : 	typedef typename _If<_Is_simple_alloc<_Alty>::value,
; 531  : 		_Tree_simple_types<typename _Alty::value_type>,
; 532  : 		_Tree_iter_types<typename _Alty::value_type,
; 533  : 			typename _Alty::size_type,
; 534  : 			typename _Alty::difference_type,
; 535  : 			typename _Alty::pointer,
; 536  : 			typename _Alty::const_pointer,
; 537  : 			typename _Alty::reference,
; 538  : 			typename _Alty::const_reference,
; 539  : 			_Nodeptr> >::type
; 540  : 		_Val_types;
; 541  : 	};
; 542  : 
; 543  : 		// TEMPLATE CLASS _Tree_val
; 544  : template<class _Val_types>
; 545  : 	class _Tree_val
; 546  : 		: public _Container_base
; 547  : 	{	// base class for tree to hold data
; 548  : public:
; 549  : 	typedef _Tree_val<_Val_types> _Myt;
; 550  : 
; 551  : 	typedef typename _Val_types::_Nodeptr _Nodeptr;
; 552  : 	typedef _Nodeptr& _Nodepref;
; 553  : 
; 554  : 	typedef typename _Val_types::value_type value_type;
; 555  : 	typedef typename _Val_types::size_type size_type;
; 556  : 	typedef typename _Val_types::difference_type difference_type;
; 557  : 	typedef typename _Val_types::pointer pointer;
; 558  : 	typedef typename _Val_types::const_pointer const_pointer;
; 559  : 	typedef typename _Val_types::reference reference;
; 560  : 	typedef typename _Val_types::const_reference const_reference;
; 561  : 
; 562  : 	typedef _Tree_const_iterator<_Myt> const_iterator;
; 563  : 	typedef _Tree_iterator<_Myt> iterator;
; 564  : 
; 565  : 	_Tree_val()
; 566  : 		{	// initialize data
; 567  : 		this->_Myhead = 0;
; 568  : 		this->_Mysize = 0;
; 569  : 		}
; 570  : 
; 571  : 	enum _Redbl
; 572  : 		{	// colors for link to parent
; 573  : 		_Red, _Black};
; 574  : 
; 575  : 	static char& _Color(_Nodeptr _Pnode)
; 576  : 		{	// return reference to color in node
; 577  : 		return ((char&)_Pnode->_Color);
; 578  : 		}
; 579  : 
; 580  : 	static char& _Isnil(_Nodeptr _Pnode)
; 581  : 		{	// return reference to nil flag in node
; 582  : 		return ((char&)_Pnode->_Isnil);

  000a7	8b 42 08	 mov	 eax, DWORD PTR [edx+8]

; 2142 : 
; 2143 : 		if (!this->_Isnil(this->_Right(_Pnode)))

  000aa	80 78 0d 00	 cmp	 BYTE PTR [eax+13], 0
  000ae	75 03		 jne	 SHORT $LN376@Insert_at

; 2144 : 			this->_Parent(this->_Right(_Pnode)) = _Wherenode;

  000b0	89 48 04	 mov	 DWORD PTR [eax+4], ecx
$LN376@Insert_at:

; 2145 : 		this->_Parent(_Pnode) = this->_Parent(_Wherenode);

  000b3	8b 41 04	 mov	 eax, DWORD PTR [ecx+4]
  000b6	89 42 04	 mov	 DWORD PTR [edx+4], eax

; 588  : 		}
; 589  : 
; 590  : 	static _Nodepref _Parent(_Nodeptr _Pnode)
; 591  : 		{	// return reference to parent pointer in node
; 592  : 		return ((_Nodepref)_Pnode->_Parent);

  000b9	8b 07		 mov	 eax, DWORD PTR [edi]

; 2146 : 
; 2147 : 		if (_Wherenode == _Root())

  000bb	3b 48 04	 cmp	 ecx, DWORD PTR [eax+4]
  000be	75 0b		 jne	 SHORT $LN377@Insert_at

; 2148 : 			_Root() = _Pnode;

  000c0	89 50 04	 mov	 DWORD PTR [eax+4], edx

; 2153 : 
; 2154 : 		this->_Right(_Pnode) = _Wherenode;

  000c3	89 4a 08	 mov	 DWORD PTR [edx+8], ecx

; 1913 : 					}
; 1914 : 				}
; 1915 : 			else

  000c6	e9 94 00 00 00	 jmp	 $LN728@Insert_at
$LN377@Insert_at:

; 593  : 		}
; 594  : 
; 595  : 	static _Nodepref _Right(_Nodeptr _Pnode)
; 596  : 		{	// return reference to right pointer in node
; 597  : 		return ((_Nodepref)_Pnode->_Right);

  000cb	8b 41 04	 mov	 eax, DWORD PTR [ecx+4]

; 2149 : 		else if (_Wherenode == this->_Right(this->_Parent(_Wherenode)))

  000ce	3b 48 08	 cmp	 ecx, DWORD PTR [eax+8]
  000d1	75 0b		 jne	 SHORT $LN379@Insert_at

; 2150 : 			this->_Right(this->_Parent(_Wherenode)) = _Pnode;

  000d3	89 50 08	 mov	 DWORD PTR [eax+8], edx

; 2153 : 
; 2154 : 		this->_Right(_Pnode) = _Wherenode;

  000d6	89 4a 08	 mov	 DWORD PTR [edx+8], ecx

; 1913 : 					}
; 1914 : 				}
; 1915 : 			else

  000d9	e9 81 00 00 00	 jmp	 $LN728@Insert_at
$LN379@Insert_at:

; 2151 : 		else
; 2152 : 			this->_Left(this->_Parent(_Wherenode)) = _Pnode;

  000de	89 10		 mov	 DWORD PTR [eax], edx

; 2153 : 
; 2154 : 		this->_Right(_Pnode) = _Wherenode;

  000e0	89 4a 08	 mov	 DWORD PTR [edx+8], ecx

; 1913 : 					}
; 1914 : 				}
; 1915 : 			else

  000e3	eb 7a		 jmp	 SHORT $LN728@Insert_at
$LN12@Insert_at:

; 1916 : 				{	// fixup red-red in right subtree
; 1917 : 				_Wherenode =
; 1918 : 					this->_Left(this->_Parent(this->_Parent(_Pnode)));
; 1919 : 				if (this->_Color(_Wherenode) == this->_Red)

  000e5	80 79 0c 00	 cmp	 BYTE PTR [ecx+12], 0
  000e9	75 1a		 jne	 SHORT $LN17@Insert_at
$LN729@Insert_at:

; 1920 : 					{	// parent has two red children, blacken both
; 1921 : 					this->_Color(this->_Parent(_Pnode)) = this->_Black;

  000eb	c6 40 0c 01	 mov	 BYTE PTR [eax+12], 1

; 1922 : 					this->_Color(_Wherenode) = this->_Black;

  000ef	c6 41 0c 01	 mov	 BYTE PTR [ecx+12], 1

; 1923 : 					this->_Color(this->_Parent(this->_Parent(_Pnode))) =

  000f3	8b 46 04	 mov	 eax, DWORD PTR [esi+4]
  000f6	8b 40 04	 mov	 eax, DWORD PTR [eax+4]
  000f9	c6 40 0c 00	 mov	 BYTE PTR [eax+12], 0

; 1924 : 						this->_Red;
; 1925 : 					_Pnode = this->_Parent(this->_Parent(_Pnode));

  000fd	8b 46 04	 mov	 eax, DWORD PTR [esi+4]
  00100	8b 70 04	 mov	 esi, DWORD PTR [eax+4]

; 1926 : 					}
; 1927 : 				else

  00103	eb 5d		 jmp	 SHORT $LN18@Insert_at
$LN17@Insert_at:

; 1928 : 					{	// parent has red and black children
; 1929 : 					if (_Pnode == this->_Left(this->_Parent(_Pnode)))

  00105	3b 30		 cmp	 esi, DWORD PTR [eax]
  00107	75 0a		 jne	 SHORT $LN19@Insert_at

; 1930 : 						{	// rotate left child to right
; 1931 : 						_Pnode = this->_Parent(_Pnode);

  00109	8b f0		 mov	 esi, eax

; 1932 : 						_Rrotate(_Pnode);

  0010b	8b cf		 mov	 ecx, edi
  0010d	56		 push	 esi
  0010e	e8 00 00 00 00	 call	 ?_Rrotate@?$_Tree@V?$_Tmap_traits@EUQUESTEX_PROGRESS_GROUP@@U?$less@E@std@@V?$allocator@U?$pair@$$CBEUQUESTEX_PROGRESS_GROUP@@@std@@@3@$0A@@std@@@std@@IAEXPAU?$_Tree_node@U?$pair@$$CBEUQUESTEX_PROGRESS_GROUP@@@std@@PAX@2@@Z ; std::_Tree<std::_Tmap_traits<unsigned char,QUESTEX_PROGRESS_GROUP,std::less<unsigned char>,std::allocator<std::pair<unsigned char const ,QUESTEX_PROGRESS_GROUP> >,0> >::_Rrotate
$LN19@Insert_at:

; 1933 : 						}
; 1934 : 					this->_Color(this->_Parent(_Pnode)) =

  00113	8b 46 04	 mov	 eax, DWORD PTR [esi+4]
  00116	c6 40 0c 01	 mov	 BYTE PTR [eax+12], 1

; 1935 : 						this->_Black;	// propagate red up
; 1936 : 					this->_Color(this->_Parent(this->_Parent(_Pnode))) =

  0011a	8b 46 04	 mov	 eax, DWORD PTR [esi+4]
  0011d	8b 40 04	 mov	 eax, DWORD PTR [eax+4]
  00120	c6 40 0c 00	 mov	 BYTE PTR [eax+12], 0

; 1937 : 						this->_Red;
; 1938 : 					_Lrotate(this->_Parent(this->_Parent(_Pnode)));

  00124	8b 46 04	 mov	 eax, DWORD PTR [esi+4]
  00127	8b 48 04	 mov	 ecx, DWORD PTR [eax+4]

; 1945 : 
; 1946 : 	template<class _Moveit>
; 1947 : 		void _Copy(const _Myt& _Right, _Moveit _Movefl)
; 1948 : 		{	// copy or move entire tree from _Right
; 1949 : 		_Root() = _Copy_nodes(_Right._Root(), this->_Myhead(), _Movefl);
; 1950 : 		this->_Mysize() = _Right.size();
; 1951 : 		if (!this->_Isnil(_Root()))
; 1952 : 			{	// nonempty tree, look for new smallest and largest
; 1953 : 			_Lmost() = this->_Min(_Root());
; 1954 : 			_Rmost() = this->_Max(_Root());
; 1955 : 			}
; 1956 : 		else
; 1957 : 			{	// empty tree, just tidy head pointers
; 1958 : 			_Lmost() = this->_Myhead();
; 1959 : 			_Rmost() = this->_Myhead();
; 1960 : 			}
; 1961 : 		}
; 1962 : 
; 1963 : 	template<class _Ty,
; 1964 : 		class _Is_set>
; 1965 : 		_Nodeptr _Copy_or_move(_Ty& _Val, _Copy_tag, _Is_set)
; 1966 : 		{	// copy to new node
; 1967 : 		return (this->_Buynode(_Val));
; 1968 : 		}
; 1969 : 
; 1970 : 	template<class _Ty>
; 1971 : 		_Nodeptr _Copy_or_move(_Ty& _Val, _Move_tag, true_type)
; 1972 : 		{	// move to new node -- set
; 1973 : 		return (this->_Buynode(_STD move(_Val)));
; 1974 : 		}
; 1975 : 
; 1976 : 	template<class _Ty>
; 1977 : 		_Nodeptr _Copy_or_move(_Ty& _Val, _Move_tag, false_type)
; 1978 : 		{	// move to new node -- map
; 1979 : 		return (this->_Buynode(
; 1980 : 			_STD move(const_cast<key_type&>(_Val.first)),
; 1981 : 			_STD move(_Val.second)));
; 1982 : 		}
; 1983 : 
; 1984 : 	template<class _Moveit>
; 1985 : 		_Nodeptr _Copy_nodes(_Nodeptr _Rootnode, _Nodeptr _Wherenode,
; 1986 : 			_Moveit _Movefl)
; 1987 : 		{	// copy entire subtree, recursively
; 1988 : 		_Nodeptr _Newroot = this->_Myhead();	// point at nil node
; 1989 : 
; 1990 : 		if (!this->_Isnil(_Rootnode))
; 1991 : 			{	// copy or move a node, then any subtrees
; 1992 : 			typename is_same<key_type, value_type>::type _Is_set;
; 1993 : 			_Nodeptr _Pnode = _Copy_or_move(
; 1994 : 				this->_Myval(_Rootnode), _Movefl, _Is_set);
; 1995 : 			_Pnode->_Parent = _Wherenode;
; 1996 : 			_Pnode->_Color = this->_Color(_Rootnode);
; 1997 : 			if (this->_Isnil(_Newroot))
; 1998 : 				_Newroot = _Pnode;	// memorize new root
; 1999 : 
; 2000 : 			_TRY_BEGIN
; 2001 : 			this->_Left(_Pnode) =
; 2002 : 				_Copy_nodes(this->_Left(_Rootnode), _Pnode, _Movefl);
; 2003 : 			this->_Right(_Pnode) =
; 2004 : 				_Copy_nodes(this->_Right(_Rootnode), _Pnode, _Movefl);
; 2005 : 			_CATCH_ALL
; 2006 : 			_Erase(_Newroot);	// subtree copy failed, bail out
; 2007 : 			_RERAISE;
; 2008 : 			_CATCH_END
; 2009 : 			}
; 2010 : 
; 2011 : 		return (_Newroot);	// return newly constructed tree
; 2012 : 		}
; 2013 : 
; 2014 : 	template<class _Other>
; 2015 : 		_Paircc _Eqrange(const _Other& _Keyval) const
; 2016 : 		{	// find leftmost node not less than _Keyval
; 2017 : 		_Nodeptr _Pnode = _Root();
; 2018 : 		_Nodeptr _Lonode = this->_Myhead();	// end() if search fails
; 2019 : 		_Nodeptr _Hinode = this->_Myhead();	// end() if search fails
; 2020 : 
; 2021 : 		while (!this->_Isnil(_Pnode))
; 2022 : 			if (_DEBUG_LT_PRED(this->_Getcomp(), this->_Key(_Pnode), _Keyval))
; 2023 : 				_Pnode = this->_Right(_Pnode);	// descend right subtree
; 2024 : 			else
; 2025 : 				{	// _Pnode not less than _Keyval, remember it
; 2026 : 				if (this->_Isnil(_Hinode)
; 2027 : 						&& _DEBUG_LT_PRED(this->_Getcomp(), _Keyval,
; 2028 : 						this->_Key(_Pnode)))
; 2029 : 					_Hinode = _Pnode;	// _Pnode greater, remember it
; 2030 : 				_Lonode = _Pnode;
; 2031 : 				_Pnode = this->_Left(_Pnode);	// descend left subtree
; 2032 : 				}
; 2033 : 
; 2034 : 		_Pnode = this->_Isnil(_Hinode) ? _Root()
; 2035 : 			: this->_Left(_Hinode);	// continue scan for upper bound
; 2036 : 		while (!this->_Isnil(_Pnode))
; 2037 : 			if (_DEBUG_LT_PRED(this->_Getcomp(), _Keyval, this->_Key(_Pnode)))
; 2038 : 				{	// _Pnode greater than _Keyval, remember it
; 2039 : 				_Hinode = _Pnode;
; 2040 : 				_Pnode = this->_Left(_Pnode);	// descend left subtree
; 2041 : 				}
; 2042 : 			else
; 2043 : 				_Pnode = this->_Right(_Pnode);	// descend right subtree
; 2044 : 
; 2045 : 		const_iterator _First = const_iterator(_Lonode, &this->_Get_data());
; 2046 : 		const_iterator _Last = const_iterator(_Hinode, &this->_Get_data());
; 2047 : 		return (_Paircc(_First, _Last));
; 2048 : 		}
; 2049 : 
; 2050 : 	template<class _Other>
; 2051 : 		_Pairii _Eqrange(const _Other& _Keyval)
; 2052 : 		{	// find leftmost node not less than _Keyval
; 2053 : 		_Paircc _Ans(static_cast<const _Myt *>(this)->_Eqrange(_Keyval));
; 2054 : 		iterator _First = iterator(_Ans.first._Ptr, &this->_Get_data());
; 2055 : 		iterator _Last = iterator(_Ans.second._Ptr, &this->_Get_data());
; 2056 : 		return (_Pairii(_First, _Last));
; 2057 : 		}
; 2058 : 
; 2059 : 	void _Erase(_Nodeptr _Rootnode)
; 2060 : 		{	// free entire subtree, recursively
; 2061 : 		for (_Nodeptr _Pnode = _Rootnode;
; 2062 : 			!this->_Isnil(_Pnode); _Rootnode = _Pnode)
; 2063 : 			{	// free subtrees, then node
; 2064 : 			_Erase(this->_Right(_Pnode));
; 2065 : 			_Pnode = this->_Left(_Pnode);
; 2066 : 			this->_Getal().destroy(
; 2067 : 				_STD addressof(this->_Myval(_Rootnode)));
; 2068 : 
; 2069 : 			this->_Getal().deallocate(_Rootnode, 1);
; 2070 : 			}
; 2071 : 		}
; 2072 : 
; 2073 : 	bool _Compare(const key_type& _Left, const key_type& _Right) const
; 2074 : 		{	// compare key_type to key_type, with debug checks
; 2075 : 		return (_DEBUG_LT_PRED(this->_Getcomp(), _Left, _Right));
; 2076 : 		}
; 2077 : 
; 2078 : 	template<class _Ty1,
; 2079 : 		class _Ty2>
; 2080 : 		bool _Compare(const _Ty1& _Left, const _Ty2& _Right) const
; 2081 : 		{	// compare _Ty1 to _Ty2, without debug checks
; 2082 : 		return (this->_Getcomp()(_Left, _Right));
; 2083 : 		}
; 2084 : 
; 2085 : 	template<class _Other>
; 2086 : 		_Nodeptr _Lbound(const _Other& _Keyval) const
; 2087 : 		{	// find leftmost node not less than _Keyval
; 2088 : 		_Nodeptr _Pnode = _Root();
; 2089 : 		_Nodeptr _Wherenode = this->_Myhead();	// end() if search fails
; 2090 : 
; 2091 : 		while (!this->_Isnil(_Pnode))
; 2092 : 			if (_Compare(this->_Key(_Pnode), _Keyval))
; 2093 : 				_Pnode = this->_Right(_Pnode);	// descend right subtree
; 2094 : 			else
; 2095 : 				{	// _Pnode not less than _Keyval, remember it
; 2096 : 				_Wherenode = _Pnode;
; 2097 : 				_Pnode = this->_Left(_Pnode);	// descend left subtree
; 2098 : 				}
; 2099 : 
; 2100 : 		return (_Wherenode);	// return best remembered candidate
; 2101 : 		}
; 2102 : 
; 2103 : 	_Nodeptr& _Lmost() const
; 2104 : 		{	// return leftmost node in nonmutable tree
; 2105 : 		return (this->_Left(this->_Myhead()));
; 2106 : 		}
; 2107 : 
; 2108 : 	void _Lrotate(_Nodeptr _Wherenode)
; 2109 : 		{	// promote right node to root of subtree
; 2110 : 		_Nodeptr _Pnode = this->_Right(_Wherenode);

  0012a	8b 51 08	 mov	 edx, DWORD PTR [ecx+8]

; 2111 : 		this->_Right(_Wherenode) = this->_Left(_Pnode);

  0012d	8b 02		 mov	 eax, DWORD PTR [edx]
  0012f	89 41 08	 mov	 DWORD PTR [ecx+8], eax

; 44   : 		{	// construct with node pointer _Pnode
; 45   : 		this->_Adopt(_Plist);
; 46   : 		}
; 47   : 
; 48   : 	reference operator*() const
; 49   : 		{	// return designated value
; 50   : 		return (_Mytree::_Myval(_Ptr));
; 51   : 		}
; 52   : 
; 53   : 	pointer operator->() const
; 54   : 		{	// return pointer to class object
; 55   : 		return (_STD pointer_traits<pointer>::pointer_to(**this));
; 56   : 		}
; 57   : 
; 58   : 	_Myiter& operator++()
; 59   : 		{	// preincrement
; 60   : 		if (_Mytree::_Isnil(_Ptr))
; 61   : 			;	// end() shouldn't be incremented, don't move
; 62   : 		else if (!_Mytree::_Isnil(_Mytree::_Right(_Ptr)))
; 63   : 			_Ptr = _Mytree::_Min(
; 64   : 				_Mytree::_Right(_Ptr));	// ==> smallest of right subtree
; 65   : 		else
; 66   : 			{	// climb looking for right subtree
; 67   : 			_Nodeptr _Pnode;
; 68   : 			while (!_Mytree::_Isnil(_Pnode = _Mytree::_Parent(_Ptr))
; 69   : 				&& _Ptr == _Mytree::_Right(_Pnode))
; 70   : 				_Ptr = _Pnode;	// ==> parent while right subtree
; 71   : 			_Ptr = _Pnode;	// ==> parent (head if end())
; 72   : 			}
; 73   : 		return (*this);
; 74   : 		}
; 75   : 
; 76   : 	_Myiter operator++(int)
; 77   : 		{	// postincrement
; 78   : 		_Myiter _Tmp = *this;
; 79   : 		++*this;
; 80   : 		return (_Tmp);
; 81   : 		}
; 82   : 
; 83   : 	_Myiter& operator--()
; 84   : 		{	// predecrement
; 85   : 		if (_Mytree::_Isnil(_Ptr))
; 86   : 			_Ptr = _Mytree::_Right(_Ptr);	// end() ==> rightmost
; 87   : 		else if (!_Mytree::_Isnil(_Mytree::_Left(_Ptr)))
; 88   : 			_Ptr = _Mytree::_Max(
; 89   : 				_Mytree::_Left(_Ptr));	// ==> largest of left subtree
; 90   : 		else
; 91   : 			{	// climb looking for left subtree
; 92   : 			_Nodeptr _Pnode;
; 93   : 			while (!_Mytree::_Isnil(_Pnode = _Mytree::_Parent(_Ptr))
; 94   : 				&& _Ptr == _Mytree::_Left(_Pnode))
; 95   : 				_Ptr = _Pnode;	// ==> parent while left subtree
; 96   : 			if (_Mytree::_Isnil(_Ptr))
; 97   : 				;	// begin() shouldn't be decremented, don't move
; 98   : 			else
; 99   : 				_Ptr = _Pnode;	// ==> parent if not head
; 100  : 			}
; 101  : 		return (*this);
; 102  : 		}
; 103  : 
; 104  : 	_Myiter operator--(int)
; 105  : 		{	// postdecrement
