; Listing generated by Microsoft (R) Optimizing Compiler Version 19.00.23506.0 

	TITLE	C:\Users\Michel\Desktop\Source\GameServer\Source\RaklionBattleOfSelupan.cpp
	.686P
	.XMM
	include listing.inc
	.model	flat

INCLUDELIB LIBCMT
INCLUDELIB OLDNAMES

PUBLIC	?__empty_global_delete@@YAXPAX@Z		; __empty_global_delete
PUBLIC	?__empty_global_delete@@YAXPAXI@Z		; __empty_global_delete
PUBLIC	??0CRaklionBattleOfSelupan@@QAE@XZ		; CRaklionBattleOfSelupan::CRaklionBattleOfSelupan
PUBLIC	??1CRaklionBattleOfSelupan@@UAE@XZ		; CRaklionBattleOfSelupan::~CRaklionBattleOfSelupan
PUBLIC	?ResetAllData@CRaklionBattleOfSelupan@@QAEXXZ	; CRaklionBattleOfSelupan::ResetAllData
PUBLIC	?Init@CRaklionBattleOfSelupan@@QAEHXZ		; CRaklionBattleOfSelupan::Init
PUBLIC	?Run@CRaklionBattleOfSelupan@@QAEXXZ		; CRaklionBattleOfSelupan::Run
PUBLIC	?SetState@CRaklionBattleOfSelupan@@QAEXH@Z	; CRaklionBattleOfSelupan::SetState
PUBLIC	?SetState_NONE@CRaklionBattleOfSelupan@@QAEXXZ	; CRaklionBattleOfSelupan::SetState_NONE
PUBLIC	?SetState_STANDBY@CRaklionBattleOfSelupan@@QAEXXZ ; CRaklionBattleOfSelupan::SetState_STANDBY
PUBLIC	?SetState_PATTERN_1@CRaklionBattleOfSelupan@@QAEXXZ ; CRaklionBattleOfSelupan::SetState_PATTERN_1
PUBLIC	?SetState_PATTERN_2@CRaklionBattleOfSelupan@@QAEXXZ ; CRaklionBattleOfSelupan::SetState_PATTERN_2
PUBLIC	?SetState_PATTERN_3@CRaklionBattleOfSelupan@@QAEXXZ ; CRaklionBattleOfSelupan::SetState_PATTERN_3
PUBLIC	?SetState_PATTERN_4@CRaklionBattleOfSelupan@@QAEXXZ ; CRaklionBattleOfSelupan::SetState_PATTERN_4
PUBLIC	?SetState_PATTERN_5@CRaklionBattleOfSelupan@@QAEXXZ ; CRaklionBattleOfSelupan::SetState_PATTERN_5
PUBLIC	?SetState_PATTERN_6@CRaklionBattleOfSelupan@@QAEXXZ ; CRaklionBattleOfSelupan::SetState_PATTERN_6
PUBLIC	?SetState_PATTERN_7@CRaklionBattleOfSelupan@@QAEXXZ ; CRaklionBattleOfSelupan::SetState_PATTERN_7
PUBLIC	?SetState_DIE@CRaklionBattleOfSelupan@@QAEXXZ	; CRaklionBattleOfSelupan::SetState_DIE
PUBLIC	?ProcState_NONE@CRaklionBattleOfSelupan@@QAEXXZ	; CRaklionBattleOfSelupan::ProcState_NONE
PUBLIC	?ProcState_STANDBY@CRaklionBattleOfSelupan@@QAEXXZ ; CRaklionBattleOfSelupan::ProcState_STANDBY
PUBLIC	?ProcState_PATTERN_1@CRaklionBattleOfSelupan@@QAEXXZ ; CRaklionBattleOfSelupan::ProcState_PATTERN_1
PUBLIC	?ProcState_PATTERN_2@CRaklionBattleOfSelupan@@QAEXXZ ; CRaklionBattleOfSelupan::ProcState_PATTERN_2
PUBLIC	?ProcState_PATTERN_3@CRaklionBattleOfSelupan@@QAEXXZ ; CRaklionBattleOfSelupan::ProcState_PATTERN_3
PUBLIC	?ProcState_PATTERN_4@CRaklionBattleOfSelupan@@QAEXXZ ; CRaklionBattleOfSelupan::ProcState_PATTERN_4
PUBLIC	?ProcState_PATTERN_5@CRaklionBattleOfSelupan@@QAEXXZ ; CRaklionBattleOfSelupan::ProcState_PATTERN_5
PUBLIC	?ProcState_PATTERN_6@CRaklionBattleOfSelupan@@QAEXXZ ; CRaklionBattleOfSelupan::ProcState_PATTERN_6
PUBLIC	?ProcState_PATTERN_7@CRaklionBattleOfSelupan@@QAEXXZ ; CRaklionBattleOfSelupan::ProcState_PATTERN_7
PUBLIC	?ProcState_DIE@CRaklionBattleOfSelupan@@QAEXXZ	; CRaklionBattleOfSelupan::ProcState_DIE
PUBLIC	?PatternStateSkillUseProc@CRaklionBattleOfSelupan@@QAEXH@Z ; CRaklionBattleOfSelupan::PatternStateSkillUseProc
PUBLIC	?SetPatternCondition@CRaklionBattleOfSelupan@@QAEXHH@Z ; CRaklionBattleOfSelupan::SetPatternCondition
PUBLIC	?SelupanLifeCheck@CRaklionBattleOfSelupan@@QAEXXZ ; CRaklionBattleOfSelupan::SelupanLifeCheck
PUBLIC	?GetBattleUserCount@CRaklionBattleOfSelupan@@QAEHXZ ; CRaklionBattleOfSelupan::GetBattleUserCount
PUBLIC	?CreateSelupan@CRaklionBattleOfSelupan@@QAEXXZ	; CRaklionBattleOfSelupan::CreateSelupan
PUBLIC	?DeleteSelupan@CRaklionBattleOfSelupan@@QAEXXZ	; CRaklionBattleOfSelupan::DeleteSelupan
PUBLIC	?GetSelupanObjIndex@CRaklionBattleOfSelupan@@QAEHXZ ; CRaklionBattleOfSelupan::GetSelupanObjIndex
PUBLIC	?DeleteSummonMonster@CRaklionBattleOfSelupan@@QAEXXZ ; CRaklionBattleOfSelupan::DeleteSummonMonster
PUBLIC	?SetSelupanSkillDelay@CRaklionBattleOfSelupan@@QAEXH@Z ; CRaklionBattleOfSelupan::SetSelupanSkillDelay
PUBLIC	?GmCommandSelupanPattern@CRaklionBattleOfSelupan@@QAEXH@Z ; CRaklionBattleOfSelupan::GmCommandSelupanPattern
PUBLIC	??_GCRaklionBattleOfSelupan@@UAEPAXI@Z		; CRaklionBattleOfSelupan::`scalar deleting destructor'
PUBLIC	??1OBJECTSTRUCT@@QAE@XZ				; OBJECTSTRUCT::~OBJECTSTRUCT
PUBLIC	??_EOBJECTSTRUCT@@QAEPAXI@Z			; OBJECTSTRUCT::`vector deleting destructor'
PUBLIC	??_7CRaklionBattleOfSelupan@@6B@		; CRaklionBattleOfSelupan::`vftable'
PUBLIC	??_C@_0DB@JPEONBGN@?$FL?5RAKLION?5?$FN?$FL?5BattleOfSelupan?5?$FN?5S@ ; `string'
PUBLIC	??_C@_0DE@EBLINPPG@?$FL?5RAKLION?5?$FN?$FL?5BattleOfSelupan?5?$FN?5S@ ; `string'
PUBLIC	??_C@_0EK@JNGGHGMA@?$FL?5RAKLION?5?$FN?$FL?5BattleOfSelupan?5?$FN?5S@ ; `string'
PUBLIC	??_C@_0EK@KEBONLIA@?$FL?5RAKLION?5?$FN?$FL?5BattleOfSelupan?5?$FN?5S@ ; `string'
PUBLIC	??_C@_0EK@LDDGLPEA@?$FL?5RAKLION?5?$FN?$FL?5BattleOfSelupan?5?$FN?5S@ ; `string'
PUBLIC	??_C@_0EK@NGOPIBAA@?$FL?5RAKLION?5?$FN?$FL?5BattleOfSelupan?5?$FN?5S@ ; `string'
PUBLIC	??_C@_0EK@MBMHOFMA@?$FL?5RAKLION?5?$FN?$FL?5BattleOfSelupan?5?$FN?5S@ ; `string'
PUBLIC	??_C@_0EK@PILPEIIA@?$FL?5RAKLION?5?$FN?$FL?5BattleOfSelupan?5?$FN?5S@ ; `string'
PUBLIC	??_C@_0EK@OPJHCMEA@?$FL?5RAKLION?5?$FN?$FL?5BattleOfSelupan?5?$FN?5S@ ; `string'
PUBLIC	??_C@_0DA@HPEHDIEE@?$FL?5RAKLION?5?$FN?$FL?5BattleOfSelupan?5?$FN?5S@ ; `string'
PUBLIC	??_C@_0DO@FBHKOMND@?$FLRaklion?$FN?$FLSelupanDie?$FN?5?$CFd?1?$CFd?1?$CFd?5?$CF@ ; `string'
PUBLIC	??_C@_0EF@LJPNAIFB@?$FLRAKLION?$FN?$FLSetPatternCondition?$FN?5e@ ; `string'
PUBLIC	??_C@_0DI@MFMEMJKM@?$FLRAKLION?$FN?5SelupanMAXLife?5error?5?3@ ; `string'
PUBLIC	??_C@_0DM@PLDDFBE@?$FLRAKLION?$FN?5SelupanLifePercent?5err@ ; `string'
PUBLIC	??_C@_0EA@NKBJDPKP@?$FLRAKLION?$FN?5?$FLGmCommandSelupanPatte@ ; `string'
PUBLIC	??_R4CRaklionBattleOfSelupan@@6B@		; CRaklionBattleOfSelupan::`RTTI Complete Object Locator'
PUBLIC	??_R0?AVCRaklionBattleOfSelupan@@@8		; CRaklionBattleOfSelupan `RTTI Type Descriptor'
PUBLIC	??_R3CRaklionBattleOfSelupan@@8			; CRaklionBattleOfSelupan::`RTTI Class Hierarchy Descriptor'
PUBLIC	??_R2CRaklionBattleOfSelupan@@8			; CRaklionBattleOfSelupan::`RTTI Base Class Array'
PUBLIC	??_R1A@?0A@EA@CRaklionBattleOfSelupan@@8	; CRaklionBattleOfSelupan::`RTTI Base Class Descriptor at (0,-1,0,64)'
EXTRN	??_M@YGXPAXIIP6EX0@Z@Z:PROC			; `eh vector destructor iterator'
EXTRN	??3@YAXPAXI@Z:PROC				; operator delete
EXTRN	??_V@YAXPAXI@Z:PROC				; operator delete[]
EXTRN	__imp__GetTickCount@0:PROC
EXTRN	_rand:PROC
EXTRN	__localtime64:PROC
EXTRN	__time64:PROC
EXTRN	?Get@Message@@QAEPADH@Z:PROC			; Message::Get
EXTRN	??0CRaklionSelupan@@QAE@XZ:PROC			; CRaklionSelupan::CRaklionSelupan
EXTRN	??1CRaklionSelupan@@UAE@XZ:PROC			; CRaklionSelupan::~CRaklionSelupan
EXTRN	?SelupanAct_FirstSkill@CRaklionSelupan@@QAEXXZ:PROC ; CRaklionSelupan::SelupanAct_FirstSkill
EXTRN	?SelupanAct_PoisonAttack@CRaklionSelupan@@QAEXXZ:PROC ; CRaklionSelupan::SelupanAct_PoisonAttack
EXTRN	?SelupanAct_IceStorm@CRaklionSelupan@@QAEXXZ:PROC ; CRaklionSelupan::SelupanAct_IceStorm
EXTRN	?SelupanAct_IceStrike@CRaklionSelupan@@QAEXXZ:PROC ; CRaklionSelupan::SelupanAct_IceStrike
EXTRN	?SelupanAct_SummonMonster@CRaklionSelupan@@QAEXXZ:PROC ; CRaklionSelupan::SelupanAct_SummonMonster
EXTRN	?SelupanAct_Heal@CRaklionSelupan@@QAEXXZ:PROC	; CRaklionSelupan::SelupanAct_Heal
EXTRN	?SelupanAct_Freeze@CRaklionSelupan@@QAEXXZ:PROC	; CRaklionSelupan::SelupanAct_Freeze
EXTRN	?SelupanAct_Teleport@CRaklionSelupan@@QAEXXZ:PROC ; CRaklionSelupan::SelupanAct_Teleport
EXTRN	?SelupanAct_Invincibility@CRaklionSelupan@@QAEXXZ:PROC ; CRaklionSelupan::SelupanAct_Invincibility
EXTRN	?SelupanAct_BerserkCansel@CRaklionSelupan@@QAEXXZ:PROC ; CRaklionSelupan::SelupanAct_BerserkCansel
EXTRN	?SelupanAct_Berserk1@CRaklionSelupan@@QAEXXZ:PROC ; CRaklionSelupan::SelupanAct_Berserk1
EXTRN	?SelupanAct_Berserk2@CRaklionSelupan@@QAEXXZ:PROC ; CRaklionSelupan::SelupanAct_Berserk2
EXTRN	?SelupanAct_Berserk3@CRaklionSelupan@@QAEXXZ:PROC ; CRaklionSelupan::SelupanAct_Berserk3
EXTRN	?SelupanAct_Berserk4@CRaklionSelupan@@QAEXXZ:PROC ; CRaklionSelupan::SelupanAct_Berserk4
EXTRN	?GetSelupanLife@CRaklionSelupan@@QAEKXZ:PROC	; CRaklionSelupan::GetSelupanLife
EXTRN	?SetSelupanLife@CRaklionSelupan@@QAEXH@Z:PROC	; CRaklionSelupan::SetSelupanLife
EXTRN	?InitSelupanObjIndex@CRaklionSelupan@@QAEXXZ:PROC ; CRaklionSelupan::InitSelupanObjIndex
EXTRN	?CreateSelupan@CRaklionSelupan@@QAEHXZ:PROC	; CRaklionSelupan::CreateSelupan
EXTRN	?DeleteSelupan@CRaklionSelupan@@QAEXXZ:PROC	; CRaklionSelupan::DeleteSelupan
EXTRN	?GetSelupanTargetIndex@CRaklionSelupan@@QAEHXZ:PROC ; CRaklionSelupan::GetSelupanTargetIndex
EXTRN	?SetSelupanSkillDelay@CRaklionSelupan@@QAEXH@Z:PROC ; CRaklionSelupan::SetSelupanSkillDelay
EXTRN	?GetSelupanSkillDelay@CRaklionSelupan@@QAEHXZ:PROC ; CRaklionSelupan::GetSelupanSkillDelay
EXTRN	?GetBerserkIndex@CRaklionSelupan@@QAEHXZ:PROC	; CRaklionSelupan::GetBerserkIndex
EXTRN	?GetSelupanObjIndex@CRaklionSelupan@@QAEHXZ:PROC ; CRaklionSelupan::GetSelupanObjIndex
EXTRN	?DeleteSummonMonster@CRaklionSelupan@@QAEXXZ:PROC ; CRaklionSelupan::DeleteSummonMonster
EXTRN	??_ECRaklionBattleOfSelupan@@UAEPAXI@Z:PROC	; CRaklionBattleOfSelupan::`vector deleting destructor'
EXTRN	?GetBattleUserCount@CRaklionBattleUserMng@@QAEHXZ:PROC ; CRaklionBattleUserMng::GetBattleUserCount
EXTRN	?GetBattleUserIndex@CRaklionBattleUserMng@@QAEHH@Z:PROC ; CRaklionBattleUserMng::GetBattleUserIndex
EXTRN	??1CSkillDelay@@UAE@XZ:PROC			; CSkillDelay::~CSkillDelay
EXTRN	??1TMonsterAIAgro@@UAE@XZ:PROC			; TMonsterAIAgro::~TMonsterAIAgro
EXTRN	?NotifyRaklionChangeState@CRaklionUtil@@QAEXHH@Z:PROC ; CRaklionUtil::NotifyRaklionChangeState
EXTRN	?SendMsgAllUser@CRaklionUtil@@QAAXPADZZ:PROC	; CRaklionUtil::SendMsgAllUser
EXTRN	@__security_check_cookie@4:PROC
EXTRN	___CxxFrameHandler3:PROC
EXTRN	_memset:PROC
EXTRN	??_7type_info@@6B@:QWORD			; type_info::`vftable'
EXTRN	?lMsg@@3VMessage@@A:BYTE			; lMsg
EXTRN	?g_RaklionBattleUserMng@@3VCRaklionBattleUserMng@@A:BYTE ; g_RaklionBattleUserMng
EXTRN	?LogAdd@@3P6AXPADZZA:DWORD			; LogAdd
EXTRN	?LogAddC@@3P6AXEPADZZA:DWORD			; LogAddC
EXTRN	?gObj@@3PAUOBJECTSTRUCT@@A:DWORD		; gObj
EXTRN	?g_RaklionUtil@@3VCRaklionUtil@@A:DWORD		; g_RaklionUtil
EXTRN	___security_cookie:DWORD
EXTRN	__fltused:DWORD
;	COMDAT ??_R1A@?0A@EA@CRaklionBattleOfSelupan@@8
rdata$r	SEGMENT
??_R1A@?0A@EA@CRaklionBattleOfSelupan@@8 DD FLAT:??_R0?AVCRaklionBattleOfSelupan@@@8 ; CRaklionBattleOfSelupan::`RTTI Base Class Descriptor at (0,-1,0,64)'
	DD	00H
	DD	00H
	DD	0ffffffffH
	DD	00H
	DD	040H
	DD	FLAT:??_R3CRaklionBattleOfSelupan@@8
rdata$r	ENDS
;	COMDAT ??_R2CRaklionBattleOfSelupan@@8
rdata$r	SEGMENT
??_R2CRaklionBattleOfSelupan@@8 DD FLAT:??_R1A@?0A@EA@CRaklionBattleOfSelupan@@8 ; CRaklionBattleOfSelupan::`RTTI Base Class Array'
rdata$r	ENDS
;	COMDAT ??_R3CRaklionBattleOfSelupan@@8
rdata$r	SEGMENT
??_R3CRaklionBattleOfSelupan@@8 DD 00H			; CRaklionBattleOfSelupan::`RTTI Class Hierarchy Descriptor'
	DD	00H
	DD	01H
	DD	FLAT:??_R2CRaklionBattleOfSelupan@@8
rdata$r	ENDS
;	COMDAT ??_R0?AVCRaklionBattleOfSelupan@@@8
data$r	SEGMENT
??_R0?AVCRaklionBattleOfSelupan@@@8 DD FLAT:??_7type_info@@6B@ ; CRaklionBattleOfSelupan `RTTI Type Descriptor'
	DD	00H
	DB	'.?AVCRaklionBattleOfSelupan@@', 00H
data$r	ENDS
;	COMDAT ??_R4CRaklionBattleOfSelupan@@6B@
rdata$r	SEGMENT
??_R4CRaklionBattleOfSelupan@@6B@ DD 00H		; CRaklionBattleOfSelupan::`RTTI Complete Object Locator'
	DD	00H
	DD	00H
	DD	FLAT:??_R0?AVCRaklionBattleOfSelupan@@@8
	DD	FLAT:??_R3CRaklionBattleOfSelupan@@8
rdata$r	ENDS
;	COMDAT ??_C@_0EA@NKBJDPKP@?$FLRAKLION?$FN?5?$FLGmCommandSelupanPatte@
CONST	SEGMENT
??_C@_0EA@NKBJDPKP@?$FLRAKLION?$FN?5?$FLGmCommandSelupanPatte@ DB '[RAKLI'
	DB	'ON] [GmCommandSelupanPattern] Invalid pattern number : %d', 00H ; `string'
CONST	ENDS
;	COMDAT ??_C@_0DM@PLDDFBE@?$FLRAKLION?$FN?5SelupanLifePercent?5err@
CONST	SEGMENT
??_C@_0DM@PLDDFBE@?$FLRAKLION?$FN?5SelupanLifePercent?5err@ DB '[RAKLION]'
	DB	' SelupanLifePercent error : Index(%d), MaxLife(%d)', 00H ; `string'
CONST	ENDS
;	COMDAT ??_C@_0DI@MFMEMJKM@?$FLRAKLION?$FN?5SelupanMAXLife?5error?5?3@
CONST	SEGMENT
??_C@_0DI@MFMEMJKM@?$FLRAKLION?$FN?5SelupanMAXLife?5error?5?3@ DB '[RAKLI'
	DB	'ON] SelupanMAXLife error : Index(%d), MaxLife(%d)', 00H ; `string'
CONST	ENDS
;	COMDAT ??_C@_0EF@LJPNAIFB@?$FLRAKLION?$FN?$FLSetPatternCondition?$FN?5e@
CONST	SEGMENT
??_C@_0EF@LJPNAIFB@?$FLRAKLION?$FN?$FLSetPatternCondition?$FN?5e@ DB '[RA'
	DB	'KLION][SetPatternCondition] error : PatternNum(%d), Condition'
	DB	'(%d)', 00H					; `string'
CONST	ENDS
;	COMDAT ??_C@_0DO@FBHKOMND@?$FLRaklion?$FN?$FLSelupanDie?$FN?5?$CFd?1?$CFd?1?$CFd?5?$CF@
CONST	SEGMENT
??_C@_0DO@FBHKOMND@?$FLRaklion?$FN?$FLSelupanDie?$FN?5?$CFd?1?$CFd?1?$CFd?5?$CF@ DB '['
	DB	'Raklion][SelupanDie] %d/%d/%d %d:%d:%d %dth Winner : %s (%s)', 00H ; `string'
CONST	ENDS
;	COMDAT ??_C@_0DA@HPEHDIEE@?$FL?5RAKLION?5?$FN?$FL?5BattleOfSelupan?5?$FN?5S@
CONST	SEGMENT
??_C@_0DA@HPEHDIEE@?$FL?5RAKLION?5?$FN?$FL?5BattleOfSelupan?5?$FN?5S@ DB '['
	DB	' RAKLION ][ BattleOfSelupan ] State(%d) -> DIE', 00H ; `string'
CONST	ENDS
;	COMDAT ??_C@_0EK@OPJHCMEA@?$FL?5RAKLION?5?$FN?$FL?5BattleOfSelupan?5?$FN?5S@
CONST	SEGMENT
??_C@_0EK@OPJHCMEA@?$FL?5RAKLION?5?$FN?$FL?5BattleOfSelupan?5?$FN?5S@ DB '['
	DB	' RAKLION ][ BattleOfSelupan ] State(%d) -> PATTERN_7 // Life('
	DB	'%d/4800000)', 00H				; `string'
CONST	ENDS
;	COMDAT ??_C@_0EK@PILPEIIA@?$FL?5RAKLION?5?$FN?$FL?5BattleOfSelupan?5?$FN?5S@
CONST	SEGMENT
??_C@_0EK@PILPEIIA@?$FL?5RAKLION?5?$FN?$FL?5BattleOfSelupan?5?$FN?5S@ DB '['
	DB	' RAKLION ][ BattleOfSelupan ] State(%d) -> PATTERN_6 // Life('
	DB	'%d/4800000)', 00H				; `string'
CONST	ENDS
;	COMDAT ??_C@_0EK@MBMHOFMA@?$FL?5RAKLION?5?$FN?$FL?5BattleOfSelupan?5?$FN?5S@
CONST	SEGMENT
??_C@_0EK@MBMHOFMA@?$FL?5RAKLION?5?$FN?$FL?5BattleOfSelupan?5?$FN?5S@ DB '['
	DB	' RAKLION ][ BattleOfSelupan ] State(%d) -> PATTERN_5 // Life('
	DB	'%d/4800000)', 00H				; `string'
CONST	ENDS
;	COMDAT ??_C@_0EK@NGOPIBAA@?$FL?5RAKLION?5?$FN?$FL?5BattleOfSelupan?5?$FN?5S@
CONST	SEGMENT
??_C@_0EK@NGOPIBAA@?$FL?5RAKLION?5?$FN?$FL?5BattleOfSelupan?5?$FN?5S@ DB '['
	DB	' RAKLION ][ BattleOfSelupan ] State(%d) -> PATTERN_4 // Life('
	DB	'%d/4800000)', 00H				; `string'
CONST	ENDS
;	COMDAT ??_C@_0EK@LDDGLPEA@?$FL?5RAKLION?5?$FN?$FL?5BattleOfSelupan?5?$FN?5S@
CONST	SEGMENT
??_C@_0EK@LDDGLPEA@?$FL?5RAKLION?5?$FN?$FL?5BattleOfSelupan?5?$FN?5S@ DB '['
	DB	' RAKLION ][ BattleOfSelupan ] State(%d) -> PATTERN_3 // Life('
	DB	'%d/4800000)', 00H				; `string'
CONST	ENDS
;	COMDAT ??_C@_0EK@KEBONLIA@?$FL?5RAKLION?5?$FN?$FL?5BattleOfSelupan?5?$FN?5S@
CONST	SEGMENT
??_C@_0EK@KEBONLIA@?$FL?5RAKLION?5?$FN?$FL?5BattleOfSelupan?5?$FN?5S@ DB '['
	DB	' RAKLION ][ BattleOfSelupan ] State(%d) -> PATTERN_2 // Life('
	DB	'%d/4800000)', 00H				; `string'
CONST	ENDS
;	COMDAT ??_C@_0EK@JNGGHGMA@?$FL?5RAKLION?5?$FN?$FL?5BattleOfSelupan?5?$FN?5S@
CONST	SEGMENT
??_C@_0EK@JNGGHGMA@?$FL?5RAKLION?5?$FN?$FL?5BattleOfSelupan?5?$FN?5S@ DB '['
	DB	' RAKLION ][ BattleOfSelupan ] State(%d) -> PATTERN_1 // Life('
	DB	'%d/4800000)', 00H				; `string'
CONST	ENDS
;	COMDAT ??_C@_0DE@EBLINPPG@?$FL?5RAKLION?5?$FN?$FL?5BattleOfSelupan?5?$FN?5S@
CONST	SEGMENT
??_C@_0DE@EBLINPPG@?$FL?5RAKLION?5?$FN?$FL?5BattleOfSelupan?5?$FN?5S@ DB '['
	DB	' RAKLION ][ BattleOfSelupan ] State(%d) -> STANDBY', 00H ; `string'
CONST	ENDS
;	COMDAT ??_C@_0DB@JPEONBGN@?$FL?5RAKLION?5?$FN?$FL?5BattleOfSelupan?5?$FN?5S@
CONST	SEGMENT
??_C@_0DB@JPEONBGN@?$FL?5RAKLION?5?$FN?$FL?5BattleOfSelupan?5?$FN?5S@ DB '['
	DB	' RAKLION ][ BattleOfSelupan ] State(%d) -> NONE', 00H ; `string'
CONST	ENDS
;	COMDAT ??_7CRaklionBattleOfSelupan@@6B@
CONST	SEGMENT
??_7CRaklionBattleOfSelupan@@6B@ DD FLAT:??_R4CRaklionBattleOfSelupan@@6B@ ; CRaklionBattleOfSelupan::`vftable'
	DD	FLAT:??_ECRaklionBattleOfSelupan@@UAEPAXI@Z
CONST	ENDS
;	COMDAT xdata$x
xdata$x	SEGMENT
__ehfuncinfo$??_EOBJECTSTRUCT@@QAEPAXI@Z DD 019930522H
	DD	00H
	DD	00H
	DD	2 DUP(00H)
	DD	2 DUP(00H)
	DD	00H
	DD	05H
xdata$x	ENDS
; Function compile flags: /Ogtp
;	COMDAT ??_EOBJECTSTRUCT@@QAEPAXI@Z
_TEXT	SEGMENT
__$EHRec$ = -12						; size = 12
___flags$ = 8						; size = 4
??_EOBJECTSTRUCT@@QAEPAXI@Z PROC			; OBJECTSTRUCT::`vector deleting destructor', COMDAT
; _this$ = ecx
  00000	55		 push	 ebp
  00001	8b ec		 mov	 ebp, esp
  00003	6a ff		 push	 -1
  00005	68 00 00 00 00	 push	 __ehhandler$??_EOBJECTSTRUCT@@QAEPAXI@Z
  0000a	64 a1 00 00 00
	00		 mov	 eax, DWORD PTR fs:0
  00010	50		 push	 eax
  00011	53		 push	 ebx
  00012	56		 push	 esi
  00013	57		 push	 edi
  00014	a1 00 00 00 00	 mov	 eax, DWORD PTR ___security_cookie
  00019	33 c5		 xor	 eax, ebp
  0001b	50		 push	 eax
  0001c	8d 45 f4	 lea	 eax, DWORD PTR __$EHRec$[ebp]
  0001f	64 a3 00 00 00
	00		 mov	 DWORD PTR fs:0, eax
  00025	8b f1		 mov	 esi, ecx
  00027	8b 5d 08	 mov	 ebx, DWORD PTR ___flags$[ebp]
  0002a	f6 c3 02	 test	 bl, 2
  0002d	74 44		 je	 SHORT $LN2@vector
  0002f	68 00 00 00 00	 push	 OFFSET ??1OBJECTSTRUCT@@QAE@XZ
  00034	ff 76 fc	 push	 DWORD PTR [esi-4]
  00037	8d 7e fc	 lea	 edi, DWORD PTR [esi-4]
  0003a	68 40 27 00 00	 push	 10048			; 00002740H
  0003f	56		 push	 esi
  00040	e8 00 00 00 00	 call	 ??_M@YGXPAXIIP6EX0@Z@Z
  00045	f6 c3 01	 test	 bl, 1
  00048	74 13		 je	 SHORT $LN3@vector
  0004a	69 0f 40 27 00
	00		 imul	 ecx, DWORD PTR [edi], 10048
  00050	83 c1 04	 add	 ecx, 4
  00053	51		 push	 ecx
  00054	57		 push	 edi
  00055	e8 00 00 00 00	 call	 ??_V@YAXPAXI@Z		; operator delete[]
  0005a	83 c4 08	 add	 esp, 8
$LN3@vector:
  0005d	8b c7		 mov	 eax, edi
  0005f	8b 4d f4	 mov	 ecx, DWORD PTR __$EHRec$[ebp]
  00062	64 89 0d 00 00
	00 00		 mov	 DWORD PTR fs:0, ecx
  00069	59		 pop	 ecx
  0006a	5f		 pop	 edi
  0006b	5e		 pop	 esi
  0006c	5b		 pop	 ebx
  0006d	8b e5		 mov	 esp, ebp
  0006f	5d		 pop	 ebp
  00070	c2 04 00	 ret	 4
$LN2@vector:
  00073	8d 8e ec 20 00
	00		 lea	 ecx, DWORD PTR [esi+8428]
  00079	e8 00 00 00 00	 call	 ??1TMonsterAIAgro@@UAE@XZ ; TMonsterAIAgro::~TMonsterAIAgro
  0007e	8d 8e 0c 16 00
	00		 lea	 ecx, DWORD PTR [esi+5644]
  00084	e8 00 00 00 00	 call	 ??1CSkillDelay@@UAE@XZ	; CSkillDelay::~CSkillDelay
  00089	f6 c3 01	 test	 bl, 1
  0008c	74 0e		 je	 SHORT $LN4@vector
  0008e	68 40 27 00 00	 push	 10048			; 00002740H
  00093	56		 push	 esi
  00094	e8 00 00 00 00	 call	 ??3@YAXPAXI@Z		; operator delete
  00099	83 c4 08	 add	 esp, 8
$LN4@vector:
  0009c	8b c6		 mov	 eax, esi
  0009e	8b 4d f4	 mov	 ecx, DWORD PTR __$EHRec$[ebp]
  000a1	64 89 0d 00 00
	00 00		 mov	 DWORD PTR fs:0, ecx
  000a8	59		 pop	 ecx
  000a9	5f		 pop	 edi
  000aa	5e		 pop	 esi
  000ab	5b		 pop	 ebx
  000ac	8b e5		 mov	 esp, ebp
  000ae	5d		 pop	 ebp
  000af	c2 04 00	 ret	 4
_TEXT	ENDS
;	COMDAT text$x
text$x	SEGMENT
__ehhandler$??_EOBJECTSTRUCT@@QAEPAXI@Z:
  00000	8b 54 24 08	 mov	 edx, DWORD PTR [esp+8]
  00004	8d 42 0c	 lea	 eax, DWORD PTR [edx+12]
  00007	8b 4a f0	 mov	 ecx, DWORD PTR [edx-16]
  0000a	33 c8		 xor	 ecx, eax
  0000c	e8 00 00 00 00	 call	 @__security_check_cookie@4
  00011	b8 00 00 00 00	 mov	 eax, OFFSET __ehfuncinfo$??_EOBJECTSTRUCT@@QAEPAXI@Z
  00016	e9 00 00 00 00	 jmp	 ___CxxFrameHandler3
text$x	ENDS
??_EOBJECTSTRUCT@@QAEPAXI@Z ENDP			; OBJECTSTRUCT::`vector deleting destructor'
; Function compile flags: /Ogtp
;	COMDAT ??1OBJECTSTRUCT@@QAE@XZ
_TEXT	SEGMENT
??1OBJECTSTRUCT@@QAE@XZ PROC				; OBJECTSTRUCT::~OBJECTSTRUCT, COMDAT
; _this$ = ecx
  00000	56		 push	 esi
  00001	8b f1		 mov	 esi, ecx
  00003	8d 8e ec 20 00
	00		 lea	 ecx, DWORD PTR [esi+8428]
  00009	e8 00 00 00 00	 call	 ??1TMonsterAIAgro@@UAE@XZ ; TMonsterAIAgro::~TMonsterAIAgro
  0000e	8d 8e 0c 16 00
	00		 lea	 ecx, DWORD PTR [esi+5644]
  00014	5e		 pop	 esi
  00015	e9 00 00 00 00	 jmp	 ??1CSkillDelay@@UAE@XZ	; CSkillDelay::~CSkillDelay
??1OBJECTSTRUCT@@QAE@XZ ENDP				; OBJECTSTRUCT::~OBJECTSTRUCT
_TEXT	ENDS
; Function compile flags: /Ogtp
;	COMDAT ??_GCRaklionBattleOfSelupan@@UAEPAXI@Z
_TEXT	SEGMENT
___flags$ = 8						; size = 4
??_GCRaklionBattleOfSelupan@@UAEPAXI@Z PROC		; CRaklionBattleOfSelupan::`scalar deleting destructor', COMDAT
; _this$ = ecx
  00000	55		 push	 ebp
  00001	8b ec		 mov	 ebp, esp
  00003	56		 push	 esi
  00004	8b f1		 mov	 esi, ecx
  00006	e8 00 00 00 00	 call	 ??1CRaklionBattleOfSelupan@@UAE@XZ ; CRaklionBattleOfSelupan::~CRaklionBattleOfSelupan
  0000b	f6 45 08 01	 test	 BYTE PTR ___flags$[ebp], 1
  0000f	74 0e		 je	 SHORT $LN4@scalar
  00011	68 d0 0d 00 00	 push	 3536			; 00000dd0H
  00016	56		 push	 esi
  00017	e8 00 00 00 00	 call	 ??3@YAXPAXI@Z		; operator delete
  0001c	83 c4 08	 add	 esp, 8
$LN4@scalar:
  0001f	8b c6		 mov	 eax, esi
  00021	5e		 pop	 esi
  00022	5d		 pop	 ebp
  00023	c2 04 00	 ret	 4
??_GCRaklionBattleOfSelupan@@UAEPAXI@Z ENDP		; CRaklionBattleOfSelupan::`scalar deleting destructor'
_TEXT	ENDS
; Function compile flags: /Ogtp
; File c:\users\michel\desktop\source\gameserver\source\raklionbattleofselupan.h
;	COMDAT ?SetSuccessValue@CRaklionBattleOfSelupan@@QAEXH@Z
_TEXT	SEGMENT
_bIsSuccess$ = 8					; size = 4
?SetSuccessValue@CRaklionBattleOfSelupan@@QAEXH@Z PROC	; CRaklionBattleOfSelupan::SetSuccessValue, COMDAT
; _this$ = ecx

; 97   : 	void SetSuccessValue			(BOOL bIsSuccess)				{			this->m_bIsSucccess				= bIsSuccess;				}

  00000	55		 push	 ebp
  00001	8b ec		 mov	 ebp, esp
  00003	8b 45 08	 mov	 eax, DWORD PTR _bIsSuccess$[ebp]
  00006	89 41 30	 mov	 DWORD PTR [ecx+48], eax
  00009	5d		 pop	 ebp
  0000a	c2 04 00	 ret	 4
?SetSuccessValue@CRaklionBattleOfSelupan@@QAEXH@Z ENDP	; CRaklionBattleOfSelupan::SetSuccessValue
_TEXT	ENDS
; Function compile flags: /Ogtp
; File c:\users\michel\desktop\source\gameserver\source\raklionbattleofselupan.h
;	COMDAT ?GetBattleOfSelupanState@CRaklionBattleOfSelupan@@QAEHXZ
_TEXT	SEGMENT
?GetBattleOfSelupanState@CRaklionBattleOfSelupan@@QAEHXZ PROC ; CRaklionBattleOfSelupan::GetBattleOfSelupanState, COMDAT
; _this$ = ecx

; 96   : 	int GetBattleOfSelupanState		(							)	{	return	this->m_iBattleOfSelupanState;								}

  00000	8b 41 08	 mov	 eax, DWORD PTR [ecx+8]
  00003	c3		 ret	 0
?GetBattleOfSelupanState@CRaklionBattleOfSelupan@@QAEHXZ ENDP ; CRaklionBattleOfSelupan::GetBattleOfSelupanState
_TEXT	ENDS
; Function compile flags: /Ogtp
; File c:\users\michel\desktop\source\gameserver\source\raklionbattleofselupan.h
;	COMDAT ?SetBattleOfSelupanState@CRaklionBattleOfSelupan@@QAEXH@Z
_TEXT	SEGMENT
_m_iBattleOfSelupanState$ = 8				; size = 4
?SetBattleOfSelupanState@CRaklionBattleOfSelupan@@QAEXH@Z PROC ; CRaklionBattleOfSelupan::SetBattleOfSelupanState, COMDAT
; _this$ = ecx

; 95   : 	void SetBattleOfSelupanState	(int m_iBattleOfSelupanState)	{			this->m_iBattleOfSelupanState	= m_iBattleOfSelupanState;	}

  00000	55		 push	 ebp
  00001	8b ec		 mov	 ebp, esp
  00003	8b 45 08	 mov	 eax, DWORD PTR _m_iBattleOfSelupanState$[ebp]
  00006	89 41 08	 mov	 DWORD PTR [ecx+8], eax
  00009	5d		 pop	 ebp
  0000a	c2 04 00	 ret	 4
?SetBattleOfSelupanState@CRaklionBattleOfSelupan@@QAEXH@Z ENDP ; CRaklionBattleOfSelupan::SetBattleOfSelupanState
_TEXT	ENDS
; Function compile flags: /Ogtp
; File c:\users\michel\desktop\source\gameserver\source\raklionbattleofselupan.cpp
;	COMDAT ?GmCommandSelupanPattern@CRaklionBattleOfSelupan@@QAEXH@Z
_TEXT	SEGMENT
_StatePattern$ = 8					; size = 4
?GmCommandSelupanPattern@CRaklionBattleOfSelupan@@QAEXH@Z PROC ; CRaklionBattleOfSelupan::GmCommandSelupanPattern, COMDAT
; _this$ = ecx

; 505  : {

  00000	55		 push	 ebp
  00001	8b ec		 mov	 ebp, esp

; 506  : 	if ( StatePattern < 2 || StatePattern > 8)

  00003	8b 55 08	 mov	 edx, DWORD PTR _StatePattern$[ebp]
  00006	8d 42 fe	 lea	 eax, DWORD PTR [edx-2]
  00009	83 f8 06	 cmp	 eax, 6
  0000c	0f 87 83 00 00
	00		 ja	 $LN5@GmCommandS

; 509  : 		return;
; 510  : 	}
; 511  : 	
; 512  : 	switch(StatePattern)

  00012	83 c2 fe	 add	 edx, -2			; fffffffeH
  00015	83 fa 06	 cmp	 edx, 6
  00018	0f 87 88 00 00
	00		 ja	 $LN2@GmCommandS
  0001e	ff 24 95 00 00
	00 00		 jmp	 DWORD PTR $LN17@GmCommandS[edx*4]
$LN6@GmCommandS:

; 513  : 	{
; 514  : 	case 2: this->m_RaklionSelupan.SetSelupanLife(100);	break;

  00025	c7 45 08 64 00
	00 00		 mov	 DWORD PTR _StatePattern$[ebp], 100 ; 00000064H
  0002c	83 c1 34	 add	 ecx, 52			; 00000034H

; 521  : 	}
; 522  : }

  0002f	5d		 pop	 ebp

; 513  : 	{
; 514  : 	case 2: this->m_RaklionSelupan.SetSelupanLife(100);	break;

  00030	e9 00 00 00 00	 jmp	 ?SetSelupanLife@CRaklionSelupan@@QAEXH@Z ; CRaklionSelupan::SetSelupanLife
$LN7@GmCommandS:

; 515  : 	case 3: this->m_RaklionSelupan.SetSelupanLife(80);	break;

  00035	c7 45 08 50 00
	00 00		 mov	 DWORD PTR _StatePattern$[ebp], 80 ; 00000050H
  0003c	83 c1 34	 add	 ecx, 52			; 00000034H

; 521  : 	}
; 522  : }

  0003f	5d		 pop	 ebp

; 515  : 	case 3: this->m_RaklionSelupan.SetSelupanLife(80);	break;

  00040	e9 00 00 00 00	 jmp	 ?SetSelupanLife@CRaklionSelupan@@QAEXH@Z ; CRaklionSelupan::SetSelupanLife
$LN8@GmCommandS:

; 516  : 	case 4:	this->m_RaklionSelupan.SetSelupanLife(60);	break;

  00045	c7 45 08 3c 00
	00 00		 mov	 DWORD PTR _StatePattern$[ebp], 60 ; 0000003cH
  0004c	83 c1 34	 add	 ecx, 52			; 00000034H

; 521  : 	}
; 522  : }

  0004f	5d		 pop	 ebp

; 516  : 	case 4:	this->m_RaklionSelupan.SetSelupanLife(60);	break;

  00050	e9 00 00 00 00	 jmp	 ?SetSelupanLife@CRaklionSelupan@@QAEXH@Z ; CRaklionSelupan::SetSelupanLife
$LN9@GmCommandS:

; 517  : 	case 5:	this->m_RaklionSelupan.SetSelupanLife(50);	break;

  00055	c7 45 08 32 00
	00 00		 mov	 DWORD PTR _StatePattern$[ebp], 50 ; 00000032H
  0005c	83 c1 34	 add	 ecx, 52			; 00000034H

; 521  : 	}
; 522  : }

  0005f	5d		 pop	 ebp

; 517  : 	case 5:	this->m_RaklionSelupan.SetSelupanLife(50);	break;

  00060	e9 00 00 00 00	 jmp	 ?SetSelupanLife@CRaklionSelupan@@QAEXH@Z ; CRaklionSelupan::SetSelupanLife
$LN10@GmCommandS:

; 518  : 	case 6:	this->m_RaklionSelupan.SetSelupanLife(40);	break;

  00065	c7 45 08 28 00
	00 00		 mov	 DWORD PTR _StatePattern$[ebp], 40 ; 00000028H
  0006c	83 c1 34	 add	 ecx, 52			; 00000034H

; 521  : 	}
; 522  : }

  0006f	5d		 pop	 ebp

; 518  : 	case 6:	this->m_RaklionSelupan.SetSelupanLife(40);	break;

  00070	e9 00 00 00 00	 jmp	 ?SetSelupanLife@CRaklionSelupan@@QAEXH@Z ; CRaklionSelupan::SetSelupanLife
$LN11@GmCommandS:

; 519  : 	case 7:	this->m_RaklionSelupan.SetSelupanLife(20);	break;

  00075	c7 45 08 14 00
	00 00		 mov	 DWORD PTR _StatePattern$[ebp], 20 ; 00000014H
  0007c	83 c1 34	 add	 ecx, 52			; 00000034H

; 521  : 	}
; 522  : }

  0007f	5d		 pop	 ebp

; 519  : 	case 7:	this->m_RaklionSelupan.SetSelupanLife(20);	break;

  00080	e9 00 00 00 00	 jmp	 ?SetSelupanLife@CRaklionSelupan@@QAEXH@Z ; CRaklionSelupan::SetSelupanLife
$LN12@GmCommandS:

; 520  : 	case 8:	this->m_RaklionSelupan.SetSelupanLife(10);	break;

  00085	c7 45 08 0a 00
	00 00		 mov	 DWORD PTR _StatePattern$[ebp], 10 ; 0000000aH
  0008c	83 c1 34	 add	 ecx, 52			; 00000034H

; 521  : 	}
; 522  : }

  0008f	5d		 pop	 ebp

; 520  : 	case 8:	this->m_RaklionSelupan.SetSelupanLife(10);	break;

  00090	e9 00 00 00 00	 jmp	 ?SetSelupanLife@CRaklionSelupan@@QAEXH@Z ; CRaklionSelupan::SetSelupanLife
$LN5@GmCommandS:

; 507  : 	{
; 508  : 		LogAddC(2,"[RAKLION] [GmCommandSelupanPattern] Invalid pattern number : %d",StatePattern);

  00095	52		 push	 edx
  00096	68 00 00 00 00	 push	 OFFSET ??_C@_0EA@NKBJDPKP@?$FLRAKLION?$FN?5?$FLGmCommandSelupanPatte@
  0009b	6a 02		 push	 2
  0009d	ff 15 00 00 00
	00		 call	 DWORD PTR ?LogAddC@@3P6AXEPADZZA ; LogAddC
  000a3	83 c4 0c	 add	 esp, 12			; 0000000cH
$LN2@GmCommandS:

; 521  : 	}
; 522  : }

  000a6	5d		 pop	 ebp
  000a7	c2 04 00	 ret	 4
  000aa	66 90		 npad	 2
$LN17@GmCommandS:
  000ac	00 00 00 00	 DD	 $LN6@GmCommandS
  000b0	00 00 00 00	 DD	 $LN7@GmCommandS
  000b4	00 00 00 00	 DD	 $LN8@GmCommandS
  000b8	00 00 00 00	 DD	 $LN9@GmCommandS
  000bc	00 00 00 00	 DD	 $LN10@GmCommandS
  000c0	00 00 00 00	 DD	 $LN11@GmCommandS
  000c4	00 00 00 00	 DD	 $LN12@GmCommandS
?GmCommandSelupanPattern@CRaklionBattleOfSelupan@@QAEXH@Z ENDP ; CRaklionBattleOfSelupan::GmCommandSelupanPattern
_TEXT	ENDS
; Function compile flags: /Ogtp
; File c:\users\michel\desktop\source\gameserver\source\raklionbattleofselupan.cpp
;	COMDAT ?SetSelupanSkillDelay@CRaklionBattleOfSelupan@@QAEXH@Z
_TEXT	SEGMENT
_SkillDelay$ = 8					; size = 4
?SetSelupanSkillDelay@CRaklionBattleOfSelupan@@QAEXH@Z PROC ; CRaklionBattleOfSelupan::SetSelupanSkillDelay, COMDAT
; _this$ = ecx

; 500  : {

  00000	55		 push	 ebp
  00001	8b ec		 mov	 ebp, esp

; 501  : 	this->m_RaklionSelupan.SetSelupanSkillDelay(SkillDelay);

  00003	83 c1 34	 add	 ecx, 52			; 00000034H

; 502  : }

  00006	5d		 pop	 ebp

; 501  : 	this->m_RaklionSelupan.SetSelupanSkillDelay(SkillDelay);

  00007	e9 00 00 00 00	 jmp	 ?SetSelupanSkillDelay@CRaklionSelupan@@QAEXH@Z ; CRaklionSelupan::SetSelupanSkillDelay
?SetSelupanSkillDelay@CRaklionBattleOfSelupan@@QAEXH@Z ENDP ; CRaklionBattleOfSelupan::SetSelupanSkillDelay
_TEXT	ENDS
; Function compile flags: /Ogtp
; File c:\users\michel\desktop\source\gameserver\source\raklionbattleofselupan.cpp
;	COMDAT ?DeleteSummonMonster@CRaklionBattleOfSelupan@@QAEXXZ
_TEXT	SEGMENT
?DeleteSummonMonster@CRaklionBattleOfSelupan@@QAEXXZ PROC ; CRaklionBattleOfSelupan::DeleteSummonMonster, COMDAT
; _this$ = ecx

; 496  : 	this->m_RaklionSelupan.DeleteSummonMonster();

  00000	83 c1 34	 add	 ecx, 52			; 00000034H
  00003	e9 00 00 00 00	 jmp	 ?DeleteSummonMonster@CRaklionSelupan@@QAEXXZ ; CRaklionSelupan::DeleteSummonMonster
?DeleteSummonMonster@CRaklionBattleOfSelupan@@QAEXXZ ENDP ; CRaklionBattleOfSelupan::DeleteSummonMonster
_TEXT	ENDS
; Function compile flags: /Ogtp
; File c:\users\michel\desktop\source\gameserver\source\raklionbattleofselupan.cpp
;	COMDAT ?GetSelupanObjIndex@CRaklionBattleOfSelupan@@QAEHXZ
_TEXT	SEGMENT
?GetSelupanObjIndex@CRaklionBattleOfSelupan@@QAEHXZ PROC ; CRaklionBattleOfSelupan::GetSelupanObjIndex, COMDAT
; _this$ = ecx

; 491  : 	return this->m_RaklionSelupan.GetSelupanObjIndex();

  00000	83 c1 34	 add	 ecx, 52			; 00000034H
  00003	e9 00 00 00 00	 jmp	 ?GetSelupanObjIndex@CRaklionSelupan@@QAEHXZ ; CRaklionSelupan::GetSelupanObjIndex
?GetSelupanObjIndex@CRaklionBattleOfSelupan@@QAEHXZ ENDP ; CRaklionBattleOfSelupan::GetSelupanObjIndex
_TEXT	ENDS
; Function compile flags: /Ogtp
; File c:\users\michel\desktop\source\gameserver\source\raklionbattleofselupan.cpp
;	COMDAT ?DeleteSelupan@CRaklionBattleOfSelupan@@QAEXXZ
_TEXT	SEGMENT
?DeleteSelupan@CRaklionBattleOfSelupan@@QAEXXZ PROC	; CRaklionBattleOfSelupan::DeleteSelupan, COMDAT
; _this$ = ecx

; 486  : 	this->m_RaklionSelupan.DeleteSelupan();

  00000	83 c1 34	 add	 ecx, 52			; 00000034H
  00003	e9 00 00 00 00	 jmp	 ?DeleteSelupan@CRaklionSelupan@@QAEXXZ ; CRaklionSelupan::DeleteSelupan
?DeleteSelupan@CRaklionBattleOfSelupan@@QAEXXZ ENDP	; CRaklionBattleOfSelupan::DeleteSelupan
_TEXT	ENDS
; Function compile flags: /Ogtp
; File c:\users\michel\desktop\source\gameserver\source\raklionbattleofselupan.cpp
;	COMDAT ?CreateSelupan@CRaklionBattleOfSelupan@@QAEXXZ
_TEXT	SEGMENT
?CreateSelupan@CRaklionBattleOfSelupan@@QAEXXZ PROC	; CRaklionBattleOfSelupan::CreateSelupan, COMDAT
; _this$ = ecx

; 481  : 	this->m_RaklionSelupan.CreateSelupan();

  00000	83 c1 34	 add	 ecx, 52			; 00000034H
  00003	e9 00 00 00 00	 jmp	 ?CreateSelupan@CRaklionSelupan@@QAEHXZ ; CRaklionSelupan::CreateSelupan
?CreateSelupan@CRaklionBattleOfSelupan@@QAEXXZ ENDP	; CRaklionBattleOfSelupan::CreateSelupan
_TEXT	ENDS
; Function compile flags: /Ogtp
; File c:\users\michel\desktop\source\gameserver\source\raklionbattleofselupan.cpp
;	COMDAT ?GetBattleUserCount@CRaklionBattleOfSelupan@@QAEHXZ
_TEXT	SEGMENT
?GetBattleUserCount@CRaklionBattleOfSelupan@@QAEHXZ PROC ; CRaklionBattleOfSelupan::GetBattleUserCount, COMDAT
; _this$ = ecx

; 476  : 	return g_RaklionBattleUserMng.GetBattleUserCount();

  00000	b9 00 00 00 00	 mov	 ecx, OFFSET ?g_RaklionBattleUserMng@@3VCRaklionBattleUserMng@@A ; g_RaklionBattleUserMng
  00005	e9 00 00 00 00	 jmp	 ?GetBattleUserCount@CRaklionBattleUserMng@@QAEHXZ ; CRaklionBattleUserMng::GetBattleUserCount
?GetBattleUserCount@CRaklionBattleOfSelupan@@QAEHXZ ENDP ; CRaklionBattleOfSelupan::GetBattleUserCount
_TEXT	ENDS
; Function compile flags: /Ogtp
; File c:\users\michel\desktop\source\gameserver\source\raklionbattleofselupan.cpp
;	COMDAT ?SelupanLifeCheck@CRaklionBattleOfSelupan@@QAEXXZ
_TEXT	SEGMENT
?SelupanLifeCheck@CRaklionBattleOfSelupan@@QAEXXZ PROC	; CRaklionBattleOfSelupan::SelupanLifeCheck, COMDAT
; _this$ = ecx

; 385  : {

  00000	56		 push	 esi
  00001	8b f1		 mov	 esi, ecx
  00003	57		 push	 edi

; 386  : 	int aIndex = 0;
; 387  : 	int MaxLife = 0;
; 388  : 	int Percent = 0;
; 389  : 	LPOBJ lpObj = 0;
; 390  : 
; 391  : 	aIndex = this->m_RaklionSelupan.GetSelupanObjIndex();

  00004	8d 4e 34	 lea	 ecx, DWORD PTR [esi+52]
  00007	e8 00 00 00 00	 call	 ?GetSelupanObjIndex@CRaklionSelupan@@QAEHXZ ; CRaklionSelupan::GetSelupanObjIndex

; 392  : 	
; 393  : 	lpObj = &gObj[aIndex];

  0000c	69 f8 40 27 00
	00		 imul	 edi, eax, 10048
  00012	03 3d 00 00 00
	00		 add	 edi, DWORD PTR ?gObj@@3PAUOBJECTSTRUCT@@A ; gObj

; 394  : 	
; 395  : 	if ( lpObj->DieRegen != 0)

  00018	80 bf 8a 05 00
	00 00		 cmp	 BYTE PTR [edi+1418], 0
  0001f	0f 85 29 01 00
	00		 jne	 $LN25@SelupanLif

; 396  : 	{
; 397  : 		return;
; 398  : 	}
; 399  : 
; 400  : 	MaxLife = lpObj->AddLife + lpObj->MaxLife;

  00025	66 0f 6e 87 24
	01 00 00	 movd	 xmm0, DWORD PTR [edi+292]
  0002d	f3 0f 10 8f dc
	00 00 00	 movss	 xmm1, DWORD PTR [edi+220]
  00035	0f 5b c0	 cvtdq2ps xmm0, xmm0
  00038	53		 push	 ebx
  00039	f3 0f 58 c1	 addss	 xmm0, xmm1
  0003d	f3 0f 2c d8	 cvttss2si ebx, xmm0

; 401  : 	
; 402  : 	if (MaxLife <= 0)

  00041	85 db		 test	 ebx, ebx
  00043	7f 21		 jg	 SHORT $LN3@SelupanLif

; 403  : 	{
; 404  : 		LogAddC(2,"[RAKLION] SelupanMAXLife error : Index(%d), MaxLife(%d)",lpObj->m_Index,lpObj->MaxLife);

  00045	0f 5a c1	 cvtps2pd xmm0, xmm1
  00048	83 ec 08	 sub	 esp, 8
  0004b	f2 0f 11 04 24	 movsd	 QWORD PTR [esp], xmm0
  00050	ff 37		 push	 DWORD PTR [edi]
  00052	68 00 00 00 00	 push	 OFFSET ??_C@_0DI@MFMEMJKM@?$FLRAKLION?$FN?5SelupanMAXLife?5error?5?3@
  00057	6a 02		 push	 2
  00059	ff 15 00 00 00
	00		 call	 DWORD PTR ?LogAddC@@3P6AXEPADZZA ; LogAddC
  0005f	83 c4 14	 add	 esp, 20			; 00000014H
  00062	5b		 pop	 ebx
  00063	5f		 pop	 edi
  00064	5e		 pop	 esi

; 470  : 		}
; 471  : 	}
; 472  : }

  00065	c3		 ret	 0
$LN3@SelupanLif:

; 405  : 		return;
; 406  : 	}	
; 407  : 
; 408  : 	Percent = this->m_RaklionSelupan.GetSelupanLife() * 100 / MaxLife;

  00066	8d 4e 34	 lea	 ecx, DWORD PTR [esi+52]
  00069	e8 00 00 00 00	 call	 ?GetSelupanLife@CRaklionSelupan@@QAEKXZ ; CRaklionSelupan::GetSelupanLife
  0006e	6b c0 64	 imul	 eax, eax, 100
  00071	33 d2		 xor	 edx, edx
  00073	f7 f3		 div	 ebx

; 409  : 	
; 410  : 	if ( Percent < 0 )

  00075	85 c0		 test	 eax, eax
  00077	79 17		 jns	 SHORT $LN4@SelupanLif

; 411  : 	{
; 412  : 		LogAddC(2,"[RAKLION] SelupanLifePercent error : Index(%d), MaxLife(%d)",lpObj->m_Index,Percent);

  00079	50		 push	 eax
  0007a	ff 37		 push	 DWORD PTR [edi]
  0007c	68 00 00 00 00	 push	 OFFSET ??_C@_0DM@PLDDFBE@?$FLRAKLION?$FN?5SelupanLifePercent?5err@
  00081	6a 02		 push	 2
  00083	ff 15 00 00 00
	00		 call	 DWORD PTR ?LogAddC@@3P6AXEPADZZA ; LogAddC
  00089	83 c4 10	 add	 esp, 16			; 00000010H
  0008c	5b		 pop	 ebx
  0008d	5f		 pop	 edi
  0008e	5e		 pop	 esi

; 470  : 		}
; 471  : 	}
; 472  : }

  0008f	c3		 ret	 0
$LN4@SelupanLif:

; 413  : 		return;
; 414  : 	}
; 415  : 	
; 416  : 	if ( this->m_bIsUseFirstSkill == FALSE )

  00090	83 7e 2c 00	 cmp	 DWORD PTR [esi+44], 0
  00094	75 14		 jne	 SHORT $LN5@SelupanLif

; 417  :     {
; 418  : 		this->PatternStateSkillUseProc(SKILL_FIRSTSKILL);

  00096	6a 00		 push	 0
  00098	8b ce		 mov	 ecx, esi
  0009a	e8 00 00 00 00	 call	 ?PatternStateSkillUseProc@CRaklionBattleOfSelupan@@QAEXH@Z ; CRaklionBattleOfSelupan::PatternStateSkillUseProc
  0009f	5b		 pop	 ebx
  000a0	5f		 pop	 edi

; 419  : 		this->m_bIsUseFirstSkill = 1;

  000a1	c7 46 2c 01 00
	00 00		 mov	 DWORD PTR [esi+44], 1
  000a8	5e		 pop	 esi

; 470  : 		}
; 471  : 	}
; 472  : }

  000a9	c3		 ret	 0
$LN5@SelupanLif:

; 420  : 		return;
; 421  : 	}
; 422  : 	
; 423  : 	if ( Percent > this->m_PatternCondition[0] )

  000aa	3b 46 0c	 cmp	 eax, DWORD PTR [esi+12]
  000ad	7e 17		 jle	 SHORT $LN6@SelupanLif

; 424  : 	{
; 425  : 		if(this->GetBattleOfSelupanState() != SELUPAN_STATE_PATTERN_1)

  000af	83 7e 08 02	 cmp	 DWORD PTR [esi+8], 2
  000b3	0f 84 94 00 00
	00		 je	 $LN41@SelupanLif

; 426  : 		{
; 427  : 			this->SetState(SELUPAN_STATE_PATTERN_1);

  000b9	6a 02		 push	 2

; 468  : 		{
; 469  : 			this->SetState(SELUPAN_STATE_PATTERN_7);

  000bb	8b ce		 mov	 ecx, esi
  000bd	e8 00 00 00 00	 call	 ?SetState@CRaklionBattleOfSelupan@@QAEXH@Z ; CRaklionBattleOfSelupan::SetState
  000c2	5b		 pop	 ebx
  000c3	5f		 pop	 edi
  000c4	5e		 pop	 esi

; 470  : 		}
; 471  : 	}
; 472  : }

  000c5	c3		 ret	 0
$LN6@SelupanLif:

; 428  : 		}
; 429  : 	}
; 430  : 	else if ( Percent > this->m_PatternCondition[1] )

  000c6	3b 46 10	 cmp	 eax, DWORD PTR [esi+16]
  000c9	7e 13		 jle	 SHORT $LN9@SelupanLif

; 431  : 	{
; 432  : 		if ( this->GetBattleOfSelupanState() != SELUPAN_STATE_PATTERN_2 )

  000cb	83 7e 08 03	 cmp	 DWORD PTR [esi+8], 3
  000cf	74 7c		 je	 SHORT $LN41@SelupanLif

; 433  : 		{
; 434  : 			this->SetState(SELUPAN_STATE_PATTERN_2);

  000d1	6a 03		 push	 3

; 468  : 		{
; 469  : 			this->SetState(SELUPAN_STATE_PATTERN_7);

  000d3	8b ce		 mov	 ecx, esi
  000d5	e8 00 00 00 00	 call	 ?SetState@CRaklionBattleOfSelupan@@QAEXH@Z ; CRaklionBattleOfSelupan::SetState
  000da	5b		 pop	 ebx
  000db	5f		 pop	 edi
  000dc	5e		 pop	 esi

; 470  : 		}
; 471  : 	}
; 472  : }

  000dd	c3		 ret	 0
$LN9@SelupanLif:

; 435  : 		}
; 436  : 	}
; 437  : 	else if ( Percent > this->m_PatternCondition[2] )

  000de	3b 46 14	 cmp	 eax, DWORD PTR [esi+20]
  000e1	7e 13		 jle	 SHORT $LN12@SelupanLif

; 438  : 	{
; 439  : 		if ( this->GetBattleOfSelupanState() != SELUPAN_STATE_PATTERN_3 )

  000e3	83 7e 08 04	 cmp	 DWORD PTR [esi+8], 4
  000e7	74 64		 je	 SHORT $LN41@SelupanLif

; 440  : 		{
; 441  : 			this->SetState(SELUPAN_STATE_PATTERN_3);

  000e9	6a 04		 push	 4

; 468  : 		{
; 469  : 			this->SetState(SELUPAN_STATE_PATTERN_7);

  000eb	8b ce		 mov	 ecx, esi
  000ed	e8 00 00 00 00	 call	 ?SetState@CRaklionBattleOfSelupan@@QAEXH@Z ; CRaklionBattleOfSelupan::SetState
  000f2	5b		 pop	 ebx
  000f3	5f		 pop	 edi
  000f4	5e		 pop	 esi

; 470  : 		}
; 471  : 	}
; 472  : }

  000f5	c3		 ret	 0
$LN12@SelupanLif:

; 442  : 		}
; 443  : 	}
; 444  : 	else if ( Percent > this->m_PatternCondition[3] )

  000f6	3b 46 18	 cmp	 eax, DWORD PTR [esi+24]
  000f9	7e 13		 jle	 SHORT $LN15@SelupanLif

; 445  : 	{
; 446  : 		if ( this->GetBattleOfSelupanState() != SELUPAN_STATE_PATTERN_4 )

  000fb	83 7e 08 05	 cmp	 DWORD PTR [esi+8], 5
  000ff	74 4c		 je	 SHORT $LN41@SelupanLif

; 447  : 		{
; 448  : 			this->SetState(SELUPAN_STATE_PATTERN_4);

  00101	6a 05		 push	 5

; 468  : 		{
; 469  : 			this->SetState(SELUPAN_STATE_PATTERN_7);

  00103	8b ce		 mov	 ecx, esi
  00105	e8 00 00 00 00	 call	 ?SetState@CRaklionBattleOfSelupan@@QAEXH@Z ; CRaklionBattleOfSelupan::SetState
  0010a	5b		 pop	 ebx
  0010b	5f		 pop	 edi
  0010c	5e		 pop	 esi

; 470  : 		}
; 471  : 	}
; 472  : }

  0010d	c3		 ret	 0
$LN15@SelupanLif:

; 449  : 		}
; 450  : 	}
; 451  : 	else if ( Percent > this->m_PatternCondition[4] )

  0010e	3b 46 1c	 cmp	 eax, DWORD PTR [esi+28]
  00111	7e 13		 jle	 SHORT $LN18@SelupanLif

; 452  : 	{
; 453  : 		if ( this->GetBattleOfSelupanState() != SELUPAN_STATE_PATTERN_5 )

  00113	83 7e 08 06	 cmp	 DWORD PTR [esi+8], 6
  00117	74 34		 je	 SHORT $LN41@SelupanLif

; 454  : 		{
; 455  : 			this->SetState(SELUPAN_STATE_PATTERN_5);

  00119	6a 06		 push	 6

; 468  : 		{
; 469  : 			this->SetState(SELUPAN_STATE_PATTERN_7);

  0011b	8b ce		 mov	 ecx, esi
  0011d	e8 00 00 00 00	 call	 ?SetState@CRaklionBattleOfSelupan@@QAEXH@Z ; CRaklionBattleOfSelupan::SetState
  00122	5b		 pop	 ebx
  00123	5f		 pop	 edi
  00124	5e		 pop	 esi

; 470  : 		}
; 471  : 	}
; 472  : }

  00125	c3		 ret	 0
$LN18@SelupanLif:

; 456  : 		}
; 457  : 	}
; 458  : 	else if ( Percent > this->m_PatternCondition[5] )

  00126	3b 46 20	 cmp	 eax, DWORD PTR [esi+32]
  00129	7e 13		 jle	 SHORT $LN21@SelupanLif

; 459  : 	{
; 460  : 		if ( this->GetBattleOfSelupanState() != SELUPAN_STATE_PATTERN_6 )

  0012b	83 7e 08 07	 cmp	 DWORD PTR [esi+8], 7
  0012f	74 1c		 je	 SHORT $LN41@SelupanLif

; 461  : 		{
; 462  : 			this->SetState(SELUPAN_STATE_PATTERN_6);

  00131	6a 07		 push	 7

; 468  : 		{
; 469  : 			this->SetState(SELUPAN_STATE_PATTERN_7);

  00133	8b ce		 mov	 ecx, esi
  00135	e8 00 00 00 00	 call	 ?SetState@CRaklionBattleOfSelupan@@QAEXH@Z ; CRaklionBattleOfSelupan::SetState
  0013a	5b		 pop	 ebx
  0013b	5f		 pop	 edi
  0013c	5e		 pop	 esi

; 470  : 		}
; 471  : 	}
; 472  : }

  0013d	c3		 ret	 0
$LN21@SelupanLif:

; 463  : 		}
; 464  : 	}
; 465  : 	else if ( Percent <= this->m_PatternCondition[5] )
; 466  : 	{
; 467  : 		if ( this->GetBattleOfSelupanState() != SELUPAN_STATE_PATTERN_7 )

  0013e	83 7e 08 08	 cmp	 DWORD PTR [esi+8], 8
  00142	74 09		 je	 SHORT $LN41@SelupanLif

; 468  : 		{
; 469  : 			this->SetState(SELUPAN_STATE_PATTERN_7);

  00144	6a 08		 push	 8
  00146	8b ce		 mov	 ecx, esi
  00148	e8 00 00 00 00	 call	 ?SetState@CRaklionBattleOfSelupan@@QAEXH@Z ; CRaklionBattleOfSelupan::SetState
$LN41@SelupanLif:
  0014d	5b		 pop	 ebx
$LN25@SelupanLif:
  0014e	5f		 pop	 edi
  0014f	5e		 pop	 esi

; 470  : 		}
; 471  : 	}
; 472  : }

  00150	c3		 ret	 0
?SelupanLifeCheck@CRaklionBattleOfSelupan@@QAEXXZ ENDP	; CRaklionBattleOfSelupan::SelupanLifeCheck
_TEXT	ENDS
; Function compile flags: /Ogtp
; File c:\users\michel\desktop\source\gameserver\source\raklionbattleofselupan.cpp
;	COMDAT ?SetPatternCondition@CRaklionBattleOfSelupan@@QAEXHH@Z
_TEXT	SEGMENT
_iPattern$ = 8						; size = 4
_iCondition$ = 12					; size = 4
?SetPatternCondition@CRaklionBattleOfSelupan@@QAEXHH@Z PROC ; CRaklionBattleOfSelupan::SetPatternCondition, COMDAT
; _this$ = ecx

; 375  : {

  00000	55		 push	 ebp
  00001	8b ec		 mov	 ebp, esp
  00003	53		 push	 ebx
  00004	56		 push	 esi

; 376  : 	if ( iPattern < 0 || iCondition < 0 )

  00005	8b 75 0c	 mov	 esi, DWORD PTR _iCondition$[ebp]
  00008	8b d9		 mov	 ebx, ecx
  0000a	57		 push	 edi
  0000b	8b 7d 08	 mov	 edi, DWORD PTR _iPattern$[ebp]
  0000e	85 ff		 test	 edi, edi
  00010	78 04		 js	 SHORT $LN3@SetPattern
  00012	85 f6		 test	 esi, esi
  00014	79 12		 jns	 SHORT $LN6@SetPattern
$LN3@SetPattern:

; 377  : 	{
; 378  : 		LogAddC(2,"[RAKLION][SetPatternCondition] error : PatternNum(%d), Condition(%d)",iPattern,iCondition);

  00016	56		 push	 esi
  00017	57		 push	 edi
  00018	68 00 00 00 00	 push	 OFFSET ??_C@_0EF@LJPNAIFB@?$FLRAKLION?$FN?$FLSetPatternCondition?$FN?5e@
  0001d	6a 02		 push	 2
  0001f	ff 15 00 00 00
	00		 call	 DWORD PTR ?LogAddC@@3P6AXEPADZZA ; LogAddC
  00025	83 c4 10	 add	 esp, 16			; 00000010H
$LN6@SetPattern:

; 379  : 	}
; 380  : 
; 381  : 	this->m_PatternCondition[iPattern] = iCondition;

  00028	89 74 bb 0c	 mov	 DWORD PTR [ebx+edi*4+12], esi
  0002c	5f		 pop	 edi
  0002d	5e		 pop	 esi
  0002e	5b		 pop	 ebx

; 382  : }

  0002f	5d		 pop	 ebp
  00030	c2 08 00	 ret	 8
?SetPatternCondition@CRaklionBattleOfSelupan@@QAEXHH@Z ENDP ; CRaklionBattleOfSelupan::SetPatternCondition
_TEXT	ENDS
; Function compile flags: /Ogtp
; File c:\users\michel\desktop\source\gameserver\source\raklionbattleofselupan.cpp
;	COMDAT ?PatternStateSkillUseProc@CRaklionBattleOfSelupan@@QAEXH@Z
_TEXT	SEGMENT
_SkillIndex$ = 8					; size = 4
?PatternStateSkillUseProc@CRaklionBattleOfSelupan@@QAEXH@Z PROC ; CRaklionBattleOfSelupan::PatternStateSkillUseProc, COMDAT
; _this$ = ecx

; 342  : {

  00000	55		 push	 ebp
  00001	8b ec		 mov	 ebp, esp
  00003	56		 push	 esi
  00004	57		 push	 edi
  00005	8b f9		 mov	 edi, ecx

; 343  : 	int iSelupanIndex = this->m_RaklionSelupan.GetSelupanObjIndex();

  00007	8d 4f 34	 lea	 ecx, DWORD PTR [edi+52]
  0000a	e8 00 00 00 00	 call	 ?GetSelupanObjIndex@CRaklionSelupan@@QAEHXZ ; CRaklionSelupan::GetSelupanObjIndex

; 344  : 
; 345  : 	LPOBJ lpObj = &gObj[iSelupanIndex];

  0000f	69 c0 40 27 00
	00		 imul	 eax, eax, 10048
  00015	03 05 00 00 00
	00		 add	 eax, DWORD PTR ?gObj@@3PAUOBJECTSTRUCT@@A ; gObj

; 346  : 
; 347  : 	if ( lpObj->Teleport != 0 || lpObj->m_ActState.Move != FALSE )

  0001b	80 b8 88 05 00
	00 00		 cmp	 BYTE PTR [eax+1416], 0
  00022	0f 85 84 00 00
	00		 jne	 $LN7@PatternSta
  00028	f6 80 c8 01 00
	00 04		 test	 BYTE PTR [eax+456], 4
  0002f	75 7b		 jne	 SHORT $LN7@PatternSta

; 348  : 	{
; 349  : 		return;
; 350  : 	}
; 351  : 
; 352  : 	if ( SkillIndex < 0 || SkillIndex >= 9)

  00031	8b 45 08	 mov	 eax, DWORD PTR _SkillIndex$[ebp]
  00034	83 f8 08	 cmp	 eax, 8
  00037	77 73		 ja	 SHORT $LN7@PatternSta

; 353  : 	{
; 354  : 		return;
; 355  : 	}
; 356  : 
; 357  : 	switch ( SkillIndex )

  00039	ff 24 85 00 00
	00 00		 jmp	 DWORD PTR $LN19@PatternSta[eax*4]
$LN8@PatternSta:

; 358  : 	{
; 359  : 	case SKILL_FIRSTSKILL:		this->m_RaklionSelupan.SelupanAct_FirstSkill();		break;

  00040	8d 4f 34	 lea	 ecx, DWORD PTR [edi+52]
  00043	e8 00 00 00 00	 call	 ?SelupanAct_FirstSkill@CRaklionSelupan@@QAEXXZ ; CRaklionSelupan::SelupanAct_FirstSkill
  00048	eb 4e		 jmp	 SHORT $LN2@PatternSta
$LN9@PatternSta:

; 360  : 	case SKILL_POISON_ATTACK:	this->m_RaklionSelupan.SelupanAct_PoisonAttack();	break;

  0004a	8d 4f 34	 lea	 ecx, DWORD PTR [edi+52]
  0004d	e8 00 00 00 00	 call	 ?SelupanAct_PoisonAttack@CRaklionSelupan@@QAEXXZ ; CRaklionSelupan::SelupanAct_PoisonAttack
  00052	eb 44		 jmp	 SHORT $LN2@PatternSta
$LN10@PatternSta:

; 361  : 	case SKILL_ICESTORM:		this->m_RaklionSelupan.SelupanAct_IceStorm();		break;

  00054	8d 4f 34	 lea	 ecx, DWORD PTR [edi+52]
  00057	e8 00 00 00 00	 call	 ?SelupanAct_IceStorm@CRaklionSelupan@@QAEXXZ ; CRaklionSelupan::SelupanAct_IceStorm
  0005c	eb 3a		 jmp	 SHORT $LN2@PatternSta
$LN11@PatternSta:

; 362  : 	case SKILL_ICESTRIKE:		this->m_RaklionSelupan.SelupanAct_IceStrike();		break;

  0005e	8d 4f 34	 lea	 ecx, DWORD PTR [edi+52]
  00061	e8 00 00 00 00	 call	 ?SelupanAct_IceStrike@CRaklionSelupan@@QAEXXZ ; CRaklionSelupan::SelupanAct_IceStrike
  00066	eb 30		 jmp	 SHORT $LN2@PatternSta
$LN12@PatternSta:

; 363  : 	case SKILL_SUMMON:			this->m_RaklionSelupan.SelupanAct_SummonMonster();	break;

  00068	8d 4f 34	 lea	 ecx, DWORD PTR [edi+52]
  0006b	e8 00 00 00 00	 call	 ?SelupanAct_SummonMonster@CRaklionSelupan@@QAEXXZ ; CRaklionSelupan::SelupanAct_SummonMonster
  00070	eb 26		 jmp	 SHORT $LN2@PatternSta
$LN13@PatternSta:

; 364  : 	case SKILL_HEAL:			this->m_RaklionSelupan.SelupanAct_Heal();			break;

  00072	8d 4f 34	 lea	 ecx, DWORD PTR [edi+52]
  00075	e8 00 00 00 00	 call	 ?SelupanAct_Heal@CRaklionSelupan@@QAEXXZ ; CRaklionSelupan::SelupanAct_Heal
  0007a	eb 1c		 jmp	 SHORT $LN2@PatternSta
$LN14@PatternSta:

; 365  : 	case SKILL_FREEZE:			this->m_RaklionSelupan.SelupanAct_Freeze();			break;

  0007c	8d 4f 34	 lea	 ecx, DWORD PTR [edi+52]
  0007f	e8 00 00 00 00	 call	 ?SelupanAct_Freeze@CRaklionSelupan@@QAEXXZ ; CRaklionSelupan::SelupanAct_Freeze
  00084	eb 12		 jmp	 SHORT $LN2@PatternSta
$LN15@PatternSta:

; 366  : 	case SKILL_TELEPORT:		this->m_RaklionSelupan.SelupanAct_Teleport();		break;

  00086	8d 4f 34	 lea	 ecx, DWORD PTR [edi+52]
  00089	e8 00 00 00 00	 call	 ?SelupanAct_Teleport@CRaklionSelupan@@QAEXXZ ; CRaklionSelupan::SelupanAct_Teleport
  0008e	eb 08		 jmp	 SHORT $LN2@PatternSta
$LN16@PatternSta:

; 367  : 	case SKILL_INVINCIBILITY:	this->m_RaklionSelupan.SelupanAct_Invincibility();	break;

  00090	8d 4f 34	 lea	 ecx, DWORD PTR [edi+52]
  00093	e8 00 00 00 00	 call	 ?SelupanAct_Invincibility@CRaklionSelupan@@QAEXXZ ; CRaklionSelupan::SelupanAct_Invincibility
$LN2@PatternSta:

; 368  : 	}
; 369  : 	
; 370  : 	this->m_dwSkillDelayTick	= GetTickCount();

  00098	ff 15 00 00 00
	00		 call	 DWORD PTR __imp__GetTickCount@0

; 371  : 	this->m_dwSkillDelay		= this->m_RaklionSelupan.GetSelupanSkillDelay();

  0009e	8d 4f 34	 lea	 ecx, DWORD PTR [edi+52]
  000a1	89 47 28	 mov	 DWORD PTR [edi+40], eax
  000a4	e8 00 00 00 00	 call	 ?GetSelupanSkillDelay@CRaklionSelupan@@QAEHXZ ; CRaklionSelupan::GetSelupanSkillDelay
  000a9	89 47 24	 mov	 DWORD PTR [edi+36], eax
$LN7@PatternSta:
  000ac	5f		 pop	 edi
  000ad	5e		 pop	 esi

; 372  : }

  000ae	5d		 pop	 ebp
  000af	c2 04 00	 ret	 4
  000b2	66 90		 npad	 2
$LN19@PatternSta:
  000b4	00 00 00 00	 DD	 $LN8@PatternSta
  000b8	00 00 00 00	 DD	 $LN9@PatternSta
  000bc	00 00 00 00	 DD	 $LN10@PatternSta
  000c0	00 00 00 00	 DD	 $LN11@PatternSta
  000c4	00 00 00 00	 DD	 $LN12@PatternSta
  000c8	00 00 00 00	 DD	 $LN13@PatternSta
  000cc	00 00 00 00	 DD	 $LN14@PatternSta
  000d0	00 00 00 00	 DD	 $LN15@PatternSta
  000d4	00 00 00 00	 DD	 $LN16@PatternSta
?PatternStateSkillUseProc@CRaklionBattleOfSelupan@@QAEXH@Z ENDP ; CRaklionBattleOfSelupan::PatternStateSkillUseProc
_TEXT	ENDS
; Function compile flags: /Ogtp
; File c:\users\michel\desktop\source\gameserver\source\raklionbattleofselupan.cpp
;	COMDAT ?ProcState_DIE@CRaklionBattleOfSelupan@@QAEXXZ
_TEXT	SEGMENT
?ProcState_DIE@CRaklionBattleOfSelupan@@QAEXXZ PROC	; CRaklionBattleOfSelupan::ProcState_DIE, COMDAT
; _this$ = ecx

; 338  : 
; 339  : }

  00000	c3		 ret	 0
?ProcState_DIE@CRaklionBattleOfSelupan@@QAEXXZ ENDP	; CRaklionBattleOfSelupan::ProcState_DIE
_TEXT	ENDS
; Function compile flags: /Ogtp
; File c:\users\michel\desktop\source\gameserver\source\raklionbattleofselupan.cpp
;	COMDAT ?ProcState_PATTERN_7@CRaklionBattleOfSelupan@@QAEXXZ
_TEXT	SEGMENT
?ProcState_PATTERN_7@CRaklionBattleOfSelupan@@QAEXXZ PROC ; CRaklionBattleOfSelupan::ProcState_PATTERN_7, COMDAT
; _this$ = ecx

; 325  : {

  00000	56		 push	 esi
  00001	8b f1		 mov	 esi, ecx

; 326  : 	int skill = 0;

  00003	33 d2		 xor	 edx, edx

; 327  : 
; 328  : 	while(this->m_PatternSkill[STATE_PATTERN_7].bIsSkillEnabled[skill] == 0)

  00005	39 96 ac 0d 00
	00		 cmp	 DWORD PTR [esi+3500], edx
  0000b	75 17		 jne	 SHORT $LN3@ProcState_
  0000d	57		 push	 edi
  0000e	8d 7a 09	 lea	 edi, DWORD PTR [edx+9]
$LL2@ProcState_:

; 329  : 	{
; 330  : 		skill = rand() % 9;

  00011	e8 00 00 00 00	 call	 _rand
  00016	99		 cdq
  00017	f7 ff		 idiv	 edi
  00019	83 bc 96 ac 0d
	00 00 00	 cmp	 DWORD PTR [esi+edx*4+3500], 0
  00021	74 ee		 je	 SHORT $LL2@ProcState_
  00023	5f		 pop	 edi
$LN3@ProcState_:

; 331  : 	}
; 332  : 	
; 333  : 	this->PatternStateSkillUseProc(skill);

  00024	52		 push	 edx
  00025	8b ce		 mov	 ecx, esi
  00027	e8 00 00 00 00	 call	 ?PatternStateSkillUseProc@CRaklionBattleOfSelupan@@QAEXH@Z ; CRaklionBattleOfSelupan::PatternStateSkillUseProc
  0002c	5e		 pop	 esi

; 334  : }

  0002d	c3		 ret	 0
?ProcState_PATTERN_7@CRaklionBattleOfSelupan@@QAEXXZ ENDP ; CRaklionBattleOfSelupan::ProcState_PATTERN_7
_TEXT	ENDS
; Function compile flags: /Ogtp
; File c:\users\michel\desktop\source\gameserver\source\raklionbattleofselupan.cpp
;	COMDAT ?ProcState_PATTERN_6@CRaklionBattleOfSelupan@@QAEXXZ
_TEXT	SEGMENT
?ProcState_PATTERN_6@CRaklionBattleOfSelupan@@QAEXXZ PROC ; CRaklionBattleOfSelupan::ProcState_PATTERN_6, COMDAT
; _this$ = ecx

; 313  : {

  00000	56		 push	 esi
  00001	8b f1		 mov	 esi, ecx

; 314  : 	int skill = 0;

  00003	33 d2		 xor	 edx, edx

; 315  : 
; 316  : 	while(this->m_PatternSkill[STATE_PATTERN_6].bIsSkillEnabled[skill] == 0)

  00005	39 96 88 0d 00
	00		 cmp	 DWORD PTR [esi+3464], edx
  0000b	75 17		 jne	 SHORT $LN3@ProcState_
  0000d	57		 push	 edi
  0000e	8d 7a 09	 lea	 edi, DWORD PTR [edx+9]
$LL2@ProcState_:

; 317  : 	{
; 318  : 		skill = rand() % 9;

  00011	e8 00 00 00 00	 call	 _rand
  00016	99		 cdq
  00017	f7 ff		 idiv	 edi
  00019	83 bc 96 88 0d
	00 00 00	 cmp	 DWORD PTR [esi+edx*4+3464], 0
  00021	74 ee		 je	 SHORT $LL2@ProcState_
  00023	5f		 pop	 edi
$LN3@ProcState_:

; 319  : 	}
; 320  : 	
; 321  : 	this->PatternStateSkillUseProc(skill);

  00024	52		 push	 edx
  00025	8b ce		 mov	 ecx, esi
  00027	e8 00 00 00 00	 call	 ?PatternStateSkillUseProc@CRaklionBattleOfSelupan@@QAEXH@Z ; CRaklionBattleOfSelupan::PatternStateSkillUseProc
  0002c	5e		 pop	 esi

; 322  : }

  0002d	c3		 ret	 0
?ProcState_PATTERN_6@CRaklionBattleOfSelupan@@QAEXXZ ENDP ; CRaklionBattleOfSelupan::ProcState_PATTERN_6
_TEXT	ENDS
; Function compile flags: /Ogtp
; File c:\users\michel\desktop\source\gameserver\source\raklionbattleofselupan.cpp
;	COMDAT ?ProcState_PATTERN_5@CRaklionBattleOfSelupan@@QAEXXZ
_TEXT	SEGMENT
?ProcState_PATTERN_5@CRaklionBattleOfSelupan@@QAEXXZ PROC ; CRaklionBattleOfSelupan::ProcState_PATTERN_5, COMDAT
; _this$ = ecx

; 301  : {

  00000	56		 push	 esi
  00001	8b f1		 mov	 esi, ecx

; 302  : 	int skill = 0;

  00003	33 d2		 xor	 edx, edx

; 303  : 
; 304  : 	while(this->m_PatternSkill[STATE_PATTERN_5].bIsSkillEnabled[skill] == 0)

  00005	39 96 64 0d 00
	00		 cmp	 DWORD PTR [esi+3428], edx
  0000b	75 17		 jne	 SHORT $LN3@ProcState_
  0000d	57		 push	 edi
  0000e	8d 7a 09	 lea	 edi, DWORD PTR [edx+9]
$LL2@ProcState_:

; 305  : 	{
; 306  : 		skill = rand() % 9;

  00011	e8 00 00 00 00	 call	 _rand
  00016	99		 cdq
  00017	f7 ff		 idiv	 edi
  00019	83 bc 96 64 0d
	00 00 00	 cmp	 DWORD PTR [esi+edx*4+3428], 0
  00021	74 ee		 je	 SHORT $LL2@ProcState_
  00023	5f		 pop	 edi
$LN3@ProcState_:

; 307  : 	}
; 308  : 	
; 309  : 	this->PatternStateSkillUseProc(skill);

  00024	52		 push	 edx
  00025	8b ce		 mov	 ecx, esi
  00027	e8 00 00 00 00	 call	 ?PatternStateSkillUseProc@CRaklionBattleOfSelupan@@QAEXH@Z ; CRaklionBattleOfSelupan::PatternStateSkillUseProc
  0002c	5e		 pop	 esi

; 310  : }

  0002d	c3		 ret	 0
?ProcState_PATTERN_5@CRaklionBattleOfSelupan@@QAEXXZ ENDP ; CRaklionBattleOfSelupan::ProcState_PATTERN_5
_TEXT	ENDS
; Function compile flags: /Ogtp
; File c:\users\michel\desktop\source\gameserver\source\raklionbattleofselupan.cpp
;	COMDAT ?ProcState_PATTERN_4@CRaklionBattleOfSelupan@@QAEXXZ
_TEXT	SEGMENT
?ProcState_PATTERN_4@CRaklionBattleOfSelupan@@QAEXXZ PROC ; CRaklionBattleOfSelupan::ProcState_PATTERN_4, COMDAT
; _this$ = ecx

; 289  : {

  00000	56		 push	 esi
  00001	8b f1		 mov	 esi, ecx

; 290  : 	int skill = 0;

  00003	33 d2		 xor	 edx, edx

; 291  : 
; 292  : 	while(this->m_PatternSkill[STATE_PATTERN_4].bIsSkillEnabled[skill] == 0)

  00005	39 96 40 0d 00
	00		 cmp	 DWORD PTR [esi+3392], edx
  0000b	75 17		 jne	 SHORT $LN3@ProcState_
  0000d	57		 push	 edi
  0000e	8d 7a 09	 lea	 edi, DWORD PTR [edx+9]
$LL2@ProcState_:

; 293  : 	{
; 294  : 		skill = rand() % 9;

  00011	e8 00 00 00 00	 call	 _rand
  00016	99		 cdq
  00017	f7 ff		 idiv	 edi
  00019	83 bc 96 40 0d
	00 00 00	 cmp	 DWORD PTR [esi+edx*4+3392], 0
  00021	74 ee		 je	 SHORT $LL2@ProcState_
  00023	5f		 pop	 edi
$LN3@ProcState_:

; 295  : 	}
; 296  : 	
; 297  : 	this->PatternStateSkillUseProc(skill);

  00024	52		 push	 edx
  00025	8b ce		 mov	 ecx, esi
  00027	e8 00 00 00 00	 call	 ?PatternStateSkillUseProc@CRaklionBattleOfSelupan@@QAEXH@Z ; CRaklionBattleOfSelupan::PatternStateSkillUseProc
  0002c	5e		 pop	 esi

; 298  : }

  0002d	c3		 ret	 0
?ProcState_PATTERN_4@CRaklionBattleOfSelupan@@QAEXXZ ENDP ; CRaklionBattleOfSelupan::ProcState_PATTERN_4
_TEXT	ENDS
; Function compile flags: /Ogtp
; File c:\users\michel\desktop\source\gameserver\source\raklionbattleofselupan.cpp
;	COMDAT ?ProcState_PATTERN_3@CRaklionBattleOfSelupan@@QAEXXZ
_TEXT	SEGMENT
?ProcState_PATTERN_3@CRaklionBattleOfSelupan@@QAEXXZ PROC ; CRaklionBattleOfSelupan::ProcState_PATTERN_3, COMDAT
; _this$ = ecx

; 277  : {

  00000	56		 push	 esi
  00001	8b f1		 mov	 esi, ecx

; 278  : 	int skill = 0;

  00003	33 d2		 xor	 edx, edx

; 279  : 
; 280  : 	while(this->m_PatternSkill[STATE_PATTERN_3].bIsSkillEnabled[skill] == 0)

  00005	39 96 1c 0d 00
	00		 cmp	 DWORD PTR [esi+3356], edx
  0000b	75 17		 jne	 SHORT $LN3@ProcState_
  0000d	57		 push	 edi
  0000e	8d 7a 09	 lea	 edi, DWORD PTR [edx+9]
$LL2@ProcState_:

; 281  : 	{
; 282  : 		skill = rand() % 9;

  00011	e8 00 00 00 00	 call	 _rand
  00016	99		 cdq
  00017	f7 ff		 idiv	 edi
  00019	83 bc 96 1c 0d
	00 00 00	 cmp	 DWORD PTR [esi+edx*4+3356], 0
  00021	74 ee		 je	 SHORT $LL2@ProcState_
  00023	5f		 pop	 edi
$LN3@ProcState_:

; 283  : 	}
; 284  : 	
; 285  : 	this->PatternStateSkillUseProc(skill);

  00024	52		 push	 edx
  00025	8b ce		 mov	 ecx, esi
  00027	e8 00 00 00 00	 call	 ?PatternStateSkillUseProc@CRaklionBattleOfSelupan@@QAEXH@Z ; CRaklionBattleOfSelupan::PatternStateSkillUseProc
  0002c	5e		 pop	 esi

; 286  : }

  0002d	c3		 ret	 0
?ProcState_PATTERN_3@CRaklionBattleOfSelupan@@QAEXXZ ENDP ; CRaklionBattleOfSelupan::ProcState_PATTERN_3
_TEXT	ENDS
; Function compile flags: /Ogtp
; File c:\users\michel\desktop\source\gameserver\source\raklionbattleofselupan.cpp
;	COMDAT ?ProcState_PATTERN_2@CRaklionBattleOfSelupan@@QAEXXZ
_TEXT	SEGMENT
?ProcState_PATTERN_2@CRaklionBattleOfSelupan@@QAEXXZ PROC ; CRaklionBattleOfSelupan::ProcState_PATTERN_2, COMDAT
; _this$ = ecx

; 265  : {

  00000	56		 push	 esi
  00001	8b f1		 mov	 esi, ecx

; 266  : 	int skill = 0;

  00003	33 d2		 xor	 edx, edx

; 267  : 
; 268  : 	while(this->m_PatternSkill[STATE_PATTERN_2].bIsSkillEnabled[skill] == 0)

  00005	39 96 f8 0c 00
	00		 cmp	 DWORD PTR [esi+3320], edx
  0000b	75 17		 jne	 SHORT $LN3@ProcState_
  0000d	57		 push	 edi
  0000e	8d 7a 09	 lea	 edi, DWORD PTR [edx+9]
$LL2@ProcState_:

; 269  : 	{
; 270  : 		skill = rand() % 9;

  00011	e8 00 00 00 00	 call	 _rand
  00016	99		 cdq
  00017	f7 ff		 idiv	 edi
  00019	83 bc 96 f8 0c
	00 00 00	 cmp	 DWORD PTR [esi+edx*4+3320], 0
  00021	74 ee		 je	 SHORT $LL2@ProcState_
  00023	5f		 pop	 edi
$LN3@ProcState_:

; 271  : 	}
; 272  : 	
; 273  : 	this->PatternStateSkillUseProc(skill);

  00024	52		 push	 edx
  00025	8b ce		 mov	 ecx, esi
  00027	e8 00 00 00 00	 call	 ?PatternStateSkillUseProc@CRaklionBattleOfSelupan@@QAEXH@Z ; CRaklionBattleOfSelupan::PatternStateSkillUseProc
  0002c	5e		 pop	 esi

; 274  : }

  0002d	c3		 ret	 0
?ProcState_PATTERN_2@CRaklionBattleOfSelupan@@QAEXXZ ENDP ; CRaklionBattleOfSelupan::ProcState_PATTERN_2
_TEXT	ENDS
; Function compile flags: /Ogtp
; File c:\users\michel\desktop\source\gameserver\source\raklionbattleofselupan.cpp
;	COMDAT ?ProcState_PATTERN_1@CRaklionBattleOfSelupan@@QAEXXZ
_TEXT	SEGMENT
?ProcState_PATTERN_1@CRaklionBattleOfSelupan@@QAEXXZ PROC ; CRaklionBattleOfSelupan::ProcState_PATTERN_1, COMDAT
; _this$ = ecx

; 253  : {

  00000	56		 push	 esi
  00001	8b f1		 mov	 esi, ecx

; 254  : 	int skill = 0;

  00003	33 d2		 xor	 edx, edx

; 255  : 
; 256  : 	while(this->m_PatternSkill[STATE_PATTERN_1].bIsSkillEnabled[skill] == 0)

  00005	39 96 d4 0c 00
	00		 cmp	 DWORD PTR [esi+3284], edx
  0000b	75 17		 jne	 SHORT $LN3@ProcState_
  0000d	57		 push	 edi
  0000e	8d 7a 09	 lea	 edi, DWORD PTR [edx+9]
$LL2@ProcState_:

; 257  : 	{
; 258  : 		skill = rand() % 9;

  00011	e8 00 00 00 00	 call	 _rand
  00016	99		 cdq
  00017	f7 ff		 idiv	 edi
  00019	83 bc 96 d4 0c
	00 00 00	 cmp	 DWORD PTR [esi+edx*4+3284], 0
  00021	74 ee		 je	 SHORT $LL2@ProcState_
  00023	5f		 pop	 edi
$LN3@ProcState_:

; 259  : 	}
; 260  : 	
; 261  : 	this->PatternStateSkillUseProc(skill);

  00024	52		 push	 edx
  00025	8b ce		 mov	 ecx, esi
  00027	e8 00 00 00 00	 call	 ?PatternStateSkillUseProc@CRaklionBattleOfSelupan@@QAEXH@Z ; CRaklionBattleOfSelupan::PatternStateSkillUseProc
  0002c	5e		 pop	 esi

; 262  : }

  0002d	c3		 ret	 0
?ProcState_PATTERN_1@CRaklionBattleOfSelupan@@QAEXXZ ENDP ; CRaklionBattleOfSelupan::ProcState_PATTERN_1
_TEXT	ENDS
; Function compile flags: /Ogtp
; File c:\users\michel\desktop\source\gameserver\source\raklionbattleofselupan.cpp
;	COMDAT ?ProcState_STANDBY@CRaklionBattleOfSelupan@@QAEXXZ
_TEXT	SEGMENT
?ProcState_STANDBY@CRaklionBattleOfSelupan@@QAEXXZ PROC	; CRaklionBattleOfSelupan::ProcState_STANDBY, COMDAT
; _this$ = ecx

; 249  : 
; 250  : }

  00000	c3		 ret	 0
?ProcState_STANDBY@CRaklionBattleOfSelupan@@QAEXXZ ENDP	; CRaklionBattleOfSelupan::ProcState_STANDBY
_TEXT	ENDS
; Function compile flags: /Ogtp
; File c:\users\michel\desktop\source\gameserver\source\raklionbattleofselupan.cpp
;	COMDAT ?ProcState_NONE@CRaklionBattleOfSelupan@@QAEXXZ
_TEXT	SEGMENT
?ProcState_NONE@CRaklionBattleOfSelupan@@QAEXXZ PROC	; CRaklionBattleOfSelupan::ProcState_NONE, COMDAT
; _this$ = ecx

; 244  : 
; 245  : }

  00000	c3		 ret	 0
?ProcState_NONE@CRaklionBattleOfSelupan@@QAEXXZ ENDP	; CRaklionBattleOfSelupan::ProcState_NONE
_TEXT	ENDS
; Function compile flags: /Ogtp
; File c:\users\michel\desktop\source\gameserver\source\raklionbattleofselupan.cpp
; File c:\program files (x86)\windows kits\10\include\10.0.10240.0\ucrt\time.h
; File c:\users\michel\desktop\source\gameserver\source\raklionbattleofselupan.cpp
; File c:\users\michel\desktop\source\gameserver\source\raklionbattleofselupan.h
; File c:\users\michel\desktop\source\gameserver\source\raklionbattleofselupan.cpp
;	COMDAT ?SetState_DIE@CRaklionBattleOfSelupan@@QAEXXZ
_TEXT	SEGMENT
_ltime$ = -12						; size = 8
_this$1$ = -4						; size = 4
?SetState_DIE@CRaklionBattleOfSelupan@@QAEXXZ PROC	; CRaklionBattleOfSelupan::SetState_DIE, COMDAT
; _this$ = ecx

; 215  : {

  00000	55		 push	 ebp
  00001	8b ec		 mov	 ebp, esp
  00003	83 ec 0c	 sub	 esp, 12			; 0000000cH
  00006	53		 push	 ebx
  00007	56		 push	 esi
  00008	8b d9		 mov	 ebx, ecx
  0000a	57		 push	 edi
  0000b	89 5d fc	 mov	 DWORD PTR _this$1$[ebp], ebx

; 216  : 	LogAddC(5, "[ RAKLION ][ BattleOfSelupan ] State(%d) -> DIE", this->m_iBattleOfSelupanState);

  0000e	ff 73 08	 push	 DWORD PTR [ebx+8]
  00011	68 00 00 00 00	 push	 OFFSET ??_C@_0DA@HPEHDIEE@?$FL?5RAKLION?5?$FN?$FL?5BattleOfSelupan?5?$FN?5S@
  00016	6a 05		 push	 5
  00018	ff 15 00 00 00
	00		 call	 DWORD PTR ?LogAddC@@3P6AXEPADZZA ; LogAddC
  0001e	83 c4 0c	 add	 esp, 12			; 0000000cH

; 217  : 	
; 218  : 	this->m_RaklionSelupan.SelupanAct_BerserkCansel();

  00021	8d 4b 34	 lea	 ecx, DWORD PTR [ebx+52]
  00024	e8 00 00 00 00	 call	 ?SelupanAct_BerserkCansel@CRaklionSelupan@@QAEXXZ ; CRaklionSelupan::SelupanAct_BerserkCansel

; 219  : 	
; 220  : 	this->DeleteSummonMonster();

  00029	8b cb		 mov	 ecx, ebx
  0002b	e8 00 00 00 00	 call	 ?DeleteSummonMonster@CRaklionBattleOfSelupan@@QAEXXZ ; CRaklionBattleOfSelupan::DeleteSummonMonster

; 221  : 	
; 222  : 	int aIndex = this->m_RaklionSelupan.GetSelupanTargetIndex();

  00030	8d 4b 34	 lea	 ecx, DWORD PTR [ebx+52]
  00033	e8 00 00 00 00	 call	 ?GetSelupanTargetIndex@CRaklionSelupan@@QAEHXZ ; CRaklionSelupan::GetSelupanTargetIndex

; 223  : 
; 224  : 	LPOBJ lpObj = &gObj[aIndex];

  00038	69 c0 40 27 00
	00		 imul	 eax, eax, 10048

; 225  : 
; 226  : 	g_RaklionUtil.SendMsgAllUser(lMsg.Get(3412),lpObj->Name);

  0003e	b9 00 00 00 00	 mov	 ecx, OFFSET ?lMsg@@3VMessage@@A ; lMsg
  00043	83 c0 5d	 add	 eax, 93			; 0000005dH
  00046	03 05 00 00 00
	00		 add	 eax, DWORD PTR ?gObj@@3PAUOBJECTSTRUCT@@A ; gObj
  0004c	50		 push	 eax
  0004d	68 54 0d 00 00	 push	 3412			; 00000d54H
  00052	e8 00 00 00 00	 call	 ?Get@Message@@QAEPADH@Z	; Message::Get
  00057	50		 push	 eax
  00058	68 00 00 00 00	 push	 OFFSET ?g_RaklionUtil@@3VCRaklionUtil@@A ; g_RaklionUtil
  0005d	e8 00 00 00 00	 call	 ?SendMsgAllUser@CRaklionUtil@@QAAXPADZZ ; CRaklionUtil::SendMsgAllUser
; File c:\program files (x86)\windows kits\10\include\10.0.10240.0\ucrt\time.h

; 535  :             return _time64(_Time);

  00062	8d 45 f4	 lea	 eax, DWORD PTR _ltime$[ebp]
  00065	50		 push	 eax
  00066	e8 00 00 00 00	 call	 __time64

; 511  :             return _localtime64(_Time);

  0006b	8d 45 f4	 lea	 eax, DWORD PTR _ltime$[ebp]
  0006e	50		 push	 eax
  0006f	e8 00 00 00 00	 call	 __localtime64
  00074	83 c4 14	 add	 esp, 20			; 00000014H
; File c:\users\michel\desktop\source\gameserver\source\raklionbattleofselupan.cpp

; 232  : 	for ( int i = 0; i < g_RaklionBattleUserMng.GetBattleUserCount(); ++i )

  00077	b9 00 00 00 00	 mov	 ecx, OFFSET ?g_RaklionBattleUserMng@@3VCRaklionBattleUserMng@@A ; g_RaklionBattleUserMng
  0007c	8b f8		 mov	 edi, eax
  0007e	e8 00 00 00 00	 call	 ?GetBattleUserCount@CRaklionBattleUserMng@@QAEHXZ ; CRaklionBattleUserMng::GetBattleUserCount
  00083	85 c0		 test	 eax, eax
  00085	7e 7f		 jle	 SHORT $LN16@SetState_D
  00087	33 db		 xor	 ebx, ebx
  00089	0f 1f 80 00 00
	00 00		 npad	 7
$LL4@SetState_D:

; 233  : 	{
; 234  : 		LogAdd("[Raklion][SelupanDie] %d/%d/%d %d:%d:%d %dth Winner : %s (%s)",

  00090	53		 push	 ebx
  00091	b9 00 00 00 00	 mov	 ecx, OFFSET ?g_RaklionBattleUserMng@@3VCRaklionBattleUserMng@@A ; g_RaklionBattleUserMng
  00096	8d 73 01	 lea	 esi, DWORD PTR [ebx+1]
  00099	e8 00 00 00 00	 call	 ?GetBattleUserIndex@CRaklionBattleUserMng@@QAEHH@Z ; CRaklionBattleUserMng::GetBattleUserIndex
  0009e	69 c8 40 27 00
	00		 imul	 ecx, eax, 10048
  000a4	a1 00 00 00 00	 mov	 eax, DWORD PTR ?gObj@@3PAUOBJECTSTRUCT@@A ; gObj
  000a9	83 c0 52	 add	 eax, 82			; 00000052H
  000ac	03 c1		 add	 eax, ecx
  000ae	b9 00 00 00 00	 mov	 ecx, OFFSET ?g_RaklionBattleUserMng@@3VCRaklionBattleUserMng@@A ; g_RaklionBattleUserMng
  000b3	50		 push	 eax
  000b4	53		 push	 ebx
  000b5	e8 00 00 00 00	 call	 ?GetBattleUserIndex@CRaklionBattleUserMng@@QAEHH@Z ; CRaklionBattleUserMng::GetBattleUserIndex
  000ba	69 c8 40 27 00
	00		 imul	 ecx, eax, 10048
  000c0	a1 00 00 00 00	 mov	 eax, DWORD PTR ?gObj@@3PAUOBJECTSTRUCT@@A ; gObj
  000c5	83 c0 5d	 add	 eax, 93			; 0000005dH
  000c8	03 c1		 add	 eax, ecx
  000ca	50		 push	 eax
  000cb	8b 47 10	 mov	 eax, DWORD PTR [edi+16]
  000ce	56		 push	 esi
  000cf	ff 37		 push	 DWORD PTR [edi]
  000d1	40		 inc	 eax
  000d2	ff 77 04	 push	 DWORD PTR [edi+4]
  000d5	ff 77 08	 push	 DWORD PTR [edi+8]
  000d8	ff 77 0c	 push	 DWORD PTR [edi+12]
  000db	50		 push	 eax
  000dc	8b 47 14	 mov	 eax, DWORD PTR [edi+20]
  000df	05 6c 07 00 00	 add	 eax, 1900		; 0000076cH
  000e4	50		 push	 eax
  000e5	68 00 00 00 00	 push	 OFFSET ??_C@_0DO@FBHKOMND@?$FLRaklion?$FN?$FLSelupanDie?$FN?5?$CFd?1?$CFd?1?$CFd?5?$CF@
  000ea	ff 15 00 00 00
	00		 call	 DWORD PTR ?LogAdd@@3P6AXPADZZA ; LogAdd
  000f0	83 c4 28	 add	 esp, 40			; 00000028H
  000f3	b9 00 00 00 00	 mov	 ecx, OFFSET ?g_RaklionBattleUserMng@@3VCRaklionBattleUserMng@@A ; g_RaklionBattleUserMng
  000f8	8b de		 mov	 ebx, esi
  000fa	e8 00 00 00 00	 call	 ?GetBattleUserCount@CRaklionBattleUserMng@@QAEHXZ ; CRaklionBattleUserMng::GetBattleUserCount
  000ff	3b d8		 cmp	 ebx, eax
  00101	7c 8d		 jl	 SHORT $LL4@SetState_D
; File c:\users\michel\desktop\source\gameserver\source\raklionbattleofselupan.h

; 95   : 	void SetBattleOfSelupanState	(int m_iBattleOfSelupanState)	{			this->m_iBattleOfSelupanState	= m_iBattleOfSelupanState;	}

  00103	8b 5d fc	 mov	 ebx, DWORD PTR _this$1$[ebp]
$LN16@SetState_D:
  00106	5f		 pop	 edi
  00107	5e		 pop	 esi
  00108	c7 43 08 09 00
	00 00		 mov	 DWORD PTR [ebx+8], 9
  0010f	5b		 pop	 ebx
; File c:\users\michel\desktop\source\gameserver\source\raklionbattleofselupan.cpp

; 240  : }

  00110	8b e5		 mov	 esp, ebp
  00112	5d		 pop	 ebp
  00113	c3		 ret	 0
?SetState_DIE@CRaklionBattleOfSelupan@@QAEXXZ ENDP	; CRaklionBattleOfSelupan::SetState_DIE
_TEXT	ENDS
; Function compile flags: /Ogtp
; File c:\users\michel\desktop\source\gameserver\source\raklionbattleofselupan.cpp
; File c:\users\michel\desktop\source\gameserver\source\raklionbattleofselupan.h
; File c:\users\michel\desktop\source\gameserver\source\raklionbattleofselupan.cpp
;	COMDAT ?SetState_PATTERN_7@CRaklionBattleOfSelupan@@QAEXXZ
_TEXT	SEGMENT
?SetState_PATTERN_7@CRaklionBattleOfSelupan@@QAEXXZ PROC ; CRaklionBattleOfSelupan::SetState_PATTERN_7, COMDAT
; _this$ = ecx

; 203  : {

  00000	56		 push	 esi
  00001	8b f1		 mov	 esi, ecx
  00003	57		 push	 edi

; 204  : 	LogAddC(5, "[ RAKLION ][ BattleOfSelupan ] State(%d) -> PATTERN_7 // Life(%d/4800000)", this->m_iBattleOfSelupanState,this->m_RaklionSelupan.GetSelupanLife());

  00004	8d 4e 34	 lea	 ecx, DWORD PTR [esi+52]
  00007	e8 00 00 00 00	 call	 ?GetSelupanLife@CRaklionSelupan@@QAEKXZ ; CRaklionSelupan::GetSelupanLife
  0000c	50		 push	 eax
  0000d	ff 76 08	 push	 DWORD PTR [esi+8]
  00010	68 00 00 00 00	 push	 OFFSET ??_C@_0EK@OPJHCMEA@?$FL?5RAKLION?5?$FN?$FL?5BattleOfSelupan?5?$FN?5S@
  00015	6a 05		 push	 5
  00017	ff 15 00 00 00
	00		 call	 DWORD PTR ?LogAddC@@3P6AXEPADZZA ; LogAddC
  0001d	83 c4 10	 add	 esp, 16			; 00000010H

; 205  : 	
; 206  : 	if ( this->m_RaklionSelupan.GetBerserkIndex() != 4 )

  00020	8d 4e 34	 lea	 ecx, DWORD PTR [esi+52]
  00023	e8 00 00 00 00	 call	 ?GetBerserkIndex@CRaklionSelupan@@QAEHXZ ; CRaklionSelupan::GetBerserkIndex
  00028	83 f8 04	 cmp	 eax, 4
  0002b	74 08		 je	 SHORT $LN6@SetState_P

; 207  : 	{
; 208  : 		this->m_RaklionSelupan.SelupanAct_Berserk4();

  0002d	8d 4e 34	 lea	 ecx, DWORD PTR [esi+52]
  00030	e8 00 00 00 00	 call	 ?SelupanAct_Berserk4@CRaklionSelupan@@QAEXXZ ; CRaklionSelupan::SelupanAct_Berserk4
$LN6@SetState_P:
  00035	5f		 pop	 edi
; File c:\users\michel\desktop\source\gameserver\source\raklionbattleofselupan.h

; 95   : 	void SetBattleOfSelupanState	(int m_iBattleOfSelupanState)	{			this->m_iBattleOfSelupanState	= m_iBattleOfSelupanState;	}

  00036	c7 46 08 08 00
	00 00		 mov	 DWORD PTR [esi+8], 8
  0003d	5e		 pop	 esi
; File c:\users\michel\desktop\source\gameserver\source\raklionbattleofselupan.cpp

; 212  : }

  0003e	c3		 ret	 0
?SetState_PATTERN_7@CRaklionBattleOfSelupan@@QAEXXZ ENDP ; CRaklionBattleOfSelupan::SetState_PATTERN_7
_TEXT	ENDS
; Function compile flags: /Ogtp
; File c:\users\michel\desktop\source\gameserver\source\raklionbattleofselupan.cpp
; File c:\users\michel\desktop\source\gameserver\source\raklionbattleofselupan.h
; File c:\users\michel\desktop\source\gameserver\source\raklionbattleofselupan.cpp
;	COMDAT ?SetState_PATTERN_6@CRaklionBattleOfSelupan@@QAEXXZ
_TEXT	SEGMENT
?SetState_PATTERN_6@CRaklionBattleOfSelupan@@QAEXXZ PROC ; CRaklionBattleOfSelupan::SetState_PATTERN_6, COMDAT
; _this$ = ecx

; 194  : {

  00000	56		 push	 esi
  00001	57		 push	 edi
  00002	8b f9		 mov	 edi, ecx

; 195  : 	LogAddC(5, "[ RAKLION ][ BattleOfSelupan ] State(%d) -> PATTERN_6 // Life(%d/4800000)", this->m_iBattleOfSelupanState,this->m_RaklionSelupan.GetSelupanLife());

  00004	8d 4f 34	 lea	 ecx, DWORD PTR [edi+52]
  00007	e8 00 00 00 00	 call	 ?GetSelupanLife@CRaklionSelupan@@QAEKXZ ; CRaklionSelupan::GetSelupanLife
  0000c	50		 push	 eax
  0000d	ff 77 08	 push	 DWORD PTR [edi+8]
  00010	68 00 00 00 00	 push	 OFFSET ??_C@_0EK@PILPEIIA@?$FL?5RAKLION?5?$FN?$FL?5BattleOfSelupan?5?$FN?5S@
  00015	6a 05		 push	 5
  00017	ff 15 00 00 00
	00		 call	 DWORD PTR ?LogAddC@@3P6AXEPADZZA ; LogAddC
  0001d	83 c4 10	 add	 esp, 16			; 00000010H

; 196  : 	
; 197  : 	this->m_RaklionSelupan.SelupanAct_Berserk4();

  00020	8d 4f 34	 lea	 ecx, DWORD PTR [edi+52]
  00023	e8 00 00 00 00	 call	 ?SelupanAct_Berserk4@CRaklionSelupan@@QAEXXZ ; CRaklionSelupan::SelupanAct_Berserk4
; File c:\users\michel\desktop\source\gameserver\source\raklionbattleofselupan.h

; 95   : 	void SetBattleOfSelupanState	(int m_iBattleOfSelupanState)	{			this->m_iBattleOfSelupanState	= m_iBattleOfSelupanState;	}

  00028	c7 47 08 07 00
	00 00		 mov	 DWORD PTR [edi+8], 7
  0002f	5f		 pop	 edi
  00030	5e		 pop	 esi
; File c:\users\michel\desktop\source\gameserver\source\raklionbattleofselupan.cpp

; 200  : }

  00031	c3		 ret	 0
?SetState_PATTERN_6@CRaklionBattleOfSelupan@@QAEXXZ ENDP ; CRaklionBattleOfSelupan::SetState_PATTERN_6
_TEXT	ENDS
; Function compile flags: /Ogtp
; File c:\users\michel\desktop\source\gameserver\source\raklionbattleofselupan.cpp
; File c:\users\michel\desktop\source\gameserver\source\raklionbattleofselupan.h
; File c:\users\michel\desktop\source\gameserver\source\raklionbattleofselupan.cpp
;	COMDAT ?SetState_PATTERN_5@CRaklionBattleOfSelupan@@QAEXXZ
_TEXT	SEGMENT
?SetState_PATTERN_5@CRaklionBattleOfSelupan@@QAEXXZ PROC ; CRaklionBattleOfSelupan::SetState_PATTERN_5, COMDAT
; _this$ = ecx

; 185  : {

  00000	56		 push	 esi
  00001	57		 push	 edi
  00002	8b f9		 mov	 edi, ecx

; 186  : 	LogAddC(5, "[ RAKLION ][ BattleOfSelupan ] State(%d) -> PATTERN_5 // Life(%d/4800000)", this->m_iBattleOfSelupanState,this->m_RaklionSelupan.GetSelupanLife());

  00004	8d 4f 34	 lea	 ecx, DWORD PTR [edi+52]
  00007	e8 00 00 00 00	 call	 ?GetSelupanLife@CRaklionSelupan@@QAEKXZ ; CRaklionSelupan::GetSelupanLife
  0000c	50		 push	 eax
  0000d	ff 77 08	 push	 DWORD PTR [edi+8]
  00010	68 00 00 00 00	 push	 OFFSET ??_C@_0EK@MBMHOFMA@?$FL?5RAKLION?5?$FN?$FL?5BattleOfSelupan?5?$FN?5S@
  00015	6a 05		 push	 5
  00017	ff 15 00 00 00
	00		 call	 DWORD PTR ?LogAddC@@3P6AXEPADZZA ; LogAddC
  0001d	83 c4 10	 add	 esp, 16			; 00000010H

; 187  : 	
; 188  : 	this->m_RaklionSelupan.SelupanAct_Berserk3();

  00020	8d 4f 34	 lea	 ecx, DWORD PTR [edi+52]
  00023	e8 00 00 00 00	 call	 ?SelupanAct_Berserk3@CRaklionSelupan@@QAEXXZ ; CRaklionSelupan::SelupanAct_Berserk3
; File c:\users\michel\desktop\source\gameserver\source\raklionbattleofselupan.h

; 95   : 	void SetBattleOfSelupanState	(int m_iBattleOfSelupanState)	{			this->m_iBattleOfSelupanState	= m_iBattleOfSelupanState;	}

  00028	c7 47 08 06 00
	00 00		 mov	 DWORD PTR [edi+8], 6
  0002f	5f		 pop	 edi
  00030	5e		 pop	 esi
; File c:\users\michel\desktop\source\gameserver\source\raklionbattleofselupan.cpp

; 191  : }

  00031	c3		 ret	 0
?SetState_PATTERN_5@CRaklionBattleOfSelupan@@QAEXXZ ENDP ; CRaklionBattleOfSelupan::SetState_PATTERN_5
_TEXT	ENDS
; Function compile flags: /Ogtp
; File c:\users\michel\desktop\source\gameserver\source\raklionbattleofselupan.cpp
; File c:\users\michel\desktop\source\gameserver\source\raklionbattleofselupan.h
; File c:\users\michel\desktop\source\gameserver\source\raklionbattleofselupan.cpp
;	COMDAT ?SetState_PATTERN_4@CRaklionBattleOfSelupan@@QAEXXZ
_TEXT	SEGMENT
?SetState_PATTERN_4@CRaklionBattleOfSelupan@@QAEXXZ PROC ; CRaklionBattleOfSelupan::SetState_PATTERN_4, COMDAT
; _this$ = ecx

; 173  : {

  00000	56		 push	 esi
  00001	8b f1		 mov	 esi, ecx
  00003	57		 push	 edi

; 174  : 	LogAddC(5, "[ RAKLION ][ BattleOfSelupan ] State(%d) -> PATTERN_4 // Life(%d/4800000)", this->m_iBattleOfSelupanState,this->m_RaklionSelupan.GetSelupanLife());

  00004	8d 4e 34	 lea	 ecx, DWORD PTR [esi+52]
  00007	e8 00 00 00 00	 call	 ?GetSelupanLife@CRaklionSelupan@@QAEKXZ ; CRaklionSelupan::GetSelupanLife
  0000c	50		 push	 eax
  0000d	ff 76 08	 push	 DWORD PTR [esi+8]
  00010	68 00 00 00 00	 push	 OFFSET ??_C@_0EK@NGOPIBAA@?$FL?5RAKLION?5?$FN?$FL?5BattleOfSelupan?5?$FN?5S@
  00015	6a 05		 push	 5
  00017	ff 15 00 00 00
	00		 call	 DWORD PTR ?LogAddC@@3P6AXEPADZZA ; LogAddC
  0001d	83 c4 10	 add	 esp, 16			; 00000010H

; 175  : 	
; 176  : 	if ( this->m_RaklionSelupan.GetBerserkIndex() != 2 )

  00020	8d 4e 34	 lea	 ecx, DWORD PTR [esi+52]
  00023	e8 00 00 00 00	 call	 ?GetBerserkIndex@CRaklionSelupan@@QAEHXZ ; CRaklionSelupan::GetBerserkIndex
  00028	83 f8 02	 cmp	 eax, 2
  0002b	74 08		 je	 SHORT $LN6@SetState_P

; 177  : 	{
; 178  : 		this->m_RaklionSelupan.SelupanAct_Berserk2();

  0002d	8d 4e 34	 lea	 ecx, DWORD PTR [esi+52]
  00030	e8 00 00 00 00	 call	 ?SelupanAct_Berserk2@CRaklionSelupan@@QAEXXZ ; CRaklionSelupan::SelupanAct_Berserk2
$LN6@SetState_P:
  00035	5f		 pop	 edi
; File c:\users\michel\desktop\source\gameserver\source\raklionbattleofselupan.h

; 95   : 	void SetBattleOfSelupanState	(int m_iBattleOfSelupanState)	{			this->m_iBattleOfSelupanState	= m_iBattleOfSelupanState;	}

  00036	c7 46 08 05 00
	00 00		 mov	 DWORD PTR [esi+8], 5
  0003d	5e		 pop	 esi
; File c:\users\michel\desktop\source\gameserver\source\raklionbattleofselupan.cpp

; 182  : }

  0003e	c3		 ret	 0
?SetState_PATTERN_4@CRaklionBattleOfSelupan@@QAEXXZ ENDP ; CRaklionBattleOfSelupan::SetState_PATTERN_4
_TEXT	ENDS
; Function compile flags: /Ogtp
; File c:\users\michel\desktop\source\gameserver\source\raklionbattleofselupan.cpp
; File c:\users\michel\desktop\source\gameserver\source\raklionbattleofselupan.h
; File c:\users\michel\desktop\source\gameserver\source\raklionbattleofselupan.cpp
;	COMDAT ?SetState_PATTERN_3@CRaklionBattleOfSelupan@@QAEXXZ
_TEXT	SEGMENT
?SetState_PATTERN_3@CRaklionBattleOfSelupan@@QAEXXZ PROC ; CRaklionBattleOfSelupan::SetState_PATTERN_3, COMDAT
; _this$ = ecx

; 164  : {

  00000	56		 push	 esi
  00001	57		 push	 edi
  00002	8b f9		 mov	 edi, ecx

; 165  : 	LogAddC(5, "[ RAKLION ][ BattleOfSelupan ] State(%d) -> PATTERN_3 // Life(%d/4800000)", this->m_iBattleOfSelupanState,this->m_RaklionSelupan.GetSelupanLife());

  00004	8d 4f 34	 lea	 ecx, DWORD PTR [edi+52]
  00007	e8 00 00 00 00	 call	 ?GetSelupanLife@CRaklionSelupan@@QAEKXZ ; CRaklionSelupan::GetSelupanLife
  0000c	50		 push	 eax
  0000d	ff 77 08	 push	 DWORD PTR [edi+8]
  00010	68 00 00 00 00	 push	 OFFSET ??_C@_0EK@LDDGLPEA@?$FL?5RAKLION?5?$FN?$FL?5BattleOfSelupan?5?$FN?5S@
  00015	6a 05		 push	 5
  00017	ff 15 00 00 00
	00		 call	 DWORD PTR ?LogAddC@@3P6AXEPADZZA ; LogAddC
  0001d	83 c4 10	 add	 esp, 16			; 00000010H

; 166  : 	
; 167  : 	this->m_RaklionSelupan.SelupanAct_Berserk2();

  00020	8d 4f 34	 lea	 ecx, DWORD PTR [edi+52]
  00023	e8 00 00 00 00	 call	 ?SelupanAct_Berserk2@CRaklionSelupan@@QAEXXZ ; CRaklionSelupan::SelupanAct_Berserk2
; File c:\users\michel\desktop\source\gameserver\source\raklionbattleofselupan.h

; 95   : 	void SetBattleOfSelupanState	(int m_iBattleOfSelupanState)	{			this->m_iBattleOfSelupanState	= m_iBattleOfSelupanState;	}

  00028	c7 47 08 04 00
	00 00		 mov	 DWORD PTR [edi+8], 4
  0002f	5f		 pop	 edi
  00030	5e		 pop	 esi
; File c:\users\michel\desktop\source\gameserver\source\raklionbattleofselupan.cpp

; 170  : }

  00031	c3		 ret	 0
?SetState_PATTERN_3@CRaklionBattleOfSelupan@@QAEXXZ ENDP ; CRaklionBattleOfSelupan::SetState_PATTERN_3
_TEXT	ENDS
; Function compile flags: /Ogtp
; File c:\users\michel\desktop\source\gameserver\source\raklionbattleofselupan.cpp
; File c:\users\michel\desktop\source\gameserver\source\raklionbattleofselupan.h
; File c:\users\michel\desktop\source\gameserver\source\raklionbattleofselupan.cpp
;	COMDAT ?SetState_PATTERN_2@CRaklionBattleOfSelupan@@QAEXXZ
_TEXT	SEGMENT
?SetState_PATTERN_2@CRaklionBattleOfSelupan@@QAEXXZ PROC ; CRaklionBattleOfSelupan::SetState_PATTERN_2, COMDAT
; _this$ = ecx

; 155  : {

  00000	56		 push	 esi
  00001	57		 push	 edi
  00002	8b f9		 mov	 edi, ecx

; 156  : 	LogAddC(5, "[ RAKLION ][ BattleOfSelupan ] State(%d) -> PATTERN_2 // Life(%d/4800000)", this->m_iBattleOfSelupanState,this->m_RaklionSelupan.GetSelupanLife());

  00004	8d 4f 34	 lea	 ecx, DWORD PTR [edi+52]
  00007	e8 00 00 00 00	 call	 ?GetSelupanLife@CRaklionSelupan@@QAEKXZ ; CRaklionSelupan::GetSelupanLife
  0000c	50		 push	 eax
  0000d	ff 77 08	 push	 DWORD PTR [edi+8]
  00010	68 00 00 00 00	 push	 OFFSET ??_C@_0EK@KEBONLIA@?$FL?5RAKLION?5?$FN?$FL?5BattleOfSelupan?5?$FN?5S@
  00015	6a 05		 push	 5
  00017	ff 15 00 00 00
	00		 call	 DWORD PTR ?LogAddC@@3P6AXEPADZZA ; LogAddC
  0001d	83 c4 10	 add	 esp, 16			; 00000010H

; 157  : 
; 158  : 	this->m_RaklionSelupan.SelupanAct_Berserk1();  

  00020	8d 4f 34	 lea	 ecx, DWORD PTR [edi+52]
  00023	e8 00 00 00 00	 call	 ?SelupanAct_Berserk1@CRaklionSelupan@@QAEXXZ ; CRaklionSelupan::SelupanAct_Berserk1
; File c:\users\michel\desktop\source\gameserver\source\raklionbattleofselupan.h

; 95   : 	void SetBattleOfSelupanState	(int m_iBattleOfSelupanState)	{			this->m_iBattleOfSelupanState	= m_iBattleOfSelupanState;	}

  00028	c7 47 08 03 00
	00 00		 mov	 DWORD PTR [edi+8], 3
  0002f	5f		 pop	 edi
  00030	5e		 pop	 esi
; File c:\users\michel\desktop\source\gameserver\source\raklionbattleofselupan.cpp

; 161  : }

  00031	c3		 ret	 0
?SetState_PATTERN_2@CRaklionBattleOfSelupan@@QAEXXZ ENDP ; CRaklionBattleOfSelupan::SetState_PATTERN_2
_TEXT	ENDS
; Function compile flags: /Ogtp
; File c:\users\michel\desktop\source\gameserver\source\raklionbattleofselupan.cpp
; File c:\users\michel\desktop\source\gameserver\source\raklionbattleofselupan.h
; File c:\users\michel\desktop\source\gameserver\source\raklionbattleofselupan.cpp
;	COMDAT ?SetState_PATTERN_1@CRaklionBattleOfSelupan@@QAEXXZ
_TEXT	SEGMENT
?SetState_PATTERN_1@CRaklionBattleOfSelupan@@QAEXXZ PROC ; CRaklionBattleOfSelupan::SetState_PATTERN_1, COMDAT
; _this$ = ecx

; 146  : {

  00000	56		 push	 esi
  00001	57		 push	 edi
  00002	8b f9		 mov	 edi, ecx

; 147  : 	LogAddC(5, "[ RAKLION ][ BattleOfSelupan ] State(%d) -> PATTERN_1 // Life(%d/4800000)", this->m_iBattleOfSelupanState,this->m_RaklionSelupan.GetSelupanLife());

  00004	8d 4f 34	 lea	 ecx, DWORD PTR [edi+52]
  00007	e8 00 00 00 00	 call	 ?GetSelupanLife@CRaklionSelupan@@QAEKXZ ; CRaklionSelupan::GetSelupanLife
  0000c	50		 push	 eax
  0000d	ff 77 08	 push	 DWORD PTR [edi+8]
  00010	68 00 00 00 00	 push	 OFFSET ??_C@_0EK@JNGGHGMA@?$FL?5RAKLION?5?$FN?$FL?5BattleOfSelupan?5?$FN?5S@
  00015	6a 05		 push	 5
  00017	ff 15 00 00 00
	00		 call	 DWORD PTR ?LogAddC@@3P6AXEPADZZA ; LogAddC
  0001d	83 c4 10	 add	 esp, 16			; 00000010H

; 148  : 	
; 149  : 	this->m_RaklionSelupan.SelupanAct_BerserkCansel();

  00020	8d 4f 34	 lea	 ecx, DWORD PTR [edi+52]
  00023	e8 00 00 00 00	 call	 ?SelupanAct_BerserkCansel@CRaklionSelupan@@QAEXXZ ; CRaklionSelupan::SelupanAct_BerserkCansel
; File c:\users\michel\desktop\source\gameserver\source\raklionbattleofselupan.h

; 95   : 	void SetBattleOfSelupanState	(int m_iBattleOfSelupanState)	{			this->m_iBattleOfSelupanState	= m_iBattleOfSelupanState;	}

  00028	c7 47 08 02 00
	00 00		 mov	 DWORD PTR [edi+8], 2
  0002f	5f		 pop	 edi
  00030	5e		 pop	 esi
; File c:\users\michel\desktop\source\gameserver\source\raklionbattleofselupan.cpp

; 152  : }

  00031	c3		 ret	 0
?SetState_PATTERN_1@CRaklionBattleOfSelupan@@QAEXXZ ENDP ; CRaklionBattleOfSelupan::SetState_PATTERN_1
_TEXT	ENDS
; Function compile flags: /Ogtp
; File c:\users\michel\desktop\source\gameserver\source\raklionbattleofselupan.cpp
; File c:\users\michel\desktop\source\gameserver\source\raklionbattleofselupan.h
; File c:\users\michel\desktop\source\gameserver\source\raklionbattleofselupan.cpp
;	COMDAT ?SetState_STANDBY@CRaklionBattleOfSelupan@@QAEXXZ
_TEXT	SEGMENT
?SetState_STANDBY@CRaklionBattleOfSelupan@@QAEXXZ PROC	; CRaklionBattleOfSelupan::SetState_STANDBY, COMDAT
; _this$ = ecx

; 135  : {

  00000	56		 push	 esi
  00001	57		 push	 edi
  00002	8b f9		 mov	 edi, ecx

; 136  : 	LogAddC(5, "[ RAKLION ][ BattleOfSelupan ] State(%d) -> STANDBY", this->m_iBattleOfSelupanState);

  00004	ff 77 08	 push	 DWORD PTR [edi+8]
  00007	68 00 00 00 00	 push	 OFFSET ??_C@_0DE@EBLINPPG@?$FL?5RAKLION?5?$FN?$FL?5BattleOfSelupan?5?$FN?5S@
  0000c	6a 05		 push	 5
  0000e	ff 15 00 00 00
	00		 call	 DWORD PTR ?LogAddC@@3P6AXEPADZZA ; LogAddC
  00014	83 c4 0c	 add	 esp, 12			; 0000000cH

; 137  : 	
; 138  : 	this->m_RaklionSelupan.InitSelupanObjIndex();

  00017	8d 4f 34	 lea	 ecx, DWORD PTR [edi+52]
  0001a	e8 00 00 00 00	 call	 ?InitSelupanObjIndex@CRaklionSelupan@@QAEXXZ ; CRaklionSelupan::InitSelupanObjIndex

; 139  : 	this->m_RaklionSelupan.CreateSelupan();

  0001f	8d 4f 34	 lea	 ecx, DWORD PTR [edi+52]
  00022	e8 00 00 00 00	 call	 ?CreateSelupan@CRaklionSelupan@@QAEHXZ ; CRaklionSelupan::CreateSelupan

; 140  : 	this->m_RaklionSelupan.SelupanAct_BerserkCansel();

  00027	8d 4f 34	 lea	 ecx, DWORD PTR [edi+52]
  0002a	e8 00 00 00 00	 call	 ?SelupanAct_BerserkCansel@CRaklionSelupan@@QAEXXZ ; CRaklionSelupan::SelupanAct_BerserkCansel
; File c:\users\michel\desktop\source\gameserver\source\raklionbattleofselupan.h

; 95   : 	void SetBattleOfSelupanState	(int m_iBattleOfSelupanState)	{			this->m_iBattleOfSelupanState	= m_iBattleOfSelupanState;	}

  0002f	c7 47 08 01 00
	00 00		 mov	 DWORD PTR [edi+8], 1
  00036	5f		 pop	 edi
  00037	5e		 pop	 esi
; File c:\users\michel\desktop\source\gameserver\source\raklionbattleofselupan.cpp

; 143  : }

  00038	c3		 ret	 0
?SetState_STANDBY@CRaklionBattleOfSelupan@@QAEXXZ ENDP	; CRaklionBattleOfSelupan::SetState_STANDBY
_TEXT	ENDS
; Function compile flags: /Ogtp
; File c:\users\michel\desktop\source\gameserver\source\raklionbattleofselupan.cpp
; File c:\users\michel\desktop\source\gameserver\source\raklionbattleofselupan.h
; File c:\users\michel\desktop\source\gameserver\source\raklionbattleofselupan.cpp
;	COMDAT ?SetState_NONE@CRaklionBattleOfSelupan@@QAEXXZ
_TEXT	SEGMENT
?SetState_NONE@CRaklionBattleOfSelupan@@QAEXXZ PROC	; CRaklionBattleOfSelupan::SetState_NONE, COMDAT
; _this$ = ecx

; 125  : {

  00000	56		 push	 esi
  00001	8b f1		 mov	 esi, ecx

; 126  : 	LogAddC(5, "[ RAKLION ][ BattleOfSelupan ] State(%d) -> NONE", this->m_iBattleOfSelupanState);

  00003	ff 76 08	 push	 DWORD PTR [esi+8]
  00006	68 00 00 00 00	 push	 OFFSET ??_C@_0DB@JPEONBGN@?$FL?5RAKLION?5?$FN?$FL?5BattleOfSelupan?5?$FN?5S@
  0000b	6a 05		 push	 5
  0000d	ff 15 00 00 00
	00		 call	 DWORD PTR ?LogAddC@@3P6AXEPADZZA ; LogAddC
  00013	83 c4 0c	 add	 esp, 12			; 0000000cH

; 127  : 	
; 128  : 	this->m_RaklionSelupan.SelupanAct_BerserkCansel();

  00016	8d 4e 34	 lea	 ecx, DWORD PTR [esi+52]
  00019	e8 00 00 00 00	 call	 ?SelupanAct_BerserkCansel@CRaklionSelupan@@QAEXXZ ; CRaklionSelupan::SelupanAct_BerserkCansel
; File c:\users\michel\desktop\source\gameserver\source\raklionbattleofselupan.h

; 95   : 	void SetBattleOfSelupanState	(int m_iBattleOfSelupanState)	{			this->m_iBattleOfSelupanState	= m_iBattleOfSelupanState;	}

  0001e	c7 46 08 00 00
	00 00		 mov	 DWORD PTR [esi+8], 0
  00025	5e		 pop	 esi
; File c:\users\michel\desktop\source\gameserver\source\raklionbattleofselupan.cpp

; 132  : }

  00026	c3		 ret	 0
?SetState_NONE@CRaklionBattleOfSelupan@@QAEXXZ ENDP	; CRaklionBattleOfSelupan::SetState_NONE
_TEXT	ENDS
; Function compile flags: /Ogtp
; File c:\users\michel\desktop\source\gameserver\source\raklionbattleofselupan.cpp
;	COMDAT ?SetState@CRaklionBattleOfSelupan@@QAEXH@Z
_TEXT	SEGMENT
_iBattleOfSelupanState$ = 8				; size = 4
?SetState@CRaklionBattleOfSelupan@@QAEXH@Z PROC		; CRaklionBattleOfSelupan::SetState, COMDAT
; _this$ = ecx

; 101  : {

  00000	55		 push	 ebp
  00001	8b ec		 mov	 ebp, esp
  00003	56		 push	 esi
  00004	8b f1		 mov	 esi, ecx

; 102  : 	if ( this->m_dwSkillDelay > GetTickCount() - this->m_dwSkillDelayTick )

  00006	ff 15 00 00 00
	00		 call	 DWORD PTR __imp__GetTickCount@0
  0000c	2b 46 28	 sub	 eax, DWORD PTR [esi+40]
  0000f	39 46 24	 cmp	 DWORD PTR [esi+36], eax
  00012	0f 87 1c 01 00
	00		 ja	 $LN1@SetState

; 103  : 	{
; 104  : 		return;
; 105  : 	}
; 106  : 		
; 107  : 	switch ( iBattleOfSelupanState )

  00018	8b 45 08	 mov	 eax, DWORD PTR _iBattleOfSelupanState$[ebp]
  0001b	83 f8 09	 cmp	 eax, 9
  0001e	0f 87 01 01 00
	00		 ja	 $LN2@SetState
  00024	ff 24 85 00 00
	00 00		 jmp	 DWORD PTR $LN19@SetState[eax*4]
$LN5@SetState:

; 108  : 	{
; 109  : 	case SELUPAN_STATE_NONE:		this->SetState_NONE();		break;

  0002b	8b ce		 mov	 ecx, esi
  0002d	e8 00 00 00 00	 call	 ?SetState_NONE@CRaklionBattleOfSelupan@@QAEXXZ ; CRaklionBattleOfSelupan::SetState_NONE

; 119  : 	}
; 120  : 
; 121  : 	g_RaklionUtil.NotifyRaklionChangeState(11, this->GetBattleOfSelupanState());

  00032	ff 76 08	 push	 DWORD PTR [esi+8]
  00035	b9 00 00 00 00	 mov	 ecx, OFFSET ?g_RaklionUtil@@3VCRaklionUtil@@A ; g_RaklionUtil
  0003a	6a 0b		 push	 11			; 0000000bH
  0003c	e8 00 00 00 00	 call	 ?NotifyRaklionChangeState@CRaklionUtil@@QAEXHH@Z ; CRaklionUtil::NotifyRaklionChangeState
  00041	5e		 pop	 esi

; 122  : }

  00042	5d		 pop	 ebp
  00043	c2 04 00	 ret	 4
$LN6@SetState:

; 110  : 	case SELUPAN_STATE_STANDBY:		this->SetState_STANDBY();	break;

  00046	8b ce		 mov	 ecx, esi
  00048	e8 00 00 00 00	 call	 ?SetState_STANDBY@CRaklionBattleOfSelupan@@QAEXXZ ; CRaklionBattleOfSelupan::SetState_STANDBY

; 119  : 	}
; 120  : 
; 121  : 	g_RaklionUtil.NotifyRaklionChangeState(11, this->GetBattleOfSelupanState());

  0004d	ff 76 08	 push	 DWORD PTR [esi+8]
  00050	b9 00 00 00 00	 mov	 ecx, OFFSET ?g_RaklionUtil@@3VCRaklionUtil@@A ; g_RaklionUtil
  00055	6a 0b		 push	 11			; 0000000bH
  00057	e8 00 00 00 00	 call	 ?NotifyRaklionChangeState@CRaklionUtil@@QAEXHH@Z ; CRaklionUtil::NotifyRaklionChangeState
  0005c	5e		 pop	 esi

; 122  : }

  0005d	5d		 pop	 ebp
  0005e	c2 04 00	 ret	 4
$LN7@SetState:

; 111  : 	case SELUPAN_STATE_PATTERN_1:	this->SetState_PATTERN_1();	break;

  00061	8b ce		 mov	 ecx, esi
  00063	e8 00 00 00 00	 call	 ?SetState_PATTERN_1@CRaklionBattleOfSelupan@@QAEXXZ ; CRaklionBattleOfSelupan::SetState_PATTERN_1

; 119  : 	}
; 120  : 
; 121  : 	g_RaklionUtil.NotifyRaklionChangeState(11, this->GetBattleOfSelupanState());

  00068	ff 76 08	 push	 DWORD PTR [esi+8]
  0006b	b9 00 00 00 00	 mov	 ecx, OFFSET ?g_RaklionUtil@@3VCRaklionUtil@@A ; g_RaklionUtil
  00070	6a 0b		 push	 11			; 0000000bH
  00072	e8 00 00 00 00	 call	 ?NotifyRaklionChangeState@CRaklionUtil@@QAEXHH@Z ; CRaklionUtil::NotifyRaklionChangeState
  00077	5e		 pop	 esi

; 122  : }

  00078	5d		 pop	 ebp
  00079	c2 04 00	 ret	 4
$LN8@SetState:

; 112  : 	case SELUPAN_STATE_PATTERN_2:	this->SetState_PATTERN_2();	break;

  0007c	8b ce		 mov	 ecx, esi
  0007e	e8 00 00 00 00	 call	 ?SetState_PATTERN_2@CRaklionBattleOfSelupan@@QAEXXZ ; CRaklionBattleOfSelupan::SetState_PATTERN_2

; 119  : 	}
; 120  : 
; 121  : 	g_RaklionUtil.NotifyRaklionChangeState(11, this->GetBattleOfSelupanState());

  00083	ff 76 08	 push	 DWORD PTR [esi+8]
  00086	b9 00 00 00 00	 mov	 ecx, OFFSET ?g_RaklionUtil@@3VCRaklionUtil@@A ; g_RaklionUtil
  0008b	6a 0b		 push	 11			; 0000000bH
  0008d	e8 00 00 00 00	 call	 ?NotifyRaklionChangeState@CRaklionUtil@@QAEXHH@Z ; CRaklionUtil::NotifyRaklionChangeState
  00092	5e		 pop	 esi

; 122  : }

  00093	5d		 pop	 ebp
  00094	c2 04 00	 ret	 4
$LN9@SetState:

; 113  : 	case SELUPAN_STATE_PATTERN_3:	this->SetState_PATTERN_3();	break;

  00097	8b ce		 mov	 ecx, esi
  00099	e8 00 00 00 00	 call	 ?SetState_PATTERN_3@CRaklionBattleOfSelupan@@QAEXXZ ; CRaklionBattleOfSelupan::SetState_PATTERN_3

; 119  : 	}
; 120  : 
; 121  : 	g_RaklionUtil.NotifyRaklionChangeState(11, this->GetBattleOfSelupanState());

  0009e	ff 76 08	 push	 DWORD PTR [esi+8]
  000a1	b9 00 00 00 00	 mov	 ecx, OFFSET ?g_RaklionUtil@@3VCRaklionUtil@@A ; g_RaklionUtil
  000a6	6a 0b		 push	 11			; 0000000bH
  000a8	e8 00 00 00 00	 call	 ?NotifyRaklionChangeState@CRaklionUtil@@QAEXHH@Z ; CRaklionUtil::NotifyRaklionChangeState
  000ad	5e		 pop	 esi

; 122  : }

  000ae	5d		 pop	 ebp
  000af	c2 04 00	 ret	 4
$LN10@SetState:

; 114  : 	case SELUPAN_STATE_PATTERN_4:	this->SetState_PATTERN_4();	break;

  000b2	8b ce		 mov	 ecx, esi
  000b4	e8 00 00 00 00	 call	 ?SetState_PATTERN_4@CRaklionBattleOfSelupan@@QAEXXZ ; CRaklionBattleOfSelupan::SetState_PATTERN_4

; 119  : 	}
; 120  : 
; 121  : 	g_RaklionUtil.NotifyRaklionChangeState(11, this->GetBattleOfSelupanState());

  000b9	ff 76 08	 push	 DWORD PTR [esi+8]
  000bc	b9 00 00 00 00	 mov	 ecx, OFFSET ?g_RaklionUtil@@3VCRaklionUtil@@A ; g_RaklionUtil
  000c1	6a 0b		 push	 11			; 0000000bH
  000c3	e8 00 00 00 00	 call	 ?NotifyRaklionChangeState@CRaklionUtil@@QAEXHH@Z ; CRaklionUtil::NotifyRaklionChangeState
  000c8	5e		 pop	 esi

; 122  : }

  000c9	5d		 pop	 ebp
  000ca	c2 04 00	 ret	 4
$LN11@SetState:

; 115  : 	case SELUPAN_STATE_PATTERN_5:	this->SetState_PATTERN_5();	break;

  000cd	8b ce		 mov	 ecx, esi
  000cf	e8 00 00 00 00	 call	 ?SetState_PATTERN_5@CRaklionBattleOfSelupan@@QAEXXZ ; CRaklionBattleOfSelupan::SetState_PATTERN_5

; 119  : 	}
; 120  : 
; 121  : 	g_RaklionUtil.NotifyRaklionChangeState(11, this->GetBattleOfSelupanState());

  000d4	ff 76 08	 push	 DWORD PTR [esi+8]
  000d7	b9 00 00 00 00	 mov	 ecx, OFFSET ?g_RaklionUtil@@3VCRaklionUtil@@A ; g_RaklionUtil
  000dc	6a 0b		 push	 11			; 0000000bH
  000de	e8 00 00 00 00	 call	 ?NotifyRaklionChangeState@CRaklionUtil@@QAEXHH@Z ; CRaklionUtil::NotifyRaklionChangeState
  000e3	5e		 pop	 esi

; 122  : }

  000e4	5d		 pop	 ebp
  000e5	c2 04 00	 ret	 4
$LN12@SetState:

; 116  : 	case SELUPAN_STATE_PATTERN_6:	this->SetState_PATTERN_6();	break;

  000e8	8b ce		 mov	 ecx, esi
  000ea	e8 00 00 00 00	 call	 ?SetState_PATTERN_6@CRaklionBattleOfSelupan@@QAEXXZ ; CRaklionBattleOfSelupan::SetState_PATTERN_6

; 119  : 	}
; 120  : 
; 121  : 	g_RaklionUtil.NotifyRaklionChangeState(11, this->GetBattleOfSelupanState());

  000ef	ff 76 08	 push	 DWORD PTR [esi+8]
  000f2	b9 00 00 00 00	 mov	 ecx, OFFSET ?g_RaklionUtil@@3VCRaklionUtil@@A ; g_RaklionUtil
  000f7	6a 0b		 push	 11			; 0000000bH
  000f9	e8 00 00 00 00	 call	 ?NotifyRaklionChangeState@CRaklionUtil@@QAEXHH@Z ; CRaklionUtil::NotifyRaklionChangeState
  000fe	5e		 pop	 esi

; 122  : }

  000ff	5d		 pop	 ebp
  00100	c2 04 00	 ret	 4
$LN13@SetState:

; 117  : 	case SELUPAN_STATE_PATTERN_7:	this->SetState_PATTERN_7();	break;

  00103	8b ce		 mov	 ecx, esi
  00105	e8 00 00 00 00	 call	 ?SetState_PATTERN_7@CRaklionBattleOfSelupan@@QAEXXZ ; CRaklionBattleOfSelupan::SetState_PATTERN_7

; 119  : 	}
; 120  : 
; 121  : 	g_RaklionUtil.NotifyRaklionChangeState(11, this->GetBattleOfSelupanState());

  0010a	ff 76 08	 push	 DWORD PTR [esi+8]
  0010d	b9 00 00 00 00	 mov	 ecx, OFFSET ?g_RaklionUtil@@3VCRaklionUtil@@A ; g_RaklionUtil
  00112	6a 0b		 push	 11			; 0000000bH
  00114	e8 00 00 00 00	 call	 ?NotifyRaklionChangeState@CRaklionUtil@@QAEXHH@Z ; CRaklionUtil::NotifyRaklionChangeState
  00119	5e		 pop	 esi

; 122  : }

  0011a	5d		 pop	 ebp
  0011b	c2 04 00	 ret	 4
$LN14@SetState:

; 118  : 	case SELUPAN_STATE_DIE:			this->SetState_DIE();		break;

  0011e	8b ce		 mov	 ecx, esi
  00120	e8 00 00 00 00	 call	 ?SetState_DIE@CRaklionBattleOfSelupan@@QAEXXZ ; CRaklionBattleOfSelupan::SetState_DIE
$LN2@SetState:

; 119  : 	}
; 120  : 
; 121  : 	g_RaklionUtil.NotifyRaklionChangeState(11, this->GetBattleOfSelupanState());

  00125	ff 76 08	 push	 DWORD PTR [esi+8]
  00128	b9 00 00 00 00	 mov	 ecx, OFFSET ?g_RaklionUtil@@3VCRaklionUtil@@A ; g_RaklionUtil
  0012d	6a 0b		 push	 11			; 0000000bH
  0012f	e8 00 00 00 00	 call	 ?NotifyRaklionChangeState@CRaklionUtil@@QAEXHH@Z ; CRaklionUtil::NotifyRaklionChangeState
$LN1@SetState:
  00134	5e		 pop	 esi

; 122  : }

  00135	5d		 pop	 ebp
  00136	c2 04 00	 ret	 4
  00139	0f 1f 00	 npad	 3
$LN19@SetState:
  0013c	00 00 00 00	 DD	 $LN5@SetState
  00140	00 00 00 00	 DD	 $LN6@SetState
  00144	00 00 00 00	 DD	 $LN7@SetState
  00148	00 00 00 00	 DD	 $LN8@SetState
  0014c	00 00 00 00	 DD	 $LN9@SetState
  00150	00 00 00 00	 DD	 $LN10@SetState
  00154	00 00 00 00	 DD	 $LN11@SetState
  00158	00 00 00 00	 DD	 $LN12@SetState
  0015c	00 00 00 00	 DD	 $LN13@SetState
  00160	00 00 00 00	 DD	 $LN14@SetState
?SetState@CRaklionBattleOfSelupan@@QAEXH@Z ENDP		; CRaklionBattleOfSelupan::SetState
_TEXT	ENDS
; Function compile flags: /Ogtp
; File c:\users\michel\desktop\source\gameserver\source\raklionbattleofselupan.cpp
;	COMDAT ?Run@CRaklionBattleOfSelupan@@QAEXXZ
_TEXT	SEGMENT
?Run@CRaklionBattleOfSelupan@@QAEXXZ PROC		; CRaklionBattleOfSelupan::Run, COMDAT
; _this$ = ecx

; 73   : {

  00000	56		 push	 esi
  00001	8b f1		 mov	 esi, ecx

; 74   : 	if ( this->m_RaklionSelupan.GetSelupanLife() <= 0 && this->GetBattleOfSelupanState() != SELUPAN_STATE_DIE  )

  00003	8d 4e 34	 lea	 ecx, DWORD PTR [esi+52]
  00006	e8 00 00 00 00	 call	 ?GetSelupanLife@CRaklionSelupan@@QAEKXZ ; CRaklionSelupan::GetSelupanLife
  0000b	85 c0		 test	 eax, eax
  0000d	75 11		 jne	 SHORT $LN4@Run
  0000f	83 7e 08 09	 cmp	 DWORD PTR [esi+8], 9
  00013	74 0b		 je	 SHORT $LN4@Run

; 75   : 	{
; 76   : 		this->SetState(SELUPAN_STATE_DIE);

  00015	6a 09		 push	 9
  00017	8b ce		 mov	 ecx, esi
  00019	e8 00 00 00 00	 call	 ?SetState@CRaklionBattleOfSelupan@@QAEXH@Z ; CRaklionBattleOfSelupan::SetState
$LN15@Run:
  0001e	5e		 pop	 esi

; 96   : 	case SELUPAN_STATE_DIE:			this->ProcState_DIE();		break;
; 97   : 	}
; 98   : }

  0001f	c3		 ret	 0
$LN4@Run:

; 77   : 		return;
; 78   : 	}
; 79   : 
; 80   : 	if ( this->m_dwSkillDelay > GetTickCount() - this->m_dwSkillDelayTick )

  00020	ff 15 00 00 00
	00		 call	 DWORD PTR __imp__GetTickCount@0
  00026	2b 46 28	 sub	 eax, DWORD PTR [esi+40]
  00029	39 46 24	 cmp	 DWORD PTR [esi+36], eax
  0002c	77 f0		 ja	 SHORT $LN15@Run

; 81   : 	{
; 82   : 		return;
; 83   : 	}
; 84   : 
; 85   : 	switch ( this->m_iBattleOfSelupanState )

  0002e	8b 46 08	 mov	 eax, DWORD PTR [esi+8]
  00031	83 f8 09	 cmp	 eax, 9
  00034	77 e8		 ja	 SHORT $LN15@Run
  00036	ff 24 85 00 00
	00 00		 jmp	 DWORD PTR $LN22@Run[eax*4]
$LN8@Run:

; 86   : 	{
; 87   : 	case SELUPAN_STATE_NONE:		this->ProcState_NONE();		break;
; 88   : 	case SELUPAN_STATE_STANDBY:		this->ProcState_STANDBY();	break;
; 89   : 	case SELUPAN_STATE_PATTERN_1:	this->ProcState_PATTERN_1();break;

  0003d	8b ce		 mov	 ecx, esi
  0003f	5e		 pop	 esi
  00040	e9 00 00 00 00	 jmp	 ?ProcState_PATTERN_1@CRaklionBattleOfSelupan@@QAEXXZ ; CRaklionBattleOfSelupan::ProcState_PATTERN_1
$LN9@Run:

; 90   : 	case SELUPAN_STATE_PATTERN_2:	this->ProcState_PATTERN_2();break;

  00045	8b ce		 mov	 ecx, esi
  00047	5e		 pop	 esi
  00048	e9 00 00 00 00	 jmp	 ?ProcState_PATTERN_2@CRaklionBattleOfSelupan@@QAEXXZ ; CRaklionBattleOfSelupan::ProcState_PATTERN_2
$LN10@Run:

; 91   : 	case SELUPAN_STATE_PATTERN_3:	this->ProcState_PATTERN_3();break;

  0004d	8b ce		 mov	 ecx, esi
  0004f	5e		 pop	 esi
  00050	e9 00 00 00 00	 jmp	 ?ProcState_PATTERN_3@CRaklionBattleOfSelupan@@QAEXXZ ; CRaklionBattleOfSelupan::ProcState_PATTERN_3
$LN11@Run:

; 92   : 	case SELUPAN_STATE_PATTERN_4:	this->ProcState_PATTERN_4();break;

  00055	8b ce		 mov	 ecx, esi
  00057	5e		 pop	 esi
  00058	e9 00 00 00 00	 jmp	 ?ProcState_PATTERN_4@CRaklionBattleOfSelupan@@QAEXXZ ; CRaklionBattleOfSelupan::ProcState_PATTERN_4
$LN12@Run:

; 93   : 	case SELUPAN_STATE_PATTERN_5:	this->ProcState_PATTERN_5();break;

  0005d	8b ce		 mov	 ecx, esi
  0005f	5e		 pop	 esi
  00060	e9 00 00 00 00	 jmp	 ?ProcState_PATTERN_5@CRaklionBattleOfSelupan@@QAEXXZ ; CRaklionBattleOfSelupan::ProcState_PATTERN_5
$LN13@Run:

; 94   : 	case SELUPAN_STATE_PATTERN_6:	this->ProcState_PATTERN_6();break;

  00065	8b ce		 mov	 ecx, esi
  00067	5e		 pop	 esi
  00068	e9 00 00 00 00	 jmp	 ?ProcState_PATTERN_6@CRaklionBattleOfSelupan@@QAEXXZ ; CRaklionBattleOfSelupan::ProcState_PATTERN_6
$LN14@Run:

; 95   : 	case SELUPAN_STATE_PATTERN_7:	this->ProcState_PATTERN_7();break;

  0006d	8b ce		 mov	 ecx, esi
  0006f	5e		 pop	 esi
  00070	e9 00 00 00 00	 jmp	 ?ProcState_PATTERN_7@CRaklionBattleOfSelupan@@QAEXXZ ; CRaklionBattleOfSelupan::ProcState_PATTERN_7
  00075	0f 1f 00	 npad	 3
$LN22@Run:

; 96   : 	case SELUPAN_STATE_DIE:			this->ProcState_DIE();		break;
; 97   : 	}
; 98   : }

  00078	00 00 00 00	 DD	 $LN15@Run
  0007c	00 00 00 00	 DD	 $LN15@Run
  00080	00 00 00 00	 DD	 $LN8@Run
  00084	00 00 00 00	 DD	 $LN9@Run
  00088	00 00 00 00	 DD	 $LN10@Run
  0008c	00 00 00 00	 DD	 $LN11@Run
  00090	00 00 00 00	 DD	 $LN12@Run
  00094	00 00 00 00	 DD	 $LN13@Run
  00098	00 00 00 00	 DD	 $LN14@Run
  0009c	00 00 00 00	 DD	 $LN15@Run
?Run@CRaklionBattleOfSelupan@@QAEXXZ ENDP		; CRaklionBattleOfSelupan::Run
_TEXT	ENDS
; Function compile flags: /Ogtp
; File c:\users\michel\desktop\source\gameserver\source\raklionbattleofselupan.cpp
;	COMDAT ?Init@CRaklionBattleOfSelupan@@QAEHXZ
_TEXT	SEGMENT
?Init@CRaklionBattleOfSelupan@@QAEHXZ PROC		; CRaklionBattleOfSelupan::Init, COMDAT
; _this$ = ecx

; 68   : 	//need fix size
; 69   : 	return 1;

  00000	b8 01 00 00 00	 mov	 eax, 1

; 70   : }

  00005	c3		 ret	 0
?Init@CRaklionBattleOfSelupan@@QAEHXZ ENDP		; CRaklionBattleOfSelupan::Init
_TEXT	ENDS
; Function compile flags: /Ogtp
; File c:\users\michel\desktop\source\gameserver\source\raklionbattleofselupan.cpp
; File c:\users\michel\desktop\source\gameserver\source\raklionbattleofselupan.h
; File c:\users\michel\desktop\source\gameserver\source\raklionbattleofselupan.cpp
;	COMDAT ?ResetAllData@CRaklionBattleOfSelupan@@QAEXXZ
_TEXT	SEGMENT
?ResetAllData@CRaklionBattleOfSelupan@@QAEXXZ PROC	; CRaklionBattleOfSelupan::ResetAllData, COMDAT
; _this$ = ecx

; 27   : {

  00000	56		 push	 esi
  00001	8b f1		 mov	 esi, ecx

; 28   : 	this->m_004 = 0;
; 29   : 	this->m_dwSkillDelay		= 0;
; 30   : 	this->m_dwSkillDelayTick	= 0;
; 31   : 	this->m_bIsUseFirstSkill = 0;
; 32   : 
; 33   : 	memset(this->m_PatternSkill,0,sizeof(this->m_PatternSkill)); //0x1C size

  00003	68 fc 00 00 00	 push	 252			; 000000fcH
  00008	6a 00		 push	 0
  0000a	8d 86 d4 0c 00
	00		 lea	 eax, DWORD PTR [esi+3284]
  00010	c7 46 04 00 00
	00 00		 mov	 DWORD PTR [esi+4], 0
  00017	50		 push	 eax
  00018	c7 46 24 00 00
	00 00		 mov	 DWORD PTR [esi+36], 0
  0001f	c7 46 28 00 00
	00 00		 mov	 DWORD PTR [esi+40], 0
  00026	c7 46 2c 00 00
	00 00		 mov	 DWORD PTR [esi+44], 0
  0002d	e8 00 00 00 00	 call	 _memset

; 34   : 
; 35   : 	for(int i = 0 ; i< MAX_STATE_PATTERN_COUNT ; i++)
; 36   : 	{
; 37   : 		 this->m_PatternSkill[i].bIsSkillEnabled[SKILL_POISON_ATTACK]		= TRUE;

  00032	c7 86 d8 0c 00
	00 01 00 00 00	 mov	 DWORD PTR [esi+3288], 1
  0003c	83 c4 0c	 add	 esp, 12			; 0000000cH

; 38   : 		 this->m_PatternSkill[i].bIsSkillEnabled[SKILL_ICESTORM]			= TRUE;

  0003f	c7 86 dc 0c 00
	00 01 00 00 00	 mov	 DWORD PTR [esi+3292], 1

; 39   : 		 this->m_PatternSkill[i].bIsSkillEnabled[SKILL_ICESTRIKE]			= TRUE;

  00049	c7 86 e0 0c 00
	00 01 00 00 00	 mov	 DWORD PTR [esi+3296], 1

; 40   : 		 this->m_PatternSkill[i].bIsSkillEnabled[SKILL_TELEPORT]			= TRUE;

  00053	c7 86 f0 0c 00
	00 01 00 00 00	 mov	 DWORD PTR [esi+3312], 1
  0005d	c7 86 fc 0c 00
	00 01 00 00 00	 mov	 DWORD PTR [esi+3324], 1
  00067	c7 86 00 0d 00
	00 01 00 00 00	 mov	 DWORD PTR [esi+3328], 1
  00071	c7 86 04 0d 00
	00 01 00 00 00	 mov	 DWORD PTR [esi+3332], 1
  0007b	c7 86 14 0d 00
	00 01 00 00 00	 mov	 DWORD PTR [esi+3348], 1
  00085	c7 86 20 0d 00
	00 01 00 00 00	 mov	 DWORD PTR [esi+3360], 1
  0008f	c7 86 24 0d 00
	00 01 00 00 00	 mov	 DWORD PTR [esi+3364], 1
  00099	c7 86 28 0d 00
	00 01 00 00 00	 mov	 DWORD PTR [esi+3368], 1
  000a3	c7 86 38 0d 00
	00 01 00 00 00	 mov	 DWORD PTR [esi+3384], 1
  000ad	c7 86 44 0d 00
	00 01 00 00 00	 mov	 DWORD PTR [esi+3396], 1
  000b7	c7 86 48 0d 00
	00 01 00 00 00	 mov	 DWORD PTR [esi+3400], 1
  000c1	c7 86 4c 0d 00
	00 01 00 00 00	 mov	 DWORD PTR [esi+3404], 1
  000cb	c7 86 5c 0d 00
	00 01 00 00 00	 mov	 DWORD PTR [esi+3420], 1
  000d5	c7 86 68 0d 00
	00 01 00 00 00	 mov	 DWORD PTR [esi+3432], 1
  000df	c7 86 6c 0d 00
	00 01 00 00 00	 mov	 DWORD PTR [esi+3436], 1
  000e9	c7 86 70 0d 00
	00 01 00 00 00	 mov	 DWORD PTR [esi+3440], 1
  000f3	c7 86 80 0d 00
	00 01 00 00 00	 mov	 DWORD PTR [esi+3456], 1
  000fd	c7 86 8c 0d 00
	00 01 00 00 00	 mov	 DWORD PTR [esi+3468], 1
  00107	c7 86 90 0d 00
	00 01 00 00 00	 mov	 DWORD PTR [esi+3472], 1
  00111	c7 86 94 0d 00
	00 01 00 00 00	 mov	 DWORD PTR [esi+3476], 1
  0011b	c7 86 a4 0d 00
	00 01 00 00 00	 mov	 DWORD PTR [esi+3492], 1
  00125	c7 86 b0 0d 00
	00 01 00 00 00	 mov	 DWORD PTR [esi+3504], 1
  0012f	c7 86 b4 0d 00
	00 01 00 00 00	 mov	 DWORD PTR [esi+3508], 1
  00139	c7 86 b8 0d 00
	00 01 00 00 00	 mov	 DWORD PTR [esi+3512], 1
  00143	c7 86 c8 0d 00
	00 01 00 00 00	 mov	 DWORD PTR [esi+3528], 1

; 41   : 	}
; 42   : 
; 43   : 	this->m_PatternSkill[STATE_PATTERN_2].bIsSkillEnabled[SKILL_FREEZE]			= TRUE;//D10

  0014d	c7 86 10 0d 00
	00 01 00 00 00	 mov	 DWORD PTR [esi+3344], 1

; 44   : 	this->m_PatternSkill[STATE_PATTERN_3].bIsSkillEnabled[SKILL_FREEZE]			= TRUE;//D34

  00157	c7 86 34 0d 00
	00 01 00 00 00	 mov	 DWORD PTR [esi+3380], 1

; 45   : 
; 46   : 	this->m_PatternSkill[STATE_PATTERN_4].bIsSkillEnabled[SKILL_FREEZE]			= TRUE;//D58

  00161	c7 86 58 0d 00
	00 01 00 00 00	 mov	 DWORD PTR [esi+3416], 1

; 47   : 	this->m_PatternSkill[STATE_PATTERN_4].bIsSkillEnabled[SKILL_HEAL]			= TRUE;//D54

  0016b	c7 86 54 0d 00
	00 01 00 00 00	 mov	 DWORD PTR [esi+3412], 1

; 48   : 
; 49   : 	this->m_PatternSkill[STATE_PATTERN_5].bIsSkillEnabled[SKILL_SUMMON]			= TRUE;//D74

  00175	c7 86 74 0d 00
	00 01 00 00 00	 mov	 DWORD PTR [esi+3444], 1

; 50   : 	this->m_PatternSkill[STATE_PATTERN_5].bIsSkillEnabled[SKILL_FREEZE]			= TRUE;//D7C

  0017f	c7 86 7c 0d 00
	00 01 00 00 00	 mov	 DWORD PTR [esi+3452], 1

; 51   : 	this->m_PatternSkill[STATE_PATTERN_5].bIsSkillEnabled[SKILL_HEAL]			= TRUE;//D78

  00189	c7 86 78 0d 00
	00 01 00 00 00	 mov	 DWORD PTR [esi+3448], 1

; 52   : 
; 53   : 	this->m_PatternSkill[STATE_PATTERN_6].bIsSkillEnabled[SKILL_SUMMON]			= TRUE;//D98

  00193	c7 86 98 0d 00
	00 01 00 00 00	 mov	 DWORD PTR [esi+3480], 1

; 54   : 	this->m_PatternSkill[STATE_PATTERN_6].bIsSkillEnabled[SKILL_FREEZE]			= TRUE;//DA0

  0019d	c7 86 a0 0d 00
	00 01 00 00 00	 mov	 DWORD PTR [esi+3488], 1

; 55   : 	this->m_PatternSkill[STATE_PATTERN_6].bIsSkillEnabled[SKILL_HEAL]			= TRUE;//D9C

  001a7	c7 86 9c 0d 00
	00 01 00 00 00	 mov	 DWORD PTR [esi+3484], 1

; 56   : 
; 57   : 	this->m_PatternSkill[STATE_PATTERN_7].bIsSkillEnabled[SKILL_SUMMON]			= TRUE;//DBC

  001b1	c7 86 bc 0d 00
	00 01 00 00 00	 mov	 DWORD PTR [esi+3516], 1

; 58   : 	this->m_PatternSkill[STATE_PATTERN_7].bIsSkillEnabled[SKILL_FREEZE]			= TRUE;//DC4

  001bb	c7 86 c4 0d 00
	00 01 00 00 00	 mov	 DWORD PTR [esi+3524], 1

; 59   : 	this->m_PatternSkill[STATE_PATTERN_7].bIsSkillEnabled[SKILL_HEAL]			= TRUE;//DC0

  001c5	c7 86 c0 0d 00
	00 01 00 00 00	 mov	 DWORD PTR [esi+3520], 1

; 60   : 	this->m_PatternSkill[STATE_PATTERN_7].bIsSkillEnabled[SKILL_INVINCIBILITY]	= TRUE;//DCC

  001cf	c7 86 cc 0d 00
	00 01 00 00 00	 mov	 DWORD PTR [esi+3532], 1
; File c:\users\michel\desktop\source\gameserver\source\raklionbattleofselupan.h

; 97   : 	void SetSuccessValue			(BOOL bIsSuccess)				{			this->m_bIsSucccess				= bIsSuccess;				}

  001d9	c7 46 30 00 00
	00 00		 mov	 DWORD PTR [esi+48], 0

; 95   : 	void SetBattleOfSelupanState	(int m_iBattleOfSelupanState)	{			this->m_iBattleOfSelupanState	= m_iBattleOfSelupanState;	}

  001e0	c7 46 08 00 00
	00 00		 mov	 DWORD PTR [esi+8], 0
  001e7	5e		 pop	 esi
; File c:\users\michel\desktop\source\gameserver\source\raklionbattleofselupan.cpp

; 64   : }

  001e8	c3		 ret	 0
?ResetAllData@CRaklionBattleOfSelupan@@QAEXXZ ENDP	; CRaklionBattleOfSelupan::ResetAllData
_TEXT	ENDS
; Function compile flags: /Ogtp
; File c:\users\michel\desktop\source\gameserver\source\raklionbattleofselupan.cpp
;	COMDAT ??1CRaklionBattleOfSelupan@@UAE@XZ
_TEXT	SEGMENT
??1CRaklionBattleOfSelupan@@UAE@XZ PROC			; CRaklionBattleOfSelupan::~CRaklionBattleOfSelupan, COMDAT
; _this$ = ecx

; 22   : {

  00000	c7 01 00 00 00
	00		 mov	 DWORD PTR [ecx], OFFSET ??_7CRaklionBattleOfSelupan@@6B@

; 23   : 
; 24   : }

  00006	83 c1 34	 add	 ecx, 52			; 00000034H
  00009	e9 00 00 00 00	 jmp	 ??1CRaklionSelupan@@UAE@XZ ; CRaklionSelupan::~CRaklionSelupan
??1CRaklionBattleOfSelupan@@UAE@XZ ENDP			; CRaklionBattleOfSelupan::~CRaklionBattleOfSelupan
_TEXT	ENDS
; Function compile flags: /Ogtp
; File c:\users\michel\desktop\source\gameserver\source\raklionbattleofselupan.cpp
;	COMDAT ??0CRaklionBattleOfSelupan@@QAE@XZ
_TEXT	SEGMENT
_this$ = -4						; size = 4
??0CRaklionBattleOfSelupan@@QAE@XZ PROC			; CRaklionBattleOfSelupan::CRaklionBattleOfSelupan, COMDAT
; _this$ = ecx

; 17   : {

  00000	55		 push	 ebp
  00001	8b ec		 mov	 ebp, esp
  00003	51		 push	 ecx
  00004	56		 push	 esi
  00005	8b f1		 mov	 esi, ecx
  00007	89 75 fc	 mov	 DWORD PTR _this$[ebp], esi
  0000a	8d 4e 34	 lea	 ecx, DWORD PTR [esi+52]
  0000d	c7 06 00 00 00
	00		 mov	 DWORD PTR [esi], OFFSET ??_7CRaklionBattleOfSelupan@@6B@
  00013	e8 00 00 00 00	 call	 ??0CRaklionSelupan@@QAE@XZ ; CRaklionSelupan::CRaklionSelupan

; 18   : 	this->ResetAllData();

  00018	8b ce		 mov	 ecx, esi
  0001a	e8 00 00 00 00	 call	 ?ResetAllData@CRaklionBattleOfSelupan@@QAEXXZ ; CRaklionBattleOfSelupan::ResetAllData

; 19   : }

  0001f	8b c6		 mov	 eax, esi
  00021	5e		 pop	 esi
  00022	8b e5		 mov	 esp, ebp
  00024	5d		 pop	 ebp
  00025	c3		 ret	 0
??0CRaklionBattleOfSelupan@@QAE@XZ ENDP			; CRaklionBattleOfSelupan::CRaklionBattleOfSelupan
_TEXT	ENDS
; Function compile flags: /Ogtp
; File c:\program files (x86)\windows kits\10\include\10.0.10240.0\ucrt\time.h
;	COMDAT _time
_TEXT	SEGMENT
__Time$ = 8						; size = 4
_time	PROC						; COMDAT

; 534  :         {

  00000	55		 push	 ebp
  00001	8b ec		 mov	 ebp, esp

; 536  :         }

  00003	5d		 pop	 ebp

; 535  :             return _time64(_Time);

  00004	e9 00 00 00 00	 jmp	 __time64
_time	ENDP
_TEXT	ENDS
; Function compile flags: /Ogtp
; File c:\program files (x86)\windows kits\10\include\10.0.10240.0\ucrt\time.h
;	COMDAT _localtime
_TEXT	SEGMENT
__Time$ = 8						; size = 4
_localtime PROC						; COMDAT

; 508  :         {

  00000	55		 push	 ebp
  00001	8b ec		 mov	 ebp, esp

; 512  :             #pragma warning(pop)
; 513  :         }

  00003	5d		 pop	 ebp

; 509  :             #pragma warning(push)
; 510  :             #pragma warning(disable: 4996)
; 511  :             return _localtime64(_Time);

  00004	e9 00 00 00 00	 jmp	 __localtime64
_localtime ENDP
_TEXT	ENDS
; Function compile flags: /Ogtp
; File c:\users\michel\desktop\source\gameserver\source\raklionbattleofselupan.cpp
;	COMDAT ?__empty_global_delete@@YAXPAXI@Z
_TEXT	SEGMENT
___formal$ = 8						; size = 4
___formal$ = 12						; size = 4
?__empty_global_delete@@YAXPAXI@Z PROC			; __empty_global_delete, COMDAT

; 523  : }

  00000	c3		 ret	 0
?__empty_global_delete@@YAXPAXI@Z ENDP			; __empty_global_delete
_TEXT	ENDS
; Function compile flags: /Ogtp
; File c:\users\michel\desktop\source\gameserver\source\raklionbattleofselupan.cpp
;	COMDAT ?__empty_global_delete@@YAXPAX@Z
_TEXT	SEGMENT
___formal$ = 8						; size = 4
?__empty_global_delete@@YAXPAX@Z PROC			; __empty_global_delete, COMDAT

; 523  : }

  00000	c3		 ret	 0
?__empty_global_delete@@YAXPAX@Z ENDP			; __empty_global_delete
_TEXT	ENDS
END
