; Listing generated by Microsoft (R) Optimizing Compiler Version 19.00.23506.0 

	TITLE	C:\Users\Michel\Desktop\Source\GameServer\Source\RaklionSelupan.cpp
	.686P
	.XMM
	include listing.inc
	.model	flat

INCLUDELIB LIBCMT
INCLUDELIB OLDNAMES

PUBLIC	?__empty_global_delete@@YAXPAX@Z		; __empty_global_delete
PUBLIC	?__empty_global_delete@@YAXPAXI@Z		; __empty_global_delete
PUBLIC	??1CRaklionObjInfo@@UAE@XZ			; CRaklionObjInfo::~CRaklionObjInfo
PUBLIC	??_GCRaklionObjInfo@@UAEPAXI@Z			; CRaklionObjInfo::`scalar deleting destructor'
PUBLIC	??0CRaklionSelupan@@QAE@XZ			; CRaklionSelupan::CRaklionSelupan
PUBLIC	??1CRaklionSelupan@@UAE@XZ			; CRaklionSelupan::~CRaklionSelupan
PUBLIC	?ClearData@CRaklionSelupan@@QAEXXZ		; CRaklionSelupan::ClearData
PUBLIC	?SelupanAct_FirstSkill@CRaklionSelupan@@QAEXXZ	; CRaklionSelupan::SelupanAct_FirstSkill
PUBLIC	?SelupanAct_PoisonAttack@CRaklionSelupan@@QAEXXZ ; CRaklionSelupan::SelupanAct_PoisonAttack
PUBLIC	?SelupanAct_IceStorm@CRaklionSelupan@@QAEXXZ	; CRaklionSelupan::SelupanAct_IceStorm
PUBLIC	?SelupanAct_IceStrike@CRaklionSelupan@@QAEXXZ	; CRaklionSelupan::SelupanAct_IceStrike
PUBLIC	?SelupanAct_SummonMonster@CRaklionSelupan@@QAEXXZ ; CRaklionSelupan::SelupanAct_SummonMonster
PUBLIC	?SelupanAct_Heal@CRaklionSelupan@@QAEXXZ	; CRaklionSelupan::SelupanAct_Heal
PUBLIC	?SelupanAct_Freeze@CRaklionSelupan@@QAEXXZ	; CRaklionSelupan::SelupanAct_Freeze
PUBLIC	?SelupanAct_Teleport@CRaklionSelupan@@QAEXXZ	; CRaklionSelupan::SelupanAct_Teleport
PUBLIC	?SelupanAct_Invincibility@CRaklionSelupan@@QAEXXZ ; CRaklionSelupan::SelupanAct_Invincibility
PUBLIC	?SelupanAct_BerserkCansel@CRaklionSelupan@@QAEXXZ ; CRaklionSelupan::SelupanAct_BerserkCansel
PUBLIC	?SelupanAct_Berserk1@CRaklionSelupan@@QAEXXZ	; CRaklionSelupan::SelupanAct_Berserk1
PUBLIC	?SelupanAct_Berserk2@CRaklionSelupan@@QAEXXZ	; CRaklionSelupan::SelupanAct_Berserk2
PUBLIC	?SelupanAct_Berserk3@CRaklionSelupan@@QAEXXZ	; CRaklionSelupan::SelupanAct_Berserk3
PUBLIC	?SelupanAct_Berserk4@CRaklionSelupan@@QAEXXZ	; CRaklionSelupan::SelupanAct_Berserk4
PUBLIC	?GetSelupanLife@CRaklionSelupan@@QAEKXZ		; CRaklionSelupan::GetSelupanLife
PUBLIC	?SetSelupanLife@CRaklionSelupan@@QAEXH@Z	; CRaklionSelupan::SetSelupanLife
PUBLIC	?InitSelupanObjIndex@CRaklionSelupan@@QAEXXZ	; CRaklionSelupan::InitSelupanObjIndex
PUBLIC	?CreateSelupan@CRaklionSelupan@@QAEHXZ		; CRaklionSelupan::CreateSelupan
PUBLIC	?DeleteSelupan@CRaklionSelupan@@QAEXXZ		; CRaklionSelupan::DeleteSelupan
PUBLIC	?GetSelupanTargetIndex@CRaklionSelupan@@QAEHXZ	; CRaklionSelupan::GetSelupanTargetIndex
PUBLIC	?SetSelupanSkillDelay@CRaklionSelupan@@QAEXH@Z	; CRaklionSelupan::SetSelupanSkillDelay
PUBLIC	?GetSelupanSkillDelay@CRaklionSelupan@@QAEHXZ	; CRaklionSelupan::GetSelupanSkillDelay
PUBLIC	?GetBerserkIndex@CRaklionSelupan@@QAEHXZ	; CRaklionSelupan::GetBerserkIndex
PUBLIC	?SetBossAttackDamage@CRaklionSelupan@@QAEXHH@Z	; CRaklionSelupan::SetBossAttackDamage
PUBLIC	?SetSelupanObjIndex@CRaklionSelupan@@QAEXH@Z	; CRaklionSelupan::SetSelupanObjIndex
PUBLIC	?GetSelupanObjIndex@CRaklionSelupan@@QAEHXZ	; CRaklionSelupan::GetSelupanObjIndex
PUBLIC	?CreateSummonMonster@CRaklionSelupan@@QAEXXZ	; CRaklionSelupan::CreateSummonMonster
PUBLIC	?DeleteSummonMonster@CRaklionSelupan@@QAEXXZ	; CRaklionSelupan::DeleteSummonMonster
PUBLIC	??_GCRaklionSelupan@@UAEPAXI@Z			; CRaklionSelupan::`scalar deleting destructor'
PUBLIC	??1OBJECTSTRUCT@@QAE@XZ				; OBJECTSTRUCT::~OBJECTSTRUCT
PUBLIC	??_EOBJECTSTRUCT@@QAEPAXI@Z			; OBJECTSTRUCT::`vector deleting destructor'
PUBLIC	??_7CRaklionObjInfo@@6B@			; CRaklionObjInfo::`vftable'
PUBLIC	??_7CRaklionSelupan@@6B@			; CRaklionSelupan::`vftable'
PUBLIC	??_C@_0DF@DHONPPND@?$FL?5RAKLION?5?$FN?$FL?5FirstSkill?5?$FN?5Skill?5@ ; `string'
PUBLIC	??_C@_0DH@HBHGOP@?$FL?5RAKLION?5?$FN?$FL?5PoisonAttack?5?$FN?5Skil@ ; `string'
PUBLIC	??_C@_0DD@GKIFGDCG@?$FL?5RAKLION?5?$FN?$FL?5IceStorm?5?$FN?5Skill?5Us@ ; `string'
PUBLIC	??_C@_0DE@LMJIKHAC@?$FL?5RAKLION?5?$FN?$FL?5IceStrike?5?$FN?5Skill?5U@ ; `string'
PUBLIC	??_C@_0DI@MNJIILJK@?$FL?5RAKLION?5?$FN?$FL?5SummonMonster?5?$FN?5Ski@ ; `string'
PUBLIC	??_C@_0CP@FPMFGMGG@?$FL?5RAKLION?5?$FN?$FL?5Heal?5?$FN?5Skill?5Using?5@ ; `string'
PUBLIC	??_C@_0DB@JDHBEKMA@?$FL?5RAKLION?5?$FN?$FL?5Freeze?5?$FN?5Skill?5Usin@ ; `string'
PUBLIC	??_C@_0DI@HEJHANHK@?$FL?5RAKLION?5?$FN?$FL?5Invincibility?5?$FN?5Ski@ ; `string'
PUBLIC	??_C@_0DK@MIJHEJFK@?$FL?5RAKLION?5?$FN?$FL?5Berserk?5Cancel?5?$FN?5Mi@ ; `string'
PUBLIC	??_C@_0DO@CBMKDMPF@?$FL?5RAKLION?5?$FN?$FL?5Berserk1?5?$FN?5Skill?5Us@ ; `string'
PUBLIC	??_C@_0DO@BJPBLHIG@?$FL?5RAKLION?5?$FN?$FL?5Berserk2?5?$FN?5Skill?5Us@ ; `string'
PUBLIC	??_C@_0DO@LIMIDDGI@?$FL?5RAKLION?5?$FN?$FL?5Berserk3?5?$FN?5Skill?5Us@ ; `string'
PUBLIC	??_C@_0DO@GJIGKBGA@?$FL?5RAKLION?5?$FN?$FL?5Berserk4?5?$FN?5Skill?5Us@ ; `string'
PUBLIC	??_C@_0DN@GNLDFGOG@?$FL?5RAKLION?5?$FN?5?$FL?5InitSelupanIndex?5?$FN@ ; `string'
PUBLIC	??_C@_0BO@MCDHLBHK@?$FLRAKLION?$FN?5CreateSelupan?5error?$AA@ ; `string'
PUBLIC	??_C@_0CK@FKMFPLA@?$FLRAKLION?$FN?5Create?5Selupan?5?3?5X?5?$CI?$CFd@ ; `string'
PUBLIC	??_C@_0EB@HCMLCFKN@?$FL?5RAKLION?5?$FN?$FL?5SetSelupanSkillDela@ ; `string'
PUBLIC	??_C@_0EB@CEPDAMEN@?$FL?5RAKLION?5?$FN?$FL?5GetSelupanSkillDela@ ; `string'
PUBLIC	??_C@_0EE@JEAHABCI@?$FL?5RAKLION?5?$FN?$FL?5SetSelupanObjIndex?5@ ; `string'
PUBLIC	??_C@_0DB@NHKFKAEF@?$FLRAKLION?$FN?5Summoned?5Monster?5?3?5?$CFs?5@ ; `string'
PUBLIC	??_C@_0DN@EPHHAGJF@?$FL?5RAKLION?5?$FN?5?$FL?5DeleteSummonMonste@ ; `string'
PUBLIC	??_R4CRaklionObjInfo@@6B@			; CRaklionObjInfo::`RTTI Complete Object Locator'
PUBLIC	??_R0?AVCRaklionObjInfo@@@8			; CRaklionObjInfo `RTTI Type Descriptor'
PUBLIC	??_R3CRaklionObjInfo@@8				; CRaklionObjInfo::`RTTI Class Hierarchy Descriptor'
PUBLIC	??_R2CRaklionObjInfo@@8				; CRaklionObjInfo::`RTTI Base Class Array'
PUBLIC	??_R1A@?0A@EA@CRaklionObjInfo@@8		; CRaklionObjInfo::`RTTI Base Class Descriptor at (0,-1,0,64)'
PUBLIC	??_R4CRaklionSelupan@@6B@			; CRaklionSelupan::`RTTI Complete Object Locator'
PUBLIC	??_R0?AVCRaklionSelupan@@@8			; CRaklionSelupan `RTTI Type Descriptor'
PUBLIC	??_R3CRaklionSelupan@@8				; CRaklionSelupan::`RTTI Class Hierarchy Descriptor'
PUBLIC	??_R2CRaklionSelupan@@8				; CRaklionSelupan::`RTTI Base Class Array'
PUBLIC	??_R1A@?0A@EA@CRaklionSelupan@@8		; CRaklionSelupan::`RTTI Base Class Descriptor at (0,-1,0,64)'
PUBLIC	__real@42c80000
EXTRN	??_M@YGXPAXIIP6EX0@Z@Z:PROC			; `eh vector destructor iterator'
EXTRN	??3@YAXPAXI@Z:PROC				; operator delete
EXTRN	??_V@YAXPAXI@Z:PROC				; operator delete[]
EXTRN	??_ECRaklionObjInfo@@UAEPAXI@Z:PROC		; CRaklionObjInfo::`vector deleting destructor'
EXTRN	??_ECRaklionSelupan@@UAEPAXI@Z:PROC		; CRaklionSelupan::`vector deleting destructor'
EXTRN	??1CSkillDelay@@UAE@XZ:PROC			; CSkillDelay::~CSkillDelay
EXTRN	??0CMagicInf@@QAE@XZ:PROC			; CMagicInf::CMagicInf
EXTRN	??1CMagicInf@@UAE@XZ:PROC			; CMagicInf::~CMagicInf
EXTRN	??1TMonsterAIAgro@@UAE@XZ:PROC			; TMonsterAIAgro::~TMonsterAIAgro
EXTRN	?gObjCharZeroSet@@YAXH@Z:PROC			; gObjCharZeroSet
EXTRN	?gObjSetPosMonster@@YAHHH@Z:PROC		; gObjSetPosMonster
EXTRN	?gObjSetMonster@@YAHHH@Z:PROC			; gObjSetMonster
EXTRN	?gObjAddMonster@@YAFH@Z:PROC			; gObjAddMonster
EXTRN	?gObjDel@@YAFH@Z:PROC				; gObjDel
EXTRN	?gObjViewportClose@@YAXPAUOBJECTSTRUCT@@@Z:PROC	; gObjViewportClose
EXTRN	?gObjViewportListCreate@@YAXF@Z:PROC		; gObjViewportListCreate
EXTRN	?gObjViewportListDestroy@@YAXF@Z:PROC		; gObjViewportListDestroy
EXTRN	?gObjStateSetCreate@@YAXH@Z:PROC		; gObjStateSetCreate
EXTRN	?gObjSetState@@YAXXZ:PROC			; gObjSetState
EXTRN	?gObjViewportListProtocolDestroy@@YAXPAUOBJECTSTRUCT@@@Z:PROC ; gObjViewportListProtocolDestroy
EXTRN	?gObjViewportListProtocol@@YAXF@Z:PROC		; gObjViewportListProtocol
EXTRN	?UseMonsterSkill@TMonsterSkillManager@@SAXHHHHPAVCMagicInf@@@Z:PROC ; TMonsterSkillManager::UseMonsterSkill
EXTRN	?gObjMonsterSearchEnemy@@YAHPAUOBJECTSTRUCT@@E@Z:PROC ; gObjMonsterSearchEnemy
EXTRN	@__security_check_cookie@4:PROC
EXTRN	___CxxFrameHandler3:PROC
EXTRN	__ftoui3:PROC
EXTRN	??_7type_info@@6B@:QWORD			; type_info::`vftable'
EXTRN	?LogAddC@@3P6AXEPADZZA:DWORD			; LogAddC
EXTRN	?LogAddTD@@3P6AXPADZZA:DWORD			; LogAddTD
EXTRN	?gObj@@3PAUOBJECTSTRUCT@@A:DWORD		; gObj
EXTRN	?gMSetBase@@3VCMonsterSetBase@@A:BYTE		; gMSetBase
EXTRN	___security_cookie:DWORD
EXTRN	__fltused:DWORD
;	COMDAT __real@42c80000
CONST	SEGMENT
__real@42c80000 DD 042c80000r			; 100
CONST	ENDS
;	COMDAT ??_R1A@?0A@EA@CRaklionSelupan@@8
rdata$r	SEGMENT
??_R1A@?0A@EA@CRaklionSelupan@@8 DD FLAT:??_R0?AVCRaklionSelupan@@@8 ; CRaklionSelupan::`RTTI Base Class Descriptor at (0,-1,0,64)'
	DD	00H
	DD	00H
	DD	0ffffffffH
	DD	00H
	DD	040H
	DD	FLAT:??_R3CRaklionSelupan@@8
rdata$r	ENDS
;	COMDAT ??_R2CRaklionSelupan@@8
rdata$r	SEGMENT
??_R2CRaklionSelupan@@8 DD FLAT:??_R1A@?0A@EA@CRaklionSelupan@@8 ; CRaklionSelupan::`RTTI Base Class Array'
rdata$r	ENDS
;	COMDAT ??_R3CRaklionSelupan@@8
rdata$r	SEGMENT
??_R3CRaklionSelupan@@8 DD 00H				; CRaklionSelupan::`RTTI Class Hierarchy Descriptor'
	DD	00H
	DD	01H
	DD	FLAT:??_R2CRaklionSelupan@@8
rdata$r	ENDS
;	COMDAT ??_R0?AVCRaklionSelupan@@@8
data$r	SEGMENT
??_R0?AVCRaklionSelupan@@@8 DD FLAT:??_7type_info@@6B@	; CRaklionSelupan `RTTI Type Descriptor'
	DD	00H
	DB	'.?AVCRaklionSelupan@@', 00H
data$r	ENDS
;	COMDAT ??_R4CRaklionSelupan@@6B@
rdata$r	SEGMENT
??_R4CRaklionSelupan@@6B@ DD 00H			; CRaklionSelupan::`RTTI Complete Object Locator'
	DD	00H
	DD	00H
	DD	FLAT:??_R0?AVCRaklionSelupan@@@8
	DD	FLAT:??_R3CRaklionSelupan@@8
rdata$r	ENDS
;	COMDAT ??_R1A@?0A@EA@CRaklionObjInfo@@8
rdata$r	SEGMENT
??_R1A@?0A@EA@CRaklionObjInfo@@8 DD FLAT:??_R0?AVCRaklionObjInfo@@@8 ; CRaklionObjInfo::`RTTI Base Class Descriptor at (0,-1,0,64)'
	DD	00H
	DD	00H
	DD	0ffffffffH
	DD	00H
	DD	040H
	DD	FLAT:??_R3CRaklionObjInfo@@8
rdata$r	ENDS
;	COMDAT ??_R2CRaklionObjInfo@@8
rdata$r	SEGMENT
??_R2CRaklionObjInfo@@8 DD FLAT:??_R1A@?0A@EA@CRaklionObjInfo@@8 ; CRaklionObjInfo::`RTTI Base Class Array'
rdata$r	ENDS
;	COMDAT ??_R3CRaklionObjInfo@@8
rdata$r	SEGMENT
??_R3CRaklionObjInfo@@8 DD 00H				; CRaklionObjInfo::`RTTI Class Hierarchy Descriptor'
	DD	00H
	DD	01H
	DD	FLAT:??_R2CRaklionObjInfo@@8
rdata$r	ENDS
;	COMDAT ??_R0?AVCRaklionObjInfo@@@8
data$r	SEGMENT
??_R0?AVCRaklionObjInfo@@@8 DD FLAT:??_7type_info@@6B@	; CRaklionObjInfo `RTTI Type Descriptor'
	DD	00H
	DB	'.?AVCRaklionObjInfo@@', 00H
data$r	ENDS
;	COMDAT ??_R4CRaklionObjInfo@@6B@
rdata$r	SEGMENT
??_R4CRaklionObjInfo@@6B@ DD 00H			; CRaklionObjInfo::`RTTI Complete Object Locator'
	DD	00H
	DD	00H
	DD	FLAT:??_R0?AVCRaklionObjInfo@@@8
	DD	FLAT:??_R3CRaklionObjInfo@@8
rdata$r	ENDS
;	COMDAT ??_C@_0DN@EPHHAGJF@?$FL?5RAKLION?5?$FN?5?$FL?5DeleteSummonMonste@
CONST	SEGMENT
??_C@_0DN@EPHHAGJF@?$FL?5RAKLION?5?$FN?5?$FL?5DeleteSummonMonste@ DB '[ R'
	DB	'AKLION ] [ DeleteSummonMonster ] Delete All SummonMonster', 00H ; `string'
CONST	ENDS
;	COMDAT ??_C@_0DB@NHKFKAEF@?$FLRAKLION?$FN?5Summoned?5Monster?5?3?5?$CFs?5@
CONST	SEGMENT
??_C@_0DB@NHKFKAEF@?$FLRAKLION?$FN?5Summoned?5Monster?5?3?5?$CFs?5@ DB '['
	DB	'RAKLION] Summoned Monster : %s => X-(%d) Y-(%d)', 00H ; `string'
CONST	ENDS
;	COMDAT ??_C@_0EE@JEAHABCI@?$FL?5RAKLION?5?$FN?$FL?5SetSelupanObjIndex?5@
CONST	SEGMENT
??_C@_0EE@JEAHABCI@?$FL?5RAKLION?5?$FN?$FL?5SetSelupanObjIndex?5@ DB '[ R'
	DB	'AKLION ][ SetSelupanObjIndex ] SelupanObjIndex error : Index('
	DB	'%d)', 00H					; `string'
CONST	ENDS
;	COMDAT ??_C@_0EB@CEPDAMEN@?$FL?5RAKLION?5?$FN?$FL?5GetSelupanSkillDela@
CONST	SEGMENT
??_C@_0EB@CEPDAMEN@?$FL?5RAKLION?5?$FN?$FL?5GetSelupanSkillDela@ DB '[ RA'
	DB	'KLION ][ GetSelupanSkillDelay ] SkillDelay error : Delay(%d)', 00H ; `string'
CONST	ENDS
;	COMDAT ??_C@_0EB@HCMLCFKN@?$FL?5RAKLION?5?$FN?$FL?5SetSelupanSkillDela@
CONST	SEGMENT
??_C@_0EB@HCMLCFKN@?$FL?5RAKLION?5?$FN?$FL?5SetSelupanSkillDela@ DB '[ RA'
	DB	'KLION ][ SetSelupanSkillDelay ] SkillDelay error : Delay(%d)', 00H ; `string'
CONST	ENDS
;	COMDAT ??_C@_0CK@FKMFPLA@?$FLRAKLION?$FN?5Create?5Selupan?5?3?5X?5?$CI?$CFd@
CONST	SEGMENT
??_C@_0CK@FKMFPLA@?$FLRAKLION?$FN?5Create?5Selupan?5?3?5X?5?$CI?$CFd@ DB '['
	DB	'RAKLION] Create Selupan : X (%d) / Y(%d)', 00H ; `string'
CONST	ENDS
;	COMDAT ??_C@_0BO@MCDHLBHK@?$FLRAKLION?$FN?5CreateSelupan?5error?$AA@
CONST	SEGMENT
??_C@_0BO@MCDHLBHK@?$FLRAKLION?$FN?5CreateSelupan?5error?$AA@ DB '[RAKLIO'
	DB	'N] CreateSelupan error', 00H		; `string'
CONST	ENDS
;	COMDAT ??_C@_0DN@GNLDFGOG@?$FL?5RAKLION?5?$FN?5?$FL?5InitSelupanIndex?5?$FN@
CONST	SEGMENT
??_C@_0DN@GNLDFGOG@?$FL?5RAKLION?5?$FN?5?$FL?5InitSelupanIndex?5?$FN@ DB '['
	DB	' RAKLION ] [ InitSelupanIndex ] error : SelupanObjIndex(%d)', 00H ; `string'
CONST	ENDS
;	COMDAT ??_C@_0DO@GJIGKBGA@?$FL?5RAKLION?5?$FN?$FL?5Berserk4?5?$FN?5Skill?5Us@
CONST	SEGMENT
??_C@_0DO@GJIGKBGA@?$FL?5RAKLION?5?$FN?$FL?5Berserk4?5?$FN?5Skill?5Us@ DB '['
	DB	' RAKLION ][ Berserk4 ] Skill Using : Index(%d) Damage(%d~%d)', 00H ; `string'
CONST	ENDS
;	COMDAT ??_C@_0DO@LIMIDDGI@?$FL?5RAKLION?5?$FN?$FL?5Berserk3?5?$FN?5Skill?5Us@
CONST	SEGMENT
??_C@_0DO@LIMIDDGI@?$FL?5RAKLION?5?$FN?$FL?5Berserk3?5?$FN?5Skill?5Us@ DB '['
	DB	' RAKLION ][ Berserk3 ] Skill Using : Index(%d) Damage(%d~%d)', 00H ; `string'
CONST	ENDS
;	COMDAT ??_C@_0DO@BJPBLHIG@?$FL?5RAKLION?5?$FN?$FL?5Berserk2?5?$FN?5Skill?5Us@
CONST	SEGMENT
??_C@_0DO@BJPBLHIG@?$FL?5RAKLION?5?$FN?$FL?5Berserk2?5?$FN?5Skill?5Us@ DB '['
	DB	' RAKLION ][ Berserk2 ] Skill Using : Index(%d) Damage(%d~%d)', 00H ; `string'
CONST	ENDS
;	COMDAT ??_C@_0DO@CBMKDMPF@?$FL?5RAKLION?5?$FN?$FL?5Berserk1?5?$FN?5Skill?5Us@
CONST	SEGMENT
??_C@_0DO@CBMKDMPF@?$FL?5RAKLION?5?$FN?$FL?5Berserk1?5?$FN?5Skill?5Us@ DB '['
	DB	' RAKLION ][ Berserk1 ] Skill Using : Index(%d) Damage(%d~%d)', 00H ; `string'
CONST	ENDS
;	COMDAT ??_C@_0DK@MIJHEJFK@?$FL?5RAKLION?5?$FN?$FL?5Berserk?5Cancel?5?$FN?5Mi@
CONST	SEGMENT
??_C@_0DK@MIJHEJFK@?$FL?5RAKLION?5?$FN?$FL?5Berserk?5Cancel?5?$FN?5Mi@ DB '['
	DB	' RAKLION ][ Berserk Cancel ] MinDamage(%d) Damage(%d~%d)', 00H ; `string'
CONST	ENDS
;	COMDAT ??_C@_0DI@HEJHANHK@?$FL?5RAKLION?5?$FN?$FL?5Invincibility?5?$FN?5Ski@
CONST	SEGMENT
??_C@_0DI@HEJHANHK@?$FL?5RAKLION?5?$FN?$FL?5Invincibility?5?$FN?5Ski@ DB '['
	DB	' RAKLION ][ Invincibility ] Skill Using : Index(%d) %s', 00H ; `string'
CONST	ENDS
;	COMDAT ??_C@_0DB@JDHBEKMA@?$FL?5RAKLION?5?$FN?$FL?5Freeze?5?$FN?5Skill?5Usin@
CONST	SEGMENT
??_C@_0DB@JDHBEKMA@?$FL?5RAKLION?5?$FN?$FL?5Freeze?5?$FN?5Skill?5Usin@ DB '['
	DB	' RAKLION ][ Freeze ] Skill Using : Index(%d) %s', 00H ; `string'
CONST	ENDS
;	COMDAT ??_C@_0CP@FPMFGMGG@?$FL?5RAKLION?5?$FN?$FL?5Heal?5?$FN?5Skill?5Using?5@
CONST	SEGMENT
??_C@_0CP@FPMFGMGG@?$FL?5RAKLION?5?$FN?$FL?5Heal?5?$FN?5Skill?5Using?5@ DB '['
	DB	' RAKLION ][ Heal ] Skill Using : Index(%d) %s', 00H ; `string'
CONST	ENDS
;	COMDAT ??_C@_0DI@MNJIILJK@?$FL?5RAKLION?5?$FN?$FL?5SummonMonster?5?$FN?5Ski@
CONST	SEGMENT
??_C@_0DI@MNJIILJK@?$FL?5RAKLION?5?$FN?$FL?5SummonMonster?5?$FN?5Ski@ DB '['
	DB	' RAKLION ][ SummonMonster ] Skill Using : Index(%d) %s', 00H ; `string'
CONST	ENDS
;	COMDAT ??_C@_0DE@LMJIKHAC@?$FL?5RAKLION?5?$FN?$FL?5IceStrike?5?$FN?5Skill?5U@
CONST	SEGMENT
??_C@_0DE@LMJIKHAC@?$FL?5RAKLION?5?$FN?$FL?5IceStrike?5?$FN?5Skill?5U@ DB '['
	DB	' RAKLION ][ IceStrike ] Skill Using : Index(%d) %s', 00H ; `string'
CONST	ENDS
;	COMDAT ??_C@_0DD@GKIFGDCG@?$FL?5RAKLION?5?$FN?$FL?5IceStorm?5?$FN?5Skill?5Us@
CONST	SEGMENT
??_C@_0DD@GKIFGDCG@?$FL?5RAKLION?5?$FN?$FL?5IceStorm?5?$FN?5Skill?5Us@ DB '['
	DB	' RAKLION ][ IceStorm ] Skill Using : Index(%d) %s', 00H ; `string'
CONST	ENDS
;	COMDAT ??_C@_0DH@HBHGOP@?$FL?5RAKLION?5?$FN?$FL?5PoisonAttack?5?$FN?5Skil@
CONST	SEGMENT
??_C@_0DH@HBHGOP@?$FL?5RAKLION?5?$FN?$FL?5PoisonAttack?5?$FN?5Skil@ DB '['
	DB	' RAKLION ][ PoisonAttack ] Skill Using : Index(%d) %s', 00H ; `string'
CONST	ENDS
;	COMDAT ??_C@_0DF@DHONPPND@?$FL?5RAKLION?5?$FN?$FL?5FirstSkill?5?$FN?5Skill?5@
CONST	SEGMENT
??_C@_0DF@DHONPPND@?$FL?5RAKLION?5?$FN?$FL?5FirstSkill?5?$FN?5Skill?5@ DB '['
	DB	' RAKLION ][ FirstSkill ] Skill Using : Index(%d) %s', 00H ; `string'
CONST	ENDS
;	COMDAT ??_7CRaklionSelupan@@6B@
CONST	SEGMENT
??_7CRaklionSelupan@@6B@ DD FLAT:??_R4CRaklionSelupan@@6B@ ; CRaklionSelupan::`vftable'
	DD	FLAT:??_ECRaklionSelupan@@UAEPAXI@Z
CONST	ENDS
;	COMDAT ??_7CRaklionObjInfo@@6B@
CONST	SEGMENT
??_7CRaklionObjInfo@@6B@ DD FLAT:??_R4CRaklionObjInfo@@6B@ ; CRaklionObjInfo::`vftable'
	DD	FLAT:??_ECRaklionObjInfo@@UAEPAXI@Z
CONST	ENDS
;	COMDAT xdata$x
xdata$x	SEGMENT
__ehfuncinfo$??_EOBJECTSTRUCT@@QAEPAXI@Z DD 019930522H
	DD	00H
	DD	00H
	DD	2 DUP(00H)
	DD	2 DUP(00H)
	DD	00H
	DD	05H
xdata$x	ENDS
;	COMDAT xdata$x
xdata$x	SEGMENT
__unwindtable$?SelupanAct_IceStrike@CRaklionSelupan@@QAEXXZ DD 0ffffffffH
	DD	FLAT:__unwindfunclet$?SelupanAct_IceStrike@CRaklionSelupan@@QAEXXZ$0
__ehfuncinfo$?SelupanAct_IceStrike@CRaklionSelupan@@QAEXXZ DD 019930522H
	DD	01H
	DD	FLAT:__unwindtable$?SelupanAct_IceStrike@CRaklionSelupan@@QAEXXZ
	DD	2 DUP(00H)
	DD	2 DUP(00H)
	DD	00H
	DD	01H
xdata$x	ENDS
;	COMDAT xdata$x
xdata$x	SEGMENT
__unwindtable$?SelupanAct_IceStorm@CRaklionSelupan@@QAEXXZ DD 0ffffffffH
	DD	FLAT:__unwindfunclet$?SelupanAct_IceStorm@CRaklionSelupan@@QAEXXZ$0
__ehfuncinfo$?SelupanAct_IceStorm@CRaklionSelupan@@QAEXXZ DD 019930522H
	DD	01H
	DD	FLAT:__unwindtable$?SelupanAct_IceStorm@CRaklionSelupan@@QAEXXZ
	DD	2 DUP(00H)
	DD	2 DUP(00H)
	DD	00H
	DD	01H
xdata$x	ENDS
;	COMDAT xdata$x
xdata$x	SEGMENT
__unwindtable$?SelupanAct_PoisonAttack@CRaklionSelupan@@QAEXXZ DD 0ffffffffH
	DD	FLAT:__unwindfunclet$?SelupanAct_PoisonAttack@CRaklionSelupan@@QAEXXZ$0
__ehfuncinfo$?SelupanAct_PoisonAttack@CRaklionSelupan@@QAEXXZ DD 019930522H
	DD	01H
	DD	FLAT:__unwindtable$?SelupanAct_PoisonAttack@CRaklionSelupan@@QAEXXZ
	DD	2 DUP(00H)
	DD	2 DUP(00H)
	DD	00H
	DD	01H
xdata$x	ENDS
;	COMDAT xdata$x
xdata$x	SEGMENT
__unwindtable$?SelupanAct_FirstSkill@CRaklionSelupan@@QAEXXZ DD 0ffffffffH
	DD	FLAT:__unwindfunclet$?SelupanAct_FirstSkill@CRaklionSelupan@@QAEXXZ$0
__ehfuncinfo$?SelupanAct_FirstSkill@CRaklionSelupan@@QAEXXZ DD 019930522H
	DD	01H
	DD	FLAT:__unwindtable$?SelupanAct_FirstSkill@CRaklionSelupan@@QAEXXZ
	DD	2 DUP(00H)
	DD	2 DUP(00H)
	DD	00H
	DD	01H
xdata$x	ENDS
; Function compile flags: /Ogtp
;	COMDAT ??_EOBJECTSTRUCT@@QAEPAXI@Z
_TEXT	SEGMENT
__$EHRec$ = -12						; size = 12
___flags$ = 8						; size = 4
??_EOBJECTSTRUCT@@QAEPAXI@Z PROC			; OBJECTSTRUCT::`vector deleting destructor', COMDAT
; _this$ = ecx
  00000	55		 push	 ebp
  00001	8b ec		 mov	 ebp, esp
  00003	6a ff		 push	 -1
  00005	68 00 00 00 00	 push	 __ehhandler$??_EOBJECTSTRUCT@@QAEPAXI@Z
  0000a	64 a1 00 00 00
	00		 mov	 eax, DWORD PTR fs:0
  00010	50		 push	 eax
  00011	53		 push	 ebx
  00012	56		 push	 esi
  00013	57		 push	 edi
  00014	a1 00 00 00 00	 mov	 eax, DWORD PTR ___security_cookie
  00019	33 c5		 xor	 eax, ebp
  0001b	50		 push	 eax
  0001c	8d 45 f4	 lea	 eax, DWORD PTR __$EHRec$[ebp]
  0001f	64 a3 00 00 00
	00		 mov	 DWORD PTR fs:0, eax
  00025	8b f1		 mov	 esi, ecx
  00027	8b 5d 08	 mov	 ebx, DWORD PTR ___flags$[ebp]
  0002a	f6 c3 02	 test	 bl, 2
  0002d	74 44		 je	 SHORT $LN2@vector
  0002f	68 00 00 00 00	 push	 OFFSET ??1OBJECTSTRUCT@@QAE@XZ
  00034	ff 76 fc	 push	 DWORD PTR [esi-4]
  00037	8d 7e fc	 lea	 edi, DWORD PTR [esi-4]
  0003a	68 40 27 00 00	 push	 10048			; 00002740H
  0003f	56		 push	 esi
  00040	e8 00 00 00 00	 call	 ??_M@YGXPAXIIP6EX0@Z@Z
  00045	f6 c3 01	 test	 bl, 1
  00048	74 13		 je	 SHORT $LN3@vector
  0004a	69 0f 40 27 00
	00		 imul	 ecx, DWORD PTR [edi], 10048
  00050	83 c1 04	 add	 ecx, 4
  00053	51		 push	 ecx
  00054	57		 push	 edi
  00055	e8 00 00 00 00	 call	 ??_V@YAXPAXI@Z		; operator delete[]
  0005a	83 c4 08	 add	 esp, 8
$LN3@vector:
  0005d	8b c7		 mov	 eax, edi
  0005f	8b 4d f4	 mov	 ecx, DWORD PTR __$EHRec$[ebp]
  00062	64 89 0d 00 00
	00 00		 mov	 DWORD PTR fs:0, ecx
  00069	59		 pop	 ecx
  0006a	5f		 pop	 edi
  0006b	5e		 pop	 esi
  0006c	5b		 pop	 ebx
  0006d	8b e5		 mov	 esp, ebp
  0006f	5d		 pop	 ebp
  00070	c2 04 00	 ret	 4
$LN2@vector:
  00073	8d 8e ec 20 00
	00		 lea	 ecx, DWORD PTR [esi+8428]
  00079	e8 00 00 00 00	 call	 ??1TMonsterAIAgro@@UAE@XZ ; TMonsterAIAgro::~TMonsterAIAgro
  0007e	8d 8e 0c 16 00
	00		 lea	 ecx, DWORD PTR [esi+5644]
  00084	e8 00 00 00 00	 call	 ??1CSkillDelay@@UAE@XZ	; CSkillDelay::~CSkillDelay
  00089	f6 c3 01	 test	 bl, 1
  0008c	74 0e		 je	 SHORT $LN4@vector
  0008e	68 40 27 00 00	 push	 10048			; 00002740H
  00093	56		 push	 esi
  00094	e8 00 00 00 00	 call	 ??3@YAXPAXI@Z		; operator delete
  00099	83 c4 08	 add	 esp, 8
$LN4@vector:
  0009c	8b c6		 mov	 eax, esi
  0009e	8b 4d f4	 mov	 ecx, DWORD PTR __$EHRec$[ebp]
  000a1	64 89 0d 00 00
	00 00		 mov	 DWORD PTR fs:0, ecx
  000a8	59		 pop	 ecx
  000a9	5f		 pop	 edi
  000aa	5e		 pop	 esi
  000ab	5b		 pop	 ebx
  000ac	8b e5		 mov	 esp, ebp
  000ae	5d		 pop	 ebp
  000af	c2 04 00	 ret	 4
_TEXT	ENDS
;	COMDAT text$x
text$x	SEGMENT
__ehhandler$??_EOBJECTSTRUCT@@QAEPAXI@Z:
  00000	8b 54 24 08	 mov	 edx, DWORD PTR [esp+8]
  00004	8d 42 0c	 lea	 eax, DWORD PTR [edx+12]
  00007	8b 4a f0	 mov	 ecx, DWORD PTR [edx-16]
  0000a	33 c8		 xor	 ecx, eax
  0000c	e8 00 00 00 00	 call	 @__security_check_cookie@4
  00011	b8 00 00 00 00	 mov	 eax, OFFSET __ehfuncinfo$??_EOBJECTSTRUCT@@QAEPAXI@Z
  00016	e9 00 00 00 00	 jmp	 ___CxxFrameHandler3
text$x	ENDS
??_EOBJECTSTRUCT@@QAEPAXI@Z ENDP			; OBJECTSTRUCT::`vector deleting destructor'
; Function compile flags: /Ogtp
;	COMDAT ??1OBJECTSTRUCT@@QAE@XZ
_TEXT	SEGMENT
??1OBJECTSTRUCT@@QAE@XZ PROC				; OBJECTSTRUCT::~OBJECTSTRUCT, COMDAT
; _this$ = ecx
  00000	56		 push	 esi
  00001	8b f1		 mov	 esi, ecx
  00003	8d 8e ec 20 00
	00		 lea	 ecx, DWORD PTR [esi+8428]
  00009	e8 00 00 00 00	 call	 ??1TMonsterAIAgro@@UAE@XZ ; TMonsterAIAgro::~TMonsterAIAgro
  0000e	8d 8e 0c 16 00
	00		 lea	 ecx, DWORD PTR [esi+5644]
  00014	5e		 pop	 esi
  00015	e9 00 00 00 00	 jmp	 ??1CSkillDelay@@UAE@XZ	; CSkillDelay::~CSkillDelay
??1OBJECTSTRUCT@@QAE@XZ ENDP				; OBJECTSTRUCT::~OBJECTSTRUCT
_TEXT	ENDS
; Function compile flags: /Ogtp
;	COMDAT ??_GCRaklionSelupan@@UAEPAXI@Z
_TEXT	SEGMENT
___flags$ = 8						; size = 4
??_GCRaklionSelupan@@UAEPAXI@Z PROC			; CRaklionSelupan::`scalar deleting destructor', COMDAT
; _this$ = ecx
  00000	55		 push	 ebp
  00001	8b ec		 mov	 ebp, esp
  00003	56		 push	 esi
  00004	8b f1		 mov	 esi, ecx
  00006	e8 00 00 00 00	 call	 ??1CRaklionSelupan@@UAE@XZ ; CRaklionSelupan::~CRaklionSelupan
  0000b	f6 45 08 01	 test	 BYTE PTR ___flags$[ebp], 1
  0000f	74 0e		 je	 SHORT $LN4@scalar
  00011	68 a0 0c 00 00	 push	 3232			; 00000ca0H
  00016	56		 push	 esi
  00017	e8 00 00 00 00	 call	 ??3@YAXPAXI@Z		; operator delete
  0001c	83 c4 08	 add	 esp, 8
$LN4@scalar:
  0001f	8b c6		 mov	 eax, esi
  00021	5e		 pop	 esi
  00022	5d		 pop	 ebp
  00023	c2 04 00	 ret	 4
??_GCRaklionSelupan@@UAEPAXI@Z ENDP			; CRaklionSelupan::`scalar deleting destructor'
_TEXT	ENDS
; Function compile flags: /Ogtp
; File c:\users\michel\desktop\source\gameserver\source\raklionselupan.cpp
;	COMDAT ?DeleteSummonMonster@CRaklionSelupan@@QAEXXZ
_TEXT	SEGMENT
?DeleteSummonMonster@CRaklionSelupan@@QAEXXZ PROC	; CRaklionSelupan::DeleteSummonMonster, COMDAT
; _this$ = ecx

; 551  : {

  00000	53		 push	 ebx

; 552  : 	LPOBJ lpObj = NULL;
; 553  : 
; 554  : 	for(int i=0;i< OBJ_MAXMONSTER;i++)

  00001	bb c9 01 00 00	 mov	 ebx, 457		; 000001c9H
  00006	56		 push	 esi
  00007	57		 push	 edi
  00008	33 ff		 xor	 edi, edi
  0000a	8d 4b 01	 lea	 ecx, DWORD PTR [ebx+1]
  0000d	0f 1f 00	 npad	 3
$LL4@DeleteSumm:

; 555  : 	{
; 556  : 		lpObj = &gObj[i];

  00010	8b 35 00 00 00
	00		 mov	 esi, DWORD PTR ?gObj@@3PAUOBJECTSTRUCT@@A ; gObj
  00016	03 f7		 add	 esi, edi

; 557  : 
; 558  : 		if(lpObj->MapNumber != MAP_INDEX_RAKLIONBOSS)

  00018	80 be 23 01 00
	00 3a		 cmp	 BYTE PTR [esi+291], 58	; 0000003aH
  0001f	75 37		 jne	 SHORT $LN2@DeleteSumm

; 559  : 		{
; 560  : 			continue;
; 561  : 		}
; 562  : 			
; 563  : 		if(lpObj->Class == 457 || lpObj->Class == 458)

  00021	0f b7 86 90 00
	00 00		 movzx	 eax, WORD PTR [esi+144]
  00028	66 3b c3	 cmp	 ax, bx
  0002b	74 05		 je	 SHORT $LN7@DeleteSumm
  0002d	66 3b c1	 cmp	 ax, cx
  00030	75 26		 jne	 SHORT $LN2@DeleteSumm
$LN7@DeleteSumm:

; 564  : 		{
; 565  : 			gObjViewportListProtocolDestroy(lpObj);

  00032	56		 push	 esi
  00033	e8 00 00 00 00	 call	 ?gObjViewportListProtocolDestroy@@YAXPAUOBJECTSTRUCT@@@Z ; gObjViewportListProtocolDestroy

; 566  : 			gObjViewportClose(lpObj);

  00038	56		 push	 esi
  00039	e8 00 00 00 00	 call	 ?gObjViewportClose@@YAXPAUOBJECTSTRUCT@@@Z ; gObjViewportClose

; 567  : 			gObjDel(lpObj->m_Index);

  0003e	ff 36		 push	 DWORD PTR [esi]
  00040	e8 00 00 00 00	 call	 ?gObjDel@@YAFH@Z	; gObjDel
  00045	83 c4 0c	 add	 esp, 12			; 0000000cH

; 568  : 			lpObj->Live = FALSE; 

  00048	c6 46 51 00	 mov	 BYTE PTR [esi+81], 0

; 569  : 			lpObj->DieRegen = TRUE;

  0004c	c6 86 8a 05 00
	00 01		 mov	 BYTE PTR [esi+1418], 1
  00053	b9 ca 01 00 00	 mov	 ecx, 458		; 000001caH
$LN2@DeleteSumm:

; 552  : 	LPOBJ lpObj = NULL;
; 553  : 
; 554  : 	for(int i=0;i< OBJ_MAXMONSTER;i++)

  00058	81 c7 40 27 00
	00		 add	 edi, 10048		; 00002740H
  0005e	81 ff 00 dd 49
	06		 cmp	 edi, 105504000		; 0649dd00H
  00064	7c aa		 jl	 SHORT $LL4@DeleteSumm

; 570  : 		}
; 571  : 	}
; 572  : 
; 573  : 	LogAddC(5,"[ RAKLION ] [ DeleteSummonMonster ] Delete All SummonMonster");

  00066	68 00 00 00 00	 push	 OFFSET ??_C@_0DN@EPHHAGJF@?$FL?5RAKLION?5?$FN?5?$FL?5DeleteSummonMonste@
  0006b	6a 05		 push	 5
  0006d	ff 15 00 00 00
	00		 call	 DWORD PTR ?LogAddC@@3P6AXEPADZZA ; LogAddC
  00073	83 c4 08	 add	 esp, 8
  00076	5f		 pop	 edi
  00077	5e		 pop	 esi
  00078	5b		 pop	 ebx

; 574  : }

  00079	c3		 ret	 0
?DeleteSummonMonster@CRaklionSelupan@@QAEXXZ ENDP	; CRaklionSelupan::DeleteSummonMonster
_TEXT	ENDS
; Function compile flags: /Ogtp
; File c:\users\michel\desktop\source\gameserver\source\raklionselupan.cpp
;	COMDAT ?CreateSummonMonster@CRaklionSelupan@@QAEXXZ
_TEXT	SEGMENT
_loc3$1$ = -4						; size = 4
?CreateSummonMonster@CRaklionSelupan@@QAEXXZ PROC	; CRaklionSelupan::CreateSummonMonster, COMDAT
; _this$ = ecx

; 500  : {

  00000	55		 push	 ebp
  00001	8b ec		 mov	 ebp, esp
  00003	51		 push	 ecx
  00004	56		 push	 esi

; 501  : 	LPOBJ lpObj = NULL;//loc2 
; 502  : 	int loc3 = -1;
; 503  : 	int loc4 = -1;
; 504  : 
; 505  : 	for (int i = 0; i < OBJ_MAXMONSTER; ++i )

  00005	8b 35 00 00 00
	00		 mov	 esi, DWORD PTR ?gObj@@3PAUOBJECTSTRUCT@@A ; gObj
  0000b	ba c9 01 00 00	 mov	 edx, 457		; 000001c9H
  00010	57		 push	 edi
  00011	33 c0		 xor	 eax, eax
  00013	81 c6 90 00 00
	00		 add	 esi, 144		; 00000090H
  00019	8d 7a 01	 lea	 edi, DWORD PTR [edx+1]
  0001c	0f 1f 40 00	 npad	 4
$LL4@CreateSumm:

; 506  : 	{
; 507  : 		lpObj = &gObj[i];
; 508  : 
; 509  : 		if ( lpObj->MapNumber != MAP_INDEX_RAKLIONBOSS )

  00020	80 be 93 00 00
	00 3a		 cmp	 BYTE PTR [esi+147], 58	; 0000003aH
  00027	75 25		 jne	 SHORT $LN2@CreateSumm

; 510  : 		{
; 511  : 			continue;
; 512  : 		}
; 513  : 
; 514  : 		if(lpObj->Class == 457 || lpObj->Class == 458)

  00029	0f b7 0e	 movzx	 ecx, WORD PTR [esi]
  0002c	66 3b ca	 cmp	 cx, dx
  0002f	74 05		 je	 SHORT $LN7@CreateSumm
  00031	66 3b cf	 cmp	 cx, di
  00034	75 18		 jne	 SHORT $LN2@CreateSumm
$LN7@CreateSumm:

; 515  : 		{
; 516  : 			if(lpObj->Connected == 3 && lpObj->DieRegen == 0 && lpObj->Live == 1) 

  00036	83 be 74 ff ff
	ff 03		 cmp	 DWORD PTR [esi-140], 3
  0003d	75 23		 jne	 SHORT $LN8@CreateSumm
  0003f	80 be fa 04 00
	00 00		 cmp	 BYTE PTR [esi+1274], 0
  00046	75 1a		 jne	 SHORT $LN8@CreateSumm
  00048	80 7e c1 01	 cmp	 BYTE PTR [esi-63], 1
  0004c	75 14		 jne	 SHORT $LN8@CreateSumm
$LN2@CreateSumm:

; 501  : 	LPOBJ lpObj = NULL;//loc2 
; 502  : 	int loc3 = -1;
; 503  : 	int loc4 = -1;
; 504  : 
; 505  : 	for (int i = 0; i < OBJ_MAXMONSTER; ++i )

  0004e	40		 inc	 eax
  0004f	81 c6 40 27 00
	00		 add	 esi, 10048		; 00002740H
  00055	3d 04 29 00 00	 cmp	 eax, 10500		; 00002904H
  0005a	7c c4		 jl	 SHORT $LL4@CreateSumm
  0005c	5f		 pop	 edi
  0005d	5e		 pop	 esi

; 545  : 			return;
; 546  : 		}
; 547  : 	}
; 548  : }

  0005e	8b e5		 mov	 esp, ebp
  00060	5d		 pop	 ebp
  00061	c3		 ret	 0
$LN8@CreateSumm:

; 517  : 			{
; 518  : 				continue;
; 519  : 			}
; 520  : 
; 521  : 			loc4 = lpObj->Class;
; 522  : 			loc3 = lpObj->m_PosNum;

  00062	0f bf 8e 08 05
	00 00		 movsx	 ecx, WORD PTR [esi+1288]
  00069	53		 push	 ebx
  0006a	0f b7 1e	 movzx	 ebx, WORD PTR [esi]

; 523  : 			
; 524  : 			gObjCharZeroSet(i);

  0006d	50		 push	 eax
  0006e	89 4d fc	 mov	 DWORD PTR _loc3$1$[ebp], ecx
  00071	e8 00 00 00 00	 call	 ?gObjCharZeroSet@@YAXH@Z ; gObjCharZeroSet

; 525  : 			
; 526  : 			gObjDel(lpObj->m_Index);

  00076	ff b6 70 ff ff
	ff		 push	 DWORD PTR [esi-144]
  0007c	e8 00 00 00 00	 call	 ?gObjDel@@YAFH@Z	; gObjDel

; 527  : 
; 528  : 			lpObj->Class = 0;

  00081	33 c0		 xor	 eax, eax

; 529  : 
; 530  : 			int iMonsterIndex = gObjAddMonster(MAP_INDEX_RAKLIONBOSS);

  00083	6a 3a		 push	 58			; 0000003aH
  00085	66 89 06	 mov	 WORD PTR [esi], ax
  00088	e8 00 00 00 00	 call	 ?gObjAddMonster@@YAFH@Z	; gObjAddMonster
  0008d	0f bf f8	 movsx	 edi, ax
  00090	83 c4 0c	 add	 esp, 12			; 0000000cH

; 531  : 
; 532  : 			lpObj = &gObj[iMonsterIndex];

  00093	69 f7 40 27 00
	00		 imul	 esi, edi, 10048
  00099	03 35 00 00 00
	00		 add	 esi, DWORD PTR ?gObj@@3PAUOBJECTSTRUCT@@A ; gObj

; 533  : 
; 534  : 			if (iMonsterIndex >= 0)

  0009f	85 ff		 test	 edi, edi
  000a1	78 44		 js	 SHORT $LN9@CreateSumm

; 535  : 			{
; 536  : 				gObjSetPosMonster(iMonsterIndex, loc3);

  000a3	ff 75 fc	 push	 DWORD PTR _loc3$1$[ebp]
  000a6	57		 push	 edi
  000a7	e8 00 00 00 00	 call	 ?gObjSetPosMonster@@YAHHH@Z ; gObjSetPosMonster

; 537  : 				gObjSetMonster(iMonsterIndex, loc4); 

  000ac	53		 push	 ebx
  000ad	57		 push	 edi
  000ae	e8 00 00 00 00	 call	 ?gObjSetMonster@@YAHHH@Z ; gObjSetMonster

; 538  : 				lpObj->Live = 1;
; 539  : 				lpObj->DieRegen = 0;
; 540  : 				LogAddTD("[RAKLION] Summoned Monster : %s => X-(%d) Y-(%d)",lpObj->Name,lpObj->X,lpObj->Y);

  000b3	0f b6 86 21 01
	00 00		 movzx	 eax, BYTE PTR [esi+289]
  000ba	50		 push	 eax
  000bb	0f b6 86 20 01
	00 00		 movzx	 eax, BYTE PTR [esi+288]
  000c2	50		 push	 eax
  000c3	8d 46 5d	 lea	 eax, DWORD PTR [esi+93]
  000c6	c6 46 51 01	 mov	 BYTE PTR [esi+81], 1
  000ca	50		 push	 eax
  000cb	68 00 00 00 00	 push	 OFFSET ??_C@_0DB@NHKFKAEF@?$FLRAKLION?$FN?5Summoned?5Monster?5?3?5?$CFs?5@
  000d0	c6 86 8a 05 00
	00 00		 mov	 BYTE PTR [esi+1418], 0
  000d7	ff 15 00 00 00
	00		 call	 DWORD PTR ?LogAddTD@@3P6AXPADZZA ; LogAddTD
  000dd	83 c4 20	 add	 esp, 32			; 00000020H
  000e0	5b		 pop	 ebx
  000e1	5f		 pop	 edi
  000e2	5e		 pop	 esi

; 545  : 			return;
; 546  : 		}
; 547  : 	}
; 548  : }

  000e3	8b e5		 mov	 esp, ebp
  000e5	5d		 pop	 ebp
  000e6	c3		 ret	 0
$LN9@CreateSumm:

; 541  : 				return;
; 542  : 			}
; 543  : 
; 544  : 			LogAddTD("[RAKLION] CreateSelupan error");	

  000e7	68 00 00 00 00	 push	 OFFSET ??_C@_0BO@MCDHLBHK@?$FLRAKLION?$FN?5CreateSelupan?5error?$AA@
  000ec	ff 15 00 00 00
	00		 call	 DWORD PTR ?LogAddTD@@3P6AXPADZZA ; LogAddTD
  000f2	83 c4 04	 add	 esp, 4
  000f5	5b		 pop	 ebx
  000f6	5f		 pop	 edi
  000f7	5e		 pop	 esi

; 545  : 			return;
; 546  : 		}
; 547  : 	}
; 548  : }

  000f8	8b e5		 mov	 esp, ebp
  000fa	5d		 pop	 ebp
  000fb	c3		 ret	 0
?CreateSummonMonster@CRaklionSelupan@@QAEXXZ ENDP	; CRaklionSelupan::CreateSummonMonster
_TEXT	ENDS
; Function compile flags: /Ogtp
; File c:\users\michel\desktop\source\gameserver\source\raklionselupan.cpp
;	COMDAT ?GetSelupanObjIndex@CRaklionSelupan@@QAEHXZ
_TEXT	SEGMENT
?GetSelupanObjIndex@CRaklionSelupan@@QAEHXZ PROC	; CRaklionSelupan::GetSelupanObjIndex, COMDAT
; _this$ = ecx

; 493  : {

  00000	56		 push	 esi
  00001	8b f1		 mov	 esi, ecx

; 494  : 	this->InitSelupanObjIndex();

  00003	e8 00 00 00 00	 call	 ?InitSelupanObjIndex@CRaklionSelupan@@QAEXXZ ; CRaklionSelupan::InitSelupanObjIndex

; 495  : 
; 496  : 	return this->m_iSelupanObjIndex;

  00008	8b 46 04	 mov	 eax, DWORD PTR [esi+4]
  0000b	5e		 pop	 esi

; 497  : }

  0000c	c3		 ret	 0
?GetSelupanObjIndex@CRaklionSelupan@@QAEHXZ ENDP	; CRaklionSelupan::GetSelupanObjIndex
_TEXT	ENDS
; Function compile flags: /Ogtp
; File c:\users\michel\desktop\source\gameserver\source\raklionselupan.cpp
;	COMDAT ?SetSelupanObjIndex@CRaklionSelupan@@QAEXH@Z
_TEXT	SEGMENT
_arg1$ = 8						; size = 4
?SetSelupanObjIndex@CRaklionSelupan@@QAEXH@Z PROC	; CRaklionSelupan::SetSelupanObjIndex, COMDAT
; _this$ = ecx

; 482  : {

  00000	55		 push	 ebp
  00001	8b ec		 mov	 ebp, esp

; 483  : 	if ( arg1 < 0 || arg1 > OBJ_MAXMONSTER ) 

  00003	8b 45 08	 mov	 eax, DWORD PTR _arg1$[ebp]
  00006	3d 04 29 00 00	 cmp	 eax, 10500		; 00002904H
  0000b	77 07		 ja	 SHORT $LN3@SetSelupan

; 486  : 		return;
; 487  : 	}
; 488  : 
; 489  : 	this->m_iSelupanObjIndex = arg1;

  0000d	89 41 04	 mov	 DWORD PTR [ecx+4], eax

; 490  : }

  00010	5d		 pop	 ebp
  00011	c2 04 00	 ret	 4
$LN3@SetSelupan:

; 484  : 	{
; 485  : 		LogAddC(2,"[ RAKLION ][ SetSelupanObjIndex ] SelupanObjIndex error : Index(%d)", arg1);

  00014	50		 push	 eax
  00015	68 00 00 00 00	 push	 OFFSET ??_C@_0EE@JEAHABCI@?$FL?5RAKLION?5?$FN?$FL?5SetSelupanObjIndex?5@
  0001a	6a 02		 push	 2
  0001c	ff 15 00 00 00
	00		 call	 DWORD PTR ?LogAddC@@3P6AXEPADZZA ; LogAddC
  00022	83 c4 0c	 add	 esp, 12			; 0000000cH

; 490  : }

  00025	5d		 pop	 ebp
  00026	c2 04 00	 ret	 4
?SetSelupanObjIndex@CRaklionSelupan@@QAEXH@Z ENDP	; CRaklionSelupan::SetSelupanObjIndex
_TEXT	ENDS
; Function compile flags: /Ogtp
; File c:\users\michel\desktop\source\gameserver\source\raklionselupan.cpp
;	COMDAT ?SetBossAttackDamage@CRaklionSelupan@@QAEXHH@Z
_TEXT	SEGMENT
_DamageMin$ = 8						; size = 4
_DamageMax$ = 12					; size = 4
?SetBossAttackDamage@CRaklionSelupan@@QAEXHH@Z PROC	; CRaklionSelupan::SetBossAttackDamage, COMDAT
; _this$ = ecx

; 476  : {

  00000	55		 push	 ebp
  00001	8b ec		 mov	 ebp, esp

; 477  : 	this->m_iBossAttackMin = DamageMin;

  00003	8b 45 08	 mov	 eax, DWORD PTR _DamageMin$[ebp]
  00006	89 81 98 0c 00
	00		 mov	 DWORD PTR [ecx+3224], eax

; 478  : 	this->m_iBossAttackMax = DamageMax;

  0000c	8b 45 0c	 mov	 eax, DWORD PTR _DamageMax$[ebp]
  0000f	89 81 9c 0c 00
	00		 mov	 DWORD PTR [ecx+3228], eax

; 479  : }

  00015	5d		 pop	 ebp
  00016	c2 08 00	 ret	 8
?SetBossAttackDamage@CRaklionSelupan@@QAEXHH@Z ENDP	; CRaklionSelupan::SetBossAttackDamage
_TEXT	ENDS
; Function compile flags: /Ogtp
; File c:\users\michel\desktop\source\gameserver\source\raklionselupan.cpp
;	COMDAT ?GetBerserkIndex@CRaklionSelupan@@QAEHXZ
_TEXT	SEGMENT
?GetBerserkIndex@CRaklionSelupan@@QAEHXZ PROC		; CRaklionSelupan::GetBerserkIndex, COMDAT
; _this$ = ecx

; 472  : 	return this->m_iBerserkIndex;

  00000	8b 81 94 0c 00
	00		 mov	 eax, DWORD PTR [ecx+3220]

; 473  : }

  00006	c3		 ret	 0
?GetBerserkIndex@CRaklionSelupan@@QAEHXZ ENDP		; CRaklionSelupan::GetBerserkIndex
_TEXT	ENDS
; Function compile flags: /Ogtp
; File c:\users\michel\desktop\source\gameserver\source\raklionselupan.cpp
;	COMDAT ?GetSelupanSkillDelay@CRaklionSelupan@@QAEHXZ
_TEXT	SEGMENT
?GetSelupanSkillDelay@CRaklionSelupan@@QAEHXZ PROC	; CRaklionSelupan::GetSelupanSkillDelay, COMDAT
; _this$ = ecx

; 461  : 	if ( this->m_iSelupanSkillDelay < 0 || this->m_iSelupanSkillDelay > 50000 )

  00000	8b 81 90 0c 00
	00		 mov	 eax, DWORD PTR [ecx+3216]
  00006	85 c0		 test	 eax, eax
  00008	78 07		 js	 SHORT $LN3@GetSelupan
  0000a	3d 50 c3 00 00	 cmp	 eax, 50000		; 0000c350H
  0000f	7e 14		 jle	 SHORT $LN1@GetSelupan
$LN3@GetSelupan:

; 462  : 	{
; 463  : 		LogAddC(2,"[ RAKLION ][ GetSelupanSkillDelay ] SkillDelay error : Delay(%d)",this->m_iSelupanSkillDelay);

  00011	50		 push	 eax
  00012	68 00 00 00 00	 push	 OFFSET ??_C@_0EB@CEPDAMEN@?$FL?5RAKLION?5?$FN?$FL?5GetSelupanSkillDela@
  00017	6a 02		 push	 2
  00019	ff 15 00 00 00
	00		 call	 DWORD PTR ?LogAddC@@3P6AXEPADZZA ; LogAddC
  0001f	83 c4 0c	 add	 esp, 12			; 0000000cH

; 464  : 		return -1;

  00022	83 c8 ff	 or	 eax, -1
$LN1@GetSelupan:

; 465  : 	}
; 466  : 
; 467  : 	return this->m_iSelupanSkillDelay;
; 468  : }

  00025	c3		 ret	 0
?GetSelupanSkillDelay@CRaklionSelupan@@QAEHXZ ENDP	; CRaklionSelupan::GetSelupanSkillDelay
_TEXT	ENDS
; Function compile flags: /Ogtp
; File c:\users\michel\desktop\source\gameserver\source\raklionselupan.cpp
;	COMDAT ?SetSelupanSkillDelay@CRaklionSelupan@@QAEXH@Z
_TEXT	SEGMENT
_SkillDelay$ = 8					; size = 4
?SetSelupanSkillDelay@CRaklionSelupan@@QAEXH@Z PROC	; CRaklionSelupan::SetSelupanSkillDelay, COMDAT
; _this$ = ecx

; 449  : {

  00000	55		 push	 ebp
  00001	8b ec		 mov	 ebp, esp

; 450  : 	if ( SkillDelay < 0 || SkillDelay > 50000 )

  00003	8b 45 08	 mov	 eax, DWORD PTR _SkillDelay$[ebp]
  00006	3d 50 c3 00 00	 cmp	 eax, 50000		; 0000c350H
  0000b	77 0a		 ja	 SHORT $LN3@SetSelupan

; 453  : 		return;
; 454  : 	}
; 455  : 	
; 456  : 	this->m_iSelupanSkillDelay = SkillDelay;

  0000d	89 81 90 0c 00
	00		 mov	 DWORD PTR [ecx+3216], eax

; 457  : }

  00013	5d		 pop	 ebp
  00014	c2 04 00	 ret	 4
$LN3@SetSelupan:

; 451  : 	{
; 452  : 		LogAddC(2,"[ RAKLION ][ SetSelupanSkillDelay ] SkillDelay error : Delay(%d)",this->m_iSelupanSkillDelay);

  00017	ff b1 90 0c 00
	00		 push	 DWORD PTR [ecx+3216]
  0001d	68 00 00 00 00	 push	 OFFSET ??_C@_0EB@HCMLCFKN@?$FL?5RAKLION?5?$FN?$FL?5SetSelupanSkillDela@
  00022	6a 02		 push	 2
  00024	ff 15 00 00 00
	00		 call	 DWORD PTR ?LogAddC@@3P6AXEPADZZA ; LogAddC
  0002a	83 c4 0c	 add	 esp, 12			; 0000000cH

; 457  : }

  0002d	5d		 pop	 ebp
  0002e	c2 04 00	 ret	 4
?SetSelupanSkillDelay@CRaklionSelupan@@QAEXH@Z ENDP	; CRaklionSelupan::SetSelupanSkillDelay
_TEXT	ENDS
; Function compile flags: /Ogtp
; File c:\users\michel\desktop\source\gameserver\source\raklionselupan.cpp
;	COMDAT ?GetSelupanTargetIndex@CRaklionSelupan@@QAEHXZ
_TEXT	SEGMENT
?GetSelupanTargetIndex@CRaklionSelupan@@QAEHXZ PROC	; CRaklionSelupan::GetSelupanTargetIndex, COMDAT
; _this$ = ecx

; 435  : 	int iSelupanIndex = this->GetSelupanObjIndex();

  00000	e8 00 00 00 00	 call	 ?GetSelupanObjIndex@CRaklionSelupan@@QAEHXZ ; CRaklionSelupan::GetSelupanObjIndex

; 436  : 
; 437  : 	LPOBJ lpObj = &gObj[iSelupanIndex];

  00005	69 c8 40 27 00
	00		 imul	 ecx, eax, 10048
  0000b	03 0d 00 00 00
	00		 add	 ecx, DWORD PTR ?gObj@@3PAUOBJECTSTRUCT@@A ; gObj

; 438  : 
; 439  : 	
; 440  : 	if ( lpObj->TargetNumber >= 0 && lpObj->TargetNumber < OBJMAX ) 

  00011	0f b7 81 38 06
	00 00		 movzx	 eax, WORD PTR [ecx+1592]
  00018	66 85 c0	 test	 ax, ax
  0001b	78 0c		 js	 SHORT $LN2@GetSelupan
  0001d	ba ec 2c 00 00	 mov	 edx, 11500		; 00002cecH
  00022	66 3b c2	 cmp	 ax, dx
  00025	7d 02		 jge	 SHORT $LN2@GetSelupan

; 441  : 	{
; 442  : 		return lpObj->TargetNumber;

  00027	98		 cwde

; 446  : }

  00028	c3		 ret	 0
$LN2@GetSelupan:

; 443  : 	}
; 444  : 
; 445  : 	return gObjMonsterSearchEnemy(lpObj,lpObj->Type);

  00029	0f b6 41 50	 movzx	 eax, BYTE PTR [ecx+80]
  0002d	50		 push	 eax
  0002e	51		 push	 ecx
  0002f	e8 00 00 00 00	 call	 ?gObjMonsterSearchEnemy@@YAHPAUOBJECTSTRUCT@@E@Z ; gObjMonsterSearchEnemy
  00034	83 c4 08	 add	 esp, 8

; 446  : }

  00037	c3		 ret	 0
?GetSelupanTargetIndex@CRaklionSelupan@@QAEHXZ ENDP	; CRaklionSelupan::GetSelupanTargetIndex
_TEXT	ENDS
; Function compile flags: /Ogtp
; File c:\users\michel\desktop\source\gameserver\source\raklionselupan.cpp
;	COMDAT ?DeleteSelupan@CRaklionSelupan@@QAEXXZ
_TEXT	SEGMENT
?DeleteSelupan@CRaklionSelupan@@QAEXXZ PROC		; CRaklionSelupan::DeleteSelupan, COMDAT
; _this$ = ecx

; 426  : {

  00000	56		 push	 esi
  00001	57		 push	 edi

; 427  : 	int aIndex = this->GetSelupanObjIndex();

  00002	e8 00 00 00 00	 call	 ?GetSelupanObjIndex@CRaklionSelupan@@QAEHXZ ; CRaklionSelupan::GetSelupanObjIndex

; 428  : 	gObjViewportListProtocolDestroy(&gObj[aIndex]);

  00007	8b 0d 00 00 00
	00		 mov	 ecx, DWORD PTR ?gObj@@3PAUOBJECTSTRUCT@@A ; gObj
  0000d	8b f8		 mov	 edi, eax
  0000f	69 f7 40 27 00
	00		 imul	 esi, edi, 10048
  00015	03 ce		 add	 ecx, esi
  00017	51		 push	 ecx
  00018	e8 00 00 00 00	 call	 ?gObjViewportListProtocolDestroy@@YAXPAUOBJECTSTRUCT@@@Z ; gObjViewportListProtocolDestroy

; 429  : 	gObjViewportClose(&gObj[aIndex]);

  0001d	8b 0d 00 00 00
	00		 mov	 ecx, DWORD PTR ?gObj@@3PAUOBJECTSTRUCT@@A ; gObj
  00023	03 ce		 add	 ecx, esi
  00025	51		 push	 ecx
  00026	e8 00 00 00 00	 call	 ?gObjViewportClose@@YAXPAUOBJECTSTRUCT@@@Z ; gObjViewportClose

; 430  : 	gObjDel(aIndex);

  0002b	57		 push	 edi
  0002c	e8 00 00 00 00	 call	 ?gObjDel@@YAFH@Z	; gObjDel
  00031	83 c4 0c	 add	 esp, 12			; 0000000cH
  00034	5f		 pop	 edi
  00035	5e		 pop	 esi

; 431  : }

  00036	c3		 ret	 0
?DeleteSelupan@CRaklionSelupan@@QAEXXZ ENDP		; CRaklionSelupan::DeleteSelupan
_TEXT	ENDS
; Function compile flags: /Ogtp
; File c:\users\michel\desktop\source\gameserver\source\raklionselupan.cpp
;	COMDAT ?CreateSelupan@CRaklionSelupan@@QAEHXZ
_TEXT	SEGMENT
_this$1$ = -4						; size = 4
?CreateSelupan@CRaklionSelupan@@QAEHXZ PROC		; CRaklionSelupan::CreateSelupan, COMDAT
; _this$ = ecx

; 344  : {

  00000	55		 push	 ebp
  00001	8b ec		 mov	 ebp, esp
  00003	51		 push	 ecx
  00004	56		 push	 esi
  00005	57		 push	 edi

; 346  : 
; 347  : 	for ( int n=0;n<gMSetBase.m_Count;n++)

  00006	8b 3d 60 34 03
	00		 mov	 edi, DWORD PTR ?gMSetBase@@3VCMonsterSetBase@@A+210016
  0000c	83 ce ff	 or	 esi, -1
  0000f	33 c0		 xor	 eax, eax
  00011	89 4d fc	 mov	 DWORD PTR _this$1$[ebp], ecx
  00014	85 ff		 test	 edi, edi
  00016	7e 18		 jle	 SHORT $LN3@CreateSelu

; 345  : 	int m_Type = -1;

  00018	ba 06 00 00 00	 mov	 edx, OFFSET ?gMSetBase@@3VCMonsterSetBase@@A+6
  0001d	b9 cb 01 00 00	 mov	 ecx, 459		; 000001cbH
$LL34@CreateSelu:

; 348  : 	{
; 349  : 		if( gMSetBase.m_Mp[n].m_Type == 459 )

  00022	66 39 0a	 cmp	 WORD PTR [edx], cx
  00025	8d 52 14	 lea	 edx, DWORD PTR [edx+20]
  00028	0f 44 f0	 cmove	 esi, eax
  0002b	40		 inc	 eax
  0002c	3b c7		 cmp	 eax, edi
  0002e	7c f2		 jl	 SHORT $LL34@CreateSelu
$LN3@CreateSelu:

; 350  : 		{
; 351  : 			m_Type = n;
; 352  : 		}
; 353  : 	}
; 354  : 
; 355  : 	LPOBJ lpObj = NULL;
; 356  : 	int result = 0;
; 357  : 
; 358  : 
; 359  : 	result = gObjAddMonster(MAP_INDEX_RAKLIONBOSS);

  00030	6a 3a		 push	 58			; 0000003aH
  00032	e8 00 00 00 00	 call	 ?gObjAddMonster@@YAFH@Z	; gObjAddMonster
  00037	0f bf f8	 movsx	 edi, ax
  0003a	83 c4 04	 add	 esp, 4

; 360  : 
; 361  : 	if ( result < 0 )

  0003d	85 ff		 test	 edi, edi
  0003f	79 16		 jns	 SHORT $LN18@CreateSelu

; 362  : 	{
; 363  : 		LogAddTD("[RAKLION] CreateSelupan error");

  00041	68 00 00 00 00	 push	 OFFSET ??_C@_0BO@MCDHLBHK@?$FLRAKLION?$FN?5CreateSelupan?5error?$AA@
  00046	ff 15 00 00 00
	00		 call	 DWORD PTR ?LogAddTD@@3P6AXPADZZA ; LogAddTD
  0004c	83 c4 04	 add	 esp, 4

; 364  : 		return FALSE;

  0004f	33 c0		 xor	 eax, eax
  00051	5f		 pop	 edi
  00052	5e		 pop	 esi

; 423  : }

  00053	8b e5		 mov	 esp, ebp
  00055	5d		 pop	 ebp
  00056	c3		 ret	 0
$LN18@CreateSelu:
  00057	53		 push	 ebx

; 365  : 	}
; 366  : 	
; 367  : 	lpObj = &gObj[result];

  00058	69 df 40 27 00
	00		 imul	 ebx, edi, 10048

; 368  : 	
; 369  : 	gObjSetPosMonster(result, m_Type);

  0005e	56		 push	 esi
  0005f	57		 push	 edi
  00060	03 1d 00 00 00
	00		 add	 ebx, DWORD PTR ?gObj@@3PAUOBJECTSTRUCT@@A ; gObj
  00066	e8 00 00 00 00	 call	 ?gObjSetPosMonster@@YAHHH@Z ; gObjSetPosMonster

; 370  : 	
; 371  : 	gObjSetMonster(result, 459); 

  0006b	68 cb 01 00 00	 push	 459			; 000001cbH
  00070	57		 push	 edi
  00071	e8 00 00 00 00	 call	 ?gObjSetMonster@@YAHHH@Z ; gObjSetMonster

; 372  : 	
; 373  : 	LogAddTD("[RAKLION] Create Selupan : X (%d) / Y(%d)",lpObj->X,lpObj->Y);

  00076	0f b6 83 21 01
	00 00		 movzx	 eax, BYTE PTR [ebx+289]
  0007d	50		 push	 eax
  0007e	0f b6 83 20 01
	00 00		 movzx	 eax, BYTE PTR [ebx+288]
  00085	50		 push	 eax
  00086	68 00 00 00 00	 push	 OFFSET ??_C@_0CK@FKMFPLA@?$FLRAKLION?$FN?5Create?5Selupan?5?3?5X?5?$CI?$CFd@
  0008b	ff 15 00 00 00
	00		 call	 DWORD PTR ?LogAddTD@@3P6AXPADZZA ; LogAddTD
  00091	83 c4 1c	 add	 esp, 28			; 0000001cH

; 374  : 
; 375  : 	LPOBJ lpTargetObj = NULL;
; 376  : 
; 377  : 	for (int n=0;n<OBJMAX;n++)

  00094	33 ff		 xor	 edi, edi
  00096	33 f6		 xor	 esi, esi
  00098	0f 1f 84 00 00
	00 00 00	 npad	 8
$LL7@CreateSelu:

; 378  : 	{
; 379  : 		lpTargetObj = &gObj[n];
; 380  : 
; 381  : 		if(lpTargetObj->MapNumber == MAP_INDEX_RAKLIONBOSS)

  000a0	a1 00 00 00 00	 mov	 eax, DWORD PTR ?gObj@@3PAUOBJECTSTRUCT@@A ; gObj
  000a5	80 bc 06 23 01
	00 00 3a	 cmp	 BYTE PTR [esi+eax+291], 58 ; 0000003aH
  000ad	75 09		 jne	 SHORT $LN5@CreateSelu

; 382  : 		{
; 383  : 			gObjStateSetCreate(n);

  000af	57		 push	 edi
  000b0	e8 00 00 00 00	 call	 ?gObjStateSetCreate@@YAXH@Z ; gObjStateSetCreate
  000b5	83 c4 04	 add	 esp, 4
$LN5@CreateSelu:

; 374  : 
; 375  : 	LPOBJ lpTargetObj = NULL;
; 376  : 
; 377  : 	for (int n=0;n<OBJMAX;n++)

  000b8	81 c6 40 27 00
	00		 add	 esi, 10048		; 00002740H
  000be	47		 inc	 edi
  000bf	81 fe 00 2f e3
	06		 cmp	 esi, 115552000		; 06e32f00H
  000c5	7c d9		 jl	 SHORT $LL7@CreateSelu

; 384  : 		}
; 385  : 	}
; 386  : 
; 387  : 	for (int n=0;n<OBJMAX;n++)

  000c7	33 ff		 xor	 edi, edi
  000c9	33 f6		 xor	 esi, esi
  000cb	0f 1f 44 00 00	 npad	 5
$LL10@CreateSelu:

; 388  : 	{
; 389  : 		lpTargetObj = &gObj[n];
; 390  : 
; 391  : 		if(lpTargetObj->MapNumber == MAP_INDEX_RAKLIONBOSS)

  000d0	a1 00 00 00 00	 mov	 eax, DWORD PTR ?gObj@@3PAUOBJECTSTRUCT@@A ; gObj
  000d5	80 bc 06 23 01
	00 00 3a	 cmp	 BYTE PTR [esi+eax+291], 58 ; 0000003aH
  000dd	75 09		 jne	 SHORT $LN8@CreateSelu

; 392  : 		{
; 393  : 			gObjViewportListDestroy(n);

  000df	57		 push	 edi
  000e0	e8 00 00 00 00	 call	 ?gObjViewportListDestroy@@YAXF@Z ; gObjViewportListDestroy
  000e5	83 c4 04	 add	 esp, 4
$LN8@CreateSelu:

; 384  : 		}
; 385  : 	}
; 386  : 
; 387  : 	for (int n=0;n<OBJMAX;n++)

  000e8	81 c6 40 27 00
	00		 add	 esi, 10048		; 00002740H
  000ee	47		 inc	 edi
  000ef	81 fe 00 2f e3
	06		 cmp	 esi, 115552000		; 06e32f00H
  000f5	7c d9		 jl	 SHORT $LL10@CreateSelu

; 394  : 		}
; 395  : 	}
; 396  : 	
; 397  : 	for (int n=0;n<OBJMAX;n++)

  000f7	33 ff		 xor	 edi, edi
  000f9	33 f6		 xor	 esi, esi
  000fb	0f 1f 44 00 00	 npad	 5
$LL13@CreateSelu:

; 398  : 	{
; 399  : 		lpTargetObj = &gObj[n];
; 400  : 
; 401  : 		if(lpTargetObj->MapNumber == MAP_INDEX_RAKLIONBOSS)

  00100	a1 00 00 00 00	 mov	 eax, DWORD PTR ?gObj@@3PAUOBJECTSTRUCT@@A ; gObj
  00105	80 bc 06 23 01
	00 00 3a	 cmp	 BYTE PTR [esi+eax+291], 58 ; 0000003aH
  0010d	75 09		 jne	 SHORT $LN11@CreateSelu

; 402  : 		{
; 403  : 			gObjViewportListCreate(n);

  0010f	57		 push	 edi
  00110	e8 00 00 00 00	 call	 ?gObjViewportListCreate@@YAXF@Z ; gObjViewportListCreate
  00115	83 c4 04	 add	 esp, 4
$LN11@CreateSelu:

; 394  : 		}
; 395  : 	}
; 396  : 	
; 397  : 	for (int n=0;n<OBJMAX;n++)

  00118	81 c6 40 27 00
	00		 add	 esi, 10048		; 00002740H
  0011e	47		 inc	 edi
  0011f	81 fe 00 2f e3
	06		 cmp	 esi, 115552000		; 06e32f00H
  00125	7c d9		 jl	 SHORT $LL13@CreateSelu

; 404  : 		}
; 405  : 	}
; 406  : 	
; 407  : 	for (int n=0;n<OBJMAX;n++)

  00127	33 ff		 xor	 edi, edi
  00129	33 f6		 xor	 esi, esi
  0012b	0f 1f 44 00 00	 npad	 5
$LL16@CreateSelu:

; 408  : 	{
; 409  : 		lpTargetObj = &gObj[n];
; 410  : 
; 411  : 		if(lpTargetObj->MapNumber == MAP_INDEX_RAKLIONBOSS)

  00130	a1 00 00 00 00	 mov	 eax, DWORD PTR ?gObj@@3PAUOBJECTSTRUCT@@A ; gObj
  00135	80 bc 06 23 01
	00 00 3a	 cmp	 BYTE PTR [esi+eax+291], 58 ; 0000003aH
  0013d	75 09		 jne	 SHORT $LN14@CreateSelu

; 412  : 		{
; 413  : 			gObjViewportListProtocol(n);

  0013f	57		 push	 edi
  00140	e8 00 00 00 00	 call	 ?gObjViewportListProtocol@@YAXF@Z ; gObjViewportListProtocol
  00145	83 c4 04	 add	 esp, 4
$LN14@CreateSelu:

; 404  : 		}
; 405  : 	}
; 406  : 	
; 407  : 	for (int n=0;n<OBJMAX;n++)

  00148	81 c6 40 27 00
	00		 add	 esi, 10048		; 00002740H
  0014e	47		 inc	 edi
  0014f	81 fe 00 2f e3
	06		 cmp	 esi, 115552000		; 06e32f00H
  00155	7c d9		 jl	 SHORT $LL16@CreateSelu

; 414  : 		}
; 415  : 	}
; 416  : 
; 417  : 	gObjSetState();

  00157	e8 00 00 00 00	 call	 ?gObjSetState@@YAXXZ	; gObjSetState

; 418  : 
; 419  : 	this->m_iBossAttackMin = lpObj->m_AttackDamageMin;

  0015c	8b 4d fc	 mov	 ecx, DWORD PTR _this$1$[ebp]
  0015f	8b 83 40 06 00
	00		 mov	 eax, DWORD PTR [ebx+1600]
  00165	89 81 98 0c 00
	00		 mov	 DWORD PTR [ecx+3224], eax

; 420  : 	this->m_iBossAttackMax = lpObj->m_AttackDamageMax;

  0016b	8b 83 44 06 00
	00		 mov	 eax, DWORD PTR [ebx+1604]
  00171	5b		 pop	 ebx
  00172	5f		 pop	 edi
  00173	89 81 9c 0c 00
	00		 mov	 DWORD PTR [ecx+3228], eax

; 421  : 
; 422  : 	return TRUE;

  00179	b8 01 00 00 00	 mov	 eax, 1
  0017e	5e		 pop	 esi

; 423  : }

  0017f	8b e5		 mov	 esp, ebp
  00181	5d		 pop	 ebp
  00182	c3		 ret	 0
?CreateSelupan@CRaklionSelupan@@QAEHXZ ENDP		; CRaklionSelupan::CreateSelupan
_TEXT	ENDS
; Function compile flags: /Ogtp
; File c:\users\michel\desktop\source\gameserver\source\raklionselupan.cpp
;	COMDAT ?InitSelupanObjIndex@CRaklionSelupan@@QAEXXZ
_TEXT	SEGMENT
?InitSelupanObjIndex@CRaklionSelupan@@QAEXXZ PROC	; CRaklionSelupan::InitSelupanObjIndex, COMDAT
; _this$ = ecx

; 325  : {

  00000	56		 push	 esi

; 326  : 	for(int i = 0;i < OBJ_MAXMONSTER;i++)

  00001	33 f6		 xor	 esi, esi
  00003	57		 push	 edi
  00004	bf cb 01 00 00	 mov	 edi, 459		; 000001cbH
  00009	8d 56 02	 lea	 edx, DWORD PTR [esi+2]
  0000c	0f 1f 40 00	 npad	 4
$LL4@InitSelupa:

; 327  : 	{
; 328  : 		if( gObj[i].Connected == PLAYER_PLAYING )

  00010	a1 00 00 00 00	 mov	 eax, DWORD PTR ?gObj@@3PAUOBJECTSTRUCT@@A ; gObj
  00015	83 7c 06 04 03	 cmp	 DWORD PTR [esi+eax+4], 3
  0001a	75 10		 jne	 SHORT $LN2@InitSelupa

; 329  : 		{
; 330  : 			if( gObj[i].Class == 459)

  0001c	66 39 bc 06 90
	00 00 00	 cmp	 WORD PTR [esi+eax+144], di
  00024	75 06		 jne	 SHORT $LN2@InitSelupa

; 331  : 			{
; 332  : 				this->m_iSelupanObjIndex = i;

  00026	8d 42 fe	 lea	 eax, DWORD PTR [edx-2]
  00029	89 41 04	 mov	 DWORD PTR [ecx+4], eax
$LN2@InitSelupa:

; 327  : 	{
; 328  : 		if( gObj[i].Connected == PLAYER_PLAYING )

  0002c	a1 00 00 00 00	 mov	 eax, DWORD PTR ?gObj@@3PAUOBJECTSTRUCT@@A ; gObj
  00031	83 bc 06 44 27
	00 00 03	 cmp	 DWORD PTR [esi+eax+10052], 3
  00039	75 10		 jne	 SHORT $LN13@InitSelupa

; 329  : 		{
; 330  : 			if( gObj[i].Class == 459)

  0003b	66 39 bc 06 d0
	27 00 00	 cmp	 WORD PTR [esi+eax+10192], di
  00043	75 06		 jne	 SHORT $LN13@InitSelupa

; 331  : 			{
; 332  : 				this->m_iSelupanObjIndex = i;

  00045	8d 42 ff	 lea	 eax, DWORD PTR [edx-1]
  00048	89 41 04	 mov	 DWORD PTR [ecx+4], eax
$LN13@InitSelupa:

; 327  : 	{
; 328  : 		if( gObj[i].Connected == PLAYER_PLAYING )

  0004b	a1 00 00 00 00	 mov	 eax, DWORD PTR ?gObj@@3PAUOBJECTSTRUCT@@A ; gObj
  00050	83 bc 06 84 4e
	00 00 03	 cmp	 DWORD PTR [esi+eax+20100], 3
  00058	75 0d		 jne	 SHORT $LN14@InitSelupa

; 329  : 		{
; 330  : 			if( gObj[i].Class == 459)

  0005a	66 39 bc 06 10
	4f 00 00	 cmp	 WORD PTR [esi+eax+20240], di
  00062	75 03		 jne	 SHORT $LN14@InitSelupa

; 331  : 			{
; 332  : 				this->m_iSelupanObjIndex = i;

  00064	89 51 04	 mov	 DWORD PTR [ecx+4], edx
$LN14@InitSelupa:

; 327  : 	{
; 328  : 		if( gObj[i].Connected == PLAYER_PLAYING )

  00067	a1 00 00 00 00	 mov	 eax, DWORD PTR ?gObj@@3PAUOBJECTSTRUCT@@A ; gObj
  0006c	83 bc 06 c4 75
	00 00 03	 cmp	 DWORD PTR [esi+eax+30148], 3
  00074	75 10		 jne	 SHORT $LN15@InitSelupa

; 329  : 		{
; 330  : 			if( gObj[i].Class == 459)

  00076	66 39 bc 06 50
	76 00 00	 cmp	 WORD PTR [esi+eax+30288], di
  0007e	75 06		 jne	 SHORT $LN15@InitSelupa

; 331  : 			{
; 332  : 				this->m_iSelupanObjIndex = i;

  00080	8d 42 01	 lea	 eax, DWORD PTR [edx+1]
  00083	89 41 04	 mov	 DWORD PTR [ecx+4], eax
$LN15@InitSelupa:

; 327  : 	{
; 328  : 		if( gObj[i].Connected == PLAYER_PLAYING )

  00086	a1 00 00 00 00	 mov	 eax, DWORD PTR ?gObj@@3PAUOBJECTSTRUCT@@A ; gObj
  0008b	83 bc 06 04 9d
	00 00 03	 cmp	 DWORD PTR [esi+eax+40196], 3
  00093	75 10		 jne	 SHORT $LN16@InitSelupa

; 329  : 		{
; 330  : 			if( gObj[i].Class == 459)

  00095	66 39 bc 06 90
	9d 00 00	 cmp	 WORD PTR [esi+eax+40336], di
  0009d	75 06		 jne	 SHORT $LN16@InitSelupa

; 331  : 			{
; 332  : 				this->m_iSelupanObjIndex = i;

  0009f	8d 42 02	 lea	 eax, DWORD PTR [edx+2]
  000a2	89 41 04	 mov	 DWORD PTR [ecx+4], eax
$LN16@InitSelupa:

; 327  : 	{
; 328  : 		if( gObj[i].Connected == PLAYER_PLAYING )

  000a5	a1 00 00 00 00	 mov	 eax, DWORD PTR ?gObj@@3PAUOBJECTSTRUCT@@A ; gObj
  000aa	83 bc 06 44 c4
	00 00 03	 cmp	 DWORD PTR [esi+eax+50244], 3
  000b2	75 10		 jne	 SHORT $LN17@InitSelupa

; 329  : 		{
; 330  : 			if( gObj[i].Class == 459)

  000b4	66 39 bc 06 d0
	c4 00 00	 cmp	 WORD PTR [esi+eax+50384], di
  000bc	75 06		 jne	 SHORT $LN17@InitSelupa

; 331  : 			{
; 332  : 				this->m_iSelupanObjIndex = i;

  000be	8d 42 03	 lea	 eax, DWORD PTR [edx+3]
  000c1	89 41 04	 mov	 DWORD PTR [ecx+4], eax
$LN17@InitSelupa:

; 326  : 	for(int i = 0;i < OBJ_MAXMONSTER;i++)

  000c4	83 c2 06	 add	 edx, 6
  000c7	81 c6 80 eb 00
	00		 add	 esi, 60288		; 0000eb80H
  000cd	8d 42 fe	 lea	 eax, DWORD PTR [edx-2]
  000d0	3d 04 29 00 00	 cmp	 eax, 10500		; 00002904H
  000d5	0f 8c 35 ff ff
	ff		 jl	 $LL4@InitSelupa

; 333  : 			}
; 334  : 		}	
; 335  : 	}
; 336  : 
; 337  : 	if( this->m_iSelupanObjIndex == -1 )

  000db	83 79 04 ff	 cmp	 DWORD PTR [ecx+4], -1
  000df	5f		 pop	 edi
  000e0	5e		 pop	 esi
  000e1	75 12		 jne	 SHORT $LN7@InitSelupa

; 338  : 	{
; 339  : 		LogAddC(2,"[ RAKLION ] [ InitSelupanIndex ] error : SelupanObjIndex(%d)",this->m_iSelupanObjIndex);

  000e3	6a ff		 push	 -1
  000e5	68 00 00 00 00	 push	 OFFSET ??_C@_0DN@GNLDFGOG@?$FL?5RAKLION?5?$FN?5?$FL?5InitSelupanIndex?5?$FN@
  000ea	6a 02		 push	 2
  000ec	ff 15 00 00 00
	00		 call	 DWORD PTR ?LogAddC@@3P6AXEPADZZA ; LogAddC
  000f2	83 c4 0c	 add	 esp, 12			; 0000000cH
$LN7@InitSelupa:

; 340  : 	}
; 341  : }

  000f5	c3		 ret	 0
?InitSelupanObjIndex@CRaklionSelupan@@QAEXXZ ENDP	; CRaklionSelupan::InitSelupanObjIndex
_TEXT	ENDS
; Function compile flags: /Ogtp
; File c:\users\michel\desktop\source\gameserver\source\raklionselupan.cpp
;	COMDAT ?SetSelupanLife@CRaklionSelupan@@QAEXH@Z
_TEXT	SEGMENT
_Percent$ = 8						; size = 4
?SetSelupanLife@CRaklionSelupan@@QAEXH@Z PROC		; CRaklionSelupan::SetSelupanLife, COMDAT
; _this$ = ecx

; 314  : {

  00000	55		 push	 ebp
  00001	8b ec		 mov	 ebp, esp

; 315  : 	int aIndex = this->GetSelupanObjIndex();

  00003	e8 00 00 00 00	 call	 ?GetSelupanObjIndex@CRaklionSelupan@@QAEHXZ ; CRaklionSelupan::GetSelupanObjIndex
  00008	66 0f 6e 45 08	 movd	 xmm0, DWORD PTR _Percent$[ebp]

; 316  : 
; 317  : 	LPOBJ lpObj = &gObj[aIndex];

  0000d	69 c0 40 27 00
	00		 imul	 eax, eax, 10048

; 318  : 	
; 319  : 	float loc4 = lpObj->AddLife + lpObj->MaxLife;
; 320  : 
; 321  : 	lpObj->Life = loc4 * Percent / 100;

  00013	0f 5b c0	 cvtdq2ps xmm0, xmm0
  00016	03 05 00 00 00
	00		 add	 eax, DWORD PTR ?gObj@@3PAUOBJECTSTRUCT@@A ; gObj
  0001c	66 0f 6e 88 24
	01 00 00	 movd	 xmm1, DWORD PTR [eax+292]
  00024	0f 5b c9	 cvtdq2ps xmm1, xmm1
  00027	f3 0f 58 88 dc
	00 00 00	 addss	 xmm1, DWORD PTR [eax+220]
  0002f	f3 0f 59 c8	 mulss	 xmm1, xmm0
  00033	f3 0f 5e 0d 00
	00 00 00	 divss	 xmm1, DWORD PTR __real@42c80000
  0003b	f3 0f 11 88 d8
	00 00 00	 movss	 DWORD PTR [eax+216], xmm1

; 322  : }

  00043	5d		 pop	 ebp
  00044	c2 04 00	 ret	 4
?SetSelupanLife@CRaklionSelupan@@QAEXH@Z ENDP		; CRaklionSelupan::SetSelupanLife
_TEXT	ENDS
; Function compile flags: /Ogtp
; File c:\users\michel\desktop\source\gameserver\source\raklionselupan.cpp
;	COMDAT ?GetSelupanLife@CRaklionSelupan@@QAEKXZ
_TEXT	SEGMENT
?GetSelupanLife@CRaklionSelupan@@QAEKXZ PROC		; CRaklionSelupan::GetSelupanLife, COMDAT
; _this$ = ecx

; 306  : 	int aIndex = this->GetSelupanObjIndex();

  00000	e8 00 00 00 00	 call	 ?GetSelupanObjIndex@CRaklionSelupan@@QAEHXZ ; CRaklionSelupan::GetSelupanObjIndex

; 307  : 	
; 308  : 	LPOBJ lpObj = &gObj[aIndex];

  00005	69 c8 40 27 00
	00		 imul	 ecx, eax, 10048

; 309  : 
; 310  : 	return lpObj->Life;

  0000b	a1 00 00 00 00	 mov	 eax, DWORD PTR ?gObj@@3PAUOBJECTSTRUCT@@A ; gObj
  00010	f3 0f 10 84 01
	d8 00 00 00	 movss	 xmm0, DWORD PTR [ecx+eax+216]
  00019	e9 00 00 00 00	 jmp	 __ftoui3
?GetSelupanLife@CRaklionSelupan@@QAEKXZ ENDP		; CRaklionSelupan::GetSelupanLife
_TEXT	ENDS
; Function compile flags: /Ogtp
; File c:\users\michel\desktop\source\gameserver\source\raklionselupan.cpp
;	COMDAT ?SelupanAct_Berserk4@CRaklionSelupan@@QAEXXZ
_TEXT	SEGMENT
?SelupanAct_Berserk4@CRaklionSelupan@@QAEXXZ PROC	; CRaklionSelupan::SelupanAct_Berserk4, COMDAT
; _this$ = ecx

; 284  : {

  00000	53		 push	 ebx
  00001	56		 push	 esi
  00002	57		 push	 edi
  00003	8b f9		 mov	 edi, ecx

; 285  : 	int aIndex = this->GetSelupanObjIndex();

  00005	e8 00 00 00 00	 call	 ?GetSelupanObjIndex@CRaklionSelupan@@QAEHXZ ; CRaklionSelupan::GetSelupanObjIndex

; 286  : 	int tIndex = aIndex;
; 287  : 
; 288  : 	LPOBJ lpObj = &gObj[aIndex];
; 289  : 
; 290  : 	TMonsterSkillManager::UseMonsterSkill(aIndex, tIndex, 1, 9, NULL);

  0000a	6a 00		 push	 0
  0000c	8b d8		 mov	 ebx, eax
  0000e	6a 09		 push	 9
  00010	69 f3 40 27 00
	00		 imul	 esi, ebx, 10048
  00016	6a 01		 push	 1
  00018	53		 push	 ebx
  00019	53		 push	 ebx
  0001a	03 35 00 00 00
	00		 add	 esi, DWORD PTR ?gObj@@3PAUOBJECTSTRUCT@@A ; gObj
  00020	e8 00 00 00 00	 call	 ?UseMonsterSkill@TMonsterSkillManager@@SAXHHHHPAVCMagicInf@@@Z ; TMonsterSkillManager::UseMonsterSkill

; 291  : 	
; 292  : 	this->m_iBerserkIndex = 4;
; 293  : 
; 294  : 	int loc5 = 0;
; 295  : 	loc5 = this->m_iBerserkIndex * lpObj->m_MonsterSkillElementInfo.m_iSkillElementAttack;
; 296  : 
; 297  : 	lpObj->m_AttackDamageMin = this->m_iBossAttackMin + loc5;

  00025	8b 87 98 0c 00
	00		 mov	 eax, DWORD PTR [edi+3224]
  0002b	c7 87 94 0c 00
	00 04 00 00 00	 mov	 DWORD PTR [edi+3220], 4
  00035	8b 8e 80 20 00
	00		 mov	 ecx, DWORD PTR [esi+8320]
  0003b	c1 e1 02	 shl	 ecx, 2
  0003e	03 c1		 add	 eax, ecx
  00040	89 86 40 06 00
	00		 mov	 DWORD PTR [esi+1600], eax

; 298  : 	lpObj->m_AttackDamageMax = this->m_iBossAttackMax + loc5;

  00046	8b 87 9c 0c 00
	00		 mov	 eax, DWORD PTR [edi+3228]
  0004c	03 c1		 add	 eax, ecx

; 299  : 
; 300  : 
; 301  : 	LogAddTD("[ RAKLION ][ Berserk4 ] Skill Using : Index(%d) Damage(%d~%d)",aIndex,lpObj->m_AttackDamageMin,lpObj->m_AttackDamageMax);

  0004e	50		 push	 eax
  0004f	ff b6 40 06 00
	00		 push	 DWORD PTR [esi+1600]
  00055	89 86 44 06 00
	00		 mov	 DWORD PTR [esi+1604], eax
  0005b	53		 push	 ebx
  0005c	68 00 00 00 00	 push	 OFFSET ??_C@_0DO@GJIGKBGA@?$FL?5RAKLION?5?$FN?$FL?5Berserk4?5?$FN?5Skill?5Us@
  00061	ff 15 00 00 00
	00		 call	 DWORD PTR ?LogAddTD@@3P6AXPADZZA ; LogAddTD
  00067	83 c4 24	 add	 esp, 36			; 00000024H
  0006a	5f		 pop	 edi
  0006b	5e		 pop	 esi
  0006c	5b		 pop	 ebx

; 302  : }

  0006d	c3		 ret	 0
?SelupanAct_Berserk4@CRaklionSelupan@@QAEXXZ ENDP	; CRaklionSelupan::SelupanAct_Berserk4
_TEXT	ENDS
; Function compile flags: /Ogtp
; File c:\users\michel\desktop\source\gameserver\source\raklionselupan.cpp
;	COMDAT ?SelupanAct_Berserk3@CRaklionSelupan@@QAEXXZ
_TEXT	SEGMENT
?SelupanAct_Berserk3@CRaklionSelupan@@QAEXXZ PROC	; CRaklionSelupan::SelupanAct_Berserk3, COMDAT
; _this$ = ecx

; 263  : {

  00000	53		 push	 ebx
  00001	56		 push	 esi
  00002	57		 push	 edi
  00003	8b f9		 mov	 edi, ecx

; 264  : 	int aIndex = this->GetSelupanObjIndex();

  00005	e8 00 00 00 00	 call	 ?GetSelupanObjIndex@CRaklionSelupan@@QAEHXZ ; CRaklionSelupan::GetSelupanObjIndex

; 265  : 	int tIndex = aIndex;
; 266  : 
; 267  : 	LPOBJ lpObj = &gObj[aIndex];
; 268  : 
; 269  : 	TMonsterSkillManager::UseMonsterSkill(aIndex, tIndex, 1, 9, NULL);

  0000a	6a 00		 push	 0
  0000c	8b d8		 mov	 ebx, eax
  0000e	6a 09		 push	 9
  00010	69 f3 40 27 00
	00		 imul	 esi, ebx, 10048
  00016	6a 01		 push	 1
  00018	53		 push	 ebx
  00019	53		 push	 ebx
  0001a	03 35 00 00 00
	00		 add	 esi, DWORD PTR ?gObj@@3PAUOBJECTSTRUCT@@A ; gObj
  00020	e8 00 00 00 00	 call	 ?UseMonsterSkill@TMonsterSkillManager@@SAXHHHHPAVCMagicInf@@@Z ; TMonsterSkillManager::UseMonsterSkill

; 270  : 	
; 271  : 	this->m_iBerserkIndex = 3;

  00025	c7 87 94 0c 00
	00 03 00 00 00	 mov	 DWORD PTR [edi+3220], 3

; 272  : 
; 273  : 	int loc5 = 0;
; 274  : 	loc5 = this->m_iBerserkIndex * lpObj->m_MonsterSkillElementInfo.m_iSkillElementAttack;

  0002f	8b 86 80 20 00
	00		 mov	 eax, DWORD PTR [esi+8320]
  00035	8d 0c 40	 lea	 ecx, DWORD PTR [eax+eax*2]

; 275  : 
; 276  : 	lpObj->m_AttackDamageMin = this->m_iBossAttackMin + loc5;

  00038	8b 87 98 0c 00
	00		 mov	 eax, DWORD PTR [edi+3224]
  0003e	03 c1		 add	 eax, ecx
  00040	89 86 40 06 00
	00		 mov	 DWORD PTR [esi+1600], eax

; 277  : 	lpObj->m_AttackDamageMax = this->m_iBossAttackMax + loc5;

  00046	8b 87 9c 0c 00
	00		 mov	 eax, DWORD PTR [edi+3228]
  0004c	03 c1		 add	 eax, ecx

; 278  : 
; 279  : 
; 280  : 	LogAddTD("[ RAKLION ][ Berserk3 ] Skill Using : Index(%d) Damage(%d~%d)",aIndex,lpObj->m_AttackDamageMin,lpObj->m_AttackDamageMax);

  0004e	50		 push	 eax
  0004f	ff b6 40 06 00
	00		 push	 DWORD PTR [esi+1600]
  00055	89 86 44 06 00
	00		 mov	 DWORD PTR [esi+1604], eax
  0005b	53		 push	 ebx
  0005c	68 00 00 00 00	 push	 OFFSET ??_C@_0DO@LIMIDDGI@?$FL?5RAKLION?5?$FN?$FL?5Berserk3?5?$FN?5Skill?5Us@
  00061	ff 15 00 00 00
	00		 call	 DWORD PTR ?LogAddTD@@3P6AXPADZZA ; LogAddTD
  00067	83 c4 24	 add	 esp, 36			; 00000024H
  0006a	5f		 pop	 edi
  0006b	5e		 pop	 esi
  0006c	5b		 pop	 ebx

; 281  : }

  0006d	c3		 ret	 0
?SelupanAct_Berserk3@CRaklionSelupan@@QAEXXZ ENDP	; CRaklionSelupan::SelupanAct_Berserk3
_TEXT	ENDS
; Function compile flags: /Ogtp
; File c:\users\michel\desktop\source\gameserver\source\raklionselupan.cpp
;	COMDAT ?SelupanAct_Berserk2@CRaklionSelupan@@QAEXXZ
_TEXT	SEGMENT
?SelupanAct_Berserk2@CRaklionSelupan@@QAEXXZ PROC	; CRaklionSelupan::SelupanAct_Berserk2, COMDAT
; _this$ = ecx

; 242  : {

  00000	53		 push	 ebx
  00001	56		 push	 esi
  00002	57		 push	 edi
  00003	8b f9		 mov	 edi, ecx

; 243  : 	int aIndex = this->GetSelupanObjIndex();

  00005	e8 00 00 00 00	 call	 ?GetSelupanObjIndex@CRaklionSelupan@@QAEHXZ ; CRaklionSelupan::GetSelupanObjIndex

; 244  : 	int tIndex = aIndex;
; 245  : 
; 246  : 	LPOBJ lpObj = &gObj[aIndex];
; 247  : 
; 248  : 	TMonsterSkillManager::UseMonsterSkill(aIndex, tIndex, 1, 9, NULL);

  0000a	6a 00		 push	 0
  0000c	8b d8		 mov	 ebx, eax
  0000e	6a 09		 push	 9
  00010	69 f3 40 27 00
	00		 imul	 esi, ebx, 10048
  00016	6a 01		 push	 1
  00018	53		 push	 ebx
  00019	53		 push	 ebx
  0001a	03 35 00 00 00
	00		 add	 esi, DWORD PTR ?gObj@@3PAUOBJECTSTRUCT@@A ; gObj
  00020	e8 00 00 00 00	 call	 ?UseMonsterSkill@TMonsterSkillManager@@SAXHHHHPAVCMagicInf@@@Z ; TMonsterSkillManager::UseMonsterSkill

; 249  : 	
; 250  : 	this->m_iBerserkIndex = 2;
; 251  : 
; 252  : 	int loc5 = 0;
; 253  : 	loc5 = this->m_iBerserkIndex * lpObj->m_MonsterSkillElementInfo.m_iSkillElementAttack;
; 254  : 
; 255  : 	lpObj->m_AttackDamageMin = this->m_iBossAttackMin + loc5;

  00025	8b 87 98 0c 00
	00		 mov	 eax, DWORD PTR [edi+3224]
  0002b	c7 87 94 0c 00
	00 02 00 00 00	 mov	 DWORD PTR [edi+3220], 2
  00035	8b 8e 80 20 00
	00		 mov	 ecx, DWORD PTR [esi+8320]
  0003b	03 c9		 add	 ecx, ecx
  0003d	03 c1		 add	 eax, ecx
  0003f	89 86 40 06 00
	00		 mov	 DWORD PTR [esi+1600], eax

; 256  : 	lpObj->m_AttackDamageMax = this->m_iBossAttackMax + loc5;

  00045	8b 87 9c 0c 00
	00		 mov	 eax, DWORD PTR [edi+3228]
  0004b	03 c1		 add	 eax, ecx

; 257  : 
; 258  : 
; 259  : 	LogAddTD("[ RAKLION ][ Berserk2 ] Skill Using : Index(%d) Damage(%d~%d)",aIndex,lpObj->m_AttackDamageMin,lpObj->m_AttackDamageMax);

  0004d	50		 push	 eax
  0004e	ff b6 40 06 00
	00		 push	 DWORD PTR [esi+1600]
  00054	89 86 44 06 00
	00		 mov	 DWORD PTR [esi+1604], eax
  0005a	53		 push	 ebx
  0005b	68 00 00 00 00	 push	 OFFSET ??_C@_0DO@BJPBLHIG@?$FL?5RAKLION?5?$FN?$FL?5Berserk2?5?$FN?5Skill?5Us@
  00060	ff 15 00 00 00
	00		 call	 DWORD PTR ?LogAddTD@@3P6AXPADZZA ; LogAddTD
  00066	83 c4 24	 add	 esp, 36			; 00000024H
  00069	5f		 pop	 edi
  0006a	5e		 pop	 esi
  0006b	5b		 pop	 ebx

; 260  : }

  0006c	c3		 ret	 0
?SelupanAct_Berserk2@CRaklionSelupan@@QAEXXZ ENDP	; CRaklionSelupan::SelupanAct_Berserk2
_TEXT	ENDS
; Function compile flags: /Ogtp
; File c:\users\michel\desktop\source\gameserver\source\raklionselupan.cpp
;	COMDAT ?SelupanAct_Berserk1@CRaklionSelupan@@QAEXXZ
_TEXT	SEGMENT
?SelupanAct_Berserk1@CRaklionSelupan@@QAEXXZ PROC	; CRaklionSelupan::SelupanAct_Berserk1, COMDAT
; _this$ = ecx

; 221  : {

  00000	53		 push	 ebx
  00001	56		 push	 esi
  00002	57		 push	 edi
  00003	8b f9		 mov	 edi, ecx

; 222  : 	int aIndex = this->GetSelupanObjIndex();

  00005	e8 00 00 00 00	 call	 ?GetSelupanObjIndex@CRaklionSelupan@@QAEHXZ ; CRaklionSelupan::GetSelupanObjIndex

; 223  : 	int tIndex = aIndex;
; 224  : 
; 225  : 	LPOBJ lpObj = &gObj[aIndex];
; 226  : 
; 227  : 	TMonsterSkillManager::UseMonsterSkill(aIndex, tIndex, 1, 9, NULL);

  0000a	6a 00		 push	 0
  0000c	8b d8		 mov	 ebx, eax
  0000e	6a 09		 push	 9
  00010	69 f3 40 27 00
	00		 imul	 esi, ebx, 10048
  00016	6a 01		 push	 1
  00018	53		 push	 ebx
  00019	53		 push	 ebx
  0001a	03 35 00 00 00
	00		 add	 esi, DWORD PTR ?gObj@@3PAUOBJECTSTRUCT@@A ; gObj
  00020	e8 00 00 00 00	 call	 ?UseMonsterSkill@TMonsterSkillManager@@SAXHHHHPAVCMagicInf@@@Z ; TMonsterSkillManager::UseMonsterSkill

; 228  : 	
; 229  : 	this->m_iBerserkIndex = 1;
; 230  : 
; 231  : 	int loc5 = 0;
; 232  : 	loc5 = this->m_iBerserkIndex * lpObj->m_MonsterSkillElementInfo.m_iSkillElementAttack;
; 233  : 
; 234  : 	lpObj->m_AttackDamageMin = this->m_iBossAttackMin + loc5;

  00025	8b 87 98 0c 00
	00		 mov	 eax, DWORD PTR [edi+3224]
  0002b	c7 87 94 0c 00
	00 01 00 00 00	 mov	 DWORD PTR [edi+3220], 1
  00035	8b 8e 80 20 00
	00		 mov	 ecx, DWORD PTR [esi+8320]
  0003b	03 c1		 add	 eax, ecx
  0003d	89 86 40 06 00
	00		 mov	 DWORD PTR [esi+1600], eax

; 235  : 	lpObj->m_AttackDamageMax = this->m_iBossAttackMax + loc5;

  00043	8b 87 9c 0c 00
	00		 mov	 eax, DWORD PTR [edi+3228]
  00049	03 c1		 add	 eax, ecx

; 236  : 
; 237  : 
; 238  : 	LogAddTD("[ RAKLION ][ Berserk1 ] Skill Using : Index(%d) Damage(%d~%d)",aIndex,lpObj->m_AttackDamageMin,lpObj->m_AttackDamageMax);

  0004b	50		 push	 eax
  0004c	ff b6 40 06 00
	00		 push	 DWORD PTR [esi+1600]
  00052	89 86 44 06 00
	00		 mov	 DWORD PTR [esi+1604], eax
  00058	53		 push	 ebx
  00059	68 00 00 00 00	 push	 OFFSET ??_C@_0DO@CBMKDMPF@?$FL?5RAKLION?5?$FN?$FL?5Berserk1?5?$FN?5Skill?5Us@
  0005e	ff 15 00 00 00
	00		 call	 DWORD PTR ?LogAddTD@@3P6AXPADZZA ; LogAddTD
  00064	83 c4 24	 add	 esp, 36			; 00000024H
  00067	5f		 pop	 edi
  00068	5e		 pop	 esi
  00069	5b		 pop	 ebx

; 239  : }

  0006a	c3		 ret	 0
?SelupanAct_Berserk1@CRaklionSelupan@@QAEXXZ ENDP	; CRaklionSelupan::SelupanAct_Berserk1
_TEXT	ENDS
; Function compile flags: /Ogtp
; File c:\users\michel\desktop\source\gameserver\source\raklionselupan.cpp
;	COMDAT ?SelupanAct_BerserkCansel@CRaklionSelupan@@QAEXXZ
_TEXT	SEGMENT
?SelupanAct_BerserkCansel@CRaklionSelupan@@QAEXXZ PROC	; CRaklionSelupan::SelupanAct_BerserkCansel, COMDAT
; _this$ = ecx

; 208  : {

  00000	56		 push	 esi
  00001	8b f1		 mov	 esi, ecx

; 209  : 	int aIndex = this->GetSelupanObjIndex();

  00003	e8 00 00 00 00	 call	 ?GetSelupanObjIndex@CRaklionSelupan@@QAEHXZ ; CRaklionSelupan::GetSelupanObjIndex

; 210  : 	
; 211  : 	LPOBJ lpObj = &gObj[aIndex];

  00008	69 c8 40 27 00
	00		 imul	 ecx, eax, 10048

; 212  : 	
; 213  : 	lpObj->m_AttackDamageMin = this->m_iBossAttackMin;

  0000e	8b 86 98 0c 00
	00		 mov	 eax, DWORD PTR [esi+3224]
  00014	03 0d 00 00 00
	00		 add	 ecx, DWORD PTR ?gObj@@3PAUOBJECTSTRUCT@@A ; gObj
  0001a	89 81 40 06 00
	00		 mov	 DWORD PTR [ecx+1600], eax

; 214  : 	lpObj->m_AttackDamageMax = this->m_iBossAttackMax;

  00020	8b 86 9c 0c 00
	00		 mov	 eax, DWORD PTR [esi+3228]

; 215  : 	
; 216  : 	LogAddTD("[ RAKLION ][ Berserk Cancel ] MinDamage(%d) Damage(%d~%d)",lpObj->m_AttackDamageMin,lpObj->m_AttackDamageMin,lpObj->m_AttackDamageMax);

  00026	50		 push	 eax
  00027	89 81 44 06 00
	00		 mov	 DWORD PTR [ecx+1604], eax
  0002d	8b 89 40 06 00
	00		 mov	 ecx, DWORD PTR [ecx+1600]
  00033	51		 push	 ecx
  00034	51		 push	 ecx
  00035	68 00 00 00 00	 push	 OFFSET ??_C@_0DK@MIJHEJFK@?$FL?5RAKLION?5?$FN?$FL?5Berserk?5Cancel?5?$FN?5Mi@
  0003a	ff 15 00 00 00
	00		 call	 DWORD PTR ?LogAddTD@@3P6AXPADZZA ; LogAddTD
  00040	83 c4 10	 add	 esp, 16			; 00000010H
  00043	5e		 pop	 esi

; 217  : 
; 218  : }

  00044	c3		 ret	 0
?SelupanAct_BerserkCansel@CRaklionSelupan@@QAEXXZ ENDP	; CRaklionSelupan::SelupanAct_BerserkCansel
_TEXT	ENDS
; Function compile flags: /Ogtp
; File c:\users\michel\desktop\source\gameserver\source\raklionselupan.cpp
;	COMDAT ?SelupanAct_Invincibility@CRaklionSelupan@@QAEXXZ
_TEXT	SEGMENT
?SelupanAct_Invincibility@CRaklionSelupan@@QAEXXZ PROC	; CRaklionSelupan::SelupanAct_Invincibility, COMDAT
; _this$ = ecx

; 195  : {

  00000	56		 push	 esi
  00001	57		 push	 edi

; 196  : 	int aIndex = this->GetSelupanObjIndex();

  00002	e8 00 00 00 00	 call	 ?GetSelupanObjIndex@CRaklionSelupan@@QAEHXZ ; CRaklionSelupan::GetSelupanObjIndex

; 197  : 	int tIndex = aIndex;
; 198  : 
; 199  : 	LPOBJ lpObj = &gObj[aIndex];
; 200  : 	
; 201  : 	TMonsterSkillManager::UseMonsterSkill(aIndex, tIndex, 10, 8, NULL);

  00007	6a 00		 push	 0
  00009	8b f8		 mov	 edi, eax
  0000b	6a 08		 push	 8
  0000d	69 f7 40 27 00
	00		 imul	 esi, edi, 10048
  00013	6a 0a		 push	 10			; 0000000aH
  00015	57		 push	 edi
  00016	57		 push	 edi
  00017	03 35 00 00 00
	00		 add	 esi, DWORD PTR ?gObj@@3PAUOBJECTSTRUCT@@A ; gObj
  0001d	e8 00 00 00 00	 call	 ?UseMonsterSkill@TMonsterSkillManager@@SAXHHHHPAVCMagicInf@@@Z ; TMonsterSkillManager::UseMonsterSkill

; 202  : 	
; 203  : 	LogAddTD("[ RAKLION ][ Invincibility ] Skill Using : Index(%d) %s", aIndex,lpObj->Name);

  00022	8d 46 5d	 lea	 eax, DWORD PTR [esi+93]
  00025	50		 push	 eax
  00026	57		 push	 edi
  00027	68 00 00 00 00	 push	 OFFSET ??_C@_0DI@HEJHANHK@?$FL?5RAKLION?5?$FN?$FL?5Invincibility?5?$FN?5Ski@
  0002c	ff 15 00 00 00
	00		 call	 DWORD PTR ?LogAddTD@@3P6AXPADZZA ; LogAddTD
  00032	83 c4 20	 add	 esp, 32			; 00000020H
  00035	5f		 pop	 edi
  00036	5e		 pop	 esi

; 204  : 
; 205  : }

  00037	c3		 ret	 0
?SelupanAct_Invincibility@CRaklionSelupan@@QAEXXZ ENDP	; CRaklionSelupan::SelupanAct_Invincibility
_TEXT	ENDS
; Function compile flags: /Ogtp
; File c:\users\michel\desktop\source\gameserver\source\raklionselupan.cpp
;	COMDAT ?SelupanAct_Teleport@CRaklionSelupan@@QAEXXZ
_TEXT	SEGMENT
?SelupanAct_Teleport@CRaklionSelupan@@QAEXXZ PROC	; CRaklionSelupan::SelupanAct_Teleport, COMDAT
; _this$ = ecx

; 177  : 	return;
; 178  : 
; 179  : 	int aIndex = this->GetSelupanObjIndex();
; 180  : 	int tIndex = this->GetSelupanTargetIndex();
; 181  : 
; 182  : 	LPOBJ lpObj = &gObj[aIndex];
; 183  : 	LPOBJ lpTargetObj = &gObj[tIndex];
; 184  : 	
; 185  : 	if ( tIndex < 0 )
; 186  : 	{
; 187  : 		tIndex = aIndex;
; 188  : 	}
; 189  : 
; 190  : 	TMonsterSkillManager::UseMonsterSkill(aIndex, tIndex, 1, 7, NULL);
; 191  : 	LogAddTD("[ RAKLION ][ Teleport ] Skill Using : Index(%d) %s", aIndex,lpObj->Name);
; 192  : }

  00000	c3		 ret	 0
?SelupanAct_Teleport@CRaklionSelupan@@QAEXXZ ENDP	; CRaklionSelupan::SelupanAct_Teleport
_TEXT	ENDS
; Function compile flags: /Ogtp
; File c:\users\michel\desktop\source\gameserver\source\raklionselupan.cpp
;	COMDAT ?SelupanAct_Freeze@CRaklionSelupan@@QAEXXZ
_TEXT	SEGMENT
?SelupanAct_Freeze@CRaklionSelupan@@QAEXXZ PROC		; CRaklionSelupan::SelupanAct_Freeze, COMDAT
; _this$ = ecx

; 157  : {

  00000	56		 push	 esi
  00001	57		 push	 edi
  00002	8b f1		 mov	 esi, ecx

; 158  : 	int aIndex = this->GetSelupanObjIndex();

  00004	e8 00 00 00 00	 call	 ?GetSelupanObjIndex@CRaklionSelupan@@QAEHXZ ; CRaklionSelupan::GetSelupanObjIndex

; 159  : 	int tIndex = this->GetSelupanTargetIndex();

  00009	8b ce		 mov	 ecx, esi
  0000b	8b f8		 mov	 edi, eax
  0000d	e8 00 00 00 00	 call	 ?GetSelupanTargetIndex@CRaklionSelupan@@QAEHXZ ; CRaklionSelupan::GetSelupanTargetIndex

; 160  : 
; 161  : 	LPOBJ lpObj = &gObj[aIndex];

  00012	69 f7 40 27 00
	00		 imul	 esi, edi, 10048

; 162  : 
; 163  : 	if ( tIndex == -1 )
; 164  : 	{
; 165  : 		tIndex = aIndex;
; 166  : 		TMonsterSkillManager::UseMonsterSkill(aIndex, tIndex, 1, 7, NULL);

  00018	6a 00		 push	 0
  0001a	03 35 00 00 00
	00		 add	 esi, DWORD PTR ?gObj@@3PAUOBJECTSTRUCT@@A ; gObj
  00020	83 f8 ff	 cmp	 eax, -1
  00023	75 07		 jne	 SHORT $LN2@SelupanAct
  00025	6a 07		 push	 7
  00027	6a 01		 push	 1
  00029	57		 push	 edi

; 167  : 	}
; 168  : 	else

  0002a	eb 05		 jmp	 SHORT $LN5@SelupanAct
$LN2@SelupanAct:

; 169  : 	{
; 170  : 		TMonsterSkillManager::UseMonsterSkill(aIndex, tIndex, 1, 6, NULL);

  0002c	6a 06		 push	 6
  0002e	6a 01		 push	 1
  00030	50		 push	 eax
$LN5@SelupanAct:
  00031	57		 push	 edi
  00032	e8 00 00 00 00	 call	 ?UseMonsterSkill@TMonsterSkillManager@@SAXHHHHPAVCMagicInf@@@Z ; TMonsterSkillManager::UseMonsterSkill
  00037	83 c4 14	 add	 esp, 20			; 00000014H

; 171  : 	}
; 172  : 	LogAddTD("[ RAKLION ][ Freeze ] Skill Using : Index(%d) %s", aIndex,lpObj->Name);

  0003a	8d 46 5d	 lea	 eax, DWORD PTR [esi+93]
  0003d	50		 push	 eax
  0003e	57		 push	 edi
  0003f	68 00 00 00 00	 push	 OFFSET ??_C@_0DB@JDHBEKMA@?$FL?5RAKLION?5?$FN?$FL?5Freeze?5?$FN?5Skill?5Usin@
  00044	ff 15 00 00 00
	00		 call	 DWORD PTR ?LogAddTD@@3P6AXPADZZA ; LogAddTD
  0004a	83 c4 0c	 add	 esp, 12			; 0000000cH
  0004d	5f		 pop	 edi
  0004e	5e		 pop	 esi

; 173  : }

  0004f	c3		 ret	 0
?SelupanAct_Freeze@CRaklionSelupan@@QAEXXZ ENDP		; CRaklionSelupan::SelupanAct_Freeze
_TEXT	ENDS
; Function compile flags: /Ogtp
; File c:\users\michel\desktop\source\gameserver\source\raklionselupan.cpp
;	COMDAT ?SelupanAct_Heal@CRaklionSelupan@@QAEXXZ
_TEXT	SEGMENT
?SelupanAct_Heal@CRaklionSelupan@@QAEXXZ PROC		; CRaklionSelupan::SelupanAct_Heal, COMDAT
; _this$ = ecx

; 145  : {

  00000	56		 push	 esi
  00001	57		 push	 edi

; 146  : 	int aIndex = this->GetSelupanObjIndex();

  00002	e8 00 00 00 00	 call	 ?GetSelupanObjIndex@CRaklionSelupan@@QAEHXZ ; CRaklionSelupan::GetSelupanObjIndex

; 147  : 	int tIndex = aIndex;
; 148  : 
; 149  : 	LPOBJ lpObj = &gObj[aIndex];
; 150  : 
; 151  : 	TMonsterSkillManager::UseMonsterSkill(aIndex, tIndex, 20, 5, NULL);

  00007	6a 00		 push	 0
  00009	8b f8		 mov	 edi, eax
  0000b	6a 05		 push	 5
  0000d	69 f7 40 27 00
	00		 imul	 esi, edi, 10048
  00013	6a 14		 push	 20			; 00000014H
  00015	57		 push	 edi
  00016	57		 push	 edi
  00017	03 35 00 00 00
	00		 add	 esi, DWORD PTR ?gObj@@3PAUOBJECTSTRUCT@@A ; gObj
  0001d	e8 00 00 00 00	 call	 ?UseMonsterSkill@TMonsterSkillManager@@SAXHHHHPAVCMagicInf@@@Z ; TMonsterSkillManager::UseMonsterSkill

; 152  : 
; 153  : 	LogAddTD("[ RAKLION ][ Heal ] Skill Using : Index(%d) %s", aIndex,lpObj->Name);

  00022	8d 46 5d	 lea	 eax, DWORD PTR [esi+93]
  00025	50		 push	 eax
  00026	57		 push	 edi
  00027	68 00 00 00 00	 push	 OFFSET ??_C@_0CP@FPMFGMGG@?$FL?5RAKLION?5?$FN?$FL?5Heal?5?$FN?5Skill?5Using?5@
  0002c	ff 15 00 00 00
	00		 call	 DWORD PTR ?LogAddTD@@3P6AXPADZZA ; LogAddTD
  00032	83 c4 20	 add	 esp, 32			; 00000020H
  00035	5f		 pop	 edi
  00036	5e		 pop	 esi

; 154  : }

  00037	c3		 ret	 0
?SelupanAct_Heal@CRaklionSelupan@@QAEXXZ ENDP		; CRaklionSelupan::SelupanAct_Heal
_TEXT	ENDS
; Function compile flags: /Ogtp
; File c:\users\michel\desktop\source\gameserver\source\raklionselupan.cpp
;	COMDAT ?SelupanAct_SummonMonster@CRaklionSelupan@@QAEXXZ
_TEXT	SEGMENT
?SelupanAct_SummonMonster@CRaklionSelupan@@QAEXXZ PROC	; CRaklionSelupan::SelupanAct_SummonMonster, COMDAT
; _this$ = ecx

; 131  : {

  00000	53		 push	 ebx
  00001	56		 push	 esi
  00002	57		 push	 edi
  00003	8b f9		 mov	 edi, ecx

; 132  : 	int aIndex = this->GetSelupanObjIndex();

  00005	e8 00 00 00 00	 call	 ?GetSelupanObjIndex@CRaklionSelupan@@QAEHXZ ; CRaklionSelupan::GetSelupanObjIndex

; 133  : 	int tIndex = aIndex;
; 134  : 
; 135  : 	LPOBJ lpObj = &gObj[aIndex];
; 136  : 	
; 137  : 	TMonsterSkillManager::UseMonsterSkill(aIndex, tIndex, 30, 4, NULL);

  0000a	6a 00		 push	 0
  0000c	8b d8		 mov	 ebx, eax
  0000e	6a 04		 push	 4
  00010	69 f3 40 27 00
	00		 imul	 esi, ebx, 10048
  00016	6a 1e		 push	 30			; 0000001eH
  00018	53		 push	 ebx
  00019	53		 push	 ebx
  0001a	03 35 00 00 00
	00		 add	 esi, DWORD PTR ?gObj@@3PAUOBJECTSTRUCT@@A ; gObj
  00020	e8 00 00 00 00	 call	 ?UseMonsterSkill@TMonsterSkillManager@@SAXHHHHPAVCMagicInf@@@Z ; TMonsterSkillManager::UseMonsterSkill
  00025	83 c4 14	 add	 esp, 20			; 00000014H

; 138  : 	
; 139  : 	this->CreateSummonMonster();

  00028	8b cf		 mov	 ecx, edi
  0002a	e8 00 00 00 00	 call	 ?CreateSummonMonster@CRaklionSelupan@@QAEXXZ ; CRaklionSelupan::CreateSummonMonster

; 140  : 	
; 141  : 	LogAddTD("[ RAKLION ][ SummonMonster ] Skill Using : Index(%d) %s", aIndex,lpObj->Name);

  0002f	8d 46 5d	 lea	 eax, DWORD PTR [esi+93]
  00032	50		 push	 eax
  00033	53		 push	 ebx
  00034	68 00 00 00 00	 push	 OFFSET ??_C@_0DI@MNJIILJK@?$FL?5RAKLION?5?$FN?$FL?5SummonMonster?5?$FN?5Ski@
  00039	ff 15 00 00 00
	00		 call	 DWORD PTR ?LogAddTD@@3P6AXPADZZA ; LogAddTD
  0003f	83 c4 0c	 add	 esp, 12			; 0000000cH
  00042	5f		 pop	 edi
  00043	5e		 pop	 esi
  00044	5b		 pop	 ebx

; 142  : }

  00045	c3		 ret	 0
?SelupanAct_SummonMonster@CRaklionSelupan@@QAEXXZ ENDP	; CRaklionSelupan::SelupanAct_SummonMonster
_TEXT	ENDS
; Function compile flags: /Ogtp
; File c:\users\michel\desktop\source\gameserver\source\raklionselupan.cpp
;	COMDAT ?SelupanAct_IceStrike@CRaklionSelupan@@QAEXXZ
_TEXT	SEGMENT
_lpMagic$2 = -40					; size = 24
_tIndex$1$ = -16					; size = 4
__$EHRec$ = -12						; size = 12
?SelupanAct_IceStrike@CRaklionSelupan@@QAEXXZ PROC	; CRaklionSelupan::SelupanAct_IceStrike, COMDAT
; _this$ = ecx

; 108  : {

  00000	55		 push	 ebp
  00001	8b ec		 mov	 ebp, esp
  00003	6a ff		 push	 -1
  00005	68 00 00 00 00	 push	 __ehhandler$?SelupanAct_IceStrike@CRaklionSelupan@@QAEXXZ
  0000a	64 a1 00 00 00
	00		 mov	 eax, DWORD PTR fs:0
  00010	50		 push	 eax
  00011	83 ec 1c	 sub	 esp, 28			; 0000001cH
  00014	56		 push	 esi
  00015	57		 push	 edi
  00016	a1 00 00 00 00	 mov	 eax, DWORD PTR ___security_cookie
  0001b	33 c5		 xor	 eax, ebp
  0001d	50		 push	 eax
  0001e	8d 45 f4	 lea	 eax, DWORD PTR __$EHRec$[ebp]
  00021	64 a3 00 00 00
	00		 mov	 DWORD PTR fs:0, eax
  00027	8b f1		 mov	 esi, ecx

; 109  : 	int aIndex = this->GetSelupanObjIndex();

  00029	e8 00 00 00 00	 call	 ?GetSelupanObjIndex@CRaklionSelupan@@QAEHXZ ; CRaklionSelupan::GetSelupanObjIndex

; 110  : 	int tIndex = this->GetSelupanTargetIndex();

  0002e	8b ce		 mov	 ecx, esi
  00030	8b f8		 mov	 edi, eax
  00032	e8 00 00 00 00	 call	 ?GetSelupanTargetIndex@CRaklionSelupan@@QAEHXZ ; CRaklionSelupan::GetSelupanTargetIndex

; 111  : 
; 112  : 	LPOBJ lpObj = &gObj[aIndex];

  00037	69 f7 40 27 00
	00		 imul	 esi, edi, 10048
  0003d	89 45 f0	 mov	 DWORD PTR _tIndex$1$[ebp], eax
  00040	03 35 00 00 00
	00		 add	 esi, DWORD PTR ?gObj@@3PAUOBJECTSTRUCT@@A ; gObj

; 113  : 
; 114  : 	if ( tIndex == -1 )

  00046	83 f8 ff	 cmp	 eax, -1
  00049	75 12		 jne	 SHORT $LN2@SelupanAct

; 115  : 	{
; 116  : 		tIndex = aIndex;
; 117  : 		TMonsterSkillManager::UseMonsterSkill(aIndex, tIndex, 1, 7, NULL);

  0004b	6a 00		 push	 0
  0004d	6a 07		 push	 7
  0004f	6a 01		 push	 1
  00051	57		 push	 edi
  00052	57		 push	 edi
  00053	e8 00 00 00 00	 call	 ?UseMonsterSkill@TMonsterSkillManager@@SAXHHHHPAVCMagicInf@@@Z ; TMonsterSkillManager::UseMonsterSkill
  00058	83 c4 14	 add	 esp, 20			; 00000014H

; 118  : 	}
; 119  : 	else

  0005b	eb 45		 jmp	 SHORT $LN3@SelupanAct
$LN2@SelupanAct:

; 120  : 	{
; 121  : 		CMagicInf lpMagic;

  0005d	8d 4d d8	 lea	 ecx, DWORD PTR _lpMagic$2[ebp]
  00060	e8 00 00 00 00	 call	 ??0CMagicInf@@QAE@XZ	; CMagicInf::CMagicInf

; 122  : 		memset(&lpMagic, 0, sizeof(lpMagic));
; 123  : 		lpMagic.m_Skill = 252;
; 124  : 		TMonsterSkillManager::UseMonsterSkill(aIndex, tIndex, 1, 3,&lpMagic);

  00065	8d 45 d8	 lea	 eax, DWORD PTR _lpMagic$2[ebp]
  00068	c7 45 fc 00 00
	00 00		 mov	 DWORD PTR __$EHRec$[ebp+8], 0
  0006f	50		 push	 eax
  00070	6a 03		 push	 3
  00072	6a 01		 push	 1
  00074	ff 75 f0	 push	 DWORD PTR _tIndex$1$[ebp]
  00077	0f 57 c0	 xorps	 xmm0, xmm0
  0007a	0f 11 45 d8	 movups	 XMMWORD PTR _lpMagic$2[ebp], xmm0
  0007e	57		 push	 edi
  0007f	66 0f d6 45 e8	 movq	 QWORD PTR _lpMagic$2[ebp+16], xmm0
  00084	c7 45 e0 fc 00
	00 00		 mov	 DWORD PTR _lpMagic$2[ebp+8], 252 ; 000000fcH
  0008b	e8 00 00 00 00	 call	 ?UseMonsterSkill@TMonsterSkillManager@@SAXHHHHPAVCMagicInf@@@Z ; TMonsterSkillManager::UseMonsterSkill
  00090	83 c4 14	 add	 esp, 20			; 00000014H

; 125  : 	}

  00093	c7 45 fc ff ff
	ff ff		 mov	 DWORD PTR __$EHRec$[ebp+8], -1
  0009a	8d 4d d8	 lea	 ecx, DWORD PTR _lpMagic$2[ebp]
  0009d	e8 00 00 00 00	 call	 ??1CMagicInf@@UAE@XZ	; CMagicInf::~CMagicInf
$LN3@SelupanAct:

; 126  : 
; 127  : 	LogAddTD("[ RAKLION ][ IceStrike ] Skill Using : Index(%d) %s", aIndex,lpObj->Name);

  000a2	8d 46 5d	 lea	 eax, DWORD PTR [esi+93]
  000a5	50		 push	 eax
  000a6	57		 push	 edi
  000a7	68 00 00 00 00	 push	 OFFSET ??_C@_0DE@LMJIKHAC@?$FL?5RAKLION?5?$FN?$FL?5IceStrike?5?$FN?5Skill?5U@
  000ac	ff 15 00 00 00
	00		 call	 DWORD PTR ?LogAddTD@@3P6AXPADZZA ; LogAddTD
  000b2	83 c4 0c	 add	 esp, 12			; 0000000cH

; 128  : }

  000b5	8b 4d f4	 mov	 ecx, DWORD PTR __$EHRec$[ebp]
  000b8	64 89 0d 00 00
	00 00		 mov	 DWORD PTR fs:0, ecx
  000bf	59		 pop	 ecx
  000c0	5f		 pop	 edi
  000c1	5e		 pop	 esi
  000c2	8b e5		 mov	 esp, ebp
  000c4	5d		 pop	 ebp
  000c5	c3		 ret	 0
_TEXT	ENDS
;	COMDAT text$x
text$x	SEGMENT
__unwindfunclet$?SelupanAct_IceStrike@CRaklionSelupan@@QAEXXZ$0:
  00000	8d 4d d8	 lea	 ecx, DWORD PTR _lpMagic$2[ebp]
  00003	e9 00 00 00 00	 jmp	 ??1CMagicInf@@UAE@XZ	; CMagicInf::~CMagicInf
__ehhandler$?SelupanAct_IceStrike@CRaklionSelupan@@QAEXXZ:
  00008	8b 54 24 08	 mov	 edx, DWORD PTR [esp+8]
  0000c	8d 42 0c	 lea	 eax, DWORD PTR [edx+12]
  0000f	8b 4a d8	 mov	 ecx, DWORD PTR [edx-40]
  00012	33 c8		 xor	 ecx, eax
  00014	e8 00 00 00 00	 call	 @__security_check_cookie@4
  00019	b8 00 00 00 00	 mov	 eax, OFFSET __ehfuncinfo$?SelupanAct_IceStrike@CRaklionSelupan@@QAEXXZ
  0001e	e9 00 00 00 00	 jmp	 ___CxxFrameHandler3
text$x	ENDS
?SelupanAct_IceStrike@CRaklionSelupan@@QAEXXZ ENDP	; CRaklionSelupan::SelupanAct_IceStrike
; Function compile flags: /Ogtp
; File c:\users\michel\desktop\source\gameserver\source\raklionselupan.cpp
;	COMDAT ?SelupanAct_IceStorm@CRaklionSelupan@@QAEXXZ
_TEXT	SEGMENT
_lpMagic$2 = -40					; size = 24
_tIndex$1$ = -16					; size = 4
__$EHRec$ = -12						; size = 12
?SelupanAct_IceStorm@CRaklionSelupan@@QAEXXZ PROC	; CRaklionSelupan::SelupanAct_IceStorm, COMDAT
; _this$ = ecx

; 84   : {

  00000	55		 push	 ebp
  00001	8b ec		 mov	 ebp, esp
  00003	6a ff		 push	 -1
  00005	68 00 00 00 00	 push	 __ehhandler$?SelupanAct_IceStorm@CRaklionSelupan@@QAEXXZ
  0000a	64 a1 00 00 00
	00		 mov	 eax, DWORD PTR fs:0
  00010	50		 push	 eax
  00011	83 ec 1c	 sub	 esp, 28			; 0000001cH
  00014	56		 push	 esi
  00015	57		 push	 edi
  00016	a1 00 00 00 00	 mov	 eax, DWORD PTR ___security_cookie
  0001b	33 c5		 xor	 eax, ebp
  0001d	50		 push	 eax
  0001e	8d 45 f4	 lea	 eax, DWORD PTR __$EHRec$[ebp]
  00021	64 a3 00 00 00
	00		 mov	 DWORD PTR fs:0, eax
  00027	8b f1		 mov	 esi, ecx

; 85   : 	int aIndex = this->GetSelupanObjIndex();

  00029	e8 00 00 00 00	 call	 ?GetSelupanObjIndex@CRaklionSelupan@@QAEHXZ ; CRaklionSelupan::GetSelupanObjIndex

; 86   : 	int tIndex = this->GetSelupanTargetIndex();

  0002e	8b ce		 mov	 ecx, esi
  00030	8b f8		 mov	 edi, eax
  00032	e8 00 00 00 00	 call	 ?GetSelupanTargetIndex@CRaklionSelupan@@QAEHXZ ; CRaklionSelupan::GetSelupanTargetIndex

; 87   : 
; 88   : 	LPOBJ lpObj = &gObj[aIndex];

  00037	69 f7 40 27 00
	00		 imul	 esi, edi, 10048
  0003d	89 45 f0	 mov	 DWORD PTR _tIndex$1$[ebp], eax
  00040	03 35 00 00 00
	00		 add	 esi, DWORD PTR ?gObj@@3PAUOBJECTSTRUCT@@A ; gObj

; 89   : 
; 90   : 	if ( tIndex == -1 )

  00046	83 f8 ff	 cmp	 eax, -1
  00049	75 12		 jne	 SHORT $LN2@SelupanAct

; 91   : 	{
; 92   : 		tIndex = aIndex;
; 93   : 		TMonsterSkillManager::UseMonsterSkill(aIndex, tIndex, 1, 7, NULL);

  0004b	6a 00		 push	 0
  0004d	6a 07		 push	 7
  0004f	6a 01		 push	 1
  00051	57		 push	 edi
  00052	57		 push	 edi
  00053	e8 00 00 00 00	 call	 ?UseMonsterSkill@TMonsterSkillManager@@SAXHHHHPAVCMagicInf@@@Z ; TMonsterSkillManager::UseMonsterSkill
  00058	83 c4 14	 add	 esp, 20			; 00000014H

; 94   : 	}
; 95   : 	else

  0005b	eb 45		 jmp	 SHORT $LN3@SelupanAct
$LN2@SelupanAct:

; 96   : 	{
; 97   : 		CMagicInf lpMagic;

  0005d	8d 4d d8	 lea	 ecx, DWORD PTR _lpMagic$2[ebp]
  00060	e8 00 00 00 00	 call	 ??0CMagicInf@@QAE@XZ	; CMagicInf::CMagicInf

; 98   : 
; 99   : 		memset(&lpMagic, 0, sizeof(lpMagic));
; 100  : 
; 101  : 		lpMagic.m_Skill = 251;
; 102  : 		TMonsterSkillManager::UseMonsterSkill(aIndex, tIndex, 1, 2,&lpMagic);

  00065	8d 45 d8	 lea	 eax, DWORD PTR _lpMagic$2[ebp]
  00068	c7 45 fc 00 00
	00 00		 mov	 DWORD PTR __$EHRec$[ebp+8], 0
  0006f	50		 push	 eax
  00070	6a 02		 push	 2
  00072	6a 01		 push	 1
  00074	ff 75 f0	 push	 DWORD PTR _tIndex$1$[ebp]
  00077	0f 57 c0	 xorps	 xmm0, xmm0
  0007a	0f 11 45 d8	 movups	 XMMWORD PTR _lpMagic$2[ebp], xmm0
  0007e	57		 push	 edi
  0007f	66 0f d6 45 e8	 movq	 QWORD PTR _lpMagic$2[ebp+16], xmm0
  00084	c7 45 e0 fb 00
	00 00		 mov	 DWORD PTR _lpMagic$2[ebp+8], 251 ; 000000fbH
  0008b	e8 00 00 00 00	 call	 ?UseMonsterSkill@TMonsterSkillManager@@SAXHHHHPAVCMagicInf@@@Z ; TMonsterSkillManager::UseMonsterSkill
  00090	83 c4 14	 add	 esp, 20			; 00000014H

; 103  : 	}

  00093	c7 45 fc ff ff
	ff ff		 mov	 DWORD PTR __$EHRec$[ebp+8], -1
  0009a	8d 4d d8	 lea	 ecx, DWORD PTR _lpMagic$2[ebp]
  0009d	e8 00 00 00 00	 call	 ??1CMagicInf@@UAE@XZ	; CMagicInf::~CMagicInf
$LN3@SelupanAct:

; 104  : 	LogAddTD("[ RAKLION ][ IceStorm ] Skill Using : Index(%d) %s", aIndex,lpObj->Name);

  000a2	8d 46 5d	 lea	 eax, DWORD PTR [esi+93]
  000a5	50		 push	 eax
  000a6	57		 push	 edi
  000a7	68 00 00 00 00	 push	 OFFSET ??_C@_0DD@GKIFGDCG@?$FL?5RAKLION?5?$FN?$FL?5IceStorm?5?$FN?5Skill?5Us@
  000ac	ff 15 00 00 00
	00		 call	 DWORD PTR ?LogAddTD@@3P6AXPADZZA ; LogAddTD
  000b2	83 c4 0c	 add	 esp, 12			; 0000000cH

; 105  : }

  000b5	8b 4d f4	 mov	 ecx, DWORD PTR __$EHRec$[ebp]
  000b8	64 89 0d 00 00
	00 00		 mov	 DWORD PTR fs:0, ecx
  000bf	59		 pop	 ecx
  000c0	5f		 pop	 edi
  000c1	5e		 pop	 esi
  000c2	8b e5		 mov	 esp, ebp
  000c4	5d		 pop	 ebp
  000c5	c3		 ret	 0
_TEXT	ENDS
;	COMDAT text$x
text$x	SEGMENT
__unwindfunclet$?SelupanAct_IceStorm@CRaklionSelupan@@QAEXXZ$0:
  00000	8d 4d d8	 lea	 ecx, DWORD PTR _lpMagic$2[ebp]
  00003	e9 00 00 00 00	 jmp	 ??1CMagicInf@@UAE@XZ	; CMagicInf::~CMagicInf
__ehhandler$?SelupanAct_IceStorm@CRaklionSelupan@@QAEXXZ:
  00008	8b 54 24 08	 mov	 edx, DWORD PTR [esp+8]
  0000c	8d 42 0c	 lea	 eax, DWORD PTR [edx+12]
  0000f	8b 4a d8	 mov	 ecx, DWORD PTR [edx-40]
  00012	33 c8		 xor	 ecx, eax
  00014	e8 00 00 00 00	 call	 @__security_check_cookie@4
  00019	b8 00 00 00 00	 mov	 eax, OFFSET __ehfuncinfo$?SelupanAct_IceStorm@CRaklionSelupan@@QAEXXZ
  0001e	e9 00 00 00 00	 jmp	 ___CxxFrameHandler3
text$x	ENDS
?SelupanAct_IceStorm@CRaklionSelupan@@QAEXXZ ENDP	; CRaklionSelupan::SelupanAct_IceStorm
; Function compile flags: /Ogtp
; File c:\users\michel\desktop\source\gameserver\source\raklionselupan.cpp
;	COMDAT ?SelupanAct_PoisonAttack@CRaklionSelupan@@QAEXXZ
_TEXT	SEGMENT
_lpMagic$2 = -40					; size = 24
_tIndex$1$ = -16					; size = 4
__$EHRec$ = -12						; size = 12
?SelupanAct_PoisonAttack@CRaklionSelupan@@QAEXXZ PROC	; CRaklionSelupan::SelupanAct_PoisonAttack, COMDAT
; _this$ = ecx

; 59   : {

  00000	55		 push	 ebp
  00001	8b ec		 mov	 ebp, esp
  00003	6a ff		 push	 -1
  00005	68 00 00 00 00	 push	 __ehhandler$?SelupanAct_PoisonAttack@CRaklionSelupan@@QAEXXZ
  0000a	64 a1 00 00 00
	00		 mov	 eax, DWORD PTR fs:0
  00010	50		 push	 eax
  00011	83 ec 1c	 sub	 esp, 28			; 0000001cH
  00014	56		 push	 esi
  00015	57		 push	 edi
  00016	a1 00 00 00 00	 mov	 eax, DWORD PTR ___security_cookie
  0001b	33 c5		 xor	 eax, ebp
  0001d	50		 push	 eax
  0001e	8d 45 f4	 lea	 eax, DWORD PTR __$EHRec$[ebp]
  00021	64 a3 00 00 00
	00		 mov	 DWORD PTR fs:0, eax
  00027	8b f1		 mov	 esi, ecx

; 60   : 	int aIndex = this->GetSelupanObjIndex();

  00029	e8 00 00 00 00	 call	 ?GetSelupanObjIndex@CRaklionSelupan@@QAEHXZ ; CRaklionSelupan::GetSelupanObjIndex

; 61   : 	int tIndex = this->GetSelupanTargetIndex();

  0002e	8b ce		 mov	 ecx, esi
  00030	8b f8		 mov	 edi, eax
  00032	e8 00 00 00 00	 call	 ?GetSelupanTargetIndex@CRaklionSelupan@@QAEHXZ ; CRaklionSelupan::GetSelupanTargetIndex

; 62   : 
; 63   : 	LPOBJ lpObj = &gObj[aIndex];

  00037	69 f7 40 27 00
	00		 imul	 esi, edi, 10048
  0003d	89 45 f0	 mov	 DWORD PTR _tIndex$1$[ebp], eax
  00040	03 35 00 00 00
	00		 add	 esi, DWORD PTR ?gObj@@3PAUOBJECTSTRUCT@@A ; gObj

; 64   : 
; 65   : 
; 66   : 	if ( tIndex == -1 )

  00046	83 f8 ff	 cmp	 eax, -1
  00049	75 12		 jne	 SHORT $LN2@SelupanAct

; 67   : 	{
; 68   : 		tIndex = aIndex;
; 69   : 		TMonsterSkillManager::UseMonsterSkill(aIndex, tIndex, 1, 7, NULL);

  0004b	6a 00		 push	 0
  0004d	6a 07		 push	 7
  0004f	6a 01		 push	 1
  00051	57		 push	 edi
  00052	57		 push	 edi
  00053	e8 00 00 00 00	 call	 ?UseMonsterSkill@TMonsterSkillManager@@SAXHHHHPAVCMagicInf@@@Z ; TMonsterSkillManager::UseMonsterSkill
  00058	83 c4 14	 add	 esp, 20			; 00000014H

; 70   : 	}
; 71   : 	else

  0005b	eb 45		 jmp	 SHORT $LN3@SelupanAct
$LN2@SelupanAct:

; 72   : 	{
; 73   : 		CMagicInf lpMagic;

  0005d	8d 4d d8	 lea	 ecx, DWORD PTR _lpMagic$2[ebp]
  00060	e8 00 00 00 00	 call	 ??0CMagicInf@@QAE@XZ	; CMagicInf::CMagicInf

; 74   : 		memset(&lpMagic, 0, sizeof(lpMagic));
; 75   : 		lpMagic.m_Skill = 250;
; 76   : 		TMonsterSkillManager::UseMonsterSkill(aIndex, tIndex, 1, 1,&lpMagic);

  00065	8d 45 d8	 lea	 eax, DWORD PTR _lpMagic$2[ebp]
  00068	c7 45 fc 00 00
	00 00		 mov	 DWORD PTR __$EHRec$[ebp+8], 0
  0006f	50		 push	 eax
  00070	6a 01		 push	 1
  00072	6a 01		 push	 1
  00074	ff 75 f0	 push	 DWORD PTR _tIndex$1$[ebp]
  00077	0f 57 c0	 xorps	 xmm0, xmm0
  0007a	0f 11 45 d8	 movups	 XMMWORD PTR _lpMagic$2[ebp], xmm0
  0007e	57		 push	 edi
  0007f	66 0f d6 45 e8	 movq	 QWORD PTR _lpMagic$2[ebp+16], xmm0
  00084	c7 45 e0 fa 00
	00 00		 mov	 DWORD PTR _lpMagic$2[ebp+8], 250 ; 000000faH
  0008b	e8 00 00 00 00	 call	 ?UseMonsterSkill@TMonsterSkillManager@@SAXHHHHPAVCMagicInf@@@Z ; TMonsterSkillManager::UseMonsterSkill
  00090	83 c4 14	 add	 esp, 20			; 00000014H

; 77   : 	}

  00093	c7 45 fc ff ff
	ff ff		 mov	 DWORD PTR __$EHRec$[ebp+8], -1
  0009a	8d 4d d8	 lea	 ecx, DWORD PTR _lpMagic$2[ebp]
  0009d	e8 00 00 00 00	 call	 ??1CMagicInf@@UAE@XZ	; CMagicInf::~CMagicInf
$LN3@SelupanAct:

; 78   : 
; 79   : 	LogAddTD("[ RAKLION ][ PoisonAttack ] Skill Using : Index(%d) %s", aIndex,lpObj->Name);

  000a2	8d 46 5d	 lea	 eax, DWORD PTR [esi+93]
  000a5	50		 push	 eax
  000a6	57		 push	 edi
  000a7	68 00 00 00 00	 push	 OFFSET ??_C@_0DH@HBHGOP@?$FL?5RAKLION?5?$FN?$FL?5PoisonAttack?5?$FN?5Skil@
  000ac	ff 15 00 00 00
	00		 call	 DWORD PTR ?LogAddTD@@3P6AXPADZZA ; LogAddTD
  000b2	83 c4 0c	 add	 esp, 12			; 0000000cH

; 80   : 
; 81   : }

  000b5	8b 4d f4	 mov	 ecx, DWORD PTR __$EHRec$[ebp]
  000b8	64 89 0d 00 00
	00 00		 mov	 DWORD PTR fs:0, ecx
  000bf	59		 pop	 ecx
  000c0	5f		 pop	 edi
  000c1	5e		 pop	 esi
  000c2	8b e5		 mov	 esp, ebp
  000c4	5d		 pop	 ebp
  000c5	c3		 ret	 0
_TEXT	ENDS
;	COMDAT text$x
text$x	SEGMENT
__unwindfunclet$?SelupanAct_PoisonAttack@CRaklionSelupan@@QAEXXZ$0:
  00000	8d 4d d8	 lea	 ecx, DWORD PTR _lpMagic$2[ebp]
  00003	e9 00 00 00 00	 jmp	 ??1CMagicInf@@UAE@XZ	; CMagicInf::~CMagicInf
__ehhandler$?SelupanAct_PoisonAttack@CRaklionSelupan@@QAEXXZ:
  00008	8b 54 24 08	 mov	 edx, DWORD PTR [esp+8]
  0000c	8d 42 0c	 lea	 eax, DWORD PTR [edx+12]
  0000f	8b 4a d8	 mov	 ecx, DWORD PTR [edx-40]
  00012	33 c8		 xor	 ecx, eax
  00014	e8 00 00 00 00	 call	 @__security_check_cookie@4
  00019	b8 00 00 00 00	 mov	 eax, OFFSET __ehfuncinfo$?SelupanAct_PoisonAttack@CRaklionSelupan@@QAEXXZ
  0001e	e9 00 00 00 00	 jmp	 ___CxxFrameHandler3
text$x	ENDS
?SelupanAct_PoisonAttack@CRaklionSelupan@@QAEXXZ ENDP	; CRaklionSelupan::SelupanAct_PoisonAttack
; Function compile flags: /Ogtp
; File c:\users\michel\desktop\source\gameserver\source\raklionselupan.cpp
;	COMDAT ?SelupanAct_FirstSkill@CRaklionSelupan@@QAEXXZ
_TEXT	SEGMENT
_lpMagic$2 = -40					; size = 24
_aIndex$1$ = -16					; size = 4
__$EHRec$ = -12						; size = 12
?SelupanAct_FirstSkill@CRaklionSelupan@@QAEXXZ PROC	; CRaklionSelupan::SelupanAct_FirstSkill, COMDAT
; _this$ = ecx

; 36   : {

  00000	55		 push	 ebp
  00001	8b ec		 mov	 ebp, esp
  00003	6a ff		 push	 -1
  00005	68 00 00 00 00	 push	 __ehhandler$?SelupanAct_FirstSkill@CRaklionSelupan@@QAEXXZ
  0000a	64 a1 00 00 00
	00		 mov	 eax, DWORD PTR fs:0
  00010	50		 push	 eax
  00011	83 ec 1c	 sub	 esp, 28			; 0000001cH
  00014	56		 push	 esi
  00015	57		 push	 edi
  00016	a1 00 00 00 00	 mov	 eax, DWORD PTR ___security_cookie
  0001b	33 c5		 xor	 eax, ebp
  0001d	50		 push	 eax
  0001e	8d 45 f4	 lea	 eax, DWORD PTR __$EHRec$[ebp]
  00021	64 a3 00 00 00
	00		 mov	 DWORD PTR fs:0, eax
  00027	8b f1		 mov	 esi, ecx

; 37   : 	int aIndex = this->GetSelupanObjIndex();

  00029	e8 00 00 00 00	 call	 ?GetSelupanObjIndex@CRaklionSelupan@@QAEHXZ ; CRaklionSelupan::GetSelupanObjIndex
  0002e	8b f8		 mov	 edi, eax

; 38   : 	int tIndex = this->GetSelupanTargetIndex();

  00030	8b ce		 mov	 ecx, esi
  00032	89 7d f0	 mov	 DWORD PTR _aIndex$1$[ebp], edi
  00035	e8 00 00 00 00	 call	 ?GetSelupanTargetIndex@CRaklionSelupan@@QAEHXZ ; CRaklionSelupan::GetSelupanTargetIndex

; 39   : 	
; 40   : 	LPOBJ lpObj = &gObj[aIndex];

  0003a	69 ff 40 27 00
	00		 imul	 edi, edi, 10048

; 41   : 
; 42   : 	if ( tIndex == -1 )
; 43   : 	{
; 44   : 		tIndex = aIndex;
; 45   : 	}
; 46   : 
; 47   : 	//if ( tIndex != -1 )
; 48   : 	{
; 49   : 		CMagicInf lpMagic;

  00040	8d 4d d8	 lea	 ecx, DWORD PTR _lpMagic$2[ebp]
  00043	8b f0		 mov	 esi, eax
  00045	03 3d 00 00 00
	00		 add	 edi, DWORD PTR ?gObj@@3PAUOBJECTSTRUCT@@A ; gObj
  0004b	83 fe ff	 cmp	 esi, -1
  0004e	0f 44 75 f0	 cmove	 esi, DWORD PTR _aIndex$1$[ebp]
  00052	e8 00 00 00 00	 call	 ??0CMagicInf@@QAE@XZ	; CMagicInf::CMagicInf

; 50   : 		memset(&lpMagic, 0, sizeof(lpMagic));
; 51   : 		lpMagic.m_Skill = 253;
; 52   : 		TMonsterSkillManager::UseMonsterSkill(aIndex, tIndex, 31, 0,&lpMagic);

  00057	8d 45 d8	 lea	 eax, DWORD PTR _lpMagic$2[ebp]
  0005a	c7 45 fc 00 00
	00 00		 mov	 DWORD PTR __$EHRec$[ebp+8], 0
  00061	50		 push	 eax
  00062	6a 00		 push	 0
  00064	6a 1f		 push	 31			; 0000001fH
  00066	0f 57 c0	 xorps	 xmm0, xmm0
  00069	56		 push	 esi
  0006a	8b 75 f0	 mov	 esi, DWORD PTR _aIndex$1$[ebp]
  0006d	0f 11 45 d8	 movups	 XMMWORD PTR _lpMagic$2[ebp], xmm0
  00071	56		 push	 esi
  00072	66 0f d6 45 e8	 movq	 QWORD PTR _lpMagic$2[ebp+16], xmm0
  00077	c7 45 e0 fd 00
	00 00		 mov	 DWORD PTR _lpMagic$2[ebp+8], 253 ; 000000fdH
  0007e	e8 00 00 00 00	 call	 ?UseMonsterSkill@TMonsterSkillManager@@SAXHHHHPAVCMagicInf@@@Z ; TMonsterSkillManager::UseMonsterSkill
  00083	83 c4 14	 add	 esp, 20			; 00000014H

; 53   : 	}

  00086	c7 45 fc ff ff
	ff ff		 mov	 DWORD PTR __$EHRec$[ebp+8], -1
  0008d	8d 4d d8	 lea	 ecx, DWORD PTR _lpMagic$2[ebp]
  00090	e8 00 00 00 00	 call	 ??1CMagicInf@@UAE@XZ	; CMagicInf::~CMagicInf

; 54   : 
; 55   : 	LogAddTD("[ RAKLION ][ FirstSkill ] Skill Using : Index(%d) %s", aIndex,lpObj->Name);

  00095	8d 47 5d	 lea	 eax, DWORD PTR [edi+93]
  00098	50		 push	 eax
  00099	56		 push	 esi
  0009a	68 00 00 00 00	 push	 OFFSET ??_C@_0DF@DHONPPND@?$FL?5RAKLION?5?$FN?$FL?5FirstSkill?5?$FN?5Skill?5@
  0009f	ff 15 00 00 00
	00		 call	 DWORD PTR ?LogAddTD@@3P6AXPADZZA ; LogAddTD
  000a5	83 c4 0c	 add	 esp, 12			; 0000000cH

; 56   : }

  000a8	8b 4d f4	 mov	 ecx, DWORD PTR __$EHRec$[ebp]
  000ab	64 89 0d 00 00
	00 00		 mov	 DWORD PTR fs:0, ecx
  000b2	59		 pop	 ecx
  000b3	5f		 pop	 edi
  000b4	5e		 pop	 esi
  000b5	8b e5		 mov	 esp, ebp
  000b7	5d		 pop	 ebp
  000b8	c3		 ret	 0
_TEXT	ENDS
;	COMDAT text$x
text$x	SEGMENT
__unwindfunclet$?SelupanAct_FirstSkill@CRaklionSelupan@@QAEXXZ$0:
  00000	8d 4d d8	 lea	 ecx, DWORD PTR _lpMagic$2[ebp]
  00003	e9 00 00 00 00	 jmp	 ??1CMagicInf@@UAE@XZ	; CMagicInf::~CMagicInf
__ehhandler$?SelupanAct_FirstSkill@CRaklionSelupan@@QAEXXZ:
  00008	8b 54 24 08	 mov	 edx, DWORD PTR [esp+8]
  0000c	8d 42 0c	 lea	 eax, DWORD PTR [edx+12]
  0000f	8b 4a d8	 mov	 ecx, DWORD PTR [edx-40]
  00012	33 c8		 xor	 ecx, eax
  00014	e8 00 00 00 00	 call	 @__security_check_cookie@4
  00019	b8 00 00 00 00	 mov	 eax, OFFSET __ehfuncinfo$?SelupanAct_FirstSkill@CRaklionSelupan@@QAEXXZ
  0001e	e9 00 00 00 00	 jmp	 ___CxxFrameHandler3
text$x	ENDS
?SelupanAct_FirstSkill@CRaklionSelupan@@QAEXXZ ENDP	; CRaklionSelupan::SelupanAct_FirstSkill
; Function compile flags: /Ogtp
; File c:\users\michel\desktop\source\gameserver\source\raklionselupan.cpp
;	COMDAT ?ClearData@CRaklionSelupan@@QAEXXZ
_TEXT	SEGMENT
?ClearData@CRaklionSelupan@@QAEXXZ PROC			; CRaklionSelupan::ClearData, COMDAT
; _this$ = ecx

; 29   : 	this->m_iSelupanObjIndex	= -1;

  00000	c7 41 04 ff ff
	ff ff		 mov	 DWORD PTR [ecx+4], -1

; 30   : 	this->m_iBerserkIndex		= 0;

  00007	c7 81 94 0c 00
	00 00 00 00 00	 mov	 DWORD PTR [ecx+3220], 0

; 31   : 	this->m_iBossAttackMin		= 0;

  00011	c7 81 98 0c 00
	00 00 00 00 00	 mov	 DWORD PTR [ecx+3224], 0

; 32   : 	this->m_iBossAttackMax		= 0;

  0001b	c7 81 9c 0c 00
	00 00 00 00 00	 mov	 DWORD PTR [ecx+3228], 0

; 33   : }

  00025	c3		 ret	 0
?ClearData@CRaklionSelupan@@QAEXXZ ENDP			; CRaklionSelupan::ClearData
_TEXT	ENDS
; Function compile flags: /Ogtp
; File c:\users\michel\desktop\source\gameserver\source\raklionselupan.cpp
; File c:\users\michel\desktop\source\gameserver\source\raklionobjinfo.h
; File c:\users\michel\desktop\source\gameserver\source\raklionselupan.cpp
;	COMDAT ??1CRaklionSelupan@@UAE@XZ
_TEXT	SEGMENT
??1CRaklionSelupan@@UAE@XZ PROC				; CRaklionSelupan::~CRaklionSelupan, COMDAT
; _this$ = ecx

; 23   : {

  00000	c7 01 00 00 00
	00		 mov	 DWORD PTR [ecx], OFFSET ??_7CRaklionSelupan@@6B@
; File c:\users\michel\desktop\source\gameserver\source\raklionobjinfo.h

; 16   : 	virtual ~CRaklionObjInfo() { return; }

  00006	c7 41 08 00 00
	00 00		 mov	 DWORD PTR [ecx+8], OFFSET ??_7CRaklionObjInfo@@6B@
; File c:\users\michel\desktop\source\gameserver\source\raklionselupan.cpp

; 25   : }

  0000d	c3		 ret	 0
??1CRaklionSelupan@@UAE@XZ ENDP				; CRaklionSelupan::~CRaklionSelupan
_TEXT	ENDS
; Function compile flags: /Ogtp
; File c:\users\michel\desktop\source\gameserver\source\raklionselupan.cpp
; File c:\users\michel\desktop\source\gameserver\source\raklionobjinfo.h
; File c:\users\michel\desktop\source\gameserver\source\raklionselupan.cpp
; File c:\users\michel\desktop\source\gameserver\source\raklionobjinfo.h
; File c:\users\michel\desktop\source\gameserver\source\raklionselupan.cpp
; File c:\users\michel\desktop\source\gameserver\source\raklionobjinfo.h
; File c:\users\michel\desktop\source\gameserver\source\raklionselupan.cpp
;	COMDAT ??0CRaklionSelupan@@QAE@XZ
_TEXT	SEGMENT
_this$ = -4						; size = 4
??0CRaklionSelupan@@QAE@XZ PROC				; CRaklionSelupan::CRaklionSelupan, COMDAT
; _this$ = ecx

; 18   : {

  00000	55		 push	 ebp
  00001	8b ec		 mov	 ebp, esp
  00003	51		 push	 ecx
  00004	56		 push	 esi
  00005	8b f1		 mov	 esi, ecx
; File c:\users\michel\desktop\source\gameserver\source\raklionobjinfo.h

; 22   : 			this->m_iObjIndex[iCount] = -1 ;// 0060C2A0;

  00007	83 c8 ff	 or	 eax, -1
  0000a	57		 push	 edi
  0000b	b9 20 03 00 00	 mov	 ecx, 800		; 00000320H
; File c:\users\michel\desktop\source\gameserver\source\raklionselupan.cpp

; 18   : {

  00010	89 75 fc	 mov	 DWORD PTR _this$[ebp], esi
  00013	c7 06 00 00 00
	00		 mov	 DWORD PTR [esi], OFFSET ??_7CRaklionSelupan@@6B@
  00019	8d 7e 10	 lea	 edi, DWORD PTR [esi+16]
; File c:\users\michel\desktop\source\gameserver\source\raklionobjinfo.h

; 15   : 	CRaklionObjInfo() { this->Reset(); }

  0001c	c7 46 08 00 00
	00 00		 mov	 DWORD PTR [esi+8], OFFSET ??_7CRaklionObjInfo@@6B@

; 22   : 			this->m_iObjIndex[iCount] = -1 ;// 0060C2A0;

  00023	f3 ab		 rep stosd
; File c:\users\michel\desktop\source\gameserver\source\raklionselupan.cpp

; 19   : 	this->ClearData();

  00025	8b ce		 mov	 ecx, esi
; File c:\users\michel\desktop\source\gameserver\source\raklionobjinfo.h

; 25   : 		this->m_iObjCount = 0;

  00027	c7 46 0c 00 00
	00 00		 mov	 DWORD PTR [esi+12], 0
; File c:\users\michel\desktop\source\gameserver\source\raklionselupan.cpp

; 19   : 	this->ClearData();

  0002e	e8 00 00 00 00	 call	 ?ClearData@CRaklionSelupan@@QAEXXZ ; CRaklionSelupan::ClearData
  00033	5f		 pop	 edi

; 20   : }

  00034	8b c6		 mov	 eax, esi
  00036	5e		 pop	 esi
  00037	8b e5		 mov	 esp, ebp
  00039	5d		 pop	 ebp
  0003a	c3		 ret	 0
??0CRaklionSelupan@@QAE@XZ ENDP				; CRaklionSelupan::CRaklionSelupan
_TEXT	ENDS
; Function compile flags: /Ogtp
; File c:\users\michel\desktop\source\gameserver\source\raklionobjinfo.h
;	COMDAT ??_GCRaklionObjInfo@@UAEPAXI@Z
_TEXT	SEGMENT
___flags$ = 8						; size = 4
??_GCRaklionObjInfo@@UAEPAXI@Z PROC			; CRaklionObjInfo::`scalar deleting destructor', COMDAT
; _this$ = ecx
  00000	55		 push	 ebp
  00001	8b ec		 mov	 ebp, esp
  00003	f6 45 08 01	 test	 BYTE PTR ___flags$[ebp], 1
  00007	56		 push	 esi
  00008	8b f1		 mov	 esi, ecx

; 16   : 	virtual ~CRaklionObjInfo() { return; }

  0000a	c7 06 00 00 00
	00		 mov	 DWORD PTR [esi], OFFSET ??_7CRaklionObjInfo@@6B@
  00010	74 0e		 je	 SHORT $LN7@scalar
  00012	68 88 0c 00 00	 push	 3208			; 00000c88H
  00017	56		 push	 esi
  00018	e8 00 00 00 00	 call	 ??3@YAXPAXI@Z		; operator delete
  0001d	83 c4 08	 add	 esp, 8
$LN7@scalar:
  00020	8b c6		 mov	 eax, esi
  00022	5e		 pop	 esi
  00023	5d		 pop	 ebp
  00024	c2 04 00	 ret	 4
??_GCRaklionObjInfo@@UAEPAXI@Z ENDP			; CRaklionObjInfo::`scalar deleting destructor'
_TEXT	ENDS
; Function compile flags: /Ogtp
; File c:\users\michel\desktop\source\gameserver\source\raklionobjinfo.h
;	COMDAT ?Reset@CRaklionObjInfo@@QAEXXZ
_TEXT	SEGMENT
?Reset@CRaklionObjInfo@@QAEXXZ PROC			; CRaklionObjInfo::Reset, COMDAT
; _this$ = ecx

; 19   : 	{

  00000	8b d1		 mov	 edx, ecx

; 20   : 		for ( int iCount=0;iCount<MAX_RAKLION_OBJ_INDEX;iCount++)
; 21   : 		{
; 22   : 			this->m_iObjIndex[iCount] = -1 ;// 0060C2A0;

  00002	83 c8 ff	 or	 eax, -1
  00005	57		 push	 edi
  00006	b9 20 03 00 00	 mov	 ecx, 800		; 00000320H
  0000b	8d 7a 08	 lea	 edi, DWORD PTR [edx+8]
  0000e	f3 ab		 rep stosd

; 23   : 		}
; 24   : 
; 25   : 		this->m_iObjCount = 0;

  00010	c7 42 04 00 00
	00 00		 mov	 DWORD PTR [edx+4], 0
  00017	5f		 pop	 edi

; 26   : 	}

  00018	c3		 ret	 0
?Reset@CRaklionObjInfo@@QAEXXZ ENDP			; CRaklionObjInfo::Reset
_TEXT	ENDS
; Function compile flags: /Ogtp
; File c:\users\michel\desktop\source\gameserver\source\raklionobjinfo.h
;	COMDAT ??1CRaklionObjInfo@@UAE@XZ
_TEXT	SEGMENT
??1CRaklionObjInfo@@UAE@XZ PROC				; CRaklionObjInfo::~CRaklionObjInfo, COMDAT
; _this$ = ecx

; 16   : 	virtual ~CRaklionObjInfo() { return; }

  00000	c7 01 00 00 00
	00		 mov	 DWORD PTR [ecx], OFFSET ??_7CRaklionObjInfo@@6B@
  00006	c3		 ret	 0
??1CRaklionObjInfo@@UAE@XZ ENDP				; CRaklionObjInfo::~CRaklionObjInfo
_TEXT	ENDS
; Function compile flags: /Ogtp
; File c:\users\michel\desktop\source\gameserver\source\raklionobjinfo.h
;	COMDAT ??0CRaklionObjInfo@@QAE@XZ
_TEXT	SEGMENT
??0CRaklionObjInfo@@QAE@XZ PROC				; CRaklionObjInfo::CRaklionObjInfo, COMDAT
; _this$ = ecx

; 15   : 	CRaklionObjInfo() { this->Reset(); }

  00000	8b d1		 mov	 edx, ecx

; 16   : 	virtual ~CRaklionObjInfo() { return; }
; 17   : 
; 18   : 	void Reset()
; 19   : 	{
; 20   : 		for ( int iCount=0;iCount<MAX_RAKLION_OBJ_INDEX;iCount++)
; 21   : 		{
; 22   : 			this->m_iObjIndex[iCount] = -1 ;// 0060C2A0;

  00002	83 c8 ff	 or	 eax, -1
  00005	57		 push	 edi
  00006	b9 20 03 00 00	 mov	 ecx, 800		; 00000320H

; 15   : 	CRaklionObjInfo() { this->Reset(); }

  0000b	8d 7a 08	 lea	 edi, DWORD PTR [edx+8]
  0000e	c7 02 00 00 00
	00		 mov	 DWORD PTR [edx], OFFSET ??_7CRaklionObjInfo@@6B@

; 16   : 	virtual ~CRaklionObjInfo() { return; }
; 17   : 
; 18   : 	void Reset()
; 19   : 	{
; 20   : 		for ( int iCount=0;iCount<MAX_RAKLION_OBJ_INDEX;iCount++)
; 21   : 		{
; 22   : 			this->m_iObjIndex[iCount] = -1 ;// 0060C2A0;

  00014	f3 ab		 rep stosd

; 23   : 		}
; 24   : 
; 25   : 		this->m_iObjCount = 0;

  00016	c7 42 04 00 00
	00 00		 mov	 DWORD PTR [edx+4], 0

; 15   : 	CRaklionObjInfo() { this->Reset(); }

  0001d	8b c2		 mov	 eax, edx
  0001f	5f		 pop	 edi
  00020	c3		 ret	 0
??0CRaklionObjInfo@@QAE@XZ ENDP				; CRaklionObjInfo::CRaklionObjInfo
_TEXT	ENDS
; Function compile flags: /Ogtp
; File c:\users\michel\desktop\source\gameserver\source\raklionselupan.cpp
;	COMDAT ?__empty_global_delete@@YAXPAXI@Z
_TEXT	SEGMENT
___formal$ = 8						; size = 4
___formal$ = 12						; size = 4
?__empty_global_delete@@YAXPAXI@Z PROC			; __empty_global_delete, COMDAT

; 575  : }

  00000	c3		 ret	 0
?__empty_global_delete@@YAXPAXI@Z ENDP			; __empty_global_delete
_TEXT	ENDS
; Function compile flags: /Ogtp
; File c:\users\michel\desktop\source\gameserver\source\raklionselupan.cpp
;	COMDAT ?__empty_global_delete@@YAXPAX@Z
_TEXT	SEGMENT
___formal$ = 8						; size = 4
?__empty_global_delete@@YAXPAX@Z PROC			; __empty_global_delete, COMDAT

  00000	c3		 ret	 0
?__empty_global_delete@@YAXPAX@Z ENDP			; __empty_global_delete
_TEXT	ENDS
END
