; Listing generated by Microsoft (R) Optimizing Compiler Version 19.00.23506.0 

	TITLE	C:\Users\Michel\Desktop\Source\GameServer\Source\RaklionUtil.cpp
	.686P
	.XMM
	include listing.inc
	.model	flat

INCLUDELIB LIBCMT
INCLUDELIB OLDNAMES

PUBLIC	?__empty_global_delete@@YAXPAX@Z		; __empty_global_delete
PUBLIC	?__empty_global_delete@@YAXPAXI@Z		; __empty_global_delete
PUBLIC	___local_stdio_printf_options
PUBLIC	??$__vcrt_va_start_verify_argument_type@PAD@@YAXXZ ; __vcrt_va_start_verify_argument_type<char *>
PUBLIC	??1OBJECTSTRUCT@@QAE@XZ				; OBJECTSTRUCT::~OBJECTSTRUCT
PUBLIC	??_EOBJECTSTRUCT@@QAEPAXI@Z			; OBJECTSTRUCT::`vector deleting destructor'
PUBLIC	??0CRaklionUtil@@QAE@XZ				; CRaklionUtil::CRaklionUtil
PUBLIC	??1CRaklionUtil@@UAE@XZ				; CRaklionUtil::~CRaklionUtil
PUBLIC	?NotifyRaklionChangeState@CRaklionUtil@@QAEXHH@Z ; CRaklionUtil::NotifyRaklionChangeState
PUBLIC	?NotifyRaklionSuccessValue@CRaklionUtil@@QAEXH@Z ; CRaklionUtil::NotifyRaklionSuccessValue
PUBLIC	?NotifyRaklionCurrentState@CRaklionUtil@@QAEXHEE@Z ; CRaklionUtil::NotifyRaklionCurrentState
PUBLIC	?NotifyRaklionWideAreaAttack@CRaklionUtil@@QAEXHHH@Z ; CRaklionUtil::NotifyRaklionWideAreaAttack
PUBLIC	?NotifyRaklionUserMonsterCount@CRaklionUtil@@QAEXEE@Z ; CRaklionUtil::NotifyRaklionUserMonsterCount
PUBLIC	?SendMsgUser@CRaklionUtil@@QAAXPADZZ		; CRaklionUtil::SendMsgUser
PUBLIC	?SendMsgRaklionBossMapUser@CRaklionUtil@@QAAXPADZZ ; CRaklionUtil::SendMsgRaklionBossMapUser
PUBLIC	?SendDataRaklionBossMapUser@CRaklionUtil@@QAEXPAEH@Z ; CRaklionUtil::SendDataRaklionBossMapUser
PUBLIC	?SendMsgRaklionMapUser@CRaklionUtil@@QAAXPADZZ	; CRaklionUtil::SendMsgRaklionMapUser
PUBLIC	?SendDataRaklionMapUser@CRaklionUtil@@QAEXPAEH@Z ; CRaklionUtil::SendDataRaklionMapUser
PUBLIC	?SendMsgAllUser@CRaklionUtil@@QAAXPADZZ		; CRaklionUtil::SendMsgAllUser
PUBLIC	?SendDataAllUser@CRaklionUtil@@QAEXPAEH@Z	; CRaklionUtil::SendDataAllUser
PUBLIC	?SendMsgToUser@CRaklionUtil@@QAAXHPADZZ		; CRaklionUtil::SendMsgToUser
PUBLIC	?SendDataToUser@CRaklionUtil@@QAEXHPAEH@Z	; CRaklionUtil::SendDataToUser
PUBLIC	?SendRaklionChattingMsg@CRaklionUtil@@QAAXHPADZZ ; CRaklionUtil::SendRaklionChattingMsg
PUBLIC	??_GCRaklionUtil@@UAEPAXI@Z			; CRaklionUtil::`scalar deleting destructor'
PUBLIC	?_OptionsStorage@?1??__local_stdio_printf_options@@9@4_KA ; `__local_stdio_printf_options'::`2'::_OptionsStorage
PUBLIC	??_7CRaklionUtil@@6B@				; CRaklionUtil::`vftable'
PUBLIC	?g_RaklionUtil@@3VCRaklionUtil@@A		; g_RaklionUtil
PUBLIC	??_R4CRaklionUtil@@6B@				; CRaklionUtil::`RTTI Complete Object Locator'
PUBLIC	??_R0?AVCRaklionUtil@@@8			; CRaklionUtil `RTTI Type Descriptor'
PUBLIC	??_R3CRaklionUtil@@8				; CRaklionUtil::`RTTI Class Hierarchy Descriptor'
PUBLIC	??_R2CRaklionUtil@@8				; CRaklionUtil::`RTTI Base Class Array'
PUBLIC	??_R1A@?0A@EA@CRaklionUtil@@8			; CRaklionUtil::`RTTI Base Class Descriptor at (0,-1,0,64)'
EXTRN	??_M@YGXPAXIIP6EX0@Z@Z:PROC			; `eh vector destructor iterator'
EXTRN	??3@YAXPAXI@Z:PROC				; operator delete
EXTRN	??_V@YAXPAXI@Z:PROC				; operator delete[]
EXTRN	_atexit:PROC
EXTRN	___stdio_common_vsprintf:PROC
EXTRN	??1CSkillDelay@@UAE@XZ:PROC			; CSkillDelay::~CSkillDelay
EXTRN	?DataSend@@YAHHPAEK@Z:PROC			; DataSend
EXTRN	??1TMonsterAIAgro@@UAE@XZ:PROC			; TMonsterAIAgro::~TMonsterAIAgro
EXTRN	?PHeadSubSetB@@YAXPAEEEH@Z:PROC			; PHeadSubSetB
EXTRN	??_ECRaklionUtil@@UAEPAXI@Z:PROC		; CRaklionUtil::`vector deleting destructor'
EXTRN	?MakeNoticeMsg@TNotice@@SAXPAXEPAD@Z:PROC	; TNotice::MakeNoticeMsg
EXTRN	?SendNoticeToAllUser@TNotice@@SAXPAX@Z:PROC	; TNotice::SendNoticeToAllUser
EXTRN	?SendNoticeToUser@TNotice@@SAXHPAX@Z:PROC	; TNotice::SendNoticeToUser
EXTRN	?GCServerMsgStringSend@TNotice@@SAXPADHE@Z:PROC	; TNotice::GCServerMsgStringSend
EXTRN	@__security_check_cookie@4:PROC
EXTRN	___CxxFrameHandler3:PROC
EXTRN	_memset:PROC
EXTRN	??_7type_info@@6B@:QWORD			; type_info::`vftable'
EXTRN	?gObj@@3PAUOBJECTSTRUCT@@A:DWORD		; gObj
EXTRN	?g_RaklionBattleUserMng@@3VCRaklionBattleUserMng@@A:BYTE ; g_RaklionBattleUserMng
EXTRN	___security_cookie:DWORD
;	COMDAT ?_OptionsStorage@?1??__local_stdio_printf_options@@9@4_KA
_BSS	SEGMENT
?_OptionsStorage@?1??__local_stdio_printf_options@@9@4_KA DQ 01H DUP (?) ; `__local_stdio_printf_options'::`2'::_OptionsStorage
_BSS	ENDS
_BSS	SEGMENT
?g_RaklionUtil@@3VCRaklionUtil@@A DD 01H DUP (?)	; g_RaklionUtil
_BSS	ENDS
CRT$XCU	SEGMENT
?g_RaklionUtil$initializer$@@3P6AXXZA DD FLAT:??__Eg_RaklionUtil@@YAXXZ ; g_RaklionUtil$initializer$
CRT$XCU	ENDS
;	COMDAT ??_R1A@?0A@EA@CRaklionUtil@@8
rdata$r	SEGMENT
??_R1A@?0A@EA@CRaklionUtil@@8 DD FLAT:??_R0?AVCRaklionUtil@@@8 ; CRaklionUtil::`RTTI Base Class Descriptor at (0,-1,0,64)'
	DD	00H
	DD	00H
	DD	0ffffffffH
	DD	00H
	DD	040H
	DD	FLAT:??_R3CRaklionUtil@@8
rdata$r	ENDS
;	COMDAT ??_R2CRaklionUtil@@8
rdata$r	SEGMENT
??_R2CRaklionUtil@@8 DD FLAT:??_R1A@?0A@EA@CRaklionUtil@@8 ; CRaklionUtil::`RTTI Base Class Array'
rdata$r	ENDS
;	COMDAT ??_R3CRaklionUtil@@8
rdata$r	SEGMENT
??_R3CRaklionUtil@@8 DD 00H				; CRaklionUtil::`RTTI Class Hierarchy Descriptor'
	DD	00H
	DD	01H
	DD	FLAT:??_R2CRaklionUtil@@8
rdata$r	ENDS
;	COMDAT ??_R0?AVCRaklionUtil@@@8
data$r	SEGMENT
??_R0?AVCRaklionUtil@@@8 DD FLAT:??_7type_info@@6B@	; CRaklionUtil `RTTI Type Descriptor'
	DD	00H
	DB	'.?AVCRaklionUtil@@', 00H
data$r	ENDS
;	COMDAT ??_R4CRaklionUtil@@6B@
rdata$r	SEGMENT
??_R4CRaklionUtil@@6B@ DD 00H				; CRaklionUtil::`RTTI Complete Object Locator'
	DD	00H
	DD	00H
	DD	FLAT:??_R0?AVCRaklionUtil@@@8
	DD	FLAT:??_R3CRaklionUtil@@8
rdata$r	ENDS
;	COMDAT ??_7CRaklionUtil@@6B@
CONST	SEGMENT
??_7CRaklionUtil@@6B@ DD FLAT:??_R4CRaklionUtil@@6B@	; CRaklionUtil::`vftable'
	DD	FLAT:??_ECRaklionUtil@@UAEPAXI@Z
CONST	ENDS
;	COMDAT xdata$x
xdata$x	SEGMENT
__ehfuncinfo$??_EOBJECTSTRUCT@@QAEPAXI@Z DD 019930522H
	DD	00H
	DD	00H
	DD	2 DUP(00H)
	DD	2 DUP(00H)
	DD	00H
	DD	05H
xdata$x	ENDS
; Function compile flags: /Ogtp
;	COMDAT ??__Fg_RaklionUtil@@YAXXZ
text$yd	SEGMENT
??__Fg_RaklionUtil@@YAXXZ PROC				; `dynamic atexit destructor for 'g_RaklionUtil'', COMDAT
  00000	b9 00 00 00 00	 mov	 ecx, OFFSET ?g_RaklionUtil@@3VCRaklionUtil@@A ; g_RaklionUtil
  00005	e9 00 00 00 00	 jmp	 ??1CRaklionUtil@@UAE@XZ	; CRaklionUtil::~CRaklionUtil
??__Fg_RaklionUtil@@YAXXZ ENDP				; `dynamic atexit destructor for 'g_RaklionUtil''
text$yd	ENDS
; Function compile flags: /Ogtp
; File c:\users\michel\desktop\source\gameserver\source\raklionutil.cpp
;	COMDAT ??__Eg_RaklionUtil@@YAXXZ
text$di	SEGMENT
??__Eg_RaklionUtil@@YAXXZ PROC				; `dynamic initializer for 'g_RaklionUtil'', COMDAT

; 16   : CRaklionUtil g_RaklionUtil;

  00000	b9 00 00 00 00	 mov	 ecx, OFFSET ?g_RaklionUtil@@3VCRaklionUtil@@A ; g_RaklionUtil
  00005	e8 00 00 00 00	 call	 ??0CRaklionUtil@@QAE@XZ	; CRaklionUtil::CRaklionUtil
  0000a	68 00 00 00 00	 push	 OFFSET ??__Fg_RaklionUtil@@YAXXZ ; `dynamic atexit destructor for 'g_RaklionUtil''
  0000f	e8 00 00 00 00	 call	 _atexit
  00014	59		 pop	 ecx
  00015	c3		 ret	 0
??__Eg_RaklionUtil@@YAXXZ ENDP				; `dynamic initializer for 'g_RaklionUtil''
text$di	ENDS
; Function compile flags: /Ogtp
; File c:\program files (x86)\microsoft visual studio 14.0\vc\include\vector
;	COMDAT ??A?$vector@HV?$allocator@H@std@@@std@@QAEAAHI@Z
_TEXT	SEGMENT
__Pos$ = 8						; size = 4
??A?$vector@HV?$allocator@H@std@@@std@@QAEAAHI@Z PROC	; std::vector<int,std::allocator<int> >::operator[], COMDAT
; _this$ = ecx

; 1228 : 		{	// subscript mutable sequence

  00000	55		 push	 ebp
  00001	8b ec		 mov	 ebp, esp

; 1229 :  #if _ITERATOR_DEBUG_LEVEL == 2
; 1230 : 		if (size() <= _Pos)
; 1231 : 			{	// report error
; 1232 : 			_DEBUG_ERROR("vector subscript out of range");
; 1233 : 			_SCL_SECURE_OUT_OF_RANGE;
; 1234 : 			}
; 1235 : 
; 1236 :  #elif _ITERATOR_DEBUG_LEVEL == 1
; 1237 : 		_SCL_SECURE_VALIDATE_RANGE(_Pos < size());
; 1238 :  #endif /* _ITERATOR_DEBUG_LEVEL */
; 1239 : 
; 1240 : 		return (*(this->_Myfirst() + _Pos));

  00003	8b 09		 mov	 ecx, DWORD PTR [ecx]
  00005	8b 45 08	 mov	 eax, DWORD PTR __Pos$[ebp]
  00008	8d 04 81	 lea	 eax, DWORD PTR [ecx+eax*4]

; 1241 : 		}

  0000b	5d		 pop	 ebp
  0000c	c2 04 00	 ret	 4
??A?$vector@HV?$allocator@H@std@@@std@@QAEAAHI@Z ENDP	; std::vector<int,std::allocator<int> >::operator[]
_TEXT	ENDS
; Function compile flags: /Ogtp
; File c:\program files (x86)\microsoft visual studio 14.0\vc\include\vector
;	COMDAT ?size@?$vector@HV?$allocator@H@std@@@std@@QBEIXZ
_TEXT	SEGMENT
?size@?$vector@HV?$allocator@H@std@@@std@@QBEIXZ PROC	; std::vector<int,std::allocator<int> >::size, COMDAT
; _this$ = ecx

; 1179 : 		return (this->_Mylast() - this->_Myfirst());

  00000	8b 41 04	 mov	 eax, DWORD PTR [ecx+4]
  00003	2b 01		 sub	 eax, DWORD PTR [ecx]
  00005	c1 f8 02	 sar	 eax, 2

; 1180 : 		}

  00008	c3		 ret	 0
?size@?$vector@HV?$allocator@H@std@@@std@@QBEIXZ ENDP	; std::vector<int,std::allocator<int> >::size
_TEXT	ENDS
; Function compile flags: /Ogtp
; File c:\program files (x86)\microsoft visual studio 14.0\vc\include\xutility
;	COMDAT ?_Get_second@?$_Compressed_pair@U?$_Wrap_alloc@V?$allocator@H@std@@@std@@V?$_Vector_val@U?$_Simple_types@H@std@@@2@$00@std@@QBEABV?$_Vector_val@U?$_Simple_types@H@std@@@2@XZ
_TEXT	SEGMENT
?_Get_second@?$_Compressed_pair@U?$_Wrap_alloc@V?$allocator@H@std@@@std@@V?$_Vector_val@U?$_Simple_types@H@std@@@2@$00@std@@QBEABV?$_Vector_val@U?$_Simple_types@H@std@@@2@XZ PROC ; std::_Compressed_pair<std::_Wrap_alloc<std::allocator<int> >,std::_Vector_val<std::_Simple_types<int> >,1>::_Get_second, COMDAT
; _this$ = ecx

; 319  : 		return (_Myval2);

  00000	8b c1		 mov	 eax, ecx

; 320  : 		}

  00002	c3		 ret	 0
?_Get_second@?$_Compressed_pair@U?$_Wrap_alloc@V?$allocator@H@std@@@std@@V?$_Vector_val@U?$_Simple_types@H@std@@@2@$00@std@@QBEABV?$_Vector_val@U?$_Simple_types@H@std@@@2@XZ ENDP ; std::_Compressed_pair<std::_Wrap_alloc<std::allocator<int> >,std::_Vector_val<std::_Simple_types<int> >,1>::_Get_second
_TEXT	ENDS
; Function compile flags: /Ogtp
; File c:\program files (x86)\microsoft visual studio 14.0\vc\include\xutility
;	COMDAT ?_Get_second@?$_Compressed_pair@U?$_Wrap_alloc@V?$allocator@H@std@@@std@@V?$_Vector_val@U?$_Simple_types@H@std@@@2@$00@std@@QAEAAV?$_Vector_val@U?$_Simple_types@H@std@@@2@XZ
_TEXT	SEGMENT
?_Get_second@?$_Compressed_pair@U?$_Wrap_alloc@V?$allocator@H@std@@@std@@V?$_Vector_val@U?$_Simple_types@H@std@@@2@$00@std@@QAEAAV?$_Vector_val@U?$_Simple_types@H@std@@@2@XZ PROC ; std::_Compressed_pair<std::_Wrap_alloc<std::allocator<int> >,std::_Vector_val<std::_Simple_types<int> >,1>::_Get_second, COMDAT
; _this$ = ecx

; 314  : 		return (_Myval2);

  00000	8b c1		 mov	 eax, ecx

; 315  : 		}

  00002	c3		 ret	 0
?_Get_second@?$_Compressed_pair@U?$_Wrap_alloc@V?$allocator@H@std@@@std@@V?$_Vector_val@U?$_Simple_types@H@std@@@2@$00@std@@QAEAAV?$_Vector_val@U?$_Simple_types@H@std@@@2@XZ ENDP ; std::_Compressed_pair<std::_Wrap_alloc<std::allocator<int> >,std::_Vector_val<std::_Simple_types<int> >,1>::_Get_second
_TEXT	ENDS
; Function compile flags: /Ogtp
; File c:\program files (x86)\microsoft visual studio 14.0\vc\include\vector
;	COMDAT ?_Mylast@?$_Vector_alloc@U?$_Vec_base_types@HV?$allocator@H@std@@@std@@@std@@QBEABQAHXZ
_TEXT	SEGMENT
?_Mylast@?$_Vector_alloc@U?$_Vec_base_types@HV?$allocator@H@std@@@std@@@std@@QBEABQAHXZ PROC ; std::_Vector_alloc<std::_Vec_base_types<int,std::allocator<int> > >::_Mylast, COMDAT
; _this$ = ecx

; 657  : 		return (_Get_data()._Mylast);

  00000	8d 41 04	 lea	 eax, DWORD PTR [ecx+4]

; 658  : 		}

  00003	c3		 ret	 0
?_Mylast@?$_Vector_alloc@U?$_Vec_base_types@HV?$allocator@H@std@@@std@@@std@@QBEABQAHXZ ENDP ; std::_Vector_alloc<std::_Vec_base_types<int,std::allocator<int> > >::_Mylast
_TEXT	ENDS
; Function compile flags: /Ogtp
; File c:\program files (x86)\microsoft visual studio 14.0\vc\include\vector
;	COMDAT ?_Myfirst@?$_Vector_alloc@U?$_Vec_base_types@HV?$allocator@H@std@@@std@@@std@@QBEABQAHXZ
_TEXT	SEGMENT
?_Myfirst@?$_Vector_alloc@U?$_Vec_base_types@HV?$allocator@H@std@@@std@@@std@@QBEABQAHXZ PROC ; std::_Vector_alloc<std::_Vec_base_types<int,std::allocator<int> > >::_Myfirst, COMDAT
; _this$ = ecx

; 647  : 		return (_Get_data()._Myfirst);

  00000	8b c1		 mov	 eax, ecx

; 648  : 		}

  00002	c3		 ret	 0
?_Myfirst@?$_Vector_alloc@U?$_Vec_base_types@HV?$allocator@H@std@@@std@@@std@@QBEABQAHXZ ENDP ; std::_Vector_alloc<std::_Vec_base_types<int,std::allocator<int> > >::_Myfirst
_TEXT	ENDS
; Function compile flags: /Ogtp
; File c:\program files (x86)\microsoft visual studio 14.0\vc\include\vector
;	COMDAT ?_Myfirst@?$_Vector_alloc@U?$_Vec_base_types@HV?$allocator@H@std@@@std@@@std@@QAEAAPAHXZ
_TEXT	SEGMENT
?_Myfirst@?$_Vector_alloc@U?$_Vec_base_types@HV?$allocator@H@std@@@std@@@std@@QAEAAPAHXZ PROC ; std::_Vector_alloc<std::_Vec_base_types<int,std::allocator<int> > >::_Myfirst, COMDAT
; _this$ = ecx

; 642  : 		return (_Get_data()._Myfirst);

  00000	8b c1		 mov	 eax, ecx

; 643  : 		}

  00002	c3		 ret	 0
?_Myfirst@?$_Vector_alloc@U?$_Vec_base_types@HV?$allocator@H@std@@@std@@@std@@QAEAAPAHXZ ENDP ; std::_Vector_alloc<std::_Vec_base_types<int,std::allocator<int> > >::_Myfirst
_TEXT	ENDS
; Function compile flags: /Ogtp
; File c:\program files (x86)\microsoft visual studio 14.0\vc\include\vector
;	COMDAT ?_Get_data@?$_Vector_alloc@U?$_Vec_base_types@HV?$allocator@H@std@@@std@@@std@@QBEABV?$_Vector_val@U?$_Simple_types@H@std@@@2@XZ
_TEXT	SEGMENT
?_Get_data@?$_Vector_alloc@U?$_Vec_base_types@HV?$allocator@H@std@@@std@@@std@@QBEABV?$_Vector_val@U?$_Simple_types@H@std@@@2@XZ PROC ; std::_Vector_alloc<std::_Vec_base_types<int,std::allocator<int> > >::_Get_data, COMDAT
; _this$ = ecx

; 637  : 		return (_Mypair._Get_second());

  00000	8b c1		 mov	 eax, ecx

; 638  : 		}

  00002	c3		 ret	 0
?_Get_data@?$_Vector_alloc@U?$_Vec_base_types@HV?$allocator@H@std@@@std@@@std@@QBEABV?$_Vector_val@U?$_Simple_types@H@std@@@2@XZ ENDP ; std::_Vector_alloc<std::_Vec_base_types<int,std::allocator<int> > >::_Get_data
_TEXT	ENDS
; Function compile flags: /Ogtp
; File c:\program files (x86)\microsoft visual studio 14.0\vc\include\vector
;	COMDAT ?_Get_data@?$_Vector_alloc@U?$_Vec_base_types@HV?$allocator@H@std@@@std@@@std@@QAEAAV?$_Vector_val@U?$_Simple_types@H@std@@@2@XZ
_TEXT	SEGMENT
?_Get_data@?$_Vector_alloc@U?$_Vec_base_types@HV?$allocator@H@std@@@std@@@std@@QAEAAV?$_Vector_val@U?$_Simple_types@H@std@@@2@XZ PROC ; std::_Vector_alloc<std::_Vec_base_types<int,std::allocator<int> > >::_Get_data, COMDAT
; _this$ = ecx

; 632  : 		return (_Mypair._Get_second());

  00000	8b c1		 mov	 eax, ecx

; 633  : 		}

  00002	c3		 ret	 0
?_Get_data@?$_Vector_alloc@U?$_Vec_base_types@HV?$allocator@H@std@@@std@@@std@@QAEAAV?$_Vector_val@U?$_Simple_types@H@std@@@2@XZ ENDP ; std::_Vector_alloc<std::_Vec_base_types<int,std::allocator<int> > >::_Get_data
_TEXT	ENDS
; Function compile flags: /Ogtp
;	COMDAT ??_GCRaklionUtil@@UAEPAXI@Z
_TEXT	SEGMENT
___flags$ = 8						; size = 4
??_GCRaklionUtil@@UAEPAXI@Z PROC			; CRaklionUtil::`scalar deleting destructor', COMDAT
; _this$ = ecx
  00000	55		 push	 ebp
  00001	8b ec		 mov	 ebp, esp
  00003	56		 push	 esi
  00004	8b f1		 mov	 esi, ecx
  00006	e8 00 00 00 00	 call	 ??1CRaklionUtil@@UAE@XZ	; CRaklionUtil::~CRaklionUtil
  0000b	f6 45 08 01	 test	 BYTE PTR ___flags$[ebp], 1
  0000f	74 0b		 je	 SHORT $LN4@scalar
  00011	6a 04		 push	 4
  00013	56		 push	 esi
  00014	e8 00 00 00 00	 call	 ??3@YAXPAXI@Z		; operator delete
  00019	83 c4 08	 add	 esp, 8
$LN4@scalar:
  0001c	8b c6		 mov	 eax, esi
  0001e	5e		 pop	 esi
  0001f	5d		 pop	 ebp
  00020	c2 04 00	 ret	 4
??_GCRaklionUtil@@UAEPAXI@Z ENDP			; CRaklionUtil::`scalar deleting destructor'
_TEXT	ENDS
; Function compile flags: /Ogtp
; File c:\users\michel\desktop\source\gameserver\source\raklionutil.cpp
; File c:\program files (x86)\windows kits\10\include\10.0.10240.0\ucrt\stdio.h
; File c:\users\michel\desktop\source\gameserver\source\raklionutil.cpp
;	COMDAT ?SendRaklionChattingMsg@CRaklionUtil@@QAAXHPADZZ
_TEXT	SEGMENT
_szBuffer$ = -516					; size = 512
__$ArrayPad$ = -4					; size = 4
_this$ = 8						; size = 4
_iIndex$ = 12						; size = 4
_lpMsg$ = 16						; size = 4
?SendRaklionChattingMsg@CRaklionUtil@@QAAXHPADZZ PROC	; CRaklionUtil::SendRaklionChattingMsg, COMDAT

; 252  : {

  00000	55		 push	 ebp
  00001	8b ec		 mov	 ebp, esp
  00003	81 ec 04 02 00
	00		 sub	 esp, 516		; 00000204H
  00009	a1 00 00 00 00	 mov	 eax, DWORD PTR ___security_cookie
  0000e	33 c5		 xor	 eax, ebp
  00010	89 45 fc	 mov	 DWORD PTR __$ArrayPad$[ebp], eax

; 253  : 	if ( !lpMsg )

  00013	83 7d 10 00	 cmp	 DWORD PTR _lpMsg$[ebp], 0
  00017	74 4b		 je	 SHORT $LN1@SendRaklio
  00019	68 00 02 00 00	 push	 512			; 00000200H
  0001e	8d 85 fc fd ff
	ff		 lea	 eax, DWORD PTR _szBuffer$[ebp]
  00024	6a 00		 push	 0
  00026	50		 push	 eax
  00027	e8 00 00 00 00	 call	 _memset
  0002c	83 c4 0c	 add	 esp, 12			; 0000000cH
; File c:\program files (x86)\windows kits\10\include\10.0.10240.0\ucrt\stdio.h

; 1386 :     int const _Result = __stdio_common_vsprintf(

  0002f	8d 45 14	 lea	 eax, DWORD PTR _lpMsg$[ebp+4]
  00032	50		 push	 eax
  00033	6a 00		 push	 0
  00035	ff 75 10	 push	 DWORD PTR _lpMsg$[ebp]
  00038	8d 85 fc fd ff
	ff		 lea	 eax, DWORD PTR _szBuffer$[ebp]
  0003e	6a ff		 push	 -1
  00040	50		 push	 eax
  00041	e8 00 00 00 00	 call	 ___local_stdio_printf_options
  00046	8b 08		 mov	 ecx, DWORD PTR [eax]
  00048	ff 70 04	 push	 DWORD PTR [eax+4]
  0004b	83 c9 01	 or	 ecx, 1
  0004e	51		 push	 ecx
  0004f	e8 00 00 00 00	 call	 ___stdio_common_vsprintf
; File c:\users\michel\desktop\source\gameserver\source\raklionutil.cpp

; 264  : 	TNotice::GCServerMsgStringSend(lpMsg, iIndex, 1);

  00054	6a 01		 push	 1
  00056	ff 75 0c	 push	 DWORD PTR _iIndex$[ebp]
  00059	ff 75 10	 push	 DWORD PTR _lpMsg$[ebp]
  0005c	e8 00 00 00 00	 call	 ?GCServerMsgStringSend@TNotice@@SAXPADHE@Z ; TNotice::GCServerMsgStringSend
  00061	83 c4 28	 add	 esp, 40			; 00000028H
$LN1@SendRaklio:

; 265  : }

  00064	8b 4d fc	 mov	 ecx, DWORD PTR __$ArrayPad$[ebp]
  00067	33 cd		 xor	 ecx, ebp
  00069	e8 00 00 00 00	 call	 @__security_check_cookie@4
  0006e	8b e5		 mov	 esp, ebp
  00070	5d		 pop	 ebp
  00071	c3		 ret	 0
?SendRaklionChattingMsg@CRaklionUtil@@QAAXHPADZZ ENDP	; CRaklionUtil::SendRaklionChattingMsg
_TEXT	ENDS
; Function compile flags: /Ogtp
; File c:\users\michel\desktop\source\gameserver\source\raklionutil.cpp
;	COMDAT ?SendDataToUser@CRaklionUtil@@QAEXHPAEH@Z
_TEXT	SEGMENT
_iIndex$ = 8						; size = 4
_lpMsg$ = 12						; size = 4
_iSize$ = 16						; size = 4
?SendDataToUser@CRaklionUtil@@QAEXHPAEH@Z PROC		; CRaklionUtil::SendDataToUser, COMDAT
; _this$ = ecx

; 243  : {

  00000	55		 push	 ebp
  00001	8b ec		 mov	 ebp, esp

; 244  : 	if ( gObj[iIndex].Connected == PLAYER_PLAYING &&

  00003	8b 55 08	 mov	 edx, DWORD PTR _iIndex$[ebp]
  00006	a1 00 00 00 00	 mov	 eax, DWORD PTR ?gObj@@3PAUOBJECTSTRUCT@@A ; gObj
  0000b	69 ca 40 27 00
	00		 imul	 ecx, edx, 10048
  00011	83 7c 01 04 03	 cmp	 DWORD PTR [ecx+eax+4], 3
  00016	75 16		 jne	 SHORT $LN2@SendDataTo
  00018	80 7c 01 50 01	 cmp	 BYTE PTR [ecx+eax+80], 1
  0001d	75 0f		 jne	 SHORT $LN2@SendDataTo

; 245  : 		 gObj[iIndex].Type == OBJ_USER )
; 246  : 	{
; 247  : 		DataSend(iIndex, lpMsg, iSize);

  0001f	ff 75 10	 push	 DWORD PTR _iSize$[ebp]
  00022	ff 75 0c	 push	 DWORD PTR _lpMsg$[ebp]
  00025	52		 push	 edx
  00026	e8 00 00 00 00	 call	 ?DataSend@@YAHHPAEK@Z	; DataSend
  0002b	83 c4 0c	 add	 esp, 12			; 0000000cH
$LN2@SendDataTo:

; 248  : 	}
; 249  : }

  0002e	5d		 pop	 ebp
  0002f	c2 0c 00	 ret	 12			; 0000000cH
?SendDataToUser@CRaklionUtil@@QAEXHPAEH@Z ENDP		; CRaklionUtil::SendDataToUser
_TEXT	ENDS
; Function compile flags: /Ogtp
; File c:\users\michel\desktop\source\gameserver\source\raklionutil.cpp
; File c:\program files (x86)\windows kits\10\include\10.0.10240.0\ucrt\stdio.h
; File c:\users\michel\desktop\source\gameserver\source\raklionutil.cpp
;	COMDAT ?SendMsgToUser@CRaklionUtil@@QAAXHPADZZ
_TEXT	SEGMENT
_pNotice$ = -788					; size = 272
_szBuffer$ = -516					; size = 512
__$ArrayPad$ = -4					; size = 4
_this$ = 8						; size = 4
_iIndex$ = 12						; size = 4
_lpszMsg$ = 16						; size = 4
?SendMsgToUser@CRaklionUtil@@QAAXHPADZZ PROC		; CRaklionUtil::SendMsgToUser, COMDAT

; 225  : {

  00000	55		 push	 ebp
  00001	8b ec		 mov	 ebp, esp
  00003	81 ec 14 03 00
	00		 sub	 esp, 788		; 00000314H
  00009	a1 00 00 00 00	 mov	 eax, DWORD PTR ___security_cookie
  0000e	33 c5		 xor	 eax, ebp
  00010	89 45 fc	 mov	 DWORD PTR __$ArrayPad$[ebp], eax

; 226  : 	if ( !lpszMsg )

  00013	83 7d 10 00	 cmp	 DWORD PTR _lpszMsg$[ebp], 0
  00017	74 62		 je	 SHORT $LN1@SendMsgToU
  00019	68 00 02 00 00	 push	 512			; 00000200H
  0001e	8d 85 fc fd ff
	ff		 lea	 eax, DWORD PTR _szBuffer$[ebp]
  00024	6a 00		 push	 0
  00026	50		 push	 eax
  00027	e8 00 00 00 00	 call	 _memset
  0002c	83 c4 0c	 add	 esp, 12			; 0000000cH
; File c:\program files (x86)\windows kits\10\include\10.0.10240.0\ucrt\stdio.h

; 1386 :     int const _Result = __stdio_common_vsprintf(

  0002f	8d 45 14	 lea	 eax, DWORD PTR _lpszMsg$[ebp+4]
  00032	50		 push	 eax
  00033	6a 00		 push	 0
  00035	ff 75 10	 push	 DWORD PTR _lpszMsg$[ebp]
  00038	8d 85 fc fd ff
	ff		 lea	 eax, DWORD PTR _szBuffer$[ebp]
  0003e	6a ff		 push	 -1
  00040	50		 push	 eax
  00041	e8 00 00 00 00	 call	 ___local_stdio_printf_options
  00046	8b 08		 mov	 ecx, DWORD PTR [eax]
  00048	ff 70 04	 push	 DWORD PTR [eax+4]
  0004b	83 c9 01	 or	 ecx, 1
  0004e	51		 push	 ecx
  0004f	e8 00 00 00 00	 call	 ___stdio_common_vsprintf
; File c:\users\michel\desktop\source\gameserver\source\raklionutil.cpp

; 237  : 	TNotice::MakeNoticeMsg(&pNotice, 0, szBuffer);

  00054	8d 85 fc fd ff
	ff		 lea	 eax, DWORD PTR _szBuffer$[ebp]
  0005a	50		 push	 eax
  0005b	8d 85 ec fc ff
	ff		 lea	 eax, DWORD PTR _pNotice$[ebp]
  00061	6a 00		 push	 0
  00063	50		 push	 eax
  00064	e8 00 00 00 00	 call	 ?MakeNoticeMsg@TNotice@@SAXPAXEPAD@Z ; TNotice::MakeNoticeMsg

; 238  : 	
; 239  : 	TNotice::SendNoticeToUser(iIndex, &pNotice);

  00069	8d 85 ec fc ff
	ff		 lea	 eax, DWORD PTR _pNotice$[ebp]
  0006f	50		 push	 eax
  00070	ff 75 0c	 push	 DWORD PTR _iIndex$[ebp]
  00073	e8 00 00 00 00	 call	 ?SendNoticeToUser@TNotice@@SAXHPAX@Z ; TNotice::SendNoticeToUser
  00078	83 c4 30	 add	 esp, 48			; 00000030H
$LN1@SendMsgToU:

; 240  : }

  0007b	8b 4d fc	 mov	 ecx, DWORD PTR __$ArrayPad$[ebp]
  0007e	33 cd		 xor	 ecx, ebp
  00080	e8 00 00 00 00	 call	 @__security_check_cookie@4
  00085	8b e5		 mov	 esp, ebp
  00087	5d		 pop	 ebp
  00088	c3		 ret	 0
?SendMsgToUser@CRaklionUtil@@QAAXHPADZZ ENDP		; CRaklionUtil::SendMsgToUser
_TEXT	ENDS
; Function compile flags: /Ogtp
; File c:\users\michel\desktop\source\gameserver\source\raklionutil.cpp
;	COMDAT ?SendDataAllUser@CRaklionUtil@@QAEXPAEH@Z
_TEXT	SEGMENT
_lpMsg$ = 8						; size = 4
_iSize$ = 12						; size = 4
?SendDataAllUser@CRaklionUtil@@QAEXPAEH@Z PROC		; CRaklionUtil::SendDataAllUser, COMDAT
; _this$ = ecx

; 213  : {

  00000	55		 push	 ebp
  00001	8b ec		 mov	 ebp, esp
  00003	53		 push	 ebx

; 214  : 	for ( int iCount=OBJ_STARTUSERINDEX;iCount<OBJMAX;iCount++)

  00004	8b 5d 0c	 mov	 ebx, DWORD PTR _iSize$[ebp]
  00007	56		 push	 esi
  00008	57		 push	 edi
  00009	bf 04 29 00 00	 mov	 edi, 10500		; 00002904H
  0000e	be 00 dd 49 06	 mov	 esi, 105504000		; 0649dd00H
$LL4@SendDataAl:

; 215  : 	{
; 216  : 		if ( gObj[iCount].Connected == PLAYER_PLAYING &&

  00013	a1 00 00 00 00	 mov	 eax, DWORD PTR ?gObj@@3PAUOBJECTSTRUCT@@A ; gObj
  00018	83 7c 06 04 03	 cmp	 DWORD PTR [esi+eax+4], 3
  0001d	75 14		 jne	 SHORT $LN2@SendDataAl
  0001f	80 7c 06 50 01	 cmp	 BYTE PTR [esi+eax+80], 1
  00024	75 0d		 jne	 SHORT $LN2@SendDataAl

; 217  : 			 gObj[iCount].Type == OBJ_USER )
; 218  : 		{
; 219  : 			DataSend(iCount, lpMsg, iSize);

  00026	53		 push	 ebx
  00027	ff 75 08	 push	 DWORD PTR _lpMsg$[ebp]
  0002a	57		 push	 edi
  0002b	e8 00 00 00 00	 call	 ?DataSend@@YAHHPAEK@Z	; DataSend
  00030	83 c4 0c	 add	 esp, 12			; 0000000cH
$LN2@SendDataAl:

; 214  : 	for ( int iCount=OBJ_STARTUSERINDEX;iCount<OBJMAX;iCount++)

  00033	81 c6 40 27 00
	00		 add	 esi, 10048		; 00002740H
  00039	47		 inc	 edi
  0003a	81 fe 00 2f e3
	06		 cmp	 esi, 115552000		; 06e32f00H
  00040	7c d1		 jl	 SHORT $LL4@SendDataAl
  00042	5f		 pop	 edi
  00043	5e		 pop	 esi
  00044	5b		 pop	 ebx

; 220  : 		}
; 221  : 	}
; 222  : }

  00045	5d		 pop	 ebp
  00046	c2 08 00	 ret	 8
?SendDataAllUser@CRaklionUtil@@QAEXPAEH@Z ENDP		; CRaklionUtil::SendDataAllUser
_TEXT	ENDS
; Function compile flags: /Ogtp
; File c:\users\michel\desktop\source\gameserver\source\raklionutil.cpp
; File c:\program files (x86)\windows kits\10\include\10.0.10240.0\ucrt\stdio.h
; File c:\users\michel\desktop\source\gameserver\source\raklionutil.cpp
;	COMDAT ?SendMsgAllUser@CRaklionUtil@@QAAXPADZZ
_TEXT	SEGMENT
_pNotice$ = -788					; size = 272
_szBuffer$ = -516					; size = 512
__$ArrayPad$ = -4					; size = 4
_this$ = 8						; size = 4
_lpszMsg$ = 12						; size = 4
?SendMsgAllUser@CRaklionUtil@@QAAXPADZZ PROC		; CRaklionUtil::SendMsgAllUser, COMDAT

; 195  : {

  00000	55		 push	 ebp
  00001	8b ec		 mov	 ebp, esp
  00003	81 ec 14 03 00
	00		 sub	 esp, 788		; 00000314H
  00009	a1 00 00 00 00	 mov	 eax, DWORD PTR ___security_cookie
  0000e	33 c5		 xor	 eax, ebp
  00010	89 45 fc	 mov	 DWORD PTR __$ArrayPad$[ebp], eax

; 196  : 	if ( !lpszMsg )

  00013	83 7d 0c 00	 cmp	 DWORD PTR _lpszMsg$[ebp], 0
  00017	74 5f		 je	 SHORT $LN1@SendMsgAll
  00019	68 00 02 00 00	 push	 512			; 00000200H
  0001e	8d 85 fc fd ff
	ff		 lea	 eax, DWORD PTR _szBuffer$[ebp]
  00024	6a 00		 push	 0
  00026	50		 push	 eax
  00027	e8 00 00 00 00	 call	 _memset
  0002c	83 c4 0c	 add	 esp, 12			; 0000000cH
; File c:\program files (x86)\windows kits\10\include\10.0.10240.0\ucrt\stdio.h

; 1386 :     int const _Result = __stdio_common_vsprintf(

  0002f	8d 45 10	 lea	 eax, DWORD PTR _lpszMsg$[ebp+4]
  00032	50		 push	 eax
  00033	6a 00		 push	 0
  00035	ff 75 0c	 push	 DWORD PTR _lpszMsg$[ebp]
  00038	8d 85 fc fd ff
	ff		 lea	 eax, DWORD PTR _szBuffer$[ebp]
  0003e	6a ff		 push	 -1
  00040	50		 push	 eax
  00041	e8 00 00 00 00	 call	 ___local_stdio_printf_options
  00046	8b 08		 mov	 ecx, DWORD PTR [eax]
  00048	ff 70 04	 push	 DWORD PTR [eax+4]
  0004b	83 c9 01	 or	 ecx, 1
  0004e	51		 push	 ecx
  0004f	e8 00 00 00 00	 call	 ___stdio_common_vsprintf
; File c:\users\michel\desktop\source\gameserver\source\raklionutil.cpp

; 207  : 	TNotice::MakeNoticeMsg(&pNotice, 0, szBuffer);

  00054	8d 85 fc fd ff
	ff		 lea	 eax, DWORD PTR _szBuffer$[ebp]
  0005a	50		 push	 eax
  0005b	8d 85 ec fc ff
	ff		 lea	 eax, DWORD PTR _pNotice$[ebp]
  00061	6a 00		 push	 0
  00063	50		 push	 eax
  00064	e8 00 00 00 00	 call	 ?MakeNoticeMsg@TNotice@@SAXPAXEPAD@Z ; TNotice::MakeNoticeMsg

; 208  : 	
; 209  : 	TNotice::SendNoticeToAllUser(&pNotice);

  00069	8d 85 ec fc ff
	ff		 lea	 eax, DWORD PTR _pNotice$[ebp]
  0006f	50		 push	 eax
  00070	e8 00 00 00 00	 call	 ?SendNoticeToAllUser@TNotice@@SAXPAX@Z ; TNotice::SendNoticeToAllUser
  00075	83 c4 2c	 add	 esp, 44			; 0000002cH
$LN1@SendMsgAll:

; 210  : }

  00078	8b 4d fc	 mov	 ecx, DWORD PTR __$ArrayPad$[ebp]
  0007b	33 cd		 xor	 ecx, ebp
  0007d	e8 00 00 00 00	 call	 @__security_check_cookie@4
  00082	8b e5		 mov	 esp, ebp
  00084	5d		 pop	 ebp
  00085	c3		 ret	 0
?SendMsgAllUser@CRaklionUtil@@QAAXPADZZ ENDP		; CRaklionUtil::SendMsgAllUser
_TEXT	ENDS
; Function compile flags: /Ogtp
; File c:\users\michel\desktop\source\gameserver\source\raklionutil.cpp
;	COMDAT ?SendDataRaklionMapUser@CRaklionUtil@@QAEXPAEH@Z
_TEXT	SEGMENT
_lpMsg$ = 8						; size = 4
_iSize$ = 12						; size = 4
?SendDataRaklionMapUser@CRaklionUtil@@QAEXPAEH@Z PROC	; CRaklionUtil::SendDataRaklionMapUser, COMDAT
; _this$ = ecx

; 181  : {

  00000	55		 push	 ebp
  00001	8b ec		 mov	 ebp, esp
  00003	53		 push	 ebx

; 182  : 	for ( int iCount=OBJ_STARTUSERINDEX;iCount<OBJMAX;iCount++)

  00004	8b 5d 0c	 mov	 ebx, DWORD PTR _iSize$[ebp]
  00007	56		 push	 esi
  00008	57		 push	 edi
  00009	bf 04 29 00 00	 mov	 edi, 10500		; 00002904H
  0000e	be 00 dd 49 06	 mov	 esi, 105504000		; 0649dd00H
$LL4@SendDataRa:

; 183  : 	{
; 184  : 		if ( gObj[iCount].Connected == PLAYER_PLAYING &&
; 185  : 			 gObj[iCount].Type == OBJ_USER &&

  00013	a1 00 00 00 00	 mov	 eax, DWORD PTR ?gObj@@3PAUOBJECTSTRUCT@@A ; gObj
  00018	83 7c 06 04 03	 cmp	 DWORD PTR [esi+eax+4], 3
  0001d	75 23		 jne	 SHORT $LN2@SendDataRa
  0001f	80 7c 06 50 01	 cmp	 BYTE PTR [esi+eax+80], 1
  00024	75 1c		 jne	 SHORT $LN2@SendDataRa
  00026	8a 84 06 23 01
	00 00		 mov	 al, BYTE PTR [esi+eax+291]
  0002d	3c 39		 cmp	 al, 57			; 00000039H
  0002f	74 04		 je	 SHORT $LN6@SendDataRa
  00031	3c 3a		 cmp	 al, 58			; 0000003aH
  00033	75 0d		 jne	 SHORT $LN2@SendDataRa
$LN6@SendDataRa:

; 186  : 			 ( gObj[iCount].MapNumber == MAP_INDEX_RAKLION ||
; 187  : 			 gObj[iCount].MapNumber == MAP_INDEX_RAKLIONBOSS ) )
; 188  : 		{
; 189  : 			DataSend(iCount, lpMsg, iSize);

  00035	53		 push	 ebx
  00036	ff 75 08	 push	 DWORD PTR _lpMsg$[ebp]
  00039	57		 push	 edi
  0003a	e8 00 00 00 00	 call	 ?DataSend@@YAHHPAEK@Z	; DataSend
  0003f	83 c4 0c	 add	 esp, 12			; 0000000cH
$LN2@SendDataRa:

; 182  : 	for ( int iCount=OBJ_STARTUSERINDEX;iCount<OBJMAX;iCount++)

  00042	81 c6 40 27 00
	00		 add	 esi, 10048		; 00002740H
  00048	47		 inc	 edi
  00049	81 fe 00 2f e3
	06		 cmp	 esi, 115552000		; 06e32f00H
  0004f	7c c2		 jl	 SHORT $LL4@SendDataRa
  00051	5f		 pop	 edi
  00052	5e		 pop	 esi
  00053	5b		 pop	 ebx

; 190  : 		}
; 191  : 	}
; 192  : }

  00054	5d		 pop	 ebp
  00055	c2 08 00	 ret	 8
?SendDataRaklionMapUser@CRaklionUtil@@QAEXPAEH@Z ENDP	; CRaklionUtil::SendDataRaklionMapUser
_TEXT	ENDS
; Function compile flags: /Ogtp
; File c:\users\michel\desktop\source\gameserver\source\raklionutil.cpp
; File c:\program files (x86)\windows kits\10\include\10.0.10240.0\ucrt\stdio.h
; File c:\users\michel\desktop\source\gameserver\source\raklionutil.cpp
;	COMDAT ?SendMsgRaklionMapUser@CRaklionUtil@@QAAXPADZZ
_TEXT	SEGMENT
_pNotice$ = -788					; size = 272
_szBuffer$ = -516					; size = 512
__$ArrayPad$ = -4					; size = 4
_this$ = 8						; size = 4
_lpszMsg$ = 12						; size = 4
?SendMsgRaklionMapUser@CRaklionUtil@@QAAXPADZZ PROC	; CRaklionUtil::SendMsgRaklionMapUser, COMDAT

; 154  : {

  00000	55		 push	 ebp
  00001	8b ec		 mov	 ebp, esp
  00003	81 ec 14 03 00
	00		 sub	 esp, 788		; 00000314H
  00009	a1 00 00 00 00	 mov	 eax, DWORD PTR ___security_cookie
  0000e	33 c5		 xor	 eax, ebp
  00010	89 45 fc	 mov	 DWORD PTR __$ArrayPad$[ebp], eax
  00013	56		 push	 esi

; 155  : 	if ( !lpszMsg )

  00014	8b 75 0c	 mov	 esi, DWORD PTR _lpszMsg$[ebp]
  00017	85 f6		 test	 esi, esi
  00019	0f 84 a3 00 00
	00		 je	 $LN3@SendMsgRak
  0001f	57		 push	 edi
  00020	68 00 02 00 00	 push	 512			; 00000200H
  00025	8d 85 fc fd ff
	ff		 lea	 eax, DWORD PTR _szBuffer$[ebp]
  0002b	6a 00		 push	 0
  0002d	50		 push	 eax
  0002e	e8 00 00 00 00	 call	 _memset
  00033	83 c4 0c	 add	 esp, 12			; 0000000cH
; File c:\program files (x86)\windows kits\10\include\10.0.10240.0\ucrt\stdio.h

; 1386 :     int const _Result = __stdio_common_vsprintf(

  00036	8d 45 10	 lea	 eax, DWORD PTR _lpszMsg$[ebp+4]
  00039	50		 push	 eax
  0003a	6a 00		 push	 0
  0003c	56		 push	 esi
  0003d	8d 85 fc fd ff
	ff		 lea	 eax, DWORD PTR _szBuffer$[ebp]
  00043	6a ff		 push	 -1
  00045	50		 push	 eax
  00046	e8 00 00 00 00	 call	 ___local_stdio_printf_options
  0004b	8b 08		 mov	 ecx, DWORD PTR [eax]
  0004d	ff 70 04	 push	 DWORD PTR [eax+4]
  00050	83 c9 01	 or	 ecx, 1
  00053	51		 push	 ecx
  00054	e8 00 00 00 00	 call	 ___stdio_common_vsprintf
; File c:\users\michel\desktop\source\gameserver\source\raklionutil.cpp

; 166  : 	TNotice::MakeNoticeMsg(&pNotice, 0, szBuffer);

  00059	8d 85 fc fd ff
	ff		 lea	 eax, DWORD PTR _szBuffer$[ebp]
  0005f	50		 push	 eax
  00060	8d 85 ec fc ff
	ff		 lea	 eax, DWORD PTR _pNotice$[ebp]
  00066	6a 00		 push	 0
  00068	50		 push	 eax
  00069	e8 00 00 00 00	 call	 ?MakeNoticeMsg@TNotice@@SAXPAXEPAD@Z ; TNotice::MakeNoticeMsg
  0006e	83 c4 28	 add	 esp, 40			; 00000028H

; 167  : 
; 168  : 	for ( int iCount=OBJ_STARTUSERINDEX;iCount<OBJMAX;iCount++)

  00071	bf 04 29 00 00	 mov	 edi, 10500		; 00002904H
  00076	be 00 dd 49 06	 mov	 esi, 105504000		; 0649dd00H
  0007b	0f 1f 44 00 00	 npad	 5
$LL4@SendMsgRak:

; 169  : 	{
; 170  : 		if ( gObj[iCount].Connected == PLAYER_PLAYING &&
; 171  : 			 gObj[iCount].Type == OBJ_USER &&

  00080	a1 00 00 00 00	 mov	 eax, DWORD PTR ?gObj@@3PAUOBJECTSTRUCT@@A ; gObj
  00085	83 7c 06 04 03	 cmp	 DWORD PTR [esi+eax+4], 3
  0008a	75 26		 jne	 SHORT $LN2@SendMsgRak
  0008c	80 7c 06 50 01	 cmp	 BYTE PTR [esi+eax+80], 1
  00091	75 1f		 jne	 SHORT $LN2@SendMsgRak
  00093	8a 84 06 23 01
	00 00		 mov	 al, BYTE PTR [esi+eax+291]
  0009a	3c 39		 cmp	 al, 57			; 00000039H
  0009c	74 04		 je	 SHORT $LN7@SendMsgRak
  0009e	3c 3a		 cmp	 al, 58			; 0000003aH
  000a0	75 10		 jne	 SHORT $LN2@SendMsgRak
$LN7@SendMsgRak:

; 172  : 			 ( gObj[iCount].MapNumber == MAP_INDEX_RAKLION ||
; 173  : 			 gObj[iCount].MapNumber == MAP_INDEX_RAKLIONBOSS) )
; 174  : 		{
; 175  : 			TNotice::SendNoticeToUser(iCount, &pNotice);

  000a2	8d 85 ec fc ff
	ff		 lea	 eax, DWORD PTR _pNotice$[ebp]
  000a8	50		 push	 eax
  000a9	57		 push	 edi
  000aa	e8 00 00 00 00	 call	 ?SendNoticeToUser@TNotice@@SAXHPAX@Z ; TNotice::SendNoticeToUser
  000af	83 c4 08	 add	 esp, 8
$LN2@SendMsgRak:

; 167  : 
; 168  : 	for ( int iCount=OBJ_STARTUSERINDEX;iCount<OBJMAX;iCount++)

  000b2	81 c6 40 27 00
	00		 add	 esi, 10048		; 00002740H
  000b8	47		 inc	 edi
  000b9	81 fe 00 2f e3
	06		 cmp	 esi, 115552000		; 06e32f00H
  000bf	7c bf		 jl	 SHORT $LL4@SendMsgRak
  000c1	5f		 pop	 edi
$LN3@SendMsgRak:

; 176  : 		}
; 177  : 	}
; 178  : }

  000c2	8b 4d fc	 mov	 ecx, DWORD PTR __$ArrayPad$[ebp]
  000c5	33 cd		 xor	 ecx, ebp
  000c7	5e		 pop	 esi
  000c8	e8 00 00 00 00	 call	 @__security_check_cookie@4
  000cd	8b e5		 mov	 esp, ebp
  000cf	5d		 pop	 ebp
  000d0	c3		 ret	 0
?SendMsgRaklionMapUser@CRaklionUtil@@QAAXPADZZ ENDP	; CRaklionUtil::SendMsgRaklionMapUser
_TEXT	ENDS
; Function compile flags: /Ogtp
; File c:\users\michel\desktop\source\gameserver\source\raklionutil.cpp
;	COMDAT ?SendDataRaklionBossMapUser@CRaklionUtil@@QAEXPAEH@Z
_TEXT	SEGMENT
_lpMsg$ = 8						; size = 4
_iSize$ = 12						; size = 4
?SendDataRaklionBossMapUser@CRaklionUtil@@QAEXPAEH@Z PROC ; CRaklionUtil::SendDataRaklionBossMapUser, COMDAT
; _this$ = ecx

; 141  : {

  00000	55		 push	 ebp
  00001	8b ec		 mov	 ebp, esp
  00003	53		 push	 ebx

; 142  : 	for ( int iCount=OBJ_STARTUSERINDEX;iCount<OBJMAX;iCount++)

  00004	8b 5d 0c	 mov	 ebx, DWORD PTR _iSize$[ebp]
  00007	56		 push	 esi
  00008	57		 push	 edi
  00009	bf 04 29 00 00	 mov	 edi, 10500		; 00002904H
  0000e	be 00 dd 49 06	 mov	 esi, 105504000		; 0649dd00H
$LL4@SendDataRa:

; 143  : 	{
; 144  : 		if ( gObj[iCount].Connected == PLAYER_PLAYING &&
; 145  : 			 gObj[iCount].Type == OBJ_USER &&

  00013	a1 00 00 00 00	 mov	 eax, DWORD PTR ?gObj@@3PAUOBJECTSTRUCT@@A ; gObj
  00018	83 7c 06 04 03	 cmp	 DWORD PTR [esi+eax+4], 3
  0001d	75 1e		 jne	 SHORT $LN2@SendDataRa
  0001f	80 7c 06 50 01	 cmp	 BYTE PTR [esi+eax+80], 1
  00024	75 17		 jne	 SHORT $LN2@SendDataRa
  00026	80 bc 06 23 01
	00 00 3a	 cmp	 BYTE PTR [esi+eax+291], 58 ; 0000003aH
  0002e	75 0d		 jne	 SHORT $LN2@SendDataRa

; 146  : 			 gObj[iCount].MapNumber == MAP_INDEX_RAKLIONBOSS)
; 147  : 		{
; 148  : 			DataSend(iCount, lpMsg, iSize);

  00030	53		 push	 ebx
  00031	ff 75 08	 push	 DWORD PTR _lpMsg$[ebp]
  00034	57		 push	 edi
  00035	e8 00 00 00 00	 call	 ?DataSend@@YAHHPAEK@Z	; DataSend
  0003a	83 c4 0c	 add	 esp, 12			; 0000000cH
$LN2@SendDataRa:

; 142  : 	for ( int iCount=OBJ_STARTUSERINDEX;iCount<OBJMAX;iCount++)

  0003d	81 c6 40 27 00
	00		 add	 esi, 10048		; 00002740H
  00043	47		 inc	 edi
  00044	81 fe 00 2f e3
	06		 cmp	 esi, 115552000		; 06e32f00H
  0004a	7c c7		 jl	 SHORT $LL4@SendDataRa
  0004c	5f		 pop	 edi
  0004d	5e		 pop	 esi
  0004e	5b		 pop	 ebx

; 149  : 		}
; 150  : 	}
; 151  : }

  0004f	5d		 pop	 ebp
  00050	c2 08 00	 ret	 8
?SendDataRaklionBossMapUser@CRaklionUtil@@QAEXPAEH@Z ENDP ; CRaklionUtil::SendDataRaklionBossMapUser
_TEXT	ENDS
; Function compile flags: /Ogtp
; File c:\users\michel\desktop\source\gameserver\source\raklionutil.cpp
; File c:\program files (x86)\windows kits\10\include\10.0.10240.0\ucrt\stdio.h
; File c:\users\michel\desktop\source\gameserver\source\raklionutil.cpp
;	COMDAT ?SendMsgRaklionBossMapUser@CRaklionUtil@@QAAXPADZZ
_TEXT	SEGMENT
_pNotice$ = -788					; size = 272
_szBuffer$ = -516					; size = 512
__$ArrayPad$ = -4					; size = 4
_this$ = 8						; size = 4
_lpszMsg$ = 12						; size = 4
?SendMsgRaklionBossMapUser@CRaklionUtil@@QAAXPADZZ PROC	; CRaklionUtil::SendMsgRaklionBossMapUser, COMDAT

; 115  : {

  00000	55		 push	 ebp
  00001	8b ec		 mov	 ebp, esp
  00003	81 ec 14 03 00
	00		 sub	 esp, 788		; 00000314H
  00009	a1 00 00 00 00	 mov	 eax, DWORD PTR ___security_cookie
  0000e	33 c5		 xor	 eax, ebp
  00010	89 45 fc	 mov	 DWORD PTR __$ArrayPad$[ebp], eax
  00013	56		 push	 esi

; 116  : 	if ( !lpszMsg )

  00014	8b 75 0c	 mov	 esi, DWORD PTR _lpszMsg$[ebp]
  00017	85 f6		 test	 esi, esi
  00019	0f 84 9e 00 00
	00		 je	 $LN3@SendMsgRak
  0001f	57		 push	 edi
  00020	68 00 02 00 00	 push	 512			; 00000200H
  00025	8d 85 fc fd ff
	ff		 lea	 eax, DWORD PTR _szBuffer$[ebp]
  0002b	6a 00		 push	 0
  0002d	50		 push	 eax
  0002e	e8 00 00 00 00	 call	 _memset
  00033	83 c4 0c	 add	 esp, 12			; 0000000cH
; File c:\program files (x86)\windows kits\10\include\10.0.10240.0\ucrt\stdio.h

; 1386 :     int const _Result = __stdio_common_vsprintf(

  00036	8d 45 10	 lea	 eax, DWORD PTR _lpszMsg$[ebp+4]
  00039	50		 push	 eax
  0003a	6a 00		 push	 0
  0003c	56		 push	 esi
  0003d	8d 85 fc fd ff
	ff		 lea	 eax, DWORD PTR _szBuffer$[ebp]
  00043	6a ff		 push	 -1
  00045	50		 push	 eax
  00046	e8 00 00 00 00	 call	 ___local_stdio_printf_options
  0004b	8b 08		 mov	 ecx, DWORD PTR [eax]
  0004d	ff 70 04	 push	 DWORD PTR [eax+4]
  00050	83 c9 01	 or	 ecx, 1
  00053	51		 push	 ecx
  00054	e8 00 00 00 00	 call	 ___stdio_common_vsprintf
; File c:\users\michel\desktop\source\gameserver\source\raklionutil.cpp

; 127  : 	TNotice::MakeNoticeMsg(&pNotice, 0, szBuffer);

  00059	8d 85 fc fd ff
	ff		 lea	 eax, DWORD PTR _szBuffer$[ebp]
  0005f	50		 push	 eax
  00060	8d 85 ec fc ff
	ff		 lea	 eax, DWORD PTR _pNotice$[ebp]
  00066	6a 00		 push	 0
  00068	50		 push	 eax
  00069	e8 00 00 00 00	 call	 ?MakeNoticeMsg@TNotice@@SAXPAXEPAD@Z ; TNotice::MakeNoticeMsg
  0006e	83 c4 28	 add	 esp, 40			; 00000028H

; 128  : 
; 129  : 	for ( int iCount=OBJ_STARTUSERINDEX;iCount<OBJMAX;iCount++)

  00071	bf 04 29 00 00	 mov	 edi, 10500		; 00002904H
  00076	be 00 dd 49 06	 mov	 esi, 105504000		; 0649dd00H
  0007b	0f 1f 44 00 00	 npad	 5
$LL4@SendMsgRak:

; 130  : 	{
; 131  : 		if ( gObj[iCount].Connected == PLAYER_PLAYING &&
; 132  : 			 gObj[iCount].Type == OBJ_USER &&

  00080	a1 00 00 00 00	 mov	 eax, DWORD PTR ?gObj@@3PAUOBJECTSTRUCT@@A ; gObj
  00085	83 7c 06 04 03	 cmp	 DWORD PTR [esi+eax+4], 3
  0008a	75 21		 jne	 SHORT $LN2@SendMsgRak
  0008c	80 7c 06 50 01	 cmp	 BYTE PTR [esi+eax+80], 1
  00091	75 1a		 jne	 SHORT $LN2@SendMsgRak
  00093	80 bc 06 23 01
	00 00 3a	 cmp	 BYTE PTR [esi+eax+291], 58 ; 0000003aH
  0009b	75 10		 jne	 SHORT $LN2@SendMsgRak

; 133  : 			 gObj[iCount].MapNumber == MAP_INDEX_RAKLIONBOSS)
; 134  : 		{
; 135  : 			TNotice::SendNoticeToUser(iCount, &pNotice);

  0009d	8d 85 ec fc ff
	ff		 lea	 eax, DWORD PTR _pNotice$[ebp]
  000a3	50		 push	 eax
  000a4	57		 push	 edi
  000a5	e8 00 00 00 00	 call	 ?SendNoticeToUser@TNotice@@SAXHPAX@Z ; TNotice::SendNoticeToUser
  000aa	83 c4 08	 add	 esp, 8
$LN2@SendMsgRak:

; 128  : 
; 129  : 	for ( int iCount=OBJ_STARTUSERINDEX;iCount<OBJMAX;iCount++)

  000ad	81 c6 40 27 00
	00		 add	 esi, 10048		; 00002740H
  000b3	47		 inc	 edi
  000b4	81 fe 00 2f e3
	06		 cmp	 esi, 115552000		; 06e32f00H
  000ba	7c c4		 jl	 SHORT $LL4@SendMsgRak
  000bc	5f		 pop	 edi
$LN3@SendMsgRak:

; 136  : 		}
; 137  : 	}
; 138  : }

  000bd	8b 4d fc	 mov	 ecx, DWORD PTR __$ArrayPad$[ebp]
  000c0	33 cd		 xor	 ecx, ebp
  000c2	5e		 pop	 esi
  000c3	e8 00 00 00 00	 call	 @__security_check_cookie@4
  000c8	8b e5		 mov	 esp, ebp
  000ca	5d		 pop	 ebp
  000cb	c3		 ret	 0
?SendMsgRaklionBossMapUser@CRaklionUtil@@QAAXPADZZ ENDP	; CRaklionUtil::SendMsgRaklionBossMapUser
_TEXT	ENDS
; Function compile flags: /Ogtp
; File c:\users\michel\desktop\source\gameserver\source\raklionutil.cpp
; File c:\program files (x86)\windows kits\10\include\10.0.10240.0\ucrt\stdio.h
; File c:\users\michel\desktop\source\gameserver\source\raklionutil.cpp
; File c:\program files (x86)\microsoft visual studio 14.0\vc\include\vector
; File c:\users\michel\desktop\source\gameserver\source\raklionutil.cpp
; File c:\program files (x86)\microsoft visual studio 14.0\vc\include\vector
; File c:\users\michel\desktop\source\gameserver\source\raklionutil.cpp
; File c:\program files (x86)\microsoft visual studio 14.0\vc\include\vector
; File c:\users\michel\desktop\source\gameserver\source\raklionutil.cpp
; File c:\program files (x86)\microsoft visual studio 14.0\vc\include\vector
; File c:\users\michel\desktop\source\gameserver\source\raklionutil.cpp
; File c:\program files (x86)\microsoft visual studio 14.0\vc\include\vector
; File c:\users\michel\desktop\source\gameserver\source\raklionutil.cpp
;	COMDAT ?SendMsgUser@CRaklionUtil@@QAAXPADZZ
_TEXT	SEGMENT
_pNotice$ = -788					; size = 272
_szBuffer$ = -516					; size = 512
__$ArrayPad$ = -4					; size = 4
_this$ = 8						; size = 4
_lpszMsg$ = 12						; size = 4
?SendMsgUser@CRaklionUtil@@QAAXPADZZ PROC		; CRaklionUtil::SendMsgUser, COMDAT

; 90   : {

  00000	55		 push	 ebp
  00001	8b ec		 mov	 ebp, esp
  00003	81 ec 14 03 00
	00		 sub	 esp, 788		; 00000314H
  00009	a1 00 00 00 00	 mov	 eax, DWORD PTR ___security_cookie
  0000e	33 c5		 xor	 eax, ebp
  00010	89 45 fc	 mov	 DWORD PTR __$ArrayPad$[ebp], eax
  00013	56		 push	 esi

; 91   : 	if ( !lpszMsg )

  00014	8b 75 0c	 mov	 esi, DWORD PTR _lpszMsg$[ebp]
  00017	85 f6		 test	 esi, esi
  00019	0f 84 b7 00 00
	00		 je	 $LN3@SendMsgUse
  0001f	53		 push	 ebx
  00020	68 00 02 00 00	 push	 512			; 00000200H
  00025	8d 85 fc fd ff
	ff		 lea	 eax, DWORD PTR _szBuffer$[ebp]
  0002b	6a 00		 push	 0
  0002d	50		 push	 eax
  0002e	e8 00 00 00 00	 call	 _memset
  00033	83 c4 0c	 add	 esp, 12			; 0000000cH
; File c:\program files (x86)\windows kits\10\include\10.0.10240.0\ucrt\stdio.h

; 1386 :     int const _Result = __stdio_common_vsprintf(

  00036	8d 45 10	 lea	 eax, DWORD PTR _lpszMsg$[ebp+4]
  00039	50		 push	 eax
  0003a	6a 00		 push	 0
  0003c	56		 push	 esi
  0003d	8d 85 fc fd ff
	ff		 lea	 eax, DWORD PTR _szBuffer$[ebp]
  00043	6a ff		 push	 -1
  00045	50		 push	 eax
  00046	e8 00 00 00 00	 call	 ___local_stdio_printf_options
  0004b	8b 08		 mov	 ecx, DWORD PTR [eax]
  0004d	ff 70 04	 push	 DWORD PTR [eax+4]
  00050	83 c9 01	 or	 ecx, 1
  00053	51		 push	 ecx
  00054	e8 00 00 00 00	 call	 ___stdio_common_vsprintf
; File c:\users\michel\desktop\source\gameserver\source\raklionutil.cpp

; 102  : 	TNotice::MakeNoticeMsg(&pNotice, 1, szBuffer);

  00059	8d 85 fc fd ff
	ff		 lea	 eax, DWORD PTR _szBuffer$[ebp]
  0005f	50		 push	 eax
  00060	8d 85 ec fc ff
	ff		 lea	 eax, DWORD PTR _pNotice$[ebp]
  00066	6a 01		 push	 1
  00068	50		 push	 eax
  00069	e8 00 00 00 00	 call	 ?MakeNoticeMsg@TNotice@@SAXPAXEPAD@Z ; TNotice::MakeNoticeMsg
; File c:\program files (x86)\microsoft visual studio 14.0\vc\include\vector

; 1179 : 		return (this->_Mylast() - this->_Myfirst());

  0006e	8b 1d 08 00 00
	00		 mov	 ebx, DWORD PTR ?g_RaklionBattleUserMng@@3VCRaklionBattleUserMng@@A+8
; File c:\users\michel\desktop\source\gameserver\source\raklionutil.cpp

; 102  : 	TNotice::MakeNoticeMsg(&pNotice, 1, szBuffer);

  00074	83 c4 28	 add	 esp, 40			; 00000028H
; File c:\program files (x86)\microsoft visual studio 14.0\vc\include\vector

; 1179 : 		return (this->_Mylast() - this->_Myfirst());

  00077	8b 15 04 00 00
	00		 mov	 edx, DWORD PTR ?g_RaklionBattleUserMng@@3VCRaklionBattleUserMng@@A+4
  0007d	8b c3		 mov	 eax, ebx
  0007f	2b c2		 sub	 eax, edx
; File c:\users\michel\desktop\source\gameserver\source\raklionutil.cpp

; 104  : 	for ( int iCount=0;iCount<g_RaklionBattleUserMng.m_vtUserInfo.size();iCount++)

  00081	33 f6		 xor	 esi, esi
; File c:\program files (x86)\microsoft visual studio 14.0\vc\include\vector

; 1179 : 		return (this->_Mylast() - this->_Myfirst());

  00083	c1 f8 02	 sar	 eax, 2
; File c:\users\michel\desktop\source\gameserver\source\raklionutil.cpp

; 104  : 	for ( int iCount=0;iCount<g_RaklionBattleUserMng.m_vtUserInfo.size();iCount++)

  00086	85 c0		 test	 eax, eax
  00088	74 4b		 je	 SHORT $LN70@SendMsgUse
  0008a	57		 push	 edi
  0008b	0f 1f 44 00 00	 npad	 5
$LL4@SendMsgUse:

; 105  : 	{
; 106  : 		if ( gObj[g_RaklionBattleUserMng.m_vtUserInfo[iCount]].Connected == PLAYER_PLAYING &&

  00090	8b 3c b2	 mov	 edi, DWORD PTR [edx+esi*4]
  00093	a1 00 00 00 00	 mov	 eax, DWORD PTR ?gObj@@3PAUOBJECTSTRUCT@@A ; gObj
  00098	69 cf 40 27 00
	00		 imul	 ecx, edi, 10048
  0009e	83 7c 01 04 03	 cmp	 DWORD PTR [ecx+eax+4], 3
  000a3	75 23		 jne	 SHORT $LN2@SendMsgUse
  000a5	80 7c 01 50 01	 cmp	 BYTE PTR [ecx+eax+80], 1
  000aa	75 1c		 jne	 SHORT $LN2@SendMsgUse

; 107  : 			 gObj[g_RaklionBattleUserMng.m_vtUserInfo[iCount]].Type == OBJ_USER)
; 108  : 		{
; 109  : 			TNotice::SendNoticeToUser(g_RaklionBattleUserMng.m_vtUserInfo[iCount], &pNotice);

  000ac	8d 85 ec fc ff
	ff		 lea	 eax, DWORD PTR _pNotice$[ebp]
  000b2	50		 push	 eax
  000b3	57		 push	 edi
  000b4	e8 00 00 00 00	 call	 ?SendNoticeToUser@TNotice@@SAXHPAX@Z ; TNotice::SendNoticeToUser
  000b9	8b 1d 08 00 00
	00		 mov	 ebx, DWORD PTR ?g_RaklionBattleUserMng@@3VCRaklionBattleUserMng@@A+8
  000bf	83 c4 08	 add	 esp, 8
  000c2	8b 15 04 00 00
	00		 mov	 edx, DWORD PTR ?g_RaklionBattleUserMng@@3VCRaklionBattleUserMng@@A+4
$LN2@SendMsgUse:
; File c:\program files (x86)\microsoft visual studio 14.0\vc\include\vector

; 1179 : 		return (this->_Mylast() - this->_Myfirst());

  000c8	8b c3		 mov	 eax, ebx
; File c:\users\michel\desktop\source\gameserver\source\raklionutil.cpp

; 104  : 	for ( int iCount=0;iCount<g_RaklionBattleUserMng.m_vtUserInfo.size();iCount++)

  000ca	46		 inc	 esi
; File c:\program files (x86)\microsoft visual studio 14.0\vc\include\vector

; 1179 : 		return (this->_Mylast() - this->_Myfirst());

  000cb	2b c2		 sub	 eax, edx
  000cd	c1 f8 02	 sar	 eax, 2
; File c:\users\michel\desktop\source\gameserver\source\raklionutil.cpp

; 104  : 	for ( int iCount=0;iCount<g_RaklionBattleUserMng.m_vtUserInfo.size();iCount++)

  000d0	3b f0		 cmp	 esi, eax
  000d2	72 bc		 jb	 SHORT $LL4@SendMsgUse
  000d4	5f		 pop	 edi
$LN70@SendMsgUse:
  000d5	5b		 pop	 ebx
$LN3@SendMsgUse:

; 110  : 		}
; 111  : 	}
; 112  : }

  000d6	8b 4d fc	 mov	 ecx, DWORD PTR __$ArrayPad$[ebp]
  000d9	33 cd		 xor	 ecx, ebp
  000db	5e		 pop	 esi
  000dc	e8 00 00 00 00	 call	 @__security_check_cookie@4
  000e1	8b e5		 mov	 esp, ebp
  000e3	5d		 pop	 ebp
  000e4	c3		 ret	 0
?SendMsgUser@CRaklionUtil@@QAAXPADZZ ENDP		; CRaklionUtil::SendMsgUser
_TEXT	ENDS
; Function compile flags: /Ogtp
; File c:\users\michel\desktop\source\gameserver\source\raklionutil.cpp
;	COMDAT ?NotifyRaklionUserMonsterCount@CRaklionUtil@@QAEXEE@Z
_TEXT	SEGMENT
_pMsg$ = -8						; size = 6
_btMonsterCount$ = 8					; size = 1
_btUserCount$ = 12					; size = 1
?NotifyRaklionUserMonsterCount@CRaklionUtil@@QAEXEE@Z PROC ; CRaklionUtil::NotifyRaklionUserMonsterCount, COMDAT
; _this$ = ecx

; 79   : {

  00000	55		 push	 ebp
  00001	8b ec		 mov	 ebp, esp
  00003	83 ec 08	 sub	 esp, 8
  00006	56		 push	 esi

; 80   : 	PMSG_NOTIFY_RAKLION_USER_MONSTER_COUNT pMsg;
; 81   : 
; 82   : 	PHeadSubSetB((LPBYTE)&pMsg, 0xD1, 0x15, sizeof(pMsg));

  00007	6a 06		 push	 6
  00009	6a 15		 push	 21			; 00000015H
  0000b	8d 45 f8	 lea	 eax, DWORD PTR _pMsg$[ebp]
  0000e	8b f1		 mov	 esi, ecx
  00010	68 d1 00 00 00	 push	 209			; 000000d1H
  00015	50		 push	 eax
  00016	e8 00 00 00 00	 call	 ?PHeadSubSetB@@YAXPAEEEH@Z ; PHeadSubSetB

; 83   : 	pMsg.btMonsterCount = btMonsterCount;

  0001b	8a 45 08	 mov	 al, BYTE PTR _btMonsterCount$[ebp]
  0001e	83 c4 10	 add	 esp, 16			; 00000010H
  00021	88 45 fc	 mov	 BYTE PTR _pMsg$[ebp+4], al

; 84   : 	pMsg.btUserCount = btUserCount;
; 85   : 
; 86   : 	this->SendDataRaklionBossMapUser((LPBYTE)&pMsg, sizeof(pMsg));

  00024	8b ce		 mov	 ecx, esi
  00026	8a 45 0c	 mov	 al, BYTE PTR _btUserCount$[ebp]
  00029	88 45 fd	 mov	 BYTE PTR _pMsg$[ebp+5], al
  0002c	8d 45 f8	 lea	 eax, DWORD PTR _pMsg$[ebp]
  0002f	6a 06		 push	 6
  00031	50		 push	 eax
  00032	e8 00 00 00 00	 call	 ?SendDataRaklionBossMapUser@CRaklionUtil@@QAEXPAEH@Z ; CRaklionUtil::SendDataRaklionBossMapUser
  00037	5e		 pop	 esi

; 87   : }

  00038	8b e5		 mov	 esp, ebp
  0003a	5d		 pop	 ebp
  0003b	c2 08 00	 ret	 8
?NotifyRaklionUserMonsterCount@CRaklionUtil@@QAEXEE@Z ENDP ; CRaklionUtil::NotifyRaklionUserMonsterCount
_TEXT	ENDS
; Function compile flags: /Ogtp
; File c:\users\michel\desktop\source\gameserver\source\raklionutil.cpp
;	COMDAT ?NotifyRaklionWideAreaAttack@CRaklionUtil@@QAEXHHH@Z
_TEXT	SEGMENT
_pMsg$ = -8						; size = 7
_iIndex$ = 8						; size = 4
_iTargetIndex$ = 12					; size = 4
_iSkillType$ = 16					; size = 4
?NotifyRaklionWideAreaAttack@CRaklionUtil@@QAEXHHH@Z PROC ; CRaklionUtil::NotifyRaklionWideAreaAttack, COMDAT
; _this$ = ecx

; 67   : {

  00000	55		 push	 ebp
  00001	8b ec		 mov	 ebp, esp
  00003	83 ec 08	 sub	 esp, 8
  00006	56		 push	 esi

; 68   : 	PMSG_NOTIFY_RAKLION_WIDE_AREA_ATTACK pMsg;
; 69   : 
; 70   : 	PHeadSubSetB((LPBYTE)&pMsg, 0xD1, 0x14, sizeof(pMsg));

  00007	6a 07		 push	 7
  00009	6a 14		 push	 20			; 00000014H
  0000b	8d 45 f8	 lea	 eax, DWORD PTR _pMsg$[ebp]
  0000e	8b f1		 mov	 esi, ecx
  00010	68 d1 00 00 00	 push	 209			; 000000d1H
  00015	50		 push	 eax
  00016	e8 00 00 00 00	 call	 ?PHeadSubSetB@@YAXPAEEEH@Z ; PHeadSubSetB

; 71   : 	pMsg.btObjClassH = SET_NUMBERH(gObj[iIndex].Class);

  0001b	69 4d 08 40 27
	00 00		 imul	 ecx, DWORD PTR _iIndex$[ebp], 10048
  00022	83 c4 10	 add	 esp, 16			; 00000010H

; 72   : 	pMsg.btObjClassL = SET_NUMBERL(gObj[iIndex].Class);
; 73   : 	pMsg.btType = iSkillType;
; 74   : 
; 75   : 	this->SendDataToUser(iTargetIndex, (LPBYTE)&pMsg, sizeof(pMsg));

  00025	6a 07		 push	 7
  00027	03 0d 00 00 00
	00		 add	 ecx, DWORD PTR ?gObj@@3PAUOBJECTSTRUCT@@A ; gObj
  0002d	0f b6 81 91 00
	00 00		 movzx	 eax, BYTE PTR [ecx+145]
  00034	88 45 fc	 mov	 BYTE PTR _pMsg$[ebp+4], al
  00037	0f b6 81 90 00
	00 00		 movzx	 eax, BYTE PTR [ecx+144]
  0003e	8b ce		 mov	 ecx, esi
  00040	88 45 fd	 mov	 BYTE PTR _pMsg$[ebp+5], al
  00043	8a 45 10	 mov	 al, BYTE PTR _iSkillType$[ebp]
  00046	88 45 fe	 mov	 BYTE PTR _pMsg$[ebp+6], al
  00049	8d 45 f8	 lea	 eax, DWORD PTR _pMsg$[ebp]
  0004c	50		 push	 eax
  0004d	ff 75 0c	 push	 DWORD PTR _iTargetIndex$[ebp]
  00050	e8 00 00 00 00	 call	 ?SendDataToUser@CRaklionUtil@@QAEXHPAEH@Z ; CRaklionUtil::SendDataToUser
  00055	5e		 pop	 esi

; 76   : }

  00056	8b e5		 mov	 esp, ebp
  00058	5d		 pop	 ebp
  00059	c2 0c 00	 ret	 12			; 0000000cH
?NotifyRaklionWideAreaAttack@CRaklionUtil@@QAEXHHH@Z ENDP ; CRaklionUtil::NotifyRaklionWideAreaAttack
_TEXT	ENDS
; Function compile flags: /Ogtp
; File c:\users\michel\desktop\source\gameserver\source\raklionutil.cpp
;	COMDAT ?NotifyRaklionCurrentState@CRaklionUtil@@QAEXHEE@Z
_TEXT	SEGMENT
_pMsg$ = -8						; size = 6
_iIndex$ = 8						; size = 4
_btState$ = 12						; size = 1
_btDetailState$ = 16					; size = 1
?NotifyRaklionCurrentState@CRaklionUtil@@QAEXHEE@Z PROC	; CRaklionUtil::NotifyRaklionCurrentState, COMDAT
; _this$ = ecx

; 56   : {

  00000	55		 push	 ebp
  00001	8b ec		 mov	 ebp, esp
  00003	83 ec 08	 sub	 esp, 8

; 57   : 	PMSG_ANS_RAKLION_CURRENT_STATE pMsg = {0};
; 58   : 
; 59   : 	PHeadSubSetB((LPBYTE)&pMsg, 0xD1, 0x11, sizeof(pMsg));

  00006	6a 06		 push	 6
  00008	6a 11		 push	 17			; 00000011H
  0000a	8d 45 f8	 lea	 eax, DWORD PTR _pMsg$[ebp]
  0000d	c6 45 f8 00	 mov	 BYTE PTR _pMsg$[ebp], 0
  00011	68 d1 00 00 00	 push	 209			; 000000d1H
  00016	50		 push	 eax
  00017	c7 45 f9 00 00
	00 00		 mov	 DWORD PTR _pMsg$[ebp+1], 0
  0001e	c6 45 fd 00	 mov	 BYTE PTR _pMsg$[ebp+5], 0
  00022	e8 00 00 00 00	 call	 ?PHeadSubSetB@@YAXPAEEEH@Z ; PHeadSubSetB

; 60   : 	pMsg.btCurrentState = btState;

  00027	8a 45 0c	 mov	 al, BYTE PTR _btState$[ebp]
  0002a	88 45 fc	 mov	 BYTE PTR _pMsg$[ebp+4], al

; 61   : 	pMsg.btCurrentDetailState = btDetailState;

  0002d	8a 45 10	 mov	 al, BYTE PTR _btDetailState$[ebp]
  00030	88 45 fd	 mov	 BYTE PTR _pMsg$[ebp+5], al

; 62   : 
; 63   : 	DataSend(iIndex, (LPBYTE)&pMsg, sizeof(pMsg));

  00033	8d 45 f8	 lea	 eax, DWORD PTR _pMsg$[ebp]
  00036	6a 06		 push	 6
  00038	50		 push	 eax
  00039	ff 75 08	 push	 DWORD PTR _iIndex$[ebp]
  0003c	e8 00 00 00 00	 call	 ?DataSend@@YAHHPAEK@Z	; DataSend
  00041	83 c4 1c	 add	 esp, 28			; 0000001cH

; 64   : }

  00044	8b e5		 mov	 esp, ebp
  00046	5d		 pop	 ebp
  00047	c2 0c 00	 ret	 12			; 0000000cH
?NotifyRaklionCurrentState@CRaklionUtil@@QAEXHEE@Z ENDP	; CRaklionUtil::NotifyRaklionCurrentState
_TEXT	ENDS
; Function compile flags: /Ogtp
; File c:\users\michel\desktop\source\gameserver\source\raklionutil.cpp
;	COMDAT ?NotifyRaklionSuccessValue@CRaklionUtil@@QAEXH@Z
_TEXT	SEGMENT
_pMsg$ = -8						; size = 5
_iSuccessValue$ = 8					; size = 4
?NotifyRaklionSuccessValue@CRaklionUtil@@QAEXH@Z PROC	; CRaklionUtil::NotifyRaklionSuccessValue, COMDAT
; _this$ = ecx

; 46   : {

  00000	55		 push	 ebp
  00001	8b ec		 mov	 ebp, esp
  00003	83 ec 08	 sub	 esp, 8
  00006	56		 push	 esi

; 47   : 	PMSG_ANS_RAKLION_SUCCESS_VALUE pMsg = {0};
; 48   : 
; 49   : 	PHeadSubSetB((LPBYTE)&pMsg, 0xD1, 0x13, sizeof(pMsg));

  00007	6a 05		 push	 5
  00009	6a 13		 push	 19			; 00000013H
  0000b	8d 45 f8	 lea	 eax, DWORD PTR _pMsg$[ebp]
  0000e	c6 45 f8 00	 mov	 BYTE PTR _pMsg$[ebp], 0
  00012	68 d1 00 00 00	 push	 209			; 000000d1H
  00017	50		 push	 eax
  00018	8b f1		 mov	 esi, ecx
  0001a	c7 45 f9 00 00
	00 00		 mov	 DWORD PTR _pMsg$[ebp+1], 0
  00021	e8 00 00 00 00	 call	 ?PHeadSubSetB@@YAXPAEEEH@Z ; PHeadSubSetB

; 50   : 	pMsg.btValue = iSuccessValue;

  00026	8a 45 08	 mov	 al, BYTE PTR _iSuccessValue$[ebp]
  00029	83 c4 10	 add	 esp, 16			; 00000010H
  0002c	88 45 fc	 mov	 BYTE PTR _pMsg$[ebp+4], al

; 51   : 
; 52   : 	this->SendDataRaklionBossMapUser((LPBYTE)&pMsg, sizeof(pMsg));

  0002f	8b ce		 mov	 ecx, esi
  00031	8d 45 f8	 lea	 eax, DWORD PTR _pMsg$[ebp]
  00034	6a 05		 push	 5
  00036	50		 push	 eax
  00037	e8 00 00 00 00	 call	 ?SendDataRaklionBossMapUser@CRaklionUtil@@QAEXPAEH@Z ; CRaklionUtil::SendDataRaklionBossMapUser
  0003c	5e		 pop	 esi

; 53   : }

  0003d	8b e5		 mov	 esp, ebp
  0003f	5d		 pop	 ebp
  00040	c2 04 00	 ret	 4
?NotifyRaklionSuccessValue@CRaklionUtil@@QAEXH@Z ENDP	; CRaklionUtil::NotifyRaklionSuccessValue
_TEXT	ENDS
; Function compile flags: /Ogtp
; File c:\users\michel\desktop\source\gameserver\source\raklionutil.cpp
;	COMDAT ?NotifyRaklionChangeState@CRaklionUtil@@QAEXHH@Z
_TEXT	SEGMENT
_pMsg$ = -8						; size = 6
_iState$ = 8						; size = 4
_iDetailState$ = 12					; size = 4
?NotifyRaklionChangeState@CRaklionUtil@@QAEXHH@Z PROC	; CRaklionUtil::NotifyRaklionChangeState, COMDAT
; _this$ = ecx

; 29   : {

  00000	55		 push	 ebp
  00001	8b ec		 mov	 ebp, esp
  00003	83 ec 08	 sub	 esp, 8
  00006	56		 push	 esi

; 30   : 	PMSG_ANS_RAKLION_STATE_CHANGE pMsg = {0};
; 31   : 
; 32   : 	PHeadSubSetB((LPBYTE)&pMsg, 0xD1, 0x12, sizeof(pMsg));

  00007	6a 06		 push	 6
  00009	6a 12		 push	 18			; 00000012H
  0000b	8d 45 f8	 lea	 eax, DWORD PTR _pMsg$[ebp]
  0000e	c6 45 f8 00	 mov	 BYTE PTR _pMsg$[ebp], 0
  00012	68 d1 00 00 00	 push	 209			; 000000d1H
  00017	50		 push	 eax
  00018	8b f1		 mov	 esi, ecx
  0001a	c7 45 f9 00 00
	00 00		 mov	 DWORD PTR _pMsg$[ebp+1], 0
  00021	c6 45 fd 00	 mov	 BYTE PTR _pMsg$[ebp+5], 0
  00025	e8 00 00 00 00	 call	 ?PHeadSubSetB@@YAXPAEEEH@Z ; PHeadSubSetB

; 33   : 	pMsg.btState = iState;
; 34   : 	pMsg.btDetailState = iDetailState;

  0002a	8a 45 0c	 mov	 al, BYTE PTR _iDetailState$[ebp]
  0002d	83 c4 10	 add	 esp, 16			; 00000010H
  00030	8b 4d 08	 mov	 ecx, DWORD PTR _iState$[ebp]

; 35   : 
; 36   : 	if(iState == 1)

  00033	83 f9 01	 cmp	 ecx, 1
  00036	88 45 fd	 mov	 BYTE PTR _pMsg$[ebp+5], al

; 37   : 	{
; 38   : 		this->SendDataRaklionMapUser((LPBYTE)&pMsg,sizeof(pMsg));	

  00039	8d 45 f8	 lea	 eax, DWORD PTR _pMsg$[ebp]
  0003c	88 4d fc	 mov	 BYTE PTR _pMsg$[ebp+4], cl
  0003f	8b ce		 mov	 ecx, esi
  00041	6a 06		 push	 6
  00043	50		 push	 eax
  00044	75 0c		 jne	 SHORT $LN2@NotifyRakl
  00046	e8 00 00 00 00	 call	 ?SendDataRaklionMapUser@CRaklionUtil@@QAEXPAEH@Z ; CRaklionUtil::SendDataRaklionMapUser
  0004b	5e		 pop	 esi

; 43   : }

  0004c	8b e5		 mov	 esp, ebp
  0004e	5d		 pop	 ebp
  0004f	c2 08 00	 ret	 8
$LN2@NotifyRakl:

; 39   : 		return;
; 40   : 	}
; 41   : 
; 42   : 	this->SendDataRaklionBossMapUser((LPBYTE)&pMsg, sizeof(pMsg));

  00052	e8 00 00 00 00	 call	 ?SendDataRaklionBossMapUser@CRaklionUtil@@QAEXPAEH@Z ; CRaklionUtil::SendDataRaklionBossMapUser
  00057	5e		 pop	 esi

; 43   : }

  00058	8b e5		 mov	 esp, ebp
  0005a	5d		 pop	 ebp
  0005b	c2 08 00	 ret	 8
?NotifyRaklionChangeState@CRaklionUtil@@QAEXHH@Z ENDP	; CRaklionUtil::NotifyRaklionChangeState
_TEXT	ENDS
; Function compile flags: /Ogtp
; File c:\users\michel\desktop\source\gameserver\source\raklionutil.cpp
;	COMDAT ??1CRaklionUtil@@UAE@XZ
_TEXT	SEGMENT
??1CRaklionUtil@@UAE@XZ PROC				; CRaklionUtil::~CRaklionUtil, COMDAT
; _this$ = ecx

; 24   : {

  00000	c7 01 00 00 00
	00		 mov	 DWORD PTR [ecx], OFFSET ??_7CRaklionUtil@@6B@

; 25   : 
; 26   : }

  00006	c3		 ret	 0
??1CRaklionUtil@@UAE@XZ ENDP				; CRaklionUtil::~CRaklionUtil
_TEXT	ENDS
; Function compile flags: /Ogtp
; File c:\users\michel\desktop\source\gameserver\source\raklionutil.cpp
;	COMDAT ??0CRaklionUtil@@QAE@XZ
_TEXT	SEGMENT
??0CRaklionUtil@@QAE@XZ PROC				; CRaklionUtil::CRaklionUtil, COMDAT
; _this$ = ecx

; 19   : {

  00000	c7 01 00 00 00
	00		 mov	 DWORD PTR [ecx], OFFSET ??_7CRaklionUtil@@6B@

; 20   : 
; 21   : }

  00006	8b c1		 mov	 eax, ecx
  00008	c3		 ret	 0
??0CRaklionUtil@@QAE@XZ ENDP				; CRaklionUtil::CRaklionUtil
_TEXT	ENDS
; Function compile flags: /Ogtp
;	COMDAT ??_EOBJECTSTRUCT@@QAEPAXI@Z
_TEXT	SEGMENT
__$EHRec$ = -12						; size = 12
___flags$ = 8						; size = 4
??_EOBJECTSTRUCT@@QAEPAXI@Z PROC			; OBJECTSTRUCT::`vector deleting destructor', COMDAT
; _this$ = ecx
  00000	55		 push	 ebp
  00001	8b ec		 mov	 ebp, esp
  00003	6a ff		 push	 -1
  00005	68 00 00 00 00	 push	 __ehhandler$??_EOBJECTSTRUCT@@QAEPAXI@Z
  0000a	64 a1 00 00 00
	00		 mov	 eax, DWORD PTR fs:0
  00010	50		 push	 eax
  00011	53		 push	 ebx
  00012	56		 push	 esi
  00013	57		 push	 edi
  00014	a1 00 00 00 00	 mov	 eax, DWORD PTR ___security_cookie
  00019	33 c5		 xor	 eax, ebp
  0001b	50		 push	 eax
  0001c	8d 45 f4	 lea	 eax, DWORD PTR __$EHRec$[ebp]
  0001f	64 a3 00 00 00
	00		 mov	 DWORD PTR fs:0, eax
  00025	8b f1		 mov	 esi, ecx
  00027	8b 5d 08	 mov	 ebx, DWORD PTR ___flags$[ebp]
  0002a	f6 c3 02	 test	 bl, 2
  0002d	74 44		 je	 SHORT $LN2@vector
  0002f	68 00 00 00 00	 push	 OFFSET ??1OBJECTSTRUCT@@QAE@XZ
  00034	ff 76 fc	 push	 DWORD PTR [esi-4]
  00037	8d 7e fc	 lea	 edi, DWORD PTR [esi-4]
  0003a	68 40 27 00 00	 push	 10048			; 00002740H
  0003f	56		 push	 esi
  00040	e8 00 00 00 00	 call	 ??_M@YGXPAXIIP6EX0@Z@Z
  00045	f6 c3 01	 test	 bl, 1
  00048	74 13		 je	 SHORT $LN3@vector
  0004a	69 0f 40 27 00
	00		 imul	 ecx, DWORD PTR [edi], 10048
  00050	83 c1 04	 add	 ecx, 4
  00053	51		 push	 ecx
  00054	57		 push	 edi
  00055	e8 00 00 00 00	 call	 ??_V@YAXPAXI@Z		; operator delete[]
  0005a	83 c4 08	 add	 esp, 8
$LN3@vector:
  0005d	8b c7		 mov	 eax, edi
  0005f	8b 4d f4	 mov	 ecx, DWORD PTR __$EHRec$[ebp]
  00062	64 89 0d 00 00
	00 00		 mov	 DWORD PTR fs:0, ecx
  00069	59		 pop	 ecx
  0006a	5f		 pop	 edi
  0006b	5e		 pop	 esi
  0006c	5b		 pop	 ebx
  0006d	8b e5		 mov	 esp, ebp
  0006f	5d		 pop	 ebp
  00070	c2 04 00	 ret	 4
$LN2@vector:
  00073	8d 8e ec 20 00
	00		 lea	 ecx, DWORD PTR [esi+8428]
  00079	e8 00 00 00 00	 call	 ??1TMonsterAIAgro@@UAE@XZ ; TMonsterAIAgro::~TMonsterAIAgro
  0007e	8d 8e 0c 16 00
	00		 lea	 ecx, DWORD PTR [esi+5644]
  00084	e8 00 00 00 00	 call	 ??1CSkillDelay@@UAE@XZ	; CSkillDelay::~CSkillDelay
  00089	f6 c3 01	 test	 bl, 1
  0008c	74 0e		 je	 SHORT $LN4@vector
  0008e	68 40 27 00 00	 push	 10048			; 00002740H
  00093	56		 push	 esi
  00094	e8 00 00 00 00	 call	 ??3@YAXPAXI@Z		; operator delete
  00099	83 c4 08	 add	 esp, 8
$LN4@vector:
  0009c	8b c6		 mov	 eax, esi
  0009e	8b 4d f4	 mov	 ecx, DWORD PTR __$EHRec$[ebp]
  000a1	64 89 0d 00 00
	00 00		 mov	 DWORD PTR fs:0, ecx
  000a8	59		 pop	 ecx
  000a9	5f		 pop	 edi
  000aa	5e		 pop	 esi
  000ab	5b		 pop	 ebx
  000ac	8b e5		 mov	 esp, ebp
  000ae	5d		 pop	 ebp
  000af	c2 04 00	 ret	 4
_TEXT	ENDS
;	COMDAT text$x
text$x	SEGMENT
__ehhandler$??_EOBJECTSTRUCT@@QAEPAXI@Z:
  00000	8b 54 24 08	 mov	 edx, DWORD PTR [esp+8]
  00004	8d 42 0c	 lea	 eax, DWORD PTR [edx+12]
  00007	8b 4a f0	 mov	 ecx, DWORD PTR [edx-16]
  0000a	33 c8		 xor	 ecx, eax
  0000c	e8 00 00 00 00	 call	 @__security_check_cookie@4
  00011	b8 00 00 00 00	 mov	 eax, OFFSET __ehfuncinfo$??_EOBJECTSTRUCT@@QAEPAXI@Z
  00016	e9 00 00 00 00	 jmp	 ___CxxFrameHandler3
text$x	ENDS
??_EOBJECTSTRUCT@@QAEPAXI@Z ENDP			; OBJECTSTRUCT::`vector deleting destructor'
; Function compile flags: /Ogtp
;	COMDAT ??1OBJECTSTRUCT@@QAE@XZ
_TEXT	SEGMENT
??1OBJECTSTRUCT@@QAE@XZ PROC				; OBJECTSTRUCT::~OBJECTSTRUCT, COMDAT
; _this$ = ecx
  00000	56		 push	 esi
  00001	8b f1		 mov	 esi, ecx
  00003	8d 8e ec 20 00
	00		 lea	 ecx, DWORD PTR [esi+8428]
  00009	e8 00 00 00 00	 call	 ??1TMonsterAIAgro@@UAE@XZ ; TMonsterAIAgro::~TMonsterAIAgro
  0000e	8d 8e 0c 16 00
	00		 lea	 ecx, DWORD PTR [esi+5644]
  00014	5e		 pop	 esi
  00015	e9 00 00 00 00	 jmp	 ??1CSkillDelay@@UAE@XZ	; CSkillDelay::~CSkillDelay
??1OBJECTSTRUCT@@QAE@XZ ENDP				; OBJECTSTRUCT::~OBJECTSTRUCT
_TEXT	ENDS
; Function compile flags: /Ogtp
; File c:\program files (x86)\microsoft visual studio 14.0\vc\include\vadefs.h
;	COMDAT ??$__vcrt_va_start_verify_argument_type@PAD@@YAXXZ
_TEXT	SEGMENT
??$__vcrt_va_start_verify_argument_type@PAD@@YAXXZ PROC	; __vcrt_va_start_verify_argument_type<char *>, COMDAT

; 145  :             static_assert(!__vcrt_va_list_is_reference<_Ty>::__the_value, "va_start argument must not have reference type and must not be parenthesized");
; 146  :         }

  00000	c3		 ret	 0
??$__vcrt_va_start_verify_argument_type@PAD@@YAXXZ ENDP	; __vcrt_va_start_verify_argument_type<char *>
_TEXT	ENDS
; Function compile flags: /Ogtp
; File c:\program files (x86)\windows kits\10\include\10.0.10240.0\ucrt\stdio.h
;	COMDAT _vsprintf
_TEXT	SEGMENT
__Buffer$ = 8						; size = 4
__Format$ = 12						; size = 4
__ArgList$ = 16						; size = 4
_vsprintf PROC						; COMDAT

; 1473 : {

  00000	55		 push	 ebp
  00001	8b ec		 mov	 ebp, esp

; 1386 :     int const _Result = __stdio_common_vsprintf(

  00003	ff 75 10	 push	 DWORD PTR __ArgList$[ebp]
  00006	6a 00		 push	 0
  00008	ff 75 0c	 push	 DWORD PTR __Format$[ebp]
  0000b	6a ff		 push	 -1
  0000d	ff 75 08	 push	 DWORD PTR __Buffer$[ebp]
  00010	e8 00 00 00 00	 call	 ___local_stdio_printf_options
  00015	8b 08		 mov	 ecx, DWORD PTR [eax]
  00017	ff 70 04	 push	 DWORD PTR [eax+4]
  0001a	83 c9 01	 or	 ecx, 1
  0001d	51		 push	 ecx
  0001e	e8 00 00 00 00	 call	 ___stdio_common_vsprintf

; 1387 :         _CRT_INTERNAL_LOCAL_PRINTF_OPTIONS | _CRT_INTERNAL_PRINTF_LEGACY_VSPRINTF_NULL_TERMINATION,
; 1388 :         _Buffer, _BufferCount, _Format, _Locale, _ArgList);
; 1389 : 
; 1390 :     return _Result < 0 ? -1 : _Result;

  00023	83 c9 ff	 or	 ecx, -1
  00026	83 c4 1c	 add	 esp, 28			; 0000001cH
  00029	85 c0		 test	 eax, eax
  0002b	0f 48 c1	 cmovs	 eax, ecx

; 1474 :     #pragma warning(push)
; 1475 :     #pragma warning(disable: 4996) // Deprecation
; 1476 :     return _vsnprintf_l(_Buffer, (size_t)-1, _Format, NULL, _ArgList);
; 1477 :     #pragma warning(pop)
; 1478 : }

  0002e	5d		 pop	 ebp
  0002f	c3		 ret	 0
_vsprintf ENDP
_TEXT	ENDS
; Function compile flags: /Ogtp
; File c:\program files (x86)\windows kits\10\include\10.0.10240.0\ucrt\stdio.h
;	COMDAT __vsnprintf_l
_TEXT	SEGMENT
__Buffer$ = 8						; size = 4
__BufferCount$ = 12					; size = 4
__Format$ = 16						; size = 4
__Locale$ = 20						; size = 4
__ArgList$ = 24						; size = 4
__vsnprintf_l PROC					; COMDAT

; 1385 : {

  00000	55		 push	 ebp
  00001	8b ec		 mov	 ebp, esp

; 1386 :     int const _Result = __stdio_common_vsprintf(

  00003	ff 75 18	 push	 DWORD PTR __ArgList$[ebp]
  00006	ff 75 14	 push	 DWORD PTR __Locale$[ebp]
  00009	ff 75 10	 push	 DWORD PTR __Format$[ebp]
  0000c	ff 75 0c	 push	 DWORD PTR __BufferCount$[ebp]
  0000f	ff 75 08	 push	 DWORD PTR __Buffer$[ebp]
  00012	e8 00 00 00 00	 call	 ___local_stdio_printf_options
  00017	8b 08		 mov	 ecx, DWORD PTR [eax]
  00019	ff 70 04	 push	 DWORD PTR [eax+4]
  0001c	83 c9 01	 or	 ecx, 1
  0001f	51		 push	 ecx
  00020	e8 00 00 00 00	 call	 ___stdio_common_vsprintf

; 1387 :         _CRT_INTERNAL_LOCAL_PRINTF_OPTIONS | _CRT_INTERNAL_PRINTF_LEGACY_VSPRINTF_NULL_TERMINATION,
; 1388 :         _Buffer, _BufferCount, _Format, _Locale, _ArgList);
; 1389 : 
; 1390 :     return _Result < 0 ? -1 : _Result;

  00025	83 c9 ff	 or	 ecx, -1
  00028	83 c4 1c	 add	 esp, 28			; 0000001cH
  0002b	85 c0		 test	 eax, eax
  0002d	0f 48 c1	 cmovs	 eax, ecx

; 1391 : }

  00030	5d		 pop	 ebp
  00031	c3		 ret	 0
__vsnprintf_l ENDP
_TEXT	ENDS
; Function compile flags: /Ogtp
; File c:\program files (x86)\windows kits\10\include\10.0.10240.0\ucrt\corecrt_stdio_config.h
;	COMDAT ___local_stdio_printf_options
_TEXT	SEGMENT
___local_stdio_printf_options PROC			; COMDAT

; 74   :     static unsigned __int64 _OptionsStorage;
; 75   :     return &_OptionsStorage;

  00000	b8 00 00 00 00	 mov	 eax, OFFSET ?_OptionsStorage@?1??__local_stdio_printf_options@@9@4_KA ; `__local_stdio_printf_options'::`2'::_OptionsStorage

; 76   : }

  00005	c3		 ret	 0
___local_stdio_printf_options ENDP
_TEXT	ENDS
; Function compile flags: /Ogtp
; File c:\users\michel\desktop\source\gameserver\source\raklionutil.cpp
;	COMDAT ?__empty_global_delete@@YAXPAXI@Z
_TEXT	SEGMENT
___formal$ = 8						; size = 4
___formal$ = 12						; size = 4
?__empty_global_delete@@YAXPAXI@Z PROC			; __empty_global_delete, COMDAT

  00000	c3		 ret	 0
?__empty_global_delete@@YAXPAXI@Z ENDP			; __empty_global_delete
_TEXT	ENDS
; Function compile flags: /Ogtp
; File c:\users\michel\desktop\source\gameserver\source\raklionutil.cpp
;	COMDAT ?__empty_global_delete@@YAXPAX@Z
_TEXT	SEGMENT
___formal$ = 8						; size = 4
?__empty_global_delete@@YAXPAX@Z PROC			; __empty_global_delete, COMDAT

; 266  : }

  00000	c3		 ret	 0
?__empty_global_delete@@YAXPAX@Z ENDP			; __empty_global_delete
_TEXT	ENDS
END
