; Listing generated by Microsoft (R) Optimizing Compiler Version 19.00.23506.0 

	TITLE	C:\Users\Michel\Desktop\Source\GameServer\Source\ResetSystem.cpp
	.686P
	.XMM
	include listing.inc
	.model	flat

INCLUDELIB LIBCMT
INCLUDELIB OLDNAMES

PUBLIC	?__empty_global_delete@@YAXPAX@Z		; __empty_global_delete
PUBLIC	?__empty_global_delete@@YAXPAXI@Z		; __empty_global_delete
PUBLIC	??3@YAXPAX0@Z					; operator delete
PUBLIC	___local_stdio_printf_options
PUBLIC	??$__vcrt_va_start_verify_argument_type@PAD@@YAXXZ ; __vcrt_va_start_verify_argument_type<char *>
PUBLIC	??1OBJECTSTRUCT@@QAE@XZ				; OBJECTSTRUCT::~OBJECTSTRUCT
PUBLIC	??_EOBJECTSTRUCT@@QAEPAXI@Z			; OBJECTSTRUCT::`vector deleting destructor'
PUBLIC	?deallocate@?$allocator@UResetItem@@@std@@QAEXPAUResetItem@@I@Z ; std::allocator<ResetItem>::deallocate
PUBLIC	?allocate@?$allocator@UResetItem@@@std@@QAEPAUResetItem@@I@Z ; std::allocator<ResetItem>::allocate
PUBLIC	??0?$vector@UResetItem@@V?$allocator@UResetItem@@@std@@@std@@QAE@ABV01@@Z ; std::vector<ResetItem,std::allocator<ResetItem> >::vector<ResetItem,std::allocator<ResetItem> >
PUBLIC	?push_back@?$vector@UResetItem@@V?$allocator@UResetItem@@@std@@@std@@QAEXABUResetItem@@@Z ; std::vector<ResetItem,std::allocator<ResetItem> >::push_back
PUBLIC	?_Reallocate@?$vector@UResetItem@@V?$allocator@UResetItem@@@std@@@std@@IAEXI@Z ; std::vector<ResetItem,std::allocator<ResetItem> >::_Reallocate
PUBLIC	?_Reserve@?$vector@UResetItem@@V?$allocator@UResetItem@@@std@@@std@@IAEXI@Z ; std::vector<ResetItem,std::allocator<ResetItem> >::_Reserve
PUBLIC	?_Tidy@?$vector@UResetItem@@V?$allocator@UResetItem@@@std@@@std@@IAEXXZ ; std::vector<ResetItem,std::allocator<ResetItem> >::_Tidy
PUBLIC	??1ResetGroup@@QAE@XZ				; ResetGroup::~ResetGroup
PUBLIC	??0ResetGroup@@QAE@ABU0@@Z			; ResetGroup::ResetGroup
PUBLIC	??0ResetGroup@@QAE@$$QAU0@@Z			; ResetGroup::ResetGroup
PUBLIC	?deallocate@?$allocator@UResetGroup@@@std@@QAEXPAUResetGroup@@I@Z ; std::allocator<ResetGroup>::deallocate
PUBLIC	?allocate@?$allocator@UResetGroup@@@std@@QAEPAUResetGroup@@I@Z ; std::allocator<ResetGroup>::allocate
PUBLIC	?_Reallocate@?$vector@UResetGroup@@V?$allocator@UResetGroup@@@std@@@std@@IAEXI@Z ; std::vector<ResetGroup,std::allocator<ResetGroup> >::_Reallocate
PUBLIC	?_Reserve@?$vector@UResetGroup@@V?$allocator@UResetGroup@@@std@@@std@@IAEXI@Z ; std::vector<ResetGroup,std::allocator<ResetGroup> >::_Reserve
PUBLIC	??1ResetData@@QAE@XZ				; ResetData::~ResetData
PUBLIC	??0ResetSystem@@QAE@XZ				; ResetSystem::ResetSystem
PUBLIC	??1ResetSystem@@UAE@XZ				; ResetSystem::~ResetSystem
PUBLIC	?Init@ResetSystem@@QAEXXZ			; ResetSystem::Init
PUBLIC	?Load@ResetSystem@@QAEXXZ			; ResetSystem::Load
PUBLIC	?Read@ResetSystem@@QAEXPAD@Z			; ResetSystem::Read
PUBLIC	?ProcDialog@ResetSystem@@QAE_NPAUOBJECTSTRUCT@@0@Z ; ResetSystem::ProcDialog
PUBLIC	?ProcReset@ResetSystem@@QAE_NPAUOBJECTSTRUCT@@W4T@ResetType@@EE@Z ; ResetSystem::ProcReset
PUBLIC	?GC_OpenDialog@ResetSystem@@QAEXPAUOBJECTSTRUCT@@W4T@ResetType@@@Z ; ResetSystem::GC_OpenDialog
PUBLIC	?GC_MessageBox@ResetSystem@@QAAXPAUOBJECTSTRUCT@@PAD1ZZ ; ResetSystem::GC_MessageBox
PUBLIC	?CG_RequestStart@ResetSystem@@QAEXHPAUPacketResetStart@@@Z ; ResetSystem::CG_RequestStart
PUBLIC	?IsValidItemNode@ResetSystem@@AAE_NUResetItem@@@Z ; ResetSystem::IsValidItemNode
PUBLIC	?CheckRequirements@ResetSystem@@AAE_NPAUOBJECTSTRUCT@@PAUResetGroup@@W4T@ResetType@@_NE@Z ; ResetSystem::CheckRequirements
PUBLIC	?CheckRequirements@ResetSystem@@AAE_NPAUOBJECTSTRUCT@@W4T@ResetType@@@Z ; ResetSystem::CheckRequirements
PUBLIC	?GetItemInventoryPos@ResetSystem@@AAEEPAUOBJECTSTRUCT@@UResetItem@@@Z ; ResetSystem::GetItemInventoryPos
PUBLIC	?GetResetMoney@ResetSystem@@AAEHPAUOBJECTSTRUCT@@PAUResetGroup@@W4T@ResetType@@_N@Z ; ResetSystem::GetResetMoney
PUBLIC	?GetResetGroup@ResetSystem@@AAEPAUResetGroup@@PAUOBJECTSTRUCT@@W4T@ResetType@@@Z ; ResetSystem::GetResetGroup
PUBLIC	??_GResetSystem@@UAEPAXI@Z			; ResetSystem::`scalar deleting destructor'
PUBLIC	??$_Destroy_range@U?$_Wrap_alloc@V?$allocator@UResetGroup@@@std@@@std@@@std@@YAXPAUResetGroup@@0AAU?$_Wrap_alloc@V?$allocator@UResetGroup@@@std@@@0@U_Nonscalar_ptr_iterator_tag@0@@Z ; std::_Destroy_range<std::_Wrap_alloc<std::allocator<ResetGroup> > >
PUBLIC	??$_Uninit_move@PAUResetGroup@@PAU1@V?$allocator@UResetGroup@@@std@@U1@@std@@YAPAUResetGroup@@PAU1@00AAU?$_Wrap_alloc@V?$allocator@UResetGroup@@@std@@@0@0U_Nonscalar_ptr_iterator_tag@0@@Z ; std::_Uninit_move<ResetGroup *,ResetGroup *,std::allocator<ResetGroup>,ResetGroup>
PUBLIC	??$_Uninit_move@PAUResetItem@@PAU1@V?$allocator@UResetItem@@@std@@U1@@std@@YAPAUResetItem@@PAU1@00AAU?$_Wrap_alloc@V?$allocator@UResetItem@@@std@@@0@0U_Nonscalar_ptr_iterator_tag@0@@Z ; std::_Uninit_move<ResetItem *,ResetItem *,std::allocator<ResetItem>,ResetItem>
PUBLIC	??$_Uninit_copy@PBUResetItem@@PAU1@V?$allocator@UResetItem@@@std@@@std@@YAPAUResetItem@@PBU1@0PAU1@AAU?$_Wrap_alloc@V?$allocator@UResetItem@@@std@@@0@U_Nonscalar_ptr_iterator_tag@0@@Z ; std::_Uninit_copy<ResetItem const *,ResetItem *,std::allocator<ResetItem> >
PUBLIC	?_OptionsStorage@?1??__local_stdio_printf_options@@9@4_KA ; `__local_stdio_printf_options'::`2'::_OptionsStorage
PUBLIC	??_7ResetSystem@@6B@				; ResetSystem::`vftable'
PUBLIC	?g_ResetSystem@@3VResetSystem@@A		; g_ResetSystem
PUBLIC	??_C@_0M@FCNIBGCF@?4?2Log?2Reset?$AA@		; `string'
PUBLIC	??_C@_05CCGMLFNG@Reset?$AA@			; `string'
PUBLIC	??_C@_0BH@MNGMBMNH@Custom?2ResetSystem?4xml?$AA@ ; `string'
PUBLIC	??_C@_0CB@KHAPEMJG@?$FLResetSystem?$FN?5File?5?$CFs?5not?5found?$CB@ ; `string'
PUBLIC	??_C@_0M@HLIFFONB@resetsystem?$AA@		; `string'
PUBLIC	??_C@_06IKLLLDHL@normal?$AA@			; `string'
PUBLIC	??_C@_07MHHIKOPA@enabled?$AA@			; `string'
PUBLIC	??_C@_03BPGDPAOH@npc?$AA@			; `string'
PUBLIC	??_C@_02EGCJHIOB@id?$AA@			; `string'
PUBLIC	??_C@_03HBNNNHNM@map?$AA@			; `string'
PUBLIC	??_C@_01FJMABOPO@x?$AA@				; `string'
PUBLIC	??_C@_01EANLCPLP@y?$AA@				; `string'
PUBLIC	??_C@_09EKKKGLLH@grouplist?$AA@			; `string'
PUBLIC	??_C@_05MGJOOGAJ@group?$AA@			; `string'
PUBLIC	??_C@_08EHBDOELG@minlevel?$AA@			; `string'
PUBLIC	??_C@_08JAPIFGPH@maxlevel?$AA@			; `string'
PUBLIC	??_C@_08MLAKOPDG@minreset?$AA@			; `string'
PUBLIC	??_C@_08BMOBFNHH@maxreset?$AA@			; `string'
PUBLIC	??_C@_05IKCNOJAA@money?$AA@			; `string'
PUBLIC	??_C@_06JEOJDFIL@wcoinc?$AA@			; `string'
PUBLIC	??_C@_06PFAGHEBJ@wcoinp?$AA@			; `string'
PUBLIC	??_C@_06PAIFPAIP@wcoing?$AA@			; `string'
PUBLIC	??_C@_05KIGPLGEM@gensp?$AA@			; `string'
PUBLIC	??_C@_07JKABFLJI@credits?$AA@			; `string'
PUBLIC	??_C@_05EKJCMADO@delay?$AA@			; `string'
PUBLIC	??_C@_08OJKDDGJG@cleaning?$AA@			; `string'
PUBLIC	??_C@_05BLKJBNOD@stats?$AA@			; `string'
PUBLIC	??_C@_06GPGIDCJA@points?$AA@			; `string'
PUBLIC	??_C@_06HNCNFAFI@skills?$AA@			; `string'
PUBLIC	??_C@_09FJJPPKDN@equipment?$AA@			; `string'
PUBLIC	??_C@_09OCPGKIKB@inventory?$AA@			; `string'
PUBLIC	??_C@_04BFIJLIPK@shop?$AA@			; `string'
PUBLIC	??_C@_0M@BHKEDLCN@masterlevel?$AA@		; `string'
PUBLIC	??_C@_0N@GHLLHCDN@masterpoints?$AA@		; `string'
PUBLIC	??_C@_0N@HFPOBAPF@masterskills?$AA@		; `string'
PUBLIC	??_C@_0M@NJHEGDCF@marlonquest?$AA@		; `string'
PUBLIC	??_C@_06ELLFFOK@checks?$AA@			; `string'
PUBLIC	??_C@_06NPNBMBEO@reward?$AA@			; `string'
PUBLIC	??_C@_09LIMLDHCM@pointmode?$AA@			; `string'
PUBLIC	??_C@_05ENKANFLO@class?$AA@			; `string'
PUBLIC	??_C@_0DK@DFHDDGPP@?$FLResetSystem?$FN?5Syntax?5error?5in?5re@ ; `string'
PUBLIC	??_C@_05BBEJFBFA@point?$AA@			; `string'
PUBLIC	??_C@_09GEBMJOEB@itemslist?$AA@			; `string'
PUBLIC	??_C@_04NHONDGDE@item?$AA@			; `string'
PUBLIC	??_C@_04GPMDFGEJ@type?$AA@			; `string'
PUBLIC	??_C@_05FKHKFDID@index?$AA@			; `string'
PUBLIC	??_C@_06GJMPOCOI@minlvl?$AA@			; `string'
PUBLIC	??_C@_06GKDMACKH@maxlvl?$AA@			; `string'
PUBLIC	??_C@_06HKHMELIB@mindur?$AA@			; `string'
PUBLIC	??_C@_06HJIPKLMO@maxdur?$AA@			; `string'
PUBLIC	??_C@_06PNOMKJON@minopt?$AA@			; `string'
PUBLIC	??_C@_06POBPEJKC@maxopt?$AA@			; `string'
PUBLIC	??_C@_04PFGGAFBF@luck?$AA@			; `string'
PUBLIC	??_C@_05ODMCMJAJ@skill?$AA@			; `string'
PUBLIC	??_C@_09MBDMPFOO@excellent?$AA@			; `string'
PUBLIC	??_C@_07ECLFICCK@ancient?$AA@			; `string'
PUBLIC	??_C@_06HBELJPBO@socket?$AA@			; `string'
PUBLIC	??_C@_07HCLJNICE@element?$AA@			; `string'
PUBLIC	??_C@_05IOMEMJEC@count?$AA@			; `string'
PUBLIC	??_C@_05BIJMAKPO@grand?$AA@			; `string'
PUBLIC	??_C@_0EH@JIBFDEBN@Configuration?5loaded?5?$CItotal?5norm@ ; `string'
PUBLIC	??_C@_0DK@CBFNKBNC@?$FLResetSystem?$FN?5Syntax?5error?5in?5it@ ; `string'
PUBLIC	??_C@_0DL@CCJFLBFF@?$FLResetSystem?$FN?5Syntax?5error?5in?5it@ ; `string'
PUBLIC	??_C@_0DM@BHNBMNGH@?$FLResetSystem?$FN?5Syntax?5error?5in?5it@ ; `string'
PUBLIC	??_C@_0DM@BFGHIPAP@?$FLResetSystem?$FN?5Syntax?5error?5in?5it@ ; `string'
PUBLIC	??_C@_0DM@IFBEJPOF@?$FLResetSystem?$FN?5Syntax?5error?5in?5it@ ; `string'
PUBLIC	??_C@_0DM@LMACCKIM@?$FLResetSystem?$FN?5Syntax?5error?5in?5it@ ; `string'
PUBLIC	??_C@_0DM@CMHBDKGG@?$FLResetSystem?$FN?5Syntax?5error?5in?5it@ ; `string'
PUBLIC	??_C@_0DK@FBBLNOEP@?$FLResetSystem?$FN?5Syntax?5error?5in?5it@ ; `string'
PUBLIC	??_C@_0DP@KLHIOMDO@?$FLResetSystem?$FN?5Syntax?5error?5in?5it@ ; `string'
PUBLIC	??_C@_0DN@BLMDLPJA@?$FLResetSystem?$FN?5Syntax?5error?5in?5it@ ; `string'
PUBLIC	??_C@_0DM@CNNHDLNO@?$FLResetSystem?$FN?5Syntax?5error?5in?5it@ ; `string'
PUBLIC	??_C@_0DN@NGBPCBKA@?$FLResetSystem?$FN?5Syntax?5error?5in?5it@ ; `string'
PUBLIC	??_C@_0EC@DDGJLPOE@?$FLResetSystem?$FN?5?$FL?$CFs?$FN?5?$FL?$CFs?$FN?5?$CIProcRes@ ; `string'
PUBLIC	??_C@_0BE@JGOLOEHN@Please?5wait?5?$CFd?5min?4?$AA@ ; `string'
PUBLIC	??_C@_0N@MCNFFMDL@Reset?5Master?$AA@		; `string'
PUBLIC	??_C@_0CA@JEOKHFNI@You?5have?5already?5finished?5delay?$AA@ ; `string'
PUBLIC	??_C@_0CB@DCFNDEH@My?5regards?5?$CFs?$CB?6You?5get?5?$CFd?5reset?$CB@ ; `string'
PUBLIC	??_C@_0EJ@CFLHBDGO@?$FLResetSystem?$FN?5?$FL?$CFs?$FN?5?$FL?$CFs?$FN?5?$CIProcRes@ ; `string'
PUBLIC	??_C@_0DL@GGGLIEL@?$FLResetSystem?$FN?5?$FL?$CFs?$FN?5?$FL?$CFs?$FN?5?$CIProcRes@ ; `string'
PUBLIC	??_C@_0DM@ODCDHJJI@?$FLResetSystem?$FN?5?$FL?$CFs?$FN?5?$FL?$CFs?$FN?5?$CIProcRes@ ; `string'
PUBLIC	??_C@_0EA@HDHNPDP@?$FLResetSystem?$FN?5?$FL?$CFs?$FN?5?$FL?$CFs?$FN?5?$CIProcRes@ ; `string'
PUBLIC	??_C@_0ED@LOMANMPA@?$FLResetSystem?$FN?5?$FL?$CFs?$FN?5?$FL?$CFs?$FN?5?$CIProcRes@ ; `string'
PUBLIC	??_C@_0DP@IPNLPBJN@?$FLResetSystem?$FN?5?$FL?$CFs?$FN?5?$FL?$CFs?$FN?5?$CIProcRes@ ; `string'
PUBLIC	??_C@_0DP@KLDGOEGJ@?$FLResetSystem?$FN?5?$FL?$CFs?$FN?5?$FL?$CFs?$FN?5?$CIProcRes@ ; `string'
PUBLIC	??_C@_0DK@JNFAEODI@?$FLResetSystem?$FN?5?$FL?$CFs?$FN?5?$FL?$CFs?$FN?5?$CIProcRes@ ; `string'
PUBLIC	??_C@_0EB@CGCLGMFP@?$FLResetSystem?$FN?5?$FL?$CFs?$FN?5?$FL?$CFs?$FN?5?$CIProcRes@ ; `string'
PUBLIC	??_C@_0EC@HLOPMGCK@?$FLResetSystem?$FN?5?$FL?$CFs?$FN?5?$FL?$CFs?$FN?5?$CIProcRes@ ; `string'
PUBLIC	??_C@_0EB@LCDOCNPA@?$FLResetSystem?$FN?5?$FL?$CFs?$FN?5?$FL?$CFs?$FN?5?$CIProcRes@ ; `string'
PUBLIC	??_C@_0DE@KKKJHHJG@?$FLResetSystem?$FN?5?$FL?$CFs?$FN?5?$FL?$CFs?$FN?5?$CIProcRes@ ; `string'
PUBLIC	??_C@_0EI@PDDMMGJ@?$FLResetSystem?$FN?5?$FL?$CFs?$FN?5?$FL?$CFs?$FN?5?$CIProcRes@ ; `string'
PUBLIC	??_C@_0ED@HIBGDJB@?$FLResetSystem?$FN?5?$FL?$CFs?$FN?5?$FL?$CFs?$FN?5?$CIOpenDia@ ; `string'
PUBLIC	??_C@_0EB@IEMKIHCJ@?$FLResetSystem?$FN?5?$FL?$CFs?$FN?5?$FL?$CFs?$FN?5?$CICheckRe@ ; `string'
PUBLIC	??_C@_0CP@OFICEAAH@Hey?5?$CFs?$CB?6I?5think?5you?5forgot?6remov@ ; `string'
PUBLIC	??_C@_0EB@JBHKEPMB@?$FLResetSystem?$FN?5?$FL?$CFs?$FN?5?$FL?$CFs?$FN?5?$CICheckRe@ ; `string'
PUBLIC	??_C@_0CK@PMGLBKIN@?$CFs?0?5maybe?5you?5forgot?6clean?5out?5i@ ; `string'
PUBLIC	??_C@_0DM@INNFFOLH@?$FLResetSystem?$FN?5?$FL?$CFs?$FN?5?$FL?$CFs?$FN?5?$CICheckRe@ ; `string'
PUBLIC	??_C@_0CF@NPOOAECJ@?$CFs?0?5please?5clean?5your?6personal?5s@ ; `string'
PUBLIC	??_C@_0GL@HKMJCFGF@?$FLResetSystem?$FN?5?$FL?$CFs?$FN?5?$FL?$CFs?$FN?5?$CICheckRe@ ; `string'
PUBLIC	??_C@_0CM@NIJOIGCG@Great?5?$CFs?$CB?6You?5need?5?$CFd?5level?6for?5@ ; `string'
PUBLIC	??_C@_0FH@GNAIDNOJ@?$FLResetSystem?$FN?5?$FL?$CFs?$FN?5?$FL?$CFs?$FN?5?$CICheckRe@ ; `string'
PUBLIC	??_C@_0CK@BAFCACOI@Hey?5?$CFs?$CB?6You?5need?5?$CFd?5Money?6for?5th@ ; `string'
PUBLIC	??_C@_0FJ@CMHDJMHA@?$FLResetSystem?$FN?5?$FL?$CFs?$FN?5?$FL?$CFs?$FN?5?$CICheckRe@ ; `string'
PUBLIC	??_C@_0EB@ODDJMFE@Hello?0?5?$CFs?$CB?6You?5need?5?$CFd?5Credits?5f@ ; `string'
PUBLIC	??_C@_0FI@BADCMJB@?$FLResetSystem?$FN?5?$FL?$CFs?$FN?5?$FL?$CFs?$FN?5?$CICheckRe@ ; `string'
PUBLIC	??_C@_0CM@IMDIKCEK@Hey?0?5?$CFs?$CB?6You?5need?5?$CFd?5WCoinC?6for?5@ ; `string'
PUBLIC	??_C@_0FH@GEIIDDDF@?$FLResetSystem?$FN?5?$FL?$CFs?$FN?5?$FL?$CFs?$FN?5?$CICheckRe@ ; `string'
PUBLIC	??_C@_0DD@MNPCIAAH@Great?5?$CFs?$CB?6You?5need?5?$CFd?5Contributi@ ; `string'
PUBLIC	??_C@_0BAA@LFFJLJBC@?$FLResetSystem?$FN?5?$FL?$CFs?$FN?5?$FL?$CFs?$FN?5?$CICheckRe@ ; `string'
PUBLIC	??_C@_0EK@OGMNMFNN@?$FLResetSystem?$FN?5?$FL?$CFs?$FN?5?$FL?$CFs?$FN?5?$CICheckRe@ ; `string'
PUBLIC	??_C@_0FG@DGNILBKD@?$FLResetSystem?$FN?5?$FL?$CFs?$FN?5?$FL?$CFs?$FN?5?$CIGetRese@ ; `string'
PUBLIC	??_C@_0BD@OLBABOEK@vector?$DMT?$DO?5too?5long?$AA@ ; `string'
PUBLIC	??_R4ResetSystem@@6B@				; ResetSystem::`RTTI Complete Object Locator'
PUBLIC	??_R0?AVResetSystem@@@8				; ResetSystem `RTTI Type Descriptor'
PUBLIC	??_R3ResetSystem@@8				; ResetSystem::`RTTI Class Hierarchy Descriptor'
PUBLIC	??_R2ResetSystem@@8				; ResetSystem::`RTTI Base Class Array'
PUBLIC	??_R1A@?0A@EA@ResetSystem@@8			; ResetSystem::`RTTI Base Class Descriptor at (0,-1,0,64)'
EXTRN	??_M@YGXPAXIIP6EX0@Z@Z:PROC			; `eh vector destructor iterator'
EXTRN	??2@YAPAXI@Z:PROC				; operator new
EXTRN	??3@YAXPAX@Z:PROC				; operator delete
EXTRN	??3@YAXPAXI@Z:PROC				; operator delete
EXTRN	??_V@YAXPAXI@Z:PROC				; operator delete[]
EXTRN	_atexit:PROC
EXTRN	__invalid_parameter_noinfo_noreturn:PROC
EXTRN	__imp__GetTickCount@0:PROC
EXTRN	___stdio_common_vsprintf:PROC
EXTRN	?_Xbad_alloc@std@@YAXXZ:PROC			; std::_Xbad_alloc
EXTRN	?_Xlength_error@std@@YAXPBD@Z:PROC		; std::_Xlength_error
EXTRN	?GetNewPath@CDirPath@@QAEPADPAD@Z:PROC		; CDirPath::GetNewPath
EXTRN	?Clear@CItem@@QAEXXZ:PROC			; CItem::Clear
EXTRN	?IsItem@CItem@@QAEHXZ:PROC			; CItem::IsItem
EXTRN	??1CSkillDelay@@UAE@XZ:PROC			; CSkillDelay::~CSkillDelay
EXTRN	?MsgBox@@YAXPADZZ:PROC				; MsgBox
EXTRN	?DataSend@@YAHHPAEK@Z:PROC			; DataSend
EXTRN	?IsMagic@CMagicInf@@QAEHXZ:PROC			; CMagicInf::IsMagic
EXTRN	?Clear@CMagicInf@@QAEXXZ:PROC			; CMagicInf::Clear
EXTRN	??1TMonsterAIAgro@@UAE@XZ:PROC			; TMonsterAIAgro::~TMonsterAIAgro
EXTRN	?GCMoneySend@@YAXHK@Z:PROC			; GCMoneySend
EXTRN	?gObjCloseSet@@YAXHH@Z:PROC			; gObjCloseSet
EXTRN	?gObjIsConnected@@YAHH@Z:PROC			; gObjIsConnected
EXTRN	?gObjInventoryItemSet@@YAXHHE@Z:PROC		; gObjInventoryItemSet
EXTRN	?Output@CLogToFile@@QAAXPADZZ:PROC		; CLogToFile::Output
EXTRN	??0CLogToFile@@QAE@QAD0H@Z:PROC			; CLogToFile::CLogToFile
EXTRN	??1CLogToFile@@QAE@XZ:PROC			; CLogToFile::~CLogToFile
EXTRN	??_EResetSystem@@UAEPAXI@Z:PROC			; ResetSystem::`vector deleting destructor'
EXTRN	?as_int@xml_attribute@pugi@@QBEHH@Z:PROC	; pugi::xml_attribute::as_int
EXTRN	??0xml_node@pugi@@QAE@XZ:PROC			; pugi::xml_node::xml_node
EXTRN	??Bxml_node@pugi@@QBEP6AXPAPAPAV01@@ZXZ:PROC	; pugi::xml_node::operator void (__cdecl*)(pugi::xml_node * * *)
EXTRN	?next_sibling@xml_node@pugi@@QBE?AV12@XZ:PROC	; pugi::xml_node::next_sibling
EXTRN	?text@xml_node@pugi@@QBE?AVxml_text@2@XZ:PROC	; pugi::xml_node::text
EXTRN	?child@xml_node@pugi@@QBE?AV12@PBD@Z:PROC	; pugi::xml_node::child
EXTRN	?attribute@xml_node@pugi@@QBE?AVxml_attribute@2@PBD@Z:PROC ; pugi::xml_node::attribute
EXTRN	?as_int@xml_text@pugi@@QBEHH@Z:PROC		; pugi::xml_text::as_int
EXTRN	??0xml_document@pugi@@QAE@XZ:PROC		; pugi::xml_document::xml_document
EXTRN	??1xml_document@pugi@@QAE@XZ:PROC		; pugi::xml_document::~xml_document
EXTRN	?load_file@xml_document@pugi@@QAE?AUxml_parse_result@2@PBDIW4xml_encoding@2@@Z:PROC ; pugi::xml_document::load_file
EXTRN	?SetNextExp@CMasterExperience@@QAEXPAUOBJECTSTRUCT@@@Z:PROC ; CMasterExperience::SetNextExp
EXTRN	?CheckMasterLevelSkill@CMasterLevelSkillTreeSystem@@QAEHH@Z:PROC ; CMasterLevelSkillTreeSystem::CheckMasterLevelSkill
EXTRN	?ReSetQuestState@CQuestInfo@@QAEEPAUOBJECTSTRUCT@@H@Z:PROC ; CQuestInfo::ReSetQuestState
EXTRN	?GetGate@CGate@@QAEHHAAE000AAF@Z:PROC		; CGate::GetGate
EXTRN	@__security_check_cookie@4:PROC
EXTRN	__CxxThrowException@8:PROC
EXTRN	___CxxFrameHandler3:PROC
EXTRN	_memset:PROC
EXTRN	??_7type_info@@6B@:QWORD			; type_info::`vftable'
EXTRN	?LogAddC@@3P6AXEPADZZA:DWORD			; LogAddC
EXTRN	?gObj@@3PAUOBJECTSTRUCT@@A:DWORD		; gObj
EXTRN	?m_ObjBill@@3PAVBILL_CLASS@@A:BYTE		; m_ObjBill
EXTRN	?gDirPath@@3VCDirPath@@A:BYTE			; gDirPath
EXTRN	?DCInfo@@3Vclassdef@@A:BYTE			; DCInfo
EXTRN	?g_MasterExp@@3VCMasterExperience@@A:BYTE	; g_MasterExp
EXTRN	?g_MasterSkillSystem@@3VCMasterLevelSkillTreeSystem@@A:BYTE ; g_MasterSkillSystem
EXTRN	?g_QuestInfo@@3VCQuestInfo@@A:BYTE		; g_QuestInfo
EXTRN	?gGateC@@3VCGate@@A:BYTE			; gGateC
EXTRN	___security_cookie:DWORD
;	COMDAT ?_OptionsStorage@?1??__local_stdio_printf_options@@9@4_KA
_BSS	SEGMENT
?_OptionsStorage@?1??__local_stdio_printf_options@@9@4_KA DQ 01H DUP (?) ; `__local_stdio_printf_options'::`2'::_OptionsStorage
_BSS	ENDS
_BSS	SEGMENT
?g_ResetSystem@@3VResetSystem@@A DB 030H DUP (?)	; g_ResetSystem
_BSS	ENDS
CRT$XCU	SEGMENT
?g_ResetSystem$initializer$@@3P6AXXZA DD FLAT:??__Eg_ResetSystem@@YAXXZ ; g_ResetSystem$initializer$
CRT$XCU	ENDS
;	COMDAT ??_R1A@?0A@EA@ResetSystem@@8
rdata$r	SEGMENT
??_R1A@?0A@EA@ResetSystem@@8 DD FLAT:??_R0?AVResetSystem@@@8 ; ResetSystem::`RTTI Base Class Descriptor at (0,-1,0,64)'
	DD	00H
	DD	00H
	DD	0ffffffffH
	DD	00H
	DD	040H
	DD	FLAT:??_R3ResetSystem@@8
rdata$r	ENDS
;	COMDAT ??_R2ResetSystem@@8
rdata$r	SEGMENT
??_R2ResetSystem@@8 DD FLAT:??_R1A@?0A@EA@ResetSystem@@8 ; ResetSystem::`RTTI Base Class Array'
rdata$r	ENDS
;	COMDAT ??_R3ResetSystem@@8
rdata$r	SEGMENT
??_R3ResetSystem@@8 DD 00H				; ResetSystem::`RTTI Class Hierarchy Descriptor'
	DD	00H
	DD	01H
	DD	FLAT:??_R2ResetSystem@@8
rdata$r	ENDS
;	COMDAT ??_R0?AVResetSystem@@@8
data$r	SEGMENT
??_R0?AVResetSystem@@@8 DD FLAT:??_7type_info@@6B@	; ResetSystem `RTTI Type Descriptor'
	DD	00H
	DB	'.?AVResetSystem@@', 00H
data$r	ENDS
;	COMDAT ??_R4ResetSystem@@6B@
rdata$r	SEGMENT
??_R4ResetSystem@@6B@ DD 00H				; ResetSystem::`RTTI Complete Object Locator'
	DD	00H
	DD	00H
	DD	FLAT:??_R0?AVResetSystem@@@8
	DD	FLAT:??_R3ResetSystem@@8
rdata$r	ENDS
;	COMDAT ??_C@_0BD@OLBABOEK@vector?$DMT?$DO?5too?5long?$AA@
CONST	SEGMENT
??_C@_0BD@OLBABOEK@vector?$DMT?$DO?5too?5long?$AA@ DB 'vector<T> too long'
	DB	00H						; `string'
CONST	ENDS
;	COMDAT ??_C@_0FG@DGNILBKD@?$FLResetSystem?$FN?5?$FL?$CFs?$FN?5?$FL?$CFs?$FN?5?$CIGetRese@
CONST	SEGMENT
??_C@_0FG@DGNILBKD@?$FLResetSystem?$FN?5?$FL?$CFs?$FN?5?$FL?$CFs?$FN?5?$CIGetRese@ DB '['
	DB	'ResetSystem] [%s] [%s] (GetResetMoney) Calculated wrong value'
	DB	' (Reset: %d, Value: %d)', 00H		; `string'
CONST	ENDS
;	COMDAT ??_C@_0EK@OGMNMFNN@?$FLResetSystem?$FN?5?$FL?$CFs?$FN?5?$FL?$CFs?$FN?5?$CICheckRe@
CONST	SEGMENT
??_C@_0EK@OGMNMFNN@?$FLResetSystem?$FN?5?$FL?$CFs?$FN?5?$FL?$CFs?$FN?5?$CICheckRe@ DB '['
	DB	'ResetSystem] [%s] [%s] (CheckRequirements) Group for this use'
	DB	'r not found', 00H				; `string'
CONST	ENDS
;	COMDAT ??_C@_0BAA@LFFJLJBC@?$FLResetSystem?$FN?5?$FL?$CFs?$FN?5?$FL?$CFs?$FN?5?$CICheckRe@
CONST	SEGMENT
??_C@_0BAA@LFFJLJBC@?$FLResetSystem?$FN?5?$FL?$CFs?$FN?5?$FL?$CFs?$FN?5?$CICheckRe@ DB '['
	DB	'ResetSystem] [%s] [%s] (CheckRequirements) Not have required '
	DB	'item (type: %d, index: %d, minlevel: %d, maxlevel: %d, mindur'
	DB	': %d, maxdur: %d, minoption: %d, maxoption: %d, luck: %d, ski'
	DB	'll: %d, excellent: %d, ancient: %d, socket: %d, element: %d, '
	DB	'count: %d)', 00H				; `string'
CONST	ENDS
;	COMDAT ??_C@_0DD@MNPCIAAH@Great?5?$CFs?$CB?6You?5need?5?$CFd?5Contributi@
CONST	SEGMENT
??_C@_0DD@MNPCIAAH@Great?5?$CFs?$CB?6You?5need?5?$CFd?5Contributi@ DB 'Gr'
	DB	'eat %s!', 0aH, 'You need %d Contribution', 0aH, 'for this res'
	DB	'et.', 00H					; `string'
CONST	ENDS
;	COMDAT ??_C@_0FH@GEIIDDDF@?$FLResetSystem?$FN?5?$FL?$CFs?$FN?5?$FL?$CFs?$FN?5?$CICheckRe@
CONST	SEGMENT
??_C@_0FH@GEIIDDDF@?$FLResetSystem?$FN?5?$FL?$CFs?$FN?5?$FL?$CFs?$FN?5?$CICheckRe@ DB '['
	DB	'ResetSystem] [%s] [%s] (CheckRequirements) Not have enough Ge'
	DB	'nsP (need: %d, user: %d)', 00H		; `string'
CONST	ENDS
;	COMDAT ??_C@_0CM@IMDIKCEK@Hey?0?5?$CFs?$CB?6You?5need?5?$CFd?5WCoinC?6for?5@
CONST	SEGMENT
??_C@_0CM@IMDIKCEK@Hey?0?5?$CFs?$CB?6You?5need?5?$CFd?5WCoinC?6for?5@ DB 'H'
	DB	'ey, %s!', 0aH, 'You need %d WCoinC', 0aH, 'for this reset.', 00H ; `string'
CONST	ENDS
;	COMDAT ??_C@_0FI@BADCMJB@?$FLResetSystem?$FN?5?$FL?$CFs?$FN?5?$FL?$CFs?$FN?5?$CICheckRe@
CONST	SEGMENT
??_C@_0FI@BADCMJB@?$FLResetSystem?$FN?5?$FL?$CFs?$FN?5?$FL?$CFs?$FN?5?$CICheckRe@ DB '['
	DB	'ResetSystem] [%s] [%s] (CheckRequirements) Not have enough WC'
	DB	'oinC (need: %d, user: %d)', 00H		; `string'
CONST	ENDS
;	COMDAT ??_C@_0EB@ODDJMFE@Hello?0?5?$CFs?$CB?6You?5need?5?$CFd?5Credits?5f@
CONST	SEGMENT
??_C@_0EB@ODDJMFE@Hello?0?5?$CFs?$CB?6You?5need?5?$CFd?5Credits?5f@ DB 'H'
	DB	'ello, %s!', 0aH, 'You need %d Credits for', 0aH, ' this reset'
	DB	'. Now you have: %d', 00H			; `string'
CONST	ENDS
;	COMDAT ??_C@_0FJ@CMHDJMHA@?$FLResetSystem?$FN?5?$FL?$CFs?$FN?5?$FL?$CFs?$FN?5?$CICheckRe@
CONST	SEGMENT
??_C@_0FJ@CMHDJMHA@?$FLResetSystem?$FN?5?$FL?$CFs?$FN?5?$FL?$CFs?$FN?5?$CICheckRe@ DB '['
	DB	'ResetSystem] [%s] [%s] (CheckRequirements) Not have enough Cr'
	DB	'edits (need: %d, user: %d)', 00H		; `string'
CONST	ENDS
;	COMDAT ??_C@_0CK@BAFCACOI@Hey?5?$CFs?$CB?6You?5need?5?$CFd?5Money?6for?5th@
CONST	SEGMENT
??_C@_0CK@BAFCACOI@Hey?5?$CFs?$CB?6You?5need?5?$CFd?5Money?6for?5th@ DB 'H'
	DB	'ey %s!', 0aH, 'You need %d Money', 0aH, 'for this reset.', 00H ; `string'
CONST	ENDS
;	COMDAT ??_C@_0FH@GNAIDNOJ@?$FLResetSystem?$FN?5?$FL?$CFs?$FN?5?$FL?$CFs?$FN?5?$CICheckRe@
CONST	SEGMENT
??_C@_0FH@GNAIDNOJ@?$FLResetSystem?$FN?5?$FL?$CFs?$FN?5?$FL?$CFs?$FN?5?$CICheckRe@ DB '['
	DB	'ResetSystem] [%s] [%s] (CheckRequirements) Not have enough Mo'
	DB	'ney (need: %d, user: %d)', 00H		; `string'
CONST	ENDS
;	COMDAT ??_C@_0CM@NIJOIGCG@Great?5?$CFs?$CB?6You?5need?5?$CFd?5level?6for?5@
CONST	SEGMENT
??_C@_0CM@NIJOIGCG@Great?5?$CFs?$CB?6You?5need?5?$CFd?5level?6for?5@ DB 'G'
	DB	'reat %s!', 0aH, 'You need %d level', 0aH, 'for this reset.', 00H ; `string'
CONST	ENDS
;	COMDAT ??_C@_0GL@HKMJCFGF@?$FLResetSystem?$FN?5?$FL?$CFs?$FN?5?$FL?$CFs?$FN?5?$CICheckRe@
CONST	SEGMENT
??_C@_0GL@HKMJCFGF@?$FLResetSystem?$FN?5?$FL?$CFs?$FN?5?$FL?$CFs?$FN?5?$CICheckRe@ DB '['
	DB	'ResetSystem] [%s] [%s] (CheckRequirements) Level is not valid'
	DB	' for this reset (min: %d, max: %d, user: %d)', 00H ; `string'
CONST	ENDS
;	COMDAT ??_C@_0CF@NPOOAECJ@?$CFs?0?5please?5clean?5your?6personal?5s@
CONST	SEGMENT
??_C@_0CF@NPOOAECJ@?$CFs?0?5please?5clean?5your?6personal?5s@ DB '%s, ple'
	DB	'ase clean your', 0aH, 'personal shop.', 00H	; `string'
CONST	ENDS
;	COMDAT ??_C@_0DM@INNFFOLH@?$FLResetSystem?$FN?5?$FL?$CFs?$FN?5?$FL?$CFs?$FN?5?$CICheckRe@
CONST	SEGMENT
??_C@_0DM@INNFFOLH@?$FLResetSystem?$FN?5?$FL?$CFs?$FN?5?$FL?$CFs?$FN?5?$CICheckRe@ DB '['
	DB	'ResetSystem] [%s] [%s] (CheckRequirements) Shop check fail', 00H ; `string'
CONST	ENDS
;	COMDAT ??_C@_0CK@PMGLBKIN@?$CFs?0?5maybe?5you?5forgot?6clean?5out?5i@
CONST	SEGMENT
??_C@_0CK@PMGLBKIN@?$CFs?0?5maybe?5you?5forgot?6clean?5out?5i@ DB '%s, ma'
	DB	'ybe you forgot', 0aH, 'clean out inventory?', 00H ; `string'
CONST	ENDS
;	COMDAT ??_C@_0EB@JBHKEPMB@?$FLResetSystem?$FN?5?$FL?$CFs?$FN?5?$FL?$CFs?$FN?5?$CICheckRe@
CONST	SEGMENT
??_C@_0EB@JBHKEPMB@?$FLResetSystem?$FN?5?$FL?$CFs?$FN?5?$FL?$CFs?$FN?5?$CICheckRe@ DB '['
	DB	'ResetSystem] [%s] [%s] (CheckRequirements) Inventory check fa'
	DB	'il', 00H					; `string'
CONST	ENDS
;	COMDAT ??_C@_0CP@OFICEAAH@Hey?5?$CFs?$CB?6I?5think?5you?5forgot?6remov@
CONST	SEGMENT
??_C@_0CP@OFICEAAH@Hey?5?$CFs?$CB?6I?5think?5you?5forgot?6remov@ DB 'Hey '
	DB	'%s!', 0aH, 'I think you forgot', 0aH, 'remove equipment...', 00H ; `string'
CONST	ENDS
;	COMDAT ??_C@_0EB@IEMKIHCJ@?$FLResetSystem?$FN?5?$FL?$CFs?$FN?5?$FL?$CFs?$FN?5?$CICheckRe@
CONST	SEGMENT
??_C@_0EB@IEMKIHCJ@?$FLResetSystem?$FN?5?$FL?$CFs?$FN?5?$FL?$CFs?$FN?5?$CICheckRe@ DB '['
	DB	'ResetSystem] [%s] [%s] (CheckRequirements) Equipment check fa'
	DB	'il', 00H					; `string'
CONST	ENDS
;	COMDAT ??_C@_0ED@HIBGDJB@?$FLResetSystem?$FN?5?$FL?$CFs?$FN?5?$FL?$CFs?$FN?5?$CIOpenDia@
CONST	SEGMENT
??_C@_0ED@HIBGDJB@?$FLResetSystem?$FN?5?$FL?$CFs?$FN?5?$FL?$CFs?$FN?5?$CIOpenDia@ DB '['
	DB	'ResetSystem] [%s] [%s] (OpenDialog) Group for this user not f'
	DB	'ound', 00H					; `string'
CONST	ENDS
;	COMDAT ??_C@_0EI@PDDMMGJ@?$FLResetSystem?$FN?5?$FL?$CFs?$FN?5?$FL?$CFs?$FN?5?$CIProcRes@
CONST	SEGMENT
??_C@_0EI@PDDMMGJ@?$FLResetSystem?$FN?5?$FL?$CFs?$FN?5?$FL?$CFs?$FN?5?$CIProcRes@ DB '['
	DB	'ResetSystem] [%s] [%s] (ProcReset) Reset has been finished (R'
	DB	'eset: %d)', 00H				; `string'
CONST	ENDS
;	COMDAT ??_C@_0DE@KKKJHHJG@?$FLResetSystem?$FN?5?$FL?$CFs?$FN?5?$FL?$CFs?$FN?5?$CIProcRes@
CONST	SEGMENT
??_C@_0DE@KKKJHHJG@?$FLResetSystem?$FN?5?$FL?$CFs?$FN?5?$FL?$CFs?$FN?5?$CIProcRes@ DB '['
	DB	'ResetSystem] [%s] [%s] (ProcReset) Added %d points', 00H ; `string'
CONST	ENDS
;	COMDAT ??_C@_0EB@LCDOCNPA@?$FLResetSystem?$FN?5?$FL?$CFs?$FN?5?$FL?$CFs?$FN?5?$CIProcRes@
CONST	SEGMENT
??_C@_0EB@LCDOCNPA@?$FLResetSystem?$FN?5?$FL?$CFs?$FN?5?$FL?$CFs?$FN?5?$CIProcRes@ DB '['
	DB	'ResetSystem] [%s] [%s] (ProcReset) MarlonQuest has been reset'
	DB	'ed', 00H					; `string'
CONST	ENDS
;	COMDAT ??_C@_0EC@HLOPMGCK@?$FLResetSystem?$FN?5?$FL?$CFs?$FN?5?$FL?$CFs?$FN?5?$CIProcRes@
CONST	SEGMENT
??_C@_0EC@HLOPMGCK@?$FLResetSystem?$FN?5?$FL?$CFs?$FN?5?$FL?$CFs?$FN?5?$CIProcRes@ DB '['
	DB	'ResetSystem] [%s] [%s] (ProcReset) MasterPoints has been rese'
	DB	'ted', 00H					; `string'
CONST	ENDS
;	COMDAT ??_C@_0EB@CGCLGMFP@?$FLResetSystem?$FN?5?$FL?$CFs?$FN?5?$FL?$CFs?$FN?5?$CIProcRes@
CONST	SEGMENT
??_C@_0EB@CGCLGMFP@?$FLResetSystem?$FN?5?$FL?$CFs?$FN?5?$FL?$CFs?$FN?5?$CIProcRes@ DB '['
	DB	'ResetSystem] [%s] [%s] (ProcReset) MasterLevel has been reset'
	DB	'ed', 00H					; `string'
CONST	ENDS
;	COMDAT ??_C@_0DK@JNFAEODI@?$FLResetSystem?$FN?5?$FL?$CFs?$FN?5?$FL?$CFs?$FN?5?$CIProcRes@
CONST	SEGMENT
??_C@_0DK@JNFAEODI@?$FLResetSystem?$FN?5?$FL?$CFs?$FN?5?$FL?$CFs?$FN?5?$CIProcRes@ DB '['
	DB	'ResetSystem] [%s] [%s] (ProcReset) Shop has been reseted', 00H ; `string'
CONST	ENDS
;	COMDAT ??_C@_0DP@KLDGOEGJ@?$FLResetSystem?$FN?5?$FL?$CFs?$FN?5?$FL?$CFs?$FN?5?$CIProcRes@
CONST	SEGMENT
??_C@_0DP@KLDGOEGJ@?$FLResetSystem?$FN?5?$FL?$CFs?$FN?5?$FL?$CFs?$FN?5?$CIProcRes@ DB '['
	DB	'ResetSystem] [%s] [%s] (ProcReset) Inventory has been reseted'
	DB	00H						; `string'
CONST	ENDS
;	COMDAT ??_C@_0DP@IPNLPBJN@?$FLResetSystem?$FN?5?$FL?$CFs?$FN?5?$FL?$CFs?$FN?5?$CIProcRes@
CONST	SEGMENT
??_C@_0DP@IPNLPBJN@?$FLResetSystem?$FN?5?$FL?$CFs?$FN?5?$FL?$CFs?$FN?5?$CIProcRes@ DB '['
	DB	'ResetSystem] [%s] [%s] (ProcReset) Equipment has been reseted'
	DB	00H						; `string'
CONST	ENDS
;	COMDAT ??_C@_0ED@LOMANMPA@?$FLResetSystem?$FN?5?$FL?$CFs?$FN?5?$FL?$CFs?$FN?5?$CIProcRes@
CONST	SEGMENT
??_C@_0ED@LOMANMPA@?$FLResetSystem?$FN?5?$FL?$CFs?$FN?5?$FL?$CFs?$FN?5?$CIProcRes@ DB '['
	DB	'ResetSystem] [%s] [%s] (ProcReset) Normal skills has been res'
	DB	'eted', 00H					; `string'
CONST	ENDS
;	COMDAT ??_C@_0EA@HDHNPDP@?$FLResetSystem?$FN?5?$FL?$CFs?$FN?5?$FL?$CFs?$FN?5?$CIProcRes@
CONST	SEGMENT
??_C@_0EA@HDHNPDP@?$FLResetSystem?$FN?5?$FL?$CFs?$FN?5?$FL?$CFs?$FN?5?$CIProcRes@ DB '['
	DB	'ResetSystem] [%s] [%s] (ProcReset) All skills has been resete'
	DB	'd', 00H					; `string'
CONST	ENDS
;	COMDAT ??_C@_0DM@ODCDHJJI@?$FLResetSystem?$FN?5?$FL?$CFs?$FN?5?$FL?$CFs?$FN?5?$CIProcRes@
CONST	SEGMENT
??_C@_0DM@ODCDHJJI@?$FLResetSystem?$FN?5?$FL?$CFs?$FN?5?$FL?$CFs?$FN?5?$CIProcRes@ DB '['
	DB	'ResetSystem] [%s] [%s] (ProcReset) Points has been reseted', 00H ; `string'
CONST	ENDS
;	COMDAT ??_C@_0DL@GGGLIEL@?$FLResetSystem?$FN?5?$FL?$CFs?$FN?5?$FL?$CFs?$FN?5?$CIProcRes@
CONST	SEGMENT
??_C@_0DL@GGGLIEL@?$FLResetSystem?$FN?5?$FL?$CFs?$FN?5?$FL?$CFs?$FN?5?$CIProcRes@ DB '['
	DB	'ResetSystem] [%s] [%s] (ProcReset) Stats has been reseted', 00H ; `string'
CONST	ENDS
;	COMDAT ??_C@_0EJ@CFLHBDGO@?$FLResetSystem?$FN?5?$FL?$CFs?$FN?5?$FL?$CFs?$FN?5?$CIProcRes@
CONST	SEGMENT
??_C@_0EJ@CFLHBDGO@?$FLResetSystem?$FN?5?$FL?$CFs?$FN?5?$FL?$CFs?$FN?5?$CIProcRes@ DB '['
	DB	'ResetSystem] [%s] [%s] (ProcReset) Money has been withdrawn, '
	DB	'amount: %d', 00H				; `string'
CONST	ENDS
;	COMDAT ??_C@_0CB@DCFNDEH@My?5regards?5?$CFs?$CB?6You?5get?5?$CFd?5reset?$CB@
CONST	SEGMENT
??_C@_0CB@DCFNDEH@My?5regards?5?$CFs?$CB?6You?5get?5?$CFd?5reset?$CB@ DB 'M'
	DB	'y regards %s!', 0aH, 'You get %d reset!', 00H ; `string'
CONST	ENDS
;	COMDAT ??_C@_0CA@JEOKHFNI@You?5have?5already?5finished?5delay?$AA@
CONST	SEGMENT
??_C@_0CA@JEOKHFNI@You?5have?5already?5finished?5delay?$AA@ DB 'You have '
	DB	'already finished delay', 00H		; `string'
CONST	ENDS
;	COMDAT ??_C@_0N@MCNFFMDL@Reset?5Master?$AA@
CONST	SEGMENT
??_C@_0N@MCNFFMDL@Reset?5Master?$AA@ DB 'Reset Master', 00H ; `string'
CONST	ENDS
;	COMDAT ??_C@_0BE@JGOLOEHN@Please?5wait?5?$CFd?5min?4?$AA@
CONST	SEGMENT
??_C@_0BE@JGOLOEHN@Please?5wait?5?$CFd?5min?4?$AA@ DB 'Please wait %d min'
	DB	'.', 00H					; `string'
CONST	ENDS
;	COMDAT ??_C@_0EC@DDGJLPOE@?$FLResetSystem?$FN?5?$FL?$CFs?$FN?5?$FL?$CFs?$FN?5?$CIProcRes@
CONST	SEGMENT
??_C@_0EC@DDGJLPOE@?$FLResetSystem?$FN?5?$FL?$CFs?$FN?5?$FL?$CFs?$FN?5?$CIProcRes@ DB '['
	DB	'ResetSystem] [%s] [%s] (ProcReset) Group for this user not fo'
	DB	'und', 00H					; `string'
CONST	ENDS
;	COMDAT ??_C@_0DN@NGBPCBKA@?$FLResetSystem?$FN?5Syntax?5error?5in?5it@
CONST	SEGMENT
??_C@_0DN@NGBPCBKA@?$FLResetSystem?$FN?5Syntax?5error?5in?5it@ DB '[Reset'
	DB	'System] Syntax error in item node, param: element (%d)', 00H ; `string'
CONST	ENDS
;	COMDAT ??_C@_0DM@CNNHDLNO@?$FLResetSystem?$FN?5Syntax?5error?5in?5it@
CONST	SEGMENT
??_C@_0DM@CNNHDLNO@?$FLResetSystem?$FN?5Syntax?5error?5in?5it@ DB '[Reset'
	DB	'System] Syntax error in item node, param: socket (%d)', 00H ; `string'
CONST	ENDS
;	COMDAT ??_C@_0DN@BLMDLPJA@?$FLResetSystem?$FN?5Syntax?5error?5in?5it@
CONST	SEGMENT
??_C@_0DN@BLMDLPJA@?$FLResetSystem?$FN?5Syntax?5error?5in?5it@ DB '[Reset'
	DB	'System] Syntax error in item node, param: ancient (%d)', 00H ; `string'
CONST	ENDS
;	COMDAT ??_C@_0DP@KLHIOMDO@?$FLResetSystem?$FN?5Syntax?5error?5in?5it@
CONST	SEGMENT
??_C@_0DP@KLHIOMDO@?$FLResetSystem?$FN?5Syntax?5error?5in?5it@ DB '[Reset'
	DB	'System] Syntax error in item node, param: excellent (%d)', 00H ; `string'
CONST	ENDS
;	COMDAT ??_C@_0DK@FBBLNOEP@?$FLResetSystem?$FN?5Syntax?5error?5in?5it@
CONST	SEGMENT
??_C@_0DK@FBBLNOEP@?$FLResetSystem?$FN?5Syntax?5error?5in?5it@ DB '[Reset'
	DB	'System] Syntax error in item node, param: luck (%d)', 00H ; `string'
CONST	ENDS
;	COMDAT ??_C@_0DM@CMHBDKGG@?$FLResetSystem?$FN?5Syntax?5error?5in?5it@
CONST	SEGMENT
??_C@_0DM@CMHBDKGG@?$FLResetSystem?$FN?5Syntax?5error?5in?5it@ DB '[Reset'
	DB	'System] Syntax error in item node, param: maxopt (%d)', 00H ; `string'
CONST	ENDS
;	COMDAT ??_C@_0DM@LMACCKIM@?$FLResetSystem?$FN?5Syntax?5error?5in?5it@
CONST	SEGMENT
??_C@_0DM@LMACCKIM@?$FLResetSystem?$FN?5Syntax?5error?5in?5it@ DB '[Reset'
	DB	'System] Syntax error in item node, param: minopt (%d)', 00H ; `string'
CONST	ENDS
;	COMDAT ??_C@_0DM@IFBEJPOF@?$FLResetSystem?$FN?5Syntax?5error?5in?5it@
CONST	SEGMENT
??_C@_0DM@IFBEJPOF@?$FLResetSystem?$FN?5Syntax?5error?5in?5it@ DB '[Reset'
	DB	'System] Syntax error in item node, param: maxdur (%d)', 00H ; `string'
CONST	ENDS
;	COMDAT ??_C@_0DM@BFGHIPAP@?$FLResetSystem?$FN?5Syntax?5error?5in?5it@
CONST	SEGMENT
??_C@_0DM@BFGHIPAP@?$FLResetSystem?$FN?5Syntax?5error?5in?5it@ DB '[Reset'
	DB	'System] Syntax error in item node, param: mindur (%d)', 00H ; `string'
CONST	ENDS
;	COMDAT ??_C@_0DM@BHNBMNGH@?$FLResetSystem?$FN?5Syntax?5error?5in?5it@
CONST	SEGMENT
??_C@_0DM@BHNBMNGH@?$FLResetSystem?$FN?5Syntax?5error?5in?5it@ DB '[Reset'
	DB	'System] Syntax error in item node, param: minlvl (%d)', 00H ; `string'
CONST	ENDS
;	COMDAT ??_C@_0DL@CCJFLBFF@?$FLResetSystem?$FN?5Syntax?5error?5in?5it@
CONST	SEGMENT
??_C@_0DL@CCJFLBFF@?$FLResetSystem?$FN?5Syntax?5error?5in?5it@ DB '[Reset'
	DB	'System] Syntax error in item node, param: index (%d)', 00H ; `string'
CONST	ENDS
;	COMDAT ??_C@_0DK@CBFNKBNC@?$FLResetSystem?$FN?5Syntax?5error?5in?5it@
CONST	SEGMENT
??_C@_0DK@CBFNKBNC@?$FLResetSystem?$FN?5Syntax?5error?5in?5it@ DB '[Reset'
	DB	'System] Syntax error in item node, param: type (%d)', 00H ; `string'
CONST	ENDS
;	COMDAT ??_C@_0EH@JIBFDEBN@Configuration?5loaded?5?$CItotal?5norm@
CONST	SEGMENT
??_C@_0EH@JIBFDEBN@Configuration?5loaded?5?$CItotal?5norm@ DB 'Configurat'
	DB	'ion loaded (total normal groups: %d, total grand groups: %d)', 00H ; `string'
CONST	ENDS
;	COMDAT ??_C@_05BIJMAKPO@grand?$AA@
CONST	SEGMENT
??_C@_05BIJMAKPO@grand?$AA@ DB 'grand', 00H		; `string'
CONST	ENDS
;	COMDAT ??_C@_05IOMEMJEC@count?$AA@
CONST	SEGMENT
??_C@_05IOMEMJEC@count?$AA@ DB 'count', 00H		; `string'
CONST	ENDS
;	COMDAT ??_C@_07HCLJNICE@element?$AA@
CONST	SEGMENT
??_C@_07HCLJNICE@element?$AA@ DB 'element', 00H		; `string'
CONST	ENDS
;	COMDAT ??_C@_06HBELJPBO@socket?$AA@
CONST	SEGMENT
??_C@_06HBELJPBO@socket?$AA@ DB 'socket', 00H		; `string'
CONST	ENDS
;	COMDAT ??_C@_07ECLFICCK@ancient?$AA@
CONST	SEGMENT
??_C@_07ECLFICCK@ancient?$AA@ DB 'ancient', 00H		; `string'
CONST	ENDS
;	COMDAT ??_C@_09MBDMPFOO@excellent?$AA@
CONST	SEGMENT
??_C@_09MBDMPFOO@excellent?$AA@ DB 'excellent', 00H	; `string'
CONST	ENDS
;	COMDAT ??_C@_05ODMCMJAJ@skill?$AA@
CONST	SEGMENT
??_C@_05ODMCMJAJ@skill?$AA@ DB 'skill', 00H		; `string'
CONST	ENDS
;	COMDAT ??_C@_04PFGGAFBF@luck?$AA@
CONST	SEGMENT
??_C@_04PFGGAFBF@luck?$AA@ DB 'luck', 00H		; `string'
CONST	ENDS
;	COMDAT ??_C@_06POBPEJKC@maxopt?$AA@
CONST	SEGMENT
??_C@_06POBPEJKC@maxopt?$AA@ DB 'maxopt', 00H		; `string'
CONST	ENDS
;	COMDAT ??_C@_06PNOMKJON@minopt?$AA@
CONST	SEGMENT
??_C@_06PNOMKJON@minopt?$AA@ DB 'minopt', 00H		; `string'
CONST	ENDS
;	COMDAT ??_C@_06HJIPKLMO@maxdur?$AA@
CONST	SEGMENT
??_C@_06HJIPKLMO@maxdur?$AA@ DB 'maxdur', 00H		; `string'
CONST	ENDS
;	COMDAT ??_C@_06HKHMELIB@mindur?$AA@
CONST	SEGMENT
??_C@_06HKHMELIB@mindur?$AA@ DB 'mindur', 00H		; `string'
CONST	ENDS
;	COMDAT ??_C@_06GKDMACKH@maxlvl?$AA@
CONST	SEGMENT
??_C@_06GKDMACKH@maxlvl?$AA@ DB 'maxlvl', 00H		; `string'
CONST	ENDS
;	COMDAT ??_C@_06GJMPOCOI@minlvl?$AA@
CONST	SEGMENT
??_C@_06GJMPOCOI@minlvl?$AA@ DB 'minlvl', 00H		; `string'
CONST	ENDS
;	COMDAT ??_C@_05FKHKFDID@index?$AA@
CONST	SEGMENT
??_C@_05FKHKFDID@index?$AA@ DB 'index', 00H		; `string'
CONST	ENDS
;	COMDAT ??_C@_04GPMDFGEJ@type?$AA@
CONST	SEGMENT
??_C@_04GPMDFGEJ@type?$AA@ DB 'type', 00H		; `string'
CONST	ENDS
;	COMDAT ??_C@_04NHONDGDE@item?$AA@
CONST	SEGMENT
??_C@_04NHONDGDE@item?$AA@ DB 'item', 00H		; `string'
CONST	ENDS
;	COMDAT ??_C@_09GEBMJOEB@itemslist?$AA@
CONST	SEGMENT
??_C@_09GEBMJOEB@itemslist?$AA@ DB 'itemslist', 00H	; `string'
CONST	ENDS
;	COMDAT ??_C@_05BBEJFBFA@point?$AA@
CONST	SEGMENT
??_C@_05BBEJFBFA@point?$AA@ DB 'point', 00H		; `string'
CONST	ENDS
;	COMDAT ??_C@_0DK@DFHDDGPP@?$FLResetSystem?$FN?5Syntax?5error?5in?5re@
CONST	SEGMENT
??_C@_0DK@DFHDDGPP@?$FLResetSystem?$FN?5Syntax?5error?5in?5re@ DB '[Reset'
	DB	'System] Syntax error in reward node, param: id (%d)', 00H ; `string'
CONST	ENDS
;	COMDAT ??_C@_05ENKANFLO@class?$AA@
CONST	SEGMENT
??_C@_05ENKANFLO@class?$AA@ DB 'class', 00H		; `string'
CONST	ENDS
;	COMDAT ??_C@_09LIMLDHCM@pointmode?$AA@
CONST	SEGMENT
??_C@_09LIMLDHCM@pointmode?$AA@ DB 'pointmode', 00H	; `string'
CONST	ENDS
;	COMDAT ??_C@_06NPNBMBEO@reward?$AA@
CONST	SEGMENT
??_C@_06NPNBMBEO@reward?$AA@ DB 'reward', 00H		; `string'
CONST	ENDS
;	COMDAT ??_C@_06ELLFFOK@checks?$AA@
CONST	SEGMENT
??_C@_06ELLFFOK@checks?$AA@ DB 'checks', 00H		; `string'
CONST	ENDS
;	COMDAT ??_C@_0M@NJHEGDCF@marlonquest?$AA@
CONST	SEGMENT
??_C@_0M@NJHEGDCF@marlonquest?$AA@ DB 'marlonquest', 00H ; `string'
CONST	ENDS
;	COMDAT ??_C@_0N@HFPOBAPF@masterskills?$AA@
CONST	SEGMENT
??_C@_0N@HFPOBAPF@masterskills?$AA@ DB 'masterskills', 00H ; `string'
CONST	ENDS
;	COMDAT ??_C@_0N@GHLLHCDN@masterpoints?$AA@
CONST	SEGMENT
??_C@_0N@GHLLHCDN@masterpoints?$AA@ DB 'masterpoints', 00H ; `string'
CONST	ENDS
;	COMDAT ??_C@_0M@BHKEDLCN@masterlevel?$AA@
CONST	SEGMENT
??_C@_0M@BHKEDLCN@masterlevel?$AA@ DB 'masterlevel', 00H ; `string'
CONST	ENDS
;	COMDAT ??_C@_04BFIJLIPK@shop?$AA@
CONST	SEGMENT
??_C@_04BFIJLIPK@shop?$AA@ DB 'shop', 00H		; `string'
CONST	ENDS
;	COMDAT ??_C@_09OCPGKIKB@inventory?$AA@
CONST	SEGMENT
??_C@_09OCPGKIKB@inventory?$AA@ DB 'inventory', 00H	; `string'
CONST	ENDS
;	COMDAT ??_C@_09FJJPPKDN@equipment?$AA@
CONST	SEGMENT
??_C@_09FJJPPKDN@equipment?$AA@ DB 'equipment', 00H	; `string'
CONST	ENDS
;	COMDAT ??_C@_06HNCNFAFI@skills?$AA@
CONST	SEGMENT
??_C@_06HNCNFAFI@skills?$AA@ DB 'skills', 00H		; `string'
CONST	ENDS
;	COMDAT ??_C@_06GPGIDCJA@points?$AA@
CONST	SEGMENT
??_C@_06GPGIDCJA@points?$AA@ DB 'points', 00H		; `string'
CONST	ENDS
;	COMDAT ??_C@_05BLKJBNOD@stats?$AA@
CONST	SEGMENT
??_C@_05BLKJBNOD@stats?$AA@ DB 'stats', 00H		; `string'
CONST	ENDS
;	COMDAT ??_C@_08OJKDDGJG@cleaning?$AA@
CONST	SEGMENT
??_C@_08OJKDDGJG@cleaning?$AA@ DB 'cleaning', 00H	; `string'
CONST	ENDS
;	COMDAT ??_C@_05EKJCMADO@delay?$AA@
CONST	SEGMENT
??_C@_05EKJCMADO@delay?$AA@ DB 'delay', 00H		; `string'
CONST	ENDS
;	COMDAT ??_C@_07JKABFLJI@credits?$AA@
CONST	SEGMENT
??_C@_07JKABFLJI@credits?$AA@ DB 'credits', 00H		; `string'
CONST	ENDS
;	COMDAT ??_C@_05KIGPLGEM@gensp?$AA@
CONST	SEGMENT
??_C@_05KIGPLGEM@gensp?$AA@ DB 'gensp', 00H		; `string'
CONST	ENDS
;	COMDAT ??_C@_06PAIFPAIP@wcoing?$AA@
CONST	SEGMENT
??_C@_06PAIFPAIP@wcoing?$AA@ DB 'wcoing', 00H		; `string'
CONST	ENDS
;	COMDAT ??_C@_06PFAGHEBJ@wcoinp?$AA@
CONST	SEGMENT
??_C@_06PFAGHEBJ@wcoinp?$AA@ DB 'wcoinp', 00H		; `string'
CONST	ENDS
;	COMDAT ??_C@_06JEOJDFIL@wcoinc?$AA@
CONST	SEGMENT
??_C@_06JEOJDFIL@wcoinc?$AA@ DB 'wcoinc', 00H		; `string'
CONST	ENDS
;	COMDAT ??_C@_05IKCNOJAA@money?$AA@
CONST	SEGMENT
??_C@_05IKCNOJAA@money?$AA@ DB 'money', 00H		; `string'
CONST	ENDS
;	COMDAT ??_C@_08BMOBFNHH@maxreset?$AA@
CONST	SEGMENT
??_C@_08BMOBFNHH@maxreset?$AA@ DB 'maxreset', 00H	; `string'
CONST	ENDS
;	COMDAT ??_C@_08MLAKOPDG@minreset?$AA@
CONST	SEGMENT
??_C@_08MLAKOPDG@minreset?$AA@ DB 'minreset', 00H	; `string'
CONST	ENDS
;	COMDAT ??_C@_08JAPIFGPH@maxlevel?$AA@
CONST	SEGMENT
??_C@_08JAPIFGPH@maxlevel?$AA@ DB 'maxlevel', 00H	; `string'
CONST	ENDS
;	COMDAT ??_C@_08EHBDOELG@minlevel?$AA@
CONST	SEGMENT
??_C@_08EHBDOELG@minlevel?$AA@ DB 'minlevel', 00H	; `string'
CONST	ENDS
;	COMDAT ??_C@_05MGJOOGAJ@group?$AA@
CONST	SEGMENT
??_C@_05MGJOOGAJ@group?$AA@ DB 'group', 00H		; `string'
CONST	ENDS
;	COMDAT ??_C@_09EKKKGLLH@grouplist?$AA@
CONST	SEGMENT
??_C@_09EKKKGLLH@grouplist?$AA@ DB 'grouplist', 00H	; `string'
CONST	ENDS
;	COMDAT ??_C@_01EANLCPLP@y?$AA@
CONST	SEGMENT
??_C@_01EANLCPLP@y?$AA@ DB 'y', 00H			; `string'
CONST	ENDS
;	COMDAT ??_C@_01FJMABOPO@x?$AA@
CONST	SEGMENT
??_C@_01FJMABOPO@x?$AA@ DB 'x', 00H			; `string'
CONST	ENDS
;	COMDAT ??_C@_03HBNNNHNM@map?$AA@
CONST	SEGMENT
??_C@_03HBNNNHNM@map?$AA@ DB 'map', 00H			; `string'
CONST	ENDS
;	COMDAT ??_C@_02EGCJHIOB@id?$AA@
CONST	SEGMENT
??_C@_02EGCJHIOB@id?$AA@ DB 'id', 00H			; `string'
CONST	ENDS
;	COMDAT ??_C@_03BPGDPAOH@npc?$AA@
CONST	SEGMENT
??_C@_03BPGDPAOH@npc?$AA@ DB 'npc', 00H			; `string'
CONST	ENDS
;	COMDAT ??_C@_07MHHIKOPA@enabled?$AA@
CONST	SEGMENT
??_C@_07MHHIKOPA@enabled?$AA@ DB 'enabled', 00H		; `string'
CONST	ENDS
;	COMDAT ??_C@_06IKLLLDHL@normal?$AA@
CONST	SEGMENT
??_C@_06IKLLLDHL@normal?$AA@ DB 'normal', 00H		; `string'
CONST	ENDS
;	COMDAT ??_C@_0M@HLIFFONB@resetsystem?$AA@
CONST	SEGMENT
??_C@_0M@HLIFFONB@resetsystem?$AA@ DB 'resetsystem', 00H ; `string'
CONST	ENDS
;	COMDAT ??_C@_0CB@KHAPEMJG@?$FLResetSystem?$FN?5File?5?$CFs?5not?5found?$CB@
CONST	SEGMENT
??_C@_0CB@KHAPEMJG@?$FLResetSystem?$FN?5File?5?$CFs?5not?5found?$CB@ DB '['
	DB	'ResetSystem] File %s not found!', 00H	; `string'
CONST	ENDS
;	COMDAT ??_C@_0BH@MNGMBMNH@Custom?2ResetSystem?4xml?$AA@
CONST	SEGMENT
??_C@_0BH@MNGMBMNH@Custom?2ResetSystem?4xml?$AA@ DB 'Custom\ResetSystem.x'
	DB	'ml', 00H					; `string'
CONST	ENDS
;	COMDAT ??_C@_05CCGMLFNG@Reset?$AA@
CONST	SEGMENT
??_C@_05CCGMLFNG@Reset?$AA@ DB 'Reset', 00H		; `string'
CONST	ENDS
;	COMDAT ??_C@_0M@FCNIBGCF@?4?2Log?2Reset?$AA@
CONST	SEGMENT
??_C@_0M@FCNIBGCF@?4?2Log?2Reset?$AA@ DB '.\Log\Reset', 00H ; `string'
CONST	ENDS
;	COMDAT ??_7ResetSystem@@6B@
CONST	SEGMENT
??_7ResetSystem@@6B@ DD FLAT:??_R4ResetSystem@@6B@	; ResetSystem::`vftable'
	DD	FLAT:??_EResetSystem@@UAEPAXI@Z
CONST	ENDS
;	COMDAT xdata$x
xdata$x	SEGMENT
__unwindtable$??$construct@UResetGroup@@ABU1@@?$allocator@UResetGroup@@@std@@QAEXPAUResetGroup@@ABU2@@Z DD 0ffffffffH
	DD	FLAT:__unwindfunclet$??$construct@UResetGroup@@ABU1@@?$allocator@UResetGroup@@@std@@QAEXPAUResetGroup@@ABU2@@Z$0
__ehfuncinfo$??$construct@UResetGroup@@ABU1@@?$allocator@UResetGroup@@@std@@QAEXPAUResetGroup@@ABU2@@Z DD 019930522H
	DD	01H
	DD	FLAT:__unwindtable$??$construct@UResetGroup@@ABU1@@?$allocator@UResetGroup@@@std@@QAEXPAUResetGroup@@ABU2@@Z
	DD	2 DUP(00H)
	DD	2 DUP(00H)
	DD	00H
	DD	01H
xdata$x	ENDS
;	COMDAT xdata$x
xdata$x	SEGMENT
__unwindtable$??$construct@UResetGroup@@AAU1@@?$allocator@UResetGroup@@@std@@QAEXPAUResetGroup@@AAU2@@Z DD 0ffffffffH
	DD	FLAT:__unwindfunclet$??$construct@UResetGroup@@AAU1@@?$allocator@UResetGroup@@@std@@QAEXPAUResetGroup@@AAU2@@Z$0
__ehfuncinfo$??$construct@UResetGroup@@AAU1@@?$allocator@UResetGroup@@@std@@QAEXPAUResetGroup@@AAU2@@Z DD 019930522H
	DD	01H
	DD	FLAT:__unwindtable$??$construct@UResetGroup@@AAU1@@?$allocator@UResetGroup@@@std@@QAEXPAUResetGroup@@AAU2@@Z
	DD	2 DUP(00H)
	DD	2 DUP(00H)
	DD	00H
	DD	01H
xdata$x	ENDS
;	COMDAT xdata$x
xdata$x	SEGMENT
__unwindtable$??$construct@UResetGroup@@ABU1@@?$allocator_traits@V?$allocator@UResetGroup@@@std@@@std@@SAXAAV?$allocator@UResetGroup@@@1@PAUResetGroup@@ABU3@@Z DD 0ffffffffH
	DD	FLAT:__unwindfunclet$??$construct@UResetGroup@@ABU1@@?$allocator_traits@V?$allocator@UResetGroup@@@std@@@std@@SAXAAV?$allocator@UResetGroup@@@1@PAUResetGroup@@ABU3@@Z$1
__ehfuncinfo$??$construct@UResetGroup@@ABU1@@?$allocator_traits@V?$allocator@UResetGroup@@@std@@@std@@SAXAAV?$allocator@UResetGroup@@@1@PAUResetGroup@@ABU3@@Z DD 019930522H
	DD	01H
	DD	FLAT:__unwindtable$??$construct@UResetGroup@@ABU1@@?$allocator_traits@V?$allocator@UResetGroup@@@std@@@std@@SAXAAV?$allocator@UResetGroup@@@1@PAUResetGroup@@ABU3@@Z
	DD	2 DUP(00H)
	DD	2 DUP(00H)
	DD	00H
	DD	01H
xdata$x	ENDS
;	COMDAT xdata$x
xdata$x	SEGMENT
__unwindtable$??$construct@UResetGroup@@AAU1@@?$allocator_traits@V?$allocator@UResetGroup@@@std@@@std@@SAXAAV?$allocator@UResetGroup@@@1@PAUResetGroup@@AAU3@@Z DD 0ffffffffH
	DD	FLAT:__unwindfunclet$??$construct@UResetGroup@@AAU1@@?$allocator_traits@V?$allocator@UResetGroup@@@std@@@std@@SAXAAV?$allocator@UResetGroup@@@1@PAUResetGroup@@AAU3@@Z$1
__ehfuncinfo$??$construct@UResetGroup@@AAU1@@?$allocator_traits@V?$allocator@UResetGroup@@@std@@@std@@SAXAAV?$allocator@UResetGroup@@@1@PAUResetGroup@@AAU3@@Z DD 019930522H
	DD	01H
	DD	FLAT:__unwindtable$??$construct@UResetGroup@@AAU1@@?$allocator_traits@V?$allocator@UResetGroup@@@std@@@std@@SAXAAV?$allocator@UResetGroup@@@1@PAUResetGroup@@AAU3@@Z
	DD	2 DUP(00H)
	DD	2 DUP(00H)
	DD	00H
	DD	01H
xdata$x	ENDS
;	COMDAT xdata$x
xdata$x	SEGMENT
__unwindtable$??$construct@UResetGroup@@ABU1@@?$_Wrap_alloc@V?$allocator@UResetGroup@@@std@@@std@@QAEXPAUResetGroup@@ABU2@@Z DD 0ffffffffH
	DD	FLAT:__unwindfunclet$??$construct@UResetGroup@@ABU1@@?$_Wrap_alloc@V?$allocator@UResetGroup@@@std@@@std@@QAEXPAUResetGroup@@ABU2@@Z$2
__ehfuncinfo$??$construct@UResetGroup@@ABU1@@?$_Wrap_alloc@V?$allocator@UResetGroup@@@std@@@std@@QAEXPAUResetGroup@@ABU2@@Z DD 019930522H
	DD	01H
	DD	FLAT:__unwindtable$??$construct@UResetGroup@@ABU1@@?$_Wrap_alloc@V?$allocator@UResetGroup@@@std@@@std@@QAEXPAUResetGroup@@ABU2@@Z
	DD	2 DUP(00H)
	DD	2 DUP(00H)
	DD	00H
	DD	01H
xdata$x	ENDS
;	COMDAT xdata$x
xdata$x	SEGMENT
__unwindtable$??$construct@UResetGroup@@AAU1@@?$_Wrap_alloc@V?$allocator@UResetGroup@@@std@@@std@@QAEXPAUResetGroup@@AAU2@@Z DD 0ffffffffH
	DD	FLAT:__unwindfunclet$??$construct@UResetGroup@@AAU1@@?$_Wrap_alloc@V?$allocator@UResetGroup@@@std@@@std@@QAEXPAUResetGroup@@AAU2@@Z$2
__ehfuncinfo$??$construct@UResetGroup@@AAU1@@?$_Wrap_alloc@V?$allocator@UResetGroup@@@std@@@std@@QAEXPAUResetGroup@@AAU2@@Z DD 019930522H
	DD	01H
	DD	FLAT:__unwindtable$??$construct@UResetGroup@@AAU1@@?$_Wrap_alloc@V?$allocator@UResetGroup@@@std@@@std@@QAEXPAUResetGroup@@AAU2@@Z
	DD	2 DUP(00H)
	DD	2 DUP(00H)
	DD	00H
	DD	01H
xdata$x	ENDS
;	COMDAT xdata$x
xdata$x	SEGMENT
__ehfuncinfo$?Read@ResetSystem@@QAEXPAD@Z DD 019930522H
	DD	07H
	DD	FLAT:__unwindtable$?Read@ResetSystem@@QAEXPAD@Z
	DD	2 DUP(00H)
	DD	2 DUP(00H)
	DD	00H
	DD	01H
__unwindtable$?Read@ResetSystem@@QAEXPAD@Z DD 0ffffffffH
	DD	FLAT:__unwindfunclet$?Read@ResetSystem@@QAEXPAD@Z$0
	DD	00H
	DD	FLAT:__unwindfunclet$?Read@ResetSystem@@QAEXPAD@Z$1
	DD	01H
	DD	FLAT:__unwindfunclet$?Read@ResetSystem@@QAEXPAD@Z$42
	DD	01H
	DD	FLAT:__unwindfunclet$?Read@ResetSystem@@QAEXPAD@Z$66
	DD	00H
	DD	FLAT:__unwindfunclet$?Read@ResetSystem@@QAEXPAD@Z$2
	DD	04H
	DD	FLAT:__unwindfunclet$?Read@ResetSystem@@QAEXPAD@Z$203
	DD	04H
	DD	FLAT:__unwindfunclet$?Read@ResetSystem@@QAEXPAD@Z$227
xdata$x	ENDS
;	COMDAT xdata$x
xdata$x	SEGMENT
__unwindtable$??0ResetSystem@@QAE@XZ DD 0ffffffffH
	DD	FLAT:__unwindfunclet$??0ResetSystem@@QAE@XZ$0
	DD	00H
	DD	FLAT:__unwindfunclet$??0ResetSystem@@QAE@XZ$1
	DD	01H
	DD	FLAT:__unwindfunclet$??0ResetSystem@@QAE@XZ$2
__ehfuncinfo$??0ResetSystem@@QAE@XZ DD 019930522H
	DD	03H
	DD	FLAT:__unwindtable$??0ResetSystem@@QAE@XZ
	DD	2 DUP(00H)
	DD	2 DUP(00H)
	DD	00H
	DD	01H
xdata$x	ENDS
;	COMDAT xdata$x
xdata$x	SEGMENT
__catchsym$?_Reallocate@?$vector@UResetGroup@@V?$allocator@UResetGroup@@@std@@@std@@IAEXI@Z$52 DD 040H
	DD	00H
	DD	00H
	DD	FLAT:__catch$?_Reallocate@?$vector@UResetGroup@@V?$allocator@UResetGroup@@@std@@@std@@IAEXI@Z$0
__unwindtable$?_Reallocate@?$vector@UResetGroup@@V?$allocator@UResetGroup@@@std@@@std@@IAEXI@Z DD 0ffffffffH
	DD	00H
	DD	0ffffffffH
	DD	00H
__tryblocktable$?_Reallocate@?$vector@UResetGroup@@V?$allocator@UResetGroup@@@std@@@std@@IAEXI@Z DD 00H
	DD	00H
	DD	01H
	DD	01H
	DD	FLAT:__catchsym$?_Reallocate@?$vector@UResetGroup@@V?$allocator@UResetGroup@@@std@@@std@@IAEXI@Z$52
__ehfuncinfo$?_Reallocate@?$vector@UResetGroup@@V?$allocator@UResetGroup@@@std@@@std@@IAEXI@Z DD 019930522H
	DD	02H
	DD	FLAT:__unwindtable$?_Reallocate@?$vector@UResetGroup@@V?$allocator@UResetGroup@@@std@@@std@@IAEXI@Z
	DD	01H
	DD	FLAT:__tryblocktable$?_Reallocate@?$vector@UResetGroup@@V?$allocator@UResetGroup@@@std@@@std@@IAEXI@Z
	DD	2 DUP(00H)
	DD	00H
	DD	01H
xdata$x	ENDS
;	COMDAT xdata$x
xdata$x	SEGMENT
__unwindtable$?push_back@?$vector@UResetGroup@@V?$allocator@UResetGroup@@@std@@@std@@QAEXABUResetGroup@@@Z DD 0ffffffffH
	DD	FLAT:__unwindfunclet$?push_back@?$vector@UResetGroup@@V?$allocator@UResetGroup@@@std@@@std@@QAEXABUResetGroup@@@Z$35
	DD	0ffffffffH
	DD	FLAT:__unwindfunclet$?push_back@?$vector@UResetGroup@@V?$allocator@UResetGroup@@@std@@@std@@QAEXABUResetGroup@@@Z$59
__ehfuncinfo$?push_back@?$vector@UResetGroup@@V?$allocator@UResetGroup@@@std@@@std@@QAEXABUResetGroup@@@Z DD 019930522H
	DD	02H
	DD	FLAT:__unwindtable$?push_back@?$vector@UResetGroup@@V?$allocator@UResetGroup@@@std@@@std@@QAEXABUResetGroup@@@Z
	DD	2 DUP(00H)
	DD	2 DUP(00H)
	DD	00H
	DD	01H
xdata$x	ENDS
;	COMDAT xdata$x
xdata$x	SEGMENT
__catchsym$?_Reallocate@?$vector@UResetItem@@V?$allocator@UResetItem@@@std@@@std@@IAEXI@Z$50 DD 040H
	DD	00H
	DD	00H
	DD	FLAT:__catch$?_Reallocate@?$vector@UResetItem@@V?$allocator@UResetItem@@@std@@@std@@IAEXI@Z$0
__unwindtable$?_Reallocate@?$vector@UResetItem@@V?$allocator@UResetItem@@@std@@@std@@IAEXI@Z DD 0ffffffffH
	DD	00H
	DD	0ffffffffH
	DD	00H
__tryblocktable$?_Reallocate@?$vector@UResetItem@@V?$allocator@UResetItem@@@std@@@std@@IAEXI@Z DD 00H
	DD	00H
	DD	01H
	DD	01H
	DD	FLAT:__catchsym$?_Reallocate@?$vector@UResetItem@@V?$allocator@UResetItem@@@std@@@std@@IAEXI@Z$50
__ehfuncinfo$?_Reallocate@?$vector@UResetItem@@V?$allocator@UResetItem@@@std@@@std@@IAEXI@Z DD 019930522H
	DD	02H
	DD	FLAT:__unwindtable$?_Reallocate@?$vector@UResetItem@@V?$allocator@UResetItem@@@std@@@std@@IAEXI@Z
	DD	01H
	DD	FLAT:__tryblocktable$?_Reallocate@?$vector@UResetItem@@V?$allocator@UResetItem@@@std@@@std@@IAEXI@Z
	DD	2 DUP(00H)
	DD	00H
	DD	01H
xdata$x	ENDS
;	COMDAT xdata$x
xdata$x	SEGMENT
__catchsym$??0?$vector@UResetItem@@V?$allocator@UResetItem@@@std@@@std@@QAE@ABV01@@Z$66 DD 040H
	DD	00H
	DD	00H
	DD	FLAT:__catch$??0?$vector@UResetItem@@V?$allocator@UResetItem@@@std@@@std@@QAE@ABV01@@Z$0
__unwindtable$??0?$vector@UResetItem@@V?$allocator@UResetItem@@@std@@@std@@QAE@ABV01@@Z DD 0ffffffffH
	DD	00H
	DD	0ffffffffH
	DD	00H
__tryblocktable$??0?$vector@UResetItem@@V?$allocator@UResetItem@@@std@@@std@@QAE@ABV01@@Z DD 00H
	DD	00H
	DD	01H
	DD	01H
	DD	FLAT:__catchsym$??0?$vector@UResetItem@@V?$allocator@UResetItem@@@std@@@std@@QAE@ABV01@@Z$66
__ehfuncinfo$??0?$vector@UResetItem@@V?$allocator@UResetItem@@@std@@@std@@QAE@ABV01@@Z DD 019930522H
	DD	02H
	DD	FLAT:__unwindtable$??0?$vector@UResetItem@@V?$allocator@UResetItem@@@std@@@std@@QAE@ABV01@@Z
	DD	01H
	DD	FLAT:__tryblocktable$??0?$vector@UResetItem@@V?$allocator@UResetItem@@@std@@@std@@QAE@ABV01@@Z
	DD	2 DUP(00H)
	DD	00H
	DD	01H
xdata$x	ENDS
;	COMDAT xdata$x
xdata$x	SEGMENT
__ehfuncinfo$??_EOBJECTSTRUCT@@QAEPAXI@Z DD 019930522H
	DD	00H
	DD	00H
	DD	2 DUP(00H)
	DD	2 DUP(00H)
	DD	00H
	DD	05H
xdata$x	ENDS
; Function compile flags: /Ogtp
; File c:\program files (x86)\microsoft visual studio 14.0\vc\include\type_traits
;	COMDAT ??$forward@V?$vector@UResetItem@@V?$allocator@UResetItem@@@std@@@std@@@std@@YA$$QAV?$vector@UResetItem@@V?$allocator@UResetItem@@@std@@@0@AAV10@@Z
_TEXT	SEGMENT
__Arg$ = 8						; size = 4
??$forward@V?$vector@UResetItem@@V?$allocator@UResetItem@@@std@@@std@@@std@@YA$$QAV?$vector@UResetItem@@V?$allocator@UResetItem@@@std@@@0@AAV10@@Z PROC ; std::forward<std::vector<ResetItem,std::allocator<ResetItem> > >, COMDAT

; 1233 : 	{	// forward an lvalue as either an lvalue or an rvalue

  00000	55		 push	 ebp
  00001	8b ec		 mov	 ebp, esp

; 1234 : 	return (static_cast<_Ty&&>(_Arg));

  00003	8b 45 08	 mov	 eax, DWORD PTR __Arg$[ebp]

; 1235 : 	}

  00006	5d		 pop	 ebp
  00007	c3		 ret	 0
??$forward@V?$vector@UResetItem@@V?$allocator@UResetItem@@@std@@@std@@@std@@YA$$QAV?$vector@UResetItem@@V?$allocator@UResetItem@@@std@@@0@AAV10@@Z ENDP ; std::forward<std::vector<ResetItem,std::allocator<ResetItem> > >
_TEXT	ENDS
; Function compile flags: /Ogtp
; File c:\program files (x86)\microsoft visual studio 14.0\vc\include\type_traits
;	COMDAT ??$move@AAU?$_Wrap_alloc@V?$allocator@UResetItem@@@std@@@std@@@std@@YA$$QAU?$_Wrap_alloc@V?$allocator@UResetItem@@@std@@@0@AAU10@@Z
_TEXT	SEGMENT
__Arg$ = 8						; size = 4
??$move@AAU?$_Wrap_alloc@V?$allocator@UResetItem@@@std@@@std@@@std@@YA$$QAU?$_Wrap_alloc@V?$allocator@UResetItem@@@std@@@0@AAU10@@Z PROC ; std::move<std::_Wrap_alloc<std::allocator<ResetItem> > &>, COMDAT

; 1249 : 	{	// forward _Arg as movable

  00000	55		 push	 ebp
  00001	8b ec		 mov	 ebp, esp

; 1250 : 	return (static_cast<typename remove_reference<_Ty>::type&&>(_Arg));

  00003	8b 45 08	 mov	 eax, DWORD PTR __Arg$[ebp]

; 1251 : 	}

  00006	5d		 pop	 ebp
  00007	c3		 ret	 0
??$move@AAU?$_Wrap_alloc@V?$allocator@UResetItem@@@std@@@std@@@std@@YA$$QAU?$_Wrap_alloc@V?$allocator@UResetItem@@@std@@@0@AAU10@@Z ENDP ; std::move<std::_Wrap_alloc<std::allocator<ResetItem> > &>
_TEXT	ENDS
; Function compile flags: /Ogtp
; File c:\program files (x86)\microsoft visual studio 14.0\vc\include\xmemory
; File c:\program files (x86)\microsoft visual studio 14.0\vc\include\xmemory0
; File c:\program files (x86)\microsoft visual studio 14.0\vc\include\xmemory
;	COMDAT ??$_Uninit_copy@PBUResetItem@@PAU1@V?$allocator@UResetItem@@@std@@@std@@YAPAUResetItem@@PBU1@0PAU1@AAU?$_Wrap_alloc@V?$allocator@UResetItem@@@std@@@0@U_Nonscalar_ptr_iterator_tag@0@@Z
_TEXT	SEGMENT
__First$ = 8						; size = 4
__Last$ = 12						; size = 4
__Dest$ = 16						; size = 4
__Al$ = 20						; size = 4
___formal$ = 24						; size = 1
??$_Uninit_copy@PBUResetItem@@PAU1@V?$allocator@UResetItem@@@std@@@std@@YAPAUResetItem@@PBU1@0PAU1@AAU?$_Wrap_alloc@V?$allocator@UResetItem@@@std@@@0@U_Nonscalar_ptr_iterator_tag@0@@Z PROC ; std::_Uninit_copy<ResetItem const *,ResetItem *,std::allocator<ResetItem> >, COMDAT

; 373  : 	{	// copy [_First, _Last) to raw _Dest, using _Al, arbitrary type

  00000	55		 push	 ebp
  00001	8b ec		 mov	 ebp, esp

; 378  : 	for (; _First != _Last; ++_Dest, (void)++_First)

  00003	8b 4d 08	 mov	 ecx, DWORD PTR __First$[ebp]
  00006	8b 55 0c	 mov	 edx, DWORD PTR __Last$[ebp]
  00009	8b 45 10	 mov	 eax, DWORD PTR __Dest$[ebp]
  0000c	3b ca		 cmp	 ecx, edx
  0000e	74 1e		 je	 SHORT $LN3@Uninit_cop
$LL4@Uninit_cop:
; File c:\program files (x86)\microsoft visual studio 14.0\vc\include\xmemory0

; 655  : 		::new ((void *)_Ptr) _Objty(_STD forward<_Types>(_Args)...);

  00010	85 c0		 test	 eax, eax
  00012	74 10		 je	 SHORT $LN2@Uninit_cop
  00014	0f 10 01	 movups	 xmm0, XMMWORD PTR [ecx]
  00017	0f 11 00	 movups	 XMMWORD PTR [eax], xmm0
  0001a	f3 0f 7e 41 10	 movq	 xmm0, QWORD PTR [ecx+16]
  0001f	66 0f d6 40 10	 movq	 QWORD PTR [eax+16], xmm0
$LN2@Uninit_cop:
; File c:\program files (x86)\microsoft visual studio 14.0\vc\include\xmemory

; 378  : 	for (; _First != _Last; ++_Dest, (void)++_First)

  00024	83 c1 18	 add	 ecx, 24			; 00000018H
  00027	83 c0 18	 add	 eax, 24			; 00000018H
  0002a	3b ca		 cmp	 ecx, edx
  0002c	75 e2		 jne	 SHORT $LL4@Uninit_cop
$LN3@Uninit_cop:

; 379  : 		_Al.construct(_Dest, *_First);
; 380  : 	_CATCH_ALL
; 381  : 	for (; _Next != _Dest; ++_Next)
; 382  : 		_Al.destroy(_Next);
; 383  : 	_RERAISE;
; 384  : 	_CATCH_END
; 385  : 	return (_Dest);
; 386  : 	}

  0002e	5d		 pop	 ebp
  0002f	c3		 ret	 0
??$_Uninit_copy@PBUResetItem@@PAU1@V?$allocator@UResetItem@@@std@@@std@@YAPAUResetItem@@PBU1@0PAU1@AAU?$_Wrap_alloc@V?$allocator@UResetItem@@@std@@@0@U_Nonscalar_ptr_iterator_tag@0@@Z ENDP ; std::_Uninit_copy<ResetItem const *,ResetItem *,std::allocator<ResetItem> >
_TEXT	ENDS
; Function compile flags: /Ogtp
; File c:\program files (x86)\microsoft visual studio 14.0\vc\include\xmemory0
;	COMDAT ??$construct@UResetItem@@U1@@?$allocator@UResetItem@@@std@@QAEXPAUResetItem@@$$QAU2@@Z
_TEXT	SEGMENT
__Ptr$ = 8						; size = 4
_<_Args_0>$ = 12					; size = 4
??$construct@UResetItem@@U1@@?$allocator@UResetItem@@@std@@QAEXPAUResetItem@@$$QAU2@@Z PROC ; std::allocator<ResetItem>::construct<ResetItem,ResetItem>, COMDAT
; _this$ = ecx

; 654  : 		{	// construct _Objty(_Types...) at _Ptr

  00000	55		 push	 ebp
  00001	8b ec		 mov	 ebp, esp

; 655  : 		::new ((void *)_Ptr) _Objty(_STD forward<_Types>(_Args)...);

  00003	8b 4d 08	 mov	 ecx, DWORD PTR __Ptr$[ebp]
  00006	85 c9		 test	 ecx, ecx
  00008	74 13		 je	 SHORT $LN3@construct
  0000a	8b 45 0c	 mov	 eax, DWORD PTR _<_Args_0>$[ebp]
  0000d	0f 10 00	 movups	 xmm0, XMMWORD PTR [eax]
  00010	0f 11 01	 movups	 XMMWORD PTR [ecx], xmm0
  00013	f3 0f 7e 40 10	 movq	 xmm0, QWORD PTR [eax+16]
  00018	66 0f d6 41 10	 movq	 QWORD PTR [ecx+16], xmm0
$LN3@construct:

; 656  : 		}

  0001d	5d		 pop	 ebp
  0001e	c2 08 00	 ret	 8
??$construct@UResetItem@@U1@@?$allocator@UResetItem@@@std@@QAEXPAUResetItem@@$$QAU2@@Z ENDP ; std::allocator<ResetItem>::construct<ResetItem,ResetItem>
_TEXT	ENDS
; Function compile flags: /Ogtp
; File c:\program files (x86)\microsoft visual studio 14.0\vc\include\xmemory0
;	COMDAT ??$construct@UResetGroup@@U1@@?$allocator@UResetGroup@@@std@@QAEXPAUResetGroup@@$$QAU2@@Z
_TEXT	SEGMENT
__Ptr$ = 8						; size = 4
_<_Args_0>$ = 12					; size = 4
??$construct@UResetGroup@@U1@@?$allocator@UResetGroup@@@std@@QAEXPAUResetGroup@@$$QAU2@@Z PROC ; std::allocator<ResetGroup>::construct<ResetGroup,ResetGroup>, COMDAT
; _this$ = ecx

; 654  : 		{	// construct _Objty(_Types...) at _Ptr

  00000	55		 push	 ebp
  00001	8b ec		 mov	 ebp, esp

; 655  : 		::new ((void *)_Ptr) _Objty(_STD forward<_Types>(_Args)...);

  00003	8b 4d 08	 mov	 ecx, DWORD PTR __Ptr$[ebp]
  00006	85 c9		 test	 ecx, ecx
  00008	74 08		 je	 SHORT $LN3@construct
  0000a	ff 75 0c	 push	 DWORD PTR _<_Args_0>$[ebp]
  0000d	e8 00 00 00 00	 call	 ??0ResetGroup@@QAE@$$QAU0@@Z
$LN3@construct:

; 656  : 		}

  00012	5d		 pop	 ebp
  00013	c2 08 00	 ret	 8
??$construct@UResetGroup@@U1@@?$allocator@UResetGroup@@@std@@QAEXPAUResetGroup@@$$QAU2@@Z ENDP ; std::allocator<ResetGroup>::construct<ResetGroup,ResetGroup>
_TEXT	ENDS
; Function compile flags: /Ogtp
; File c:\program files (x86)\microsoft visual studio 14.0\vc\include\xmemory
;	COMDAT ??$_Uninit_copy@PBUResetItem@@PAU1@U?$_Wrap_alloc@V?$allocator@UResetItem@@@std@@@std@@@std@@YAPAUResetItem@@PBU1@0PAU1@AAU?$_Wrap_alloc@V?$allocator@UResetItem@@@std@@@0@@Z
_TEXT	SEGMENT
__Cat$1 = -4						; size = 1
__First$ = 8						; size = 4
__Last$ = 12						; size = 4
__Dest$ = 16						; size = 4
__Al$ = 20						; size = 4
??$_Uninit_copy@PBUResetItem@@PAU1@U?$_Wrap_alloc@V?$allocator@UResetItem@@@std@@@std@@@std@@YAPAUResetItem@@PBU1@0PAU1@AAU?$_Wrap_alloc@V?$allocator@UResetItem@@@std@@@0@@Z PROC ; std::_Uninit_copy<ResetItem const *,ResetItem *,std::_Wrap_alloc<std::allocator<ResetItem> > >, COMDAT

; 414  : 	{	// copy [_First, _Last) to raw _Dest, using _Al

  00000	55		 push	 ebp
  00001	8b ec		 mov	 ebp, esp
  00003	51		 push	 ecx

; 415  : 	return (_Uninit_copy(_First, _Last, _Dest, _Al,

  00004	ff 75 fc	 push	 DWORD PTR __Cat$1[ebp]
  00007	ff 75 14	 push	 DWORD PTR __Al$[ebp]
  0000a	ff 75 10	 push	 DWORD PTR __Dest$[ebp]
  0000d	ff 75 0c	 push	 DWORD PTR __Last$[ebp]
  00010	ff 75 08	 push	 DWORD PTR __First$[ebp]
  00013	e8 00 00 00 00	 call	 ??$_Uninit_copy@PBUResetItem@@PAU1@V?$allocator@UResetItem@@@std@@@std@@YAPAUResetItem@@PBU1@0PAU1@AAU?$_Wrap_alloc@V?$allocator@UResetItem@@@std@@@0@U_Nonscalar_ptr_iterator_tag@0@@Z ; std::_Uninit_copy<ResetItem const *,ResetItem *,std::allocator<ResetItem> >
  00018	83 c4 14	 add	 esp, 20			; 00000014H

; 416  : 		_Ptr_cat(_First, _Dest)));
; 417  : 	}

  0001b	8b e5		 mov	 esp, ebp
  0001d	5d		 pop	 ebp
  0001e	c3		 ret	 0
??$_Uninit_copy@PBUResetItem@@PAU1@U?$_Wrap_alloc@V?$allocator@UResetItem@@@std@@@std@@@std@@YAPAUResetItem@@PBU1@0PAU1@AAU?$_Wrap_alloc@V?$allocator@UResetItem@@@std@@@0@@Z ENDP ; std::_Uninit_copy<ResetItem const *,ResetItem *,std::_Wrap_alloc<std::allocator<ResetItem> > >
_TEXT	ENDS
; Function compile flags: /Ogtp
; File c:\program files (x86)\microsoft visual studio 14.0\vc\include\vector
;	COMDAT ??$_Unchecked@V?$_Vector_val@U?$_Simple_types@UResetItem@@@std@@@std@@@std@@YAPBUResetItem@@V?$_Vector_const_iterator@V?$_Vector_val@U?$_Simple_types@UResetItem@@@std@@@std@@@0@@Z
_TEXT	SEGMENT
__Iter$ = 8						; size = 4
??$_Unchecked@V?$_Vector_val@U?$_Simple_types@UResetItem@@@std@@@std@@@std@@YAPBUResetItem@@V?$_Vector_const_iterator@V?$_Vector_val@U?$_Simple_types@UResetItem@@@std@@@std@@@0@@Z PROC ; std::_Unchecked<std::_Vector_val<std::_Simple_types<ResetItem> > >, COMDAT

; 265  : 	{	// convert to unchecked

  00000	55		 push	 ebp
  00001	8b ec		 mov	 ebp, esp

; 266  : 	return (_Iter._Unchecked());

  00003	8b 45 08	 mov	 eax, DWORD PTR __Iter$[ebp]

; 267  : 	}

  00006	5d		 pop	 ebp
  00007	c3		 ret	 0
??$_Unchecked@V?$_Vector_val@U?$_Simple_types@UResetItem@@@std@@@std@@@std@@YAPBUResetItem@@V?$_Vector_const_iterator@V?$_Vector_val@U?$_Simple_types@UResetItem@@@std@@@std@@@0@@Z ENDP ; std::_Unchecked<std::_Vector_val<std::_Simple_types<ResetItem> > >
_TEXT	ENDS
; Function compile flags: /Ogtp
; File c:\program files (x86)\microsoft visual studio 14.0\vc\include\xmemory0
;	COMDAT ??$construct@UResetItem@@U1@@?$allocator_traits@V?$allocator@UResetItem@@@std@@@std@@SAXAAV?$allocator@UResetItem@@@1@PAUResetItem@@$$QAU3@@Z
_TEXT	SEGMENT
__Al$ = 8						; size = 4
__Ptr$ = 12						; size = 4
_<_Args_0>$ = 16					; size = 4
??$construct@UResetItem@@U1@@?$allocator_traits@V?$allocator@UResetItem@@@std@@@std@@SAXAAV?$allocator@UResetItem@@@1@PAUResetItem@@$$QAU3@@Z PROC ; std::allocator_traits<std::allocator<ResetItem> >::construct<ResetItem,ResetItem>, COMDAT

; 772  : 		{	// construct _Objty(_Types...) at _Ptr

  00000	55		 push	 ebp
  00001	8b ec		 mov	 ebp, esp

; 655  : 		::new ((void *)_Ptr) _Objty(_STD forward<_Types>(_Args)...);

  00003	8b 4d 0c	 mov	 ecx, DWORD PTR __Ptr$[ebp]
  00006	85 c9		 test	 ecx, ecx
  00008	74 13		 je	 SHORT $LN8@construct
  0000a	8b 45 10	 mov	 eax, DWORD PTR _<_Args_0>$[ebp]
  0000d	0f 10 00	 movups	 xmm0, XMMWORD PTR [eax]
  00010	0f 11 01	 movups	 XMMWORD PTR [ecx], xmm0
  00013	f3 0f 7e 40 10	 movq	 xmm0, QWORD PTR [eax+16]
  00018	66 0f d6 41 10	 movq	 QWORD PTR [ecx+16], xmm0
$LN8@construct:

; 773  : 		_Al.construct(_Ptr, _STD forward<_Types>(_Args)...);
; 774  : 		}

  0001d	5d		 pop	 ebp
  0001e	c3		 ret	 0
??$construct@UResetItem@@U1@@?$allocator_traits@V?$allocator@UResetItem@@@std@@@std@@SAXAAV?$allocator@UResetItem@@@1@PAUResetItem@@$$QAU3@@Z ENDP ; std::allocator_traits<std::allocator<ResetItem> >::construct<ResetItem,ResetItem>
_TEXT	ENDS
; Function compile flags: /Ogtp
; File c:\program files (x86)\microsoft visual studio 14.0\vc\include\type_traits
;	COMDAT ??$forward@UResetItem@@@std@@YA$$QAUResetItem@@AAU1@@Z
_TEXT	SEGMENT
__Arg$ = 8						; size = 4
??$forward@UResetItem@@@std@@YA$$QAUResetItem@@AAU1@@Z PROC ; std::forward<ResetItem>, COMDAT

; 1233 : 	{	// forward an lvalue as either an lvalue or an rvalue

  00000	55		 push	 ebp
  00001	8b ec		 mov	 ebp, esp

; 1234 : 	return (static_cast<_Ty&&>(_Arg));

  00003	8b 45 08	 mov	 eax, DWORD PTR __Arg$[ebp]

; 1235 : 	}

  00006	5d		 pop	 ebp
  00007	c3		 ret	 0
??$forward@UResetItem@@@std@@YA$$QAUResetItem@@AAU1@@Z ENDP ; std::forward<ResetItem>
_TEXT	ENDS
; Function compile flags: /Ogtp
; File c:\program files (x86)\microsoft visual studio 14.0\vc\include\xmemory0
;	COMDAT ??$construct@UResetGroup@@U1@@?$allocator_traits@V?$allocator@UResetGroup@@@std@@@std@@SAXAAV?$allocator@UResetGroup@@@1@PAUResetGroup@@$$QAU3@@Z
_TEXT	SEGMENT
__Al$ = 8						; size = 4
__Ptr$ = 12						; size = 4
_<_Args_0>$ = 16					; size = 4
??$construct@UResetGroup@@U1@@?$allocator_traits@V?$allocator@UResetGroup@@@std@@@std@@SAXAAV?$allocator@UResetGroup@@@1@PAUResetGroup@@$$QAU3@@Z PROC ; std::allocator_traits<std::allocator<ResetGroup> >::construct<ResetGroup,ResetGroup>, COMDAT

; 772  : 		{	// construct _Objty(_Types...) at _Ptr

  00000	55		 push	 ebp
  00001	8b ec		 mov	 ebp, esp

; 655  : 		::new ((void *)_Ptr) _Objty(_STD forward<_Types>(_Args)...);

  00003	8b 4d 0c	 mov	 ecx, DWORD PTR __Ptr$[ebp]
  00006	85 c9		 test	 ecx, ecx
  00008	74 08		 je	 SHORT $LN8@construct
  0000a	ff 75 10	 push	 DWORD PTR _<_Args_0>$[ebp]
  0000d	e8 00 00 00 00	 call	 ??0ResetGroup@@QAE@$$QAU0@@Z
$LN8@construct:

; 773  : 		_Al.construct(_Ptr, _STD forward<_Types>(_Args)...);
; 774  : 		}

  00012	5d		 pop	 ebp
  00013	c3		 ret	 0
??$construct@UResetGroup@@U1@@?$allocator_traits@V?$allocator@UResetGroup@@@std@@@std@@SAXAAV?$allocator@UResetGroup@@@1@PAUResetGroup@@$$QAU3@@Z ENDP ; std::allocator_traits<std::allocator<ResetGroup> >::construct<ResetGroup,ResetGroup>
_TEXT	ENDS
; Function compile flags: /Ogtp
; File c:\program files (x86)\microsoft visual studio 14.0\vc\include\type_traits
;	COMDAT ??$forward@UResetGroup@@@std@@YA$$QAUResetGroup@@AAU1@@Z
_TEXT	SEGMENT
__Arg$ = 8						; size = 4
??$forward@UResetGroup@@@std@@YA$$QAUResetGroup@@AAU1@@Z PROC ; std::forward<ResetGroup>, COMDAT

; 1233 : 	{	// forward an lvalue as either an lvalue or an rvalue

  00000	55		 push	 ebp
  00001	8b ec		 mov	 ebp, esp

; 1234 : 	return (static_cast<_Ty&&>(_Arg));

  00003	8b 45 08	 mov	 eax, DWORD PTR __Arg$[ebp]

; 1235 : 	}

  00006	5d		 pop	 ebp
  00007	c3		 ret	 0
??$forward@UResetGroup@@@std@@YA$$QAUResetGroup@@AAU1@@Z ENDP ; std::forward<ResetGroup>
_TEXT	ENDS
; Function compile flags: /Ogtp
; File c:\program files (x86)\microsoft visual studio 14.0\vc\include\type_traits
;	COMDAT ??$forward@V?$allocator@UResetItem@@@std@@@std@@YA$$QAV?$allocator@UResetItem@@@0@AAV10@@Z
_TEXT	SEGMENT
__Arg$ = 8						; size = 4
??$forward@V?$allocator@UResetItem@@@std@@@std@@YA$$QAV?$allocator@UResetItem@@@0@AAV10@@Z PROC ; std::forward<std::allocator<ResetItem> >, COMDAT

; 1233 : 	{	// forward an lvalue as either an lvalue or an rvalue

  00000	55		 push	 ebp
  00001	8b ec		 mov	 ebp, esp

; 1234 : 	return (static_cast<_Ty&&>(_Arg));

  00003	8b 45 08	 mov	 eax, DWORD PTR __Arg$[ebp]

; 1235 : 	}

  00006	5d		 pop	 ebp
  00007	c3		 ret	 0
??$forward@V?$allocator@UResetItem@@@std@@@std@@YA$$QAV?$allocator@UResetItem@@@0@AAV10@@Z ENDP ; std::forward<std::allocator<ResetItem> >
_TEXT	ENDS
; Function compile flags: /Ogtp
; File c:\program files (x86)\microsoft visual studio 14.0\vc\include\xmemory
;	COMDAT ??$_Uninitialized_copy@V?$_Vector_const_iterator@V?$_Vector_val@U?$_Simple_types@UResetItem@@@std@@@std@@@std@@PAUResetItem@@U?$_Wrap_alloc@V?$allocator@UResetItem@@@std@@@2@@std@@YAPAUResetItem@@V?$_Vector_const_iterator@V?$_Vector_val@U?$_Simple_types@UResetItem@@@std@@@std@@@0@0PAU1@AAU?$_Wrap_alloc@V?$allocator@UResetItem@@@std@@@0@@Z
_TEXT	SEGMENT
__First$ = 8						; size = 4
__Last$ = 12						; size = 4
__Cat$1 = 16						; size = 1
__Dest$ = 16						; size = 4
__Al$ = 20						; size = 4
??$_Uninitialized_copy@V?$_Vector_const_iterator@V?$_Vector_val@U?$_Simple_types@UResetItem@@@std@@@std@@@std@@PAUResetItem@@U?$_Wrap_alloc@V?$allocator@UResetItem@@@std@@@2@@std@@YAPAUResetItem@@V?$_Vector_const_iterator@V?$_Vector_val@U?$_Simple_types@UResetItem@@@std@@@std@@@0@0PAU1@AAU?$_Wrap_alloc@V?$allocator@UResetItem@@@std@@@0@@Z PROC ; std::_Uninitialized_copy<std::_Vector_const_iterator<std::_Vector_val<std::_Simple_types<ResetItem> > >,ResetItem *,std::_Wrap_alloc<std::allocator<ResetItem> > >, COMDAT

; 424  : 	{	// copy [_First, _Last) to raw _Dest, using _Al

  00000	55		 push	 ebp
  00001	8b ec		 mov	 ebp, esp

; 415  : 	return (_Uninit_copy(_First, _Last, _Dest, _Al,

  00003	ff 75 10	 push	 DWORD PTR __Cat$1[ebp]
  00006	ff 75 14	 push	 DWORD PTR __Al$[ebp]
  00009	ff 75 10	 push	 DWORD PTR __Dest$[ebp]
  0000c	ff 75 0c	 push	 DWORD PTR __Last$[ebp]
  0000f	ff 75 08	 push	 DWORD PTR __First$[ebp]
  00012	e8 00 00 00 00	 call	 ??$_Uninit_copy@PBUResetItem@@PAU1@V?$allocator@UResetItem@@@std@@@std@@YAPAUResetItem@@PBU1@0PAU1@AAU?$_Wrap_alloc@V?$allocator@UResetItem@@@std@@@0@U_Nonscalar_ptr_iterator_tag@0@@Z ; std::_Uninit_copy<ResetItem const *,ResetItem *,std::allocator<ResetItem> >
  00017	83 c4 14	 add	 esp, 20			; 00000014H

; 425  : 	return (_Rechecked(_Dest,
; 426  : 		_Uninit_copy(_Unchecked(_First), _Unchecked(_Last),
; 427  : 			_Unchecked(_Dest), _Al)));
; 428  : 	}

  0001a	5d		 pop	 ebp
  0001b	c3		 ret	 0
??$_Uninitialized_copy@V?$_Vector_const_iterator@V?$_Vector_val@U?$_Simple_types@UResetItem@@@std@@@std@@@std@@PAUResetItem@@U?$_Wrap_alloc@V?$allocator@UResetItem@@@std@@@2@@std@@YAPAUResetItem@@V?$_Vector_const_iterator@V?$_Vector_val@U?$_Simple_types@UResetItem@@@std@@@std@@@0@0PAU1@AAU?$_Wrap_alloc@V?$allocator@UResetItem@@@std@@@0@@Z ENDP ; std::_Uninitialized_copy<std::_Vector_const_iterator<std::_Vector_val<std::_Simple_types<ResetItem> > >,ResetItem *,std::_Wrap_alloc<std::allocator<ResetItem> > >
_TEXT	ENDS
; Function compile flags: /Ogtp
; File c:\program files (x86)\microsoft visual studio 14.0\vc\include\xmemory0
;	COMDAT ??$destroy@UResetItem@@@?$allocator@UResetItem@@@std@@QAEXPAUResetItem@@@Z
_TEXT	SEGMENT
__Ptr$ = 8						; size = 4
??$destroy@UResetItem@@@?$allocator@UResetItem@@@std@@QAEXPAUResetItem@@@Z PROC ; std::allocator<ResetItem>::destroy<ResetItem>, COMDAT
; _this$ = ecx

; 662  : 		_Ptr->~_Uty();
; 663  : 		}

  00000	c2 04 00	 ret	 4
??$destroy@UResetItem@@@?$allocator@UResetItem@@@std@@QAEXPAUResetItem@@@Z ENDP ; std::allocator<ResetItem>::destroy<ResetItem>
_TEXT	ENDS
; Function compile flags: /Ogtp
; File c:\program files (x86)\microsoft visual studio 14.0\vc\include\xmemory0
;	COMDAT ??$construct@UResetItem@@U1@@?$_Wrap_alloc@V?$allocator@UResetItem@@@std@@@std@@QAEXPAUResetItem@@$$QAU2@@Z
_TEXT	SEGMENT
__Ptr$ = 8						; size = 4
_<_Args_0>$ = 12					; size = 4
??$construct@UResetItem@@U1@@?$_Wrap_alloc@V?$allocator@UResetItem@@@std@@@std@@QAEXPAUResetItem@@$$QAU2@@Z PROC ; std::_Wrap_alloc<std::allocator<ResetItem> >::construct<ResetItem,ResetItem>, COMDAT
; _this$ = ecx

; 916  : 		{	// construct _Ty(_Types...) at _Ptr

  00000	55		 push	 ebp
  00001	8b ec		 mov	 ebp, esp

; 655  : 		::new ((void *)_Ptr) _Objty(_STD forward<_Types>(_Args)...);

  00003	8b 4d 08	 mov	 ecx, DWORD PTR __Ptr$[ebp]
  00006	85 c9		 test	 ecx, ecx
  00008	74 13		 je	 SHORT $LN13@construct
  0000a	8b 45 0c	 mov	 eax, DWORD PTR _<_Args_0>$[ebp]
  0000d	0f 10 00	 movups	 xmm0, XMMWORD PTR [eax]
  00010	0f 11 01	 movups	 XMMWORD PTR [ecx], xmm0
  00013	f3 0f 7e 40 10	 movq	 xmm0, QWORD PTR [eax+16]
  00018	66 0f d6 41 10	 movq	 QWORD PTR [ecx+16], xmm0
$LN13@construct:

; 917  : 		_Mytraits::construct(*this, _Ptr,
; 918  : 			_STD forward<_Types>(_Args)...);
; 919  : 		}

  0001d	5d		 pop	 ebp
  0001e	c2 08 00	 ret	 8
??$construct@UResetItem@@U1@@?$_Wrap_alloc@V?$allocator@UResetItem@@@std@@@std@@QAEXPAUResetItem@@$$QAU2@@Z ENDP ; std::_Wrap_alloc<std::allocator<ResetItem> >::construct<ResetItem,ResetItem>
_TEXT	ENDS
; Function compile flags: /Ogtp
; File c:\program files (x86)\microsoft visual studio 14.0\vc\include\xmemory0
;	COMDAT ??$construct@UResetGroup@@U1@@?$_Wrap_alloc@V?$allocator@UResetGroup@@@std@@@std@@QAEXPAUResetGroup@@$$QAU2@@Z
_TEXT	SEGMENT
__Ptr$ = 8						; size = 4
_<_Args_0>$ = 12					; size = 4
??$construct@UResetGroup@@U1@@?$_Wrap_alloc@V?$allocator@UResetGroup@@@std@@@std@@QAEXPAUResetGroup@@$$QAU2@@Z PROC ; std::_Wrap_alloc<std::allocator<ResetGroup> >::construct<ResetGroup,ResetGroup>, COMDAT
; _this$ = ecx

; 916  : 		{	// construct _Ty(_Types...) at _Ptr

  00000	55		 push	 ebp
  00001	8b ec		 mov	 ebp, esp

; 655  : 		::new ((void *)_Ptr) _Objty(_STD forward<_Types>(_Args)...);

  00003	8b 4d 08	 mov	 ecx, DWORD PTR __Ptr$[ebp]
  00006	85 c9		 test	 ecx, ecx
  00008	74 08		 je	 SHORT $LN13@construct
  0000a	ff 75 0c	 push	 DWORD PTR _<_Args_0>$[ebp]
  0000d	e8 00 00 00 00	 call	 ??0ResetGroup@@QAE@$$QAU0@@Z
$LN13@construct:

; 917  : 		_Mytraits::construct(*this, _Ptr,
; 918  : 			_STD forward<_Types>(_Args)...);
; 919  : 		}

  00012	5d		 pop	 ebp
  00013	c2 08 00	 ret	 8
??$construct@UResetGroup@@U1@@?$_Wrap_alloc@V?$allocator@UResetGroup@@@std@@@std@@QAEXPAUResetGroup@@$$QAU2@@Z ENDP ; std::_Wrap_alloc<std::allocator<ResetGroup> >::construct<ResetGroup,ResetGroup>
_TEXT	ENDS
; Function compile flags: /Ogtp
; File c:\program files (x86)\microsoft visual studio 14.0\vc\include\xmemory0
; File c:\program files (x86)\microsoft visual studio 14.0\vc\include\vector
; File c:\program files (x86)\microsoft visual studio 14.0\vc\include\xmemory0
; File c:\program files (x86)\microsoft visual studio 14.0\vc\include\vector
; File c:\program files (x86)\microsoft visual studio 14.0\vc\include\xmemory0
; File c:\program files (x86)\microsoft visual studio 14.0\vc\include\vector
; File c:\program files (x86)\microsoft visual studio 14.0\vc\include\xmemory0
;	COMDAT ??$destroy@UResetGroup@@@?$allocator@UResetGroup@@@std@@QAEXPAUResetGroup@@@Z
_TEXT	SEGMENT
__Ptr$ = 8						; size = 4
??$destroy@UResetGroup@@@?$allocator@UResetGroup@@@std@@QAEXPAUResetGroup@@@Z PROC ; std::allocator<ResetGroup>::destroy<ResetGroup>, COMDAT
; _this$ = ecx

; 661  : 		{	// destroy object at _Ptr

  00000	55		 push	 ebp
  00001	8b ec		 mov	 ebp, esp
  00003	56		 push	 esi
  00004	8b 75 08	 mov	 esi, DWORD PTR __Ptr$[ebp]
  00007	81 c6 f0 00 00
	00		 add	 esi, 240		; 000000f0H
  0000d	57		 push	 edi
; File c:\program files (x86)\microsoft visual studio 14.0\vc\include\vector

; 1656 : 		if (this->_Myfirst() != pointer())

  0000e	8b 3e		 mov	 edi, DWORD PTR [esi]
  00010	85 ff		 test	 edi, edi
  00012	74 33		 je	 SHORT $LN14@destroy

; 1660 : 			this->_Getal().deallocate(this->_Myfirst(),

  00014	8b 4e 08	 mov	 ecx, DWORD PTR [esi+8]
  00017	b8 ab aa aa 2a	 mov	 eax, 715827883		; 2aaaaaabH
  0001c	2b cf		 sub	 ecx, edi
  0001e	f7 e9		 imul	 ecx
; File c:\program files (x86)\microsoft visual studio 14.0\vc\include\xmemory0

; 909  : 		_Mybase::deallocate(_Ptr, _Count);

  00020	8b ce		 mov	 ecx, esi
; File c:\program files (x86)\microsoft visual studio 14.0\vc\include\vector

; 1660 : 			this->_Getal().deallocate(this->_Myfirst(),

  00022	c1 fa 02	 sar	 edx, 2
  00025	8b c2		 mov	 eax, edx
  00027	c1 e8 1f	 shr	 eax, 31			; 0000001fH
  0002a	03 c2		 add	 eax, edx
; File c:\program files (x86)\microsoft visual studio 14.0\vc\include\xmemory0

; 909  : 		_Mybase::deallocate(_Ptr, _Count);

  0002c	50		 push	 eax
  0002d	57		 push	 edi
  0002e	e8 00 00 00 00	 call	 ?deallocate@?$allocator@UResetItem@@@std@@QAEXPAUResetItem@@I@Z ; std::allocator<ResetItem>::deallocate
; File c:\program files (x86)\microsoft visual studio 14.0\vc\include\vector

; 1662 : 			this->_Myfirst() = pointer();

  00033	c7 06 00 00 00
	00		 mov	 DWORD PTR [esi], 0

; 1663 : 			this->_Mylast() = pointer();

  00039	c7 46 04 00 00
	00 00		 mov	 DWORD PTR [esi+4], 0

; 1664 : 			this->_Myend() = pointer();

  00040	c7 46 08 00 00
	00 00		 mov	 DWORD PTR [esi+8], 0
$LN14@destroy:
  00047	5f		 pop	 edi
  00048	5e		 pop	 esi
; File c:\program files (x86)\microsoft visual studio 14.0\vc\include\xmemory0

; 663  : 		}

  00049	5d		 pop	 ebp
  0004a	c2 04 00	 ret	 4
??$destroy@UResetGroup@@@?$allocator@UResetGroup@@@std@@QAEXPAUResetGroup@@@Z ENDP ; std::allocator<ResetGroup>::destroy<ResetGroup>
_TEXT	ENDS
; Function compile flags: /Ogtp
; File c:\program files (x86)\microsoft visual studio 14.0\vc\include\xutility
; File c:\program files (x86)\microsoft visual studio 14.0\vc\include\vector
; File c:\program files (x86)\microsoft visual studio 14.0\vc\include\xutility
; File c:\program files (x86)\microsoft visual studio 14.0\vc\include\vector
; File c:\program files (x86)\microsoft visual studio 14.0\vc\include\xutility
;	COMDAT ??$?0V?$allocator@UResetItem@@@std@@$$V@?$_Compressed_pair@U?$_Wrap_alloc@V?$allocator@UResetItem@@@std@@@std@@V?$_Vector_val@U?$_Simple_types@UResetItem@@@std@@@2@$00@std@@QAE@U_One_then_variadic_args_t@1@$$QAV?$allocator@UResetItem@@@1@@Z
_TEXT	SEGMENT
___formal$ = 8						; size = 1
__Val1$ = 12						; size = 4
??$?0V?$allocator@UResetItem@@@std@@$$V@?$_Compressed_pair@U?$_Wrap_alloc@V?$allocator@UResetItem@@@std@@@std@@V?$_Vector_val@U?$_Simple_types@UResetItem@@@std@@@2@$00@std@@QAE@U_One_then_variadic_args_t@1@$$QAV?$allocator@UResetItem@@@1@@Z PROC ; std::_Compressed_pair<std::_Wrap_alloc<std::allocator<ResetItem> >,std::_Vector_val<std::_Simple_types<ResetItem> >,1>::_Compressed_pair<std::_Wrap_alloc<std::allocator<ResetItem> >,std::_Vector_val<std::_Simple_types<ResetItem> >,1><std::allocator<ResetItem> >, COMDAT
; _this$ = ecx
; File c:\program files (x86)\microsoft visual studio 14.0\vc\include\vector

; 480  : 		_Myfirst = pointer();

  00000	c7 01 00 00 00
	00		 mov	 DWORD PTR [ecx], 0
; File c:\program files (x86)\microsoft visual studio 14.0\vc\include\xutility

; 289  : 		}

  00006	8b c1		 mov	 eax, ecx
; File c:\program files (x86)\microsoft visual studio 14.0\vc\include\vector

; 481  : 		_Mylast = pointer();

  00008	c7 41 04 00 00
	00 00		 mov	 DWORD PTR [ecx+4], 0

; 482  : 		_Myend = pointer();

  0000f	c7 41 08 00 00
	00 00		 mov	 DWORD PTR [ecx+8], 0
; File c:\program files (x86)\microsoft visual studio 14.0\vc\include\xutility

; 289  : 		}

  00016	c2 08 00	 ret	 8
??$?0V?$allocator@UResetItem@@@std@@$$V@?$_Compressed_pair@U?$_Wrap_alloc@V?$allocator@UResetItem@@@std@@@std@@V?$_Vector_val@U?$_Simple_types@UResetItem@@@std@@@2@$00@std@@QAE@U_One_then_variadic_args_t@1@$$QAV?$allocator@UResetItem@@@1@@Z ENDP ; std::_Compressed_pair<std::_Wrap_alloc<std::allocator<ResetItem> >,std::_Vector_val<std::_Simple_types<ResetItem> >,1>::_Compressed_pair<std::_Wrap_alloc<std::allocator<ResetItem> >,std::_Vector_val<std::_Simple_types<ResetItem> >,1><std::allocator<ResetItem> >
_TEXT	ENDS
; Function compile flags: /Ogtp
; File c:\program files (x86)\microsoft visual studio 14.0\vc\include\type_traits
;	COMDAT ??$move@AAV?$allocator@UResetItem@@@std@@@std@@YA$$QAV?$allocator@UResetItem@@@0@AAV10@@Z
_TEXT	SEGMENT
__Arg$ = 8						; size = 4
??$move@AAV?$allocator@UResetItem@@@std@@@std@@YA$$QAV?$allocator@UResetItem@@@0@AAV10@@Z PROC ; std::move<std::allocator<ResetItem> &>, COMDAT

; 1249 : 	{	// forward _Arg as movable

  00000	55		 push	 ebp
  00001	8b ec		 mov	 ebp, esp

; 1250 : 	return (static_cast<typename remove_reference<_Ty>::type&&>(_Arg));

  00003	8b 45 08	 mov	 eax, DWORD PTR __Arg$[ebp]

; 1251 : 	}

  00006	5d		 pop	 ebp
  00007	c3		 ret	 0
??$move@AAV?$allocator@UResetItem@@@std@@@std@@YA$$QAV?$allocator@UResetItem@@@0@AAV10@@Z ENDP ; std::move<std::allocator<ResetItem> &>
_TEXT	ENDS
; Function compile flags: /Ogtp
; File c:\program files (x86)\microsoft visual studio 14.0\vc\include\vector
; File c:\program files (x86)\microsoft visual studio 14.0\vc\include\xmemory
; File c:\program files (x86)\microsoft visual studio 14.0\vc\include\vector
;	COMDAT ??$_Ucopy@V?$_Vector_const_iterator@V?$_Vector_val@U?$_Simple_types@UResetItem@@@std@@@std@@@std@@@?$vector@UResetItem@@V?$allocator@UResetItem@@@std@@@std@@IAEPAUResetItem@@V?$_Vector_const_iterator@V?$_Vector_val@U?$_Simple_types@UResetItem@@@std@@@std@@@1@0PAU2@@Z
_TEXT	SEGMENT
__First$ = 8						; size = 4
__Last$ = 12						; size = 4
__Cat$1 = 16						; size = 1
__Ptr$ = 16						; size = 4
??$_Ucopy@V?$_Vector_const_iterator@V?$_Vector_val@U?$_Simple_types@UResetItem@@@std@@@std@@@std@@@?$vector@UResetItem@@V?$allocator@UResetItem@@@std@@@std@@IAEPAUResetItem@@V?$_Vector_const_iterator@V?$_Vector_val@U?$_Simple_types@UResetItem@@@std@@@std@@@1@0PAU2@@Z PROC ; std::vector<ResetItem,std::allocator<ResetItem> >::_Ucopy<std::_Vector_const_iterator<std::_Vector_val<std::_Simple_types<ResetItem> > > >, COMDAT
; _this$ = ecx

; 1670 : 		{	// copy initializing [_First, _Last), using allocator

  00000	55		 push	 ebp
  00001	8b ec		 mov	 ebp, esp
; File c:\program files (x86)\microsoft visual studio 14.0\vc\include\xmemory

; 415  : 	return (_Uninit_copy(_First, _Last, _Dest, _Al,

  00003	ff 75 10	 push	 DWORD PTR __Cat$1[ebp]
  00006	51		 push	 ecx
  00007	ff 75 10	 push	 DWORD PTR __Ptr$[ebp]
  0000a	ff 75 0c	 push	 DWORD PTR __Last$[ebp]
  0000d	ff 75 08	 push	 DWORD PTR __First$[ebp]
  00010	e8 00 00 00 00	 call	 ??$_Uninit_copy@PBUResetItem@@PAU1@V?$allocator@UResetItem@@@std@@@std@@YAPAUResetItem@@PBU1@0PAU1@AAU?$_Wrap_alloc@V?$allocator@UResetItem@@@std@@@0@U_Nonscalar_ptr_iterator_tag@0@@Z ; std::_Uninit_copy<ResetItem const *,ResetItem *,std::allocator<ResetItem> >
  00015	83 c4 14	 add	 esp, 20			; 00000014H
; File c:\program files (x86)\microsoft visual studio 14.0\vc\include\vector

; 1673 : 		}

  00018	5d		 pop	 ebp
  00019	c2 0c 00	 ret	 12			; 0000000cH
??$_Ucopy@V?$_Vector_const_iterator@V?$_Vector_val@U?$_Simple_types@UResetItem@@@std@@@std@@@std@@@?$vector@UResetItem@@V?$allocator@UResetItem@@@std@@@std@@IAEPAUResetItem@@V?$_Vector_const_iterator@V?$_Vector_val@U?$_Simple_types@UResetItem@@@std@@@std@@@1@0PAU2@@Z ENDP ; std::vector<ResetItem,std::allocator<ResetItem> >::_Ucopy<std::_Vector_const_iterator<std::_Vector_val<std::_Simple_types<ResetItem> > > >
_TEXT	ENDS
; Function compile flags: /Ogtp
; File c:\program files (x86)\microsoft visual studio 14.0\vc\include\vector
;	COMDAT ?_Unchecked@?$_Vector_const_iterator@V?$_Vector_val@U?$_Simple_types@UResetItem@@@std@@@std@@@std@@QBEPBUResetItem@@XZ
_TEXT	SEGMENT
?_Unchecked@?$_Vector_const_iterator@V?$_Vector_val@U?$_Simple_types@UResetItem@@@std@@@std@@@std@@QBEPBUResetItem@@XZ PROC ; std::_Vector_const_iterator<std::_Vector_val<std::_Simple_types<ResetItem> > >::_Unchecked, COMDAT
; _this$ = ecx

; 61   : 		return (_Unchecked_type(this->_Ptr));

  00000	8b 01		 mov	 eax, DWORD PTR [ecx]

; 62   : 		}

  00002	c3		 ret	 0
?_Unchecked@?$_Vector_const_iterator@V?$_Vector_val@U?$_Simple_types@UResetItem@@@std@@@std@@@std@@QBEPBUResetItem@@XZ ENDP ; std::_Vector_const_iterator<std::_Vector_val<std::_Simple_types<ResetItem> > >::_Unchecked
_TEXT	ENDS
; Function compile flags: /Ogtp
; File c:\program files (x86)\microsoft visual studio 14.0\vc\include\vector
;	COMDAT ??0?$_Vector_const_iterator@V?$_Vector_val@U?$_Simple_types@UResetItem@@@std@@@std@@@std@@QAE@PAUResetItem@@PBU_Container_base0@1@@Z
_TEXT	SEGMENT
__Parg$ = 8						; size = 4
__Pvector$ = 12						; size = 4
??0?$_Vector_const_iterator@V?$_Vector_val@U?$_Simple_types@UResetItem@@@std@@@std@@@std@@QAE@PAUResetItem@@PBU_Container_base0@1@@Z PROC ; std::_Vector_const_iterator<std::_Vector_val<std::_Simple_types<ResetItem> > >::_Vector_const_iterator<std::_Vector_val<std::_Simple_types<ResetItem> > >, COMDAT
; _this$ = ecx

; 47   : 		{	// construct with pointer _Parg

  00000	55		 push	 ebp
  00001	8b ec		 mov	 ebp, esp

; 46   : 		: _Ptr(_Parg)

  00003	8b 45 08	 mov	 eax, DWORD PTR __Parg$[ebp]
  00006	89 01		 mov	 DWORD PTR [ecx], eax

; 48   : 		this->_Adopt(_Pvector);
; 49   : 		}

  00008	8b c1		 mov	 eax, ecx
  0000a	5d		 pop	 ebp
  0000b	c2 08 00	 ret	 8
??0?$_Vector_const_iterator@V?$_Vector_val@U?$_Simple_types@UResetItem@@@std@@@std@@@std@@QAE@PAUResetItem@@PBU_Container_base0@1@@Z ENDP ; std::_Vector_const_iterator<std::_Vector_val<std::_Simple_types<ResetItem> > >::_Vector_const_iterator<std::_Vector_val<std::_Simple_types<ResetItem> > >
_TEXT	ENDS
; Function compile flags: /Ogtp
; File c:\program files (x86)\microsoft visual studio 14.0\vc\include\xmemory0
;	COMDAT ??$destroy@UResetItem@@@?$allocator_traits@V?$allocator@UResetItem@@@std@@@std@@SAXAAV?$allocator@UResetItem@@@1@PAUResetItem@@@Z
_TEXT	SEGMENT
__Al$ = 8						; size = 4
__Ptr$ = 12						; size = 4
??$destroy@UResetItem@@@?$allocator_traits@V?$allocator@UResetItem@@@std@@@std@@SAXAAV?$allocator@UResetItem@@@1@PAUResetItem@@@Z PROC ; std::allocator_traits<std::allocator<ResetItem> >::destroy<ResetItem>, COMDAT

; 780  : 		_Al.destroy(_Ptr);
; 781  : 		}

  00000	c3		 ret	 0
??$destroy@UResetItem@@@?$allocator_traits@V?$allocator@UResetItem@@@std@@@std@@SAXAAV?$allocator@UResetItem@@@1@PAUResetItem@@@Z ENDP ; std::allocator_traits<std::allocator<ResetItem> >::destroy<ResetItem>
_TEXT	ENDS
; Function compile flags: /Ogtp
; File c:\program files (x86)\microsoft visual studio 14.0\vc\include\xstddef
;	COMDAT ??$_Addressof@UResetItem@@@std@@YAPAUResetItem@@AAU1@U?$integral_constant@_N$0A@@0@@Z
_TEXT	SEGMENT
__Val$ = 8						; size = 4
___formal$ = 12						; size = 1
??$_Addressof@UResetItem@@@std@@YAPAUResetItem@@AAU1@U?$integral_constant@_N$0A@@0@@Z PROC ; std::_Addressof<ResetItem>, COMDAT

; 688  : 	{	// return address of object _Val

  00000	55		 push	 ebp
  00001	8b ec		 mov	 ebp, esp

; 689  : 	return (reinterpret_cast<_Ty *>(

  00003	8b 45 08	 mov	 eax, DWORD PTR __Val$[ebp]

; 690  : 		&const_cast<char&>(
; 691  : 		reinterpret_cast<const volatile char&>(_Val))));
; 692  : 	}

  00006	5d		 pop	 ebp
  00007	c3		 ret	 0
??$_Addressof@UResetItem@@@std@@YAPAUResetItem@@AAU1@U?$integral_constant@_N$0A@@0@@Z ENDP ; std::_Addressof<ResetItem>
_TEXT	ENDS
; Function compile flags: /Ogtp
; File c:\program files (x86)\microsoft visual studio 14.0\vc\include\xmemory
; File c:\program files (x86)\microsoft visual studio 14.0\vc\include\xmemory0
; File c:\program files (x86)\microsoft visual studio 14.0\vc\include\xmemory
;	COMDAT ??$_Uninit_move@PAUResetItem@@PAU1@V?$allocator@UResetItem@@@std@@U1@@std@@YAPAUResetItem@@PAU1@00AAU?$_Wrap_alloc@V?$allocator@UResetItem@@@std@@@0@0U_Nonscalar_ptr_iterator_tag@0@@Z
_TEXT	SEGMENT
__First$ = 8						; size = 4
__Last$ = 12						; size = 4
__Dest$ = 16						; size = 4
__Al$ = 20						; size = 4
___formal$ = 24						; size = 4
___formal$ = 28						; size = 1
??$_Uninit_move@PAUResetItem@@PAU1@V?$allocator@UResetItem@@@std@@U1@@std@@YAPAUResetItem@@PAU1@00AAU?$_Wrap_alloc@V?$allocator@UResetItem@@@std@@@0@0U_Nonscalar_ptr_iterator_tag@0@@Z PROC ; std::_Uninit_move<ResetItem *,ResetItem *,std::allocator<ResetItem>,ResetItem>, COMDAT

; 437  : 	{	// move [_First, _Last) to raw _Dest, using _Al, arbitrary type

  00000	55		 push	 ebp
  00001	8b ec		 mov	 ebp, esp

; 442  : 	for (; _First != _Last; ++_Dest, (void)++_First)

  00003	8b 4d 08	 mov	 ecx, DWORD PTR __First$[ebp]
  00006	8b 55 0c	 mov	 edx, DWORD PTR __Last$[ebp]
  00009	8b 45 10	 mov	 eax, DWORD PTR __Dest$[ebp]
  0000c	3b ca		 cmp	 ecx, edx
  0000e	74 1e		 je	 SHORT $LN3@Uninit_mov
$LL4@Uninit_mov:
; File c:\program files (x86)\microsoft visual studio 14.0\vc\include\xmemory0

; 655  : 		::new ((void *)_Ptr) _Objty(_STD forward<_Types>(_Args)...);

  00010	85 c0		 test	 eax, eax
  00012	74 10		 je	 SHORT $LN2@Uninit_mov
  00014	0f 10 01	 movups	 xmm0, XMMWORD PTR [ecx]
  00017	0f 11 00	 movups	 XMMWORD PTR [eax], xmm0
  0001a	f3 0f 7e 41 10	 movq	 xmm0, QWORD PTR [ecx+16]
  0001f	66 0f d6 40 10	 movq	 QWORD PTR [eax+16], xmm0
$LN2@Uninit_mov:
; File c:\program files (x86)\microsoft visual studio 14.0\vc\include\xmemory

; 442  : 	for (; _First != _Last; ++_Dest, (void)++_First)

  00024	83 c1 18	 add	 ecx, 24			; 00000018H
  00027	83 c0 18	 add	 eax, 24			; 00000018H
  0002a	3b ca		 cmp	 ecx, edx
  0002c	75 e2		 jne	 SHORT $LL4@Uninit_mov
$LN3@Uninit_mov:

; 443  : 		_Al.construct(_Dest, (_Valty&&)*_First);
; 444  : 	_CATCH_ALL
; 445  : 	for (; _Next != _Dest; ++_Next)
; 446  : 		_Al.destroy(_Next);
; 447  : 	_RERAISE;
; 448  : 	_CATCH_END
; 449  : 	return (_Dest);
; 450  : 	}

  0002e	5d		 pop	 ebp
  0002f	c3		 ret	 0
??$_Uninit_move@PAUResetItem@@PAU1@V?$allocator@UResetItem@@@std@@U1@@std@@YAPAUResetItem@@PAU1@00AAU?$_Wrap_alloc@V?$allocator@UResetItem@@@std@@@0@0U_Nonscalar_ptr_iterator_tag@0@@Z ENDP ; std::_Uninit_move<ResetItem *,ResetItem *,std::allocator<ResetItem>,ResetItem>
_TEXT	ENDS
; Function compile flags: /Ogtp
; File c:\program files (x86)\microsoft visual studio 14.0\vc\include\xutility
;	COMDAT ??$_Val_type@PAUResetItem@@@std@@YAPAUResetItem@@PAU1@@Z
_TEXT	SEGMENT
___formal$ = 8						; size = 4
??$_Val_type@PAUResetItem@@@std@@YAPAUResetItem@@PAU1@@Z PROC ; std::_Val_type<ResetItem *>, COMDAT

; 875  : 	return (0);

  00000	33 c0		 xor	 eax, eax

; 876  : 	}

  00002	c3		 ret	 0
??$_Val_type@PAUResetItem@@@std@@YAPAUResetItem@@PAU1@@Z ENDP ; std::_Val_type<ResetItem *>
_TEXT	ENDS
; Function compile flags: /Ogtp
; File c:\program files (x86)\microsoft visual studio 14.0\vc\include\xmemory
; File c:\program files (x86)\microsoft visual studio 14.0\vc\include\xmemory0
; File c:\program files (x86)\microsoft visual studio 14.0\vc\include\xmemory
;	COMDAT ??$_Uninit_move@PAUResetGroup@@PAU1@V?$allocator@UResetGroup@@@std@@U1@@std@@YAPAUResetGroup@@PAU1@00AAU?$_Wrap_alloc@V?$allocator@UResetGroup@@@std@@@0@0U_Nonscalar_ptr_iterator_tag@0@@Z
_TEXT	SEGMENT
__First$ = 8						; size = 4
__Last$ = 12						; size = 4
__Dest$ = 16						; size = 4
__Al$ = 20						; size = 4
___formal$ = 24						; size = 4
___formal$ = 28						; size = 1
??$_Uninit_move@PAUResetGroup@@PAU1@V?$allocator@UResetGroup@@@std@@U1@@std@@YAPAUResetGroup@@PAU1@00AAU?$_Wrap_alloc@V?$allocator@UResetGroup@@@std@@@0@0U_Nonscalar_ptr_iterator_tag@0@@Z PROC ; std::_Uninit_move<ResetGroup *,ResetGroup *,std::allocator<ResetGroup>,ResetGroup>, COMDAT

; 437  : 	{	// move [_First, _Last) to raw _Dest, using _Al, arbitrary type

  00000	55		 push	 ebp
  00001	8b ec		 mov	 ebp, esp
  00003	53		 push	 ebx

; 442  : 	for (; _First != _Last; ++_Dest, (void)++_First)

  00004	8b 5d 0c	 mov	 ebx, DWORD PTR __Last$[ebp]
  00007	56		 push	 esi
  00008	8b 75 08	 mov	 esi, DWORD PTR __First$[ebp]
  0000b	3b f3		 cmp	 esi, ebx
  0000d	74 27		 je	 SHORT $LN37@Uninit_mov
  0000f	57		 push	 edi
  00010	8b 7d 10	 mov	 edi, DWORD PTR __Dest$[ebp]
$LL4@Uninit_mov:
; File c:\program files (x86)\microsoft visual studio 14.0\vc\include\xmemory0

; 655  : 		::new ((void *)_Ptr) _Objty(_STD forward<_Types>(_Args)...);

  00013	85 ff		 test	 edi, edi
  00015	74 08		 je	 SHORT $LN2@Uninit_mov
  00017	56		 push	 esi
  00018	8b cf		 mov	 ecx, edi
  0001a	e8 00 00 00 00	 call	 ??0ResetGroup@@QAE@$$QAU0@@Z
$LN2@Uninit_mov:
; File c:\program files (x86)\microsoft visual studio 14.0\vc\include\xmemory

; 442  : 	for (; _First != _Last; ++_Dest, (void)++_First)

  0001f	81 c6 0c 01 00
	00		 add	 esi, 268		; 0000010cH
  00025	81 c7 0c 01 00
	00		 add	 edi, 268		; 0000010cH
  0002b	3b f3		 cmp	 esi, ebx
  0002d	75 e4		 jne	 SHORT $LL4@Uninit_mov

; 443  : 		_Al.construct(_Dest, (_Valty&&)*_First);
; 444  : 	_CATCH_ALL
; 445  : 	for (; _Next != _Dest; ++_Next)
; 446  : 		_Al.destroy(_Next);
; 447  : 	_RERAISE;
; 448  : 	_CATCH_END
; 449  : 	return (_Dest);

  0002f	8b c7		 mov	 eax, edi
  00031	5f		 pop	 edi
  00032	5e		 pop	 esi
  00033	5b		 pop	 ebx

; 450  : 	}

  00034	5d		 pop	 ebp
  00035	c3		 ret	 0
$LN37@Uninit_mov:

; 443  : 		_Al.construct(_Dest, (_Valty&&)*_First);
; 444  : 	_CATCH_ALL
; 445  : 	for (; _Next != _Dest; ++_Next)
; 446  : 		_Al.destroy(_Next);
; 447  : 	_RERAISE;
; 448  : 	_CATCH_END
; 449  : 	return (_Dest);

  00036	8b 45 10	 mov	 eax, DWORD PTR __Dest$[ebp]
  00039	5e		 pop	 esi
  0003a	5b		 pop	 ebx

; 450  : 	}

  0003b	5d		 pop	 ebp
  0003c	c3		 ret	 0
??$_Uninit_move@PAUResetGroup@@PAU1@V?$allocator@UResetGroup@@@std@@U1@@std@@YAPAUResetGroup@@PAU1@00AAU?$_Wrap_alloc@V?$allocator@UResetGroup@@@std@@@0@0U_Nonscalar_ptr_iterator_tag@0@@Z ENDP ; std::_Uninit_move<ResetGroup *,ResetGroup *,std::allocator<ResetGroup>,ResetGroup>
_TEXT	ENDS
; Function compile flags: /Ogtp
; File c:\program files (x86)\microsoft visual studio 14.0\vc\include\xutility
;	COMDAT ??$_Val_type@PAUResetGroup@@@std@@YAPAUResetGroup@@PAU1@@Z
_TEXT	SEGMENT
___formal$ = 8						; size = 4
??$_Val_type@PAUResetGroup@@@std@@YAPAUResetGroup@@PAU1@@Z PROC ; std::_Val_type<ResetGroup *>, COMDAT

; 875  : 	return (0);

  00000	33 c0		 xor	 eax, eax

; 876  : 	}

  00002	c3		 ret	 0
??$_Val_type@PAUResetGroup@@@std@@YAPAUResetGroup@@PAU1@@Z ENDP ; std::_Val_type<ResetGroup *>
_TEXT	ENDS
; Function compile flags: /Ogtp
; File c:\program files (x86)\microsoft visual studio 14.0\vc\include\xmemory0
; File c:\program files (x86)\microsoft visual studio 14.0\vc\include\vector
; File c:\program files (x86)\microsoft visual studio 14.0\vc\include\xmemory0
; File c:\program files (x86)\microsoft visual studio 14.0\vc\include\vector
; File c:\program files (x86)\microsoft visual studio 14.0\vc\include\xmemory0
; File c:\program files (x86)\microsoft visual studio 14.0\vc\include\vector
; File c:\program files (x86)\microsoft visual studio 14.0\vc\include\xmemory0
;	COMDAT ??$destroy@UResetGroup@@@?$allocator_traits@V?$allocator@UResetGroup@@@std@@@std@@SAXAAV?$allocator@UResetGroup@@@1@PAUResetGroup@@@Z
_TEXT	SEGMENT
__Al$ = 8						; size = 4
__Ptr$ = 12						; size = 4
??$destroy@UResetGroup@@@?$allocator_traits@V?$allocator@UResetGroup@@@std@@@std@@SAXAAV?$allocator@UResetGroup@@@1@PAUResetGroup@@@Z PROC ; std::allocator_traits<std::allocator<ResetGroup> >::destroy<ResetGroup>, COMDAT

; 779  : 		{	// destroy object at _Ptr

  00000	55		 push	 ebp
  00001	8b ec		 mov	 ebp, esp
  00003	56		 push	 esi
  00004	8b 75 0c	 mov	 esi, DWORD PTR __Ptr$[ebp]
  00007	81 c6 f0 00 00
	00		 add	 esi, 240		; 000000f0H
  0000d	57		 push	 edi
; File c:\program files (x86)\microsoft visual studio 14.0\vc\include\vector

; 1656 : 		if (this->_Myfirst() != pointer())

  0000e	8b 3e		 mov	 edi, DWORD PTR [esi]
  00010	85 ff		 test	 edi, edi
  00012	74 33		 je	 SHORT $LN16@destroy

; 1660 : 			this->_Getal().deallocate(this->_Myfirst(),

  00014	8b 4e 08	 mov	 ecx, DWORD PTR [esi+8]
  00017	b8 ab aa aa 2a	 mov	 eax, 715827883		; 2aaaaaabH
  0001c	2b cf		 sub	 ecx, edi
  0001e	f7 e9		 imul	 ecx
; File c:\program files (x86)\microsoft visual studio 14.0\vc\include\xmemory0

; 909  : 		_Mybase::deallocate(_Ptr, _Count);

  00020	8b ce		 mov	 ecx, esi
; File c:\program files (x86)\microsoft visual studio 14.0\vc\include\vector

; 1660 : 			this->_Getal().deallocate(this->_Myfirst(),

  00022	c1 fa 02	 sar	 edx, 2
  00025	8b c2		 mov	 eax, edx
  00027	c1 e8 1f	 shr	 eax, 31			; 0000001fH
  0002a	03 c2		 add	 eax, edx
; File c:\program files (x86)\microsoft visual studio 14.0\vc\include\xmemory0

; 909  : 		_Mybase::deallocate(_Ptr, _Count);

  0002c	50		 push	 eax
  0002d	57		 push	 edi
  0002e	e8 00 00 00 00	 call	 ?deallocate@?$allocator@UResetItem@@@std@@QAEXPAUResetItem@@I@Z ; std::allocator<ResetItem>::deallocate
; File c:\program files (x86)\microsoft visual studio 14.0\vc\include\vector

; 1662 : 			this->_Myfirst() = pointer();

  00033	c7 06 00 00 00
	00		 mov	 DWORD PTR [esi], 0

; 1663 : 			this->_Mylast() = pointer();

  00039	c7 46 04 00 00
	00 00		 mov	 DWORD PTR [esi+4], 0

; 1664 : 			this->_Myend() = pointer();

  00040	c7 46 08 00 00
	00 00		 mov	 DWORD PTR [esi+8], 0
$LN16@destroy:
  00047	5f		 pop	 edi
  00048	5e		 pop	 esi
; File c:\program files (x86)\microsoft visual studio 14.0\vc\include\xmemory0

; 781  : 		}

  00049	5d		 pop	 ebp
  0004a	c3		 ret	 0
??$destroy@UResetGroup@@@?$allocator_traits@V?$allocator@UResetGroup@@@std@@@std@@SAXAAV?$allocator@UResetGroup@@@1@PAUResetGroup@@@Z ENDP ; std::allocator_traits<std::allocator<ResetGroup> >::destroy<ResetGroup>
_TEXT	ENDS
; Function compile flags: /Ogtp
; File c:\program files (x86)\microsoft visual studio 14.0\vc\include\xstddef
;	COMDAT ??$_Addressof@UResetGroup@@@std@@YAPAUResetGroup@@AAU1@U?$integral_constant@_N$0A@@0@@Z
_TEXT	SEGMENT
__Val$ = 8						; size = 4
___formal$ = 12						; size = 1
??$_Addressof@UResetGroup@@@std@@YAPAUResetGroup@@AAU1@U?$integral_constant@_N$0A@@0@@Z PROC ; std::_Addressof<ResetGroup>, COMDAT

; 688  : 	{	// return address of object _Val

  00000	55		 push	 ebp
  00001	8b ec		 mov	 ebp, esp

; 689  : 	return (reinterpret_cast<_Ty *>(

  00003	8b 45 08	 mov	 eax, DWORD PTR __Val$[ebp]

; 690  : 		&const_cast<char&>(
; 691  : 		reinterpret_cast<const volatile char&>(_Val))));
; 692  : 	}

  00006	5d		 pop	 ebp
  00007	c3		 ret	 0
??$_Addressof@UResetGroup@@@std@@YAPAUResetGroup@@AAU1@U?$integral_constant@_N$0A@@0@@Z ENDP ; std::_Addressof<ResetGroup>
_TEXT	ENDS
; Function compile flags: /Ogtp
; File c:\program files (x86)\microsoft visual studio 14.0\vc\include\xmemory0
;	COMDAT ??$destroy@UResetItem@@@?$_Wrap_alloc@V?$allocator@UResetItem@@@std@@@std@@QAEXPAUResetItem@@@Z
_TEXT	SEGMENT
__Ptr$ = 8						; size = 4
??$destroy@UResetItem@@@?$_Wrap_alloc@V?$allocator@UResetItem@@@std@@@std@@QAEXPAUResetItem@@@Z PROC ; std::_Wrap_alloc<std::allocator<ResetItem> >::destroy<ResetItem>, COMDAT
; _this$ = ecx

; 925  : 		_Mytraits::destroy(*this, _Ptr);
; 926  : 		}

  00000	c2 04 00	 ret	 4
??$destroy@UResetItem@@@?$_Wrap_alloc@V?$allocator@UResetItem@@@std@@@std@@QAEXPAUResetItem@@@Z ENDP ; std::_Wrap_alloc<std::allocator<ResetItem> >::destroy<ResetItem>
_TEXT	ENDS
; Function compile flags: /Ogtp
; File c:\program files (x86)\microsoft visual studio 14.0\vc\include\xstddef
;	COMDAT ??$addressof@UResetItem@@@std@@YAPAUResetItem@@AAU1@@Z
_TEXT	SEGMENT
__Val$ = 8						; size = 4
??$addressof@UResetItem@@@std@@YAPAUResetItem@@AAU1@@Z PROC ; std::addressof<ResetItem>, COMDAT

; 696  : 	{	// return address of _Val

  00000	55		 push	 ebp
  00001	8b ec		 mov	 ebp, esp

; 697  : 	return (_Addressof(_Val, is_function<_Ty>()));

  00003	8b 45 08	 mov	 eax, DWORD PTR __Val$[ebp]

; 698  : 	}

  00006	5d		 pop	 ebp
  00007	c3		 ret	 0
??$addressof@UResetItem@@@std@@YAPAUResetItem@@AAU1@@Z ENDP ; std::addressof<ResetItem>
_TEXT	ENDS
; Function compile flags: /Ogtp
; File c:\program files (x86)\microsoft visual studio 14.0\vc\include\xutility
;	COMDAT ??$_Rechecked@PAUResetItem@@PAU1@@std@@YAAAPAUResetItem@@AAPAU1@PAU1@@Z
_TEXT	SEGMENT
__Dest$ = 8						; size = 4
__Src$ = 12						; size = 4
??$_Rechecked@PAUResetItem@@PAU1@@std@@YAAAPAUResetItem@@AAPAU1@PAU1@@Z PROC ; std::_Rechecked<ResetItem *,ResetItem *>, COMDAT

; 446  : 	{	// reset checked from unchecked, generic

  00000	55		 push	 ebp
  00001	8b ec		 mov	 ebp, esp

; 447  : 	_Dest = _Src;

  00003	8b 45 08	 mov	 eax, DWORD PTR __Dest$[ebp]
  00006	8b 4d 0c	 mov	 ecx, DWORD PTR __Src$[ebp]
  00009	89 08		 mov	 DWORD PTR [eax], ecx

; 448  : 	return (_Dest);
; 449  : 	}

  0000b	5d		 pop	 ebp
  0000c	c3		 ret	 0
??$_Rechecked@PAUResetItem@@PAU1@@std@@YAAAPAUResetItem@@AAPAU1@PAU1@@Z ENDP ; std::_Rechecked<ResetItem *,ResetItem *>
_TEXT	ENDS
; Function compile flags: /Ogtp
; File c:\program files (x86)\microsoft visual studio 14.0\vc\include\xmemory
;	COMDAT ??$_Uninit_move@PAUResetItem@@PAU1@U?$_Wrap_alloc@V?$allocator@UResetItem@@@std@@@std@@@std@@YAPAUResetItem@@PAU1@00AAU?$_Wrap_alloc@V?$allocator@UResetItem@@@std@@@0@@Z
_TEXT	SEGMENT
__Cat$1 = -4						; size = 1
__First$ = 8						; size = 4
__Last$ = 12						; size = 4
__Dest$ = 16						; size = 4
__Al$ = 20						; size = 4
??$_Uninit_move@PAUResetItem@@PAU1@U?$_Wrap_alloc@V?$allocator@UResetItem@@@std@@@std@@@std@@YAPAUResetItem@@PAU1@00AAU?$_Wrap_alloc@V?$allocator@UResetItem@@@std@@@0@@Z PROC ; std::_Uninit_move<ResetItem *,ResetItem *,std::_Wrap_alloc<std::allocator<ResetItem> > >, COMDAT

; 480  : 	{	// move [_First, _Last) to raw _Dest, using _Al

  00000	55		 push	 ebp
  00001	8b ec		 mov	 ebp, esp
  00003	51		 push	 ecx

; 481  : 	return (_Uninit_move(_First, _Last, _Dest, _Al,

  00004	ff 75 fc	 push	 DWORD PTR __Cat$1[ebp]
  00007	6a 00		 push	 0
  00009	ff 75 14	 push	 DWORD PTR __Al$[ebp]
  0000c	ff 75 10	 push	 DWORD PTR __Dest$[ebp]
  0000f	ff 75 0c	 push	 DWORD PTR __Last$[ebp]
  00012	ff 75 08	 push	 DWORD PTR __First$[ebp]
  00015	e8 00 00 00 00	 call	 ??$_Uninit_move@PAUResetItem@@PAU1@V?$allocator@UResetItem@@@std@@U1@@std@@YAPAUResetItem@@PAU1@00AAU?$_Wrap_alloc@V?$allocator@UResetItem@@@std@@@0@0U_Nonscalar_ptr_iterator_tag@0@@Z ; std::_Uninit_move<ResetItem *,ResetItem *,std::allocator<ResetItem>,ResetItem>
  0001a	83 c4 18	 add	 esp, 24			; 00000018H

; 482  : 		_Val_type(_First), _Ptr_cat(_First, _Dest)));
; 483  : 	}

  0001d	8b e5		 mov	 esp, ebp
  0001f	5d		 pop	 ebp
  00020	c3		 ret	 0
??$_Uninit_move@PAUResetItem@@PAU1@U?$_Wrap_alloc@V?$allocator@UResetItem@@@std@@@std@@@std@@YAPAUResetItem@@PAU1@00AAU?$_Wrap_alloc@V?$allocator@UResetItem@@@std@@@0@@Z ENDP ; std::_Uninit_move<ResetItem *,ResetItem *,std::_Wrap_alloc<std::allocator<ResetItem> > >
_TEXT	ENDS
; Function compile flags: /Ogtp
; File c:\program files (x86)\microsoft visual studio 14.0\vc\include\xutility
;	COMDAT ??$_Unchecked@PAUResetItem@@@std@@YAPAUResetItem@@PAU1@@Z
_TEXT	SEGMENT
__Src$ = 8						; size = 4
??$_Unchecked@PAUResetItem@@@std@@YAPAUResetItem@@PAU1@@Z PROC ; std::_Unchecked<ResetItem *>, COMDAT

; 438  : 	{	// construct unchecked from checked, generic

  00000	55		 push	 ebp
  00001	8b ec		 mov	 ebp, esp

; 439  : 	return (_Src);

  00003	8b 45 08	 mov	 eax, DWORD PTR __Src$[ebp]

; 440  : 	}

  00006	5d		 pop	 ebp
  00007	c3		 ret	 0
??$_Unchecked@PAUResetItem@@@std@@YAPAUResetItem@@PAU1@@Z ENDP ; std::_Unchecked<ResetItem *>
_TEXT	ENDS
; Function compile flags: /Ogtp
; File c:\program files (x86)\microsoft visual studio 14.0\vc\include\xutility
;	COMDAT ??$_Rechecked@PAUResetGroup@@PAU1@@std@@YAAAPAUResetGroup@@AAPAU1@PAU1@@Z
_TEXT	SEGMENT
__Dest$ = 8						; size = 4
__Src$ = 12						; size = 4
??$_Rechecked@PAUResetGroup@@PAU1@@std@@YAAAPAUResetGroup@@AAPAU1@PAU1@@Z PROC ; std::_Rechecked<ResetGroup *,ResetGroup *>, COMDAT

; 446  : 	{	// reset checked from unchecked, generic

  00000	55		 push	 ebp
  00001	8b ec		 mov	 ebp, esp

; 447  : 	_Dest = _Src;

  00003	8b 45 08	 mov	 eax, DWORD PTR __Dest$[ebp]
  00006	8b 4d 0c	 mov	 ecx, DWORD PTR __Src$[ebp]
  00009	89 08		 mov	 DWORD PTR [eax], ecx

; 448  : 	return (_Dest);
; 449  : 	}

  0000b	5d		 pop	 ebp
  0000c	c3		 ret	 0
??$_Rechecked@PAUResetGroup@@PAU1@@std@@YAAAPAUResetGroup@@AAPAU1@PAU1@@Z ENDP ; std::_Rechecked<ResetGroup *,ResetGroup *>
_TEXT	ENDS
; Function compile flags: /Ogtp
; File c:\program files (x86)\microsoft visual studio 14.0\vc\include\xmemory
;	COMDAT ??$_Uninit_move@PAUResetGroup@@PAU1@U?$_Wrap_alloc@V?$allocator@UResetGroup@@@std@@@std@@@std@@YAPAUResetGroup@@PAU1@00AAU?$_Wrap_alloc@V?$allocator@UResetGroup@@@std@@@0@@Z
_TEXT	SEGMENT
__Cat$1 = -4						; size = 1
__First$ = 8						; size = 4
__Last$ = 12						; size = 4
__Dest$ = 16						; size = 4
__Al$ = 20						; size = 4
??$_Uninit_move@PAUResetGroup@@PAU1@U?$_Wrap_alloc@V?$allocator@UResetGroup@@@std@@@std@@@std@@YAPAUResetGroup@@PAU1@00AAU?$_Wrap_alloc@V?$allocator@UResetGroup@@@std@@@0@@Z PROC ; std::_Uninit_move<ResetGroup *,ResetGroup *,std::_Wrap_alloc<std::allocator<ResetGroup> > >, COMDAT

; 480  : 	{	// move [_First, _Last) to raw _Dest, using _Al

  00000	55		 push	 ebp
  00001	8b ec		 mov	 ebp, esp
  00003	51		 push	 ecx

; 481  : 	return (_Uninit_move(_First, _Last, _Dest, _Al,

  00004	ff 75 fc	 push	 DWORD PTR __Cat$1[ebp]
  00007	6a 00		 push	 0
  00009	ff 75 14	 push	 DWORD PTR __Al$[ebp]
  0000c	ff 75 10	 push	 DWORD PTR __Dest$[ebp]
  0000f	ff 75 0c	 push	 DWORD PTR __Last$[ebp]
  00012	ff 75 08	 push	 DWORD PTR __First$[ebp]
  00015	e8 00 00 00 00	 call	 ??$_Uninit_move@PAUResetGroup@@PAU1@V?$allocator@UResetGroup@@@std@@U1@@std@@YAPAUResetGroup@@PAU1@00AAU?$_Wrap_alloc@V?$allocator@UResetGroup@@@std@@@0@0U_Nonscalar_ptr_iterator_tag@0@@Z ; std::_Uninit_move<ResetGroup *,ResetGroup *,std::allocator<ResetGroup>,ResetGroup>
  0001a	83 c4 18	 add	 esp, 24			; 00000018H

; 482  : 		_Val_type(_First), _Ptr_cat(_First, _Dest)));
; 483  : 	}

  0001d	8b e5		 mov	 esp, ebp
  0001f	5d		 pop	 ebp
  00020	c3		 ret	 0
??$_Uninit_move@PAUResetGroup@@PAU1@U?$_Wrap_alloc@V?$allocator@UResetGroup@@@std@@@std@@@std@@YAPAUResetGroup@@PAU1@00AAU?$_Wrap_alloc@V?$allocator@UResetGroup@@@std@@@0@@Z ENDP ; std::_Uninit_move<ResetGroup *,ResetGroup *,std::_Wrap_alloc<std::allocator<ResetGroup> > >
_TEXT	ENDS
; Function compile flags: /Ogtp
; File c:\program files (x86)\microsoft visual studio 14.0\vc\include\xutility
;	COMDAT ??$_Unchecked@PAUResetGroup@@@std@@YAPAUResetGroup@@PAU1@@Z
_TEXT	SEGMENT
__Src$ = 8						; size = 4
??$_Unchecked@PAUResetGroup@@@std@@YAPAUResetGroup@@PAU1@@Z PROC ; std::_Unchecked<ResetGroup *>, COMDAT

; 438  : 	{	// construct unchecked from checked, generic

  00000	55		 push	 ebp
  00001	8b ec		 mov	 ebp, esp

; 439  : 	return (_Src);

  00003	8b 45 08	 mov	 eax, DWORD PTR __Src$[ebp]

; 440  : 	}

  00006	5d		 pop	 ebp
  00007	c3		 ret	 0
??$_Unchecked@PAUResetGroup@@@std@@YAPAUResetGroup@@PAU1@@Z ENDP ; std::_Unchecked<ResetGroup *>
_TEXT	ENDS
; Function compile flags: /Ogtp
; File c:\program files (x86)\microsoft visual studio 14.0\vc\include\xmemory0
; File c:\program files (x86)\microsoft visual studio 14.0\vc\include\vector
; File c:\program files (x86)\microsoft visual studio 14.0\vc\include\xmemory0
; File c:\program files (x86)\microsoft visual studio 14.0\vc\include\vector
; File c:\program files (x86)\microsoft visual studio 14.0\vc\include\xmemory0
; File c:\program files (x86)\microsoft visual studio 14.0\vc\include\vector
; File c:\program files (x86)\microsoft visual studio 14.0\vc\include\xmemory0
;	COMDAT ??$destroy@UResetGroup@@@?$_Wrap_alloc@V?$allocator@UResetGroup@@@std@@@std@@QAEXPAUResetGroup@@@Z
_TEXT	SEGMENT
__Ptr$ = 8						; size = 4
??$destroy@UResetGroup@@@?$_Wrap_alloc@V?$allocator@UResetGroup@@@std@@@std@@QAEXPAUResetGroup@@@Z PROC ; std::_Wrap_alloc<std::allocator<ResetGroup> >::destroy<ResetGroup>, COMDAT
; _this$ = ecx

; 924  : 		{	// destroy object at _Ptr

  00000	55		 push	 ebp
  00001	8b ec		 mov	 ebp, esp
  00003	56		 push	 esi
  00004	8b 75 08	 mov	 esi, DWORD PTR __Ptr$[ebp]
  00007	81 c6 f0 00 00
	00		 add	 esi, 240		; 000000f0H
  0000d	57		 push	 edi
; File c:\program files (x86)\microsoft visual studio 14.0\vc\include\vector

; 1656 : 		if (this->_Myfirst() != pointer())

  0000e	8b 3e		 mov	 edi, DWORD PTR [esi]
  00010	85 ff		 test	 edi, edi
  00012	74 33		 je	 SHORT $LN18@destroy

; 1660 : 			this->_Getal().deallocate(this->_Myfirst(),

  00014	8b 4e 08	 mov	 ecx, DWORD PTR [esi+8]
  00017	b8 ab aa aa 2a	 mov	 eax, 715827883		; 2aaaaaabH
  0001c	2b cf		 sub	 ecx, edi
  0001e	f7 e9		 imul	 ecx
; File c:\program files (x86)\microsoft visual studio 14.0\vc\include\xmemory0

; 909  : 		_Mybase::deallocate(_Ptr, _Count);

  00020	8b ce		 mov	 ecx, esi
; File c:\program files (x86)\microsoft visual studio 14.0\vc\include\vector

; 1660 : 			this->_Getal().deallocate(this->_Myfirst(),

  00022	c1 fa 02	 sar	 edx, 2
  00025	8b c2		 mov	 eax, edx
  00027	c1 e8 1f	 shr	 eax, 31			; 0000001fH
  0002a	03 c2		 add	 eax, edx
; File c:\program files (x86)\microsoft visual studio 14.0\vc\include\xmemory0

; 909  : 		_Mybase::deallocate(_Ptr, _Count);

  0002c	50		 push	 eax
  0002d	57		 push	 edi
  0002e	e8 00 00 00 00	 call	 ?deallocate@?$allocator@UResetItem@@@std@@QAEXPAUResetItem@@I@Z ; std::allocator<ResetItem>::deallocate
; File c:\program files (x86)\microsoft visual studio 14.0\vc\include\vector

; 1662 : 			this->_Myfirst() = pointer();

  00033	c7 06 00 00 00
	00		 mov	 DWORD PTR [esi], 0

; 1663 : 			this->_Mylast() = pointer();

  00039	c7 46 04 00 00
	00 00		 mov	 DWORD PTR [esi+4], 0

; 1664 : 			this->_Myend() = pointer();

  00040	c7 46 08 00 00
	00 00		 mov	 DWORD PTR [esi+8], 0
$LN18@destroy:
  00047	5f		 pop	 edi
  00048	5e		 pop	 esi
; File c:\program files (x86)\microsoft visual studio 14.0\vc\include\xmemory0

; 926  : 		}

  00049	5d		 pop	 ebp
  0004a	c2 04 00	 ret	 4
??$destroy@UResetGroup@@@?$_Wrap_alloc@V?$allocator@UResetGroup@@@std@@@std@@QAEXPAUResetGroup@@@Z ENDP ; std::_Wrap_alloc<std::allocator<ResetGroup> >::destroy<ResetGroup>
_TEXT	ENDS
; Function compile flags: /Ogtp
; File c:\program files (x86)\microsoft visual studio 14.0\vc\include\xstddef
;	COMDAT ??$addressof@UResetGroup@@@std@@YAPAUResetGroup@@AAU1@@Z
_TEXT	SEGMENT
__Val$ = 8						; size = 4
??$addressof@UResetGroup@@@std@@YAPAUResetGroup@@AAU1@@Z PROC ; std::addressof<ResetGroup>, COMDAT

; 696  : 	{	// return address of _Val

  00000	55		 push	 ebp
  00001	8b ec		 mov	 ebp, esp

; 697  : 	return (_Addressof(_Val, is_function<_Ty>()));

  00003	8b 45 08	 mov	 eax, DWORD PTR __Val$[ebp]

; 698  : 	}

  00006	5d		 pop	 ebp
  00007	c3		 ret	 0
??$addressof@UResetGroup@@@std@@YAPAUResetGroup@@AAU1@@Z ENDP ; std::addressof<ResetGroup>
_TEXT	ENDS
; Function compile flags: /Ogtp
; File c:\program files (x86)\microsoft visual studio 14.0\vc\include\xmemory0
;	COMDAT ??$construct@UResetItem@@ABU1@@?$allocator@UResetItem@@@std@@QAEXPAUResetItem@@ABU2@@Z
_TEXT	SEGMENT
__Ptr$ = 8						; size = 4
_<_Args_0>$ = 12					; size = 4
??$construct@UResetItem@@ABU1@@?$allocator@UResetItem@@@std@@QAEXPAUResetItem@@ABU2@@Z PROC ; std::allocator<ResetItem>::construct<ResetItem,ResetItem const &>, COMDAT
; _this$ = ecx

; 654  : 		{	// construct _Objty(_Types...) at _Ptr

  00000	55		 push	 ebp
  00001	8b ec		 mov	 ebp, esp

; 655  : 		::new ((void *)_Ptr) _Objty(_STD forward<_Types>(_Args)...);

  00003	8b 4d 08	 mov	 ecx, DWORD PTR __Ptr$[ebp]
  00006	85 c9		 test	 ecx, ecx
  00008	74 13		 je	 SHORT $LN3@construct
  0000a	8b 45 0c	 mov	 eax, DWORD PTR _<_Args_0>$[ebp]
  0000d	0f 10 00	 movups	 xmm0, XMMWORD PTR [eax]
  00010	0f 11 01	 movups	 XMMWORD PTR [ecx], xmm0
  00013	f3 0f 7e 40 10	 movq	 xmm0, QWORD PTR [eax+16]
  00018	66 0f d6 41 10	 movq	 QWORD PTR [ecx+16], xmm0
$LN3@construct:

; 656  : 		}

  0001d	5d		 pop	 ebp
  0001e	c2 08 00	 ret	 8
??$construct@UResetItem@@ABU1@@?$allocator@UResetItem@@@std@@QAEXPAUResetItem@@ABU2@@Z ENDP ; std::allocator<ResetItem>::construct<ResetItem,ResetItem const &>
_TEXT	ENDS
; Function compile flags: /Ogtp
; File c:\program files (x86)\microsoft visual studio 14.0\vc\include\xmemory0
;	COMDAT ??$construct@UResetItem@@AAU1@@?$allocator@UResetItem@@@std@@QAEXPAUResetItem@@AAU2@@Z
_TEXT	SEGMENT
__Ptr$ = 8						; size = 4
_<_Args_0>$ = 12					; size = 4
??$construct@UResetItem@@AAU1@@?$allocator@UResetItem@@@std@@QAEXPAUResetItem@@AAU2@@Z PROC ; std::allocator<ResetItem>::construct<ResetItem,ResetItem &>, COMDAT
; _this$ = ecx

; 654  : 		{	// construct _Objty(_Types...) at _Ptr

  00000	55		 push	 ebp
  00001	8b ec		 mov	 ebp, esp

; 655  : 		::new ((void *)_Ptr) _Objty(_STD forward<_Types>(_Args)...);

  00003	8b 4d 08	 mov	 ecx, DWORD PTR __Ptr$[ebp]
  00006	85 c9		 test	 ecx, ecx
  00008	74 13		 je	 SHORT $LN3@construct
  0000a	8b 45 0c	 mov	 eax, DWORD PTR _<_Args_0>$[ebp]
  0000d	0f 10 00	 movups	 xmm0, XMMWORD PTR [eax]
  00010	0f 11 01	 movups	 XMMWORD PTR [ecx], xmm0
  00013	f3 0f 7e 40 10	 movq	 xmm0, QWORD PTR [eax+16]
  00018	66 0f d6 41 10	 movq	 QWORD PTR [ecx+16], xmm0
$LN3@construct:

; 656  : 		}

  0001d	5d		 pop	 ebp
  0001e	c2 08 00	 ret	 8
??$construct@UResetItem@@AAU1@@?$allocator@UResetItem@@@std@@QAEXPAUResetItem@@AAU2@@Z ENDP ; std::allocator<ResetItem>::construct<ResetItem,ResetItem &>
_TEXT	ENDS
; Function compile flags: /Ogtp
; File c:\program files (x86)\microsoft visual studio 14.0\vc\include\xmemory0
;	COMDAT ??$construct@UResetGroup@@ABU1@@?$allocator@UResetGroup@@@std@@QAEXPAUResetGroup@@ABU2@@Z
_TEXT	SEGMENT
$T2 = -16						; size = 4
__$EHRec$ = -12						; size = 12
__Ptr$ = 8						; size = 4
_<_Args_0>$ = 12					; size = 4
??$construct@UResetGroup@@ABU1@@?$allocator@UResetGroup@@@std@@QAEXPAUResetGroup@@ABU2@@Z PROC ; std::allocator<ResetGroup>::construct<ResetGroup,ResetGroup const &>, COMDAT
; _this$ = ecx

; 654  : 		{	// construct _Objty(_Types...) at _Ptr

  00000	55		 push	 ebp
  00001	8b ec		 mov	 ebp, esp
  00003	6a ff		 push	 -1
  00005	68 00 00 00 00	 push	 __ehhandler$??$construct@UResetGroup@@ABU1@@?$allocator@UResetGroup@@@std@@QAEXPAUResetGroup@@ABU2@@Z
  0000a	64 a1 00 00 00
	00		 mov	 eax, DWORD PTR fs:0
  00010	50		 push	 eax
  00011	51		 push	 ecx
  00012	a1 00 00 00 00	 mov	 eax, DWORD PTR ___security_cookie
  00017	33 c5		 xor	 eax, ebp
  00019	50		 push	 eax
  0001a	8d 45 f4	 lea	 eax, DWORD PTR __$EHRec$[ebp]
  0001d	64 a3 00 00 00
	00		 mov	 DWORD PTR fs:0, eax

; 655  : 		::new ((void *)_Ptr) _Objty(_STD forward<_Types>(_Args)...);

  00023	8b 4d 08	 mov	 ecx, DWORD PTR __Ptr$[ebp]
  00026	89 4d f0	 mov	 DWORD PTR $T2[ebp], ecx
  00029	c7 45 fc 00 00
	00 00		 mov	 DWORD PTR __$EHRec$[ebp+8], 0
  00030	85 c9		 test	 ecx, ecx
  00032	74 08		 je	 SHORT $LN3@construct
  00034	ff 75 0c	 push	 DWORD PTR _<_Args_0>$[ebp]
  00037	e8 00 00 00 00	 call	 ??0ResetGroup@@QAE@ABU0@@Z
$LN3@construct:

; 656  : 		}

  0003c	8b 4d f4	 mov	 ecx, DWORD PTR __$EHRec$[ebp]
  0003f	64 89 0d 00 00
	00 00		 mov	 DWORD PTR fs:0, ecx
  00046	59		 pop	 ecx
  00047	8b e5		 mov	 esp, ebp
  00049	5d		 pop	 ebp
  0004a	c2 08 00	 ret	 8
_TEXT	ENDS
;	COMDAT text$x
text$x	SEGMENT
__unwindfunclet$??$construct@UResetGroup@@ABU1@@?$allocator@UResetGroup@@@std@@QAEXPAUResetGroup@@ABU2@@Z$0:
  00000	8b 45 08	 mov	 eax, DWORD PTR __Ptr$[ebp]
  00003	50		 push	 eax
  00004	8b 45 f0	 mov	 eax, DWORD PTR $T2[ebp]
  00007	50		 push	 eax
  00008	e8 00 00 00 00	 call	 ??3@YAXPAX0@Z		; operator delete
  0000d	83 c4 08	 add	 esp, 8
  00010	c3		 ret	 0
__ehhandler$??$construct@UResetGroup@@ABU1@@?$allocator@UResetGroup@@@std@@QAEXPAUResetGroup@@ABU2@@Z:
  00011	8b 54 24 08	 mov	 edx, DWORD PTR [esp+8]
  00015	8d 42 0c	 lea	 eax, DWORD PTR [edx+12]
  00018	8b 4a f8	 mov	 ecx, DWORD PTR [edx-8]
  0001b	33 c8		 xor	 ecx, eax
  0001d	e8 00 00 00 00	 call	 @__security_check_cookie@4
  00022	b8 00 00 00 00	 mov	 eax, OFFSET __ehfuncinfo$??$construct@UResetGroup@@ABU1@@?$allocator@UResetGroup@@@std@@QAEXPAUResetGroup@@ABU2@@Z
  00027	e9 00 00 00 00	 jmp	 ___CxxFrameHandler3
text$x	ENDS
??$construct@UResetGroup@@ABU1@@?$allocator@UResetGroup@@@std@@QAEXPAUResetGroup@@ABU2@@Z ENDP ; std::allocator<ResetGroup>::construct<ResetGroup,ResetGroup const &>
; Function compile flags: /Ogtp
; File c:\program files (x86)\microsoft visual studio 14.0\vc\include\xmemory0
;	COMDAT ??$construct@UResetGroup@@AAU1@@?$allocator@UResetGroup@@@std@@QAEXPAUResetGroup@@AAU2@@Z
_TEXT	SEGMENT
$T2 = -16						; size = 4
__$EHRec$ = -12						; size = 12
__Ptr$ = 8						; size = 4
_<_Args_0>$ = 12					; size = 4
??$construct@UResetGroup@@AAU1@@?$allocator@UResetGroup@@@std@@QAEXPAUResetGroup@@AAU2@@Z PROC ; std::allocator<ResetGroup>::construct<ResetGroup,ResetGroup &>, COMDAT
; _this$ = ecx

; 654  : 		{	// construct _Objty(_Types...) at _Ptr

  00000	55		 push	 ebp
  00001	8b ec		 mov	 ebp, esp
  00003	6a ff		 push	 -1
  00005	68 00 00 00 00	 push	 __ehhandler$??$construct@UResetGroup@@AAU1@@?$allocator@UResetGroup@@@std@@QAEXPAUResetGroup@@AAU2@@Z
  0000a	64 a1 00 00 00
	00		 mov	 eax, DWORD PTR fs:0
  00010	50		 push	 eax
  00011	51		 push	 ecx
  00012	a1 00 00 00 00	 mov	 eax, DWORD PTR ___security_cookie
  00017	33 c5		 xor	 eax, ebp
  00019	50		 push	 eax
  0001a	8d 45 f4	 lea	 eax, DWORD PTR __$EHRec$[ebp]
  0001d	64 a3 00 00 00
	00		 mov	 DWORD PTR fs:0, eax

; 655  : 		::new ((void *)_Ptr) _Objty(_STD forward<_Types>(_Args)...);

  00023	8b 4d 08	 mov	 ecx, DWORD PTR __Ptr$[ebp]
  00026	89 4d f0	 mov	 DWORD PTR $T2[ebp], ecx
  00029	c7 45 fc 00 00
	00 00		 mov	 DWORD PTR __$EHRec$[ebp+8], 0
  00030	85 c9		 test	 ecx, ecx
  00032	74 08		 je	 SHORT $LN3@construct
  00034	ff 75 0c	 push	 DWORD PTR _<_Args_0>$[ebp]
  00037	e8 00 00 00 00	 call	 ??0ResetGroup@@QAE@ABU0@@Z
$LN3@construct:

; 656  : 		}

  0003c	8b 4d f4	 mov	 ecx, DWORD PTR __$EHRec$[ebp]
  0003f	64 89 0d 00 00
	00 00		 mov	 DWORD PTR fs:0, ecx
  00046	59		 pop	 ecx
  00047	8b e5		 mov	 esp, ebp
  00049	5d		 pop	 ebp
  0004a	c2 08 00	 ret	 8
_TEXT	ENDS
;	COMDAT text$x
text$x	SEGMENT
__unwindfunclet$??$construct@UResetGroup@@AAU1@@?$allocator@UResetGroup@@@std@@QAEXPAUResetGroup@@AAU2@@Z$0:
  00000	8b 45 08	 mov	 eax, DWORD PTR __Ptr$[ebp]
  00003	50		 push	 eax
  00004	8b 45 f0	 mov	 eax, DWORD PTR $T2[ebp]
  00007	50		 push	 eax
  00008	e8 00 00 00 00	 call	 ??3@YAXPAX0@Z		; operator delete
  0000d	83 c4 08	 add	 esp, 8
  00010	c3		 ret	 0
__ehhandler$??$construct@UResetGroup@@AAU1@@?$allocator@UResetGroup@@@std@@QAEXPAUResetGroup@@AAU2@@Z:
  00011	8b 54 24 08	 mov	 edx, DWORD PTR [esp+8]
  00015	8d 42 0c	 lea	 eax, DWORD PTR [edx+12]
  00018	8b 4a f8	 mov	 ecx, DWORD PTR [edx-8]
  0001b	33 c8		 xor	 ecx, eax
  0001d	e8 00 00 00 00	 call	 @__security_check_cookie@4
  00022	b8 00 00 00 00	 mov	 eax, OFFSET __ehfuncinfo$??$construct@UResetGroup@@AAU1@@?$allocator@UResetGroup@@@std@@QAEXPAUResetGroup@@AAU2@@Z
  00027	e9 00 00 00 00	 jmp	 ___CxxFrameHandler3
text$x	ENDS
??$construct@UResetGroup@@AAU1@@?$allocator@UResetGroup@@@std@@QAEXPAUResetGroup@@AAU2@@Z ENDP ; std::allocator<ResetGroup>::construct<ResetGroup,ResetGroup &>
; Function compile flags: /Ogtp
; File c:\program files (x86)\microsoft visual studio 14.0\vc\include\type_traits
;	COMDAT ??$_Move@AAPAUResetGroup@@@std@@YA$$QAPAUResetGroup@@AAPAU1@@Z
_TEXT	SEGMENT
__Arg$ = 8						; size = 4
??$_Move@AAPAUResetGroup@@@std@@YA$$QAPAUResetGroup@@AAPAU1@@Z PROC ; std::_Move<ResetGroup * &>, COMDAT

; 1257 : 	{	// forward _Arg as movable

  00000	55		 push	 ebp
  00001	8b ec		 mov	 ebp, esp

; 1258 : 	return (static_cast<typename remove_reference<_Ty>::type&&>(_Arg));

  00003	8b 45 08	 mov	 eax, DWORD PTR __Arg$[ebp]

; 1259 : 	}

  00006	5d		 pop	 ebp
  00007	c3		 ret	 0
??$_Move@AAPAUResetGroup@@@std@@YA$$QAPAUResetGroup@@AAPAU1@@Z ENDP ; std::_Move<ResetGroup * &>
_TEXT	ENDS
; Function compile flags: /Ogtp
; File c:\program files (x86)\microsoft visual studio 14.0\vc\include\xmemory0
;	COMDAT ??$_Destroy_range@U?$_Wrap_alloc@V?$allocator@UResetItem@@@std@@@std@@@std@@YAXPAUResetItem@@0AAU?$_Wrap_alloc@V?$allocator@UResetItem@@@std@@@0@U_Nonscalar_ptr_iterator_tag@0@@Z
_TEXT	SEGMENT
__First$ = 8						; size = 4
__Last$ = 12						; size = 4
__Al$ = 16						; size = 4
___formal$ = 20						; size = 1
??$_Destroy_range@U?$_Wrap_alloc@V?$allocator@UResetItem@@@std@@@std@@@std@@YAXPAUResetItem@@0AAU?$_Wrap_alloc@V?$allocator@UResetItem@@@std@@@0@U_Nonscalar_ptr_iterator_tag@0@@Z PROC ; std::_Destroy_range<std::_Wrap_alloc<std::allocator<ResetItem> > >, COMDAT

; 171  : 	for (; _First != _Last; ++_First)
; 172  : 		_Al.destroy(_STD addressof(*_First));
; 173  : 	}

  00000	c3		 ret	 0
??$_Destroy_range@U?$_Wrap_alloc@V?$allocator@UResetItem@@@std@@@std@@@std@@YAXPAUResetItem@@0AAU?$_Wrap_alloc@V?$allocator@UResetItem@@@std@@@0@U_Nonscalar_ptr_iterator_tag@0@@Z ENDP ; std::_Destroy_range<std::_Wrap_alloc<std::allocator<ResetItem> > >
_TEXT	ENDS
; Function compile flags: /Ogtp
; File c:\program files (x86)\microsoft visual studio 14.0\vc\include\xutility
;	COMDAT ??$_Ptr_cat@UResetItem@@U1@@std@@YA?AU_Nonscalar_ptr_iterator_tag@0@PAUResetItem@@0@Z
_TEXT	SEGMENT
__Cat$ = -1						; size = 1
___formal$ = 8						; size = 4
___formal$ = 12						; size = 4
??$_Ptr_cat@UResetItem@@U1@@std@@YA?AU_Nonscalar_ptr_iterator_tag@0@PAUResetItem@@0@Z PROC ; std::_Ptr_cat<ResetItem,ResetItem>, COMDAT

; 640  : 	{	// return pointer category from pointers

  00000	55		 push	 ebp
  00001	8b ec		 mov	 ebp, esp
  00003	51		 push	 ecx

; 641  : 	typename _Ptr_cat_helper<_Elem1, _Elem2>::type _Cat;
; 642  : 	return (_Cat);

  00004	8a 45 ff	 mov	 al, BYTE PTR __Cat$[ebp]

; 643  : 	}

  00007	8b e5		 mov	 esp, ebp
  00009	5d		 pop	 ebp
  0000a	c3		 ret	 0
??$_Ptr_cat@UResetItem@@U1@@std@@YA?AU_Nonscalar_ptr_iterator_tag@0@PAUResetItem@@0@Z ENDP ; std::_Ptr_cat<ResetItem,ResetItem>
_TEXT	ENDS
; Function compile flags: /Ogtp
; File c:\program files (x86)\microsoft visual studio 14.0\vc\include\xutility
;	COMDAT ??$_Ptr_cat@UResetItem@@U1@@std@@YA?AU_Nonscalar_ptr_iterator_tag@0@PBUResetItem@@PAU2@@Z
_TEXT	SEGMENT
__Cat$ = -1						; size = 1
___formal$ = 8						; size = 4
___formal$ = 12						; size = 4
??$_Ptr_cat@UResetItem@@U1@@std@@YA?AU_Nonscalar_ptr_iterator_tag@0@PBUResetItem@@PAU2@@Z PROC ; std::_Ptr_cat<ResetItem,ResetItem>, COMDAT

; 649  : 	{	// return pointer category from pointers

  00000	55		 push	 ebp
  00001	8b ec		 mov	 ebp, esp
  00003	51		 push	 ecx

; 650  : 	typename _Ptr_cat_helper<_Elem1, _Elem2>::type _Cat;
; 651  : 	return (_Cat);

  00004	8a 45 ff	 mov	 al, BYTE PTR __Cat$[ebp]

; 652  : 	}

  00007	8b e5		 mov	 esp, ebp
  00009	5d		 pop	 ebp
  0000a	c3		 ret	 0
??$_Ptr_cat@UResetItem@@U1@@std@@YA?AU_Nonscalar_ptr_iterator_tag@0@PBUResetItem@@PAU2@@Z ENDP ; std::_Ptr_cat<ResetItem,ResetItem>
_TEXT	ENDS
; Function compile flags: /Ogtp
; File c:\program files (x86)\microsoft visual studio 14.0\vc\include\xmemory
;	COMDAT ??$_Uninitialized_move@PAUResetItem@@PAU1@U?$_Wrap_alloc@V?$allocator@UResetItem@@@std@@@std@@@std@@YAPAUResetItem@@PAU1@00AAU?$_Wrap_alloc@V?$allocator@UResetItem@@@std@@@0@@Z
_TEXT	SEGMENT
__First$ = 8						; size = 4
__Last$ = 12						; size = 4
__Cat$1 = 16						; size = 1
__Dest$ = 16						; size = 4
__Al$ = 20						; size = 4
??$_Uninitialized_move@PAUResetItem@@PAU1@U?$_Wrap_alloc@V?$allocator@UResetItem@@@std@@@std@@@std@@YAPAUResetItem@@PAU1@00AAU?$_Wrap_alloc@V?$allocator@UResetItem@@@std@@@0@@Z PROC ; std::_Uninitialized_move<ResetItem *,ResetItem *,std::_Wrap_alloc<std::allocator<ResetItem> > >, COMDAT

; 490  : 	{	// move [_First, _Last) to raw _Dest, using _Al

  00000	55		 push	 ebp
  00001	8b ec		 mov	 ebp, esp

; 481  : 	return (_Uninit_move(_First, _Last, _Dest, _Al,

  00003	ff 75 10	 push	 DWORD PTR __Cat$1[ebp]
  00006	6a 00		 push	 0
  00008	ff 75 14	 push	 DWORD PTR __Al$[ebp]
  0000b	ff 75 10	 push	 DWORD PTR __Dest$[ebp]
  0000e	ff 75 0c	 push	 DWORD PTR __Last$[ebp]
  00011	ff 75 08	 push	 DWORD PTR __First$[ebp]
  00014	e8 00 00 00 00	 call	 ??$_Uninit_move@PAUResetItem@@PAU1@V?$allocator@UResetItem@@@std@@U1@@std@@YAPAUResetItem@@PAU1@00AAU?$_Wrap_alloc@V?$allocator@UResetItem@@@std@@@0@0U_Nonscalar_ptr_iterator_tag@0@@Z ; std::_Uninit_move<ResetItem *,ResetItem *,std::allocator<ResetItem>,ResetItem>
  00019	83 c4 18	 add	 esp, 24			; 00000018H

; 491  : 	return (_Rechecked(_Dest,
; 492  : 		_Uninit_move(_Unchecked(_First), _Unchecked(_Last),
; 493  : 			_Unchecked(_Dest), _Al)));
; 494  : 	}

  0001c	5d		 pop	 ebp
  0001d	c3		 ret	 0
??$_Uninitialized_move@PAUResetItem@@PAU1@U?$_Wrap_alloc@V?$allocator@UResetItem@@@std@@@std@@@std@@YAPAUResetItem@@PAU1@00AAU?$_Wrap_alloc@V?$allocator@UResetItem@@@std@@@0@@Z ENDP ; std::_Uninitialized_move<ResetItem *,ResetItem *,std::_Wrap_alloc<std::allocator<ResetItem> > >
_TEXT	ENDS
; Function compile flags: /Ogtp
; File c:\program files (x86)\microsoft visual studio 14.0\vc\include\xmemory
;	COMDAT ??$_Uninitialized_move@PAUResetGroup@@PAU1@U?$_Wrap_alloc@V?$allocator@UResetGroup@@@std@@@std@@@std@@YAPAUResetGroup@@PAU1@00AAU?$_Wrap_alloc@V?$allocator@UResetGroup@@@std@@@0@@Z
_TEXT	SEGMENT
__First$ = 8						; size = 4
__Last$ = 12						; size = 4
__Cat$1 = 16						; size = 1
__Dest$ = 16						; size = 4
__Al$ = 20						; size = 4
??$_Uninitialized_move@PAUResetGroup@@PAU1@U?$_Wrap_alloc@V?$allocator@UResetGroup@@@std@@@std@@@std@@YAPAUResetGroup@@PAU1@00AAU?$_Wrap_alloc@V?$allocator@UResetGroup@@@std@@@0@@Z PROC ; std::_Uninitialized_move<ResetGroup *,ResetGroup *,std::_Wrap_alloc<std::allocator<ResetGroup> > >, COMDAT

; 490  : 	{	// move [_First, _Last) to raw _Dest, using _Al

  00000	55		 push	 ebp
  00001	8b ec		 mov	 ebp, esp

; 481  : 	return (_Uninit_move(_First, _Last, _Dest, _Al,

  00003	ff 75 10	 push	 DWORD PTR __Cat$1[ebp]
  00006	6a 00		 push	 0
  00008	ff 75 14	 push	 DWORD PTR __Al$[ebp]
  0000b	ff 75 10	 push	 DWORD PTR __Dest$[ebp]
  0000e	ff 75 0c	 push	 DWORD PTR __Last$[ebp]
  00011	ff 75 08	 push	 DWORD PTR __First$[ebp]
  00014	e8 00 00 00 00	 call	 ??$_Uninit_move@PAUResetGroup@@PAU1@V?$allocator@UResetGroup@@@std@@U1@@std@@YAPAUResetGroup@@PAU1@00AAU?$_Wrap_alloc@V?$allocator@UResetGroup@@@std@@@0@0U_Nonscalar_ptr_iterator_tag@0@@Z ; std::_Uninit_move<ResetGroup *,ResetGroup *,std::allocator<ResetGroup>,ResetGroup>
  00019	83 c4 18	 add	 esp, 24			; 00000018H

; 491  : 	return (_Rechecked(_Dest,
; 492  : 		_Uninit_move(_Unchecked(_First), _Unchecked(_Last),
; 493  : 			_Unchecked(_Dest), _Al)));
; 494  : 	}

  0001c	5d		 pop	 ebp
  0001d	c3		 ret	 0
??$_Uninitialized_move@PAUResetGroup@@PAU1@U?$_Wrap_alloc@V?$allocator@UResetGroup@@@std@@@std@@@std@@YAPAUResetGroup@@PAU1@00AAU?$_Wrap_alloc@V?$allocator@UResetGroup@@@std@@@0@@Z ENDP ; std::_Uninitialized_move<ResetGroup *,ResetGroup *,std::_Wrap_alloc<std::allocator<ResetGroup> > >
_TEXT	ENDS
; Function compile flags: /Ogtp
; File c:\program files (x86)\microsoft visual studio 14.0\vc\include\type_traits
;	COMDAT ??$forward@ABV?$allocator@UResetItem@@@std@@@std@@YAABV?$allocator@UResetItem@@@0@ABV10@@Z
_TEXT	SEGMENT
__Arg$ = 8						; size = 4
??$forward@ABV?$allocator@UResetItem@@@std@@@std@@YAABV?$allocator@UResetItem@@@0@ABV10@@Z PROC ; std::forward<std::allocator<ResetItem> const &>, COMDAT

; 1233 : 	{	// forward an lvalue as either an lvalue or an rvalue

  00000	55		 push	 ebp
  00001	8b ec		 mov	 ebp, esp

; 1234 : 	return (static_cast<_Ty&&>(_Arg));

  00003	8b 45 08	 mov	 eax, DWORD PTR __Arg$[ebp]

; 1235 : 	}

  00006	5d		 pop	 ebp
  00007	c3		 ret	 0
??$forward@ABV?$allocator@UResetItem@@@std@@@std@@YAABV?$allocator@UResetItem@@@0@ABV10@@Z ENDP ; std::forward<std::allocator<ResetItem> const &>
_TEXT	ENDS
; Function compile flags: /Ogtp
; File c:\program files (x86)\microsoft visual studio 14.0\vc\include\xmemory0
; File c:\program files (x86)\microsoft visual studio 14.0\vc\include\vector
; File c:\program files (x86)\microsoft visual studio 14.0\vc\include\xmemory0
; File c:\program files (x86)\microsoft visual studio 14.0\vc\include\vector
; File c:\program files (x86)\microsoft visual studio 14.0\vc\include\xmemory0
; File c:\program files (x86)\microsoft visual studio 14.0\vc\include\vector
; File c:\program files (x86)\microsoft visual studio 14.0\vc\include\xmemory0
;	COMDAT ??$_Destroy_range@U?$_Wrap_alloc@V?$allocator@UResetGroup@@@std@@@std@@@std@@YAXPAUResetGroup@@0AAU?$_Wrap_alloc@V?$allocator@UResetGroup@@@std@@@0@U_Nonscalar_ptr_iterator_tag@0@@Z
_TEXT	SEGMENT
__First$ = 8						; size = 4
__Last$ = 12						; size = 4
__Al$ = 16						; size = 4
___formal$ = 20						; size = 1
??$_Destroy_range@U?$_Wrap_alloc@V?$allocator@UResetGroup@@@std@@@std@@@std@@YAXPAUResetGroup@@0AAU?$_Wrap_alloc@V?$allocator@UResetGroup@@@std@@@0@U_Nonscalar_ptr_iterator_tag@0@@Z PROC ; std::_Destroy_range<std::_Wrap_alloc<std::allocator<ResetGroup> > >, COMDAT

; 170  : 	{	// destroy [_First, _Last), arbitrary type

  00000	55		 push	 ebp
  00001	8b ec		 mov	 ebp, esp
  00003	56		 push	 esi

; 171  : 	for (; _First != _Last; ++_First)

  00004	8b 75 08	 mov	 esi, DWORD PTR __First$[ebp]
  00007	57		 push	 edi
  00008	8b 7d 0c	 mov	 edi, DWORD PTR __Last$[ebp]
  0000b	3b f7		 cmp	 esi, edi
  0000d	74 7d		 je	 SHORT $LN149@Destroy_ra
  0000f	81 c6 f0 00 00
	00		 add	 esi, 240		; 000000f0H
$LL4@Destroy_ra:
; File c:\program files (x86)\microsoft visual studio 14.0\vc\include\vector

; 1656 : 		if (this->_Myfirst() != pointer())

  00015	8b 0e		 mov	 ecx, DWORD PTR [esi]
  00017	85 c9		 test	 ecx, ecx
  00019	74 61		 je	 SHORT $LN29@Destroy_ra

; 1657 : 			{	// something to free, destroy and deallocate it
; 1658 : 			this->_Orphan_all();
; 1659 : 			_Destroy(this->_Myfirst(), this->_Mylast());
; 1660 : 			this->_Getal().deallocate(this->_Myfirst(),

  0001b	8b 56 08	 mov	 edx, DWORD PTR [esi+8]
  0001e	b8 ab aa aa 2a	 mov	 eax, 715827883		; 2aaaaaabH
  00023	2b d1		 sub	 edx, ecx
  00025	f7 ea		 imul	 edx
  00027	c1 fa 02	 sar	 edx, 2
  0002a	8b c2		 mov	 eax, edx
  0002c	c1 e8 1f	 shr	 eax, 31			; 0000001fH
  0002f	03 c2		 add	 eax, edx
; File c:\program files (x86)\microsoft visual studio 14.0\vc\include\xmemory0

; 100  : 	_SCL_SECURE_ALWAYS_VALIDATE(_Count <= (size_t)(-1) / _Sz);

  00031	3d aa aa aa 0a	 cmp	 eax, 178956970		; 0aaaaaaaH
  00036	77 58		 ja	 SHORT $LN151@Destroy_ra

; 101  : 	const size_t _User_size = _Count * _Sz;

  00038	8d 04 40	 lea	 eax, DWORD PTR [eax+eax*2]
  0003b	c1 e0 03	 shl	 eax, 3

; 102  : 	if (_BIG_ALLOCATION_THRESHOLD <= _User_size)

  0003e	3d 00 10 00 00	 cmp	 eax, 4096		; 00001000H
  00043	72 1a		 jb	 SHORT $LN97@Destroy_ra

; 103  : 		{	// deallocate large block
; 104  : 		const uintptr_t _Ptr_user = reinterpret_cast<uintptr_t>(_Ptr);
; 105  : 		_SCL_SECURE_ALWAYS_VALIDATE(

  00045	f6 c1 1f	 test	 cl, 31			; 0000001fH
  00048	75 46		 jne	 SHORT $LN151@Destroy_ra

; 106  : 			(_Ptr_user & (_BIG_ALLOCATION_ALIGNMENT - 1)) == 0);
; 107  : 		const uintptr_t _Ptr_ptr = _Ptr_user - sizeof(void *);
; 108  : 		const uintptr_t _Ptr_container =
; 109  : 			*reinterpret_cast<uintptr_t *>(_Ptr_ptr);

  0004a	8b 41 fc	 mov	 eax, DWORD PTR [ecx-4]

; 110  : 
; 111  :  #ifdef _DEBUG
; 112  : 		// If the following asserts, it likely means that we are performing
; 113  : 		// an aligned delete on memory coming from an unaligned allocation.
; 114  : 		_SCL_SECURE_ALWAYS_VALIDATE(
; 115  : 			reinterpret_cast<uintptr_t *>(_Ptr_ptr)[-1] ==
; 116  : 				_BIG_ALLOCATION_SENTINEL);
; 117  :  #endif /* _DEBUG */
; 118  : 
; 119  : 		// Extra paranoia on aligned allocation/deallocation
; 120  : 		_SCL_SECURE_ALWAYS_VALIDATE(_Ptr_container < _Ptr_user);

  0004d	3b c1		 cmp	 eax, ecx
  0004f	73 3f		 jae	 SHORT $LN151@Destroy_ra

; 121  : 
; 122  :  #ifdef _DEBUG
; 123  : 		_SCL_SECURE_ALWAYS_VALIDATE(2 * sizeof(void *)
; 124  : 			<= _Ptr_user - _Ptr_container);
; 125  : 
; 126  :  #else /* _DEBUG */
; 127  : 		_SCL_SECURE_ALWAYS_VALIDATE(sizeof(void *)

  00051	2b c8		 sub	 ecx, eax
  00053	83 f9 04	 cmp	 ecx, 4
  00056	72 38		 jb	 SHORT $LN151@Destroy_ra

; 128  : 			<= _Ptr_user - _Ptr_container);
; 129  :  #endif /* _DEBUG */
; 130  : 
; 131  : 		_SCL_SECURE_ALWAYS_VALIDATE(_Ptr_user - _Ptr_container

  00058	83 f9 23	 cmp	 ecx, 35			; 00000023H
  0005b	77 33		 ja	 SHORT $LN151@Destroy_ra

; 132  : 			<= _NON_USER_SIZE);
; 133  : 
; 134  : 		_Ptr = reinterpret_cast<void *>(_Ptr_container);

  0005d	8b c8		 mov	 ecx, eax
$LN97@Destroy_ra:

; 138  : 	::operator delete(_Ptr);

  0005f	51		 push	 ecx
  00060	e8 00 00 00 00	 call	 ??3@YAXPAX@Z		; operator delete
; File c:\program files (x86)\microsoft visual studio 14.0\vc\include\vector

; 1662 : 			this->_Myfirst() = pointer();

  00065	c7 06 00 00 00
	00		 mov	 DWORD PTR [esi], 0
; File c:\program files (x86)\microsoft visual studio 14.0\vc\include\xmemory0

; 138  : 	::operator delete(_Ptr);

  0006b	83 c4 04	 add	 esp, 4
; File c:\program files (x86)\microsoft visual studio 14.0\vc\include\vector

; 1663 : 			this->_Mylast() = pointer();

  0006e	c7 46 04 00 00
	00 00		 mov	 DWORD PTR [esi+4], 0

; 1664 : 			this->_Myend() = pointer();

  00075	c7 46 08 00 00
	00 00		 mov	 DWORD PTR [esi+8], 0
$LN29@Destroy_ra:
; File c:\program files (x86)\microsoft visual studio 14.0\vc\include\xmemory0

; 171  : 	for (; _First != _Last; ++_First)

  0007c	81 c6 0c 01 00
	00		 add	 esi, 268		; 0000010cH
  00082	8d 86 10 ff ff
	ff		 lea	 eax, DWORD PTR [esi-240]
  00088	3b c7		 cmp	 eax, edi
  0008a	75 89		 jne	 SHORT $LL4@Destroy_ra
$LN149@Destroy_ra:
  0008c	5f		 pop	 edi
  0008d	5e		 pop	 esi

; 172  : 		_Al.destroy(_STD addressof(*_First));
; 173  : 	}

  0008e	5d		 pop	 ebp
  0008f	c3		 ret	 0
$LN151@Destroy_ra:

; 128  : 			<= _Ptr_user - _Ptr_container);
; 129  :  #endif /* _DEBUG */
; 130  : 
; 131  : 		_SCL_SECURE_ALWAYS_VALIDATE(_Ptr_user - _Ptr_container

  00090	e8 00 00 00 00	 call	 __invalid_parameter_noinfo_noreturn
$LN152@Destroy_ra:
$LN150@Destroy_ra:
  00095	cc		 int	 3
??$_Destroy_range@U?$_Wrap_alloc@V?$allocator@UResetGroup@@@std@@@std@@@std@@YAXPAUResetGroup@@0AAU?$_Wrap_alloc@V?$allocator@UResetGroup@@@std@@@0@U_Nonscalar_ptr_iterator_tag@0@@Z ENDP ; std::_Destroy_range<std::_Wrap_alloc<std::allocator<ResetGroup> > >
_TEXT	ENDS
; Function compile flags: /Ogtp
; File c:\program files (x86)\microsoft visual studio 14.0\vc\include\xutility
;	COMDAT ??$_Ptr_cat@UResetGroup@@U1@@std@@YA?AU_Nonscalar_ptr_iterator_tag@0@PAUResetGroup@@0@Z
_TEXT	SEGMENT
__Cat$ = -1						; size = 1
___formal$ = 8						; size = 4
___formal$ = 12						; size = 4
??$_Ptr_cat@UResetGroup@@U1@@std@@YA?AU_Nonscalar_ptr_iterator_tag@0@PAUResetGroup@@0@Z PROC ; std::_Ptr_cat<ResetGroup,ResetGroup>, COMDAT

; 640  : 	{	// return pointer category from pointers

  00000	55		 push	 ebp
  00001	8b ec		 mov	 ebp, esp
  00003	51		 push	 ecx

; 641  : 	typename _Ptr_cat_helper<_Elem1, _Elem2>::type _Cat;
; 642  : 	return (_Cat);

  00004	8a 45 ff	 mov	 al, BYTE PTR __Cat$[ebp]

; 643  : 	}

  00007	8b e5		 mov	 esp, ebp
  00009	5d		 pop	 ebp
  0000a	c3		 ret	 0
??$_Ptr_cat@UResetGroup@@U1@@std@@YA?AU_Nonscalar_ptr_iterator_tag@0@PAUResetGroup@@0@Z ENDP ; std::_Ptr_cat<ResetGroup,ResetGroup>
_TEXT	ENDS
; Function compile flags: /Ogtp
; File c:\program files (x86)\microsoft visual studio 14.0\vc\include\type_traits
;	COMDAT ??$forward@ABV?$allocator@UResetGroup@@@std@@@std@@YAABV?$allocator@UResetGroup@@@0@ABV10@@Z
_TEXT	SEGMENT
__Arg$ = 8						; size = 4
??$forward@ABV?$allocator@UResetGroup@@@std@@@std@@YAABV?$allocator@UResetGroup@@@0@ABV10@@Z PROC ; std::forward<std::allocator<ResetGroup> const &>, COMDAT

; 1233 : 	{	// forward an lvalue as either an lvalue or an rvalue

  00000	55		 push	 ebp
  00001	8b ec		 mov	 ebp, esp

; 1234 : 	return (static_cast<_Ty&&>(_Arg));

  00003	8b 45 08	 mov	 eax, DWORD PTR __Arg$[ebp]

; 1235 : 	}

  00006	5d		 pop	 ebp
  00007	c3		 ret	 0
??$forward@ABV?$allocator@UResetGroup@@@std@@@std@@YAABV?$allocator@UResetGroup@@@0@ABV10@@Z ENDP ; std::forward<std::allocator<ResetGroup> const &>
_TEXT	ENDS
; Function compile flags: /Ogtp
; File c:\program files (x86)\microsoft visual studio 14.0\vc\include\xmemory0
;	COMDAT ??$_Pocs@U?$_Wrap_alloc@V?$allocator@UResetGroup@@@std@@@std@@@std@@YAXAAU?$_Wrap_alloc@V?$allocator@UResetGroup@@@std@@@0@0U?$integral_constant@_N$0A@@0@@Z
_TEXT	SEGMENT
___formal$ = 8						; size = 4
___formal$ = 12						; size = 4
___formal$ = 16						; size = 1
??$_Pocs@U?$_Wrap_alloc@V?$allocator@UResetGroup@@@std@@@std@@@std@@YAXAAU?$_Wrap_alloc@V?$allocator@UResetGroup@@@std@@@0@0U?$integral_constant@_N$0A@@0@@Z PROC ; std::_Pocs<std::_Wrap_alloc<std::allocator<ResetGroup> > >, COMDAT

; 999  : 	}

  00000	c3		 ret	 0
??$_Pocs@U?$_Wrap_alloc@V?$allocator@UResetGroup@@@std@@@std@@@std@@YAXAAU?$_Wrap_alloc@V?$allocator@UResetGroup@@@std@@@0@0U?$integral_constant@_N$0A@@0@@Z ENDP ; std::_Pocs<std::_Wrap_alloc<std::allocator<ResetGroup> > >
_TEXT	ENDS
; Function compile flags: /Ogtp
; File c:\program files (x86)\microsoft visual studio 14.0\vc\include\xmemory0
;	COMDAT ??$construct@UResetItem@@ABU1@@?$allocator_traits@V?$allocator@UResetItem@@@std@@@std@@SAXAAV?$allocator@UResetItem@@@1@PAUResetItem@@ABU3@@Z
_TEXT	SEGMENT
__Al$ = 8						; size = 4
__Ptr$ = 12						; size = 4
_<_Args_0>$ = 16					; size = 4
??$construct@UResetItem@@ABU1@@?$allocator_traits@V?$allocator@UResetItem@@@std@@@std@@SAXAAV?$allocator@UResetItem@@@1@PAUResetItem@@ABU3@@Z PROC ; std::allocator_traits<std::allocator<ResetItem> >::construct<ResetItem,ResetItem const &>, COMDAT

; 772  : 		{	// construct _Objty(_Types...) at _Ptr

  00000	55		 push	 ebp
  00001	8b ec		 mov	 ebp, esp

; 655  : 		::new ((void *)_Ptr) _Objty(_STD forward<_Types>(_Args)...);

  00003	8b 4d 0c	 mov	 ecx, DWORD PTR __Ptr$[ebp]
  00006	85 c9		 test	 ecx, ecx
  00008	74 13		 je	 SHORT $LN8@construct
  0000a	8b 45 10	 mov	 eax, DWORD PTR _<_Args_0>$[ebp]
  0000d	0f 10 00	 movups	 xmm0, XMMWORD PTR [eax]
  00010	0f 11 01	 movups	 XMMWORD PTR [ecx], xmm0
  00013	f3 0f 7e 40 10	 movq	 xmm0, QWORD PTR [eax+16]
  00018	66 0f d6 41 10	 movq	 QWORD PTR [ecx+16], xmm0
$LN8@construct:

; 773  : 		_Al.construct(_Ptr, _STD forward<_Types>(_Args)...);
; 774  : 		}

  0001d	5d		 pop	 ebp
  0001e	c3		 ret	 0
??$construct@UResetItem@@ABU1@@?$allocator_traits@V?$allocator@UResetItem@@@std@@@std@@SAXAAV?$allocator@UResetItem@@@1@PAUResetItem@@ABU3@@Z ENDP ; std::allocator_traits<std::allocator<ResetItem> >::construct<ResetItem,ResetItem const &>
_TEXT	ENDS
; Function compile flags: /Ogtp
; File c:\program files (x86)\microsoft visual studio 14.0\vc\include\type_traits
;	COMDAT ??$forward@ABUResetItem@@@std@@YAABUResetItem@@ABU1@@Z
_TEXT	SEGMENT
__Arg$ = 8						; size = 4
??$forward@ABUResetItem@@@std@@YAABUResetItem@@ABU1@@Z PROC ; std::forward<ResetItem const &>, COMDAT

; 1233 : 	{	// forward an lvalue as either an lvalue or an rvalue

  00000	55		 push	 ebp
  00001	8b ec		 mov	 ebp, esp

; 1234 : 	return (static_cast<_Ty&&>(_Arg));

  00003	8b 45 08	 mov	 eax, DWORD PTR __Arg$[ebp]

; 1235 : 	}

  00006	5d		 pop	 ebp
  00007	c3		 ret	 0
??$forward@ABUResetItem@@@std@@YAABUResetItem@@ABU1@@Z ENDP ; std::forward<ResetItem const &>
_TEXT	ENDS
; Function compile flags: /Ogtp
; File c:\program files (x86)\microsoft visual studio 14.0\vc\include\xmemory0
;	COMDAT ??$construct@UResetItem@@AAU1@@?$allocator_traits@V?$allocator@UResetItem@@@std@@@std@@SAXAAV?$allocator@UResetItem@@@1@PAUResetItem@@AAU3@@Z
_TEXT	SEGMENT
__Al$ = 8						; size = 4
__Ptr$ = 12						; size = 4
_<_Args_0>$ = 16					; size = 4
??$construct@UResetItem@@AAU1@@?$allocator_traits@V?$allocator@UResetItem@@@std@@@std@@SAXAAV?$allocator@UResetItem@@@1@PAUResetItem@@AAU3@@Z PROC ; std::allocator_traits<std::allocator<ResetItem> >::construct<ResetItem,ResetItem &>, COMDAT

; 772  : 		{	// construct _Objty(_Types...) at _Ptr

  00000	55		 push	 ebp
  00001	8b ec		 mov	 ebp, esp

; 655  : 		::new ((void *)_Ptr) _Objty(_STD forward<_Types>(_Args)...);

  00003	8b 4d 0c	 mov	 ecx, DWORD PTR __Ptr$[ebp]
  00006	85 c9		 test	 ecx, ecx
  00008	74 13		 je	 SHORT $LN8@construct
  0000a	8b 45 10	 mov	 eax, DWORD PTR _<_Args_0>$[ebp]
  0000d	0f 10 00	 movups	 xmm0, XMMWORD PTR [eax]
  00010	0f 11 01	 movups	 XMMWORD PTR [ecx], xmm0
  00013	f3 0f 7e 40 10	 movq	 xmm0, QWORD PTR [eax+16]
  00018	66 0f d6 41 10	 movq	 QWORD PTR [ecx+16], xmm0
$LN8@construct:

; 773  : 		_Al.construct(_Ptr, _STD forward<_Types>(_Args)...);
; 774  : 		}

  0001d	5d		 pop	 ebp
  0001e	c3		 ret	 0
??$construct@UResetItem@@AAU1@@?$allocator_traits@V?$allocator@UResetItem@@@std@@@std@@SAXAAV?$allocator@UResetItem@@@1@PAUResetItem@@AAU3@@Z ENDP ; std::allocator_traits<std::allocator<ResetItem> >::construct<ResetItem,ResetItem &>
_TEXT	ENDS
; Function compile flags: /Ogtp
; File c:\program files (x86)\microsoft visual studio 14.0\vc\include\type_traits
;	COMDAT ??$forward@AAUResetItem@@@std@@YAAAUResetItem@@AAU1@@Z
_TEXT	SEGMENT
__Arg$ = 8						; size = 4
??$forward@AAUResetItem@@@std@@YAAAUResetItem@@AAU1@@Z PROC ; std::forward<ResetItem &>, COMDAT

; 1233 : 	{	// forward an lvalue as either an lvalue or an rvalue

  00000	55		 push	 ebp
  00001	8b ec		 mov	 ebp, esp

; 1234 : 	return (static_cast<_Ty&&>(_Arg));

  00003	8b 45 08	 mov	 eax, DWORD PTR __Arg$[ebp]

; 1235 : 	}

  00006	5d		 pop	 ebp
  00007	c3		 ret	 0
??$forward@AAUResetItem@@@std@@YAAAUResetItem@@AAU1@@Z ENDP ; std::forward<ResetItem &>
_TEXT	ENDS
; Function compile flags: /Ogtp
; File c:\program files (x86)\microsoft visual studio 14.0\vc\include\xstddef
;	COMDAT ??$_Addressof@$$CBUResetItem@@@std@@YAPBUResetItem@@ABU1@U?$integral_constant@_N$0A@@0@@Z
_TEXT	SEGMENT
__Val$ = 8						; size = 4
___formal$ = 12						; size = 1
??$_Addressof@$$CBUResetItem@@@std@@YAPBUResetItem@@ABU1@U?$integral_constant@_N$0A@@0@@Z PROC ; std::_Addressof<ResetItem const >, COMDAT

; 688  : 	{	// return address of object _Val

  00000	55		 push	 ebp
  00001	8b ec		 mov	 ebp, esp

; 689  : 	return (reinterpret_cast<_Ty *>(

  00003	8b 45 08	 mov	 eax, DWORD PTR __Val$[ebp]

; 690  : 		&const_cast<char&>(
; 691  : 		reinterpret_cast<const volatile char&>(_Val))));
; 692  : 	}

  00006	5d		 pop	 ebp
  00007	c3		 ret	 0
??$_Addressof@$$CBUResetItem@@@std@@YAPBUResetItem@@ABU1@U?$integral_constant@_N$0A@@0@@Z ENDP ; std::_Addressof<ResetItem const >
_TEXT	ENDS
; Function compile flags: /Ogtp
; File c:\program files (x86)\microsoft visual studio 14.0\vc\include\xmemory0
;	COMDAT ??$construct@UResetGroup@@ABU1@@?$allocator_traits@V?$allocator@UResetGroup@@@std@@@std@@SAXAAV?$allocator@UResetGroup@@@1@PAUResetGroup@@ABU3@@Z
_TEXT	SEGMENT
$T2 = -16						; size = 4
__$EHRec$ = -12						; size = 12
__Al$ = 8						; size = 4
__Ptr$ = 12						; size = 4
_<_Args_0>$ = 16					; size = 4
??$construct@UResetGroup@@ABU1@@?$allocator_traits@V?$allocator@UResetGroup@@@std@@@std@@SAXAAV?$allocator@UResetGroup@@@1@PAUResetGroup@@ABU3@@Z PROC ; std::allocator_traits<std::allocator<ResetGroup> >::construct<ResetGroup,ResetGroup const &>, COMDAT

; 772  : 		{	// construct _Objty(_Types...) at _Ptr

  00000	55		 push	 ebp
  00001	8b ec		 mov	 ebp, esp
  00003	6a ff		 push	 -1
  00005	68 00 00 00 00	 push	 __ehhandler$??$construct@UResetGroup@@ABU1@@?$allocator_traits@V?$allocator@UResetGroup@@@std@@@std@@SAXAAV?$allocator@UResetGroup@@@1@PAUResetGroup@@ABU3@@Z
  0000a	64 a1 00 00 00
	00		 mov	 eax, DWORD PTR fs:0
  00010	50		 push	 eax
  00011	51		 push	 ecx
  00012	a1 00 00 00 00	 mov	 eax, DWORD PTR ___security_cookie
  00017	33 c5		 xor	 eax, ebp
  00019	50		 push	 eax
  0001a	8d 45 f4	 lea	 eax, DWORD PTR __$EHRec$[ebp]
  0001d	64 a3 00 00 00
	00		 mov	 DWORD PTR fs:0, eax

; 655  : 		::new ((void *)_Ptr) _Objty(_STD forward<_Types>(_Args)...);

  00023	8b 4d 0c	 mov	 ecx, DWORD PTR __Ptr$[ebp]
  00026	89 4d f0	 mov	 DWORD PTR $T2[ebp], ecx
  00029	c7 45 fc 00 00
	00 00		 mov	 DWORD PTR __$EHRec$[ebp+8], 0
  00030	85 c9		 test	 ecx, ecx
  00032	74 08		 je	 SHORT $LN8@construct
  00034	ff 75 10	 push	 DWORD PTR _<_Args_0>$[ebp]
  00037	e8 00 00 00 00	 call	 ??0ResetGroup@@QAE@ABU0@@Z
$LN8@construct:

; 773  : 		_Al.construct(_Ptr, _STD forward<_Types>(_Args)...);
; 774  : 		}

  0003c	8b 4d f4	 mov	 ecx, DWORD PTR __$EHRec$[ebp]
  0003f	64 89 0d 00 00
	00 00		 mov	 DWORD PTR fs:0, ecx
  00046	59		 pop	 ecx
  00047	8b e5		 mov	 esp, ebp
  00049	5d		 pop	 ebp
  0004a	c3		 ret	 0
_TEXT	ENDS
;	COMDAT text$x
text$x	SEGMENT
__unwindfunclet$??$construct@UResetGroup@@ABU1@@?$allocator_traits@V?$allocator@UResetGroup@@@std@@@std@@SAXAAV?$allocator@UResetGroup@@@1@PAUResetGroup@@ABU3@@Z$1:
  00000	8b 45 0c	 mov	 eax, DWORD PTR __Ptr$[ebp]
  00003	50		 push	 eax
  00004	8b 45 f0	 mov	 eax, DWORD PTR $T2[ebp]
  00007	50		 push	 eax
  00008	e8 00 00 00 00	 call	 ??3@YAXPAX0@Z		; operator delete
  0000d	83 c4 08	 add	 esp, 8
  00010	c3		 ret	 0
__ehhandler$??$construct@UResetGroup@@ABU1@@?$allocator_traits@V?$allocator@UResetGroup@@@std@@@std@@SAXAAV?$allocator@UResetGroup@@@1@PAUResetGroup@@ABU3@@Z:
  00011	8b 54 24 08	 mov	 edx, DWORD PTR [esp+8]
  00015	8d 42 0c	 lea	 eax, DWORD PTR [edx+12]
  00018	8b 4a f8	 mov	 ecx, DWORD PTR [edx-8]
  0001b	33 c8		 xor	 ecx, eax
  0001d	e8 00 00 00 00	 call	 @__security_check_cookie@4
  00022	b8 00 00 00 00	 mov	 eax, OFFSET __ehfuncinfo$??$construct@UResetGroup@@ABU1@@?$allocator_traits@V?$allocator@UResetGroup@@@std@@@std@@SAXAAV?$allocator@UResetGroup@@@1@PAUResetGroup@@ABU3@@Z
  00027	e9 00 00 00 00	 jmp	 ___CxxFrameHandler3
text$x	ENDS
??$construct@UResetGroup@@ABU1@@?$allocator_traits@V?$allocator@UResetGroup@@@std@@@std@@SAXAAV?$allocator@UResetGroup@@@1@PAUResetGroup@@ABU3@@Z ENDP ; std::allocator_traits<std::allocator<ResetGroup> >::construct<ResetGroup,ResetGroup const &>
; Function compile flags: /Ogtp
; File c:\program files (x86)\microsoft visual studio 14.0\vc\include\type_traits
;	COMDAT ??$forward@ABUResetGroup@@@std@@YAABUResetGroup@@ABU1@@Z
_TEXT	SEGMENT
__Arg$ = 8						; size = 4
??$forward@ABUResetGroup@@@std@@YAABUResetGroup@@ABU1@@Z PROC ; std::forward<ResetGroup const &>, COMDAT

; 1233 : 	{	// forward an lvalue as either an lvalue or an rvalue

  00000	55		 push	 ebp
  00001	8b ec		 mov	 ebp, esp

; 1234 : 	return (static_cast<_Ty&&>(_Arg));

  00003	8b 45 08	 mov	 eax, DWORD PTR __Arg$[ebp]

; 1235 : 	}

  00006	5d		 pop	 ebp
  00007	c3		 ret	 0
??$forward@ABUResetGroup@@@std@@YAABUResetGroup@@ABU1@@Z ENDP ; std::forward<ResetGroup const &>
_TEXT	ENDS
; Function compile flags: /Ogtp
; File c:\program files (x86)\microsoft visual studio 14.0\vc\include\xmemory0
;	COMDAT ??$construct@UResetGroup@@AAU1@@?$allocator_traits@V?$allocator@UResetGroup@@@std@@@std@@SAXAAV?$allocator@UResetGroup@@@1@PAUResetGroup@@AAU3@@Z
_TEXT	SEGMENT
$T2 = -16						; size = 4
__$EHRec$ = -12						; size = 12
__Al$ = 8						; size = 4
__Ptr$ = 12						; size = 4
_<_Args_0>$ = 16					; size = 4
??$construct@UResetGroup@@AAU1@@?$allocator_traits@V?$allocator@UResetGroup@@@std@@@std@@SAXAAV?$allocator@UResetGroup@@@1@PAUResetGroup@@AAU3@@Z PROC ; std::allocator_traits<std::allocator<ResetGroup> >::construct<ResetGroup,ResetGroup &>, COMDAT

; 772  : 		{	// construct _Objty(_Types...) at _Ptr

  00000	55		 push	 ebp
  00001	8b ec		 mov	 ebp, esp
  00003	6a ff		 push	 -1
  00005	68 00 00 00 00	 push	 __ehhandler$??$construct@UResetGroup@@AAU1@@?$allocator_traits@V?$allocator@UResetGroup@@@std@@@std@@SAXAAV?$allocator@UResetGroup@@@1@PAUResetGroup@@AAU3@@Z
  0000a	64 a1 00 00 00
	00		 mov	 eax, DWORD PTR fs:0
  00010	50		 push	 eax
  00011	51		 push	 ecx
  00012	a1 00 00 00 00	 mov	 eax, DWORD PTR ___security_cookie
  00017	33 c5		 xor	 eax, ebp
  00019	50		 push	 eax
  0001a	8d 45 f4	 lea	 eax, DWORD PTR __$EHRec$[ebp]
  0001d	64 a3 00 00 00
	00		 mov	 DWORD PTR fs:0, eax

; 655  : 		::new ((void *)_Ptr) _Objty(_STD forward<_Types>(_Args)...);

  00023	8b 4d 0c	 mov	 ecx, DWORD PTR __Ptr$[ebp]
  00026	89 4d f0	 mov	 DWORD PTR $T2[ebp], ecx
  00029	c7 45 fc 00 00
	00 00		 mov	 DWORD PTR __$EHRec$[ebp+8], 0
  00030	85 c9		 test	 ecx, ecx
  00032	74 08		 je	 SHORT $LN8@construct
  00034	ff 75 10	 push	 DWORD PTR _<_Args_0>$[ebp]
  00037	e8 00 00 00 00	 call	 ??0ResetGroup@@QAE@ABU0@@Z
$LN8@construct:

; 773  : 		_Al.construct(_Ptr, _STD forward<_Types>(_Args)...);
; 774  : 		}

  0003c	8b 4d f4	 mov	 ecx, DWORD PTR __$EHRec$[ebp]
  0003f	64 89 0d 00 00
	00 00		 mov	 DWORD PTR fs:0, ecx
  00046	59		 pop	 ecx
  00047	8b e5		 mov	 esp, ebp
  00049	5d		 pop	 ebp
  0004a	c3		 ret	 0
_TEXT	ENDS
;	COMDAT text$x
text$x	SEGMENT
__unwindfunclet$??$construct@UResetGroup@@AAU1@@?$allocator_traits@V?$allocator@UResetGroup@@@std@@@std@@SAXAAV?$allocator@UResetGroup@@@1@PAUResetGroup@@AAU3@@Z$1:
  00000	8b 45 0c	 mov	 eax, DWORD PTR __Ptr$[ebp]
  00003	50		 push	 eax
  00004	8b 45 f0	 mov	 eax, DWORD PTR $T2[ebp]
  00007	50		 push	 eax
  00008	e8 00 00 00 00	 call	 ??3@YAXPAX0@Z		; operator delete
  0000d	83 c4 08	 add	 esp, 8
  00010	c3		 ret	 0
__ehhandler$??$construct@UResetGroup@@AAU1@@?$allocator_traits@V?$allocator@UResetGroup@@@std@@@std@@SAXAAV?$allocator@UResetGroup@@@1@PAUResetGroup@@AAU3@@Z:
  00011	8b 54 24 08	 mov	 edx, DWORD PTR [esp+8]
  00015	8d 42 0c	 lea	 eax, DWORD PTR [edx+12]
  00018	8b 4a f8	 mov	 ecx, DWORD PTR [edx-8]
  0001b	33 c8		 xor	 ecx, eax
  0001d	e8 00 00 00 00	 call	 @__security_check_cookie@4
  00022	b8 00 00 00 00	 mov	 eax, OFFSET __ehfuncinfo$??$construct@UResetGroup@@AAU1@@?$allocator_traits@V?$allocator@UResetGroup@@@std@@@std@@SAXAAV?$allocator@UResetGroup@@@1@PAUResetGroup@@AAU3@@Z
  00027	e9 00 00 00 00	 jmp	 ___CxxFrameHandler3
text$x	ENDS
??$construct@UResetGroup@@AAU1@@?$allocator_traits@V?$allocator@UResetGroup@@@std@@@std@@SAXAAV?$allocator@UResetGroup@@@1@PAUResetGroup@@AAU3@@Z ENDP ; std::allocator_traits<std::allocator<ResetGroup> >::construct<ResetGroup,ResetGroup &>
; Function compile flags: /Ogtp
; File c:\program files (x86)\microsoft visual studio 14.0\vc\include\type_traits
;	COMDAT ??$forward@AAUResetGroup@@@std@@YAAAUResetGroup@@AAU1@@Z
_TEXT	SEGMENT
__Arg$ = 8						; size = 4
??$forward@AAUResetGroup@@@std@@YAAAUResetGroup@@AAU1@@Z PROC ; std::forward<ResetGroup &>, COMDAT

; 1233 : 	{	// forward an lvalue as either an lvalue or an rvalue

  00000	55		 push	 ebp
  00001	8b ec		 mov	 ebp, esp

; 1234 : 	return (static_cast<_Ty&&>(_Arg));

  00003	8b 45 08	 mov	 eax, DWORD PTR __Arg$[ebp]

; 1235 : 	}

  00006	5d		 pop	 ebp
  00007	c3		 ret	 0
??$forward@AAUResetGroup@@@std@@YAAAUResetGroup@@AAU1@@Z ENDP ; std::forward<ResetGroup &>
_TEXT	ENDS
; Function compile flags: /Ogtp
; File c:\program files (x86)\microsoft visual studio 14.0\vc\include\xstddef
;	COMDAT ??$_Addressof@$$CBUResetGroup@@@std@@YAPBUResetGroup@@ABU1@U?$integral_constant@_N$0A@@0@@Z
_TEXT	SEGMENT
__Val$ = 8						; size = 4
___formal$ = 12						; size = 1
??$_Addressof@$$CBUResetGroup@@@std@@YAPBUResetGroup@@ABU1@U?$integral_constant@_N$0A@@0@@Z PROC ; std::_Addressof<ResetGroup const >, COMDAT

; 688  : 	{	// return address of object _Val

  00000	55		 push	 ebp
  00001	8b ec		 mov	 ebp, esp

; 689  : 	return (reinterpret_cast<_Ty *>(

  00003	8b 45 08	 mov	 eax, DWORD PTR __Val$[ebp]

; 690  : 		&const_cast<char&>(
; 691  : 		reinterpret_cast<const volatile char&>(_Val))));
; 692  : 	}

  00006	5d		 pop	 ebp
  00007	c3		 ret	 0
??$_Addressof@$$CBUResetGroup@@@std@@YAPBUResetGroup@@ABU1@U?$integral_constant@_N$0A@@0@@Z ENDP ; std::_Addressof<ResetGroup const >
_TEXT	ENDS
; Function compile flags: /Ogtp
; File c:\program files (x86)\microsoft visual studio 14.0\vc\include\xmemory0
;	COMDAT ??$_Destroy_range@U?$_Wrap_alloc@V?$allocator@UResetItem@@@std@@@std@@@std@@YAXPAUResetItem@@0AAU?$_Wrap_alloc@V?$allocator@UResetItem@@@std@@@0@@Z
_TEXT	SEGMENT
__First$ = 8						; size = 4
__Last$ = 12						; size = 4
__Al$ = 16						; size = 4
??$_Destroy_range@U?$_Wrap_alloc@V?$allocator@UResetItem@@@std@@@std@@@std@@YAXPAUResetItem@@0AAU?$_Wrap_alloc@V?$allocator@UResetItem@@@std@@@0@@Z PROC ; std::_Destroy_range<std::_Wrap_alloc<std::allocator<ResetItem> > >, COMDAT

; 186  : 	_Destroy_range(_First, _Last, _Al, _Ptr_cat(_First, _Last));
; 187  : 	}

  00000	c3		 ret	 0
??$_Destroy_range@U?$_Wrap_alloc@V?$allocator@UResetItem@@@std@@@std@@@std@@YAXPAUResetItem@@0AAU?$_Wrap_alloc@V?$allocator@UResetItem@@@std@@@0@@Z ENDP ; std::_Destroy_range<std::_Wrap_alloc<std::allocator<ResetItem> > >
_TEXT	ENDS
; Function compile flags: /Ogtp
; File c:\program files (x86)\microsoft visual studio 14.0\vc\include\vector
; File c:\program files (x86)\microsoft visual studio 14.0\vc\include\xmemory
; File c:\program files (x86)\microsoft visual studio 14.0\vc\include\vector
;	COMDAT ??$_Umove@PAUResetItem@@@?$vector@UResetItem@@V?$allocator@UResetItem@@@std@@@std@@IAEPAUResetItem@@PAU2@00@Z
_TEXT	SEGMENT
__First$ = 8						; size = 4
__Last$ = 12						; size = 4
__Cat$1 = 16						; size = 1
__Ptr$ = 16						; size = 4
??$_Umove@PAUResetItem@@@?$vector@UResetItem@@V?$allocator@UResetItem@@@std@@@std@@IAEPAUResetItem@@PAU2@00@Z PROC ; std::vector<ResetItem,std::allocator<ResetItem> >::_Umove<ResetItem *>, COMDAT
; _this$ = ecx

; 1677 : 		{	// move initializing [_First, _Last), using allocator

  00000	55		 push	 ebp
  00001	8b ec		 mov	 ebp, esp
; File c:\program files (x86)\microsoft visual studio 14.0\vc\include\xmemory

; 481  : 	return (_Uninit_move(_First, _Last, _Dest, _Al,

  00003	ff 75 10	 push	 DWORD PTR __Cat$1[ebp]
  00006	6a 00		 push	 0
  00008	51		 push	 ecx
  00009	ff 75 10	 push	 DWORD PTR __Ptr$[ebp]
  0000c	ff 75 0c	 push	 DWORD PTR __Last$[ebp]
  0000f	ff 75 08	 push	 DWORD PTR __First$[ebp]
  00012	e8 00 00 00 00	 call	 ??$_Uninit_move@PAUResetItem@@PAU1@V?$allocator@UResetItem@@@std@@U1@@std@@YAPAUResetItem@@PAU1@00AAU?$_Wrap_alloc@V?$allocator@UResetItem@@@std@@@0@0U_Nonscalar_ptr_iterator_tag@0@@Z ; std::_Uninit_move<ResetItem *,ResetItem *,std::allocator<ResetItem>,ResetItem>
  00017	83 c4 18	 add	 esp, 24			; 00000018H
; File c:\program files (x86)\microsoft visual studio 14.0\vc\include\vector

; 1680 : 		}

  0001a	5d		 pop	 ebp
  0001b	c2 0c 00	 ret	 12			; 0000000cH
??$_Umove@PAUResetItem@@@?$vector@UResetItem@@V?$allocator@UResetItem@@@std@@@std@@IAEPAUResetItem@@PAU2@00@Z ENDP ; std::vector<ResetItem,std::allocator<ResetItem> >::_Umove<ResetItem *>
_TEXT	ENDS
; Function compile flags: /Ogtp
; File c:\program files (x86)\microsoft visual studio 14.0\vc\include\vector
; File c:\program files (x86)\microsoft visual studio 14.0\vc\include\xmemory
; File c:\program files (x86)\microsoft visual studio 14.0\vc\include\vector
;	COMDAT ??$_Umove@PAUResetGroup@@@?$vector@UResetGroup@@V?$allocator@UResetGroup@@@std@@@std@@IAEPAUResetGroup@@PAU2@00@Z
_TEXT	SEGMENT
__First$ = 8						; size = 4
__Last$ = 12						; size = 4
__Cat$1 = 16						; size = 1
__Ptr$ = 16						; size = 4
??$_Umove@PAUResetGroup@@@?$vector@UResetGroup@@V?$allocator@UResetGroup@@@std@@@std@@IAEPAUResetGroup@@PAU2@00@Z PROC ; std::vector<ResetGroup,std::allocator<ResetGroup> >::_Umove<ResetGroup *>, COMDAT
; _this$ = ecx

; 1677 : 		{	// move initializing [_First, _Last), using allocator

  00000	55		 push	 ebp
  00001	8b ec		 mov	 ebp, esp
; File c:\program files (x86)\microsoft visual studio 14.0\vc\include\xmemory

; 481  : 	return (_Uninit_move(_First, _Last, _Dest, _Al,

  00003	ff 75 10	 push	 DWORD PTR __Cat$1[ebp]
  00006	6a 00		 push	 0
  00008	51		 push	 ecx
  00009	ff 75 10	 push	 DWORD PTR __Ptr$[ebp]
  0000c	ff 75 0c	 push	 DWORD PTR __Last$[ebp]
  0000f	ff 75 08	 push	 DWORD PTR __First$[ebp]
  00012	e8 00 00 00 00	 call	 ??$_Uninit_move@PAUResetGroup@@PAU1@V?$allocator@UResetGroup@@@std@@U1@@std@@YAPAUResetGroup@@PAU1@00AAU?$_Wrap_alloc@V?$allocator@UResetGroup@@@std@@@0@0U_Nonscalar_ptr_iterator_tag@0@@Z ; std::_Uninit_move<ResetGroup *,ResetGroup *,std::allocator<ResetGroup>,ResetGroup>
  00017	83 c4 18	 add	 esp, 24			; 00000018H
; File c:\program files (x86)\microsoft visual studio 14.0\vc\include\vector

; 1680 : 		}

  0001a	5d		 pop	 ebp
  0001b	c2 0c 00	 ret	 12			; 0000000cH
??$_Umove@PAUResetGroup@@@?$vector@UResetGroup@@V?$allocator@UResetGroup@@@std@@@std@@IAEPAUResetGroup@@PAU2@00@Z ENDP ; std::vector<ResetGroup,std::allocator<ResetGroup> >::_Umove<ResetGroup *>
_TEXT	ENDS
; Function compile flags: /Ogtp
; File c:\program files (x86)\microsoft visual studio 14.0\vc\include\xutility
; File c:\program files (x86)\microsoft visual studio 14.0\vc\include\vector
; File c:\program files (x86)\microsoft visual studio 14.0\vc\include\xutility
; File c:\program files (x86)\microsoft visual studio 14.0\vc\include\vector
; File c:\program files (x86)\microsoft visual studio 14.0\vc\include\xutility
;	COMDAT ??$?0ABV?$allocator@UResetItem@@@std@@$$V@?$_Compressed_pair@U?$_Wrap_alloc@V?$allocator@UResetItem@@@std@@@std@@V?$_Vector_val@U?$_Simple_types@UResetItem@@@std@@@2@$00@std@@QAE@U_One_then_variadic_args_t@1@ABV?$allocator@UResetItem@@@1@@Z
_TEXT	SEGMENT
___formal$ = 8						; size = 1
__Val1$ = 12						; size = 4
??$?0ABV?$allocator@UResetItem@@@std@@$$V@?$_Compressed_pair@U?$_Wrap_alloc@V?$allocator@UResetItem@@@std@@@std@@V?$_Vector_val@U?$_Simple_types@UResetItem@@@std@@@2@$00@std@@QAE@U_One_then_variadic_args_t@1@ABV?$allocator@UResetItem@@@1@@Z PROC ; std::_Compressed_pair<std::_Wrap_alloc<std::allocator<ResetItem> >,std::_Vector_val<std::_Simple_types<ResetItem> >,1>::_Compressed_pair<std::_Wrap_alloc<std::allocator<ResetItem> >,std::_Vector_val<std::_Simple_types<ResetItem> >,1><std::allocator<ResetItem> const &>, COMDAT
; _this$ = ecx
; File c:\program files (x86)\microsoft visual studio 14.0\vc\include\vector

; 480  : 		_Myfirst = pointer();

  00000	c7 01 00 00 00
	00		 mov	 DWORD PTR [ecx], 0
; File c:\program files (x86)\microsoft visual studio 14.0\vc\include\xutility

; 289  : 		}

  00006	8b c1		 mov	 eax, ecx
; File c:\program files (x86)\microsoft visual studio 14.0\vc\include\vector

; 481  : 		_Mylast = pointer();

  00008	c7 41 04 00 00
	00 00		 mov	 DWORD PTR [ecx+4], 0

; 482  : 		_Myend = pointer();

  0000f	c7 41 08 00 00
	00 00		 mov	 DWORD PTR [ecx+8], 0
; File c:\program files (x86)\microsoft visual studio 14.0\vc\include\xutility

; 289  : 		}

  00016	c2 08 00	 ret	 8
??$?0ABV?$allocator@UResetItem@@@std@@$$V@?$_Compressed_pair@U?$_Wrap_alloc@V?$allocator@UResetItem@@@std@@@std@@V?$_Vector_val@U?$_Simple_types@UResetItem@@@std@@@2@$00@std@@QAE@U_One_then_variadic_args_t@1@ABV?$allocator@UResetItem@@@1@@Z ENDP ; std::_Compressed_pair<std::_Wrap_alloc<std::allocator<ResetItem> >,std::_Vector_val<std::_Simple_types<ResetItem> >,1>::_Compressed_pair<std::_Wrap_alloc<std::allocator<ResetItem> >,std::_Vector_val<std::_Simple_types<ResetItem> >,1><std::allocator<ResetItem> const &>
_TEXT	ENDS
; Function compile flags: /Ogtp
; File c:\program files (x86)\microsoft visual studio 14.0\vc\include\xmemory0
;	COMDAT ??$_Destroy_range@U?$_Wrap_alloc@V?$allocator@UResetGroup@@@std@@@std@@@std@@YAXPAUResetGroup@@0AAU?$_Wrap_alloc@V?$allocator@UResetGroup@@@std@@@0@@Z
_TEXT	SEGMENT
__Cat$1 = -4						; size = 1
__First$ = 8						; size = 4
__Last$ = 12						; size = 4
__Al$ = 16						; size = 4
??$_Destroy_range@U?$_Wrap_alloc@V?$allocator@UResetGroup@@@std@@@std@@@std@@YAXPAUResetGroup@@0AAU?$_Wrap_alloc@V?$allocator@UResetGroup@@@std@@@0@@Z PROC ; std::_Destroy_range<std::_Wrap_alloc<std::allocator<ResetGroup> > >, COMDAT

; 185  : 	{	// destroy [_First, _Last)

  00000	55		 push	 ebp
  00001	8b ec		 mov	 ebp, esp
  00003	51		 push	 ecx

; 186  : 	_Destroy_range(_First, _Last, _Al, _Ptr_cat(_First, _Last));

  00004	ff 75 fc	 push	 DWORD PTR __Cat$1[ebp]
  00007	ff 75 10	 push	 DWORD PTR __Al$[ebp]
  0000a	ff 75 0c	 push	 DWORD PTR __Last$[ebp]
  0000d	ff 75 08	 push	 DWORD PTR __First$[ebp]
  00010	e8 00 00 00 00	 call	 ??$_Destroy_range@U?$_Wrap_alloc@V?$allocator@UResetGroup@@@std@@@std@@@std@@YAXPAUResetGroup@@0AAU?$_Wrap_alloc@V?$allocator@UResetGroup@@@std@@@0@U_Nonscalar_ptr_iterator_tag@0@@Z ; std::_Destroy_range<std::_Wrap_alloc<std::allocator<ResetGroup> > >
  00015	83 c4 10	 add	 esp, 16			; 00000010H

; 187  : 	}

  00018	8b e5		 mov	 esp, ebp
  0001a	5d		 pop	 ebp
  0001b	c3		 ret	 0
??$_Destroy_range@U?$_Wrap_alloc@V?$allocator@UResetGroup@@@std@@@std@@@std@@YAXPAUResetGroup@@0AAU?$_Wrap_alloc@V?$allocator@UResetGroup@@@std@@@0@@Z ENDP ; std::_Destroy_range<std::_Wrap_alloc<std::allocator<ResetGroup> > >
_TEXT	ENDS
; Function compile flags: /Ogtp
; File c:\program files (x86)\microsoft visual studio 14.0\vc\include\xutility
; File c:\program files (x86)\microsoft visual studio 14.0\vc\include\vector
; File c:\program files (x86)\microsoft visual studio 14.0\vc\include\xutility
; File c:\program files (x86)\microsoft visual studio 14.0\vc\include\vector
; File c:\program files (x86)\microsoft visual studio 14.0\vc\include\xutility
;	COMDAT ??$?0ABV?$allocator@UResetGroup@@@std@@$$V@?$_Compressed_pair@U?$_Wrap_alloc@V?$allocator@UResetGroup@@@std@@@std@@V?$_Vector_val@U?$_Simple_types@UResetGroup@@@std@@@2@$00@std@@QAE@U_One_then_variadic_args_t@1@ABV?$allocator@UResetGroup@@@1@@Z
_TEXT	SEGMENT
___formal$ = 8						; size = 1
__Val1$ = 12						; size = 4
??$?0ABV?$allocator@UResetGroup@@@std@@$$V@?$_Compressed_pair@U?$_Wrap_alloc@V?$allocator@UResetGroup@@@std@@@std@@V?$_Vector_val@U?$_Simple_types@UResetGroup@@@std@@@2@$00@std@@QAE@U_One_then_variadic_args_t@1@ABV?$allocator@UResetGroup@@@1@@Z PROC ; std::_Compressed_pair<std::_Wrap_alloc<std::allocator<ResetGroup> >,std::_Vector_val<std::_Simple_types<ResetGroup> >,1>::_Compressed_pair<std::_Wrap_alloc<std::allocator<ResetGroup> >,std::_Vector_val<std::_Simple_types<ResetGroup> >,1><std::allocator<ResetGroup> const &>, COMDAT
; _this$ = ecx
; File c:\program files (x86)\microsoft visual studio 14.0\vc\include\vector

; 480  : 		_Myfirst = pointer();

  00000	c7 01 00 00 00
	00		 mov	 DWORD PTR [ecx], 0
; File c:\program files (x86)\microsoft visual studio 14.0\vc\include\xutility

; 289  : 		}

  00006	8b c1		 mov	 eax, ecx
; File c:\program files (x86)\microsoft visual studio 14.0\vc\include\vector

; 481  : 		_Mylast = pointer();

  00008	c7 41 04 00 00
	00 00		 mov	 DWORD PTR [ecx+4], 0

; 482  : 		_Myend = pointer();

  0000f	c7 41 08 00 00
	00 00		 mov	 DWORD PTR [ecx+8], 0
; File c:\program files (x86)\microsoft visual studio 14.0\vc\include\xutility

; 289  : 		}

  00016	c2 08 00	 ret	 8
??$?0ABV?$allocator@UResetGroup@@@std@@$$V@?$_Compressed_pair@U?$_Wrap_alloc@V?$allocator@UResetGroup@@@std@@@std@@V?$_Vector_val@U?$_Simple_types@UResetGroup@@@std@@@2@$00@std@@QAE@U_One_then_variadic_args_t@1@ABV?$allocator@UResetGroup@@@1@@Z ENDP ; std::_Compressed_pair<std::_Wrap_alloc<std::allocator<ResetGroup> >,std::_Vector_val<std::_Simple_types<ResetGroup> >,1>::_Compressed_pair<std::_Wrap_alloc<std::allocator<ResetGroup> >,std::_Vector_val<std::_Simple_types<ResetGroup> >,1><std::allocator<ResetGroup> const &>
_TEXT	ENDS
; Function compile flags: /Ogtp
; File c:\program files (x86)\microsoft visual studio 14.0\vc\include\xmemory0
;	COMDAT ??$_Pocs@U?$_Wrap_alloc@V?$allocator@UResetGroup@@@std@@@std@@@std@@YAXAAU?$_Wrap_alloc@V?$allocator@UResetGroup@@@std@@@0@0@Z
_TEXT	SEGMENT
__Left$ = 8						; size = 4
__Right$ = 12						; size = 4
??$_Pocs@U?$_Wrap_alloc@V?$allocator@UResetGroup@@@std@@@std@@@std@@YAXAAU?$_Wrap_alloc@V?$allocator@UResetGroup@@@std@@@0@0@Z PROC ; std::_Pocs<std::_Wrap_alloc<std::allocator<ResetGroup> > >, COMDAT

; 1004 : 	typename _Alty::propagate_on_container_swap _Tag;
; 1005 : 	_Pocs(_Left, _Right, _Tag);
; 1006 : 	}

  00000	c3		 ret	 0
??$_Pocs@U?$_Wrap_alloc@V?$allocator@UResetGroup@@@std@@@std@@@std@@YAXAAU?$_Wrap_alloc@V?$allocator@UResetGroup@@@std@@@0@0@Z ENDP ; std::_Pocs<std::_Wrap_alloc<std::allocator<ResetGroup> > >
_TEXT	ENDS
; Function compile flags: /Ogtp
; File c:\program files (x86)\microsoft visual studio 14.0\vc\include\xmemory0
;	COMDAT ??$construct@UResetItem@@ABU1@@?$_Wrap_alloc@V?$allocator@UResetItem@@@std@@@std@@QAEXPAUResetItem@@ABU2@@Z
_TEXT	SEGMENT
__Ptr$ = 8						; size = 4
_<_Args_0>$ = 12					; size = 4
??$construct@UResetItem@@ABU1@@?$_Wrap_alloc@V?$allocator@UResetItem@@@std@@@std@@QAEXPAUResetItem@@ABU2@@Z PROC ; std::_Wrap_alloc<std::allocator<ResetItem> >::construct<ResetItem,ResetItem const &>, COMDAT
; _this$ = ecx

; 916  : 		{	// construct _Ty(_Types...) at _Ptr

  00000	55		 push	 ebp
  00001	8b ec		 mov	 ebp, esp

; 655  : 		::new ((void *)_Ptr) _Objty(_STD forward<_Types>(_Args)...);

  00003	8b 4d 08	 mov	 ecx, DWORD PTR __Ptr$[ebp]
  00006	85 c9		 test	 ecx, ecx
  00008	74 13		 je	 SHORT $LN13@construct
  0000a	8b 45 0c	 mov	 eax, DWORD PTR _<_Args_0>$[ebp]
  0000d	0f 10 00	 movups	 xmm0, XMMWORD PTR [eax]
  00010	0f 11 01	 movups	 XMMWORD PTR [ecx], xmm0
  00013	f3 0f 7e 40 10	 movq	 xmm0, QWORD PTR [eax+16]
  00018	66 0f d6 41 10	 movq	 QWORD PTR [ecx+16], xmm0
$LN13@construct:

; 917  : 		_Mytraits::construct(*this, _Ptr,
; 918  : 			_STD forward<_Types>(_Args)...);
; 919  : 		}

  0001d	5d		 pop	 ebp
  0001e	c2 08 00	 ret	 8
??$construct@UResetItem@@ABU1@@?$_Wrap_alloc@V?$allocator@UResetItem@@@std@@@std@@QAEXPAUResetItem@@ABU2@@Z ENDP ; std::_Wrap_alloc<std::allocator<ResetItem> >::construct<ResetItem,ResetItem const &>
_TEXT	ENDS
; Function compile flags: /Ogtp
; File c:\program files (x86)\microsoft visual studio 14.0\vc\include\xmemory0
;	COMDAT ??$construct@UResetItem@@AAU1@@?$_Wrap_alloc@V?$allocator@UResetItem@@@std@@@std@@QAEXPAUResetItem@@AAU2@@Z
_TEXT	SEGMENT
__Ptr$ = 8						; size = 4
_<_Args_0>$ = 12					; size = 4
??$construct@UResetItem@@AAU1@@?$_Wrap_alloc@V?$allocator@UResetItem@@@std@@@std@@QAEXPAUResetItem@@AAU2@@Z PROC ; std::_Wrap_alloc<std::allocator<ResetItem> >::construct<ResetItem,ResetItem &>, COMDAT
; _this$ = ecx

; 916  : 		{	// construct _Ty(_Types...) at _Ptr

  00000	55		 push	 ebp
  00001	8b ec		 mov	 ebp, esp

; 655  : 		::new ((void *)_Ptr) _Objty(_STD forward<_Types>(_Args)...);

  00003	8b 4d 08	 mov	 ecx, DWORD PTR __Ptr$[ebp]
  00006	85 c9		 test	 ecx, ecx
  00008	74 13		 je	 SHORT $LN13@construct
  0000a	8b 45 0c	 mov	 eax, DWORD PTR _<_Args_0>$[ebp]
  0000d	0f 10 00	 movups	 xmm0, XMMWORD PTR [eax]
  00010	0f 11 01	 movups	 XMMWORD PTR [ecx], xmm0
  00013	f3 0f 7e 40 10	 movq	 xmm0, QWORD PTR [eax+16]
  00018	66 0f d6 41 10	 movq	 QWORD PTR [ecx+16], xmm0
$LN13@construct:

; 917  : 		_Mytraits::construct(*this, _Ptr,
; 918  : 			_STD forward<_Types>(_Args)...);
; 919  : 		}

  0001d	5d		 pop	 ebp
  0001e	c2 08 00	 ret	 8
??$construct@UResetItem@@AAU1@@?$_Wrap_alloc@V?$allocator@UResetItem@@@std@@@std@@QAEXPAUResetItem@@AAU2@@Z ENDP ; std::_Wrap_alloc<std::allocator<ResetItem> >::construct<ResetItem,ResetItem &>
_TEXT	ENDS
; Function compile flags: /Ogtp
; File c:\program files (x86)\microsoft visual studio 14.0\vc\include\xstddef
;	COMDAT ??$addressof@$$CBUResetItem@@@std@@YAPBUResetItem@@ABU1@@Z
_TEXT	SEGMENT
__Val$ = 8						; size = 4
??$addressof@$$CBUResetItem@@@std@@YAPBUResetItem@@ABU1@@Z PROC ; std::addressof<ResetItem const >, COMDAT

; 696  : 	{	// return address of _Val

  00000	55		 push	 ebp
  00001	8b ec		 mov	 ebp, esp

; 697  : 	return (_Addressof(_Val, is_function<_Ty>()));

  00003	8b 45 08	 mov	 eax, DWORD PTR __Val$[ebp]

; 698  : 	}

  00006	5d		 pop	 ebp
  00007	c3		 ret	 0
??$addressof@$$CBUResetItem@@@std@@YAPBUResetItem@@ABU1@@Z ENDP ; std::addressof<ResetItem const >
_TEXT	ENDS
; Function compile flags: /Ogtp
; File c:\program files (x86)\microsoft visual studio 14.0\vc\include\xmemory0
;	COMDAT ??$construct@UResetGroup@@ABU1@@?$_Wrap_alloc@V?$allocator@UResetGroup@@@std@@@std@@QAEXPAUResetGroup@@ABU2@@Z
_TEXT	SEGMENT
$T2 = -16						; size = 4
__$EHRec$ = -12						; size = 12
__Ptr$ = 8						; size = 4
_<_Args_0>$ = 12					; size = 4
??$construct@UResetGroup@@ABU1@@?$_Wrap_alloc@V?$allocator@UResetGroup@@@std@@@std@@QAEXPAUResetGroup@@ABU2@@Z PROC ; std::_Wrap_alloc<std::allocator<ResetGroup> >::construct<ResetGroup,ResetGroup const &>, COMDAT
; _this$ = ecx

; 916  : 		{	// construct _Ty(_Types...) at _Ptr

  00000	55		 push	 ebp
  00001	8b ec		 mov	 ebp, esp
  00003	6a ff		 push	 -1
  00005	68 00 00 00 00	 push	 __ehhandler$??$construct@UResetGroup@@ABU1@@?$_Wrap_alloc@V?$allocator@UResetGroup@@@std@@@std@@QAEXPAUResetGroup@@ABU2@@Z
  0000a	64 a1 00 00 00
	00		 mov	 eax, DWORD PTR fs:0
  00010	50		 push	 eax
  00011	51		 push	 ecx
  00012	a1 00 00 00 00	 mov	 eax, DWORD PTR ___security_cookie
  00017	33 c5		 xor	 eax, ebp
  00019	50		 push	 eax
  0001a	8d 45 f4	 lea	 eax, DWORD PTR __$EHRec$[ebp]
  0001d	64 a3 00 00 00
	00		 mov	 DWORD PTR fs:0, eax

; 655  : 		::new ((void *)_Ptr) _Objty(_STD forward<_Types>(_Args)...);

  00023	8b 4d 08	 mov	 ecx, DWORD PTR __Ptr$[ebp]
  00026	89 4d f0	 mov	 DWORD PTR $T2[ebp], ecx
  00029	c7 45 fc 00 00
	00 00		 mov	 DWORD PTR __$EHRec$[ebp+8], 0
  00030	85 c9		 test	 ecx, ecx
  00032	74 08		 je	 SHORT $LN13@construct
  00034	ff 75 0c	 push	 DWORD PTR _<_Args_0>$[ebp]
  00037	e8 00 00 00 00	 call	 ??0ResetGroup@@QAE@ABU0@@Z
$LN13@construct:

; 917  : 		_Mytraits::construct(*this, _Ptr,
; 918  : 			_STD forward<_Types>(_Args)...);
; 919  : 		}

  0003c	8b 4d f4	 mov	 ecx, DWORD PTR __$EHRec$[ebp]
  0003f	64 89 0d 00 00
	00 00		 mov	 DWORD PTR fs:0, ecx
  00046	59		 pop	 ecx
  00047	8b e5		 mov	 esp, ebp
  00049	5d		 pop	 ebp
  0004a	c2 08 00	 ret	 8
_TEXT	ENDS
;	COMDAT text$x
text$x	SEGMENT
__unwindfunclet$??$construct@UResetGroup@@ABU1@@?$_Wrap_alloc@V?$allocator@UResetGroup@@@std@@@std@@QAEXPAUResetGroup@@ABU2@@Z$2:
  00000	8b 45 08	 mov	 eax, DWORD PTR __Ptr$[ebp]
  00003	50		 push	 eax
  00004	8b 45 f0	 mov	 eax, DWORD PTR $T2[ebp]
  00007	50		 push	 eax
  00008	e8 00 00 00 00	 call	 ??3@YAXPAX0@Z		; operator delete
  0000d	83 c4 08	 add	 esp, 8
  00010	c3		 ret	 0
__ehhandler$??$construct@UResetGroup@@ABU1@@?$_Wrap_alloc@V?$allocator@UResetGroup@@@std@@@std@@QAEXPAUResetGroup@@ABU2@@Z:
  00011	8b 54 24 08	 mov	 edx, DWORD PTR [esp+8]
  00015	8d 42 0c	 lea	 eax, DWORD PTR [edx+12]
  00018	8b 4a f8	 mov	 ecx, DWORD PTR [edx-8]
  0001b	33 c8		 xor	 ecx, eax
  0001d	e8 00 00 00 00	 call	 @__security_check_cookie@4
  00022	b8 00 00 00 00	 mov	 eax, OFFSET __ehfuncinfo$??$construct@UResetGroup@@ABU1@@?$_Wrap_alloc@V?$allocator@UResetGroup@@@std@@@std@@QAEXPAUResetGroup@@ABU2@@Z
  00027	e9 00 00 00 00	 jmp	 ___CxxFrameHandler3
text$x	ENDS
??$construct@UResetGroup@@ABU1@@?$_Wrap_alloc@V?$allocator@UResetGroup@@@std@@@std@@QAEXPAUResetGroup@@ABU2@@Z ENDP ; std::_Wrap_alloc<std::allocator<ResetGroup> >::construct<ResetGroup,ResetGroup const &>
; Function compile flags: /Ogtp
; File c:\program files (x86)\microsoft visual studio 14.0\vc\include\xmemory0
;	COMDAT ??$construct@UResetGroup@@AAU1@@?$_Wrap_alloc@V?$allocator@UResetGroup@@@std@@@std@@QAEXPAUResetGroup@@AAU2@@Z
_TEXT	SEGMENT
$T2 = -16						; size = 4
__$EHRec$ = -12						; size = 12
__Ptr$ = 8						; size = 4
_<_Args_0>$ = 12					; size = 4
??$construct@UResetGroup@@AAU1@@?$_Wrap_alloc@V?$allocator@UResetGroup@@@std@@@std@@QAEXPAUResetGroup@@AAU2@@Z PROC ; std::_Wrap_alloc<std::allocator<ResetGroup> >::construct<ResetGroup,ResetGroup &>, COMDAT
; _this$ = ecx

; 916  : 		{	// construct _Ty(_Types...) at _Ptr

  00000	55		 push	 ebp
  00001	8b ec		 mov	 ebp, esp
  00003	6a ff		 push	 -1
  00005	68 00 00 00 00	 push	 __ehhandler$??$construct@UResetGroup@@AAU1@@?$_Wrap_alloc@V?$allocator@UResetGroup@@@std@@@std@@QAEXPAUResetGroup@@AAU2@@Z
  0000a	64 a1 00 00 00
	00		 mov	 eax, DWORD PTR fs:0
  00010	50		 push	 eax
  00011	51		 push	 ecx
  00012	a1 00 00 00 00	 mov	 eax, DWORD PTR ___security_cookie
  00017	33 c5		 xor	 eax, ebp
  00019	50		 push	 eax
  0001a	8d 45 f4	 lea	 eax, DWORD PTR __$EHRec$[ebp]
  0001d	64 a3 00 00 00
	00		 mov	 DWORD PTR fs:0, eax

; 655  : 		::new ((void *)_Ptr) _Objty(_STD forward<_Types>(_Args)...);

  00023	8b 4d 08	 mov	 ecx, DWORD PTR __Ptr$[ebp]
  00026	89 4d f0	 mov	 DWORD PTR $T2[ebp], ecx
  00029	c7 45 fc 00 00
	00 00		 mov	 DWORD PTR __$EHRec$[ebp+8], 0
  00030	85 c9		 test	 ecx, ecx
  00032	74 08		 je	 SHORT $LN13@construct
  00034	ff 75 0c	 push	 DWORD PTR _<_Args_0>$[ebp]
  00037	e8 00 00 00 00	 call	 ??0ResetGroup@@QAE@ABU0@@Z
$LN13@construct:

; 917  : 		_Mytraits::construct(*this, _Ptr,
; 918  : 			_STD forward<_Types>(_Args)...);
; 919  : 		}

  0003c	8b 4d f4	 mov	 ecx, DWORD PTR __$EHRec$[ebp]
  0003f	64 89 0d 00 00
	00 00		 mov	 DWORD PTR fs:0, ecx
  00046	59		 pop	 ecx
  00047	8b e5		 mov	 esp, ebp
  00049	5d		 pop	 ebp
  0004a	c2 08 00	 ret	 8
_TEXT	ENDS
;	COMDAT text$x
text$x	SEGMENT
__unwindfunclet$??$construct@UResetGroup@@AAU1@@?$_Wrap_alloc@V?$allocator@UResetGroup@@@std@@@std@@QAEXPAUResetGroup@@AAU2@@Z$2:
  00000	8b 45 08	 mov	 eax, DWORD PTR __Ptr$[ebp]
  00003	50		 push	 eax
  00004	8b 45 f0	 mov	 eax, DWORD PTR $T2[ebp]
  00007	50		 push	 eax
  00008	e8 00 00 00 00	 call	 ??3@YAXPAX0@Z		; operator delete
  0000d	83 c4 08	 add	 esp, 8
  00010	c3		 ret	 0
__ehhandler$??$construct@UResetGroup@@AAU1@@?$_Wrap_alloc@V?$allocator@UResetGroup@@@std@@@std@@QAEXPAUResetGroup@@AAU2@@Z:
  00011	8b 54 24 08	 mov	 edx, DWORD PTR [esp+8]
  00015	8d 42 0c	 lea	 eax, DWORD PTR [edx+12]
  00018	8b 4a f8	 mov	 ecx, DWORD PTR [edx-8]
  0001b	33 c8		 xor	 ecx, eax
  0001d	e8 00 00 00 00	 call	 @__security_check_cookie@4
  00022	b8 00 00 00 00	 mov	 eax, OFFSET __ehfuncinfo$??$construct@UResetGroup@@AAU1@@?$_Wrap_alloc@V?$allocator@UResetGroup@@@std@@@std@@QAEXPAUResetGroup@@AAU2@@Z
  00027	e9 00 00 00 00	 jmp	 ___CxxFrameHandler3
text$x	ENDS
??$construct@UResetGroup@@AAU1@@?$_Wrap_alloc@V?$allocator@UResetGroup@@@std@@@std@@QAEXPAUResetGroup@@AAU2@@Z ENDP ; std::_Wrap_alloc<std::allocator<ResetGroup> >::construct<ResetGroup,ResetGroup &>
; Function compile flags: /Ogtp
; File c:\program files (x86)\microsoft visual studio 14.0\vc\include\xstddef
;	COMDAT ??$addressof@$$CBUResetGroup@@@std@@YAPBUResetGroup@@ABU1@@Z
_TEXT	SEGMENT
__Val$ = 8						; size = 4
??$addressof@$$CBUResetGroup@@@std@@YAPBUResetGroup@@ABU1@@Z PROC ; std::addressof<ResetGroup const >, COMDAT

; 696  : 	{	// return address of _Val

  00000	55		 push	 ebp
  00001	8b ec		 mov	 ebp, esp

; 697  : 	return (_Addressof(_Val, is_function<_Ty>()));

  00003	8b 45 08	 mov	 eax, DWORD PTR __Val$[ebp]

; 698  : 	}

  00006	5d		 pop	 ebp
  00007	c3		 ret	 0
??$addressof@$$CBUResetGroup@@@std@@YAPBUResetGroup@@ABU1@@Z ENDP ; std::addressof<ResetGroup const >
_TEXT	ENDS
; Function compile flags: /Ogtp
; File c:\program files (x86)\microsoft visual studio 14.0\vc\include\utility
;	COMDAT ??$swap@PAUResetGroup@@@std@@YAXAAPAUResetGroup@@0@Z
_TEXT	SEGMENT
__Left$ = 8						; size = 4
__Right$ = 12						; size = 4
??$swap@PAUResetGroup@@@std@@YAXAAPAUResetGroup@@0@Z PROC ; std::swap<ResetGroup *>, COMDAT

; 51   : 	{	// exchange values stored at _Left and _Right

  00000	55		 push	 ebp
  00001	8b ec		 mov	 ebp, esp

; 52   : 	_Ty _Tmp = _Move(_Left);

  00003	8b 55 08	 mov	 edx, DWORD PTR __Left$[ebp]

; 53   : 	_Left = _Move(_Right);

  00006	8b 4d 0c	 mov	 ecx, DWORD PTR __Right$[ebp]
  00009	56		 push	 esi
  0000a	8b 32		 mov	 esi, DWORD PTR [edx]
  0000c	8b 01		 mov	 eax, DWORD PTR [ecx]
  0000e	89 02		 mov	 DWORD PTR [edx], eax

; 54   : 	_Right = _Move(_Tmp);

  00010	89 31		 mov	 DWORD PTR [ecx], esi
  00012	5e		 pop	 esi

; 55   : 	}

  00013	5d		 pop	 ebp
  00014	c3		 ret	 0
??$swap@PAUResetGroup@@@std@@YAXAAPAUResetGroup@@0@Z ENDP ; std::swap<ResetGroup *>
_TEXT	ENDS
; Function compile flags: /Ogtp
; File c:\program files (x86)\microsoft visual studio 14.0\vc\include\utility
;	COMDAT ??$_Swap_adl@PAUResetGroup@@@std@@YAXAAPAUResetGroup@@0@Z
_TEXT	SEGMENT
__Left$ = 8						; size = 4
__Right$ = 12						; size = 4
??$_Swap_adl@PAUResetGroup@@@std@@YAXAAPAUResetGroup@@0@Z PROC ; std::_Swap_adl<ResetGroup *>, COMDAT

; 61   : 	{	// exchange values stored at _Left and _Right, using ADL

  00000	55		 push	 ebp
  00001	8b ec		 mov	 ebp, esp

; 52   : 	_Ty _Tmp = _Move(_Left);

  00003	8b 55 08	 mov	 edx, DWORD PTR __Left$[ebp]

; 53   : 	_Left = _Move(_Right);

  00006	8b 4d 0c	 mov	 ecx, DWORD PTR __Right$[ebp]
  00009	56		 push	 esi

; 52   : 	_Ty _Tmp = _Move(_Left);

  0000a	8b 32		 mov	 esi, DWORD PTR [edx]

; 53   : 	_Left = _Move(_Right);

  0000c	8b 01		 mov	 eax, DWORD PTR [ecx]
  0000e	89 02		 mov	 DWORD PTR [edx], eax

; 54   : 	_Right = _Move(_Tmp);

  00010	89 31		 mov	 DWORD PTR [ecx], esi
  00012	5e		 pop	 esi

; 62   : 	swap(_Left, _Right);
; 63   : 	}

  00013	5d		 pop	 ebp
  00014	c3		 ret	 0
??$_Swap_adl@PAUResetGroup@@@std@@YAXAAPAUResetGroup@@0@Z ENDP ; std::_Swap_adl<ResetGroup *>
_TEXT	ENDS
; Function compile flags: /Ogtp
; File c:\program files (x86)\microsoft visual studio 14.0\vc\include\xmemory0
;	COMDAT ??$?8UResetGroup@@U0@@std@@YA_NABV?$allocator@UResetGroup@@@0@0@Z
_TEXT	SEGMENT
___formal$ = 8						; size = 4
___formal$ = 12						; size = 4
??$?8UResetGroup@@U0@@std@@YA_NABV?$allocator@UResetGroup@@@0@0@Z PROC ; std::operator==<ResetGroup,ResetGroup>, COMDAT

; 712  : 	return (true);

  00000	b0 01		 mov	 al, 1

; 713  : 	}

  00002	c3		 ret	 0
??$?8UResetGroup@@U0@@std@@YA_NABV?$allocator@UResetGroup@@@0@0@Z ENDP ; std::operator==<ResetGroup,ResetGroup>
_TEXT	ENDS
; Function compile flags: /Ogtp
; File c:\program files (x86)\microsoft visual studio 14.0\vc\include\xmemory0
;	COMDAT ??$?8V?$allocator@UResetGroup@@@std@@V01@@std@@YA_NABU?$_Wrap_alloc@V?$allocator@UResetGroup@@@std@@@0@0@Z
_TEXT	SEGMENT
__Left$ = 8						; size = 4
__Right$ = 12						; size = 4
??$?8V?$allocator@UResetGroup@@@std@@V01@@std@@YA_NABU?$_Wrap_alloc@V?$allocator@UResetGroup@@@std@@@0@0@Z PROC ; std::operator==<std::allocator<ResetGroup>,std::allocator<ResetGroup> >, COMDAT

; 939  : 	return (static_cast<const _Ty&>(_Left)

  00000	b0 01		 mov	 al, 1

; 940  : 		== static_cast<const _Other&>(_Right));
; 941  : 	}

  00002	c3		 ret	 0
??$?8V?$allocator@UResetGroup@@@std@@V01@@std@@YA_NABU?$_Wrap_alloc@V?$allocator@UResetGroup@@@std@@@0@0@Z ENDP ; std::operator==<std::allocator<ResetGroup>,std::allocator<ResetGroup> >
_TEXT	ENDS
; Function compile flags: /Ogtp
;	COMDAT ??__Fg_ResetSystem@@YAXXZ
text$yd	SEGMENT
??__Fg_ResetSystem@@YAXXZ PROC				; `dynamic atexit destructor for 'g_ResetSystem'', COMDAT
  00000	b9 00 00 00 00	 mov	 ecx, OFFSET ?g_ResetSystem@@3VResetSystem@@A ; g_ResetSystem
  00005	e9 00 00 00 00	 jmp	 ??1ResetSystem@@UAE@XZ	; ResetSystem::~ResetSystem
??__Fg_ResetSystem@@YAXXZ ENDP				; `dynamic atexit destructor for 'g_ResetSystem''
text$yd	ENDS
; Function compile flags: /Ogtp
; File c:\users\michel\desktop\source\gameserver\source\resetsystem.cpp
;	COMDAT ??__Eg_ResetSystem@@YAXXZ
text$di	SEGMENT
??__Eg_ResetSystem@@YAXXZ PROC				; `dynamic initializer for 'g_ResetSystem'', COMDAT

; 11   : ResetSystem g_ResetSystem;

  00000	b9 00 00 00 00	 mov	 ecx, OFFSET ?g_ResetSystem@@3VResetSystem@@A ; g_ResetSystem
  00005	e8 00 00 00 00	 call	 ??0ResetSystem@@QAE@XZ	; ResetSystem::ResetSystem
  0000a	68 00 00 00 00	 push	 OFFSET ??__Fg_ResetSystem@@YAXXZ ; `dynamic atexit destructor for 'g_ResetSystem''
  0000f	e8 00 00 00 00	 call	 _atexit
  00014	59		 pop	 ecx
  00015	c3		 ret	 0
??__Eg_ResetSystem@@YAXXZ ENDP				; `dynamic initializer for 'g_ResetSystem''
text$di	ENDS
; Function compile flags: /Ogtp
;	COMDAT ??_GResetSystem@@UAEPAXI@Z
_TEXT	SEGMENT
___flags$ = 8						; size = 4
??_GResetSystem@@UAEPAXI@Z PROC				; ResetSystem::`scalar deleting destructor', COMDAT
; _this$ = ecx
  00000	55		 push	 ebp
  00001	8b ec		 mov	 ebp, esp
  00003	56		 push	 esi
  00004	8b f1		 mov	 esi, ecx
  00006	e8 00 00 00 00	 call	 ??1ResetSystem@@UAE@XZ	; ResetSystem::~ResetSystem
  0000b	f6 45 08 01	 test	 BYTE PTR ___flags$[ebp], 1
  0000f	74 0b		 je	 SHORT $LN4@scalar
  00011	6a 30		 push	 48			; 00000030H
  00013	56		 push	 esi
  00014	e8 00 00 00 00	 call	 ??3@YAXPAXI@Z		; operator delete
  00019	83 c4 08	 add	 esp, 8
$LN4@scalar:
  0001c	8b c6		 mov	 eax, esi
  0001e	5e		 pop	 esi
  0001f	5d		 pop	 ebp
  00020	c2 04 00	 ret	 4
??_GResetSystem@@UAEPAXI@Z ENDP				; ResetSystem::`scalar deleting destructor'
_TEXT	ENDS
; Function compile flags: /Ogtp
; File c:\users\michel\desktop\source\gameserver\source\resetsystem.cpp
; File c:\program files (x86)\microsoft visual studio 14.0\vc\include\vector
; File c:\users\michel\desktop\source\gameserver\source\resetsystem.cpp
; File c:\program files (x86)\microsoft visual studio 14.0\vc\include\vector
; File c:\users\michel\desktop\source\gameserver\source\resetsystem.cpp
; File c:\program files (x86)\microsoft visual studio 14.0\vc\include\vector
; File c:\users\michel\desktop\source\gameserver\source\resetsystem.cpp
; File c:\program files (x86)\microsoft visual studio 14.0\vc\include\xutility
; File c:\users\michel\desktop\source\gameserver\source\resetsystem.cpp
; File c:\program files (x86)\microsoft visual studio 14.0\vc\include\vector
; File c:\users\michel\desktop\source\gameserver\source\resetsystem.cpp
; File c:\program files (x86)\microsoft visual studio 14.0\vc\include\vector
; File c:\users\michel\desktop\source\gameserver\source\resetsystem.cpp
; File c:\program files (x86)\microsoft visual studio 14.0\vc\include\vector
; File c:\users\michel\desktop\source\gameserver\source\resetsystem.cpp
; File c:\program files (x86)\microsoft visual studio 14.0\vc\include\vector
; File c:\users\michel\desktop\source\gameserver\source\resetsystem.cpp
; File c:\program files (x86)\microsoft visual studio 14.0\vc\include\xutility
; File c:\users\michel\desktop\source\gameserver\source\resetsystem.cpp
; File c:\program files (x86)\microsoft visual studio 14.0\vc\include\vector
; File c:\users\michel\desktop\source\gameserver\source\resetsystem.cpp
;	COMDAT ?GetResetGroup@ResetSystem@@AAEPAUResetGroup@@PAUOBJECTSTRUCT@@W4T@ResetType@@@Z
_TEXT	SEGMENT
_this$1$ = -4						; size = 4
_lpUser$ = 8						; size = 4
_Type$ = 12						; size = 4
?GetResetGroup@ResetSystem@@AAEPAUResetGroup@@PAUOBJECTSTRUCT@@W4T@ResetType@@@Z PROC ; ResetSystem::GetResetGroup, COMDAT
; _this$ = ecx

; 943  : {

  00000	55		 push	 ebp
  00001	8b ec		 mov	 ebp, esp
  00003	51		 push	 ecx

; 944  : 	if (Type == ResetType::Normal)

  00004	8b 45 0c	 mov	 eax, DWORD PTR _Type$[ebp]
  00007	53		 push	 ebx
  00008	8b d9		 mov	 ebx, ecx
  0000a	89 5d fc	 mov	 DWORD PTR _this$1$[ebp], ebx
  0000d	56		 push	 esi
  0000e	57		 push	 edi
  0000f	85 c0		 test	 eax, eax
  00011	75 7b		 jne	 SHORT $LN8@GetResetGr
; File c:\program files (x86)\microsoft visual studio 14.0\vc\include\vector

; 1179 : 		return (this->_Mylast() - this->_Myfirst());

  00013	8b 53 10	 mov	 edx, DWORD PTR [ebx+16]
  00016	b8 6b 4c a4 07	 mov	 eax, 128207979		; 07a44c6bH
  0001b	2b 53 0c	 sub	 edx, DWORD PTR [ebx+12]
; File c:\users\michel\desktop\source\gameserver\source\resetsystem.cpp

; 946  : 		for (int i = 0; i < this->m_NormalInfo.m_GroupList.size(); i++)

  0001e	33 ff		 xor	 edi, edi
; File c:\program files (x86)\microsoft visual studio 14.0\vc\include\vector

; 1179 : 		return (this->_Mylast() - this->_Myfirst());

  00020	f7 ea		 imul	 edx
  00022	c1 fa 03	 sar	 edx, 3
  00025	8b c2		 mov	 eax, edx
  00027	c1 e8 1f	 shr	 eax, 31			; 0000001fH
  0002a	03 c2		 add	 eax, edx
; File c:\users\michel\desktop\source\gameserver\source\resetsystem.cpp

; 946  : 		for (int i = 0; i < this->m_NormalInfo.m_GroupList.size(); i++)

  0002c	74 40		 je	 SHORT $LN133@GetResetGr

; 949  : 				|| lpUser->iResetCount + 1 > this->m_NormalInfo.m_GroupList[i].MaxReset)

  0002e	8b 4d 08	 mov	 ecx, DWORD PTR _lpUser$[ebp]
  00031	8b 45 fc	 mov	 eax, DWORD PTR _this$1$[ebp]
; File c:\program files (x86)\microsoft visual studio 14.0\vc\include\vector

; 1240 : 		return (*(this->_Myfirst() + _Pos));

  00034	8b 73 0c	 mov	 esi, DWORD PTR [ebx+12]
; File c:\users\michel\desktop\source\gameserver\source\resetsystem.cpp

; 949  : 				|| lpUser->iResetCount + 1 > this->m_NormalInfo.m_GroupList[i].MaxReset)

  00037	8b 99 20 27 00
	00		 mov	 ebx, DWORD PTR [ecx+10016]
  0003d	8b 48 10	 mov	 ecx, DWORD PTR [eax+16]
  00040	2b 48 0c	 sub	 ecx, DWORD PTR [eax+12]
  00043	b8 6b 4c a4 07	 mov	 eax, 128207979		; 07a44c6bH
  00048	f7 e9		 imul	 ecx
  0004a	c1 fa 03	 sar	 edx, 3
  0004d	8b ca		 mov	 ecx, edx
  0004f	c1 e9 1f	 shr	 ecx, 31			; 0000001fH
  00052	03 ca		 add	 ecx, edx
; File c:\program files (x86)\microsoft visual studio 14.0\vc\include\xutility

; 314  : 		return (_Myval2);

  00054	83 c6 08	 add	 esi, 8
$LL4@GetResetGr:
; File c:\users\michel\desktop\source\gameserver\source\resetsystem.cpp

; 949  : 				|| lpUser->iResetCount + 1 > this->m_NormalInfo.m_GroupList[i].MaxReset)

  00057	3b 5e fc	 cmp	 ebx, DWORD PTR [esi-4]
  0005a	7c 07		 jl	 SHORT $LN2@GetResetGr
  0005c	8d 43 01	 lea	 eax, DWORD PTR [ebx+1]
  0005f	3b 06		 cmp	 eax, DWORD PTR [esi]
  00061	7e 16		 jle	 SHORT $LN10@GetResetGr
$LN2@GetResetGr:

; 946  : 		for (int i = 0; i < this->m_NormalInfo.m_GroupList.size(); i++)

  00063	47		 inc	 edi
  00064	81 c6 0c 01 00
	00		 add	 esi, 268		; 0000010cH
  0006a	3b f9		 cmp	 edi, ecx
  0006c	72 e9		 jb	 SHORT $LL4@GetResetGr
$LN133@GetResetGr:
  0006e	5f		 pop	 edi
  0006f	5e		 pop	 esi

; 963  : 			{
; 964  : 				continue;
; 965  : 			}
; 966  : 
; 967  : 			return &this->m_GrandInfo.m_GroupList[i];
; 968  : 		}
; 969  : 	}
; 970  : 
; 971  : 	return NULL;

  00070	33 c0		 xor	 eax, eax
  00072	5b		 pop	 ebx

; 972  : }

  00073	8b e5		 mov	 esp, ebp
  00075	5d		 pop	 ebp
  00076	c2 08 00	 ret	 8
$LN10@GetResetGr:
; File c:\program files (x86)\microsoft visual studio 14.0\vc\include\vector

; 1240 : 		return (*(this->_Myfirst() + _Pos));

  00079	8b 4d fc	 mov	 ecx, DWORD PTR _this$1$[ebp]
  0007c	69 c7 0c 01 00
	00		 imul	 eax, edi, 268
  00082	5f		 pop	 edi
  00083	5e		 pop	 esi
  00084	5b		 pop	 ebx
  00085	03 41 0c	 add	 eax, DWORD PTR [ecx+12]
; File c:\users\michel\desktop\source\gameserver\source\resetsystem.cpp

; 972  : }

  00088	8b e5		 mov	 esp, ebp
  0008a	5d		 pop	 ebp
  0008b	c2 08 00	 ret	 8
$LN8@GetResetGr:

; 950  : 			{
; 951  : 				continue;
; 952  : 			}
; 953  : 
; 954  : 			return &this->m_NormalInfo.m_GroupList[i];
; 955  : 		}
; 956  : 	}
; 957  : 	else if (Type == ResetType::Grand)

  0008e	83 f8 01	 cmp	 eax, 1
  00091	75 db		 jne	 SHORT $LN133@GetResetGr
; File c:\program files (x86)\microsoft visual studio 14.0\vc\include\vector

; 1179 : 		return (this->_Mylast() - this->_Myfirst());

  00093	8b 4b 24	 mov	 ecx, DWORD PTR [ebx+36]
  00096	b8 6b 4c a4 07	 mov	 eax, 128207979		; 07a44c6bH
  0009b	2b 4b 20	 sub	 ecx, DWORD PTR [ebx+32]
; File c:\users\michel\desktop\source\gameserver\source\resetsystem.cpp

; 959  : 		for (int i = 0; i < this->m_GrandInfo.m_GroupList.size(); i++)

  0009e	33 ff		 xor	 edi, edi
; File c:\program files (x86)\microsoft visual studio 14.0\vc\include\vector

; 1179 : 		return (this->_Mylast() - this->_Myfirst());

  000a0	f7 e9		 imul	 ecx
  000a2	c1 fa 03	 sar	 edx, 3
  000a5	8b c2		 mov	 eax, edx
  000a7	c1 e8 1f	 shr	 eax, 31			; 0000001fH
  000aa	03 c2		 add	 eax, edx
; File c:\users\michel\desktop\source\gameserver\source\resetsystem.cpp

; 959  : 		for (int i = 0; i < this->m_GrandInfo.m_GroupList.size(); i++)

  000ac	74 c0		 je	 SHORT $LN133@GetResetGr

; 962  : 				|| lpUser->iResetCount + 1 > this->m_GrandInfo.m_GroupList[i].MaxReset)

  000ae	8b 45 08	 mov	 eax, DWORD PTR _lpUser$[ebp]
; File c:\program files (x86)\microsoft visual studio 14.0\vc\include\vector

; 1240 : 		return (*(this->_Myfirst() + _Pos));

  000b1	8b 73 20	 mov	 esi, DWORD PTR [ebx+32]
; File c:\users\michel\desktop\source\gameserver\source\resetsystem.cpp

; 962  : 				|| lpUser->iResetCount + 1 > this->m_GrandInfo.m_GroupList[i].MaxReset)

  000b4	8b 98 20 27 00
	00		 mov	 ebx, DWORD PTR [eax+10016]
  000ba	8b 45 fc	 mov	 eax, DWORD PTR _this$1$[ebp]
  000bd	8b 48 24	 mov	 ecx, DWORD PTR [eax+36]
  000c0	2b 48 20	 sub	 ecx, DWORD PTR [eax+32]
  000c3	b8 6b 4c a4 07	 mov	 eax, 128207979		; 07a44c6bH
  000c8	f7 e9		 imul	 ecx
  000ca	c1 fa 03	 sar	 edx, 3
  000cd	8b ca		 mov	 ecx, edx
  000cf	c1 e9 1f	 shr	 ecx, 31			; 0000001fH
  000d2	03 ca		 add	 ecx, edx
; File c:\program files (x86)\microsoft visual studio 14.0\vc\include\xutility

; 314  : 		return (_Myval2);

  000d4	83 c6 08	 add	 esi, 8
$LL7@GetResetGr:
; File c:\users\michel\desktop\source\gameserver\source\resetsystem.cpp

; 962  : 				|| lpUser->iResetCount + 1 > this->m_GrandInfo.m_GroupList[i].MaxReset)

  000d7	3b 5e fc	 cmp	 ebx, DWORD PTR [esi-4]
  000da	7c 07		 jl	 SHORT $LN5@GetResetGr
  000dc	8d 43 01	 lea	 eax, DWORD PTR [ebx+1]
  000df	3b 06		 cmp	 eax, DWORD PTR [esi]
  000e1	7e 16		 jle	 SHORT $LN13@GetResetGr
$LN5@GetResetGr:

; 959  : 		for (int i = 0; i < this->m_GrandInfo.m_GroupList.size(); i++)

  000e3	47		 inc	 edi
  000e4	81 c6 0c 01 00
	00		 add	 esi, 268		; 0000010cH
  000ea	3b f9		 cmp	 edi, ecx
  000ec	72 e9		 jb	 SHORT $LL7@GetResetGr

; 963  : 			{
; 964  : 				continue;
; 965  : 			}
; 966  : 
; 967  : 			return &this->m_GrandInfo.m_GroupList[i];
; 968  : 		}
; 969  : 	}
; 970  : 
; 971  : 	return NULL;

  000ee	5f		 pop	 edi
  000ef	5e		 pop	 esi
  000f0	33 c0		 xor	 eax, eax
  000f2	5b		 pop	 ebx

; 972  : }

  000f3	8b e5		 mov	 esp, ebp
  000f5	5d		 pop	 ebp
  000f6	c2 08 00	 ret	 8
$LN13@GetResetGr:
; File c:\program files (x86)\microsoft visual studio 14.0\vc\include\vector

; 1240 : 		return (*(this->_Myfirst() + _Pos));

  000f9	8b 4d fc	 mov	 ecx, DWORD PTR _this$1$[ebp]
  000fc	69 c7 0c 01 00
	00		 imul	 eax, edi, 268
  00102	5f		 pop	 edi
  00103	5e		 pop	 esi
  00104	5b		 pop	 ebx
  00105	03 41 20	 add	 eax, DWORD PTR [ecx+32]
; File c:\users\michel\desktop\source\gameserver\source\resetsystem.cpp

; 972  : }

  00108	8b e5		 mov	 esp, ebp
  0010a	5d		 pop	 ebp
  0010b	c2 08 00	 ret	 8
?GetResetGroup@ResetSystem@@AAEPAUResetGroup@@PAUOBJECTSTRUCT@@W4T@ResetType@@@Z ENDP ; ResetSystem::GetResetGroup
_TEXT	ENDS
; Function compile flags: /Ogtp
; File c:\users\michel\desktop\source\gameserver\source\resetsystem.cpp
;	COMDAT ?GetResetMoney@ResetSystem@@AAEHPAUOBJECTSTRUCT@@PAUResetGroup@@W4T@ResetType@@_N@Z
_TEXT	SEGMENT
_lpUser$ = 8						; size = 4
_Group$ = 12						; size = 4
_Type$ = 16						; size = 4
_ForNextReset$ = 20					; size = 1
?GetResetMoney@ResetSystem@@AAEHPAUOBJECTSTRUCT@@PAUResetGroup@@W4T@ResetType@@_N@Z PROC ; ResetSystem::GetResetMoney, COMDAT
; _this$ = ecx

; 927  : {

  00000	55		 push	 ebp
  00001	8b ec		 mov	 ebp, esp

; 928  : 	int ReturnMoney = Group->Money * (lpUser->iResetCount + ForNextReset);

  00003	8b 45 0c	 mov	 eax, DWORD PTR _Group$[ebp]
  00006	0f b6 4d 14	 movzx	 ecx, BYTE PTR _ForNextReset$[ebp]
  0000a	53		 push	 ebx
  0000b	56		 push	 esi
  0000c	8b 70 0c	 mov	 esi, DWORD PTR [eax+12]
  0000f	57		 push	 edi
  00010	8b 7d 08	 mov	 edi, DWORD PTR _lpUser$[ebp]

; 929  : 
; 930  : 	ReturnMoney -= ReturnMoney * m_ObjBill[lpUser->m_Index].GetResetDiscount() / 100;

  00013	8b 07		 mov	 eax, DWORD PTR [edi]
  00015	8b 9f 20 27 00
	00		 mov	 ebx, DWORD PTR [edi+10016]
  0001b	03 d9		 add	 ebx, ecx
  0001d	0f af f3	 imul	 esi, ebx
  00020	8d 04 40	 lea	 eax, DWORD PTR [eax+eax*2]
  00023	c1 e0 04	 shl	 eax, 4
  00026	8b 88 28 00 00
	00		 mov	 ecx, DWORD PTR ?m_ObjBill@@3PAVBILL_CLASS@@A[eax+40]
  0002c	b8 e1 7a 14 ae	 mov	 eax, -1374389535	; ae147ae1H
  00031	0f af ce	 imul	 ecx, esi
  00034	f7 e9		 imul	 ecx
  00036	c1 fa 05	 sar	 edx, 5
  00039	8b c2		 mov	 eax, edx
  0003b	c1 e8 1f	 shr	 eax, 31			; 0000001fH
  0003e	03 c2		 add	 eax, edx
  00040	03 f0		 add	 esi, eax

; 931  : 
; 932  : 	if (ReturnMoney < 0)

  00042	79 23		 jns	 SHORT $LN2@GetResetMo

; 933  : 	{
; 934  : 		LogAddC(2, "[ResetSystem] [%s] [%s] (GetResetMoney) Calculated wrong value (Reset: %d, Value: %d)",

  00044	56		 push	 esi
  00045	53		 push	 ebx
  00046	8d 47 5d	 lea	 eax, DWORD PTR [edi+93]
  00049	50		 push	 eax
  0004a	8d 47 52	 lea	 eax, DWORD PTR [edi+82]
  0004d	50		 push	 eax
  0004e	68 00 00 00 00	 push	 OFFSET ??_C@_0FG@DGNILBKD@?$FLResetSystem?$FN?5?$FL?$CFs?$FN?5?$FL?$CFs?$FN?5?$CIGetRese@
  00053	6a 02		 push	 2
  00055	ff 15 00 00 00
	00		 call	 DWORD PTR ?LogAddC@@3P6AXEPADZZA ; LogAddC
  0005b	83 c4 18	 add	 esp, 24			; 00000018H

; 935  : 			lpUser->AccountID, lpUser->Name, lpUser->iResetCount + ForNextReset, ReturnMoney);
; 936  : 		return 0;

  0005e	33 c0		 xor	 eax, eax
  00060	5f		 pop	 edi
  00061	5e		 pop	 esi
  00062	5b		 pop	 ebx

; 940  : }

  00063	5d		 pop	 ebp
  00064	c2 10 00	 ret	 16			; 00000010H
$LN2@GetResetMo:
  00067	5f		 pop	 edi

; 937  : 	}
; 938  : 
; 939  : 	return ReturnMoney;

  00068	8b c6		 mov	 eax, esi
  0006a	5e		 pop	 esi
  0006b	5b		 pop	 ebx

; 940  : }

  0006c	5d		 pop	 ebp
  0006d	c2 10 00	 ret	 16			; 00000010H
?GetResetMoney@ResetSystem@@AAEHPAUOBJECTSTRUCT@@PAUResetGroup@@W4T@ResetType@@_N@Z ENDP ; ResetSystem::GetResetMoney
_TEXT	ENDS
; Function compile flags: /Ogtp
; File c:\users\michel\desktop\source\gameserver\source\resetsystem.cpp
;	COMDAT ?GetItemInventoryPos@ResetSystem@@AAEEPAUOBJECTSTRUCT@@UResetItem@@@Z
_TEXT	SEGMENT
_lpUser$ = 8						; size = 4
_Item$ = 12						; size = 24
?GetItemInventoryPos@ResetSystem@@AAEEPAUOBJECTSTRUCT@@UResetItem@@@Z PROC ; ResetSystem::GetItemInventoryPos, COMDAT
; _this$ = ecx

; 914  : {

  00000	55		 push	 ebp
  00001	8b ec		 mov	 ebp, esp
  00003	53		 push	 ebx
  00004	8b 5d 08	 mov	 ebx, DWORD PTR _lpUser$[ebp]
  00007	56		 push	 esi
  00008	57		 push	 edi

; 915  : 	for (BYTE i = INVETORY_WEAR_SIZE; i < MAIN_INVENTORY_SIZE; i++)

  00009	be f0 09 00 00	 mov	 esi, 2544		; 000009f0H
  0000e	bf c0 00 00 00	 mov	 edi, 192		; 000000c0H
$LL4@GetItemInv:

; 916  : 	{
; 917  : 		if( !lpUser->pInventory[i].IsItem() 
; 918  : 			|| lpUser->pInventory[i].m_Type != ITEMGET(Item.Type, Item.Index))

  00013	8b 8b c0 11 00
	00		 mov	 ecx, DWORD PTR [ebx+4544]
  00019	03 ce		 add	 ecx, esi
  0001b	e8 00 00 00 00	 call	 ?IsItem@CItem@@QAEHXZ	; CItem::IsItem
  00020	81 c6 d4 00 00
	00		 add	 esi, 212		; 000000d4H
  00026	83 ef 01	 sub	 edi, 1
  00029	75 e8		 jne	 SHORT $LL4@GetItemInv

; 919  : 		{
; 920  : 			continue;
; 921  : 		}
; 922  : 	}
; 923  : 	return (BYTE)-1;

  0002b	5f		 pop	 edi
  0002c	5e		 pop	 esi
  0002d	0c ff		 or	 al, 255			; 000000ffH
  0002f	5b		 pop	 ebx

; 924  : }

  00030	5d		 pop	 ebp
  00031	c2 1c 00	 ret	 28			; 0000001cH
?GetItemInventoryPos@ResetSystem@@AAEEPAUOBJECTSTRUCT@@UResetItem@@@Z ENDP ; ResetSystem::GetItemInventoryPos
_TEXT	ENDS
; Function compile flags: /Ogtp
; File c:\users\michel\desktop\source\gameserver\source\resetsystem.cpp
;	COMDAT ?CheckRequirements@ResetSystem@@AAE_NPAUOBJECTSTRUCT@@W4T@ResetType@@@Z
_TEXT	SEGMENT
_lpUser$ = 8						; size = 4
_Type$ = 12						; size = 4
?CheckRequirements@ResetSystem@@AAE_NPAUOBJECTSTRUCT@@W4T@ResetType@@@Z PROC ; ResetSystem::CheckRequirements, COMDAT
; _this$ = ecx

; 898  : {

  00000	55		 push	 ebp
  00001	8b ec		 mov	 ebp, esp
  00003	53		 push	 ebx
  00004	57		 push	 edi

; 899  : 	ResetGroup* Group = this->GetResetGroup(lpUser, Type);

  00005	ff 75 0c	 push	 DWORD PTR _Type$[ebp]
  00008	8b 7d 08	 mov	 edi, DWORD PTR _lpUser$[ebp]
  0000b	8b d9		 mov	 ebx, ecx
  0000d	57		 push	 edi
  0000e	e8 00 00 00 00	 call	 ?GetResetGroup@ResetSystem@@AAEPAUResetGroup@@PAUOBJECTSTRUCT@@W4T@ResetType@@@Z ; ResetSystem::GetResetGroup

; 900  : 	
; 901  : 	if (Group == NULL)

  00013	85 c0		 test	 eax, eax
  00015	75 31		 jne	 SHORT $LN2@CheckRequi

; 902  : 	{
; 903  : 		this->Log->Output("[ResetSystem] [%s] [%s] (CheckRequirements) Group for this user not found",

  00017	56		 push	 esi
  00018	8d 77 5d	 lea	 esi, DWORD PTR [edi+93]
  0001b	83 c7 52	 add	 edi, 82			; 00000052H
  0001e	56		 push	 esi
  0001f	57		 push	 edi
  00020	68 00 00 00 00	 push	 OFFSET ??_C@_0EK@OGMNMFNN@?$FLResetSystem?$FN?5?$FL?$CFs?$FN?5?$FL?$CFs?$FN?5?$CICheckRe@
  00025	ff 73 2c	 push	 DWORD PTR [ebx+44]
  00028	e8 00 00 00 00	 call	 ?Output@CLogToFile@@QAAXPADZZ ; CLogToFile::Output

; 904  : 			lpUser->AccountID, lpUser->Name);
; 905  : 		LogAddC(2, "[ResetSystem] [%s] [%s] (CheckRequirements) Group for this user not found",

  0002d	56		 push	 esi
  0002e	57		 push	 edi
  0002f	68 00 00 00 00	 push	 OFFSET ??_C@_0EK@OGMNMFNN@?$FLResetSystem?$FN?5?$FL?$CFs?$FN?5?$FL?$CFs?$FN?5?$CICheckRe@
  00034	6a 02		 push	 2
  00036	ff 15 00 00 00
	00		 call	 DWORD PTR ?LogAddC@@3P6AXEPADZZA ; LogAddC
  0003c	83 c4 20	 add	 esp, 32			; 00000020H

; 906  : 			lpUser->AccountID, lpUser->Name);
; 907  : 		return false;

  0003f	32 c0		 xor	 al, al
  00041	5e		 pop	 esi
  00042	5f		 pop	 edi
  00043	5b		 pop	 ebx

; 911  : }

  00044	5d		 pop	 ebp
  00045	c2 08 00	 ret	 8
$LN2@CheckRequi:
  00048	5f		 pop	 edi

; 908  : 	}
; 909  : 
; 910  : 	return true;

  00049	b0 01		 mov	 al, 1
  0004b	5b		 pop	 ebx

; 911  : }

  0004c	5d		 pop	 ebp
  0004d	c2 08 00	 ret	 8
?CheckRequirements@ResetSystem@@AAE_NPAUOBJECTSTRUCT@@W4T@ResetType@@@Z ENDP ; ResetSystem::CheckRequirements
_TEXT	ENDS
; Function compile flags: /Ogtp
; File c:\users\michel\desktop\source\gameserver\source\resetsystem.cpp
; File c:\program files (x86)\microsoft visual studio 14.0\vc\include\vector
; File c:\users\michel\desktop\source\gameserver\source\resetsystem.cpp
; File c:\program files (x86)\microsoft visual studio 14.0\vc\include\vector
; File c:\users\michel\desktop\source\gameserver\source\resetsystem.cpp
; File c:\program files (x86)\microsoft visual studio 14.0\vc\include\vector
; File c:\users\michel\desktop\source\gameserver\source\resetsystem.cpp
; File c:\program files (x86)\microsoft visual studio 14.0\vc\include\vector
; File c:\users\michel\desktop\source\gameserver\source\resetsystem.cpp
; File c:\program files (x86)\microsoft visual studio 14.0\vc\include\vector
; File c:\users\michel\desktop\source\gameserver\source\resetsystem.cpp
; File c:\program files (x86)\microsoft visual studio 14.0\vc\include\vector
; File c:\users\michel\desktop\source\gameserver\source\resetsystem.cpp
; File c:\program files (x86)\microsoft visual studio 14.0\vc\include\vector
; File c:\users\michel\desktop\source\gameserver\source\resetsystem.cpp
; File c:\program files (x86)\microsoft visual studio 14.0\vc\include\vector
; File c:\users\michel\desktop\source\gameserver\source\resetsystem.cpp
;	COMDAT ?CheckRequirements@ResetSystem@@AAE_NPAUOBJECTSTRUCT@@PAUResetGroup@@W4T@ResetType@@_NE@Z
_TEXT	SEGMENT
_lpUser$ = 8						; size = 4
tv876 = 12						; size = 4
tv872 = 12						; size = 4
tv865 = 12						; size = 4
_Group$ = 12						; size = 4
_Type$ = 16						; size = 4
_i$1$ = 20						; size = 4
_NotifyMessage$ = 20					; size = 1
tv891 = 24						; size = 4
tv863 = 24						; size = 4
_PayType$ = 24						; size = 1
?CheckRequirements@ResetSystem@@AAE_NPAUOBJECTSTRUCT@@PAUResetGroup@@W4T@ResetType@@_NE@Z PROC ; ResetSystem::CheckRequirements, COMDAT
; _this$ = ecx

; 737  : {

  00000	55		 push	 ebp
  00001	8b ec		 mov	 ebp, esp
  00003	53		 push	 ebx
  00004	56		 push	 esi

; 738  : 	int ItemPos;
; 739  : 
; 740  : 	if (Group->Checks.Equipment)

  00005	8b 75 08	 mov	 esi, DWORD PTR _lpUser$[ebp]
  00008	8b d9		 mov	 ebx, ecx
  0000a	57		 push	 edi
  0000b	8b 7d 0c	 mov	 edi, DWORD PTR _Group$[ebp]
  0000e	80 bf 06 01 00
	00 00		 cmp	 BYTE PTR [edi+262], 0
  00015	74 30		 je	 SHORT $LN3@CheckRequi

; 741  : 	{
; 742  : 		for( ItemPos = 0; ItemPos < INVETORY_WEAR_SIZE; ItemPos++ )

  00017	33 c0		 xor	 eax, eax
  00019	89 45 0c	 mov	 DWORD PTR tv876[ebp], eax
  0001c	0f 1f 40 00	 npad	 4
$LL4@CheckRequi:

; 743  : 		{
; 744  : 			if( lpUser->pInventory[ItemPos].IsItem() )

  00020	8b 8e c0 11 00
	00		 mov	 ecx, DWORD PTR [esi+4544]
  00026	03 c8		 add	 ecx, eax
  00028	e8 00 00 00 00	 call	 ?IsItem@CItem@@QAEHXZ	; CItem::IsItem
  0002d	85 c0		 test	 eax, eax
  0002f	0f 85 1c 01 00
	00		 jne	 $LN264@CheckRequi

; 741  : 	{
; 742  : 		for( ItemPos = 0; ItemPos < INVETORY_WEAR_SIZE; ItemPos++ )

  00035	8b 45 0c	 mov	 eax, DWORD PTR tv876[ebp]
  00038	05 d4 00 00 00	 add	 eax, 212		; 000000d4H
  0003d	89 45 0c	 mov	 DWORD PTR tv876[ebp], eax
  00040	3d f0 09 00 00	 cmp	 eax, 2544		; 000009f0H
  00045	7c d9		 jl	 SHORT $LL4@CheckRequi
$LN3@CheckRequi:

; 751  : 				}
; 752  : 				return false;
; 753  : 			}
; 754  : 		}
; 755  : 	}
; 756  : 
; 757  : 	if (Group->Checks.Inventory)

  00047	80 bf 07 01 00
	00 00		 cmp	 BYTE PTR [edi+263], 0
  0004e	74 37		 je	 SHORT $LN6@CheckRequi

; 758  : 	{
; 759  : 		for( ItemPos = INVETORY_WEAR_SIZE; ItemPos < MAIN_INVENTORY_SIZE; ItemPos++ )

  00050	b8 f0 09 00 00	 mov	 eax, 2544		; 000009f0H
  00055	89 45 0c	 mov	 DWORD PTR tv872[ebp], eax
  00058	0f 1f 84 00 00
	00 00 00	 npad	 8
$LL7@CheckRequi:

; 760  : 		{
; 761  : 			if( lpUser->pInventory[ItemPos].IsItem() )

  00060	8b 8e c0 11 00
	00		 mov	 ecx, DWORD PTR [esi+4544]
  00066	03 c8		 add	 ecx, eax
  00068	e8 00 00 00 00	 call	 ?IsItem@CItem@@QAEHXZ	; CItem::IsItem
  0006d	85 c0		 test	 eax, eax
  0006f	0f 85 1c 01 00
	00		 jne	 $LN265@CheckRequi

; 758  : 	{
; 759  : 		for( ItemPos = INVETORY_WEAR_SIZE; ItemPos < MAIN_INVENTORY_SIZE; ItemPos++ )

  00075	8b 45 0c	 mov	 eax, DWORD PTR tv872[ebp]
  00078	05 d4 00 00 00	 add	 eax, 212		; 000000d4H
  0007d	89 45 0c	 mov	 DWORD PTR tv872[ebp], eax
  00080	3d f0 a8 00 00	 cmp	 eax, 43248		; 0000a8f0H
  00085	7c d9		 jl	 SHORT $LL7@CheckRequi
$LN6@CheckRequi:

; 768  : 				}
; 769  : 		return false;
; 770  : 			}
; 771  : 		}
; 772  : 	}
; 773  : 
; 774  : 	if (Group->Checks.Shop)

  00087	80 bf 08 01 00
	00 00		 cmp	 BYTE PTR [edi+264], 0
  0008e	74 37		 je	 SHORT $LN9@CheckRequi

; 775  : 	{
; 776  : 		for( ItemPos = MAIN_INVENTORY_SIZE; ItemPos < INVENTORY_SIZE; ItemPos++ )

  00090	b8 f0 a8 00 00	 mov	 eax, 43248		; 0000a8f0H
  00095	89 45 0c	 mov	 DWORD PTR tv865[ebp], eax
  00098	0f 1f 84 00 00
	00 00 00	 npad	 8
$LL10@CheckRequi:

; 777  : 		{
; 778  : 			if( lpUser->pInventory[ItemPos].IsItem() )

  000a0	8b 8e c0 11 00
	00		 mov	 ecx, DWORD PTR [esi+4544]
  000a6	03 c8		 add	 ecx, eax
  000a8	e8 00 00 00 00	 call	 ?IsItem@CItem@@QAEHXZ	; CItem::IsItem
  000ad	85 c0		 test	 eax, eax
  000af	0f 85 1c 01 00
	00		 jne	 $LN266@CheckRequi

; 775  : 	{
; 776  : 		for( ItemPos = MAIN_INVENTORY_SIZE; ItemPos < INVENTORY_SIZE; ItemPos++ )

  000b5	8b 45 0c	 mov	 eax, DWORD PTR tv865[ebp]
  000b8	05 d4 00 00 00	 add	 eax, 212		; 000000d4H
  000bd	89 45 0c	 mov	 DWORD PTR tv865[ebp], eax
  000c0	3d 44 c4 00 00	 cmp	 eax, 50244		; 0000c444H
  000c5	7c d9		 jl	 SHORT $LL10@CheckRequi
$LN9@CheckRequi:

; 785  : 				}
; 786  : 		return false;
; 787  : 			}
; 788  : 		}
; 789  : 	}
; 790  : 
; 791  : 	if (lpUser->Level < Group->MinLevel || lpUser->Level > Group->MaxLevel)

  000c7	0f b7 86 96 00
	00 00		 movzx	 eax, WORD PTR [esi+150]
  000ce	0f b7 0f	 movzx	 ecx, WORD PTR [edi]
  000d1	66 3b c1	 cmp	 ax, cx
  000d4	0f 8c 4e 03 00
	00		 jl	 $LN24@CheckRequi
  000da	66 3b 47 02	 cmp	 ax, WORD PTR [edi+2]
  000de	0f 8f 44 03 00
	00		 jg	 $LN24@CheckRequi

; 800  : 	}
; 801  : 	
; 802  : 	if (PayType == 0)

  000e4	8a 45 18	 mov	 al, BYTE PTR _PayType$[ebp]
  000e7	84 c0		 test	 al, al
  000e9	0f 85 22 01 00
	00		 jne	 $LN26@CheckRequi

; 803  : 	{
; 804  : 		if (lpUser->Money < this->GetResetMoney(lpUser, Group, Type, true))

  000ef	8b 86 cc 00 00
	00		 mov	 eax, DWORD PTR [esi+204]
  000f5	8b cb		 mov	 ecx, ebx
  000f7	6a 01		 push	 1
  000f9	ff 75 10	 push	 DWORD PTR _Type$[ebp]
  000fc	89 45 18	 mov	 DWORD PTR tv891[ebp], eax
  000ff	57		 push	 edi
  00100	56		 push	 esi
  00101	e8 00 00 00 00	 call	 ?GetResetMoney@ResetSystem@@AAEHPAUOBJECTSTRUCT@@PAUResetGroup@@W4T@ResetType@@_N@Z ; ResetSystem::GetResetMoney
  00106	8b 4d 18	 mov	 ecx, DWORD PTR tv891[ebp]
  00109	3b c8		 cmp	 ecx, eax
  0010b	0f 8d a9 01 00
	00		 jge	 $LN35@CheckRequi

; 805  : 		{
; 806  : 			this->Log->Output("[ResetSystem] [%s] [%s] (CheckRequirements) Not have enough Money (need: %d, user: %d)",

  00111	51		 push	 ecx
  00112	ff 77 0c	 push	 DWORD PTR [edi+12]
  00115	8d 46 5d	 lea	 eax, DWORD PTR [esi+93]
  00118	50		 push	 eax
  00119	8d 46 52	 lea	 eax, DWORD PTR [esi+82]
  0011c	50		 push	 eax
  0011d	68 00 00 00 00	 push	 OFFSET ??_C@_0FH@GNAIDNOJ@?$FLResetSystem?$FN?5?$FL?$CFs?$FN?5?$FL?$CFs?$FN?5?$CICheckRe@
  00122	ff 73 2c	 push	 DWORD PTR [ebx+44]
  00125	e8 00 00 00 00	 call	 ?Output@CLogToFile@@QAAXPADZZ ; CLogToFile::Output
  0012a	83 c4 18	 add	 esp, 24			; 00000018H

; 807  : 				lpUser->AccountID, lpUser->Name, Group->Money, lpUser->Money);
; 808  : 			if (NotifyMessage)

  0012d	80 7d 14 00	 cmp	 BYTE PTR _NotifyMessage$[ebp], 0
  00131	0f 84 36 03 00
	00		 je	 $LN25@CheckRequi

; 809  : 			{
; 810  : 				this->GC_MessageBox(lpUser, "Reset Master", "Hey %s!\nYou need %d Money\nfor this reset.", lpUser->Name, Group->Money * (lpUser->iResetCount + 1));

  00137	8b 86 20 27 00
	00		 mov	 eax, DWORD PTR [esi+10016]
  0013d	40		 inc	 eax
  0013e	0f af 47 0c	 imul	 eax, DWORD PTR [edi+12]
  00142	50		 push	 eax
  00143	8d 46 5d	 lea	 eax, DWORD PTR [esi+93]
  00146	50		 push	 eax
  00147	68 00 00 00 00	 push	 OFFSET ??_C@_0CK@BAFCACOI@Hey?5?$CFs?$CB?6You?5need?5?$CFd?5Money?6for?5th@

; 811  : 			}
; 812  : 			return false;

  0014c	e9 0d 03 00 00	 jmp	 $LN280@CheckRequi
$LN264@CheckRequi:

; 745  : 			{
; 746  : 				this->Log->Output("[ResetSystem] [%s] [%s] (CheckRequirements) Equipment check fail",

  00151	8d 7e 5d	 lea	 edi, DWORD PTR [esi+93]
  00154	57		 push	 edi
  00155	8d 46 52	 lea	 eax, DWORD PTR [esi+82]
  00158	50		 push	 eax
  00159	68 00 00 00 00	 push	 OFFSET ??_C@_0EB@IEMKIHCJ@?$FLResetSystem?$FN?5?$FL?$CFs?$FN?5?$FL?$CFs?$FN?5?$CICheckRe@
  0015e	ff 73 2c	 push	 DWORD PTR [ebx+44]
  00161	e8 00 00 00 00	 call	 ?Output@CLogToFile@@QAAXPADZZ ; CLogToFile::Output
  00166	83 c4 10	 add	 esp, 16			; 00000010H

; 747  : 					lpUser->AccountID, lpUser->Name);
; 748  : 				if (NotifyMessage)

  00169	80 7d 14 00	 cmp	 BYTE PTR _NotifyMessage$[ebp], 0
  0016d	0f 84 fa 02 00
	00		 je	 $LN25@CheckRequi

; 749  : 				{
; 750  : 					this->GC_MessageBox(lpUser, "Reset Master", "Hey %s!\nI think you forgot\nremove equipment...", lpUser->Name);

  00173	57		 push	 edi
  00174	68 00 00 00 00	 push	 OFFSET ??_C@_0CP@OFICEAAH@Hey?5?$CFs?$CB?6I?5think?5you?5forgot?6remov@
  00179	68 00 00 00 00	 push	 OFFSET ??_C@_0N@MCNFFMDL@Reset?5Master?$AA@
  0017e	56		 push	 esi
  0017f	53		 push	 ebx
  00180	e8 00 00 00 00	 call	 ?GC_MessageBox@ResetSystem@@QAAXPAUOBJECTSTRUCT@@PAD1ZZ ; ResetSystem::GC_MessageBox
  00185	83 c4 14	 add	 esp, 20			; 00000014H

; 798  : 		}
; 799  : 		return false;

  00188	32 c0		 xor	 al, al

; 895  : }

  0018a	5f		 pop	 edi
  0018b	5e		 pop	 esi
  0018c	5b		 pop	 ebx
  0018d	5d		 pop	 ebp
  0018e	c2 14 00	 ret	 20			; 00000014H
$LN265@CheckRequi:

; 762  : 			{
; 763  : 				this->Log->Output("[ResetSystem] [%s] [%s] (CheckRequirements) Inventory check fail",

  00191	8d 7e 5d	 lea	 edi, DWORD PTR [esi+93]
  00194	57		 push	 edi
  00195	8d 46 52	 lea	 eax, DWORD PTR [esi+82]
  00198	50		 push	 eax
  00199	68 00 00 00 00	 push	 OFFSET ??_C@_0EB@JBHKEPMB@?$FLResetSystem?$FN?5?$FL?$CFs?$FN?5?$FL?$CFs?$FN?5?$CICheckRe@
  0019e	ff 73 2c	 push	 DWORD PTR [ebx+44]
  001a1	e8 00 00 00 00	 call	 ?Output@CLogToFile@@QAAXPADZZ ; CLogToFile::Output
  001a6	83 c4 10	 add	 esp, 16			; 00000010H

; 764  : 					lpUser->AccountID, lpUser->Name);
; 765  : 				if (NotifyMessage)

  001a9	80 7d 14 00	 cmp	 BYTE PTR _NotifyMessage$[ebp], 0
  001ad	0f 84 ba 02 00
	00		 je	 $LN25@CheckRequi

; 766  : 				{
; 767  : 				this->GC_MessageBox(lpUser, "Reset Master", "%s, maybe you forgot\nclean out inventory?", lpUser->Name);

  001b3	57		 push	 edi
  001b4	68 00 00 00 00	 push	 OFFSET ??_C@_0CK@PMGLBKIN@?$CFs?0?5maybe?5you?5forgot?6clean?5out?5i@
  001b9	68 00 00 00 00	 push	 OFFSET ??_C@_0N@MCNFFMDL@Reset?5Master?$AA@
  001be	56		 push	 esi
  001bf	53		 push	 ebx
  001c0	e8 00 00 00 00	 call	 ?GC_MessageBox@ResetSystem@@QAAXPAUOBJECTSTRUCT@@PAD1ZZ ; ResetSystem::GC_MessageBox
  001c5	83 c4 14	 add	 esp, 20			; 00000014H

; 798  : 		}
; 799  : 		return false;

  001c8	32 c0		 xor	 al, al

; 895  : }

  001ca	5f		 pop	 edi
  001cb	5e		 pop	 esi
  001cc	5b		 pop	 ebx
  001cd	5d		 pop	 ebp
  001ce	c2 14 00	 ret	 20			; 00000014H
$LN266@CheckRequi:

; 779  : 			{
; 780  : 				this->Log->Output("[ResetSystem] [%s] [%s] (CheckRequirements) Shop check fail",

  001d1	8d 7e 5d	 lea	 edi, DWORD PTR [esi+93]
  001d4	57		 push	 edi
  001d5	8d 46 52	 lea	 eax, DWORD PTR [esi+82]
  001d8	50		 push	 eax
  001d9	68 00 00 00 00	 push	 OFFSET ??_C@_0DM@INNFFOLH@?$FLResetSystem?$FN?5?$FL?$CFs?$FN?5?$FL?$CFs?$FN?5?$CICheckRe@
  001de	ff 73 2c	 push	 DWORD PTR [ebx+44]
  001e1	e8 00 00 00 00	 call	 ?Output@CLogToFile@@QAAXPADZZ ; CLogToFile::Output
  001e6	83 c4 10	 add	 esp, 16			; 00000010H

; 781  : 					lpUser->AccountID, lpUser->Name);
; 782  : 				if (NotifyMessage)

  001e9	80 7d 14 00	 cmp	 BYTE PTR _NotifyMessage$[ebp], 0
  001ed	0f 84 7a 02 00
	00		 je	 $LN25@CheckRequi

; 783  : 				{
; 784  : 				this->GC_MessageBox(lpUser, "Reset Master", "%s, please clean your\npersonal shop.", lpUser->Name);

  001f3	57		 push	 edi
  001f4	68 00 00 00 00	 push	 OFFSET ??_C@_0CF@NPOOAECJ@?$CFs?0?5please?5clean?5your?6personal?5s@
  001f9	68 00 00 00 00	 push	 OFFSET ??_C@_0N@MCNFFMDL@Reset?5Master?$AA@
  001fe	56		 push	 esi
  001ff	53		 push	 ebx
  00200	e8 00 00 00 00	 call	 ?GC_MessageBox@ResetSystem@@QAAXPAUOBJECTSTRUCT@@PAD1ZZ ; ResetSystem::GC_MessageBox
  00205	83 c4 14	 add	 esp, 20			; 00000014H

; 798  : 		}
; 799  : 		return false;

  00208	32 c0		 xor	 al, al

; 895  : }

  0020a	5f		 pop	 edi
  0020b	5e		 pop	 esi
  0020c	5b		 pop	 ebx
  0020d	5d		 pop	 ebp
  0020e	c2 14 00	 ret	 20			; 00000014H
$LN26@CheckRequi:

; 813  : 		}	
; 814  : 	}
; 815  : 	else if (PayType == 1)

  00211	3c 01		 cmp	 al, 1
  00213	75 5f		 jne	 SHORT $LN30@CheckRequi

; 816  : 	{
; 817  : 		if (lpUser->m_Credits < Group->Credits)

  00215	8b 86 38 27 00
	00		 mov	 eax, DWORD PTR [esi+10040]
  0021b	8b 4f 20	 mov	 ecx, DWORD PTR [edi+32]
  0021e	3b c1		 cmp	 eax, ecx
  00220	0f 83 94 00 00
	00		 jae	 $LN35@CheckRequi

; 818  : 	{
; 819  : 		this->Log->Output("[ResetSystem] [%s] [%s] (CheckRequirements) Not have enough Credits (need: %d, user: %d)",

  00226	50		 push	 eax
  00227	51		 push	 ecx
  00228	8d 56 5d	 lea	 edx, DWORD PTR [esi+93]
  0022b	52		 push	 edx
  0022c	8d 46 52	 lea	 eax, DWORD PTR [esi+82]
  0022f	50		 push	 eax
  00230	68 00 00 00 00	 push	 OFFSET ??_C@_0FJ@CMHDJMHA@?$FLResetSystem?$FN?5?$FL?$CFs?$FN?5?$FL?$CFs?$FN?5?$CICheckRe@
  00235	ff 73 2c	 push	 DWORD PTR [ebx+44]
  00238	e8 00 00 00 00	 call	 ?Output@CLogToFile@@QAAXPADZZ ; CLogToFile::Output
  0023d	83 c4 18	 add	 esp, 24			; 00000018H

; 820  : 			lpUser->AccountID, lpUser->Name, Group->Credits, lpUser->m_Credits);
; 821  : 		if (NotifyMessage)

  00240	80 7d 14 00	 cmp	 BYTE PTR _NotifyMessage$[ebp], 0
  00244	0f 84 23 02 00
	00		 je	 $LN25@CheckRequi

; 822  : 				{
; 823  : 		this->GC_MessageBox(lpUser, "Reset Master", "Hello, %s!\nYou need %d Credits for\n this reset. Now you have: %d", 

  0024a	ff b6 38 27 00
	00		 push	 DWORD PTR [esi+10040]
  00250	8d 46 5d	 lea	 eax, DWORD PTR [esi+93]
  00253	ff 77 20	 push	 DWORD PTR [edi+32]
  00256	50		 push	 eax
  00257	68 00 00 00 00	 push	 OFFSET ??_C@_0EB@ODDJMFE@Hello?0?5?$CFs?$CB?6You?5need?5?$CFd?5Credits?5f@
  0025c	68 00 00 00 00	 push	 OFFSET ??_C@_0N@MCNFFMDL@Reset?5Master?$AA@
  00261	56		 push	 esi
  00262	53		 push	 ebx
  00263	e8 00 00 00 00	 call	 ?GC_MessageBox@ResetSystem@@QAAXPAUOBJECTSTRUCT@@PAD1ZZ ; ResetSystem::GC_MessageBox
  00268	83 c4 1c	 add	 esp, 28			; 0000001cH
  0026b	32 c0		 xor	 al, al

; 895  : }

  0026d	5f		 pop	 edi
  0026e	5e		 pop	 esi
  0026f	5b		 pop	 ebx
  00270	5d		 pop	 ebp
  00271	c2 14 00	 ret	 20			; 00000014H
$LN30@CheckRequi:

; 824  : 			lpUser->Name, Group->Credits, lpUser->m_Credits);
; 825  : 		}
; 826  : 		return false;
; 827  : 	}	
; 828  : 	}
; 829  : 	else if (PayType == 2)

  00274	3c 02		 cmp	 al, 2
  00276	75 42		 jne	 SHORT $LN35@CheckRequi

; 830  : 	{
; 831  : 		if (lpUser->m_wcCashPoint < Group->WCoinC)

  00278	8b 86 68 24 00
	00		 mov	 eax, DWORD PTR [esi+9320]
  0027e	8b 4f 10	 mov	 ecx, DWORD PTR [edi+16]
  00281	3b c1		 cmp	 eax, ecx
  00283	7d 35		 jge	 SHORT $LN35@CheckRequi

; 832  : 	{
; 833  : 		this->Log->Output("[ResetSystem] [%s] [%s] (CheckRequirements) Not have enough WCoinC (need: %d, user: %d)",

  00285	50		 push	 eax
  00286	51		 push	 ecx
  00287	8d 56 5d	 lea	 edx, DWORD PTR [esi+93]
  0028a	52		 push	 edx
  0028b	8d 46 52	 lea	 eax, DWORD PTR [esi+82]
  0028e	50		 push	 eax
  0028f	68 00 00 00 00	 push	 OFFSET ??_C@_0FI@BADCMJB@?$FLResetSystem?$FN?5?$FL?$CFs?$FN?5?$FL?$CFs?$FN?5?$CICheckRe@
  00294	ff 73 2c	 push	 DWORD PTR [ebx+44]
  00297	e8 00 00 00 00	 call	 ?Output@CLogToFile@@QAAXPADZZ ; CLogToFile::Output
  0029c	83 c4 18	 add	 esp, 24			; 00000018H

; 834  : 			lpUser->AccountID, lpUser->Name, Group->WCoinC, lpUser->m_wcCashPoint);
; 835  : 		if (NotifyMessage)

  0029f	80 7d 14 00	 cmp	 BYTE PTR _NotifyMessage$[ebp], 0
  002a3	0f 84 c4 01 00
	00		 je	 $LN25@CheckRequi

; 836  : 				{
; 837  : 		this->GC_MessageBox(lpUser, "Reset Master", "Hey, %s!\nYou need %d WCoinC\nfor this reset.", lpUser->Name, Group->WCoinC);

  002a9	ff 77 10	 push	 DWORD PTR [edi+16]
  002ac	8d 46 5d	 lea	 eax, DWORD PTR [esi+93]
  002af	50		 push	 eax
  002b0	68 00 00 00 00	 push	 OFFSET ??_C@_0CM@IMDIKCEK@Hey?0?5?$CFs?$CB?6You?5need?5?$CFd?5WCoinC?6for?5@

; 838  : 		}
; 839  : 		return false;

  002b5	e9 a4 01 00 00	 jmp	 $LN280@CheckRequi
$LN35@CheckRequi:

; 840  : 	}	
; 841  : 	}
; 842  : 
; 843  : 	
; 844  : 	
; 845  : 	/*if (lpUser->m_wpCashPoint < Group->WCoinP)
; 846  : 	{
; 847  : 		this->Log->Output("[ResetSystem] [%s] [%s] (CheckRequirements) Not have enough WCoinP (need: %d, user: %d)",
; 848  : 			lpUser->AccountID, lpUser->Name, Group->WCoinP, lpUser->m_wpCashPoint);
; 849  : 		if (NotifyMessage)
; 850  : 				{
; 851  : 		this->GC_MessageBox(lpUser, "Reset Master", "Great %s!\nYou need %d WCoinP\nfor this reset.", lpUser->Name, Group->WCoinP);
; 852  : 		}
; 853  : 		return false;
; 854  : 	}
; 855  : 
; 856  : 	if (lpUser->m_wgCashPoint < Group->WCoinG)
; 857  : 	{
; 858  : 		this->Log->Output("[ResetSystem] [%s] [%s] (CheckRequirements) Not have enough WCoinG (need: %d, user: %d)",
; 859  : 			lpUser->AccountID, lpUser->Name, Group->WCoinG, lpUser->m_wgCashPoint);
; 860  : 		if (NotifyMessage)
; 861  : 				{
; 862  : 		this->GC_MessageBox(lpUser, "Reset Master", "Great %s!\nYou need %d Goblin Point\nfor this reset.", lpUser->Name, Group->WCoinG);
; 863  : 		}
; 864  : 		return false;
; 865  : 	}*/
; 866  : 
; 867  : 	if (lpUser->m_GensInfo.iContribution < Group->GensP)

  002ba	8b 86 b4 26 00
	00		 mov	 eax, DWORD PTR [esi+9908]
  002c0	8b 4f 1c	 mov	 ecx, DWORD PTR [edi+28]
  002c3	3b c1		 cmp	 eax, ecx
  002c5	7d 35		 jge	 SHORT $LN37@CheckRequi

; 868  : 	{
; 869  : 		this->Log->Output("[ResetSystem] [%s] [%s] (CheckRequirements) Not have enough GensP (need: %d, user: %d)",

  002c7	50		 push	 eax
  002c8	51		 push	 ecx
  002c9	8d 56 5d	 lea	 edx, DWORD PTR [esi+93]
  002cc	52		 push	 edx
  002cd	8d 46 52	 lea	 eax, DWORD PTR [esi+82]
  002d0	50		 push	 eax
  002d1	68 00 00 00 00	 push	 OFFSET ??_C@_0FH@GEIIDDDF@?$FLResetSystem?$FN?5?$FL?$CFs?$FN?5?$FL?$CFs?$FN?5?$CICheckRe@
  002d6	ff 73 2c	 push	 DWORD PTR [ebx+44]
  002d9	e8 00 00 00 00	 call	 ?Output@CLogToFile@@QAAXPADZZ ; CLogToFile::Output
  002de	83 c4 18	 add	 esp, 24			; 00000018H

; 870  : 			lpUser->AccountID, lpUser->Name, Group->GensP, lpUser->m_GensInfo.iContribution);
; 871  : 		if (NotifyMessage)

  002e1	80 7d 14 00	 cmp	 BYTE PTR _NotifyMessage$[ebp], 0
  002e5	0f 84 82 01 00
	00		 je	 $LN25@CheckRequi

; 872  : 				{
; 873  : 		this->GC_MessageBox(lpUser, "Reset Master", "Great %s!\nYou need %d Contribution\nfor this reset.", lpUser->Name, Group->GensP);

  002eb	ff 77 1c	 push	 DWORD PTR [edi+28]
  002ee	8d 46 5d	 lea	 eax, DWORD PTR [esi+93]
  002f1	50		 push	 eax
  002f2	68 00 00 00 00	 push	 OFFSET ??_C@_0DD@MNPCIAAH@Great?5?$CFs?$CB?6You?5need?5?$CFd?5Contributi@

; 874  : 		}
; 875  : 		return false;

  002f7	e9 62 01 00 00	 jmp	 $LN280@CheckRequi
$LN37@CheckRequi:
; File c:\program files (x86)\microsoft visual studio 14.0\vc\include\vector

; 1179 : 		return (this->_Mylast() - this->_Myfirst());

  002fc	8b 8f f4 00 00
	00		 mov	 ecx, DWORD PTR [edi+244]
  00302	b8 ab aa aa 2a	 mov	 eax, 715827883		; 2aaaaaabH
  00307	2b 8f f0 00 00
	00		 sub	 ecx, DWORD PTR [edi+240]
  0030d	f7 e9		 imul	 ecx
  0030f	c1 fa 02	 sar	 edx, 2
  00312	8b c2		 mov	 eax, edx
  00314	c1 e8 1f	 shr	 eax, 31			; 0000001fH
  00317	03 c2		 add	 eax, edx
; File c:\users\michel\desktop\source\gameserver\source\resetsystem.cpp

; 880  : 	if (Group->ItemList.size() > 0)

  00319	0f 84 86 00 00
	00		 je	 $LN12@CheckRequi

; 882  : 		for (int i = 0; i < Group->ItemList.size(); i++)

  0031f	33 c9		 xor	 ecx, ecx
; File c:\program files (x86)\microsoft visual studio 14.0\vc\include\vector

; 1179 : 		return (this->_Mylast() - this->_Myfirst());

  00321	b8 ab aa aa 2a	 mov	 eax, 715827883		; 2aaaaaabH
; File c:\users\michel\desktop\source\gameserver\source\resetsystem.cpp

; 882  : 		for (int i = 0; i < Group->ItemList.size(); i++)

  00326	89 4d 14	 mov	 DWORD PTR _i$1$[ebp], ecx
; File c:\program files (x86)\microsoft visual studio 14.0\vc\include\vector

; 1179 : 		return (this->_Mylast() - this->_Myfirst());

  00329	8b 8f f4 00 00
	00		 mov	 ecx, DWORD PTR [edi+244]
  0032f	2b 8f f0 00 00
	00		 sub	 ecx, DWORD PTR [edi+240]
  00335	f7 e9		 imul	 ecx
  00337	c1 fa 02	 sar	 edx, 2
  0033a	8b c2		 mov	 eax, edx
  0033c	c1 e8 1f	 shr	 eax, 31			; 0000001fH
  0033f	03 c2		 add	 eax, edx
; File c:\users\michel\desktop\source\gameserver\source\resetsystem.cpp

; 882  : 		for (int i = 0; i < Group->ItemList.size(); i++)

  00341	74 62		 je	 SHORT $LN12@CheckRequi
  00343	33 c0		 xor	 eax, eax
  00345	89 45 18	 mov	 DWORD PTR tv863[ebp], eax
  00348	0f 1f 84 00 00
	00 00 00	 npad	 8
$LL13@CheckRequi:
; File c:\program files (x86)\microsoft visual studio 14.0\vc\include\vector

; 1240 : 		return (*(this->_Myfirst() + _Pos));

  00350	8b 8f f0 00 00
	00		 mov	 ecx, DWORD PTR [edi+240]
; File c:\users\michel\desktop\source\gameserver\source\resetsystem.cpp

; 884  : 			if (this->GetItemInventoryPos(lpUser, Group->ItemList[i]) == (BYTE)-1)

  00356	83 ec 18	 sub	 esp, 24			; 00000018H
; File c:\program files (x86)\microsoft visual studio 14.0\vc\include\vector

; 1240 : 		return (*(this->_Myfirst() + _Pos));

  00359	03 c8		 add	 ecx, eax
; File c:\users\michel\desktop\source\gameserver\source\resetsystem.cpp

; 884  : 			if (this->GetItemInventoryPos(lpUser, Group->ItemList[i]) == (BYTE)-1)

  0035b	8b c4		 mov	 eax, esp
  0035d	56		 push	 esi
  0035e	0f 10 01	 movups	 xmm0, XMMWORD PTR [ecx]
  00361	0f 11 00	 movups	 XMMWORD PTR [eax], xmm0
  00364	f3 0f 7e 41 10	 movq	 xmm0, QWORD PTR [ecx+16]
  00369	8b cb		 mov	 ecx, ebx
  0036b	66 0f d6 40 10	 movq	 QWORD PTR [eax+16], xmm0
  00370	e8 00 00 00 00	 call	 ?GetItemInventoryPos@ResetSystem@@AAEEPAUOBJECTSTRUCT@@UResetItem@@@Z ; ResetSystem::GetItemInventoryPos
  00375	3c ff		 cmp	 al, 255			; 000000ffH
  00377	74 35		 je	 SHORT $LN267@CheckRequi
; File c:\program files (x86)\microsoft visual studio 14.0\vc\include\vector

; 1179 : 		return (this->_Mylast() - this->_Myfirst());

  00379	8b 8f f4 00 00
	00		 mov	 ecx, DWORD PTR [edi+244]
  0037f	b8 ab aa aa 2a	 mov	 eax, 715827883		; 2aaaaaabH
  00384	2b 8f f0 00 00
	00		 sub	 ecx, DWORD PTR [edi+240]
; File c:\users\michel\desktop\source\gameserver\source\resetsystem.cpp

; 882  : 		for (int i = 0; i < Group->ItemList.size(); i++)

  0038a	ff 45 14	 inc	 DWORD PTR _i$1$[ebp]
  0038d	83 45 18 18	 add	 DWORD PTR tv863[ebp], 24 ; 00000018H
; File c:\program files (x86)\microsoft visual studio 14.0\vc\include\vector

; 1179 : 		return (this->_Mylast() - this->_Myfirst());

  00391	f7 e9		 imul	 ecx
  00393	c1 fa 02	 sar	 edx, 2
  00396	8b c2		 mov	 eax, edx
  00398	c1 e8 1f	 shr	 eax, 31			; 0000001fH
  0039b	03 c2		 add	 eax, edx
; File c:\users\michel\desktop\source\gameserver\source\resetsystem.cpp

; 882  : 		for (int i = 0; i < Group->ItemList.size(); i++)

  0039d	39 45 14	 cmp	 DWORD PTR _i$1$[ebp], eax
  003a0	8b 45 18	 mov	 eax, DWORD PTR tv863[ebp]
  003a3	72 ab		 jb	 SHORT $LL13@CheckRequi
$LN12@CheckRequi:

; 887  : 					lpUser->AccountID, lpUser->Name, Group->ItemList[i].Type, Group->ItemList[i].Index, Group->ItemList[i].MinLevel, Group->ItemList[i].MaxLevel, Group->ItemList[i].MinDurability, Group->ItemList[i].MaxDurability, Group->ItemList[i].MinOption, Group->ItemList[i].MaxOption,
; 888  : 					Group->ItemList[i].Luck, Group->ItemList[i].Skill, Group->ItemList[i].Excellent, Group->ItemList[i].Ancient, Group->ItemList[i].Socket, Group->ItemList[i].Element, Group->ItemList[i].Count);
; 889  : 				return false;
; 890  : 			}
; 891  : 		}
; 892  : 	}
; 893  : 
; 894  : 	return true;

  003a5	b0 01		 mov	 al, 1

; 895  : }

  003a7	5f		 pop	 edi
  003a8	5e		 pop	 esi
  003a9	5b		 pop	 ebx
  003aa	5d		 pop	 ebp
  003ab	c2 14 00	 ret	 20			; 00000014H
$LN267@CheckRequi:
; File c:\program files (x86)\microsoft visual studio 14.0\vc\include\vector

; 1240 : 		return (*(this->_Myfirst() + _Pos));

  003ae	8b 45 14	 mov	 eax, DWORD PTR _i$1$[ebp]
  003b1	8d 0c 40	 lea	 ecx, DWORD PTR [eax+eax*2]
; File c:\users\michel\desktop\source\gameserver\source\resetsystem.cpp

; 886  : 				this->Log->Output("[ResetSystem] [%s] [%s] (CheckRequirements) Not have required item (type: %d, index: %d, minlevel: %d, maxlevel: %d, mindur: %d, maxdur: %d, minoption: %d, maxoption: %d, luck: %d, skill: %d, excellent: %d, ancient: %d, socket: %d, element: %d, count: %d)",

  003b4	8b 87 f0 00 00
	00		 mov	 eax, DWORD PTR [edi+240]
  003ba	8d 0c c8	 lea	 ecx, DWORD PTR [eax+ecx*8]
  003bd	0f bf 41 16	 movsx	 eax, WORD PTR [ecx+22]
  003c1	50		 push	 eax
  003c2	0f bf 41 14	 movsx	 eax, WORD PTR [ecx+20]
  003c6	50		 push	 eax
  003c7	0f bf 41 12	 movsx	 eax, WORD PTR [ecx+18]
  003cb	50		 push	 eax
  003cc	0f bf 41 10	 movsx	 eax, WORD PTR [ecx+16]
  003d0	50		 push	 eax
  003d1	0f bf 41 0e	 movsx	 eax, WORD PTR [ecx+14]
  003d5	50		 push	 eax
  003d6	0f bf 41 0c	 movsx	 eax, WORD PTR [ecx+12]
  003da	50		 push	 eax
  003db	0f bf 41 0a	 movsx	 eax, WORD PTR [ecx+10]
  003df	50		 push	 eax
  003e0	0f b6 41 09	 movzx	 eax, BYTE PTR [ecx+9]
  003e4	50		 push	 eax
  003e5	0f b6 41 08	 movzx	 eax, BYTE PTR [ecx+8]
  003e9	50		 push	 eax
  003ea	0f b6 41 07	 movzx	 eax, BYTE PTR [ecx+7]
  003ee	50		 push	 eax
  003ef	0f b6 41 06	 movzx	 eax, BYTE PTR [ecx+6]
  003f3	50		 push	 eax
  003f4	0f b6 41 05	 movzx	 eax, BYTE PTR [ecx+5]
  003f8	50		 push	 eax
  003f9	0f b6 41 04	 movzx	 eax, BYTE PTR [ecx+4]
  003fd	50		 push	 eax
  003fe	0f bf 41 02	 movsx	 eax, WORD PTR [ecx+2]
  00402	50		 push	 eax
  00403	0f bf 01	 movsx	 eax, WORD PTR [ecx]
  00406	50		 push	 eax
  00407	8d 46 5d	 lea	 eax, DWORD PTR [esi+93]
  0040a	83 c6 52	 add	 esi, 82			; 00000052H
  0040d	50		 push	 eax
  0040e	56		 push	 esi
  0040f	68 00 00 00 00	 push	 OFFSET ??_C@_0BAA@LFFJLJBC@?$FLResetSystem?$FN?5?$FL?$CFs?$FN?5?$FL?$CFs?$FN?5?$CICheckRe@
  00414	ff 73 2c	 push	 DWORD PTR [ebx+44]
  00417	e8 00 00 00 00	 call	 ?Output@CLogToFile@@QAAXPADZZ ; CLogToFile::Output
  0041c	83 c4 4c	 add	 esp, 76			; 0000004cH
  0041f	32 c0		 xor	 al, al

; 895  : }

  00421	5f		 pop	 edi
  00422	5e		 pop	 esi
  00423	5b		 pop	 ebx
  00424	5d		 pop	 ebp
  00425	c2 14 00	 ret	 20			; 00000014H
$LN24@CheckRequi:

; 792  : 	{
; 793  : 		this->Log->Output("[ResetSystem] [%s] [%s] (CheckRequirements) Level is not valid for this reset (min: %d, max: %d, user: %d)",

  00428	98		 cwde
  00429	8d 56 5d	 lea	 edx, DWORD PTR [esi+93]
  0042c	50		 push	 eax
  0042d	0f bf 47 02	 movsx	 eax, WORD PTR [edi+2]
  00431	50		 push	 eax
  00432	0f bf c1	 movsx	 eax, cx
  00435	50		 push	 eax
  00436	52		 push	 edx
  00437	8d 46 52	 lea	 eax, DWORD PTR [esi+82]
  0043a	50		 push	 eax
  0043b	68 00 00 00 00	 push	 OFFSET ??_C@_0GL@HKMJCFGF@?$FLResetSystem?$FN?5?$FL?$CFs?$FN?5?$FL?$CFs?$FN?5?$CICheckRe@
  00440	ff 73 2c	 push	 DWORD PTR [ebx+44]
  00443	e8 00 00 00 00	 call	 ?Output@CLogToFile@@QAAXPADZZ ; CLogToFile::Output
  00448	83 c4 1c	 add	 esp, 28			; 0000001cH

; 794  : 			lpUser->AccountID, lpUser->Name, Group->MinLevel, Group->MaxLevel, lpUser->Level);
; 795  : 		if (NotifyMessage)

  0044b	80 7d 14 00	 cmp	 BYTE PTR _NotifyMessage$[ebp], 0
  0044f	74 1c		 je	 SHORT $LN25@CheckRequi

; 796  : 				{
; 797  : 		this->GC_MessageBox(lpUser, "Reset Master", "Great %s!\nYou need %d level\nfor this reset.", lpUser->Name, Group->MinLevel);

  00451	0f bf 07	 movsx	 eax, WORD PTR [edi]
  00454	50		 push	 eax
  00455	8d 46 5d	 lea	 eax, DWORD PTR [esi+93]
  00458	50		 push	 eax
  00459	68 00 00 00 00	 push	 OFFSET ??_C@_0CM@NIJOIGCG@Great?5?$CFs?$CB?6You?5need?5?$CFd?5level?6for?5@
$LN280@CheckRequi:
  0045e	68 00 00 00 00	 push	 OFFSET ??_C@_0N@MCNFFMDL@Reset?5Master?$AA@
  00463	56		 push	 esi
  00464	53		 push	 ebx
  00465	e8 00 00 00 00	 call	 ?GC_MessageBox@ResetSystem@@QAAXPAUOBJECTSTRUCT@@PAD1ZZ ; ResetSystem::GC_MessageBox
  0046a	83 c4 18	 add	 esp, 24			; 00000018H
$LN25@CheckRequi:

; 895  : }

  0046d	5f		 pop	 edi
  0046e	5e		 pop	 esi
  0046f	32 c0		 xor	 al, al
  00471	5b		 pop	 ebx
  00472	5d		 pop	 ebp
  00473	c2 14 00	 ret	 20			; 00000014H
?CheckRequirements@ResetSystem@@AAE_NPAUOBJECTSTRUCT@@PAUResetGroup@@W4T@ResetType@@_NE@Z ENDP ; ResetSystem::CheckRequirements
_TEXT	ENDS
; Function compile flags: /Ogtp
; File c:\users\michel\desktop\source\gameserver\source\resetsystem.cpp
;	COMDAT ?IsValidItemNode@ResetSystem@@AAE_NUResetItem@@@Z
_TEXT	SEGMENT
_NewItem$ = 8						; size = 24
?IsValidItemNode@ResetSystem@@AAE_NUResetItem@@@Z PROC	; ResetSystem::IsValidItemNode, COMDAT
; _this$ = ecx

; 261  : {

  00000	55		 push	 ebp
  00001	8b ec		 mov	 ebp, esp

; 262  :     if (NewItem.Type < 0 || NewItem.Type > 15)

  00003	8b 45 08	 mov	 eax, DWORD PTR _NewItem$[ebp]
  00006	56		 push	 esi
  00007	8b f1		 mov	 esi, ecx
  00009	66 83 f8 0f	 cmp	 ax, 15			; 0000000fH
  0000d	0f 87 9c 02 00
	00		 ja	 $LN3@IsValidIte

; 267  :     }
; 268  :     
; 269  :     if (NewItem.Index < 0 || NewItem.Index > 512)

  00013	c1 e8 10	 shr	 eax, 16			; 00000010H
  00016	66 85 c0	 test	 ax, ax
  00019	0f 88 65 02 00
	00		 js	 $LN5@IsValidIte
  0001f	b9 00 02 00 00	 mov	 ecx, 512		; 00000200H
  00024	66 3b c1	 cmp	 ax, cx
  00027	0f 8f 57 02 00
	00		 jg	 $LN5@IsValidIte

; 273  :         return false;
; 274  :     }
; 275  :     
; 276  :     if (NewItem.MinLevel < 0 || NewItem.MaxLevel > 15)

  0002d	8b 4d 0c	 mov	 ecx, DWORD PTR _NewItem$[ebp+4]
  00030	8b c1		 mov	 eax, ecx
  00032	c1 e8 08	 shr	 eax, 8
  00035	3c 0f		 cmp	 al, 15			; 0000000fH
  00037	0f 87 1d 02 00
	00		 ja	 $LN7@IsValidIte

; 280  :         return false;
; 281  :     }
; 282  :     
; 283  :     if (NewItem.MaxLevel < 0 || NewItem.MaxLevel > 15)
; 284  :     {
; 285  :         MsgBox("[ResetSystem] Syntax error in item node, param: maxlvl (%d)", NewItem.MaxLevel);
; 286  :         this->Log->Output("[ResetSystem] Syntax error in item node, param: maxlvl (%d)", NewItem.MaxLevel);
; 287  :         return false;
; 288  :     }
; 289  :     
; 290  :     if (NewItem.MinDurability < 0 || NewItem.MinDurability > 255)

  0003d	8b c1		 mov	 eax, ecx
  0003f	c1 e8 10	 shr	 eax, 16			; 00000010H
  00042	3c ff		 cmp	 al, 255			; 000000ffH
  00044	0f 87 e5 01 00
	00		 ja	 $LN11@IsValidIte

; 294  :         return false;
; 295  :     }
; 296  :     
; 297  :     if (NewItem.MaxDurability < 0 || NewItem.MaxDurability > 255)

  0004a	c1 e9 18	 shr	 ecx, 24			; 00000018H
  0004d	80 f9 ff	 cmp	 cl, 255			; 000000ffH
  00050	0f 87 ae 01 00
	00		 ja	 $LN13@IsValidIte

; 301  :         return false;
; 302  :     }
; 303  :     
; 304  :     if (NewItem.MinOption < 0 || NewItem.MinOption > 7)

  00056	8b 4d 10	 mov	 ecx, DWORD PTR _NewItem$[ebp+8]
  00059	80 f9 07	 cmp	 cl, 7
  0005c	0f 87 78 01 00
	00		 ja	 $LN15@IsValidIte

; 308  :         return false;
; 309  :     }
; 310  :     
; 311  :     if (NewItem.MaxOption < 0 || NewItem.MaxOption > 7)

  00062	8b c1		 mov	 eax, ecx
  00064	c1 e8 08	 shr	 eax, 8
  00067	3c 07		 cmp	 al, 7
  00069	0f 87 41 01 00
	00		 ja	 $LN17@IsValidIte

; 315  :         return false;
; 316  :     }
; 317  : 
; 318  : 	if (NewItem.Luck < -1 || NewItem.Luck > 1)

  0006f	c1 e9 10	 shr	 ecx, 16			; 00000010H
  00072	66 83 f9 ff	 cmp	 cx, -1
  00076	0f 8c 09 01 00
	00		 jl	 $LN21@IsValidIte
  0007c	66 83 f9 01	 cmp	 cx, 1
  00080	0f 8f ff 00 00
	00		 jg	 $LN21@IsValidIte

; 319  :     {
; 320  :         MsgBox("[ResetSystem] Syntax error in item node, param: luck (%d)", NewItem.Luck);
; 321  :         this->Log->Output("[ResetSystem] Syntax error in item node, param: luck (%d)", NewItem.Luck);
; 322  :         return false;
; 323  :     }
; 324  : 
; 325  : 	if (NewItem.Skill < -1 || NewItem.Skill > 1)

  00086	8b 4d 14	 mov	 ecx, DWORD PTR _NewItem$[ebp+12]
  00089	8d 41 01	 lea	 eax, DWORD PTR [ecx+1]
  0008c	66 83 f8 02	 cmp	 ax, 2
  00090	0f 87 ef 00 00
	00		 ja	 $LN21@IsValidIte

; 329  :         return false;
; 330  :     }
; 331  : 
; 332  : 	if (NewItem.Excellent < -1 || NewItem.Excellent > 63)

  00096	c1 e9 10	 shr	 ecx, 16			; 00000010H
  00099	66 83 f9 ff	 cmp	 cx, -1
  0009d	0f 8c b7 00 00
	00		 jl	 $LN23@IsValidIte
  000a3	66 83 f9 3f	 cmp	 cx, 63			; 0000003fH
  000a7	0f 8f ad 00 00
	00		 jg	 $LN23@IsValidIte

; 336  :         return false;
; 337  :     }
; 338  : 
; 339  : 	if (NewItem.Ancient < -1 || NewItem.Ancient > 2)

  000ad	8b 4d 18	 mov	 ecx, DWORD PTR _NewItem$[ebp+16]
  000b0	8d 41 01	 lea	 eax, DWORD PTR [ecx+1]
  000b3	66 83 f8 03	 cmp	 ax, 3
  000b7	77 77		 ja	 SHORT $LN25@IsValidIte

; 343  :         return false;
; 344  :     }
; 345  : 	
; 346  : 	if (NewItem.Socket < -1 || NewItem.Socket > 5)

  000b9	c1 e9 10	 shr	 ecx, 16			; 00000010H
  000bc	66 83 f9 ff	 cmp	 cx, -1
  000c0	7c 43		 jl	 SHORT $LN27@IsValidIte
  000c2	66 83 f9 05	 cmp	 cx, 5
  000c6	7f 3d		 jg	 SHORT $LN27@IsValidIte

; 350  :         return false;
; 351  :     }
; 352  : 
; 353  : 	if (NewItem.Element < -1 || NewItem.Element > 5)

  000c8	8b 4d 1c	 mov	 ecx, DWORD PTR _NewItem$[ebp+20]
  000cb	8d 41 01	 lea	 eax, DWORD PTR [ecx+1]
  000ce	66 83 f8 06	 cmp	 ax, 6
  000d2	77 07		 ja	 SHORT $LN29@IsValidIte

; 357  :         return false;
; 358  :     }
; 359  : 
; 360  : 	return true;

  000d4	b0 01		 mov	 al, 1
  000d6	5e		 pop	 esi

; 361  : }

  000d7	5d		 pop	 ebp
  000d8	c2 18 00	 ret	 24			; 00000018H
$LN29@IsValidIte:

; 354  :     {
; 355  :         MsgBox("[ResetSystem] Syntax error in item node, param: element (%d)", NewItem.Element);

  000db	0f bf c1	 movsx	 eax, cx
  000de	50		 push	 eax
  000df	68 00 00 00 00	 push	 OFFSET ??_C@_0DN@NGBPCBKA@?$FLResetSystem?$FN?5Syntax?5error?5in?5it@
  000e4	e8 00 00 00 00	 call	 ?MsgBox@@YAXPADZZ	; MsgBox

; 356  :         this->Log->Output("[ResetSystem] Syntax error in item node, param: element (%d)", NewItem.Element);

  000e9	0f bf 45 1c	 movsx	 eax, WORD PTR _NewItem$[ebp+20]
  000ed	50		 push	 eax
  000ee	68 00 00 00 00	 push	 OFFSET ??_C@_0DN@NGBPCBKA@?$FLResetSystem?$FN?5Syntax?5error?5in?5it@
  000f3	ff 76 2c	 push	 DWORD PTR [esi+44]
  000f6	e8 00 00 00 00	 call	 ?Output@CLogToFile@@QAAXPADZZ ; CLogToFile::Output
  000fb	83 c4 14	 add	 esp, 20			; 00000014H
  000fe	32 c0		 xor	 al, al
  00100	5e		 pop	 esi

; 361  : }

  00101	5d		 pop	 ebp
  00102	c2 18 00	 ret	 24			; 00000018H
$LN27@IsValidIte:

; 347  :     {
; 348  :         MsgBox("[ResetSystem] Syntax error in item node, param: socket (%d)", NewItem.Socket);

  00105	0f bf 45 1a	 movsx	 eax, WORD PTR _NewItem$[ebp+18]
  00109	50		 push	 eax
  0010a	68 00 00 00 00	 push	 OFFSET ??_C@_0DM@CNNHDLNO@?$FLResetSystem?$FN?5Syntax?5error?5in?5it@
  0010f	e8 00 00 00 00	 call	 ?MsgBox@@YAXPADZZ	; MsgBox

; 349  :         this->Log->Output("[ResetSystem] Syntax error in item node, param: socket (%d)", NewItem.Socket);

  00114	0f bf 45 1a	 movsx	 eax, WORD PTR _NewItem$[ebp+18]
  00118	50		 push	 eax
  00119	68 00 00 00 00	 push	 OFFSET ??_C@_0DM@CNNHDLNO@?$FLResetSystem?$FN?5Syntax?5error?5in?5it@
  0011e	ff 76 2c	 push	 DWORD PTR [esi+44]
  00121	e8 00 00 00 00	 call	 ?Output@CLogToFile@@QAAXPADZZ ; CLogToFile::Output
  00126	83 c4 14	 add	 esp, 20			; 00000014H
  00129	32 c0		 xor	 al, al
  0012b	5e		 pop	 esi

; 361  : }

  0012c	5d		 pop	 ebp
  0012d	c2 18 00	 ret	 24			; 00000018H
$LN25@IsValidIte:

; 340  :     {
; 341  :         MsgBox("[ResetSystem] Syntax error in item node, param: ancient (%d)", NewItem.Ancient);

  00130	0f bf c1	 movsx	 eax, cx
  00133	50		 push	 eax
  00134	68 00 00 00 00	 push	 OFFSET ??_C@_0DN@BLMDLPJA@?$FLResetSystem?$FN?5Syntax?5error?5in?5it@
  00139	e8 00 00 00 00	 call	 ?MsgBox@@YAXPADZZ	; MsgBox

; 342  :         this->Log->Output("[ResetSystem] Syntax error in item node, param: ancient (%d)", NewItem.Ancient);

  0013e	0f bf 45 18	 movsx	 eax, WORD PTR _NewItem$[ebp+16]
  00142	50		 push	 eax
  00143	68 00 00 00 00	 push	 OFFSET ??_C@_0DN@BLMDLPJA@?$FLResetSystem?$FN?5Syntax?5error?5in?5it@
  00148	ff 76 2c	 push	 DWORD PTR [esi+44]
  0014b	e8 00 00 00 00	 call	 ?Output@CLogToFile@@QAAXPADZZ ; CLogToFile::Output
  00150	83 c4 14	 add	 esp, 20			; 00000014H
  00153	32 c0		 xor	 al, al
  00155	5e		 pop	 esi

; 361  : }

  00156	5d		 pop	 ebp
  00157	c2 18 00	 ret	 24			; 00000018H
$LN23@IsValidIte:

; 333  :     {
; 334  :         MsgBox("[ResetSystem] Syntax error in item node, param: excellent (%d)", NewItem.Excellent);

  0015a	0f bf 45 16	 movsx	 eax, WORD PTR _NewItem$[ebp+14]
  0015e	50		 push	 eax
  0015f	68 00 00 00 00	 push	 OFFSET ??_C@_0DP@KLHIOMDO@?$FLResetSystem?$FN?5Syntax?5error?5in?5it@
  00164	e8 00 00 00 00	 call	 ?MsgBox@@YAXPADZZ	; MsgBox

; 335  :         this->Log->Output("[ResetSystem] Syntax error in item node, param: excellent (%d)", NewItem.Excellent);

  00169	0f bf 45 16	 movsx	 eax, WORD PTR _NewItem$[ebp+14]
  0016d	50		 push	 eax
  0016e	68 00 00 00 00	 push	 OFFSET ??_C@_0DP@KLHIOMDO@?$FLResetSystem?$FN?5Syntax?5error?5in?5it@
  00173	ff 76 2c	 push	 DWORD PTR [esi+44]
  00176	e8 00 00 00 00	 call	 ?Output@CLogToFile@@QAAXPADZZ ; CLogToFile::Output
  0017b	83 c4 14	 add	 esp, 20			; 00000014H
  0017e	32 c0		 xor	 al, al
  00180	5e		 pop	 esi

; 361  : }

  00181	5d		 pop	 ebp
  00182	c2 18 00	 ret	 24			; 00000018H
$LN21@IsValidIte:

; 326  :     {
; 327  :         MsgBox("[ResetSystem] Syntax error in item node, param: luck (%d)", NewItem.Luck);

  00185	0f bf 45 12	 movsx	 eax, WORD PTR _NewItem$[ebp+10]
  00189	50		 push	 eax
  0018a	68 00 00 00 00	 push	 OFFSET ??_C@_0DK@FBBLNOEP@?$FLResetSystem?$FN?5Syntax?5error?5in?5it@
  0018f	e8 00 00 00 00	 call	 ?MsgBox@@YAXPADZZ	; MsgBox

; 328  :         this->Log->Output("[ResetSystem] Syntax error in item node, param: luck (%d)", NewItem.Luck);

  00194	0f bf 45 12	 movsx	 eax, WORD PTR _NewItem$[ebp+10]
  00198	50		 push	 eax
  00199	68 00 00 00 00	 push	 OFFSET ??_C@_0DK@FBBLNOEP@?$FLResetSystem?$FN?5Syntax?5error?5in?5it@
  0019e	ff 76 2c	 push	 DWORD PTR [esi+44]
  001a1	e8 00 00 00 00	 call	 ?Output@CLogToFile@@QAAXPADZZ ; CLogToFile::Output
  001a6	83 c4 14	 add	 esp, 20			; 00000014H
  001a9	32 c0		 xor	 al, al
  001ab	5e		 pop	 esi

; 361  : }

  001ac	5d		 pop	 ebp
  001ad	c2 18 00	 ret	 24			; 00000018H
$LN17@IsValidIte:

; 312  :     {
; 313  :         MsgBox("[ResetSystem] Syntax error in item node, param: maxopt (%d)", NewItem.MaxOption);

  001b0	0f b6 c5	 movzx	 eax, ch
  001b3	50		 push	 eax
  001b4	68 00 00 00 00	 push	 OFFSET ??_C@_0DM@CMHBDKGG@?$FLResetSystem?$FN?5Syntax?5error?5in?5it@
  001b9	e8 00 00 00 00	 call	 ?MsgBox@@YAXPADZZ	; MsgBox

; 314  :         this->Log->Output("[ResetSystem] Syntax error in item node, param: maxopt (%d)", NewItem.MaxOption);

  001be	0f b6 45 11	 movzx	 eax, BYTE PTR _NewItem$[ebp+9]
  001c2	50		 push	 eax
  001c3	68 00 00 00 00	 push	 OFFSET ??_C@_0DM@CMHBDKGG@?$FLResetSystem?$FN?5Syntax?5error?5in?5it@
  001c8	ff 76 2c	 push	 DWORD PTR [esi+44]
  001cb	e8 00 00 00 00	 call	 ?Output@CLogToFile@@QAAXPADZZ ; CLogToFile::Output
  001d0	83 c4 14	 add	 esp, 20			; 00000014H
  001d3	32 c0		 xor	 al, al
  001d5	5e		 pop	 esi

; 361  : }

  001d6	5d		 pop	 ebp
  001d7	c2 18 00	 ret	 24			; 00000018H
$LN15@IsValidIte:

; 305  :     {
; 306  :         MsgBox("[ResetSystem] Syntax error in item node, param: minopt (%d)", NewItem.MinOption);

  001da	0f b6 c1	 movzx	 eax, cl
  001dd	50		 push	 eax
  001de	68 00 00 00 00	 push	 OFFSET ??_C@_0DM@LMACCKIM@?$FLResetSystem?$FN?5Syntax?5error?5in?5it@
  001e3	e8 00 00 00 00	 call	 ?MsgBox@@YAXPADZZ	; MsgBox

; 307  :         this->Log->Output("[ResetSystem] Syntax error in item node, param: minopt (%d)", NewItem.MinOption);

  001e8	0f b6 45 10	 movzx	 eax, BYTE PTR _NewItem$[ebp+8]
  001ec	50		 push	 eax
  001ed	68 00 00 00 00	 push	 OFFSET ??_C@_0DM@LMACCKIM@?$FLResetSystem?$FN?5Syntax?5error?5in?5it@
  001f2	ff 76 2c	 push	 DWORD PTR [esi+44]
  001f5	e8 00 00 00 00	 call	 ?Output@CLogToFile@@QAAXPADZZ ; CLogToFile::Output
  001fa	83 c4 14	 add	 esp, 20			; 00000014H
  001fd	32 c0		 xor	 al, al
  001ff	5e		 pop	 esi

; 361  : }

  00200	5d		 pop	 ebp
  00201	c2 18 00	 ret	 24			; 00000018H
$LN13@IsValidIte:

; 298  :     {
; 299  :         MsgBox("[ResetSystem] Syntax error in item node, param: maxdur (%d)", NewItem.MaxDurability);

  00204	0f b6 45 0f	 movzx	 eax, BYTE PTR _NewItem$[ebp+7]
  00208	50		 push	 eax
  00209	68 00 00 00 00	 push	 OFFSET ??_C@_0DM@IFBEJPOF@?$FLResetSystem?$FN?5Syntax?5error?5in?5it@
  0020e	e8 00 00 00 00	 call	 ?MsgBox@@YAXPADZZ	; MsgBox

; 300  :         this->Log->Output("[ResetSystem] Syntax error in item node, param: maxdur (%d)", NewItem.MaxDurability);

  00213	0f b6 45 0f	 movzx	 eax, BYTE PTR _NewItem$[ebp+7]
  00217	50		 push	 eax
  00218	68 00 00 00 00	 push	 OFFSET ??_C@_0DM@IFBEJPOF@?$FLResetSystem?$FN?5Syntax?5error?5in?5it@
  0021d	ff 76 2c	 push	 DWORD PTR [esi+44]
  00220	e8 00 00 00 00	 call	 ?Output@CLogToFile@@QAAXPADZZ ; CLogToFile::Output
  00225	83 c4 14	 add	 esp, 20			; 00000014H
  00228	32 c0		 xor	 al, al
  0022a	5e		 pop	 esi

; 361  : }

  0022b	5d		 pop	 ebp
  0022c	c2 18 00	 ret	 24			; 00000018H
$LN11@IsValidIte:

; 291  :     {
; 292  :         MsgBox("[ResetSystem] Syntax error in item node, param: mindur (%d)", NewItem.MinDurability);

  0022f	0f b6 45 0e	 movzx	 eax, BYTE PTR _NewItem$[ebp+6]
  00233	50		 push	 eax
  00234	68 00 00 00 00	 push	 OFFSET ??_C@_0DM@BFGHIPAP@?$FLResetSystem?$FN?5Syntax?5error?5in?5it@
  00239	e8 00 00 00 00	 call	 ?MsgBox@@YAXPADZZ	; MsgBox

; 293  :         this->Log->Output("[ResetSystem] Syntax error in item node, param: mindur (%d)", NewItem.MinDurability);

  0023e	0f b6 45 0e	 movzx	 eax, BYTE PTR _NewItem$[ebp+6]
  00242	50		 push	 eax
  00243	68 00 00 00 00	 push	 OFFSET ??_C@_0DM@BFGHIPAP@?$FLResetSystem?$FN?5Syntax?5error?5in?5it@
  00248	ff 76 2c	 push	 DWORD PTR [esi+44]
  0024b	e8 00 00 00 00	 call	 ?Output@CLogToFile@@QAAXPADZZ ; CLogToFile::Output
  00250	83 c4 14	 add	 esp, 20			; 00000014H
  00253	32 c0		 xor	 al, al
  00255	5e		 pop	 esi

; 361  : }

  00256	5d		 pop	 ebp
  00257	c2 18 00	 ret	 24			; 00000018H
$LN7@IsValidIte:

; 277  :     {
; 278  :         MsgBox("[ResetSystem] Syntax error in item node, param: minlvl (%d)", NewItem.MinLevel);

  0025a	0f b6 c1	 movzx	 eax, cl
  0025d	50		 push	 eax
  0025e	68 00 00 00 00	 push	 OFFSET ??_C@_0DM@BHNBMNGH@?$FLResetSystem?$FN?5Syntax?5error?5in?5it@
  00263	e8 00 00 00 00	 call	 ?MsgBox@@YAXPADZZ	; MsgBox

; 279  :         this->Log->Output("[ResetSystem] Syntax error in item node, param: minlvl (%d)", NewItem.MinLevel);

  00268	0f b6 45 0c	 movzx	 eax, BYTE PTR _NewItem$[ebp+4]
  0026c	50		 push	 eax
  0026d	68 00 00 00 00	 push	 OFFSET ??_C@_0DM@BHNBMNGH@?$FLResetSystem?$FN?5Syntax?5error?5in?5it@
  00272	ff 76 2c	 push	 DWORD PTR [esi+44]
  00275	e8 00 00 00 00	 call	 ?Output@CLogToFile@@QAAXPADZZ ; CLogToFile::Output
  0027a	83 c4 14	 add	 esp, 20			; 00000014H
  0027d	32 c0		 xor	 al, al
  0027f	5e		 pop	 esi

; 361  : }

  00280	5d		 pop	 ebp
  00281	c2 18 00	 ret	 24			; 00000018H
$LN5@IsValidIte:

; 270  :     {
; 271  :         MsgBox("[ResetSystem] Syntax error in item node, param: index (%d)", NewItem.Index);

  00284	0f bf 45 0a	 movsx	 eax, WORD PTR _NewItem$[ebp+2]
  00288	50		 push	 eax
  00289	68 00 00 00 00	 push	 OFFSET ??_C@_0DL@CCJFLBFF@?$FLResetSystem?$FN?5Syntax?5error?5in?5it@
  0028e	e8 00 00 00 00	 call	 ?MsgBox@@YAXPADZZ	; MsgBox

; 272  :         this->Log->Output("[ResetSystem] Syntax error in item node, param: index (%d)", NewItem.Index);

  00293	0f bf 45 0a	 movsx	 eax, WORD PTR _NewItem$[ebp+2]
  00297	50		 push	 eax
  00298	68 00 00 00 00	 push	 OFFSET ??_C@_0DL@CCJFLBFF@?$FLResetSystem?$FN?5Syntax?5error?5in?5it@
  0029d	ff 76 2c	 push	 DWORD PTR [esi+44]
  002a0	e8 00 00 00 00	 call	 ?Output@CLogToFile@@QAAXPADZZ ; CLogToFile::Output
  002a5	83 c4 14	 add	 esp, 20			; 00000014H
  002a8	32 c0		 xor	 al, al
  002aa	5e		 pop	 esi

; 361  : }

  002ab	5d		 pop	 ebp
  002ac	c2 18 00	 ret	 24			; 00000018H
$LN3@IsValidIte:

; 263  :     {
; 264  :         MsgBox("[ResetSystem] Syntax error in item node, param: type (%d)", NewItem.Type);

  002af	98		 cwde
  002b0	50		 push	 eax
  002b1	68 00 00 00 00	 push	 OFFSET ??_C@_0DK@CBFNKBNC@?$FLResetSystem?$FN?5Syntax?5error?5in?5it@
  002b6	e8 00 00 00 00	 call	 ?MsgBox@@YAXPADZZ	; MsgBox

; 265  :         this->Log->Output("[ResetSystem] Syntax error in item node, param: type (%d)", NewItem.Type);

  002bb	0f bf 45 08	 movsx	 eax, WORD PTR _NewItem$[ebp]
  002bf	50		 push	 eax
  002c0	68 00 00 00 00	 push	 OFFSET ??_C@_0DK@CBFNKBNC@?$FLResetSystem?$FN?5Syntax?5error?5in?5it@
  002c5	ff 76 2c	 push	 DWORD PTR [esi+44]
  002c8	e8 00 00 00 00	 call	 ?Output@CLogToFile@@QAAXPADZZ ; CLogToFile::Output
  002cd	83 c4 14	 add	 esp, 20			; 00000014H

; 266  :         return false;

  002d0	32 c0		 xor	 al, al
  002d2	5e		 pop	 esi

; 361  : }

  002d3	5d		 pop	 ebp
  002d4	c2 18 00	 ret	 24			; 00000018H
?IsValidItemNode@ResetSystem@@AAE_NUResetItem@@@Z ENDP	; ResetSystem::IsValidItemNode
_TEXT	ENDS
; Function compile flags: /Ogtp
; File c:\users\michel\desktop\source\gameserver\source\resetsystem.cpp
;	COMDAT ?CG_RequestStart@ResetSystem@@QAEXHPAUPacketResetStart@@@Z
_TEXT	SEGMENT
_UserIndex$ = 8						; size = 4
_lpRequest$ = 12					; size = 4
?CG_RequestStart@ResetSystem@@QAEXHPAUPacketResetStart@@@Z PROC ; ResetSystem::CG_RequestStart, COMDAT
; _this$ = ecx

; 725  : {

  00000	55		 push	 ebp
  00001	8b ec		 mov	 ebp, esp
  00003	56		 push	 esi

; 726  : 	if (!gObjIsConnected(UserIndex))

  00004	8b 75 08	 mov	 esi, DWORD PTR _UserIndex$[ebp]
  00007	57		 push	 edi
  00008	56		 push	 esi
  00009	8b f9		 mov	 edi, ecx
  0000b	e8 00 00 00 00	 call	 ?gObjIsConnected@@YAHH@Z ; gObjIsConnected
  00010	83 c4 04	 add	 esp, 4
  00013	85 c0		 test	 eax, eax
  00015	74 26		 je	 SHORT $LN1@CG_Request

; 727  : 	{
; 728  : 		return;
; 729  : 	}
; 730  : 
; 731  : 	LPOBJ lpUser = &gObj[UserIndex];
; 732  : 
; 733  : 	this->ProcReset(lpUser, (ResetType::T)lpRequest->Type, lpRequest->PayType, lpRequest->ProcWait);

  00017	8b 55 0c	 mov	 edx, DWORD PTR _lpRequest$[ebp]
  0001a	8b cf		 mov	 ecx, edi
  0001c	0f b6 42 06	 movzx	 eax, BYTE PTR [edx+6]
  00020	50		 push	 eax
  00021	0f b6 42 05	 movzx	 eax, BYTE PTR [edx+5]
  00025	50		 push	 eax
  00026	0f b6 42 04	 movzx	 eax, BYTE PTR [edx+4]
  0002a	50		 push	 eax
  0002b	69 c6 40 27 00
	00		 imul	 eax, esi, 10048
  00031	03 05 00 00 00
	00		 add	 eax, DWORD PTR ?gObj@@3PAUOBJECTSTRUCT@@A ; gObj
  00037	50		 push	 eax
  00038	e8 00 00 00 00	 call	 ?ProcReset@ResetSystem@@QAE_NPAUOBJECTSTRUCT@@W4T@ResetType@@EE@Z ; ResetSystem::ProcReset
$LN1@CG_Request:
  0003d	5f		 pop	 edi
  0003e	5e		 pop	 esi

; 734  : }

  0003f	5d		 pop	 ebp
  00040	c2 08 00	 ret	 8
?CG_RequestStart@ResetSystem@@QAEXHPAUPacketResetStart@@@Z ENDP ; ResetSystem::CG_RequestStart
_TEXT	ENDS
; Function compile flags: /Ogtp
; File c:\users\michel\desktop\source\gameserver\source\resetsystem.cpp
; File c:\program files (x86)\windows kits\10\include\10.0.10240.0\ucrt\stdio.h
; File c:\users\michel\desktop\source\gameserver\source\resetsystem.cpp
; File c:\users\michel\desktop\source\gameserver\include\prodef.h
; File c:\users\michel\desktop\source\gameserver\source\resetsystem.cpp
;	COMDAT ?GC_MessageBox@ResetSystem@@QAAXPAUOBJECTSTRUCT@@PAD1ZZ
_TEXT	SEGMENT
_lpRequest$ = -720					; size = 204
_szBuffer$ = -516					; size = 512
__$ArrayPad$ = -4					; size = 4
_this$ = 8						; size = 4
_lpUser$ = 12						; size = 4
_Title$ = 16						; size = 4
_Text$ = 20						; size = 4
?GC_MessageBox@ResetSystem@@QAAXPAUOBJECTSTRUCT@@PAD1ZZ PROC ; ResetSystem::GC_MessageBox, COMDAT

; 708  : {

  00000	55		 push	 ebp
  00001	8b ec		 mov	 ebp, esp
  00003	81 ec d0 02 00
	00		 sub	 esp, 720		; 000002d0H
  00009	a1 00 00 00 00	 mov	 eax, DWORD PTR ___security_cookie
  0000e	33 c5		 xor	 eax, ebp
  00010	89 45 fc	 mov	 DWORD PTR __$ArrayPad$[ebp], eax
  00013	53		 push	 ebx
  00014	8b 5d 0c	 mov	 ebx, DWORD PTR _lpUser$[ebp]
  00017	8d 85 fc fd ff
	ff		 lea	 eax, DWORD PTR _szBuffer$[ebp]
  0001d	56		 push	 esi
  0001e	8b 75 10	 mov	 esi, DWORD PTR _Title$[ebp]
  00021	57		 push	 edi
  00022	68 00 02 00 00	 push	 512			; 00000200H
  00027	6a 00		 push	 0
  00029	50		 push	 eax
  0002a	e8 00 00 00 00	 call	 _memset
  0002f	83 c4 0c	 add	 esp, 12			; 0000000cH
; File c:\program files (x86)\windows kits\10\include\10.0.10240.0\ucrt\stdio.h

; 1386 :     int const _Result = __stdio_common_vsprintf(

  00032	8d 45 18	 lea	 eax, DWORD PTR _Text$[ebp+4]
  00035	50		 push	 eax
  00036	6a 00		 push	 0
  00038	ff 75 14	 push	 DWORD PTR _Text$[ebp]
  0003b	8d 85 fc fd ff
	ff		 lea	 eax, DWORD PTR _szBuffer$[ebp]
  00041	6a ff		 push	 -1
  00043	50		 push	 eax
  00044	e8 00 00 00 00	 call	 ___local_stdio_printf_options
  00049	8b 08		 mov	 ecx, DWORD PTR [eax]
  0004b	ff 70 04	 push	 DWORD PTR [eax+4]
  0004e	83 c9 01	 or	 ecx, 1
  00051	51		 push	 ecx
  00052	e8 00 00 00 00	 call	 ___stdio_common_vsprintf
; File c:\users\michel\desktop\source\gameserver\source\resetsystem.cpp

; 716  : 	PacketResetMessageBox lpRequest = { 0 };

  00057	68 cb 00 00 00	 push	 203			; 000000cbH
  0005c	8d 85 31 fd ff
	ff		 lea	 eax, DWORD PTR _lpRequest$[ebp+1]
  00062	6a 00		 push	 0
  00064	50		 push	 eax
  00065	e8 00 00 00 00	 call	 _memset

; 717  : 	lpRequest.Head.set((LPBYTE)&lpRequest, 0xFE, 0x05, sizeof(PacketResetMessageBox));
; 718  : 	memcpy(lpRequest.Title, Title, sizeof(lpRequest.Title)-1);

  0006a	0f 10 06	 movups	 xmm0, XMMWORD PTR [esi]
  0006d	66 8b 46 38	 mov	 ax, WORD PTR [esi+56]

; 719  : 	memcpy(lpRequest.Text, szBuffer, sizeof(lpRequest.Text)-1);

  00071	8d bd 70 fd ff
	ff		 lea	 edi, DWORD PTR _lpRequest$[ebp+64]
  00077	66 89 85 6c fd
	ff ff		 mov	 WORD PTR _lpRequest$[ebp+60], ax
  0007e	b9 22 00 00 00	 mov	 ecx, 34			; 00000022H
  00083	8a 46 3a	 mov	 al, BYTE PTR [esi+58]
  00086	0f 11 85 34 fd
	ff ff		 movups	 XMMWORD PTR _lpRequest$[ebp+4], xmm0
  0008d	88 85 6e fd ff
	ff		 mov	 BYTE PTR _lpRequest$[ebp+62], al

; 721  : 	DataSend(lpUser->m_Index, (LPBYTE)&lpRequest, lpRequest.Head.size);

  00093	8d 85 30 fd ff
	ff		 lea	 eax, DWORD PTR _lpRequest$[ebp]
  00099	0f 10 46 10	 movups	 xmm0, XMMWORD PTR [esi+16]
; File c:\users\michel\desktop\source\gameserver\include\prodef.h

; 140  : 		lpBuf[0] = 0xC1;

  0009d	c7 85 30 fd ff
	ff c1 cc fe 05	 mov	 DWORD PTR _lpRequest$[ebp], 100584641 ; 05feccc1H
; File c:\users\michel\desktop\source\gameserver\source\resetsystem.cpp

; 721  : 	DataSend(lpUser->m_Index, (LPBYTE)&lpRequest, lpRequest.Head.size);

  000a7	68 cc 00 00 00	 push	 204			; 000000ccH
  000ac	0f 11 85 44 fd
	ff ff		 movups	 XMMWORD PTR _lpRequest$[ebp+20], xmm0
  000b3	50		 push	 eax
  000b4	0f 10 46 20	 movups	 xmm0, XMMWORD PTR [esi+32]
  000b8	ff 33		 push	 DWORD PTR [ebx]
  000ba	0f 11 85 54 fd
	ff ff		 movups	 XMMWORD PTR _lpRequest$[ebp+36], xmm0
  000c1	f3 0f 7e 46 30	 movq	 xmm0, QWORD PTR [esi+48]
  000c6	8d b5 fc fd ff
	ff		 lea	 esi, DWORD PTR _szBuffer$[ebp]
  000cc	66 0f d6 85 64
