; Listing generated by Microsoft (R) Optimizing Compiler Version 19.00.23506.0 

	TITLE	C:\Users\Michel\Desktop\Source\GameServer\Source\RingAttackEvent.cpp
	.686P
	.XMM
	include listing.inc
	.model	flat

INCLUDELIB LIBCMT
INCLUDELIB OLDNAMES

PUBLIC	?__empty_global_delete@@YAXPAX@Z		; __empty_global_delete
PUBLIC	?__empty_global_delete@@YAXPAXI@Z		; __empty_global_delete
PUBLIC	??1OBJECTSTRUCT@@QAE@XZ				; OBJECTSTRUCT::~OBJECTSTRUCT
PUBLIC	??_EOBJECTSTRUCT@@QAEPAXI@Z			; OBJECTSTRUCT::`vector deleting destructor'
PUBLIC	??0CRingMonsterHerd@@QAE@XZ			; CRingMonsterHerd::CRingMonsterHerd
PUBLIC	??1CRingMonsterHerd@@UAE@XZ			; CRingMonsterHerd::~CRingMonsterHerd
PUBLIC	?SendEventGiftWinner@CRingMonsterHerd@@QAEXHH@Z	; CRingMonsterHerd::SendEventGiftWinner
PUBLIC	?Start@CRingMonsterHerd@@UAEHXZ			; CRingMonsterHerd::Start
PUBLIC	?MonsterHerdItemDrop@CRingMonsterHerd@@UAEHPAUOBJECTSTRUCT@@@Z ; CRingMonsterHerd::MonsterHerdItemDrop
PUBLIC	?MonsterAttackAction@CRingMonsterHerd@@UAEXPAUOBJECTSTRUCT@@0@Z ; CRingMonsterHerd::MonsterAttackAction
PUBLIC	??_GCRingMonsterHerd@@UAEPAXI@Z			; CRingMonsterHerd::`scalar deleting destructor'
PUBLIC	??0CRingAttackEvent@@QAE@XZ			; CRingAttackEvent::CRingAttackEvent
PUBLIC	??1CRingAttackEvent@@UAE@XZ			; CRingAttackEvent::~CRingAttackEvent
PUBLIC	?StartEvent@CRingAttackEvent@@QAEXXZ		; CRingAttackEvent::StartEvent
PUBLIC	?StopEvent@CRingAttackEvent@@QAEXXZ		; CRingAttackEvent::StopEvent
PUBLIC	?EnableEvent@CRingAttackEvent@@QAEXH@Z		; CRingAttackEvent::EnableEvent
PUBLIC	?Run@CRingAttackEvent@@QAEXXZ			; CRingAttackEvent::Run
PUBLIC	?CheckSync@CRingAttackEvent@@QAEXXZ		; CRingAttackEvent::CheckSync
PUBLIC	?SetState@CRingAttackEvent@@QAEXH@Z		; CRingAttackEvent::SetState
PUBLIC	?ProcState_None@CRingAttackEvent@@QAEXXZ	; CRingAttackEvent::ProcState_None
PUBLIC	?ProcState_Closed@CRingAttackEvent@@QAEXXZ	; CRingAttackEvent::ProcState_Closed
PUBLIC	?ProcState_Playing@CRingAttackEvent@@QAEXXZ	; CRingAttackEvent::ProcState_Playing
PUBLIC	?SetState_None@CRingAttackEvent@@QAEXXZ		; CRingAttackEvent::SetState_None
PUBLIC	?SetState_Closed@CRingAttackEvent@@QAEXXZ	; CRingAttackEvent::SetState_Closed
PUBLIC	?SetState_Playing@CRingAttackEvent@@QAEXXZ	; CRingAttackEvent::SetState_Playing
PUBLIC	?Move@CRingAttackEvent@@QAEXXZ			; CRingAttackEvent::Move
PUBLIC	?Start_Menual@CRingAttackEvent@@QAEXXZ		; CRingAttackEvent::Start_Menual
PUBLIC	?End_Menual@CRingAttackEvent@@QAEXXZ		; CRingAttackEvent::End_Menual
PUBLIC	?Load@CRingAttackEvent@@UAEHPAD@Z		; CRingAttackEvent::Load
PUBLIC	?deallocate@?$allocator@URINGMONSTER_DATA@@@std@@QAEXPAURINGMONSTER_DATA@@I@Z ; std::allocator<RINGMONSTER_DATA>::deallocate
PUBLIC	?allocate@?$allocator@URINGMONSTER_DATA@@@std@@QAEPAURINGMONSTER_DATA@@I@Z ; std::allocator<RINGMONSTER_DATA>::allocate
PUBLIC	?push_back@?$vector@URINGMONSTER_DATA@@V?$allocator@URINGMONSTER_DATA@@@std@@@std@@QAEXABURINGMONSTER_DATA@@@Z ; std::vector<RINGMONSTER_DATA,std::allocator<RINGMONSTER_DATA> >::push_back
PUBLIC	?erase@?$vector@URINGMONSTER_DATA@@V?$allocator@URINGMONSTER_DATA@@@std@@@std@@QAE?AV?$_Vector_iterator@V?$_Vector_val@U?$_Simple_types@URINGMONSTER_DATA@@@std@@@std@@@2@V?$_Vector_const_iterator@V?$_Vector_val@U?$_Simple_types@URINGMONSTER_DATA@@@std@@@std@@@2@0@Z ; std::vector<RINGMONSTER_DATA,std::allocator<RINGMONSTER_DATA> >::erase
PUBLIC	?_Reallocate@?$vector@URINGMONSTER_DATA@@V?$allocator@URINGMONSTER_DATA@@@std@@@std@@IAEXI@Z ; std::vector<RINGMONSTER_DATA,std::allocator<RINGMONSTER_DATA> >::_Reallocate
PUBLIC	?_Reserve@?$vector@URINGMONSTER_DATA@@V?$allocator@URINGMONSTER_DATA@@@std@@@std@@IAEXI@Z ; std::vector<RINGMONSTER_DATA,std::allocator<RINGMONSTER_DATA> >::_Reserve
PUBLIC	?allocate@?$allocator@URINGMONSTER_EVENT_TIME@@@std@@QAEPAURINGMONSTER_EVENT_TIME@@I@Z ; std::allocator<RINGMONSTER_EVENT_TIME>::allocate
PUBLIC	?deallocate@?$_Wrap_alloc@V?$allocator@URINGMONSTER_EVENT_TIME@@@std@@@std@@QAEXPAURINGMONSTER_EVENT_TIME@@I@Z ; std::_Wrap_alloc<std::allocator<RINGMONSTER_EVENT_TIME> >::deallocate
PUBLIC	?erase@?$vector@URINGMONSTER_EVENT_TIME@@V?$allocator@URINGMONSTER_EVENT_TIME@@@std@@@std@@QAE?AV?$_Vector_iterator@V?$_Vector_val@U?$_Simple_types@URINGMONSTER_EVENT_TIME@@@std@@@std@@@2@V?$_Vector_const_iterator@V?$_Vector_val@U?$_Simple_types@URINGMONSTER_EVENT_TIME@@@std@@@std@@@2@0@Z ; std::vector<RINGMONSTER_EVENT_TIME,std::allocator<RINGMONSTER_EVENT_TIME> >::erase
PUBLIC	?_Reallocate@?$vector@URINGMONSTER_EVENT_TIME@@V?$allocator@URINGMONSTER_EVENT_TIME@@@std@@@std@@IAEXI@Z ; std::vector<RINGMONSTER_EVENT_TIME,std::allocator<RINGMONSTER_EVENT_TIME> >::_Reallocate
PUBLIC	?_Reserve@?$vector@URINGMONSTER_EVENT_TIME@@V?$allocator@URINGMONSTER_EVENT_TIME@@@std@@@std@@IAEXI@Z ; std::vector<RINGMONSTER_EVENT_TIME,std::allocator<RINGMONSTER_EVENT_TIME> >::_Reserve
PUBLIC	??_GCRingAttackEvent@@UAEPAXI@Z			; CRingAttackEvent::`scalar deleting destructor'
PUBLIC	??$_Uninit_move@PAURINGMONSTER_EVENT_TIME@@PAU1@V?$allocator@URINGMONSTER_EVENT_TIME@@@std@@U1@@std@@YAPAURINGMONSTER_EVENT_TIME@@PAU1@00AAU?$_Wrap_alloc@V?$allocator@URINGMONSTER_EVENT_TIME@@@std@@@0@0U_Nonscalar_ptr_iterator_tag@0@@Z ; std::_Uninit_move<RINGMONSTER_EVENT_TIME *,RINGMONSTER_EVENT_TIME *,std::allocator<RINGMONSTER_EVENT_TIME>,RINGMONSTER_EVENT_TIME>
PUBLIC	??$_Uninit_move@PAURINGMONSTER_DATA@@PAU1@V?$allocator@URINGMONSTER_DATA@@@std@@U1@@std@@YAPAURINGMONSTER_DATA@@PAU1@00AAU?$_Wrap_alloc@V?$allocator@URINGMONSTER_DATA@@@std@@@0@0U_Nonscalar_ptr_iterator_tag@0@@Z ; std::_Uninit_move<RINGMONSTER_DATA *,RINGMONSTER_DATA *,std::allocator<RINGMONSTER_DATA>,RINGMONSTER_DATA>
PUBLIC	??_7CRingMonsterHerd@@6B@			; CRingMonsterHerd::`vftable'
PUBLIC	??_7CRingAttackEvent@@6B@			; CRingAttackEvent::`vftable'
PUBLIC	??_C@_0DL@ELDBHEBB@?$FLRing?5Event?$FN?5White?5Wizard?5Killed@ ; `string'
PUBLIC	??_C@_0EA@DGMJBKOB@?$FLRing?5Event?$FN?5?$FL?$CFs?$FN?$FL?$CFs?$FN?5Request?5to@ ; `string'
PUBLIC	??_C@_0CN@EBKICF@?$FLRing?5Event?$FN?5?9?5Error?5?3?5No?5Monste@ ; `string'
PUBLIC	??_C@_0DP@FPIHCFEB@?$FLRing?5Event?$FN?5?9?5Monster?5Start?5Pos@ ; `string'
PUBLIC	??_C@_01KDCPPGHE@r?$AA@				; `string'
PUBLIC	??_C@_0CG@OKIEPGH@?$FLRing?5Event?$FN?5Info?5file?5Load?5Fail@ ; `string'
PUBLIC	??_C@_03JBJLGPFL@end?$AA@			; `string'
PUBLIC	??_C@_0O@CEHBAEMJ@?$CFs?5file?5load?$CB?$AA@	; `string'
PUBLIC	??_C@_0CD@BNKPBCAA@?$FLRing?5Event?$FN?5No?5Schedule?5Time?5Da@ ; `string'
PUBLIC	??_C@_0EG@KMBELKMF@?$FLRing?5Event?$FN?5Sync?5Start?5Time?4?5?$FL?$CF@ ; `string'
PUBLIC	??_C@_0CM@NAOFHPPM@?$FLRing?5Event?$FN?5?9?5Before?53?5minutes?5@ ; `string'
PUBLIC	??_C@_0BN@HLGPJCPM@?$FLRing?5Event?$FN?5?9?5Event?5Started?$AA@ ; `string'
PUBLIC	??_C@_0EG@MJJALBNB@?$FLRing?5Event?$FN?5?9?5per?530?8S?5Inform?5M@ ; `string'
PUBLIC	??_C@_0DK@PFGAPPAF@?$FLRing?5Event?$FN?5?9?5Monster?5Herd?5Move@ ; `string'
PUBLIC	??_C@_0BL@KELOKDGN@?$FLRing?5Event?$FN?5?9?5Event?5Ended?$AA@ ; `string'
PUBLIC	??_C@_0DB@PHNKOJF@?$KB?$NL?$KB?$NM?$FLEvent?5Management?$FN?5?$FLStart?$FN?5R@ ; `string'
PUBLIC	??_C@_0BD@OLBABOEK@vector?$DMT?$DO?5too?5long?$AA@ ; `string'
PUBLIC	??_R4CRingMonsterHerd@@6B@			; CRingMonsterHerd::`RTTI Complete Object Locator'
PUBLIC	??_R0?AVCRingMonsterHerd@@@8			; CRingMonsterHerd `RTTI Type Descriptor'
PUBLIC	??_R3CRingMonsterHerd@@8			; CRingMonsterHerd::`RTTI Class Hierarchy Descriptor'
PUBLIC	??_R2CRingMonsterHerd@@8			; CRingMonsterHerd::`RTTI Base Class Array'
PUBLIC	??_R1A@?0A@EA@CRingMonsterHerd@@8		; CRingMonsterHerd::`RTTI Base Class Descriptor at (0,-1,0,64)'
PUBLIC	??_R1A@?0A@EA@MonsterHerd@@8			; MonsterHerd::`RTTI Base Class Descriptor at (0,-1,0,64)'
PUBLIC	??_R0?AVMonsterHerd@@@8				; MonsterHerd `RTTI Type Descriptor'
PUBLIC	??_R3MonsterHerd@@8				; MonsterHerd::`RTTI Class Hierarchy Descriptor'
PUBLIC	??_R2MonsterHerd@@8				; MonsterHerd::`RTTI Base Class Array'
PUBLIC	??_R4CRingAttackEvent@@6B@			; CRingAttackEvent::`RTTI Complete Object Locator'
PUBLIC	??_R0?AVCRingAttackEvent@@@8			; CRingAttackEvent `RTTI Type Descriptor'
PUBLIC	??_R3CRingAttackEvent@@8			; CRingAttackEvent::`RTTI Class Hierarchy Descriptor'
PUBLIC	??_R2CRingAttackEvent@@8			; CRingAttackEvent::`RTTI Base Class Array'
PUBLIC	??_R1A@?0A@EA@CRingAttackEvent@@8		; CRingAttackEvent::`RTTI Base Class Descriptor at (0,-1,0,64)'
EXTRN	??_L@YGXPAXIIP6EX0@Z1@Z:PROC			; `eh vector constructor iterator'
EXTRN	??_M@YGXPAXIIP6EX0@Z@Z:PROC			; `eh vector destructor iterator'
EXTRN	??2@YAPAXI@Z:PROC				; operator new
EXTRN	??3@YAXPAX@Z:PROC				; operator delete
EXTRN	??3@YAXPAXI@Z:PROC				; operator delete
EXTRN	??_V@YAXPAXI@Z:PROC				; operator delete[]
EXTRN	__invalid_parameter_noinfo_noreturn:PROC
EXTRN	_isalpha:PROC
EXTRN	_isdigit:PROC
EXTRN	_isspace:PROC
EXTRN	_isalnum:PROC
EXTRN	__imp__InitializeCriticalSection@4:PROC
EXTRN	__imp__EnterCriticalSection@4:PROC
EXTRN	__imp__LeaveCriticalSection@4:PROC
EXTRN	__imp__DeleteCriticalSection@4:PROC
EXTRN	__imp__GetLocalTime@4:PROC
EXTRN	__imp__GetTickCount@0:PROC
EXTRN	__imp__wsprintfA:PROC
EXTRN	_fclose:PROC
EXTRN	_fgetc:PROC
EXTRN	_fopen:PROC
EXTRN	_getc:PROC
EXTRN	_ungetc:PROC
EXTRN	_rand:PROC
EXTRN	_atof:PROC
EXTRN	?_Xbad_alloc@std@@YAXXZ:PROC			; std::_Xbad_alloc
EXTRN	?_Xlength_error@std@@YAXPBD@Z:PROC		; std::_Xlength_error
EXTRN	?Get@Message@@QAEPADH@Z:PROC			; Message::Get
EXTRN	?ItemGetNumberMake@@YAHHH@Z:PROC		; ItemGetNumberMake
EXTRN	??1CSkillDelay@@UAE@XZ:PROC			; CSkillDelay::~CSkillDelay
EXTRN	?MsgBox@@YAXPADZZ:PROC				; MsgBox
EXTRN	??1TMonsterAIAgro@@UAE@XZ:PROC			; TMonsterAIAgro::~TMonsterAIAgro
EXTRN	?MoneyItemDrop@MapClass@@QAEHHHH@Z:PROC		; MapClass::MoneyItemDrop
EXTRN	?AllSendServerMsg@@YAXPAD@Z:PROC		; AllSendServerMsg
EXTRN	?DataSendAll@@YAXPAEH@Z:PROC			; DataSendAll
EXTRN	?gObjIsConnected@@YAHH@Z:PROC			; gObjIsConnected
EXTRN	??0MonsterHerd@@QAE@XZ:PROC			; MonsterHerd::MonsterHerd
EXTRN	??1MonsterHerd@@UAE@XZ:PROC			; MonsterHerd::~MonsterHerd
EXTRN	?SetTotalInfo@MonsterHerd@@UAEHHHHH@Z:PROC	; MonsterHerd::SetTotalInfo
EXTRN	?AddMonster@MonsterHerd@@UAEHHHH@Z:PROC		; MonsterHerd::AddMonster
EXTRN	?SetRadius@MonsterHerd@@UAEXH@Z:PROC		; MonsterHerd::SetRadius
EXTRN	?SetPosition@MonsterHerd@@UAEXEE@Z:PROC		; MonsterHerd::SetPosition
EXTRN	?Start@MonsterHerd@@UAEHXZ:PROC			; MonsterHerd::Start
EXTRN	?Stop@MonsterHerd@@UAEXXZ:PROC			; MonsterHerd::Stop
EXTRN	?CheckInRadius@MonsterHerd@@UAEHH@Z:PROC	; MonsterHerd::CheckInRadius
EXTRN	?GetCurrentLocation@MonsterHerd@@UAEHAAE0@Z:PROC ; MonsterHerd::GetCurrentLocation
EXTRN	?GetRandomLocation@MonsterHerd@@UAEHAAE0@Z:PROC	; MonsterHerd::GetRandomLocation
EXTRN	?CheckLocation@MonsterHerd@@UAEHAAE0@Z:PROC	; MonsterHerd::CheckLocation
EXTRN	?MoveHerd@MonsterHerd@@UAEHEE@Z:PROC		; MonsterHerd::MoveHerd
EXTRN	?GetMonsterData@MonsterHerd@@UAEPAU_MONSTER_HERD_DATA@@H@Z:PROC ; MonsterHerd::GetMonsterData
EXTRN	?BeenAttacked@MonsterHerd@@UAEXPAUOBJECTSTRUCT@@0@Z:PROC ; MonsterHerd::BeenAttacked
EXTRN	?OrderAttack@MonsterHerd@@UAEXPAUOBJECTSTRUCT@@0H@Z:PROC ; MonsterHerd::OrderAttack
EXTRN	?MonsterBaseAct@MonsterHerd@@UAEXPAUOBJECTSTRUCT@@@Z:PROC ; MonsterHerd::MonsterBaseAct
EXTRN	?MonsterMoveAction@MonsterHerd@@UAEXPAUOBJECTSTRUCT@@@Z:PROC ; MonsterHerd::MonsterMoveAction
EXTRN	?MonsterDieAction@MonsterHerd@@UAEXPAUOBJECTSTRUCT@@@Z:PROC ; MonsterHerd::MonsterDieAction
EXTRN	?MonsterRegenAction@MonsterHerd@@UAEHPAUOBJECTSTRUCT@@@Z:PROC ; MonsterHerd::MonsterRegenAction
EXTRN	??_ECRingMonsterHerd@@UAEPAXI@Z:PROC		; CRingMonsterHerd::`vector deleting destructor'
EXTRN	??_ECRingAttackEvent@@UAEPAXI@Z:PROC		; CRingAttackEvent::`vector deleting destructor'
EXTRN	?gObjMonsterTopHitDamageUser@@YAHPAUOBJECTSTRUCT@@@Z:PROC ; gObjMonsterTopHitDamageUser
EXTRN	?ItemSerialCreateSend@@YAXHEEEHEEEEEHEEEPAE@Z:PROC ; ItemSerialCreateSend
EXTRN	?DataSendEventChip@@YAXPADH@Z:PROC		; DataSendEventChip
EXTRN	?PHeadSetB@@YAXPAEEH@Z:PROC			; PHeadSetB
EXTRN	?gObjCheckUsedBuffEffect@@YA_NPAUOBJECTSTRUCT@@H@Z:PROC ; gObjCheckUsedBuffEffect
EXTRN	@__security_check_cookie@4:PROC
EXTRN	__CxxThrowException@8:PROC
EXTRN	___CxxFrameHandler3:PROC
EXTRN	??_7type_info@@6B@:QWORD			; type_info::`vftable'
EXTRN	?lMsg@@3VMessage@@A:BYTE			; lMsg
EXTRN	?LogAdd@@3P6AXPADZZA:DWORD			; LogAdd
EXTRN	?LogAddC@@3P6AXEPADZZA:DWORD			; LogAddC
EXTRN	?LogAddTD@@3P6AXPADZZA:DWORD			; LogAddTD
EXTRN	?gObj@@3PAUOBJECTSTRUCT@@A:DWORD		; gObj
EXTRN	?MapC@@3PAVMapClass@@A:BYTE			; MapC
EXTRN	?g_iRingOrcKillGiftRate@@3HA:DWORD		; g_iRingOrcKillGiftRate
EXTRN	?gMapName@@3PAY0EA@DA:BYTE			; gMapName
EXTRN	___security_cookie:DWORD
EXTRN	__fltused:DWORD
_BSS	SEGMENT
?SMDFile@@3PAU_iobuf@@A DD 01H DUP (?)			; SMDFile
?TokenNumber@@3MA DD 01H DUP (?)			; TokenNumber
?TokenString@@3PADA DB 064H DUP (?)			; TokenString
?CurrentToken@@3W4SMDToken@@A DD 01H DUP (?)		; CurrentToken
_BSS	ENDS
;	COMDAT ??_R1A@?0A@EA@CRingAttackEvent@@8
rdata$r	SEGMENT
??_R1A@?0A@EA@CRingAttackEvent@@8 DD FLAT:??_R0?AVCRingAttackEvent@@@8 ; CRingAttackEvent::`RTTI Base Class Descriptor at (0,-1,0,64)'
	DD	00H
	DD	00H
	DD	0ffffffffH
	DD	00H
	DD	040H
	DD	FLAT:??_R3CRingAttackEvent@@8
rdata$r	ENDS
;	COMDAT ??_R2CRingAttackEvent@@8
rdata$r	SEGMENT
??_R2CRingAttackEvent@@8 DD FLAT:??_R1A@?0A@EA@CRingAttackEvent@@8 ; CRingAttackEvent::`RTTI Base Class Array'
rdata$r	ENDS
;	COMDAT ??_R3CRingAttackEvent@@8
rdata$r	SEGMENT
??_R3CRingAttackEvent@@8 DD 00H				; CRingAttackEvent::`RTTI Class Hierarchy Descriptor'
	DD	00H
	DD	01H
	DD	FLAT:??_R2CRingAttackEvent@@8
rdata$r	ENDS
;	COMDAT ??_R0?AVCRingAttackEvent@@@8
data$r	SEGMENT
??_R0?AVCRingAttackEvent@@@8 DD FLAT:??_7type_info@@6B@	; CRingAttackEvent `RTTI Type Descriptor'
	DD	00H
	DB	'.?AVCRingAttackEvent@@', 00H
data$r	ENDS
;	COMDAT ??_R4CRingAttackEvent@@6B@
rdata$r	SEGMENT
??_R4CRingAttackEvent@@6B@ DD 00H			; CRingAttackEvent::`RTTI Complete Object Locator'
	DD	00H
	DD	00H
	DD	FLAT:??_R0?AVCRingAttackEvent@@@8
	DD	FLAT:??_R3CRingAttackEvent@@8
rdata$r	ENDS
;	COMDAT ??_R2MonsterHerd@@8
rdata$r	SEGMENT
??_R2MonsterHerd@@8 DD FLAT:??_R1A@?0A@EA@MonsterHerd@@8 ; MonsterHerd::`RTTI Base Class Array'
rdata$r	ENDS
;	COMDAT ??_R3MonsterHerd@@8
rdata$r	SEGMENT
??_R3MonsterHerd@@8 DD 00H				; MonsterHerd::`RTTI Class Hierarchy Descriptor'
	DD	00H
	DD	01H
	DD	FLAT:??_R2MonsterHerd@@8
rdata$r	ENDS
;	COMDAT ??_R0?AVMonsterHerd@@@8
data$r	SEGMENT
??_R0?AVMonsterHerd@@@8 DD FLAT:??_7type_info@@6B@	; MonsterHerd `RTTI Type Descriptor'
	DD	00H
	DB	'.?AVMonsterHerd@@', 00H
data$r	ENDS
;	COMDAT ??_R1A@?0A@EA@MonsterHerd@@8
rdata$r	SEGMENT
??_R1A@?0A@EA@MonsterHerd@@8 DD FLAT:??_R0?AVMonsterHerd@@@8 ; MonsterHerd::`RTTI Base Class Descriptor at (0,-1,0,64)'
	DD	00H
	DD	00H
	DD	0ffffffffH
	DD	00H
	DD	040H
	DD	FLAT:??_R3MonsterHerd@@8
rdata$r	ENDS
;	COMDAT ??_R1A@?0A@EA@CRingMonsterHerd@@8
rdata$r	SEGMENT
??_R1A@?0A@EA@CRingMonsterHerd@@8 DD FLAT:??_R0?AVCRingMonsterHerd@@@8 ; CRingMonsterHerd::`RTTI Base Class Descriptor at (0,-1,0,64)'
	DD	01H
	DD	00H
	DD	0ffffffffH
	DD	00H
	DD	040H
	DD	FLAT:??_R3CRingMonsterHerd@@8
rdata$r	ENDS
;	COMDAT ??_R2CRingMonsterHerd@@8
rdata$r	SEGMENT
??_R2CRingMonsterHerd@@8 DD FLAT:??_R1A@?0A@EA@CRingMonsterHerd@@8 ; CRingMonsterHerd::`RTTI Base Class Array'
	DD	FLAT:??_R1A@?0A@EA@MonsterHerd@@8
rdata$r	ENDS
;	COMDAT ??_R3CRingMonsterHerd@@8
rdata$r	SEGMENT
??_R3CRingMonsterHerd@@8 DD 00H				; CRingMonsterHerd::`RTTI Class Hierarchy Descriptor'
	DD	00H
	DD	02H
	DD	FLAT:??_R2CRingMonsterHerd@@8
rdata$r	ENDS
;	COMDAT ??_R0?AVCRingMonsterHerd@@@8
data$r	SEGMENT
??_R0?AVCRingMonsterHerd@@@8 DD FLAT:??_7type_info@@6B@	; CRingMonsterHerd `RTTI Type Descriptor'
	DD	00H
	DB	'.?AVCRingMonsterHerd@@', 00H
data$r	ENDS
;	COMDAT ??_R4CRingMonsterHerd@@6B@
rdata$r	SEGMENT
??_R4CRingMonsterHerd@@6B@ DD 00H			; CRingMonsterHerd::`RTTI Complete Object Locator'
	DD	00H
	DD	00H
	DD	FLAT:??_R0?AVCRingMonsterHerd@@@8
	DD	FLAT:??_R3CRingMonsterHerd@@8
rdata$r	ENDS
;	COMDAT ??_C@_0BD@OLBABOEK@vector?$DMT?$DO?5too?5long?$AA@
CONST	SEGMENT
??_C@_0BD@OLBABOEK@vector?$DMT?$DO?5too?5long?$AA@ DB 'vector<T> too long'
	DB	00H						; `string'
CONST	ENDS
;	COMDAT ??_C@_0DB@PHNKOJF@?$KB?$NL?$KB?$NM?$FLEvent?5Management?$FN?5?$FLStart?$FN?5R@
CONST	SEGMENT
??_C@_0DB@PHNKOJF@?$KB?$NL?$KB?$NM?$FLEvent?5Management?$FN?5?$FLStart?$FN?5R@ DB 0a1H
	DB	0dbH, 0a1H, 0dcH, '[Event Management] [Start] RingAttack Event'
	DB	'!', 00H					; `string'
CONST	ENDS
;	COMDAT ??_C@_0BL@KELOKDGN@?$FLRing?5Event?$FN?5?9?5Event?5Ended?$AA@
CONST	SEGMENT
??_C@_0BL@KELOKDGN@?$FLRing?5Event?$FN?5?9?5Event?5Ended?$AA@ DB '[Ring E'
	DB	'vent] - Event Ended', 00H			; `string'
CONST	ENDS
;	COMDAT ??_C@_0DK@PFGAPPAF@?$FLRing?5Event?$FN?5?9?5Monster?5Herd?5Move@
CONST	SEGMENT
??_C@_0DK@PFGAPPAF@?$FLRing?5Event?$FN?5?9?5Monster?5Herd?5Move@ DB '[Rin'
	DB	'g Event] - Monster Herd Move MapNumber:%d, X:%d, Y:%d', 00H ; `string'
CONST	ENDS
;	COMDAT ??_C@_0EG@MJJALBNB@?$FLRing?5Event?$FN?5?9?5per?530?8S?5Inform?5M@
CONST	SEGMENT
??_C@_0EG@MJJALBNB@?$FLRing?5Event?$FN?5?9?5per?530?8S?5Inform?5M@ DB '[R'
	DB	'ing Event] - per 30''S Inform MapNumber:%d, X:%d, Y:%d, Boss '
	DB	'Live:%d', 00H				; `string'
CONST	ENDS
;	COMDAT ?s_iTIME_REMAIN@?1??ProcState_Playing@CRingAttackEvent@@QAEXXZ@4HA
_DATA	SEGMENT
?s_iTIME_REMAIN@?1??ProcState_Playing@CRingAttackEvent@@QAEXXZ@4HA DD 0ffffffffH ; `CRingAttackEvent::ProcState_Playing'::`2'::s_iTIME_REMAIN
_DATA	ENDS
;	COMDAT ??_C@_0BN@HLGPJCPM@?$FLRing?5Event?$FN?5?9?5Event?5Started?$AA@
CONST	SEGMENT
??_C@_0BN@HLGPJCPM@?$FLRing?5Event?$FN?5?9?5Event?5Started?$AA@ DB '[Ring'
	DB	' Event] - Event Started', 00H		; `string'
CONST	ENDS
;	COMDAT ??_C@_0CM@NAOFHPPM@?$FLRing?5Event?$FN?5?9?5Before?53?5minutes?5@
CONST	SEGMENT
??_C@_0CM@NAOFHPPM@?$FLRing?5Event?$FN?5?9?5Before?53?5minutes?5@ DB '[Ri'
	DB	'ng Event] - Before 3 minutes - Advertise', 00H ; `string'
CONST	ENDS
;	COMDAT ??_C@_0EG@KMBELKMF@?$FLRing?5Event?$FN?5Sync?5Start?5Time?4?5?$FL?$CF@
CONST	SEGMENT
??_C@_0EG@KMBELKMF@?$FLRing?5Event?$FN?5Sync?5Start?5Time?4?5?$FL?$CF@ DB '['
	DB	'Ring Event] Sync Start Time. [%d] min remain (START HOUR:%d, '
	DB	'MIN:%d)', 00H				; `string'
CONST	ENDS
;	COMDAT ??_C@_0CD@BNKPBCAA@?$FLRing?5Event?$FN?5No?5Schedule?5Time?5Da@
CONST	SEGMENT
??_C@_0CD@BNKPBCAA@?$FLRing?5Event?$FN?5No?5Schedule?5Time?5Da@ DB '[Ring'
	DB	' Event] No Schedule Time Data', 00H		; `string'
CONST	ENDS
;	COMDAT ??_C@_0O@CEHBAEMJ@?$CFs?5file?5load?$CB?$AA@
CONST	SEGMENT
??_C@_0O@CEHBAEMJ@?$CFs?5file?5load?$CB?$AA@ DB '%s file load!', 00H ; `string'
CONST	ENDS
;	COMDAT ??_C@_03JBJLGPFL@end?$AA@
CONST	SEGMENT
??_C@_03JBJLGPFL@end?$AA@ DB 'end', 00H			; `string'
CONST	ENDS
;	COMDAT ??_C@_0CG@OKIEPGH@?$FLRing?5Event?$FN?5Info?5file?5Load?5Fail@
CONST	SEGMENT
??_C@_0CG@OKIEPGH@?$FLRing?5Event?$FN?5Info?5file?5Load?5Fail@ DB '[Ring '
	DB	'Event] Info file Load Fail [%s]', 00H	; `string'
CONST	ENDS
;	COMDAT ??_C@_01KDCPPGHE@r?$AA@
CONST	SEGMENT
??_C@_01KDCPPGHE@r?$AA@ DB 'r', 00H			; `string'
CONST	ENDS
;	COMDAT ??_C@_0DP@FPIHCFEB@?$FLRing?5Event?$FN?5?9?5Monster?5Start?5Pos@
CONST	SEGMENT
??_C@_0DP@FPIHCFEB@?$FLRing?5Event?$FN?5?9?5Monster?5Start?5Pos@ DB '[Rin'
	DB	'g Event] - Monster Start Position MapNumber:%d, X:%d, Y:%d', 00H ; `string'
CONST	ENDS
;	COMDAT ??_C@_0CN@EBKICF@?$FLRing?5Event?$FN?5?9?5Error?5?3?5No?5Monste@
CONST	SEGMENT
??_C@_0CN@EBKICF@?$FLRing?5Event?$FN?5?9?5Error?5?3?5No?5Monste@ DB '[Rin'
	DB	'g Event] - Error : No Monster Data Exist', 00H ; `string'
CONST	ENDS
_DATA	SEGMENT
?g_RingEventMapNum@@3PAHA DD 00H			; g_RingEventMapNum
	DD	02H
	DD	03H
?g_RingMapPosition@@3PAY03HA DD 042H			; g_RingMapPosition
	DD	02cH
	DD	0bfH
	DD	0c5H
	DD	06fH
	DD	0eH
	DD	0e8H
	DD	07dH
	DD	088H
	DD	035H
	DD	0dfH
	DD	0b5H
	ORG $+4
?g_RingMapDestPosition@@3PAY07HA DD 085H		; g_RingMapDestPosition
	DD	04fH
	DD	057H
	DD	07eH
	DD	085H
	DD	0b2H
	DD	0b4H
	DD	07eH
	DD	0a4H
	DD	02aH
	DD	0ddH
	DD	055H
	DD	0a4H
	DD	02aH
	DD	0ddH
	DD	055H
	DD	0a0H
	DD	02dH
	DD	0a0H
	DD	02dH
	DD	098H
	DD	075H
	DD	0d1H
	DD	085H
_DATA	ENDS
;	COMDAT ??_C@_0EA@DGMJBKOB@?$FLRing?5Event?$FN?5?$FL?$CFs?$FN?$FL?$CFs?$FN?5Request?5to@
CONST	SEGMENT
??_C@_0EA@DGMJBKOB@?$FLRing?5Event?$FN?5?$FL?$CFs?$FN?$FL?$CFs?$FN?5Request?5to@ DB '['
	DB	'Ring Event] [%s][%s] Request to Register Gift - Gift Kind (%d'
	DB	')', 00H					; `string'
CONST	ENDS
;	COMDAT ??_C@_0DL@ELDBHEBB@?$FLRing?5Event?$FN?5White?5Wizard?5Killed@
CONST	SEGMENT
??_C@_0DL@ELDBHEBB@?$FLRing?5Event?$FN?5White?5Wizard?5Killed@ DB '[Ring '
	DB	'Event] White Wizard Killed by [%s][%s], MapNumber:%d', 00H ; `string'
CONST	ENDS
;	COMDAT ??_7CRingAttackEvent@@6B@
CONST	SEGMENT
??_7CRingAttackEvent@@6B@ DD FLAT:??_R4CRingAttackEvent@@6B@ ; CRingAttackEvent::`vftable'
	DD	FLAT:??_ECRingAttackEvent@@UAEPAXI@Z
	DD	FLAT:?Load@CRingAttackEvent@@UAEHPAD@Z
CONST	ENDS
;	COMDAT ??_7CRingMonsterHerd@@6B@
CONST	SEGMENT
??_7CRingMonsterHerd@@6B@ DD FLAT:??_R4CRingMonsterHerd@@6B@ ; CRingMonsterHerd::`vftable'
	DD	FLAT:??_ECRingMonsterHerd@@UAEPAXI@Z
	DD	FLAT:?SetTotalInfo@MonsterHerd@@UAEHHHHH@Z
	DD	FLAT:?AddMonster@MonsterHerd@@UAEHHHH@Z
	DD	FLAT:?SetRadius@MonsterHerd@@UAEXH@Z
	DD	FLAT:?SetPosition@MonsterHerd@@UAEXEE@Z
	DD	FLAT:?Start@CRingMonsterHerd@@UAEHXZ
	DD	FLAT:?Stop@MonsterHerd@@UAEXXZ
	DD	FLAT:?CheckInRadius@MonsterHerd@@UAEHH@Z
	DD	FLAT:?GetCurrentLocation@MonsterHerd@@UAEHAAE0@Z
	DD	FLAT:?GetRandomLocation@MonsterHerd@@UAEHAAE0@Z
	DD	FLAT:?CheckLocation@MonsterHerd@@UAEHAAE0@Z
	DD	FLAT:?MoveHerd@MonsterHerd@@UAEHEE@Z
	DD	FLAT:?MonsterHerdItemDrop@CRingMonsterHerd@@UAEHPAUOBJECTSTRUCT@@@Z
	DD	FLAT:?GetMonsterData@MonsterHerd@@UAEPAU_MONSTER_HERD_DATA@@H@Z
	DD	FLAT:?BeenAttacked@MonsterHerd@@UAEXPAUOBJECTSTRUCT@@0@Z
	DD	FLAT:?OrderAttack@MonsterHerd@@UAEXPAUOBJECTSTRUCT@@0H@Z
	DD	FLAT:?MonsterBaseAct@MonsterHerd@@UAEXPAUOBJECTSTRUCT@@@Z
	DD	FLAT:?MonsterMoveAction@MonsterHerd@@UAEXPAUOBJECTSTRUCT@@@Z
	DD	FLAT:?MonsterAttackAction@CRingMonsterHerd@@UAEXPAUOBJECTSTRUCT@@0@Z
	DD	FLAT:?MonsterDieAction@MonsterHerd@@UAEXPAUOBJECTSTRUCT@@@Z
	DD	FLAT:?MonsterRegenAction@MonsterHerd@@UAEHPAUOBJECTSTRUCT@@@Z
CONST	ENDS
;	COMDAT xdata$x
xdata$x	SEGMENT
__catchsym$?_Reallocate@?$vector@URINGMONSTER_EVENT_TIME@@V?$allocator@URINGMONSTER_EVENT_TIME@@@std@@@std@@IAEXI@Z$50 DD 040H
	DD	00H
	DD	00H
	DD	FLAT:__catch$?_Reallocate@?$vector@URINGMONSTER_EVENT_TIME@@V?$allocator@URINGMONSTER_EVENT_TIME@@@std@@@std@@IAEXI@Z$0
__unwindtable$?_Reallocate@?$vector@URINGMONSTER_EVENT_TIME@@V?$allocator@URINGMONSTER_EVENT_TIME@@@std@@@std@@IAEXI@Z DD 0ffffffffH
	DD	00H
	DD	0ffffffffH
	DD	00H
__tryblocktable$?_Reallocate@?$vector@URINGMONSTER_EVENT_TIME@@V?$allocator@URINGMONSTER_EVENT_TIME@@@std@@@std@@IAEXI@Z DD 00H
	DD	00H
	DD	01H
	DD	01H
	DD	FLAT:__catchsym$?_Reallocate@?$vector@URINGMONSTER_EVENT_TIME@@V?$allocator@URINGMONSTER_EVENT_TIME@@@std@@@std@@IAEXI@Z$50
__ehfuncinfo$?_Reallocate@?$vector@URINGMONSTER_EVENT_TIME@@V?$allocator@URINGMONSTER_EVENT_TIME@@@std@@@std@@IAEXI@Z DD 019930522H
	DD	02H
	DD	FLAT:__unwindtable$?_Reallocate@?$vector@URINGMONSTER_EVENT_TIME@@V?$allocator@URINGMONSTER_EVENT_TIME@@@std@@@std@@IAEXI@Z
	DD	01H
	DD	FLAT:__tryblocktable$?_Reallocate@?$vector@URINGMONSTER_EVENT_TIME@@V?$allocator@URINGMONSTER_EVENT_TIME@@@std@@@std@@IAEXI@Z
	DD	2 DUP(00H)
	DD	00H
	DD	01H
xdata$x	ENDS
;	COMDAT xdata$x
xdata$x	SEGMENT
__catchsym$?_Reallocate@?$vector@URINGMONSTER_DATA@@V?$allocator@URINGMONSTER_DATA@@@std@@@std@@IAEXI@Z$50 DD 040H
	DD	00H
	DD	00H
	DD	FLAT:__catch$?_Reallocate@?$vector@URINGMONSTER_DATA@@V?$allocator@URINGMONSTER_DATA@@@std@@@std@@IAEXI@Z$0
__unwindtable$?_Reallocate@?$vector@URINGMONSTER_DATA@@V?$allocator@URINGMONSTER_DATA@@@std@@@std@@IAEXI@Z DD 0ffffffffH
	DD	00H
	DD	0ffffffffH
	DD	00H
__tryblocktable$?_Reallocate@?$vector@URINGMONSTER_DATA@@V?$allocator@URINGMONSTER_DATA@@@std@@@std@@IAEXI@Z DD 00H
	DD	00H
	DD	01H
	DD	01H
	DD	FLAT:__catchsym$?_Reallocate@?$vector@URINGMONSTER_DATA@@V?$allocator@URINGMONSTER_DATA@@@std@@@std@@IAEXI@Z$50
__ehfuncinfo$?_Reallocate@?$vector@URINGMONSTER_DATA@@V?$allocator@URINGMONSTER_DATA@@@std@@@std@@IAEXI@Z DD 019930522H
	DD	02H
	DD	FLAT:__unwindtable$?_Reallocate@?$vector@URINGMONSTER_DATA@@V?$allocator@URINGMONSTER_DATA@@@std@@@std@@IAEXI@Z
	DD	01H
	DD	FLAT:__tryblocktable$?_Reallocate@?$vector@URINGMONSTER_DATA@@V?$allocator@URINGMONSTER_DATA@@@std@@@std@@IAEXI@Z
	DD	2 DUP(00H)
	DD	00H
	DD	01H
xdata$x	ENDS
;	COMDAT xdata$x
xdata$x	SEGMENT
__ehfuncinfo$??1CRingAttackEvent@@UAE@XZ DD 019930522H
	DD	00H
	DD	00H
	DD	2 DUP(00H)
	DD	2 DUP(00H)
	DD	00H
	DD	05H
xdata$x	ENDS
;	COMDAT xdata$x
xdata$x	SEGMENT
__ehfuncinfo$??_EOBJECTSTRUCT@@QAEPAXI@Z DD 019930522H
	DD	00H
	DD	00H
	DD	2 DUP(00H)
	DD	2 DUP(00H)
	DD	00H
	DD	05H
xdata$x	ENDS
; Function compile flags: /Ogtp
; File c:\program files (x86)\microsoft visual studio 14.0\vc\include\xmemory0
;	COMDAT ??$construct@URINGMONSTER_DATA@@U1@@?$allocator@URINGMONSTER_DATA@@@std@@QAEXPAURINGMONSTER_DATA@@$$QAU2@@Z
_TEXT	SEGMENT
__Ptr$ = 8						; size = 4
_<_Args_0>$ = 12					; size = 4
??$construct@URINGMONSTER_DATA@@U1@@?$allocator@URINGMONSTER_DATA@@@std@@QAEXPAURINGMONSTER_DATA@@$$QAU2@@Z PROC ; std::allocator<RINGMONSTER_DATA>::construct<RINGMONSTER_DATA,RINGMONSTER_DATA>, COMDAT
; _this$ = ecx

; 654  : 		{	// construct _Objty(_Types...) at _Ptr

  00000	55		 push	 ebp
  00001	8b ec		 mov	 ebp, esp

; 655  : 		::new ((void *)_Ptr) _Objty(_STD forward<_Types>(_Args)...);

  00003	8b 4d 08	 mov	 ecx, DWORD PTR __Ptr$[ebp]
  00006	85 c9		 test	 ecx, ecx
  00008	74 11		 je	 SHORT $LN3@construct
  0000a	8b 45 0c	 mov	 eax, DWORD PTR _<_Args_0>$[ebp]
  0000d	f3 0f 7e 00	 movq	 xmm0, QWORD PTR [eax]
  00011	66 0f d6 01	 movq	 QWORD PTR [ecx], xmm0
  00015	8b 40 08	 mov	 eax, DWORD PTR [eax+8]
  00018	89 41 08	 mov	 DWORD PTR [ecx+8], eax
$LN3@construct:

; 656  : 		}

  0001b	5d		 pop	 ebp
  0001c	c2 08 00	 ret	 8
??$construct@URINGMONSTER_DATA@@U1@@?$allocator@URINGMONSTER_DATA@@@std@@QAEXPAURINGMONSTER_DATA@@$$QAU2@@Z ENDP ; std::allocator<RINGMONSTER_DATA>::construct<RINGMONSTER_DATA,RINGMONSTER_DATA>
_TEXT	ENDS
; Function compile flags: /Ogtp
; File c:\program files (x86)\microsoft visual studio 14.0\vc\include\xmemory0
;	COMDAT ??$construct@URINGMONSTER_EVENT_TIME@@U1@@?$allocator@URINGMONSTER_EVENT_TIME@@@std@@QAEXPAURINGMONSTER_EVENT_TIME@@$$QAU2@@Z
_TEXT	SEGMENT
__Ptr$ = 8						; size = 4
_<_Args_0>$ = 12					; size = 4
??$construct@URINGMONSTER_EVENT_TIME@@U1@@?$allocator@URINGMONSTER_EVENT_TIME@@@std@@QAEXPAURINGMONSTER_EVENT_TIME@@$$QAU2@@Z PROC ; std::allocator<RINGMONSTER_EVENT_TIME>::construct<RINGMONSTER_EVENT_TIME,RINGMONSTER_EVENT_TIME>, COMDAT
; _this$ = ecx

; 654  : 		{	// construct _Objty(_Types...) at _Ptr

  00000	55		 push	 ebp
  00001	8b ec		 mov	 ebp, esp

; 655  : 		::new ((void *)_Ptr) _Objty(_STD forward<_Types>(_Args)...);

  00003	8b 55 08	 mov	 edx, DWORD PTR __Ptr$[ebp]
  00006	85 d2		 test	 edx, edx
  00008	74 0d		 je	 SHORT $LN3@construct
  0000a	8b 4d 0c	 mov	 ecx, DWORD PTR _<_Args_0>$[ebp]
  0000d	8b 01		 mov	 eax, DWORD PTR [ecx]
  0000f	89 02		 mov	 DWORD PTR [edx], eax
  00011	8b 41 04	 mov	 eax, DWORD PTR [ecx+4]
  00014	89 42 04	 mov	 DWORD PTR [edx+4], eax
$LN3@construct:

; 656  : 		}

  00017	5d		 pop	 ebp
  00018	c2 08 00	 ret	 8
??$construct@URINGMONSTER_EVENT_TIME@@U1@@?$allocator@URINGMONSTER_EVENT_TIME@@@std@@QAEXPAURINGMONSTER_EVENT_TIME@@$$QAU2@@Z ENDP ; std::allocator<RINGMONSTER_EVENT_TIME>::construct<RINGMONSTER_EVENT_TIME,RINGMONSTER_EVENT_TIME>
_TEXT	ENDS
; Function compile flags: /Ogtp
; File c:\program files (x86)\microsoft visual studio 14.0\vc\include\xmemory0
;	COMDAT ??$construct@URINGMONSTER_DATA@@U1@@?$allocator_traits@V?$allocator@URINGMONSTER_DATA@@@std@@@std@@SAXAAV?$allocator@URINGMONSTER_DATA@@@1@PAURINGMONSTER_DATA@@$$QAU3@@Z
_TEXT	SEGMENT
__Al$ = 8						; size = 4
__Ptr$ = 12						; size = 4
_<_Args_0>$ = 16					; size = 4
??$construct@URINGMONSTER_DATA@@U1@@?$allocator_traits@V?$allocator@URINGMONSTER_DATA@@@std@@@std@@SAXAAV?$allocator@URINGMONSTER_DATA@@@1@PAURINGMONSTER_DATA@@$$QAU3@@Z PROC ; std::allocator_traits<std::allocator<RINGMONSTER_DATA> >::construct<RINGMONSTER_DATA,RINGMONSTER_DATA>, COMDAT

; 772  : 		{	// construct _Objty(_Types...) at _Ptr

  00000	55		 push	 ebp
  00001	8b ec		 mov	 ebp, esp

; 655  : 		::new ((void *)_Ptr) _Objty(_STD forward<_Types>(_Args)...);

  00003	8b 4d 0c	 mov	 ecx, DWORD PTR __Ptr$[ebp]
  00006	85 c9		 test	 ecx, ecx
  00008	74 11		 je	 SHORT $LN8@construct
  0000a	8b 45 10	 mov	 eax, DWORD PTR _<_Args_0>$[ebp]
  0000d	f3 0f 7e 00	 movq	 xmm0, QWORD PTR [eax]
  00011	66 0f d6 01	 movq	 QWORD PTR [ecx], xmm0
  00015	8b 40 08	 mov	 eax, DWORD PTR [eax+8]
  00018	89 41 08	 mov	 DWORD PTR [ecx+8], eax
$LN8@construct:

; 773  : 		_Al.construct(_Ptr, _STD forward<_Types>(_Args)...);
; 774  : 		}

  0001b	5d		 pop	 ebp
  0001c	c3		 ret	 0
??$construct@URINGMONSTER_DATA@@U1@@?$allocator_traits@V?$allocator@URINGMONSTER_DATA@@@std@@@std@@SAXAAV?$allocator@URINGMONSTER_DATA@@@1@PAURINGMONSTER_DATA@@$$QAU3@@Z ENDP ; std::allocator_traits<std::allocator<RINGMONSTER_DATA> >::construct<RINGMONSTER_DATA,RINGMONSTER_DATA>
_TEXT	ENDS
; Function compile flags: /Ogtp
; File c:\program files (x86)\microsoft visual studio 14.0\vc\include\type_traits
;	COMDAT ??$forward@URINGMONSTER_DATA@@@std@@YA$$QAURINGMONSTER_DATA@@AAU1@@Z
_TEXT	SEGMENT
__Arg$ = 8						; size = 4
??$forward@URINGMONSTER_DATA@@@std@@YA$$QAURINGMONSTER_DATA@@AAU1@@Z PROC ; std::forward<RINGMONSTER_DATA>, COMDAT

; 1233 : 	{	// forward an lvalue as either an lvalue or an rvalue

  00000	55		 push	 ebp
  00001	8b ec		 mov	 ebp, esp

; 1234 : 	return (static_cast<_Ty&&>(_Arg));

  00003	8b 45 08	 mov	 eax, DWORD PTR __Arg$[ebp]

; 1235 : 	}

  00006	5d		 pop	 ebp
  00007	c3		 ret	 0
??$forward@URINGMONSTER_DATA@@@std@@YA$$QAURINGMONSTER_DATA@@AAU1@@Z ENDP ; std::forward<RINGMONSTER_DATA>
_TEXT	ENDS
; Function compile flags: /Ogtp
; File c:\program files (x86)\microsoft visual studio 14.0\vc\include\xmemory0
;	COMDAT ??$construct@URINGMONSTER_EVENT_TIME@@U1@@?$allocator_traits@V?$allocator@URINGMONSTER_EVENT_TIME@@@std@@@std@@SAXAAV?$allocator@URINGMONSTER_EVENT_TIME@@@1@PAURINGMONSTER_EVENT_TIME@@$$QAU3@@Z
_TEXT	SEGMENT
__Al$ = 8						; size = 4
__Ptr$ = 12						; size = 4
_<_Args_0>$ = 16					; size = 4
??$construct@URINGMONSTER_EVENT_TIME@@U1@@?$allocator_traits@V?$allocator@URINGMONSTER_EVENT_TIME@@@std@@@std@@SAXAAV?$allocator@URINGMONSTER_EVENT_TIME@@@1@PAURINGMONSTER_EVENT_TIME@@$$QAU3@@Z PROC ; std::allocator_traits<std::allocator<RINGMONSTER_EVENT_TIME> >::construct<RINGMONSTER_EVENT_TIME,RINGMONSTER_EVENT_TIME>, COMDAT

; 772  : 		{	// construct _Objty(_Types...) at _Ptr

  00000	55		 push	 ebp
  00001	8b ec		 mov	 ebp, esp

; 655  : 		::new ((void *)_Ptr) _Objty(_STD forward<_Types>(_Args)...);

  00003	8b 55 0c	 mov	 edx, DWORD PTR __Ptr$[ebp]
  00006	85 d2		 test	 edx, edx
  00008	74 0d		 je	 SHORT $LN8@construct
  0000a	8b 4d 10	 mov	 ecx, DWORD PTR _<_Args_0>$[ebp]
  0000d	8b 01		 mov	 eax, DWORD PTR [ecx]
  0000f	89 02		 mov	 DWORD PTR [edx], eax
  00011	8b 41 04	 mov	 eax, DWORD PTR [ecx+4]
  00014	89 42 04	 mov	 DWORD PTR [edx+4], eax
$LN8@construct:

; 773  : 		_Al.construct(_Ptr, _STD forward<_Types>(_Args)...);
; 774  : 		}

  00017	5d		 pop	 ebp
  00018	c3		 ret	 0
??$construct@URINGMONSTER_EVENT_TIME@@U1@@?$allocator_traits@V?$allocator@URINGMONSTER_EVENT_TIME@@@std@@@std@@SAXAAV?$allocator@URINGMONSTER_EVENT_TIME@@@1@PAURINGMONSTER_EVENT_TIME@@$$QAU3@@Z ENDP ; std::allocator_traits<std::allocator<RINGMONSTER_EVENT_TIME> >::construct<RINGMONSTER_EVENT_TIME,RINGMONSTER_EVENT_TIME>
_TEXT	ENDS
; Function compile flags: /Ogtp
; File c:\program files (x86)\microsoft visual studio 14.0\vc\include\type_traits
;	COMDAT ??$forward@URINGMONSTER_EVENT_TIME@@@std@@YA$$QAURINGMONSTER_EVENT_TIME@@AAU1@@Z
_TEXT	SEGMENT
__Arg$ = 8						; size = 4
??$forward@URINGMONSTER_EVENT_TIME@@@std@@YA$$QAURINGMONSTER_EVENT_TIME@@AAU1@@Z PROC ; std::forward<RINGMONSTER_EVENT_TIME>, COMDAT

; 1233 : 	{	// forward an lvalue as either an lvalue or an rvalue

  00000	55		 push	 ebp
  00001	8b ec		 mov	 ebp, esp

; 1234 : 	return (static_cast<_Ty&&>(_Arg));

  00003	8b 45 08	 mov	 eax, DWORD PTR __Arg$[ebp]

; 1235 : 	}

  00006	5d		 pop	 ebp
  00007	c3		 ret	 0
??$forward@URINGMONSTER_EVENT_TIME@@@std@@YA$$QAURINGMONSTER_EVENT_TIME@@AAU1@@Z ENDP ; std::forward<RINGMONSTER_EVENT_TIME>
_TEXT	ENDS
; Function compile flags: /Ogtp
; File c:\program files (x86)\microsoft visual studio 14.0\vc\include\xmemory0
;	COMDAT ??$construct@URINGMONSTER_DATA@@U1@@?$_Wrap_alloc@V?$allocator@URINGMONSTER_DATA@@@std@@@std@@QAEXPAURINGMONSTER_DATA@@$$QAU2@@Z
_TEXT	SEGMENT
__Ptr$ = 8						; size = 4
_<_Args_0>$ = 12					; size = 4
??$construct@URINGMONSTER_DATA@@U1@@?$_Wrap_alloc@V?$allocator@URINGMONSTER_DATA@@@std@@@std@@QAEXPAURINGMONSTER_DATA@@$$QAU2@@Z PROC ; std::_Wrap_alloc<std::allocator<RINGMONSTER_DATA> >::construct<RINGMONSTER_DATA,RINGMONSTER_DATA>, COMDAT
; _this$ = ecx

; 916  : 		{	// construct _Ty(_Types...) at _Ptr

  00000	55		 push	 ebp
  00001	8b ec		 mov	 ebp, esp

; 655  : 		::new ((void *)_Ptr) _Objty(_STD forward<_Types>(_Args)...);

  00003	8b 4d 08	 mov	 ecx, DWORD PTR __Ptr$[ebp]
  00006	85 c9		 test	 ecx, ecx
  00008	74 11		 je	 SHORT $LN13@construct
  0000a	8b 45 0c	 mov	 eax, DWORD PTR _<_Args_0>$[ebp]
  0000d	f3 0f 7e 00	 movq	 xmm0, QWORD PTR [eax]
  00011	66 0f d6 01	 movq	 QWORD PTR [ecx], xmm0
  00015	8b 40 08	 mov	 eax, DWORD PTR [eax+8]
  00018	89 41 08	 mov	 DWORD PTR [ecx+8], eax
$LN13@construct:

; 917  : 		_Mytraits::construct(*this, _Ptr,
; 918  : 			_STD forward<_Types>(_Args)...);
; 919  : 		}

  0001b	5d		 pop	 ebp
  0001c	c2 08 00	 ret	 8
??$construct@URINGMONSTER_DATA@@U1@@?$_Wrap_alloc@V?$allocator@URINGMONSTER_DATA@@@std@@@std@@QAEXPAURINGMONSTER_DATA@@$$QAU2@@Z ENDP ; std::_Wrap_alloc<std::allocator<RINGMONSTER_DATA> >::construct<RINGMONSTER_DATA,RINGMONSTER_DATA>
_TEXT	ENDS
; Function compile flags: /Ogtp
; File c:\program files (x86)\microsoft visual studio 14.0\vc\include\xmemory0
;	COMDAT ??$construct@URINGMONSTER_EVENT_TIME@@U1@@?$_Wrap_alloc@V?$allocator@URINGMONSTER_EVENT_TIME@@@std@@@std@@QAEXPAURINGMONSTER_EVENT_TIME@@$$QAU2@@Z
_TEXT	SEGMENT
__Ptr$ = 8						; size = 4
_<_Args_0>$ = 12					; size = 4
??$construct@URINGMONSTER_EVENT_TIME@@U1@@?$_Wrap_alloc@V?$allocator@URINGMONSTER_EVENT_TIME@@@std@@@std@@QAEXPAURINGMONSTER_EVENT_TIME@@$$QAU2@@Z PROC ; std::_Wrap_alloc<std::allocator<RINGMONSTER_EVENT_TIME> >::construct<RINGMONSTER_EVENT_TIME,RINGMONSTER_EVENT_TIME>, COMDAT
; _this$ = ecx

; 916  : 		{	// construct _Ty(_Types...) at _Ptr

  00000	55		 push	 ebp
  00001	8b ec		 mov	 ebp, esp

; 655  : 		::new ((void *)_Ptr) _Objty(_STD forward<_Types>(_Args)...);

  00003	8b 55 08	 mov	 edx, DWORD PTR __Ptr$[ebp]
  00006	85 d2		 test	 edx, edx
  00008	74 0d		 je	 SHORT $LN13@construct
  0000a	8b 4d 0c	 mov	 ecx, DWORD PTR _<_Args_0>$[ebp]
  0000d	8b 01		 mov	 eax, DWORD PTR [ecx]
  0000f	89 02		 mov	 DWORD PTR [edx], eax
  00011	8b 41 04	 mov	 eax, DWORD PTR [ecx+4]
  00014	89 42 04	 mov	 DWORD PTR [edx+4], eax
$LN13@construct:

; 917  : 		_Mytraits::construct(*this, _Ptr,
; 918  : 			_STD forward<_Types>(_Args)...);
; 919  : 		}

  00017	5d		 pop	 ebp
  00018	c2 08 00	 ret	 8
??$construct@URINGMONSTER_EVENT_TIME@@U1@@?$_Wrap_alloc@V?$allocator@URINGMONSTER_EVENT_TIME@@@std@@@std@@QAEXPAURINGMONSTER_EVENT_TIME@@$$QAU2@@Z ENDP ; std::_Wrap_alloc<std::allocator<RINGMONSTER_EVENT_TIME> >::construct<RINGMONSTER_EVENT_TIME,RINGMONSTER_EVENT_TIME>
_TEXT	ENDS
; Function compile flags: /Ogtp
; File c:\program files (x86)\microsoft visual studio 14.0\vc\include\xmemory0
;	COMDAT ??$destroy@URINGMONSTER_DATA@@@?$allocator@URINGMONSTER_DATA@@@std@@QAEXPAURINGMONSTER_DATA@@@Z
_TEXT	SEGMENT
__Ptr$ = 8						; size = 4
??$destroy@URINGMONSTER_DATA@@@?$allocator@URINGMONSTER_DATA@@@std@@QAEXPAURINGMONSTER_DATA@@@Z PROC ; std::allocator<RINGMONSTER_DATA>::destroy<RINGMONSTER_DATA>, COMDAT
; _this$ = ecx

; 662  : 		_Ptr->~_Uty();
; 663  : 		}

  00000	c2 04 00	 ret	 4
??$destroy@URINGMONSTER_DATA@@@?$allocator@URINGMONSTER_DATA@@@std@@QAEXPAURINGMONSTER_DATA@@@Z ENDP ; std::allocator<RINGMONSTER_DATA>::destroy<RINGMONSTER_DATA>
_TEXT	ENDS
; Function compile flags: /Ogtp
; File c:\program files (x86)\microsoft visual studio 14.0\vc\include\xmemory0
;	COMDAT ??$destroy@URINGMONSTER_EVENT_TIME@@@?$allocator@URINGMONSTER_EVENT_TIME@@@std@@QAEXPAURINGMONSTER_EVENT_TIME@@@Z
_TEXT	SEGMENT
__Ptr$ = 8						; size = 4
??$destroy@URINGMONSTER_EVENT_TIME@@@?$allocator@URINGMONSTER_EVENT_TIME@@@std@@QAEXPAURINGMONSTER_EVENT_TIME@@@Z PROC ; std::allocator<RINGMONSTER_EVENT_TIME>::destroy<RINGMONSTER_EVENT_TIME>, COMDAT
; _this$ = ecx

; 662  : 		_Ptr->~_Uty();
; 663  : 		}

  00000	c2 04 00	 ret	 4
??$destroy@URINGMONSTER_EVENT_TIME@@@?$allocator@URINGMONSTER_EVENT_TIME@@@std@@QAEXPAURINGMONSTER_EVENT_TIME@@@Z ENDP ; std::allocator<RINGMONSTER_EVENT_TIME>::destroy<RINGMONSTER_EVENT_TIME>
_TEXT	ENDS
; Function compile flags: /Ogtp
; File c:\program files (x86)\microsoft visual studio 14.0\vc\include\xmemory
; File c:\program files (x86)\microsoft visual studio 14.0\vc\include\xmemory0
; File c:\program files (x86)\microsoft visual studio 14.0\vc\include\xmemory
;	COMDAT ??$_Uninit_move@PAURINGMONSTER_DATA@@PAU1@V?$allocator@URINGMONSTER_DATA@@@std@@U1@@std@@YAPAURINGMONSTER_DATA@@PAU1@00AAU?$_Wrap_alloc@V?$allocator@URINGMONSTER_DATA@@@std@@@0@0U_Nonscalar_ptr_iterator_tag@0@@Z
_TEXT	SEGMENT
__First$ = 8						; size = 4
__Last$ = 12						; size = 4
__Dest$ = 16						; size = 4
__Al$ = 20						; size = 4
___formal$ = 24						; size = 4
___formal$ = 28						; size = 1
??$_Uninit_move@PAURINGMONSTER_DATA@@PAU1@V?$allocator@URINGMONSTER_DATA@@@std@@U1@@std@@YAPAURINGMONSTER_DATA@@PAU1@00AAU?$_Wrap_alloc@V?$allocator@URINGMONSTER_DATA@@@std@@@0@0U_Nonscalar_ptr_iterator_tag@0@@Z PROC ; std::_Uninit_move<RINGMONSTER_DATA *,RINGMONSTER_DATA *,std::allocator<RINGMONSTER_DATA>,RINGMONSTER_DATA>, COMDAT

; 437  : 	{	// move [_First, _Last) to raw _Dest, using _Al, arbitrary type

  00000	55		 push	 ebp
  00001	8b ec		 mov	 ebp, esp

; 442  : 	for (; _First != _Last; ++_Dest, (void)++_First)

  00003	8b 4d 08	 mov	 ecx, DWORD PTR __First$[ebp]
  00006	8b 45 10	 mov	 eax, DWORD PTR __Dest$[ebp]
  00009	56		 push	 esi
  0000a	8b 75 0c	 mov	 esi, DWORD PTR __Last$[ebp]
  0000d	3b ce		 cmp	 ecx, esi
  0000f	74 1c		 je	 SHORT $LN3@Uninit_mov
$LL4@Uninit_mov:
; File c:\program files (x86)\microsoft visual studio 14.0\vc\include\xmemory0

; 655  : 		::new ((void *)_Ptr) _Objty(_STD forward<_Types>(_Args)...);

  00011	85 c0		 test	 eax, eax
  00013	74 0e		 je	 SHORT $LN2@Uninit_mov
  00015	f3 0f 7e 01	 movq	 xmm0, QWORD PTR [ecx]
  00019	66 0f d6 00	 movq	 QWORD PTR [eax], xmm0
  0001d	8b 51 08	 mov	 edx, DWORD PTR [ecx+8]
  00020	89 50 08	 mov	 DWORD PTR [eax+8], edx
$LN2@Uninit_mov:
; File c:\program files (x86)\microsoft visual studio 14.0\vc\include\xmemory

; 442  : 	for (; _First != _Last; ++_Dest, (void)++_First)

  00023	83 c1 0c	 add	 ecx, 12			; 0000000cH
  00026	83 c0 0c	 add	 eax, 12			; 0000000cH
  00029	3b ce		 cmp	 ecx, esi
  0002b	75 e4		 jne	 SHORT $LL4@Uninit_mov
$LN3@Uninit_mov:
  0002d	5e		 pop	 esi

; 443  : 		_Al.construct(_Dest, (_Valty&&)*_First);
; 444  : 	_CATCH_ALL
; 445  : 	for (; _Next != _Dest; ++_Next)
; 446  : 		_Al.destroy(_Next);
; 447  : 	_RERAISE;
; 448  : 	_CATCH_END
; 449  : 	return (_Dest);
; 450  : 	}

  0002e	5d		 pop	 ebp
  0002f	c3		 ret	 0
??$_Uninit_move@PAURINGMONSTER_DATA@@PAU1@V?$allocator@URINGMONSTER_DATA@@@std@@U1@@std@@YAPAURINGMONSTER_DATA@@PAU1@00AAU?$_Wrap_alloc@V?$allocator@URINGMONSTER_DATA@@@std@@@0@0U_Nonscalar_ptr_iterator_tag@0@@Z ENDP ; std::_Uninit_move<RINGMONSTER_DATA *,RINGMONSTER_DATA *,std::allocator<RINGMONSTER_DATA>,RINGMONSTER_DATA>
_TEXT	ENDS
; Function compile flags: /Ogtp
; File c:\program files (x86)\microsoft visual studio 14.0\vc\include\xutility
;	COMDAT ??$_Val_type@PAURINGMONSTER_DATA@@@std@@YAPAURINGMONSTER_DATA@@PAU1@@Z
_TEXT	SEGMENT
___formal$ = 8						; size = 4
??$_Val_type@PAURINGMONSTER_DATA@@@std@@YAPAURINGMONSTER_DATA@@PAU1@@Z PROC ; std::_Val_type<RINGMONSTER_DATA *>, COMDAT

; 875  : 	return (0);

  00000	33 c0		 xor	 eax, eax

; 876  : 	}

  00002	c3		 ret	 0
??$_Val_type@PAURINGMONSTER_DATA@@@std@@YAPAURINGMONSTER_DATA@@PAU1@@Z ENDP ; std::_Val_type<RINGMONSTER_DATA *>
_TEXT	ENDS
; Function compile flags: /Ogtp
; File c:\program files (x86)\microsoft visual studio 14.0\vc\include\xmemory
; File c:\program files (x86)\microsoft visual studio 14.0\vc\include\xmemory0
; File c:\program files (x86)\microsoft visual studio 14.0\vc\include\xmemory
;	COMDAT ??$_Uninit_move@PAURINGMONSTER_EVENT_TIME@@PAU1@V?$allocator@URINGMONSTER_EVENT_TIME@@@std@@U1@@std@@YAPAURINGMONSTER_EVENT_TIME@@PAU1@00AAU?$_Wrap_alloc@V?$allocator@URINGMONSTER_EVENT_TIME@@@std@@@0@0U_Nonscalar_ptr_iterator_tag@0@@Z
_TEXT	SEGMENT
__First$ = 8						; size = 4
__Last$ = 12						; size = 4
__Dest$ = 16						; size = 4
__Al$ = 20						; size = 4
___formal$ = 24						; size = 4
___formal$ = 28						; size = 1
??$_Uninit_move@PAURINGMONSTER_EVENT_TIME@@PAU1@V?$allocator@URINGMONSTER_EVENT_TIME@@@std@@U1@@std@@YAPAURINGMONSTER_EVENT_TIME@@PAU1@00AAU?$_Wrap_alloc@V?$allocator@URINGMONSTER_EVENT_TIME@@@std@@@0@0U_Nonscalar_ptr_iterator_tag@0@@Z PROC ; std::_Uninit_move<RINGMONSTER_EVENT_TIME *,RINGMONSTER_EVENT_TIME *,std::allocator<RINGMONSTER_EVENT_TIME>,RINGMONSTER_EVENT_TIME>, COMDAT

; 437  : 	{	// move [_First, _Last) to raw _Dest, using _Al, arbitrary type

  00000	55		 push	 ebp
  00001	8b ec		 mov	 ebp, esp

; 442  : 	for (; _First != _Last; ++_Dest, (void)++_First)

  00003	8b 4d 08	 mov	 ecx, DWORD PTR __First$[ebp]
  00006	57		 push	 edi
  00007	8b 7d 0c	 mov	 edi, DWORD PTR __Last$[ebp]
  0000a	3b cf		 cmp	 ecx, edi
  0000c	74 22		 je	 SHORT $LN37@Uninit_mov
  0000e	56		 push	 esi
  0000f	8b 75 10	 mov	 esi, DWORD PTR __Dest$[ebp]
$LL4@Uninit_mov:
; File c:\program files (x86)\microsoft visual studio 14.0\vc\include\xmemory0

; 655  : 		::new ((void *)_Ptr) _Objty(_STD forward<_Types>(_Args)...);

  00012	85 f6		 test	 esi, esi
  00014	74 0a		 je	 SHORT $LN2@Uninit_mov
  00016	8b 01		 mov	 eax, DWORD PTR [ecx]
  00018	89 06		 mov	 DWORD PTR [esi], eax
  0001a	8b 51 04	 mov	 edx, DWORD PTR [ecx+4]
  0001d	89 56 04	 mov	 DWORD PTR [esi+4], edx
$LN2@Uninit_mov:
; File c:\program files (x86)\microsoft visual studio 14.0\vc\include\xmemory

; 442  : 	for (; _First != _Last; ++_Dest, (void)++_First)

  00020	83 c1 08	 add	 ecx, 8
  00023	83 c6 08	 add	 esi, 8
  00026	3b cf		 cmp	 ecx, edi
  00028	75 e8		 jne	 SHORT $LL4@Uninit_mov

; 443  : 		_Al.construct(_Dest, (_Valty&&)*_First);
; 444  : 	_CATCH_ALL
; 445  : 	for (; _Next != _Dest; ++_Next)
; 446  : 		_Al.destroy(_Next);
; 447  : 	_RERAISE;
; 448  : 	_CATCH_END
; 449  : 	return (_Dest);

  0002a	8b c6		 mov	 eax, esi
  0002c	5e		 pop	 esi
  0002d	5f		 pop	 edi

; 450  : 	}

  0002e	5d		 pop	 ebp
  0002f	c3		 ret	 0
$LN37@Uninit_mov:

; 443  : 		_Al.construct(_Dest, (_Valty&&)*_First);
; 444  : 	_CATCH_ALL
; 445  : 	for (; _Next != _Dest; ++_Next)
; 446  : 		_Al.destroy(_Next);
; 447  : 	_RERAISE;
; 448  : 	_CATCH_END
; 449  : 	return (_Dest);

  00030	8b 45 10	 mov	 eax, DWORD PTR __Dest$[ebp]
  00033	5f		 pop	 edi

; 450  : 	}

  00034	5d		 pop	 ebp
  00035	c3		 ret	 0
??$_Uninit_move@PAURINGMONSTER_EVENT_TIME@@PAU1@V?$allocator@URINGMONSTER_EVENT_TIME@@@std@@U1@@std@@YAPAURINGMONSTER_EVENT_TIME@@PAU1@00AAU?$_Wrap_alloc@V?$allocator@URINGMONSTER_EVENT_TIME@@@std@@@0@0U_Nonscalar_ptr_iterator_tag@0@@Z ENDP ; std::_Uninit_move<RINGMONSTER_EVENT_TIME *,RINGMONSTER_EVENT_TIME *,std::allocator<RINGMONSTER_EVENT_TIME>,RINGMONSTER_EVENT_TIME>
_TEXT	ENDS
; Function compile flags: /Ogtp
; File c:\program files (x86)\microsoft visual studio 14.0\vc\include\xutility
;	COMDAT ??$_Val_type@PAURINGMONSTER_EVENT_TIME@@@std@@YAPAURINGMONSTER_EVENT_TIME@@PAU1@@Z
_TEXT	SEGMENT
___formal$ = 8						; size = 4
??$_Val_type@PAURINGMONSTER_EVENT_TIME@@@std@@YAPAURINGMONSTER_EVENT_TIME@@PAU1@@Z PROC ; std::_Val_type<RINGMONSTER_EVENT_TIME *>, COMDAT

; 875  : 	return (0);

  00000	33 c0		 xor	 eax, eax

; 876  : 	}

  00002	c3		 ret	 0
??$_Val_type@PAURINGMONSTER_EVENT_TIME@@@std@@YAPAURINGMONSTER_EVENT_TIME@@PAU1@@Z ENDP ; std::_Val_type<RINGMONSTER_EVENT_TIME *>
_TEXT	ENDS
; Function compile flags: /Ogtp
; File c:\program files (x86)\microsoft visual studio 14.0\vc\include\xmemory0
;	COMDAT ??$destroy@URINGMONSTER_DATA@@@?$allocator_traits@V?$allocator@URINGMONSTER_DATA@@@std@@@std@@SAXAAV?$allocator@URINGMONSTER_DATA@@@1@PAURINGMONSTER_DATA@@@Z
_TEXT	SEGMENT
__Al$ = 8						; size = 4
__Ptr$ = 12						; size = 4
??$destroy@URINGMONSTER_DATA@@@?$allocator_traits@V?$allocator@URINGMONSTER_DATA@@@std@@@std@@SAXAAV?$allocator@URINGMONSTER_DATA@@@1@PAURINGMONSTER_DATA@@@Z PROC ; std::allocator_traits<std::allocator<RINGMONSTER_DATA> >::destroy<RINGMONSTER_DATA>, COMDAT

; 780  : 		_Al.destroy(_Ptr);
; 781  : 		}

  00000	c3		 ret	 0
??$destroy@URINGMONSTER_DATA@@@?$allocator_traits@V?$allocator@URINGMONSTER_DATA@@@std@@@std@@SAXAAV?$allocator@URINGMONSTER_DATA@@@1@PAURINGMONSTER_DATA@@@Z ENDP ; std::allocator_traits<std::allocator<RINGMONSTER_DATA> >::destroy<RINGMONSTER_DATA>
_TEXT	ENDS
; Function compile flags: /Ogtp
; File c:\program files (x86)\microsoft visual studio 14.0\vc\include\xstddef
;	COMDAT ??$_Addressof@URINGMONSTER_DATA@@@std@@YAPAURINGMONSTER_DATA@@AAU1@U?$integral_constant@_N$0A@@0@@Z
_TEXT	SEGMENT
__Val$ = 8						; size = 4
___formal$ = 12						; size = 1
??$_Addressof@URINGMONSTER_DATA@@@std@@YAPAURINGMONSTER_DATA@@AAU1@U?$integral_constant@_N$0A@@0@@Z PROC ; std::_Addressof<RINGMONSTER_DATA>, COMDAT

; 688  : 	{	// return address of object _Val

  00000	55		 push	 ebp
  00001	8b ec		 mov	 ebp, esp

; 689  : 	return (reinterpret_cast<_Ty *>(

  00003	8b 45 08	 mov	 eax, DWORD PTR __Val$[ebp]

; 690  : 		&const_cast<char&>(
; 691  : 		reinterpret_cast<const volatile char&>(_Val))));
; 692  : 	}

  00006	5d		 pop	 ebp
  00007	c3		 ret	 0
??$_Addressof@URINGMONSTER_DATA@@@std@@YAPAURINGMONSTER_DATA@@AAU1@U?$integral_constant@_N$0A@@0@@Z ENDP ; std::_Addressof<RINGMONSTER_DATA>
_TEXT	ENDS
; Function compile flags: /Ogtp
; File c:\program files (x86)\microsoft visual studio 14.0\vc\include\xmemory0
;	COMDAT ??$destroy@URINGMONSTER_EVENT_TIME@@@?$allocator_traits@V?$allocator@URINGMONSTER_EVENT_TIME@@@std@@@std@@SAXAAV?$allocator@URINGMONSTER_EVENT_TIME@@@1@PAURINGMONSTER_EVENT_TIME@@@Z
_TEXT	SEGMENT
__Al$ = 8						; size = 4
__Ptr$ = 12						; size = 4
??$destroy@URINGMONSTER_EVENT_TIME@@@?$allocator_traits@V?$allocator@URINGMONSTER_EVENT_TIME@@@std@@@std@@SAXAAV?$allocator@URINGMONSTER_EVENT_TIME@@@1@PAURINGMONSTER_EVENT_TIME@@@Z PROC ; std::allocator_traits<std::allocator<RINGMONSTER_EVENT_TIME> >::destroy<RINGMONSTER_EVENT_TIME>, COMDAT

; 780  : 		_Al.destroy(_Ptr);
; 781  : 		}

  00000	c3		 ret	 0
??$destroy@URINGMONSTER_EVENT_TIME@@@?$allocator_traits@V?$allocator@URINGMONSTER_EVENT_TIME@@@std@@@std@@SAXAAV?$allocator@URINGMONSTER_EVENT_TIME@@@1@PAURINGMONSTER_EVENT_TIME@@@Z ENDP ; std::allocator_traits<std::allocator<RINGMONSTER_EVENT_TIME> >::destroy<RINGMONSTER_EVENT_TIME>
_TEXT	ENDS
; Function compile flags: /Ogtp
; File c:\program files (x86)\microsoft visual studio 14.0\vc\include\xstddef
;	COMDAT ??$_Addressof@URINGMONSTER_EVENT_TIME@@@std@@YAPAURINGMONSTER_EVENT_TIME@@AAU1@U?$integral_constant@_N$0A@@0@@Z
_TEXT	SEGMENT
__Val$ = 8						; size = 4
___formal$ = 12						; size = 1
??$_Addressof@URINGMONSTER_EVENT_TIME@@@std@@YAPAURINGMONSTER_EVENT_TIME@@AAU1@U?$integral_constant@_N$0A@@0@@Z PROC ; std::_Addressof<RINGMONSTER_EVENT_TIME>, COMDAT

; 688  : 	{	// return address of object _Val

  00000	55		 push	 ebp
  00001	8b ec		 mov	 ebp, esp

; 689  : 	return (reinterpret_cast<_Ty *>(

  00003	8b 45 08	 mov	 eax, DWORD PTR __Val$[ebp]

; 690  : 		&const_cast<char&>(
; 691  : 		reinterpret_cast<const volatile char&>(_Val))));
; 692  : 	}

  00006	5d		 pop	 ebp
  00007	c3		 ret	 0
??$_Addressof@URINGMONSTER_EVENT_TIME@@@std@@YAPAURINGMONSTER_EVENT_TIME@@AAU1@U?$integral_constant@_N$0A@@0@@Z ENDP ; std::_Addressof<RINGMONSTER_EVENT_TIME>
_TEXT	ENDS
; Function compile flags: /Ogtp
; File c:\program files (x86)\microsoft visual studio 14.0\vc\include\xutility
;	COMDAT ??$_Rechecked@PAURINGMONSTER_DATA@@PAU1@@std@@YAAAPAURINGMONSTER_DATA@@AAPAU1@PAU1@@Z
_TEXT	SEGMENT
__Dest$ = 8						; size = 4
__Src$ = 12						; size = 4
??$_Rechecked@PAURINGMONSTER_DATA@@PAU1@@std@@YAAAPAURINGMONSTER_DATA@@AAPAU1@PAU1@@Z PROC ; std::_Rechecked<RINGMONSTER_DATA *,RINGMONSTER_DATA *>, COMDAT

; 446  : 	{	// reset checked from unchecked, generic

  00000	55		 push	 ebp
  00001	8b ec		 mov	 ebp, esp

; 447  : 	_Dest = _Src;

  00003	8b 45 08	 mov	 eax, DWORD PTR __Dest$[ebp]
  00006	8b 4d 0c	 mov	 ecx, DWORD PTR __Src$[ebp]
  00009	89 08		 mov	 DWORD PTR [eax], ecx

; 448  : 	return (_Dest);
; 449  : 	}

  0000b	5d		 pop	 ebp
  0000c	c3		 ret	 0
??$_Rechecked@PAURINGMONSTER_DATA@@PAU1@@std@@YAAAPAURINGMONSTER_DATA@@AAPAU1@PAU1@@Z ENDP ; std::_Rechecked<RINGMONSTER_DATA *,RINGMONSTER_DATA *>
_TEXT	ENDS
; Function compile flags: /Ogtp
; File c:\program files (x86)\microsoft visual studio 14.0\vc\include\xmemory
;	COMDAT ??$_Uninit_move@PAURINGMONSTER_DATA@@PAU1@U?$_Wrap_alloc@V?$allocator@URINGMONSTER_DATA@@@std@@@std@@@std@@YAPAURINGMONSTER_DATA@@PAU1@00AAU?$_Wrap_alloc@V?$allocator@URINGMONSTER_DATA@@@std@@@0@@Z
_TEXT	SEGMENT
__Cat$1 = -4						; size = 1
__First$ = 8						; size = 4
__Last$ = 12						; size = 4
__Dest$ = 16						; size = 4
__Al$ = 20						; size = 4
??$_Uninit_move@PAURINGMONSTER_DATA@@PAU1@U?$_Wrap_alloc@V?$allocator@URINGMONSTER_DATA@@@std@@@std@@@std@@YAPAURINGMONSTER_DATA@@PAU1@00AAU?$_Wrap_alloc@V?$allocator@URINGMONSTER_DATA@@@std@@@0@@Z PROC ; std::_Uninit_move<RINGMONSTER_DATA *,RINGMONSTER_DATA *,std::_Wrap_alloc<std::allocator<RINGMONSTER_DATA> > >, COMDAT

; 480  : 	{	// move [_First, _Last) to raw _Dest, using _Al

  00000	55		 push	 ebp
  00001	8b ec		 mov	 ebp, esp
  00003	51		 push	 ecx

; 481  : 	return (_Uninit_move(_First, _Last, _Dest, _Al,

  00004	ff 75 fc	 push	 DWORD PTR __Cat$1[ebp]
  00007	6a 00		 push	 0
  00009	ff 75 14	 push	 DWORD PTR __Al$[ebp]
  0000c	ff 75 10	 push	 DWORD PTR __Dest$[ebp]
  0000f	ff 75 0c	 push	 DWORD PTR __Last$[ebp]
  00012	ff 75 08	 push	 DWORD PTR __First$[ebp]
  00015	e8 00 00 00 00	 call	 ??$_Uninit_move@PAURINGMONSTER_DATA@@PAU1@V?$allocator@URINGMONSTER_DATA@@@std@@U1@@std@@YAPAURINGMONSTER_DATA@@PAU1@00AAU?$_Wrap_alloc@V?$allocator@URINGMONSTER_DATA@@@std@@@0@0U_Nonscalar_ptr_iterator_tag@0@@Z ; std::_Uninit_move<RINGMONSTER_DATA *,RINGMONSTER_DATA *,std::allocator<RINGMONSTER_DATA>,RINGMONSTER_DATA>
  0001a	83 c4 18	 add	 esp, 24			; 00000018H

; 482  : 		_Val_type(_First), _Ptr_cat(_First, _Dest)));
; 483  : 	}

  0001d	8b e5		 mov	 esp, ebp
  0001f	5d		 pop	 ebp
  00020	c3		 ret	 0
??$_Uninit_move@PAURINGMONSTER_DATA@@PAU1@U?$_Wrap_alloc@V?$allocator@URINGMONSTER_DATA@@@std@@@std@@@std@@YAPAURINGMONSTER_DATA@@PAU1@00AAU?$_Wrap_alloc@V?$allocator@URINGMONSTER_DATA@@@std@@@0@@Z ENDP ; std::_Uninit_move<RINGMONSTER_DATA *,RINGMONSTER_DATA *,std::_Wrap_alloc<std::allocator<RINGMONSTER_DATA> > >
_TEXT	ENDS
; Function compile flags: /Ogtp
; File c:\program files (x86)\microsoft visual studio 14.0\vc\include\xutility
;	COMDAT ??$_Unchecked@PAURINGMONSTER_DATA@@@std@@YAPAURINGMONSTER_DATA@@PAU1@@Z
_TEXT	SEGMENT
__Src$ = 8						; size = 4
??$_Unchecked@PAURINGMONSTER_DATA@@@std@@YAPAURINGMONSTER_DATA@@PAU1@@Z PROC ; std::_Unchecked<RINGMONSTER_DATA *>, COMDAT

; 438  : 	{	// construct unchecked from checked, generic

  00000	55		 push	 ebp
  00001	8b ec		 mov	 ebp, esp

; 439  : 	return (_Src);

  00003	8b 45 08	 mov	 eax, DWORD PTR __Src$[ebp]

; 440  : 	}

  00006	5d		 pop	 ebp
  00007	c3		 ret	 0
??$_Unchecked@PAURINGMONSTER_DATA@@@std@@YAPAURINGMONSTER_DATA@@PAU1@@Z ENDP ; std::_Unchecked<RINGMONSTER_DATA *>
_TEXT	ENDS
; Function compile flags: /Ogtp
; File c:\program files (x86)\microsoft visual studio 14.0\vc\include\xutility
;	COMDAT ??$_Rechecked@PAURINGMONSTER_EVENT_TIME@@PAU1@@std@@YAAAPAURINGMONSTER_EVENT_TIME@@AAPAU1@PAU1@@Z
_TEXT	SEGMENT
__Dest$ = 8						; size = 4
__Src$ = 12						; size = 4
??$_Rechecked@PAURINGMONSTER_EVENT_TIME@@PAU1@@std@@YAAAPAURINGMONSTER_EVENT_TIME@@AAPAU1@PAU1@@Z PROC ; std::_Rechecked<RINGMONSTER_EVENT_TIME *,RINGMONSTER_EVENT_TIME *>, COMDAT

; 446  : 	{	// reset checked from unchecked, generic

  00000	55		 push	 ebp
  00001	8b ec		 mov	 ebp, esp

; 447  : 	_Dest = _Src;

  00003	8b 45 08	 mov	 eax, DWORD PTR __Dest$[ebp]
  00006	8b 4d 0c	 mov	 ecx, DWORD PTR __Src$[ebp]
  00009	89 08		 mov	 DWORD PTR [eax], ecx

; 448  : 	return (_Dest);
; 449  : 	}

  0000b	5d		 pop	 ebp
  0000c	c3		 ret	 0
??$_Rechecked@PAURINGMONSTER_EVENT_TIME@@PAU1@@std@@YAAAPAURINGMONSTER_EVENT_TIME@@AAPAU1@PAU1@@Z ENDP ; std::_Rechecked<RINGMONSTER_EVENT_TIME *,RINGMONSTER_EVENT_TIME *>
_TEXT	ENDS
; Function compile flags: /Ogtp
; File c:\program files (x86)\microsoft visual studio 14.0\vc\include\xmemory
;	COMDAT ??$_Uninit_move@PAURINGMONSTER_EVENT_TIME@@PAU1@U?$_Wrap_alloc@V?$allocator@URINGMONSTER_EVENT_TIME@@@std@@@std@@@std@@YAPAURINGMONSTER_EVENT_TIME@@PAU1@00AAU?$_Wrap_alloc@V?$allocator@URINGMONSTER_EVENT_TIME@@@std@@@0@@Z
_TEXT	SEGMENT
__Cat$1 = -4						; size = 1
__First$ = 8						; size = 4
__Last$ = 12						; size = 4
__Dest$ = 16						; size = 4
__Al$ = 20						; size = 4
??$_Uninit_move@PAURINGMONSTER_EVENT_TIME@@PAU1@U?$_Wrap_alloc@V?$allocator@URINGMONSTER_EVENT_TIME@@@std@@@std@@@std@@YAPAURINGMONSTER_EVENT_TIME@@PAU1@00AAU?$_Wrap_alloc@V?$allocator@URINGMONSTER_EVENT_TIME@@@std@@@0@@Z PROC ; std::_Uninit_move<RINGMONSTER_EVENT_TIME *,RINGMONSTER_EVENT_TIME *,std::_Wrap_alloc<std::allocator<RINGMONSTER_EVENT_TIME> > >, COMDAT

; 480  : 	{	// move [_First, _Last) to raw _Dest, using _Al

  00000	55		 push	 ebp
  00001	8b ec		 mov	 ebp, esp
  00003	51		 push	 ecx

; 481  : 	return (_Uninit_move(_First, _Last, _Dest, _Al,

  00004	ff 75 fc	 push	 DWORD PTR __Cat$1[ebp]
  00007	6a 00		 push	 0
  00009	ff 75 14	 push	 DWORD PTR __Al$[ebp]
  0000c	ff 75 10	 push	 DWORD PTR __Dest$[ebp]
  0000f	ff 75 0c	 push	 DWORD PTR __Last$[ebp]
  00012	ff 75 08	 push	 DWORD PTR __First$[ebp]
  00015	e8 00 00 00 00	 call	 ??$_Uninit_move@PAURINGMONSTER_EVENT_TIME@@PAU1@V?$allocator@URINGMONSTER_EVENT_TIME@@@std@@U1@@std@@YAPAURINGMONSTER_EVENT_TIME@@PAU1@00AAU?$_Wrap_alloc@V?$allocator@URINGMONSTER_EVENT_TIME@@@std@@@0@0U_Nonscalar_ptr_iterator_tag@0@@Z ; std::_Uninit_move<RINGMONSTER_EVENT_TIME *,RINGMONSTER_EVENT_TIME *,std::allocator<RINGMONSTER_EVENT_TIME>,RINGMONSTER_EVENT_TIME>
  0001a	83 c4 18	 add	 esp, 24			; 00000018H

; 482  : 		_Val_type(_First), _Ptr_cat(_First, _Dest)));
; 483  : 	}

  0001d	8b e5		 mov	 esp, ebp
  0001f	5d		 pop	 ebp
  00020	c3		 ret	 0
??$_Uninit_move@PAURINGMONSTER_EVENT_TIME@@PAU1@U?$_Wrap_alloc@V?$allocator@URINGMONSTER_EVENT_TIME@@@std@@@std@@@std@@YAPAURINGMONSTER_EVENT_TIME@@PAU1@00AAU?$_Wrap_alloc@V?$allocator@URINGMONSTER_EVENT_TIME@@@std@@@0@@Z ENDP ; std::_Uninit_move<RINGMONSTER_EVENT_TIME *,RINGMONSTER_EVENT_TIME *,std::_Wrap_alloc<std::allocator<RINGMONSTER_EVENT_TIME> > >
_TEXT	ENDS
; Function compile flags: /Ogtp
; File c:\program files (x86)\microsoft visual studio 14.0\vc\include\xutility
;	COMDAT ??$_Unchecked@PAURINGMONSTER_EVENT_TIME@@@std@@YAPAURINGMONSTER_EVENT_TIME@@PAU1@@Z
_TEXT	SEGMENT
__Src$ = 8						; size = 4
??$_Unchecked@PAURINGMONSTER_EVENT_TIME@@@std@@YAPAURINGMONSTER_EVENT_TIME@@PAU1@@Z PROC ; std::_Unchecked<RINGMONSTER_EVENT_TIME *>, COMDAT

; 438  : 	{	// construct unchecked from checked, generic

  00000	55		 push	 ebp
  00001	8b ec		 mov	 ebp, esp

; 439  : 	return (_Src);

  00003	8b 45 08	 mov	 eax, DWORD PTR __Src$[ebp]

; 440  : 	}

  00006	5d		 pop	 ebp
  00007	c3		 ret	 0
??$_Unchecked@PAURINGMONSTER_EVENT_TIME@@@std@@YAPAURINGMONSTER_EVENT_TIME@@PAU1@@Z ENDP ; std::_Unchecked<RINGMONSTER_EVENT_TIME *>
_TEXT	ENDS
; Function compile flags: /Ogtp
; File c:\program files (x86)\microsoft visual studio 14.0\vc\include\xmemory0
;	COMDAT ??$destroy@URINGMONSTER_DATA@@@?$_Wrap_alloc@V?$allocator@URINGMONSTER_DATA@@@std@@@std@@QAEXPAURINGMONSTER_DATA@@@Z
_TEXT	SEGMENT
__Ptr$ = 8						; size = 4
??$destroy@URINGMONSTER_DATA@@@?$_Wrap_alloc@V?$allocator@URINGMONSTER_DATA@@@std@@@std@@QAEXPAURINGMONSTER_DATA@@@Z PROC ; std::_Wrap_alloc<std::allocator<RINGMONSTER_DATA> >::destroy<RINGMONSTER_DATA>, COMDAT
; _this$ = ecx

; 925  : 		_Mytraits::destroy(*this, _Ptr);
; 926  : 		}

  00000	c2 04 00	 ret	 4
??$destroy@URINGMONSTER_DATA@@@?$_Wrap_alloc@V?$allocator@URINGMONSTER_DATA@@@std@@@std@@QAEXPAURINGMONSTER_DATA@@@Z ENDP ; std::_Wrap_alloc<std::allocator<RINGMONSTER_DATA> >::destroy<RINGMONSTER_DATA>
_TEXT	ENDS
; Function compile flags: /Ogtp
; File c:\program files (x86)\microsoft visual studio 14.0\vc\include\xstddef
;	COMDAT ??$addressof@URINGMONSTER_DATA@@@std@@YAPAURINGMONSTER_DATA@@AAU1@@Z
_TEXT	SEGMENT
__Val$ = 8						; size = 4
??$addressof@URINGMONSTER_DATA@@@std@@YAPAURINGMONSTER_DATA@@AAU1@@Z PROC ; std::addressof<RINGMONSTER_DATA>, COMDAT

; 696  : 	{	// return address of _Val

  00000	55		 push	 ebp
  00001	8b ec		 mov	 ebp, esp

; 697  : 	return (_Addressof(_Val, is_function<_Ty>()));

  00003	8b 45 08	 mov	 eax, DWORD PTR __Val$[ebp]

; 698  : 	}

  00006	5d		 pop	 ebp
  00007	c3		 ret	 0
??$addressof@URINGMONSTER_DATA@@@std@@YAPAURINGMONSTER_DATA@@AAU1@@Z ENDP ; std::addressof<RINGMONSTER_DATA>
_TEXT	ENDS
; Function compile flags: /Ogtp
; File c:\program files (x86)\microsoft visual studio 14.0\vc\include\xmemory0
;	COMDAT ??$destroy@URINGMONSTER_EVENT_TIME@@@?$_Wrap_alloc@V?$allocator@URINGMONSTER_EVENT_TIME@@@std@@@std@@QAEXPAURINGMONSTER_EVENT_TIME@@@Z
_TEXT	SEGMENT
__Ptr$ = 8						; size = 4
??$destroy@URINGMONSTER_EVENT_TIME@@@?$_Wrap_alloc@V?$allocator@URINGMONSTER_EVENT_TIME@@@std@@@std@@QAEXPAURINGMONSTER_EVENT_TIME@@@Z PROC ; std::_Wrap_alloc<std::allocator<RINGMONSTER_EVENT_TIME> >::destroy<RINGMONSTER_EVENT_TIME>, COMDAT
; _this$ = ecx

; 925  : 		_Mytraits::destroy(*this, _Ptr);
; 926  : 		}

  00000	c2 04 00	 ret	 4
??$destroy@URINGMONSTER_EVENT_TIME@@@?$_Wrap_alloc@V?$allocator@URINGMONSTER_EVENT_TIME@@@std@@@std@@QAEXPAURINGMONSTER_EVENT_TIME@@@Z ENDP ; std::_Wrap_alloc<std::allocator<RINGMONSTER_EVENT_TIME> >::destroy<RINGMONSTER_EVENT_TIME>
_TEXT	ENDS
; Function compile flags: /Ogtp
; File c:\program files (x86)\microsoft visual studio 14.0\vc\include\xstddef
;	COMDAT ??$addressof@URINGMONSTER_EVENT_TIME@@@std@@YAPAURINGMONSTER_EVENT_TIME@@AAU1@@Z
_TEXT	SEGMENT
__Val$ = 8						; size = 4
??$addressof@URINGMONSTER_EVENT_TIME@@@std@@YAPAURINGMONSTER_EVENT_TIME@@AAU1@@Z PROC ; std::addressof<RINGMONSTER_EVENT_TIME>, COMDAT

; 696  : 	{	// return address of _Val

  00000	55		 push	 ebp
  00001	8b ec		 mov	 ebp, esp

; 697  : 	return (_Addressof(_Val, is_function<_Ty>()));

  00003	8b 45 08	 mov	 eax, DWORD PTR __Val$[ebp]

; 698  : 	}

  00006	5d		 pop	 ebp
  00007	c3		 ret	 0
??$addressof@URINGMONSTER_EVENT_TIME@@@std@@YAPAURINGMONSTER_EVENT_TIME@@AAU1@@Z ENDP ; std::addressof<RINGMONSTER_EVENT_TIME>
_TEXT	ENDS
; Function compile flags: /Ogtp
; File c:\program files (x86)\microsoft visual studio 14.0\vc\include\xmemory0
;	COMDAT ??$construct@URINGMONSTER_DATA@@ABU1@@?$allocator@URINGMONSTER_DATA@@@std@@QAEXPAURINGMONSTER_DATA@@ABU2@@Z
_TEXT	SEGMENT
__Ptr$ = 8						; size = 4
_<_Args_0>$ = 12					; size = 4
??$construct@URINGMONSTER_DATA@@ABU1@@?$allocator@URINGMONSTER_DATA@@@std@@QAEXPAURINGMONSTER_DATA@@ABU2@@Z PROC ; std::allocator<RINGMONSTER_DATA>::construct<RINGMONSTER_DATA,RINGMONSTER_DATA const &>, COMDAT
; _this$ = ecx

; 654  : 		{	// construct _Objty(_Types...) at _Ptr

  00000	55		 push	 ebp
  00001	8b ec		 mov	 ebp, esp

; 655  : 		::new ((void *)_Ptr) _Objty(_STD forward<_Types>(_Args)...);

  00003	8b 4d 08	 mov	 ecx, DWORD PTR __Ptr$[ebp]
  00006	85 c9		 test	 ecx, ecx
  00008	74 11		 je	 SHORT $LN3@construct
  0000a	8b 45 0c	 mov	 eax, DWORD PTR _<_Args_0>$[ebp]
  0000d	f3 0f 7e 00	 movq	 xmm0, QWORD PTR [eax]
  00011	66 0f d6 01	 movq	 QWORD PTR [ecx], xmm0
  00015	8b 40 08	 mov	 eax, DWORD PTR [eax+8]
  00018	89 41 08	 mov	 DWORD PTR [ecx+8], eax
$LN3@construct:

; 656  : 		}

  0001b	5d		 pop	 ebp
  0001c	c2 08 00	 ret	 8
??$construct@URINGMONSTER_DATA@@ABU1@@?$allocator@URINGMONSTER_DATA@@@std@@QAEXPAURINGMONSTER_DATA@@ABU2@@Z ENDP ; std::allocator<RINGMONSTER_DATA>::construct<RINGMONSTER_DATA,RINGMONSTER_DATA const &>
_TEXT	ENDS
; Function compile flags: /Ogtp
; File c:\program files (x86)\microsoft visual studio 14.0\vc\include\xmemory0
;	COMDAT ??$construct@URINGMONSTER_DATA@@AAU1@@?$allocator@URINGMONSTER_DATA@@@std@@QAEXPAURINGMONSTER_DATA@@AAU2@@Z
_TEXT	SEGMENT
__Ptr$ = 8						; size = 4
_<_Args_0>$ = 12					; size = 4
??$construct@URINGMONSTER_DATA@@AAU1@@?$allocator@URINGMONSTER_DATA@@@std@@QAEXPAURINGMONSTER_DATA@@AAU2@@Z PROC ; std::allocator<RINGMONSTER_DATA>::construct<RINGMONSTER_DATA,RINGMONSTER_DATA &>, COMDAT
; _this$ = ecx

; 654  : 		{	// construct _Objty(_Types...) at _Ptr

  00000	55		 push	 ebp
  00001	8b ec		 mov	 ebp, esp

; 655  : 		::new ((void *)_Ptr) _Objty(_STD forward<_Types>(_Args)...);

  00003	8b 4d 08	 mov	 ecx, DWORD PTR __Ptr$[ebp]
  00006	85 c9		 test	 ecx, ecx
  00008	74 11		 je	 SHORT $LN3@construct
  0000a	8b 45 0c	 mov	 eax, DWORD PTR _<_Args_0>$[ebp]
  0000d	f3 0f 7e 00	 movq	 xmm0, QWORD PTR [eax]
  00011	66 0f d6 01	 movq	 QWORD PTR [ecx], xmm0
  00015	8b 40 08	 mov	 eax, DWORD PTR [eax+8]
  00018	89 41 08	 mov	 DWORD PTR [ecx+8], eax
$LN3@construct:

; 656  : 		}

  0001b	5d		 pop	 ebp
  0001c	c2 08 00	 ret	 8
??$construct@URINGMONSTER_DATA@@AAU1@@?$allocator@URINGMONSTER_DATA@@@std@@QAEXPAURINGMONSTER_DATA@@AAU2@@Z ENDP ; std::allocator<RINGMONSTER_DATA>::construct<RINGMONSTER_DATA,RINGMONSTER_DATA &>
_TEXT	ENDS
; Function compile flags: /Ogtp
; File c:\program files (x86)\microsoft visual studio 14.0\vc\include\type_traits
;	COMDAT ??$move@AAURINGMONSTER_DATA@@@std@@YA$$QAURINGMONSTER_DATA@@AAU1@@Z
_TEXT	SEGMENT
__Arg$ = 8						; size = 4
??$move@AAURINGMONSTER_DATA@@@std@@YA$$QAURINGMONSTER_DATA@@AAU1@@Z PROC ; std::move<RINGMONSTER_DATA &>, COMDAT

; 1249 : 	{	// forward _Arg as movable

  00000	55		 push	 ebp
  00001	8b ec		 mov	 ebp, esp

; 1250 : 	return (static_cast<typename remove_reference<_Ty>::type&&>(_Arg));

  00003	8b 45 08	 mov	 eax, DWORD PTR __Arg$[ebp]

; 1251 : 	}

  00006	5d		 pop	 ebp
  00007	c3		 ret	 0
??$move@AAURINGMONSTER_DATA@@@std@@YA$$QAURINGMONSTER_DATA@@AAU1@@Z ENDP ; std::move<RINGMONSTER_DATA &>
_TEXT	ENDS
; Function compile flags: /Ogtp
; File c:\program files (x86)\microsoft visual studio 14.0\vc\include\xmemory0
;	COMDAT ??$construct@URINGMONSTER_EVENT_TIME@@ABU1@@?$allocator@URINGMONSTER_EVENT_TIME@@@std@@QAEXPAURINGMONSTER_EVENT_TIME@@ABU2@@Z
_TEXT	SEGMENT
__Ptr$ = 8						; size = 4
_<_Args_0>$ = 12					; size = 4
??$construct@URINGMONSTER_EVENT_TIME@@ABU1@@?$allocator@URINGMONSTER_EVENT_TIME@@@std@@QAEXPAURINGMONSTER_EVENT_TIME@@ABU2@@Z PROC ; std::allocator<RINGMONSTER_EVENT_TIME>::construct<RINGMONSTER_EVENT_TIME,RINGMONSTER_EVENT_TIME const &>, COMDAT
; _this$ = ecx

; 654  : 		{	// construct _Objty(_Types...) at _Ptr

  00000	55		 push	 ebp
  00001	8b ec		 mov	 ebp, esp

; 655  : 		::new ((void *)_Ptr) _Objty(_STD forward<_Types>(_Args)...);

  00003	8b 55 08	 mov	 edx, DWORD PTR __Ptr$[ebp]
  00006	85 d2		 test	 edx, edx
  00008	74 0d		 je	 SHORT $LN3@construct
  0000a	8b 4d 0c	 mov	 ecx, DWORD PTR _<_Args_0>$[ebp]
  0000d	8b 01		 mov	 eax, DWORD PTR [ecx]
  0000f	89 02		 mov	 DWORD PTR [edx], eax
  00011	8b 41 04	 mov	 eax, DWORD PTR [ecx+4]
  00014	89 42 04	 mov	 DWORD PTR [edx+4], eax
$LN3@construct:

; 656  : 		}

  00017	5d		 pop	 ebp
  00018	c2 08 00	 ret	 8
??$construct@URINGMONSTER_EVENT_TIME@@ABU1@@?$allocator@URINGMONSTER_EVENT_TIME@@@std@@QAEXPAURINGMONSTER_EVENT_TIME@@ABU2@@Z ENDP ; std::allocator<RINGMONSTER_EVENT_TIME>::construct<RINGMONSTER_EVENT_TIME,RINGMONSTER_EVENT_TIME const &>
_TEXT	ENDS
; Function compile flags: /Ogtp
; File c:\program files (x86)\microsoft visual studio 14.0\vc\include\xmemory0
;	COMDAT ??$construct@URINGMONSTER_EVENT_TIME@@AAU1@@?$allocator@URINGMONSTER_EVENT_TIME@@@std@@QAEXPAURINGMONSTER_EVENT_TIME@@AAU2@@Z
_TEXT	SEGMENT
__Ptr$ = 8						; size = 4
_<_Args_0>$ = 12					; size = 4
??$construct@URINGMONSTER_EVENT_TIME@@AAU1@@?$allocator@URINGMONSTER_EVENT_TIME@@@std@@QAEXPAURINGMONSTER_EVENT_TIME@@AAU2@@Z PROC ; std::allocator<RINGMONSTER_EVENT_TIME>::construct<RINGMONSTER_EVENT_TIME,RINGMONSTER_EVENT_TIME &>, COMDAT
; _this$ = ecx

; 654  : 		{	// construct _Objty(_Types...) at _Ptr

  00000	55		 push	 ebp
  00001	8b ec		 mov	 ebp, esp

; 655  : 		::new ((void *)_Ptr) _Objty(_STD forward<_Types>(_Args)...);

  00003	8b 55 08	 mov	 edx, DWORD PTR __Ptr$[ebp]
  00006	85 d2		 test	 edx, edx
  00008	74 0d		 je	 SHORT $LN3@construct
  0000a	8b 4d 0c	 mov	 ecx, DWORD PTR _<_Args_0>$[ebp]
  0000d	8b 01		 mov	 eax, DWORD PTR [ecx]
  0000f	89 02		 mov	 DWORD PTR [edx], eax
  00011	8b 41 04	 mov	 eax, DWORD PTR [ecx+4]
  00014	89 42 04	 mov	 DWORD PTR [edx+4], eax
$LN3@construct:

; 656  : 		}

  00017	5d		 pop	 ebp
  00018	c2 08 00	 ret	 8
??$construct@URINGMONSTER_EVENT_TIME@@AAU1@@?$allocator@URINGMONSTER_EVENT_TIME@@@std@@QAEXPAURINGMONSTER_EVENT_TIME@@AAU2@@Z ENDP ; std::allocator<RINGMONSTER_EVENT_TIME>::construct<RINGMONSTER_EVENT_TIME,RINGMONSTER_EVENT_TIME &>
_TEXT	ENDS
; Function compile flags: /Ogtp
; File c:\program files (x86)\microsoft visual studio 14.0\vc\include\type_traits
;	COMDAT ??$move@AAURINGMONSTER_EVENT_TIME@@@std@@YA$$QAURINGMONSTER_EVENT_TIME@@AAU1@@Z
_TEXT	SEGMENT
__Arg$ = 8						; size = 4
??$move@AAURINGMONSTER_EVENT_TIME@@@std@@YA$$QAURINGMONSTER_EVENT_TIME@@AAU1@@Z PROC ; std::move<RINGMONSTER_EVENT_TIME &>, COMDAT

; 1249 : 	{	// forward _Arg as movable

  00000	55		 push	 ebp
  00001	8b ec		 mov	 ebp, esp

; 1250 : 	return (static_cast<typename remove_reference<_Ty>::type&&>(_Arg));

  00003	8b 45 08	 mov	 eax, DWORD PTR __Arg$[ebp]

; 1251 : 	}

  00006	5d		 pop	 ebp
  00007	c3		 ret	 0
??$move@AAURINGMONSTER_EVENT_TIME@@@std@@YA$$QAURINGMONSTER_EVENT_TIME@@AAU1@@Z ENDP ; std::move<RINGMONSTER_EVENT_TIME &>
_TEXT	ENDS
; Function compile flags: /Ogtp
; File c:\program files (x86)\microsoft visual studio 14.0\vc\include\xmemory
;	COMDAT ??$_Uninitialized_move@PAURINGMONSTER_DATA@@PAU1@U?$_Wrap_alloc@V?$allocator@URINGMONSTER_DATA@@@std@@@std@@@std@@YAPAURINGMONSTER_DATA@@PAU1@00AAU?$_Wrap_alloc@V?$allocator@URINGMONSTER_DATA@@@std@@@0@@Z
_TEXT	SEGMENT
__First$ = 8						; size = 4
__Last$ = 12						; size = 4
__Cat$1 = 16						; size = 1
__Dest$ = 16						; size = 4
__Al$ = 20						; size = 4
??$_Uninitialized_move@PAURINGMONSTER_DATA@@PAU1@U?$_Wrap_alloc@V?$allocator@URINGMONSTER_DATA@@@std@@@std@@@std@@YAPAURINGMONSTER_DATA@@PAU1@00AAU?$_Wrap_alloc@V?$allocator@URINGMONSTER_DATA@@@std@@@0@@Z PROC ; std::_Uninitialized_move<RINGMONSTER_DATA *,RINGMONSTER_DATA *,std::_Wrap_alloc<std::allocator<RINGMONSTER_DATA> > >, COMDAT

; 490  : 	{	// move [_First, _Last) to raw _Dest, using _Al

  00000	55		 push	 ebp
  00001	8b ec		 mov	 ebp, esp

; 481  : 	return (_Uninit_move(_First, _Last, _Dest, _Al,

  00003	ff 75 10	 push	 DWORD PTR __Cat$1[ebp]
  00006	6a 00		 push	 0
  00008	ff 75 14	 push	 DWORD PTR __Al$[ebp]
  0000b	ff 75 10	 push	 DWORD PTR __Dest$[ebp]
  0000e	ff 75 0c	 push	 DWORD PTR __Last$[ebp]
  00011	ff 75 08	 push	 DWORD PTR __First$[ebp]
  00014	e8 00 00 00 00	 call	 ??$_Uninit_move@PAURINGMONSTER_DATA@@PAU1@V?$allocator@URINGMONSTER_DATA@@@std@@U1@@std@@YAPAURINGMONSTER_DATA@@PAU1@00AAU?$_Wrap_alloc@V?$allocator@URINGMONSTER_DATA@@@std@@@0@0U_Nonscalar_ptr_iterator_tag@0@@Z ; std::_Uninit_move<RINGMONSTER_DATA *,RINGMONSTER_DATA *,std::allocator<RINGMONSTER_DATA>,RINGMONSTER_DATA>
  00019	83 c4 18	 add	 esp, 24			; 00000018H

; 491  : 	return (_Rechecked(_Dest,
; 492  : 		_Uninit_move(_Unchecked(_First), _Unchecked(_Last),
; 493  : 			_Unchecked(_Dest), _Al)));
; 494  : 	}

  0001c	5d		 pop	 ebp
  0001d	c3		 ret	 0
??$_Uninitialized_move@PAURINGMONSTER_DATA@@PAU1@U?$_Wrap_alloc@V?$allocator@URINGMONSTER_DATA@@@std@@@std@@@std@@YAPAURINGMONSTER_DATA@@PAU1@00AAU?$_Wrap_alloc@V?$allocator@URINGMONSTER_DATA@@@std@@@0@@Z ENDP ; std::_Uninitialized_move<RINGMONSTER_DATA *,RINGMONSTER_DATA *,std::_Wrap_alloc<std::allocator<RINGMONSTER_DATA> > >
_TEXT	ENDS
; Function compile flags: /Ogtp
; File c:\program files (x86)\microsoft visual studio 14.0\vc\include\xmemory
;	COMDAT ??$_Uninitialized_move@PAURINGMONSTER_EVENT_TIME@@PAU1@U?$_Wrap_alloc@V?$allocator@URINGMONSTER_EVENT_TIME@@@std@@@std@@@std@@YAPAURINGMONSTER_EVENT_TIME@@PAU1@00AAU?$_Wrap_alloc@V?$allocator@URINGMONSTER_EVENT_TIME@@@std@@@0@@Z
_TEXT	SEGMENT
__First$ = 8						; size = 4
__Last$ = 12						; size = 4
__Cat$1 = 16						; size = 1
__Dest$ = 16						; size = 4
__Al$ = 20						; size = 4
??$_Uninitialized_move@PAURINGMONSTER_EVENT_TIME@@PAU1@U?$_Wrap_alloc@V?$allocator@URINGMONSTER_EVENT_TIME@@@std@@@std@@@std@@YAPAURINGMONSTER_EVENT_TIME@@PAU1@00AAU?$_Wrap_alloc@V?$allocator@URINGMONSTER_EVENT_TIME@@@std@@@0@@Z PROC ; std::_Uninitialized_move<RINGMONSTER_EVENT_TIME *,RINGMONSTER_EVENT_TIME *,std::_Wrap_alloc<std::allocator<RINGMONSTER_EVENT_TIME> > >, COMDAT

; 490  : 	{	// move [_First, _Last) to raw _Dest, using _Al

  00000	55		 push	 ebp
  00001	8b ec		 mov	 ebp, esp

; 481  : 	return (_Uninit_move(_First, _Last, _Dest, _Al,

  00003	ff 75 10	 push	 DWORD PTR __Cat$1[ebp]
  00006	6a 00		 push	 0
  00008	ff 75 14	 push	 DWORD PTR __Al$[ebp]
  0000b	ff 75 10	 push	 DWORD PTR __Dest$[ebp]
  0000e	ff 75 0c	 push	 DWORD PTR __Last$[ebp]
  00011	ff 75 08	 push	 DWORD PTR __First$[ebp]
  00014	e8 00 00 00 00	 call	 ??$_Uninit_move@PAURINGMONSTER_EVENT_TIME@@PAU1@V?$allocator@URINGMONSTER_EVENT_TIME@@@std@@U1@@std@@YAPAURINGMONSTER_EVENT_TIME@@PAU1@00AAU?$_Wrap_alloc@V?$allocator@URINGMONSTER_EVENT_TIME@@@std@@@0@0U_Nonscalar_ptr_iterator_tag@0@@Z ; std::_Uninit_move<RINGMONSTER_EVENT_TIME *,RINGMONSTER_EVENT_TIME *,std::allocator<RINGMONSTER_EVENT_TIME>,RINGMONSTER_EVENT_TIME>
  00019	83 c4 18	 add	 esp, 24			; 00000018H

; 491  : 	return (_Rechecked(_Dest,
; 492  : 		_Uninit_move(_Unchecked(_First), _Unchecked(_Last),
; 493  : 			_Unchecked(_Dest), _Al)));
; 494  : 	}

  0001c	5d		 pop	 ebp
  0001d	c3		 ret	 0
??$_Uninitialized_move@PAURINGMONSTER_EVENT_TIME@@PAU1@U?$_Wrap_alloc@V?$allocator@URINGMONSTER_EVENT_TIME@@@std@@@std@@@std@@YAPAURINGMONSTER_EVENT_TIME@@PAU1@00AAU?$_Wrap_alloc@V?$allocator@URINGMONSTER_EVENT_TIME@@@std@@@0@@Z ENDP ; std::_Uninitialized_move<RINGMONSTER_EVENT_TIME *,RINGMONSTER_EVENT_TIME *,std::_Wrap_alloc<std::allocator<RINGMONSTER_EVENT_TIME> > >
_TEXT	ENDS
; Function compile flags: /Ogtp
; File c:\program files (x86)\microsoft visual studio 14.0\vc\include\xmemory0
;	COMDAT ??$_Destroy_range@U?$_Wrap_alloc@V?$allocator@URINGMONSTER_DATA@@@std@@@std@@@std@@YAXPAURINGMONSTER_DATA@@0AAU?$_Wrap_alloc@V?$allocator@URINGMONSTER_DATA@@@std@@@0@U_Nonscalar_ptr_iterator_tag@0@@Z
_TEXT	SEGMENT
__First$ = 8						; size = 4
__Last$ = 12						; size = 4
__Al$ = 16						; size = 4
___formal$ = 20						; size = 1
??$_Destroy_range@U?$_Wrap_alloc@V?$allocator@URINGMONSTER_DATA@@@std@@@std@@@std@@YAXPAURINGMONSTER_DATA@@0AAU?$_Wrap_alloc@V?$allocator@URINGMONSTER_DATA@@@std@@@0@U_Nonscalar_ptr_iterator_tag@0@@Z PROC ; std::_Destroy_range<std::_Wrap_alloc<std::allocator<RINGMONSTER_DATA> > >, COMDAT

; 171  : 	for (; _First != _Last; ++_First)
; 172  : 		_Al.destroy(_STD addressof(*_First));
; 173  : 	}

  00000	c3		 ret	 0
??$_Destroy_range@U?$_Wrap_alloc@V?$allocator@URINGMONSTER_DATA@@@std@@@std@@@std@@YAXPAURINGMONSTER_DATA@@0AAU?$_Wrap_alloc@V?$allocator@URINGMONSTER_DATA@@@std@@@0@U_Nonscalar_ptr_iterator_tag@0@@Z ENDP ; std::_Destroy_range<std::_Wrap_alloc<std::allocator<RINGMONSTER_DATA> > >
_TEXT	ENDS
; Function compile flags: /Ogtp
; File c:\program files (x86)\microsoft visual studio 14.0\vc\include\type_traits
;	COMDAT ??$forward@ABV?$allocator@URINGMONSTER_DATA@@@std@@@std@@YAABV?$allocator@URINGMONSTER_DATA@@@0@ABV10@@Z
_TEXT	SEGMENT
__Arg$ = 8						; size = 4
??$forward@ABV?$allocator@URINGMONSTER_DATA@@@std@@@std@@YAABV?$allocator@URINGMONSTER_DATA@@@0@ABV10@@Z PROC ; std::forward<std::allocator<RINGMONSTER_DATA> const &>, COMDAT

; 1233 : 	{	// forward an lvalue as either an lvalue or an rvalue

  00000	55		 push	 ebp
  00001	8b ec		 mov	 ebp, esp

; 1234 : 	return (static_cast<_Ty&&>(_Arg));

  00003	8b 45 08	 mov	 eax, DWORD PTR __Arg$[ebp]

; 1235 : 	}

  00006	5d		 pop	 ebp
  00007	c3		 ret	 0
??$forward@ABV?$allocator@URINGMONSTER_DATA@@@std@@@std@@YAABV?$allocator@URINGMONSTER_DATA@@@0@ABV10@@Z ENDP ; std::forward<std::allocator<RINGMONSTER_DATA> const &>
_TEXT	ENDS
; Function compile flags: /Ogtp
; File c:\program files (x86)\microsoft visual studio 14.0\vc\include\xmemory0
;	COMDAT ??$_Destroy_range@U?$_Wrap_alloc@V?$allocator@URINGMONSTER_EVENT_TIME@@@std@@@std@@@std@@YAXPAURINGMONSTER_EVENT_TIME@@0AAU?$_Wrap_alloc@V?$allocator@URINGMONSTER_EVENT_TIME@@@std@@@0@U_Nonscalar_ptr_iterator_tag@0@@Z
_TEXT	SEGMENT
__First$ = 8						; size = 4
__Last$ = 12						; size = 4
__Al$ = 16						; size = 4
___formal$ = 20						; size = 1
??$_Destroy_range@U?$_Wrap_alloc@V?$allocator@URINGMONSTER_EVENT_TIME@@@std@@@std@@@std@@YAXPAURINGMONSTER_EVENT_TIME@@0AAU?$_Wrap_alloc@V?$allocator@URINGMONSTER_EVENT_TIME@@@std@@@0@U_Nonscalar_ptr_iterator_tag@0@@Z PROC ; std::_Destroy_range<std::_Wrap_alloc<std::allocator<RINGMONSTER_EVENT_TIME> > >, COMDAT

; 171  : 	for (; _First != _Last; ++_First)
; 172  : 		_Al.destroy(_STD addressof(*_First));
; 173  : 	}

  00000	c3		 ret	 0
??$_Destroy_range@U?$_Wrap_alloc@V?$allocator@URINGMONSTER_EVENT_TIME@@@std@@@std@@@std@@YAXPAURINGMONSTER_EVENT_TIME@@0AAU?$_Wrap_alloc@V?$allocator@URINGMONSTER_EVENT_TIME@@@std@@@0@U_Nonscalar_ptr_iterator_tag@0@@Z ENDP ; std::_Destroy_range<std::_Wrap_alloc<std::allocator<RINGMONSTER_EVENT_TIME> > >
_TEXT	ENDS
; Function compile flags: /Ogtp
; File c:\program files (x86)\microsoft visual studio 14.0\vc\include\type_traits
;	COMDAT ??$forward@ABV?$allocator@URINGMONSTER_EVENT_TIME@@@std@@@std@@YAABV?$allocator@URINGMONSTER_EVENT_TIME@@@0@ABV10@@Z
_TEXT	SEGMENT
__Arg$ = 8						; size = 4
??$forward@ABV?$allocator@URINGMONSTER_EVENT_TIME@@@std@@@std@@YAABV?$allocator@URINGMONSTER_EVENT_TIME@@@0@ABV10@@Z PROC ; std::forward<std::allocator<RINGMONSTER_EVENT_TIME> const &>, COMDAT

; 1233 : 	{	// forward an lvalue as either an lvalue or an rvalue

  00000	55		 push	 ebp
  00001	8b ec		 mov	 ebp, esp

; 1234 : 	return (static_cast<_Ty&&>(_Arg));

  00003	8b 45 08	 mov	 eax, DWORD PTR __Arg$[ebp]

; 1235 : 	}

  00006	5d		 pop	 ebp
  00007	c3		 ret	 0
??$forward@ABV?$allocator@URINGMONSTER_EVENT_TIME@@@std@@@std@@YAABV?$allocator@URINGMONSTER_EVENT_TIME@@@0@ABV10@@Z ENDP ; std::forward<std::allocator<RINGMONSTER_EVENT_TIME> const &>
_TEXT	ENDS
; Function compile flags: /Ogtp
; File c:\program files (x86)\microsoft visual studio 14.0\vc\include\xmemory0
;	COMDAT ??$construct@URINGMONSTER_DATA@@ABU1@@?$allocator_traits@V?$allocator@URINGMONSTER_DATA@@@std@@@std@@SAXAAV?$allocator@URINGMONSTER_DATA@@@1@PAURINGMONSTER_DATA@@ABU3@@Z
_TEXT	SEGMENT
__Al$ = 8						; size = 4
__Ptr$ = 12						; size = 4
_<_Args_0>$ = 16					; size = 4
??$construct@URINGMONSTER_DATA@@ABU1@@?$allocator_traits@V?$allocator@URINGMONSTER_DATA@@@std@@@std@@SAXAAV?$allocator@URINGMONSTER_DATA@@@1@PAURINGMONSTER_DATA@@ABU3@@Z PROC ; std::allocator_traits<std::allocator<RINGMONSTER_DATA> >::construct<RINGMONSTER_DATA,RINGMONSTER_DATA const &>, COMDAT

; 772  : 		{	// construct _Objty(_Types...) at _Ptr

  00000	55		 push	 ebp
  00001	8b ec		 mov	 ebp, esp

; 655  : 		::new ((void *)_Ptr) _Objty(_STD forward<_Types>(_Args)...);

  00003	8b 4d 0c	 mov	 ecx, DWORD PTR __Ptr$[ebp]
  00006	85 c9		 test	 ecx, ecx
  00008	74 11		 je	 SHORT $LN8@construct
  0000a	8b 45 10	 mov	 eax, DWORD PTR _<_Args_0>$[ebp]
  0000d	f3 0f 7e 00	 movq	 xmm0, QWORD PTR [eax]
  00011	66 0f d6 01	 movq	 QWORD PTR [ecx], xmm0
  00015	8b 40 08	 mov	 eax, DWORD PTR [eax+8]
  00018	89 41 08	 mov	 DWORD PTR [ecx+8], eax
$LN8@construct:

; 773  : 		_Al.construct(_Ptr, _STD forward<_Types>(_Args)...);
; 774  : 		}

  0001b	5d		 pop	 ebp
  0001c	c3		 ret	 0
??$construct@URINGMONSTER_DATA@@ABU1@@?$allocator_traits@V?$allocator@URINGMONSTER_DATA@@@std@@@std@@SAXAAV?$allocator@URINGMONSTER_DATA@@@1@PAURINGMONSTER_DATA@@ABU3@@Z ENDP ; std::allocator_traits<std::allocator<RINGMONSTER_DATA> >::construct<RINGMONSTER_DATA,RINGMONSTER_DATA const &>
_TEXT	ENDS
; Function compile flags: /Ogtp
; File c:\program files (x86)\microsoft visual studio 14.0\vc\include\type_traits
;	COMDAT ??$forward@ABURINGMONSTER_DATA@@@std@@YAABURINGMONSTER_DATA@@ABU1@@Z
_TEXT	SEGMENT
__Arg$ = 8						; size = 4
??$forward@ABURINGMONSTER_DATA@@@std@@YAABURINGMONSTER_DATA@@ABU1@@Z PROC ; std::forward<RINGMONSTER_DATA const &>, COMDAT

; 1233 : 	{	// forward an lvalue as either an lvalue or an rvalue

  00000	55		 push	 ebp
  00001	8b ec		 mov	 ebp, esp

; 1234 : 	return (static_cast<_Ty&&>(_Arg));

  00003	8b 45 08	 mov	 eax, DWORD PTR __Arg$[ebp]

; 1235 : 	}

  00006	5d		 pop	 ebp
  00007	c3		 ret	 0
??$forward@ABURINGMONSTER_DATA@@@std@@YAABURINGMONSTER_DATA@@ABU1@@Z ENDP ; std::forward<RINGMONSTER_DATA const &>
_TEXT	ENDS
; Function compile flags: /Ogtp
; File c:\program files (x86)\microsoft visual studio 14.0\vc\include\xmemory0
;	COMDAT ??$construct@URINGMONSTER_DATA@@AAU1@@?$allocator_traits@V?$allocator@URINGMONSTER_DATA@@@std@@@std@@SAXAAV?$allocator@URINGMONSTER_DATA@@@1@PAURINGMONSTER_DATA@@AAU3@@Z
_TEXT	SEGMENT
__Al$ = 8						; size = 4
__Ptr$ = 12						; size = 4
_<_Args_0>$ = 16					; size = 4
??$construct@URINGMONSTER_DATA@@AAU1@@?$allocator_traits@V?$allocator@URINGMONSTER_DATA@@@std@@@std@@SAXAAV?$allocator@URINGMONSTER_DATA@@@1@PAURINGMONSTER_DATA@@AAU3@@Z PROC ; std::allocator_traits<std::allocator<RINGMONSTER_DATA> >::construct<RINGMONSTER_DATA,RINGMONSTER_DATA &>, COMDAT

; 772  : 		{	// construct _Objty(_Types...) at _Ptr

  00000	55		 push	 ebp
  00001	8b ec		 mov	 ebp, esp

; 655  : 		::new ((void *)_Ptr) _Objty(_STD forward<_Types>(_Args)...);

  00003	8b 4d 0c	 mov	 ecx, DWORD PTR __Ptr$[ebp]
  00006	85 c9		 test	 ecx, ecx
  00008	74 11		 je	 SHORT $LN8@construct
  0000a	8b 45 10	 mov	 eax, DWORD PTR _<_Args_0>$[ebp]
  0000d	f3 0f 7e 00	 movq	 xmm0, QWORD PTR [eax]
  00011	66 0f d6 01	 movq	 QWORD PTR [ecx], xmm0
  00015	8b 40 08	 mov	 eax, DWORD PTR [eax+8]
  00018	89 41 08	 mov	 DWORD PTR [ecx+8], eax
$LN8@construct:

; 773  : 		_Al.construct(_Ptr, _STD forward<_Types>(_Args)...);
; 774  : 		}

  0001b	5d		 pop	 ebp
  0001c	c3		 ret	 0
??$construct@URINGMONSTER_DATA@@AAU1@@?$allocator_traits@V?$allocator@URINGMONSTER_DATA@@@std@@@std@@SAXAAV?$allocator@URINGMONSTER_DATA@@@1@PAURINGMONSTER_DATA@@AAU3@@Z ENDP ; std::allocator_traits<std::allocator<RINGMONSTER_DATA> >::construct<RINGMONSTER_DATA,RINGMONSTER_DATA &>
_TEXT	ENDS
; Function compile flags: /Ogtp
; File c:\program files (x86)\microsoft visual studio 14.0\vc\include\type_traits
;	COMDAT ??$forward@AAURINGMONSTER_DATA@@@std@@YAAAURINGMONSTER_DATA@@AAU1@@Z
_TEXT	SEGMENT
__Arg$ = 8						; size = 4
??$forward@AAURINGMONSTER_DATA@@@std@@YAAAURINGMONSTER_DATA@@AAU1@@Z PROC ; std::forward<RINGMONSTER_DATA &>, COMDAT

; 1233 : 	{	// forward an lvalue as either an lvalue or an rvalue

  00000	55		 push	 ebp
  00001	8b ec		 mov	 ebp, esp

; 1234 : 	return (static_cast<_Ty&&>(_Arg));

  00003	8b 45 08	 mov	 eax, DWORD PTR __Arg$[ebp]

; 1235 : 	}

  00006	5d		 pop	 ebp
  00007	c3		 ret	 0
??$forward@AAURINGMONSTER_DATA@@@std@@YAAAURINGMONSTER_DATA@@AAU1@@Z ENDP ; std::forward<RINGMONSTER_DATA &>
_TEXT	ENDS
; Function compile flags: /Ogtp
; File c:\program files (x86)\microsoft visual studio 14.0\vc\include\xstddef
;	COMDAT ??$_Addressof@$$CBURINGMONSTER_DATA@@@std@@YAPBURINGMONSTER_DATA@@ABU1@U?$integral_constant@_N$0A@@0@@Z
_TEXT	SEGMENT
__Val$ = 8						; size = 4
___formal$ = 12						; size = 1
??$_Addressof@$$CBURINGMONSTER_DATA@@@std@@YAPBURINGMONSTER_DATA@@ABU1@U?$integral_constant@_N$0A@@0@@Z PROC ; std::_Addressof<RINGMONSTER_DATA const >, COMDAT

; 688  : 	{	// return address of object _Val

  00000	55		 push	 ebp
  00001	8b ec		 mov	 ebp, esp

; 689  : 	return (reinterpret_cast<_Ty *>(

  00003	8b 45 08	 mov	 eax, DWORD PTR __Val$[ebp]

; 690  : 		&const_cast<char&>(
; 691  : 		reinterpret_cast<const volatile char&>(_Val))));
; 692  : 	}

  00006	5d		 pop	 ebp
  00007	c3		 ret	 0
??$_Addressof@$$CBURINGMONSTER_DATA@@@std@@YAPBURINGMONSTER_DATA@@ABU1@U?$integral_constant@_N$0A@@0@@Z ENDP ; std::_Addressof<RINGMONSTER_DATA const >
_TEXT	ENDS
; Function compile flags: /Ogtp
; File c:\program files (x86)\microsoft visual studio 14.0\vc\include\xutility
;	COMDAT ??$_Move@PAURINGMONSTER_DATA@@PAU1@@std@@YAPAURINGMONSTER_DATA@@PAU1@00U_Nonscalar_ptr_iterator_tag@0@@Z
_TEXT	SEGMENT
__First$ = 8						; size = 4
__Last$ = 12						; size = 4
__Dest$ = 16						; size = 4
___formal$ = 20						; size = 1
??$_Move@PAURINGMONSTER_DATA@@PAU1@@std@@YAPAURINGMONSTER_DATA@@PAU1@00U_Nonscalar_ptr_iterator_tag@0@@Z PROC ; std::_Move<RINGMONSTER_DATA *,RINGMONSTER_DATA *>, COMDAT

; 2516 : 	{	// move [_First, _Last) to [_Dest, ...), arbitrary iterators

  00000	55		 push	 ebp
  00001	8b ec		 mov	 ebp, esp

; 2517 : 	for (; _First != _Last; ++_Dest, (void)++_First)

  00003	8b 4d 08	 mov	 ecx, DWORD PTR __First$[ebp]
  00006	8b 45 10	 mov	 eax, DWORD PTR __Dest$[ebp]
  00009	56		 push	 esi
  0000a	8b 75 0c	 mov	 esi, DWORD PTR __Last$[ebp]
  0000d	3b ce		 cmp	 ecx, esi
  0000f	74 18		 je	 SHORT $LN3@Move
$LL4@Move:

; 2518 : 		*_Dest = _STD move(*_First);

  00011	f3 0f 7e 01	 movq	 xmm0, QWORD PTR [ecx]
  00015	66 0f d6 00	 movq	 QWORD PTR [eax], xmm0
  00019	8b 51 08	 mov	 edx, DWORD PTR [ecx+8]
  0001c	83 c1 0c	 add	 ecx, 12			; 0000000cH
  0001f	89 50 08	 mov	 DWORD PTR [eax+8], edx
  00022	83 c0 0c	 add	 eax, 12			; 0000000cH
  00025	3b ce		 cmp	 ecx, esi
  00027	75 e8		 jne	 SHORT $LL4@Move
$LN3@Move:
  00029	5e		 pop	 esi

; 2519 : 	return (_Dest);
; 2520 : 	}

  0002a	5d		 pop	 ebp
  0002b	c3		 ret	 0
??$_Move@PAURINGMONSTER_DATA@@PAU1@@std@@YAPAURINGMONSTER_DATA@@PAU1@00U_Nonscalar_ptr_iterator_tag@0@@Z ENDP ; std::_Move<RINGMONSTER_DATA *,RINGMONSTER_DATA *>
_TEXT	ENDS
; Function compile flags: /Ogtp
; File c:\program files (x86)\microsoft visual studio 14.0\vc\include\xutility
;	COMDAT ??$_Ptr_cat@URINGMONSTER_DATA@@U1@@std@@YA?AU_Nonscalar_ptr_iterator_tag@0@PAURINGMONSTER_DATA@@0@Z
_TEXT	SEGMENT
__Cat$ = -1						; size = 1
___formal$ = 8						; size = 4
___formal$ = 12						; size = 4
??$_Ptr_cat@URINGMONSTER_DATA@@U1@@std@@YA?AU_Nonscalar_ptr_iterator_tag@0@PAURINGMONSTER_DATA@@0@Z PROC ; std::_Ptr_cat<RINGMONSTER_DATA,RINGMONSTER_DATA>, COMDAT

; 640  : 	{	// return pointer category from pointers

  00000	55		 push	 ebp
  00001	8b ec		 mov	 ebp, esp
  00003	51		 push	 ecx

; 641  : 	typename _Ptr_cat_helper<_Elem1, _Elem2>::type _Cat;
; 642  : 	return (_Cat);

  00004	8a 45 ff	 mov	 al, BYTE PTR __Cat$[ebp]

; 643  : 	}

  00007	8b e5		 mov	 esp, ebp
  00009	5d		 pop	 ebp
  0000a	c3		 ret	 0
??$_Ptr_cat@URINGMONSTER_DATA@@U1@@std@@YA?AU_Nonscalar_ptr_iterator_tag@0@PAURINGMONSTER_DATA@@0@Z ENDP ; std::_Ptr_cat<RINGMONSTER_DATA,RINGMONSTER_DATA>
_TEXT	ENDS
; Function compile flags: /Ogtp
; File c:\program files (x86)\microsoft visual studio 14.0\vc\include\xmemory0
;	COMDAT ??$construct@URINGMONSTER_EVENT_TIME@@ABU1@@?$allocator_traits@V?$allocator@URINGMONSTER_EVENT_TIME@@@std@@@std@@SAXAAV?$allocator@URINGMONSTER_EVENT_TIME@@@1@PAURINGMONSTER_EVENT_TIME@@ABU3@@Z
_TEXT	SEGMENT
__Al$ = 8						; size = 4
__Ptr$ = 12						; size = 4
_<_Args_0>$ = 16					; size = 4
??$construct@URINGMONSTER_EVENT_TIME@@ABU1@@?$allocator_traits@V?$allocator@URINGMONSTER_EVENT_TIME@@@std@@@std@@SAXAAV?$allocator@URINGMONSTER_EVENT_TIME@@@1@PAURINGMONSTER_EVENT_TIME@@ABU3@@Z PROC ; std::allocator_traits<std::allocator<RINGMONSTER_EVENT_TIME> >::construct<RINGMONSTER_EVENT_TIME,RINGMONSTER_EVENT_TIME const &>, COMDAT

; 772  : 		{	// construct _Objty(_Types...) at _Ptr

  00000	55		 push	 ebp
  00001	8b ec		 mov	 ebp, esp

; 655  : 		::new ((void *)_Ptr) _Objty(_STD forward<_Types>(_Args)...);

  00003	8b 55 0c	 mov	 edx, DWORD PTR __Ptr$[ebp]
  00006	85 d2		 test	 edx, edx
  00008	74 0d		 je	 SHORT $LN8@construct
  0000a	8b 4d 10	 mov	 ecx, DWORD PTR _<_Args_0>$[ebp]
  0000d	8b 01		 mov	 eax, DWORD PTR [ecx]
  0000f	89 02		 mov	 DWORD PTR [edx], eax
  00011	8b 41 04	 mov	 eax, DWORD PTR [ecx+4]
  00014	89 42 04	 mov	 DWORD PTR [edx+4], eax
$LN8@construct:

; 773  : 		_Al.construct(_Ptr, _STD forward<_Types>(_Args)...);
; 774  : 		}

  00017	5d		 pop	 ebp
  00018	c3		 ret	 0
??$construct@URINGMONSTER_EVENT_TIME@@ABU1@@?$allocator_traits@V?$allocator@URINGMONSTER_EVENT_TIME@@@std@@@std@@SAXAAV?$allocator@URINGMONSTER_EVENT_TIME@@@1@PAURINGMONSTER_EVENT_TIME@@ABU3@@Z ENDP ; std::allocator_traits<std::allocator<RINGMONSTER_EVENT_TIME> >::construct<RINGMONSTER_EVENT_TIME,RINGMONSTER_EVENT_TIME const &>
_TEXT	ENDS
; Function compile flags: /Ogtp
; File c:\program files (x86)\microsoft visual studio 14.0\vc\include\type_traits
;	COMDAT ??$forward@ABURINGMONSTER_EVENT_TIME@@@std@@YAABURINGMONSTER_EVENT_TIME@@ABU1@@Z
_TEXT	SEGMENT
__Arg$ = 8						; size = 4
??$forward@ABURINGMONSTER_EVENT_TIME@@@std@@YAABURINGMONSTER_EVENT_TIME@@ABU1@@Z PROC ; std::forward<RINGMONSTER_EVENT_TIME const &>, COMDAT

; 1233 : 	{	// forward an lvalue as either an lvalue or an rvalue

  00000	55		 push	 ebp
  00001	8b ec		 mov	 ebp, esp

; 1234 : 	return (static_cast<_Ty&&>(_Arg));

  00003	8b 45 08	 mov	 eax, DWORD PTR __Arg$[ebp]

; 1235 : 	}

  00006	5d		 pop	 ebp
  00007	c3		 ret	 0
??$forward@ABURINGMONSTER_EVENT_TIME@@@std@@YAABURINGMONSTER_EVENT_TIME@@ABU1@@Z ENDP ; std::forward<RINGMONSTER_EVENT_TIME const &>
_TEXT	ENDS
; Function compile flags: /Ogtp
; File c:\program files (x86)\microsoft visual studio 14.0\vc\include\xmemory0
;	COMDAT ??$construct@URINGMONSTER_EVENT_TIME@@AAU1@@?$allocator_traits@V?$allocator@URINGMONSTER_EVENT_TIME@@@std@@@std@@SAXAAV?$allocator@URINGMONSTER_EVENT_TIME@@@1@PAURINGMONSTER_EVENT_TIME@@AAU3@@Z
_TEXT	SEGMENT
__Al$ = 8						; size = 4
__Ptr$ = 12						; size = 4
_<_Args_0>$ = 16					; size = 4
??$construct@URINGMONSTER_EVENT_TIME@@AAU1@@?$allocator_traits@V?$allocator@URINGMONSTER_EVENT_TIME@@@std@@@std@@SAXAAV?$allocator@URINGMONSTER_EVENT_TIME@@@1@PAURINGMONSTER_EVENT_TIME@@AAU3@@Z PROC ; std::allocator_traits<std::allocator<RINGMONSTER_EVENT_TIME> >::construct<RINGMONSTER_EVENT_TIME,RINGMONSTER_EVENT_TIME &>, COMDAT

; 772  : 		{	// construct _Objty(_Types...) at _Ptr

  00000	55		 push	 ebp
  00001	8b ec		 mov	 ebp, esp

; 655  : 		::new ((void *)_Ptr) _Objty(_STD forward<_Types>(_Args)...);

  00003	8b 55 0c	 mov	 edx, DWORD PTR __Ptr$[ebp]
  00006	85 d2		 test	 edx, edx
  00008	74 0d		 je	 SHORT $LN8@construct
  0000a	8b 4d 10	 mov	 ecx, DWORD PTR _<_Args_0>$[ebp]
  0000d	8b 01		 mov	 eax, DWORD PTR [ecx]
  0000f	89 02		 mov	 DWORD PTR [edx], eax
  00011	8b 41 04	 mov	 eax, DWORD PTR [ecx+4]
  00014	89 42 04	 mov	 DWORD PTR [edx+4], eax
$LN8@construct:

; 773  : 		_Al.construct(_Ptr, _STD forward<_Types>(_Args)...);
; 774  : 		}

  00017	5d		 pop	 ebp
  00018	c3		 ret	 0
??$construct@URINGMONSTER_EVENT_TIME@@AAU1@@?$allocator_traits@V?$allocator@URINGMONSTER_EVENT_TIME@@@std@@@std@@SAXAAV?$allocator@URINGMONSTER_EVENT_TIME@@@1@PAURINGMONSTER_EVENT_TIME@@AAU3@@Z ENDP ; std::allocator_traits<std::allocator<RINGMONSTER_EVENT_TIME> >::construct<RINGMONSTER_EVENT_TIME,RINGMONSTER_EVENT_TIME &>
_TEXT	ENDS
; Function compile flags: /Ogtp
; File c:\program files (x86)\microsoft visual studio 14.0\vc\include\type_traits
;	COMDAT ??$forward@AAURINGMONSTER_EVENT_TIME@@@std@@YAAAURINGMONSTER_EVENT_TIME@@AAU1@@Z
_TEXT	SEGMENT
__Arg$ = 8						; size = 4
??$forward@AAURINGMONSTER_EVENT_TIME@@@std@@YAAAURINGMONSTER_EVENT_TIME@@AAU1@@Z PROC ; std::forward<RINGMONSTER_EVENT_TIME &>, COMDAT

; 1233 : 	{	// forward an lvalue as either an lvalue or an rvalue

  00000	55		 push	 ebp
  00001	8b ec		 mov	 ebp, esp

; 1234 : 	return (static_cast<_Ty&&>(_Arg));

  00003	8b 45 08	 mov	 eax, DWORD PTR __Arg$[ebp]

; 1235 : 	}

  00006	5d		 pop	 ebp
  00007	c3		 ret	 0
??$forward@AAURINGMONSTER_EVENT_TIME@@@std@@YAAAURINGMONSTER_EVENT_TIME@@AAU1@@Z ENDP ; std::forward<RINGMONSTER_EVENT_TIME &>
_TEXT	ENDS
; Function compile flags: /Ogtp
; File c:\program files (x86)\microsoft visual studio 14.0\vc\include\xstddef
;	COMDAT ??$_Addressof@$$CBURINGMONSTER_EVENT_TIME@@@std@@YAPBURINGMONSTER_EVENT_TIME@@ABU1@U?$integral_constant@_N$0A@@0@@Z
_TEXT	SEGMENT
__Val$ = 8						; size = 4
___formal$ = 12						; size = 1
??$_Addressof@$$CBURINGMONSTER_EVENT_TIME@@@std@@YAPBURINGMONSTER_EVENT_TIME@@ABU1@U?$integral_constant@_N$0A@@0@@Z PROC ; std::_Addressof<RINGMONSTER_EVENT_TIME const >, COMDAT

; 688  : 	{	// return address of object _Val

  00000	55		 push	 ebp
  00001	8b ec		 mov	 ebp, esp

; 689  : 	return (reinterpret_cast<_Ty *>(

  00003	8b 45 08	 mov	 eax, DWORD PTR __Val$[ebp]

; 690  : 		&const_cast<char&>(
; 691  : 		reinterpret_cast<const volatile char&>(_Val))));
; 692  : 	}

  00006	5d		 pop	 ebp
  00007	c3		 ret	 0
??$_Addressof@$$CBURINGMONSTER_EVENT_TIME@@@std@@YAPBURINGMONSTER_EVENT_TIME@@ABU1@U?$integral_constant@_N$0A@@0@@Z ENDP ; std::_Addressof<RINGMONSTER_EVENT_TIME const >
_TEXT	ENDS
; Function compile flags: /Ogtp
; File c:\program files (x86)\microsoft visual studio 14.0\vc\include\xutility
;	COMDAT ??$_Move@PAURINGMONSTER_EVENT_TIME@@PAU1@@std@@YAPAURINGMONSTER_EVENT_TIME@@PAU1@00U_Nonscalar_ptr_iterator_tag@0@@Z
_TEXT	SEGMENT
__First$ = 8						; size = 4
__Last$ = 12						; size = 4
__Dest$ = 16						; size = 4
___formal$ = 20						; size = 1
??$_Move@PAURINGMONSTER_EVENT_TIME@@PAU1@@std@@YAPAURINGMONSTER_EVENT_TIME@@PAU1@00U_Nonscalar_ptr_iterator_tag@0@@Z PROC ; std::_Move<RINGMONSTER_EVENT_TIME *,RINGMONSTER_EVENT_TIME *>, COMDAT

; 2516 : 	{	// move [_First, _Last) to [_Dest, ...), arbitrary iterators

  00000	55		 push	 ebp
  00001	8b ec		 mov	 ebp, esp

; 2517 : 	for (; _First != _Last; ++_Dest, (void)++_First)

  00003	8b 4d 08	 mov	 ecx, DWORD PTR __First$[ebp]
  00006	8b 45 10	 mov	 eax, DWORD PTR __Dest$[ebp]
  00009	56		 push	 esi
  0000a	8b 75 0c	 mov	 esi, DWORD PTR __Last$[ebp]
  0000d	3b ce		 cmp	 ecx, esi
  0000f	74 14		 je	 SHORT $LN3@Move
$LL4@Move:

; 2518 : 		*_Dest = _STD move(*_First);

  00011	8b 11		 mov	 edx, DWORD PTR [ecx]
  00013	89 10		 mov	 DWORD PTR [eax], edx
  00015	8b 51 04	 mov	 edx, DWORD PTR [ecx+4]
  00018	83 c1 08	 add	 ecx, 8
  0001b	89 50 04	 mov	 DWORD PTR [eax+4], edx
  0001e	83 c0 08	 add	 eax, 8
  00021	3b ce		 cmp	 ecx, esi
  00023	75 ec		 jne	 SHORT $LL4@Move
$LN3@Move:
  00025	5e		 pop	 esi

; 2519 : 	return (_Dest);
; 2520 : 	}

  00026	5d		 pop	 ebp
  00027	c3		 ret	 0
??$_Move@PAURINGMONSTER_EVENT_TIME@@PAU1@@std@@YAPAURINGMONSTER_EVENT_TIME@@PAU1@00U_Nonscalar_ptr_iterator_tag@0@@Z ENDP ; std::_Move<RINGMONSTER_EVENT_TIME *,RINGMONSTER_EVENT_TIME *>
_TEXT	ENDS
; Function compile flags: /Ogtp
; File c:\program files (x86)\microsoft visual studio 14.0\vc\include\xutility
;	COMDAT ??$_Ptr_cat@URINGMONSTER_EVENT_TIME@@U1@@std@@YA?AU_Nonscalar_ptr_iterator_tag@0@PAURINGMONSTER_EVENT_TIME@@0@Z
_TEXT	SEGMENT
__Cat$ = -1						; size = 1
___formal$ = 8						; size = 4
___formal$ = 12						; size = 4
??$_Ptr_cat@URINGMONSTER_EVENT_TIME@@U1@@std@@YA?AU_Nonscalar_ptr_iterator_tag@0@PAURINGMONSTER_EVENT_TIME@@0@Z PROC ; std::_Ptr_cat<RINGMONSTER_EVENT_TIME,RINGMONSTER_EVENT_TIME>, COMDAT

; 640  : 	{	// return pointer category from pointers

  00000	55		 push	 ebp
  00001	8b ec		 mov	 ebp, esp
  00003	51		 push	 ecx

; 641  : 	typename _Ptr_cat_helper<_Elem1, _Elem2>::type _Cat;
; 642  : 	return (_Cat);

  00004	8a 45 ff	 mov	 al, BYTE PTR __Cat$[ebp]

; 643  : 	}

  00007	8b e5		 mov	 esp, ebp
  00009	5d		 pop	 ebp
  0000a	c3		 ret	 0
??$_Ptr_cat@URINGMONSTER_EVENT_TIME@@U1@@std@@YA?AU_Nonscalar_ptr_iterator_tag@0@PAURINGMONSTER_EVENT_TIME@@0@Z ENDP ; std::_Ptr_cat<RINGMONSTER_EVENT_TIME,RINGMONSTER_EVENT_TIME>
_TEXT	ENDS
; Function compile flags: /Ogtp
; File c:\program files (x86)\microsoft visual studio 14.0\vc\include\vector
; File c:\program files (x86)\microsoft visual studio 14.0\vc\include\xmemory
; File c:\program files (x86)\microsoft visual studio 14.0\vc\include\vector
;	COMDAT ??$_Umove@PAURINGMONSTER_DATA@@@?$vector@URINGMONSTER_DATA@@V?$allocator@URINGMONSTER_DATA@@@std@@@std@@IAEPAURINGMONSTER_DATA@@PAU2@00@Z
_TEXT	SEGMENT
__First$ = 8						; size = 4
__Last$ = 12						; size = 4
__Cat$1 = 16						; size = 1
__Ptr$ = 16						; size = 4
??$_Umove@PAURINGMONSTER_DATA@@@?$vector@URINGMONSTER_DATA@@V?$allocator@URINGMONSTER_DATA@@@std@@@std@@IAEPAURINGMONSTER_DATA@@PAU2@00@Z PROC ; std::vector<RINGMONSTER_DATA,std::allocator<RINGMONSTER_DATA> >::_Umove<RINGMONSTER_DATA *>, COMDAT
; _this$ = ecx

; 1677 : 		{	// move initializing [_First, _Last), using allocator

  00000	55		 push	 ebp
  00001	8b ec		 mov	 ebp, esp
; File c:\program files (x86)\microsoft visual studio 14.0\vc\include\xmemory

; 481  : 	return (_Uninit_move(_First, _Last, _Dest, _Al,

  00003	ff 75 10	 push	 DWORD PTR __Cat$1[ebp]
  00006	6a 00		 push	 0
  00008	51		 push	 ecx
  00009	ff 75 10	 push	 DWORD PTR __Ptr$[ebp]
  0000c	ff 75 0c	 push	 DWORD PTR __Last$[ebp]
  0000f	ff 75 08	 push	 DWORD PTR __First$[ebp]
  00012	e8 00 00 00 00	 call	 ??$_Uninit_move@PAURINGMONSTER_DATA@@PAU1@V?$allocator@URINGMONSTER_DATA@@@std@@U1@@std@@YAPAURINGMONSTER_DATA@@PAU1@00AAU?$_Wrap_alloc@V?$allocator@URINGMONSTER_DATA@@@std@@@0@0U_Nonscalar_ptr_iterator_tag@0@@Z ; std::_Uninit_move<RINGMONSTER_DATA *,RINGMONSTER_DATA *,std::allocator<RINGMONSTER_DATA>,RINGMONSTER_DATA>
  00017	83 c4 18	 add	 esp, 24			; 00000018H
; File c:\program files (x86)\microsoft visual studio 14.0\vc\include\vector

; 1680 : 		}

  0001a	5d		 pop	 ebp
  0001b	c2 0c 00	 ret	 12			; 0000000cH
??$_Umove@PAURINGMONSTER_DATA@@@?$vector@URINGMONSTER_DATA@@V?$allocator@URINGMONSTER_DATA@@@std@@@std@@IAEPAURINGMONSTER_DATA@@PAU2@00@Z ENDP ; std::vector<RINGMONSTER_DATA,std::allocator<RINGMONSTER_DATA> >::_Umove<RINGMONSTER_DATA *>
_TEXT	ENDS
; Function compile flags: /Ogtp
; File c:\program files (x86)\microsoft visual studio 14.0\vc\include\vector
; File c:\program files (x86)\microsoft visual studio 14.0\vc\include\xmemory
; File c:\program files (x86)\microsoft visual studio 14.0\vc\include\vector
;	COMDAT ??$_Umove@PAURINGMONSTER_EVENT_TIME@@@?$vector@URINGMONSTER_EVENT_TIME@@V?$allocator@URINGMONSTER_EVENT_TIME@@@std@@@std@@IAEPAURINGMONSTER_EVENT_TIME@@PAU2@00@Z
_TEXT	SEGMENT
__First$ = 8						; size = 4
__Last$ = 12						; size = 4
__Cat$1 = 16						; size = 1
__Ptr$ = 16						; size = 4
??$_Umove@PAURINGMONSTER_EVENT_TIME@@@?$vector@URINGMONSTER_EVENT_TIME@@V?$allocator@URINGMONSTER_EVENT_TIME@@@std@@@std@@IAEPAURINGMONSTER_EVENT_TIME@@PAU2@00@Z PROC ; std::vector<RINGMONSTER_EVENT_TIME,std::allocator<RINGMONSTER_EVENT_TIME> >::_Umove<RINGMONSTER_EVENT_TIME *>, COMDAT
; _this$ = ecx

; 1677 : 		{	// move initializing [_First, _Last), using allocator

  00000	55		 push	 ebp
  00001	8b ec		 mov	 ebp, esp
; File c:\program files (x86)\microsoft visual studio 14.0\vc\include\xmemory

; 481  : 	return (_Uninit_move(_First, _Last, _Dest, _Al,

  00003	ff 75 10	 push	 DWORD PTR __Cat$1[ebp]
  00006	6a 00		 push	 0
  00008	51		 push	 ecx
  00009	ff 75 10	 push	 DWORD PTR __Ptr$[ebp]
  0000c	ff 75 0c	 push	 DWORD PTR __Last$[ebp]
  0000f	ff 75 08	 push	 DWORD PTR __First$[ebp]
  00012	e8 00 00 00 00	 call	 ??$_Uninit_move@PAURINGMONSTER_EVENT_TIME@@PAU1@V?$allocator@URINGMONSTER_EVENT_TIME@@@std@@U1@@std@@YAPAURINGMONSTER_EVENT_TIME@@PAU1@00AAU?$_Wrap_alloc@V?$allocator@URINGMONSTER_EVENT_TIME@@@std@@@0@0U_Nonscalar_ptr_iterator_tag@0@@Z ; std::_Uninit_move<RINGMONSTER_EVENT_TIME *,RINGMONSTER_EVENT_TIME *,std::allocator<RINGMONSTER_EVENT_TIME>,RINGMONSTER_EVENT_TIME>
  00017	83 c4 18	 add	 esp, 24			; 00000018H
; File c:\program files (x86)\microsoft visual studio 14.0\vc\include\vector

; 1680 : 		}

  0001a	5d		 pop	 ebp
  0001b	c2 0c 00	 ret	 12			; 0000000cH
??$_Umove@PAURINGMONSTER_EVENT_TIME@@@?$vector@URINGMONSTER_EVENT_TIME@@V?$allocator@URINGMONSTER_EVENT_TIME@@@std@@@std@@IAEPAURINGMONSTER_EVENT_TIME@@PAU2@00@Z ENDP ; std::vector<RINGMONSTER_EVENT_TIME,std::allocator<RINGMONSTER_EVENT_TIME> >::_Umove<RINGMONSTER_EVENT_TIME *>
_TEXT	ENDS
; Function compile flags: /Ogtp
; File c:\program files (x86)\microsoft visual studio 14.0\vc\include\xmemory0
;	COMDAT ??$_Destroy_range@U?$_Wrap_alloc@V?$allocator@URINGMONSTER_DATA@@@std@@@std@@@std@@YAXPAURINGMONSTER_DATA@@0AAU?$_Wrap_alloc@V?$allocator@URINGMONSTER_DATA@@@std@@@0@@Z
_TEXT	SEGMENT
__First$ = 8						; size = 4
__Last$ = 12						; size = 4
__Al$ = 16						; size = 4
??$_Destroy_range@U?$_Wrap_alloc@V?$allocator@URINGMONSTER_DATA@@@std@@@std@@@std@@YAXPAURINGMONSTER_DATA@@0AAU?$_Wrap_alloc@V?$allocator@URINGMONSTER_DATA@@@std@@@0@@Z PROC ; std::_Destroy_range<std::_Wrap_alloc<std::allocator<RINGMONSTER_DATA> > >, COMDAT

; 186  : 	_Destroy_range(_First, _Last, _Al, _Ptr_cat(_First, _Last));
; 187  : 	}

  00000	c3		 ret	 0
??$_Destroy_range@U?$_Wrap_alloc@V?$allocator@URINGMONSTER_DATA@@@std@@@std@@@std@@YAXPAURINGMONSTER_DATA@@0AAU?$_Wrap_alloc@V?$allocator@URINGMONSTER_DATA@@@std@@@0@@Z ENDP ; std::_Destroy_range<std::_Wrap_alloc<std::allocator<RINGMONSTER_DATA> > >
_TEXT	ENDS
; Function compile flags: /Ogtp
; File c:\program files (x86)\microsoft visual studio 14.0\vc\include\xutility
; File c:\program files (x86)\microsoft visual studio 14.0\vc\include\vector
; File c:\program files (x86)\microsoft visual studio 14.0\vc\include\xutility
; File c:\program files (x86)\microsoft visual studio 14.0\vc\include\vector
; File c:\program files (x86)\microsoft visual studio 14.0\vc\include\xutility
;	COMDAT ??$?0ABV?$allocator@URINGMONSTER_DATA@@@std@@$$V@?$_Compressed_pair@U?$_Wrap_alloc@V?$allocator@URINGMONSTER_DATA@@@std@@@std@@V?$_Vector_val@U?$_Simple_types@URINGMONSTER_DATA@@@std@@@2@$00@std@@QAE@U_One_then_variadic_args_t@1@ABV?$allocator@URINGMONSTER_DATA@@@1@@Z
_TEXT	SEGMENT
___formal$ = 8						; size = 1
__Val1$ = 12						; size = 4
??$?0ABV?$allocator@URINGMONSTER_DATA@@@std@@$$V@?$_Compressed_pair@U?$_Wrap_alloc@V?$allocator@URINGMONSTER_DATA@@@std@@@std@@V?$_Vector_val@U?$_Simple_types@URINGMONSTER_DATA@@@std@@@2@$00@std@@QAE@U_One_then_variadic_args_t@1@ABV?$allocator@URINGMONSTER_DATA@@@1@@Z PROC ; std::_Compressed_pair<std::_Wrap_alloc<std::allocator<RINGMONSTER_DATA> >,std::_Vector_val<std::_Simple_types<RINGMONSTER_DATA> >,1>::_Compressed_pair<std::_Wrap_alloc<std::allocator<RINGMONSTER_DATA> >,std::_Vector_val<std::_Simple_types<RINGMONSTER_DATA> >,1><std::allocator<RINGMONSTER_DATA> const &>, COMDAT
; _this$ = ecx
; File c:\program files (x86)\microsoft visual studio 14.0\vc\include\vector

; 480  : 		_Myfirst = pointer();

  00000	c7 01 00 00 00
	00		 mov	 DWORD PTR [ecx], 0
; File c:\program files (x86)\microsoft visual studio 14.0\vc\include\xutility

; 289  : 		}

  00006	8b c1		 mov	 eax, ecx
; File c:\program files (x86)\microsoft visual studio 14.0\vc\include\vector

; 481  : 		_Mylast = pointer();

  00008	c7 41 04 00 00
	00 00		 mov	 DWORD PTR [ecx+4], 0

; 482  : 		_Myend = pointer();

  0000f	c7 41 08 00 00
	00 00		 mov	 DWORD PTR [ecx+8], 0
; File c:\program files (x86)\microsoft visual studio 14.0\vc\include\xutility

; 289  : 		}

  00016	c2 08 00	 ret	 8
??$?0ABV?$allocator@URINGMONSTER_DATA@@@std@@$$V@?$_Compressed_pair@U?$_Wrap_alloc@V?$allocator@URINGMONSTER_DATA@@@std@@@std@@V?$_Vector_val@U?$_Simple_types@URINGMONSTER_DATA@@@std@@@2@$00@std@@QAE@U_One_then_variadic_args_t@1@ABV?$allocator@URINGMONSTER_DATA@@@1@@Z ENDP ; std::_Compressed_pair<std::_Wrap_alloc<std::allocator<RINGMONSTER_DATA> >,std::_Vector_val<std::_Simple_types<RINGMONSTER_DATA> >,1>::_Compressed_pair<std::_Wrap_alloc<std::allocator<RINGMONSTER_DATA> >,std::_Vector_val<std::_Simple_types<RINGMONSTER_DATA> >,1><std::allocator<RINGMONSTER_DATA> const &>
_TEXT	ENDS
; Function compile flags: /Ogtp
; File c:\program files (x86)\microsoft visual studio 14.0\vc\include\xmemory0
;	COMDAT ??$_Destroy_range@U?$_Wrap_alloc@V?$allocator@URINGMONSTER_EVENT_TIME@@@std@@@std@@@std@@YAXPAURINGMONSTER_EVENT_TIME@@0AAU?$_Wrap_alloc@V?$allocator@URINGMONSTER_EVENT_TIME@@@std@@@0@@Z
_TEXT	SEGMENT
__First$ = 8						; size = 4
__Last$ = 12						; size = 4
__Al$ = 16						; size = 4
??$_Destroy_range@U?$_Wrap_alloc@V?$allocator@URINGMONSTER_EVENT_TIME@@@std@@@std@@@std@@YAXPAURINGMONSTER_EVENT_TIME@@0AAU?$_Wrap_alloc@V?$allocator@URINGMONSTER_EVENT_TIME@@@std@@@0@@Z PROC ; std::_Destroy_range<std::_Wrap_alloc<std::allocator<RINGMONSTER_EVENT_TIME> > >, COMDAT

; 186  : 	_Destroy_range(_First, _Last, _Al, _Ptr_cat(_First, _Last));
; 187  : 	}

  00000	c3		 ret	 0
??$_Destroy_range@U?$_Wrap_alloc@V?$allocator@URINGMONSTER_EVENT_TIME@@@std@@@std@@@std@@YAXPAURINGMONSTER_EVENT_TIME@@0AAU?$_Wrap_alloc@V?$allocator@URINGMONSTER_EVENT_TIME@@@std@@@0@@Z ENDP ; std::_Destroy_range<std::_Wrap_alloc<std::allocator<RINGMONSTER_EVENT_TIME> > >
_TEXT	ENDS
; Function compile flags: /Ogtp
; File c:\program files (x86)\microsoft visual studio 14.0\vc\include\xutility
; File c:\program files (x86)\microsoft visual studio 14.0\vc\include\vector
; File c:\program files (x86)\microsoft visual studio 14.0\vc\include\xutility
; File c:\program files (x86)\microsoft visual studio 14.0\vc\include\vector
; File c:\program files (x86)\microsoft visual studio 14.0\vc\include\xutility
;	COMDAT ??$?0ABV?$allocator@URINGMONSTER_EVENT_TIME@@@std@@$$V@?$_Compressed_pair@U?$_Wrap_alloc@V?$allocator@URINGMONSTER_EVENT_TIME@@@std@@@std@@V?$_Vector_val@U?$_Simple_types@URINGMONSTER_EVENT_TIME@@@std@@@2@$00@std@@QAE@U_One_then_variadic_args_t@1@ABV?$allocator@URINGMONSTER_EVENT_TIME@@@1@@Z
_TEXT	SEGMENT
___formal$ = 8						; size = 1
__Val1$ = 12						; size = 4
??$?0ABV?$allocator@URINGMONSTER_EVENT_TIME@@@std@@$$V@?$_Compressed_pair@U?$_Wrap_alloc@V?$allocator@URINGMONSTER_EVENT_TIME@@@std@@@std@@V?$_Vector_val@U?$_Simple_types@URINGMONSTER_EVENT_TIME@@@std@@@2@$00@std@@QAE@U_One_then_variadic_args_t@1@ABV?$allocator@URINGMONSTER_EVENT_TIME@@@1@@Z PROC ; std::_Compressed_pair<std::_Wrap_alloc<std::allocator<RINGMONSTER_EVENT_TIME> >,std::_Vector_val<std::_Simple_types<RINGMONSTER_EVENT_TIME> >,1>::_Compressed_pair<std::_Wrap_alloc<std::allocator<RINGMONSTER_EVENT_TIME> >,std::_Vector_val<std::_Simple_types<RINGMONSTER_EVENT_TIME> >,1><std::allocator<RINGMONSTER_EVENT_TIME> const &>, COMDAT
; _this$ = ecx
; File c:\program files (x86)\microsoft visual studio 14.0\vc\include\vector

; 480  : 		_Myfirst = pointer();

  00000	c7 01 00 00 00
	00		 mov	 DWORD PTR [ecx], 0
; File c:\program files (x86)\microsoft visual studio 14.0\vc\include\xutility

; 289  : 		}

  00006	8b c1		 mov	 eax, ecx
; File c:\program files (x86)\microsoft visual studio 14.0\vc\include\vector

; 481  : 		_Mylast = pointer();

  00008	c7 41 04 00 00
	00 00		 mov	 DWORD PTR [ecx+4], 0

; 482  : 		_Myend = pointer();

  0000f	c7 41 08 00 00
	00 00		 mov	 DWORD PTR [ecx+8], 0
; File c:\program files (x86)\microsoft visual studio 14.0\vc\include\xutility

; 289  : 		}

  00016	c2 08 00	 ret	 8
??$?0ABV?$allocator@URINGMONSTER_EVENT_TIME@@@std@@$$V@?$_Compressed_pair@U?$_Wrap_alloc@V?$allocator@URINGMONSTER_EVENT_TIME@@@std@@@std@@V?$_Vector_val@U?$_Simple_types@URINGMONSTER_EVENT_TIME@@@std@@@2@$00@std@@QAE@U_One_then_variadic_args_t@1@ABV?$allocator@URINGMONSTER_EVENT_TIME@@@1@@Z ENDP ; std::_Compressed_pair<std::_Wrap_alloc<std::allocator<RINGMONSTER_EVENT_TIME> >,std::_Vector_val<std::_Simple_types<RINGMONSTER_EVENT_TIME> >,1>::_Compressed_pair<std::_Wrap_alloc<std::allocator<RINGMONSTER_EVENT_TIME> >,std::_Vector_val<std::_Simple_types<RINGMONSTER_EVENT_TIME> >,1><std::allocator<RINGMONSTER_EVENT_TIME> const &>
_TEXT	ENDS
; Function compile flags: /Ogtp
; File c:\program files (x86)\microsoft visual studio 14.0\vc\include\xmemory0
;	COMDAT ??$construct@URINGMONSTER_DATA@@ABU1@@?$_Wrap_alloc@V?$allocator@URINGMONSTER_DATA@@@std@@@std@@QAEXPAURINGMONSTER_DATA@@ABU2@@Z
_TEXT	SEGMENT
__Ptr$ = 8						; size = 4
_<_Args_0>$ = 12					; size = 4
??$construct@URINGMONSTER_DATA@@ABU1@@?$_Wrap_alloc@V?$allocator@URINGMONSTER_DATA@@@std@@@std@@QAEXPAURINGMONSTER_DATA@@ABU2@@Z PROC ; std::_Wrap_alloc<std::allocator<RINGMONSTER_DATA> >::construct<RINGMONSTER_DATA,RINGMONSTER_DATA const &>, COMDAT
; _this$ = ecx

; 916  : 		{	// construct _Ty(_Types...) at _Ptr

  00000	55		 push	 ebp
  00001	8b ec		 mov	 ebp, esp

; 655  : 		::new ((void *)_Ptr) _Objty(_STD forward<_Types>(_Args)...);

  00003	8b 4d 08	 mov	 ecx, DWORD PTR __Ptr$[ebp]
  00006	85 c9		 test	 ecx, ecx
  00008	74 11		 je	 SHORT $LN13@construct
  0000a	8b 45 0c	 mov	 eax, DWORD PTR _<_Args_0>$[ebp]
  0000d	f3 0f 7e 00	 movq	 xmm0, QWORD PTR [eax]
  00011	66 0f d6 01	 movq	 QWORD PTR [ecx], xmm0
  00015	8b 40 08	 mov	 eax, DWORD PTR [eax+8]
  00018	89 41 08	 mov	 DWORD PTR [ecx+8], eax
$LN13@construct:

; 917  : 		_Mytraits::construct(*this, _Ptr,
; 918  : 			_STD forward<_Types>(_Args)...);
; 919  : 		}

  0001b	5d		 pop	 ebp
  0001c	c2 08 00	 ret	 8
??$construct@URINGMONSTER_DATA@@ABU1@@?$_Wrap_alloc@V?$allocator@URINGMONSTER_DATA@@@std@@@std@@QAEXPAURINGMONSTER_DATA@@ABU2@@Z ENDP ; std::_Wrap_alloc<std::allocator<RINGMONSTER_DATA> >::construct<RINGMONSTER_DATA,RINGMONSTER_DATA const &>
_TEXT	ENDS
; Function compile flags: /Ogtp
; File c:\program files (x86)\microsoft visual studio 14.0\vc\include\xmemory0
;	COMDAT ??$construct@URINGMONSTER_DATA@@AAU1@@?$_Wrap_alloc@V?$allocator@URINGMONSTER_DATA@@@std@@@std@@QAEXPAURINGMONSTER_DATA@@AAU2@@Z
_TEXT	SEGMENT
__Ptr$ = 8						; size = 4
_<_Args_0>$ = 12					; size = 4
??$construct@URINGMONSTER_DATA@@AAU1@@?$_Wrap_alloc@V?$allocator@URINGMONSTER_DATA@@@std@@@std@@QAEXPAURINGMONSTER_DATA@@AAU2@@Z PROC ; std::_Wrap_alloc<std::allocator<RINGMONSTER_DATA> >::construct<RINGMONSTER_DATA,RINGMONSTER_DATA &>, COMDAT
; _this$ = ecx

; 916  : 		{	// construct _Ty(_Types...) at _Ptr

  00000	55		 push	 ebp
  00001	8b ec		 mov	 ebp, esp

; 655  : 		::new ((void *)_Ptr) _Objty(_STD forward<_Types>(_Args)...);

  00003	8b 4d 08	 mov	 ecx, DWORD PTR __Ptr$[ebp]
  00006	85 c9		 test	 ecx, ecx
  00008	74 11		 je	 SHORT $LN13@construct
  0000a	8b 45 0c	 mov	 eax, DWORD PTR _<_Args_0>$[ebp]
  0000d	f3 0f 7e 00	 movq	 xmm0, QWORD PTR [eax]
  00011	66 0f d6 01	 movq	 QWORD PTR [ecx], xmm0
  00015	8b 40 08	 mov	 eax, DWORD PTR [eax+8]
  00018	89 41 08	 mov	 DWORD PTR [ecx+8], eax
$LN13@construct:

; 917  : 		_Mytraits::construct(*this, _Ptr,
; 918  : 			_STD forward<_Types>(_Args)...);
; 919  : 		}

  0001b	5d		 pop	 ebp
  0001c	c2 08 00	 ret	 8
??$construct@URINGMONSTER_DATA@@AAU1@@?$_Wrap_alloc@V?$allocator@URINGMONSTER_DATA@@@std@@@std@@QAEXPAURINGMONSTER_DATA@@AAU2@@Z ENDP ; std::_Wrap_alloc<std::allocator<RINGMONSTER_DATA> >::construct<RINGMONSTER_DATA,RINGMONSTER_DATA &>
_TEXT	ENDS
; Function compile flags: /Ogtp
; File c:\program files (x86)\microsoft visual studio 14.0\vc\include\xstddef
;	COMDAT ??$addressof@$$CBURINGMONSTER_DATA@@@std@@YAPBURINGMONSTER_DATA@@ABU1@@Z
_TEXT	SEGMENT
__Val$ = 8						; size = 4
??$addressof@$$CBURINGMONSTER_DATA@@@std@@YAPBURINGMONSTER_DATA@@ABU1@@Z PROC ; std::addressof<RINGMONSTER_DATA const >, COMDAT

; 696  : 	{	// return address of _Val

  00000	55		 push	 ebp
  00001	8b ec		 mov	 ebp, esp

; 697  : 	return (_Addressof(_Val, is_function<_Ty>()));

  00003	8b 45 08	 mov	 eax, DWORD PTR __Val$[ebp]

; 698  : 	}

  00006	5d		 pop	 ebp
  00007	c3		 ret	 0
??$addressof@$$CBURINGMONSTER_DATA@@@std@@YAPBURINGMONSTER_DATA@@ABU1@@Z ENDP ; std::addressof<RINGMONSTER_DATA const >
_TEXT	ENDS
; Function compile flags: /Ogtp
; File c:\program files (x86)\microsoft visual studio 14.0\vc\include\xutility
;	COMDAT ??$_Move@PAURINGMONSTER_DATA@@PAU1@@std@@YAPAURINGMONSTER_DATA@@PAU1@00@Z
_TEXT	SEGMENT
__First$ = 8						; size = 4
__Last$ = 12						; size = 4
__Dest$ = 16						; size = 4
??$_Move@PAURINGMONSTER_DATA@@PAU1@@std@@YAPAURINGMONSTER_DATA@@PAU1@00@Z PROC ; std::_Move<RINGMONSTER_DATA *,RINGMONSTER_DATA *>, COMDAT

; 2537 : 	{	// move [_First, _Last) to [_Dest, ...), unchecked

  00000	55		 push	 ebp
  00001	8b ec		 mov	 ebp, esp

; 2538 : 	return (_Move(_First, _Last,

  00003	8b 4d 08	 mov	 ecx, DWORD PTR __First$[ebp]
  00006	8b 45 10	 mov	 eax, DWORD PTR __Dest$[ebp]
  00009	56		 push	 esi

; 2517 : 	for (; _First != _Last; ++_Dest, (void)++_First)

  0000a	8b 75 0c	 mov	 esi, DWORD PTR __Last$[ebp]
  0000d	3b ce		 cmp	 ecx, esi
  0000f	74 18		 je	 SHORT $LN7@Move
$LL8@Move:

; 2518 : 		*_Dest = _STD move(*_First);

  00011	f3 0f 7e 01	 movq	 xmm0, QWORD PTR [ecx]
  00015	66 0f d6 00	 movq	 QWORD PTR [eax], xmm0
  00019	8b 51 08	 mov	 edx, DWORD PTR [ecx+8]
  0001c	83 c1 0c	 add	 ecx, 12			; 0000000cH
  0001f	89 50 08	 mov	 DWORD PTR [eax+8], edx
  00022	83 c0 0c	 add	 eax, 12			; 0000000cH
  00025	3b ce		 cmp	 ecx, esi
  00027	75 e8		 jne	 SHORT $LL8@Move
$LN7@Move:
  00029	5e		 pop	 esi

; 2539 : 		_Dest, _Ptr_cat(_First, _Dest)));
; 2540 : 	}

  0002a	5d		 pop	 ebp
  0002b	c3		 ret	 0
??$_Move@PAURINGMONSTER_DATA@@PAU1@@std@@YAPAURINGMONSTER_DATA@@PAU1@00@Z ENDP ; std::_Move<RINGMONSTER_DATA *,RINGMONSTER_DATA *>
_TEXT	ENDS
; Function compile flags: /Ogtp
; File c:\program files (x86)\microsoft visual studio 14.0\vc\include\xmemory0
;	COMDAT ??$construct@URINGMONSTER_EVENT_TIME@@ABU1@@?$_Wrap_alloc@V?$allocator@URINGMONSTER_EVENT_TIME@@@std@@@std@@QAEXPAURINGMONSTER_EVENT_TIME@@ABU2@@Z
_TEXT	SEGMENT
__Ptr$ = 8						; size = 4
_<_Args_0>$ = 12					; size = 4
??$construct@URINGMONSTER_EVENT_TIME@@ABU1@@?$_Wrap_alloc@V?$allocator@URINGMONSTER_EVENT_TIME@@@std@@@std@@QAEXPAURINGMONSTER_EVENT_TIME@@ABU2@@Z PROC ; std::_Wrap_alloc<std::allocator<RINGMONSTER_EVENT_TIME> >::construct<RINGMONSTER_EVENT_TIME,RINGMONSTER_EVENT_TIME const &>, COMDAT
; _this$ = ecx

; 916  : 		{	// construct _Ty(_Types...) at _Ptr

  00000	55		 push	 ebp
  00001	8b ec		 mov	 ebp, esp

; 655  : 		::new ((void *)_Ptr) _Objty(_STD forward<_Types>(_Args)...);

  00003	8b 55 08	 mov	 edx, DWORD PTR __Ptr$[ebp]
  00006	85 d2		 test	 edx, edx
  00008	74 0d		 je	 SHORT $LN13@construct
  0000a	8b 4d 0c	 mov	 ecx, DWORD PTR _<_Args_0>$[ebp]
  0000d	8b 01		 mov	 eax, DWORD PTR [ecx]
  0000f	89 02		 mov	 DWORD PTR [edx], eax
  00011	8b 41 04	 mov	 eax, DWORD PTR [ecx+4]
  00014	89 42 04	 mov	 DWORD PTR [edx+4], eax
$LN13@construct:

; 917  : 		_Mytraits::construct(*this, _Ptr,
; 918  : 			_STD forward<_Types>(_Args)...);
; 919  : 		}

  00017	5d		 pop	 ebp
  00018	c2 08 00	 ret	 8
??$construct@URINGMONSTER_EVENT_TIME@@ABU1@@?$_Wrap_alloc@V?$allocator@URINGMONSTER_EVENT_TIME@@@std@@@std@@QAEXPAURINGMONSTER_EVENT_TIME@@ABU2@@Z ENDP ; std::_Wrap_alloc<std::allocator<RINGMONSTER_EVENT_TIME> >::construct<RINGMONSTER_EVENT_TIME,RINGMONSTER_EVENT_TIME const &>
_TEXT	ENDS
; Function compile flags: /Ogtp
; File c:\program files (x86)\microsoft visual studio 14.0\vc\include\xmemory0
;	COMDAT ??$construct@URINGMONSTER_EVENT_TIME@@AAU1@@?$_Wrap_alloc@V?$allocator@URINGMONSTER_EVENT_TIME@@@std@@@std@@QAEXPAURINGMONSTER_EVENT_TIME@@AAU2@@Z
_TEXT	SEGMENT
__Ptr$ = 8						; size = 4
_<_Args_0>$ = 12					; size = 4
??$construct@URINGMONSTER_EVENT_TIME@@AAU1@@?$_Wrap_alloc@V?$allocator@URINGMONSTER_EVENT_TIME@@@std@@@std@@QAEXPAURINGMONSTER_EVENT_TIME@@AAU2@@Z PROC ; std::_Wrap_alloc<std::allocator<RINGMONSTER_EVENT_TIME> >::construct<RINGMONSTER_EVENT_TIME,RINGMONSTER_EVENT_TIME &>, COMDAT
; _this$ = ecx

; 916  : 		{	// construct _Ty(_Types...) at _Ptr

  00000	55		 push	 ebp
  00001	8b ec		 mov	 ebp, esp

; 655  : 		::new ((void *)_Ptr) _Objty(_STD forward<_Types>(_Args)...);

  00003	8b 55 08	 mov	 edx, DWORD PTR __Ptr$[ebp]
  00006	85 d2		 test	 edx, edx
  00008	74 0d		 je	 SHORT $LN13@construct
  0000a	8b 4d 0c	 mov	 ecx, DWORD PTR _<_Args_0>$[ebp]
  0000d	8b 01		 mov	 eax, DWORD PTR [ecx]
  0000f	89 02		 mov	 DWORD PTR [edx], eax
  00011	8b 41 04	 mov	 eax, DWORD PTR [ecx+4]
  00014	89 42 04	 mov	 DWORD PTR [edx+4], eax
$LN13@construct:

; 917  : 		_Mytraits::construct(*this, _Ptr,
; 918  : 			_STD forward<_Types>(_Args)...);
; 919  : 		}

  00017	5d		 pop	 ebp
  00018	c2 08 00	 ret	 8
??$construct@URINGMONSTER_EVENT_TIME@@AAU1@@?$_Wrap_alloc@V?$allocator@URINGMONSTER_EVENT_TIME@@@std@@@std@@QAEXPAURINGMONSTER_EVENT_TIME@@AAU2@@Z ENDP ; std::_Wrap_alloc<std::allocator<RINGMONSTER_EVENT_TIME> >::construct<RINGMONSTER_EVENT_TIME,RINGMONSTER_EVENT_TIME &>
_TEXT	ENDS
; Function compile flags: /Ogtp
; File c:\program files (x86)\microsoft visual studio 14.0\vc\include\xstddef
;	COMDAT ??$addressof@$$CBURINGMONSTER_EVENT_TIME@@@std@@YAPBURINGMONSTER_EVENT_TIME@@ABU1@@Z
_TEXT	SEGMENT
__Val$ = 8						; size = 4
??$addressof@$$CBURINGMONSTER_EVENT_TIME@@@std@@YAPBURINGMONSTER_EVENT_TIME@@ABU1@@Z PROC ; std::addressof<RINGMONSTER_EVENT_TIME const >, COMDAT

; 696  : 	{	// return address of _Val

  00000	55		 push	 ebp
  00001	8b ec		 mov	 ebp, esp

; 697  : 	return (_Addressof(_Val, is_function<_Ty>()));

  00003	8b 45 08	 mov	 eax, DWORD PTR __Val$[ebp]

; 698  : 	}

  00006	5d		 pop	 ebp
  00007	c3		 ret	 0
??$addressof@$$CBURINGMONSTER_EVENT_TIME@@@std@@YAPBURINGMONSTER_EVENT_TIME@@ABU1@@Z ENDP ; std::addressof<RINGMONSTER_EVENT_TIME const >
_TEXT	ENDS
; Function compile flags: /Ogtp
; File c:\program files (x86)\microsoft visual studio 14.0\vc\include\xutility
;	COMDAT ??$_Move@PAURINGMONSTER_EVENT_TIME@@PAU1@@std@@YAPAURINGMONSTER_EVENT_TIME@@PAU1@00@Z
_TEXT	SEGMENT
__First$ = 8						; size = 4
__Last$ = 12						; size = 4
__Dest$ = 16						; size = 4
??$_Move@PAURINGMONSTER_EVENT_TIME@@PAU1@@std@@YAPAURINGMONSTER_EVENT_TIME@@PAU1@00@Z PROC ; std::_Move<RINGMONSTER_EVENT_TIME *,RINGMONSTER_EVENT_TIME *>, COMDAT

; 2537 : 	{	// move [_First, _Last) to [_Dest, ...), unchecked

  00000	55		 push	 ebp
  00001	8b ec		 mov	 ebp, esp

; 2538 : 	return (_Move(_First, _Last,

  00003	8b 4d 08	 mov	 ecx, DWORD PTR __First$[ebp]
  00006	8b 45 10	 mov	 eax, DWORD PTR __Dest$[ebp]
  00009	56		 push	 esi

; 2517 : 	for (; _First != _Last; ++_Dest, (void)++_First)

  0000a	8b 75 0c	 mov	 esi, DWORD PTR __Last$[ebp]
  0000d	3b ce		 cmp	 ecx, esi
  0000f	74 14		 je	 SHORT $LN7@Move
$LL8@Move:

; 2518 : 		*_Dest = _STD move(*_First);

  00011	8b 11		 mov	 edx, DWORD PTR [ecx]
  00013	89 10		 mov	 DWORD PTR [eax], edx
  00015	8b 51 04	 mov	 edx, DWORD PTR [ecx+4]
  00018	83 c1 08	 add	 ecx, 8
  0001b	89 50 04	 mov	 DWORD PTR [eax+4], edx
  0001e	83 c0 08	 add	 eax, 8
  00021	3b ce		 cmp	 ecx, esi
  00023	75 ec		 jne	 SHORT $LL8@Move
$LN7@Move:
  00025	5e		 pop	 esi

; 2539 : 		_Dest, _Ptr_cat(_First, _Dest)));
; 2540 : 	}

  00026	5d		 pop	 ebp
  00027	c3		 ret	 0
??$_Move@PAURINGMONSTER_EVENT_TIME@@PAU1@@std@@YAPAURINGMONSTER_EVENT_TIME@@PAU1@00@Z ENDP ; std::_Move<RINGMONSTER_EVENT_TIME *,RINGMONSTER_EVENT_TIME *>
_TEXT	ENDS
; Function compile flags: /Ogtp
; File c:\program files (x86)\microsoft visual studio 14.0\vc\include\vector
;	COMDAT ??E?$_Vector_iterator@V?$_Vector_val@U?$_Simple_types@URINGMONSTER_EVENT_TIME@@@std@@@std@@@std@@QAE?AV01@H@Z
_TEXT	SEGMENT
___$ReturnUdt$ = 8					; size = 4
___formal$ = 12						; size = 4
??E?$_Vector_iterator@V?$_Vector_val@U?$_Simple_types@URINGMONSTER_EVENT_TIME@@@std@@@std@@@std@@QAE?AV01@H@Z PROC ; std::_Vector_iterator<std::_Vector_val<std::_Simple_types<RINGMONSTER_EVENT_TIME> > >::operator++, COMDAT
; _this$ = ecx

; 340  : 		{	// postincrement

  00000	55		 push	 ebp
  00001	8b ec		 mov	 ebp, esp

; 341  : 		_Myiter _Tmp = *this;

  00003	8b 45 08	 mov	 eax, DWORD PTR ___$ReturnUdt$[ebp]
  00006	8b 11		 mov	 edx, DWORD PTR [ecx]
  00008	89 10		 mov	 DWORD PTR [eax], edx

; 112  : 		++this->_Ptr;

  0000a	83 c2 08	 add	 edx, 8
  0000d	89 11		 mov	 DWORD PTR [ecx], edx

; 342  : 		++*this;
; 343  : 		return (_Tmp);
; 344  : 		}

  0000f	5d		 pop	 ebp
  00010	c2 08 00	 ret	 8
??E?$_Vector_iterator@V?$_Vector_val@U?$_Simple_types@URINGMONSTER_EVENT_TIME@@@std@@@std@@@std@@QAE?AV01@H@Z ENDP ; std::_Vector_iterator<std::_Vector_val<std::_Simple_types<RINGMONSTER_EVENT_TIME> > >::operator++
_TEXT	ENDS
; Function compile flags: /Ogtp
; File c:\program files (x86)\microsoft visual studio 14.0\vc\include\vector
;	COMDAT ??E?$_Vector_iterator@V?$_Vector_val@U?$_Simple_types@URINGMONSTER_EVENT_TIME@@@std@@@std@@@std@@QAEAAV01@XZ
_TEXT	SEGMENT
??E?$_Vector_iterator@V?$_Vector_val@U?$_Simple_types@URINGMONSTER_EVENT_TIME@@@std@@@std@@@std@@QAEAAV01@XZ PROC ; std::_Vector_iterator<std::_Vector_val<std::_Simple_types<RINGMONSTER_EVENT_TIME> > >::operator++, COMDAT
; _this$ = ecx

; 112  : 		++this->_Ptr;

  00000	83 01 08	 add	 DWORD PTR [ecx], 8

; 335  : 		++*(_Mybase *)this;
; 336  : 		return (*this);

  00003	8b c1		 mov	 eax, ecx

; 337  : 		}

  00005	c3		 ret	 0
??E?$_Vector_iterator@V?$_Vector_val@U?$_Simple_types@URINGMONSTER_EVENT_TIME@@@std@@@std@@@std@@QAEAAV01@XZ ENDP ; std::_Vector_iterator<std::_Vector_val<std::_Simple_types<RINGMONSTER_EVENT_TIME> > >::operator++
_TEXT	ENDS
; Function compile flags: /Ogtp
; File c:\program files (x86)\microsoft visual studio 14.0\vc\include\vector
;	COMDAT ??D?$_Vector_iterator@V?$_Vector_val@U?$_Simple_types@URINGMONSTER_EVENT_TIME@@@std@@@std@@@std@@QBEAAURINGMONSTER_EVENT_TIME@@XZ
_TEXT	SEGMENT
??D?$_Vector_iterator@V?$_Vector_val@U?$_Simple_types@URINGMONSTER_EVENT_TIME@@@std@@@std@@@std@@QBEAAURINGMONSTER_EVENT_TIME@@XZ PROC ; std::_Vector_iterator<std::_Vector_val<std::_Simple_types<RINGMONSTER_EVENT_TIME> > >::operator*, COMDAT
; _this$ = ecx

; 325  : 		return ((reference)**(_Mybase *)this);

  00000	8b 01		 mov	 eax, DWORD PTR [ecx]

; 326  : 		}

  00002	c3		 ret	 0
??D?$_Vector_iterator@V?$_Vector_val@U?$_Simple_types@URINGMONSTER_EVENT_TIME@@@std@@@std@@@std@@QBEAAURINGMONSTER_EVENT_TIME@@XZ ENDP ; std::_Vector_iterator<std::_Vector_val<std::_Simple_types<RINGMONSTER_EVENT_TIME> > >::operator*
_TEXT	ENDS
; Function compile flags: /Ogtp
; File c:\program files (x86)\microsoft visual studio 14.0\vc\include\vector
;	COMDAT ??0?$_Vector_iterator@V?$_Vector_val@U?$_Simple_types@URINGMONSTER_EVENT_TIME@@@std@@@std@@@std@@QAE@PAURINGMONSTER_EVENT_TIME@@PBU_Container_base0@1@@Z
_TEXT	SEGMENT
__Parg$ = 8						; size = 4
__Pvector$ = 12						; size = 4
??0?$_Vector_iterator@V?$_Vector_val@U?$_Simple_types@URINGMONSTER_EVENT_TIME@@@std@@@std@@@std@@QAE@PAURINGMONSTER_EVENT_TIME@@PBU_Container_base0@1@@Z PROC ; std::_Vector_iterator<std::_Vector_val<std::_Simple_types<RINGMONSTER_EVENT_TIME> > >::_Vector_iterator<std::_Vector_val<std::_Simple_types<RINGMONSTER_EVENT_TIME> > >, COMDAT
; _this$ = ecx

; 307  : 		{	// construct with pointer _Parg

  00000	55		 push	 ebp
  00001	8b ec		 mov	 ebp, esp

; 46   : 		: _Ptr(_Parg)

  00003	8b 45 08	 mov	 eax, DWORD PTR __Parg$[ebp]
  00006	89 01		 mov	 DWORD PTR [ecx], eax

; 308  : 		}

  00008	8b c1		 mov	 eax, ecx
  0000a	5d		 pop	 ebp
  0000b	c2 08 00	 ret	 8
??0?$_Vector_iterator@V?$_Vector_val@U?$_Simple_types@URINGMONSTER_EVENT_TIME@@@std@@@std@@@std@@QAE@PAURINGMONSTER_EVENT_TIME@@PBU_Container_base0@1@@Z ENDP ; std::_Vector_iterator<std::_Vector_val<std::_Simple_types<RINGMONSTER_EVENT_TIME> > >::_Vector_iterator<std::_Vector_val<std::_Simple_types<RINGMONSTER_EVENT_TIME> > >
_TEXT	ENDS
; Function compile flags: /Ogtp
; File c:\program files (x86)\microsoft visual studio 14.0\vc\include\vector
;	COMDAT ?_Compat@?$_Vector_const_iterator@V?$_Vector_val@U?$_Simple_types@URINGMONSTER_EVENT_TIME@@@std@@@std@@@std@@QBEXABV12@@Z
_TEXT	SEGMENT
___formal$ = 8						; size = 4
?_Compat@?$_Vector_const_iterator@V?$_Vector_val@U?$_Simple_types@URINGMONSTER_EVENT_TIME@@@std@@@std@@@std@@QBEXABV12@@Z PROC ; std::_Vector_const_iterator<std::_Vector_val<std::_Simple_types<RINGMONSTER_EVENT_TIME> > >::_Compat, COMDAT
; _this$ = ecx

; 256  : 		}

  00000	c2 04 00	 ret	 4
?_Compat@?$_Vector_const_iterator@V?$_Vector_val@U?$_Simple_types@URINGMONSTER_EVENT_TIME@@@std@@@std@@@std@@QBEXABV12@@Z ENDP ; std::_Vector_const_iterator<std::_Vector_val<std::_Simple_types<RINGMONSTER_EVENT_TIME> > >::_Compat
_TEXT	ENDS
; Function compile flags: /Ogtp
; File c:\program files (x86)\microsoft visual studio 14.0\vc\include\vector
;	COMDAT ??9?$_Vector_const_iterator@V?$_Vector_val@U?$_Simple_types@URINGMONSTER_EVENT_TIME@@@std@@@std@@@std@@QBE_NABV01@@Z
_TEXT	SEGMENT
__Right$ = 8						; size = 4
??9?$_Vector_const_iterator@V?$_Vector_val@U?$_Simple_types@URINGMONSTER_EVENT_TIME@@@std@@@std@@@std@@QBE_NABV01@@Z PROC ; std::_Vector_const_iterator<std::_Vector_val<std::_Simple_types<RINGMONSTER_EVENT_TIME> > >::operator!=, COMDAT
; _this$ = ecx

; 210  : 		{	// test for iterator inequality

  00000	55		 push	 ebp
  00001	8b ec		 mov	 ebp, esp

; 206  : 		return (this->_Ptr == _Right._Ptr);

  00003	8b 11		 mov	 edx, DWORD PTR [ecx]

; 211  : 		return (!(*this == _Right));

  00005	33 c0		 xor	 eax, eax

; 206  : 		return (this->_Ptr == _Right._Ptr);

  00007	8b 4d 08	 mov	 ecx, DWORD PTR __Right$[ebp]
  0000a	3b 11		 cmp	 edx, DWORD PTR [ecx]

; 211  : 		return (!(*this == _Right));

  0000c	0f 95 c0	 setne	 al

; 212  : 		}

  0000f	5d		 pop	 ebp
  00010	c2 04 00	 ret	 4
??9?$_Vector_const_iterator@V?$_Vector_val@U?$_Simple_types@URINGMONSTER_EVENT_TIME@@@std@@@std@@@std@@QBE_NABV01@@Z ENDP ; std::_Vector_const_iterator<std::_Vector_val<std::_Simple_types<RINGMONSTER_EVENT_TIME> > >::operator!=
_TEXT	ENDS
; Function compile flags: /Ogtp
; File c:\program files (x86)\microsoft visual studio 14.0\vc\include\vector
;	COMDAT ??8?$_Vector_const_iterator@V?$_Vector_val@U?$_Simple_types@URINGMONSTER_EVENT_TIME@@@std@@@std@@@std@@QBE_NABV01@@Z
_TEXT	SEGMENT
__Right$ = 8						; size = 4
??8?$_Vector_const_iterator@V?$_Vector_val@U?$_Simple_types@URINGMONSTER_EVENT_TIME@@@std@@@std@@@std@@QBE_NABV01@@Z PROC ; std::_Vector_const_iterator<std::_Vector_val<std::_Simple_types<RINGMONSTER_EVENT_TIME> > >::operator==, COMDAT
; _this$ = ecx

; 203  : 		{	// test for iterator equality

  00000	55		 push	 ebp
  00001	8b ec		 mov	 ebp, esp

; 204  : 		if (this->_Getcont() != _Right._Getcont())
; 205  : 			_Compat(_Right);
; 206  : 		return (this->_Ptr == _Right._Ptr);

  00003	8b 11		 mov	 edx, DWORD PTR [ecx]
  00005	33 c0		 xor	 eax, eax
  00007	8b 4d 08	 mov	 ecx, DWORD PTR __Right$[ebp]
  0000a	3b 11		 cmp	 edx, DWORD PTR [ecx]
  0000c	0f 94 c0	 sete	 al

; 207  : 		}

  0000f	5d		 pop	 ebp
  00010	c2 04 00	 ret	 4
??8?$_Vector_const_iterator@V?$_Vector_val@U?$_Simple_types@URINGMONSTER_EVENT_TIME@@@std@@@std@@@std@@QBE_NABV01@@Z ENDP ; std::_Vector_const_iterator<std::_Vector_val<std::_Simple_types<RINGMONSTER_EVENT_TIME> > >::operator==
_TEXT	ENDS
; Function compile flags: /Ogtp
; File c:\program files (x86)\microsoft visual studio 14.0\vc\include\vector
;	COMDAT ??E?$_Vector_const_iterator@V?$_Vector_val@U?$_Simple_types@URINGMONSTER_EVENT_TIME@@@std@@@std@@@std@@QAEAAV01@XZ
_TEXT	SEGMENT
??E?$_Vector_const_iterator@V?$_Vector_val@U?$_Simple_types@URINGMONSTER_EVENT_TIME@@@std@@@std@@@std@@QAEAAV01@XZ PROC ; std::_Vector_const_iterator<std::_Vector_val<std::_Simple_types<RINGMONSTER_EVENT_TIME> > >::operator++, COMDAT
; _this$ = ecx

; 96   :  #if _ITERATOR_DEBUG_LEVEL == 2
; 97   : 		if (this->_Getcont() == 0
; 98   : 			|| this->_Ptr == 0
; 99   : 			|| ((_Myvec *)this->_Getcont())->_Mylast <= this->_Ptr)
; 100  : 			{	// report error
; 101  : 			_DEBUG_ERROR("vector iterator not incrementable");
; 102  : 			_SCL_SECURE_OUT_OF_RANGE;
; 103  : 			}
; 104  : 
; 105  :  #elif _ITERATOR_DEBUG_LEVEL == 1
; 106  : 		_SCL_SECURE_VALIDATE(this->_Getcont() != 0);
; 107  : 		_SCL_SECURE_VALIDATE_RANGE(
; 108  : 			this->_Ptr != _Tptr()
; 109  : 			&& this->_Ptr < ((_Myvec *)this->_Getcont())->_Mylast);
; 110  :  #endif /* _ITERATOR_DEBUG_LEVEL */
; 111  : 
; 112  : 		++this->_Ptr;

  00000	83 01 08	 add	 DWORD PTR [ecx], 8

; 113  : 		return (*this);

  00003	8b c1		 mov	 eax, ecx

; 114  : 		}

  00005	c3		 ret	 0
??E?$_Vector_const_iterator@V?$_Vector_val@U?$_Simple_types@URINGMONSTER_EVENT_TIME@@@std@@@std@@@std@@QAEAAV01@XZ ENDP ; std::_Vector_const_iterator<std::_Vector_val<std::_Simple_types<RINGMONSTER_EVENT_TIME> > >::operator++
_TEXT	ENDS
; Function compile flags: /Ogtp
; File c:\program files (x86)\microsoft visual studio 14.0\vc\include\vector
;	COMDAT ??D?$_Vector_const_iterator@V?$_Vector_val@U?$_Simple_types@URINGMONSTER_EVENT_TIME@@@std@@@std@@@std@@QBEABURINGMONSTER_EVENT_TIME@@XZ
_TEXT	SEGMENT
??D?$_Vector_const_iterator@V?$_Vector_val@U?$_Simple_types@URINGMONSTER_EVENT_TIME@@@std@@@std@@@std@@QBEABURINGMONSTER_EVENT_TIME@@XZ PROC ; std::_Vector_const_iterator<std::_Vector_val<std::_Simple_types<RINGMONSTER_EVENT_TIME> > >::operator*, COMDAT
; _this$ = ecx

; 66   :  #if _ITERATOR_DEBUG_LEVEL == 2
; 67   : 		if (this->_Getcont() == 0
; 68   : 			|| this->_Ptr == 0
; 69   : 			|| this->_Ptr < ((_Myvec *)this->_Getcont())->_Myfirst
; 70   : 			|| ((_Myvec *)this->_Getcont())->_Mylast <= this->_Ptr)
; 71   : 			{	// report error
; 72   : 			_DEBUG_ERROR("vector iterator not dereferencable");
; 73   : 			_SCL_SECURE_OUT_OF_RANGE;
; 74   : 			}
; 75   : 
; 76   :  #elif _ITERATOR_DEBUG_LEVEL == 1
; 77   : 		_SCL_SECURE_VALIDATE(this->_Getcont() != 0);
; 78   : 		_SCL_SECURE_VALIDATE_RANGE(
; 79   : 			this->_Ptr != _Tptr()
; 80   : 			&& ((_Myvec *)this->_Getcont())->_Myfirst <= this->_Ptr
; 81   : 			&& this->_Ptr < ((_Myvec *)this->_Getcont())->_Mylast);
; 82   :  #endif /* _ITERATOR_DEBUG_LEVEL */
; 83   : 
; 84   : 		_Analysis_assume_(this->_Ptr != _Tptr());
; 85   : 
; 86   : 		return (*this->_Ptr);

  00000	8b 01		 mov	 eax, DWORD PTR [ecx]

; 87   : 		}

  00002	c3		 ret	 0
??D?$_Vector_const_iterator@V?$_Vector_val@U?$_Simple_types@URINGMONSTER_EVENT_TIME@@@std@@@std@@@std@@QBEABURINGMONSTER_EVENT_TIME@@XZ ENDP ; std::_Vector_const_iterator<std::_Vector_val<std::_Simple_types<RINGMONSTER_EVENT_TIME> > >::operator*
_TEXT	ENDS
; Function compile flags: /Ogtp
; File c:\program files (x86)\microsoft visual studio 14.0\vc\include\vector
;	COMDAT ??0?$_Vector_const_iterator@V?$_Vector_val@U?$_Simple_types@URINGMONSTER_EVENT_TIME@@@std@@@std@@@std@@QAE@PAURINGMONSTER_EVENT_TIME@@PBU_Container_base0@1@@Z
_TEXT	SEGMENT
__Parg$ = 8						; size = 4
__Pvector$ = 12						; size = 4
??0?$_Vector_const_iterator@V?$_Vector_val@U?$_Simple_types@URINGMONSTER_EVENT_TIME@@@std@@@std@@@std@@QAE@PAURINGMONSTER_EVENT_TIME@@PBU_Container_base0@1@@Z PROC ; std::_Vector_const_iterator<std::_Vector_val<std::_Simple_types<RINGMONSTER_EVENT_TIME> > >::_Vector_const_iterator<std::_Vector_val<std::_Simple_types<RINGMONSTER_EVENT_TIME> > >, COMDAT
; _this$ = ecx

; 47   : 		{	// construct with pointer _Parg

  00000	55		 push	 ebp
  00001	8b ec		 mov	 ebp, esp

; 46   : 		: _Ptr(_Parg)

  00003	8b 45 08	 mov	 eax, DWORD PTR __Parg$[ebp]
  00006	89 01		 mov	 DWORD PTR [ecx], eax

; 48   : 		this->_Adopt(_Pvector);
; 49   : 		}

  00008	8b c1		 mov	 eax, ecx
  0000a	5d		 pop	 ebp
  0000b	c2 08 00	 ret	 8
??0?$_Vector_const_iterator@V?$_Vector_val@U?$_Simple_types@URINGMONSTER_EVENT_TIME@@@std@@@std@@@std@@QAE@PAURINGMONSTER_EVENT_TIME@@PBU_Container_base0@1@@Z ENDP ; std::_Vector_const_iterator<std::_Vector_val<std::_Simple_types<RINGMONSTER_EVENT_TIME> > >::_Vector_const_iterator<std::_Vector_val<std::_Simple_types<RINGMONSTER_EVENT_TIME> > >
_TEXT	ENDS
; Function compile flags: /Ogtp
; File c:\program files (x86)\microsoft visual studio 14.0\vc\include\vector
;	COMDAT ??E?$_Vector_iterator@V?$_Vector_val@U?$_Simple_types@URINGMONSTER_DATA@@@std@@@std@@@std@@QAE?AV01@H@Z
_TEXT	SEGMENT
___$ReturnUdt$ = 8					; size = 4
___formal$ = 12						; size = 4
??E?$_Vector_iterator@V?$_Vector_val@U?$_Simple_types@URINGMONSTER_DATA@@@std@@@std@@@std@@QAE?AV01@H@Z PROC ; std::_Vector_iterator<std::_Vector_val<std::_Simple_types<RINGMONSTER_DATA> > >::operator++, COMDAT
; _this$ = ecx

; 340  : 		{	// postincrement

  00000	55		 push	 ebp
  00001	8b ec		 mov	 ebp, esp

; 341  : 		_Myiter _Tmp = *this;

  00003	8b 45 08	 mov	 eax, DWORD PTR ___$ReturnUdt$[ebp]
  00006	8b 11		 mov	 edx, DWORD PTR [ecx]
  00008	89 10		 mov	 DWORD PTR [eax], edx

; 112  : 		++this->_Ptr;

  0000a	83 c2 0c	 add	 edx, 12			; 0000000cH
  0000d	89 11		 mov	 DWORD PTR [ecx], edx

; 342  : 		++*this;
; 343  : 		return (_Tmp);
; 344  : 		}

  0000f	5d		 pop	 ebp
  00010	c2 08 00	 ret	 8
??E?$_Vector_iterator@V?$_Vector_val@U?$_Simple_types@URINGMONSTER_DATA@@@std@@@std@@@std@@QAE?AV01@H@Z ENDP ; std::_Vector_iterator<std::_Vector_val<std::_Simple_types<RINGMONSTER_DATA> > >::operator++
_TEXT	ENDS
; Function compile flags: /Ogtp
; File c:\program files (x86)\microsoft visual studio 14.0\vc\include\vector
;	COMDAT ??E?$_Vector_iterator@V?$_Vector_val@U?$_Simple_types@URINGMONSTER_DATA@@@std@@@std@@@std@@QAEAAV01@XZ
_TEXT	SEGMENT
??E?$_Vector_iterator@V?$_Vector_val@U?$_Simple_types@URINGMONSTER_DATA@@@std@@@std@@@std@@QAEAAV01@XZ PROC ; std::_Vector_iterator<std::_Vector_val<std::_Simple_types<RINGMONSTER_DATA> > >::operator++, COMDAT
; _this$ = ecx

; 112  : 		++this->_Ptr;

  00000	83 01 0c	 add	 DWORD PTR [ecx], 12	; 0000000cH

; 335  : 		++*(_Mybase *)this;
; 336  : 		return (*this);

  00003	8b c1		 mov	 eax, ecx

; 337  : 		}

  00005	c3		 ret	 0
??E?$_Vector_iterator@V?$_Vector_val@U?$_Simple_types@URINGMONSTER_DATA@@@std@@@std@@@std@@QAEAAV01@XZ ENDP ; std::_Vector_iterator<std::_Vector_val<std::_Simple_types<RINGMONSTER_DATA> > >::operator++
_TEXT	ENDS
; Function compile flags: /Ogtp
; File c:\program files (x86)\microsoft visual studio 14.0\vc\include\vector
;	COMDAT ??D?$_Vector_iterator@V?$_Vector_val@U?$_Simple_types@URINGMONSTER_DATA@@@std@@@std@@@std@@QBEAAURINGMONSTER_DATA@@XZ
_TEXT	SEGMENT
??D?$_Vector_iterator@V?$_Vector_val@U?$_Simple_types@URINGMONSTER_DATA@@@std@@@std@@@std@@QBEAAURINGMONSTER_DATA@@XZ PROC ; std::_Vector_iterator<std::_Vector_val<std::_Simple_types<RINGMONSTER_DATA> > >::operator*, COMDAT
; _this$ = ecx

; 325  : 		return ((reference)**(_Mybase *)this);

  00000	8b 01		 mov	 eax, DWORD PTR [ecx]

; 326  : 		}

  00002	c3		 ret	 0
??D?$_Vector_iterator@V?$_Vector_val@U?$_Simple_types@URINGMONSTER_DATA@@@std@@@std@@@std@@QBEAAURINGMONSTER_DATA@@XZ ENDP ; std::_Vector_iterator<std::_Vector_val<std::_Simple_types<RINGMONSTER_DATA> > >::operator*
_TEXT	ENDS
; Function compile flags: /Ogtp
; File c:\program files (x86)\microsoft visual studio 14.0\vc\include\vector
;	COMDAT ??0?$_Vector_iterator@V?$_Vector_val@U?$_Simple_types@URINGMONSTER_DATA@@@std@@@std@@@std@@QAE@PAURINGMONSTER_DATA@@PBU_Container_base0@1@@Z
_TEXT	SEGMENT
__Parg$ = 8						; size = 4
__Pvector$ = 12						; size = 4
??0?$_Vector_iterator@V?$_Vector_val@U?$_Simple_types@URINGMONSTER_DATA@@@std@@@std@@@std@@QAE@PAURINGMONSTER_DATA@@PBU_Container_base0@1@@Z PROC ; std::_Vector_iterator<std::_Vector_val<std::_Simple_types<RINGMONSTER_DATA> > >::_Vector_iterator<std::_Vector_val<std::_Simple_types<RINGMONSTER_DATA> > >, COMDAT
; _this$ = ecx

; 307  : 		{	// construct with pointer _Parg

  00000	55		 push	 ebp
  00001	8b ec		 mov	 ebp, esp

; 46   : 		: _Ptr(_Parg)

  00003	8b 45 08	 mov	 eax, DWORD PTR __Parg$[ebp]
  00006	89 01		 mov	 DWORD PTR [ecx], eax

; 308  : 		}

  00008	8b c1		 mov	 eax, ecx
  0000a	5d		 pop	 ebp
  0000b	c2 08 00	 ret	 8
??0?$_Vector_iterator@V?$_Vector_val@U?$_Simple_types@URINGMONSTER_DATA@@@std@@@std@@@std@@QAE@PAURINGMONSTER_DATA@@PBU_Container_base0@1@@Z ENDP ; std::_Vector_iterator<std::_Vector_val<std::_Simple_types<RINGMONSTER_DATA> > >::_Vector_iterator<std::_Vector_val<std::_Simple_types<RINGMONSTER_DATA> > >
_TEXT	ENDS
; Function compile flags: /Ogtp
; File c:\program files (x86)\microsoft visual studio 14.0\vc\include\vector
;	COMDAT ?_Compat@?$_Vector_const_iterator@V?$_Vector_val@U?$_Simple_types@URINGMONSTER_DATA@@@std@@@std@@@std@@QBEXABV12@@Z
_TEXT	SEGMENT
___formal$ = 8						; size = 4
?_Compat@?$_Vector_const_iterator@V?$_Vector_val@U?$_Simple_types@URINGMONSTER_DATA@@@std@@@std@@@std@@QBEXABV12@@Z PROC ; std::_Vector_const_iterator<std::_Vector_val<std::_Simple_types<RINGMONSTER_DATA> > >::_Compat, COMDAT
; _this$ = ecx

; 256  : 		}

  00000	c2 04 00	 ret	 4
?_Compat@?$_Vector_const_iterator@V?$_Vector_val@U?$_Simple_types@URINGMONSTER_DATA@@@std@@@std@@@std@@QBEXABV12@@Z ENDP ; std::_Vector_const_iterator<std::_Vector_val<std::_Simple_types<RINGMONSTER_DATA> > >::_Compat
_TEXT	ENDS
; Function compile flags: /Ogtp
; File c:\program files (x86)\microsoft visual studio 14.0\vc\include\vector
;	COMDAT ??9?$_Vector_const_iterator@V?$_Vector_val@U?$_Simple_types@URINGMONSTER_DATA@@@std@@@std@@@std@@QBE_NABV01@@Z
_TEXT	SEGMENT
__Right$ = 8						; size = 4
??9?$_Vector_const_iterator@V?$_Vector_val@U?$_Simple_types@URINGMONSTER_DATA@@@std@@@std@@@std@@QBE_NABV01@@Z PROC ; std::_Vector_const_iterator<std::_Vector_val<std::_Simple_types<RINGMONSTER_DATA> > >::operator!=, COMDAT
; _this$ = ecx

; 210  : 		{	// test for iterator inequality

  00000	55		 push	 ebp
  00001	8b ec		 mov	 ebp, esp

; 206  : 		return (this->_Ptr == _Right._Ptr);

  00003	8b 11		 mov	 edx, DWORD PTR [ecx]

; 211  : 		return (!(*this == _Right));

  00005	33 c0		 xor	 eax, eax

; 206  : 		return (this->_Ptr == _Right._Ptr);

  00007	8b 4d 08	 mov	 ecx, DWORD PTR __Right$[ebp]
  0000a	3b 11		 cmp	 edx, DWORD PTR [ecx]

; 211  : 		return (!(*this == _Right));

  0000c	0f 95 c0	 setne	 al

; 212  : 		}

  0000f	5d		 pop	 ebp
  00010	c2 04 00	 ret	 4
??9?$_Vector_const_iterator@V?$_Vector_val@U?$_Simple_types@URINGMONSTER_DATA@@@std@@@std@@@std@@QBE_NABV01@@Z ENDP ; std::_Vector_const_iterator<std::_Vector_val<std::_Simple_types<RINGMONSTER_DATA> > >::operator!=
_TEXT	ENDS
; Function compile flags: /Ogtp
; File c:\program files (x86)\microsoft visual studio 14.0\vc\include\vector
;	COMDAT ??8?$_Vector_const_iterator@V?$_Vector_val@U?$_Simple_types@URINGMONSTER_DATA@@@std@@@std@@@std@@QBE_NABV01@@Z
_TEXT	SEGMENT
__Right$ = 8						; size = 4
??8?$_Vector_const_iterator@V?$_Vector_val@U?$_Simple_types@URINGMONSTER_DATA@@@std@@@std@@@std@@QBE_NABV01@@Z PROC ; std::_Vector_const_iterator<std::_Vector_val<std::_Simple_types<RINGMONSTER_DATA> > >::operator==, COMDAT
; _this$ = ecx

; 203  : 		{	// test for iterator equality

  00000	55		 push	 ebp
  00001	8b ec		 mov	 ebp, esp

; 204  : 		if (this->_Getcont() != _Right._Getcont())
; 205  : 			_Compat(_Right);
; 206  : 		return (this->_Ptr == _Right._Ptr);

  00003	8b 11		 mov	 edx, DWORD PTR [ecx]
  00005	33 c0		 xor	 eax, eax
  00007	8b 4d 08	 mov	 ecx, DWORD PTR __Right$[ebp]
  0000a	3b 11		 cmp	 edx, DWORD PTR [ecx]
  0000c	0f 94 c0	 sete	 al

; 207  : 		}

  0000f	5d		 pop	 ebp
  00010	c2 04 00	 ret	 4
??8?$_Vector_const_iterator@V?$_Vector_val@U?$_Simple_types@URINGMONSTER_DATA@@@std@@@std@@@std@@QBE_NABV01@@Z ENDP ; std::_Vector_const_iterator<std::_Vector_val<std::_Simple_types<RINGMONSTER_DATA> > >::operator==
_TEXT	ENDS
; Function compile flags: /Ogtp
; File c:\program files (x86)\microsoft visual studio 14.0\vc\include\vector
;	COMDAT ??E?$_Vector_const_iterator@V?$_Vector_val@U?$_Simple_types@URINGMONSTER_DATA@@@std@@@std@@@std@@QAEAAV01@XZ
_TEXT	SEGMENT
??E?$_Vector_const_iterator@V?$_Vector_val@U?$_Simple_types@URINGMONSTER_DATA@@@std@@@std@@@std@@QAEAAV01@XZ PROC ; std::_Vector_const_iterator<std::_Vector_val<std::_Simple_types<RINGMONSTER_DATA> > >::operator++, COMDAT
; _this$ = ecx

; 96   :  #if _ITERATOR_DEBUG_LEVEL == 2
; 97   : 		if (this->_Getcont() == 0
; 98   : 			|| this->_Ptr == 0
; 99   : 			|| ((_Myvec *)this->_Getcont())->_Mylast <= this->_Ptr)
; 100  : 			{	// report error
; 101  : 			_DEBUG_ERROR("vector iterator not incrementable");
; 102  : 			_SCL_SECURE_OUT_OF_RANGE;
; 103  : 			}
; 104  : 
; 105  :  #elif _ITERATOR_DEBUG_LEVEL == 1
; 106  : 		_SCL_SECURE_VALIDATE(this->_Getcont() != 0);
; 107  : 		_SCL_SECURE_VALIDATE_RANGE(
; 108  : 			this->_Ptr != _Tptr()
; 109  : 			&& this->_Ptr < ((_Myvec *)this->_Getcont())->_Mylast);
; 110  :  #endif /* _ITERATOR_DEBUG_LEVEL */
; 111  : 
; 112  : 		++this->_Ptr;

  00000	83 01 0c	 add	 DWORD PTR [ecx], 12	; 0000000cH

; 113  : 		return (*this);

  00003	8b c1		 mov	 eax, ecx

; 114  : 		}

  00005	c3		 ret	 0
??E?$_Vector_const_iterator@V?$_Vector_val@U?$_Simple_types@URINGMONSTER_DATA@@@std@@@std@@@std@@QAEAAV01@XZ ENDP ; std::_Vector_const_iterator<std::_Vector_val<std::_Simple_types<RINGMONSTER_DATA> > >::operator++
_TEXT	ENDS
; Function compile flags: /Ogtp
; File c:\program files (x86)\microsoft visual studio 14.0\vc\include\vector
;	COMDAT ??D?$_Vector_const_iterator@V?$_Vector_val@U?$_Simple_types@URINGMONSTER_DATA@@@std@@@std@@@std@@QBEABURINGMONSTER_DATA@@XZ
_TEXT	SEGMENT
??D?$_Vector_const_iterator@V?$_Vector_val@U?$_Simple_types@URINGMONSTER_DATA@@@std@@@std@@@std@@QBEABURINGMONSTER_DATA@@XZ PROC ; std::_Vector_const_iterator<std::_Vector_val<std::_Simple_types<RINGMONSTER_DATA> > >::operator*, COMDAT
; _this$ = ecx

; 66   :  #if _ITERATOR_DEBUG_LEVEL == 2
; 67   : 		if (this->_Getcont() == 0
; 68   : 			|| this->_Ptr == 0
; 69   : 			|| this->_Ptr < ((_Myvec *)this->_Getcont())->_Myfirst
; 70   : 			|| ((_Myvec *)this->_Getcont())->_Mylast <= this->_Ptr)
; 71   : 			{	// report error
; 72   : 			_DEBUG_ERROR("vector iterator not dereferencable");
; 73   : 			_SCL_SECURE_OUT_OF_RANGE;
; 74   : 			}
; 75   : 
; 76   :  #elif _ITERATOR_DEBUG_LEVEL == 1
; 77   : 		_SCL_SECURE_VALIDATE(this->_Getcont() != 0);
; 78   : 		_SCL_SECURE_VALIDATE_RANGE(
; 79   : 			this->_Ptr != _Tptr()
; 80   : 			&& ((_Myvec *)this->_Getcont())->_Myfirst <= this->_Ptr
; 81   : 			&& this->_Ptr < ((_Myvec *)this->_Getcont())->_Mylast);
; 82   :  #endif /* _ITERATOR_DEBUG_LEVEL */
; 83   : 
; 84   : 		_Analysis_assume_(this->_Ptr != _Tptr());
; 85   : 
; 86   : 		return (*this->_Ptr);

  00000	8b 01		 mov	 eax, DWORD PTR [ecx]

; 87   : 		}

  00002	c3		 ret	 0
??D?$_Vector_const_iterator@V?$_Vector_val@U?$_Simple_types@URINGMONSTER_DATA@@@std@@@std@@@std@@QBEABURINGMONSTER_DATA@@XZ ENDP ; std::_Vector_const_iterator<std::_Vector_val<std::_Simple_types<RINGMONSTER_DATA> > >::operator*
_TEXT	ENDS
; Function compile flags: /Ogtp
; File c:\program files (x86)\microsoft visual studio 14.0\vc\include\vector
;	COMDAT ??0?$_Vector_const_iterator@V?$_Vector_val@U?$_Simple_types@URINGMONSTER_DATA@@@std@@@std@@@std@@QAE@PAURINGMONSTER_DATA@@PBU_Container_base0@1@@Z
_TEXT	SEGMENT
__Parg$ = 8						; size = 4
__Pvector$ = 12						; size = 4
??0?$_Vector_const_iterator@V?$_Vector_val@U?$_Simple_types@URINGMONSTER_DATA@@@std@@@std@@@std@@QAE@PAURINGMONSTER_DATA@@PBU_Container_base0@1@@Z PROC ; std::_Vector_const_iterator<std::_Vector_val<std::_Simple_types<RINGMONSTER_DATA> > >::_Vector_const_iterator<std::_Vector_val<std::_Simple_types<RINGMONSTER_DATA> > >, COMDAT
; _this$ = ecx

; 47   : 		{	// construct with pointer _Parg

  00000	55		 push	 ebp
  00001	8b ec		 mov	 ebp, esp

; 46   : 		: _Ptr(_Parg)

  00003	8b 45 08	 mov	 eax, DWORD PTR __Parg$[ebp]
  00006	89 01		 mov	 DWORD PTR [ecx], eax

; 48   : 		this->_Adopt(_Pvector);
; 49   : 		}

  00008	8b c1		 mov	 eax, ecx
  0000a	5d		 pop	 ebp
  0000b	c2 08 00	 ret	 8
??0?$_Vector_const_iterator@V?$_Vector_val@U?$_Simple_types@URINGMONSTER_DATA@@@std@@@std@@@std@@QAE@PAURINGMONSTER_DATA@@PBU_Container_base0@1@@Z ENDP ; std::_Vector_const_iterator<std::_Vector_val<std::_Simple_types<RINGMONSTER_DATA> > >::_Vector_const_iterator<std::_Vector_val<std::_Simple_types<RINGMONSTER_DATA> > >
_TEXT	ENDS
; Function compile flags: /Ogtp
; File c:\users\michel\desktop\source\gameserver\include\readscript.h
;	COMDAT ?GetToken@@YA?AW4SMDToken@@XZ
_TEXT	SEGMENT
_TempString$ = -104					; size = 100
__$ArrayPad$ = -4					; size = 4
?GetToken@@YA?AW4SMDToken@@XZ PROC			; GetToken, COMDAT

; 24   : {

  00000	55		 push	 ebp
  00001	8b ec		 mov	 ebp, esp
  00003	83 ec 68	 sub	 esp, 104		; 00000068H
  00006	a1 00 00 00 00	 mov	 eax, DWORD PTR ___security_cookie
  0000b	33 c5		 xor	 eax, ebp
  0000d	89 45 fc	 mov	 DWORD PTR __$ArrayPad$[ebp], eax

; 25   : 	int ch;
; 26   : 	char* p;
; 27   : 	char TempString[100];
; 28   : 
; 29   : 	TokenString[0]=0;

  00010	c6 05 00 00 00
	00 00		 mov	 BYTE PTR ?TokenString@@3PADA, 0
  00017	53		 push	 ebx
  00018	0f 1f 84 00 00
	00 00 00	 npad	 8
$LL4@GetToken:

; 30   : 
; 31   : 	do
; 32   : 	{
; 33   : 		if ((ch=fgetc(SMDFile)) == -1)

  00020	ff 35 00 00 00
	00		 push	 DWORD PTR ?SMDFile@@3PAU_iobuf@@A
  00026	e8 00 00 00 00	 call	 _fgetc
  0002b	8b d8		 mov	 ebx, eax
  0002d	83 c4 04	 add	 esp, 4
  00030	83 fb ff	 cmp	 ebx, -1
  00033	74 5d		 je	 SHORT $LN43@GetToken

; 34   : 		{
; 35   : 			return END;	// End of FILE (EOF)
; 36   : 		}
; 37   : 		else
; 38   : 		{	
; 39   : 			if (ch=='/')		// this is /

  00035	83 fb 2f	 cmp	 ebx, 47			; 0000002fH
  00038	75 30		 jne	 SHORT $LN2@GetToken

; 40   : 			{
; 41   : 				if((ch=fgetc(SMDFile)) == '/')

  0003a	ff 35 00 00 00
	00		 push	 DWORD PTR ?SMDFile@@3PAU_iobuf@@A
  00040	e8 00 00 00 00	 call	 _fgetc
  00045	8b d8		 mov	 ebx, eax
  00047	83 c4 04	 add	 esp, 4
  0004a	83 fb 2f	 cmp	 ebx, 47			; 0000002fH
  0004d	75 1b		 jne	 SHORT $LN2@GetToken
  0004f	90		 npad	 1
$LL5@GetToken:

; 42   : 				{
; 43   : 					while ((ch != '\n') && (ch != -1))	// End of Line (EOL)

  00050	83 fb ff	 cmp	 ebx, -1
  00053	74 3d		 je	 SHORT $LN43@GetToken

; 44   : 					{
; 45   : 						ch=fgetc(SMDFile);

  00055	ff 35 00 00 00
	00		 push	 DWORD PTR ?SMDFile@@3PAU_iobuf@@A
  0005b	e8 00 00 00 00	 call	 _fgetc
  00060	8b d8		 mov	 ebx, eax
  00062	83 c4 04	 add	 esp, 4
  00065	83 fb 0a	 cmp	 ebx, 10			; 0000000aH
  00068	75 e6		 jne	 SHORT $LL5@GetToken
$LN2@GetToken:

; 51   : 					}
; 52   : 				}
; 53   : 			}
; 54   : 		}
; 55   : 	}
; 56   : 	while (isspace(ch) != 0);

  0006a	53		 push	 ebx
  0006b	e8 00 00 00 00	 call	 _isspace
  00070	83 c4 04	 add	 esp, 4
  00073	85 c0		 test	 eax, eax
  00075	75 a9		 jne	 SHORT $LL4@GetToken

; 57   : 
; 58   : 	
; 59   : 	switch(ch)

  00077	8d 43 de	 lea	 eax, DWORD PTR [ebx-34]
  0007a	56		 push	 esi
  0007b	83 f8 5b	 cmp	 eax, 91			; 0000005bH
  0007e	0f 87 89 01 00
	00		 ja	 $LN29@GetToken
  00084	0f b6 80 00 00
	00 00		 movzx	 eax, BYTE PTR $LN58@GetToken[eax]
  0008b	ff 24 85 00 00
	00 00		 jmp	 DWORD PTR $LN64@GetToken[eax*4]
$LN43@GetToken:

; 46   : 					}
; 47   : 	
; 48   : 					if (ch == -1)
; 49   : 					{
; 50   : 						return END;	// End of FILE

  00092	b8 02 00 00 00	 mov	 eax, 2
  00097	5b		 pop	 ebx

; 143  : 		}
; 144  : 		else
; 145  : 		{
; 146  : 			return CurrentToken = SMD_ERROR; // '<'
; 147  : 		}
; 148  : 		break;
; 149  : 
; 150  : 	}
; 151  : 
; 152  : 	return NAME;
; 153  : }

  00098	8b 4d fc	 mov	 ecx, DWORD PTR __$ArrayPad$[ebp]
  0009b	33 cd		 xor	 ecx, ebp
  0009d	e8 00 00 00 00	 call	 @__security_check_cookie@4
  000a2	8b e5		 mov	 esp, ebp
  000a4	5d		 pop	 ebp
  000a5	c3		 ret	 0
$LN20@GetToken:
  000a6	5e		 pop	 esi

; 60   : 	{
; 61   : 
; 62   : 	case 0x23:	// #
; 63   : 		return CurrentToken=COMMAND;

  000a7	c7 05 00 00 00
	00 23 00 00 00	 mov	 DWORD PTR ?CurrentToken@@3W4SMDToken@@A, 35 ; 00000023H
  000b1	b8 23 00 00 00	 mov	 eax, 35			; 00000023H
  000b6	5b		 pop	 ebx

; 143  : 		}
; 144  : 		else
; 145  : 		{
; 146  : 			return CurrentToken = SMD_ERROR; // '<'
; 147  : 		}
; 148  : 		break;
; 149  : 
; 150  : 	}
; 151  : 
; 152  : 	return NAME;
; 153  : }

  000b7	8b 4d fc	 mov	 ecx, DWORD PTR __$ArrayPad$[ebp]
  000ba	33 cd		 xor	 ecx, ebp
  000bc	e8 00 00 00 00	 call	 @__security_check_cookie@4
  000c1	8b e5		 mov	 esp, ebp
  000c3	5d		 pop	 ebp
  000c4	c3		 ret	 0
$LN21@GetToken:
  000c5	5e		 pop	 esi

; 64   : 		break;
; 65   : 	
; 66   : 	case 0x3B:	// ;
; 67   : 		return CurrentToken=SEMICOLON;

  000c6	c7 05 00 00 00
	00 3b 00 00 00	 mov	 DWORD PTR ?CurrentToken@@3W4SMDToken@@A, 59 ; 0000003bH
  000d0	b8 3b 00 00 00	 mov	 eax, 59			; 0000003bH
  000d5	5b		 pop	 ebx

; 143  : 		}
; 144  : 		else
; 145  : 		{
; 146  : 			return CurrentToken = SMD_ERROR; // '<'
; 147  : 		}
; 148  : 		break;
; 149  : 
; 150  : 	}
; 151  : 
; 152  : 	return NAME;
; 153  : }

  000d6	8b 4d fc	 mov	 ecx, DWORD PTR __$ArrayPad$[ebp]
  000d9	33 cd		 xor	 ecx, ebp
  000db	e8 00 00 00 00	 call	 @__security_check_cookie@4
  000e0	8b e5		 mov	 esp, ebp
  000e2	5d		 pop	 ebp
  000e3	c3		 ret	 0
$LN22@GetToken:
  000e4	5e		 pop	 esi

; 68   : 		break;
; 69   : 	
; 70   : 	case 0x2C:	// ,
; 71   : 
; 72   : 		return CurrentToken=COMMA;

  000e5	c7 05 00 00 00
	00 2c 00 00 00	 mov	 DWORD PTR ?CurrentToken@@3W4SMDToken@@A, 44 ; 0000002cH
  000ef	b8 2c 00 00 00	 mov	 eax, 44			; 0000002cH
  000f4	5b		 pop	 ebx

; 143  : 		}
; 144  : 		else
; 145  : 		{
; 146  : 			return CurrentToken = SMD_ERROR; // '<'
; 147  : 		}
; 148  : 		break;
; 149  : 
; 150  : 	}
; 151  : 
; 152  : 	return NAME;
; 153  : }

  000f5	8b 4d fc	 mov	 ecx, DWORD PTR __$ArrayPad$[ebp]
  000f8	33 cd		 xor	 ecx, ebp
  000fa	e8 00 00 00 00	 call	 @__security_check_cookie@4
  000ff	8b e5		 mov	 esp, ebp
  00101	5d		 pop	 ebp
  00102	c3		 ret	 0
$LN23@GetToken:
  00103	5e		 pop	 esi

; 73   : 		break;
; 74   : 	
; 75   : 	case 0x7B:	// {
; 76   : 		return CurrentToken = LP;

  00104	c7 05 00 00 00
	00 7b 00 00 00	 mov	 DWORD PTR ?CurrentToken@@3W4SMDToken@@A, 123 ; 0000007bH
  0010e	b8 7b 00 00 00	 mov	 eax, 123		; 0000007bH
  00113	5b		 pop	 ebx

; 143  : 		}
; 144  : 		else
; 145  : 		{
; 146  : 			return CurrentToken = SMD_ERROR; // '<'
; 147  : 		}
; 148  : 		break;
; 149  : 
; 150  : 	}
; 151  : 
; 152  : 	return NAME;
; 153  : }

  00114	8b 4d fc	 mov	 ecx, DWORD PTR __$ArrayPad$[ebp]
  00117	33 cd		 xor	 ecx, ebp
  00119	e8 00 00 00 00	 call	 @__security_check_cookie@4
  0011e	8b e5		 mov	 esp, ebp
  00120	5d		 pop	 ebp
  00121	c3		 ret	 0
$LN24@GetToken:
  00122	5e		 pop	 esi

; 77   : 		break;
; 78   : 
; 79   : 	case 0x7D:	// }
; 80   : 		return CurrentToken = RP;

  00123	c7 05 00 00 00
	00 7d 00 00 00	 mov	 DWORD PTR ?CurrentToken@@3W4SMDToken@@A, 125 ; 0000007dH
  0012d	b8 7d 00 00 00	 mov	 eax, 125		; 0000007dH
  00132	5b		 pop	 ebx

; 143  : 		}
; 144  : 		else
; 145  : 		{
; 146  : 			return CurrentToken = SMD_ERROR; // '<'
; 147  : 		}
; 148  : 		break;
; 149  : 
; 150  : 	}
; 151  : 
; 152  : 	return NAME;
; 153  : }

  00133	8b 4d fc	 mov	 ecx, DWORD PTR __$ArrayPad$[ebp]
  00136	33 cd		 xor	 ecx, ebp
  00138	e8 00 00 00 00	 call	 @__security_check_cookie@4
  0013d	8b e5		 mov	 esp, ebp
  0013f	5d		 pop	 ebp
  00140	c3		 ret	 0
$LN25@GetToken:

; 81   : 		break;
; 82   : 	// Nice Index Table :)	by Deathway
; 83   : 	// Numbers Case
; 84   : 	case 0x2D:	//-
; 85   : 	case 0x2E:	//.
; 86   : 	case '0':	//0
; 87   : 	case '1':	//1
; 88   : 	case '2':	//2
; 89   : 	case '3':	//3
; 90   : 	case '4':	//4		
; 91   : 	case '5':	//5
; 92   : 	case '6':	//6
; 93   : 	case '7':	//7
; 94   : 	case '8':	//8
; 95   : 	case '9':	//9
; 96   : 		ungetc(ch, SMDFile);

  00141	ff 35 00 00 00
	00		 push	 DWORD PTR ?SMDFile@@3PAU_iobuf@@A
  00147	53		 push	 ebx
  00148	e8 00 00 00 00	 call	 _ungetc

; 97   : 		p = TempString;
; 98   : 		
; 99   : 		while (((ch=getc(SMDFile)) != -1) && ((ch == 0x2E) || (isdigit(ch) != 0) || (ch == 0x2D)))  // 2e '.'  2D '-'

  0014d	ff 35 00 00 00
	00		 push	 DWORD PTR ?SMDFile@@3PAU_iobuf@@A
  00153	8d 75 98	 lea	 esi, DWORD PTR _TempString$[ebp]
  00156	e8 00 00 00 00	 call	 _getc
  0015b	8b d8		 mov	 ebx, eax
  0015d	83 c4 0c	 add	 esp, 12			; 0000000cH
  00160	83 fb ff	 cmp	 ebx, -1
  00163	74 2f		 je	 SHORT $LN59@GetToken
$LL9@GetToken:
  00165	83 fb 2e	 cmp	 ebx, 46			; 0000002eH
  00168	74 12		 je	 SHORT $LN26@GetToken
  0016a	53		 push	 ebx
  0016b	e8 00 00 00 00	 call	 _isdigit
  00170	83 c4 04	 add	 esp, 4
  00173	85 c0		 test	 eax, eax
  00175	75 05		 jne	 SHORT $LN26@GetToken
  00177	83 fb 2d	 cmp	 ebx, 45			; 0000002dH
  0017a	75 18		 jne	 SHORT $LN59@GetToken
$LN26@GetToken:
  0017c	ff 35 00 00 00
	00		 push	 DWORD PTR ?SMDFile@@3PAU_iobuf@@A

; 100  : 		{
; 101  : 			*p = ch;	// Construct a String

  00182	88 1e		 mov	 BYTE PTR [esi], bl

; 102  : 			p++;

  00184	46		 inc	 esi
  00185	e8 00 00 00 00	 call	 _getc
  0018a	8b d8		 mov	 ebx, eax
  0018c	83 c4 04	 add	 esp, 4
  0018f	83 fb ff	 cmp	 ebx, -1
  00192	75 d1		 jne	 SHORT $LL9@GetToken
$LN59@GetToken:

; 103  : 		}		
; 104  : 		*p = 0;
; 105  : 		TokenNumber = (float)atof( TempString);	// Select the first Byte as Main ID

  00194	8d 45 98	 lea	 eax, DWORD PTR _TempString$[ebp]
  00197	c6 06 00	 mov	 BYTE PTR [esi], 0
  0019a	50		 push	 eax
  0019b	e8 00 00 00 00	 call	 _atof
  001a0	83 c4 04	 add	 esp, 4

; 106  : 		return CurrentToken  = NUMBER ;

  001a3	c7 05 00 00 00
	00 01 00 00 00	 mov	 DWORD PTR ?CurrentToken@@3W4SMDToken@@A, 1
  001ad	d9 1d 00 00 00
	00		 fstp	 DWORD PTR ?TokenNumber@@3MA
  001b3	b8 01 00 00 00	 mov	 eax, 1
  001b8	5e		 pop	 esi
  001b9	5b		 pop	 ebx

; 143  : 		}
; 144  : 		else
; 145  : 		{
; 146  : 			return CurrentToken = SMD_ERROR; // '<'
; 147  : 		}
; 148  : 		break;
; 149  : 
; 150  : 	}
; 151  : 
; 152  : 	return NAME;
; 153  : }

  001ba	8b 4d fc	 mov	 ecx, DWORD PTR __$ArrayPad$[ebp]
  001bd	33 cd		 xor	 ecx, ebp
  001bf	e8 00 00 00 00	 call	 @__security_check_cookie@4
  001c4	8b e5		 mov	 esp, ebp
  001c6	5d		 pop	 ebp
  001c7	c3		 ret	 0
$LN27@GetToken:

; 107  : 		break;
; 108  : 
; 109  : 	case '\"':	// "	String Case
; 110  : 		p=&TokenString[0];
; 111  : 		
; 112  : 		while (((ch=getc(SMDFile)) != -1 ) && (ch != 0x22))	// nice

  001c8	ff 35 00 00 00
	00		 push	 DWORD PTR ?SMDFile@@3PAU_iobuf@@A
  001ce	be 00 00 00 00	 mov	 esi, OFFSET ?TokenString@@3PADA
  001d3	e8 00 00 00 00	 call	 _getc
  001d8	83 c4 04	 add	 esp, 4
  001db	83 f8 ff	 cmp	 eax, -1
  001de	74 1f		 je	 SHORT $LN12@GetToken
$LL11@GetToken:
  001e0	83 f8 22	 cmp	 eax, 34			; 00000022H
  001e3	0f 84 95 00 00
	00		 je	 $LN28@GetToken
  001e9	ff 35 00 00 00
	00		 push	 DWORD PTR ?SMDFile@@3PAU_iobuf@@A

; 113  : 		{
; 114  : 			*p = ch;

  001ef	88 06		 mov	 BYTE PTR [esi], al

; 115  : 			p++;

  001f1	46		 inc	 esi
  001f2	e8 00 00 00 00	 call	 _getc
  001f7	83 c4 04	 add	 esp, 4
  001fa	83 f8 ff	 cmp	 eax, -1
  001fd	75 e1		 jne	 SHORT $LL11@GetToken
$LN12@GetToken:

; 116  : 		}
; 117  : 		if (ch != 0x22 )

  001ff	83 f8 22	 cmp	 eax, 34			; 00000022H
  00202	74 7a		 je	 SHORT $LN28@GetToken

; 118  : 		{
; 119  : 			ungetc(ch, SMDFile);

  00204	ff 35 00 00 00
	00		 push	 DWORD PTR ?SMDFile@@3PAU_iobuf@@A
  0020a	50		 push	 eax

; 120  : 		}
; 121  : 		*p = 0;
; 122  : 		return CurrentToken = NAME;

  0020b	eb 69		 jmp	 SHORT $LN62@GetToken
$LN29@GetToken:

; 123  : 		break;
; 124  : 
; 125  : 	default:	// Others
; 126  : 		if (isalpha(ch))

  0020d	53		 push	 ebx
  0020e	e8 00 00 00 00	 call	 _isalpha
  00213	83 c4 04	 add	 esp, 4
  00216	85 c0		 test	 eax, eax
  00218	0f 84 7f 00 00
	00		 je	 $LN30@GetToken

; 127  : 		{
; 128  : 			p=&TokenString[0];
; 129  : 			*p=ch;
; 130  : 			p++;
; 131  : 
; 132  : 			while ( ((ch=getc(SMDFile)) != -1) && ( (ch == 0x2E) || (ch == 0x5F) || (isalnum(ch) != 0) ) )

  0021e	ff 35 00 00 00
	00		 push	 DWORD PTR ?SMDFile@@3PAU_iobuf@@A
  00224	88 1d 00 00 00
	00		 mov	 BYTE PTR ?TokenString@@3PADA, bl
  0022a	be 01 00 00 00	 mov	 esi, OFFSET ?TokenString@@3PADA+1
  0022f	e8 00 00 00 00	 call	 _getc
  00234	8b d8		 mov	 ebx, eax
  00236	83 c4 04	 add	 esp, 4
  00239	83 fb ff	 cmp	 ebx, -1
  0023c	74 31		 je	 SHORT $LN60@GetToken
  0023e	66 90		 npad	 2
$LL13@GetToken:
  00240	83 fb 2e	 cmp	 ebx, 46			; 0000002eH
  00243	74 12		 je	 SHORT $LN32@GetToken
  00245	83 fb 5f	 cmp	 ebx, 95			; 0000005fH
  00248	74 0d		 je	 SHORT $LN32@GetToken
  0024a	53		 push	 ebx
  0024b	e8 00 00 00 00	 call	 _isalnum
  00250	83 c4 04	 add	 esp, 4
  00253	85 c0		 test	 eax, eax
  00255	74 18		 je	 SHORT $LN60@GetToken
$LN32@GetToken:
  00257	ff 35 00 00 00
	00		 push	 DWORD PTR ?SMDFile@@3PAU_iobuf@@A

; 133  : 			{
; 134  : 				*p=ch;

  0025d	88 1e		 mov	 BYTE PTR [esi], bl

; 135  : 				p++;

  0025f	46		 inc	 esi
  00260	e8 00 00 00 00	 call	 _getc
  00265	8b d8		 mov	 ebx, eax
  00267	83 c4 04	 add	 esp, 4
  0026a	83 fb ff	 cmp	 ebx, -1
  0026d	75 d1		 jne	 SHORT $LL13@GetToken
$LN60@GetToken:

; 136  : 				
; 137  : 			}
; 138  : 
; 139  : 			ungetc(ch, SMDFile);

  0026f	ff 35 00 00 00
	00		 push	 DWORD PTR ?SMDFile@@3PAU_iobuf@@A
  00275	53		 push	 ebx
$LN62@GetToken:
  00276	e8 00 00 00 00	 call	 _ungetc
  0027b	83 c4 08	 add	 esp, 8
$LN28@GetToken:

; 140  : 			*p=0;

  0027e	c6 06 00	 mov	 BYTE PTR [esi], 0

; 141  : 			CurrentToken=NAME;
; 142  : 			return CurrentToken;

  00281	33 c0		 xor	 eax, eax
  00283	5e		 pop	 esi
  00284	c7 05 00 00 00
	00 00 00 00 00	 mov	 DWORD PTR ?CurrentToken@@3W4SMDToken@@A, 0
  0028e	5b		 pop	 ebx

; 143  : 		}
; 144  : 		else
; 145  : 		{
; 146  : 			return CurrentToken = SMD_ERROR; // '<'
; 147  : 		}
; 148  : 		break;
; 149  : 
; 150  : 	}
; 151  : 
; 152  : 	return NAME;
; 153  : }

  0028f	8b 4d fc	 mov	 ecx, DWORD PTR __$ArrayPad$[ebp]
  00292	33 cd		 xor	 ecx, ebp
  00294	e8 00 00 00 00	 call	 @__security_check_cookie@4
  00299	8b e5		 mov	 esp, ebp
  0029b	5d		 pop	 ebp
  0029c	c3		 ret	 0
$LN30@GetToken:
  0029d	8b 4d fc	 mov	 ecx, DWORD PTR __$ArrayPad$[ebp]
  002a0	b8 3c 00 00 00	 mov	 eax, 60			; 0000003cH
  002a5	5e		 pop	 esi
  002a6	33 cd		 xor	 ecx, ebp
  002a8	c7 05 00 00 00
	00 3c 00 00 00	 mov	 DWORD PTR ?CurrentToken@@3W4SMDToken@@A, 60 ; 0000003cH
  002b2	5b		 pop	 ebx
  002b3	e8 00 00 00 00	 call	 @__security_check_cookie@4
  002b8	8b e5		 mov	 esp, ebp
  002ba	5d		 pop	 ebp
  002bb	c3		 ret	 0
$LN64@GetToken:
  002bc	00 00 00 00	 DD	 $LN27@GetToken
  002c0	00 00 00 00	 DD	 $LN20@GetToken
  002c4	00 00 00 00	 DD	 $LN22@GetToken
  002c8	00 00 00 00	 DD	 $LN25@GetToken
  002cc	00 00 00 00	 DD	 $LN21@GetToken
  002d0	00 00 00 00	 DD	 $LN23@GetToken
  002d4	00 00 00 00	 DD	 $LN24@GetToken
  002d8	00 00 00 00	 DD	 $LN29@GetToken
$LN58@GetToken:
  002dc	00		 DB	 0
  002dd	01		 DB	 1
  002de	07		 DB	 7
  002df	07		 DB	 7
  002e0	07		 DB	 7
  002e1	07		 DB	 7
  002e2	07		 DB	 7
  002e3	07		 DB	 7
  002e4	07		 DB	 7
  002e5	07		 DB	 7
  002e6	02		 DB	 2
  002e7	03		 DB	 3
  002e8	03		 DB	 3
  002e9	07		 DB	 7
  002ea	03		 DB	 3
  002eb	03		 DB	 3
  002ec	03		 DB	 3
  002ed	03		 DB	 3
  002ee	03		 DB	 3
  002ef	03		 DB	 3
  002f0	03		 DB	 3
  002f1	03		 DB	 3
  002f2	03		 DB	 3
  002f3	03		 DB	 3
  002f4	07		 DB	 7
  002f5	04		 DB	 4
  002f6	07		 DB	 7
  002f7	07		 DB	 7
  002f8	07		 DB	 7
  002f9	07		 DB	 7
  002fa	07		 DB	 7
  002fb	07		 DB	 7
  002fc	07		 DB	 7
  002fd	07		 DB	 7
  002fe	07		 DB	 7
  002ff	07		 DB	 7
  00300	07		 DB	 7
  00301	07		 DB	 7
  00302	07		 DB	 7
  00303	07		 DB	 7
  00304	07		 DB	 7
  00305	07		 DB	 7
  00306	07		 DB	 7
  00307	07		 DB	 7
  00308	07		 DB	 7
  00309	07		 DB	 7
  0030a	07		 DB	 7
  0030b	07		 DB	 7
  0030c	07		 DB	 7
  0030d	07		 DB	 7
  0030e	07		 DB	 7
  0030f	07		 DB	 7
  00310	07		 DB	 7
  00311	07		 DB	 7
  00312	07		 DB	 7
  00313	07		 DB	 7
  00314	07		 DB	 7
  00315	07		 DB	 7
  00316	07		 DB	 7
  00317	07		 DB	 7
  00318	07		 DB	 7
  00319	07		 DB	 7
  0031a	07		 DB	 7
  0031b	07		 DB	 7
  0031c	07		 DB	 7
  0031d	07		 DB	 7
  0031e	07		 DB	 7
  0031f	07		 DB	 7
  00320	07		 DB	 7
  00321	07		 DB	 7
  00322	07		 DB	 7
  00323	07		 DB	 7
  00324	07		 DB	 7
  00325	07		 DB	 7
  00326	07		 DB	 7
  00327	07		 DB	 7
  00328	07		 DB	 7
  00329	07		 DB	 7
  0032a	07		 DB	 7
  0032b	07		 DB	 7
  0032c	07		 DB	 7
  0032d	07		 DB	 7
  0032e	07		 DB	 7
  0032f	07		 DB	 7
  00330	07		 DB	 7
  00331	07		 DB	 7
  00332	07		 DB	 7
  00333	07		 DB	 7
  00334	07		 DB	 7
  00335	05		 DB	 5
  00336	07		 DB	 7
  00337	06		 DB	 6
?GetToken@@YA?AW4SMDToken@@XZ ENDP			; GetToken
_TEXT	ENDS
; Function compile flags: /Ogtp
;	COMDAT ??_GCRingAttackEvent@@UAEPAXI@Z
_TEXT	SEGMENT
___flags$ = 8						; size = 4
??_GCRingAttackEvent@@UAEPAXI@Z PROC			; CRingAttackEvent::`scalar deleting destructor', COMDAT
; _this$ = ecx
  00000	55		 push	 ebp
  00001	8b ec		 mov	 ebp, esp
  00003	56		 push	 esi
  00004	8b f1		 mov	 esi, ecx
  00006	e8 00 00 00 00	 call	 ??1CRingAttackEvent@@UAE@XZ ; CRingAttackEvent::~CRingAttackEvent
  0000b	f6 45 08 01	 test	 BYTE PTR ___flags$[ebp], 1
  0000f	74 0e		 je	 SHORT $LN4@scalar
  00011	68 38 01 00 00	 push	 312			; 00000138H
  00016	56		 push	 esi
  00017	e8 00 00 00 00	 call	 ??3@YAXPAXI@Z		; operator delete
  0001c	83 c4 08	 add	 esp, 8
$LN4@scalar:
  0001f	8b c6		 mov	 eax, esi
  00021	5e		 pop	 esi
  00022	5d		 pop	 ebp
  00023	c2 04 00	 ret	 4
??_GCRingAttackEvent@@UAEPAXI@Z ENDP			; CRingAttackEvent::`scalar deleting destructor'
_TEXT	ENDS
; Function compile flags: /Ogtp
; File c:\program files (x86)\microsoft visual studio 14.0\vc\include\vector
;	COMDAT ?_Orphan_range@?$vector@URINGMONSTER_EVENT_TIME@@V?$allocator@URINGMONSTER_EVENT_TIME@@@std@@@std@@IBEXPAURINGMONSTER_EVENT_TIME@@0@Z
_TEXT	SEGMENT
___formal$ = 8						; size = 4
___formal$ = 12						; size = 4
?_Orphan_range@?$vector@URINGMONSTER_EVENT_TIME@@V?$allocator@URINGMONSTER_EVENT_TIME@@@std@@@std@@IBEXPAURINGMONSTER_EVENT_TIME@@0@Z PROC ; std::vector<RINGMONSTER_EVENT_TIME,std::allocator<RINGMONSTER_EVENT_TIME> >::_Orphan_range, COMDAT
; _this$ = ecx

; 1813 : 		}

  00000	c2 08 00	 ret	 8
?_Orphan_range@?$vector@URINGMONSTER_EVENT_TIME@@V?$allocator@URINGMONSTER_EVENT_TIME@@@std@@@std@@IBEXPAURINGMONSTER_EVENT_TIME@@0@Z ENDP ; std::vector<RINGMONSTER_EVENT_TIME,std::allocator<RINGMONSTER_EVENT_TIME> >::_Orphan_range
_TEXT	ENDS
; Function compile flags: /Ogtp
; File c:\program files (x86)\microsoft visual studio 14.0\vc\include\vector
;	COMDAT ?_Xlen@?$vector@URINGMONSTER_EVENT_TIME@@V?$allocator@URINGMONSTER_EVENT_TIME@@@std@@@std@@IBEXXZ
_TEXT	SEGMENT
?_Xlen@?$vector@URINGMONSTER_EVENT_TIME@@V?$allocator@URINGMONSTER_EVENT_TIME@@@std@@@std@@IBEXXZ PROC ; std::vector<RINGMONSTER_EVENT_TIME,std::allocator<RINGMONSTER_EVENT_TIME> >::_Xlen, COMDAT
; _this$ = ecx

; 1784 : 		_Xlength_error("vector<T> too long");

  00000	68 00 00 00 00	 push	 OFFSET ??_C@_0BD@OLBABOEK@vector?$DMT?$DO?5too?5long?$AA@
  00005	e8 00 00 00 00	 call	 ?_Xlength_error@std@@YAXPBD@Z ; std::_Xlength_error
$LN4@Xlen:
$LN3@Xlen:
  0000a	cc		 int	 3
?_Xlen@?$vector@URINGMONSTER_EVENT_TIME@@V?$allocator@URINGMONSTER_EVENT_TIME@@@std@@@std@@IBEXXZ ENDP ; std::vector<RINGMONSTER_EVENT_TIME,std::allocator<RINGMONSTER_EVENT_TIME> >::_Xlen
_TEXT	ENDS
; Function compile flags: /Ogtp
; File c:\program files (x86)\microsoft visual studio 14.0\vc\include\vector
;	COMDAT ?_Tidy@?$vector@URINGMONSTER_EVENT_TIME@@V?$allocator@URINGMONSTER_EVENT_TIME@@@std@@@std@@IAEXXZ
_TEXT	SEGMENT
?_Tidy@?$vector@URINGMONSTER_EVENT_TIME@@V?$allocator@URINGMONSTER_EVENT_TIME@@@std@@@std@@IAEXXZ PROC ; std::vector<RINGMONSTER_EVENT_TIME,std::allocator<RINGMONSTER_EVENT_TIME> >::_Tidy, COMDAT
; _this$ = ecx

; 1655 : 		{	// free all storage

  00000	56		 push	 esi
  00001	8b f1		 mov	 esi, ecx

; 1656 : 		if (this->_Myfirst() != pointer())

  00003	8b 0e		 mov	 ecx, DWORD PTR [esi]
  00005	85 c9		 test	 ecx, ecx
  00007	74 25		 je	 SHORT $LN2@Tidy

; 1657 : 			{	// something to free, destroy and deallocate it
; 1658 : 			this->_Orphan_all();
; 1659 : 			_Destroy(this->_Myfirst(), this->_Mylast());
; 1660 : 			this->_Getal().deallocate(this->_Myfirst(),

  00009	8b 46 08	 mov	 eax, DWORD PTR [esi+8]
  0000c	2b c1		 sub	 eax, ecx
  0000e	c1 f8 03	 sar	 eax, 3
  00011	50		 push	 eax
  00012	51		 push	 ecx
  00013	8b ce		 mov	 ecx, esi
  00015	e8 00 00 00 00	 call	 ?deallocate@?$_Wrap_alloc@V?$allocator@URINGMONSTER_EVENT_TIME@@@std@@@std@@QAEXPAURINGMONSTER_EVENT_TIME@@I@Z ; std::_Wrap_alloc<std::allocator<RINGMONSTER_EVENT_TIME> >::deallocate

; 1661 : 				this->_Myend() - this->_Myfirst());
; 1662 : 			this->_Myfirst() = pointer();

  0001a	c7 06 00 00 00
	00		 mov	 DWORD PTR [esi], 0

; 1663 : 			this->_Mylast() = pointer();

  00020	c7 46 04 00 00
	00 00		 mov	 DWORD PTR [esi+4], 0

; 1664 : 			this->_Myend() = pointer();

  00027	c7 46 08 00 00
	00 00		 mov	 DWORD PTR [esi+8], 0
$LN2@Tidy:
  0002e	5e		 pop	 esi

; 1665 : 			}
; 1666 : 		}

  0002f	c3		 ret	 0
?_Tidy@?$vector@URINGMONSTER_EVENT_TIME@@V?$allocator@URINGMONSTER_EVENT_TIME@@@std@@@std@@IAEXXZ ENDP ; std::vector<RINGMONSTER_EVENT_TIME,std::allocator<RINGMONSTER_EVENT_TIME> >::_Tidy
_TEXT	ENDS
; Function compile flags: /Ogtp
; File c:\program files (x86)\microsoft visual studio 14.0\vc\include\vector
;	COMDAT ?_Reserve@?$vector@URINGMONSTER_EVENT_TIME@@V?$allocator@URINGMONSTER_EVENT_TIME@@@std@@@std@@IAEXI@Z
_TEXT	SEGMENT
__Count$ = 8						; size = 4
?_Reserve@?$vector@URINGMONSTER_EVENT_TIME@@V?$allocator@URINGMONSTER_EVENT_TIME@@@std@@@std@@IAEXI@Z PROC ; std::vector<RINGMONSTER_EVENT_TIME,std::allocator<RINGMONSTER_EVENT_TIME> >::_Reserve, COMDAT
; _this$ = ecx

; 1645 : 		{	// ensure room for _Count new elements, grow exponentially

  00000	55		 push	 ebp
  00001	8b ec		 mov	 ebp, esp
  00003	56		 push	 esi
  00004	8b f1		 mov	 esi, ecx

; 1646 : 		if (_Unused_capacity() < _Count)

  00006	8b 4d 08	 mov	 ecx, DWORD PTR __Count$[ebp]
  00009	57		 push	 edi

; 1043 : 		}
; 1044 : 
; 1045 : 	size_type _Unused_capacity() const _NOEXCEPT
; 1046 : 		{	// micro-optimization for capacity() - size()
; 1047 : 		return (this->_Myend() - this->_Mylast());

  0000a	8b 7e 08	 mov	 edi, DWORD PTR [esi+8]
  0000d	8b c7		 mov	 eax, edi
  0000f	8b 56 04	 mov	 edx, DWORD PTR [esi+4]
  00012	2b c2		 sub	 eax, edx
  00014	c1 f8 03	 sar	 eax, 3

; 1646 : 		if (_Unused_capacity() < _Count)

  00017	3b c1		 cmp	 eax, ecx
  00019	73 3b		 jae	 SHORT $LN2@Reserve

; 1048 : 		}
; 1049 : 
; 1050 : 	size_type _Has_unused_capacity() const _NOEXCEPT
; 1051 : 		{	// micro-optimization for capacity() != size()
; 1052 : 		return (this->_Myend() != this->_Mylast());
; 1053 : 		}
; 1054 : 
; 1055 : 	iterator begin() _NOEXCEPT
; 1056 : 		{	// return iterator for beginning of mutable sequence
; 1057 : 		return (iterator(this->_Myfirst(), &this->_Get_data()));
; 1058 : 		}
; 1059 : 
; 1060 : 	const_iterator begin() const _NOEXCEPT
; 1061 : 		{	// return iterator for beginning of nonmutable sequence
; 1062 : 		return (const_iterator(this->_Myfirst(), &this->_Get_data()));
; 1063 : 		}
; 1064 : 
; 1065 : 	iterator end() _NOEXCEPT
; 1066 : 		{	// return iterator for end of mutable sequence
; 1067 : 		return (iterator(this->_Mylast(), &this->_Get_data()));
; 1068 : 		}
; 1069 : 
; 1070 : 	const_iterator end() const _NOEXCEPT
; 1071 : 		{	// return iterator for end of nonmutable sequence
; 1072 : 		return (const_iterator(this->_Mylast(), &this->_Get_data()));
; 1073 : 		}
; 1074 : 
; 1075 : 	iterator _Make_iter(const_iterator _Where) const
; 1076 : 		{	// make iterator from const_iterator
; 1077 : 		return (iterator(_Where._Ptr, &this->_Get_data()));
; 1078 : 		}
; 1079 : 
; 1080 : 	reverse_iterator rbegin() _NOEXCEPT
; 1081 : 		{	// return iterator for beginning of reversed mutable sequence
; 1082 : 		return (reverse_iterator(end()));
; 1083 : 		}
; 1084 : 
; 1085 : 	const_reverse_iterator rbegin() const _NOEXCEPT
; 1086 : 		{	// return iterator for beginning of reversed nonmutable sequence
; 1087 : 		return (const_reverse_iterator(end()));
; 1088 : 		}
; 1089 : 
; 1090 : 	reverse_iterator rend() _NOEXCEPT
; 1091 : 		{	// return iterator for end of reversed mutable sequence
; 1092 : 		return (reverse_iterator(begin()));
; 1093 : 		}
; 1094 : 
; 1095 : 	const_reverse_iterator rend() const _NOEXCEPT
; 1096 : 		{	// return iterator for end of reversed nonmutable sequence
; 1097 : 		return (const_reverse_iterator(begin()));
; 1098 : 		}
; 1099 : 
; 1100 : 	const_iterator cbegin() const _NOEXCEPT
; 1101 : 		{	// return iterator for beginning of nonmutable sequence
; 1102 : 		return (begin());
; 1103 : 		}
; 1104 : 
; 1105 : 	const_iterator cend() const _NOEXCEPT
; 1106 : 		{	// return iterator for end of nonmutable sequence
; 1107 : 		return (end());
; 1108 : 		}
; 1109 : 
; 1110 : 	const_reverse_iterator crbegin() const _NOEXCEPT
; 1111 : 		{	// return iterator for beginning of reversed nonmutable sequence
; 1112 : 		return (rbegin());
; 1113 : 		}
; 1114 : 
; 1115 : 	const_reverse_iterator crend() const _NOEXCEPT
; 1116 : 		{	// return iterator for end of reversed nonmutable sequence
; 1117 : 		return (rend());
; 1118 : 		}
; 1119 : 
; 1120 : 	void shrink_to_fit()
; 1121 : 		{	// reduce capacity
; 1122 : 		if (_Has_unused_capacity())
; 1123 : 			{	// worth shrinking, do it
; 1124 : 			if (empty())
; 1125 : 				_Tidy();
; 1126 : 			else
; 1127 : 				_Reallocate(size());
; 1128 : 			}
; 1129 : 		}
; 1130 : 
; 1131 : 	void resize(size_type _Newsize)
; 1132 : 		{	// determine new length, padding as needed
; 1133 : 		if (_Newsize < size())
; 1134 : 			_Pop_back_n(size() - _Newsize);
; 1135 : 		else if (size() < _Newsize)
; 1136 : 			{	// pad as needed
; 1137 : 			_Reserve(_Newsize - size());
; 1138 : 			_TRY_BEGIN
; 1139 : 			_Uninitialized_default_fill_n(this->_Mylast(), _Newsize - size(),
; 1140 : 				this->_Getal());
; 1141 : 			_CATCH_ALL
; 1142 : 			_Tidy();
; 1143 : 			_RERAISE;
; 1144 : 			_CATCH_END
; 1145 : 			this->_Mylast() += _Newsize - size();
; 1146 : 			}
; 1147 : 		}
; 1148 : 
; 1149 : 	void resize(size_type _Newsize, const value_type& _Val)
; 1150 : 		{	// determine new length, padding with _Val elements as needed
; 1151 : 		if (_Newsize < size())
; 1152 : 			_Pop_back_n(size() - _Newsize);
; 1153 : 		else if (size() < _Newsize)
; 1154 : 			{	// pad as needed
; 1155 : 			const value_type *_Ptr = _STD addressof(_Val);
; 1156 : 
; 1157 : 			if (_Inside(_Ptr))
; 1158 : 				{	// padding is inside vector, recompute _Ptr after reserve
; 1159 : 				const difference_type _Idx = _Ptr
; 1160 : 					- _STD addressof(*this->_Myfirst());
; 1161 : 				_Reserve(_Newsize - size());
; 1162 : 				_Ptr = _STD addressof(*this->_Myfirst()) + _Idx;
; 1163 : 				}
; 1164 : 			else
; 1165 : 				_Reserve(_Newsize - size());
; 1166 : 
; 1167 : 			_TRY_BEGIN
; 1168 : 			_Ufill(this->_Mylast(), _Newsize - size(), _Ptr);
; 1169 : 			_CATCH_ALL
; 1170 : 			_Tidy();
; 1171 : 			_RERAISE;
; 1172 : 			_CATCH_END
; 1173 : 			this->_Mylast() += _Newsize - size();
; 1174 : 			}
; 1175 : 		}
; 1176 : 
; 1177 : 	size_type size() const _NOEXCEPT
; 1178 : 		{	// return length of sequence
; 1179 : 		return (this->_Mylast() - this->_Myfirst());

  0001b	2b 16		 sub	 edx, DWORD PTR [esi]
  0001d	53		 push	 ebx

; 1647 : 			{	// need more room, try to get it
; 1648 : 			if (max_size() - size() < _Count)

  0001e	bb ff ff ff 1f	 mov	 ebx, 536870911		; 1fffffffH

; 1048 : 		}
; 1049 : 
; 1050 : 	size_type _Has_unused_capacity() const _NOEXCEPT
; 1051 : 		{	// micro-optimization for capacity() != size()
; 1052 : 		return (this->_Myend() != this->_Mylast());
; 1053 : 		}
; 1054 : 
; 1055 : 	iterator begin() _NOEXCEPT
; 1056 : 		{	// return iterator for beginning of mutable sequence
; 1057 : 		return (iterator(this->_Myfirst(), &this->_Get_data()));
; 1058 : 		}
; 1059 : 
; 1060 : 	const_iterator begin() const _NOEXCEPT
; 1061 : 		{	// return iterator for beginning of nonmutable sequence
; 1062 : 		return (const_iterator(this->_Myfirst(), &this->_Get_data()));
; 1063 : 		}
; 1064 : 
; 1065 : 	iterator end() _NOEXCEPT
; 1066 : 		{	// return iterator for end of mutable sequence
; 1067 : 		return (iterator(this->_Mylast(), &this->_Get_data()));
; 1068 : 		}
; 1069 : 
; 1070 : 	const_iterator end() const _NOEXCEPT
; 1071 : 		{	// return iterator for end of nonmutable sequence
; 1072 : 		return (const_iterator(this->_Mylast(), &this->_Get_data()));
; 1073 : 		}
; 1074 : 
; 1075 : 	iterator _Make_iter(const_iterator _Where) const
; 1076 : 		{	// make iterator from const_iterator
; 1077 : 		return (iterator(_Where._Ptr, &this->_Get_data()));
; 1078 : 		}
; 1079 : 
; 1080 : 	reverse_iterator rbegin() _NOEXCEPT
; 1081 : 		{	// return iterator for beginning of reversed mutable sequence
; 1082 : 		return (reverse_iterator(end()));
; 1083 : 		}
; 1084 : 
; 1085 : 	const_reverse_iterator rbegin() const _NOEXCEPT
; 1086 : 		{	// return iterator for beginning of reversed nonmutable sequence
; 1087 : 		return (const_reverse_iterator(end()));
; 1088 : 		}
; 1089 : 
; 1090 : 	reverse_iterator rend() _NOEXCEPT
; 1091 : 		{	// return iterator for end of reversed mutable sequence
; 1092 : 		return (reverse_iterator(begin()));
; 1093 : 		}
; 1094 : 
; 1095 : 	const_reverse_iterator rend() const _NOEXCEPT
; 1096 : 		{	// return iterator for end of reversed nonmutable sequence
; 1097 : 		return (const_reverse_iterator(begin()));
; 1098 : 		}
; 1099 : 
; 1100 : 	const_iterator cbegin() const _NOEXCEPT
; 1101 : 		{	// return iterator for beginning of nonmutable sequence
; 1102 : 		return (begin());
; 1103 : 		}
; 1104 : 
; 1105 : 	const_iterator cend() const _NOEXCEPT
; 1106 : 		{	// return iterator for end of nonmutable sequence
; 1107 : 		return (end());
; 1108 : 		}
; 1109 : 
; 1110 : 	const_reverse_iterator crbegin() const _NOEXCEPT
; 1111 : 		{	// return iterator for beginning of reversed nonmutable sequence
; 1112 : 		return (rbegin());
; 1113 : 		}
; 1114 : 
; 1115 : 	const_reverse_iterator crend() const _NOEXCEPT
; 1116 : 		{	// return iterator for end of reversed nonmutable sequence
; 1117 : 		return (rend());
; 1118 : 		}
; 1119 : 
; 1120 : 	void shrink_to_fit()
; 1121 : 		{	// reduce capacity
; 1122 : 		if (_Has_unused_capacity())
; 1123 : 			{	// worth shrinking, do it
; 1124 : 			if (empty())
; 1125 : 				_Tidy();
; 1126 : 			else
; 1127 : 				_Reallocate(size());
; 1128 : 			}
; 1129 : 		}
; 1130 : 
; 1131 : 	void resize(size_type _Newsize)
; 1132 : 		{	// determine new length, padding as needed
; 1133 : 		if (_Newsize < size())
; 1134 : 			_Pop_back_n(size() - _Newsize);
; 1135 : 		else if (size() < _Newsize)
; 1136 : 			{	// pad as needed
; 1137 : 			_Reserve(_Newsize - size());
; 1138 : 			_TRY_BEGIN
; 1139 : 			_Uninitialized_default_fill_n(this->_Mylast(), _Newsize - size(),
; 1140 : 				this->_Getal());
; 1141 : 			_CATCH_ALL
; 1142 : 			_Tidy();
; 1143 : 			_RERAISE;
; 1144 : 			_CATCH_END
; 1145 : 			this->_Mylast() += _Newsize - size();
; 1146 : 			}
; 1147 : 		}
; 1148 : 
; 1149 : 	void resize(size_type _Newsize, const value_type& _Val)
; 1150 : 		{	// determine new length, padding with _Val elements as needed
; 1151 : 		if (_Newsize < size())
; 1152 : 			_Pop_back_n(size() - _Newsize);
; 1153 : 		else if (size() < _Newsize)
; 1154 : 			{	// pad as needed
; 1155 : 			const value_type *_Ptr = _STD addressof(_Val);
; 1156 : 
; 1157 : 			if (_Inside(_Ptr))
; 1158 : 				{	// padding is inside vector, recompute _Ptr after reserve
; 1159 : 				const difference_type _Idx = _Ptr
; 1160 : 					- _STD addressof(*this->_Myfirst());
; 1161 : 				_Reserve(_Newsize - size());
; 1162 : 				_Ptr = _STD addressof(*this->_Myfirst()) + _Idx;
; 1163 : 				}
; 1164 : 			else
; 1165 : 				_Reserve(_Newsize - size());
; 1166 : 
; 1167 : 			_TRY_BEGIN
; 1168 : 			_Ufill(this->_Mylast(), _Newsize - size(), _Ptr);
; 1169 : 			_CATCH_ALL
; 1170 : 			_Tidy();
; 1171 : 			_RERAISE;
; 1172 : 			_CATCH_END
; 1173 : 			this->_Mylast() += _Newsize - size();
; 1174 : 			}
; 1175 : 		}
; 1176 : 
; 1177 : 	size_type size() const _NOEXCEPT
; 1178 : 		{	// return length of sequence
; 1179 : 		return (this->_Mylast() - this->_Myfirst());

  00023	c1 fa 03	 sar	 edx, 3

; 1647 : 			{	// need more room, try to get it
; 1648 : 			if (max_size() - size() < _Count)

  00026	8b c3		 mov	 eax, ebx
  00028	2b c2		 sub	 eax, edx
  0002a	3b c1		 cmp	 eax, ecx
  0002c	72 2e		 jb	 SHORT $LN134@Reserve

; 1042 : 		return (this->_Myend() - this->_Myfirst());

  0002e	2b 3e		 sub	 edi, DWORD PTR [esi]

; 1649 : 				_Xlen();
; 1650 : 			_Reallocate(_Grow_to(size() + _Count));

  00030	03 d1		 add	 edx, ecx

; 1042 : 		return (this->_Myend() - this->_Myfirst());

  00032	c1 ff 03	 sar	 edi, 3

; 1180 : 		}
; 1181 : 
; 1182 : 	size_type max_size() const _NOEXCEPT
; 1183 : 		{	// return maximum possible length of sequence
; 1184 : 		return (this->_Getal().max_size());
; 1185 : 		}
; 1186 : 
; 1187 : 	bool empty() const _NOEXCEPT
; 1188 : 		{	// test if sequence is empty
; 1189 : 		return (this->_Myfirst() == this->_Mylast());
; 1190 : 		}
; 1191 : 
; 1192 : 	_Alloc get_allocator() const _NOEXCEPT
; 1193 : 		{	// return allocator object for values
; 1194 : 		return (this->_Getal());
; 1195 : 		}
; 1196 : 
; 1197 : 	const_reference at(size_type _Pos) const
; 1198 : 		{	// subscript nonmutable sequence with checking
; 1199 : 		if (size() <= _Pos)
; 1200 : 			_Xran();
; 1201 : 		return (*(this->_Myfirst() + _Pos));
; 1202 : 		}
; 1203 : 
; 1204 : 	reference at(size_type _Pos)
; 1205 : 		{	// subscript mutable sequence with checking
; 1206 : 		if (size() <= _Pos)
; 1207 : 			_Xran();
; 1208 : 		return (*(this->_Myfirst() + _Pos));
; 1209 : 		}
; 1210 : 
; 1211 : 	const_reference operator[](size_type _Pos) const
; 1212 : 		{	// subscript nonmutable sequence
; 1213 :  #if _ITERATOR_DEBUG_LEVEL == 2
; 1214 : 		if (size() <= _Pos)
; 1215 : 			{	// report error
; 1216 : 			_DEBUG_ERROR("vector subscript out of range");
; 1217 : 			_SCL_SECURE_OUT_OF_RANGE;
; 1218 : 			}
; 1219 : 
; 1220 :  #elif _ITERATOR_DEBUG_LEVEL == 1
; 1221 : 		_SCL_SECURE_VALIDATE_RANGE(_Pos < size());
; 1222 :  #endif /* _ITERATOR_DEBUG_LEVEL */
; 1223 : 
; 1224 : 		return (*(this->_Myfirst() + _Pos));
; 1225 : 		}
; 1226 : 
; 1227 : 	reference operator[](size_type _Pos)
; 1228 : 		{	// subscript mutable sequence
; 1229 :  #if _ITERATOR_DEBUG_LEVEL == 2
; 1230 : 		if (size() <= _Pos)
; 1231 : 			{	// report error
; 1232 : 			_DEBUG_ERROR("vector subscript out of range");
; 1233 : 			_SCL_SECURE_OUT_OF_RANGE;
; 1234 : 			}
; 1235 : 
; 1236 :  #elif _ITERATOR_DEBUG_LEVEL == 1
; 1237 : 		_SCL_SECURE_VALIDATE_RANGE(_Pos < size());
; 1238 :  #endif /* _ITERATOR_DEBUG_LEVEL */
; 1239 : 
; 1240 : 		return (*(this->_Myfirst() + _Pos));
; 1241 : 		}
; 1242 : 
; 1243 : 	pointer data() _NOEXCEPT
; 1244 : 		{	// return address of first element
; 1245 : 		return (this->_Myfirst());
; 1246 : 		}
; 1247 : 
; 1248 : 	const_pointer data() const _NOEXCEPT
; 1249 : 		{	// return address of first element
; 1250 : 		return (this->_Myfirst());
; 1251 : 		}
; 1252 : 
; 1253 : 	reference front()
; 1254 : 		{	// return first element of mutable sequence
; 1255 : 		return (*begin());
; 1256 : 		}
; 1257 : 
; 1258 : 	const_reference front() const
; 1259 : 		{	// return first element of nonmutable sequence
; 1260 : 		return (*begin());
; 1261 : 		}
; 1262 : 
; 1263 : 	reference back()
; 1264 : 		{	// return last element of mutable sequence
; 1265 : 		return (*(end() - 1));
; 1266 : 		}
; 1267 : 
; 1268 : 	const_reference back() const
; 1269 : 		{	// return last element of nonmutable sequence
; 1270 : 		return (*(end() - 1));
; 1271 : 		}
; 1272 : 
; 1273 : 	void push_back(const value_type& _Val)
; 1274 : 		{	// insert element at end
; 1275 : 		if (_Inside(_STD addressof(_Val)))
; 1276 : 			{	// push back an element
; 1277 : 			size_type _Idx = _STD addressof(_Val) - this->_Myfirst();
; 1278 : 			if (this->_Mylast() == this->_Myend())
; 1279 : 				_Reserve(1);
; 1280 : 			_Orphan_range(this->_Mylast(), this->_Mylast());
; 1281 : 			this->_Getal().construct(this->_Mylast(),
; 1282 : 				this->_Myfirst()[_Idx]);
; 1283 : 			++this->_Mylast();
; 1284 : 			}
; 1285 : 		else
; 1286 : 			{	// push back a non-element
; 1287 : 			if (this->_Mylast() == this->_Myend())
; 1288 : 				_Reserve(1);
; 1289 : 			_Orphan_range(this->_Mylast(), this->_Mylast());
; 1290 : 			this->_Getal().construct(this->_Mylast(),
; 1291 : 				_Val);
; 1292 : 			++this->_Mylast();
; 1293 : 			}
; 1294 : 		}
; 1295 : 
; 1296 :  #if _ITERATOR_DEBUG_LEVEL == 2
; 1297 : 	void pop_back()
; 1298 : 		{	// erase element at end
; 1299 : 		if (empty())
; 1300 : 			_DEBUG_ERROR("vector empty before pop");
; 1301 : 		else
; 1302 : 			{	// erase last element
; 1303 : 			_Orphan_range(this->_Mylast() - 1, this->_Mylast());
; 1304 : 			this->_Getal().destroy(this->_Mylast() - 1);
; 1305 : 			--this->_Mylast();
; 1306 : 			}
; 1307 : 		}
; 1308 : 
; 1309 :  #else /* _ITERATOR_DEBUG_LEVEL == 2 */
; 1310 : 	void pop_back()
; 1311 : 		{	// erase element at end
; 1312 : 		this->_Getal().destroy(this->_Mylast() - 1);
; 1313 : 		--this->_Mylast();
; 1314 : 		}
; 1315 :  #endif /* _ITERATOR_DEBUG_LEVEL == 2 */
; 1316 : 
; 1317 : 	template<class _Iter>
; 1318 : 		typename enable_if<_Is_iterator<_Iter>::value,
; 1319 : 			void>::type
; 1320 : 		assign(_Iter _First, _Iter _Last)
; 1321 : 		{	// assign [_First, _Last)
; 1322 : 		clear();
; 1323 : 		_Assign(_First, _Last, _Iter_cat(_First));
; 1324 : 		}
; 1325 : 
; 1326 : 	template<class _Iter>
; 1327 : 		void _Assign(_Iter _First, _Iter _Last,
; 1328 : 			input_iterator_tag)
; 1329 : 		{	// assign [_First, _Last), input iterators
; 1330 : 		for (; _First != _Last; ++_First)
; 1331 : 			emplace_back(*_First);
; 1332 : 		}
; 1333 : 
; 1334 : 	template<class _Iter>
; 1335 : 		void _Assign(_Iter _First, _Iter _Last,
; 1336 : 			forward_iterator_tag)
; 1337 : 		{	// assign [_First, _Last), forward iterators
; 1338 : 		size_type _Newsize = _STD distance(_First, _Last);
; 1339 : 
; 1340 : 		if (capacity() < _Newsize)
; 1341 : 			{	// need more room, try to get it
; 1342 : 			size_type _Newcapacity = _Grow_to(_Newsize);
; 1343 : 			_Tidy();
; 1344 : 			_Buy(_Newcapacity);
; 1345 : 			}
; 1346 : 
; 1347 : 		this->_Mylast() = _Ucopy(_First, _Last, this->_Myfirst());
; 1348 : 		}
; 1349 : 
; 1350 : 	void assign(size_type _Count, const value_type& _Val)
; 1351 : 		{	// assign _Count * _Val
; 1352 : 		clear();
; 1353 : 		insert(begin(), _Count, _Val);
; 1354 : 		}
; 1355 : 
; 1356 : 	iterator insert(const_iterator _Where, const _Ty& _Val)
; 1357 : 		{	// insert _Val at _Where
; 1358 : 		return (_Insert_n(_Where, (size_type)1, _Val));
; 1359 : 		}
; 1360 : 
; 1361 : 	iterator insert(const_iterator _Where, size_type _Count,
; 1362 : 		const _Ty& _Val)
; 1363 : 		{	// insert _Count * _Val at _Where
; 1364 : 		return (_Insert_n(_Where, _Count, _Val));
; 1365 : 		}
; 1366 : 
; 1367 : 	template<class _Iter>
; 1368 : 		typename enable_if<_Is_iterator<_Iter>::value,
; 1369 : 			iterator>::type
; 1370 : 		insert(const_iterator _Where, _Iter _First, _Iter _Last)
; 1371 : 		{	// insert [_First, _Last) at _Where
; 1372 : 		size_type _Off = _VIPTR(_Where) - this->_Myfirst();
; 1373 : 		_Insert(_Where, _First, _Last, _Iter_cat(_First));
; 1374 : 		return (begin() + _Off);
; 1375 : 		}
; 1376 : 
; 1377 : 	template<class _Iter>
; 1378 : 		void _Insert(const_iterator _Where,
; 1379 : 			_Iter _First, _Iter _Last,
; 1380 : 				input_iterator_tag)
; 1381 : 		{	// insert [_First, _Last) at _Where, input iterators
; 1382 : 		size_type _Off = _VIPTR(_Where) - this->_Myfirst();
; 1383 : 
; 1384 :  #if _ITERATOR_DEBUG_LEVEL == 2
; 1385 : 		if (size() < _Off)
; 1386 : 			_DEBUG_ERROR("vector insert iterator outside range");
; 1387 :  #endif /* _ITERATOR_DEBUG_LEVEL == 2 */
; 1388 : 
; 1389 : 		if (_First != _Last)
; 1390 : 			{	// worth doing, gather at end and rotate into place
; 1391 : 			size_type _Oldsize = size();
; 1392 : 
; 1393 : 			_TRY_BEGIN
; 1394 : 			for (; _First != _Last; ++_First)
; 1395 : 				push_back(*_First);	// append
; 1396 : 
; 1397 : 			_CATCH_ALL
; 1398 : 			erase(begin() + _Oldsize, end());
; 1399 : 			_RERAISE;
; 1400 : 			_CATCH_END
; 1401 : 
; 1402 : 			_STD rotate(begin() + _Off, begin() + _Oldsize, end());
; 1403 : 			}
; 1404 : 		}
; 1405 : 
; 1406 : 	template<class _Iter>
; 1407 : 		void _Insert(const_iterator _Where,
; 1408 : 			_Iter _First, _Iter _Last,
; 1409 : 				forward_iterator_tag)
; 1410 : 		{	// insert [_First, _Last) at _Where, forward iterators
; 1411 :  #if _ITERATOR_DEBUG_LEVEL == 2
; 1412 : 		if (_VICONT(_Where) != &this->_Get_data()
; 1413 : 			|| _VIPTR(_Where) < this->_Myfirst()
; 1414 : 			|| this->_Mylast() < _VIPTR(_Where))
; 1415 : 			_DEBUG_ERROR("vector insert iterator outside range");
; 1416 : 		_DEBUG_RANGE(_First, _Last);
; 1417 :  #endif /* _ITERATOR_DEBUG_LEVEL == 2 */
; 1418 : 
; 1419 : 		size_type _Count = 0;
; 1420 : 		_Distance(_First, _Last, _Count);
; 1421 : 
; 1422 : 		if (_Count == 0)
; 1423 : 			;
; 1424 : 		else if (_Unused_capacity() < _Count)
; 1425 : 			{	// not enough room, reallocate
; 1426 : 			if (max_size() - size() < _Count)
; 1427 : 				_Xlen();	// result too long
; 1428 : 
; 1429 : 			size_type _Capacity = _Grow_to(size() + _Count);
; 1430 : 			pointer _Newvec = this->_Getal().allocate(_Capacity);
; 1431 : 			pointer _Ptr = _Newvec;
; 1432 : 
; 1433 : 			_TRY_BEGIN
; 1434 : 			_Ptr = _Umove(this->_Myfirst(), _VIPTR(_Where),
; 1435 : 				_Newvec);	// copy prefix
; 1436 : 			_Ptr = _Ucopy(_First, _Last, _Ptr);	// add new stuff
; 1437 : 			_Umove(_VIPTR(_Where), this->_Mylast(),
; 1438 : 				_Ptr);	// copy suffix
; 1439 : 			_CATCH_ALL
; 1440 : 			_Destroy(_Newvec, _Ptr);
; 1441 : 			this->_Getal().deallocate(_Newvec, _Capacity);
; 1442 : 			_RERAISE;
; 1443 : 			_CATCH_END
; 1444 : 
; 1445 : 			_Count += size();
; 1446 : 			if (this->_Myfirst() != pointer())
; 1447 : 				{	// destroy and deallocate old array
; 1448 : 				_Destroy(this->_Myfirst(), this->_Mylast());
; 1449 : 				this->_Getal().deallocate(this->_Myfirst(),
; 1450 : 					this->_Myend() - this->_Myfirst());
; 1451 : 				}
; 1452 : 
; 1453 : 			this->_Orphan_all();
; 1454 : 			this->_Myend() = _Newvec + _Capacity;
; 1455 : 			this->_Mylast() = _Newvec + _Count;
; 1456 : 			this->_Myfirst() = _Newvec;
; 1457 : 			}
; 1458 : 		else
; 1459 : 			{	// new stuff fits, append and rotate into place
; 1460 : 			_Ucopy(_First, _Last, this->_Mylast());
; 1461 : 			_STD rotate(_VIPTR(_Where), this->_Mylast(),
; 1462 : 				this->_Mylast() + _Count);
; 1463 : 			this->_Mylast() += _Count;
; 1464 : 			_Orphan_range(_VIPTR(_Where), this->_Mylast());
; 1465 : 			}
; 1466 : 		}
; 1467 : 
; 1468 :  #if _ITERATOR_DEBUG_LEVEL == 2
; 1469 : 	iterator erase(const_iterator _Where)
; 1470 : 		{	// erase element at where
; 1471 : 		if (_VICONT(_Where) != &this->_Get_data()
; 1472 : 			|| _VIPTR(_Where) < this->_Myfirst()
; 1473 : 			|| this->_Mylast() <= _VIPTR(_Where))
; 1474 : 			_DEBUG_ERROR("vector erase iterator outside range");
; 1475 : 		_Move(_VIPTR(_Where) + 1, this->_Mylast(), _VIPTR(_Where));
; 1476 : 		_Destroy(this->_Mylast() - 1, this->_Mylast());
; 1477 : 		_Orphan_range(_VIPTR(_Where), this->_Mylast());
; 1478 : 		--this->_Mylast();
; 1479 : 		return (_Make_iter(_Where));
; 1480 : 		}
; 1481 : 
; 1482 :  #else /* _ITERATOR_DEBUG_LEVEL == 2 */
; 1483 : 	iterator erase(const_iterator _Where)
; 1484 : 		{	// erase element at where
; 1485 : 		_Move(_VIPTR(_Where) + 1, this->_Mylast(),
; 1486 : 			_VIPTR(_Where));
; 1487 : 		_Destroy(this->_Mylast() - 1, this->_Mylast());
; 1488 : 		--this->_Mylast();
; 1489 : 		return (_Make_iter(_Where));
; 1490 : 		}
; 1491 :  #endif /* _ITERATOR_DEBUG_LEVEL == 2 */
; 1492 : 
; 1493 : 	iterator erase(const_iterator _First_arg,
; 1494 : 		const_iterator _Last_arg)
; 1495 : 		{	// erase [_First, _Last)
; 1496 : 		if (_First_arg == begin() && _Last_arg == end())
; 1497 : 			clear();
; 1498 : 		else if (_First_arg != _Last_arg)
; 1499 : 			{	// clear partial
; 1500 : 			iterator _First = _Make_iter(_First_arg);
; 1501 : 			iterator _Last = _Make_iter(_Last_arg);
; 1502 : 
; 1503 : 			if (_First != _Last)
; 1504 : 				{	// worth doing, copy down over hole
; 1505 :  #if _ITERATOR_DEBUG_LEVEL == 2
; 1506 : 				if (_Last < _First || _VICONT(_First) != &this->_Get_data()
; 1507 : 					|| _VIPTR(_First) < this->_Myfirst()
; 1508 : 					|| this->_Mylast() < _VIPTR(_Last))
; 1509 : 					_DEBUG_ERROR("vector erase iterator outside range");
; 1510 : 				pointer _Ptr = _Move(_VIPTR(_Last), this->_Mylast(),
; 1511 : 					_VIPTR(_First));
; 1512 : 				_Orphan_range(_VIPTR(_First), this->_Mylast());
; 1513 : 
; 1514 :  #else /* _ITERATOR_DEBUG_LEVEL == 2 */
; 1515 : 				pointer _Ptr = _Move(_VIPTR(_Last), this->_Mylast(),
; 1516 : 					_VIPTR(_First));
; 1517 :  #endif /* _ITERATOR_DEBUG_LEVEL == 2 */
; 1518 : 
; 1519 : 				_Destroy(_Ptr, this->_Mylast());
; 1520 : 				this->_Mylast() = _Ptr;
; 1521 : 				}
; 1522 : 			}
; 1523 : 		return (_Make_iter(_First_arg));
; 1524 : 		}
; 1525 : 
; 1526 : 	void _Pop_back_n(size_type _Count)
; 1527 : 		{	// erase _Count elements at end
; 1528 : 		pointer _Ptr = this->_Mylast() - _Count;
; 1529 : 
; 1530 :  #if _ITERATOR_DEBUG_LEVEL == 2
; 1531 : 		_Orphan_range(_Ptr, this->_Mylast());
; 1532 :  #endif /* _ITERATOR_DEBUG_LEVEL == 2 */
; 1533 : 
; 1534 : 		_Destroy(_Ptr, this->_Mylast());
; 1535 : 		this->_Mylast() = _Ptr;
; 1536 : 		}
; 1537 : 
; 1538 : 	void clear() _NOEXCEPT
; 1539 : 		{	// erase all
; 1540 : 		this->_Orphan_all();
; 1541 : 		_Destroy(this->_Myfirst(), this->_Mylast());
; 1542 : 		this->_Mylast() = this->_Myfirst();
; 1543 : 		}
; 1544 : 
; 1545 : 	void swap(_Myt& _Right)
; 1546 : 		_NOEXCEPT_OP(_Alty::propagate_on_container_swap::value
; 1547 : 			|| _Alty::is_always_equal::value)
; 1548 : 		{	// exchange contents with _Right
; 1549 : 		if (this == &_Right)
; 1550 : 			;	// same object, do nothing
; 1551 : 		else if (this->_Getal() == _Right._Getal())
; 1552 : 			{	// same allocator, swap control information
; 1553 : 			this->_Swap_all(_Right);
; 1554 : 			_Swap_adl(this->_Myfirst(), _Right._Myfirst());
; 1555 : 			_Swap_adl(this->_Mylast(), _Right._Mylast());
; 1556 : 			_Swap_adl(this->_Myend(), _Right._Myend());
; 1557 : 			}
; 1558 : 
; 1559 : 		else if (_Alty::propagate_on_container_swap::value)
; 1560 : 			{	// swap allocators and control information
; 1561 : 			this->_Swap_alloc(_Right);
; 1562 : 			_Swap_adl(this->_Myfirst(), _Right._Myfirst());
; 1563 : 			_Swap_adl(this->_Mylast(), _Right._Mylast());
; 1564 : 			_Swap_adl(this->_Myend(), _Right._Myend());
; 1565 : 			}
; 1566 : 
; 1567 : 		else
; 1568 : 			{	// containers are incompatible
; 1569 :  #if _ITERATOR_DEBUG_LEVEL == 2
; 1570 : 			_DEBUG_ERROR("vector containers incompatible for swap");
; 1571 : 
; 1572 :  #else /* ITERATOR_DEBUG_LEVEL == 2 */
; 1573 : 			_XSTD terminate();
; 1574 :  #endif /* ITERATOR_DEBUG_LEVEL == 2 */
; 1575 : 			}
; 1576 : 		}
; 1577 : 
; 1578 : protected:
; 1579 : 	bool _Buy(size_type _Capacity)
; 1580 : 		{	// allocate array with _Capacity elements
; 1581 : 		this->_Myfirst() = pointer();
; 1582 : 		this->_Mylast() = pointer();
; 1583 : 		this->_Myend() = pointer();
; 1584 : 
; 1585 : 		if (_Capacity == 0)
; 1586 : 			return (false);
; 1587 : 		else if (max_size() < _Capacity)
; 1588 : 			_Xlen();	// result too long
; 1589 : 		else
; 1590 : 			{	// nonempty array, allocate storage
; 1591 : 			this->_Myfirst() = this->_Getal().allocate(_Capacity);
; 1592 : 			this->_Mylast() = this->_Myfirst();
; 1593 : 			this->_Myend() = this->_Myfirst() + _Capacity;
; 1594 : 			}
; 1595 : 		return (true);
; 1596 : 		}
; 1597 : 
; 1598 : 	void _Destroy(pointer _First, pointer _Last)
; 1599 : 		{	// destroy [_First, _Last) using allocator
; 1600 : 		_Destroy_range(_First, _Last, this->_Getal());
; 1601 : 		}
; 1602 : 
; 1603 : 	size_type _Grow_to(size_type _Count) const
; 1604 : 		{	// grow by 50% or at least to _Count
; 1605 : 		size_type _Capacity = capacity();
; 1606 : 
; 1607 : 		_Capacity = max_size() - _Capacity / 2 < _Capacity

  00035	8b c7		 mov	 eax, edi
  00037	d1 e8		 shr	 eax, 1
  00039	2b d8		 sub	 ebx, eax
  0003b	3b df		 cmp	 ebx, edi
  0003d	8d 0c 38	 lea	 ecx, DWORD PTR [eax+edi]
  00040	b8 00 00 00 00	 mov	 eax, 0
  00045	0f 42 c8	 cmovb	 ecx, eax

; 1608 : 			? 0 : _Capacity + _Capacity / 2;	// try to grow by 50%
; 1609 : 		if (_Capacity < _Count)

  00048	3b ca		 cmp	 ecx, edx
  0004a	0f 42 ca	 cmovb	 ecx, edx

; 1649 : 				_Xlen();
; 1650 : 			_Reallocate(_Grow_to(size() + _Count));

  0004d	51		 push	 ecx
  0004e	8b ce		 mov	 ecx, esi
  00050	e8 00 00 00 00	 call	 ?_Reallocate@?$vector@URINGMONSTER_EVENT_TIME@@V?$allocator@URINGMONSTER_EVENT_TIME@@@std@@@std@@IAEXI@Z ; std::vector<RINGMONSTER_EVENT_TIME,std::allocator<RINGMONSTER_EVENT_TIME> >::_Reallocate
  00055	5b		 pop	 ebx
$LN2@Reserve:
  00056	5f		 pop	 edi
  00057	5e		 pop	 esi

; 1651 : 			}
; 1652 : 		}

  00058	5d		 pop	 ebp
  00059	c2 04 00	 ret	 4
$LN134@Reserve:

; 1653 : 
; 1654 : 	void _Tidy()
; 1655 : 		{	// free all storage
; 1656 : 		if (this->_Myfirst() != pointer())
; 1657 : 			{	// something to free, destroy and deallocate it
; 1658 : 			this->_Orphan_all();
; 1659 : 			_Destroy(this->_Myfirst(), this->_Mylast());
; 1660 : 			this->_Getal().deallocate(this->_Myfirst(),
; 1661 : 				this->_Myend() - this->_Myfirst());
; 1662 : 			this->_Myfirst() = pointer();
; 1663 : 			this->_Mylast() = pointer();
; 1664 : 			this->_Myend() = pointer();
; 1665 : 			}
; 1666 : 		}
; 1667 : 
; 1668 : 	template<class _Iter>
; 1669 : 		pointer _Ucopy(_Iter _First, _Iter _Last, pointer _Ptr)
; 1670 : 		{	// copy initializing [_First, _Last), using allocator
; 1671 : 		return (_Uninitialized_copy(_First, _Last,
; 1672 : 			_Ptr, this->_Getal()));
; 1673 : 		}
; 1674 : 
; 1675 : 	template<class _Iter>
; 1676 : 		pointer _Umove(_Iter _First, _Iter _Last, pointer _Ptr)
; 1677 : 		{	// move initializing [_First, _Last), using allocator
; 1678 : 		return (_Uninitialized_move(_First, _Last,
; 1679 : 			_Ptr, this->_Getal()));
; 1680 : 		}
; 1681 : 
; 1682 : 	iterator _Insert_n(const_iterator _Where,
; 1683 : 		size_type _Count, const value_type& _Val)
; 1684 : 		{	// insert _Count * _Val at _Where
; 1685 :  #if _ITERATOR_DEBUG_LEVEL == 2
; 1686 : 		if (_VICONT(_Where) != &this->_Get_data()
; 1687 : 			|| _VIPTR(_Where) < this->_Myfirst()
; 1688 : 			|| this->_Mylast() < _VIPTR(_Where))
; 1689 : 			_DEBUG_ERROR("vector insert iterator outside range");
; 1690 :  #endif /* _ITERATOR_DEBUG_LEVEL == 2 */
; 1691 : 
; 1692 : 		size_type _Off = _VIPTR(_Where) - this->_Myfirst();
; 1693 : 		if (_Count == 0)
; 1694 : 			;
; 1695 : 		else if (_Unused_capacity() < _Count)
; 1696 : 			{	// not enough room, reallocate
; 1697 : 			if (max_size() - size() < _Count)
; 1698 : 				_Xlen();	// result too long
; 1699 : 
; 1700 : 			size_type _Capacity = _Grow_to(size() + _Count);
; 1701 : 			pointer _Newvec = this->_Getal().allocate(_Capacity);
; 1702 : 			size_type _Whereoff = _VIPTR(_Where) - this->_Myfirst();
; 1703 : 			int _Ncopied = 0;
; 1704 : 
; 1705 : 			_TRY_BEGIN
; 1706 : 			_Ufill(_Newvec + _Whereoff, _Count,
; 1707 : 				_STD addressof(_Val));	// add new stuff
; 1708 : 			++_Ncopied;
; 1709 : 			_Umove(this->_Myfirst(), _VIPTR(_Where),
; 1710 : 				_Newvec);	// copy prefix
; 1711 : 			++_Ncopied;
; 1712 : 			_Umove(_VIPTR(_Where), this->_Mylast(),
; 1713 : 				_Newvec + (_Whereoff + _Count));	// copy suffix
; 1714 : 			_CATCH_ALL
; 1715 : 			if (1 < _Ncopied)
; 1716 : 				_Destroy(_Newvec, _Newvec + _Whereoff);
; 1717 : 			if (0 < _Ncopied)
; 1718 : 				_Destroy(_Newvec + _Whereoff, _Newvec + _Whereoff + _Count);
; 1719 : 			this->_Getal().deallocate(_Newvec, _Capacity);
; 1720 : 			_RERAISE;
; 1721 : 			_CATCH_END
; 1722 : 
; 1723 : 			_Count += size();
; 1724 : 			if (this->_Myfirst() != pointer())
; 1725 : 				{	// destroy and deallocate old array
; 1726 : 				_Destroy(this->_Myfirst(), this->_Mylast());
; 1727 : 				this->_Getal().deallocate(this->_Myfirst(),
; 1728 : 					this->_Myend() - this->_Myfirst());
; 1729 : 				}
; 1730 : 
; 1731 : 			this->_Orphan_all();
; 1732 : 			this->_Myend() = _Newvec + _Capacity;
; 1733 : 			this->_Mylast() = _Newvec + _Count;
; 1734 : 			this->_Myfirst() = _Newvec;
; 1735 : 			}
; 1736 : 		else if ((size_type)(this->_Mylast() - _VIPTR(_Where))
; 1737 : 			< _Count)
; 1738 : 			{	// new stuff spills off end
; 1739 : 			value_type _Tmp = _Val;	// in case _Val is in sequence
; 1740 : 
; 1741 : 			_Umove(_VIPTR(_Where), this->_Mylast(),
; 1742 : 				_VIPTR(_Where) + _Count);	// copy suffix
; 1743 : 
; 1744 : 			_TRY_BEGIN
; 1745 : 			_Ufill(this->_Mylast(),
; 1746 : 				_Count - (this->_Mylast() - _VIPTR(_Where)),
; 1747 : 				_STD addressof(_Tmp));	// insert new stuff off end
; 1748 : 			_CATCH_ALL
; 1749 : 			_Destroy(_VIPTR(_Where) + _Count,
; 1750 : 				this->_Mylast() + _Count);
; 1751 : 			_RERAISE;
; 1752 : 			_CATCH_END
; 1753 : 
; 1754 : 			this->_Mylast() += _Count;
; 1755 : 			_Orphan_range(_VIPTR(_Where), this->_Mylast());
; 1756 : 			_STD fill(_VIPTR(_Where), this->_Mylast() - _Count,
; 1757 : 				_Tmp);	// insert up to old end
; 1758 : 			}
; 1759 : 		else
; 1760 : 			{	// new stuff can all be assigned
; 1761 : 			value_type _Tmp = _Val;	// in case _Val is in sequence
; 1762 : 
; 1763 : 			pointer _Oldend = this->_Mylast();
; 1764 : 			this->_Mylast() = _Umove(_Oldend - _Count, _Oldend,
; 1765 : 				this->_Mylast());	// copy suffix
; 1766 : 
; 1767 : 			_Orphan_range(_VIPTR(_Where), this->_Mylast());
; 1768 : 			_Move_backward(_VIPTR(_Where), _Oldend - _Count,
; 1769 : 				_Oldend);	// copy hole
; 1770 : 			_STD fill(_VIPTR(_Where),
; 1771 : 				_VIPTR(_Where) + _Count, _Tmp);	// insert into hole
; 1772 : 			}
; 1773 : 		return (begin() + _Off);
; 1774 : 		}
; 1775 : 
; 1776 : 	pointer _Ufill(pointer _Ptr, size_type _Count, const value_type *_Pval)
; 1777 : 		{	// copy initializing _Count * _Val, using allocator
; 1778 : 		_Uninitialized_fill_n(_Ptr, _Count, _Pval, this->_Getal());
; 1779 : 		return (_Ptr + _Count);
; 1780 : 		}
; 1781 : 
; 1782 : 	[[noreturn]] void _Xlen() const
; 1783 : 		{	// report a length_error
; 1784 : 		_Xlength_error("vector<T> too long");

  0005c	68 00 00 00 00	 push	 OFFSET ??_C@_0BD@OLBABOEK@vector?$DMT?$DO?5too?5long?$AA@
  00061	e8 00 00 00 00	 call	 ?_Xlength_error@std@@YAXPBD@Z ; std::_Xlength_error
$LN136@Reserve:
$LN133@Reserve:
  00066	cc		 int	 3
?_Reserve@?$vector@URINGMONSTER_EVENT_TIME@@V?$allocator@URINGMONSTER_EVENT_TIME@@@std@@@std@@IAEXI@Z ENDP ; std::vector<RINGMONSTER_EVENT_TIME,std::allocator<RINGMONSTER_EVENT_TIME> >::_Reserve
_TEXT	ENDS
; Function compile flags: /Ogtp
; File c:\program files (x86)\microsoft visual studio 14.0\vc\include\vector
; File c:\program files (x86)\microsoft visual studio 14.0\vc\include\xmemory0
; File c:\program files (x86)\microsoft visual studio 14.0\vc\include\xmemory
; File c:\program files (x86)\microsoft visual studio 14.0\vc\include\vector
; File c:\program files (x86)\microsoft visual studio 14.0\vc\include\xmemory
; File c:\program files (x86)\microsoft visual studio 14.0\vc\include\vector
; File c:\program files (x86)\microsoft visual studio 14.0\vc\include\xmemory
; File c:\program files (x86)\microsoft visual studio 14.0\vc\include\vector
; File c:\program files (x86)\microsoft visual studio 14.0\vc\include\xmemory
; File c:\program files (x86)\microsoft visual studio 14.0\vc\include\vector
;	COMDAT ?_Reallocate@?$vector@URINGMONSTER_EVENT_TIME@@V?$allocator@URINGMONSTER_EVENT_TIME@@@std@@@std@@IAEXI@Z
_TEXT	SEGMENT
_this$ = -24						; size = 4
__Ptr$ = -20						; size = 4
__$EHRec$ = -16						; size = 16
__Cat$2 = 8						; size = 1
__Count$ = 8						; size = 4
?_Reallocate@?$vector@URINGMONSTER_EVENT_TIME@@V?$allocator@URINGMONSTER_EVENT_TIME@@@std@@@std@@IAEXI@Z PROC ; std::vector<RINGMONSTER_EVENT_TIME,std::allocator<RINGMONSTER_EVENT_TIME> >::_Reallocate, COMDAT
; _this$ = ecx

; 1620 : 		{	// move to array of exactly _Count elements

  00000	55		 push	 ebp
  00001	8b ec		 mov	 ebp, esp
  00003	6a ff		 push	 -1
  00005	68 00 00 00 00	 push	 __ehhandler$?_Reallocate@?$vector@URINGMONSTER_EVENT_TIME@@V?$allocator@URINGMONSTER_EVENT_TIME@@@std@@@std@@IAEXI@Z
  0000a	64 a1 00 00 00
	00		 mov	 eax, DWORD PTR fs:0
  00010	50		 push	 eax
  00011	83 ec 0c	 sub	 esp, 12			; 0000000cH
  00014	53		 push	 ebx
  00015	56		 push	 esi
  00016	57		 push	 edi
  00017	a1 00 00 00 00	 mov	 eax, DWORD PTR ___security_cookie
  0001c	33 c5		 xor	 eax, ebp
  0001e	50		 push	 eax
  0001f	8d 45 f4	 lea	 eax, DWORD PTR __$EHRec$[ebp+4]
  00022	64 a3 00 00 00
	00		 mov	 DWORD PTR fs:0, eax
  00028	89 65 f0	 mov	 DWORD PTR __$EHRec$[ebp], esp
  0002b	8b f1		 mov	 esi, ecx
  0002d	89 75 e8	 mov	 DWORD PTR _this$[ebp], esi
; File c:\program files (x86)\microsoft visual studio 14.0\vc\include\xmemory0

; 898  : 		return (_Mybase::allocate(_Count));

  00030	ff 75 08	 push	 DWORD PTR __Count$[ebp]
  00033	e8 00 00 00 00	 call	 ?allocate@?$allocator@URINGMONSTER_EVENT_TIME@@@std@@QAEPAURINGMONSTER_EVENT_TIME@@I@Z ; std::allocator<RINGMONSTER_EVENT_TIME>::allocate
; File c:\program files (x86)\microsoft visual studio 14.0\vc\include\xmemory

; 481  : 	return (_Uninit_move(_First, _Last, _Dest, _Al,

  00038	ff 75 08	 push	 DWORD PTR __Cat$2[ebp]
; File c:\program files (x86)\microsoft visual studio 14.0\vc\include\vector

; 1621 : 		pointer _Ptr = this->_Getal().allocate(_Count);

  0003b	8b f8		 mov	 edi, eax

; 1622 : 
; 1623 : 		_TRY_BEGIN

  0003d	c7 45 fc 00 00
	00 00		 mov	 DWORD PTR __$EHRec$[ebp+12], 0
; File c:\program files (x86)\microsoft visual studio 14.0\vc\include\xmemory

; 481  : 	return (_Uninit_move(_First, _Last, _Dest, _Al,

  00044	6a 00		 push	 0
  00046	56		 push	 esi
  00047	57		 push	 edi
  00048	ff 76 04	 push	 DWORD PTR [esi+4]
; File c:\program files (x86)\microsoft visual studio 14.0\vc\include\vector

; 1621 : 		pointer _Ptr = this->_Getal().allocate(_Count);

  0004b	89 7d ec	 mov	 DWORD PTR __Ptr$[ebp], edi
; File c:\program files (x86)\microsoft visual studio 14.0\vc\include\xmemory

; 481  : 	return (_Uninit_move(_First, _Last, _Dest, _Al,

  0004e	ff 36		 push	 DWORD PTR [esi]
  00050	e8 00 00 00 00	 call	 ??$_Uninit_move@PAURINGMONSTER_EVENT_TIME@@PAU1@V?$allocator@URINGMONSTER_EVENT_TIME@@@std@@U1@@std@@YAPAURINGMONSTER_EVENT_TIME@@PAU1@00AAU?$_Wrap_alloc@V?$allocator@URINGMONSTER_EVENT_TIME@@@std@@@0@0U_Nonscalar_ptr_iterator_tag@0@@Z ; std::_Uninit_move<RINGMONSTER_EVENT_TIME *,RINGMONSTER_EVENT_TIME *,std::allocator<RINGMONSTER_EVENT_TIME>,RINGMONSTER_EVENT_TIME>
; File c:\program files (x86)\microsoft visual studio 14.0\vc\include\vector

; 1179 : 		return (this->_Mylast() - this->_Myfirst());

  00055	8b 0e		 mov	 ecx, DWORD PTR [esi]
; File c:\program files (x86)\microsoft visual studio 14.0\vc\include\xmemory

; 481  : 	return (_Uninit_move(_First, _Last, _Dest, _Al,

  00057	83 c4 18	 add	 esp, 24			; 00000018H
; File c:\program files (x86)\microsoft visual studio 14.0\vc\include\vector

; 1179 : 		return (this->_Mylast() - this->_Myfirst());

  0005a	8b 5e 04	 mov	 ebx, DWORD PTR [esi+4]
  0005d	2b d9		 sub	 ebx, ecx
  0005f	c1 fb 03	 sar	 ebx, 3

; 1628 : 		_CATCH_END
; 1629 : 
; 1630 : 		size_type _Size = size();
; 1631 : 		if (this->_Myfirst() != pointer())

  00062	85 c9		 test	 ecx, ecx
  00064	74 11		 je	 SHORT $LN3@Reallocate

; 1632 : 			{	// destroy and deallocate old array
; 1633 : 			_Destroy(this->_Myfirst(), this->_Mylast());
; 1634 : 			this->_Getal().deallocate(this->_Myfirst(),

  00066	8b 46 08	 mov	 eax, DWORD PTR [esi+8]
  00069	2b c1		 sub	 eax, ecx
  0006b	c1 f8 03	 sar	 eax, 3
  0006e	50		 push	 eax
  0006f	51		 push	 ecx
  00070	8b ce		 mov	 ecx, esi
  00072	e8 00 00 00 00	 call	 ?deallocate@?$_Wrap_alloc@V?$allocator@URINGMONSTER_EVENT_TIME@@@std@@@std@@QAEXPAURINGMONSTER_EVENT_TIME@@I@Z ; std::_Wrap_alloc<std::allocator<RINGMONSTER_EVENT_TIME> >::deallocate
$LN3@Reallocate:

; 1635 : 				this->_Myend() - this->_Myfirst());
; 1636 : 			}
; 1637 : 
; 1638 : 		this->_Orphan_all();
; 1639 : 		this->_Myend() = _Ptr + _Count;

  00077	8b 45 08	 mov	 eax, DWORD PTR __Count$[ebp]
  0007a	8d 04 c7	 lea	 eax, DWORD PTR [edi+eax*8]
  0007d	89 46 08	 mov	 DWORD PTR [esi+8], eax

; 1640 : 		this->_Mylast() = _Ptr + _Size;

  00080	8d 04 df	 lea	 eax, DWORD PTR [edi+ebx*8]
  00083	89 46 04	 mov	 DWORD PTR [esi+4], eax

; 1641 : 		this->_Myfirst() = _Ptr;

  00086	89 3e		 mov	 DWORD PTR [esi], edi

; 1642 : 		}

  00088	8b 4d f4	 mov	 ecx, DWORD PTR __$EHRec$[ebp+4]
  0008b	64 89 0d 00 00
	00 00		 mov	 DWORD PTR fs:0, ecx
  00092	59		 pop	 ecx
  00093	5f		 pop	 edi
  00094	5e		 pop	 esi
  00095	5b		 pop	 ebx
  00096	8b e5		 mov	 esp, ebp
  00098	5d		 pop	 ebp
  00099	c2 04 00	 ret	 4
__catch$?_Reallocate@?$vector@URINGMONSTER_EVENT_TIME@@V?$allocator@URINGMONSTER_EVENT_TIME@@@std@@@std@@IAEXI@Z$0:

; 1624 : 		_Umove(this->_Myfirst(), this->_Mylast(), _Ptr);
; 1625 : 		_CATCH_ALL
; 1626 : 		this->_Getal().deallocate(_Ptr, _Count);

  0009c	ff 75 08	 push	 DWORD PTR __Count$[ebp]
  0009f	8b 4d e8	 mov	 ecx, DWORD PTR _this$[ebp]
  000a2	ff 75 ec	 push	 DWORD PTR __Ptr$[ebp]
  000a5	e8 00 00 00 00	 call	 ?deallocate@?$_Wrap_alloc@V?$allocator@URINGMONSTER_EVENT_TIME@@@std@@@std@@QAEXPAURINGMONSTER_EVENT_TIME@@I@Z ; std::_Wrap_alloc<std::allocator<RINGMONSTER_EVENT_TIME> >::deallocate

; 1627 : 		_RERAISE;

  000aa	6a 00		 push	 0
  000ac	6a 00		 push	 0
  000ae	e8 00 00 00 00	 call	 __CxxThrowException@8
$LN175@Reallocate:
$LN174@Reallocate:
  000b3	cc		 int	 3
_TEXT	ENDS
;	COMDAT text$x
text$x	SEGMENT
__ehhandler$?_Reallocate@?$vector@URINGMONSTER_EVENT_TIME@@V?$allocator@URINGMONSTER_EVENT_TIME@@@std@@@std@@IAEXI@Z:
  00000	8b 54 24 08	 mov	 edx, DWORD PTR [esp+8]
  00004	8d 42 0c	 lea	 eax, DWORD PTR [edx+12]
  00007	8b 4a e4	 mov	 ecx, DWORD PTR [edx-28]
  0000a	33 c8		 xor	 ecx, eax
  0000c	e8 00 00 00 00	 call	 @__security_check_cookie@4
  00011	b8 00 00 00 00	 mov	 eax, OFFSET __ehfuncinfo$?_Reallocate@?$vector@URINGMONSTER_EVENT_TIME@@V?$allocator@URINGMONSTER_EVENT_TIME@@@std@@@std@@IAEXI@Z
  00016	e9 00 00 00 00	 jmp	 ___CxxFrameHandler3
text$x	ENDS
?_Reallocate@?$vector@URINGMONSTER_EVENT_TIME@@V?$allocator@URINGMONSTER_EVENT_TIME@@@std@@@std@@IAEXI@Z ENDP ; std::vector<RINGMONSTER_EVENT_TIME,std::allocator<RINGMONSTER_EVENT_TIME> >::_Reallocate
; Function compile flags: /Ogtp
; File c:\program files (x86)\microsoft visual studio 14.0\vc\include\vector
;	COMDAT ?_Inside@?$vector@URINGMONSTER_EVENT_TIME@@V?$allocator@URINGMONSTER_EVENT_TIME@@@std@@@std@@IBE_NPBURINGMONSTER_EVENT_TIME@@@Z
_TEXT	SEGMENT
__Ptr$ = 8						; size = 4
?_Inside@?$vector@URINGMONSTER_EVENT_TIME@@V?$allocator@URINGMONSTER_EVENT_TIME@@@std@@@std@@IBE_NPBURINGMONSTER_EVENT_TIME@@@Z PROC ; std::vector<RINGMONSTER_EVENT_TIME,std::allocator<RINGMONSTER_EVENT_TIME> >::_Inside, COMDAT
; _this$ = ecx

; 1615 : 		{	// test if _Ptr points inside vector

  00000	55		 push	 ebp
  00001	8b ec		 mov	 ebp, esp

; 1616 : 		return (_Ptr < this->_Mylast() && this->_Myfirst() <= _Ptr);

  00003	8b 45 08	 mov	 eax, DWORD PTR __Ptr$[ebp]
  00006	3b 41 04	 cmp	 eax, DWORD PTR [ecx+4]
  00009	73 0a		 jae	 SHORT $LN3@Inside
  0000b	39 01		 cmp	 DWORD PTR [ecx], eax
  0000d	77 06		 ja	 SHORT $LN3@Inside
  0000f	b0 01		 mov	 al, 1

; 1617 : 		}

  00011	5d		 pop	 ebp
  00012	c2 04 00	 ret	 4
$LN3@Inside:

; 1616 : 		return (_Ptr < this->_Mylast() && this->_Myfirst() <= _Ptr);

  00015	32 c0		 xor	 al, al

; 1617 : 		}

  00017	5d		 pop	 ebp
  00018	c2 04 00	 ret	 4
?_Inside@?$vector@URINGMONSTER_EVENT_TIME@@V?$allocator@URINGMONSTER_EVENT_TIME@@@std@@@std@@IBE_NPBURINGMONSTER_EVENT_TIME@@@Z ENDP ; std::vector<RINGMONSTER_EVENT_TIME,std::allocator<RINGMONSTER_EVENT_TIME> >::_Inside
_TEXT	ENDS
; Function compile flags: /Ogtp
; File c:\program files (x86)\microsoft visual studio 14.0\vc\include\vector
;	COMDAT ?_Grow_to@?$vector@URINGMONSTER_EVENT_TIME@@V?$allocator@URINGMONSTER_EVENT_TIME@@@std@@@std@@IBEII@Z
_TEXT	SEGMENT
__Count$ = 8						; size = 4
?_Grow_to@?$vector@URINGMONSTER_EVENT_TIME@@V?$allocator@URINGMONSTER_EVENT_TIME@@@std@@@std@@IBEII@Z PROC ; std::vector<RINGMONSTER_EVENT_TIME,std::allocator<RINGMONSTER_EVENT_TIME> >::_Grow_to, COMDAT
; _this$ = ecx

; 1604 : 		{	// grow by 50% or at least to _Count

  00000	55		 push	 ebp
  00001	8b ec		 mov	 ebp, esp
  00003	56		 push	 esi

; 1042 : 		return (this->_Myend() - this->_Myfirst());

  00004	8b 71 08	 mov	 esi, DWORD PTR [ecx+8]
  00007	2b 31		 sub	 esi, DWORD PTR [ecx]

; 1605 : 		size_type _Capacity = capacity();
; 1606 : 
; 1607 : 		_Capacity = max_size() - _Capacity / 2 < _Capacity

  00009	b9 ff ff ff 1f	 mov	 ecx, 536870911		; 1fffffffH

; 1042 : 		return (this->_Myend() - this->_Myfirst());

  0000e	c1 fe 03	 sar	 esi, 3

; 1605 : 		size_type _Capacity = capacity();
; 1606 : 
; 1607 : 		_Capacity = max_size() - _Capacity / 2 < _Capacity

  00011	8b c6		 mov	 eax, esi
  00013	d1 e8		 shr	 eax, 1
  00015	57		 push	 edi
  00016	2b c8		 sub	 ecx, eax
  00018	33 ff		 xor	 edi, edi
  0001a	3b ce		 cmp	 ecx, esi
  0001c	8d 14 30	 lea	 edx, DWORD PTR [eax+esi]
  0001f	0f 42 d7	 cmovb	 edx, edi

; 1608 : 			? 0 : _Capacity + _Capacity / 2;	// try to grow by 50%
; 1609 : 		if (_Capacity < _Count)

  00022	3b 55 08	 cmp	 edx, DWORD PTR __Count$[ebp]
  00025	5f		 pop	 edi
  00026	0f 42 55 08	 cmovb	 edx, DWORD PTR __Count$[ebp]

; 1610 : 			_Capacity = _Count;
; 1611 : 		return (_Capacity);

  0002a	8b c2		 mov	 eax, edx
  0002c	5e		 pop	 esi

; 1612 : 		}

  0002d	5d		 pop	 ebp
  0002e	c2 04 00	 ret	 4
?_Grow_to@?$vector@URINGMONSTER_EVENT_TIME@@V?$allocator@URINGMONSTER_EVENT_TIME@@@std@@@std@@IBEII@Z ENDP ; std::vector<RINGMONSTER_EVENT_TIME,std::allocator<RINGMONSTER_EVENT_TIME> >::_Grow_to
_TEXT	ENDS
; Function compile flags: /Ogtp
; File c:\program files (x86)\microsoft visual studio 14.0\vc\include\vector
;	COMDAT ?_Destroy@?$vector@URINGMONSTER_EVENT_TIME@@V?$allocator@URINGMONSTER_EVENT_TIME@@@std@@@std@@IAEXPAURINGMONSTER_EVENT_TIME@@0@Z
_TEXT	SEGMENT
__First$ = 8						; size = 4
__Last$ = 12						; size = 4
?_Destroy@?$vector@URINGMONSTER_EVENT_TIME@@V?$allocator@URINGMONSTER_EVENT_TIME@@@std@@@std@@IAEXPAURINGMONSTER_EVENT_TIME@@0@Z PROC ; std::vector<RINGMONSTER_EVENT_TIME,std::allocator<RINGMONSTER_EVENT_TIME> >::_Destroy, COMDAT
; _this$ = ecx

; 1600 : 		_Destroy_range(_First, _Last, this->_Getal());
; 1601 : 		}

  00000	c2 08 00	 ret	 8
?_Destroy@?$vector@URINGMONSTER_EVENT_TIME@@V?$allocator@URINGMONSTER_EVENT_TIME@@@std@@@std@@IAEXPAURINGMONSTER_EVENT_TIME@@0@Z ENDP ; std::vector<RINGMONSTER_EVENT_TIME,std::allocator<RINGMONSTER_EVENT_TIME> >::_Destroy
_TEXT	ENDS
; Function compile flags: /Ogtp
; File c:\program files (x86)\microsoft visual studio 14.0\vc\include\vector
;	COMDAT ?clear@?$vector@URINGMONSTER_EVENT_TIME@@V?$allocator@URINGMONSTER_EVENT_TIME@@@std@@@std@@QAEXXZ
_TEXT	SEGMENT
?clear@?$vector@URINGMONSTER_EVENT_TIME@@V?$allocator@URINGMONSTER_EVENT_TIME@@@std@@@std@@QAEXXZ PROC ; std::vector<RINGMONSTER_EVENT_TIME,std::allocator<RINGMONSTER_EVENT_TIME> >::clear, COMDAT
; _this$ = ecx

; 1540 : 		this->_Orphan_all();
; 1541 : 		_Destroy(this->_Myfirst(), this->_Mylast());
; 1542 : 		this->_Mylast() = this->_Myfirst();

  00000	8b 01		 mov	 eax, DWORD PTR [ecx]
  00002	89 41 04	 mov	 DWORD PTR [ecx+4], eax

; 1543 : 		}

  00005	c3		 ret	 0
?clear@?$vector@URINGMONSTER_EVENT_TIME@@V?$allocator@URINGMONSTER_EVENT_TIME@@@std@@@std@@QAEXXZ ENDP ; std::vector<RINGMONSTER_EVENT_TIME,std::allocator<RINGMONSTER_EVENT_TIME> >::clear
_TEXT	ENDS
; Function compile flags: /Ogtp
; File c:\program files (x86)\microsoft visual studio 14.0\vc\include\vector
; File c:\program files (x86)\microsoft visual studio 14.0\vc\include\xutility
; File c:\program files (x86)\microsoft visual studio 14.0\vc\include\vector
;	COMDAT ?erase@?$vector@URINGMONSTER_EVENT_TIME@@V?$allocator@URINGMONSTER_EVENT_TIME@@@std@@@std@@QAE?AV?$_Vector_iterator@V?$_Vector_val@U?$_Simple_types@URINGMONSTER_EVENT_TIME@@@std@@@std@@@2@V?$_Vector_const_iterator@V?$_Vector_val@U?$_Simple_types@URINGMONSTER_EVENT_TIME@@@std@@@std@@@2@0@Z
_TEXT	SEGMENT
___$ReturnUdt$ = 8					; size = 4
__First_arg$ = 12					; size = 4
__Last_arg$ = 16					; size = 4
?erase@?$vector@URINGMONSTER_EVENT_TIME@@V?$allocator@URINGMONSTER_EVENT_TIME@@@std@@@std@@QAE?AV?$_Vector_iterator@V?$_Vector_val@U?$_Simple_types@URINGMONSTER_EVENT_TIME@@@std@@@std@@@2@V?$_Vector_const_iterator@V?$_Vector_val@U?$_Simple_types@URINGMONSTER_EVENT_TIME@@@std@@@std@@@2@0@Z PROC ; std::vector<RINGMONSTER_EVENT_TIME,std::allocator<RINGMONSTER_EVENT_TIME> >::erase, COMDAT
; _this$ = ecx

; 1495 : 		{	// erase [_First, _Last)

  00000	55		 push	 ebp
  00001	8b ec		 mov	 ebp, esp

; 47   : 		{	// construct with pointer _Parg
; 48   : 		this->_Adopt(_Pvector);
; 49   : 		}
; 50   : 
; 51   : 	typedef pointer _Unchecked_type;
; 52   : 
; 53   : 	_Myiter& _Rechecked(_Unchecked_type _Right)
; 54   : 		{	// reset from unchecked iterator
; 55   : 		this->_Ptr = (_Tptr)_Right;
; 56   : 		return (*this);
; 57   : 		}
; 58   : 
; 59   : 	_Unchecked_type _Unchecked() const
; 60   : 		{	// make an unchecked iterator
; 61   : 		return (_Unchecked_type(this->_Ptr));
; 62   : 		}
; 63   : 
; 64   : 	reference operator*() const
; 65   : 		{	// return designated object
; 66   :  #if _ITERATOR_DEBUG_LEVEL == 2
; 67   : 		if (this->_Getcont() == 0
; 68   : 			|| this->_Ptr == 0
; 69   : 			|| this->_Ptr < ((_Myvec *)this->_Getcont())->_Myfirst
; 70   : 			|| ((_Myvec *)this->_Getcont())->_Mylast <= this->_Ptr)
; 71   : 			{	// report error
; 72   : 			_DEBUG_ERROR("vector iterator not dereferencable");
; 73   : 			_SCL_SECURE_OUT_OF_RANGE;
; 74   : 			}
; 75   : 
; 76   :  #elif _ITERATOR_DEBUG_LEVEL == 1
; 77   : 		_SCL_SECURE_VALIDATE(this->_Getcont() != 0);
; 78   : 		_SCL_SECURE_VALIDATE_RANGE(
; 79   : 			this->_Ptr != _Tptr()
; 80   : 			&& ((_Myvec *)this->_Getcont())->_Myfirst <= this->_Ptr
; 81   : 			&& this->_Ptr < ((_Myvec *)this->_Getcont())->_Mylast);
; 82   :  #endif /* _ITERATOR_DEBUG_LEVEL */
; 83   : 
; 84   : 		_Analysis_assume_(this->_Ptr != _Tptr());
; 85   : 
; 86   : 		return (*this->_Ptr);
; 87   : 		}
; 88   : 
; 89   : 	pointer operator->() const
; 90   : 		{	// return pointer to class object
; 91   : 		return (_STD pointer_traits<pointer>::pointer_to(**this));
; 92   : 		}
; 93   : 
; 94   : 	_Myiter& operator++()
; 95   : 		{	// preincrement
; 96   :  #if _ITERATOR_DEBUG_LEVEL == 2
; 97   : 		if (this->_Getcont() == 0
; 98   : 			|| this->_Ptr == 0
; 99   : 			|| ((_Myvec *)this->_Getcont())->_Mylast <= this->_Ptr)
; 100  : 			{	// report error
; 101  : 			_DEBUG_ERROR("vector iterator not incrementable");
; 102  : 			_SCL_SECURE_OUT_OF_RANGE;
; 103  : 			}
; 104  : 
; 105  :  #elif _ITERATOR_DEBUG_LEVEL == 1
; 106  : 		_SCL_SECURE_VALIDATE(this->_Getcont() != 0);
; 107  : 		_SCL_SECURE_VALIDATE_RANGE(
; 108  : 			this->_Ptr != _Tptr()
; 109  : 			&& this->_Ptr < ((_Myvec *)this->_Getcont())->_Mylast);
; 110  :  #endif /* _ITERATOR_DEBUG_LEVEL */
; 111  : 
; 112  : 		++this->_Ptr;
; 113  : 		return (*this);
; 114  : 		}
; 115  : 
; 116  : 	_Myiter operator++(int)
; 117  : 		{	// postincrement
; 118  : 		_Myiter _Tmp = *this;
; 119  : 		++*this;
; 120  : 		return (_Tmp);
; 121  : 		}
; 122  : 
; 123  : 	_Myiter& operator--()
; 124  : 		{	// predecrement
; 125  :  #if _ITERATOR_DEBUG_LEVEL == 2
; 126  : 		if (this->_Getcont() == 0
; 127  : 			|| this->_Ptr == 0
; 128  : 			|| this->_Ptr <= ((_Myvec *)this->_Getcont())->_Myfirst)
; 129  : 			{	// report error
; 130  : 			_DEBUG_ERROR("vector iterator not decrementable");
; 131  : 			_SCL_SECURE_OUT_OF_RANGE;
; 132  : 			}
; 133  : 
; 134  :  #elif _ITERATOR_DEBUG_LEVEL == 1
; 135  : 		_SCL_SECURE_VALIDATE(this->_Getcont() != 0);
; 136  : 		_SCL_SECURE_VALIDATE_RANGE(
; 137  : 			this->_Ptr != _Tptr()
; 138  : 			&& ((_Myvec *)this->_Getcont())->_Myfirst < this->_Ptr);
; 139  :  #endif /* _ITERATOR_DEBUG_LEVEL */
; 140  : 
; 141  : 		--this->_Ptr;
; 142  : 		return (*this);
; 143  : 		}
; 144  : 
; 145  : 	_Myiter operator--(int)
; 146  : 		{	// postdecrement
; 147  : 		_Myiter _Tmp = *this;
; 148  : 		--*this;
; 149  : 		return (_Tmp);
; 150  : 		}
; 151  : 
; 152  : 	_Myiter& operator+=(difference_type _Off)
; 153  : 		{	// increment by integer
; 154  :  #if _ITERATOR_DEBUG_LEVEL == 2
; 155  : 		if (this->_Getcont() == 0
; 156  : 			|| this->_Ptr + _Off < ((_Myvec *)this->_Getcont())->_Myfirst
; 157  : 			|| ((_Myvec *)this->_Getcont())->_Mylast < this->_Ptr + _Off)
; 158  : 			{	// report error
; 159  : 			_DEBUG_ERROR("vector iterator + offset out of range");
; 160  : 			_SCL_SECURE_OUT_OF_RANGE;
; 161  : 			}
; 162  : 
; 163  :  #elif _ITERATOR_DEBUG_LEVEL == 1
; 164  : 		_SCL_SECURE_VALIDATE(this->_Getcont() != 0);
; 165  : 		_SCL_SECURE_VALIDATE_RANGE(
; 166  : 			((_Myvec *)this->_Getcont())->_Myfirst <= this->_Ptr + _Off
; 167  : 			&& this->_Ptr + _Off <= ((_Myvec *)this->_Getcont())->_Mylast);
; 168  :  #endif /* _ITERATOR_DEBUG_LEVEL */
; 169  : 
; 170  : 		_Ptr += _Off;
; 171  : 		return (*this);
; 172  : 		}
; 173  : 
; 174  : 	_Myiter operator+(difference_type _Off) const
; 175  : 		{	// return this + integer
; 176  : 		_Myiter _Tmp = *this;
; 177  : 		return (_Tmp += _Off);
; 178  : 		}
; 179  : 
; 180  : 	_Myiter& operator-=(difference_type _Off)
; 181  : 		{	// decrement by integer
; 182  : 		return (*this += -_Off);
; 183  : 		}
; 184  : 
; 185  : 	_Myiter operator-(difference_type _Off) const
; 186  : 		{	// return this - integer
; 187  : 		_Myiter _Tmp = *this;
; 188  : 		return (_Tmp -= _Off);
; 189  : 		}
; 190  : 
; 191  : 	difference_type operator-(const _Myiter& _Right) const
; 192  : 		{	// return difference of iterators
; 193  : 		_Compat(_Right);
; 194  : 		return (this->_Ptr - _Right._Ptr);
; 195  : 		}
; 196  : 
; 197  : 	reference operator[](difference_type _Off) const
; 198  : 		{	// subscript
; 199  : 		return (*(*this + _Off));
; 200  : 		}
; 201  : 
; 202  : 	bool operator==(const _Myiter& _Right) const
; 203  : 		{	// test for iterator equality
; 204  : 		if (this->_Getcont() != _Right._Getcont())
; 205  : 			_Compat(_Right);
; 206  : 		return (this->_Ptr == _Right._Ptr);

  00003	8b 55 0c	 mov	 edx, DWORD PTR __First_arg$[ebp]
  00006	53		 push	 ebx

; 1495 : 		{	// erase [_First, _Last)

  00007	8b d9		 mov	 ebx, ecx
  00009	56		 push	 esi

; 1496 : 		if (_First_arg == begin() && _Last_arg == end())

  0000a	8b 75 10	 mov	 esi, DWORD PTR __Last_arg$[ebp]

; 46   : 		: _Ptr(_Parg)

  0000d	8b 03		 mov	 eax, DWORD PTR [ebx]

; 47   : 		{	// construct with pointer _Parg
; 48   : 		this->_Adopt(_Pvector);
; 49   : 		}
; 50   : 
; 51   : 	typedef pointer _Unchecked_type;
; 52   : 
; 53   : 	_Myiter& _Rechecked(_Unchecked_type _Right)
; 54   : 		{	// reset from unchecked iterator
; 55   : 		this->_Ptr = (_Tptr)_Right;
; 56   : 		return (*this);
; 57   : 		}
; 58   : 
; 59   : 	_Unchecked_type _Unchecked() const
; 60   : 		{	// make an unchecked iterator
; 61   : 		return (_Unchecked_type(this->_Ptr));
; 62   : 		}
; 63   : 
; 64   : 	reference operator*() const
; 65   : 		{	// return designated object
; 66   :  #if _ITERATOR_DEBUG_LEVEL == 2
; 67   : 		if (this->_Getcont() == 0
; 68   : 			|| this->_Ptr == 0
; 69   : 			|| this->_Ptr < ((_Myvec *)this->_Getcont())->_Myfirst
; 70   : 			|| ((_Myvec *)this->_Getcont())->_Mylast <= this->_Ptr)
; 71   : 			{	// report error
; 72   : 			_DEBUG_ERROR("vector iterator not dereferencable");
; 73   : 			_SCL_SECURE_OUT_OF_RANGE;
; 74   : 			}
; 75   : 
; 76   :  #elif _ITERATOR_DEBUG_LEVEL == 1
; 77   : 		_SCL_SECURE_VALIDATE(this->_Getcont() != 0);
; 78   : 		_SCL_SECURE_VALIDATE_RANGE(
; 79   : 			this->_Ptr != _Tptr()
; 80   : 			&& ((_Myvec *)this->_Getcont())->_Myfirst <= this->_Ptr
; 81   : 			&& this->_Ptr < ((_Myvec *)this->_Getcont())->_Mylast);
; 82   :  #endif /* _ITERATOR_DEBUG_LEVEL */
; 83   : 
; 84   : 		_Analysis_assume_(this->_Ptr != _Tptr());
; 85   : 
; 86   : 		return (*this->_Ptr);
; 87   : 		}
; 88   : 
; 89   : 	pointer operator->() const
; 90   : 		{	// return pointer to class object
; 91   : 		return (_STD pointer_traits<pointer>::pointer_to(**this));
; 92   : 		}
; 93   : 
; 94   : 	_Myiter& operator++()
; 95   : 		{	// preincrement
; 96   :  #if _ITERATOR_DEBUG_LEVEL == 2
; 97   : 		if (this->_Getcont() == 0
; 98   : 			|| this->_Ptr == 0
; 99   : 			|| ((_Myvec *)this->_Getcont())->_Mylast <= this->_Ptr)
; 100  : 			{	// report error
; 101  : 			_DEBUG_ERROR("vector iterator not incrementable");
; 102  : 			_SCL_SECURE_OUT_OF_RANGE;
; 103  : 			}
; 104  : 
; 105  :  #elif _ITERATOR_DEBUG_LEVEL == 1
; 106  : 		_SCL_SECURE_VALIDATE(this->_Getcont() != 0);
; 107  : 		_SCL_SECURE_VALIDATE_RANGE(
; 108  : 			this->_Ptr != _Tptr()
; 109  : 			&& this->_Ptr < ((_Myvec *)this->_Getcont())->_Mylast);
; 110  :  #endif /* _ITERATOR_DEBUG_LEVEL */
; 111  : 
; 112  : 		++this->_Ptr;
; 113  : 		return (*this);
; 114  : 		}
; 115  : 
; 116  : 	_Myiter operator++(int)
; 117  : 		{	// postincrement
; 118  : 		_Myiter _Tmp = *this;
; 119  : 		++*this;
; 120  : 		return (_Tmp);
; 121  : 		}
; 122  : 
; 123  : 	_Myiter& operator--()
; 124  : 		{	// predecrement
; 125  :  #if _ITERATOR_DEBUG_LEVEL == 2
; 126  : 		if (this->_Getcont() == 0
; 127  : 			|| this->_Ptr == 0
; 128  : 			|| this->_Ptr <= ((_Myvec *)this->_Getcont())->_Myfirst)
; 129  : 			{	// report error
; 130  : 			_DEBUG_ERROR("vector iterator not decrementable");
; 131  : 			_SCL_SECURE_OUT_OF_RANGE;
; 132  : 			}
; 133  : 
; 134  :  #elif _ITERATOR_DEBUG_LEVEL == 1
; 135  : 		_SCL_SECURE_VALIDATE(this->_Getcont() != 0);
; 136  : 		_SCL_SECURE_VALIDATE_RANGE(
; 137  : 			this->_Ptr != _Tptr()
; 138  : 			&& ((_Myvec *)this->_Getcont())->_Myfirst < this->_Ptr);
; 139  :  #endif /* _ITERATOR_DEBUG_LEVEL */
; 140  : 
; 141  : 		--this->_Ptr;
; 142  : 		return (*this);
; 143  : 		}
; 144  : 
; 145  : 	_Myiter operator--(int)
; 146  : 		{	// postdecrement
; 147  : 		_Myiter _Tmp = *this;
; 148  : 		--*this;
; 149  : 		return (_Tmp);
; 150  : 		}
; 151  : 
; 152  : 	_Myiter& operator+=(difference_type _Off)
; 153  : 		{	// increment by integer
; 154  :  #if _ITERATOR_DEBUG_LEVEL == 2
; 155  : 		if (this->_Getcont() == 0
; 156  : 			|| this->_Ptr + _Off < ((_Myvec *)this->_Getcont())->_Myfirst
; 157  : 			|| ((_Myvec *)this->_Getcont())->_Mylast < this->_Ptr + _Off)
; 158  : 			{	// report error
; 159  : 			_DEBUG_ERROR("vector iterator + offset out of range");
; 160  : 			_SCL_SECURE_OUT_OF_RANGE;
; 161  : 			}
; 162  : 
; 163  :  #elif _ITERATOR_DEBUG_LEVEL == 1
; 164  : 		_SCL_SECURE_VALIDATE(this->_Getcont() != 0);
; 165  : 		_SCL_SECURE_VALIDATE_RANGE(
; 166  : 			((_Myvec *)this->_Getcont())->_Myfirst <= this->_Ptr + _Off
; 167  : 			&& this->_Ptr + _Off <= ((_Myvec *)this->_Getcont())->_Mylast);
; 168  :  #endif /* _ITERATOR_DEBUG_LEVEL */
; 169  : 
; 170  : 		_Ptr += _Off;
; 171  : 		return (*this);
; 172  : 		}
; 173  : 
; 174  : 	_Myiter operator+(difference_type _Off) const
; 175  : 		{	// return this + integer
; 176  : 		_Myiter _Tmp = *this;
; 177  : 		return (_Tmp += _Off);
; 178  : 		}
; 179  : 
; 180  : 	_Myiter& operator-=(difference_type _Off)
; 181  : 		{	// decrement by integer
; 182  : 		return (*this += -_Off);
; 183  : 		}
; 184  : 
; 185  : 	_Myiter operator-(difference_type _Off) const
; 186  : 		{	// return this - integer
; 187  : 		_Myiter _Tmp = *this;
; 188  : 		return (_Tmp -= _Off);
; 189  : 		}
; 190  : 
; 191  : 	difference_type operator-(const _Myiter& _Right) const
; 192  : 		{	// return difference of iterators
; 193  : 		_Compat(_Right);
; 194  : 		return (this->_Ptr - _Right._Ptr);
; 195  : 		}
; 196  : 
; 197  : 	reference operator[](difference_type _Off) const
; 198  : 		{	// subscript
; 199  : 		return (*(*this + _Off));
; 200  : 		}
; 201  : 
; 202  : 	bool operator==(const _Myiter& _Right) const
; 203  : 		{	// test for iterator equality
; 204  : 		if (this->_Getcont() != _Right._Getcont())
; 205  : 			_Compat(_Right);
; 206  : 		return (this->_Ptr == _Right._Ptr);

  0000f	3b d0		 cmp	 edx, eax

; 1496 : 		if (_First_arg == begin() && _Last_arg == end())

  00011	75 13		 jne	 SHORT $LN2@erase

; 47   : 		{	// construct with pointer _Parg
; 48   : 		this->_Adopt(_Pvector);
; 49   : 		}
; 50   : 
; 51   : 	typedef pointer _Unchecked_type;
; 52   : 
; 53   : 	_Myiter& _Rechecked(_Unchecked_type _Right)
; 54   : 		{	// reset from unchecked iterator
; 55   : 		this->_Ptr = (_Tptr)_Right;
; 56   : 		return (*this);
; 57   : 		}
; 58   : 
; 59   : 	_Unchecked_type _Unchecked() const
; 60   : 		{	// make an unchecked iterator
; 61   : 		return (_Unchecked_type(this->_Ptr));
; 62   : 		}
; 63   : 
; 64   : 	reference operator*() const
; 65   : 		{	// return designated object
; 66   :  #if _ITERATOR_DEBUG_LEVEL == 2
; 67   : 		if (this->_Getcont() == 0
; 68   : 			|| this->_Ptr == 0
; 69   : 			|| this->_Ptr < ((_Myvec *)this->_Getcont())->_Myfirst
; 70   : 			|| ((_Myvec *)this->_Getcont())->_Mylast <= this->_Ptr)
; 71   : 			{	// report error
; 72   : 			_DEBUG_ERROR("vector iterator not dereferencable");
; 73   : 			_SCL_SECURE_OUT_OF_RANGE;
; 74   : 			}
; 75   : 
; 76   :  #elif _ITERATOR_DEBUG_LEVEL == 1
; 77   : 		_SCL_SECURE_VALIDATE(this->_Getcont() != 0);
; 78   : 		_SCL_SECURE_VALIDATE_RANGE(
; 79   : 			this->_Ptr != _Tptr()
; 80   : 			&& ((_Myvec *)this->_Getcont())->_Myfirst <= this->_Ptr
; 81   : 			&& this->_Ptr < ((_Myvec *)this->_Getcont())->_Mylast);
; 82   :  #endif /* _ITERATOR_DEBUG_LEVEL */
; 83   : 
; 84   : 		_Analysis_assume_(this->_Ptr != _Tptr());
; 85   : 
; 86   : 		return (*this->_Ptr);
; 87   : 		}
; 88   : 
; 89   : 	pointer operator->() const
; 90   : 		{	// return pointer to class object
; 91   : 		return (_STD pointer_traits<pointer>::pointer_to(**this));
; 92   : 		}
; 93   : 
; 94   : 	_Myiter& operator++()
; 95   : 		{	// preincrement
; 96   :  #if _ITERATOR_DEBUG_LEVEL == 2
; 97   : 		if (this->_Getcont() == 0
; 98   : 			|| this->_Ptr == 0
; 99   : 			|| ((_Myvec *)this->_Getcont())->_Mylast <= this->_Ptr)
; 100  : 			{	// report error
; 101  : 			_DEBUG_ERROR("vector iterator not incrementable");
; 102  : 			_SCL_SECURE_OUT_OF_RANGE;
; 103  : 			}
; 104  : 
; 105  :  #elif _ITERATOR_DEBUG_LEVEL == 1
; 106  : 		_SCL_SECURE_VALIDATE(this->_Getcont() != 0);
; 107  : 		_SCL_SECURE_VALIDATE_RANGE(
; 108  : 			this->_Ptr != _Tptr()
; 109  : 			&& this->_Ptr < ((_Myvec *)this->_Getcont())->_Mylast);
; 110  :  #endif /* _ITERATOR_DEBUG_LEVEL */
; 111  : 
; 112  : 		++this->_Ptr;
; 113  : 		return (*this);
; 114  : 		}
; 115  : 
; 116  : 	_Myiter operator++(int)
; 117  : 		{	// postincrement
; 118  : 		_Myiter _Tmp = *this;
; 119  : 		++*this;
; 120  : 		return (_Tmp);
; 121  : 		}
; 122  : 
; 123  : 	_Myiter& operator--()
; 124  : 		{	// predecrement
; 125  :  #if _ITERATOR_DEBUG_LEVEL == 2
; 126  : 		if (this->_Getcont() == 0
; 127  : 			|| this->_Ptr == 0
; 128  : 			|| this->_Ptr <= ((_Myvec *)this->_Getcont())->_Myfirst)
; 129  : 			{	// report error
; 130  : 			_DEBUG_ERROR("vector iterator not decrementable");
; 131  : 			_SCL_SECURE_OUT_OF_RANGE;
; 132  : 			}
; 133  : 
; 134  :  #elif _ITERATOR_DEBUG_LEVEL == 1
; 135  : 		_SCL_SECURE_VALIDATE(this->_Getcont() != 0);
; 136  : 		_SCL_SECURE_VALIDATE_RANGE(
; 137  : 			this->_Ptr != _Tptr()
; 138  : 			&& ((_Myvec *)this->_Getcont())->_Myfirst < this->_Ptr);
; 139  :  #endif /* _ITERATOR_DEBUG_LEVEL */
; 140  : 
; 141  : 		--this->_Ptr;
; 142  : 		return (*this);
; 143  : 		}
; 144  : 
; 145  : 	_Myiter operator--(int)
; 146  : 		{	// postdecrement
; 147  : 		_Myiter _Tmp = *this;
; 148  : 		--*this;
; 149  : 		return (_Tmp);
; 150  : 		}
; 151  : 
; 152  : 	_Myiter& operator+=(difference_type _Off)
; 153  : 		{	// increment by integer
; 154  :  #if _ITERATOR_DEBUG_LEVEL == 2
; 155  : 		if (this->_Getcont() == 0
; 156  : 			|| this->_Ptr + _Off < ((_Myvec *)this->_Getcont())->_Myfirst
; 157  : 			|| ((_Myvec *)this->_Getcont())->_Mylast < this->_Ptr + _Off)
; 158  : 			{	// report error
; 159  : 			_DEBUG_ERROR("vector iterator + offset out of range");
; 160  : 			_SCL_SECURE_OUT_OF_RANGE;
; 161  : 			}
; 162  : 
; 163  :  #elif _ITERATOR_DEBUG_LEVEL == 1
; 164  : 		_SCL_SECURE_VALIDATE(this->_Getcont() != 0);
; 165  : 		_SCL_SECURE_VALIDATE_RANGE(
; 166  : 			((_Myvec *)this->_Getcont())->_Myfirst <= this->_Ptr + _Off
; 167  : 			&& this->_Ptr + _Off <= ((_Myvec *)this->_Getcont())->_Mylast);
; 168  :  #endif /* _ITERATOR_DEBUG_LEVEL */
; 169  : 
; 170  : 		_Ptr += _Off;
; 171  : 		return (*this);
; 172  : 		}
; 173  : 
; 174  : 	_Myiter operator+(difference_type _Off) const
; 175  : 		{	// return this + integer
; 176  : 		_Myiter _Tmp = *this;
; 177  : 		return (_Tmp += _Off);
; 178  : 		}
; 179  : 
; 180  : 	_Myiter& operator-=(difference_type _Off)
; 181  : 		{	// decrement by integer
; 182  : 		return (*this += -_Off);
; 183  : 		}
; 184  : 
; 185  : 	_Myiter operator-(difference_type _Off) const
; 186  : 		{	// return this - integer
; 187  : 		_Myiter _Tmp = *this;
; 188  : 		return (_Tmp -= _Off);
; 189  : 		}
; 190  : 
; 191  : 	difference_type operator-(const _Myiter& _Right) const
; 192  : 		{	// return difference of iterators
; 193  : 		_Compat(_Right);
; 194  : 		return (this->_Ptr - _Right._Ptr);
; 195  : 		}
; 196  : 
; 197  : 	reference operator[](difference_type _Off) const
; 198  : 		{	// subscript
; 199  : 		return (*(*this + _Off));
; 200  : 		}
; 201  : 
; 202  : 	bool operator==(const _Myiter& _Right) const
; 203  : 		{	// test for iterator equality
; 204  : 		if (this->_Getcont() != _Right._Getcont())
; 205  : 			_Compat(_Right);
; 206  : 		return (this->_Ptr == _Right._Ptr);

  00013	3b 73 04	 cmp	 esi, DWORD PTR [ebx+4]

; 1496 : 		if (_First_arg == begin() && _Last_arg == end())

  00016	75 0e		 jne	 SHORT $LN2@erase

; 1525 : 
; 1526 : 	void _Pop_back_n(size_type _Count)
; 1527 : 		{	// erase _Count elements at end
; 1528 : 		pointer _Ptr = this->_Mylast() - _Count;
; 1529 : 
; 1530 :  #if _ITERATOR_DEBUG_LEVEL == 2
; 1531 : 		_Orphan_range(_Ptr, this->_Mylast());
; 1532 :  #endif /* _ITERATOR_DEBUG_LEVEL == 2 */
; 1533 : 
; 1534 : 		_Destroy(_Ptr, this->_Mylast());
; 1535 : 		this->_Mylast() = _Ptr;
; 1536 : 		}
; 1537 : 
; 1538 : 	void clear() _NOEXCEPT
; 1539 : 		{	// erase all
; 1540 : 		this->_Orphan_all();
; 1541 : 		_Destroy(this->_Myfirst(), this->_Mylast());
; 1542 : 		this->_Mylast() = this->_Myfirst();

  00018	89 43 04	 mov	 DWORD PTR [ebx+4], eax

; 46   : 		: _Ptr(_Parg)

  0001b	8b 45 08	 mov	 eax, DWORD PTR ___$ReturnUdt$[ebp]
  0001e	5e		 pop	 esi
  0001f	5b		 pop	 ebx
  00020	89 10		 mov	 DWORD PTR [eax], edx

; 1521 : 				}
; 1522 : 			}
; 1523 : 		return (_Make_iter(_First_arg));
; 1524 : 		}

  00022	5d		 pop	 ebp
  00023	c2 0c 00	 ret	 12			; 0000000cH
$LN2@erase:

; 47   : 		{	// construct with pointer _Parg
; 48   : 		this->_Adopt(_Pvector);
; 49   : 		}
; 50   : 
; 51   : 	typedef pointer _Unchecked_type;
; 52   : 
; 53   : 	_Myiter& _Rechecked(_Unchecked_type _Right)
; 54   : 		{	// reset from unchecked iterator
; 55   : 		this->_Ptr = (_Tptr)_Right;
; 56   : 		return (*this);
; 57   : 		}
; 58   : 
; 59   : 	_Unchecked_type _Unchecked() const
; 60   : 		{	// make an unchecked iterator
; 61   : 		return (_Unchecked_type(this->_Ptr));
; 62   : 		}
; 63   : 
; 64   : 	reference operator*() const
; 65   : 		{	// return designated object
; 66   :  #if _ITERATOR_DEBUG_LEVEL == 2
; 67   : 		if (this->_Getcont() == 0
; 68   : 			|| this->_Ptr == 0
; 69   : 			|| this->_Ptr < ((_Myvec *)this->_Getcont())->_Myfirst
; 70   : 			|| ((_Myvec *)this->_Getcont())->_Mylast <= this->_Ptr)
; 71   : 			{	// report error
; 72   : 			_DEBUG_ERROR("vector iterator not dereferencable");
; 73   : 			_SCL_SECURE_OUT_OF_RANGE;
; 74   : 			}
; 75   : 
; 76   :  #elif _ITERATOR_DEBUG_LEVEL == 1
; 77   : 		_SCL_SECURE_VALIDATE(this->_Getcont() != 0);
; 78   : 		_SCL_SECURE_VALIDATE_RANGE(
; 79   : 			this->_Ptr != _Tptr()
; 80   : 			&& ((_Myvec *)this->_Getcont())->_Myfirst <= this->_Ptr
; 81   : 			&& this->_Ptr < ((_Myvec *)this->_Getcont())->_Mylast);
; 82   :  #endif /* _ITERATOR_DEBUG_LEVEL */
; 83   : 
; 84   : 		_Analysis_assume_(this->_Ptr != _Tptr());
; 85   : 
; 86   : 		return (*this->_Ptr);
; 87   : 		}
; 88   : 
; 89   : 	pointer operator->() const
; 90   : 		{	// return pointer to class object
; 91   : 		return (_STD pointer_traits<pointer>::pointer_to(**this));
; 92   : 		}
; 93   : 
; 94   : 	_Myiter& operator++()
; 95   : 		{	// preincrement
; 96   :  #if _ITERATOR_DEBUG_LEVEL == 2
; 97   : 		if (this->_Getcont() == 0
; 98   : 			|| this->_Ptr == 0
; 99   : 			|| ((_Myvec *)this->_Getcont())->_Mylast <= this->_Ptr)
; 100  : 			{	// report error
; 101  : 			_DEBUG_ERROR("vector iterator not incrementable");
; 102  : 			_SCL_SECURE_OUT_OF_RANGE;
; 103  : 			}
; 104  : 
; 105  :  #elif _ITERATOR_DEBUG_LEVEL == 1
; 106  : 		_SCL_SECURE_VALIDATE(this->_Getcont() != 0);
; 107  : 		_SCL_SECURE_VALIDATE_RANGE(
; 108  : 			this->_Ptr != _Tptr()
; 109  : 			&& this->_Ptr < ((_Myvec *)this->_Getcont())->_Mylast);
; 110  :  #endif /* _ITERATOR_DEBUG_LEVEL */
; 111  : 
; 112  : 		++this->_Ptr;
; 113  : 		return (*this);
; 114  : 		}
; 115  : 
; 116  : 	_Myiter operator++(int)
; 117  : 		{	// postincrement
; 118  : 		_Myiter _Tmp = *this;
; 119  : 		++*this;
; 120  : 		return (_Tmp);
; 121  : 		}
; 122  : 
; 123  : 	_Myiter& operator--()
; 124  : 		{	// predecrement
; 125  :  #if _ITERATOR_DEBUG_LEVEL == 2
; 126  : 		if (this->_Getcont() == 0
; 127  : 			|| this->_Ptr == 0
; 128  : 			|| this->_Ptr <= ((_Myvec *)this->_Getcont())->_Myfirst)
; 129  : 			{	// report error
; 130  : 			_DEBUG_ERROR("vector iterator not decrementable");
; 131  : 			_SCL_SECURE_OUT_OF_RANGE;
; 132  : 			}
; 133  : 
; 134  :  #elif _ITERATOR_DEBUG_LEVEL == 1
; 135  : 		_SCL_SECURE_VALIDATE(this->_Getcont() != 0);
; 136  : 		_SCL_SECURE_VALIDATE_RANGE(
; 137  : 			this->_Ptr != _Tptr()
; 138  : 			&& ((_Myvec *)this->_Getcont())->_Myfirst < this->_Ptr);
; 139  :  #endif /* _ITERATOR_DEBUG_LEVEL */
; 140  : 
; 141  : 		--this->_Ptr;
; 142  : 		return (*this);
; 143  : 		}
; 144  : 
; 145  : 	_Myiter operator--(int)
; 146  : 		{	// postdecrement
; 147  : 		_Myiter _Tmp = *this;
; 148  : 		--*this;
; 149  : 		return (_Tmp);
; 150  : 		}
; 151  : 
; 152  : 	_Myiter& operator+=(difference_type _Off)
; 153  : 		{	// increment by integer
; 154  :  #if _ITERATOR_DEBUG_LEVEL == 2
; 155  : 		if (this->_Getcont() == 0
; 156  : 			|| this->_Ptr + _Off < ((_Myvec *)this->_Getcont())->_Myfirst
; 157  : 			|| ((_Myvec *)this->_Getcont())->_Mylast < this->_Ptr + _Off)
; 158  : 			{	// report error
; 159  : 			_DEBUG_ERROR("vector iterator + offset out of range");
; 160  : 			_SCL_SECURE_OUT_OF_RANGE;
; 161  : 			}
; 162  : 
; 163  :  #elif _ITERATOR_DEBUG_LEVEL == 1
; 164  : 		_SCL_SECURE_VALIDATE(this->_Getcont() != 0);
; 165  : 		_SCL_SECURE_VALIDATE_RANGE(
; 166  : 			((_Myvec *)this->_Getcont())->_Myfirst <= this->_Ptr + _Off
; 167  : 			&& this->_Ptr + _Off <= ((_Myvec *)this->_Getcont())->_Mylast);
; 168  :  #endif /* _ITERATOR_DEBUG_LEVEL */
; 169  : 
; 170  : 		_Ptr += _Off;
; 171  : 		return (*this);
; 172  : 		}
; 173  : 
; 174  : 	_Myiter operator+(difference_type _Off) const
; 175  : 		{	// return this + integer
; 176  : 		_Myiter _Tmp = *this;
; 177  : 		return (_Tmp += _Off);
; 178  : 		}
; 179  : 
; 180  : 	_Myiter& operator-=(difference_type _Off)
; 181  : 		{	// decrement by integer
; 182  : 		return (*this += -_Off);
; 183  : 		}
; 184  : 
; 185  : 	_Myiter operator-(difference_type _Off) const
; 186  : 		{	// return this - integer
; 187  : 		_Myiter _Tmp = *this;
; 188  : 		return (_Tmp -= _Off);
; 189  : 		}
; 190  : 
; 191  : 	difference_type operator-(const _Myiter& _Right) const
; 192  : 		{	// return difference of iterators
; 193  : 		_Compat(_Right);
; 194  : 		return (this->_Ptr - _Right._Ptr);
; 195  : 		}
; 196  : 
; 197  : 	reference operator[](difference_type _Off) const
; 198  : 		{	// subscript
; 199  : 		return (*(*this + _Off));
; 200  : 		}
; 201  : 
; 202  : 	bool operator==(const _Myiter& _Right) const
; 203  : 		{	// test for iterator equality
; 204  : 		if (this->_Getcont() != _Right._Getcont())
; 205  : 			_Compat(_Right);
; 206  : 		return (this->_Ptr == _Right._Ptr);

  00026	3b d6		 cmp	 edx, esi

; 1497 : 			clear();
; 1498 : 		else if (_First_arg != _Last_arg)

  00028	74 25		 je	 SHORT $LN219@erase

; 1499 : 			{	// clear partial
; 1500 : 			iterator _First = _Make_iter(_First_arg);
; 1501 : 			iterator _Last = _Make_iter(_Last_arg);
; 1502 : 
; 1503 : 			if (_First != _Last)
; 1504 : 				{	// worth doing, copy down over hole
; 1505 :  #if _ITERATOR_DEBUG_LEVEL == 2
; 1506 : 				if (_Last < _First || _VICONT(_First) != &this->_Get_data()
; 1507 : 					|| _VIPTR(_First) < this->_Myfirst()
; 1508 : 					|| this->_Mylast() < _VIPTR(_Last))
; 1509 : 					_DEBUG_ERROR("vector erase iterator outside range");
; 1510 : 				pointer _Ptr = _Move(_VIPTR(_Last), this->_Mylast(),
; 1511 : 					_VIPTR(_First));
; 1512 : 				_Orphan_range(_VIPTR(_First), this->_Mylast());
; 1513 : 
; 1514 :  #else /* _ITERATOR_DEBUG_LEVEL == 2 */
; 1515 : 				pointer _Ptr = _Move(_VIPTR(_Last), this->_Mylast(),

  0002a	57		 push	 edi
  0002b	8b 7b 04	 mov	 edi, DWORD PTR [ebx+4]
; File c:\program files (x86)\microsoft visual studio 14.0\vc\include\xutility

; 2538 : 	return (_Move(_First, _Last,

  0002e	8b ca		 mov	 ecx, edx

; 2517 : 	for (; _First != _Last; ++_Dest, (void)++_First)

  00030	3b f7		 cmp	 esi, edi
  00032	74 17		 je	 SHORT $LN177@erase
$LL178@erase:

; 2518 : 		*_Dest = _STD move(*_First);

  00034	8b 06		 mov	 eax, DWORD PTR [esi]
  00036	89 01		 mov	 DWORD PTR [ecx], eax
  00038	8b 46 04	 mov	 eax, DWORD PTR [esi+4]
  0003b	83 c6 08	 add	 esi, 8
  0003e	89 41 04	 mov	 DWORD PTR [ecx+4], eax
  00041	83 c1 08	 add	 ecx, 8
  00044	3b f7		 cmp	 esi, edi
  00046	75 ec		 jne	 SHORT $LL178@erase

; 2517 : 	for (; _First != _Last; ++_Dest, (void)++_First)

  00048	8b 55 0c	 mov	 edx, DWORD PTR __First_arg$[ebp]
$LN177@erase:
; File c:\program files (x86)\microsoft visual studio 14.0\vc\include\vector

; 1520 : 				this->_Mylast() = _Ptr;

  0004b	89 4b 04	 mov	 DWORD PTR [ebx+4], ecx
  0004e	5f		 pop	 edi
$LN219@erase:

; 46   : 		: _Ptr(_Parg)

  0004f	8b 45 08	 mov	 eax, DWORD PTR ___$ReturnUdt$[ebp]
  00052	5e		 pop	 esi
  00053	5b		 pop	 ebx
  00054	89 10		 mov	 DWORD PTR [eax], edx

; 1521 : 				}
; 1522 : 			}
; 1523 : 		return (_Make_iter(_First_arg));
; 1524 : 		}

  00056	5d		 pop	 ebp
  00057	c2 0c 00	 ret	 12			; 0000000cH
?erase@?$vector@URINGMONSTER_EVENT_TIME@@V?$allocator@URINGMONSTER_EVENT_TIME@@@std@@@std@@QAE?AV?$_Vector_iterator@V?$_Vector_val@U?$_Simple_types@URINGMONSTER_EVENT_TIME@@@std@@@std@@@2@V?$_Vector_const_iterator@V?$_Vector_val@U?$_Simple_types@URINGMONSTER_EVENT_TIME@@@std@@@std@@@2@0@Z ENDP ; std::vector<RINGMONSTER_EVENT_TIME,std::allocator<RINGMONSTER_EVENT_TIME> >::erase
_TEXT	ENDS
; Function compile flags: /Ogtp
; File c:\program files (x86)\microsoft visual studio 14.0\vc\include\vector
; File c:\program files (x86)\microsoft visual studio 14.0\vc\include\xmemory0
; File c:\program files (x86)\microsoft visual studio 14.0\vc\include\vector
; File c:\program files (x86)\microsoft visual studio 14.0\vc\include\xmemory0
; File c:\program files (x86)\microsoft visual studio 14.0\vc\include\vector
;	COMDAT ?push_back@?$vector@URINGMONSTER_EVENT_TIME@@V?$allocator@URINGMONSTER_EVENT_TIME@@@std@@@std@@QAEXABURINGMONSTER_EVENT_TIME@@@Z
_TEXT	SEGMENT
__Val$ = 8						; size = 4
?push_back@?$vector@URINGMONSTER_EVENT_TIME@@V?$allocator@URINGMONSTER_EVENT_TIME@@@std@@@std@@QAEXABURINGMONSTER_EVENT_TIME@@@Z PROC ; std::vector<RINGMONSTER_EVENT_TIME,std::allocator<RINGMONSTER_EVENT_TIME> >::push_back, COMDAT
; _this$ = ecx

; 1274 : 		{	// insert element at end

  00000	55		 push	 ebp
  00001	8b ec		 mov	 ebp, esp
  00003	56		 push	 esi
  00004	8b f1		 mov	 esi, ecx
  00006	57		 push	 edi

; 1295 : 
; 1296 :  #if _ITERATOR_DEBUG_LEVEL == 2
; 1297 : 	void pop_back()
; 1298 : 		{	// erase element at end
; 1299 : 		if (empty())
; 1300 : 			_DEBUG_ERROR("vector empty before pop");
; 1301 : 		else
; 1302 : 			{	// erase last element
; 1303 : 			_Orphan_range(this->_Mylast() - 1, this->_Mylast());
; 1304 : 			this->_Getal().destroy(this->_Mylast() - 1);
; 1305 : 			--this->_Mylast();
; 1306 : 			}
; 1307 : 		}
; 1308 : 
; 1309 :  #else /* _ITERATOR_DEBUG_LEVEL == 2 */
; 1310 : 	void pop_back()
; 1311 : 		{	// erase element at end
; 1312 : 		this->_Getal().destroy(this->_Mylast() - 1);
; 1313 : 		--this->_Mylast();
; 1314 : 		}
; 1315 :  #endif /* _ITERATOR_DEBUG_LEVEL == 2 */
; 1316 : 
; 1317 : 	template<class _Iter>
; 1318 : 		typename enable_if<_Is_iterator<_Iter>::value,
; 1319 : 			void>::type
; 1320 : 		assign(_Iter _First, _Iter _Last)
; 1321 : 		{	// assign [_First, _Last)
; 1322 : 		clear();
; 1323 : 		_Assign(_First, _Last, _Iter_cat(_First));
; 1324 : 		}
; 1325 : 
; 1326 : 	template<class _Iter>
; 1327 : 		void _Assign(_Iter _First, _Iter _Last,
; 1328 : 			input_iterator_tag)
; 1329 : 		{	// assign [_First, _Last), input iterators
; 1330 : 		for (; _First != _Last; ++_First)
; 1331 : 			emplace_back(*_First);
; 1332 : 		}
; 1333 : 
; 1334 : 	template<class _Iter>
; 1335 : 		void _Assign(_Iter _First, _Iter _Last,
; 1336 : 			forward_iterator_tag)
; 1337 : 		{	// assign [_First, _Last), forward iterators
; 1338 : 		size_type _Newsize = _STD distance(_First, _Last);
; 1339 : 
; 1340 : 		if (capacity() < _Newsize)
; 1341 : 			{	// need more room, try to get it
; 1342 : 			size_type _Newcapacity = _Grow_to(_Newsize);
; 1343 : 			_Tidy();
; 1344 : 			_Buy(_Newcapacity);
; 1345 : 			}
; 1346 : 
; 1347 : 		this->_Mylast() = _Ucopy(_First, _Last, this->_Myfirst());
; 1348 : 		}
; 1349 : 
; 1350 : 	void assign(size_type _Count, const value_type& _Val)
; 1351 : 		{	// assign _Count * _Val
; 1352 : 		clear();
; 1353 : 		insert(begin(), _Count, _Val);
; 1354 : 		}
; 1355 : 
; 1356 : 	iterator insert(const_iterator _Where, const _Ty& _Val)
; 1357 : 		{	// insert _Val at _Where
; 1358 : 		return (_Insert_n(_Where, (size_type)1, _Val));
; 1359 : 		}
; 1360 : 
; 1361 : 	iterator insert(const_iterator _Where, size_type _Count,
; 1362 : 		const _Ty& _Val)
; 1363 : 		{	// insert _Count * _Val at _Where
; 1364 : 		return (_Insert_n(_Where, _Count, _Val));
; 1365 : 		}
; 1366 : 
; 1367 : 	template<class _Iter>
; 1368 : 		typename enable_if<_Is_iterator<_Iter>::value,
; 1369 : 			iterator>::type
; 1370 : 		insert(const_iterator _Where, _Iter _First, _Iter _Last)
; 1371 : 		{	// insert [_First, _Last) at _Where
; 1372 : 		size_type _Off = _VIPTR(_Where) - this->_Myfirst();
; 1373 : 		_Insert(_Where, _First, _Last, _Iter_cat(_First));
; 1374 : 		return (begin() + _Off);
; 1375 : 		}
; 1376 : 
; 1377 : 	template<class _Iter>
; 1378 : 		void _Insert(const_iterator _Where,
; 1379 : 			_Iter _First, _Iter _Last,
; 1380 : 				input_iterator_tag)
; 1381 : 		{	// insert [_First, _Last) at _Where, input iterators
; 1382 : 		size_type _Off = _VIPTR(_Where) - this->_Myfirst();
; 1383 : 
; 1384 :  #if _ITERATOR_DEBUG_LEVEL == 2
; 1385 : 		if (size() < _Off)
; 1386 : 			_DEBUG_ERROR("vector insert iterator outside range");
; 1387 :  #endif /* _ITERATOR_DEBUG_LEVEL == 2 */
; 1388 : 
; 1389 : 		if (_First != _Last)
; 1390 : 			{	// worth doing, gather at end and rotate into place
; 1391 : 			size_type _Oldsize = size();
; 1392 : 
; 1393 : 			_TRY_BEGIN
; 1394 : 			for (; _First != _Last; ++_First)
; 1395 : 				push_back(*_First);	// append
; 1396 : 
; 1397 : 			_CATCH_ALL
; 1398 : 			erase(begin() + _Oldsize, end());
; 1399 : 			_RERAISE;
; 1400 : 			_CATCH_END
; 1401 : 
; 1402 : 			_STD rotate(begin() + _Off, begin() + _Oldsize, end());
; 1403 : 			}
; 1404 : 		}
; 1405 : 
; 1406 : 	template<class _Iter>
; 1407 : 		void _Insert(const_iterator _Where,
; 1408 : 			_Iter _First, _Iter _Last,
; 1409 : 				forward_iterator_tag)
; 1410 : 		{	// insert [_First, _Last) at _Where, forward iterators
; 1411 :  #if _ITERATOR_DEBUG_LEVEL == 2
; 1412 : 		if (_VICONT(_Where) != &this->_Get_data()
; 1413 : 			|| _VIPTR(_Where) < this->_Myfirst()
; 1414 : 			|| this->_Mylast() < _VIPTR(_Where))
; 1415 : 			_DEBUG_ERROR("vector insert iterator outside range");
; 1416 : 		_DEBUG_RANGE(_First, _Last);
; 1417 :  #endif /* _ITERATOR_DEBUG_LEVEL == 2 */
; 1418 : 
; 1419 : 		size_type _Count = 0;
; 1420 : 		_Distance(_First, _Last, _Count);
; 1421 : 
; 1422 : 		if (_Count == 0)
; 1423 : 			;
; 1424 : 		else if (_Unused_capacity() < _Count)
; 1425 : 			{	// not enough room, reallocate
; 1426 : 			if (max_size() - size() < _Count)
; 1427 : 				_Xlen();	// result too long
; 1428 : 
; 1429 : 			size_type _Capacity = _Grow_to(size() + _Count);
; 1430 : 			pointer _Newvec = this->_Getal().allocate(_Capacity);
; 1431 : 			pointer _Ptr = _Newvec;
; 1432 : 
; 1433 : 			_TRY_BEGIN
; 1434 : 			_Ptr = _Umove(this->_Myfirst(), _VIPTR(_Where),
; 1435 : 				_Newvec);	// copy prefix
; 1436 : 			_Ptr = _Ucopy(_First, _Last, _Ptr);	// add new stuff
; 1437 : 			_Umove(_VIPTR(_Where), this->_Mylast(),
; 1438 : 				_Ptr);	// copy suffix
; 1439 : 			_CATCH_ALL
; 1440 : 			_Destroy(_Newvec, _Ptr);
; 1441 : 			this->_Getal().deallocate(_Newvec, _Capacity);
; 1442 : 			_RERAISE;
; 1443 : 			_CATCH_END
; 1444 : 
; 1445 : 			_Count += size();
; 1446 : 			if (this->_Myfirst() != pointer())
; 1447 : 				{	// destroy and deallocate old array
; 1448 : 				_Destroy(this->_Myfirst(), this->_Mylast());
; 1449 : 				this->_Getal().deallocate(this->_Myfirst(),
; 1450 : 					this->_Myend() - this->_Myfirst());
; 1451 : 				}
; 1452 : 
; 1453 : 			this->_Orphan_all();
; 1454 : 			this->_Myend() = _Newvec + _Capacity;
; 1455 : 			this->_Mylast() = _Newvec + _Count;
; 1456 : 			this->_Myfirst() = _Newvec;
; 1457 : 			}
; 1458 : 		else
; 1459 : 			{	// new stuff fits, append and rotate into place
; 1460 : 			_Ucopy(_First, _Last, this->_Mylast());
; 1461 : 			_STD rotate(_VIPTR(_Where), this->_Mylast(),
; 1462 : 				this->_Mylast() + _Count);
; 1463 : 			this->_Mylast() += _Count;
; 1464 : 			_Orphan_range(_VIPTR(_Where), this->_Mylast());
; 1465 : 			}
; 1466 : 		}
; 1467 : 
; 1468 :  #if _ITERATOR_DEBUG_LEVEL == 2
; 1469 : 	iterator erase(const_iterator _Where)
; 1470 : 		{	// erase element at where
; 1471 : 		if (_VICONT(_Where) != &this->_Get_data()
; 1472 : 			|| _VIPTR(_Where) < this->_Myfirst()
; 1473 : 			|| this->_Mylast() <= _VIPTR(_Where))
; 1474 : 			_DEBUG_ERROR("vector erase iterator outside range");
; 1475 : 		_Move(_VIPTR(_Where) + 1, this->_Mylast(), _VIPTR(_Where));
; 1476 : 		_Destroy(this->_Mylast() - 1, this->_Mylast());
; 1477 : 		_Orphan_range(_VIPTR(_Where), this->_Mylast());
; 1478 : 		--this->_Mylast();
; 1479 : 		return (_Make_iter(_Where));
; 1480 : 		}
; 1481 : 
; 1482 :  #else /* _ITERATOR_DEBUG_LEVEL == 2 */
; 1483 : 	iterator erase(const_iterator _Where)
; 1484 : 		{	// erase element at where
; 1485 : 		_Move(_VIPTR(_Where) + 1, this->_Mylast(),
; 1486 : 			_VIPTR(_Where));
; 1487 : 		_Destroy(this->_Mylast() - 1, this->_Mylast());
; 1488 : 		--this->_Mylast();
; 1489 : 		return (_Make_iter(_Where));
; 1490 : 		}
; 1491 :  #endif /* _ITERATOR_DEBUG_LEVEL == 2 */
; 1492 : 
; 1493 : 	iterator erase(const_iterator _First_arg,
; 1494 : 		const_iterator _Last_arg)
; 1495 : 		{	// erase [_First, _Last)
; 1496 : 		if (_First_arg == begin() && _Last_arg == end())
; 1497 : 			clear();
; 1498 : 		else if (_First_arg != _Last_arg)
; 1499 : 			{	// clear partial
; 1500 : 			iterator _First = _Make_iter(_First_arg);
; 1501 : 			iterator _Last = _Make_iter(_Last_arg);
; 1502 : 
; 1503 : 			if (_First != _Last)
; 1504 : 				{	// worth doing, copy down over hole
; 1505 :  #if _ITERATOR_DEBUG_LEVEL == 2
; 1506 : 				if (_Last < _First || _VICONT(_First) != &this->_Get_data()
; 1507 : 					|| _VIPTR(_First) < this->_Myfirst()
; 1508 : 					|| this->_Mylast() < _VIPTR(_Last))
; 1509 : 					_DEBUG_ERROR("vector erase iterator outside range");
; 1510 : 				pointer _Ptr = _Move(_VIPTR(_Last), this->_Mylast(),
; 1511 : 					_VIPTR(_First));
; 1512 : 				_Orphan_range(_VIPTR(_First), this->_Mylast());
; 1513 : 
; 1514 :  #else /* _ITERATOR_DEBUG_LEVEL == 2 */
; 1515 : 				pointer _Ptr = _Move(_VIPTR(_Last), this->_Mylast(),
; 1516 : 					_VIPTR(_First));
; 1517 :  #endif /* _ITERATOR_DEBUG_LEVEL == 2 */
; 1518 : 
; 1519 : 				_Destroy(_Ptr, this->_Mylast());
; 1520 : 				this->_Mylast() = _Ptr;
; 1521 : 				}
