; Listing generated by Microsoft (R) Optimizing Compiler Version 19.00.23506.0 

	TITLE	C:\Users\Michel\Desktop\Source\GameServer\Source\RingAttackEvent.cpp
	.686P
	.XMM
	include listing.inc
	.model	flat

INCLUDELIB LIBCMT
INCLUDELIB OLDNAMES

PUBLIC	?__empty_global_delete@@YAXPAX@Z		; __empty_global_delete
PUBLIC	?__empty_global_delete@@YAXPAXI@Z		; __empty_global_delete
PUBLIC	??1OBJECTSTRUCT@@QAE@XZ				; OBJECTSTRUCT::~OBJECTSTRUCT
PUBLIC	??_EOBJECTSTRUCT@@QAEPAXI@Z			; OBJECTSTRUCT::`vector deleting destructor'
PUBLIC	??0CRingMonsterHerd@@QAE@XZ			; CRingMonsterHerd::CRingMonsterHerd
PUBLIC	??1CRingMonsterHerd@@UAE@XZ			; CRingMonsterHerd::~CRingMonsterHerd
PUBLIC	?SendEventGiftWinner@CRingMonsterHerd@@QAEXHH@Z	; CRingMonsterHerd::SendEventGiftWinner
PUBLIC	?Start@CRingMonsterHerd@@UAEHXZ			; CRingMonsterHerd::Start
PUBLIC	?MonsterHerdItemDrop@CRingMonsterHerd@@UAEHPAUOBJECTSTRUCT@@@Z ; CRingMonsterHerd::MonsterHerdItemDrop
PUBLIC	?MonsterAttackAction@CRingMonsterHerd@@UAEXPAUOBJECTSTRUCT@@0@Z ; CRingMonsterHerd::MonsterAttackAction
PUBLIC	??_GCRingMonsterHerd@@UAEPAXI@Z			; CRingMonsterHerd::`scalar deleting destructor'
PUBLIC	??0CRingAttackEvent@@QAE@XZ			; CRingAttackEvent::CRingAttackEvent
PUBLIC	??1CRingAttackEvent@@UAE@XZ			; CRingAttackEvent::~CRingAttackEvent
PUBLIC	?StartEvent@CRingAttackEvent@@QAEXXZ		; CRingAttackEvent::StartEvent
PUBLIC	?StopEvent@CRingAttackEvent@@QAEXXZ		; CRingAttackEvent::StopEvent
PUBLIC	?EnableEvent@CRingAttackEvent@@QAEXH@Z		; CRingAttackEvent::EnableEvent
PUBLIC	?Run@CRingAttackEvent@@QAEXXZ			; CRingAttackEvent::Run
PUBLIC	?CheckSync@CRingAttackEvent@@QAEXXZ		; CRingAttackEvent::CheckSync
PUBLIC	?SetState@CRingAttackEvent@@QAEXH@Z		; CRingAttackEvent::SetState
PUBLIC	?ProcState_None@CRingAttackEvent@@QAEXXZ	; CRingAttackEvent::ProcState_None
PUBLIC	?ProcState_Closed@CRingAttackEvent@@QAEXXZ	; CRingAttackEvent::ProcState_Closed
PUBLIC	?ProcState_Playing@CRingAttackEvent@@QAEXXZ	; CRingAttackEvent::ProcState_Playing
PUBLIC	?SetState_None@CRingAttackEvent@@QAEXXZ		; CRingAttackEvent::SetState_None
PUBLIC	?SetState_Closed@CRingAttackEvent@@QAEXXZ	; CRingAttackEvent::SetState_Closed
PUBLIC	?SetState_Playing@CRingAttackEvent@@QAEXXZ	; CRingAttackEvent::SetState_Playing
PUBLIC	?Move@CRingAttackEvent@@QAEXXZ			; CRingAttackEvent::Move
PUBLIC	?Start_Menual@CRingAttackEvent@@QAEXXZ		; CRingAttackEvent::Start_Menual
PUBLIC	?End_Menual@CRingAttackEvent@@QAEXXZ		; CRingAttackEvent::End_Menual
PUBLIC	?Load@CRingAttackEvent@@UAEHPAD@Z		; CRingAttackEvent::Load
PUBLIC	?deallocate@?$allocator@URINGMONSTER_DATA@@@std@@QAEXPAURINGMONSTER_DATA@@I@Z ; std::allocator<RINGMONSTER_DATA>::deallocate
PUBLIC	?allocate@?$allocator@URINGMONSTER_DATA@@@std@@QAEPAURINGMONSTER_DATA@@I@Z ; std::allocator<RINGMONSTER_DATA>::allocate
PUBLIC	?push_back@?$vector@URINGMONSTER_DATA@@V?$allocator@URINGMONSTER_DATA@@@std@@@std@@QAEXABURINGMONSTER_DATA@@@Z ; std::vector<RINGMONSTER_DATA,std::allocator<RINGMONSTER_DATA> >::push_back
PUBLIC	?erase@?$vector@URINGMONSTER_DATA@@V?$allocator@URINGMONSTER_DATA@@@std@@@std@@QAE?AV?$_Vector_iterator@V?$_Vector_val@U?$_Simple_types@URINGMONSTER_DATA@@@std@@@std@@@2@V?$_Vector_const_iterator@V?$_Vector_val@U?$_Simple_types@URINGMONSTER_DATA@@@std@@@std@@@2@0@Z ; std::vector<RINGMONSTER_DATA,std::allocator<RINGMONSTER_DATA> >::erase
PUBLIC	?_Reallocate@?$vector@URINGMONSTER_DATA@@V?$allocator@URINGMONSTER_DATA@@@std@@@std@@IAEXI@Z ; std::vector<RINGMONSTER_DATA,std::allocator<RINGMONSTER_DATA> >::_Reallocate
PUBLIC	?_Reserve@?$vector@URINGMONSTER_DATA@@V?$allocator@URINGMONSTER_DATA@@@std@@@std@@IAEXI@Z ; std::vector<RINGMONSTER_DATA,std::allocator<RINGMONSTER_DATA> >::_Reserve
PUBLIC	?allocate@?$allocator@URINGMONSTER_EVENT_TIME@@@std@@QAEPAURINGMONSTER_EVENT_TIME@@I@Z ; std::allocator<RINGMONSTER_EVENT_TIME>::allocate
PUBLIC	?deallocate@?$_Wrap_alloc@V?$allocator@URINGMONSTER_EVENT_TIME@@@std@@@std@@QAEXPAURINGMONSTER_EVENT_TIME@@I@Z ; std::_Wrap_alloc<std::allocator<RINGMONSTER_EVENT_TIME> >::deallocate
PUBLIC	?erase@?$vector@URINGMONSTER_EVENT_TIME@@V?$allocator@URINGMONSTER_EVENT_TIME@@@std@@@std@@QAE?AV?$_Vector_iterator@V?$_Vector_val@U?$_Simple_types@URINGMONSTER_EVENT_TIME@@@std@@@std@@@2@V?$_Vector_const_iterator@V?$_Vector_val@U?$_Simple_types@URINGMONSTER_EVENT_TIME@@@std@@@std@@@2@0@Z ; std::vector<RINGMONSTER_EVENT_TIME,std::allocator<RINGMONSTER_EVENT_TIME> >::erase
PUBLIC	?_Reallocate@?$vector@URINGMONSTER_EVENT_TIME@@V?$allocator@URINGMONSTER_EVENT_TIME@@@std@@@std@@IAEXI@Z ; std::vector<RINGMONSTER_EVENT_TIME,std::allocator<RINGMONSTER_EVENT_TIME> >::_Reallocate
PUBLIC	?_Reserve@?$vector@URINGMONSTER_EVENT_TIME@@V?$allocator@URINGMONSTER_EVENT_TIME@@@std@@@std@@IAEXI@Z ; std::vector<RINGMONSTER_EVENT_TIME,std::allocator<RINGMONSTER_EVENT_TIME> >::_Reserve
PUBLIC	??_GCRingAttackEvent@@UAEPAXI@Z			; CRingAttackEvent::`scalar deleting destructor'
PUBLIC	??$_Uninit_move@PAURINGMONSTER_EVENT_TIME@@PAU1@V?$allocator@URINGMONSTER_EVENT_TIME@@@std@@U1@@std@@YAPAURINGMONSTER_EVENT_TIME@@PAU1@00AAU?$_Wrap_alloc@V?$allocator@URINGMONSTER_EVENT_TIME@@@std@@@0@0U_Nonscalar_ptr_iterator_tag@0@@Z ; std::_Uninit_move<RINGMONSTER_EVENT_TIME *,RINGMONSTER_EVENT_TIME *,std::allocator<RINGMONSTER_EVENT_TIME>,RINGMONSTER_EVENT_TIME>
PUBLIC	??$_Uninit_move@PAURINGMONSTER_DATA@@PAU1@V?$allocator@URINGMONSTER_DATA@@@std@@U1@@std@@YAPAURINGMONSTER_DATA@@PAU1@00AAU?$_Wrap_alloc@V?$allocator@URINGMONSTER_DATA@@@std@@@0@0U_Nonscalar_ptr_iterator_tag@0@@Z ; std::_Uninit_move<RINGMONSTER_DATA *,RINGMONSTER_DATA *,std::allocator<RINGMONSTER_DATA>,RINGMONSTER_DATA>
PUBLIC	??_7CRingMonsterHerd@@6B@			; CRingMonsterHerd::`vftable'
PUBLIC	??_7CRingAttackEvent@@6B@			; CRingAttackEvent::`vftable'
PUBLIC	??_C@_0DL@ELDBHEBB@?$FLRing?5Event?$FN?5White?5Wizard?5Killed@ ; `string'
PUBLIC	??_C@_0EA@DGMJBKOB@?$FLRing?5Event?$FN?5?$FL?$CFs?$FN?$FL?$CFs?$FN?5Request?5to@ ; `string'
PUBLIC	??_C@_0CN@EBKICF@?$FLRing?5Event?$FN?5?9?5Error?5?3?5No?5Monste@ ; `string'
PUBLIC	??_C@_0DP@FPIHCFEB@?$FLRing?5Event?$FN?5?9?5Monster?5Start?5Pos@ ; `string'
PUBLIC	??_C@_01KDCPPGHE@r?$AA@				; `string'
PUBLIC	??_C@_0CG@OKIEPGH@?$FLRing?5Event?$FN?5Info?5file?5Load?5Fail@ ; `string'
PUBLIC	??_C@_03JBJLGPFL@end?$AA@			; `string'
PUBLIC	??_C@_0O@CEHBAEMJ@?$CFs?5file?5load?$CB?$AA@	; `string'
PUBLIC	??_C@_0CD@BNKPBCAA@?$FLRing?5Event?$FN?5No?5Schedule?5Time?5Da@ ; `string'
PUBLIC	??_C@_0EG@KMBELKMF@?$FLRing?5Event?$FN?5Sync?5Start?5Time?4?5?$FL?$CF@ ; `string'
PUBLIC	??_C@_0CM@NAOFHPPM@?$FLRing?5Event?$FN?5?9?5Before?53?5minutes?5@ ; `string'
PUBLIC	??_C@_0BN@HLGPJCPM@?$FLRing?5Event?$FN?5?9?5Event?5Started?$AA@ ; `string'
PUBLIC	??_C@_0EG@MJJALBNB@?$FLRing?5Event?$FN?5?9?5per?530?8S?5Inform?5M@ ; `string'
PUBLIC	??_C@_0DK@PFGAPPAF@?$FLRing?5Event?$FN?5?9?5Monster?5Herd?5Move@ ; `string'
PUBLIC	??_C@_0BL@KELOKDGN@?$FLRing?5Event?$FN?5?9?5Event?5Ended?$AA@ ; `string'
PUBLIC	??_C@_0DB@PHNKOJF@?$KB?$NL?$KB?$NM?$FLEvent?5Management?$FN?5?$FLStart?$FN?5R@ ; `string'
PUBLIC	??_C@_0BD@OLBABOEK@vector?$DMT?$DO?5too?5long?$AA@ ; `string'
PUBLIC	??_R4CRingMonsterHerd@@6B@			; CRingMonsterHerd::`RTTI Complete Object Locator'
PUBLIC	??_R0?AVCRingMonsterHerd@@@8			; CRingMonsterHerd `RTTI Type Descriptor'
PUBLIC	??_R3CRingMonsterHerd@@8			; CRingMonsterHerd::`RTTI Class Hierarchy Descriptor'
PUBLIC	??_R2CRingMonsterHerd@@8			; CRingMonsterHerd::`RTTI Base Class Array'
PUBLIC	??_R1A@?0A@EA@CRingMonsterHerd@@8		; CRingMonsterHerd::`RTTI Base Class Descriptor at (0,-1,0,64)'
PUBLIC	??_R1A@?0A@EA@MonsterHerd@@8			; MonsterHerd::`RTTI Base Class Descriptor at (0,-1,0,64)'
PUBLIC	??_R0?AVMonsterHerd@@@8				; MonsterHerd `RTTI Type Descriptor'
PUBLIC	??_R3MonsterHerd@@8				; MonsterHerd::`RTTI Class Hierarchy Descriptor'
PUBLIC	??_R2MonsterHerd@@8				; MonsterHerd::`RTTI Base Class Array'
PUBLIC	??_R4CRingAttackEvent@@6B@			; CRingAttackEvent::`RTTI Complete Object Locator'
PUBLIC	??_R0?AVCRingAttackEvent@@@8			; CRingAttackEvent `RTTI Type Descriptor'
PUBLIC	??_R3CRingAttackEvent@@8			; CRingAttackEvent::`RTTI Class Hierarchy Descriptor'
PUBLIC	??_R2CRingAttackEvent@@8			; CRingAttackEvent::`RTTI Base Class Array'
PUBLIC	??_R1A@?0A@EA@CRingAttackEvent@@8		; CRingAttackEvent::`RTTI Base Class Descriptor at (0,-1,0,64)'
EXTRN	??_L@YGXPAXIIP6EX0@Z1@Z:PROC			; `eh vector constructor iterator'
EXTRN	??_M@YGXPAXIIP6EX0@Z@Z:PROC			; `eh vector destructor iterator'
EXTRN	??2@YAPAXI@Z:PROC				; operator new
EXTRN	??3@YAXPAX@Z:PROC				; operator delete
EXTRN	??3@YAXPAXI@Z:PROC				; operator delete
EXTRN	??_V@YAXPAXI@Z:PROC				; operator delete[]
EXTRN	__invalid_parameter_noinfo_noreturn:PROC
EXTRN	_isalpha:PROC
EXTRN	_isdigit:PROC
EXTRN	_isspace:PROC
EXTRN	_isalnum:PROC
EXTRN	__imp__InitializeCriticalSection@4:PROC
EXTRN	__imp__EnterCriticalSection@4:PROC
EXTRN	__imp__LeaveCriticalSection@4:PROC
EXTRN	__imp__DeleteCriticalSection@4:PROC
EXTRN	__imp__GetLocalTime@4:PROC
EXTRN	__imp__GetTickCount@0:PROC
EXTRN	__imp__wsprintfA:PROC
EXTRN	_fclose:PROC
EXTRN	_fgetc:PROC
EXTRN	_fopen:PROC
EXTRN	_getc:PROC
EXTRN	_ungetc:PROC
EXTRN	_rand:PROC
EXTRN	_atof:PROC
EXTRN	?_Xbad_alloc@std@@YAXXZ:PROC			; std::_Xbad_alloc
EXTRN	?_Xlength_error@std@@YAXPBD@Z:PROC		; std::_Xlength_error
EXTRN	?Get@Message@@QAEPADH@Z:PROC			; Message::Get
EXTRN	?ItemGetNumberMake@@YAHHH@Z:PROC		; ItemGetNumberMake
EXTRN	??1CSkillDelay@@UAE@XZ:PROC			; CSkillDelay::~CSkillDelay
EXTRN	?MsgBox@@YAXPADZZ:PROC				; MsgBox
EXTRN	??1TMonsterAIAgro@@UAE@XZ:PROC			; TMonsterAIAgro::~TMonsterAIAgro
EXTRN	?MoneyItemDrop@MapClass@@QAEHHHH@Z:PROC		; MapClass::MoneyItemDrop
EXTRN	?AllSendServerMsg@@YAXPAD@Z:PROC		; AllSendServerMsg
EXTRN	?DataSendAll@@YAXPAEH@Z:PROC			; DataSendAll
EXTRN	?gObjIsConnected@@YAHH@Z:PROC			; gObjIsConnected
EXTRN	??0MonsterHerd@@QAE@XZ:PROC			; MonsterHerd::MonsterHerd
EXTRN	??1MonsterHerd@@UAE@XZ:PROC			; MonsterHerd::~MonsterHerd
EXTRN	?SetTotalInfo@MonsterHerd@@UAEHHHHH@Z:PROC	; MonsterHerd::SetTotalInfo
EXTRN	?AddMonster@MonsterHerd@@UAEHHHH@Z:PROC		; MonsterHerd::AddMonster
EXTRN	?SetRadius@MonsterHerd@@UAEXH@Z:PROC		; MonsterHerd::SetRadius
EXTRN	?SetPosition@MonsterHerd@@UAEXEE@Z:PROC		; MonsterHerd::SetPosition
EXTRN	?Start@MonsterHerd@@UAEHXZ:PROC			; MonsterHerd::Start
EXTRN	?Stop@MonsterHerd@@UAEXXZ:PROC			; MonsterHerd::Stop
EXTRN	?CheckInRadius@MonsterHerd@@UAEHH@Z:PROC	; MonsterHerd::CheckInRadius
EXTRN	?GetCurrentLocation@MonsterHerd@@UAEHAAE0@Z:PROC ; MonsterHerd::GetCurrentLocation
EXTRN	?GetRandomLocation@MonsterHerd@@UAEHAAE0@Z:PROC	; MonsterHerd::GetRandomLocation
EXTRN	?CheckLocation@MonsterHerd@@UAEHAAE0@Z:PROC	; MonsterHerd::CheckLocation
EXTRN	?MoveHerd@MonsterHerd@@UAEHEE@Z:PROC		; MonsterHerd::MoveHerd
EXTRN	?GetMonsterData@MonsterHerd@@UAEPAU_MONSTER_HERD_DATA@@H@Z:PROC ; MonsterHerd::GetMonsterData
EXTRN	?BeenAttacked@MonsterHerd@@UAEXPAUOBJECTSTRUCT@@0@Z:PROC ; MonsterHerd::BeenAttacked
EXTRN	?OrderAttack@MonsterHerd@@UAEXPAUOBJECTSTRUCT@@0H@Z:PROC ; MonsterHerd::OrderAttack
EXTRN	?MonsterBaseAct@MonsterHerd@@UAEXPAUOBJECTSTRUCT@@@Z:PROC ; MonsterHerd::MonsterBaseAct
EXTRN	?MonsterMoveAction@MonsterHerd@@UAEXPAUOBJECTSTRUCT@@@Z:PROC ; MonsterHerd::MonsterMoveAction
EXTRN	?MonsterDieAction@MonsterHerd@@UAEXPAUOBJECTSTRUCT@@@Z:PROC ; MonsterHerd::MonsterDieAction
EXTRN	?MonsterRegenAction@MonsterHerd@@UAEHPAUOBJECTSTRUCT@@@Z:PROC ; MonsterHerd::MonsterRegenAction
EXTRN	??_ECRingMonsterHerd@@UAEPAXI@Z:PROC		; CRingMonsterHerd::`vector deleting destructor'
EXTRN	??_ECRingAttackEvent@@UAEPAXI@Z:PROC		; CRingAttackEvent::`vector deleting destructor'
EXTRN	?gObjMonsterTopHitDamageUser@@YAHPAUOBJECTSTRUCT@@@Z:PROC ; gObjMonsterTopHitDamageUser
EXTRN	?ItemSerialCreateSend@@YAXHEEEHEEEEEHEEEPAE@Z:PROC ; ItemSerialCreateSend
EXTRN	?DataSendEventChip@@YAXPADH@Z:PROC		; DataSendEventChip
EXTRN	?PHeadSetB@@YAXPAEEH@Z:PROC			; PHeadSetB
EXTRN	?gObjCheckUsedBuffEffect@@YA_NPAUOBJECTSTRUCT@@H@Z:PROC ; gObjCheckUsedBuffEffect
EXTRN	@__security_check_cookie@4:PROC
EXTRN	__CxxThrowException@8:PROC
EXTRN	___CxxFrameHandler3:PROC
EXTRN	??_7type_info@@6B@:QWORD			; type_info::`vftable'
EXTRN	?lMsg@@3VMessage@@A:BYTE			; lMsg
EXTRN	?LogAdd@@3P6AXPADZZA:DWORD			; LogAdd
EXTRN	?LogAddC@@3P6AXEPADZZA:DWORD			; LogAddC
EXTRN	?LogAddTD@@3P6AXPADZZA:DWORD			; LogAddTD
EXTRN	?gObj@@3PAUOBJECTSTRUCT@@A:DWORD		; gObj
EXTRN	?MapC@@3PAVMapClass@@A:BYTE			; MapC
EXTRN	?g_iRingOrcKillGiftRate@@3HA:DWORD		; g_iRingOrcKillGiftRate
EXTRN	?gMapName@@3PAY0EA@DA:BYTE			; gMapName
EXTRN	___security_cookie:DWORD
EXTRN	__fltused:DWORD
_BSS	SEGMENT
?SMDFile@@3PAU_iobuf@@A DD 01H DUP (?)			; SMDFile
?TokenNumber@@3MA DD 01H DUP (?)			; TokenNumber
?TokenString@@3PADA DB 064H DUP (?)			; TokenString
?CurrentToken@@3W4SMDToken@@A DD 01H DUP (?)		; CurrentToken
_BSS	ENDS
;	COMDAT ??_R1A@?0A@EA@CRingAttackEvent@@8
rdata$r	SEGMENT
??_R1A@?0A@EA@CRingAttackEvent@@8 DD FLAT:??_R0?AVCRingAttackEvent@@@8 ; CRingAttackEvent::`RTTI Base Class Descriptor at (0,-1,0,64)'
	DD	00H
	DD	00H
	DD	0ffffffffH
	DD	00H
	DD	040H
	DD	FLAT:??_R3CRingAttackEvent@@8
rdata$r	ENDS
;	COMDAT ??_R2CRingAttackEvent@@8
rdata$r	SEGMENT
??_R2CRingAttackEvent@@8 DD FLAT:??_R1A@?0A@EA@CRingAttackEvent@@8 ; CRingAttackEvent::`RTTI Base Class Array'
rdata$r	ENDS
;	COMDAT ??_R3CRingAttackEvent@@8
rdata$r	SEGMENT
??_R3CRingAttackEvent@@8 DD 00H				; CRingAttackEvent::`RTTI Class Hierarchy Descriptor'
	DD	00H
	DD	01H
	DD	FLAT:??_R2CRingAttackEvent@@8
rdata$r	ENDS
;	COMDAT ??_R0?AVCRingAttackEvent@@@8
data$r	SEGMENT
??_R0?AVCRingAttackEvent@@@8 DD FLAT:??_7type_info@@6B@	; CRingAttackEvent `RTTI Type Descriptor'
	DD	00H
	DB	'.?AVCRingAttackEvent@@', 00H
data$r	ENDS
;	COMDAT ??_R4CRingAttackEvent@@6B@
rdata$r	SEGMENT
??_R4CRingAttackEvent@@6B@ DD 00H			; CRingAttackEvent::`RTTI Complete Object Locator'
	DD	00H
	DD	00H
	DD	FLAT:??_R0?AVCRingAttackEvent@@@8
	DD	FLAT:??_R3CRingAttackEvent@@8
rdata$r	ENDS
;	COMDAT ??_R2MonsterHerd@@8
rdata$r	SEGMENT
??_R2MonsterHerd@@8 DD FLAT:??_R1A@?0A@EA@MonsterHerd@@8 ; MonsterHerd::`RTTI Base Class Array'
rdata$r	ENDS
;	COMDAT ??_R3MonsterHerd@@8
rdata$r	SEGMENT
??_R3MonsterHerd@@8 DD 00H				; MonsterHerd::`RTTI Class Hierarchy Descriptor'
	DD	00H
	DD	01H
	DD	FLAT:??_R2MonsterHerd@@8
rdata$r	ENDS
;	COMDAT ??_R0?AVMonsterHerd@@@8
data$r	SEGMENT
??_R0?AVMonsterHerd@@@8 DD FLAT:??_7type_info@@6B@	; MonsterHerd `RTTI Type Descriptor'
	DD	00H
	DB	'.?AVMonsterHerd@@', 00H
data$r	ENDS
;	COMDAT ??_R1A@?0A@EA@MonsterHerd@@8
rdata$r	SEGMENT
??_R1A@?0A@EA@MonsterHerd@@8 DD FLAT:??_R0?AVMonsterHerd@@@8 ; MonsterHerd::`RTTI Base Class Descriptor at (0,-1,0,64)'
	DD	00H
	DD	00H
	DD	0ffffffffH
	DD	00H
	DD	040H
	DD	FLAT:??_R3MonsterHerd@@8
rdata$r	ENDS
;	COMDAT ??_R1A@?0A@EA@CRingMonsterHerd@@8
rdata$r	SEGMENT
??_R1A@?0A@EA@CRingMonsterHerd@@8 DD FLAT:??_R0?AVCRingMonsterHerd@@@8 ; CRingMonsterHerd::`RTTI Base Class Descriptor at (0,-1,0,64)'
	DD	01H
	DD	00H
	DD	0ffffffffH
	DD	00H
	DD	040H
	DD	FLAT:??_R3CRingMonsterHerd@@8
rdata$r	ENDS
;	COMDAT ??_R2CRingMonsterHerd@@8
rdata$r	SEGMENT
??_R2CRingMonsterHerd@@8 DD FLAT:??_R1A@?0A@EA@CRingMonsterHerd@@8 ; CRingMonsterHerd::`RTTI Base Class Array'
	DD	FLAT:??_R1A@?0A@EA@MonsterHerd@@8
rdata$r	ENDS
;	COMDAT ??_R3CRingMonsterHerd@@8
rdata$r	SEGMENT
??_R3CRingMonsterHerd@@8 DD 00H				; CRingMonsterHerd::`RTTI Class Hierarchy Descriptor'
	DD	00H
	DD	02H
	DD	FLAT:??_R2CRingMonsterHerd@@8
rdata$r	ENDS
;	COMDAT ??_R0?AVCRingMonsterHerd@@@8
data$r	SEGMENT
??_R0?AVCRingMonsterHerd@@@8 DD FLAT:??_7type_info@@6B@	; CRingMonsterHerd `RTTI Type Descriptor'
	DD	00H
	DB	'.?AVCRingMonsterHerd@@', 00H
data$r	ENDS
;	COMDAT ??_R4CRingMonsterHerd@@6B@
rdata$r	SEGMENT
??_R4CRingMonsterHerd@@6B@ DD 00H			; CRingMonsterHerd::`RTTI Complete Object Locator'
	DD	00H
	DD	00H
	DD	FLAT:??_R0?AVCRingMonsterHerd@@@8
	DD	FLAT:??_R3CRingMonsterHerd@@8
rdata$r	ENDS
;	COMDAT ??_C@_0BD@OLBABOEK@vector?$DMT?$DO?5too?5long?$AA@
CONST	SEGMENT
??_C@_0BD@OLBABOEK@vector?$DMT?$DO?5too?5long?$AA@ DB 'vector<T> too long'
	DB	00H						; `string'
CONST	ENDS
;	COMDAT ??_C@_0DB@PHNKOJF@?$KB?$NL?$KB?$NM?$FLEvent?5Management?$FN?5?$FLStart?$FN?5R@
CONST	SEGMENT
??_C@_0DB@PHNKOJF@?$KB?$NL?$KB?$NM?$FLEvent?5Management?$FN?5?$FLStart?$FN?5R@ DB 0a1H
	DB	0dbH, 0a1H, 0dcH, '[Event Management] [Start] RingAttack Event'
	DB	'!', 00H					; `string'
CONST	ENDS
;	COMDAT ??_C@_0BL@KELOKDGN@?$FLRing?5Event?$FN?5?9?5Event?5Ended?$AA@
CONST	SEGMENT
??_C@_0BL@KELOKDGN@?$FLRing?5Event?$FN?5?9?5Event?5Ended?$AA@ DB '[Ring E'
	DB	'vent] - Event Ended', 00H			; `string'
CONST	ENDS
;	COMDAT ??_C@_0DK@PFGAPPAF@?$FLRing?5Event?$FN?5?9?5Monster?5Herd?5Move@
CONST	SEGMENT
??_C@_0DK@PFGAPPAF@?$FLRing?5Event?$FN?5?9?5Monster?5Herd?5Move@ DB '[Rin'
	DB	'g Event] - Monster Herd Move MapNumber:%d, X:%d, Y:%d', 00H ; `string'
CONST	ENDS
;	COMDAT ??_C@_0EG@MJJALBNB@?$FLRing?5Event?$FN?5?9?5per?530?8S?5Inform?5M@
CONST	SEGMENT
??_C@_0EG@MJJALBNB@?$FLRing?5Event?$FN?5?9?5per?530?8S?5Inform?5M@ DB '[R'
	DB	'ing Event] - per 30''S Inform MapNumber:%d, X:%d, Y:%d, Boss '
	DB	'Live:%d', 00H				; `string'
CONST	ENDS
;	COMDAT ?s_iTIME_REMAIN@?1??ProcState_Playing@CRingAttackEvent@@QAEXXZ@4HA
_DATA	SEGMENT
?s_iTIME_REMAIN@?1??ProcState_Playing@CRingAttackEvent@@QAEXXZ@4HA DD 0ffffffffH ; `CRingAttackEvent::ProcState_Playing'::`2'::s_iTIME_REMAIN
_DATA	ENDS
;	COMDAT ??_C@_0BN@HLGPJCPM@?$FLRing?5Event?$FN?5?9?5Event?5Started?$AA@
CONST	SEGMENT
??_C@_0BN@HLGPJCPM@?$FLRing?5Event?$FN?5?9?5Event?5Started?$AA@ DB '[Ring'
	DB	' Event] - Event Started', 00H		; `string'
CONST	ENDS
;	COMDAT ??_C@_0CM@NAOFHPPM@?$FLRing?5Event?$FN?5?9?5Before?53?5minutes?5@
CONST	SEGMENT
??_C@_0CM@NAOFHPPM@?$FLRing?5Event?$FN?5?9?5Before?53?5minutes?5@ DB '[Ri'
	DB	'ng Event] - Before 3 minutes - Advertise', 00H ; `string'
CONST	ENDS
;	COMDAT ??_C@_0EG@KMBELKMF@?$FLRing?5Event?$FN?5Sync?5Start?5Time?4?5?$FL?$CF@
CONST	SEGMENT
??_C@_0EG@KMBELKMF@?$FLRing?5Event?$FN?5Sync?5Start?5Time?4?5?$FL?$CF@ DB '['
	DB	'Ring Event] Sync Start Time. [%d] min remain (START HOUR:%d, '
	DB	'MIN:%d)', 00H				; `string'
CONST	ENDS
;	COMDAT ??_C@_0CD@BNKPBCAA@?$FLRing?5Event?$FN?5No?5Schedule?5Time?5Da@
CONST	SEGMENT
??_C@_0CD@BNKPBCAA@?$FLRing?5Event?$FN?5No?5Schedule?5Time?5Da@ DB '[Ring'
	DB	' Event] No Schedule Time Data', 00H		; `string'
CONST	ENDS
;	COMDAT ??_C@_0O@CEHBAEMJ@?$CFs?5file?5load?$CB?$AA@
CONST	SEGMENT
??_C@_0O@CEHBAEMJ@?$CFs?5file?5load?$CB?$AA@ DB '%s file load!', 00H ; `string'
CONST	ENDS
;	COMDAT ??_C@_03JBJLGPFL@end?$AA@
CONST	SEGMENT
??_C@_03JBJLGPFL@end?$AA@ DB 'end', 00H			; `string'
CONST	ENDS
;	COMDAT ??_C@_0CG@OKIEPGH@?$FLRing?5Event?$FN?5Info?5file?5Load?5Fail@
CONST	SEGMENT
??_C@_0CG@OKIEPGH@?$FLRing?5Event?$FN?5Info?5file?5Load?5Fail@ DB '[Ring '
	DB	'Event] Info file Load Fail [%s]', 00H	; `string'
CONST	ENDS
;	COMDAT ??_C@_01KDCPPGHE@r?$AA@
CONST	SEGMENT
??_C@_01KDCPPGHE@r?$AA@ DB 'r', 00H			; `string'
CONST	ENDS
;	COMDAT ??_C@_0DP@FPIHCFEB@?$FLRing?5Event?$FN?5?9?5Monster?5Start?5Pos@
CONST	SEGMENT
??_C@_0DP@FPIHCFEB@?$FLRing?5Event?$FN?5?9?5Monster?5Start?5Pos@ DB '[Rin'
	DB	'g Event] - Monster Start Position MapNumber:%d, X:%d, Y:%d', 00H ; `string'
CONST	ENDS
;	COMDAT ??_C@_0CN@EBKICF@?$FLRing?5Event?$FN?5?9?5Error?5?3?5No?5Monste@
CONST	SEGMENT
??_C@_0CN@EBKICF@?$FLRing?5Event?$FN?5?9?5Error?5?3?5No?5Monste@ DB '[Rin'
	DB	'g Event] - Error : No Monster Data Exist', 00H ; `string'
CONST	ENDS
_DATA	SEGMENT
?g_RingEventMapNum@@3PAHA DD 00H			; g_RingEventMapNum
	DD	02H
	DD	03H
?g_RingMapPosition@@3PAY03HA DD 042H			; g_RingMapPosition
	DD	02cH
	DD	0bfH
	DD	0c5H
	DD	06fH
	DD	0eH
	DD	0e8H
	DD	07dH
	DD	088H
	DD	035H
	DD	0dfH
	DD	0b5H
	ORG $+4
?g_RingMapDestPosition@@3PAY07HA DD 085H		; g_RingMapDestPosition
	DD	04fH
	DD	057H
	DD	07eH
	DD	085H
	DD	0b2H
	DD	0b4H
	DD	07eH
	DD	0a4H
	DD	02aH
	DD	0ddH
	DD	055H
	DD	0a4H
	DD	02aH
	DD	0ddH
	DD	055H
	DD	0a0H
	DD	02dH
	DD	0a0H
	DD	02dH
	DD	098H
	DD	075H
	DD	0d1H
	DD	085H
_DATA	ENDS
;	COMDAT ??_C@_0EA@DGMJBKOB@?$FLRing?5Event?$FN?5?$FL?$CFs?$FN?$FL?$CFs?$FN?5Request?5to@
CONST	SEGMENT
??_C@_0EA@DGMJBKOB@?$FLRing?5Event?$FN?5?$FL?$CFs?$FN?$FL?$CFs?$FN?5Request?5to@ DB '['
	DB	'Ring Event] [%s][%s] Request to Register Gift - Gift Kind (%d'
	DB	')', 00H					; `string'
CONST	ENDS
;	COMDAT ??_C@_0DL@ELDBHEBB@?$FLRing?5Event?$FN?5White?5Wizard?5Killed@
CONST	SEGMENT
??_C@_0DL@ELDBHEBB@?$FLRing?5Event?$FN?5White?5Wizard?5Killed@ DB '[Ring '
	DB	'Event] White Wizard Killed by [%s][%s], MapNumber:%d', 00H ; `string'
CONST	ENDS
;	COMDAT ??_7CRingAttackEvent@@6B@
CONST	SEGMENT
??_7CRingAttackEvent@@6B@ DD FLAT:??_R4CRingAttackEvent@@6B@ ; CRingAttackEvent::`vftable'
	DD	FLAT:??_ECRingAttackEvent@@UAEPAXI@Z
	DD	FLAT:?Load@CRingAttackEvent@@UAEHPAD@Z
CONST	ENDS
;	COMDAT ??_7CRingMonsterHerd@@6B@
CONST	SEGMENT
??_7CRingMonsterHerd@@6B@ DD FLAT:??_R4CRingMonsterHerd@@6B@ ; CRingMonsterHerd::`vftable'
	DD	FLAT:??_ECRingMonsterHerd@@UAEPAXI@Z
	DD	FLAT:?SetTotalInfo@MonsterHerd@@UAEHHHHH@Z
	DD	FLAT:?AddMonster@MonsterHerd@@UAEHHHH@Z
	DD	FLAT:?SetRadius@MonsterHerd@@UAEXH@Z
	DD	FLAT:?SetPosition@MonsterHerd@@UAEXEE@Z
	DD	FLAT:?Start@CRingMonsterHerd@@UAEHXZ
	DD	FLAT:?Stop@MonsterHerd@@UAEXXZ
	DD	FLAT:?CheckInRadius@MonsterHerd@@UAEHH@Z
	DD	FLAT:?GetCurrentLocation@MonsterHerd@@UAEHAAE0@Z
	DD	FLAT:?GetRandomLocation@MonsterHerd@@UAEHAAE0@Z
	DD	FLAT:?CheckLocation@MonsterHerd@@UAEHAAE0@Z
	DD	FLAT:?MoveHerd@MonsterHerd@@UAEHEE@Z
	DD	FLAT:?MonsterHerdItemDrop@CRingMonsterHerd@@UAEHPAUOBJECTSTRUCT@@@Z
	DD	FLAT:?GetMonsterData@MonsterHerd@@UAEPAU_MONSTER_HERD_DATA@@H@Z
	DD	FLAT:?BeenAttacked@MonsterHerd@@UAEXPAUOBJECTSTRUCT@@0@Z
	DD	FLAT:?OrderAttack@MonsterHerd@@UAEXPAUOBJECTSTRUCT@@0H@Z
	DD	FLAT:?MonsterBaseAct@MonsterHerd@@UAEXPAUOBJECTSTRUCT@@@Z
	DD	FLAT:?MonsterMoveAction@MonsterHerd@@UAEXPAUOBJECTSTRUCT@@@Z
	DD	FLAT:?MonsterAttackAction@CRingMonsterHerd@@UAEXPAUOBJECTSTRUCT@@0@Z
	DD	FLAT:?MonsterDieAction@MonsterHerd@@UAEXPAUOBJECTSTRUCT@@@Z
	DD	FLAT:?MonsterRegenAction@MonsterHerd@@UAEHPAUOBJECTSTRUCT@@@Z
CONST	ENDS
;	COMDAT xdata$x
xdata$x	SEGMENT
__catchsym$?_Reallocate@?$vector@URINGMONSTER_EVENT_TIME@@V?$allocator@URINGMONSTER_EVENT_TIME@@@std@@@std@@IAEXI@Z$50 DD 040H
	DD	00H
	DD	00H
	DD	FLAT:__catch$?_Reallocate@?$vector@URINGMONSTER_EVENT_TIME@@V?$allocator@URINGMONSTER_EVENT_TIME@@@std@@@std@@IAEXI@Z$0
__unwindtable$?_Reallocate@?$vector@URINGMONSTER_EVENT_TIME@@V?$allocator@URINGMONSTER_EVENT_TIME@@@std@@@std@@IAEXI@Z DD 0ffffffffH
	DD	00H
	DD	0ffffffffH
	DD	00H
__tryblocktable$?_Reallocate@?$vector@URINGMONSTER_EVENT_TIME@@V?$allocator@URINGMONSTER_EVENT_TIME@@@std@@@std@@IAEXI@Z DD 00H
	DD	00H
	DD	01H
	DD	01H
	DD	FLAT:__catchsym$?_Reallocate@?$vector@URINGMONSTER_EVENT_TIME@@V?$allocator@URINGMONSTER_EVENT_TIME@@@std@@@std@@IAEXI@Z$50
__ehfuncinfo$?_Reallocate@?$vector@URINGMONSTER_EVENT_TIME@@V?$allocator@URINGMONSTER_EVENT_TIME@@@std@@@std@@IAEXI@Z DD 019930522H
	DD	02H
	DD	FLAT:__unwindtable$?_Reallocate@?$vector@URINGMONSTER_EVENT_TIME@@V?$allocator@URINGMONSTER_EVENT_TIME@@@std@@@std@@IAEXI@Z
	DD	01H
	DD	FLAT:__tryblocktable$?_Reallocate@?$vector@URINGMONSTER_EVENT_TIME@@V?$allocator@URINGMONSTER_EVENT_TIME@@@std@@@std@@IAEXI@Z
	DD	2 DUP(00H)
	DD	00H
	DD	01H
xdata$x	ENDS
;	COMDAT xdata$x
xdata$x	SEGMENT
__catchsym$?_Reallocate@?$vector@URINGMONSTER_DATA@@V?$allocator@URINGMONSTER_DATA@@@std@@@std@@IAEXI@Z$50 DD 040H
	DD	00H
	DD	00H
	DD	FLAT:__catch$?_Reallocate@?$vector@URINGMONSTER_DATA@@V?$allocator@URINGMONSTER_DATA@@@std@@@std@@IAEXI@Z$0
__unwindtable$?_Reallocate@?$vector@URINGMONSTER_DATA@@V?$allocator@URINGMONSTER_DATA@@@std@@@std@@IAEXI@Z DD 0ffffffffH
	DD	00H
	DD	0ffffffffH
	DD	00H
__tryblocktable$?_Reallocate@?$vector@URINGMONSTER_DATA@@V?$allocator@URINGMONSTER_DATA@@@std@@@std@@IAEXI@Z DD 00H
	DD	00H
	DD	01H
	DD	01H
	DD	FLAT:__catchsym$?_Reallocate@?$vector@URINGMONSTER_DATA@@V?$allocator@URINGMONSTER_DATA@@@std@@@std@@IAEXI@Z$50
__ehfuncinfo$?_Reallocate@?$vector@URINGMONSTER_DATA@@V?$allocator@URINGMONSTER_DATA@@@std@@@std@@IAEXI@Z DD 019930522H
	DD	02H
	DD	FLAT:__unwindtable$?_Reallocate@?$vector@URINGMONSTER_DATA@@V?$allocator@URINGMONSTER_DATA@@@std@@@std@@IAEXI@Z
	DD	01H
	DD	FLAT:__tryblocktable$?_Reallocate@?$vector@URINGMONSTER_DATA@@V?$allocator@URINGMONSTER_DATA@@@std@@@std@@IAEXI@Z
	DD	2 DUP(00H)
	DD	00H
	DD	01H
xdata$x	ENDS
;	COMDAT xdata$x
xdata$x	SEGMENT
__ehfuncinfo$??1CRingAttackEvent@@UAE@XZ DD 019930522H
	DD	00H
	DD	00H
	DD	2 DUP(00H)
	DD	2 DUP(00H)
	DD	00H
	DD	05H
xdata$x	ENDS
;	COMDAT xdata$x
xdata$x	SEGMENT
__ehfuncinfo$??_EOBJECTSTRUCT@@QAEPAXI@Z DD 019930522H
	DD	00H
	DD	00H
	DD	2 DUP(00H)
	DD	2 DUP(00H)
	DD	00H
	DD	05H
xdata$x	ENDS
; Function compile flags: /Ogtp
; File c:\program files (x86)\microsoft visual studio 14.0\vc\include\xmemory0
;	COMDAT ??$construct@URINGMONSTER_DATA@@U1@@?$allocator@URINGMONSTER_DATA@@@std@@QAEXPAURINGMONSTER_DATA@@$$QAU2@@Z
_TEXT	SEGMENT
__Ptr$ = 8						; size = 4
_<_Args_0>$ = 12					; size = 4
??$construct@URINGMONSTER_DATA@@U1@@?$allocator@URINGMONSTER_DATA@@@std@@QAEXPAURINGMONSTER_DATA@@$$QAU2@@Z PROC ; std::allocator<RINGMONSTER_DATA>::construct<RINGMONSTER_DATA,RINGMONSTER_DATA>, COMDAT
; _this$ = ecx

; 654  : 		{	// construct _Objty(_Types...) at _Ptr

  00000	55		 push	 ebp
  00001	8b ec		 mov	 ebp, esp

; 655  : 		::new ((void *)_Ptr) _Objty(_STD forward<_Types>(_Args)...);

  00003	8b 4d 08	 mov	 ecx, DWORD PTR __Ptr$[ebp]
  00006	85 c9		 test	 ecx, ecx
  00008	74 11		 je	 SHORT $LN3@construct
  0000a	8b 45 0c	 mov	 eax, DWORD PTR _<_Args_0>$[ebp]
  0000d	f3 0f 7e 00	 movq	 xmm0, QWORD PTR [eax]
  00011	66 0f d6 01	 movq	 QWORD PTR [ecx], xmm0
  00015	8b 40 08	 mov	 eax, DWORD PTR [eax+8]
  00018	89 41 08	 mov	 DWORD PTR [ecx+8], eax
$LN3@construct:

; 656  : 		}

  0001b	5d		 pop	 ebp
  0001c	c2 08 00	 ret	 8
??$construct@URINGMONSTER_DATA@@U1@@?$allocator@URINGMONSTER_DATA@@@std@@QAEXPAURINGMONSTER_DATA@@$$QAU2@@Z ENDP ; std::allocator<RINGMONSTER_DATA>::construct<RINGMONSTER_DATA,RINGMONSTER_DATA>
_TEXT	ENDS
; Function compile flags: /Ogtp
; File c:\program files (x86)\microsoft visual studio 14.0\vc\include\xmemory0
;	COMDAT ??$construct@URINGMONSTER_EVENT_TIME@@U1@@?$allocator@URINGMONSTER_EVENT_TIME@@@std@@QAEXPAURINGMONSTER_EVENT_TIME@@$$QAU2@@Z
_TEXT	SEGMENT
__Ptr$ = 8						; size = 4
_<_Args_0>$ = 12					; size = 4
??$construct@URINGMONSTER_EVENT_TIME@@U1@@?$allocator@URINGMONSTER_EVENT_TIME@@@std@@QAEXPAURINGMONSTER_EVENT_TIME@@$$QAU2@@Z PROC ; std::allocator<RINGMONSTER_EVENT_TIME>::construct<RINGMONSTER_EVENT_TIME,RINGMONSTER_EVENT_TIME>, COMDAT
; _this$ = ecx

; 654  : 		{	// construct _Objty(_Types...) at _Ptr

  00000	55		 push	 ebp
  00001	8b ec		 mov	 ebp, esp

; 655  : 		::new ((void *)_Ptr) _Objty(_STD forward<_Types>(_Args)...);

  00003	8b 55 08	 mov	 edx, DWORD PTR __Ptr$[ebp]
  00006	85 d2		 test	 edx, edx
  00008	74 0d		 je	 SHORT $LN3@construct
  0000a	8b 4d 0c	 mov	 ecx, DWORD PTR _<_Args_0>$[ebp]
  0000d	8b 01		 mov	 eax, DWORD PTR [ecx]
  0000f	89 02		 mov	 DWORD PTR [edx], eax
  00011	8b 41 04	 mov	 eax, DWORD PTR [ecx+4]
  00014	89 42 04	 mov	 DWORD PTR [edx+4], eax
$LN3@construct:

; 656  : 		}

  00017	5d		 pop	 ebp
  00018	c2 08 00	 ret	 8
??$construct@URINGMONSTER_EVENT_TIME@@U1@@?$allocator@URINGMONSTER_EVENT_TIME@@@std@@QAEXPAURINGMONSTER_EVENT_TIME@@$$QAU2@@Z ENDP ; std::allocator<RINGMONSTER_EVENT_TIME>::construct<RINGMONSTER_EVENT_TIME,RINGMONSTER_EVENT_TIME>
_TEXT	ENDS
; Function compile flags: /Ogtp
; File c:\program files (x86)\microsoft visual studio 14.0\vc\include\xmemory0
;	COMDAT ??$construct@URINGMONSTER_DATA@@U1@@?$allocator_traits@V?$allocator@URINGMONSTER_DATA@@@std@@@std@@SAXAAV?$allocator@URINGMONSTER_DATA@@@1@PAURINGMONSTER_DATA@@$$QAU3@@Z
_TEXT	SEGMENT
__Al$ = 8						; size = 4
__Ptr$ = 12						; size = 4
_<_Args_0>$ = 16					; size = 4
??$construct@URINGMONSTER_DATA@@U1@@?$allocator_traits@V?$allocator@URINGMONSTER_DATA@@@std@@@std@@SAXAAV?$allocator@URINGMONSTER_DATA@@@1@PAURINGMONSTER_DATA@@$$QAU3@@Z PROC ; std::allocator_traits<std::allocator<RINGMONSTER_DATA> >::construct<RINGMONSTER_DATA,RINGMONSTER_DATA>, COMDAT

; 772  : 		{	// construct _Objty(_Types...) at _Ptr

  00000	55		 push	 ebp
  00001	8b ec		 mov	 ebp, esp

; 655  : 		::new ((void *)_Ptr) _Objty(_STD forward<_Types>(_Args)...);

  00003	8b 4d 0c	 mov	 ecx, DWORD PTR __Ptr$[ebp]
  00006	85 c9		 test	 ecx, ecx
  00008	74 11		 je	 SHORT $LN8@construct
  0000a	8b 45 10	 mov	 eax, DWORD PTR _<_Args_0>$[ebp]
  0000d	f3 0f 7e 00	 movq	 xmm0, QWORD PTR [eax]
  00011	66 0f d6 01	 movq	 QWORD PTR [ecx], xmm0
  00015	8b 40 08	 mov	 eax, DWORD PTR [eax+8]
  00018	89 41 08	 mov	 DWORD PTR [ecx+8], eax
$LN8@construct:

; 773  : 		_Al.construct(_Ptr, _STD forward<_Types>(_Args)...);
; 774  : 		}

  0001b	5d		 pop	 ebp
  0001c	c3		 ret	 0
??$construct@URINGMONSTER_DATA@@U1@@?$allocator_traits@V?$allocator@URINGMONSTER_DATA@@@std@@@std@@SAXAAV?$allocator@URINGMONSTER_DATA@@@1@PAURINGMONSTER_DATA@@$$QAU3@@Z ENDP ; std::allocator_traits<std::allocator<RINGMONSTER_DATA> >::construct<RINGMONSTER_DATA,RINGMONSTER_DATA>
_TEXT	ENDS
; Function compile flags: /Ogtp
; File c:\program files (x86)\microsoft visual studio 14.0\vc\include\type_traits
;	COMDAT ??$forward@URINGMONSTER_DATA@@@std@@YA$$QAURINGMONSTER_DATA@@AAU1@@Z
_TEXT	SEGMENT
__Arg$ = 8						; size = 4
??$forward@URINGMONSTER_DATA@@@std@@YA$$QAURINGMONSTER_DATA@@AAU1@@Z PROC ; std::forward<RINGMONSTER_DATA>, COMDAT

; 1233 : 	{	// forward an lvalue as either an lvalue or an rvalue

  00000	55		 push	 ebp
  00001	8b ec		 mov	 ebp, esp

; 1234 : 	return (static_cast<_Ty&&>(_Arg));

  00003	8b 45 08	 mov	 eax, DWORD PTR __Arg$[ebp]

; 1235 : 	}

  00006	5d		 pop	 ebp
  00007	c3		 ret	 0
??$forward@URINGMONSTER_DATA@@@std@@YA$$QAURINGMONSTER_DATA@@AAU1@@Z ENDP ; std::forward<RINGMONSTER_DATA>
_TEXT	ENDS
; Function compile flags: /Ogtp
; File c:\program files (x86)\microsoft visual studio 14.0\vc\include\xmemory0
;	COMDAT ??$construct@URINGMONSTER_EVENT_TIME@@U1@@?$allocator_traits@V?$allocator@URINGMONSTER_EVENT_TIME@@@std@@@std@@SAXAAV?$allocator@URINGMONSTER_EVENT_TIME@@@1@PAURINGMONSTER_EVENT_TIME@@$$QAU3@@Z
_TEXT	SEGMENT
__Al$ = 8						; size = 4
__Ptr$ = 12						; size = 4
_<_Args_0>$ = 16					; size = 4
??$construct@URINGMONSTER_EVENT_TIME@@U1@@?$allocator_traits@V?$allocator@URINGMONSTER_EVENT_TIME@@@std@@@std@@SAXAAV?$allocator@URINGMONSTER_EVENT_TIME@@@1@PAURINGMONSTER_EVENT_TIME@@$$QAU3@@Z PROC ; std::allocator_traits<std::allocator<RINGMONSTER_EVENT_TIME> >::construct<RINGMONSTER_EVENT_TIME,RINGMONSTER_EVENT_TIME>, COMDAT

; 772  : 		{	// construct _Objty(_Types...) at _Ptr

  00000	55		 push	 ebp
  00001	8b ec		 mov	 ebp, esp

; 655  : 		::new ((void *)_Ptr) _Objty(_STD forward<_Types>(_Args)...);

  00003	8b 55 0c	 mov	 edx, DWORD PTR __Ptr$[ebp]
  00006	85 d2		 test	 edx, edx
  00008	74 0d		 je	 SHORT $LN8@construct
  0000a	8b 4d 10	 mov	 ecx, DWORD PTR _<_Args_0>$[ebp]
  0000d	8b 01		 mov	 eax, DWORD PTR [ecx]
  0000f	89 02		 mov	 DWORD PTR [edx], eax
  00011	8b 41 04	 mov	 eax, DWORD PTR [ecx+4]
  00014	89 42 04	 mov	 DWORD PTR [edx+4], eax
$LN8@construct:

; 773  : 		_Al.construct(_Ptr, _STD forward<_Types>(_Args)...);
; 774  : 		}

  00017	5d		 pop	 ebp
  00018	c3		 ret	 0
??$construct@URINGMONSTER_EVENT_TIME@@U1@@?$allocator_traits@V?$allocator@URINGMONSTER_EVENT_TIME@@@std@@@std@@SAXAAV?$allocator@URINGMONSTER_EVENT_TIME@@@1@PAURINGMONSTER_EVENT_TIME@@$$QAU3@@Z ENDP ; std::allocator_traits<std::allocator<RINGMONSTER_EVENT_TIME> >::construct<RINGMONSTER_EVENT_TIME,RINGMONSTER_EVENT_TIME>
_TEXT	ENDS
; Function compile flags: /Ogtp
; File c:\program files (x86)\microsoft visual studio 14.0\vc\include\type_traits
;	COMDAT ??$forward@URINGMONSTER_EVENT_TIME@@@std@@YA$$QAURINGMONSTER_EVENT_TIME@@AAU1@@Z
_TEXT	SEGMENT
__Arg$ = 8						; size = 4
??$forward@URINGMONSTER_EVENT_TIME@@@std@@YA$$QAURINGMONSTER_EVENT_TIME@@AAU1@@Z PROC ; std::forward<RINGMONSTER_EVENT_TIME>, COMDAT

; 1233 : 	{	// forward an lvalue as either an lvalue or an rvalue

  00000	55		 push	 ebp
  00001	8b ec		 mov	 ebp, esp

; 1234 : 	return (static_cast<_Ty&&>(_Arg));

  00003	8b 45 08	 mov	 eax, DWORD PTR __Arg$[ebp]

; 1235 : 	}

  00006	5d		 pop	 ebp
  00007	c3		 ret	 0
??$forward@URINGMONSTER_EVENT_TIME@@@std@@YA$$QAURINGMONSTER_EVENT_TIME@@AAU1@@Z ENDP ; std::forward<RINGMONSTER_EVENT_TIME>
_TEXT	ENDS
; Function compile flags: /Ogtp
; File c:\program files (x86)\microsoft visual studio 14.0\vc\include\xmemory0
;	COMDAT ??$construct@URINGMONSTER_DATA@@U1@@?$_Wrap_alloc@V?$allocator@URINGMONSTER_DATA@@@std@@@std@@QAEXPAURINGMONSTER_DATA@@$$QAU2@@Z
_TEXT	SEGMENT
__Ptr$ = 8						; size = 4
_<_Args_0>$ = 12					; size = 4
??$construct@URINGMONSTER_DATA@@U1@@?$_Wrap_alloc@V?$allocator@URINGMONSTER_DATA@@@std@@@std@@QAEXPAURINGMONSTER_DATA@@$$QAU2@@Z PROC ; std::_Wrap_alloc<std::allocator<RINGMONSTER_DATA> >::construct<RINGMONSTER_DATA,RINGMONSTER_DATA>, COMDAT
; _this$ = ecx

; 916  : 		{	// construct _Ty(_Types...) at _Ptr

  00000	55		 push	 ebp
  00001	8b ec		 mov	 ebp, esp

; 655  : 		::new ((void *)_Ptr) _Objty(_STD forward<_Types>(_Args)...);

  00003	8b 4d 08	 mov	 ecx, DWORD PTR __Ptr$[ebp]
  00006	85 c9		 test	 ecx, ecx
  00008	74 11		 je	 SHORT $LN13@construct
  0000a	8b 45 0c	 mov	 eax, DWORD PTR _<_Args_0>$[ebp]
  0000d	f3 0f 7e 00	 movq	 xmm0, QWORD PTR [eax]
  00011	66 0f d6 01	 movq	 QWORD PTR [ecx], xmm0
  00015	8b 40 08	 mov	 eax, DWORD PTR [eax+8]
  00018	89 41 08	 mov	 DWORD PTR [ecx+8], eax
$LN13@construct:

; 917  : 		_Mytraits::construct(*this, _Ptr,
; 918  : 			_STD forward<_Types>(_Args)...);
; 919  : 		}

  0001b	5d		 pop	 ebp
  0001c	c2 08 00	 ret	 8
??$construct@URINGMONSTER_DATA@@U1@@?$_Wrap_alloc@V?$allocator@URINGMONSTER_DATA@@@std@@@std@@QAEXPAURINGMONSTER_DATA@@$$QAU2@@Z ENDP ; std::_Wrap_alloc<std::allocator<RINGMONSTER_DATA> >::construct<RINGMONSTER_DATA,RINGMONSTER_DATA>
_TEXT	ENDS
; Function compile flags: /Ogtp
; File c:\program files (x86)\microsoft visual studio 14.0\vc\include\xmemory0
;	COMDAT ??$construct@URINGMONSTER_EVENT_TIME@@U1@@?$_Wrap_alloc@V?$allocator@URINGMONSTER_EVENT_TIME@@@std@@@std@@QAEXPAURINGMONSTER_EVENT_TIME@@$$QAU2@@Z
_TEXT	SEGMENT
__Ptr$ = 8						; size = 4
_<_Args_0>$ = 12					; size = 4
??$construct@URINGMONSTER_EVENT_TIME@@U1@@?$_Wrap_alloc@V?$allocator@URINGMONSTER_EVENT_TIME@@@std@@@std@@QAEXPAURINGMONSTER_EVENT_TIME@@$$QAU2@@Z PROC ; std::_Wrap_alloc<std::allocator<RINGMONSTER_EVENT_TIME> >::construct<RINGMONSTER_EVENT_TIME,RINGMONSTER_EVENT_TIME>, COMDAT
; _this$ = ecx

; 916  : 		{	// construct _Ty(_Types...) at _Ptr

  00000	55		 push	 ebp
  00001	8b ec		 mov	 ebp, esp

; 655  : 		::new ((void *)_Ptr) _Objty(_STD forward<_Types>(_Args)...);

  00003	8b 55 08	 mov	 edx, DWORD PTR __Ptr$[ebp]
  00006	85 d2		 test	 edx, edx
  00008	74 0d		 je	 SHORT $LN13@construct
  0000a	8b 4d 0c	 mov	 ecx, DWORD PTR _<_Args_0>$[ebp]
  0000d	8b 01		 mov	 eax, DWORD PTR [ecx]
  0000f	89 02		 mov	 DWORD PTR [edx], eax
  00011	8b 41 04	 mov	 eax, DWORD PTR [ecx+4]
  00014	89 42 04	 mov	 DWORD PTR [edx+4], eax
$LN13@construct:

; 917  : 		_Mytraits::construct(*this, _Ptr,
; 918  : 			_STD forward<_Types>(_Args)...);
; 919  : 		}

  00017	5d		 pop	 ebp
  00018	c2 08 00	 ret	 8
??$construct@URINGMONSTER_EVENT_TIME@@U1@@?$_Wrap_alloc@V?$allocator@URINGMONSTER_EVENT_TIME@@@std@@@std@@QAEXPAURINGMONSTER_EVENT_TIME@@$$QAU2@@Z ENDP ; std::_Wrap_alloc<std::allocator<RINGMONSTER_EVENT_TIME> >::construct<RINGMONSTER_EVENT_TIME,RINGMONSTER_EVENT_TIME>
_TEXT	ENDS
; Function compile flags: /Ogtp
; File c:\program files (x86)\microsoft visual studio 14.0\vc\include\xmemory0
;	COMDAT ??$destroy@URINGMONSTER_DATA@@@?$allocator@URINGMONSTER_DATA@@@std@@QAEXPAURINGMONSTER_DATA@@@Z
_TEXT	SEGMENT
__Ptr$ = 8						; size = 4
??$destroy@URINGMONSTER_DATA@@@?$allocator@URINGMONSTER_DATA@@@std@@QAEXPAURINGMONSTER_DATA@@@Z PROC ; std::allocator<RINGMONSTER_DATA>::destroy<RINGMONSTER_DATA>, COMDAT
; _this$ = ecx

; 662  : 		_Ptr->~_Uty();
; 663  : 		}

  00000	c2 04 00	 ret	 4
??$destroy@URINGMONSTER_DATA@@@?$allocator@URINGMONSTER_DATA@@@std@@QAEXPAURINGMONSTER_DATA@@@Z ENDP ; std::allocator<RINGMONSTER_DATA>::destroy<RINGMONSTER_DATA>
_TEXT	ENDS
; Function compile flags: /Ogtp
; File c:\program files (x86)\microsoft visual studio 14.0\vc\include\xmemory0
;	COMDAT ??$destroy@URINGMONSTER_EVENT_TIME@@@?$allocator@URINGMONSTER_EVENT_TIME@@@std@@QAEXPAURINGMONSTER_EVENT_TIME@@@Z
_TEXT	SEGMENT
__Ptr$ = 8						; size = 4
??$destroy@URINGMONSTER_EVENT_TIME@@@?$allocator@URINGMONSTER_EVENT_TIME@@@std@@QAEXPAURINGMONSTER_EVENT_TIME@@@Z PROC ; std::allocator<RINGMONSTER_EVENT_TIME>::destroy<RINGMONSTER_EVENT_TIME>, COMDAT
; _this$ = ecx

; 662  : 		_Ptr->~_Uty();
; 663  : 		}

  00000	c2 04 00	 ret	 4
??$destroy@URINGMONSTER_EVENT_TIME@@@?$allocator@URINGMONSTER_EVENT_TIME@@@std@@QAEXPAURINGMONSTER_EVENT_TIME@@@Z ENDP ; std::allocator<RINGMONSTER_EVENT_TIME>::destroy<RINGMONSTER_EVENT_TIME>
_TEXT	ENDS
; Function compile flags: /Ogtp
; File c:\program files (x86)\microsoft visual studio 14.0\vc\include\xmemory
; File c:\program files (x86)\microsoft visual studio 14.0\vc\include\xmemory0
; File c:\program files (x86)\microsoft visual studio 14.0\vc\include\xmemory
;	COMDAT ??$_Uninit_move@PAURINGMONSTER_DATA@@PAU1@V?$allocator@URINGMONSTER_DATA@@@std@@U1@@std@@YAPAURINGMONSTER_DATA@@PAU1@00AAU?$_Wrap_alloc@V?$allocator@URINGMONSTER_DATA@@@std@@@0@0U_Nonscalar_ptr_iterator_tag@0@@Z
_TEXT	SEGMENT
__First$ = 8						; size = 4
__Last$ = 12						; size = 4
__Dest$ = 16						; size = 4
__Al$ = 20						; size = 4
___formal$ = 24						; size = 4
___formal$ = 28						; size = 1
??$_Uninit_move@PAURINGMONSTER_DATA@@PAU1@V?$allocator@URINGMONSTER_DATA@@@std@@U1@@std@@YAPAURINGMONSTER_DATA@@PAU1@00AAU?$_Wrap_alloc@V?$allocator@URINGMONSTER_DATA@@@std@@@0@0U_Nonscalar_ptr_iterator_tag@0@@Z PROC ; std::_Uninit_move<RINGMONSTER_DATA *,RINGMONSTER_DATA *,std::allocator<RINGMONSTER_DATA>,RINGMONSTER_DATA>, COMDAT

; 437  : 	{	// move [_First, _Last) to raw _Dest, using _Al, arbitrary type

  00000	55		 push	 ebp
  00001	8b ec		 mov	 ebp, esp

; 442  : 	for (; _First != _Last; ++_Dest, (void)++_First)

  00003	8b 4d 08	 mov	 ecx, DWORD PTR __First$[ebp]
  00006	8b 45 10	 mov	 eax, DWORD PTR __Dest$[ebp]
  00009	56		 push	 esi
  0000a	8b 75 0c	 mov	 esi, DWORD PTR __Last$[ebp]
  0000d	3b ce		 cmp	 ecx, esi
  0000f	74 1c		 je	 SHORT $LN3@Uninit_mov
$LL4@Uninit_mov:
; File c:\program files (x86)\microsoft visual studio 14.0\vc\include\xmemory0

; 655  : 		::new ((void *)_Ptr) _Objty(_STD forward<_Types>(_Args)...);

  00011	85 c0		 test	 eax, eax
  00013	74 0e		 je	 SHORT $LN2@Uninit_mov
  00015	f3 0f 7e 01	 movq	 xmm0, QWORD PTR [ecx]
  00019	66 0f d6 00	 movq	 QWORD PTR [eax], xmm0
  0001d	8b 51 08	 mov	 edx, DWORD PTR [ecx+8]
  00020	89 50 08	 mov	 DWORD PTR [eax+8], edx
$LN2@Uninit_mov:
; File c:\program files (x86)\microsoft visual studio 14.0\vc\include\xmemory

; 442  : 	for (; _First != _Last; ++_Dest, (void)++_First)

  00023	83 c1 0c	 add	 ecx, 12			; 0000000cH
  00026	83 c0 0c	 add	 eax, 12			; 0000000cH
  00029	3b ce		 cmp	 ecx, esi
  0002b	75 e4		 jne	 SHORT $LL4@Uninit_mov
$LN3@Uninit_mov:
  0002d	5e		 pop	 esi

; 443  : 		_Al.construct(_Dest, (_Valty&&)*_First);
; 444  : 	_CATCH_ALL
; 445  : 	for (; _Next != _Dest; ++_Next)
; 446  : 		_Al.destroy(_Next);
; 447  : 	_RERAISE;
; 448  : 	_CATCH_END
; 449  : 	return (_Dest);
; 450  : 	}

  0002e	5d		 pop	 ebp
  0002f	c3		 ret	 0
??$_Uninit_move@PAURINGMONSTER_DATA@@PAU1@V?$allocator@URINGMONSTER_DATA@@@std@@U1@@std@@YAPAURINGMONSTER_DATA@@PAU1@00AAU?$_Wrap_alloc@V?$allocator@URINGMONSTER_DATA@@@std@@@0@0U_Nonscalar_ptr_iterator_tag@0@@Z ENDP ; std::_Uninit_move<RINGMONSTER_DATA *,RINGMONSTER_DATA *,std::allocator<RINGMONSTER_DATA>,RINGMONSTER_DATA>
_TEXT	ENDS
; Function compile flags: /Ogtp
; File c:\program files (x86)\microsoft visual studio 14.0\vc\include\xutility
;	COMDAT ??$_Val_type@PAURINGMONSTER_DATA@@@std@@YAPAURINGMONSTER_DATA@@PAU1@@Z
_TEXT	SEGMENT
___formal$ = 8						; size = 4
??$_Val_type@PAURINGMONSTER_DATA@@@std@@YAPAURINGMONSTER_DATA@@PAU1@@Z PROC ; std::_Val_type<RINGMONSTER_DATA *>, COMDAT

; 875  : 	return (0);

  00000	33 c0		 xor	 eax, eax

; 876  : 	}

  00002	c3		 ret	 0
??$_Val_type@PAURINGMONSTER_DATA@@@std@@YAPAURINGMONSTER_DATA@@PAU1@@Z ENDP ; std::_Val_type<RINGMONSTER_DATA *>
_TEXT	ENDS
; Function compile flags: /Ogtp
; File c:\program files (x86)\microsoft visual studio 14.0\vc\include\xmemory
; File c:\program files (x86)\microsoft visual studio 14.0\vc\include\xmemory0
; File c:\program files (x86)\microsoft visual studio 14.0\vc\include\xmemory
;	COMDAT ??$_Uninit_move@PAURINGMONSTER_EVENT_TIME@@PAU1@V?$allocator@URINGMONSTER_EVENT_TIME@@@std@@U1@@std@@YAPAURINGMONSTER_EVENT_TIME@@PAU1@00AAU?$_Wrap_alloc@V?$allocator@URINGMONSTER_EVENT_TIME@@@std@@@0@0U_Nonscalar_ptr_iterator_tag@0@@Z
_TEXT	SEGMENT
__First$ = 8						; size = 4
__Last$ = 12						; size = 4
__Dest$ = 16						; size = 4
__Al$ = 20						; size = 4
___formal$ = 24						; size = 4
___formal$ = 28						; size = 1
??$_Uninit_move@PAURINGMONSTER_EVENT_TIME@@PAU1@V?$allocator@URINGMONSTER_EVENT_TIME@@@std@@U1@@std@@YAPAURINGMONSTER_EVENT_TIME@@PAU1@00AAU?$_Wrap_alloc@V?$allocator@URINGMONSTER_EVENT_TIME@@@std@@@0@0U_Nonscalar_ptr_iterator_tag@0@@Z PROC ; std::_Uninit_move<RINGMONSTER_EVENT_TIME *,RINGMONSTER_EVENT_TIME *,std::allocator<RINGMONSTER_EVENT_TIME>,RINGMONSTER_EVENT_TIME>, COMDAT

; 437  : 	{	// move [_First, _Last) to raw _Dest, using _Al, arbitrary type

  00000	55		 push	 ebp
  00001	8b ec		 mov	 ebp, esp

; 442  : 	for (; _First != _Last; ++_Dest, (void)++_First)

  00003	8b 4d 08	 mov	 ecx, DWORD PTR __First$[ebp]
  00006	57		 push	 edi
  00007	8b 7d 0c	 mov	 edi, DWORD PTR __Last$[ebp]
  0000a	3b cf		 cmp	 ecx, edi
  0000c	74 22		 je	 SHORT $LN37@Uninit_mov
  0000e	56		 push	 esi
  0000f	8b 75 10	 mov	 esi, DWORD PTR __Dest$[ebp]
$LL4@Uninit_mov:
; File c:\program files (x86)\microsoft visual studio 14.0\vc\include\xmemory0

; 655  : 		::new ((void *)_Ptr) _Objty(_STD forward<_Types>(_Args)...);

  00012	85 f6		 test	 esi, esi
  00014	74 0a		 je	 SHORT $LN2@Uninit_mov
  00016	8b 01		 mov	 eax, DWORD PTR [ecx]
  00018	89 06		 mov	 DWORD PTR [esi], eax
  0001a	8b 51 04	 mov	 edx, DWORD PTR [ecx+4]
  0001d	89 56 04	 mov	 DWORD PTR [esi+4], edx
$LN2@Uninit_mov:
; File c:\program files (x86)\microsoft visual studio 14.0\vc\include\xmemory

; 442  : 	for (; _First != _Last; ++_Dest, (void)++_First)

  00020	83 c1 08	 add	 ecx, 8
  00023	83 c6 08	 add	 esi, 8
  00026	3b cf		 cmp	 ecx, edi
  00028	75 e8		 jne	 SHORT $LL4@Uninit_mov

; 443  : 		_Al.construct(_Dest, (_Valty&&)*_First);
; 444  : 	_CATCH_ALL
; 445  : 	for (; _Next != _Dest; ++_Next)
; 446  : 		_Al.destroy(_Next);
; 447  : 	_RERAISE;
; 448  : 	_CATCH_END
; 449  : 	return (_Dest);

  0002a	8b c6		 mov	 eax, esi
  0002c	5e		 pop	 esi
  0002d	5f		 pop	 edi

; 450  : 	}

  0002e	5d		 pop	 ebp
  0002f	c3		 ret	 0
$LN37@Uninit_mov:

; 443  : 		_Al.construct(_Dest, (_Valty&&)*_First);
; 444  : 	_CATCH_ALL
; 445  : 	for (; _Next != _Dest; ++_Next)
; 446  : 		_Al.destroy(_Next);
; 447  : 	_RERAISE;
; 448  : 	_CATCH_END
; 449  : 	return (_Dest);

  00030	8b 45 10	 mov	 eax, DWORD PTR __Dest$[ebp]
  00033	5f		 pop	 edi

; 450  : 	}

  00034	5d		 pop	 ebp
  00035	c3		 ret	 0
??$_Uninit_move@PAURINGMONSTER_EVENT_TIME@@PAU1@V?$allocator@URINGMONSTER_EVENT_TIME@@@std@@U1@@std@@YAPAURINGMONSTER_EVENT_TIME@@PAU1@00AAU?$_Wrap_alloc@V?$allocator@URINGMONSTER_EVENT_TIME@@@std@@@0@0U_Nonscalar_ptr_iterator_tag@0@@Z ENDP ; std::_Uninit_move<RINGMONSTER_EVENT_TIME *,RINGMONSTER_EVENT_TIME *,std::allocator<RINGMONSTER_EVENT_TIME>,RINGMONSTER_EVENT_TIME>
_TEXT	ENDS
; Function compile flags: /Ogtp
; File c:\program files (x86)\microsoft visual studio 14.0\vc\include\xutility
;	COMDAT ??$_Val_type@PAURINGMONSTER_EVENT_TIME@@@std@@YAPAURINGMONSTER_EVENT_TIME@@PAU1@@Z
_TEXT	SEGMENT
___formal$ = 8						; size = 4
??$_Val_type@PAURINGMONSTER_EVENT_TIME@@@std@@YAPAURINGMONSTER_EVENT_TIME@@PAU1@@Z PROC ; std::_Val_type<RINGMONSTER_EVENT_TIME *>, COMDAT

; 875  : 	return (0);

  00000	33 c0		 xor	 eax, eax

; 876  : 	}

  00002	c3		 ret	 0
??$_Val_type@PAURINGMONSTER_EVENT_TIME@@@std@@YAPAURINGMONSTER_EVENT_TIME@@PAU1@@Z ENDP ; std::_Val_type<RINGMONSTER_EVENT_TIME *>
_TEXT	ENDS
; Function compile flags: /Ogtp
; File c:\program files (x86)\microsoft visual studio 14.0\vc\include\xmemory0
;	COMDAT ??$destroy@URINGMONSTER_DATA@@@?$allocator_traits@V?$allocator@URINGMONSTER_DATA@@@std@@@std@@SAXAAV?$allocator@URINGMONSTER_DATA@@@1@PAURINGMONSTER_DATA@@@Z
_TEXT	SEGMENT
__Al$ = 8						; size = 4
__Ptr$ = 12						; size = 4
??$destroy@URINGMONSTER_DATA@@@?$allocator_traits@V?$allocator@URINGMONSTER_DATA@@@std@@@std@@SAXAAV?$allocator@URINGMONSTER_DATA@@@1@PAURINGMONSTER_DATA@@@Z PROC ; std::allocator_traits<std::allocator<RINGMONSTER_DATA> >::destroy<RINGMONSTER_DATA>, COMDAT

; 780  : 		_Al.destroy(_Ptr);
; 781  : 		}

  00000	c3		 ret	 0
??$destroy@URINGMONSTER_DATA@@@?$allocator_traits@V?$allocator@URINGMONSTER_DATA@@@std@@@std@@SAXAAV?$allocator@URINGMONSTER_DATA@@@1@PAURINGMONSTER_DATA@@@Z ENDP ; std::allocator_traits<std::allocator<RINGMONSTER_DATA> >::destroy<RINGMONSTER_DATA>
_TEXT	ENDS
; Function compile flags: /Ogtp
; File c:\program files (x86)\microsoft visual studio 14.0\vc\include\xstddef
;	COMDAT ??$_Addressof@URINGMONSTER_DATA@@@std@@YAPAURINGMONSTER_DATA@@AAU1@U?$integral_constant@_N$0A@@0@@Z
_TEXT	SEGMENT
__Val$ = 8						; size = 4
___formal$ = 12						; size = 1
??$_Addressof@URINGMONSTER_DATA@@@std@@YAPAURINGMONSTER_DATA@@AAU1@U?$integral_constant@_N$0A@@0@@Z PROC ; std::_Addressof<RINGMONSTER_DATA>, COMDAT

; 688  : 	{	// return address of object _Val

  00000	55		 push	 ebp
  00001	8b ec		 mov	 ebp, esp

; 689  : 	return (reinterpret_cast<_Ty *>(

  00003	8b 45 08	 mov	 eax, DWORD PTR __Val$[ebp]

; 690  : 		&const_cast<char&>(
; 691  : 		reinterpret_cast<const volatile char&>(_Val))));
; 692  : 	}

  00006	5d		 pop	 ebp
  00007	c3		 ret	 0
??$_Addressof@URINGMONSTER_DATA@@@std@@YAPAURINGMONSTER_DATA@@AAU1@U?$integral_constant@_N$0A@@0@@Z ENDP ; std::_Addressof<RINGMONSTER_DATA>
_TEXT	ENDS
; Function compile flags: /Ogtp
; File c:\program files (x86)\microsoft visual studio 14.0\vc\include\xmemory0
;	COMDAT ??$destroy@URINGMONSTER_EVENT_TIME@@@?$allocator_traits@V?$allocator@URINGMONSTER_EVENT_TIME@@@std@@@std@@SAXAAV?$allocator@URINGMONSTER_EVENT_TIME@@@1@PAURINGMONSTER_EVENT_TIME@@@Z
_TEXT	SEGMENT
__Al$ = 8						; size = 4
__Ptr$ = 12						; size = 4
??$destroy@URINGMONSTER_EVENT_TIME@@@?$allocator_traits@V?$allocator@URINGMONSTER_EVENT_TIME@@@std@@@std@@SAXAAV?$allocator@URINGMONSTER_EVENT_TIME@@@1@PAURINGMONSTER_EVENT_TIME@@@Z PROC ; std::allocator_traits<std::allocator<RINGMONSTER_EVENT_TIME> >::destroy<RINGMONSTER_EVENT_TIME>, COMDAT

; 780  : 		_Al.destroy(_Ptr);
; 781  : 		}

  00000	c3		 ret	 0
??$destroy@URINGMONSTER_EVENT_TIME@@@?$allocator_traits@V?$allocator@URINGMONSTER_EVENT_TIME@@@std@@@std@@SAXAAV?$allocator@URINGMONSTER_EVENT_TIME@@@1@PAURINGMONSTER_EVENT_TIME@@@Z ENDP ; std::allocator_traits<std::allocator<RINGMONSTER_EVENT_TIME> >::destroy<RINGMONSTER_EVENT_TIME>
_TEXT	ENDS
; Function compile flags: /Ogtp
; File c:\program files (x86)\microsoft visual studio 14.0\vc\include\xstddef
;	COMDAT ??$_Addressof@URINGMONSTER_EVENT_TIME@@@std@@YAPAURINGMONSTER_EVENT_TIME@@AAU1@U?$integral_constant@_N$0A@@0@@Z
_TEXT	SEGMENT
__Val$ = 8						; size = 4
___formal$ = 12						; size = 1
??$_Addressof@URINGMONSTER_EVENT_TIME@@@std@@YAPAURINGMONSTER_EVENT_TIME@@AAU1@U?$integral_constant@_N$0A@@0@@Z PROC ; std::_Addressof<RINGMONSTER_EVENT_TIME>, COMDAT

; 688  : 	{	// return address of object _Val

  00000	55		 push	 ebp
  00001	8b ec		 mov	 ebp, esp

; 689  : 	return (reinterpret_cast<_Ty *>(

  00003	8b 45 08	 mov	 eax, DWORD PTR __Val$[ebp]

; 690  : 		&const_cast<char&>(
; 691  : 		reinterpret_cast<const volatile char&>(_Val))));
; 692  : 	}

  00006	5d		 pop	 ebp
  00007	c3		 ret	 0
??$_Addressof@URINGMONSTER_EVENT_TIME@@@std@@YAPAURINGMONSTER_EVENT_TIME@@AAU1@U?$integral_constant@_N$0A@@0@@Z ENDP ; std::_Addressof<RINGMONSTER_EVENT_TIME>
_TEXT	ENDS
; Function compile flags: /Ogtp
; File c:\program files (x86)\microsoft visual studio 14.0\vc\include\xutility
;	COMDAT ??$_Rechecked@PAURINGMONSTER_DATA@@PAU1@@std@@YAAAPAURINGMONSTER_DATA@@AAPAU1@PAU1@@Z
_TEXT	SEGMENT
__Dest$ = 8						; size = 4
__Src$ = 12						; size = 4
??$_Rechecked@PAURINGMONSTER_DATA@@PAU1@@std@@YAAAPAURINGMONSTER_DATA@@AAPAU1@PAU1@@Z PROC ; std::_Rechecked<RINGMONSTER_DATA *,RINGMONSTER_DATA *>, COMDAT

; 446  : 	{	// reset checked from unchecked, generic

  00000	55		 push	 ebp
  00001	8b ec		 mov	 ebp, esp

; 447  : 	_Dest = _Src;

  00003	8b 45 08	 mov	 eax, DWORD PTR __Dest$[ebp]
  00006	8b 4d 0c	 mov	 ecx, DWORD PTR __Src$[ebp]
  00009	89 08		 mov	 DWORD PTR [eax], ecx

; 448  : 	return (_Dest);
; 449  : 	}

  0000b	5d		 pop	 ebp
  0000c	c3		 ret	 0
??$_Rechecked@PAURINGMONSTER_DATA@@PAU1@@std@@YAAAPAURINGMONSTER_DATA@@AAPAU1@PAU1@@Z ENDP ; std::_Rechecked<RINGMONSTER_DATA *,RINGMONSTER_DATA *>
_TEXT	ENDS
; Function compile flags: /Ogtp
; File c:\program files (x86)\microsoft visual studio 14.0\vc\include\xmemory
;	COMDAT ??$_Uninit_move@PAURINGMONSTER_DATA@@PAU1@U?$_Wrap_alloc@V?$allocator@URINGMONSTER_DATA@@@std@@@std@@@std@@YAPAURINGMONSTER_DATA@@PAU1@00AAU?$_Wrap_alloc@V?$allocator@URINGMONSTER_DATA@@@std@@@0@@Z
_TEXT	SEGMENT
__Cat$1 = -4						; size = 1
__First$ = 8						; size = 4
__Last$ = 12						; size = 4
__Dest$ = 16						; size = 4
__Al$ = 20						; size = 4
??$_Uninit_move@PAURINGMONSTER_DATA@@PAU1@U?$_Wrap_alloc@V?$allocator@URINGMONSTER_DATA@@@std@@@std@@@std@@YAPAURINGMONSTER_DATA@@PAU1@00AAU?$_Wrap_alloc@V?$allocator@URINGMONSTER_DATA@@@std@@@0@@Z PROC ; std::_Uninit_move<RINGMONSTER_DATA *,RINGMONSTER_DATA *,std::_Wrap_alloc<std::allocator<RINGMONSTER_DATA> > >, COMDAT

; 480  : 	{	// move [_First, _Last) to raw _Dest, using _Al

  00000	55		 push	 ebp
  00001	8b ec		 mov	 ebp, esp
  00003	51		 push	 ecx

; 481  : 	return (_Uninit_move(_First, _Last, _Dest, _Al,

  00004	ff 75 fc	 push	 DWORD PTR __Cat$1[ebp]
  00007	6a 00		 push	 0
  00009	ff 75 14	 push	 DWORD PTR __Al$[ebp]
  0000c	ff 75 10	 push	 DWORD PTR __Dest$[ebp]
  0000f	ff 75 0c	 push	 DWORD PTR __Last$[ebp]
  00012	ff 75 08	 push	 DWORD PTR __First$[ebp]
  00015	e8 00 00 00 00	 call	 ??$_Uninit_move@PAURINGMONSTER_DATA@@PAU1@V?$allocator@URINGMONSTER_DATA@@@std@@U1@@std@@YAPAURINGMONSTER_DATA@@PAU1@00AAU?$_Wrap_alloc@V?$allocator@URINGMONSTER_DATA@@@std@@@0@0U_Nonscalar_ptr_iterator_tag@0@@Z ; std::_Uninit_move<RINGMONSTER_DATA *,RINGMONSTER_DATA *,std::allocator<RINGMONSTER_DATA>,RINGMONSTER_DATA>
  0001a	83 c4 18	 add	 esp, 24			; 00000018H

; 482  : 		_Val_type(_First), _Ptr_cat(_First, _Dest)));
; 483  : 	}

  0001d	8b e5		 mov	 esp, ebp
  0001f	5d		 pop	 ebp
  00020	c3		 ret	 0
??$_Uninit_move@PAURINGMONSTER_DATA@@PAU1@U?$_Wrap_alloc@V?$allocator@URINGMONSTER_DATA@@@std@@@std@@@std@@YAPAURINGMONSTER_DATA@@PAU1@00AAU?$_Wrap_alloc@V?$allocator@URINGMONSTER_DATA@@@std@@@0@@Z ENDP ; std::_Uninit_move<RINGMONSTER_DATA *,RINGMONSTER_DATA *,std::_Wrap_alloc<std::allocator<RINGMONSTER_DATA> > >
_TEXT	ENDS
; Function compile flags: /Ogtp
; File c:\program files (x86)\microsoft visual studio 14.0\vc\include\xutility
;	COMDAT ??$_Unchecked@PAURINGMONSTER_DATA@@@std@@YAPAURINGMONSTER_DATA@@PAU1@@Z
_TEXT	SEGMENT
__Src$ = 8						; size = 4
??$_Unchecked@PAURINGMONSTER_DATA@@@std@@YAPAURINGMONSTER_DATA@@PAU1@@Z PROC ; std::_Unchecked<RINGMONSTER_DATA *>, COMDAT

; 438  : 	{	// construct unchecked from checked, generic

  00000	55		 push	 ebp
  00001	8b ec		 mov	 ebp, esp

; 439  : 	return (_Src);

  00003	8b 45 08	 mov	 eax, DWORD PTR __Src$[ebp]

; 440  : 	}

  00006	5d		 pop	 ebp
  00007	c3		 ret	 0
??$_Unchecked@PAURINGMONSTER_DATA@@@std@@YAPAURINGMONSTER_DATA@@PAU1@@Z ENDP ; std::_Unchecked<RINGMONSTER_DATA *>
_TEXT	ENDS
; Function compile flags: /Ogtp
; File c:\program files (x86)\microsoft visual studio 14.0\vc\include\xutility
;	COMDAT ??$_Rechecked@PAURINGMONSTER_EVENT_TIME@@PAU1@@std@@YAAAPAURINGMONSTER_EVENT_TIME@@AAPAU1@PAU1@@Z
_TEXT	SEGMENT
__Dest$ = 8						; size = 4
__Src$ = 12						; size = 4
??$_Rechecked@PAURINGMONSTER_EVENT_TIME@@PAU1@@std@@YAAAPAURINGMONSTER_EVENT_TIME@@AAPAU1@PAU1@@Z PROC ; std::_Rechecked<RINGMONSTER_EVENT_TIME *,RINGMONSTER_EVENT_TIME *>, COMDAT

; 446  : 	{	// reset checked from unchecked, generic

  00000	55		 push	 ebp
  00001	8b ec		 mov	 ebp, esp

; 447  : 	_Dest = _Src;

  00003	8b 45 08	 mov	 eax, DWORD PTR __Dest$[ebp]
  00006	8b 4d 0c	 mov	 ecx, DWORD PTR __Src$[ebp]
  00009	89 08		 mov	 DWORD PTR [eax], ecx

; 448  : 	return (_Dest);
; 449  : 	}

  0000b	5d		 pop	 ebp
  0000c	c3		 ret	 0
??$_Rechecked@PAURINGMONSTER_EVENT_TIME@@PAU1@@std@@YAAAPAURINGMONSTER_EVENT_TIME@@AAPAU1@PAU1@@Z ENDP ; std::_Rechecked<RINGMONSTER_EVENT_TIME *,RINGMONSTER_EVENT_TIME *>
_TEXT	ENDS
; Function compile flags: /Ogtp
; File c:\program files (x86)\microsoft visual studio 14.0\vc\include\xmemory
;	COMDAT ??$_Uninit_move@PAURINGMONSTER_EVENT_TIME@@PAU1@U?$_Wrap_alloc@V?$allocator@URINGMONSTER_EVENT_TIME@@@std@@@std@@@std@@YAPAURINGMONSTER_EVENT_TIME@@PAU1@00AAU?$_Wrap_alloc@V?$allocator@URINGMONSTER_EVENT_TIME@@@std@@@0@@Z
_TEXT	SEGMENT
__Cat$1 = -4						; size = 1
__First$ = 8						; size = 4
__Last$ = 12						; size = 4
__Dest$ = 16						; size = 4
__Al$ = 20						; size = 4
??$_Uninit_move@PAURINGMONSTER_EVENT_TIME@@PAU1@U?$_Wrap_alloc@V?$allocator@URINGMONSTER_EVENT_TIME@@@std@@@std@@@std@@YAPAURINGMONSTER_EVENT_TIME@@PAU1@00AAU?$_Wrap_alloc@V?$allocator@URINGMONSTER_EVENT_TIME@@@std@@@0@@Z PROC ; std::_Uninit_move<RINGMONSTER_EVENT_TIME *,RINGMONSTER_EVENT_TIME *,std::_Wrap_alloc<std::allocator<RINGMONSTER_EVENT_TIME> > >, COMDAT

; 480  : 	{	// move [_First, _Last) to raw _Dest, using _Al

  00000	55		 push	 ebp
  00001	8b ec		 mov	 ebp, esp
  00003	51		 push	 ecx

; 481  : 	return (_Uninit_move(_First, _Last, _Dest, _Al,

  00004	ff 75 fc	 push	 DWORD PTR __Cat$1[ebp]
  00007	6a 00		 push	 0
  00009	ff 75 14	 push	 DWORD PTR __Al$[ebp]
  0000c	ff 75 10	 push	 DWORD PTR __Dest$[ebp]
  0000f	ff 75 0c	 push	 DWORD PTR __Last$[ebp]
  00012	ff 75 08	 push	 DWORD PTR __First$[ebp]
  00015	e8 00 00 00 00	 call	 ??$_Uninit_move@PAURINGMONSTER_EVENT_TIME@@PAU1@V?$allocator@URINGMONSTER_EVENT_TIME@@@std@@U1@@std@@YAPAURINGMONSTER_EVENT_TIME@@PAU1@00AAU?$_Wrap_alloc@V?$allocator@URINGMONSTER_EVENT_TIME@@@std@@@0@0U_Nonscalar_ptr_iterator_tag@0@@Z ; std::_Uninit_move<RINGMONSTER_EVENT_TIME *,RINGMONSTER_EVENT_TIME *,std::allocator<RINGMONSTER_EVENT_TIME>,RINGMONSTER_EVENT_TIME>
  0001a	83 c4 18	 add	 esp, 24			; 00000018H

; 482  : 		_Val_type(_First), _Ptr_cat(_First, _Dest)));
; 483  : 	}

  0001d	8b e5		 mov	 esp, ebp
  0001f	5d		 pop	 ebp
  00020	c3		 ret	 0
??$_Uninit_move@PAURINGMONSTER_EVENT_TIME@@PAU1@U?$_Wrap_alloc@V?$allocator@URINGMONSTER_EVENT_TIME@@@std@@@std@@@std@@YAPAURINGMONSTER_EVENT_TIME@@PAU1@00AAU?$_Wrap_alloc@V?$allocator@URINGMONSTER_EVENT_TIME@@@std@@@0@@Z ENDP ; std::_Uninit_move<RINGMONSTER_EVENT_TIME *,RINGMONSTER_EVENT_TIME *,std::_Wrap_alloc<std::allocator<RINGMONSTER_EVENT_TIME> > >
_TEXT	ENDS
; Function compile flags: /Ogtp
; File c:\program files (x86)\microsoft visual studio 14.0\vc\include\xutility
;	COMDAT ??$_Unchecked@PAURINGMONSTER_EVENT_TIME@@@std@@YAPAURINGMONSTER_EVENT_TIME@@PAU1@@Z
_TEXT	SEGMENT
__Src$ = 8						; size = 4
??$_Unchecked@PAURINGMONSTER_EVENT_TIME@@@std@@YAPAURINGMONSTER_EVENT_TIME@@PAU1@@Z PROC ; std::_Unchecked<RINGMONSTER_EVENT_TIME *>, COMDAT

; 438  : 	{	// construct unchecked from checked, generic

  00000	55		 push	 ebp
  00001	8b ec		 mov	 ebp, esp

; 439  : 	return (_Src);

  00003	8b 45 08	 mov	 eax, DWORD PTR __Src$[ebp]

; 440  : 	}

  00006	5d		 pop	 ebp
  00007	c3		 ret	 0
??$_Unchecked@PAURINGMONSTER_EVENT_TIME@@@std@@YAPAURINGMONSTER_EVENT_TIME@@PAU1@@Z ENDP ; std::_Unchecked<RINGMONSTER_EVENT_TIME *>
_TEXT	ENDS
; Function compile flags: /Ogtp
; File c:\program files (x86)\microsoft visual studio 14.0\vc\include\xmemory0
;	COMDAT ??$destroy@URINGMONSTER_DATA@@@?$_Wrap_alloc@V?$allocator@URINGMONSTER_DATA@@@std@@@std@@QAEXPAURINGMONSTER_DATA@@@Z
_TEXT	SEGMENT
__Ptr$ = 8						; size = 4
??$destroy@URINGMONSTER_DATA@@@?$_Wrap_alloc@V?$allocator@URINGMONSTER_DATA@@@std@@@std@@QAEXPAURINGMONSTER_DATA@@@Z PROC ; std::_Wrap_alloc<std::allocator<RINGMONSTER_DATA> >::destroy<RINGMONSTER_DATA>, COMDAT
; _this$ = ecx

; 925  : 		_Mytraits::destroy(*this, _Ptr);
; 926  : 		}

  00000	c2 04 00	 ret	 4
??$destroy@URINGMONSTER_DATA@@@?$_Wrap_alloc@V?$allocator@URINGMONSTER_DATA@@@std@@@std@@QAEXPAURINGMONSTER_DATA@@@Z ENDP ; std::_Wrap_alloc<std::allocator<RINGMONSTER_DATA> >::destroy<RINGMONSTER_DATA>
_TEXT	ENDS
; Function compile flags: /Ogtp
; File c:\program files (x86)\microsoft visual studio 14.0\vc\include\xstddef
;	COMDAT ??$addressof@URINGMONSTER_DATA@@@std@@YAPAURINGMONSTER_DATA@@AAU1@@Z
_TEXT	SEGMENT
__Val$ = 8						; size = 4
??$addressof@URINGMONSTER_DATA@@@std@@YAPAURINGMONSTER_DATA@@AAU1@@Z PROC ; std::addressof<RINGMONSTER_DATA>, COMDAT

; 696  : 	{	// return address of _Val

  00000	55		 push	 ebp
  00001	8b ec		 mov	 ebp, esp

; 697  : 	return (_Addressof(_Val, is_function<_Ty>()));

  00003	8b 45 08	 mov	 eax, DWORD PTR __Val$[ebp]

; 698  : 	}

  00006	5d		 pop	 ebp
  00007	c3		 ret	 0
??$addressof@URINGMONSTER_DATA@@@std@@YAPAURINGMONSTER_DATA@@AAU1@@Z ENDP ; std::addressof<RINGMONSTER_DATA>
_TEXT	ENDS
; Function compile flags: /Ogtp
; File c:\program files (x86)\microsoft visual studio 14.0\vc\include\xmemory0
;	COMDAT ??$destroy@URINGMONSTER_EVENT_TIME@@@?$_Wrap_alloc@V?$allocator@URINGMONSTER_EVENT_TIME@@@std@@@std@@QAEXPAURINGMONSTER_EVENT_TIME@@@Z
_TEXT	SEGMENT
__Ptr$ = 8						; size = 4
??$destroy@URINGMONSTER_EVENT_TIME@@@?$_Wrap_alloc@V?$allocator@URINGMONSTER_EVENT_TIME@@@std@@@std@@QAEXPAURINGMONSTER_EVENT_TIME@@@Z PROC ; std::_Wrap_alloc<std::allocator<RINGMONSTER_EVENT_TIME> >::destroy<RINGMONSTER_EVENT_TIME>, COMDAT
; _this$ = ecx

; 925  : 		_Mytraits::destroy(*this, _Ptr);
; 926  : 		}

  00000	c2 04 00	 ret	 4
??$destroy@URINGMONSTER_EVENT_TIME@@@?$_Wrap_alloc@V?$allocator@URINGMONSTER_EVENT_TIME@@@std@@@std@@QAEXPAURINGMONSTER_EVENT_TIME@@@Z ENDP ; std::_Wrap_alloc<std::allocator<RINGMONSTER_EVENT_TIME> >::destroy<RINGMONSTER_EVENT_TIME>
_TEXT	ENDS
; Function compile flags: /Ogtp
; File c:\program files (x86)\microsoft visual studio 14.0\vc\include\xstddef
;	COMDAT ??$addressof@URINGMONSTER_EVENT_TIME@@@std@@YAPAURINGMONSTER_EVENT_TIME@@AAU1@@Z
_TEXT	SEGMENT
__Val$ = 8						; size = 4
??$addressof@URINGMONSTER_EVENT_TIME@@@std@@YAPAURINGMONSTER_EVENT_TIME@@AAU1@@Z PROC ; std::addressof<RINGMONSTER_EVENT_TIME>, COMDAT

; 696  : 	{	// return address of _Val

  00000	55		 push	 ebp
  00001	8b ec		 mov	 ebp, esp

; 697  : 	return (_Addressof(_Val, is_function<_Ty>()));

  00003	8b 45 08	 mov	 eax, DWORD PTR __Val$[ebp]

; 698  : 	}

  00006	5d		 pop	 ebp
  00007	c3		 ret	 0
??$addressof@URINGMONSTER_EVENT_TIME@@@std@@YAPAURINGMONSTER_EVENT_TIME@@AAU1@@Z ENDP ; std::addressof<RINGMONSTER_EVENT_TIME>
_TEXT	ENDS
; Function compile flags: /Ogtp
; File c:\program files (x86)\microsoft visual studio 14.0\vc\include\xmemory0
;	COMDAT ??$construct@URINGMONSTER_DATA@@ABU1@@?$allocator@URINGMONSTER_DATA@@@std@@QAEXPAURINGMONSTER_DATA@@ABU2@@Z
_TEXT	SEGMENT
__Ptr$ = 8						; size = 4
_<_Args_0>$ = 12					; size = 4
??$construct@URINGMONSTER_DATA@@ABU1@@?$allocator@URINGMONSTER_DATA@@@std@@QAEXPAURINGMONSTER_DATA@@ABU2@@Z PROC ; std::allocator<RINGMONSTER_DATA>::construct<RINGMONSTER_DATA,RINGMONSTER_DATA const &>, COMDAT
; _this$ = ecx

; 654  : 		{	// construct _Objty(_Types...) at _Ptr

  00000	55		 push	 ebp
  00001	8b ec		 mov	 ebp, esp

; 655  : 		::new ((void *)_Ptr) _Objty(_STD forward<_Types>(_Args)...);

  00003	8b 4d 08	 mov	 ecx, DWORD PTR __Ptr$[ebp]
  00006	85 c9		 test	 ecx, ecx
  00008	74 11		 je	 SHORT $LN3@construct
  0000a	8b 45 0c	 mov	 eax, DWORD PTR _<_Args_0>$[ebp]
  0000d	f3 0f 7e 00	 movq	 xmm0, QWORD PTR [eax]
  00011	66 0f d6 01	 movq	 QWORD PTR [ecx], xmm0
  00015	8b 40 08	 mov	 eax, DWORD PTR [eax+8]
  00018	89 41 08	 mov	 DWORD PTR [ecx+8], eax
$LN3@construct:

; 656  : 		}

  0001b	5d		 pop	 ebp
  0001c	c2 08 00	 ret	 8
??$construct@URINGMONSTER_DATA@@ABU1@@?$allocator@URINGMONSTER_DATA@@@std@@QAEXPAURINGMONSTER_DATA@@ABU2@@Z ENDP ; std::allocator<RINGMONSTER_DATA>::construct<RINGMONSTER_DATA,RINGMONSTER_DATA const &>
_TEXT	ENDS
; Function compile flags: /Ogtp
; File c:\program files (x86)\microsoft visual studio 14.0\vc\include\xmemory0
;	COMDAT ??$construct@URINGMONSTER_DATA@@AAU1@@?$allocator@URINGMONSTER_DATA@@@std@@QAEXPAURINGMONSTER_DATA@@AAU2@@Z
_TEXT	SEGMENT
__Ptr$ = 8						; size = 4
_<_Args_0>$ = 12					; size = 4
??$construct@URINGMONSTER_DATA@@AAU1@@?$allocator@URINGMONSTER_DATA@@@std@@QAEXPAURINGMONSTER_DATA@@AAU2@@Z PROC ; std::allocator<RINGMONSTER_DATA>::construct<RINGMONSTER_DATA,RINGMONSTER_DATA &>, COMDAT
; _this$ = ecx

; 654  : 		{	// construct _Objty(_Types...) at _Ptr

  00000	55		 push	 ebp
  00001	8b ec		 mov	 ebp, esp

; 655  : 		::new ((void *)_Ptr) _Objty(_STD forward<_Types>(_Args)...);

  00003	8b 4d 08	 mov	 ecx, DWORD PTR __Ptr$[ebp]
  00006	85 c9		 test	 ecx, ecx
  00008	74 11		 je	 SHORT $LN3@construct
  0000a	8b 45 0c	 mov	 eax, DWORD PTR _<_Args_0>$[ebp]
  0000d	f3 0f 7e 00	 movq	 xmm0, QWORD PTR [eax]
  00011	66 0f d6 01	 movq	 QWORD PTR [ecx], xmm0
  00015	8b 40 08	 mov	 eax, DWORD PTR [eax+8]
  00018	89 41 08	 mov	 DWORD PTR [ecx+8], eax
$LN3@construct:

; 656  : 		}

  0001b	5d		 pop	 ebp
  0001c	c2 08 00	 ret	 8
??$construct@URINGMONSTER_DATA@@AAU1@@?$allocator@URINGMONSTER_DATA@@@std@@QAEXPAURINGMONSTER_DATA@@AAU2@@Z ENDP ; std::allocator<RINGMONSTER_DATA>::construct<RINGMONSTER_DATA,RINGMONSTER_DATA &>
_TEXT	ENDS
; Function compile flags: /Ogtp
; File c:\program files (x86)\microsoft visual studio 14.0\vc\include\type_traits
;	COMDAT ??$move@AAURINGMONSTER_DATA@@@std@@YA$$QAURINGMONSTER_DATA@@AAU1@@Z
_TEXT	SEGMENT
__Arg$ = 8						; size = 4
??$move@AAURINGMONSTER_DATA@@@std@@YA$$QAURINGMONSTER_DATA@@AAU1@@Z PROC ; std::move<RINGMONSTER_DATA &>, COMDAT

; 1249 : 	{	// forward _Arg as movable

  00000	55		 push	 ebp
  00001	8b ec		 mov	 ebp, esp

; 1250 : 	return (static_cast<typename remove_reference<_Ty>::type&&>(_Arg));

  00003	8b 45 08	 mov	 eax, DWORD PTR __Arg$[ebp]

; 1251 : 	}

  00006	5d		 pop	 ebp
  00007	c3		 ret	 0
??$move@AAURINGMONSTER_DATA@@@std@@YA$$QAURINGMONSTER_DATA@@AAU1@@Z ENDP ; std::move<RINGMONSTER_DATA &>
_TEXT	ENDS
; Function compile flags: /Ogtp
; File c:\program files (x86)\microsoft visual studio 14.0\vc\include\xmemory0
;	COMDAT ??$construct@URINGMONSTER_EVENT_TIME@@ABU1@@?$allocator@URINGMONSTER_EVENT_TIME@@@std@@QAEXPAURINGMONSTER_EVENT_TIME@@ABU2@@Z
_TEXT	SEGMENT
__Ptr$ = 8						; size = 4
_<_Args_0>$ = 12					; size = 4
??$construct@URINGMONSTER_EVENT_TIME@@ABU1@@?$allocator@URINGMONSTER_EVENT_TIME@@@std@@QAEXPAURINGMONSTER_EVENT_TIME@@ABU2@@Z PROC ; std::allocator<RINGMONSTER_EVENT_TIME>::construct<RINGMONSTER_EVENT_TIME,RINGMONSTER_EVENT_TIME const &>, COMDAT
; _this$ = ecx

; 654  : 		{	// construct _Objty(_Types...) at _Ptr

  00000	55		 push	 ebp
  00001	8b ec		 mov	 ebp, esp

; 655  : 		::new ((void *)_Ptr) _Objty(_STD forward<_Types>(_Args)...);

  00003	8b 55 08	 mov	 edx, DWORD PTR __Ptr$[ebp]
  00006	85 d2		 test	 edx, edx
  00008	74 0d		 je	 SHORT $LN3@construct
  0000a	8b 4d 0c	 mov	 ecx, DWORD PTR _<_Args_0>$[ebp]
  0000d	8b 01		 mov	 eax, DWORD PTR [ecx]
  0000f	89 02		 mov	 DWORD PTR [edx], eax
  00011	8b 41 04	 mov	 eax, DWORD PTR [ecx+4]
  00014	89 42 04	 mov	 DWORD PTR [edx+4], eax
$LN3@construct:

; 656  : 		}

  00017	5d		 pop	 ebp
  00018	c2 08 00	 ret	 8
??$construct@URINGMONSTER_EVENT_TIME@@ABU1@@?$allocator@URINGMONSTER_EVENT_TIME@@@std@@QAEXPAURINGMONSTER_EVENT_TIME@@ABU2@@Z ENDP ; std::allocator<RINGMONSTER_EVENT_TIME>::construct<RINGMONSTER_EVENT_TIME,RINGMONSTER_EVENT_TIME const &>
_TEXT	ENDS
; Function compile flags: /Ogtp
; File c:\program files (x86)\microsoft visual studio 14.0\vc\include\xmemory0
;	COMDAT ??$construct@URINGMONSTER_EVENT_TIME@@AAU1@@?$allocator@URINGMONSTER_EVENT_TIME@@@std@@QAEXPAURINGMONSTER_EVENT_TIME@@AAU2@@Z
_TEXT	SEGMENT
__Ptr$ = 8						; size = 4
_<_Args_0>$ = 12					; size = 4
??$construct@URINGMONSTER_EVENT_TIME@@AAU1@@?$allocator@URINGMONSTER_EVENT_TIME@@@std@@QAEXPAURINGMONSTER_EVENT_TIME@@AAU2@@Z PROC ; std::allocator<RINGMONSTER_EVENT_TIME>::construct<RINGMONSTER_EVENT_TIME,RINGMONSTER_EVENT_TIME &>, COMDAT
; _this$ = ecx

; 654  : 		{	// construct _Objty(_Types...) at _Ptr

  00000	55		 push	 ebp
  00001	8b ec		 mov	 ebp, esp

; 655  : 		::new ((void *)_Ptr) _Objty(_STD forward<_Types>(_Args)...);

  00003	8b 55 08	 mov	 edx, DWORD PTR __Ptr$[ebp]
  00006	85 d2		 test	 edx, edx
  00008	74 0d		 je	 SHORT $LN3@construct
  0000a	8b 4d 0c	 mov	 ecx, DWORD PTR _<_Args_0>$[ebp]
  0000d	8b 01		 mov	 eax, DWORD PTR [ecx]
  0000f	89 02		 mov	 DWORD PTR [edx], eax
  00011	8b 41 04	 mov	 eax, DWORD PTR [ecx+4]
  00014	89 42 04	 mov	 DWORD PTR [edx+4], eax
$LN3@construct:

; 656  : 		}

  00017	5d		 pop	 ebp
  00018	c2 08 00	 ret	 8
??$construct@URINGMONSTER_EVENT_TIME@@AAU1@@?$allocator@URINGMONSTER_EVENT_TIME@@@std@@QAEXPAURINGMONSTER_EVENT_TIME@@AAU2@@Z ENDP ; std::allocator<RINGMONSTER_EVENT_TIME>::construct<RINGMONSTER_EVENT_TIME,RINGMONSTER_EVENT_TIME &>
_TEXT	ENDS
; Function compile flags: /Ogtp
; File c:\program files (x86)\microsoft visual studio 14.0\vc\include\type_traits
;	COMDAT ??$move@AAURINGMONSTER_EVENT_TIME@@@std@@YA$$QAURINGMONSTER_EVENT_TIME@@AAU1@@Z
_TEXT	SEGMENT
__Arg$ = 8						; size = 4
??$move@AAURINGMONSTER_EVENT_TIME@@@std@@YA$$QAURINGMONSTER_EVENT_TIME@@AAU1@@Z PROC ; std::move<RINGMONSTER_EVENT_TIME &>, COMDAT

; 1249 : 	{	// forward _Arg as movable

  00000	55		 push	 ebp
  00001	8b ec		 mov	 ebp, esp

; 1250 : 	return (static_cast<typename remove_reference<_Ty>::type&&>(_Arg));

  00003	8b 45 08	 mov	 eax, DWORD PTR __Arg$[ebp]

; 1251 : 	}

  00006	5d		 pop	 ebp
  00007	c3		 ret	 0
??$move@AAURINGMONSTER_EVENT_TIME@@@std@@YA$$QAURINGMONSTER_EVENT_TIME@@AAU1@@Z ENDP ; std::move<RINGMONSTER_EVENT_TIME &>
_TEXT	ENDS
; Function compile flags: /Ogtp
; File c:\program files (x86)\microsoft visual studio 14.0\vc\include\xmemory
;	COMDAT ??$_Uninitialized_move@PAURINGMONSTER_DATA@@PAU1@U?$_Wrap_alloc@V?$allocator@URINGMONSTER_DATA@@@std@@@std@@@std@@YAPAURINGMONSTER_DATA@@PAU1@00AAU?$_Wrap_alloc@V?$allocator@URINGMONSTER_DATA@@@std@@@0@@Z
_TEXT	SEGMENT
__First$ = 8						; size = 4
__Last$ = 12						; size = 4
__Cat$1 = 16						; size = 1
__Dest$ = 16						; size = 4
__Al$ = 20						; size = 4
??$_Uninitialized_move@PAURINGMONSTER_DATA@@PAU1@U?$_Wrap_alloc@V?$allocator@URINGMONSTER_DATA@@@std@@@std@@@std@@YAPAURINGMONSTER_DATA@@PAU1@00AAU?$_Wrap_alloc@V?$allocator@URINGMONSTER_DATA@@@std@@@0@@Z PROC ; std::_Uninitialized_move<RINGMONSTER_DATA *,RINGMONSTER_DATA *,std::_Wrap_alloc<std::allocator<RINGMONSTER_DATA> > >, COMDAT

; 490  : 	{	// move [_First, _Last) to raw _Dest, using _Al

  00000	55		 push	 ebp
  00001	8b ec		 mov	 ebp, esp

; 481  : 	return (_Uninit_move(_First, _Last, _Dest, _Al,

  00003	ff 75 10	 push	 DWORD PTR __Cat$1[ebp]
  00006	6a 00		 push	 0
  00008	ff 75 14	 push	 DWORD PTR __Al$[ebp]
  0000b	ff 75 10	 push	 DWORD PTR __Dest$[ebp]
  0000e	ff 75 0c	 push	 DWORD PTR __Last$[ebp]
  00011	ff 75 08	 push	 DWORD PTR __First$[ebp]
  00014	e8 00 00 00 00	 call	 ??$_Uninit_move@PAURINGMONSTER_DATA@@PAU1@V?$allocator@URINGMONSTER_DATA@@@std@@U1@@std@@YAPAURINGMONSTER_DATA@@PAU1@00AAU?$_Wrap_alloc@V?$allocator@URINGMONSTER_DATA@@@std@@@0@0U_Nonscalar_ptr_iterator_tag@0@@Z ; std::_Uninit_move<RINGMONSTER_DATA *,RINGMONSTER_DATA *,std::allocator<RINGMONSTER_DATA>,RINGMONSTER_DATA>
  00019	83 c4 18	 add	 esp, 24			; 00000018H

; 491  : 	return (_Rechecked(_Dest,
; 492  : 		_Uninit_move(_Unchecked(_First), _Unchecked(_Last),
; 493  : 			_Unchecked(_Dest), _Al)));
; 494  : 	}

  0001c	5d		 pop	 ebp
  0001d	c3		 ret	 0
??$_Uninitialized_move@PAURINGMONSTER_DATA@@PAU1@U?$_Wrap_alloc@V?$allocator@URINGMONSTER_DATA@@@std@@@std@@@std@@YAPAURINGMONSTER_DATA@@PAU1@00AAU?$_Wrap_alloc@V?$allocator@URINGMONSTER_DATA@@@std@@@0@@Z ENDP ; std::_Uninitialized_move<RINGMONSTER_DATA *,RINGMONSTER_DATA *,std::_Wrap_alloc<std::allocator<RINGMONSTER_DATA> > >
_TEXT	ENDS
; Function compile flags: /Ogtp
; File c:\program files (x86)\microsoft visual studio 14.0\vc\include\xmemory
;	COMDAT ??$_Uninitialized_move@PAURINGMONSTER_EVENT_TIME@@PAU1@U?$_Wrap_alloc@V?$allocator@URINGMONSTER_EVENT_TIME@@@std@@@std@@@std@@YAPAURINGMONSTER_EVENT_TIME@@PAU1@00AAU?$_Wrap_alloc@V?$allocator@URINGMONSTER_EVENT_TIME@@@std@@@0@@Z
_TEXT	SEGMENT
__First$ = 8						; size = 4
__Last$ = 12						; size = 4
__Cat$1 = 16						; size = 1
__Dest$ = 16						; size = 4
__Al$ = 20						; size = 4
??$_Uninitialized_move@PAURINGMONSTER_EVENT_TIME@@PAU1@U?$_Wrap_alloc@V?$allocator@URINGMONSTER_EVENT_TIME@@@std@@@std@@@std@@YAPAURINGMONSTER_EVENT_TIME@@PAU1@00AAU?$_Wrap_alloc@V?$allocator@URINGMONSTER_EVENT_TIME@@@std@@@0@@Z PROC ; std::_Uninitialized_move<RINGMONSTER_EVENT_TIME *,RINGMONSTER_EVENT_TIME *,std::_Wrap_alloc<std::allocator<RINGMONSTER_EVENT_TIME> > >, COMDAT

; 490  : 	{	// move [_First, _Last) to raw _Dest, using _Al

  00000	55		 push	 ebp
  00001	8b ec		 mov	 ebp, esp

; 481  : 	return (_Uninit_move(_First, _Last, _Dest, _Al,

  00003	ff 75 10	 push	 DWORD PTR __Cat$1[ebp]
  00006	6a 00		 push	 0
  00008	ff 75 14	 push	 DWORD PTR __Al$[ebp]
  0000b	ff 75 10	 push	 DWORD PTR __Dest$[ebp]
  0000e	ff 75 0c	 push	 DWORD PTR __Last$[ebp]
  00011	ff 75 08	 push	 DWORD PTR __First$[ebp]
  00014	e8 00 00 00 00	 call	 ??$_Uninit_move@PAURINGMONSTER_EVENT_TIME@@PAU1@V?$allocator@URINGMONSTER_EVENT_TIME@@@std@@U1@@std@@YAPAURINGMONSTER_EVENT_TIME@@PAU1@00AAU?$_Wrap_alloc@V?$allocator@URINGMONSTER_EVENT_TIME@@@std@@@0@0U_Nonscalar_ptr_iterator_tag@0@@Z ; std::_Uninit_move<RINGMONSTER_EVENT_TIME *,RINGMONSTER_EVENT_TIME *,std::allocator<RINGMONSTER_EVENT_TIME>,RINGMONSTER_EVENT_TIME>
  00019	83 c4 18	 add	 esp, 24			; 00000018H

; 491  : 	return (_Rechecked(_Dest,
; 492  : 		_Uninit_move(_Unchecked(_First), _Unchecked(_Last),
; 493  : 			_Unchecked(_Dest), _Al)));
; 494  : 	}

  0001c	5d		 pop	 ebp
  0001d	c3		 ret	 0
??$_Uninitialized_move@PAURINGMONSTER_EVENT_TIME@@PAU1@U?$_Wrap_alloc@V?$allocator@URINGMONSTER_EVENT_TIME@@@std@@@std@@@std@@YAPAURINGMONSTER_EVENT_TIME@@PAU1@00AAU?$_Wrap_alloc@V?$allocator@URINGMONSTER_EVENT_TIME@@@std@@@0@@Z ENDP ; std::_Uninitialized_move<RINGMONSTER_EVENT_TIME *,RINGMONSTER_EVENT_TIME *,std::_Wrap_alloc<std::allocator<RINGMONSTER_EVENT_TIME> > >
_TEXT	ENDS
; Function compile flags: /Ogtp
; File c:\program files (x86)\microsoft visual studio 14.0\vc\include\xmemory0
;	COMDAT ??$_Destroy_range@U?$_Wrap_alloc@V?$allocator@URINGMONSTER_DATA@@@std@@@std@@@std@@YAXPAURINGMONSTER_DATA@@0AAU?$_Wrap_alloc@V?$allocator@URINGMONSTER_DATA@@@std@@@0@U_Nonscalar_ptr_iterator_tag@0@@Z
_TEXT	SEGMENT
__First$ = 8						; size = 4
__Last$ = 12						; size = 4
__Al$ = 16						; size = 4
___formal$ = 20						; size = 1
??$_Destroy_range@U?$_Wrap_alloc@V?$allocator@URINGMONSTER_DATA@@@std@@@std@@@std@@YAXPAURINGMONSTER_DATA@@0AAU?$_Wrap_alloc@V?$allocator@URINGMONSTER_DATA@@@std@@@0@U_Nonscalar_ptr_iterator_tag@0@@Z PROC ; std::_Destroy_range<std::_Wrap_alloc<std::allocator<RINGMONSTER_DATA> > >, COMDAT

; 171  : 	for (; _First != _Last; ++_First)
; 172  : 		_Al.destroy(_STD addressof(*_First));
; 173  : 	}

  00000	c3		 ret	 0
??$_Destroy_range@U?$_Wrap_alloc@V?$allocator@URINGMONSTER_DATA@@@std@@@std@@@std@@YAXPAURINGMONSTER_DATA@@0AAU?$_Wrap_alloc@V?$allocator@URINGMONSTER_DATA@@@std@@@0@U_Nonscalar_ptr_iterator_tag@0@@Z ENDP ; std::_Destroy_range<std::_Wrap_alloc<std::allocator<RINGMONSTER_DATA> > >
_TEXT	ENDS
; Function compile flags: /Ogtp
; File c:\program files (x86)\microsoft visual studio 14.0\vc\include\type_traits
;	COMDAT ??$forward@ABV?$allocator@URINGMONSTER_DATA@@@std@@@std@@YAABV?$allocator@URINGMONSTER_DATA@@@0@ABV10@@Z
_TEXT	SEGMENT
__Arg$ = 8						; size = 4
??$forward@ABV?$allocator@URINGMONSTER_DATA@@@std@@@std@@YAABV?$allocator@URINGMONSTER_DATA@@@0@ABV10@@Z PROC ; std::forward<std::allocator<RINGMONSTER_DATA> const &>, COMDAT

; 1233 : 	{	// forward an lvalue as either an lvalue or an rvalue

  00000	55		 push	 ebp
  00001	8b ec		 mov	 ebp, esp

; 1234 : 	return (static_cast<_Ty&&>(_Arg));

  00003	8b 45 08	 mov	 eax, DWORD PTR __Arg$[ebp]

; 1235 : 	}

  00006	5d		 pop	 ebp
  00007	c3		 ret	 0
??$forward@ABV?$allocator@URINGMONSTER_DATA@@@std@@@std@@YAABV?$allocator@URINGMONSTER_DATA@@@0@ABV10@@Z ENDP ; std::forward<std::allocator<RINGMONSTER_DATA> const &>
_TEXT	ENDS
; Function compile flags: /Ogtp
; File c:\program files (x86)\microsoft visual studio 14.0\vc\include\xmemory0
;	COMDAT ??$_Destroy_range@U?$_Wrap_alloc@V?$allocator@URINGMONSTER_EVENT_TIME@@@std@@@std@@@std@@YAXPAURINGMONSTER_EVENT_TIME@@0AAU?$_Wrap_alloc@V?$allocator@URINGMONSTER_EVENT_TIME@@@std@@@0@U_Nonscalar_ptr_iterator_tag@0@@Z
_TEXT	SEGMENT
__First$ = 8						; size = 4
__Last$ = 12						; size = 4
__Al$ = 16						; size = 4
___formal$ = 20						; size = 1
??$_Destroy_range@U?$_Wrap_alloc@V?$allocator@URINGMONSTER_EVENT_TIME@@@std@@@std@@@std@@YAXPAURINGMONSTER_EVENT_TIME@@0AAU?$_Wrap_alloc@V?$allocator@URINGMONSTER_EVENT_TIME@@@std@@@0@U_Nonscalar_ptr_iterator_tag@0@@Z PROC ; std::_Destroy_range<std::_Wrap_alloc<std::allocator<RINGMONSTER_EVENT_TIME> > >, COMDAT

; 171  : 	for (; _First != _Last; ++_First)
; 172  : 		_Al.destroy(_STD addressof(*_First));
; 173  : 	}

  00000	c3		 ret	 0
??$_Destroy_range@U?$_Wrap_alloc@V?$allocator@URINGMONSTER_EVENT_TIME@@@std@@@std@@@std@@YAXPAURINGMONSTER_EVENT_TIME@@0AAU?$_Wrap_alloc@V?$allocator@URINGMONSTER_EVENT_TIME@@@std@@@0@U_Nonscalar_ptr_iterator_tag@0@@Z ENDP ; std::_Destroy_range<std::_Wrap_alloc<std::allocator<RINGMONSTER_EVENT_TIME> > >
_TEXT	ENDS
; Function compile flags: /Ogtp
; File c:\program files (x86)\microsoft visual studio 14.0\vc\include\type_traits
;	COMDAT ??$forward@ABV?$allocator@URINGMONSTER_EVENT_TIME@@@std@@@std@@YAABV?$allocator@URINGMONSTER_EVENT_TIME@@@0@ABV10@@Z
_TEXT	SEGMENT
__Arg$ = 8						; size = 4
??$forward@ABV?$allocator@URINGMONSTER_EVENT_TIME@@@std@@@std@@YAABV?$allocator@URINGMONSTER_EVENT_TIME@@@0@ABV10@@Z PROC ; std::forward<std::allocator<RINGMONSTER_EVENT_TIME> const &>, COMDAT

; 1233 : 	{	// forward an lvalue as either an lvalue or an rvalue

  00000	55		 push	 ebp
  00001	8b ec		 mov	 ebp, esp

; 1234 : 	return (static_cast<_Ty&&>(_Arg));

  00003	8b 45 08	 mov	 eax, DWORD PTR __Arg$[ebp]

; 1235 : 	}

  00006	5d		 pop	 ebp
  00007	c3		 ret	 0
??$forward@ABV?$allocator@URINGMONSTER_EVENT_TIME@@@std@@@std@@YAABV?$allocator@URINGMONSTER_EVENT_TIME@@@0@ABV10@@Z ENDP ; std::forward<std::allocator<RINGMONSTER_EVENT_TIME> const &>
_TEXT	ENDS
; Function compile flags: /Ogtp
; File c:\program files (x86)\microsoft visual studio 14.0\vc\include\xmemory0
;	COMDAT ??$construct@URINGMONSTER_DATA@@ABU1@@?$allocator_traits@V?$allocator@URINGMONSTER_DATA@@@std@@@std@@SAXAAV?$allocator@URINGMONSTER_DATA@@@1@PAURINGMONSTER_DATA@@ABU3@@Z
_TEXT	SEGMENT
__Al$ = 8						; size = 4
__Ptr$ = 12						; size = 4
_<_Args_0>$ = 16					; size = 4
??$construct@URINGMONSTER_DATA@@ABU1@@?$allocator_traits@V?$allocator@URINGMONSTER_DATA@@@std@@@std@@SAXAAV?$allocator@URINGMONSTER_DATA@@@1@PAURINGMONSTER_DATA@@ABU3@@Z PROC ; std::allocator_traits<std::allocator<RINGMONSTER_DATA> >::construct<RINGMONSTER_DATA,RINGMONSTER_DATA const &>, COMDAT

; 772  : 		{	// construct _Objty(_Types...) at _Ptr

  00000	55		 push	 ebp
  00001	8b ec		 mov	 ebp, esp

; 655  : 		::new ((void *)_Ptr) _Objty(_STD forward<_Types>(_Args)...);

  00003	8b 4d 0c	 mov	 ecx, DWORD PTR __Ptr$[ebp]
  00006	85 c9		 test	 ecx, ecx
  00008	74 11		 je	 SHORT $LN8@construct
  0000a	8b 45 10	 mov	 eax, DWORD PTR _<_Args_0>$[ebp]
  0000d	f3 0f 7e 00	 movq	 xmm0, QWORD PTR [eax]
  00011	66 0f d6 01	 movq	 QWORD PTR [ecx], xmm0
  00015	8b 40 08	 mov	 eax, DWORD PTR [eax+8]
  00018	89 41 08	 mov	 DWORD PTR [ecx+8], eax
$LN8@construct:

; 773  : 		_Al.construct(_Ptr, _STD forward<_Types>(_Args)...);
; 774  : 		}

  0001b	5d		 pop	 ebp
  0001c	c3		 ret	 0
??$construct@URINGMONSTER_DATA@@ABU1@@?$allocator_traits@V?$allocator@URINGMONSTER_DATA@@@std@@@std@@SAXAAV?$allocator@URINGMONSTER_DATA@@@1@PAURINGMONSTER_DATA@@ABU3@@Z ENDP ; std::allocator_traits<std::allocator<RINGMONSTER_DATA> >::construct<RINGMONSTER_DATA,RINGMONSTER_DATA const &>
_TEXT	ENDS
; Function compile flags: /Ogtp
; File c:\program files (x86)\microsoft visual studio 14.0\vc\include\type_traits
;	COMDAT ??$forward@ABURINGMONSTER_DATA@@@std@@YAABURINGMONSTER_DATA@@ABU1@@Z
_TEXT	SEGMENT
__Arg$ = 8						; size = 4
??$forward@ABURINGMONSTER_DATA@@@std@@YAABURINGMONSTER_DATA@@ABU1@@Z PROC ; std::forward<RINGMONSTER_DATA const &>, COMDAT

; 1233 : 	{	// forward an lvalue as either an lvalue or an rvalue

  00000	55		 push	 ebp
  00001	8b ec		 mov	 ebp, esp

; 1234 : 	return (static_cast<_Ty&&>(_Arg));

  00003	8b 45 08	 mov	 eax, DWORD PTR __Arg$[ebp]

; 1235 : 	}

  00006	5d		 pop	 ebp
  00007	c3		 ret	 0
??$forward@ABURINGMONSTER_DATA@@@std@@YAABURINGMONSTER_DATA@@ABU1@@Z ENDP ; std::forward<RINGMONSTER_DATA const &>
_TEXT	ENDS
; Function compile flags: /Ogtp
; File c:\program files (x86)\microsoft visual studio 14.0\vc\include\xmemory0
;	COMDAT ??$construct@URINGMONSTER_DATA@@AAU1@@?$allocator_traits@V?$allocator@URINGMONSTER_DATA@@@std@@@std@@SAXAAV?$allocator@URINGMONSTER_DATA@@@1@PAURINGMONSTER_DATA@@AAU3@@Z
_TEXT	SEGMENT
__Al$ = 8						; size = 4
__Ptr$ = 12						; size = 4
_<_Args_0>$ = 16					; size = 4
??$construct@URINGMONSTER_DATA@@AAU1@@?$allocator_traits@V?$allocator@URINGMONSTER_DATA@@@std@@@std@@SAXAAV?$allocator@URINGMONSTER_DATA@@@1@PAURINGMONSTER_DATA@@AAU3@@Z PROC ; std::allocator_traits<std::allocator<RINGMONSTER_DATA> >::construct<RINGMONSTER_DATA,RINGMONSTER_DATA &>, COMDAT

; 772  : 		{	// construct _Objty(_Types...) at _Ptr

  00000	55		 push	 ebp
  00001	8b ec		 mov	 ebp, esp

; 655  : 		::new ((void *)_Ptr) _Objty(_STD forward<_Types>(_Args)...);

  00003	8b 4d 0c	 mov	 ecx, DWORD PTR __Ptr$[ebp]
  00006	85 c9		 test	 ecx, ecx
  00008	74 11		 je	 SHORT $LN8@construct
  0000a	8b 45 10	 mov	 eax, DWORD PTR _<_Args_0>$[ebp]
  0000d	f3 0f 7e 00	 movq	 xmm0, QWORD PTR [eax]
  00011	66 0f d6 01	 movq	 QWORD PTR [ecx], xmm0
  00015	8b 40 08	 mov	 eax, DWORD PTR [eax+8]
  00018	89 41 08	 mov	 DWORD PTR [ecx+8], eax
$LN8@construct:

; 773  : 		_Al.construct(_Ptr, _STD forward<_Types>(_Args)...);
; 774  : 		}

  0001b	5d		 pop	 ebp
  0001c	c3		 ret	 0
??$construct@URINGMONSTER_DATA@@AAU1@@?$allocator_traits@V?$allocator@URINGMONSTER_DATA@@@std@@@std@@SAXAAV?$allocator@URINGMONSTER_DATA@@@1@PAURINGMONSTER_DATA@@AAU3@@Z ENDP ; std::allocator_traits<std::allocator<RINGMONSTER_DATA> >::construct<RINGMONSTER_DATA,RINGMONSTER_DATA &>
_TEXT	ENDS
; Function compile flags: /Ogtp
; File c:\program files (x86)\microsoft visual studio 14.0\vc\include\type_traits
;	COMDAT ??$forward@AAURINGMONSTER_DATA@@@std@@YAAAURINGMONSTER_DATA@@AAU1@@Z
_TEXT	SEGMENT
__Arg$ = 8						; size = 4
??$forward@AAURINGMONSTER_DATA@@@std@@YAAAURINGMONSTER_DATA@@AAU1@@Z PROC ; std::forward<RINGMONSTER_DATA &>, COMDAT

; 1233 : 	{	// forward an lvalue as either an lvalue or an rvalue

  00000	55		 push	 ebp
  00001	8b ec		 mov	 ebp, esp

; 1234 : 	return (static_cast<_Ty&&>(_Arg));

  00003	8b 45 08	 mov	 eax, DWORD PTR __Arg$[ebp]

; 1235 : 	}

  00006	5d		 pop	 ebp
  00007	c3		 ret	 0
??$forward@AAURINGMONSTER_DATA@@@std@@YAAAURINGMONSTER_DATA@@AAU1@@Z ENDP ; std::forward<RINGMONSTER_DATA &>
_TEXT	ENDS
; Function compile flags: /Ogtp
; File c:\program files (x86)\microsoft visual studio 14.0\vc\include\xstddef
;	COMDAT ??$_Addressof@$$CBURINGMONSTER_DATA@@@std@@YAPBURINGMONSTER_DATA@@ABU1@U?$integral_constant@_N$0A@@0@@Z
_TEXT	SEGMENT
__Val$ = 8						; size = 4
___formal$ = 12						; size = 1
??$_Addressof@$$CBURINGMONSTER_DATA@@@std@@YAPBURINGMONSTER_DATA@@ABU1@U?$integral_constant@_N$0A@@0@@Z PROC ; std::_Addressof<RINGMONSTER_DATA const >, COMDAT

; 688  : 	{	// return address of object _Val

  00000	55		 push	 ebp
  00001	8b ec		 mov	 ebp, esp

; 689  : 	return (reinterpret_cast<_Ty *>(

  00003	8b 45 08	 mov	 eax, DWORD PTR __Val$[ebp]

; 690  : 		&const_cast<char&>(
; 691  : 		reinterpret_cast<const volatile char&>(_Val))));
; 692  : 	}

  00006	5d		 pop	 ebp
  00007	c3		 ret	 0
??$_Addressof@$$CBURINGMONSTER_DATA@@@std@@YAPBURINGMONSTER_DATA@@ABU1@U?$integral_constant@_N$0A@@0@@Z ENDP ; std::_Addressof<RINGMONSTER_DATA const >
_TEXT	ENDS
; Function compile flags: /Ogtp
; File c:\program files (x86)\microsoft visual studio 14.0\vc\include\xutility
;	COMDAT ??$_Move@PAURINGMONSTER_DATA@@PAU1@@std@@YAPAURINGMONSTER_DATA@@PAU1@00U_Nonscalar_ptr_iterator_tag@0@@Z
_TEXT	SEGMENT
__First$ = 8						; size = 4
__Last$ = 12						; size = 4
__Dest$ = 16						; size = 4
___formal$ = 20						; size = 1
??$_Move@PAURINGMONSTER_DATA@@PAU1@@std@@YAPAURINGMONSTER_DATA@@PAU1@00U_Nonscalar_ptr_iterator_tag@0@@Z PROC ; std::_Move<RINGMONSTER_DATA *,RINGMONSTER_DATA *>, COMDAT

; 2516 : 	{	// move [_First, _Last) to [_Dest, ...), arbitrary iterators

  00000	55		 push	 ebp
  00001	8b ec		 mov	 ebp, esp

; 2517 : 	for (; _First != _Last; ++_Dest, (void)++_First)

  00003	8b 4d 08	 mov	 ecx, DWORD PTR __First$[ebp]
  00006	8b 45 10	 mov	 eax, DWORD PTR __Dest$[ebp]
  00009	56		 push	 esi
  0000a	8b 75 0c	 mov	 esi, DWORD PTR __Last$[ebp]
  0000d	3b ce		 cmp	 ecx, esi
  0000f	74 18		 je	 SHORT $LN3@Move
$LL4@Move:

; 2518 : 		*_Dest = _STD move(*_First);

  00011	f3 0f 7e 01	 movq	 xmm0, QWORD PTR [ecx]
  00015	66 0f d6 00	 movq	 QWORD PTR [eax], xmm0
  00019	8b 51 08	 mov	 edx, DWORD PTR [ecx+8]
  0001c	83 c1 0c	 add	 ecx, 12			; 0000000cH
  0001f	89 50 08	 mov	 DWORD PTR [eax+8], edx
  00022	83 c0 0c	 add	 eax, 12			; 0000000cH
  00025	3b ce		 cmp	 ecx, esi
  00027	75 e8		 jne	 SHORT $LL4@Move
$LN3@Move:
  00029	5e		 pop	 esi

; 2519 : 	return (_Dest);
; 2520 : 	}

  0002a	5d		 pop	 ebp
  0002b	c3		 ret	 0
??$_Move@PAURINGMONSTER_DATA@@PAU1@@std@@YAPAURINGMONSTER_DATA@@PAU1@00U_Nonscalar_ptr_iterator_tag@0@@Z ENDP ; std::_Move<RINGMONSTER_DATA *,RINGMONSTER_DATA *>
_TEXT	ENDS
; Function compile flags: /Ogtp
; File c:\program files (x86)\microsoft visual studio 14.0\vc\include\xutility
;	COMDAT ??$_Ptr_cat@URINGMONSTER_DATA@@U1@@std@@YA?AU_Nonscalar_ptr_iterator_tag@0@PAURINGMONSTER_DATA@@0@Z
_TEXT	SEGMENT
__Cat$ = -1						; size = 1
___formal$ = 8						; size = 4
___formal$ = 12						; size = 4
??$_Ptr_cat@URINGMONSTER_DATA@@U1@@std@@YA?AU_Nonscalar_ptr_iterator_tag@0@PAURINGMONSTER_DATA@@0@Z PROC ; std::_Ptr_cat<RINGMONSTER_DATA,RINGMONSTER_DATA>, COMDAT

; 640  : 	{	// return pointer category from pointers

  00000	55		 push	 ebp
  00001	8b ec		 mov	 ebp, esp
  00003	51		 push	 ecx

; 641  : 	typename _Ptr_cat_helper<_Elem1, _Elem2>::type _Cat;
; 642  : 	return (_Cat);

  00004	8a 45 ff	 mov	 al, BYTE PTR __Cat$[ebp]

; 643  : 	}

  00007	8b e5		 mov	 esp, ebp
  00009	5d		 pop	 ebp
  0000a	c3		 ret	 0
??$_Ptr_cat@URINGMONSTER_DATA@@U1@@std@@YA?AU_Nonscalar_ptr_iterator_tag@0@PAURINGMONSTER_DATA@@0@Z ENDP ; std::_Ptr_cat<RINGMONSTER_DATA,RINGMONSTER_DATA>
_TEXT	ENDS
; Function compile flags: /Ogtp
; File c:\program files (x86)\microsoft visual studio 14.0\vc\include\xmemory0
;	COMDAT ??$construct@URINGMONSTER_EVENT_TIME@@ABU1@@?$allocator_traits@V?$allocator@URINGMONSTER_EVENT_TIME@@@std@@@std@@SAXAAV?$allocator@URINGMONSTER_EVENT_TIME@@@1@PAURINGMONSTER_EVENT_TIME@@ABU3@@Z
_TEXT	SEGMENT
__Al$ = 8						; size = 4
__Ptr$ = 12						; size = 4
_<_Args_0>$ = 16					; size = 4
??$construct@URINGMONSTER_EVENT_TIME@@ABU1@@?$allocator_traits@V?$allocator@URINGMONSTER_EVENT_TIME@@@std@@@std@@SAXAAV?$allocator@URINGMONSTER_EVENT_TIME@@@1@PAURINGMONSTER_EVENT_TIME@@ABU3@@Z PROC ; std::allocator_traits<std::allocator<RINGMONSTER_EVENT_TIME> >::construct<RINGMONSTER_EVENT_TIME,RINGMONSTER_EVENT_TIME const &>, COMDAT

; 772  : 		{	// construct _Objty(_Types...) at _Ptr

  00000	55		 push	 ebp
  00001	8b ec		 mov	 ebp, esp

; 655  : 		::new ((void *)_Ptr) _Objty(_STD forward<_Types>(_Args)...);

  00003	8b 55 0c	 mov	 edx, DWORD PTR __Ptr$[ebp]
  00006	85 d2		 test	 edx, edx
  00008	74 0d		 je	 SHORT $LN8@construct
  0000a	8b 4d 10	 mov	 ecx, DWORD PTR _<_Args_0>$[ebp]
  0000d	8b 01		 mov	 eax, DWORD PTR [ecx]
  0000f	89 02		 mov	 DWORD PTR [edx], eax
  00011	8b 41 04	 mov	 eax, DWORD PTR [ecx+4]
  00014	89 42 04	 mov	 DWORD PTR [edx+4], eax
$LN8@construct:

; 773  : 		_Al.construct(_Ptr, _STD forward<_Types>(_Args)...);
; 774  : 		}

  00017	5d		 pop	 ebp
  00018	c3		 ret	 0
??$construct@URINGMONSTER_EVENT_TIME@@ABU1@@?$allocator_traits@V?$allocator@URINGMONSTER_EVENT_TIME@@@std@@@std@@SAXAAV?$allocator@URINGMONSTER_EVENT_TIME@@@1@PAURINGMONSTER_EVENT_TIME@@ABU3@@Z ENDP ; std::allocator_traits<std::allocator<RINGMONSTER_EVENT_TIME> >::construct<RINGMONSTER_EVENT_TIME,RINGMONSTER_EVENT_TIME const &>
_TEXT	ENDS
; Function compile flags: /Ogtp
; File c:\program files (x86)\microsoft visual studio 14.0\vc\include\type_traits
;	COMDAT ??$forward@ABURINGMONSTER_EVENT_TIME@@@std@@YAABURINGMONSTER_EVENT_TIME@@ABU1@@Z
_TEXT	SEGMENT
__Arg$ = 8						; size = 4
??$forward@ABURINGMONSTER_EVENT_TIME@@@std@@YAABURINGMONSTER_EVENT_TIME@@ABU1@@Z PROC ; std::forward<RINGMONSTER_EVENT_TIME const &>, COMDAT

; 1233 : 	{	// forward an lvalue as either an lvalue or an rvalue

  00000	55		 push	 ebp
  00001	8b ec		 mov	 ebp, esp

; 1234 : 	return (static_cast<_Ty&&>(_Arg));

  00003	8b 45 08	 mov	 eax, DWORD PTR __Arg$[ebp]

; 1235 : 	}

  00006	5d		 pop	 ebp
  00007	c3		 ret	 0
??$forward@ABURINGMONSTER_EVENT_TIME@@@std@@YAABURINGMONSTER_EVENT_TIME@@ABU1@@Z ENDP ; std::forward<RINGMONSTER_EVENT_TIME const &>
_TEXT	ENDS
; Function compile flags: /Ogtp
; File c:\program files (x86)\microsoft visual studio 14.0\vc\include\xmemory0
;	COMDAT ??$construct@URINGMONSTER_EVENT_TIME@@AAU1@@?$allocator_traits@V?$allocator@URINGMONSTER_EVENT_TIME@@@std@@@std@@SAXAAV?$allocator@URINGMONSTER_EVENT_TIME@@@1@PAURINGMONSTER_EVENT_TIME@@AAU3@@Z
_TEXT	SEGMENT
__Al$ = 8						; size = 4
__Ptr$ = 12						; size = 4
_<_Args_0>$ = 16					; size = 4
??$construct@URINGMONSTER_EVENT_TIME@@AAU1@@?$allocator_traits@V?$allocator@URINGMONSTER_EVENT_TIME@@@std@@@std@@SAXAAV?$allocator@URINGMONSTER_EVENT_TIME@@@1@PAURINGMONSTER_EVENT_TIME@@AAU3@@Z PROC ; std::allocator_traits<std::allocator<RINGMONSTER_EVENT_TIME> >::construct<RINGMONSTER_EVENT_TIME,RINGMONSTER_EVENT_TIME &>, COMDAT

; 772  : 		{	// construct _Objty(_Types...) at _Ptr

  00000	55		 push	 ebp
  00001	8b ec		 mov	 ebp, esp

; 655  : 		::new ((void *)_Ptr) _Objty(_STD forward<_Types>(_Args)...);

  00003	8b 55 0c	 mov	 edx, DWORD PTR __Ptr$[ebp]
  00006	85 d2		 test	 edx, edx
  00008	74 0d		 je	 SHORT $LN8@construct
  0000a	8b 4d 10	 mov	 ecx, DWORD PTR _<_Args_0>$[ebp]
  0000d	8b 01		 mov	 eax, DWORD PTR [ecx]
  0000f	89 02		 mov	 DWORD PTR [edx], eax
  00011	8b 41 04	 mov	 eax, DWORD PTR [ecx+4]
  00014	89 42 04	 mov	 DWORD PTR [edx+4], eax
$LN8@construct:

; 773  : 		_Al.construct(_Ptr, _STD forward<_Types>(_Args)...);
; 774  : 		}

  00017	5d		 pop	 ebp
  00018	c3		 ret	 0
??$construct@URINGMONSTER_EVENT_TIME@@AAU1@@?$allocator_traits@V?$allocator@URINGMONSTER_EVENT_TIME@@@std@@@std@@SAXAAV?$allocator@URINGMONSTER_EVENT_TIME@@@1@PAURINGMONSTER_EVENT_TIME@@AAU3@@Z ENDP ; std::allocator_traits<std::allocator<RINGMONSTER_EVENT_TIME> >::construct<RINGMONSTER_EVENT_TIME,RINGMONSTER_EVENT_TIME &>
_TEXT	ENDS
; Function compile flags: /Ogtp
; File c:\program files (x86)\microsoft visual studio 14.0\vc\include\type_traits
;	COMDAT ??$forward@AAURINGMONSTER_EVENT_TIME@@@std@@YAAAURINGMONSTER_EVENT_TIME@@AAU1@@Z
_TEXT	SEGMENT
__Arg$ = 8						; size = 4
??$forward@AAURINGMONSTER_EVENT_TIME@@@std@@YAAAURINGMONSTER_EVENT_TIME@@AAU1@@Z PROC ; std::forward<RINGMONSTER_EVENT_TIME &>, COMDAT

; 1233 : 	{	// forward an lvalue as either an lvalue or an rvalue

  00000	55		 push	 ebp
  00001	8b ec		 mov	 ebp, esp

; 1234 : 	return (static_cast<_Ty&&>(_Arg));

  00003	8b 45 08	 mov	 eax, DWORD PTR __Arg$[ebp]

; 1235 : 	}

  00006	5d		 pop	 ebp
  00007	c3		 ret	 0
??$forward@AAURINGMONSTER_EVENT_TIME@@@std@@YAAAURINGMONSTER_EVENT_TIME@@AAU1@@Z ENDP ; std::forward<RINGMONSTER_EVENT_TIME &>
_TEXT	ENDS
; Function compile flags: /Ogtp
; File c:\program files (x86)\microsoft visual studio 14.0\vc\include\xstddef
;	COMDAT ??$_Addressof@$$CBURINGMONSTER_EVENT_TIME@@@std@@YAPBURINGMONSTER_EVENT_TIME@@ABU1@U?$integral_constant@_N$0A@@0@@Z
_TEXT	SEGMENT
__Val$ = 8						; size = 4
___formal$ = 12						; size = 1
??$_Addressof@$$CBURINGMONSTER_EVENT_TIME@@@std@@YAPBURINGMONSTER_EVENT_TIME@@ABU1@U?$integral_constant@_N$0A@@0@@Z PROC ; std::_Addressof<RINGMONSTER_EVENT_TIME const >, COMDAT

; 688  : 	{	// return address of object _Val

  00000	55		 push	 ebp
  00001	8b ec		 mov	 ebp, esp

; 689  : 	return (reinterpret_cast<_Ty *>(

  00003	8b 45 08	 mov	 eax, DWORD PTR __Val$[ebp]

; 690  : 		&const_cast<char&>(
; 691  : 		reinterpret_cast<const volatile char&>(_Val))));
; 692  : 	}

  00006	5d		 pop	 ebp
  00007	c3		 ret	 0
??$_Addressof@$$CBURINGMONSTER_EVENT_TIME@@@std@@YAPBURINGMONSTER_EVENT_TIME@@ABU1@U?$integral_constant@_N$0A@@0@@Z ENDP ; std::_Addressof<RINGMONSTER_EVENT_TIME const >
_TEXT	ENDS
; Function compile flags: /Ogtp
; File c:\program files (x86)\microsoft visual studio 14.0\vc\include\xutility
;	COMDAT ??$_Move@PAURINGMONSTER_EVENT_TIME@@PAU1@@std@@YAPAURINGMONSTER_EVENT_TIME@@PAU1@00U_Nonscalar_ptr_iterator_tag@0@@Z
_TEXT	SEGMENT
__First$ = 8						; size = 4
__Last$ = 12						; size = 4
__Dest$ = 16						; size = 4
___formal$ = 20						; size = 1
??$_Move@PAURINGMONSTER_EVENT_TIME@@PAU1@@std@@YAPAURINGMONSTER_EVENT_TIME@@PAU1@00U_Nonscalar_ptr_iterator_tag@0@@Z PROC ; std::_Move<RINGMONSTER_EVENT_TIME *,RINGMONSTER_EVENT_TIME *>, COMDAT

; 2516 : 	{	// move [_First, _Last) to [_Dest, ...), arbitrary iterators

  00000	55		 push	 ebp
  00001	8b ec		 mov	 ebp, esp

; 2517 : 	for (; _First != _Last; ++_Dest, (void)++_First)

  00003	8b 4d 08	 mov	 ecx, DWORD PTR __First$[ebp]
  00006	8b 45 10	 mov	 eax, DWORD PTR __Dest$[ebp]
  00009	56		 push	 esi
  0000a	8b 75 0c	 mov	 esi, DWORD PTR __Last$[ebp]
  0000d	3b ce		 cmp	 ecx, esi
  0000f	74 14		 je	 SHORT $LN3@Move
$LL4@Move:

; 2518 : 		*_Dest = _STD move(*_First);

  00011	8b 11		 mov	 edx, DWORD PTR [ecx]
  00013	89 10		 mov	 DWORD PTR [eax], edx
  00015	8b 51 04	 mov	 edx, DWORD PTR [ecx+4]
  00018	83 c1 08	 add	 ecx, 8
  0001b	89 50 04	 mov	 DWORD PTR [eax+4], edx
  0001e	83 c0 08	 add	 eax, 8
  00021	3b ce		 cmp	 ecx, esi
  00023	75 ec		 jne	 SHORT $LL4@Move
$LN3@Move:
  00025	5e		 pop	 esi

; 2519 : 	return (_Dest);
; 2520 : 	}

  00026	5d		 pop	 ebp
  00027	c3		 ret	 0
??$_Move@PAURINGMONSTER_EVENT_TIME@@PAU1@@std@@YAPAURINGMONSTER_EVENT_TIME@@PAU1@00U_Nonscalar_ptr_iterator_tag@0@@Z ENDP ; std::_Move<RINGMONSTER_EVENT_TIME *,RINGMONSTER_EVENT_TIME *>
_TEXT	ENDS
; Function compile flags: /Ogtp
; File c:\program files (x86)\microsoft visual studio 14.0\vc\include\xutility
;	COMDAT ??$_Ptr_cat@URINGMONSTER_EVENT_TIME@@U1@@std@@YA?AU_Nonscalar_ptr_iterator_tag@0@PAURINGMONSTER_EVENT_TIME@@0@Z
_TEXT	SEGMENT
__Cat$ = -1						; size = 1
___formal$ = 8						; size = 4
___formal$ = 12						; size = 4
??$_Ptr_cat@URINGMONSTER_EVENT_TIME@@U1@@std@@YA?AU_Nonscalar_ptr_iterator_tag@0@PAURINGMONSTER_EVENT_TIME@@0@Z PROC ; std::_Ptr_cat<RINGMONSTER_EVENT_TIME,RINGMONSTER_EVENT_TIME>, COMDAT

; 640  : 	{	// return pointer category from pointers

  00000	55		 push	 ebp
  00001	8b ec		 mov	 ebp, esp
  00003	51		 push	 ecx

; 641  : 	typename _Ptr_cat_helper<_Elem1, _Elem2>::type _Cat;
; 642  : 	return (_Cat);

  00004	8a 45 ff	 mov	 al, BYTE PTR __Cat$[ebp]

; 643  : 	}

  00007	8b e5		 mov	 esp, ebp
  00009	5d		 pop	 ebp
  0000a	c3		 ret	 0
??$_Ptr_cat@URINGMONSTER_EVENT_TIME@@U1@@std@@YA?AU_Nonscalar_ptr_iterator_tag@0@PAURINGMONSTER_EVENT_TIME@@0@Z ENDP ; std::_Ptr_cat<RINGMONSTER_EVENT_TIME,RINGMONSTER_EVENT_TIME>
_TEXT	ENDS
; Function compile flags: /Ogtp
; File c:\program files (x86)\microsoft visual studio 14.0\vc\include\vector
; File c:\program files (x86)\microsoft visual studio 14.0\vc\include\xmemory
; File c:\program files (x86)\microsoft visual studio 14.0\vc\include\vector
;	COMDAT ??$_Umove@PAURINGMONSTER_DATA@@@?$vector@URINGMONSTER_DATA@@V?$allocator@URINGMONSTER_DATA@@@std@@@std@@IAEPAURINGMONSTER_DATA@@PAU2@00@Z
_TEXT	SEGMENT
__First$ = 8						; size = 4
__Last$ = 12						; size = 4
__Cat$1 = 16						; size = 1
__Ptr$ = 16						; size = 4
??$_Umove@PAURINGMONSTER_DATA@@@?$vector@URINGMONSTER_DATA@@V?$allocator@URINGMONSTER_DATA@@@std@@@std@@IAEPAURINGMONSTER_DATA@@PAU2@00@Z PROC ; std::vector<RINGMONSTER_DATA,std::allocator<RINGMONSTER_DATA> >::_Umove<RINGMONSTER_DATA *>, COMDAT
; _this$ = ecx

; 1677 : 		{	// move initializing [_First, _Last), using allocator

  00000	55		 push	 ebp
  00001	8b ec		 mov	 ebp, esp
; File c:\program files (x86)\microsoft visual studio 14.0\vc\include\xmemory

; 481  : 	return (_Uninit_move(_First, _Last, _Dest, _Al,

  00003	ff 75 10	 push	 DWORD PTR __Cat$1[ebp]
  00006	6a 00		 push	 0
  00008	51		 push	 ecx
  00009	ff 75 10	 push	 DWORD PTR __Ptr$[ebp]
  0000c	ff 75 0c	 push	 DWORD PTR __Last$[ebp]
  0000f	ff 75 08	 push	 DWORD PTR __First$[ebp]
  00012	e8 00 00 00 00	 call	 ??$_Uninit_move@PAURINGMONSTER_DATA@@PAU1@V?$allocator@URINGMONSTER_DATA@@@std@@U1@@std@@YAPAURINGMONSTER_DATA@@PAU1@00AAU?$_Wrap_alloc@V?$allocator@URINGMONSTER_DATA@@@std@@@0@0U_Nonscalar_ptr_iterator_tag@0@@Z ; std::_Uninit_move<RINGMONSTER_DATA *,RINGMONSTER_DATA *,std::allocator<RINGMONSTER_DATA>,RINGMONSTER_DATA>
  00017	83 c4 18	 add	 esp, 24			; 00000018H
; File c:\program files (x86)\microsoft visual studio 14.0\vc\include\vector

; 1680 : 		}

  0001a	5d		 pop	 ebp
  0001b	c2 0c 00	 ret	 12			; 0000000cH
??$_Umove@PAURINGMONSTER_DATA@@@?$vector@URINGMONSTER_DATA@@V?$allocator@URINGMONSTER_DATA@@@std@@@std@@IAEPAURINGMONSTER_DATA@@PAU2@00@Z ENDP ; std::vector<RINGMONSTER_DATA,std::allocator<RINGMONSTER_DATA> >::_Umove<RINGMONSTER_DATA *>
_TEXT	ENDS
; Function compile flags: /Ogtp
; File c:\program files (x86)\microsoft visual studio 14.0\vc\include\vector
; File c:\program files (x86)\microsoft visual studio 14.0\vc\include\xmemory
; File c:\program files (x86)\microsoft visual studio 14.0\vc\include\vector
;	COMDAT ??$_Umove@PAURINGMONSTER_EVENT_TIME@@@?$vector@URINGMONSTER_EVENT_TIME@@V?$allocator@URINGMONSTER_EVENT_TIME@@@std@@@std@@IAEPAURINGMONSTER_EVENT_TIME@@PAU2@00@Z
_TEXT	SEGMENT
__First$ = 8						; size = 4
__Last$ = 12						; size = 4
__Cat$1 = 16						; size = 1
__Ptr$ = 16						; size = 4
??$_Umove@PAURINGMONSTER_EVENT_TIME@@@?$vector@URINGMONSTER_EVENT_TIME@@V?$allocator@URINGMONSTER_EVENT_TIME@@@std@@@std@@IAEPAURINGMONSTER_EVENT_TIME@@PAU2@00@Z PROC ; std::vector<RINGMONSTER_EVENT_TIME,std::allocator<RINGMONSTER_EVENT_TIME> >::_Umove<RINGMONSTER_EVENT_TIME *>, COMDAT
; _this$ = ecx

; 1677 : 		{	// move initializing [_First, _Last), using allocator

  00000	55		 push	 ebp
  00001	8b ec		 mov	 ebp, esp
; File c:\program files (x86)\microsoft visual studio 14.0\vc\include\xmemory

; 481  : 	return (_Uninit_move(_First, _Last, _Dest, _Al,

  00003	ff 75 10	 push	 DWORD PTR __Cat$1[ebp]
  00006	6a 00		 push	 0
  00008	51		 push	 ecx
  00009	ff 75 10	 push	 DWORD PTR __Ptr$[ebp]
  0000c	ff 75 0c	 push	 DWORD PTR __Last$[ebp]
  0000f	ff 75 08	 push	 DWORD PTR __First$[ebp]
  00012	e8 00 00 00 00	 call	 ??$_Uninit_move@PAURINGMONSTER_EVENT_TIME@@PAU1@V?$allocator@URINGMONSTER_EVENT_TIME@@@std@@U1@@std@@YAPAURINGMONSTER_EVENT_TIME@@PAU1@00AAU?$_Wrap_alloc@V?$allocator@URINGMONSTER_EVENT_TIME@@@std@@@0@0U_Nonscalar_ptr_iterator_tag@0@@Z ; std::_Uninit_move<RINGMONSTER_EVENT_TIME *,RINGMONSTER_EVENT_TIME *,std::allocator<RINGMONSTER_EVENT_TIME>,RINGMONSTER_EVENT_TIME>
  00017	83 c4 18	 add	 esp, 24			; 00000018H
; File c:\program files (x86)\microsoft visual studio 14.0\vc\include\vector

; 1680 : 		}

  0001a	5d		 pop	 ebp
  0001b	c2 0c 00	 ret	 12			; 0000000cH
??$_Umove@PAURINGMONSTER_EVENT_TIME@@@?$vector@URINGMONSTER_EVENT_TIME@@V?$allocator@URINGMONSTER_EVENT_TIME@@@std@@@std@@IAEPAURINGMONSTER_EVENT_TIME@@PAU2@00@Z ENDP ; std::vector<RINGMONSTER_EVENT_TIME,std::allocator<RINGMONSTER_EVENT_TIME> >::_Umove<RINGMONSTER_EVENT_TIME *>
_TEXT	ENDS
; Function compile flags: /Ogtp
; File c:\program files (x86)\microsoft visual studio 14.0\vc\include\xmemory0
;	COMDAT ??$_Destroy_range@U?$_Wrap_alloc@V?$allocator@URINGMONSTER_DATA@@@std@@@std@@@std@@YAXPAURINGMONSTER_DATA@@0AAU?$_Wrap_alloc@V?$allocator@URINGMONSTER_DATA@@@std@@@0@@Z
_TEXT	SEGMENT
__First$ = 8						; size = 4
__Last$ = 12						; size = 4
__Al$ = 16						; size = 4
??$_Destroy_range@U?$_Wrap_alloc@V?$allocator@URINGMONSTER_DATA@@@std@@@std@@@std@@YAXPAURINGMONSTER_DATA@@0AAU?$_Wrap_alloc@V?$allocator@URINGMONSTER_DATA@@@std@@@0@@Z PROC ; std::_Destroy_range<std::_Wrap_alloc<std::allocator<RINGMONSTER_DATA> > >, COMDAT

; 186  : 	_Destroy_range(_First, _Last, _Al, _Ptr_cat(_First, _Last));
; 187  : 	}

  00000	c3		 ret	 0
??$_Destroy_range@U?$_Wrap_alloc@V?$allocator@URINGMONSTER_DATA@@@std@@@std@@@std@@YAXPAURINGMONSTER_DATA@@0AAU?$_Wrap_alloc@V?$allocator@URINGMONSTER_DATA@@@std@@@0@@Z ENDP ; std::_Destroy_range<std::_Wrap_alloc<std::allocator<RINGMONSTER_DATA> > >
_TEXT	ENDS
; Function compile flags: /Ogtp
; File c:\program files (x86)\microsoft visual studio 14.0\vc\include\xutility
; File c:\program files (x86)\microsoft visual studio 14.0\vc\include\vector
; File c:\program files (x86)\microsoft visual studio 14.0\vc\include\xutility
; File c:\program files (x86)\microsoft visual studio 14.0\vc\include\vector
; File c:\program files (x86)\microsoft visual studio 14.0\vc\include\xutility
;	COMDAT ??$?0ABV?$allocator@URINGMONSTER_DATA@@@std@@$$V@?$_Compressed_pair@U?$_Wrap_alloc@V?$allocator@URINGMONSTER_DATA@@@std@@@std@@V?$_Vector_val@U?$_Simple_types@URINGMONSTER_DATA@@@std@@@2@$00@std@@QAE@U_One_then_variadic_args_t@1@ABV?$allocator@URINGMONSTER_DATA@@@1@@Z
_TEXT	SEGMENT
___formal$ = 8						; size = 1
__Val1$ = 12						; size = 4
??$?0ABV?$allocator@URINGMONSTER_DATA@@@std@@$$V@?$_Compressed_pair@U?$_Wrap_alloc@V?$allocator@URINGMONSTER_DATA@@@std@@@std@@V?$_Vector_val@U?$_Simple_types@URINGMONSTER_DATA@@@std@@@2@$00@std@@QAE@U_One_then_variadic_args_t@1@ABV?$allocator@URINGMONSTER_DATA@@@1@@Z PROC ; std::_Compressed_pair<std::_Wrap_alloc<std::allocator<RINGMONSTER_DATA> >,std::_Vector_val<std::_Simple_types<RINGMONSTER_DATA> >,1>::_Compressed_pair<std::_Wrap_alloc<std::allocator<RINGMONSTER_DATA> >,std::_Vector_val<std::_Simple_types<RINGMONSTER_DATA> >,1><std::allocator<RINGMONSTER_DATA> const &>, COMDAT
; _this$ = ecx
; File c:\program files (x86)\microsoft visual studio 14.0\vc\include\vector

; 480  : 		_Myfirst = pointer();

  00000	c7 01 00 00 00
	00		 mov	 DWORD PTR [ecx], 0
; File c:\program files (x86)\microsoft visual studio 14.0\vc\include\xutility

; 289  : 		}

  00006	8b c1		 mov	 eax, ecx
; File c:\program files (x86)\microsoft visual studio 14.0\vc\include\vector

; 481  : 		_Mylast = pointer();

  00008	c7 41 04 00 00
	00 00		 mov	 DWORD PTR [ecx+4], 0

; 482  : 		_Myend = pointer();

  0000f	c7 41 08 00 00
	00 00		 mov	 DWORD PTR [ecx+8], 0
; File c:\program files (x86)\microsoft visual studio 14.0\vc\include\xutility

; 289  : 		}

  00016	c2 08 00	 ret	 8
??$?0ABV?$allocator@URINGMONSTER_DATA@@@std@@$$V@?$_Compressed_pair@U?$_Wrap_alloc@V?$allocator@URINGMONSTER_DATA@@@std@@@std@@V?$_Vector_val@U?$_Simple_types@URINGMONSTER_DATA@@@std@@@2@$00@std@@QAE@U_One_then_variadic_args_t@1@ABV?$allocator@URINGMONSTER_DATA@@@1@@Z ENDP ; std::_Compressed_pair<std::_Wrap_alloc<std::allocator<RINGMONSTER_DATA> >,std::_Vector_val<std::_Simple_types<RINGMONSTER_DATA> >,1>::_Compressed_pair<std::_Wrap_alloc<std::allocator<RINGMONSTER_DATA> >,std::_Vector_val<std::_Simple_types<RINGMONSTER_DATA> >,1><std::allocator<RINGMONSTER_DATA> const &>
_TEXT	ENDS
; Function compile flags: /Ogtp
; File c:\program files (x86)\microsoft visual studio 14.0\vc\include\xmemory0
;	COMDAT ??$_Destroy_range@U?$_Wrap_alloc@V?$allocator@URINGMONSTER_EVENT_TIME@@@std@@@std@@@std@@YAXPAURINGMONSTER_EVENT_TIME@@0AAU?$_Wrap_alloc@V?$allocator@URINGMONSTER_EVENT_TIME@@@std@@@0@@Z
_TEXT	SEGMENT
__First$ = 8						; size = 4
__Last$ = 12						; size = 4
__Al$ = 16						; size = 4
??$_Destroy_range@U?$_Wrap_alloc@V?$allocator@URINGMONSTER_EVENT_TIME@@@std@@@std@@@std@@YAXPAURINGMONSTER_EVENT_TIME@@0AAU?$_Wrap_alloc@V?$allocator@URINGMONSTER_EVENT_TIME@@@std@@@0@@Z PROC ; std::_Destroy_range<std::_Wrap_alloc<std::allocator<RINGMONSTER_EVENT_TIME> > >, COMDAT

; 186  : 	_Destroy_range(_First, _Last, _Al, _Ptr_cat(_First, _Last));
; 187  : 	}

  00000	c3		 ret	 0
??$_Destroy_range@U?$_Wrap_alloc@V?$allocator@URINGMONSTER_EVENT_TIME@@@std@@@std@@@std@@YAXPAURINGMONSTER_EVENT_TIME@@0AAU?$_Wrap_alloc@V?$allocator@URINGMONSTER_EVENT_TIME@@@std@@@0@@Z ENDP ; std::_Destroy_range<std::_Wrap_alloc<std::allocator<RINGMONSTER_EVENT_TIME> > >
_TEXT	ENDS
; Function compile flags: /Ogtp
; File c:\program files (x86)\microsoft visual studio 14.0\vc\include\xutility
; File c:\program files (x86)\microsoft visual studio 14.0\vc\include\vector
; File c:\program files (x86)\microsoft visual studio 14.0\vc\include\xutility
; File c:\program files (x86)\microsoft visual studio 14.0\vc\include\vector
; File c:\program files (x86)\microsoft visual studio 14.0\vc\include\xutility
;	COMDAT ??$?0ABV?$allocator@URINGMONSTER_EVENT_TIME@@@std@@$$V@?$_Compressed_pair@U?$_Wrap_alloc@V?$allocator@URINGMONSTER_EVENT_TIME@@@std@@@std@@V?$_Vector_val@U?$_Simple_types@URINGMONSTER_EVENT_TIME@@@std@@@2@$00@std@@QAE@U_One_then_variadic_args_t@1@ABV?$allocator@URINGMONSTER_EVENT_TIME@@@1@@Z
_TEXT	SEGMENT
___formal$ = 8						; size = 1
__Val1$ = 12						; size = 4
??$?0ABV?$allocator@URINGMONSTER_EVENT_TIME@@@std@@$$V@?$_Compressed_pair@U?$_Wrap_alloc@V?$allocator@URINGMONSTER_EVENT_TIME@@@std@@@std@@V?$_Vector_val@U?$_Simple_types@URINGMONSTER_EVENT_TIME@@@std@@@2@$00@std@@QAE@U_One_then_variadic_args_t@1@ABV?$allocator@URINGMONSTER_EVENT_TIME@@@1@@Z PROC ; std::_Compressed_pair<std::_Wrap_alloc<std::allocator<RINGMONSTER_EVENT_TIME> >,std::_Vector_val<std::_Simple_types<RINGMONSTER_EVENT_TIME> >,1>::_Compressed_pair<std::_Wrap_alloc<std::allocator<RINGMONSTER_EVENT_TIME> >,std::_Vector_val<std::_Simple_types<RINGMONSTER_EVENT_TIME> >,1><std::allocator<RINGMONSTER_EVENT_TIME> const &>, COMDAT
; _this$ = ecx
; File c:\program files (x86)\microsoft visual studio 14.0\vc\include\vector

; 480  : 		_Myfirst = pointer();

  00000	c7 01 00 00 00
	00		 mov	 DWORD PTR [ecx], 0
; File c:\program files (x86)\microsoft visual studio 14.0\vc\include\xutility

; 289  : 		}

  00006	8b c1		 mov	 eax, ecx
; File c:\program files (x86)\microsoft visual studio 14.0\vc\include\vector

; 481  : 		_Mylast = pointer();

  00008	c7 41 04 00 00
	00 00		 mov	 DWORD PTR [ecx+4], 0

; 482  : 		_Myend = pointer();

  0000f	c7 41 08 00 00
	00 00		 mov	 DWORD PTR [ecx+8], 0
; File c:\program files (x86)\microsoft visual studio 14.0\vc\include\xutility

; 289  : 		}

  00016	c2 08 00	 ret	 8
??$?0ABV?$allocator@URINGMONSTER_EVENT_TIME@@@std@@$$V@?$_Compressed_pair@U?$_Wrap_alloc@V?$allocator@URINGMONSTER_EVENT_TIME@@@std@@@std@@V?$_Vector_val@U?$_Simple_types@URINGMONSTER_EVENT_TIME@@@std@@@2@$00@std@@QAE@U_One_then_variadic_args_t@1@ABV?$allocator@URINGMONSTER_EVENT_TIME@@@1@@Z ENDP ; std::_Compressed_pair<std::_Wrap_alloc<std::allocator<RINGMONSTER_EVENT_TIME> >,std::_Vector_val<std::_Simple_types<RINGMONSTER_EVENT_TIME> >,1>::_Compressed_pair<std::_Wrap_alloc<std::allocator<RINGMONSTER_EVENT_TIME> >,std::_Vector_val<std::_Simple_types<RINGMONSTER_EVENT_TIME> >,1><std::allocator<RINGMONSTER_EVENT_TIME> const &>
_TEXT	ENDS
; Function compile flags: /Ogtp
; File c:\program files (x86)\microsoft visual studio 14.0\vc\include\xmemory0
;	COMDAT ??$construct@URINGMONSTER_DATA@@ABU1@@?$_Wrap_alloc@V?$allocator@URINGMONSTER_DATA@@@std@@@std@@QAEXPAURINGMONSTER_DATA@@ABU2@@Z
_TEXT	SEGMENT
__Ptr$ = 8						; size = 4
_<_Args_0>$ = 12					; size = 4
??$construct@URINGMONSTER_DATA@@ABU1@@?$_Wrap_alloc@V?$allocator@URINGMONSTER_DATA@@@std@@@std@@QAEXPAURINGMONSTER_DATA@@ABU2@@Z PROC ; std::_Wrap_alloc<std::allocator<RINGMONSTER_DATA> >::construct<RINGMONSTER_DATA,RINGMONSTER_DATA const &>, COMDAT
; _this$ = ecx

; 916  : 		{	// construct _Ty(_Types...) at _Ptr

  00000	55		 push	 ebp
  00001	8b ec		 mov	 ebp, esp

; 655  : 		::new ((void *)_Ptr) _Objty(_STD forward<_Types>(_Args)...);

  00003	8b 4d 08	 mov	 ecx, DWORD PTR __Ptr$[ebp]
  00006	85 c9		 test	 ecx, ecx
  00008	74 11		 je	 SHORT $LN13@construct
  0000a	8b 45 0c	 mov	 eax, DWORD PTR _<_Args_0>$[ebp]
  0000d	f3 0f 7e 00	 movq	 xmm0, QWORD PTR [eax]
  00011	66 0f d6 01	 movq	 QWORD PTR [ecx], xmm0
  00015	8b 40 08	 mov	 eax, DWORD PTR [eax+8]
  00018	89 41 08	 mov	 DWORD PTR [ecx+8], eax
$LN13@construct:

; 917  : 		_Mytraits::construct(*this, _Ptr,
; 918  : 			_STD forward<_Types>(_Args)...);
; 919  : 		}

  0001b	5d		 pop	 ebp
  0001c	c2 08 00	 ret	 8
??$construct@URINGMONSTER_DATA@@ABU1@@?$_Wrap_alloc@V?$allocator@URINGMONSTER_DATA@@@std@@@std@@QAEXPAURINGMONSTER_DATA@@ABU2@@Z ENDP ; std::_Wrap_alloc<std::allocator<RINGMONSTER_DATA> >::construct<RINGMONSTER_DATA,RINGMONSTER_DATA const &>
_TEXT	ENDS
; Function compile flags: /Ogtp
; File c:\program files (x86)\microsoft visual studio 14.0\vc\include\xmemory0
;	COMDAT ??$construct@URINGMONSTER_DATA@@AAU1@@?$_Wrap_alloc@V?$allocator@URINGMONSTER_DATA@@@std@@@std@@QAEXPAURINGMONSTER_DATA@@AAU2@@Z
_TEXT	SEGMENT
__Ptr$ = 8						; size = 4
_<_Args_0>$ = 12					; size = 4
??$construct@URINGMONSTER_DATA@@AAU1@@?$_Wrap_alloc@V?$allocator@URINGMONSTER_DATA@@@std@@@std@@QAEXPAURINGMONSTER_DATA@@AAU2@@Z PROC ; std::_Wrap_alloc<std::allocator<RINGMONSTER_DATA> >::construct<RINGMONSTER_DATA,RINGMONSTER_DATA &>, COMDAT
; _this$ = ecx

; 916  : 		{	// construct _Ty(_Types...) at _Ptr

  00000	55		 push	 ebp
  00001	8b ec		 mov	 ebp, esp

; 655  : 		::new ((void *)_Ptr) _Objty(_STD forward<_Types>(_Args)...);

  00003	8b 4d 08	 mov	 ecx, DWORD PTR __Ptr$[ebp]
  00006	85 c9		 test	 ecx, ecx
  00008	74 11		 je	 SHORT $LN13@construct
  0000a	8b 45 0c	 mov	 eax, DWORD PTR _<_Args_0>$[ebp]
  0000d	f3 0f 7e 00	 movq	 xmm0, QWORD PTR [eax]
  00011	66 0f d6 01	 movq	 QWORD PTR [ecx], xmm0
  00015	8b 40 08	 mov	 eax, DWORD PTR [eax+8]
  00018	89 41 08	 mov	 DWORD PTR [ecx+8], eax
$LN13@construct:

; 917  : 		_Mytraits::construct(*this, _Ptr,
; 918  : 			_STD forward<_Types>(_Args)...);
; 919  : 		}

  0001b	5d		 pop	 ebp
  0001c	c2 08 00	 ret	 8
??$construct@URINGMONSTER_DATA@@AAU1@@?$_Wrap_alloc@V?$allocator@URINGMONSTER_DATA@@@std@@@std@@QAEXPAURINGMONSTER_DATA@@AAU2@@Z ENDP ; std::_Wrap_alloc<std::allocator<RINGMONSTER_DATA> >::construct<RINGMONSTER_DATA,RINGMONSTER_DATA &>
_TEXT	ENDS
; Function compile flags: /Ogtp
; File c:\program files (x86)\microsoft visual studio 14.0\vc\include\xstddef
;	COMDAT ??$addressof@$$CBURINGMONSTER_DATA@@@std@@YAPBURINGMONSTER_DATA@@ABU1@@Z
_TEXT	SEGMENT
__Val$ = 8						; size = 4
??$addressof@$$CBURINGMONSTER_DATA@@@std@@YAPBURINGMONSTER_DATA@@ABU1@@Z PROC ; std::addressof<RINGMONSTER_DATA const >, COMDAT

; 696  : 	{	// return address of _Val

  00000	55		 push	 ebp
  00001	8b ec		 mov	 ebp, esp

; 697  : 	return (_Addressof(_Val, is_function<_Ty>()));

  00003	8b 45 08	 mov	 eax, DWORD PTR __Val$[ebp]

; 698  : 	}

  00006	5d		 pop	 ebp
  00007	c3		 ret	 0
??$addressof@$$CBURINGMONSTER_DATA@@@std@@YAPBURINGMONSTER_DATA@@ABU1@@Z ENDP ; std::addressof<RINGMONSTER_DATA const >
_TEXT	ENDS
; Function compile flags: /Ogtp
; File c:\program files (x86)\microsoft visual studio 14.0\vc\include\xutility
;	COMDAT ??$_Move@PAURINGMONSTER_DATA@@PAU1@@std@@YAPAURINGMONSTER_DATA@@PAU1@00@Z
_TEXT	SEGMENT
__First$ = 8						; size = 4
__Last$ = 12						; size = 4
__Dest$ = 16						; size = 4
??$_Move@PAURINGMONSTER_DATA@@PAU1@@std@@YAPAURINGMONSTER_DATA@@PAU1@00@Z PROC ; std::_Move<RINGMONSTER_DATA *,RINGMONSTER_DATA *>, COMDAT

; 2537 : 	{	// move [_First, _Last) to [_Dest, ...), unchecked

  00000	55		 push	 ebp
  00001	8b ec		 mov	 ebp, esp

; 2538 : 	return (_Move(_First, _Last,

  00003	8b 4d 08	 mov	 ecx, DWORD PTR __First$[ebp]
  00006	8b 45 10	 mov	 eax, DWORD PTR __Dest$[ebp]
  00009	56		 push	 esi

; 2517 : 	for (; _First != _Last; ++_Dest, (void)++_First)

  0000a	8b 75 0c	 mov	 esi, DWORD PTR __Last$[ebp]
  0000d	3b ce		 cmp	 ecx, esi
  0000f	74 18		 je	 SHORT $LN7@Move
$LL8@Move:

; 2518 : 		*_Dest = _STD move(*_First);

  00011	f3 0f 7e 01	 movq	 xmm0, QWORD PTR [ecx]
  00015	66 0f d6 00	 movq	 QWORD PTR [eax], xmm0
  00019	8b 51 08	 mov	 edx, DWORD PTR [ecx+8]
  0001c	83 c1 0c	 add	 ecx, 12			; 0000000cH
  0001f	89 50 08	 mov	 DWORD PTR [eax+8], edx
  00022	83 c0 0c	 add	 eax, 12			; 0000000cH
  00025	3b ce		 cmp	 ecx, esi
  00027	75 e8		 jne	 SHORT $LL8@Move
$LN7@Move:
  00029	5e		 pop	 esi

; 2539 : 		_Dest, _Ptr_cat(_First, _Dest)));
; 2540 : 	}

  0002a	5d		 pop	 ebp
  0002b	c3		 ret	 0
??$_Move@PAURINGMONSTER_DATA@@PAU1@@std@@YAPAURINGMONSTER_DATA@@PAU1@00@Z ENDP ; std::_Move<RINGMONSTER_DATA *,RINGMONSTER_DATA *>
_TEXT	ENDS
; Function compile flags: /Ogtp
; File c:\program files (x86)\microsoft visual studio 14.0\vc\include\xmemory0
;	COMDAT ??$construct@URINGMONSTER_EVENT_TIME@@ABU1@@?$_Wrap_alloc@V?$allocator@URINGMONSTER_EVENT_TIME@@@std@@@std@@QAEXPAURINGMONSTER_EVENT_TIME@@ABU2@@Z
_TEXT	SEGMENT
__Ptr$ = 8						; size = 4
_<_Args_0>$ = 12					; size = 4
??$construct@URINGMONSTER_EVENT_TIME@@ABU1@@?$_Wrap_alloc@V?$allocator@URINGMONSTER_EVENT_TIME@@@std@@@std@@QAEXPAURINGMONSTER_EVENT_TIME@@ABU2@@Z PROC ; std::_Wrap_alloc<std::allocator<RINGMONSTER_EVENT_TIME> >::construct<RINGMONSTER_EVENT_TIME,RINGMONSTER_EVENT_TIME const &>, COMDAT
; _this$ = ecx

; 916  : 		{	// construct _Ty(_Types...) at _Ptr

  00000	55		 push	 ebp
  00001	8b ec		 mov	 ebp, esp

; 655  : 		::new ((void *)_Ptr) _Objty(_STD forward<_Types>(_Args)...);

  00003	8b 55 08	 mov	 edx, DWORD PTR __Ptr$[ebp]
  00006	85 d2		 test	 edx, edx
  00008	74 0d		 je	 SHORT $LN13@construct
  0000a	8b 4d 0c	 mov	 ecx, DWORD PTR _<_Args_0>$[ebp]
  0000d	8b 01		 mov	 eax, DWORD PTR [ecx]
  0000f	89 02		 mov	 DWORD PTR [edx], eax
  00011	8b 41 04	 mov	 eax, DWORD PTR [ecx+4]
  00014	89 42 04	 mov	 DWORD PTR [edx+4], eax
$LN13@construct:

; 917  : 		_Mytraits::construct(*this, _Ptr,
; 918  : 			_STD forward<_Types>(_Args)...);
; 919  : 		}

  00017	5d		 pop	 ebp
  00018	c2 08 00	 ret	 8
??$construct@URINGMONSTER_EVENT_TIME@@ABU1@@?$_Wrap_alloc@V?$allocator@URINGMONSTER_EVENT_TIME@@@std@@@std@@QAEXPAURINGMONSTER_EVENT_TIME@@ABU2@@Z ENDP ; std::_Wrap_alloc<std::allocator<RINGMONSTER_EVENT_TIME> >::construct<RINGMONSTER_EVENT_TIME,RINGMONSTER_EVENT_TIME const &>
_TEXT	ENDS
; Function compile flags: /Ogtp
; File c:\program files (x86)\microsoft visual studio 14.0\vc\include\xmemory0
;	COMDAT ??$construct@URINGMONSTER_EVENT_TIME@@AAU1@@?$_Wrap_alloc@V?$allocator@URINGMONSTER_EVENT_TIME@@@std@@@std@@QAEXPAURINGMONSTER_EVENT_TIME@@AAU2@@Z
_TEXT	SEGMENT
__Ptr$ = 8						; size = 4
_<_Args_0>$ = 12					; size = 4
??$construct@URINGMONSTER_EVENT_TIME@@AAU1@@?$_Wrap_alloc@V?$allocator@URINGMONSTER_EVENT_TIME@@@std@@@std@@QAEXPAURINGMONSTER_EVENT_TIME@@AAU2@@Z PROC ; std::_Wrap_alloc<std::allocator<RINGMONSTER_EVENT_TIME> >::construct<RINGMONSTER_EVENT_TIME,RINGMONSTER_EVENT_TIME &>, COMDAT
; _this$ = ecx

; 916  : 		{	// construct _Ty(_Types...) at _Ptr

  00000	55		 push	 ebp
  00001	8b ec		 mov	 ebp, esp

; 655  : 		::new ((void *)_Ptr) _Objty(_STD forward<_Types>(_Args)...);

  00003	8b 55 08	 mov	 edx, DWORD PTR __Ptr$[ebp]
  00006	85 d2		 test	 edx, edx
  00008	74 0d		 je	 SHORT $LN13@construct
  0000a	8b 4d 0c	 mov	 ecx, DWORD PTR _<_Args_0>$[ebp]
  0000d	8b 01		 mov	 eax, DWORD PTR [ecx]
  0000f	89 02		 mov	 DWORD PTR [edx], eax
  00011	8b 41 04	 mov	 eax, DWORD PTR [ecx+4]
  00014	89 42 04	 mov	 DWORD PTR [edx+4], eax
$LN13@construct:

; 917  : 		_Mytraits::construct(*this, _Ptr,
; 918  : 			_STD forward<_Types>(_Args)...);
; 919  : 		}

  00017	5d		 pop	 ebp
  00018	c2 08 00	 ret	 8
??$construct@URINGMONSTER_EVENT_TIME@@AAU1@@?$_Wrap_alloc@V?$allocator@URINGMONSTER_EVENT_TIME@@@std@@@std@@QAEXPAURINGMONSTER_EVENT_TIME@@AAU2@@Z ENDP ; std::_Wrap_alloc<std::allocator<RINGMONSTER_EVENT_TIME> >::construct<RINGMONSTER_EVENT_TIME,RINGMONSTER_EVENT_TIME &>
_TEXT	ENDS
; Function compile flags: /Ogtp
; File c:\program files (x86)\microsoft visual studio 14.0\vc\include\xstddef
;	COMDAT ??$addressof@$$CBURINGMONSTER_EVENT_TIME@@@std@@YAPBURINGMONSTER_EVENT_TIME@@ABU1@@Z
_TEXT	SEGMENT
__Val$ = 8						; size = 4
??$addressof@$$CBURINGMONSTER_EVENT_TIME@@@std@@YAPBURINGMONSTER_EVENT_TIME@@ABU1@@Z PROC ; std::addressof<RINGMONSTER_EVENT_TIME const >, COMDAT

; 696  : 	{	// return address of _Val

  00000	55		 push	 ebp
  00001	8b ec		 mov	 ebp, esp

; 697  : 	return (_Addressof(_Val, is_function<_Ty>()));

  00003	8b 45 08	 mov	 eax, DWORD PTR __Val$[ebp]

; 698  : 	}

  00006	5d		 pop	 ebp
  00007	c3		 ret	 0
??$addressof@$$CBURINGMONSTER_EVENT_TIME@@@std@@YAPBURINGMONSTER_EVENT_TIME@@ABU1@@Z ENDP ; std::addressof<RINGMONSTER_EVENT_TIME const >
_TEXT	ENDS
; Function compile flags: /Ogtp
; File c:\program files (x86)\microsoft visual studio 14.0\vc\include\xutility
;	COMDAT ??$_Move@PAURINGMONSTER_EVENT_TIME@@PAU1@@std@@YAPAURINGMONSTER_EVENT_TIME@@PAU1@00@Z
_TEXT	SEGMENT
__First$ = 8						; size = 4
__Last$ = 12						; size = 4
__Dest$ = 16						; size = 4
??$_Move@PAURINGMONSTER_EVENT_TIME@@PAU1@@std@@YAPAURINGMONSTER_EVENT_TIME@@PAU1@00@Z PROC ; std::_Move<RINGMONSTER_EVENT_TIME *,RINGMONSTER_EVENT_TIME *>, COMDAT

; 2537 : 	{	// move [_First, _Last) to [_Dest, ...), unchecked

  00000	55		 push	 ebp
  00001	8b ec		 mov	 ebp, esp

; 2538 : 	return (_Move(_First, _Last,

  00003	8b 4d 08	 mov	 ecx, DWORD PTR __First$[ebp]
  00006	8b 45 10	 mov	 eax, DWORD PTR __Dest$[ebp]
  00009	56		 push	 esi

; 2517 : 	for (; _First != _Last; ++_Dest, (void)++_First)

  0000a	8b 75 0c	 mov	 esi, DWORD PTR __Last$[ebp]
  0000d	3b ce		 cmp	 ecx, esi
  0000f	74 14		 je	 SHORT $LN7@Move
$LL8@Move:

; 2518 : 		*_Dest = _STD move(*_First);

  00011	8b 11		 mov	 edx, DWORD PTR [ecx]
  00013	89 10		 mov	 DWORD PTR [eax], edx
  00015	8b 51 04	 mov	 edx, DWORD PTR [ecx+4]
  00018	83 c1 08	 add	 ecx, 8
  0001b	89 50 04	 mov	 DWORD PTR [eax+4], edx
  0001e	83 c0 08	 add	 eax, 8
  00021	3b ce		 cmp	 ecx, esi
  00023	75 ec		 jne	 SHORT $LL8@Move
$LN7@Move:
  00025	5e		 pop	 esi

; 2539 : 		_Dest, _Ptr_cat(_First, _Dest)));
; 2540 : 	}

  00026	5d		 pop	 ebp
  00027	c3		 ret	 0
??$_Move@PAURINGMONSTER_EVENT_TIME@@PAU1@@std@@YAPAURINGMONSTER_EVENT_TIME@@PAU1@00@Z ENDP ; std::_Move<RINGMONSTER_EVENT_TIME *,RINGMONSTER_EVENT_TIME *>
_TEXT	ENDS
; Function compile flags: /Ogtp
; File c:\program files (x86)\microsoft visual studio 14.0\vc\include\vector
;	COMDAT ??E?$_Vector_iterator@V?$_Vector_val@U?$_Simple_types@URINGMONSTER_EVENT_TIME@@@std@@@std@@@std@@QAE?AV01@H@Z
_TEXT	SEGMENT
___$ReturnUdt$ = 8					; size = 4
___formal$ = 12						; size = 4
??E?$_Vector_iterator@V?$_Vector_val@U?$_Simple_types@URINGMONSTER_EVENT_TIME@@@std@@@std@@@std@@QAE?AV01@H@Z PROC ; std::_Vector_iterator<std::_Vector_val<std::_Simple_types<RINGMONSTER_EVENT_TIME> > >::operator++, COMDAT
; _this$ = ecx

; 340  : 		{	// postincrement

  00000	55		 push	 ebp
  00001	8b ec		 mov	 ebp, esp

; 341  : 		_Myiter _Tmp = *this;

  00003	8b 45 08	 mov	 eax, DWORD PTR ___$ReturnUdt$[ebp]
  00006	8b 11		 mov	 edx, DWORD PTR [ecx]
  00008	89 10		 mov	 DWORD PTR [eax], edx

; 112  : 		++this->_Ptr;

  0000a	83 c2 08	 add	 edx, 8
  0000d	89 11		 mov	 DWORD PTR [ecx], edx

; 342  : 		++*this;
; 343  : 		return (_Tmp);
; 344  : 		}

  0000f	5d		 pop	 ebp
  00010	c2 08 00	 ret	 8
??E?$_Vector_iterator@V?$_Vector_val@U?$_Simple_types@URINGMONSTER_EVENT_TIME@@@std@@@std@@@std@@QAE?AV01@H@Z ENDP ; std::_Vector_iterator<std::_Vector_val<std::_Simple_types<RINGMONSTER_EVENT_TIME> > >::operator++
_TEXT	ENDS
; Function compile flags: /Ogtp
; File c:\program files (x86)\microsoft visual studio 14.0\vc\include\vector
;	COMDAT ??E?$_Vector_iterator@V?$_Vector_val@U?$_Simple_types@URINGMONSTER_EVENT_TIME@@@std@@@std@@@std@@QAEAAV01@XZ
_TEXT	SEGMENT
??E?$_Vector_iterator@V?$_Vector_val@U?$_Simple_types@URINGMONSTER_EVENT_TIME@@@std@@@std@@@std@@QAEAAV01@XZ PROC ; std::_Vector_iterator<std::_Vector_val<std::_Simple_types<RINGMONSTER_EVENT_TIME> > >::operator++, COMDAT
; _this$ = ecx

; 112  : 		++this->_Ptr;

  00000	83 01 08	 add	 DWORD PTR [ecx], 8

; 335  : 		++*(_Mybase *)this;
; 336  : 		return (*this);

  00003	8b c1		 mov	 eax, ecx

; 337  : 		}

  00005	c3		 ret	 0
??E?$_Vector_iterator@V?$_Vector_val@U?$_Simple_types@URINGMONSTER_EVENT_TIME@@@std@@@std@@@std@@QAEAAV01@XZ ENDP ; std::_Vector_iterator<std::_Vector_val<std::_Simple_types<RINGMONSTER_EVENT_TIME> > >::operator++
_TEXT	ENDS
; Function compile flags: /Ogtp
; File c:\program files (x86)\microsoft visual studio 14.0\vc\include\vector
;	COMDAT ??D?$_Vector_iterator@V?$_Vector_val@U?$_Simple_types@URINGMONSTER_EVENT_TIME@@@std@@@std@@@std@@QBEAAURINGMONSTER_EVENT_TIME@@XZ
_TEXT	SEGMENT
??D?$_Vector_iterator@V?$_Vector_val@U?$_Simple_types@URINGMONSTER_EVENT_TIME@@@std@@@std@@@std@@QBEAAURINGMONSTER_EVENT_TIME@@XZ PROC ; std::_Vector_iterator<std::_Vector_val<std::_Simple_types<RINGMONSTER_EVENT_TIME> > >::operator*, COMDAT
; _this$ = ecx

; 325  : 		return ((reference)**(_Mybase *)this);

  00000	8b 01		 mov	 eax, DWORD PTR [ecx]

; 326  : 		}

  00002	c3		 ret	 0
??D?$_Vector_iterator@V?$_Vector_val@U?$_Simple_types@URINGMONSTER_EVENT_TIME@@@std@@@std@@@std@@QBEAAURINGMONSTER_EVENT_TIME@@XZ ENDP ; std::_Vector_iterator<std::_Vector_val<std::_Simple_types<RINGMONSTER_EVENT_TIME> > >::operator*
_TEXT	ENDS
; Function compile flags: /Ogtp
; File c:\program files (x86)\microsoft visual studio 14.0\vc\include\vector
;	COMDAT ??0?$_Vector_iterator@V?$_Vector_val@U?$_Simple_types@URINGMONSTER_EVENT_TIME@@@std@@@std@@@std@@QAE@PAURINGMONSTER_EVENT_TIME@@PBU_Container_base0@1@@Z
_TEXT	SEGMENT
__Parg$ = 8						; size = 4
__Pvector$ = 12						; size = 4
??0?$_Vector_iterator@V?$_Vector_val@U?$_Simple_types@URINGMONSTER_EVENT_TIME@@@std@@@std@@@std@@QAE@PAURINGMONSTER_EVENT_TIME@@PBU_Container_base0@1@@Z PROC ; std::_Vector_iterator<std::_Vector_val<std::_Simple_types<RINGMONSTER_EVENT_TIME> > >::_Vector_iterator<std::_Vector_val<std::_Simple_types<RINGMONSTER_EVENT_TIME> > >, COMDAT
; _this$ = ecx

; 307  : 		{	// construct with pointer _Parg

  00000	55		 push	 ebp
  00001	8b ec		 mov	 ebp, esp

; 46   : 		: _Ptr(_Parg)

  00003	8b 45 08	 mov	 eax, DWORD PTR __Parg$[ebp]
  00006	89 01		 mov	 DWORD PTR [ecx], eax

; 308  : 		}

  00008	8b c1		 mov	 eax, ecx
  0000a	5d		 pop	 ebp
  0000b	c2 08 00	 ret	 8
??0?$_Vector_iterator@V?$_Vector_val@U?$_Simple_types@URINGMONSTER_EVENT_TIME@@@std@@@std@@@std@@QAE@PAURINGMONSTER_EVENT_TIME@@PBU_Container_base0@1@@Z ENDP ; std::_Vector_iterator<std::_Vector_val<std::_Simple_types<RINGMONSTER_EVENT_TIME> > >::_Vector_iterator<std::_Vector_val<std::_Simple_types<RINGMONSTER_EVENT_TIME> > >
_TEXT	ENDS
; Function compile flags: /Ogtp
; File c:\program files (x86)\microsoft visual studio 14.0\vc\include\vector
;	COMDAT ?_Compat@?$_Vector_const_iterator@V?$_Vector_val@U?$_Simple_types@URINGMONSTER_EVENT_TIME@@@std@@@std@@@std@@QBEXABV12@@Z
_TEXT	SEGMENT
___formal$ = 8						; size = 4
?_Compat@?$_Vector_const_iterator@V?$_Vector_val@U?$_Simple_types@URINGMONSTER_EVENT_TIME@@@std@@@std@@@std@@QBEXABV12@@Z PROC ; std::_Vector_const_iterator<std::_Vector_val<std::_Simple_types<RINGMONSTER_EVENT_TIME> > >::_Compat, COMDAT
; _this$ = ecx

; 256  : 		}

  00000	c2 04 00	 ret	 4
?_Compat@?$_Vector_const_iterator@V?$_Vector_val@U?$_Simple_types@URINGMONSTER_EVENT_TIME@@@std@@@std@@@std@@QBEXABV12@@Z ENDP ; std::_Vector_const_iterator<std::_Vector_val<std::_Simple_types<RINGMONSTER_EVENT_TIME> > >::_Compat
_TEXT	ENDS
; Function compile flags: /Ogtp
; File c:\program files (x86)\microsoft visual studio 14.0\vc\include\vector
;	COMDAT ??9?$_Vector_const_iterator@V?$_Vector_val@U?$_Simple_types@URINGMONSTER_EVENT_TIME@@@std@@@std@@@std@@QBE_NABV01@@Z
_TEXT	SEGMENT
__Right$ = 8						; size = 4
??9?$_Vector_const_iterator@V?$_Vector_val@U?$_Simple_types@URINGMONSTER_EVENT_TIME@@@std@@@std@@@std@@QBE_NABV01@@Z PROC ; std::_Vector_const_iterator<std::_Vector_val<std::_Simple_types<RINGMONSTER_EVENT_TIME> > >::operator!=, COMDAT
; _this$ = ecx

; 210  : 		{	// test for iterator inequality

  00000	55		 push	 ebp
  00001	8b ec		 mov	 ebp, esp

; 206  : 		return (this->_Ptr == _Right._Ptr);

  00003	8b 11		 mov	 edx, DWORD PTR [ecx]

; 211  : 		return (!(*this == _Right));

  00005	33 c0		 xor	 eax, eax

; 206  : 		return (this->_Ptr == _Right._Ptr);

  00007	8b 4d 08	 mov	 ecx, DWORD PTR __Right$[ebp]
  0000a	3b 11		 cmp	 edx, DWORD PTR [ecx]

; 211  : 		return (!(*this == _Right));

  0000c	0f 95 c0	 setne	 al

; 212  : 		}

  0000f	5d		 pop	 ebp
  00010	c2 04 00	 ret	 4
??9?$_Vector_const_iterator@V?$_Vector_val@U?$_Simple_types@URINGMONSTER_EVENT_TIME@@@std@@@std@@@std@@QBE_NABV01@@Z ENDP ; std::_Vector_const_iterator<std::_Vector_val<std::_Simple_types<RINGMONSTER_EVENT_TIME> > >::operator!=
_TEXT	ENDS
; Function compile flags: /Ogtp
; File c:\program files (x86)\microsoft visual studio 14.0\vc\include\vector
;	COMDAT ??8?$_Vector_const_iterator@V?$_Vector_val@U?$_Simple_types@URINGMONSTER_EVENT_TIME@@@std@@@std@@@std@@QBE_NABV01@@Z
_TEXT	SEGMENT
__Right$ = 8						; size = 4
??8?$_Vector_const_iterator@V?$_Vector_val@U?$_Simple_types@URINGMONSTER_EVENT_TIME@@@std@@@std@@@std@@QBE_NABV01@@Z PROC ; std::_Vector_const_iterator<std::_Vector_val<std::_Simple_types<RINGMONSTER_EVENT_TIME> > >::operator==, COMDAT
; _this$ = ecx

; 203  : 		{	// test for iterator equality

  00000	55		 push	 ebp
  00001	8b ec		 mov	 ebp, esp

; 204  : 		if (this->_Getcont() != _Right._Getcont())
; 205  : 			_Compat(_Right);
; 206  : 		return (this->_Ptr == _Right._Ptr);

  00003	8b 11		 mov	 edx, DWORD PTR [ecx]
  00005	33 c0		 xor	 eax, eax
  00007	8b 4d 08	 mov	 ecx, DWORD PTR __Right$[ebp]
  0000a	3b 11		 cmp	 edx, DWORD PTR [ecx]
  0000c	0f 94 c0	 sete	 al

; 207  : 		}

  0000f	5d		 pop	 ebp
  00010	c2 04 00	 ret	 4
??8?$_Vector_const_iterator@V?$_Vector_val@U?$_Simple_types@URINGMONSTER_EVENT_TIME@@@std@@@std@@@std@@QBE_NABV01@@Z ENDP ; std::_Vector_const_iterator<std::_Vector_val<std::_Simple_types<RINGMONSTER_EVENT_TIME> > >::operator==
_TEXT	ENDS
; Function compile flags: /Ogtp
; File c:\program files (x86)\microsoft visual studio 14.0\vc\include\vector
;	COMDAT ??E?$_Vector_const_iterator@V?$_Vector_val@U?$_Simple_types@URINGMONSTER_EVENT_TIME@@@std@@@std@@@std@@QAEAAV01@XZ
_TEXT	SEGMENT
??E?$_Vector_const_iterator@V?$_Vector_val@U?$_Simple_types@URINGMONSTER_EVENT_TIME@@@std@@@std@@@std@@QAEAAV01@XZ PROC ; std::_Vector_const_iterator<std::_Vector_val<std::_Simple_types<RINGMONSTER_EVENT_TIME> > >::operator++, COMDAT
; _this$ = ecx

; 96   :  #if _ITERATOR_DEBUG_LEVEL == 2
; 97   : 		if (this->_Getcont() == 0
; 98   : 			|| this->_Ptr == 0
; 99   : 			|| ((_Myvec *)this->_Getcont())->_Mylast <= this->_Ptr)
; 100  : 			{	// report error
; 101  : 			_DEBUG_ERROR("vector iterator not incrementable");
; 102  : 			_SCL_SECURE_OUT_OF_RANGE;
; 103  : 			}
; 104  : 
; 105  :  #elif _ITERATOR_DEBUG_LEVEL == 1
; 106  : 		_SCL_SECURE_VALIDATE(this->_Getcont() != 0);
; 107  : 		_SCL_SECURE_VALIDATE_RANGE(
; 108  : 			this->_Ptr != _Tptr()
; 109  : 			&& this->_Ptr < ((_Myvec *)this->_Getcont())->_Mylast);
; 110  :  #endif /* _ITERATOR_DEBUG_LEVEL */
; 111  : 
; 112  : 		++this->_Ptr;

  00000	83 01 08	 add	 DWORD PTR [ecx], 8

; 113  : 		return (*this);

  00003	8b c1		 mov	 eax, ecx

; 114  : 		}

  00005	c3		 ret	 0
??E?$_Vector_const_iterator@V?$_Vector_val@U?$_Simple_types@URINGMONSTER_EVENT_TIME@@@std@@@std@@@std@@QAEAAV01@XZ ENDP ; std::_Vector_const_iterator<std::_Vector_val<std::_Simple_types<RINGMONSTER_EVENT_TIME> > >::operator++
_TEXT	ENDS
; Function compile flags: /Ogtp
; File c:\program files (x86)\microsoft visual studio 14.0\vc\include\vector
;	COMDAT ??D?$_Vector_const_iterator@V?$_Vector_val@U?$_Simple_types@URINGMONSTER_EVENT_TIME@@@std@@@std@@@std@@QBEABURINGMONSTER_EVENT_TIME@@XZ
_TEXT	SEGMENT
??D?$_Vector_const_iterator@V?$_Vector_val@U?$_Simple_types@URINGMONSTER_EVENT_TIME@@@std@@@std@@@std@@QBEABURINGMONSTER_EVENT_TIME@@XZ PROC ; std::_Vector_const_iterator<std::_Vector_val<std::_Simple_types<RINGMONSTER_EVENT_TIME> > >::operator*, COMDAT
; _this$ = ecx

; 66   :  #if _ITERATOR_DEBUG_LEVEL == 2
; 67   : 		if (this->_Getcont() == 0
; 68   : 			|| this->_Ptr == 0
; 69   : 			|| this->_Ptr < ((_Myvec *)this->_Getcont())->_Myfirst
; 70   : 			|| ((_Myvec *)this->_Getcont())->_Mylast <= this->_Ptr)
; 71   : 			{	// report error
; 72   : 			_DEBUG_ERROR("vector iterator not dereferencable");
; 73   : 			_SCL_SECURE_OUT_OF_RANGE;
; 74   : 			}
; 75   : 
; 76   :  #elif _ITERATOR_DEBUG_LEVEL == 1
; 77   : 		_SCL_SECURE_VALIDATE(this->_Getcont() != 0);
; 78   : 		_SCL_SECURE_VALIDATE_RANGE(
; 79   : 			this->_Ptr != _Tptr()
; 80   : 			&& ((_Myvec *)this->_Getcont())->_Myfirst <= this->_Ptr
; 81   : 			&& this->_Ptr < ((_Myvec *)this->_Getcont())->_Mylast);
; 82   :  #endif /* _ITERATOR_DEBUG_LEVEL */
; 83   : 
; 84   : 		_Analysis_assume_(this->_Ptr != _Tptr());
; 85   : 
; 86   : 		return (*this->_Ptr);

  00000	8b 01		 mov	 eax, DWORD PTR [ecx]

; 87   : 		}

  00002	c3		 ret	 0
??D?$_Vector_const_iterator@V?$_Vector_val@U?$_Simple_types@URINGMONSTER_EVENT_TIME@@@std@@@std@@@std@@QBEABURINGMONSTER_EVENT_TIME@@XZ ENDP ; std::_Vector_const_iterator<std::_Vector_val<std::_Simple_types<RINGMONSTER_EVENT_TIME> > >::operator*
_TEXT	ENDS
; Function compile flags: /Ogtp
; File c:\program files (x86)\microsoft visual studio 14.0\vc\include\vector
;	COMDAT ??0?$_Vector_const_iterator@V?$_Vector_val@U?$_Simple_types@URINGMONSTER_EVENT_TIME@@@std@@@std@@@std@@QAE@PAURINGMONSTER_EVENT_TIME@@PBU_Container_base0@1@@Z
_TEXT	SEGMENT
__Parg$ = 8						; size = 4
__Pvector$ = 12						; size = 4
??0?$_Vector_const_iterator@V?$_Vector_val@U?$_Simple_types@URINGMONSTER_EVENT_TIME@@@std@@@std@@@std@@QAE@PAURINGMONSTER_EVENT_TIME@@PBU_Container_base0@1@@Z PROC ; std::_Vector_const_iterator<std::_Vector_val<std::_Simple_types<RINGMONSTER_EVENT_TIME> > >::_Vector_const_iterator<std::_Vector_val<std::_Simple_types<RINGMONSTER_EVENT_TIME> > >, COMDAT
; _this$ = ecx

; 47   : 		{	// construct with pointer _Parg

  00000	55		 push	 ebp
  00001	8b ec		 mov	 ebp, esp

; 46   : 		: _Ptr(_Parg)

  00003	8b 45 08	 mov	 eax, DWORD PTR __Parg$[ebp]
  00006	89 01		 mov	 DWORD PTR [ecx], eax

; 48   : 		this->_Adopt(_Pvector);
; 49   : 		}

  00008	8b c1		 mov	 eax, ecx
  0000a	5d		 pop	 ebp
  0000b	c2 08 00	 ret	 8
??0?$_Vector_const_iterator@V?$_Vector_val@U?$_Simple_types@URINGMONSTER_EVENT_TIME@@@std@@@std@@@std@@QAE@PAURINGMONSTER_EVENT_TIME@@PBU_Container_base0@1@@Z ENDP ; std::_Vector_const_iterator<std::_Vector_val<std::_Simple_types<RINGMONSTER_EVENT_TIME> > >::_Vector_const_iterator<std::_Vector_val<std::_Simple_types<RINGMONSTER_EVENT_TIME> > >
_TEXT	ENDS
; Function compile flags: /Ogtp
; File c:\program files (x86)\microsoft visual studio 14.0\vc\include\vector
;	COMDAT ??E?$_Vector_iterator@V?$_Vector_val@U?$_Simple_types@URINGMONSTER_DATA@@@std@@@std@@@std@@QAE?AV01@H@Z
_TEXT	SEGMENT
___$ReturnUdt$ = 8					; size = 4
___formal$ = 12						; size = 4
??E?$_Vector_iterator@V?$_Vector_val@U?$_Simple_types@URINGMONSTER_DATA@@@std@@@std@@@std@@QAE?AV01@H@Z PROC ; std::_Vector_iterator<std::_Vector_val<std::_Simple_types<RINGMONSTER_DATA> > >::operator++, COMDAT
; _this$ = ecx

; 340  : 		{	// postincrement

  00000	55		 push	 ebp
  00001	8b ec		 mov	 ebp, esp

; 341  : 		_Myiter _Tmp = *this;

  00003	8b 45 08	 mov	 eax, DWORD PTR ___$ReturnUdt$[ebp]
  00006	8b 11		 mov	 edx, DWORD PTR [ecx]
  00008	89 10		 mov	 DWORD PTR [eax], edx

; 112  : 		++this->_Ptr;

  0000a	83 c2 0c	 add	 edx, 12			; 0000000cH
  0000d	89 11		 mov	 DWORD PTR [ecx], edx

; 342  : 		++*this;
; 343  : 		return (_Tmp);
; 344  : 		}

  0000f	5d		 pop	 ebp
  00010	c2 08 00	 ret	 8
??E?$_Vector_iterator@V?$_Vector_val@U?$_Simple_types@URINGMONSTER_DATA@@@std@@@std@@@std@@QAE?AV01@H@Z ENDP ; std::_Vector_iterator<std::_Vector_val<std::_Simple_types<RINGMONSTER_DATA> > >::operator++
_TEXT	ENDS
; Function compile flags: /Ogtp
; File c:\program files (x86)\microsoft visual studio 14.0\vc\include\vector
;	COMDAT ??E?$_Vector_iterator@V?$_Vector_val@U?$_Simple_types@URINGMONSTER_DATA@@@std@@@std@@@std@@QAEAAV01@XZ
_TEXT	SEGMENT
??E?$_Vector_iterator@V?$_Vector_val@U?$_Simple_types@URINGMONSTER_DATA@@@std@@@std@@@std@@QAEAAV01@XZ PROC ; std::_Vector_iterator<std::_Vector_val<std::_Simple_types<RINGMONSTER_DATA> > >::operator++, COMDAT
; _this$ = ecx

; 112  : 		++this->_Ptr;

  00000	83 01 0c	 add	 DWORD PTR [ecx], 12	; 0000000cH

; 335  : 		++*(_Mybase *)this;
; 336  : 		return (*this);

  00003	8b c1		 mov	 eax, ecx

; 337  : 		}

  00005	c3		 ret	 0
??E?$_Vector_iterator@V?$_Vector_val@U?$_Simple_types@URINGMONSTER_DATA@@@std@@@std@@@std@@QAEAAV01@XZ ENDP ; std::_Vector_iterator<std::_Vector_val<std::_Simple_types<RINGMONSTER_DATA> > >::operator++
_TEXT	ENDS
; Function compile flags: /Ogtp
; File c:\program files (x86)\microsoft visual studio 14.0\vc\include\vector
;	COMDAT ??D?$_Vector_iterator@V?$_Vector_val@U?$_Simple_types@URINGMONSTER_DATA@@@std@@@std@@@std@@QBEAAURINGMONSTER_DATA@@XZ
_TEXT	SEGMENT
??D?$_Vector_iterator@V?$_Vector_val@U?$_Simple_types@URINGMONSTER_DATA@@@std@@@std@@@std@@QBEAAURINGMONSTER_DATA@@XZ PROC ; std::_Vector_iterator<std::_Vector_val<std::_Simple_types<RINGMONSTER_DATA> > >::operator*, COMDAT
; _this$ = ecx

; 325  : 		return ((reference)**(_Mybase *)this);

  00000	8b 01		 mov	 eax, DWORD PTR [ecx]

; 326  : 		}

  00002	c3		 ret	 0
??D?$_Vector_iterator@V?$_Vector_val@U?$_Simple_types@URINGMONSTER_DATA@@@std@@@std@@@std@@QBEAAURINGMONSTER_DATA@@XZ ENDP ; std::_Vector_iterator<std::_Vector_val<std::_Simple_types<RINGMONSTER_DATA> > >::operator*
_TEXT	ENDS
; Function compile flags: /Ogtp
; File c:\program files (x86)\microsoft visual studio 14.0\vc\include\vector
;	COMDAT ??0?$_Vector_iterator@V?$_Vector_val@U?$_Simple_types@URINGMONSTER_DATA@@@std@@@std@@@std@@QAE@PAURINGMONSTER_DATA@@PBU_Container_base0@1@@Z
_TEXT	SEGMENT
__Parg$ = 8						; size = 4
__Pvector$ = 12						; size = 4
??0?$_Vector_iterator@V?$_Vector_val@U?$_Simple_types@URINGMONSTER_DATA@@@std@@@std@@@std@@QAE@PAURINGMONSTER_DATA@@PBU_Container_base0@1@@Z PROC ; std::_Vector_iterator<std::_Vector_val<std::_Simple_types<RINGMONSTER_DATA> > >::_Vector_iterator<std::_Vector_val<std::_Simple_types<RINGMONSTER_DATA> > >, COMDAT
; _this$ = ecx

; 307  : 		{	// construct with pointer _Parg

  00000	55		 push	 ebp
  00001	8b ec		 mov	 ebp, esp

; 46   : 		: _Ptr(_Parg)

  00003	8b 45 08	 mov	 eax, DWORD PTR __Parg$[ebp]
  00006	89 01		 mov	 DWORD PTR [ecx], eax

; 308  : 		}

  00008	8b c1		 mov	 eax, ecx
  0000a	5d		 pop	 ebp
  0000b	c2 08 00	 ret	 8
??0?$_Vector_iterator@V?$_Vector_val@U?$_Simple_types@URINGMONSTER_DATA@@@std@@@std@@@std@@QAE@PAURINGMONSTER_DATA@@PBU_Container_base0@1@@Z ENDP ; std::_Vector_iterator<std::_Vector_val<std::_Simple_types<RINGMONSTER_DATA> > >::_Vector_iterator<std::_Vector_val<std::_Simple_types<RINGMONSTER_DATA> > >
_TEXT	ENDS
; Function compile flags: /Ogtp
; File c:\program files (x86)\microsoft visual studio 14.0\vc\include\vector
;	COMDAT ?_Compat@?$_Vector_const_iterator@V?$_Vector_val@U?$_Simple_types@URINGMONSTER_DATA@@@std@@@std@@@std@@QBEXABV12@@Z
_TEXT	SEGMENT
___formal$ = 8						; size = 4
?_Compat@?$_Vector_const_iterator@V?$_Vector_val@U?$_Simple_types@URINGMONSTER_DATA@@@std@@@std@@@std@@QBEXABV12@@Z PROC ; std::_Vector_const_iterator<std::_Vector_val<std::_Simple_types<RINGMONSTER_DATA> > >::_Compat, COMDAT
; _this$ = ecx

; 256  : 		}

  00000	c2 04 00	 ret	 4
?_Compat@?$_Vector_const_iterator@V?$_Vector_val@U?$_Simple_types@URINGMONSTER_DATA@@@std@@@std@@@std@@QBEXABV12@@Z ENDP ; std::_Vector_const_iterator<std::_Vector_val<std::_Simple_types<RINGMONSTER_DATA> > >::_Compat
_TEXT	ENDS
; Function compile flags: /Ogtp
; File c:\program files (x86)\microsoft visual studio 14.0\vc\include\vector
;	COMDAT ??9?$_Vector_const_iterator@V?$_Vector_val@U?$_Simple_types@URINGMONSTER_DATA@@@std@@@std@@@std@@QBE_NABV01@@Z
_TEXT	SEGMENT
__Right$ = 8						; size = 4
??9?$_Vector_const_iterator@V?$_Vector_val@U?$_Simple_types@URINGMONSTER_DATA@@@std@@@std@@@std@@QBE_NABV01@@Z PROC ; std::_Vector_const_iterator<std::_Vector_val<std::_Simple_types<RINGMONSTER_DATA> > >::operator!=, COMDAT
; _this$ = ecx

; 210  : 		{	// test for iterator inequality

  00000	55		 push	 ebp
  00001	8b ec		 mov	 ebp, esp

; 206  : 		return (this->_Ptr == _Right._Ptr);

  00003	8b 11		 mov	 edx, DWORD PTR [ecx]

; 211  : 		return (!(*this == _Right));

  00005	33 c0		 xor	 eax, eax

; 206  : 		return (this->_Ptr == _Right._Ptr);

  00007	8b 4d 08	 mov	 ecx, DWORD PTR __Right$[ebp]
  0000a	3b 11		 cmp	 edx, DWORD PTR [ecx]

; 211  : 		return (!(*this == _Right));

  0000c	0f 95 c0	 setne	 al

; 212  : 		}

  0000f	5d		 pop	 ebp
  00010	c2 04 00	 ret	 4
??9?$_Vector_const_iterator@V?$_Vector_val@U?$_Simple_types@URINGMONSTER_DATA@@@std@@@std@@@std@@QBE_NABV01@@Z ENDP ; std::_Vector_const_iterator<std::_Vector_val<std::_Simple_types<RINGMONSTER_DATA> > >::operator!=
_TEXT	ENDS
; Function compile flags: /Ogtp
; File c:\program files (x86)\microsoft visual studio 14.0\vc\include\vector
;	COMDAT ??8?$_Vector_const_iterator@V?$_Vector_val@U?$_Simple_types@URINGMONSTER_DATA@@@std@@@std@@@std@@QBE_NABV01@@Z
_TEXT	SEGMENT
__Right$ = 8						; size = 4
??8?$_Vector_const_iterator@V?$_Vector_val@U?$_Simple_types@URINGMONSTER_DATA@@@std@@@std@@@std@@QBE_NABV01@@Z PROC ; std::_Vector_const_iterator<std::_Vector_val<std::_Simple_types<RINGMONSTER_DATA> > >::operator==, COMDAT
; _this$ = ecx

; 203  : 		{	// test for iterator equality

  00000	55		 push	 ebp
  00001	8b ec		 mov	 ebp, esp

; 204  : 		if (this->_Getcont() != _Right._Getcont())
; 205  : 			_Compat(_Right);
; 206  : 		return (this->_Ptr == _Right._Ptr);

  00003	8b 11		 mov	 edx, DWORD PTR [ecx]
  00005	33 c0		 xor	 eax, eax
  00007	8b 4d 08	 mov	 ecx, DWORD PTR __Right$[ebp]
  0000a	3b 11		 cmp	 edx, DWORD PTR [ecx]
  0000c	0f 94 c0	 sete	 al

; 207  : 		}

  0000f	5d		 pop	 ebp
  00010	c2 04 00	 ret	 4
??8?$_Vector_const_iterator@V?$_Vector_val@U?$_Simple_types@URINGMONSTER_DATA@@@std@@@std@@@std@@QBE_NABV01@@Z ENDP ; std::_Vector_const_iterator<std::_Vector_val<std::_Simple_types<RINGMONSTER_DATA> > >::operator==
_TEXT	ENDS
; Function compile flags: /Ogtp
; File c:\program files (x86)\microsoft visual studio 14.0\vc\include\vector
;	COMDAT ??E?$_Vector_const_iterator@V?$_Vector_val@U?$_Simple_types@URINGMONSTER_DATA@@@std@@@std@@@std@@QAEAAV01@XZ
_TEXT	SEGMENT
??E?$_Vector_const_iterator@V?$_Vector_val@U?$_Simple_types@URINGMONSTER_DATA@@@std@@@std@@@std@@QAEAAV01@XZ PROC ; std::_Vector_const_iterator<std::_Vector_val<std::_Simple_types<RINGMONSTER_DATA> > >::operator++, COMDAT
; _this$ = ecx

; 96   :  #if _ITERATOR_DEBUG_LEVEL == 2
; 97   : 		if (this->_Getcont() == 0
; 98   : 			|| this->_Ptr == 0
; 99   : 			|| ((_Myvec *)this->_Getcont())->_Mylast <= this->_Ptr)
; 100  : 			{	// report error
; 101  : 			_DEBUG_ERROR("vector iterator not incrementable");
; 102  : 			_SCL_SECURE_OUT_OF_RANGE;
; 103  : 			}
; 104  : 
; 105  :  #elif _ITERATOR_DEBUG_LEVEL == 1
; 106  : 		_SCL_SECURE_VALIDATE(this->_Getcont() != 0);
; 107  : 		_SCL_SECURE_VALIDATE_RANGE(
; 108  : 			this->_Ptr != _Tptr()
; 109  : 			&& this->_Ptr < ((_Myvec *)this->_Getcont())->_Mylast);
; 110  :  #endif /* _ITERATOR_DEBUG_LEVEL */
; 111  : 
; 112  : 		++this->_Ptr;

  00000	83 01 0c	 add	 DWORD PTR [ecx], 12	; 0000000cH

; 113  : 		return (*this);

  00003	8b c1		 mov	 eax, ecx

; 114  : 		}

  00005	c3		 ret	 0
??E?$_Vector_const_iterator@V?$_Vector_val@U?$_Simple_types@URINGMONSTER_DATA@@@std@@@std@@@std@@QAEAAV01@XZ ENDP ; std::_Vector_const_iterator<std::_Vector_val<std::_Simple_types<RINGMONSTER_DATA> > >::operator++
_TEXT	ENDS
; Function compile flags: /Ogtp
; File c:\program files (x86)\microsoft visual studio 14.0\vc\include\vector
;	COMDAT ??D?$_Vector_const_iterator@V?$_Vector_val@U?$_Simple_types@URINGMONSTER_DATA@@@std@@@std@@@std@@QBEABURINGMONSTER_DATA@@XZ
_TEXT	SEGMENT
??D?$_Vector_const_iterator@V?$_Vector_val@U?$_Simple_types@URINGMONSTER_DATA@@@std@@@std@@@std@@QBEABURINGMONSTER_DATA@@XZ PROC ; std::_Vector_const_iterator<std::_Vector_val<std::_Simple_types<RINGMONSTER_DATA> > >::operator*, COMDAT
; _this$ = ecx

; 66   :  #if _ITERATOR_DEBUG_LEVEL == 2
; 67   : 		if (this->_Getcont() == 0
; 68   : 			|| this->_Ptr == 0
; 69   : 			|| this->_Ptr < ((_Myvec *)this->_Getcont())->_Myfirst
; 70   : 			|| ((_Myvec *)this->_Getcont())->_Mylast <= this->_Ptr)
; 71   : 			{	// report error
; 72   : 			_DEBUG_ERROR("vector iterator not dereferencable");
; 73   : 			_SCL_SECURE_OUT_OF_RANGE;
; 74   : 			}
; 75   : 
; 76   :  #elif _ITERATOR_DEBUG_LEVEL == 1
; 77   : 		_SCL_SECURE_VALIDATE(this->_Getcont() != 0);
; 78   : 		_SCL_SECURE_VALIDATE_RANGE(
; 79   : 			this->_Ptr != _Tptr()
; 80   : 			&& ((_Myvec *)this->_Getcont())->_Myfirst <= this->_Ptr
; 81   : 			&& this->_Ptr < ((_Myvec *)this->_Getcont())->_Mylast);
; 82   :  #endif /* _ITERATOR_DEBUG_LEVEL */
; 83   : 
; 84   : 		_Analysis_assume_(this->_Ptr != _Tptr());
; 85   : 
; 86   : 		return (*this->_Ptr);

  00000	8b 01		 mov	 eax, DWORD PTR [ecx]

; 87   : 		}

  00002	c3		 ret	 0
??D?$_Vector_const_iterator@V?$_Vector_val@U?$_Simple_types@URINGMONSTER_DATA@@@std@@@std@@@std@@QBEABURINGMONSTER_DATA@@XZ ENDP ; std::_Vector_const_iterator<std::_Vector_val<std::_Simple_types<RINGMONSTER_DATA> > >::operator*
_TEXT	ENDS
; Function compile flags: /Ogtp
; File c:\program files (x86)\microsoft visual studio 14.0\vc\include\vector
;	COMDAT ??0?$_Vector_const_iterator@V?$_Vector_val@U?$_Simple_types@URINGMONSTER_DATA@@@std@@@std@@@std@@QAE@PAURINGMONSTER_DATA@@PBU_Container_base0@1@@Z
_TEXT	SEGMENT
__Parg$ = 8						; size = 4
__Pvector$ = 12						; size = 4
??0?$_Vector_const_iterator@V?$_Vector_val@U?$_Simple_types@URINGMONSTER_DATA@@@std@@@std@@@std@@QAE@PAURINGMONSTER_DATA@@PBU_Container_base0@1@@Z PROC ; std::_Vector_const_iterator<std::_Vector_val<std::_Simple_types<RINGMONSTER_DATA> > >::_Vector_const_iterator<std::_Vector_val<std::_Simple_types<RINGMONSTER_DATA> > >, COMDAT
; _this$ = ecx

; 47   : 		{	// construct with pointer _Parg

  00000	55		 push	 ebp
  00001	8b ec		 mov	 ebp, esp

; 46   : 		: _Ptr(_Parg)

  00003	8b 45 08	 mov	 eax, DWORD PTR __Parg$[ebp]
  00006	89 01		 mov	 DWORD PTR [ecx], eax

; 48   : 		this->_Adopt(_Pvector);
; 49   : 		}

  00008	8b c1		 mov	 eax, ecx
  0000a	5d		 pop	 ebp
  0000b	c2 08 00	 ret	 8
??0?$_Vector_const_iterator@V?$_Vector_val@U?$_Simple_types@URINGMONSTER_DATA@@@std@@@std@@@std@@QAE@PAURINGMONSTER_DATA@@PBU_Container_base0@1@@Z ENDP ; std::_Vector_const_iterator<std::_Vector_val<std::_Simple_types<RINGMONSTER_DATA> > >::_Vector_const_iterator<std::_Vector_val<std::_Simple_types<RINGMONSTER_DATA> > >
_TEXT	ENDS
; Function compile flags: /Ogtp
; File c:\users\michel\desktop\source\gameserver\include\readscript.h
;	COMDAT ?GetToken@@YA?AW4SMDToken@@XZ
_TEXT	SEGMENT
_TempString$ = -104					; size = 100
__$ArrayPad$ = -4					; size = 4
?GetToken@@YA?AW4SMDToken@@XZ PROC			; GetToken, COMDAT

; 24   : {

  00000	55		 push	 ebp
  00001	8b ec		 mov	 ebp, esp
  00003	83 ec 68	 sub	 esp, 104		; 00000068H
  00006	a1 00 00 00 00	 mov	 eax, DWORD PTR ___security_cookie
  0000b	33 c5		 xor	 eax, ebp
  0000d	89 45 fc	 mov	 DWORD PTR __$ArrayPad$[ebp], eax

; 25   : 	int ch;
; 26   : 	char* p;
; 27   : 	char TempString[100];
; 28   : 
; 29   : 	TokenString[0]=0;

  00010	c6 05 00 00 00
	00 00		 mov	 BYTE PTR ?TokenString@@3PADA, 0
  00017	53		 push	 ebx
  00018	0f 1f 84 00 00
	00 00 00	 npad	 8
$LL4@GetToken:

; 30   : 
; 31   : 	do
; 32   : 	{
; 33   : 		if ((ch=fgetc(SMDFile)) == -1)

  00020	ff 35 00 00 00
	00		 push	 DWORD PTR ?SMDFile@@3PAU_iobuf@@A
  00026	e8 00 00 00 00	 call	 _fgetc
  0002b	8b d8		 mov	 ebx, eax
  0002d	83 c4 04	 add	 esp, 4
  00030	83 fb ff	 cmp	 ebx, -1
  00033	74 5d		 je	 SHORT $LN43@GetToken

; 34   : 		{
; 35   : 			return END;	// End of FILE (EOF)
; 36   : 		}
; 37   : 		else
; 38   : 		{	
; 39   : 			if (ch=='/')		// this is /

  00035	83 fb 2f	 cmp	 ebx, 47			; 0000002fH
  00038	75 30		 jne	 SHORT $LN2@GetToken

; 40   : 			{
; 41   : 				if((ch=fgetc(SMDFile)) == '/')

  0003a	ff 35 00 00 00
	00		 push	 DWORD PTR ?SMDFile@@3PAU_iobuf@@A
  00040	e8 00 00 00 00	 call	 _fgetc
  00045	8b d8		 mov	 ebx, eax
  00047	83 c4 04	 add	 esp, 4
  0004a	83 fb 2f	 cmp	 ebx, 47			; 0000002fH
  0004d	75 1b		 jne	 SHORT $LN2@GetToken
  0004f	90		 npad	 1
$LL5@GetToken:

; 42   : 				{
; 43   : 					while ((ch != '\n') && (ch != -1))	// End of Line (EOL)

  00050	83 fb ff	 cmp	 ebx, -1
  00053	74 3d		 je	 SHORT $LN43@GetToken

; 44   : 					{
; 45   : 						ch=fgetc(SMDFile);

  00055	ff 35 00 00 00
	00		 push	 DWORD PTR ?SMDFile@@3PAU_iobuf@@A
  0005b	e8 00 00 00 00	 call	 _fgetc
  00060	8b d8		 mov	 ebx, eax
  00062	83 c4 04	 add	 esp, 4
  00065	83 fb 0a	 cmp	 ebx, 10			; 0000000aH
  00068	75 e6		 jne	 SHORT $LL5@GetToken
$LN2@GetToken:

; 51   : 					}
; 52   : 				}
; 53   : 			}
; 54   : 		}
; 55   : 	}
; 56   : 	while (isspace(ch) != 0);

  0006a	53		 push	 ebx
  0006b	e8 00 00 00 00	 call	 _isspace
  00070	83 c4 04	 add	 esp, 4
  00073	85 c0		 test	 eax, eax
  00075	75 a9		 jne	 SHORT $LL4@GetToken

; 57   : 
; 58   : 	
; 59   : 	switch(ch)

  00077	8d 43 de	 lea	 eax, DWORD PTR [ebx-34]
  0007a	56		 push	 esi
  0007b	83 f8 5b	 cmp	 eax, 91			; 0000005bH
  0007e	0f 87 89 01 00
	00		 ja	 $LN29@GetToken
  00084	0f b6 80 00 00
	00 00		 movzx	 eax, BYTE PTR $LN58@GetToken[eax]
  0008b	ff 24 85 00 00
	00 00		 jmp	 DWORD PTR $LN64@GetToken[eax*4]
$LN43@GetToken:

; 46   : 					}
; 47   : 	
; 48   : 					if (ch == -1)
; 49   : 					{
; 50   : 						return END;	// End of FILE

  00092	b8 02 00 00 00	 mov	 eax, 2
  00097	5b		 pop	 ebx

; 143  : 		}
; 144  : 		else
; 145  : 		{
; 146  : 			return CurrentToken = SMD_ERROR; // '<'
; 147  : 		}
; 148  : 		break;
; 149  : 
; 150  : 	}
; 151  : 
; 152  : 	return NAME;
; 153  : }

  00098	8b 4d fc	 mov	 ecx, DWORD PTR __$ArrayPad$[ebp]
  0009b	33 cd		 xor	 ecx, ebp
  0009d	e8 00 00 00 00	 call	 @__security_check_cookie@4
  000a2	8b e5		 mov	 esp, ebp
  000a4	5d		 pop	 ebp
  000a5	c3		 ret	 0
$LN20@GetToken:
  000a6	5e		 pop	 esi

; 60   : 	{
; 61   : 
; 62   : 	case 0x23:	// #
; 63   : 		return CurrentToken=COMMAND;

  000a7	c7 05 00 00 00
	00 23 00 00 00	 mov	 DWORD PTR ?CurrentToken@@3W4SMDToken@@A, 35 ; 00000023H
  000b1	b8 23 00 00 00	 mov	 eax, 35			; 00000023H
  000b6	5b		 pop	 ebx

; 143  : 		}
; 144  : 		else
; 145  : 		{
; 146  : 			return CurrentToken = SMD_ERROR; // '<'
; 147  : 		}
; 148  : 		break;
; 149  : 
; 150  : 	}
; 151  : 
; 152  : 	return NAME;
; 153  : }

  000b7	8b 4d fc	 mov	 ecx, DWORD PTR __$ArrayPad$[ebp]
  000ba	33 cd		 xor	 ecx, ebp
  000bc	e8 00 00 00 00	 call	 @__security_check_cookie@4
  000c1	8b e5		 mov	 esp, ebp
  000c3	5d		 pop	 ebp
  000c4	c3		 ret	 0
$LN21@GetToken:
  000c5	5e		 pop	 esi

; 64   : 		break;
; 65   : 	
; 66   : 	case 0x3B:	// ;
; 67   : 		return CurrentToken=SEMICOLON;

  000c6	c7 05 00 00 00
	00 3b 00 00 00	 mov	 DWORD PTR ?CurrentToken@@3W4SMDToken@@A, 59 ; 0000003bH
  000d0	b8 3b 00 00 00	 mov	 eax, 59			; 0000003bH
  000d5	5b		 pop	 ebx

; 143  : 		}
; 144  : 		else
; 145  : 		{
; 146  : 			return CurrentToken = SMD_ERROR; // '<'
; 147  : 		}
; 148  : 		break;
; 149  : 
; 150  : 	}
; 151  : 
; 152  : 	return NAME;
; 153  : }

  000d6	8b 4d fc	 mov	 ecx, DWORD PTR __$ArrayPad$[ebp]
  000d9	33 cd		 xor	 ecx, ebp
  000db	e8 00 00 00 00	 call	 @__security_check_cookie@4
  000e0	8b e5		 mov	 esp, ebp
  000e2	5d		 pop	 ebp
  000e3	c3		 ret	 0
$LN22@GetToken:
  000e4	5e		 pop	 esi

; 68   : 		break;
; 69   : 	
; 70   : 	case 0x2C:	// ,
; 71   : 
; 72   : 		return CurrentToken=COMMA;

  000e5	c7 05 00 00 00
	00 2c 00 00 00	 mov	 DWORD PTR ?CurrentToken@@3W4SMDToken@@A, 44 ; 0000002cH
  000ef	b8 2c 00 00 00	 mov	 eax, 44			; 0000002cH
  000f4	5b		 pop	 ebx

; 143  : 		}
; 144  : 		else
; 145  : 		{
; 146  : 			return CurrentToken = SMD_ERROR; // '<'
; 147  : 		}
; 148  : 		break;
; 149  : 
; 150  : 	}
; 151  : 
; 152  : 	return NAME;
; 153  : }

  000f5	8b 4d fc	 mov	 ecx, DWORD PTR __$ArrayPad$[ebp]
  000f8	33 cd		 xor	 ecx, ebp
  000fa	e8 00 00 00 00	 call	 @__security_check_cookie@4
  000ff	8b e5		 mov	 esp, ebp
  00101	5d		 pop	 ebp
  00102	c3		 ret	 0
$LN23@GetToken:
  00103	5e		 pop	 esi

; 73   : 		break;
; 74   : 	
; 75   : 	case 0x7B:	// {
; 76   : 		return CurrentToken = LP;

  00104	c7 05 00 00 00
	00 7b 00 00 00	 mov	 DWORD PTR ?CurrentToken@@3W4SMDToken@@A, 123 ; 0000007bH
  0010e	b8 7b 00 00 00	 mov	 eax, 123		; 0000007bH
  00113	5b		 pop	 ebx

; 143  : 		}
; 144  : 		else
; 145  : 		{
; 146  : 			return CurrentToken = SMD_ERROR; // '<'
; 147  : 		}
; 148  : 		break;
; 149  : 
; 150  : 	}
; 151  : 
; 152  : 	return NAME;
; 153  : }

  00114	8b 4d fc	 mov	 ecx, DWORD PTR __$ArrayPad$[ebp]
  00117	33 cd		 xor	 ecx, ebp
  00119	e8 00 00 00 00	 call	 @__security_check_cookie@4
  0011e	8b e5		 mov	 esp, ebp
  00120	5d		 pop	 ebp
  00121	c3		 ret	 0
$LN24@GetToken:
  00122	5e		 pop	 esi

; 77   : 		break;
; 78   : 
; 79   : 	case 0x7D:	// }
; 80   : 		return CurrentToken = RP;

  00123	c7 05 00 00 00
	00 7d 00 00 00	 mov	 DWORD PTR ?CurrentToken@@3W4SMDToken@@A, 125 ; 0000007dH
  0012d	b8 7d 00 00 00	 mov	 eax, 125		; 0000007dH
  00132	5b		 pop	 ebx

; 143  : 		}
; 144  : 		else
; 145  : 		{
; 146  : 			return CurrentToken = SMD_ERROR; // '<'
; 147  : 		}
; 148  : 		break;
; 149  : 
; 150  : 	}
; 151  : 
; 152  : 	return NAME;
; 153  : }

  00133	8b 4d fc	 mov	 ecx, DWORD PTR __$ArrayPad$[ebp]
  00136	33 cd		 xor	 ecx, ebp
  00138	e8 00 00 00 00	 call	 @__security_check_cookie@4
  0013d	8b e5		 mov	 esp, ebp
  0013f	5d		 pop	 ebp
  00140	c3		 ret	 0
$LN25@GetToken:

; 81   : 		break;
; 82   : 	// Nice Index Table :)	by Deathway
; 83   : 	// Numbers Case
; 84   : 	case 0x2D:	//-
; 85   : 	case 0x2E:	//.
; 86   : 	case '0':	//0
; 87   : 	case '1':	//1
; 88   : 	case '2':	//2
; 89   : 	case '3':	//3
; 90   : 	case '4':	//4		
; 91   : 	case '5':	//5
; 92   : 	case '6':	//6
; 93   : 	case '7':	//7
; 94   : 	case '8':	//8
; 95   : 	case '9':	//9
; 96   : 		ungetc(ch, SMDFile);

  00141	ff 35 00 00 00
	00		 push	 DWORD PTR ?SMDFile@@3PAU_iobuf@@A
  00147	53		 push	 ebx
  00148	e8 00 00 00 00	 call	 _ungetc

; 97   : 		p = TempString;
; 98   : 		
; 99   : 		while (((ch=getc(SMDFile)) != -1) && ((ch == 0x2E) || (isdigit(ch) != 0) || (ch == 0x2D)))  // 2e '.'  2D '-'

  0014d	ff 35 00 00 00
	00		 push	 DWORD PTR ?SMDFile@@3PAU_iobuf@@A
  00153	8d 75 98	 lea	 esi, DWORD PTR _TempString$[ebp]
  00156	e8 00 00 00 00	 call	 _getc
  0015b	8b d8		 mov	 ebx, eax
  0015d	83 c4 0c	 add	 esp, 12			; 0000000cH
  00160	83 fb ff	 cmp	 ebx, -1
  00163	74 2f		 je	 SHORT $LN59@GetToken
$LL9@GetToken:
  00165	83 fb 2e	 cmp	 ebx, 46			; 0000002eH
  00168	74 12		 je	 SHORT $LN26@GetToken
  0016a	53		 push	 ebx
  0016b	e8 00 00 00 00	 call	 _isdigit
  00170	83 c4 04	 add	 esp, 4
  00173	85 c0		 test	 eax, eax
  00175	75 05		 jne	 SHORT $LN26@GetToken
  00177	83 fb 2d	 cmp	 ebx, 45			; 0000002dH
  0017a	75 18		 jne	 SHORT $LN59@GetToken
$LN26@GetToken:
  0017c	ff 35 00 00 00
	00		 push	 DWORD PTR ?SMDFile@@3PAU_iobuf@@A

; 100  : 		{
; 101  : 			*p = ch;	// Construct a String

  00182	88 1e		 mov	 BYTE PTR [esi], bl

; 102  : 			p++;

  00184	46		 inc	 esi
  00185	e8 00 00 00 00	 call	 _getc
  0018a	8b d8		 mov	 ebx, eax
  0018c	83 c4 04	 add	 esp, 4
  0018f	83 fb ff	 cmp	 ebx, -1
  00192	75 d1		 jne	 SHORT $LL9@GetToken
$LN59@GetToken:

; 103  : 		}		
; 104  : 		*p = 0;
; 105  : 		TokenNumber = (float)atof( TempString);	// Select the first Byte as Main ID

  00194	8d 45 98	 lea	 eax, DWORD PTR _TempString$[ebp]
  00197	c6 06 00	 mov	 BYTE PTR [esi], 0
  0019a	50		 push	 eax
  0019b	e8 00 00 00 00	 call	 _atof
  001a0	83 c4 04	 add	 esp, 4

; 106  : 		return CurrentToken  = NUMBER ;

  001a3	c7 05 00 00 00
	00 01 00 00 00	 mov	 DWORD PTR ?CurrentToken@@3W4SMDToken@@A, 1
  001ad	d9 1d 00 00 00
	00		 fstp	 DWORD PTR ?TokenNumber@@3MA
  001b3	b8 01 00 00 00	 mov	 eax, 1
  001b8	5e		 pop	 esi
  001b9	5b		 pop	 ebx

; 143  : 		}
; 144  : 		else
; 145  : 		{
; 146  : 			return CurrentToken = SMD_ERROR; // '<'
; 147  : 		}
; 148  : 		break;
; 149  : 
; 150  : 	}
; 151  : 
; 152  : 	return NAME;
; 153  : }

  001ba	8b 4d fc	 mov	 ecx, DWORD PTR __$ArrayPad$[ebp]
  001bd	33 cd		 xor	 ecx, ebp
  001bf	e8 00 00 00 00	 call	 @__security_check_cookie@4
  001c4	8b e5		 mov	 esp, ebp
  001c6	5d		 pop	 ebp
  001c7	c3		 ret	 0
$LN27@GetToken:

; 107  : 		break;
; 108  : 
; 109  : 	case '\"':	// "	String Case
; 110  : 		p=&TokenString[0];
; 111  : 		
; 112  : 		while (((ch=getc(SMDFile)) != -1 ) && (ch != 0x22))	// nice

  001c8	ff 35 00 00 00
	00		 push	 DWORD PTR ?SMDFile@@3PAU_iobuf@@A
  001ce	be 00 00 00 00	 mov	 esi, OFFSET ?TokenString@@3PADA
  001d3	e8 00 00 00 00	 call	 _getc
  001d8	83 c4 04	 add	 esp, 4
  001db	83 f8 ff	 cmp	 eax, -1
  001de	74 1f		 je	 SHORT $LN12@GetToken
$LL11@GetToken:
  001e0	83 f8 22	 cmp	 eax, 34			; 00000022H
  001e3	0f 84 95 00 00
	00		 je	 $LN28@GetToken
  001e9	ff 35 00 00 00
	00		 push	 DWORD PTR ?SMDFile@@3PAU_iobuf@@A

; 113  : 		{
; 114  : 			*p = ch;

  001ef	88 06		 mov	 BYTE PTR [esi], al

; 115  : 			p++;

  001f1	46		 inc	 esi
  001f2	e8 00 00 00 00	 call	 _getc
  001f7	83 c4 04	 add	 esp, 4
  001fa	83 f8 ff	 cmp	 eax, -1
  001fd	75 e1		 jne	 SHORT $LL11@GetToken
$LN12@GetToken:

; 116  : 		}
; 117  : 		if (ch != 0x22 )

  001ff	83 f8 22	 cmp	 eax, 34			; 00000022H
  00202	74 7a		 je	 SHORT $LN28@GetToken

; 118  : 		{
; 119  : 			ungetc(ch, SMDFile);

  00204	ff 35 00 00 00
	00		 push	 DWORD PTR ?SMDFile@@3PAU_iobuf@@A
  0020a	50		 push	 eax

; 120  : 		}
; 121  : 		*p = 0;
; 122  : 		return CurrentToken = NAME;

  0020b	eb 69		 jmp	 SHORT $LN62@GetToken
$LN29@GetToken:

; 123  : 		break;
; 124  : 
; 125  : 	default:	// Others
; 126  : 		if (isalpha(ch))

  0020d	53		 push	 ebx
  0020e	e8 00 00 00 00	 call	 _isalpha
  00213	83 c4 04	 add	 esp, 4
  00216	85 c0		 test	 eax, eax
  00218	0f 84 7f 00 00
	00		 je	 $LN30@GetToken

; 127  : 		{
; 128  : 			p=&TokenString[0];
; 129  : 			*p=ch;
; 130  : 			p++;
; 131  : 
; 132  : 			while ( ((ch=getc(SMDFile)) != -1) && ( (ch == 0x2E) || (ch == 0x5F) || (isalnum(ch) != 0) ) )

  0021e	ff 35 00 00 00
	00		 push	 DWORD PTR ?SMDFile@@3PAU_iobuf@@A
  00224	88 1d 00 00 00
	00		 mov	 BYTE PTR ?TokenString@@3PADA, bl
  0022a	be 01 00 00 00	 mov	 esi, OFFSET ?TokenString@@3PADA+1
  0022f	e8 00 00 00 00	 call	 _getc
  00234	8b d8		 mov	 ebx, eax
  00236	83 c4 04	 add	 esp, 4
  00239	83 fb ff	 cmp	 ebx, -1
  0023c	74 31		 je	 SHORT $LN60@GetToken
  0023e	66 90		 npad	 2
$LL13@GetToken:
  00240	83 fb 2e	 cmp	 ebx, 46			; 0000002eH
  00243	74 12		 je	 SHORT $LN32@GetToken
  00245	83 fb 5f	 cmp	 ebx, 95			; 0000005fH
  00248	74 0d		 je	 SHORT $LN32@GetToken
  0024a	53		 push	 ebx
  0024b	e8 00 00 00 00	 call	 _isalnum
  00250	83 c4 04	 add	 esp, 4
  00253	85 c0		 test	 eax, eax
  00255	74 18		 je	 SHORT $LN60@GetToken
$LN32@GetToken:
  00257	ff 35 00 00 00
	00		 push	 DWORD PTR ?SMDFile@@3PAU_iobuf@@A

; 133  : 			{
; 134  : 				*p=ch;

  0025d	88 1e		 mov	 BYTE PTR [esi], bl

; 135  : 				p++;

  0025f	46		 inc	 esi
  00260	e8 00 00 00 00	 call	 _getc
  00265	8b d8		 mov	 ebx, eax
  00267	83 c4 04	 add	 esp, 4
  0026a	83 fb ff	 cmp	 ebx, -1
  0026d	75 d1		 jne	 SHORT $LL13@GetToken
$LN60@GetToken:

; 136  : 				
; 137  : 			}
; 138  : 
; 139  : 			ungetc(ch, SMDFile);

  0026f	ff 35 00 00 00
	00		 push	 DWORD PTR ?SMDFile@@3PAU_iobuf@@A
  00275	53		 push	 ebx
$LN62@GetToken:
  00276	e8 00 00 00 00	 call	 _ungetc
  0027b	83 c4 08	 add	 esp, 8
$LN28@GetToken:

; 140  : 			*p=0;

  0027e	c6 06 00	 mov	 BYTE PTR [esi], 0

; 141  : 			CurrentToken=NAME;
; 142  : 			return CurrentToken;

  00281	33 c0		 xor	 eax, eax
  00283	5e		 pop	 esi
  00284	c7 05 00 00 00
	00 00 00 00 00	 mov	 DWORD PTR ?CurrentToken@@3W4SMDToken@@A, 0
  0028e	5b		 pop	 ebx

; 143  : 		}
; 144  : 		else
; 145  : 		{
; 146  : 			return CurrentToken = SMD_ERROR; // '<'
; 147  : 		}
; 148  : 		break;
; 149  : 
; 150  : 	}
; 151  : 
; 152  : 	return NAME;
; 153  : }

  0028f	8b 4d fc	 mov	 ecx, DWORD PTR __$ArrayPad$[ebp]
  00292	33 cd		 xor	 ecx, ebp
  00294	e8 00 00 00 00	 call	 @__security_check_cookie@4
  00299	8b e5		 mov	 esp, ebp
  0029b	5d		 pop	 ebp
  0029c	c3		 ret	 0
$LN30@GetToken:
  0029d	8b 4d fc	 mov	 ecx, DWORD PTR __$ArrayPad$[ebp]
  002a0	b8 3c 00 00 00	 mov	 eax, 60			; 0000003cH
  002a5	5e		 pop	 esi
  002a6	33 cd		 xor	 ecx, ebp
  002a8	c7 05 00 00 00
	00 3c 00 00 00	 mov	 DWORD PTR ?CurrentToken@@3W4SMDToken@@A, 60 ; 0000003cH
  002b2	5b		 pop	 ebx
  002b3	e8 00 00 00 00	 call	 @__security_check_cookie@4
  002b8	8b e5		 mov	 esp, ebp
  002ba	5d		 pop	 ebp
  002bb	c3		 ret	 0
$LN64@GetToken:
  002bc	00 00 00 00	 DD	 $LN27@GetToken
  002c0	00 00 00 00	 DD	 $LN20@GetToken
  002c4	00 00 00 00	 DD	 $LN22@GetToken
  002c8	00 00 00 00	 DD	 $LN25@GetToken
  002cc	00 00 00 00	 DD	 $LN21@GetToken
  002d0	00 00 00 00	 DD	 $LN23@GetToken
  002d4	00 00 00 00	 DD	 $LN24@GetToken
  002d8	00 00 00 00	 DD	 $LN29@GetToken
$LN58@GetToken:
  002dc	00		 DB	 0
  002dd	01		 DB	 1
  002de	07		 DB	 7
  002df	07		 DB	 7
  002e0	07		 DB	 7
  002e1	07		 DB	 7
  002e2	07		 DB	 7
  002e3	07		 DB	 7
  002e4	07		 DB	 7
  002e5	07		 DB	 7
  002e6	02		 DB	 2
  002e7	03		 DB	 3
  002e8	03		 DB	 3
  002e9	07		 DB	 7
  002ea	03		 DB	 3
  002eb	03		 DB	 3
  002ec	03		 DB	 3
  002ed	03		 DB	 3
  002ee	03		 DB	 3
  002ef	03		 DB	 3
  002f0	03		 DB	 3
  002f1	03		 DB	 3
  002f2	03		 DB	 3
  002f3	03		 DB	 3
  002f4	07		 DB	 7
  002f5	04		 DB	 4
  002f6	07		 DB	 7
  002f7	07		 DB	 7
  002f8	07		 DB	 7
  002f9	07		 DB	 7
  002fa	07		 DB	 7
  002fb	07		 DB	 7
  002fc	07		 DB	 7
  002fd	07		 DB	 7
  002fe	07		 DB	 7
  002ff	07		 DB	 7
  00300	07		 DB	 7
  00301	07		 DB	 7
  00302	07		 DB	 7
  00303	07		 DB	 7
  00304	07		 DB	 7
  00305	07		 DB	 7
  00306	07		 DB	 7
  00307	07		 DB	 7
  00308	07		 DB	 7
  00309	07		 DB	 7
  0030a	07		 DB	 7
  0030b	07		 DB	 7
  0030c	07		 DB	 7
  0030d	07		 DB	 7
  0030e	07		 DB	 7
  0030f	07		 DB	 7
  00310	07		 DB	 7
  00311	07		 DB	 7
  00312	07		 DB	 7
  00313	07		 DB	 7
  00314	07		 DB	 7
  00315	07		 DB	 7
  00316	07		 DB	 7
  00317	07		 DB	 7
  00318	07		 DB	 7
  00319	07		 DB	 7
  0031a	07		 DB	 7
  0031b	07		 DB	 7
  0031c	07		 DB	 7
  0031d	07		 DB	 7
  0031e	07		 DB	 7
  0031f	07		 DB	 7
  00320	07		 DB	 7
  00321	07		 DB	 7
  00322	07		 DB	 7
  00323	07		 DB	 7
  00324	07		 DB	 7
  00325	07		 DB	 7
  00326	07		 DB	 7
  00327	07		 DB	 7
  00328	07		 DB	 7
  00329	07		 DB	 7
  0032a	07		 DB	 7
  0032b	07		 DB	 7
  0032c	07		 DB	 7
  0032d	07		 DB	 7
  0032e	07		 DB	 7
  0032f	07		 DB	 7
  00330	07		 DB	 7
  00331	07		 DB	 7
  00332	07		 DB	 7
  00333	07		 DB	 7
  00334	07		 DB	 7
  00335	05		 DB	 5
  00336	07		 DB	 7
  00337	06		 DB	 6
?GetToken@@YA?AW4SMDToken@@XZ ENDP			; GetToken
_TEXT	ENDS
; Function compile flags: /Ogtp
;	COMDAT ??_GCRingAttackEvent@@UAEPAXI@Z
_TEXT	SEGMENT
___flags$ = 8						; size = 4
??_GCRingAttackEvent@@UAEPAXI@Z PROC			; CRingAttackEvent::`scalar deleting destructor', COMDAT
; _this$ = ecx
  00000	55		 push	 ebp
  00001	8b ec		 mov	 ebp, esp
  00003	56		 push	 esi
  00004	8b f1		 mov	 esi, ecx
  00006	e8 00 00 00 00	 call	 ??1CRingAttackEvent@@UAE@XZ ; CRingAttackEvent::~CRingAttackEvent
  0000b	f6 45 08 01	 test	 BYTE PTR ___flags$[ebp], 1
  0000f	74 0e		 je	 SHORT $LN4@scalar
  00011	68 38 01 00 00	 push	 312			; 00000138H
  00016	56		 push	 esi
  00017	e8 00 00 00 00	 call	 ??3@YAXPAXI@Z		; operator delete
  0001c	83 c4 08	 add	 esp, 8
$LN4@scalar:
  0001f	8b c6		 mov	 eax, esi
  00021	5e		 pop	 esi
  00022	5d		 pop	 ebp
  00023	c2 04 00	 ret	 4
??_GCRingAttackEvent@@UAEPAXI@Z ENDP			; CRingAttackEvent::`scalar deleting destructor'
_TEXT	ENDS
; Function compile flags: /Ogtp
; File c:\program files (x86)\microsoft visual studio 14.0\vc\include\vector
;	COMDAT ?_Orphan_range@?$vector@URINGMONSTER_EVENT_TIME@@V?$allocator@URINGMONSTER_EVENT_TIME@@@std@@@std@@IBEXPAURINGMONSTER_EVENT_TIME@@0@Z
_TEXT	SEGMENT
___formal$ = 8						; size = 4
___formal$ = 12						; size = 4
?_Orphan_range@?$vector@URINGMONSTER_EVENT_TIME@@V?$allocator@URINGMONSTER_EVENT_TIME@@@std@@@std@@IBEXPAURINGMONSTER_EVENT_TIME@@0@Z PROC ; std::vector<RINGMONSTER_EVENT_TIME,std::allocator<RINGMONSTER_EVENT_TIME> >::_Orphan_range, COMDAT
; _this$ = ecx

; 1813 : 		}

  00000	c2 08 00	 ret	 8
?_Orphan_range@?$vector@URINGMONSTER_EVENT_TIME@@V?$allocator@URINGMONSTER_EVENT_TIME@@@std@@@std@@IBEXPAURINGMONSTER_EVENT_TIME@@0@Z ENDP ; std::vector<RINGMONSTER_EVENT_TIME,std::allocator<RINGMONSTER_EVENT_TIME> >::_Orphan_range
_TEXT	ENDS
; Function compile flags: /Ogtp
; File c:\program files (x86)\microsoft visual studio 14.0\vc\include\vector
;	COMDAT ?_Xlen@?$vector@URINGMONSTER_EVENT_TIME@@V?$allocator@URINGMONSTER_EVENT_TIME@@@std@@@std@@IBEXXZ
_TEXT	SEGMENT
?_Xlen@?$vector@URINGMONSTER_EVENT_TIME@@V?$allocator@URINGMONSTER_EVENT_TIME@@@std@@@std@@IBEXXZ PROC ; std::vector<RINGMONSTER_EVENT_TIME,std::allocator<RINGMONSTER_EVENT_TIME> >::_Xlen, COMDAT
; _this$ = ecx

; 1784 : 		_Xlength_error("vector<T> too long");

  00000	68 00 00 00 00	 push	 OFFSET ??_C@_0BD@OLBABOEK@vector?$DMT?$DO?5too?5long?$AA@
  00005	e8 00 00 00 00	 call	 ?_Xlength_error@std@@YAXPBD@Z ; std::_Xlength_error
$LN4@Xlen:
$LN3@Xlen:
  0000a	cc		 int	 3
?_Xlen@?$vector@URINGMONSTER_EVENT_TIME@@V?$allocator@URINGMONSTER_EVENT_TIME@@@std@@@std@@IBEXXZ ENDP ; std::vector<RINGMONSTER_EVENT_TIME,std::allocator<RINGMONSTER_EVENT_TIME> >::_Xlen
_TEXT	ENDS
; Function compile flags: /Ogtp
; File c:\program files (x86)\microsoft visual studio 14.0\vc\include\vector
;	COMDAT ?_Tidy@?$vector@URINGMONSTER_EVENT_TIME@@V?$allocator@URINGMONSTER_EVENT_TIME@@@std@@@std@@IAEXXZ
_TEXT	SEGMENT
?_Tidy@?$vector@URINGMONSTER_EVENT_TIME@@V?$allocator@URINGMONSTER_EVENT_TIME@@@std@@@std@@IAEXXZ PROC ; std::vector<RINGMONSTER_EVENT_TIME,std::allocator<RINGMONSTER_EVENT_TIME> >::_Tidy, COMDAT
; _this$ = ecx

; 1655 : 		{	// free all storage

  00000	56		 push	 esi
  00001	8b f1		 mov	 esi, ecx

; 1656 : 		if (this->_Myfirst() != pointer())

  00003	8b 0e		 mov	 ecx, DWORD PTR [esi]
  00005	85 c9		 test	 ecx, ecx
  00007	74 25		 je	 SHORT $LN2@Tidy

; 1657 : 			{	// something to free, destroy and deallocate it
; 1658 : 			this->_Orphan_all();
; 1659 : 			_Destroy(this->_Myfirst(), this->_Mylast());
; 1660 : 			this->_Getal().deallocate(this->_Myfirst(),

  00009	8b 46 08	 mov	 eax, DWORD PTR [esi+8]
  0000c	2b c1		 sub	 eax, ecx
  0000e	c1 f8 03	 sar	 eax, 3
  00011	50		 push	 eax
  00012	51		 push	 ecx
  00013	8b ce		 mov	 ecx, esi
  00015	e8 00 00 00 00	 call	 ?deallocate@?$_Wrap_alloc@V?$allocator@URINGMONSTER_EVENT_TIME@@@std@@@std@@QAEXPAURINGMONSTER_EVENT_TIME@@I@Z ; std::_Wrap_alloc<std::allocator<RINGMONSTER_EVENT_TIME> >::deallocate

; 1661 : 				this->_Myend() - this->_Myfirst());
; 1662 : 			this->_Myfirst() = pointer();

  0001a	c7 06 00 00 00
	00		 mov	 DWORD PTR [esi], 0

; 1663 : 			this->_Mylast() = pointer();

  00020	c7 46 04 00 00
	00 00		 mov	 DWORD PTR [esi+4], 0

; 1664 : 			this->_Myend() = pointer();

  00027	c7 46 08 00 00
	00 00		 mov	 DWORD PTR [esi+8], 0
$LN2@Tidy:
  0002e	5e		 pop	 esi

; 1665 : 			}
; 1666 : 		}

  0002f	c3		 ret	 0
?_Tidy@?$vector@URINGMONSTER_EVENT_TIME@@V?$allocator@URINGMONSTER_EVENT_TIME@@@std@@@std@@IAEXXZ ENDP ; std::vector<RINGMONSTER_EVENT_TIME,std::allocator<RINGMONSTER_EVENT_TIME> >::_Tidy
_TEXT	ENDS
; Function compile flags: /Ogtp
; File c:\program files (x86)\microsoft visual studio 14.0\vc\include\vector
;	COMDAT ?_Reserve@?$vector@URINGMONSTER_EVENT_TIME@@V?$allocator@URINGMONSTER_EVENT_TIME@@@std@@@std@@IAEXI@Z
_TEXT	SEGMENT
__Count$ = 8						; size = 4
?_Reserve@?$vector@URINGMONSTER_EVENT_TIME@@V?$allocator@URINGMONSTER_EVENT_TIME@@@std@@@std@@IAEXI@Z PROC ; std::vector<RINGMONSTER_EVENT_TIME,std::allocator<RINGMONSTER_EVENT_TIME> >::_Reserve, COMDAT
; _this$ = ecx

; 1645 : 		{	// ensure room for _Count new elements, grow exponentially

  00000	55		 push	 ebp
  00001	8b ec		 mov	 ebp, esp
  00003	56		 push	 esi
  00004	8b f1		 mov	 esi, ecx

; 1646 : 		if (_Unused_capacity() < _Count)

  00006	8b 4d 08	 mov	 ecx, DWORD PTR __Count$[ebp]
  00009	57		 push	 edi

; 1043 : 		}
; 1044 : 
; 1045 : 	size_type _Unused_capacity() const _NOEXCEPT
; 1046 : 		{	// micro-optimization for capacity() - size()
; 1047 : 		return (this->_Myend() - this->_Mylast());

  0000a	8b 7e 08	 mov	 edi, DWORD PTR [esi+8]
  0000d	8b c7		 mov	 eax, edi
  0000f	8b 56 04	 mov	 edx, DWORD PTR [esi+4]
  00012	2b c2		 sub	 eax, edx
  00014	c1 f8 03	 sar	 eax, 3

; 1646 : 		if (_Unused_capacity() < _Count)

  00017	3b c1		 cmp	 eax, ecx
  00019	73 3b		 jae	 SHORT $LN2@Reserve

; 1048 : 		}
; 1049 : 
; 1050 : 	size_type _Has_unused_capacity() const _NOEXCEPT
; 1051 : 		{	// micro-optimization for capacity() != size()
; 1052 : 		return (this->_Myend() != this->_Mylast());
; 1053 : 		}
; 1054 : 
; 1055 : 	iterator begin() _NOEXCEPT
; 1056 : 		{	// return iterator for beginning of mutable sequence
; 1057 : 		return (iterator(this->_Myfirst(), &this->_Get_data()));
; 1058 : 		}
; 1059 : 
; 1060 : 	const_iterator begin() const _NOEXCEPT
; 1061 : 		{	// return iterator for beginning of nonmutable sequence
; 1062 : 		return (const_iterator(this->_Myfirst(), &this->_Get_data()));
; 1063 : 		}
; 1064 : 
; 1065 : 	iterator end() _NOEXCEPT
; 1066 : 		{	// return iterator for end of mutable sequence
; 1067 : 		return (iterator(this->_Mylast(), &this->_Get_data()));
; 1068 : 		}
; 1069 : 
; 1070 : 	const_iterator end() const _NOEXCEPT
; 1071 : 		{	// return iterator for end of nonmutable sequence
; 1072 : 		return (const_iterator(this->_Mylast(), &this->_Get_data()));
; 1073 : 		}
; 1074 : 
; 1075 : 	iterator _Make_iter(const_iterator _Where) const
; 1076 : 		{	// make iterator from const_iterator
; 1077 : 		return (iterator(_Where._Ptr, &this->_Get_data()));
; 1078 : 		}
; 1079 : 
; 1080 : 	reverse_iterator rbegin() _NOEXCEPT
; 1081 : 		{	// return iterator for beginning of reversed mutable sequence
; 1082 : 		return (reverse_iterator(end()));
; 1083 : 		}
; 1084 : 
; 1085 : 	const_reverse_iterator rbegin() const _NOEXCEPT
; 1086 : 		{	// return iterator for beginning of reversed nonmutable sequence
; 1087 : 		return (const_reverse_iterator(end()));
; 1088 : 		}
; 1089 : 
; 1090 : 	reverse_iterator rend() _NOEXCEPT
; 1091 : 		{	// return iterator for end of reversed mutable sequence
; 1092 : 		return (reverse_iterator(begin()));
; 1093 : 		}
; 1094 : 
; 1095 : 	const_reverse_iterator rend() const _NOEXCEPT
; 1096 : 		{	// return iterator for end of reversed nonmutable sequence
; 1097 : 		return (const_reverse_iterator(begin()));
; 1098 : 		}
; 1099 : 
; 1100 : 	const_iterator cbegin() const _NOEXCEPT
; 1101 : 		{	// return iterator for beginning of nonmutable sequence
; 1102 : 		return (begin());
; 1103 : 		}
; 1104 : 
; 1105 : 	const_iterator cend() const _NOEXCEPT
; 1106 : 		{	// return iterator for end of nonmutable sequence
; 1107 : 		return (end());
; 1108 : 		}
; 1109 : 
; 1110 : 	const_reverse_iterator crbegin() const _NOEXCEPT
; 1111 : 		{	// return iterator for beginning of reversed nonmutable sequence
; 1112 : 		return (rbegin());
; 1113 : 		}
; 1114 : 
; 1115 : 	const_reverse_iterator crend() const _NOEXCEPT
; 1116 : 		{	// return iterator for end of reversed nonmutable sequence
; 1117 : 		return (rend());
; 1118 : 		}
; 1119 : 
; 1120 : 	void shrink_to_fit()
; 1121 : 		{	// reduce capacity
; 1122 : 		if (_Has_unused_capacity())
; 1123 : 			{	// worth shrinking, do it
; 1124 : 			if (empty())
; 1125 : 				_Tidy();
; 1126 : 			else
; 1127 : 				_Reallocate(size());
; 1128 : 			}
; 1129 : 		}
; 1130 : 
; 1131 : 	void resize(size_type _Newsize)
; 1132 : 		{	// determine new length, padding as needed
; 1133 : 		if (_Newsize < size())
; 1134 : 			_Pop_back_n(size() - _Newsize);
; 1135 : 		else if (size() < _Newsize)
; 1136 : 			{	// pad as needed
; 1137 : 			_Reserve(_Newsize - size());
; 1138 : 			_TRY_BEGIN
; 1139 : 			_Uninitialized_default_fill_n(this->_Mylast(), _Newsize - size(),
; 1140 : 				this->_Getal());
; 1141 : 			_CATCH_ALL
; 1142 : 			_Tidy();
; 1143 : 			_RERAISE;
; 1144 : 			_CATCH_END
; 1145 : 			this->_Mylast() += _Newsize - size();
; 1146 : 			}
; 1147 : 		}
; 1148 : 
; 1149 : 	void resize(size_type _Newsize, const value_type& _Val)
; 1150 : 		{	// determine new length, padding with _Val elements as needed
; 1151 : 		if (_Newsize < size())
; 1152 : 			_Pop_back_n(size() - _Newsize);
; 1153 : 		else if (size() < _Newsize)
; 1154 : 			{	// pad as needed
; 1155 : 			const value_type *_Ptr = _STD addressof(_Val);
; 1156 : 
; 1157 : 			if (_Inside(_Ptr))
; 1158 : 				{	// padding is inside vector, recompute _Ptr after reserve
; 1159 : 				const difference_type _Idx = _Ptr
; 1160 : 					- _STD addressof(*this->_Myfirst());
; 1161 : 				_Reserve(_Newsize - size());
; 1162 : 				_Ptr = _STD addressof(*this->_Myfirst()) + _Idx;
; 1163 : 				}
; 1164 : 			else
; 1165 : 				_Reserve(_Newsize - size());
; 1166 : 
; 1167 : 			_TRY_BEGIN
; 1168 : 			_Ufill(this->_Mylast(), _Newsize - size(), _Ptr);
; 1169 : 			_CATCH_ALL
; 1170 : 			_Tidy();
; 1171 : 			_RERAISE;
; 1172 : 			_CATCH_END
; 1173 : 			this->_Mylast() += _Newsize - size();
; 1174 : 			}
; 1175 : 		}
; 1176 : 
; 1177 : 	size_type size() const _NOEXCEPT
; 1178 : 		{	// return length of sequence
; 1179 : 		return (this->_Mylast() - this->_Myfirst());

  0001b	2b 16		 sub	 edx, DWORD PTR [esi]
  0001d	53		 push	 ebx

; 1647 : 			{	// need more room, try to get it
; 1648 : 			if (max_size() - size() < _Count)

  0001e	bb ff ff ff 1f	 mov	 ebx, 536870911		; 1fffffffH

; 1048 : 		}
; 1049 : 
; 1050 : 	size_type _Has_unused_capacity() const _NOEXCEPT
; 1051 : 		{	// micro-optimization for capacity() != size()
; 1052 : 		return (this->_Myend() != this->_Mylast());
; 1053 : 		}
; 1054 : 
; 1055 : 	iterator begin() _NOEXCEPT
; 1056 : 		{	// return iterator for beginning of mutable sequence
; 1057 : 		return (iterator(this->_Myfirst(), &this->_Get_data()));
; 1058 : 		}
; 1059 : 
; 1060 : 	const_iterator begin() const _NOEXCEPT
; 1061 : 		{	// return iterator for beginning of nonmutable sequence
; 1062 : 		return (const_iterator(this->_Myfirst(), &this->_Get_data()));
; 1063 : 		}
; 1064 : 
; 1065 : 	iterator end() _NOEXCEPT
; 1066 : 		{	// return iterator for end of mutable sequence
; 1067 : 		return (iterator(this->_Mylast(), &this->_Get_data()));
; 1068 : 		}
; 1069 : 
; 1070 : 	const_iterator end() const _NOEXCEPT
; 1071 : 		{	// return iterator for end of nonmutable sequence
; 1072 : 		return (const_iterator(this->_Mylast(), &this->_Get_data()));
; 1073 : 		}
; 1074 : 
; 1075 : 	iterator _Make_iter(const_iterator _Where) const
; 1076 : 		{	// make iterator from const_iterator
; 1077 : 		return (iterator(_Where._Ptr, &this->_Get_data()));
; 1078 : 		}
; 1079 : 
; 1080 : 	reverse_iterator rbegin() _NOEXCEPT
; 1081 : 		{	// return iterator for beginning of reversed mutable sequence
; 1082 : 		return (reverse_iterator(end()));
; 1083 : 		}
; 1084 : 
; 1085 : 	const_reverse_iterator rbegin() const _NOEXCEPT
; 1086 : 		{	// return iterator for beginning of reversed nonmutable sequence
; 1087 : 		return (const_reverse_iterator(end()));
; 1088 : 		}
; 1089 : 
; 1090 : 	reverse_iterator rend() _NOEXCEPT
; 1091 : 		{	// return iterator for end of reversed mutable sequence
; 1092 : 		return (reverse_iterator(begin()));
; 1093 : 		}
; 1094 : 
; 1095 : 	const_reverse_iterator rend() const _NOEXCEPT
; 1096 : 		{	// return iterator for end of reversed nonmutable sequence
; 1097 : 		return (const_reverse_iterator(begin()));
; 1098 : 		}
; 1099 : 
; 1100 : 	const_iterator cbegin() const _NOEXCEPT
; 1101 : 		{	// return iterator for beginning of nonmutable sequence
; 1102 : 		return (begin());
; 1103 : 		}
; 1104 : 
; 1105 : 	const_iterator cend() const _NOEXCEPT
; 1106 : 		{	// return iterator for end of nonmutable sequence
; 1107 : 		return (end());
; 1108 : 		}
; 1109 : 
; 1110 : 	const_reverse_iterator crbegin() const _NOEXCEPT
; 1111 : 		{	// return iterator for beginning of reversed nonmutable sequence
; 1112 : 		return (rbegin());
; 1113 : 		}
; 1114 : 
; 1115 : 	const_reverse_iterator crend() const _NOEXCEPT
; 1116 : 		{	// return iterator for end of reversed nonmutable sequence
; 1117 : 		return (rend());
; 1118 : 		}
; 1119 : 
; 1120 : 	void shrink_to_fit()
; 1121 : 		{	// reduce capacity
; 1122 : 		if (_Has_unused_capacity())
; 1123 : 			{	// worth shrinking, do it
; 1124 : 			if (empty())
; 1125 : 				_Tidy();
; 1126 : 			else
; 1127 : 				_Reallocate(size());
; 1128 : 			}
; 1129 : 		}
; 1130 : 
; 1131 : 	void resize(size_type _Newsize)
; 1132 : 		{	// determine new length, padding as needed
; 1133 : 		if (_Newsize < size())
; 1134 : 			_Pop_back_n(size() - _Newsize);
; 1135 : 		else if (size() < _Newsize)
; 1136 : 			{	// pad as needed
; 1137 : 			_Reserve(_Newsize - size());
; 1138 : 			_TRY_BEGIN
; 1139 : 			_Uninitialized_default_fill_n(this->_Mylast(), _Newsize - size(),
; 1140 : 				this->_Getal());
; 1141 : 			_CATCH_ALL
; 1142 : 			_Tidy();
; 1143 : 			_RERAISE;
; 1144 : 			_CATCH_END
; 1145 : 			this->_Mylast() += _Newsize - size();
; 1146 : 			}
; 1147 : 		}
; 1148 : 
; 1149 : 	void resize(size_type _Newsize, const value_type& _Val)
; 1150 : 		{	// determine new length, padding with _Val elements as needed
; 1151 : 		if (_Newsize < size())
; 1152 : 			_Pop_back_n(size() - _Newsize);
; 1153 : 		else if (size() < _Newsize)
; 1154 : 			{	// pad as needed
; 1155 : 			const value_type *_Ptr = _STD addressof(_Val);
; 1156 : 
; 1157 : 			if (_Inside(_Ptr))
; 1158 : 				{	// padding is inside vector, recompute _Ptr after reserve
; 1159 : 				const difference_type _Idx = _Ptr
; 1160 : 					- _STD addressof(*this->_Myfirst());
; 1161 : 				_Reserve(_Newsize - size());
; 1162 : 				_Ptr = _STD addressof(*this->_Myfirst()) + _Idx;
; 1163 : 				}
; 1164 : 			else
; 1165 : 				_Reserve(_Newsize - size());
; 1166 : 
; 1167 : 			_TRY_BEGIN
; 1168 : 			_Ufill(this->_Mylast(), _Newsize - size(), _Ptr);
; 1169 : 			_CATCH_ALL
; 1170 : 			_Tidy();
; 1171 : 			_RERAISE;
; 1172 : 			_CATCH_END
; 1173 : 			this->_Mylast() += _Newsize - size();
; 1174 : 			}
; 1175 : 		}
; 1176 : 
; 1177 : 	size_type size() const _NOEXCEPT
; 1178 : 		{	// return length of sequence
; 1179 : 		return (this->_Mylast() - this->_Myfirst());

  00023	c1 fa 03	 sar	 edx, 3

; 1647 : 			{	// need more room, try to get it
; 1648 : 			if (max_size() - size() < _Count)

  00026	8b c3		 mov	 eax, ebx
  00028	2b c2		 sub	 eax, edx
  0002a	3b c1		 cmp	 eax, ecx
  0002c	72 2e		 jb	 SHORT $LN134@Reserve

; 1042 : 		return (this->_Myend() - this->_Myfirst());

  0002e	2b 3e		 sub	 edi, DWORD PTR [esi]

; 1649 : 				_Xlen();
; 1650 : 			_Reallocate(_Grow_to(size() + _Count));

  00030	03 d1		 add	 edx, ecx

; 1042 : 		return (this->_Myend() - this->_Myfirst());

  00032	c1 ff 03	 sar	 edi, 3

; 1180 : 		}
; 1181 : 
; 1182 : 	size_type max_size() const _NOEXCEPT
; 1183 : 		{	// return maximum possible length of sequence
; 1184 : 		return (this->_Getal().max_size());
; 1185 : 		}
; 1186 : 
; 1187 : 	bool empty() const _NOEXCEPT
; 1188 : 		{	// test if sequence is empty
; 1189 : 		return (this->_Myfirst() == this->_Mylast());
; 1190 : 		}
; 1191 : 
; 1192 : 	_Alloc get_allocator() const _NOEXCEPT
; 1193 : 		{	// return allocator object for values
; 1194 : 		return (this->_Getal());
; 1195 : 		}
; 1196 : 
; 1197 : 	const_reference at(size_type _Pos) const
; 1198 : 		{	// subscript nonmutable sequence with checking
; 1199 : 		if (size() <= _Pos)
; 1200 : 			_Xran();
; 1201 : 		return (*(this->_Myfirst() + _Pos));
; 1202 : 		}
; 1203 : 
; 1204 : 	reference at(size_type _Pos)
; 1205 : 		{	// subscript mutable sequence with checking
; 1206 : 		if (size() <= _Pos)
; 1207 : 			_Xran();
; 1208 : 		return (*(this->_Myfirst() + _Pos));
; 1209 : 		}
; 1210 : 
; 1211 : 	const_reference operator[](size_type _Pos) const
; 1212 : 		{	// subscript nonmutable sequence
; 1213 :  #if _ITERATOR_DEBUG_LEVEL == 2
; 1214 : 		if (size() <= _Pos)
; 1215 : 			{	// report error
; 1216 : 			_DEBUG_ERROR("vector subscript out of range");
; 1217 : 			_SCL_SECURE_OUT_OF_RANGE;
; 1218 : 			}
; 1219 : 
; 1220 :  #elif _ITERATOR_DEBUG_LEVEL == 1
; 1221 : 		_SCL_SECURE_VALIDATE_RANGE(_Pos < size());
; 1222 :  #endif /* _ITERATOR_DEBUG_LEVEL */
; 1223 : 
; 1224 : 		return (*(this->_Myfirst() + _Pos));
; 1225 : 		}
; 1226 : 
; 1227 : 	reference operator[](size_type _Pos)
; 1228 : 		{	// subscript mutable sequence
; 1229 :  #if _ITERATOR_DEBUG_LEVEL == 2
; 1230 : 		if (size() <= _Pos)
; 1231 : 			{	// report error
; 1232 : 			_DEBUG_ERROR("vector subscript out of range");
; 1233 : 			_SCL_SECURE_OUT_OF_RANGE;
; 1234 : 			}
; 1235 : 
; 1236 :  #elif _ITERATOR_DEBUG_LEVEL == 1
; 1237 : 		_SCL_SECURE_VALIDATE_RANGE(_Pos < size());
; 1238 :  #endif /* _ITERATOR_DEBUG_LEVEL */
; 1239 : 
; 1240 : 		return (*(this->_Myfirst() + _Pos));
; 1241 : 		}
; 1242 : 
; 1243 : 	pointer data() _NOEXCEPT
; 1244 : 		{	// return address of first element
; 1245 : 		return (this->_Myfirst());
; 1246 : 		}
; 1247 : 
; 1248 : 	const_pointer data() const _NOEXCEPT
; 1249 : 		{	// return address of first element
; 1250 : 		return (this->_Myfirst());
; 1251 : 		}
; 1252 : 
; 1253 : 	reference front()
; 1254 : 		{	// return first element of mutable sequence
; 1255 : 		return (*begin());
; 1256 : 		}
; 1257 : 
; 1258 : 	const_reference front() const
; 1259 : 		{	// return first element of nonmutable sequence
; 1260 : 		return (*begin());
; 1261 : 		}
; 1262 : 
; 1263 : 	reference back()
; 1264 : 		{	// return last element of mutable sequence
; 1265 : 		return (*(end() - 1));
; 1266 : 		}
; 1267 : 
; 1268 : 	const_reference back() const
; 1269 : 		{	// return last element of nonmutable sequence
; 1270 : 		return (*(end() - 1));
; 1271 : 		}
; 1272 : 
; 1273 : 	void push_back(const value_type& _Val)
; 1274 : 		{	// insert element at end
; 1275 : 		if (_Inside(_STD addressof(_Val)))
; 1276 : 			{	// push back an element
; 1277 : 			size_type _Idx = _STD addressof(_Val) - this->_Myfirst();
; 1278 : 			if (this->_Mylast() == this->_Myend())
; 1279 : 				_Reserve(1);
; 1280 : 			_Orphan_range(this->_Mylast(), this->_Mylast());
; 1281 : 			this->_Getal().construct(this->_Mylast(),
; 1282 : 				this->_Myfirst()[_Idx]);
; 1283 : 			++this->_Mylast();
; 1284 : 			}
; 1285 : 		else
; 1286 : 			{	// push back a non-element
; 1287 : 			if (this->_Mylast() == this->_Myend())
; 1288 : 				_Reserve(1);
; 1289 : 			_Orphan_range(this->_Mylast(), this->_Mylast());
; 1290 : 			this->_Getal().construct(this->_Mylast(),
; 1291 : 				_Val);
; 1292 : 			++this->_Mylast();
; 1293 : 			}
; 1294 : 		}
; 1295 : 
; 1296 :  #if _ITERATOR_DEBUG_LEVEL == 2
; 1297 : 	void pop_back()
; 1298 : 		{	// erase element at end
; 1299 : 		if (empty())
; 1300 : 			_DEBUG_ERROR("vector empty before pop");
; 1301 : 		else
; 1302 : 			{	// erase last element
; 1303 : 			_Orphan_range(this->_Mylast() - 1, this->_Mylast());
; 1304 : 			this->_Getal().destroy(this->_Mylast() - 1);
; 1305 : 			--this->_Mylast();
; 1306 : 			}
; 1307 : 		}
; 1308 : 
; 1309 :  #else /* _ITERATOR_DEBUG_LEVEL == 2 */
; 1310 : 	void pop_back()
; 1311 : 		{	// erase element at end
; 1312 : 		this->_Getal().destroy(this->_Mylast() - 1);
; 1313 : 		--this->_Mylast();
; 1314 : 		}
; 1315 :  #endif /* _ITERATOR_DEBUG_LEVEL == 2 */
; 1316 : 
; 1317 : 	template<class _Iter>
; 1318 : 		typename enable_if<_Is_iterator<_Iter>::value,
; 1319 : 			void>::type
; 1320 : 		assign(_Iter _First, _Iter _Last)
; 1321 : 		{	// assign [_First, _Last)
; 1322 : 		clear();
; 1323 : 		_Assign(_First, _Last, _Iter_cat(_First));
; 1324 : 		}
; 1325 : 
; 1326 : 	template<class _Iter>
; 1327 : 		void _Assign(_Iter _First, _Iter _Last,
; 1328 : 			input_iterator_tag)
; 1329 : 		{	// assign [_First, _Last), input iterators
; 1330 : 		for (; _First != _Last; ++_First)
; 1331 : 			emplace_back(*_First);
; 1332 : 		}
; 1333 : 
; 1334 : 	template<class _Iter>
; 1335 : 		void _Assign(_Iter _First, _Iter _Last,
; 1336 : 			forward_iterator_tag)
; 1337 : 		{	// assign [_First, _Last), forward iterators
; 1338 : 		size_type _Newsize = _STD distance(_First, _Last);
; 1339 : 
; 1340 : 		if (capacity() < _Newsize)
; 1341 : 			{	// need more room, try to get it
; 1342 : 			size_type _Newcapacity = _Grow_to(_Newsize);
; 1343 : 			_Tidy();
; 1344 : 			_Buy(_Newcapacity);
; 1345 : 			}
; 1346 : 
; 1347 : 		this->_Mylast() = _Ucopy(_First, _Last, this->_Myfirst());
; 1348 : 		}
; 1349 : 
; 1350 : 	void assign(size_type _Count, const value_type& _Val)
; 1351 : 		{	// assign _Count * _Val
; 1352 : 		clear();
; 1353 : 		insert(begin(), _Count, _Val);
; 1354 : 		}
; 1355 : 
; 1356 : 	iterator insert(const_iterator _Where, const _Ty& _Val)
; 1357 : 		{	// insert _Val at _Where
; 1358 : 		return (_Insert_n(_Where, (size_type)1, _Val));
; 1359 : 		}
; 1360 : 
; 1361 : 	iterator insert(const_iterator _Where, size_type _Count,
; 1362 : 		const _Ty& _Val)
; 1363 : 		{	// insert _Count * _Val at _Where
; 1364 : 		return (_Insert_n(_Where, _Count, _Val));
; 1365 : 		}
; 1366 : 
; 1367 : 	template<class _Iter>
; 1368 : 		typename enable_if<_Is_iterator<_Iter>::value,
; 1369 : 			iterator>::type
; 1370 : 		insert(const_iterator _Where, _Iter _First, _Iter _Last)
; 1371 : 		{	// insert [_First, _Last) at _Where
; 1372 : 		size_type _Off = _VIPTR(_Where) - this->_Myfirst();
; 1373 : 		_Insert(_Where, _First, _Last, _Iter_cat(_First));
; 1374 : 		return (begin() + _Off);
; 1375 : 		}
; 1376 : 
; 1377 : 	template<class _Iter>
; 1378 : 		void _Insert(const_iterator _Where,
; 1379 : 			_Iter _First, _Iter _Last,
; 1380 : 				input_iterator_tag)
; 1381 : 		{	// insert [_First, _Last) at _Where, input iterators
; 1382 : 		size_type _Off = _VIPTR(_Where) - this->_Myfirst();
; 1383 : 
; 1384 :  #if _ITERATOR_DEBUG_LEVEL == 2
; 1385 : 		if (size() < _Off)
; 1386 : 			_DEBUG_ERROR("vector insert iterator outside range");
; 1387 :  #endif /* _ITERATOR_DEBUG_LEVEL == 2 */
; 1388 : 
; 1389 : 		if (_First != _Last)
; 1390 : 			{	// worth doing, gather at end and rotate into place
; 1391 : 			size_type _Oldsize = size();
; 1392 : 
; 1393 : 			_TRY_BEGIN
; 1394 : 			for (; _First != _Last; ++_First)
; 1395 : 				push_back(*_First);	// append
; 1396 : 
; 1397 : 			_CATCH_ALL
; 1398 : 			erase(begin() + _Oldsize, end());
; 1399 : 			_RERAISE;
; 1400 : 			_CATCH_END
; 1401 : 
; 1402 : 			_STD rotate(begin() + _Off, begin() + _Oldsize, end());
; 1403 : 			}
; 1404 : 		}
; 1405 : 
; 1406 : 	template<class _Iter>
; 1407 : 		void _Insert(const_iterator _Where,
; 1408 : 			_Iter _First, _Iter _Last,
; 1409 : 				forward_iterator_tag)
; 1410 : 		{	// insert [_First, _Last) at _Where, forward iterators
; 1411 :  #if _ITERATOR_DEBUG_LEVEL == 2
; 1412 : 		if (_VICONT(_Where) != &this->_Get_data()
; 1413 : 			|| _VIPTR(_Where) < this->_Myfirst()
; 1414 : 			|| this->_Mylast() < _VIPTR(_Where))
; 1415 : 			_DEBUG_ERROR("vector insert iterator outside range");
; 1416 : 		_DEBUG_RANGE(_First, _Last);
; 1417 :  #endif /* _ITERATOR_DEBUG_LEVEL == 2 */
; 1418 : 
; 1419 : 		size_type _Count = 0;
; 1420 : 		_Distance(_First, _Last, _Count);
; 1421 : 
; 1422 : 		if (_Count == 0)
; 1423 : 			;
; 1424 : 		else if (_Unused_capacity() < _Count)
; 1425 : 			{	// not enough room, reallocate
; 1426 : 			if (max_size() - size() < _Count)
; 1427 : 				_Xlen();	// result too long
; 1428 : 
; 1429 : 			size_type _Capacity = _Grow_to(size() + _Count);
; 1430 : 			pointer _Newvec = this->_Getal().allocate(_Capacity);
; 1431 : 			pointer _Ptr = _Newvec;
; 1432 : 
; 1433 : 			_TRY_BEGIN
; 1434 : 			_Ptr = _Umove(this->_Myfirst(), _VIPTR(_Where),
; 1435 : 				_Newvec);	// copy prefix
; 1436 : 			_Ptr = _Ucopy(_First, _Last, _Ptr);	// add new stuff
; 1437 : 			_Umove(_VIPTR(_Where), this->_Mylast(),
; 1438 : 				_Ptr);	// copy suffix
; 1439 : 			_CATCH_ALL
; 1440 : 			_Destroy(_Newvec, _Ptr);
; 1441 : 			this->_Getal().deallocate(_Newvec, _Capacity);
; 1442 : 			_RERAISE;
; 1443 : 			_CATCH_END
; 1444 : 
; 1445 : 			_Count += size();
; 1446 : 			if (this->_Myfirst() != pointer())
; 1447 : 				{	// destroy and deallocate old array
; 1448 : 				_Destroy(this->_Myfirst(), this->_Mylast());
; 1449 : 				this->_Getal().deallocate(this->_Myfirst(),
; 1450 : 					this->_Myend() - this->_Myfirst());
; 1451 : 				}
; 1452 : 
; 1453 : 			this->_Orphan_all();
; 1454 : 			this->_Myend() = _Newvec + _Capacity;
; 1455 : 			this->_Mylast() = _Newvec + _Count;
; 1456 : 			this->_Myfirst() = _Newvec;
; 1457 : 			}
; 1458 : 		else
; 1459 : 			{	// new stuff fits, append and rotate into place
; 1460 : 			_Ucopy(_First, _Last, this->_Mylast());
; 1461 : 			_STD rotate(_VIPTR(_Where), this->_Mylast(),
; 1462 : 				this->_Mylast() + _Count);
; 1463 : 			this->_Mylast() += _Count;
; 1464 : 			_Orphan_range(_VIPTR(_Where), this->_Mylast());
; 1465 : 			}
; 1466 : 		}
; 1467 : 
; 1468 :  #if _ITERATOR_DEBUG_LEVEL == 2
; 1469 : 	iterator erase(const_iterator _Where)
; 1470 : 		{	// erase element at where
; 1471 : 		if (_VICONT(_Where) != &this->_Get_data()
; 1472 : 			|| _VIPTR(_Where) < this->_Myfirst()
; 1473 : 			|| this->_Mylast() <= _VIPTR(_Where))
; 1474 : 			_DEBUG_ERROR("vector erase iterator outside range");
; 1475 : 		_Move(_VIPTR(_Where) + 1, this->_Mylast(), _VIPTR(_Where));
; 1476 : 		_Destroy(this->_Mylast() - 1, this->_Mylast());
; 1477 : 		_Orphan_range(_VIPTR(_Where), this->_Mylast());
; 1478 : 		--this->_Mylast();
; 1479 : 		return (_Make_iter(_Where));
; 1480 : 		}
; 1481 : 
; 1482 :  #else /* _ITERATOR_DEBUG_LEVEL == 2 */
; 1483 : 	iterator erase(const_iterator _Where)
; 1484 : 		{	// erase element at where
; 1485 : 		_Move(_VIPTR(_Where) + 1, this->_Mylast(),
; 1486 : 			_VIPTR(_Where));
; 1487 : 		_Destroy(this->_Mylast() - 1, this->_Mylast());
; 1488 : 		--this->_Mylast();
; 1489 : 		return (_Make_iter(_Where));
; 1490 : 		}
; 1491 :  #endif /* _ITERATOR_DEBUG_LEVEL == 2 */
; 1492 : 
; 1493 : 	iterator erase(const_iterator _First_arg,
; 1494 : 		const_iterator _Last_arg)
; 1495 : 		{	// erase [_First, _Last)
; 1496 : 		if (_First_arg == begin() && _Last_arg == end())
; 1497 : 			clear();
; 1498 : 		else if (_First_arg != _Last_arg)
; 1499 : 			{	// clear partial
; 1500 : 			iterator _First = _Make_iter(_First_arg);
; 1501 : 			iterator _Last = _Make_iter(_Last_arg);
; 1502 : 
; 1503 : 			if (_First != _Last)
; 1504 : 				{	// worth doing, copy down over hole
; 1505 :  #if _ITERATOR_DEBUG_LEVEL == 2
; 1506 : 				if (_Last < _First || _VICONT(_First) != &this->_Get_data()
; 1507 : 					|| _VIPTR(_First) < this->_Myfirst()
; 1508 : 					|| this->_Mylast() < _VIPTR(_Last))
; 1509 : 					_DEBUG_ERROR("vector erase iterator outside range");
; 1510 : 				pointer _Ptr = _Move(_VIPTR(_Last), this->_Mylast(),
; 1511 : 					_VIPTR(_First));
; 1512 : 				_Orphan_range(_VIPTR(_First), this->_Mylast());
; 1513 : 
; 1514 :  #else /* _ITERATOR_DEBUG_LEVEL == 2 */
; 1515 : 				pointer _Ptr = _Move(_VIPTR(_Last), this->_Mylast(),
; 1516 : 					_VIPTR(_First));
; 1517 :  #endif /* _ITERATOR_DEBUG_LEVEL == 2 */
; 1518 : 
; 1519 : 				_Destroy(_Ptr, this->_Mylast());
; 1520 : 				this->_Mylast() = _Ptr;
; 1521 : 				}
; 1522 : 			}
; 1523 : 		return (_Make_iter(_First_arg));
; 1524 : 		}
; 1525 : 
; 1526 : 	void _Pop_back_n(size_type _Count)
; 1527 : 		{	// erase _Count elements at end
; 1528 : 		pointer _Ptr = this->_Mylast() - _Count;
; 1529 : 
; 1530 :  #if _ITERATOR_DEBUG_LEVEL == 2
; 1531 : 		_Orphan_range(_Ptr, this->_Mylast());
; 1532 :  #endif /* _ITERATOR_DEBUG_LEVEL == 2 */
; 1533 : 
; 1534 : 		_Destroy(_Ptr, this->_Mylast());
; 1535 : 		this->_Mylast() = _Ptr;
; 1536 : 		}
; 1537 : 
; 1538 : 	void clear() _NOEXCEPT
; 1539 : 		{	// erase all
; 1540 : 		this->_Orphan_all();
; 1541 : 		_Destroy(this->_Myfirst(), this->_Mylast());
; 1542 : 		this->_Mylast() = this->_Myfirst();
; 1543 : 		}
; 1544 : 
; 1545 : 	void swap(_Myt& _Right)
; 1546 : 		_NOEXCEPT_OP(_Alty::propagate_on_container_swap::value
; 1547 : 			|| _Alty::is_always_equal::value)
; 1548 : 		{	// exchange contents with _Right
; 1549 : 		if (this == &_Right)
; 1550 : 			;	// same object, do nothing
; 1551 : 		else if (this->_Getal() == _Right._Getal())
; 1552 : 			{	// same allocator, swap control information
; 1553 : 			this->_Swap_all(_Right);
; 1554 : 			_Swap_adl(this->_Myfirst(), _Right._Myfirst());
; 1555 : 			_Swap_adl(this->_Mylast(), _Right._Mylast());
; 1556 : 			_Swap_adl(this->_Myend(), _Right._Myend());
; 1557 : 			}
; 1558 : 
; 1559 : 		else if (_Alty::propagate_on_container_swap::value)
; 1560 : 			{	// swap allocators and control information
; 1561 : 			this->_Swap_alloc(_Right);
; 1562 : 			_Swap_adl(this->_Myfirst(), _Right._Myfirst());
; 1563 : 			_Swap_adl(this->_Mylast(), _Right._Mylast());
; 1564 : 			_Swap_adl(this->_Myend(), _Right._Myend());
; 1565 : 			}
; 1566 : 
; 1567 : 		else
; 1568 : 			{	// containers are incompatible
; 1569 :  #if _ITERATOR_DEBUG_LEVEL == 2
; 1570 : 			_DEBUG_ERROR("vector containers incompatible for swap");
; 1571 : 
; 1572 :  #else /* ITERATOR_DEBUG_LEVEL == 2 */
; 1573 : 			_XSTD terminate();
; 1574 :  #endif /* ITERATOR_DEBUG_LEVEL == 2 */
; 1575 : 			}
; 1576 : 		}
; 1577 : 
; 1578 : protected:
; 1579 : 	bool _Buy(size_type _Capacity)
; 1580 : 		{	// allocate array with _Capacity elements
; 1581 : 		this->_Myfirst() = pointer();
; 1582 : 		this->_Mylast() = pointer();
; 1583 : 		this->_Myend() = pointer();
; 1584 : 
; 1585 : 		if (_Capacity == 0)
; 1586 : 			return (false);
; 1587 : 		else if (max_size() < _Capacity)
; 1588 : 			_Xlen();	// result too long
; 1589 : 		else
; 1590 : 			{	// nonempty array, allocate storage
; 1591 : 			this->_Myfirst() = this->_Getal().allocate(_Capacity);
; 1592 : 			this->_Mylast() = this->_Myfirst();
; 1593 : 			this->_Myend() = this->_Myfirst() + _Capacity;
; 1594 : 			}
; 1595 : 		return (true);
; 1596 : 		}
; 1597 : 
; 1598 : 	void _Destroy(pointer _First, pointer _Last)
; 1599 : 		{	// destroy [_First, _Last) using allocator
; 1600 : 		_Destroy_range(_First, _Last, this->_Getal());
; 1601 : 		}
; 1602 : 
; 1603 : 	size_type _Grow_to(size_type _Count) const
; 1604 : 		{	// grow by 50% or at least to _Count
; 1605 : 		size_type _Capacity = capacity();
; 1606 : 
; 1607 : 		_Capacity = max_size() - _Capacity / 2 < _Capacity

  00035	8b c7		 mov	 eax, edi
  00037	d1 e8		 shr	 eax, 1
  00039	2b d8		 sub	 ebx, eax
  0003b	3b df		 cmp	 ebx, edi
  0003d	8d 0c 38	 lea	 ecx, DWORD PTR [eax+edi]
  00040	b8 00 00 00 00	 mov	 eax, 0
  00045	0f 42 c8	 cmovb	 ecx, eax

; 1608 : 			? 0 : _Capacity + _Capacity / 2;	// try to grow by 50%
; 1609 : 		if (_Capacity < _Count)

  00048	3b ca		 cmp	 ecx, edx
  0004a	0f 42 ca	 cmovb	 ecx, edx

; 1649 : 				_Xlen();
; 1650 : 			_Reallocate(_Grow_to(size() + _Count));

  0004d	51		 push	 ecx
  0004e	8b ce		 mov	 ecx, esi
  00050	e8 00 00 00 00	 call	 ?_Reallocate@?$vector@URINGMONSTER_EVENT_TIME@@V?$allocator@URINGMONSTER_EVENT_TIME@@@std@@@std@@IAEXI@Z ; std::vector<RINGMONSTER_EVENT_TIME,std::allocator<RINGMONSTER_EVENT_TIME> >::_Reallocate
  00055	5b		 pop	 ebx
$LN2@Reserve:
  00056	5f		 pop	 edi
  00057	5e		 pop	 esi

; 1651 : 			}
; 1652 : 		}

  00058	5d		 pop	 ebp
  00059	c2 04 00	 ret	 4
$LN134@Reserve:

; 1653 : 
; 1654 : 	void _Tidy()
; 1655 : 		{	// free all storage
; 1656 : 		if (this->_Myfirst() != pointer())
; 1657 : 			{	// something to free, destroy and deallocate it
; 1658 : 			this->_Orphan_all();
; 1659 : 			_Destroy(this->_Myfirst(), this->_Mylast());
; 1660 : 			this->_Getal().deallocate(this->_Myfirst(),
; 1661 : 				this->_Myend() - this->_Myfirst());
; 1662 : 			this->_Myfirst() = pointer();
; 1663 : 			this->_Mylast() = pointer();
; 1664 : 			this->_Myend() = pointer();
; 1665 : 			}
; 1666 : 		}
; 1667 : 
; 1668 : 	template<class _Iter>
; 1669 : 		pointer _Ucopy(_Iter _First, _Iter _Last, pointer _Ptr)
; 1670 : 		{	// copy initializing [_First, _Last), using allocator
; 1671 : 		return (_Uninitialized_copy(_First, _Last,
; 1672 : 			_Ptr, this->_Getal()));
; 1673 : 		}
; 1674 : 
; 1675 : 	template<class _Iter>
; 1676 : 		pointer _Umove(_Iter _First, _Iter _Last, pointer _Ptr)
; 1677 : 		{	// move initializing [_First, _Last), using allocator
; 1678 : 		return (_Uninitialized_move(_First, _Last,
; 1679 : 			_Ptr, this->_Getal()));
; 1680 : 		}
; 1681 : 
; 1682 : 	iterator _Insert_n(const_iterator _Where,
; 1683 : 		size_type _Count, const value_type& _Val)
; 1684 : 		{	// insert _Count * _Val at _Where
; 1685 :  #if _ITERATOR_DEBUG_LEVEL == 2
; 1686 : 		if (_VICONT(_Where) != &this->_Get_data()
; 1687 : 			|| _VIPTR(_Where) < this->_Myfirst()
; 1688 : 			|| this->_Mylast() < _VIPTR(_Where))
; 1689 : 			_DEBUG_ERROR("vector insert iterator outside range");
; 1690 :  #endif /* _ITERATOR_DEBUG_LEVEL == 2 */
; 1691 : 
; 1692 : 		size_type _Off = _VIPTR(_Where) - this->_Myfirst();
; 1693 : 		if (_Count == 0)
; 1694 : 			;
; 1695 : 		else if (_Unused_capacity() < _Count)
; 1696 : 			{	// not enough room, reallocate
; 1697 : 			if (max_size() - size() < _Count)
; 1698 : 				_Xlen();	// result too long
; 1699 : 
; 1700 : 			size_type _Capacity = _Grow_to(size() + _Count);
; 1701 : 			pointer _Newvec = this->_Getal().allocate(_Capacity);
; 1702 : 			size_type _Whereoff = _VIPTR(_Where) - this->_Myfirst();
; 1703 : 			int _Ncopied = 0;
; 1704 : 
; 1705 : 			_TRY_BEGIN
; 1706 : 			_Ufill(_Newvec + _Whereoff, _Count,
; 1707 : 				_STD addressof(_Val));	// add new stuff
; 1708 : 			++_Ncopied;
; 1709 : 			_Umove(this->_Myfirst(), _VIPTR(_Where),
; 1710 : 				_Newvec);	// copy prefix
; 1711 : 			++_Ncopied;
; 1712 : 			_Umove(_VIPTR(_Where), this->_Mylast(),
; 1713 : 				_Newvec + (_Whereoff + _Count));	// copy suffix
; 1714 : 			_CATCH_ALL
; 1715 : 			if (1 < _Ncopied)
; 1716 : 				_Destroy(_Newvec, _Newvec + _Whereoff);
; 1717 : 			if (0 < _Ncopied)
; 1718 : 				_Destroy(_Newvec + _Whereoff, _Newvec + _Whereoff + _Count);
; 1719 : 			this->_Getal().deallocate(_Newvec, _Capacity);
; 1720 : 			_RERAISE;
; 1721 : 			_CATCH_END
; 1722 : 
; 1723 : 			_Count += size();
; 1724 : 			if (this->_Myfirst() != pointer())
; 1725 : 				{	// destroy and deallocate old array
; 1726 : 				_Destroy(this->_Myfirst(), this->_Mylast());
; 1727 : 				this->_Getal().deallocate(this->_Myfirst(),
; 1728 : 					this->_Myend() - this->_Myfirst());
; 1729 : 				}
; 1730 : 
; 1731 : 			this->_Orphan_all();
; 1732 : 			this->_Myend() = _Newvec + _Capacity;
; 1733 : 			this->_Mylast() = _Newvec + _Count;
; 1734 : 			this->_Myfirst() = _Newvec;
; 1735 : 			}
; 1736 : 		else if ((size_type)(this->_Mylast() - _VIPTR(_Where))
; 1737 : 			< _Count)
; 1738 : 			{	// new stuff spills off end
; 1739 : 			value_type _Tmp = _Val;	// in case _Val is in sequence
; 1740 : 
; 1741 : 			_Umove(_VIPTR(_Where), this->_Mylast(),
; 1742 : 				_VIPTR(_Where) + _Count);	// copy suffix
; 1743 : 
; 1744 : 			_TRY_BEGIN
; 1745 : 			_Ufill(this->_Mylast(),
; 1746 : 				_Count - (this->_Mylast() - _VIPTR(_Where)),
; 1747 : 				_STD addressof(_Tmp));	// insert new stuff off end
; 1748 : 			_CATCH_ALL
; 1749 : 			_Destroy(_VIPTR(_Where) + _Count,
; 1750 : 				this->_Mylast() + _Count);
; 1751 : 			_RERAISE;
; 1752 : 			_CATCH_END
; 1753 : 
; 1754 : 			this->_Mylast() += _Count;
; 1755 : 			_Orphan_range(_VIPTR(_Where), this->_Mylast());
; 1756 : 			_STD fill(_VIPTR(_Where), this->_Mylast() - _Count,
; 1757 : 				_Tmp);	// insert up to old end
; 1758 : 			}
; 1759 : 		else
; 1760 : 			{	// new stuff can all be assigned
; 1761 : 			value_type _Tmp = _Val;	// in case _Val is in sequence
; 1762 : 
; 1763 : 			pointer _Oldend = this->_Mylast();
; 1764 : 			this->_Mylast() = _Umove(_Oldend - _Count, _Oldend,
; 1765 : 				this->_Mylast());	// copy suffix
; 1766 : 
; 1767 : 			_Orphan_range(_VIPTR(_Where), this->_Mylast());
; 1768 : 			_Move_backward(_VIPTR(_Where), _Oldend - _Count,
; 1769 : 				_Oldend);	// copy hole
; 1770 : 			_STD fill(_VIPTR(_Where),
; 1771 : 				_VIPTR(_Where) + _Count, _Tmp);	// insert into hole
; 1772 : 			}
; 1773 : 		return (begin() + _Off);
; 1774 : 		}
; 1775 : 
; 1776 : 	pointer _Ufill(pointer _Ptr, size_type _Count, const value_type *_Pval)
; 1777 : 		{	// copy initializing _Count * _Val, using allocator
; 1778 : 		_Uninitialized_fill_n(_Ptr, _Count, _Pval, this->_Getal());
; 1779 : 		return (_Ptr + _Count);
; 1780 : 		}
; 1781 : 
; 1782 : 	[[noreturn]] void _Xlen() const
; 1783 : 		{	// report a length_error
; 1784 : 		_Xlength_error("vector<T> too long");

  0005c	68 00 00 00 00	 push	 OFFSET ??_C@_0BD@OLBABOEK@vector?$DMT?$DO?5too?5long?$AA@
  00061	e8 00 00 00 00	 call	 ?_Xlength_error@std@@YAXPBD@Z ; std::_Xlength_error
$LN136@Reserve:
$LN133@Reserve:
  00066	cc		 int	 3
?_Reserve@?$vector@URINGMONSTER_EVENT_TIME@@V?$allocator@URINGMONSTER_EVENT_TIME@@@std@@@std@@IAEXI@Z ENDP ; std::vector<RINGMONSTER_EVENT_TIME,std::allocator<RINGMONSTER_EVENT_TIME> >::_Reserve
_TEXT	ENDS
; Function compile flags: /Ogtp
; File c:\program files (x86)\microsoft visual studio 14.0\vc\include\vector
; File c:\program files (x86)\microsoft visual studio 14.0\vc\include\xmemory0
; File c:\program files (x86)\microsoft visual studio 14.0\vc\include\xmemory
; File c:\program files (x86)\microsoft visual studio 14.0\vc\include\vector
; File c:\program files (x86)\microsoft visual studio 14.0\vc\include\xmemory
; File c:\program files (x86)\microsoft visual studio 14.0\vc\include\vector
; File c:\program files (x86)\microsoft visual studio 14.0\vc\include\xmemory
; File c:\program files (x86)\microsoft visual studio 14.0\vc\include\vector
; File c:\program files (x86)\microsoft visual studio 14.0\vc\include\xmemory
; File c:\program files (x86)\microsoft visual studio 14.0\vc\include\vector
;	COMDAT ?_Reallocate@?$vector@URINGMONSTER_EVENT_TIME@@V?$allocator@URINGMONSTER_EVENT_TIME@@@std@@@std@@IAEXI@Z
_TEXT	SEGMENT
_this$ = -24						; size = 4
__Ptr$ = -20						; size = 4
__$EHRec$ = -16						; size = 16
__Cat$2 = 8						; size = 1
__Count$ = 8						; size = 4
?_Reallocate@?$vector@URINGMONSTER_EVENT_TIME@@V?$allocator@URINGMONSTER_EVENT_TIME@@@std@@@std@@IAEXI@Z PROC ; std::vector<RINGMONSTER_EVENT_TIME,std::allocator<RINGMONSTER_EVENT_TIME> >::_Reallocate, COMDAT
; _this$ = ecx

; 1620 : 		{	// move to array of exactly _Count elements

  00000	55		 push	 ebp
  00001	8b ec		 mov	 ebp, esp
  00003	6a ff		 push	 -1
  00005	68 00 00 00 00	 push	 __ehhandler$?_Reallocate@?$vector@URINGMONSTER_EVENT_TIME@@V?$allocator@URINGMONSTER_EVENT_TIME@@@std@@@std@@IAEXI@Z
  0000a	64 a1 00 00 00
	00		 mov	 eax, DWORD PTR fs:0
  00010	50		 push	 eax
  00011	83 ec 0c	 sub	 esp, 12			; 0000000cH
  00014	53		 push	 ebx
  00015	56		 push	 esi
  00016	57		 push	 edi
  00017	a1 00 00 00 00	 mov	 eax, DWORD PTR ___security_cookie
  0001c	33 c5		 xor	 eax, ebp
  0001e	50		 push	 eax
  0001f	8d 45 f4	 lea	 eax, DWORD PTR __$EHRec$[ebp+4]
  00022	64 a3 00 00 00
	00		 mov	 DWORD PTR fs:0, eax
  00028	89 65 f0	 mov	 DWORD PTR __$EHRec$[ebp], esp
  0002b	8b f1		 mov	 esi, ecx
  0002d	89 75 e8	 mov	 DWORD PTR _this$[ebp], esi
; File c:\program files (x86)\microsoft visual studio 14.0\vc\include\xmemory0

; 898  : 		return (_Mybase::allocate(_Count));

  00030	ff 75 08	 push	 DWORD PTR __Count$[ebp]
  00033	e8 00 00 00 00	 call	 ?allocate@?$allocator@URINGMONSTER_EVENT_TIME@@@std@@QAEPAURINGMONSTER_EVENT_TIME@@I@Z ; std::allocator<RINGMONSTER_EVENT_TIME>::allocate
; File c:\program files (x86)\microsoft visual studio 14.0\vc\include\xmemory

; 481  : 	return (_Uninit_move(_First, _Last, _Dest, _Al,

  00038	ff 75 08	 push	 DWORD PTR __Cat$2[ebp]
; File c:\program files (x86)\microsoft visual studio 14.0\vc\include\vector

; 1621 : 		pointer _Ptr = this->_Getal().allocate(_Count);

  0003b	8b f8		 mov	 edi, eax

; 1622 : 
; 1623 : 		_TRY_BEGIN

  0003d	c7 45 fc 00 00
	00 00		 mov	 DWORD PTR __$EHRec$[ebp+12], 0
; File c:\program files (x86)\microsoft visual studio 14.0\vc\include\xmemory

; 481  : 	return (_Uninit_move(_First, _Last, _Dest, _Al,

  00044	6a 00		 push	 0
  00046	56		 push	 esi
  00047	57		 push	 edi
  00048	ff 76 04	 push	 DWORD PTR [esi+4]
; File c:\program files (x86)\microsoft visual studio 14.0\vc\include\vector

; 1621 : 		pointer _Ptr = this->_Getal().allocate(_Count);

  0004b	89 7d ec	 mov	 DWORD PTR __Ptr$[ebp], edi
; File c:\program files (x86)\microsoft visual studio 14.0\vc\include\xmemory

; 481  : 	return (_Uninit_move(_First, _Last, _Dest, _Al,

  0004e	ff 36		 push	 DWORD PTR [esi]
  00050	e8 00 00 00 00	 call	 ??$_Uninit_move@PAURINGMONSTER_EVENT_TIME@@PAU1@V?$allocator@URINGMONSTER_EVENT_TIME@@@std@@U1@@std@@YAPAURINGMONSTER_EVENT_TIME@@PAU1@00AAU?$_Wrap_alloc@V?$allocator@URINGMONSTER_EVENT_TIME@@@std@@@0@0U_Nonscalar_ptr_iterator_tag@0@@Z ; std::_Uninit_move<RINGMONSTER_EVENT_TIME *,RINGMONSTER_EVENT_TIME *,std::allocator<RINGMONSTER_EVENT_TIME>,RINGMONSTER_EVENT_TIME>
; File c:\program files (x86)\microsoft visual studio 14.0\vc\include\vector

; 1179 : 		return (this->_Mylast() - this->_Myfirst());

  00055	8b 0e		 mov	 ecx, DWORD PTR [esi]
; File c:\program files (x86)\microsoft visual studio 14.0\vc\include\xmemory

; 481  : 	return (_Uninit_move(_First, _Last, _Dest, _Al,

  00057	83 c4 18	 add	 esp, 24			; 00000018H
; File c:\program files (x86)\microsoft visual studio 14.0\vc\include\vector

; 1179 : 		return (this->_Mylast() - this->_Myfirst());

  0005a	8b 5e 04	 mov	 ebx, DWORD PTR [esi+4]
  0005d	2b d9		 sub	 ebx, ecx
  0005f	c1 fb 03	 sar	 ebx, 3

; 1628 : 		_CATCH_END
; 1629 : 
; 1630 : 		size_type _Size = size();
; 1631 : 		if (this->_Myfirst() != pointer())

  00062	85 c9		 test	 ecx, ecx
  00064	74 11		 je	 SHORT $LN3@Reallocate

; 1632 : 			{	// destroy and deallocate old array
; 1633 : 			_Destroy(this->_Myfirst(), this->_Mylast());
; 1634 : 			this->_Getal().deallocate(this->_Myfirst(),

  00066	8b 46 08	 mov	 eax, DWORD PTR [esi+8]
  00069	2b c1		 sub	 eax, ecx
  0006b	c1 f8 03	 sar	 eax, 3
  0006e	50		 push	 eax
  0006f	51		 push	 ecx
  00070	8b ce		 mov	 ecx, esi
  00072	e8 00 00 00 00	 call	 ?deallocate@?$_Wrap_alloc@V?$allocator@URINGMONSTER_EVENT_TIME@@@std@@@std@@QAEXPAURINGMONSTER_EVENT_TIME@@I@Z ; std::_Wrap_alloc<std::allocator<RINGMONSTER_EVENT_TIME> >::deallocate
$LN3@Reallocate:

; 1635 : 				this->_Myend() - this->_Myfirst());
; 1636 : 			}
; 1637 : 
; 1638 : 		this->_Orphan_all();
; 1639 : 		this->_Myend() = _Ptr + _Count;

  00077	8b 45 08	 mov	 eax, DWORD PTR __Count$[ebp]
  0007a	8d 04 c7	 lea	 eax, DWORD PTR [edi+eax*8]
  0007d	89 46 08	 mov	 DWORD PTR [esi+8], eax

; 1640 : 		this->_Mylast() = _Ptr + _Size;

  00080	8d 04 df	 lea	 eax, DWORD PTR [edi+ebx*8]
  00083	89 46 04	 mov	 DWORD PTR [esi+4], eax

; 1641 : 		this->_Myfirst() = _Ptr;

  00086	89 3e		 mov	 DWORD PTR [esi], edi

; 1642 : 		}

  00088	8b 4d f4	 mov	 ecx, DWORD PTR __$EHRec$[ebp+4]
  0008b	64 89 0d 00 00
	00 00		 mov	 DWORD PTR fs:0, ecx
  00092	59		 pop	 ecx
  00093	5f		 pop	 edi
  00094	5e		 pop	 esi
  00095	5b		 pop	 ebx
  00096	8b e5		 mov	 esp, ebp
  00098	5d		 pop	 ebp
  00099	c2 04 00	 ret	 4
__catch$?_Reallocate@?$vector@URINGMONSTER_EVENT_TIME@@V?$allocator@URINGMONSTER_EVENT_TIME@@@std@@@std@@IAEXI@Z$0:

; 1624 : 		_Umove(this->_Myfirst(), this->_Mylast(), _Ptr);
; 1625 : 		_CATCH_ALL
; 1626 : 		this->_Getal().deallocate(_Ptr, _Count);

  0009c	ff 75 08	 push	 DWORD PTR __Count$[ebp]
  0009f	8b 4d e8	 mov	 ecx, DWORD PTR _this$[ebp]
  000a2	ff 75 ec	 push	 DWORD PTR __Ptr$[ebp]
  000a5	e8 00 00 00 00	 call	 ?deallocate@?$_Wrap_alloc@V?$allocator@URINGMONSTER_EVENT_TIME@@@std@@@std@@QAEXPAURINGMONSTER_EVENT_TIME@@I@Z ; std::_Wrap_alloc<std::allocator<RINGMONSTER_EVENT_TIME> >::deallocate

; 1627 : 		_RERAISE;

  000aa	6a 00		 push	 0
  000ac	6a 00		 push	 0
  000ae	e8 00 00 00 00	 call	 __CxxThrowException@8
$LN175@Reallocate:
$LN174@Reallocate:
  000b3	cc		 int	 3
_TEXT	ENDS
;	COMDAT text$x
text$x	SEGMENT
__ehhandler$?_Reallocate@?$vector@URINGMONSTER_EVENT_TIME@@V?$allocator@URINGMONSTER_EVENT_TIME@@@std@@@std@@IAEXI@Z:
  00000	8b 54 24 08	 mov	 edx, DWORD PTR [esp+8]
  00004	8d 42 0c	 lea	 eax, DWORD PTR [edx+12]
  00007	8b 4a e4	 mov	 ecx, DWORD PTR [edx-28]
  0000a	33 c8		 xor	 ecx, eax
  0000c	e8 00 00 00 00	 call	 @__security_check_cookie@4
  00011	b8 00 00 00 00	 mov	 eax, OFFSET __ehfuncinfo$?_Reallocate@?$vector@URINGMONSTER_EVENT_TIME@@V?$allocator@URINGMONSTER_EVENT_TIME@@@std@@@std@@IAEXI@Z
  00016	e9 00 00 00 00	 jmp	 ___CxxFrameHandler3
text$x	ENDS
?_Reallocate@?$vector@URINGMONSTER_EVENT_TIME@@V?$allocator@URINGMONSTER_EVENT_TIME@@@std@@@std@@IAEXI@Z ENDP ; std::vector<RINGMONSTER_EVENT_TIME,std::allocator<RINGMONSTER_EVENT_TIME> >::_Reallocate
; Function compile flags: /Ogtp
; File c:\program files (x86)\microsoft visual studio 14.0\vc\include\vector
;	COMDAT ?_Inside@?$vector@URINGMONSTER_EVENT_TIME@@V?$allocator@URINGMONSTER_EVENT_TIME@@@std@@@std@@IBE_NPBURINGMONSTER_EVENT_TIME@@@Z
_TEXT	SEGMENT
__Ptr$ = 8						; size = 4
?_Inside@?$vector@URINGMONSTER_EVENT_TIME@@V?$allocator@URINGMONSTER_EVENT_TIME@@@std@@@std@@IBE_NPBURINGMONSTER_EVENT_TIME@@@Z PROC ; std::vector<RINGMONSTER_EVENT_TIME,std::allocator<RINGMONSTER_EVENT_TIME> >::_Inside, COMDAT
; _this$ = ecx

; 1615 : 		{	// test if _Ptr points inside vector

  00000	55		 push	 ebp
  00001	8b ec		 mov	 ebp, esp

; 1616 : 		return (_Ptr < this->_Mylast() && this->_Myfirst() <= _Ptr);

  00003	8b 45 08	 mov	 eax, DWORD PTR __Ptr$[ebp]
  00006	3b 41 04	 cmp	 eax, DWORD PTR [ecx+4]
  00009	73 0a		 jae	 SHORT $LN3@Inside
  0000b	39 01		 cmp	 DWORD PTR [ecx], eax
  0000d	77 06		 ja	 SHORT $LN3@Inside
  0000f	b0 01		 mov	 al, 1

; 1617 : 		}

  00011	5d		 pop	 ebp
  00012	c2 04 00	 ret	 4
$LN3@Inside:

; 1616 : 		return (_Ptr < this->_Mylast() && this->_Myfirst() <= _Ptr);

  00015	32 c0		 xor	 al, al

; 1617 : 		}

  00017	5d		 pop	 ebp
  00018	c2 04 00	 ret	 4
?_Inside@?$vector@URINGMONSTER_EVENT_TIME@@V?$allocator@URINGMONSTER_EVENT_TIME@@@std@@@std@@IBE_NPBURINGMONSTER_EVENT_TIME@@@Z ENDP ; std::vector<RINGMONSTER_EVENT_TIME,std::allocator<RINGMONSTER_EVENT_TIME> >::_Inside
_TEXT	ENDS
; Function compile flags: /Ogtp
; File c:\program files (x86)\microsoft visual studio 14.0\vc\include\vector
;	COMDAT ?_Grow_to@?$vector@URINGMONSTER_EVENT_TIME@@V?$allocator@URINGMONSTER_EVENT_TIME@@@std@@@std@@IBEII@Z
_TEXT	SEGMENT
__Count$ = 8						; size = 4
?_Grow_to@?$vector@URINGMONSTER_EVENT_TIME@@V?$allocator@URINGMONSTER_EVENT_TIME@@@std@@@std@@IBEII@Z PROC ; std::vector<RINGMONSTER_EVENT_TIME,std::allocator<RINGMONSTER_EVENT_TIME> >::_Grow_to, COMDAT
; _this$ = ecx

; 1604 : 		{	// grow by 50% or at least to _Count

  00000	55		 push	 ebp
  00001	8b ec		 mov	 ebp, esp
  00003	56		 push	 esi

; 1042 : 		return (this->_Myend() - this->_Myfirst());

  00004	8b 71 08	 mov	 esi, DWORD PTR [ecx+8]
  00007	2b 31		 sub	 esi, DWORD PTR [ecx]

; 1605 : 		size_type _Capacity = capacity();
; 1606 : 
; 1607 : 		_Capacity = max_size() - _Capacity / 2 < _Capacity

  00009	b9 ff ff ff 1f	 mov	 ecx, 536870911		; 1fffffffH

; 1042 : 		return (this->_Myend() - this->_Myfirst());

  0000e	c1 fe 03	 sar	 esi, 3

; 1605 : 		size_type _Capacity = capacity();
; 1606 : 
; 1607 : 		_Capacity = max_size() - _Capacity / 2 < _Capacity

  00011	8b c6		 mov	 eax, esi
  00013	d1 e8		 shr	 eax, 1
  00015	57		 push	 edi
  00016	2b c8		 sub	 ecx, eax
  00018	33 ff		 xor	 edi, edi
  0001a	3b ce		 cmp	 ecx, esi
  0001c	8d 14 30	 lea	 edx, DWORD PTR [eax+esi]
  0001f	0f 42 d7	 cmovb	 edx, edi

; 1608 : 			? 0 : _Capacity + _Capacity / 2;	// try to grow by 50%
; 1609 : 		if (_Capacity < _Count)

  00022	3b 55 08	 cmp	 edx, DWORD PTR __Count$[ebp]
  00025	5f		 pop	 edi
  00026	0f 42 55 08	 cmovb	 edx, DWORD PTR __Count$[ebp]

; 1610 : 			_Capacity = _Count;
; 1611 : 		return (_Capacity);

  0002a	8b c2		 mov	 eax, edx
  0002c	5e		 pop	 esi

; 1612 : 		}

  0002d	5d		 pop	 ebp
  0002e	c2 04 00	 ret	 4
?_Grow_to@?$vector@URINGMONSTER_EVENT_TIME@@V?$allocator@URINGMONSTER_EVENT_TIME@@@std@@@std@@IBEII@Z ENDP ; std::vector<RINGMONSTER_EVENT_TIME,std::allocator<RINGMONSTER_EVENT_TIME> >::_Grow_to
_TEXT	ENDS
; Function compile flags: /Ogtp
; File c:\program files (x86)\microsoft visual studio 14.0\vc\include\vector
;	COMDAT ?_Destroy@?$vector@URINGMONSTER_EVENT_TIME@@V?$allocator@URINGMONSTER_EVENT_TIME@@@std@@@std@@IAEXPAURINGMONSTER_EVENT_TIME@@0@Z
_TEXT	SEGMENT
__First$ = 8						; size = 4
__Last$ = 12						; size = 4
?_Destroy@?$vector@URINGMONSTER_EVENT_TIME@@V?$allocator@URINGMONSTER_EVENT_TIME@@@std@@@std@@IAEXPAURINGMONSTER_EVENT_TIME@@0@Z PROC ; std::vector<RINGMONSTER_EVENT_TIME,std::allocator<RINGMONSTER_EVENT_TIME> >::_Destroy, COMDAT
; _this$ = ecx

; 1600 : 		_Destroy_range(_First, _Last, this->_Getal());
; 1601 : 		}

  00000	c2 08 00	 ret	 8
?_Destroy@?$vector@URINGMONSTER_EVENT_TIME@@V?$allocator@URINGMONSTER_EVENT_TIME@@@std@@@std@@IAEXPAURINGMONSTER_EVENT_TIME@@0@Z ENDP ; std::vector<RINGMONSTER_EVENT_TIME,std::allocator<RINGMONSTER_EVENT_TIME> >::_Destroy
_TEXT	ENDS
; Function compile flags: /Ogtp
; File c:\program files (x86)\microsoft visual studio 14.0\vc\include\vector
;	COMDAT ?clear@?$vector@URINGMONSTER_EVENT_TIME@@V?$allocator@URINGMONSTER_EVENT_TIME@@@std@@@std@@QAEXXZ
_TEXT	SEGMENT
?clear@?$vector@URINGMONSTER_EVENT_TIME@@V?$allocator@URINGMONSTER_EVENT_TIME@@@std@@@std@@QAEXXZ PROC ; std::vector<RINGMONSTER_EVENT_TIME,std::allocator<RINGMONSTER_EVENT_TIME> >::clear, COMDAT
; _this$ = ecx

; 1540 : 		this->_Orphan_all();
; 1541 : 		_Destroy(this->_Myfirst(), this->_Mylast());
; 1542 : 		this->_Mylast() = this->_Myfirst();

  00000	8b 01		 mov	 eax, DWORD PTR [ecx]
  00002	89 41 04	 mov	 DWORD PTR [ecx+4], eax

; 1543 : 		}

  00005	c3		 ret	 0
?clear@?$vector@URINGMONSTER_EVENT_TIME@@V?$allocator@URINGMONSTER_EVENT_TIME@@@std@@@std@@QAEXXZ ENDP ; std::vector<RINGMONSTER_EVENT_TIME,std::allocator<RINGMONSTER_EVENT_TIME> >::clear
_TEXT	ENDS
; Function compile flags: /Ogtp
; File c:\program files (x86)\microsoft visual studio 14.0\vc\include\vector
; File c:\program files (x86)\microsoft visual studio 14.0\vc\include\xutility
; File c:\program files (x86)\microsoft visual studio 14.0\vc\include\vector
;	COMDAT ?erase@?$vector@URINGMONSTER_EVENT_TIME@@V?$allocator@URINGMONSTER_EVENT_TIME@@@std@@@std@@QAE?AV?$_Vector_iterator@V?$_Vector_val@U?$_Simple_types@URINGMONSTER_EVENT_TIME@@@std@@@std@@@2@V?$_Vector_const_iterator@V?$_Vector_val@U?$_Simple_types@URINGMONSTER_EVENT_TIME@@@std@@@std@@@2@0@Z
_TEXT	SEGMENT
___$ReturnUdt$ = 8					; size = 4
__First_arg$ = 12					; size = 4
__Last_arg$ = 16					; size = 4
?erase@?$vector@URINGMONSTER_EVENT_TIME@@V?$allocator@URINGMONSTER_EVENT_TIME@@@std@@@std@@QAE?AV?$_Vector_iterator@V?$_Vector_val@U?$_Simple_types@URINGMONSTER_EVENT_TIME@@@std@@@std@@@2@V?$_Vector_const_iterator@V?$_Vector_val@U?$_Simple_types@URINGMONSTER_EVENT_TIME@@@std@@@std@@@2@0@Z PROC ; std::vector<RINGMONSTER_EVENT_TIME,std::allocator<RINGMONSTER_EVENT_TIME> >::erase, COMDAT
; _this$ = ecx

; 1495 : 		{	// erase [_First, _Last)

  00000	55		 push	 ebp
  00001	8b ec		 mov	 ebp, esp

; 47   : 		{	// construct with pointer _Parg
; 48   : 		this->_Adopt(_Pvector);
; 49   : 		}
; 50   : 
; 51   : 	typedef pointer _Unchecked_type;
; 52   : 
; 53   : 	_Myiter& _Rechecked(_Unchecked_type _Right)
; 54   : 		{	// reset from unchecked iterator
; 55   : 		this->_Ptr = (_Tptr)_Right;
; 56   : 		return (*this);
; 57   : 		}
; 58   : 
; 59   : 	_Unchecked_type _Unchecked() const
; 60   : 		{	// make an unchecked iterator
; 61   : 		return (_Unchecked_type(this->_Ptr));
; 62   : 		}
; 63   : 
; 64   : 	reference operator*() const
; 65   : 		{	// return designated object
; 66   :  #if _ITERATOR_DEBUG_LEVEL == 2
; 67   : 		if (this->_Getcont() == 0
; 68   : 			|| this->_Ptr == 0
; 69   : 			|| this->_Ptr < ((_Myvec *)this->_Getcont())->_Myfirst
; 70   : 			|| ((_Myvec *)this->_Getcont())->_Mylast <= this->_Ptr)
; 71   : 			{	// report error
; 72   : 			_DEBUG_ERROR("vector iterator not dereferencable");
; 73   : 			_SCL_SECURE_OUT_OF_RANGE;
; 74   : 			}
; 75   : 
; 76   :  #elif _ITERATOR_DEBUG_LEVEL == 1
; 77   : 		_SCL_SECURE_VALIDATE(this->_Getcont() != 0);
; 78   : 		_SCL_SECURE_VALIDATE_RANGE(
; 79   : 			this->_Ptr != _Tptr()
; 80   : 			&& ((_Myvec *)this->_Getcont())->_Myfirst <= this->_Ptr
; 81   : 			&& this->_Ptr < ((_Myvec *)this->_Getcont())->_Mylast);
; 82   :  #endif /* _ITERATOR_DEBUG_LEVEL */
; 83   : 
; 84   : 		_Analysis_assume_(this->_Ptr != _Tptr());
; 85   : 
; 86   : 		return (*this->_Ptr);
; 87   : 		}
; 88   : 
; 89   : 	pointer operator->() const
; 90   : 		{	// return pointer to class object
; 91   : 		return (_STD pointer_traits<pointer>::pointer_to(**this));
; 92   : 		}
; 93   : 
; 94   : 	_Myiter& operator++()
; 95   : 		{	// preincrement
; 96   :  #if _ITERATOR_DEBUG_LEVEL == 2
; 97   : 		if (this->_Getcont() == 0
; 98   : 			|| this->_Ptr == 0
; 99   : 			|| ((_Myvec *)this->_Getcont())->_Mylast <= this->_Ptr)
; 100  : 			{	// report error
; 101  : 			_DEBUG_ERROR("vector iterator not incrementable");
; 102  : 			_SCL_SECURE_OUT_OF_RANGE;
; 103  : 			}
; 104  : 
; 105  :  #elif _ITERATOR_DEBUG_LEVEL == 1
; 106  : 		_SCL_SECURE_VALIDATE(this->_Getcont() != 0);
; 107  : 		_SCL_SECURE_VALIDATE_RANGE(
; 108  : 			this->_Ptr != _Tptr()
; 109  : 			&& this->_Ptr < ((_Myvec *)this->_Getcont())->_Mylast);
; 110  :  #endif /* _ITERATOR_DEBUG_LEVEL */
; 111  : 
; 112  : 		++this->_Ptr;
; 113  : 		return (*this);
; 114  : 		}
; 115  : 
; 116  : 	_Myiter operator++(int)
; 117  : 		{	// postincrement
; 118  : 		_Myiter _Tmp = *this;
; 119  : 		++*this;
; 120  : 		return (_Tmp);
; 121  : 		}
; 122  : 
; 123  : 	_Myiter& operator--()
; 124  : 		{	// predecrement
; 125  :  #if _ITERATOR_DEBUG_LEVEL == 2
; 126  : 		if (this->_Getcont() == 0
; 127  : 			|| this->_Ptr == 0
; 128  : 			|| this->_Ptr <= ((_Myvec *)this->_Getcont())->_Myfirst)
; 129  : 			{	// report error
; 130  : 			_DEBUG_ERROR("vector iterator not decrementable");
; 131  : 			_SCL_SECURE_OUT_OF_RANGE;
; 132  : 			}
; 133  : 
; 134  :  #elif _ITERATOR_DEBUG_LEVEL == 1
; 135  : 		_SCL_SECURE_VALIDATE(this->_Getcont() != 0);
; 136  : 		_SCL_SECURE_VALIDATE_RANGE(
; 137  : 			this->_Ptr != _Tptr()
; 138  : 			&& ((_Myvec *)this->_Getcont())->_Myfirst < this->_Ptr);
; 139  :  #endif /* _ITERATOR_DEBUG_LEVEL */
; 140  : 
; 141  : 		--this->_Ptr;
; 142  : 		return (*this);
; 143  : 		}
; 144  : 
; 145  : 	_Myiter operator--(int)
; 146  : 		{	// postdecrement
; 147  : 		_Myiter _Tmp = *this;
; 148  : 		--*this;
; 149  : 		return (_Tmp);
; 150  : 		}
; 151  : 
; 152  : 	_Myiter& operator+=(difference_type _Off)
; 153  : 		{	// increment by integer
; 154  :  #if _ITERATOR_DEBUG_LEVEL == 2
; 155  : 		if (this->_Getcont() == 0
; 156  : 			|| this->_Ptr + _Off < ((_Myvec *)this->_Getcont())->_Myfirst
; 157  : 			|| ((_Myvec *)this->_Getcont())->_Mylast < this->_Ptr + _Off)
; 158  : 			{	// report error
; 159  : 			_DEBUG_ERROR("vector iterator + offset out of range");
; 160  : 			_SCL_SECURE_OUT_OF_RANGE;
; 161  : 			}
; 162  : 
; 163  :  #elif _ITERATOR_DEBUG_LEVEL == 1
; 164  : 		_SCL_SECURE_VALIDATE(this->_Getcont() != 0);
; 165  : 		_SCL_SECURE_VALIDATE_RANGE(
; 166  : 			((_Myvec *)this->_Getcont())->_Myfirst <= this->_Ptr + _Off
; 167  : 			&& this->_Ptr + _Off <= ((_Myvec *)this->_Getcont())->_Mylast);
; 168  :  #endif /* _ITERATOR_DEBUG_LEVEL */
; 169  : 
; 170  : 		_Ptr += _Off;
; 171  : 		return (*this);
; 172  : 		}
; 173  : 
; 174  : 	_Myiter operator+(difference_type _Off) const
; 175  : 		{	// return this + integer
; 176  : 		_Myiter _Tmp = *this;
; 177  : 		return (_Tmp += _Off);
; 178  : 		}
; 179  : 
; 180  : 	_Myiter& operator-=(difference_type _Off)
; 181  : 		{	// decrement by integer
; 182  : 		return (*this += -_Off);
; 183  : 		}
; 184  : 
; 185  : 	_Myiter operator-(difference_type _Off) const
; 186  : 		{	// return this - integer
; 187  : 		_Myiter _Tmp = *this;
; 188  : 		return (_Tmp -= _Off);
; 189  : 		}
; 190  : 
; 191  : 	difference_type operator-(const _Myiter& _Right) const
; 192  : 		{	// return difference of iterators
; 193  : 		_Compat(_Right);
; 194  : 		return (this->_Ptr - _Right._Ptr);
; 195  : 		}
; 196  : 
; 197  : 	reference operator[](difference_type _Off) const
; 198  : 		{	// subscript
; 199  : 		return (*(*this + _Off));
; 200  : 		}
; 201  : 
; 202  : 	bool operator==(const _Myiter& _Right) const
; 203  : 		{	// test for iterator equality
; 204  : 		if (this->_Getcont() != _Right._Getcont())
; 205  : 			_Compat(_Right);
; 206  : 		return (this->_Ptr == _Right._Ptr);

  00003	8b 55 0c	 mov	 edx, DWORD PTR __First_arg$[ebp]
  00006	53		 push	 ebx

; 1495 : 		{	// erase [_First, _Last)

  00007	8b d9		 mov	 ebx, ecx
  00009	56		 push	 esi

; 1496 : 		if (_First_arg == begin() && _Last_arg == end())

  0000a	8b 75 10	 mov	 esi, DWORD PTR __Last_arg$[ebp]

; 46   : 		: _Ptr(_Parg)

  0000d	8b 03		 mov	 eax, DWORD PTR [ebx]

; 47   : 		{	// construct with pointer _Parg
; 48   : 		this->_Adopt(_Pvector);
; 49   : 		}
; 50   : 
; 51   : 	typedef pointer _Unchecked_type;
; 52   : 
; 53   : 	_Myiter& _Rechecked(_Unchecked_type _Right)
; 54   : 		{	// reset from unchecked iterator
; 55   : 		this->_Ptr = (_Tptr)_Right;
; 56   : 		return (*this);
; 57   : 		}
; 58   : 
; 59   : 	_Unchecked_type _Unchecked() const
; 60   : 		{	// make an unchecked iterator
; 61   : 		return (_Unchecked_type(this->_Ptr));
; 62   : 		}
; 63   : 
; 64   : 	reference operator*() const
; 65   : 		{	// return designated object
; 66   :  #if _ITERATOR_DEBUG_LEVEL == 2
; 67   : 		if (this->_Getcont() == 0
; 68   : 			|| this->_Ptr == 0
; 69   : 			|| this->_Ptr < ((_Myvec *)this->_Getcont())->_Myfirst
; 70   : 			|| ((_Myvec *)this->_Getcont())->_Mylast <= this->_Ptr)
; 71   : 			{	// report error
; 72   : 			_DEBUG_ERROR("vector iterator not dereferencable");
; 73   : 			_SCL_SECURE_OUT_OF_RANGE;
; 74   : 			}
; 75   : 
; 76   :  #elif _ITERATOR_DEBUG_LEVEL == 1
; 77   : 		_SCL_SECURE_VALIDATE(this->_Getcont() != 0);
; 78   : 		_SCL_SECURE_VALIDATE_RANGE(
; 79   : 			this->_Ptr != _Tptr()
; 80   : 			&& ((_Myvec *)this->_Getcont())->_Myfirst <= this->_Ptr
; 81   : 			&& this->_Ptr < ((_Myvec *)this->_Getcont())->_Mylast);
; 82   :  #endif /* _ITERATOR_DEBUG_LEVEL */
; 83   : 
; 84   : 		_Analysis_assume_(this->_Ptr != _Tptr());
; 85   : 
; 86   : 		return (*this->_Ptr);
; 87   : 		}
; 88   : 
; 89   : 	pointer operator->() const
; 90   : 		{	// return pointer to class object
; 91   : 		return (_STD pointer_traits<pointer>::pointer_to(**this));
; 92   : 		}
; 93   : 
; 94   : 	_Myiter& operator++()
; 95   : 		{	// preincrement
; 96   :  #if _ITERATOR_DEBUG_LEVEL == 2
; 97   : 		if (this->_Getcont() == 0
; 98   : 			|| this->_Ptr == 0
; 99   : 			|| ((_Myvec *)this->_Getcont())->_Mylast <= this->_Ptr)
; 100  : 			{	// report error
; 101  : 			_DEBUG_ERROR("vector iterator not incrementable");
; 102  : 			_SCL_SECURE_OUT_OF_RANGE;
; 103  : 			}
; 104  : 
; 105  :  #elif _ITERATOR_DEBUG_LEVEL == 1
; 106  : 		_SCL_SECURE_VALIDATE(this->_Getcont() != 0);
; 107  : 		_SCL_SECURE_VALIDATE_RANGE(
; 108  : 			this->_Ptr != _Tptr()
; 109  : 			&& this->_Ptr < ((_Myvec *)this->_Getcont())->_Mylast);
; 110  :  #endif /* _ITERATOR_DEBUG_LEVEL */
; 111  : 
; 112  : 		++this->_Ptr;
; 113  : 		return (*this);
; 114  : 		}
; 115  : 
; 116  : 	_Myiter operator++(int)
; 117  : 		{	// postincrement
; 118  : 		_Myiter _Tmp = *this;
; 119  : 		++*this;
; 120  : 		return (_Tmp);
; 121  : 		}
; 122  : 
; 123  : 	_Myiter& operator--()
; 124  : 		{	// predecrement
; 125  :  #if _ITERATOR_DEBUG_LEVEL == 2
; 126  : 		if (this->_Getcont() == 0
; 127  : 			|| this->_Ptr == 0
; 128  : 			|| this->_Ptr <= ((_Myvec *)this->_Getcont())->_Myfirst)
; 129  : 			{	// report error
; 130  : 			_DEBUG_ERROR("vector iterator not decrementable");
; 131  : 			_SCL_SECURE_OUT_OF_RANGE;
; 132  : 			}
; 133  : 
; 134  :  #elif _ITERATOR_DEBUG_LEVEL == 1
; 135  : 		_SCL_SECURE_VALIDATE(this->_Getcont() != 0);
; 136  : 		_SCL_SECURE_VALIDATE_RANGE(
; 137  : 			this->_Ptr != _Tptr()
; 138  : 			&& ((_Myvec *)this->_Getcont())->_Myfirst < this->_Ptr);
; 139  :  #endif /* _ITERATOR_DEBUG_LEVEL */
; 140  : 
; 141  : 		--this->_Ptr;
; 142  : 		return (*this);
; 143  : 		}
; 144  : 
; 145  : 	_Myiter operator--(int)
; 146  : 		{	// postdecrement
; 147  : 		_Myiter _Tmp = *this;
; 148  : 		--*this;
; 149  : 		return (_Tmp);
; 150  : 		}
; 151  : 
; 152  : 	_Myiter& operator+=(difference_type _Off)
; 153  : 		{	// increment by integer
; 154  :  #if _ITERATOR_DEBUG_LEVEL == 2
; 155  : 		if (this->_Getcont() == 0
; 156  : 			|| this->_Ptr + _Off < ((_Myvec *)this->_Getcont())->_Myfirst
; 157  : 			|| ((_Myvec *)this->_Getcont())->_Mylast < this->_Ptr + _Off)
; 158  : 			{	// report error
; 159  : 			_DEBUG_ERROR("vector iterator + offset out of range");
; 160  : 			_SCL_SECURE_OUT_OF_RANGE;
; 161  : 			}
; 162  : 
; 163  :  #elif _ITERATOR_DEBUG_LEVEL == 1
; 164  : 		_SCL_SECURE_VALIDATE(this->_Getcont() != 0);
; 165  : 		_SCL_SECURE_VALIDATE_RANGE(
; 166  : 			((_Myvec *)this->_Getcont())->_Myfirst <= this->_Ptr + _Off
; 167  : 			&& this->_Ptr + _Off <= ((_Myvec *)this->_Getcont())->_Mylast);
; 168  :  #endif /* _ITERATOR_DEBUG_LEVEL */
; 169  : 
; 170  : 		_Ptr += _Off;
; 171  : 		return (*this);
; 172  : 		}
; 173  : 
; 174  : 	_Myiter operator+(difference_type _Off) const
; 175  : 		{	// return this + integer
; 176  : 		_Myiter _Tmp = *this;
; 177  : 		return (_Tmp += _Off);
; 178  : 		}
; 179  : 
; 180  : 	_Myiter& operator-=(difference_type _Off)
; 181  : 		{	// decrement by integer
; 182  : 		return (*this += -_Off);
; 183  : 		}
; 184  : 
; 185  : 	_Myiter operator-(difference_type _Off) const
; 186  : 		{	// return this - integer
; 187  : 		_Myiter _Tmp = *this;
; 188  : 		return (_Tmp -= _Off);
; 189  : 		}
; 190  : 
; 191  : 	difference_type operator-(const _Myiter& _Right) const
; 192  : 		{	// return difference of iterators
; 193  : 		_Compat(_Right);
; 194  : 		return (this->_Ptr - _Right._Ptr);
; 195  : 		}
; 196  : 
; 197  : 	reference operator[](difference_type _Off) const
; 198  : 		{	// subscript
; 199  : 		return (*(*this + _Off));
; 200  : 		}
; 201  : 
; 202  : 	bool operator==(const _Myiter& _Right) const
; 203  : 		{	// test for iterator equality
; 204  : 		if (this->_Getcont() != _Right._Getcont())
; 205  : 			_Compat(_Right);
; 206  : 		return (this->_Ptr == _Right._Ptr);

  0000f	3b d0		 cmp	 edx, eax

; 1496 : 		if (_First_arg == begin() && _Last_arg == end())

  00011	75 13		 jne	 SHORT $LN2@erase

; 47   : 		{	// construct with pointer _Parg
; 48   : 		this->_Adopt(_Pvector);
; 49   : 		}
; 50   : 
; 51   : 	typedef pointer _Unchecked_type;
; 52   : 
; 53   : 	_Myiter& _Rechecked(_Unchecked_type _Right)
; 54   : 		{	// reset from unchecked iterator
; 55   : 		this->_Ptr = (_Tptr)_Right;
; 56   : 		return (*this);
; 57   : 		}
; 58   : 
; 59   : 	_Unchecked_type _Unchecked() const
; 60   : 		{	// make an unchecked iterator
; 61   : 		return (_Unchecked_type(this->_Ptr));
; 62   : 		}
; 63   : 
; 64   : 	reference operator*() const
; 65   : 		{	// return designated object
; 66   :  #if _ITERATOR_DEBUG_LEVEL == 2
; 67   : 		if (this->_Getcont() == 0
; 68   : 			|| this->_Ptr == 0
; 69   : 			|| this->_Ptr < ((_Myvec *)this->_Getcont())->_Myfirst
; 70   : 			|| ((_Myvec *)this->_Getcont())->_Mylast <= this->_Ptr)
; 71   : 			{	// report error
; 72   : 			_DEBUG_ERROR("vector iterator not dereferencable");
; 73   : 			_SCL_SECURE_OUT_OF_RANGE;
; 74   : 			}
; 75   : 
; 76   :  #elif _ITERATOR_DEBUG_LEVEL == 1
; 77   : 		_SCL_SECURE_VALIDATE(this->_Getcont() != 0);
; 78   : 		_SCL_SECURE_VALIDATE_RANGE(
; 79   : 			this->_Ptr != _Tptr()
; 80   : 			&& ((_Myvec *)this->_Getcont())->_Myfirst <= this->_Ptr
; 81   : 			&& this->_Ptr < ((_Myvec *)this->_Getcont())->_Mylast);
; 82   :  #endif /* _ITERATOR_DEBUG_LEVEL */
; 83   : 
; 84   : 		_Analysis_assume_(this->_Ptr != _Tptr());
; 85   : 
; 86   : 		return (*this->_Ptr);
; 87   : 		}
; 88   : 
; 89   : 	pointer operator->() const
; 90   : 		{	// return pointer to class object
; 91   : 		return (_STD pointer_traits<pointer>::pointer_to(**this));
; 92   : 		}
; 93   : 
; 94   : 	_Myiter& operator++()
; 95   : 		{	// preincrement
; 96   :  #if _ITERATOR_DEBUG_LEVEL == 2
; 97   : 		if (this->_Getcont() == 0
; 98   : 			|| this->_Ptr == 0
; 99   : 			|| ((_Myvec *)this->_Getcont())->_Mylast <= this->_Ptr)
; 100  : 			{	// report error
; 101  : 			_DEBUG_ERROR("vector iterator not incrementable");
; 102  : 			_SCL_SECURE_OUT_OF_RANGE;
; 103  : 			}
; 104  : 
; 105  :  #elif _ITERATOR_DEBUG_LEVEL == 1
; 106  : 		_SCL_SECURE_VALIDATE(this->_Getcont() != 0);
; 107  : 		_SCL_SECURE_VALIDATE_RANGE(
; 108  : 			this->_Ptr != _Tptr()
; 109  : 			&& this->_Ptr < ((_Myvec *)this->_Getcont())->_Mylast);
; 110  :  #endif /* _ITERATOR_DEBUG_LEVEL */
; 111  : 
; 112  : 		++this->_Ptr;
; 113  : 		return (*this);
; 114  : 		}
; 115  : 
; 116  : 	_Myiter operator++(int)
; 117  : 		{	// postincrement
; 118  : 		_Myiter _Tmp = *this;
; 119  : 		++*this;
; 120  : 		return (_Tmp);
; 121  : 		}
; 122  : 
; 123  : 	_Myiter& operator--()
; 124  : 		{	// predecrement
; 125  :  #if _ITERATOR_DEBUG_LEVEL == 2
; 126  : 		if (this->_Getcont() == 0
; 127  : 			|| this->_Ptr == 0
; 128  : 			|| this->_Ptr <= ((_Myvec *)this->_Getcont())->_Myfirst)
; 129  : 			{	// report error
; 130  : 			_DEBUG_ERROR("vector iterator not decrementable");
; 131  : 			_SCL_SECURE_OUT_OF_RANGE;
; 132  : 			}
; 133  : 
; 134  :  #elif _ITERATOR_DEBUG_LEVEL == 1
; 135  : 		_SCL_SECURE_VALIDATE(this->_Getcont() != 0);
; 136  : 		_SCL_SECURE_VALIDATE_RANGE(
; 137  : 			this->_Ptr != _Tptr()
; 138  : 			&& ((_Myvec *)this->_Getcont())->_Myfirst < this->_Ptr);
; 139  :  #endif /* _ITERATOR_DEBUG_LEVEL */
; 140  : 
; 141  : 		--this->_Ptr;
; 142  : 		return (*this);
; 143  : 		}
; 144  : 
; 145  : 	_Myiter operator--(int)
; 146  : 		{	// postdecrement
; 147  : 		_Myiter _Tmp = *this;
; 148  : 		--*this;
; 149  : 		return (_Tmp);
; 150  : 		}
; 151  : 
; 152  : 	_Myiter& operator+=(difference_type _Off)
; 153  : 		{	// increment by integer
; 154  :  #if _ITERATOR_DEBUG_LEVEL == 2
; 155  : 		if (this->_Getcont() == 0
; 156  : 			|| this->_Ptr + _Off < ((_Myvec *)this->_Getcont())->_Myfirst
; 157  : 			|| ((_Myvec *)this->_Getcont())->_Mylast < this->_Ptr + _Off)
; 158  : 			{	// report error
; 159  : 			_DEBUG_ERROR("vector iterator + offset out of range");
; 160  : 			_SCL_SECURE_OUT_OF_RANGE;
; 161  : 			}
; 162  : 
; 163  :  #elif _ITERATOR_DEBUG_LEVEL == 1
; 164  : 		_SCL_SECURE_VALIDATE(this->_Getcont() != 0);
; 165  : 		_SCL_SECURE_VALIDATE_RANGE(
; 166  : 			((_Myvec *)this->_Getcont())->_Myfirst <= this->_Ptr + _Off
; 167  : 			&& this->_Ptr + _Off <= ((_Myvec *)this->_Getcont())->_Mylast);
; 168  :  #endif /* _ITERATOR_DEBUG_LEVEL */
; 169  : 
; 170  : 		_Ptr += _Off;
; 171  : 		return (*this);
; 172  : 		}
; 173  : 
; 174  : 	_Myiter operator+(difference_type _Off) const
; 175  : 		{	// return this + integer
; 176  : 		_Myiter _Tmp = *this;
; 177  : 		return (_Tmp += _Off);
; 178  : 		}
; 179  : 
; 180  : 	_Myiter& operator-=(difference_type _Off)
; 181  : 		{	// decrement by integer
; 182  : 		return (*this += -_Off);
; 183  : 		}
; 184  : 
; 185  : 	_Myiter operator-(difference_type _Off) const
; 186  : 		{	// return this - integer
; 187  : 		_Myiter _Tmp = *this;
; 188  : 		return (_Tmp -= _Off);
; 189  : 		}
; 190  : 
; 191  : 	difference_type operator-(const _Myiter& _Right) const
; 192  : 		{	// return difference of iterators
; 193  : 		_Compat(_Right);
; 194  : 		return (this->_Ptr - _Right._Ptr);
; 195  : 		}
; 196  : 
; 197  : 	reference operator[](difference_type _Off) const
; 198  : 		{	// subscript
; 199  : 		return (*(*this + _Off));
; 200  : 		}
; 201  : 
; 202  : 	bool operator==(const _Myiter& _Right) const
; 203  : 		{	// test for iterator equality
; 204  : 		if (this->_Getcont() != _Right._Getcont())
; 205  : 			_Compat(_Right);
; 206  : 		return (this->_Ptr == _Right._Ptr);

  00013	3b 73 04	 cmp	 esi, DWORD PTR [ebx+4]

; 1496 : 		if (_First_arg == begin() && _Last_arg == end())

  00016	75 0e		 jne	 SHORT $LN2@erase

; 1525 : 
; 1526 : 	void _Pop_back_n(size_type _Count)
; 1527 : 		{	// erase _Count elements at end
; 1528 : 		pointer _Ptr = this->_Mylast() - _Count;
; 1529 : 
; 1530 :  #if _ITERATOR_DEBUG_LEVEL == 2
; 1531 : 		_Orphan_range(_Ptr, this->_Mylast());
; 1532 :  #endif /* _ITERATOR_DEBUG_LEVEL == 2 */
; 1533 : 
; 1534 : 		_Destroy(_Ptr, this->_Mylast());
; 1535 : 		this->_Mylast() = _Ptr;
; 1536 : 		}
; 1537 : 
; 1538 : 	void clear() _NOEXCEPT
; 1539 : 		{	// erase all
; 1540 : 		this->_Orphan_all();
; 1541 : 		_Destroy(this->_Myfirst(), this->_Mylast());
; 1542 : 		this->_Mylast() = this->_Myfirst();

  00018	89 43 04	 mov	 DWORD PTR [ebx+4], eax

; 46   : 		: _Ptr(_Parg)

  0001b	8b 45 08	 mov	 eax, DWORD PTR ___$ReturnUdt$[ebp]
  0001e	5e		 pop	 esi
  0001f	5b		 pop	 ebx
  00020	89 10		 mov	 DWORD PTR [eax], edx

; 1521 : 				}
; 1522 : 			}
; 1523 : 		return (_Make_iter(_First_arg));
; 1524 : 		}

  00022	5d		 pop	 ebp
  00023	c2 0c 00	 ret	 12			; 0000000cH
$LN2@erase:

; 47   : 		{	// construct with pointer _Parg
; 48   : 		this->_Adopt(_Pvector);
; 49   : 		}
; 50   : 
; 51   : 	typedef pointer _Unchecked_type;
; 52   : 
; 53   : 	_Myiter& _Rechecked(_Unchecked_type _Right)
; 54   : 		{	// reset from unchecked iterator
; 55   : 		this->_Ptr = (_Tptr)_Right;
; 56   : 		return (*this);
; 57   : 		}
; 58   : 
; 59   : 	_Unchecked_type _Unchecked() const
; 60   : 		{	// make an unchecked iterator
; 61   : 		return (_Unchecked_type(this->_Ptr));
; 62   : 		}
; 63   : 
; 64   : 	reference operator*() const
; 65   : 		{	// return designated object
; 66   :  #if _ITERATOR_DEBUG_LEVEL == 2
; 67   : 		if (this->_Getcont() == 0
; 68   : 			|| this->_Ptr == 0
; 69   : 			|| this->_Ptr < ((_Myvec *)this->_Getcont())->_Myfirst
; 70   : 			|| ((_Myvec *)this->_Getcont())->_Mylast <= this->_Ptr)
; 71   : 			{	// report error
; 72   : 			_DEBUG_ERROR("vector iterator not dereferencable");
; 73   : 			_SCL_SECURE_OUT_OF_RANGE;
; 74   : 			}
; 75   : 
; 76   :  #elif _ITERATOR_DEBUG_LEVEL == 1
; 77   : 		_SCL_SECURE_VALIDATE(this->_Getcont() != 0);
; 78   : 		_SCL_SECURE_VALIDATE_RANGE(
; 79   : 			this->_Ptr != _Tptr()
; 80   : 			&& ((_Myvec *)this->_Getcont())->_Myfirst <= this->_Ptr
; 81   : 			&& this->_Ptr < ((_Myvec *)this->_Getcont())->_Mylast);
; 82   :  #endif /* _ITERATOR_DEBUG_LEVEL */
; 83   : 
; 84   : 		_Analysis_assume_(this->_Ptr != _Tptr());
; 85   : 
; 86   : 		return (*this->_Ptr);
; 87   : 		}
; 88   : 
; 89   : 	pointer operator->() const
; 90   : 		{	// return pointer to class object
; 91   : 		return (_STD pointer_traits<pointer>::pointer_to(**this));
; 92   : 		}
; 93   : 
; 94   : 	_Myiter& operator++()
; 95   : 		{	// preincrement
; 96   :  #if _ITERATOR_DEBUG_LEVEL == 2
; 97   : 		if (this->_Getcont() == 0
; 98   : 			|| this->_Ptr == 0
; 99   : 			|| ((_Myvec *)this->_Getcont())->_Mylast <= this->_Ptr)
; 100  : 			{	// report error
; 101  : 			_DEBUG_ERROR("vector iterator not incrementable");
; 102  : 			_SCL_SECURE_OUT_OF_RANGE;
; 103  : 			}
; 104  : 
; 105  :  #elif _ITERATOR_DEBUG_LEVEL == 1
; 106  : 		_SCL_SECURE_VALIDATE(this->_Getcont() != 0);
; 107  : 		_SCL_SECURE_VALIDATE_RANGE(
; 108  : 			this->_Ptr != _Tptr()
; 109  : 			&& this->_Ptr < ((_Myvec *)this->_Getcont())->_Mylast);
; 110  :  #endif /* _ITERATOR_DEBUG_LEVEL */
; 111  : 
; 112  : 		++this->_Ptr;
; 113  : 		return (*this);
; 114  : 		}
; 115  : 
; 116  : 	_Myiter operator++(int)
; 117  : 		{	// postincrement
; 118  : 		_Myiter _Tmp = *this;
; 119  : 		++*this;
; 120  : 		return (_Tmp);
; 121  : 		}
; 122  : 
; 123  : 	_Myiter& operator--()
; 124  : 		{	// predecrement
; 125  :  #if _ITERATOR_DEBUG_LEVEL == 2
; 126  : 		if (this->_Getcont() == 0
; 127  : 			|| this->_Ptr == 0
; 128  : 			|| this->_Ptr <= ((_Myvec *)this->_Getcont())->_Myfirst)
; 129  : 			{	// report error
; 130  : 			_DEBUG_ERROR("vector iterator not decrementable");
; 131  : 			_SCL_SECURE_OUT_OF_RANGE;
; 132  : 			}
; 133  : 
; 134  :  #elif _ITERATOR_DEBUG_LEVEL == 1
; 135  : 		_SCL_SECURE_VALIDATE(this->_Getcont() != 0);
; 136  : 		_SCL_SECURE_VALIDATE_RANGE(
; 137  : 			this->_Ptr != _Tptr()
; 138  : 			&& ((_Myvec *)this->_Getcont())->_Myfirst < this->_Ptr);
; 139  :  #endif /* _ITERATOR_DEBUG_LEVEL */
; 140  : 
; 141  : 		--this->_Ptr;
; 142  : 		return (*this);
; 143  : 		}
; 144  : 
; 145  : 	_Myiter operator--(int)
; 146  : 		{	// postdecrement
; 147  : 		_Myiter _Tmp = *this;
; 148  : 		--*this;
; 149  : 		return (_Tmp);
; 150  : 		}
; 151  : 
; 152  : 	_Myiter& operator+=(difference_type _Off)
; 153  : 		{	// increment by integer
; 154  :  #if _ITERATOR_DEBUG_LEVEL == 2
; 155  : 		if (this->_Getcont() == 0
; 156  : 			|| this->_Ptr + _Off < ((_Myvec *)this->_Getcont())->_Myfirst
; 157  : 			|| ((_Myvec *)this->_Getcont())->_Mylast < this->_Ptr + _Off)
; 158  : 			{	// report error
; 159  : 			_DEBUG_ERROR("vector iterator + offset out of range");
; 160  : 			_SCL_SECURE_OUT_OF_RANGE;
; 161  : 			}
; 162  : 
; 163  :  #elif _ITERATOR_DEBUG_LEVEL == 1
; 164  : 		_SCL_SECURE_VALIDATE(this->_Getcont() != 0);
; 165  : 		_SCL_SECURE_VALIDATE_RANGE(
; 166  : 			((_Myvec *)this->_Getcont())->_Myfirst <= this->_Ptr + _Off
; 167  : 			&& this->_Ptr + _Off <= ((_Myvec *)this->_Getcont())->_Mylast);
; 168  :  #endif /* _ITERATOR_DEBUG_LEVEL */
; 169  : 
; 170  : 		_Ptr += _Off;
; 171  : 		return (*this);
; 172  : 		}
; 173  : 
; 174  : 	_Myiter operator+(difference_type _Off) const
; 175  : 		{	// return this + integer
; 176  : 		_Myiter _Tmp = *this;
; 177  : 		return (_Tmp += _Off);
; 178  : 		}
; 179  : 
; 180  : 	_Myiter& operator-=(difference_type _Off)
; 181  : 		{	// decrement by integer
; 182  : 		return (*this += -_Off);
; 183  : 		}
; 184  : 
; 185  : 	_Myiter operator-(difference_type _Off) const
; 186  : 		{	// return this - integer
; 187  : 		_Myiter _Tmp = *this;
; 188  : 		return (_Tmp -= _Off);
; 189  : 		}
; 190  : 
; 191  : 	difference_type operator-(const _Myiter& _Right) const
; 192  : 		{	// return difference of iterators
; 193  : 		_Compat(_Right);
; 194  : 		return (this->_Ptr - _Right._Ptr);
; 195  : 		}
; 196  : 
; 197  : 	reference operator[](difference_type _Off) const
; 198  : 		{	// subscript
; 199  : 		return (*(*this + _Off));
; 200  : 		}
; 201  : 
; 202  : 	bool operator==(const _Myiter& _Right) const
; 203  : 		{	// test for iterator equality
; 204  : 		if (this->_Getcont() != _Right._Getcont())
; 205  : 			_Compat(_Right);
; 206  : 		return (this->_Ptr == _Right._Ptr);

  00026	3b d6		 cmp	 edx, esi

; 1497 : 			clear();
; 1498 : 		else if (_First_arg != _Last_arg)

  00028	74 25		 je	 SHORT $LN219@erase

; 1499 : 			{	// clear partial
; 1500 : 			iterator _First = _Make_iter(_First_arg);
; 1501 : 			iterator _Last = _Make_iter(_Last_arg);
; 1502 : 
; 1503 : 			if (_First != _Last)
; 1504 : 				{	// worth doing, copy down over hole
; 1505 :  #if _ITERATOR_DEBUG_LEVEL == 2
; 1506 : 				if (_Last < _First || _VICONT(_First) != &this->_Get_data()
; 1507 : 					|| _VIPTR(_First) < this->_Myfirst()
; 1508 : 					|| this->_Mylast() < _VIPTR(_Last))
; 1509 : 					_DEBUG_ERROR("vector erase iterator outside range");
; 1510 : 				pointer _Ptr = _Move(_VIPTR(_Last), this->_Mylast(),
; 1511 : 					_VIPTR(_First));
; 1512 : 				_Orphan_range(_VIPTR(_First), this->_Mylast());
; 1513 : 
; 1514 :  #else /* _ITERATOR_DEBUG_LEVEL == 2 */
; 1515 : 				pointer _Ptr = _Move(_VIPTR(_Last), this->_Mylast(),

  0002a	57		 push	 edi
  0002b	8b 7b 04	 mov	 edi, DWORD PTR [ebx+4]
; File c:\program files (x86)\microsoft visual studio 14.0\vc\include\xutility

; 2538 : 	return (_Move(_First, _Last,

  0002e	8b ca		 mov	 ecx, edx

; 2517 : 	for (; _First != _Last; ++_Dest, (void)++_First)

  00030	3b f7		 cmp	 esi, edi
  00032	74 17		 je	 SHORT $LN177@erase
$LL178@erase:

; 2518 : 		*_Dest = _STD move(*_First);

  00034	8b 06		 mov	 eax, DWORD PTR [esi]
  00036	89 01		 mov	 DWORD PTR [ecx], eax
  00038	8b 46 04	 mov	 eax, DWORD PTR [esi+4]
  0003b	83 c6 08	 add	 esi, 8
  0003e	89 41 04	 mov	 DWORD PTR [ecx+4], eax
  00041	83 c1 08	 add	 ecx, 8
  00044	3b f7		 cmp	 esi, edi
  00046	75 ec		 jne	 SHORT $LL178@erase

; 2517 : 	for (; _First != _Last; ++_Dest, (void)++_First)

  00048	8b 55 0c	 mov	 edx, DWORD PTR __First_arg$[ebp]
$LN177@erase:
; File c:\program files (x86)\microsoft visual studio 14.0\vc\include\vector

; 1520 : 				this->_Mylast() = _Ptr;

  0004b	89 4b 04	 mov	 DWORD PTR [ebx+4], ecx
  0004e	5f		 pop	 edi
$LN219@erase:

; 46   : 		: _Ptr(_Parg)

  0004f	8b 45 08	 mov	 eax, DWORD PTR ___$ReturnUdt$[ebp]
  00052	5e		 pop	 esi
  00053	5b		 pop	 ebx
  00054	89 10		 mov	 DWORD PTR [eax], edx

; 1521 : 				}
; 1522 : 			}
; 1523 : 		return (_Make_iter(_First_arg));
; 1524 : 		}

  00056	5d		 pop	 ebp
  00057	c2 0c 00	 ret	 12			; 0000000cH
?erase@?$vector@URINGMONSTER_EVENT_TIME@@V?$allocator@URINGMONSTER_EVENT_TIME@@@std@@@std@@QAE?AV?$_Vector_iterator@V?$_Vector_val@U?$_Simple_types@URINGMONSTER_EVENT_TIME@@@std@@@std@@@2@V?$_Vector_const_iterator@V?$_Vector_val@U?$_Simple_types@URINGMONSTER_EVENT_TIME@@@std@@@std@@@2@0@Z ENDP ; std::vector<RINGMONSTER_EVENT_TIME,std::allocator<RINGMONSTER_EVENT_TIME> >::erase
_TEXT	ENDS
; Function compile flags: /Ogtp
; File c:\program files (x86)\microsoft visual studio 14.0\vc\include\vector
; File c:\program files (x86)\microsoft visual studio 14.0\vc\include\xmemory0
; File c:\program files (x86)\microsoft visual studio 14.0\vc\include\vector
; File c:\program files (x86)\microsoft visual studio 14.0\vc\include\xmemory0
; File c:\program files (x86)\microsoft visual studio 14.0\vc\include\vector
;	COMDAT ?push_back@?$vector@URINGMONSTER_EVENT_TIME@@V?$allocator@URINGMONSTER_EVENT_TIME@@@std@@@std@@QAEXABURINGMONSTER_EVENT_TIME@@@Z
_TEXT	SEGMENT
__Val$ = 8						; size = 4
?push_back@?$vector@URINGMONSTER_EVENT_TIME@@V?$allocator@URINGMONSTER_EVENT_TIME@@@std@@@std@@QAEXABURINGMONSTER_EVENT_TIME@@@Z PROC ; std::vector<RINGMONSTER_EVENT_TIME,std::allocator<RINGMONSTER_EVENT_TIME> >::push_back, COMDAT
; _this$ = ecx

; 1274 : 		{	// insert element at end

  00000	55		 push	 ebp
  00001	8b ec		 mov	 ebp, esp
  00003	56		 push	 esi
  00004	8b f1		 mov	 esi, ecx
  00006	57		 push	 edi

; 1295 : 
; 1296 :  #if _ITERATOR_DEBUG_LEVEL == 2
; 1297 : 	void pop_back()
; 1298 : 		{	// erase element at end
; 1299 : 		if (empty())
; 1300 : 			_DEBUG_ERROR("vector empty before pop");
; 1301 : 		else
; 1302 : 			{	// erase last element
; 1303 : 			_Orphan_range(this->_Mylast() - 1, this->_Mylast());
; 1304 : 			this->_Getal().destroy(this->_Mylast() - 1);
; 1305 : 			--this->_Mylast();
; 1306 : 			}
; 1307 : 		}
; 1308 : 
; 1309 :  #else /* _ITERATOR_DEBUG_LEVEL == 2 */
; 1310 : 	void pop_back()
; 1311 : 		{	// erase element at end
; 1312 : 		this->_Getal().destroy(this->_Mylast() - 1);
; 1313 : 		--this->_Mylast();
; 1314 : 		}
; 1315 :  #endif /* _ITERATOR_DEBUG_LEVEL == 2 */
; 1316 : 
; 1317 : 	template<class _Iter>
; 1318 : 		typename enable_if<_Is_iterator<_Iter>::value,
; 1319 : 			void>::type
; 1320 : 		assign(_Iter _First, _Iter _Last)
; 1321 : 		{	// assign [_First, _Last)
; 1322 : 		clear();
; 1323 : 		_Assign(_First, _Last, _Iter_cat(_First));
; 1324 : 		}
; 1325 : 
; 1326 : 	template<class _Iter>
; 1327 : 		void _Assign(_Iter _First, _Iter _Last,
; 1328 : 			input_iterator_tag)
; 1329 : 		{	// assign [_First, _Last), input iterators
; 1330 : 		for (; _First != _Last; ++_First)
; 1331 : 			emplace_back(*_First);
; 1332 : 		}
; 1333 : 
; 1334 : 	template<class _Iter>
; 1335 : 		void _Assign(_Iter _First, _Iter _Last,
; 1336 : 			forward_iterator_tag)
; 1337 : 		{	// assign [_First, _Last), forward iterators
; 1338 : 		size_type _Newsize = _STD distance(_First, _Last);
; 1339 : 
; 1340 : 		if (capacity() < _Newsize)
; 1341 : 			{	// need more room, try to get it
; 1342 : 			size_type _Newcapacity = _Grow_to(_Newsize);
; 1343 : 			_Tidy();
; 1344 : 			_Buy(_Newcapacity);
; 1345 : 			}
; 1346 : 
; 1347 : 		this->_Mylast() = _Ucopy(_First, _Last, this->_Myfirst());
; 1348 : 		}
; 1349 : 
; 1350 : 	void assign(size_type _Count, const value_type& _Val)
; 1351 : 		{	// assign _Count * _Val
; 1352 : 		clear();
; 1353 : 		insert(begin(), _Count, _Val);
; 1354 : 		}
; 1355 : 
; 1356 : 	iterator insert(const_iterator _Where, const _Ty& _Val)
; 1357 : 		{	// insert _Val at _Where
; 1358 : 		return (_Insert_n(_Where, (size_type)1, _Val));
; 1359 : 		}
; 1360 : 
; 1361 : 	iterator insert(const_iterator _Where, size_type _Count,
; 1362 : 		const _Ty& _Val)
; 1363 : 		{	// insert _Count * _Val at _Where
; 1364 : 		return (_Insert_n(_Where, _Count, _Val));
; 1365 : 		}
; 1366 : 
; 1367 : 	template<class _Iter>
; 1368 : 		typename enable_if<_Is_iterator<_Iter>::value,
; 1369 : 			iterator>::type
; 1370 : 		insert(const_iterator _Where, _Iter _First, _Iter _Last)
; 1371 : 		{	// insert [_First, _Last) at _Where
; 1372 : 		size_type _Off = _VIPTR(_Where) - this->_Myfirst();
; 1373 : 		_Insert(_Where, _First, _Last, _Iter_cat(_First));
; 1374 : 		return (begin() + _Off);
; 1375 : 		}
; 1376 : 
; 1377 : 	template<class _Iter>
; 1378 : 		void _Insert(const_iterator _Where,
; 1379 : 			_Iter _First, _Iter _Last,
; 1380 : 				input_iterator_tag)
; 1381 : 		{	// insert [_First, _Last) at _Where, input iterators
; 1382 : 		size_type _Off = _VIPTR(_Where) - this->_Myfirst();
; 1383 : 
; 1384 :  #if _ITERATOR_DEBUG_LEVEL == 2
; 1385 : 		if (size() < _Off)
; 1386 : 			_DEBUG_ERROR("vector insert iterator outside range");
; 1387 :  #endif /* _ITERATOR_DEBUG_LEVEL == 2 */
; 1388 : 
; 1389 : 		if (_First != _Last)
; 1390 : 			{	// worth doing, gather at end and rotate into place
; 1391 : 			size_type _Oldsize = size();
; 1392 : 
; 1393 : 			_TRY_BEGIN
; 1394 : 			for (; _First != _Last; ++_First)
; 1395 : 				push_back(*_First);	// append
; 1396 : 
; 1397 : 			_CATCH_ALL
; 1398 : 			erase(begin() + _Oldsize, end());
; 1399 : 			_RERAISE;
; 1400 : 			_CATCH_END
; 1401 : 
; 1402 : 			_STD rotate(begin() + _Off, begin() + _Oldsize, end());
; 1403 : 			}
; 1404 : 		}
; 1405 : 
; 1406 : 	template<class _Iter>
; 1407 : 		void _Insert(const_iterator _Where,
; 1408 : 			_Iter _First, _Iter _Last,
; 1409 : 				forward_iterator_tag)
; 1410 : 		{	// insert [_First, _Last) at _Where, forward iterators
; 1411 :  #if _ITERATOR_DEBUG_LEVEL == 2
; 1412 : 		if (_VICONT(_Where) != &this->_Get_data()
; 1413 : 			|| _VIPTR(_Where) < this->_Myfirst()
; 1414 : 			|| this->_Mylast() < _VIPTR(_Where))
; 1415 : 			_DEBUG_ERROR("vector insert iterator outside range");
; 1416 : 		_DEBUG_RANGE(_First, _Last);
; 1417 :  #endif /* _ITERATOR_DEBUG_LEVEL == 2 */
; 1418 : 
; 1419 : 		size_type _Count = 0;
; 1420 : 		_Distance(_First, _Last, _Count);
; 1421 : 
; 1422 : 		if (_Count == 0)
; 1423 : 			;
; 1424 : 		else if (_Unused_capacity() < _Count)
; 1425 : 			{	// not enough room, reallocate
; 1426 : 			if (max_size() - size() < _Count)
; 1427 : 				_Xlen();	// result too long
; 1428 : 
; 1429 : 			size_type _Capacity = _Grow_to(size() + _Count);
; 1430 : 			pointer _Newvec = this->_Getal().allocate(_Capacity);
; 1431 : 			pointer _Ptr = _Newvec;
; 1432 : 
; 1433 : 			_TRY_BEGIN
; 1434 : 			_Ptr = _Umove(this->_Myfirst(), _VIPTR(_Where),
; 1435 : 				_Newvec);	// copy prefix
; 1436 : 			_Ptr = _Ucopy(_First, _Last, _Ptr);	// add new stuff
; 1437 : 			_Umove(_VIPTR(_Where), this->_Mylast(),
; 1438 : 				_Ptr);	// copy suffix
; 1439 : 			_CATCH_ALL
; 1440 : 			_Destroy(_Newvec, _Ptr);
; 1441 : 			this->_Getal().deallocate(_Newvec, _Capacity);
; 1442 : 			_RERAISE;
; 1443 : 			_CATCH_END
; 1444 : 
; 1445 : 			_Count += size();
; 1446 : 			if (this->_Myfirst() != pointer())
; 1447 : 				{	// destroy and deallocate old array
; 1448 : 				_Destroy(this->_Myfirst(), this->_Mylast());
; 1449 : 				this->_Getal().deallocate(this->_Myfirst(),
; 1450 : 					this->_Myend() - this->_Myfirst());
; 1451 : 				}
; 1452 : 
; 1453 : 			this->_Orphan_all();
; 1454 : 			this->_Myend() = _Newvec + _Capacity;
; 1455 : 			this->_Mylast() = _Newvec + _Count;
; 1456 : 			this->_Myfirst() = _Newvec;
; 1457 : 			}
; 1458 : 		else
; 1459 : 			{	// new stuff fits, append and rotate into place
; 1460 : 			_Ucopy(_First, _Last, this->_Mylast());
; 1461 : 			_STD rotate(_VIPTR(_Where), this->_Mylast(),
; 1462 : 				this->_Mylast() + _Count);
; 1463 : 			this->_Mylast() += _Count;
; 1464 : 			_Orphan_range(_VIPTR(_Where), this->_Mylast());
; 1465 : 			}
; 1466 : 		}
; 1467 : 
; 1468 :  #if _ITERATOR_DEBUG_LEVEL == 2
; 1469 : 	iterator erase(const_iterator _Where)
; 1470 : 		{	// erase element at where
; 1471 : 		if (_VICONT(_Where) != &this->_Get_data()
; 1472 : 			|| _VIPTR(_Where) < this->_Myfirst()
; 1473 : 			|| this->_Mylast() <= _VIPTR(_Where))
; 1474 : 			_DEBUG_ERROR("vector erase iterator outside range");
; 1475 : 		_Move(_VIPTR(_Where) + 1, this->_Mylast(), _VIPTR(_Where));
; 1476 : 		_Destroy(this->_Mylast() - 1, this->_Mylast());
; 1477 : 		_Orphan_range(_VIPTR(_Where), this->_Mylast());
; 1478 : 		--this->_Mylast();
; 1479 : 		return (_Make_iter(_Where));
; 1480 : 		}
; 1481 : 
; 1482 :  #else /* _ITERATOR_DEBUG_LEVEL == 2 */
; 1483 : 	iterator erase(const_iterator _Where)
; 1484 : 		{	// erase element at where
; 1485 : 		_Move(_VIPTR(_Where) + 1, this->_Mylast(),
; 1486 : 			_VIPTR(_Where));
; 1487 : 		_Destroy(this->_Mylast() - 1, this->_Mylast());
; 1488 : 		--this->_Mylast();
; 1489 : 		return (_Make_iter(_Where));
; 1490 : 		}
; 1491 :  #endif /* _ITERATOR_DEBUG_LEVEL == 2 */
; 1492 : 
; 1493 : 	iterator erase(const_iterator _First_arg,
; 1494 : 		const_iterator _Last_arg)
; 1495 : 		{	// erase [_First, _Last)
; 1496 : 		if (_First_arg == begin() && _Last_arg == end())
; 1497 : 			clear();
; 1498 : 		else if (_First_arg != _Last_arg)
; 1499 : 			{	// clear partial
; 1500 : 			iterator _First = _Make_iter(_First_arg);
; 1501 : 			iterator _Last = _Make_iter(_Last_arg);
; 1502 : 
; 1503 : 			if (_First != _Last)
; 1504 : 				{	// worth doing, copy down over hole
; 1505 :  #if _ITERATOR_DEBUG_LEVEL == 2
; 1506 : 				if (_Last < _First || _VICONT(_First) != &this->_Get_data()
; 1507 : 					|| _VIPTR(_First) < this->_Myfirst()
; 1508 : 					|| this->_Mylast() < _VIPTR(_Last))
; 1509 : 					_DEBUG_ERROR("vector erase iterator outside range");
; 1510 : 				pointer _Ptr = _Move(_VIPTR(_Last), this->_Mylast(),
; 1511 : 					_VIPTR(_First));
; 1512 : 				_Orphan_range(_VIPTR(_First), this->_Mylast());
; 1513 : 
; 1514 :  #else /* _ITERATOR_DEBUG_LEVEL == 2 */
; 1515 : 				pointer _Ptr = _Move(_VIPTR(_Last), this->_Mylast(),
; 1516 : 					_VIPTR(_First));
; 1517 :  #endif /* _ITERATOR_DEBUG_LEVEL == 2 */
; 1518 : 
; 1519 : 				_Destroy(_Ptr, this->_Mylast());
; 1520 : 				this->_Mylast() = _Ptr;
; 1521 : 				}
; 1522 : 			}
; 1523 : 		return (_Make_iter(_First_arg));
; 1524 : 		}
; 1525 : 
; 1526 : 	void _Pop_back_n(size_type _Count)
; 1527 : 		{	// erase _Count elements at end
; 1528 : 		pointer _Ptr = this->_Mylast() - _Count;
; 1529 : 
; 1530 :  #if _ITERATOR_DEBUG_LEVEL == 2
; 1531 : 		_Orphan_range(_Ptr, this->_Mylast());
; 1532 :  #endif /* _ITERATOR_DEBUG_LEVEL == 2 */
; 1533 : 
; 1534 : 		_Destroy(_Ptr, this->_Mylast());
; 1535 : 		this->_Mylast() = _Ptr;
; 1536 : 		}
; 1537 : 
; 1538 : 	void clear() _NOEXCEPT
; 1539 : 		{	// erase all
; 1540 : 		this->_Orphan_all();
; 1541 : 		_Destroy(this->_Myfirst(), this->_Mylast());
; 1542 : 		this->_Mylast() = this->_Myfirst();
; 1543 : 		}
; 1544 : 
; 1545 : 	void swap(_Myt& _Right)
; 1546 : 		_NOEXCEPT_OP(_Alty::propagate_on_container_swap::value
; 1547 : 			|| _Alty::is_always_equal::value)
; 1548 : 		{	// exchange contents with _Right
; 1549 : 		if (this == &_Right)
; 1550 : 			;	// same object, do nothing
; 1551 : 		else if (this->_Getal() == _Right._Getal())
; 1552 : 			{	// same allocator, swap control information
; 1553 : 			this->_Swap_all(_Right);
; 1554 : 			_Swap_adl(this->_Myfirst(), _Right._Myfirst());
; 1555 : 			_Swap_adl(this->_Mylast(), _Right._Mylast());
; 1556 : 			_Swap_adl(this->_Myend(), _Right._Myend());
; 1557 : 			}
; 1558 : 
; 1559 : 		else if (_Alty::propagate_on_container_swap::value)
; 1560 : 			{	// swap allocators and control information
; 1561 : 			this->_Swap_alloc(_Right);
; 1562 : 			_Swap_adl(this->_Myfirst(), _Right._Myfirst());
; 1563 : 			_Swap_adl(this->_Mylast(), _Right._Mylast());
; 1564 : 			_Swap_adl(this->_Myend(), _Right._Myend());
; 1565 : 			}
; 1566 : 
; 1567 : 		else
; 1568 : 			{	// containers are incompatible
; 1569 :  #if _ITERATOR_DEBUG_LEVEL == 2
; 1570 : 			_DEBUG_ERROR("vector containers incompatible for swap");
; 1571 : 
; 1572 :  #else /* ITERATOR_DEBUG_LEVEL == 2 */
; 1573 : 			_XSTD terminate();
; 1574 :  #endif /* ITERATOR_DEBUG_LEVEL == 2 */
; 1575 : 			}
; 1576 : 		}
; 1577 : 
; 1578 : protected:
; 1579 : 	bool _Buy(size_type _Capacity)
; 1580 : 		{	// allocate array with _Capacity elements
; 1581 : 		this->_Myfirst() = pointer();
; 1582 : 		this->_Mylast() = pointer();
; 1583 : 		this->_Myend() = pointer();
; 1584 : 
; 1585 : 		if (_Capacity == 0)
; 1586 : 			return (false);
; 1587 : 		else if (max_size() < _Capacity)
; 1588 : 			_Xlen();	// result too long
; 1589 : 		else
; 1590 : 			{	// nonempty array, allocate storage
; 1591 : 			this->_Myfirst() = this->_Getal().allocate(_Capacity);
; 1592 : 			this->_Mylast() = this->_Myfirst();
; 1593 : 			this->_Myend() = this->_Myfirst() + _Capacity;
; 1594 : 			}
; 1595 : 		return (true);
; 1596 : 		}
; 1597 : 
; 1598 : 	void _Destroy(pointer _First, pointer _Last)
; 1599 : 		{	// destroy [_First, _Last) using allocator
; 1600 : 		_Destroy_range(_First, _Last, this->_Getal());
; 1601 : 		}
; 1602 : 
; 1603 : 	size_type _Grow_to(size_type _Count) const
; 1604 : 		{	// grow by 50% or at least to _Count
; 1605 : 		size_type _Capacity = capacity();
; 1606 : 
; 1607 : 		_Capacity = max_size() - _Capacity / 2 < _Capacity
; 1608 : 			? 0 : _Capacity + _Capacity / 2;	// try to grow by 50%
; 1609 : 		if (_Capacity < _Count)
; 1610 : 			_Capacity = _Count;
; 1611 : 		return (_Capacity);
; 1612 : 		}
; 1613 : 
; 1614 : 	bool _Inside(const value_type *_Ptr) const
; 1615 : 		{	// test if _Ptr points inside vector
; 1616 : 		return (_Ptr < this->_Mylast() && this->_Myfirst() <= _Ptr);

  00007	8b 7d 08	 mov	 edi, DWORD PTR __Val$[ebp]
  0000a	8b 46 04	 mov	 eax, DWORD PTR [esi+4]
  0000d	3b f8		 cmp	 edi, eax
  0000f	73 38		 jae	 SHORT $LN2@push_back
  00011	8b 0e		 mov	 ecx, DWORD PTR [esi]
  00013	3b cf		 cmp	 ecx, edi
  00015	77 32		 ja	 SHORT $LN2@push_back

; 1275 : 		if (_Inside(_STD addressof(_Val)))
; 1276 : 			{	// push back an element
; 1277 : 			size_type _Idx = _STD addressof(_Val) - this->_Myfirst();

  00017	2b f9		 sub	 edi, ecx
  00019	c1 ff 03	 sar	 edi, 3

; 1278 : 			if (this->_Mylast() == this->_Myend())

  0001c	3b 46 08	 cmp	 eax, DWORD PTR [esi+8]
  0001f	75 09		 jne	 SHORT $LN4@push_back

; 1279 : 				_Reserve(1);

  00021	6a 01		 push	 1
  00023	8b ce		 mov	 ecx, esi
  00025	e8 00 00 00 00	 call	 ?_Reserve@?$vector@URINGMONSTER_EVENT_TIME@@V?$allocator@URINGMONSTER_EVENT_TIME@@@std@@@std@@IAEXI@Z ; std::vector<RINGMONSTER_EVENT_TIME,std::allocator<RINGMONSTER_EVENT_TIME> >::_Reserve
$LN4@push_back:
; File c:\program files (x86)\microsoft visual studio 14.0\vc\include\xmemory0

; 655  : 		::new ((void *)_Ptr) _Objty(_STD forward<_Types>(_Args)...);

  0002a	8b 56 04	 mov	 edx, DWORD PTR [esi+4]
  0002d	85 d2		 test	 edx, edx
  0002f	74 37		 je	 SHORT $LN205@push_back
  00031	8b 0e		 mov	 ecx, DWORD PTR [esi]
  00033	8b 04 f9	 mov	 eax, DWORD PTR [ecx+edi*8]
  00036	89 02		 mov	 DWORD PTR [edx], eax
  00038	8b 44 f9 04	 mov	 eax, DWORD PTR [ecx+edi*8+4]
  0003c	89 42 04	 mov	 DWORD PTR [edx+4], eax
; File c:\program files (x86)\microsoft visual studio 14.0\vc\include\vector

; 1292 : 			++this->_Mylast();

  0003f	83 46 04 08	 add	 DWORD PTR [esi+4], 8
  00043	5f		 pop	 edi
  00044	5e		 pop	 esi

; 1293 : 			}
; 1294 : 		}

  00045	5d		 pop	 ebp
  00046	c2 04 00	 ret	 4
$LN2@push_back:

; 1280 : 			_Orphan_range(this->_Mylast(), this->_Mylast());
; 1281 : 			this->_Getal().construct(this->_Mylast(),
; 1282 : 				this->_Myfirst()[_Idx]);
; 1283 : 			++this->_Mylast();
; 1284 : 			}
; 1285 : 		else
; 1286 : 			{	// push back a non-element
; 1287 : 			if (this->_Mylast() == this->_Myend())

  00049	3b 46 08	 cmp	 eax, DWORD PTR [esi+8]
  0004c	75 09		 jne	 SHORT $LN5@push_back

; 1288 : 				_Reserve(1);

  0004e	6a 01		 push	 1
  00050	8b ce		 mov	 ecx, esi
  00052	e8 00 00 00 00	 call	 ?_Reserve@?$vector@URINGMONSTER_EVENT_TIME@@V?$allocator@URINGMONSTER_EVENT_TIME@@@std@@@std@@IAEXI@Z ; std::vector<RINGMONSTER_EVENT_TIME,std::allocator<RINGMONSTER_EVENT_TIME> >::_Reserve
$LN5@push_back:
; File c:\program files (x86)\microsoft visual studio 14.0\vc\include\xmemory0

; 655  : 		::new ((void *)_Ptr) _Objty(_STD forward<_Types>(_Args)...);

  00057	8b 4e 04	 mov	 ecx, DWORD PTR [esi+4]
  0005a	85 c9		 test	 ecx, ecx
  0005c	74 0a		 je	 SHORT $LN205@push_back
  0005e	8b 07		 mov	 eax, DWORD PTR [edi]
  00060	89 01		 mov	 DWORD PTR [ecx], eax
  00062	8b 47 04	 mov	 eax, DWORD PTR [edi+4]
  00065	89 41 04	 mov	 DWORD PTR [ecx+4], eax
$LN205@push_back:
; File c:\program files (x86)\microsoft visual studio 14.0\vc\include\vector

; 1292 : 			++this->_Mylast();

  00068	83 46 04 08	 add	 DWORD PTR [esi+4], 8
  0006c	5f		 pop	 edi
  0006d	5e		 pop	 esi

; 1293 : 			}
; 1294 : 		}

  0006e	5d		 pop	 ebp
  0006f	c2 04 00	 ret	 4
?push_back@?$vector@URINGMONSTER_EVENT_TIME@@V?$allocator@URINGMONSTER_EVENT_TIME@@@std@@@std@@QAEXABURINGMONSTER_EVENT_TIME@@@Z ENDP ; std::vector<RINGMONSTER_EVENT_TIME,std::allocator<RINGMONSTER_EVENT_TIME> >::push_back
_TEXT	ENDS
; Function compile flags: /Ogtp
; File c:\program files (x86)\microsoft visual studio 14.0\vc\include\vector
;	COMDAT ?empty@?$vector@URINGMONSTER_EVENT_TIME@@V?$allocator@URINGMONSTER_EVENT_TIME@@@std@@@std@@QBE_NXZ
_TEXT	SEGMENT
?empty@?$vector@URINGMONSTER_EVENT_TIME@@V?$allocator@URINGMONSTER_EVENT_TIME@@@std@@@std@@QBE_NXZ PROC ; std::vector<RINGMONSTER_EVENT_TIME,std::allocator<RINGMONSTER_EVENT_TIME> >::empty, COMDAT
; _this$ = ecx

; 1189 : 		return (this->_Myfirst() == this->_Mylast());

  00000	8b 11		 mov	 edx, DWORD PTR [ecx]
  00002	33 c0		 xor	 eax, eax
  00004	3b 51 04	 cmp	 edx, DWORD PTR [ecx+4]
  00007	0f 94 c0	 sete	 al

; 1190 : 		}

  0000a	c3		 ret	 0
?empty@?$vector@URINGMONSTER_EVENT_TIME@@V?$allocator@URINGMONSTER_EVENT_TIME@@@std@@@std@@QBE_NXZ ENDP ; std::vector<RINGMONSTER_EVENT_TIME,std::allocator<RINGMONSTER_EVENT_TIME> >::empty
_TEXT	ENDS
; Function compile flags: /Ogtp
; File c:\program files (x86)\microsoft visual studio 14.0\vc\include\vector
;	COMDAT ?max_size@?$vector@URINGMONSTER_EVENT_TIME@@V?$allocator@URINGMONSTER_EVENT_TIME@@@std@@@std@@QBEIXZ
_TEXT	SEGMENT
?max_size@?$vector@URINGMONSTER_EVENT_TIME@@V?$allocator@URINGMONSTER_EVENT_TIME@@@std@@@std@@QBEIXZ PROC ; std::vector<RINGMONSTER_EVENT_TIME,std::allocator<RINGMONSTER_EVENT_TIME> >::max_size, COMDAT
; _this$ = ecx

; 1184 : 		return (this->_Getal().max_size());

  00000	b8 ff ff ff 1f	 mov	 eax, 536870911		; 1fffffffH

; 1185 : 		}

  00005	c3		 ret	 0
?max_size@?$vector@URINGMONSTER_EVENT_TIME@@V?$allocator@URINGMONSTER_EVENT_TIME@@@std@@@std@@QBEIXZ ENDP ; std::vector<RINGMONSTER_EVENT_TIME,std::allocator<RINGMONSTER_EVENT_TIME> >::max_size
_TEXT	ENDS
; Function compile flags: /Ogtp
; File c:\program files (x86)\microsoft visual studio 14.0\vc\include\vector
;	COMDAT ?size@?$vector@URINGMONSTER_EVENT_TIME@@V?$allocator@URINGMONSTER_EVENT_TIME@@@std@@@std@@QBEIXZ
_TEXT	SEGMENT
?size@?$vector@URINGMONSTER_EVENT_TIME@@V?$allocator@URINGMONSTER_EVENT_TIME@@@std@@@std@@QBEIXZ PROC ; std::vector<RINGMONSTER_EVENT_TIME,std::allocator<RINGMONSTER_EVENT_TIME> >::size, COMDAT
; _this$ = ecx

; 1179 : 		return (this->_Mylast() - this->_Myfirst());

  00000	8b 41 04	 mov	 eax, DWORD PTR [ecx+4]
  00003	2b 01		 sub	 eax, DWORD PTR [ecx]
  00005	c1 f8 03	 sar	 eax, 3

; 1180 : 		}

  00008	c3		 ret	 0
?size@?$vector@URINGMONSTER_EVENT_TIME@@V?$allocator@URINGMONSTER_EVENT_TIME@@@std@@@std@@QBEIXZ ENDP ; std::vector<RINGMONSTER_EVENT_TIME,std::allocator<RINGMONSTER_EVENT_TIME> >::size
_TEXT	ENDS
; Function compile flags: /Ogtp
; File c:\program files (x86)\microsoft visual studio 14.0\vc\include\vector
;	COMDAT ?_Make_iter@?$vector@URINGMONSTER_EVENT_TIME@@V?$allocator@URINGMONSTER_EVENT_TIME@@@std@@@std@@QBE?AV?$_Vector_iterator@V?$_Vector_val@U?$_Simple_types@URINGMONSTER_EVENT_TIME@@@std@@@std@@@2@V?$_Vector_const_iterator@V?$_Vector_val@U?$_Simple_types@URINGMONSTER_EVENT_TIME@@@std@@@std@@@2@@Z
_TEXT	SEGMENT
___$ReturnUdt$ = 8					; size = 4
__Where$ = 12						; size = 4
?_Make_iter@?$vector@URINGMONSTER_EVENT_TIME@@V?$allocator@URINGMONSTER_EVENT_TIME@@@std@@@std@@QBE?AV?$_Vector_iterator@V?$_Vector_val@U?$_Simple_types@URINGMONSTER_EVENT_TIME@@@std@@@std@@@2@V?$_Vector_const_iterator@V?$_Vector_val@U?$_Simple_types@URINGMONSTER_EVENT_TIME@@@std@@@std@@@2@@Z PROC ; std::vector<RINGMONSTER_EVENT_TIME,std::allocator<RINGMONSTER_EVENT_TIME> >::_Make_iter, COMDAT
; _this$ = ecx

; 1076 : 		{	// make iterator from const_iterator

  00000	55		 push	 ebp
  00001	8b ec		 mov	 ebp, esp

; 46   : 		: _Ptr(_Parg)

  00003	8b 45 08	 mov	 eax, DWORD PTR ___$ReturnUdt$[ebp]
  00006	8b 4d 0c	 mov	 ecx, DWORD PTR __Where$[ebp]
  00009	89 08		 mov	 DWORD PTR [eax], ecx

; 1077 : 		return (iterator(_Where._Ptr, &this->_Get_data()));
; 1078 : 		}

  0000b	5d		 pop	 ebp
  0000c	c2 08 00	 ret	 8
?_Make_iter@?$vector@URINGMONSTER_EVENT_TIME@@V?$allocator@URINGMONSTER_EVENT_TIME@@@std@@@std@@QBE?AV?$_Vector_iterator@V?$_Vector_val@U?$_Simple_types@URINGMONSTER_EVENT_TIME@@@std@@@std@@@2@V?$_Vector_const_iterator@V?$_Vector_val@U?$_Simple_types@URINGMONSTER_EVENT_TIME@@@std@@@std@@@2@@Z ENDP ; std::vector<RINGMONSTER_EVENT_TIME,std::allocator<RINGMONSTER_EVENT_TIME> >::_Make_iter
_TEXT	ENDS
; Function compile flags: /Ogtp
; File c:\program files (x86)\microsoft visual studio 14.0\vc\include\vector
;	COMDAT ?end@?$vector@URINGMONSTER_EVENT_TIME@@V?$allocator@URINGMONSTER_EVENT_TIME@@@std@@@std@@QAE?AV?$_Vector_iterator@V?$_Vector_val@U?$_Simple_types@URINGMONSTER_EVENT_TIME@@@std@@@std@@@2@XZ
_TEXT	SEGMENT
___$ReturnUdt$ = 8					; size = 4
?end@?$vector@URINGMONSTER_EVENT_TIME@@V?$allocator@URINGMONSTER_EVENT_TIME@@@std@@@std@@QAE?AV?$_Vector_iterator@V?$_Vector_val@U?$_Simple_types@URINGMONSTER_EVENT_TIME@@@std@@@std@@@2@XZ PROC ; std::vector<RINGMONSTER_EVENT_TIME,std::allocator<RINGMONSTER_EVENT_TIME> >::end, COMDAT
; _this$ = ecx

; 1066 : 		{	// return iterator for end of mutable sequence

  00000	55		 push	 ebp
  00001	8b ec		 mov	 ebp, esp

; 46   : 		: _Ptr(_Parg)

  00003	8b 45 08	 mov	 eax, DWORD PTR ___$ReturnUdt$[ebp]
  00006	8b 49 04	 mov	 ecx, DWORD PTR [ecx+4]
  00009	89 08		 mov	 DWORD PTR [eax], ecx

; 1067 : 		return (iterator(this->_Mylast(), &this->_Get_data()));
; 1068 : 		}

  0000b	5d		 pop	 ebp
  0000c	c2 04 00	 ret	 4
?end@?$vector@URINGMONSTER_EVENT_TIME@@V?$allocator@URINGMONSTER_EVENT_TIME@@@std@@@std@@QAE?AV?$_Vector_iterator@V?$_Vector_val@U?$_Simple_types@URINGMONSTER_EVENT_TIME@@@std@@@std@@@2@XZ ENDP ; std::vector<RINGMONSTER_EVENT_TIME,std::allocator<RINGMONSTER_EVENT_TIME> >::end
_TEXT	ENDS
; Function compile flags: /Ogtp
; File c:\program files (x86)\microsoft visual studio 14.0\vc\include\vector
;	COMDAT ?begin@?$vector@URINGMONSTER_EVENT_TIME@@V?$allocator@URINGMONSTER_EVENT_TIME@@@std@@@std@@QAE?AV?$_Vector_iterator@V?$_Vector_val@U?$_Simple_types@URINGMONSTER_EVENT_TIME@@@std@@@std@@@2@XZ
_TEXT	SEGMENT
___$ReturnUdt$ = 8					; size = 4
?begin@?$vector@URINGMONSTER_EVENT_TIME@@V?$allocator@URINGMONSTER_EVENT_TIME@@@std@@@std@@QAE?AV?$_Vector_iterator@V?$_Vector_val@U?$_Simple_types@URINGMONSTER_EVENT_TIME@@@std@@@std@@@2@XZ PROC ; std::vector<RINGMONSTER_EVENT_TIME,std::allocator<RINGMONSTER_EVENT_TIME> >::begin, COMDAT
; _this$ = ecx

; 1056 : 		{	// return iterator for beginning of mutable sequence

  00000	55		 push	 ebp
  00001	8b ec		 mov	 ebp, esp

; 46   : 		: _Ptr(_Parg)

  00003	8b 45 08	 mov	 eax, DWORD PTR ___$ReturnUdt$[ebp]
  00006	8b 09		 mov	 ecx, DWORD PTR [ecx]
  00008	89 08		 mov	 DWORD PTR [eax], ecx

; 1057 : 		return (iterator(this->_Myfirst(), &this->_Get_data()));
; 1058 : 		}

  0000a	5d		 pop	 ebp
  0000b	c2 04 00	 ret	 4
?begin@?$vector@URINGMONSTER_EVENT_TIME@@V?$allocator@URINGMONSTER_EVENT_TIME@@@std@@@std@@QAE?AV?$_Vector_iterator@V?$_Vector_val@U?$_Simple_types@URINGMONSTER_EVENT_TIME@@@std@@@std@@@2@XZ ENDP ; std::vector<RINGMONSTER_EVENT_TIME,std::allocator<RINGMONSTER_EVENT_TIME> >::begin
_TEXT	ENDS
; Function compile flags: /Ogtp
; File c:\program files (x86)\microsoft visual studio 14.0\vc\include\vector
;	COMDAT ?_Unused_capacity@?$vector@URINGMONSTER_EVENT_TIME@@V?$allocator@URINGMONSTER_EVENT_TIME@@@std@@@std@@QBEIXZ
_TEXT	SEGMENT
?_Unused_capacity@?$vector@URINGMONSTER_EVENT_TIME@@V?$allocator@URINGMONSTER_EVENT_TIME@@@std@@@std@@QBEIXZ PROC ; std::vector<RINGMONSTER_EVENT_TIME,std::allocator<RINGMONSTER_EVENT_TIME> >::_Unused_capacity, COMDAT
; _this$ = ecx

; 1047 : 		return (this->_Myend() - this->_Mylast());

  00000	8b 41 08	 mov	 eax, DWORD PTR [ecx+8]
  00003	2b 41 04	 sub	 eax, DWORD PTR [ecx+4]
  00006	c1 f8 03	 sar	 eax, 3

; 1048 : 		}

  00009	c3		 ret	 0
?_Unused_capacity@?$vector@URINGMONSTER_EVENT_TIME@@V?$allocator@URINGMONSTER_EVENT_TIME@@@std@@@std@@QBEIXZ ENDP ; std::vector<RINGMONSTER_EVENT_TIME,std::allocator<RINGMONSTER_EVENT_TIME> >::_Unused_capacity
_TEXT	ENDS
; Function compile flags: /Ogtp
; File c:\program files (x86)\microsoft visual studio 14.0\vc\include\vector
;	COMDAT ?capacity@?$vector@URINGMONSTER_EVENT_TIME@@V?$allocator@URINGMONSTER_EVENT_TIME@@@std@@@std@@QBEIXZ
_TEXT	SEGMENT
?capacity@?$vector@URINGMONSTER_EVENT_TIME@@V?$allocator@URINGMONSTER_EVENT_TIME@@@std@@@std@@QBEIXZ PROC ; std::vector<RINGMONSTER_EVENT_TIME,std::allocator<RINGMONSTER_EVENT_TIME> >::capacity, COMDAT
; _this$ = ecx

; 1042 : 		return (this->_Myend() - this->_Myfirst());

  00000	8b 41 08	 mov	 eax, DWORD PTR [ecx+8]
  00003	2b 01		 sub	 eax, DWORD PTR [ecx]
  00005	c1 f8 03	 sar	 eax, 3

; 1043 : 		}

  00008	c3		 ret	 0
?capacity@?$vector@URINGMONSTER_EVENT_TIME@@V?$allocator@URINGMONSTER_EVENT_TIME@@@std@@@std@@QBEIXZ ENDP ; std::vector<RINGMONSTER_EVENT_TIME,std::allocator<RINGMONSTER_EVENT_TIME> >::capacity
_TEXT	ENDS
; Function compile flags: /Ogtp
; File c:\program files (x86)\microsoft visual studio 14.0\vc\include\vector
;	COMDAT ??1?$vector@URINGMONSTER_EVENT_TIME@@V?$allocator@URINGMONSTER_EVENT_TIME@@@std@@@std@@QAE@XZ
_TEXT	SEGMENT
??1?$vector@URINGMONSTER_EVENT_TIME@@V?$allocator@URINGMONSTER_EVENT_TIME@@@std@@@std@@QAE@XZ PROC ; std::vector<RINGMONSTER_EVENT_TIME,std::allocator<RINGMONSTER_EVENT_TIME> >::~vector<RINGMONSTER_EVENT_TIME,std::allocator<RINGMONSTER_EVENT_TIME> >, COMDAT
; _this$ = ecx

; 974  : 		{	// destroy the object

  00000	56		 push	 esi
  00001	8b f1		 mov	 esi, ecx

; 977  : 
; 978  : 	_Myt& operator=(const _Myt& _Right)
; 979  : 		{	// assign _Right
; 980  : 		if (this != &_Right)
; 981  : 			{	// different, assign it
; 982  : 			if (this->_Getal() != _Right._Getal()
; 983  : 				&& _Alty::propagate_on_container_copy_assignment::value)
; 984  : 				{	// change allocator before copying
; 985  : 				_Tidy();
; 986  : 				this->_Copy_alloc(_Right._Getal());
; 987  : 				}
; 988  : 
; 989  : 			this->_Orphan_all();
; 990  : 
; 991  : 			if (_Right.empty())
; 992  : 				clear();	// new sequence empty, erase existing sequence
; 993  : 			else if (_Right.size() <= size())
; 994  : 				{	// enough elements, copy new and destroy old
; 995  : 				pointer _Ptr = _Copy_impl(_Right._Myfirst(),
; 996  : 					_Right._Mylast(), this->_Myfirst());	// copy new
; 997  : 				_Destroy(_Ptr, this->_Mylast());	// destroy old
; 998  : 				this->_Mylast() = this->_Myfirst() + _Right.size();
; 999  : 				}
; 1000 : 			else if (_Right.size() <= capacity())
; 1001 : 				{	// enough room, copy and construct new
; 1002 : 				pointer _Ptr = _Right._Myfirst() + size();
; 1003 : 				_Copy_impl(_Right._Myfirst(),
; 1004 : 					_Ptr, this->_Myfirst());
; 1005 : 				this->_Mylast() = _Ucopy(_Ptr, _Right._Mylast(),
; 1006 : 					this->_Mylast());
; 1007 : 				}
; 1008 : 			else
; 1009 : 				{	// not enough room, allocate new array and construct new
; 1010 : 				if (this->_Myfirst() != pointer())
; 1011 : 					{	// discard old array
; 1012 : 					_Destroy(this->_Myfirst(), this->_Mylast());
; 1013 : 					this->_Getal().deallocate(this->_Myfirst(),
; 1014 : 						this->_Myend() - this->_Myfirst());
; 1015 : 					}
; 1016 : 				if (_Buy(_Right.size()))
; 1017 : 					_TRY_BEGIN
; 1018 : 					this->_Mylast() =
; 1019 : 						_Ucopy(_Right._Myfirst(), _Right._Mylast(),
; 1020 : 						this->_Myfirst());
; 1021 : 					_CATCH_ALL
; 1022 : 					_Tidy();
; 1023 : 					_RERAISE;
; 1024 : 					_CATCH_END
; 1025 : 				}
; 1026 : 			}
; 1027 : 		return (*this);
; 1028 : 		}
; 1029 : 
; 1030 : 	void reserve(size_type _Count)
; 1031 : 		{	// determine new minimum length of allocated storage
; 1032 : 		if (capacity() < _Count)
; 1033 : 			{	// something to do, check and reallocate
; 1034 : 			if (max_size() < _Count)
; 1035 : 				_Xlen();
; 1036 : 			_Reallocate(_Count);
; 1037 : 			}
; 1038 : 		}
; 1039 : 
; 1040 : 	size_type capacity() const _NOEXCEPT
; 1041 : 		{	// return current length of allocated storage
; 1042 : 		return (this->_Myend() - this->_Myfirst());
; 1043 : 		}
; 1044 : 
; 1045 : 	size_type _Unused_capacity() const _NOEXCEPT
; 1046 : 		{	// micro-optimization for capacity() - size()
; 1047 : 		return (this->_Myend() - this->_Mylast());
; 1048 : 		}
; 1049 : 
; 1050 : 	size_type _Has_unused_capacity() const _NOEXCEPT
; 1051 : 		{	// micro-optimization for capacity() != size()
; 1052 : 		return (this->_Myend() != this->_Mylast());
; 1053 : 		}
; 1054 : 
; 1055 : 	iterator begin() _NOEXCEPT
; 1056 : 		{	// return iterator for beginning of mutable sequence
; 1057 : 		return (iterator(this->_Myfirst(), &this->_Get_data()));
; 1058 : 		}
; 1059 : 
; 1060 : 	const_iterator begin() const _NOEXCEPT
; 1061 : 		{	// return iterator for beginning of nonmutable sequence
; 1062 : 		return (const_iterator(this->_Myfirst(), &this->_Get_data()));
; 1063 : 		}
; 1064 : 
; 1065 : 	iterator end() _NOEXCEPT
; 1066 : 		{	// return iterator for end of mutable sequence
; 1067 : 		return (iterator(this->_Mylast(), &this->_Get_data()));
; 1068 : 		}
; 1069 : 
; 1070 : 	const_iterator end() const _NOEXCEPT
; 1071 : 		{	// return iterator for end of nonmutable sequence
; 1072 : 		return (const_iterator(this->_Mylast(), &this->_Get_data()));
; 1073 : 		}
; 1074 : 
; 1075 : 	iterator _Make_iter(const_iterator _Where) const
; 1076 : 		{	// make iterator from const_iterator
; 1077 : 		return (iterator(_Where._Ptr, &this->_Get_data()));
; 1078 : 		}
; 1079 : 
; 1080 : 	reverse_iterator rbegin() _NOEXCEPT
; 1081 : 		{	// return iterator for beginning of reversed mutable sequence
; 1082 : 		return (reverse_iterator(end()));
; 1083 : 		}
; 1084 : 
; 1085 : 	const_reverse_iterator rbegin() const _NOEXCEPT
; 1086 : 		{	// return iterator for beginning of reversed nonmutable sequence
; 1087 : 		return (const_reverse_iterator(end()));
; 1088 : 		}
; 1089 : 
; 1090 : 	reverse_iterator rend() _NOEXCEPT
; 1091 : 		{	// return iterator for end of reversed mutable sequence
; 1092 : 		return (reverse_iterator(begin()));
; 1093 : 		}
; 1094 : 
; 1095 : 	const_reverse_iterator rend() const _NOEXCEPT
; 1096 : 		{	// return iterator for end of reversed nonmutable sequence
; 1097 : 		return (const_reverse_iterator(begin()));
; 1098 : 		}
; 1099 : 
; 1100 : 	const_iterator cbegin() const _NOEXCEPT
; 1101 : 		{	// return iterator for beginning of nonmutable sequence
; 1102 : 		return (begin());
; 1103 : 		}
; 1104 : 
; 1105 : 	const_iterator cend() const _NOEXCEPT
; 1106 : 		{	// return iterator for end of nonmutable sequence
; 1107 : 		return (end());
; 1108 : 		}
; 1109 : 
; 1110 : 	const_reverse_iterator crbegin() const _NOEXCEPT
; 1111 : 		{	// return iterator for beginning of reversed nonmutable sequence
; 1112 : 		return (rbegin());
; 1113 : 		}
; 1114 : 
; 1115 : 	const_reverse_iterator crend() const _NOEXCEPT
; 1116 : 		{	// return iterator for end of reversed nonmutable sequence
; 1117 : 		return (rend());
; 1118 : 		}
; 1119 : 
; 1120 : 	void shrink_to_fit()
; 1121 : 		{	// reduce capacity
; 1122 : 		if (_Has_unused_capacity())
; 1123 : 			{	// worth shrinking, do it
; 1124 : 			if (empty())
; 1125 : 				_Tidy();
; 1126 : 			else
; 1127 : 				_Reallocate(size());
; 1128 : 			}
; 1129 : 		}
; 1130 : 
; 1131 : 	void resize(size_type _Newsize)
; 1132 : 		{	// determine new length, padding as needed
; 1133 : 		if (_Newsize < size())
; 1134 : 			_Pop_back_n(size() - _Newsize);
; 1135 : 		else if (size() < _Newsize)
; 1136 : 			{	// pad as needed
; 1137 : 			_Reserve(_Newsize - size());
; 1138 : 			_TRY_BEGIN
; 1139 : 			_Uninitialized_default_fill_n(this->_Mylast(), _Newsize - size(),
; 1140 : 				this->_Getal());
; 1141 : 			_CATCH_ALL
; 1142 : 			_Tidy();
; 1143 : 			_RERAISE;
; 1144 : 			_CATCH_END
; 1145 : 			this->_Mylast() += _Newsize - size();
; 1146 : 			}
; 1147 : 		}
; 1148 : 
; 1149 : 	void resize(size_type _Newsize, const value_type& _Val)
; 1150 : 		{	// determine new length, padding with _Val elements as needed
; 1151 : 		if (_Newsize < size())
; 1152 : 			_Pop_back_n(size() - _Newsize);
; 1153 : 		else if (size() < _Newsize)
; 1154 : 			{	// pad as needed
; 1155 : 			const value_type *_Ptr = _STD addressof(_Val);
; 1156 : 
; 1157 : 			if (_Inside(_Ptr))
; 1158 : 				{	// padding is inside vector, recompute _Ptr after reserve
; 1159 : 				const difference_type _Idx = _Ptr
; 1160 : 					- _STD addressof(*this->_Myfirst());
; 1161 : 				_Reserve(_Newsize - size());
; 1162 : 				_Ptr = _STD addressof(*this->_Myfirst()) + _Idx;
; 1163 : 				}
; 1164 : 			else
; 1165 : 				_Reserve(_Newsize - size());
; 1166 : 
; 1167 : 			_TRY_BEGIN
; 1168 : 			_Ufill(this->_Mylast(), _Newsize - size(), _Ptr);
; 1169 : 			_CATCH_ALL
; 1170 : 			_Tidy();
; 1171 : 			_RERAISE;
; 1172 : 			_CATCH_END
; 1173 : 			this->_Mylast() += _Newsize - size();
; 1174 : 			}
; 1175 : 		}
; 1176 : 
; 1177 : 	size_type size() const _NOEXCEPT
; 1178 : 		{	// return length of sequence
; 1179 : 		return (this->_Mylast() - this->_Myfirst());
; 1180 : 		}
; 1181 : 
; 1182 : 	size_type max_size() const _NOEXCEPT
; 1183 : 		{	// return maximum possible length of sequence
; 1184 : 		return (this->_Getal().max_size());
; 1185 : 		}
; 1186 : 
; 1187 : 	bool empty() const _NOEXCEPT
; 1188 : 		{	// test if sequence is empty
; 1189 : 		return (this->_Myfirst() == this->_Mylast());
; 1190 : 		}
; 1191 : 
; 1192 : 	_Alloc get_allocator() const _NOEXCEPT
; 1193 : 		{	// return allocator object for values
; 1194 : 		return (this->_Getal());
; 1195 : 		}
; 1196 : 
; 1197 : 	const_reference at(size_type _Pos) const
; 1198 : 		{	// subscript nonmutable sequence with checking
; 1199 : 		if (size() <= _Pos)
; 1200 : 			_Xran();
; 1201 : 		return (*(this->_Myfirst() + _Pos));
; 1202 : 		}
; 1203 : 
; 1204 : 	reference at(size_type _Pos)
; 1205 : 		{	// subscript mutable sequence with checking
; 1206 : 		if (size() <= _Pos)
; 1207 : 			_Xran();
; 1208 : 		return (*(this->_Myfirst() + _Pos));
; 1209 : 		}
; 1210 : 
; 1211 : 	const_reference operator[](size_type _Pos) const
; 1212 : 		{	// subscript nonmutable sequence
; 1213 :  #if _ITERATOR_DEBUG_LEVEL == 2
; 1214 : 		if (size() <= _Pos)
; 1215 : 			{	// report error
; 1216 : 			_DEBUG_ERROR("vector subscript out of range");
; 1217 : 			_SCL_SECURE_OUT_OF_RANGE;
; 1218 : 			}
; 1219 : 
; 1220 :  #elif _ITERATOR_DEBUG_LEVEL == 1
; 1221 : 		_SCL_SECURE_VALIDATE_RANGE(_Pos < size());
; 1222 :  #endif /* _ITERATOR_DEBUG_LEVEL */
; 1223 : 
; 1224 : 		return (*(this->_Myfirst() + _Pos));
; 1225 : 		}
; 1226 : 
; 1227 : 	reference operator[](size_type _Pos)
; 1228 : 		{	// subscript mutable sequence
; 1229 :  #if _ITERATOR_DEBUG_LEVEL == 2
; 1230 : 		if (size() <= _Pos)
; 1231 : 			{	// report error
; 1232 : 			_DEBUG_ERROR("vector subscript out of range");
; 1233 : 			_SCL_SECURE_OUT_OF_RANGE;
; 1234 : 			}
; 1235 : 
; 1236 :  #elif _ITERATOR_DEBUG_LEVEL == 1
; 1237 : 		_SCL_SECURE_VALIDATE_RANGE(_Pos < size());
; 1238 :  #endif /* _ITERATOR_DEBUG_LEVEL */
; 1239 : 
; 1240 : 		return (*(this->_Myfirst() + _Pos));
; 1241 : 		}
; 1242 : 
; 1243 : 	pointer data() _NOEXCEPT
; 1244 : 		{	// return address of first element
; 1245 : 		return (this->_Myfirst());
; 1246 : 		}
; 1247 : 
; 1248 : 	const_pointer data() const _NOEXCEPT
; 1249 : 		{	// return address of first element
; 1250 : 		return (this->_Myfirst());
; 1251 : 		}
; 1252 : 
; 1253 : 	reference front()
; 1254 : 		{	// return first element of mutable sequence
; 1255 : 		return (*begin());
; 1256 : 		}
; 1257 : 
; 1258 : 	const_reference front() const
; 1259 : 		{	// return first element of nonmutable sequence
; 1260 : 		return (*begin());
; 1261 : 		}
; 1262 : 
; 1263 : 	reference back()
; 1264 : 		{	// return last element of mutable sequence
; 1265 : 		return (*(end() - 1));
; 1266 : 		}
; 1267 : 
; 1268 : 	const_reference back() const
; 1269 : 		{	// return last element of nonmutable sequence
; 1270 : 		return (*(end() - 1));
; 1271 : 		}
; 1272 : 
; 1273 : 	void push_back(const value_type& _Val)
; 1274 : 		{	// insert element at end
; 1275 : 		if (_Inside(_STD addressof(_Val)))
; 1276 : 			{	// push back an element
; 1277 : 			size_type _Idx = _STD addressof(_Val) - this->_Myfirst();
; 1278 : 			if (this->_Mylast() == this->_Myend())
; 1279 : 				_Reserve(1);
; 1280 : 			_Orphan_range(this->_Mylast(), this->_Mylast());
; 1281 : 			this->_Getal().construct(this->_Mylast(),
; 1282 : 				this->_Myfirst()[_Idx]);
; 1283 : 			++this->_Mylast();
; 1284 : 			}
; 1285 : 		else
; 1286 : 			{	// push back a non-element
; 1287 : 			if (this->_Mylast() == this->_Myend())
; 1288 : 				_Reserve(1);
; 1289 : 			_Orphan_range(this->_Mylast(), this->_Mylast());
; 1290 : 			this->_Getal().construct(this->_Mylast(),
; 1291 : 				_Val);
; 1292 : 			++this->_Mylast();
; 1293 : 			}
; 1294 : 		}
; 1295 : 
; 1296 :  #if _ITERATOR_DEBUG_LEVEL == 2
; 1297 : 	void pop_back()
; 1298 : 		{	// erase element at end
; 1299 : 		if (empty())
; 1300 : 			_DEBUG_ERROR("vector empty before pop");
; 1301 : 		else
; 1302 : 			{	// erase last element
; 1303 : 			_Orphan_range(this->_Mylast() - 1, this->_Mylast());
; 1304 : 			this->_Getal().destroy(this->_Mylast() - 1);
; 1305 : 			--this->_Mylast();
; 1306 : 			}
; 1307 : 		}
; 1308 : 
; 1309 :  #else /* _ITERATOR_DEBUG_LEVEL == 2 */
; 1310 : 	void pop_back()
; 1311 : 		{	// erase element at end
; 1312 : 		this->_Getal().destroy(this->_Mylast() - 1);
; 1313 : 		--this->_Mylast();
; 1314 : 		}
; 1315 :  #endif /* _ITERATOR_DEBUG_LEVEL == 2 */
; 1316 : 
; 1317 : 	template<class _Iter>
; 1318 : 		typename enable_if<_Is_iterator<_Iter>::value,
; 1319 : 			void>::type
; 1320 : 		assign(_Iter _First, _Iter _Last)
; 1321 : 		{	// assign [_First, _Last)
; 1322 : 		clear();
; 1323 : 		_Assign(_First, _Last, _Iter_cat(_First));
; 1324 : 		}
; 1325 : 
; 1326 : 	template<class _Iter>
; 1327 : 		void _Assign(_Iter _First, _Iter _Last,
; 1328 : 			input_iterator_tag)
; 1329 : 		{	// assign [_First, _Last), input iterators
; 1330 : 		for (; _First != _Last; ++_First)
; 1331 : 			emplace_back(*_First);
; 1332 : 		}
; 1333 : 
; 1334 : 	template<class _Iter>
; 1335 : 		void _Assign(_Iter _First, _Iter _Last,
; 1336 : 			forward_iterator_tag)
; 1337 : 		{	// assign [_First, _Last), forward iterators
; 1338 : 		size_type _Newsize = _STD distance(_First, _Last);
; 1339 : 
; 1340 : 		if (capacity() < _Newsize)
; 1341 : 			{	// need more room, try to get it
; 1342 : 			size_type _Newcapacity = _Grow_to(_Newsize);
; 1343 : 			_Tidy();
; 1344 : 			_Buy(_Newcapacity);
; 1345 : 			}
; 1346 : 
; 1347 : 		this->_Mylast() = _Ucopy(_First, _Last, this->_Myfirst());
; 1348 : 		}
; 1349 : 
; 1350 : 	void assign(size_type _Count, const value_type& _Val)
; 1351 : 		{	// assign _Count * _Val
; 1352 : 		clear();
; 1353 : 		insert(begin(), _Count, _Val);
; 1354 : 		}
; 1355 : 
; 1356 : 	iterator insert(const_iterator _Where, const _Ty& _Val)
; 1357 : 		{	// insert _Val at _Where
; 1358 : 		return (_Insert_n(_Where, (size_type)1, _Val));
; 1359 : 		}
; 1360 : 
; 1361 : 	iterator insert(const_iterator _Where, size_type _Count,
; 1362 : 		const _Ty& _Val)
; 1363 : 		{	// insert _Count * _Val at _Where
; 1364 : 		return (_Insert_n(_Where, _Count, _Val));
; 1365 : 		}
; 1366 : 
; 1367 : 	template<class _Iter>
; 1368 : 		typename enable_if<_Is_iterator<_Iter>::value,
; 1369 : 			iterator>::type
; 1370 : 		insert(const_iterator _Where, _Iter _First, _Iter _Last)
; 1371 : 		{	// insert [_First, _Last) at _Where
; 1372 : 		size_type _Off = _VIPTR(_Where) - this->_Myfirst();
; 1373 : 		_Insert(_Where, _First, _Last, _Iter_cat(_First));
; 1374 : 		return (begin() + _Off);
; 1375 : 		}
; 1376 : 
; 1377 : 	template<class _Iter>
; 1378 : 		void _Insert(const_iterator _Where,
; 1379 : 			_Iter _First, _Iter _Last,
; 1380 : 				input_iterator_tag)
; 1381 : 		{	// insert [_First, _Last) at _Where, input iterators
; 1382 : 		size_type _Off = _VIPTR(_Where) - this->_Myfirst();
; 1383 : 
; 1384 :  #if _ITERATOR_DEBUG_LEVEL == 2
; 1385 : 		if (size() < _Off)
; 1386 : 			_DEBUG_ERROR("vector insert iterator outside range");
; 1387 :  #endif /* _ITERATOR_DEBUG_LEVEL == 2 */
; 1388 : 
; 1389 : 		if (_First != _Last)
; 1390 : 			{	// worth doing, gather at end and rotate into place
; 1391 : 			size_type _Oldsize = size();
; 1392 : 
; 1393 : 			_TRY_BEGIN
; 1394 : 			for (; _First != _Last; ++_First)
; 1395 : 				push_back(*_First);	// append
; 1396 : 
; 1397 : 			_CATCH_ALL
; 1398 : 			erase(begin() + _Oldsize, end());
; 1399 : 			_RERAISE;
; 1400 : 			_CATCH_END
; 1401 : 
; 1402 : 			_STD rotate(begin() + _Off, begin() + _Oldsize, end());
; 1403 : 			}
; 1404 : 		}
; 1405 : 
; 1406 : 	template<class _Iter>
; 1407 : 		void _Insert(const_iterator _Where,
; 1408 : 			_Iter _First, _Iter _Last,
; 1409 : 				forward_iterator_tag)
; 1410 : 		{	// insert [_First, _Last) at _Where, forward iterators
; 1411 :  #if _ITERATOR_DEBUG_LEVEL == 2
; 1412 : 		if (_VICONT(_Where) != &this->_Get_data()
; 1413 : 			|| _VIPTR(_Where) < this->_Myfirst()
; 1414 : 			|| this->_Mylast() < _VIPTR(_Where))
; 1415 : 			_DEBUG_ERROR("vector insert iterator outside range");
; 1416 : 		_DEBUG_RANGE(_First, _Last);
; 1417 :  #endif /* _ITERATOR_DEBUG_LEVEL == 2 */
; 1418 : 
; 1419 : 		size_type _Count = 0;
; 1420 : 		_Distance(_First, _Last, _Count);
; 1421 : 
; 1422 : 		if (_Count == 0)
; 1423 : 			;
; 1424 : 		else if (_Unused_capacity() < _Count)
; 1425 : 			{	// not enough room, reallocate
; 1426 : 			if (max_size() - size() < _Count)
; 1427 : 				_Xlen();	// result too long
; 1428 : 
; 1429 : 			size_type _Capacity = _Grow_to(size() + _Count);
; 1430 : 			pointer _Newvec = this->_Getal().allocate(_Capacity);
; 1431 : 			pointer _Ptr = _Newvec;
; 1432 : 
; 1433 : 			_TRY_BEGIN
; 1434 : 			_Ptr = _Umove(this->_Myfirst(), _VIPTR(_Where),
; 1435 : 				_Newvec);	// copy prefix
; 1436 : 			_Ptr = _Ucopy(_First, _Last, _Ptr);	// add new stuff
; 1437 : 			_Umove(_VIPTR(_Where), this->_Mylast(),
; 1438 : 				_Ptr);	// copy suffix
; 1439 : 			_CATCH_ALL
; 1440 : 			_Destroy(_Newvec, _Ptr);
; 1441 : 			this->_Getal().deallocate(_Newvec, _Capacity);
; 1442 : 			_RERAISE;
; 1443 : 			_CATCH_END
; 1444 : 
; 1445 : 			_Count += size();
; 1446 : 			if (this->_Myfirst() != pointer())
; 1447 : 				{	// destroy and deallocate old array
; 1448 : 				_Destroy(this->_Myfirst(), this->_Mylast());
; 1449 : 				this->_Getal().deallocate(this->_Myfirst(),
; 1450 : 					this->_Myend() - this->_Myfirst());
; 1451 : 				}
; 1452 : 
; 1453 : 			this->_Orphan_all();
; 1454 : 			this->_Myend() = _Newvec + _Capacity;
; 1455 : 			this->_Mylast() = _Newvec + _Count;
; 1456 : 			this->_Myfirst() = _Newvec;
; 1457 : 			}
; 1458 : 		else
; 1459 : 			{	// new stuff fits, append and rotate into place
; 1460 : 			_Ucopy(_First, _Last, this->_Mylast());
; 1461 : 			_STD rotate(_VIPTR(_Where), this->_Mylast(),
; 1462 : 				this->_Mylast() + _Count);
; 1463 : 			this->_Mylast() += _Count;
; 1464 : 			_Orphan_range(_VIPTR(_Where), this->_Mylast());
; 1465 : 			}
; 1466 : 		}
; 1467 : 
; 1468 :  #if _ITERATOR_DEBUG_LEVEL == 2
; 1469 : 	iterator erase(const_iterator _Where)
; 1470 : 		{	// erase element at where
; 1471 : 		if (_VICONT(_Where) != &this->_Get_data()
; 1472 : 			|| _VIPTR(_Where) < this->_Myfirst()
; 1473 : 			|| this->_Mylast() <= _VIPTR(_Where))
; 1474 : 			_DEBUG_ERROR("vector erase iterator outside range");
; 1475 : 		_Move(_VIPTR(_Where) + 1, this->_Mylast(), _VIPTR(_Where));
; 1476 : 		_Destroy(this->_Mylast() - 1, this->_Mylast());
; 1477 : 		_Orphan_range(_VIPTR(_Where), this->_Mylast());
; 1478 : 		--this->_Mylast();
; 1479 : 		return (_Make_iter(_Where));
; 1480 : 		}
; 1481 : 
; 1482 :  #else /* _ITERATOR_DEBUG_LEVEL == 2 */
; 1483 : 	iterator erase(const_iterator _Where)
; 1484 : 		{	// erase element at where
; 1485 : 		_Move(_VIPTR(_Where) + 1, this->_Mylast(),
; 1486 : 			_VIPTR(_Where));
; 1487 : 		_Destroy(this->_Mylast() - 1, this->_Mylast());
; 1488 : 		--this->_Mylast();
; 1489 : 		return (_Make_iter(_Where));
; 1490 : 		}
; 1491 :  #endif /* _ITERATOR_DEBUG_LEVEL == 2 */
; 1492 : 
; 1493 : 	iterator erase(const_iterator _First_arg,
; 1494 : 		const_iterator _Last_arg)
; 1495 : 		{	// erase [_First, _Last)
; 1496 : 		if (_First_arg == begin() && _Last_arg == end())
; 1497 : 			clear();
; 1498 : 		else if (_First_arg != _Last_arg)
; 1499 : 			{	// clear partial
; 1500 : 			iterator _First = _Make_iter(_First_arg);
; 1501 : 			iterator _Last = _Make_iter(_Last_arg);
; 1502 : 
; 1503 : 			if (_First != _Last)
; 1504 : 				{	// worth doing, copy down over hole
; 1505 :  #if _ITERATOR_DEBUG_LEVEL == 2
; 1506 : 				if (_Last < _First || _VICONT(_First) != &this->_Get_data()
; 1507 : 					|| _VIPTR(_First) < this->_Myfirst()
; 1508 : 					|| this->_Mylast() < _VIPTR(_Last))
; 1509 : 					_DEBUG_ERROR("vector erase iterator outside range");
; 1510 : 				pointer _Ptr = _Move(_VIPTR(_Last), this->_Mylast(),
; 1511 : 					_VIPTR(_First));
; 1512 : 				_Orphan_range(_VIPTR(_First), this->_Mylast());
; 1513 : 
; 1514 :  #else /* _ITERATOR_DEBUG_LEVEL == 2 */
; 1515 : 				pointer _Ptr = _Move(_VIPTR(_Last), this->_Mylast(),
; 1516 : 					_VIPTR(_First));
; 1517 :  #endif /* _ITERATOR_DEBUG_LEVEL == 2 */
; 1518 : 
; 1519 : 				_Destroy(_Ptr, this->_Mylast());
; 1520 : 				this->_Mylast() = _Ptr;
; 1521 : 				}
; 1522 : 			}
; 1523 : 		return (_Make_iter(_First_arg));
; 1524 : 		}
; 1525 : 
; 1526 : 	void _Pop_back_n(size_type _Count)
; 1527 : 		{	// erase _Count elements at end
; 1528 : 		pointer _Ptr = this->_Mylast() - _Count;
; 1529 : 
; 1530 :  #if _ITERATOR_DEBUG_LEVEL == 2
; 1531 : 		_Orphan_range(_Ptr, this->_Mylast());
; 1532 :  #endif /* _ITERATOR_DEBUG_LEVEL == 2 */
; 1533 : 
; 1534 : 		_Destroy(_Ptr, this->_Mylast());
; 1535 : 		this->_Mylast() = _Ptr;
; 1536 : 		}
; 1537 : 
; 1538 : 	void clear() _NOEXCEPT
; 1539 : 		{	// erase all
; 1540 : 		this->_Orphan_all();
; 1541 : 		_Destroy(this->_Myfirst(), this->_Mylast());
; 1542 : 		this->_Mylast() = this->_Myfirst();
; 1543 : 		}
; 1544 : 
; 1545 : 	void swap(_Myt& _Right)
; 1546 : 		_NOEXCEPT_OP(_Alty::propagate_on_container_swap::value
; 1547 : 			|| _Alty::is_always_equal::value)
; 1548 : 		{	// exchange contents with _Right
; 1549 : 		if (this == &_Right)
; 1550 : 			;	// same object, do nothing
; 1551 : 		else if (this->_Getal() == _Right._Getal())
; 1552 : 			{	// same allocator, swap control information
; 1553 : 			this->_Swap_all(_Right);
; 1554 : 			_Swap_adl(this->_Myfirst(), _Right._Myfirst());
; 1555 : 			_Swap_adl(this->_Mylast(), _Right._Mylast());
; 1556 : 			_Swap_adl(this->_Myend(), _Right._Myend());
; 1557 : 			}
; 1558 : 
; 1559 : 		else if (_Alty::propagate_on_container_swap::value)
; 1560 : 			{	// swap allocators and control information
; 1561 : 			this->_Swap_alloc(_Right);
; 1562 : 			_Swap_adl(this->_Myfirst(), _Right._Myfirst());
; 1563 : 			_Swap_adl(this->_Mylast(), _Right._Mylast());
; 1564 : 			_Swap_adl(this->_Myend(), _Right._Myend());
; 1565 : 			}
; 1566 : 
; 1567 : 		else
; 1568 : 			{	// containers are incompatible
; 1569 :  #if _ITERATOR_DEBUG_LEVEL == 2
; 1570 : 			_DEBUG_ERROR("vector containers incompatible for swap");
; 1571 : 
; 1572 :  #else /* ITERATOR_DEBUG_LEVEL == 2 */
; 1573 : 			_XSTD terminate();
; 1574 :  #endif /* ITERATOR_DEBUG_LEVEL == 2 */
; 1575 : 			}
; 1576 : 		}
; 1577 : 
; 1578 : protected:
; 1579 : 	bool _Buy(size_type _Capacity)
; 1580 : 		{	// allocate array with _Capacity elements
; 1581 : 		this->_Myfirst() = pointer();
; 1582 : 		this->_Mylast() = pointer();
; 1583 : 		this->_Myend() = pointer();
; 1584 : 
; 1585 : 		if (_Capacity == 0)
; 1586 : 			return (false);
; 1587 : 		else if (max_size() < _Capacity)
; 1588 : 			_Xlen();	// result too long
; 1589 : 		else
; 1590 : 			{	// nonempty array, allocate storage
; 1591 : 			this->_Myfirst() = this->_Getal().allocate(_Capacity);
; 1592 : 			this->_Mylast() = this->_Myfirst();
; 1593 : 			this->_Myend() = this->_Myfirst() + _Capacity;
; 1594 : 			}
; 1595 : 		return (true);
; 1596 : 		}
; 1597 : 
; 1598 : 	void _Destroy(pointer _First, pointer _Last)
; 1599 : 		{	// destroy [_First, _Last) using allocator
; 1600 : 		_Destroy_range(_First, _Last, this->_Getal());
; 1601 : 		}
; 1602 : 
; 1603 : 	size_type _Grow_to(size_type _Count) const
; 1604 : 		{	// grow by 50% or at least to _Count
; 1605 : 		size_type _Capacity = capacity();
; 1606 : 
; 1607 : 		_Capacity = max_size() - _Capacity / 2 < _Capacity
; 1608 : 			? 0 : _Capacity + _Capacity / 2;	// try to grow by 50%
; 1609 : 		if (_Capacity < _Count)
; 1610 : 			_Capacity = _Count;
; 1611 : 		return (_Capacity);
; 1612 : 		}
; 1613 : 
; 1614 : 	bool _Inside(const value_type *_Ptr) const
; 1615 : 		{	// test if _Ptr points inside vector
; 1616 : 		return (_Ptr < this->_Mylast() && this->_Myfirst() <= _Ptr);
; 1617 : 		}
; 1618 : 
; 1619 : 	void _Reallocate(size_type _Count)
; 1620 : 		{	// move to array of exactly _Count elements
; 1621 : 		pointer _Ptr = this->_Getal().allocate(_Count);
; 1622 : 
; 1623 : 		_TRY_BEGIN
; 1624 : 		_Umove(this->_Myfirst(), this->_Mylast(), _Ptr);
; 1625 : 		_CATCH_ALL
; 1626 : 		this->_Getal().deallocate(_Ptr, _Count);
; 1627 : 		_RERAISE;
; 1628 : 		_CATCH_END
; 1629 : 
; 1630 : 		size_type _Size = size();
; 1631 : 		if (this->_Myfirst() != pointer())
; 1632 : 			{	// destroy and deallocate old array
; 1633 : 			_Destroy(this->_Myfirst(), this->_Mylast());
; 1634 : 			this->_Getal().deallocate(this->_Myfirst(),
; 1635 : 				this->_Myend() - this->_Myfirst());
; 1636 : 			}
; 1637 : 
; 1638 : 		this->_Orphan_all();
; 1639 : 		this->_Myend() = _Ptr + _Count;
; 1640 : 		this->_Mylast() = _Ptr + _Size;
; 1641 : 		this->_Myfirst() = _Ptr;
; 1642 : 		}
; 1643 : 
; 1644 : 	void _Reserve(size_type _Count)
; 1645 : 		{	// ensure room for _Count new elements, grow exponentially
; 1646 : 		if (_Unused_capacity() < _Count)
; 1647 : 			{	// need more room, try to get it
; 1648 : 			if (max_size() - size() < _Count)
; 1649 : 				_Xlen();
; 1650 : 			_Reallocate(_Grow_to(size() + _Count));
; 1651 : 			}
; 1652 : 		}
; 1653 : 
; 1654 : 	void _Tidy()
; 1655 : 		{	// free all storage
; 1656 : 		if (this->_Myfirst() != pointer())

  00003	8b 0e		 mov	 ecx, DWORD PTR [esi]
  00005	85 c9		 test	 ecx, ecx
  00007	74 25		 je	 SHORT $LN4@vector

; 1657 : 			{	// something to free, destroy and deallocate it
; 1658 : 			this->_Orphan_all();
; 1659 : 			_Destroy(this->_Myfirst(), this->_Mylast());
; 1660 : 			this->_Getal().deallocate(this->_Myfirst(),

  00009	8b 46 08	 mov	 eax, DWORD PTR [esi+8]
  0000c	2b c1		 sub	 eax, ecx
  0000e	c1 f8 03	 sar	 eax, 3
  00011	50		 push	 eax
  00012	51		 push	 ecx
  00013	8b ce		 mov	 ecx, esi
  00015	e8 00 00 00 00	 call	 ?deallocate@?$_Wrap_alloc@V?$allocator@URINGMONSTER_EVENT_TIME@@@std@@@std@@QAEXPAURINGMONSTER_EVENT_TIME@@I@Z ; std::_Wrap_alloc<std::allocator<RINGMONSTER_EVENT_TIME> >::deallocate

; 1661 : 				this->_Myend() - this->_Myfirst());
; 1662 : 			this->_Myfirst() = pointer();

  0001a	c7 06 00 00 00
	00		 mov	 DWORD PTR [esi], 0

; 1663 : 			this->_Mylast() = pointer();

  00020	c7 46 04 00 00
	00 00		 mov	 DWORD PTR [esi+4], 0

; 1664 : 			this->_Myend() = pointer();

  00027	c7 46 08 00 00
	00 00		 mov	 DWORD PTR [esi+8], 0
$LN4@vector:
  0002e	5e		 pop	 esi

; 975  : 		_Tidy();
; 976  : 		}

  0002f	c3		 ret	 0
??1?$vector@URINGMONSTER_EVENT_TIME@@V?$allocator@URINGMONSTER_EVENT_TIME@@@std@@@std@@QAE@XZ ENDP ; std::vector<RINGMONSTER_EVENT_TIME,std::allocator<RINGMONSTER_EVENT_TIME> >::~vector<RINGMONSTER_EVENT_TIME,std::allocator<RINGMONSTER_EVENT_TIME> >
_TEXT	ENDS
; Function compile flags: /Ogtp
; File c:\program files (x86)\microsoft visual studio 14.0\vc\include\vector
;	COMDAT ??0?$vector@URINGMONSTER_EVENT_TIME@@V?$allocator@URINGMONSTER_EVENT_TIME@@@std@@@std@@QAE@XZ
_TEXT	SEGMENT
??0?$vector@URINGMONSTER_EVENT_TIME@@V?$allocator@URINGMONSTER_EVENT_TIME@@@std@@@std@@QAE@XZ PROC ; std::vector<RINGMONSTER_EVENT_TIME,std::allocator<RINGMONSTER_EVENT_TIME> >::vector<RINGMONSTER_EVENT_TIME,std::allocator<RINGMONSTER_EVENT_TIME> >, COMDAT
; _this$ = ecx

; 480  : 		_Myfirst = pointer();

  00000	c7 01 00 00 00
	00		 mov	 DWORD PTR [ecx], 0

; 707  : 		}

  00006	8b c1		 mov	 eax, ecx

; 481  : 		_Mylast = pointer();

  00008	c7 41 04 00 00
	00 00		 mov	 DWORD PTR [ecx+4], 0

; 482  : 		_Myend = pointer();

  0000f	c7 41 08 00 00
	00 00		 mov	 DWORD PTR [ecx+8], 0

; 707  : 		}

  00016	c3		 ret	 0
??0?$vector@URINGMONSTER_EVENT_TIME@@V?$allocator@URINGMONSTER_EVENT_TIME@@@std@@@std@@QAE@XZ ENDP ; std::vector<RINGMONSTER_EVENT_TIME,std::allocator<RINGMONSTER_EVENT_TIME> >::vector<RINGMONSTER_EVENT_TIME,std::allocator<RINGMONSTER_EVENT_TIME> >
_TEXT	ENDS
; Function compile flags: /Ogtp
; File c:\program files (x86)\microsoft visual studio 14.0\vc\include\xutility
;	COMDAT ?_Get_second@?$_Compressed_pair@U?$_Wrap_alloc@V?$allocator@URINGMONSTER_EVENT_TIME@@@std@@@std@@V?$_Vector_val@U?$_Simple_types@URINGMONSTER_EVENT_TIME@@@std@@@2@$00@std@@QBEABV?$_Vector_val@U?$_Simple_types@URINGMONSTER_EVENT_TIME@@@std@@@2@XZ
_TEXT	SEGMENT
?_Get_second@?$_Compressed_pair@U?$_Wrap_alloc@V?$allocator@URINGMONSTER_EVENT_TIME@@@std@@@std@@V?$_Vector_val@U?$_Simple_types@URINGMONSTER_EVENT_TIME@@@std@@@2@$00@std@@QBEABV?$_Vector_val@U?$_Simple_types@URINGMONSTER_EVENT_TIME@@@std@@@2@XZ PROC ; std::_Compressed_pair<std::_Wrap_alloc<std::allocator<RINGMONSTER_EVENT_TIME> >,std::_Vector_val<std::_Simple_types<RINGMONSTER_EVENT_TIME> >,1>::_Get_second, COMDAT
; _this$ = ecx

; 319  : 		return (_Myval2);

  00000	8b c1		 mov	 eax, ecx

; 320  : 		}

  00002	c3		 ret	 0
?_Get_second@?$_Compressed_pair@U?$_Wrap_alloc@V?$allocator@URINGMONSTER_EVENT_TIME@@@std@@@std@@V?$_Vector_val@U?$_Simple_types@URINGMONSTER_EVENT_TIME@@@std@@@2@$00@std@@QBEABV?$_Vector_val@U?$_Simple_types@URINGMONSTER_EVENT_TIME@@@std@@@2@XZ ENDP ; std::_Compressed_pair<std::_Wrap_alloc<std::allocator<RINGMONSTER_EVENT_TIME> >,std::_Vector_val<std::_Simple_types<RINGMONSTER_EVENT_TIME> >,1>::_Get_second
_TEXT	ENDS
; Function compile flags: /Ogtp
; File c:\program files (x86)\microsoft visual studio 14.0\vc\include\xutility
;	COMDAT ?_Get_second@?$_Compressed_pair@U?$_Wrap_alloc@V?$allocator@URINGMONSTER_EVENT_TIME@@@std@@@std@@V?$_Vector_val@U?$_Simple_types@URINGMONSTER_EVENT_TIME@@@std@@@2@$00@std@@QAEAAV?$_Vector_val@U?$_Simple_types@URINGMONSTER_EVENT_TIME@@@std@@@2@XZ
_TEXT	SEGMENT
?_Get_second@?$_Compressed_pair@U?$_Wrap_alloc@V?$allocator@URINGMONSTER_EVENT_TIME@@@std@@@std@@V?$_Vector_val@U?$_Simple_types@URINGMONSTER_EVENT_TIME@@@std@@@2@$00@std@@QAEAAV?$_Vector_val@U?$_Simple_types@URINGMONSTER_EVENT_TIME@@@std@@@2@XZ PROC ; std::_Compressed_pair<std::_Wrap_alloc<std::allocator<RINGMONSTER_EVENT_TIME> >,std::_Vector_val<std::_Simple_types<RINGMONSTER_EVENT_TIME> >,1>::_Get_second, COMDAT
; _this$ = ecx

; 314  : 		return (_Myval2);

  00000	8b c1		 mov	 eax, ecx

; 315  : 		}

  00002	c3		 ret	 0
?_Get_second@?$_Compressed_pair@U?$_Wrap_alloc@V?$allocator@URINGMONSTER_EVENT_TIME@@@std@@@std@@V?$_Vector_val@U?$_Simple_types@URINGMONSTER_EVENT_TIME@@@std@@@2@$00@std@@QAEAAV?$_Vector_val@U?$_Simple_types@URINGMONSTER_EVENT_TIME@@@std@@@2@XZ ENDP ; std::_Compressed_pair<std::_Wrap_alloc<std::allocator<RINGMONSTER_EVENT_TIME> >,std::_Vector_val<std::_Simple_types<RINGMONSTER_EVENT_TIME> >,1>::_Get_second
_TEXT	ENDS
; Function compile flags: /Ogtp
; File c:\program files (x86)\microsoft visual studio 14.0\vc\include\xutility
;	COMDAT ?_Get_first@?$_Compressed_pair@U?$_Wrap_alloc@V?$allocator@URINGMONSTER_EVENT_TIME@@@std@@@std@@V?$_Vector_val@U?$_Simple_types@URINGMONSTER_EVENT_TIME@@@std@@@2@$00@std@@QBEABU?$_Wrap_alloc@V?$allocator@URINGMONSTER_EVENT_TIME@@@std@@@2@XZ
_TEXT	SEGMENT
?_Get_first@?$_Compressed_pair@U?$_Wrap_alloc@V?$allocator@URINGMONSTER_EVENT_TIME@@@std@@@std@@V?$_Vector_val@U?$_Simple_types@URINGMONSTER_EVENT_TIME@@@std@@@2@$00@std@@QBEABU?$_Wrap_alloc@V?$allocator@URINGMONSTER_EVENT_TIME@@@std@@@2@XZ PROC ; std::_Compressed_pair<std::_Wrap_alloc<std::allocator<RINGMONSTER_EVENT_TIME> >,std::_Vector_val<std::_Simple_types<RINGMONSTER_EVENT_TIME> >,1>::_Get_first, COMDAT
; _this$ = ecx

; 299  : 		return (*this);

  00000	8b c1		 mov	 eax, ecx

; 300  : 		}

  00002	c3		 ret	 0
?_Get_first@?$_Compressed_pair@U?$_Wrap_alloc@V?$allocator@URINGMONSTER_EVENT_TIME@@@std@@@std@@V?$_Vector_val@U?$_Simple_types@URINGMONSTER_EVENT_TIME@@@std@@@2@$00@std@@QBEABU?$_Wrap_alloc@V?$allocator@URINGMONSTER_EVENT_TIME@@@std@@@2@XZ ENDP ; std::_Compressed_pair<std::_Wrap_alloc<std::allocator<RINGMONSTER_EVENT_TIME> >,std::_Vector_val<std::_Simple_types<RINGMONSTER_EVENT_TIME> >,1>::_Get_first
_TEXT	ENDS
; Function compile flags: /Ogtp
; File c:\program files (x86)\microsoft visual studio 14.0\vc\include\xutility
;	COMDAT ?_Get_first@?$_Compressed_pair@U?$_Wrap_alloc@V?$allocator@URINGMONSTER_EVENT_TIME@@@std@@@std@@V?$_Vector_val@U?$_Simple_types@URINGMONSTER_EVENT_TIME@@@std@@@2@$00@std@@QAEAAU?$_Wrap_alloc@V?$allocator@URINGMONSTER_EVENT_TIME@@@std@@@2@XZ
_TEXT	SEGMENT
?_Get_first@?$_Compressed_pair@U?$_Wrap_alloc@V?$allocator@URINGMONSTER_EVENT_TIME@@@std@@@std@@V?$_Vector_val@U?$_Simple_types@URINGMONSTER_EVENT_TIME@@@std@@@2@$00@std@@QAEAAU?$_Wrap_alloc@V?$allocator@URINGMONSTER_EVENT_TIME@@@std@@@2@XZ PROC ; std::_Compressed_pair<std::_Wrap_alloc<std::allocator<RINGMONSTER_EVENT_TIME> >,std::_Vector_val<std::_Simple_types<RINGMONSTER_EVENT_TIME> >,1>::_Get_first, COMDAT
; _this$ = ecx

; 294  : 		return (*this);

  00000	8b c1		 mov	 eax, ecx

; 295  : 		}

  00002	c3		 ret	 0
?_Get_first@?$_Compressed_pair@U?$_Wrap_alloc@V?$allocator@URINGMONSTER_EVENT_TIME@@@std@@@std@@V?$_Vector_val@U?$_Simple_types@URINGMONSTER_EVENT_TIME@@@std@@@2@$00@std@@QAEAAU?$_Wrap_alloc@V?$allocator@URINGMONSTER_EVENT_TIME@@@std@@@2@XZ ENDP ; std::_Compressed_pair<std::_Wrap_alloc<std::allocator<RINGMONSTER_EVENT_TIME> >,std::_Vector_val<std::_Simple_types<RINGMONSTER_EVENT_TIME> >,1>::_Get_first
_TEXT	ENDS
; Function compile flags: /Ogtp
; File c:\program files (x86)\microsoft visual studio 14.0\vc\include\vector
;	COMDAT ??0?$_Vector_val@U?$_Simple_types@URINGMONSTER_EVENT_TIME@@@std@@@std@@QAE@XZ
_TEXT	SEGMENT
??0?$_Vector_val@U?$_Simple_types@URINGMONSTER_EVENT_TIME@@@std@@@std@@QAE@XZ PROC ; std::_Vector_val<std::_Simple_types<RINGMONSTER_EVENT_TIME> >::_Vector_val<std::_Simple_types<RINGMONSTER_EVENT_TIME> >, COMDAT
; _this$ = ecx

; 479  : 		{	// initialize values
; 480  : 		_Myfirst = pointer();

  00000	c7 01 00 00 00
	00		 mov	 DWORD PTR [ecx], 0

; 481  : 		_Mylast = pointer();
; 482  : 		_Myend = pointer();
; 483  : 		}

  00006	8b c1		 mov	 eax, ecx
  00008	c7 41 04 00 00
	00 00		 mov	 DWORD PTR [ecx+4], 0
  0000f	c7 41 08 00 00
	00 00		 mov	 DWORD PTR [ecx+8], 0
  00016	c3		 ret	 0
??0?$_Vector_val@U?$_Simple_types@URINGMONSTER_EVENT_TIME@@@std@@@std@@QAE@XZ ENDP ; std::_Vector_val<std::_Simple_types<RINGMONSTER_EVENT_TIME> >::_Vector_val<std::_Simple_types<RINGMONSTER_EVENT_TIME> >
_TEXT	ENDS
; Function compile flags: /Ogtp
; File c:\program files (x86)\microsoft visual studio 14.0\vc\include\vector
;	COMDAT ?_Myend@?$_Vector_alloc@U?$_Vec_base_types@URINGMONSTER_EVENT_TIME@@V?$allocator@URINGMONSTER_EVENT_TIME@@@std@@@std@@@std@@QBEABQAURINGMONSTER_EVENT_TIME@@XZ
_TEXT	SEGMENT
?_Myend@?$_Vector_alloc@U?$_Vec_base_types@URINGMONSTER_EVENT_TIME@@V?$allocator@URINGMONSTER_EVENT_TIME@@@std@@@std@@@std@@QBEABQAURINGMONSTER_EVENT_TIME@@XZ PROC ; std::_Vector_alloc<std::_Vec_base_types<RINGMONSTER_EVENT_TIME,std::allocator<RINGMONSTER_EVENT_TIME> > >::_Myend, COMDAT
; _this$ = ecx

; 667  : 		return (_Get_data()._Myend);

  00000	8d 41 08	 lea	 eax, DWORD PTR [ecx+8]

; 668  : 		}

  00003	c3		 ret	 0
?_Myend@?$_Vector_alloc@U?$_Vec_base_types@URINGMONSTER_EVENT_TIME@@V?$allocator@URINGMONSTER_EVENT_TIME@@@std@@@std@@@std@@QBEABQAURINGMONSTER_EVENT_TIME@@XZ ENDP ; std::_Vector_alloc<std::_Vec_base_types<RINGMONSTER_EVENT_TIME,std::allocator<RINGMONSTER_EVENT_TIME> > >::_Myend
_TEXT	ENDS
; Function compile flags: /Ogtp
; File c:\program files (x86)\microsoft visual studio 14.0\vc\include\vector
;	COMDAT ?_Myend@?$_Vector_alloc@U?$_Vec_base_types@URINGMONSTER_EVENT_TIME@@V?$allocator@URINGMONSTER_EVENT_TIME@@@std@@@std@@@std@@QAEAAPAURINGMONSTER_EVENT_TIME@@XZ
_TEXT	SEGMENT
?_Myend@?$_Vector_alloc@U?$_Vec_base_types@URINGMONSTER_EVENT_TIME@@V?$allocator@URINGMONSTER_EVENT_TIME@@@std@@@std@@@std@@QAEAAPAURINGMONSTER_EVENT_TIME@@XZ PROC ; std::_Vector_alloc<std::_Vec_base_types<RINGMONSTER_EVENT_TIME,std::allocator<RINGMONSTER_EVENT_TIME> > >::_Myend, COMDAT
; _this$ = ecx

; 662  : 		return (_Get_data()._Myend);

  00000	8d 41 08	 lea	 eax, DWORD PTR [ecx+8]

; 663  : 		}

  00003	c3		 ret	 0
?_Myend@?$_Vector_alloc@U?$_Vec_base_types@URINGMONSTER_EVENT_TIME@@V?$allocator@URINGMONSTER_EVENT_TIME@@@std@@@std@@@std@@QAEAAPAURINGMONSTER_EVENT_TIME@@XZ ENDP ; std::_Vector_alloc<std::_Vec_base_types<RINGMONSTER_EVENT_TIME,std::allocator<RINGMONSTER_EVENT_TIME> > >::_Myend
_TEXT	ENDS
; Function compile flags: /Ogtp
; File c:\program files (x86)\microsoft visual studio 14.0\vc\include\vector
;	COMDAT ?_Mylast@?$_Vector_alloc@U?$_Vec_base_types@URINGMONSTER_EVENT_TIME@@V?$allocator@URINGMONSTER_EVENT_TIME@@@std@@@std@@@std@@QBEABQAURINGMONSTER_EVENT_TIME@@XZ
_TEXT	SEGMENT
?_Mylast@?$_Vector_alloc@U?$_Vec_base_types@URINGMONSTER_EVENT_TIME@@V?$allocator@URINGMONSTER_EVENT_TIME@@@std@@@std@@@std@@QBEABQAURINGMONSTER_EVENT_TIME@@XZ PROC ; std::_Vector_alloc<std::_Vec_base_types<RINGMONSTER_EVENT_TIME,std::allocator<RINGMONSTER_EVENT_TIME> > >::_Mylast, COMDAT
; _this$ = ecx

; 657  : 		return (_Get_data()._Mylast);

  00000	8d 41 04	 lea	 eax, DWORD PTR [ecx+4]

; 658  : 		}

  00003	c3		 ret	 0
?_Mylast@?$_Vector_alloc@U?$_Vec_base_types@URINGMONSTER_EVENT_TIME@@V?$allocator@URINGMONSTER_EVENT_TIME@@@std@@@std@@@std@@QBEABQAURINGMONSTER_EVENT_TIME@@XZ ENDP ; std::_Vector_alloc<std::_Vec_base_types<RINGMONSTER_EVENT_TIME,std::allocator<RINGMONSTER_EVENT_TIME> > >::_Mylast
_TEXT	ENDS
; Function compile flags: /Ogtp
; File c:\program files (x86)\microsoft visual studio 14.0\vc\include\vector
;	COMDAT ?_Mylast@?$_Vector_alloc@U?$_Vec_base_types@URINGMONSTER_EVENT_TIME@@V?$allocator@URINGMONSTER_EVENT_TIME@@@std@@@std@@@std@@QAEAAPAURINGMONSTER_EVENT_TIME@@XZ
_TEXT	SEGMENT
?_Mylast@?$_Vector_alloc@U?$_Vec_base_types@URINGMONSTER_EVENT_TIME@@V?$allocator@URINGMONSTER_EVENT_TIME@@@std@@@std@@@std@@QAEAAPAURINGMONSTER_EVENT_TIME@@XZ PROC ; std::_Vector_alloc<std::_Vec_base_types<RINGMONSTER_EVENT_TIME,std::allocator<RINGMONSTER_EVENT_TIME> > >::_Mylast, COMDAT
; _this$ = ecx

; 652  : 		return (_Get_data()._Mylast);

  00000	8d 41 04	 lea	 eax, DWORD PTR [ecx+4]

; 653  : 		}

  00003	c3		 ret	 0
?_Mylast@?$_Vector_alloc@U?$_Vec_base_types@URINGMONSTER_EVENT_TIME@@V?$allocator@URINGMONSTER_EVENT_TIME@@@std@@@std@@@std@@QAEAAPAURINGMONSTER_EVENT_TIME@@XZ ENDP ; std::_Vector_alloc<std::_Vec_base_types<RINGMONSTER_EVENT_TIME,std::allocator<RINGMONSTER_EVENT_TIME> > >::_Mylast
_TEXT	ENDS
; Function compile flags: /Ogtp
; File c:\program files (x86)\microsoft visual studio 14.0\vc\include\vector
;	COMDAT ?_Myfirst@?$_Vector_alloc@U?$_Vec_base_types@URINGMONSTER_EVENT_TIME@@V?$allocator@URINGMONSTER_EVENT_TIME@@@std@@@std@@@std@@QBEABQAURINGMONSTER_EVENT_TIME@@XZ
_TEXT	SEGMENT
?_Myfirst@?$_Vector_alloc@U?$_Vec_base_types@URINGMONSTER_EVENT_TIME@@V?$allocator@URINGMONSTER_EVENT_TIME@@@std@@@std@@@std@@QBEABQAURINGMONSTER_EVENT_TIME@@XZ PROC ; std::_Vector_alloc<std::_Vec_base_types<RINGMONSTER_EVENT_TIME,std::allocator<RINGMONSTER_EVENT_TIME> > >::_Myfirst, COMDAT
; _this$ = ecx

; 647  : 		return (_Get_data()._Myfirst);

  00000	8b c1		 mov	 eax, ecx

; 648  : 		}

  00002	c3		 ret	 0
?_Myfirst@?$_Vector_alloc@U?$_Vec_base_types@URINGMONSTER_EVENT_TIME@@V?$allocator@URINGMONSTER_EVENT_TIME@@@std@@@std@@@std@@QBEABQAURINGMONSTER_EVENT_TIME@@XZ ENDP ; std::_Vector_alloc<std::_Vec_base_types<RINGMONSTER_EVENT_TIME,std::allocator<RINGMONSTER_EVENT_TIME> > >::_Myfirst
_TEXT	ENDS
; Function compile flags: /Ogtp
; File c:\program files (x86)\microsoft visual studio 14.0\vc\include\vector
;	COMDAT ?_Myfirst@?$_Vector_alloc@U?$_Vec_base_types@URINGMONSTER_EVENT_TIME@@V?$allocator@URINGMONSTER_EVENT_TIME@@@std@@@std@@@std@@QAEAAPAURINGMONSTER_EVENT_TIME@@XZ
_TEXT	SEGMENT
?_Myfirst@?$_Vector_alloc@U?$_Vec_base_types@URINGMONSTER_EVENT_TIME@@V?$allocator@URINGMONSTER_EVENT_TIME@@@std@@@std@@@std@@QAEAAPAURINGMONSTER_EVENT_TIME@@XZ PROC ; std::_Vector_alloc<std::_Vec_base_types<RINGMONSTER_EVENT_TIME,std::allocator<RINGMONSTER_EVENT_TIME> > >::_Myfirst, COMDAT
; _this$ = ecx

; 642  : 		return (_Get_data()._Myfirst);

  00000	8b c1		 mov	 eax, ecx

; 643  : 		}

  00002	c3		 ret	 0
?_Myfirst@?$_Vector_alloc@U?$_Vec_base_types@URINGMONSTER_EVENT_TIME@@V?$allocator@URINGMONSTER_EVENT_TIME@@@std@@@std@@@std@@QAEAAPAURINGMONSTER_EVENT_TIME@@XZ ENDP ; std::_Vector_alloc<std::_Vec_base_types<RINGMONSTER_EVENT_TIME,std::allocator<RINGMONSTER_EVENT_TIME> > >::_Myfirst
_TEXT	ENDS
; Function compile flags: /Ogtp
; File c:\program files (x86)\microsoft visual studio 14.0\vc\include\vector
;	COMDAT ?_Get_data@?$_Vector_alloc@U?$_Vec_base_types@URINGMONSTER_EVENT_TIME@@V?$allocator@URINGMONSTER_EVENT_TIME@@@std@@@std@@@std@@QBEABV?$_Vector_val@U?$_Simple_types@URINGMONSTER_EVENT_TIME@@@std@@@2@XZ
_TEXT	SEGMENT
?_Get_data@?$_Vector_alloc@U?$_Vec_base_types@URINGMONSTER_EVENT_TIME@@V?$allocator@URINGMONSTER_EVENT_TIME@@@std@@@std@@@std@@QBEABV?$_Vector_val@U?$_Simple_types@URINGMONSTER_EVENT_TIME@@@std@@@2@XZ PROC ; std::_Vector_alloc<std::_Vec_base_types<RINGMONSTER_EVENT_TIME,std::allocator<RINGMONSTER_EVENT_TIME> > >::_Get_data, COMDAT
; _this$ = ecx

; 637  : 		return (_Mypair._Get_second());

  00000	8b c1		 mov	 eax, ecx

; 638  : 		}

  00002	c3		 ret	 0
?_Get_data@?$_Vector_alloc@U?$_Vec_base_types@URINGMONSTER_EVENT_TIME@@V?$allocator@URINGMONSTER_EVENT_TIME@@@std@@@std@@@std@@QBEABV?$_Vector_val@U?$_Simple_types@URINGMONSTER_EVENT_TIME@@@std@@@2@XZ ENDP ; std::_Vector_alloc<std::_Vec_base_types<RINGMONSTER_EVENT_TIME,std::allocator<RINGMONSTER_EVENT_TIME> > >::_Get_data
_TEXT	ENDS
; Function compile flags: /Ogtp
; File c:\program files (x86)\microsoft visual studio 14.0\vc\include\vector
;	COMDAT ?_Get_data@?$_Vector_alloc@U?$_Vec_base_types@URINGMONSTER_EVENT_TIME@@V?$allocator@URINGMONSTER_EVENT_TIME@@@std@@@std@@@std@@QAEAAV?$_Vector_val@U?$_Simple_types@URINGMONSTER_EVENT_TIME@@@std@@@2@XZ
_TEXT	SEGMENT
?_Get_data@?$_Vector_alloc@U?$_Vec_base_types@URINGMONSTER_EVENT_TIME@@V?$allocator@URINGMONSTER_EVENT_TIME@@@std@@@std@@@std@@QAEAAV?$_Vector_val@U?$_Simple_types@URINGMONSTER_EVENT_TIME@@@std@@@2@XZ PROC ; std::_Vector_alloc<std::_Vec_base_types<RINGMONSTER_EVENT_TIME,std::allocator<RINGMONSTER_EVENT_TIME> > >::_Get_data, COMDAT
; _this$ = ecx

; 632  : 		return (_Mypair._Get_second());

  00000	8b c1		 mov	 eax, ecx

; 633  : 		}

  00002	c3		 ret	 0
?_Get_data@?$_Vector_alloc@U?$_Vec_base_types@URINGMONSTER_EVENT_TIME@@V?$allocator@URINGMONSTER_EVENT_TIME@@@std@@@std@@@std@@QAEAAV?$_Vector_val@U?$_Simple_types@URINGMONSTER_EVENT_TIME@@@std@@@2@XZ ENDP ; std::_Vector_alloc<std::_Vec_base_types<RINGMONSTER_EVENT_TIME,std::allocator<RINGMONSTER_EVENT_TIME> > >::_Get_data
_TEXT	ENDS
; Function compile flags: /Ogtp
; File c:\program files (x86)\microsoft visual studio 14.0\vc\include\vector
;	COMDAT ?_Getal@?$_Vector_alloc@U?$_Vec_base_types@URINGMONSTER_EVENT_TIME@@V?$allocator@URINGMONSTER_EVENT_TIME@@@std@@@std@@@std@@QBEABU?$_Wrap_alloc@V?$allocator@URINGMONSTER_EVENT_TIME@@@std@@@2@XZ
_TEXT	SEGMENT
?_Getal@?$_Vector_alloc@U?$_Vec_base_types@URINGMONSTER_EVENT_TIME@@V?$allocator@URINGMONSTER_EVENT_TIME@@@std@@@std@@@std@@QBEABU?$_Wrap_alloc@V?$allocator@URINGMONSTER_EVENT_TIME@@@std@@@2@XZ PROC ; std::_Vector_alloc<std::_Vec_base_types<RINGMONSTER_EVENT_TIME,std::allocator<RINGMONSTER_EVENT_TIME> > >::_Getal, COMDAT
; _this$ = ecx

; 627  : 		return (_Mypair._Get_first());

  00000	8b c1		 mov	 eax, ecx

; 628  : 		}

  00002	c3		 ret	 0
?_Getal@?$_Vector_alloc@U?$_Vec_base_types@URINGMONSTER_EVENT_TIME@@V?$allocator@URINGMONSTER_EVENT_TIME@@@std@@@std@@@std@@QBEABU?$_Wrap_alloc@V?$allocator@URINGMONSTER_EVENT_TIME@@@std@@@2@XZ ENDP ; std::_Vector_alloc<std::_Vec_base_types<RINGMONSTER_EVENT_TIME,std::allocator<RINGMONSTER_EVENT_TIME> > >::_Getal
_TEXT	ENDS
; Function compile flags: /Ogtp
; File c:\program files (x86)\microsoft visual studio 14.0\vc\include\vector
;	COMDAT ?_Getal@?$_Vector_alloc@U?$_Vec_base_types@URINGMONSTER_EVENT_TIME@@V?$allocator@URINGMONSTER_EVENT_TIME@@@std@@@std@@@std@@QAEAAU?$_Wrap_alloc@V?$allocator@URINGMONSTER_EVENT_TIME@@@std@@@2@XZ
_TEXT	SEGMENT
?_Getal@?$_Vector_alloc@U?$_Vec_base_types@URINGMONSTER_EVENT_TIME@@V?$allocator@URINGMONSTER_EVENT_TIME@@@std@@@std@@@std@@QAEAAU?$_Wrap_alloc@V?$allocator@URINGMONSTER_EVENT_TIME@@@std@@@2@XZ PROC ; std::_Vector_alloc<std::_Vec_base_types<RINGMONSTER_EVENT_TIME,std::allocator<RINGMONSTER_EVENT_TIME> > >::_Getal, COMDAT
; _this$ = ecx

; 622  : 		return (_Mypair._Get_first());

  00000	8b c1		 mov	 eax, ecx

; 623  : 		}

  00002	c3		 ret	 0
?_Getal@?$_Vector_alloc@U?$_Vec_base_types@URINGMONSTER_EVENT_TIME@@V?$allocator@URINGMONSTER_EVENT_TIME@@@std@@@std@@@std@@QAEAAU?$_Wrap_alloc@V?$allocator@URINGMONSTER_EVENT_TIME@@@std@@@2@XZ ENDP ; std::_Vector_alloc<std::_Vec_base_types<RINGMONSTER_EVENT_TIME,std::allocator<RINGMONSTER_EVENT_TIME> > >::_Getal
_TEXT	ENDS
; Function compile flags: /Ogtp
; File c:\program files (x86)\microsoft visual studio 14.0\vc\include\vector
;	COMDAT ?_Orphan_all@?$_Vector_alloc@U?$_Vec_base_types@URINGMONSTER_EVENT_TIME@@V?$allocator@URINGMONSTER_EVENT_TIME@@@std@@@std@@@std@@QAEXXZ
_TEXT	SEGMENT
?_Orphan_all@?$_Vector_alloc@U?$_Vec_base_types@URINGMONSTER_EVENT_TIME@@V?$allocator@URINGMONSTER_EVENT_TIME@@@std@@@std@@@std@@QAEXXZ PROC ; std::_Vector_alloc<std::_Vec_base_types<RINGMONSTER_EVENT_TIME,std::allocator<RINGMONSTER_EVENT_TIME> > >::_Orphan_all, COMDAT
; _this$ = ecx

; 612  : 		_Get_data()._Orphan_all();
; 613  : 		}

  00000	c3		 ret	 0
?_Orphan_all@?$_Vector_alloc@U?$_Vec_base_types@URINGMONSTER_EVENT_TIME@@V?$allocator@URINGMONSTER_EVENT_TIME@@@std@@@std@@@std@@QAEXXZ ENDP ; std::_Vector_alloc<std::_Vec_base_types<RINGMONSTER_EVENT_TIME,std::allocator<RINGMONSTER_EVENT_TIME> > >::_Orphan_all
_TEXT	ENDS
; Function compile flags: /Ogtp
; File c:\program files (x86)\microsoft visual studio 14.0\vc\include\vector
;	COMDAT ??0?$_Vector_alloc@U?$_Vec_base_types@URINGMONSTER_EVENT_TIME@@V?$allocator@URINGMONSTER_EVENT_TIME@@@std@@@std@@@std@@QAE@ABV?$allocator@URINGMONSTER_EVENT_TIME@@@1@@Z
_TEXT	SEGMENT
__Al$ = 8						; size = 4
??0?$_Vector_alloc@U?$_Vec_base_types@URINGMONSTER_EVENT_TIME@@V?$allocator@URINGMONSTER_EVENT_TIME@@@std@@@std@@@std@@QAE@ABV?$allocator@URINGMONSTER_EVENT_TIME@@@1@@Z PROC ; std::_Vector_alloc<std::_Vec_base_types<RINGMONSTER_EVENT_TIME,std::allocator<RINGMONSTER_EVENT_TIME> > >::_Vector_alloc<std::_Vec_base_types<RINGMONSTER_EVENT_TIME,std::allocator<RINGMONSTER_EVENT_TIME> > >, COMDAT
; _this$ = ecx

; 480  : 		_Myfirst = pointer();

  00000	c7 01 00 00 00
	00		 mov	 DWORD PTR [ecx], 0

; 515  : 		}

  00006	8b c1		 mov	 eax, ecx

; 481  : 		_Mylast = pointer();

  00008	c7 41 04 00 00
	00 00		 mov	 DWORD PTR [ecx+4], 0

; 482  : 		_Myend = pointer();

  0000f	c7 41 08 00 00
	00 00		 mov	 DWORD PTR [ecx+8], 0

; 515  : 		}

  00016	c2 04 00	 ret	 4
??0?$_Vector_alloc@U?$_Vec_base_types@URINGMONSTER_EVENT_TIME@@V?$allocator@URINGMONSTER_EVENT_TIME@@@std@@@std@@@std@@QAE@ABV?$allocator@URINGMONSTER_EVENT_TIME@@@1@@Z ENDP ; std::_Vector_alloc<std::_Vec_base_types<RINGMONSTER_EVENT_TIME,std::allocator<RINGMONSTER_EVENT_TIME> > >::_Vector_alloc<std::_Vec_base_types<RINGMONSTER_EVENT_TIME,std::allocator<RINGMONSTER_EVENT_TIME> > >
_TEXT	ENDS
; Function compile flags: /Ogtp
; File c:\program files (x86)\microsoft visual studio 14.0\vc\include\xmemory0
;	COMDAT ?max_size@?$_Wrap_alloc@V?$allocator@URINGMONSTER_EVENT_TIME@@@std@@@std@@QBEIU_Nil@2@@Z
_TEXT	SEGMENT
___formal$ = 8						; size = 1
?max_size@?$_Wrap_alloc@V?$allocator@URINGMONSTER_EVENT_TIME@@@std@@@std@@QBEIU_Nil@2@@Z PROC ; std::_Wrap_alloc<std::allocator<RINGMONSTER_EVENT_TIME> >::max_size, COMDAT
; _this$ = ecx

; 930  : 		return (_Mytraits::max_size(*this));

  00000	b8 ff ff ff 1f	 mov	 eax, 536870911		; 1fffffffH

; 931  : 		}

  00005	c2 04 00	 ret	 4
?max_size@?$_Wrap_alloc@V?$allocator@URINGMONSTER_EVENT_TIME@@@std@@@std@@QBEIU_Nil@2@@Z ENDP ; std::_Wrap_alloc<std::allocator<RINGMONSTER_EVENT_TIME> >::max_size
_TEXT	ENDS
; Function compile flags: /Ogtp
; File c:\program files (x86)\microsoft visual studio 14.0\vc\include\xmemory0
;	COMDAT ?deallocate@?$_Wrap_alloc@V?$allocator@URINGMONSTER_EVENT_TIME@@@std@@@std@@QAEXPAURINGMONSTER_EVENT_TIME@@I@Z
_TEXT	SEGMENT
__Ptr$ = 8						; size = 4
__Count$ = 12						; size = 4
?deallocate@?$_Wrap_alloc@V?$allocator@URINGMONSTER_EVENT_TIME@@@std@@@std@@QAEXPAURINGMONSTER_EVENT_TIME@@I@Z PROC ; std::_Wrap_alloc<std::allocator<RINGMONSTER_EVENT_TIME> >::deallocate, COMDAT
; _this$ = ecx

; 908  : 		{	// deallocate object at _Ptr, ignore size

  00000	55		 push	 ebp
  00001	8b ec		 mov	 ebp, esp

; 100  : 	_SCL_SECURE_ALWAYS_VALIDATE(_Count <= (size_t)(-1) / _Sz);

  00003	8b 45 0c	 mov	 eax, DWORD PTR __Count$[ebp]

; 139  : 	}
; 140  : 
; 141  : 		// TEMPLATE FUNCTION _Construct
; 142  : template<class _Ty1,
; 143  : 	class _Ty2> inline
; 144  : 	void _Construct(_Ty1 *_Ptr, _Ty2&& _Val)
; 145  : 	{	// construct object at _Ptr with value _Val
; 146  : 	void *_Vptr = _Ptr;
; 147  : 	::new (_Vptr) _Ty1(_STD forward<_Ty2>(_Val));
; 148  : 	}
; 149  : 
; 150  : template<class _Ty1> inline
; 151  : 	void _Construct(_Ty1 *_Ptr)
; 152  : 	{	// construct object at _Ptr with default value
; 153  : 	void *_Vptr = _Ptr;
; 154  : 
; 155  : 	::new (_Vptr) _Ty1();
; 156  : 	}
; 157  : 
; 158  : 		// TEMPLATE FUNCTION _Destroy
; 159  : template<class _Ty> inline
; 160  : 	void _Destroy(_Ty *_Ptr)
; 161  : 	{	// destroy object at _Ptr
; 162  : 	_Ptr->~_Ty();
; 163  : 	}
; 164  : 
; 165  : 		// TEMPLATE FUNCTION _Destroy_range
; 166  : template<class _Alloc> inline
; 167  : 	void _Destroy_range(typename _Alloc::pointer _First,
; 168  : 		typename _Alloc::pointer _Last, _Alloc& _Al,
; 169  : 		_Nonscalar_ptr_iterator_tag)
; 170  : 	{	// destroy [_First, _Last), arbitrary type
; 171  : 	for (; _First != _Last; ++_First)
; 172  : 		_Al.destroy(_STD addressof(*_First));
; 173  : 	}
; 174  : 
; 175  : template<class _Alloc> inline
; 176  : 	void _Destroy_range(typename _Alloc::pointer _First,
; 177  : 		typename _Alloc::pointer _Last, _Alloc& _Al,
; 178  : 		_Scalar_ptr_iterator_tag)
; 179  : 	{	// destroy [_First, _Last), scalar type (do nothing)
; 180  : 	}
; 181  : 
; 182  : template<class _Alloc> inline
; 183  : 	void _Destroy_range(typename _Alloc::pointer _First,
; 184  : 		typename _Alloc::pointer _Last, _Alloc& _Al)
; 185  : 	{	// destroy [_First, _Last)
; 186  : 	_Destroy_range(_First, _Last, _Al, _Ptr_cat(_First, _Last));
; 187  : 	}
; 188  : 
; 189  : 		// TEMPLATE CLASS _Is_simple_alloc
; 190  : template<class _Alty>
; 191  : 	struct _Is_simple_alloc
; 192  : 		: _Cat_base<is_same<typename _Alty::size_type, size_t>::value
; 193  : 		&& is_same<typename _Alty::difference_type, ptrdiff_t>::value
; 194  : 		&& is_same<typename _Alty::pointer,
; 195  : 			typename _Alty::value_type *>::value
; 196  : 		&& is_same<typename _Alty::const_pointer,
; 197  : 			const typename _Alty::value_type *>::value
; 198  : 		&& is_same<typename _Alty::reference,
; 199  : 			typename _Alty::value_type&>::value
; 200  : 		&& is_same<typename _Alty::const_reference,
; 201  : 			const typename _Alty::value_type&>::value>
; 202  : 	{	// tests if allocator has simple addressing
; 203  : 	};
; 204  : 
; 205  : 		// TEMPLATE CLASS _Simple_types
; 206  : template<class _Value_type>
; 207  : 	struct _Simple_types
; 208  : 	{	// wraps types needed by iterators
; 209  : 	typedef _Value_type value_type;
; 210  : 	typedef size_t size_type;
; 211  : 	typedef ptrdiff_t difference_type;
; 212  : 	typedef value_type *pointer;
; 213  : 	typedef const value_type *const_pointer;
; 214  : 	typedef value_type& reference;
; 215  : 	typedef const value_type& const_reference;
; 216  : 	};
; 217  : 
; 218  : 		// TEMPLATE CLASS _Get_voidptr
; 219  : template<class _Alty,
; 220  : 	class _Pointer>
; 221  : 	struct _Get_voidptr
; 222  : 	{	// get void pointer for allocator
; 223  : 	typedef typename _Alty::template rebind<void>::other _Alvoid;
; 224  : 	typedef typename _Alvoid::pointer type;
; 225  : 	};
; 226  : 
; 227  : template<class _Alty,
; 228  : 	class _Ty>
; 229  : 	struct _Get_voidptr<_Alty, _Ty *>
; 230  : 	{	// get raw void pointer for allocator
; 231  : 	typedef void *type;
; 232  : 	};
; 233  : 
; 234  : 		// TEMPLATE STRUCT _Get_first_parameter
; 235  : template<class _Ty>
; 236  : 	struct _Get_first_parameter;
; 237  : 
; 238  : template<template<class, class...> class _Ty,
; 239  : 	class _First,
; 240  : 	class... _Rest>
; 241  : 	struct _Get_first_parameter<_Ty<_First, _Rest...> >
; 242  : 	{	// given _Ty<_First, _Rest...>, extract _First
; 243  : 	typedef _First type;
; 244  : 	};
; 245  : 
; 246  : 		// TEMPLATE STRUCT _Replace_first_parameter
; 247  : template<class _Newfirst,
; 248  : 	class _Ty>
; 249  : 	struct _Replace_first_parameter;
; 250  : 
; 251  : template<class _Newfirst,
; 252  : 	template<class, class...> class _Ty,
; 253  : 	class _First,
; 254  : 	class... _Rest>
; 255  : 	struct _Replace_first_parameter<_Newfirst, _Ty<_First, _Rest...> >
; 256  : 	{	// given _Ty<_First, _Rest...>, replace _First
; 257  : 	typedef _Ty<_Newfirst, _Rest...> type;
; 258  : 	};
; 259  : 
; 260  : 		// TEMPLATE STRUCT _Get_element_type
; 261  : template<class _Ty>
; 262  : 	struct _Get_element_type
; 263  : 	_GET_TYPE_OR_DEFAULT(element_type,
; 264  : 		typename _Get_first_parameter<_Uty>::type);
; 265  : 
; 266  : 		// TEMPLATE STRUCT _Get_ptr_difference_type
; 267  : template<class _Ty>
; 268  : 	struct _Get_ptr_difference_type
; 269  : 	_GET_TYPE_OR_DEFAULT(difference_type,
; 270  : 		ptrdiff_t);
; 271  : 
; 272  : 		// TEMPLATE STRUCT _Get_rebind_type
; 273  : template<class _Ty,
; 274  : 	class _Other>
; 275  : 	struct _Get_rebind_type
; 276  : 	_GET_TYPE_OR_DEFAULT(template rebind<_Other>::other,
; 277  : 		typename _Replace_first_parameter<_Other _COMMA _Uty>::type);
; 278  : 
; 279  : 		// TEMPLATE CLASS pointer_traits
; 280  : template<class _Ty>
; 281  : 	struct pointer_traits
; 282  : 	{	// defines traits for arbitrary pointers
; 283  : 	typedef typename _Get_element_type<_Ty>::type element_type;
; 284  : 	typedef _Ty pointer;
; 285  : 	typedef typename _Get_ptr_difference_type<_Ty>::type difference_type;
; 286  : 
; 287  : 	template<class _Other>
; 288  : 		using rebind = typename _Get_rebind_type<_Ty, _Other>::type;
; 289  : 
; 290  : 	typedef typename _If<is_void<element_type>::value,
; 291  : 		char&,
; 292  : 		typename add_lvalue_reference<element_type>::type>::type _Reftype;
; 293  : 
; 294  : 	static pointer pointer_to(_Reftype _Val)
; 295  : 		{	// convert raw reference to pointer
; 296  : 		return (_Ty::pointer_to(_Val));
; 297  : 		}
; 298  : 	};
; 299  : 
; 300  : 		// TEMPLATE CLASS pointer_traits<_Ty *>
; 301  : template<class _Ty>
; 302  : 	struct pointer_traits<_Ty *>
; 303  : 	{	// defines traits for raw pointers
; 304  : 	typedef _Ty element_type;
; 305  : 	typedef _Ty *pointer;
; 306  : 	typedef ptrdiff_t difference_type;
; 307  : 
; 308  : 	template<class _Other>
; 309  : 		using rebind = _Other *;
; 310  : 
; 311  : 	typedef typename _If<is_void<_Ty>::value,
; 312  : 		char&,
; 313  : 		typename add_lvalue_reference<_Ty>::type>::type _Reftype;
; 314  : 
; 315  : 	static pointer pointer_to(_Reftype _Val)
; 316  : 		{	// convert raw reference to pointer
; 317  : 		return (_STD addressof(_Val));
; 318  : 		}
; 319  : 	};
; 320  : 
; 321  : 		// TEMPLATE STRUCT _Get_pointer_type
; 322  : template<class _Ty>
; 323  : 	struct _Get_pointer_type
; 324  : 	_GET_TYPE_OR_DEFAULT(pointer,
; 325  : 		typename _Ty::value_type *);
; 326  : 
; 327  : 		// TEMPLATE STRUCT _Get_const_pointer_type
; 328  : template<class _Ty>
; 329  : 	struct _Get_const_pointer_type
; 330  : 	_GET_TYPE_OR_DEFAULT(const_pointer,
; 331  : 		typename pointer_traits<typename _Get_pointer_type<_Ty>::type>
; 332  : 			::template rebind<const typename _Ty::value_type>);
; 333  : 
; 334  : 		// TEMPLATE STRUCT _Get_void_pointer_type
; 335  : template<class _Ty>
; 336  : 	struct _Get_void_pointer_type
; 337  : 	_GET_TYPE_OR_DEFAULT(void_pointer,
; 338  : 		typename pointer_traits<typename _Get_pointer_type<_Ty>::type>
; 339  : 			::template rebind<void>);
; 340  : 
; 341  : 		// TEMPLATE STRUCT _Get_const_void_pointer_type
; 342  : template<class _Ty>
; 343  : 	struct _Get_const_void_pointer_type
; 344  : 	_GET_TYPE_OR_DEFAULT(const_void_pointer,
; 345  : 		typename pointer_traits<typename _Get_pointer_type<_Ty>::type>
; 346  : 			::template rebind<const void>);
; 347  : 
; 348  : 		// TEMPLATE STRUCT _Get_difference_type
; 349  : template<class _Ty>
; 350  : 	struct _Get_difference_type
; 351  : 	_GET_TYPE_OR_DEFAULT(difference_type,
; 352  : 		typename _Get_ptr_difference_type<
; 353  : 			typename _Get_pointer_type<_Ty>::type>::type);
; 354  : 
; 355  : 		// TEMPLATE STRUCT _Get_size_type
; 356  : template<class _Ty>
; 357  : 	struct _Get_size_type
; 358  : 	_GET_TYPE_OR_DEFAULT(size_type,
; 359  : 		typename make_unsigned<
; 360  : 			typename _Get_difference_type<_Ty>::type>::type);
; 361  : 
; 362  : 		// TEMPLATE STRUCT _Get_propagate_on_container_copy
; 363  : template<class _Ty>
; 364  : 	struct _Get_propagate_on_container_copy
; 365  : 	_GET_TYPE_OR_DEFAULT(propagate_on_container_copy_assignment,
; 366  : 		false_type);
; 367  : 
; 368  : 		// TEMPLATE STRUCT _Get_propagate_on_container_move
; 369  : template<class _Ty>
; 370  : 	struct _Get_propagate_on_container_move
; 371  : 	_GET_TYPE_OR_DEFAULT(propagate_on_container_move_assignment,
; 372  : 		false_type);
; 373  : 
; 374  : 		// TEMPLATE STRUCT _Get_propagate_on_container_swap
; 375  : template<class _Ty>
; 376  : 	struct _Get_propagate_on_container_swap
; 377  : 	_GET_TYPE_OR_DEFAULT(propagate_on_container_swap,
; 378  : 		false_type);
; 379  : 
; 380  : 		// TEMPLATE STRUCT _Get_is_always_equal
; 381  : template<class _Ty>
; 382  : 	struct _Get_is_always_equal
; 383  : 	_GET_TYPE_OR_DEFAULT(is_always_equal,
; 384  : 		typename is_empty<_Ty>::type);
; 385  : 
; 386  : 		// STRUCT _Alloc_allocate
; 387  : struct _Alloc_allocate
; 388  : 	{	// determines allocator_traits<_Alloc>
; 389  : 		// ::allocate(size_type, const_void_pointer)
; 390  : 
; 391  : 	template<class _Alloc,
; 392  : 		class _Size_type,
; 393  : 		class _Const_void_pointer>
; 394  : 		static auto _Fn(int, _Alloc& _Al,
; 395  : 			_Size_type _Count,
; 396  : 			_Const_void_pointer _Hint)
; 397  : 			-> decltype(_Al.allocate(_Count, _Hint))
; 398  : 		{	// call allocator supplied version
; 399  : 		return (_Al.allocate(_Count, _Hint));
; 400  : 		}
; 401  : 
; 402  : 	template<class _Alloc,
; 403  : 		class _Size_type,
; 404  : 		class _Const_void_pointer>
; 405  : 		static auto _Fn(_Wrap_int, _Alloc& _Al,
; 406  : 			_Size_type _Count,
; 407  : 			_Const_void_pointer)
; 408  : 			-> decltype(_Al.allocate(_Count))
; 409  : 		{	// call default version
; 410  : 		return (_Al.allocate(_Count));
; 411  : 		}
; 412  : 	};
; 413  : 
; 414  : 		// STRUCT _Alloc_construct
; 415  : struct _Alloc_construct
; 416  : 	{	// determines allocator_traits<_Ty>
; 417  : 		// ::construct(_Ty&, _Objty *, _Types&&...)
; 418  : 
; 419  : 	template<class _Ty,
; 420  : 		class _Objty,
; 421  : 		class... _Types>
; 422  : 		static auto _Fn(int, _Ty& _Al, _Objty *_Ptr,
; 423  : 			_Types&&... _Args)
; 424  : 			-> void_t<decltype(
; 425  : 				_Al.construct(_Ptr, _STD forward<_Types>(_Args)...))>
; 426  : 		{	// call allocator supplied version
; 427  : 		_Al.construct(_Ptr, _STD forward<_Types>(_Args)...);
; 428  : 		}
; 429  : 
; 430  : 	template<class _Ty,
; 431  : 		class _Objty,
; 432  : 		class... _Types>
; 433  : 		static void _Fn(_Wrap_int, _Ty&, _Objty *_Ptr,
; 434  : 			_Types&&... _Args)
; 435  : 		{	// call default version
; 436  : 		::new (static_cast<void *>(_Ptr))
; 437  : 			_Objty(_STD forward<_Types>(_Args)...);
; 438  : 		}
; 439  : 
; 440  : 	};
; 441  : 
; 442  : 		// STRUCT _Alloc_destroy
; 443  : struct _Alloc_destroy
; 444  : 	{	// determines allocator_traits<_Ty>::destroy(_Ty&, _Objty *)
; 445  : 	template<class _Ty,
; 446  : 		class _Objty>
; 447  : 		static auto _Fn(int, _Ty& _Al, _Objty *_Ptr)
; 448  : 			-> void_t<decltype(_Al.destroy(_Ptr))>
; 449  : 		{	// call allocator supplied version
; 450  : 		_Al.destroy(_Ptr);
; 451  : 		}
; 452  : 
; 453  : 	template<class _Ty,
; 454  : 		class _Objty>
; 455  : 		static void _Fn(_Wrap_int, _Ty&, _Objty *_Ptr)
; 456  : 		{	// call default version
; 457  : 		_Ptr->~_Objty();
; 458  : 		}
; 459  : 	};
; 460  : 
; 461  : 		// STRUCT _Alloc_max_size
; 462  : struct _Alloc_max_size
; 463  : 	{	// determines allocator_traits<_Ty>::max_size(const _Ty&)
; 464  : 	template<class _Ty>
; 465  : 		static auto _Fn(int, const _Ty& _Al) _NOEXCEPT
; 466  : 			-> decltype(_Al.max_size())
; 467  : 		{	// call allocator supplied version
; 468  : 		return (_Al.max_size());
; 469  : 		}
; 470  : 
; 471  : 	template<class _Ty>
; 472  : 		static auto _Fn(_Wrap_int, const _Ty&) _NOEXCEPT
; 473  : 			-> typename _Get_size_type<_Ty>::type
; 474  : 		{	// call default version
; 475  : 		return ((numeric_limits<typename _Get_size_type<_Ty>::type>::max)());
; 476  : 		}
; 477  : 	};
; 478  : 
; 479  : 		// STRUCT _Alloc_select
; 480  : struct _Alloc_select
; 481  : 	{	// determines allocator_traits<_Ty>
; 482  : 		// ::select_on_container_copy_construction(const _Alloc&)
; 483  : 
; 484  : 	template<class _Ty>
; 485  : 		static auto _Fn(int, const _Ty& _Al)
; 486  : 			-> decltype((_Ty)_Al.select_on_container_copy_construction())
; 487  : 		{	// call allocator supplied version
; 488  : 		return (_Al.select_on_container_copy_construction());
; 489  : 		}
; 490  : 
; 491  : 	template<class _Ty>
; 492  : 		static auto _Fn(_Wrap_int, const _Ty& _Al)
; 493  : 			-> _Ty
; 494  : 		{	// call default version
; 495  : 		return (_Al);
; 496  : 		}
; 497  : 	};
; 498  : 
; 499  : 		// TEMPLATE CLASS allocator_traits
; 500  : template<class _Alloc>
; 501  : 	struct allocator_traits
; 502  : 	{	// defines traits for allocators
; 503  : 	typedef _Alloc allocator_type;
; 504  : 	typedef typename _Alloc::value_type value_type;
; 505  : 
; 506  : 	typedef typename _Get_pointer_type<_Alloc>::type
; 507  : 		pointer;
; 508  : 	typedef typename _Get_const_pointer_type<_Alloc>::type
; 509  : 		const_pointer;
; 510  : 	typedef typename _Get_void_pointer_type<_Alloc>::type
; 511  : 		void_pointer;
; 512  : 	typedef typename _Get_const_void_pointer_type<_Alloc>::type
; 513  : 		const_void_pointer;
; 514  : 
; 515  : 	typedef typename _Get_size_type<_Alloc>::type size_type;
; 516  : 	typedef typename _Get_difference_type<_Alloc>::type difference_type;
; 517  : 
; 518  : 	typedef typename _Get_propagate_on_container_copy<_Alloc>::type
; 519  : 		propagate_on_container_copy_assignment;
; 520  : 	typedef typename _Get_propagate_on_container_move<_Alloc>::type
; 521  : 		propagate_on_container_move_assignment;
; 522  : 	typedef typename _Get_propagate_on_container_swap<_Alloc>::type
; 523  : 		propagate_on_container_swap;
; 524  : 	typedef typename _Get_is_always_equal<_Alloc>::type
; 525  : 		is_always_equal;
; 526  : 
; 527  : 	template<class _Other>
; 528  : 		using rebind_alloc = typename _Get_rebind_type<_Alloc, _Other>::type;
; 529  : 
; 530  : 	template<class _Other>
; 531  : 		using rebind_traits = allocator_traits<rebind_alloc<_Other> >;
; 532  : 
; 533  : 	static _DECLSPEC_ALLOCATOR pointer allocate(_Alloc& _Al, size_type _Count)
; 534  : 		{	// allocate array of _Count elements
; 535  : 		return (_Al.allocate(_Count));
; 536  : 		}
; 537  : 
; 538  : 	static _DECLSPEC_ALLOCATOR pointer allocate(_Alloc& _Al, size_type _Count,
; 539  : 		const_void_pointer _Hint)
; 540  : 		{	// allocate array of _Count elements, with hint
; 541  : 		return (_Alloc_allocate::_Fn(0, _Al, _Count, _Hint));
; 542  : 		}
; 543  : 
; 544  : 	static void deallocate(_Alloc& _Al,
; 545  : 		pointer _Ptr, size_type _Count)
; 546  : 		{	// deallocate _Count elements at _Ptr
; 547  : 		_Al.deallocate(_Ptr, _Count);
; 548  : 		}
; 549  : 
; 550  : 	template<class _Ty,
; 551  : 		class... _Types>
; 552  : 		static void construct(_Alloc& _Al, _Ty *_Ptr,
; 553  : 			_Types&&... _Args)
; 554  : 		{	// construct _Ty(_Types...) at _Ptr
; 555  : 		_Alloc_construct::_Fn(0, _Al, _Ptr,
; 556  : 			_STD forward<_Types>(_Args)...);
; 557  : 		}
; 558  : 
; 559  : 
; 560  : 	template<class _Ty>
; 561  : 		static void destroy(_Alloc& _Al, _Ty *_Ptr)
; 562  : 		{	// destroy object at _Ptr
; 563  : 		_Alloc_destroy::_Fn(0, _Al, _Ptr);
; 564  : 		}
; 565  : 
; 566  : 	static size_type max_size(const _Alloc& _Al) _NOEXCEPT
; 567  : 		{	// get maximum size
; 568  : 		return (_Alloc_max_size::_Fn(0, _Al));
; 569  : 		}
; 570  : 
; 571  : 	static _Alloc select_on_container_copy_construction(
; 572  : 		const _Alloc& _Al)
; 573  : 		{	// get allocator to use
; 574  : 		return (_Alloc_select::_Fn(0, _Al));
; 575  : 		}
; 576  : 	};
; 577  : 
; 578  : 		// TEMPLATE CLASS allocator
; 579  : template<class _Ty>
; 580  : 	class allocator
; 581  : 	{	// generic allocator for objects of class _Ty
; 582  : public:
; 583  : 	static_assert(!is_const<_Ty>::value,
; 584  : 		"The C++ Standard forbids containers of const elements "
; 585  : 		"because allocator<const T> is ill-formed.");
; 586  : 
; 587  : 	typedef _Ty value_type;
; 588  : 
; 589  : 	typedef value_type *pointer;
; 590  : 	typedef const value_type *const_pointer;
; 591  : 
; 592  : 	typedef value_type& reference;
; 593  : 	typedef const value_type& const_reference;
; 594  : 
; 595  : 	typedef size_t size_type;
; 596  : 	typedef ptrdiff_t difference_type;
; 597  : 
; 598  : 	typedef true_type propagate_on_container_move_assignment;
; 599  : 	typedef true_type is_always_equal;
; 600  : 
; 601  : 	template<class _Other>
; 602  : 		struct rebind
; 603  : 		{	// convert this type to allocator<_Other>
; 604  : 		typedef allocator<_Other> other;
; 605  : 		};
; 606  : 
; 607  : 	pointer address(reference _Val) const _NOEXCEPT
; 608  : 		{	// return address of mutable _Val
; 609  : 		return (_STD addressof(_Val));
; 610  : 		}
; 611  : 
; 612  : 	const_pointer address(const_reference _Val) const _NOEXCEPT
; 613  : 		{	// return address of nonmutable _Val
; 614  : 		return (_STD addressof(_Val));
; 615  : 		}
; 616  : 
; 617  : 	allocator() _THROW0()
; 618  : 		{	// construct default allocator (do nothing)
; 619  : 		}
; 620  : 
; 621  : 	allocator(const allocator<_Ty>&) _THROW0()
; 622  : 		{	// construct by copying (do nothing)
; 623  : 		}
; 624  : 
; 625  : 	template<class _Other>
; 626  : 		allocator(const allocator<_Other>&) _THROW0()
; 627  : 		{	// construct from a related allocator (do nothing)
; 628  : 		}
; 629  : 
; 630  : 	template<class _Other>
; 631  : 		allocator<_Ty>& operator=(const allocator<_Other>&)
; 632  : 		{	// assign from a related allocator (do nothing)
; 633  : 		return (*this);
; 634  : 		}
; 635  : 
; 636  : 	void deallocate(pointer _Ptr, size_type _Count)
; 637  : 		{	// deallocate object at _Ptr
; 638  : 		_Deallocate(_Ptr, _Count, sizeof (_Ty));

  00006	8b 4d 08	 mov	 ecx, DWORD PTR __Ptr$[ebp]

; 100  : 	_SCL_SECURE_ALWAYS_VALIDATE(_Count <= (size_t)(-1) / _Sz);

  00009	3d ff ff ff 1f	 cmp	 eax, 536870911		; 1fffffffH
  0000e	77 31		 ja	 SHORT $LN16@deallocate

; 101  : 	const size_t _User_size = _Count * _Sz;

  00010	c1 e0 03	 shl	 eax, 3

; 102  : 	if (_BIG_ALLOCATION_THRESHOLD <= _User_size)

  00013	3d 00 10 00 00	 cmp	 eax, 4096		; 00001000H
  00018	72 1a		 jb	 SHORT $LN7@deallocate

; 103  : 		{	// deallocate large block
; 104  : 		const uintptr_t _Ptr_user = reinterpret_cast<uintptr_t>(_Ptr);
; 105  : 		_SCL_SECURE_ALWAYS_VALIDATE(

  0001a	f6 c1 1f	 test	 cl, 31			; 0000001fH
  0001d	75 27		 jne	 SHORT $LN18@deallocate

; 106  : 			(_Ptr_user & (_BIG_ALLOCATION_ALIGNMENT - 1)) == 0);
; 107  : 		const uintptr_t _Ptr_ptr = _Ptr_user - sizeof(void *);
; 108  : 		const uintptr_t _Ptr_container =
; 109  : 			*reinterpret_cast<uintptr_t *>(_Ptr_ptr);

  0001f	8b 41 fc	 mov	 eax, DWORD PTR [ecx-4]

; 110  : 
; 111  :  #ifdef _DEBUG
; 112  : 		// If the following asserts, it likely means that we are performing
; 113  : 		// an aligned delete on memory coming from an unaligned allocation.
; 114  : 		_SCL_SECURE_ALWAYS_VALIDATE(
; 115  : 			reinterpret_cast<uintptr_t *>(_Ptr_ptr)[-1] ==
; 116  : 				_BIG_ALLOCATION_SENTINEL);
; 117  :  #endif /* _DEBUG */
; 118  : 
; 119  : 		// Extra paranoia on aligned allocation/deallocation
; 120  : 		_SCL_SECURE_ALWAYS_VALIDATE(_Ptr_container < _Ptr_user);

  00022	3b c1		 cmp	 eax, ecx
  00024	73 25		 jae	 SHORT $LN19@deallocate

; 121  : 
; 122  :  #ifdef _DEBUG
; 123  : 		_SCL_SECURE_ALWAYS_VALIDATE(2 * sizeof(void *)
; 124  : 			<= _Ptr_user - _Ptr_container);
; 125  : 
; 126  :  #else /* _DEBUG */
; 127  : 		_SCL_SECURE_ALWAYS_VALIDATE(sizeof(void *)

  00026	2b c8		 sub	 ecx, eax
  00028	83 f9 04	 cmp	 ecx, 4
  0002b	72 23		 jb	 SHORT $LN20@deallocate

; 128  : 			<= _Ptr_user - _Ptr_container);
; 129  :  #endif /* _DEBUG */
; 130  : 
; 131  : 		_SCL_SECURE_ALWAYS_VALIDATE(_Ptr_user - _Ptr_container

  0002d	83 f9 23	 cmp	 ecx, 35			; 00000023H
  00030	77 23		 ja	 SHORT $LN21@deallocate

; 132  : 			<= _NON_USER_SIZE);
; 133  : 
; 134  : 		_Ptr = reinterpret_cast<void *>(_Ptr_container);

  00032	8b c8		 mov	 ecx, eax
$LN7@deallocate:

; 135  : 		}
; 136  :  #endif /* defined(_M_IX86) || defined(_M_X64) */
; 137  : 
; 138  : 	::operator delete(_Ptr);

  00034	51		 push	 ecx
  00035	e8 00 00 00 00	 call	 ??3@YAXPAX@Z		; operator delete
  0003a	83 c4 04	 add	 esp, 4

; 909  : 		_Mybase::deallocate(_Ptr, _Count);
; 910  : 		}

  0003d	5d		 pop	 ebp
  0003e	c2 08 00	 ret	 8
$LN16@deallocate:

; 100  : 	_SCL_SECURE_ALWAYS_VALIDATE(_Count <= (size_t)(-1) / _Sz);

  00041	e8 00 00 00 00	 call	 __invalid_parameter_noinfo_noreturn
$LN22@deallocate:
$LN18@deallocate:

; 103  : 		{	// deallocate large block
; 104  : 		const uintptr_t _Ptr_user = reinterpret_cast<uintptr_t>(_Ptr);
; 105  : 		_SCL_SECURE_ALWAYS_VALIDATE(

  00046	e8 00 00 00 00	 call	 __invalid_parameter_noinfo_noreturn
$LN23@deallocate:
$LN19@deallocate:

; 110  : 
; 111  :  #ifdef _DEBUG
; 112  : 		// If the following asserts, it likely means that we are performing
; 113  : 		// an aligned delete on memory coming from an unaligned allocation.
; 114  : 		_SCL_SECURE_ALWAYS_VALIDATE(
; 115  : 			reinterpret_cast<uintptr_t *>(_Ptr_ptr)[-1] ==
; 116  : 				_BIG_ALLOCATION_SENTINEL);
; 117  :  #endif /* _DEBUG */
; 118  : 
; 119  : 		// Extra paranoia on aligned allocation/deallocation
; 120  : 		_SCL_SECURE_ALWAYS_VALIDATE(_Ptr_container < _Ptr_user);

  0004b	e8 00 00 00 00	 call	 __invalid_parameter_noinfo_noreturn
$LN24@deallocate:
$LN20@deallocate:

; 121  : 
; 122  :  #ifdef _DEBUG
; 123  : 		_SCL_SECURE_ALWAYS_VALIDATE(2 * sizeof(void *)
; 124  : 			<= _Ptr_user - _Ptr_container);
; 125  : 
; 126  :  #else /* _DEBUG */
; 127  : 		_SCL_SECURE_ALWAYS_VALIDATE(sizeof(void *)

  00050	e8 00 00 00 00	 call	 __invalid_parameter_noinfo_noreturn
$LN25@deallocate:
$LN21@deallocate:

; 128  : 			<= _Ptr_user - _Ptr_container);
; 129  :  #endif /* _DEBUG */
; 130  : 
; 131  : 		_SCL_SECURE_ALWAYS_VALIDATE(_Ptr_user - _Ptr_container

  00055	e8 00 00 00 00	 call	 __invalid_parameter_noinfo_noreturn
$LN26@deallocate:
$LN15@deallocate:
  0005a	cc		 int	 3
?deallocate@?$_Wrap_alloc@V?$allocator@URINGMONSTER_EVENT_TIME@@@std@@@std@@QAEXPAURINGMONSTER_EVENT_TIME@@I@Z ENDP ; std::_Wrap_alloc<std::allocator<RINGMONSTER_EVENT_TIME> >::deallocate
_TEXT	ENDS
; Function compile flags: /Ogtp
; File c:\program files (x86)\microsoft visual studio 14.0\vc\include\xmemory0
;	COMDAT ?allocate@?$_Wrap_alloc@V?$allocator@URINGMONSTER_EVENT_TIME@@@std@@@std@@QAEPAURINGMONSTER_EVENT_TIME@@I@Z
_TEXT	SEGMENT
__Count$ = 8						; size = 4
?allocate@?$_Wrap_alloc@V?$allocator@URINGMONSTER_EVENT_TIME@@@std@@@std@@QAEPAURINGMONSTER_EVENT_TIME@@I@Z PROC ; std::_Wrap_alloc<std::allocator<RINGMONSTER_EVENT_TIME> >::allocate, COMDAT
; _this$ = ecx

; 897  : 		{	// allocate array of _Count elements

  00000	55		 push	 ebp
  00001	8b ec		 mov	 ebp, esp

; 899  : 		}

  00003	5d		 pop	 ebp

; 898  : 		return (_Mybase::allocate(_Count));

  00004	e9 00 00 00 00	 jmp	 ?allocate@?$allocator@URINGMONSTER_EVENT_TIME@@@std@@QAEPAURINGMONSTER_EVENT_TIME@@I@Z ; std::allocator<RINGMONSTER_EVENT_TIME>::allocate
?allocate@?$_Wrap_alloc@V?$allocator@URINGMONSTER_EVENT_TIME@@@std@@@std@@QAEPAURINGMONSTER_EVENT_TIME@@I@Z ENDP ; std::_Wrap_alloc<std::allocator<RINGMONSTER_EVENT_TIME> >::allocate
_TEXT	ENDS
; Function compile flags: /Ogtp
; File c:\program files (x86)\microsoft visual studio 14.0\vc\include\xmemory0
;	COMDAT ??0?$_Wrap_alloc@V?$allocator@URINGMONSTER_EVENT_TIME@@@std@@@std@@QAE@ABV?$allocator@URINGMONSTER_EVENT_TIME@@@1@@Z
_TEXT	SEGMENT
__Right$ = 8						; size = 4
??0?$_Wrap_alloc@V?$allocator@URINGMONSTER_EVENT_TIME@@@std@@@std@@QAE@ABV?$allocator@URINGMONSTER_EVENT_TIME@@@1@@Z PROC ; std::_Wrap_alloc<std::allocator<RINGMONSTER_EVENT_TIME> >::_Wrap_alloc<std::allocator<RINGMONSTER_EVENT_TIME> >, COMDAT
; _this$ = ecx

; 858  : 		}

  00000	8b c1		 mov	 eax, ecx
  00002	c2 04 00	 ret	 4
??0?$_Wrap_alloc@V?$allocator@URINGMONSTER_EVENT_TIME@@@std@@@std@@QAE@ABV?$allocator@URINGMONSTER_EVENT_TIME@@@1@@Z ENDP ; std::_Wrap_alloc<std::allocator<RINGMONSTER_EVENT_TIME> >::_Wrap_alloc<std::allocator<RINGMONSTER_EVENT_TIME> >
_TEXT	ENDS
; Function compile flags: /Ogtp
; File c:\program files (x86)\microsoft visual studio 14.0\vc\include\xmemory0
;	COMDAT ?max_size@?$allocator_traits@V?$allocator@URINGMONSTER_EVENT_TIME@@@std@@@std@@SAIABV?$allocator@URINGMONSTER_EVENT_TIME@@@2@@Z
_TEXT	SEGMENT
__Al$ = 8						; size = 4
?max_size@?$allocator_traits@V?$allocator@URINGMONSTER_EVENT_TIME@@@std@@@std@@SAIABV?$allocator@URINGMONSTER_EVENT_TIME@@@2@@Z PROC ; std::allocator_traits<std::allocator<RINGMONSTER_EVENT_TIME> >::max_size, COMDAT

; 785  : 		return (_Al.max_size());

  00000	b8 ff ff ff 1f	 mov	 eax, 536870911		; 1fffffffH

; 786  : 		}

  00005	c3		 ret	 0
?max_size@?$allocator_traits@V?$allocator@URINGMONSTER_EVENT_TIME@@@std@@@std@@SAIABV?$allocator@URINGMONSTER_EVENT_TIME@@@2@@Z ENDP ; std::allocator_traits<std::allocator<RINGMONSTER_EVENT_TIME> >::max_size
_TEXT	ENDS
; Function compile flags: /Ogtp
; File c:\program files (x86)\microsoft visual studio 14.0\vc\include\xmemory0
;	COMDAT ?max_size@?$allocator@URINGMONSTER_EVENT_TIME@@@std@@QBEIXZ
_TEXT	SEGMENT
?max_size@?$allocator@URINGMONSTER_EVENT_TIME@@@std@@QBEIXZ PROC ; std::allocator<RINGMONSTER_EVENT_TIME>::max_size, COMDAT
; _this$ = ecx

; 667  : 		return ((size_t)(-1) / sizeof (_Ty));

  00000	b8 ff ff ff 1f	 mov	 eax, 536870911		; 1fffffffH

; 668  : 		}

  00005	c3		 ret	 0
?max_size@?$allocator@URINGMONSTER_EVENT_TIME@@@std@@QBEIXZ ENDP ; std::allocator<RINGMONSTER_EVENT_TIME>::max_size
_TEXT	ENDS
; Function compile flags: /Ogtp
; File c:\program files (x86)\microsoft visual studio 14.0\vc\include\xmemory0
;	COMDAT ?allocate@?$allocator@URINGMONSTER_EVENT_TIME@@@std@@QAEPAURINGMONSTER_EVENT_TIME@@I@Z
_TEXT	SEGMENT
__Count$ = 8						; size = 4
?allocate@?$allocator@URINGMONSTER_EVENT_TIME@@@std@@QAEPAURINGMONSTER_EVENT_TIME@@I@Z PROC ; std::allocator<RINGMONSTER_EVENT_TIME>::allocate, COMDAT
; _this$ = ecx

; 642  : 		{	// allocate array of _Count elements

  00000	55		 push	 ebp
  00001	8b ec		 mov	 ebp, esp

; 57   : 	if (_Count == 0)

  00003	8b 45 08	 mov	 eax, DWORD PTR __Count$[ebp]
  00006	85 c0		 test	 eax, eax
  00008	75 04		 jne	 SHORT $LN4@allocate
$LN12@allocate:

; 643  : 		return (static_cast<pointer>(_Allocate(_Count, sizeof (_Ty))));
; 644  : 		}

  0000a	5d		 pop	 ebp
  0000b	c2 04 00	 ret	 4
$LN4@allocate:

; 58   : 		return (_Ptr);
; 59   : 
; 60   : 	// check overflow of multiply
; 61   : 	if ((size_t)(-1) / _Sz < _Count)

  0000e	3d ff ff ff 1f	 cmp	 eax, 536870911		; 1fffffffH
  00013	77 3c		 ja	 SHORT $LN14@allocate

; 63   : 	const size_t _User_size = _Count * _Sz;

  00015	c1 e0 03	 shl	 eax, 3

; 64   : 
; 65   :  #if defined(_M_IX86) || defined(_M_X64)
; 66   : 	if (_Try_aligned_allocation
; 67   : 		&& _BIG_ALLOCATION_THRESHOLD <= _User_size)

  00018	3d 00 10 00 00	 cmp	 eax, 4096		; 00001000H
  0001d	72 23		 jb	 SHORT $LN6@allocate

; 68   : 		{	// allocate large block
; 69   : 		static_assert(sizeof (void *) < _BIG_ALLOCATION_ALIGNMENT,
; 70   : 			"Big allocations should at least match vector register size");
; 71   : 		const size_t _Block_size = _NON_USER_SIZE + _User_size;

  0001f	8d 48 23	 lea	 ecx, DWORD PTR [eax+35]

; 72   : 		if (_Block_size <= _User_size)

  00022	3b c8		 cmp	 ecx, eax
  00024	76 30		 jbe	 SHORT $LN16@allocate

; 74   : 		const uintptr_t _Ptr_container =
; 75   : 			reinterpret_cast<uintptr_t>(::operator new(_Block_size));

  00026	51		 push	 ecx
  00027	e8 00 00 00 00	 call	 ??2@YAPAXI@Z		; operator new
  0002c	8b c8		 mov	 ecx, eax
  0002e	83 c4 04	 add	 esp, 4

; 76   : 		_SCL_SECURE_ALWAYS_VALIDATE(_Ptr_container != 0);

  00031	85 c9		 test	 ecx, ecx
  00033	74 26		 je	 SHORT $LN17@allocate

; 77   : 		_Ptr = reinterpret_cast<void *>((_Ptr_container + _NON_USER_SIZE)

  00035	8d 41 23	 lea	 eax, DWORD PTR [ecx+35]
  00038	83 e0 e0	 and	 eax, -32		; ffffffe0H

; 78   : 			& ~(_BIG_ALLOCATION_ALIGNMENT - 1));
; 79   : 		static_cast<uintptr_t *>(_Ptr)[-1] = _Ptr_container;

  0003b	89 48 fc	 mov	 DWORD PTR [eax-4], ecx

; 643  : 		return (static_cast<pointer>(_Allocate(_Count, sizeof (_Ty))));
; 644  : 		}

  0003e	5d		 pop	 ebp
  0003f	c2 04 00	 ret	 4
$LN6@allocate:

; 80   : 
; 81   :  #ifdef _DEBUG
; 82   : 		static_cast<uintptr_t *>(_Ptr)[-2] = _BIG_ALLOCATION_SENTINEL;
; 83   :  #endif /* _DEBUG */
; 84   : 		}
; 85   : 	else
; 86   :  #endif /* defined(_M_IX86) || defined(_M_X64) */
; 87   : 
; 88   : 		{	// allocate normal block
; 89   : 		_Ptr = ::operator new(_User_size);

  00042	50		 push	 eax
  00043	e8 00 00 00 00	 call	 ??2@YAPAXI@Z		; operator new
  00048	83 c4 04	 add	 esp, 4

; 90   : 		_SCL_SECURE_ALWAYS_VALIDATE(_Ptr != 0);

  0004b	85 c0		 test	 eax, eax
  0004d	75 bb		 jne	 SHORT $LN12@allocate
  0004f	eb 0f		 jmp	 SHORT $LN18@allocate
$LN14@allocate:

; 62   : 		_Xbad_alloc();	// report no memory

  00051	e8 00 00 00 00	 call	 ?_Xbad_alloc@std@@YAXXZ	; std::_Xbad_alloc
$LN19@allocate:
$LN16@allocate:

; 73   : 			_Xbad_alloc();	// report no memory

  00056	e8 00 00 00 00	 call	 ?_Xbad_alloc@std@@YAXXZ	; std::_Xbad_alloc
$LN20@allocate:
$LN17@allocate:

; 76   : 		_SCL_SECURE_ALWAYS_VALIDATE(_Ptr_container != 0);

  0005b	e8 00 00 00 00	 call	 __invalid_parameter_noinfo_noreturn
$LN21@allocate:
$LN18@allocate:

; 90   : 		_SCL_SECURE_ALWAYS_VALIDATE(_Ptr != 0);

  00060	e8 00 00 00 00	 call	 __invalid_parameter_noinfo_noreturn
$LN22@allocate:
$LN13@allocate:
  00065	cc		 int	 3
?allocate@?$allocator@URINGMONSTER_EVENT_TIME@@@std@@QAEPAURINGMONSTER_EVENT_TIME@@I@Z ENDP ; std::allocator<RINGMONSTER_EVENT_TIME>::allocate
_TEXT	ENDS
; Function compile flags: /Ogtp
; File c:\program files (x86)\microsoft visual studio 14.0\vc\include\xmemory0
;	COMDAT ?deallocate@?$allocator@URINGMONSTER_EVENT_TIME@@@std@@QAEXPAURINGMONSTER_EVENT_TIME@@I@Z
_TEXT	SEGMENT
__Ptr$ = 8						; size = 4
__Count$ = 12						; size = 4
?deallocate@?$allocator@URINGMONSTER_EVENT_TIME@@@std@@QAEXPAURINGMONSTER_EVENT_TIME@@I@Z PROC ; std::allocator<RINGMONSTER_EVENT_TIME>::deallocate, COMDAT
; _this$ = ecx

; 637  : 		{	// deallocate object at _Ptr

  00000	55		 push	 ebp
  00001	8b ec		 mov	 ebp, esp

; 100  : 	_SCL_SECURE_ALWAYS_VALIDATE(_Count <= (size_t)(-1) / _Sz);

  00003	8b 45 0c	 mov	 eax, DWORD PTR __Count$[ebp]

; 638  : 		_Deallocate(_Ptr, _Count, sizeof (_Ty));

  00006	8b 4d 08	 mov	 ecx, DWORD PTR __Ptr$[ebp]

; 100  : 	_SCL_SECURE_ALWAYS_VALIDATE(_Count <= (size_t)(-1) / _Sz);

  00009	3d ff ff ff 1f	 cmp	 eax, 536870911		; 1fffffffH
  0000e	77 31		 ja	 SHORT $LN13@deallocate

; 101  : 	const size_t _User_size = _Count * _Sz;

  00010	c1 e0 03	 shl	 eax, 3

; 102  : 	if (_BIG_ALLOCATION_THRESHOLD <= _User_size)

  00013	3d 00 10 00 00	 cmp	 eax, 4096		; 00001000H
  00018	72 1a		 jb	 SHORT $LN5@deallocate

; 103  : 		{	// deallocate large block
; 104  : 		const uintptr_t _Ptr_user = reinterpret_cast<uintptr_t>(_Ptr);
; 105  : 		_SCL_SECURE_ALWAYS_VALIDATE(

  0001a	f6 c1 1f	 test	 cl, 31			; 0000001fH
  0001d	75 27		 jne	 SHORT $LN15@deallocate

; 106  : 			(_Ptr_user & (_BIG_ALLOCATION_ALIGNMENT - 1)) == 0);
; 107  : 		const uintptr_t _Ptr_ptr = _Ptr_user - sizeof(void *);
; 108  : 		const uintptr_t _Ptr_container =
; 109  : 			*reinterpret_cast<uintptr_t *>(_Ptr_ptr);

  0001f	8b 41 fc	 mov	 eax, DWORD PTR [ecx-4]

; 110  : 
; 111  :  #ifdef _DEBUG
; 112  : 		// If the following asserts, it likely means that we are performing
; 113  : 		// an aligned delete on memory coming from an unaligned allocation.
; 114  : 		_SCL_SECURE_ALWAYS_VALIDATE(
; 115  : 			reinterpret_cast<uintptr_t *>(_Ptr_ptr)[-1] ==
; 116  : 				_BIG_ALLOCATION_SENTINEL);
; 117  :  #endif /* _DEBUG */
; 118  : 
; 119  : 		// Extra paranoia on aligned allocation/deallocation
; 120  : 		_SCL_SECURE_ALWAYS_VALIDATE(_Ptr_container < _Ptr_user);

  00022	3b c1		 cmp	 eax, ecx
  00024	73 25		 jae	 SHORT $LN16@deallocate

; 121  : 
; 122  :  #ifdef _DEBUG
; 123  : 		_SCL_SECURE_ALWAYS_VALIDATE(2 * sizeof(void *)
; 124  : 			<= _Ptr_user - _Ptr_container);
; 125  : 
; 126  :  #else /* _DEBUG */
; 127  : 		_SCL_SECURE_ALWAYS_VALIDATE(sizeof(void *)

  00026	2b c8		 sub	 ecx, eax
  00028	83 f9 04	 cmp	 ecx, 4
  0002b	72 23		 jb	 SHORT $LN17@deallocate

; 128  : 			<= _Ptr_user - _Ptr_container);
; 129  :  #endif /* _DEBUG */
; 130  : 
; 131  : 		_SCL_SECURE_ALWAYS_VALIDATE(_Ptr_user - _Ptr_container

  0002d	83 f9 23	 cmp	 ecx, 35			; 00000023H
  00030	77 23		 ja	 SHORT $LN18@deallocate

; 132  : 			<= _NON_USER_SIZE);
; 133  : 
; 134  : 		_Ptr = reinterpret_cast<void *>(_Ptr_container);

  00032	8b c8		 mov	 ecx, eax
$LN5@deallocate:

; 135  : 		}
; 136  :  #endif /* defined(_M_IX86) || defined(_M_X64) */
; 137  : 
; 138  : 	::operator delete(_Ptr);

  00034	51		 push	 ecx
  00035	e8 00 00 00 00	 call	 ??3@YAXPAX@Z		; operator delete
  0003a	83 c4 04	 add	 esp, 4

; 639  : 		}

  0003d	5d		 pop	 ebp
  0003e	c2 08 00	 ret	 8
$LN13@deallocate:

; 100  : 	_SCL_SECURE_ALWAYS_VALIDATE(_Count <= (size_t)(-1) / _Sz);

  00041	e8 00 00 00 00	 call	 __invalid_parameter_noinfo_noreturn
$LN19@deallocate:
$LN15@deallocate:

; 103  : 		{	// deallocate large block
; 104  : 		const uintptr_t _Ptr_user = reinterpret_cast<uintptr_t>(_Ptr);
; 105  : 		_SCL_SECURE_ALWAYS_VALIDATE(

  00046	e8 00 00 00 00	 call	 __invalid_parameter_noinfo_noreturn
$LN20@deallocate:
$LN16@deallocate:

; 110  : 
; 111  :  #ifdef _DEBUG
; 112  : 		// If the following asserts, it likely means that we are performing
; 113  : 		// an aligned delete on memory coming from an unaligned allocation.
; 114  : 		_SCL_SECURE_ALWAYS_VALIDATE(
; 115  : 			reinterpret_cast<uintptr_t *>(_Ptr_ptr)[-1] ==
; 116  : 				_BIG_ALLOCATION_SENTINEL);
; 117  :  #endif /* _DEBUG */
; 118  : 
; 119  : 		// Extra paranoia on aligned allocation/deallocation
; 120  : 		_SCL_SECURE_ALWAYS_VALIDATE(_Ptr_container < _Ptr_user);

  0004b	e8 00 00 00 00	 call	 __invalid_parameter_noinfo_noreturn
$LN21@deallocate:
$LN17@deallocate:

; 121  : 
; 122  :  #ifdef _DEBUG
; 123  : 		_SCL_SECURE_ALWAYS_VALIDATE(2 * sizeof(void *)
; 124  : 			<= _Ptr_user - _Ptr_container);
; 125  : 
; 126  :  #else /* _DEBUG */
; 127  : 		_SCL_SECURE_ALWAYS_VALIDATE(sizeof(void *)

  00050	e8 00 00 00 00	 call	 __invalid_parameter_noinfo_noreturn
$LN22@deallocate:
$LN18@deallocate:

; 128  : 			<= _Ptr_user - _Ptr_container);
; 129  :  #endif /* _DEBUG */
; 130  : 
; 131  : 		_SCL_SECURE_ALWAYS_VALIDATE(_Ptr_user - _Ptr_container

  00055	e8 00 00 00 00	 call	 __invalid_parameter_noinfo_noreturn
$LN23@deallocate:
$LN12@deallocate:
  0005a	cc		 int	 3
?deallocate@?$allocator@URINGMONSTER_EVENT_TIME@@@std@@QAEXPAURINGMONSTER_EVENT_TIME@@I@Z ENDP ; std::allocator<RINGMONSTER_EVENT_TIME>::deallocate
_TEXT	ENDS
; Function compile flags: /Ogtp
; File c:\program files (x86)\microsoft visual studio 14.0\vc\include\xmemory0
;	COMDAT ??0?$allocator@URINGMONSTER_EVENT_TIME@@@std@@QAE@ABV01@@Z
_TEXT	SEGMENT
___formal$ = 8						; size = 4
??0?$allocator@URINGMONSTER_EVENT_TIME@@@std@@QAE@ABV01@@Z PROC ; std::allocator<RINGMONSTER_EVENT_TIME>::allocator<RINGMONSTER_EVENT_TIME>, COMDAT
; _this$ = ecx

; 622  : 		{	// construct by copying (do nothing)
; 623  : 		}

  00000	8b c1		 mov	 eax, ecx
  00002	c2 04 00	 ret	 4
??0?$allocator@URINGMONSTER_EVENT_TIME@@@std@@QAE@ABV01@@Z ENDP ; std::allocator<RINGMONSTER_EVENT_TIME>::allocator<RINGMONSTER_EVENT_TIME>
_TEXT	ENDS
; Function compile flags: /Ogtp
; File c:\program files (x86)\microsoft visual studio 14.0\vc\include\xmemory0
;	COMDAT ??0?$allocator@URINGMONSTER_EVENT_TIME@@@std@@QAE@XZ
_TEXT	SEGMENT
??0?$allocator@URINGMONSTER_EVENT_TIME@@@std@@QAE@XZ PROC ; std::allocator<RINGMONSTER_EVENT_TIME>::allocator<RINGMONSTER_EVENT_TIME>, COMDAT
; _this$ = ecx

; 618  : 		{	// construct default allocator (do nothing)
; 619  : 		}

  00000	8b c1		 mov	 eax, ecx
  00002	c3		 ret	 0
??0?$allocator@URINGMONSTER_EVENT_TIME@@@std@@QAE@XZ ENDP ; std::allocator<RINGMONSTER_EVENT_TIME>::allocator<RINGMONSTER_EVENT_TIME>
_TEXT	ENDS
; Function compile flags: /Ogtp
; File c:\program files (x86)\microsoft visual studio 14.0\vc\include\vector
;	COMDAT ?_Orphan_range@?$vector@URINGMONSTER_DATA@@V?$allocator@URINGMONSTER_DATA@@@std@@@std@@IBEXPAURINGMONSTER_DATA@@0@Z
_TEXT	SEGMENT
___formal$ = 8						; size = 4
___formal$ = 12						; size = 4
?_Orphan_range@?$vector@URINGMONSTER_DATA@@V?$allocator@URINGMONSTER_DATA@@@std@@@std@@IBEXPAURINGMONSTER_DATA@@0@Z PROC ; std::vector<RINGMONSTER_DATA,std::allocator<RINGMONSTER_DATA> >::_Orphan_range, COMDAT
; _this$ = ecx

; 1813 : 		}

  00000	c2 08 00	 ret	 8
?_Orphan_range@?$vector@URINGMONSTER_DATA@@V?$allocator@URINGMONSTER_DATA@@@std@@@std@@IBEXPAURINGMONSTER_DATA@@0@Z ENDP ; std::vector<RINGMONSTER_DATA,std::allocator<RINGMONSTER_DATA> >::_Orphan_range
_TEXT	ENDS
; Function compile flags: /Ogtp
; File c:\program files (x86)\microsoft visual studio 14.0\vc\include\vector
;	COMDAT ?_Xlen@?$vector@URINGMONSTER_DATA@@V?$allocator@URINGMONSTER_DATA@@@std@@@std@@IBEXXZ
_TEXT	SEGMENT
?_Xlen@?$vector@URINGMONSTER_DATA@@V?$allocator@URINGMONSTER_DATA@@@std@@@std@@IBEXXZ PROC ; std::vector<RINGMONSTER_DATA,std::allocator<RINGMONSTER_DATA> >::_Xlen, COMDAT
; _this$ = ecx

; 1784 : 		_Xlength_error("vector<T> too long");

  00000	68 00 00 00 00	 push	 OFFSET ??_C@_0BD@OLBABOEK@vector?$DMT?$DO?5too?5long?$AA@
  00005	e8 00 00 00 00	 call	 ?_Xlength_error@std@@YAXPBD@Z ; std::_Xlength_error
$LN4@Xlen:
$LN3@Xlen:
  0000a	cc		 int	 3
?_Xlen@?$vector@URINGMONSTER_DATA@@V?$allocator@URINGMONSTER_DATA@@@std@@@std@@IBEXXZ ENDP ; std::vector<RINGMONSTER_DATA,std::allocator<RINGMONSTER_DATA> >::_Xlen
_TEXT	ENDS
; Function compile flags: /Ogtp
; File c:\program files (x86)\microsoft visual studio 14.0\vc\include\vector
; File c:\program files (x86)\microsoft visual studio 14.0\vc\include\xmemory0
; File c:\program files (x86)\microsoft visual studio 14.0\vc\include\vector
;	COMDAT ?_Tidy@?$vector@URINGMONSTER_DATA@@V?$allocator@URINGMONSTER_DATA@@@std@@@std@@IAEXXZ
_TEXT	SEGMENT
?_Tidy@?$vector@URINGMONSTER_DATA@@V?$allocator@URINGMONSTER_DATA@@@std@@@std@@IAEXXZ PROC ; std::vector<RINGMONSTER_DATA,std::allocator<RINGMONSTER_DATA> >::_Tidy, COMDAT
; _this$ = ecx

; 1655 : 		{	// free all storage

  00000	56		 push	 esi
  00001	8b f1		 mov	 esi, ecx

; 1656 : 		if (this->_Myfirst() != pointer())

  00003	8b 0e		 mov	 ecx, DWORD PTR [esi]
  00005	85 c9		 test	 ecx, ecx
  00007	74 32		 je	 SHORT $LN2@Tidy

; 1657 : 			{	// something to free, destroy and deallocate it
; 1658 : 			this->_Orphan_all();
; 1659 : 			_Destroy(this->_Myfirst(), this->_Mylast());
; 1660 : 			this->_Getal().deallocate(this->_Myfirst(),

  00009	8b 56 08	 mov	 edx, DWORD PTR [esi+8]
  0000c	b8 ab aa aa 2a	 mov	 eax, 715827883		; 2aaaaaabH
  00011	2b d1		 sub	 edx, ecx
  00013	f7 ea		 imul	 edx
  00015	d1 fa		 sar	 edx, 1
  00017	8b c2		 mov	 eax, edx
  00019	c1 e8 1f	 shr	 eax, 31			; 0000001fH
  0001c	03 c2		 add	 eax, edx
; File c:\program files (x86)\microsoft visual studio 14.0\vc\include\xmemory0

; 909  : 		_Mybase::deallocate(_Ptr, _Count);

  0001e	50		 push	 eax
  0001f	51		 push	 ecx
  00020	8b ce		 mov	 ecx, esi
  00022	e8 00 00 00 00	 call	 ?deallocate@?$allocator@URINGMONSTER_DATA@@@std@@QAEXPAURINGMONSTER_DATA@@I@Z ; std::allocator<RINGMONSTER_DATA>::deallocate
; File c:\program files (x86)\microsoft visual studio 14.0\vc\include\vector

; 1662 : 			this->_Myfirst() = pointer();

  00027	c7 06 00 00 00
	00		 mov	 DWORD PTR [esi], 0

; 1663 : 			this->_Mylast() = pointer();

  0002d	c7 46 04 00 00
	00 00		 mov	 DWORD PTR [esi+4], 0

; 1664 : 			this->_Myend() = pointer();

  00034	c7 46 08 00 00
	00 00		 mov	 DWORD PTR [esi+8], 0
$LN2@Tidy:
  0003b	5e		 pop	 esi

; 1665 : 			}
; 1666 : 		}

  0003c	c3		 ret	 0
?_Tidy@?$vector@URINGMONSTER_DATA@@V?$allocator@URINGMONSTER_DATA@@@std@@@std@@IAEXXZ ENDP ; std::vector<RINGMONSTER_DATA,std::allocator<RINGMONSTER_DATA> >::_Tidy
_TEXT	ENDS
; Function compile flags: /Ogtp
; File c:\program files (x86)\microsoft visual studio 14.0\vc\include\vector
;	COMDAT ?_Reserve@?$vector@URINGMONSTER_DATA@@V?$allocator@URINGMONSTER_DATA@@@std@@@std@@IAEXI@Z
_TEXT	SEGMENT
tv202 = 8						; size = 4
__Count$ = 8						; size = 4
?_Reserve@?$vector@URINGMONSTER_DATA@@V?$allocator@URINGMONSTER_DATA@@@std@@@std@@IAEXI@Z PROC ; std::vector<RINGMONSTER_DATA,std::allocator<RINGMONSTER_DATA> >::_Reserve, COMDAT
; _this$ = ecx

; 1645 : 		{	// ensure room for _Count new elements, grow exponentially

  00000	55		 push	 ebp
  00001	8b ec		 mov	 ebp, esp
  00003	53		 push	 ebx
  00004	8b d9		 mov	 ebx, ecx

; 1043 : 		}
; 1044 : 
; 1045 : 	size_type _Unused_capacity() const _NOEXCEPT
; 1046 : 		{	// micro-optimization for capacity() - size()
; 1047 : 		return (this->_Myend() - this->_Mylast());

  00006	b8 ab aa aa 2a	 mov	 eax, 715827883		; 2aaaaaabH
  0000b	56		 push	 esi
  0000c	57		 push	 edi

; 1646 : 		if (_Unused_capacity() < _Count)

  0000d	8b 7d 08	 mov	 edi, DWORD PTR __Count$[ebp]

; 1043 : 		}
; 1044 : 
; 1045 : 	size_type _Unused_capacity() const _NOEXCEPT
; 1046 : 		{	// micro-optimization for capacity() - size()
; 1047 : 		return (this->_Myend() - this->_Mylast());

  00010	8b 53 08	 mov	 edx, DWORD PTR [ebx+8]
  00013	8b 73 04	 mov	 esi, DWORD PTR [ebx+4]
  00016	2b d6		 sub	 edx, esi
  00018	f7 ea		 imul	 edx
  0001a	d1 fa		 sar	 edx, 1
  0001c	8b c2		 mov	 eax, edx
  0001e	c1 e8 1f	 shr	 eax, 31			; 0000001fH
  00021	03 c2		 add	 eax, edx

; 1646 : 		if (_Unused_capacity() < _Count)

  00023	3b c7		 cmp	 eax, edi
  00025	73 5f		 jae	 SHORT $LN2@Reserve

; 1048 : 		}
; 1049 : 
; 1050 : 	size_type _Has_unused_capacity() const _NOEXCEPT
; 1051 : 		{	// micro-optimization for capacity() != size()
; 1052 : 		return (this->_Myend() != this->_Mylast());
; 1053 : 		}
; 1054 : 
; 1055 : 	iterator begin() _NOEXCEPT
; 1056 : 		{	// return iterator for beginning of mutable sequence
; 1057 : 		return (iterator(this->_Myfirst(), &this->_Get_data()));
; 1058 : 		}
; 1059 : 
; 1060 : 	const_iterator begin() const _NOEXCEPT
; 1061 : 		{	// return iterator for beginning of nonmutable sequence
; 1062 : 		return (const_iterator(this->_Myfirst(), &this->_Get_data()));
; 1063 : 		}
; 1064 : 
; 1065 : 	iterator end() _NOEXCEPT
; 1066 : 		{	// return iterator for end of mutable sequence
; 1067 : 		return (iterator(this->_Mylast(), &this->_Get_data()));
; 1068 : 		}
; 1069 : 
; 1070 : 	const_iterator end() const _NOEXCEPT
; 1071 : 		{	// return iterator for end of nonmutable sequence
; 1072 : 		return (const_iterator(this->_Mylast(), &this->_Get_data()));
; 1073 : 		}
; 1074 : 
; 1075 : 	iterator _Make_iter(const_iterator _Where) const
; 1076 : 		{	// make iterator from const_iterator
; 1077 : 		return (iterator(_Where._Ptr, &this->_Get_data()));
; 1078 : 		}
; 1079 : 
; 1080 : 	reverse_iterator rbegin() _NOEXCEPT
; 1081 : 		{	// return iterator for beginning of reversed mutable sequence
; 1082 : 		return (reverse_iterator(end()));
; 1083 : 		}
; 1084 : 
; 1085 : 	const_reverse_iterator rbegin() const _NOEXCEPT
; 1086 : 		{	// return iterator for beginning of reversed nonmutable sequence
; 1087 : 		return (const_reverse_iterator(end()));
; 1088 : 		}
; 1089 : 
; 1090 : 	reverse_iterator rend() _NOEXCEPT
; 1091 : 		{	// return iterator for end of reversed mutable sequence
; 1092 : 		return (reverse_iterator(begin()));
; 1093 : 		}
; 1094 : 
; 1095 : 	const_reverse_iterator rend() const _NOEXCEPT
; 1096 : 		{	// return iterator for end of reversed nonmutable sequence
; 1097 : 		return (const_reverse_iterator(begin()));
; 1098 : 		}
; 1099 : 
; 1100 : 	const_iterator cbegin() const _NOEXCEPT
; 1101 : 		{	// return iterator for beginning of nonmutable sequence
; 1102 : 		return (begin());
; 1103 : 		}
; 1104 : 
; 1105 : 	const_iterator cend() const _NOEXCEPT
; 1106 : 		{	// return iterator for end of nonmutable sequence
; 1107 : 		return (end());
; 1108 : 		}
; 1109 : 
; 1110 : 	const_reverse_iterator crbegin() const _NOEXCEPT
; 1111 : 		{	// return iterator for beginning of reversed nonmutable sequence
; 1112 : 		return (rbegin());
; 1113 : 		}
; 1114 : 
; 1115 : 	const_reverse_iterator crend() const _NOEXCEPT
; 1116 : 		{	// return iterator for end of reversed nonmutable sequence
; 1117 : 		return (rend());
; 1118 : 		}
; 1119 : 
; 1120 : 	void shrink_to_fit()
; 1121 : 		{	// reduce capacity
; 1122 : 		if (_Has_unused_capacity())
; 1123 : 			{	// worth shrinking, do it
; 1124 : 			if (empty())
; 1125 : 				_Tidy();
; 1126 : 			else
; 1127 : 				_Reallocate(size());
; 1128 : 			}
; 1129 : 		}
; 1130 : 
; 1131 : 	void resize(size_type _Newsize)
; 1132 : 		{	// determine new length, padding as needed
; 1133 : 		if (_Newsize < size())
; 1134 : 			_Pop_back_n(size() - _Newsize);
; 1135 : 		else if (size() < _Newsize)
; 1136 : 			{	// pad as needed
; 1137 : 			_Reserve(_Newsize - size());
; 1138 : 			_TRY_BEGIN
; 1139 : 			_Uninitialized_default_fill_n(this->_Mylast(), _Newsize - size(),
; 1140 : 				this->_Getal());
; 1141 : 			_CATCH_ALL
; 1142 : 			_Tidy();
; 1143 : 			_RERAISE;
; 1144 : 			_CATCH_END
; 1145 : 			this->_Mylast() += _Newsize - size();
; 1146 : 			}
; 1147 : 		}
; 1148 : 
; 1149 : 	void resize(size_type _Newsize, const value_type& _Val)
; 1150 : 		{	// determine new length, padding with _Val elements as needed
; 1151 : 		if (_Newsize < size())
; 1152 : 			_Pop_back_n(size() - _Newsize);
; 1153 : 		else if (size() < _Newsize)
; 1154 : 			{	// pad as needed
; 1155 : 			const value_type *_Ptr = _STD addressof(_Val);
; 1156 : 
; 1157 : 			if (_Inside(_Ptr))
; 1158 : 				{	// padding is inside vector, recompute _Ptr after reserve
; 1159 : 				const difference_type _Idx = _Ptr
; 1160 : 					- _STD addressof(*this->_Myfirst());
; 1161 : 				_Reserve(_Newsize - size());
; 1162 : 				_Ptr = _STD addressof(*this->_Myfirst()) + _Idx;
; 1163 : 				}
; 1164 : 			else
; 1165 : 				_Reserve(_Newsize - size());
; 1166 : 
; 1167 : 			_TRY_BEGIN
; 1168 : 			_Ufill(this->_Mylast(), _Newsize - size(), _Ptr);
; 1169 : 			_CATCH_ALL
; 1170 : 			_Tidy();
; 1171 : 			_RERAISE;
; 1172 : 			_CATCH_END
; 1173 : 			this->_Mylast() += _Newsize - size();
; 1174 : 			}
; 1175 : 		}
; 1176 : 
; 1177 : 	size_type size() const _NOEXCEPT
; 1178 : 		{	// return length of sequence
; 1179 : 		return (this->_Mylast() - this->_Myfirst());

  00027	8b 03		 mov	 eax, DWORD PTR [ebx]
  00029	2b f0		 sub	 esi, eax
  0002b	89 45 08	 mov	 DWORD PTR tv202[ebp], eax
  0002e	b8 ab aa aa 2a	 mov	 eax, 715827883		; 2aaaaaabH
  00033	f7 ee		 imul	 esi

; 1647 : 			{	// need more room, try to get it
; 1648 : 			if (max_size() - size() < _Count)

  00035	b8 55 55 55 15	 mov	 eax, 357913941		; 15555555H

; 1048 : 		}
; 1049 : 
; 1050 : 	size_type _Has_unused_capacity() const _NOEXCEPT
; 1051 : 		{	// micro-optimization for capacity() != size()
; 1052 : 		return (this->_Myend() != this->_Mylast());
; 1053 : 		}
; 1054 : 
; 1055 : 	iterator begin() _NOEXCEPT
; 1056 : 		{	// return iterator for beginning of mutable sequence
; 1057 : 		return (iterator(this->_Myfirst(), &this->_Get_data()));
; 1058 : 		}
; 1059 : 
; 1060 : 	const_iterator begin() const _NOEXCEPT
; 1061 : 		{	// return iterator for beginning of nonmutable sequence
; 1062 : 		return (const_iterator(this->_Myfirst(), &this->_Get_data()));
; 1063 : 		}
; 1064 : 
; 1065 : 	iterator end() _NOEXCEPT
; 1066 : 		{	// return iterator for end of mutable sequence
; 1067 : 		return (iterator(this->_Mylast(), &this->_Get_data()));
; 1068 : 		}
; 1069 : 
; 1070 : 	const_iterator end() const _NOEXCEPT
; 1071 : 		{	// return iterator for end of nonmutable sequence
; 1072 : 		return (const_iterator(this->_Mylast(), &this->_Get_data()));
; 1073 : 		}
; 1074 : 
; 1075 : 	iterator _Make_iter(const_iterator _Where) const
; 1076 : 		{	// make iterator from const_iterator
; 1077 : 		return (iterator(_Where._Ptr, &this->_Get_data()));
; 1078 : 		}
; 1079 : 
; 1080 : 	reverse_iterator rbegin() _NOEXCEPT
; 1081 : 		{	// return iterator for beginning of reversed mutable sequence
; 1082 : 		return (reverse_iterator(end()));
; 1083 : 		}
; 1084 : 
; 1085 : 	const_reverse_iterator rbegin() const _NOEXCEPT
; 1086 : 		{	// return iterator for beginning of reversed nonmutable sequence
; 1087 : 		return (const_reverse_iterator(end()));
; 1088 : 		}
; 1089 : 
; 1090 : 	reverse_iterator rend() _NOEXCEPT
; 1091 : 		{	// return iterator for end of reversed mutable sequence
; 1092 : 		return (reverse_iterator(begin()));
; 1093 : 		}
; 1094 : 
; 1095 : 	const_reverse_iterator rend() const _NOEXCEPT
; 1096 : 		{	// return iterator for end of reversed nonmutable sequence
; 1097 : 		return (const_reverse_iterator(begin()));
; 1098 : 		}
; 1099 : 
; 1100 : 	const_iterator cbegin() const _NOEXCEPT
; 1101 : 		{	// return iterator for beginning of nonmutable sequence
; 1102 : 		return (begin());
; 1103 : 		}
; 1104 : 
; 1105 : 	const_iterator cend() const _NOEXCEPT
; 1106 : 		{	// return iterator for end of nonmutable sequence
; 1107 : 		return (end());
; 1108 : 		}
; 1109 : 
; 1110 : 	const_reverse_iterator crbegin() const _NOEXCEPT
; 1111 : 		{	// return iterator for beginning of reversed nonmutable sequence
; 1112 : 		return (rbegin());
; 1113 : 		}
; 1114 : 
; 1115 : 	const_reverse_iterator crend() const _NOEXCEPT
; 1116 : 		{	// return iterator for end of reversed nonmutable sequence
; 1117 : 		return (rend());
; 1118 : 		}
; 1119 : 
; 1120 : 	void shrink_to_fit()
; 1121 : 		{	// reduce capacity
; 1122 : 		if (_Has_unused_capacity())
; 1123 : 			{	// worth shrinking, do it
; 1124 : 			if (empty())
; 1125 : 				_Tidy();
; 1126 : 			else
; 1127 : 				_Reallocate(size());
; 1128 : 			}
; 1129 : 		}
; 1130 : 
; 1131 : 	void resize(size_type _Newsize)
; 1132 : 		{	// determine new length, padding as needed
; 1133 : 		if (_Newsize < size())
; 1134 : 			_Pop_back_n(size() - _Newsize);
; 1135 : 		else if (size() < _Newsize)
; 1136 : 			{	// pad as needed
; 1137 : 			_Reserve(_Newsize - size());
; 1138 : 			_TRY_BEGIN
; 1139 : 			_Uninitialized_default_fill_n(this->_Mylast(), _Newsize - size(),
; 1140 : 				this->_Getal());
; 1141 : 			_CATCH_ALL
; 1142 : 			_Tidy();
; 1143 : 			_RERAISE;
; 1144 : 			_CATCH_END
; 1145 : 			this->_Mylast() += _Newsize - size();
; 1146 : 			}
; 1147 : 		}
; 1148 : 
; 1149 : 	void resize(size_type _Newsize, const value_type& _Val)
; 1150 : 		{	// determine new length, padding with _Val elements as needed
; 1151 : 		if (_Newsize < size())
; 1152 : 			_Pop_back_n(size() - _Newsize);
; 1153 : 		else if (size() < _Newsize)
; 1154 : 			{	// pad as needed
; 1155 : 			const value_type *_Ptr = _STD addressof(_Val);
; 1156 : 
; 1157 : 			if (_Inside(_Ptr))
; 1158 : 				{	// padding is inside vector, recompute _Ptr after reserve
; 1159 : 				const difference_type _Idx = _Ptr
; 1160 : 					- _STD addressof(*this->_Myfirst());
; 1161 : 				_Reserve(_Newsize - size());
; 1162 : 				_Ptr = _STD addressof(*this->_Myfirst()) + _Idx;
; 1163 : 				}
; 1164 : 			else
; 1165 : 				_Reserve(_Newsize - size());
; 1166 : 
; 1167 : 			_TRY_BEGIN
; 1168 : 			_Ufill(this->_Mylast(), _Newsize - size(), _Ptr);
; 1169 : 			_CATCH_ALL
; 1170 : 			_Tidy();
; 1171 : 			_RERAISE;
; 1172 : 			_CATCH_END
; 1173 : 			this->_Mylast() += _Newsize - size();
; 1174 : 			}
; 1175 : 		}
; 1176 : 
; 1177 : 	size_type size() const _NOEXCEPT
; 1178 : 		{	// return length of sequence
; 1179 : 		return (this->_Mylast() - this->_Myfirst());

  0003a	d1 fa		 sar	 edx, 1
  0003c	8b ca		 mov	 ecx, edx
  0003e	c1 e9 1f	 shr	 ecx, 31			; 0000001fH
  00041	03 ca		 add	 ecx, edx

; 1647 : 			{	// need more room, try to get it
; 1648 : 			if (max_size() - size() < _Count)

  00043	2b c1		 sub	 eax, ecx
  00045	3b c7		 cmp	 eax, edi
  00047	72 44		 jb	 SHORT $LN134@Reserve

; 1649 : 				_Xlen();
; 1650 : 			_Reallocate(_Grow_to(size() + _Count));

  00049	03 f9		 add	 edi, ecx

; 1042 : 		return (this->_Myend() - this->_Myfirst());

  0004b	b8 ab aa aa 2a	 mov	 eax, 715827883		; 2aaaaaabH
  00050	8b 4b 08	 mov	 ecx, DWORD PTR [ebx+8]
  00053	2b 4d 08	 sub	 ecx, DWORD PTR tv202[ebp]
  00056	f7 e9		 imul	 ecx
  00058	d1 fa		 sar	 edx, 1
  0005a	8b f2		 mov	 esi, edx
  0005c	c1 ee 1f	 shr	 esi, 31			; 0000001fH
  0005f	03 f2		 add	 esi, edx

; 1180 : 		}
; 1181 : 
; 1182 : 	size_type max_size() const _NOEXCEPT
; 1183 : 		{	// return maximum possible length of sequence
; 1184 : 		return (this->_Getal().max_size());
; 1185 : 		}
; 1186 : 
; 1187 : 	bool empty() const _NOEXCEPT
; 1188 : 		{	// test if sequence is empty
; 1189 : 		return (this->_Myfirst() == this->_Mylast());
; 1190 : 		}
; 1191 : 
; 1192 : 	_Alloc get_allocator() const _NOEXCEPT
; 1193 : 		{	// return allocator object for values
; 1194 : 		return (this->_Getal());
; 1195 : 		}
; 1196 : 
; 1197 : 	const_reference at(size_type _Pos) const
; 1198 : 		{	// subscript nonmutable sequence with checking
; 1199 : 		if (size() <= _Pos)
; 1200 : 			_Xran();
; 1201 : 		return (*(this->_Myfirst() + _Pos));
; 1202 : 		}
; 1203 : 
; 1204 : 	reference at(size_type _Pos)
; 1205 : 		{	// subscript mutable sequence with checking
; 1206 : 		if (size() <= _Pos)
; 1207 : 			_Xran();
; 1208 : 		return (*(this->_Myfirst() + _Pos));
; 1209 : 		}
; 1210 : 
; 1211 : 	const_reference operator[](size_type _Pos) const
; 1212 : 		{	// subscript nonmutable sequence
; 1213 :  #if _ITERATOR_DEBUG_LEVEL == 2
; 1214 : 		if (size() <= _Pos)
; 1215 : 			{	// report error
; 1216 : 			_DEBUG_ERROR("vector subscript out of range");
; 1217 : 			_SCL_SECURE_OUT_OF_RANGE;
; 1218 : 			}
; 1219 : 
; 1220 :  #elif _ITERATOR_DEBUG_LEVEL == 1
; 1221 : 		_SCL_SECURE_VALIDATE_RANGE(_Pos < size());
; 1222 :  #endif /* _ITERATOR_DEBUG_LEVEL */
; 1223 : 
; 1224 : 		return (*(this->_Myfirst() + _Pos));
; 1225 : 		}
; 1226 : 
; 1227 : 	reference operator[](size_type _Pos)
; 1228 : 		{	// subscript mutable sequence
; 1229 :  #if _ITERATOR_DEBUG_LEVEL == 2
; 1230 : 		if (size() <= _Pos)
; 1231 : 			{	// report error
; 1232 : 			_DEBUG_ERROR("vector subscript out of range");
; 1233 : 			_SCL_SECURE_OUT_OF_RANGE;
; 1234 : 			}
; 1235 : 
; 1236 :  #elif _ITERATOR_DEBUG_LEVEL == 1
; 1237 : 		_SCL_SECURE_VALIDATE_RANGE(_Pos < size());
; 1238 :  #endif /* _ITERATOR_DEBUG_LEVEL */
; 1239 : 
; 1240 : 		return (*(this->_Myfirst() + _Pos));
; 1241 : 		}
; 1242 : 
; 1243 : 	pointer data() _NOEXCEPT
; 1244 : 		{	// return address of first element
; 1245 : 		return (this->_Myfirst());
; 1246 : 		}
; 1247 : 
; 1248 : 	const_pointer data() const _NOEXCEPT
; 1249 : 		{	// return address of first element
; 1250 : 		return (this->_Myfirst());
; 1251 : 		}
; 1252 : 
; 1253 : 	reference front()
; 1254 : 		{	// return first element of mutable sequence
; 1255 : 		return (*begin());
; 1256 : 		}
; 1257 : 
; 1258 : 	const_reference front() const
; 1259 : 		{	// return first element of nonmutable sequence
; 1260 : 		return (*begin());
; 1261 : 		}
; 1262 : 
; 1263 : 	reference back()
; 1264 : 		{	// return last element of mutable sequence
; 1265 : 		return (*(end() - 1));
; 1266 : 		}
; 1267 : 
; 1268 : 	const_reference back() const
; 1269 : 		{	// return last element of nonmutable sequence
; 1270 : 		return (*(end() - 1));
; 1271 : 		}
; 1272 : 
; 1273 : 	void push_back(const value_type& _Val)
; 1274 : 		{	// insert element at end
; 1275 : 		if (_Inside(_STD addressof(_Val)))
; 1276 : 			{	// push back an element
; 1277 : 			size_type _Idx = _STD addressof(_Val) - this->_Myfirst();
; 1278 : 			if (this->_Mylast() == this->_Myend())
; 1279 : 				_Reserve(1);
; 1280 : 			_Orphan_range(this->_Mylast(), this->_Mylast());
; 1281 : 			this->_Getal().construct(this->_Mylast(),
; 1282 : 				this->_Myfirst()[_Idx]);
; 1283 : 			++this->_Mylast();
; 1284 : 			}
; 1285 : 		else
; 1286 : 			{	// push back a non-element
; 1287 : 			if (this->_Mylast() == this->_Myend())
; 1288 : 				_Reserve(1);
; 1289 : 			_Orphan_range(this->_Mylast(), this->_Mylast());
; 1290 : 			this->_Getal().construct(this->_Mylast(),
; 1291 : 				_Val);
; 1292 : 			++this->_Mylast();
; 1293 : 			}
; 1294 : 		}
; 1295 : 
; 1296 :  #if _ITERATOR_DEBUG_LEVEL == 2
; 1297 : 	void pop_back()
; 1298 : 		{	// erase element at end
; 1299 : 		if (empty())
; 1300 : 			_DEBUG_ERROR("vector empty before pop");
; 1301 : 		else
; 1302 : 			{	// erase last element
; 1303 : 			_Orphan_range(this->_Mylast() - 1, this->_Mylast());
; 1304 : 			this->_Getal().destroy(this->_Mylast() - 1);
; 1305 : 			--this->_Mylast();
; 1306 : 			}
; 1307 : 		}
; 1308 : 
; 1309 :  #else /* _ITERATOR_DEBUG_LEVEL == 2 */
; 1310 : 	void pop_back()
; 1311 : 		{	// erase element at end
; 1312 : 		this->_Getal().destroy(this->_Mylast() - 1);
; 1313 : 		--this->_Mylast();
; 1314 : 		}
; 1315 :  #endif /* _ITERATOR_DEBUG_LEVEL == 2 */
; 1316 : 
; 1317 : 	template<class _Iter>
; 1318 : 		typename enable_if<_Is_iterator<_Iter>::value,
; 1319 : 			void>::type
; 1320 : 		assign(_Iter _First, _Iter _Last)
; 1321 : 		{	// assign [_First, _Last)
; 1322 : 		clear();
; 1323 : 		_Assign(_First, _Last, _Iter_cat(_First));
; 1324 : 		}
; 1325 : 
; 1326 : 	template<class _Iter>
; 1327 : 		void _Assign(_Iter _First, _Iter _Last,
; 1328 : 			input_iterator_tag)
; 1329 : 		{	// assign [_First, _Last), input iterators
; 1330 : 		for (; _First != _Last; ++_First)
; 1331 : 			emplace_back(*_First);
; 1332 : 		}
; 1333 : 
; 1334 : 	template<class _Iter>
; 1335 : 		void _Assign(_Iter _First, _Iter _Last,
; 1336 : 			forward_iterator_tag)
; 1337 : 		{	// assign [_First, _Last), forward iterators
; 1338 : 		size_type _Newsize = _STD distance(_First, _Last);
; 1339 : 
; 1340 : 		if (capacity() < _Newsize)
; 1341 : 			{	// need more room, try to get it
; 1342 : 			size_type _Newcapacity = _Grow_to(_Newsize);
; 1343 : 			_Tidy();
; 1344 : 			_Buy(_Newcapacity);
; 1345 : 			}
; 1346 : 
; 1347 : 		this->_Mylast() = _Ucopy(_First, _Last, this->_Myfirst());
; 1348 : 		}
; 1349 : 
; 1350 : 	void assign(size_type _Count, const value_type& _Val)
; 1351 : 		{	// assign _Count * _Val
; 1352 : 		clear();
; 1353 : 		insert(begin(), _Count, _Val);
; 1354 : 		}
; 1355 : 
; 1356 : 	iterator insert(const_iterator _Where, const _Ty& _Val)
; 1357 : 		{	// insert _Val at _Where
; 1358 : 		return (_Insert_n(_Where, (size_type)1, _Val));
; 1359 : 		}
; 1360 : 
; 1361 : 	iterator insert(const_iterator _Where, size_type _Count,
; 1362 : 		const _Ty& _Val)
; 1363 : 		{	// insert _Count * _Val at _Where
; 1364 : 		return (_Insert_n(_Where, _Count, _Val));
; 1365 : 		}
; 1366 : 
; 1367 : 	template<class _Iter>
; 1368 : 		typename enable_if<_Is_iterator<_Iter>::value,
; 1369 : 			iterator>::type
; 1370 : 		insert(const_iterator _Where, _Iter _First, _Iter _Last)
; 1371 : 		{	// insert [_First, _Last) at _Where
; 1372 : 		size_type _Off = _VIPTR(_Where) - this->_Myfirst();
; 1373 : 		_Insert(_Where, _First, _Last, _Iter_cat(_First));
; 1374 : 		return (begin() + _Off);
; 1375 : 		}
; 1376 : 
; 1377 : 	template<class _Iter>
; 1378 : 		void _Insert(const_iterator _Where,
; 1379 : 			_Iter _First, _Iter _Last,
; 1380 : 				input_iterator_tag)
; 1381 : 		{	// insert [_First, _Last) at _Where, input iterators
; 1382 : 		size_type _Off = _VIPTR(_Where) - this->_Myfirst();
; 1383 : 
; 1384 :  #if _ITERATOR_DEBUG_LEVEL == 2
; 1385 : 		if (size() < _Off)
; 1386 : 			_DEBUG_ERROR("vector insert iterator outside range");
; 1387 :  #endif /* _ITERATOR_DEBUG_LEVEL == 2 */
; 1388 : 
; 1389 : 		if (_First != _Last)
; 1390 : 			{	// worth doing, gather at end and rotate into place
; 1391 : 			size_type _Oldsize = size();
; 1392 : 
; 1393 : 			_TRY_BEGIN
; 1394 : 			for (; _First != _Last; ++_First)
; 1395 : 				push_back(*_First);	// append
; 1396 : 
; 1397 : 			_CATCH_ALL
; 1398 : 			erase(begin() + _Oldsize, end());
; 1399 : 			_RERAISE;
; 1400 : 			_CATCH_END
; 1401 : 
; 1402 : 			_STD rotate(begin() + _Off, begin() + _Oldsize, end());
; 1403 : 			}
; 1404 : 		}
; 1405 : 
; 1406 : 	template<class _Iter>
; 1407 : 		void _Insert(const_iterator _Where,
; 1408 : 			_Iter _First, _Iter _Last,
; 1409 : 				forward_iterator_tag)
; 1410 : 		{	// insert [_First, _Last) at _Where, forward iterators
; 1411 :  #if _ITERATOR_DEBUG_LEVEL == 2
; 1412 : 		if (_VICONT(_Where) != &this->_Get_data()
; 1413 : 			|| _VIPTR(_Where) < this->_Myfirst()
; 1414 : 			|| this->_Mylast() < _VIPTR(_Where))
; 1415 : 			_DEBUG_ERROR("vector insert iterator outside range");
; 1416 : 		_DEBUG_RANGE(_First, _Last);
; 1417 :  #endif /* _ITERATOR_DEBUG_LEVEL == 2 */
; 1418 : 
; 1419 : 		size_type _Count = 0;
; 1420 : 		_Distance(_First, _Last, _Count);
; 1421 : 
; 1422 : 		if (_Count == 0)
; 1423 : 			;
; 1424 : 		else if (_Unused_capacity() < _Count)
; 1425 : 			{	// not enough room, reallocate
; 1426 : 			if (max_size() - size() < _Count)
; 1427 : 				_Xlen();	// result too long
; 1428 : 
; 1429 : 			size_type _Capacity = _Grow_to(size() + _Count);
; 1430 : 			pointer _Newvec = this->_Getal().allocate(_Capacity);
; 1431 : 			pointer _Ptr = _Newvec;
; 1432 : 
; 1433 : 			_TRY_BEGIN
; 1434 : 			_Ptr = _Umove(this->_Myfirst(), _VIPTR(_Where),
; 1435 : 				_Newvec);	// copy prefix
; 1436 : 			_Ptr = _Ucopy(_First, _Last, _Ptr);	// add new stuff
; 1437 : 			_Umove(_VIPTR(_Where), this->_Mylast(),
; 1438 : 				_Ptr);	// copy suffix
; 1439 : 			_CATCH_ALL
; 1440 : 			_Destroy(_Newvec, _Ptr);
; 1441 : 			this->_Getal().deallocate(_Newvec, _Capacity);
; 1442 : 			_RERAISE;
; 1443 : 			_CATCH_END
; 1444 : 
; 1445 : 			_Count += size();
; 1446 : 			if (this->_Myfirst() != pointer())
; 1447 : 				{	// destroy and deallocate old array
; 1448 : 				_Destroy(this->_Myfirst(), this->_Mylast());
; 1449 : 				this->_Getal().deallocate(this->_Myfirst(),
; 1450 : 					this->_Myend() - this->_Myfirst());
; 1451 : 				}
; 1452 : 
; 1453 : 			this->_Orphan_all();
; 1454 : 			this->_Myend() = _Newvec + _Capacity;
; 1455 : 			this->_Mylast() = _Newvec + _Count;
; 1456 : 			this->_Myfirst() = _Newvec;
; 1457 : 			}
; 1458 : 		else
; 1459 : 			{	// new stuff fits, append and rotate into place
; 1460 : 			_Ucopy(_First, _Last, this->_Mylast());
; 1461 : 			_STD rotate(_VIPTR(_Where), this->_Mylast(),
; 1462 : 				this->_Mylast() + _Count);
; 1463 : 			this->_Mylast() += _Count;
; 1464 : 			_Orphan_range(_VIPTR(_Where), this->_Mylast());
; 1465 : 			}
; 1466 : 		}
; 1467 : 
; 1468 :  #if _ITERATOR_DEBUG_LEVEL == 2
; 1469 : 	iterator erase(const_iterator _Where)
; 1470 : 		{	// erase element at where
; 1471 : 		if (_VICONT(_Where) != &this->_Get_data()
; 1472 : 			|| _VIPTR(_Where) < this->_Myfirst()
; 1473 : 			|| this->_Mylast() <= _VIPTR(_Where))
; 1474 : 			_DEBUG_ERROR("vector erase iterator outside range");
; 1475 : 		_Move(_VIPTR(_Where) + 1, this->_Mylast(), _VIPTR(_Where));
; 1476 : 		_Destroy(this->_Mylast() - 1, this->_Mylast());
; 1477 : 		_Orphan_range(_VIPTR(_Where), this->_Mylast());
; 1478 : 		--this->_Mylast();
; 1479 : 		return (_Make_iter(_Where));
; 1480 : 		}
; 1481 : 
; 1482 :  #else /* _ITERATOR_DEBUG_LEVEL == 2 */
; 1483 : 	iterator erase(const_iterator _Where)
; 1484 : 		{	// erase element at where
; 1485 : 		_Move(_VIPTR(_Where) + 1, this->_Mylast(),
; 1486 : 			_VIPTR(_Where));
; 1487 : 		_Destroy(this->_Mylast() - 1, this->_Mylast());
; 1488 : 		--this->_Mylast();
; 1489 : 		return (_Make_iter(_Where));
; 1490 : 		}
; 1491 :  #endif /* _ITERATOR_DEBUG_LEVEL == 2 */
; 1492 : 
; 1493 : 	iterator erase(const_iterator _First_arg,
; 1494 : 		const_iterator _Last_arg)
; 1495 : 		{	// erase [_First, _Last)
; 1496 : 		if (_First_arg == begin() && _Last_arg == end())
; 1497 : 			clear();
; 1498 : 		else if (_First_arg != _Last_arg)
; 1499 : 			{	// clear partial
; 1500 : 			iterator _First = _Make_iter(_First_arg);
; 1501 : 			iterator _Last = _Make_iter(_Last_arg);
; 1502 : 
; 1503 : 			if (_First != _Last)
; 1504 : 				{	// worth doing, copy down over hole
; 1505 :  #if _ITERATOR_DEBUG_LEVEL == 2
; 1506 : 				if (_Last < _First || _VICONT(_First) != &this->_Get_data()
; 1507 : 					|| _VIPTR(_First) < this->_Myfirst()
; 1508 : 					|| this->_Mylast() < _VIPTR(_Last))
; 1509 : 					_DEBUG_ERROR("vector erase iterator outside range");
; 1510 : 				pointer _Ptr = _Move(_VIPTR(_Last), this->_Mylast(),
; 1511 : 					_VIPTR(_First));
; 1512 : 				_Orphan_range(_VIPTR(_First), this->_Mylast());
; 1513 : 
; 1514 :  #else /* _ITERATOR_DEBUG_LEVEL == 2 */
; 1515 : 				pointer _Ptr = _Move(_VIPTR(_Last), this->_Mylast(),
; 1516 : 					_VIPTR(_First));
; 1517 :  #endif /* _ITERATOR_DEBUG_LEVEL == 2 */
; 1518 : 
; 1519 : 				_Destroy(_Ptr, this->_Mylast());
; 1520 : 				this->_Mylast() = _Ptr;
; 1521 : 				}
; 1522 : 			}
; 1523 : 		return (_Make_iter(_First_arg));
; 1524 : 		}
; 1525 : 
; 1526 : 	void _Pop_back_n(size_type _Count)
; 1527 : 		{	// erase _Count elements at end
; 1528 : 		pointer _Ptr = this->_Mylast() - _Count;
; 1529 : 
; 1530 :  #if _ITERATOR_DEBUG_LEVEL == 2
; 1531 : 		_Orphan_range(_Ptr, this->_Mylast());
; 1532 :  #endif /* _ITERATOR_DEBUG_LEVEL == 2 */
; 1533 : 
; 1534 : 		_Destroy(_Ptr, this->_Mylast());
; 1535 : 		this->_Mylast() = _Ptr;
; 1536 : 		}
; 1537 : 
; 1538 : 	void clear() _NOEXCEPT
; 1539 : 		{	// erase all
; 1540 : 		this->_Orphan_all();
; 1541 : 		_Destroy(this->_Myfirst(), this->_Mylast());
; 1542 : 		this->_Mylast() = this->_Myfirst();
; 1543 : 		}
; 1544 : 
; 1545 : 	void swap(_Myt& _Right)
; 1546 : 		_NOEXCEPT_OP(_Alty::propagate_on_container_swap::value
; 1547 : 			|| _Alty::is_always_equal::value)
; 1548 : 		{	// exchange contents with _Right
; 1549 : 		if (this == &_Right)
; 1550 : 			;	// same object, do nothing
; 1551 : 		else if (this->_Getal() == _Right._Getal())
; 1552 : 			{	// same allocator, swap control information
; 1553 : 			this->_Swap_all(_Right);
; 1554 : 			_Swap_adl(this->_Myfirst(), _Right._Myfirst());
; 1555 : 			_Swap_adl(this->_Mylast(), _Right._Mylast());
; 1556 : 			_Swap_adl(this->_Myend(), _Right._Myend());
; 1557 : 			}
; 1558 : 
; 1559 : 		else if (_Alty::propagate_on_container_swap::value)
; 1560 : 			{	// swap allocators and control information
; 1561 : 			this->_Swap_alloc(_Right);
; 1562 : 			_Swap_adl(this->_Myfirst(), _Right._Myfirst());
; 1563 : 			_Swap_adl(this->_Mylast(), _Right._Mylast());
; 1564 : 			_Swap_adl(this->_Myend(), _Right._Myend());
; 1565 : 			}
; 1566 : 
; 1567 : 		else
; 1568 : 			{	// containers are incompatible
; 1569 :  #if _ITERATOR_DEBUG_LEVEL == 2
; 1570 : 			_DEBUG_ERROR("vector containers incompatible for swap");
; 1571 : 
; 1572 :  #else /* ITERATOR_DEBUG_LEVEL == 2 */
; 1573 : 			_XSTD terminate();
; 1574 :  #endif /* ITERATOR_DEBUG_LEVEL == 2 */
; 1575 : 			}
; 1576 : 		}
; 1577 : 
; 1578 : protected:
; 1579 : 	bool _Buy(size_type _Capacity)
; 1580 : 		{	// allocate array with _Capacity elements
; 1581 : 		this->_Myfirst() = pointer();
; 1582 : 		this->_Mylast() = pointer();
; 1583 : 		this->_Myend() = pointer();
; 1584 : 
; 1585 : 		if (_Capacity == 0)
; 1586 : 			return (false);
; 1587 : 		else if (max_size() < _Capacity)
; 1588 : 			_Xlen();	// result too long
; 1589 : 		else
; 1590 : 			{	// nonempty array, allocate storage
; 1591 : 			this->_Myfirst() = this->_Getal().allocate(_Capacity);
; 1592 : 			this->_Mylast() = this->_Myfirst();
; 1593 : 			this->_Myend() = this->_Myfirst() + _Capacity;
; 1594 : 			}
; 1595 : 		return (true);
; 1596 : 		}
; 1597 : 
; 1598 : 	void _Destroy(pointer _First, pointer _Last)
; 1599 : 		{	// destroy [_First, _Last) using allocator
; 1600 : 		_Destroy_range(_First, _Last, this->_Getal());
; 1601 : 		}
; 1602 : 
; 1603 : 	size_type _Grow_to(size_type _Count) const
; 1604 : 		{	// grow by 50% or at least to _Count
; 1605 : 		size_type _Capacity = capacity();
; 1606 : 
; 1607 : 		_Capacity = max_size() - _Capacity / 2 < _Capacity

  00061	ba 55 55 55 15	 mov	 edx, 357913941		; 15555555H
  00066	8b c6		 mov	 eax, esi
  00068	d1 e8		 shr	 eax, 1
  0006a	2b d0		 sub	 edx, eax
  0006c	3b d6		 cmp	 edx, esi
  0006e	8d 0c 30	 lea	 ecx, DWORD PTR [eax+esi]
  00071	b8 00 00 00 00	 mov	 eax, 0
  00076	0f 42 c8	 cmovb	 ecx, eax

; 1608 : 			? 0 : _Capacity + _Capacity / 2;	// try to grow by 50%
; 1609 : 		if (_Capacity < _Count)

  00079	3b cf		 cmp	 ecx, edi
  0007b	0f 42 cf	 cmovb	 ecx, edi

; 1649 : 				_Xlen();
; 1650 : 			_Reallocate(_Grow_to(size() + _Count));

  0007e	51		 push	 ecx
  0007f	8b cb		 mov	 ecx, ebx
  00081	e8 00 00 00 00	 call	 ?_Reallocate@?$vector@URINGMONSTER_DATA@@V?$allocator@URINGMONSTER_DATA@@@std@@@std@@IAEXI@Z ; std::vector<RINGMONSTER_DATA,std::allocator<RINGMONSTER_DATA> >::_Reallocate
$LN2@Reserve:
  00086	5f		 pop	 edi
  00087	5e		 pop	 esi
  00088	5b		 pop	 ebx

; 1651 : 			}
; 1652 : 		}

  00089	5d		 pop	 ebp
  0008a	c2 04 00	 ret	 4
$LN134@Reserve:

; 1653 : 
; 1654 : 	void _Tidy()
; 1655 : 		{	// free all storage
; 1656 : 		if (this->_Myfirst() != pointer())
; 1657 : 			{	// something to free, destroy and deallocate it
; 1658 : 			this->_Orphan_all();
; 1659 : 			_Destroy(this->_Myfirst(), this->_Mylast());
; 1660 : 			this->_Getal().deallocate(this->_Myfirst(),
; 1661 : 				this->_Myend() - this->_Myfirst());
; 1662 : 			this->_Myfirst() = pointer();
; 1663 : 			this->_Mylast() = pointer();
; 1664 : 			this->_Myend() = pointer();
; 1665 : 			}
; 1666 : 		}
; 1667 : 
; 1668 : 	template<class _Iter>
; 1669 : 		pointer _Ucopy(_Iter _First, _Iter _Last, pointer _Ptr)
; 1670 : 		{	// copy initializing [_First, _Last), using allocator
; 1671 : 		return (_Uninitialized_copy(_First, _Last,
; 1672 : 			_Ptr, this->_Getal()));
; 1673 : 		}
; 1674 : 
; 1675 : 	template<class _Iter>
; 1676 : 		pointer _Umove(_Iter _First, _Iter _Last, pointer _Ptr)
; 1677 : 		{	// move initializing [_First, _Last), using allocator
; 1678 : 		return (_Uninitialized_move(_First, _Last,
; 1679 : 			_Ptr, this->_Getal()));
; 1680 : 		}
; 1681 : 
; 1682 : 	iterator _Insert_n(const_iterator _Where,
; 1683 : 		size_type _Count, const value_type& _Val)
; 1684 : 		{	// insert _Count * _Val at _Where
; 1685 :  #if _ITERATOR_DEBUG_LEVEL == 2
; 1686 : 		if (_VICONT(_Where) != &this->_Get_data()
; 1687 : 			|| _VIPTR(_Where) < this->_Myfirst()
; 1688 : 			|| this->_Mylast() < _VIPTR(_Where))
; 1689 : 			_DEBUG_ERROR("vector insert iterator outside range");
; 1690 :  #endif /* _ITERATOR_DEBUG_LEVEL == 2 */
; 1691 : 
; 1692 : 		size_type _Off = _VIPTR(_Where) - this->_Myfirst();
; 1693 : 		if (_Count == 0)
; 1694 : 			;
; 1695 : 		else if (_Unused_capacity() < _Count)
; 1696 : 			{	// not enough room, reallocate
; 1697 : 			if (max_size() - size() < _Count)
; 1698 : 				_Xlen();	// result too long
; 1699 : 
; 1700 : 			size_type _Capacity = _Grow_to(size() + _Count);
; 1701 : 			pointer _Newvec = this->_Getal().allocate(_Capacity);
; 1702 : 			size_type _Whereoff = _VIPTR(_Where) - this->_Myfirst();
; 1703 : 			int _Ncopied = 0;
; 1704 : 
; 1705 : 			_TRY_BEGIN
; 1706 : 			_Ufill(_Newvec + _Whereoff, _Count,
; 1707 : 				_STD addressof(_Val));	// add new stuff
; 1708 : 			++_Ncopied;
; 1709 : 			_Umove(this->_Myfirst(), _VIPTR(_Where),
; 1710 : 				_Newvec);	// copy prefix
; 1711 : 			++_Ncopied;
; 1712 : 			_Umove(_VIPTR(_Where), this->_Mylast(),
; 1713 : 				_Newvec + (_Whereoff + _Count));	// copy suffix
; 1714 : 			_CATCH_ALL
; 1715 : 			if (1 < _Ncopied)
; 1716 : 				_Destroy(_Newvec, _Newvec + _Whereoff);
; 1717 : 			if (0 < _Ncopied)
; 1718 : 				_Destroy(_Newvec + _Whereoff, _Newvec + _Whereoff + _Count);
; 1719 : 			this->_Getal().deallocate(_Newvec, _Capacity);
; 1720 : 			_RERAISE;
; 1721 : 			_CATCH_END
; 1722 : 
; 1723 : 			_Count += size();
; 1724 : 			if (this->_Myfirst() != pointer())
; 1725 : 				{	// destroy and deallocate old array
; 1726 : 				_Destroy(this->_Myfirst(), this->_Mylast());
; 1727 : 				this->_Getal().deallocate(this->_Myfirst(),
; 1728 : 					this->_Myend() - this->_Myfirst());
; 1729 : 				}
; 1730 : 
; 1731 : 			this->_Orphan_all();
; 1732 : 			this->_Myend() = _Newvec + _Capacity;
; 1733 : 			this->_Mylast() = _Newvec + _Count;
; 1734 : 			this->_Myfirst() = _Newvec;
; 1735 : 			}
; 1736 : 		else if ((size_type)(this->_Mylast() - _VIPTR(_Where))
; 1737 : 			< _Count)
; 1738 : 			{	// new stuff spills off end
; 1739 : 			value_type _Tmp = _Val;	// in case _Val is in sequence
; 1740 : 
; 1741 : 			_Umove(_VIPTR(_Where), this->_Mylast(),
; 1742 : 				_VIPTR(_Where) + _Count);	// copy suffix
; 1743 : 
; 1744 : 			_TRY_BEGIN
; 1745 : 			_Ufill(this->_Mylast(),
; 1746 : 				_Count - (this->_Mylast() - _VIPTR(_Where)),
; 1747 : 				_STD addressof(_Tmp));	// insert new stuff off end
; 1748 : 			_CATCH_ALL
; 1749 : 			_Destroy(_VIPTR(_Where) + _Count,
; 1750 : 				this->_Mylast() + _Count);
; 1751 : 			_RERAISE;
; 1752 : 			_CATCH_END
; 1753 : 
; 1754 : 			this->_Mylast() += _Count;
; 1755 : 			_Orphan_range(_VIPTR(_Where), this->_Mylast());
; 1756 : 			_STD fill(_VIPTR(_Where), this->_Mylast() - _Count,
; 1757 : 				_Tmp);	// insert up to old end
; 1758 : 			}
; 1759 : 		else
; 1760 : 			{	// new stuff can all be assigned
; 1761 : 			value_type _Tmp = _Val;	// in case _Val is in sequence
; 1762 : 
; 1763 : 			pointer _Oldend = this->_Mylast();
; 1764 : 			this->_Mylast() = _Umove(_Oldend - _Count, _Oldend,
; 1765 : 				this->_Mylast());	// copy suffix
; 1766 : 
; 1767 : 			_Orphan_range(_VIPTR(_Where), this->_Mylast());
; 1768 : 			_Move_backward(_VIPTR(_Where), _Oldend - _Count,
; 1769 : 				_Oldend);	// copy hole
; 1770 : 			_STD fill(_VIPTR(_Where),
; 1771 : 				_VIPTR(_Where) + _Count, _Tmp);	// insert into hole
; 1772 : 			}
; 1773 : 		return (begin() + _Off);
; 1774 : 		}
; 1775 : 
; 1776 : 	pointer _Ufill(pointer _Ptr, size_type _Count, const value_type *_Pval)
; 1777 : 		{	// copy initializing _Count * _Val, using allocator
; 1778 : 		_Uninitialized_fill_n(_Ptr, _Count, _Pval, this->_Getal());
; 1779 : 		return (_Ptr + _Count);
; 1780 : 		}
; 1781 : 
; 1782 : 	[[noreturn]] void _Xlen() const
; 1783 : 		{	// report a length_error
; 1784 : 		_Xlength_error("vector<T> too long");

  0008d	68 00 00 00 00	 push	 OFFSET ??_C@_0BD@OLBABOEK@vector?$DMT?$DO?5too?5long?$AA@
  00092	e8 00 00 00 00	 call	 ?_Xlength_error@std@@YAXPBD@Z ; std::_Xlength_error
$LN136@Reserve:
$LN133@Reserve:
  00097	cc		 int	 3
?_Reserve@?$vector@URINGMONSTER_DATA@@V?$allocator@URINGMONSTER_DATA@@@std@@@std@@IAEXI@Z ENDP ; std::vector<RINGMONSTER_DATA,std::allocator<RINGMONSTER_DATA> >::_Reserve
_TEXT	ENDS
; Function compile flags: /Ogtp
; File c:\program files (x86)\microsoft visual studio 14.0\vc\include\vector
; File c:\program files (x86)\microsoft visual studio 14.0\vc\include\xmemory0
; File c:\program files (x86)\microsoft visual studio 14.0\vc\include\xmemory
; File c:\program files (x86)\microsoft visual studio 14.0\vc\include\vector
; File c:\program files (x86)\microsoft visual studio 14.0\vc\include\xmemory
; File c:\program files (x86)\microsoft visual studio 14.0\vc\include\vector
; File c:\program files (x86)\microsoft visual studio 14.0\vc\include\xmemory
; File c:\program files (x86)\microsoft visual studio 14.0\vc\include\vector
; File c:\program files (x86)\microsoft visual studio 14.0\vc\include\xmemory
; File c:\program files (x86)\microsoft visual studio 14.0\vc\include\vector
; File c:\program files (x86)\microsoft visual studio 14.0\vc\include\xmemory0
; File c:\program files (x86)\microsoft visual studio 14.0\vc\include\vector
; File c:\program files (x86)\microsoft visual studio 14.0\vc\include\xmemory0
; File c:\program files (x86)\microsoft visual studio 14.0\vc\include\vector
; File c:\program files (x86)\microsoft visual studio 14.0\vc\include\xmemory0
; File c:\program files (x86)\microsoft visual studio 14.0\vc\include\vector
;	COMDAT ?_Reallocate@?$vector@URINGMONSTER_DATA@@V?$allocator@URINGMONSTER_DATA@@@std@@@std@@IAEXI@Z
_TEXT	SEGMENT
_this$ = -24						; size = 4
__Ptr$ = -20						; size = 4
__$EHRec$ = -16						; size = 16
__Cat$2 = 8						; size = 1
__Count$ = 8						; size = 4
?_Reallocate@?$vector@URINGMONSTER_DATA@@V?$allocator@URINGMONSTER_DATA@@@std@@@std@@IAEXI@Z PROC ; std::vector<RINGMONSTER_DATA,std::allocator<RINGMONSTER_DATA> >::_Reallocate, COMDAT
; _this$ = ecx

; 1620 : 		{	// move to array of exactly _Count elements

  00000	55		 push	 ebp
  00001	8b ec		 mov	 ebp, esp
  00003	6a ff		 push	 -1
  00005	68 00 00 00 00	 push	 __ehhandler$?_Reallocate@?$vector@URINGMONSTER_DATA@@V?$allocator@URINGMONSTER_DATA@@@std@@@std@@IAEXI@Z
  0000a	64 a1 00 00 00
	00		 mov	 eax, DWORD PTR fs:0
  00010	50		 push	 eax
  00011	83 ec 0c	 sub	 esp, 12			; 0000000cH
  00014	53		 push	 ebx
  00015	56		 push	 esi
  00016	57		 push	 edi
  00017	a1 00 00 00 00	 mov	 eax, DWORD PTR ___security_cookie
  0001c	33 c5		 xor	 eax, ebp
  0001e	50		 push	 eax
  0001f	8d 45 f4	 lea	 eax, DWORD PTR __$EHRec$[ebp+4]
  00022	64 a3 00 00 00
	00		 mov	 DWORD PTR fs:0, eax
  00028	89 65 f0	 mov	 DWORD PTR __$EHRec$[ebp], esp
  0002b	8b f1		 mov	 esi, ecx
  0002d	89 75 e8	 mov	 DWORD PTR _this$[ebp], esi
; File c:\program files (x86)\microsoft visual studio 14.0\vc\include\xmemory0

; 898  : 		return (_Mybase::allocate(_Count));

  00030	ff 75 08	 push	 DWORD PTR __Count$[ebp]
  00033	e8 00 00 00 00	 call	 ?allocate@?$allocator@URINGMONSTER_DATA@@@std@@QAEPAURINGMONSTER_DATA@@I@Z ; std::allocator<RINGMONSTER_DATA>::allocate
; File c:\program files (x86)\microsoft visual studio 14.0\vc\include\xmemory

; 481  : 	return (_Uninit_move(_First, _Last, _Dest, _Al,

  00038	ff 75 08	 push	 DWORD PTR __Cat$2[ebp]
; File c:\program files (x86)\microsoft visual studio 14.0\vc\include\vector

; 1621 : 		pointer _Ptr = this->_Getal().allocate(_Count);

  0003b	8b f8		 mov	 edi, eax

; 1622 : 
; 1623 : 		_TRY_BEGIN

  0003d	c7 45 fc 00 00
	00 00		 mov	 DWORD PTR __$EHRec$[ebp+12], 0
; File c:\program files (x86)\microsoft visual studio 14.0\vc\include\xmemory

; 481  : 	return (_Uninit_move(_First, _Last, _Dest, _Al,

  00044	6a 00		 push	 0
  00046	56		 push	 esi
  00047	57		 push	 edi
  00048	ff 76 04	 push	 DWORD PTR [esi+4]
; File c:\program files (x86)\microsoft visual studio 14.0\vc\include\vector

; 1621 : 		pointer _Ptr = this->_Getal().allocate(_Count);

  0004b	89 7d ec	 mov	 DWORD PTR __Ptr$[ebp], edi
; File c:\program files (x86)\microsoft visual studio 14.0\vc\include\xmemory

; 481  : 	return (_Uninit_move(_First, _Last, _Dest, _Al,

  0004e	ff 36		 push	 DWORD PTR [esi]
  00050	e8 00 00 00 00	 call	 ??$_Uninit_move@PAURINGMONSTER_DATA@@PAU1@V?$allocator@URINGMONSTER_DATA@@@std@@U1@@std@@YAPAURINGMONSTER_DATA@@PAU1@00AAU?$_Wrap_alloc@V?$allocator@URINGMONSTER_DATA@@@std@@@0@0U_Nonscalar_ptr_iterator_tag@0@@Z ; std::_Uninit_move<RINGMONSTER_DATA *,RINGMONSTER_DATA *,std::allocator<RINGMONSTER_DATA>,RINGMONSTER_DATA>
; File c:\program files (x86)\microsoft visual studio 14.0\vc\include\vector

; 1179 : 		return (this->_Mylast() - this->_Myfirst());

  00055	8b 4e 04	 mov	 ecx, DWORD PTR [esi+4]
  00058	b8 ab aa aa 2a	 mov	 eax, 715827883		; 2aaaaaabH
  0005d	2b 0e		 sub	 ecx, DWORD PTR [esi]
; File c:\program files (x86)\microsoft visual studio 14.0\vc\include\xmemory

; 481  : 	return (_Uninit_move(_First, _Last, _Dest, _Al,

  0005f	83 c4 18	 add	 esp, 24			; 00000018H
; File c:\program files (x86)\microsoft visual studio 14.0\vc\include\vector

; 1179 : 		return (this->_Mylast() - this->_Myfirst());

  00062	f7 e9		 imul	 ecx

; 1628 : 		_CATCH_END
; 1629 : 
; 1630 : 		size_type _Size = size();
; 1631 : 		if (this->_Myfirst() != pointer())

  00064	8b 06		 mov	 eax, DWORD PTR [esi]

; 1179 : 		return (this->_Mylast() - this->_Myfirst());

  00066	d1 fa		 sar	 edx, 1
  00068	8b da		 mov	 ebx, edx
  0006a	c1 eb 1f	 shr	 ebx, 31			; 0000001fH
  0006d	03 da		 add	 ebx, edx

; 1628 : 		_CATCH_END
; 1629 : 
; 1630 : 		size_type _Size = size();
; 1631 : 		if (this->_Myfirst() != pointer())

  0006f	85 c0		 test	 eax, eax
  00071	74 1f		 je	 SHORT $LN3@Reallocate

; 1634 : 			this->_Getal().deallocate(this->_Myfirst(),

  00073	8b 4e 08	 mov	 ecx, DWORD PTR [esi+8]
  00076	2b c8		 sub	 ecx, eax
  00078	b8 ab aa aa 2a	 mov	 eax, 715827883		; 2aaaaaabH
  0007d	f7 e9		 imul	 ecx
; File c:\program files (x86)\microsoft visual studio 14.0\vc\include\xmemory0

; 909  : 		_Mybase::deallocate(_Ptr, _Count);

  0007f	8b ce		 mov	 ecx, esi
; File c:\program files (x86)\microsoft visual studio 14.0\vc\include\vector

; 1634 : 			this->_Getal().deallocate(this->_Myfirst(),

  00081	d1 fa		 sar	 edx, 1
  00083	8b c2		 mov	 eax, edx
  00085	c1 e8 1f	 shr	 eax, 31			; 0000001fH
  00088	03 c2		 add	 eax, edx
; File c:\program files (x86)\microsoft visual studio 14.0\vc\include\xmemory0

; 909  : 		_Mybase::deallocate(_Ptr, _Count);

  0008a	50		 push	 eax
  0008b	ff 36		 push	 DWORD PTR [esi]
  0008d	e8 00 00 00 00	 call	 ?deallocate@?$allocator@URINGMONSTER_DATA@@@std@@QAEXPAURINGMONSTER_DATA@@I@Z ; std::allocator<RINGMONSTER_DATA>::deallocate
$LN3@Reallocate:
; File c:\program files (x86)\microsoft visual studio 14.0\vc\include\vector

; 1639 : 		this->_Myend() = _Ptr + _Count;

  00092	8b 45 08	 mov	 eax, DWORD PTR __Count$[ebp]
  00095	8d 04 40	 lea	 eax, DWORD PTR [eax+eax*2]
  00098	8d 04 87	 lea	 eax, DWORD PTR [edi+eax*4]
  0009b	89 46 08	 mov	 DWORD PTR [esi+8], eax

; 1640 : 		this->_Mylast() = _Ptr + _Size;

  0009e	8d 04 5b	 lea	 eax, DWORD PTR [ebx+ebx*2]
  000a1	8d 04 87	 lea	 eax, DWORD PTR [edi+eax*4]
  000a4	89 46 04	 mov	 DWORD PTR [esi+4], eax

; 1641 : 		this->_Myfirst() = _Ptr;

  000a7	89 3e		 mov	 DWORD PTR [esi], edi

; 1642 : 		}

  000a9	8b 4d f4	 mov	 ecx, DWORD PTR __$EHRec$[ebp+4]
  000ac	64 89 0d 00 00
	00 00		 mov	 DWORD PTR fs:0, ecx
  000b3	59		 pop	 ecx
  000b4	5f		 pop	 edi
  000b5	5e		 pop	 esi
  000b6	5b		 pop	 ebx
  000b7	8b e5		 mov	 esp, ebp
  000b9	5d		 pop	 ebp
  000ba	c2 04 00	 ret	 4
__catch$?_Reallocate@?$vector@URINGMONSTER_DATA@@V?$allocator@URINGMONSTER_DATA@@@std@@@std@@IAEXI@Z$0:
; File c:\program files (x86)\microsoft visual studio 14.0\vc\include\xmemory0

; 909  : 		_Mybase::deallocate(_Ptr, _Count);

  000bd	ff 75 08	 push	 DWORD PTR __Count$[ebp]
  000c0	8b 4d e8	 mov	 ecx, DWORD PTR _this$[ebp]
  000c3	ff 75 ec	 push	 DWORD PTR __Ptr$[ebp]
  000c6	e8 00 00 00 00	 call	 ?deallocate@?$allocator@URINGMONSTER_DATA@@@std@@QAEXPAURINGMONSTER_DATA@@I@Z ; std::allocator<RINGMONSTER_DATA>::deallocate
; File c:\program files (x86)\microsoft visual studio 14.0\vc\include\vector

; 1627 : 		_RERAISE;

  000cb	6a 00		 push	 0
  000cd	6a 00		 push	 0
  000cf	e8 00 00 00 00	 call	 __CxxThrowException@8
$LN179@Reallocate:
$LN178@Reallocate:
  000d4	cc		 int	 3
_TEXT	ENDS
;	COMDAT text$x
text$x	SEGMENT
__ehhandler$?_Reallocate@?$vector@URINGMONSTER_DATA@@V?$allocator@URINGMONSTER_DATA@@@std@@@std@@IAEXI@Z:
  00000	8b 54 24 08	 mov	 edx, DWORD PTR [esp+8]
  00004	8d 42 0c	 lea	 eax, DWORD PTR [edx+12]
  00007	8b 4a e4	 mov	 ecx, DWORD PTR [edx-28]
  0000a	33 c8		 xor	 ecx, eax
  0000c	e8 00 00 00 00	 call	 @__security_check_cookie@4
  00011	b8 00 00 00 00	 mov	 eax, OFFSET __ehfuncinfo$?_Reallocate@?$vector@URINGMONSTER_DATA@@V?$allocator@URINGMONSTER_DATA@@@std@@@std@@IAEXI@Z
  00016	e9 00 00 00 00	 jmp	 ___CxxFrameHandler3
text$x	ENDS
?_Reallocate@?$vector@URINGMONSTER_DATA@@V?$allocator@URINGMONSTER_DATA@@@std@@@std@@IAEXI@Z ENDP ; std::vector<RINGMONSTER_DATA,std::allocator<RINGMONSTER_DATA> >::_Reallocate
; Function compile flags: /Ogtp
; File c:\program files (x86)\microsoft visual studio 14.0\vc\include\vector
;	COMDAT ?_Inside@?$vector@URINGMONSTER_DATA@@V?$allocator@URINGMONSTER_DATA@@@std@@@std@@IBE_NPBURINGMONSTER_DATA@@@Z
_TEXT	SEGMENT
__Ptr$ = 8						; size = 4
?_Inside@?$vector@URINGMONSTER_DATA@@V?$allocator@URINGMONSTER_DATA@@@std@@@std@@IBE_NPBURINGMONSTER_DATA@@@Z PROC ; std::vector<RINGMONSTER_DATA,std::allocator<RINGMONSTER_DATA> >::_Inside, COMDAT
; _this$ = ecx

; 1615 : 		{	// test if _Ptr points inside vector

  00000	55		 push	 ebp
  00001	8b ec		 mov	 ebp, esp

; 1616 : 		return (_Ptr < this->_Mylast() && this->_Myfirst() <= _Ptr);

  00003	8b 45 08	 mov	 eax, DWORD PTR __Ptr$[ebp]
  00006	3b 41 04	 cmp	 eax, DWORD PTR [ecx+4]
  00009	73 0a		 jae	 SHORT $LN3@Inside
  0000b	39 01		 cmp	 DWORD PTR [ecx], eax
  0000d	77 06		 ja	 SHORT $LN3@Inside
  0000f	b0 01		 mov	 al, 1

; 1617 : 		}

  00011	5d		 pop	 ebp
  00012	c2 04 00	 ret	 4
$LN3@Inside:

; 1616 : 		return (_Ptr < this->_Mylast() && this->_Myfirst() <= _Ptr);

  00015	32 c0		 xor	 al, al

; 1617 : 		}

  00017	5d		 pop	 ebp
  00018	c2 04 00	 ret	 4
?_Inside@?$vector@URINGMONSTER_DATA@@V?$allocator@URINGMONSTER_DATA@@@std@@@std@@IBE_NPBURINGMONSTER_DATA@@@Z ENDP ; std::vector<RINGMONSTER_DATA,std::allocator<RINGMONSTER_DATA> >::_Inside
_TEXT	ENDS
; Function compile flags: /Ogtp
; File c:\program files (x86)\microsoft visual studio 14.0\vc\include\vector
;	COMDAT ?_Grow_to@?$vector@URINGMONSTER_DATA@@V?$allocator@URINGMONSTER_DATA@@@std@@@std@@IBEII@Z
_TEXT	SEGMENT
__Count$ = 8						; size = 4
?_Grow_to@?$vector@URINGMONSTER_DATA@@V?$allocator@URINGMONSTER_DATA@@@std@@@std@@IBEII@Z PROC ; std::vector<RINGMONSTER_DATA,std::allocator<RINGMONSTER_DATA> >::_Grow_to, COMDAT
; _this$ = ecx

; 1604 : 		{	// grow by 50% or at least to _Count

  00000	55		 push	 ebp
  00001	8b ec		 mov	 ebp, esp

; 1042 : 		return (this->_Myend() - this->_Myfirst());

  00003	8b 51 08	 mov	 edx, DWORD PTR [ecx+8]
  00006	b8 ab aa aa 2a	 mov	 eax, 715827883		; 2aaaaaabH
  0000b	2b 11		 sub	 edx, DWORD PTR [ecx]

; 1605 : 		size_type _Capacity = capacity();
; 1606 : 
; 1607 : 		_Capacity = max_size() - _Capacity / 2 < _Capacity

  0000d	b9 55 55 55 15	 mov	 ecx, 357913941		; 15555555H

; 1042 : 		return (this->_Myend() - this->_Myfirst());

  00012	f7 ea		 imul	 edx
  00014	56		 push	 esi
  00015	d1 fa		 sar	 edx, 1
  00017	8b f2		 mov	 esi, edx
  00019	c1 ee 1f	 shr	 esi, 31			; 0000001fH
  0001c	03 f2		 add	 esi, edx

; 1605 : 		size_type _Capacity = capacity();
; 1606 : 
; 1607 : 		_Capacity = max_size() - _Capacity / 2 < _Capacity

  0001e	8b c6		 mov	 eax, esi
  00020	d1 e8		 shr	 eax, 1
  00022	57		 push	 edi
  00023	2b c8		 sub	 ecx, eax
  00025	33 ff		 xor	 edi, edi
  00027	3b ce		 cmp	 ecx, esi
  00029	8d 14 30	 lea	 edx, DWORD PTR [eax+esi]
  0002c	0f 42 d7	 cmovb	 edx, edi

; 1608 : 			? 0 : _Capacity + _Capacity / 2;	// try to grow by 50%
; 1609 : 		if (_Capacity < _Count)

  0002f	3b 55 08	 cmp	 edx, DWORD PTR __Count$[ebp]
  00032	5f		 pop	 edi
  00033	0f 42 55 08	 cmovb	 edx, DWORD PTR __Count$[ebp]

; 1610 : 			_Capacity = _Count;
; 1611 : 		return (_Capacity);

  00037	8b c2		 mov	 eax, edx
  00039	5e		 pop	 esi

; 1612 : 		}

  0003a	5d		 pop	 ebp
  0003b	c2 04 00	 ret	 4
?_Grow_to@?$vector@URINGMONSTER_DATA@@V?$allocator@URINGMONSTER_DATA@@@std@@@std@@IBEII@Z ENDP ; std::vector<RINGMONSTER_DATA,std::allocator<RINGMONSTER_DATA> >::_Grow_to
_TEXT	ENDS
; Function compile flags: /Ogtp
; File c:\program files (x86)\microsoft visual studio 14.0\vc\include\vector
;	COMDAT ?_Destroy@?$vector@URINGMONSTER_DATA@@V?$allocator@URINGMONSTER_DATA@@@std@@@std@@IAEXPAURINGMONSTER_DATA@@0@Z
_TEXT	SEGMENT
__First$ = 8						; size = 4
__Last$ = 12						; size = 4
?_Destroy@?$vector@URINGMONSTER_DATA@@V?$allocator@URINGMONSTER_DATA@@@std@@@std@@IAEXPAURINGMONSTER_DATA@@0@Z PROC ; std::vector<RINGMONSTER_DATA,std::allocator<RINGMONSTER_DATA> >::_Destroy, COMDAT
; _this$ = ecx

; 1600 : 		_Destroy_range(_First, _Last, this->_Getal());
; 1601 : 		}

  00000	c2 08 00	 ret	 8
?_Destroy@?$vector@URINGMONSTER_DATA@@V?$allocator@URINGMONSTER_DATA@@@std@@@std@@IAEXPAURINGMONSTER_DATA@@0@Z ENDP ; std::vector<RINGMONSTER_DATA,std::allocator<RINGMONSTER_DATA> >::_Destroy
_TEXT	ENDS
; Function compile flags: /Ogtp
; File c:\program files (x86)\microsoft visual studio 14.0\vc\include\vector
;	COMDAT ?clear@?$vector@URINGMONSTER_DATA@@V?$allocator@URINGMONSTER_DATA@@@std@@@std@@QAEXXZ
_TEXT	SEGMENT
?clear@?$vector@URINGMONSTER_DATA@@V?$allocator@URINGMONSTER_DATA@@@std@@@std@@QAEXXZ PROC ; std::vector<RINGMONSTER_DATA,std::allocator<RINGMONSTER_DATA> >::clear, COMDAT
; _this$ = ecx

; 1540 : 		this->_Orphan_all();
; 1541 : 		_Destroy(this->_Myfirst(), this->_Mylast());
; 1542 : 		this->_Mylast() = this->_Myfirst();

  00000	8b 01		 mov	 eax, DWORD PTR [ecx]
  00002	89 41 04	 mov	 DWORD PTR [ecx+4], eax

; 1543 : 		}

  00005	c3		 ret	 0
?clear@?$vector@URINGMONSTER_DATA@@V?$allocator@URINGMONSTER_DATA@@@std@@@std@@QAEXXZ ENDP ; std::vector<RINGMONSTER_DATA,std::allocator<RINGMONSTER_DATA> >::clear
_TEXT	ENDS
; Function compile flags: /Ogtp
; File c:\program files (x86)\microsoft visual studio 14.0\vc\include\vector
; File c:\program files (x86)\microsoft visual studio 14.0\vc\include\xutility
; File c:\program files (x86)\microsoft visual studio 14.0\vc\include\vector
;	COMDAT ?erase@?$vector@URINGMONSTER_DATA@@V?$allocator@URINGMONSTER_DATA@@@std@@@std@@QAE?AV?$_Vector_iterator@V?$_Vector_val@U?$_Simple_types@URINGMONSTER_DATA@@@std@@@std@@@2@V?$_Vector_const_iterator@V?$_Vector_val@U?$_Simple_types@URINGMONSTER_DATA@@@std@@@std@@@2@0@Z
_TEXT	SEGMENT
___$ReturnUdt$ = 8					; size = 4
__First_arg$ = 12					; size = 4
__Last_arg$ = 16					; size = 4
?erase@?$vector@URINGMONSTER_DATA@@V?$allocator@URINGMONSTER_DATA@@@std@@@std@@QAE?AV?$_Vector_iterator@V?$_Vector_val@U?$_Simple_types@URINGMONSTER_DATA@@@std@@@std@@@2@V?$_Vector_const_iterator@V?$_Vector_val@U?$_Simple_types@URINGMONSTER_DATA@@@std@@@std@@@2@0@Z PROC ; std::vector<RINGMONSTER_DATA,std::allocator<RINGMONSTER_DATA> >::erase, COMDAT
; _this$ = ecx

; 1495 : 		{	// erase [_First, _Last)

  00000	55		 push	 ebp
  00001	8b ec		 mov	 ebp, esp

; 47   : 		{	// construct with pointer _Parg
; 48   : 		this->_Adopt(_Pvector);
; 49   : 		}
; 50   : 
; 51   : 	typedef pointer _Unchecked_type;
; 52   : 
; 53   : 	_Myiter& _Rechecked(_Unchecked_type _Right)
; 54   : 		{	// reset from unchecked iterator
; 55   : 		this->_Ptr = (_Tptr)_Right;
; 56   : 		return (*this);
; 57   : 		}
; 58   : 
; 59   : 	_Unchecked_type _Unchecked() const
; 60   : 		{	// make an unchecked iterator
; 61   : 		return (_Unchecked_type(this->_Ptr));
; 62   : 		}
; 63   : 
; 64   : 	reference operator*() const
; 65   : 		{	// return designated object
; 66   :  #if _ITERATOR_DEBUG_LEVEL == 2
; 67   : 		if (this->_Getcont() == 0
; 68   : 			|| this->_Ptr == 0
; 69   : 			|| this->_Ptr < ((_Myvec *)this->_Getcont())->_Myfirst
; 70   : 			|| ((_Myvec *)this->_Getcont())->_Mylast <= this->_Ptr)
; 71   : 			{	// report error
; 72   : 			_DEBUG_ERROR("vector iterator not dereferencable");
; 73   : 			_SCL_SECURE_OUT_OF_RANGE;
; 74   : 			}
; 75   : 
; 76   :  #elif _ITERATOR_DEBUG_LEVEL == 1
; 77   : 		_SCL_SECURE_VALIDATE(this->_Getcont() != 0);
; 78   : 		_SCL_SECURE_VALIDATE_RANGE(
; 79   : 			this->_Ptr != _Tptr()
; 80   : 			&& ((_Myvec *)this->_Getcont())->_Myfirst <= this->_Ptr
; 81   : 			&& this->_Ptr < ((_Myvec *)this->_Getcont())->_Mylast);
; 82   :  #endif /* _ITERATOR_DEBUG_LEVEL */
; 83   : 
; 84   : 		_Analysis_assume_(this->_Ptr != _Tptr());
; 85   : 
; 86   : 		return (*this->_Ptr);
; 87   : 		}
; 88   : 
; 89   : 	pointer operator->() const
; 90   : 		{	// return pointer to class object
; 91   : 		return (_STD pointer_traits<pointer>::pointer_to(**this));
; 92   : 		}
; 93   : 
; 94   : 	_Myiter& operator++()
; 95   : 		{	// preincrement
; 96   :  #if _ITERATOR_DEBUG_LEVEL == 2
; 97   : 		if (this->_Getcont() == 0
; 98   : 			|| this->_Ptr == 0
; 99   : 			|| ((_Myvec *)this->_Getcont())->_Mylast <= this->_Ptr)
; 100  : 			{	// report error
; 101  : 			_DEBUG_ERROR("vector iterator not incrementable");
; 102  : 			_SCL_SECURE_OUT_OF_RANGE;
; 103  : 			}
; 104  : 
; 105  :  #elif _ITERATOR_DEBUG_LEVEL == 1
; 106  : 		_SCL_SECURE_VALIDATE(this->_Getcont() != 0);
; 107  : 		_SCL_SECURE_VALIDATE_RANGE(
; 108  : 			this->_Ptr != _Tptr()
; 109  : 			&& this->_Ptr < ((_Myvec *)this->_Getcont())->_Mylast);
; 110  :  #endif /* _ITERATOR_DEBUG_LEVEL */
; 111  : 
; 112  : 		++this->_Ptr;
; 113  : 		return (*this);
; 114  : 		}
; 115  : 
; 116  : 	_Myiter operator++(int)
; 117  : 		{	// postincrement
; 118  : 		_Myiter _Tmp = *this;
; 119  : 		++*this;
; 120  : 		return (_Tmp);
; 121  : 		}
; 122  : 
; 123  : 	_Myiter& operator--()
; 124  : 		{	// predecrement
; 125  :  #if _ITERATOR_DEBUG_LEVEL == 2
; 126  : 		if (this->_Getcont() == 0
; 127  : 			|| this->_Ptr == 0
; 128  : 			|| this->_Ptr <= ((_Myvec *)this->_Getcont())->_Myfirst)
; 129  : 			{	// report error
; 130  : 			_DEBUG_ERROR("vector iterator not decrementable");
; 131  : 			_SCL_SECURE_OUT_OF_RANGE;
; 132  : 			}
; 133  : 
; 134  :  #elif _ITERATOR_DEBUG_LEVEL == 1
; 135  : 		_SCL_SECURE_VALIDATE(this->_Getcont() != 0);
; 136  : 		_SCL_SECURE_VALIDATE_RANGE(
; 137  : 			this->_Ptr != _Tptr()
; 138  : 			&& ((_Myvec *)this->_Getcont())->_Myfirst < this->_Ptr);
; 139  :  #endif /* _ITERATOR_DEBUG_LEVEL */
; 140  : 
; 141  : 		--this->_Ptr;
; 142  : 		return (*this);
; 143  : 		}
; 144  : 
; 145  : 	_Myiter operator--(int)
; 146  : 		{	// postdecrement
; 147  : 		_Myiter _Tmp = *this;
; 148  : 		--*this;
; 149  : 		return (_Tmp);
; 150  : 		}
; 151  : 
; 152  : 	_Myiter& operator+=(difference_type _Off)
; 153  : 		{	// increment by integer
; 154  :  #if _ITERATOR_DEBUG_LEVEL == 2
; 155  : 		if (this->_Getcont() == 0
; 156  : 			|| this->_Ptr + _Off < ((_Myvec *)this->_Getcont())->_Myfirst
; 157  : 			|| ((_Myvec *)this->_Getcont())->_Mylast < this->_Ptr + _Off)
; 158  : 			{	// report error
; 159  : 			_DEBUG_ERROR("vector iterator + offset out of range");
; 160  : 			_SCL_SECURE_OUT_OF_RANGE;
; 161  : 			}
; 162  : 
; 163  :  #elif _ITERATOR_DEBUG_LEVEL == 1
; 164  : 		_SCL_SECURE_VALIDATE(this->_Getcont() != 0);
; 165  : 		_SCL_SECURE_VALIDATE_RANGE(
; 166  : 			((_Myvec *)this->_Getcont())->_Myfirst <= this->_Ptr + _Off
; 167  : 			&& this->_Ptr + _Off <= ((_Myvec *)this->_Getcont())->_Mylast);
; 168  :  #endif /* _ITERATOR_DEBUG_LEVEL */
; 169  : 
; 170  : 		_Ptr += _Off;
; 171  : 		return (*this);
; 172  : 		}
; 173  : 
; 174  : 	_Myiter operator+(difference_type _Off) const
; 175  : 		{	// return this + integer
; 176  : 		_Myiter _Tmp = *this;
; 177  : 		return (_Tmp += _Off);
; 178  : 		}
; 179  : 
; 180  : 	_Myiter& operator-=(difference_type _Off)
; 181  : 		{	// decrement by integer
; 182  : 		return (*this += -_Off);
; 183  : 		}
; 184  : 
; 185  : 	_Myiter operator-(difference_type _Off) const
; 186  : 		{	// return this - integer
; 187  : 		_Myiter _Tmp = *this;
; 188  : 		return (_Tmp -= _Off);
; 189  : 		}
; 190  : 
; 191  : 	difference_type operator-(const _Myiter& _Right) const
; 192  : 		{	// return difference of iterators
; 193  : 		_Compat(_Right);
; 194  : 		return (this->_Ptr - _Right._Ptr);
; 195  : 		}
; 196  : 
; 197  : 	reference operator[](difference_type _Off) const
; 198  : 		{	// subscript
; 199  : 		return (*(*this + _Off));
; 200  : 		}
; 201  : 
; 202  : 	bool operator==(const _Myiter& _Right) const
; 203  : 		{	// test for iterator equality
; 204  : 		if (this->_Getcont() != _Right._Getcont())
; 205  : 			_Compat(_Right);
; 206  : 		return (this->_Ptr == _Right._Ptr);

  00003	8b 55 0c	 mov	 edx, DWORD PTR __First_arg$[ebp]
  00006	53		 push	 ebx

; 1495 : 		{	// erase [_First, _Last)

  00007	8b d9		 mov	 ebx, ecx
  00009	56		 push	 esi

; 1496 : 		if (_First_arg == begin() && _Last_arg == end())

  0000a	8b 75 10	 mov	 esi, DWORD PTR __Last_arg$[ebp]

; 46   : 		: _Ptr(_Parg)

  0000d	8b 03		 mov	 eax, DWORD PTR [ebx]

; 47   : 		{	// construct with pointer _Parg
; 48   : 		this->_Adopt(_Pvector);
; 49   : 		}
; 50   : 
; 51   : 	typedef pointer _Unchecked_type;
; 52   : 
; 53   : 	_Myiter& _Rechecked(_Unchecked_type _Right)
; 54   : 		{	// reset from unchecked iterator
; 55   : 		this->_Ptr = (_Tptr)_Right;
; 56   : 		return (*this);
; 57   : 		}
; 58   : 
; 59   : 	_Unchecked_type _Unchecked() const
; 60   : 		{	// make an unchecked iterator
; 61   : 		return (_Unchecked_type(this->_Ptr));
; 62   : 		}
; 63   : 
; 64   : 	reference operator*() const
; 65   : 		{	// return designated object
; 66   :  #if _ITERATOR_DEBUG_LEVEL == 2
; 67   : 		if (this->_Getcont() == 0
; 68   : 			|| this->_Ptr == 0
; 69   : 			|| this->_Ptr < ((_Myvec *)this->_Getcont())->_Myfirst
; 70   : 			|| ((_Myvec *)this->_Getcont())->_Mylast <= this->_Ptr)
; 71   : 			{	// report error
; 72   : 			_DEBUG_ERROR("vector iterator not dereferencable");
; 73   : 			_SCL_SECURE_OUT_OF_RANGE;
; 74   : 			}
; 75   : 
; 76   :  #elif _ITERATOR_DEBUG_LEVEL == 1
; 77   : 		_SCL_SECURE_VALIDATE(this->_Getcont() != 0);
; 78   : 		_SCL_SECURE_VALIDATE_RANGE(
; 79   : 			this->_Ptr != _Tptr()
; 80   : 			&& ((_Myvec *)this->_Getcont())->_Myfirst <= this->_Ptr
; 81   : 			&& this->_Ptr < ((_Myvec *)this->_Getcont())->_Mylast);
; 82   :  #endif /* _ITERATOR_DEBUG_LEVEL */
; 83   : 
; 84   : 		_Analysis_assume_(this->_Ptr != _Tptr());
; 85   : 
; 86   : 		return (*this->_Ptr);
; 87   : 		}
; 88   : 
; 89   : 	pointer operator->() const
; 90   : 		{	// return pointer to class object
; 91   : 		return (_STD pointer_traits<pointer>::pointer_to(**this));
; 92   : 		}
; 93   : 
; 94   : 	_Myiter& operator++()
; 95   : 		{	// preincrement
; 96   :  #if _ITERATOR_DEBUG_LEVEL == 2
; 97   : 		if (this->_Getcont() == 0
; 98   : 			|| this->_Ptr == 0
; 99   : 			|| ((_Myvec *)this->_Getcont())->_Mylast <= this->_Ptr)
; 100  : 			{	// report error
; 101  : 			_DEBUG_ERROR("vector iterator not incrementable");
; 102  : 			_SCL_SECURE_OUT_OF_RANGE;
; 103  : 			}
; 104  : 
; 105  :  #elif _ITERATOR_DEBUG_LEVEL == 1
; 106  : 		_SCL_SECURE_VALIDATE(this->_Getcont() != 0);
; 107  : 		_SCL_SECURE_VALIDATE_RANGE(
; 108  : 			this->_Ptr != _Tptr()
; 109  : 			&& this->_Ptr < ((_Myvec *)this->_Getcont())->_Mylast);
; 110  :  #endif /* _ITERATOR_DEBUG_LEVEL */
; 111  : 
; 112  : 		++this->_Ptr;
; 113  : 		return (*this);
; 114  : 		}
; 115  : 
; 116  : 	_Myiter operator++(int)
; 117  : 		{	// postincrement
; 118  : 		_Myiter _Tmp = *this;
; 119  : 		++*this;
; 120  : 		return (_Tmp);
; 121  : 		}
; 122  : 
; 123  : 	_Myiter& operator--()
; 124  : 		{	// predecrement
; 125  :  #if _ITERATOR_DEBUG_LEVEL == 2
; 126  : 		if (this->_Getcont() == 0
; 127  : 			|| this->_Ptr == 0
; 128  : 			|| this->_Ptr <= ((_Myvec *)this->_Getcont())->_Myfirst)
; 129  : 			{	// report error
; 130  : 			_DEBUG_ERROR("vector iterator not decrementable");
; 131  : 			_SCL_SECURE_OUT_OF_RANGE;
; 132  : 			}
; 133  : 
; 134  :  #elif _ITERATOR_DEBUG_LEVEL == 1
; 135  : 		_SCL_SECURE_VALIDATE(this->_Getcont() != 0);
; 136  : 		_SCL_SECURE_VALIDATE_RANGE(
; 137  : 			this->_Ptr != _Tptr()
; 138  : 			&& ((_Myvec *)this->_Getcont())->_Myfirst < this->_Ptr);
; 139  :  #endif /* _ITERATOR_DEBUG_LEVEL */
; 140  : 
; 141  : 		--this->_Ptr;
; 142  : 		return (*this);
; 143  : 		}
; 144  : 
; 145  : 	_Myiter operator--(int)
; 146  : 		{	// postdecrement
; 147  : 		_Myiter _Tmp = *this;
; 148  : 		--*this;
; 149  : 		return (_Tmp);
; 150  : 		}
; 151  : 
; 152  : 	_Myiter& operator+=(difference_type _Off)
; 153  : 		{	// increment by integer
; 154  :  #if _ITERATOR_DEBUG_LEVEL == 2
; 155  : 		if (this->_Getcont() == 0
; 156  : 			|| this->_Ptr + _Off < ((_Myvec *)this->_Getcont())->_Myfirst
; 157  : 			|| ((_Myvec *)this->_Getcont())->_Mylast < this->_Ptr + _Off)
; 158  : 			{	// report error
; 159  : 			_DEBUG_ERROR("vector iterator + offset out of range");
; 160  : 			_SCL_SECURE_OUT_OF_RANGE;
; 161  : 			}
; 162  : 
; 163  :  #elif _ITERATOR_DEBUG_LEVEL == 1
; 164  : 		_SCL_SECURE_VALIDATE(this->_Getcont() != 0);
; 165  : 		_SCL_SECURE_VALIDATE_RANGE(
; 166  : 			((_Myvec *)this->_Getcont())->_Myfirst <= this->_Ptr + _Off
; 167  : 			&& this->_Ptr + _Off <= ((_Myvec *)this->_Getcont())->_Mylast);
; 168  :  #endif /* _ITERATOR_DEBUG_LEVEL */
; 169  : 
; 170  : 		_Ptr += _Off;
; 171  : 		return (*this);
; 172  : 		}
; 173  : 
; 174  : 	_Myiter operator+(difference_type _Off) const
; 175  : 		{	// return this + integer
; 176  : 		_Myiter _Tmp = *this;
; 177  : 		return (_Tmp += _Off);
; 178  : 		}
; 179  : 
; 180  : 	_Myiter& operator-=(difference_type _Off)
; 181  : 		{	// decrement by integer
; 182  : 		return (*this += -_Off);
; 183  : 		}
; 184  : 
; 185  : 	_Myiter operator-(difference_type _Off) const
; 186  : 		{	// return this - integer
; 187  : 		_Myiter _Tmp = *this;
; 188  : 		return (_Tmp -= _Off);
; 189  : 		}
; 190  : 
; 191  : 	difference_type operator-(const _Myiter& _Right) const
; 192  : 		{	// return difference of iterators
; 193  : 		_Compat(_Right);
; 194  : 		return (this->_Ptr - _Right._Ptr);
; 195  : 		}
; 196  : 
; 197  : 	reference operator[](difference_type _Off) const
; 198  : 		{	// subscript
; 199  : 		return (*(*this + _Off));
; 200  : 		}
; 201  : 
; 202  : 	bool operator==(const _Myiter& _Right) const
; 203  : 		{	// test for iterator equality
; 204  : 		if (this->_Getcont() != _Right._Getcont())
; 205  : 			_Compat(_Right);
; 206  : 		return (this->_Ptr == _Right._Ptr);

  0000f	3b d0		 cmp	 edx, eax

; 1496 : 		if (_First_arg == begin() && _Last_arg == end())

  00011	75 13		 jne	 SHORT $LN2@erase

; 47   : 		{	// construct with pointer _Parg
; 48   : 		this->_Adopt(_Pvector);
; 49   : 		}
; 50   : 
; 51   : 	typedef pointer _Unchecked_type;
; 52   : 
; 53   : 	_Myiter& _Rechecked(_Unchecked_type _Right)
; 54   : 		{	// reset from unchecked iterator
; 55   : 		this->_Ptr = (_Tptr)_Right;
; 56   : 		return (*this);
; 57   : 		}
; 58   : 
; 59   : 	_Unchecked_type _Unchecked() const
; 60   : 		{	// make an unchecked iterator
; 61   : 		return (_Unchecked_type(this->_Ptr));
; 62   : 		}
; 63   : 
; 64   : 	reference operator*() const
; 65   : 		{	// return designated object
; 66   :  #if _ITERATOR_DEBUG_LEVEL == 2
; 67   : 		if (this->_Getcont() == 0
; 68   : 			|| this->_Ptr == 0
; 69   : 			|| this->_Ptr < ((_Myvec *)this->_Getcont())->_Myfirst
; 70   : 			|| ((_Myvec *)this->_Getcont())->_Mylast <= this->_Ptr)
; 71   : 			{	// report error
; 72   : 			_DEBUG_ERROR("vector iterator not dereferencable");
; 73   : 			_SCL_SECURE_OUT_OF_RANGE;
; 74   : 			}
; 75   : 
; 76   :  #elif _ITERATOR_DEBUG_LEVEL == 1
; 77   : 		_SCL_SECURE_VALIDATE(this->_Getcont() != 0);
; 78   : 		_SCL_SECURE_VALIDATE_RANGE(
; 79   : 			this->_Ptr != _Tptr()
; 80   : 			&& ((_Myvec *)this->_Getcont())->_Myfirst <= this->_Ptr
; 81   : 			&& this->_Ptr < ((_Myvec *)this->_Getcont())->_Mylast);
; 82   :  #endif /* _ITERATOR_DEBUG_LEVEL */
; 83   : 
; 84   : 		_Analysis_assume_(this->_Ptr != _Tptr());
; 85   : 
; 86   : 		return (*this->_Ptr);
; 87   : 		}
; 88   : 
; 89   : 	pointer operator->() const
; 90   : 		{	// return pointer to class object
; 91   : 		return (_STD pointer_traits<pointer>::pointer_to(**this));
; 92   : 		}
; 93   : 
; 94   : 	_Myiter& operator++()
; 95   : 		{	// preincrement
; 96   :  #if _ITERATOR_DEBUG_LEVEL == 2
; 97   : 		if (this->_Getcont() == 0
; 98   : 			|| this->_Ptr == 0
; 99   : 			|| ((_Myvec *)this->_Getcont())->_Mylast <= this->_Ptr)
; 100  : 			{	// report error
; 101  : 			_DEBUG_ERROR("vector iterator not incrementable");
; 102  : 			_SCL_SECURE_OUT_OF_RANGE;
; 103  : 			}
; 104  : 
; 105  :  #elif _ITERATOR_DEBUG_LEVEL == 1
; 106  : 		_SCL_SECURE_VALIDATE(this->_Getcont() != 0);
; 107  : 		_SCL_SECURE_VALIDATE_RANGE(
; 108  : 			this->_Ptr != _Tptr()
; 109  : 			&& this->_Ptr < ((_Myvec *)this->_Getcont())->_Mylast);
; 110  :  #endif /* _ITERATOR_DEBUG_LEVEL */
; 111  : 
; 112  : 		++this->_Ptr;
; 113  : 		return (*this);
; 114  : 		}
; 115  : 
; 116  : 	_Myiter operator++(int)
; 117  : 		{	// postincrement
; 118  : 		_Myiter _Tmp = *this;
; 119  : 		++*this;
; 120  : 		return (_Tmp);
; 121  : 		}
; 122  : 
; 123  : 	_Myiter& operator--()
; 124  : 		{	// predecrement
; 125  :  #if _ITERATOR_DEBUG_LEVEL == 2
; 126  : 		if (this->_Getcont() == 0
; 127  : 			|| this->_Ptr == 0
; 128  : 			|| this->_Ptr <= ((_Myvec *)this->_Getcont())->_Myfirst)
; 129  : 			{	// report error
; 130  : 			_DEBUG_ERROR("vector iterator not decrementable");
; 131  : 			_SCL_SECURE_OUT_OF_RANGE;
; 132  : 			}
; 133  : 
; 134  :  #elif _ITERATOR_DEBUG_LEVEL == 1
; 135  : 		_SCL_SECURE_VALIDATE(this->_Getcont() != 0);
; 136  : 		_SCL_SECURE_VALIDATE_RANGE(
; 137  : 			this->_Ptr != _Tptr()
; 138  : 			&& ((_Myvec *)this->_Getcont())->_Myfirst < this->_Ptr);
; 139  :  #endif /* _ITERATOR_DEBUG_LEVEL */
; 140  : 
; 141  : 		--this->_Ptr;
; 142  : 		return (*this);
; 143  : 		}
; 144  : 
; 145  : 	_Myiter operator--(int)
; 146  : 		{	// postdecrement
; 147  : 		_Myiter _Tmp = *this;
; 148  : 		--*this;
; 149  : 		return (_Tmp);
; 150  : 		}
; 151  : 
; 152  : 	_Myiter& operator+=(difference_type _Off)
; 153  : 		{	// increment by integer
; 154  :  #if _ITERATOR_DEBUG_LEVEL == 2
; 155  : 		if (this->_Getcont() == 0
; 156  : 			|| this->_Ptr + _Off < ((_Myvec *)this->_Getcont())->_Myfirst
; 157  : 			|| ((_Myvec *)this->_Getcont())->_Mylast < this->_Ptr + _Off)
; 158  : 			{	// report error
; 159  : 			_DEBUG_ERROR("vector iterator + offset out of range");
; 160  : 			_SCL_SECURE_OUT_OF_RANGE;
; 161  : 			}
; 162  : 
; 163  :  #elif _ITERATOR_DEBUG_LEVEL == 1
; 164  : 		_SCL_SECURE_VALIDATE(this->_Getcont() != 0);
; 165  : 		_SCL_SECURE_VALIDATE_RANGE(
; 166  : 			((_Myvec *)this->_Getcont())->_Myfirst <= this->_Ptr + _Off
; 167  : 			&& this->_Ptr + _Off <= ((_Myvec *)this->_Getcont())->_Mylast);
; 168  :  #endif /* _ITERATOR_DEBUG_LEVEL */
; 169  : 
; 170  : 		_Ptr += _Off;
; 171  : 		return (*this);
; 172  : 		}
; 173  : 
; 174  : 	_Myiter operator+(difference_type _Off) const
; 175  : 		{	// return this + integer
; 176  : 		_Myiter _Tmp = *this;
; 177  : 		return (_Tmp += _Off);
; 178  : 		}
; 179  : 
; 180  : 	_Myiter& operator-=(difference_type _Off)
; 181  : 		{	// decrement by integer
; 182  : 		return (*this += -_Off);
; 183  : 		}
; 184  : 
; 185  : 	_Myiter operator-(difference_type _Off) const
; 186  : 		{	// return this - integer
; 187  : 		_Myiter _Tmp = *this;
; 188  : 		return (_Tmp -= _Off);
; 189  : 		}
; 190  : 
; 191  : 	difference_type operator-(const _Myiter& _Right) const
; 192  : 		{	// return difference of iterators
; 193  : 		_Compat(_Right);
; 194  : 		return (this->_Ptr - _Right._Ptr);
; 195  : 		}
; 196  : 
; 197  : 	reference operator[](difference_type _Off) const
; 198  : 		{	// subscript
; 199  : 		return (*(*this + _Off));
; 200  : 		}
; 201  : 
; 202  : 	bool operator==(const _Myiter& _Right) const
; 203  : 		{	// test for iterator equality
; 204  : 		if (this->_Getcont() != _Right._Getcont())
; 205  : 			_Compat(_Right);
; 206  : 		return (this->_Ptr == _Right._Ptr);

  00013	3b 73 04	 cmp	 esi, DWORD PTR [ebx+4]

; 1496 : 		if (_First_arg == begin() && _Last_arg == end())

  00016	75 0e		 jne	 SHORT $LN2@erase

; 1525 : 
; 1526 : 	void _Pop_back_n(size_type _Count)
; 1527 : 		{	// erase _Count elements at end
; 1528 : 		pointer _Ptr = this->_Mylast() - _Count;
; 1529 : 
; 1530 :  #if _ITERATOR_DEBUG_LEVEL == 2
; 1531 : 		_Orphan_range(_Ptr, this->_Mylast());
; 1532 :  #endif /* _ITERATOR_DEBUG_LEVEL == 2 */
; 1533 : 
; 1534 : 		_Destroy(_Ptr, this->_Mylast());
; 1535 : 		this->_Mylast() = _Ptr;
; 1536 : 		}
; 1537 : 
; 1538 : 	void clear() _NOEXCEPT
; 1539 : 		{	// erase all
; 1540 : 		this->_Orphan_all();
; 1541 : 		_Destroy(this->_Myfirst(), this->_Mylast());
; 1542 : 		this->_Mylast() = this->_Myfirst();

  00018	89 43 04	 mov	 DWORD PTR [ebx+4], eax

; 46   : 		: _Ptr(_Parg)

  0001b	8b 45 08	 mov	 eax, DWORD PTR ___$ReturnUdt$[ebp]
  0001e	5e		 pop	 esi
  0001f	5b		 pop	 ebx
  00020	89 10		 mov	 DWORD PTR [eax], edx

; 1521 : 				}
; 1522 : 			}
; 1523 : 		return (_Make_iter(_First_arg));
; 1524 : 		}

  00022	5d		 pop	 ebp
  00023	c2 0c 00	 ret	 12			; 0000000cH
$LN2@erase:

; 47   : 		{	// construct with pointer _Parg
; 48   : 		this->_Adopt(_Pvector);
; 49   : 		}
; 50   : 
; 51   : 	typedef pointer _Unchecked_type;
; 52   : 
; 53   : 	_Myiter& _Rechecked(_Unchecked_type _Right)
; 54   : 		{	// reset from unchecked iterator
; 55   : 		this->_Ptr = (_Tptr)_Right;
; 56   : 		return (*this);
; 57   : 		}
; 58   : 
; 59   : 	_Unchecked_type _Unchecked() const
; 60   : 		{	// make an unchecked iterator
; 61   : 		return (_Unchecked_type(this->_Ptr));
; 62   : 		}
; 63   : 
; 64   : 	reference operator*() const
; 65   : 		{	// return designated object
; 66   :  #if _ITERATOR_DEBUG_LEVEL == 2
; 67   : 		if (this->_Getcont() == 0
; 68   : 			|| this->_Ptr == 0
; 69   : 			|| this->_Ptr < ((_Myvec *)this->_Getcont())->_Myfirst
; 70   : 			|| ((_Myvec *)this->_Getcont())->_Mylast <= this->_Ptr)
; 71   : 			{	// report error
; 72   : 			_DEBUG_ERROR("vector iterator not dereferencable");
; 73   : 			_SCL_SECURE_OUT_OF_RANGE;
; 74   : 			}
; 75   : 
; 76   :  #elif _ITERATOR_DEBUG_LEVEL == 1
; 77   : 		_SCL_SECURE_VALIDATE(this->_Getcont() != 0);
; 78   : 		_SCL_SECURE_VALIDATE_RANGE(
; 79   : 			this->_Ptr != _Tptr()
; 80   : 			&& ((_Myvec *)this->_Getcont())->_Myfirst <= this->_Ptr
; 81   : 			&& this->_Ptr < ((_Myvec *)this->_Getcont())->_Mylast);
; 82   :  #endif /* _ITERATOR_DEBUG_LEVEL */
; 83   : 
; 84   : 		_Analysis_assume_(this->_Ptr != _Tptr());
; 85   : 
; 86   : 		return (*this->_Ptr);
; 87   : 		}
; 88   : 
; 89   : 	pointer operator->() const
; 90   : 		{	// return pointer to class object
; 91   : 		return (_STD pointer_traits<pointer>::pointer_to(**this));
; 92   : 		}
; 93   : 
; 94   : 	_Myiter& operator++()
; 95   : 		{	// preincrement
; 96   :  #if _ITERATOR_DEBUG_LEVEL == 2
; 97   : 		if (this->_Getcont() == 0
; 98   : 			|| this->_Ptr == 0
; 99   : 			|| ((_Myvec *)this->_Getcont())->_Mylast <= this->_Ptr)
; 100  : 			{	// report error
; 101  : 			_DEBUG_ERROR("vector iterator not incrementable");
; 102  : 			_SCL_SECURE_OUT_OF_RANGE;
; 103  : 			}
; 104  : 
; 105  :  #elif _ITERATOR_DEBUG_LEVEL == 1
; 106  : 		_SCL_SECURE_VALIDATE(this->_Getcont() != 0);
; 107  : 		_SCL_SECURE_VALIDATE_RANGE(
; 108  : 			this->_Ptr != _Tptr()
; 109  : 			&& this->_Ptr < ((_Myvec *)this->_Getcont())->_Mylast);
; 110  :  #endif /* _ITERATOR_DEBUG_LEVEL */
; 111  : 
; 112  : 		++this->_Ptr;
; 113  : 		return (*this);
; 114  : 		}
; 115  : 
; 116  : 	_Myiter operator++(int)
; 117  : 		{	// postincrement
; 118  : 		_Myiter _Tmp = *this;
; 119  : 		++*this;
; 120  : 		return (_Tmp);
; 121  : 		}
; 122  : 
; 123  : 	_Myiter& operator--()
; 124  : 		{	// predecrement
; 125  :  #if _ITERATOR_DEBUG_LEVEL == 2
; 126  : 		if (this->_Getcont() == 0
; 127  : 			|| this->_Ptr == 0
; 128  : 			|| this->_Ptr <= ((_Myvec *)this->_Getcont())->_Myfirst)
; 129  : 			{	// report error
; 130  : 			_DEBUG_ERROR("vector iterator not decrementable");
; 131  : 			_SCL_SECURE_OUT_OF_RANGE;
; 132  : 			}
; 133  : 
; 134  :  #elif _ITERATOR_DEBUG_LEVEL == 1
; 135  : 		_SCL_SECURE_VALIDATE(this->_Getcont() != 0);
; 136  : 		_SCL_SECURE_VALIDATE_RANGE(
; 137  : 			this->_Ptr != _Tptr()
; 138  : 			&& ((_Myvec *)this->_Getcont())->_Myfirst < this->_Ptr);
; 139  :  #endif /* _ITERATOR_DEBUG_LEVEL */
; 140  : 
; 141  : 		--this->_Ptr;
; 142  : 		return (*this);
; 143  : 		}
; 144  : 
; 145  : 	_Myiter operator--(int)
; 146  : 		{	// postdecrement
; 147  : 		_Myiter _Tmp = *this;
; 148  : 		--*this;
; 149  : 		return (_Tmp);
; 150  : 		}
; 151  : 
; 152  : 	_Myiter& operator+=(difference_type _Off)
; 153  : 		{	// increment by integer
; 154  :  #if _ITERATOR_DEBUG_LEVEL == 2
; 155  : 		if (this->_Getcont() == 0
; 156  : 			|| this->_Ptr + _Off < ((_Myvec *)this->_Getcont())->_Myfirst
; 157  : 			|| ((_Myvec *)this->_Getcont())->_Mylast < this->_Ptr + _Off)
; 158  : 			{	// report error
; 159  : 			_DEBUG_ERROR("vector iterator + offset out of range");
; 160  : 			_SCL_SECURE_OUT_OF_RANGE;
; 161  : 			}
; 162  : 
; 163  :  #elif _ITERATOR_DEBUG_LEVEL == 1
; 164  : 		_SCL_SECURE_VALIDATE(this->_Getcont() != 0);
; 165  : 		_SCL_SECURE_VALIDATE_RANGE(
; 166  : 			((_Myvec *)this->_Getcont())->_Myfirst <= this->_Ptr + _Off
; 167  : 			&& this->_Ptr + _Off <= ((_Myvec *)this->_Getcont())->_Mylast);
; 168  :  #endif /* _ITERATOR_DEBUG_LEVEL */
; 169  : 
; 170  : 		_Ptr += _Off;
; 171  : 		return (*this);
; 172  : 		}
; 173  : 
; 174  : 	_Myiter operator+(difference_type _Off) const
; 175  : 		{	// return this + integer
; 176  : 		_Myiter _Tmp = *this;
; 177  : 		return (_Tmp += _Off);
; 178  : 		}
; 179  : 
; 180  : 	_Myiter& operator-=(difference_type _Off)
; 181  : 		{	// decrement by integer
; 182  : 		return (*this += -_Off);
; 183  : 		}
; 184  : 
; 185  : 	_Myiter operator-(difference_type _Off) const
; 186  : 		{	// return this - integer
; 187  : 		_Myiter _Tmp = *this;
; 188  : 		return (_Tmp -= _Off);
; 189  : 		}
; 190  : 
; 191  : 	difference_type operator-(const _Myiter& _Right) const
; 192  : 		{	// return difference of iterators
; 193  : 		_Compat(_Right);
; 194  : 		return (this->_Ptr - _Right._Ptr);
; 195  : 		}
; 196  : 
; 197  : 	reference operator[](difference_type _Off) const
; 198  : 		{	// subscript
; 199  : 		return (*(*this + _Off));
; 200  : 		}
; 201  : 
; 202  : 	bool operator==(const _Myiter& _Right) const
; 203  : 		{	// test for iterator equality
; 204  : 		if (this->_Getcont() != _Right._Getcont())
; 205  : 			_Compat(_Right);
; 206  : 		return (this->_Ptr == _Right._Ptr);

  00026	3b d6		 cmp	 edx, esi

; 1497 : 			clear();
; 1498 : 		else if (_First_arg != _Last_arg)

  00028	74 29		 je	 SHORT $LN219@erase

; 1499 : 			{	// clear partial
; 1500 : 			iterator _First = _Make_iter(_First_arg);
; 1501 : 			iterator _Last = _Make_iter(_Last_arg);
; 1502 : 
; 1503 : 			if (_First != _Last)
; 1504 : 				{	// worth doing, copy down over hole
; 1505 :  #if _ITERATOR_DEBUG_LEVEL == 2
; 1506 : 				if (_Last < _First || _VICONT(_First) != &this->_Get_data()
; 1507 : 					|| _VIPTR(_First) < this->_Myfirst()
; 1508 : 					|| this->_Mylast() < _VIPTR(_Last))
; 1509 : 					_DEBUG_ERROR("vector erase iterator outside range");
; 1510 : 				pointer _Ptr = _Move(_VIPTR(_Last), this->_Mylast(),
; 1511 : 					_VIPTR(_First));
; 1512 : 				_Orphan_range(_VIPTR(_First), this->_Mylast());
; 1513 : 
; 1514 :  #else /* _ITERATOR_DEBUG_LEVEL == 2 */
; 1515 : 				pointer _Ptr = _Move(_VIPTR(_Last), this->_Mylast(),

  0002a	57		 push	 edi
  0002b	8b 7b 04	 mov	 edi, DWORD PTR [ebx+4]
; File c:\program files (x86)\microsoft visual studio 14.0\vc\include\xutility

; 2538 : 	return (_Move(_First, _Last,

  0002e	8b ca		 mov	 ecx, edx

; 2517 : 	for (; _First != _Last; ++_Dest, (void)++_First)

  00030	3b f7		 cmp	 esi, edi
  00032	74 1b		 je	 SHORT $LN177@erase
$LL178@erase:

; 2518 : 		*_Dest = _STD move(*_First);

  00034	f3 0f 7e 06	 movq	 xmm0, QWORD PTR [esi]
  00038	66 0f d6 01	 movq	 QWORD PTR [ecx], xmm0
  0003c	8b 46 08	 mov	 eax, DWORD PTR [esi+8]
  0003f	83 c6 0c	 add	 esi, 12			; 0000000cH
  00042	89 41 08	 mov	 DWORD PTR [ecx+8], eax
  00045	83 c1 0c	 add	 ecx, 12			; 0000000cH
  00048	3b f7		 cmp	 esi, edi
  0004a	75 e8		 jne	 SHORT $LL178@erase

; 2517 : 	for (; _First != _Last; ++_Dest, (void)++_First)

  0004c	8b 55 0c	 mov	 edx, DWORD PTR __First_arg$[ebp]
$LN177@erase:
; File c:\program files (x86)\microsoft visual studio 14.0\vc\include\vector

; 1520 : 				this->_Mylast() = _Ptr;

  0004f	89 4b 04	 mov	 DWORD PTR [ebx+4], ecx
  00052	5f		 pop	 edi
$LN219@erase:

; 46   : 		: _Ptr(_Parg)

  00053	8b 45 08	 mov	 eax, DWORD PTR ___$ReturnUdt$[ebp]
  00056	5e		 pop	 esi
  00057	5b		 pop	 ebx
  00058	89 10		 mov	 DWORD PTR [eax], edx

; 1521 : 				}
; 1522 : 			}
; 1523 : 		return (_Make_iter(_First_arg));
; 1524 : 		}

  0005a	5d		 pop	 ebp
  0005b	c2 0c 00	 ret	 12			; 0000000cH
?erase@?$vector@URINGMONSTER_DATA@@V?$allocator@URINGMONSTER_DATA@@@std@@@std@@QAE?AV?$_Vector_iterator@V?$_Vector_val@U?$_Simple_types@URINGMONSTER_DATA@@@std@@@std@@@2@V?$_Vector_const_iterator@V?$_Vector_val@U?$_Simple_types@URINGMONSTER_DATA@@@std@@@std@@@2@0@Z ENDP ; std::vector<RINGMONSTER_DATA,std::allocator<RINGMONSTER_DATA> >::erase
_TEXT	ENDS
; Function compile flags: /Ogtp
; File c:\program files (x86)\microsoft visual studio 14.0\vc\include\vector
; File c:\program files (x86)\microsoft visual studio 14.0\vc\include\xmemory0
; File c:\program files (x86)\microsoft visual studio 14.0\vc\include\vector
; File c:\program files (x86)\microsoft visual studio 14.0\vc\include\xmemory0
; File c:\program files (x86)\microsoft visual studio 14.0\vc\include\vector
; File c:\program files (x86)\microsoft visual studio 14.0\vc\include\xmemory0
; File c:\program files (x86)\microsoft visual studio 14.0\vc\include\vector
;	COMDAT ?push_back@?$vector@URINGMONSTER_DATA@@V?$allocator@URINGMONSTER_DATA@@@std@@@std@@QAEXABURINGMONSTER_DATA@@@Z
_TEXT	SEGMENT
__Val$ = 8						; size = 4
?push_back@?$vector@URINGMONSTER_DATA@@V?$allocator@URINGMONSTER_DATA@@@std@@@std@@QAEXABURINGMONSTER_DATA@@@Z PROC ; std::vector<RINGMONSTER_DATA,std::allocator<RINGMONSTER_DATA> >::push_back, COMDAT
; _this$ = ecx

; 1274 : 		{	// insert element at end

  00000	55		 push	 ebp
  00001	8b ec		 mov	 ebp, esp
  00003	56		 push	 esi
  00004	8b f1		 mov	 esi, ecx
  00006	57		 push	 edi

; 1295 : 
; 1296 :  #if _ITERATOR_DEBUG_LEVEL == 2
; 1297 : 	void pop_back()
; 1298 : 		{	// erase element at end
; 1299 : 		if (empty())
; 1300 : 			_DEBUG_ERROR("vector empty before pop");
; 1301 : 		else
; 1302 : 			{	// erase last element
; 1303 : 			_Orphan_range(this->_Mylast() - 1, this->_Mylast());
; 1304 : 			this->_Getal().destroy(this->_Mylast() - 1);
; 1305 : 			--this->_Mylast();
; 1306 : 			}
; 1307 : 		}
; 1308 : 
; 1309 :  #else /* _ITERATOR_DEBUG_LEVEL == 2 */
; 1310 : 	void pop_back()
; 1311 : 		{	// erase element at end
; 1312 : 		this->_Getal().destroy(this->_Mylast() - 1);
; 1313 : 		--this->_Mylast();
; 1314 : 		}
; 1315 :  #endif /* _ITERATOR_DEBUG_LEVEL == 2 */
; 1316 : 
; 1317 : 	template<class _Iter>
; 1318 : 		typename enable_if<_Is_iterator<_Iter>::value,
; 1319 : 			void>::type
; 1320 : 		assign(_Iter _First, _Iter _Last)
; 1321 : 		{	// assign [_First, _Last)
; 1322 : 		clear();
; 1323 : 		_Assign(_First, _Last, _Iter_cat(_First));
; 1324 : 		}
; 1325 : 
; 1326 : 	template<class _Iter>
; 1327 : 		void _Assign(_Iter _First, _Iter _Last,
; 1328 : 			input_iterator_tag)
; 1329 : 		{	// assign [_First, _Last), input iterators
; 1330 : 		for (; _First != _Last; ++_First)
; 1331 : 			emplace_back(*_First);
; 1332 : 		}
; 1333 : 
; 1334 : 	template<class _Iter>
; 1335 : 		void _Assign(_Iter _First, _Iter _Last,
; 1336 : 			forward_iterator_tag)
; 1337 : 		{	// assign [_First, _Last), forward iterators
; 1338 : 		size_type _Newsize = _STD distance(_First, _Last);
; 1339 : 
; 1340 : 		if (capacity() < _Newsize)
; 1341 : 			{	// need more room, try to get it
; 1342 : 			size_type _Newcapacity = _Grow_to(_Newsize);
; 1343 : 			_Tidy();
; 1344 : 			_Buy(_Newcapacity);
; 1345 : 			}
; 1346 : 
; 1347 : 		this->_Mylast() = _Ucopy(_First, _Last, this->_Myfirst());
; 1348 : 		}
; 1349 : 
; 1350 : 	void assign(size_type _Count, const value_type& _Val)
; 1351 : 		{	// assign _Count * _Val
; 1352 : 		clear();
; 1353 : 		insert(begin(), _Count, _Val);
; 1354 : 		}
; 1355 : 
; 1356 : 	iterator insert(const_iterator _Where, const _Ty& _Val)
; 1357 : 		{	// insert _Val at _Where
; 1358 : 		return (_Insert_n(_Where, (size_type)1, _Val));
; 1359 : 		}
; 1360 : 
; 1361 : 	iterator insert(const_iterator _Where, size_type _Count,
; 1362 : 		const _Ty& _Val)
; 1363 : 		{	// insert _Count * _Val at _Where
; 1364 : 		return (_Insert_n(_Where, _Count, _Val));
; 1365 : 		}
; 1366 : 
; 1367 : 	template<class _Iter>
; 1368 : 		typename enable_if<_Is_iterator<_Iter>::value,
; 1369 : 			iterator>::type
; 1370 : 		insert(const_iterator _Where, _Iter _First, _Iter _Last)
; 1371 : 		{	// insert [_First, _Last) at _Where
; 1372 : 		size_type _Off = _VIPTR(_Where) - this->_Myfirst();
; 1373 : 		_Insert(_Where, _First, _Last, _Iter_cat(_First));
; 1374 : 		return (begin() + _Off);
; 1375 : 		}
; 1376 : 
; 1377 : 	template<class _Iter>
; 1378 : 		void _Insert(const_iterator _Where,
; 1379 : 			_Iter _First, _Iter _Last,
; 1380 : 				input_iterator_tag)
; 1381 : 		{	// insert [_First, _Last) at _Where, input iterators
; 1382 : 		size_type _Off = _VIPTR(_Where) - this->_Myfirst();
; 1383 : 
; 1384 :  #if _ITERATOR_DEBUG_LEVEL == 2
; 1385 : 		if (size() < _Off)
; 1386 : 			_DEBUG_ERROR("vector insert iterator outside range");
; 1387 :  #endif /* _ITERATOR_DEBUG_LEVEL == 2 */
; 1388 : 
; 1389 : 		if (_First != _Last)
; 1390 : 			{	// worth doing, gather at end and rotate into place
; 1391 : 			size_type _Oldsize = size();
; 1392 : 
; 1393 : 			_TRY_BEGIN
; 1394 : 			for (; _First != _Last; ++_First)
; 1395 : 				push_back(*_First);	// append
; 1396 : 
; 1397 : 			_CATCH_ALL
; 1398 : 			erase(begin() + _Oldsize, end());
; 1399 : 			_RERAISE;
; 1400 : 			_CATCH_END
; 1401 : 
; 1402 : 			_STD rotate(begin() + _Off, begin() + _Oldsize, end());
; 1403 : 			}
; 1404 : 		}
; 1405 : 
; 1406 : 	template<class _Iter>
; 1407 : 		void _Insert(const_iterator _Where,
; 1408 : 			_Iter _First, _Iter _Last,
; 1409 : 				forward_iterator_tag)
; 1410 : 		{	// insert [_First, _Last) at _Where, forward iterators
; 1411 :  #if _ITERATOR_DEBUG_LEVEL == 2
; 1412 : 		if (_VICONT(_Where) != &this->_Get_data()
; 1413 : 			|| _VIPTR(_Where) < this->_Myfirst()
; 1414 : 			|| this->_Mylast() < _VIPTR(_Where))
; 1415 : 			_DEBUG_ERROR("vector insert iterator outside range");
; 1416 : 		_DEBUG_RANGE(_First, _Last);
; 1417 :  #endif /* _ITERATOR_DEBUG_LEVEL == 2 */
; 1418 : 
; 1419 : 		size_type _Count = 0;
; 1420 : 		_Distance(_First, _Last, _Count);
; 1421 : 
; 1422 : 		if (_Count == 0)
; 1423 : 			;
; 1424 : 		else if (_Unused_capacity() < _Count)
; 1425 : 			{	// not enough room, reallocate
; 1426 : 			if (max_size() - size() < _Count)
; 1427 : 				_Xlen();	// result too long
; 1428 : 
; 1429 : 			size_type _Capacity = _Grow_to(size() + _Count);
; 1430 : 			pointer _Newvec = this->_Getal().allocate(_Capacity);
; 1431 : 			pointer _Ptr = _Newvec;
; 1432 : 
; 1433 : 			_TRY_BEGIN
; 1434 : 			_Ptr = _Umove(this->_Myfirst(), _VIPTR(_Where),
; 1435 : 				_Newvec);	// copy prefix
; 1436 : 			_Ptr = _Ucopy(_First, _Last, _Ptr);	// add new stuff
; 1437 : 			_Umove(_VIPTR(_Where), this->_Mylast(),
; 1438 : 				_Ptr);	// copy suffix
; 1439 : 			_CATCH_ALL
; 1440 : 			_Destroy(_Newvec, _Ptr);
; 1441 : 			this->_Getal().deallocate(_Newvec, _Capacity);
; 1442 : 			_RERAISE;
; 1443 : 			_CATCH_END
; 1444 : 
; 1445 : 			_Count += size();
; 1446 : 			if (this->_Myfirst() != pointer())
; 1447 : 				{	// destroy and deallocate old array
; 1448 : 				_Destroy(this->_Myfirst(), this->_Mylast());
; 1449 : 				this->_Getal().deallocate(this->_Myfirst(),
; 1450 : 					this->_Myend() - this->_Myfirst());
; 1451 : 				}
; 1452 : 
; 1453 : 			this->_Orphan_all();
; 1454 : 			this->_Myend() = _Newvec + _Capacity;
; 1455 : 			this->_Mylast() = _Newvec + _Count;
; 1456 : 			this->_Myfirst() = _Newvec;
; 1457 : 			}
; 1458 : 		else
; 1459 : 			{	// new stuff fits, append and rotate into place
; 1460 : 			_Ucopy(_First, _Last, this->_Mylast());
; 1461 : 			_STD rotate(_VIPTR(_Where), this->_Mylast(),
; 1462 : 				this->_Mylast() + _Count);
; 1463 : 			this->_Mylast() += _Count;
; 1464 : 			_Orphan_range(_VIPTR(_Where), this->_Mylast());
; 1465 : 			}
; 1466 : 		}
; 1467 : 
; 1468 :  #if _ITERATOR_DEBUG_LEVEL == 2
; 1469 : 	iterator erase(const_iterator _Where)
; 1470 : 		{	// erase element at where
; 1471 : 		if (_VICONT(_Where) != &this->_Get_data()
; 1472 : 			|| _VIPTR(_Where) < this->_Myfirst()
; 1473 : 			|| this->_Mylast() <= _VIPTR(_Where))
; 1474 : 			_DEBUG_ERROR("vector erase iterator outside range");
; 1475 : 		_Move(_VIPTR(_Where) + 1, this->_Mylast(), _VIPTR(_Where));
; 1476 : 		_Destroy(this->_Mylast() - 1, this->_Mylast());
; 1477 : 		_Orphan_range(_VIPTR(_Where), this->_Mylast());
; 1478 : 		--this->_Mylast();
; 1479 : 		return (_Make_iter(_Where));
; 1480 : 		}
; 1481 : 
; 1482 :  #else /* _ITERATOR_DEBUG_LEVEL == 2 */
; 1483 : 	iterator erase(const_iterator _Where)
; 1484 : 		{	// erase element at where
; 1485 : 		_Move(_VIPTR(_Where) + 1, this->_Mylast(),
; 1486 : 			_VIPTR(_Where));
; 1487 : 		_Destroy(this->_Mylast() - 1, this->_Mylast());
; 1488 : 		--this->_Mylast();
; 1489 : 		return (_Make_iter(_Where));
; 1490 : 		}
; 1491 :  #endif /* _ITERATOR_DEBUG_LEVEL == 2 */
; 1492 : 
; 1493 : 	iterator erase(const_iterator _First_arg,
; 1494 : 		const_iterator _Last_arg)
; 1495 : 		{	// erase [_First, _Last)
; 1496 : 		if (_First_arg == begin() && _Last_arg == end())
; 1497 : 			clear();
; 1498 : 		else if (_First_arg != _Last_arg)
; 1499 : 			{	// clear partial
; 1500 : 			iterator _First = _Make_iter(_First_arg);
; 1501 : 			iterator _Last = _Make_iter(_Last_arg);
; 1502 : 
; 1503 : 			if (_First != _Last)
; 1504 : 				{	// worth doing, copy down over hole
; 1505 :  #if _ITERATOR_DEBUG_LEVEL == 2
; 1506 : 				if (_Last < _First || _VICONT(_First) != &this->_Get_data()
; 1507 : 					|| _VIPTR(_First) < this->_Myfirst()
; 1508 : 					|| this->_Mylast() < _VIPTR(_Last))
; 1509 : 					_DEBUG_ERROR("vector erase iterator outside range");
; 1510 : 				pointer _Ptr = _Move(_VIPTR(_Last), this->_Mylast(),
; 1511 : 					_VIPTR(_First));
; 1512 : 				_Orphan_range(_VIPTR(_First), this->_Mylast());
; 1513 : 
; 1514 :  #else /* _ITERATOR_DEBUG_LEVEL == 2 */
; 1515 : 				pointer _Ptr = _Move(_VIPTR(_Last), this->_Mylast(),
; 1516 : 					_VIPTR(_First));
; 1517 :  #endif /* _ITERATOR_DEBUG_LEVEL == 2 */
; 1518 : 
; 1519 : 				_Destroy(_Ptr, this->_Mylast());
; 1520 : 				this->_Mylast() = _Ptr;
; 1521 : 				}
; 1522 : 			}
; 1523 : 		return (_Make_iter(_First_arg));
; 1524 : 		}
; 1525 : 
; 1526 : 	void _Pop_back_n(size_type _Count)
; 1527 : 		{	// erase _Count elements at end
; 1528 : 		pointer _Ptr = this->_Mylast() - _Count;
; 1529 : 
; 1530 :  #if _ITERATOR_DEBUG_LEVEL == 2
; 1531 : 		_Orphan_range(_Ptr, this->_Mylast());
; 1532 :  #endif /* _ITERATOR_DEBUG_LEVEL == 2 */
; 1533 : 
; 1534 : 		_Destroy(_Ptr, this->_Mylast());
; 1535 : 		this->_Mylast() = _Ptr;
; 1536 : 		}
; 1537 : 
; 1538 : 	void clear() _NOEXCEPT
; 1539 : 		{	// erase all
; 1540 : 		this->_Orphan_all();
; 1541 : 		_Destroy(this->_Myfirst(), this->_Mylast());
; 1542 : 		this->_Mylast() = this->_Myfirst();
; 1543 : 		}
; 1544 : 
; 1545 : 	void swap(_Myt& _Right)
; 1546 : 		_NOEXCEPT_OP(_Alty::propagate_on_container_swap::value
; 1547 : 			|| _Alty::is_always_equal::value)
; 1548 : 		{	// exchange contents with _Right
; 1549 : 		if (this == &_Right)
; 1550 : 			;	// same object, do nothing
; 1551 : 		else if (this->_Getal() == _Right._Getal())
; 1552 : 			{	// same allocator, swap control information
; 1553 : 			this->_Swap_all(_Right);
; 1554 : 			_Swap_adl(this->_Myfirst(), _Right._Myfirst());
; 1555 : 			_Swap_adl(this->_Mylast(), _Right._Mylast());
; 1556 : 			_Swap_adl(this->_Myend(), _Right._Myend());
; 1557 : 			}
; 1558 : 
; 1559 : 		else if (_Alty::propagate_on_container_swap::value)
; 1560 : 			{	// swap allocators and control information
; 1561 : 			this->_Swap_alloc(_Right);
; 1562 : 			_Swap_adl(this->_Myfirst(), _Right._Myfirst());
; 1563 : 			_Swap_adl(this->_Mylast(), _Right._Mylast());
; 1564 : 			_Swap_adl(this->_Myend(), _Right._Myend());
; 1565 : 			}
; 1566 : 
; 1567 : 		else
; 1568 : 			{	// containers are incompatible
; 1569 :  #if _ITERATOR_DEBUG_LEVEL == 2
; 1570 : 			_DEBUG_ERROR("vector containers incompatible for swap");
; 1571 : 
; 1572 :  #else /* ITERATOR_DEBUG_LEVEL == 2 */
; 1573 : 			_XSTD terminate();
; 1574 :  #endif /* ITERATOR_DEBUG_LEVEL == 2 */
; 1575 : 			}
; 1576 : 		}
; 1577 : 
; 1578 : protected:
; 1579 : 	bool _Buy(size_type _Capacity)
; 1580 : 		{	// allocate array with _Capacity elements
; 1581 : 		this->_Myfirst() = pointer();
; 1582 : 		this->_Mylast() = pointer();
; 1583 : 		this->_Myend() = pointer();
; 1584 : 
; 1585 : 		if (_Capacity == 0)
; 1586 : 			return (false);
; 1587 : 		else if (max_size() < _Capacity)
; 1588 : 			_Xlen();	// result too long
; 1589 : 		else
; 1590 : 			{	// nonempty array, allocate storage
; 1591 : 			this->_Myfirst() = this->_Getal().allocate(_Capacity);
; 1592 : 			this->_Mylast() = this->_Myfirst();
; 1593 : 			this->_Myend() = this->_Myfirst() + _Capacity;
; 1594 : 			}
; 1595 : 		return (true);
; 1596 : 		}
; 1597 : 
; 1598 : 	void _Destroy(pointer _First, pointer _Last)
; 1599 : 		{	// destroy [_First, _Last) using allocator
; 1600 : 		_Destroy_range(_First, _Last, this->_Getal());
; 1601 : 		}
; 1602 : 
; 1603 : 	size_type _Grow_to(size_type _Count) const
; 1604 : 		{	// grow by 50% or at least to _Count
; 1605 : 		size_type _Capacity = capacity();
; 1606 : 
; 1607 : 		_Capacity = max_size() - _Capacity / 2 < _Capacity
; 1608 : 			? 0 : _Capacity + _Capacity / 2;	// try to grow by 50%
; 1609 : 		if (_Capacity < _Count)
; 1610 : 			_Capacity = _Count;
; 1611 : 		return (_Capacity);
; 1612 : 		}
; 1613 : 
; 1614 : 	bool _Inside(const value_type *_Ptr) const
; 1615 : 		{	// test if _Ptr points inside vector
; 1616 : 		return (_Ptr < this->_Mylast() && this->_Myfirst() <= _Ptr);

  00007	8b 7d 08	 mov	 edi, DWORD PTR __Val$[ebp]
  0000a	8b 4e 04	 mov	 ecx, DWORD PTR [esi+4]
  0000d	3b f9		 cmp	 edi, ecx
  0000f	73 4c		 jae	 SHORT $LN2@push_back
  00011	8b 06		 mov	 eax, DWORD PTR [esi]
  00013	3b c7		 cmp	 eax, edi
  00015	77 46		 ja	 SHORT $LN2@push_back

; 1275 : 		if (_Inside(_STD addressof(_Val)))
; 1276 : 			{	// push back an element
; 1277 : 			size_type _Idx = _STD addressof(_Val) - this->_Myfirst();

  00017	2b f8		 sub	 edi, eax
  00019	b8 ab aa aa 2a	 mov	 eax, 715827883		; 2aaaaaabH
  0001e	f7 ef		 imul	 edi
  00020	d1 fa		 sar	 edx, 1
  00022	8b fa		 mov	 edi, edx
  00024	c1 ef 1f	 shr	 edi, 31			; 0000001fH
  00027	03 fa		 add	 edi, edx

; 1278 : 			if (this->_Mylast() == this->_Myend())

  00029	3b 4e 08	 cmp	 ecx, DWORD PTR [esi+8]
  0002c	75 09		 jne	 SHORT $LN4@push_back

; 1279 : 				_Reserve(1);

  0002e	6a 01		 push	 1
  00030	8b ce		 mov	 ecx, esi
  00032	e8 00 00 00 00	 call	 ?_Reserve@?$vector@URINGMONSTER_DATA@@V?$allocator@URINGMONSTER_DATA@@@std@@@std@@IAEXI@Z ; std::vector<RINGMONSTER_DATA,std::allocator<RINGMONSTER_DATA> >::_Reserve
$LN4@push_back:
; File c:\program files (x86)\microsoft visual studio 14.0\vc\include\xmemory0

; 655  : 		::new ((void *)_Ptr) _Objty(_STD forward<_Types>(_Args)...);

  00037	8b 56 04	 mov	 edx, DWORD PTR [esi+4]
  0003a	85 d2		 test	 edx, edx
  0003c	74 42		 je	 SHORT $LN205@push_back
; File c:\program files (x86)\microsoft visual studio 14.0\vc\include\vector

; 1281 : 			this->_Getal().construct(this->_Mylast(),

  0003e	8b 06		 mov	 eax, DWORD PTR [esi]
  00040	8d 0c 7f	 lea	 ecx, DWORD PTR [edi+edi*2]
  00043	5f		 pop	 edi
; File c:\program files (x86)\microsoft visual studio 14.0\vc\include\xmemory0

; 655  : 		::new ((void *)_Ptr) _Objty(_STD forward<_Types>(_Args)...);

  00044	f3 0f 7e 04 88	 movq	 xmm0, QWORD PTR [eax+ecx*4]
  00049	66 0f d6 02	 movq	 QWORD PTR [edx], xmm0
  0004d	8b 44 88 08	 mov	 eax, DWORD PTR [eax+ecx*4+8]
  00051	89 42 08	 mov	 DWORD PTR [edx+8], eax
; File c:\program files (x86)\microsoft visual studio 14.0\vc\include\vector

; 1292 : 			++this->_Mylast();

  00054	83 46 04 0c	 add	 DWORD PTR [esi+4], 12	; 0000000cH
  00058	5e		 pop	 esi

; 1293 : 			}
; 1294 : 		}

  00059	5d		 pop	 ebp
  0005a	c2 04 00	 ret	 4
$LN2@push_back:

; 1282 : 				this->_Myfirst()[_Idx]);
; 1283 : 			++this->_Mylast();
; 1284 : 			}
; 1285 : 		else
; 1286 : 			{	// push back a non-element
; 1287 : 			if (this->_Mylast() == this->_Myend())

  0005d	3b 4e 08	 cmp	 ecx, DWORD PTR [esi+8]
  00060	75 09		 jne	 SHORT $LN5@push_back

; 1288 : 				_Reserve(1);

  00062	6a 01		 push	 1
  00064	8b ce		 mov	 ecx, esi
  00066	e8 00 00 00 00	 call	 ?_Reserve@?$vector@URINGMONSTER_DATA@@V?$allocator@URINGMONSTER_DATA@@@std@@@std@@IAEXI@Z ; std::vector<RINGMONSTER_DATA,std::allocator<RINGMONSTER_DATA> >::_Reserve
$LN5@push_back:
; File c:\program files (x86)\microsoft visual studio 14.0\vc\include\xmemory0

; 655  : 		::new ((void *)_Ptr) _Objty(_STD forward<_Types>(_Args)...);

  0006b	8b 4e 04	 mov	 ecx, DWORD PTR [esi+4]
  0006e	85 c9		 test	 ecx, ecx
  00070	74 0e		 je	 SHORT $LN205@push_back
  00072	f3 0f 7e 07	 movq	 xmm0, QWORD PTR [edi]
  00076	66 0f d6 01	 movq	 QWORD PTR [ecx], xmm0
  0007a	8b 47 08	 mov	 eax, DWORD PTR [edi+8]
  0007d	89 41 08	 mov	 DWORD PTR [ecx+8], eax
$LN205@push_back:
; File c:\program files (x86)\microsoft visual studio 14.0\vc\include\vector

; 1292 : 			++this->_Mylast();

  00080	83 46 04 0c	 add	 DWORD PTR [esi+4], 12	; 0000000cH
  00084	5f		 pop	 edi
  00085	5e		 pop	 esi

; 1293 : 			}
; 1294 : 		}

  00086	5d		 pop	 ebp
  00087	c2 04 00	 ret	 4
?push_back@?$vector@URINGMONSTER_DATA@@V?$allocator@URINGMONSTER_DATA@@@std@@@std@@QAEXABURINGMONSTER_DATA@@@Z ENDP ; std::vector<RINGMONSTER_DATA,std::allocator<RINGMONSTER_DATA> >::push_back
_TEXT	ENDS
; Function compile flags: /Ogtp
; File c:\program files (x86)\microsoft visual studio 14.0\vc\include\vector
;	COMDAT ?empty@?$vector@URINGMONSTER_DATA@@V?$allocator@URINGMONSTER_DATA@@@std@@@std@@QBE_NXZ
_TEXT	SEGMENT
?empty@?$vector@URINGMONSTER_DATA@@V?$allocator@URINGMONSTER_DATA@@@std@@@std@@QBE_NXZ PROC ; std::vector<RINGMONSTER_DATA,std::allocator<RINGMONSTER_DATA> >::empty, COMDAT
; _this$ = ecx

; 1189 : 		return (this->_Myfirst() == this->_Mylast());

  00000	8b 11		 mov	 edx, DWORD PTR [ecx]
  00002	33 c0		 xor	 eax, eax
  00004	3b 51 04	 cmp	 edx, DWORD PTR [ecx+4]
  00007	0f 94 c0	 sete	 al

; 1190 : 		}

  0000a	c3		 ret	 0
?empty@?$vector@URINGMONSTER_DATA@@V?$allocator@URINGMONSTER_DATA@@@std@@@std@@QBE_NXZ ENDP ; std::vector<RINGMONSTER_DATA,std::allocator<RINGMONSTER_DATA> >::empty
_TEXT	ENDS
; Function compile flags: /Ogtp
; File c:\program files (x86)\microsoft visual studio 14.0\vc\include\vector
;	COMDAT ?max_size@?$vector@URINGMONSTER_DATA@@V?$allocator@URINGMONSTER_DATA@@@std@@@std@@QBEIXZ
_TEXT	SEGMENT
?max_size@?$vector@URINGMONSTER_DATA@@V?$allocator@URINGMONSTER_DATA@@@std@@@std@@QBEIXZ PROC ; std::vector<RINGMONSTER_DATA,std::allocator<RINGMONSTER_DATA> >::max_size, COMDAT
; _this$ = ecx

; 1184 : 		return (this->_Getal().max_size());

  00000	b8 55 55 55 15	 mov	 eax, 357913941		; 15555555H

; 1185 : 		}

  00005	c3		 ret	 0
?max_size@?$vector@URINGMONSTER_DATA@@V?$allocator@URINGMONSTER_DATA@@@std@@@std@@QBEIXZ ENDP ; std::vector<RINGMONSTER_DATA,std::allocator<RINGMONSTER_DATA> >::max_size
_TEXT	ENDS
; Function compile flags: /Ogtp
; File c:\program files (x86)\microsoft visual studio 14.0\vc\include\vector
;	COMDAT ?size@?$vector@URINGMONSTER_DATA@@V?$allocator@URINGMONSTER_DATA@@@std@@@std@@QBEIXZ
_TEXT	SEGMENT
?size@?$vector@URINGMONSTER_DATA@@V?$allocator@URINGMONSTER_DATA@@@std@@@std@@QBEIXZ PROC ; std::vector<RINGMONSTER_DATA,std::allocator<RINGMONSTER_DATA> >::size, COMDAT
; _this$ = ecx

; 1179 : 		return (this->_Mylast() - this->_Myfirst());

  00000	8b 51 04	 mov	 edx, DWORD PTR [ecx+4]
  00003	b8 ab aa aa 2a	 mov	 eax, 715827883		; 2aaaaaabH
  00008	2b 11		 sub	 edx, DWORD PTR [ecx]
  0000a	f7 ea		 imul	 edx
  0000c	d1 fa		 sar	 edx, 1
  0000e	8b c2		 mov	 eax, edx
  00010	c1 e8 1f	 shr	 eax, 31			; 0000001fH
  00013	03 c2		 add	 eax, edx

; 1180 : 		}

  00015	c3		 ret	 0
?size@?$vector@URINGMONSTER_DATA@@V?$allocator@URINGMONSTER_DATA@@@std@@@std@@QBEIXZ ENDP ; std::vector<RINGMONSTER_DATA,std::allocator<RINGMONSTER_DATA> >::size
_TEXT	ENDS
; Function compile flags: /Ogtp
; File c:\program files (x86)\microsoft visual studio 14.0\vc\include\vector
;	COMDAT ?_Make_iter@?$vector@URINGMONSTER_DATA@@V?$allocator@URINGMONSTER_DATA@@@std@@@std@@QBE?AV?$_Vector_iterator@V?$_Vector_val@U?$_Simple_types@URINGMONSTER_DATA@@@std@@@std@@@2@V?$_Vector_const_iterator@V?$_Vector_val@U?$_Simple_types@URINGMONSTER_DATA@@@std@@@std@@@2@@Z
_TEXT	SEGMENT
___$ReturnUdt$ = 8					; size = 4
__Where$ = 12						; size = 4
?_Make_iter@?$vector@URINGMONSTER_DATA@@V?$allocator@URINGMONSTER_DATA@@@std@@@std@@QBE?AV?$_Vector_iterator@V?$_Vector_val@U?$_Simple_types@URINGMONSTER_DATA@@@std@@@std@@@2@V?$_Vector_const_iterator@V?$_Vector_val@U?$_Simple_types@URINGMONSTER_DATA@@@std@@@std@@@2@@Z PROC ; std::vector<RINGMONSTER_DATA,std::allocator<RINGMONSTER_DATA> >::_Make_iter, COMDAT
; _this$ = ecx

; 1076 : 		{	// make iterator from const_iterator

  00000	55		 push	 ebp
  00001	8b ec		 mov	 ebp, esp

; 46   : 		: _Ptr(_Parg)

  00003	8b 45 08	 mov	 eax, DWORD PTR ___$ReturnUdt$[ebp]
  00006	8b 4d 0c	 mov	 ecx, DWORD PTR __Where$[ebp]
  00009	89 08		 mov	 DWORD PTR [eax], ecx

; 1077 : 		return (iterator(_Where._Ptr, &this->_Get_data()));
; 1078 : 		}

  0000b	5d		 pop	 ebp
  0000c	c2 08 00	 ret	 8
?_Make_iter@?$vector@URINGMONSTER_DATA@@V?$allocator@URINGMONSTER_DATA@@@std@@@std@@QBE?AV?$_Vector_iterator@V?$_Vector_val@U?$_Simple_types@URINGMONSTER_DATA@@@std@@@std@@@2@V?$_Vector_const_iterator@V?$_Vector_val@U?$_Simple_types@URINGMONSTER_DATA@@@std@@@std@@@2@@Z ENDP ; std::vector<RINGMONSTER_DATA,std::allocator<RINGMONSTER_DATA> >::_Make_iter
_TEXT	ENDS
; Function compile flags: /Ogtp
; File c:\program files (x86)\microsoft visual studio 14.0\vc\include\vector
;	COMDAT ?end@?$vector@URINGMONSTER_DATA@@V?$allocator@URINGMONSTER_DATA@@@std@@@std@@QAE?AV?$_Vector_iterator@V?$_Vector_val@U?$_Simple_types@URINGMONSTER_DATA@@@std@@@std@@@2@XZ
_TEXT	SEGMENT
___$ReturnUdt$ = 8					; size = 4
?end@?$vector@URINGMONSTER_DATA@@V?$allocator@URINGMONSTER_DATA@@@std@@@std@@QAE?AV?$_Vector_iterator@V?$_Vector_val@U?$_Simple_types@URINGMONSTER_DATA@@@std@@@std@@@2@XZ PROC ; std::vector<RINGMONSTER_DATA,std::allocator<RINGMONSTER_DATA> >::end, COMDAT
; _this$ = ecx

; 1066 : 		{	// return iterator for end of mutable sequence

  00000	55		 push	 ebp
  00001	8b ec		 mov	 ebp, esp

; 46   : 		: _Ptr(_Parg)

  00003	8b 45 08	 mov	 eax, DWORD PTR ___$ReturnUdt$[ebp]
  00006	8b 49 04	 mov	 ecx, DWORD PTR [ecx+4]
  00009	89 08		 mov	 DWORD PTR [eax], ecx

; 1067 : 		return (iterator(this->_Mylast(), &this->_Get_data()));
; 1068 : 		}

  0000b	5d		 pop	 ebp
  0000c	c2 04 00	 ret	 4
?end@?$vector@URINGMONSTER_DATA@@V?$allocator@URINGMONSTER_DATA@@@std@@@std@@QAE?AV?$_Vector_iterator@V?$_Vector_val@U?$_Simple_types@URINGMONSTER_DATA@@@std@@@std@@@2@XZ ENDP ; std::vector<RINGMONSTER_DATA,std::allocator<RINGMONSTER_DATA> >::end
_TEXT	ENDS
; Function compile flags: /Ogtp
; File c:\program files (x86)\microsoft visual studio 14.0\vc\include\vector
;	COMDAT ?begin@?$vector@URINGMONSTER_DATA@@V?$allocator@URINGMONSTER_DATA@@@std@@@std@@QAE?AV?$_Vector_iterator@V?$_Vector_val@U?$_Simple_types@URINGMONSTER_DATA@@@std@@@std@@@2@XZ
_TEXT	SEGMENT
___$ReturnUdt$ = 8					; size = 4
?begin@?$vector@URINGMONSTER_DATA@@V?$allocator@URINGMONSTER_DATA@@@std@@@std@@QAE?AV?$_Vector_iterator@V?$_Vector_val@U?$_Simple_types@URINGMONSTER_DATA@@@std@@@std@@@2@XZ PROC ; std::vector<RINGMONSTER_DATA,std::allocator<RINGMONSTER_DATA> >::begin, COMDAT
; _this$ = ecx

; 1056 : 		{	// return iterator for beginning of mutable sequence

  00000	55		 push	 ebp
  00001	8b ec		 mov	 ebp, esp

; 46   : 		: _Ptr(_Parg)

  00003	8b 45 08	 mov	 eax, DWORD PTR ___$ReturnUdt$[ebp]
  00006	8b 09		 mov	 ecx, DWORD PTR [ecx]
  00008	89 08		 mov	 DWORD PTR [eax], ecx

; 1057 : 		return (iterator(this->_Myfirst(), &this->_Get_data()));
; 1058 : 		}

  0000a	5d		 pop	 ebp
  0000b	c2 04 00	 ret	 4
?begin@?$vector@URINGMONSTER_DATA@@V?$allocator@URINGMONSTER_DATA@@@std@@@std@@QAE?AV?$_Vector_iterator@V?$_Vector_val@U?$_Simple_types@URINGMONSTER_DATA@@@std@@@std@@@2@XZ ENDP ; std::vector<RINGMONSTER_DATA,std::allocator<RINGMONSTER_DATA> >::begin
_TEXT	ENDS
; Function compile flags: /Ogtp
; File c:\program files (x86)\microsoft visual studio 14.0\vc\include\vector
;	COMDAT ?_Unused_capacity@?$vector@URINGMONSTER_DATA@@V?$allocator@URINGMONSTER_DATA@@@std@@@std@@QBEIXZ
_TEXT	SEGMENT
?_Unused_capacity@?$vector@URINGMONSTER_DATA@@V?$allocator@URINGMONSTER_DATA@@@std@@@std@@QBEIXZ PROC ; std::vector<RINGMONSTER_DATA,std::allocator<RINGMONSTER_DATA> >::_Unused_capacity, COMDAT
; _this$ = ecx

; 1047 : 		return (this->_Myend() - this->_Mylast());

  00000	8b 51 08	 mov	 edx, DWORD PTR [ecx+8]
  00003	b8 ab aa aa 2a	 mov	 eax, 715827883		; 2aaaaaabH
  00008	2b 51 04	 sub	 edx, DWORD PTR [ecx+4]
  0000b	f7 ea		 imul	 edx
  0000d	d1 fa		 sar	 edx, 1
  0000f	8b c2		 mov	 eax, edx
  00011	c1 e8 1f	 shr	 eax, 31			; 0000001fH
  00014	03 c2		 add	 eax, edx

; 1048 : 		}

  00016	c3		 ret	 0
?_Unused_capacity@?$vector@URINGMONSTER_DATA@@V?$allocator@URINGMONSTER_DATA@@@std@@@std@@QBEIXZ ENDP ; std::vector<RINGMONSTER_DATA,std::allocator<RINGMONSTER_DATA> >::_Unused_capacity
_TEXT	ENDS
; Function compile flags: /Ogtp
; File c:\program files (x86)\microsoft visual studio 14.0\vc\include\vector
;	COMDAT ?capacity@?$vector@URINGMONSTER_DATA@@V?$allocator@URINGMONSTER_DATA@@@std@@@std@@QBEIXZ
_TEXT	SEGMENT
?capacity@?$vector@URINGMONSTER_DATA@@V?$allocator@URINGMONSTER_DATA@@@std@@@std@@QBEIXZ PROC ; std::vector<RINGMONSTER_DATA,std::allocator<RINGMONSTER_DATA> >::capacity, COMDAT
; _this$ = ecx

; 1042 : 		return (this->_Myend() - this->_Myfirst());

  00000	8b 51 08	 mov	 edx, DWORD PTR [ecx+8]
  00003	b8 ab aa aa 2a	 mov	 eax, 715827883		; 2aaaaaabH
  00008	2b 11		 sub	 edx, DWORD PTR [ecx]
  0000a	f7 ea		 imul	 edx
  0000c	d1 fa		 sar	 edx, 1
  0000e	8b c2		 mov	 eax, edx
  00010	c1 e8 1f	 shr	 eax, 31			; 0000001fH
  00013	03 c2		 add	 eax, edx

; 1043 : 		}

  00015	c3		 ret	 0
?capacity@?$vector@URINGMONSTER_DATA@@V?$allocator@URINGMONSTER_DATA@@@std@@@std@@QBEIXZ ENDP ; std::vector<RINGMONSTER_DATA,std::allocator<RINGMONSTER_DATA> >::capacity
_TEXT	ENDS
; Function compile flags: /Ogtp
; File c:\program files (x86)\microsoft visual studio 14.0\vc\include\vector
; File c:\program files (x86)\microsoft visual studio 14.0\vc\include\xmemory0
; File c:\program files (x86)\microsoft visual studio 14.0\vc\include\vector
;	COMDAT ??1?$vector@URINGMONSTER_DATA@@V?$allocator@URINGMONSTER_DATA@@@std@@@std@@QAE@XZ
_TEXT	SEGMENT
??1?$vector@URINGMONSTER_DATA@@V?$allocator@URINGMONSTER_DATA@@@std@@@std@@QAE@XZ PROC ; std::vector<RINGMONSTER_DATA,std::allocator<RINGMONSTER_DATA> >::~vector<RINGMONSTER_DATA,std::allocator<RINGMONSTER_DATA> >, COMDAT
; _this$ = ecx

; 974  : 		{	// destroy the object

  00000	56		 push	 esi
  00001	8b f1		 mov	 esi, ecx

; 977  : 
; 978  : 	_Myt& operator=(const _Myt& _Right)
; 979  : 		{	// assign _Right
; 980  : 		if (this != &_Right)
; 981  : 			{	// different, assign it
; 982  : 			if (this->_Getal() != _Right._Getal()
; 983  : 				&& _Alty::propagate_on_container_copy_assignment::value)
; 984  : 				{	// change allocator before copying
; 985  : 				_Tidy();
; 986  : 				this->_Copy_alloc(_Right._Getal());
; 987  : 				}
; 988  : 
; 989  : 			this->_Orphan_all();
; 990  : 
; 991  : 			if (_Right.empty())
; 992  : 				clear();	// new sequence empty, erase existing sequence
; 993  : 			else if (_Right.size() <= size())
; 994  : 				{	// enough elements, copy new and destroy old
; 995  : 				pointer _Ptr = _Copy_impl(_Right._Myfirst(),
; 996  : 					_Right._Mylast(), this->_Myfirst());	// copy new
; 997  : 				_Destroy(_Ptr, this->_Mylast());	// destroy old
; 998  : 				this->_Mylast() = this->_Myfirst() + _Right.size();
; 999  : 				}
; 1000 : 			else if (_Right.size() <= capacity())
; 1001 : 				{	// enough room, copy and construct new
; 1002 : 				pointer _Ptr = _Right._Myfirst() + size();
; 1003 : 				_Copy_impl(_Right._Myfirst(),
; 1004 : 					_Ptr, this->_Myfirst());
; 1005 : 				this->_Mylast() = _Ucopy(_Ptr, _Right._Mylast(),
; 1006 : 					this->_Mylast());
; 1007 : 				}
; 1008 : 			else
; 1009 : 				{	// not enough room, allocate new array and construct new
; 1010 : 				if (this->_Myfirst() != pointer())
; 1011 : 					{	// discard old array
; 1012 : 					_Destroy(this->_Myfirst(), this->_Mylast());
; 1013 : 					this->_Getal().deallocate(this->_Myfirst(),
; 1014 : 						this->_Myend() - this->_Myfirst());
; 1015 : 					}
; 1016 : 				if (_Buy(_Right.size()))
; 1017 : 					_TRY_BEGIN
; 1018 : 					this->_Mylast() =
; 1019 : 						_Ucopy(_Right._Myfirst(), _Right._Mylast(),
; 1020 : 						this->_Myfirst());
; 1021 : 					_CATCH_ALL
; 1022 : 					_Tidy();
; 1023 : 					_RERAISE;
; 1024 : 					_CATCH_END
; 1025 : 				}
; 1026 : 			}
; 1027 : 		return (*this);
; 1028 : 		}
; 1029 : 
; 1030 : 	void reserve(size_type _Count)
; 1031 : 		{	// determine new minimum length of allocated storage
; 1032 : 		if (capacity() < _Count)
; 1033 : 			{	// something to do, check and reallocate
; 1034 : 			if (max_size() < _Count)
; 1035 : 				_Xlen();
; 1036 : 			_Reallocate(_Count);
; 1037 : 			}
; 1038 : 		}
; 1039 : 
; 1040 : 	size_type capacity() const _NOEXCEPT
; 1041 : 		{	// return current length of allocated storage
; 1042 : 		return (this->_Myend() - this->_Myfirst());
; 1043 : 		}
; 1044 : 
; 1045 : 	size_type _Unused_capacity() const _NOEXCEPT
; 1046 : 		{	// micro-optimization for capacity() - size()
; 1047 : 		return (this->_Myend() - this->_Mylast());
; 1048 : 		}
; 1049 : 
; 1050 : 	size_type _Has_unused_capacity() const _NOEXCEPT
; 1051 : 		{	// micro-optimization for capacity() != size()
; 1052 : 		return (this->_Myend() != this->_Mylast());
; 1053 : 		}
; 1054 : 
; 1055 : 	iterator begin() _NOEXCEPT
; 1056 : 		{	// return iterator for beginning of mutable sequence
; 1057 : 		return (iterator(this->_Myfirst(), &this->_Get_data()));
; 1058 : 		}
; 1059 : 
; 1060 : 	const_iterator begin() const _NOEXCEPT
; 1061 : 		{	// return iterator for beginning of nonmutable sequence
; 1062 : 		return (const_iterator(this->_Myfirst(), &this->_Get_data()));
; 1063 : 		}
; 1064 : 
; 1065 : 	iterator end() _NOEXCEPT
; 1066 : 		{	// return iterator for end of mutable sequence
; 1067 : 		return (iterator(this->_Mylast(), &this->_Get_data()));
; 1068 : 		}
; 1069 : 
; 1070 : 	const_iterator end() const _NOEXCEPT
; 1071 : 		{	// return iterator for end of nonmutable sequence
; 1072 : 		return (const_iterator(this->_Mylast(), &this->_Get_data()));
; 1073 : 		}
; 1074 : 
; 1075 : 	iterator _Make_iter(const_iterator _Where) const
; 1076 : 		{	// make iterator from const_iterator
; 1077 : 		return (iterator(_Where._Ptr, &this->_Get_data()));
; 1078 : 		}
; 1079 : 
; 1080 : 	reverse_iterator rbegin() _NOEXCEPT
; 1081 : 		{	// return iterator for beginning of reversed mutable sequence
; 1082 : 		return (reverse_iterator(end()));
; 1083 : 		}
; 1084 : 
; 1085 : 	const_reverse_iterator rbegin() const _NOEXCEPT
; 1086 : 		{	// return iterator for beginning of reversed nonmutable sequence
; 1087 : 		return (const_reverse_iterator(end()));
; 1088 : 		}
; 1089 : 
; 1090 : 	reverse_iterator rend() _NOEXCEPT
; 1091 : 		{	// return iterator for end of reversed mutable sequence
; 1092 : 		return (reverse_iterator(begin()));
; 1093 : 		}
; 1094 : 
; 1095 : 	const_reverse_iterator rend() const _NOEXCEPT
; 1096 : 		{	// return iterator for end of reversed nonmutable sequence
; 1097 : 		return (const_reverse_iterator(begin()));
; 1098 : 		}
; 1099 : 
; 1100 : 	const_iterator cbegin() const _NOEXCEPT
; 1101 : 		{	// return iterator for beginning of nonmutable sequence
; 1102 : 		return (begin());
; 1103 : 		}
; 1104 : 
; 1105 : 	const_iterator cend() const _NOEXCEPT
; 1106 : 		{	// return iterator for end of nonmutable sequence
; 1107 : 		return (end());
; 1108 : 		}
; 1109 : 
; 1110 : 	const_reverse_iterator crbegin() const _NOEXCEPT
; 1111 : 		{	// return iterator for beginning of reversed nonmutable sequence
; 1112 : 		return (rbegin());
; 1113 : 		}
; 1114 : 
; 1115 : 	const_reverse_iterator crend() const _NOEXCEPT
; 1116 : 		{	// return iterator for end of reversed nonmutable sequence
; 1117 : 		return (rend());
; 1118 : 		}
; 1119 : 
; 1120 : 	void shrink_to_fit()
; 1121 : 		{	// reduce capacity
; 1122 : 		if (_Has_unused_capacity())
; 1123 : 			{	// worth shrinking, do it
; 1124 : 			if (empty())
; 1125 : 				_Tidy();
; 1126 : 			else
; 1127 : 				_Reallocate(size());
; 1128 : 			}
; 1129 : 		}
; 1130 : 
; 1131 : 	void resize(size_type _Newsize)
; 1132 : 		{	// determine new length, padding as needed
; 1133 : 		if (_Newsize < size())
; 1134 : 			_Pop_back_n(size() - _Newsize);
; 1135 : 		else if (size() < _Newsize)
; 1136 : 			{	// pad as needed
; 1137 : 			_Reserve(_Newsize - size());
; 1138 : 			_TRY_BEGIN
; 1139 : 			_Uninitialized_default_fill_n(this->_Mylast(), _Newsize - size(),
; 1140 : 				this->_Getal());
; 1141 : 			_CATCH_ALL
; 1142 : 			_Tidy();
; 1143 : 			_RERAISE;
; 1144 : 			_CATCH_END
; 1145 : 			this->_Mylast() += _Newsize - size();
; 1146 : 			}
; 1147 : 		}
; 1148 : 
; 1149 : 	void resize(size_type _Newsize, const value_type& _Val)
; 1150 : 		{	// determine new length, padding with _Val elements as needed
; 1151 : 		if (_Newsize < size())
; 1152 : 			_Pop_back_n(size() - _Newsize);
; 1153 : 		else if (size() < _Newsize)
; 1154 : 			{	// pad as needed
; 1155 : 			const value_type *_Ptr = _STD addressof(_Val);
; 1156 : 
; 1157 : 			if (_Inside(_Ptr))
; 1158 : 				{	// padding is inside vector, recompute _Ptr after reserve
; 1159 : 				const difference_type _Idx = _Ptr
; 1160 : 					- _STD addressof(*this->_Myfirst());
; 1161 : 				_Reserve(_Newsize - size());
; 1162 : 				_Ptr = _STD addressof(*this->_Myfirst()) + _Idx;
; 1163 : 				}
; 1164 : 			else
; 1165 : 				_Reserve(_Newsize - size());
; 1166 : 
; 1167 : 			_TRY_BEGIN
; 1168 : 			_Ufill(this->_Mylast(), _Newsize - size(), _Ptr);
; 1169 : 			_CATCH_ALL
; 1170 : 			_Tidy();
; 1171 : 			_RERAISE;
; 1172 : 			_CATCH_END
; 1173 : 			this->_Mylast() += _Newsize - size();
; 1174 : 			}
; 1175 : 		}
; 1176 : 
; 1177 : 	size_type size() const _NOEXCEPT
; 1178 : 		{	// return length of sequence
; 1179 : 		return (this->_Mylast() - this->_Myfirst());
; 1180 : 		}
; 1181 : 
; 1182 : 	size_type max_size() const _NOEXCEPT
; 1183 : 		{	// return maximum possible length of sequence
; 1184 : 		return (this->_Getal().max_size());
; 1185 : 		}
; 1186 : 
; 1187 : 	bool empty() const _NOEXCEPT
; 1188 : 		{	// test if sequence is empty
; 1189 : 		return (this->_Myfirst() == this->_Mylast());
; 1190 : 		}
; 1191 : 
; 1192 : 	_Alloc get_allocator() const _NOEXCEPT
; 1193 : 		{	// return allocator object for values
; 1194 : 		return (this->_Getal());
; 1195 : 		}
; 1196 : 
; 1197 : 	const_reference at(size_type _Pos) const
; 1198 : 		{	// subscript nonmutable sequence with checking
; 1199 : 		if (size() <= _Pos)
; 1200 : 			_Xran();
; 1201 : 		return (*(this->_Myfirst() + _Pos));
; 1202 : 		}
; 1203 : 
; 1204 : 	reference at(size_type _Pos)
; 1205 : 		{	// subscript mutable sequence with checking
; 1206 : 		if (size() <= _Pos)
; 1207 : 			_Xran();
; 1208 : 		return (*(this->_Myfirst() + _Pos));
; 1209 : 		}
; 1210 : 
; 1211 : 	const_reference operator[](size_type _Pos) const
; 1212 : 		{	// subscript nonmutable sequence
; 1213 :  #if _ITERATOR_DEBUG_LEVEL == 2
; 1214 : 		if (size() <= _Pos)
; 1215 : 			{	// report error
; 1216 : 			_DEBUG_ERROR("vector subscript out of range");
; 1217 : 			_SCL_SECURE_OUT_OF_RANGE;
; 1218 : 			}
; 1219 : 
; 1220 :  #elif _ITERATOR_DEBUG_LEVEL == 1
; 1221 : 		_SCL_SECURE_VALIDATE_RANGE(_Pos < size());
; 1222 :  #endif /* _ITERATOR_DEBUG_LEVEL */
; 1223 : 
; 1224 : 		return (*(this->_Myfirst() + _Pos));
; 1225 : 		}
; 1226 : 
; 1227 : 	reference operator[](size_type _Pos)
; 1228 : 		{	// subscript mutable sequence
; 1229 :  #if _ITERATOR_DEBUG_LEVEL == 2
; 1230 : 		if (size() <= _Pos)
; 1231 : 			{	// report error
; 1232 : 			_DEBUG_ERROR("vector subscript out of range");
; 1233 : 			_SCL_SECURE_OUT_OF_RANGE;
; 1234 : 			}
; 1235 : 
; 1236 :  #elif _ITERATOR_DEBUG_LEVEL == 1
; 1237 : 		_SCL_SECURE_VALIDATE_RANGE(_Pos < size());
; 1238 :  #endif /* _ITERATOR_DEBUG_LEVEL */
; 1239 : 
; 1240 : 		return (*(this->_Myfirst() + _Pos));
; 1241 : 		}
; 1242 : 
; 1243 : 	pointer data() _NOEXCEPT
; 1244 : 		{	// return address of first element
; 1245 : 		return (this->_Myfirst());
; 1246 : 		}
; 1247 : 
; 1248 : 	const_pointer data() const _NOEXCEPT
; 1249 : 		{	// return address of first element
; 1250 : 		return (this->_Myfirst());
; 1251 : 		}
; 1252 : 
; 1253 : 	reference front()
; 1254 : 		{	// return first element of mutable sequence
; 1255 : 		return (*begin());
; 1256 : 		}
; 1257 : 
; 1258 : 	const_reference front() const
; 1259 : 		{	// return first element of nonmutable sequence
; 1260 : 		return (*begin());
; 1261 : 		}
; 1262 : 
; 1263 : 	reference back()
; 1264 : 		{	// return last element of mutable sequence
; 1265 : 		return (*(end() - 1));
; 1266 : 		}
; 1267 : 
; 1268 : 	const_reference back() const
; 1269 : 		{	// return last element of nonmutable sequence
; 1270 : 		return (*(end() - 1));
; 1271 : 		}
; 1272 : 
; 1273 : 	void push_back(const value_type& _Val)
; 1274 : 		{	// insert element at end
; 1275 : 		if (_Inside(_STD addressof(_Val)))
; 1276 : 			{	// push back an element
; 1277 : 			size_type _Idx = _STD addressof(_Val) - this->_Myfirst();
; 1278 : 			if (this->_Mylast() == this->_Myend())
; 1279 : 				_Reserve(1);
; 1280 : 			_Orphan_range(this->_Mylast(), this->_Mylast());
; 1281 : 			this->_Getal().construct(this->_Mylast(),
; 1282 : 				this->_Myfirst()[_Idx]);
; 1283 : 			++this->_Mylast();
; 1284 : 			}
; 1285 : 		else
; 1286 : 			{	// push back a non-element
; 1287 : 			if (this->_Mylast() == this->_Myend())
; 1288 : 				_Reserve(1);
; 1289 : 			_Orphan_range(this->_Mylast(), this->_Mylast());
; 1290 : 			this->_Getal().construct(this->_Mylast(),
; 1291 : 				_Val);
; 1292 : 			++this->_Mylast();
; 1293 : 			}
; 1294 : 		}
; 1295 : 
; 1296 :  #if _ITERATOR_DEBUG_LEVEL == 2
; 1297 : 	void pop_back()
; 1298 : 		{	// erase element at end
; 1299 : 		if (empty())
; 1300 : 			_DEBUG_ERROR("vector empty before pop");
; 1301 : 		else
; 1302 : 			{	// erase last element
; 1303 : 			_Orphan_range(this->_Mylast() - 1, this->_Mylast());
; 1304 : 			this->_Getal().destroy(this->_Mylast() - 1);
; 1305 : 			--this->_Mylast();
; 1306 : 			}
; 1307 : 		}
; 1308 : 
; 1309 :  #else /* _ITERATOR_DEBUG_LEVEL == 2 */
; 1310 : 	void pop_back()
; 1311 : 		{	// erase element at end
; 1312 : 		this->_Getal().destroy(this->_Mylast() - 1);
; 1313 : 		--this->_Mylast();
; 1314 : 		}
; 1315 :  #endif /* _ITERATOR_DEBUG_LEVEL == 2 */
; 1316 : 
; 1317 : 	template<class _Iter>
; 1318 : 		typename enable_if<_Is_iterator<_Iter>::value,
; 1319 : 			void>::type
; 1320 : 		assign(_Iter _First, _Iter _Last)
; 1321 : 		{	// assign [_First, _Last)
; 1322 : 		clear();
; 1323 : 		_Assign(_First, _Last, _Iter_cat(_First));
; 1324 : 		}
; 1325 : 
; 1326 : 	template<class _Iter>
; 1327 : 		void _Assign(_Iter _First, _Iter _Last,
; 1328 : 			input_iterator_tag)
; 1329 : 		{	// assign [_First, _Last), input iterators
; 1330 : 		for (; _First != _Last; ++_First)
; 1331 : 			emplace_back(*_First);
; 1332 : 		}
; 1333 : 
; 1334 : 	template<class _Iter>
; 1335 : 		void _Assign(_Iter _First, _Iter _Last,
; 1336 : 			forward_iterator_tag)
; 1337 : 		{	// assign [_First, _Last), forward iterators
; 1338 : 		size_type _Newsize = _STD distance(_First, _Last);
; 1339 : 
; 1340 : 		if (capacity() < _Newsize)
; 1341 : 			{	// need more room, try to get it
; 1342 : 			size_type _Newcapacity = _Grow_to(_Newsize);
; 1343 : 			_Tidy();
; 1344 : 			_Buy(_Newcapacity);
; 1345 : 			}
; 1346 : 
; 1347 : 		this->_Mylast() = _Ucopy(_First, _Last, this->_Myfirst());
; 1348 : 		}
; 1349 : 
; 1350 : 	void assign(size_type _Count, const value_type& _Val)
; 1351 : 		{	// assign _Count * _Val
; 1352 : 		clear();
; 1353 : 		insert(begin(), _Count, _Val);
; 1354 : 		}
; 1355 : 
; 1356 : 	iterator insert(const_iterator _Where, const _Ty& _Val)
; 1357 : 		{	// insert _Val at _Where
; 1358 : 		return (_Insert_n(_Where, (size_type)1, _Val));
; 1359 : 		}
; 1360 : 
; 1361 : 	iterator insert(const_iterator _Where, size_type _Count,
; 1362 : 		const _Ty& _Val)
; 1363 : 		{	// insert _Count * _Val at _Where
; 1364 : 		return (_Insert_n(_Where, _Count, _Val));
; 1365 : 		}
; 1366 : 
; 1367 : 	template<class _Iter>
; 1368 : 		typename enable_if<_Is_iterator<_Iter>::value,
; 1369 : 			iterator>::type
; 1370 : 		insert(const_iterator _Where, _Iter _First, _Iter _Last)
; 1371 : 		{	// insert [_First, _Last) at _Where
; 1372 : 		size_type _Off = _VIPTR(_Where) - this->_Myfirst();
; 1373 : 		_Insert(_Where, _First, _Last, _Iter_cat(_First));
; 1374 : 		return (begin() + _Off);
; 1375 : 		}
; 1376 : 
; 1377 : 	template<class _Iter>
; 1378 : 		void _Insert(const_iterator _Where,
; 1379 : 			_Iter _First, _Iter _Last,
; 1380 : 				input_iterator_tag)
; 1381 : 		{	// insert [_First, _Last) at _Where, input iterators
; 1382 : 		size_type _Off = _VIPTR(_Where) - this->_Myfirst();
; 1383 : 
; 1384 :  #if _ITERATOR_DEBUG_LEVEL == 2
; 1385 : 		if (size() < _Off)
; 1386 : 			_DEBUG_ERROR("vector insert iterator outside range");
; 1387 :  #endif /* _ITERATOR_DEBUG_LEVEL == 2 */
; 1388 : 
; 1389 : 		if (_First != _Last)
; 1390 : 			{	// worth doing, gather at end and rotate into place
; 1391 : 			size_type _Oldsize = size();
; 1392 : 
; 1393 : 			_TRY_BEGIN
; 1394 : 			for (; _First != _Last; ++_First)
; 1395 : 				push_back(*_First);	// append
; 1396 : 
; 1397 : 			_CATCH_ALL
; 1398 : 			erase(begin() + _Oldsize, end());
; 1399 : 			_RERAISE;
; 1400 : 			_CATCH_END
; 1401 : 
; 1402 : 			_STD rotate(begin() + _Off, begin() + _Oldsize, end());
; 1403 : 			}
; 1404 : 		}
; 1405 : 
; 1406 : 	template<class _Iter>
; 1407 : 		void _Insert(const_iterator _Where,
; 1408 : 			_Iter _First, _Iter _Last,
; 1409 : 				forward_iterator_tag)
; 1410 : 		{	// insert [_First, _Last) at _Where, forward iterators
; 1411 :  #if _ITERATOR_DEBUG_LEVEL == 2
; 1412 : 		if (_VICONT(_Where) != &this->_Get_data()
; 1413 : 			|| _VIPTR(_Where) < this->_Myfirst()
; 1414 : 			|| this->_Mylast() < _VIPTR(_Where))
; 1415 : 			_DEBUG_ERROR("vector insert iterator outside range");
; 1416 : 		_DEBUG_RANGE(_First, _Last);
; 1417 :  #endif /* _ITERATOR_DEBUG_LEVEL == 2 */
; 1418 : 
; 1419 : 		size_type _Count = 0;
; 1420 : 		_Distance(_First, _Last, _Count);
; 1421 : 
; 1422 : 		if (_Count == 0)
; 1423 : 			;
; 1424 : 		else if (_Unused_capacity() < _Count)
; 1425 : 			{	// not enough room, reallocate
; 1426 : 			if (max_size() - size() < _Count)
; 1427 : 				_Xlen();	// result too long
; 1428 : 
; 1429 : 			size_type _Capacity = _Grow_to(size() + _Count);
; 1430 : 			pointer _Newvec = this->_Getal().allocate(_Capacity);
; 1431 : 			pointer _Ptr = _Newvec;
; 1432 : 
; 1433 : 			_TRY_BEGIN
; 1434 : 			_Ptr = _Umove(this->_Myfirst(), _VIPTR(_Where),
; 1435 : 				_Newvec);	// copy prefix
; 1436 : 			_Ptr = _Ucopy(_First, _Last, _Ptr);	// add new stuff
; 1437 : 			_Umove(_VIPTR(_Where), this->_Mylast(),
; 1438 : 				_Ptr);	// copy suffix
; 1439 : 			_CATCH_ALL
; 1440 : 			_Destroy(_Newvec, _Ptr);
; 1441 : 			this->_Getal().deallocate(_Newvec, _Capacity);
; 1442 : 			_RERAISE;
; 1443 : 			_CATCH_END
; 1444 : 
; 1445 : 			_Count += size();
; 1446 : 			if (this->_Myfirst() != pointer())
; 1447 : 				{	// destroy and deallocate old array
; 1448 : 				_Destroy(this->_Myfirst(), this->_Mylast());
; 1449 : 				this->_Getal().deallocate(this->_Myfirst(),
; 1450 : 					this->_Myend() - this->_Myfirst());
; 1451 : 				}
; 1452 : 
; 1453 : 			this->_Orphan_all();
; 1454 : 			this->_Myend() = _Newvec + _Capacity;
; 1455 : 			this->_Mylast() = _Newvec + _Count;
; 1456 : 			this->_Myfirst() = _Newvec;
; 1457 : 			}
; 1458 : 		else
; 1459 : 			{	// new stuff fits, append and rotate into place
; 1460 : 			_Ucopy(_First, _Last, this->_Mylast());
; 1461 : 			_STD rotate(_VIPTR(_Where), this->_Mylast(),
; 1462 : 				this->_Mylast() + _Count);
; 1463 : 			this->_Mylast() += _Count;
; 1464 : 			_Orphan_range(_VIPTR(_Where), this->_Mylast());
; 1465 : 			}
; 1466 : 		}
; 1467 : 
; 1468 :  #if _ITERATOR_DEBUG_LEVEL == 2
; 1469 : 	iterator erase(const_iterator _Where)
; 1470 : 		{	// erase element at where
; 1471 : 		if (_VICONT(_Where) != &this->_Get_data()
; 1472 : 			|| _VIPTR(_Where) < this->_Myfirst()
; 1473 : 			|| this->_Mylast() <= _VIPTR(_Where))
; 1474 : 			_DEBUG_ERROR("vector erase iterator outside range");
; 1475 : 		_Move(_VIPTR(_Where) + 1, this->_Mylast(), _VIPTR(_Where));
; 1476 : 		_Destroy(this->_Mylast() - 1, this->_Mylast());
; 1477 : 		_Orphan_range(_VIPTR(_Where), this->_Mylast());
; 1478 : 		--this->_Mylast();
; 1479 : 		return (_Make_iter(_Where));
; 1480 : 		}
; 1481 : 
; 1482 :  #else /* _ITERATOR_DEBUG_LEVEL == 2 */
; 1483 : 	iterator erase(const_iterator _Where)
; 1484 : 		{	// erase element at where
; 1485 : 		_Move(_VIPTR(_Where) + 1, this->_Mylast(),
; 1486 : 			_VIPTR(_Where));
; 1487 : 		_Destroy(this->_Mylast() - 1, this->_Mylast());
; 1488 : 		--this->_Mylast();
; 1489 : 		return (_Make_iter(_Where));
; 1490 : 		}
; 1491 :  #endif /* _ITERATOR_DEBUG_LEVEL == 2 */
; 1492 : 
; 1493 : 	iterator erase(const_iterator _First_arg,
; 1494 : 		const_iterator _Last_arg)
; 1495 : 		{	// erase [_First, _Last)
; 1496 : 		if (_First_arg == begin() && _Last_arg == end())
; 1497 : 			clear();
; 1498 : 		else if (_First_arg != _Last_arg)
; 1499 : 			{	// clear partial
; 1500 : 			iterator _First = _Make_iter(_First_arg);
; 1501 : 			iterator _Last = _Make_iter(_Last_arg);
; 1502 : 
; 1503 : 			if (_First != _Last)
; 1504 : 				{	// worth doing, copy down over hole
; 1505 :  #if _ITERATOR_DEBUG_LEVEL == 2
; 1506 : 				if (_Last < _First || _VICONT(_First) != &this->_Get_data()
; 1507 : 					|| _VIPTR(_First) < this->_Myfirst()
; 1508 : 					|| this->_Mylast() < _VIPTR(_Last))
; 1509 : 					_DEBUG_ERROR("vector erase iterator outside range");
; 1510 : 				pointer _Ptr = _Move(_VIPTR(_Last), this->_Mylast(),
; 1511 : 					_VIPTR(_First));
; 1512 : 				_Orphan_range(_VIPTR(_First), this->_Mylast());
; 1513 : 
; 1514 :  #else /* _ITERATOR_DEBUG_LEVEL == 2 */
; 1515 : 				pointer _Ptr = _Move(_VIPTR(_Last), this->_Mylast(),
; 1516 : 					_VIPTR(_First));
; 1517 :  #endif /* _ITERATOR_DEBUG_LEVEL == 2 */
; 1518 : 
; 1519 : 				_Destroy(_Ptr, this->_Mylast());
; 1520 : 				this->_Mylast() = _Ptr;
; 1521 : 				}
; 1522 : 			}
; 1523 : 		return (_Make_iter(_First_arg));
; 1524 : 		}
; 1525 : 
; 1526 : 	void _Pop_back_n(size_type _Count)
; 1527 : 		{	// erase _Count elements at end
; 1528 : 		pointer _Ptr = this->_Mylast() - _Count;
; 1529 : 
; 1530 :  #if _ITERATOR_DEBUG_LEVEL == 2
; 1531 : 		_Orphan_range(_Ptr, this->_Mylast());
; 1532 :  #endif /* _ITERATOR_DEBUG_LEVEL == 2 */
; 1533 : 
; 1534 : 		_Destroy(_Ptr, this->_Mylast());
; 1535 : 		this->_Mylast() = _Ptr;
; 1536 : 		}
; 1537 : 
; 1538 : 	void clear() _NOEXCEPT
; 1539 : 		{	// erase all
; 1540 : 		this->_Orphan_all();
; 1541 : 		_Destroy(this->_Myfirst(), this->_Mylast());
; 1542 : 		this->_Mylast() = this->_Myfirst();
; 1543 : 		}
; 1544 : 
; 1545 : 	void swap(_Myt& _Right)
; 1546 : 		_NOEXCEPT_OP(_Alty::propagate_on_container_swap::value
; 1547 : 			|| _Alty::is_always_equal::value)
; 1548 : 		{	// exchange contents with _Right
; 1549 : 		if (this == &_Right)
; 1550 : 			;	// same object, do nothing
; 1551 : 		else if (this->_Getal() == _Right._Getal())
; 1552 : 			{	// same allocator, swap control information
; 1553 : 			this->_Swap_all(_Right);
; 1554 : 			_Swap_adl(this->_Myfirst(), _Right._Myfirst());
; 1555 : 			_Swap_adl(this->_Mylast(), _Right._Mylast());
; 1556 : 			_Swap_adl(this->_Myend(), _Right._Myend());
; 1557 : 			}
; 1558 : 
; 1559 : 		else if (_Alty::propagate_on_container_swap::value)
; 1560 : 			{	// swap allocators and control information
; 1561 : 			this->_Swap_alloc(_Right);
; 1562 : 			_Swap_adl(this->_Myfirst(), _Right._Myfirst());
; 1563 : 			_Swap_adl(this->_Mylast(), _Right._Mylast());
; 1564 : 			_Swap_adl(this->_Myend(), _Right._Myend());
; 1565 : 			}
; 1566 : 
; 1567 : 		else
; 1568 : 			{	// containers are incompatible
; 1569 :  #if _ITERATOR_DEBUG_LEVEL == 2
; 1570 : 			_DEBUG_ERROR("vector containers incompatible for swap");
; 1571 : 
; 1572 :  #else /* ITERATOR_DEBUG_LEVEL == 2 */
; 1573 : 			_XSTD terminate();
; 1574 :  #endif /* ITERATOR_DEBUG_LEVEL == 2 */
; 1575 : 			}
; 1576 : 		}
; 1577 : 
; 1578 : protected:
; 1579 : 	bool _Buy(size_type _Capacity)
; 1580 : 		{	// allocate array with _Capacity elements
; 1581 : 		this->_Myfirst() = pointer();
; 1582 : 		this->_Mylast() = pointer();
; 1583 : 		this->_Myend() = pointer();
; 1584 : 
; 1585 : 		if (_Capacity == 0)
; 1586 : 			return (false);
; 1587 : 		else if (max_size() < _Capacity)
; 1588 : 			_Xlen();	// result too long
; 1589 : 		else
; 1590 : 			{	// nonempty array, allocate storage
; 1591 : 			this->_Myfirst() = this->_Getal().allocate(_Capacity);
; 1592 : 			this->_Mylast() = this->_Myfirst();
; 1593 : 			this->_Myend() = this->_Myfirst() + _Capacity;
; 1594 : 			}
; 1595 : 		return (true);
; 1596 : 		}
; 1597 : 
; 1598 : 	void _Destroy(pointer _First, pointer _Last)
; 1599 : 		{	// destroy [_First, _Last) using allocator
; 1600 : 		_Destroy_range(_First, _Last, this->_Getal());
; 1601 : 		}
; 1602 : 
; 1603 : 	size_type _Grow_to(size_type _Count) const
; 1604 : 		{	// grow by 50% or at least to _Count
; 1605 : 		size_type _Capacity = capacity();
; 1606 : 
; 1607 : 		_Capacity = max_size() - _Capacity / 2 < _Capacity
; 1608 : 			? 0 : _Capacity + _Capacity / 2;	// try to grow by 50%
; 1609 : 		if (_Capacity < _Count)
; 1610 : 			_Capacity = _Count;
; 1611 : 		return (_Capacity);
; 1612 : 		}
; 1613 : 
; 1614 : 	bool _Inside(const value_type *_Ptr) const
; 1615 : 		{	// test if _Ptr points inside vector
; 1616 : 		return (_Ptr < this->_Mylast() && this->_Myfirst() <= _Ptr);
; 1617 : 		}
; 1618 : 
; 1619 : 	void _Reallocate(size_type _Count)
; 1620 : 		{	// move to array of exactly _Count elements
; 1621 : 		pointer _Ptr = this->_Getal().allocate(_Count);
; 1622 : 
; 1623 : 		_TRY_BEGIN
; 1624 : 		_Umove(this->_Myfirst(), this->_Mylast(), _Ptr);
; 1625 : 		_CATCH_ALL
; 1626 : 		this->_Getal().deallocate(_Ptr, _Count);
; 1627 : 		_RERAISE;
; 1628 : 		_CATCH_END
; 1629 : 
; 1630 : 		size_type _Size = size();
; 1631 : 		if (this->_Myfirst() != pointer())
; 1632 : 			{	// destroy and deallocate old array
; 1633 : 			_Destroy(this->_Myfirst(), this->_Mylast());
; 1634 : 			this->_Getal().deallocate(this->_Myfirst(),
; 1635 : 				this->_Myend() - this->_Myfirst());
; 1636 : 			}
; 1637 : 
; 1638 : 		this->_Orphan_all();
; 1639 : 		this->_Myend() = _Ptr + _Count;
; 1640 : 		this->_Mylast() = _Ptr + _Size;
; 1641 : 		this->_Myfirst() = _Ptr;
; 1642 : 		}
; 1643 : 
; 1644 : 	void _Reserve(size_type _Count)
; 1645 : 		{	// ensure room for _Count new elements, grow exponentially
; 1646 : 		if (_Unused_capacity() < _Count)
; 1647 : 			{	// need more room, try to get it
; 1648 : 			if (max_size() - size() < _Count)
; 1649 : 				_Xlen();
; 1650 : 			_Reallocate(_Grow_to(size() + _Count));
; 1651 : 			}
; 1652 : 		}
; 1653 : 
; 1654 : 	void _Tidy()
; 1655 : 		{	// free all storage
; 1656 : 		if (this->_Myfirst() != pointer())

  00003	8b 0e		 mov	 ecx, DWORD PTR [esi]
  00005	85 c9		 test	 ecx, ecx
  00007	74 32		 je	 SHORT $LN4@vector

; 1657 : 			{	// something to free, destroy and deallocate it
; 1658 : 			this->_Orphan_all();
; 1659 : 			_Destroy(this->_Myfirst(), this->_Mylast());
; 1660 : 			this->_Getal().deallocate(this->_Myfirst(),

  00009	8b 56 08	 mov	 edx, DWORD PTR [esi+8]
  0000c	b8 ab aa aa 2a	 mov	 eax, 715827883		; 2aaaaaabH
  00011	2b d1		 sub	 edx, ecx
  00013	f7 ea		 imul	 edx
  00015	d1 fa		 sar	 edx, 1
  00017	8b c2		 mov	 eax, edx
  00019	c1 e8 1f	 shr	 eax, 31			; 0000001fH
  0001c	03 c2		 add	 eax, edx
; File c:\program files (x86)\microsoft visual studio 14.0\vc\include\xmemory0

; 909  : 		_Mybase::deallocate(_Ptr, _Count);

  0001e	50		 push	 eax
  0001f	51		 push	 ecx
  00020	8b ce		 mov	 ecx, esi
  00022	e8 00 00 00 00	 call	 ?deallocate@?$allocator@URINGMONSTER_DATA@@@std@@QAEXPAURINGMONSTER_DATA@@I@Z ; std::allocator<RINGMONSTER_DATA>::deallocate
; File c:\program files (x86)\microsoft visual studio 14.0\vc\include\vector

; 1662 : 			this->_Myfirst() = pointer();

  00027	c7 06 00 00 00
	00		 mov	 DWORD PTR [esi], 0

; 1663 : 			this->_Mylast() = pointer();

  0002d	c7 46 04 00 00
	00 00		 mov	 DWORD PTR [esi+4], 0

; 1664 : 			this->_Myend() = pointer();

  00034	c7 46 08 00 00
	00 00		 mov	 DWORD PTR [esi+8], 0
$LN4@vector:
  0003b	5e		 pop	 esi

; 975  : 		_Tidy();
; 976  : 		}

  0003c	c3		 ret	 0
??1?$vector@URINGMONSTER_DATA@@V?$allocator@URINGMONSTER_DATA@@@std@@@std@@QAE@XZ ENDP ; std::vector<RINGMONSTER_DATA,std::allocator<RINGMONSTER_DATA> >::~vector<RINGMONSTER_DATA,std::allocator<RINGMONSTER_DATA> >
_TEXT	ENDS
; Function compile flags: /Ogtp
; File c:\program files (x86)\microsoft visual studio 14.0\vc\include\vector
;	COMDAT ??0?$vector@URINGMONSTER_DATA@@V?$allocator@URINGMONSTER_DATA@@@std@@@std@@QAE@XZ
_TEXT	SEGMENT
??0?$vector@URINGMONSTER_DATA@@V?$allocator@URINGMONSTER_DATA@@@std@@@std@@QAE@XZ PROC ; std::vector<RINGMONSTER_DATA,std::allocator<RINGMONSTER_DATA> >::vector<RINGMONSTER_DATA,std::allocator<RINGMONSTER_DATA> >, COMDAT
; _this$ = ecx

; 480  : 		_Myfirst = pointer();

  00000	c7 01 00 00 00
	00		 mov	 DWORD PTR [ecx], 0

; 707  : 		}

  00006	8b c1		 mov	 eax, ecx

; 481  : 		_Mylast = pointer();

  00008	c7 41 04 00 00
	00 00		 mov	 DWORD PTR [ecx+4], 0

; 482  : 		_Myend = pointer();

  0000f	c7 41 08 00 00
	00 00		 mov	 DWORD PTR [ecx+8], 0

; 707  : 		}

  00016	c3		 ret	 0
??0?$vector@URINGMONSTER_DATA@@V?$allocator@URINGMONSTER_DATA@@@std@@@std@@QAE@XZ ENDP ; std::vector<RINGMONSTER_DATA,std::allocator<RINGMONSTER_DATA> >::vector<RINGMONSTER_DATA,std::allocator<RINGMONSTER_DATA> >
_TEXT	ENDS
; Function compile flags: /Ogtp
; File c:\program files (x86)\microsoft visual studio 14.0\vc\include\xutility
;	COMDAT ?_Get_second@?$_Compressed_pair@U?$_Wrap_alloc@V?$allocator@URINGMONSTER_DATA@@@std@@@std@@V?$_Vector_val@U?$_Simple_types@URINGMONSTER_DATA@@@std@@@2@$00@std@@QBEABV?$_Vector_val@U?$_Simple_types@URINGMONSTER_DATA@@@std@@@2@XZ
_TEXT	SEGMENT
?_Get_second@?$_Compressed_pair@U?$_Wrap_alloc@V?$allocator@URINGMONSTER_DATA@@@std@@@std@@V?$_Vector_val@U?$_Simple_types@URINGMONSTER_DATA@@@std@@@2@$00@std@@QBEABV?$_Vector_val@U?$_Simple_types@URINGMONSTER_DATA@@@std@@@2@XZ PROC ; std::_Compressed_pair<std::_Wrap_alloc<std::allocator<RINGMONSTER_DATA> >,std::_Vector_val<std::_Simple_types<RINGMONSTER_DATA> >,1>::_Get_second, COMDAT
; _this$ = ecx

; 319  : 		return (_Myval2);

  00000	8b c1		 mov	 eax, ecx

; 320  : 		}

  00002	c3		 ret	 0
?_Get_second@?$_Compressed_pair@U?$_Wrap_alloc@V?$allocator@URINGMONSTER_DATA@@@std@@@std@@V?$_Vector_val@U?$_Simple_types@URINGMONSTER_DATA@@@std@@@2@$00@std@@QBEABV?$_Vector_val@U?$_Simple_types@URINGMONSTER_DATA@@@std@@@2@XZ ENDP ; std::_Compressed_pair<std::_Wrap_alloc<std::allocator<RINGMONSTER_DATA> >,std::_Vector_val<std::_Simple_types<RINGMONSTER_DATA> >,1>::_Get_second
_TEXT	ENDS
; Function compile flags: /Ogtp
; File c:\program files (x86)\microsoft visual studio 14.0\vc\include\xutility
;	COMDAT ?_Get_second@?$_Compressed_pair@U?$_Wrap_alloc@V?$allocator@URINGMONSTER_DATA@@@std@@@std@@V?$_Vector_val@U?$_Simple_types@URINGMONSTER_DATA@@@std@@@2@$00@std@@QAEAAV?$_Vector_val@U?$_Simple_types@URINGMONSTER_DATA@@@std@@@2@XZ
_TEXT	SEGMENT
?_Get_second@?$_Compressed_pair@U?$_Wrap_alloc@V?$allocator@URINGMONSTER_DATA@@@std@@@std@@V?$_Vector_val@U?$_Simple_types@URINGMONSTER_DATA@@@std@@@2@$00@std@@QAEAAV?$_Vector_val@U?$_Simple_types@URINGMONSTER_DATA@@@std@@@2@XZ PROC ; std::_Compressed_pair<std::_Wrap_alloc<std::allocator<RINGMONSTER_DATA> >,std::_Vector_val<std::_Simple_types<RINGMONSTER_DATA> >,1>::_Get_second, COMDAT
; _this$ = ecx

; 314  : 		return (_Myval2);

  00000	8b c1		 mov	 eax, ecx

; 315  : 		}

  00002	c3		 ret	 0
?_Get_second@?$_Compressed_pair@U?$_Wrap_alloc@V?$allocator@URINGMONSTER_DATA@@@std@@@std@@V?$_Vector_val@U?$_Simple_types@URINGMONSTER_DATA@@@std@@@2@$00@std@@QAEAAV?$_Vector_val@U?$_Simple_types@URINGMONSTER_DATA@@@std@@@2@XZ ENDP ; std::_Compressed_pair<std::_Wrap_alloc<std::allocator<RINGMONSTER_DATA> >,std::_Vector_val<std::_Simple_types<RINGMONSTER_DATA> >,1>::_Get_second
_TEXT	ENDS
; Function compile flags: /Ogtp
; File c:\program files (x86)\microsoft visual studio 14.0\vc\include\xutility
;	COMDAT ?_Get_first@?$_Compressed_pair@U?$_Wrap_alloc@V?$allocator@URINGMONSTER_DATA@@@std@@@std@@V?$_Vector_val@U?$_Simple_types@URINGMONSTER_DATA@@@std@@@2@$00@std@@QBEABU?$_Wrap_alloc@V?$allocator@URINGMONSTER_DATA@@@std@@@2@XZ
_TEXT	SEGMENT
?_Get_first@?$_Compressed_pair@U?$_Wrap_alloc@V?$allocator@URINGMONSTER_DATA@@@std@@@std@@V?$_Vector_val@U?$_Simple_types@URINGMONSTER_DATA@@@std@@@2@$00@std@@QBEABU?$_Wrap_alloc@V?$allocator@URINGMONSTER_DATA@@@std@@@2@XZ PROC ; std::_Compressed_pair<std::_Wrap_alloc<std::allocator<RINGMONSTER_DATA> >,std::_Vector_val<std::_Simple_types<RINGMONSTER_DATA> >,1>::_Get_first, COMDAT
; _this$ = ecx

; 299  : 		return (*this);

  00000	8b c1		 mov	 eax, ecx

; 300  : 		}

  00002	c3		 ret	 0
?_Get_first@?$_Compressed_pair@U?$_Wrap_alloc@V?$allocator@URINGMONSTER_DATA@@@std@@@std@@V?$_Vector_val@U?$_Simple_types@URINGMONSTER_DATA@@@std@@@2@$00@std@@QBEABU?$_Wrap_alloc@V?$allocator@URINGMONSTER_DATA@@@std@@@2@XZ ENDP ; std::_Compressed_pair<std::_Wrap_alloc<std::allocator<RINGMONSTER_DATA> >,std::_Vector_val<std::_Simple_types<RINGMONSTER_DATA> >,1>::_Get_first
_TEXT	ENDS
; Function compile flags: /Ogtp
; File c:\program files (x86)\microsoft visual studio 14.0\vc\include\xutility
;	COMDAT ?_Get_first@?$_Compressed_pair@U?$_Wrap_alloc@V?$allocator@URINGMONSTER_DATA@@@std@@@std@@V?$_Vector_val@U?$_Simple_types@URINGMONSTER_DATA@@@std@@@2@$00@std@@QAEAAU?$_Wrap_alloc@V?$allocator@URINGMONSTER_DATA@@@std@@@2@XZ
_TEXT	SEGMENT
?_Get_first@?$_Compressed_pair@U?$_Wrap_alloc@V?$allocator@URINGMONSTER_DATA@@@std@@@std@@V?$_Vector_val@U?$_Simple_types@URINGMONSTER_DATA@@@std@@@2@$00@std@@QAEAAU?$_Wrap_alloc@V?$allocator@URINGMONSTER_DATA@@@std@@@2@XZ PROC ; std::_Compressed_pair<std::_Wrap_alloc<std::allocator<RINGMONSTER_DATA> >,std::_Vector_val<std::_Simple_types<RINGMONSTER_DATA> >,1>::_Get_first, COMDAT
; _this$ = ecx

; 294  : 		return (*this);

  00000	8b c1		 mov	 eax, ecx

; 295  : 		}

  00002	c3		 ret	 0
?_Get_first@?$_Compressed_pair@U?$_Wrap_alloc@V?$allocator@URINGMONSTER_DATA@@@std@@@std@@V?$_Vector_val@U?$_Simple_types@URINGMONSTER_DATA@@@std@@@2@$00@std@@QAEAAU?$_Wrap_alloc@V?$allocator@URINGMONSTER_DATA@@@std@@@2@XZ ENDP ; std::_Compressed_pair<std::_Wrap_alloc<std::allocator<RINGMONSTER_DATA> >,std::_Vector_val<std::_Simple_types<RINGMONSTER_DATA> >,1>::_Get_first
_TEXT	ENDS
; Function compile flags: /Ogtp
; File c:\program files (x86)\microsoft visual studio 14.0\vc\include\vector
;	COMDAT ??0?$_Vector_val@U?$_Simple_types@URINGMONSTER_DATA@@@std@@@std@@QAE@XZ
_TEXT	SEGMENT
??0?$_Vector_val@U?$_Simple_types@URINGMONSTER_DATA@@@std@@@std@@QAE@XZ PROC ; std::_Vector_val<std::_Simple_types<RINGMONSTER_DATA> >::_Vector_val<std::_Simple_types<RINGMONSTER_DATA> >, COMDAT
; _this$ = ecx

; 479  : 		{	// initialize values
; 480  : 		_Myfirst = pointer();

  00000	c7 01 00 00 00
	00		 mov	 DWORD PTR [ecx], 0

; 481  : 		_Mylast = pointer();
; 482  : 		_Myend = pointer();
; 483  : 		}

  00006	8b c1		 mov	 eax, ecx
  00008	c7 41 04 00 00
	00 00		 mov	 DWORD PTR [ecx+4], 0
  0000f	c7 41 08 00 00
	00 00		 mov	 DWORD PTR [ecx+8], 0
  00016	c3		 ret	 0
??0?$_Vector_val@U?$_Simple_types@URINGMONSTER_DATA@@@std@@@std@@QAE@XZ ENDP ; std::_Vector_val<std::_Simple_types<RINGMONSTER_DATA> >::_Vector_val<std::_Simple_types<RINGMONSTER_DATA> >
_TEXT	ENDS
; Function compile flags: /Ogtp
; File c:\program files (x86)\microsoft visual studio 14.0\vc\include\vector
;	COMDAT ?_Myend@?$_Vector_alloc@U?$_Vec_base_types@URINGMONSTER_DATA@@V?$allocator@URINGMONSTER_DATA@@@std@@@std@@@std@@QBEABQAURINGMONSTER_DATA@@XZ
_TEXT	SEGMENT
?_Myend@?$_Vector_alloc@U?$_Vec_base_types@URINGMONSTER_DATA@@V?$allocator@URINGMONSTER_DATA@@@std@@@std@@@std@@QBEABQAURINGMONSTER_DATA@@XZ PROC ; std::_Vector_alloc<std::_Vec_base_types<RINGMONSTER_DATA,std::allocator<RINGMONSTER_DATA> > >::_Myend, COMDAT
; _this$ = ecx

; 667  : 		return (_Get_data()._Myend);

  00000	8d 41 08	 lea	 eax, DWORD PTR [ecx+8]

; 668  : 		}

  00003	c3		 ret	 0
?_Myend@?$_Vector_alloc@U?$_Vec_base_types@URINGMONSTER_DATA@@V?$allocator@URINGMONSTER_DATA@@@std@@@std@@@std@@QBEABQAURINGMONSTER_DATA@@XZ ENDP ; std::_Vector_alloc<std::_Vec_base_types<RINGMONSTER_DATA,std::allocator<RINGMONSTER_DATA> > >::_Myend
_TEXT	ENDS
; Function compile flags: /Ogtp
; File c:\program files (x86)\microsoft visual studio 14.0\vc\include\vector
;	COMDAT ?_Myend@?$_Vector_alloc@U?$_Vec_base_types@URINGMONSTER_DATA@@V?$allocator@URINGMONSTER_DATA@@@std@@@std@@@std@@QAEAAPAURINGMONSTER_DATA@@XZ
_TEXT	SEGMENT
?_Myend@?$_Vector_alloc@U?$_Vec_base_types@URINGMONSTER_DATA@@V?$allocator@URINGMONSTER_DATA@@@std@@@std@@@std@@QAEAAPAURINGMONSTER_DATA@@XZ PROC ; std::_Vector_alloc<std::_Vec_base_types<RINGMONSTER_DATA,std::allocator<RINGMONSTER_DATA> > >::_Myend, COMDAT
; _this$ = ecx

; 662  : 		return (_Get_data()._Myend);

  00000	8d 41 08	 lea	 eax, DWORD PTR [ecx+8]

; 663  : 		}

  00003	c3		 ret	 0
?_Myend@?$_Vector_alloc@U?$_Vec_base_types@URINGMONSTER_DATA@@V?$allocator@URINGMONSTER_DATA@@@std@@@std@@@std@@QAEAAPAURINGMONSTER_DATA@@XZ ENDP ; std::_Vector_alloc<std::_Vec_base_types<RINGMONSTER_DATA,std::allocator<RINGMONSTER_DATA> > >::_Myend
_TEXT	ENDS
; Function compile flags: /Ogtp
; File c:\program files (x86)\microsoft visual studio 14.0\vc\include\vector
;	COMDAT ?_Mylast@?$_Vector_alloc@U?$_Vec_base_types@URINGMONSTER_DATA@@V?$allocator@URINGMONSTER_DATA@@@std@@@std@@@std@@QBEABQAURINGMONSTER_DATA@@XZ
_TEXT	SEGMENT
?_Mylast@?$_Vector_alloc@U?$_Vec_base_types@URINGMONSTER_DATA@@V?$allocator@URINGMONSTER_DATA@@@std@@@std@@@std@@QBEABQAURINGMONSTER_DATA@@XZ PROC ; std::_Vector_alloc<std::_Vec_base_types<RINGMONSTER_DATA,std::allocator<RINGMONSTER_DATA> > >::_Mylast, COMDAT
; _this$ = ecx

; 657  : 		return (_Get_data()._Mylast);

  00000	8d 41 04	 lea	 eax, DWORD PTR [ecx+4]

; 658  : 		}

  00003	c3		 ret	 0
?_Mylast@?$_Vector_alloc@U?$_Vec_base_types@URINGMONSTER_DATA@@V?$allocator@URINGMONSTER_DATA@@@std@@@std@@@std@@QBEABQAURINGMONSTER_DATA@@XZ ENDP ; std::_Vector_alloc<std::_Vec_base_types<RINGMONSTER_DATA,std::allocator<RINGMONSTER_DATA> > >::_Mylast
_TEXT	ENDS
; Function compile flags: /Ogtp
; File c:\program files (x86)\microsoft visual studio 14.0\vc\include\vector
;	COMDAT ?_Mylast@?$_Vector_alloc@U?$_Vec_base_types@URINGMONSTER_DATA@@V?$allocator@URINGMONSTER_DATA@@@std@@@std@@@std@@QAEAAPAURINGMONSTER_DATA@@XZ
_TEXT	SEGMENT
?_Mylast@?$_Vector_alloc@U?$_Vec_base_types@URINGMONSTER_DATA@@V?$allocator@URINGMONSTER_DATA@@@std@@@std@@@std@@QAEAAPAURINGMONSTER_DATA@@XZ PROC ; std::_Vector_alloc<std::_Vec_base_types<RINGMONSTER_DATA,std::allocator<RINGMONSTER_DATA> > >::_Mylast, COMDAT
; _this$ = ecx

; 652  : 		return (_Get_data()._Mylast);

  00000	8d 41 04	 lea	 eax, DWORD PTR [ecx+4]

; 653  : 		}

  00003	c3		 ret	 0
?_Mylast@?$_Vector_alloc@U?$_Vec_base_types@URINGMONSTER_DATA@@V?$allocator@URINGMONSTER_DATA@@@std@@@std@@@std@@QAEAAPAURINGMONSTER_DATA@@XZ ENDP ; std::_Vector_alloc<std::_Vec_base_types<RINGMONSTER_DATA,std::allocator<RINGMONSTER_DATA> > >::_Mylast
_TEXT	ENDS
; Function compile flags: /Ogtp
; File c:\program files (x86)\microsoft visual studio 14.0\vc\include\vector
;	COMDAT ?_Myfirst@?$_Vector_alloc@U?$_Vec_base_types@URINGMONSTER_DATA@@V?$allocator@URINGMONSTER_DATA@@@std@@@std@@@std@@QBEABQAURINGMONSTER_DATA@@XZ
_TEXT	SEGMENT
?_Myfirst@?$_Vector_alloc@U?$_Vec_base_types@URINGMONSTER_DATA@@V?$allocator@URINGMONSTER_DATA@@@std@@@std@@@std@@QBEABQAURINGMONSTER_DATA@@XZ PROC ; std::_Vector_alloc<std::_Vec_base_types<RINGMONSTER_DATA,std::allocator<RINGMONSTER_DATA> > >::_Myfirst, COMDAT
; _this$ = ecx

; 647  : 		return (_Get_data()._Myfirst);

  00000	8b c1		 mov	 eax, ecx

; 648  : 		}

  00002	c3		 ret	 0
?_Myfirst@?$_Vector_alloc@U?$_Vec_base_types@URINGMONSTER_DATA@@V?$allocator@URINGMONSTER_DATA@@@std@@@std@@@std@@QBEABQAURINGMONSTER_DATA@@XZ ENDP ; std::_Vector_alloc<std::_Vec_base_types<RINGMONSTER_DATA,std::allocator<RINGMONSTER_DATA> > >::_Myfirst
_TEXT	ENDS
; Function compile flags: /Ogtp
; File c:\program files (x86)\microsoft visual studio 14.0\vc\include\vector
;	COMDAT ?_Myfirst@?$_Vector_alloc@U?$_Vec_base_types@URINGMONSTER_DATA@@V?$allocator@URINGMONSTER_DATA@@@std@@@std@@@std@@QAEAAPAURINGMONSTER_DATA@@XZ
_TEXT	SEGMENT
?_Myfirst@?$_Vector_alloc@U?$_Vec_base_types@URINGMONSTER_DATA@@V?$allocator@URINGMONSTER_DATA@@@std@@@std@@@std@@QAEAAPAURINGMONSTER_DATA@@XZ PROC ; std::_Vector_alloc<std::_Vec_base_types<RINGMONSTER_DATA,std::allocator<RINGMONSTER_DATA> > >::_Myfirst, COMDAT
; _this$ = ecx

; 642  : 		return (_Get_data()._Myfirst);

  00000	8b c1		 mov	 eax, ecx

; 643  : 		}

  00002	c3		 ret	 0
?_Myfirst@?$_Vector_alloc@U?$_Vec_base_types@URINGMONSTER_DATA@@V?$allocator@URINGMONSTER_DATA@@@std@@@std@@@std@@QAEAAPAURINGMONSTER_DATA@@XZ ENDP ; std::_Vector_alloc<std::_Vec_base_types<RINGMONSTER_DATA,std::allocator<RINGMONSTER_DATA> > >::_Myfirst
_TEXT	ENDS
; Function compile flags: /Ogtp
; File c:\program files (x86)\microsoft visual studio 14.0\vc\include\vector
;	COMDAT ?_Get_data@?$_Vector_alloc@U?$_Vec_base_types@URINGMONSTER_DATA@@V?$allocator@URINGMONSTER_DATA@@@std@@@std@@@std@@QBEABV?$_Vector_val@U?$_Simple_types@URINGMONSTER_DATA@@@std@@@2@XZ
_TEXT	SEGMENT
?_Get_data@?$_Vector_alloc@U?$_Vec_base_types@URINGMONSTER_DATA@@V?$allocator@URINGMONSTER_DATA@@@std@@@std@@@std@@QBEABV?$_Vector_val@U?$_Simple_types@URINGMONSTER_DATA@@@std@@@2@XZ PROC ; std::_Vector_alloc<std::_Vec_base_types<RINGMONSTER_DATA,std::allocator<RINGMONSTER_DATA> > >::_Get_data, COMDAT
; _this$ = ecx

; 637  : 		return (_Mypair._Get_second());

  00000	8b c1		 mov	 eax, ecx

; 638  : 		}

  00002	c3		 ret	 0
?_Get_data@?$_Vector_alloc@U?$_Vec_base_types@URINGMONSTER_DATA@@V?$allocator@URINGMONSTER_DATA@@@std@@@std@@@std@@QBEABV?$_Vector_val@U?$_Simple_types@URINGMONSTER_DATA@@@std@@@2@XZ ENDP ; std::_Vector_alloc<std::_Vec_base_types<RINGMONSTER_DATA,std::allocator<RINGMONSTER_DATA> > >::_Get_data
_TEXT	ENDS
; Function compile flags: /Ogtp
; File c:\program files (x86)\microsoft visual studio 14.0\vc\include\vector
;	COMDAT ?_Get_data@?$_Vector_alloc@U?$_Vec_base_types@URINGMONSTER_DATA@@V?$allocator@URINGMONSTER_DATA@@@std@@@std@@@std@@QAEAAV?$_Vector_val@U?$_Simple_types@URINGMONSTER_DATA@@@std@@@2@XZ
_TEXT	SEGMENT
?_Get_data@?$_Vector_alloc@U?$_Vec_base_types@URINGMONSTER_DATA@@V?$allocator@URINGMONSTER_DATA@@@std@@@std@@@std@@QAEAAV?$_Vector_val@U?$_Simple_types@URINGMONSTER_DATA@@@std@@@2@XZ PROC ; std::_Vector_alloc<std::_Vec_base_types<RINGMONSTER_DATA,std::allocator<RINGMONSTER_DATA> > >::_Get_data, COMDAT
; _this$ = ecx

; 632  : 		return (_Mypair._Get_second());

  00000	8b c1		 mov	 eax, ecx

; 633  : 		}

  00002	c3		 ret	 0
?_Get_data@?$_Vector_alloc@U?$_Vec_base_types@URINGMONSTER_DATA@@V?$allocator@URINGMONSTER_DATA@@@std@@@std@@@std@@QAEAAV?$_Vector_val@U?$_Simple_types@URINGMONSTER_DATA@@@std@@@2@XZ ENDP ; std::_Vector_alloc<std::_Vec_base_types<RINGMONSTER_DATA,std::allocator<RINGMONSTER_DATA> > >::_Get_data
_TEXT	ENDS
; Function compile flags: /Ogtp
; File c:\program files (x86)\microsoft visual studio 14.0\vc\include\vector
;	COMDAT ?_Getal@?$_Vector_alloc@U?$_Vec_base_types@URINGMONSTER_DATA@@V?$allocator@URINGMONSTER_DATA@@@std@@@std@@@std@@QBEABU?$_Wrap_alloc@V?$allocator@URINGMONSTER_DATA@@@std@@@2@XZ
_TEXT	SEGMENT
?_Getal@?$_Vector_alloc@U?$_Vec_base_types@URINGMONSTER_DATA@@V?$allocator@URINGMONSTER_DATA@@@std@@@std@@@std@@QBEABU?$_Wrap_alloc@V?$allocator@URINGMONSTER_DATA@@@std@@@2@XZ PROC ; std::_Vector_alloc<std::_Vec_base_types<RINGMONSTER_DATA,std::allocator<RINGMONSTER_DATA> > >::_Getal, COMDAT
; _this$ = ecx

; 627  : 		return (_Mypair._Get_first());

  00000	8b c1		 mov	 eax, ecx

; 628  : 		}

  00002	c3		 ret	 0
?_Getal@?$_Vector_alloc@U?$_Vec_base_types@URINGMONSTER_DATA@@V?$allocator@URINGMONSTER_DATA@@@std@@@std@@@std@@QBEABU?$_Wrap_alloc@V?$allocator@URINGMONSTER_DATA@@@std@@@2@XZ ENDP ; std::_Vector_alloc<std::_Vec_base_types<RINGMONSTER_DATA,std::allocator<RINGMONSTER_DATA> > >::_Getal
_TEXT	ENDS
; Function compile flags: /Ogtp
; File c:\program files (x86)\microsoft visual studio 14.0\vc\include\vector
;	COMDAT ?_Getal@?$_Vector_alloc@U?$_Vec_base_types@URINGMONSTER_DATA@@V?$allocator@URINGMONSTER_DATA@@@std@@@std@@@std@@QAEAAU?$_Wrap_alloc@V?$allocator@URINGMONSTER_DATA@@@std@@@2@XZ
_TEXT	SEGMENT
?_Getal@?$_Vector_alloc@U?$_Vec_base_types@URINGMONSTER_DATA@@V?$allocator@URINGMONSTER_DATA@@@std@@@std@@@std@@QAEAAU?$_Wrap_alloc@V?$allocator@URINGMONSTER_DATA@@@std@@@2@XZ PROC ; std::_Vector_alloc<std::_Vec_base_types<RINGMONSTER_DATA,std::allocator<RINGMONSTER_DATA> > >::_Getal, COMDAT
; _this$ = ecx

; 622  : 		return (_Mypair._Get_first());

  00000	8b c1		 mov	 eax, ecx

; 623  : 		}

  00002	c3		 ret	 0
?_Getal@?$_Vector_alloc@U?$_Vec_base_types@URINGMONSTER_DATA@@V?$allocator@URINGMONSTER_DATA@@@std@@@std@@@std@@QAEAAU?$_Wrap_alloc@V?$allocator@URINGMONSTER_DATA@@@std@@@2@XZ ENDP ; std::_Vector_alloc<std::_Vec_base_types<RINGMONSTER_DATA,std::allocator<RINGMONSTER_DATA> > >::_Getal
_TEXT	ENDS
; Function compile flags: /Ogtp
; File c:\program files (x86)\microsoft visual studio 14.0\vc\include\vector
;	COMDAT ?_Orphan_all@?$_Vector_alloc@U?$_Vec_base_types@URINGMONSTER_DATA@@V?$allocator@URINGMONSTER_DATA@@@std@@@std@@@std@@QAEXXZ
_TEXT	SEGMENT
?_Orphan_all@?$_Vector_alloc@U?$_Vec_base_types@URINGMONSTER_DATA@@V?$allocator@URINGMONSTER_DATA@@@std@@@std@@@std@@QAEXXZ PROC ; std::_Vector_alloc<std::_Vec_base_types<RINGMONSTER_DATA,std::allocator<RINGMONSTER_DATA> > >::_Orphan_all, COMDAT
; _this$ = ecx

; 612  : 		_Get_data()._Orphan_all();
; 613  : 		}

  00000	c3		 ret	 0
?_Orphan_all@?$_Vector_alloc@U?$_Vec_base_types@URINGMONSTER_DATA@@V?$allocator@URINGMONSTER_DATA@@@std@@@std@@@std@@QAEXXZ ENDP ; std::_Vector_alloc<std::_Vec_base_types<RINGMONSTER_DATA,std::allocator<RINGMONSTER_DATA> > >::_Orphan_all
_TEXT	ENDS
; Function compile flags: /Ogtp
; File c:\program files (x86)\microsoft visual studio 14.0\vc\include\vector
;	COMDAT ??0?$_Vector_alloc@U?$_Vec_base_types@URINGMONSTER_DATA@@V?$allocator@URINGMONSTER_DATA@@@std@@@std@@@std@@QAE@ABV?$allocator@URINGMONSTER_DATA@@@1@@Z
_TEXT	SEGMENT
__Al$ = 8						; size = 4
??0?$_Vector_alloc@U?$_Vec_base_types@URINGMONSTER_DATA@@V?$allocator@URINGMONSTER_DATA@@@std@@@std@@@std@@QAE@ABV?$allocator@URINGMONSTER_DATA@@@1@@Z PROC ; std::_Vector_alloc<std::_Vec_base_types<RINGMONSTER_DATA,std::allocator<RINGMONSTER_DATA> > >::_Vector_alloc<std::_Vec_base_types<RINGMONSTER_DATA,std::allocator<RINGMONSTER_DATA> > >, COMDAT
; _this$ = ecx

; 480  : 		_Myfirst = pointer();

  00000	c7 01 00 00 00
	00		 mov	 DWORD PTR [ecx], 0

; 515  : 		}

  00006	8b c1		 mov	 eax, ecx

; 481  : 		_Mylast = pointer();

  00008	c7 41 04 00 00
	00 00		 mov	 DWORD PTR [ecx+4], 0

; 482  : 		_Myend = pointer();

  0000f	c7 41 08 00 00
	00 00		 mov	 DWORD PTR [ecx+8], 0

; 515  : 		}

  00016	c2 04 00	 ret	 4
??0?$_Vector_alloc@U?$_Vec_base_types@URINGMONSTER_DATA@@V?$allocator@URINGMONSTER_DATA@@@std@@@std@@@std@@QAE@ABV?$allocator@URINGMONSTER_DATA@@@1@@Z ENDP ; std::_Vector_alloc<std::_Vec_base_types<RINGMONSTER_DATA,std::allocator<RINGMONSTER_DATA> > >::_Vector_alloc<std::_Vec_base_types<RINGMONSTER_DATA,std::allocator<RINGMONSTER_DATA> > >
_TEXT	ENDS
; Function compile flags: /Ogtp
; File c:\program files (x86)\microsoft visual studio 14.0\vc\include\xmemory0
;	COMDAT ?max_size@?$_Wrap_alloc@V?$allocator@URINGMONSTER_DATA@@@std@@@std@@QBEIU_Nil@2@@Z
_TEXT	SEGMENT
___formal$ = 8						; size = 1
?max_size@?$_Wrap_alloc@V?$allocator@URINGMONSTER_DATA@@@std@@@std@@QBEIU_Nil@2@@Z PROC ; std::_Wrap_alloc<std::allocator<RINGMONSTER_DATA> >::max_size, COMDAT
; _this$ = ecx

; 930  : 		return (_Mytraits::max_size(*this));

  00000	b8 55 55 55 15	 mov	 eax, 357913941		; 15555555H

; 931  : 		}

  00005	c2 04 00	 ret	 4
?max_size@?$_Wrap_alloc@V?$allocator@URINGMONSTER_DATA@@@std@@@std@@QBEIU_Nil@2@@Z ENDP ; std::_Wrap_alloc<std::allocator<RINGMONSTER_DATA> >::max_size
_TEXT	ENDS
; Function compile flags: /Ogtp
; File c:\program files (x86)\microsoft visual studio 14.0\vc\include\xmemory0
;	COMDAT ?deallocate@?$_Wrap_alloc@V?$allocator@URINGMONSTER_DATA@@@std@@@std@@QAEXPAURINGMONSTER_DATA@@I@Z
_TEXT	SEGMENT
__Ptr$ = 8						; size = 4
__Count$ = 12						; size = 4
?deallocate@?$_Wrap_alloc@V?$allocator@URINGMONSTER_DATA@@@std@@@std@@QAEXPAURINGMONSTER_DATA@@I@Z PROC ; std::_Wrap_alloc<std::allocator<RINGMONSTER_DATA> >::deallocate, COMDAT
; _this$ = ecx

; 908  : 		{	// deallocate object at _Ptr, ignore size

  00000	55		 push	 ebp
  00001	8b ec		 mov	 ebp, esp

; 910  : 		}

  00003	5d		 pop	 ebp

; 909  : 		_Mybase::deallocate(_Ptr, _Count);

  00004	e9 00 00 00 00	 jmp	 ?deallocate@?$allocator@URINGMONSTER_DATA@@@std@@QAEXPAURINGMONSTER_DATA@@I@Z ; std::allocator<RINGMONSTER_DATA>::deallocate
?deallocate@?$_Wrap_alloc@V?$allocator@URINGMONSTER_DATA@@@std@@@std@@QAEXPAURINGMONSTER_DATA@@I@Z ENDP ; std::_Wrap_alloc<std::allocator<RINGMONSTER_DATA> >::deallocate
_TEXT	ENDS
; Function compile flags: /Ogtp
; File c:\program files (x86)\microsoft visual studio 14.0\vc\include\xmemory0
;	COMDAT ?allocate@?$_Wrap_alloc@V?$allocator@URINGMONSTER_DATA@@@std@@@std@@QAEPAURINGMONSTER_DATA@@I@Z
_TEXT	SEGMENT
__Count$ = 8						; size = 4
?allocate@?$_Wrap_alloc@V?$allocator@URINGMONSTER_DATA@@@std@@@std@@QAEPAURINGMONSTER_DATA@@I@Z PROC ; std::_Wrap_alloc<std::allocator<RINGMONSTER_DATA> >::allocate, COMDAT
; _this$ = ecx

; 897  : 		{	// allocate array of _Count elements

  00000	55		 push	 ebp
  00001	8b ec		 mov	 ebp, esp

; 899  : 		}

  00003	5d		 pop	 ebp

; 898  : 		return (_Mybase::allocate(_Count));

  00004	e9 00 00 00 00	 jmp	 ?allocate@?$allocator@URINGMONSTER_DATA@@@std@@QAEPAURINGMONSTER_DATA@@I@Z ; std::allocator<RINGMONSTER_DATA>::allocate
?allocate@?$_Wrap_alloc@V?$allocator@URINGMONSTER_DATA@@@std@@@std@@QAEPAURINGMONSTER_DATA@@I@Z ENDP ; std::_Wrap_alloc<std::allocator<RINGMONSTER_DATA> >::allocate
_TEXT	ENDS
; Function compile flags: /Ogtp
; File c:\program files (x86)\microsoft visual studio 14.0\vc\include\xmemory0
;	COMDAT ??0?$_Wrap_alloc@V?$allocator@URINGMONSTER_DATA@@@std@@@std@@QAE@ABV?$allocator@URINGMONSTER_DATA@@@1@@Z
_TEXT	SEGMENT
__Right$ = 8						; size = 4
??0?$_Wrap_alloc@V?$allocator@URINGMONSTER_DATA@@@std@@@std@@QAE@ABV?$allocator@URINGMONSTER_DATA@@@1@@Z PROC ; std::_Wrap_alloc<std::allocator<RINGMONSTER_DATA> >::_Wrap_alloc<std::allocator<RINGMONSTER_DATA> >, COMDAT
; _this$ = ecx

; 858  : 		}

  00000	8b c1		 mov	 eax, ecx
  00002	c2 04 00	 ret	 4
??0?$_Wrap_alloc@V?$allocator@URINGMONSTER_DATA@@@std@@@std@@QAE@ABV?$allocator@URINGMONSTER_DATA@@@1@@Z ENDP ; std::_Wrap_alloc<std::allocator<RINGMONSTER_DATA> >::_Wrap_alloc<std::allocator<RINGMONSTER_DATA> >
_TEXT	ENDS
; Function compile flags: /Ogtp
; File c:\program files (x86)\microsoft visual studio 14.0\vc\include\xmemory0
;	COMDAT ?max_size@?$allocator_traits@V?$allocator@URINGMONSTER_DATA@@@std@@@std@@SAIABV?$allocator@URINGMONSTER_DATA@@@2@@Z
_TEXT	SEGMENT
__Al$ = 8						; size = 4
?max_size@?$allocator_traits@V?$allocator@URINGMONSTER_DATA@@@std@@@std@@SAIABV?$allocator@URINGMONSTER_DATA@@@2@@Z PROC ; std::allocator_traits<std::allocator<RINGMONSTER_DATA> >::max_size, COMDAT

; 785  : 		return (_Al.max_size());

  00000	b8 55 55 55 15	 mov	 eax, 357913941		; 15555555H

; 786  : 		}

  00005	c3		 ret	 0
?max_size@?$allocator_traits@V?$allocator@URINGMONSTER_DATA@@@std@@@std@@SAIABV?$allocator@URINGMONSTER_DATA@@@2@@Z ENDP ; std::allocator_traits<std::allocator<RINGMONSTER_DATA> >::max_size
_TEXT	ENDS
; Function compile flags: /Ogtp
; File c:\program files (x86)\microsoft visual studio 14.0\vc\include\xmemory0
;	COMDAT ?max_size@?$allocator@URINGMONSTER_DATA@@@std@@QBEIXZ
_TEXT	SEGMENT
?max_size@?$allocator@URINGMONSTER_DATA@@@std@@QBEIXZ PROC ; std::allocator<RINGMONSTER_DATA>::max_size, COMDAT
; _this$ = ecx

; 667  : 		return ((size_t)(-1) / sizeof (_Ty));

  00000	b8 55 55 55 15	 mov	 eax, 357913941		; 15555555H

; 668  : 		}

  00005	c3		 ret	 0
?max_size@?$allocator@URINGMONSTER_DATA@@@std@@QBEIXZ ENDP ; std::allocator<RINGMONSTER_DATA>::max_size
_TEXT	ENDS
; Function compile flags: /Ogtp
; File c:\program files (x86)\microsoft visual studio 14.0\vc\include\xmemory0
;	COMDAT ?allocate@?$allocator@URINGMONSTER_DATA@@@std@@QAEPAURINGMONSTER_DATA@@I@Z
_TEXT	SEGMENT
__Count$ = 8						; size = 4
?allocate@?$allocator@URINGMONSTER_DATA@@@std@@QAEPAURINGMONSTER_DATA@@I@Z PROC ; std::allocator<RINGMONSTER_DATA>::allocate, COMDAT
; _this$ = ecx

; 642  : 		{	// allocate array of _Count elements

  00000	55		 push	 ebp
  00001	8b ec		 mov	 ebp, esp

; 57   : 	if (_Count == 0)

  00003	8b 45 08	 mov	 eax, DWORD PTR __Count$[ebp]
  00006	85 c0		 test	 eax, eax
  00008	75 04		 jne	 SHORT $LN4@allocate
$LN12@allocate:

; 643  : 		return (static_cast<pointer>(_Allocate(_Count, sizeof (_Ty))));
; 644  : 		}

  0000a	5d		 pop	 ebp
  0000b	c2 04 00	 ret	 4
$LN4@allocate:

; 58   : 		return (_Ptr);
; 59   : 
; 60   : 	// check overflow of multiply
; 61   : 	if ((size_t)(-1) / _Sz < _Count)

  0000e	3d 55 55 55 15	 cmp	 eax, 357913941		; 15555555H
  00013	77 3f		 ja	 SHORT $LN14@allocate

; 63   : 	const size_t _User_size = _Count * _Sz;

  00015	8d 04 40	 lea	 eax, DWORD PTR [eax+eax*2]
  00018	c1 e0 02	 shl	 eax, 2

; 64   : 
; 65   :  #if defined(_M_IX86) || defined(_M_X64)
; 66   : 	if (_Try_aligned_allocation
; 67   : 		&& _BIG_ALLOCATION_THRESHOLD <= _User_size)

  0001b	3d 00 10 00 00	 cmp	 eax, 4096		; 00001000H
  00020	72 23		 jb	 SHORT $LN6@allocate

; 68   : 		{	// allocate large block
; 69   : 		static_assert(sizeof (void *) < _BIG_ALLOCATION_ALIGNMENT,
; 70   : 			"Big allocations should at least match vector register size");
; 71   : 		const size_t _Block_size = _NON_USER_SIZE + _User_size;

  00022	8d 48 23	 lea	 ecx, DWORD PTR [eax+35]

; 72   : 		if (_Block_size <= _User_size)

  00025	3b c8		 cmp	 ecx, eax
  00027	76 30		 jbe	 SHORT $LN16@allocate

; 74   : 		const uintptr_t _Ptr_container =
; 75   : 			reinterpret_cast<uintptr_t>(::operator new(_Block_size));

  00029	51		 push	 ecx
  0002a	e8 00 00 00 00	 call	 ??2@YAPAXI@Z		; operator new
  0002f	8b c8		 mov	 ecx, eax
  00031	83 c4 04	 add	 esp, 4

; 76   : 		_SCL_SECURE_ALWAYS_VALIDATE(_Ptr_container != 0);

  00034	85 c9		 test	 ecx, ecx
  00036	74 26		 je	 SHORT $LN17@allocate

; 77   : 		_Ptr = reinterpret_cast<void *>((_Ptr_container + _NON_USER_SIZE)

  00038	8d 41 23	 lea	 eax, DWORD PTR [ecx+35]
  0003b	83 e0 e0	 and	 eax, -32		; ffffffe0H

; 78   : 			& ~(_BIG_ALLOCATION_ALIGNMENT - 1));
; 79   : 		static_cast<uintptr_t *>(_Ptr)[-1] = _Ptr_container;

  0003e	89 48 fc	 mov	 DWORD PTR [eax-4], ecx

; 643  : 		return (static_cast<pointer>(_Allocate(_Count, sizeof (_Ty))));
; 644  : 		}

  00041	5d		 pop	 ebp
  00042	c2 04 00	 ret	 4
$LN6@allocate:

; 80   : 
; 81   :  #ifdef _DEBUG
; 82   : 		static_cast<uintptr_t *>(_Ptr)[-2] = _BIG_ALLOCATION_SENTINEL;
; 83   :  #endif /* _DEBUG */
; 84   : 		}
; 85   : 	else
; 86   :  #endif /* defined(_M_IX86) || defined(_M_X64) */
; 87   : 
; 88   : 		{	// allocate normal block
; 89   : 		_Ptr = ::operator new(_User_size);

  00045	50		 push	 eax
  00046	e8 00 00 00 00	 call	 ??2@YAPAXI@Z		; operator new
  0004b	83 c4 04	 add	 esp, 4

; 90   : 		_SCL_SECURE_ALWAYS_VALIDATE(_Ptr != 0);

  0004e	85 c0		 test	 eax, eax
  00050	75 b8		 jne	 SHORT $LN12@allocate
  00052	eb 0f		 jmp	 SHORT $LN18@allocate
$LN14@allocate:

; 62   : 		_Xbad_alloc();	// report no memory

  00054	e8 00 00 00 00	 call	 ?_Xbad_alloc@std@@YAXXZ	; std::_Xbad_alloc
$LN19@allocate:
$LN16@allocate:

; 73   : 			_Xbad_alloc();	// report no memory

  00059	e8 00 00 00 00	 call	 ?_Xbad_alloc@std@@YAXXZ	; std::_Xbad_alloc
$LN20@allocate:
$LN17@allocate:

; 76   : 		_SCL_SECURE_ALWAYS_VALIDATE(_Ptr_container != 0);

  0005e	e8 00 00 00 00	 call	 __invalid_parameter_noinfo_noreturn
$LN21@allocate:
$LN18@allocate:

; 90   : 		_SCL_SECURE_ALWAYS_VALIDATE(_Ptr != 0);

  00063	e8 00 00 00 00	 call	 __invalid_parameter_noinfo_noreturn
$LN22@allocate:
$LN13@allocate:
  00068	cc		 int	 3
?allocate@?$allocator@URINGMONSTER_DATA@@@std@@QAEPAURINGMONSTER_DATA@@I@Z ENDP ; std::allocator<RINGMONSTER_DATA>::allocate
_TEXT	ENDS
; Function compile flags: /Ogtp
; File c:\program files (x86)\microsoft visual studio 14.0\vc\include\xmemory0
;	COMDAT ?deallocate@?$allocator@URINGMONSTER_DATA@@@std@@QAEXPAURINGMONSTER_DATA@@I@Z
_TEXT	SEGMENT
__Ptr$ = 8						; size = 4
__Count$ = 12						; size = 4
?deallocate@?$allocator@URINGMONSTER_DATA@@@std@@QAEXPAURINGMONSTER_DATA@@I@Z PROC ; std::allocator<RINGMONSTER_DATA>::deallocate, COMDAT
; _this$ = ecx

; 637  : 		{	// deallocate object at _Ptr

  00000	55		 push	 ebp
  00001	8b ec		 mov	 ebp, esp

; 100  : 	_SCL_SECURE_ALWAYS_VALIDATE(_Count <= (size_t)(-1) / _Sz);

  00003	8b 45 0c	 mov	 eax, DWORD PTR __Count$[ebp]

; 638  : 		_Deallocate(_Ptr, _Count, sizeof (_Ty));

  00006	8b 4d 08	 mov	 ecx, DWORD PTR __Ptr$[ebp]

; 100  : 	_SCL_SECURE_ALWAYS_VALIDATE(_Count <= (size_t)(-1) / _Sz);

  00009	3d 55 55 55 15	 cmp	 eax, 357913941		; 15555555H
  0000e	77 34		 ja	 SHORT $LN13@deallocate

; 101  : 	const size_t _User_size = _Count * _Sz;

  00010	8d 04 40	 lea	 eax, DWORD PTR [eax+eax*2]
  00013	c1 e0 02	 shl	 eax, 2

; 102  : 	if (_BIG_ALLOCATION_THRESHOLD <= _User_size)

  00016	3d 00 10 00 00	 cmp	 eax, 4096		; 00001000H
  0001b	72 1a		 jb	 SHORT $LN5@deallocate

; 103  : 		{	// deallocate large block
; 104  : 		const uintptr_t _Ptr_user = reinterpret_cast<uintptr_t>(_Ptr);
; 105  : 		_SCL_SECURE_ALWAYS_VALIDATE(

  0001d	f6 c1 1f	 test	 cl, 31			; 0000001fH
  00020	75 27		 jne	 SHORT $LN15@deallocate

; 106  : 			(_Ptr_user & (_BIG_ALLOCATION_ALIGNMENT - 1)) == 0);
; 107  : 		const uintptr_t _Ptr_ptr = _Ptr_user - sizeof(void *);
; 108  : 		const uintptr_t _Ptr_container =
; 109  : 			*reinterpret_cast<uintptr_t *>(_Ptr_ptr);

  00022	8b 41 fc	 mov	 eax, DWORD PTR [ecx-4]

; 110  : 
; 111  :  #ifdef _DEBUG
; 112  : 		// If the following asserts, it likely means that we are performing
; 113  : 		// an aligned delete on memory coming from an unaligned allocation.
; 114  : 		_SCL_SECURE_ALWAYS_VALIDATE(
; 115  : 			reinterpret_cast<uintptr_t *>(_Ptr_ptr)[-1] ==
; 116  : 				_BIG_ALLOCATION_SENTINEL);
; 117  :  #endif /* _DEBUG */
; 118  : 
; 119  : 		// Extra paranoia on aligned allocation/deallocation
; 120  : 		_SCL_SECURE_ALWAYS_VALIDATE(_Ptr_container < _Ptr_user);

  00025	3b c1		 cmp	 eax, ecx
  00027	73 25		 jae	 SHORT $LN16@deallocate

; 121  : 
; 122  :  #ifdef _DEBUG
; 123  : 		_SCL_SECURE_ALWAYS_VALIDATE(2 * sizeof(void *)
; 124  : 			<= _Ptr_user - _Ptr_container);
; 125  : 
; 126  :  #else /* _DEBUG */
; 127  : 		_SCL_SECURE_ALWAYS_VALIDATE(sizeof(void *)

  00029	2b c8		 sub	 ecx, eax
  0002b	83 f9 04	 cmp	 ecx, 4
  0002e	72 23		 jb	 SHORT $LN17@deallocate

; 128  : 			<= _Ptr_user - _Ptr_container);
; 129  :  #endif /* _DEBUG */
; 130  : 
; 131  : 		_SCL_SECURE_ALWAYS_VALIDATE(_Ptr_user - _Ptr_container

  00030	83 f9 23	 cmp	 ecx, 35			; 00000023H
  00033	77 23		 ja	 SHORT $LN18@deallocate

; 132  : 			<= _NON_USER_SIZE);
; 133  : 
; 134  : 		_Ptr = reinterpret_cast<void *>(_Ptr_container);

  00035	8b c8		 mov	 ecx, eax
$LN5@deallocate:

; 135  : 		}
; 136  :  #endif /* defined(_M_IX86) || defined(_M_X64) */
; 137  : 
; 138  : 	::operator delete(_Ptr);

  00037	51		 push	 ecx
  00038	e8 00 00 00 00	 call	 ??3@YAXPAX@Z		; operator delete
  0003d	83 c4 04	 add	 esp, 4

; 639  : 		}

  00040	5d		 pop	 ebp
  00041	c2 08 00	 ret	 8
$LN13@deallocate:

; 100  : 	_SCL_SECURE_ALWAYS_VALIDATE(_Count <= (size_t)(-1) / _Sz);

  00044	e8 00 00 00 00	 call	 __invalid_parameter_noinfo_noreturn
$LN19@deallocate:
$LN15@deallocate:

; 103  : 		{	// deallocate large block
; 104  : 		const uintptr_t _Ptr_user = reinterpret_cast<uintptr_t>(_Ptr);
; 105  : 		_SCL_SECURE_ALWAYS_VALIDATE(

  00049	e8 00 00 00 00	 call	 __invalid_parameter_noinfo_noreturn
$LN20@deallocate:
$LN16@deallocate:

; 110  : 
; 111  :  #ifdef _DEBUG
; 112  : 		// If the following asserts, it likely means that we are performing
; 113  : 		// an aligned delete on memory coming from an unaligned allocation.
; 114  : 		_SCL_SECURE_ALWAYS_VALIDATE(
; 115  : 			reinterpret_cast<uintptr_t *>(_Ptr_ptr)[-1] ==
; 116  : 				_BIG_ALLOCATION_SENTINEL);
; 117  :  #endif /* _DEBUG */
; 118  : 
; 119  : 		// Extra paranoia on aligned allocation/deallocation
; 120  : 		_SCL_SECURE_ALWAYS_VALIDATE(_Ptr_container < _Ptr_user);

  0004e	e8 00 00 00 00	 call	 __invalid_parameter_noinfo_noreturn
$LN21@deallocate:
$LN17@deallocate:

; 121  : 
; 122  :  #ifdef _DEBUG
; 123  : 		_SCL_SECURE_ALWAYS_VALIDATE(2 * sizeof(void *)
; 124  : 			<= _Ptr_user - _Ptr_container);
; 125  : 
; 126  :  #else /* _DEBUG */
; 127  : 		_SCL_SECURE_ALWAYS_VALIDATE(sizeof(void *)

  00053	e8 00 00 00 00	 call	 __invalid_parameter_noinfo_noreturn
$LN22@deallocate:
$LN18@deallocate:

; 128  : 			<= _Ptr_user - _Ptr_container);
; 129  :  #endif /* _DEBUG */
; 130  : 
; 131  : 		_SCL_SECURE_ALWAYS_VALIDATE(_Ptr_user - _Ptr_container

  00058	e8 00 00 00 00	 call	 __invalid_parameter_noinfo_noreturn
$LN23@deallocate:
$LN12@deallocate:
  0005d	cc		 int	 3
?deallocate@?$allocator@URINGMONSTER_DATA@@@std@@QAEXPAURINGMONSTER_DATA@@I@Z ENDP ; std::allocator<RINGMONSTER_DATA>::deallocate
_TEXT	ENDS
; Function compile flags: /Ogtp
; File c:\program files (x86)\microsoft visual studio 14.0\vc\include\xmemory0
;	COMDAT ??0?$allocator@URINGMONSTER_DATA@@@std@@QAE@ABV01@@Z
_TEXT	SEGMENT
___formal$ = 8						; size = 4
??0?$allocator@URINGMONSTER_DATA@@@std@@QAE@ABV01@@Z PROC ; std::allocator<RINGMONSTER_DATA>::allocator<RINGMONSTER_DATA>, COMDAT
; _this$ = ecx

; 622  : 		{	// construct by copying (do nothing)
; 623  : 		}

  00000	8b c1		 mov	 eax, ecx
  00002	c2 04 00	 ret	 4
??0?$allocator@URINGMONSTER_DATA@@@std@@QAE@ABV01@@Z ENDP ; std::allocator<RINGMONSTER_DATA>::allocator<RINGMONSTER_DATA>
_TEXT	ENDS
; Function compile flags: /Ogtp
; File c:\program files (x86)\microsoft visual studio 14.0\vc\include\xmemory0
;	COMDAT ??0?$allocator@URINGMONSTER_DATA@@@std@@QAE@XZ
_TEXT	SEGMENT
??0?$allocator@URINGMONSTER_DATA@@@std@@QAE@XZ PROC	; std::allocator<RINGMONSTER_DATA>::allocator<RINGMONSTER_DATA>, COMDAT
; _this$ = ecx

; 618  : 		{	// construct default allocator (do nothing)
; 619  : 		}

  00000	8b c1		 mov	 eax, ecx
  00002	c3		 ret	 0
??0?$allocator@URINGMONSTER_DATA@@@std@@QAE@XZ ENDP	; std::allocator<RINGMONSTER_DATA>::allocator<RINGMONSTER_DATA>
_TEXT	ENDS
; Function compile flags: /Ogtp
; File c:\users\michel\desktop\source\gameserver\source\ringattackevent.cpp
; File c:\program files (x86)\microsoft visual studio 14.0\vc\include\vector
; File c:\users\michel\desktop\source\gameserver\source\ringattackevent.cpp
; File c:\program files (x86)\microsoft visual studio 14.0\vc\include\vector
; File c:\program files (x86)\microsoft visual studio 14.0\vc\include\xmemory0
; File c:\program files (x86)\microsoft visual studio 14.0\vc\include\vector
; File c:\program files (x86)\microsoft visual studio 14.0\vc\include\xmemory0
; File c:\program files (x86)\microsoft visual studio 14.0\vc\include\vector
; File c:\users\michel\desktop\source\gameserver\source\ringattackevent.cpp
;	COMDAT ?Load@CRingAttackEvent@@UAEHPAD@Z
_TEXT	SEGMENT
_lpszFileName$GSCopy$1$ = -40				; size = 4
_pRET$1 = -36						; size = 8
tv786 = -28						; size = 4
_this$GSCopy$1$ = -24					; size = 4
_type$1$ = -20						; size = 4
$T2 = -20						; size = 4
$T3 = -20						; size = 4
_pRMD$4 = -16						; size = 12
__$ArrayPad$ = -4					; size = 4
_lpszFileName$ = 8					; size = 4
?Load@CRingAttackEvent@@UAEHPAD@Z PROC			; CRingAttackEvent::Load, COMDAT
; _this$ = ecx

; 288  : {

  00000	55		 push	 ebp
  00001	8b ec		 mov	 ebp, esp
  00003	83 ec 28	 sub	 esp, 40			; 00000028H
  00006	a1 00 00 00 00	 mov	 eax, DWORD PTR ___security_cookie
  0000b	33 c5		 xor	 eax, ebp
  0000d	89 45 fc	 mov	 DWORD PTR __$ArrayPad$[ebp], eax
  00010	53		 push	 ebx
  00011	8b 5d 08	 mov	 ebx, DWORD PTR _lpszFileName$[ebp]
  00014	56		 push	 esi
  00015	8b f1		 mov	 esi, ecx
  00017	89 5d d8	 mov	 DWORD PTR _lpszFileName$GSCopy$1$[ebp], ebx

; 289  : 	SMDFile = fopen(lpszFileName, "r");

  0001a	68 00 00 00 00	 push	 OFFSET ??_C@_01KDCPPGHE@r?$AA@
  0001f	53		 push	 ebx
  00020	89 75 e8	 mov	 DWORD PTR _this$GSCopy$1$[ebp], esi
  00023	e8 00 00 00 00	 call	 _fopen
  00028	83 c4 08	 add	 esp, 8
  0002b	a3 00 00 00 00	 mov	 DWORD PTR ?SMDFile@@3PAU_iobuf@@A, eax

; 290  : 
; 291  : 	if ( SMDFile == NULL )

  00030	85 c0		 test	 eax, eax
  00032	75 22		 jne	 SHORT $LN6@Load

; 292  : 	{
; 293  : 		MsgBox("[Ring Event] Info file Load Fail [%s]", lpszFileName);

  00034	53		 push	 ebx
  00035	68 00 00 00 00	 push	 OFFSET ??_C@_0CG@OKIEPGH@?$FLRing?5Event?$FN?5Info?5file?5Load?5Fail@
  0003a	e8 00 00 00 00	 call	 ?MsgBox@@YAXPADZZ	; MsgBox
  0003f	83 c4 08	 add	 esp, 8

; 294  : 		return FALSE;

  00042	33 c0		 xor	 eax, eax
  00044	5e		 pop	 esi
  00045	5b		 pop	 ebx

; 401  : 	this->m_bHasData = TRUE;
; 402  : 
; 403  : 	return TRUE;
; 404  : }

  00046	8b 4d fc	 mov	 ecx, DWORD PTR __$ArrayPad$[ebp]
  00049	33 cd		 xor	 ecx, ebp
  0004b	e8 00 00 00 00	 call	 @__security_check_cookie@4
  00050	8b e5		 mov	 esp, ebp
  00052	5d		 pop	 ebp
  00053	c2 04 00	 ret	 4
$LN6@Load:
  00056	57		 push	 edi

; 295  : 	}
; 296  : 
; 297  : 	EnterCriticalSection(&this->m_critMonsterAddData);

  00057	8d be 10 01 00
	00		 lea	 edi, DWORD PTR [esi+272]
  0005d	57		 push	 edi
  0005e	89 7d e4	 mov	 DWORD PTR tv786[ebp], edi
  00061	ff 15 00 00 00
	00		 call	 DWORD PTR __imp__EnterCriticalSection@4

; 298  : 	this->m_vtMonsterAddData.erase( this->m_vtMonsterAddData.begin(), this->m_vtMonsterAddData.end() );

  00067	ff b6 08 01 00
	00		 push	 DWORD PTR [esi+264]
  0006d	8d 4d ec	 lea	 ecx, DWORD PTR $T3[ebp]
  00070	ff b6 04 01 00
	00		 push	 DWORD PTR [esi+260]
  00076	51		 push	 ecx
  00077	8d 8e 04 01 00
	00		 lea	 ecx, DWORD PTR [esi+260]
  0007d	e8 00 00 00 00	 call	 ?erase@?$vector@URINGMONSTER_DATA@@V?$allocator@URINGMONSTER_DATA@@@std@@@std@@QAE?AV?$_Vector_iterator@V?$_Vector_val@U?$_Simple_types@URINGMONSTER_DATA@@@std@@@std@@@2@V?$_Vector_const_iterator@V?$_Vector_val@U?$_Simple_types@URINGMONSTER_DATA@@@std@@@std@@@2@0@Z ; std::vector<RINGMONSTER_DATA,std::allocator<RINGMONSTER_DATA> >::erase

; 299  : 	LeaveCriticalSection(&this->m_critMonsterAddData);

  00082	57		 push	 edi
  00083	ff 15 00 00 00
	00		 call	 DWORD PTR __imp__LeaveCriticalSection@4

; 300  : 
; 301  : 	this->m_vtEventTime.erase( this->m_vtEventTime.begin(), this->m_vtEventTime.end() );

  00089	ff b6 2c 01 00
	00		 push	 DWORD PTR [esi+300]
  0008f	8d 9e 28 01 00
	00		 lea	 ebx, DWORD PTR [esi+296]
  00095	ff 33		 push	 DWORD PTR [ebx]
  00097	8d 45 ec	 lea	 eax, DWORD PTR $T2[ebp]
  0009a	8b cb		 mov	 ecx, ebx
  0009c	50		 push	 eax
  0009d	e8 00 00 00 00	 call	 ?erase@?$vector@URINGMONSTER_EVENT_TIME@@V?$allocator@URINGMONSTER_EVENT_TIME@@@std@@@std@@QAE?AV?$_Vector_iterator@V?$_Vector_val@U?$_Simple_types@URINGMONSTER_EVENT_TIME@@@std@@@std@@@2@V?$_Vector_const_iterator@V?$_Vector_val@U?$_Simple_types@URINGMONSTER_EVENT_TIME@@@std@@@std@@@2@0@Z ; std::vector<RINGMONSTER_EVENT_TIME,std::allocator<RINGMONSTER_EVENT_TIME> >::erase

; 302  : 
; 303  : 	this->m_bHasData = FALSE;

  000a2	c7 86 d4 00 00
	00 00 00 00 00	 mov	 DWORD PTR [esi+212], 0

; 304  : 
; 305  : 	int Token;
; 306  : 	int type = -1;
; 307  : 
; 308  : 	while ( true )
; 309  : 	{
; 310  : 		Token = GetToken();

  000ac	e8 00 00 00 00	 call	 ?GetToken@@YA?AW4SMDToken@@XZ ; GetToken

; 311  : 
; 312  : 		if ( Token == 2 )

  000b1	83 f8 02	 cmp	 eax, 2
  000b4	0f 84 8d 02 00
	00		 je	 $LN344@Load
  000ba	66 0f 1f 44 00
	00		 npad	 6
$LL2@Load:

; 313  : 		{
; 314  : 			break;
; 315  : 		}
; 316  : 
; 317  : 		type = (int)TokenNumber;

  000c0	f3 0f 2c 05 00
	00 00 00	 cvttss2si eax, DWORD PTR ?TokenNumber@@3MA
  000c8	89 45 ec	 mov	 DWORD PTR _type$1$[ebp], eax
  000cb	0f 1f 44 00 00	 npad	 5
$LL4@Load:

; 318  : 
; 319  : 		while ( true )
; 320  : 		{
; 321  : 			if ( type == 0 )

  000d0	85 c0		 test	 eax, eax
  000d2	75 75		 jne	 SHORT $LN8@Load

; 322  : 			{
; 323  : 				Token = GetToken();

  000d4	e8 00 00 00 00	 call	 ?GetToken@@YA?AW4SMDToken@@XZ ; GetToken

; 324  : 
; 325  : 				if ( strcmp("end", TokenString) == 0 )

  000d9	b9 00 00 00 00	 mov	 ecx, OFFSET ?TokenString@@3PADA
  000de	b8 00 00 00 00	 mov	 eax, OFFSET ??_C@_03JBJLGPFL@end?$AA@
$LL350@Load:
  000e3	8a 10		 mov	 dl, BYTE PTR [eax]
  000e5	3a 11		 cmp	 dl, BYTE PTR [ecx]
  000e7	75 1a		 jne	 SHORT $LN351@Load
  000e9	84 d2		 test	 dl, dl
  000eb	74 12		 je	 SHORT $LN352@Load
  000ed	8a 50 01	 mov	 dl, BYTE PTR [eax+1]
  000f0	3a 51 01	 cmp	 dl, BYTE PTR [ecx+1]
  000f3	75 0e		 jne	 SHORT $LN351@Load
  000f5	83 c0 02	 add	 eax, 2
  000f8	83 c1 02	 add	 ecx, 2
  000fb	84 d2		 test	 dl, dl
  000fd	75 e4		 jne	 SHORT $LL350@Load
$LN352@Load:
  000ff	33 c0		 xor	 eax, eax
  00101	eb 05		 jmp	 SHORT $LN353@Load
$LN351@Load:
  00103	1b c0		 sbb	 eax, eax
  00105	83 c8 01	 or	 eax, 1
$LN353@Load:
  00108	85 c0		 test	 eax, eax
  0010a	0f 84 29 02 00
	00		 je	 $LN340@Load

; 326  : 				{
; 327  : 					break;
; 328  : 				}
; 329  : 
; 330  : 				this->m_iTIME_MIN_OPEN = (int)TokenNumber;

  00110	f3 0f 2c 05 00
	00 00 00	 cvttss2si eax, DWORD PTR ?TokenNumber@@3MA
  00118	89 86 e0 00 00
	00		 mov	 DWORD PTR [esi+224], eax

; 331  : 
; 332  : 				Token = GetToken();

  0011e	e8 00 00 00 00	 call	 ?GetToken@@YA?AW4SMDToken@@XZ ; GetToken

; 333  : 				this->m_iTIME_MIN_PLAY = (int)TokenNumber;

  00123	f3 0f 2c 05 00
	00 00 00	 cvttss2si eax, DWORD PTR ?TokenNumber@@3MA
  0012b	89 86 e4 00 00
	00		 mov	 DWORD PTR [esi+228], eax

; 334  : 
; 335  : 				Token = GetToken();

  00131	e8 00 00 00 00	 call	 ?GetToken@@YA?AW4SMDToken@@XZ ; GetToken

; 336  : 				this->m_iTIME_MONSTER_TO_DEST = (int)TokenNumber;

  00136	f3 0f 2c 05 00
	00 00 00	 cvttss2si eax, DWORD PTR ?TokenNumber@@3MA
  0013e	89 86 e8 00 00
	00		 mov	 DWORD PTR [esi+232], eax
  00144	8b 45 ec	 mov	 eax, DWORD PTR _type$1$[ebp]
  00147	eb 87		 jmp	 SHORT $LL4@Load
$LN8@Load:

; 337  : 			}
; 338  : 			else if ( type == 1 )

  00149	83 f8 01	 cmp	 eax, 1
  0014c	75 7b		 jne	 SHORT $LN11@Load

; 339  : 			{
; 340  : 				Token = GetToken();

  0014e	e8 00 00 00 00	 call	 ?GetToken@@YA?AW4SMDToken@@XZ ; GetToken

; 341  : 
; 342  : 				if ( strcmp("end", TokenString) == 0 )

  00153	b9 00 00 00 00	 mov	 ecx, OFFSET ?TokenString@@3PADA
  00158	b8 00 00 00 00	 mov	 eax, OFFSET ??_C@_03JBJLGPFL@end?$AA@
  0015d	0f 1f 00	 npad	 3
$LL354@Load:
  00160	8a 10		 mov	 dl, BYTE PTR [eax]
  00162	3a 11		 cmp	 dl, BYTE PTR [ecx]
  00164	75 1a		 jne	 SHORT $LN355@Load
  00166	84 d2		 test	 dl, dl
  00168	74 12		 je	 SHORT $LN356@Load
  0016a	8a 50 01	 mov	 dl, BYTE PTR [eax+1]
  0016d	3a 51 01	 cmp	 dl, BYTE PTR [ecx+1]
  00170	75 0e		 jne	 SHORT $LN355@Load
  00172	83 c0 02	 add	 eax, 2
  00175	83 c1 02	 add	 ecx, 2
  00178	84 d2		 test	 dl, dl
  0017a	75 e4		 jne	 SHORT $LL354@Load
$LN356@Load:
  0017c	33 c0		 xor	 eax, eax
  0017e	eb 05		 jmp	 SHORT $LN357@Load
$LN355@Load:
  00180	1b c0		 sbb	 eax, eax
  00182	83 c8 01	 or	 eax, 1
$LN357@Load:
  00185	85 c0		 test	 eax, eax
  00187	0f 84 ac 01 00
	00		 je	 $LN340@Load

; 343  : 				{
; 344  : 					break;
; 345  : 				}
; 346  : 
; 347  : 				this->m_iMOVE_RAND_SIZE = (int)TokenNumber;

  0018d	f3 0f 2c 05 00
	00 00 00	 cvttss2si eax, DWORD PTR ?TokenNumber@@3MA
  00195	89 86 f8 00 00
	00		 mov	 DWORD PTR [esi+248], eax

; 348  : 
; 349  : 				Token = GetToken();

  0019b	e8 00 00 00 00	 call	 ?GetToken@@YA?AW4SMDToken@@XZ ; GetToken

; 350  : 				this->m_iRADIUS_MIN = (int)TokenNumber;

  001a0	f3 0f 2c 05 00
	00 00 00	 cvttss2si eax, DWORD PTR ?TokenNumber@@3MA
  001a8	89 86 fc 00 00
	00		 mov	 DWORD PTR [esi+252], eax

; 351  : 
; 352  : 				Token = GetToken();

  001ae	e8 00 00 00 00	 call	 ?GetToken@@YA?AW4SMDToken@@XZ ; GetToken

; 353  : 				this->m_iRADIUS_MAX = (int)TokenNumber;

  001b3	f3 0f 2c 05 00
	00 00 00	 cvttss2si eax, DWORD PTR ?TokenNumber@@3MA
  001bb	89 86 00 01 00
	00		 mov	 DWORD PTR [esi+256], eax
  001c1	8b 45 ec	 mov	 eax, DWORD PTR _type$1$[ebp]
  001c4	e9 07 ff ff ff	 jmp	 $LL4@Load
$LN11@Load:

; 354  : 			}
; 355  : 			else if ( type == 2 )

  001c9	83 f8 02	 cmp	 eax, 2
  001cc	0f 85 8c 00 00
	00		 jne	 $LN14@Load

; 356  : 			{
; 357  : 				Token = GetToken();

  001d2	e8 00 00 00 00	 call	 ?GetToken@@YA?AW4SMDToken@@XZ ; GetToken

; 358  : 
; 359  : 				if ( strcmp("end", TokenString) == 0 )

  001d7	b9 00 00 00 00	 mov	 ecx, OFFSET ?TokenString@@3PADA
  001dc	b8 00 00 00 00	 mov	 eax, OFFSET ??_C@_03JBJLGPFL@end?$AA@
$LL358@Load:
  001e1	8a 10		 mov	 dl, BYTE PTR [eax]
  001e3	3a 11		 cmp	 dl, BYTE PTR [ecx]
  001e5	75 1a		 jne	 SHORT $LN359@Load
  001e7	84 d2		 test	 dl, dl
  001e9	74 12		 je	 SHORT $LN360@Load
  001eb	8a 50 01	 mov	 dl, BYTE PTR [eax+1]
  001ee	3a 51 01	 cmp	 dl, BYTE PTR [ecx+1]
  001f1	75 0e		 jne	 SHORT $LN359@Load
  001f3	83 c0 02	 add	 eax, 2
  001f6	83 c1 02	 add	 ecx, 2
  001f9	84 d2		 test	 dl, dl
  001fb	75 e4		 jne	 SHORT $LL358@Load
$LN360@Load:
  001fd	33 c0		 xor	 eax, eax
  001ff	eb 05		 jmp	 SHORT $LN361@Load
$LN359@Load:
  00201	1b c0		 sbb	 eax, eax
  00203	83 c8 01	 or	 eax, 1
$LN361@Load:
  00206	85 c0		 test	 eax, eax
  00208	0f 84 2b 01 00
	00		 je	 $LN340@Load

; 360  : 				{
; 361  : 					break;
; 362  : 				}
; 363  : 
; 364  : 				RINGMONSTER_DATA pRMD;
; 365  : 
; 366  : 				pRMD.m_iType = (int)TokenNumber;

  0020e	f3 0f 2c 05 00
	00 00 00	 cvttss2si eax, DWORD PTR ?TokenNumber@@3MA
  00216	89 45 f0	 mov	 DWORD PTR _pRMD$4[ebp], eax

; 367  : 
; 368  : 				Token = GetToken();

  00219	e8 00 00 00 00	 call	 ?GetToken@@YA?AW4SMDToken@@XZ ; GetToken

; 369  : 				pRMD.m_bDoRegen = (int)TokenNumber;

  0021e	f3 0f 2c 05 00
	00 00 00	 cvttss2si eax, DWORD PTR ?TokenNumber@@3MA
  00226	89 45 f4	 mov	 DWORD PTR _pRMD$4[ebp+4], eax

; 370  : 
; 371  : 				Token= GetToken();

  00229	e8 00 00 00 00	 call	 ?GetToken@@YA?AW4SMDToken@@XZ ; GetToken

; 372  : 				pRMD.m_bDoAttackFirst = (int)TokenNumber;

  0022e	f3 0f 2c 05 00
	00 00 00	 cvttss2si eax, DWORD PTR ?TokenNumber@@3MA

; 373  : 
; 374  : 				EnterCriticalSection(&this->m_critMonsterAddData);

  00236	57		 push	 edi
  00237	89 45 f8	 mov	 DWORD PTR _pRMD$4[ebp+8], eax
  0023a	ff 15 00 00 00
	00		 call	 DWORD PTR __imp__EnterCriticalSection@4

; 375  : 				this->m_vtMonsterAddData.push_back(pRMD);

  00240	8d 45 f0	 lea	 eax, DWORD PTR _pRMD$4[ebp]
  00243	50		 push	 eax
  00244	8d 8e 04 01 00
	00		 lea	 ecx, DWORD PTR [esi+260]
  0024a	e8 00 00 00 00	 call	 ?push_back@?$vector@URINGMONSTER_DATA@@V?$allocator@URINGMONSTER_DATA@@@std@@@std@@QAEXABURINGMONSTER_DATA@@@Z ; std::vector<RINGMONSTER_DATA,std::allocator<RINGMONSTER_DATA> >::push_back

; 376  : 				LeaveCriticalSection(&this->m_critMonsterAddData);

  0024f	57		 push	 edi
  00250	ff 15 00 00 00
	00		 call	 DWORD PTR __imp__LeaveCriticalSection@4
  00256	8b 45 ec	 mov	 eax, DWORD PTR _type$1$[ebp]
  00259	e9 72 fe ff ff	 jmp	 $LL4@Load
$LN14@Load:

; 377  : 			}
; 378  : 			else if ( type == 3 )

  0025e	83 f8 03	 cmp	 eax, 3
  00261	0f 85 69 fe ff
	ff		 jne	 $LL4@Load

; 379  : 			{
; 380  : 				Token = GetToken();

  00267	e8 00 00 00 00	 call	 ?GetToken@@YA?AW4SMDToken@@XZ ; GetToken

; 381  : 
; 382  : 				if ( strcmp("end", TokenString) == 0 )

  0026c	b9 00 00 00 00	 mov	 ecx, OFFSET ?TokenString@@3PADA
  00271	b8 00 00 00 00	 mov	 eax, OFFSET ??_C@_03JBJLGPFL@end?$AA@
$LL362@Load:
  00276	8a 10		 mov	 dl, BYTE PTR [eax]
  00278	3a 11		 cmp	 dl, BYTE PTR [ecx]
  0027a	75 1a		 jne	 SHORT $LN363@Load
  0027c	84 d2		 test	 dl, dl
  0027e	74 12		 je	 SHORT $LN364@Load
  00280	8a 50 01	 mov	 dl, BYTE PTR [eax+1]
  00283	3a 51 01	 cmp	 dl, BYTE PTR [ecx+1]
  00286	75 0e		 jne	 SHORT $LN363@Load
  00288	83 c0 02	 add	 eax, 2
  0028b	83 c1 02	 add	 ecx, 2
  0028e	84 d2		 test	 dl, dl
  00290	75 e4		 jne	 SHORT $LL362@Load
$LN364@Load:
  00292	33 c0		 xor	 eax, eax
  00294	eb 05		 jmp	 SHORT $LN365@Load
$LN363@Load:
  00296	1b c0		 sbb	 eax, eax
  00298	83 c8 01	 or	 eax, 1
$LN365@Load:
  0029b	85 c0		 test	 eax, eax
  0029d	0f 84 96 00 00
	00		 je	 $LN340@Load

; 383  : 				{
; 384  : 					break;
; 385  : 				}
; 386  : 
; 387  : 				RINGMONSTER_EVENT_TIME pRET;
; 388  : 
; 389  : 				pRET.m_iHour = (int)TokenNumber;

  002a3	f3 0f 2c 35 00
	00 00 00	 cvttss2si esi, DWORD PTR ?TokenNumber@@3MA
  002ab	89 75 dc	 mov	 DWORD PTR _pRET$1[ebp], esi

; 390  : 
; 391  : 				Token = GetToken();

  002ae	e8 00 00 00 00	 call	 ?GetToken@@YA?AW4SMDToken@@XZ ; GetToken

; 392  : 				pRET.m_iMinute = (int)TokenNumber;

  002b3	f3 0f 2c 3d 00
	00 00 00	 cvttss2si edi, DWORD PTR ?TokenNumber@@3MA
; File c:\program files (x86)\microsoft visual studio 14.0\vc\include\vector

; 1616 : 		return (_Ptr < this->_Mylast() && this->_Myfirst() <= _Ptr);

  002bb	8b 43 04	 mov	 eax, DWORD PTR [ebx+4]
  002be	8d 4d dc	 lea	 ecx, DWORD PTR _pRET$1[ebp]
; File c:\users\michel\desktop\source\gameserver\source\ringattackevent.cpp

; 392  : 				pRET.m_iMinute = (int)TokenNumber;

  002c1	89 7d e0	 mov	 DWORD PTR _pRET$1[ebp+4], edi
; File c:\program files (x86)\microsoft visual studio 14.0\vc\include\vector

; 1616 : 		return (_Ptr < this->_Mylast() && this->_Myfirst() <= _Ptr);

  002c4	3b c8		 cmp	 ecx, eax
  002c6	73 45		 jae	 SHORT $LN117@Load
  002c8	8b 0b		 mov	 ecx, DWORD PTR [ebx]
  002ca	8d 55 dc	 lea	 edx, DWORD PTR _pRET$1[ebp]
  002cd	3b ca		 cmp	 ecx, edx
  002cf	77 3c		 ja	 SHORT $LN117@Load

; 1277 : 			size_type _Idx = _STD addressof(_Val) - this->_Myfirst();

  002d1	8b f2		 mov	 esi, edx
  002d3	2b f1		 sub	 esi, ecx
  002d5	c1 fe 03	 sar	 esi, 3

; 1278 : 			if (this->_Mylast() == this->_Myend())

  002d8	3b 43 08	 cmp	 eax, DWORD PTR [ebx+8]
  002db	75 09		 jne	 SHORT $LN119@Load

; 1279 : 				_Reserve(1);

  002dd	6a 01		 push	 1
  002df	8b cb		 mov	 ecx, ebx
  002e1	e8 00 00 00 00	 call	 ?_Reserve@?$vector@URINGMONSTER_EVENT_TIME@@V?$allocator@URINGMONSTER_EVENT_TIME@@@std@@@std@@IAEXI@Z ; std::vector<RINGMONSTER_EVENT_TIME,std::allocator<RINGMONSTER_EVENT_TIME> >::_Reserve
$LN119@Load:
; File c:\program files (x86)\microsoft visual studio 14.0\vc\include\xmemory0

; 655  : 		::new ((void *)_Ptr) _Objty(_STD forward<_Types>(_Args)...);

  002e6	8b 53 04	 mov	 edx, DWORD PTR [ebx+4]
  002e9	85 d2		 test	 edx, edx
  002eb	74 0e		 je	 SHORT $LN239@Load
  002ed	8b 0b		 mov	 ecx, DWORD PTR [ebx]
  002ef	8b 04 f1	 mov	 eax, DWORD PTR [ecx+esi*8]
  002f2	89 02		 mov	 DWORD PTR [edx], eax
  002f4	8b 44 f1 04	 mov	 eax, DWORD PTR [ecx+esi*8+4]
  002f8	89 42 04	 mov	 DWORD PTR [edx+4], eax
$LN239@Load:
; File c:\program files (x86)\microsoft visual studio 14.0\vc\include\vector

; 1283 : 			++this->_Mylast();

  002fb	83 43 04 08	 add	 DWORD PTR [ebx+4], 8

; 1284 : 			}
; 1285 : 		else

  002ff	8b 75 e8	 mov	 esi, DWORD PTR _this$GSCopy$1$[ebp]
  00302	8b 45 ec	 mov	 eax, DWORD PTR _type$1$[ebp]
  00305	8b 7d e4	 mov	 edi, DWORD PTR tv786[ebp]
  00308	e9 c3 fd ff ff	 jmp	 $LL4@Load
$LN117@Load:

; 1286 : 			{	// push back a non-element
; 1287 : 			if (this->_Mylast() == this->_Myend())

  0030d	3b 43 08	 cmp	 eax, DWORD PTR [ebx+8]
  00310	75 09		 jne	 SHORT $LN120@Load

; 1288 : 				_Reserve(1);

  00312	6a 01		 push	 1
  00314	8b cb		 mov	 ecx, ebx
  00316	e8 00 00 00 00	 call	 ?_Reserve@?$vector@URINGMONSTER_EVENT_TIME@@V?$allocator@URINGMONSTER_EVENT_TIME@@@std@@@std@@IAEXI@Z ; std::vector<RINGMONSTER_EVENT_TIME,std::allocator<RINGMONSTER_EVENT_TIME> >::_Reserve
$LN120@Load:
; File c:\program files (x86)\microsoft visual studio 14.0\vc\include\xmemory0

; 655  : 		::new ((void *)_Ptr) _Objty(_STD forward<_Types>(_Args)...);

  0031b	8b 43 04	 mov	 eax, DWORD PTR [ebx+4]
  0031e	85 c0		 test	 eax, eax
  00320	74 05		 je	 SHORT $LN320@Load
  00322	89 30		 mov	 DWORD PTR [eax], esi
  00324	89 78 04	 mov	 DWORD PTR [eax+4], edi
$LN320@Load:
; File c:\program files (x86)\microsoft visual studio 14.0\vc\include\vector

; 1292 : 			++this->_Mylast();

  00327	83 43 04 08	 add	 DWORD PTR [ebx+4], 8
; File c:\users\michel\desktop\source\gameserver\source\ringattackevent.cpp

; 396  : 		}

  0032b	8b 75 e8	 mov	 esi, DWORD PTR _this$GSCopy$1$[ebp]
  0032e	8b 45 ec	 mov	 eax, DWORD PTR _type$1$[ebp]
  00331	8b 7d e4	 mov	 edi, DWORD PTR tv786[ebp]
  00334	e9 97 fd ff ff	 jmp	 $LL4@Load
$LN340@Load:

; 304  : 
; 305  : 	int Token;
; 306  : 	int type = -1;
; 307  : 
; 308  : 	while ( true )
; 309  : 	{
; 310  : 		Token = GetToken();

  00339	e8 00 00 00 00	 call	 ?GetToken@@YA?AW4SMDToken@@XZ ; GetToken

; 311  : 
; 312  : 		if ( Token == 2 )

  0033e	83 f8 02	 cmp	 eax, 2
  00341	0f 85 79 fd ff
	ff		 jne	 $LL2@Load
$LN344@Load:

; 397  : 	}
; 398  : 
; 399  : 	fclose(SMDFile);

  00347	ff 35 00 00 00
	00		 push	 DWORD PTR ?SMDFile@@3PAU_iobuf@@A
  0034d	e8 00 00 00 00	 call	 _fclose

; 400  : 	LogAdd("%s file load!", lpszFileName);

  00352	ff 75 d8	 push	 DWORD PTR _lpszFileName$GSCopy$1$[ebp]
  00355	68 00 00 00 00	 push	 OFFSET ??_C@_0O@CEHBAEMJ@?$CFs?5file?5load?$CB?$AA@
  0035a	ff 15 00 00 00
	00		 call	 DWORD PTR ?LogAdd@@3P6AXPADZZA ; LogAdd

; 401  : 	this->m_bHasData = TRUE;
; 402  : 
; 403  : 	return TRUE;
; 404  : }

  00360	8b 4d fc	 mov	 ecx, DWORD PTR __$ArrayPad$[ebp]
  00363	83 c4 0c	 add	 esp, 12			; 0000000cH
  00366	c7 86 d4 00 00
	00 01 00 00 00	 mov	 DWORD PTR [esi+212], 1
  00370	33 cd		 xor	 ecx, ebp
  00372	b8 01 00 00 00	 mov	 eax, 1
  00377	5f		 pop	 edi
  00378	5e		 pop	 esi
  00379	5b		 pop	 ebx
  0037a	e8 00 00 00 00	 call	 @__security_check_cookie@4
  0037f	8b e5		 mov	 esp, ebp
  00381	5d		 pop	 ebp
  00382	c2 04 00	 ret	 4
?Load@CRingAttackEvent@@UAEHPAD@Z ENDP			; CRingAttackEvent::Load
_TEXT	ENDS
; Function compile flags: /Ogtp
; File c:\users\michel\desktop\source\gameserver\source\ringattackevent.cpp
; File c:\users\michel\desktop\source\gameserver\source\ringattackevent.h
; File c:\users\michel\desktop\source\gameserver\source\ringattackevent.cpp
;	COMDAT ?End_Menual@CRingAttackEvent@@QAEXXZ
_TEXT	SEGMENT
?End_Menual@CRingAttackEvent@@QAEXXZ PROC		; CRingAttackEvent::End_Menual, COMDAT
; _this$ = ecx
; File c:\users\michel\desktop\source\gameserver\source\ringattackevent.h

; 71   : 	void SetMenualStart(BOOL bMenualStart){this->m_bMenualStart = bMenualStart;}

  00000	c7 81 34 01 00
	00 00 00 00 00	 mov	 DWORD PTR [ecx+308], 0
; File c:\users\michel\desktop\source\gameserver\source\ringattackevent.cpp

; 807  : }

  0000a	c3		 ret	 0
?End_Menual@CRingAttackEvent@@QAEXXZ ENDP		; CRingAttackEvent::End_Menual
_TEXT	ENDS
; Function compile flags: /Ogtp
; File c:\users\michel\desktop\source\gameserver\source\ringattackevent.cpp
; File c:\users\michel\desktop\source\gameserver\source\ringattackevent.h
; File c:\users\michel\desktop\source\gameserver\source\ringattackevent.cpp
;	COMDAT ?Start_Menual@CRingAttackEvent@@QAEXXZ
_TEXT	SEGMENT
_pMsg$ = -268						; size = 6
_szTemp$ = -260						; size = 256
__$ArrayPad$ = -4					; size = 4
?Start_Menual@CRingAttackEvent@@QAEXXZ PROC		; CRingAttackEvent::Start_Menual, COMDAT
; _this$ = ecx

; 781  : {

  00000	55		 push	 ebp
  00001	8b ec		 mov	 ebp, esp
  00003	81 ec 0c 01 00
	00		 sub	 esp, 268		; 0000010cH
  00009	a1 00 00 00 00	 mov	 eax, DWORD PTR ___security_cookie
  0000e	33 c5		 xor	 eax, ebp
  00010	89 45 fc	 mov	 DWORD PTR __$ArrayPad$[ebp], eax
  00013	56		 push	 esi
  00014	8b f1		 mov	 esi, ecx
; File c:\users\michel\desktop\source\gameserver\source\ringattackevent.h

; 71   : 	void SetMenualStart(BOOL bMenualStart){this->m_bMenualStart = bMenualStart;}

  00016	c7 86 34 01 00
	00 01 00 00 00	 mov	 DWORD PTR [esi+308], 1
; File c:\users\michel\desktop\source\gameserver\source\ringattackevent.cpp

; 783  : 	this->StopEvent();

  00020	e8 00 00 00 00	 call	 ?StopEvent@CRingAttackEvent@@QAEXXZ ; CRingAttackEvent::StopEvent

; 784  : 
; 785  : 	LogAddTD("[Event Management] [Start] RingAttack Event!");

  00025	68 00 00 00 00	 push	 OFFSET ??_C@_0DB@PHNKOJF@?$KB?$NL?$KB?$NM?$FLEvent?5Management?$FN?5?$FLStart?$FN?5R@
  0002a	ff 15 00 00 00
	00		 call	 DWORD PTR ?LogAddTD@@3P6AXPADZZA ; LogAddTD
  00030	83 c4 04	 add	 esp, 4

; 786  : 	this->m_iTIME_MIN_PLAY = 30;

  00033	c7 86 e4 00 00
	00 1e 00 00 00	 mov	 DWORD PTR [esi+228], 30	; 0000001eH

; 787  : 
; 788  : 	char szTemp[256];
; 789  : 
; 790  : 	wsprintf(szTemp, lMsg.Get(MSGGET(4, 184)));

  0003d	b9 00 00 00 00	 mov	 ecx, OFFSET ?lMsg@@3VMessage@@A ; lMsg
  00042	68 b8 04 00 00	 push	 1208			; 000004b8H
  00047	e8 00 00 00 00	 call	 ?Get@Message@@QAEPADH@Z	; Message::Get
  0004c	50		 push	 eax
  0004d	8d 85 fc fe ff
	ff		 lea	 eax, DWORD PTR _szTemp$[ebp]
  00053	50		 push	 eax
  00054	ff 15 00 00 00
	00		 call	 DWORD PTR __imp__wsprintfA

; 791  : 	AllSendServerMsg(szTemp);

  0005a	8d 85 fc fe ff
	ff		 lea	 eax, DWORD PTR _szTemp$[ebp]
  00060	50		 push	 eax
  00061	e8 00 00 00 00	 call	 ?AllSendServerMsg@@YAXPAD@Z ; AllSendServerMsg

; 792  : 
; 793  : 	PMSG_ANS_CL_EFFECT pMsg;
; 794  : 
; 795  : 	PHeadSetB((LPBYTE)&pMsg, 0x9E, sizeof(pMsg));

  00066	6a 06		 push	 6
  00068	8d 85 f4 fe ff
	ff		 lea	 eax, DWORD PTR _pMsg$[ebp]
  0006e	68 9e 00 00 00	 push	 158			; 0000009eH
  00073	50		 push	 eax
  00074	e8 00 00 00 00	 call	 ?PHeadSetB@@YAXPAEEH@Z	; PHeadSetB

; 796  : 	pMsg.wEffectNum = 1;

  00079	b8 01 00 00 00	 mov	 eax, 1
  0007e	66 89 85 f8 fe
	ff ff		 mov	 WORD PTR _pMsg$[ebp+4], ax

; 797  : 
; 798  : 	DataSendAll((LPBYTE)&pMsg, pMsg.h.size);

  00085	0f b6 85 f5 fe
	ff ff		 movzx	 eax, BYTE PTR _pMsg$[ebp+1]
  0008c	50		 push	 eax
  0008d	8d 85 f4 fe ff
	ff		 lea	 eax, DWORD PTR _pMsg$[ebp]
  00093	50		 push	 eax
  00094	e8 00 00 00 00	 call	 ?DataSendAll@@YAXPAEH@Z	; DataSendAll
  00099	83 c4 20	 add	 esp, 32			; 00000020H

; 799  : 	this->SetState(2);

  0009c	8b ce		 mov	 ecx, esi
  0009e	6a 02		 push	 2
  000a0	e8 00 00 00 00	 call	 ?SetState@CRingAttackEvent@@QAEXH@Z ; CRingAttackEvent::SetState

; 800  : }

  000a5	8b 4d fc	 mov	 ecx, DWORD PTR __$ArrayPad$[ebp]
  000a8	33 cd		 xor	 ecx, ebp
  000aa	5e		 pop	 esi
  000ab	e8 00 00 00 00	 call	 @__security_check_cookie@4
  000b0	8b e5		 mov	 esp, ebp
  000b2	5d		 pop	 ebp
  000b3	c3		 ret	 0
?Start_Menual@CRingAttackEvent@@QAEXXZ ENDP		; CRingAttackEvent::Start_Menual
_TEXT	ENDS
; Function compile flags: /Ogtp
; File c:\users\michel\desktop\source\gameserver\source\ringattackevent.h
;	COMDAT ?SetMenualStart@CRingAttackEvent@@QAEXH@Z
_TEXT	SEGMENT
_bMenualStart$ = 8					; size = 4
?SetMenualStart@CRingAttackEvent@@QAEXH@Z PROC		; CRingAttackEvent::SetMenualStart, COMDAT
; _this$ = ecx

; 71   : 	void SetMenualStart(BOOL bMenualStart){this->m_bMenualStart = bMenualStart;}

  00000	55		 push	 ebp
  00001	8b ec		 mov	 ebp, esp
  00003	8b 45 08	 mov	 eax, DWORD PTR _bMenualStart$[ebp]
  00006	89 81 34 01 00
	00		 mov	 DWORD PTR [ecx+308], eax
  0000c	5d		 pop	 ebp
  0000d	c2 04 00	 ret	 4
?SetMenualStart@CRingAttackEvent@@QAEXH@Z ENDP		; CRingAttackEvent::SetMenualStart
_TEXT	ENDS
; Function compile flags: /Ogtp
; File c:\users\michel\desktop\source\gameserver\source\ringattackevent.cpp
;	COMDAT ?Move@CRingAttackEvent@@QAEXXZ
_TEXT	SEGMENT
_iCount$1$ = -28					; size = 4
tv478 = -24						; size = 4
tv480 = -20						; size = 4
_iRandY$1 = -16						; size = 1
_this$1$ = -12						; size = 4
_iRandX$2 = -6						; size = 1
_iCY$3 = -2						; size = 1
_iCX$4 = -1						; size = 1
?Move@CRingAttackEvent@@QAEXXZ PROC			; CRingAttackEvent::Move, COMDAT
; _this$ = ecx

; 725  : {

  00000	55		 push	 ebp
  00001	8b ec		 mov	 ebp, esp
  00003	83 ec 1c	 sub	 esp, 28			; 0000001cH
  00006	8b c1		 mov	 eax, ecx
  00008	89 45 f4	 mov	 DWORD PTR _this$1$[ebp], eax

; 726  : 	if ( this->m_bDoEvent )

  0000b	83 b8 d0 00 00
	00 00		 cmp	 DWORD PTR [eax+208], 0
  00012	0f 84 5a 01 00
	00		 je	 $LN33@Move

; 727  : 	{
; 728  : 		if ( this->m_bMonsterToDest )

  00018	83 b8 d8 00 00
	00 00		 cmp	 DWORD PTR [eax+216], 0
  0001f	0f 85 4d 01 00
	00		 jne	 $LN33@Move

; 729  : 			return;
; 730  : 
; 731  : 		BYTE iRandX;
; 732  : 		BYTE iRandY;
; 733  : 		BYTE iCX;
; 734  : 		BYTE iCY;
; 735  : 
; 736  : 		for ( int i=0;i<MAX_RINGMONSTER_MAP;i++)

  00025	56		 push	 esi
  00026	57		 push	 edi
  00027	8d 78 04	 lea	 edi, DWORD PTR [eax+4]
  0002a	c7 45 ec 00 00
	00 00		 mov	 DWORD PTR tv480[ebp], OFFSET ?g_RingEventMapNum@@3PAHA
  00031	be 08 00 00 00	 mov	 esi, OFFSET ?g_RingMapPosition@@3PAY03HA+8
  00036	89 7d e8	 mov	 DWORD PTR tv478[ebp], edi
  00039	53		 push	 ebx
  0003a	66 0f 1f 44 00
	00		 npad	 6
$LL4@Move:

; 737  : 		{
; 738  : 			int iCount = 1000;
; 739  : 
; 740  : 			if ( this->m_RingMonsterHerd[i].GetCurrentLocation(iCX, iCY) == FALSE )

  00040	8b 07		 mov	 eax, DWORD PTR [edi]
  00042	8d 4d fe	 lea	 ecx, DWORD PTR _iCY$3[ebp]
  00045	51		 push	 ecx
  00046	8d 4d ff	 lea	 ecx, DWORD PTR _iCX$4[ebp]
  00049	bb e8 03 00 00	 mov	 ebx, 1000		; 000003e8H
  0004e	51		 push	 ecx
  0004f	8b cf		 mov	 ecx, edi
  00051	ff 50 20	 call	 DWORD PTR [eax+32]
  00054	85 c0		 test	 eax, eax
  00056	0f 84 13 01 00
	00		 je	 $LN36@Move
  0005c	0f 1f 40 00	 npad	 4
$LL5@Move:

; 741  : 				return;
; 742  : 
; 743  : 			while ( iCount-- != 0 )

  00060	4b		 dec	 ebx
  00061	89 5d e4	 mov	 DWORD PTR _iCount$1$[ebp], ebx

; 744  : 			{
; 745  : 				iRandX = (rand() % this->m_iMOVE_RAND_SIZE) * ( (rand() % 3 -1) * -1 ) + iCX;

  00064	e8 00 00 00 00	 call	 _rand
  00069	8b 4d f4	 mov	 ecx, DWORD PTR _this$1$[ebp]
  0006c	99		 cdq
  0006d	f7 b9 f8 00 00
	00		 idiv	 DWORD PTR [ecx+248]
  00073	8b da		 mov	 ebx, edx
  00075	e8 00 00 00 00	 call	 _rand
  0007a	99		 cdq
  0007b	b9 03 00 00 00	 mov	 ecx, 3
  00080	f7 f9		 idiv	 ecx
  00082	0f b6 c3	 movzx	 eax, bl
  00085	fe ca		 dec	 dl
  00087	0f b6 ca	 movzx	 ecx, dl
  0008a	0f af c8	 imul	 ecx, eax
  0008d	0f b6 45 ff	 movzx	 eax, BYTE PTR _iCX$4[ebp]
  00091	2a c1		 sub	 al, cl
  00093	88 45 fa	 mov	 BYTE PTR _iRandX$2[ebp], al

; 746  : 				iRandY = (rand() % this->m_iMOVE_RAND_SIZE) * ( (rand() % 3 -1) * -1 ) + iCY;

  00096	e8 00 00 00 00	 call	 _rand
  0009b	8b 4d f4	 mov	 ecx, DWORD PTR _this$1$[ebp]
  0009e	99		 cdq
  0009f	f7 b9 f8 00 00
	00		 idiv	 DWORD PTR [ecx+248]
  000a5	8b da		 mov	 ebx, edx
  000a7	e8 00 00 00 00	 call	 _rand
  000ac	99		 cdq
  000ad	b9 03 00 00 00	 mov	 ecx, 3
  000b2	f7 f9		 idiv	 ecx
  000b4	0f b6 c3	 movzx	 eax, bl
  000b7	fe ca		 dec	 dl
  000b9	0f b6 ca	 movzx	 ecx, dl
  000bc	0f af c8	 imul	 ecx, eax
  000bf	8a 45 fe	 mov	 al, BYTE PTR _iCY$3[ebp]
  000c2	2a c1		 sub	 al, cl

; 747  : 
; 748  : 				if ( iRandX < g_RingMapPosition[i][0] || iRandX > g_RingMapPosition[i][2] )

  000c4	0f b6 4d fa	 movzx	 ecx, BYTE PTR _iRandX$2[ebp]
  000c8	88 45 f0	 mov	 BYTE PTR _iRandY$1[ebp], al
  000cb	3b 4e f8	 cmp	 ecx, DWORD PTR [esi-8]
  000ce	7c 24		 jl	 SHORT $LN13@Move
  000d0	3b 0e		 cmp	 ecx, DWORD PTR [esi]
  000d2	7f 20		 jg	 SHORT $LN13@Move

; 749  : 					continue;
; 750  : 
; 751  : 				if ( iRandY < g_RingMapPosition[i][1] || iRandY > g_RingMapPosition[i][3] )

  000d4	0f b6 c0	 movzx	 eax, al
  000d7	3b 46 fc	 cmp	 eax, DWORD PTR [esi-4]
  000da	7c 18		 jl	 SHORT $LN13@Move
  000dc	3b 46 04	 cmp	 eax, DWORD PTR [esi+4]
  000df	7f 13		 jg	 SHORT $LN13@Move

; 752  : 					continue;
; 753  : 
; 754  : 				if ( this->m_RingMonsterHerd[i].CheckLocation(iRandX, iRandY) != FALSE )

  000e1	8b 07		 mov	 eax, DWORD PTR [edi]
  000e3	8d 4d f0	 lea	 ecx, DWORD PTR _iRandY$1[ebp]
  000e6	51		 push	 ecx
  000e7	8d 4d fa	 lea	 ecx, DWORD PTR _iRandX$2[ebp]
  000ea	51		 push	 ecx
  000eb	8b cf		 mov	 ecx, edi
  000ed	ff 50 28	 call	 DWORD PTR [eax+40]
  000f0	85 c0		 test	 eax, eax
  000f2	75 0b		 jne	 SHORT $LN23@Move
$LN13@Move:

; 741  : 				return;
; 742  : 
; 743  : 			while ( iCount-- != 0 )

  000f4	8b 5d e4	 mov	 ebx, DWORD PTR _iCount$1$[ebp]
  000f7	85 db		 test	 ebx, ebx
  000f9	0f 85 61 ff ff
	ff		 jne	 $LL5@Move
$LN23@Move:

; 755  : 					break;
; 756  : 			}
; 757  : 
; 758  : 			if ( this->m_RingMonsterHerd[i].MoveHerd(iRandX, iRandY) != FALSE )

  000ff	ff 75 f0	 push	 DWORD PTR _iRandY$1[ebp]
  00102	8b 07		 mov	 eax, DWORD PTR [edi]
  00104	8b cf		 mov	 ecx, edi
  00106	ff 75 fa	 push	 DWORD PTR _iRandX$2[ebp]
  00109	ff 50 2c	 call	 DWORD PTR [eax+44]
  0010c	85 c0		 test	 eax, eax
  0010e	74 1d		 je	 SHORT $LN15@Move

; 759  : 			{
; 760  : 				LogAddTD("[Ring Event] - Monster Herd Move MapNumber:%d, X:%d, Y:%d",

  00110	0f b6 45 f0	 movzx	 eax, BYTE PTR _iRandY$1[ebp]
  00114	50		 push	 eax
  00115	0f b6 45 fa	 movzx	 eax, BYTE PTR _iRandX$2[ebp]
  00119	50		 push	 eax
  0011a	8b 45 ec	 mov	 eax, DWORD PTR tv480[ebp]
  0011d	ff 30		 push	 DWORD PTR [eax]
  0011f	68 00 00 00 00	 push	 OFFSET ??_C@_0DK@PFGAPPAF@?$FLRing?5Event?$FN?5?9?5Monster?5Herd?5Move@
  00124	ff 15 00 00 00
	00		 call	 DWORD PTR ?LogAddTD@@3P6AXPADZZA ; LogAddTD
  0012a	83 c4 10	 add	 esp, 16			; 00000010H
$LN15@Move:

; 761  : 					g_RingEventMapNum[i], iRandX, iRandY);
; 762  : 			}
; 763  : 
; 764  : 			int iDIVIDE = this->m_iRADIUS_MAX - this->m_iRADIUS_MIN;
; 765  : 
; 766  : 			if ( iDIVIDE <= 0 )
; 767  : 				iDIVIDE = 1;
; 768  : 
; 769  : 			int iRADIUS = iDIVIDE + this->m_iRADIUS_MIN;
; 770  : 
; 771  : 			if ( iRADIUS <= 3 )
; 772  : 				iRADIUS = 3;
; 773  : 
; 774  : 			this->m_RingMonsterHerd[i].SetRadius((rand() % (this->m_iRADIUS_MAX - this->m_iRADIUS_MIN)) + this->m_iRADIUS_MIN);

  0012d	8b 45 f4	 mov	 eax, DWORD PTR _this$1$[ebp]
  00130	8b 1f		 mov	 ebx, DWORD PTR [edi]
  00132	8b b8 fc 00 00
	00		 mov	 edi, DWORD PTR [eax+252]
  00138	e8 00 00 00 00	 call	 _rand
  0013d	8b 4d f4	 mov	 ecx, DWORD PTR _this$1$[ebp]
  00140	99		 cdq
  00141	8b 89 00 01 00
	00		 mov	 ecx, DWORD PTR [ecx+256]
  00147	2b cf		 sub	 ecx, edi
  00149	f7 f9		 idiv	 ecx
  0014b	03 d7		 add	 edx, edi
  0014d	8b 7d e8	 mov	 edi, DWORD PTR tv478[ebp]
  00150	52		 push	 edx
  00151	8b cf		 mov	 ecx, edi
  00153	ff 53 0c	 call	 DWORD PTR [ebx+12]
  00156	83 45 ec 04	 add	 DWORD PTR tv480[ebp], 4
  0015a	83 c6 10	 add	 esi, 16			; 00000010H
  0015d	83 c7 44	 add	 edi, 68			; 00000044H
  00160	89 7d e8	 mov	 DWORD PTR tv478[ebp], edi
  00163	81 fe 38 00 00
	00		 cmp	 esi, OFFSET ?g_RingMapPosition@@3PAY03HA+56
  00169	0f 8c d1 fe ff
	ff		 jl	 $LL4@Move
$LN36@Move:
  0016f	5b		 pop	 ebx
  00170	5f		 pop	 edi
  00171	5e		 pop	 esi
$LN33@Move:

; 775  : 		}
; 776  : 	}
; 777  : }

  00172	8b e5		 mov	 esp, ebp
  00174	5d		 pop	 ebp
  00175	c3		 ret	 0
?Move@CRingAttackEvent@@QAEXXZ ENDP			; CRingAttackEvent::Move
_TEXT	ENDS
; Function compile flags: /Ogtp
; File c:\users\michel\desktop\source\gameserver\source\ringattackevent.cpp
;	COMDAT ?SetState_Playing@CRingAttackEvent@@QAEXXZ
_TEXT	SEGMENT
?SetState_Playing@CRingAttackEvent@@QAEXXZ PROC		; CRingAttackEvent::SetState_Playing, COMDAT
; _this$ = ecx

; 719  : 	this->m_iTIME_MSEC_REMAIN = this->m_iTIME_MIN_PLAY * 60 * 1000;

  00000	69 81 e4 00 00
	00 60 ea 00 00	 imul	 eax, DWORD PTR [ecx+228], 60000
  0000a	89 81 dc 00 00
	00		 mov	 DWORD PTR [ecx+220], eax

; 720  : 	this->StartEvent();

  00010	e9 00 00 00 00	 jmp	 ?StartEvent@CRingAttackEvent@@QAEXXZ ; CRingAttackEvent::StartEvent
?SetState_Playing@CRingAttackEvent@@QAEXXZ ENDP		; CRingAttackEvent::SetState_Playing
_TEXT	ENDS
; Function compile flags: /Ogtp
; File c:\users\michel\desktop\source\gameserver\source\ringattackevent.cpp
;	COMDAT ?SetState_Closed@CRingAttackEvent@@QAEXXZ
_TEXT	SEGMENT
?SetState_Closed@CRingAttackEvent@@QAEXXZ PROC		; CRingAttackEvent::SetState_Closed, COMDAT
; _this$ = ecx

; 703  : {

  00000	56		 push	 esi
  00001	8b f1		 mov	 esi, ecx

; 704  : 	this->StopEvent();

  00003	e8 00 00 00 00	 call	 ?StopEvent@CRingAttackEvent@@QAEXXZ ; CRingAttackEvent::StopEvent

; 705  : 
; 706  : 	if ( this->m_bDoEvent )

  00008	83 be d0 00 00
	00 00		 cmp	 DWORD PTR [esi+208], 0

; 707  : 	{
; 708  : 		this->CheckSync();

  0000f	8b ce		 mov	 ecx, esi
  00011	74 06		 je	 SHORT $LN2@SetState_C
  00013	5e		 pop	 esi
  00014	e9 00 00 00 00	 jmp	 ?CheckSync@CRingAttackEvent@@QAEXXZ ; CRingAttackEvent::CheckSync
$LN2@SetState_C:

; 709  : 	}
; 710  : 	else
; 711  : 	{
; 712  : 		this->SetState(0);

  00019	6a 00		 push	 0
  0001b	e8 00 00 00 00	 call	 ?SetState@CRingAttackEvent@@QAEXH@Z ; CRingAttackEvent::SetState
  00020	5e		 pop	 esi

; 713  : 	}
; 714  : }

  00021	c3		 ret	 0
?SetState_Closed@CRingAttackEvent@@QAEXXZ ENDP		; CRingAttackEvent::SetState_Closed
_TEXT	ENDS
; Function compile flags: /Ogtp
; File c:\users\michel\desktop\source\gameserver\source\ringattackevent.cpp
;	COMDAT ?SetState_None@CRingAttackEvent@@QAEXXZ
_TEXT	SEGMENT
?SetState_None@CRingAttackEvent@@QAEXXZ PROC		; CRingAttackEvent::SetState_None, COMDAT
; _this$ = ecx

; 698  : 	this->StopEvent();

  00000	e9 00 00 00 00	 jmp	 ?StopEvent@CRingAttackEvent@@QAEXXZ ; CRingAttackEvent::StopEvent
?SetState_None@CRingAttackEvent@@QAEXXZ ENDP		; CRingAttackEvent::SetState_None
_TEXT	ENDS
; Function compile flags: /Ogtp
; File c:\users\michel\desktop\source\gameserver\source\ringattackevent.cpp
;	COMDAT ?ProcState_Playing@CRingAttackEvent@@QAEXXZ
_TEXT	SEGMENT
_this$GSCopy$1$ = -272					; size = 4
_pMsg$1 = -272						; size = 6
_iRandX$2 = -270					; size = 1
tv705 = -264						; size = 4
_iRandY$3 = -264					; size = 1
_szTemp$4 = -260					; size = 256
__$ArrayPad$ = -4					; size = 4
?ProcState_Playing@CRingAttackEvent@@QAEXXZ PROC	; CRingAttackEvent::ProcState_Playing, COMDAT
; _this$ = ecx

; 603  : {

  00000	55		 push	 ebp
  00001	8b ec		 mov	 ebp, esp
  00003	81 ec 10 01 00
	00		 sub	 esp, 272		; 00000110H
  00009	a1 00 00 00 00	 mov	 eax, DWORD PTR ___security_cookie
  0000e	33 c5		 xor	 eax, ebp
  00010	89 45 fc	 mov	 DWORD PTR __$ArrayPad$[ebp], eax
  00013	53		 push	 ebx
  00014	8b d9		 mov	 ebx, ecx
  00016	56		 push	 esi

; 604  : 	int iTICK_MSEC = GetTickCount() - this->m_iTIME_TICK_COUNT;

  00017	8b 35 00 00 00
	00		 mov	 esi, DWORD PTR __imp__GetTickCount@0
  0001d	89 9d f0 fe ff
	ff		 mov	 DWORD PTR _this$GSCopy$1$[ebp], ebx
  00023	ff d6		 call	 esi
  00025	2b 83 ec 00 00
	00		 sub	 eax, DWORD PTR [ebx+236]

; 605  : 
; 606  : 	if ( iTICK_MSEC >= 1000 )

  0002b	3d e8 03 00 00	 cmp	 eax, 1000		; 000003e8H
  00030	7c 26		 jl	 SHORT $LN12@ProcState_

; 607  : 	{
; 608  : 		this->m_iTIME_MSEC_REMAIN -= iTICK_MSEC;

  00032	29 83 dc 00 00
	00		 sub	 DWORD PTR [ebx+220], eax

; 609  : 		this->m_iTIME_TICK_COUNT = GetTickCount();

  00038	ff d6		 call	 esi
  0003a	89 83 ec 00 00
	00		 mov	 DWORD PTR [ebx+236], eax

; 610  : 
; 611  : 		if ( (rand()%10) == 0 )

  00040	e8 00 00 00 00	 call	 _rand
  00045	99		 cdq
  00046	b9 0a 00 00 00	 mov	 ecx, 10			; 0000000aH
  0004b	f7 f9		 idiv	 ecx
  0004d	85 d2		 test	 edx, edx
  0004f	75 07		 jne	 SHORT $LN12@ProcState_

; 612  : 		{
; 613  : 			this->Move();

  00051	8b cb		 mov	 ecx, ebx
  00053	e8 00 00 00 00	 call	 ?Move@CRingAttackEvent@@QAEXXZ ; CRingAttackEvent::Move
$LN12@ProcState_:

; 614  : 		}
; 615  : 	}
; 616  : 
; 617  : 	static int s_iTIME_REMAIN = -1;
; 618  : 
; 619  : 	if ( ((this->m_iTIME_MSEC_REMAIN / 1000 ) % 30 ) == 0 && ((this->m_iTIME_MSEC_REMAIN / 1000) / 30) != s_iTIME_REMAIN  )

  00058	b8 d3 4d 62 10	 mov	 eax, 274877907		; 10624dd3H
  0005d	b9 1e 00 00 00	 mov	 ecx, 30			; 0000001eH
  00062	f7 ab dc 00 00
	00		 imul	 DWORD PTR [ebx+220]
  00068	57		 push	 edi
  00069	c1 fa 06	 sar	 edx, 6
  0006c	8b c2		 mov	 eax, edx
  0006e	c1 e8 1f	 shr	 eax, 31			; 0000001fH
  00071	03 c2		 add	 eax, edx
  00073	99		 cdq
  00074	f7 f9		 idiv	 ecx
  00076	85 d2		 test	 edx, edx
  00078	0f 85 a8 00 00
	00		 jne	 $LN3@ProcState_
  0007e	3b 05 00 00 00
	00		 cmp	 eax, DWORD PTR ?s_iTIME_REMAIN@?1??ProcState_Playing@CRingAttackEvent@@QAEXXZ@4HA
  00084	0f 84 9c 00 00
	00		 je	 $LN3@ProcState_

; 620  : 	{
; 621  : 		s_iTIME_REMAIN = this->m_iTIME_MSEC_REMAIN / 1000 / 30;

  0008a	a3 00 00 00 00	 mov	 DWORD PTR ?s_iTIME_REMAIN@?1??ProcState_Playing@CRingAttackEvent@@QAEXXZ@4HA, eax
  0008f	bf 00 00 00 00	 mov	 edi, OFFSET ?g_RingEventMapNum@@3PAHA
  00094	8d 43 10	 lea	 eax, DWORD PTR [ebx+16]
  00097	b9 87 00 00 00	 mov	 ecx, 135		; 00000087H
  0009c	89 85 f8 fe ff
	ff		 mov	 DWORD PTR tv705[ebp], eax
$LL4@ProcState_:

; 622  : 
; 623  : 		for ( int i=0;i<MAX_RINGMONSTER_MAP;i++)
; 624  : 		{
; 625  : 			BOOL bLive = FALSE;

  000a2	a1 00 00 00 00	 mov	 eax, DWORD PTR ?gObj@@3PAUOBJECTSTRUCT@@A ; gObj
  000a7	33 d2		 xor	 edx, edx
  000a9	05 78 14 00 00	 add	 eax, 5240		; 00001478H
  000ae	be 04 29 00 00	 mov	 esi, 10500		; 00002904H
  000b3	8d 5a 01	 lea	 ebx, DWORD PTR [edx+1]
$LL7@ProcState_:

; 628  : 			{
; 629  : 				if ( gObj[n].Class == 135 )

  000b6	66 39 88 18 ec
	ff ff		 cmp	 WORD PTR [eax-5096], cx
  000bd	75 1f		 jne	 SHORT $LN5@ProcState_

; 630  : 				{
; 631  : 					if ( gObj[n].m_bIsInMonsterHerd )

  000bf	83 38 00	 cmp	 DWORD PTR [eax], 0
  000c2	74 1a		 je	 SHORT $LN5@ProcState_

; 632  : 					{
; 633  : 						if ( gObj[n].Live && gObj[n].MapNumber == g_RingEventMapNum[i] )

  000c4	80 b8 d9 eb ff
	ff 00		 cmp	 BYTE PTR [eax-5159], 0
  000cb	74 11		 je	 SHORT $LN5@ProcState_
  000cd	0f b6 88 ab ec
	ff ff		 movzx	 ecx, BYTE PTR [eax-4949]
  000d4	3b 0f		 cmp	 ecx, DWORD PTR [edi]
  000d6	b9 87 00 00 00	 mov	 ecx, 135		; 00000087H
  000db	0f 44 d3	 cmove	 edx, ebx
$LN5@ProcState_:

; 626  : 
; 627  : 			for ( int n=0;n<OBJ_STARTUSERINDEX;n++)

  000de	05 40 27 00 00	 add	 eax, 10048		; 00002740H
  000e3	2b f3		 sub	 esi, ebx
  000e5	75 cf		 jne	 SHORT $LL7@ProcState_

; 634  : 						{
; 635  : 							bLive = TRUE;
; 636  : 						}
; 637  : 					}
; 638  : 				}
; 639  : 			}
; 640  : 
; 641  : 			LogAddTD("[Ring Event] - per 30'S Inform MapNumber:%d, X:%d, Y:%d, Boss Live:%d",

  000e7	8b 9d f8 fe ff
	ff		 mov	 ebx, DWORD PTR tv705[ebp]
  000ed	52		 push	 edx
  000ee	0f b6 43 04	 movzx	 eax, BYTE PTR [ebx+4]
  000f2	50		 push	 eax
  000f3	0f b6 03	 movzx	 eax, BYTE PTR [ebx]
  000f6	50		 push	 eax
  000f7	ff 37		 push	 DWORD PTR [edi]
  000f9	68 00 00 00 00	 push	 OFFSET ??_C@_0EG@MJJALBNB@?$FLRing?5Event?$FN?5?9?5per?530?8S?5Inform?5M@
  000fe	ff 15 00 00 00
	00		 call	 DWORD PTR ?LogAddTD@@3P6AXPADZZA ; LogAddTD
  00104	83 c3 44	 add	 ebx, 68			; 00000044H
  00107	83 c7 04	 add	 edi, 4
  0010a	83 c4 14	 add	 esp, 20			; 00000014H
  0010d	89 9d f8 fe ff
	ff		 mov	 DWORD PTR tv705[ebp], ebx
  00113	b9 87 00 00 00	 mov	 ecx, 135		; 00000087H
  00118	81 ff 0c 00 00
	00		 cmp	 edi, OFFSET ?g_RingEventMapNum@@3PAHA+12
  0011e	7c 82		 jl	 SHORT $LL4@ProcState_
  00120	8b 9d f0 fe ff
	ff		 mov	 ebx, DWORD PTR _this$GSCopy$1$[ebp]
$LN3@ProcState_:

; 642  : 				g_RingEventMapNum[i], this->m_RingMonsterHerd[i].GetX(), this->m_RingMonsterHerd[i].GetY(), bLive);
; 643  : 		}
; 644  : 	}
; 645  : 
; 646  : 	if ( this->m_iTIME_MSEC_REMAIN <= (this->m_iTIME_MONSTER_TO_DEST * 60 * 1000) && this->m_bMonsterToDest == FALSE )

  00126	69 83 e8 00 00
	00 60 ea 00 00	 imul	 eax, DWORD PTR [ebx+232], 60000
  00130	39 83 dc 00 00
	00		 cmp	 DWORD PTR [ebx+220], eax
  00136	0f 8f 94 00 00
	00		 jg	 $LN17@ProcState_
  0013c	83 bb d8 00 00
	00 00		 cmp	 DWORD PTR [ebx+216], 0
  00143	0f 85 87 00 00
	00		 jne	 $LN17@ProcState_

; 647  : 	{
; 648  : 		
; 649  : 		for ( int i=0;i<MAX_RINGMONSTER_MAP;i++)

  00149	33 f6		 xor	 esi, esi
  0014b	8d 7b 04	 lea	 edi, DWORD PTR [ebx+4]
  0014e	66 90		 npad	 2
$LL10@ProcState_:

; 650  : 		{
; 651  : 			BYTE iRandX;
; 652  : 			BYTE iRandY;
; 653  : 			BYTE ucRAND;
; 654  : 
; 655  : 			ucRAND = rand()%4;

  00150	e8 00 00 00 00	 call	 _rand
  00155	25 03 00 00 80	 and	 eax, -2147483645	; 80000003H
  0015a	79 05		 jns	 SHORT $LN39@ProcState_
  0015c	48		 dec	 eax
  0015d	83 c8 fc	 or	 eax, -4			; fffffffcH
  00160	40		 inc	 eax
$LN39@ProcState_:

; 656  : 			iRandX = g_RingMapDestPosition[i][ucRAND*2];

  00161	0f b6 c0	 movzx	 eax, al
  00164	03 c6		 add	 eax, esi
  00166	8a 0c c5 00 00
	00 00		 mov	 cl, BYTE PTR ?g_RingMapDestPosition@@3PAY07HA[eax*8]

; 657  : 			iRandY = g_RingMapDestPosition[i][ucRAND*2+1];

  0016d	8a 04 c5 04 00
	00 00		 mov	 al, BYTE PTR ?g_RingMapDestPosition@@3PAY07HA[eax*8+4]
  00174	88 85 f8 fe ff
	ff		 mov	 BYTE PTR _iRandY$3[ebp], al

; 658  : 
; 659  : 			if ( this->m_RingMonsterHerd[i].MoveHerd(iRandX, iRandY) != FALSE )

  0017a	ff b5 f8 fe ff
	ff		 push	 DWORD PTR _iRandY$3[ebp]
  00180	8b 07		 mov	 eax, DWORD PTR [edi]
  00182	88 8d f2 fe ff
	ff		 mov	 BYTE PTR _iRandX$2[ebp], cl
  00188	8b cf		 mov	 ecx, edi
  0018a	ff b5 f2 fe ff
	ff		 push	 DWORD PTR _iRandX$2[ebp]
  00190	ff 50 2c	 call	 DWORD PTR [eax+44]
  00193	85 c0		 test	 eax, eax
  00195	74 24		 je	 SHORT $LN8@ProcState_

; 660  : 			{
; 661  : 				LogAddTD("[Ring Event] - Monster Herd Move MapNumber:%d, X:%d, Y:%d",

  00197	0f b6 85 f8 fe
	ff ff		 movzx	 eax, BYTE PTR _iRandY$3[ebp]
  0019e	50		 push	 eax
  0019f	0f b6 85 f2 fe
	ff ff		 movzx	 eax, BYTE PTR _iRandX$2[ebp]
  001a6	50		 push	 eax
  001a7	ff b6 00 00 00
	00		 push	 DWORD PTR ?g_RingEventMapNum@@3PAHA[esi]
  001ad	68 00 00 00 00	 push	 OFFSET ??_C@_0DK@PFGAPPAF@?$FLRing?5Event?$FN?5?9?5Monster?5Herd?5Move@
  001b2	ff 15 00 00 00
	00		 call	 DWORD PTR ?LogAddTD@@3P6AXPADZZA ; LogAddTD
  001b8	83 c4 10	 add	 esp, 16			; 00000010H
$LN8@ProcState_:

; 647  : 	{
; 648  : 		
; 649  : 		for ( int i=0;i<MAX_RINGMONSTER_MAP;i++)

  001bb	83 c6 04	 add	 esi, 4
  001be	83 c7 44	 add	 edi, 68			; 00000044H
  001c1	83 fe 0c	 cmp	 esi, 12			; 0000000cH
  001c4	7c 8a		 jl	 SHORT $LL10@ProcState_

; 662  : 					g_RingEventMapNum[i], iRandX, iRandY);
; 663  : 			}
; 664  : 		}
; 665  : 
; 666  : 		this->m_bMonsterToDest = TRUE;

  001c6	c7 83 d8 00 00
	00 01 00 00 00	 mov	 DWORD PTR [ebx+216], 1
$LN17@ProcState_:

; 667  : 	}
; 668  : 
; 669  : 	if ( this->m_iTIME_MSEC_REMAIN <= 0 )

  001d0	83 bb dc 00 00
	00 00		 cmp	 DWORD PTR [ebx+220], 0
  001d7	5f		 pop	 edi
  001d8	0f 8f 83 00 00
	00		 jg	 $LN19@ProcState_

; 670  : 	{
; 671  : 		char szTemp[256];
; 672  : 		wsprintf(szTemp, lMsg.Get(MSGGET(4, 185)));

  001de	68 b9 04 00 00	 push	 1209			; 000004b9H
  001e3	b9 00 00 00 00	 mov	 ecx, OFFSET ?lMsg@@3VMessage@@A ; lMsg
  001e8	e8 00 00 00 00	 call	 ?Get@Message@@QAEPADH@Z	; Message::Get
  001ed	50		 push	 eax
  001ee	8d 85 fc fe ff
	ff		 lea	 eax, DWORD PTR _szTemp$4[ebp]
  001f4	50		 push	 eax
  001f5	ff 15 00 00 00
	00		 call	 DWORD PTR __imp__wsprintfA

; 673  : 		AllSendServerMsg(szTemp);

  001fb	8d 85 fc fe ff
	ff		 lea	 eax, DWORD PTR _szTemp$4[ebp]
  00201	50		 push	 eax
  00202	e8 00 00 00 00	 call	 ?AllSendServerMsg@@YAXPAD@Z ; AllSendServerMsg

; 674  : 
; 675  : 		PMSG_ANS_CL_EFFECT pMsg;
; 676  : 
; 677  : 		PHeadSetB((LPBYTE)&pMsg, 0x9E, sizeof(pMsg));

  00207	6a 06		 push	 6
  00209	8d 85 f0 fe ff
	ff		 lea	 eax, DWORD PTR _pMsg$1[ebp]
  0020f	68 9e 00 00 00	 push	 158			; 0000009eH
  00214	50		 push	 eax
  00215	e8 00 00 00 00	 call	 ?PHeadSetB@@YAXPAEEH@Z	; PHeadSetB

; 678  : 		pMsg.wEffectNum = 2;

  0021a	b8 02 00 00 00	 mov	 eax, 2
  0021f	66 89 85 f4 fe
	ff ff		 mov	 WORD PTR _pMsg$1[ebp+4], ax

; 679  : 
; 680  : 		DataSendAll((LPBYTE)&pMsg, pMsg.h.size);

  00226	0f b6 85 f1 fe
	ff ff		 movzx	 eax, BYTE PTR _pMsg$1[ebp+1]
  0022d	50		 push	 eax
  0022e	8d 85 f0 fe ff
	ff		 lea	 eax, DWORD PTR _pMsg$1[ebp]
  00234	50		 push	 eax
  00235	e8 00 00 00 00	 call	 ?DataSendAll@@YAXPAEH@Z	; DataSendAll
  0023a	83 c4 20	 add	 esp, 32			; 00000020H

; 681  : 
; 682  : 		if ( this->m_bDoEvent )
; 683  : 		{
; 684  : 			this->SetState(1);

  0023d	8b cb		 mov	 ecx, ebx
  0023f	83 bb d0 00 00
	00 00		 cmp	 DWORD PTR [ebx+208], 0
  00246	74 04		 je	 SHORT $LN20@ProcState_
  00248	6a 01		 push	 1

; 685  : 		}
; 686  : 		else

  0024a	eb 02		 jmp	 SHORT $LN40@ProcState_
$LN20@ProcState_:

; 687  : 		{
; 688  : 			this->SetState(0);

  0024c	6a 00		 push	 0
$LN40@ProcState_:
  0024e	e8 00 00 00 00	 call	 ?SetState@CRingAttackEvent@@QAEXH@Z ; CRingAttackEvent::SetState

; 689  : 		}
; 690  : 
; 691  : 		LogAddTD("[Ring Event] - Event Ended");

  00253	68 00 00 00 00	 push	 OFFSET ??_C@_0BL@KELOKDGN@?$FLRing?5Event?$FN?5?9?5Event?5Ended?$AA@
  00258	ff 15 00 00 00
	00		 call	 DWORD PTR ?LogAddTD@@3P6AXPADZZA ; LogAddTD
  0025e	83 c4 04	 add	 esp, 4
$LN19@ProcState_:

; 692  : 	}
; 693  : }

  00261	8b 4d fc	 mov	 ecx, DWORD PTR __$ArrayPad$[ebp]
  00264	5e		 pop	 esi
  00265	33 cd		 xor	 ecx, ebp
  00267	5b		 pop	 ebx
  00268	e8 00 00 00 00	 call	 @__security_check_cookie@4
  0026d	8b e5		 mov	 esp, ebp
  0026f	5d		 pop	 ebp
  00270	c3		 ret	 0
?ProcState_Playing@CRingAttackEvent@@QAEXXZ ENDP	; CRingAttackEvent::ProcState_Playing
_TEXT	ENDS
; Function compile flags: /Ogtp
; File c:\users\michel\desktop\source\gameserver\source\ringattackevent.cpp
;	COMDAT ?ProcState_Closed@CRingAttackEvent@@QAEXXZ
_TEXT	SEGMENT
_pMsg$1 = -268						; size = 6
_pMsg$2 = -268						; size = 6
_szTemp$3 = -260					; size = 256
_szTemp$4 = -260					; size = 256
__$ArrayPad$ = -4					; size = 4
?ProcState_Closed@CRingAttackEvent@@QAEXXZ PROC		; CRingAttackEvent::ProcState_Closed, COMDAT
; _this$ = ecx

; 540  : {

  00000	55		 push	 ebp
  00001	8b ec		 mov	 ebp, esp
  00003	81 ec 0c 01 00
	00		 sub	 esp, 268		; 0000010cH
  00009	a1 00 00 00 00	 mov	 eax, DWORD PTR ___security_cookie
  0000e	33 c5		 xor	 eax, ebp
  00010	89 45 fc	 mov	 DWORD PTR __$ArrayPad$[ebp], eax
  00013	56		 push	 esi
  00014	8b f1		 mov	 esi, ecx

; 541  : 	int iTICK_MSEC = GetTickCount() - this->m_iTIME_TICK_COUNT;

  00016	ff 15 00 00 00
	00		 call	 DWORD PTR __imp__GetTickCount@0
  0001c	2b 86 ec 00 00
	00		 sub	 eax, DWORD PTR [esi+236]

; 542  : 
; 543  : 	if ( iTICK_MSEC >= 1000 )

  00022	3d e8 03 00 00	 cmp	 eax, 1000		; 000003e8H
  00027	0f 8c cb 00 00
	00		 jl	 $LN5@ProcState_

; 544  : 	{
; 545  : 		this->m_iTIME_MSEC_REMAIN -= iTICK_MSEC;

  0002d	29 86 dc 00 00
	00		 sub	 DWORD PTR [esi+220], eax

; 546  : 		this->m_iTIME_TICK_COUNT = GetTickCount();

  00033	ff 15 00 00 00
	00		 call	 DWORD PTR __imp__GetTickCount@0

; 547  : 
; 548  : 		if ( this->m_bDoEvent )

  00039	83 be d0 00 00
	00 00		 cmp	 DWORD PTR [esi+208], 0
  00040	89 86 ec 00 00
	00		 mov	 DWORD PTR [esi+236], eax
  00046	0f 84 ac 00 00
	00		 je	 $LN5@ProcState_

; 549  : 		{
; 550  : 			if ( this->m_iTIME_MSEC_REMAIN <= (this->m_iTIME_MIN_OPEN * 60 * 1000 ) &&
; 551  : 				 this->m_iTIME_MSEC_REMAIN > 0 &&

  0004c	69 86 e0 00 00
	00 60 ea 00 00	 imul	 eax, DWORD PTR [esi+224], 60000
  00056	8b 8e dc 00 00
	00		 mov	 ecx, DWORD PTR [esi+220]
  0005c	3b c8		 cmp	 ecx, eax
  0005e	0f 8f 94 00 00
	00		 jg	 $LN5@ProcState_
  00064	85 c9		 test	 ecx, ecx
  00066	0f 8e 8c 00 00
	00		 jle	 $LN5@ProcState_
  0006c	b8 73 b2 e7 45	 mov	 eax, 1172812403		; 45e7b273H
  00071	f7 e9		 imul	 ecx
  00073	c1 fa 0e	 sar	 edx, 14			; 0000000eH
  00076	8b c2		 mov	 eax, edx
  00078	c1 e8 1f	 shr	 eax, 31			; 0000001fH
  0007b	03 c2		 add	 eax, edx
  0007d	3b 86 f0 00 00
	00		 cmp	 eax, DWORD PTR [esi+240]
  00083	74 73		 je	 SHORT $LN5@ProcState_

; 552  : 				 (this->m_iTIME_MSEC_REMAIN / 60000 ) != this->m_iTIME_NOTIFY_COUNT )
; 553  : 			{
; 554  : 				this->m_iTIME_NOTIFY_COUNT = this->m_iTIME_MSEC_REMAIN / 60000;

  00085	89 86 f0 00 00
	00		 mov	 DWORD PTR [esi+240], eax

; 555  : 
; 556  : 				if ( (this->m_iTIME_NOTIFY_COUNT+1) == 3 )

  0008b	40		 inc	 eax
  0008c	83 f8 03	 cmp	 eax, 3
  0008f	75 67		 jne	 SHORT $LN5@ProcState_

; 557  : 				{
; 558  : 					char szTemp[256];
; 559  : 					wsprintf(szTemp, lMsg.Get(MSGGET(4, 183)));

  00091	68 b7 04 00 00	 push	 1207			; 000004b7H
  00096	b9 00 00 00 00	 mov	 ecx, OFFSET ?lMsg@@3VMessage@@A ; lMsg
  0009b	e8 00 00 00 00	 call	 ?Get@Message@@QAEPADH@Z	; Message::Get
  000a0	50		 push	 eax
  000a1	8d 85 fc fe ff
	ff		 lea	 eax, DWORD PTR _szTemp$4[ebp]
  000a7	50		 push	 eax
  000a8	ff 15 00 00 00
	00		 call	 DWORD PTR __imp__wsprintfA

; 560  : 					AllSendServerMsg(szTemp);

  000ae	8d 85 fc fe ff
	ff		 lea	 eax, DWORD PTR _szTemp$4[ebp]
  000b4	50		 push	 eax
  000b5	e8 00 00 00 00	 call	 ?AllSendServerMsg@@YAXPAD@Z ; AllSendServerMsg

; 561  : 
; 562  : 					PMSG_ANS_CL_EFFECT pMsg;
; 563  : 
; 564  : 					PHeadSetB((LPBYTE)&pMsg, 0x9E, sizeof(pMsg));

  000ba	6a 06		 push	 6
  000bc	8d 85 f4 fe ff
	ff		 lea	 eax, DWORD PTR _pMsg$2[ebp]
  000c2	68 9e 00 00 00	 push	 158			; 0000009eH
  000c7	50		 push	 eax
  000c8	e8 00 00 00 00	 call	 ?PHeadSetB@@YAXPAEEH@Z	; PHeadSetB

; 565  : 					pMsg.wEffectNum = 0;

  000cd	33 c0		 xor	 eax, eax
  000cf	66 89 85 f8 fe
	ff ff		 mov	 WORD PTR _pMsg$2[ebp+4], ax

; 566  : 
; 567  : 					DataSendAll((LPBYTE)&pMsg, pMsg.h.size);

  000d6	0f b6 85 f5 fe
	ff ff		 movzx	 eax, BYTE PTR _pMsg$2[ebp+1]
  000dd	50		 push	 eax
  000de	8d 85 f4 fe ff
	ff		 lea	 eax, DWORD PTR _pMsg$2[ebp]
  000e4	50		 push	 eax
  000e5	e8 00 00 00 00	 call	 ?DataSendAll@@YAXPAEH@Z	; DataSendAll

; 568  : 
; 569  : 					LogAddTD("[Ring Event] - Before 3 minutes - Advertise");

  000ea	68 00 00 00 00	 push	 OFFSET ??_C@_0CM@NAOFHPPM@?$FLRing?5Event?$FN?5?9?5Before?53?5minutes?5@
  000ef	ff 15 00 00 00
	00		 call	 DWORD PTR ?LogAddTD@@3P6AXPADZZA ; LogAddTD
  000f5	83 c4 24	 add	 esp, 36			; 00000024H
$LN5@ProcState_:

; 570  : 				}
; 571  : 			}
; 572  : 		}
; 573  : 	}
; 574  : 
; 575  : 	if ( this->m_iTIME_MSEC_REMAIN <= 0 )

  000f8	83 be dc 00 00
	00 00		 cmp	 DWORD PTR [esi+220], 0
  000ff	0f 8f 83 00 00
	00		 jg	 $LN6@ProcState_

; 576  : 	{
; 577  : 		char szTemp[256];
; 578  : 		wsprintf(szTemp, lMsg.Get(MSGGET(4, 184)));

  00105	68 b8 04 00 00	 push	 1208			; 000004b8H
  0010a	b9 00 00 00 00	 mov	 ecx, OFFSET ?lMsg@@3VMessage@@A ; lMsg
  0010f	e8 00 00 00 00	 call	 ?Get@Message@@QAEPADH@Z	; Message::Get
  00114	50		 push	 eax
  00115	8d 85 fc fe ff
	ff		 lea	 eax, DWORD PTR _szTemp$3[ebp]
  0011b	50		 push	 eax
  0011c	ff 15 00 00 00
	00		 call	 DWORD PTR __imp__wsprintfA

; 579  : 		AllSendServerMsg(szTemp);

  00122	8d 85 fc fe ff
	ff		 lea	 eax, DWORD PTR _szTemp$3[ebp]
  00128	50		 push	 eax
  00129	e8 00 00 00 00	 call	 ?AllSendServerMsg@@YAXPAD@Z ; AllSendServerMsg

; 580  : 
; 581  : 		PMSG_ANS_CL_EFFECT pMsg;
; 582  : 
; 583  : 		PHeadSetB((LPBYTE)&pMsg, 0x9E, sizeof(pMsg));

  0012e	6a 06		 push	 6
  00130	8d 85 f4 fe ff
	ff		 lea	 eax, DWORD PTR _pMsg$1[ebp]
  00136	68 9e 00 00 00	 push	 158			; 0000009eH
  0013b	50		 push	 eax
  0013c	e8 00 00 00 00	 call	 ?PHeadSetB@@YAXPAEEH@Z	; PHeadSetB

; 584  : 		pMsg.wEffectNum = 1;

  00141	b8 01 00 00 00	 mov	 eax, 1
  00146	66 89 85 f8 fe
	ff ff		 mov	 WORD PTR _pMsg$1[ebp+4], ax

; 585  : 
; 586  : 		DataSendAll((LPBYTE)&pMsg, pMsg.h.size);

  0014d	0f b6 85 f5 fe
	ff ff		 movzx	 eax, BYTE PTR _pMsg$1[ebp+1]
  00154	50		 push	 eax
  00155	8d 85 f4 fe ff
	ff		 lea	 eax, DWORD PTR _pMsg$1[ebp]
  0015b	50		 push	 eax
  0015c	e8 00 00 00 00	 call	 ?DataSendAll@@YAXPAEH@Z	; DataSendAll
  00161	83 c4 20	 add	 esp, 32			; 00000020H

; 587  : 
; 588  : 		if ( this->m_bDoEvent )
; 589  : 		{
; 590  : 			this->SetState(2);

  00164	8b ce		 mov	 ecx, esi
  00166	83 be d0 00 00
	00 00		 cmp	 DWORD PTR [esi+208], 0
  0016d	74 04		 je	 SHORT $LN7@ProcState_
  0016f	6a 02		 push	 2

; 591  : 		}
; 592  : 		else

  00171	eb 02		 jmp	 SHORT $LN10@ProcState_
$LN7@ProcState_:

; 593  : 		{
; 594  : 			this->SetState(0);

  00173	6a 00		 push	 0
$LN10@ProcState_:
  00175	e8 00 00 00 00	 call	 ?SetState@CRingAttackEvent@@QAEXH@Z ; CRingAttackEvent::SetState

; 595  : 		}
; 596  : 
; 597  : 		LogAddTD("[Ring Event] - Event Started");

  0017a	68 00 00 00 00	 push	 OFFSET ??_C@_0BN@HLGPJCPM@?$FLRing?5Event?$FN?5?9?5Event?5Started?$AA@
  0017f	ff 15 00 00 00
	00		 call	 DWORD PTR ?LogAddTD@@3P6AXPADZZA ; LogAddTD
  00185	83 c4 04	 add	 esp, 4
$LN6@ProcState_:

; 598  : 	}
; 599  : }

  00188	8b 4d fc	 mov	 ecx, DWORD PTR __$ArrayPad$[ebp]
  0018b	33 cd		 xor	 ecx, ebp
  0018d	5e		 pop	 esi
  0018e	e8 00 00 00 00	 call	 @__security_check_cookie@4
  00193	8b e5		 mov	 esp, ebp
  00195	5d		 pop	 ebp
  00196	c3		 ret	 0
?ProcState_Closed@CRingAttackEvent@@QAEXXZ ENDP		; CRingAttackEvent::ProcState_Closed
_TEXT	ENDS
; Function compile flags: /Ogtp
; File c:\users\michel\desktop\source\gameserver\source\ringattackevent.cpp
;	COMDAT ?ProcState_None@CRingAttackEvent@@QAEXXZ
_TEXT	SEGMENT
?ProcState_None@CRingAttackEvent@@QAEXXZ PROC		; CRingAttackEvent::ProcState_None, COMDAT
; _this$ = ecx

; 529  : 	return;
; 530  : }

  00000	c3		 ret	 0
?ProcState_None@CRingAttackEvent@@QAEXXZ ENDP		; CRingAttackEvent::ProcState_None
_TEXT	ENDS
; Function compile flags: /Ogtp
; File c:\users\michel\desktop\source\gameserver\source\ringattackevent.cpp
;	COMDAT ?SetState@CRingAttackEvent@@QAEXH@Z
_TEXT	SEGMENT
_iSTATE$ = 8						; size = 4
?SetState@CRingAttackEvent@@QAEXH@Z PROC		; CRingAttackEvent::SetState, COMDAT
; _this$ = ecx

; 506  : {

  00000	55		 push	 ebp
  00001	8b ec		 mov	 ebp, esp

; 507  : 	if ( this->m_iEVENT_STATE < 0 || this->m_iEVENT_STATE > 2 )

  00003	8b 81 f4 00 00
	00		 mov	 eax, DWORD PTR [ecx+244]
  00009	85 c0		 test	 eax, eax
  0000b	78 34		 js	 SHORT $LN5@SetState
  0000d	83 f8 02	 cmp	 eax, 2
  00010	7f 2f		 jg	 SHORT $LN5@SetState

; 508  : 		return;
; 509  : 
; 510  : 	this->m_iEVENT_STATE = iSTATE;

  00012	8b 45 08	 mov	 eax, DWORD PTR _iSTATE$[ebp]
  00015	89 81 f4 00 00
	00		 mov	 DWORD PTR [ecx+244], eax

; 511  : 
; 512  : 	switch ( this->m_iEVENT_STATE )

  0001b	83 e8 00	 sub	 eax, 0
  0001e	74 1c		 je	 SHORT $LN6@SetState
  00020	83 e8 01	 sub	 eax, 1
  00023	74 0e		 je	 SHORT $LN7@SetState
  00025	83 e8 01	 sub	 eax, 1
  00028	75 17		 jne	 SHORT $LN5@SetState

; 519  : 			break;
; 520  : 		case 2:
; 521  : 			this->SetState_Playing();

  0002a	e8 00 00 00 00	 call	 ?SetState_Playing@CRingAttackEvent@@QAEXXZ ; CRingAttackEvent::SetState_Playing

; 522  : 			break;
; 523  : 	}
; 524  : }

  0002f	5d		 pop	 ebp
  00030	c2 04 00	 ret	 4
$LN7@SetState:

; 516  : 			break;
; 517  : 		case 1:
; 518  : 			this->SetState_Closed();

  00033	e8 00 00 00 00	 call	 ?SetState_Closed@CRingAttackEvent@@QAEXXZ ; CRingAttackEvent::SetState_Closed

; 522  : 			break;
; 523  : 	}
; 524  : }

  00038	5d		 pop	 ebp
  00039	c2 04 00	 ret	 4
$LN6@SetState:

; 513  : 	{
; 514  : 		case 0:
; 515  : 			this->SetState_None();

  0003c	e8 00 00 00 00	 call	 ?SetState_None@CRingAttackEvent@@QAEXXZ ; CRingAttackEvent::SetState_None
$LN5@SetState:

; 522  : 			break;
; 523  : 	}
; 524  : }

  00041	5d		 pop	 ebp
  00042	c2 04 00	 ret	 4
?SetState@CRingAttackEvent@@QAEXH@Z ENDP		; CRingAttackEvent::SetState
_TEXT	ENDS
; Function compile flags: /Ogtp
; File c:\users\michel\desktop\source\gameserver\source\ringattackevent.cpp
; File c:\program files (x86)\microsoft visual studio 14.0\vc\include\vector
; File c:\users\michel\desktop\source\gameserver\source\ringattackevent.cpp
; File c:\program files (x86)\microsoft visual studio 14.0\vc\include\vector
; File c:\users\michel\desktop\source\gameserver\source\ringattackevent.cpp
; File c:\program files (x86)\microsoft visual studio 14.0\vc\include\vector
; File c:\users\michel\desktop\source\gameserver\source\ringattackevent.cpp
; File c:\program files (x86)\microsoft visual studio 14.0\vc\include\vector
; File c:\users\michel\desktop\source\gameserver\source\ringattackevent.cpp
; File c:\program files (x86)\microsoft visual studio 14.0\vc\include\vector
; File c:\users\michel\desktop\source\gameserver\source\ringattackevent.cpp
; File c:\program files (x86)\microsoft visual studio 14.0\vc\include\vector
; File c:\users\michel\desktop\source\gameserver\source\ringattackevent.cpp
; File c:\program files (x86)\microsoft visual studio 14.0\vc\include\vector
; File c:\users\michel\desktop\source\gameserver\source\ringattackevent.cpp
; File c:\program files (x86)\microsoft visual studio 14.0\vc\include\vector
; File c:\users\michel\desktop\source\gameserver\source\ringattackevent.cpp
; File c:\program files (x86)\microsoft visual studio 14.0\vc\include\vector
; File c:\users\michel\desktop\source\gameserver\source\ringattackevent.cpp
;	COMDAT ?CheckSync@CRingAttackEvent@@QAEXXZ
_TEXT	SEGMENT
tv634 = -48						; size = 4
tv636 = -44						; size = 4
$T1 = -44						; size = 4
tv633 = -40						; size = 4
_it$2$ = -40						; size = 4
_this$GSCopy$1$ = -36					; size = 4
_bTIME_CHANGED$1$ = -32					; size = 4
tv648 = -28						; size = 4
_iMIN_MINUTE$1$ = -28					; size = 4
tv637 = -24						; size = 4
_iMIN_HOUR$1$ = -24					; size = 4
_sysTime$ = -20						; size = 16
__$ArrayPad$ = -4					; size = 4
?CheckSync@CRingAttackEvent@@QAEXXZ PROC		; CRingAttackEvent::CheckSync, COMDAT
; _this$ = ecx

; 430  : {

  00000	55		 push	 ebp
  00001	8b ec		 mov	 ebp, esp
  00003	83 ec 30	 sub	 esp, 48			; 00000030H
  00006	a1 00 00 00 00	 mov	 eax, DWORD PTR ___security_cookie
  0000b	33 c5		 xor	 eax, ebp
  0000d	89 45 fc	 mov	 DWORD PTR __$ArrayPad$[ebp], eax
  00010	53		 push	 ebx
  00011	8b d9		 mov	 ebx, ecx
  00013	89 5d dc	 mov	 DWORD PTR _this$GSCopy$1$[ebp], ebx
; File c:\program files (x86)\microsoft visual studio 14.0\vc\include\vector

; 1189 : 		return (this->_Myfirst() == this->_Mylast());

  00016	8b 83 28 01 00
	00		 mov	 eax, DWORD PTR [ebx+296]
  0001c	3b 83 2c 01 00
	00		 cmp	 eax, DWORD PTR [ebx+300]
; File c:\users\michel\desktop\source\gameserver\source\ringattackevent.cpp

; 431  : 	if ( this->m_vtEventTime.empty() != 0 )

  00022	75 28		 jne	 SHORT $LN10@CheckSync

; 432  : 	{
; 433  : 		LogAddC(2, "[Ring Event] No Schedule Time Data");

  00024	68 00 00 00 00	 push	 OFFSET ??_C@_0CD@BNKPBCAA@?$FLRing?5Event?$FN?5No?5Schedule?5Time?5Da@
  00029	6a 02		 push	 2
  0002b	ff 15 00 00 00
	00		 call	 DWORD PTR ?LogAddC@@3P6AXEPADZZA ; LogAddC
  00031	83 c4 08	 add	 esp, 8

; 434  : 		this->SetState(0);

  00034	8b cb		 mov	 ecx, ebx
  00036	6a 00		 push	 0
  00038	e8 00 00 00 00	 call	 ?SetState@CRingAttackEvent@@QAEXH@Z ; CRingAttackEvent::SetState
  0003d	5b		 pop	 ebx

; 502  : }

  0003e	8b 4d fc	 mov	 ecx, DWORD PTR __$ArrayPad$[ebp]
  00041	33 cd		 xor	 ecx, ebp
  00043	e8 00 00 00 00	 call	 @__security_check_cookie@4
  00048	8b e5		 mov	 esp, ebp
  0004a	5d		 pop	 ebp
  0004b	c3		 ret	 0
$LN10@CheckSync:
  0004c	56		 push	 esi
  0004d	57		 push	 edi

; 435  : 
; 436  : 		return;
; 437  : 	}
; 438  : 
; 439  : 	SYSTEMTIME sysTime;
; 440  : 	GetLocalTime(&sysTime);

  0004e	8d 45 ec	 lea	 eax, DWORD PTR _sysTime$[ebp]
  00051	50		 push	 eax
  00052	ff 15 00 00 00
	00		 call	 DWORD PTR __imp__GetLocalTime@4
; File c:\program files (x86)\microsoft visual studio 14.0\vc\include\vector

; 46   : 		: _Ptr(_Parg)

  00058	8b 83 28 01 00
	00		 mov	 eax, DWORD PTR [ebx+296]
; File c:\users\michel\desktop\source\gameserver\source\ringattackevent.cpp

; 444  : 	BOOL bTIME_CHANGED = FALSE;

  0005e	33 d2		 xor	 edx, edx
; File c:\program files (x86)\microsoft visual studio 14.0\vc\include\vector

; 46   : 		: _Ptr(_Parg)

  00060	8b b3 2c 01 00
	00		 mov	 esi, DWORD PTR [ebx+300]
  00066	8b c8		 mov	 ecx, eax
; File c:\users\michel\desktop\source\gameserver\source\ringattackevent.cpp

; 444  : 	BOOL bTIME_CHANGED = FALSE;

  00068	89 55 e0	 mov	 DWORD PTR _bTIME_CHANGED$1$[ebp], edx
; File c:\program files (x86)\microsoft visual studio 14.0\vc\include\vector

; 46   : 		: _Ptr(_Parg)

  0006b	89 45 d8	 mov	 DWORD PTR _it$2$[ebp], eax
  0006e	89 75 d4	 mov	 DWORD PTR $T1[ebp], esi

; 206  : 		return (this->_Ptr == _Right._Ptr);

  00071	3b ce		 cmp	 ecx, esi
; File c:\users\michel\desktop\source\gameserver\source\ringattackevent.cpp

; 448  : 	for ( ; it != this->m_vtEventTime.end() ; it++ )

  00073	74 68		 je	 SHORT $LN186@CheckSync
  00075	0f b7 7d f4	 movzx	 edi, WORD PTR _sysTime$[ebp+8]
; File c:\program files (x86)\microsoft visual studio 14.0\vc\include\vector

; 1067 : 		return (iterator(this->_Mylast(), &this->_Get_data()));

  00079	8b d6		 mov	 edx, esi
  0007b	8b df		 mov	 ebx, edi
  0007d	c1 e3 04	 shl	 ebx, 4
  00080	2b df		 sub	 ebx, edi
  00082	0f b7 7d f6	 movzx	 edi, WORD PTR _sysTime$[ebp+10]
  00086	8d 04 9f	 lea	 eax, DWORD PTR [edi+ebx*4]
  00089	89 45 e4	 mov	 DWORD PTR tv648[ebp], eax
  0008c	b8 18 00 00 00	 mov	 eax, 24			; 00000018H
  00091	8d 70 24	 lea	 esi, DWORD PTR [eax+36]
$LL4@CheckSync:
; File c:\users\michel\desktop\source\gameserver\source\ringattackevent.cpp

; 452  : 		if ( (sysTime.wHour * 60 + sysTime.wMinute) < (pRET.m_iHour * 60 + pRET.m_iMinute ))

  00094	8b 39		 mov	 edi, DWORD PTR [ecx]
  00096	8b 59 04	 mov	 ebx, DWORD PTR [ecx+4]
  00099	c1 e7 04	 shl	 edi, 4
  0009c	2b 39		 sub	 edi, DWORD PTR [ecx]
  0009e	8d 1c bb	 lea	 ebx, DWORD PTR [ebx+edi*4]
  000a1	39 5d e4	 cmp	 DWORD PTR tv648[ebp], ebx
  000a4	7d 1d		 jge	 SHORT $LN189@CheckSync

; 453  : 		{
; 454  : 			if ( (iMIN_HOUR * 60 + iMIN_MINUTE) > (pRET.m_iHour * 60 + pRET.m_iMinute) )

  000a6	8b f8		 mov	 edi, eax
  000a8	c1 e7 04	 shl	 edi, 4
  000ab	2b f8		 sub	 edi, eax
  000ad	8d 3c be	 lea	 edi, DWORD PTR [esi+edi*4]
  000b0	3b fb		 cmp	 edi, ebx
  000b2	7e 0f		 jle	 SHORT $LN189@CheckSync

; 455  : 			{
; 456  : 				bTIME_CHANGED = TRUE;
; 457  : 				iMIN_HOUR = pRET.m_iHour;

  000b4	8b 01		 mov	 eax, DWORD PTR [ecx]
  000b6	bb 01 00 00 00	 mov	 ebx, 1

; 458  : 				iMIN_MINUTE = pRET.m_iMinute;

  000bb	8b 71 04	 mov	 esi, DWORD PTR [ecx+4]
  000be	89 5d e0	 mov	 DWORD PTR _bTIME_CHANGED$1$[ebp], ebx
  000c1	eb 03		 jmp	 SHORT $LN2@CheckSync
$LN189@CheckSync:
  000c3	8b 5d e0	 mov	 ebx, DWORD PTR _bTIME_CHANGED$1$[ebp]
$LN2@CheckSync:
; File c:\program files (x86)\microsoft visual studio 14.0\vc\include\vector

; 112  : 		++this->_Ptr;

  000c6	83 c1 08	 add	 ecx, 8

; 206  : 		return (this->_Ptr == _Right._Ptr);

  000c9	3b ca		 cmp	 ecx, edx
; File c:\users\michel\desktop\source\gameserver\source\ringattackevent.cpp

; 448  : 	for ( ; it != this->m_vtEventTime.end() ; it++ )

  000cb	75 c7		 jne	 SHORT $LL4@CheckSync

; 459  : 			}
; 460  : 		}
; 461  : 	}
; 462  : 
; 463  : 	if ( bTIME_CHANGED == FALSE )

  000cd	89 75 e4	 mov	 DWORD PTR _iMIN_MINUTE$1$[ebp], esi
  000d0	8b 75 d4	 mov	 esi, DWORD PTR $T1[ebp]
  000d3	89 45 e8	 mov	 DWORD PTR _iMIN_HOUR$1$[ebp], eax
  000d6	8b 45 d8	 mov	 eax, DWORD PTR _it$2$[ebp]
  000d9	85 db		 test	 ebx, ebx
  000db	75 5a		 jne	 SHORT $LN6@CheckSync
$LN186@CheckSync:

; 464  : 	{
; 465  : 		it = this->m_vtEventTime.begin();
; 466  : 		iMIN_HOUR = 24;

  000dd	bb 18 00 00 00	 mov	 ebx, 24			; 00000018H

; 467  : 		iMIN_MINUTE = 60;

  000e2	bf 3c 00 00 00	 mov	 edi, 60			; 0000003cH
  000e7	89 5d e8	 mov	 DWORD PTR _iMIN_HOUR$1$[ebp], ebx
  000ea	89 7d e4	 mov	 DWORD PTR _iMIN_MINUTE$1$[ebp], edi
; File c:\program files (x86)\microsoft visual studio 14.0\vc\include\vector

; 206  : 		return (this->_Ptr == _Right._Ptr);

  000ed	3b c6		 cmp	 eax, esi
; File c:\users\michel\desktop\source\gameserver\source\ringattackevent.cpp

; 469  : 		for ( ; it != this->m_vtEventTime.end() ; it++ )

  000ef	74 43		 je	 SHORT $LN187@CheckSync
; File c:\program files (x86)\microsoft visual studio 14.0\vc\include\vector

; 1067 : 		return (iterator(this->_Mylast(), &this->_Get_data()));

  000f1	8b 4d dc	 mov	 ecx, DWORD PTR _this$GSCopy$1$[ebp]
  000f4	8b 89 2c 01 00
	00		 mov	 ecx, DWORD PTR [ecx+300]
  000fa	66 0f 1f 44 00
	00		 npad	 6
$LL7@CheckSync:
; File c:\users\michel\desktop\source\gameserver\source\ringattackevent.cpp

; 473  : 			if ( (iMIN_HOUR * 60 + iMIN_MINUTE) > (pRET.m_iHour * 60 + pRET.m_iMinute) )

  00100	8b 10		 mov	 edx, DWORD PTR [eax]
  00102	8b 70 04	 mov	 esi, DWORD PTR [eax+4]
  00105	c1 e2 04	 shl	 edx, 4
  00108	2b 10		 sub	 edx, DWORD PTR [eax]
  0010a	8d 34 96	 lea	 esi, DWORD PTR [esi+edx*4]
  0010d	8b d3		 mov	 edx, ebx
  0010f	c1 e2 04	 shl	 edx, 4
  00112	2b d3		 sub	 edx, ebx
  00114	8d 14 97	 lea	 edx, DWORD PTR [edi+edx*4]
  00117	3b d6		 cmp	 edx, esi
  00119	7e 0c		 jle	 SHORT $LN5@CheckSync

; 474  : 			{
; 475  : 				bTIME_CHANGED = 2;
; 476  : 				iMIN_HOUR = pRET.m_iHour;

  0011b	8b 18		 mov	 ebx, DWORD PTR [eax]

; 477  : 				iMIN_MINUTE = pRET.m_iMinute;

  0011d	8b 78 04	 mov	 edi, DWORD PTR [eax+4]
  00120	c7 45 e0 02 00
	00 00		 mov	 DWORD PTR _bTIME_CHANGED$1$[ebp], 2
$LN5@CheckSync:
; File c:\program files (x86)\microsoft visual studio 14.0\vc\include\vector

; 112  : 		++this->_Ptr;

  00127	83 c0 08	 add	 eax, 8

; 206  : 		return (this->_Ptr == _Right._Ptr);

  0012a	3b c1		 cmp	 eax, ecx
; File c:\users\michel\desktop\source\gameserver\source\ringattackevent.cpp

; 469  : 		for ( ; it != this->m_vtEventTime.end() ; it++ )

  0012c	75 d2		 jne	 SHORT $LL7@CheckSync
  0012e	89 7d e4	 mov	 DWORD PTR _iMIN_MINUTE$1$[ebp], edi
  00131	89 5d e8	 mov	 DWORD PTR _iMIN_HOUR$1$[ebp], ebx
$LN187@CheckSync:
  00134	8b 5d e0	 mov	 ebx, DWORD PTR _bTIME_CHANGED$1$[ebp]
$LN6@CheckSync:

; 478  : 			}
; 479  : 		}
; 480  : 	}
; 481  : 
; 482  : 	switch ( bTIME_CHANGED )

  00137	83 eb 01	 sub	 ebx, 1
  0013a	74 40		 je	 SHORT $LN15@CheckSync
  0013c	83 eb 01	 sub	 ebx, 1
  0013f	74 2b		 je	 SHORT $LN16@CheckSync

; 490  : 		default:
; 491  : 			LogAddC(2, "[Ring Event] No Schedule Time Data");

  00141	68 00 00 00 00	 push	 OFFSET ??_C@_0CD@BNKPBCAA@?$FLRing?5Event?$FN?5No?5Schedule?5Time?5Da@
  00146	6a 02		 push	 2
  00148	ff 15 00 00 00
	00		 call	 DWORD PTR ?LogAddC@@3P6AXEPADZZA ; LogAddC

; 492  : 			this->SetState(0);

  0014e	8b 4d dc	 mov	 ecx, DWORD PTR _this$GSCopy$1$[ebp]
  00151	83 c4 08	 add	 esp, 8
  00154	6a 00		 push	 0
  00156	e8 00 00 00 00	 call	 ?SetState@CRingAttackEvent@@QAEXH@Z ; CRingAttackEvent::SetState
  0015b	5f		 pop	 edi
  0015c	5e		 pop	 esi
  0015d	5b		 pop	 ebx

; 502  : }

  0015e	8b 4d fc	 mov	 ecx, DWORD PTR __$ArrayPad$[ebp]
  00161	33 cd		 xor	 ecx, ebp
  00163	e8 00 00 00 00	 call	 @__security_check_cookie@4
  00168	8b e5		 mov	 esp, ebp
  0016a	5d		 pop	 ebp
  0016b	c3		 ret	 0
$LN16@CheckSync:

; 486  : 			break;
; 487  : 		case 2:
; 488  : 			this->m_iTIME_MSEC_REMAIN = (((iMIN_HOUR + 24) * 60 * 60 + iMIN_MINUTE * 60) - (sysTime.wHour * 60 * 60 + sysTime.wMinute * 60 + sysTime.wSecond)) * 1000;

  0016c	8b 75 e8	 mov	 esi, DWORD PTR _iMIN_HOUR$1$[ebp]
  0016f	8b ce		 mov	 ecx, esi
  00171	0f b7 45 f4	 movzx	 eax, WORD PTR _sysTime$[ebp+8]
  00175	2b c8		 sub	 ecx, eax
  00177	83 c1 18	 add	 ecx, 24			; 00000018H

; 489  : 			break;

  0017a	eb 0b		 jmp	 SHORT $LN192@CheckSync
$LN15@CheckSync:

; 483  : 	{
; 484  : 		case 1:
; 485  : 			this->m_iTIME_MSEC_REMAIN = ((iMIN_HOUR * 60 * 60 + iMIN_MINUTE * 60) - (sysTime.wHour * 60 * 60 + sysTime.wMinute * 60 + sysTime.wSecond)) * 1000;

  0017c	8b 75 e8	 mov	 esi, DWORD PTR _iMIN_HOUR$1$[ebp]
  0017f	8b ce		 mov	 ecx, esi
  00181	0f b7 45 f4	 movzx	 eax, WORD PTR _sysTime$[ebp+8]
  00185	2b c8		 sub	 ecx, eax
$LN192@CheckSync:
  00187	0f b7 45 f6	 movzx	 eax, WORD PTR _sysTime$[ebp+10]
  0018b	8b d1		 mov	 edx, ecx
  0018d	8b 7d e4	 mov	 edi, DWORD PTR _iMIN_MINUTE$1$[ebp]
  00190	8b 5d dc	 mov	 ebx, DWORD PTR _this$GSCopy$1$[ebp]
  00193	c1 e2 04	 shl	 edx, 4
  00196	2b d1		 sub	 edx, ecx
  00198	c1 e2 02	 shl	 edx, 2
  0019b	2b d0		 sub	 edx, eax
  0019d	0f b7 45 f8	 movzx	 eax, WORD PTR _sysTime$[ebp+12]
  001a1	03 d7		 add	 edx, edi
  001a3	8b ca		 mov	 ecx, edx
  001a5	c1 e1 04	 shl	 ecx, 4
  001a8	2b ca		 sub	 ecx, edx
  001aa	c1 e1 02	 shl	 ecx, 2
  001ad	2b c8		 sub	 ecx, eax
  001af	69 c1 e8 03 00
	00		 imul	 eax, ecx, 1000
  001b5	89 83 dc 00 00
	00		 mov	 DWORD PTR [ebx+220], eax

; 493  : 			return;
; 494  : 	}
; 495  : 
; 496  : 	this->m_iTIME_TICK_COUNT = GetTickCount();

  001bb	ff 15 00 00 00
	00		 call	 DWORD PTR __imp__GetTickCount@0
  001c1	89 83 ec 00 00
	00		 mov	 DWORD PTR [ebx+236], eax

; 497  : 
; 498  : 	LogAddTD("[Ring Event] Sync Start Time. [%d] min remain (START HOUR:%d, MIN:%d)",

  001c7	b8 73 b2 e7 45	 mov	 eax, 1172812403		; 45e7b273H
  001cc	f7 ab dc 00 00
	00		 imul	 DWORD PTR [ebx+220]
  001d2	57		 push	 edi
  001d3	c1 fa 0e	 sar	 edx, 14			; 0000000eH
  001d6	8b c2		 mov	 eax, edx
  001d8	c1 e8 1f	 shr	 eax, 31			; 0000001fH
  001db	56		 push	 esi
  001dc	03 c2		 add	 eax, edx
  001de	50		 push	 eax
  001df	68 00 00 00 00	 push	 OFFSET ??_C@_0EG@KMBELKMF@?$FLRing?5Event?$FN?5Sync?5Start?5Time?4?5?$FL?$CF@
  001e4	ff 15 00 00 00
	00		 call	 DWORD PTR ?LogAddTD@@3P6AXPADZZA ; LogAddTD

; 499  : 		this->m_iTIME_MSEC_REMAIN/60000, iMIN_HOUR, iMIN_MINUTE);
; 500  : 
; 501  : 	this->m_iTIME_NOTIFY_COUNT = this->m_iTIME_MIN_OPEN;

  001ea	8b 83 e0 00 00
	00		 mov	 eax, DWORD PTR [ebx+224]
  001f0	83 c4 10	 add	 esp, 16			; 00000010H

; 502  : }

  001f3	8b 4d fc	 mov	 ecx, DWORD PTR __$ArrayPad$[ebp]
  001f6	89 83 f0 00 00
	00		 mov	 DWORD PTR [ebx+240], eax
  001fc	33 cd		 xor	 ecx, ebp
  001fe	5f		 pop	 edi
  001ff	5e		 pop	 esi
  00200	5b		 pop	 ebx
  00201	e8 00 00 00 00	 call	 @__security_check_cookie@4
  00206	8b e5		 mov	 esp, ebp
  00208	5d		 pop	 ebp
  00209	c3		 ret	 0
?CheckSync@CRingAttackEvent@@QAEXXZ ENDP		; CRingAttackEvent::CheckSync
_TEXT	ENDS
; Function compile flags: /Ogtp
; File c:\users\michel\desktop\source\gameserver\source\ringattackevent.cpp
;	COMDAT ?Run@CRingAttackEvent@@QAEXXZ
_TEXT	SEGMENT
?Run@CRingAttackEvent@@QAEXXZ PROC			; CRingAttackEvent::Run, COMDAT
; _this$ = ecx

; 409  : 	if ( this->m_bMenualStart )

  00000	83 b9 34 01 00
	00 00		 cmp	 DWORD PTR [ecx+308], 0
  00007	75 28		 jne	 SHORT $LN6@Run

; 410  : 		return;
; 411  : 
; 412  : 	if ( this->m_bDoEvent )

  00009	83 b9 d0 00 00
	00 00		 cmp	 DWORD PTR [ecx+208], 0
  00010	74 1f		 je	 SHORT $LN6@Run

; 413  : 	{
; 414  : 		switch ( this->m_iEVENT_STATE )

  00012	8b 81 f4 00 00
	00		 mov	 eax, DWORD PTR [ecx+244]
  00018	83 e8 00	 sub	 eax, 0
  0001b	74 14		 je	 SHORT $LN6@Run
  0001d	83 e8 01	 sub	 eax, 1
  00020	74 0a		 je	 SHORT $LN7@Run
  00022	83 e8 01	 sub	 eax, 1
  00025	75 0a		 jne	 SHORT $LN6@Run

; 421  : 				break;
; 422  : 			case 2:
; 423  : 				this->ProcState_Playing();

  00027	e9 00 00 00 00	 jmp	 ?ProcState_Playing@CRingAttackEvent@@QAEXXZ ; CRingAttackEvent::ProcState_Playing
$LN7@Run:

; 415  : 		{
; 416  : 			case 0:
; 417  : 				this->ProcState_None();
; 418  : 				break;
; 419  : 			case 1:
; 420  : 				this->ProcState_Closed();

  0002c	e9 00 00 00 00	 jmp	 ?ProcState_Closed@CRingAttackEvent@@QAEXXZ ; CRingAttackEvent::ProcState_Closed
$LN6@Run:

; 424  : 		}
; 425  : 	}
; 426  : }	

  00031	c3		 ret	 0
?Run@CRingAttackEvent@@QAEXXZ ENDP			; CRingAttackEvent::Run
_TEXT	ENDS
; Function compile flags: /Ogtp
; File c:\users\michel\desktop\source\gameserver\source\ringattackevent.cpp
;	COMDAT ?EnableEvent@CRingAttackEvent@@QAEXH@Z
_TEXT	SEGMENT
_bDoEvent$ = 8						; size = 4
?EnableEvent@CRingAttackEvent@@QAEXH@Z PROC		; CRingAttackEvent::EnableEvent, COMDAT
; _this$ = ecx

; 274  : {

  00000	55		 push	 ebp
  00001	8b ec		 mov	 ebp, esp

; 275  : 	this->m_bDoEvent = bDoEvent;

  00003	8b 45 08	 mov	 eax, DWORD PTR _bDoEvent$[ebp]
  00006	89 81 d0 00 00
	00		 mov	 DWORD PTR [ecx+208], eax

; 276  : 
; 277  : 	if ( this->m_bDoEvent )

  0000c	85 c0		 test	 eax, eax
  0000e	74 0d		 je	 SHORT $LN2@EnableEven

; 278  : 	{
; 279  : 		this->SetState(1);

  00010	c7 45 08 01 00
	00 00		 mov	 DWORD PTR _bDoEvent$[ebp], 1

; 284  : 	}
; 285  : }

  00017	5d		 pop	 ebp

; 278  : 	{
; 279  : 		this->SetState(1);

  00018	e9 00 00 00 00	 jmp	 ?SetState@CRingAttackEvent@@QAEXH@Z ; CRingAttackEvent::SetState
$LN2@EnableEven:

; 280  : 	}
; 281  : 	else
; 282  : 	{
; 283  : 		this->SetState(0);

  0001d	c7 45 08 00 00
	00 00		 mov	 DWORD PTR _bDoEvent$[ebp], 0

; 284  : 	}
; 285  : }

  00024	5d		 pop	 ebp

; 280  : 	}
; 281  : 	else
; 282  : 	{
; 283  : 		this->SetState(0);

  00025	e9 00 00 00 00	 jmp	 ?SetState@CRingAttackEvent@@QAEXH@Z ; CRingAttackEvent::SetState
?EnableEvent@CRingAttackEvent@@QAEXH@Z ENDP		; CRingAttackEvent::EnableEvent
_TEXT	ENDS
; Function compile flags: /Ogtp
; File c:\users\michel\desktop\source\gameserver\source\ringattackevent.cpp
;	COMDAT ?StopEvent@CRingAttackEvent@@QAEXXZ
_TEXT	SEGMENT
?StopEvent@CRingAttackEvent@@QAEXXZ PROC		; CRingAttackEvent::StopEvent, COMDAT
; _this$ = ecx

; 264  : {

  00000	53		 push	 ebx
  00001	8b d9		 mov	 ebx, ecx
  00003	56		 push	 esi
  00004	57		 push	 edi

; 265  : 	for ( int i=0;i<MAX_RINGMONSTER_MAP;i++)

  00005	bf 03 00 00 00	 mov	 edi, 3
  0000a	8d 73 04	 lea	 esi, DWORD PTR [ebx+4]
  0000d	0f 1f 00	 npad	 3
$LL4@StopEvent:

; 266  : 	{
; 267  : 		this->m_RingMonsterHerd[i].Stop();

  00010	8b 06		 mov	 eax, DWORD PTR [esi]
  00012	8b ce		 mov	 ecx, esi
  00014	ff 50 18	 call	 DWORD PTR [eax+24]
  00017	83 c6 44	 add	 esi, 68			; 00000044H
  0001a	83 ef 01	 sub	 edi, 1
  0001d	75 f1		 jne	 SHORT $LL4@StopEvent

; 268  : 	}
; 269  : 
; 270  : 	this->m_bMonsterToDest = FALSE;

  0001f	89 bb d8 00 00
	00		 mov	 DWORD PTR [ebx+216], edi
  00025	5f		 pop	 edi
  00026	5e		 pop	 esi
  00027	5b		 pop	 ebx

; 271  : }

  00028	c3		 ret	 0
?StopEvent@CRingAttackEvent@@QAEXXZ ENDP		; CRingAttackEvent::StopEvent
_TEXT	ENDS
; Function compile flags: /Ogtp
; File c:\users\michel\desktop\source\gameserver\source\ringattackevent.cpp
; File c:\program files (x86)\microsoft visual studio 14.0\vc\include\vector
; File c:\users\michel\desktop\source\gameserver\source\ringattackevent.cpp
; File c:\program files (x86)\microsoft visual studio 14.0\vc\include\vector
; File c:\users\michel\desktop\source\gameserver\source\ringattackevent.cpp
; File c:\program files (x86)\microsoft visual studio 14.0\vc\include\vector
; File c:\users\michel\desktop\source\gameserver\source\ringattackevent.cpp
;	COMDAT ?StartEvent@CRingAttackEvent@@QAEXXZ
_TEXT	SEGMENT
tv681 = -20						; size = 4
_iRandY$1$ = -20					; size = 4
_iRandX$1$ = -16					; size = 4
_this$1$ = -12						; size = 4
tv679 = -8						; size = 4
tv678 = -4						; size = 4
?StartEvent@CRingAttackEvent@@QAEXXZ PROC		; CRingAttackEvent::StartEvent, COMDAT
; _this$ = ecx

; 202  : {

  00000	55		 push	 ebp
  00001	8b ec		 mov	 ebp, esp
  00003	83 ec 14	 sub	 esp, 20			; 00000014H
  00006	8b c1		 mov	 eax, ecx
  00008	89 45 f4	 mov	 DWORD PTR _this$1$[ebp], eax

; 203  : 	int iRandX;
; 204  : 	int iRandY;
; 205  : 
; 206  : 	if ( this->m_bHasData == 0 )

  0000b	83 b8 d4 00 00
	00 00		 cmp	 DWORD PTR [eax+212], 0
  00012	0f 84 32 01 00
	00		 je	 $LN3@StartEvent

; 207  : 	{
; 208  : 		return;
; 209  : 	}
; 210  : 
; 211  : 	for ( int i=0;i<MAX_RINGMONSTER_MAP;i++)

  00018	53		 push	 ebx
  00019	56		 push	 esi
  0001a	b9 00 00 00 00	 mov	 ecx, OFFSET ?g_RingMapPosition@@3PAY03HA
  0001f	c7 45 f8 00 00
	00 00		 mov	 DWORD PTR tv679[ebp], OFFSET ?g_RingEventMapNum@@3PAHA
  00026	57		 push	 edi
  00027	89 4d fc	 mov	 DWORD PTR tv678[ebp], ecx
  0002a	8d 58 04	 lea	 ebx, DWORD PTR [eax+4]
  0002d	0f 1f 00	 npad	 3
$LL4@StartEvent:

; 212  : 	{
; 213  : 		int iCount = 1000;

  00030	bf e8 03 00 00	 mov	 edi, 1000		; 000003e8H
$LL5@StartEvent:

; 216  : 		{
; 217  : 			iRandX = rand() % (g_RingMapPosition[i][2] - g_RingMapPosition[i][0]) + g_RingMapPosition[i][0];

  00035	8b 31		 mov	 esi, DWORD PTR [ecx]
  00037	4f		 dec	 edi
  00038	e8 00 00 00 00	 call	 _rand
  0003d	8b 4d fc	 mov	 ecx, DWORD PTR tv678[ebp]
  00040	99		 cdq
  00041	8b 49 08	 mov	 ecx, DWORD PTR [ecx+8]
  00044	2b ce		 sub	 ecx, esi
  00046	f7 f9		 idiv	 ecx
  00048	8d 04 16	 lea	 eax, DWORD PTR [esi+edx]
  0004b	89 45 f0	 mov	 DWORD PTR _iRandX$1$[ebp], eax

; 218  : 			iRandY = rand() % (g_RingMapPosition[i][3] - g_RingMapPosition[i][1]) + g_RingMapPosition[i][1];

  0004e	8b 45 fc	 mov	 eax, DWORD PTR tv678[ebp]
  00051	8b 70 04	 mov	 esi, DWORD PTR [eax+4]
  00054	e8 00 00 00 00	 call	 _rand
  00059	8b 4d fc	 mov	 ecx, DWORD PTR tv678[ebp]
  0005c	99		 cdq
  0005d	8b 49 0c	 mov	 ecx, DWORD PTR [ecx+12]
  00060	2b ce		 sub	 ecx, esi
  00062	f7 f9		 idiv	 ecx

; 219  : 
; 220  : 			if ( this->m_RingMonsterHerd[i].SetTotalInfo(g_RingEventMapNum[i] , 3, iRandX, iRandY ) != FALSE )

  00064	8b 03		 mov	 eax, DWORD PTR [ebx]
  00066	8d 0c 16	 lea	 ecx, DWORD PTR [esi+edx]
  00069	8b 75 f0	 mov	 esi, DWORD PTR _iRandX$1$[ebp]
  0006c	51		 push	 ecx
  0006d	89 4d ec	 mov	 DWORD PTR _iRandY$1$[ebp], ecx
  00070	8b 4d f8	 mov	 ecx, DWORD PTR tv679[ebp]
  00073	56		 push	 esi
  00074	6a 03		 push	 3
  00076	ff 31		 push	 DWORD PTR [ecx]
  00078	8b cb		 mov	 ecx, ebx
  0007a	ff 50 04	 call	 DWORD PTR [eax+4]
  0007d	85 c0		 test	 eax, eax
  0007f	75 09		 jne	 SHORT $LN6@StartEvent

; 214  : 
; 215  : 		while ( iCount-- != 0 )

  00081	8b 4d fc	 mov	 ecx, DWORD PTR tv678[ebp]
  00084	85 ff		 test	 edi, edi
  00086	75 ad		 jne	 SHORT $LL5@StartEvent

; 250  : 			{
; 251  : 				if ( this->m_RingMonsterHerd[i].AddMonster(pRMD.m_iType, pRMD.m_bDoRegen, pRMD.m_bDoAttackFirst) != FALSE )

  00088	eb 04		 jmp	 SHORT $LN127@StartEvent
$LN6@StartEvent:

; 221  : 			{
; 222  : 				break;
; 223  : 			}
; 224  : 		}
; 225  : 
; 226  : 		if ( iCount == 0 )

  0008a	85 ff		 test	 edi, edi
  0008c	74 3d		 je	 SHORT $LN128@StartEvent
$LN127@StartEvent:
; File c:\program files (x86)\microsoft visual studio 14.0\vc\include\vector

; 1189 : 		return (this->_Myfirst() == this->_Mylast());

  0008e	8b 7d f4	 mov	 edi, DWORD PTR _this$1$[ebp]
  00091	8b 87 04 01 00
	00		 mov	 eax, DWORD PTR [edi+260]
  00097	3b 87 08 01 00
	00		 cmp	 eax, DWORD PTR [edi+264]
; File c:\users\michel\desktop\source\gameserver\source\ringattackevent.cpp

; 232  : 			if ( this->m_vtMonsterAddData.empty() != false )

  0009d	75 13		 jne	 SHORT $LN16@StartEvent

; 233  : 			{
; 234  : 				LogAddTD("[Ring Event] - Error : No Monster Data Exist");

  0009f	68 00 00 00 00	 push	 OFFSET ??_C@_0CN@EBKICF@?$FLRing?5Event?$FN?5?9?5Error?5?3?5No?5Monste@
  000a4	ff 15 00 00 00
	00		 call	 DWORD PTR ?LogAddTD@@3P6AXPADZZA ; LogAddTD
  000aa	83 c4 04	 add	 esp, 4

; 235  : 				continue;

  000ad	e9 79 00 00 00	 jmp	 $LN2@StartEvent
$LN16@StartEvent:

; 236  : 			}
; 237  : 
; 238  : 			LogAddTD("[Ring Event] - Monster Start Position MapNumber:%d, X:%d, Y:%d",

  000b2	ff 75 ec	 push	 DWORD PTR _iRandY$1$[ebp]
  000b5	8b 45 f8	 mov	 eax, DWORD PTR tv679[ebp]
  000b8	56		 push	 esi
  000b9	ff 30		 push	 DWORD PTR [eax]
  000bb	68 00 00 00 00	 push	 OFFSET ??_C@_0DP@FPIHCFEB@?$FLRing?5Event?$FN?5?9?5Monster?5Start?5Pos@
  000c0	ff 15 00 00 00
	00		 call	 DWORD PTR ?LogAddTD@@3P6AXPADZZA ; LogAddTD
  000c6	83 c4 10	 add	 esp, 16			; 00000010H
  000c9	eb 03		 jmp	 SHORT $LN15@StartEvent
$LN128@StartEvent:
  000cb	8b 7d f4	 mov	 edi, DWORD PTR _this$1$[ebp]
$LN15@StartEvent:

; 239  : 				g_RingEventMapNum[i], iRandX, iRandY);
; 240  : 		}
; 241  : 
; 242  : 		EnterCriticalSection(&this->m_critMonsterAddData);

  000ce	8d 87 10 01 00
	00		 lea	 eax, DWORD PTR [edi+272]
  000d4	50		 push	 eax
  000d5	89 45 ec	 mov	 DWORD PTR tv681[ebp], eax
  000d8	ff 15 00 00 00
	00		 call	 DWORD PTR __imp__EnterCriticalSection@4
; File c:\program files (x86)\microsoft visual studio 14.0\vc\include\vector

; 46   : 		: _Ptr(_Parg)

  000de	8b b7 04 01 00
	00		 mov	 esi, DWORD PTR [edi+260]

; 206  : 		return (this->_Ptr == _Right._Ptr);

  000e4	3b b7 08 01 00
	00		 cmp	 esi, DWORD PTR [edi+264]
; File c:\users\michel\desktop\source\gameserver\source\ringattackevent.cpp

; 244  : 		for ( std::vector<RINGMONSTER_DATA>::iterator it = this->m_vtMonsterAddData.begin() ; it != this->m_vtMonsterAddData.end() ; it++)

  000ea	74 2f		 je	 SHORT $LN8@StartEvent
  000ec	0f 1f 40 00	 npad	 4
$LL9@StartEvent:

; 245  : 		{
; 246  : 			RINGMONSTER_DATA & pRMD = *it;
; 247  : 			iCount = 100;

  000f0	bf 64 00 00 00	 mov	 edi, 100		; 00000064H
$LL10@StartEvent:

; 250  : 			{
; 251  : 				if ( this->m_RingMonsterHerd[i].AddMonster(pRMD.m_iType, pRMD.m_bDoRegen, pRMD.m_bDoAttackFirst) != FALSE )

  000f5	ff 76 08	 push	 DWORD PTR [esi+8]
  000f8	8b 03		 mov	 eax, DWORD PTR [ebx]
  000fa	8b cb		 mov	 ecx, ebx
  000fc	ff 76 04	 push	 DWORD PTR [esi+4]
  000ff	4f		 dec	 edi
  00100	ff 36		 push	 DWORD PTR [esi]
  00102	ff 50 08	 call	 DWORD PTR [eax+8]
  00105	85 c0		 test	 eax, eax
  00107	75 04		 jne	 SHORT $LN7@StartEvent

; 248  : 
; 249  : 			while ( iCount-- != 0 )

  00109	85 ff		 test	 edi, edi
  0010b	75 e8		 jne	 SHORT $LL10@StartEvent
$LN7@StartEvent:
; File c:\program files (x86)\microsoft visual studio 14.0\vc\include\vector

; 206  : 		return (this->_Ptr == _Right._Ptr);

  0010d	8b 45 f4	 mov	 eax, DWORD PTR _this$1$[ebp]

; 47   : 		{	// construct with pointer _Parg
; 48   : 		this->_Adopt(_Pvector);
; 49   : 		}
; 50   : 
; 51   : 	typedef pointer _Unchecked_type;
; 52   : 
; 53   : 	_Myiter& _Rechecked(_Unchecked_type _Right)
; 54   : 		{	// reset from unchecked iterator
; 55   : 		this->_Ptr = (_Tptr)_Right;
; 56   : 		return (*this);
; 57   : 		}
; 58   : 
; 59   : 	_Unchecked_type _Unchecked() const
; 60   : 		{	// make an unchecked iterator
; 61   : 		return (_Unchecked_type(this->_Ptr));
; 62   : 		}
; 63   : 
; 64   : 	reference operator*() const
; 65   : 		{	// return designated object
; 66   :  #if _ITERATOR_DEBUG_LEVEL == 2
; 67   : 		if (this->_Getcont() == 0
; 68   : 			|| this->_Ptr == 0
; 69   : 			|| this->_Ptr < ((_Myvec *)this->_Getcont())->_Myfirst
; 70   : 			|| ((_Myvec *)this->_Getcont())->_Mylast <= this->_Ptr)
; 71   : 			{	// report error
; 72   : 			_DEBUG_ERROR("vector iterator not dereferencable");
; 73   : 			_SCL_SECURE_OUT_OF_RANGE;
; 74   : 			}
; 75   : 
; 76   :  #elif _ITERATOR_DEBUG_LEVEL == 1
; 77   : 		_SCL_SECURE_VALIDATE(this->_Getcont() != 0);
; 78   : 		_SCL_SECURE_VALIDATE_RANGE(
; 79   : 			this->_Ptr != _Tptr()
; 80   : 			&& ((_Myvec *)this->_Getcont())->_Myfirst <= this->_Ptr
; 81   : 			&& this->_Ptr < ((_Myvec *)this->_Getcont())->_Mylast);
; 82   :  #endif /* _ITERATOR_DEBUG_LEVEL */
; 83   : 
; 84   : 		_Analysis_assume_(this->_Ptr != _Tptr());
; 85   : 
; 86   : 		return (*this->_Ptr);
; 87   : 		}
; 88   : 
; 89   : 	pointer operator->() const
; 90   : 		{	// return pointer to class object
; 91   : 		return (_STD pointer_traits<pointer>::pointer_to(**this));
; 92   : 		}
; 93   : 
; 94   : 	_Myiter& operator++()
; 95   : 		{	// preincrement
; 96   :  #if _ITERATOR_DEBUG_LEVEL == 2
; 97   : 		if (this->_Getcont() == 0
; 98   : 			|| this->_Ptr == 0
; 99   : 			|| ((_Myvec *)this->_Getcont())->_Mylast <= this->_Ptr)
; 100  : 			{	// report error
; 101  : 			_DEBUG_ERROR("vector iterator not incrementable");
; 102  : 			_SCL_SECURE_OUT_OF_RANGE;
; 103  : 			}
; 104  : 
; 105  :  #elif _ITERATOR_DEBUG_LEVEL == 1
; 106  : 		_SCL_SECURE_VALIDATE(this->_Getcont() != 0);
; 107  : 		_SCL_SECURE_VALIDATE_RANGE(
; 108  : 			this->_Ptr != _Tptr()
; 109  : 			&& this->_Ptr < ((_Myvec *)this->_Getcont())->_Mylast);
; 110  :  #endif /* _ITERATOR_DEBUG_LEVEL */
; 111  : 
; 112  : 		++this->_Ptr;

  00110	83 c6 0c	 add	 esi, 12			; 0000000cH

; 206  : 		return (this->_Ptr == _Right._Ptr);

  00113	3b b0 08 01 00
	00		 cmp	 esi, DWORD PTR [eax+264]
; File c:\users\michel\desktop\source\gameserver\source\ringattackevent.cpp

; 244  : 		for ( std::vector<RINGMONSTER_DATA>::iterator it = this->m_vtMonsterAddData.begin() ; it != this->m_vtMonsterAddData.end() ; it++)

  00119	75 d5		 jne	 SHORT $LL9@StartEvent
$LN8@StartEvent:

; 252  : 				{
; 253  : 					break;
; 254  : 				}
; 255  : 			}
; 256  : 		}
; 257  : 
; 258  : 		LeaveCriticalSection(&this->m_critMonsterAddData);

  0011b	ff 75 ec	 push	 DWORD PTR tv681[ebp]
  0011e	ff 15 00 00 00
	00		 call	 DWORD PTR __imp__LeaveCriticalSection@4

; 259  : 		this->m_RingMonsterHerd[i].Start();

  00124	8b 03		 mov	 eax, DWORD PTR [ebx]
  00126	8b cb		 mov	 ecx, ebx
  00128	ff 50 14	 call	 DWORD PTR [eax+20]
$LN2@StartEvent:

; 207  : 	{
; 208  : 		return;
; 209  : 	}
; 210  : 
; 211  : 	for ( int i=0;i<MAX_RINGMONSTER_MAP;i++)

  0012b	8b 4d fc	 mov	 ecx, DWORD PTR tv678[ebp]
  0012e	83 c3 44	 add	 ebx, 68			; 00000044H
  00131	83 45 f8 04	 add	 DWORD PTR tv679[ebp], 4
  00135	83 c1 10	 add	 ecx, 16			; 00000010H
  00138	89 4d fc	 mov	 DWORD PTR tv678[ebp], ecx
  0013b	81 f9 30 00 00
	00		 cmp	 ecx, OFFSET ?g_RingMapPosition@@3PAY03HA+48
  00141	0f 8c e9 fe ff
	ff		 jl	 $LL4@StartEvent
  00147	5f		 pop	 edi
  00148	5e		 pop	 esi
  00149	5b		 pop	 ebx
$LN3@StartEvent:

; 260  : 	}
; 261  : }

  0014a	8b e5		 mov	 esp, ebp
  0014c	5d		 pop	 ebp
  0014d	c3		 ret	 0
?StartEvent@CRingAttackEvent@@QAEXXZ ENDP		; CRingAttackEvent::StartEvent
_TEXT	ENDS
; Function compile flags: /Ogtp
; File c:\users\michel\desktop\source\gameserver\source\ringattackevent.cpp
; File c:\program files (x86)\microsoft visual studio 14.0\vc\include\vector
; File c:\users\michel\desktop\source\gameserver\source\ringattackevent.cpp
; File c:\program files (x86)\microsoft visual studio 14.0\vc\include\vector
; File c:\users\michel\desktop\source\gameserver\source\ringattackevent.cpp
; File c:\program files (x86)\microsoft visual studio 14.0\vc\include\vector
; File c:\program files (x86)\microsoft visual studio 14.0\vc\include\xmemory0
; File c:\program files (x86)\microsoft visual studio 14.0\vc\include\vector
; File c:\program files (x86)\microsoft visual studio 14.0\vc\include\xmemory0
; File c:\program files (x86)\microsoft visual studio 14.0\vc\include\vector
; File c:\users\michel\desktop\source\gameserver\source\ringattackevent.cpp
;	COMDAT ??1CRingAttackEvent@@UAE@XZ
_TEXT	SEGMENT
__$EHRec$ = -12						; size = 12
??1CRingAttackEvent@@UAE@XZ PROC			; CRingAttackEvent::~CRingAttackEvent, COMDAT
; _this$ = ecx

; 196  : {

  00000	55		 push	 ebp
  00001	8b ec		 mov	 ebp, esp
  00003	6a ff		 push	 -1
  00005	68 00 00 00 00	 push	 __ehhandler$??1CRingAttackEvent@@UAE@XZ
  0000a	64 a1 00 00 00
	00		 mov	 eax, DWORD PTR fs:0
  00010	50		 push	 eax
  00011	53		 push	 ebx
  00012	56		 push	 esi
  00013	57		 push	 edi
  00014	a1 00 00 00 00	 mov	 eax, DWORD PTR ___security_cookie
  00019	33 c5		 xor	 eax, ebp
  0001b	50		 push	 eax
  0001c	8d 45 f4	 lea	 eax, DWORD PTR __$EHRec$[ebp]
  0001f	64 a3 00 00 00
	00		 mov	 DWORD PTR fs:0, eax
  00025	8b f9		 mov	 edi, ecx

; 197  : 	DeleteCriticalSection(&this->m_critMonsterAddData);

  00027	8d 87 10 01 00
	00		 lea	 eax, DWORD PTR [edi+272]
  0002d	c7 07 00 00 00
	00		 mov	 DWORD PTR [edi], OFFSET ??_7CRingAttackEvent@@6B@
  00033	50		 push	 eax
  00034	ff 15 00 00 00
	00		 call	 DWORD PTR __imp__DeleteCriticalSection@4
; File c:\program files (x86)\microsoft visual studio 14.0\vc\include\vector

; 1656 : 		if (this->_Myfirst() != pointer())

  0003a	8b 8f 28 01 00
	00		 mov	 ecx, DWORD PTR [edi+296]
; File c:\users\michel\desktop\source\gameserver\source\ringattackevent.cpp

; 198  : }

  00040	8d b7 28 01 00
	00		 lea	 esi, DWORD PTR [edi+296]
; File c:\program files (x86)\microsoft visual studio 14.0\vc\include\vector

; 1656 : 		if (this->_Myfirst() != pointer())

  00046	85 c9		 test	 ecx, ecx
  00048	74 25		 je	 SHORT $LN7@CRingAttac

; 1660 : 			this->_Getal().deallocate(this->_Myfirst(),

  0004a	8b 46 08	 mov	 eax, DWORD PTR [esi+8]
  0004d	2b c1		 sub	 eax, ecx
  0004f	c1 f8 03	 sar	 eax, 3
  00052	50		 push	 eax
  00053	51		 push	 ecx
  00054	8b ce		 mov	 ecx, esi
  00056	e8 00 00 00 00	 call	 ?deallocate@?$_Wrap_alloc@V?$allocator@URINGMONSTER_EVENT_TIME@@@std@@@std@@QAEXPAURINGMONSTER_EVENT_TIME@@I@Z ; std::_Wrap_alloc<std::allocator<RINGMONSTER_EVENT_TIME> >::deallocate

; 1662 : 			this->_Myfirst() = pointer();

  0005b	c7 06 00 00 00
	00		 mov	 DWORD PTR [esi], 0

; 1663 : 			this->_Mylast() = pointer();

  00061	c7 46 04 00 00
	00 00		 mov	 DWORD PTR [esi+4], 0

; 1664 : 			this->_Myend() = pointer();

  00068	c7 46 08 00 00
	00 00		 mov	 DWORD PTR [esi+8], 0
$LN7@CRingAttac:

; 1656 : 		if (this->_Myfirst() != pointer())

  0006f	8b 9f 04 01 00
	00		 mov	 ebx, DWORD PTR [edi+260]
; File c:\users\michel\desktop\source\gameserver\source\ringattackevent.cpp

; 198  : }

  00075	8d b7 04 01 00
	00		 lea	 esi, DWORD PTR [edi+260]
; File c:\program files (x86)\microsoft visual studio 14.0\vc\include\vector

; 1656 : 		if (this->_Myfirst() != pointer())

  0007b	85 db		 test	 ebx, ebx
  0007d	74 32		 je	 SHORT $LN100@CRingAttac

; 1660 : 			this->_Getal().deallocate(this->_Myfirst(),

  0007f	8b 4e 08	 mov	 ecx, DWORD PTR [esi+8]
  00082	b8 ab aa aa 2a	 mov	 eax, 715827883		; 2aaaaaabH
  00087	2b cb		 sub	 ecx, ebx
  00089	f7 e9		 imul	 ecx
; File c:\program files (x86)\microsoft visual studio 14.0\vc\include\xmemory0

; 909  : 		_Mybase::deallocate(_Ptr, _Count);

  0008b	8b ce		 mov	 ecx, esi
; File c:\program files (x86)\microsoft visual studio 14.0\vc\include\vector

; 1660 : 			this->_Getal().deallocate(this->_Myfirst(),

  0008d	d1 fa		 sar	 edx, 1
  0008f	8b c2		 mov	 eax, edx
  00091	c1 e8 1f	 shr	 eax, 31			; 0000001fH
  00094	03 c2		 add	 eax, edx
; File c:\program files (x86)\microsoft visual studio 14.0\vc\include\xmemory0

; 909  : 		_Mybase::deallocate(_Ptr, _Count);

  00096	50		 push	 eax
  00097	53		 push	 ebx
  00098	e8 00 00 00 00	 call	 ?deallocate@?$allocator@URINGMONSTER_DATA@@@std@@QAEXPAURINGMONSTER_DATA@@I@Z ; std::allocator<RINGMONSTER_DATA>::deallocate
; File c:\program files (x86)\microsoft visual studio 14.0\vc\include\vector

; 1662 : 			this->_Myfirst() = pointer();

  0009d	c7 06 00 00 00
	00		 mov	 DWORD PTR [esi], 0

; 1663 : 			this->_Mylast() = pointer();

  000a3	c7 46 04 00 00
	00 00		 mov	 DWORD PTR [esi+4], 0

; 1664 : 			this->_Myend() = pointer();

  000aa	c7 46 08 00 00
	00 00		 mov	 DWORD PTR [esi+8], 0
$LN100@CRingAttac:
; File c:\users\michel\desktop\source\gameserver\source\ringattackevent.cpp

; 198  : }

  000b1	68 00 00 00 00	 push	 OFFSET ??1CRingMonsterHerd@@UAE@XZ ; CRingMonsterHerd::~CRingMonsterHerd
  000b6	6a 03		 push	 3
  000b8	6a 44		 push	 68			; 00000044H
  000ba	8d 47 04	 lea	 eax, DWORD PTR [edi+4]
  000bd	50		 push	 eax
  000be	e8 00 00 00 00	 call	 ??_M@YGXPAXIIP6EX0@Z@Z
  000c3	8b 4d f4	 mov	 ecx, DWORD PTR __$EHRec$[ebp]
  000c6	64 89 0d 00 00
	00 00		 mov	 DWORD PTR fs:0, ecx
  000cd	59		 pop	 ecx
  000ce	5f		 pop	 edi
  000cf	5e		 pop	 esi
  000d0	5b		 pop	 ebx
  000d1	8b e5		 mov	 esp, ebp
  000d3	5d		 pop	 ebp
  000d4	c3		 ret	 0
_TEXT	ENDS
;	COMDAT text$x
text$x	SEGMENT
__ehhandler$??1CRingAttackEvent@@UAE@XZ:
  00000	8b 54 24 08	 mov	 edx, DWORD PTR [esp+8]
  00004	8d 42 0c	 lea	 eax, DWORD PTR [edx+12]
  00007	8b 4a f0	 mov	 ecx, DWORD PTR [edx-16]
  0000a	33 c8		 xor	 ecx, eax
  0000c	e8 00 00 00 00	 call	 @__security_check_cookie@4
  00011	b8 00 00 00 00	 mov	 eax, OFFSET __ehfuncinfo$??1CRingAttackEvent@@UAE@XZ
  00016	e9 00 00 00 00	 jmp	 ___CxxFrameHandler3
text$x	ENDS
??1CRingAttackEvent@@UAE@XZ ENDP			; CRingAttackEvent::~CRingAttackEvent
; Function compile flags: /Ogtp
; File c:\users\michel\desktop\source\gameserver\source\ringattackevent.cpp
; File c:\program files (x86)\microsoft visual studio 14.0\vc\include\vector
; File c:\users\michel\desktop\source\gameserver\source\ringattackevent.cpp
; File c:\program files (x86)\microsoft visual studio 14.0\vc\include\vector
; File c:\users\michel\desktop\source\gameserver\source\ringattackevent.cpp
;	COMDAT ??0CRingAttackEvent@@QAE@XZ
_TEXT	SEGMENT
_this$ = -4						; size = 4
??0CRingAttackEvent@@QAE@XZ PROC			; CRingAttackEvent::CRingAttackEvent, COMDAT
; _this$ = ecx

; 185  : {

  00000	55		 push	 ebp
  00001	8b ec		 mov	 ebp, esp
  00003	51		 push	 ecx
  00004	56		 push	 esi
  00005	68 00 00 00 00	 push	 OFFSET ??1CRingMonsterHerd@@UAE@XZ ; CRingMonsterHerd::~CRingMonsterHerd
  0000a	8b f1		 mov	 esi, ecx
  0000c	68 00 00 00 00	 push	 OFFSET ??0CRingMonsterHerd@@QAE@XZ ; CRingMonsterHerd::CRingMonsterHerd
  00011	6a 03		 push	 3
  00013	6a 44		 push	 68			; 00000044H
  00015	8d 46 04	 lea	 eax, DWORD PTR [esi+4]
  00018	89 75 fc	 mov	 DWORD PTR _this$[ebp], esi
  0001b	50		 push	 eax
  0001c	c7 06 00 00 00
	00		 mov	 DWORD PTR [esi], OFFSET ??_7CRingAttackEvent@@6B@
  00022	e8 00 00 00 00	 call	 ??_L@YGXPAXIIP6EX0@Z1@Z
; File c:\program files (x86)\microsoft visual studio 14.0\vc\include\vector

; 480  : 		_Myfirst = pointer();

  00027	c7 86 04 01 00
	00 00 00 00 00	 mov	 DWORD PTR [esi+260], 0
; File c:\users\michel\desktop\source\gameserver\source\ringattackevent.cpp

; 191  : 	InitializeCriticalSection(&this->m_critMonsterAddData);

  00031	8d 86 10 01 00
	00		 lea	 eax, DWORD PTR [esi+272]
; File c:\program files (x86)\microsoft visual studio 14.0\vc\include\vector

; 481  : 		_Mylast = pointer();

  00037	c7 86 08 01 00
	00 00 00 00 00	 mov	 DWORD PTR [esi+264], 0

; 482  : 		_Myend = pointer();

  00041	c7 86 0c 01 00
	00 00 00 00 00	 mov	 DWORD PTR [esi+268], 0

; 480  : 		_Myfirst = pointer();

  0004b	c7 86 28 01 00
	00 00 00 00 00	 mov	 DWORD PTR [esi+296], 0

; 481  : 		_Mylast = pointer();

  00055	c7 86 2c 01 00
	00 00 00 00 00	 mov	 DWORD PTR [esi+300], 0

; 482  : 		_Myend = pointer();

  0005f	c7 86 30 01 00
	00 00 00 00 00	 mov	 DWORD PTR [esi+304], 0
; File c:\users\michel\desktop\source\gameserver\source\ringattackevent.cpp

; 191  : 	InitializeCriticalSection(&this->m_critMonsterAddData);

  00069	50		 push	 eax
  0006a	c7 86 d0 00 00
	00 00 00 00 00	 mov	 DWORD PTR [esi+208], 0
  00074	c7 86 d4 00 00
	00 00 00 00 00	 mov	 DWORD PTR [esi+212], 0
  0007e	c7 86 fc 00 00
	00 03 00 00 00	 mov	 DWORD PTR [esi+252], 3
  00088	c7 86 00 01 00
	00 06 00 00 00	 mov	 DWORD PTR [esi+256], 6
  00092	c7 86 f8 00 00
	00 0f 00 00 00	 mov	 DWORD PTR [esi+248], 15	; 0000000fH
  0009c	ff 15 00 00 00
	00		 call	 DWORD PTR __imp__InitializeCriticalSection@4

; 192  : }

  000a2	8b c6		 mov	 eax, esi
  000a4	5e		 pop	 esi
  000a5	8b e5		 mov	 esp, ebp
  000a7	5d		 pop	 ebp
  000a8	c3		 ret	 0
??0CRingAttackEvent@@QAE@XZ ENDP			; CRingAttackEvent::CRingAttackEvent
_TEXT	ENDS
; Function compile flags: /Ogtp
;	COMDAT ??_GCRingMonsterHerd@@UAEPAXI@Z
_TEXT	SEGMENT
___flags$ = 8						; size = 4
??_GCRingMonsterHerd@@UAEPAXI@Z PROC			; CRingMonsterHerd::`scalar deleting destructor', COMDAT
; _this$ = ecx
  00000	55		 push	 ebp
  00001	8b ec		 mov	 ebp, esp
  00003	56		 push	 esi
  00004	8b f1		 mov	 esi, ecx
  00006	e8 00 00 00 00	 call	 ??1CRingMonsterHerd@@UAE@XZ ; CRingMonsterHerd::~CRingMonsterHerd
  0000b	f6 45 08 01	 test	 BYTE PTR ___flags$[ebp], 1
  0000f	74 0b		 je	 SHORT $LN4@scalar
  00011	6a 44		 push	 68			; 00000044H
  00013	56		 push	 esi
  00014	e8 00 00 00 00	 call	 ??3@YAXPAXI@Z		; operator delete
  00019	83 c4 08	 add	 esp, 8
$LN4@scalar:
  0001c	8b c6		 mov	 eax, esi
  0001e	5e		 pop	 esi
  0001f	5d		 pop	 ebp
  00020	c2 04 00	 ret	 4
??_GCRingMonsterHerd@@UAEPAXI@Z ENDP			; CRingMonsterHerd::`scalar deleting destructor'
_TEXT	ENDS
; Function compile flags: /Ogtp
; File c:\users\michel\desktop\source\gameserver\source\ringattackevent.cpp
;	COMDAT ?MonsterAttackAction@CRingMonsterHerd@@UAEXPAUOBJECTSTRUCT@@0@Z
_TEXT	SEGMENT
_lpObj$ = 8						; size = 4
_lpTargetObj$ = 12					; size = 4
?MonsterAttackAction@CRingMonsterHerd@@UAEXPAUOBJECTSTRUCT@@0@Z PROC ; CRingMonsterHerd::MonsterAttackAction, COMDAT
; _this$ = ecx

; 79   : {

  00000	55		 push	 ebp
  00001	8b ec		 mov	 ebp, esp
  00003	53		 push	 ebx
  00004	56		 push	 esi

; 80   : 	if ( lpObj == NULL )

  00005	8b 75 08	 mov	 esi, DWORD PTR _lpObj$[ebp]
  00008	8b d9		 mov	 ebx, ecx
  0000a	85 f6		 test	 esi, esi
  0000c	0f 84 85 00 00
	00		 je	 $LN7@MonsterAtt

; 81   : 	{
; 82   : 		return;
; 83   : 	}
; 84   : 
; 85   : 	if ( lpTargetObj == NULL )

  00012	57		 push	 edi
  00013	8b 7d 0c	 mov	 edi, DWORD PTR _lpTargetObj$[ebp]
  00016	85 ff		 test	 edi, edi
  00018	74 7c		 je	 SHORT $LN11@MonsterAtt

; 86   : 	{
; 87   : 		return;
; 88   : 	}
; 89   : 
; 90   : 	if ( gObjCheckUsedBuffEffect(lpObj,BUFF_ICEARROW) == TRUE ||
; 91   : 		 gObjCheckUsedBuffEffect(lpObj,BUFF_STUN) == TRUE ||
; 92   : 		 gObjCheckUsedBuffEffect(lpObj,BUFF_SLEEP) == TRUE ||
; 93   : 		 gObjCheckUsedBuffEffect(lpObj,BUFF_FREEZE) == TRUE ||

  0001a	6a 39		 push	 57			; 00000039H
  0001c	56		 push	 esi
  0001d	e8 00 00 00 00	 call	 ?gObjCheckUsedBuffEffect@@YA_NPAUOBJECTSTRUCT@@H@Z ; gObjCheckUsedBuffEffect
  00022	83 c4 08	 add	 esp, 8
  00025	3c 01		 cmp	 al, 1
  00027	74 6d		 je	 SHORT $LN11@MonsterAtt
  00029	6a 3d		 push	 61			; 0000003dH
  0002b	56		 push	 esi
  0002c	e8 00 00 00 00	 call	 ?gObjCheckUsedBuffEffect@@YA_NPAUOBJECTSTRUCT@@H@Z ; gObjCheckUsedBuffEffect
  00031	83 c4 08	 add	 esp, 8
  00034	3c 01		 cmp	 al, 1
  00036	74 5e		 je	 SHORT $LN11@MonsterAtt
  00038	6a 48		 push	 72			; 00000048H
  0003a	56		 push	 esi
  0003b	e8 00 00 00 00	 call	 ?gObjCheckUsedBuffEffect@@YA_NPAUOBJECTSTRUCT@@H@Z ; gObjCheckUsedBuffEffect
  00040	83 c4 08	 add	 esp, 8
  00043	3c 01		 cmp	 al, 1
  00045	74 4f		 je	 SHORT $LN11@MonsterAtt
  00047	68 92 00 00 00	 push	 146			; 00000092H
  0004c	56		 push	 esi
  0004d	e8 00 00 00 00	 call	 ?gObjCheckUsedBuffEffect@@YA_NPAUOBJECTSTRUCT@@H@Z ; gObjCheckUsedBuffEffect
  00052	83 c4 08	 add	 esp, 8
  00055	3c 01		 cmp	 al, 1
  00057	74 3d		 je	 SHORT $LN11@MonsterAtt
  00059	68 93 00 00 00	 push	 147			; 00000093H
  0005e	56		 push	 esi
  0005f	e8 00 00 00 00	 call	 ?gObjCheckUsedBuffEffect@@YA_NPAUOBJECTSTRUCT@@H@Z ; gObjCheckUsedBuffEffect
  00064	83 c4 08	 add	 esp, 8
  00067	3c 01		 cmp	 al, 1
  00069	74 2b		 je	 SHORT $LN11@MonsterAtt

; 94   : 		 gObjCheckUsedBuffEffect(lpObj,BUFF_EARTHBINDS) == TRUE )
; 95   : 	{
; 96   : 		return;
; 97   : 	}
; 98   : 
; 99   : 	if ( lpObj->Connected < PLAYER_PLAYING || lpObj->Type != OBJ_MONSTER )

  0006b	83 7e 04 03	 cmp	 DWORD PTR [esi+4], 3
  0006f	7c 25		 jl	 SHORT $LN11@MonsterAtt
  00071	80 7e 50 02	 cmp	 BYTE PTR [esi+80], 2
  00075	75 1f		 jne	 SHORT $LN11@MonsterAtt

; 100  : 	{
; 101  : 		return;
; 102  : 	}
; 103  : 
; 104  : 	if ( lpTargetObj->Connected < PLAYER_PLAYING )

  00077	83 7f 04 03	 cmp	 DWORD PTR [edi+4], 3
  0007b	7c 19		 jl	 SHORT $LN11@MonsterAtt

; 105  : 	{
; 106  : 		return;
; 107  : 	}
; 108  : 
; 109  : 	if ( lpObj->Class == 135 )

  0007d	b8 87 00 00 00	 mov	 eax, 135		; 00000087H
  00082	66 39 86 90 00
	00 00		 cmp	 WORD PTR [esi+144], ax
  00089	75 0b		 jne	 SHORT $LN11@MonsterAtt

; 110  : 	{
; 111  : 		this->OrderAttack(lpObj, lpTargetObj, 90 );

  0008b	8b 03		 mov	 eax, DWORD PTR [ebx]
  0008d	8b cb		 mov	 ecx, ebx
  0008f	6a 5a		 push	 90			; 0000005aH
  00091	57		 push	 edi
  00092	56		 push	 esi
  00093	ff 50 3c	 call	 DWORD PTR [eax+60]
$LN11@MonsterAtt:
  00096	5f		 pop	 edi
$LN7@MonsterAtt:
  00097	5e		 pop	 esi
  00098	5b		 pop	 ebx

; 112  : 	}
; 113  : }

  00099	5d		 pop	 ebp
  0009a	c2 08 00	 ret	 8
?MonsterAttackAction@CRingMonsterHerd@@UAEXPAUOBJECTSTRUCT@@0@Z ENDP ; CRingMonsterHerd::MonsterAttackAction
_TEXT	ENDS
; Function compile flags: /Ogtp
; File c:\users\michel\desktop\source\gameserver\source\ringattackevent.cpp
;	COMDAT ?MonsterHerdItemDrop@CRingMonsterHerd@@UAEHPAUOBJECTSTRUCT@@@Z
_TEXT	SEGMENT
_szTemp$1 = -260					; size = 256
__$ArrayPad$ = -4					; size = 4
_lpObj$ = 8						; size = 4
?MonsterHerdItemDrop@CRingMonsterHerd@@UAEHPAUOBJECTSTRUCT@@@Z PROC ; CRingMonsterHerd::MonsterHerdItemDrop, COMDAT
; _this$ = ecx

; 33   : {

  00000	55		 push	 ebp
  00001	8b ec		 mov	 ebp, esp
  00003	81 ec 04 01 00
	00		 sub	 esp, 260		; 00000104H
  00009	a1 00 00 00 00	 mov	 eax, DWORD PTR ___security_cookie
  0000e	33 c5		 xor	 eax, ebp
  00010	89 45 fc	 mov	 DWORD PTR __$ArrayPad$[ebp], eax
  00013	56		 push	 esi
  00014	57		 push	 edi
  00015	8b 7d 08	 mov	 edi, DWORD PTR _lpObj$[ebp]
  00018	8b f1		 mov	 esi, ecx

; 34   : 	
; 35   : 	if ( lpObj->Class == 135 )

  0001a	b9 87 00 00 00	 mov	 ecx, 135		; 00000087H
  0001f	0f b7 87 90 00
	00 00		 movzx	 eax, WORD PTR [edi+144]
  00026	66 3b c1	 cmp	 ax, cx
  00029	0f 85 bf 00 00
	00		 jne	 $LN2@MonsterHer

; 36   : 	{
; 37   : 		int iIndex = gObjMonsterTopHitDamageUser(lpObj);

  0002f	57		 push	 edi
  00030	e8 00 00 00 00	 call	 ?gObjMonsterTopHitDamageUser@@YAHPAUOBJECTSTRUCT@@@Z ; gObjMonsterTopHitDamageUser

; 38   : 		int itemnumber = ItemGetNumberMake(14, 13);

  00035	6a 0d		 push	 13			; 0000000dH
  00037	6a 0e		 push	 14			; 0000000eH
  00039	8b f0		 mov	 esi, eax
  0003b	e8 00 00 00 00	 call	 ?ItemGetNumberMake@@YAHHH@Z ; ItemGetNumberMake

; 39   : 		ItemSerialCreateSend(lpObj->m_Index, lpObj->MapNumber, lpObj->X, lpObj->Y,

  00040	6a 00		 push	 0
  00042	6a 00		 push	 0
  00044	6a 00		 push	 0
  00046	6a 00		 push	 0
  00048	56		 push	 esi
  00049	6a 00		 push	 0
  0004b	6a 00		 push	 0
  0004d	6a 00		 push	 0
  0004f	6a 00		 push	 0
  00051	6a 00		 push	 0
  00053	50		 push	 eax
  00054	0f b6 87 21 01
	00 00		 movzx	 eax, BYTE PTR [edi+289]
  0005b	50		 push	 eax
  0005c	0f b6 87 20 01
	00 00		 movzx	 eax, BYTE PTR [edi+288]
  00063	50		 push	 eax
  00064	0f b6 87 23 01
	00 00		 movzx	 eax, BYTE PTR [edi+291]
  0006b	50		 push	 eax
  0006c	ff 37		 push	 DWORD PTR [edi]
  0006e	e8 00 00 00 00	 call	 ?ItemSerialCreateSend@@YAXHEEEHEEEEEHEEEPAE@Z ; ItemSerialCreateSend

; 40   : 			itemnumber, 0, 0, 0, 0, 0, iIndex, 0, 0);
; 41   : 		char szTemp[256];
; 42   : 		wsprintf(szTemp, lMsg.Get(MSGGET(4, 181)), gObj[iIndex].Name, gMapName[lpObj->MapNumber]);	// #error Apply Deathway fix here

  00073	0f b6 87 23 01
	00 00		 movzx	 eax, BYTE PTR [edi+291]
  0007a	83 c4 48	 add	 esp, 72			; 00000048H
  0007d	c1 e0 06	 shl	 eax, 6
  00080	b9 00 00 00 00	 mov	 ecx, OFFSET ?lMsg@@3VMessage@@A ; lMsg
  00085	05 00 00 00 00	 add	 eax, OFFSET ?gMapName@@3PAY0EA@DA ; gMapName
  0008a	69 f6 40 27 00
	00		 imul	 esi, esi, 10048
  00090	50		 push	 eax
  00091	a1 00 00 00 00	 mov	 eax, DWORD PTR ?gObj@@3PAUOBJECTSTRUCT@@A ; gObj
  00096	83 c0 5d	 add	 eax, 93			; 0000005dH
  00099	03 c6		 add	 eax, esi
  0009b	50		 push	 eax
  0009c	68 b5 04 00 00	 push	 1205			; 000004b5H
  000a1	e8 00 00 00 00	 call	 ?Get@Message@@QAEPADH@Z	; Message::Get
  000a6	50		 push	 eax
  000a7	8d 85 fc fe ff
	ff		 lea	 eax, DWORD PTR _szTemp$1[ebp]
  000ad	50		 push	 eax
  000ae	ff 15 00 00 00
	00		 call	 DWORD PTR __imp__wsprintfA

; 43   : 		AllSendServerMsg(szTemp); 

  000b4	8d 85 fc fe ff
	ff		 lea	 eax, DWORD PTR _szTemp$1[ebp]
  000ba	50		 push	 eax
  000bb	e8 00 00 00 00	 call	 ?AllSendServerMsg@@YAXPAD@Z ; AllSendServerMsg

; 44   : 		LogAddTD("[Ring Event] White Wizard Killed by [%s][%s], MapNumber:%d",

  000c0	8b 0d 00 00 00
	00		 mov	 ecx, DWORD PTR ?gObj@@3PAUOBJECTSTRUCT@@A ; gObj
  000c6	0f b6 84 31 23
	01 00 00	 movzx	 eax, BYTE PTR [ecx+esi+291]
  000ce	50		 push	 eax
  000cf	8d 41 5d	 lea	 eax, DWORD PTR [ecx+93]
  000d2	03 c6		 add	 eax, esi
  000d4	50		 push	 eax
  000d5	8d 41 52	 lea	 eax, DWORD PTR [ecx+82]
  000d8	03 c6		 add	 eax, esi
  000da	50		 push	 eax
  000db	68 00 00 00 00	 push	 OFFSET ??_C@_0DL@ELDBHEBB@?$FLRing?5Event?$FN?5White?5Wizard?5Killed@
  000e0	ff 15 00 00 00
	00		 call	 DWORD PTR ?LogAddTD@@3P6AXPADZZA ; LogAddTD
  000e6	83 c4 24	 add	 esp, 36			; 00000024H

; 45   : 			gObj[iIndex].AccountID, gObj[iIndex].Name, gObj[iIndex].MapNumber);
; 46   : 
; 47   : 		return TRUE;

  000e9	e9 d5 00 00 00	 jmp	 $LN8@MonsterHer
$LN2@MonsterHer:

; 48   : 
; 49   : 	}
; 50   : 	
; 51   : 	if ( lpObj->Class == 136 || lpObj->Class == 137)

  000ee	b9 88 00 00 00	 mov	 ecx, 136		; 00000088H
  000f3	66 3b c1	 cmp	 ax, cx
  000f6	74 1e		 je	 SHORT $LN4@MonsterHer
  000f8	b9 89 00 00 00	 mov	 ecx, 137		; 00000089H
  000fd	66 3b c1	 cmp	 ax, cx
  00100	74 14		 je	 SHORT $LN4@MonsterHer

; 70   : 		return TRUE;
; 71   : 	}
; 72   : 
; 73   : 	return FALSE;

  00102	5f		 pop	 edi
  00103	33 c0		 xor	 eax, eax
  00105	5e		 pop	 esi

; 74   : 
; 75   : }

  00106	8b 4d fc	 mov	 ecx, DWORD PTR __$ArrayPad$[ebp]
  00109	33 cd		 xor	 ecx, ebp
  0010b	e8 00 00 00 00	 call	 @__security_check_cookie@4
  00110	8b e5		 mov	 esp, ebp
  00112	5d		 pop	 ebp
  00113	c2 04 00	 ret	 4
$LN4@MonsterHer:

; 52   : 	{
; 53   : 		if ( (rand()%100) < 30 )

  00116	e8 00 00 00 00	 call	 _rand
  0011b	99		 cdq
  0011c	b9 64 00 00 00	 mov	 ecx, 100		; 00000064H
  00121	f7 f9		 idiv	 ecx
  00123	83 fa 1e	 cmp	 edx, 30			; 0000001eH
  00126	7d 49		 jge	 SHORT $LN5@MonsterHer

; 54   : 		{
; 55   : 			int iIndex = gObjMonsterTopHitDamageUser(lpObj);

  00128	57		 push	 edi
  00129	e8 00 00 00 00	 call	 ?gObjMonsterTopHitDamageUser@@YAHPAUOBJECTSTRUCT@@@Z ; gObjMonsterTopHitDamageUser

; 56   : 			int itemnumber = ItemGetNumberMake(13, 20);	// Wizards Ring

  0012e	6a 14		 push	 20			; 00000014H
  00130	6a 0d		 push	 13			; 0000000dH
  00132	8b f0		 mov	 esi, eax
  00134	e8 00 00 00 00	 call	 ?ItemGetNumberMake@@YAHHH@Z ; ItemGetNumberMake

; 57   : 			ItemSerialCreateSend(lpObj->m_Index, lpObj->MapNumber, lpObj->X, lpObj->Y,

  00139	6a 00		 push	 0
  0013b	6a 00		 push	 0
  0013d	6a 00		 push	 0
  0013f	6a 00		 push	 0
  00141	56		 push	 esi
  00142	6a 00		 push	 0
  00144	6a 00		 push	 0
  00146	6a 00		 push	 0
  00148	6a 1e		 push	 30			; 0000001eH
  0014a	6a 00		 push	 0
  0014c	50		 push	 eax
  0014d	0f b6 87 21 01
	00 00		 movzx	 eax, BYTE PTR [edi+289]
  00154	50		 push	 eax
  00155	0f b6 87 20 01
	00 00		 movzx	 eax, BYTE PTR [edi+288]
  0015c	50		 push	 eax
  0015d	0f b6 87 23 01
	00 00		 movzx	 eax, BYTE PTR [edi+291]
  00164	50		 push	 eax
  00165	ff 37		 push	 DWORD PTR [edi]
  00167	e8 00 00 00 00	 call	 ?ItemSerialCreateSend@@YAXHEEEHEEEEEHEEEPAE@Z ; ItemSerialCreateSend
  0016c	83 c4 48	 add	 esp, 72			; 00000048H

; 58   : 				itemnumber, 0, 30, 0, 0, 0, iIndex, 0, 0);
; 59   : 			return TRUE;

  0016f	eb 52		 jmp	 SHORT $LN8@MonsterHer
$LN5@MonsterHer:

; 60   : 		}
; 61   : 		
; 62   : 		if ( (rand() % g_iRingOrcKillGiftRate) == 0 )

  00171	e8 00 00 00 00	 call	 _rand
  00176	99		 cdq
  00177	f7 3d 00 00 00
	00		 idiv	 DWORD PTR ?g_iRingOrcKillGiftRate@@3HA ; g_iRingOrcKillGiftRate
  0017d	85 d2		 test	 edx, edx
  0017f	75 15		 jne	 SHORT $LN6@MonsterHer

; 63   : 		{
; 64   : 			int iIndex = gObjMonsterTopHitDamageUser(lpObj);

  00181	57		 push	 edi
  00182	e8 00 00 00 00	 call	 ?gObjMonsterTopHitDamageUser@@YAHPAUOBJECTSTRUCT@@@Z ; gObjMonsterTopHitDamageUser
  00187	83 c4 04	 add	 esp, 4

; 65   : 			this->SendEventGiftWinner(iIndex, 1);

  0018a	8b ce		 mov	 ecx, esi
  0018c	6a 01		 push	 1
  0018e	50		 push	 eax
  0018f	e8 00 00 00 00	 call	 ?SendEventGiftWinner@CRingMonsterHerd@@QAEXHH@Z ; CRingMonsterHerd::SendEventGiftWinner

; 66   : 			return TRUE;

  00194	eb 2d		 jmp	 SHORT $LN8@MonsterHer
$LN6@MonsterHer:

; 67   : 		}
; 68   : 
; 69   : 		MapC[lpObj->MapNumber].MoneyItemDrop(10000, (BYTE)lpObj->X, (BYTE)lpObj->Y);

  00196	0f b6 87 21 01
	00 00		 movzx	 eax, BYTE PTR [edi+289]
  0019d	50		 push	 eax
  0019e	0f b6 87 20 01
	00 00		 movzx	 eax, BYTE PTR [edi+288]
  001a5	50		 push	 eax
  001a6	0f b6 87 23 01
	00 00		 movzx	 eax, BYTE PTR [edi+291]
  001ad	69 c8 28 38 05
	00		 imul	 ecx, eax, 342056
  001b3	68 10 27 00 00	 push	 10000			; 00002710H
  001b8	81 c1 00 00 00
	00		 add	 ecx, OFFSET ?MapC@@3PAVMapClass@@A ; MapC
  001be	e8 00 00 00 00	 call	 ?MoneyItemDrop@MapClass@@QAEHHHH@Z ; MapClass::MoneyItemDrop
$LN8@MonsterHer:

; 74   : 
; 75   : }

  001c3	8b 4d fc	 mov	 ecx, DWORD PTR __$ArrayPad$[ebp]
  001c6	b8 01 00 00 00	 mov	 eax, 1
  001cb	5f		 pop	 edi
  001cc	33 cd		 xor	 ecx, ebp
  001ce	5e		 pop	 esi
  001cf	e8 00 00 00 00	 call	 @__security_check_cookie@4
  001d4	8b e5		 mov	 esp, ebp
  001d6	5d		 pop	 ebp
  001d7	c2 04 00	 ret	 4
?MonsterHerdItemDrop@CRingMonsterHerd@@UAEHPAUOBJECTSTRUCT@@@Z ENDP ; CRingMonsterHerd::MonsterHerdItemDrop
_TEXT	ENDS
; Function compile flags: /Ogtp
; File c:\users\michel\desktop\source\gameserver\source\ringattackevent.cpp
;	COMDAT ?Start@CRingMonsterHerd@@UAEHXZ
_TEXT	SEGMENT
?Start@CRingMonsterHerd@@UAEHXZ PROC			; CRingMonsterHerd::Start, COMDAT
; _this$ = ecx

; 27   : 	this->m_bEventSuccess = FALSE;

  00000	c7 41 40 00 00
	00 00		 mov	 DWORD PTR [ecx+64], 0

; 28   : 	return this->MonsterHerd::Start();

  00007	e9 00 00 00 00	 jmp	 ?Start@MonsterHerd@@UAEHXZ ; MonsterHerd::Start
?Start@CRingMonsterHerd@@UAEHXZ ENDP			; CRingMonsterHerd::Start
_TEXT	ENDS
; Function compile flags: /Ogtp
; File c:\users\michel\desktop\source\gameserver\source\ringattackevent.h
;	COMDAT ?GetY@CRingMonsterHerd@@QAEEXZ
_TEXT	SEGMENT
?GetY@CRingMonsterHerd@@QAEEXZ PROC			; CRingMonsterHerd::GetY, COMDAT
; _this$ = ecx

; 23   : 	BYTE GetY(){return this->m_iCUR_Y;}

  00000	8a 41 10	 mov	 al, BYTE PTR [ecx+16]
  00003	c3		 ret	 0
?GetY@CRingMonsterHerd@@QAEEXZ ENDP			; CRingMonsterHerd::GetY
_TEXT	ENDS
; Function compile flags: /Ogtp
; File c:\users\michel\desktop\source\gameserver\source\ringattackevent.h
;	COMDAT ?GetX@CRingMonsterHerd@@QAEEXZ
_TEXT	SEGMENT
?GetX@CRingMonsterHerd@@QAEEXZ PROC			; CRingMonsterHerd::GetX, COMDAT
; _this$ = ecx

; 22   : 	BYTE GetX(){return this->m_iCUR_X;}

  00000	8a 41 0c	 mov	 al, BYTE PTR [ecx+12]
  00003	c3		 ret	 0
?GetX@CRingMonsterHerd@@QAEEXZ ENDP			; CRingMonsterHerd::GetX
_TEXT	ENDS
; Function compile flags: /Ogtp
; File c:\users\michel\desktop\source\gameserver\source\ringattackevent.cpp
;	COMDAT ?SendEventGiftWinner@CRingMonsterHerd@@QAEXHH@Z
_TEXT	SEGMENT
_pMsg$ = -24						; size = 20
__$ArrayPad$ = -4					; size = 4
_iIndex$ = 8						; size = 4
_iGiftKind$ = 12					; size = 4
?SendEventGiftWinner@CRingMonsterHerd@@QAEXHH@Z PROC	; CRingMonsterHerd::SendEventGiftWinner, COMDAT
; _this$ = ecx

; 131  : {

  00000	55		 push	 ebp
  00001	8b ec		 mov	 ebp, esp
  00003	83 ec 18	 sub	 esp, 24			; 00000018H
  00006	a1 00 00 00 00	 mov	 eax, DWORD PTR ___security_cookie
  0000b	33 c5		 xor	 eax, ebp
  0000d	89 45 fc	 mov	 DWORD PTR __$ArrayPad$[ebp], eax
  00010	56		 push	 esi
  00011	8b 75 08	 mov	 esi, DWORD PTR _iIndex$[ebp]

; 132  : 	if ( gObjIsConnected(iIndex) == FALSE )

  00014	56		 push	 esi
  00015	e8 00 00 00 00	 call	 ?gObjIsConnected@@YAHH@Z ; gObjIsConnected
  0001a	83 c4 04	 add	 esp, 4
  0001d	85 c0		 test	 eax, eax
  0001f	0f 84 83 00 00
	00		 je	 $LN1@SendEventG

; 133  : 	{
; 134  : 		return;
; 135  : 	}
; 136  : 
; 137  : 	if ( gObj[iIndex].UseEventServer != FALSE )

  00025	a1 00 00 00 00	 mov	 eax, DWORD PTR ?gObj@@3PAUOBJECTSTRUCT@@A ; gObj
  0002a	57		 push	 edi
  0002b	69 fe 40 27 00
	00		 imul	 edi, esi, 10048
  00031	83 bc 07 e8 13
	00 00 00	 cmp	 DWORD PTR [edi+eax+5096], 0
  00039	75 6c		 jne	 SHORT $LN5@SendEventG

; 138  : 	{
; 139  : 		return;
; 140  : 	}
; 141  : 
; 142  : 	gObj[iIndex].UseEventServer = TRUE;
; 143  : 
; 144  : 	PMSG_REQ_REG_RINGGIFT pMsg;
; 145  : 
; 146  : 	PHeadSetB((LPBYTE)&pMsg, 0x10, sizeof(pMsg));

  0003b	53		 push	 ebx
  0003c	6a 14		 push	 20			; 00000014H
  0003e	c7 84 07 e8 13
	00 00 01 00 00
	00		 mov	 DWORD PTR [edi+eax+5096], 1
  00049	8d 45 e8	 lea	 eax, DWORD PTR _pMsg$[ebp]
  0004c	6a 10		 push	 16			; 00000010H
  0004e	50		 push	 eax
  0004f	e8 00 00 00 00	 call	 ?PHeadSetB@@YAXPAEEH@Z	; PHeadSetB

; 147  : 	pMsg.iINDEX  = iIndex;
; 148  : 	memcpy(pMsg.szUID, gObj[iIndex].AccountID, MAX_ACCOUNT_LEN);

  00054	a1 00 00 00 00	 mov	 eax, DWORD PTR ?gObj@@3PAUOBJECTSTRUCT@@A ; gObj

; 149  : 	pMsg.szUID[MAX_ACCOUNT_LEN] = 0;
; 150  : 	pMsg.btGiftKind = iGiftKind;

  00059	8b 5d 0c	 mov	 ebx, DWORD PTR _iGiftKind$[ebp]
  0005c	89 75 ec	 mov	 DWORD PTR _pMsg$[ebp+4], esi

; 151  : 
; 152  : 	DataSendEventChip((PCHAR)&pMsg, sizeof(pMsg));

  0005f	6a 14		 push	 20			; 00000014H
  00061	f3 0f 7e 44 07
	52		 movq	 xmm0, QWORD PTR [edi+eax+82]
  00067	66 0f d6 45 f0	 movq	 QWORD PTR _pMsg$[ebp+8], xmm0
  0006c	66 8b 44 07 5a	 mov	 ax, WORD PTR [edi+eax+90]
  00071	66 89 45 f8	 mov	 WORD PTR _pMsg$[ebp+16], ax
  00075	8d 45 e8	 lea	 eax, DWORD PTR _pMsg$[ebp]
  00078	50		 push	 eax
  00079	c6 45 fa 00	 mov	 BYTE PTR _pMsg$[ebp+18], 0
  0007d	88 5d fb	 mov	 BYTE PTR _pMsg$[ebp+19], bl
  00080	e8 00 00 00 00	 call	 ?DataSendEventChip@@YAXPADH@Z ; DataSendEventChip

; 153  : 
; 154  : 	LogAddTD("[Ring Event] [%s][%s] Request to Register Gift - Gift Kind (%d)",

  00085	8b 0d 00 00 00
	00		 mov	 ecx, DWORD PTR ?gObj@@3PAUOBJECTSTRUCT@@A ; gObj
  0008b	53		 push	 ebx
  0008c	8d 41 5d	 lea	 eax, DWORD PTR [ecx+93]
  0008f	03 c7		 add	 eax, edi
  00091	50		 push	 eax
  00092	8d 41 52	 lea	 eax, DWORD PTR [ecx+82]
  00095	03 c7		 add	 eax, edi
  00097	50		 push	 eax
  00098	68 00 00 00 00	 push	 OFFSET ??_C@_0EA@DGMJBKOB@?$FLRing?5Event?$FN?5?$FL?$CFs?$FN?$FL?$CFs?$FN?5Request?5to@
  0009d	ff 15 00 00 00
	00		 call	 DWORD PTR ?LogAddTD@@3P6AXPADZZA ; LogAddTD
  000a3	83 c4 24	 add	 esp, 36			; 00000024H
  000a6	5b		 pop	 ebx
$LN5@SendEventG:
  000a7	5f		 pop	 edi
$LN1@SendEventG:

; 155  : 		gObj[iIndex].AccountID, gObj[iIndex].Name,  iGiftKind);
; 156  : 
; 157  : }

  000a8	8b 4d fc	 mov	 ecx, DWORD PTR __$ArrayPad$[ebp]
  000ab	33 cd		 xor	 ecx, ebp
  000ad	5e		 pop	 esi
  000ae	e8 00 00 00 00	 call	 @__security_check_cookie@4
  000b3	8b e5		 mov	 esp, ebp
  000b5	5d		 pop	 ebp
  000b6	c2 08 00	 ret	 8
?SendEventGiftWinner@CRingMonsterHerd@@QAEXHH@Z ENDP	; CRingMonsterHerd::SendEventGiftWinner
_TEXT	ENDS
; Function compile flags: /Ogtp
; File c:\users\michel\desktop\source\gameserver\source\ringattackevent.cpp
;	COMDAT ??1CRingMonsterHerd@@UAE@XZ
_TEXT	SEGMENT
??1CRingMonsterHerd@@UAE@XZ PROC			; CRingMonsterHerd::~CRingMonsterHerd, COMDAT
; _this$ = ecx

; 21   : {

  00000	c7 01 00 00 00
	00		 mov	 DWORD PTR [ecx], OFFSET ??_7CRingMonsterHerd@@6B@

; 22   : 	return;
; 23   : }

  00006	e9 00 00 00 00	 jmp	 ??1MonsterHerd@@UAE@XZ	; MonsterHerd::~MonsterHerd
??1CRingMonsterHerd@@UAE@XZ ENDP			; CRingMonsterHerd::~CRingMonsterHerd
_TEXT	ENDS
; Function compile flags: /Ogtp
; File c:\users\michel\desktop\source\gameserver\source\ringattackevent.cpp
;	COMDAT ??0CRingMonsterHerd@@QAE@XZ
_TEXT	SEGMENT
_this$ = -4						; size = 4
??0CRingMonsterHerd@@QAE@XZ PROC			; CRingMonsterHerd::CRingMonsterHerd, COMDAT
; _this$ = ecx

; 14   : {

  00000	55		 push	 ebp
  00001	8b ec		 mov	 ebp, esp
  00003	51		 push	 ecx
  00004	56		 push	 esi
  00005	8b f1		 mov	 esi, ecx
  00007	89 75 fc	 mov	 DWORD PTR _this$[ebp], esi
  0000a	e8 00 00 00 00	 call	 ??0MonsterHerd@@QAE@XZ	; MonsterHerd::MonsterHerd
  0000f	c7 06 00 00 00
	00		 mov	 DWORD PTR [esi], OFFSET ??_7CRingMonsterHerd@@6B@

; 15   : 	return;
; 16   : }

  00015	8b c6		 mov	 eax, esi
  00017	5e		 pop	 esi
  00018	8b e5		 mov	 esp, ebp
  0001a	5d		 pop	 ebp
  0001b	c3		 ret	 0
??0CRingMonsterHerd@@QAE@XZ ENDP			; CRingMonsterHerd::CRingMonsterHerd
_TEXT	ENDS
; Function compile flags: /Ogtp
;	COMDAT ??_EOBJECTSTRUCT@@QAEPAXI@Z
_TEXT	SEGMENT
__$EHRec$ = -12						; size = 12
___flags$ = 8						; size = 4
??_EOBJECTSTRUCT@@QAEPAXI@Z PROC			; OBJECTSTRUCT::`vector deleting destructor', COMDAT
; _this$ = ecx
  00000	55		 push	 ebp
  00001	8b ec		 mov	 ebp, esp
  00003	6a ff		 push	 -1
  00005	68 00 00 00 00	 push	 __ehhandler$??_EOBJECTSTRUCT@@QAEPAXI@Z
  0000a	64 a1 00 00 00
	00		 mov	 eax, DWORD PTR fs:0
  00010	50		 push	 eax
  00011	53		 push	 ebx
  00012	56		 push	 esi
  00013	57		 push	 edi
  00014	a1 00 00 00 00	 mov	 eax, DWORD PTR ___security_cookie
  00019	33 c5		 xor	 eax, ebp
  0001b	50		 push	 eax
  0001c	8d 45 f4	 lea	 eax, DWORD PTR __$EHRec$[ebp]
  0001f	64 a3 00 00 00
	00		 mov	 DWORD PTR fs:0, eax
  00025	8b f1		 mov	 esi, ecx
  00027	8b 5d 08	 mov	 ebx, DWORD PTR ___flags$[ebp]
  0002a	f6 c3 02	 test	 bl, 2
  0002d	74 44		 je	 SHORT $LN2@vector
  0002f	68 00 00 00 00	 push	 OFFSET ??1OBJECTSTRUCT@@QAE@XZ
  00034	ff 76 fc	 push	 DWORD PTR [esi-4]
  00037	8d 7e fc	 lea	 edi, DWORD PTR [esi-4]
  0003a	68 40 27 00 00	 push	 10048			; 00002740H
  0003f	56		 push	 esi
  00040	e8 00 00 00 00	 call	 ??_M@YGXPAXIIP6EX0@Z@Z
  00045	f6 c3 01	 test	 bl, 1
  00048	74 13		 je	 SHORT $LN3@vector
  0004a	69 0f 40 27 00
	00		 imul	 ecx, DWORD PTR [edi], 10048
  00050	83 c1 04	 add	 ecx, 4
  00053	51		 push	 ecx
  00054	57		 push	 edi
  00055	e8 00 00 00 00	 call	 ??_V@YAXPAXI@Z		; operator delete[]
  0005a	83 c4 08	 add	 esp, 8
$LN3@vector:
  0005d	8b c7		 mov	 eax, edi
  0005f	8b 4d f4	 mov	 ecx, DWORD PTR __$EHRec$[ebp]
  00062	64 89 0d 00 00
	00 00		 mov	 DWORD PTR fs:0, ecx
  00069	59		 pop	 ecx
  0006a	5f		 pop	 edi
  0006b	5e		 pop	 esi
  0006c	5b		 pop	 ebx
  0006d	8b e5		 mov	 esp, ebp
  0006f	5d		 pop	 ebp
  00070	c2 04 00	 ret	 4
$LN2@vector:
  00073	8d 8e ec 20 00
	00		 lea	 ecx, DWORD PTR [esi+8428]
  00079	e8 00 00 00 00	 call	 ??1TMonsterAIAgro@@UAE@XZ ; TMonsterAIAgro::~TMonsterAIAgro
  0007e	8d 8e 0c 16 00
	00		 lea	 ecx, DWORD PTR [esi+5644]
  00084	e8 00 00 00 00	 call	 ??1CSkillDelay@@UAE@XZ	; CSkillDelay::~CSkillDelay
  00089	f6 c3 01	 test	 bl, 1
  0008c	74 0e		 je	 SHORT $LN4@vector
  0008e	68 40 27 00 00	 push	 10048			; 00002740H
  00093	56		 push	 esi
  00094	e8 00 00 00 00	 call	 ??3@YAXPAXI@Z		; operator delete
  00099	83 c4 08	 add	 esp, 8
$LN4@vector:
  0009c	8b c6		 mov	 eax, esi
  0009e	8b 4d f4	 mov	 ecx, DWORD PTR __$EHRec$[ebp]
  000a1	64 89 0d 00 00
	00 00		 mov	 DWORD PTR fs:0, ecx
  000a8	59		 pop	 ecx
  000a9	5f		 pop	 edi
  000aa	5e		 pop	 esi
  000ab	5b		 pop	 ebx
  000ac	8b e5		 mov	 esp, ebp
  000ae	5d		 pop	 ebp
  000af	c2 04 00	 ret	 4
_TEXT	ENDS
;	COMDAT text$x
text$x	SEGMENT
__ehhandler$??_EOBJECTSTRUCT@@QAEPAXI@Z:
  00000	8b 54 24 08	 mov	 edx, DWORD PTR [esp+8]
  00004	8d 42 0c	 lea	 eax, DWORD PTR [edx+12]
  00007	8b 4a f0	 mov	 ecx, DWORD PTR [edx-16]
  0000a	33 c8		 xor	 ecx, eax
  0000c	e8 00 00 00 00	 call	 @__security_check_cookie@4
  00011	b8 00 00 00 00	 mov	 eax, OFFSET __ehfuncinfo$??_EOBJECTSTRUCT@@QAEPAXI@Z
  00016	e9 00 00 00 00	 jmp	 ___CxxFrameHandler3
text$x	ENDS
??_EOBJECTSTRUCT@@QAEPAXI@Z ENDP			; OBJECTSTRUCT::`vector deleting destructor'
; Function compile flags: /Ogtp
;	COMDAT ??1OBJECTSTRUCT@@QAE@XZ
_TEXT	SEGMENT
??1OBJECTSTRUCT@@QAE@XZ PROC				; OBJECTSTRUCT::~OBJECTSTRUCT, COMDAT
; _this$ = ecx
  00000	56		 push	 esi
  00001	8b f1		 mov	 esi, ecx
  00003	8d 8e ec 20 00
	00		 lea	 ecx, DWORD PTR [esi+8428]
  00009	e8 00 00 00 00	 call	 ??1TMonsterAIAgro@@UAE@XZ ; TMonsterAIAgro::~TMonsterAIAgro
  0000e	8d 8e 0c 16 00
	00		 lea	 ecx, DWORD PTR [esi+5644]
  00014	5e		 pop	 esi
  00015	e9 00 00 00 00	 jmp	 ??1CSkillDelay@@UAE@XZ	; CSkillDelay::~CSkillDelay
??1OBJECTSTRUCT@@QAE@XZ ENDP				; OBJECTSTRUCT::~OBJECTSTRUCT
_TEXT	ENDS
; Function compile flags: /Ogtp
; File c:\program files (x86)\microsoft visual studio 14.0\vc\include\xmemory0
;	COMDAT ?_Deallocate@std@@YAXPAXII@Z
_TEXT	SEGMENT
__Ptr$ = 8						; size = 4
__Count$ = 12						; size = 4
__Sz$ = 16						; size = 4
?_Deallocate@std@@YAXPAXII@Z PROC			; std::_Deallocate, COMDAT

; 98   : 	{	// deallocate storage for _Count elements of size _Sz

  00000	55		 push	 ebp
  00001	8b ec		 mov	 ebp, esp

; 99   :  #if defined(_M_IX86) || defined(_M_X64)
; 100  : 	_SCL_SECURE_ALWAYS_VALIDATE(_Count <= (size_t)(-1) / _Sz);

  00003	83 c8 ff	 or	 eax, -1
  00006	8b 4d 0c	 mov	 ecx, DWORD PTR __Count$[ebp]
  00009	33 d2		 xor	 edx, edx
  0000b	f7 75 10	 div	 DWORD PTR __Sz$[ebp]
  0000e	3b c8		 cmp	 ecx, eax
  00010	0f 87 00 00 00
	00		 ja	 __invalid_parameter_noinfo_noreturn

; 101  : 	const size_t _User_size = _Count * _Sz;

  00016	0f af 4d 10	 imul	 ecx, DWORD PTR __Sz$[ebp]

; 102  : 	if (_BIG_ALLOCATION_THRESHOLD <= _User_size)

  0001a	81 f9 00 10 00
	00		 cmp	 ecx, 4096		; 00001000H
  00020	72 2b		 jb	 SHORT $LN9@Deallocate

; 103  : 		{	// deallocate large block
; 104  : 		const uintptr_t _Ptr_user = reinterpret_cast<uintptr_t>(_Ptr);
; 105  : 		_SCL_SECURE_ALWAYS_VALIDATE(

  00022	8b 45 08	 mov	 eax, DWORD PTR __Ptr$[ebp]
  00025	a8 1f		 test	 al, 31			; 0000001fH
  00027	0f 85 00 00 00
	00		 jne	 __invalid_parameter_noinfo_noreturn

; 106  : 			(_Ptr_user & (_BIG_ALLOCATION_ALIGNMENT - 1)) == 0);
; 107  : 		const uintptr_t _Ptr_ptr = _Ptr_user - sizeof(void *);
; 108  : 		const uintptr_t _Ptr_container =
; 109  : 			*reinterpret_cast<uintptr_t *>(_Ptr_ptr);

  0002d	8b 48 fc	 mov	 ecx, DWORD PTR [eax-4]

; 110  : 
; 111  :  #ifdef _DEBUG
; 112  : 		// If the following asserts, it likely means that we are performing
; 113  : 		// an aligned delete on memory coming from an unaligned allocation.
; 114  : 		_SCL_SECURE_ALWAYS_VALIDATE(
; 115  : 			reinterpret_cast<uintptr_t *>(_Ptr_ptr)[-1] ==
; 116  : 				_BIG_ALLOCATION_SENTINEL);
; 117  :  #endif /* _DEBUG */
; 118  : 
; 119  : 		// Extra paranoia on aligned allocation/deallocation
; 120  : 		_SCL_SECURE_ALWAYS_VALIDATE(_Ptr_container < _Ptr_user);

  00030	3b c8		 cmp	 ecx, eax
  00032	0f 83 00 00 00
	00		 jae	 __invalid_parameter_noinfo_noreturn

; 121  : 
; 122  :  #ifdef _DEBUG
; 123  : 		_SCL_SECURE_ALWAYS_VALIDATE(2 * sizeof(void *)
; 124  : 			<= _Ptr_user - _Ptr_container);
; 125  : 
; 126  :  #else /* _DEBUG */
; 127  : 		_SCL_SECURE_ALWAYS_VALIDATE(sizeof(void *)

  00038	2b c1		 sub	 eax, ecx
  0003a	83 f8 04	 cmp	 eax, 4
  0003d	0f 82 00 00 00
	00		 jb	 __invalid_parameter_noinfo_noreturn

; 128  : 			<= _Ptr_user - _Ptr_container);
; 129  :  #endif /* _DEBUG */
; 130  : 
; 131  : 		_SCL_SECURE_ALWAYS_VALIDATE(_Ptr_user - _Ptr_container

  00043	83 f8 23	 cmp	 eax, 35			; 00000023H
  00046	76 08		 jbe	 SHORT $LN3@Deallocate
  00048	e9 00 00 00 00	 jmp	 __invalid_parameter_noinfo_noreturn
$LN9@Deallocate:

; 132  : 			<= _NON_USER_SIZE);
; 133  : 
; 134  : 		_Ptr = reinterpret_cast<void *>(_Ptr_container);

  0004d	8b 4d 08	 mov	 ecx, DWORD PTR __Ptr$[ebp]
$LN3@Deallocate:

; 135  : 		}
; 136  :  #endif /* defined(_M_IX86) || defined(_M_X64) */
; 137  : 
; 138  : 	::operator delete(_Ptr);

  00050	51		 push	 ecx
  00051	e8 00 00 00 00	 call	 ??3@YAXPAX@Z		; operator delete
  00056	83 c4 04	 add	 esp, 4

; 139  : 	}

  00059	5d		 pop	 ebp
  0005a	c3		 ret	 0
?_Deallocate@std@@YAXPAXII@Z ENDP			; std::_Deallocate
_TEXT	ENDS
; Function compile flags: /Ogtp
; File c:\program files (x86)\microsoft visual studio 14.0\vc\include\xmemory0
;	COMDAT ?_Allocate@std@@YAPAXII_N@Z
_TEXT	SEGMENT
__Count$ = 8						; size = 4
__Sz$ = 12						; size = 4
__Try_aligned_allocation$ = 16				; size = 1
?_Allocate@std@@YAPAXII_N@Z PROC			; std::_Allocate, COMDAT

; 54   : 	{	// allocate storage for _Count elements of size _Sz

  00000	55		 push	 ebp
  00001	8b ec		 mov	 ebp, esp

; 55   : 	void *_Ptr = 0;
; 56   : 
; 57   : 	if (_Count == 0)

  00003	8b 4d 08	 mov	 ecx, DWORD PTR __Count$[ebp]
  00006	85 c9		 test	 ecx, ecx
  00008	75 04		 jne	 SHORT $LN2@Allocate

; 58   : 		return (_Ptr);

  0000a	33 c0		 xor	 eax, eax

; 91   : 		}
; 92   : 	return (_Ptr);
; 93   : 	}

  0000c	5d		 pop	 ebp
  0000d	c3		 ret	 0
$LN2@Allocate:

; 59   : 
; 60   : 	// check overflow of multiply
; 61   : 	if ((size_t)(-1) / _Sz < _Count)

  0000e	83 c8 ff	 or	 eax, -1
  00011	33 d2		 xor	 edx, edx
  00013	f7 75 0c	 div	 DWORD PTR __Sz$[ebp]
  00016	3b c1		 cmp	 eax, ecx
  00018	0f 82 00 00 00
	00		 jb	 ?_Xbad_alloc@std@@YAXXZ	; std::_Xbad_alloc

; 62   : 		_Xbad_alloc();	// report no memory
; 63   : 	const size_t _User_size = _Count * _Sz;

  0001e	0f af 4d 0c	 imul	 ecx, DWORD PTR __Sz$[ebp]

; 64   : 
; 65   :  #if defined(_M_IX86) || defined(_M_X64)
; 66   : 	if (_Try_aligned_allocation
; 67   : 		&& _BIG_ALLOCATION_THRESHOLD <= _User_size)

  00022	80 7d 10 00	 cmp	 BYTE PTR __Try_aligned_allocation$[ebp], 0
  00026	74 31		 je	 SHORT $LN4@Allocate
  00028	81 f9 00 10 00
	00		 cmp	 ecx, 4096		; 00001000H
  0002e	72 29		 jb	 SHORT $LN4@Allocate

; 68   : 		{	// allocate large block
; 69   : 		static_assert(sizeof (void *) < _BIG_ALLOCATION_ALIGNMENT,
; 70   : 			"Big allocations should at least match vector register size");
; 71   : 		const size_t _Block_size = _NON_USER_SIZE + _User_size;

  00030	8d 41 23	 lea	 eax, DWORD PTR [ecx+35]

; 72   : 		if (_Block_size <= _User_size)

  00033	3b c1		 cmp	 eax, ecx
  00035	0f 86 00 00 00
	00		 jbe	 ?_Xbad_alloc@std@@YAXXZ	; std::_Xbad_alloc

; 73   : 			_Xbad_alloc();	// report no memory
; 74   : 		const uintptr_t _Ptr_container =
; 75   : 			reinterpret_cast<uintptr_t>(::operator new(_Block_size));

  0003b	50		 push	 eax
  0003c	e8 00 00 00 00	 call	 ??2@YAPAXI@Z		; operator new
  00041	8b c8		 mov	 ecx, eax
  00043	83 c4 04	 add	 esp, 4

; 76   : 		_SCL_SECURE_ALWAYS_VALIDATE(_Ptr_container != 0);

  00046	85 c9		 test	 ecx, ecx
  00048	0f 84 00 00 00
	00		 je	 __invalid_parameter_noinfo_noreturn

; 77   : 		_Ptr = reinterpret_cast<void *>((_Ptr_container + _NON_USER_SIZE)

  0004e	8d 41 23	 lea	 eax, DWORD PTR [ecx+35]
  00051	83 e0 e0	 and	 eax, -32		; ffffffe0H

; 78   : 			& ~(_BIG_ALLOCATION_ALIGNMENT - 1));
; 79   : 		static_cast<uintptr_t *>(_Ptr)[-1] = _Ptr_container;

  00054	89 48 fc	 mov	 DWORD PTR [eax-4], ecx

; 91   : 		}
; 92   : 	return (_Ptr);
; 93   : 	}

  00057	5d		 pop	 ebp
  00058	c3		 ret	 0
$LN4@Allocate:

; 80   : 
; 81   :  #ifdef _DEBUG
; 82   : 		static_cast<uintptr_t *>(_Ptr)[-2] = _BIG_ALLOCATION_SENTINEL;
; 83   :  #endif /* _DEBUG */
; 84   : 		}
; 85   : 	else
; 86   :  #endif /* defined(_M_IX86) || defined(_M_X64) */
; 87   : 
; 88   : 		{	// allocate normal block
; 89   : 		_Ptr = ::operator new(_User_size);

  00059	51		 push	 ecx
  0005a	e8 00 00 00 00	 call	 ??2@YAPAXI@Z		; operator new
  0005f	83 c4 04	 add	 esp, 4

; 90   : 		_SCL_SECURE_ALWAYS_VALIDATE(_Ptr != 0);

  00062	85 c0		 test	 eax, eax
  00064	0f 84 00 00 00
	00		 je	 __invalid_parameter_noinfo_noreturn

; 91   : 		}
; 92   : 	return (_Ptr);
; 93   : 	}

  0006a	5d		 pop	 ebp
  0006b	c3		 ret	 0
?_Allocate@std@@YAPAXII_N@Z ENDP			; std::_Allocate
_TEXT	ENDS
; Function compile flags: /Ogtp
; File c:\program files (x86)\microsoft visual studio 14.0\vc\include\xutility
;	COMDAT ?_Getcont@_Iterator_base0@std@@QBEPBU_Container_base0@2@XZ
_TEXT	SEGMENT
?_Getcont@_Iterator_base0@std@@QBEPBU_Container_base0@2@XZ PROC ; std::_Iterator_base0::_Getcont, COMDAT
; _this$ = ecx

; 59   : 		return (0);

  00000	33 c0		 xor	 eax, eax

; 60   : 		}

  00002	c3		 ret	 0
?_Getcont@_Iterator_base0@std@@QBEPBU_Container_base0@2@XZ ENDP ; std::_Iterator_base0::_Getcont
_TEXT	ENDS
; Function compile flags: /Ogtp
; File c:\program files (x86)\microsoft visual studio 14.0\vc\include\xutility
;	COMDAT ?_Adopt@_Iterator_base0@std@@QAEXPBX@Z
_TEXT	SEGMENT
___formal$ = 8						; size = 4
?_Adopt@_Iterator_base0@std@@QAEXPBX@Z PROC		; std::_Iterator_base0::_Adopt, COMDAT
; _this$ = ecx

; 55   : 		}

  00000	c2 04 00	 ret	 4
?_Adopt@_Iterator_base0@std@@QAEXPBX@Z ENDP		; std::_Iterator_base0::_Adopt
_TEXT	ENDS
; Function compile flags: /Ogtp
; File c:\program files (x86)\microsoft visual studio 14.0\vc\include\xutility
;	COMDAT ?_Orphan_all@_Container_base0@std@@QAEXXZ
_TEXT	SEGMENT
?_Orphan_all@_Container_base0@std@@QAEXXZ PROC		; std::_Container_base0::_Orphan_all, COMDAT
; _this$ = ecx

; 44   : 		}

  00000	c3		 ret	 0
?_Orphan_all@_Container_base0@std@@QAEXXZ ENDP		; std::_Container_base0::_Orphan_all
_TEXT	ENDS
; Function compile flags: /Ogtp
; File c:\program files (x86)\microsoft visual studio 14.0\vc\include\vcruntime_new.h
;	COMDAT ??2@YAPAXIPAX@Z
_TEXT	SEGMENT
__Size$ = 8						; size = 4
__Where$ = 12						; size = 4
??2@YAPAXIPAX@Z PROC					; operator new, COMDAT

; 87   :     {

  00000	55		 push	 ebp
  00001	8b ec		 mov	 ebp, esp

; 88   :         (void)_Size;
; 89   :         return _Where;

  00003	8b 45 0c	 mov	 eax, DWORD PTR __Where$[ebp]

; 90   :     }

  00006	5d		 pop	 ebp
  00007	c3		 ret	 0
??2@YAPAXIPAX@Z ENDP					; operator new
_TEXT	ENDS
; Function compile flags: /Ogtp
; File c:\users\michel\desktop\source\gameserver\source\ringattackevent.cpp
;	COMDAT ?__empty_global_delete@@YAXPAXI@Z
_TEXT	SEGMENT
___formal$ = 8						; size = 4
___formal$ = 12						; size = 4
?__empty_global_delete@@YAXPAXI@Z PROC			; __empty_global_delete, COMDAT

; 808  : }

  00000	c3		 ret	 0
?__empty_global_delete@@YAXPAXI@Z ENDP			; __empty_global_delete
_TEXT	ENDS
; Function compile flags: /Ogtp
; File c:\users\michel\desktop\source\gameserver\source\ringattackevent.cpp
;	COMDAT ?__empty_global_delete@@YAXPAX@Z
_TEXT	SEGMENT
___formal$ = 8						; size = 4
?__empty_global_delete@@YAXPAX@Z PROC			; __empty_global_delete, COMDAT

; 808  : }

  00000	c3		 ret	 0
?__empty_global_delete@@YAXPAX@Z ENDP			; __empty_global_delete
_TEXT	ENDS
END
