; Listing generated by Microsoft (R) Optimizing Compiler Version 19.00.23506.0 

	TITLE	C:\Users\Michel\Desktop\Source\GameServer\Source\SetItemMacro.cpp
	.686P
	.XMM
	include listing.inc
	.model	flat

INCLUDELIB LIBCMT
INCLUDELIB OLDNAMES

PUBLIC	?__empty_global_delete@@YAXPAX@Z		; __empty_global_delete
PUBLIC	?__empty_global_delete@@YAXPAXI@Z		; __empty_global_delete
PUBLIC	??0CSetItemMacro@@QAE@XZ			; CSetItemMacro::CSetItemMacro
PUBLIC	??1CSetItemMacro@@QAE@XZ			; CSetItemMacro::~CSetItemMacro
PUBLIC	?Load@CSetItemMacro@@QAEHPAD@Z			; CSetItemMacro::Load
PUBLIC	?MakeItem@CSetItemMacro@@QAEHHPAD@Z		; CSetItemMacro::MakeItem
; Function compile flags: /Ogtp
; File c:\users\michel\desktop\source\gameserver\source\setitemmacro.cpp
;	COMDAT ?MakeItem@CSetItemMacro@@QAEHHPAD@Z
_TEXT	SEGMENT
_aIndex$ = 8						; size = 4
_szSetName$ = 12					; size = 4
?MakeItem@CSetItemMacro@@QAEHHPAD@Z PROC		; CSetItemMacro::MakeItem, COMDAT
; _this$ = ecx

; 32   : 	return FALSE;

  00000	33 c0		 xor	 eax, eax

; 33   : }

  00002	c2 08 00	 ret	 8
?MakeItem@CSetItemMacro@@QAEHHPAD@Z ENDP		; CSetItemMacro::MakeItem
_TEXT	ENDS
; Function compile flags: /Ogtp
; File c:\users\michel\desktop\source\gameserver\source\setitemmacro.cpp
;	COMDAT ?Load@CSetItemMacro@@QAEHPAD@Z
_TEXT	SEGMENT
_szFileName$ = 8					; size = 4
?Load@CSetItemMacro@@QAEHPAD@Z PROC			; CSetItemMacro::Load, COMDAT
; _this$ = ecx

; 25   : 	return TRUE;

  00000	b8 01 00 00 00	 mov	 eax, 1

; 26   : }

  00005	c2 04 00	 ret	 4
?Load@CSetItemMacro@@QAEHPAD@Z ENDP			; CSetItemMacro::Load
_TEXT	ENDS
; Function compile flags: /Ogtp
; File c:\users\michel\desktop\source\gameserver\source\setitemmacro.cpp
;	COMDAT ??1CSetItemMacro@@QAE@XZ
_TEXT	SEGMENT
??1CSetItemMacro@@QAE@XZ PROC				; CSetItemMacro::~CSetItemMacro, COMDAT
; _this$ = ecx

; 19   : 
; 20   : }

  00000	c3		 ret	 0
??1CSetItemMacro@@QAE@XZ ENDP				; CSetItemMacro::~CSetItemMacro
_TEXT	ENDS
; Function compile flags: /Ogtp
; File c:\users\michel\desktop\source\gameserver\source\setitemmacro.cpp
;	COMDAT ??0CSetItemMacro@@QAE@XZ
_TEXT	SEGMENT
??0CSetItemMacro@@QAE@XZ PROC				; CSetItemMacro::CSetItemMacro, COMDAT
; _this$ = ecx

; 14   : 
; 15   : }

  00000	8b c1		 mov	 eax, ecx
  00002	c3		 ret	 0
??0CSetItemMacro@@QAE@XZ ENDP				; CSetItemMacro::CSetItemMacro
_TEXT	ENDS
; Function compile flags: /Ogtp
; File c:\users\michel\desktop\source\gameserver\source\setitemmacro.cpp
;	COMDAT ?__empty_global_delete@@YAXPAXI@Z
_TEXT	SEGMENT
___formal$ = 8						; size = 4
___formal$ = 12						; size = 4
?__empty_global_delete@@YAXPAXI@Z PROC			; __empty_global_delete, COMDAT

  00000	c3		 ret	 0
?__empty_global_delete@@YAXPAXI@Z ENDP			; __empty_global_delete
_TEXT	ENDS
; Function compile flags: /Ogtp
; File c:\users\michel\desktop\source\gameserver\source\setitemmacro.cpp
;	COMDAT ?__empty_global_delete@@YAXPAX@Z
_TEXT	SEGMENT
___formal$ = 8						; size = 4
?__empty_global_delete@@YAXPAX@Z PROC			; __empty_global_delete, COMDAT

  00000	c3		 ret	 0
?__empty_global_delete@@YAXPAX@Z ENDP			; __empty_global_delete
_TEXT	ENDS
END
