; Listing generated by Microsoft (R) Optimizing Compiler Version 19.00.23506.0 

	TITLE	C:\Users\Michel\Desktop\Source\GameServer\Source\SimpleModulus.cpp
	.686P
	.XMM
	include listing.inc
	.model	flat

INCLUDELIB LIBCMT
INCLUDELIB OLDNAMES

PUBLIC	?__empty_global_delete@@YAXPAX@Z		; __empty_global_delete
PUBLIC	?__empty_global_delete@@YAXPAXI@Z		; __empty_global_delete
PUBLIC	??0exception@std@@QAE@ABV01@@Z			; std::exception::exception
PUBLIC	??1exception@std@@UAE@XZ			; std::exception::~exception
PUBLIC	?what@exception@std@@UBEPBDXZ			; std::exception::what
PUBLIC	??_Gexception@std@@UAEPAXI@Z			; std::exception::`scalar deleting destructor'
PUBLIC	?allocate@?$allocator@D@std@@QAEPADI@Z		; std::allocator<char>::allocate
PUBLIC	?deallocate@?$_Wrap_alloc@V?$allocator@D@std@@@std@@QAEXPADI@Z ; std::_Wrap_alloc<std::allocator<char> >::deallocate
PUBLIC	??0?$basic_string@DU?$char_traits@D@std@@V?$allocator@D@2@@std@@QAE@PBD@Z ; std::basic_string<char,std::char_traits<char>,std::allocator<char> >::basic_string<char,std::char_traits<char>,std::allocator<char> >
PUBLIC	?_Assign_rv@?$basic_string@DU?$char_traits@D@std@@V?$allocator@D@2@@std@@QAEX$$QAV12@@Z ; std::basic_string<char,std::char_traits<char>,std::allocator<char> >::_Assign_rv
PUBLIC	??1?$basic_string@DU?$char_traits@D@std@@V?$allocator@D@2@@std@@QAE@XZ ; std::basic_string<char,std::char_traits<char>,std::allocator<char> >::~basic_string<char,std::char_traits<char>,std::allocator<char> >
PUBLIC	?append@?$basic_string@DU?$char_traits@D@std@@V?$allocator@D@2@@std@@QAEAAV12@ABV12@II@Z ; std::basic_string<char,std::char_traits<char>,std::allocator<char> >::append
PUBLIC	?append@?$basic_string@DU?$char_traits@D@std@@V?$allocator@D@2@@std@@QAEAAV12@PBDI@Z ; std::basic_string<char,std::char_traits<char>,std::allocator<char> >::append
PUBLIC	?assign@?$basic_string@DU?$char_traits@D@std@@V?$allocator@D@2@@std@@QAEAAV12@ABV12@II@Z ; std::basic_string<char,std::char_traits<char>,std::allocator<char> >::assign
PUBLIC	?assign@?$basic_string@DU?$char_traits@D@std@@V?$allocator@D@2@@std@@QAEAAV12@PBDI@Z ; std::basic_string<char,std::char_traits<char>,std::allocator<char> >::assign
PUBLIC	?erase@?$basic_string@DU?$char_traits@D@std@@V?$allocator@D@2@@std@@QAEAAV12@II@Z ; std::basic_string<char,std::char_traits<char>,std::allocator<char> >::erase
PUBLIC	?_Copy@?$basic_string@DU?$char_traits@D@std@@V?$allocator@D@2@@std@@QAEXII@Z ; std::basic_string<char,std::char_traits<char>,std::allocator<char> >::_Copy
PUBLIC	??1Exception@CryptoPP@@UAE@XZ			; CryptoPP::Exception::~Exception
PUBLIC	?what@Exception@CryptoPP@@UBEPBDXZ		; CryptoPP::Exception::what
PUBLIC	??0Exception@CryptoPP@@QAE@ABV01@@Z		; CryptoPP::Exception::Exception
PUBLIC	??_GException@CryptoPP@@UAEPAXI@Z		; CryptoPP::Exception::`scalar deleting destructor'
PUBLIC	??1InvalidArgument@CryptoPP@@UAE@XZ		; CryptoPP::InvalidArgument::~InvalidArgument
PUBLIC	??0InvalidArgument@CryptoPP@@QAE@ABV01@@Z	; CryptoPP::InvalidArgument::InvalidArgument
PUBLIC	??_GInvalidArgument@CryptoPP@@UAEPAXI@Z		; CryptoPP::InvalidArgument::`scalar deleting destructor'
PUBLIC	??1NotImplemented@CryptoPP@@UAE@XZ		; CryptoPP::NotImplemented::~NotImplemented
PUBLIC	??0NotImplemented@CryptoPP@@QAE@ABV01@@Z	; CryptoPP::NotImplemented::NotImplemented
PUBLIC	??_GNotImplemented@CryptoPP@@UAEPAXI@Z		; CryptoPP::NotImplemented::`scalar deleting destructor'
PUBLIC	??$?HDU?$char_traits@D@std@@V?$allocator@D@1@@std@@YA?AV?$basic_string@DU?$char_traits@D@std@@V?$allocator@D@2@@0@$$QAV10@PBD@Z ; std::operator+<char,std::char_traits<char>,std::allocator<char> >
PUBLIC	??1Clonable@CryptoPP@@UAE@XZ			; CryptoPP::Clonable::~Clonable
PUBLIC	?Clone@Clonable@CryptoPP@@UBEPAV12@XZ		; CryptoPP::Clonable::Clone
PUBLIC	??1SimpleKeyingInterface@CryptoPP@@UAE@XZ	; CryptoPP::SimpleKeyingInterface::~SimpleKeyingInterface
PUBLIC	?IsValidKeyLength@SimpleKeyingInterface@CryptoPP@@UBE_NI@Z ; CryptoPP::SimpleKeyingInterface::IsValidKeyLength
PUBLIC	?MinIVLength@SimpleKeyingInterface@CryptoPP@@UBEIXZ ; CryptoPP::SimpleKeyingInterface::MinIVLength
PUBLIC	?MaxIVLength@SimpleKeyingInterface@CryptoPP@@UBEIXZ ; CryptoPP::SimpleKeyingInterface::MaxIVLength
PUBLIC	?Resynchronize@SimpleKeyingInterface@CryptoPP@@UAEXPBEH@Z ; CryptoPP::SimpleKeyingInterface::Resynchronize
PUBLIC	?IsPermutation@BlockTransformation@CryptoPP@@UBE_NXZ ; CryptoPP::BlockTransformation::IsPermutation
PUBLIC	?OptimalNumberOfParallelBlocks@BlockTransformation@CryptoPP@@UBEIXZ ; CryptoPP::BlockTransformation::OptimalNumberOfParallelBlocks
PUBLIC	?GetOptimalBlockSizeUsed@StreamTransformation@CryptoPP@@UBEIXZ ; CryptoPP::StreamTransformation::GetOptimalBlockSizeUsed
PUBLIC	?MinLastBlockSize@StreamTransformation@CryptoPP@@UBEIXZ ; CryptoPP::StreamTransformation::MinLastBlockSize
PUBLIC	?Seek@StreamTransformation@CryptoPP@@UAEX_K@Z	; CryptoPP::StreamTransformation::Seek
PUBLIC	?GetAlgorithm@BlockCipher@CryptoPP@@MBEABVAlgorithm@2@XZ ; CryptoPP::BlockCipher::GetAlgorithm
PUBLIC	?GetAlgorithm@SymmetricCipher@CryptoPP@@MBEABVAlgorithm@2@XZ ; CryptoPP::SymmetricCipher::GetAlgorithm
PUBLIC	?CheckSize@?$AllocatorBase@E@CryptoPP@@KAXI@Z	; CryptoPP::AllocatorBase<unsigned char>::CheckSize
PUBLIC	?MinKeyLength@CipherModeBase@CryptoPP@@UBEIXZ	; CryptoPP::CipherModeBase::MinKeyLength
PUBLIC	?MaxKeyLength@CipherModeBase@CryptoPP@@UBEIXZ	; CryptoPP::CipherModeBase::MaxKeyLength
PUBLIC	?DefaultKeyLength@CipherModeBase@CryptoPP@@UBEIXZ ; CryptoPP::CipherModeBase::DefaultKeyLength
PUBLIC	?GetValidKeyLength@CipherModeBase@CryptoPP@@UBEII@Z ; CryptoPP::CipherModeBase::GetValidKeyLength
PUBLIC	?IsValidKeyLength@CipherModeBase@CryptoPP@@UBE_NI@Z ; CryptoPP::CipherModeBase::IsValidKeyLength
PUBLIC	?OptimalDataAlignment@CipherModeBase@CryptoPP@@UBEIXZ ; CryptoPP::CipherModeBase::OptimalDataAlignment
PUBLIC	?IVSize@CipherModeBase@CryptoPP@@UBEIXZ		; CryptoPP::CipherModeBase::IVSize
PUBLIC	?SetFeedbackSize@CipherModeBase@CryptoPP@@MAEXI@Z ; CryptoPP::CipherModeBase::SetFeedbackSize
PUBLIC	?ResizeBuffers@CipherModeBase@CryptoPP@@MAEXXZ	; CryptoPP::CipherModeBase::ResizeBuffers
PUBLIC	??1CipherModeBase@CryptoPP@@UAE@XZ		; CryptoPP::CipherModeBase::~CipherModeBase
PUBLIC	?MandatoryBlockSize@BlockOrientedCipherModeBase@CryptoPP@@UBEIXZ ; CryptoPP::BlockOrientedCipherModeBase::MandatoryBlockSize
PUBLIC	?IsRandomAccess@BlockOrientedCipherModeBase@CryptoPP@@UBE_NXZ ; CryptoPP::BlockOrientedCipherModeBase::IsRandomAccess
PUBLIC	?IsSelfInverting@BlockOrientedCipherModeBase@CryptoPP@@UBE_NXZ ; CryptoPP::BlockOrientedCipherModeBase::IsSelfInverting
PUBLIC	?IsForwardTransformation@BlockOrientedCipherModeBase@CryptoPP@@UBE_NXZ ; CryptoPP::BlockOrientedCipherModeBase::IsForwardTransformation
PUBLIC	?Resynchronize@BlockOrientedCipherModeBase@CryptoPP@@UAEXPBEH@Z ; CryptoPP::BlockOrientedCipherModeBase::Resynchronize
PUBLIC	?ResizeBuffers@BlockOrientedCipherModeBase@CryptoPP@@MAEXXZ ; CryptoPP::BlockOrientedCipherModeBase::ResizeBuffers
PUBLIC	??1BlockOrientedCipherModeBase@CryptoPP@@UAE@XZ	; CryptoPP::BlockOrientedCipherModeBase::~BlockOrientedCipherModeBase
PUBLIC	?SetKey@ECB_OneWay@CryptoPP@@UAEXPBEIABVNameValuePairs@2@@Z ; CryptoPP::ECB_OneWay::SetKey
PUBLIC	?IVRequirement@ECB_OneWay@CryptoPP@@UBE?AW4IV_Requirement@SimpleKeyingInterface@2@XZ ; CryptoPP::ECB_OneWay::IVRequirement
PUBLIC	?OptimalBlockSize@ECB_OneWay@CryptoPP@@UBEIXZ	; CryptoPP::ECB_OneWay::OptimalBlockSize
PUBLIC	??0?$SecBlock@IV?$FixedSizeAllocatorWithCleanup@I$0CA@V?$NullAllocator@I@CryptoPP@@$0A@@CryptoPP@@@CryptoPP@@QAE@ABV01@@Z ; CryptoPP::SecBlock<unsigned int,CryptoPP::FixedSizeAllocatorWithCleanup<unsigned int,32,CryptoPP::NullAllocator<unsigned int>,0> >::SecBlock<unsigned int,CryptoPP::FixedSizeAllocatorWithCleanup<unsigned int,32,CryptoPP::NullAllocator<unsigned int>,0> >
PUBLIC	?MinKeyLength@?$SimpleKeyingInterfaceImpl@V?$TwoBases@VBlockCipher@CryptoPP@@UDES_Info@2@@CryptoPP@@V12@@CryptoPP@@UBEIXZ ; CryptoPP::SimpleKeyingInterfaceImpl<CryptoPP::TwoBases<CryptoPP::BlockCipher,CryptoPP::DES_Info>,CryptoPP::TwoBases<CryptoPP::BlockCipher,CryptoPP::DES_Info> >::MinKeyLength
PUBLIC	?MaxKeyLength@?$SimpleKeyingInterfaceImpl@V?$TwoBases@VBlockCipher@CryptoPP@@UDES_Info@2@@CryptoPP@@V12@@CryptoPP@@UBEIXZ ; CryptoPP::SimpleKeyingInterfaceImpl<CryptoPP::TwoBases<CryptoPP::BlockCipher,CryptoPP::DES_Info>,CryptoPP::TwoBases<CryptoPP::BlockCipher,CryptoPP::DES_Info> >::MaxKeyLength
PUBLIC	?DefaultKeyLength@?$SimpleKeyingInterfaceImpl@V?$TwoBases@VBlockCipher@CryptoPP@@UDES_Info@2@@CryptoPP@@V12@@CryptoPP@@UBEIXZ ; CryptoPP::SimpleKeyingInterfaceImpl<CryptoPP::TwoBases<CryptoPP::BlockCipher,CryptoPP::DES_Info>,CryptoPP::TwoBases<CryptoPP::BlockCipher,CryptoPP::DES_Info> >::DefaultKeyLength
PUBLIC	?GetValidKeyLength@?$SimpleKeyingInterfaceImpl@V?$TwoBases@VBlockCipher@CryptoPP@@UDES_Info@2@@CryptoPP@@V12@@CryptoPP@@UBEII@Z ; CryptoPP::SimpleKeyingInterfaceImpl<CryptoPP::TwoBases<CryptoPP::BlockCipher,CryptoPP::DES_Info>,CryptoPP::TwoBases<CryptoPP::BlockCipher,CryptoPP::DES_Info> >::GetValidKeyLength
PUBLIC	?IVRequirement@?$SimpleKeyingInterfaceImpl@V?$TwoBases@VBlockCipher@CryptoPP@@UDES_Info@2@@CryptoPP@@V12@@CryptoPP@@UBE?AW4IV_Requirement@SimpleKeyingInterface@2@XZ ; CryptoPP::SimpleKeyingInterfaceImpl<CryptoPP::TwoBases<CryptoPP::BlockCipher,CryptoPP::DES_Info>,CryptoPP::TwoBases<CryptoPP::BlockCipher,CryptoPP::DES_Info> >::IVRequirement
PUBLIC	?IVSize@?$SimpleKeyingInterfaceImpl@V?$TwoBases@VBlockCipher@CryptoPP@@UDES_Info@2@@CryptoPP@@V12@@CryptoPP@@UBEIXZ ; CryptoPP::SimpleKeyingInterfaceImpl<CryptoPP::TwoBases<CryptoPP::BlockCipher,CryptoPP::DES_Info>,CryptoPP::TwoBases<CryptoPP::BlockCipher,CryptoPP::DES_Info> >::IVSize
PUBLIC	?AlgorithmName@?$AlgorithmImpl@V?$SimpleKeyingInterfaceImpl@V?$TwoBases@VBlockCipher@CryptoPP@@UDES_Info@2@@CryptoPP@@V12@@CryptoPP@@V12@@CryptoPP@@UBE?AV?$basic_string@DU?$char_traits@D@std@@V?$allocator@D@2@@std@@XZ ; CryptoPP::AlgorithmImpl<CryptoPP::SimpleKeyingInterfaceImpl<CryptoPP::TwoBases<CryptoPP::BlockCipher,CryptoPP::DES_Info>,CryptoPP::TwoBases<CryptoPP::BlockCipher,CryptoPP::DES_Info> >,CryptoPP::SimpleKeyingInterfaceImpl<CryptoPP::TwoBases<CryptoPP::BlockCipher,CryptoPP::DES_Info>,CryptoPP::TwoBases<CryptoPP::BlockCipher,CryptoPP::DES_Info> > >::AlgorithmName
PUBLIC	?BlockSize@?$BlockCipherImpl@UDES_Info@CryptoPP@@VBlockCipher@2@@CryptoPP@@UBEIXZ ; CryptoPP::BlockCipherImpl<CryptoPP::DES_Info,CryptoPP::BlockCipher>::BlockSize
PUBLIC	?MinKeyLength@?$SimpleKeyingInterfaceImpl@V?$TwoBases@VBlockCipher@CryptoPP@@UDES_XEX3_Info@2@@CryptoPP@@V12@@CryptoPP@@UBEIXZ ; CryptoPP::SimpleKeyingInterfaceImpl<CryptoPP::TwoBases<CryptoPP::BlockCipher,CryptoPP::DES_XEX3_Info>,CryptoPP::TwoBases<CryptoPP::BlockCipher,CryptoPP::DES_XEX3_Info> >::MinKeyLength
PUBLIC	?MaxKeyLength@?$SimpleKeyingInterfaceImpl@V?$TwoBases@VBlockCipher@CryptoPP@@UDES_XEX3_Info@2@@CryptoPP@@V12@@CryptoPP@@UBEIXZ ; CryptoPP::SimpleKeyingInterfaceImpl<CryptoPP::TwoBases<CryptoPP::BlockCipher,CryptoPP::DES_XEX3_Info>,CryptoPP::TwoBases<CryptoPP::BlockCipher,CryptoPP::DES_XEX3_Info> >::MaxKeyLength
PUBLIC	?DefaultKeyLength@?$SimpleKeyingInterfaceImpl@V?$TwoBases@VBlockCipher@CryptoPP@@UDES_XEX3_Info@2@@CryptoPP@@V12@@CryptoPP@@UBEIXZ ; CryptoPP::SimpleKeyingInterfaceImpl<CryptoPP::TwoBases<CryptoPP::BlockCipher,CryptoPP::DES_XEX3_Info>,CryptoPP::TwoBases<CryptoPP::BlockCipher,CryptoPP::DES_XEX3_Info> >::DefaultKeyLength
PUBLIC	?GetValidKeyLength@?$SimpleKeyingInterfaceImpl@V?$TwoBases@VBlockCipher@CryptoPP@@UDES_XEX3_Info@2@@CryptoPP@@V12@@CryptoPP@@UBEII@Z ; CryptoPP::SimpleKeyingInterfaceImpl<CryptoPP::TwoBases<CryptoPP::BlockCipher,CryptoPP::DES_XEX3_Info>,CryptoPP::TwoBases<CryptoPP::BlockCipher,CryptoPP::DES_XEX3_Info> >::GetValidKeyLength
PUBLIC	?IVRequirement@?$SimpleKeyingInterfaceImpl@V?$TwoBases@VBlockCipher@CryptoPP@@UDES_XEX3_Info@2@@CryptoPP@@V12@@CryptoPP@@UBE?AW4IV_Requirement@SimpleKeyingInterface@2@XZ ; CryptoPP::SimpleKeyingInterfaceImpl<CryptoPP::TwoBases<CryptoPP::BlockCipher,CryptoPP::DES_XEX3_Info>,CryptoPP::TwoBases<CryptoPP::BlockCipher,CryptoPP::DES_XEX3_Info> >::IVRequirement
PUBLIC	?IVSize@?$SimpleKeyingInterfaceImpl@V?$TwoBases@VBlockCipher@CryptoPP@@UDES_XEX3_Info@2@@CryptoPP@@V12@@CryptoPP@@UBEIXZ ; CryptoPP::SimpleKeyingInterfaceImpl<CryptoPP::TwoBases<CryptoPP::BlockCipher,CryptoPP::DES_XEX3_Info>,CryptoPP::TwoBases<CryptoPP::BlockCipher,CryptoPP::DES_XEX3_Info> >::IVSize
PUBLIC	?StaticAlgorithmName@?$AlgorithmImpl@V?$SimpleKeyingInterfaceImpl@V?$TwoBases@VBlockCipher@CryptoPP@@UDES_XEX3_Info@2@@CryptoPP@@V12@@CryptoPP@@V12@@CryptoPP@@SA?AV?$basic_string@DU?$char_traits@D@std@@V?$allocator@D@2@@std@@XZ ; CryptoPP::AlgorithmImpl<CryptoPP::SimpleKeyingInterfaceImpl<CryptoPP::TwoBases<CryptoPP::BlockCipher,CryptoPP::DES_XEX3_Info>,CryptoPP::TwoBases<CryptoPP::BlockCipher,CryptoPP::DES_XEX3_Info> >,CryptoPP::SimpleKeyingInterfaceImpl<CryptoPP::TwoBases<CryptoPP::BlockCipher,CryptoPP::DES_XEX3_Info>,CryptoPP::TwoBases<CryptoPP::BlockCipher,CryptoPP::DES_XEX3_Info> > >::StaticAlgorithmName
PUBLIC	?AlgorithmName@?$AlgorithmImpl@V?$SimpleKeyingInterfaceImpl@V?$TwoBases@VBlockCipher@CryptoPP@@UDES_XEX3_Info@2@@CryptoPP@@V12@@CryptoPP@@V12@@CryptoPP@@UBE?AV?$basic_string@DU?$char_traits@D@std@@V?$allocator@D@2@@std@@XZ ; CryptoPP::AlgorithmImpl<CryptoPP::SimpleKeyingInterfaceImpl<CryptoPP::TwoBases<CryptoPP::BlockCipher,CryptoPP::DES_XEX3_Info>,CryptoPP::TwoBases<CryptoPP::BlockCipher,CryptoPP::DES_XEX3_Info> >,CryptoPP::SimpleKeyingInterfaceImpl<CryptoPP::TwoBases<CryptoPP::BlockCipher,CryptoPP::DES_XEX3_Info>,CryptoPP::TwoBases<CryptoPP::BlockCipher,CryptoPP::DES_XEX3_Info> > >::AlgorithmName
PUBLIC	?BlockSize@?$BlockCipherImpl@UDES_XEX3_Info@CryptoPP@@VBlockCipher@2@@CryptoPP@@UBEIXZ ; CryptoPP::BlockCipherImpl<CryptoPP::DES_XEX3_Info,CryptoPP::BlockCipher>::BlockSize
PUBLIC	??1?$FixedSizeSecBlock@E$07V?$FixedSizeAllocatorWithCleanup@E$07V?$NullAllocator@E@CryptoPP@@$0A@@CryptoPP@@@CryptoPP@@QAE@XZ ; CryptoPP::FixedSizeSecBlock<unsigned char,8,CryptoPP::FixedSizeAllocatorWithCleanup<unsigned char,8,CryptoPP::NullAllocator<unsigned char>,0> >::~FixedSizeSecBlock<unsigned char,8,CryptoPP::FixedSizeAllocatorWithCleanup<unsigned char,8,CryptoPP::NullAllocator<unsigned char>,0> >
PUBLIC	??1?$member_ptr@V?$BlockCipherFinal@$0A@VBase@DES@CryptoPP@@@CryptoPP@@@CryptoPP@@QAE@XZ ; CryptoPP::member_ptr<CryptoPP::BlockCipherFinal<0,CryptoPP::DES::Base> >::~member_ptr<CryptoPP::BlockCipherFinal<0,CryptoPP::DES::Base> >
PUBLIC	??0?$value_ptr@V?$BlockCipherFinal@$0A@VBase@DES@CryptoPP@@@CryptoPP@@@CryptoPP@@QAE@ABV01@@Z ; CryptoPP::value_ptr<CryptoPP::BlockCipherFinal<0,CryptoPP::DES::Base> >::value_ptr<CryptoPP::BlockCipherFinal<0,CryptoPP::DES::Base> >
PUBLIC	??0Base@DES_XEX3@CryptoPP@@QAE@XZ		; CryptoPP::DES_XEX3::Base::Base
PUBLIC	??0Base@DES_XEX3@CryptoPP@@QAE@ABV012@@Z	; CryptoPP::DES_XEX3::Base::Base
PUBLIC	??0CSimpleModulus@@QAE@XZ			; CSimpleModulus::CSimpleModulus
PUBLIC	??1CSimpleModulus@@UAE@XZ			; CSimpleModulus::~CSimpleModulus
PUBLIC	?Init@CSimpleModulus@@QAEXXZ			; CSimpleModulus::Init
PUBLIC	?Encrypt@CSimpleModulus@@QAEHPAX0H@Z		; CSimpleModulus::Encrypt
PUBLIC	?Decrypt@CSimpleModulus@@QAEHPAX0H@Z		; CSimpleModulus::Decrypt
PUBLIC	?Clone@?$ClonableImpl@V?$BlockCipherFinal@$0A@VBase@DES_XEX3@CryptoPP@@@CryptoPP@@VBase@DES_XEX3@2@@CryptoPP@@UBEPAVClonable@2@XZ ; CryptoPP::ClonableImpl<CryptoPP::BlockCipherFinal<0,CryptoPP::DES_XEX3::Base>,CryptoPP::DES_XEX3::Base>::Clone
PUBLIC	?IsForwardTransformation@?$BlockCipherFinal@$0A@VBase@DES_XEX3@CryptoPP@@@CryptoPP@@UBE_NXZ ; CryptoPP::BlockCipherFinal<0,CryptoPP::DES_XEX3::Base>::IsForwardTransformation
PUBLIC	??_G?$BlockCipherFinal@$0A@VBase@DES_XEX3@CryptoPP@@@CryptoPP@@UAEPAXI@Z ; CryptoPP::BlockCipherFinal<0,CryptoPP::DES_XEX3::Base>::`scalar deleting destructor'
PUBLIC	??1?$ObjectHolder@V?$BlockCipherFinal@$0A@VBase@DES_XEX3@CryptoPP@@@CryptoPP@@@CryptoPP@@QAE@XZ ; CryptoPP::ObjectHolder<CryptoPP::BlockCipherFinal<0,CryptoPP::DES_XEX3::Base> >::~ObjectHolder<CryptoPP::BlockCipherFinal<0,CryptoPP::DES_XEX3::Base> >
PUBLIC	?AlgorithmName@?$AlgorithmImpl@VECB_OneWay@CryptoPP@@V?$CipherModeFinalTemplate_CipherHolder@V?$BlockCipherFinal@$0A@VBase@DES_XEX3@CryptoPP@@@CryptoPP@@VECB_OneWay@2@@2@@CryptoPP@@UBE?AV?$basic_string@DU?$char_traits@D@std@@V?$allocator@D@2@@std@@XZ ; CryptoPP::AlgorithmImpl<CryptoPP::ECB_OneWay,CryptoPP::CipherModeFinalTemplate_CipherHolder<CryptoPP::BlockCipherFinal<0,CryptoPP::DES_XEX3::Base>,CryptoPP::ECB_OneWay> >::AlgorithmName
PUBLIC	??1?$AlgorithmImpl@VECB_OneWay@CryptoPP@@V?$CipherModeFinalTemplate_CipherHolder@V?$BlockCipherFinal@$0A@VBase@DES_XEX3@CryptoPP@@@CryptoPP@@VECB_OneWay@2@@2@@CryptoPP@@UAE@XZ ; CryptoPP::AlgorithmImpl<CryptoPP::ECB_OneWay,CryptoPP::CipherModeFinalTemplate_CipherHolder<CryptoPP::BlockCipherFinal<0,CryptoPP::DES_XEX3::Base>,CryptoPP::ECB_OneWay> >::~AlgorithmImpl<CryptoPP::ECB_OneWay,CryptoPP::CipherModeFinalTemplate_CipherHolder<CryptoPP::BlockCipherFinal<0,CryptoPP::DES_XEX3::Base>,CryptoPP::ECB_OneWay> >
PUBLIC	??0?$CipherModeFinalTemplate_CipherHolder@V?$BlockCipherFinal@$0A@VBase@DES_XEX3@CryptoPP@@@CryptoPP@@VECB_OneWay@2@@CryptoPP@@QAE@XZ ; CryptoPP::CipherModeFinalTemplate_CipherHolder<CryptoPP::BlockCipherFinal<0,CryptoPP::DES_XEX3::Base>,CryptoPP::ECB_OneWay>::CipherModeFinalTemplate_CipherHolder<CryptoPP::BlockCipherFinal<0,CryptoPP::DES_XEX3::Base>,CryptoPP::ECB_OneWay>
PUBLIC	?StaticAlgorithmName@?$CipherModeFinalTemplate_CipherHolder@V?$BlockCipherFinal@$0A@VBase@DES_XEX3@CryptoPP@@@CryptoPP@@VECB_OneWay@2@@CryptoPP@@SA?AV?$basic_string@DU?$char_traits@D@std@@V?$allocator@D@2@@std@@XZ ; CryptoPP::CipherModeFinalTemplate_CipherHolder<CryptoPP::BlockCipherFinal<0,CryptoPP::DES_XEX3::Base>,CryptoPP::ECB_OneWay>::StaticAlgorithmName
PUBLIC	??1?$CipherModeFinalTemplate_CipherHolder@V?$BlockCipherFinal@$0A@VBase@DES_XEX3@CryptoPP@@@CryptoPP@@VECB_OneWay@2@@CryptoPP@@UAE@XZ ; CryptoPP::CipherModeFinalTemplate_CipherHolder<CryptoPP::BlockCipherFinal<0,CryptoPP::DES_XEX3::Base>,CryptoPP::ECB_OneWay>::~CipherModeFinalTemplate_CipherHolder<CryptoPP::BlockCipherFinal<0,CryptoPP::DES_XEX3::Base>,CryptoPP::ECB_OneWay>
PUBLIC	??_G?$CipherModeFinalTemplate_CipherHolder@V?$BlockCipherFinal@$0A@VBase@DES_XEX3@CryptoPP@@@CryptoPP@@VECB_OneWay@2@@CryptoPP@@UAEPAXI@Z ; CryptoPP::CipherModeFinalTemplate_CipherHolder<CryptoPP::BlockCipherFinal<0,CryptoPP::DES_XEX3::Base>,CryptoPP::ECB_OneWay>::`scalar deleting destructor'
PUBLIC	?Clone@?$ClonableImpl@V?$BlockCipherFinal@$00VBase@DES_XEX3@CryptoPP@@@CryptoPP@@VBase@DES_XEX3@2@@CryptoPP@@UBEPAVClonable@2@XZ ; CryptoPP::ClonableImpl<CryptoPP::BlockCipherFinal<1,CryptoPP::DES_XEX3::Base>,CryptoPP::DES_XEX3::Base>::Clone
PUBLIC	?IsForwardTransformation@?$BlockCipherFinal@$00VBase@DES_XEX3@CryptoPP@@@CryptoPP@@UBE_NXZ ; CryptoPP::BlockCipherFinal<1,CryptoPP::DES_XEX3::Base>::IsForwardTransformation
PUBLIC	??_G?$BlockCipherFinal@$00VBase@DES_XEX3@CryptoPP@@@CryptoPP@@UAEPAXI@Z ; CryptoPP::BlockCipherFinal<1,CryptoPP::DES_XEX3::Base>::`scalar deleting destructor'
PUBLIC	??1?$ObjectHolder@V?$BlockCipherFinal@$00VBase@DES_XEX3@CryptoPP@@@CryptoPP@@@CryptoPP@@QAE@XZ ; CryptoPP::ObjectHolder<CryptoPP::BlockCipherFinal<1,CryptoPP::DES_XEX3::Base> >::~ObjectHolder<CryptoPP::BlockCipherFinal<1,CryptoPP::DES_XEX3::Base> >
PUBLIC	?AlgorithmName@?$AlgorithmImpl@VECB_OneWay@CryptoPP@@V?$CipherModeFinalTemplate_CipherHolder@V?$BlockCipherFinal@$00VBase@DES_XEX3@CryptoPP@@@CryptoPP@@VECB_OneWay@2@@2@@CryptoPP@@UBE?AV?$basic_string@DU?$char_traits@D@std@@V?$allocator@D@2@@std@@XZ ; CryptoPP::AlgorithmImpl<CryptoPP::ECB_OneWay,CryptoPP::CipherModeFinalTemplate_CipherHolder<CryptoPP::BlockCipherFinal<1,CryptoPP::DES_XEX3::Base>,CryptoPP::ECB_OneWay> >::AlgorithmName
PUBLIC	??1?$AlgorithmImpl@VECB_OneWay@CryptoPP@@V?$CipherModeFinalTemplate_CipherHolder@V?$BlockCipherFinal@$00VBase@DES_XEX3@CryptoPP@@@CryptoPP@@VECB_OneWay@2@@2@@CryptoPP@@UAE@XZ ; CryptoPP::AlgorithmImpl<CryptoPP::ECB_OneWay,CryptoPP::CipherModeFinalTemplate_CipherHolder<CryptoPP::BlockCipherFinal<1,CryptoPP::DES_XEX3::Base>,CryptoPP::ECB_OneWay> >::~AlgorithmImpl<CryptoPP::ECB_OneWay,CryptoPP::CipherModeFinalTemplate_CipherHolder<CryptoPP::BlockCipherFinal<1,CryptoPP::DES_XEX3::Base>,CryptoPP::ECB_OneWay> >
PUBLIC	??0?$CipherModeFinalTemplate_CipherHolder@V?$BlockCipherFinal@$00VBase@DES_XEX3@CryptoPP@@@CryptoPP@@VECB_OneWay@2@@CryptoPP@@QAE@XZ ; CryptoPP::CipherModeFinalTemplate_CipherHolder<CryptoPP::BlockCipherFinal<1,CryptoPP::DES_XEX3::Base>,CryptoPP::ECB_OneWay>::CipherModeFinalTemplate_CipherHolder<CryptoPP::BlockCipherFinal<1,CryptoPP::DES_XEX3::Base>,CryptoPP::ECB_OneWay>
PUBLIC	?StaticAlgorithmName@?$CipherModeFinalTemplate_CipherHolder@V?$BlockCipherFinal@$00VBase@DES_XEX3@CryptoPP@@@CryptoPP@@VECB_OneWay@2@@CryptoPP@@SA?AV?$basic_string@DU?$char_traits@D@std@@V?$allocator@D@2@@std@@XZ ; CryptoPP::CipherModeFinalTemplate_CipherHolder<CryptoPP::BlockCipherFinal<1,CryptoPP::DES_XEX3::Base>,CryptoPP::ECB_OneWay>::StaticAlgorithmName
PUBLIC	??1?$CipherModeFinalTemplate_CipherHolder@V?$BlockCipherFinal@$00VBase@DES_XEX3@CryptoPP@@@CryptoPP@@VECB_OneWay@2@@CryptoPP@@UAE@XZ ; CryptoPP::CipherModeFinalTemplate_CipherHolder<CryptoPP::BlockCipherFinal<1,CryptoPP::DES_XEX3::Base>,CryptoPP::ECB_OneWay>::~CipherModeFinalTemplate_CipherHolder<CryptoPP::BlockCipherFinal<1,CryptoPP::DES_XEX3::Base>,CryptoPP::ECB_OneWay>
PUBLIC	??_G?$CipherModeFinalTemplate_CipherHolder@V?$BlockCipherFinal@$00VBase@DES_XEX3@CryptoPP@@@CryptoPP@@VECB_OneWay@2@@CryptoPP@@UAEPAXI@Z ; CryptoPP::CipherModeFinalTemplate_CipherHolder<CryptoPP::BlockCipherFinal<1,CryptoPP::DES_XEX3::Base>,CryptoPP::ECB_OneWay>::`scalar deleting destructor'
PUBLIC	??_GCSimpleModulus@@UAEPAXI@Z			; CSimpleModulus::`scalar deleting destructor'
PUBLIC	?Clone@?$ClonableImpl@V?$BlockCipherFinal@$0A@VBase@DES@CryptoPP@@@CryptoPP@@VBase@DES@2@@CryptoPP@@UBEPAVClonable@2@XZ ; CryptoPP::ClonableImpl<CryptoPP::BlockCipherFinal<0,CryptoPP::DES::Base>,CryptoPP::DES::Base>::Clone
PUBLIC	?IsForwardTransformation@?$BlockCipherFinal@$0A@VBase@DES@CryptoPP@@@CryptoPP@@UBE_NXZ ; CryptoPP::BlockCipherFinal<0,CryptoPP::DES::Base>::IsForwardTransformation
PUBLIC	??_G?$BlockCipherFinal@$0A@VBase@DES@CryptoPP@@@CryptoPP@@UAEPAXI@Z ; CryptoPP::BlockCipherFinal<0,CryptoPP::DES::Base>::`scalar deleting destructor'
PUBLIC	??$StandardReallocate@EV?$AllocatorWithCleanup@E$00@CryptoPP@@@CryptoPP@@YAPAEAAV?$AllocatorWithCleanup@E$00@0@PAEII_N@Z ; CryptoPP::StandardReallocate<unsigned char,CryptoPP::AllocatorWithCleanup<unsigned char,1> >
PUBLIC	??$StandardReallocate@EV?$AllocatorWithCleanup@E$0A@@CryptoPP@@@CryptoPP@@YAPAEAAV?$AllocatorWithCleanup@E$0A@@0@PAEII_N@Z ; CryptoPP::StandardReallocate<unsigned char,CryptoPP::AllocatorWithCleanup<unsigned char,0> >
PUBLIC	??_E?$BlockCipherFinal@$0A@VBase@DES@CryptoPP@@@CryptoPP@@W3AEPAXI@Z ; [thunk]:CryptoPP::BlockCipherFinal<0,CryptoPP::DES::Base>::`vector deleting destructor'
PUBLIC	??_E?$BlockCipherFinal@$0A@VBase@DES_XEX3@CryptoPP@@@CryptoPP@@W3AEPAXI@Z ; [thunk]:CryptoPP::BlockCipherFinal<0,CryptoPP::DES_XEX3::Base>::`vector deleting destructor'
PUBLIC	??_E?$BlockCipherFinal@$00VBase@DES_XEX3@CryptoPP@@@CryptoPP@@W3AEPAXI@Z ; [thunk]:CryptoPP::BlockCipherFinal<1,CryptoPP::DES_XEX3::Base>::`vector deleting destructor'
PUBLIC	??_E?$CipherModeFinalTemplate_CipherHolder@V?$BlockCipherFinal@$0A@VBase@DES_XEX3@CryptoPP@@@CryptoPP@@VECB_OneWay@2@@CryptoPP@@W3AEPAXI@Z ; [thunk]:CryptoPP::CipherModeFinalTemplate_CipherHolder<CryptoPP::BlockCipherFinal<0,CryptoPP::DES_XEX3::Base>,CryptoPP::ECB_OneWay>::`vector deleting destructor'
PUBLIC	??_E?$CipherModeFinalTemplate_CipherHolder@V?$BlockCipherFinal@$00VBase@DES_XEX3@CryptoPP@@@CryptoPP@@VECB_OneWay@2@@CryptoPP@@W3AEPAXI@Z ; [thunk]:CryptoPP::CipherModeFinalTemplate_CipherHolder<CryptoPP::BlockCipherFinal<1,CryptoPP::DES_XEX3::Base>,CryptoPP::ECB_OneWay>::`vector deleting destructor'
PUBLIC	??_7exception@std@@6B@				; std::exception::`vftable'
PUBLIC	??_C@_0BC@EOODALEL@Unknown?5exception?$AA@	; `string'
PUBLIC	??_R0?AVexception@std@@@8			; std::exception `RTTI Type Descriptor'
PUBLIC	__CT??_R0?AVexception@std@@@8??0exception@std@@QAE@ABV01@@Z12
PUBLIC	??_C@_0BI@CFPLBAOH@invalid?5string?5position?$AA@ ; `string'
PUBLIC	??_C@_0BA@JFNIOLAK@string?5too?5long?$AA@	; `string'
PUBLIC	??_R4exception@std@@6B@				; std::exception::`RTTI Complete Object Locator'
PUBLIC	??_R3exception@std@@8				; std::exception::`RTTI Class Hierarchy Descriptor'
PUBLIC	??_R2exception@std@@8				; std::exception::`RTTI Base Class Array'
PUBLIC	??_R1A@?0A@EA@exception@std@@8			; std::exception::`RTTI Base Class Descriptor at (0,-1,0,64)'
PUBLIC	??_7Exception@CryptoPP@@6B@			; CryptoPP::Exception::`vftable'
PUBLIC	??_7InvalidArgument@CryptoPP@@6B@		; CryptoPP::InvalidArgument::`vftable'
PUBLIC	??_7NotImplemented@CryptoPP@@6B@		; CryptoPP::NotImplemented::`vftable'
PUBLIC	??_R0?AVInvalidArgument@CryptoPP@@@8		; CryptoPP::InvalidArgument `RTTI Type Descriptor'
PUBLIC	__CT??_R0?AVInvalidArgument@CryptoPP@@@8??0InvalidArgument@CryptoPP@@QAE@ABV01@@Z40
PUBLIC	??_R0?AVException@CryptoPP@@@8			; CryptoPP::Exception `RTTI Type Descriptor'
PUBLIC	__CT??_R0?AVException@CryptoPP@@@8??0Exception@CryptoPP@@QAE@ABV01@@Z40
PUBLIC	__TI3?AVInvalidArgument@CryptoPP@@
PUBLIC	__CTA3?AVInvalidArgument@CryptoPP@@
PUBLIC	__TI3?AVNotImplemented@CryptoPP@@
PUBLIC	__CTA3?AVNotImplemented@CryptoPP@@
PUBLIC	??_R0?AVNotImplemented@CryptoPP@@@8		; CryptoPP::NotImplemented `RTTI Type Descriptor'
PUBLIC	__CT??_R0?AVNotImplemented@CryptoPP@@@8??0NotImplemented@CryptoPP@@QAE@ABV01@@Z40
PUBLIC	??_C@_0CA@CCPAJEEJ@Clone?$CI?$CJ?5is?5not?5implemented?5yet?4?$AA@ ; `string'
PUBLIC	??_C@_0DA@CJIHPKKH@?3?5this?5object?5doesn?8t?5support?5re@ ; `string'
PUBLIC	??_C@_0EA@BPAJPOGP@StreamTransformation?3?5this?5objec@ ; `string'
PUBLIC	??_C@_0EH@FMNEDLJE@CipherModeBase?3?5feedback?5size?5ca@ ; `string'
PUBLIC	??_C@_03MCOCJGPC@ECB?$AA@			; `string'
PUBLIC	??_C@_03CNAKKODF@DES?$AA@			; `string'
PUBLIC	??_C@_08GAJHKGCM@DES?9XEX3?$AA@			; `string'
PUBLIC	??_7?$BlockCipherFinal@$0A@VBase@DES_XEX3@CryptoPP@@@CryptoPP@@6BSimpleKeyingInterface@1@@ ; CryptoPP::BlockCipherFinal<0,CryptoPP::DES_XEX3::Base>::`vftable'
PUBLIC	??_7?$BlockCipherFinal@$0A@VBase@DES_XEX3@CryptoPP@@@CryptoPP@@6BBlockTransformation@1@@ ; CryptoPP::BlockCipherFinal<0,CryptoPP::DES_XEX3::Base>::`vftable'
PUBLIC	??_7?$CipherModeFinalTemplate_CipherHolder@V?$BlockCipherFinal@$0A@VBase@DES_XEX3@CryptoPP@@@CryptoPP@@VECB_OneWay@2@@CryptoPP@@6BSimpleKeyingInterface@1@@ ; CryptoPP::CipherModeFinalTemplate_CipherHolder<CryptoPP::BlockCipherFinal<0,CryptoPP::DES_XEX3::Base>,CryptoPP::ECB_OneWay>::`vftable'
PUBLIC	??_7?$CipherModeFinalTemplate_CipherHolder@V?$BlockCipherFinal@$0A@VBase@DES_XEX3@CryptoPP@@@CryptoPP@@VECB_OneWay@2@@CryptoPP@@6BStreamTransformation@1@@ ; CryptoPP::CipherModeFinalTemplate_CipherHolder<CryptoPP::BlockCipherFinal<0,CryptoPP::DES_XEX3::Base>,CryptoPP::ECB_OneWay>::`vftable'
PUBLIC	??_7?$BlockCipherFinal@$00VBase@DES_XEX3@CryptoPP@@@CryptoPP@@6BSimpleKeyingInterface@1@@ ; CryptoPP::BlockCipherFinal<1,CryptoPP::DES_XEX3::Base>::`vftable'
PUBLIC	??_7?$BlockCipherFinal@$00VBase@DES_XEX3@CryptoPP@@@CryptoPP@@6BBlockTransformation@1@@ ; CryptoPP::BlockCipherFinal<1,CryptoPP::DES_XEX3::Base>::`vftable'
PUBLIC	??_7?$CipherModeFinalTemplate_CipherHolder@V?$BlockCipherFinal@$00VBase@DES_XEX3@CryptoPP@@@CryptoPP@@VECB_OneWay@2@@CryptoPP@@6BSimpleKeyingInterface@1@@ ; CryptoPP::CipherModeFinalTemplate_CipherHolder<CryptoPP::BlockCipherFinal<1,CryptoPP::DES_XEX3::Base>,CryptoPP::ECB_OneWay>::`vftable'
PUBLIC	??_7?$CipherModeFinalTemplate_CipherHolder@V?$BlockCipherFinal@$00VBase@DES_XEX3@CryptoPP@@@CryptoPP@@VECB_OneWay@2@@CryptoPP@@6BStreamTransformation@1@@ ; CryptoPP::CipherModeFinalTemplate_CipherHolder<CryptoPP::BlockCipherFinal<1,CryptoPP::DES_XEX3::Base>,CryptoPP::ECB_OneWay>::`vftable'
PUBLIC	??_7CSimpleModulus@@6B@				; CSimpleModulus::`vftable'
PUBLIC	??_C@_01KMDKNFGN@?1?$AA@			; `string'
PUBLIC	??_7?$BlockCipherFinal@$0A@VBase@DES@CryptoPP@@@CryptoPP@@6BSimpleKeyingInterface@1@@ ; CryptoPP::BlockCipherFinal<0,CryptoPP::DES::Base>::`vftable'
PUBLIC	??_7?$BlockCipherFinal@$0A@VBase@DES@CryptoPP@@@CryptoPP@@6BBlockTransformation@1@@ ; CryptoPP::BlockCipherFinal<0,CryptoPP::DES::Base>::`vftable'
PUBLIC	??_C@_0DL@LFCPKOMM@AllocatorBase?3?5requested?5size?5wo@ ; `string'
PUBLIC	??_R1A@?0A@EA@Algorithm@CryptoPP@@8		; CryptoPP::Algorithm::`RTTI Base Class Descriptor at (0,-1,0,64)'
PUBLIC	??_R0?AVAlgorithm@CryptoPP@@@8			; CryptoPP::Algorithm `RTTI Type Descriptor'
PUBLIC	??_R3Algorithm@CryptoPP@@8			; CryptoPP::Algorithm::`RTTI Class Hierarchy Descriptor'
PUBLIC	??_R2Algorithm@CryptoPP@@8			; CryptoPP::Algorithm::`RTTI Base Class Array'
PUBLIC	??_R1A@?0A@EA@Clonable@CryptoPP@@8		; CryptoPP::Clonable::`RTTI Base Class Descriptor at (0,-1,0,64)'
PUBLIC	??_R0?AVClonable@CryptoPP@@@8			; CryptoPP::Clonable `RTTI Type Descriptor'
PUBLIC	??_R3Clonable@CryptoPP@@8			; CryptoPP::Clonable::`RTTI Class Hierarchy Descriptor'
PUBLIC	??_R2Clonable@CryptoPP@@8			; CryptoPP::Clonable::`RTTI Base Class Array'
PUBLIC	??_R4Exception@CryptoPP@@6B@			; CryptoPP::Exception::`RTTI Complete Object Locator'
PUBLIC	??_R3Exception@CryptoPP@@8			; CryptoPP::Exception::`RTTI Class Hierarchy Descriptor'
PUBLIC	??_R2Exception@CryptoPP@@8			; CryptoPP::Exception::`RTTI Base Class Array'
PUBLIC	??_R1A@?0A@EA@Exception@CryptoPP@@8		; CryptoPP::Exception::`RTTI Base Class Descriptor at (0,-1,0,64)'
PUBLIC	??_R4InvalidArgument@CryptoPP@@6B@		; CryptoPP::InvalidArgument::`RTTI Complete Object Locator'
PUBLIC	??_R3InvalidArgument@CryptoPP@@8		; CryptoPP::InvalidArgument::`RTTI Class Hierarchy Descriptor'
PUBLIC	??_R2InvalidArgument@CryptoPP@@8		; CryptoPP::InvalidArgument::`RTTI Base Class Array'
PUBLIC	??_R1A@?0A@EA@InvalidArgument@CryptoPP@@8	; CryptoPP::InvalidArgument::`RTTI Base Class Descriptor at (0,-1,0,64)'
PUBLIC	??_R4NotImplemented@CryptoPP@@6B@		; CryptoPP::NotImplemented::`RTTI Complete Object Locator'
PUBLIC	??_R3NotImplemented@CryptoPP@@8			; CryptoPP::NotImplemented::`RTTI Class Hierarchy Descriptor'
PUBLIC	??_R2NotImplemented@CryptoPP@@8			; CryptoPP::NotImplemented::`RTTI Base Class Array'
PUBLIC	??_R1A@?0A@EA@NotImplemented@CryptoPP@@8	; CryptoPP::NotImplemented::`RTTI Base Class Descriptor at (0,-1,0,64)'
PUBLIC	??_R0?AVSimpleKeyingInterface@CryptoPP@@@8	; CryptoPP::SimpleKeyingInterface `RTTI Type Descriptor'
PUBLIC	??_R3SimpleKeyingInterface@CryptoPP@@8		; CryptoPP::SimpleKeyingInterface::`RTTI Class Hierarchy Descriptor'
PUBLIC	??_R2SimpleKeyingInterface@CryptoPP@@8		; CryptoPP::SimpleKeyingInterface::`RTTI Base Class Array'
PUBLIC	??_R1A@?0A@EA@SimpleKeyingInterface@CryptoPP@@8	; CryptoPP::SimpleKeyingInterface::`RTTI Base Class Descriptor at (0,-1,0,64)'
PUBLIC	??_R0?AVBlockTransformation@CryptoPP@@@8	; CryptoPP::BlockTransformation `RTTI Type Descriptor'
PUBLIC	??_R3BlockTransformation@CryptoPP@@8		; CryptoPP::BlockTransformation::`RTTI Class Hierarchy Descriptor'
PUBLIC	??_R2BlockTransformation@CryptoPP@@8		; CryptoPP::BlockTransformation::`RTTI Base Class Array'
PUBLIC	??_R1A@?0A@EA@BlockTransformation@CryptoPP@@8	; CryptoPP::BlockTransformation::`RTTI Base Class Descriptor at (0,-1,0,64)'
PUBLIC	??_R0?AVStreamTransformation@CryptoPP@@@8	; CryptoPP::StreamTransformation `RTTI Type Descriptor'
PUBLIC	??_R3StreamTransformation@CryptoPP@@8		; CryptoPP::StreamTransformation::`RTTI Class Hierarchy Descriptor'
PUBLIC	??_R2StreamTransformation@CryptoPP@@8		; CryptoPP::StreamTransformation::`RTTI Base Class Array'
PUBLIC	??_R1A@?0A@EA@StreamTransformation@CryptoPP@@8	; CryptoPP::StreamTransformation::`RTTI Base Class Descriptor at (0,-1,0,64)'
PUBLIC	??_R0?AVBlockCipher@CryptoPP@@@8		; CryptoPP::BlockCipher `RTTI Type Descriptor'
PUBLIC	??_R3BlockCipher@CryptoPP@@8			; CryptoPP::BlockCipher::`RTTI Class Hierarchy Descriptor'
PUBLIC	??_R2BlockCipher@CryptoPP@@8			; CryptoPP::BlockCipher::`RTTI Base Class Array'
PUBLIC	??_R1A@?0A@EA@BlockCipher@CryptoPP@@8		; CryptoPP::BlockCipher::`RTTI Base Class Descriptor at (0,-1,0,64)'
PUBLIC	??_R13?0A@EA@BlockTransformation@CryptoPP@@8	; CryptoPP::BlockTransformation::`RTTI Base Class Descriptor at (4,-1,0,64)'
PUBLIC	??_R13?0A@EA@Algorithm@CryptoPP@@8		; CryptoPP::Algorithm::`RTTI Base Class Descriptor at (4,-1,0,64)'
PUBLIC	??_R13?0A@EA@Clonable@CryptoPP@@8		; CryptoPP::Clonable::`RTTI Base Class Descriptor at (4,-1,0,64)'
PUBLIC	??_R0?AVSymmetricCipher@CryptoPP@@@8		; CryptoPP::SymmetricCipher `RTTI Type Descriptor'
PUBLIC	??_R3SymmetricCipher@CryptoPP@@8		; CryptoPP::SymmetricCipher::`RTTI Class Hierarchy Descriptor'
PUBLIC	??_R2SymmetricCipher@CryptoPP@@8		; CryptoPP::SymmetricCipher::`RTTI Base Class Array'
PUBLIC	??_R1A@?0A@EA@SymmetricCipher@CryptoPP@@8	; CryptoPP::SymmetricCipher::`RTTI Base Class Descriptor at (0,-1,0,64)'
PUBLIC	??_R13?0A@EA@StreamTransformation@CryptoPP@@8	; CryptoPP::StreamTransformation::`RTTI Base Class Descriptor at (4,-1,0,64)'
PUBLIC	??_R0?AVCipherModeBase@CryptoPP@@@8		; CryptoPP::CipherModeBase `RTTI Type Descriptor'
PUBLIC	??_R3CipherModeBase@CryptoPP@@8			; CryptoPP::CipherModeBase::`RTTI Class Hierarchy Descriptor'
PUBLIC	??_R2CipherModeBase@CryptoPP@@8			; CryptoPP::CipherModeBase::`RTTI Base Class Array'
PUBLIC	??_R1A@?0A@EA@CipherModeBase@CryptoPP@@8	; CryptoPP::CipherModeBase::`RTTI Base Class Descriptor at (0,-1,0,64)'
PUBLIC	??_R0?AVBlockOrientedCipherModeBase@CryptoPP@@@8 ; CryptoPP::BlockOrientedCipherModeBase `RTTI Type Descriptor'
PUBLIC	??_R3BlockOrientedCipherModeBase@CryptoPP@@8	; CryptoPP::BlockOrientedCipherModeBase::`RTTI Class Hierarchy Descriptor'
PUBLIC	??_R2BlockOrientedCipherModeBase@CryptoPP@@8	; CryptoPP::BlockOrientedCipherModeBase::`RTTI Base Class Array'
PUBLIC	??_R1A@?0A@EA@BlockOrientedCipherModeBase@CryptoPP@@8 ; CryptoPP::BlockOrientedCipherModeBase::`RTTI Base Class Descriptor at (0,-1,0,64)'
PUBLIC	??_R0?AVECB_OneWay@CryptoPP@@@8			; CryptoPP::ECB_OneWay `RTTI Type Descriptor'
PUBLIC	??_R3ECB_OneWay@CryptoPP@@8			; CryptoPP::ECB_OneWay::`RTTI Class Hierarchy Descriptor'
PUBLIC	??_R2ECB_OneWay@CryptoPP@@8			; CryptoPP::ECB_OneWay::`RTTI Base Class Array'
PUBLIC	??_R1A@?0A@EA@ECB_OneWay@CryptoPP@@8		; CryptoPP::ECB_OneWay::`RTTI Base Class Descriptor at (0,-1,0,64)'
PUBLIC	??_R0?AVBase@DES@CryptoPP@@@8			; CryptoPP::DES::Base `RTTI Type Descriptor'
PUBLIC	??_R3Base@DES@CryptoPP@@8			; CryptoPP::DES::Base::`RTTI Class Hierarchy Descriptor'
PUBLIC	??_R2Base@DES@CryptoPP@@8			; CryptoPP::DES::Base::`RTTI Base Class Array'
PUBLIC	??_R1A@?0A@EA@Base@DES@CryptoPP@@8		; CryptoPP::DES::Base::`RTTI Base Class Descriptor at (0,-1,0,64)'
PUBLIC	??_R1A@?0A@EA@?$BlockCipherImpl@UDES_Info@CryptoPP@@VBlockCipher@2@@CryptoPP@@8 ; CryptoPP::BlockCipherImpl<CryptoPP::DES_Info,CryptoPP::BlockCipher>::`RTTI Base Class Descriptor at (0,-1,0,64)'
PUBLIC	??_R0?AV?$BlockCipherImpl@UDES_Info@CryptoPP@@VBlockCipher@2@@CryptoPP@@@8 ; CryptoPP::BlockCipherImpl<CryptoPP::DES_Info,CryptoPP::BlockCipher> `RTTI Type Descriptor'
PUBLIC	??_R3?$BlockCipherImpl@UDES_Info@CryptoPP@@VBlockCipher@2@@CryptoPP@@8 ; CryptoPP::BlockCipherImpl<CryptoPP::DES_Info,CryptoPP::BlockCipher>::`RTTI Class Hierarchy Descriptor'
PUBLIC	??_R2?$BlockCipherImpl@UDES_Info@CryptoPP@@VBlockCipher@2@@CryptoPP@@8 ; CryptoPP::BlockCipherImpl<CryptoPP::DES_Info,CryptoPP::BlockCipher>::`RTTI Base Class Array'
PUBLIC	??_R1A@?0A@EA@?$AlgorithmImpl@V?$SimpleKeyingInterfaceImpl@V?$TwoBases@VBlockCipher@CryptoPP@@UDES_Info@2@@CryptoPP@@V12@@CryptoPP@@V12@@CryptoPP@@8 ; CryptoPP::AlgorithmImpl<CryptoPP::SimpleKeyingInterfaceImpl<CryptoPP::TwoBases<CryptoPP::BlockCipher,CryptoPP::DES_Info>,CryptoPP::TwoBases<CryptoPP::BlockCipher,CryptoPP::DES_Info> >,CryptoPP::SimpleKeyingInterfaceImpl<CryptoPP::TwoBases<CryptoPP::BlockCipher,CryptoPP::DES_Info>,CryptoPP::TwoBases<CryptoPP::BlockCipher,CryptoPP::DES_Info> > >::`RTTI Base Class Descriptor at (0,-1,0,64)'
PUBLIC	??_R0?AV?$AlgorithmImpl@V?$SimpleKeyingInterfaceImpl@V?$TwoBases@VBlockCipher@CryptoPP@@UDES_Info@2@@CryptoPP@@V12@@CryptoPP@@V12@@CryptoPP@@@8 ; CryptoPP::AlgorithmImpl<CryptoPP::SimpleKeyingInterfaceImpl<CryptoPP::TwoBases<CryptoPP::BlockCipher,CryptoPP::DES_Info>,CryptoPP::TwoBases<CryptoPP::BlockCipher,CryptoPP::DES_Info> >,CryptoPP::SimpleKeyingInterfaceImpl<CryptoPP::TwoBases<CryptoPP::BlockCipher,CryptoPP::DES_Info>,CryptoPP::TwoBases<CryptoPP::BlockCipher,CryptoPP::DES_Info> > > `RTTI Type Descriptor'
PUBLIC	??_R3?$AlgorithmImpl@V?$SimpleKeyingInterfaceImpl@V?$TwoBases@VBlockCipher@CryptoPP@@UDES_Info@2@@CryptoPP@@V12@@CryptoPP@@V12@@CryptoPP@@8 ; CryptoPP::AlgorithmImpl<CryptoPP::SimpleKeyingInterfaceImpl<CryptoPP::TwoBases<CryptoPP::BlockCipher,CryptoPP::DES_Info>,CryptoPP::TwoBases<CryptoPP::BlockCipher,CryptoPP::DES_Info> >,CryptoPP::SimpleKeyingInterfaceImpl<CryptoPP::TwoBases<CryptoPP::BlockCipher,CryptoPP::DES_Info>,CryptoPP::TwoBases<CryptoPP::BlockCipher,CryptoPP::DES_Info> > >::`RTTI Class Hierarchy Descriptor'
PUBLIC	??_R2?$AlgorithmImpl@V?$SimpleKeyingInterfaceImpl@V?$TwoBases@VBlockCipher@CryptoPP@@UDES_Info@2@@CryptoPP@@V12@@CryptoPP@@V12@@CryptoPP@@8 ; CryptoPP::AlgorithmImpl<CryptoPP::SimpleKeyingInterfaceImpl<CryptoPP::TwoBases<CryptoPP::BlockCipher,CryptoPP::DES_Info>,CryptoPP::TwoBases<CryptoPP::BlockCipher,CryptoPP::DES_Info> >,CryptoPP::SimpleKeyingInterfaceImpl<CryptoPP::TwoBases<CryptoPP::BlockCipher,CryptoPP::DES_Info>,CryptoPP::TwoBases<CryptoPP::BlockCipher,CryptoPP::DES_Info> > >::`RTTI Base Class Array'
PUBLIC	??_R1A@?0A@EA@?$SimpleKeyingInterfaceImpl@V?$TwoBases@VBlockCipher@CryptoPP@@UDES_Info@2@@CryptoPP@@V12@@CryptoPP@@8 ; CryptoPP::SimpleKeyingInterfaceImpl<CryptoPP::TwoBases<CryptoPP::BlockCipher,CryptoPP::DES_Info>,CryptoPP::TwoBases<CryptoPP::BlockCipher,CryptoPP::DES_Info> >::`RTTI Base Class Descriptor at (0,-1,0,64)'
PUBLIC	??_R0?AV?$SimpleKeyingInterfaceImpl@V?$TwoBases@VBlockCipher@CryptoPP@@UDES_Info@2@@CryptoPP@@V12@@CryptoPP@@@8 ; CryptoPP::SimpleKeyingInterfaceImpl<CryptoPP::TwoBases<CryptoPP::BlockCipher,CryptoPP::DES_Info>,CryptoPP::TwoBases<CryptoPP::BlockCipher,CryptoPP::DES_Info> > `RTTI Type Descriptor'
PUBLIC	??_R3?$SimpleKeyingInterfaceImpl@V?$TwoBases@VBlockCipher@CryptoPP@@UDES_Info@2@@CryptoPP@@V12@@CryptoPP@@8 ; CryptoPP::SimpleKeyingInterfaceImpl<CryptoPP::TwoBases<CryptoPP::BlockCipher,CryptoPP::DES_Info>,CryptoPP::TwoBases<CryptoPP::BlockCipher,CryptoPP::DES_Info> >::`RTTI Class Hierarchy Descriptor'
PUBLIC	??_R2?$SimpleKeyingInterfaceImpl@V?$TwoBases@VBlockCipher@CryptoPP@@UDES_Info@2@@CryptoPP@@V12@@CryptoPP@@8 ; CryptoPP::SimpleKeyingInterfaceImpl<CryptoPP::TwoBases<CryptoPP::BlockCipher,CryptoPP::DES_Info>,CryptoPP::TwoBases<CryptoPP::BlockCipher,CryptoPP::DES_Info> >::`RTTI Base Class Array'
PUBLIC	??_R1A@?0A@EA@?$TwoBases@VBlockCipher@CryptoPP@@UDES_Info@2@@CryptoPP@@8 ; CryptoPP::TwoBases<CryptoPP::BlockCipher,CryptoPP::DES_Info>::`RTTI Base Class Descriptor at (0,-1,0,64)'
PUBLIC	??_R0?AV?$TwoBases@VBlockCipher@CryptoPP@@UDES_Info@2@@CryptoPP@@@8 ; CryptoPP::TwoBases<CryptoPP::BlockCipher,CryptoPP::DES_Info> `RTTI Type Descriptor'
PUBLIC	??_R3?$TwoBases@VBlockCipher@CryptoPP@@UDES_Info@2@@CryptoPP@@8 ; CryptoPP::TwoBases<CryptoPP::BlockCipher,CryptoPP::DES_Info>::`RTTI Class Hierarchy Descriptor'
PUBLIC	??_R2?$TwoBases@VBlockCipher@CryptoPP@@UDES_Info@2@@CryptoPP@@8 ; CryptoPP::TwoBases<CryptoPP::BlockCipher,CryptoPP::DES_Info>::`RTTI Base Class Array'
PUBLIC	??_R17?0A@EA@DES_Info@CryptoPP@@8		; CryptoPP::DES_Info::`RTTI Base Class Descriptor at (8,-1,0,64)'
PUBLIC	??_R0?AUDES_Info@CryptoPP@@@8			; CryptoPP::DES_Info `RTTI Type Descriptor'
PUBLIC	??_R3DES_Info@CryptoPP@@8			; CryptoPP::DES_Info::`RTTI Class Hierarchy Descriptor'
PUBLIC	??_R2DES_Info@CryptoPP@@8			; CryptoPP::DES_Info::`RTTI Base Class Array'
PUBLIC	??_R1A@?0A@EA@DES_Info@CryptoPP@@8		; CryptoPP::DES_Info::`RTTI Base Class Descriptor at (0,-1,0,64)'
PUBLIC	??_R1A@?0A@EA@?$FixedBlockSize@$07@CryptoPP@@8	; CryptoPP::FixedBlockSize<8>::`RTTI Base Class Descriptor at (0,-1,0,64)'
PUBLIC	??_R0?AV?$FixedBlockSize@$07@CryptoPP@@@8	; CryptoPP::FixedBlockSize<8> `RTTI Type Descriptor'
PUBLIC	??_R3?$FixedBlockSize@$07@CryptoPP@@8		; CryptoPP::FixedBlockSize<8>::`RTTI Class Hierarchy Descriptor'
PUBLIC	??_R2?$FixedBlockSize@$07@CryptoPP@@8		; CryptoPP::FixedBlockSize<8>::`RTTI Base Class Array'
PUBLIC	??_R10?0A@EA@?$FixedKeyLength@$07$03$0A@@CryptoPP@@8 ; CryptoPP::FixedKeyLength<8,4,0>::`RTTI Base Class Descriptor at (1,-1,0,64)'
PUBLIC	??_R0?AV?$FixedKeyLength@$07$03$0A@@CryptoPP@@@8 ; CryptoPP::FixedKeyLength<8,4,0> `RTTI Type Descriptor'
PUBLIC	??_R3?$FixedKeyLength@$07$03$0A@@CryptoPP@@8	; CryptoPP::FixedKeyLength<8,4,0>::`RTTI Class Hierarchy Descriptor'
PUBLIC	??_R2?$FixedKeyLength@$07$03$0A@@CryptoPP@@8	; CryptoPP::FixedKeyLength<8,4,0>::`RTTI Base Class Array'
PUBLIC	??_R1A@?0A@EA@?$FixedKeyLength@$07$03$0A@@CryptoPP@@8 ; CryptoPP::FixedKeyLength<8,4,0>::`RTTI Base Class Descriptor at (0,-1,0,64)'
PUBLIC	??_R17?0A@EA@?$FixedBlockSize@$07@CryptoPP@@8	; CryptoPP::FixedBlockSize<8>::`RTTI Base Class Descriptor at (8,-1,0,64)'
PUBLIC	??_R18?0A@EA@?$FixedKeyLength@$07$03$0A@@CryptoPP@@8 ; CryptoPP::FixedKeyLength<8,4,0>::`RTTI Base Class Descriptor at (9,-1,0,64)'
PUBLIC	??_R1BA@?0A@EA@RawDES@CryptoPP@@8		; CryptoPP::RawDES::`RTTI Base Class Descriptor at (16,-1,0,64)'
PUBLIC	??_R0?AVRawDES@CryptoPP@@@8			; CryptoPP::RawDES `RTTI Type Descriptor'
PUBLIC	??_R3RawDES@CryptoPP@@8				; CryptoPP::RawDES::`RTTI Class Hierarchy Descriptor'
PUBLIC	??_R2RawDES@CryptoPP@@8				; CryptoPP::RawDES::`RTTI Base Class Array'
PUBLIC	??_R1A@?0A@EA@RawDES@CryptoPP@@8		; CryptoPP::RawDES::`RTTI Base Class Descriptor at (0,-1,0,64)'
PUBLIC	??_R4?$BlockCipherFinal@$0A@VBase@DES@CryptoPP@@@CryptoPP@@6BSimpleKeyingInterface@1@@ ; CryptoPP::BlockCipherFinal<0,CryptoPP::DES::Base>::`RTTI Complete Object Locator'
PUBLIC	??_R0?AV?$BlockCipherFinal@$0A@VBase@DES@CryptoPP@@@CryptoPP@@@8 ; CryptoPP::BlockCipherFinal<0,CryptoPP::DES::Base> `RTTI Type Descriptor'
PUBLIC	??_R3?$BlockCipherFinal@$0A@VBase@DES@CryptoPP@@@CryptoPP@@8 ; CryptoPP::BlockCipherFinal<0,CryptoPP::DES::Base>::`RTTI Class Hierarchy Descriptor'
PUBLIC	??_R2?$BlockCipherFinal@$0A@VBase@DES@CryptoPP@@@CryptoPP@@8 ; CryptoPP::BlockCipherFinal<0,CryptoPP::DES::Base>::`RTTI Base Class Array'
PUBLIC	??_R1A@?0A@EA@?$BlockCipherFinal@$0A@VBase@DES@CryptoPP@@@CryptoPP@@8 ; CryptoPP::BlockCipherFinal<0,CryptoPP::DES::Base>::`RTTI Base Class Descriptor at (0,-1,0,64)'
PUBLIC	??_R1A@?0A@EA@?$ClonableImpl@V?$BlockCipherFinal@$0A@VBase@DES@CryptoPP@@@CryptoPP@@VBase@DES@2@@CryptoPP@@8 ; CryptoPP::ClonableImpl<CryptoPP::BlockCipherFinal<0,CryptoPP::DES::Base>,CryptoPP::DES::Base>::`RTTI Base Class Descriptor at (0,-1,0,64)'
PUBLIC	??_R0?AV?$ClonableImpl@V?$BlockCipherFinal@$0A@VBase@DES@CryptoPP@@@CryptoPP@@VBase@DES@2@@CryptoPP@@@8 ; CryptoPP::ClonableImpl<CryptoPP::BlockCipherFinal<0,CryptoPP::DES::Base>,CryptoPP::DES::Base> `RTTI Type Descriptor'
PUBLIC	??_R3?$ClonableImpl@V?$BlockCipherFinal@$0A@VBase@DES@CryptoPP@@@CryptoPP@@VBase@DES@2@@CryptoPP@@8 ; CryptoPP::ClonableImpl<CryptoPP::BlockCipherFinal<0,CryptoPP::DES::Base>,CryptoPP::DES::Base>::`RTTI Class Hierarchy Descriptor'
PUBLIC	??_R2?$ClonableImpl@V?$BlockCipherFinal@$0A@VBase@DES@CryptoPP@@@CryptoPP@@VBase@DES@2@@CryptoPP@@8 ; CryptoPP::ClonableImpl<CryptoPP::BlockCipherFinal<0,CryptoPP::DES::Base>,CryptoPP::DES::Base>::`RTTI Base Class Array'
PUBLIC	??_R4?$BlockCipherFinal@$0A@VBase@DES@CryptoPP@@@CryptoPP@@6BBlockTransformation@1@@ ; CryptoPP::BlockCipherFinal<0,CryptoPP::DES::Base>::`RTTI Complete Object Locator'
PUBLIC	??_R0?AVBase@DES_XEX3@CryptoPP@@@8		; CryptoPP::DES_XEX3::Base `RTTI Type Descriptor'
PUBLIC	??_R3Base@DES_XEX3@CryptoPP@@8			; CryptoPP::DES_XEX3::Base::`RTTI Class Hierarchy Descriptor'
PUBLIC	??_R2Base@DES_XEX3@CryptoPP@@8			; CryptoPP::DES_XEX3::Base::`RTTI Base Class Array'
PUBLIC	??_R1A@?0A@EA@Base@DES_XEX3@CryptoPP@@8		; CryptoPP::DES_XEX3::Base::`RTTI Base Class Descriptor at (0,-1,0,64)'
PUBLIC	??_R1A@?0A@EA@?$BlockCipherImpl@UDES_XEX3_Info@CryptoPP@@VBlockCipher@2@@CryptoPP@@8 ; CryptoPP::BlockCipherImpl<CryptoPP::DES_XEX3_Info,CryptoPP::BlockCipher>::`RTTI Base Class Descriptor at (0,-1,0,64)'
PUBLIC	??_R0?AV?$BlockCipherImpl@UDES_XEX3_Info@CryptoPP@@VBlockCipher@2@@CryptoPP@@@8 ; CryptoPP::BlockCipherImpl<CryptoPP::DES_XEX3_Info,CryptoPP::BlockCipher> `RTTI Type Descriptor'
PUBLIC	??_R3?$BlockCipherImpl@UDES_XEX3_Info@CryptoPP@@VBlockCipher@2@@CryptoPP@@8 ; CryptoPP::BlockCipherImpl<CryptoPP::DES_XEX3_Info,CryptoPP::BlockCipher>::`RTTI Class Hierarchy Descriptor'
PUBLIC	??_R2?$BlockCipherImpl@UDES_XEX3_Info@CryptoPP@@VBlockCipher@2@@CryptoPP@@8 ; CryptoPP::BlockCipherImpl<CryptoPP::DES_XEX3_Info,CryptoPP::BlockCipher>::`RTTI Base Class Array'
PUBLIC	??_R1A@?0A@EA@?$AlgorithmImpl@V?$SimpleKeyingInterfaceImpl@V?$TwoBases@VBlockCipher@CryptoPP@@UDES_XEX3_Info@2@@CryptoPP@@V12@@CryptoPP@@V12@@CryptoPP@@8 ; CryptoPP::AlgorithmImpl<CryptoPP::SimpleKeyingInterfaceImpl<CryptoPP::TwoBases<CryptoPP::BlockCipher,CryptoPP::DES_XEX3_Info>,CryptoPP::TwoBases<CryptoPP::BlockCipher,CryptoPP::DES_XEX3_Info> >,CryptoPP::SimpleKeyingInterfaceImpl<CryptoPP::TwoBases<CryptoPP::BlockCipher,CryptoPP::DES_XEX3_Info>,CryptoPP::TwoBases<CryptoPP::BlockCipher,CryptoPP::DES_XEX3_Info> > >::`RTTI Base Class Descriptor at (0,-1,0,64)'
PUBLIC	??_R0?AV?$AlgorithmImpl@V?$SimpleKeyingInterfaceImpl@V?$TwoBases@VBlockCipher@CryptoPP@@UDES_XEX3_Info@2@@CryptoPP@@V12@@CryptoPP@@V12@@CryptoPP@@@8 ; CryptoPP::AlgorithmImpl<CryptoPP::SimpleKeyingInterfaceImpl<CryptoPP::TwoBases<CryptoPP::BlockCipher,CryptoPP::DES_XEX3_Info>,CryptoPP::TwoBases<CryptoPP::BlockCipher,CryptoPP::DES_XEX3_Info> >,CryptoPP::SimpleKeyingInterfaceImpl<CryptoPP::TwoBases<CryptoPP::BlockCipher,CryptoPP::DES_XEX3_Info>,CryptoPP::TwoBases<CryptoPP::BlockCipher,CryptoPP::DES_XEX3_Info> > > `RTTI Type Descriptor'
PUBLIC	??_R3?$AlgorithmImpl@V?$SimpleKeyingInterfaceImpl@V?$TwoBases@VBlockCipher@CryptoPP@@UDES_XEX3_Info@2@@CryptoPP@@V12@@CryptoPP@@V12@@CryptoPP@@8 ; CryptoPP::AlgorithmImpl<CryptoPP::SimpleKeyingInterfaceImpl<CryptoPP::TwoBases<CryptoPP::BlockCipher,CryptoPP::DES_XEX3_Info>,CryptoPP::TwoBases<CryptoPP::BlockCipher,CryptoPP::DES_XEX3_Info> >,CryptoPP::SimpleKeyingInterfaceImpl<CryptoPP::TwoBases<CryptoPP::BlockCipher,CryptoPP::DES_XEX3_Info>,CryptoPP::TwoBases<CryptoPP::BlockCipher,CryptoPP::DES_XEX3_Info> > >::`RTTI Class Hierarchy Descriptor'
PUBLIC	??_R2?$AlgorithmImpl@V?$SimpleKeyingInterfaceImpl@V?$TwoBases@VBlockCipher@CryptoPP@@UDES_XEX3_Info@2@@CryptoPP@@V12@@CryptoPP@@V12@@CryptoPP@@8 ; CryptoPP::AlgorithmImpl<CryptoPP::SimpleKeyingInterfaceImpl<CryptoPP::TwoBases<CryptoPP::BlockCipher,CryptoPP::DES_XEX3_Info>,CryptoPP::TwoBases<CryptoPP::BlockCipher,CryptoPP::DES_XEX3_Info> >,CryptoPP::SimpleKeyingInterfaceImpl<CryptoPP::TwoBases<CryptoPP::BlockCipher,CryptoPP::DES_XEX3_Info>,CryptoPP::TwoBases<CryptoPP::BlockCipher,CryptoPP::DES_XEX3_Info> > >::`RTTI Base Class Array'
PUBLIC	??_R1A@?0A@EA@?$SimpleKeyingInterfaceImpl@V?$TwoBases@VBlockCipher@CryptoPP@@UDES_XEX3_Info@2@@CryptoPP@@V12@@CryptoPP@@8 ; CryptoPP::SimpleKeyingInterfaceImpl<CryptoPP::TwoBases<CryptoPP::BlockCipher,CryptoPP::DES_XEX3_Info>,CryptoPP::TwoBases<CryptoPP::BlockCipher,CryptoPP::DES_XEX3_Info> >::`RTTI Base Class Descriptor at (0,-1,0,64)'
PUBLIC	??_R0?AV?$SimpleKeyingInterfaceImpl@V?$TwoBases@VBlockCipher@CryptoPP@@UDES_XEX3_Info@2@@CryptoPP@@V12@@CryptoPP@@@8 ; CryptoPP::SimpleKeyingInterfaceImpl<CryptoPP::TwoBases<CryptoPP::BlockCipher,CryptoPP::DES_XEX3_Info>,CryptoPP::TwoBases<CryptoPP::BlockCipher,CryptoPP::DES_XEX3_Info> > `RTTI Type Descriptor'
PUBLIC	??_R3?$SimpleKeyingInterfaceImpl@V?$TwoBases@VBlockCipher@CryptoPP@@UDES_XEX3_Info@2@@CryptoPP@@V12@@CryptoPP@@8 ; CryptoPP::SimpleKeyingInterfaceImpl<CryptoPP::TwoBases<CryptoPP::BlockCipher,CryptoPP::DES_XEX3_Info>,CryptoPP::TwoBases<CryptoPP::BlockCipher,CryptoPP::DES_XEX3_Info> >::`RTTI Class Hierarchy Descriptor'
PUBLIC	??_R2?$SimpleKeyingInterfaceImpl@V?$TwoBases@VBlockCipher@CryptoPP@@UDES_XEX3_Info@2@@CryptoPP@@V12@@CryptoPP@@8 ; CryptoPP::SimpleKeyingInterfaceImpl<CryptoPP::TwoBases<CryptoPP::BlockCipher,CryptoPP::DES_XEX3_Info>,CryptoPP::TwoBases<CryptoPP::BlockCipher,CryptoPP::DES_XEX3_Info> >::`RTTI Base Class Array'
PUBLIC	??_R1A@?0A@EA@?$TwoBases@VBlockCipher@CryptoPP@@UDES_XEX3_Info@2@@CryptoPP@@8 ; CryptoPP::TwoBases<CryptoPP::BlockCipher,CryptoPP::DES_XEX3_Info>::`RTTI Base Class Descriptor at (0,-1,0,64)'
PUBLIC	??_R0?AV?$TwoBases@VBlockCipher@CryptoPP@@UDES_XEX3_Info@2@@CryptoPP@@@8 ; CryptoPP::TwoBases<CryptoPP::BlockCipher,CryptoPP::DES_XEX3_Info> `RTTI Type Descriptor'
PUBLIC	??_R3?$TwoBases@VBlockCipher@CryptoPP@@UDES_XEX3_Info@2@@CryptoPP@@8 ; CryptoPP::TwoBases<CryptoPP::BlockCipher,CryptoPP::DES_XEX3_Info>::`RTTI Class Hierarchy Descriptor'
PUBLIC	??_R2?$TwoBases@VBlockCipher@CryptoPP@@UDES_XEX3_Info@2@@CryptoPP@@8 ; CryptoPP::TwoBases<CryptoPP::BlockCipher,CryptoPP::DES_XEX3_Info>::`RTTI Base Class Array'
PUBLIC	??_R17?0A@EA@DES_XEX3_Info@CryptoPP@@8		; CryptoPP::DES_XEX3_Info::`RTTI Base Class Descriptor at (8,-1,0,64)'
PUBLIC	??_R0?AUDES_XEX3_Info@CryptoPP@@@8		; CryptoPP::DES_XEX3_Info `RTTI Type Descriptor'
PUBLIC	??_R3DES_XEX3_Info@CryptoPP@@8			; CryptoPP::DES_XEX3_Info::`RTTI Class Hierarchy Descriptor'
PUBLIC	??_R2DES_XEX3_Info@CryptoPP@@8			; CryptoPP::DES_XEX3_Info::`RTTI Base Class Array'
PUBLIC	??_R1A@?0A@EA@DES_XEX3_Info@CryptoPP@@8		; CryptoPP::DES_XEX3_Info::`RTTI Base Class Descriptor at (0,-1,0,64)'
PUBLIC	??_R10?0A@EA@?$FixedKeyLength@$0BI@$03$0A@@CryptoPP@@8 ; CryptoPP::FixedKeyLength<24,4,0>::`RTTI Base Class Descriptor at (1,-1,0,64)'
PUBLIC	??_R0?AV?$FixedKeyLength@$0BI@$03$0A@@CryptoPP@@@8 ; CryptoPP::FixedKeyLength<24,4,0> `RTTI Type Descriptor'
PUBLIC	??_R3?$FixedKeyLength@$0BI@$03$0A@@CryptoPP@@8	; CryptoPP::FixedKeyLength<24,4,0>::`RTTI Class Hierarchy Descriptor'
PUBLIC	??_R2?$FixedKeyLength@$0BI@$03$0A@@CryptoPP@@8	; CryptoPP::FixedKeyLength<24,4,0>::`RTTI Base Class Array'
PUBLIC	??_R1A@?0A@EA@?$FixedKeyLength@$0BI@$03$0A@@CryptoPP@@8 ; CryptoPP::FixedKeyLength<24,4,0>::`RTTI Base Class Descriptor at (0,-1,0,64)'
PUBLIC	??_R18?0A@EA@?$FixedKeyLength@$0BI@$03$0A@@CryptoPP@@8 ; CryptoPP::FixedKeyLength<24,4,0>::`RTTI Base Class Descriptor at (9,-1,0,64)'
PUBLIC	??_R4?$BlockCipherFinal@$0A@VBase@DES_XEX3@CryptoPP@@@CryptoPP@@6BSimpleKeyingInterface@1@@ ; CryptoPP::BlockCipherFinal<0,CryptoPP::DES_XEX3::Base>::`RTTI Complete Object Locator'
PUBLIC	??_R0?AV?$BlockCipherFinal@$0A@VBase@DES_XEX3@CryptoPP@@@CryptoPP@@@8 ; CryptoPP::BlockCipherFinal<0,CryptoPP::DES_XEX3::Base> `RTTI Type Descriptor'
PUBLIC	??_R3?$BlockCipherFinal@$0A@VBase@DES_XEX3@CryptoPP@@@CryptoPP@@8 ; CryptoPP::BlockCipherFinal<0,CryptoPP::DES_XEX3::Base>::`RTTI Class Hierarchy Descriptor'
PUBLIC	??_R2?$BlockCipherFinal@$0A@VBase@DES_XEX3@CryptoPP@@@CryptoPP@@8 ; CryptoPP::BlockCipherFinal<0,CryptoPP::DES_XEX3::Base>::`RTTI Base Class Array'
PUBLIC	??_R1A@?0A@EA@?$BlockCipherFinal@$0A@VBase@DES_XEX3@CryptoPP@@@CryptoPP@@8 ; CryptoPP::BlockCipherFinal<0,CryptoPP::DES_XEX3::Base>::`RTTI Base Class Descriptor at (0,-1,0,64)'
PUBLIC	??_R1A@?0A@EA@?$ClonableImpl@V?$BlockCipherFinal@$0A@VBase@DES_XEX3@CryptoPP@@@CryptoPP@@VBase@DES_XEX3@2@@CryptoPP@@8 ; CryptoPP::ClonableImpl<CryptoPP::BlockCipherFinal<0,CryptoPP::DES_XEX3::Base>,CryptoPP::DES_XEX3::Base>::`RTTI Base Class Descriptor at (0,-1,0,64)'
PUBLIC	??_R0?AV?$ClonableImpl@V?$BlockCipherFinal@$0A@VBase@DES_XEX3@CryptoPP@@@CryptoPP@@VBase@DES_XEX3@2@@CryptoPP@@@8 ; CryptoPP::ClonableImpl<CryptoPP::BlockCipherFinal<0,CryptoPP::DES_XEX3::Base>,CryptoPP::DES_XEX3::Base> `RTTI Type Descriptor'
PUBLIC	??_R3?$ClonableImpl@V?$BlockCipherFinal@$0A@VBase@DES_XEX3@CryptoPP@@@CryptoPP@@VBase@DES_XEX3@2@@CryptoPP@@8 ; CryptoPP::ClonableImpl<CryptoPP::BlockCipherFinal<0,CryptoPP::DES_XEX3::Base>,CryptoPP::DES_XEX3::Base>::`RTTI Class Hierarchy Descriptor'
PUBLIC	??_R2?$ClonableImpl@V?$BlockCipherFinal@$0A@VBase@DES_XEX3@CryptoPP@@@CryptoPP@@VBase@DES_XEX3@2@@CryptoPP@@8 ; CryptoPP::ClonableImpl<CryptoPP::BlockCipherFinal<0,CryptoPP::DES_XEX3::Base>,CryptoPP::DES_XEX3::Base>::`RTTI Base Class Array'
PUBLIC	??_R4?$BlockCipherFinal@$0A@VBase@DES_XEX3@CryptoPP@@@CryptoPP@@6BBlockTransformation@1@@ ; CryptoPP::BlockCipherFinal<0,CryptoPP::DES_XEX3::Base>::`RTTI Complete Object Locator'
PUBLIC	??_R4?$BlockCipherFinal@$00VBase@DES_XEX3@CryptoPP@@@CryptoPP@@6BSimpleKeyingInterface@1@@ ; CryptoPP::BlockCipherFinal<1,CryptoPP::DES_XEX3::Base>::`RTTI Complete Object Locator'
PUBLIC	??_R0?AV?$BlockCipherFinal@$00VBase@DES_XEX3@CryptoPP@@@CryptoPP@@@8 ; CryptoPP::BlockCipherFinal<1,CryptoPP::DES_XEX3::Base> `RTTI Type Descriptor'
PUBLIC	??_R3?$BlockCipherFinal@$00VBase@DES_XEX3@CryptoPP@@@CryptoPP@@8 ; CryptoPP::BlockCipherFinal<1,CryptoPP::DES_XEX3::Base>::`RTTI Class Hierarchy Descriptor'
PUBLIC	??_R2?$BlockCipherFinal@$00VBase@DES_XEX3@CryptoPP@@@CryptoPP@@8 ; CryptoPP::BlockCipherFinal<1,CryptoPP::DES_XEX3::Base>::`RTTI Base Class Array'
PUBLIC	??_R1A@?0A@EA@?$BlockCipherFinal@$00VBase@DES_XEX3@CryptoPP@@@CryptoPP@@8 ; CryptoPP::BlockCipherFinal<1,CryptoPP::DES_XEX3::Base>::`RTTI Base Class Descriptor at (0,-1,0,64)'
PUBLIC	??_R1A@?0A@EA@?$ClonableImpl@V?$BlockCipherFinal@$00VBase@DES_XEX3@CryptoPP@@@CryptoPP@@VBase@DES_XEX3@2@@CryptoPP@@8 ; CryptoPP::ClonableImpl<CryptoPP::BlockCipherFinal<1,CryptoPP::DES_XEX3::Base>,CryptoPP::DES_XEX3::Base>::`RTTI Base Class Descriptor at (0,-1,0,64)'
PUBLIC	??_R0?AV?$ClonableImpl@V?$BlockCipherFinal@$00VBase@DES_XEX3@CryptoPP@@@CryptoPP@@VBase@DES_XEX3@2@@CryptoPP@@@8 ; CryptoPP::ClonableImpl<CryptoPP::BlockCipherFinal<1,CryptoPP::DES_XEX3::Base>,CryptoPP::DES_XEX3::Base> `RTTI Type Descriptor'
PUBLIC	??_R3?$ClonableImpl@V?$BlockCipherFinal@$00VBase@DES_XEX3@CryptoPP@@@CryptoPP@@VBase@DES_XEX3@2@@CryptoPP@@8 ; CryptoPP::ClonableImpl<CryptoPP::BlockCipherFinal<1,CryptoPP::DES_XEX3::Base>,CryptoPP::DES_XEX3::Base>::`RTTI Class Hierarchy Descriptor'
PUBLIC	??_R2?$ClonableImpl@V?$BlockCipherFinal@$00VBase@DES_XEX3@CryptoPP@@@CryptoPP@@VBase@DES_XEX3@2@@CryptoPP@@8 ; CryptoPP::ClonableImpl<CryptoPP::BlockCipherFinal<1,CryptoPP::DES_XEX3::Base>,CryptoPP::DES_XEX3::Base>::`RTTI Base Class Array'
PUBLIC	??_R4?$BlockCipherFinal@$00VBase@DES_XEX3@CryptoPP@@@CryptoPP@@6BBlockTransformation@1@@ ; CryptoPP::BlockCipherFinal<1,CryptoPP::DES_XEX3::Base>::`RTTI Complete Object Locator'
PUBLIC	??_R4CSimpleModulus@@6B@			; CSimpleModulus::`RTTI Complete Object Locator'
PUBLIC	??_R0?AVCSimpleModulus@@@8			; CSimpleModulus `RTTI Type Descriptor'
PUBLIC	??_R3CSimpleModulus@@8				; CSimpleModulus::`RTTI Class Hierarchy Descriptor'
PUBLIC	??_R2CSimpleModulus@@8				; CSimpleModulus::`RTTI Base Class Array'
PUBLIC	??_R1A@?0A@EA@CSimpleModulus@@8			; CSimpleModulus::`RTTI Base Class Descriptor at (0,-1,0,64)'
PUBLIC	??_R4?$CipherModeFinalTemplate_CipherHolder@V?$BlockCipherFinal@$0A@VBase@DES_XEX3@CryptoPP@@@CryptoPP@@VECB_OneWay@2@@CryptoPP@@6BSimpleKeyingInterface@1@@ ; CryptoPP::CipherModeFinalTemplate_CipherHolder<CryptoPP::BlockCipherFinal<0,CryptoPP::DES_XEX3::Base>,CryptoPP::ECB_OneWay>::`RTTI Complete Object Locator'
PUBLIC	??_R0?AV?$CipherModeFinalTemplate_CipherHolder@V?$BlockCipherFinal@$0A@VBase@DES_XEX3@CryptoPP@@@CryptoPP@@VECB_OneWay@2@@CryptoPP@@@8 ; CryptoPP::CipherModeFinalTemplate_CipherHolder<CryptoPP::BlockCipherFinal<0,CryptoPP::DES_XEX3::Base>,CryptoPP::ECB_OneWay> `RTTI Type Descriptor'
PUBLIC	??_R3?$CipherModeFinalTemplate_CipherHolder@V?$BlockCipherFinal@$0A@VBase@DES_XEX3@CryptoPP@@@CryptoPP@@VECB_OneWay@2@@CryptoPP@@8 ; CryptoPP::CipherModeFinalTemplate_CipherHolder<CryptoPP::BlockCipherFinal<0,CryptoPP::DES_XEX3::Base>,CryptoPP::ECB_OneWay>::`RTTI Class Hierarchy Descriptor'
PUBLIC	??_R2?$CipherModeFinalTemplate_CipherHolder@V?$BlockCipherFinal@$0A@VBase@DES_XEX3@CryptoPP@@@CryptoPP@@VECB_OneWay@2@@CryptoPP@@8 ; CryptoPP::CipherModeFinalTemplate_CipherHolder<CryptoPP::BlockCipherFinal<0,CryptoPP::DES_XEX3::Base>,CryptoPP::ECB_OneWay>::`RTTI Base Class Array'
PUBLIC	??_R1A@?0A@EA@?$CipherModeFinalTemplate_CipherHolder@V?$BlockCipherFinal@$0A@VBase@DES_XEX3@CryptoPP@@@CryptoPP@@VECB_OneWay@2@@CryptoPP@@8 ; CryptoPP::CipherModeFinalTemplate_CipherHolder<CryptoPP::BlockCipherFinal<0,CryptoPP::DES_XEX3::Base>,CryptoPP::ECB_OneWay>::`RTTI Base Class Descriptor at (0,-1,0,64)'
PUBLIC	??_R1CI@?0A@EN@?$ObjectHolder@V?$BlockCipherFinal@$0A@VBase@DES_XEX3@CryptoPP@@@CryptoPP@@@CryptoPP@@8 ; CryptoPP::ObjectHolder<CryptoPP::BlockCipherFinal<0,CryptoPP::DES_XEX3::Base> >::`RTTI Base Class Descriptor at (40,-1,0,77)'
PUBLIC	??_R0?AV?$ObjectHolder@V?$BlockCipherFinal@$0A@VBase@DES_XEX3@CryptoPP@@@CryptoPP@@@CryptoPP@@@8 ; CryptoPP::ObjectHolder<CryptoPP::BlockCipherFinal<0,CryptoPP::DES_XEX3::Base> > `RTTI Type Descriptor'
PUBLIC	??_R3?$ObjectHolder@V?$BlockCipherFinal@$0A@VBase@DES_XEX3@CryptoPP@@@CryptoPP@@@CryptoPP@@8 ; CryptoPP::ObjectHolder<CryptoPP::BlockCipherFinal<0,CryptoPP::DES_XEX3::Base> >::`RTTI Class Hierarchy Descriptor'
PUBLIC	??_R2?$ObjectHolder@V?$BlockCipherFinal@$0A@VBase@DES_XEX3@CryptoPP@@@CryptoPP@@@CryptoPP@@8 ; CryptoPP::ObjectHolder<CryptoPP::BlockCipherFinal<0,CryptoPP::DES_XEX3::Base> >::`RTTI Base Class Array'
PUBLIC	??_R1A@?0A@EA@?$ObjectHolder@V?$BlockCipherFinal@$0A@VBase@DES_XEX3@CryptoPP@@@CryptoPP@@@CryptoPP@@8 ; CryptoPP::ObjectHolder<CryptoPP::BlockCipherFinal<0,CryptoPP::DES_XEX3::Base> >::`RTTI Base Class Descriptor at (0,-1,0,64)'
PUBLIC	??_R1A@?0A@EA@?$AlgorithmImpl@VECB_OneWay@CryptoPP@@V?$CipherModeFinalTemplate_CipherHolder@V?$BlockCipherFinal@$0A@VBase@DES_XEX3@CryptoPP@@@CryptoPP@@VECB_OneWay@2@@2@@CryptoPP@@8 ; CryptoPP::AlgorithmImpl<CryptoPP::ECB_OneWay,CryptoPP::CipherModeFinalTemplate_CipherHolder<CryptoPP::BlockCipherFinal<0,CryptoPP::DES_XEX3::Base>,CryptoPP::ECB_OneWay> >::`RTTI Base Class Descriptor at (0,-1,0,64)'
PUBLIC	??_R0?AV?$AlgorithmImpl@VECB_OneWay@CryptoPP@@V?$CipherModeFinalTemplate_CipherHolder@V?$BlockCipherFinal@$0A@VBase@DES_XEX3@CryptoPP@@@CryptoPP@@VECB_OneWay@2@@2@@CryptoPP@@@8 ; CryptoPP::AlgorithmImpl<CryptoPP::ECB_OneWay,CryptoPP::CipherModeFinalTemplate_CipherHolder<CryptoPP::BlockCipherFinal<0,CryptoPP::DES_XEX3::Base>,CryptoPP::ECB_OneWay> > `RTTI Type Descriptor'
PUBLIC	??_R3?$AlgorithmImpl@VECB_OneWay@CryptoPP@@V?$CipherModeFinalTemplate_CipherHolder@V?$BlockCipherFinal@$0A@VBase@DES_XEX3@CryptoPP@@@CryptoPP@@VECB_OneWay@2@@2@@CryptoPP@@8 ; CryptoPP::AlgorithmImpl<CryptoPP::ECB_OneWay,CryptoPP::CipherModeFinalTemplate_CipherHolder<CryptoPP::BlockCipherFinal<0,CryptoPP::DES_XEX3::Base>,CryptoPP::ECB_OneWay> >::`RTTI Class Hierarchy Descriptor'
PUBLIC	??_R2?$AlgorithmImpl@VECB_OneWay@CryptoPP@@V?$CipherModeFinalTemplate_CipherHolder@V?$BlockCipherFinal@$0A@VBase@DES_XEX3@CryptoPP@@@CryptoPP@@VECB_OneWay@2@@2@@CryptoPP@@8 ; CryptoPP::AlgorithmImpl<CryptoPP::ECB_OneWay,CryptoPP::CipherModeFinalTemplate_CipherHolder<CryptoPP::BlockCipherFinal<0,CryptoPP::DES_XEX3::Base>,CryptoPP::ECB_OneWay> >::`RTTI Base Class Array'
PUBLIC	??_R4?$CipherModeFinalTemplate_CipherHolder@V?$BlockCipherFinal@$0A@VBase@DES_XEX3@CryptoPP@@@CryptoPP@@VECB_OneWay@2@@CryptoPP@@6BStreamTransformation@1@@ ; CryptoPP::CipherModeFinalTemplate_CipherHolder<CryptoPP::BlockCipherFinal<0,CryptoPP::DES_XEX3::Base>,CryptoPP::ECB_OneWay>::`RTTI Complete Object Locator'
PUBLIC	??_R4?$CipherModeFinalTemplate_CipherHolder@V?$BlockCipherFinal@$00VBase@DES_XEX3@CryptoPP@@@CryptoPP@@VECB_OneWay@2@@CryptoPP@@6BSimpleKeyingInterface@1@@ ; CryptoPP::CipherModeFinalTemplate_CipherHolder<CryptoPP::BlockCipherFinal<1,CryptoPP::DES_XEX3::Base>,CryptoPP::ECB_OneWay>::`RTTI Complete Object Locator'
PUBLIC	??_R0?AV?$CipherModeFinalTemplate_CipherHolder@V?$BlockCipherFinal@$00VBase@DES_XEX3@CryptoPP@@@CryptoPP@@VECB_OneWay@2@@CryptoPP@@@8 ; CryptoPP::CipherModeFinalTemplate_CipherHolder<CryptoPP::BlockCipherFinal<1,CryptoPP::DES_XEX3::Base>,CryptoPP::ECB_OneWay> `RTTI Type Descriptor'
PUBLIC	??_R3?$CipherModeFinalTemplate_CipherHolder@V?$BlockCipherFinal@$00VBase@DES_XEX3@CryptoPP@@@CryptoPP@@VECB_OneWay@2@@CryptoPP@@8 ; CryptoPP::CipherModeFinalTemplate_CipherHolder<CryptoPP::BlockCipherFinal<1,CryptoPP::DES_XEX3::Base>,CryptoPP::ECB_OneWay>::`RTTI Class Hierarchy Descriptor'
PUBLIC	??_R2?$CipherModeFinalTemplate_CipherHolder@V?$BlockCipherFinal@$00VBase@DES_XEX3@CryptoPP@@@CryptoPP@@VECB_OneWay@2@@CryptoPP@@8 ; CryptoPP::CipherModeFinalTemplate_CipherHolder<CryptoPP::BlockCipherFinal<1,CryptoPP::DES_XEX3::Base>,CryptoPP::ECB_OneWay>::`RTTI Base Class Array'
PUBLIC	??_R1A@?0A@EA@?$CipherModeFinalTemplate_CipherHolder@V?$BlockCipherFinal@$00VBase@DES_XEX3@CryptoPP@@@CryptoPP@@VECB_OneWay@2@@CryptoPP@@8 ; CryptoPP::CipherModeFinalTemplate_CipherHolder<CryptoPP::BlockCipherFinal<1,CryptoPP::DES_XEX3::Base>,CryptoPP::ECB_OneWay>::`RTTI Base Class Descriptor at (0,-1,0,64)'
PUBLIC	??_R1CI@?0A@EN@?$ObjectHolder@V?$BlockCipherFinal@$00VBase@DES_XEX3@CryptoPP@@@CryptoPP@@@CryptoPP@@8 ; CryptoPP::ObjectHolder<CryptoPP::BlockCipherFinal<1,CryptoPP::DES_XEX3::Base> >::`RTTI Base Class Descriptor at (40,-1,0,77)'
PUBLIC	??_R0?AV?$ObjectHolder@V?$BlockCipherFinal@$00VBase@DES_XEX3@CryptoPP@@@CryptoPP@@@CryptoPP@@@8 ; CryptoPP::ObjectHolder<CryptoPP::BlockCipherFinal<1,CryptoPP::DES_XEX3::Base> > `RTTI Type Descriptor'
PUBLIC	??_R3?$ObjectHolder@V?$BlockCipherFinal@$00VBase@DES_XEX3@CryptoPP@@@CryptoPP@@@CryptoPP@@8 ; CryptoPP::ObjectHolder<CryptoPP::BlockCipherFinal<1,CryptoPP::DES_XEX3::Base> >::`RTTI Class Hierarchy Descriptor'
PUBLIC	??_R2?$ObjectHolder@V?$BlockCipherFinal@$00VBase@DES_XEX3@CryptoPP@@@CryptoPP@@@CryptoPP@@8 ; CryptoPP::ObjectHolder<CryptoPP::BlockCipherFinal<1,CryptoPP::DES_XEX3::Base> >::`RTTI Base Class Array'
PUBLIC	??_R1A@?0A@EA@?$ObjectHolder@V?$BlockCipherFinal@$00VBase@DES_XEX3@CryptoPP@@@CryptoPP@@@CryptoPP@@8 ; CryptoPP::ObjectHolder<CryptoPP::BlockCipherFinal<1,CryptoPP::DES_XEX3::Base> >::`RTTI Base Class Descriptor at (0,-1,0,64)'
PUBLIC	??_R1A@?0A@EA@?$AlgorithmImpl@VECB_OneWay@CryptoPP@@V?$CipherModeFinalTemplate_CipherHolder@V?$BlockCipherFinal@$00VBase@DES_XEX3@CryptoPP@@@CryptoPP@@VECB_OneWay@2@@2@@CryptoPP@@8 ; CryptoPP::AlgorithmImpl<CryptoPP::ECB_OneWay,CryptoPP::CipherModeFinalTemplate_CipherHolder<CryptoPP::BlockCipherFinal<1,CryptoPP::DES_XEX3::Base>,CryptoPP::ECB_OneWay> >::`RTTI Base Class Descriptor at (0,-1,0,64)'
PUBLIC	??_R0?AV?$AlgorithmImpl@VECB_OneWay@CryptoPP@@V?$CipherModeFinalTemplate_CipherHolder@V?$BlockCipherFinal@$00VBase@DES_XEX3@CryptoPP@@@CryptoPP@@VECB_OneWay@2@@2@@CryptoPP@@@8 ; CryptoPP::AlgorithmImpl<CryptoPP::ECB_OneWay,CryptoPP::CipherModeFinalTemplate_CipherHolder<CryptoPP::BlockCipherFinal<1,CryptoPP::DES_XEX3::Base>,CryptoPP::ECB_OneWay> > `RTTI Type Descriptor'
PUBLIC	??_R3?$AlgorithmImpl@VECB_OneWay@CryptoPP@@V?$CipherModeFinalTemplate_CipherHolder@V?$BlockCipherFinal@$00VBase@DES_XEX3@CryptoPP@@@CryptoPP@@VECB_OneWay@2@@2@@CryptoPP@@8 ; CryptoPP::AlgorithmImpl<CryptoPP::ECB_OneWay,CryptoPP::CipherModeFinalTemplate_CipherHolder<CryptoPP::BlockCipherFinal<1,CryptoPP::DES_XEX3::Base>,CryptoPP::ECB_OneWay> >::`RTTI Class Hierarchy Descriptor'
PUBLIC	??_R2?$AlgorithmImpl@VECB_OneWay@CryptoPP@@V?$CipherModeFinalTemplate_CipherHolder@V?$BlockCipherFinal@$00VBase@DES_XEX3@CryptoPP@@@CryptoPP@@VECB_OneWay@2@@2@@CryptoPP@@8 ; CryptoPP::AlgorithmImpl<CryptoPP::ECB_OneWay,CryptoPP::CipherModeFinalTemplate_CipherHolder<CryptoPP::BlockCipherFinal<1,CryptoPP::DES_XEX3::Base>,CryptoPP::ECB_OneWay> >::`RTTI Base Class Array'
PUBLIC	??_R4?$CipherModeFinalTemplate_CipherHolder@V?$BlockCipherFinal@$00VBase@DES_XEX3@CryptoPP@@@CryptoPP@@VECB_OneWay@2@@CryptoPP@@6BStreamTransformation@1@@ ; CryptoPP::CipherModeFinalTemplate_CipherHolder<CryptoPP::BlockCipherFinal<1,CryptoPP::DES_XEX3::Base>,CryptoPP::ECB_OneWay>::`RTTI Complete Object Locator'
EXTRN	??2@YAPAXI@Z:PROC				; operator new
EXTRN	??3@YAXPAX@Z:PROC				; operator delete
EXTRN	??3@YAXPAXI@Z:PROC				; operator delete
EXTRN	___std_terminate:PROC
EXTRN	__invalid_parameter_noinfo:PROC
EXTRN	__invalid_parameter_noinfo_noreturn:PROC
EXTRN	__errno:PROC
EXTRN	_memmove:PROC
EXTRN	?_Xbad_alloc@std@@YAXXZ:PROC			; std::_Xbad_alloc
EXTRN	?_Xlength_error@std@@YAXPBD@Z:PROC		; std::_Xlength_error
EXTRN	?_Xout_of_range@std@@YAXPBD@Z:PROC		; std::_Xout_of_range
EXTRN	___std_exception_copy:PROC
EXTRN	___std_exception_destroy:PROC
EXTRN	??_Eexception@std@@UAEPAXI@Z:PROC		; std::exception::`vector deleting destructor'
EXTRN	??_EException@CryptoPP@@UAEPAXI@Z:PROC		; CryptoPP::Exception::`vector deleting destructor'
EXTRN	??_EInvalidArgument@CryptoPP@@UAEPAXI@Z:PROC	; CryptoPP::InvalidArgument::`vector deleting destructor'
EXTRN	??_ENotImplemented@CryptoPP@@UAEPAXI@Z:PROC	; CryptoPP::NotImplemented::`vector deleting destructor'
EXTRN	??0Algorithm@CryptoPP@@QAE@_N@Z:PROC		; CryptoPP::Algorithm::Algorithm
EXTRN	?SetKey@SimpleKeyingInterface@CryptoPP@@UAEXPBEIABVNameValuePairs@2@@Z:PROC ; CryptoPP::SimpleKeyingInterface::SetKey
EXTRN	?GetNextIV@SimpleKeyingInterface@CryptoPP@@UAEXAAVRandomNumberGenerator@2@PAE@Z:PROC ; CryptoPP::SimpleKeyingInterface::GetNextIV
EXTRN	?ThrowIfInvalidIVLength@SimpleKeyingInterface@CryptoPP@@IAEIH@Z:PROC ; CryptoPP::SimpleKeyingInterface::ThrowIfInvalidIVLength
EXTRN	?OptimalDataAlignment@BlockTransformation@CryptoPP@@UBEIXZ:PROC ; CryptoPP::BlockTransformation::OptimalDataAlignment
EXTRN	?AdvancedProcessBlocks@BlockTransformation@CryptoPP@@UBEIPBE0PAEII@Z:PROC ; CryptoPP::BlockTransformation::AdvancedProcessBlocks
EXTRN	?ProcessLastBlock@StreamTransformation@CryptoPP@@UAEXPAEPBEI@Z:PROC ; CryptoPP::StreamTransformation::ProcessLastBlock
EXTRN	?AlignedAllocate@CryptoPP@@YAPAXI@Z:PROC	; CryptoPP::AlignedAllocate
EXTRN	?AlignedDeallocate@CryptoPP@@YAXPAX@Z:PROC	; CryptoPP::AlignedDeallocate
EXTRN	?UnalignedAllocate@CryptoPP@@YAPAXI@Z:PROC	; CryptoPP::UnalignedAllocate
EXTRN	?UnalignedDeallocate@CryptoPP@@YAXPAX@Z:PROC	; CryptoPP::UnalignedDeallocate
EXTRN	?UncheckedSetKey@BlockOrientedCipherModeBase@CryptoPP@@UAEXPBEIABVNameValuePairs@2@@Z:PROC ; CryptoPP::BlockOrientedCipherModeBase::UncheckedSetKey
EXTRN	?ProcessData@ECB_OneWay@CryptoPP@@UAEXPAEPBEI@Z:PROC ; CryptoPP::ECB_OneWay::ProcessData
EXTRN	?UncheckedSetKey@Base@DES@CryptoPP@@UAEXPBEIABVNameValuePairs@3@@Z:PROC ; CryptoPP::DES::Base::UncheckedSetKey
EXTRN	?ProcessAndXorBlock@Base@DES@CryptoPP@@UBEXPBE0PAE@Z:PROC ; CryptoPP::DES::Base::ProcessAndXorBlock
EXTRN	?UncheckedSetKey@Base@DES_XEX3@CryptoPP@@UAEXPBEIABVNameValuePairs@3@@Z:PROC ; CryptoPP::DES_XEX3::Base::UncheckedSetKey
EXTRN	?ProcessAndXorBlock@Base@DES_XEX3@CryptoPP@@UBEXPBE0PAE@Z:PROC ; CryptoPP::DES_XEX3::Base::ProcessAndXorBlock
EXTRN	??_E?$BlockCipherFinal@$0A@VBase@DES_XEX3@CryptoPP@@@CryptoPP@@UAEPAXI@Z:PROC ; CryptoPP::BlockCipherFinal<0,CryptoPP::DES_XEX3::Base>::`vector deleting destructor'
EXTRN	??_E?$CipherModeFinalTemplate_CipherHolder@V?$BlockCipherFinal@$0A@VBase@DES_XEX3@CryptoPP@@@CryptoPP@@VECB_OneWay@2@@CryptoPP@@UAEPAXI@Z:PROC ; CryptoPP::CipherModeFinalTemplate_CipherHolder<CryptoPP::BlockCipherFinal<0,CryptoPP::DES_XEX3::Base>,CryptoPP::ECB_OneWay>::`vector deleting destructor'
EXTRN	??_E?$BlockCipherFinal@$00VBase@DES_XEX3@CryptoPP@@@CryptoPP@@UAEPAXI@Z:PROC ; CryptoPP::BlockCipherFinal<1,CryptoPP::DES_XEX3::Base>::`vector deleting destructor'
EXTRN	??_E?$CipherModeFinalTemplate_CipherHolder@V?$BlockCipherFinal@$00VBase@DES_XEX3@CryptoPP@@@CryptoPP@@VECB_OneWay@2@@CryptoPP@@UAEPAXI@Z:PROC ; CryptoPP::CipherModeFinalTemplate_CipherHolder<CryptoPP::BlockCipherFinal<1,CryptoPP::DES_XEX3::Base>,CryptoPP::ECB_OneWay>::`vector deleting destructor'
EXTRN	??_ECSimpleModulus@@UAEPAXI@Z:PROC		; CSimpleModulus::`vector deleting destructor'
EXTRN	??_E?$BlockCipherFinal@$0A@VBase@DES@CryptoPP@@@CryptoPP@@UAEPAXI@Z:PROC ; CryptoPP::BlockCipherFinal<0,CryptoPP::DES::Base>::`vector deleting destructor'
EXTRN	@__security_check_cookie@4:PROC
EXTRN	__CxxThrowException@8:PROC
EXTRN	___CxxFrameHandler3:PROC
EXTRN	_memcpy:PROC
EXTRN	_memset:PROC
EXTRN	??_7type_info@@6B@:QWORD			; type_info::`vftable'
EXTRN	?g_nullNameValuePairs@CryptoPP@@3ABVNameValuePairs@1@B:DWORD ; CryptoPP::g_nullNameValuePairs
EXTRN	___security_cookie:DWORD
;	COMDAT ??_R4?$CipherModeFinalTemplate_CipherHolder@V?$BlockCipherFinal@$00VBase@DES_XEX3@CryptoPP@@@CryptoPP@@VECB_OneWay@2@@CryptoPP@@6BStreamTransformation@1@@
rdata$r	SEGMENT
??_R4?$CipherModeFinalTemplate_CipherHolder@V?$BlockCipherFinal@$00VBase@DES_XEX3@CryptoPP@@@CryptoPP@@VECB_OneWay@2@@CryptoPP@@6BStreamTransformation@1@@ DD 00H ; CryptoPP::CipherModeFinalTemplate_CipherHolder<CryptoPP::BlockCipherFinal<1,CryptoPP::DES_XEX3::Base>,CryptoPP::ECB_OneWay>::`RTTI Complete Object Locator'
	DD	04H
	DD	00H
	DD	FLAT:??_R0?AV?$CipherModeFinalTemplate_CipherHolder@V?$BlockCipherFinal@$00VBase@DES_XEX3@CryptoPP@@@CryptoPP@@VECB_OneWay@2@@CryptoPP@@@8
	DD	FLAT:??_R3?$CipherModeFinalTemplate_CipherHolder@V?$BlockCipherFinal@$00VBase@DES_XEX3@CryptoPP@@@CryptoPP@@VECB_OneWay@2@@CryptoPP@@8
rdata$r	ENDS
;	COMDAT ??_R2?$AlgorithmImpl@VECB_OneWay@CryptoPP@@V?$CipherModeFinalTemplate_CipherHolder@V?$BlockCipherFinal@$00VBase@DES_XEX3@CryptoPP@@@CryptoPP@@VECB_OneWay@2@@2@@CryptoPP@@8
rdata$r	SEGMENT
??_R2?$AlgorithmImpl@VECB_OneWay@CryptoPP@@V?$CipherModeFinalTemplate_CipherHolder@V?$BlockCipherFinal@$00VBase@DES_XEX3@CryptoPP@@@CryptoPP@@VECB_OneWay@2@@2@@CryptoPP@@8 DD FLAT:??_R1A@?0A@EA@?$AlgorithmImpl@VECB_OneWay@CryptoPP@@V?$CipherModeFinalTemplate_CipherHolder@V?$BlockCipherFinal@$00VBase@DES_XEX3@CryptoPP@@@CryptoPP@@VECB_OneWay@2@@2@@CryptoPP@@8 ; CryptoPP::AlgorithmImpl<CryptoPP::ECB_OneWay,CryptoPP::CipherModeFinalTemplate_CipherHolder<CryptoPP::BlockCipherFinal<1,CryptoPP::DES_XEX3::Base>,CryptoPP::ECB_OneWay> >::`RTTI Base Class Array'
	DD	FLAT:??_R1A@?0A@EA@ECB_OneWay@CryptoPP@@8
	DD	FLAT:??_R1A@?0A@EA@BlockOrientedCipherModeBase@CryptoPP@@8
	DD	FLAT:??_R1A@?0A@EA@CipherModeBase@CryptoPP@@8
	DD	FLAT:??_R1A@?0A@EA@SymmetricCipher@CryptoPP@@8
	DD	FLAT:??_R1A@?0A@EA@SimpleKeyingInterface@CryptoPP@@8
	DD	FLAT:??_R13?0A@EA@StreamTransformation@CryptoPP@@8
	DD	FLAT:??_R13?0A@EA@Algorithm@CryptoPP@@8
	DD	FLAT:??_R13?0A@EA@Clonable@CryptoPP@@8
rdata$r	ENDS
;	COMDAT ??_R3?$AlgorithmImpl@VECB_OneWay@CryptoPP@@V?$CipherModeFinalTemplate_CipherHolder@V?$BlockCipherFinal@$00VBase@DES_XEX3@CryptoPP@@@CryptoPP@@VECB_OneWay@2@@2@@CryptoPP@@8
rdata$r	SEGMENT
??_R3?$AlgorithmImpl@VECB_OneWay@CryptoPP@@V?$CipherModeFinalTemplate_CipherHolder@V?$BlockCipherFinal@$00VBase@DES_XEX3@CryptoPP@@@CryptoPP@@VECB_OneWay@2@@2@@CryptoPP@@8 DD 00H ; CryptoPP::AlgorithmImpl<CryptoPP::ECB_OneWay,CryptoPP::CipherModeFinalTemplate_CipherHolder<CryptoPP::BlockCipherFinal<1,CryptoPP::DES_XEX3::Base>,CryptoPP::ECB_OneWay> >::`RTTI Class Hierarchy Descriptor'
	DD	01H
	DD	09H
	DD	FLAT:??_R2?$AlgorithmImpl@VECB_OneWay@CryptoPP@@V?$CipherModeFinalTemplate_CipherHolder@V?$BlockCipherFinal@$00VBase@DES_XEX3@CryptoPP@@@CryptoPP@@VECB_OneWay@2@@2@@CryptoPP@@8
rdata$r	ENDS
;	COMDAT ??_R0?AV?$AlgorithmImpl@VECB_OneWay@CryptoPP@@V?$CipherModeFinalTemplate_CipherHolder@V?$BlockCipherFinal@$00VBase@DES_XEX3@CryptoPP@@@CryptoPP@@VECB_OneWay@2@@2@@CryptoPP@@@8
data$r	SEGMENT
??_R0?AV?$AlgorithmImpl@VECB_OneWay@CryptoPP@@V?$CipherModeFinalTemplate_CipherHolder@V?$BlockCipherFinal@$00VBase@DES_XEX3@CryptoPP@@@CryptoPP@@VECB_OneWay@2@@2@@CryptoPP@@@8 DD FLAT:??_7type_info@@6B@ ; CryptoPP::AlgorithmImpl<CryptoPP::ECB_OneWay,CryptoPP::CipherModeFinalTemplate_CipherHolder<CryptoPP::BlockCipherFinal<1,CryptoPP::DES_XEX3::Base>,CryptoPP::ECB_OneWay> > `RTTI Type Descriptor'
	DD	00H
	DB	'.?AV?$AlgorithmImpl@VECB_OneWay@CryptoPP@@V?$CipherModeF'
	DB	'inalTemplate_CipherHolder@V?$BlockCipherFinal@$00VBase@DES_XE'
	DB	'X3@CryptoPP@@@CryptoPP@@VECB_OneWay@2@@2@@CryptoPP@@', 00H
data$r	ENDS
;	COMDAT ??_R1A@?0A@EA@?$AlgorithmImpl@VECB_OneWay@CryptoPP@@V?$CipherModeFinalTemplate_CipherHolder@V?$BlockCipherFinal@$00VBase@DES_XEX3@CryptoPP@@@CryptoPP@@VECB_OneWay@2@@2@@CryptoPP@@8
rdata$r	SEGMENT
??_R1A@?0A@EA@?$AlgorithmImpl@VECB_OneWay@CryptoPP@@V?$CipherModeFinalTemplate_CipherHolder@V?$BlockCipherFinal@$00VBase@DES_XEX3@CryptoPP@@@CryptoPP@@VECB_OneWay@2@@2@@CryptoPP@@8 DD FLAT:??_R0?AV?$AlgorithmImpl@VECB_OneWay@CryptoPP@@V?$CipherModeFinalTemplate_CipherHolder@V?$BlockCipherFinal@$00VBase@DES_XEX3@CryptoPP@@@CryptoPP@@VECB_OneWay@2@@2@@CryptoPP@@@8 ; CryptoPP::AlgorithmImpl<CryptoPP::ECB_OneWay,CryptoPP::CipherModeFinalTemplate_CipherHolder<CryptoPP::BlockCipherFinal<1,CryptoPP::DES_XEX3::Base>,CryptoPP::ECB_OneWay> >::`RTTI Base Class Descriptor at (0,-1,0,64)'
	DD	08H
	DD	00H
	DD	0ffffffffH
	DD	00H
	DD	040H
	DD	FLAT:??_R3?$AlgorithmImpl@VECB_OneWay@CryptoPP@@V?$CipherModeFinalTemplate_CipherHolder@V?$BlockCipherFinal@$00VBase@DES_XEX3@CryptoPP@@@CryptoPP@@VECB_OneWay@2@@2@@CryptoPP@@8
rdata$r	ENDS
;	COMDAT ??_R1A@?0A@EA@?$ObjectHolder@V?$BlockCipherFinal@$00VBase@DES_XEX3@CryptoPP@@@CryptoPP@@@CryptoPP@@8
rdata$r	SEGMENT
??_R1A@?0A@EA@?$ObjectHolder@V?$BlockCipherFinal@$00VBase@DES_XEX3@CryptoPP@@@CryptoPP@@@CryptoPP@@8 DD FLAT:??_R0?AV?$ObjectHolder@V?$BlockCipherFinal@$00VBase@DES_XEX3@CryptoPP@@@CryptoPP@@@CryptoPP@@@8 ; CryptoPP::ObjectHolder<CryptoPP::BlockCipherFinal<1,CryptoPP::DES_XEX3::Base> >::`RTTI Base Class Descriptor at (0,-1,0,64)'
	DD	00H
	DD	00H
	DD	0ffffffffH
	DD	00H
	DD	040H
	DD	FLAT:??_R3?$ObjectHolder@V?$BlockCipherFinal@$00VBase@DES_XEX3@CryptoPP@@@CryptoPP@@@CryptoPP@@8
rdata$r	ENDS
;	COMDAT ??_R2?$ObjectHolder@V?$BlockCipherFinal@$00VBase@DES_XEX3@CryptoPP@@@CryptoPP@@@CryptoPP@@8
rdata$r	SEGMENT
??_R2?$ObjectHolder@V?$BlockCipherFinal@$00VBase@DES_XEX3@CryptoPP@@@CryptoPP@@@CryptoPP@@8 DD FLAT:??_R1A@?0A@EA@?$ObjectHolder@V?$BlockCipherFinal@$00VBase@DES_XEX3@CryptoPP@@@CryptoPP@@@CryptoPP@@8 ; CryptoPP::ObjectHolder<CryptoPP::BlockCipherFinal<1,CryptoPP::DES_XEX3::Base> >::`RTTI Base Class Array'
rdata$r	ENDS
;	COMDAT ??_R3?$ObjectHolder@V?$BlockCipherFinal@$00VBase@DES_XEX3@CryptoPP@@@CryptoPP@@@CryptoPP@@8
rdata$r	SEGMENT
??_R3?$ObjectHolder@V?$BlockCipherFinal@$00VBase@DES_XEX3@CryptoPP@@@CryptoPP@@@CryptoPP@@8 DD 00H ; CryptoPP::ObjectHolder<CryptoPP::BlockCipherFinal<1,CryptoPP::DES_XEX3::Base> >::`RTTI Class Hierarchy Descriptor'
	DD	00H
	DD	01H
	DD	FLAT:??_R2?$ObjectHolder@V?$BlockCipherFinal@$00VBase@DES_XEX3@CryptoPP@@@CryptoPP@@@CryptoPP@@8
rdata$r	ENDS
;	COMDAT ??_R0?AV?$ObjectHolder@V?$BlockCipherFinal@$00VBase@DES_XEX3@CryptoPP@@@CryptoPP@@@CryptoPP@@@8
data$r	SEGMENT
??_R0?AV?$ObjectHolder@V?$BlockCipherFinal@$00VBase@DES_XEX3@CryptoPP@@@CryptoPP@@@CryptoPP@@@8 DD FLAT:??_7type_info@@6B@ ; CryptoPP::ObjectHolder<CryptoPP::BlockCipherFinal<1,CryptoPP::DES_XEX3::Base> > `RTTI Type Descriptor'
	DD	00H
	DB	'.?AV?$ObjectHolder@V?$BlockCipherFinal@$00VBase@DES_XEX3'
	DB	'@CryptoPP@@@CryptoPP@@@CryptoPP@@', 00H
data$r	ENDS
;	COMDAT ??_R1CI@?0A@EN@?$ObjectHolder@V?$BlockCipherFinal@$00VBase@DES_XEX3@CryptoPP@@@CryptoPP@@@CryptoPP@@8
rdata$r	SEGMENT
??_R1CI@?0A@EN@?$ObjectHolder@V?$BlockCipherFinal@$00VBase@DES_XEX3@CryptoPP@@@CryptoPP@@@CryptoPP@@8 DD FLAT:??_R0?AV?$ObjectHolder@V?$BlockCipherFinal@$00VBase@DES_XEX3@CryptoPP@@@CryptoPP@@@CryptoPP@@@8 ; CryptoPP::ObjectHolder<CryptoPP::BlockCipherFinal<1,CryptoPP::DES_XEX3::Base> >::`RTTI Base Class Descriptor at (40,-1,0,77)'
	DD	00H
	DD	028H
	DD	0ffffffffH
	DD	00H
	DD	04dH
	DD	FLAT:??_R3?$ObjectHolder@V?$BlockCipherFinal@$00VBase@DES_XEX3@CryptoPP@@@CryptoPP@@@CryptoPP@@8
rdata$r	ENDS
;	COMDAT ??_R1A@?0A@EA@?$CipherModeFinalTemplate_CipherHolder@V?$BlockCipherFinal@$00VBase@DES_XEX3@CryptoPP@@@CryptoPP@@VECB_OneWay@2@@CryptoPP@@8
rdata$r	SEGMENT
??_R1A@?0A@EA@?$CipherModeFinalTemplate_CipherHolder@V?$BlockCipherFinal@$00VBase@DES_XEX3@CryptoPP@@@CryptoPP@@VECB_OneWay@2@@CryptoPP@@8 DD FLAT:??_R0?AV?$CipherModeFinalTemplate_CipherHolder@V?$BlockCipherFinal@$00VBase@DES_XEX3@CryptoPP@@@CryptoPP@@VECB_OneWay@2@@CryptoPP@@@8 ; CryptoPP::CipherModeFinalTemplate_CipherHolder<CryptoPP::BlockCipherFinal<1,CryptoPP::DES_XEX3::Base>,CryptoPP::ECB_OneWay>::`RTTI Base Class Descriptor at (0,-1,0,64)'
	DD	0aH
	DD	00H
	DD	0ffffffffH
	DD	00H
	DD	040H
	DD	FLAT:??_R3?$CipherModeFinalTemplate_CipherHolder@V?$BlockCipherFinal@$00VBase@DES_XEX3@CryptoPP@@@CryptoPP@@VECB_OneWay@2@@CryptoPP@@8
rdata$r	ENDS
;	COMDAT ??_R2?$CipherModeFinalTemplate_CipherHolder@V?$BlockCipherFinal@$00VBase@DES_XEX3@CryptoPP@@@CryptoPP@@VECB_OneWay@2@@CryptoPP@@8
rdata$r	SEGMENT
??_R2?$CipherModeFinalTemplate_CipherHolder@V?$BlockCipherFinal@$00VBase@DES_XEX3@CryptoPP@@@CryptoPP@@VECB_OneWay@2@@CryptoPP@@8 DD FLAT:??_R1A@?0A@EA@?$CipherModeFinalTemplate_CipherHolder@V?$BlockCipherFinal@$00VBase@DES_XEX3@CryptoPP@@@CryptoPP@@VECB_OneWay@2@@CryptoPP@@8 ; CryptoPP::CipherModeFinalTemplate_CipherHolder<CryptoPP::BlockCipherFinal<1,CryptoPP::DES_XEX3::Base>,CryptoPP::ECB_OneWay>::`RTTI Base Class Array'
	DD	FLAT:??_R1CI@?0A@EN@?$ObjectHolder@V?$BlockCipherFinal@$00VBase@DES_XEX3@CryptoPP@@@CryptoPP@@@CryptoPP@@8
	DD	FLAT:??_R1A@?0A@EA@?$AlgorithmImpl@VECB_OneWay@CryptoPP@@V?$CipherModeFinalTemplate_CipherHolder@V?$BlockCipherFinal@$00VBase@DES_XEX3@CryptoPP@@@CryptoPP@@VECB_OneWay@2@@2@@CryptoPP@@8
	DD	FLAT:??_R1A@?0A@EA@ECB_OneWay@CryptoPP@@8
	DD	FLAT:??_R1A@?0A@EA@BlockOrientedCipherModeBase@CryptoPP@@8
	DD	FLAT:??_R1A@?0A@EA@CipherModeBase@CryptoPP@@8
	DD	FLAT:??_R1A@?0A@EA@SymmetricCipher@CryptoPP@@8
	DD	FLAT:??_R1A@?0A@EA@SimpleKeyingInterface@CryptoPP@@8
	DD	FLAT:??_R13?0A@EA@StreamTransformation@CryptoPP@@8
	DD	FLAT:??_R13?0A@EA@Algorithm@CryptoPP@@8
	DD	FLAT:??_R13?0A@EA@Clonable@CryptoPP@@8
rdata$r	ENDS
;	COMDAT ??_R3?$CipherModeFinalTemplate_CipherHolder@V?$BlockCipherFinal@$00VBase@DES_XEX3@CryptoPP@@@CryptoPP@@VECB_OneWay@2@@CryptoPP@@8
rdata$r	SEGMENT
??_R3?$CipherModeFinalTemplate_CipherHolder@V?$BlockCipherFinal@$00VBase@DES_XEX3@CryptoPP@@@CryptoPP@@VECB_OneWay@2@@CryptoPP@@8 DD 00H ; CryptoPP::CipherModeFinalTemplate_CipherHolder<CryptoPP::BlockCipherFinal<1,CryptoPP::DES_XEX3::Base>,CryptoPP::ECB_OneWay>::`RTTI Class Hierarchy Descriptor'
	DD	01H
	DD	0bH
	DD	FLAT:??_R2?$CipherModeFinalTemplate_CipherHolder@V?$BlockCipherFinal@$00VBase@DES_XEX3@CryptoPP@@@CryptoPP@@VECB_OneWay@2@@CryptoPP@@8
rdata$r	ENDS
;	COMDAT ??_R0?AV?$CipherModeFinalTemplate_CipherHolder@V?$BlockCipherFinal@$00VBase@DES_XEX3@CryptoPP@@@CryptoPP@@VECB_OneWay@2@@CryptoPP@@@8
data$r	SEGMENT
??_R0?AV?$CipherModeFinalTemplate_CipherHolder@V?$BlockCipherFinal@$00VBase@DES_XEX3@CryptoPP@@@CryptoPP@@VECB_OneWay@2@@CryptoPP@@@8 DD FLAT:??_7type_info@@6B@ ; CryptoPP::CipherModeFinalTemplate_CipherHolder<CryptoPP::BlockCipherFinal<1,CryptoPP::DES_XEX3::Base>,CryptoPP::ECB_OneWay> `RTTI Type Descriptor'
	DD	00H
	DB	'.?AV?$CipherModeFinalTemplate_CipherHolder@V?$BlockCiphe'
	DB	'rFinal@$00VBase@DES_XEX3@CryptoPP@@@CryptoPP@@VECB_OneWay@2@@'
	DB	'CryptoPP@@', 00H
data$r	ENDS
;	COMDAT ??_R4?$CipherModeFinalTemplate_CipherHolder@V?$BlockCipherFinal@$00VBase@DES_XEX3@CryptoPP@@@CryptoPP@@VECB_OneWay@2@@CryptoPP@@6BSimpleKeyingInterface@1@@
rdata$r	SEGMENT
??_R4?$CipherModeFinalTemplate_CipherHolder@V?$BlockCipherFinal@$00VBase@DES_XEX3@CryptoPP@@@CryptoPP@@VECB_OneWay@2@@CryptoPP@@6BSimpleKeyingInterface@1@@ DD 00H ; CryptoPP::CipherModeFinalTemplate_CipherHolder<CryptoPP::BlockCipherFinal<1,CryptoPP::DES_XEX3::Base>,CryptoPP::ECB_OneWay>::`RTTI Complete Object Locator'
	DD	00H
	DD	00H
	DD	FLAT:??_R0?AV?$CipherModeFinalTemplate_CipherHolder@V?$BlockCipherFinal@$00VBase@DES_XEX3@CryptoPP@@@CryptoPP@@VECB_OneWay@2@@CryptoPP@@@8
	DD	FLAT:??_R3?$CipherModeFinalTemplate_CipherHolder@V?$BlockCipherFinal@$00VBase@DES_XEX3@CryptoPP@@@CryptoPP@@VECB_OneWay@2@@CryptoPP@@8
rdata$r	ENDS
;	COMDAT ??_R4?$CipherModeFinalTemplate_CipherHolder@V?$BlockCipherFinal@$0A@VBase@DES_XEX3@CryptoPP@@@CryptoPP@@VECB_OneWay@2@@CryptoPP@@6BStreamTransformation@1@@
rdata$r	SEGMENT
??_R4?$CipherModeFinalTemplate_CipherHolder@V?$BlockCipherFinal@$0A@VBase@DES_XEX3@CryptoPP@@@CryptoPP@@VECB_OneWay@2@@CryptoPP@@6BStreamTransformation@1@@ DD 00H ; CryptoPP::CipherModeFinalTemplate_CipherHolder<CryptoPP::BlockCipherFinal<0,CryptoPP::DES_XEX3::Base>,CryptoPP::ECB_OneWay>::`RTTI Complete Object Locator'
	DD	04H
	DD	00H
	DD	FLAT:??_R0?AV?$CipherModeFinalTemplate_CipherHolder@V?$BlockCipherFinal@$0A@VBase@DES_XEX3@CryptoPP@@@CryptoPP@@VECB_OneWay@2@@CryptoPP@@@8
	DD	FLAT:??_R3?$CipherModeFinalTemplate_CipherHolder@V?$BlockCipherFinal@$0A@VBase@DES_XEX3@CryptoPP@@@CryptoPP@@VECB_OneWay@2@@CryptoPP@@8
rdata$r	ENDS
;	COMDAT ??_R2?$AlgorithmImpl@VECB_OneWay@CryptoPP@@V?$CipherModeFinalTemplate_CipherHolder@V?$BlockCipherFinal@$0A@VBase@DES_XEX3@CryptoPP@@@CryptoPP@@VECB_OneWay@2@@2@@CryptoPP@@8
rdata$r	SEGMENT
??_R2?$AlgorithmImpl@VECB_OneWay@CryptoPP@@V?$CipherModeFinalTemplate_CipherHolder@V?$BlockCipherFinal@$0A@VBase@DES_XEX3@CryptoPP@@@CryptoPP@@VECB_OneWay@2@@2@@CryptoPP@@8 DD FLAT:??_R1A@?0A@EA@?$AlgorithmImpl@VECB_OneWay@CryptoPP@@V?$CipherModeFinalTemplate_CipherHolder@V?$BlockCipherFinal@$0A@VBase@DES_XEX3@CryptoPP@@@CryptoPP@@VECB_OneWay@2@@2@@CryptoPP@@8 ; CryptoPP::AlgorithmImpl<CryptoPP::ECB_OneWay,CryptoPP::CipherModeFinalTemplate_CipherHolder<CryptoPP::BlockCipherFinal<0,CryptoPP::DES_XEX3::Base>,CryptoPP::ECB_OneWay> >::`RTTI Base Class Array'
	DD	FLAT:??_R1A@?0A@EA@ECB_OneWay@CryptoPP@@8
	DD	FLAT:??_R1A@?0A@EA@BlockOrientedCipherModeBase@CryptoPP@@8
	DD	FLAT:??_R1A@?0A@EA@CipherModeBase@CryptoPP@@8
	DD	FLAT:??_R1A@?0A@EA@SymmetricCipher@CryptoPP@@8
	DD	FLAT:??_R1A@?0A@EA@SimpleKeyingInterface@CryptoPP@@8
	DD	FLAT:??_R13?0A@EA@StreamTransformation@CryptoPP@@8
	DD	FLAT:??_R13?0A@EA@Algorithm@CryptoPP@@8
	DD	FLAT:??_R13?0A@EA@Clonable@CryptoPP@@8
rdata$r	ENDS
;	COMDAT ??_R3?$AlgorithmImpl@VECB_OneWay@CryptoPP@@V?$CipherModeFinalTemplate_CipherHolder@V?$BlockCipherFinal@$0A@VBase@DES_XEX3@CryptoPP@@@CryptoPP@@VECB_OneWay@2@@2@@CryptoPP@@8
rdata$r	SEGMENT
??_R3?$AlgorithmImpl@VECB_OneWay@CryptoPP@@V?$CipherModeFinalTemplate_CipherHolder@V?$BlockCipherFinal@$0A@VBase@DES_XEX3@CryptoPP@@@CryptoPP@@VECB_OneWay@2@@2@@CryptoPP@@8 DD 00H ; CryptoPP::AlgorithmImpl<CryptoPP::ECB_OneWay,CryptoPP::CipherModeFinalTemplate_CipherHolder<CryptoPP::BlockCipherFinal<0,CryptoPP::DES_XEX3::Base>,CryptoPP::ECB_OneWay> >::`RTTI Class Hierarchy Descriptor'
	DD	01H
	DD	09H
	DD	FLAT:??_R2?$AlgorithmImpl@VECB_OneWay@CryptoPP@@V?$CipherModeFinalTemplate_CipherHolder@V?$BlockCipherFinal@$0A@VBase@DES_XEX3@CryptoPP@@@CryptoPP@@VECB_OneWay@2@@2@@CryptoPP@@8
rdata$r	ENDS
;	COMDAT ??_R0?AV?$AlgorithmImpl@VECB_OneWay@CryptoPP@@V?$CipherModeFinalTemplate_CipherHolder@V?$BlockCipherFinal@$0A@VBase@DES_XEX3@CryptoPP@@@CryptoPP@@VECB_OneWay@2@@2@@CryptoPP@@@8
data$r	SEGMENT
??_R0?AV?$AlgorithmImpl@VECB_OneWay@CryptoPP@@V?$CipherModeFinalTemplate_CipherHolder@V?$BlockCipherFinal@$0A@VBase@DES_XEX3@CryptoPP@@@CryptoPP@@VECB_OneWay@2@@2@@CryptoPP@@@8 DD FLAT:??_7type_info@@6B@ ; CryptoPP::AlgorithmImpl<CryptoPP::ECB_OneWay,CryptoPP::CipherModeFinalTemplate_CipherHolder<CryptoPP::BlockCipherFinal<0,CryptoPP::DES_XEX3::Base>,CryptoPP::ECB_OneWay> > `RTTI Type Descriptor'
	DD	00H
	DB	'.?AV?$AlgorithmImpl@VECB_OneWay@CryptoPP@@V?$CipherModeF'
	DB	'inalTemplate_CipherHolder@V?$BlockCipherFinal@$0A@VBase@DES_X'
	DB	'EX3@CryptoPP@@@CryptoPP@@VECB_OneWay@2@@2@@CryptoPP@@', 00H
data$r	ENDS
;	COMDAT ??_R1A@?0A@EA@?$AlgorithmImpl@VECB_OneWay@CryptoPP@@V?$CipherModeFinalTemplate_CipherHolder@V?$BlockCipherFinal@$0A@VBase@DES_XEX3@CryptoPP@@@CryptoPP@@VECB_OneWay@2@@2@@CryptoPP@@8
rdata$r	SEGMENT
??_R1A@?0A@EA@?$AlgorithmImpl@VECB_OneWay@CryptoPP@@V?$CipherModeFinalTemplate_CipherHolder@V?$BlockCipherFinal@$0A@VBase@DES_XEX3@CryptoPP@@@CryptoPP@@VECB_OneWay@2@@2@@CryptoPP@@8 DD FLAT:??_R0?AV?$AlgorithmImpl@VECB_OneWay@CryptoPP@@V?$CipherModeFinalTemplate_CipherHolder@V?$BlockCipherFinal@$0A@VBase@DES_XEX3@CryptoPP@@@CryptoPP@@VECB_OneWay@2@@2@@CryptoPP@@@8 ; CryptoPP::AlgorithmImpl<CryptoPP::ECB_OneWay,CryptoPP::CipherModeFinalTemplate_CipherHolder<CryptoPP::BlockCipherFinal<0,CryptoPP::DES_XEX3::Base>,CryptoPP::ECB_OneWay> >::`RTTI Base Class Descriptor at (0,-1,0,64)'
	DD	08H
	DD	00H
	DD	0ffffffffH
	DD	00H
	DD	040H
	DD	FLAT:??_R3?$AlgorithmImpl@VECB_OneWay@CryptoPP@@V?$CipherModeFinalTemplate_CipherHolder@V?$BlockCipherFinal@$0A@VBase@DES_XEX3@CryptoPP@@@CryptoPP@@VECB_OneWay@2@@2@@CryptoPP@@8
rdata$r	ENDS
;	COMDAT ??_R1A@?0A@EA@?$ObjectHolder@V?$BlockCipherFinal@$0A@VBase@DES_XEX3@CryptoPP@@@CryptoPP@@@CryptoPP@@8
rdata$r	SEGMENT
??_R1A@?0A@EA@?$ObjectHolder@V?$BlockCipherFinal@$0A@VBase@DES_XEX3@CryptoPP@@@CryptoPP@@@CryptoPP@@8 DD FLAT:??_R0?AV?$ObjectHolder@V?$BlockCipherFinal@$0A@VBase@DES_XEX3@CryptoPP@@@CryptoPP@@@CryptoPP@@@8 ; CryptoPP::ObjectHolder<CryptoPP::BlockCipherFinal<0,CryptoPP::DES_XEX3::Base> >::`RTTI Base Class Descriptor at (0,-1,0,64)'
	DD	00H
	DD	00H
	DD	0ffffffffH
	DD	00H
	DD	040H
	DD	FLAT:??_R3?$ObjectHolder@V?$BlockCipherFinal@$0A@VBase@DES_XEX3@CryptoPP@@@CryptoPP@@@CryptoPP@@8
rdata$r	ENDS
;	COMDAT ??_R2?$ObjectHolder@V?$BlockCipherFinal@$0A@VBase@DES_XEX3@CryptoPP@@@CryptoPP@@@CryptoPP@@8
rdata$r	SEGMENT
??_R2?$ObjectHolder@V?$BlockCipherFinal@$0A@VBase@DES_XEX3@CryptoPP@@@CryptoPP@@@CryptoPP@@8 DD FLAT:??_R1A@?0A@EA@?$ObjectHolder@V?$BlockCipherFinal@$0A@VBase@DES_XEX3@CryptoPP@@@CryptoPP@@@CryptoPP@@8 ; CryptoPP::ObjectHolder<CryptoPP::BlockCipherFinal<0,CryptoPP::DES_XEX3::Base> >::`RTTI Base Class Array'
rdata$r	ENDS
;	COMDAT ??_R3?$ObjectHolder@V?$BlockCipherFinal@$0A@VBase@DES_XEX3@CryptoPP@@@CryptoPP@@@CryptoPP@@8
rdata$r	SEGMENT
??_R3?$ObjectHolder@V?$BlockCipherFinal@$0A@VBase@DES_XEX3@CryptoPP@@@CryptoPP@@@CryptoPP@@8 DD 00H ; CryptoPP::ObjectHolder<CryptoPP::BlockCipherFinal<0,CryptoPP::DES_XEX3::Base> >::`RTTI Class Hierarchy Descriptor'
	DD	00H
	DD	01H
	DD	FLAT:??_R2?$ObjectHolder@V?$BlockCipherFinal@$0A@VBase@DES_XEX3@CryptoPP@@@CryptoPP@@@CryptoPP@@8
rdata$r	ENDS
;	COMDAT ??_R0?AV?$ObjectHolder@V?$BlockCipherFinal@$0A@VBase@DES_XEX3@CryptoPP@@@CryptoPP@@@CryptoPP@@@8
data$r	SEGMENT
??_R0?AV?$ObjectHolder@V?$BlockCipherFinal@$0A@VBase@DES_XEX3@CryptoPP@@@CryptoPP@@@CryptoPP@@@8 DD FLAT:??_7type_info@@6B@ ; CryptoPP::ObjectHolder<CryptoPP::BlockCipherFinal<0,CryptoPP::DES_XEX3::Base> > `RTTI Type Descriptor'
	DD	00H
	DB	'.?AV?$ObjectHolder@V?$BlockCipherFinal@$0A@VBase@DES_XEX'
	DB	'3@CryptoPP@@@CryptoPP@@@CryptoPP@@', 00H
data$r	ENDS
;	COMDAT ??_R1CI@?0A@EN@?$ObjectHolder@V?$BlockCipherFinal@$0A@VBase@DES_XEX3@CryptoPP@@@CryptoPP@@@CryptoPP@@8
rdata$r	SEGMENT
??_R1CI@?0A@EN@?$ObjectHolder@V?$BlockCipherFinal@$0A@VBase@DES_XEX3@CryptoPP@@@CryptoPP@@@CryptoPP@@8 DD FLAT:??_R0?AV?$ObjectHolder@V?$BlockCipherFinal@$0A@VBase@DES_XEX3@CryptoPP@@@CryptoPP@@@CryptoPP@@@8 ; CryptoPP::ObjectHolder<CryptoPP::BlockCipherFinal<0,CryptoPP::DES_XEX3::Base> >::`RTTI Base Class Descriptor at (40,-1,0,77)'
	DD	00H
	DD	028H
	DD	0ffffffffH
	DD	00H
	DD	04dH
	DD	FLAT:??_R3?$ObjectHolder@V?$BlockCipherFinal@$0A@VBase@DES_XEX3@CryptoPP@@@CryptoPP@@@CryptoPP@@8
rdata$r	ENDS
;	COMDAT ??_R1A@?0A@EA@?$CipherModeFinalTemplate_CipherHolder@V?$BlockCipherFinal@$0A@VBase@DES_XEX3@CryptoPP@@@CryptoPP@@VECB_OneWay@2@@CryptoPP@@8
rdata$r	SEGMENT
??_R1A@?0A@EA@?$CipherModeFinalTemplate_CipherHolder@V?$BlockCipherFinal@$0A@VBase@DES_XEX3@CryptoPP@@@CryptoPP@@VECB_OneWay@2@@CryptoPP@@8 DD FLAT:??_R0?AV?$CipherModeFinalTemplate_CipherHolder@V?$BlockCipherFinal@$0A@VBase@DES_XEX3@CryptoPP@@@CryptoPP@@VECB_OneWay@2@@CryptoPP@@@8 ; CryptoPP::CipherModeFinalTemplate_CipherHolder<CryptoPP::BlockCipherFinal<0,CryptoPP::DES_XEX3::Base>,CryptoPP::ECB_OneWay>::`RTTI Base Class Descriptor at (0,-1,0,64)'
	DD	0aH
	DD	00H
	DD	0ffffffffH
	DD	00H
	DD	040H
	DD	FLAT:??_R3?$CipherModeFinalTemplate_CipherHolder@V?$BlockCipherFinal@$0A@VBase@DES_XEX3@CryptoPP@@@CryptoPP@@VECB_OneWay@2@@CryptoPP@@8
rdata$r	ENDS
;	COMDAT ??_R2?$CipherModeFinalTemplate_CipherHolder@V?$BlockCipherFinal@$0A@VBase@DES_XEX3@CryptoPP@@@CryptoPP@@VECB_OneWay@2@@CryptoPP@@8
rdata$r	SEGMENT
??_R2?$CipherModeFinalTemplate_CipherHolder@V?$BlockCipherFinal@$0A@VBase@DES_XEX3@CryptoPP@@@CryptoPP@@VECB_OneWay@2@@CryptoPP@@8 DD FLAT:??_R1A@?0A@EA@?$CipherModeFinalTemplate_CipherHolder@V?$BlockCipherFinal@$0A@VBase@DES_XEX3@CryptoPP@@@CryptoPP@@VECB_OneWay@2@@CryptoPP@@8 ; CryptoPP::CipherModeFinalTemplate_CipherHolder<CryptoPP::BlockCipherFinal<0,CryptoPP::DES_XEX3::Base>,CryptoPP::ECB_OneWay>::`RTTI Base Class Array'
	DD	FLAT:??_R1CI@?0A@EN@?$ObjectHolder@V?$BlockCipherFinal@$0A@VBase@DES_XEX3@CryptoPP@@@CryptoPP@@@CryptoPP@@8
	DD	FLAT:??_R1A@?0A@EA@?$AlgorithmImpl@VECB_OneWay@CryptoPP@@V?$CipherModeFinalTemplate_CipherHolder@V?$BlockCipherFinal@$0A@VBase@DES_XEX3@CryptoPP@@@CryptoPP@@VECB_OneWay@2@@2@@CryptoPP@@8
	DD	FLAT:??_R1A@?0A@EA@ECB_OneWay@CryptoPP@@8
	DD	FLAT:??_R1A@?0A@EA@BlockOrientedCipherModeBase@CryptoPP@@8
	DD	FLAT:??_R1A@?0A@EA@CipherModeBase@CryptoPP@@8
	DD	FLAT:??_R1A@?0A@EA@SymmetricCipher@CryptoPP@@8
	DD	FLAT:??_R1A@?0A@EA@SimpleKeyingInterface@CryptoPP@@8
	DD	FLAT:??_R13?0A@EA@StreamTransformation@CryptoPP@@8
	DD	FLAT:??_R13?0A@EA@Algorithm@CryptoPP@@8
	DD	FLAT:??_R13?0A@EA@Clonable@CryptoPP@@8
rdata$r	ENDS
;	COMDAT ??_R3?$CipherModeFinalTemplate_CipherHolder@V?$BlockCipherFinal@$0A@VBase@DES_XEX3@CryptoPP@@@CryptoPP@@VECB_OneWay@2@@CryptoPP@@8
rdata$r	SEGMENT
??_R3?$CipherModeFinalTemplate_CipherHolder@V?$BlockCipherFinal@$0A@VBase@DES_XEX3@CryptoPP@@@CryptoPP@@VECB_OneWay@2@@CryptoPP@@8 DD 00H ; CryptoPP::CipherModeFinalTemplate_CipherHolder<CryptoPP::BlockCipherFinal<0,CryptoPP::DES_XEX3::Base>,CryptoPP::ECB_OneWay>::`RTTI Class Hierarchy Descriptor'
	DD	01H
	DD	0bH
	DD	FLAT:??_R2?$CipherModeFinalTemplate_CipherHolder@V?$BlockCipherFinal@$0A@VBase@DES_XEX3@CryptoPP@@@CryptoPP@@VECB_OneWay@2@@CryptoPP@@8
rdata$r	ENDS
;	COMDAT ??_R0?AV?$CipherModeFinalTemplate_CipherHolder@V?$BlockCipherFinal@$0A@VBase@DES_XEX3@CryptoPP@@@CryptoPP@@VECB_OneWay@2@@CryptoPP@@@8
data$r	SEGMENT
??_R0?AV?$CipherModeFinalTemplate_CipherHolder@V?$BlockCipherFinal@$0A@VBase@DES_XEX3@CryptoPP@@@CryptoPP@@VECB_OneWay@2@@CryptoPP@@@8 DD FLAT:??_7type_info@@6B@ ; CryptoPP::CipherModeFinalTemplate_CipherHolder<CryptoPP::BlockCipherFinal<0,CryptoPP::DES_XEX3::Base>,CryptoPP::ECB_OneWay> `RTTI Type Descriptor'
	DD	00H
	DB	'.?AV?$CipherModeFinalTemplate_CipherHolder@V?$BlockCiphe'
	DB	'rFinal@$0A@VBase@DES_XEX3@CryptoPP@@@CryptoPP@@VECB_OneWay@2@'
	DB	'@CryptoPP@@', 00H
data$r	ENDS
;	COMDAT ??_R4?$CipherModeFinalTemplate_CipherHolder@V?$BlockCipherFinal@$0A@VBase@DES_XEX3@CryptoPP@@@CryptoPP@@VECB_OneWay@2@@CryptoPP@@6BSimpleKeyingInterface@1@@
rdata$r	SEGMENT
??_R4?$CipherModeFinalTemplate_CipherHolder@V?$BlockCipherFinal@$0A@VBase@DES_XEX3@CryptoPP@@@CryptoPP@@VECB_OneWay@2@@CryptoPP@@6BSimpleKeyingInterface@1@@ DD 00H ; CryptoPP::CipherModeFinalTemplate_CipherHolder<CryptoPP::BlockCipherFinal<0,CryptoPP::DES_XEX3::Base>,CryptoPP::ECB_OneWay>::`RTTI Complete Object Locator'
	DD	00H
	DD	00H
	DD	FLAT:??_R0?AV?$CipherModeFinalTemplate_CipherHolder@V?$BlockCipherFinal@$0A@VBase@DES_XEX3@CryptoPP@@@CryptoPP@@VECB_OneWay@2@@CryptoPP@@@8
	DD	FLAT:??_R3?$CipherModeFinalTemplate_CipherHolder@V?$BlockCipherFinal@$0A@VBase@DES_XEX3@CryptoPP@@@CryptoPP@@VECB_OneWay@2@@CryptoPP@@8
rdata$r	ENDS
;	COMDAT ??_R1A@?0A@EA@CSimpleModulus@@8
rdata$r	SEGMENT
??_R1A@?0A@EA@CSimpleModulus@@8 DD FLAT:??_R0?AVCSimpleModulus@@@8 ; CSimpleModulus::`RTTI Base Class Descriptor at (0,-1,0,64)'
	DD	00H
	DD	00H
	DD	0ffffffffH
	DD	00H
	DD	040H
	DD	FLAT:??_R3CSimpleModulus@@8
rdata$r	ENDS
;	COMDAT ??_R2CSimpleModulus@@8
rdata$r	SEGMENT
??_R2CSimpleModulus@@8 DD FLAT:??_R1A@?0A@EA@CSimpleModulus@@8 ; CSimpleModulus::`RTTI Base Class Array'
rdata$r	ENDS
;	COMDAT ??_R3CSimpleModulus@@8
rdata$r	SEGMENT
??_R3CSimpleModulus@@8 DD 00H				; CSimpleModulus::`RTTI Class Hierarchy Descriptor'
	DD	00H
	DD	01H
	DD	FLAT:??_R2CSimpleModulus@@8
rdata$r	ENDS
;	COMDAT ??_R0?AVCSimpleModulus@@@8
data$r	SEGMENT
??_R0?AVCSimpleModulus@@@8 DD FLAT:??_7type_info@@6B@	; CSimpleModulus `RTTI Type Descriptor'
	DD	00H
	DB	'.?AVCSimpleModulus@@', 00H
data$r	ENDS
;	COMDAT ??_R4CSimpleModulus@@6B@
rdata$r	SEGMENT
??_R4CSimpleModulus@@6B@ DD 00H				; CSimpleModulus::`RTTI Complete Object Locator'
	DD	00H
	DD	00H
	DD	FLAT:??_R0?AVCSimpleModulus@@@8
	DD	FLAT:??_R3CSimpleModulus@@8
rdata$r	ENDS
;	COMDAT ??_R4?$BlockCipherFinal@$00VBase@DES_XEX3@CryptoPP@@@CryptoPP@@6BBlockTransformation@1@@
rdata$r	SEGMENT
??_R4?$BlockCipherFinal@$00VBase@DES_XEX3@CryptoPP@@@CryptoPP@@6BBlockTransformation@1@@ DD 00H ; CryptoPP::BlockCipherFinal<1,CryptoPP::DES_XEX3::Base>::`RTTI Complete Object Locator'
	DD	04H
	DD	00H
	DD	FLAT:??_R0?AV?$BlockCipherFinal@$00VBase@DES_XEX3@CryptoPP@@@CryptoPP@@@8
	DD	FLAT:??_R3?$BlockCipherFinal@$00VBase@DES_XEX3@CryptoPP@@@CryptoPP@@8
rdata$r	ENDS
;	COMDAT ??_R2?$ClonableImpl@V?$BlockCipherFinal@$00VBase@DES_XEX3@CryptoPP@@@CryptoPP@@VBase@DES_XEX3@2@@CryptoPP@@8
rdata$r	SEGMENT
??_R2?$ClonableImpl@V?$BlockCipherFinal@$00VBase@DES_XEX3@CryptoPP@@@CryptoPP@@VBase@DES_XEX3@2@@CryptoPP@@8 DD FLAT:??_R1A@?0A@EA@?$ClonableImpl@V?$BlockCipherFinal@$00VBase@DES_XEX3@CryptoPP@@@CryptoPP@@VBase@DES_XEX3@2@@CryptoPP@@8 ; CryptoPP::ClonableImpl<CryptoPP::BlockCipherFinal<1,CryptoPP::DES_XEX3::Base>,CryptoPP::DES_XEX3::Base>::`RTTI Base Class Array'
	DD	FLAT:??_R1A@?0A@EA@Base@DES_XEX3@CryptoPP@@8
	DD	FLAT:??_R1A@?0A@EA@?$BlockCipherImpl@UDES_XEX3_Info@CryptoPP@@VBlockCipher@2@@CryptoPP@@8
	DD	FLAT:??_R1A@?0A@EA@?$AlgorithmImpl@V?$SimpleKeyingInterfaceImpl@V?$TwoBases@VBlockCipher@CryptoPP@@UDES_XEX3_Info@2@@CryptoPP@@V12@@CryptoPP@@V12@@CryptoPP@@8
	DD	FLAT:??_R1A@?0A@EA@?$SimpleKeyingInterfaceImpl@V?$TwoBases@VBlockCipher@CryptoPP@@UDES_XEX3_Info@2@@CryptoPP@@V12@@CryptoPP@@8
	DD	FLAT:??_R1A@?0A@EA@?$TwoBases@VBlockCipher@CryptoPP@@UDES_XEX3_Info@2@@CryptoPP@@8
	DD	FLAT:??_R1A@?0A@EA@BlockCipher@CryptoPP@@8
	DD	FLAT:??_R1A@?0A@EA@SimpleKeyingInterface@CryptoPP@@8
	DD	FLAT:??_R13?0A@EA@BlockTransformation@CryptoPP@@8
	DD	FLAT:??_R13?0A@EA@Algorithm@CryptoPP@@8
	DD	FLAT:??_R13?0A@EA@Clonable@CryptoPP@@8
	DD	FLAT:??_R17?0A@EA@DES_XEX3_Info@CryptoPP@@8
	DD	FLAT:??_R17?0A@EA@?$FixedBlockSize@$07@CryptoPP@@8
	DD	FLAT:??_R18?0A@EA@?$FixedKeyLength@$0BI@$03$0A@@CryptoPP@@8
rdata$r	ENDS
;	COMDAT ??_R3?$ClonableImpl@V?$BlockCipherFinal@$00VBase@DES_XEX3@CryptoPP@@@CryptoPP@@VBase@DES_XEX3@2@@CryptoPP@@8
rdata$r	SEGMENT
??_R3?$ClonableImpl@V?$BlockCipherFinal@$00VBase@DES_XEX3@CryptoPP@@@CryptoPP@@VBase@DES_XEX3@2@@CryptoPP@@8 DD 00H ; CryptoPP::ClonableImpl<CryptoPP::BlockCipherFinal<1,CryptoPP::DES_XEX3::Base>,CryptoPP::DES_XEX3::Base>::`RTTI Class Hierarchy Descriptor'
	DD	01H
	DD	0eH
	DD	FLAT:??_R2?$ClonableImpl@V?$BlockCipherFinal@$00VBase@DES_XEX3@CryptoPP@@@CryptoPP@@VBase@DES_XEX3@2@@CryptoPP@@8
rdata$r	ENDS
;	COMDAT ??_R0?AV?$ClonableImpl@V?$BlockCipherFinal@$00VBase@DES_XEX3@CryptoPP@@@CryptoPP@@VBase@DES_XEX3@2@@CryptoPP@@@8
data$r	SEGMENT
??_R0?AV?$ClonableImpl@V?$BlockCipherFinal@$00VBase@DES_XEX3@CryptoPP@@@CryptoPP@@VBase@DES_XEX3@2@@CryptoPP@@@8 DD FLAT:??_7type_info@@6B@ ; CryptoPP::ClonableImpl<CryptoPP::BlockCipherFinal<1,CryptoPP::DES_XEX3::Base>,CryptoPP::DES_XEX3::Base> `RTTI Type Descriptor'
	DD	00H
	DB	'.?AV?$ClonableImpl@V?$BlockCipherFinal@$00VBase@DES_XEX3'
	DB	'@CryptoPP@@@CryptoPP@@VBase@DES_XEX3@2@@CryptoPP@@', 00H
data$r	ENDS
;	COMDAT ??_R1A@?0A@EA@?$ClonableImpl@V?$BlockCipherFinal@$00VBase@DES_XEX3@CryptoPP@@@CryptoPP@@VBase@DES_XEX3@2@@CryptoPP@@8
rdata$r	SEGMENT
??_R1A@?0A@EA@?$ClonableImpl@V?$BlockCipherFinal@$00VBase@DES_XEX3@CryptoPP@@@CryptoPP@@VBase@DES_XEX3@2@@CryptoPP@@8 DD FLAT:??_R0?AV?$ClonableImpl@V?$BlockCipherFinal@$00VBase@DES_XEX3@CryptoPP@@@CryptoPP@@VBase@DES_XEX3@2@@CryptoPP@@@8 ; CryptoPP::ClonableImpl<CryptoPP::BlockCipherFinal<1,CryptoPP::DES_XEX3::Base>,CryptoPP::DES_XEX3::Base>::`RTTI Base Class Descriptor at (0,-1,0,64)'
	DD	0dH
	DD	00H
	DD	0ffffffffH
	DD	00H
	DD	040H
	DD	FLAT:??_R3?$ClonableImpl@V?$BlockCipherFinal@$00VBase@DES_XEX3@CryptoPP@@@CryptoPP@@VBase@DES_XEX3@2@@CryptoPP@@8
rdata$r	ENDS
;	COMDAT ??_R1A@?0A@EA@?$BlockCipherFinal@$00VBase@DES_XEX3@CryptoPP@@@CryptoPP@@8
rdata$r	SEGMENT
??_R1A@?0A@EA@?$BlockCipherFinal@$00VBase@DES_XEX3@CryptoPP@@@CryptoPP@@8 DD FLAT:??_R0?AV?$BlockCipherFinal@$00VBase@DES_XEX3@CryptoPP@@@CryptoPP@@@8 ; CryptoPP::BlockCipherFinal<1,CryptoPP::DES_XEX3::Base>::`RTTI Base Class Descriptor at (0,-1,0,64)'
	DD	0eH
	DD	00H
	DD	0ffffffffH
	DD	00H
	DD	040H
	DD	FLAT:??_R3?$BlockCipherFinal@$00VBase@DES_XEX3@CryptoPP@@@CryptoPP@@8
rdata$r	ENDS
;	COMDAT ??_R2?$BlockCipherFinal@$00VBase@DES_XEX3@CryptoPP@@@CryptoPP@@8
rdata$r	SEGMENT
??_R2?$BlockCipherFinal@$00VBase@DES_XEX3@CryptoPP@@@CryptoPP@@8 DD FLAT:??_R1A@?0A@EA@?$BlockCipherFinal@$00VBase@DES_XEX3@CryptoPP@@@CryptoPP@@8 ; CryptoPP::BlockCipherFinal<1,CryptoPP::DES_XEX3::Base>::`RTTI Base Class Array'
	DD	FLAT:??_R1A@?0A@EA@?$ClonableImpl@V?$BlockCipherFinal@$00VBase@DES_XEX3@CryptoPP@@@CryptoPP@@VBase@DES_XEX3@2@@CryptoPP@@8
	DD	FLAT:??_R1A@?0A@EA@Base@DES_XEX3@CryptoPP@@8
	DD	FLAT:??_R1A@?0A@EA@?$BlockCipherImpl@UDES_XEX3_Info@CryptoPP@@VBlockCipher@2@@CryptoPP@@8
	DD	FLAT:??_R1A@?0A@EA@?$AlgorithmImpl@V?$SimpleKeyingInterfaceImpl@V?$TwoBases@VBlockCipher@CryptoPP@@UDES_XEX3_Info@2@@CryptoPP@@V12@@CryptoPP@@V12@@CryptoPP@@8
	DD	FLAT:??_R1A@?0A@EA@?$SimpleKeyingInterfaceImpl@V?$TwoBases@VBlockCipher@CryptoPP@@UDES_XEX3_Info@2@@CryptoPP@@V12@@CryptoPP@@8
	DD	FLAT:??_R1A@?0A@EA@?$TwoBases@VBlockCipher@CryptoPP@@UDES_XEX3_Info@2@@CryptoPP@@8
	DD	FLAT:??_R1A@?0A@EA@BlockCipher@CryptoPP@@8
	DD	FLAT:??_R1A@?0A@EA@SimpleKeyingInterface@CryptoPP@@8
	DD	FLAT:??_R13?0A@EA@BlockTransformation@CryptoPP@@8
	DD	FLAT:??_R13?0A@EA@Algorithm@CryptoPP@@8
	DD	FLAT:??_R13?0A@EA@Clonable@CryptoPP@@8
	DD	FLAT:??_R17?0A@EA@DES_XEX3_Info@CryptoPP@@8
	DD	FLAT:??_R17?0A@EA@?$FixedBlockSize@$07@CryptoPP@@8
	DD	FLAT:??_R18?0A@EA@?$FixedKeyLength@$0BI@$03$0A@@CryptoPP@@8
rdata$r	ENDS
;	COMDAT ??_R3?$BlockCipherFinal@$00VBase@DES_XEX3@CryptoPP@@@CryptoPP@@8
rdata$r	SEGMENT
??_R3?$BlockCipherFinal@$00VBase@DES_XEX3@CryptoPP@@@CryptoPP@@8 DD 00H ; CryptoPP::BlockCipherFinal<1,CryptoPP::DES_XEX3::Base>::`RTTI Class Hierarchy Descriptor'
	DD	01H
	DD	0fH
	DD	FLAT:??_R2?$BlockCipherFinal@$00VBase@DES_XEX3@CryptoPP@@@CryptoPP@@8
rdata$r	ENDS
;	COMDAT ??_R0?AV?$BlockCipherFinal@$00VBase@DES_XEX3@CryptoPP@@@CryptoPP@@@8
data$r	SEGMENT
??_R0?AV?$BlockCipherFinal@$00VBase@DES_XEX3@CryptoPP@@@CryptoPP@@@8 DD FLAT:??_7type_info@@6B@ ; CryptoPP::BlockCipherFinal<1,CryptoPP::DES_XEX3::Base> `RTTI Type Descriptor'
	DD	00H
	DB	'.?AV?$BlockCipherFinal@$00VBase@DES_XEX3@CryptoPP@@@Cryp'
	DB	'toPP@@', 00H
data$r	ENDS
;	COMDAT ??_R4?$BlockCipherFinal@$00VBase@DES_XEX3@CryptoPP@@@CryptoPP@@6BSimpleKeyingInterface@1@@
rdata$r	SEGMENT
??_R4?$BlockCipherFinal@$00VBase@DES_XEX3@CryptoPP@@@CryptoPP@@6BSimpleKeyingInterface@1@@ DD 00H ; CryptoPP::BlockCipherFinal<1,CryptoPP::DES_XEX3::Base>::`RTTI Complete Object Locator'
	DD	00H
	DD	00H
	DD	FLAT:??_R0?AV?$BlockCipherFinal@$00VBase@DES_XEX3@CryptoPP@@@CryptoPP@@@8
	DD	FLAT:??_R3?$BlockCipherFinal@$00VBase@DES_XEX3@CryptoPP@@@CryptoPP@@8
rdata$r	ENDS
;	COMDAT ??_R4?$BlockCipherFinal@$0A@VBase@DES_XEX3@CryptoPP@@@CryptoPP@@6BBlockTransformation@1@@
rdata$r	SEGMENT
??_R4?$BlockCipherFinal@$0A@VBase@DES_XEX3@CryptoPP@@@CryptoPP@@6BBlockTransformation@1@@ DD 00H ; CryptoPP::BlockCipherFinal<0,CryptoPP::DES_XEX3::Base>::`RTTI Complete Object Locator'
	DD	04H
	DD	00H
	DD	FLAT:??_R0?AV?$BlockCipherFinal@$0A@VBase@DES_XEX3@CryptoPP@@@CryptoPP@@@8
	DD	FLAT:??_R3?$BlockCipherFinal@$0A@VBase@DES_XEX3@CryptoPP@@@CryptoPP@@8
rdata$r	ENDS
;	COMDAT ??_R2?$ClonableImpl@V?$BlockCipherFinal@$0A@VBase@DES_XEX3@CryptoPP@@@CryptoPP@@VBase@DES_XEX3@2@@CryptoPP@@8
rdata$r	SEGMENT
??_R2?$ClonableImpl@V?$BlockCipherFinal@$0A@VBase@DES_XEX3@CryptoPP@@@CryptoPP@@VBase@DES_XEX3@2@@CryptoPP@@8 DD FLAT:??_R1A@?0A@EA@?$ClonableImpl@V?$BlockCipherFinal@$0A@VBase@DES_XEX3@CryptoPP@@@CryptoPP@@VBase@DES_XEX3@2@@CryptoPP@@8 ; CryptoPP::ClonableImpl<CryptoPP::BlockCipherFinal<0,CryptoPP::DES_XEX3::Base>,CryptoPP::DES_XEX3::Base>::`RTTI Base Class Array'
	DD	FLAT:??_R1A@?0A@EA@Base@DES_XEX3@CryptoPP@@8
	DD	FLAT:??_R1A@?0A@EA@?$BlockCipherImpl@UDES_XEX3_Info@CryptoPP@@VBlockCipher@2@@CryptoPP@@8
	DD	FLAT:??_R1A@?0A@EA@?$AlgorithmImpl@V?$SimpleKeyingInterfaceImpl@V?$TwoBases@VBlockCipher@CryptoPP@@UDES_XEX3_Info@2@@CryptoPP@@V12@@CryptoPP@@V12@@CryptoPP@@8
	DD	FLAT:??_R1A@?0A@EA@?$SimpleKeyingInterfaceImpl@V?$TwoBases@VBlockCipher@CryptoPP@@UDES_XEX3_Info@2@@CryptoPP@@V12@@CryptoPP@@8
	DD	FLAT:??_R1A@?0A@EA@?$TwoBases@VBlockCipher@CryptoPP@@UDES_XEX3_Info@2@@CryptoPP@@8
	DD	FLAT:??_R1A@?0A@EA@BlockCipher@CryptoPP@@8
	DD	FLAT:??_R1A@?0A@EA@SimpleKeyingInterface@CryptoPP@@8
	DD	FLAT:??_R13?0A@EA@BlockTransformation@CryptoPP@@8
	DD	FLAT:??_R13?0A@EA@Algorithm@CryptoPP@@8
	DD	FLAT:??_R13?0A@EA@Clonable@CryptoPP@@8
	DD	FLAT:??_R17?0A@EA@DES_XEX3_Info@CryptoPP@@8
	DD	FLAT:??_R17?0A@EA@?$FixedBlockSize@$07@CryptoPP@@8
	DD	FLAT:??_R18?0A@EA@?$FixedKeyLength@$0BI@$03$0A@@CryptoPP@@8
rdata$r	ENDS
;	COMDAT ??_R3?$ClonableImpl@V?$BlockCipherFinal@$0A@VBase@DES_XEX3@CryptoPP@@@CryptoPP@@VBase@DES_XEX3@2@@CryptoPP@@8
rdata$r	SEGMENT
??_R3?$ClonableImpl@V?$BlockCipherFinal@$0A@VBase@DES_XEX3@CryptoPP@@@CryptoPP@@VBase@DES_XEX3@2@@CryptoPP@@8 DD 00H ; CryptoPP::ClonableImpl<CryptoPP::BlockCipherFinal<0,CryptoPP::DES_XEX3::Base>,CryptoPP::DES_XEX3::Base>::`RTTI Class Hierarchy Descriptor'
	DD	01H
	DD	0eH
	DD	FLAT:??_R2?$ClonableImpl@V?$BlockCipherFinal@$0A@VBase@DES_XEX3@CryptoPP@@@CryptoPP@@VBase@DES_XEX3@2@@CryptoPP@@8
rdata$r	ENDS
;	COMDAT ??_R0?AV?$ClonableImpl@V?$BlockCipherFinal@$0A@VBase@DES_XEX3@CryptoPP@@@CryptoPP@@VBase@DES_XEX3@2@@CryptoPP@@@8
data$r	SEGMENT
??_R0?AV?$ClonableImpl@V?$BlockCipherFinal@$0A@VBase@DES_XEX3@CryptoPP@@@CryptoPP@@VBase@DES_XEX3@2@@CryptoPP@@@8 DD FLAT:??_7type_info@@6B@ ; CryptoPP::ClonableImpl<CryptoPP::BlockCipherFinal<0,CryptoPP::DES_XEX3::Base>,CryptoPP::DES_XEX3::Base> `RTTI Type Descriptor'
	DD	00H
	DB	'.?AV?$ClonableImpl@V?$BlockCipherFinal@$0A@VBase@DES_XEX'
	DB	'3@CryptoPP@@@CryptoPP@@VBase@DES_XEX3@2@@CryptoPP@@', 00H
data$r	ENDS
;	COMDAT ??_R1A@?0A@EA@?$ClonableImpl@V?$BlockCipherFinal@$0A@VBase@DES_XEX3@CryptoPP@@@CryptoPP@@VBase@DES_XEX3@2@@CryptoPP@@8
rdata$r	SEGMENT
??_R1A@?0A@EA@?$ClonableImpl@V?$BlockCipherFinal@$0A@VBase@DES_XEX3@CryptoPP@@@CryptoPP@@VBase@DES_XEX3@2@@CryptoPP@@8 DD FLAT:??_R0?AV?$ClonableImpl@V?$BlockCipherFinal@$0A@VBase@DES_XEX3@CryptoPP@@@CryptoPP@@VBase@DES_XEX3@2@@CryptoPP@@@8 ; CryptoPP::ClonableImpl<CryptoPP::BlockCipherFinal<0,CryptoPP::DES_XEX3::Base>,CryptoPP::DES_XEX3::Base>::`RTTI Base Class Descriptor at (0,-1,0,64)'
	DD	0dH
	DD	00H
	DD	0ffffffffH
	DD	00H
	DD	040H
	DD	FLAT:??_R3?$ClonableImpl@V?$BlockCipherFinal@$0A@VBase@DES_XEX3@CryptoPP@@@CryptoPP@@VBase@DES_XEX3@2@@CryptoPP@@8
rdata$r	ENDS
;	COMDAT ??_R1A@?0A@EA@?$BlockCipherFinal@$0A@VBase@DES_XEX3@CryptoPP@@@CryptoPP@@8
rdata$r	SEGMENT
??_R1A@?0A@EA@?$BlockCipherFinal@$0A@VBase@DES_XEX3@CryptoPP@@@CryptoPP@@8 DD FLAT:??_R0?AV?$BlockCipherFinal@$0A@VBase@DES_XEX3@CryptoPP@@@CryptoPP@@@8 ; CryptoPP::BlockCipherFinal<0,CryptoPP::DES_XEX3::Base>::`RTTI Base Class Descriptor at (0,-1,0,64)'
	DD	0eH
	DD	00H
	DD	0ffffffffH
	DD	00H
	DD	040H
	DD	FLAT:??_R3?$BlockCipherFinal@$0A@VBase@DES_XEX3@CryptoPP@@@CryptoPP@@8
rdata$r	ENDS
;	COMDAT ??_R2?$BlockCipherFinal@$0A@VBase@DES_XEX3@CryptoPP@@@CryptoPP@@8
rdata$r	SEGMENT
??_R2?$BlockCipherFinal@$0A@VBase@DES_XEX3@CryptoPP@@@CryptoPP@@8 DD FLAT:??_R1A@?0A@EA@?$BlockCipherFinal@$0A@VBase@DES_XEX3@CryptoPP@@@CryptoPP@@8 ; CryptoPP::BlockCipherFinal<0,CryptoPP::DES_XEX3::Base>::`RTTI Base Class Array'
	DD	FLAT:??_R1A@?0A@EA@?$ClonableImpl@V?$BlockCipherFinal@$0A@VBase@DES_XEX3@CryptoPP@@@CryptoPP@@VBase@DES_XEX3@2@@CryptoPP@@8
	DD	FLAT:??_R1A@?0A@EA@Base@DES_XEX3@CryptoPP@@8
	DD	FLAT:??_R1A@?0A@EA@?$BlockCipherImpl@UDES_XEX3_Info@CryptoPP@@VBlockCipher@2@@CryptoPP@@8
	DD	FLAT:??_R1A@?0A@EA@?$AlgorithmImpl@V?$SimpleKeyingInterfaceImpl@V?$TwoBases@VBlockCipher@CryptoPP@@UDES_XEX3_Info@2@@CryptoPP@@V12@@CryptoPP@@V12@@CryptoPP@@8
	DD	FLAT:??_R1A@?0A@EA@?$SimpleKeyingInterfaceImpl@V?$TwoBases@VBlockCipher@CryptoPP@@UDES_XEX3_Info@2@@CryptoPP@@V12@@CryptoPP@@8
	DD	FLAT:??_R1A@?0A@EA@?$TwoBases@VBlockCipher@CryptoPP@@UDES_XEX3_Info@2@@CryptoPP@@8
	DD	FLAT:??_R1A@?0A@EA@BlockCipher@CryptoPP@@8
	DD	FLAT:??_R1A@?0A@EA@SimpleKeyingInterface@CryptoPP@@8
	DD	FLAT:??_R13?0A@EA@BlockTransformation@CryptoPP@@8
	DD	FLAT:??_R13?0A@EA@Algorithm@CryptoPP@@8
	DD	FLAT:??_R13?0A@EA@Clonable@CryptoPP@@8
	DD	FLAT:??_R17?0A@EA@DES_XEX3_Info@CryptoPP@@8
	DD	FLAT:??_R17?0A@EA@?$FixedBlockSize@$07@CryptoPP@@8
	DD	FLAT:??_R18?0A@EA@?$FixedKeyLength@$0BI@$03$0A@@CryptoPP@@8
rdata$r	ENDS
;	COMDAT ??_R3?$BlockCipherFinal@$0A@VBase@DES_XEX3@CryptoPP@@@CryptoPP@@8
rdata$r	SEGMENT
??_R3?$BlockCipherFinal@$0A@VBase@DES_XEX3@CryptoPP@@@CryptoPP@@8 DD 00H ; CryptoPP::BlockCipherFinal<0,CryptoPP::DES_XEX3::Base>::`RTTI Class Hierarchy Descriptor'
	DD	01H
	DD	0fH
	DD	FLAT:??_R2?$BlockCipherFinal@$0A@VBase@DES_XEX3@CryptoPP@@@CryptoPP@@8
rdata$r	ENDS
;	COMDAT ??_R0?AV?$BlockCipherFinal@$0A@VBase@DES_XEX3@CryptoPP@@@CryptoPP@@@8
data$r	SEGMENT
??_R0?AV?$BlockCipherFinal@$0A@VBase@DES_XEX3@CryptoPP@@@CryptoPP@@@8 DD FLAT:??_7type_info@@6B@ ; CryptoPP::BlockCipherFinal<0,CryptoPP::DES_XEX3::Base> `RTTI Type Descriptor'
	DD	00H
	DB	'.?AV?$BlockCipherFinal@$0A@VBase@DES_XEX3@CryptoPP@@@Cry'
	DB	'ptoPP@@', 00H
data$r	ENDS
;	COMDAT ??_R4?$BlockCipherFinal@$0A@VBase@DES_XEX3@CryptoPP@@@CryptoPP@@6BSimpleKeyingInterface@1@@
rdata$r	SEGMENT
??_R4?$BlockCipherFinal@$0A@VBase@DES_XEX3@CryptoPP@@@CryptoPP@@6BSimpleKeyingInterface@1@@ DD 00H ; CryptoPP::BlockCipherFinal<0,CryptoPP::DES_XEX3::Base>::`RTTI Complete Object Locator'
	DD	00H
	DD	00H
	DD	FLAT:??_R0?AV?$BlockCipherFinal@$0A@VBase@DES_XEX3@CryptoPP@@@CryptoPP@@@8
	DD	FLAT:??_R3?$BlockCipherFinal@$0A@VBase@DES_XEX3@CryptoPP@@@CryptoPP@@8
rdata$r	ENDS
;	COMDAT ??_R18?0A@EA@?$FixedKeyLength@$0BI@$03$0A@@CryptoPP@@8
rdata$r	SEGMENT
??_R18?0A@EA@?$FixedKeyLength@$0BI@$03$0A@@CryptoPP@@8 DD FLAT:??_R0?AV?$FixedKeyLength@$0BI@$03$0A@@CryptoPP@@@8 ; CryptoPP::FixedKeyLength<24,4,0>::`RTTI Base Class Descriptor at (9,-1,0,64)'
	DD	00H
	DD	09H
	DD	0ffffffffH
	DD	00H
	DD	040H
	DD	FLAT:??_R3?$FixedKeyLength@$0BI@$03$0A@@CryptoPP@@8
rdata$r	ENDS
;	COMDAT ??_R1A@?0A@EA@?$FixedKeyLength@$0BI@$03$0A@@CryptoPP@@8
rdata$r	SEGMENT
??_R1A@?0A@EA@?$FixedKeyLength@$0BI@$03$0A@@CryptoPP@@8 DD FLAT:??_R0?AV?$FixedKeyLength@$0BI@$03$0A@@CryptoPP@@@8 ; CryptoPP::FixedKeyLength<24,4,0>::`RTTI Base Class Descriptor at (0,-1,0,64)'
	DD	00H
	DD	00H
	DD	0ffffffffH
	DD	00H
	DD	040H
	DD	FLAT:??_R3?$FixedKeyLength@$0BI@$03$0A@@CryptoPP@@8
rdata$r	ENDS
;	COMDAT ??_R2?$FixedKeyLength@$0BI@$03$0A@@CryptoPP@@8
rdata$r	SEGMENT
??_R2?$FixedKeyLength@$0BI@$03$0A@@CryptoPP@@8 DD FLAT:??_R1A@?0A@EA@?$FixedKeyLength@$0BI@$03$0A@@CryptoPP@@8 ; CryptoPP::FixedKeyLength<24,4,0>::`RTTI Base Class Array'
rdata$r	ENDS
;	COMDAT ??_R3?$FixedKeyLength@$0BI@$03$0A@@CryptoPP@@8
rdata$r	SEGMENT
??_R3?$FixedKeyLength@$0BI@$03$0A@@CryptoPP@@8 DD 00H	; CryptoPP::FixedKeyLength<24,4,0>::`RTTI Class Hierarchy Descriptor'
	DD	00H
	DD	01H
	DD	FLAT:??_R2?$FixedKeyLength@$0BI@$03$0A@@CryptoPP@@8
rdata$r	ENDS
;	COMDAT ??_R0?AV?$FixedKeyLength@$0BI@$03$0A@@CryptoPP@@@8
data$r	SEGMENT
??_R0?AV?$FixedKeyLength@$0BI@$03$0A@@CryptoPP@@@8 DD FLAT:??_7type_info@@6B@ ; CryptoPP::FixedKeyLength<24,4,0> `RTTI Type Descriptor'
	DD	00H
	DB	'.?AV?$FixedKeyLength@$0BI@$03$0A@@CryptoPP@@', 00H
data$r	ENDS
;	COMDAT ??_R10?0A@EA@?$FixedKeyLength@$0BI@$03$0A@@CryptoPP@@8
rdata$r	SEGMENT
??_R10?0A@EA@?$FixedKeyLength@$0BI@$03$0A@@CryptoPP@@8 DD FLAT:??_R0?AV?$FixedKeyLength@$0BI@$03$0A@@CryptoPP@@@8 ; CryptoPP::FixedKeyLength<24,4,0>::`RTTI Base Class Descriptor at (1,-1,0,64)'
	DD	00H
	DD	01H
	DD	0ffffffffH
	DD	00H
	DD	040H
	DD	FLAT:??_R3?$FixedKeyLength@$0BI@$03$0A@@CryptoPP@@8
rdata$r	ENDS
;	COMDAT ??_R1A@?0A@EA@DES_XEX3_Info@CryptoPP@@8
rdata$r	SEGMENT
??_R1A@?0A@EA@DES_XEX3_Info@CryptoPP@@8 DD FLAT:??_R0?AUDES_XEX3_Info@CryptoPP@@@8 ; CryptoPP::DES_XEX3_Info::`RTTI Base Class Descriptor at (0,-1,0,64)'
	DD	02H
	DD	00H
	DD	0ffffffffH
	DD	00H
	DD	040H
	DD	FLAT:??_R3DES_XEX3_Info@CryptoPP@@8
rdata$r	ENDS
;	COMDAT ??_R2DES_XEX3_Info@CryptoPP@@8
rdata$r	SEGMENT
??_R2DES_XEX3_Info@CryptoPP@@8 DD FLAT:??_R1A@?0A@EA@DES_XEX3_Info@CryptoPP@@8 ; CryptoPP::DES_XEX3_Info::`RTTI Base Class Array'
	DD	FLAT:??_R1A@?0A@EA@?$FixedBlockSize@$07@CryptoPP@@8
	DD	FLAT:??_R10?0A@EA@?$FixedKeyLength@$0BI@$03$0A@@CryptoPP@@8
rdata$r	ENDS
;	COMDAT ??_R3DES_XEX3_Info@CryptoPP@@8
rdata$r	SEGMENT
??_R3DES_XEX3_Info@CryptoPP@@8 DD 00H			; CryptoPP::DES_XEX3_Info::`RTTI Class Hierarchy Descriptor'
	DD	01H
	DD	03H
	DD	FLAT:??_R2DES_XEX3_Info@CryptoPP@@8
rdata$r	ENDS
;	COMDAT ??_R0?AUDES_XEX3_Info@CryptoPP@@@8
data$r	SEGMENT
??_R0?AUDES_XEX3_Info@CryptoPP@@@8 DD FLAT:??_7type_info@@6B@ ; CryptoPP::DES_XEX3_Info `RTTI Type Descriptor'
	DD	00H
	DB	'.?AUDES_XEX3_Info@CryptoPP@@', 00H
data$r	ENDS
;	COMDAT ??_R17?0A@EA@DES_XEX3_Info@CryptoPP@@8
rdata$r	SEGMENT
??_R17?0A@EA@DES_XEX3_Info@CryptoPP@@8 DD FLAT:??_R0?AUDES_XEX3_Info@CryptoPP@@@8 ; CryptoPP::DES_XEX3_Info::`RTTI Base Class Descriptor at (8,-1,0,64)'
	DD	02H
	DD	08H
	DD	0ffffffffH
	DD	00H
	DD	040H
	DD	FLAT:??_R3DES_XEX3_Info@CryptoPP@@8
rdata$r	ENDS
;	COMDAT ??_R2?$TwoBases@VBlockCipher@CryptoPP@@UDES_XEX3_Info@2@@CryptoPP@@8
rdata$r	SEGMENT
??_R2?$TwoBases@VBlockCipher@CryptoPP@@UDES_XEX3_Info@2@@CryptoPP@@8 DD FLAT:??_R1A@?0A@EA@?$TwoBases@VBlockCipher@CryptoPP@@UDES_XEX3_Info@2@@CryptoPP@@8 ; CryptoPP::TwoBases<CryptoPP::BlockCipher,CryptoPP::DES_XEX3_Info>::`RTTI Base Class Array'
	DD	FLAT:??_R1A@?0A@EA@BlockCipher@CryptoPP@@8
	DD	FLAT:??_R1A@?0A@EA@SimpleKeyingInterface@CryptoPP@@8
	DD	FLAT:??_R13?0A@EA@BlockTransformation@CryptoPP@@8
	DD	FLAT:??_R13?0A@EA@Algorithm@CryptoPP@@8
	DD	FLAT:??_R13?0A@EA@Clonable@CryptoPP@@8
	DD	FLAT:??_R17?0A@EA@DES_XEX3_Info@CryptoPP@@8
	DD	FLAT:??_R17?0A@EA@?$FixedBlockSize@$07@CryptoPP@@8
	DD	FLAT:??_R18?0A@EA@?$FixedKeyLength@$0BI@$03$0A@@CryptoPP@@8
rdata$r	ENDS
;	COMDAT ??_R3?$TwoBases@VBlockCipher@CryptoPP@@UDES_XEX3_Info@2@@CryptoPP@@8
rdata$r	SEGMENT
??_R3?$TwoBases@VBlockCipher@CryptoPP@@UDES_XEX3_Info@2@@CryptoPP@@8 DD 00H ; CryptoPP::TwoBases<CryptoPP::BlockCipher,CryptoPP::DES_XEX3_Info>::`RTTI Class Hierarchy Descriptor'
	DD	01H
	DD	09H
	DD	FLAT:??_R2?$TwoBases@VBlockCipher@CryptoPP@@UDES_XEX3_Info@2@@CryptoPP@@8
rdata$r	ENDS
;	COMDAT ??_R0?AV?$TwoBases@VBlockCipher@CryptoPP@@UDES_XEX3_Info@2@@CryptoPP@@@8
data$r	SEGMENT
??_R0?AV?$TwoBases@VBlockCipher@CryptoPP@@UDES_XEX3_Info@2@@CryptoPP@@@8 DD FLAT:??_7type_info@@6B@ ; CryptoPP::TwoBases<CryptoPP::BlockCipher,CryptoPP::DES_XEX3_Info> `RTTI Type Descriptor'
	DD	00H
	DB	'.?AV?$TwoBases@VBlockCipher@CryptoPP@@UDES_XEX3_Info@2@@'
	DB	'CryptoPP@@', 00H
data$r	ENDS
;	COMDAT ??_R1A@?0A@EA@?$TwoBases@VBlockCipher@CryptoPP@@UDES_XEX3_Info@2@@CryptoPP@@8
rdata$r	SEGMENT
??_R1A@?0A@EA@?$TwoBases@VBlockCipher@CryptoPP@@UDES_XEX3_Info@2@@CryptoPP@@8 DD FLAT:??_R0?AV?$TwoBases@VBlockCipher@CryptoPP@@UDES_XEX3_Info@2@@CryptoPP@@@8 ; CryptoPP::TwoBases<CryptoPP::BlockCipher,CryptoPP::DES_XEX3_Info>::`RTTI Base Class Descriptor at (0,-1,0,64)'
	DD	08H
	DD	00H
	DD	0ffffffffH
	DD	00H
	DD	040H
	DD	FLAT:??_R3?$TwoBases@VBlockCipher@CryptoPP@@UDES_XEX3_Info@2@@CryptoPP@@8
rdata$r	ENDS
;	COMDAT ??_R2?$SimpleKeyingInterfaceImpl@V?$TwoBases@VBlockCipher@CryptoPP@@UDES_XEX3_Info@2@@CryptoPP@@V12@@CryptoPP@@8
rdata$r	SEGMENT
??_R2?$SimpleKeyingInterfaceImpl@V?$TwoBases@VBlockCipher@CryptoPP@@UDES_XEX3_Info@2@@CryptoPP@@V12@@CryptoPP@@8 DD FLAT:??_R1A@?0A@EA@?$SimpleKeyingInterfaceImpl@V?$TwoBases@VBlockCipher@CryptoPP@@UDES_XEX3_Info@2@@CryptoPP@@V12@@CryptoPP@@8 ; CryptoPP::SimpleKeyingInterfaceImpl<CryptoPP::TwoBases<CryptoPP::BlockCipher,CryptoPP::DES_XEX3_Info>,CryptoPP::TwoBases<CryptoPP::BlockCipher,CryptoPP::DES_XEX3_Info> >::`RTTI Base Class Array'
	DD	FLAT:??_R1A@?0A@EA@?$TwoBases@VBlockCipher@CryptoPP@@UDES_XEX3_Info@2@@CryptoPP@@8
	DD	FLAT:??_R1A@?0A@EA@BlockCipher@CryptoPP@@8
	DD	FLAT:??_R1A@?0A@EA@SimpleKeyingInterface@CryptoPP@@8
	DD	FLAT:??_R13?0A@EA@BlockTransformation@CryptoPP@@8
	DD	FLAT:??_R13?0A@EA@Algorithm@CryptoPP@@8
	DD	FLAT:??_R13?0A@EA@Clonable@CryptoPP@@8
	DD	FLAT:??_R17?0A@EA@DES_XEX3_Info@CryptoPP@@8
	DD	FLAT:??_R17?0A@EA@?$FixedBlockSize@$07@CryptoPP@@8
	DD	FLAT:??_R18?0A@EA@?$FixedKeyLength@$0BI@$03$0A@@CryptoPP@@8
rdata$r	ENDS
;	COMDAT ??_R3?$SimpleKeyingInterfaceImpl@V?$TwoBases@VBlockCipher@CryptoPP@@UDES_XEX3_Info@2@@CryptoPP@@V12@@CryptoPP@@8
rdata$r	SEGMENT
??_R3?$SimpleKeyingInterfaceImpl@V?$TwoBases@VBlockCipher@CryptoPP@@UDES_XEX3_Info@2@@CryptoPP@@V12@@CryptoPP@@8 DD 00H ; CryptoPP::SimpleKeyingInterfaceImpl<CryptoPP::TwoBases<CryptoPP::BlockCipher,CryptoPP::DES_XEX3_Info>,CryptoPP::TwoBases<CryptoPP::BlockCipher,CryptoPP::DES_XEX3_Info> >::`RTTI Class Hierarchy Descriptor'
	DD	01H
	DD	0aH
	DD	FLAT:??_R2?$SimpleKeyingInterfaceImpl@V?$TwoBases@VBlockCipher@CryptoPP@@UDES_XEX3_Info@2@@CryptoPP@@V12@@CryptoPP@@8
rdata$r	ENDS
;	COMDAT ??_R0?AV?$SimpleKeyingInterfaceImpl@V?$TwoBases@VBlockCipher@CryptoPP@@UDES_XEX3_Info@2@@CryptoPP@@V12@@CryptoPP@@@8
data$r	SEGMENT
??_R0?AV?$SimpleKeyingInterfaceImpl@V?$TwoBases@VBlockCipher@CryptoPP@@UDES_XEX3_Info@2@@CryptoPP@@V12@@CryptoPP@@@8 DD FLAT:??_7type_info@@6B@ ; CryptoPP::SimpleKeyingInterfaceImpl<CryptoPP::TwoBases<CryptoPP::BlockCipher,CryptoPP::DES_XEX3_Info>,CryptoPP::TwoBases<CryptoPP::BlockCipher,CryptoPP::DES_XEX3_Info> > `RTTI Type Descriptor'
	DD	00H
	DB	'.?AV?$SimpleKeyingInterfaceImpl@V?$TwoBases@VBlockCipher'
	DB	'@CryptoPP@@UDES_XEX3_Info@2@@CryptoPP@@V12@@CryptoPP@@', 00H
data$r	ENDS
;	COMDAT ??_R1A@?0A@EA@?$SimpleKeyingInterfaceImpl@V?$TwoBases@VBlockCipher@CryptoPP@@UDES_XEX3_Info@2@@CryptoPP@@V12@@CryptoPP@@8
rdata$r	SEGMENT
??_R1A@?0A@EA@?$SimpleKeyingInterfaceImpl@V?$TwoBases@VBlockCipher@CryptoPP@@UDES_XEX3_Info@2@@CryptoPP@@V12@@CryptoPP@@8 DD FLAT:??_R0?AV?$SimpleKeyingInterfaceImpl@V?$TwoBases@VBlockCipher@CryptoPP@@UDES_XEX3_Info@2@@CryptoPP@@V12@@CryptoPP@@@8 ; CryptoPP::SimpleKeyingInterfaceImpl<CryptoPP::TwoBases<CryptoPP::BlockCipher,CryptoPP::DES_XEX3_Info>,CryptoPP::TwoBases<CryptoPP::BlockCipher,CryptoPP::DES_XEX3_Info> >::`RTTI Base Class Descriptor at (0,-1,0,64)'
	DD	09H
	DD	00H
	DD	0ffffffffH
	DD	00H
	DD	040H
	DD	FLAT:??_R3?$SimpleKeyingInterfaceImpl@V?$TwoBases@VBlockCipher@CryptoPP@@UDES_XEX3_Info@2@@CryptoPP@@V12@@CryptoPP@@8
rdata$r	ENDS
;	COMDAT ??_R2?$AlgorithmImpl@V?$SimpleKeyingInterfaceImpl@V?$TwoBases@VBlockCipher@CryptoPP@@UDES_XEX3_Info@2@@CryptoPP@@V12@@CryptoPP@@V12@@CryptoPP@@8
rdata$r	SEGMENT
??_R2?$AlgorithmImpl@V?$SimpleKeyingInterfaceImpl@V?$TwoBases@VBlockCipher@CryptoPP@@UDES_XEX3_Info@2@@CryptoPP@@V12@@CryptoPP@@V12@@CryptoPP@@8 DD FLAT:??_R1A@?0A@EA@?$AlgorithmImpl@V?$SimpleKeyingInterfaceImpl@V?$TwoBases@VBlockCipher@CryptoPP@@UDES_XEX3_Info@2@@CryptoPP@@V12@@CryptoPP@@V12@@CryptoPP@@8 ; CryptoPP::AlgorithmImpl<CryptoPP::SimpleKeyingInterfaceImpl<CryptoPP::TwoBases<CryptoPP::BlockCipher,CryptoPP::DES_XEX3_Info>,CryptoPP::TwoBases<CryptoPP::BlockCipher,CryptoPP::DES_XEX3_Info> >,CryptoPP::SimpleKeyingInterfaceImpl<CryptoPP::TwoBases<CryptoPP::BlockCipher,CryptoPP::DES_XEX3_Info>,CryptoPP::TwoBases<CryptoPP::BlockCipher,CryptoPP::DES_XEX3_Info> > >::`RTTI Base Class Array'
	DD	FLAT:??_R1A@?0A@EA@?$SimpleKeyingInterfaceImpl@V?$TwoBases@VBlockCipher@CryptoPP@@UDES_XEX3_Info@2@@CryptoPP@@V12@@CryptoPP@@8
	DD	FLAT:??_R1A@?0A@EA@?$TwoBases@VBlockCipher@CryptoPP@@UDES_XEX3_Info@2@@CryptoPP@@8
	DD	FLAT:??_R1A@?0A@EA@BlockCipher@CryptoPP@@8
	DD	FLAT:??_R1A@?0A@EA@SimpleKeyingInterface@CryptoPP@@8
	DD	FLAT:??_R13?0A@EA@BlockTransformation@CryptoPP@@8
	DD	FLAT:??_R13?0A@EA@Algorithm@CryptoPP@@8
	DD	FLAT:??_R13?0A@EA@Clonable@CryptoPP@@8
	DD	FLAT:??_R17?0A@EA@DES_XEX3_Info@CryptoPP@@8
	DD	FLAT:??_R17?0A@EA@?$FixedBlockSize@$07@CryptoPP@@8
	DD	FLAT:??_R18?0A@EA@?$FixedKeyLength@$0BI@$03$0A@@CryptoPP@@8
rdata$r	ENDS
;	COMDAT ??_R3?$AlgorithmImpl@V?$SimpleKeyingInterfaceImpl@V?$TwoBases@VBlockCipher@CryptoPP@@UDES_XEX3_Info@2@@CryptoPP@@V12@@CryptoPP@@V12@@CryptoPP@@8
rdata$r	SEGMENT
??_R3?$AlgorithmImpl@V?$SimpleKeyingInterfaceImpl@V?$TwoBases@VBlockCipher@CryptoPP@@UDES_XEX3_Info@2@@CryptoPP@@V12@@CryptoPP@@V12@@CryptoPP@@8 DD 00H ; CryptoPP::AlgorithmImpl<CryptoPP::SimpleKeyingInterfaceImpl<CryptoPP::TwoBases<CryptoPP::BlockCipher,CryptoPP::DES_XEX3_Info>,CryptoPP::TwoBases<CryptoPP::BlockCipher,CryptoPP::DES_XEX3_Info> >,CryptoPP::SimpleKeyingInterfaceImpl<CryptoPP::TwoBases<CryptoPP::BlockCipher,CryptoPP::DES_XEX3_Info>,CryptoPP::TwoBases<CryptoPP::BlockCipher,CryptoPP::DES_XEX3_Info> > >::`RTTI Class Hierarchy Descriptor'
	DD	01H
	DD	0bH
	DD	FLAT:??_R2?$AlgorithmImpl@V?$SimpleKeyingInterfaceImpl@V?$TwoBases@VBlockCipher@CryptoPP@@UDES_XEX3_Info@2@@CryptoPP@@V12@@CryptoPP@@V12@@CryptoPP@@8
rdata$r	ENDS
;	COMDAT ??_R0?AV?$AlgorithmImpl@V?$SimpleKeyingInterfaceImpl@V?$TwoBases@VBlockCipher@CryptoPP@@UDES_XEX3_Info@2@@CryptoPP@@V12@@CryptoPP@@V12@@CryptoPP@@@8
data$r	SEGMENT
??_R0?AV?$AlgorithmImpl@V?$SimpleKeyingInterfaceImpl@V?$TwoBases@VBlockCipher@CryptoPP@@UDES_XEX3_Info@2@@CryptoPP@@V12@@CryptoPP@@V12@@CryptoPP@@@8 DD FLAT:??_7type_info@@6B@ ; CryptoPP::AlgorithmImpl<CryptoPP::SimpleKeyingInterfaceImpl<CryptoPP::TwoBases<CryptoPP::BlockCipher,CryptoPP::DES_XEX3_Info>,CryptoPP::TwoBases<CryptoPP::BlockCipher,CryptoPP::DES_XEX3_Info> >,CryptoPP::SimpleKeyingInterfaceImpl<CryptoPP::TwoBases<CryptoPP::BlockCipher,CryptoPP::DES_XEX3_Info>,CryptoPP::TwoBases<CryptoPP::BlockCipher,CryptoPP::DES_XEX3_Info> > > `RTTI Type Descriptor'
	DD	00H
	DB	'.?AV?$AlgorithmImpl@V?$SimpleKeyingInterfaceImpl@V?$TwoB'
	DB	'ases@VBlockCipher@CryptoPP@@UDES_XEX3_Info@2@@CryptoPP@@V12@@'
	DB	'CryptoPP@@V12@@CryptoPP@@', 00H
data$r	ENDS
;	COMDAT ??_R1A@?0A@EA@?$AlgorithmImpl@V?$SimpleKeyingInterfaceImpl@V?$TwoBases@VBlockCipher@CryptoPP@@UDES_XEX3_Info@2@@CryptoPP@@V12@@CryptoPP@@V12@@CryptoPP@@8
rdata$r	SEGMENT
??_R1A@?0A@EA@?$AlgorithmImpl@V?$SimpleKeyingInterfaceImpl@V?$TwoBases@VBlockCipher@CryptoPP@@UDES_XEX3_Info@2@@CryptoPP@@V12@@CryptoPP@@V12@@CryptoPP@@8 DD FLAT:??_R0?AV?$AlgorithmImpl@V?$SimpleKeyingInterfaceImpl@V?$TwoBases@VBlockCipher@CryptoPP@@UDES_XEX3_Info@2@@CryptoPP@@V12@@CryptoPP@@V12@@CryptoPP@@@8 ; CryptoPP::AlgorithmImpl<CryptoPP::SimpleKeyingInterfaceImpl<CryptoPP::TwoBases<CryptoPP::BlockCipher,CryptoPP::DES_XEX3_Info>,CryptoPP::TwoBases<CryptoPP::BlockCipher,CryptoPP::DES_XEX3_Info> >,CryptoPP::SimpleKeyingInterfaceImpl<CryptoPP::TwoBases<CryptoPP::BlockCipher,CryptoPP::DES_XEX3_Info>,CryptoPP::TwoBases<CryptoPP::BlockCipher,CryptoPP::DES_XEX3_Info> > >::`RTTI Base Class Descriptor at (0,-1,0,64)'
	DD	0aH
	DD	00H
	DD	0ffffffffH
	DD	00H
	DD	040H
	DD	FLAT:??_R3?$AlgorithmImpl@V?$SimpleKeyingInterfaceImpl@V?$TwoBases@VBlockCipher@CryptoPP@@UDES_XEX3_Info@2@@CryptoPP@@V12@@CryptoPP@@V12@@CryptoPP@@8
rdata$r	ENDS
;	COMDAT ??_R2?$BlockCipherImpl@UDES_XEX3_Info@CryptoPP@@VBlockCipher@2@@CryptoPP@@8
rdata$r	SEGMENT
??_R2?$BlockCipherImpl@UDES_XEX3_Info@CryptoPP@@VBlockCipher@2@@CryptoPP@@8 DD FLAT:??_R1A@?0A@EA@?$BlockCipherImpl@UDES_XEX3_Info@CryptoPP@@VBlockCipher@2@@CryptoPP@@8 ; CryptoPP::BlockCipherImpl<CryptoPP::DES_XEX3_Info,CryptoPP::BlockCipher>::`RTTI Base Class Array'
	DD	FLAT:??_R1A@?0A@EA@?$AlgorithmImpl@V?$SimpleKeyingInterfaceImpl@V?$TwoBases@VBlockCipher@CryptoPP@@UDES_XEX3_Info@2@@CryptoPP@@V12@@CryptoPP@@V12@@CryptoPP@@8
	DD	FLAT:??_R1A@?0A@EA@?$SimpleKeyingInterfaceImpl@V?$TwoBases@VBlockCipher@CryptoPP@@UDES_XEX3_Info@2@@CryptoPP@@V12@@CryptoPP@@8
	DD	FLAT:??_R1A@?0A@EA@?$TwoBases@VBlockCipher@CryptoPP@@UDES_XEX3_Info@2@@CryptoPP@@8
	DD	FLAT:??_R1A@?0A@EA@BlockCipher@CryptoPP@@8
	DD	FLAT:??_R1A@?0A@EA@SimpleKeyingInterface@CryptoPP@@8
	DD	FLAT:??_R13?0A@EA@BlockTransformation@CryptoPP@@8
	DD	FLAT:??_R13?0A@EA@Algorithm@CryptoPP@@8
	DD	FLAT:??_R13?0A@EA@Clonable@CryptoPP@@8
	DD	FLAT:??_R17?0A@EA@DES_XEX3_Info@CryptoPP@@8
	DD	FLAT:??_R17?0A@EA@?$FixedBlockSize@$07@CryptoPP@@8
	DD	FLAT:??_R18?0A@EA@?$FixedKeyLength@$0BI@$03$0A@@CryptoPP@@8
rdata$r	ENDS
;	COMDAT ??_R3?$BlockCipherImpl@UDES_XEX3_Info@CryptoPP@@VBlockCipher@2@@CryptoPP@@8
rdata$r	SEGMENT
??_R3?$BlockCipherImpl@UDES_XEX3_Info@CryptoPP@@VBlockCipher@2@@CryptoPP@@8 DD 00H ; CryptoPP::BlockCipherImpl<CryptoPP::DES_XEX3_Info,CryptoPP::BlockCipher>::`RTTI Class Hierarchy Descriptor'
	DD	01H
	DD	0cH
	DD	FLAT:??_R2?$BlockCipherImpl@UDES_XEX3_Info@CryptoPP@@VBlockCipher@2@@CryptoPP@@8
rdata$r	ENDS
;	COMDAT ??_R0?AV?$BlockCipherImpl@UDES_XEX3_Info@CryptoPP@@VBlockCipher@2@@CryptoPP@@@8
data$r	SEGMENT
??_R0?AV?$BlockCipherImpl@UDES_XEX3_Info@CryptoPP@@VBlockCipher@2@@CryptoPP@@@8 DD FLAT:??_7type_info@@6B@ ; CryptoPP::BlockCipherImpl<CryptoPP::DES_XEX3_Info,CryptoPP::BlockCipher> `RTTI Type Descriptor'
	DD	00H
	DB	'.?AV?$BlockCipherImpl@UDES_XEX3_Info@CryptoPP@@VBlockCip'
	DB	'her@2@@CryptoPP@@', 00H
data$r	ENDS
;	COMDAT ??_R1A@?0A@EA@?$BlockCipherImpl@UDES_XEX3_Info@CryptoPP@@VBlockCipher@2@@CryptoPP@@8
rdata$r	SEGMENT
??_R1A@?0A@EA@?$BlockCipherImpl@UDES_XEX3_Info@CryptoPP@@VBlockCipher@2@@CryptoPP@@8 DD FLAT:??_R0?AV?$BlockCipherImpl@UDES_XEX3_Info@CryptoPP@@VBlockCipher@2@@CryptoPP@@@8 ; CryptoPP::BlockCipherImpl<CryptoPP::DES_XEX3_Info,CryptoPP::BlockCipher>::`RTTI Base Class Descriptor at (0,-1,0,64)'
	DD	0bH
	DD	00H
	DD	0ffffffffH
	DD	00H
	DD	040H
	DD	FLAT:??_R3?$BlockCipherImpl@UDES_XEX3_Info@CryptoPP@@VBlockCipher@2@@CryptoPP@@8
rdata$r	ENDS
;	COMDAT ??_R1A@?0A@EA@Base@DES_XEX3@CryptoPP@@8
rdata$r	SEGMENT
??_R1A@?0A@EA@Base@DES_XEX3@CryptoPP@@8 DD FLAT:??_R0?AVBase@DES_XEX3@CryptoPP@@@8 ; CryptoPP::DES_XEX3::Base::`RTTI Base Class Descriptor at (0,-1,0,64)'
	DD	0cH
	DD	00H
	DD	0ffffffffH
	DD	00H
	DD	040H
	DD	FLAT:??_R3Base@DES_XEX3@CryptoPP@@8
rdata$r	ENDS
;	COMDAT ??_R2Base@DES_XEX3@CryptoPP@@8
rdata$r	SEGMENT
??_R2Base@DES_XEX3@CryptoPP@@8 DD FLAT:??_R1A@?0A@EA@Base@DES_XEX3@CryptoPP@@8 ; CryptoPP::DES_XEX3::Base::`RTTI Base Class Array'
	DD	FLAT:??_R1A@?0A@EA@?$BlockCipherImpl@UDES_XEX3_Info@CryptoPP@@VBlockCipher@2@@CryptoPP@@8
	DD	FLAT:??_R1A@?0A@EA@?$AlgorithmImpl@V?$SimpleKeyingInterfaceImpl@V?$TwoBases@VBlockCipher@CryptoPP@@UDES_XEX3_Info@2@@CryptoPP@@V12@@CryptoPP@@V12@@CryptoPP@@8
	DD	FLAT:??_R1A@?0A@EA@?$SimpleKeyingInterfaceImpl@V?$TwoBases@VBlockCipher@CryptoPP@@UDES_XEX3_Info@2@@CryptoPP@@V12@@CryptoPP@@8
	DD	FLAT:??_R1A@?0A@EA@?$TwoBases@VBlockCipher@CryptoPP@@UDES_XEX3_Info@2@@CryptoPP@@8
	DD	FLAT:??_R1A@?0A@EA@BlockCipher@CryptoPP@@8
	DD	FLAT:??_R1A@?0A@EA@SimpleKeyingInterface@CryptoPP@@8
	DD	FLAT:??_R13?0A@EA@BlockTransformation@CryptoPP@@8
	DD	FLAT:??_R13?0A@EA@Algorithm@CryptoPP@@8
	DD	FLAT:??_R13?0A@EA@Clonable@CryptoPP@@8
	DD	FLAT:??_R17?0A@EA@DES_XEX3_Info@CryptoPP@@8
	DD	FLAT:??_R17?0A@EA@?$FixedBlockSize@$07@CryptoPP@@8
	DD	FLAT:??_R18?0A@EA@?$FixedKeyLength@$0BI@$03$0A@@CryptoPP@@8
rdata$r	ENDS
;	COMDAT ??_R3Base@DES_XEX3@CryptoPP@@8
rdata$r	SEGMENT
??_R3Base@DES_XEX3@CryptoPP@@8 DD 00H			; CryptoPP::DES_XEX3::Base::`RTTI Class Hierarchy Descriptor'
	DD	01H
	DD	0dH
	DD	FLAT:??_R2Base@DES_XEX3@CryptoPP@@8
rdata$r	ENDS
;	COMDAT ??_R0?AVBase@DES_XEX3@CryptoPP@@@8
data$r	SEGMENT
??_R0?AVBase@DES_XEX3@CryptoPP@@@8 DD FLAT:??_7type_info@@6B@ ; CryptoPP::DES_XEX3::Base `RTTI Type Descriptor'
	DD	00H
	DB	'.?AVBase@DES_XEX3@CryptoPP@@', 00H
data$r	ENDS
;	COMDAT ??_R4?$BlockCipherFinal@$0A@VBase@DES@CryptoPP@@@CryptoPP@@6BBlockTransformation@1@@
rdata$r	SEGMENT
??_R4?$BlockCipherFinal@$0A@VBase@DES@CryptoPP@@@CryptoPP@@6BBlockTransformation@1@@ DD 00H ; CryptoPP::BlockCipherFinal<0,CryptoPP::DES::Base>::`RTTI Complete Object Locator'
	DD	04H
	DD	00H
	DD	FLAT:??_R0?AV?$BlockCipherFinal@$0A@VBase@DES@CryptoPP@@@CryptoPP@@@8
	DD	FLAT:??_R3?$BlockCipherFinal@$0A@VBase@DES@CryptoPP@@@CryptoPP@@8
rdata$r	ENDS
;	COMDAT ??_R2?$ClonableImpl@V?$BlockCipherFinal@$0A@VBase@DES@CryptoPP@@@CryptoPP@@VBase@DES@2@@CryptoPP@@8
rdata$r	SEGMENT
??_R2?$ClonableImpl@V?$BlockCipherFinal@$0A@VBase@DES@CryptoPP@@@CryptoPP@@VBase@DES@2@@CryptoPP@@8 DD FLAT:??_R1A@?0A@EA@?$ClonableImpl@V?$BlockCipherFinal@$0A@VBase@DES@CryptoPP@@@CryptoPP@@VBase@DES@2@@CryptoPP@@8 ; CryptoPP::ClonableImpl<CryptoPP::BlockCipherFinal<0,CryptoPP::DES::Base>,CryptoPP::DES::Base>::`RTTI Base Class Array'
	DD	FLAT:??_R1A@?0A@EA@Base@DES@CryptoPP@@8
	DD	FLAT:??_R1A@?0A@EA@?$BlockCipherImpl@UDES_Info@CryptoPP@@VBlockCipher@2@@CryptoPP@@8
	DD	FLAT:??_R1A@?0A@EA@?$AlgorithmImpl@V?$SimpleKeyingInterfaceImpl@V?$TwoBases@VBlockCipher@CryptoPP@@UDES_Info@2@@CryptoPP@@V12@@CryptoPP@@V12@@CryptoPP@@8
	DD	FLAT:??_R1A@?0A@EA@?$SimpleKeyingInterfaceImpl@V?$TwoBases@VBlockCipher@CryptoPP@@UDES_Info@2@@CryptoPP@@V12@@CryptoPP@@8
	DD	FLAT:??_R1A@?0A@EA@?$TwoBases@VBlockCipher@CryptoPP@@UDES_Info@2@@CryptoPP@@8
	DD	FLAT:??_R1A@?0A@EA@BlockCipher@CryptoPP@@8
	DD	FLAT:??_R1A@?0A@EA@SimpleKeyingInterface@CryptoPP@@8
	DD	FLAT:??_R13?0A@EA@BlockTransformation@CryptoPP@@8
	DD	FLAT:??_R13?0A@EA@Algorithm@CryptoPP@@8
	DD	FLAT:??_R13?0A@EA@Clonable@CryptoPP@@8
	DD	FLAT:??_R17?0A@EA@DES_Info@CryptoPP@@8
	DD	FLAT:??_R17?0A@EA@?$FixedBlockSize@$07@CryptoPP@@8
	DD	FLAT:??_R18?0A@EA@?$FixedKeyLength@$07$03$0A@@CryptoPP@@8
	DD	FLAT:??_R1BA@?0A@EA@RawDES@CryptoPP@@8
rdata$r	ENDS
;	COMDAT ??_R3?$ClonableImpl@V?$BlockCipherFinal@$0A@VBase@DES@CryptoPP@@@CryptoPP@@VBase@DES@2@@CryptoPP@@8
rdata$r	SEGMENT
??_R3?$ClonableImpl@V?$BlockCipherFinal@$0A@VBase@DES@CryptoPP@@@CryptoPP@@VBase@DES@2@@CryptoPP@@8 DD 00H ; CryptoPP::ClonableImpl<CryptoPP::BlockCipherFinal<0,CryptoPP::DES::Base>,CryptoPP::DES::Base>::`RTTI Class Hierarchy Descriptor'
	DD	01H
	DD	0fH
	DD	FLAT:??_R2?$ClonableImpl@V?$BlockCipherFinal@$0A@VBase@DES@CryptoPP@@@CryptoPP@@VBase@DES@2@@CryptoPP@@8
rdata$r	ENDS
;	COMDAT ??_R0?AV?$ClonableImpl@V?$BlockCipherFinal@$0A@VBase@DES@CryptoPP@@@CryptoPP@@VBase@DES@2@@CryptoPP@@@8
data$r	SEGMENT
??_R0?AV?$ClonableImpl@V?$BlockCipherFinal@$0A@VBase@DES@CryptoPP@@@CryptoPP@@VBase@DES@2@@CryptoPP@@@8 DD FLAT:??_7type_info@@6B@ ; CryptoPP::ClonableImpl<CryptoPP::BlockCipherFinal<0,CryptoPP::DES::Base>,CryptoPP::DES::Base> `RTTI Type Descriptor'
	DD	00H
	DB	'.?AV?$ClonableImpl@V?$BlockCipherFinal@$0A@VBase@DES@Cry'
	DB	'ptoPP@@@CryptoPP@@VBase@DES@2@@CryptoPP@@', 00H
data$r	ENDS
;	COMDAT ??_R1A@?0A@EA@?$ClonableImpl@V?$BlockCipherFinal@$0A@VBase@DES@CryptoPP@@@CryptoPP@@VBase@DES@2@@CryptoPP@@8
rdata$r	SEGMENT
??_R1A@?0A@EA@?$ClonableImpl@V?$BlockCipherFinal@$0A@VBase@DES@CryptoPP@@@CryptoPP@@VBase@DES@2@@CryptoPP@@8 DD FLAT:??_R0?AV?$ClonableImpl@V?$BlockCipherFinal@$0A@VBase@DES@CryptoPP@@@CryptoPP@@VBase@DES@2@@CryptoPP@@@8 ; CryptoPP::ClonableImpl<CryptoPP::BlockCipherFinal<0,CryptoPP::DES::Base>,CryptoPP::DES::Base>::`RTTI Base Class Descriptor at (0,-1,0,64)'
	DD	0eH
	DD	00H
	DD	0ffffffffH
	DD	00H
	DD	040H
	DD	FLAT:??_R3?$ClonableImpl@V?$BlockCipherFinal@$0A@VBase@DES@CryptoPP@@@CryptoPP@@VBase@DES@2@@CryptoPP@@8
rdata$r	ENDS
;	COMDAT ??_R1A@?0A@EA@?$BlockCipherFinal@$0A@VBase@DES@CryptoPP@@@CryptoPP@@8
rdata$r	SEGMENT
??_R1A@?0A@EA@?$BlockCipherFinal@$0A@VBase@DES@CryptoPP@@@CryptoPP@@8 DD FLAT:??_R0?AV?$BlockCipherFinal@$0A@VBase@DES@CryptoPP@@@CryptoPP@@@8 ; CryptoPP::BlockCipherFinal<0,CryptoPP::DES::Base>::`RTTI Base Class Descriptor at (0,-1,0,64)'
	DD	0fH
	DD	00H
	DD	0ffffffffH
	DD	00H
	DD	040H
	DD	FLAT:??_R3?$BlockCipherFinal@$0A@VBase@DES@CryptoPP@@@CryptoPP@@8
rdata$r	ENDS
;	COMDAT ??_R2?$BlockCipherFinal@$0A@VBase@DES@CryptoPP@@@CryptoPP@@8
rdata$r	SEGMENT
??_R2?$BlockCipherFinal@$0A@VBase@DES@CryptoPP@@@CryptoPP@@8 DD FLAT:??_R1A@?0A@EA@?$BlockCipherFinal@$0A@VBase@DES@CryptoPP@@@CryptoPP@@8 ; CryptoPP::BlockCipherFinal<0,CryptoPP::DES::Base>::`RTTI Base Class Array'
	DD	FLAT:??_R1A@?0A@EA@?$ClonableImpl@V?$BlockCipherFinal@$0A@VBase@DES@CryptoPP@@@CryptoPP@@VBase@DES@2@@CryptoPP@@8
	DD	FLAT:??_R1A@?0A@EA@Base@DES@CryptoPP@@8
	DD	FLAT:??_R1A@?0A@EA@?$BlockCipherImpl@UDES_Info@CryptoPP@@VBlockCipher@2@@CryptoPP@@8
	DD	FLAT:??_R1A@?0A@EA@?$AlgorithmImpl@V?$SimpleKeyingInterfaceImpl@V?$TwoBases@VBlockCipher@CryptoPP@@UDES_Info@2@@CryptoPP@@V12@@CryptoPP@@V12@@CryptoPP@@8
	DD	FLAT:??_R1A@?0A@EA@?$SimpleKeyingInterfaceImpl@V?$TwoBases@VBlockCipher@CryptoPP@@UDES_Info@2@@CryptoPP@@V12@@CryptoPP@@8
	DD	FLAT:??_R1A@?0A@EA@?$TwoBases@VBlockCipher@CryptoPP@@UDES_Info@2@@CryptoPP@@8
	DD	FLAT:??_R1A@?0A@EA@BlockCipher@CryptoPP@@8
	DD	FLAT:??_R1A@?0A@EA@SimpleKeyingInterface@CryptoPP@@8
	DD	FLAT:??_R13?0A@EA@BlockTransformation@CryptoPP@@8
	DD	FLAT:??_R13?0A@EA@Algorithm@CryptoPP@@8
	DD	FLAT:??_R13?0A@EA@Clonable@CryptoPP@@8
	DD	FLAT:??_R17?0A@EA@DES_Info@CryptoPP@@8
	DD	FLAT:??_R17?0A@EA@?$FixedBlockSize@$07@CryptoPP@@8
	DD	FLAT:??_R18?0A@EA@?$FixedKeyLength@$07$03$0A@@CryptoPP@@8
	DD	FLAT:??_R1BA@?0A@EA@RawDES@CryptoPP@@8
rdata$r	ENDS
;	COMDAT ??_R3?$BlockCipherFinal@$0A@VBase@DES@CryptoPP@@@CryptoPP@@8
rdata$r	SEGMENT
??_R3?$BlockCipherFinal@$0A@VBase@DES@CryptoPP@@@CryptoPP@@8 DD 00H ; CryptoPP::BlockCipherFinal<0,CryptoPP::DES::Base>::`RTTI Class Hierarchy Descriptor'
	DD	01H
	DD	010H
	DD	FLAT:??_R2?$BlockCipherFinal@$0A@VBase@DES@CryptoPP@@@CryptoPP@@8
rdata$r	ENDS
;	COMDAT ??_R0?AV?$BlockCipherFinal@$0A@VBase@DES@CryptoPP@@@CryptoPP@@@8
data$r	SEGMENT
??_R0?AV?$BlockCipherFinal@$0A@VBase@DES@CryptoPP@@@CryptoPP@@@8 DD FLAT:??_7type_info@@6B@ ; CryptoPP::BlockCipherFinal<0,CryptoPP::DES::Base> `RTTI Type Descriptor'
	DD	00H
	DB	'.?AV?$BlockCipherFinal@$0A@VBase@DES@CryptoPP@@@CryptoPP'
	DB	'@@', 00H
data$r	ENDS
;	COMDAT ??_R4?$BlockCipherFinal@$0A@VBase@DES@CryptoPP@@@CryptoPP@@6BSimpleKeyingInterface@1@@
rdata$r	SEGMENT
??_R4?$BlockCipherFinal@$0A@VBase@DES@CryptoPP@@@CryptoPP@@6BSimpleKeyingInterface@1@@ DD 00H ; CryptoPP::BlockCipherFinal<0,CryptoPP::DES::Base>::`RTTI Complete Object Locator'
	DD	00H
	DD	00H
	DD	FLAT:??_R0?AV?$BlockCipherFinal@$0A@VBase@DES@CryptoPP@@@CryptoPP@@@8
	DD	FLAT:??_R3?$BlockCipherFinal@$0A@VBase@DES@CryptoPP@@@CryptoPP@@8
rdata$r	ENDS
;	COMDAT ??_R1A@?0A@EA@RawDES@CryptoPP@@8
rdata$r	SEGMENT
??_R1A@?0A@EA@RawDES@CryptoPP@@8 DD FLAT:??_R0?AVRawDES@CryptoPP@@@8 ; CryptoPP::RawDES::`RTTI Base Class Descriptor at (0,-1,0,64)'
	DD	00H
	DD	00H
	DD	0ffffffffH
	DD	00H
	DD	040H
	DD	FLAT:??_R3RawDES@CryptoPP@@8
rdata$r	ENDS
;	COMDAT ??_R2RawDES@CryptoPP@@8
rdata$r	SEGMENT
??_R2RawDES@CryptoPP@@8 DD FLAT:??_R1A@?0A@EA@RawDES@CryptoPP@@8 ; CryptoPP::RawDES::`RTTI Base Class Array'
rdata$r	ENDS
;	COMDAT ??_R3RawDES@CryptoPP@@8
rdata$r	SEGMENT
??_R3RawDES@CryptoPP@@8 DD 00H				; CryptoPP::RawDES::`RTTI Class Hierarchy Descriptor'
	DD	00H
	DD	01H
	DD	FLAT:??_R2RawDES@CryptoPP@@8
rdata$r	ENDS
;	COMDAT ??_R0?AVRawDES@CryptoPP@@@8
data$r	SEGMENT
??_R0?AVRawDES@CryptoPP@@@8 DD FLAT:??_7type_info@@6B@	; CryptoPP::RawDES `RTTI Type Descriptor'
	DD	00H
	DB	'.?AVRawDES@CryptoPP@@', 00H
data$r	ENDS
;	COMDAT ??_R1BA@?0A@EA@RawDES@CryptoPP@@8
rdata$r	SEGMENT
??_R1BA@?0A@EA@RawDES@CryptoPP@@8 DD FLAT:??_R0?AVRawDES@CryptoPP@@@8 ; CryptoPP::RawDES::`RTTI Base Class Descriptor at (16,-1,0,64)'
	DD	00H
	DD	010H
	DD	0ffffffffH
	DD	00H
	DD	040H
	DD	FLAT:??_R3RawDES@CryptoPP@@8
rdata$r	ENDS
;	COMDAT ??_R18?0A@EA@?$FixedKeyLength@$07$03$0A@@CryptoPP@@8
rdata$r	SEGMENT
??_R18?0A@EA@?$FixedKeyLength@$07$03$0A@@CryptoPP@@8 DD FLAT:??_R0?AV?$FixedKeyLength@$07$03$0A@@CryptoPP@@@8 ; CryptoPP::FixedKeyLength<8,4,0>::`RTTI Base Class Descriptor at (9,-1,0,64)'
	DD	00H
	DD	09H
	DD	0ffffffffH
	DD	00H
	DD	040H
	DD	FLAT:??_R3?$FixedKeyLength@$07$03$0A@@CryptoPP@@8
rdata$r	ENDS
;	COMDAT ??_R17?0A@EA@?$FixedBlockSize@$07@CryptoPP@@8
rdata$r	SEGMENT
??_R17?0A@EA@?$FixedBlockSize@$07@CryptoPP@@8 DD FLAT:??_R0?AV?$FixedBlockSize@$07@CryptoPP@@@8 ; CryptoPP::FixedBlockSize<8>::`RTTI Base Class Descriptor at (8,-1,0,64)'
	DD	00H
	DD	08H
	DD	0ffffffffH
	DD	00H
	DD	040H
	DD	FLAT:??_R3?$FixedBlockSize@$07@CryptoPP@@8
rdata$r	ENDS
;	COMDAT ??_R1A@?0A@EA@?$FixedKeyLength@$07$03$0A@@CryptoPP@@8
rdata$r	SEGMENT
??_R1A@?0A@EA@?$FixedKeyLength@$07$03$0A@@CryptoPP@@8 DD FLAT:??_R0?AV?$FixedKeyLength@$07$03$0A@@CryptoPP@@@8 ; CryptoPP::FixedKeyLength<8,4,0>::`RTTI Base Class Descriptor at (0,-1,0,64)'
	DD	00H
	DD	00H
	DD	0ffffffffH
	DD	00H
	DD	040H
	DD	FLAT:??_R3?$FixedKeyLength@$07$03$0A@@CryptoPP@@8
rdata$r	ENDS
;	COMDAT ??_R2?$FixedKeyLength@$07$03$0A@@CryptoPP@@8
rdata$r	SEGMENT
??_R2?$FixedKeyLength@$07$03$0A@@CryptoPP@@8 DD FLAT:??_R1A@?0A@EA@?$FixedKeyLength@$07$03$0A@@CryptoPP@@8 ; CryptoPP::FixedKeyLength<8,4,0>::`RTTI Base Class Array'
rdata$r	ENDS
;	COMDAT ??_R3?$FixedKeyLength@$07$03$0A@@CryptoPP@@8
rdata$r	SEGMENT
??_R3?$FixedKeyLength@$07$03$0A@@CryptoPP@@8 DD 00H	; CryptoPP::FixedKeyLength<8,4,0>::`RTTI Class Hierarchy Descriptor'
	DD	00H
	DD	01H
	DD	FLAT:??_R2?$FixedKeyLength@$07$03$0A@@CryptoPP@@8
rdata$r	ENDS
;	COMDAT ??_R0?AV?$FixedKeyLength@$07$03$0A@@CryptoPP@@@8
data$r	SEGMENT
??_R0?AV?$FixedKeyLength@$07$03$0A@@CryptoPP@@@8 DD FLAT:??_7type_info@@6B@ ; CryptoPP::FixedKeyLength<8,4,0> `RTTI Type Descriptor'
	DD	00H
	DB	'.?AV?$FixedKeyLength@$07$03$0A@@CryptoPP@@', 00H
data$r	ENDS
;	COMDAT ??_R10?0A@EA@?$FixedKeyLength@$07$03$0A@@CryptoPP@@8
rdata$r	SEGMENT
??_R10?0A@EA@?$FixedKeyLength@$07$03$0A@@CryptoPP@@8 DD FLAT:??_R0?AV?$FixedKeyLength@$07$03$0A@@CryptoPP@@@8 ; CryptoPP::FixedKeyLength<8,4,0>::`RTTI Base Class Descriptor at (1,-1,0,64)'
	DD	00H
	DD	01H
	DD	0ffffffffH
	DD	00H
	DD	040H
	DD	FLAT:??_R3?$FixedKeyLength@$07$03$0A@@CryptoPP@@8
rdata$r	ENDS
;	COMDAT ??_R2?$FixedBlockSize@$07@CryptoPP@@8
rdata$r	SEGMENT
??_R2?$FixedBlockSize@$07@CryptoPP@@8 DD FLAT:??_R1A@?0A@EA@?$FixedBlockSize@$07@CryptoPP@@8 ; CryptoPP::FixedBlockSize<8>::`RTTI Base Class Array'
rdata$r	ENDS
;	COMDAT ??_R3?$FixedBlockSize@$07@CryptoPP@@8
rdata$r	SEGMENT
??_R3?$FixedBlockSize@$07@CryptoPP@@8 DD 00H		; CryptoPP::FixedBlockSize<8>::`RTTI Class Hierarchy Descriptor'
	DD	00H
	DD	01H
	DD	FLAT:??_R2?$FixedBlockSize@$07@CryptoPP@@8
rdata$r	ENDS
;	COMDAT ??_R0?AV?$FixedBlockSize@$07@CryptoPP@@@8
data$r	SEGMENT
??_R0?AV?$FixedBlockSize@$07@CryptoPP@@@8 DD FLAT:??_7type_info@@6B@ ; CryptoPP::FixedBlockSize<8> `RTTI Type Descriptor'
	DD	00H
	DB	'.?AV?$FixedBlockSize@$07@CryptoPP@@', 00H
data$r	ENDS
;	COMDAT ??_R1A@?0A@EA@?$FixedBlockSize@$07@CryptoPP@@8
rdata$r	SEGMENT
??_R1A@?0A@EA@?$FixedBlockSize@$07@CryptoPP@@8 DD FLAT:??_R0?AV?$FixedBlockSize@$07@CryptoPP@@@8 ; CryptoPP::FixedBlockSize<8>::`RTTI Base Class Descriptor at (0,-1,0,64)'
	DD	00H
	DD	00H
	DD	0ffffffffH
	DD	00H
	DD	040H
	DD	FLAT:??_R3?$FixedBlockSize@$07@CryptoPP@@8
rdata$r	ENDS
;	COMDAT ??_R1A@?0A@EA@DES_Info@CryptoPP@@8
rdata$r	SEGMENT
??_R1A@?0A@EA@DES_Info@CryptoPP@@8 DD FLAT:??_R0?AUDES_Info@CryptoPP@@@8 ; CryptoPP::DES_Info::`RTTI Base Class Descriptor at (0,-1,0,64)'
	DD	02H
	DD	00H
	DD	0ffffffffH
	DD	00H
	DD	040H
	DD	FLAT:??_R3DES_Info@CryptoPP@@8
rdata$r	ENDS
;	COMDAT ??_R2DES_Info@CryptoPP@@8
rdata$r	SEGMENT
??_R2DES_Info@CryptoPP@@8 DD FLAT:??_R1A@?0A@EA@DES_Info@CryptoPP@@8 ; CryptoPP::DES_Info::`RTTI Base Class Array'
	DD	FLAT:??_R1A@?0A@EA@?$FixedBlockSize@$07@CryptoPP@@8
	DD	FLAT:??_R10?0A@EA@?$FixedKeyLength@$07$03$0A@@CryptoPP@@8
rdata$r	ENDS
;	COMDAT ??_R3DES_Info@CryptoPP@@8
rdata$r	SEGMENT
??_R3DES_Info@CryptoPP@@8 DD 00H			; CryptoPP::DES_Info::`RTTI Class Hierarchy Descriptor'
	DD	01H
	DD	03H
	DD	FLAT:??_R2DES_Info@CryptoPP@@8
rdata$r	ENDS
;	COMDAT ??_R0?AUDES_Info@CryptoPP@@@8
data$r	SEGMENT
??_R0?AUDES_Info@CryptoPP@@@8 DD FLAT:??_7type_info@@6B@ ; CryptoPP::DES_Info `RTTI Type Descriptor'
	DD	00H
	DB	'.?AUDES_Info@CryptoPP@@', 00H
data$r	ENDS
;	COMDAT ??_R17?0A@EA@DES_Info@CryptoPP@@8
rdata$r	SEGMENT
??_R17?0A@EA@DES_Info@CryptoPP@@8 DD FLAT:??_R0?AUDES_Info@CryptoPP@@@8 ; CryptoPP::DES_Info::`RTTI Base Class Descriptor at (8,-1,0,64)'
	DD	02H
	DD	08H
	DD	0ffffffffH
	DD	00H
	DD	040H
	DD	FLAT:??_R3DES_Info@CryptoPP@@8
rdata$r	ENDS
;	COMDAT ??_R2?$TwoBases@VBlockCipher@CryptoPP@@UDES_Info@2@@CryptoPP@@8
rdata$r	SEGMENT
??_R2?$TwoBases@VBlockCipher@CryptoPP@@UDES_Info@2@@CryptoPP@@8 DD FLAT:??_R1A@?0A@EA@?$TwoBases@VBlockCipher@CryptoPP@@UDES_Info@2@@CryptoPP@@8 ; CryptoPP::TwoBases<CryptoPP::BlockCipher,CryptoPP::DES_Info>::`RTTI Base Class Array'
	DD	FLAT:??_R1A@?0A@EA@BlockCipher@CryptoPP@@8
	DD	FLAT:??_R1A@?0A@EA@SimpleKeyingInterface@CryptoPP@@8
	DD	FLAT:??_R13?0A@EA@BlockTransformation@CryptoPP@@8
	DD	FLAT:??_R13?0A@EA@Algorithm@CryptoPP@@8
	DD	FLAT:??_R13?0A@EA@Clonable@CryptoPP@@8
	DD	FLAT:??_R17?0A@EA@DES_Info@CryptoPP@@8
	DD	FLAT:??_R17?0A@EA@?$FixedBlockSize@$07@CryptoPP@@8
	DD	FLAT:??_R18?0A@EA@?$FixedKeyLength@$07$03$0A@@CryptoPP@@8
rdata$r	ENDS
;	COMDAT ??_R3?$TwoBases@VBlockCipher@CryptoPP@@UDES_Info@2@@CryptoPP@@8
rdata$r	SEGMENT
??_R3?$TwoBases@VBlockCipher@CryptoPP@@UDES_Info@2@@CryptoPP@@8 DD 00H ; CryptoPP::TwoBases<CryptoPP::BlockCipher,CryptoPP::DES_Info>::`RTTI Class Hierarchy Descriptor'
	DD	01H
	DD	09H
	DD	FLAT:??_R2?$TwoBases@VBlockCipher@CryptoPP@@UDES_Info@2@@CryptoPP@@8
rdata$r	ENDS
;	COMDAT ??_R0?AV?$TwoBases@VBlockCipher@CryptoPP@@UDES_Info@2@@CryptoPP@@@8
data$r	SEGMENT
??_R0?AV?$TwoBases@VBlockCipher@CryptoPP@@UDES_Info@2@@CryptoPP@@@8 DD FLAT:??_7type_info@@6B@ ; CryptoPP::TwoBases<CryptoPP::BlockCipher,CryptoPP::DES_Info> `RTTI Type Descriptor'
	DD	00H
	DB	'.?AV?$TwoBases@VBlockCipher@CryptoPP@@UDES_Info@2@@Crypt'
	DB	'oPP@@', 00H
data$r	ENDS
;	COMDAT ??_R1A@?0A@EA@?$TwoBases@VBlockCipher@CryptoPP@@UDES_Info@2@@CryptoPP@@8
rdata$r	SEGMENT
??_R1A@?0A@EA@?$TwoBases@VBlockCipher@CryptoPP@@UDES_Info@2@@CryptoPP@@8 DD FLAT:??_R0?AV?$TwoBases@VBlockCipher@CryptoPP@@UDES_Info@2@@CryptoPP@@@8 ; CryptoPP::TwoBases<CryptoPP::BlockCipher,CryptoPP::DES_Info>::`RTTI Base Class Descriptor at (0,-1,0,64)'
	DD	08H
	DD	00H
	DD	0ffffffffH
	DD	00H
	DD	040H
	DD	FLAT:??_R3?$TwoBases@VBlockCipher@CryptoPP@@UDES_Info@2@@CryptoPP@@8
rdata$r	ENDS
;	COMDAT ??_R2?$SimpleKeyingInterfaceImpl@V?$TwoBases@VBlockCipher@CryptoPP@@UDES_Info@2@@CryptoPP@@V12@@CryptoPP@@8
rdata$r	SEGMENT
??_R2?$SimpleKeyingInterfaceImpl@V?$TwoBases@VBlockCipher@CryptoPP@@UDES_Info@2@@CryptoPP@@V12@@CryptoPP@@8 DD FLAT:??_R1A@?0A@EA@?$SimpleKeyingInterfaceImpl@V?$TwoBases@VBlockCipher@CryptoPP@@UDES_Info@2@@CryptoPP@@V12@@CryptoPP@@8 ; CryptoPP::SimpleKeyingInterfaceImpl<CryptoPP::TwoBases<CryptoPP::BlockCipher,CryptoPP::DES_Info>,CryptoPP::TwoBases<CryptoPP::BlockCipher,CryptoPP::DES_Info> >::`RTTI Base Class Array'
	DD	FLAT:??_R1A@?0A@EA@?$TwoBases@VBlockCipher@CryptoPP@@UDES_Info@2@@CryptoPP@@8
	DD	FLAT:??_R1A@?0A@EA@BlockCipher@CryptoPP@@8
	DD	FLAT:??_R1A@?0A@EA@SimpleKeyingInterface@CryptoPP@@8
	DD	FLAT:??_R13?0A@EA@BlockTransformation@CryptoPP@@8
	DD	FLAT:??_R13?0A@EA@Algorithm@CryptoPP@@8
	DD	FLAT:??_R13?0A@EA@Clonable@CryptoPP@@8
	DD	FLAT:??_R17?0A@EA@DES_Info@CryptoPP@@8
	DD	FLAT:??_R17?0A@EA@?$FixedBlockSize@$07@CryptoPP@@8
	DD	FLAT:??_R18?0A@EA@?$FixedKeyLength@$07$03$0A@@CryptoPP@@8
rdata$r	ENDS
;	COMDAT ??_R3?$SimpleKeyingInterfaceImpl@V?$TwoBases@VBlockCipher@CryptoPP@@UDES_Info@2@@CryptoPP@@V12@@CryptoPP@@8
rdata$r	SEGMENT
??_R3?$SimpleKeyingInterfaceImpl@V?$TwoBases@VBlockCipher@CryptoPP@@UDES_Info@2@@CryptoPP@@V12@@CryptoPP@@8 DD 00H ; CryptoPP::SimpleKeyingInterfaceImpl<CryptoPP::TwoBases<CryptoPP::BlockCipher,CryptoPP::DES_Info>,CryptoPP::TwoBases<CryptoPP::BlockCipher,CryptoPP::DES_Info> >::`RTTI Class Hierarchy Descriptor'
	DD	01H
	DD	0aH
	DD	FLAT:??_R2?$SimpleKeyingInterfaceImpl@V?$TwoBases@VBlockCipher@CryptoPP@@UDES_Info@2@@CryptoPP@@V12@@CryptoPP@@8
rdata$r	ENDS
;	COMDAT ??_R0?AV?$SimpleKeyingInterfaceImpl@V?$TwoBases@VBlockCipher@CryptoPP@@UDES_Info@2@@CryptoPP@@V12@@CryptoPP@@@8
data$r	SEGMENT
??_R0?AV?$SimpleKeyingInterfaceImpl@V?$TwoBases@VBlockCipher@CryptoPP@@UDES_Info@2@@CryptoPP@@V12@@CryptoPP@@@8 DD FLAT:??_7type_info@@6B@ ; CryptoPP::SimpleKeyingInterfaceImpl<CryptoPP::TwoBases<CryptoPP::BlockCipher,CryptoPP::DES_Info>,CryptoPP::TwoBases<CryptoPP::BlockCipher,CryptoPP::DES_Info> > `RTTI Type Descriptor'
	DD	00H
	DB	'.?AV?$SimpleKeyingInterfaceImpl@V?$TwoBases@VBlockCipher'
	DB	'@CryptoPP@@UDES_Info@2@@CryptoPP@@V12@@CryptoPP@@', 00H
data$r	ENDS
;	COMDAT ??_R1A@?0A@EA@?$SimpleKeyingInterfaceImpl@V?$TwoBases@VBlockCipher@CryptoPP@@UDES_Info@2@@CryptoPP@@V12@@CryptoPP@@8
rdata$r	SEGMENT
??_R1A@?0A@EA@?$SimpleKeyingInterfaceImpl@V?$TwoBases@VBlockCipher@CryptoPP@@UDES_Info@2@@CryptoPP@@V12@@CryptoPP@@8 DD FLAT:??_R0?AV?$SimpleKeyingInterfaceImpl@V?$TwoBases@VBlockCipher@CryptoPP@@UDES_Info@2@@CryptoPP@@V12@@CryptoPP@@@8 ; CryptoPP::SimpleKeyingInterfaceImpl<CryptoPP::TwoBases<CryptoPP::BlockCipher,CryptoPP::DES_Info>,CryptoPP::TwoBases<CryptoPP::BlockCipher,CryptoPP::DES_Info> >::`RTTI Base Class Descriptor at (0,-1,0,64)'
	DD	09H
	DD	00H
	DD	0ffffffffH
	DD	00H
	DD	040H
	DD	FLAT:??_R3?$SimpleKeyingInterfaceImpl@V?$TwoBases@VBlockCipher@CryptoPP@@UDES_Info@2@@CryptoPP@@V12@@CryptoPP@@8
rdata$r	ENDS
;	COMDAT ??_R2?$AlgorithmImpl@V?$SimpleKeyingInterfaceImpl@V?$TwoBases@VBlockCipher@CryptoPP@@UDES_Info@2@@CryptoPP@@V12@@CryptoPP@@V12@@CryptoPP@@8
rdata$r	SEGMENT
??_R2?$AlgorithmImpl@V?$SimpleKeyingInterfaceImpl@V?$TwoBases@VBlockCipher@CryptoPP@@UDES_Info@2@@CryptoPP@@V12@@CryptoPP@@V12@@CryptoPP@@8 DD FLAT:??_R1A@?0A@EA@?$AlgorithmImpl@V?$SimpleKeyingInterfaceImpl@V?$TwoBases@VBlockCipher@CryptoPP@@UDES_Info@2@@CryptoPP@@V12@@CryptoPP@@V12@@CryptoPP@@8 ; CryptoPP::AlgorithmImpl<CryptoPP::SimpleKeyingInterfaceImpl<CryptoPP::TwoBases<CryptoPP::BlockCipher,CryptoPP::DES_Info>,CryptoPP::TwoBases<CryptoPP::BlockCipher,CryptoPP::DES_Info> >,CryptoPP::SimpleKeyingInterfaceImpl<CryptoPP::TwoBases<CryptoPP::BlockCipher,CryptoPP::DES_Info>,CryptoPP::TwoBases<CryptoPP::BlockCipher,CryptoPP::DES_Info> > >::`RTTI Base Class Array'
	DD	FLAT:??_R1A@?0A@EA@?$SimpleKeyingInterfaceImpl@V?$TwoBases@VBlockCipher@CryptoPP@@UDES_Info@2@@CryptoPP@@V12@@CryptoPP@@8
	DD	FLAT:??_R1A@?0A@EA@?$TwoBases@VBlockCipher@CryptoPP@@UDES_Info@2@@CryptoPP@@8
	DD	FLAT:??_R1A@?0A@EA@BlockCipher@CryptoPP@@8
	DD	FLAT:??_R1A@?0A@EA@SimpleKeyingInterface@CryptoPP@@8
	DD	FLAT:??_R13?0A@EA@BlockTransformation@CryptoPP@@8
	DD	FLAT:??_R13?0A@EA@Algorithm@CryptoPP@@8
	DD	FLAT:??_R13?0A@EA@Clonable@CryptoPP@@8
	DD	FLAT:??_R17?0A@EA@DES_Info@CryptoPP@@8
	DD	FLAT:??_R17?0A@EA@?$FixedBlockSize@$07@CryptoPP@@8
	DD	FLAT:??_R18?0A@EA@?$FixedKeyLength@$07$03$0A@@CryptoPP@@8
rdata$r	ENDS
;	COMDAT ??_R3?$AlgorithmImpl@V?$SimpleKeyingInterfaceImpl@V?$TwoBases@VBlockCipher@CryptoPP@@UDES_Info@2@@CryptoPP@@V12@@CryptoPP@@V12@@CryptoPP@@8
rdata$r	SEGMENT
??_R3?$AlgorithmImpl@V?$SimpleKeyingInterfaceImpl@V?$TwoBases@VBlockCipher@CryptoPP@@UDES_Info@2@@CryptoPP@@V12@@CryptoPP@@V12@@CryptoPP@@8 DD 00H ; CryptoPP::AlgorithmImpl<CryptoPP::SimpleKeyingInterfaceImpl<CryptoPP::TwoBases<CryptoPP::BlockCipher,CryptoPP::DES_Info>,CryptoPP::TwoBases<CryptoPP::BlockCipher,CryptoPP::DES_Info> >,CryptoPP::SimpleKeyingInterfaceImpl<CryptoPP::TwoBases<CryptoPP::BlockCipher,CryptoPP::DES_Info>,CryptoPP::TwoBases<CryptoPP::BlockCipher,CryptoPP::DES_Info> > >::`RTTI Class Hierarchy Descriptor'
	DD	01H
	DD	0bH
	DD	FLAT:??_R2?$AlgorithmImpl@V?$SimpleKeyingInterfaceImpl@V?$TwoBases@VBlockCipher@CryptoPP@@UDES_Info@2@@CryptoPP@@V12@@CryptoPP@@V12@@CryptoPP@@8
rdata$r	ENDS
;	COMDAT ??_R0?AV?$AlgorithmImpl@V?$SimpleKeyingInterfaceImpl@V?$TwoBases@VBlockCipher@CryptoPP@@UDES_Info@2@@CryptoPP@@V12@@CryptoPP@@V12@@CryptoPP@@@8
data$r	SEGMENT
??_R0?AV?$AlgorithmImpl@V?$SimpleKeyingInterfaceImpl@V?$TwoBases@VBlockCipher@CryptoPP@@UDES_Info@2@@CryptoPP@@V12@@CryptoPP@@V12@@CryptoPP@@@8 DD FLAT:??_7type_info@@6B@ ; CryptoPP::AlgorithmImpl<CryptoPP::SimpleKeyingInterfaceImpl<CryptoPP::TwoBases<CryptoPP::BlockCipher,CryptoPP::DES_Info>,CryptoPP::TwoBases<CryptoPP::BlockCipher,CryptoPP::DES_Info> >,CryptoPP::SimpleKeyingInterfaceImpl<CryptoPP::TwoBases<CryptoPP::BlockCipher,CryptoPP::DES_Info>,CryptoPP::TwoBases<CryptoPP::BlockCipher,CryptoPP::DES_Info> > > `RTTI Type Descriptor'
	DD	00H
	DB	'.?AV?$AlgorithmImpl@V?$SimpleKeyingInterfaceImpl@V?$TwoB'
	DB	'ases@VBlockCipher@CryptoPP@@UDES_Info@2@@CryptoPP@@V12@@Crypt'
	DB	'oPP@@V12@@CryptoPP@@', 00H
data$r	ENDS
;	COMDAT ??_R1A@?0A@EA@?$AlgorithmImpl@V?$SimpleKeyingInterfaceImpl@V?$TwoBases@VBlockCipher@CryptoPP@@UDES_Info@2@@CryptoPP@@V12@@CryptoPP@@V12@@CryptoPP@@8
rdata$r	SEGMENT
??_R1A@?0A@EA@?$AlgorithmImpl@V?$SimpleKeyingInterfaceImpl@V?$TwoBases@VBlockCipher@CryptoPP@@UDES_Info@2@@CryptoPP@@V12@@CryptoPP@@V12@@CryptoPP@@8 DD FLAT:??_R0?AV?$AlgorithmImpl@V?$SimpleKeyingInterfaceImpl@V?$TwoBases@VBlockCipher@CryptoPP@@UDES_Info@2@@CryptoPP@@V12@@CryptoPP@@V12@@CryptoPP@@@8 ; CryptoPP::AlgorithmImpl<CryptoPP::SimpleKeyingInterfaceImpl<CryptoPP::TwoBases<CryptoPP::BlockCipher,CryptoPP::DES_Info>,CryptoPP::TwoBases<CryptoPP::BlockCipher,CryptoPP::DES_Info> >,CryptoPP::SimpleKeyingInterfaceImpl<CryptoPP::TwoBases<CryptoPP::BlockCipher,CryptoPP::DES_Info>,CryptoPP::TwoBases<CryptoPP::BlockCipher,CryptoPP::DES_Info> > >::`RTTI Base Class Descriptor at (0,-1,0,64)'
	DD	0aH
	DD	00H
	DD	0ffffffffH
	DD	00H
	DD	040H
	DD	FLAT:??_R3?$AlgorithmImpl@V?$SimpleKeyingInterfaceImpl@V?$TwoBases@VBlockCipher@CryptoPP@@UDES_Info@2@@CryptoPP@@V12@@CryptoPP@@V12@@CryptoPP@@8
rdata$r	ENDS
;	COMDAT ??_R2?$BlockCipherImpl@UDES_Info@CryptoPP@@VBlockCipher@2@@CryptoPP@@8
rdata$r	SEGMENT
??_R2?$BlockCipherImpl@UDES_Info@CryptoPP@@VBlockCipher@2@@CryptoPP@@8 DD FLAT:??_R1A@?0A@EA@?$BlockCipherImpl@UDES_Info@CryptoPP@@VBlockCipher@2@@CryptoPP@@8 ; CryptoPP::BlockCipherImpl<CryptoPP::DES_Info,CryptoPP::BlockCipher>::`RTTI Base Class Array'
	DD	FLAT:??_R1A@?0A@EA@?$AlgorithmImpl@V?$SimpleKeyingInterfaceImpl@V?$TwoBases@VBlockCipher@CryptoPP@@UDES_Info@2@@CryptoPP@@V12@@CryptoPP@@V12@@CryptoPP@@8
	DD	FLAT:??_R1A@?0A@EA@?$SimpleKeyingInterfaceImpl@V?$TwoBases@VBlockCipher@CryptoPP@@UDES_Info@2@@CryptoPP@@V12@@CryptoPP@@8
	DD	FLAT:??_R1A@?0A@EA@?$TwoBases@VBlockCipher@CryptoPP@@UDES_Info@2@@CryptoPP@@8
	DD	FLAT:??_R1A@?0A@EA@BlockCipher@CryptoPP@@8
	DD	FLAT:??_R1A@?0A@EA@SimpleKeyingInterface@CryptoPP@@8
	DD	FLAT:??_R13?0A@EA@BlockTransformation@CryptoPP@@8
	DD	FLAT:??_R13?0A@EA@Algorithm@CryptoPP@@8
	DD	FLAT:??_R13?0A@EA@Clonable@CryptoPP@@8
	DD	FLAT:??_R17?0A@EA@DES_Info@CryptoPP@@8
	DD	FLAT:??_R17?0A@EA@?$FixedBlockSize@$07@CryptoPP@@8
	DD	FLAT:??_R18?0A@EA@?$FixedKeyLength@$07$03$0A@@CryptoPP@@8
rdata$r	ENDS
;	COMDAT ??_R3?$BlockCipherImpl@UDES_Info@CryptoPP@@VBlockCipher@2@@CryptoPP@@8
rdata$r	SEGMENT
??_R3?$BlockCipherImpl@UDES_Info@CryptoPP@@VBlockCipher@2@@CryptoPP@@8 DD 00H ; CryptoPP::BlockCipherImpl<CryptoPP::DES_Info,CryptoPP::BlockCipher>::`RTTI Class Hierarchy Descriptor'
	DD	01H
	DD	0cH
	DD	FLAT:??_R2?$BlockCipherImpl@UDES_Info@CryptoPP@@VBlockCipher@2@@CryptoPP@@8
rdata$r	ENDS
;	COMDAT ??_R0?AV?$BlockCipherImpl@UDES_Info@CryptoPP@@VBlockCipher@2@@CryptoPP@@@8
data$r	SEGMENT
??_R0?AV?$BlockCipherImpl@UDES_Info@CryptoPP@@VBlockCipher@2@@CryptoPP@@@8 DD FLAT:??_7type_info@@6B@ ; CryptoPP::BlockCipherImpl<CryptoPP::DES_Info,CryptoPP::BlockCipher> `RTTI Type Descriptor'
	DD	00H
	DB	'.?AV?$BlockCipherImpl@UDES_Info@CryptoPP@@VBlockCipher@2'
	DB	'@@CryptoPP@@', 00H
data$r	ENDS
;	COMDAT ??_R1A@?0A@EA@?$BlockCipherImpl@UDES_Info@CryptoPP@@VBlockCipher@2@@CryptoPP@@8
rdata$r	SEGMENT
??_R1A@?0A@EA@?$BlockCipherImpl@UDES_Info@CryptoPP@@VBlockCipher@2@@CryptoPP@@8 DD FLAT:??_R0?AV?$BlockCipherImpl@UDES_Info@CryptoPP@@VBlockCipher@2@@CryptoPP@@@8 ; CryptoPP::BlockCipherImpl<CryptoPP::DES_Info,CryptoPP::BlockCipher>::`RTTI Base Class Descriptor at (0,-1,0,64)'
	DD	0bH
	DD	00H
	DD	0ffffffffH
	DD	00H
	DD	040H
	DD	FLAT:??_R3?$BlockCipherImpl@UDES_Info@CryptoPP@@VBlockCipher@2@@CryptoPP@@8
rdata$r	ENDS
;	COMDAT ??_R1A@?0A@EA@Base@DES@CryptoPP@@8
rdata$r	SEGMENT
??_R1A@?0A@EA@Base@DES@CryptoPP@@8 DD FLAT:??_R0?AVBase@DES@CryptoPP@@@8 ; CryptoPP::DES::Base::`RTTI Base Class Descriptor at (0,-1,0,64)'
	DD	0dH
	DD	00H
	DD	0ffffffffH
	DD	00H
	DD	040H
	DD	FLAT:??_R3Base@DES@CryptoPP@@8
rdata$r	ENDS
;	COMDAT ??_R2Base@DES@CryptoPP@@8
rdata$r	SEGMENT
??_R2Base@DES@CryptoPP@@8 DD FLAT:??_R1A@?0A@EA@Base@DES@CryptoPP@@8 ; CryptoPP::DES::Base::`RTTI Base Class Array'
	DD	FLAT:??_R1A@?0A@EA@?$BlockCipherImpl@UDES_Info@CryptoPP@@VBlockCipher@2@@CryptoPP@@8
	DD	FLAT:??_R1A@?0A@EA@?$AlgorithmImpl@V?$SimpleKeyingInterfaceImpl@V?$TwoBases@VBlockCipher@CryptoPP@@UDES_Info@2@@CryptoPP@@V12@@CryptoPP@@V12@@CryptoPP@@8
	DD	FLAT:??_R1A@?0A@EA@?$SimpleKeyingInterfaceImpl@V?$TwoBases@VBlockCipher@CryptoPP@@UDES_Info@2@@CryptoPP@@V12@@CryptoPP@@8
	DD	FLAT:??_R1A@?0A@EA@?$TwoBases@VBlockCipher@CryptoPP@@UDES_Info@2@@CryptoPP@@8
	DD	FLAT:??_R1A@?0A@EA@BlockCipher@CryptoPP@@8
	DD	FLAT:??_R1A@?0A@EA@SimpleKeyingInterface@CryptoPP@@8
	DD	FLAT:??_R13?0A@EA@BlockTransformation@CryptoPP@@8
	DD	FLAT:??_R13?0A@EA@Algorithm@CryptoPP@@8
	DD	FLAT:??_R13?0A@EA@Clonable@CryptoPP@@8
	DD	FLAT:??_R17?0A@EA@DES_Info@CryptoPP@@8
	DD	FLAT:??_R17?0A@EA@?$FixedBlockSize@$07@CryptoPP@@8
	DD	FLAT:??_R18?0A@EA@?$FixedKeyLength@$07$03$0A@@CryptoPP@@8
	DD	FLAT:??_R1BA@?0A@EA@RawDES@CryptoPP@@8
rdata$r	ENDS
;	COMDAT ??_R3Base@DES@CryptoPP@@8
rdata$r	SEGMENT
??_R3Base@DES@CryptoPP@@8 DD 00H			; CryptoPP::DES::Base::`RTTI Class Hierarchy Descriptor'
	DD	01H
	DD	0eH
	DD	FLAT:??_R2Base@DES@CryptoPP@@8
rdata$r	ENDS
;	COMDAT ??_R0?AVBase@DES@CryptoPP@@@8
data$r	SEGMENT
??_R0?AVBase@DES@CryptoPP@@@8 DD FLAT:??_7type_info@@6B@ ; CryptoPP::DES::Base `RTTI Type Descriptor'
	DD	00H
	DB	'.?AVBase@DES@CryptoPP@@', 00H
data$r	ENDS
;	COMDAT ??_R1A@?0A@EA@ECB_OneWay@CryptoPP@@8
rdata$r	SEGMENT
??_R1A@?0A@EA@ECB_OneWay@CryptoPP@@8 DD FLAT:??_R0?AVECB_OneWay@CryptoPP@@@8 ; CryptoPP::ECB_OneWay::`RTTI Base Class Descriptor at (0,-1,0,64)'
	DD	07H
	DD	00H
	DD	0ffffffffH
	DD	00H
	DD	040H
	DD	FLAT:??_R3ECB_OneWay@CryptoPP@@8
rdata$r	ENDS
;	COMDAT ??_R2ECB_OneWay@CryptoPP@@8
rdata$r	SEGMENT
??_R2ECB_OneWay@CryptoPP@@8 DD FLAT:??_R1A@?0A@EA@ECB_OneWay@CryptoPP@@8 ; CryptoPP::ECB_OneWay::`RTTI Base Class Array'
	DD	FLAT:??_R1A@?0A@EA@BlockOrientedCipherModeBase@CryptoPP@@8
	DD	FLAT:??_R1A@?0A@EA@CipherModeBase@CryptoPP@@8
	DD	FLAT:??_R1A@?0A@EA@SymmetricCipher@CryptoPP@@8
	DD	FLAT:??_R1A@?0A@EA@SimpleKeyingInterface@CryptoPP@@8
	DD	FLAT:??_R13?0A@EA@StreamTransformation@CryptoPP@@8
	DD	FLAT:??_R13?0A@EA@Algorithm@CryptoPP@@8
	DD	FLAT:??_R13?0A@EA@Clonable@CryptoPP@@8
rdata$r	ENDS
;	COMDAT ??_R3ECB_OneWay@CryptoPP@@8
rdata$r	SEGMENT
??_R3ECB_OneWay@CryptoPP@@8 DD 00H			; CryptoPP::ECB_OneWay::`RTTI Class Hierarchy Descriptor'
	DD	01H
	DD	08H
	DD	FLAT:??_R2ECB_OneWay@CryptoPP@@8
rdata$r	ENDS
;	COMDAT ??_R0?AVECB_OneWay@CryptoPP@@@8
data$r	SEGMENT
??_R0?AVECB_OneWay@CryptoPP@@@8 DD FLAT:??_7type_info@@6B@ ; CryptoPP::ECB_OneWay `RTTI Type Descriptor'
	DD	00H
	DB	'.?AVECB_OneWay@CryptoPP@@', 00H
data$r	ENDS
;	COMDAT ??_R1A@?0A@EA@BlockOrientedCipherModeBase@CryptoPP@@8
rdata$r	SEGMENT
??_R1A@?0A@EA@BlockOrientedCipherModeBase@CryptoPP@@8 DD FLAT:??_R0?AVBlockOrientedCipherModeBase@CryptoPP@@@8 ; CryptoPP::BlockOrientedCipherModeBase::`RTTI Base Class Descriptor at (0,-1,0,64)'
	DD	06H
	DD	00H
	DD	0ffffffffH
	DD	00H
	DD	040H
	DD	FLAT:??_R3BlockOrientedCipherModeBase@CryptoPP@@8
rdata$r	ENDS
;	COMDAT ??_R2BlockOrientedCipherModeBase@CryptoPP@@8
rdata$r	SEGMENT
??_R2BlockOrientedCipherModeBase@CryptoPP@@8 DD FLAT:??_R1A@?0A@EA@BlockOrientedCipherModeBase@CryptoPP@@8 ; CryptoPP::BlockOrientedCipherModeBase::`RTTI Base Class Array'
	DD	FLAT:??_R1A@?0A@EA@CipherModeBase@CryptoPP@@8
	DD	FLAT:??_R1A@?0A@EA@SymmetricCipher@CryptoPP@@8
	DD	FLAT:??_R1A@?0A@EA@SimpleKeyingInterface@CryptoPP@@8
	DD	FLAT:??_R13?0A@EA@StreamTransformation@CryptoPP@@8
	DD	FLAT:??_R13?0A@EA@Algorithm@CryptoPP@@8
	DD	FLAT:??_R13?0A@EA@Clonable@CryptoPP@@8
rdata$r	ENDS
;	COMDAT ??_R3BlockOrientedCipherModeBase@CryptoPP@@8
rdata$r	SEGMENT
??_R3BlockOrientedCipherModeBase@CryptoPP@@8 DD 00H	; CryptoPP::BlockOrientedCipherModeBase::`RTTI Class Hierarchy Descriptor'
	DD	01H
	DD	07H
	DD	FLAT:??_R2BlockOrientedCipherModeBase@CryptoPP@@8
rdata$r	ENDS
;	COMDAT ??_R0?AVBlockOrientedCipherModeBase@CryptoPP@@@8
data$r	SEGMENT
??_R0?AVBlockOrientedCipherModeBase@CryptoPP@@@8 DD FLAT:??_7type_info@@6B@ ; CryptoPP::BlockOrientedCipherModeBase `RTTI Type Descriptor'
	DD	00H
	DB	'.?AVBlockOrientedCipherModeBase@CryptoPP@@', 00H
data$r	ENDS
;	COMDAT ??_R1A@?0A@EA@CipherModeBase@CryptoPP@@8
rdata$r	SEGMENT
??_R1A@?0A@EA@CipherModeBase@CryptoPP@@8 DD FLAT:??_R0?AVCipherModeBase@CryptoPP@@@8 ; CryptoPP::CipherModeBase::`RTTI Base Class Descriptor at (0,-1,0,64)'
	DD	05H
	DD	00H
	DD	0ffffffffH
	DD	00H
	DD	040H
	DD	FLAT:??_R3CipherModeBase@CryptoPP@@8
rdata$r	ENDS
;	COMDAT ??_R2CipherModeBase@CryptoPP@@8
rdata$r	SEGMENT
??_R2CipherModeBase@CryptoPP@@8 DD FLAT:??_R1A@?0A@EA@CipherModeBase@CryptoPP@@8 ; CryptoPP::CipherModeBase::`RTTI Base Class Array'
	DD	FLAT:??_R1A@?0A@EA@SymmetricCipher@CryptoPP@@8
	DD	FLAT:??_R1A@?0A@EA@SimpleKeyingInterface@CryptoPP@@8
	DD	FLAT:??_R13?0A@EA@StreamTransformation@CryptoPP@@8
	DD	FLAT:??_R13?0A@EA@Algorithm@CryptoPP@@8
	DD	FLAT:??_R13?0A@EA@Clonable@CryptoPP@@8
rdata$r	ENDS
;	COMDAT ??_R3CipherModeBase@CryptoPP@@8
rdata$r	SEGMENT
??_R3CipherModeBase@CryptoPP@@8 DD 00H			; CryptoPP::CipherModeBase::`RTTI Class Hierarchy Descriptor'
	DD	01H
	DD	06H
	DD	FLAT:??_R2CipherModeBase@CryptoPP@@8
rdata$r	ENDS
;	COMDAT ??_R0?AVCipherModeBase@CryptoPP@@@8
data$r	SEGMENT
??_R0?AVCipherModeBase@CryptoPP@@@8 DD FLAT:??_7type_info@@6B@ ; CryptoPP::CipherModeBase `RTTI Type Descriptor'
	DD	00H
	DB	'.?AVCipherModeBase@CryptoPP@@', 00H
data$r	ENDS
;	COMDAT ??_R13?0A@EA@StreamTransformation@CryptoPP@@8
rdata$r	SEGMENT
??_R13?0A@EA@StreamTransformation@CryptoPP@@8 DD FLAT:??_R0?AVStreamTransformation@CryptoPP@@@8 ; CryptoPP::StreamTransformation::`RTTI Base Class Descriptor at (4,-1,0,64)'
	DD	02H
	DD	04H
	DD	0ffffffffH
	DD	00H
	DD	040H
	DD	FLAT:??_R3StreamTransformation@CryptoPP@@8
rdata$r	ENDS
;	COMDAT ??_R1A@?0A@EA@SymmetricCipher@CryptoPP@@8
rdata$r	SEGMENT
??_R1A@?0A@EA@SymmetricCipher@CryptoPP@@8 DD FLAT:??_R0?AVSymmetricCipher@CryptoPP@@@8 ; CryptoPP::SymmetricCipher::`RTTI Base Class Descriptor at (0,-1,0,64)'
	DD	04H
	DD	00H
	DD	0ffffffffH
	DD	00H
	DD	040H
	DD	FLAT:??_R3SymmetricCipher@CryptoPP@@8
rdata$r	ENDS
;	COMDAT ??_R2SymmetricCipher@CryptoPP@@8
rdata$r	SEGMENT
??_R2SymmetricCipher@CryptoPP@@8 DD FLAT:??_R1A@?0A@EA@SymmetricCipher@CryptoPP@@8 ; CryptoPP::SymmetricCipher::`RTTI Base Class Array'
	DD	FLAT:??_R1A@?0A@EA@SimpleKeyingInterface@CryptoPP@@8
	DD	FLAT:??_R13?0A@EA@StreamTransformation@CryptoPP@@8
	DD	FLAT:??_R13?0A@EA@Algorithm@CryptoPP@@8
	DD	FLAT:??_R13?0A@EA@Clonable@CryptoPP@@8
rdata$r	ENDS
;	COMDAT ??_R3SymmetricCipher@CryptoPP@@8
rdata$r	SEGMENT
??_R3SymmetricCipher@CryptoPP@@8 DD 00H			; CryptoPP::SymmetricCipher::`RTTI Class Hierarchy Descriptor'
	DD	01H
	DD	05H
	DD	FLAT:??_R2SymmetricCipher@CryptoPP@@8
rdata$r	ENDS
;	COMDAT ??_R0?AVSymmetricCipher@CryptoPP@@@8
data$r	SEGMENT
??_R0?AVSymmetricCipher@CryptoPP@@@8 DD FLAT:??_7type_info@@6B@ ; CryptoPP::SymmetricCipher `RTTI Type Descriptor'
	DD	00H
	DB	'.?AVSymmetricCipher@CryptoPP@@', 00H
data$r	ENDS
;	COMDAT ??_R13?0A@EA@Clonable@CryptoPP@@8
rdata$r	SEGMENT
??_R13?0A@EA@Clonable@CryptoPP@@8 DD FLAT:??_R0?AVClonable@CryptoPP@@@8 ; CryptoPP::Clonable::`RTTI Base Class Descriptor at (4,-1,0,64)'
	DD	00H
	DD	04H
	DD	0ffffffffH
	DD	00H
	DD	040H
	DD	FLAT:??_R3Clonable@CryptoPP@@8
rdata$r	ENDS
;	COMDAT ??_R13?0A@EA@Algorithm@CryptoPP@@8
rdata$r	SEGMENT
??_R13?0A@EA@Algorithm@CryptoPP@@8 DD FLAT:??_R0?AVAlgorithm@CryptoPP@@@8 ; CryptoPP::Algorithm::`RTTI Base Class Descriptor at (4,-1,0,64)'
	DD	01H
	DD	04H
	DD	0ffffffffH
	DD	00H
	DD	040H
	DD	FLAT:??_R3Algorithm@CryptoPP@@8
rdata$r	ENDS
;	COMDAT ??_R13?0A@EA@BlockTransformation@CryptoPP@@8
rdata$r	SEGMENT
??_R13?0A@EA@BlockTransformation@CryptoPP@@8 DD FLAT:??_R0?AVBlockTransformation@CryptoPP@@@8 ; CryptoPP::BlockTransformation::`RTTI Base Class Descriptor at (4,-1,0,64)'
	DD	02H
	DD	04H
	DD	0ffffffffH
	DD	00H
	DD	040H
	DD	FLAT:??_R3BlockTransformation@CryptoPP@@8
rdata$r	ENDS
;	COMDAT ??_R1A@?0A@EA@BlockCipher@CryptoPP@@8
rdata$r	SEGMENT
??_R1A@?0A@EA@BlockCipher@CryptoPP@@8 DD FLAT:??_R0?AVBlockCipher@CryptoPP@@@8 ; CryptoPP::BlockCipher::`RTTI Base Class Descriptor at (0,-1,0,64)'
	DD	04H
	DD	00H
	DD	0ffffffffH
	DD	00H
	DD	040H
	DD	FLAT:??_R3BlockCipher@CryptoPP@@8
rdata$r	ENDS
;	COMDAT ??_R2BlockCipher@CryptoPP@@8
rdata$r	SEGMENT
??_R2BlockCipher@CryptoPP@@8 DD FLAT:??_R1A@?0A@EA@BlockCipher@CryptoPP@@8 ; CryptoPP::BlockCipher::`RTTI Base Class Array'
	DD	FLAT:??_R1A@?0A@EA@SimpleKeyingInterface@CryptoPP@@8
	DD	FLAT:??_R13?0A@EA@BlockTransformation@CryptoPP@@8
	DD	FLAT:??_R13?0A@EA@Algorithm@CryptoPP@@8
	DD	FLAT:??_R13?0A@EA@Clonable@CryptoPP@@8
rdata$r	ENDS
;	COMDAT ??_R3BlockCipher@CryptoPP@@8
rdata$r	SEGMENT
??_R3BlockCipher@CryptoPP@@8 DD 00H			; CryptoPP::BlockCipher::`RTTI Class Hierarchy Descriptor'
	DD	01H
	DD	05H
	DD	FLAT:??_R2BlockCipher@CryptoPP@@8
rdata$r	ENDS
;	COMDAT ??_R0?AVBlockCipher@CryptoPP@@@8
data$r	SEGMENT
??_R0?AVBlockCipher@CryptoPP@@@8 DD FLAT:??_7type_info@@6B@ ; CryptoPP::BlockCipher `RTTI Type Descriptor'
	DD	00H
	DB	'.?AVBlockCipher@CryptoPP@@', 00H
data$r	ENDS
;	COMDAT ??_R1A@?0A@EA@StreamTransformation@CryptoPP@@8
rdata$r	SEGMENT
??_R1A@?0A@EA@StreamTransformation@CryptoPP@@8 DD FLAT:??_R0?AVStreamTransformation@CryptoPP@@@8 ; CryptoPP::StreamTransformation::`RTTI Base Class Descriptor at (0,-1,0,64)'
	DD	02H
	DD	00H
	DD	0ffffffffH
	DD	00H
	DD	040H
	DD	FLAT:??_R3StreamTransformation@CryptoPP@@8
rdata$r	ENDS
;	COMDAT ??_R2StreamTransformation@CryptoPP@@8
rdata$r	SEGMENT
??_R2StreamTransformation@CryptoPP@@8 DD FLAT:??_R1A@?0A@EA@StreamTransformation@CryptoPP@@8 ; CryptoPP::StreamTransformation::`RTTI Base Class Array'
	DD	FLAT:??_R1A@?0A@EA@Algorithm@CryptoPP@@8
	DD	FLAT:??_R1A@?0A@EA@Clonable@CryptoPP@@8
rdata$r	ENDS
;	COMDAT ??_R3StreamTransformation@CryptoPP@@8
rdata$r	SEGMENT
??_R3StreamTransformation@CryptoPP@@8 DD 00H		; CryptoPP::StreamTransformation::`RTTI Class Hierarchy Descriptor'
	DD	00H
	DD	03H
	DD	FLAT:??_R2StreamTransformation@CryptoPP@@8
rdata$r	ENDS
;	COMDAT ??_R0?AVStreamTransformation@CryptoPP@@@8
data$r	SEGMENT
??_R0?AVStreamTransformation@CryptoPP@@@8 DD FLAT:??_7type_info@@6B@ ; CryptoPP::StreamTransformation `RTTI Type Descriptor'
	DD	00H
	DB	'.?AVStreamTransformation@CryptoPP@@', 00H
data$r	ENDS
;	COMDAT ??_R1A@?0A@EA@BlockTransformation@CryptoPP@@8
rdata$r	SEGMENT
??_R1A@?0A@EA@BlockTransformation@CryptoPP@@8 DD FLAT:??_R0?AVBlockTransformation@CryptoPP@@@8 ; CryptoPP::BlockTransformation::`RTTI Base Class Descriptor at (0,-1,0,64)'
	DD	02H
	DD	00H
	DD	0ffffffffH
	DD	00H
	DD	040H
	DD	FLAT:??_R3BlockTransformation@CryptoPP@@8
rdata$r	ENDS
;	COMDAT ??_R2BlockTransformation@CryptoPP@@8
rdata$r	SEGMENT
??_R2BlockTransformation@CryptoPP@@8 DD FLAT:??_R1A@?0A@EA@BlockTransformation@CryptoPP@@8 ; CryptoPP::BlockTransformation::`RTTI Base Class Array'
	DD	FLAT:??_R1A@?0A@EA@Algorithm@CryptoPP@@8
	DD	FLAT:??_R1A@?0A@EA@Clonable@CryptoPP@@8
rdata$r	ENDS
;	COMDAT ??_R3BlockTransformation@CryptoPP@@8
rdata$r	SEGMENT
??_R3BlockTransformation@CryptoPP@@8 DD 00H		; CryptoPP::BlockTransformation::`RTTI Class Hierarchy Descriptor'
	DD	00H
	DD	03H
	DD	FLAT:??_R2BlockTransformation@CryptoPP@@8
rdata$r	ENDS
;	COMDAT ??_R0?AVBlockTransformation@CryptoPP@@@8
data$r	SEGMENT
??_R0?AVBlockTransformation@CryptoPP@@@8 DD FLAT:??_7type_info@@6B@ ; CryptoPP::BlockTransformation `RTTI Type Descriptor'
	DD	00H
	DB	'.?AVBlockTransformation@CryptoPP@@', 00H
data$r	ENDS
;	COMDAT ??_R1A@?0A@EA@SimpleKeyingInterface@CryptoPP@@8
rdata$r	SEGMENT
??_R1A@?0A@EA@SimpleKeyingInterface@CryptoPP@@8 DD FLAT:??_R0?AVSimpleKeyingInterface@CryptoPP@@@8 ; CryptoPP::SimpleKeyingInterface::`RTTI Base Class Descriptor at (0,-1,0,64)'
	DD	00H
	DD	00H
	DD	0ffffffffH
	DD	00H
	DD	040H
	DD	FLAT:??_R3SimpleKeyingInterface@CryptoPP@@8
rdata$r	ENDS
;	COMDAT ??_R2SimpleKeyingInterface@CryptoPP@@8
rdata$r	SEGMENT
??_R2SimpleKeyingInterface@CryptoPP@@8 DD FLAT:??_R1A@?0A@EA@SimpleKeyingInterface@CryptoPP@@8 ; CryptoPP::SimpleKeyingInterface::`RTTI Base Class Array'
rdata$r	ENDS
;	COMDAT ??_R3SimpleKeyingInterface@CryptoPP@@8
rdata$r	SEGMENT
??_R3SimpleKeyingInterface@CryptoPP@@8 DD 00H		; CryptoPP::SimpleKeyingInterface::`RTTI Class Hierarchy Descriptor'
	DD	00H
	DD	01H
	DD	FLAT:??_R2SimpleKeyingInterface@CryptoPP@@8
rdata$r	ENDS
;	COMDAT ??_R0?AVSimpleKeyingInterface@CryptoPP@@@8
data$r	SEGMENT
??_R0?AVSimpleKeyingInterface@CryptoPP@@@8 DD FLAT:??_7type_info@@6B@ ; CryptoPP::SimpleKeyingInterface `RTTI Type Descriptor'
	DD	00H
	DB	'.?AVSimpleKeyingInterface@CryptoPP@@', 00H
data$r	ENDS
;	COMDAT ??_R1A@?0A@EA@NotImplemented@CryptoPP@@8
rdata$r	SEGMENT
??_R1A@?0A@EA@NotImplemented@CryptoPP@@8 DD FLAT:??_R0?AVNotImplemented@CryptoPP@@@8 ; CryptoPP::NotImplemented::`RTTI Base Class Descriptor at (0,-1,0,64)'
	DD	02H
	DD	00H
	DD	0ffffffffH
	DD	00H
	DD	040H
	DD	FLAT:??_R3NotImplemented@CryptoPP@@8
rdata$r	ENDS
;	COMDAT ??_R2NotImplemented@CryptoPP@@8
rdata$r	SEGMENT
??_R2NotImplemented@CryptoPP@@8 DD FLAT:??_R1A@?0A@EA@NotImplemented@CryptoPP@@8 ; CryptoPP::NotImplemented::`RTTI Base Class Array'
	DD	FLAT:??_R1A@?0A@EA@Exception@CryptoPP@@8
	DD	FLAT:??_R1A@?0A@EA@exception@std@@8
rdata$r	ENDS
;	COMDAT ??_R3NotImplemented@CryptoPP@@8
rdata$r	SEGMENT
??_R3NotImplemented@CryptoPP@@8 DD 00H			; CryptoPP::NotImplemented::`RTTI Class Hierarchy Descriptor'
	DD	00H
	DD	03H
	DD	FLAT:??_R2NotImplemented@CryptoPP@@8
rdata$r	ENDS
;	COMDAT ??_R4NotImplemented@CryptoPP@@6B@
rdata$r	SEGMENT
??_R4NotImplemented@CryptoPP@@6B@ DD 00H		; CryptoPP::NotImplemented::`RTTI Complete Object Locator'
	DD	00H
	DD	00H
	DD	FLAT:??_R0?AVNotImplemented@CryptoPP@@@8
	DD	FLAT:??_R3NotImplemented@CryptoPP@@8
rdata$r	ENDS
;	COMDAT ??_R1A@?0A@EA@InvalidArgument@CryptoPP@@8
rdata$r	SEGMENT
??_R1A@?0A@EA@InvalidArgument@CryptoPP@@8 DD FLAT:??_R0?AVInvalidArgument@CryptoPP@@@8 ; CryptoPP::InvalidArgument::`RTTI Base Class Descriptor at (0,-1,0,64)'
	DD	02H
	DD	00H
	DD	0ffffffffH
	DD	00H
	DD	040H
	DD	FLAT:??_R3InvalidArgument@CryptoPP@@8
rdata$r	ENDS
;	COMDAT ??_R2InvalidArgument@CryptoPP@@8
rdata$r	SEGMENT
??_R2InvalidArgument@CryptoPP@@8 DD FLAT:??_R1A@?0A@EA@InvalidArgument@CryptoPP@@8 ; CryptoPP::InvalidArgument::`RTTI Base Class Array'
	DD	FLAT:??_R1A@?0A@EA@Exception@CryptoPP@@8
	DD	FLAT:??_R1A@?0A@EA@exception@std@@8
rdata$r	ENDS
;	COMDAT ??_R3InvalidArgument@CryptoPP@@8
rdata$r	SEGMENT
??_R3InvalidArgument@CryptoPP@@8 DD 00H			; CryptoPP::InvalidArgument::`RTTI Class Hierarchy Descriptor'
	DD	00H
	DD	03H
	DD	FLAT:??_R2InvalidArgument@CryptoPP@@8
rdata$r	ENDS
;	COMDAT ??_R4InvalidArgument@CryptoPP@@6B@
rdata$r	SEGMENT
??_R4InvalidArgument@CryptoPP@@6B@ DD 00H		; CryptoPP::InvalidArgument::`RTTI Complete Object Locator'
	DD	00H
	DD	00H
	DD	FLAT:??_R0?AVInvalidArgument@CryptoPP@@@8
	DD	FLAT:??_R3InvalidArgument@CryptoPP@@8
rdata$r	ENDS
;	COMDAT ??_R1A@?0A@EA@Exception@CryptoPP@@8
rdata$r	SEGMENT
??_R1A@?0A@EA@Exception@CryptoPP@@8 DD FLAT:??_R0?AVException@CryptoPP@@@8 ; CryptoPP::Exception::`RTTI Base Class Descriptor at (0,-1,0,64)'
	DD	01H
	DD	00H
	DD	0ffffffffH
	DD	00H
	DD	040H
	DD	FLAT:??_R3Exception@CryptoPP@@8
rdata$r	ENDS
;	COMDAT ??_R2Exception@CryptoPP@@8
rdata$r	SEGMENT
??_R2Exception@CryptoPP@@8 DD FLAT:??_R1A@?0A@EA@Exception@CryptoPP@@8 ; CryptoPP::Exception::`RTTI Base Class Array'
	DD	FLAT:??_R1A@?0A@EA@exception@std@@8
rdata$r	ENDS
;	COMDAT ??_R3Exception@CryptoPP@@8
rdata$r	SEGMENT
??_R3Exception@CryptoPP@@8 DD 00H			; CryptoPP::Exception::`RTTI Class Hierarchy Descriptor'
	DD	00H
	DD	02H
	DD	FLAT:??_R2Exception@CryptoPP@@8
rdata$r	ENDS
;	COMDAT ??_R4Exception@CryptoPP@@6B@
rdata$r	SEGMENT
??_R4Exception@CryptoPP@@6B@ DD 00H			; CryptoPP::Exception::`RTTI Complete Object Locator'
	DD	00H
	DD	00H
	DD	FLAT:??_R0?AVException@CryptoPP@@@8
	DD	FLAT:??_R3Exception@CryptoPP@@8
rdata$r	ENDS
;	COMDAT ??_R2Clonable@CryptoPP@@8
rdata$r	SEGMENT
??_R2Clonable@CryptoPP@@8 DD FLAT:??_R1A@?0A@EA@Clonable@CryptoPP@@8 ; CryptoPP::Clonable::`RTTI Base Class Array'
rdata$r	ENDS
;	COMDAT ??_R3Clonable@CryptoPP@@8
rdata$r	SEGMENT
??_R3Clonable@CryptoPP@@8 DD 00H			; CryptoPP::Clonable::`RTTI Class Hierarchy Descriptor'
	DD	00H
	DD	01H
	DD	FLAT:??_R2Clonable@CryptoPP@@8
rdata$r	ENDS
;	COMDAT ??_R0?AVClonable@CryptoPP@@@8
data$r	SEGMENT
??_R0?AVClonable@CryptoPP@@@8 DD FLAT:??_7type_info@@6B@ ; CryptoPP::Clonable `RTTI Type Descriptor'
	DD	00H
	DB	'.?AVClonable@CryptoPP@@', 00H
data$r	ENDS
;	COMDAT ??_R1A@?0A@EA@Clonable@CryptoPP@@8
rdata$r	SEGMENT
??_R1A@?0A@EA@Clonable@CryptoPP@@8 DD FLAT:??_R0?AVClonable@CryptoPP@@@8 ; CryptoPP::Clonable::`RTTI Base Class Descriptor at (0,-1,0,64)'
	DD	00H
	DD	00H
	DD	0ffffffffH
	DD	00H
	DD	040H
	DD	FLAT:??_R3Clonable@CryptoPP@@8
rdata$r	ENDS
;	COMDAT ??_R2Algorithm@CryptoPP@@8
rdata$r	SEGMENT
??_R2Algorithm@CryptoPP@@8 DD FLAT:??_R1A@?0A@EA@Algorithm@CryptoPP@@8 ; CryptoPP::Algorithm::`RTTI Base Class Array'
	DD	FLAT:??_R1A@?0A@EA@Clonable@CryptoPP@@8
rdata$r	ENDS
;	COMDAT ??_R3Algorithm@CryptoPP@@8
rdata$r	SEGMENT
??_R3Algorithm@CryptoPP@@8 DD 00H			; CryptoPP::Algorithm::`RTTI Class Hierarchy Descriptor'
	DD	00H
	DD	02H
	DD	FLAT:??_R2Algorithm@CryptoPP@@8
rdata$r	ENDS
;	COMDAT ??_R0?AVAlgorithm@CryptoPP@@@8
data$r	SEGMENT
??_R0?AVAlgorithm@CryptoPP@@@8 DD FLAT:??_7type_info@@6B@ ; CryptoPP::Algorithm `RTTI Type Descriptor'
	DD	00H
	DB	'.?AVAlgorithm@CryptoPP@@', 00H
data$r	ENDS
;	COMDAT ??_R1A@?0A@EA@Algorithm@CryptoPP@@8
rdata$r	SEGMENT
??_R1A@?0A@EA@Algorithm@CryptoPP@@8 DD FLAT:??_R0?AVAlgorithm@CryptoPP@@@8 ; CryptoPP::Algorithm::`RTTI Base Class Descriptor at (0,-1,0,64)'
	DD	01H
	DD	00H
	DD	0ffffffffH
	DD	00H
	DD	040H
	DD	FLAT:??_R3Algorithm@CryptoPP@@8
rdata$r	ENDS
;	COMDAT ??_C@_0DL@LFCPKOMM@AllocatorBase?3?5requested?5size?5wo@
CONST	SEGMENT
??_C@_0DL@LFCPKOMM@AllocatorBase?3?5requested?5size?5wo@ DB 'AllocatorBas'
	DB	'e: requested size would cause integer overflow', 00H ; `string'
CONST	ENDS
;	COMDAT ??_7?$BlockCipherFinal@$0A@VBase@DES@CryptoPP@@@CryptoPP@@6BBlockTransformation@1@@
CONST	SEGMENT
??_7?$BlockCipherFinal@$0A@VBase@DES@CryptoPP@@@CryptoPP@@6BBlockTransformation@1@@ DD FLAT:??_R4?$BlockCipherFinal@$0A@VBase@DES@CryptoPP@@@CryptoPP@@6BBlockTransformation@1@@ ; CryptoPP::BlockCipherFinal<0,CryptoPP::DES::Base>::`vftable'
	DD	FLAT:??_E?$BlockCipherFinal@$0A@VBase@DES@CryptoPP@@@CryptoPP@@W3AEPAXI@Z
	DD	FLAT:?Clone@?$ClonableImpl@V?$BlockCipherFinal@$0A@VBase@DES@CryptoPP@@@CryptoPP@@VBase@DES@2@@CryptoPP@@UBEPAVClonable@2@XZ
	DD	FLAT:?AlgorithmName@?$AlgorithmImpl@V?$SimpleKeyingInterfaceImpl@V?$TwoBases@VBlockCipher@CryptoPP@@UDES_Info@2@@CryptoPP@@V12@@CryptoPP@@V12@@CryptoPP@@UBE?AV?$basic_string@DU?$char_traits@D@std@@V?$allocator@D@2@@std@@XZ
	DD	FLAT:?ProcessAndXorBlock@Base@DES@CryptoPP@@UBEXPBE0PAE@Z
	DD	FLAT:?BlockSize@?$BlockCipherImpl@UDES_Info@CryptoPP@@VBlockCipher@2@@CryptoPP@@UBEIXZ
	DD	FLAT:?OptimalDataAlignment@BlockTransformation@CryptoPP@@UBEIXZ
	DD	FLAT:?IsPermutation@BlockTransformation@CryptoPP@@UBE_NXZ
	DD	FLAT:?IsForwardTransformation@?$BlockCipherFinal@$0A@VBase@DES@CryptoPP@@@CryptoPP@@UBE_NXZ
	DD	FLAT:?OptimalNumberOfParallelBlocks@BlockTransformation@CryptoPP@@UBEIXZ
	DD	FLAT:?AdvancedProcessBlocks@BlockTransformation@CryptoPP@@UBEIPBE0PAEII@Z
CONST	ENDS
;	COMDAT ??_7?$BlockCipherFinal@$0A@VBase@DES@CryptoPP@@@CryptoPP@@6BSimpleKeyingInterface@1@@
CONST	SEGMENT
??_7?$BlockCipherFinal@$0A@VBase@DES@CryptoPP@@@CryptoPP@@6BSimpleKeyingInterface@1@@ DD FLAT:??_R4?$BlockCipherFinal@$0A@VBase@DES@CryptoPP@@@CryptoPP@@6BSimpleKeyingInterface@1@@ ; CryptoPP::BlockCipherFinal<0,CryptoPP::DES::Base>::`vftable'
	DD	FLAT:??_E?$BlockCipherFinal@$0A@VBase@DES@CryptoPP@@@CryptoPP@@UAEPAXI@Z
	DD	FLAT:?MinKeyLength@?$SimpleKeyingInterfaceImpl@V?$TwoBases@VBlockCipher@CryptoPP@@UDES_Info@2@@CryptoPP@@V12@@CryptoPP@@UBEIXZ
	DD	FLAT:?MaxKeyLength@?$SimpleKeyingInterfaceImpl@V?$TwoBases@VBlockCipher@CryptoPP@@UDES_Info@2@@CryptoPP@@V12@@CryptoPP@@UBEIXZ
	DD	FLAT:?DefaultKeyLength@?$SimpleKeyingInterfaceImpl@V?$TwoBases@VBlockCipher@CryptoPP@@UDES_Info@2@@CryptoPP@@V12@@CryptoPP@@UBEIXZ
	DD	FLAT:?GetValidKeyLength@?$SimpleKeyingInterfaceImpl@V?$TwoBases@VBlockCipher@CryptoPP@@UDES_Info@2@@CryptoPP@@V12@@CryptoPP@@UBEII@Z
	DD	FLAT:?IsValidKeyLength@SimpleKeyingInterface@CryptoPP@@UBE_NI@Z
	DD	FLAT:?SetKey@SimpleKeyingInterface@CryptoPP@@UAEXPBEIABVNameValuePairs@2@@Z
	DD	FLAT:?IVRequirement@?$SimpleKeyingInterfaceImpl@V?$TwoBases@VBlockCipher@CryptoPP@@UDES_Info@2@@CryptoPP@@V12@@CryptoPP@@UBE?AW4IV_Requirement@SimpleKeyingInterface@2@XZ
	DD	FLAT:?IVSize@?$SimpleKeyingInterfaceImpl@V?$TwoBases@VBlockCipher@CryptoPP@@UDES_Info@2@@CryptoPP@@V12@@CryptoPP@@UBEIXZ
	DD	FLAT:?MinIVLength@SimpleKeyingInterface@CryptoPP@@UBEIXZ
	DD	FLAT:?MaxIVLength@SimpleKeyingInterface@CryptoPP@@UBEIXZ
	DD	FLAT:?Resynchronize@SimpleKeyingInterface@CryptoPP@@UAEXPBEH@Z
	DD	FLAT:?GetNextIV@SimpleKeyingInterface@CryptoPP@@UAEXAAVRandomNumberGenerator@2@PAE@Z
	DD	FLAT:?GetAlgorithm@BlockCipher@CryptoPP@@MBEABVAlgorithm@2@XZ
	DD	FLAT:?UncheckedSetKey@Base@DES@CryptoPP@@UAEXPBEIABVNameValuePairs@3@@Z
CONST	ENDS
;	COMDAT ??_C@_01KMDKNFGN@?1?$AA@
CONST	SEGMENT
??_C@_01KMDKNFGN@?1?$AA@ DB '/', 00H			; `string'
CONST	ENDS
;	COMDAT ??_7CSimpleModulus@@6B@
CONST	SEGMENT
??_7CSimpleModulus@@6B@ DD FLAT:??_R4CSimpleModulus@@6B@ ; CSimpleModulus::`vftable'
	DD	FLAT:??_ECSimpleModulus@@UAEPAXI@Z
CONST	ENDS
;	COMDAT ??_7?$CipherModeFinalTemplate_CipherHolder@V?$BlockCipherFinal@$00VBase@DES_XEX3@CryptoPP@@@CryptoPP@@VECB_OneWay@2@@CryptoPP@@6BStreamTransformation@1@@
CONST	SEGMENT
??_7?$CipherModeFinalTemplate_CipherHolder@V?$BlockCipherFinal@$00VBase@DES_XEX3@CryptoPP@@@CryptoPP@@VECB_OneWay@2@@CryptoPP@@6BStreamTransformation@1@@ DD FLAT:??_R4?$CipherModeFinalTemplate_CipherHolder@V?$BlockCipherFinal@$00VBase@DES_XEX3@CryptoPP@@@CryptoPP@@VECB_OneWay@2@@CryptoPP@@6BStreamTransformation@1@@ ; CryptoPP::CipherModeFinalTemplate_CipherHolder<CryptoPP::BlockCipherFinal<1,CryptoPP::DES_XEX3::Base>,CryptoPP::ECB_OneWay>::`vftable'
	DD	FLAT:??_E?$CipherModeFinalTemplate_CipherHolder@V?$BlockCipherFinal@$00VBase@DES_XEX3@CryptoPP@@@CryptoPP@@VECB_OneWay@2@@CryptoPP@@W3AEPAXI@Z
	DD	FLAT:?Clone@Clonable@CryptoPP@@UBEPAV12@XZ
	DD	FLAT:?AlgorithmName@?$AlgorithmImpl@VECB_OneWay@CryptoPP@@V?$CipherModeFinalTemplate_CipherHolder@V?$BlockCipherFinal@$00VBase@DES_XEX3@CryptoPP@@@CryptoPP@@VECB_OneWay@2@@2@@CryptoPP@@UBE?AV?$basic_string@DU?$char_traits@D@std@@V?$allocator@D@2@@std@@XZ
	DD	FLAT:?MandatoryBlockSize@BlockOrientedCipherModeBase@CryptoPP@@UBEIXZ
	DD	FLAT:?OptimalBlockSize@ECB_OneWay@CryptoPP@@UBEIXZ
	DD	FLAT:?GetOptimalBlockSizeUsed@StreamTransformation@CryptoPP@@UBEIXZ
	DD	FLAT:?OptimalDataAlignment@CipherModeBase@CryptoPP@@UBEIXZ
	DD	FLAT:?ProcessData@ECB_OneWay@CryptoPP@@UAEXPAEPBEI@Z
	DD	FLAT:?ProcessLastBlock@StreamTransformation@CryptoPP@@UAEXPAEPBEI@Z
	DD	FLAT:?MinLastBlockSize@StreamTransformation@CryptoPP@@UBEIXZ
	DD	FLAT:?IsRandomAccess@BlockOrientedCipherModeBase@CryptoPP@@UBE_NXZ
	DD	FLAT:?Seek@StreamTransformation@CryptoPP@@UAEX_K@Z
	DD	FLAT:?IsSelfInverting@BlockOrientedCipherModeBase@CryptoPP@@UBE_NXZ
	DD	FLAT:?IsForwardTransformation@BlockOrientedCipherModeBase@CryptoPP@@UBE_NXZ
CONST	ENDS
;	COMDAT ??_7?$CipherModeFinalTemplate_CipherHolder@V?$BlockCipherFinal@$00VBase@DES_XEX3@CryptoPP@@@CryptoPP@@VECB_OneWay@2@@CryptoPP@@6BSimpleKeyingInterface@1@@
CONST	SEGMENT
??_7?$CipherModeFinalTemplate_CipherHolder@V?$BlockCipherFinal@$00VBase@DES_XEX3@CryptoPP@@@CryptoPP@@VECB_OneWay@2@@CryptoPP@@6BSimpleKeyingInterface@1@@ DD FLAT:??_R4?$CipherModeFinalTemplate_CipherHolder@V?$BlockCipherFinal@$00VBase@DES_XEX3@CryptoPP@@@CryptoPP@@VECB_OneWay@2@@CryptoPP@@6BSimpleKeyingInterface@1@@ ; CryptoPP::CipherModeFinalTemplate_CipherHolder<CryptoPP::BlockCipherFinal<1,CryptoPP::DES_XEX3::Base>,CryptoPP::ECB_OneWay>::`vftable'
	DD	FLAT:??_E?$CipherModeFinalTemplate_CipherHolder@V?$BlockCipherFinal@$00VBase@DES_XEX3@CryptoPP@@@CryptoPP@@VECB_OneWay@2@@CryptoPP@@UAEPAXI@Z
	DD	FLAT:?MinKeyLength@CipherModeBase@CryptoPP@@UBEIXZ
	DD	FLAT:?MaxKeyLength@CipherModeBase@CryptoPP@@UBEIXZ
	DD	FLAT:?DefaultKeyLength@CipherModeBase@CryptoPP@@UBEIXZ
	DD	FLAT:?GetValidKeyLength@CipherModeBase@CryptoPP@@UBEII@Z
	DD	FLAT:?IsValidKeyLength@CipherModeBase@CryptoPP@@UBE_NI@Z
	DD	FLAT:?SetKey@ECB_OneWay@CryptoPP@@UAEXPBEIABVNameValuePairs@2@@Z
	DD	FLAT:?IVRequirement@ECB_OneWay@CryptoPP@@UBE?AW4IV_Requirement@SimpleKeyingInterface@2@XZ
	DD	FLAT:?IVSize@CipherModeBase@CryptoPP@@UBEIXZ
	DD	FLAT:?MinIVLength@SimpleKeyingInterface@CryptoPP@@UBEIXZ
	DD	FLAT:?MaxIVLength@SimpleKeyingInterface@CryptoPP@@UBEIXZ
	DD	FLAT:?Resynchronize@BlockOrientedCipherModeBase@CryptoPP@@UAEXPBEH@Z
	DD	FLAT:?GetNextIV@SimpleKeyingInterface@CryptoPP@@UAEXAAVRandomNumberGenerator@2@PAE@Z
	DD	FLAT:?GetAlgorithm@SymmetricCipher@CryptoPP@@MBEABVAlgorithm@2@XZ
	DD	FLAT:?UncheckedSetKey@BlockOrientedCipherModeBase@CryptoPP@@UAEXPBEIABVNameValuePairs@2@@Z
	DD	FLAT:?SetFeedbackSize@CipherModeBase@CryptoPP@@MAEXI@Z
	DD	FLAT:?ResizeBuffers@BlockOrientedCipherModeBase@CryptoPP@@MAEXXZ
CONST	ENDS
;	COMDAT ??_7?$BlockCipherFinal@$00VBase@DES_XEX3@CryptoPP@@@CryptoPP@@6BBlockTransformation@1@@
CONST	SEGMENT
??_7?$BlockCipherFinal@$00VBase@DES_XEX3@CryptoPP@@@CryptoPP@@6BBlockTransformation@1@@ DD FLAT:??_R4?$BlockCipherFinal@$00VBase@DES_XEX3@CryptoPP@@@CryptoPP@@6BBlockTransformation@1@@ ; CryptoPP::BlockCipherFinal<1,CryptoPP::DES_XEX3::Base>::`vftable'
	DD	FLAT:??_E?$BlockCipherFinal@$00VBase@DES_XEX3@CryptoPP@@@CryptoPP@@W3AEPAXI@Z
	DD	FLAT:?Clone@?$ClonableImpl@V?$BlockCipherFinal@$00VBase@DES_XEX3@CryptoPP@@@CryptoPP@@VBase@DES_XEX3@2@@CryptoPP@@UBEPAVClonable@2@XZ
	DD	FLAT:?AlgorithmName@?$AlgorithmImpl@V?$SimpleKeyingInterfaceImpl@V?$TwoBases@VBlockCipher@CryptoPP@@UDES_XEX3_Info@2@@CryptoPP@@V12@@CryptoPP@@V12@@CryptoPP@@UBE?AV?$basic_string@DU?$char_traits@D@std@@V?$allocator@D@2@@std@@XZ
	DD	FLAT:?ProcessAndXorBlock@Base@DES_XEX3@CryptoPP@@UBEXPBE0PAE@Z
	DD	FLAT:?BlockSize@?$BlockCipherImpl@UDES_XEX3_Info@CryptoPP@@VBlockCipher@2@@CryptoPP@@UBEIXZ
	DD	FLAT:?OptimalDataAlignment@BlockTransformation@CryptoPP@@UBEIXZ
	DD	FLAT:?IsPermutation@BlockTransformation@CryptoPP@@UBE_NXZ
	DD	FLAT:?IsForwardTransformation@?$BlockCipherFinal@$00VBase@DES_XEX3@CryptoPP@@@CryptoPP@@UBE_NXZ
	DD	FLAT:?OptimalNumberOfParallelBlocks@BlockTransformation@CryptoPP@@UBEIXZ
	DD	FLAT:?AdvancedProcessBlocks@BlockTransformation@CryptoPP@@UBEIPBE0PAEII@Z
CONST	ENDS
;	COMDAT ??_7?$BlockCipherFinal@$00VBase@DES_XEX3@CryptoPP@@@CryptoPP@@6BSimpleKeyingInterface@1@@
CONST	SEGMENT
??_7?$BlockCipherFinal@$00VBase@DES_XEX3@CryptoPP@@@CryptoPP@@6BSimpleKeyingInterface@1@@ DD FLAT:??_R4?$BlockCipherFinal@$00VBase@DES_XEX3@CryptoPP@@@CryptoPP@@6BSimpleKeyingInterface@1@@ ; CryptoPP::BlockCipherFinal<1,CryptoPP::DES_XEX3::Base>::`vftable'
	DD	FLAT:??_E?$BlockCipherFinal@$00VBase@DES_XEX3@CryptoPP@@@CryptoPP@@UAEPAXI@Z
	DD	FLAT:?MinKeyLength@?$SimpleKeyingInterfaceImpl@V?$TwoBases@VBlockCipher@CryptoPP@@UDES_XEX3_Info@2@@CryptoPP@@V12@@CryptoPP@@UBEIXZ
	DD	FLAT:?MaxKeyLength@?$SimpleKeyingInterfaceImpl@V?$TwoBases@VBlockCipher@CryptoPP@@UDES_XEX3_Info@2@@CryptoPP@@V12@@CryptoPP@@UBEIXZ
	DD	FLAT:?DefaultKeyLength@?$SimpleKeyingInterfaceImpl@V?$TwoBases@VBlockCipher@CryptoPP@@UDES_XEX3_Info@2@@CryptoPP@@V12@@CryptoPP@@UBEIXZ
	DD	FLAT:?GetValidKeyLength@?$SimpleKeyingInterfaceImpl@V?$TwoBases@VBlockCipher@CryptoPP@@UDES_XEX3_Info@2@@CryptoPP@@V12@@CryptoPP@@UBEII@Z
	DD	FLAT:?IsValidKeyLength@SimpleKeyingInterface@CryptoPP@@UBE_NI@Z
	DD	FLAT:?SetKey@SimpleKeyingInterface@CryptoPP@@UAEXPBEIABVNameValuePairs@2@@Z
	DD	FLAT:?IVRequirement@?$SimpleKeyingInterfaceImpl@V?$TwoBases@VBlockCipher@CryptoPP@@UDES_XEX3_Info@2@@CryptoPP@@V12@@CryptoPP@@UBE?AW4IV_Requirement@SimpleKeyingInterface@2@XZ
	DD	FLAT:?IVSize@?$SimpleKeyingInterfaceImpl@V?$TwoBases@VBlockCipher@CryptoPP@@UDES_XEX3_Info@2@@CryptoPP@@V12@@CryptoPP@@UBEIXZ
	DD	FLAT:?MinIVLength@SimpleKeyingInterface@CryptoPP@@UBEIXZ
	DD	FLAT:?MaxIVLength@SimpleKeyingInterface@CryptoPP@@UBEIXZ
	DD	FLAT:?Resynchronize@SimpleKeyingInterface@CryptoPP@@UAEXPBEH@Z
	DD	FLAT:?GetNextIV@SimpleKeyingInterface@CryptoPP@@UAEXAAVRandomNumberGenerator@2@PAE@Z
	DD	FLAT:?GetAlgorithm@BlockCipher@CryptoPP@@MBEABVAlgorithm@2@XZ
	DD	FLAT:?UncheckedSetKey@Base@DES_XEX3@CryptoPP@@UAEXPBEIABVNameValuePairs@3@@Z
CONST	ENDS
;	COMDAT ??_7?$CipherModeFinalTemplate_CipherHolder@V?$BlockCipherFinal@$0A@VBase@DES_XEX3@CryptoPP@@@CryptoPP@@VECB_OneWay@2@@CryptoPP@@6BStreamTransformation@1@@
CONST	SEGMENT
??_7?$CipherModeFinalTemplate_CipherHolder@V?$BlockCipherFinal@$0A@VBase@DES_XEX3@CryptoPP@@@CryptoPP@@VECB_OneWay@2@@CryptoPP@@6BStreamTransformation@1@@ DD FLAT:??_R4?$CipherModeFinalTemplate_CipherHolder@V?$BlockCipherFinal@$0A@VBase@DES_XEX3@CryptoPP@@@CryptoPP@@VECB_OneWay@2@@CryptoPP@@6BStreamTransformation@1@@ ; CryptoPP::CipherModeFinalTemplate_CipherHolder<CryptoPP::BlockCipherFinal<0,CryptoPP::DES_XEX3::Base>,CryptoPP::ECB_OneWay>::`vftable'
	DD	FLAT:??_E?$CipherModeFinalTemplate_CipherHolder@V?$BlockCipherFinal@$0A@VBase@DES_XEX3@CryptoPP@@@CryptoPP@@VECB_OneWay@2@@CryptoPP@@W3AEPAXI@Z
	DD	FLAT:?Clone@Clonable@CryptoPP@@UBEPAV12@XZ
	DD	FLAT:?AlgorithmName@?$AlgorithmImpl@VECB_OneWay@CryptoPP@@V?$CipherModeFinalTemplate_CipherHolder@V?$BlockCipherFinal@$0A@VBase@DES_XEX3@CryptoPP@@@CryptoPP@@VECB_OneWay@2@@2@@CryptoPP@@UBE?AV?$basic_string@DU?$char_traits@D@std@@V?$allocator@D@2@@std@@XZ
	DD	FLAT:?MandatoryBlockSize@BlockOrientedCipherModeBase@CryptoPP@@UBEIXZ
	DD	FLAT:?OptimalBlockSize@ECB_OneWay@CryptoPP@@UBEIXZ
	DD	FLAT:?GetOptimalBlockSizeUsed@StreamTransformation@CryptoPP@@UBEIXZ
	DD	FLAT:?OptimalDataAlignment@CipherModeBase@CryptoPP@@UBEIXZ
	DD	FLAT:?ProcessData@ECB_OneWay@CryptoPP@@UAEXPAEPBEI@Z
	DD	FLAT:?ProcessLastBlock@StreamTransformation@CryptoPP@@UAEXPAEPBEI@Z
	DD	FLAT:?MinLastBlockSize@StreamTransformation@CryptoPP@@UBEIXZ
	DD	FLAT:?IsRandomAccess@BlockOrientedCipherModeBase@CryptoPP@@UBE_NXZ
	DD	FLAT:?Seek@StreamTransformation@CryptoPP@@UAEX_K@Z
	DD	FLAT:?IsSelfInverting@BlockOrientedCipherModeBase@CryptoPP@@UBE_NXZ
	DD	FLAT:?IsForwardTransformation@BlockOrientedCipherModeBase@CryptoPP@@UBE_NXZ
CONST	ENDS
;	COMDAT ??_7?$CipherModeFinalTemplate_CipherHolder@V?$BlockCipherFinal@$0A@VBase@DES_XEX3@CryptoPP@@@CryptoPP@@VECB_OneWay@2@@CryptoPP@@6BSimpleKeyingInterface@1@@
CONST	SEGMENT
??_7?$CipherModeFinalTemplate_CipherHolder@V?$BlockCipherFinal@$0A@VBase@DES_XEX3@CryptoPP@@@CryptoPP@@VECB_OneWay@2@@CryptoPP@@6BSimpleKeyingInterface@1@@ DD FLAT:??_R4?$CipherModeFinalTemplate_CipherHolder@V?$BlockCipherFinal@$0A@VBase@DES_XEX3@CryptoPP@@@CryptoPP@@VECB_OneWay@2@@CryptoPP@@6BSimpleKeyingInterface@1@@ ; CryptoPP::CipherModeFinalTemplate_CipherHolder<CryptoPP::BlockCipherFinal<0,CryptoPP::DES_XEX3::Base>,CryptoPP::ECB_OneWay>::`vftable'
	DD	FLAT:??_E?$CipherModeFinalTemplate_CipherHolder@V?$BlockCipherFinal@$0A@VBase@DES_XEX3@CryptoPP@@@CryptoPP@@VECB_OneWay@2@@CryptoPP@@UAEPAXI@Z
	DD	FLAT:?MinKeyLength@CipherModeBase@CryptoPP@@UBEIXZ
	DD	FLAT:?MaxKeyLength@CipherModeBase@CryptoPP@@UBEIXZ
	DD	FLAT:?DefaultKeyLength@CipherModeBase@CryptoPP@@UBEIXZ
	DD	FLAT:?GetValidKeyLength@CipherModeBase@CryptoPP@@UBEII@Z
	DD	FLAT:?IsValidKeyLength@CipherModeBase@CryptoPP@@UBE_NI@Z
	DD	FLAT:?SetKey@ECB_OneWay@CryptoPP@@UAEXPBEIABVNameValuePairs@2@@Z
	DD	FLAT:?IVRequirement@ECB_OneWay@CryptoPP@@UBE?AW4IV_Requirement@SimpleKeyingInterface@2@XZ
	DD	FLAT:?IVSize@CipherModeBase@CryptoPP@@UBEIXZ
	DD	FLAT:?MinIVLength@SimpleKeyingInterface@CryptoPP@@UBEIXZ
	DD	FLAT:?MaxIVLength@SimpleKeyingInterface@CryptoPP@@UBEIXZ
	DD	FLAT:?Resynchronize@BlockOrientedCipherModeBase@CryptoPP@@UAEXPBEH@Z
	DD	FLAT:?GetNextIV@SimpleKeyingInterface@CryptoPP@@UAEXAAVRandomNumberGenerator@2@PAE@Z
	DD	FLAT:?GetAlgorithm@SymmetricCipher@CryptoPP@@MBEABVAlgorithm@2@XZ
	DD	FLAT:?UncheckedSetKey@BlockOrientedCipherModeBase@CryptoPP@@UAEXPBEIABVNameValuePairs@2@@Z
	DD	FLAT:?SetFeedbackSize@CipherModeBase@CryptoPP@@MAEXI@Z
	DD	FLAT:?ResizeBuffers@BlockOrientedCipherModeBase@CryptoPP@@MAEXXZ
CONST	ENDS
;	COMDAT ??_7?$BlockCipherFinal@$0A@VBase@DES_XEX3@CryptoPP@@@CryptoPP@@6BBlockTransformation@1@@
CONST	SEGMENT
??_7?$BlockCipherFinal@$0A@VBase@DES_XEX3@CryptoPP@@@CryptoPP@@6BBlockTransformation@1@@ DD FLAT:??_R4?$BlockCipherFinal@$0A@VBase@DES_XEX3@CryptoPP@@@CryptoPP@@6BBlockTransformation@1@@ ; CryptoPP::BlockCipherFinal<0,CryptoPP::DES_XEX3::Base>::`vftable'
	DD	FLAT:??_E?$BlockCipherFinal@$0A@VBase@DES_XEX3@CryptoPP@@@CryptoPP@@W3AEPAXI@Z
	DD	FLAT:?Clone@?$ClonableImpl@V?$BlockCipherFinal@$0A@VBase@DES_XEX3@CryptoPP@@@CryptoPP@@VBase@DES_XEX3@2@@CryptoPP@@UBEPAVClonable@2@XZ
	DD	FLAT:?AlgorithmName@?$AlgorithmImpl@V?$SimpleKeyingInterfaceImpl@V?$TwoBases@VBlockCipher@CryptoPP@@UDES_XEX3_Info@2@@CryptoPP@@V12@@CryptoPP@@V12@@CryptoPP@@UBE?AV?$basic_string@DU?$char_traits@D@std@@V?$allocator@D@2@@std@@XZ
	DD	FLAT:?ProcessAndXorBlock@Base@DES_XEX3@CryptoPP@@UBEXPBE0PAE@Z
	DD	FLAT:?BlockSize@?$BlockCipherImpl@UDES_XEX3_Info@CryptoPP@@VBlockCipher@2@@CryptoPP@@UBEIXZ
	DD	FLAT:?OptimalDataAlignment@BlockTransformation@CryptoPP@@UBEIXZ
	DD	FLAT:?IsPermutation@BlockTransformation@CryptoPP@@UBE_NXZ
	DD	FLAT:?IsForwardTransformation@?$BlockCipherFinal@$0A@VBase@DES_XEX3@CryptoPP@@@CryptoPP@@UBE_NXZ
	DD	FLAT:?OptimalNumberOfParallelBlocks@BlockTransformation@CryptoPP@@UBEIXZ
	DD	FLAT:?AdvancedProcessBlocks@BlockTransformation@CryptoPP@@UBEIPBE0PAEII@Z
CONST	ENDS
;	COMDAT ??_7?$BlockCipherFinal@$0A@VBase@DES_XEX3@CryptoPP@@@CryptoPP@@6BSimpleKeyingInterface@1@@
CONST	SEGMENT
??_7?$BlockCipherFinal@$0A@VBase@DES_XEX3@CryptoPP@@@CryptoPP@@6BSimpleKeyingInterface@1@@ DD FLAT:??_R4?$BlockCipherFinal@$0A@VBase@DES_XEX3@CryptoPP@@@CryptoPP@@6BSimpleKeyingInterface@1@@ ; CryptoPP::BlockCipherFinal<0,CryptoPP::DES_XEX3::Base>::`vftable'
	DD	FLAT:??_E?$BlockCipherFinal@$0A@VBase@DES_XEX3@CryptoPP@@@CryptoPP@@UAEPAXI@Z
	DD	FLAT:?MinKeyLength@?$SimpleKeyingInterfaceImpl@V?$TwoBases@VBlockCipher@CryptoPP@@UDES_XEX3_Info@2@@CryptoPP@@V12@@CryptoPP@@UBEIXZ
	DD	FLAT:?MaxKeyLength@?$SimpleKeyingInterfaceImpl@V?$TwoBases@VBlockCipher@CryptoPP@@UDES_XEX3_Info@2@@CryptoPP@@V12@@CryptoPP@@UBEIXZ
	DD	FLAT:?DefaultKeyLength@?$SimpleKeyingInterfaceImpl@V?$TwoBases@VBlockCipher@CryptoPP@@UDES_XEX3_Info@2@@CryptoPP@@V12@@CryptoPP@@UBEIXZ
	DD	FLAT:?GetValidKeyLength@?$SimpleKeyingInterfaceImpl@V?$TwoBases@VBlockCipher@CryptoPP@@UDES_XEX3_Info@2@@CryptoPP@@V12@@CryptoPP@@UBEII@Z
	DD	FLAT:?IsValidKeyLength@SimpleKeyingInterface@CryptoPP@@UBE_NI@Z
	DD	FLAT:?SetKey@SimpleKeyingInterface@CryptoPP@@UAEXPBEIABVNameValuePairs@2@@Z
	DD	FLAT:?IVRequirement@?$SimpleKeyingInterfaceImpl@V?$TwoBases@VBlockCipher@CryptoPP@@UDES_XEX3_Info@2@@CryptoPP@@V12@@CryptoPP@@UBE?AW4IV_Requirement@SimpleKeyingInterface@2@XZ
	DD	FLAT:?IVSize@?$SimpleKeyingInterfaceImpl@V?$TwoBases@VBlockCipher@CryptoPP@@UDES_XEX3_Info@2@@CryptoPP@@V12@@CryptoPP@@UBEIXZ
	DD	FLAT:?MinIVLength@SimpleKeyingInterface@CryptoPP@@UBEIXZ
	DD	FLAT:?MaxIVLength@SimpleKeyingInterface@CryptoPP@@UBEIXZ
	DD	FLAT:?Resynchronize@SimpleKeyingInterface@CryptoPP@@UAEXPBEH@Z
	DD	FLAT:?GetNextIV@SimpleKeyingInterface@CryptoPP@@UAEXAAVRandomNumberGenerator@2@PAE@Z
	DD	FLAT:?GetAlgorithm@BlockCipher@CryptoPP@@MBEABVAlgorithm@2@XZ
	DD	FLAT:?UncheckedSetKey@Base@DES_XEX3@CryptoPP@@UAEXPBEIABVNameValuePairs@3@@Z
CONST	ENDS
;	COMDAT ??_C@_08GAJHKGCM@DES?9XEX3?$AA@
CONST	SEGMENT
??_C@_08GAJHKGCM@DES?9XEX3?$AA@ DB 'DES-XEX3', 00H	; `string'
CONST	ENDS
;	COMDAT ??_C@_03CNAKKODF@DES?$AA@
CONST	SEGMENT
??_C@_03CNAKKODF@DES?$AA@ DB 'DES', 00H			; `string'
CONST	ENDS
;	COMDAT ??_C@_03MCOCJGPC@ECB?$AA@
CONST	SEGMENT
??_C@_03MCOCJGPC@ECB?$AA@ DB 'ECB', 00H			; `string'
CONST	ENDS
;	COMDAT ??_C@_0EH@FMNEDLJE@CipherModeBase?3?5feedback?5size?5ca@
CONST	SEGMENT
??_C@_0EH@FMNEDLJE@CipherModeBase?3?5feedback?5size?5ca@ DB 'CipherModeBa'
	DB	'se: feedback size cannot be specified for this cipher mode', 00H ; `string'
CONST	ENDS
;	COMDAT ??_C@_0EA@BPAJPOGP@StreamTransformation?3?5this?5objec@
CONST	SEGMENT
??_C@_0EA@BPAJPOGP@StreamTransformation?3?5this?5objec@ DB 'StreamTransfo'
	DB	'rmation: this object doesn''t support random access', 00H ; `string'
CONST	ENDS
;	COMDAT ??_C@_0DA@CJIHPKKH@?3?5this?5object?5doesn?8t?5support?5re@
CONST	SEGMENT
??_C@_0DA@CJIHPKKH@?3?5this?5object?5doesn?8t?5support?5re@ DB ': this ob'
	DB	'ject doesn''t support resynchronization', 00H ; `string'
CONST	ENDS
;	COMDAT ??_C@_0CA@CCPAJEEJ@Clone?$CI?$CJ?5is?5not?5implemented?5yet?4?$AA@
CONST	SEGMENT
??_C@_0CA@CCPAJEEJ@Clone?$CI?$CJ?5is?5not?5implemented?5yet?4?$AA@ DB 'Cl'
	DB	'one() is not implemented yet.', 00H		; `string'
CONST	ENDS
;	COMDAT __CT??_R0?AVNotImplemented@CryptoPP@@@8??0NotImplemented@CryptoPP@@QAE@ABV01@@Z40
xdata$x	SEGMENT
__CT??_R0?AVNotImplemented@CryptoPP@@@8??0NotImplemented@CryptoPP@@QAE@ABV01@@Z40 DD 00H
	DD	FLAT:??_R0?AVNotImplemented@CryptoPP@@@8
	DD	00H
	DD	0ffffffffH
	ORG $+4
	DD	028H
	DD	FLAT:??0NotImplemented@CryptoPP@@QAE@ABV01@@Z
xdata$x	ENDS
;	COMDAT ??_R0?AVNotImplemented@CryptoPP@@@8
data$r	SEGMENT
??_R0?AVNotImplemented@CryptoPP@@@8 DD FLAT:??_7type_info@@6B@ ; CryptoPP::NotImplemented `RTTI Type Descriptor'
	DD	00H
	DB	'.?AVNotImplemented@CryptoPP@@', 00H
data$r	ENDS
;	COMDAT __CTA3?AVNotImplemented@CryptoPP@@
xdata$x	SEGMENT
__CTA3?AVNotImplemented@CryptoPP@@ DD 03H
	DD	FLAT:__CT??_R0?AVNotImplemented@CryptoPP@@@8??0NotImplemented@CryptoPP@@QAE@ABV01@@Z40
	DD	FLAT:__CT??_R0?AVException@CryptoPP@@@8??0Exception@CryptoPP@@QAE@ABV01@@Z40
	DD	FLAT:__CT??_R0?AVexception@std@@@8??0exception@std@@QAE@ABV01@@Z12
xdata$x	ENDS
;	COMDAT __TI3?AVNotImplemented@CryptoPP@@
xdata$x	SEGMENT
__TI3?AVNotImplemented@CryptoPP@@ DD 00H
	DD	FLAT:??1NotImplemented@CryptoPP@@UAE@XZ
	DD	00H
	DD	FLAT:__CTA3?AVNotImplemented@CryptoPP@@
xdata$x	ENDS
;	COMDAT __CTA3?AVInvalidArgument@CryptoPP@@
xdata$x	SEGMENT
__CTA3?AVInvalidArgument@CryptoPP@@ DD 03H
	DD	FLAT:__CT??_R0?AVInvalidArgument@CryptoPP@@@8??0InvalidArgument@CryptoPP@@QAE@ABV01@@Z40
	DD	FLAT:__CT??_R0?AVException@CryptoPP@@@8??0Exception@CryptoPP@@QAE@ABV01@@Z40
	DD	FLAT:__CT??_R0?AVexception@std@@@8??0exception@std@@QAE@ABV01@@Z12
xdata$x	ENDS
;	COMDAT __TI3?AVInvalidArgument@CryptoPP@@
xdata$x	SEGMENT
__TI3?AVInvalidArgument@CryptoPP@@ DD 00H
	DD	FLAT:??1InvalidArgument@CryptoPP@@UAE@XZ
	DD	00H
	DD	FLAT:__CTA3?AVInvalidArgument@CryptoPP@@
xdata$x	ENDS
;	COMDAT __CT??_R0?AVException@CryptoPP@@@8??0Exception@CryptoPP@@QAE@ABV01@@Z40
xdata$x	SEGMENT
__CT??_R0?AVException@CryptoPP@@@8??0Exception@CryptoPP@@QAE@ABV01@@Z40 DD 00H
	DD	FLAT:??_R0?AVException@CryptoPP@@@8
	DD	00H
	DD	0ffffffffH
	ORG $+4
	DD	028H
	DD	FLAT:??0Exception@CryptoPP@@QAE@ABV01@@Z
xdata$x	ENDS
;	COMDAT ??_R0?AVException@CryptoPP@@@8
data$r	SEGMENT
??_R0?AVException@CryptoPP@@@8 DD FLAT:??_7type_info@@6B@ ; CryptoPP::Exception `RTTI Type Descriptor'
	DD	00H
	DB	'.?AVException@CryptoPP@@', 00H
data$r	ENDS
;	COMDAT __CT??_R0?AVInvalidArgument@CryptoPP@@@8??0InvalidArgument@CryptoPP@@QAE@ABV01@@Z40
xdata$x	SEGMENT
__CT??_R0?AVInvalidArgument@CryptoPP@@@8??0InvalidArgument@CryptoPP@@QAE@ABV01@@Z40 DD 00H
	DD	FLAT:??_R0?AVInvalidArgument@CryptoPP@@@8
	DD	00H
	DD	0ffffffffH
	ORG $+4
	DD	028H
	DD	FLAT:??0InvalidArgument@CryptoPP@@QAE@ABV01@@Z
xdata$x	ENDS
;	COMDAT ??_R0?AVInvalidArgument@CryptoPP@@@8
data$r	SEGMENT
??_R0?AVInvalidArgument@CryptoPP@@@8 DD FLAT:??_7type_info@@6B@ ; CryptoPP::InvalidArgument `RTTI Type Descriptor'
	DD	00H
	DB	'.?AVInvalidArgument@CryptoPP@@', 00H
data$r	ENDS
;	COMDAT ??_7NotImplemented@CryptoPP@@6B@
CONST	SEGMENT
??_7NotImplemented@CryptoPP@@6B@ DD FLAT:??_R4NotImplemented@CryptoPP@@6B@ ; CryptoPP::NotImplemented::`vftable'
	DD	FLAT:??_ENotImplemented@CryptoPP@@UAEPAXI@Z
	DD	FLAT:?what@Exception@CryptoPP@@UBEPBDXZ
CONST	ENDS
;	COMDAT ??_7InvalidArgument@CryptoPP@@6B@
CONST	SEGMENT
??_7InvalidArgument@CryptoPP@@6B@ DD FLAT:??_R4InvalidArgument@CryptoPP@@6B@ ; CryptoPP::InvalidArgument::`vftable'
	DD	FLAT:??_EInvalidArgument@CryptoPP@@UAEPAXI@Z
	DD	FLAT:?what@Exception@CryptoPP@@UBEPBDXZ
CONST	ENDS
;	COMDAT ??_7Exception@CryptoPP@@6B@
CONST	SEGMENT
??_7Exception@CryptoPP@@6B@ DD FLAT:??_R4Exception@CryptoPP@@6B@ ; CryptoPP::Exception::`vftable'
	DD	FLAT:??_EException@CryptoPP@@UAEPAXI@Z
	DD	FLAT:?what@Exception@CryptoPP@@UBEPBDXZ
CONST	ENDS
;	COMDAT ??_R1A@?0A@EA@exception@std@@8
rdata$r	SEGMENT
??_R1A@?0A@EA@exception@std@@8 DD FLAT:??_R0?AVexception@std@@@8 ; std::exception::`RTTI Base Class Descriptor at (0,-1,0,64)'
	DD	00H
	DD	00H
	DD	0ffffffffH
	DD	00H
	DD	040H
	DD	FLAT:??_R3exception@std@@8
rdata$r	ENDS
;	COMDAT ??_R2exception@std@@8
rdata$r	SEGMENT
??_R2exception@std@@8 DD FLAT:??_R1A@?0A@EA@exception@std@@8 ; std::exception::`RTTI Base Class Array'
rdata$r	ENDS
;	COMDAT ??_R3exception@std@@8
rdata$r	SEGMENT
??_R3exception@std@@8 DD 00H				; std::exception::`RTTI Class Hierarchy Descriptor'
	DD	00H
	DD	01H
	DD	FLAT:??_R2exception@std@@8
rdata$r	ENDS
;	COMDAT ??_R4exception@std@@6B@
rdata$r	SEGMENT
??_R4exception@std@@6B@ DD 00H				; std::exception::`RTTI Complete Object Locator'
	DD	00H
	DD	00H
	DD	FLAT:??_R0?AVexception@std@@@8
	DD	FLAT:??_R3exception@std@@8
rdata$r	ENDS
;	COMDAT ??_C@_0BA@JFNIOLAK@string?5too?5long?$AA@
CONST	SEGMENT
??_C@_0BA@JFNIOLAK@string?5too?5long?$AA@ DB 'string too long', 00H ; `string'
CONST	ENDS
;	COMDAT ??_C@_0BI@CFPLBAOH@invalid?5string?5position?$AA@
CONST	SEGMENT
??_C@_0BI@CFPLBAOH@invalid?5string?5position?$AA@ DB 'invalid string posi'
	DB	'tion', 00H					; `string'
CONST	ENDS
;	COMDAT __CT??_R0?AVexception@std@@@8??0exception@std@@QAE@ABV01@@Z12
xdata$x	SEGMENT
__CT??_R0?AVexception@std@@@8??0exception@std@@QAE@ABV01@@Z12 DD 00H
	DD	FLAT:??_R0?AVexception@std@@@8
	DD	00H
	DD	0ffffffffH
	ORG $+4
	DD	0cH
	DD	FLAT:??0exception@std@@QAE@ABV01@@Z
xdata$x	ENDS
;	COMDAT ??_R0?AVexception@std@@@8
data$r	SEGMENT
??_R0?AVexception@std@@@8 DD FLAT:??_7type_info@@6B@	; std::exception `RTTI Type Descriptor'
	DD	00H
	DB	'.?AVexception@std@@', 00H
data$r	ENDS
;	COMDAT ??_C@_0BC@EOODALEL@Unknown?5exception?$AA@
CONST	SEGMENT
??_C@_0BC@EOODALEL@Unknown?5exception?$AA@ DB 'Unknown exception', 00H ; `string'
CONST	ENDS
;	COMDAT ??_7exception@std@@6B@
CONST	SEGMENT
??_7exception@std@@6B@ DD FLAT:??_R4exception@std@@6B@	; std::exception::`vftable'
	DD	FLAT:??_Eexception@std@@UAEPAXI@Z
	DD	FLAT:?what@exception@std@@UBEPBDXZ
CONST	ENDS
;	COMDAT xdata$x
xdata$x	SEGMENT
__unwindtable$?StaticAlgorithmName@?$CipherModeFinalTemplate_CipherHolder@V?$BlockCipherFinal@$00VBase@DES_XEX3@CryptoPP@@@CryptoPP@@VECB_OneWay@2@@CryptoPP@@SA?AV?$basic_string@DU?$char_traits@D@std@@V?$allocator@D@2@@std@@XZ DD 0ffffffffH
	DD	FLAT:__unwindfunclet$?StaticAlgorithmName@?$CipherModeFinalTemplate_CipherHolder@V?$BlockCipherFinal@$00VBase@DES_XEX3@CryptoPP@@@CryptoPP@@VECB_OneWay@2@@CryptoPP@@SA?AV?$basic_string@DU?$char_traits@D@std@@V?$allocator@D@2@@std@@XZ$0
	DD	00H
	DD	FLAT:__unwindfunclet$?StaticAlgorithmName@?$CipherModeFinalTemplate_CipherHolder@V?$BlockCipherFinal@$00VBase@DES_XEX3@CryptoPP@@@CryptoPP@@VECB_OneWay@2@@CryptoPP@@SA?AV?$basic_string@DU?$char_traits@D@std@@V?$allocator@D@2@@std@@XZ$1
__ehfuncinfo$?StaticAlgorithmName@?$CipherModeFinalTemplate_CipherHolder@V?$BlockCipherFinal@$00VBase@DES_XEX3@CryptoPP@@@CryptoPP@@VECB_OneWay@2@@CryptoPP@@SA?AV?$basic_string@DU?$char_traits@D@std@@V?$allocator@D@2@@std@@XZ DD 019930522H
	DD	02H
	DD	FLAT:__unwindtable$?StaticAlgorithmName@?$CipherModeFinalTemplate_CipherHolder@V?$BlockCipherFinal@$00VBase@DES_XEX3@CryptoPP@@@CryptoPP@@VECB_OneWay@2@@CryptoPP@@SA?AV?$basic_string@DU?$char_traits@D@std@@V?$allocator@D@2@@std@@XZ
	DD	2 DUP(00H)
	DD	2 DUP(00H)
	DD	00H
	DD	01H
xdata$x	ENDS
;	COMDAT xdata$x
xdata$x	SEGMENT
__ehfuncinfo$??0?$CipherModeFinalTemplate_CipherHolder@V?$BlockCipherFinal@$00VBase@DES_XEX3@CryptoPP@@@CryptoPP@@VECB_OneWay@2@@CryptoPP@@QAE@XZ DD 019930522H
	DD	07H
	DD	FLAT:__unwindtable$??0?$CipherModeFinalTemplate_CipherHolder@V?$BlockCipherFinal@$00VBase@DES_XEX3@CryptoPP@@@CryptoPP@@VECB_OneWay@2@@CryptoPP@@QAE@XZ
	DD	2 DUP(00H)
	DD	2 DUP(00H)
	DD	00H
	DD	01H
__unwindtable$??0?$CipherModeFinalTemplate_CipherHolder@V?$BlockCipherFinal@$00VBase@DES_XEX3@CryptoPP@@@CryptoPP@@VECB_OneWay@2@@CryptoPP@@QAE@XZ DD 0ffffffffH
	DD	FLAT:__unwindfunclet$??0?$CipherModeFinalTemplate_CipherHolder@V?$BlockCipherFinal@$00VBase@DES_XEX3@CryptoPP@@@CryptoPP@@VECB_OneWay@2@@CryptoPP@@QAE@XZ$0
	DD	00H
	DD	00H
	DD	01H
	DD	00H
	DD	00H
	DD	FLAT:__unwindfunclet$??0?$CipherModeFinalTemplate_CipherHolder@V?$BlockCipherFinal@$00VBase@DES_XEX3@CryptoPP@@@CryptoPP@@VECB_OneWay@2@@CryptoPP@@QAE@XZ$7
	DD	03H
	DD	00H
	DD	04H
	DD	00H
	DD	00H
	DD	FLAT:__unwindfunclet$??0?$CipherModeFinalTemplate_CipherHolder@V?$BlockCipherFinal@$00VBase@DES_XEX3@CryptoPP@@@CryptoPP@@VECB_OneWay@2@@CryptoPP@@QAE@XZ$1
xdata$x	ENDS
;	COMDAT xdata$x
xdata$x	SEGMENT
__ehfuncinfo$??0?$AlgorithmImpl@VECB_OneWay@CryptoPP@@V?$CipherModeFinalTemplate_CipherHolder@V?$BlockCipherFinal@$00VBase@DES_XEX3@CryptoPP@@@CryptoPP@@VECB_OneWay@2@@2@@CryptoPP@@QAE@XZ DD 019930522H
	DD	05H
	DD	FLAT:__unwindtable$??0?$AlgorithmImpl@VECB_OneWay@CryptoPP@@V?$CipherModeFinalTemplate_CipherHolder@V?$BlockCipherFinal@$00VBase@DES_XEX3@CryptoPP@@@CryptoPP@@VECB_OneWay@2@@2@@CryptoPP@@QAE@XZ
	DD	2 DUP(00H)
	DD	2 DUP(00H)
	DD	00H
	DD	01H
__unwindtable$??0?$AlgorithmImpl@VECB_OneWay@CryptoPP@@V?$CipherModeFinalTemplate_CipherHolder@V?$BlockCipherFinal@$00VBase@DES_XEX3@CryptoPP@@@CryptoPP@@VECB_OneWay@2@@2@@CryptoPP@@QAE@XZ DD 0ffffffffH
	DD	00H
	DD	00H
	DD	00H
	DD	0ffffffffH
	DD	FLAT:__unwindfunclet$??0?$AlgorithmImpl@VECB_OneWay@CryptoPP@@V?$CipherModeFinalTemplate_CipherHolder@V?$BlockCipherFinal@$00VBase@DES_XEX3@CryptoPP@@@CryptoPP@@VECB_OneWay@2@@2@@CryptoPP@@QAE@XZ$2
	DD	02H
	DD	00H
	DD	03H
	DD	00H
xdata$x	ENDS
;	COMDAT xdata$x
xdata$x	SEGMENT
__unwindtable$?Clone@?$ClonableImpl@V?$BlockCipherFinal@$00VBase@DES_XEX3@CryptoPP@@@CryptoPP@@VBase@DES_XEX3@2@@CryptoPP@@UBEPAVClonable@2@XZ DD 0ffffffffH
	DD	FLAT:__unwindfunclet$?Clone@?$ClonableImpl@V?$BlockCipherFinal@$00VBase@DES_XEX3@CryptoPP@@@CryptoPP@@VBase@DES_XEX3@2@@CryptoPP@@UBEPAVClonable@2@XZ$0
__ehfuncinfo$?Clone@?$ClonableImpl@V?$BlockCipherFinal@$00VBase@DES_XEX3@CryptoPP@@@CryptoPP@@VBase@DES_XEX3@2@@CryptoPP@@UBEPAVClonable@2@XZ DD 019930522H
	DD	01H
	DD	FLAT:__unwindtable$?Clone@?$ClonableImpl@V?$BlockCipherFinal@$00VBase@DES_XEX3@CryptoPP@@@CryptoPP@@VBase@DES_XEX3@2@@CryptoPP@@UBEPAVClonable@2@XZ
	DD	2 DUP(00H)
	DD	2 DUP(00H)
	DD	00H
	DD	01H
xdata$x	ENDS
;	COMDAT xdata$x
xdata$x	SEGMENT
__unwindtable$?StaticAlgorithmName@?$CipherModeFinalTemplate_CipherHolder@V?$BlockCipherFinal@$0A@VBase@DES_XEX3@CryptoPP@@@CryptoPP@@VECB_OneWay@2@@CryptoPP@@SA?AV?$basic_string@DU?$char_traits@D@std@@V?$allocator@D@2@@std@@XZ DD 0ffffffffH
	DD	FLAT:__unwindfunclet$?StaticAlgorithmName@?$CipherModeFinalTemplate_CipherHolder@V?$BlockCipherFinal@$0A@VBase@DES_XEX3@CryptoPP@@@CryptoPP@@VECB_OneWay@2@@CryptoPP@@SA?AV?$basic_string@DU?$char_traits@D@std@@V?$allocator@D@2@@std@@XZ$0
	DD	00H
	DD	FLAT:__unwindfunclet$?StaticAlgorithmName@?$CipherModeFinalTemplate_CipherHolder@V?$BlockCipherFinal@$0A@VBase@DES_XEX3@CryptoPP@@@CryptoPP@@VECB_OneWay@2@@CryptoPP@@SA?AV?$basic_string@DU?$char_traits@D@std@@V?$allocator@D@2@@std@@XZ$1
__ehfuncinfo$?StaticAlgorithmName@?$CipherModeFinalTemplate_CipherHolder@V?$BlockCipherFinal@$0A@VBase@DES_XEX3@CryptoPP@@@CryptoPP@@VECB_OneWay@2@@CryptoPP@@SA?AV?$basic_string@DU?$char_traits@D@std@@V?$allocator@D@2@@std@@XZ DD 019930522H
	DD	02H
	DD	FLAT:__unwindtable$?StaticAlgorithmName@?$CipherModeFinalTemplate_CipherHolder@V?$BlockCipherFinal@$0A@VBase@DES_XEX3@CryptoPP@@@CryptoPP@@VECB_OneWay@2@@CryptoPP@@SA?AV?$basic_string@DU?$char_traits@D@std@@V?$allocator@D@2@@std@@XZ
	DD	2 DUP(00H)
	DD	2 DUP(00H)
	DD	00H
	DD	01H
xdata$x	ENDS
;	COMDAT xdata$x
xdata$x	SEGMENT
__ehfuncinfo$??0?$CipherModeFinalTemplate_CipherHolder@V?$BlockCipherFinal@$0A@VBase@DES_XEX3@CryptoPP@@@CryptoPP@@VECB_OneWay@2@@CryptoPP@@QAE@XZ DD 019930522H
	DD	07H
	DD	FLAT:__unwindtable$??0?$CipherModeFinalTemplate_CipherHolder@V?$BlockCipherFinal@$0A@VBase@DES_XEX3@CryptoPP@@@CryptoPP@@VECB_OneWay@2@@CryptoPP@@QAE@XZ
	DD	2 DUP(00H)
	DD	2 DUP(00H)
	DD	00H
	DD	01H
__unwindtable$??0?$CipherModeFinalTemplate_CipherHolder@V?$BlockCipherFinal@$0A@VBase@DES_XEX3@CryptoPP@@@CryptoPP@@VECB_OneWay@2@@CryptoPP@@QAE@XZ DD 0ffffffffH
	DD	FLAT:__unwindfunclet$??0?$CipherModeFinalTemplate_CipherHolder@V?$BlockCipherFinal@$0A@VBase@DES_XEX3@CryptoPP@@@CryptoPP@@VECB_OneWay@2@@CryptoPP@@QAE@XZ$0
	DD	00H
	DD	00H
	DD	01H
	DD	00H
	DD	00H
	DD	FLAT:__unwindfunclet$??0?$CipherModeFinalTemplate_CipherHolder@V?$BlockCipherFinal@$0A@VBase@DES_XEX3@CryptoPP@@@CryptoPP@@VECB_OneWay@2@@CryptoPP@@QAE@XZ$7
	DD	03H
	DD	00H
	DD	04H
	DD	00H
	DD	00H
	DD	FLAT:__unwindfunclet$??0?$CipherModeFinalTemplate_CipherHolder@V?$BlockCipherFinal@$0A@VBase@DES_XEX3@CryptoPP@@@CryptoPP@@VECB_OneWay@2@@CryptoPP@@QAE@XZ$1
xdata$x	ENDS
;	COMDAT xdata$x
xdata$x	SEGMENT
__ehfuncinfo$??0?$AlgorithmImpl@VECB_OneWay@CryptoPP@@V?$CipherModeFinalTemplate_CipherHolder@V?$BlockCipherFinal@$0A@VBase@DES_XEX3@CryptoPP@@@CryptoPP@@VECB_OneWay@2@@2@@CryptoPP@@QAE@XZ DD 019930522H
	DD	05H
	DD	FLAT:__unwindtable$??0?$AlgorithmImpl@VECB_OneWay@CryptoPP@@V?$CipherModeFinalTemplate_CipherHolder@V?$BlockCipherFinal@$0A@VBase@DES_XEX3@CryptoPP@@@CryptoPP@@VECB_OneWay@2@@2@@CryptoPP@@QAE@XZ
	DD	2 DUP(00H)
	DD	2 DUP(00H)
	DD	00H
	DD	01H
__unwindtable$??0?$AlgorithmImpl@VECB_OneWay@CryptoPP@@V?$CipherModeFinalTemplate_CipherHolder@V?$BlockCipherFinal@$0A@VBase@DES_XEX3@CryptoPP@@@CryptoPP@@VECB_OneWay@2@@2@@CryptoPP@@QAE@XZ DD 0ffffffffH
	DD	00H
	DD	00H
	DD	00H
	DD	0ffffffffH
	DD	FLAT:__unwindfunclet$??0?$AlgorithmImpl@VECB_OneWay@CryptoPP@@V?$CipherModeFinalTemplate_CipherHolder@V?$BlockCipherFinal@$0A@VBase@DES_XEX3@CryptoPP@@@CryptoPP@@VECB_OneWay@2@@2@@CryptoPP@@QAE@XZ$2
	DD	02H
	DD	00H
	DD	03H
	DD	00H
xdata$x	ENDS
;	COMDAT xdata$x
xdata$x	SEGMENT
__unwindtable$?Clone@?$ClonableImpl@V?$BlockCipherFinal@$0A@VBase@DES_XEX3@CryptoPP@@@CryptoPP@@VBase@DES_XEX3@2@@CryptoPP@@UBEPAVClonable@2@XZ DD 0ffffffffH
	DD	FLAT:__unwindfunclet$?Clone@?$ClonableImpl@V?$BlockCipherFinal@$0A@VBase@DES_XEX3@CryptoPP@@@CryptoPP@@VBase@DES_XEX3@2@@CryptoPP@@UBEPAVClonable@2@XZ$0
__ehfuncinfo$?Clone@?$ClonableImpl@V?$BlockCipherFinal@$0A@VBase@DES_XEX3@CryptoPP@@@CryptoPP@@VBase@DES_XEX3@2@@CryptoPP@@UBEPAVClonable@2@XZ DD 019930522H
	DD	01H
	DD	FLAT:__unwindtable$?Clone@?$ClonableImpl@V?$BlockCipherFinal@$0A@VBase@DES_XEX3@CryptoPP@@@CryptoPP@@VBase@DES_XEX3@2@@CryptoPP@@UBEPAVClonable@2@XZ
	DD	2 DUP(00H)
	DD	2 DUP(00H)
	DD	00H
	DD	01H
xdata$x	ENDS
;	COMDAT xdata$x
xdata$x	SEGMENT
__unwindtable$??0CSimpleModulus@@QAE@XZ DD 0ffffffffH
	DD	FLAT:__unwindfunclet$??0CSimpleModulus@@QAE@XZ$0
	DD	00H
	DD	FLAT:__unwindfunclet$??0CSimpleModulus@@QAE@XZ$1
__ehfuncinfo$??0CSimpleModulus@@QAE@XZ DD 019930522H
	DD	02H
	DD	FLAT:__unwindtable$??0CSimpleModulus@@QAE@XZ
	DD	2 DUP(00H)
	DD	2 DUP(00H)
	DD	00H
	DD	01H
xdata$x	ENDS
;	COMDAT xdata$x
xdata$x	SEGMENT
__unwindtable$??0Base@DES_XEX3@CryptoPP@@QAE@ABV012@@Z DD 0ffffffffH
	DD	FLAT:__unwindfunclet$??0Base@DES_XEX3@CryptoPP@@QAE@ABV012@@Z$0
	DD	00H
	DD	FLAT:__unwindfunclet$??0Base@DES_XEX3@CryptoPP@@QAE@ABV012@@Z$1
__ehfuncinfo$??0Base@DES_XEX3@CryptoPP@@QAE@ABV012@@Z DD 019930522H
	DD	02H
	DD	FLAT:__unwindtable$??0Base@DES_XEX3@CryptoPP@@QAE@ABV012@@Z
	DD	2 DUP(00H)
	DD	2 DUP(00H)
	DD	00H
	DD	01H
xdata$x	ENDS
;	COMDAT xdata$x
xdata$x	SEGMENT
__ehfuncinfo$??0ECB_OneWay@CryptoPP@@QAE@XZ DD 019930522H
	DD	05H
	DD	FLAT:__unwindtable$??0ECB_OneWay@CryptoPP@@QAE@XZ
	DD	2 DUP(00H)
	DD	2 DUP(00H)
	DD	00H
	DD	01H
__unwindtable$??0ECB_OneWay@CryptoPP@@QAE@XZ DD 0ffffffffH
	DD	00H
	DD	00H
	DD	00H
	DD	0ffffffffH
	DD	FLAT:__unwindfunclet$??0ECB_OneWay@CryptoPP@@QAE@XZ$1
	DD	02H
	DD	00H
	DD	03H
	DD	00H
xdata$x	ENDS
;	COMDAT xdata$x
xdata$x	SEGMENT
__unwindtable$??1BlockOrientedCipherModeBase@CryptoPP@@UAE@XZ DD 0ffffffffH
	DD	FLAT:__unwindfunclet$??1BlockOrientedCipherModeBase@CryptoPP@@UAE@XZ$0
	DD	0ffffffffH
	DD	FLAT:__unwindfunclet$??1BlockOrientedCipherModeBase@CryptoPP@@UAE@XZ$1
	DD	01H
	DD	FLAT:__unwindfunclet$??1BlockOrientedCipherModeBase@CryptoPP@@UAE@XZ$2
__ehfuncinfo$??1BlockOrientedCipherModeBase@CryptoPP@@UAE@XZ DD 019930522H
	DD	03H
	DD	FLAT:__unwindtable$??1BlockOrientedCipherModeBase@CryptoPP@@UAE@XZ
	DD	2 DUP(00H)
	DD	2 DUP(00H)
	DD	00H
	DD	05H
xdata$x	ENDS
;	COMDAT xdata$x
xdata$x	SEGMENT
__ehfuncinfo$??0BlockOrientedCipherModeBase@CryptoPP@@QAE@XZ DD 019930522H
	DD	05H
	DD	FLAT:__unwindtable$??0BlockOrientedCipherModeBase@CryptoPP@@QAE@XZ
	DD	2 DUP(00H)
	DD	2 DUP(00H)
	DD	00H
	DD	01H
__unwindtable$??0BlockOrientedCipherModeBase@CryptoPP@@QAE@XZ DD 0ffffffffH
	DD	00H
	DD	00H
	DD	00H
	DD	0ffffffffH
	DD	FLAT:__unwindfunclet$??0BlockOrientedCipherModeBase@CryptoPP@@QAE@XZ$0
	DD	02H
	DD	00H
	DD	03H
	DD	00H
xdata$x	ENDS
;	COMDAT xdata$x
xdata$x	SEGMENT
__unwindtable$??1CipherModeBase@CryptoPP@@UAE@XZ DD 0ffffffffH
	DD	FLAT:__unwindfunclet$??1CipherModeBase@CryptoPP@@UAE@XZ$0
__ehfuncinfo$??1CipherModeBase@CryptoPP@@UAE@XZ DD 019930522H
	DD	01H
	DD	FLAT:__unwindtable$??1CipherModeBase@CryptoPP@@UAE@XZ
	DD	2 DUP(00H)
	DD	2 DUP(00H)
	DD	00H
	DD	05H
xdata$x	ENDS
;	COMDAT xdata$x
xdata$x	SEGMENT
__ehfuncinfo$??1?$SecBlock@EV?$AllocatorWithCleanup@E$00@CryptoPP@@@CryptoPP@@QAE@XZ DD 019930522H
	DD	00H
	DD	00H
	DD	2 DUP(00H)
	DD	2 DUP(00H)
	DD	00H
	DD	05H
xdata$x	ENDS
;	COMDAT xdata$x
xdata$x	SEGMENT
__unwindtable$?SetFeedbackSize@CipherModeBase@CryptoPP@@MAEXI@Z DD 0ffffffffH
	DD	FLAT:__unwindfunclet$?SetFeedbackSize@CipherModeBase@CryptoPP@@MAEXI@Z$0
	DD	00H
	DD	FLAT:__unwindfunclet$?SetFeedbackSize@CipherModeBase@CryptoPP@@MAEXI@Z$2
__ehfuncinfo$?SetFeedbackSize@CipherModeBase@CryptoPP@@MAEXI@Z DD 019930522H
	DD	02H
	DD	FLAT:__unwindtable$?SetFeedbackSize@CipherModeBase@CryptoPP@@MAEXI@Z
	DD	2 DUP(00H)
	DD	2 DUP(00H)
	DD	00H
	DD	01H
xdata$x	ENDS
;	COMDAT xdata$x
xdata$x	SEGMENT
__unwindtable$??0CipherModeBase@CryptoPP@@IAE@XZ DD 0ffffffffH
	DD	00H
	DD	00H
	DD	00H
__ehfuncinfo$??0CipherModeBase@CryptoPP@@IAE@XZ DD 019930522H
	DD	02H
	DD	FLAT:__unwindtable$??0CipherModeBase@CryptoPP@@IAE@XZ
	DD	2 DUP(00H)
	DD	2 DUP(00H)
	DD	00H
	DD	01H
xdata$x	ENDS
;	COMDAT xdata$x
xdata$x	SEGMENT
__ehfuncinfo$??1?$SecBlock@EV?$AllocatorWithCleanup@E$0A@@CryptoPP@@@CryptoPP@@QAE@XZ DD 019930522H
	DD	00H
	DD	00H
	DD	2 DUP(00H)
	DD	2 DUP(00H)
	DD	00H
	DD	05H
xdata$x	ENDS
;	COMDAT xdata$x
xdata$x	SEGMENT
__unwindtable$?CheckSize@?$AllocatorBase@E@CryptoPP@@KAXI@Z DD 0ffffffffH
	DD	FLAT:__unwindfunclet$?CheckSize@?$AllocatorBase@E@CryptoPP@@KAXI@Z$0
	DD	00H
	DD	FLAT:__unwindfunclet$?CheckSize@?$AllocatorBase@E@CryptoPP@@KAXI@Z$36
__ehfuncinfo$?CheckSize@?$AllocatorBase@E@CryptoPP@@KAXI@Z DD 019930522H
	DD	02H
	DD	FLAT:__unwindtable$?CheckSize@?$AllocatorBase@E@CryptoPP@@KAXI@Z
	DD	2 DUP(00H)
	DD	2 DUP(00H)
	DD	00H
	DD	01H
xdata$x	ENDS
;	COMDAT xdata$x
xdata$x	SEGMENT
__unwindtable$?Seek@StreamTransformation@CryptoPP@@UAEX_K@Z DD 0ffffffffH
	DD	FLAT:__unwindfunclet$?Seek@StreamTransformation@CryptoPP@@UAEX_K@Z$0
	DD	00H
	DD	FLAT:__unwindfunclet$?Seek@StreamTransformation@CryptoPP@@UAEX_K@Z$36
__ehfuncinfo$?Seek@StreamTransformation@CryptoPP@@UAEX_K@Z DD 019930522H
	DD	02H
	DD	FLAT:__unwindtable$?Seek@StreamTransformation@CryptoPP@@UAEX_K@Z
	DD	2 DUP(00H)
	DD	2 DUP(00H)
	DD	00H
	DD	01H
xdata$x	ENDS
;	COMDAT xdata$x
xdata$x	SEGMENT
__unwindtable$?Resynchronize@SimpleKeyingInterface@CryptoPP@@UAEXPBEH@Z DD 0ffffffffH
	DD	FLAT:__unwindfunclet$?Resynchronize@SimpleKeyingInterface@CryptoPP@@UAEXPBEH@Z$0
	DD	00H
	DD	FLAT:__unwindfunclet$?Resynchronize@SimpleKeyingInterface@CryptoPP@@UAEXPBEH@Z$1
	DD	01H
	DD	FLAT:__unwindfunclet$?Resynchronize@SimpleKeyingInterface@CryptoPP@@UAEXPBEH@Z$3
__ehfuncinfo$?Resynchronize@SimpleKeyingInterface@CryptoPP@@UAEXPBEH@Z DD 019930522H
	DD	03H
	DD	FLAT:__unwindtable$?Resynchronize@SimpleKeyingInterface@CryptoPP@@UAEXPBEH@Z
	DD	2 DUP(00H)
	DD	2 DUP(00H)
	DD	00H
	DD	01H
xdata$x	ENDS
;	COMDAT xdata$x
xdata$x	SEGMENT
__unwindtable$?Clone@Clonable@CryptoPP@@UBEPAV12@XZ DD 0ffffffffH
	DD	FLAT:__unwindfunclet$?Clone@Clonable@CryptoPP@@UBEPAV12@XZ$0
	DD	00H
	DD	FLAT:__unwindfunclet$?Clone@Clonable@CryptoPP@@UBEPAV12@XZ$36
__ehfuncinfo$?Clone@Clonable@CryptoPP@@UBEPAV12@XZ DD 019930522H
	DD	02H
	DD	FLAT:__unwindtable$?Clone@Clonable@CryptoPP@@UBEPAV12@XZ
	DD	2 DUP(00H)
	DD	2 DUP(00H)
	DD	00H
	DD	01H
xdata$x	ENDS
;	COMDAT xdata$x
xdata$x	SEGMENT
__unwindtable$??0NotImplemented@CryptoPP@@QAE@ABV01@@Z DD 0ffffffffH
	DD	FLAT:__unwindfunclet$??0NotImplemented@CryptoPP@@QAE@ABV01@@Z$1
__ehfuncinfo$??0NotImplemented@CryptoPP@@QAE@ABV01@@Z DD 019930522H
	DD	01H
	DD	FLAT:__unwindtable$??0NotImplemented@CryptoPP@@QAE@ABV01@@Z
	DD	2 DUP(00H)
	DD	2 DUP(00H)
	DD	00H
	DD	01H
xdata$x	ENDS
;	COMDAT xdata$x
xdata$x	SEGMENT
__unwindtable$??0NotImplemented@CryptoPP@@QAE@ABV?$basic_string@DU?$char_traits@D@std@@V?$allocator@D@2@@std@@@Z DD 0ffffffffH
	DD	FLAT:__unwindfunclet$??0NotImplemented@CryptoPP@@QAE@ABV?$basic_string@DU?$char_traits@D@std@@V?$allocator@D@2@@std@@@Z$1
__ehfuncinfo$??0NotImplemented@CryptoPP@@QAE@ABV?$basic_string@DU?$char_traits@D@std@@V?$allocator@D@2@@std@@@Z DD 019930522H
	DD	01H
	DD	FLAT:__unwindtable$??0NotImplemented@CryptoPP@@QAE@ABV?$basic_string@DU?$char_traits@D@std@@V?$allocator@D@2@@std@@@Z
	DD	2 DUP(00H)
	DD	2 DUP(00H)
	DD	00H
	DD	01H
xdata$x	ENDS
;	COMDAT xdata$x
xdata$x	SEGMENT
__unwindtable$??0InvalidArgument@CryptoPP@@QAE@ABV01@@Z DD 0ffffffffH
	DD	FLAT:__unwindfunclet$??0InvalidArgument@CryptoPP@@QAE@ABV01@@Z$1
__ehfuncinfo$??0InvalidArgument@CryptoPP@@QAE@ABV01@@Z DD 019930522H
	DD	01H
	DD	FLAT:__unwindtable$??0InvalidArgument@CryptoPP@@QAE@ABV01@@Z
	DD	2 DUP(00H)
	DD	2 DUP(00H)
	DD	00H
	DD	01H
xdata$x	ENDS
;	COMDAT xdata$x
xdata$x	SEGMENT
__unwindtable$??0InvalidArgument@CryptoPP@@QAE@ABV?$basic_string@DU?$char_traits@D@std@@V?$allocator@D@2@@std@@@Z DD 0ffffffffH
	DD	FLAT:__unwindfunclet$??0InvalidArgument@CryptoPP@@QAE@ABV?$basic_string@DU?$char_traits@D@std@@V?$allocator@D@2@@std@@@Z$1
__ehfuncinfo$??0InvalidArgument@CryptoPP@@QAE@ABV?$basic_string@DU?$char_traits@D@std@@V?$allocator@D@2@@std@@@Z DD 019930522H
	DD	01H
	DD	FLAT:__unwindtable$??0InvalidArgument@CryptoPP@@QAE@ABV?$basic_string@DU?$char_traits@D@std@@V?$allocator@D@2@@std@@@Z
	DD	2 DUP(00H)
	DD	2 DUP(00H)
	DD	00H
	DD	01H
xdata$x	ENDS
;	COMDAT xdata$x
xdata$x	SEGMENT
__unwindtable$??0Exception@CryptoPP@@QAE@ABV01@@Z DD 0ffffffffH
	DD	FLAT:__unwindfunclet$??0Exception@CryptoPP@@QAE@ABV01@@Z$0
__ehfuncinfo$??0Exception@CryptoPP@@QAE@ABV01@@Z DD 019930522H
	DD	01H
	DD	FLAT:__unwindtable$??0Exception@CryptoPP@@QAE@ABV01@@Z
	DD	2 DUP(00H)
	DD	2 DUP(00H)
	DD	00H
	DD	01H
xdata$x	ENDS
;	COMDAT xdata$x
xdata$x	SEGMENT
__unwindtable$??0Exception@CryptoPP@@QAE@W4ErrorType@01@ABV?$basic_string@DU?$char_traits@D@std@@V?$allocator@D@2@@std@@@Z DD 0ffffffffH
	DD	FLAT:__unwindfunclet$??0Exception@CryptoPP@@QAE@W4ErrorType@01@ABV?$basic_string@DU?$char_traits@D@std@@V?$allocator@D@2@@std@@@Z$0
__ehfuncinfo$??0Exception@CryptoPP@@QAE@W4ErrorType@01@ABV?$basic_string@DU?$char_traits@D@std@@V?$allocator@D@2@@std@@@Z DD 019930522H
	DD	01H
	DD	FLAT:__unwindtable$??0Exception@CryptoPP@@QAE@W4ErrorType@01@ABV?$basic_string@DU?$char_traits@D@std@@V?$allocator@D@2@@std@@@Z
	DD	2 DUP(00H)
	DD	2 DUP(00H)
	DD	00H
	DD	01H
xdata$x	ENDS
;	COMDAT xdata$x
xdata$x	SEGMENT
__catchsym$?_Copy@?$basic_string@DU?$char_traits@D@std@@V?$allocator@D@2@@std@@QAEXII@Z$129 DD 040H
	DD	00H
	DD	00H
	DD	FLAT:__catch$?_Copy@?$basic_string@DU?$char_traits@D@std@@V?$allocator@D@2@@std@@QAEXII@Z$0
__catchsym$?_Copy@?$basic_string@DU?$char_traits@D@std@@V?$allocator@D@2@@std@@QAEXII@Z$128 DD 040H
	DD	00H
	DD	00H
	DD	FLAT:__catch$?_Copy@?$basic_string@DU?$char_traits@D@std@@V?$allocator@D@2@@std@@QAEXII@Z$1
__unwindtable$?_Copy@?$basic_string@DU?$char_traits@D@std@@V?$allocator@D@2@@std@@QAEXII@Z DD 0ffffffffH
	DD	00H
	DD	0ffffffffH
	DD	00H
	DD	01H
	DD	00H
	DD	01H
	DD	00H
__ehfuncinfo$?_Copy@?$basic_string@DU?$char_traits@D@std@@V?$allocator@D@2@@std@@QAEXII@Z DD 019930522H
	DD	04H
	DD	FLAT:__unwindtable$?_Copy@?$basic_string@DU?$char_traits@D@std@@V?$allocator@D@2@@std@@QAEXII@Z
	DD	02H
	DD	FLAT:__tryblocktable$?_Copy@?$basic_string@DU?$char_traits@D@std@@V?$allocator@D@2@@std@@QAEXII@Z
	DD	2 DUP(00H)
	DD	00H
	DD	01H
__tryblocktable$?_Copy@?$basic_string@DU?$char_traits@D@std@@V?$allocator@D@2@@std@@QAEXII@Z DD 02H
	DD	02H
	DD	03H
	DD	01H
	DD	FLAT:__catchsym$?_Copy@?$basic_string@DU?$char_traits@D@std@@V?$allocator@D@2@@std@@QAEXII@Z$128
	DD	00H
	DD	00H
	DD	03H
	DD	01H
	DD	FLAT:__catchsym$?_Copy@?$basic_string@DU?$char_traits@D@std@@V?$allocator@D@2@@std@@QAEXII@Z$129
xdata$x	ENDS
; Function compile flags: /Odsp
;	COMDAT ??_E?$CipherModeFinalTemplate_CipherHolder@V?$BlockCipherFinal@$00VBase@DES_XEX3@CryptoPP@@@CryptoPP@@VECB_OneWay@2@@CryptoPP@@W3AEPAXI@Z
_TEXT	SEGMENT
??_E?$CipherModeFinalTemplate_CipherHolder@V?$BlockCipherFinal@$00VBase@DES_XEX3@CryptoPP@@@CryptoPP@@VECB_OneWay@2@@CryptoPP@@W3AEPAXI@Z PROC ; [thunk]:CryptoPP::CipherModeFinalTemplate_CipherHolder<CryptoPP::BlockCipherFinal<1,CryptoPP::DES_XEX3::Base>,CryptoPP::ECB_OneWay>::`vector deleting destructor', COMDAT
  00000	83 e9 04	 sub	 ecx, 4
  00003	e9 00 00 00 00	 jmp	 ??_E?$CipherModeFinalTemplate_CipherHolder@V?$BlockCipherFinal@$00VBase@DES_XEX3@CryptoPP@@@CryptoPP@@VECB_OneWay@2@@CryptoPP@@UAEPAXI@Z
??_E?$CipherModeFinalTemplate_CipherHolder@V?$BlockCipherFinal@$00VBase@DES_XEX3@CryptoPP@@@CryptoPP@@VECB_OneWay@2@@CryptoPP@@W3AEPAXI@Z ENDP ; [thunk]:CryptoPP::CipherModeFinalTemplate_CipherHolder<CryptoPP::BlockCipherFinal<1,CryptoPP::DES_XEX3::Base>,CryptoPP::ECB_OneWay>::`vector deleting destructor'
_TEXT	ENDS
; Function compile flags: /Odsp
;	COMDAT ??_E?$CipherModeFinalTemplate_CipherHolder@V?$BlockCipherFinal@$0A@VBase@DES_XEX3@CryptoPP@@@CryptoPP@@VECB_OneWay@2@@CryptoPP@@W3AEPAXI@Z
_TEXT	SEGMENT
??_E?$CipherModeFinalTemplate_CipherHolder@V?$BlockCipherFinal@$0A@VBase@DES_XEX3@CryptoPP@@@CryptoPP@@VECB_OneWay@2@@CryptoPP@@W3AEPAXI@Z PROC ; [thunk]:CryptoPP::CipherModeFinalTemplate_CipherHolder<CryptoPP::BlockCipherFinal<0,CryptoPP::DES_XEX3::Base>,CryptoPP::ECB_OneWay>::`vector deleting destructor', COMDAT
  00000	83 e9 04	 sub	 ecx, 4
  00003	e9 00 00 00 00	 jmp	 ??_E?$CipherModeFinalTemplate_CipherHolder@V?$BlockCipherFinal@$0A@VBase@DES_XEX3@CryptoPP@@@CryptoPP@@VECB_OneWay@2@@CryptoPP@@UAEPAXI@Z
??_E?$CipherModeFinalTemplate_CipherHolder@V?$BlockCipherFinal@$0A@VBase@DES_XEX3@CryptoPP@@@CryptoPP@@VECB_OneWay@2@@CryptoPP@@W3AEPAXI@Z ENDP ; [thunk]:CryptoPP::CipherModeFinalTemplate_CipherHolder<CryptoPP::BlockCipherFinal<0,CryptoPP::DES_XEX3::Base>,CryptoPP::ECB_OneWay>::`vector deleting destructor'
_TEXT	ENDS
; Function compile flags: /Odsp
;	COMDAT ??_E?$BlockCipherFinal@$00VBase@DES_XEX3@CryptoPP@@@CryptoPP@@W3AEPAXI@Z
_TEXT	SEGMENT
??_E?$BlockCipherFinal@$00VBase@DES_XEX3@CryptoPP@@@CryptoPP@@W3AEPAXI@Z PROC ; [thunk]:CryptoPP::BlockCipherFinal<1,CryptoPP::DES_XEX3::Base>::`vector deleting destructor', COMDAT
  00000	83 e9 04	 sub	 ecx, 4
  00003	e9 00 00 00 00	 jmp	 ??_E?$BlockCipherFinal@$00VBase@DES_XEX3@CryptoPP@@@CryptoPP@@UAEPAXI@Z
??_E?$BlockCipherFinal@$00VBase@DES_XEX3@CryptoPP@@@CryptoPP@@W3AEPAXI@Z ENDP ; [thunk]:CryptoPP::BlockCipherFinal<1,CryptoPP::DES_XEX3::Base>::`vector deleting destructor'
_TEXT	ENDS
; Function compile flags: /Odsp
;	COMDAT ??_E?$BlockCipherFinal@$0A@VBase@DES_XEX3@CryptoPP@@@CryptoPP@@W3AEPAXI@Z
_TEXT	SEGMENT
??_E?$BlockCipherFinal@$0A@VBase@DES_XEX3@CryptoPP@@@CryptoPP@@W3AEPAXI@Z PROC ; [thunk]:CryptoPP::BlockCipherFinal<0,CryptoPP::DES_XEX3::Base>::`vector deleting destructor', COMDAT
  00000	83 e9 04	 sub	 ecx, 4
  00003	e9 00 00 00 00	 jmp	 ??_E?$BlockCipherFinal@$0A@VBase@DES_XEX3@CryptoPP@@@CryptoPP@@UAEPAXI@Z
??_E?$BlockCipherFinal@$0A@VBase@DES_XEX3@CryptoPP@@@CryptoPP@@W3AEPAXI@Z ENDP ; [thunk]:CryptoPP::BlockCipherFinal<0,CryptoPP::DES_XEX3::Base>::`vector deleting destructor'
_TEXT	ENDS
; Function compile flags: /Odsp
;	COMDAT ??_E?$BlockCipherFinal@$0A@VBase@DES@CryptoPP@@@CryptoPP@@W3AEPAXI@Z
_TEXT	SEGMENT
??_E?$BlockCipherFinal@$0A@VBase@DES@CryptoPP@@@CryptoPP@@W3AEPAXI@Z PROC ; [thunk]:CryptoPP::BlockCipherFinal<0,CryptoPP::DES::Base>::`vector deleting destructor', COMDAT
  00000	83 e9 04	 sub	 ecx, 4
  00003	e9 00 00 00 00	 jmp	 ??_E?$BlockCipherFinal@$0A@VBase@DES@CryptoPP@@@CryptoPP@@UAEPAXI@Z
??_E?$BlockCipherFinal@$0A@VBase@DES@CryptoPP@@@CryptoPP@@W3AEPAXI@Z ENDP ; [thunk]:CryptoPP::BlockCipherFinal<0,CryptoPP::DES::Base>::`vector deleting destructor'
_TEXT	ENDS
; Function compile flags: /Ogtp
; File c:\users\michel\desktop\source\gameserver\crypto\misc.h
;	COMDAT ??$STDMIN@I@CryptoPP@@YAABIABI0@Z
_TEXT	SEGMENT
_a$ = 8							; size = 4
_b$ = 12						; size = 4
??$STDMIN@I@CryptoPP@@YAABIABI0@Z PROC			; CryptoPP::STDMIN<unsigned int>, COMDAT

; 396  : {

  00000	55		 push	 ebp
  00001	8b ec		 mov	 ebp, esp

; 397  : 	return b < a ? b : a;

  00003	8b 55 0c	 mov	 edx, DWORD PTR _b$[ebp]
  00006	8b 45 08	 mov	 eax, DWORD PTR _a$[ebp]
  00009	8b 0a		 mov	 ecx, DWORD PTR [edx]
  0000b	3b 08		 cmp	 ecx, DWORD PTR [eax]
  0000d	0f 42 c2	 cmovb	 eax, edx

; 398  : }

  00010	5d		 pop	 ebp
  00011	c3		 ret	 0
??$STDMIN@I@CryptoPP@@YAABIABI0@Z ENDP			; CryptoPP::STDMIN<unsigned int>
_TEXT	ENDS
; Function compile flags: /Ogtp
; File c:\users\michel\desktop\source\gameserver\crypto\misc.h
;	COMDAT ??$GetAlignmentOf@G@CryptoPP@@YAIPAG@Z
_TEXT	SEGMENT
_dummy$ = 8						; size = 4
??$GetAlignmentOf@G@CryptoPP@@YAIPAG@Z PROC		; CryptoPP::GetAlignmentOf<unsigned short>, COMDAT

; 785  : // GCC 4.6 (circa 2008) and above aggressively uses vectorization.
; 786  : #if defined(CRYPTOPP_ALLOW_UNALIGNED_DATA_ACCESS)
; 787  : 	if (sizeof(T) < 16)
; 788  : 		return 1;

  00000	b8 01 00 00 00	 mov	 eax, 1

; 789  : #endif
; 790  : 	CRYPTOPP_UNUSED(dummy);
; 791  : #if defined(CRYPTOPP_CXX11_ALIGNOF)
; 792  : 	return alignof(T);
; 793  : #elif (_MSC_VER >= 1300)
; 794  : 	return __alignof(T);
; 795  : #elif defined(__GNUC__)
; 796  : 	return __alignof__(T);
; 797  : #elif CRYPTOPP_BOOL_SLOW_WORD64
; 798  : 	return UnsignedMin(4U, sizeof(T));
; 799  : #else
; 800  : 	return sizeof(T);
; 801  : #endif
; 802  : }

  00005	c3		 ret	 0
??$GetAlignmentOf@G@CryptoPP@@YAIPAG@Z ENDP		; CryptoPP::GetAlignmentOf<unsigned short>
_TEXT	ENDS
; Function compile flags: /Ogtp
; File c:\users\michel\desktop\source\gameserver\crypto\misc.h
;	COMDAT ??$GetAlignmentOf@I@CryptoPP@@YAIPAI@Z
_TEXT	SEGMENT
_dummy$ = 8						; size = 4
??$GetAlignmentOf@I@CryptoPP@@YAIPAI@Z PROC		; CryptoPP::GetAlignmentOf<unsigned int>, COMDAT

; 785  : // GCC 4.6 (circa 2008) and above aggressively uses vectorization.
; 786  : #if defined(CRYPTOPP_ALLOW_UNALIGNED_DATA_ACCESS)
; 787  : 	if (sizeof(T) < 16)
; 788  : 		return 1;

  00000	b8 01 00 00 00	 mov	 eax, 1

; 789  : #endif
; 790  : 	CRYPTOPP_UNUSED(dummy);
; 791  : #if defined(CRYPTOPP_CXX11_ALIGNOF)
; 792  : 	return alignof(T);
; 793  : #elif (_MSC_VER >= 1300)
; 794  : 	return __alignof(T);
; 795  : #elif defined(__GNUC__)
; 796  : 	return __alignof__(T);
; 797  : #elif CRYPTOPP_BOOL_SLOW_WORD64
; 798  : 	return UnsignedMin(4U, sizeof(T));
; 799  : #else
; 800  : 	return sizeof(T);
; 801  : #endif
; 802  : }

  00005	c3		 ret	 0
??$GetAlignmentOf@I@CryptoPP@@YAIPAI@Z ENDP		; CryptoPP::GetAlignmentOf<unsigned int>
_TEXT	ENDS
; Function compile flags: /Ogtp
; File c:\program files (x86)\microsoft visual studio 14.0\vc\include\type_traits
;	COMDAT ??$move@AAV?$basic_string@DU?$char_traits@D@std@@V?$allocator@D@2@@std@@@std@@YA$$QAV?$basic_string@DU?$char_traits@D@std@@V?$allocator@D@2@@0@AAV10@@Z
_TEXT	SEGMENT
__Arg$ = 8						; size = 4
??$move@AAV?$basic_string@DU?$char_traits@D@std@@V?$allocator@D@2@@std@@@std@@YA$$QAV?$basic_string@DU?$char_traits@D@std@@V?$allocator@D@2@@0@AAV10@@Z PROC ; std::move<std::basic_string<char,std::char_traits<char>,std::allocator<char> > &>, COMDAT

; 1249 : 	{	// forward _Arg as movable

  00000	55		 push	 ebp
  00001	8b ec		 mov	 ebp, esp

; 1250 : 	return (static_cast<typename remove_reference<_Ty>::type&&>(_Arg));

  00003	8b 45 08	 mov	 eax, DWORD PTR __Arg$[ebp]

; 1251 : 	}

  00006	5d		 pop	 ebp
  00007	c3		 ret	 0
??$move@AAV?$basic_string@DU?$char_traits@D@std@@V?$allocator@D@2@@std@@@std@@YA$$QAV?$basic_string@DU?$char_traits@D@std@@V?$allocator@D@2@@0@AAV10@@Z ENDP ; std::move<std::basic_string<char,std::char_traits<char>,std::allocator<char> > &>
_TEXT	ENDS
; Function compile flags: /Ogtp
; File c:\users\michel\desktop\source\gameserver\crypto\secblock.h
; File c:\users\michel\desktop\source\gameserver\crypto\misc.h
; File c:\users\michel\desktop\source\gameserver\crypto\secblock.h
; File c:\users\michel\desktop\source\gameserver\crypto\misc.h
; File c:\users\michel\desktop\source\gameserver\crypto\secblock.h
; File c:\users\michel\desktop\source\gameserver\crypto\misc.h
; File c:\users\michel\desktop\source\gameserver\crypto\secblock.h
; File c:\users\michel\desktop\source\gameserver\crypto\misc.h
; File c:\users\michel\desktop\source\gameserver\crypto\secblock.h
;	COMDAT ??$StandardReallocate@EV?$AllocatorWithCleanup@E$0A@@CryptoPP@@@CryptoPP@@YAPAEAAV?$AllocatorWithCleanup@E$0A@@0@PAEII_N@Z
_TEXT	SEGMENT
_alloc$ = 8						; size = 4
_oldPtr$ = 12						; size = 4
_newPointer$1$ = 16					; size = 4
_oldSize$ = 16						; size = 4
_newSize$ = 20						; size = 4
_preserve$ = 24						; size = 1
??$StandardReallocate@EV?$AllocatorWithCleanup@E$0A@@CryptoPP@@@CryptoPP@@YAPAEAAV?$AllocatorWithCleanup@E$0A@@0@PAEII_N@Z PROC ; CryptoPP::StandardReallocate<unsigned char,CryptoPP::AllocatorWithCleanup<unsigned char,0> >, COMDAT

; 120  : {

  00000	55		 push	 ebp
  00001	8b ec		 mov	 ebp, esp
  00003	53		 push	 ebx

; 121  : 	assert((oldPtr && oldSize) || !(oldPtr || oldSize));
; 122  : 	if (oldSize == newSize)

  00004	8b 5d 10	 mov	 ebx, DWORD PTR _oldSize$[ebp]
  00007	56		 push	 esi
  00008	8b 75 14	 mov	 esi, DWORD PTR _newSize$[ebp]
  0000b	3b de		 cmp	 ebx, esi
  0000d	75 07		 jne	 SHORT $LN2@StandardRe

; 123  : 		return oldPtr;

  0000f	8b 45 0c	 mov	 eax, DWORD PTR _oldPtr$[ebp]
  00012	5e		 pop	 esi
  00013	5b		 pop	 ebx

; 133  : 	}
; 134  : 	else
; 135  : 	{
; 136  : 		alloc.deallocate(oldPtr, oldSize);
; 137  : 		return alloc.allocate(newSize, NULL);
; 138  : 	}
; 139  : }

  00014	5d		 pop	 ebp
  00015	c3		 ret	 0
$LN2@StandardRe:

; 124  : 
; 125  : 	if (preserve)

  00016	80 7d 18 00	 cmp	 BYTE PTR _preserve$[ebp], 0
  0001a	57		 push	 edi
  0001b	74 54		 je	 SHORT $LN3@StandardRe

; 140  : 
; 141  : //! \class AllocatorWithCleanup
; 142  : //! \brief Allocates a block of memory with cleanup
; 143  : //! \tparam T class or type 
; 144  : //! \tparam T_Align16 boolean that determines whether allocations should be aligned on 16-byte boundaries
; 145  : //! \details If T_Align16 is true, then AllocatorWithCleanup calls AlignedAllocate()
; 146  : //!    for memory allocations. If T_Align16 is false, then AllocatorWithCleanup() calls
; 147  : //!    UnalignedAllocate() for memory allocations.
; 148  : //! \details Template parameter T_Align16 is effectively controlled by cryptlib.h and mirrors
; 149  : //!    CRYPTOPP_BOOL_ALIGN16. CRYPTOPP_BOOL_ALIGN16 is often used as the template parameter.
; 150  : template <class T, bool T_Align16 = false>
; 151  : class AllocatorWithCleanup : public AllocatorBase<T>
; 152  : {
; 153  : public:
; 154  : 	CRYPTOPP_INHERIT_ALLOCATOR_TYPES
; 155  : 
; 156  : 	//! \brief Allocates a block of memory
; 157  : 	//! \param ptr the size of the allocation
; 158  : 	//! \param size the size of the allocation
; 159  : 	//! \returns a memory block
; 160  : 	//! \throws InvalidArgument
; 161  : 	//! \details allocate() first checks the size of the request. If it is non-0
; 162  : 	//!   and less than max_size(), then an attempt is made to fulfill the request using either
; 163  : 	//!   AlignedAllocate() or UnalignedAllocate().
; 164  : 	//! \details AlignedAllocate() is used if T_Align16 is true.
; 165  : 	//!   UnalignedAllocate() used if T_Align16 is false. 
; 166  : 	//! \details This is the C++ *Placement New* operator. ptr is not used, and the function
; 167  : 	//!   asserts in Debug builds if ptr is non-NULL.
; 168  : 	//! \sa CallNewHandler() for the methods used to recover from a failed 
; 169  : 	//!   allocation attempt.
; 170  : 	//! \note size is the count of elements, and not the number of bytes
; 171  : 	pointer allocate(size_type size, const void *ptr = NULL)
; 172  : 	{
; 173  : 		CRYPTOPP_UNUSED(ptr); assert(ptr == NULL);
; 174  : 		this->CheckSize(size);

  0001d	56		 push	 esi
  0001e	e8 00 00 00 00	 call	 ?CheckSize@?$AllocatorBase@E@CryptoPP@@KAXI@Z ; CryptoPP::AllocatorBase<unsigned char>::CheckSize
  00023	83 c4 04	 add	 esp, 4

; 175  : 		if (size == 0)

  00026	85 f6		 test	 esi, esi
  00028	75 04		 jne	 SHORT $LN8@StandardRe

; 176  : 			return NULL;

  0002a	33 c0		 xor	 eax, eax
  0002c	eb 09		 jmp	 SHORT $LN60@StandardRe
$LN8@StandardRe:

; 184  : 		return (pointer)UnalignedAllocate(size*sizeof(T));

  0002e	56		 push	 esi
  0002f	e8 00 00 00 00	 call	 ?UnalignedAllocate@CryptoPP@@YAPAXI@Z ; CryptoPP::UnalignedAllocate
  00034	83 c4 04	 add	 esp, 4
$LN60@StandardRe:
; File c:\users\michel\desktop\source\gameserver\crypto\misc.h

; 397  : 	return b < a ? b : a;

  00037	3b f3		 cmp	 esi, ebx
; File c:\users\michel\desktop\source\gameserver\crypto\secblock.h

; 184  : 		return (pointer)UnalignedAllocate(size*sizeof(T));

  00039	89 45 10	 mov	 DWORD PTR _newPointer$1$[ebp], eax
; File c:\users\michel\desktop\source\gameserver\crypto\misc.h

; 397  : 	return b < a ? b : a;

  0003c	8b cb		 mov	 ecx, ebx
  0003e	0f 42 ce	 cmovb	 ecx, esi
; File c:\users\michel\desktop\source\gameserver\crypto\secblock.h

; 130  : 		if (oldPtr && newPointer) {memcpy_s(newPointer, copySize, oldPtr, copySize);}

  00041	8b 75 0c	 mov	 esi, DWORD PTR _oldPtr$[ebp]
  00044	85 f6		 test	 esi, esi
  00046	74 10		 je	 SHORT $LN5@StandardRe
  00048	85 c0		 test	 eax, eax
  0004a	74 0c		 je	 SHORT $LN5@StandardRe
  0004c	51		 push	 ecx
  0004d	56		 push	 esi
  0004e	51		 push	 ecx
  0004f	50		 push	 eax
  00050	e8 00 00 00 00	 call	 _memcpy_s
  00055	83 c4 10	 add	 esp, 16			; 00000010H
$LN5@StandardRe:
; File c:\users\michel\desktop\source\gameserver\crypto\misc.h

; 990  : 	__stosb((byte *)(size_t)p, 0, n);

  00058	32 c0		 xor	 al, al
  0005a	8b fe		 mov	 edi, esi
  0005c	8b cb		 mov	 ecx, ebx
  0005e	f3 aa		 rep stosb
; File c:\users\michel\desktop\source\gameserver\crypto\secblock.h

; 205  : 		UnalignedDeallocate(ptr);

  00060	56		 push	 esi
  00061	e8 00 00 00 00	 call	 ?UnalignedDeallocate@CryptoPP@@YAXPAX@Z ; CryptoPP::UnalignedDeallocate

; 131  : 		alloc.deallocate(oldPtr, oldSize);
; 132  : 		return newPointer;

  00066	8b 45 10	 mov	 eax, DWORD PTR _newPointer$1$[ebp]

; 184  : 		return (pointer)UnalignedAllocate(size*sizeof(T));

  00069	83 c4 04	 add	 esp, 4
  0006c	5f		 pop	 edi
  0006d	5e		 pop	 esi
  0006e	5b		 pop	 ebx

; 133  : 	}
; 134  : 	else
; 135  : 	{
; 136  : 		alloc.deallocate(oldPtr, oldSize);
; 137  : 		return alloc.allocate(newSize, NULL);
; 138  : 	}
; 139  : }

  0006f	5d		 pop	 ebp
  00070	c3		 ret	 0
$LN3@StandardRe:
; File c:\users\michel\desktop\source\gameserver\crypto\misc.h

; 990  : 	__stosb((byte *)(size_t)p, 0, n);

  00071	8b 55 0c	 mov	 edx, DWORD PTR _oldPtr$[ebp]
  00074	32 c0		 xor	 al, al
  00076	8b fa		 mov	 edi, edx
  00078	8b cb		 mov	 ecx, ebx
  0007a	f3 aa		 rep stosb
; File c:\users\michel\desktop\source\gameserver\crypto\secblock.h

; 205  : 		UnalignedDeallocate(ptr);

  0007c	52		 push	 edx
  0007d	e8 00 00 00 00	 call	 ?UnalignedDeallocate@CryptoPP@@YAXPAX@Z ; CryptoPP::UnalignedDeallocate

; 140  : 
; 141  : //! \class AllocatorWithCleanup
; 142  : //! \brief Allocates a block of memory with cleanup
; 143  : //! \tparam T class or type 
; 144  : //! \tparam T_Align16 boolean that determines whether allocations should be aligned on 16-byte boundaries
; 145  : //! \details If T_Align16 is true, then AllocatorWithCleanup calls AlignedAllocate()
; 146  : //!    for memory allocations. If T_Align16 is false, then AllocatorWithCleanup() calls
; 147  : //!    UnalignedAllocate() for memory allocations.
; 148  : //! \details Template parameter T_Align16 is effectively controlled by cryptlib.h and mirrors
; 149  : //!    CRYPTOPP_BOOL_ALIGN16. CRYPTOPP_BOOL_ALIGN16 is often used as the template parameter.
; 150  : template <class T, bool T_Align16 = false>
; 151  : class AllocatorWithCleanup : public AllocatorBase<T>
; 152  : {
; 153  : public:
; 154  : 	CRYPTOPP_INHERIT_ALLOCATOR_TYPES
; 155  : 
; 156  : 	//! \brief Allocates a block of memory
; 157  : 	//! \param ptr the size of the allocation
; 158  : 	//! \param size the size of the allocation
; 159  : 	//! \returns a memory block
; 160  : 	//! \throws InvalidArgument
; 161  : 	//! \details allocate() first checks the size of the request. If it is non-0
; 162  : 	//!   and less than max_size(), then an attempt is made to fulfill the request using either
; 163  : 	//!   AlignedAllocate() or UnalignedAllocate().
; 164  : 	//! \details AlignedAllocate() is used if T_Align16 is true.
; 165  : 	//!   UnalignedAllocate() used if T_Align16 is false. 
; 166  : 	//! \details This is the C++ *Placement New* operator. ptr is not used, and the function
; 167  : 	//!   asserts in Debug builds if ptr is non-NULL.
; 168  : 	//! \sa CallNewHandler() for the methods used to recover from a failed 
; 169  : 	//!   allocation attempt.
; 170  : 	//! \note size is the count of elements, and not the number of bytes
; 171  : 	pointer allocate(size_type size, const void *ptr = NULL)
; 172  : 	{
; 173  : 		CRYPTOPP_UNUSED(ptr); assert(ptr == NULL);
; 174  : 		this->CheckSize(size);

  00082	56		 push	 esi
  00083	e8 00 00 00 00	 call	 ?CheckSize@?$AllocatorBase@E@CryptoPP@@KAXI@Z ; CryptoPP::AllocatorBase<unsigned char>::CheckSize
  00088	83 c4 08	 add	 esp, 8

; 175  : 		if (size == 0)

  0008b	85 f6		 test	 esi, esi
  0008d	75 07		 jne	 SHORT $LN56@StandardRe
  0008f	5f		 pop	 edi
  00090	5e		 pop	 esi

; 176  : 			return NULL;

  00091	33 c0		 xor	 eax, eax
  00093	5b		 pop	 ebx

; 133  : 	}
; 134  : 	else
; 135  : 	{
; 136  : 		alloc.deallocate(oldPtr, oldSize);
; 137  : 		return alloc.allocate(newSize, NULL);
; 138  : 	}
; 139  : }

  00094	5d		 pop	 ebp
  00095	c3		 ret	 0
$LN56@StandardRe:

; 184  : 		return (pointer)UnalignedAllocate(size*sizeof(T));

  00096	56		 push	 esi
  00097	e8 00 00 00 00	 call	 ?UnalignedAllocate@CryptoPP@@YAPAXI@Z ; CryptoPP::UnalignedAllocate
  0009c	83 c4 04	 add	 esp, 4
  0009f	5f		 pop	 edi
  000a0	5e		 pop	 esi
  000a1	5b		 pop	 ebx

; 133  : 	}
; 134  : 	else
; 135  : 	{
; 136  : 		alloc.deallocate(oldPtr, oldSize);
; 137  : 		return alloc.allocate(newSize, NULL);
; 138  : 	}
; 139  : }

  000a2	5d		 pop	 ebp
  000a3	c3		 ret	 0
??$StandardReallocate@EV?$AllocatorWithCleanup@E$0A@@CryptoPP@@@CryptoPP@@YAPAEAAV?$AllocatorWithCleanup@E$0A@@0@PAEII_N@Z ENDP ; CryptoPP::StandardReallocate<unsigned char,CryptoPP::AllocatorWithCleanup<unsigned char,0> >
_TEXT	ENDS
; Function compile flags: /Ogtp
; File c:\users\michel\desktop\source\gameserver\crypto\misc.h
;	COMDAT ??$SecureWipeArray@I@CryptoPP@@YAXPAII@Z
_TEXT	SEGMENT
_buf$ = 8						; size = 4
_n$ = 12						; size = 4
??$SecureWipeArray@I@CryptoPP@@YAXPAII@Z PROC		; CryptoPP::SecureWipeArray<unsigned int>, COMDAT

; 1048 : {

  00000	55		 push	 ebp
  00001	8b ec		 mov	 ebp, esp

; 1018 : 	__stosd((unsigned long *)(size_t)p, 0, n);

  00003	8b 4d 0c	 mov	 ecx, DWORD PTR _n$[ebp]
  00006	33 c0		 xor	 eax, eax
  00008	57		 push	 edi
  00009	8b 7d 08	 mov	 edi, DWORD PTR _buf$[ebp]
  0000c	f3 ab		 rep stosd
  0000e	5f		 pop	 edi

; 1049 : 	if (sizeof(T) % 8 == 0 && GetAlignmentOf<T>() % GetAlignmentOf<word64>() == 0)
; 1050 : 		SecureWipeBuffer((word64 *)buf, n * (sizeof(T)/8));
; 1051 : 	else if (sizeof(T) % 4 == 0 && GetAlignmentOf<T>() % GetAlignmentOf<word32>() == 0)
; 1052 : 		SecureWipeBuffer((word32 *)buf, n * (sizeof(T)/4));
; 1053 : 	else if (sizeof(T) % 2 == 0 && GetAlignmentOf<T>() % GetAlignmentOf<word16>() == 0)
; 1054 : 		SecureWipeBuffer((word16 *)buf, n * (sizeof(T)/2));
; 1055 : 	else
; 1056 : 		SecureWipeBuffer((byte *)buf, n * sizeof(T));
; 1057 : }

  0000f	5d		 pop	 ebp
  00010	c3		 ret	 0
??$SecureWipeArray@I@CryptoPP@@YAXPAII@Z ENDP		; CryptoPP::SecureWipeArray<unsigned int>
_TEXT	ENDS
; Function compile flags: /Ogtp
; File c:\users\michel\desktop\source\gameserver\crypto\secblock.h
; File c:\users\michel\desktop\source\gameserver\crypto\misc.h
; File c:\users\michel\desktop\source\gameserver\crypto\secblock.h
; File c:\users\michel\desktop\source\gameserver\crypto\misc.h
; File c:\users\michel\desktop\source\gameserver\crypto\secblock.h
; File c:\users\michel\desktop\source\gameserver\crypto\misc.h
; File c:\users\michel\desktop\source\gameserver\crypto\secblock.h
;	COMDAT ??$StandardReallocate@EV?$AllocatorWithCleanup@E$00@CryptoPP@@@CryptoPP@@YAPAEAAV?$AllocatorWithCleanup@E$00@0@PAEII_N@Z
_TEXT	SEGMENT
_alloc$ = 8						; size = 4
_oldPtr$ = 12						; size = 4
_oldSize$ = 16						; size = 4
_newSize$ = 20						; size = 4
_preserve$ = 24						; size = 1
??$StandardReallocate@EV?$AllocatorWithCleanup@E$00@CryptoPP@@@CryptoPP@@YAPAEAAV?$AllocatorWithCleanup@E$00@0@PAEII_N@Z PROC ; CryptoPP::StandardReallocate<unsigned char,CryptoPP::AllocatorWithCleanup<unsigned char,1> >, COMDAT

; 120  : {

  00000	55		 push	 ebp
  00001	8b ec		 mov	 ebp, esp

; 121  : 	assert((oldPtr && oldSize) || !(oldPtr || oldSize));
; 122  : 	if (oldSize == newSize)

  00003	8b 55 10	 mov	 edx, DWORD PTR _oldSize$[ebp]
  00006	56		 push	 esi
  00007	8b 75 14	 mov	 esi, DWORD PTR _newSize$[ebp]
  0000a	3b d6		 cmp	 edx, esi
  0000c	75 06		 jne	 SHORT $LN2@StandardRe

; 123  : 		return oldPtr;

  0000e	8b 45 0c	 mov	 eax, DWORD PTR _oldPtr$[ebp]
  00011	5e		 pop	 esi

; 133  : 	}
; 134  : 	else
; 135  : 	{
; 136  : 		alloc.deallocate(oldPtr, oldSize);
; 137  : 		return alloc.allocate(newSize, NULL);
; 138  : 	}
; 139  : }

  00012	5d		 pop	 ebp
  00013	c3		 ret	 0
$LN2@StandardRe:

; 124  : 
; 125  : 	if (preserve)

  00014	80 7d 18 00	 cmp	 BYTE PTR _preserve$[ebp], 0
  00018	53		 push	 ebx
  00019	57		 push	 edi
  0001a	74 78		 je	 SHORT $LN3@StandardRe

; 140  : 
; 141  : //! \class AllocatorWithCleanup
; 142  : //! \brief Allocates a block of memory with cleanup
; 143  : //! \tparam T class or type 
; 144  : //! \tparam T_Align16 boolean that determines whether allocations should be aligned on 16-byte boundaries
; 145  : //! \details If T_Align16 is true, then AllocatorWithCleanup calls AlignedAllocate()
; 146  : //!    for memory allocations. If T_Align16 is false, then AllocatorWithCleanup() calls
; 147  : //!    UnalignedAllocate() for memory allocations.
; 148  : //! \details Template parameter T_Align16 is effectively controlled by cryptlib.h and mirrors
; 149  : //!    CRYPTOPP_BOOL_ALIGN16. CRYPTOPP_BOOL_ALIGN16 is often used as the template parameter.
; 150  : template <class T, bool T_Align16 = false>
; 151  : class AllocatorWithCleanup : public AllocatorBase<T>
; 152  : {
; 153  : public:
; 154  : 	CRYPTOPP_INHERIT_ALLOCATOR_TYPES
; 155  : 
; 156  : 	//! \brief Allocates a block of memory
; 157  : 	//! \param ptr the size of the allocation
; 158  : 	//! \param size the size of the allocation
; 159  : 	//! \returns a memory block
; 160  : 	//! \throws InvalidArgument
; 161  : 	//! \details allocate() first checks the size of the request. If it is non-0
; 162  : 	//!   and less than max_size(), then an attempt is made to fulfill the request using either
; 163  : 	//!   AlignedAllocate() or UnalignedAllocate().
; 164  : 	//! \details AlignedAllocate() is used if T_Align16 is true.
; 165  : 	//!   UnalignedAllocate() used if T_Align16 is false. 
; 166  : 	//! \details This is the C++ *Placement New* operator. ptr is not used, and the function
; 167  : 	//!   asserts in Debug builds if ptr is non-NULL.
; 168  : 	//! \sa CallNewHandler() for the methods used to recover from a failed 
; 169  : 	//!   allocation attempt.
; 170  : 	//! \note size is the count of elements, and not the number of bytes
; 171  : 	pointer allocate(size_type size, const void *ptr = NULL)
; 172  : 	{
; 173  : 		CRYPTOPP_UNUSED(ptr); assert(ptr == NULL);
; 174  : 		this->CheckSize(size);

  0001c	56		 push	 esi
  0001d	e8 00 00 00 00	 call	 ?CheckSize@?$AllocatorBase@E@CryptoPP@@KAXI@Z ; CryptoPP::AllocatorBase<unsigned char>::CheckSize
  00022	83 c4 04	 add	 esp, 4

; 175  : 		if (size == 0)

  00025	85 f6		 test	 esi, esi
  00027	75 04		 jne	 SHORT $LN8@StandardRe

; 176  : 			return NULL;

  00029	33 db		 xor	 ebx, ebx
  0002b	eb 17		 jmp	 SHORT $LN7@StandardRe
$LN8@StandardRe:

; 177  : 
; 178  : #if CRYPTOPP_BOOL_ALIGN16
; 179  : 		// TODO: should this need the test 'size*sizeof(T) >= 16'?
; 180  : 		if (T_Align16 && size*sizeof(T) >= 16)
; 181  : 			return (pointer)AlignedAllocate(size*sizeof(T));

  0002d	56		 push	 esi
  0002e	83 fe 10	 cmp	 esi, 16			; 00000010H
  00031	72 07		 jb	 SHORT $LN9@StandardRe
  00033	e8 00 00 00 00	 call	 ?AlignedAllocate@CryptoPP@@YAPAXI@Z ; CryptoPP::AlignedAllocate
  00038	eb 05		 jmp	 SHORT $LN61@StandardRe
$LN9@StandardRe:

; 182  : #endif
; 183  : 
; 184  : 		return (pointer)UnalignedAllocate(size*sizeof(T));

  0003a	e8 00 00 00 00	 call	 ?UnalignedAllocate@CryptoPP@@YAPAXI@Z ; CryptoPP::UnalignedAllocate
$LN61@StandardRe:
  0003f	8b d8		 mov	 ebx, eax
  00041	83 c4 04	 add	 esp, 4
$LN7@StandardRe:
; File c:\users\michel\desktop\source\gameserver\crypto\misc.h

; 397  : 	return b < a ? b : a;

  00044	8b 55 10	 mov	 edx, DWORD PTR _oldSize$[ebp]
  00047	3b f2		 cmp	 esi, edx
  00049	8b c2		 mov	 eax, edx
  0004b	0f 42 c6	 cmovb	 eax, esi
; File c:\users\michel\desktop\source\gameserver\crypto\secblock.h

; 130  : 		if (oldPtr && newPointer) {memcpy_s(newPointer, copySize, oldPtr, copySize);}

  0004e	8b 75 0c	 mov	 esi, DWORD PTR _oldPtr$[ebp]
  00051	85 f6		 test	 esi, esi
  00053	74 13		 je	 SHORT $LN5@StandardRe
  00055	85 db		 test	 ebx, ebx
  00057	74 0f		 je	 SHORT $LN5@StandardRe
  00059	50		 push	 eax
  0005a	56		 push	 esi
  0005b	50		 push	 eax
  0005c	53		 push	 ebx
  0005d	e8 00 00 00 00	 call	 _memcpy_s
  00062	8b 55 10	 mov	 edx, DWORD PTR _oldSize$[ebp]
  00065	83 c4 10	 add	 esp, 16			; 00000010H
$LN5@StandardRe:
; File c:\users\michel\desktop\source\gameserver\crypto\misc.h

; 990  : 	__stosb((byte *)(size_t)p, 0, n);

  00068	32 c0		 xor	 al, al
  0006a	8b fe		 mov	 edi, esi
  0006c	8b ca		 mov	 ecx, edx
  0006e	f3 aa		 rep stosb
; File c:\users\michel\desktop\source\gameserver\crypto\secblock.h

; 202  : 			return AlignedDeallocate(ptr);

  00070	56		 push	 esi
  00071	83 fa 10	 cmp	 edx, 16			; 00000010H
  00074	72 0f		 jb	 SHORT $LN14@StandardRe
  00076	e8 00 00 00 00	 call	 ?AlignedDeallocate@CryptoPP@@YAXPAX@Z ; CryptoPP::AlignedDeallocate

; 182  : #endif
; 183  : 
; 184  : 		return (pointer)UnalignedAllocate(size*sizeof(T));

  0007b	83 c4 04	 add	 esp, 4

; 131  : 		alloc.deallocate(oldPtr, oldSize);
; 132  : 		return newPointer;

  0007e	8b c3		 mov	 eax, ebx
  00080	5f		 pop	 edi
  00081	5b		 pop	 ebx
  00082	5e		 pop	 esi

; 133  : 	}
; 134  : 	else
; 135  : 	{
; 136  : 		alloc.deallocate(oldPtr, oldSize);
; 137  : 		return alloc.allocate(newSize, NULL);
; 138  : 	}
; 139  : }

  00083	5d		 pop	 ebp
  00084	c3		 ret	 0
$LN14@StandardRe:

; 203  : #endif
; 204  : 
; 205  : 		UnalignedDeallocate(ptr);

  00085	e8 00 00 00 00	 call	 ?UnalignedDeallocate@CryptoPP@@YAXPAX@Z ; CryptoPP::UnalignedDeallocate

; 182  : #endif
; 183  : 
; 184  : 		return (pointer)UnalignedAllocate(size*sizeof(T));

  0008a	83 c4 04	 add	 esp, 4

; 131  : 		alloc.deallocate(oldPtr, oldSize);
; 132  : 		return newPointer;

  0008d	8b c3		 mov	 eax, ebx
  0008f	5f		 pop	 edi
  00090	5b		 pop	 ebx
  00091	5e		 pop	 esi

; 133  : 	}
; 134  : 	else
; 135  : 	{
; 136  : 		alloc.deallocate(oldPtr, oldSize);
; 137  : 		return alloc.allocate(newSize, NULL);
; 138  : 	}
; 139  : }

  00092	5d		 pop	 ebp
  00093	c3		 ret	 0
$LN3@StandardRe:
; File c:\users\michel\desktop\source\gameserver\crypto\misc.h

; 990  : 	__stosb((byte *)(size_t)p, 0, n);

  00094	8b 5d 0c	 mov	 ebx, DWORD PTR _oldPtr$[ebp]
  00097	32 c0		 xor	 al, al
  00099	8b fb		 mov	 edi, ebx
  0009b	8b ca		 mov	 ecx, edx
  0009d	f3 aa		 rep stosb
; File c:\users\michel\desktop\source\gameserver\crypto\secblock.h

; 202  : 			return AlignedDeallocate(ptr);

  0009f	53		 push	 ebx
  000a0	83 fa 10	 cmp	 edx, 16			; 00000010H
  000a3	72 07		 jb	 SHORT $LN35@StandardRe
  000a5	e8 00 00 00 00	 call	 ?AlignedDeallocate@CryptoPP@@YAXPAX@Z ; CryptoPP::AlignedDeallocate
  000aa	eb 05		 jmp	 SHORT $LN64@StandardRe
$LN35@StandardRe:

; 203  : #endif
; 204  : 
; 205  : 		UnalignedDeallocate(ptr);

  000ac	e8 00 00 00 00	 call	 ?UnalignedDeallocate@CryptoPP@@YAXPAX@Z ; CryptoPP::UnalignedDeallocate
$LN64@StandardRe:
  000b1	83 c4 04	 add	 esp, 4

; 140  : 
; 141  : //! \class AllocatorWithCleanup
; 142  : //! \brief Allocates a block of memory with cleanup
; 143  : //! \tparam T class or type 
; 144  : //! \tparam T_Align16 boolean that determines whether allocations should be aligned on 16-byte boundaries
; 145  : //! \details If T_Align16 is true, then AllocatorWithCleanup calls AlignedAllocate()
; 146  : //!    for memory allocations. If T_Align16 is false, then AllocatorWithCleanup() calls
; 147  : //!    UnalignedAllocate() for memory allocations.
; 148  : //! \details Template parameter T_Align16 is effectively controlled by cryptlib.h and mirrors
; 149  : //!    CRYPTOPP_BOOL_ALIGN16. CRYPTOPP_BOOL_ALIGN16 is often used as the template parameter.
; 150  : template <class T, bool T_Align16 = false>
; 151  : class AllocatorWithCleanup : public AllocatorBase<T>
; 152  : {
; 153  : public:
; 154  : 	CRYPTOPP_INHERIT_ALLOCATOR_TYPES
; 155  : 
; 156  : 	//! \brief Allocates a block of memory
; 157  : 	//! \param ptr the size of the allocation
; 158  : 	//! \param size the size of the allocation
; 159  : 	//! \returns a memory block
; 160  : 	//! \throws InvalidArgument
; 161  : 	//! \details allocate() first checks the size of the request. If it is non-0
; 162  : 	//!   and less than max_size(), then an attempt is made to fulfill the request using either
; 163  : 	//!   AlignedAllocate() or UnalignedAllocate().
; 164  : 	//! \details AlignedAllocate() is used if T_Align16 is true.
; 165  : 	//!   UnalignedAllocate() used if T_Align16 is false. 
; 166  : 	//! \details This is the C++ *Placement New* operator. ptr is not used, and the function
; 167  : 	//!   asserts in Debug builds if ptr is non-NULL.
; 168  : 	//! \sa CallNewHandler() for the methods used to recover from a failed 
; 169  : 	//!   allocation attempt.
; 170  : 	//! \note size is the count of elements, and not the number of bytes
; 171  : 	pointer allocate(size_type size, const void *ptr = NULL)
; 172  : 	{
; 173  : 		CRYPTOPP_UNUSED(ptr); assert(ptr == NULL);
; 174  : 		this->CheckSize(size);

  000b4	56		 push	 esi
  000b5	e8 00 00 00 00	 call	 ?CheckSize@?$AllocatorBase@E@CryptoPP@@KAXI@Z ; CryptoPP::AllocatorBase<unsigned char>::CheckSize
  000ba	83 c4 04	 add	 esp, 4

; 175  : 		if (size == 0)

  000bd	85 f6		 test	 esi, esi
  000bf	75 07		 jne	 SHORT $LN56@StandardRe
  000c1	5f		 pop	 edi
  000c2	5b		 pop	 ebx

; 176  : 			return NULL;

  000c3	33 c0		 xor	 eax, eax
  000c5	5e		 pop	 esi

; 133  : 	}
; 134  : 	else
; 135  : 	{
; 136  : 		alloc.deallocate(oldPtr, oldSize);
; 137  : 		return alloc.allocate(newSize, NULL);
; 138  : 	}
; 139  : }

  000c6	5d		 pop	 ebp
  000c7	c3		 ret	 0
$LN56@StandardRe:

; 177  : 
; 178  : #if CRYPTOPP_BOOL_ALIGN16
; 179  : 		// TODO: should this need the test 'size*sizeof(T) >= 16'?
; 180  : 		if (T_Align16 && size*sizeof(T) >= 16)
; 181  : 			return (pointer)AlignedAllocate(size*sizeof(T));

  000c8	56		 push	 esi
  000c9	83 fe 10	 cmp	 esi, 16			; 00000010H
  000cc	72 0d		 jb	 SHORT $LN57@StandardRe
  000ce	e8 00 00 00 00	 call	 ?AlignedAllocate@CryptoPP@@YAPAXI@Z ; CryptoPP::AlignedAllocate

; 182  : #endif
; 183  : 
; 184  : 		return (pointer)UnalignedAllocate(size*sizeof(T));

  000d3	83 c4 04	 add	 esp, 4
  000d6	5f		 pop	 edi
  000d7	5b		 pop	 ebx
  000d8	5e		 pop	 esi

; 133  : 	}
; 134  : 	else
; 135  : 	{
; 136  : 		alloc.deallocate(oldPtr, oldSize);
; 137  : 		return alloc.allocate(newSize, NULL);
; 138  : 	}
; 139  : }

  000d9	5d		 pop	 ebp
  000da	c3		 ret	 0
$LN57@StandardRe:

; 182  : #endif
; 183  : 
; 184  : 		return (pointer)UnalignedAllocate(size*sizeof(T));

  000db	e8 00 00 00 00	 call	 ?UnalignedAllocate@CryptoPP@@YAPAXI@Z ; CryptoPP::UnalignedAllocate
  000e0	83 c4 04	 add	 esp, 4
  000e3	5f		 pop	 edi
  000e4	5b		 pop	 ebx
  000e5	5e		 pop	 esi

; 133  : 	}
; 134  : 	else
; 135  : 	{
; 136  : 		alloc.deallocate(oldPtr, oldSize);
; 137  : 		return alloc.allocate(newSize, NULL);
; 138  : 	}
; 139  : }

  000e6	5d		 pop	 ebp
  000e7	c3		 ret	 0
??$StandardReallocate@EV?$AllocatorWithCleanup@E$00@CryptoPP@@@CryptoPP@@YAPAEAAV?$AllocatorWithCleanup@E$00@0@PAEII_N@Z ENDP ; CryptoPP::StandardReallocate<unsigned char,CryptoPP::AllocatorWithCleanup<unsigned char,1> >
_TEXT	ENDS
; Function compile flags: /Ogtp
; File c:\users\michel\desktop\source\gameserver\crypto\misc.h
;	COMDAT ??$SecureWipeArray@E@CryptoPP@@YAXPAEI@Z
_TEXT	SEGMENT
_buf$ = 8						; size = 4
_n$ = 12						; size = 4
??$SecureWipeArray@E@CryptoPP@@YAXPAEI@Z PROC		; CryptoPP::SecureWipeArray<unsigned char>, COMDAT

; 1048 : {

  00000	55		 push	 ebp
  00001	8b ec		 mov	 ebp, esp

; 990  : 	__stosb((byte *)(size_t)p, 0, n);

  00003	8b 4d 0c	 mov	 ecx, DWORD PTR _n$[ebp]
  00006	32 c0		 xor	 al, al
  00008	57		 push	 edi
  00009	8b 7d 08	 mov	 edi, DWORD PTR _buf$[ebp]
  0000c	f3 aa		 rep stosb
  0000e	5f		 pop	 edi

; 1049 : 	if (sizeof(T) % 8 == 0 && GetAlignmentOf<T>() % GetAlignmentOf<word64>() == 0)
; 1050 : 		SecureWipeBuffer((word64 *)buf, n * (sizeof(T)/8));
; 1051 : 	else if (sizeof(T) % 4 == 0 && GetAlignmentOf<T>() % GetAlignmentOf<word32>() == 0)
; 1052 : 		SecureWipeBuffer((word32 *)buf, n * (sizeof(T)/4));
; 1053 : 	else if (sizeof(T) % 2 == 0 && GetAlignmentOf<T>() % GetAlignmentOf<word16>() == 0)
; 1054 : 		SecureWipeBuffer((word16 *)buf, n * (sizeof(T)/2));
; 1055 : 	else
; 1056 : 		SecureWipeBuffer((byte *)buf, n * sizeof(T));
; 1057 : }

  0000f	5d		 pop	 ebp
  00010	c3		 ret	 0
??$SecureWipeArray@E@CryptoPP@@YAXPAEI@Z ENDP		; CryptoPP::SecureWipeArray<unsigned char>
_TEXT	ENDS
; Function compile flags: /Ogtp
; File c:\users\michel\desktop\source\gameserver\crypto\secblock.h
; File c:\users\michel\desktop\source\gameserver\crypto\misc.h
;	COMDAT ??_G?$BlockCipherFinal@$0A@VBase@DES@CryptoPP@@@CryptoPP@@UAEPAXI@Z
_TEXT	SEGMENT
___flags$ = 8						; size = 4
??_G?$BlockCipherFinal@$0A@VBase@DES@CryptoPP@@@CryptoPP@@UAEPAXI@Z PROC ; CryptoPP::BlockCipherFinal<0,CryptoPP::DES::Base>::`scalar deleting destructor', COMDAT
; _this$ = ecx
  00000	55		 push	 ebp
  00001	8b ec		 mov	 ebp, esp
  00003	56		 push	 esi
  00004	8b f1		 mov	 esi, ecx
; File c:\users\michel\desktop\source\gameserver\crypto\secblock.h

; 468  : 		{m_alloc.deallocate(m_ptr, m_size);}

  00006	8b 8e 98 00 00
	00		 mov	 ecx, DWORD PTR [esi+152]
  0000c	8d 46 10	 lea	 eax, DWORD PTR [esi+16]
  0000f	57		 push	 edi
  00010	8b b8 8c 00 00
	00		 mov	 edi, DWORD PTR [eax+140]

; 358  : 		if (ptr == GetAlignedArray())

  00016	3b f8		 cmp	 edi, eax
  00018	75 0b		 jne	 SHORT $LN36@scalar

; 359  : 		{
; 360  : 			assert(size <= S);
; 361  : 			assert(m_allocated);
; 362  : 			m_allocated = false;

  0001a	c6 80 81 00 00
	00 00		 mov	 BYTE PTR [eax+129], 0
; File c:\users\michel\desktop\source\gameserver\crypto\misc.h

; 1018 : 	__stosd((unsigned long *)(size_t)p, 0, n);

  00021	33 c0		 xor	 eax, eax
  00023	f3 ab		 rep stosd
$LN36@scalar:
  00025	f6 45 08 01	 test	 BYTE PTR ___flags$[ebp], 1
  00029	74 0e		 je	 SHORT $LN62@scalar
  0002b	68 a0 00 00 00	 push	 160			; 000000a0H
  00030	56		 push	 esi
  00031	e8 00 00 00 00	 call	 ??3@YAXPAXI@Z		; operator delete
  00036	83 c4 08	 add	 esp, 8
$LN62@scalar:
  00039	5f		 pop	 edi
  0003a	8b c6		 mov	 eax, esi
  0003c	5e		 pop	 esi
  0003d	5d		 pop	 ebp
  0003e	c2 04 00	 ret	 4
??_G?$BlockCipherFinal@$0A@VBase@DES@CryptoPP@@@CryptoPP@@UAEPAXI@Z ENDP ; CryptoPP::BlockCipherFinal<0,CryptoPP::DES::Base>::`scalar deleting destructor'
_TEXT	ENDS
; Function compile flags: /Ogtp
;	COMDAT ??0?$BlockCipherFinal@$0A@VBase@DES@CryptoPP@@@CryptoPP@@QAE@ABV01@@Z
_TEXT	SEGMENT
_this$ = -4						; size = 4
___that$ = 8						; size = 4
??0?$BlockCipherFinal@$0A@VBase@DES@CryptoPP@@@CryptoPP@@QAE@ABV01@@Z PROC ; CryptoPP::BlockCipherFinal<0,CryptoPP::DES::Base>::BlockCipherFinal<0,CryptoPP::DES::Base>, COMDAT
; _this$ = ecx
  00000	55		 push	 ebp
  00001	8b ec		 mov	 ebp, esp
  00003	51		 push	 ecx
  00004	56		 push	 esi
  00005	8b f1		 mov	 esi, ecx
  00007	8b 4d 08	 mov	 ecx, DWORD PTR ___that$[ebp]
  0000a	89 75 fc	 mov	 DWORD PTR _this$[ebp], esi
  0000d	85 c9		 test	 ecx, ecx
  0000f	74 05		 je	 SHORT $LN21@BlockCiphe
  00011	8d 41 08	 lea	 eax, DWORD PTR [ecx+8]
  00014	eb 02		 jmp	 SHORT $LN22@BlockCiphe
$LN21@BlockCiphe:
  00016	33 c0		 xor	 eax, eax
$LN22@BlockCiphe:
  00018	8a 00		 mov	 al, BYTE PTR [eax]
  0001a	88 46 08	 mov	 BYTE PTR [esi+8], al
  0001d	85 c9		 test	 ecx, ecx
  0001f	74 05		 je	 SHORT $LN8@BlockCiphe
  00021	83 c1 10	 add	 ecx, 16			; 00000010H
  00024	eb 02		 jmp	 SHORT $LN9@BlockCiphe
$LN8@BlockCiphe:
  00026	33 c9		 xor	 ecx, ecx
$LN9@BlockCiphe:
  00028	51		 push	 ecx
  00029	8d 4e 10	 lea	 ecx, DWORD PTR [esi+16]
  0002c	e8 00 00 00 00	 call	 ??0?$SecBlock@IV?$FixedSizeAllocatorWithCleanup@I$0CA@V?$NullAllocator@I@CryptoPP@@$0A@@CryptoPP@@@CryptoPP@@QAE@ABV01@@Z ; CryptoPP::SecBlock<unsigned int,CryptoPP::FixedSizeAllocatorWithCleanup<unsigned int,32,CryptoPP::NullAllocator<unsigned int>,0> >::SecBlock<unsigned int,CryptoPP::FixedSizeAllocatorWithCleanup<unsigned int,32,CryptoPP::NullAllocator<unsigned int>,0> >
  00031	c7 06 00 00 00
	00		 mov	 DWORD PTR [esi], OFFSET ??_7?$BlockCipherFinal@$0A@VBase@DES@CryptoPP@@@CryptoPP@@6BSimpleKeyingInterface@1@@
