; Listing generated by Microsoft (R) Optimizing Compiler Version 19.00.23506.0 

	TITLE	C:\Users\Michel\Desktop\Source\GameServer\Source\SkillAdditionInfo.cpp
	.686P
	.XMM
	include listing.inc
	.model	flat

INCLUDELIB LIBCMT
INCLUDELIB OLDNAMES

PUBLIC	?__empty_global_delete@@YAXPAX@Z		; __empty_global_delete
PUBLIC	?__empty_global_delete@@YAXPAXI@Z		; __empty_global_delete
PUBLIC	??0CSkillAdditionInfo@@QAE@XZ			; CSkillAdditionInfo::CSkillAdditionInfo
PUBLIC	??1CSkillAdditionInfo@@UAE@XZ			; CSkillAdditionInfo::~CSkillAdditionInfo
PUBLIC	?Init@CSkillAdditionInfo@@QAEXXZ		; CSkillAdditionInfo::Init
PUBLIC	?Load@CSkillAdditionInfo@@QAEHPAD@Z		; CSkillAdditionInfo::Load
PUBLIC	??_GCSkillAdditionInfo@@UAEPAXI@Z		; CSkillAdditionInfo::`scalar deleting destructor'
PUBLIC	??1OBJECTSTRUCT@@QAE@XZ				; OBJECTSTRUCT::~OBJECTSTRUCT
PUBLIC	??_EOBJECTSTRUCT@@QAEPAXI@Z			; OBJECTSTRUCT::`vector deleting destructor'
PUBLIC	??_C@_00CNPNBAHC@?$AA@				; `string'
PUBLIC	??_7CSkillAdditionInfo@@6B@			; CSkillAdditionInfo::`vftable'
PUBLIC	?g_SkillAdditionInfo@@3VCSkillAdditionInfo@@A	; g_SkillAdditionInfo
PUBLIC	??_C@_0DK@MKBKHGKF@?$FLSkill?5Addition?5Info?$FN?5?9?5File?5loa@ ; `string'
PUBLIC	??_C@_0BH@KBNHBCCN@InfinityArrowSkillTime?$AA@	; `string'
PUBLIC	??_C@_09EMMBJNGJ@SkillInfo?$AA@			; `string'
PUBLIC	??_C@_0BG@DADLDHMB@InfinityArrowUseLevel?$AA@	; `string'
PUBLIC	??_C@_0CB@IEAIHDMI@InfinityArraowMPConsumptionPlus0@ ; `string'
PUBLIC	??_C@_0CB@JNBDECIJ@InfinityArraowMPConsumptionPlus1@ ; `string'
PUBLIC	??_C@_0CB@LGDOBBEK@InfinityArraowMPConsumptionPlus2@ ; `string'
PUBLIC	??_C@_0GP@EPLMPGME@?$FLSkill?5Addition?5Info?$FN?5?$FLInfinity?5@ ; `string'
PUBLIC	??_C@_0BA@HINCJBHF@FireScreamSkill?$AA@		; `string'
PUBLIC	??_C@_0CC@CACJLIIP@FireScreamExplosionAttackDistanc@ ; `string'
PUBLIC	??_C@_0BI@BFNBGAPD@FireScreamExplosionRate?$AA@	; `string'
PUBLIC	??_C@_0CD@IEHCMBMN@FireScreamMaxAttackCountSameSeri@ ; `string'
PUBLIC	??_C@_0BK@KNFOPFKG@FireScreamSerialInitCount?$AA@ ; `string'
PUBLIC	??_C@_0BG@PJAAPPCH@CheckFireScreamSerial?$AA@	; `string'
PUBLIC	??_C@_0JB@FKMAEBOB@?$FLSkill?5Addition?5Info?$FN?5?$FLFire?5Scre@ ; `string'
PUBLIC	??_C@_0BM@NMIIFKFD@SoulBarrierManaRate_Level?$CFd?$AA@ ; `string'
PUBLIC	??_C@_0GH@IFKPHEDI@?$FLSkill?5Addition?5Info?$FN?5?$FLSoulBarri@ ; `string'
PUBLIC	??_C@_0CC@HNOINJMJ@BloodStormExplosionAttackDistanc@ ; `string'
PUBLIC	??_C@_0BI@KAPENPHC@BloodStormExplosionRate?$AA@	; `string'
PUBLIC	??_C@_0BO@LNAPJDKN@BloodStormExplosionDamageProc?$AA@ ; `string'
PUBLIC	??_C@_0FF@OHPJCKLB@?$FLSkill?5Addition?5Info?$FN?5?$FLBlood?5Sto@ ; `string'
PUBLIC	??_R4CSkillAdditionInfo@@6B@			; CSkillAdditionInfo::`RTTI Complete Object Locator'
PUBLIC	??_R0?AVCSkillAdditionInfo@@@8			; CSkillAdditionInfo `RTTI Type Descriptor'
PUBLIC	??_R3CSkillAdditionInfo@@8			; CSkillAdditionInfo::`RTTI Class Hierarchy Descriptor'
PUBLIC	??_R2CSkillAdditionInfo@@8			; CSkillAdditionInfo::`RTTI Base Class Array'
PUBLIC	??_R1A@?0A@EA@CSkillAdditionInfo@@8		; CSkillAdditionInfo::`RTTI Base Class Descriptor at (0,-1,0,64)'
EXTRN	??_M@YGXPAXIIP6EX0@Z@Z:PROC			; `eh vector destructor iterator'
EXTRN	??3@YAXPAXI@Z:PROC				; operator delete
EXTRN	??_V@YAXPAXI@Z:PROC				; operator delete[]
EXTRN	_atexit:PROC
EXTRN	__imp__GetPrivateProfileIntA@16:PROC
EXTRN	__imp__wsprintfA:PROC
EXTRN	??_ECSkillAdditionInfo@@UAEPAXI@Z:PROC		; CSkillAdditionInfo::`vector deleting destructor'
EXTRN	?GetNewPath@CDirPath@@QAEPADPAD@Z:PROC		; CDirPath::GetNewPath
EXTRN	??1CSkillDelay@@UAE@XZ:PROC			; CSkillDelay::~CSkillDelay
EXTRN	??1TMonsterAIAgro@@UAE@XZ:PROC			; TMonsterAIAgro::~TMonsterAIAgro
EXTRN	@__security_check_cookie@4:PROC
EXTRN	___CxxFrameHandler3:PROC
EXTRN	??_7type_info@@6B@:QWORD			; type_info::`vftable'
EXTRN	?LogAddTD@@3P6AXPADZZA:DWORD			; LogAddTD
EXTRN	?gDirPath@@3VCDirPath@@A:BYTE			; gDirPath
EXTRN	___security_cookie:DWORD
_BSS	SEGMENT
?g_SkillAdditionInfo@@3VCSkillAdditionInfo@@A DB 06cH DUP (?) ; g_SkillAdditionInfo
_BSS	ENDS
CRT$XCU	SEGMENT
?g_SkillAdditionInfo$initializer$@@3P6AXXZA DD FLAT:??__Eg_SkillAdditionInfo@@YAXXZ ; g_SkillAdditionInfo$initializer$
CRT$XCU	ENDS
;	COMDAT ??_R1A@?0A@EA@CSkillAdditionInfo@@8
rdata$r	SEGMENT
??_R1A@?0A@EA@CSkillAdditionInfo@@8 DD FLAT:??_R0?AVCSkillAdditionInfo@@@8 ; CSkillAdditionInfo::`RTTI Base Class Descriptor at (0,-1,0,64)'
	DD	00H
	DD	00H
	DD	0ffffffffH
	DD	00H
	DD	040H
	DD	FLAT:??_R3CSkillAdditionInfo@@8
rdata$r	ENDS
;	COMDAT ??_R2CSkillAdditionInfo@@8
rdata$r	SEGMENT
??_R2CSkillAdditionInfo@@8 DD FLAT:??_R1A@?0A@EA@CSkillAdditionInfo@@8 ; CSkillAdditionInfo::`RTTI Base Class Array'
rdata$r	ENDS
;	COMDAT ??_R3CSkillAdditionInfo@@8
rdata$r	SEGMENT
??_R3CSkillAdditionInfo@@8 DD 00H			; CSkillAdditionInfo::`RTTI Class Hierarchy Descriptor'
	DD	00H
	DD	01H
	DD	FLAT:??_R2CSkillAdditionInfo@@8
rdata$r	ENDS
;	COMDAT ??_R0?AVCSkillAdditionInfo@@@8
data$r	SEGMENT
??_R0?AVCSkillAdditionInfo@@@8 DD FLAT:??_7type_info@@6B@ ; CSkillAdditionInfo `RTTI Type Descriptor'
	DD	00H
	DB	'.?AVCSkillAdditionInfo@@', 00H
data$r	ENDS
;	COMDAT ??_R4CSkillAdditionInfo@@6B@
rdata$r	SEGMENT
??_R4CSkillAdditionInfo@@6B@ DD 00H			; CSkillAdditionInfo::`RTTI Complete Object Locator'
	DD	00H
	DD	00H
	DD	FLAT:??_R0?AVCSkillAdditionInfo@@@8
	DD	FLAT:??_R3CSkillAdditionInfo@@8
rdata$r	ENDS
;	COMDAT ??_C@_0FF@OHPJCKLB@?$FLSkill?5Addition?5Info?$FN?5?$FLBlood?5Sto@
CONST	SEGMENT
??_C@_0FF@OHPJCKLB@?$FLSkill?5Addition?5Info?$FN?5?$FLBlood?5Sto@ DB '[Sk'
	DB	'ill Addition Info] [Blood Storm] Explosion Distance(%d) - Rat'
	DB	'e(%d),DamageProc(%d)', 00H			; `string'
CONST	ENDS
;	COMDAT ??_C@_0BO@LNAPJDKN@BloodStormExplosionDamageProc?$AA@
CONST	SEGMENT
??_C@_0BO@LNAPJDKN@BloodStormExplosionDamageProc?$AA@ DB 'BloodStormExplo'
	DB	'sionDamageProc', 00H			; `string'
CONST	ENDS
;	COMDAT ??_C@_0BI@KAPENPHC@BloodStormExplosionRate?$AA@
CONST	SEGMENT
??_C@_0BI@KAPENPHC@BloodStormExplosionRate?$AA@ DB 'BloodStormExplosionRa'
	DB	'te', 00H					; `string'
CONST	ENDS
;	COMDAT ??_C@_0CC@HNOINJMJ@BloodStormExplosionAttackDistanc@
CONST	SEGMENT
??_C@_0CC@HNOINJMJ@BloodStormExplosionAttackDistanc@ DB 'BloodStormExplos'
	DB	'ionAttackDistance', 00H			; `string'
CONST	ENDS
;	COMDAT ??_C@_0GH@IFKPHEDI@?$FLSkill?5Addition?5Info?$FN?5?$FLSoulBarri@
CONST	SEGMENT
??_C@_0GH@IFKPHEDI@?$FLSkill?5Addition?5Info?$FN?5?$FLSoulBarri@ DB '[Ski'
	DB	'll Addition Info] [SoulBarrier Strengrhen] BaseSkill(Level0):'
	DB	'%d, Level1:%d, 2:%d, 3:%d, 4:%d, 5:%d', 00H	; `string'
CONST	ENDS
;	COMDAT ??_C@_0BM@NMIIFKFD@SoulBarrierManaRate_Level?$CFd?$AA@
CONST	SEGMENT
??_C@_0BM@NMIIFKFD@SoulBarrierManaRate_Level?$CFd?$AA@ DB 'SoulBarrierMan'
	DB	'aRate_Level%d', 00H				; `string'
CONST	ENDS
;	COMDAT ??_C@_0JB@FKMAEBOB@?$FLSkill?5Addition?5Info?$FN?5?$FLFire?5Scre@
CONST	SEGMENT
??_C@_0JB@FKMAEBOB@?$FLSkill?5Addition?5Info?$FN?5?$FLFire?5Scre@ DB '[Sk'
	DB	'ill Addition Info] [Fire Scream] Use(%d) : Explosion Distance'
	DB	'(%d) - Rate(%d), MaxAttack_SameSerial(%d), SerialInitCount(%d'
	DB	'), Check Serial(%d)', 00H			; `string'
CONST	ENDS
;	COMDAT ??_C@_0BG@PJAAPPCH@CheckFireScreamSerial?$AA@
CONST	SEGMENT
??_C@_0BG@PJAAPPCH@CheckFireScreamSerial?$AA@ DB 'CheckFireScreamSerial', 00H ; `string'
CONST	ENDS
;	COMDAT ??_C@_0BK@KNFOPFKG@FireScreamSerialInitCount?$AA@
CONST	SEGMENT
??_C@_0BK@KNFOPFKG@FireScreamSerialInitCount?$AA@ DB 'FireScreamSerialIni'
	DB	'tCount', 00H				; `string'
CONST	ENDS
;	COMDAT ??_C@_0CD@IEHCMBMN@FireScreamMaxAttackCountSameSeri@
CONST	SEGMENT
??_C@_0CD@IEHCMBMN@FireScreamMaxAttackCountSameSeri@ DB 'FireScreamMaxAtt'
	DB	'ackCountSameSerial', 00H			; `string'
CONST	ENDS
;	COMDAT ??_C@_0BI@BFNBGAPD@FireScreamExplosionRate?$AA@
CONST	SEGMENT
??_C@_0BI@BFNBGAPD@FireScreamExplosionRate?$AA@ DB 'FireScreamExplosionRa'
	DB	'te', 00H					; `string'
CONST	ENDS
;	COMDAT ??_C@_0CC@CACJLIIP@FireScreamExplosionAttackDistanc@
CONST	SEGMENT
??_C@_0CC@CACJLIIP@FireScreamExplosionAttackDistanc@ DB 'FireScreamExplos'
	DB	'ionAttackDistance', 00H			; `string'
CONST	ENDS
;	COMDAT ??_C@_0BA@HINCJBHF@FireScreamSkill?$AA@
CONST	SEGMENT
??_C@_0BA@HINCJBHF@FireScreamSkill?$AA@ DB 'FireScreamSkill', 00H ; `string'
CONST	ENDS
;	COMDAT ??_C@_0GP@EPLMPGME@?$FLSkill?5Addition?5Info?$FN?5?$FLInfinity?5@
CONST	SEGMENT
??_C@_0GP@EPLMPGME@?$FLSkill?5Addition?5Info?$FN?5?$FLInfinity?5@ DB '[Sk'
	DB	'ill Addition Info] [Infinity Arrow] Skill Time[%d], UseLevel['
	DB	'%d], Arrow MP Consumption +0[%d] +1[%d] +2[%d]', 00H ; `string'
CONST	ENDS
;	COMDAT ??_C@_0CB@LGDOBBEK@InfinityArraowMPConsumptionPlus2@
CONST	SEGMENT
??_C@_0CB@LGDOBBEK@InfinityArraowMPConsumptionPlus2@ DB 'InfinityArraowMP'
	DB	'ConsumptionPlus2', 00H			; `string'
CONST	ENDS
;	COMDAT ??_C@_0CB@JNBDECIJ@InfinityArraowMPConsumptionPlus1@
CONST	SEGMENT
??_C@_0CB@JNBDECIJ@InfinityArraowMPConsumptionPlus1@ DB 'InfinityArraowMP'
	DB	'ConsumptionPlus1', 00H			; `string'
CONST	ENDS
;	COMDAT ??_C@_0CB@IEAIHDMI@InfinityArraowMPConsumptionPlus0@
CONST	SEGMENT
??_C@_0CB@IEAIHDMI@InfinityArraowMPConsumptionPlus0@ DB 'InfinityArraowMP'
	DB	'ConsumptionPlus0', 00H			; `string'
CONST	ENDS
;	COMDAT ??_C@_0BG@DADLDHMB@InfinityArrowUseLevel?$AA@
CONST	SEGMENT
??_C@_0BG@DADLDHMB@InfinityArrowUseLevel?$AA@ DB 'InfinityArrowUseLevel', 00H ; `string'
CONST	ENDS
;	COMDAT ??_C@_09EMMBJNGJ@SkillInfo?$AA@
CONST	SEGMENT
??_C@_09EMMBJNGJ@SkillInfo?$AA@ DB 'SkillInfo', 00H	; `string'
CONST	ENDS
;	COMDAT ??_C@_0BH@KBNHBCCN@InfinityArrowSkillTime?$AA@
CONST	SEGMENT
??_C@_0BH@KBNHBCCN@InfinityArrowSkillTime?$AA@ DB 'InfinityArrowSkillTime'
	DB	00H						; `string'
CONST	ENDS
;	COMDAT ??_C@_0DK@MKBKHGKF@?$FLSkill?5Addition?5Info?$FN?5?9?5File?5loa@
CONST	SEGMENT
??_C@_0DK@MKBKHGKF@?$FLSkill?5Addition?5Info?$FN?5?9?5File?5loa@ DB '[Ski'
	DB	'll Addition Info] - File load error : File Name Error', 00H ; `string'
CONST	ENDS
;	COMDAT ??_7CSkillAdditionInfo@@6B@
CONST	SEGMENT
??_7CSkillAdditionInfo@@6B@ DD FLAT:??_R4CSkillAdditionInfo@@6B@ ; CSkillAdditionInfo::`vftable'
	DD	FLAT:??_ECSkillAdditionInfo@@UAEPAXI@Z
CONST	ENDS
;	COMDAT ??_C@_00CNPNBAHC@?$AA@
CONST	SEGMENT
??_C@_00CNPNBAHC@?$AA@ DB 00H				; `string'
CONST	ENDS
;	COMDAT xdata$x
xdata$x	SEGMENT
__ehfuncinfo$??_EOBJECTSTRUCT@@QAEPAXI@Z DD 019930522H
	DD	00H
	DD	00H
	DD	2 DUP(00H)
	DD	2 DUP(00H)
	DD	00H
	DD	05H
xdata$x	ENDS
; Function compile flags: /Ogtp
;	COMDAT ??__Fg_SkillAdditionInfo@@YAXXZ
text$yd	SEGMENT
??__Fg_SkillAdditionInfo@@YAXXZ PROC			; `dynamic atexit destructor for 'g_SkillAdditionInfo'', COMDAT
  00000	b9 00 00 00 00	 mov	 ecx, OFFSET ?g_SkillAdditionInfo@@3VCSkillAdditionInfo@@A ; g_SkillAdditionInfo
  00005	e9 00 00 00 00	 jmp	 ??1CSkillAdditionInfo@@UAE@XZ ; CSkillAdditionInfo::~CSkillAdditionInfo
??__Fg_SkillAdditionInfo@@YAXXZ ENDP			; `dynamic atexit destructor for 'g_SkillAdditionInfo''
text$yd	ENDS
; Function compile flags: /Ogtp
; File c:\users\michel\desktop\source\gameserver\source\skilladditioninfo.cpp
;	COMDAT ??__Eg_SkillAdditionInfo@@YAXXZ
text$di	SEGMENT
??__Eg_SkillAdditionInfo@@YAXXZ PROC			; `dynamic initializer for 'g_SkillAdditionInfo'', COMDAT

; 10   : CSkillAdditionInfo g_SkillAdditionInfo;

  00000	b9 00 00 00 00	 mov	 ecx, OFFSET ?g_SkillAdditionInfo@@3VCSkillAdditionInfo@@A ; g_SkillAdditionInfo
  00005	e8 00 00 00 00	 call	 ??0CSkillAdditionInfo@@QAE@XZ ; CSkillAdditionInfo::CSkillAdditionInfo
  0000a	68 00 00 00 00	 push	 OFFSET ??__Fg_SkillAdditionInfo@@YAXXZ ; `dynamic atexit destructor for 'g_SkillAdditionInfo''
  0000f	e8 00 00 00 00	 call	 _atexit
  00014	59		 pop	 ecx
  00015	c3		 ret	 0
??__Eg_SkillAdditionInfo@@YAXXZ ENDP			; `dynamic initializer for 'g_SkillAdditionInfo''
text$di	ENDS
; Function compile flags: /Ogtp
;	COMDAT ??_EOBJECTSTRUCT@@QAEPAXI@Z
_TEXT	SEGMENT
__$EHRec$ = -12						; size = 12
___flags$ = 8						; size = 4
??_EOBJECTSTRUCT@@QAEPAXI@Z PROC			; OBJECTSTRUCT::`vector deleting destructor', COMDAT
; _this$ = ecx
  00000	55		 push	 ebp
  00001	8b ec		 mov	 ebp, esp
  00003	6a ff		 push	 -1
  00005	68 00 00 00 00	 push	 __ehhandler$??_EOBJECTSTRUCT@@QAEPAXI@Z
  0000a	64 a1 00 00 00
	00		 mov	 eax, DWORD PTR fs:0
  00010	50		 push	 eax
  00011	53		 push	 ebx
  00012	56		 push	 esi
  00013	57		 push	 edi
  00014	a1 00 00 00 00	 mov	 eax, DWORD PTR ___security_cookie
  00019	33 c5		 xor	 eax, ebp
  0001b	50		 push	 eax
  0001c	8d 45 f4	 lea	 eax, DWORD PTR __$EHRec$[ebp]
  0001f	64 a3 00 00 00
	00		 mov	 DWORD PTR fs:0, eax
  00025	8b f1		 mov	 esi, ecx
  00027	8b 5d 08	 mov	 ebx, DWORD PTR ___flags$[ebp]
  0002a	f6 c3 02	 test	 bl, 2
  0002d	74 44		 je	 SHORT $LN2@vector
  0002f	68 00 00 00 00	 push	 OFFSET ??1OBJECTSTRUCT@@QAE@XZ
  00034	ff 76 fc	 push	 DWORD PTR [esi-4]
  00037	8d 7e fc	 lea	 edi, DWORD PTR [esi-4]
  0003a	68 40 27 00 00	 push	 10048			; 00002740H
  0003f	56		 push	 esi
  00040	e8 00 00 00 00	 call	 ??_M@YGXPAXIIP6EX0@Z@Z
  00045	f6 c3 01	 test	 bl, 1
  00048	74 13		 je	 SHORT $LN3@vector
  0004a	69 0f 40 27 00
	00		 imul	 ecx, DWORD PTR [edi], 10048
  00050	83 c1 04	 add	 ecx, 4
  00053	51		 push	 ecx
  00054	57		 push	 edi
  00055	e8 00 00 00 00	 call	 ??_V@YAXPAXI@Z		; operator delete[]
  0005a	83 c4 08	 add	 esp, 8
$LN3@vector:
  0005d	8b c7		 mov	 eax, edi
  0005f	8b 4d f4	 mov	 ecx, DWORD PTR __$EHRec$[ebp]
  00062	64 89 0d 00 00
	00 00		 mov	 DWORD PTR fs:0, ecx
  00069	59		 pop	 ecx
  0006a	5f		 pop	 edi
  0006b	5e		 pop	 esi
  0006c	5b		 pop	 ebx
  0006d	8b e5		 mov	 esp, ebp
  0006f	5d		 pop	 ebp
  00070	c2 04 00	 ret	 4
$LN2@vector:
  00073	8d 8e ec 20 00
	00		 lea	 ecx, DWORD PTR [esi+8428]
  00079	e8 00 00 00 00	 call	 ??1TMonsterAIAgro@@UAE@XZ ; TMonsterAIAgro::~TMonsterAIAgro
  0007e	8d 8e 0c 16 00
	00		 lea	 ecx, DWORD PTR [esi+5644]
  00084	e8 00 00 00 00	 call	 ??1CSkillDelay@@UAE@XZ	; CSkillDelay::~CSkillDelay
  00089	f6 c3 01	 test	 bl, 1
  0008c	74 0e		 je	 SHORT $LN4@vector
  0008e	68 40 27 00 00	 push	 10048			; 00002740H
  00093	56		 push	 esi
  00094	e8 00 00 00 00	 call	 ??3@YAXPAXI@Z		; operator delete
  00099	83 c4 08	 add	 esp, 8
$LN4@vector:
  0009c	8b c6		 mov	 eax, esi
  0009e	8b 4d f4	 mov	 ecx, DWORD PTR __$EHRec$[ebp]
  000a1	64 89 0d 00 00
	00 00		 mov	 DWORD PTR fs:0, ecx
  000a8	59		 pop	 ecx
  000a9	5f		 pop	 edi
  000aa	5e		 pop	 esi
  000ab	5b		 pop	 ebx
  000ac	8b e5		 mov	 esp, ebp
  000ae	5d		 pop	 ebp
  000af	c2 04 00	 ret	 4
_TEXT	ENDS
;	COMDAT text$x
text$x	SEGMENT
__ehhandler$??_EOBJECTSTRUCT@@QAEPAXI@Z:
  00000	8b 54 24 08	 mov	 edx, DWORD PTR [esp+8]
  00004	8d 42 0c	 lea	 eax, DWORD PTR [edx+12]
  00007	8b 4a f0	 mov	 ecx, DWORD PTR [edx-16]
  0000a	33 c8		 xor	 ecx, eax
  0000c	e8 00 00 00 00	 call	 @__security_check_cookie@4
  00011	b8 00 00 00 00	 mov	 eax, OFFSET __ehfuncinfo$??_EOBJECTSTRUCT@@QAEPAXI@Z
  00016	e9 00 00 00 00	 jmp	 ___CxxFrameHandler3
text$x	ENDS
??_EOBJECTSTRUCT@@QAEPAXI@Z ENDP			; OBJECTSTRUCT::`vector deleting destructor'
; Function compile flags: /Ogtp
;	COMDAT ??1OBJECTSTRUCT@@QAE@XZ
_TEXT	SEGMENT
??1OBJECTSTRUCT@@QAE@XZ PROC				; OBJECTSTRUCT::~OBJECTSTRUCT, COMDAT
; _this$ = ecx
  00000	56		 push	 esi
  00001	8b f1		 mov	 esi, ecx
  00003	8d 8e ec 20 00
	00		 lea	 ecx, DWORD PTR [esi+8428]
  00009	e8 00 00 00 00	 call	 ??1TMonsterAIAgro@@UAE@XZ ; TMonsterAIAgro::~TMonsterAIAgro
  0000e	8d 8e 0c 16 00
	00		 lea	 ecx, DWORD PTR [esi+5644]
  00014	5e		 pop	 esi
  00015	e9 00 00 00 00	 jmp	 ??1CSkillDelay@@UAE@XZ	; CSkillDelay::~CSkillDelay
??1OBJECTSTRUCT@@QAE@XZ ENDP				; OBJECTSTRUCT::~OBJECTSTRUCT
_TEXT	ENDS
; Function compile flags: /Ogtp
;	COMDAT ??_GCSkillAdditionInfo@@UAEPAXI@Z
_TEXT	SEGMENT
___flags$ = 8						; size = 4
??_GCSkillAdditionInfo@@UAEPAXI@Z PROC			; CSkillAdditionInfo::`scalar deleting destructor', COMDAT
; _this$ = ecx
  00000	55		 push	 ebp
  00001	8b ec		 mov	 ebp, esp
  00003	56		 push	 esi
  00004	8b f1		 mov	 esi, ecx
  00006	e8 00 00 00 00	 call	 ??1CSkillAdditionInfo@@UAE@XZ ; CSkillAdditionInfo::~CSkillAdditionInfo
  0000b	f6 45 08 01	 test	 BYTE PTR ___flags$[ebp], 1
  0000f	74 0b		 je	 SHORT $LN4@scalar
  00011	6a 6c		 push	 108			; 0000006cH
  00013	56		 push	 esi
  00014	e8 00 00 00 00	 call	 ??3@YAXPAXI@Z		; operator delete
  00019	83 c4 08	 add	 esp, 8
$LN4@scalar:
  0001c	8b c6		 mov	 eax, esi
  0001e	5e		 pop	 esi
  0001f	5d		 pop	 ebp
  00020	c2 04 00	 ret	 4
??_GCSkillAdditionInfo@@UAEPAXI@Z ENDP			; CSkillAdditionInfo::`scalar deleting destructor'
_TEXT	ENDS
; Function compile flags: /Ogtp
; File c:\users\michel\desktop\source\gameserver\source\skilladditioninfo.cpp
;	COMDAT ?Load@CSkillAdditionInfo@@QAEHPAD@Z
_TEXT	SEGMENT
_this$GSCopy$1$ = -136					; size = 4
_szTmp$1 = -132						; size = 128
__$ArrayPad$ = -4					; size = 4
_lpszFileName$ = 8					; size = 4
?Load@CSkillAdditionInfo@@QAEHPAD@Z PROC		; CSkillAdditionInfo::Load, COMDAT
; _this$ = ecx

; 40   : {

  00000	55		 push	 ebp
  00001	8b ec		 mov	 ebp, esp
  00003	81 ec 88 00 00
	00		 sub	 esp, 136		; 00000088H
  00009	a1 00 00 00 00	 mov	 eax, DWORD PTR ___security_cookie
  0000e	33 c5		 xor	 eax, ebp
  00010	89 45 fc	 mov	 DWORD PTR __$ArrayPad$[ebp], eax
  00013	56		 push	 esi
  00014	57		 push	 edi
  00015	8b 7d 08	 mov	 edi, DWORD PTR _lpszFileName$[ebp]
  00018	8b f1		 mov	 esi, ecx
  0001a	89 b5 78 ff ff
	ff		 mov	 DWORD PTR _this$GSCopy$1$[ebp], esi

; 41   : 	if ( lpszFileName == NULL || strcmp(lpszFileName, "") == 0 )

  00020	85 ff		 test	 edi, edi
  00022	0f 84 ce 02 00
	00		 je	 $LN6@Load
  00028	ba 00 00 00 00	 mov	 edx, OFFSET ??_C@_00CNPNBAHC@?$AA@
  0002d	8b c7		 mov	 eax, edi
  0002f	90		 npad	 1
$LL12@Load:
  00030	8a 08		 mov	 cl, BYTE PTR [eax]
  00032	3a 0a		 cmp	 cl, BYTE PTR [edx]
  00034	75 1a		 jne	 SHORT $LN13@Load
  00036	84 c9		 test	 cl, cl
  00038	74 12		 je	 SHORT $LN14@Load
  0003a	8a 48 01	 mov	 cl, BYTE PTR [eax+1]
  0003d	3a 4a 01	 cmp	 cl, BYTE PTR [edx+1]
  00040	75 0e		 jne	 SHORT $LN13@Load
  00042	83 c0 02	 add	 eax, 2
  00045	83 c2 02	 add	 edx, 2
  00048	84 c9		 test	 cl, cl
  0004a	75 e4		 jne	 SHORT $LL12@Load
$LN14@Load:
  0004c	33 c0		 xor	 eax, eax
  0004e	eb 05		 jmp	 SHORT $LN15@Load
$LN13@Load:
  00050	1b c0		 sbb	 eax, eax
  00052	83 c8 01	 or	 eax, 1
$LN15@Load:
  00055	85 c0		 test	 eax, eax
  00057	0f 84 99 02 00
	00		 je	 $LN6@Load

; 44   : 		return FALSE;
; 45   : 	}
; 46   : 
; 47   : 	this->m_iInfinityArrowSkillTime = GetPrivateProfileInt("SkillInfo", "InfinityArrowSkillTime", 600, gDirPath.GetNewPath(lpszFileName)); 

  0005d	53		 push	 ebx
  0005e	57		 push	 edi
  0005f	b9 00 00 00 00	 mov	 ecx, OFFSET ?gDirPath@@3VCDirPath@@A ; gDirPath
  00064	e8 00 00 00 00	 call	 ?GetNewPath@CDirPath@@QAEPADPAD@Z ; CDirPath::GetNewPath
  00069	8b 1d 00 00 00
	00		 mov	 ebx, DWORD PTR __imp__GetPrivateProfileIntA@16
  0006f	50		 push	 eax
  00070	68 58 02 00 00	 push	 600			; 00000258H
  00075	68 00 00 00 00	 push	 OFFSET ??_C@_0BH@KBNHBCCN@InfinityArrowSkillTime?$AA@
  0007a	68 00 00 00 00	 push	 OFFSET ??_C@_09EMMBJNGJ@SkillInfo?$AA@
  0007f	ff d3		 call	 ebx

; 48   : 	this->m_iInfinityArrowUseLevel = GetPrivateProfileInt("SkillInfo", "InfinityArrowUseLevel", 220, gDirPath.GetNewPath(lpszFileName)); 

  00081	57		 push	 edi
  00082	b9 00 00 00 00	 mov	 ecx, OFFSET ?gDirPath@@3VCDirPath@@A ; gDirPath
  00087	89 46 04	 mov	 DWORD PTR [esi+4], eax
  0008a	e8 00 00 00 00	 call	 ?GetNewPath@CDirPath@@QAEPADPAD@Z ; CDirPath::GetNewPath
  0008f	50		 push	 eax
  00090	68 dc 00 00 00	 push	 220			; 000000dcH
  00095	68 00 00 00 00	 push	 OFFSET ??_C@_0BG@DADLDHMB@InfinityArrowUseLevel?$AA@
  0009a	68 00 00 00 00	 push	 OFFSET ??_C@_09EMMBJNGJ@SkillInfo?$AA@
  0009f	ff d3		 call	 ebx

; 49   : 	this->m_iInfinityArrowMPConsumptionPlus0 = GetPrivateProfileInt("SkillInfo", "InfinityArraowMPConsumptionPlus0", 0, gDirPath.GetNewPath(lpszFileName));

  000a1	57		 push	 edi
  000a2	b9 00 00 00 00	 mov	 ecx, OFFSET ?gDirPath@@3VCDirPath@@A ; gDirPath
  000a7	89 46 08	 mov	 DWORD PTR [esi+8], eax
  000aa	e8 00 00 00 00	 call	 ?GetNewPath@CDirPath@@QAEPADPAD@Z ; CDirPath::GetNewPath
  000af	50		 push	 eax
  000b0	6a 00		 push	 0
  000b2	68 00 00 00 00	 push	 OFFSET ??_C@_0CB@IEAIHDMI@InfinityArraowMPConsumptionPlus0@
  000b7	68 00 00 00 00	 push	 OFFSET ??_C@_09EMMBJNGJ@SkillInfo?$AA@
  000bc	ff d3		 call	 ebx

; 50   : 	this->m_iInfinityArrowMPConsumptionPlus1 = GetPrivateProfileInt("SkillInfo", "InfinityArraowMPConsumptionPlus1", 0, gDirPath.GetNewPath(lpszFileName));

  000be	57		 push	 edi
  000bf	b9 00 00 00 00	 mov	 ecx, OFFSET ?gDirPath@@3VCDirPath@@A ; gDirPath
  000c4	89 46 0c	 mov	 DWORD PTR [esi+12], eax
  000c7	e8 00 00 00 00	 call	 ?GetNewPath@CDirPath@@QAEPADPAD@Z ; CDirPath::GetNewPath
  000cc	50		 push	 eax
  000cd	6a 00		 push	 0
  000cf	68 00 00 00 00	 push	 OFFSET ??_C@_0CB@JNBDECIJ@InfinityArraowMPConsumptionPlus1@
  000d4	68 00 00 00 00	 push	 OFFSET ??_C@_09EMMBJNGJ@SkillInfo?$AA@
  000d9	ff d3		 call	 ebx

; 51   : 	this->m_iInfinityArrowMPConsumptionPlus2 = GetPrivateProfileInt("SkillInfo", "InfinityArraowMPConsumptionPlus2", 0, gDirPath.GetNewPath(lpszFileName));

  000db	57		 push	 edi
  000dc	b9 00 00 00 00	 mov	 ecx, OFFSET ?gDirPath@@3VCDirPath@@A ; gDirPath
  000e1	89 46 10	 mov	 DWORD PTR [esi+16], eax
  000e4	e8 00 00 00 00	 call	 ?GetNewPath@CDirPath@@QAEPADPAD@Z ; CDirPath::GetNewPath
  000e9	50		 push	 eax
  000ea	6a 00		 push	 0
  000ec	68 00 00 00 00	 push	 OFFSET ??_C@_0CB@LGDOBBEK@InfinityArraowMPConsumptionPlus2@
  000f1	68 00 00 00 00	 push	 OFFSET ??_C@_09EMMBJNGJ@SkillInfo?$AA@
  000f6	ff d3		 call	 ebx

; 52   : 
; 53   : 
; 54   : 	LogAddTD("[Skill Addition Info] [Infinity Arrow] Skill Time[%d], UseLevel[%d], Arrow MP Consumption +0[%d] +1[%d] +2[%d]",

  000f8	50		 push	 eax
  000f9	ff 76 10	 push	 DWORD PTR [esi+16]
  000fc	89 46 14	 mov	 DWORD PTR [esi+20], eax
  000ff	ff 76 0c	 push	 DWORD PTR [esi+12]
  00102	ff 76 08	 push	 DWORD PTR [esi+8]
  00105	ff 76 04	 push	 DWORD PTR [esi+4]
  00108	68 00 00 00 00	 push	 OFFSET ??_C@_0GP@EPLMPGME@?$FLSkill?5Addition?5Info?$FN?5?$FLInfinity?5@
  0010d	ff 15 00 00 00
	00		 call	 DWORD PTR ?LogAddTD@@3P6AXPADZZA ; LogAddTD
  00113	83 c4 18	 add	 esp, 24			; 00000018H

; 55   : 		this->m_iInfinityArrowSkillTime, this->m_iInfinityArrowUseLevel,
; 56   : 		this->m_iInfinityArrowMPConsumptionPlus0, this->m_iInfinityArrowMPConsumptionPlus1,
; 57   : 		this->m_iInfinityArrowMPConsumptionPlus2);
; 58   : 
; 59   : 	this->m_bFireScreamSkill = GetPrivateProfileInt("SkillInfo", "FireScreamSkill", 1, gDirPath.GetNewPath(lpszFileName));

  00116	b9 00 00 00 00	 mov	 ecx, OFFSET ?gDirPath@@3VCDirPath@@A ; gDirPath
  0011b	57		 push	 edi
  0011c	e8 00 00 00 00	 call	 ?GetNewPath@CDirPath@@QAEPADPAD@Z ; CDirPath::GetNewPath
  00121	50		 push	 eax
  00122	6a 01		 push	 1
  00124	68 00 00 00 00	 push	 OFFSET ??_C@_0BA@HINCJBHF@FireScreamSkill?$AA@
  00129	68 00 00 00 00	 push	 OFFSET ??_C@_09EMMBJNGJ@SkillInfo?$AA@
  0012e	ff d3		 call	 ebx

; 60   : 	this->m_iFireScreamExplosionAttackDistance = GetPrivateProfileInt("SkillInfo", "FireScreamExplosionAttackDistance", 1, gDirPath.GetNewPath(lpszFileName));

  00130	57		 push	 edi
  00131	b9 00 00 00 00	 mov	 ecx, OFFSET ?gDirPath@@3VCDirPath@@A ; gDirPath
  00136	89 46 1c	 mov	 DWORD PTR [esi+28], eax
  00139	e8 00 00 00 00	 call	 ?GetNewPath@CDirPath@@QAEPADPAD@Z ; CDirPath::GetNewPath
  0013e	50		 push	 eax
  0013f	6a 01		 push	 1
  00141	68 00 00 00 00	 push	 OFFSET ??_C@_0CC@CACJLIIP@FireScreamExplosionAttackDistanc@
  00146	68 00 00 00 00	 push	 OFFSET ??_C@_09EMMBJNGJ@SkillInfo?$AA@
  0014b	ff d3		 call	 ebx

; 61   : 	this->m_iFireScreamExplosionRate = GetPrivateProfileInt("SkillInfo", "FireScreamExplosionRate", 300, gDirPath.GetNewPath(lpszFileName));

  0014d	57		 push	 edi
  0014e	b9 00 00 00 00	 mov	 ecx, OFFSET ?gDirPath@@3VCDirPath@@A ; gDirPath
  00153	89 46 20	 mov	 DWORD PTR [esi+32], eax
  00156	e8 00 00 00 00	 call	 ?GetNewPath@CDirPath@@QAEPADPAD@Z ; CDirPath::GetNewPath
  0015b	50		 push	 eax
  0015c	68 2c 01 00 00	 push	 300			; 0000012cH
  00161	68 00 00 00 00	 push	 OFFSET ??_C@_0BI@BFNBGAPD@FireScreamExplosionRate?$AA@
  00166	68 00 00 00 00	 push	 OFFSET ??_C@_09EMMBJNGJ@SkillInfo?$AA@
  0016b	ff d3		 call	 ebx

; 62   : 	this->m_iFireScreamMaxAttackCountSameSerial = GetPrivateProfileInt("SkillInfo", "FireScreamMaxAttackCountSameSerial", 3, gDirPath.GetNewPath(lpszFileName));

  0016d	57		 push	 edi
  0016e	b9 00 00 00 00	 mov	 ecx, OFFSET ?gDirPath@@3VCDirPath@@A ; gDirPath
  00173	89 46 24	 mov	 DWORD PTR [esi+36], eax
  00176	e8 00 00 00 00	 call	 ?GetNewPath@CDirPath@@QAEPADPAD@Z ; CDirPath::GetNewPath
  0017b	50		 push	 eax
  0017c	6a 03		 push	 3
  0017e	68 00 00 00 00	 push	 OFFSET ??_C@_0CD@IEHCMBMN@FireScreamMaxAttackCountSameSeri@
  00183	68 00 00 00 00	 push	 OFFSET ??_C@_09EMMBJNGJ@SkillInfo?$AA@
  00188	ff d3		 call	 ebx

; 63   : 	this->m_iFireScreamSerialInitCount = GetPrivateProfileInt("SkillInfo", "FireScreamSerialInitCount", 100, gDirPath.GetNewPath(lpszFileName));

  0018a	57		 push	 edi
  0018b	b9 00 00 00 00	 mov	 ecx, OFFSET ?gDirPath@@3VCDirPath@@A ; gDirPath
  00190	89 46 28	 mov	 DWORD PTR [esi+40], eax
  00193	e8 00 00 00 00	 call	 ?GetNewPath@CDirPath@@QAEPADPAD@Z ; CDirPath::GetNewPath
  00198	50		 push	 eax
  00199	6a 64		 push	 100			; 00000064H
  0019b	68 00 00 00 00	 push	 OFFSET ??_C@_0BK@KNFOPFKG@FireScreamSerialInitCount?$AA@
  001a0	68 00 00 00 00	 push	 OFFSET ??_C@_09EMMBJNGJ@SkillInfo?$AA@
  001a5	ff d3		 call	 ebx

; 64   : 	this->m_bCheckFireScreamSerial = GetPrivateProfileInt("SkillInfo", "CheckFireScreamSerial", 1, gDirPath.GetNewPath(lpszFileName));

  001a7	57		 push	 edi
  001a8	b9 00 00 00 00	 mov	 ecx, OFFSET ?gDirPath@@3VCDirPath@@A ; gDirPath
  001ad	89 46 2c	 mov	 DWORD PTR [esi+44], eax
  001b0	e8 00 00 00 00	 call	 ?GetNewPath@CDirPath@@QAEPADPAD@Z ; CDirPath::GetNewPath
  001b5	50		 push	 eax
  001b6	6a 01		 push	 1
  001b8	68 00 00 00 00	 push	 OFFSET ??_C@_0BG@PJAAPPCH@CheckFireScreamSerial?$AA@
  001bd	68 00 00 00 00	 push	 OFFSET ??_C@_09EMMBJNGJ@SkillInfo?$AA@
  001c2	ff d3		 call	 ebx

; 65   : 
; 66   : 
; 67   : 	LogAddTD("[Skill Addition Info] [Fire Scream] Use(%d) : Explosion Distance(%d) - Rate(%d), MaxAttack_SameSerial(%d), SerialInitCount(%d), Check Serial(%d)",

  001c4	50		 push	 eax
  001c5	ff 76 2c	 push	 DWORD PTR [esi+44]
  001c8	89 46 30	 mov	 DWORD PTR [esi+48], eax
  001cb	ff 76 28	 push	 DWORD PTR [esi+40]
  001ce	ff 76 24	 push	 DWORD PTR [esi+36]
  001d1	ff 76 20	 push	 DWORD PTR [esi+32]
  001d4	ff 76 1c	 push	 DWORD PTR [esi+28]
  001d7	68 00 00 00 00	 push	 OFFSET ??_C@_0JB@FKMAEBOB@?$FLSkill?5Addition?5Info?$FN?5?$FLFire?5Scre@
  001dc	ff 15 00 00 00
	00		 call	 DWORD PTR ?LogAddTD@@3P6AXPADZZA ; LogAddTD
  001e2	83 c4 1c	 add	 esp, 28			; 0000001cH

; 68   : 		this->m_bFireScreamSkill, this->m_iFireScreamExplosionAttackDistance,
; 69   : 		this->m_iFireScreamExplosionRate, this->m_iFireScreamMaxAttackCountSameSerial,
; 70   : 		this->m_iFireScreamSerialInitCount, this->m_bCheckFireScreamSerial);
; 71   : 
; 72   : 	BYTE defVal = 0;
; 73   : 
; 74   : 	for(int i = 1; i < 21; i++)

  001e5	bb 01 00 00 00	 mov	 ebx, 1
  001ea	83 c6 42	 add	 esi, 66			; 00000042H
  001ed	0f 1f 00	 npad	 3
$LL4@Load:

; 75   : 	{
; 76   : 		char szTmp[128];
; 77   : 		wsprintf(szTmp,"SoulBarrierManaRate_Level%d",i);

  001f0	53		 push	 ebx
  001f1	8d 85 7c ff ff
	ff		 lea	 eax, DWORD PTR _szTmp$1[ebp]
  001f7	68 00 00 00 00	 push	 OFFSET ??_C@_0BM@NMIIFKFD@SoulBarrierManaRate_Level?$CFd?$AA@
  001fc	50		 push	 eax
  001fd	ff 15 00 00 00
	00		 call	 DWORD PTR __imp__wsprintfA
  00203	83 c4 0c	 add	 esp, 12			; 0000000cH

; 78   : 
; 79   : 		defVal = 20+i;
; 80   : 
; 81   : 		this->m_SB_ManaRate[i] = GetPrivateProfileInt("SkillInfo", szTmp, defVal, gDirPath.GetNewPath(lpszFileName));

  00206	b9 00 00 00 00	 mov	 ecx, OFFSET ?gDirPath@@3VCDirPath@@A ; gDirPath
  0020b	57		 push	 edi
  0020c	e8 00 00 00 00	 call	 ?GetNewPath@CDirPath@@QAEPADPAD@Z ; CDirPath::GetNewPath
  00211	50		 push	 eax
  00212	8d 43 14	 lea	 eax, DWORD PTR [ebx+20]
  00215	0f b6 c0	 movzx	 eax, al
  00218	50		 push	 eax
  00219	8d 85 7c ff ff
	ff		 lea	 eax, DWORD PTR _szTmp$1[ebp]
  0021f	50		 push	 eax
  00220	68 00 00 00 00	 push	 OFFSET ??_C@_09EMMBJNGJ@SkillInfo?$AA@
  00225	ff 15 00 00 00
	00		 call	 DWORD PTR __imp__GetPrivateProfileIntA@16
  0022b	43		 inc	 ebx
  0022c	66 89 06	 mov	 WORD PTR [esi], ax
  0022f	8d 76 02	 lea	 esi, DWORD PTR [esi+2]
  00232	83 fb 15	 cmp	 ebx, 21			; 00000015H
  00235	7c b9		 jl	 SHORT $LL4@Load

; 82   : 	}
; 83   : 
; 84   : 
; 85   : 	LogAddTD("[Skill Addition Info] [SoulBarrier Strengrhen] BaseSkill(Level0):%d, Level1:%d, 2:%d, 3:%d, 4:%d, 5:%d",

  00237	8b b5 78 ff ff
	ff		 mov	 esi, DWORD PTR _this$GSCopy$1$[ebp]
  0023d	0f b7 46 4a	 movzx	 eax, WORD PTR [esi+74]
  00241	50		 push	 eax
  00242	0f b7 46 48	 movzx	 eax, WORD PTR [esi+72]
  00246	50		 push	 eax
  00247	0f b7 46 46	 movzx	 eax, WORD PTR [esi+70]
  0024b	50		 push	 eax
  0024c	0f b7 46 44	 movzx	 eax, WORD PTR [esi+68]
  00250	50		 push	 eax
  00251	0f b7 46 42	 movzx	 eax, WORD PTR [esi+66]
  00255	50		 push	 eax
  00256	0f b7 46 40	 movzx	 eax, WORD PTR [esi+64]
  0025a	50		 push	 eax
  0025b	68 00 00 00 00	 push	 OFFSET ??_C@_0GH@IFKPHEDI@?$FLSkill?5Addition?5Info?$FN?5?$FLSoulBarri@
  00260	ff 15 00 00 00
	00		 call	 DWORD PTR ?LogAddTD@@3P6AXPADZZA ; LogAddTD
  00266	83 c4 1c	 add	 esp, 28			; 0000001cH

; 86   : 		this->m_SB_ManaRate[0],this->m_SB_ManaRate[1],this->m_SB_ManaRate[2],this->m_SB_ManaRate[3],this->m_SB_ManaRate[4],this->m_SB_ManaRate[5]);
; 87   : 
; 88   : 	this->m_iBloodStormExplosionAttackDistance = GetPrivateProfileInt("SkillInfo", "BloodStormExplosionAttackDistance", 3, gDirPath.GetNewPath(lpszFileName));

  00269	b9 00 00 00 00	 mov	 ecx, OFFSET ?gDirPath@@3VCDirPath@@A ; gDirPath
  0026e	57		 push	 edi
  0026f	e8 00 00 00 00	 call	 ?GetNewPath@CDirPath@@QAEPADPAD@Z ; CDirPath::GetNewPath
  00274	8b 1d 00 00 00
	00		 mov	 ebx, DWORD PTR __imp__GetPrivateProfileIntA@16
  0027a	50		 push	 eax
  0027b	6a 03		 push	 3
  0027d	68 00 00 00 00	 push	 OFFSET ??_C@_0CC@HNOINJMJ@BloodStormExplosionAttackDistanc@
  00282	68 00 00 00 00	 push	 OFFSET ??_C@_09EMMBJNGJ@SkillInfo?$AA@
  00287	ff d3		 call	 ebx

; 89   : 	this->m_iBloodStormExplosionRate = GetPrivateProfileInt("SkillInfo", "BloodStormExplosionRate", 1000, gDirPath.GetNewPath(lpszFileName));

  00289	57		 push	 edi
  0028a	b9 00 00 00 00	 mov	 ecx, OFFSET ?gDirPath@@3VCDirPath@@A ; gDirPath
  0028f	89 46 34	 mov	 DWORD PTR [esi+52], eax
  00292	e8 00 00 00 00	 call	 ?GetNewPath@CDirPath@@QAEPADPAD@Z ; CDirPath::GetNewPath
  00297	50		 push	 eax
  00298	68 e8 03 00 00	 push	 1000			; 000003e8H
  0029d	68 00 00 00 00	 push	 OFFSET ??_C@_0BI@KAPENPHC@BloodStormExplosionRate?$AA@
  002a2	68 00 00 00 00	 push	 OFFSET ??_C@_09EMMBJNGJ@SkillInfo?$AA@
  002a7	ff d3		 call	 ebx

; 90   : 	this->m_iBloodStormExplosionDamage = GetPrivateProfileInt("SkillInfo", "BloodStormExplosionDamageProc", 70, gDirPath.GetNewPath(lpszFileName));

  002a9	57		 push	 edi
  002aa	b9 00 00 00 00	 mov	 ecx, OFFSET ?gDirPath@@3VCDirPath@@A ; gDirPath
  002af	89 46 38	 mov	 DWORD PTR [esi+56], eax
  002b2	e8 00 00 00 00	 call	 ?GetNewPath@CDirPath@@QAEPADPAD@Z ; CDirPath::GetNewPath
  002b7	50		 push	 eax
  002b8	6a 46		 push	 70			; 00000046H
  002ba	68 00 00 00 00	 push	 OFFSET ??_C@_0BO@LNAPJDKN@BloodStormExplosionDamageProc?$AA@
  002bf	68 00 00 00 00	 push	 OFFSET ??_C@_09EMMBJNGJ@SkillInfo?$AA@
  002c4	ff d3		 call	 ebx

; 91   : 
; 92   : 	LogAddTD("[Skill Addition Info] [Blood Storm] Explosion Distance(%d) - Rate(%d),DamageProc(%d)",

  002c6	50		 push	 eax
  002c7	ff 76 38	 push	 DWORD PTR [esi+56]
  002ca	89 46 3c	 mov	 DWORD PTR [esi+60], eax
  002cd	ff 76 34	 push	 DWORD PTR [esi+52]
  002d0	68 00 00 00 00	 push	 OFFSET ??_C@_0FF@OHPJCKLB@?$FLSkill?5Addition?5Info?$FN?5?$FLBlood?5Sto@
  002d5	ff 15 00 00 00
	00		 call	 DWORD PTR ?LogAddTD@@3P6AXPADZZA ; LogAddTD
  002db	83 c4 10	 add	 esp, 16			; 00000010H

; 93   : 		this->m_iBloodStormExplosionAttackDistance,this->m_iBloodStormExplosionRate,this->m_iBloodStormExplosionDamage);
; 94   : 
; 95   : 	return TRUE;

  002de	b8 01 00 00 00	 mov	 eax, 1
  002e3	5b		 pop	 ebx
  002e4	5f		 pop	 edi
  002e5	5e		 pop	 esi

; 96   : }

  002e6	8b 4d fc	 mov	 ecx, DWORD PTR __$ArrayPad$[ebp]
  002e9	33 cd		 xor	 ecx, ebp
  002eb	e8 00 00 00 00	 call	 @__security_check_cookie@4
  002f0	8b e5		 mov	 esp, ebp
  002f2	5d		 pop	 ebp
  002f3	c2 04 00	 ret	 4
$LN6@Load:

; 42   : 	{
; 43   : 		LogAddTD("[Skill Addition Info] - File load error : File Name Error");

  002f6	68 00 00 00 00	 push	 OFFSET ??_C@_0DK@MKBKHGKF@?$FLSkill?5Addition?5Info?$FN?5?9?5File?5loa@
  002fb	ff 15 00 00 00
	00		 call	 DWORD PTR ?LogAddTD@@3P6AXPADZZA ; LogAddTD

; 96   : }

  00301	8b 4d fc	 mov	 ecx, DWORD PTR __$ArrayPad$[ebp]
  00304	83 c4 04	 add	 esp, 4
  00307	33 cd		 xor	 ecx, ebp
  00309	33 c0		 xor	 eax, eax
  0030b	5f		 pop	 edi
  0030c	5e		 pop	 esi
  0030d	e8 00 00 00 00	 call	 @__security_check_cookie@4
  00312	8b e5		 mov	 esp, ebp
  00314	5d		 pop	 ebp
  00315	c2 04 00	 ret	 4
?Load@CSkillAdditionInfo@@QAEHPAD@Z ENDP		; CSkillAdditionInfo::Load
_TEXT	ENDS
; Function compile flags: /Ogtp
; File c:\users\michel\desktop\source\gameserver\source\skilladditioninfo.cpp
;	COMDAT ?Init@CSkillAdditionInfo@@QAEXXZ
_TEXT	SEGMENT
?Init@CSkillAdditionInfo@@QAEXXZ PROC			; CSkillAdditionInfo::Init, COMDAT
; _this$ = ecx

; 30   : 	this->m_iInfinityArrowSkillTime = 0;

  00000	c7 41 04 00 00
	00 00		 mov	 DWORD PTR [ecx+4], 0

; 31   : 	this->m_iInfinityArrowUseLevel = 0;

  00007	c7 41 08 00 00
	00 00		 mov	 DWORD PTR [ecx+8], 0

; 32   : 	this->m_iInfinityArrowMPConsumptionPlus0 = 0;

  0000e	c7 41 0c 00 00
	00 00		 mov	 DWORD PTR [ecx+12], 0

; 33   : 	this->m_iInfinityArrowMPConsumptionPlus1 = 0;

  00015	c7 41 10 00 00
	00 00		 mov	 DWORD PTR [ecx+16], 0

; 34   : 	this->m_iInfinityArrowMPConsumptionPlus2 = 0;

  0001c	c7 41 14 00 00
	00 00		 mov	 DWORD PTR [ecx+20], 0

; 35   : }

  00023	c3		 ret	 0
?Init@CSkillAdditionInfo@@QAEXXZ ENDP			; CSkillAdditionInfo::Init
_TEXT	ENDS
; Function compile flags: /Ogtp
; File c:\users\michel\desktop\source\gameserver\source\skilladditioninfo.cpp
;	COMDAT ??1CSkillAdditionInfo@@UAE@XZ
_TEXT	SEGMENT
??1CSkillAdditionInfo@@UAE@XZ PROC			; CSkillAdditionInfo::~CSkillAdditionInfo, COMDAT
; _this$ = ecx

; 22   : {

  00000	c7 01 00 00 00
	00		 mov	 DWORD PTR [ecx], OFFSET ??_7CSkillAdditionInfo@@6B@

; 23   : 	return;
; 24   : }

  00006	c3		 ret	 0
??1CSkillAdditionInfo@@UAE@XZ ENDP			; CSkillAdditionInfo::~CSkillAdditionInfo
_TEXT	ENDS
; Function compile flags: /Ogtp
; File c:\users\michel\desktop\source\gameserver\source\skilladditioninfo.cpp
;	COMDAT ??0CSkillAdditionInfo@@QAE@XZ
_TEXT	SEGMENT
??0CSkillAdditionInfo@@QAE@XZ PROC			; CSkillAdditionInfo::CSkillAdditionInfo, COMDAT
; _this$ = ecx

; 17   : {

  00000	56		 push	 esi
  00001	8b f1		 mov	 esi, ecx
  00003	c7 06 00 00 00
	00		 mov	 DWORD PTR [esi], OFFSET ??_7CSkillAdditionInfo@@6B@

; 18   : 	this->Init();

  00009	e8 00 00 00 00	 call	 ?Init@CSkillAdditionInfo@@QAEXXZ ; CSkillAdditionInfo::Init

; 19   : }

  0000e	8b c6		 mov	 eax, esi
  00010	5e		 pop	 esi
  00011	c3		 ret	 0
??0CSkillAdditionInfo@@QAE@XZ ENDP			; CSkillAdditionInfo::CSkillAdditionInfo
_TEXT	ENDS
; Function compile flags: /Ogtp
; File c:\users\michel\desktop\source\gameserver\source\skilladditioninfo.cpp
;	COMDAT ?__empty_global_delete@@YAXPAXI@Z
_TEXT	SEGMENT
___formal$ = 8						; size = 4
___formal$ = 12						; size = 4
?__empty_global_delete@@YAXPAXI@Z PROC			; __empty_global_delete, COMDAT

  00000	c3		 ret	 0
?__empty_global_delete@@YAXPAXI@Z ENDP			; __empty_global_delete
_TEXT	ENDS
; Function compile flags: /Ogtp
; File c:\users\michel\desktop\source\gameserver\source\skilladditioninfo.cpp
;	COMDAT ?__empty_global_delete@@YAXPAX@Z
_TEXT	SEGMENT
___formal$ = 8						; size = 4
?__empty_global_delete@@YAXPAX@Z PROC			; __empty_global_delete, COMDAT

  00000	c3		 ret	 0
?__empty_global_delete@@YAXPAX@Z ENDP			; __empty_global_delete
_TEXT	ENDS
END
