; Listing generated by Microsoft (R) Optimizing Compiler Version 19.00.23506.0 

	TITLE	C:\Users\Michel\Desktop\Source\GameServer\Source\SoulSystem.cpp
	.686P
	.XMM
	include listing.inc
	.model	flat

INCLUDELIB LIBCMT
INCLUDELIB OLDNAMES

PUBLIC	?__empty_global_delete@@YAXPAX@Z		; __empty_global_delete
PUBLIC	?__empty_global_delete@@YAXPAXI@Z		; __empty_global_delete
PUBLIC	??1OBJECTSTRUCT@@QAE@XZ				; OBJECTSTRUCT::~OBJECTSTRUCT
PUBLIC	??_EOBJECTSTRUCT@@QAEPAXI@Z			; OBJECTSTRUCT::`vector deleting destructor'
PUBLIC	??0SoulSystem@@QAE@XZ				; SoulSystem::SoulSystem
PUBLIC	??1SoulSystem@@UAE@XZ				; SoulSystem::~SoulSystem
PUBLIC	?IsMap@SoulSystem@@QAEKH@Z			; SoulSystem::IsMap
PUBLIC	?WithSoul@SoulSystem@@QAE_NPAUOBJECTSTRUCT@@@Z	; SoulSystem::WithSoul
PUBLIC	??_GSoulSystem@@UAEPAXI@Z			; SoulSystem::`scalar deleting destructor'
PUBLIC	??_7SoulSystem@@6B@				; SoulSystem::`vftable'
PUBLIC	?g_SoulSystem@@3VSoulSystem@@A			; g_SoulSystem
PUBLIC	??_R4SoulSystem@@6B@				; SoulSystem::`RTTI Complete Object Locator'
PUBLIC	??_R0?AVSoulSystem@@@8				; SoulSystem `RTTI Type Descriptor'
PUBLIC	??_R3SoulSystem@@8				; SoulSystem::`RTTI Class Hierarchy Descriptor'
PUBLIC	??_R2SoulSystem@@8				; SoulSystem::`RTTI Base Class Array'
PUBLIC	??_R1A@?0A@EA@SoulSystem@@8			; SoulSystem::`RTTI Base Class Descriptor at (0,-1,0,64)'
PUBLIC	__real@3f800000
EXTRN	??_M@YGXPAXIIP6EX0@Z@Z:PROC			; `eh vector destructor iterator'
EXTRN	??3@YAXPAXI@Z:PROC				; operator delete
EXTRN	??_V@YAXPAXI@Z:PROC				; operator delete[]
EXTRN	_atexit:PROC
EXTRN	?IsItem@CItem@@QAEHXZ:PROC			; CItem::IsItem
EXTRN	??1CSkillDelay@@UAE@XZ:PROC			; CSkillDelay::~CSkillDelay
EXTRN	??1TMonsterAIAgro@@UAE@XZ:PROC			; TMonsterAIAgro::~TMonsterAIAgro
EXTRN	??_ESoulSystem@@UAEPAXI@Z:PROC			; SoulSystem::`vector deleting destructor'
EXTRN	@__security_check_cookie@4:PROC
EXTRN	___CxxFrameHandler3:PROC
EXTRN	??_7type_info@@6B@:QWORD			; type_info::`vftable'
EXTRN	___security_cookie:DWORD
EXTRN	__fltused:DWORD
_BSS	SEGMENT
?g_SoulSystem@@3VSoulSystem@@A DD 01H DUP (?)		; g_SoulSystem
_BSS	ENDS
CRT$XCU	SEGMENT
?g_SoulSystem$initializer$@@3P6AXXZA DD FLAT:??__Eg_SoulSystem@@YAXXZ ; g_SoulSystem$initializer$
CRT$XCU	ENDS
;	COMDAT __real@3f800000
CONST	SEGMENT
__real@3f800000 DD 03f800000r			; 1
CONST	ENDS
;	COMDAT ??_R1A@?0A@EA@SoulSystem@@8
rdata$r	SEGMENT
??_R1A@?0A@EA@SoulSystem@@8 DD FLAT:??_R0?AVSoulSystem@@@8 ; SoulSystem::`RTTI Base Class Descriptor at (0,-1,0,64)'
	DD	00H
	DD	00H
	DD	0ffffffffH
	DD	00H
	DD	040H
	DD	FLAT:??_R3SoulSystem@@8
rdata$r	ENDS
;	COMDAT ??_R2SoulSystem@@8
rdata$r	SEGMENT
??_R2SoulSystem@@8 DD FLAT:??_R1A@?0A@EA@SoulSystem@@8	; SoulSystem::`RTTI Base Class Array'
rdata$r	ENDS
;	COMDAT ??_R3SoulSystem@@8
rdata$r	SEGMENT
??_R3SoulSystem@@8 DD 00H				; SoulSystem::`RTTI Class Hierarchy Descriptor'
	DD	00H
	DD	01H
	DD	FLAT:??_R2SoulSystem@@8
rdata$r	ENDS
;	COMDAT ??_R0?AVSoulSystem@@@8
data$r	SEGMENT
??_R0?AVSoulSystem@@@8 DD FLAT:??_7type_info@@6B@	; SoulSystem `RTTI Type Descriptor'
	DD	00H
	DB	'.?AVSoulSystem@@', 00H
data$r	ENDS
;	COMDAT ??_R4SoulSystem@@6B@
rdata$r	SEGMENT
??_R4SoulSystem@@6B@ DD 00H				; SoulSystem::`RTTI Complete Object Locator'
	DD	00H
	DD	00H
	DD	FLAT:??_R0?AVSoulSystem@@@8
	DD	FLAT:??_R3SoulSystem@@8
rdata$r	ENDS
;	COMDAT ??_7SoulSystem@@6B@
CONST	SEGMENT
??_7SoulSystem@@6B@ DD FLAT:??_R4SoulSystem@@6B@	; SoulSystem::`vftable'
	DD	FLAT:??_ESoulSystem@@UAEPAXI@Z
CONST	ENDS
;	COMDAT xdata$x
xdata$x	SEGMENT
__ehfuncinfo$??_EOBJECTSTRUCT@@QAEPAXI@Z DD 019930522H
	DD	00H
	DD	00H
	DD	2 DUP(00H)
	DD	2 DUP(00H)
	DD	00H
	DD	05H
xdata$x	ENDS
; Function compile flags: /Ogtp
;	COMDAT ??__Fg_SoulSystem@@YAXXZ
text$yd	SEGMENT
??__Fg_SoulSystem@@YAXXZ PROC				; `dynamic atexit destructor for 'g_SoulSystem'', COMDAT
  00000	b9 00 00 00 00	 mov	 ecx, OFFSET ?g_SoulSystem@@3VSoulSystem@@A ; g_SoulSystem
  00005	e9 00 00 00 00	 jmp	 ??1SoulSystem@@UAE@XZ	; SoulSystem::~SoulSystem
??__Fg_SoulSystem@@YAXXZ ENDP				; `dynamic atexit destructor for 'g_SoulSystem''
text$yd	ENDS
; Function compile flags: /Ogtp
; File c:\users\michel\desktop\source\gameserver\source\soulsystem.cpp
;	COMDAT ??__Eg_SoulSystem@@YAXXZ
text$di	SEGMENT
??__Eg_SoulSystem@@YAXXZ PROC				; `dynamic initializer for 'g_SoulSystem'', COMDAT

; 13   : SoulSystem g_SoulSystem;

  00000	b9 00 00 00 00	 mov	 ecx, OFFSET ?g_SoulSystem@@3VSoulSystem@@A ; g_SoulSystem
  00005	e8 00 00 00 00	 call	 ??0SoulSystem@@QAE@XZ	; SoulSystem::SoulSystem
  0000a	68 00 00 00 00	 push	 OFFSET ??__Fg_SoulSystem@@YAXXZ ; `dynamic atexit destructor for 'g_SoulSystem''
  0000f	e8 00 00 00 00	 call	 _atexit
  00014	59		 pop	 ecx
  00015	c3		 ret	 0
??__Eg_SoulSystem@@YAXXZ ENDP				; `dynamic initializer for 'g_SoulSystem''
text$di	ENDS
; Function compile flags: /Ogtp
;	COMDAT ??_GSoulSystem@@UAEPAXI@Z
_TEXT	SEGMENT
___flags$ = 8						; size = 4
??_GSoulSystem@@UAEPAXI@Z PROC				; SoulSystem::`scalar deleting destructor', COMDAT
; _this$ = ecx
  00000	55		 push	 ebp
  00001	8b ec		 mov	 ebp, esp
  00003	56		 push	 esi
  00004	8b f1		 mov	 esi, ecx
  00006	e8 00 00 00 00	 call	 ??1SoulSystem@@UAE@XZ	; SoulSystem::~SoulSystem
  0000b	f6 45 08 01	 test	 BYTE PTR ___flags$[ebp], 1
  0000f	74 0b		 je	 SHORT $LN4@scalar
  00011	6a 04		 push	 4
  00013	56		 push	 esi
  00014	e8 00 00 00 00	 call	 ??3@YAXPAXI@Z		; operator delete
  00019	83 c4 08	 add	 esp, 8
$LN4@scalar:
  0001c	8b c6		 mov	 eax, esi
  0001e	5e		 pop	 esi
  0001f	5d		 pop	 ebp
  00020	c2 04 00	 ret	 4
??_GSoulSystem@@UAEPAXI@Z ENDP				; SoulSystem::`scalar deleting destructor'
_TEXT	ENDS
; Function compile flags: /Ogtp
; File c:\users\michel\desktop\source\gameserver\source\soulsystem.cpp
;	COMDAT ?WithSoul@SoulSystem@@QAE_NPAUOBJECTSTRUCT@@@Z
_TEXT	SEGMENT
_this$1$ = -4						; size = 4
_lpUser$ = 8						; size = 4
?WithSoul@SoulSystem@@QAE_NPAUOBJECTSTRUCT@@@Z PROC	; SoulSystem::WithSoul, COMDAT
; _this$ = ecx

; 52   : {

  00000	55		 push	 ebp
  00001	8b ec		 mov	 ebp, esp
  00003	51		 push	 ecx
  00004	53		 push	 ebx
  00005	8b 5d 08	 mov	 ebx, DWORD PTR _lpUser$[ebp]
  00008	56		 push	 esi
  00009	57		 push	 edi
  0000a	89 4d fc	 mov	 DWORD PTR _this$1$[ebp], ecx

; 53   : 	for( int n = INVENTORY_BAG_START; n < MAIN_INVENTORY_SIZE; n++ )	

  0000d	be f0 09 00 00	 mov	 esi, 2544		; 000009f0H
$LL4@WithSoul:

; 54   : 	{
; 55   : 		if( !lpUser->pInventory[n].IsItem() )

  00012	8b 8b c0 11 00
	00		 mov	 ecx, DWORD PTR [ebx+4544]
  00018	03 ce		 add	 ecx, esi
  0001a	e8 00 00 00 00	 call	 ?IsItem@CItem@@QAEHXZ	; CItem::IsItem
  0001f	85 c0		 test	 eax, eax
  00021	74 2e		 je	 SHORT $LN2@WithSoul

; 56   : 		{
; 57   : 			continue;
; 58   : 		}
; 59   : 		// ----
; 60   : 		if( lpUser->pInventory[n].m_Type != this->IsMap(lpUser->MapNumber) )

  00023	0f b6 83 23 01
	00 00		 movzx	 eax, BYTE PTR [ebx+291]
  0002a	8b 4d fc	 mov	 ecx, DWORD PTR _this$1$[ebp]
  0002d	8b bb c0 11 00
	00		 mov	 edi, DWORD PTR [ebx+4544]
  00033	50		 push	 eax
  00034	e8 00 00 00 00	 call	 ?IsMap@SoulSystem@@QAEKH@Z ; SoulSystem::IsMap
  00039	0f bf 4c 37 06	 movsx	 ecx, WORD PTR [edi+esi+6]
  0003e	3b c8		 cmp	 ecx, eax
  00040	75 0f		 jne	 SHORT $LN2@WithSoul

; 61   : 		{
; 62   : 			continue;
; 63   : 		}
; 64   : 		// ----
; 65   : 		if( lpUser->pInventory[n].m_Durability < 1.0f )

  00042	f3 0f 10 05 00
	00 00 00	 movss	 xmm0, DWORD PTR __real@3f800000
  0004a	0f 2f 44 37 24	 comiss	 xmm0, DWORD PTR [edi+esi+36]
  0004f	76 19		 jbe	 SHORT $LN7@WithSoul
$LN2@WithSoul:

; 53   : 	for( int n = INVENTORY_BAG_START; n < MAIN_INVENTORY_SIZE; n++ )	

  00051	81 c6 d4 00 00
	00		 add	 esi, 212		; 000000d4H
  00057	81 fe f0 a8 00
	00		 cmp	 esi, 43248		; 0000a8f0H
  0005d	7c b3		 jl	 SHORT $LL4@WithSoul

; 71   : 	}
; 72   : 	// ----
; 73   : 	return false;

  0005f	5f		 pop	 edi
  00060	5e		 pop	 esi
  00061	32 c0		 xor	 al, al
  00063	5b		 pop	 ebx

; 74   : }

  00064	8b e5		 mov	 esp, ebp
  00066	5d		 pop	 ebp
  00067	c2 04 00	 ret	 4
$LN7@WithSoul:
  0006a	5f		 pop	 edi
  0006b	5e		 pop	 esi

; 66   : 		{
; 67   : 			continue;
; 68   : 		}
; 69   : 		// ----
; 70   : 		return true;

  0006c	b0 01		 mov	 al, 1
  0006e	5b		 pop	 ebx

; 74   : }

  0006f	8b e5		 mov	 esp, ebp
  00071	5d		 pop	 ebp
  00072	c2 04 00	 ret	 4
?WithSoul@SoulSystem@@QAE_NPAUOBJECTSTRUCT@@@Z ENDP	; SoulSystem::WithSoul
_TEXT	ENDS
; Function compile flags: /Ogtp
; File c:\users\michel\desktop\source\gameserver\source\soulsystem.cpp
;	COMDAT ?IsMap@SoulSystem@@QAEKH@Z
_TEXT	SEGMENT
_MapNumber$ = 8						; size = 4
?IsMap@SoulSystem@@QAEKH@Z PROC				; SoulSystem::IsMap, COMDAT
; _this$ = ecx

; 26   : {

  00000	55		 push	 ebp
  00001	8b ec		 mov	 ebp, esp

; 27   : 	if( MapNumber == 37 ) //Kanturu

  00003	8b 4d 08	 mov	 ecx, DWORD PTR _MapNumber$[ebp]
  00006	83 f9 25	 cmp	 ecx, 37			; 00000025H
  00009	75 09		 jne	 SHORT $LN2@IsMap

; 28   : 	{
; 29   : 		return ITEMGET(14, 300);

  0000b	b8 2c 1d 00 00	 mov	 eax, 7468		; 00001d2cH

; 44   : 	{
; 45   : 		return ITEMGET(14, 304);
; 46   : 	}
; 47   : 	// ----
; 48   : 	return 0;
; 49   : }

  00010	5d		 pop	 ebp
  00011	c2 04 00	 ret	 4
$LN2@IsMap:

; 30   : 	}
; 31   : 	else if( MapNumber == 38 ) //Kanturu Remain

  00014	83 f9 26	 cmp	 ecx, 38			; 00000026H
  00017	75 09		 jne	 SHORT $LN4@IsMap

; 32   : 	{
; 33   : 		return ITEMGET(14, 301);

  00019	b8 2d 1d 00 00	 mov	 eax, 7469		; 00001d2dH

; 44   : 	{
; 45   : 		return ITEMGET(14, 304);
; 46   : 	}
; 47   : 	// ----
; 48   : 	return 0;
; 49   : }

  0001e	5d		 pop	 ebp
  0001f	c2 04 00	 ret	 4
$LN4@IsMap:

; 34   : 	}
; 35   : 	else if( MapNumber == 56 ) //Swamp of Calmness

  00022	83 f9 38	 cmp	 ecx, 56			; 00000038H
  00025	75 09		 jne	 SHORT $LN6@IsMap

; 36   : 	{
; 37   : 		return ITEMGET(14, 302);

  00027	b8 2e 1d 00 00	 mov	 eax, 7470		; 00001d2eH

; 44   : 	{
; 45   : 		return ITEMGET(14, 304);
; 46   : 	}
; 47   : 	// ----
; 48   : 	return 0;
; 49   : }

  0002c	5d		 pop	 ebp
  0002d	c2 04 00	 ret	 4
$LN6@IsMap:

; 38   : 	}
; 39   : 	else if( MapNumber == 57 ) //Raklion

  00030	83 f9 39	 cmp	 ecx, 57			; 00000039H
  00033	75 09		 jne	 SHORT $LN8@IsMap

; 40   : 	{
; 41   : 		return ITEMGET(14, 303);

  00035	b8 2f 1d 00 00	 mov	 eax, 7471		; 00001d2fH

; 44   : 	{
; 45   : 		return ITEMGET(14, 304);
; 46   : 	}
; 47   : 	// ----
; 48   : 	return 0;
; 49   : }

  0003a	5d		 pop	 ebp
  0003b	c2 04 00	 ret	 4
$LN8@IsMap:

; 42   : 	}
; 43   : 	else if( MapNumber == 63 ) //Vulcanus

  0003e	33 c0		 xor	 eax, eax
  00040	ba 30 1d 00 00	 mov	 edx, 7472		; 00001d30H
  00045	83 f9 3f	 cmp	 ecx, 63			; 0000003fH
  00048	0f 44 c2	 cmove	 eax, edx

; 44   : 	{
; 45   : 		return ITEMGET(14, 304);
; 46   : 	}
; 47   : 	// ----
; 48   : 	return 0;
; 49   : }

  0004b	5d		 pop	 ebp
  0004c	c2 04 00	 ret	 4
?IsMap@SoulSystem@@QAEKH@Z ENDP				; SoulSystem::IsMap
_TEXT	ENDS
; Function compile flags: /Ogtp
; File c:\users\michel\desktop\source\gameserver\source\soulsystem.cpp
;	COMDAT ??1SoulSystem@@UAE@XZ
_TEXT	SEGMENT
??1SoulSystem@@UAE@XZ PROC				; SoulSystem::~SoulSystem, COMDAT
; _this$ = ecx

; 21   : {

  00000	c7 01 00 00 00
	00		 mov	 DWORD PTR [ecx], OFFSET ??_7SoulSystem@@6B@

; 22   : 
; 23   : }

  00006	c3		 ret	 0
??1SoulSystem@@UAE@XZ ENDP				; SoulSystem::~SoulSystem
_TEXT	ENDS
; Function compile flags: /Ogtp
; File c:\users\michel\desktop\source\gameserver\source\soulsystem.cpp
;	COMDAT ??0SoulSystem@@QAE@XZ
_TEXT	SEGMENT
??0SoulSystem@@QAE@XZ PROC				; SoulSystem::SoulSystem, COMDAT
; _this$ = ecx

; 16   : {

  00000	c7 01 00 00 00
	00		 mov	 DWORD PTR [ecx], OFFSET ??_7SoulSystem@@6B@

; 17   : 
; 18   : }

  00006	8b c1		 mov	 eax, ecx
  00008	c3		 ret	 0
??0SoulSystem@@QAE@XZ ENDP				; SoulSystem::SoulSystem
_TEXT	ENDS
; Function compile flags: /Ogtp
;	COMDAT ??_EOBJECTSTRUCT@@QAEPAXI@Z
_TEXT	SEGMENT
__$EHRec$ = -12						; size = 12
___flags$ = 8						; size = 4
??_EOBJECTSTRUCT@@QAEPAXI@Z PROC			; OBJECTSTRUCT::`vector deleting destructor', COMDAT
; _this$ = ecx
  00000	55		 push	 ebp
  00001	8b ec		 mov	 ebp, esp
  00003	6a ff		 push	 -1
  00005	68 00 00 00 00	 push	 __ehhandler$??_EOBJECTSTRUCT@@QAEPAXI@Z
  0000a	64 a1 00 00 00
	00		 mov	 eax, DWORD PTR fs:0
  00010	50		 push	 eax
  00011	53		 push	 ebx
  00012	56		 push	 esi
  00013	57		 push	 edi
  00014	a1 00 00 00 00	 mov	 eax, DWORD PTR ___security_cookie
  00019	33 c5		 xor	 eax, ebp
  0001b	50		 push	 eax
  0001c	8d 45 f4	 lea	 eax, DWORD PTR __$EHRec$[ebp]
  0001f	64 a3 00 00 00
	00		 mov	 DWORD PTR fs:0, eax
  00025	8b f1		 mov	 esi, ecx
  00027	8b 5d 08	 mov	 ebx, DWORD PTR ___flags$[ebp]
  0002a	f6 c3 02	 test	 bl, 2
  0002d	74 44		 je	 SHORT $LN2@vector
  0002f	68 00 00 00 00	 push	 OFFSET ??1OBJECTSTRUCT@@QAE@XZ
  00034	ff 76 fc	 push	 DWORD PTR [esi-4]
  00037	8d 7e fc	 lea	 edi, DWORD PTR [esi-4]
  0003a	68 40 27 00 00	 push	 10048			; 00002740H
  0003f	56		 push	 esi
  00040	e8 00 00 00 00	 call	 ??_M@YGXPAXIIP6EX0@Z@Z
  00045	f6 c3 01	 test	 bl, 1
  00048	74 13		 je	 SHORT $LN3@vector
  0004a	69 0f 40 27 00
	00		 imul	 ecx, DWORD PTR [edi], 10048
  00050	83 c1 04	 add	 ecx, 4
  00053	51		 push	 ecx
  00054	57		 push	 edi
  00055	e8 00 00 00 00	 call	 ??_V@YAXPAXI@Z		; operator delete[]
  0005a	83 c4 08	 add	 esp, 8
$LN3@vector:
  0005d	8b c7		 mov	 eax, edi
  0005f	8b 4d f4	 mov	 ecx, DWORD PTR __$EHRec$[ebp]
  00062	64 89 0d 00 00
	00 00		 mov	 DWORD PTR fs:0, ecx
  00069	59		 pop	 ecx
  0006a	5f		 pop	 edi
  0006b	5e		 pop	 esi
  0006c	5b		 pop	 ebx
  0006d	8b e5		 mov	 esp, ebp
  0006f	5d		 pop	 ebp
  00070	c2 04 00	 ret	 4
$LN2@vector:
  00073	8d 8e ec 20 00
	00		 lea	 ecx, DWORD PTR [esi+8428]
  00079	e8 00 00 00 00	 call	 ??1TMonsterAIAgro@@UAE@XZ ; TMonsterAIAgro::~TMonsterAIAgro
  0007e	8d 8e 0c 16 00
	00		 lea	 ecx, DWORD PTR [esi+5644]
  00084	e8 00 00 00 00	 call	 ??1CSkillDelay@@UAE@XZ	; CSkillDelay::~CSkillDelay
  00089	f6 c3 01	 test	 bl, 1
  0008c	74 0e		 je	 SHORT $LN4@vector
  0008e	68 40 27 00 00	 push	 10048			; 00002740H
  00093	56		 push	 esi
  00094	e8 00 00 00 00	 call	 ??3@YAXPAXI@Z		; operator delete
  00099	83 c4 08	 add	 esp, 8
$LN4@vector:
  0009c	8b c6		 mov	 eax, esi
  0009e	8b 4d f4	 mov	 ecx, DWORD PTR __$EHRec$[ebp]
  000a1	64 89 0d 00 00
	00 00		 mov	 DWORD PTR fs:0, ecx
  000a8	59		 pop	 ecx
  000a9	5f		 pop	 edi
  000aa	5e		 pop	 esi
  000ab	5b		 pop	 ebx
  000ac	8b e5		 mov	 esp, ebp
  000ae	5d		 pop	 ebp
  000af	c2 04 00	 ret	 4
_TEXT	ENDS
;	COMDAT text$x
text$x	SEGMENT
__ehhandler$??_EOBJECTSTRUCT@@QAEPAXI@Z:
  00000	8b 54 24 08	 mov	 edx, DWORD PTR [esp+8]
  00004	8d 42 0c	 lea	 eax, DWORD PTR [edx+12]
  00007	8b 4a f0	 mov	 ecx, DWORD PTR [edx-16]
  0000a	33 c8		 xor	 ecx, eax
  0000c	e8 00 00 00 00	 call	 @__security_check_cookie@4
  00011	b8 00 00 00 00	 mov	 eax, OFFSET __ehfuncinfo$??_EOBJECTSTRUCT@@QAEPAXI@Z
  00016	e9 00 00 00 00	 jmp	 ___CxxFrameHandler3
text$x	ENDS
??_EOBJECTSTRUCT@@QAEPAXI@Z ENDP			; OBJECTSTRUCT::`vector deleting destructor'
; Function compile flags: /Ogtp
;	COMDAT ??1OBJECTSTRUCT@@QAE@XZ
_TEXT	SEGMENT
??1OBJECTSTRUCT@@QAE@XZ PROC				; OBJECTSTRUCT::~OBJECTSTRUCT, COMDAT
; _this$ = ecx
  00000	56		 push	 esi
  00001	8b f1		 mov	 esi, ecx
  00003	8d 8e ec 20 00
	00		 lea	 ecx, DWORD PTR [esi+8428]
  00009	e8 00 00 00 00	 call	 ??1TMonsterAIAgro@@UAE@XZ ; TMonsterAIAgro::~TMonsterAIAgro
  0000e	8d 8e 0c 16 00
	00		 lea	 ecx, DWORD PTR [esi+5644]
  00014	5e		 pop	 esi
  00015	e9 00 00 00 00	 jmp	 ??1CSkillDelay@@UAE@XZ	; CSkillDelay::~CSkillDelay
??1OBJECTSTRUCT@@QAE@XZ ENDP				; OBJECTSTRUCT::~OBJECTSTRUCT
_TEXT	ENDS
; Function compile flags: /Ogtp
; File c:\users\michel\desktop\source\gameserver\source\soulsystem.cpp
;	COMDAT ?__empty_global_delete@@YAXPAXI@Z
_TEXT	SEGMENT
___formal$ = 8						; size = 4
___formal$ = 12						; size = 4
?__empty_global_delete@@YAXPAXI@Z PROC			; __empty_global_delete, COMDAT

; 75   : }

  00000	c3		 ret	 0
?__empty_global_delete@@YAXPAXI@Z ENDP			; __empty_global_delete
_TEXT	ENDS
; Function compile flags: /Ogtp
; File c:\users\michel\desktop\source\gameserver\source\soulsystem.cpp
;	COMDAT ?__empty_global_delete@@YAXPAX@Z
_TEXT	SEGMENT
___formal$ = 8						; size = 4
?__empty_global_delete@@YAXPAX@Z PROC			; __empty_global_delete, COMDAT

; 75   : }

  00000	c3		 ret	 0
?__empty_global_delete@@YAXPAX@Z ENDP			; __empty_global_delete
_TEXT	ENDS
END
