; Listing generated by Microsoft (R) Optimizing Compiler Version 19.00.23506.0 

	TITLE	C:\Users\Michel\Desktop\Source\GameServer\Source\StdAfx.cpp
	.686P
	.XMM
	include listing.inc
	.model	flat

INCLUDELIB LIBCMT
INCLUDELIB OLDNAMES

PUBLIC	___@@_PchSym_@00@UfhvihUnrxsvoUwvhpglkUhlfixvUtznvhvieviUhlfixvUivovzhvUhgwzucOlyq@2B50B8482309FC00
PUBLIC	__pIncludeInitManaged
PUBLIC	?szInvalidDateTime@ATL@@3QBDB			; ATL::szInvalidDateTime
PUBLIC	??_C@_0BB@KEKMKJPM@Invalid?5DateTime?$AA@	; `string'
PUBLIC	?szInvalidDateTimeSpan@ATL@@3QBDB		; ATL::szInvalidDateTimeSpan
PUBLIC	??_C@_0BF@GPPHKJFN@Invalid?5DateTimeSpan?$AA@	; `string'
PUBLIC	?_AfxInitManaged@@YAHXZ				; _AfxInitManaged
;	COMDAT ___@@_PchSym_@00@UfhvihUnrxsvoUwvhpglkUhlfixvUtznvhvieviUhlfixvUivovzhvUhgwzucOlyq@2B50B8482309FC00
_BSS	SEGMENT
___@@_PchSym_@00@UfhvihUnrxsvoUwvhpglkUhlfixvUtznvhvieviUhlfixvUivovzhvUhgwzucOlyq@2B50B8482309FC00 DD 01H DUP (?)
_BSS	ENDS
;	COMDAT ??_C@_0BF@GPPHKJFN@Invalid?5DateTimeSpan?$AA@
CONST	SEGMENT
??_C@_0BF@GPPHKJFN@Invalid?5DateTimeSpan?$AA@ DB 'Invalid DateTimeSpan', 00H ; `string'
CONST	ENDS
;	COMDAT ?szInvalidDateTimeSpan@ATL@@3QBDB
CONST	SEGMENT
?szInvalidDateTimeSpan@ATL@@3QBDB DD FLAT:??_C@_0BF@GPPHKJFN@Invalid?5DateTimeSpan?$AA@ ; ATL::szInvalidDateTimeSpan
CONST	ENDS
;	COMDAT ??_C@_0BB@KEKMKJPM@Invalid?5DateTime?$AA@
CONST	SEGMENT
??_C@_0BB@KEKMKJPM@Invalid?5DateTime?$AA@ DB 'Invalid DateTime', 00H ; `string'
CONST	ENDS
;	COMDAT ?szInvalidDateTime@ATL@@3QBDB
CONST	SEGMENT
?szInvalidDateTime@ATL@@3QBDB DD FLAT:??_C@_0BB@KEKMKJPM@Invalid?5DateTime?$AA@ ; ATL::szInvalidDateTime
CONST	ENDS
;	COMDAT __pIncludeInitManaged
_DATA	SEGMENT
__pIncludeInitManaged DD FLAT:?_AfxInitManaged@@YAHXZ
_DATA	ENDS
PUBLIC	?__empty_global_delete@@YAXPAX@Z		; __empty_global_delete
PUBLIC	?__empty_global_delete@@YAXPAXI@Z		; __empty_global_delete
PUBLIC	?_AtlInitializeCriticalSectionEx@ATL@@YAHPAU_RTL_CRITICAL_SECTION@@KK@Z ; ATL::_AtlInitializeCriticalSectionEx
PUBLIC	?atlTraceGeneral@ATL@@3V?$CTraceCategoryEx@$00$0A@@1@A ; ATL::atlTraceGeneral
PUBLIC	?atlTraceCOM@ATL@@3V?$CTraceCategoryEx@$01$0A@@1@A ; ATL::atlTraceCOM
PUBLIC	?atlTraceQI@ATL@@3V?$CTraceCategoryEx@$03$0A@@1@A ; ATL::atlTraceQI
PUBLIC	?atlTraceRegistrar@ATL@@3V?$CTraceCategoryEx@$07$0A@@1@A ; ATL::atlTraceRegistrar
PUBLIC	?atlTraceRefcount@ATL@@3V?$CTraceCategoryEx@$0BA@$0A@@1@A ; ATL::atlTraceRefcount
PUBLIC	?atlTraceWindowing@ATL@@3V?$CTraceCategoryEx@$0CA@$0A@@1@A ; ATL::atlTraceWindowing
PUBLIC	?atlTraceControls@ATL@@3V?$CTraceCategoryEx@$0EA@$0A@@1@A ; ATL::atlTraceControls
PUBLIC	?atlTraceHosting@ATL@@3V?$CTraceCategoryEx@$0IA@$0A@@1@A ; ATL::atlTraceHosting
PUBLIC	?atlTraceDBClient@ATL@@3V?$CTraceCategoryEx@$0BAA@$0A@@1@A ; ATL::atlTraceDBClient
PUBLIC	?atlTraceDBProvider@ATL@@3V?$CTraceCategoryEx@$0CAA@$0A@@1@A ; ATL::atlTraceDBProvider
PUBLIC	?atlTraceSnapin@ATL@@3V?$CTraceCategoryEx@$0EAA@$0A@@1@A ; ATL::atlTraceSnapin
PUBLIC	?atlTraceNotImpl@ATL@@3V?$CTraceCategoryEx@$0IAA@$0A@@1@A ; ATL::atlTraceNotImpl
PUBLIC	?atlTraceAllocation@ATL@@3V?$CTraceCategoryEx@$0BAAA@$0A@@1@A ; ATL::atlTraceAllocation
PUBLIC	?atlTraceException@ATL@@3V?$CTraceCategoryEx@$0CAAA@$0A@@1@A ; ATL::atlTraceException
PUBLIC	?atlTraceTime@ATL@@3V?$CTraceCategoryEx@$0EAAA@$0A@@1@A ; ATL::atlTraceTime
PUBLIC	?atlTraceCache@ATL@@3V?$CTraceCategoryEx@$0IAAA@$0A@@1@A ; ATL::atlTraceCache
PUBLIC	?atlTraceStencil@ATL@@3V?$CTraceCategoryEx@$0BAAAA@$0A@@1@A ; ATL::atlTraceStencil
PUBLIC	?atlTraceString@ATL@@3V?$CTraceCategoryEx@$0CAAAA@$0A@@1@A ; ATL::atlTraceString
PUBLIC	?atlTraceMap@ATL@@3V?$CTraceCategoryEx@$0EAAAA@$0A@@1@A ; ATL::atlTraceMap
PUBLIC	?atlTraceUtil@ATL@@3V?$CTraceCategoryEx@$0IAAAA@$0A@@1@A ; ATL::atlTraceUtil
PUBLIC	?atlTraceSecurity@ATL@@3V?$CTraceCategoryEx@$0BAAAAA@$0A@@1@A ; ATL::atlTraceSecurity
PUBLIC	?atlTraceSync@ATL@@3V?$CTraceCategoryEx@$0CAAAAA@$0A@@1@A ; ATL::atlTraceSync
PUBLIC	?atlTraceISAPI@ATL@@3V?$CTraceCategoryEx@$0EAAAAA@$0A@@1@A ; ATL::atlTraceISAPI
EXTRN	__imp__InitializeCriticalSectionEx@12:PROC
;	COMDAT ?atlTraceGeneral@ATL@@3V?$CTraceCategoryEx@$00$0A@@1@A
_BSS	SEGMENT
?atlTraceGeneral@ATL@@3V?$CTraceCategoryEx@$00$0A@@1@A DD 01H DUP (?) ; ATL::atlTraceGeneral
_BSS	ENDS
;	COMDAT ?atlTraceCOM@ATL@@3V?$CTraceCategoryEx@$01$0A@@1@A
_BSS	SEGMENT
?atlTraceCOM@ATL@@3V?$CTraceCategoryEx@$01$0A@@1@A DD 01H DUP (?) ; ATL::atlTraceCOM
_BSS	ENDS
;	COMDAT ?atlTraceQI@ATL@@3V?$CTraceCategoryEx@$03$0A@@1@A
_BSS	SEGMENT
?atlTraceQI@ATL@@3V?$CTraceCategoryEx@$03$0A@@1@A DD 01H DUP (?) ; ATL::atlTraceQI
_BSS	ENDS
;	COMDAT ?atlTraceRegistrar@ATL@@3V?$CTraceCategoryEx@$07$0A@@1@A
_BSS	SEGMENT
?atlTraceRegistrar@ATL@@3V?$CTraceCategoryEx@$07$0A@@1@A DD 01H DUP (?) ; ATL::atlTraceRegistrar
_BSS	ENDS
;	COMDAT ?atlTraceRefcount@ATL@@3V?$CTraceCategoryEx@$0BA@$0A@@1@A
_BSS	SEGMENT
?atlTraceRefcount@ATL@@3V?$CTraceCategoryEx@$0BA@$0A@@1@A DD 01H DUP (?) ; ATL::atlTraceRefcount
_BSS	ENDS
;	COMDAT ?atlTraceWindowing@ATL@@3V?$CTraceCategoryEx@$0CA@$0A@@1@A
_BSS	SEGMENT
?atlTraceWindowing@ATL@@3V?$CTraceCategoryEx@$0CA@$0A@@1@A DD 01H DUP (?) ; ATL::atlTraceWindowing
_BSS	ENDS
;	COMDAT ?atlTraceControls@ATL@@3V?$CTraceCategoryEx@$0EA@$0A@@1@A
_BSS	SEGMENT
?atlTraceControls@ATL@@3V?$CTraceCategoryEx@$0EA@$0A@@1@A DD 01H DUP (?) ; ATL::atlTraceControls
_BSS	ENDS
;	COMDAT ?atlTraceHosting@ATL@@3V?$CTraceCategoryEx@$0IA@$0A@@1@A
_BSS	SEGMENT
?atlTraceHosting@ATL@@3V?$CTraceCategoryEx@$0IA@$0A@@1@A DD 01H DUP (?) ; ATL::atlTraceHosting
_BSS	ENDS
;	COMDAT ?atlTraceDBClient@ATL@@3V?$CTraceCategoryEx@$0BAA@$0A@@1@A
_BSS	SEGMENT
?atlTraceDBClient@ATL@@3V?$CTraceCategoryEx@$0BAA@$0A@@1@A DD 01H DUP (?) ; ATL::atlTraceDBClient
_BSS	ENDS
;	COMDAT ?atlTraceDBProvider@ATL@@3V?$CTraceCategoryEx@$0CAA@$0A@@1@A
_BSS	SEGMENT
?atlTraceDBProvider@ATL@@3V?$CTraceCategoryEx@$0CAA@$0A@@1@A DD 01H DUP (?) ; ATL::atlTraceDBProvider
_BSS	ENDS
;	COMDAT ?atlTraceSnapin@ATL@@3V?$CTraceCategoryEx@$0EAA@$0A@@1@A
_BSS	SEGMENT
?atlTraceSnapin@ATL@@3V?$CTraceCategoryEx@$0EAA@$0A@@1@A DD 01H DUP (?) ; ATL::atlTraceSnapin
_BSS	ENDS
;	COMDAT ?atlTraceNotImpl@ATL@@3V?$CTraceCategoryEx@$0IAA@$0A@@1@A
_BSS	SEGMENT
?atlTraceNotImpl@ATL@@3V?$CTraceCategoryEx@$0IAA@$0A@@1@A DD 01H DUP (?) ; ATL::atlTraceNotImpl
_BSS	ENDS
;	COMDAT ?atlTraceAllocation@ATL@@3V?$CTraceCategoryEx@$0BAAA@$0A@@1@A
_BSS	SEGMENT
?atlTraceAllocation@ATL@@3V?$CTraceCategoryEx@$0BAAA@$0A@@1@A DD 01H DUP (?) ; ATL::atlTraceAllocation
_BSS	ENDS
;	COMDAT ?atlTraceException@ATL@@3V?$CTraceCategoryEx@$0CAAA@$0A@@1@A
_BSS	SEGMENT
?atlTraceException@ATL@@3V?$CTraceCategoryEx@$0CAAA@$0A@@1@A DD 01H DUP (?) ; ATL::atlTraceException
_BSS	ENDS
;	COMDAT ?atlTraceTime@ATL@@3V?$CTraceCategoryEx@$0EAAA@$0A@@1@A
_BSS	SEGMENT
?atlTraceTime@ATL@@3V?$CTraceCategoryEx@$0EAAA@$0A@@1@A DD 01H DUP (?) ; ATL::atlTraceTime
_BSS	ENDS
;	COMDAT ?atlTraceCache@ATL@@3V?$CTraceCategoryEx@$0IAAA@$0A@@1@A
_BSS	SEGMENT
?atlTraceCache@ATL@@3V?$CTraceCategoryEx@$0IAAA@$0A@@1@A DD 01H DUP (?) ; ATL::atlTraceCache
_BSS	ENDS
;	COMDAT ?atlTraceStencil@ATL@@3V?$CTraceCategoryEx@$0BAAAA@$0A@@1@A
_BSS	SEGMENT
?atlTraceStencil@ATL@@3V?$CTraceCategoryEx@$0BAAAA@$0A@@1@A DD 01H DUP (?) ; ATL::atlTraceStencil
_BSS	ENDS
;	COMDAT ?atlTraceString@ATL@@3V?$CTraceCategoryEx@$0CAAAA@$0A@@1@A
_BSS	SEGMENT
?atlTraceString@ATL@@3V?$CTraceCategoryEx@$0CAAAA@$0A@@1@A DD 01H DUP (?) ; ATL::atlTraceString
_BSS	ENDS
;	COMDAT ?atlTraceMap@ATL@@3V?$CTraceCategoryEx@$0EAAAA@$0A@@1@A
_BSS	SEGMENT
?atlTraceMap@ATL@@3V?$CTraceCategoryEx@$0EAAAA@$0A@@1@A DD 01H DUP (?) ; ATL::atlTraceMap
_BSS	ENDS
;	COMDAT ?atlTraceUtil@ATL@@3V?$CTraceCategoryEx@$0IAAAA@$0A@@1@A
_BSS	SEGMENT
?atlTraceUtil@ATL@@3V?$CTraceCategoryEx@$0IAAAA@$0A@@1@A DD 01H DUP (?) ; ATL::atlTraceUtil
_BSS	ENDS
;	COMDAT ?atlTraceSecurity@ATL@@3V?$CTraceCategoryEx@$0BAAAAA@$0A@@1@A
_BSS	SEGMENT
?atlTraceSecurity@ATL@@3V?$CTraceCategoryEx@$0BAAAAA@$0A@@1@A DD 01H DUP (?) ; ATL::atlTraceSecurity
_BSS	ENDS
;	COMDAT ?atlTraceSync@ATL@@3V?$CTraceCategoryEx@$0CAAAAA@$0A@@1@A
_BSS	SEGMENT
?atlTraceSync@ATL@@3V?$CTraceCategoryEx@$0CAAAAA@$0A@@1@A DD 01H DUP (?) ; ATL::atlTraceSync
_BSS	ENDS
;	COMDAT ?atlTraceISAPI@ATL@@3V?$CTraceCategoryEx@$0EAAAAA@$0A@@1@A
_BSS	SEGMENT
?atlTraceISAPI@ATL@@3V?$CTraceCategoryEx@$0EAAAAA@$0A@@1@A DD 01H DUP (?) ; ATL::atlTraceISAPI
_BSS	ENDS
; Function compile flags: /Ogtp
; File c:\program files (x86)\microsoft visual studio 14.0\vc\atlmfc\include\afx.inl
;	COMDAT ?_AfxInitManaged@@YAHXZ
_TEXT	SEGMENT
?_AfxInitManaged@@YAHXZ PROC				; _AfxInitManaged, COMDAT

; 77   : 	return 0;

  00000	33 c0		 xor	 eax, eax

; 78   : }

  00002	c3		 ret	 0
?_AfxInitManaged@@YAHXZ ENDP				; _AfxInitManaged
_TEXT	ENDS
; Function compile flags: /Ogtp
; File c:\program files (x86)\microsoft visual studio 14.0\vc\atlmfc\include\atlwinverapi.h
;	COMDAT ?_AtlInitializeCriticalSectionEx@ATL@@YAHPAU_RTL_CRITICAL_SECTION@@KK@Z
_TEXT	SEGMENT
_lpCriticalSection$ = 8					; size = 4
_dwSpinCount$ = 12					; size = 4
_Flags$ = 16						; size = 4
?_AtlInitializeCriticalSectionEx@ATL@@YAHPAU_RTL_CRITICAL_SECTION@@KK@Z PROC ; ATL::_AtlInitializeCriticalSectionEx, COMDAT

; 727  : {

  00000	55		 push	 ebp
  00001	8b ec		 mov	 ebp, esp

; 728  : #if (NTDDI_VERSION >= NTDDI_VISTA) && !defined(_USING_V110_SDK71_) && !defined(_ATL_XP_TARGETING)
; 729  : 	// InitializeCriticalSectionEx is available in Vista or later, desktop or store apps
; 730  : 	return ::InitializeCriticalSectionEx(lpCriticalSection, dwSpinCount, Flags);

  00003	ff 75 10	 push	 DWORD PTR _Flags$[ebp]
  00006	ff 75 0c	 push	 DWORD PTR _dwSpinCount$[ebp]
  00009	ff 75 08	 push	 DWORD PTR _lpCriticalSection$[ebp]
  0000c	ff 15 00 00 00
	00		 call	 DWORD PTR __imp__InitializeCriticalSectionEx@12

; 731  : #else
; 732  : 	UNREFERENCED_PARAMETER(Flags);
; 733  : 
; 734  : 	// ...otherwise fall back to using InitializeCriticalSectionAndSpinCount.
; 735  : 	return ::InitializeCriticalSectionAndSpinCount(lpCriticalSection, dwSpinCount);
; 736  : #endif
; 737  : }

  00012	5d		 pop	 ebp
  00013	c3		 ret	 0
?_AtlInitializeCriticalSectionEx@ATL@@YAHPAU_RTL_CRITICAL_SECTION@@KK@Z ENDP ; ATL::_AtlInitializeCriticalSectionEx
_TEXT	ENDS
; Function compile flags: /Ogtp
; File c:\program files (x86)\microsoft visual studio 14.0\vc\atlmfc\include\atltrace.h
;	COMDAT ??0?$CTraceCategoryEx@$0EAAAAA@$0A@@ATL@@QAE@PBD@Z
_TEXT	SEGMENT
_pszCategoryName$ = 8					; size = 4
??0?$CTraceCategoryEx@$0EAAAAA@$0A@@ATL@@QAE@PBD@Z PROC	; ATL::CTraceCategoryEx<4194304,0>::CTraceCategoryEx<4194304,0>, COMDAT
; _this$ = ecx

; 496  : 	(void)pszCategoryName;
; 497  : }

  00000	8b c1		 mov	 eax, ecx
  00002	c2 04 00	 ret	 4
??0?$CTraceCategoryEx@$0EAAAAA@$0A@@ATL@@QAE@PBD@Z ENDP	; ATL::CTraceCategoryEx<4194304,0>::CTraceCategoryEx<4194304,0>
_TEXT	ENDS
; Function compile flags: /Ogtp
; File c:\program files (x86)\microsoft visual studio 14.0\vc\atlmfc\include\atltrace.h
;	COMDAT ??0?$CTraceCategoryEx@$0CAAAAA@$0A@@ATL@@QAE@PBD@Z
_TEXT	SEGMENT
_pszCategoryName$ = 8					; size = 4
??0?$CTraceCategoryEx@$0CAAAAA@$0A@@ATL@@QAE@PBD@Z PROC	; ATL::CTraceCategoryEx<2097152,0>::CTraceCategoryEx<2097152,0>, COMDAT
; _this$ = ecx

; 496  : 	(void)pszCategoryName;
; 497  : }

  00000	8b c1		 mov	 eax, ecx
  00002	c2 04 00	 ret	 4
??0?$CTraceCategoryEx@$0CAAAAA@$0A@@ATL@@QAE@PBD@Z ENDP	; ATL::CTraceCategoryEx<2097152,0>::CTraceCategoryEx<2097152,0>
_TEXT	ENDS
; Function compile flags: /Ogtp
; File c:\program files (x86)\microsoft visual studio 14.0\vc\atlmfc\include\atltrace.h
;	COMDAT ??0?$CTraceCategoryEx@$0BAAAAA@$0A@@ATL@@QAE@PBD@Z
_TEXT	SEGMENT
_pszCategoryName$ = 8					; size = 4
??0?$CTraceCategoryEx@$0BAAAAA@$0A@@ATL@@QAE@PBD@Z PROC	; ATL::CTraceCategoryEx<1048576,0>::CTraceCategoryEx<1048576,0>, COMDAT
; _this$ = ecx

; 496  : 	(void)pszCategoryName;
; 497  : }

  00000	8b c1		 mov	 eax, ecx
  00002	c2 04 00	 ret	 4
??0?$CTraceCategoryEx@$0BAAAAA@$0A@@ATL@@QAE@PBD@Z ENDP	; ATL::CTraceCategoryEx<1048576,0>::CTraceCategoryEx<1048576,0>
_TEXT	ENDS
; Function compile flags: /Ogtp
; File c:\program files (x86)\microsoft visual studio 14.0\vc\atlmfc\include\atltrace.h
;	COMDAT ??0?$CTraceCategoryEx@$0EAAAA@$0A@@ATL@@QAE@PBD@Z
_TEXT	SEGMENT
_pszCategoryName$ = 8					; size = 4
??0?$CTraceCategoryEx@$0EAAAA@$0A@@ATL@@QAE@PBD@Z PROC	; ATL::CTraceCategoryEx<262144,0>::CTraceCategoryEx<262144,0>, COMDAT
; _this$ = ecx

; 496  : 	(void)pszCategoryName;
; 497  : }

  00000	8b c1		 mov	 eax, ecx
  00002	c2 04 00	 ret	 4
??0?$CTraceCategoryEx@$0EAAAA@$0A@@ATL@@QAE@PBD@Z ENDP	; ATL::CTraceCategoryEx<262144,0>::CTraceCategoryEx<262144,0>
_TEXT	ENDS
; Function compile flags: /Ogtp
; File c:\program files (x86)\microsoft visual studio 14.0\vc\atlmfc\include\atltrace.h
;	COMDAT ??0?$CTraceCategoryEx@$0CAAAA@$0A@@ATL@@QAE@PBD@Z
_TEXT	SEGMENT
_pszCategoryName$ = 8					; size = 4
??0?$CTraceCategoryEx@$0CAAAA@$0A@@ATL@@QAE@PBD@Z PROC	; ATL::CTraceCategoryEx<131072,0>::CTraceCategoryEx<131072,0>, COMDAT
; _this$ = ecx

; 496  : 	(void)pszCategoryName;
; 497  : }

  00000	8b c1		 mov	 eax, ecx
  00002	c2 04 00	 ret	 4
??0?$CTraceCategoryEx@$0CAAAA@$0A@@ATL@@QAE@PBD@Z ENDP	; ATL::CTraceCategoryEx<131072,0>::CTraceCategoryEx<131072,0>
_TEXT	ENDS
; Function compile flags: /Ogtp
; File c:\program files (x86)\microsoft visual studio 14.0\vc\atlmfc\include\atltrace.h
;	COMDAT ??0?$CTraceCategoryEx@$0BAAAA@$0A@@ATL@@QAE@PBD@Z
_TEXT	SEGMENT
_pszCategoryName$ = 8					; size = 4
??0?$CTraceCategoryEx@$0BAAAA@$0A@@ATL@@QAE@PBD@Z PROC	; ATL::CTraceCategoryEx<65536,0>::CTraceCategoryEx<65536,0>, COMDAT
; _this$ = ecx

; 496  : 	(void)pszCategoryName;
; 497  : }

  00000	8b c1		 mov	 eax, ecx
  00002	c2 04 00	 ret	 4
??0?$CTraceCategoryEx@$0BAAAA@$0A@@ATL@@QAE@PBD@Z ENDP	; ATL::CTraceCategoryEx<65536,0>::CTraceCategoryEx<65536,0>
_TEXT	ENDS
; Function compile flags: /Ogtp
; File c:\program files (x86)\microsoft visual studio 14.0\vc\atlmfc\include\atltrace.h
;	COMDAT ??0?$CTraceCategoryEx@$0IAAA@$0A@@ATL@@QAE@PBD@Z
_TEXT	SEGMENT
_pszCategoryName$ = 8					; size = 4
??0?$CTraceCategoryEx@$0IAAA@$0A@@ATL@@QAE@PBD@Z PROC	; ATL::CTraceCategoryEx<32768,0>::CTraceCategoryEx<32768,0>, COMDAT
; _this$ = ecx

; 496  : 	(void)pszCategoryName;
; 497  : }

  00000	8b c1		 mov	 eax, ecx
  00002	c2 04 00	 ret	 4
??0?$CTraceCategoryEx@$0IAAA@$0A@@ATL@@QAE@PBD@Z ENDP	; ATL::CTraceCategoryEx<32768,0>::CTraceCategoryEx<32768,0>
_TEXT	ENDS
; Function compile flags: /Ogtp
; File c:\program files (x86)\microsoft visual studio 14.0\vc\atlmfc\include\atltrace.h
;	COMDAT ??0?$CTraceCategoryEx@$0EAAA@$0A@@ATL@@QAE@PBD@Z
_TEXT	SEGMENT
_pszCategoryName$ = 8					; size = 4
??0?$CTraceCategoryEx@$0EAAA@$0A@@ATL@@QAE@PBD@Z PROC	; ATL::CTraceCategoryEx<16384,0>::CTraceCategoryEx<16384,0>, COMDAT
; _this$ = ecx

; 496  : 	(void)pszCategoryName;
; 497  : }

  00000	8b c1		 mov	 eax, ecx
  00002	c2 04 00	 ret	 4
??0?$CTraceCategoryEx@$0EAAA@$0A@@ATL@@QAE@PBD@Z ENDP	; ATL::CTraceCategoryEx<16384,0>::CTraceCategoryEx<16384,0>
_TEXT	ENDS
; Function compile flags: /Ogtp
; File c:\program files (x86)\microsoft visual studio 14.0\vc\atlmfc\include\atltrace.h
;	COMDAT ??0?$CTraceCategoryEx@$0CAAA@$0A@@ATL@@QAE@PBD@Z
_TEXT	SEGMENT
_pszCategoryName$ = 8					; size = 4
??0?$CTraceCategoryEx@$0CAAA@$0A@@ATL@@QAE@PBD@Z PROC	; ATL::CTraceCategoryEx<8192,0>::CTraceCategoryEx<8192,0>, COMDAT
; _this$ = ecx

; 496  : 	(void)pszCategoryName;
; 497  : }

  00000	8b c1		 mov	 eax, ecx
  00002	c2 04 00	 ret	 4
??0?$CTraceCategoryEx@$0CAAA@$0A@@ATL@@QAE@PBD@Z ENDP	; ATL::CTraceCategoryEx<8192,0>::CTraceCategoryEx<8192,0>
_TEXT	ENDS
; Function compile flags: /Ogtp
; File c:\program files (x86)\microsoft visual studio 14.0\vc\atlmfc\include\atltrace.h
;	COMDAT ??0?$CTraceCategoryEx@$0BAAA@$0A@@ATL@@QAE@PBD@Z
_TEXT	SEGMENT
_pszCategoryName$ = 8					; size = 4
??0?$CTraceCategoryEx@$0BAAA@$0A@@ATL@@QAE@PBD@Z PROC	; ATL::CTraceCategoryEx<4096,0>::CTraceCategoryEx<4096,0>, COMDAT
; _this$ = ecx

; 496  : 	(void)pszCategoryName;
; 497  : }

  00000	8b c1		 mov	 eax, ecx
  00002	c2 04 00	 ret	 4
??0?$CTraceCategoryEx@$0BAAA@$0A@@ATL@@QAE@PBD@Z ENDP	; ATL::CTraceCategoryEx<4096,0>::CTraceCategoryEx<4096,0>
_TEXT	ENDS
; Function compile flags: /Ogtp
; File c:\program files (x86)\microsoft visual studio 14.0\vc\atlmfc\include\atltrace.h
;	COMDAT ??0?$CTraceCategoryEx@$0IAA@$0A@@ATL@@QAE@PBD@Z
_TEXT	SEGMENT
_pszCategoryName$ = 8					; size = 4
??0?$CTraceCategoryEx@$0IAA@$0A@@ATL@@QAE@PBD@Z PROC	; ATL::CTraceCategoryEx<2048,0>::CTraceCategoryEx<2048,0>, COMDAT
; _this$ = ecx

; 496  : 	(void)pszCategoryName;
; 497  : }

  00000	8b c1		 mov	 eax, ecx
  00002	c2 04 00	 ret	 4
??0?$CTraceCategoryEx@$0IAA@$0A@@ATL@@QAE@PBD@Z ENDP	; ATL::CTraceCategoryEx<2048,0>::CTraceCategoryEx<2048,0>
_TEXT	ENDS
; Function compile flags: /Ogtp
; File c:\program files (x86)\microsoft visual studio 14.0\vc\atlmfc\include\atltrace.h
;	COMDAT ??0?$CTraceCategoryEx@$0EAA@$0A@@ATL@@QAE@PBD@Z
_TEXT	SEGMENT
_pszCategoryName$ = 8					; size = 4
??0?$CTraceCategoryEx@$0EAA@$0A@@ATL@@QAE@PBD@Z PROC	; ATL::CTraceCategoryEx<1024,0>::CTraceCategoryEx<1024,0>, COMDAT
; _this$ = ecx

; 496  : 	(void)pszCategoryName;
; 497  : }

  00000	8b c1		 mov	 eax, ecx
  00002	c2 04 00	 ret	 4
??0?$CTraceCategoryEx@$0EAA@$0A@@ATL@@QAE@PBD@Z ENDP	; ATL::CTraceCategoryEx<1024,0>::CTraceCategoryEx<1024,0>
_TEXT	ENDS
; Function compile flags: /Ogtp
; File c:\program files (x86)\microsoft visual studio 14.0\vc\atlmfc\include\atltrace.h
;	COMDAT ??0?$CTraceCategoryEx@$0CAA@$0A@@ATL@@QAE@PBD@Z
_TEXT	SEGMENT
_pszCategoryName$ = 8					; size = 4
??0?$CTraceCategoryEx@$0CAA@$0A@@ATL@@QAE@PBD@Z PROC	; ATL::CTraceCategoryEx<512,0>::CTraceCategoryEx<512,0>, COMDAT
; _this$ = ecx

; 496  : 	(void)pszCategoryName;
; 497  : }

  00000	8b c1		 mov	 eax, ecx
  00002	c2 04 00	 ret	 4
??0?$CTraceCategoryEx@$0CAA@$0A@@ATL@@QAE@PBD@Z ENDP	; ATL::CTraceCategoryEx<512,0>::CTraceCategoryEx<512,0>
_TEXT	ENDS
; Function compile flags: /Ogtp
; File c:\program files (x86)\microsoft visual studio 14.0\vc\atlmfc\include\atltrace.h
;	COMDAT ??0?$CTraceCategoryEx@$0BAA@$0A@@ATL@@QAE@PBD@Z
_TEXT	SEGMENT
_pszCategoryName$ = 8					; size = 4
??0?$CTraceCategoryEx@$0BAA@$0A@@ATL@@QAE@PBD@Z PROC	; ATL::CTraceCategoryEx<256,0>::CTraceCategoryEx<256,0>, COMDAT
; _this$ = ecx

; 496  : 	(void)pszCategoryName;
; 497  : }

  00000	8b c1		 mov	 eax, ecx
  00002	c2 04 00	 ret	 4
??0?$CTraceCategoryEx@$0BAA@$0A@@ATL@@QAE@PBD@Z ENDP	; ATL::CTraceCategoryEx<256,0>::CTraceCategoryEx<256,0>
_TEXT	ENDS
; Function compile flags: /Ogtp
; File c:\program files (x86)\microsoft visual studio 14.0\vc\atlmfc\include\atltrace.h
;	COMDAT ??0?$CTraceCategoryEx@$0IA@$0A@@ATL@@QAE@PBD@Z
_TEXT	SEGMENT
_pszCategoryName$ = 8					; size = 4
??0?$CTraceCategoryEx@$0IA@$0A@@ATL@@QAE@PBD@Z PROC	; ATL::CTraceCategoryEx<128,0>::CTraceCategoryEx<128,0>, COMDAT
; _this$ = ecx

; 496  : 	(void)pszCategoryName;
; 497  : }

  00000	8b c1		 mov	 eax, ecx
  00002	c2 04 00	 ret	 4
??0?$CTraceCategoryEx@$0IA@$0A@@ATL@@QAE@PBD@Z ENDP	; ATL::CTraceCategoryEx<128,0>::CTraceCategoryEx<128,0>
_TEXT	ENDS
; Function compile flags: /Ogtp
; File c:\program files (x86)\microsoft visual studio 14.0\vc\atlmfc\include\atltrace.h
;	COMDAT ??0?$CTraceCategoryEx@$0EA@$0A@@ATL@@QAE@PBD@Z
_TEXT	SEGMENT
_pszCategoryName$ = 8					; size = 4
??0?$CTraceCategoryEx@$0EA@$0A@@ATL@@QAE@PBD@Z PROC	; ATL::CTraceCategoryEx<64,0>::CTraceCategoryEx<64,0>, COMDAT
; _this$ = ecx

; 496  : 	(void)pszCategoryName;
; 497  : }

  00000	8b c1		 mov	 eax, ecx
  00002	c2 04 00	 ret	 4
??0?$CTraceCategoryEx@$0EA@$0A@@ATL@@QAE@PBD@Z ENDP	; ATL::CTraceCategoryEx<64,0>::CTraceCategoryEx<64,0>
_TEXT	ENDS
; Function compile flags: /Ogtp
; File c:\program files (x86)\microsoft visual studio 14.0\vc\atlmfc\include\atltrace.h
;	COMDAT ??0?$CTraceCategoryEx@$0CA@$0A@@ATL@@QAE@PBD@Z
_TEXT	SEGMENT
_pszCategoryName$ = 8					; size = 4
??0?$CTraceCategoryEx@$0CA@$0A@@ATL@@QAE@PBD@Z PROC	; ATL::CTraceCategoryEx<32,0>::CTraceCategoryEx<32,0>, COMDAT
; _this$ = ecx

; 496  : 	(void)pszCategoryName;
; 497  : }

  00000	8b c1		 mov	 eax, ecx
  00002	c2 04 00	 ret	 4
??0?$CTraceCategoryEx@$0CA@$0A@@ATL@@QAE@PBD@Z ENDP	; ATL::CTraceCategoryEx<32,0>::CTraceCategoryEx<32,0>
_TEXT	ENDS
; Function compile flags: /Ogtp
; File c:\program files (x86)\microsoft visual studio 14.0\vc\atlmfc\include\atltrace.h
;	COMDAT ??0?$CTraceCategoryEx@$0BA@$0A@@ATL@@QAE@PBD@Z
_TEXT	SEGMENT
_pszCategoryName$ = 8					; size = 4
??0?$CTraceCategoryEx@$0BA@$0A@@ATL@@QAE@PBD@Z PROC	; ATL::CTraceCategoryEx<16,0>::CTraceCategoryEx<16,0>, COMDAT
; _this$ = ecx

; 496  : 	(void)pszCategoryName;
; 497  : }

  00000	8b c1		 mov	 eax, ecx
  00002	c2 04 00	 ret	 4
??0?$CTraceCategoryEx@$0BA@$0A@@ATL@@QAE@PBD@Z ENDP	; ATL::CTraceCategoryEx<16,0>::CTraceCategoryEx<16,0>
_TEXT	ENDS
; Function compile flags: /Ogtp
; File c:\program files (x86)\microsoft visual studio 14.0\vc\atlmfc\include\atltrace.h
;	COMDAT ??0?$CTraceCategoryEx@$07$0A@@ATL@@QAE@PBD@Z
_TEXT	SEGMENT
_pszCategoryName$ = 8					; size = 4
??0?$CTraceCategoryEx@$07$0A@@ATL@@QAE@PBD@Z PROC	; ATL::CTraceCategoryEx<8,0>::CTraceCategoryEx<8,0>, COMDAT
; _this$ = ecx

; 496  : 	(void)pszCategoryName;
; 497  : }

  00000	8b c1		 mov	 eax, ecx
  00002	c2 04 00	 ret	 4
??0?$CTraceCategoryEx@$07$0A@@ATL@@QAE@PBD@Z ENDP	; ATL::CTraceCategoryEx<8,0>::CTraceCategoryEx<8,0>
_TEXT	ENDS
; Function compile flags: /Ogtp
; File c:\program files (x86)\microsoft visual studio 14.0\vc\atlmfc\include\atltrace.h
;	COMDAT ??0?$CTraceCategoryEx@$03$0A@@ATL@@QAE@PBD@Z
_TEXT	SEGMENT
_pszCategoryName$ = 8					; size = 4
??0?$CTraceCategoryEx@$03$0A@@ATL@@QAE@PBD@Z PROC	; ATL::CTraceCategoryEx<4,0>::CTraceCategoryEx<4,0>, COMDAT
; _this$ = ecx

; 496  : 	(void)pszCategoryName;
; 497  : }

  00000	8b c1		 mov	 eax, ecx
  00002	c2 04 00	 ret	 4
??0?$CTraceCategoryEx@$03$0A@@ATL@@QAE@PBD@Z ENDP	; ATL::CTraceCategoryEx<4,0>::CTraceCategoryEx<4,0>
_TEXT	ENDS
; Function compile flags: /Ogtp
; File c:\program files (x86)\microsoft visual studio 14.0\vc\atlmfc\include\atltrace.h
;	COMDAT ??0?$CTraceCategoryEx@$01$0A@@ATL@@QAE@PBD@Z
_TEXT	SEGMENT
_pszCategoryName$ = 8					; size = 4
??0?$CTraceCategoryEx@$01$0A@@ATL@@QAE@PBD@Z PROC	; ATL::CTraceCategoryEx<2,0>::CTraceCategoryEx<2,0>, COMDAT
; _this$ = ecx

; 496  : 	(void)pszCategoryName;
; 497  : }

  00000	8b c1		 mov	 eax, ecx
  00002	c2 04 00	 ret	 4
??0?$CTraceCategoryEx@$01$0A@@ATL@@QAE@PBD@Z ENDP	; ATL::CTraceCategoryEx<2,0>::CTraceCategoryEx<2,0>
_TEXT	ENDS
; Function compile flags: /Ogtp
; File c:\program files (x86)\microsoft visual studio 14.0\vc\atlmfc\include\atltrace.h
;	COMDAT ??0?$CTraceCategoryEx@$00$0A@@ATL@@QAE@PBD@Z
_TEXT	SEGMENT
_pszCategoryName$ = 8					; size = 4
??0?$CTraceCategoryEx@$00$0A@@ATL@@QAE@PBD@Z PROC	; ATL::CTraceCategoryEx<1,0>::CTraceCategoryEx<1,0>, COMDAT
; _this$ = ecx

; 496  : 	(void)pszCategoryName;
; 497  : }

  00000	8b c1		 mov	 eax, ecx
  00002	c2 04 00	 ret	 4
??0?$CTraceCategoryEx@$00$0A@@ATL@@QAE@PBD@Z ENDP	; ATL::CTraceCategoryEx<1,0>::CTraceCategoryEx<1,0>
_TEXT	ENDS
; Function compile flags: /Ogtp
; File c:\program files (x86)\microsoft visual studio 14.0\vc\atlmfc\include\atltrace.h
;	COMDAT ??0?$CTraceCategoryEx@$0IAAAA@$0A@@ATL@@QAE@PBD@Z
_TEXT	SEGMENT
_pszCategoryName$ = 8					; size = 4
??0?$CTraceCategoryEx@$0IAAAA@$0A@@ATL@@QAE@PBD@Z PROC	; ATL::CTraceCategoryEx<524288,0>::CTraceCategoryEx<524288,0>, COMDAT
; _this$ = ecx

; 496  : 	(void)pszCategoryName;
; 497  : }

  00000	8b c1		 mov	 eax, ecx
  00002	c2 04 00	 ret	 4
??0?$CTraceCategoryEx@$0IAAAA@$0A@@ATL@@QAE@PBD@Z ENDP	; ATL::CTraceCategoryEx<524288,0>::CTraceCategoryEx<524288,0>
_TEXT	ENDS
; Function compile flags: /Ogtp
; File c:\users\michel\desktop\source\gameserver\source\stdafx.cpp
;	COMDAT ?__empty_global_delete@@YAXPAXI@Z
_TEXT	SEGMENT
___formal$ = 8						; size = 4
___formal$ = 12						; size = 4
?__empty_global_delete@@YAXPAXI@Z PROC			; __empty_global_delete, COMDAT

  00000	c3		 ret	 0
?__empty_global_delete@@YAXPAXI@Z ENDP			; __empty_global_delete
_TEXT	ENDS
; Function compile flags: /Ogtp
; File c:\users\michel\desktop\source\gameserver\source\stdafx.cpp
;	COMDAT ?__empty_global_delete@@YAXPAX@Z
_TEXT	SEGMENT
___formal$ = 8						; size = 4
?__empty_global_delete@@YAXPAX@Z PROC			; __empty_global_delete, COMDAT

  00000	c3		 ret	 0
?__empty_global_delete@@YAXPAX@Z ENDP			; __empty_global_delete
_TEXT	ENDS
END
