; Listing generated by Microsoft (R) Optimizing Compiler Version 19.00.23506.0 

	TITLE	C:\Users\Michel\Desktop\Source\GameServer\Source\SummonSpot.cpp
	.686P
	.XMM
	include listing.inc
	.model	flat

INCLUDELIB LIBCMT
INCLUDELIB OLDNAMES

PUBLIC	??_H@YGXPAXIIP6EPAX0@Z@Z			; `vector constructor iterator'
PUBLIC	?__empty_global_delete@@YAXPAX@Z		; __empty_global_delete
PUBLIC	?__empty_global_delete@@YAXPAXI@Z		; __empty_global_delete
PUBLIC	??1OBJECTSTRUCT@@QAE@XZ				; OBJECTSTRUCT::~OBJECTSTRUCT
PUBLIC	??_EOBJECTSTRUCT@@QAEPAXI@Z			; OBJECTSTRUCT::`vector deleting destructor'
PUBLIC	??0SummonSpot@@QAE@XZ				; SummonSpot::SummonSpot
PUBLIC	??1SummonSpot@@UAE@XZ				; SummonSpot::~SummonSpot
PUBLIC	?DropScroll@SummonSpot@@QAE_NPAUOBJECTSTRUCT@@G@Z ; SummonSpot::DropScroll
PUBLIC	?CheckSpotState@SummonSpot@@QAE_NPAUOBJECTSTRUCT@@@Z ; SummonSpot::CheckSpotState
PUBLIC	?SendSpotInfo@SummonSpot@@QAEXPAUOBJECTSTRUCT@@@Z ; SummonSpot::SendSpotInfo
PUBLIC	??_GSummonSpot@@UAEPAXI@Z			; SummonSpot::`scalar deleting destructor'
PUBLIC	??_7SummonSpot@@6B@				; SummonSpot::`vftable'
PUBLIC	?g_SummonSpot@@3VSummonSpot@@A			; g_SummonSpot
PUBLIC	??_R4SummonSpot@@6B@				; SummonSpot::`RTTI Complete Object Locator'
PUBLIC	??_R0?AVSummonSpot@@@8				; SummonSpot `RTTI Type Descriptor'
PUBLIC	??_R3SummonSpot@@8				; SummonSpot::`RTTI Class Hierarchy Descriptor'
PUBLIC	??_R2SummonSpot@@8				; SummonSpot::`RTTI Base Class Array'
PUBLIC	??_R1A@?0A@EA@SummonSpot@@8			; SummonSpot::`RTTI Base Class Descriptor at (0,-1,0,64)'
EXTRN	??_M@YGXPAXIIP6EX0@Z@Z:PROC			; `eh vector destructor iterator'
EXTRN	??3@YAXPAXI@Z:PROC				; operator delete
EXTRN	??_V@YAXPAXI@Z:PROC				; operator delete[]
EXTRN	_atexit:PROC
EXTRN	??1CSkillDelay@@UAE@XZ:PROC			; CSkillDelay::~CSkillDelay
EXTRN	??1TMonsterAIAgro@@UAE@XZ:PROC			; TMonsterAIAgro::~TMonsterAIAgro
EXTRN	??_ESummonSpot@@UAEPAXI@Z:PROC			; SummonSpot::`vector deleting destructor'
EXTRN	@__security_check_cookie@4:PROC
EXTRN	___CxxFrameHandler3:PROC
EXTRN	??_7type_info@@6B@:QWORD			; type_info::`vftable'
EXTRN	___security_cookie:DWORD
_BSS	SEGMENT
?g_SummonSpot@@3VSummonSpot@@A DQ 01H DUP (?)		; g_SummonSpot
_BSS	ENDS
CRT$XCU	SEGMENT
?g_SummonSpot$initializer$@@3P6AXXZA DD FLAT:??__Eg_SummonSpot@@YAXXZ ; g_SummonSpot$initializer$
CRT$XCU	ENDS
;	COMDAT ??_R1A@?0A@EA@SummonSpot@@8
rdata$r	SEGMENT
??_R1A@?0A@EA@SummonSpot@@8 DD FLAT:??_R0?AVSummonSpot@@@8 ; SummonSpot::`RTTI Base Class Descriptor at (0,-1,0,64)'
	DD	00H
	DD	00H
	DD	0ffffffffH
	DD	00H
	DD	040H
	DD	FLAT:??_R3SummonSpot@@8
rdata$r	ENDS
;	COMDAT ??_R2SummonSpot@@8
rdata$r	SEGMENT
??_R2SummonSpot@@8 DD FLAT:??_R1A@?0A@EA@SummonSpot@@8	; SummonSpot::`RTTI Base Class Array'
rdata$r	ENDS
;	COMDAT ??_R3SummonSpot@@8
rdata$r	SEGMENT
??_R3SummonSpot@@8 DD 00H				; SummonSpot::`RTTI Class Hierarchy Descriptor'
	DD	00H
	DD	01H
	DD	FLAT:??_R2SummonSpot@@8
rdata$r	ENDS
;	COMDAT ??_R0?AVSummonSpot@@@8
data$r	SEGMENT
??_R0?AVSummonSpot@@@8 DD FLAT:??_7type_info@@6B@	; SummonSpot `RTTI Type Descriptor'
	DD	00H
	DB	'.?AVSummonSpot@@', 00H
data$r	ENDS
;	COMDAT ??_R4SummonSpot@@6B@
rdata$r	SEGMENT
??_R4SummonSpot@@6B@ DD 00H				; SummonSpot::`RTTI Complete Object Locator'
	DD	00H
	DD	00H
	DD	FLAT:??_R0?AVSummonSpot@@@8
	DD	FLAT:??_R3SummonSpot@@8
rdata$r	ENDS
;	COMDAT ??_7SummonSpot@@6B@
CONST	SEGMENT
??_7SummonSpot@@6B@ DD FLAT:??_R4SummonSpot@@6B@	; SummonSpot::`vftable'
	DD	FLAT:??_ESummonSpot@@UAEPAXI@Z
CONST	ENDS
;	COMDAT xdata$x
xdata$x	SEGMENT
__ehfuncinfo$??_EOBJECTSTRUCT@@QAEPAXI@Z DD 019930522H
	DD	00H
	DD	00H
	DD	2 DUP(00H)
	DD	2 DUP(00H)
	DD	00H
	DD	05H
xdata$x	ENDS
; Function compile flags: /Ogtp
;	COMDAT ??__Fg_SummonSpot@@YAXXZ
text$yd	SEGMENT
??__Fg_SummonSpot@@YAXXZ PROC				; `dynamic atexit destructor for 'g_SummonSpot'', COMDAT
  00000	b9 00 00 00 00	 mov	 ecx, OFFSET ?g_SummonSpot@@3VSummonSpot@@A ; g_SummonSpot
  00005	e9 00 00 00 00	 jmp	 ??1SummonSpot@@UAE@XZ	; SummonSpot::~SummonSpot
??__Fg_SummonSpot@@YAXXZ ENDP				; `dynamic atexit destructor for 'g_SummonSpot''
text$yd	ENDS
; Function compile flags: /Ogtp
; File c:\users\michel\desktop\source\gameserver\source\summonspot.cpp
;	COMDAT ??__Eg_SummonSpot@@YAXXZ
text$di	SEGMENT
??__Eg_SummonSpot@@YAXXZ PROC				; `dynamic initializer for 'g_SummonSpot'', COMDAT

; 16   : SummonSpot g_SummonSpot;

  00000	b9 00 00 00 00	 mov	 ecx, OFFSET ?g_SummonSpot@@3VSummonSpot@@A ; g_SummonSpot
  00005	e8 00 00 00 00	 call	 ??0SummonSpot@@QAE@XZ	; SummonSpot::SummonSpot
  0000a	68 00 00 00 00	 push	 OFFSET ??__Fg_SummonSpot@@YAXXZ ; `dynamic atexit destructor for 'g_SummonSpot''
  0000f	e8 00 00 00 00	 call	 _atexit
  00014	59		 pop	 ecx
  00015	c3		 ret	 0
??__Eg_SummonSpot@@YAXXZ ENDP				; `dynamic initializer for 'g_SummonSpot''
text$di	ENDS
; Function compile flags: /Ogtp
;	COMDAT ??_GSummonSpot@@UAEPAXI@Z
_TEXT	SEGMENT
___flags$ = 8						; size = 4
??_GSummonSpot@@UAEPAXI@Z PROC				; SummonSpot::`scalar deleting destructor', COMDAT
; _this$ = ecx
  00000	55		 push	 ebp
  00001	8b ec		 mov	 ebp, esp
  00003	56		 push	 esi
  00004	8b f1		 mov	 esi, ecx
  00006	e8 00 00 00 00	 call	 ??1SummonSpot@@UAE@XZ	; SummonSpot::~SummonSpot
  0000b	f6 45 08 01	 test	 BYTE PTR ___flags$[ebp], 1
  0000f	74 0b		 je	 SHORT $LN4@scalar
  00011	6a 08		 push	 8
  00013	56		 push	 esi
  00014	e8 00 00 00 00	 call	 ??3@YAXPAXI@Z		; operator delete
  00019	83 c4 08	 add	 esp, 8
$LN4@scalar:
  0001c	8b c6		 mov	 eax, esi
  0001e	5e		 pop	 esi
  0001f	5d		 pop	 ebp
  00020	c2 04 00	 ret	 4
??_GSummonSpot@@UAEPAXI@Z ENDP				; SummonSpot::`scalar deleting destructor'
_TEXT	ENDS
; Function compile flags: /Ogtp
; File c:\users\michel\desktop\source\gameserver\source\summonspot.cpp
;	COMDAT ?SendSpotInfo@SummonSpot@@QAEXPAUOBJECTSTRUCT@@@Z
_TEXT	SEGMENT
_lpUser$ = 8						; size = 4
?SendSpotInfo@SummonSpot@@QAEXPAUOBJECTSTRUCT@@@Z PROC	; SummonSpot::SendSpotInfo, COMDAT
; _this$ = ecx

; 151  : #if( __NOVUS__ == 0 )
; 152  : 	return;
; 153  : #else
; 154  : 	BYTE TempSpotID = 0;
; 155  : 	// ----
; 156  : 	for( int i = 0; i < OBJMAX; i++ )
; 157  : 	{
; 158  : 		if(		gObj[i].m_SummonTick
; 159  : 			&&	gObj[i].m_SummonID
; 160  : 			&&	gObj[i].m_SummonIndex == lpUser->m_Index )
; 161  : 		{
; 162  : 			if( TempSpotID == gObj[i].m_SummonID )
; 163  : 			{
; 164  : 				continue;
; 165  : 			}
; 166  : 			// ----
; 167  : 			DWORD WorkTime = (GetTickCount() - gObj[i].m_SummonTick) / 60000;
; 168  : 			// ----
; 169  : 			PMSG_MINIMAP_SEND_NPC pMsg;
; 170  : 			PHeadSubSetB((LPBYTE)&pMsg, 0xE7, 0x03, sizeof(PMSG_MINIMAP_SEND_NPC));
; 171  : 			pMsg.btNum		= 150 + gObj[i].m_SummonID;
; 172  : 			pMsg.btGroup	= 1;
; 173  : 			pMsg.btAction	= 0;
; 174  : 			pMsg.btType		= 3;
; 175  : 			pMsg.btX		= gObj[i].StartX;
; 176  : 			pMsg.btY		= gObj[i].StartY;
; 177  : 			sprintf(pMsg.szName, "Own Spot [%s] %d", gObj[i].Name, WorkTime);
; 178  : 			DataSend(lpUser->m_Index, (LPBYTE)&pMsg, pMsg.h.size);
; 179  : 			LogAddTD("[SummonSpot] [%s] [%s] (%s) Sended mapinfo", lpUser->AccountID, lpUser->Name, pMsg.szName);
; 180  : 		}
; 181  : 	}
; 182  : #endif
; 183  : }

  00000	c2 04 00	 ret	 4
?SendSpotInfo@SummonSpot@@QAEXPAUOBJECTSTRUCT@@@Z ENDP	; SummonSpot::SendSpotInfo
_TEXT	ENDS
; Function compile flags: /Ogtp
; File c:\users\michel\desktop\source\gameserver\source\summonspot.cpp
;	COMDAT ?CheckSpotState@SummonSpot@@QAE_NPAUOBJECTSTRUCT@@@Z
_TEXT	SEGMENT
_lpMonster$ = 8						; size = 4
?CheckSpotState@SummonSpot@@QAE_NPAUOBJECTSTRUCT@@@Z PROC ; SummonSpot::CheckSpotState, COMDAT
; _this$ = ecx

; 122  : #if( __NOVUS__ == 0 )
; 123  : 	return 0;

  00000	32 c0		 xor	 al, al

; 124  : #else
; 125  : 	if( lpMonster->m_SummonTick > 0 )
; 126  : 	{
; 127  : 		DWORD WorkTime = (GetTickCount() - lpMonster->m_SummonTick) / 60000;
; 128  : 		// ----
; 129  : 		if( WorkTime >= SUMMONSPOT_USE_TIME )
; 130  : 		{
; 131  : 			gObjViewportListProtocolDestroy(lpMonster);
; 132  : 			gObjViewportClose(lpMonster);
; 133  : 			gObjDel(lpMonster->m_Index);
; 134  : 			lpMonster->m_SummonIndex = -1;
; 135  : 			lpMonster->m_SummonTick = 0;
; 136  : 			lpMonster->m_SummonID = 0;
; 137  : 			lpMonster->Live = FALSE;
; 138  : 			lpMonster->DieRegen = TRUE;
; 139  : 			// ----
; 140  : 			LogAddTD("[SummonSpot] [%d] [%d] Monster has been deleted", WorkTime, lpMonster->m_Index);
; 141  : 			return true;
; 142  : 		}
; 143  : 	}
; 144  : 	// ----
; 145  : 	return false;
; 146  : #endif
; 147  : }

  00002	c2 04 00	 ret	 4
?CheckSpotState@SummonSpot@@QAE_NPAUOBJECTSTRUCT@@@Z ENDP ; SummonSpot::CheckSpotState
_TEXT	ENDS
; Function compile flags: /Ogtp
; File c:\users\michel\desktop\source\gameserver\source\summonspot.cpp
;	COMDAT ?DropScroll@SummonSpot@@QAE_NPAUOBJECTSTRUCT@@G@Z
_TEXT	SEGMENT
_lpUser$ = 8						; size = 4
_ItemType$ = 12						; size = 2
?DropScroll@SummonSpot@@QAE_NPAUOBJECTSTRUCT@@G@Z PROC	; SummonSpot::DropScroll, COMDAT
; _this$ = ecx

; 30   : #if( __NOVUS__ == 0 )
; 31   : 	return 0;

  00000	32 c0		 xor	 al, al

; 32   : #else
; 33   : 	BYTE MapAttr = MapC[lpUser->MapNumber].GetAttr(lpUser->X, lpUser->Y);
; 34   : 	// ----
; 35   : 	if( MapAttr & 1 != 0 )
; 36   : 	{
; 37   : 		LogAddTD("[SummonSpot] [%s] [%s] Drop fail, used in safe zone",
; 38   : 			lpUser->AccountID, lpUser->Name);
; 39   : 		return false;
; 40   : 	}
; 41   : 	// ----
; 42   : 	int MonsterType = -1;
; 43   : 	// ----
; 44   : 	if( ItemType == ITEMGET(14, 305) )
; 45   : 	{
; 46   : 		MonsterType = 20;	//Elite Yeti
; 47   : 	}
; 48   : 	else if( ItemType == ITEMGET(14, 306) )
; 49   : 	{
; 50   : 		MonsterType = 62;	//Mutant
; 51   : 	}
; 52   : 	else if( ItemType == ITEMGET(14, 307) )
; 53   : 	{
; 54   : 		MonsterType = 291;	//Fire Golem
; 55   : 	}
; 56   : 	// ----
; 57   : 	for( int i = 0; i < 7; i++ )
; 58   : 	{
; 59   : 		int MonsterIndex = gObjAddMonster(lpUser->MapNumber);
; 60   : 		// ----
; 61   : 		if( MonsterIndex < 0 )
; 62   : 		{
; 63   : 			LogAddTD("[SummonSpot] [%s] [%s] Drop fail, monster index error",
; 64   : 				lpUser->AccountID, lpUser->Name);
; 65   : 			return false;
; 66   : 		}
; 67   : 		// ----
; 68   : 		gObj[MonsterIndex].m_SummonTick		= GetTickCount();
; 69   : 		gObj[MonsterIndex].m_SummonIndex	= lpUser->m_Index;
; 70   : 		gObj[MonsterIndex].m_SummonID		= this->LastSpotID;
; 71   : 		// ----
; 72   : 		gObj[MonsterIndex].m_PosNum		= -1;
; 73   : 		gObj[MonsterIndex].X			= lpUser->X + rand() % 2;
; 74   : 		gObj[MonsterIndex].Y			= lpUser->Y + rand() % 2;
; 75   : 		gObj[MonsterIndex].MapNumber	= lpUser->MapNumber;
; 76   : 		gObj[MonsterIndex].TX			= gObj[MonsterIndex].X;
; 77   : 		gObj[MonsterIndex].TY			= gObj[MonsterIndex].Y;
; 78   : 		gObj[MonsterIndex].m_OldX		= gObj[MonsterIndex].X;
; 79   : 		gObj[MonsterIndex].m_OldY		= gObj[MonsterIndex].Y;
; 80   : 		gObj[MonsterIndex].StartX		= gObj[MonsterIndex].X;
; 81   : 		gObj[MonsterIndex].StartY		= gObj[MonsterIndex].Y;
; 82   : 		gObj[MonsterIndex].m_ActState.Emotion		= 1;
; 83   : 		gObj[MonsterIndex].m_ActState.EmotionCount	= 15;
; 84   : 		// ----
; 85   : 		PMSG_SERVERCMD ServerCmd;
; 86   : 		PHeadSubSetB((LPBYTE)&ServerCmd, 0xF3, 0x40, sizeof(ServerCmd));
; 87   : 		ServerCmd.CmdType = 0;
; 88   : 		ServerCmd.X = gObj[MonsterIndex].X;
; 89   : 		ServerCmd.Y = gObj[MonsterIndex].Y;
; 90   : 		MsgSendV2(lpUser, (LPBYTE)&ServerCmd, sizeof(ServerCmd));
; 91   : 		DataSend(lpUser->m_Index, (LPBYTE)&ServerCmd, sizeof(ServerCmd));
; 92   : 		// ----
; 93   : 		LPMONSTER_ATTRIBUTE lpMonAttr = gMAttr.GetAttr(MonsterType);
; 94   : 		// ----
; 95   : 		if( lpMonAttr == NULL )
; 96   : 		{
; 97   : 			gObjDel(MonsterIndex);
; 98   : 			LogAddTD("[SummonSpot] [%s] [%s] Drop fail, monster attr error",
; 99   : 				lpUser->AccountID, lpUser->Name);
; 100  : 			return false;
; 101  : 		}
; 102  : 		// ----
; 103  : 		gObjSetMonster(MonsterIndex, MonsterType);
; 104  : 		gObj[MonsterIndex].Dir = rand() % 8;
; 105  : 	}
; 106  : 	// ----
; 107  : 	this->LastSpotID++;
; 108  : 	// ----
; 109  : 	if( this->LastSpotID > 100 )
; 110  : 	{
; 111  : 		this->LastSpotID = 1;
; 112  : 	}
; 113  : 	// ----
; 114  : 	this->SendSpotInfo(lpUser);
; 115  : 	// ----
; 116  : 	return true;
; 117  : #endif
; 118  : }

  00002	c2 08 00	 ret	 8
?DropScroll@SummonSpot@@QAE_NPAUOBJECTSTRUCT@@G@Z ENDP	; SummonSpot::DropScroll
_TEXT	ENDS
; Function compile flags: /Ogtp
; File c:\users\michel\desktop\source\gameserver\source\summonspot.cpp
;	COMDAT ??1SummonSpot@@UAE@XZ
_TEXT	SEGMENT
??1SummonSpot@@UAE@XZ PROC				; SummonSpot::~SummonSpot, COMDAT
; _this$ = ecx

; 24   : {

  00000	c7 01 00 00 00
	00		 mov	 DWORD PTR [ecx], OFFSET ??_7SummonSpot@@6B@

; 25   : 
; 26   : }

  00006	c3		 ret	 0
??1SummonSpot@@UAE@XZ ENDP				; SummonSpot::~SummonSpot
_TEXT	ENDS
; Function compile flags: /Ogtp
; File c:\users\michel\desktop\source\gameserver\source\summonspot.cpp
;	COMDAT ??0SummonSpot@@QAE@XZ
_TEXT	SEGMENT
??0SummonSpot@@QAE@XZ PROC				; SummonSpot::SummonSpot, COMDAT
; _this$ = ecx

; 19   : {

  00000	c7 01 00 00 00
	00		 mov	 DWORD PTR [ecx], OFFSET ??_7SummonSpot@@6B@

; 20   : 	this->LastSpotID = 1;
; 21   : }

  00006	8b c1		 mov	 eax, ecx
  00008	c6 41 04 01	 mov	 BYTE PTR [ecx+4], 1
  0000c	c3		 ret	 0
??0SummonSpot@@QAE@XZ ENDP				; SummonSpot::SummonSpot
_TEXT	ENDS
; Function compile flags: /Ogtp
;	COMDAT ??_EOBJECTSTRUCT@@QAEPAXI@Z
_TEXT	SEGMENT
__$EHRec$ = -12						; size = 12
___flags$ = 8						; size = 4
??_EOBJECTSTRUCT@@QAEPAXI@Z PROC			; OBJECTSTRUCT::`vector deleting destructor', COMDAT
; _this$ = ecx
  00000	55		 push	 ebp
  00001	8b ec		 mov	 ebp, esp
  00003	6a ff		 push	 -1
  00005	68 00 00 00 00	 push	 __ehhandler$??_EOBJECTSTRUCT@@QAEPAXI@Z
  0000a	64 a1 00 00 00
	00		 mov	 eax, DWORD PTR fs:0
  00010	50		 push	 eax
  00011	53		 push	 ebx
  00012	56		 push	 esi
  00013	57		 push	 edi
  00014	a1 00 00 00 00	 mov	 eax, DWORD PTR ___security_cookie
  00019	33 c5		 xor	 eax, ebp
  0001b	50		 push	 eax
  0001c	8d 45 f4	 lea	 eax, DWORD PTR __$EHRec$[ebp]
  0001f	64 a3 00 00 00
	00		 mov	 DWORD PTR fs:0, eax
  00025	8b f1		 mov	 esi, ecx
  00027	8b 5d 08	 mov	 ebx, DWORD PTR ___flags$[ebp]
  0002a	f6 c3 02	 test	 bl, 2
  0002d	74 44		 je	 SHORT $LN2@vector
  0002f	68 00 00 00 00	 push	 OFFSET ??1OBJECTSTRUCT@@QAE@XZ
  00034	ff 76 fc	 push	 DWORD PTR [esi-4]
  00037	8d 7e fc	 lea	 edi, DWORD PTR [esi-4]
  0003a	68 40 27 00 00	 push	 10048			; 00002740H
  0003f	56		 push	 esi
  00040	e8 00 00 00 00	 call	 ??_M@YGXPAXIIP6EX0@Z@Z
  00045	f6 c3 01	 test	 bl, 1
  00048	74 13		 je	 SHORT $LN3@vector
  0004a	69 0f 40 27 00
	00		 imul	 ecx, DWORD PTR [edi], 10048
  00050	83 c1 04	 add	 ecx, 4
  00053	51		 push	 ecx
  00054	57		 push	 edi
  00055	e8 00 00 00 00	 call	 ??_V@YAXPAXI@Z		; operator delete[]
  0005a	83 c4 08	 add	 esp, 8
$LN3@vector:
  0005d	8b c7		 mov	 eax, edi
  0005f	8b 4d f4	 mov	 ecx, DWORD PTR __$EHRec$[ebp]
  00062	64 89 0d 00 00
	00 00		 mov	 DWORD PTR fs:0, ecx
  00069	59		 pop	 ecx
  0006a	5f		 pop	 edi
  0006b	5e		 pop	 esi
  0006c	5b		 pop	 ebx
  0006d	8b e5		 mov	 esp, ebp
  0006f	5d		 pop	 ebp
  00070	c2 04 00	 ret	 4
$LN2@vector:
  00073	8d 8e ec 20 00
	00		 lea	 ecx, DWORD PTR [esi+8428]
  00079	e8 00 00 00 00	 call	 ??1TMonsterAIAgro@@UAE@XZ ; TMonsterAIAgro::~TMonsterAIAgro
  0007e	8d 8e 0c 16 00
	00		 lea	 ecx, DWORD PTR [esi+5644]
  00084	e8 00 00 00 00	 call	 ??1CSkillDelay@@UAE@XZ	; CSkillDelay::~CSkillDelay
  00089	f6 c3 01	 test	 bl, 1
  0008c	74 0e		 je	 SHORT $LN4@vector
  0008e	68 40 27 00 00	 push	 10048			; 00002740H
  00093	56		 push	 esi
  00094	e8 00 00 00 00	 call	 ??3@YAXPAXI@Z		; operator delete
  00099	83 c4 08	 add	 esp, 8
$LN4@vector:
  0009c	8b c6		 mov	 eax, esi
  0009e	8b 4d f4	 mov	 ecx, DWORD PTR __$EHRec$[ebp]
  000a1	64 89 0d 00 00
	00 00		 mov	 DWORD PTR fs:0, ecx
  000a8	59		 pop	 ecx
  000a9	5f		 pop	 edi
  000aa	5e		 pop	 esi
  000ab	5b		 pop	 ebx
  000ac	8b e5		 mov	 esp, ebp
  000ae	5d		 pop	 ebp
  000af	c2 04 00	 ret	 4
_TEXT	ENDS
;	COMDAT text$x
text$x	SEGMENT
__ehhandler$??_EOBJECTSTRUCT@@QAEPAXI@Z:
  00000	8b 54 24 08	 mov	 edx, DWORD PTR [esp+8]
  00004	8d 42 0c	 lea	 eax, DWORD PTR [edx+12]
  00007	8b 4a f0	 mov	 ecx, DWORD PTR [edx-16]
  0000a	33 c8		 xor	 ecx, eax
  0000c	e8 00 00 00 00	 call	 @__security_check_cookie@4
  00011	b8 00 00 00 00	 mov	 eax, OFFSET __ehfuncinfo$??_EOBJECTSTRUCT@@QAEPAXI@Z
  00016	e9 00 00 00 00	 jmp	 ___CxxFrameHandler3
text$x	ENDS
??_EOBJECTSTRUCT@@QAEPAXI@Z ENDP			; OBJECTSTRUCT::`vector deleting destructor'
; Function compile flags: /Ogtp
;	COMDAT ??1OBJECTSTRUCT@@QAE@XZ
_TEXT	SEGMENT
??1OBJECTSTRUCT@@QAE@XZ PROC				; OBJECTSTRUCT::~OBJECTSTRUCT, COMDAT
; _this$ = ecx
  00000	56		 push	 esi
  00001	8b f1		 mov	 esi, ecx
  00003	8d 8e ec 20 00
	00		 lea	 ecx, DWORD PTR [esi+8428]
  00009	e8 00 00 00 00	 call	 ??1TMonsterAIAgro@@UAE@XZ ; TMonsterAIAgro::~TMonsterAIAgro
  0000e	8d 8e 0c 16 00
	00		 lea	 ecx, DWORD PTR [esi+5644]
  00014	5e		 pop	 esi
  00015	e9 00 00 00 00	 jmp	 ??1CSkillDelay@@UAE@XZ	; CSkillDelay::~CSkillDelay
??1OBJECTSTRUCT@@QAE@XZ ENDP				; OBJECTSTRUCT::~OBJECTSTRUCT
_TEXT	ENDS
; Function compile flags: /Ogtp
; File c:\users\michel\desktop\source\gameserver\source\summonspot.cpp
;	COMDAT ?__empty_global_delete@@YAXPAXI@Z
_TEXT	SEGMENT
___formal$ = 8						; size = 4
___formal$ = 12						; size = 4
?__empty_global_delete@@YAXPAXI@Z PROC			; __empty_global_delete, COMDAT

; 184  : }

  00000	c3		 ret	 0
?__empty_global_delete@@YAXPAXI@Z ENDP			; __empty_global_delete
_TEXT	ENDS
; Function compile flags: /Ogtp
; File c:\users\michel\desktop\source\gameserver\source\summonspot.cpp
;	COMDAT ?__empty_global_delete@@YAXPAX@Z
_TEXT	SEGMENT
___formal$ = 8						; size = 4
?__empty_global_delete@@YAXPAX@Z PROC			; __empty_global_delete, COMDAT

; 184  : }

  00000	c3		 ret	 0
?__empty_global_delete@@YAXPAX@Z ENDP			; __empty_global_delete
_TEXT	ENDS
; Function compile flags: /Ogtp
;	COMDAT ??_H@YGXPAXIIP6EPAX0@Z@Z
_TEXT	SEGMENT
___t$ = 8						; size = 4
___s$ = 12						; size = 4
___n$ = 16						; size = 4
___f$ = 20						; size = 4
??_H@YGXPAXIIP6EPAX0@Z@Z PROC				; `vector constructor iterator', COMDAT
  00000	55		 push	 ebp
  00001	8b ec		 mov	 ebp, esp
  00003	56		 push	 esi
  00004	8b 75 10	 mov	 esi, DWORD PTR ___n$[ebp]
  00007	85 f6		 test	 esi, esi
  00009	74 16		 je	 SHORT $LN6@vector
  0000b	53		 push	 ebx
  0000c	8b 5d 14	 mov	 ebx, DWORD PTR ___f$[ebp]
  0000f	57		 push	 edi
  00010	8b 7d 08	 mov	 edi, DWORD PTR ___t$[ebp]
$LL2@vector:
  00013	8b cf		 mov	 ecx, edi
  00015	ff d3		 call	 ebx
  00017	03 7d 0c	 add	 edi, DWORD PTR ___s$[ebp]
  0001a	83 ee 01	 sub	 esi, 1
  0001d	75 f4		 jne	 SHORT $LL2@vector
  0001f	5f		 pop	 edi
  00020	5b		 pop	 ebx
$LN6@vector:
  00021	5e		 pop	 esi
  00022	5d		 pop	 ebp
  00023	c2 10 00	 ret	 16			; 00000010H
??_H@YGXPAXIIP6EPAX0@Z@Z ENDP				; `vector constructor iterator'
_TEXT	ENDS
END
