; Listing generated by Microsoft (R) Optimizing Compiler Version 19.00.23506.0 

	TITLE	C:\Users\Michel\Desktop\Source\GameServer\Source\TMonsterSkillElement.cpp
	.686P
	.XMM
	include listing.inc
	.model	flat

INCLUDELIB LIBCMT
INCLUDELIB OLDNAMES

PUBLIC	?s_bDataLoad@TMonsterSkillElement@@2HA		; TMonsterSkillElement::s_bDataLoad
_BSS	SEGMENT
?s_bDataLoad@TMonsterSkillElement@@2HA DD 01H DUP (?)	; TMonsterSkillElement::s_bDataLoad
_BSS	ENDS
PUBLIC	?__empty_global_delete@@YAXPAX@Z		; __empty_global_delete
PUBLIC	?__empty_global_delete@@YAXPAXI@Z		; __empty_global_delete
PUBLIC	?ForceSkillElement@TSkillElement@@UAEXHH@Z	; TSkillElement::ForceSkillElement
PUBLIC	?ForceSkillElement@TMonsterSkillElement@@UAEXHH@Z ; TMonsterSkillElement::ForceSkillElement
PUBLIC	??0TMonsterSkillElement@@QAE@XZ			; TMonsterSkillElement::TMonsterSkillElement
PUBLIC	??1TMonsterSkillElement@@UAE@XZ			; TMonsterSkillElement::~TMonsterSkillElement
PUBLIC	?ApplyElementStun@TMonsterSkillElement@@QAEHHH@Z ; TMonsterSkillElement::ApplyElementStun
PUBLIC	?ApplyElementMove@TMonsterSkillElement@@QAEHHH@Z ; TMonsterSkillElement::ApplyElementMove
PUBLIC	?ApplyElementHP@TMonsterSkillElement@@QAEHHH@Z	; TMonsterSkillElement::ApplyElementHP
PUBLIC	?ApplyElementMP@TMonsterSkillElement@@QAEHHH@Z	; TMonsterSkillElement::ApplyElementMP
PUBLIC	?ApplyElementAG@TMonsterSkillElement@@QAEHHH@Z	; TMonsterSkillElement::ApplyElementAG
PUBLIC	?ApplyElementDefense@TMonsterSkillElement@@QAEHHH@Z ; TMonsterSkillElement::ApplyElementDefense
PUBLIC	?ApplyElementAttack@TMonsterSkillElement@@QAEHHH@Z ; TMonsterSkillElement::ApplyElementAttack
PUBLIC	?ApplyElementDurability@TMonsterSkillElement@@QAEHHH@Z ; TMonsterSkillElement::ApplyElementDurability
PUBLIC	?ApplyElementSummon@TMonsterSkillElement@@QAEHHH@Z ; TMonsterSkillElement::ApplyElementSummon
PUBLIC	?ApplyElementPush@TMonsterSkillElement@@QAEHHH@Z ; TMonsterSkillElement::ApplyElementPush
PUBLIC	?ApplyElementStatEnergy@TMonsterSkillElement@@QAEHHH@Z ; TMonsterSkillElement::ApplyElementStatEnergy
PUBLIC	?ApplyElementStatStrength@TMonsterSkillElement@@QAEHHH@Z ; TMonsterSkillElement::ApplyElementStatStrength
PUBLIC	?ApplyElementStatDexiterity@TMonsterSkillElement@@QAEHHH@Z ; TMonsterSkillElement::ApplyElementStatDexiterity
PUBLIC	?ApplyElementStatVitality@TMonsterSkillElement@@QAEHHH@Z ; TMonsterSkillElement::ApplyElementStatVitality
PUBLIC	?ApplyElementRemoveSkill@TMonsterSkillElement@@QAEHHH@Z ; TMonsterSkillElement::ApplyElementRemoveSkill
PUBLIC	?ApplyElementResistSkill@TMonsterSkillElement@@QAEHHH@Z ; TMonsterSkillElement::ApplyElementResistSkill
PUBLIC	?ApplyElementImmuneSkill@TMonsterSkillElement@@QAEHHH@Z ; TMonsterSkillElement::ApplyElementImmuneSkill
PUBLIC	?ApplyElementTeleportSkill@TMonsterSkillElement@@QAEHHH@Z ; TMonsterSkillElement::ApplyElementTeleportSkill
PUBLIC	?ApplyElementDoubleHP@TMonsterSkillElement@@QAEHHH@Z ; TMonsterSkillElement::ApplyElementDoubleHP
PUBLIC	?ApplyElementPoison@TMonsterSkillElement@@QAEHHH@Z ; TMonsterSkillElement::ApplyElementPoison
PUBLIC	?ApplyElementNormalAttack@TMonsterSkillElement@@QAEHHH@Z ; TMonsterSkillElement::ApplyElementNormalAttack
PUBLIC	?ApplyElementSpecialImmune@TMonsterSkillElement@@QAEHHH@Z ; TMonsterSkillElement::ApplyElementSpecialImmune
PUBLIC	?Reset@TMonsterSkillElement@@QAEXXZ		; TMonsterSkillElement::Reset
PUBLIC	?LoadData@TMonsterSkillElement@@SAHPAD@Z	; TMonsterSkillElement::LoadData
PUBLIC	?DelAllSkillElement@TMonsterSkillElement@@SAHXZ	; TMonsterSkillElement::DelAllSkillElement
PUBLIC	?FindSkillElement@TMonsterSkillElement@@SAPAV1@H@Z ; TMonsterSkillElement::FindSkillElement
PUBLIC	??_GTMonsterSkillElement@@UAEPAXI@Z		; TMonsterSkillElement::`scalar deleting destructor'
PUBLIC	??1OBJECTSTRUCT@@QAE@XZ				; OBJECTSTRUCT::~OBJECTSTRUCT
PUBLIC	??_EOBJECTSTRUCT@@QAEPAXI@Z			; OBJECTSTRUCT::`vector deleting destructor'
PUBLIC	??_C@_00CNPNBAHC@?$AA@				; `string'
PUBLIC	??_7TSkillElement@@6B@				; TSkillElement::`vftable'
PUBLIC	?s_MonsterSkillElementArray@TMonsterSkillElement@@2PAV1@A ; TMonsterSkillElement::s_MonsterSkillElementArray
PUBLIC	??_7TMonsterSkillElement@@6B@			; TMonsterSkillElement::`vftable'
PUBLIC	??_C@_0DG@FBIECEIN@?$FLMonster?5Element?$FN?5?9?5File?5load?5er@ ; `string'
PUBLIC	??_C@_01KDCPPGHE@r?$AA@				; `string'
PUBLIC	??_C@_0CD@ELHGFGGC@?$FLMonster?5Element?$FN?5?9?5Can?8t?5Open?5?$CF@ ; `string'
PUBLIC	??_C@_03JBJLGPFL@end?$AA@			; `string'
PUBLIC	??_C@_0DI@LDGJOAOE@?$FLMonster?5Element?$FN?5?9?5ElementNumbe@ ; `string'
PUBLIC	??_C@_0FM@EEKDKBLP@?$KB?YNum?3?$CFd?0Name?3?$CFs?0Type?3?$CFd?0Rate?3?$CFd@ ; `string'
PUBLIC	??_C@_0CG@IGOGFOBE@?$FLMonster?5Element?$FN?5?9?5?$CFs?5file?5is?5L@ ; `string'
PUBLIC	??_R0K@8					; unsigned long `RTTI Type Descriptor'
PUBLIC	??_C@_0DI@MPJFELNA@?$FLMonster?5Element?$FN?5?9?5Loading?5Exce@ ; `string'
PUBLIC	??_C@_0EB@EHFPHABL@?$FLMonster?5Element?$FN?5FindSkillEleme@ ; `string'
PUBLIC	??_C@_0DP@PHICBOGE@?$FLTMonsterSkillElement?$FN?$FLApplyElem@ ; `string'
PUBLIC	??_C@_0CI@KDPPBOBF@?$FL?$CFs?$FN?5Try?5Teleport?5Not?5Move?5Area?5@ ; `string'
PUBLIC	??_C@_0BN@GBOPBGFB@?$FL?$CFs?$FN?5Warp?5?$FL?$CFd?0?$CFd?$FN?5?9?$DO?5?$FL?$CFd?0?$CFd?$FN?$AA@ ; `string'
PUBLIC	??_R4TSkillElement@@6B@				; TSkillElement::`RTTI Complete Object Locator'
PUBLIC	??_R0?AVTSkillElement@@@8			; TSkillElement `RTTI Type Descriptor'
PUBLIC	??_R3TSkillElement@@8				; TSkillElement::`RTTI Class Hierarchy Descriptor'
PUBLIC	??_R2TSkillElement@@8				; TSkillElement::`RTTI Base Class Array'
PUBLIC	??_R1A@?0A@EA@TSkillElement@@8			; TSkillElement::`RTTI Base Class Descriptor at (0,-1,0,64)'
PUBLIC	??_R4TMonsterSkillElement@@6B@			; TMonsterSkillElement::`RTTI Complete Object Locator'
PUBLIC	??_R0?AVTMonsterSkillElement@@@8		; TMonsterSkillElement `RTTI Type Descriptor'
PUBLIC	??_R3TMonsterSkillElement@@8			; TMonsterSkillElement::`RTTI Class Hierarchy Descriptor'
PUBLIC	??_R2TMonsterSkillElement@@8			; TMonsterSkillElement::`RTTI Base Class Array'
PUBLIC	??_R1A@?0A@EA@TMonsterSkillElement@@8		; TMonsterSkillElement::`RTTI Base Class Descriptor at (0,-1,0,64)'
PUBLIC	__real@42c80000
EXTRN	??_L@YGXPAXIIP6EX0@Z1@Z:PROC			; `eh vector constructor iterator'
EXTRN	??_M@YGXPAXIIP6EX0@Z@Z:PROC			; `eh vector destructor iterator'
EXTRN	??3@YAXPAXI@Z:PROC				; operator delete
EXTRN	??_V@YAXPAXI@Z:PROC				; operator delete[]
EXTRN	_atexit:PROC
EXTRN	_isalpha:PROC
EXTRN	_isdigit:PROC
EXTRN	_isspace:PROC
EXTRN	_isalnum:PROC
EXTRN	__imp__GetTickCount@0:PROC
EXTRN	__imp__wsprintfA:PROC
EXTRN	_fclose:PROC
EXTRN	_fgetc:PROC
EXTRN	_fopen:PROC
EXTRN	_getc:PROC
EXTRN	_ungetc:PROC
EXTRN	_rand:PROC
EXTRN	_atof:PROC
EXTRN	??_ETMonsterSkillElement@@UAEPAXI@Z:PROC	; TMonsterSkillElement::`vector deleting destructor'
EXTRN	?IsItem@CItem@@QAEHXZ:PROC			; CItem::IsItem
EXTRN	??1CSkillDelay@@UAE@XZ:PROC			; CSkillDelay::~CSkillDelay
EXTRN	?MsgBox@@YAXPADZZ:PROC				; MsgBox
EXTRN	?DataSend@@YAHHPAEK@Z:PROC			; DataSend
EXTRN	??1TMonsterAIAgro@@UAE@XZ:PROC			; TMonsterAIAgro::~TMonsterAIAgro
EXTRN	?ResetAll@TMonsterAIAgro@@QAEXXZ:PROC		; TMonsterAIAgro::ResetAll
EXTRN	?GetAttr@MapClass@@QAEEHH@Z:PROC		; MapClass::GetAttr
EXTRN	?MsgSendV2@@YAXPAUOBJECTSTRUCT@@PAEH@Z:PROC	; MsgSendV2
EXTRN	?GCReFillSend@@YAXHGEEG@Z:PROC			; GCReFillSend
EXTRN	?GCManaSend@@YAXHFEEG@Z:PROC			; GCManaSend
EXTRN	?GCItemDurSend@@YAXHEEE@Z:PROC			; GCItemDurSend
EXTRN	?gObjAddMsgSendDelay@@YAXPAUOBJECTSTRUCT@@HHHH@Z:PROC ; gObjAddMsgSendDelay
EXTRN	?gObjBackSpring2@@YAHPAUOBJECTSTRUCT@@0H@Z:PROC	; gObjBackSpring2
EXTRN	?retResistance@@YAHPAUOBJECTSTRUCT@@H@Z:PROC	; retResistance
EXTRN	?gObjTimeCheckSelfDefense@@YAXPAUOBJECTSTRUCT@@@Z:PROC ; gObjTimeCheckSelfDefense
EXTRN	?gObjAttack@@YAXPAUOBJECTSTRUCT@@0PAVCMagicInf@@HEHHEE@Z:PROC ; gObjAttack
EXTRN	?gObjLifeCheck@@YAXPAUOBJECTSTRUCT@@0HHHHGH@Z:PROC ; gObjLifeCheck
EXTRN	?CreateFrustrum@@YAXHHH@Z:PROC			; CreateFrustrum
EXTRN	?gObjViewportClose@@YAXPAUOBJECTSTRUCT@@@Z:PROC	; gObjViewportClose
EXTRN	?gObjViewportListCreate@@YAXF@Z:PROC		; gObjViewportListCreate
EXTRN	?gObjViewportListProtocolDestroy@@YAXPAUOBJECTSTRUCT@@@Z:PROC ; gObjViewportListProtocolDestroy
EXTRN	?gObjTeleportMagicUse@@YAXHEE@Z:PROC		; gObjTeleportMagicUse
EXTRN	?gObjCheckTeleportArea@@YAHHEE@Z:PROC		; gObjCheckTeleportArea
EXTRN	?gObjSetPosition@@YAXHHH@Z:PROC			; gObjSetPosition
EXTRN	?RemoveSpecificSkillState@CObjUseSkill@@QAEHPAUOBJECTSTRUCT@@H@Z:PROC ; CObjUseSkill::RemoveSpecificSkillState
EXTRN	?gObjMonsterHitDamageInit@@YAXPAUOBJECTSTRUCT@@@Z:PROC ; gObjMonsterHitDamageInit
EXTRN	?gObjAddBuffEffect@@YA_NPAUOBJECTSTRUCT@@HEHEHH@Z:PROC ; gObjAddBuffEffect
EXTRN	?gObjRemoveBuffEffect@@YA_NPAUOBJECTSTRUCT@@H@Z:PROC ; gObjRemoveBuffEffect
EXTRN	?gObjClearBuffEffect@@YA_NPAUOBJECTSTRUCT@@W4eBuffClearType@@@Z:PROC ; gObjClearBuffEffect
EXTRN	?gObjCheckUsedBuffEffect@@YA_NPAUOBJECTSTRUCT@@H@Z:PROC ; gObjCheckUsedBuffEffect
EXTRN	?PHeadSetBE@@YAXPAEEH@Z:PROC			; PHeadSetBE
EXTRN	@__security_check_cookie@4:PROC
EXTRN	___CxxFrameHandler3:PROC
EXTRN	_memset:PROC
EXTRN	??_7type_info@@6B@:QWORD			; type_info::`vftable'
EXTRN	?LogAddC@@3P6AXEPADZZA:DWORD			; LogAddC
EXTRN	?LogAddTD@@3P6AXPADZZA:DWORD			; LogAddTD
EXTRN	?gObj@@3PAUOBJECTSTRUCT@@A:DWORD		; gObj
EXTRN	?gObjUseSkill@@3VCObjUseSkill@@A:DWORD		; gObjUseSkill
EXTRN	?MapC@@3PAVMapClass@@A:BYTE			; MapC
EXTRN	___security_cookie:DWORD
EXTRN	__fltused:DWORD
_BSS	SEGMENT
?s_MonsterSkillElementArray@TMonsterSkillElement@@2PAV1@A DB 01770H DUP (?) ; TMonsterSkillElement::s_MonsterSkillElementArray
?SMDFile@@3PAU_iobuf@@A DD 01H DUP (?)			; SMDFile
?TokenNumber@@3MA DD 01H DUP (?)			; TokenNumber
?TokenString@@3PADA DB 064H DUP (?)			; TokenString
?CurrentToken@@3W4SMDToken@@A DD 01H DUP (?)		; CurrentToken
_BSS	ENDS
CRT$XCU	SEGMENT
??s_MonsterSkillElementArray$initializer$@TMonsterSkillElement@@2P6AXXZA@@3P6AXXZA DD FLAT:??__E?s_MonsterSkillElementArray@TMonsterSkillElement@@2PAV1@A@@YAXXZ ; ??s_MonsterSkillElementArray$initializer$@TMonsterSkillElement@@2P6AXXZA@@3P6AXXZA
CRT$XCU	ENDS
;	COMDAT __real@42c80000
CONST	SEGMENT
__real@42c80000 DD 042c80000r			; 100
CONST	ENDS
;	COMDAT ??_R1A@?0A@EA@TMonsterSkillElement@@8
rdata$r	SEGMENT
??_R1A@?0A@EA@TMonsterSkillElement@@8 DD FLAT:??_R0?AVTMonsterSkillElement@@@8 ; TMonsterSkillElement::`RTTI Base Class Descriptor at (0,-1,0,64)'
	DD	01H
	DD	00H
	DD	0ffffffffH
	DD	00H
	DD	040H
	DD	FLAT:??_R3TMonsterSkillElement@@8
rdata$r	ENDS
;	COMDAT ??_R2TMonsterSkillElement@@8
rdata$r	SEGMENT
??_R2TMonsterSkillElement@@8 DD FLAT:??_R1A@?0A@EA@TMonsterSkillElement@@8 ; TMonsterSkillElement::`RTTI Base Class Array'
	DD	FLAT:??_R1A@?0A@EA@TSkillElement@@8
rdata$r	ENDS
;	COMDAT ??_R3TMonsterSkillElement@@8
rdata$r	SEGMENT
??_R3TMonsterSkillElement@@8 DD 00H			; TMonsterSkillElement::`RTTI Class Hierarchy Descriptor'
	DD	00H
	DD	02H
	DD	FLAT:??_R2TMonsterSkillElement@@8
rdata$r	ENDS
;	COMDAT ??_R0?AVTMonsterSkillElement@@@8
data$r	SEGMENT
??_R0?AVTMonsterSkillElement@@@8 DD FLAT:??_7type_info@@6B@ ; TMonsterSkillElement `RTTI Type Descriptor'
	DD	00H
	DB	'.?AVTMonsterSkillElement@@', 00H
data$r	ENDS
;	COMDAT ??_R4TMonsterSkillElement@@6B@
rdata$r	SEGMENT
??_R4TMonsterSkillElement@@6B@ DD 00H			; TMonsterSkillElement::`RTTI Complete Object Locator'
	DD	00H
	DD	00H
	DD	FLAT:??_R0?AVTMonsterSkillElement@@@8
	DD	FLAT:??_R3TMonsterSkillElement@@8
rdata$r	ENDS
;	COMDAT ??_R1A@?0A@EA@TSkillElement@@8
rdata$r	SEGMENT
??_R1A@?0A@EA@TSkillElement@@8 DD FLAT:??_R0?AVTSkillElement@@@8 ; TSkillElement::`RTTI Base Class Descriptor at (0,-1,0,64)'
	DD	00H
	DD	00H
	DD	0ffffffffH
	DD	00H
	DD	040H
	DD	FLAT:??_R3TSkillElement@@8
rdata$r	ENDS
;	COMDAT ??_R2TSkillElement@@8
rdata$r	SEGMENT
??_R2TSkillElement@@8 DD FLAT:??_R1A@?0A@EA@TSkillElement@@8 ; TSkillElement::`RTTI Base Class Array'
rdata$r	ENDS
;	COMDAT ??_R3TSkillElement@@8
rdata$r	SEGMENT
??_R3TSkillElement@@8 DD 00H				; TSkillElement::`RTTI Class Hierarchy Descriptor'
	DD	00H
	DD	01H
	DD	FLAT:??_R2TSkillElement@@8
rdata$r	ENDS
;	COMDAT ??_R0?AVTSkillElement@@@8
data$r	SEGMENT
??_R0?AVTSkillElement@@@8 DD FLAT:??_7type_info@@6B@	; TSkillElement `RTTI Type Descriptor'
	DD	00H
	DB	'.?AVTSkillElement@@', 00H
data$r	ENDS
;	COMDAT ??_R4TSkillElement@@6B@
rdata$r	SEGMENT
??_R4TSkillElement@@6B@ DD 00H				; TSkillElement::`RTTI Complete Object Locator'
	DD	00H
	DD	00H
	DD	FLAT:??_R0?AVTSkillElement@@@8
	DD	FLAT:??_R3TSkillElement@@8
rdata$r	ENDS
;	COMDAT ??_C@_0BN@GBOPBGFB@?$FL?$CFs?$FN?5Warp?5?$FL?$CFd?0?$CFd?$FN?5?9?$DO?5?$FL?$CFd?0?$CFd?$FN?$AA@
CONST	SEGMENT
??_C@_0BN@GBOPBGFB@?$FL?$CFs?$FN?5Warp?5?$FL?$CFd?0?$CFd?$FN?5?9?$DO?5?$FL?$CFd?0?$CFd?$FN?$AA@ DB '['
	DB	'%s] Warp [%d,%d] -> [%d,%d]', 00H		; `string'
CONST	ENDS
;	COMDAT ??_C@_0CI@KDPPBOBF@?$FL?$CFs?$FN?5Try?5Teleport?5Not?5Move?5Area?5@
CONST	SEGMENT
??_C@_0CI@KDPPBOBF@?$FL?$CFs?$FN?5Try?5Teleport?5Not?5Move?5Area?5@ DB '['
	DB	'%s] Try Teleport Not Move Area [%d,%d]', 00H ; `string'
CONST	ENDS
;	COMDAT ??_C@_0DP@PHICBOGE@?$FLTMonsterSkillElement?$FN?$FLApplyElem@
CONST	SEGMENT
??_C@_0DP@PHICBOGE@?$FLTMonsterSkillElement?$FN?$FLApplyElem@ DB '[TMonst'
	DB	'erSkillElement][ApplyElementSummon] Selupan use summon.', 00H ; `string'
CONST	ENDS
;	COMDAT ??_C@_0EB@EHFPHABL@?$FLMonster?5Element?$FN?5FindSkillEleme@
CONST	SEGMENT
??_C@_0EB@EHFPHABL@?$FLMonster?5Element?$FN?5FindSkillEleme@ DB '[Monster'
	DB	' Element] FindSkillElement() Error - (ElementNumber=%d) ', 00H ; `string'
CONST	ENDS
;	COMDAT ??_C@_0DI@MPJFELNA@?$FLMonster?5Element?$FN?5?9?5Loading?5Exce@
CONST	SEGMENT
??_C@_0DI@MPJFELNA@?$FLMonster?5Element?$FN?5?9?5Loading?5Exce@ DB '[Mons'
	DB	'ter Element] - Loading Exception Error (%s) File. ', 00H ; `string'
CONST	ENDS
;	COMDAT ??_R0K@8
data$r	SEGMENT
??_R0K@8 DD	FLAT:??_7type_info@@6B@			; unsigned long `RTTI Type Descriptor'
	DD	00H
	DB	'.K', 00H
data$r	ENDS
;	COMDAT ??_C@_0CG@IGOGFOBE@?$FLMonster?5Element?$FN?5?9?5?$CFs?5file?5is?5L@
CONST	SEGMENT
??_C@_0CG@IGOGFOBE@?$FLMonster?5Element?$FN?5?9?5?$CFs?5file?5is?5L@ DB '['
	DB	'Monster Element] - %s file is Loaded', 00H	; `string'
CONST	ENDS
;	COMDAT ??_C@_0FM@EEKDKBLP@?$KB?YNum?3?$CFd?0Name?3?$CFs?0Type?3?$CFd?0Rate?3?$CFd@
CONST	SEGMENT
??_C@_0FM@EEKDKBLP@?$KB?YNum?3?$CFd?0Name?3?$CFs?0Type?3?$CFd?0Rate?3?$CFd@ DB 0a1H
	DB	0d9H, 'Num:%d,Name:%s,Type:%d,Rate:%d,Time:%d,I&DType:%d,I&DVa'
	DB	'lue:%d,Null:%d,Class:%d, Level:%d', 0aH, 00H ; `string'
CONST	ENDS
;	COMDAT ??_C@_0DI@LDGJOAOE@?$FLMonster?5Element?$FN?5?9?5ElementNumbe@
CONST	SEGMENT
??_C@_0DI@LDGJOAOE@?$FLMonster?5Element?$FN?5?9?5ElementNumbe@ DB '[Monst'
	DB	'er Element] - ElementNumber(%d) Error (%s) File. ', 00H ; `string'
CONST	ENDS
;	COMDAT ??_C@_03JBJLGPFL@end?$AA@
CONST	SEGMENT
??_C@_03JBJLGPFL@end?$AA@ DB 'end', 00H			; `string'
CONST	ENDS
;	COMDAT ??_C@_0CD@ELHGFGGC@?$FLMonster?5Element?$FN?5?9?5Can?8t?5Open?5?$CF@
CONST	SEGMENT
??_C@_0CD@ELHGFGGC@?$FLMonster?5Element?$FN?5?9?5Can?8t?5Open?5?$CF@ DB '['
	DB	'Monster Element] - Can''t Open %s ', 00H	; `string'
CONST	ENDS
;	COMDAT ??_C@_01KDCPPGHE@r?$AA@
CONST	SEGMENT
??_C@_01KDCPPGHE@r?$AA@ DB 'r', 00H			; `string'
CONST	ENDS
;	COMDAT ??_C@_0DG@FBIECEIN@?$FLMonster?5Element?$FN?5?9?5File?5load?5er@
CONST	SEGMENT
??_C@_0DG@FBIECEIN@?$FLMonster?5Element?$FN?5?9?5File?5load?5er@ DB '[Mon'
	DB	'ster Element] - File load error : File Name Error', 00H ; `string'
CONST	ENDS
;	COMDAT ??_7TMonsterSkillElement@@6B@
CONST	SEGMENT
??_7TMonsterSkillElement@@6B@ DD FLAT:??_R4TMonsterSkillElement@@6B@ ; TMonsterSkillElement::`vftable'
	DD	FLAT:?ForceSkillElement@TMonsterSkillElement@@UAEXHH@Z
	DD	FLAT:??_ETMonsterSkillElement@@UAEPAXI@Z
CONST	ENDS
;	COMDAT ??_7TSkillElement@@6B@
CONST	SEGMENT
??_7TSkillElement@@6B@ DD FLAT:??_R4TSkillElement@@6B@	; TSkillElement::`vftable'
	DD	FLAT:?ForceSkillElement@TSkillElement@@UAEXHH@Z
CONST	ENDS
;	COMDAT ??_C@_00CNPNBAHC@?$AA@
CONST	SEGMENT
??_C@_00CNPNBAHC@?$AA@ DB 00H				; `string'
CONST	ENDS
;	COMDAT xdata$x
xdata$x	SEGMENT
__ehfuncinfo$??_EOBJECTSTRUCT@@QAEPAXI@Z DD 019930522H
	DD	00H
	DD	00H
	DD	2 DUP(00H)
	DD	2 DUP(00H)
	DD	00H
	DD	05H
xdata$x	ENDS
;	COMDAT xdata$x
xdata$x	SEGMENT
__catchsym$?LoadData@TMonsterSkillElement@@SAHPAD@Z$2 DD 00H
	DD	FLAT:??_R0K@8
	DD	00H
	DD	FLAT:__catch$?LoadData@TMonsterSkillElement@@SAHPAD@Z$0
__unwindtable$?LoadData@TMonsterSkillElement@@SAHPAD@Z DD 0ffffffffH
	DD	00H
	DD	0ffffffffH
	DD	00H
__tryblocktable$?LoadData@TMonsterSkillElement@@SAHPAD@Z DD 00H
	DD	00H
	DD	01H
	DD	01H
	DD	FLAT:__catchsym$?LoadData@TMonsterSkillElement@@SAHPAD@Z$2
__ehfuncinfo$?LoadData@TMonsterSkillElement@@SAHPAD@Z DD 019930522H
	DD	02H
	DD	FLAT:__unwindtable$?LoadData@TMonsterSkillElement@@SAHPAD@Z
	DD	01H
	DD	FLAT:__tryblocktable$?LoadData@TMonsterSkillElement@@SAHPAD@Z
	DD	2 DUP(00H)
	DD	00H
	DD	01H
xdata$x	ENDS
; Function compile flags: /Ogtp
;	COMDAT ??__F?s_MonsterSkillElementArray@TMonsterSkillElement@@2PAV1@A@@YAXXZ
text$yd	SEGMENT
??__F?s_MonsterSkillElementArray@TMonsterSkillElement@@2PAV1@A@@YAXXZ PROC ; `dynamic atexit destructor for 'TMonsterSkillElement::s_MonsterSkillElementArray'', COMDAT
  00000	68 00 00 00 00	 push	 OFFSET ??1TMonsterSkillElement@@UAE@XZ ; TMonsterSkillElement::~TMonsterSkillElement
  00005	6a 64		 push	 100			; 00000064H
  00007	6a 3c		 push	 60			; 0000003cH
  00009	68 00 00 00 00	 push	 OFFSET ?s_MonsterSkillElementArray@TMonsterSkillElement@@2PAV1@A ; TMonsterSkillElement::s_MonsterSkillElementArray
  0000e	e8 00 00 00 00	 call	 ??_M@YGXPAXIIP6EX0@Z@Z
  00013	c3		 ret	 0
??__F?s_MonsterSkillElementArray@TMonsterSkillElement@@2PAV1@A@@YAXXZ ENDP ; `dynamic atexit destructor for 'TMonsterSkillElement::s_MonsterSkillElementArray''
text$yd	ENDS
; Function compile flags: /Ogtp
; File c:\users\michel\desktop\source\gameserver\source\tmonsterskillelement.cpp
;	COMDAT ??__E?s_MonsterSkillElementArray@TMonsterSkillElement@@2PAV1@A@@YAXXZ
text$di	SEGMENT
??__E?s_MonsterSkillElementArray@TMonsterSkillElement@@2PAV1@A@@YAXXZ PROC ; `dynamic initializer for 'TMonsterSkillElement::s_MonsterSkillElementArray'', COMDAT

; 21   : TMonsterSkillElement TMonsterSkillElement::s_MonsterSkillElementArray[MAX_MONSTER_SKILL_ELEMENT];

  00000	68 00 00 00 00	 push	 OFFSET ??1TMonsterSkillElement@@UAE@XZ ; TMonsterSkillElement::~TMonsterSkillElement
  00005	68 00 00 00 00	 push	 OFFSET ??0TMonsterSkillElement@@QAE@XZ ; TMonsterSkillElement::TMonsterSkillElement
  0000a	6a 64		 push	 100			; 00000064H
  0000c	6a 3c		 push	 60			; 0000003cH
  0000e	68 00 00 00 00	 push	 OFFSET ?s_MonsterSkillElementArray@TMonsterSkillElement@@2PAV1@A ; TMonsterSkillElement::s_MonsterSkillElementArray
  00013	e8 00 00 00 00	 call	 ??_L@YGXPAXIIP6EX0@Z1@Z
  00018	68 00 00 00 00	 push	 OFFSET ??__F?s_MonsterSkillElementArray@TMonsterSkillElement@@2PAV1@A@@YAXXZ ; `dynamic atexit destructor for 'TMonsterSkillElement::s_MonsterSkillElementArray''
  0001d	e8 00 00 00 00	 call	 _atexit
  00022	59		 pop	 ecx
  00023	c3		 ret	 0
??__E?s_MonsterSkillElementArray@TMonsterSkillElement@@2PAV1@A@@YAXXZ ENDP ; `dynamic initializer for 'TMonsterSkillElement::s_MonsterSkillElementArray''
text$di	ENDS
; Function compile flags: /Ogtp
; File c:\users\michel\desktop\source\gameserver\include\readscript.h
;	COMDAT ?GetToken@@YA?AW4SMDToken@@XZ
_TEXT	SEGMENT
_TempString$ = -104					; size = 100
__$ArrayPad$ = -4					; size = 4
?GetToken@@YA?AW4SMDToken@@XZ PROC			; GetToken, COMDAT

; 24   : {

  00000	55		 push	 ebp
  00001	8b ec		 mov	 ebp, esp
  00003	83 ec 68	 sub	 esp, 104		; 00000068H
  00006	a1 00 00 00 00	 mov	 eax, DWORD PTR ___security_cookie
  0000b	33 c5		 xor	 eax, ebp
  0000d	89 45 fc	 mov	 DWORD PTR __$ArrayPad$[ebp], eax

; 25   : 	int ch;
; 26   : 	char* p;
; 27   : 	char TempString[100];
; 28   : 
; 29   : 	TokenString[0]=0;

  00010	c6 05 00 00 00
	00 00		 mov	 BYTE PTR ?TokenString@@3PADA, 0
  00017	53		 push	 ebx
  00018	0f 1f 84 00 00
	00 00 00	 npad	 8
$LL4@GetToken:

; 30   : 
; 31   : 	do
; 32   : 	{
; 33   : 		if ((ch=fgetc(SMDFile)) == -1)

  00020	ff 35 00 00 00
	00		 push	 DWORD PTR ?SMDFile@@3PAU_iobuf@@A
  00026	e8 00 00 00 00	 call	 _fgetc
  0002b	8b d8		 mov	 ebx, eax
  0002d	83 c4 04	 add	 esp, 4
  00030	83 fb ff	 cmp	 ebx, -1
  00033	74 5d		 je	 SHORT $LN43@GetToken

; 34   : 		{
; 35   : 			return END;	// End of FILE (EOF)
; 36   : 		}
; 37   : 		else
; 38   : 		{	
; 39   : 			if (ch=='/')		// this is /

  00035	83 fb 2f	 cmp	 ebx, 47			; 0000002fH
  00038	75 30		 jne	 SHORT $LN2@GetToken

; 40   : 			{
; 41   : 				if((ch=fgetc(SMDFile)) == '/')

  0003a	ff 35 00 00 00
	00		 push	 DWORD PTR ?SMDFile@@3PAU_iobuf@@A
  00040	e8 00 00 00 00	 call	 _fgetc
  00045	8b d8		 mov	 ebx, eax
  00047	83 c4 04	 add	 esp, 4
  0004a	83 fb 2f	 cmp	 ebx, 47			; 0000002fH
  0004d	75 1b		 jne	 SHORT $LN2@GetToken
  0004f	90		 npad	 1
$LL5@GetToken:

; 42   : 				{
; 43   : 					while ((ch != '\n') && (ch != -1))	// End of Line (EOL)

  00050	83 fb ff	 cmp	 ebx, -1
  00053	74 3d		 je	 SHORT $LN43@GetToken

; 44   : 					{
; 45   : 						ch=fgetc(SMDFile);

  00055	ff 35 00 00 00
	00		 push	 DWORD PTR ?SMDFile@@3PAU_iobuf@@A
  0005b	e8 00 00 00 00	 call	 _fgetc
  00060	8b d8		 mov	 ebx, eax
  00062	83 c4 04	 add	 esp, 4
  00065	83 fb 0a	 cmp	 ebx, 10			; 0000000aH
  00068	75 e6		 jne	 SHORT $LL5@GetToken
$LN2@GetToken:

; 51   : 					}
; 52   : 				}
; 53   : 			}
; 54   : 		}
; 55   : 	}
; 56   : 	while (isspace(ch) != 0);

  0006a	53		 push	 ebx
  0006b	e8 00 00 00 00	 call	 _isspace
  00070	83 c4 04	 add	 esp, 4
  00073	85 c0		 test	 eax, eax
  00075	75 a9		 jne	 SHORT $LL4@GetToken

; 57   : 
; 58   : 	
; 59   : 	switch(ch)

  00077	8d 43 de	 lea	 eax, DWORD PTR [ebx-34]
  0007a	56		 push	 esi
  0007b	83 f8 5b	 cmp	 eax, 91			; 0000005bH
  0007e	0f 87 89 01 00
	00		 ja	 $LN29@GetToken
  00084	0f b6 80 00 00
	00 00		 movzx	 eax, BYTE PTR $LN58@GetToken[eax]
  0008b	ff 24 85 00 00
	00 00		 jmp	 DWORD PTR $LN64@GetToken[eax*4]
$LN43@GetToken:

; 46   : 					}
; 47   : 	
; 48   : 					if (ch == -1)
; 49   : 					{
; 50   : 						return END;	// End of FILE

  00092	b8 02 00 00 00	 mov	 eax, 2
  00097	5b		 pop	 ebx

; 143  : 		}
; 144  : 		else
; 145  : 		{
; 146  : 			return CurrentToken = SMD_ERROR; // '<'
; 147  : 		}
; 148  : 		break;
; 149  : 
; 150  : 	}
; 151  : 
; 152  : 	return NAME;
; 153  : }

  00098	8b 4d fc	 mov	 ecx, DWORD PTR __$ArrayPad$[ebp]
  0009b	33 cd		 xor	 ecx, ebp
  0009d	e8 00 00 00 00	 call	 @__security_check_cookie@4
  000a2	8b e5		 mov	 esp, ebp
  000a4	5d		 pop	 ebp
  000a5	c3		 ret	 0
$LN20@GetToken:
  000a6	5e		 pop	 esi

; 60   : 	{
; 61   : 
; 62   : 	case 0x23:	// #
; 63   : 		return CurrentToken=COMMAND;

  000a7	c7 05 00 00 00
	00 23 00 00 00	 mov	 DWORD PTR ?CurrentToken@@3W4SMDToken@@A, 35 ; 00000023H
  000b1	b8 23 00 00 00	 mov	 eax, 35			; 00000023H
  000b6	5b		 pop	 ebx

; 143  : 		}
; 144  : 		else
; 145  : 		{
; 146  : 			return CurrentToken = SMD_ERROR; // '<'
; 147  : 		}
; 148  : 		break;
; 149  : 
; 150  : 	}
; 151  : 
; 152  : 	return NAME;
; 153  : }

  000b7	8b 4d fc	 mov	 ecx, DWORD PTR __$ArrayPad$[ebp]
  000ba	33 cd		 xor	 ecx, ebp
  000bc	e8 00 00 00 00	 call	 @__security_check_cookie@4
  000c1	8b e5		 mov	 esp, ebp
  000c3	5d		 pop	 ebp
  000c4	c3		 ret	 0
$LN21@GetToken:
  000c5	5e		 pop	 esi

; 64   : 		break;
; 65   : 	
; 66   : 	case 0x3B:	// ;
; 67   : 		return CurrentToken=SEMICOLON;

  000c6	c7 05 00 00 00
	00 3b 00 00 00	 mov	 DWORD PTR ?CurrentToken@@3W4SMDToken@@A, 59 ; 0000003bH
  000d0	b8 3b 00 00 00	 mov	 eax, 59			; 0000003bH
  000d5	5b		 pop	 ebx

; 143  : 		}
; 144  : 		else
; 145  : 		{
; 146  : 			return CurrentToken = SMD_ERROR; // '<'
; 147  : 		}
; 148  : 		break;
; 149  : 
; 150  : 	}
; 151  : 
; 152  : 	return NAME;
; 153  : }

  000d6	8b 4d fc	 mov	 ecx, DWORD PTR __$ArrayPad$[ebp]
  000d9	33 cd		 xor	 ecx, ebp
  000db	e8 00 00 00 00	 call	 @__security_check_cookie@4
  000e0	8b e5		 mov	 esp, ebp
  000e2	5d		 pop	 ebp
  000e3	c3		 ret	 0
$LN22@GetToken:
  000e4	5e		 pop	 esi

; 68   : 		break;
; 69   : 	
; 70   : 	case 0x2C:	// ,
; 71   : 
; 72   : 		return CurrentToken=COMMA;

  000e5	c7 05 00 00 00
	00 2c 00 00 00	 mov	 DWORD PTR ?CurrentToken@@3W4SMDToken@@A, 44 ; 0000002cH
  000ef	b8 2c 00 00 00	 mov	 eax, 44			; 0000002cH
  000f4	5b		 pop	 ebx

; 143  : 		}
; 144  : 		else
; 145  : 		{
; 146  : 			return CurrentToken = SMD_ERROR; // '<'
; 147  : 		}
; 148  : 		break;
; 149  : 
; 150  : 	}
; 151  : 
; 152  : 	return NAME;
; 153  : }

  000f5	8b 4d fc	 mov	 ecx, DWORD PTR __$ArrayPad$[ebp]
  000f8	33 cd		 xor	 ecx, ebp
  000fa	e8 00 00 00 00	 call	 @__security_check_cookie@4
  000ff	8b e5		 mov	 esp, ebp
  00101	5d		 pop	 ebp
  00102	c3		 ret	 0
$LN23@GetToken:
  00103	5e		 pop	 esi

; 73   : 		break;
; 74   : 	
; 75   : 	case 0x7B:	// {
; 76   : 		return CurrentToken = LP;

  00104	c7 05 00 00 00
	00 7b 00 00 00	 mov	 DWORD PTR ?CurrentToken@@3W4SMDToken@@A, 123 ; 0000007bH
  0010e	b8 7b 00 00 00	 mov	 eax, 123		; 0000007bH
  00113	5b		 pop	 ebx

; 143  : 		}
; 144  : 		else
; 145  : 		{
; 146  : 			return CurrentToken = SMD_ERROR; // '<'
; 147  : 		}
; 148  : 		break;
; 149  : 
; 150  : 	}
; 151  : 
; 152  : 	return NAME;
; 153  : }

  00114	8b 4d fc	 mov	 ecx, DWORD PTR __$ArrayPad$[ebp]
  00117	33 cd		 xor	 ecx, ebp
  00119	e8 00 00 00 00	 call	 @__security_check_cookie@4
  0011e	8b e5		 mov	 esp, ebp
  00120	5d		 pop	 ebp
  00121	c3		 ret	 0
$LN24@GetToken:
  00122	5e		 pop	 esi

; 77   : 		break;
; 78   : 
; 79   : 	case 0x7D:	// }
; 80   : 		return CurrentToken = RP;

  00123	c7 05 00 00 00
	00 7d 00 00 00	 mov	 DWORD PTR ?CurrentToken@@3W4SMDToken@@A, 125 ; 0000007dH
  0012d	b8 7d 00 00 00	 mov	 eax, 125		; 0000007dH
  00132	5b		 pop	 ebx

; 143  : 		}
; 144  : 		else
; 145  : 		{
; 146  : 			return CurrentToken = SMD_ERROR; // '<'
; 147  : 		}
; 148  : 		break;
; 149  : 
; 150  : 	}
; 151  : 
; 152  : 	return NAME;
; 153  : }

  00133	8b 4d fc	 mov	 ecx, DWORD PTR __$ArrayPad$[ebp]
  00136	33 cd		 xor	 ecx, ebp
  00138	e8 00 00 00 00	 call	 @__security_check_cookie@4
  0013d	8b e5		 mov	 esp, ebp
  0013f	5d		 pop	 ebp
  00140	c3		 ret	 0
$LN25@GetToken:

; 81   : 		break;
; 82   : 	// Nice Index Table :)	by Deathway
; 83   : 	// Numbers Case
; 84   : 	case 0x2D:	//-
; 85   : 	case 0x2E:	//.
; 86   : 	case '0':	//0
; 87   : 	case '1':	//1
; 88   : 	case '2':	//2
; 89   : 	case '3':	//3
; 90   : 	case '4':	//4		
; 91   : 	case '5':	//5
; 92   : 	case '6':	//6
; 93   : 	case '7':	//7
; 94   : 	case '8':	//8
; 95   : 	case '9':	//9
; 96   : 		ungetc(ch, SMDFile);

  00141	ff 35 00 00 00
	00		 push	 DWORD PTR ?SMDFile@@3PAU_iobuf@@A
  00147	53		 push	 ebx
  00148	e8 00 00 00 00	 call	 _ungetc

; 97   : 		p = TempString;
; 98   : 		
; 99   : 		while (((ch=getc(SMDFile)) != -1) && ((ch == 0x2E) || (isdigit(ch) != 0) || (ch == 0x2D)))  // 2e '.'  2D '-'

  0014d	ff 35 00 00 00
	00		 push	 DWORD PTR ?SMDFile@@3PAU_iobuf@@A
  00153	8d 75 98	 lea	 esi, DWORD PTR _TempString$[ebp]
  00156	e8 00 00 00 00	 call	 _getc
  0015b	8b d8		 mov	 ebx, eax
  0015d	83 c4 0c	 add	 esp, 12			; 0000000cH
  00160	83 fb ff	 cmp	 ebx, -1
  00163	74 2f		 je	 SHORT $LN59@GetToken
$LL9@GetToken:
  00165	83 fb 2e	 cmp	 ebx, 46			; 0000002eH
  00168	74 12		 je	 SHORT $LN26@GetToken
  0016a	53		 push	 ebx
  0016b	e8 00 00 00 00	 call	 _isdigit
  00170	83 c4 04	 add	 esp, 4
  00173	85 c0		 test	 eax, eax
  00175	75 05		 jne	 SHORT $LN26@GetToken
  00177	83 fb 2d	 cmp	 ebx, 45			; 0000002dH
  0017a	75 18		 jne	 SHORT $LN59@GetToken
$LN26@GetToken:
  0017c	ff 35 00 00 00
	00		 push	 DWORD PTR ?SMDFile@@3PAU_iobuf@@A

; 100  : 		{
; 101  : 			*p = ch;	// Construct a String

  00182	88 1e		 mov	 BYTE PTR [esi], bl

; 102  : 			p++;

  00184	46		 inc	 esi
  00185	e8 00 00 00 00	 call	 _getc
  0018a	8b d8		 mov	 ebx, eax
  0018c	83 c4 04	 add	 esp, 4
  0018f	83 fb ff	 cmp	 ebx, -1
  00192	75 d1		 jne	 SHORT $LL9@GetToken
$LN59@GetToken:

; 103  : 		}		
; 104  : 		*p = 0;
; 105  : 		TokenNumber = (float)atof( TempString);	// Select the first Byte as Main ID

  00194	8d 45 98	 lea	 eax, DWORD PTR _TempString$[ebp]
  00197	c6 06 00	 mov	 BYTE PTR [esi], 0
  0019a	50		 push	 eax
  0019b	e8 00 00 00 00	 call	 _atof
  001a0	83 c4 04	 add	 esp, 4

; 106  : 		return CurrentToken  = NUMBER ;

  001a3	c7 05 00 00 00
	00 01 00 00 00	 mov	 DWORD PTR ?CurrentToken@@3W4SMDToken@@A, 1
  001ad	d9 1d 00 00 00
	00		 fstp	 DWORD PTR ?TokenNumber@@3MA
  001b3	b8 01 00 00 00	 mov	 eax, 1
  001b8	5e		 pop	 esi
  001b9	5b		 pop	 ebx

; 143  : 		}
; 144  : 		else
; 145  : 		{
; 146  : 			return CurrentToken = SMD_ERROR; // '<'
; 147  : 		}
; 148  : 		break;
; 149  : 
; 150  : 	}
; 151  : 
; 152  : 	return NAME;
; 153  : }

  001ba	8b 4d fc	 mov	 ecx, DWORD PTR __$ArrayPad$[ebp]
  001bd	33 cd		 xor	 ecx, ebp
  001bf	e8 00 00 00 00	 call	 @__security_check_cookie@4
  001c4	8b e5		 mov	 esp, ebp
  001c6	5d		 pop	 ebp
  001c7	c3		 ret	 0
$LN27@GetToken:

; 107  : 		break;
; 108  : 
; 109  : 	case '\"':	// "	String Case
; 110  : 		p=&TokenString[0];
; 111  : 		
; 112  : 		while (((ch=getc(SMDFile)) != -1 ) && (ch != 0x22))	// nice

  001c8	ff 35 00 00 00
	00		 push	 DWORD PTR ?SMDFile@@3PAU_iobuf@@A
  001ce	be 00 00 00 00	 mov	 esi, OFFSET ?TokenString@@3PADA
  001d3	e8 00 00 00 00	 call	 _getc
  001d8	83 c4 04	 add	 esp, 4
  001db	83 f8 ff	 cmp	 eax, -1
  001de	74 1f		 je	 SHORT $LN12@GetToken
$LL11@GetToken:
  001e0	83 f8 22	 cmp	 eax, 34			; 00000022H
  001e3	0f 84 95 00 00
	00		 je	 $LN28@GetToken
  001e9	ff 35 00 00 00
	00		 push	 DWORD PTR ?SMDFile@@3PAU_iobuf@@A

; 113  : 		{
; 114  : 			*p = ch;

  001ef	88 06		 mov	 BYTE PTR [esi], al

; 115  : 			p++;

  001f1	46		 inc	 esi
  001f2	e8 00 00 00 00	 call	 _getc
  001f7	83 c4 04	 add	 esp, 4
  001fa	83 f8 ff	 cmp	 eax, -1
  001fd	75 e1		 jne	 SHORT $LL11@GetToken
$LN12@GetToken:

; 116  : 		}
; 117  : 		if (ch != 0x22 )

  001ff	83 f8 22	 cmp	 eax, 34			; 00000022H
  00202	74 7a		 je	 SHORT $LN28@GetToken

; 118  : 		{
; 119  : 			ungetc(ch, SMDFile);

  00204	ff 35 00 00 00
	00		 push	 DWORD PTR ?SMDFile@@3PAU_iobuf@@A
  0020a	50		 push	 eax

; 120  : 		}
; 121  : 		*p = 0;
; 122  : 		return CurrentToken = NAME;

  0020b	eb 69		 jmp	 SHORT $LN62@GetToken
$LN29@GetToken:

; 123  : 		break;
; 124  : 
; 125  : 	default:	// Others
; 126  : 		if (isalpha(ch))

  0020d	53		 push	 ebx
  0020e	e8 00 00 00 00	 call	 _isalpha
  00213	83 c4 04	 add	 esp, 4
  00216	85 c0		 test	 eax, eax
  00218	0f 84 7f 00 00
	00		 je	 $LN30@GetToken

; 127  : 		{
; 128  : 			p=&TokenString[0];
; 129  : 			*p=ch;
; 130  : 			p++;
; 131  : 
; 132  : 			while ( ((ch=getc(SMDFile)) != -1) && ( (ch == 0x2E) || (ch == 0x5F) || (isalnum(ch) != 0) ) )

  0021e	ff 35 00 00 00
	00		 push	 DWORD PTR ?SMDFile@@3PAU_iobuf@@A
  00224	88 1d 00 00 00
	00		 mov	 BYTE PTR ?TokenString@@3PADA, bl
  0022a	be 01 00 00 00	 mov	 esi, OFFSET ?TokenString@@3PADA+1
  0022f	e8 00 00 00 00	 call	 _getc
  00234	8b d8		 mov	 ebx, eax
  00236	83 c4 04	 add	 esp, 4
  00239	83 fb ff	 cmp	 ebx, -1
  0023c	74 31		 je	 SHORT $LN60@GetToken
  0023e	66 90		 npad	 2
$LL13@GetToken:
  00240	83 fb 2e	 cmp	 ebx, 46			; 0000002eH
  00243	74 12		 je	 SHORT $LN32@GetToken
  00245	83 fb 5f	 cmp	 ebx, 95			; 0000005fH
  00248	74 0d		 je	 SHORT $LN32@GetToken
  0024a	53		 push	 ebx
  0024b	e8 00 00 00 00	 call	 _isalnum
  00250	83 c4 04	 add	 esp, 4
  00253	85 c0		 test	 eax, eax
  00255	74 18		 je	 SHORT $LN60@GetToken
$LN32@GetToken:
  00257	ff 35 00 00 00
	00		 push	 DWORD PTR ?SMDFile@@3PAU_iobuf@@A

; 133  : 			{
; 134  : 				*p=ch;

  0025d	88 1e		 mov	 BYTE PTR [esi], bl

; 135  : 				p++;

  0025f	46		 inc	 esi
  00260	e8 00 00 00 00	 call	 _getc
  00265	8b d8		 mov	 ebx, eax
  00267	83 c4 04	 add	 esp, 4
  0026a	83 fb ff	 cmp	 ebx, -1
  0026d	75 d1		 jne	 SHORT $LL13@GetToken
$LN60@GetToken:

; 136  : 				
; 137  : 			}
; 138  : 
; 139  : 			ungetc(ch, SMDFile);

  0026f	ff 35 00 00 00
	00		 push	 DWORD PTR ?SMDFile@@3PAU_iobuf@@A
  00275	53		 push	 ebx
$LN62@GetToken:
  00276	e8 00 00 00 00	 call	 _ungetc
  0027b	83 c4 08	 add	 esp, 8
$LN28@GetToken:

; 140  : 			*p=0;

  0027e	c6 06 00	 mov	 BYTE PTR [esi], 0

; 141  : 			CurrentToken=NAME;
; 142  : 			return CurrentToken;

  00281	33 c0		 xor	 eax, eax
  00283	5e		 pop	 esi
  00284	c7 05 00 00 00
	00 00 00 00 00	 mov	 DWORD PTR ?CurrentToken@@3W4SMDToken@@A, 0
  0028e	5b		 pop	 ebx

; 143  : 		}
; 144  : 		else
; 145  : 		{
; 146  : 			return CurrentToken = SMD_ERROR; // '<'
; 147  : 		}
; 148  : 		break;
; 149  : 
; 150  : 	}
; 151  : 
; 152  : 	return NAME;
; 153  : }

  0028f	8b 4d fc	 mov	 ecx, DWORD PTR __$ArrayPad$[ebp]
  00292	33 cd		 xor	 ecx, ebp
  00294	e8 00 00 00 00	 call	 @__security_check_cookie@4
  00299	8b e5		 mov	 esp, ebp
  0029b	5d		 pop	 ebp
  0029c	c3		 ret	 0
$LN30@GetToken:
  0029d	8b 4d fc	 mov	 ecx, DWORD PTR __$ArrayPad$[ebp]
  002a0	b8 3c 00 00 00	 mov	 eax, 60			; 0000003cH
  002a5	5e		 pop	 esi
  002a6	33 cd		 xor	 ecx, ebp
  002a8	c7 05 00 00 00
	00 3c 00 00 00	 mov	 DWORD PTR ?CurrentToken@@3W4SMDToken@@A, 60 ; 0000003cH
  002b2	5b		 pop	 ebx
  002b3	e8 00 00 00 00	 call	 @__security_check_cookie@4
  002b8	8b e5		 mov	 esp, ebp
  002ba	5d		 pop	 ebp
  002bb	c3		 ret	 0
$LN64@GetToken:
  002bc	00 00 00 00	 DD	 $LN27@GetToken
  002c0	00 00 00 00	 DD	 $LN20@GetToken
  002c4	00 00 00 00	 DD	 $LN22@GetToken
  002c8	00 00 00 00	 DD	 $LN25@GetToken
  002cc	00 00 00 00	 DD	 $LN21@GetToken
  002d0	00 00 00 00	 DD	 $LN23@GetToken
  002d4	00 00 00 00	 DD	 $LN24@GetToken
  002d8	00 00 00 00	 DD	 $LN29@GetToken
$LN58@GetToken:
  002dc	00		 DB	 0
  002dd	01		 DB	 1
  002de	07		 DB	 7
  002df	07		 DB	 7
  002e0	07		 DB	 7
  002e1	07		 DB	 7
  002e2	07		 DB	 7
  002e3	07		 DB	 7
  002e4	07		 DB	 7
  002e5	07		 DB	 7
  002e6	02		 DB	 2
  002e7	03		 DB	 3
  002e8	03		 DB	 3
  002e9	07		 DB	 7
  002ea	03		 DB	 3
  002eb	03		 DB	 3
  002ec	03		 DB	 3
  002ed	03		 DB	 3
  002ee	03		 DB	 3
  002ef	03		 DB	 3
  002f0	03		 DB	 3
  002f1	03		 DB	 3
  002f2	03		 DB	 3
  002f3	03		 DB	 3
  002f4	07		 DB	 7
  002f5	04		 DB	 4
  002f6	07		 DB	 7
  002f7	07		 DB	 7
  002f8	07		 DB	 7
  002f9	07		 DB	 7
  002fa	07		 DB	 7
  002fb	07		 DB	 7
  002fc	07		 DB	 7
  002fd	07		 DB	 7
  002fe	07		 DB	 7
  002ff	07		 DB	 7
  00300	07		 DB	 7
  00301	07		 DB	 7
  00302	07		 DB	 7
  00303	07		 DB	 7
  00304	07		 DB	 7
  00305	07		 DB	 7
  00306	07		 DB	 7
  00307	07		 DB	 7
  00308	07		 DB	 7
  00309	07		 DB	 7
  0030a	07		 DB	 7
  0030b	07		 DB	 7
  0030c	07		 DB	 7
  0030d	07		 DB	 7
  0030e	07		 DB	 7
  0030f	07		 DB	 7
  00310	07		 DB	 7
  00311	07		 DB	 7
  00312	07		 DB	 7
  00313	07		 DB	 7
  00314	07		 DB	 7
  00315	07		 DB	 7
  00316	07		 DB	 7
  00317	07		 DB	 7
  00318	07		 DB	 7
  00319	07		 DB	 7
  0031a	07		 DB	 7
  0031b	07		 DB	 7
  0031c	07		 DB	 7
  0031d	07		 DB	 7
  0031e	07		 DB	 7
  0031f	07		 DB	 7
  00320	07		 DB	 7
  00321	07		 DB	 7
  00322	07		 DB	 7
  00323	07		 DB	 7
  00324	07		 DB	 7
  00325	07		 DB	 7
  00326	07		 DB	 7
  00327	07		 DB	 7
  00328	07		 DB	 7
  00329	07		 DB	 7
  0032a	07		 DB	 7
  0032b	07		 DB	 7
  0032c	07		 DB	 7
  0032d	07		 DB	 7
  0032e	07		 DB	 7
  0032f	07		 DB	 7
  00330	07		 DB	 7
  00331	07		 DB	 7
  00332	07		 DB	 7
  00333	07		 DB	 7
  00334	07		 DB	 7
  00335	05		 DB	 5
  00336	07		 DB	 7
  00337	06		 DB	 6
?GetToken@@YA?AW4SMDToken@@XZ ENDP			; GetToken
_TEXT	ENDS
; Function compile flags: /Ogtp
;	COMDAT ??_EOBJECTSTRUCT@@QAEPAXI@Z
_TEXT	SEGMENT
__$EHRec$ = -12						; size = 12
___flags$ = 8						; size = 4
??_EOBJECTSTRUCT@@QAEPAXI@Z PROC			; OBJECTSTRUCT::`vector deleting destructor', COMDAT
; _this$ = ecx
  00000	55		 push	 ebp
  00001	8b ec		 mov	 ebp, esp
  00003	6a ff		 push	 -1
  00005	68 00 00 00 00	 push	 __ehhandler$??_EOBJECTSTRUCT@@QAEPAXI@Z
  0000a	64 a1 00 00 00
	00		 mov	 eax, DWORD PTR fs:0
  00010	50		 push	 eax
  00011	53		 push	 ebx
  00012	56		 push	 esi
  00013	57		 push	 edi
  00014	a1 00 00 00 00	 mov	 eax, DWORD PTR ___security_cookie
  00019	33 c5		 xor	 eax, ebp
  0001b	50		 push	 eax
  0001c	8d 45 f4	 lea	 eax, DWORD PTR __$EHRec$[ebp]
  0001f	64 a3 00 00 00
	00		 mov	 DWORD PTR fs:0, eax
  00025	8b f1		 mov	 esi, ecx
  00027	8b 5d 08	 mov	 ebx, DWORD PTR ___flags$[ebp]
  0002a	f6 c3 02	 test	 bl, 2
  0002d	74 44		 je	 SHORT $LN2@vector
  0002f	68 00 00 00 00	 push	 OFFSET ??1OBJECTSTRUCT@@QAE@XZ
  00034	ff 76 fc	 push	 DWORD PTR [esi-4]
  00037	8d 7e fc	 lea	 edi, DWORD PTR [esi-4]
  0003a	68 40 27 00 00	 push	 10048			; 00002740H
  0003f	56		 push	 esi
  00040	e8 00 00 00 00	 call	 ??_M@YGXPAXIIP6EX0@Z@Z
  00045	f6 c3 01	 test	 bl, 1
  00048	74 13		 je	 SHORT $LN3@vector
  0004a	69 0f 40 27 00
	00		 imul	 ecx, DWORD PTR [edi], 10048
  00050	83 c1 04	 add	 ecx, 4
  00053	51		 push	 ecx
  00054	57		 push	 edi
  00055	e8 00 00 00 00	 call	 ??_V@YAXPAXI@Z		; operator delete[]
  0005a	83 c4 08	 add	 esp, 8
$LN3@vector:
  0005d	8b c7		 mov	 eax, edi
  0005f	8b 4d f4	 mov	 ecx, DWORD PTR __$EHRec$[ebp]
  00062	64 89 0d 00 00
	00 00		 mov	 DWORD PTR fs:0, ecx
  00069	59		 pop	 ecx
  0006a	5f		 pop	 edi
  0006b	5e		 pop	 esi
  0006c	5b		 pop	 ebx
  0006d	8b e5		 mov	 esp, ebp
  0006f	5d		 pop	 ebp
  00070	c2 04 00	 ret	 4
$LN2@vector:
  00073	8d 8e ec 20 00
	00		 lea	 ecx, DWORD PTR [esi+8428]
  00079	e8 00 00 00 00	 call	 ??1TMonsterAIAgro@@UAE@XZ ; TMonsterAIAgro::~TMonsterAIAgro
  0007e	8d 8e 0c 16 00
	00		 lea	 ecx, DWORD PTR [esi+5644]
  00084	e8 00 00 00 00	 call	 ??1CSkillDelay@@UAE@XZ	; CSkillDelay::~CSkillDelay
  00089	f6 c3 01	 test	 bl, 1
  0008c	74 0e		 je	 SHORT $LN4@vector
  0008e	68 40 27 00 00	 push	 10048			; 00002740H
  00093	56		 push	 esi
  00094	e8 00 00 00 00	 call	 ??3@YAXPAXI@Z		; operator delete
  00099	83 c4 08	 add	 esp, 8
$LN4@vector:
  0009c	8b c6		 mov	 eax, esi
  0009e	8b 4d f4	 mov	 ecx, DWORD PTR __$EHRec$[ebp]
  000a1	64 89 0d 00 00
	00 00		 mov	 DWORD PTR fs:0, ecx
  000a8	59		 pop	 ecx
  000a9	5f		 pop	 edi
  000aa	5e		 pop	 esi
  000ab	5b		 pop	 ebx
  000ac	8b e5		 mov	 esp, ebp
  000ae	5d		 pop	 ebp
  000af	c2 04 00	 ret	 4
_TEXT	ENDS
;	COMDAT text$x
text$x	SEGMENT
__ehhandler$??_EOBJECTSTRUCT@@QAEPAXI@Z:
  00000	8b 54 24 08	 mov	 edx, DWORD PTR [esp+8]
  00004	8d 42 0c	 lea	 eax, DWORD PTR [edx+12]
  00007	8b 4a f0	 mov	 ecx, DWORD PTR [edx-16]
  0000a	33 c8		 xor	 ecx, eax
  0000c	e8 00 00 00 00	 call	 @__security_check_cookie@4
  00011	b8 00 00 00 00	 mov	 eax, OFFSET __ehfuncinfo$??_EOBJECTSTRUCT@@QAEPAXI@Z
  00016	e9 00 00 00 00	 jmp	 ___CxxFrameHandler3
text$x	ENDS
??_EOBJECTSTRUCT@@QAEPAXI@Z ENDP			; OBJECTSTRUCT::`vector deleting destructor'
; Function compile flags: /Ogtp
;	COMDAT ??1OBJECTSTRUCT@@QAE@XZ
_TEXT	SEGMENT
??1OBJECTSTRUCT@@QAE@XZ PROC				; OBJECTSTRUCT::~OBJECTSTRUCT, COMDAT
; _this$ = ecx
  00000	56		 push	 esi
  00001	8b f1		 mov	 esi, ecx
  00003	8d 8e ec 20 00
	00		 lea	 ecx, DWORD PTR [esi+8428]
  00009	e8 00 00 00 00	 call	 ??1TMonsterAIAgro@@UAE@XZ ; TMonsterAIAgro::~TMonsterAIAgro
  0000e	8d 8e 0c 16 00
	00		 lea	 ecx, DWORD PTR [esi+5644]
  00014	5e		 pop	 esi
  00015	e9 00 00 00 00	 jmp	 ??1CSkillDelay@@UAE@XZ	; CSkillDelay::~CSkillDelay
??1OBJECTSTRUCT@@QAE@XZ ENDP				; OBJECTSTRUCT::~OBJECTSTRUCT
_TEXT	ENDS
; Function compile flags: /Ogtp
;	COMDAT ??_GTMonsterSkillElement@@UAEPAXI@Z
_TEXT	SEGMENT
___flags$ = 8						; size = 4
??_GTMonsterSkillElement@@UAEPAXI@Z PROC		; TMonsterSkillElement::`scalar deleting destructor', COMDAT
; _this$ = ecx
  00000	55		 push	 ebp
  00001	8b ec		 mov	 ebp, esp
  00003	56		 push	 esi
  00004	8b f1		 mov	 esi, ecx
  00006	e8 00 00 00 00	 call	 ??1TMonsterSkillElement@@UAE@XZ ; TMonsterSkillElement::~TMonsterSkillElement
  0000b	f6 45 08 01	 test	 BYTE PTR ___flags$[ebp], 1
  0000f	74 0b		 je	 SHORT $LN4@scalar
  00011	6a 3c		 push	 60			; 0000003cH
  00013	56		 push	 esi
  00014	e8 00 00 00 00	 call	 ??3@YAXPAXI@Z		; operator delete
  00019	83 c4 08	 add	 esp, 8
$LN4@scalar:
  0001c	8b c6		 mov	 eax, esi
  0001e	5e		 pop	 esi
  0001f	5d		 pop	 ebp
  00020	c2 04 00	 ret	 4
??_GTMonsterSkillElement@@UAEPAXI@Z ENDP		; TMonsterSkillElement::`scalar deleting destructor'
_TEXT	ENDS
; Function compile flags: /Ogtp
; File c:\users\michel\desktop\source\gameserver\source\tmonsterskillelement.cpp
;	COMDAT ?FindSkillElement@TMonsterSkillElement@@SAPAV1@H@Z
_TEXT	SEGMENT
_iElementNumber$ = 8					; size = 4
?FindSkillElement@TMonsterSkillElement@@SAPAV1@H@Z PROC	; TMonsterSkillElement::FindSkillElement, COMDAT

; 193  : {

  00000	55		 push	 ebp
  00001	8b ec		 mov	 ebp, esp

; 194  : 	if ( iElementNumber < 0 || iElementNumber >= MAX_MONSTER_SKILL_ELEMENT )

  00003	8b 45 08	 mov	 eax, DWORD PTR _iElementNumber$[ebp]
  00006	83 f8 63	 cmp	 eax, 99			; 00000063H
  00009	77 19		 ja	 SHORT $LN3@FindSkillE

; 200  : 	}
; 201  : 
; 202  : 	if ( TMonsterSkillElement::s_MonsterSkillElementArray[iElementNumber].m_iElementNumber == iElementNumber )

  0000b	8b c8		 mov	 ecx, eax
  0000d	c1 e1 04	 shl	 ecx, 4
  00010	2b c8		 sub	 ecx, eax
  00012	39 04 8d 18 00
	00 00		 cmp	 DWORD PTR ?s_MonsterSkillElementArray@TMonsterSkillElement@@2PAV1@A[ecx*4+24], eax
  00019	75 09		 jne	 SHORT $LN3@FindSkillE

; 203  : 	{
; 204  : 		return &TMonsterSkillElement::s_MonsterSkillElementArray[iElementNumber];

  0001b	8d 04 8d 00 00
	00 00		 lea	 eax, DWORD PTR ?s_MonsterSkillElementArray@TMonsterSkillElement@@2PAV1@A[ecx*4]

; 205  : 	}
; 206  : 
; 207  : 	LogAddTD("[Monster Element] FindSkillElement() Error - (ElementNumber=%d) ",
; 208  : 		iElementNumber);
; 209  : 
; 210  : 	return  NULL;
; 211  : }

  00022	5d		 pop	 ebp
  00023	c3		 ret	 0
$LN3@FindSkillE:

; 195  : 	{
; 196  : 		LogAddTD("[Monster Element] FindSkillElement() Error - (ElementNumber=%d) ",

  00024	50		 push	 eax
  00025	68 00 00 00 00	 push	 OFFSET ??_C@_0EB@EHFPHABL@?$FLMonster?5Element?$FN?5FindSkillEleme@
  0002a	ff 15 00 00 00
	00		 call	 DWORD PTR ?LogAddTD@@3P6AXPADZZA ; LogAddTD
  00030	83 c4 08	 add	 esp, 8

; 197  : 			iElementNumber);
; 198  : 
; 199  : 		return NULL;

  00033	33 c0		 xor	 eax, eax

; 205  : 	}
; 206  : 
; 207  : 	LogAddTD("[Monster Element] FindSkillElement() Error - (ElementNumber=%d) ",
; 208  : 		iElementNumber);
; 209  : 
; 210  : 	return  NULL;
; 211  : }

  00035	5d		 pop	 ebp
  00036	c3		 ret	 0
?FindSkillElement@TMonsterSkillElement@@SAPAV1@H@Z ENDP	; TMonsterSkillElement::FindSkillElement
_TEXT	ENDS
; Function compile flags: /Ogtp
; File c:\users\michel\desktop\source\gameserver\source\tmonsterskillelement.cpp
;	COMDAT ?DelAllSkillElement@TMonsterSkillElement@@SAHXZ
_TEXT	SEGMENT
?DelAllSkillElement@TMonsterSkillElement@@SAHXZ PROC	; TMonsterSkillElement::DelAllSkillElement, COMDAT

; 182  : {

  00000	56		 push	 esi

; 183  : 	for(int i=0;i<MAX_MONSTER_SKILL_ELEMENT;i++)

  00001	be 00 00 00 00	 mov	 esi, OFFSET ?s_MonsterSkillElementArray@TMonsterSkillElement@@2PAV1@A ; TMonsterSkillElement::s_MonsterSkillElementArray
$LL4@DelAllSkil:

; 184  : 	{
; 185  : 		TMonsterSkillElement::s_MonsterSkillElementArray[i].Reset();

  00006	8b ce		 mov	 ecx, esi
  00008	e8 00 00 00 00	 call	 ?Reset@TMonsterSkillElement@@QAEXXZ ; TMonsterSkillElement::Reset
  0000d	83 c6 3c	 add	 esi, 60			; 0000003cH
  00010	81 fe 70 17 00
	00		 cmp	 esi, OFFSET ?s_MonsterSkillElementArray@TMonsterSkillElement@@2PAV1@A+6000
  00016	7c ee		 jl	 SHORT $LL4@DelAllSkil

; 186  : 	}
; 187  : 
; 188  : 	return FALSE;

  00018	33 c0		 xor	 eax, eax
  0001a	5e		 pop	 esi

; 189  : }

  0001b	c3		 ret	 0
?DelAllSkillElement@TMonsterSkillElement@@SAHXZ ENDP	; TMonsterSkillElement::DelAllSkillElement
_TEXT	ENDS
; Function compile flags: /Ogtp
; File c:\users\michel\desktop\source\gameserver\source\tmonsterskillelement.cpp
;	COMDAT ?LoadData@TMonsterSkillElement@@SAHPAD@Z
_TEXT	SEGMENT
_lpszFileName$GSCopy$ = -280				; size = 4
_iType$1$ = -276					; size = 4
_iElementType$1$ = -272					; size = 4
_iCharacterLevel$1$ = -268				; size = 4
_iCharacterClass$1$ = -264				; size = 4
_iNullifiedMagic$1$ = -260				; size = 4
_iIncAndDecValue$1$ = -256				; size = 4
_iIncAndDecType$1$ = -252				; size = 4
_iContinuanceTime$1$ = -248				; size = 4
_iSuccessRate$1$ = -244					; size = 4
_szMsg$2 = -240						; size = 200
_szElementName$3 = -40					; size = 20
__$ArrayPad$ = -20					; size = 4
__$EHRec$ = -16						; size = 16
_lpszFileName$ = 8					; size = 4
?LoadData@TMonsterSkillElement@@SAHPAD@Z PROC		; TMonsterSkillElement::LoadData, COMDAT

; 54   : {	

  00000	55		 push	 ebp
  00001	8b ec		 mov	 ebp, esp
  00003	6a ff		 push	 -1
  00005	68 00 00 00 00	 push	 __ehhandler$?LoadData@TMonsterSkillElement@@SAHPAD@Z
  0000a	64 a1 00 00 00
	00		 mov	 eax, DWORD PTR fs:0
  00010	50		 push	 eax
  00011	81 ec 0c 01 00
	00		 sub	 esp, 268		; 0000010cH
  00017	a1 00 00 00 00	 mov	 eax, DWORD PTR ___security_cookie
  0001c	33 c5		 xor	 eax, ebp
  0001e	89 45 ec	 mov	 DWORD PTR __$ArrayPad$[ebp], eax
  00021	53		 push	 ebx
  00022	56		 push	 esi
  00023	57		 push	 edi
  00024	50		 push	 eax
  00025	8d 45 f4	 lea	 eax, DWORD PTR __$EHRec$[ebp+4]
  00028	64 a3 00 00 00
	00		 mov	 DWORD PTR fs:0, eax
  0002e	89 65 f0	 mov	 DWORD PTR __$EHRec$[ebp], esp
  00031	8b 7d 08	 mov	 edi, DWORD PTR _lpszFileName$[ebp]
  00034	89 bd e8 fe ff
	ff		 mov	 DWORD PTR _lpszFileName$GSCopy$[ebp], edi

; 55   : 	TMonsterSkillElement::s_bDataLoad = FALSE;

  0003a	c7 05 00 00 00
	00 00 00 00 00	 mov	 DWORD PTR ?s_bDataLoad@TMonsterSkillElement@@2HA, 0 ; TMonsterSkillElement::s_bDataLoad

; 56   : 
; 57   : 	if ( !lpszFileName || !strcmp(lpszFileName, ""))

  00044	85 ff		 test	 edi, edi
  00046	0f 84 ed 02 00
	00		 je	 $LN7@LoadData
  0004c	b9 00 00 00 00	 mov	 ecx, OFFSET ??_C@_00CNPNBAHC@?$AA@
  00051	8b c7		 mov	 eax, edi
$LL28@LoadData:
  00053	8a 10		 mov	 dl, BYTE PTR [eax]
  00055	3a 11		 cmp	 dl, BYTE PTR [ecx]
  00057	75 1a		 jne	 SHORT $LN29@LoadData
  00059	84 d2		 test	 dl, dl
  0005b	74 12		 je	 SHORT $LN30@LoadData
  0005d	8a 50 01	 mov	 dl, BYTE PTR [eax+1]
  00060	3a 51 01	 cmp	 dl, BYTE PTR [ecx+1]
  00063	75 0e		 jne	 SHORT $LN29@LoadData
  00065	83 c0 02	 add	 eax, 2
  00068	83 c1 02	 add	 ecx, 2
  0006b	84 d2		 test	 dl, dl
  0006d	75 e4		 jne	 SHORT $LL28@LoadData
$LN30@LoadData:
  0006f	33 c0		 xor	 eax, eax
  00071	eb 05		 jmp	 SHORT $LN31@LoadData
$LN29@LoadData:
  00073	1b c0		 sbb	 eax, eax
  00075	83 c8 01	 or	 eax, 1
$LN31@LoadData:
  00078	85 c0		 test	 eax, eax
  0007a	0f 84 b9 02 00
	00		 je	 $LN7@LoadData

; 61   : 	}
; 62   : 
; 63   : 	try
; 64   : 	{
; 65   : 		SMDToken Token;
; 66   : 		SMDFile = fopen(lpszFileName, "r");

  00080	68 00 00 00 00	 push	 OFFSET ??_C@_01KDCPPGHE@r?$AA@
  00085	57		 push	 edi
  00086	c7 45 fc 00 00
	00 00		 mov	 DWORD PTR __$EHRec$[ebp+12], 0
  0008d	e8 00 00 00 00	 call	 _fopen
  00092	83 c4 08	 add	 esp, 8
  00095	a3 00 00 00 00	 mov	 DWORD PTR ?SMDFile@@3PAU_iobuf@@A, eax

; 67   : 
; 68   : 		if ( SMDFile == NULL )

  0009a	85 c0		 test	 eax, eax
  0009c	75 13		 jne	 SHORT $LN9@LoadData

; 69   : 		{
; 70   : 			MsgBox("[Monster Element] - Can't Open %s ", lpszFileName);

  0009e	57		 push	 edi
  0009f	68 00 00 00 00	 push	 OFFSET ??_C@_0CD@ELHGFGGC@?$FLMonster?5Element?$FN?5?9?5Can?8t?5Open?5?$CF@
  000a4	e8 00 00 00 00	 call	 ?MsgBox@@YAXPADZZ	; MsgBox
  000a9	83 c4 08	 add	 esp, 8

; 71   : 			return FALSE;

  000ac	e9 95 02 00 00	 jmp	 $LN37@LoadData
$LN9@LoadData:

; 72   : 		}
; 73   : 
; 74   : 		TMonsterSkillElement::DelAllSkillElement();

  000b1	e8 00 00 00 00	 call	 ?DelAllSkillElement@TMonsterSkillElement@@SAHXZ ; TMonsterSkillElement::DelAllSkillElement
$LL2@LoadData:

; 75   : 		int iType = -1;
; 76   : 
; 77   : 		while ( true )
; 78   : 		{
; 79   : 			Token = GetToken();

  000b6	e8 00 00 00 00	 call	 ?GetToken@@YA?AW4SMDToken@@XZ ; GetToken

; 80   : 
; 81   : 			if ( Token == END )

  000bb	83 f8 02	 cmp	 eax, 2
  000be	75 2b		 jne	 SHORT $LN10@LoadData

; 160  : 						szElementName, sizeof(TMonsterSkillElement::s_MonsterSkillElementArray[iElementNumber].m_szElementName));
; 161  : 					
; 162  : 				}
; 163  : 			}
; 164  : 		}	// while ( true )
; 165  : 
; 166  : 		fclose(SMDFile);

  000c0	ff 35 00 00 00
	00		 push	 DWORD PTR ?SMDFile@@3PAU_iobuf@@A
  000c6	e8 00 00 00 00	 call	 _fclose

; 167  : 
; 168  : 		LogAddC(2, "[Monster Element] - %s file is Loaded", lpszFileName);

  000cb	57		 push	 edi
  000cc	68 00 00 00 00	 push	 OFFSET ??_C@_0CG@IGOGFOBE@?$FLMonster?5Element?$FN?5?9?5?$CFs?5file?5is?5L@
  000d1	6a 02		 push	 2
  000d3	ff 15 00 00 00
	00		 call	 DWORD PTR ?LogAddC@@3P6AXEPADZZA ; LogAddC
  000d9	83 c4 10	 add	 esp, 16			; 00000010H

; 169  : 
; 170  : 		TMonsterSkillElement::s_bDataLoad = TRUE;

  000dc	c7 05 00 00 00
	00 01 00 00 00	 mov	 DWORD PTR ?s_bDataLoad@TMonsterSkillElement@@2HA, 1 ; TMonsterSkillElement::s_bDataLoad
  000e6	e9 5b 02 00 00	 jmp	 $LN37@LoadData
$LN10@LoadData:

; 82   : 				break;
; 83   : 
; 84   : 			iType = (int)TokenNumber;

  000eb	f3 0f 2c 05 00
	00 00 00	 cvttss2si eax, DWORD PTR ?TokenNumber@@3MA
  000f3	89 85 ec fe ff
	ff		 mov	 DWORD PTR _iType$1$[ebp], eax
  000f9	0f 1f 80 00 00
	00 00		 npad	 7
$LL4@LoadData:

; 85   : 
; 86   : 			while ( true )
; 87   : 			{
; 88   : 				if ( iType == 0 )

  00100	85 c0		 test	 eax, eax
  00102	75 fc		 jne	 SHORT $LL4@LoadData

; 89   : 				{
; 90   : 					char szElementName[20] = {0};

  00104	0f 57 c0	 xorps	 xmm0, xmm0
  00107	88 45 d8	 mov	 BYTE PTR _szElementName$3[ebp], al
  0010a	0f 11 45 d9	 movups	 XMMWORD PTR _szElementName$3[ebp+1], xmm0
  0010e	66 89 45 e9	 mov	 WORD PTR _szElementName$3[ebp+17], ax
  00112	88 45 eb	 mov	 BYTE PTR _szElementName$3[ebp+19], al

; 91   : 					int iElementNumber = -1;						
; 92   : 					int iElementType = -1;
; 93   : 					int iSuccessRate = -1;
; 94   : 					int iContinuanceTime = -1;
; 95   : 					int iIncAndDecType = -1;
; 96   : 					int iIncAndDecValue = -1;
; 97   : 					int iNullifiedMagic = -1;
; 98   : 					int iCharacterClass = -1;
; 99   : 					int iCharacterLevel = -1;
; 100  : 
; 101  : 					Token = GetToken();

  00115	e8 00 00 00 00	 call	 ?GetToken@@YA?AW4SMDToken@@XZ ; GetToken

; 102  : 
; 103  : 					if ( !strcmp("end", TokenString))

  0011a	b9 00 00 00 00	 mov	 ecx, OFFSET ?TokenString@@3PADA
  0011f	b8 00 00 00 00	 mov	 eax, OFFSET ??_C@_03JBJLGPFL@end?$AA@
$LL32@LoadData:
  00124	8a 10		 mov	 dl, BYTE PTR [eax]
  00126	3a 11		 cmp	 dl, BYTE PTR [ecx]
  00128	75 1a		 jne	 SHORT $LN33@LoadData
  0012a	84 d2		 test	 dl, dl
  0012c	74 12		 je	 SHORT $LN34@LoadData
  0012e	8a 50 01	 mov	 dl, BYTE PTR [eax+1]
  00131	3a 51 01	 cmp	 dl, BYTE PTR [ecx+1]
  00134	75 0e		 jne	 SHORT $LN33@LoadData
  00136	83 c0 02	 add	 eax, 2
  00139	83 c1 02	 add	 ecx, 2
  0013c	84 d2		 test	 dl, dl
  0013e	75 e4		 jne	 SHORT $LL32@LoadData
$LN34@LoadData:
  00140	33 c0		 xor	 eax, eax
  00142	eb 05		 jmp	 SHORT $LN35@LoadData
$LN33@LoadData:
  00144	1b c0		 sbb	 eax, eax
  00146	83 c8 01	 or	 eax, 1
$LN35@LoadData:
  00149	85 c0		 test	 eax, eax
  0014b	0f 84 65 ff ff
	ff		 je	 $LL2@LoadData

; 104  : 						break;
; 105  : 
; 106  : 					iElementNumber = (int)TokenNumber;

  00151	f3 0f 2c 35 00
	00 00 00	 cvttss2si esi, DWORD PTR ?TokenNumber@@3MA

; 107  : 
; 108  : 					Token = GetToken();

  00159	e8 00 00 00 00	 call	 ?GetToken@@YA?AW4SMDToken@@XZ ; GetToken

; 109  : 					memcpy(szElementName, TokenString, sizeof(szElementName));

  0015e	a1 10 00 00 00	 mov	 eax, DWORD PTR ?TokenString@@3PADA+16
  00163	89 45 e8	 mov	 DWORD PTR _szElementName$3[ebp+16], eax
  00166	0f 10 05 00 00
	00 00		 movups	 xmm0, XMMWORD PTR ?TokenString@@3PADA
  0016d	0f 11 45 d8	 movups	 XMMWORD PTR _szElementName$3[ebp], xmm0

; 110  : 
; 111  : 					Token = GetToken();

  00171	e8 00 00 00 00	 call	 ?GetToken@@YA?AW4SMDToken@@XZ ; GetToken

; 112  : 					iElementType = (int)TokenNumber;

  00176	f3 0f 2c 05 00
	00 00 00	 cvttss2si eax, DWORD PTR ?TokenNumber@@3MA
  0017e	89 85 f0 fe ff
	ff		 mov	 DWORD PTR _iElementType$1$[ebp], eax

; 113  : 
; 114  : 					Token = GetToken();

  00184	e8 00 00 00 00	 call	 ?GetToken@@YA?AW4SMDToken@@XZ ; GetToken

; 115  : 					iSuccessRate = (int)TokenNumber;

  00189	f3 0f 2c 05 00
	00 00 00	 cvttss2si eax, DWORD PTR ?TokenNumber@@3MA
  00191	89 85 0c ff ff
	ff		 mov	 DWORD PTR _iSuccessRate$1$[ebp], eax

; 116  : 
; 117  : 					Token = GetToken();

  00197	e8 00 00 00 00	 call	 ?GetToken@@YA?AW4SMDToken@@XZ ; GetToken

; 118  : 					iContinuanceTime = (int)TokenNumber;

  0019c	f3 0f 2c 05 00
	00 00 00	 cvttss2si eax, DWORD PTR ?TokenNumber@@3MA
  001a4	89 85 08 ff ff
	ff		 mov	 DWORD PTR _iContinuanceTime$1$[ebp], eax

; 119  : 
; 120  : 					Token = GetToken();

  001aa	e8 00 00 00 00	 call	 ?GetToken@@YA?AW4SMDToken@@XZ ; GetToken

; 121  : 					iIncAndDecType = (int)TokenNumber;

  001af	f3 0f 2c 05 00
	00 00 00	 cvttss2si eax, DWORD PTR ?TokenNumber@@3MA
  001b7	89 85 04 ff ff
	ff		 mov	 DWORD PTR _iIncAndDecType$1$[ebp], eax

; 122  : 
; 123  : 					Token = GetToken();

  001bd	e8 00 00 00 00	 call	 ?GetToken@@YA?AW4SMDToken@@XZ ; GetToken

; 124  : 					iIncAndDecValue = (int)TokenNumber;

  001c2	f3 0f 2c 05 00
	00 00 00	 cvttss2si eax, DWORD PTR ?TokenNumber@@3MA
  001ca	89 85 00 ff ff
	ff		 mov	 DWORD PTR _iIncAndDecValue$1$[ebp], eax

; 125  : 
; 126  : 					Token = GetToken();

  001d0	e8 00 00 00 00	 call	 ?GetToken@@YA?AW4SMDToken@@XZ ; GetToken

; 127  : 					iNullifiedMagic = (int)TokenNumber;

  001d5	f3 0f 2c 05 00
	00 00 00	 cvttss2si eax, DWORD PTR ?TokenNumber@@3MA
  001dd	89 85 fc fe ff
	ff		 mov	 DWORD PTR _iNullifiedMagic$1$[ebp], eax

; 128  : 
; 129  : 					Token = GetToken();

  001e3	e8 00 00 00 00	 call	 ?GetToken@@YA?AW4SMDToken@@XZ ; GetToken

; 130  : 					iCharacterClass = (int)TokenNumber;

  001e8	f3 0f 2c 05 00
	00 00 00	 cvttss2si eax, DWORD PTR ?TokenNumber@@3MA
  001f0	89 85 f8 fe ff
	ff		 mov	 DWORD PTR _iCharacterClass$1$[ebp], eax

; 131  : 
; 132  : 					Token = GetToken();

  001f6	e8 00 00 00 00	 call	 ?GetToken@@YA?AW4SMDToken@@XZ ; GetToken

; 133  : 					iCharacterLevel = (int)TokenNumber;

  001fb	f3 0f 2c 05 00
	00 00 00	 cvttss2si eax, DWORD PTR ?TokenNumber@@3MA
  00203	89 85 f4 fe ff
	ff		 mov	 DWORD PTR _iCharacterLevel$1$[ebp], eax

; 134  : 
; 135  : 					if ( iElementNumber < 0 || iElementNumber >= MAX_MONSTER_SKILL_ELEMENT )

  00209	83 fe 63	 cmp	 esi, 99			; 00000063H
  0020c	0f 87 f4 00 00
	00		 ja	 $LN14@LoadData

; 140  : 					}
; 141  : 
; 142  : 					char szMsg[200] ={0};
; 143  : 
; 144  : 					wsprintf(szMsg, "Num:%d,Name:%s,Type:%d,Rate:%d,Time:%d,I&DType:%d,I&DValue:%d,Null:%d,Class:%d, Level:%d\n",

  00212	68 c8 00 00 00	 push	 200			; 000000c8H
  00217	8d 85 10 ff ff
	ff		 lea	 eax, DWORD PTR _szMsg$2[ebp]
  0021d	6a 00		 push	 0
  0021f	50		 push	 eax
  00220	e8 00 00 00 00	 call	 _memset
  00225	ff b5 f4 fe ff
	ff		 push	 DWORD PTR _iCharacterLevel$1$[ebp]
  0022b	8d 45 d8	 lea	 eax, DWORD PTR _szElementName$3[ebp]
  0022e	ff b5 f8 fe ff
	ff		 push	 DWORD PTR _iCharacterClass$1$[ebp]
  00234	ff b5 fc fe ff
	ff		 push	 DWORD PTR _iNullifiedMagic$1$[ebp]
  0023a	ff b5 00 ff ff
	ff		 push	 DWORD PTR _iIncAndDecValue$1$[ebp]
  00240	ff b5 04 ff ff
	ff		 push	 DWORD PTR _iIncAndDecType$1$[ebp]
  00246	ff b5 08 ff ff
	ff		 push	 DWORD PTR _iContinuanceTime$1$[ebp]
  0024c	ff b5 0c ff ff
	ff		 push	 DWORD PTR _iSuccessRate$1$[ebp]
  00252	ff b5 f0 fe ff
	ff		 push	 DWORD PTR _iElementType$1$[ebp]
  00258	50		 push	 eax
  00259	56		 push	 esi
  0025a	8d 85 10 ff ff
	ff		 lea	 eax, DWORD PTR _szMsg$2[ebp]
  00260	68 00 00 00 00	 push	 OFFSET ??_C@_0FM@EEKDKBLP@?$KB?YNum?3?$CFd?0Name?3?$CFs?0Type?3?$CFd?0Rate?3?$CFd@
  00265	50		 push	 eax
  00266	ff 15 00 00 00
	00		 call	 DWORD PTR __imp__wsprintfA

; 145  : 						iElementNumber, szElementName, iElementType, iSuccessRate, iContinuanceTime,
; 146  : 						iIncAndDecType, iIncAndDecValue, iNullifiedMagic, iCharacterClass, iCharacterLevel);
; 147  : 
; 148  : //					OutputDebugString(szMsg);
; 149  : 
; 150  : 					TMonsterSkillElement::s_MonsterSkillElementArray[iElementNumber].m_iSuccessRate = iSuccessRate;

  0026c	8b 85 0c ff ff
	ff		 mov	 eax, DWORD PTR _iSuccessRate$1$[ebp]
  00272	8b ce		 mov	 ecx, esi

; 151  : 					TMonsterSkillElement::s_MonsterSkillElementArray[iElementNumber].m_iContinuanceTime = iContinuanceTime;
; 152  : 					TMonsterSkillElement::s_MonsterSkillElementArray[iElementNumber].m_iIncAndDecType = iIncAndDecType;
; 153  : 					TMonsterSkillElement::s_MonsterSkillElementArray[iElementNumber].m_iIncAndDecValue = iIncAndDecValue;
; 154  : 					TMonsterSkillElement::s_MonsterSkillElementArray[iElementNumber].m_iNullifiedSkill = iNullifiedMagic;
; 155  : 					TMonsterSkillElement::s_MonsterSkillElementArray[iElementNumber].m_iCharacterClass = iCharacterClass;
; 156  : 					TMonsterSkillElement::s_MonsterSkillElementArray[iElementNumber].m_iCharacterLevel = iCharacterLevel;
; 157  : 					TMonsterSkillElement::s_MonsterSkillElementArray[iElementNumber].m_iElementType = iElementType;
; 158  : 					TMonsterSkillElement::s_MonsterSkillElementArray[iElementNumber].m_iElementNumber = iElementNumber;
; 159  : 					memcpy(TMonsterSkillElement::s_MonsterSkillElementArray[iElementNumber].m_szElementName,

  00274	0f 10 45 d8	 movups	 xmm0, XMMWORD PTR _szElementName$3[ebp]
  00278	c1 e1 04	 shl	 ecx, 4
  0027b	83 c4 3c	 add	 esp, 60			; 0000003cH
  0027e	2b ce		 sub	 ecx, esi
  00280	89 04 8d 20 00
	00 00		 mov	 DWORD PTR ?s_MonsterSkillElementArray@TMonsterSkillElement@@2PAV1@A[ecx*4+32], eax
  00287	8b 85 08 ff ff
	ff		 mov	 eax, DWORD PTR _iContinuanceTime$1$[ebp]
  0028d	89 04 8d 24 00
	00 00		 mov	 DWORD PTR ?s_MonsterSkillElementArray@TMonsterSkillElement@@2PAV1@A[ecx*4+36], eax
  00294	8b 85 04 ff ff
	ff		 mov	 eax, DWORD PTR _iIncAndDecType$1$[ebp]
  0029a	89 04 8d 28 00
	00 00		 mov	 DWORD PTR ?s_MonsterSkillElementArray@TMonsterSkillElement@@2PAV1@A[ecx*4+40], eax
  002a1	8b 85 00 ff ff
	ff		 mov	 eax, DWORD PTR _iIncAndDecValue$1$[ebp]
  002a7	89 04 8d 2c 00
	00 00		 mov	 DWORD PTR ?s_MonsterSkillElementArray@TMonsterSkillElement@@2PAV1@A[ecx*4+44], eax
  002ae	8b 85 fc fe ff
	ff		 mov	 eax, DWORD PTR _iNullifiedMagic$1$[ebp]
  002b4	89 04 8d 30 00
	00 00		 mov	 DWORD PTR ?s_MonsterSkillElementArray@TMonsterSkillElement@@2PAV1@A[ecx*4+48], eax
  002bb	8b 85 f8 fe ff
	ff		 mov	 eax, DWORD PTR _iCharacterClass$1$[ebp]
  002c1	89 04 8d 34 00
	00 00		 mov	 DWORD PTR ?s_MonsterSkillElementArray@TMonsterSkillElement@@2PAV1@A[ecx*4+52], eax
  002c8	8b 85 f4 fe ff
	ff		 mov	 eax, DWORD PTR _iCharacterLevel$1$[ebp]
  002ce	89 04 8d 38 00
	00 00		 mov	 DWORD PTR ?s_MonsterSkillElementArray@TMonsterSkillElement@@2PAV1@A[ecx*4+56], eax
  002d5	8b 85 f0 fe ff
	ff		 mov	 eax, DWORD PTR _iElementType$1$[ebp]
  002db	89 04 8d 1c 00
	00 00		 mov	 DWORD PTR ?s_MonsterSkillElementArray@TMonsterSkillElement@@2PAV1@A[ecx*4+28], eax
  002e2	8b 45 e8	 mov	 eax, DWORD PTR _szElementName$3[ebp+16]
  002e5	0f 11 04 8d 04
	00 00 00	 movups	 XMMWORD PTR ?s_MonsterSkillElementArray@TMonsterSkillElement@@2PAV1@A[ecx*4+4], xmm0
  002ed	89 04 8d 14 00
	00 00		 mov	 DWORD PTR ?s_MonsterSkillElementArray@TMonsterSkillElement@@2PAV1@A[ecx*4+20], eax
  002f4	8b 85 ec fe ff
	ff		 mov	 eax, DWORD PTR _iType$1$[ebp]
  002fa	89 34 8d 18 00
	00 00		 mov	 DWORD PTR ?s_MonsterSkillElementArray@TMonsterSkillElement@@2PAV1@A[ecx*4+24], esi
  00301	e9 fa fd ff ff	 jmp	 $LL4@LoadData
$LN14@LoadData:

; 136  : 					{
; 137  : 						MsgBox("[Monster Element] - ElementNumber(%d) Error (%s) File. ",

  00306	57		 push	 edi
  00307	56		 push	 esi
  00308	68 00 00 00 00	 push	 OFFSET ??_C@_0DI@LDGJOAOE@?$FLMonster?5Element?$FN?5?9?5ElementNumbe@
  0030d	e8 00 00 00 00	 call	 ?MsgBox@@YAXPADZZ	; MsgBox

; 138  : 							iElementNumber, lpszFileName);
; 139  : 						continue;

  00312	8b 85 ec fe ff
	ff		 mov	 eax, DWORD PTR _iType$1$[ebp]
  00318	83 c4 0c	 add	 esp, 12			; 0000000cH
  0031b	e9 e0 fd ff ff	 jmp	 $LL4@LoadData
__catch$?LoadData@TMonsterSkillElement@@SAHPAD@Z$0:

; 171  : 	}
; 172  : 	catch ( DWORD)
; 173  : 	{
; 174  : 		MsgBox("[Monster Element] - Loading Exception Error (%s) File. ", lpszFileName);	

  00320	ff b5 e8 fe ff
	ff		 push	 DWORD PTR _lpszFileName$GSCopy$[ebp]
  00326	68 00 00 00 00	 push	 OFFSET ??_C@_0DI@MPJFELNA@?$FLMonster?5Element?$FN?5?9?5Loading?5Exce@
  0032b	e8 00 00 00 00	 call	 ?MsgBox@@YAXPADZZ	; MsgBox
  00330	83 c4 08	 add	 esp, 8

; 175  : 	}

  00333	b8 00 00 00 00	 mov	 eax, $LN37@LoadData
  00338	c3		 ret	 0
$LN7@LoadData:

; 58   : 	{
; 59   : 		MsgBox("[Monster Element] - File load error : File Name Error");

  00339	68 00 00 00 00	 push	 OFFSET ??_C@_0DG@FBIECEIN@?$FLMonster?5Element?$FN?5?9?5File?5load?5er@
  0033e	e8 00 00 00 00	 call	 ?MsgBox@@YAXPADZZ	; MsgBox
  00343	83 c4 04	 add	 esp, 4
$LN37@LoadData:

; 60   : 		return FALSE;

  00346	33 c0		 xor	 eax, eax

; 176  : 
; 177  : 	return FALSE;
; 178  : }

  00348	8b 4d f4	 mov	 ecx, DWORD PTR __$EHRec$[ebp+4]
  0034b	64 89 0d 00 00
	00 00		 mov	 DWORD PTR fs:0, ecx
  00352	59		 pop	 ecx
  00353	5f		 pop	 edi
  00354	5e		 pop	 esi
  00355	5b		 pop	 ebx
  00356	8b 4d ec	 mov	 ecx, DWORD PTR __$ArrayPad$[ebp]
  00359	33 cd		 xor	 ecx, ebp
  0035b	e8 00 00 00 00	 call	 @__security_check_cookie@4
  00360	8b e5		 mov	 esp, ebp
  00362	5d		 pop	 ebp
  00363	c3		 ret	 0
_TEXT	ENDS
;	COMDAT text$x
text$x	SEGMENT
__ehhandler$?LoadData@TMonsterSkillElement@@SAHPAD@Z:
  00000	8b 54 24 08	 mov	 edx, DWORD PTR [esp+8]
  00004	8d 42 0c	 lea	 eax, DWORD PTR [edx+12]
  00007	8b 8a e4 fe ff
	ff		 mov	 ecx, DWORD PTR [edx-284]
  0000d	33 c8		 xor	 ecx, eax
  0000f	e8 00 00 00 00	 call	 @__security_check_cookie@4
  00014	8b 4a f8	 mov	 ecx, DWORD PTR [edx-8]
  00017	33 c8		 xor	 ecx, eax
  00019	e8 00 00 00 00	 call	 @__security_check_cookie@4
  0001e	b8 00 00 00 00	 mov	 eax, OFFSET __ehfuncinfo$?LoadData@TMonsterSkillElement@@SAHPAD@Z
  00023	e9 00 00 00 00	 jmp	 ___CxxFrameHandler3
text$x	ENDS
?LoadData@TMonsterSkillElement@@SAHPAD@Z ENDP		; TMonsterSkillElement::LoadData
; Function compile flags: /Ogtp
; File c:\users\michel\desktop\source\gameserver\source\tmonsterskillelement.cpp
;	COMDAT ?Reset@TMonsterSkillElement@@QAEXXZ
_TEXT	SEGMENT
?Reset@TMonsterSkillElement@@QAEXXZ PROC		; TMonsterSkillElement::Reset, COMDAT
; _this$ = ecx

; 40   : 	this->m_iSuccessRate = -1;

  00000	c7 41 20 ff ff
	ff ff		 mov	 DWORD PTR [ecx+32], -1
  00007	0f 57 c0	 xorps	 xmm0, xmm0

; 41   : 	this->m_iContinuanceTime = -1;

  0000a	c7 41 24 ff ff
	ff ff		 mov	 DWORD PTR [ecx+36], -1

; 42   : 	this->m_iIncAndDecType = -1;

  00011	c7 41 28 ff ff
	ff ff		 mov	 DWORD PTR [ecx+40], -1

; 43   : 	this->m_iIncAndDecValue = -1;

  00018	c7 41 2c ff ff
	ff ff		 mov	 DWORD PTR [ecx+44], -1

; 44   : 	this->m_iNullifiedSkill = -1;

  0001f	c7 41 30 ff ff
	ff ff		 mov	 DWORD PTR [ecx+48], -1

; 45   : 	this->m_iCharacterClass = -1;

  00026	c7 41 34 ff ff
	ff ff		 mov	 DWORD PTR [ecx+52], -1

; 46   : 	this->m_iCharacterLevel = -1;

  0002d	c7 41 38 ff ff
	ff ff		 mov	 DWORD PTR [ecx+56], -1

; 47   : 	this->m_iElementType = -1;

  00034	c7 41 1c ff ff
	ff ff		 mov	 DWORD PTR [ecx+28], -1

; 48   : 	this->m_iElementNumber = -1;

  0003b	c7 41 18 ff ff
	ff ff		 mov	 DWORD PTR [ecx+24], -1

; 49   : 	memset(this->m_szElementName, 0, sizeof(this->m_szElementName));

  00042	0f 11 41 04	 movups	 XMMWORD PTR [ecx+4], xmm0
  00046	c7 41 14 00 00
	00 00		 mov	 DWORD PTR [ecx+20], 0

; 50   : }

  0004d	c3		 ret	 0
?Reset@TMonsterSkillElement@@QAEXXZ ENDP		; TMonsterSkillElement::Reset
_TEXT	ENDS
; Function compile flags: /Ogtp
; File c:\users\michel\desktop\source\gameserver\source\tmonsterskillelement.cpp
;	COMDAT ?ApplyElementSpecialImmune@TMonsterSkillElement@@QAEHHH@Z
_TEXT	SEGMENT
_iIndex$ = 8						; size = 4
_iTargetIndex$ = 12					; size = 4
?ApplyElementSpecialImmune@TMonsterSkillElement@@QAEHHH@Z PROC ; TMonsterSkillElement::ApplyElementSpecialImmune, COMDAT
; _this$ = ecx

; 972  : {

  00000	55		 push	 ebp
  00001	8b ec		 mov	 ebp, esp

; 973  : 	LPOBJ lpObj = &gObj[iIndex];
; 974  : 	LPOBJ lpTargetObj = &gObj[iIndex];
; 975  : 
; 976  : 	lpTargetObj->m_MonsterSkillElementInfo.m_iSkillElementSpecialImmuneTime = m_iContinuanceTime;

  00003	8b 41 24	 mov	 eax, DWORD PTR [ecx+36]
  00006	56		 push	 esi
  00007	57		 push	 edi
  00008	69 7d 08 40 27
	00 00		 imul	 edi, DWORD PTR _iIndex$[ebp], 10048
  0000f	03 3d 00 00 00
	00		 add	 edi, DWORD PTR ?gObj@@3PAUOBJECTSTRUCT@@A ; gObj
  00015	89 87 c8 20 00
	00		 mov	 DWORD PTR [edi+8392], eax

; 977  : 
; 978  : 	int EffectTime = 0;
; 979  : 
; 980  : 	if( m_iContinuanceTime == -1 )

  0001b	b8 f6 ff ff ff	 mov	 eax, -10		; fffffff6H
  00020	8b 71 24	 mov	 esi, DWORD PTR [ecx+36]
  00023	83 fe ff	 cmp	 esi, -1
  00026	0f 44 f0	 cmove	 esi, eax

; 981  : 	{
; 982  : 		EffectTime = -10;
; 983  : 	}
; 984  : 	else
; 985  : 	{
; 986  : 		EffectTime = m_iContinuanceTime;
; 987  : 	}
; 988  : 
; 989  : 	gObjAddBuffEffect(lpTargetObj,BUFF_MONSTERMAGIC_RESIST,0,0,0,0,EffectTime);

  00029	56		 push	 esi
  0002a	6a 00		 push	 0
  0002c	6a 00		 push	 0
  0002e	6a 00		 push	 0
  00030	6a 00		 push	 0
  00032	6a 3f		 push	 63			; 0000003fH
  00034	57		 push	 edi
  00035	e8 00 00 00 00	 call	 ?gObjAddBuffEffect@@YA_NPAUOBJECTSTRUCT@@HEHEHH@Z ; gObjAddBuffEffect

; 990  : 	gObjAddBuffEffect(lpTargetObj,BUFF_MONCHEMISTRY_RESIST,0,0,0,0,EffectTime);

  0003a	56		 push	 esi
  0003b	6a 00		 push	 0
  0003d	6a 00		 push	 0
  0003f	6a 00		 push	 0
  00041	6a 00		 push	 0
  00043	6a 40		 push	 64			; 00000040H
  00045	57		 push	 edi
  00046	e8 00 00 00 00	 call	 ?gObjAddBuffEffect@@YA_NPAUOBJECTSTRUCT@@HEHEHH@Z ; gObjAddBuffEffect
  0004b	83 c4 38	 add	 esp, 56			; 00000038H

; 991  : 
; 992  : 	return FALSE;

  0004e	33 c0		 xor	 eax, eax
  00050	5f		 pop	 edi
  00051	5e		 pop	 esi

; 993  : }

  00052	5d		 pop	 ebp
  00053	c2 08 00	 ret	 8
?ApplyElementSpecialImmune@TMonsterSkillElement@@QAEHHH@Z ENDP ; TMonsterSkillElement::ApplyElementSpecialImmune
_TEXT	ENDS
; Function compile flags: /Ogtp
; File c:\users\michel\desktop\source\gameserver\source\tmonsterskillelement.cpp
;	COMDAT ?ApplyElementNormalAttack@TMonsterSkillElement@@QAEHHH@Z
_TEXT	SEGMENT
_iIndex$ = 8						; size = 4
_iTargetIndex$ = 12					; size = 4
?ApplyElementNormalAttack@TMonsterSkillElement@@QAEHHH@Z PROC ; TMonsterSkillElement::ApplyElementNormalAttack, COMDAT
; _this$ = ecx

; 935  : {

  00000	55		 push	 ebp
  00001	8b ec		 mov	 ebp, esp
  00003	53		 push	 ebx

; 936  : 	LPOBJ lpObj = &gObj[iIndex];
; 937  : 	LPOBJ lpTargetObj = &gObj[iTargetIndex];

  00004	8b 5d 0c	 mov	 ebx, DWORD PTR _iTargetIndex$[ebp]
  00007	69 d3 40 27 00
	00		 imul	 edx, ebx, 10048
  0000d	56		 push	 esi
  0000e	69 75 08 40 27
	00 00		 imul	 esi, DWORD PTR _iIndex$[ebp], 10048
  00015	03 15 00 00 00
	00		 add	 edx, DWORD PTR ?gObj@@3PAUOBJECTSTRUCT@@A ; gObj
  0001b	03 35 00 00 00
	00		 add	 esi, DWORD PTR ?gObj@@3PAUOBJECTSTRUCT@@A ; gObj

; 938  : 
; 939  : 	if ( lpTargetObj->Connected < PLAYER_PLAYING )

  00021	83 7a 04 03	 cmp	 DWORD PTR [edx+4], 3
  00025	0f 8c a6 00 00
	00		 jl	 $LN13@ApplyEleme

; 940  : 		return FALSE;
; 941  : 
; 942  : 	if ( this->m_iNullifiedSkill == -1 )

  0002b	83 79 30 ff	 cmp	 DWORD PTR [ecx+48], -1
  0002f	75 07		 jne	 SHORT $LN3@ApplyEleme

; 943  : 		this->m_iNullifiedSkill = 0;

  00031	c7 41 30 00 00
	00 00		 mov	 DWORD PTR [ecx+48], 0
$LN3@ApplyEleme:

; 944  : 
; 945  : 	if ( this->m_iIncAndDecType != -1 && this->m_iIncAndDecValue != -1 )

  00038	8b 41 28	 mov	 eax, DWORD PTR [ecx+40]
  0003b	57		 push	 edi
  0003c	83 f8 ff	 cmp	 eax, -1
  0003f	74 60		 je	 SHORT $LN5@ApplyEleme
  00041	8b 79 2c	 mov	 edi, DWORD PTR [ecx+44]
  00044	83 ff ff	 cmp	 edi, -1
  00047	74 58		 je	 SHORT $LN5@ApplyEleme

; 946  : 	{
; 947  : 		if ( lpTargetObj->pInventory[9].m_Type != ITEMGET(this->m_iIncAndDecType, this->m_iIncAndDecValue)  &&
; 948  : 			 lpTargetObj->pInventory[10].m_Type != ITEMGET(this->m_iIncAndDecType, this->m_iIncAndDecValue) &&

  00049	8b 9a c0 11 00
	00		 mov	 ebx, DWORD PTR [edx+4544]
  0004f	c1 e0 09	 shl	 eax, 9
  00052	03 f8		 add	 edi, eax
  00054	0f bf 83 7a 07
	00 00		 movsx	 eax, WORD PTR [ebx+1914]
  0005b	3b c7		 cmp	 eax, edi
  0005d	74 3f		 je	 SHORT $LN11@ApplyEleme
  0005f	0f bf 83 4e 08
	00 00		 movsx	 eax, WORD PTR [ebx+2126]
  00066	3b c7		 cmp	 eax, edi
  00068	74 34		 je	 SHORT $LN11@ApplyEleme
  0006a	0f bf 83 22 09
	00 00		 movsx	 eax, WORD PTR [ebx+2338]
  00071	3b c7		 cmp	 eax, edi
  00073	74 29		 je	 SHORT $LN11@ApplyEleme

; 949  : 			 lpTargetObj->pInventory[11].m_Type != ITEMGET(this->m_iIncAndDecType, this->m_iIncAndDecValue) )
; 950  : 		{
; 951  : 			lpTargetObj->Life = 0;
; 952  : 			gObjLifeCheck(lpTargetObj, lpObj, 100, 0, 0, 0, 0 ,0);

  00075	6a 00		 push	 0
  00077	6a 00		 push	 0
  00079	6a 00		 push	 0
  0007b	6a 00		 push	 0
  0007d	6a 00		 push	 0
  0007f	6a 64		 push	 100			; 00000064H
  00081	56		 push	 esi
  00082	52		 push	 edx
  00083	c7 82 d8 00 00
	00 00 00 00 00	 mov	 DWORD PTR [edx+216], 0
  0008d	e8 00 00 00 00	 call	 ?gObjLifeCheck@@YAXPAUOBJECTSTRUCT@@0HHHHGH@Z ; gObjLifeCheck
  00092	83 c4 20	 add	 esp, 32			; 00000020H

; 965  : 	}
; 966  : 
; 967  : 	return FALSE;

  00095	33 c0		 xor	 eax, eax
  00097	5f		 pop	 edi
  00098	5e		 pop	 esi
  00099	5b		 pop	 ebx

; 968  : }

  0009a	5d		 pop	 ebp
  0009b	c2 08 00	 ret	 8
$LN11@ApplyEleme:
  0009e	8b 5d 0c	 mov	 ebx, DWORD PTR _iTargetIndex$[ebp]
$LN5@ApplyEleme:

; 953  : 
; 954  : 			return FALSE;
; 955  : 		}
; 956  : 	}
; 957  : 
; 958  : 	if ( this->m_iNullifiedSkill == 0 )

  000a1	8b 41 30	 mov	 eax, DWORD PTR [ecx+48]

; 959  : 	{
; 960  : 		gObjAttack(lpObj, lpTargetObj, 0, 0, 0, 0 ,0,0,0);

  000a4	6a 00		 push	 0
  000a6	85 c0		 test	 eax, eax
  000a8	75 19		 jne	 SHORT $LN6@ApplyEleme
  000aa	50		 push	 eax
  000ab	50		 push	 eax
  000ac	50		 push	 eax
  000ad	50		 push	 eax
  000ae	50		 push	 eax
  000af	50		 push	 eax
  000b0	52		 push	 edx
  000b1	56		 push	 esi
  000b2	e8 00 00 00 00	 call	 ?gObjAttack@@YAXPAUOBJECTSTRUCT@@0PAVCMagicInf@@HEHHEE@Z ; gObjAttack
  000b7	83 c4 24	 add	 esp, 36			; 00000024H

; 965  : 	}
; 966  : 
; 967  : 	return FALSE;

  000ba	33 c0		 xor	 eax, eax
  000bc	5f		 pop	 edi
  000bd	5e		 pop	 esi
  000be	5b		 pop	 ebx

; 968  : }

  000bf	5d		 pop	 ebp
  000c0	c2 08 00	 ret	 8
$LN6@ApplyEleme:

; 961  : 	}
; 962  : 	else
; 963  : 	{
; 964  : 		gObjAddMsgSendDelay(lpObj, 55, iTargetIndex, this->m_iNullifiedSkill, 0);

  000c3	50		 push	 eax
  000c4	53		 push	 ebx
  000c5	6a 37		 push	 55			; 00000037H
  000c7	56		 push	 esi
  000c8	e8 00 00 00 00	 call	 ?gObjAddMsgSendDelay@@YAXPAUOBJECTSTRUCT@@HHHH@Z ; gObjAddMsgSendDelay
  000cd	83 c4 14	 add	 esp, 20			; 00000014H
  000d0	5f		 pop	 edi
$LN13@ApplyEleme:

; 965  : 	}
; 966  : 
; 967  : 	return FALSE;

  000d1	5e		 pop	 esi
  000d2	33 c0		 xor	 eax, eax
  000d4	5b		 pop	 ebx

; 968  : }

  000d5	5d		 pop	 ebp
  000d6	c2 08 00	 ret	 8
?ApplyElementNormalAttack@TMonsterSkillElement@@QAEHHH@Z ENDP ; TMonsterSkillElement::ApplyElementNormalAttack
_TEXT	ENDS
; Function compile flags: /Ogtp
; File c:\users\michel\desktop\source\gameserver\source\tmonsterskillelement.cpp
;	COMDAT ?ApplyElementPoison@TMonsterSkillElement@@QAEHHH@Z
_TEXT	SEGMENT
_iIndex$ = 8						; size = 4
_iTargetIndex$ = 12					; size = 4
?ApplyElementPoison@TMonsterSkillElement@@QAEHHH@Z PROC	; TMonsterSkillElement::ApplyElementPoison, COMDAT
; _this$ = ecx

; 906  : {

  00000	55		 push	 ebp
  00001	8b ec		 mov	 ebp, esp
  00003	53		 push	 ebx
  00004	56		 push	 esi

; 907  : 	LPOBJ lpObj = &gObj[iIndex];
; 908  : 	LPOBJ lpTargetObj = &gObj[iTargetIndex];

  00005	69 75 0c 40 27
	00 00		 imul	 esi, DWORD PTR _iTargetIndex$[ebp], 10048
  0000c	8b d9		 mov	 ebx, ecx
  0000e	57		 push	 edi
  0000f	69 7d 08 40 27
	00 00		 imul	 edi, DWORD PTR _iIndex$[ebp], 10048
  00016	03 35 00 00 00
	00		 add	 esi, DWORD PTR ?gObj@@3PAUOBJECTSTRUCT@@A ; gObj
  0001c	03 3d 00 00 00
	00		 add	 edi, DWORD PTR ?gObj@@3PAUOBJECTSTRUCT@@A ; gObj

; 909  : 
; 910  : 	if ( lpTargetObj->Connected < PLAYER_PLAYING )

  00022	83 7e 04 03	 cmp	 DWORD PTR [esi+4], 3
  00026	7c 5b		 jl	 SHORT $LN5@ApplyEleme

; 911  : 		return FALSE;
; 912  : 
; 913  : 	if ( gObjCheckUsedBuffEffect(lpTargetObj,BUFF_POISON) == FALSE )

  00028	6a 37		 push	 55			; 00000037H
  0002a	56		 push	 esi
  0002b	e8 00 00 00 00	 call	 ?gObjCheckUsedBuffEffect@@YA_NPAUOBJECTSTRUCT@@H@Z ; gObjCheckUsedBuffEffect
  00030	83 c4 08	 add	 esp, 8
  00033	84 c0		 test	 al, al
  00035	75 4c		 jne	 SHORT $LN5@ApplyEleme

; 914  : 	{
; 915  : 		if ( this->m_iNullifiedSkill  < 1 )

  00037	8b 43 30	 mov	 eax, DWORD PTR [ebx+48]
  0003a	83 f8 01	 cmp	 eax, 1
  0003d	7d 32		 jge	 SHORT $LN4@ApplyEleme

; 916  : 		{
; 917  : 			if ( retResistance(lpTargetObj, 1) == 0 )

  0003f	6a 01		 push	 1
  00041	56		 push	 esi
  00042	e8 00 00 00 00	 call	 ?retResistance@@YAHPAUOBJECTSTRUCT@@H@Z ; retResistance
  00047	83 c4 08	 add	 esp, 8
  0004a	85 c0		 test	 eax, eax
  0004c	75 35		 jne	 SHORT $LN5@ApplyEleme

; 918  : 			{
; 919  : 				lpTargetObj->lpAttackObj = lpObj;

  0004e	89 be b4 05 00
	00		 mov	 DWORD PTR [esi+1460], edi

; 920  : 				gObjAddBuffEffect(lpTargetObj,BUFF_POISON,ADD_OPTION_REDUCE_HPPERC,3,0,0,m_iIncAndDecValue);

  00054	ff 73 2c	 push	 DWORD PTR [ebx+44]
  00057	50		 push	 eax
  00058	50		 push	 eax
  00059	6a 03		 push	 3
  0005b	6a 13		 push	 19			; 00000013H
  0005d	6a 37		 push	 55			; 00000037H
  0005f	56		 push	 esi
  00060	e8 00 00 00 00	 call	 ?gObjAddBuffEffect@@YA_NPAUOBJECTSTRUCT@@HEHEHH@Z ; gObjAddBuffEffect
  00065	83 c4 1c	 add	 esp, 28			; 0000001cH

; 926  : 		}
; 927  : 	}
; 928  : 
; 929  : 	return FALSE;

  00068	33 c0		 xor	 eax, eax
  0006a	5f		 pop	 edi
  0006b	5e		 pop	 esi
  0006c	5b		 pop	 ebx

; 930  : }

  0006d	5d		 pop	 ebp
  0006e	c2 08 00	 ret	 8
$LN4@ApplyEleme:

; 921  : 			}
; 922  : 		}
; 923  : 		else
; 924  : 		{
; 925  : 			gObjAddMsgSendDelay(lpObj, 56, iTargetIndex, this->m_iNullifiedSkill, this->m_iIncAndDecValue);

  00071	ff 73 2c	 push	 DWORD PTR [ebx+44]
  00074	50		 push	 eax
  00075	ff 75 0c	 push	 DWORD PTR _iTargetIndex$[ebp]
  00078	6a 38		 push	 56			; 00000038H
  0007a	57		 push	 edi
  0007b	e8 00 00 00 00	 call	 ?gObjAddMsgSendDelay@@YAXPAUOBJECTSTRUCT@@HHHH@Z ; gObjAddMsgSendDelay
  00080	83 c4 14	 add	 esp, 20			; 00000014H
$LN5@ApplyEleme:

; 926  : 		}
; 927  : 	}
; 928  : 
; 929  : 	return FALSE;

  00083	5f		 pop	 edi
  00084	5e		 pop	 esi
  00085	33 c0		 xor	 eax, eax
  00087	5b		 pop	 ebx

; 930  : }

  00088	5d		 pop	 ebp
  00089	c2 08 00	 ret	 8
?ApplyElementPoison@TMonsterSkillElement@@QAEHHH@Z ENDP	; TMonsterSkillElement::ApplyElementPoison
_TEXT	ENDS
; Function compile flags: /Ogtp
; File c:\users\michel\desktop\source\gameserver\source\tmonsterskillelement.cpp
;	COMDAT ?ApplyElementDoubleHP@TMonsterSkillElement@@QAEHHH@Z
_TEXT	SEGMENT
_iIndex$ = 8						; size = 4
_iTargetIndex$ = 12					; size = 4
?ApplyElementDoubleHP@TMonsterSkillElement@@QAEHHH@Z PROC ; TMonsterSkillElement::ApplyElementDoubleHP, COMDAT
; _this$ = ecx

; 890  : {

  00000	55		 push	 ebp
  00001	8b ec		 mov	 ebp, esp

; 891  : 	LPOBJ lpObj = &gObj[iIndex];

  00003	8b 0d 00 00 00
	00		 mov	 ecx, DWORD PTR ?gObj@@3PAUOBJECTSTRUCT@@A ; gObj
  00009	56		 push	 esi
  0000a	69 75 08 40 27
	00 00		 imul	 esi, DWORD PTR _iIndex$[ebp], 10048
  00011	57		 push	 edi

; 892  : 	LPOBJ lpTargetObj = &gObj[iTargetIndex];

  00012	8b 7d 0c	 mov	 edi, DWORD PTR _iTargetIndex$[ebp]
  00015	69 c7 40 27 00
	00		 imul	 eax, edi, 10048
  0001b	03 f1		 add	 esi, ecx

; 893  : 
; 894  : 	if ( lpTargetObj->Connected < PLAYER_PLAYING )

  0001d	83 7c 08 04 03	 cmp	 DWORD PTR [eax+ecx+4], 3
  00022	7c 23		 jl	 SHORT $LN4@ApplyEleme

; 895  : 		return FALSE;
; 896  : 
; 897  : 	gObjAddMsgSendDelay(lpObj, 55, iTargetIndex, 400, 0);

  00024	6a 00		 push	 0
  00026	68 90 01 00 00	 push	 400			; 00000190H
  0002b	57		 push	 edi
  0002c	6a 37		 push	 55			; 00000037H
  0002e	56		 push	 esi
  0002f	e8 00 00 00 00	 call	 ?gObjAddMsgSendDelay@@YAXPAUOBJECTSTRUCT@@HHHH@Z ; gObjAddMsgSendDelay

; 898  : 	gObjAddMsgSendDelay(lpObj, 55, iTargetIndex, 1000, 0);

  00034	6a 00		 push	 0
  00036	68 e8 03 00 00	 push	 1000			; 000003e8H
  0003b	57		 push	 edi
  0003c	6a 37		 push	 55			; 00000037H
  0003e	56		 push	 esi
  0003f	e8 00 00 00 00	 call	 ?gObjAddMsgSendDelay@@YAXPAUOBJECTSTRUCT@@HHHH@Z ; gObjAddMsgSendDelay
  00044	83 c4 28	 add	 esp, 40			; 00000028H
$LN4@ApplyEleme:

; 899  : 
; 900  : 	return FALSE;

  00047	5f		 pop	 edi
  00048	33 c0		 xor	 eax, eax
  0004a	5e		 pop	 esi

; 901  : }

  0004b	5d		 pop	 ebp
  0004c	c2 08 00	 ret	 8
?ApplyElementDoubleHP@TMonsterSkillElement@@QAEHHH@Z ENDP ; TMonsterSkillElement::ApplyElementDoubleHP
_TEXT	ENDS
; Function compile flags: /Ogtp
; File c:\users\michel\desktop\source\gameserver\source\tmonsterskillelement.cpp
;	COMDAT ?ApplyElementTeleportSkill@TMonsterSkillElement@@QAEHHH@Z
_TEXT	SEGMENT
_iIndex$GSCopy$1$ = -28					; size = 4
_x$ = -24						; size = 1
_depth$1$ = -20						; size = 4
_y$ = -20						; size = 1
_pAttack$ = -16						; size = 9
__$ArrayPad$ = -4					; size = 4
_iIndex$ = 8						; size = 4
_iTargetIndex$ = 12					; size = 4
?ApplyElementTeleportSkill@TMonsterSkillElement@@QAEHHH@Z PROC ; TMonsterSkillElement::ApplyElementTeleportSkill, COMDAT
; _this$ = ecx

; 829  : {

  00000	55		 push	 ebp
  00001	8b ec		 mov	 ebp, esp
  00003	83 ec 1c	 sub	 esp, 28			; 0000001cH
  00006	a1 00 00 00 00	 mov	 eax, DWORD PTR ___security_cookie
  0000b	33 c5		 xor	 eax, ebp
  0000d	89 45 fc	 mov	 DWORD PTR __$ArrayPad$[ebp], eax
  00010	8b 4d 08	 mov	 ecx, DWORD PTR _iIndex$[ebp]
  00013	89 4d e4	 mov	 DWORD PTR _iIndex$GSCopy$1$[ebp], ecx

; 830  : 	if ( !OBJMAX_RANGE(iIndex))

  00016	85 c9		 test	 ecx, ecx
  00018	0f 88 ad 01 00
	00		 js	 $LN15@ApplyEleme
  0001e	33 c0		 xor	 eax, eax
  00020	81 f9 eb 2c 00
	00		 cmp	 ecx, 11499		; 00002cebH
  00026	0f 9e c0	 setle	 al
  00029	85 c0		 test	 eax, eax
  0002b	0f 84 9a 01 00
	00		 je	 $LN15@ApplyEleme

; 831  : 		return FALSE;
; 832  : 
; 833  : 	if ( gObjCheckUsedBuffEffect(&gObj[iIndex],BUFF_STUN) == TRUE )

  00031	a1 00 00 00 00	 mov	 eax, DWORD PTR ?gObj@@3PAUOBJECTSTRUCT@@A ; gObj
  00036	56		 push	 esi
  00037	69 f1 40 27 00
	00		 imul	 esi, ecx, 10048
  0003d	6a 3d		 push	 61			; 0000003dH
  0003f	03 c6		 add	 eax, esi
  00041	50		 push	 eax
  00042	e8 00 00 00 00	 call	 ?gObjCheckUsedBuffEffect@@YA_NPAUOBJECTSTRUCT@@H@Z ; gObjCheckUsedBuffEffect
  00047	83 c4 08	 add	 esp, 8
  0004a	3c 01		 cmp	 al, 1
  0004c	0f 84 78 01 00
	00		 je	 $LN24@ApplyEleme

; 834  : 		return FALSE;
; 835  : 
; 836  : 	if ( gObjCheckUsedBuffEffect(&gObj[iIndex],BUFF_SLEEP) == TRUE )

  00052	a1 00 00 00 00	 mov	 eax, DWORD PTR ?gObj@@3PAUOBJECTSTRUCT@@A ; gObj
  00057	03 c6		 add	 eax, esi
  00059	6a 48		 push	 72			; 00000048H
  0005b	50		 push	 eax
  0005c	e8 00 00 00 00	 call	 ?gObjCheckUsedBuffEffect@@YA_NPAUOBJECTSTRUCT@@H@Z ; gObjCheckUsedBuffEffect
  00061	83 c4 08	 add	 esp, 8
  00064	3c 01		 cmp	 al, 1
  00066	0f 84 5e 01 00
	00		 je	 $LN24@ApplyEleme

; 837  : 		return FALSE;
; 838  : 
; 839  : 	if ( gObjCheckUsedBuffEffect(&gObj[iIndex],BUFF_EARTHBINDS) == TRUE )

  0006c	a1 00 00 00 00	 mov	 eax, DWORD PTR ?gObj@@3PAUOBJECTSTRUCT@@A ; gObj
  00071	03 c6		 add	 eax, esi
  00073	68 93 00 00 00	 push	 147			; 00000093H
  00078	50		 push	 eax
  00079	e8 00 00 00 00	 call	 ?gObjCheckUsedBuffEffect@@YA_NPAUOBJECTSTRUCT@@H@Z ; gObjCheckUsedBuffEffect
  0007e	83 c4 08	 add	 esp, 8
  00081	3c 01		 cmp	 al, 1
  00083	0f 84 41 01 00
	00		 je	 $LN24@ApplyEleme

; 840  : 		return FALSE;
; 841  : 
; 842  : 	LPOBJ lpObj = &gObj[iIndex];

  00089	03 35 00 00 00
	00		 add	 esi, DWORD PTR ?gObj@@3PAUOBJECTSTRUCT@@A ; gObj
  0008f	53		 push	 ebx

; 843  : 
; 844  : 	BYTE x;
; 845  : 	BYTE y;
; 846  : 	int depth = rand()%4 + 3;

  00090	e8 00 00 00 00	 call	 _rand
  00095	25 03 00 00 80	 and	 eax, -2147483645	; 80000003H
  0009a	79 05		 jns	 SHORT $LN18@ApplyEleme
  0009c	48		 dec	 eax
  0009d	83 c8 fc	 or	 eax, -4			; fffffffcH
  000a0	40		 inc	 eax
$LN18@ApplyEleme:
  000a1	83 c0 03	 add	 eax, 3
  000a4	89 45 ec	 mov	 DWORD PTR _depth$1$[ebp], eax

; 847  : 	PMSG_MAGICATTACK_RESULT pAttack;
; 848  : 
; 849  : 	if ( (rand()%2) == 0 )

  000a7	e8 00 00 00 00	 call	 _rand
  000ac	25 01 00 00 80	 and	 eax, -2147483647	; 80000001H
  000b1	79 05		 jns	 SHORT $LN19@ApplyEleme
  000b3	48		 dec	 eax
  000b4	83 c8 fe	 or	 eax, -2			; fffffffeH
  000b7	40		 inc	 eax
$LN19@ApplyEleme:

; 850  : 		x = lpObj->X + depth;

  000b8	8a 9e 20 01 00
	00		 mov	 bl, BYTE PTR [esi+288]

; 847  : 	PMSG_MAGICATTACK_RESULT pAttack;
; 848  : 
; 849  : 	if ( (rand()%2) == 0 )

  000be	75 05		 jne	 SHORT $LN6@ApplyEleme

; 850  : 		x = lpObj->X + depth;

  000c0	02 5d ec	 add	 bl, BYTE PTR _depth$1$[ebp]

; 851  : 	else

  000c3	eb 03		 jmp	 SHORT $LN21@ApplyEleme
$LN6@ApplyEleme:

; 852  : 		x = lpObj->X - depth;

  000c5	2a 5d ec	 sub	 bl, BYTE PTR _depth$1$[ebp]
$LN21@ApplyEleme:
  000c8	88 5d e8	 mov	 BYTE PTR _x$[ebp], bl

; 853  : 
; 854  : 	if ( (rand()%2) == 0 )

  000cb	e8 00 00 00 00	 call	 _rand
  000d0	25 01 00 00 80	 and	 eax, -2147483647	; 80000001H
  000d5	79 05		 jns	 SHORT $LN20@ApplyEleme
  000d7	48		 dec	 eax
  000d8	83 c8 fe	 or	 eax, -2			; fffffffeH
  000db	40		 inc	 eax
$LN20@ApplyEleme:

; 855  : 		y = lpObj->Y + depth;

  000dc	8a be 21 01 00
	00		 mov	 bh, BYTE PTR [esi+289]

; 853  : 
; 854  : 	if ( (rand()%2) == 0 )

  000e2	75 05		 jne	 SHORT $LN8@ApplyEleme

; 855  : 		y = lpObj->Y + depth;

  000e4	02 7d ec	 add	 bh, BYTE PTR _depth$1$[ebp]

; 856  : 	else

  000e7	eb 03		 jmp	 SHORT $LN22@ApplyEleme
$LN8@ApplyEleme:

; 857  : 		y = lpObj->Y - depth;

  000e9	2a 7d ec	 sub	 bh, BYTE PTR _depth$1$[ebp]
$LN22@ApplyEleme:
  000ec	88 7d ec	 mov	 BYTE PTR _y$[ebp], bh

; 858  : 
; 859  : 	if ( gObjCheckTeleportArea(iIndex, x, y) == FALSE )

  000ef	ff 75 ec	 push	 DWORD PTR _y$[ebp]
  000f2	ff 75 e8	 push	 DWORD PTR _x$[ebp]
  000f5	ff 75 e4	 push	 DWORD PTR _iIndex$GSCopy$1$[ebp]
  000f8	e8 00 00 00 00	 call	 ?gObjCheckTeleportArea@@YAHHEE@Z ; gObjCheckTeleportArea
  000fd	83 c4 0c	 add	 esp, 12			; 0000000cH
  00100	85 c0		 test	 eax, eax
  00102	75 30		 jne	 SHORT $LN10@ApplyEleme

; 860  : 	{
; 861  : 		LogAddC(2, "[%s] Try Teleport Not Move Area [%d,%d]", lpObj->Name,	x, y);

  00104	0f b6 c7	 movzx	 eax, bh
  00107	50		 push	 eax
  00108	0f b6 c3	 movzx	 eax, bl
  0010b	50		 push	 eax
  0010c	8d 46 5d	 lea	 eax, DWORD PTR [esi+93]
  0010f	50		 push	 eax
  00110	68 00 00 00 00	 push	 OFFSET ??_C@_0CI@KDPPBOBF@?$FL?$CFs?$FN?5Try?5Teleport?5Not?5Move?5Area?5@
  00115	6a 02		 push	 2
  00117	ff 15 00 00 00
	00		 call	 DWORD PTR ?LogAddC@@3P6AXEPADZZA ; LogAddC
  0011d	83 c4 14	 add	 esp, 20			; 00000014H

; 862  : 		return FALSE;

  00120	33 c0		 xor	 eax, eax
  00122	5b		 pop	 ebx
  00123	5e		 pop	 esi

; 884  : 
; 885  : 	return FALSE;
; 886  : }

  00124	8b 4d fc	 mov	 ecx, DWORD PTR __$ArrayPad$[ebp]
  00127	33 cd		 xor	 ecx, ebp
  00129	e8 00 00 00 00	 call	 @__security_check_cookie@4
  0012e	8b e5		 mov	 esp, ebp
  00130	5d		 pop	 ebp
  00131	c2 08 00	 ret	 8
$LN10@ApplyEleme:

; 863  : 	}
; 864  : 
; 865  : 	PHeadSetBE((LPBYTE)&pAttack, 0x19, sizeof(pAttack));

  00134	6a 09		 push	 9
  00136	8d 45 f0	 lea	 eax, DWORD PTR _pAttack$[ebp]
  00139	6a 19		 push	 25			; 00000019H
  0013b	50		 push	 eax
  0013c	e8 00 00 00 00	 call	 ?PHeadSetBE@@YAXPAEEH@Z	; PHeadSetBE

; 866  : 
; 867  : 	pAttack.MagicNumberH = SET_NUMBERH(AT_SKILL_TELEPORT);
; 868  : 	pAttack.MagicNumberL = SET_NUMBERL(AT_SKILL_TELEPORT);
; 869  : 
; 870  : 	pAttack.SourceNumberH = SET_NUMBERH(iIndex);

  00141	8b 4d e4	 mov	 ecx, DWORD PTR _iIndex$GSCopy$1$[ebp]
  00144	83 c4 0c	 add	 esp, 12			; 0000000cH
  00147	8b c1		 mov	 eax, ecx
  00149	66 c7 45 f5 00
	06		 mov	 WORD PTR _pAttack$[ebp+5], 1536 ; 00000600H
  0014f	c1 e8 08	 shr	 eax, 8
  00152	88 45 f3	 mov	 BYTE PTR _pAttack$[ebp+3], al

; 871  : 	pAttack.SourceNumberL = SET_NUMBERL(iIndex);

  00155	88 4d f4	 mov	 BYTE PTR _pAttack$[ebp+4], cl

; 872  : 	pAttack.TargetNumberH = SET_NUMBERH(iIndex);

  00158	88 45 f7	 mov	 BYTE PTR _pAttack$[ebp+7], al

; 873  : 	pAttack.TargetNumberL = SET_NUMBERL(iIndex);

  0015b	88 4d f8	 mov	 BYTE PTR _pAttack$[ebp+8], cl

; 874  : 
; 875  : 	if ( lpObj->Type == OBJ_USER )

  0015e	80 7e 50 01	 cmp	 BYTE PTR [esi+80], 1
  00162	75 12		 jne	 SHORT $LN11@ApplyEleme

; 876  : 		DataSend(iIndex, (LPBYTE)&pAttack, pAttack.h.size);	

  00164	0f b6 45 f1	 movzx	 eax, BYTE PTR _pAttack$[ebp+1]
  00168	50		 push	 eax
  00169	8d 45 f0	 lea	 eax, DWORD PTR _pAttack$[ebp]
  0016c	50		 push	 eax
  0016d	51		 push	 ecx
  0016e	e8 00 00 00 00	 call	 ?DataSend@@YAHHPAEK@Z	; DataSend
  00173	83 c4 0c	 add	 esp, 12			; 0000000cH
$LN11@ApplyEleme:

; 877  : 
; 878  : 	MsgSendV2(lpObj, (LPBYTE)&pAttack, pAttack.h.size);	

  00176	0f b6 45 f1	 movzx	 eax, BYTE PTR _pAttack$[ebp+1]
  0017a	50		 push	 eax
  0017b	8d 45 f0	 lea	 eax, DWORD PTR _pAttack$[ebp]
  0017e	50		 push	 eax
  0017f	56		 push	 esi
  00180	e8 00 00 00 00	 call	 ?MsgSendV2@@YAXPAUOBJECTSTRUCT@@PAEH@Z ; MsgSendV2

; 879  : 
; 880  : 	LogAddC(2, "[%s] Warp [%d,%d] -> [%d,%d]", lpObj->Name, lpObj->X, lpObj->Y, x, y);

  00185	0f b6 c7	 movzx	 eax, bh
  00188	50		 push	 eax
  00189	0f b6 c3	 movzx	 eax, bl
  0018c	50		 push	 eax
  0018d	0f b6 86 21 01
	00 00		 movzx	 eax, BYTE PTR [esi+289]
  00194	50		 push	 eax
  00195	0f b6 86 20 01
	00 00		 movzx	 eax, BYTE PTR [esi+288]
  0019c	50		 push	 eax
  0019d	8d 46 5d	 lea	 eax, DWORD PTR [esi+93]
  001a0	50		 push	 eax
  001a1	68 00 00 00 00	 push	 OFFSET ??_C@_0BN@GBOPBGFB@?$FL?$CFs?$FN?5Warp?5?$FL?$CFd?0?$CFd?$FN?5?9?$DO?5?$FL?$CFd?0?$CFd?$FN?$AA@
  001a6	6a 02		 push	 2
  001a8	ff 15 00 00 00
	00		 call	 DWORD PTR ?LogAddC@@3P6AXEPADZZA ; LogAddC

; 881  : 
; 882  : 	gObjTeleportMagicUse(iIndex, x, y);

  001ae	ff 75 ec	 push	 DWORD PTR _y$[ebp]
  001b1	ff 75 e8	 push	 DWORD PTR _x$[ebp]
  001b4	ff 75 e4	 push	 DWORD PTR _iIndex$GSCopy$1$[ebp]
  001b7	e8 00 00 00 00	 call	 ?gObjTeleportMagicUse@@YAXHEE@Z ; gObjTeleportMagicUse
  001bc	83 c4 34	 add	 esp, 52			; 00000034H

; 883  : 	lpObj->TargetNumber = -1;

  001bf	83 c8 ff	 or	 eax, -1
  001c2	66 89 86 38 06
	00 00		 mov	 WORD PTR [esi+1592], ax
  001c9	5b		 pop	 ebx
$LN24@ApplyEleme:
  001ca	5e		 pop	 esi
$LN15@ApplyEleme:

; 884  : 
; 885  : 	return FALSE;
; 886  : }

  001cb	8b 4d fc	 mov	 ecx, DWORD PTR __$ArrayPad$[ebp]
  001ce	33 c0		 xor	 eax, eax
  001d0	33 cd		 xor	 ecx, ebp
  001d2	e8 00 00 00 00	 call	 @__security_check_cookie@4
  001d7	8b e5		 mov	 esp, ebp
  001d9	5d		 pop	 ebp
  001da	c2 08 00	 ret	 8
?ApplyElementTeleportSkill@TMonsterSkillElement@@QAEHHH@Z ENDP ; TMonsterSkillElement::ApplyElementTeleportSkill
_TEXT	ENDS
; Function compile flags: /Ogtp
; File c:\users\michel\desktop\source\gameserver\source\tmonsterskillelement.cpp
;	COMDAT ?ApplyElementImmuneSkill@TMonsterSkillElement@@QAEHHH@Z
_TEXT	SEGMENT
_iIndex$ = 8						; size = 4
_iTargetIndex$ = 12					; size = 4
?ApplyElementImmuneSkill@TMonsterSkillElement@@QAEHHH@Z PROC ; TMonsterSkillElement::ApplyElementImmuneSkill, COMDAT
; _this$ = ecx

; 805  : {

  00000	55		 push	 ebp
  00001	8b ec		 mov	 ebp, esp

; 806  : 	LPOBJ lpObj = &gObj[iIndex];
; 807  : 	LPOBJ lpTargetObj = &gObj[iTargetIndex];

  00003	69 55 0c 40 27
	00 00		 imul	 edx, DWORD PTR _iTargetIndex$[ebp], 10048

; 808  : 
; 809  : 	lpTargetObj->m_MonsterSkillElementInfo.m_iSkillElementImmuneNumber = this->m_iNullifiedSkill;

  0000a	8b 41 30	 mov	 eax, DWORD PTR [ecx+48]
  0000d	03 15 00 00 00
	00		 add	 edx, DWORD PTR ?gObj@@3PAUOBJECTSTRUCT@@A ; gObj
  00013	89 82 ac 20 00
	00		 mov	 DWORD PTR [edx+8364], eax

; 810  : 	lpTargetObj->m_MonsterSkillElementInfo.m_iSkillElementImmuneTime = this->m_iContinuanceTime;

  00019	8b 41 24	 mov	 eax, DWORD PTR [ecx+36]
  0001c	89 82 b0 20 00
	00		 mov	 DWORD PTR [edx+8368], eax

; 811  : 
; 812  : 	int Time = 0;
; 813  : 
; 814  : 	if( this->m_iContinuanceTime == -1 )

  00022	8b 41 24	 mov	 eax, DWORD PTR [ecx+36]
  00025	83 f8 ff	 cmp	 eax, -1
  00028	b9 f6 ff ff ff	 mov	 ecx, -10		; fffffff6H
  0002d	0f 44 c1	 cmove	 eax, ecx

; 815  : 	{
; 816  : 		Time = -10;
; 817  : 	}
; 818  : 	else
; 819  : 	{
; 820  : 		Time = m_iContinuanceTime;
; 821  : 	}
; 822  : 
; 823  : 	gObjAddBuffEffect(lpTargetObj,BUFF_MONSTERMAGIC_RESIST,0,0,0,0,Time);

  00030	50		 push	 eax
  00031	6a 00		 push	 0
  00033	6a 00		 push	 0
  00035	6a 00		 push	 0
  00037	6a 00		 push	 0
  00039	6a 3f		 push	 63			; 0000003fH
  0003b	52		 push	 edx
  0003c	e8 00 00 00 00	 call	 ?gObjAddBuffEffect@@YA_NPAUOBJECTSTRUCT@@HEHEHH@Z ; gObjAddBuffEffect
  00041	83 c4 1c	 add	 esp, 28			; 0000001cH

; 824  : 	return FALSE;

  00044	33 c0		 xor	 eax, eax

; 825  : }

  00046	5d		 pop	 ebp
  00047	c2 08 00	 ret	 8
?ApplyElementImmuneSkill@TMonsterSkillElement@@QAEHHH@Z ENDP ; TMonsterSkillElement::ApplyElementImmuneSkill
_TEXT	ENDS
; Function compile flags: /Ogtp
; File c:\users\michel\desktop\source\gameserver\source\tmonsterskillelement.cpp
;	COMDAT ?ApplyElementResistSkill@TMonsterSkillElement@@QAEHHH@Z
_TEXT	SEGMENT
_iIndex$ = 8						; size = 4
_iTargetIndex$ = 12					; size = 4
?ApplyElementResistSkill@TMonsterSkillElement@@QAEHHH@Z PROC ; TMonsterSkillElement::ApplyElementResistSkill, COMDAT
; _this$ = ecx

; 793  : {

  00000	55		 push	 ebp
  00001	8b ec		 mov	 ebp, esp

; 794  : 	LPOBJ lpObj = &gObj[iIndex];
; 795  : 	LPOBJ lpTargetObj = &gObj[iTargetIndex];

  00003	69 55 0c 40 27
	00 00		 imul	 edx, DWORD PTR _iTargetIndex$[ebp], 10048

; 796  : 
; 797  : 	lpTargetObj->m_MonsterSkillElementInfo.m_iSkillElementResistNumber = this->m_iNullifiedSkill;

  0000a	8b 41 30	 mov	 eax, DWORD PTR [ecx+48]
  0000d	03 15 00 00 00
	00		 add	 edx, DWORD PTR ?gObj@@3PAUOBJECTSTRUCT@@A ; gObj
  00013	89 82 b4 20 00
	00		 mov	 DWORD PTR [edx+8372], eax

; 798  : 	lpTargetObj->m_MonsterSkillElementInfo.m_iSkillElementResistTime = this->m_iContinuanceTime;

  00019	8b 41 24	 mov	 eax, DWORD PTR [ecx+36]
  0001c	89 82 b8 20 00
	00		 mov	 DWORD PTR [edx+8376], eax

; 799  : 
; 800  : 	return FALSE;

  00022	33 c0		 xor	 eax, eax

; 801  : }

  00024	5d		 pop	 ebp
  00025	c2 08 00	 ret	 8
?ApplyElementResistSkill@TMonsterSkillElement@@QAEHHH@Z ENDP ; TMonsterSkillElement::ApplyElementResistSkill
_TEXT	ENDS
; Function compile flags: /Ogtp
; File c:\users\michel\desktop\source\gameserver\source\tmonsterskillelement.cpp
;	COMDAT ?ApplyElementRemoveSkill@TMonsterSkillElement@@QAEHHH@Z
_TEXT	SEGMENT
_iIndex$ = 8						; size = 4
_iTargetIndex$ = 12					; size = 4
?ApplyElementRemoveSkill@TMonsterSkillElement@@QAEHHH@Z PROC ; TMonsterSkillElement::ApplyElementRemoveSkill, COMDAT
; _this$ = ecx

; 782  : {

  00000	55		 push	 ebp
  00001	8b ec		 mov	 ebp, esp

; 783  : 	LPOBJ lpObj = &gObj[iIndex];
; 784  : 	LPOBJ lpTargetObj = &gObj[iTargetIndex];

  00003	69 45 0c 40 27
	00 00		 imul	 eax, DWORD PTR _iTargetIndex$[ebp], 10048

; 785  : 
; 786  : 	gObjUseSkill.RemoveSpecificSkillState(lpTargetObj, this->m_iNullifiedSkill);

  0000a	ff 71 30	 push	 DWORD PTR [ecx+48]
  0000d	b9 00 00 00 00	 mov	 ecx, OFFSET ?gObjUseSkill@@3VCObjUseSkill@@A ; gObjUseSkill
  00012	03 05 00 00 00
	00		 add	 eax, DWORD PTR ?gObj@@3PAUOBJECTSTRUCT@@A ; gObj
  00018	50		 push	 eax
  00019	e8 00 00 00 00	 call	 ?RemoveSpecificSkillState@CObjUseSkill@@QAEHPAUOBJECTSTRUCT@@H@Z ; CObjUseSkill::RemoveSpecificSkillState

; 787  : 
; 788  : 	return FALSE;

  0001e	33 c0		 xor	 eax, eax

; 789  : }

  00020	5d		 pop	 ebp
  00021	c2 08 00	 ret	 8
?ApplyElementRemoveSkill@TMonsterSkillElement@@QAEHHH@Z ENDP ; TMonsterSkillElement::ApplyElementRemoveSkill
_TEXT	ENDS
; Function compile flags: /Ogtp
; File c:\users\michel\desktop\source\gameserver\source\tmonsterskillelement.cpp
;	COMDAT ?ApplyElementStatVitality@TMonsterSkillElement@@QAEHHH@Z
_TEXT	SEGMENT
_iIndex$ = 8						; size = 4
_iTargetIndex$ = 12					; size = 4
?ApplyElementStatVitality@TMonsterSkillElement@@QAEHHH@Z PROC ; TMonsterSkillElement::ApplyElementStatVitality, COMDAT
; _this$ = ecx

; 774  : 	LPOBJ lpObj = &gObj[iIndex];
; 775  : 	LPOBJ lpTargetObj = &gObj[iTargetIndex];
; 776  : 
; 777  : 	return FALSE;

  00000	33 c0		 xor	 eax, eax

; 778  : }

  00002	c2 08 00	 ret	 8
?ApplyElementStatVitality@TMonsterSkillElement@@QAEHHH@Z ENDP ; TMonsterSkillElement::ApplyElementStatVitality
_TEXT	ENDS
; Function compile flags: /Ogtp
; File c:\users\michel\desktop\source\gameserver\source\tmonsterskillelement.cpp
;	COMDAT ?ApplyElementStatDexiterity@TMonsterSkillElement@@QAEHHH@Z
_TEXT	SEGMENT
_iIndex$ = 8						; size = 4
_iTargetIndex$ = 12					; size = 4
?ApplyElementStatDexiterity@TMonsterSkillElement@@QAEHHH@Z PROC ; TMonsterSkillElement::ApplyElementStatDexiterity, COMDAT
; _this$ = ecx

; 766  : 	LPOBJ lpObj = &gObj[iIndex];
; 767  : 	LPOBJ lpTargetObj = &gObj[iTargetIndex];
; 768  : 
; 769  : 	return FALSE;

  00000	33 c0		 xor	 eax, eax

; 770  : }

  00002	c2 08 00	 ret	 8
?ApplyElementStatDexiterity@TMonsterSkillElement@@QAEHHH@Z ENDP ; TMonsterSkillElement::ApplyElementStatDexiterity
_TEXT	ENDS
; Function compile flags: /Ogtp
; File c:\users\michel\desktop\source\gameserver\source\tmonsterskillelement.cpp
;	COMDAT ?ApplyElementStatStrength@TMonsterSkillElement@@QAEHHH@Z
_TEXT	SEGMENT
_iIndex$ = 8						; size = 4
_iTargetIndex$ = 12					; size = 4
?ApplyElementStatStrength@TMonsterSkillElement@@QAEHHH@Z PROC ; TMonsterSkillElement::ApplyElementStatStrength, COMDAT
; _this$ = ecx

; 758  : 	LPOBJ lpObj = &gObj[iIndex];
; 759  : 	LPOBJ lpTargetObj = &gObj[iTargetIndex];
; 760  : 
; 761  : 	return FALSE;

  00000	33 c0		 xor	 eax, eax

; 762  : }

  00002	c2 08 00	 ret	 8
?ApplyElementStatStrength@TMonsterSkillElement@@QAEHHH@Z ENDP ; TMonsterSkillElement::ApplyElementStatStrength
_TEXT	ENDS
; Function compile flags: /Ogtp
; File c:\users\michel\desktop\source\gameserver\source\tmonsterskillelement.cpp
;	COMDAT ?ApplyElementStatEnergy@TMonsterSkillElement@@QAEHHH@Z
_TEXT	SEGMENT
_iIndex$ = 8						; size = 4
_iTargetIndex$ = 12					; size = 4
?ApplyElementStatEnergy@TMonsterSkillElement@@QAEHHH@Z PROC ; TMonsterSkillElement::ApplyElementStatEnergy, COMDAT
; _this$ = ecx

; 750  : 	LPOBJ lpObj = &gObj[iIndex];
; 751  : 	LPOBJ lpTargetObj = &gObj[iTargetIndex];
; 752  : 
; 753  : 	return FALSE;

  00000	33 c0		 xor	 eax, eax

; 754  : }

  00002	c2 08 00	 ret	 8
?ApplyElementStatEnergy@TMonsterSkillElement@@QAEHHH@Z ENDP ; TMonsterSkillElement::ApplyElementStatEnergy
_TEXT	ENDS
; Function compile flags: /Ogtp
; File c:\users\michel\desktop\source\gameserver\source\tmonsterskillelement.cpp
;	COMDAT ?ApplyElementPush@TMonsterSkillElement@@QAEHHH@Z
_TEXT	SEGMENT
_iIndex$ = 8						; size = 4
_iTargetIndex$ = 12					; size = 4
?ApplyElementPush@TMonsterSkillElement@@QAEHHH@Z PROC	; TMonsterSkillElement::ApplyElementPush, COMDAT
; _this$ = ecx

; 716  : {

  00000	55		 push	 ebp
  00001	8b ec		 mov	 ebp, esp
  00003	53		 push	 ebx

; 717  : 	LPOBJ lpObj = &gObj[iIndex];

  00004	8b 5d 08	 mov	 ebx, DWORD PTR _iIndex$[ebp]

; 718  : 	LPOBJ lpTargetObj = &gObj[iTargetIndex];
; 719  : 
; 720  : 	if ( lpObj->Class == 459 &&
; 721  : 		 lpObj->Connected == PLAYER_PLAYING &&
; 722  : 		 lpObj->MapNumber == MAP_INDEX_RAKLIONBOSS &&

  00007	b8 cb 01 00 00	 mov	 eax, 459		; 000001cbH
  0000c	69 d3 40 27 00
	00		 imul	 edx, ebx, 10048
  00012	56		 push	 esi
  00013	8b 75 0c	 mov	 esi, DWORD PTR _iTargetIndex$[ebp]
  00016	57		 push	 edi
  00017	69 fe 40 27 00
	00		 imul	 edi, esi, 10048
  0001d	03 15 00 00 00
	00		 add	 edx, DWORD PTR ?gObj@@3PAUOBJECTSTRUCT@@A ; gObj
  00023	03 3d 00 00 00
	00		 add	 edi, DWORD PTR ?gObj@@3PAUOBJECTSTRUCT@@A ; gObj
  00029	66 39 82 90 00
	00 00		 cmp	 WORD PTR [edx+144], ax
  00030	75 13		 jne	 SHORT $LN2@ApplyEleme
  00032	83 7a 04 03	 cmp	 DWORD PTR [edx+4], 3
  00036	75 0d		 jne	 SHORT $LN2@ApplyEleme
  00038	80 ba 23 01 00
	00 3a		 cmp	 BYTE PTR [edx+291], 58	; 0000003aH
  0003f	75 04		 jne	 SHORT $LN2@ApplyEleme
  00041	3b de		 cmp	 ebx, esi
  00043	74 44		 je	 SHORT $LN6@ApplyEleme
$LN2@ApplyEleme:

; 723  : 		 iIndex == iTargetIndex )
; 724  : 	{
; 725  : 		return false;
; 726  : 	}
; 727  : 
; 728  : 	if ( this->m_iNullifiedSkill == -1 )

  00045	83 79 30 ff	 cmp	 DWORD PTR [ecx+48], -1
  00049	75 07		 jne	 SHORT $LN3@ApplyEleme

; 729  : 		this->m_iNullifiedSkill = 0;

  0004b	c7 41 30 00 00
	00 00		 mov	 DWORD PTR [ecx+48], 0
$LN3@ApplyEleme:

; 730  : 
; 731  : 	if ( this->m_iIncAndDecValue < 1 )

  00052	83 79 2c 01	 cmp	 DWORD PTR [ecx+44], 1
  00056	7d 07		 jge	 SHORT $LN4@ApplyEleme

; 732  : 		this->m_iIncAndDecValue = 3;

  00058	c7 41 2c 03 00
	00 00		 mov	 DWORD PTR [ecx+44], 3
$LN4@ApplyEleme:

; 733  : 
; 734  : 	if ( this->m_iNullifiedSkill == 0 )

  0005f	8b 41 30	 mov	 eax, DWORD PTR [ecx+48]

; 735  : 	{
; 736  : 		gObjBackSpring2(lpTargetObj, lpObj,this->m_iIncAndDecValue);

  00062	ff 71 2c	 push	 DWORD PTR [ecx+44]
  00065	85 c0		 test	 eax, eax
  00067	75 13		 jne	 SHORT $LN5@ApplyEleme
  00069	52		 push	 edx
  0006a	57		 push	 edi
  0006b	e8 00 00 00 00	 call	 ?gObjBackSpring2@@YAHPAUOBJECTSTRUCT@@0H@Z ; gObjBackSpring2
  00070	83 c4 0c	 add	 esp, 12			; 0000000cH

; 741  : 	}
; 742  : 
; 743  : 	return FALSE;

  00073	33 c0		 xor	 eax, eax
  00075	5f		 pop	 edi
  00076	5e		 pop	 esi
  00077	5b		 pop	 ebx

; 744  : }

  00078	5d		 pop	 ebp
  00079	c2 08 00	 ret	 8
$LN5@ApplyEleme:

; 737  : 	}
; 738  : 	else
; 739  : 	{
; 740  : 		gObjAddMsgSendDelay(lpObj, 57, iTargetIndex, this->m_iNullifiedSkill, this->m_iIncAndDecValue);

  0007c	50		 push	 eax
  0007d	56		 push	 esi
  0007e	6a 39		 push	 57			; 00000039H
  00080	52		 push	 edx
  00081	e8 00 00 00 00	 call	 ?gObjAddMsgSendDelay@@YAXPAUOBJECTSTRUCT@@HHHH@Z ; gObjAddMsgSendDelay
  00086	83 c4 14	 add	 esp, 20			; 00000014H
$LN6@ApplyEleme:

; 741  : 	}
; 742  : 
; 743  : 	return FALSE;

  00089	5f		 pop	 edi
  0008a	5e		 pop	 esi
  0008b	33 c0		 xor	 eax, eax
  0008d	5b		 pop	 ebx

; 744  : }

  0008e	5d		 pop	 ebp
  0008f	c2 08 00	 ret	 8
?ApplyElementPush@TMonsterSkillElement@@QAEHHH@Z ENDP	; TMonsterSkillElement::ApplyElementPush
_TEXT	ENDS
; Function compile flags: /Ogtp
; File c:\users\michel\desktop\source\gameserver\source\tmonsterskillelement.cpp
;	COMDAT ?ApplyElementSummon@TMonsterSkillElement@@QAEHHH@Z
_TEXT	SEGMENT
tv677 = -8						; size = 4
_this$1$ = -4						; size = 4
tv668 = 8						; size = 4
_iIndex$ = 8						; size = 4
_iCount$1$ = 12						; size = 4
_iTargetIndex$ = 12					; size = 4
?ApplyElementSummon@TMonsterSkillElement@@QAEHHH@Z PROC	; TMonsterSkillElement::ApplyElementSummon, COMDAT
; _this$ = ecx

; 616  : {

  00000	55		 push	 ebp
  00001	8b ec		 mov	 ebp, esp
  00003	83 ec 08	 sub	 esp, 8

; 617  : 	LPOBJ lpObj = &gObj[iIndex];
; 618  : 	LPOBJ lpTargetObj = &gObj[iTargetIndex];

  00006	8b 55 0c	 mov	 edx, DWORD PTR _iTargetIndex$[ebp]

; 619  : 
; 620  : 	if( lpObj->Class == 459 &&
; 621  : 		lpObj->Connected == PLAYER_PLAYING &&
; 622  : 		lpObj->MapNumber == MAP_INDEX_RAKLIONBOSS &&

  00009	b8 cb 01 00 00	 mov	 eax, 459		; 000001cbH
  0000e	53		 push	 ebx
  0000f	56		 push	 esi
  00010	8b d9		 mov	 ebx, ecx
  00012	69 f2 40 27 00
	00		 imul	 esi, edx, 10048
  00018	8b 4d 08	 mov	 ecx, DWORD PTR _iIndex$[ebp]
  0001b	57		 push	 edi
  0001c	69 f9 40 27 00
	00		 imul	 edi, ecx, 10048
  00022	89 5d fc	 mov	 DWORD PTR _this$1$[ebp], ebx
  00025	03 35 00 00 00
	00		 add	 esi, DWORD PTR ?gObj@@3PAUOBJECTSTRUCT@@A ; gObj
  0002b	03 3d 00 00 00
	00		 add	 edi, DWORD PTR ?gObj@@3PAUOBJECTSTRUCT@@A ; gObj
  00031	66 39 87 90 00
	00 00		 cmp	 WORD PTR [edi+144], ax
  00038	75 2c		 jne	 SHORT $LN7@ApplyEleme
  0003a	83 7f 04 03	 cmp	 DWORD PTR [edi+4], 3
  0003e	75 26		 jne	 SHORT $LN7@ApplyEleme
  00040	80 bf 23 01 00
	00 3a		 cmp	 BYTE PTR [edi+291], 58	; 0000003aH
  00047	75 1d		 jne	 SHORT $LN7@ApplyEleme
  00049	3b ca		 cmp	 ecx, edx
  0004b	75 19		 jne	 SHORT $LN7@ApplyEleme

; 623  : 		iIndex == iTargetIndex)
; 624  : 	{
; 625  : 		LogAddTD("[TMonsterSkillElement][ApplyElementSummon] Selupan use summon.");

  0004d	68 00 00 00 00	 push	 OFFSET ??_C@_0DP@PHICBOGE@?$FLTMonsterSkillElement?$FN?$FLApplyElem@
  00052	ff 15 00 00 00
	00		 call	 DWORD PTR ?LogAddTD@@3P6AXPADZZA ; LogAddTD

; 708  : 	gObjViewportListCreate(lpTargetObj->m_Index);

  00058	83 c4 04	 add	 esp, 4
  0005b	33 c0		 xor	 eax, eax
  0005d	5f		 pop	 edi
  0005e	5e		 pop	 esi
  0005f	5b		 pop	 ebx

; 709  : 
; 710  : 	return FALSE;
; 711  : }

  00060	8b e5		 mov	 esp, ebp
  00062	5d		 pop	 ebp
  00063	c2 08 00	 ret	 8
$LN7@ApplyEleme:

; 626  : 		return FALSE;
; 627  : 	}
; 628  : 
; 629  : 	if ( lpTargetObj->Connected < PLAYER_PLAYING ||

  00066	83 7e 04 03	 cmp	 DWORD PTR [esi+4], 3
  0006a	0f 8c 65 02 00
	00		 jl	 $LN9@ApplyEleme
  00070	80 7e 50 02	 cmp	 BYTE PTR [esi+80], 2
  00074	0f 85 5b 02 00
	00		 jne	 $LN9@ApplyEleme

; 632  : 
; 633  : 	lpTargetObj->Life = lpTargetObj->MaxLife + lpTargetObj->AddLife;

  0007a	66 0f 6e 86 24
	01 00 00	 movd	 xmm0, DWORD PTR [esi+292]
  00082	0f 5b c0	 cvtdq2ps xmm0, xmm0

; 634  : 	lpTargetObj->Mana = lpTargetObj->MaxMana + lpTargetObj->AddMana;
; 635  : 	lpTargetObj->Live = TRUE;
; 636  : 
; 637  : 	gObjRemoveBuffEffect(lpTargetObj,BUFF_POISON);

  00085	6a 37		 push	 55			; 00000037H
  00087	56		 push	 esi
  00088	c6 46 51 01	 mov	 BYTE PTR [esi+81], 1
  0008c	f3 0f 58 86 dc
	00 00 00	 addss	 xmm0, DWORD PTR [esi+220]
  00094	f3 0f 11 86 d8
	00 00 00	 movss	 DWORD PTR [esi+216], xmm0
  0009c	66 0f 6e 86 28
	01 00 00	 movd	 xmm0, DWORD PTR [esi+296]
  000a4	0f 5b c0	 cvtdq2ps xmm0, xmm0
  000a7	f3 0f 58 86 f0
	00 00 00	 addss	 xmm0, DWORD PTR [esi+240]
  000af	f3 0f 11 86 ec
	00 00 00	 movss	 DWORD PTR [esi+236], xmm0
  000b7	e8 00 00 00 00	 call	 ?gObjRemoveBuffEffect@@YA_NPAUOBJECTSTRUCT@@H@Z ; gObjRemoveBuffEffect

; 638  : 	gObjRemoveBuffEffect(lpTargetObj,BUFF_ICE);

  000bc	6a 38		 push	 56			; 00000038H
  000be	56		 push	 esi
  000bf	e8 00 00 00 00	 call	 ?gObjRemoveBuffEffect@@YA_NPAUOBJECTSTRUCT@@H@Z ; gObjRemoveBuffEffect

; 639  : 	gObjRemoveBuffEffect(lpTargetObj,BUFF_ICEARROW);

  000c4	6a 39		 push	 57			; 00000039H
  000c6	56		 push	 esi
  000c7	e8 00 00 00 00	 call	 ?gObjRemoveBuffEffect@@YA_NPAUOBJECTSTRUCT@@H@Z ; gObjRemoveBuffEffect

; 640  : 
; 641  : 	lpTargetObj->m_ViewState = 0;
; 642  : 	lpTargetObj->Teleport = 0;
; 643  : 
; 644  : 	gObjClearBuffEffect(lpTargetObj,CLEAR_TYPE_LOGOUT);

  000cc	6a 02		 push	 2
  000ce	56		 push	 esi
  000cf	c6 86 d5 01 00
	00 00		 mov	 BYTE PTR [esi+469], 0
  000d6	c6 86 88 05 00
	00 00		 mov	 BYTE PTR [esi+1416], 0
  000dd	e8 00 00 00 00	 call	 ?gObjClearBuffEffect@@YA_NPAUOBJECTSTRUCT@@W4eBuffClearType@@@Z ; gObjClearBuffEffect

; 645  : 
; 646  : 	for ( int i=0;i<MAX_SELF_DEFENSE;i++)
; 647  : 		lpTargetObj->SelfDefenseTime[i] = 0;
; 648  : 
; 649  : 	gObjTimeCheckSelfDefense(lpTargetObj);

  000e2	56		 push	 esi
  000e3	c7 86 e0 05 00
	00 00 00 00 00	 mov	 DWORD PTR [esi+1504], 0
  000ed	c7 86 e4 05 00
	00 00 00 00 00	 mov	 DWORD PTR [esi+1508], 0
  000f7	c7 86 e8 05 00
	00 00 00 00 00	 mov	 DWORD PTR [esi+1512], 0
  00101	c7 86 ec 05 00
	00 00 00 00 00	 mov	 DWORD PTR [esi+1516], 0
  0010b	c7 86 f0 05 00
	00 00 00 00 00	 mov	 DWORD PTR [esi+1520], 0
  00115	c7 86 f4 05 00
	00 00 00 00 00	 mov	 DWORD PTR [esi+1524], 0
  0011f	c7 86 f8 05 00
	00 00 00 00 00	 mov	 DWORD PTR [esi+1528], 0
  00129	e8 00 00 00 00	 call	 ?gObjTimeCheckSelfDefense@@YAXPAUOBJECTSTRUCT@@@Z ; gObjTimeCheckSelfDefense

; 650  : 	gObjViewportListProtocolDestroy(lpTargetObj);

  0012e	56		 push	 esi
  0012f	e8 00 00 00 00	 call	 ?gObjViewportListProtocolDestroy@@YAXPAUOBJECTSTRUCT@@@Z ; gObjViewportListProtocolDestroy

; 651  : 	gObjViewportClose(lpTargetObj);

  00134	56		 push	 esi
  00135	e8 00 00 00 00	 call	 ?gObjViewportClose@@YAXPAUOBJECTSTRUCT@@@Z ; gObjViewportClose

; 652  : 	lpTargetObj->m_ActState.Attack = 0;

  0013a	83 a6 c8 01 00
	00 fd		 and	 DWORD PTR [esi+456], -3	; fffffffdH

; 653  : 	lpTargetObj->m_ActState.EmotionCount = 0;
; 654  : 	lpTargetObj->m_ActState.Escape = 0;
; 655  : 	lpTargetObj->m_ActState.Move = 0;
; 656  : 	lpTargetObj->m_ActState.Rest = 0;
; 657  : 	lpTargetObj->m_ActState.Emotion = 0;
; 658  : 	lpTargetObj->TargetNumber = -1;

  00141	83 c8 ff	 or	 eax, -1
  00144	c6 86 c9 01 00
	00 00		 mov	 BYTE PTR [esi+457], 0
  0014b	83 c4 2c	 add	 esp, 44			; 0000002cH
  0014e	81 a6 c8 01 00
	00 02 ff ff ff	 and	 DWORD PTR [esi+456], -254 ; ffffff02H
  00158	66 89 86 38 06
	00 00		 mov	 WORD PTR [esi+1592], ax

; 659  : 	lpTargetObj->NextActionTime = 5000;

  0015f	c7 86 a0 05 00
	00 88 13 00 00	 mov	 DWORD PTR [esi+1440], 5000 ; 00001388H

; 660  : 
; 661  : 	if ( this->m_iIncAndDecValue < 0 )

  00169	83 7b 2c 00	 cmp	 DWORD PTR [ebx+44], 0
  0016d	7d 07		 jge	 SHORT $LN10@ApplyEleme

; 662  : 		this->m_iIncAndDecValue = 10;

  0016f	c7 43 2c 0a 00
	00 00		 mov	 DWORD PTR [ebx+44], 10	; 0000000aH
$LN10@ApplyEleme:

; 663  : 
; 664  : 	BYTE cX;
; 665  : 	BYTE cY;
; 666  : 	BOOL bGetPosition = FALSE;
; 667  : 	int iCount = 100;

  00176	b8 64 00 00 00	 mov	 eax, 100		; 00000064H
  0017b	0f 1f 44 00 00	 npad	 5
$LL5@ApplyEleme:

; 668  : 
; 669  : 
; 670  : 	while ( iCount-- != 0 )

  00180	48		 dec	 eax
  00181	89 45 0c	 mov	 DWORD PTR _iCount$1$[ebp], eax

; 671  : 	{
; 672  : 		cX = ( rand() % (this->m_iIncAndDecValue+1) ) * (((rand()%2==0)?-1:1)) + lpObj->X;

  00184	e8 00 00 00 00	 call	 _rand
  00189	8b 4b 2c	 mov	 ecx, DWORD PTR [ebx+44]
  0018c	41		 inc	 ecx
  0018d	99		 cdq
  0018e	f7 f9		 idiv	 ecx
  00190	8b da		 mov	 ebx, edx
  00192	e8 00 00 00 00	 call	 _rand
  00197	25 01 00 00 80	 and	 eax, -2147483647	; 80000001H
  0019c	79 05		 jns	 SHORT $LN31@ApplyEleme
  0019e	48		 dec	 eax
  0019f	83 c8 fe	 or	 eax, -2			; fffffffeH
  001a2	40		 inc	 eax
$LN31@ApplyEleme:
  001a3	f7 d8		 neg	 eax
  001a5	0f b6 cb	 movzx	 ecx, bl
  001a8	1a c0		 sbb	 al, al
  001aa	24 02		 and	 al, 2
  001ac	fe c8		 dec	 al
  001ae	0f b6 c0	 movzx	 eax, al
  001b1	0f af c1	 imul	 eax, ecx
  001b4	02 87 20 01 00
	00		 add	 al, BYTE PTR [edi+288]
  001ba	89 45 08	 mov	 DWORD PTR tv668[ebp], eax

; 673  : 		cY = ( rand() % (this->m_iIncAndDecValue+1) ) * (((rand()%2==0)?-1:1)) + lpObj->Y;

  001bd	e8 00 00 00 00	 call	 _rand
  001c2	8b 4d fc	 mov	 ecx, DWORD PTR _this$1$[ebp]
  001c5	99		 cdq
  001c6	8b 49 2c	 mov	 ecx, DWORD PTR [ecx+44]
  001c9	41		 inc	 ecx
  001ca	f7 f9		 idiv	 ecx
  001cc	8b da		 mov	 ebx, edx
  001ce	e8 00 00 00 00	 call	 _rand
  001d3	25 01 00 00 80	 and	 eax, -2147483647	; 80000001H
  001d8	79 05		 jns	 SHORT $LN32@ApplyEleme
  001da	48		 dec	 eax
  001db	83 c8 fe	 or	 eax, -2			; fffffffeH
  001de	40		 inc	 eax
$LN32@ApplyEleme:
  001df	f7 d8		 neg	 eax
  001e1	0f b6 cb	 movzx	 ecx, bl

; 674  : 
; 675  : 		BYTE btMapAttr = MapC[lpObj->MapNumber].GetAttr(cX, cY);

  001e4	8b 5d 08	 mov	 ebx, DWORD PTR tv668[ebp]
  001e7	1a c0		 sbb	 al, al
  001e9	24 02		 and	 al, 2
  001eb	fe c8		 dec	 al
  001ed	0f b6 c0	 movzx	 eax, al
  001f0	0f af c1	 imul	 eax, ecx
  001f3	02 87 21 01 00
	00		 add	 al, BYTE PTR [edi+289]
  001f9	89 45 f8	 mov	 DWORD PTR tv677[ebp], eax
  001fc	0f b6 c0	 movzx	 eax, al
  001ff	50		 push	 eax
  00200	0f b6 c3	 movzx	 eax, bl
  00203	50		 push	 eax
  00204	0f b6 87 23 01
	00 00		 movzx	 eax, BYTE PTR [edi+291]
  0020b	69 c8 28 38 05
	00		 imul	 ecx, eax, 342056
  00211	81 c1 00 00 00
	00		 add	 ecx, OFFSET ?MapC@@3PAVMapClass@@A ; MapC
  00217	e8 00 00 00 00	 call	 ?GetAttr@MapClass@@QAEEHH@Z ; MapClass::GetAttr

; 676  : 
; 677  : 		if ( btMapAttr == 0 )

  0021c	84 c0		 test	 al, al
  0021e	74 3a		 je	 SHORT $LN12@ApplyEleme

; 668  : 
; 669  : 
; 670  : 	while ( iCount-- != 0 )

  00220	8b 45 0c	 mov	 eax, DWORD PTR _iCount$1$[ebp]
  00223	8b 5d fc	 mov	 ebx, DWORD PTR _this$1$[ebp]
  00226	85 c0		 test	 eax, eax
  00228	0f 85 52 ff ff
	ff		 jne	 $LL5@ApplyEleme

; 678  : 		{
; 679  : 			bGetPosition = TRUE;
; 680  : 			break;
; 681  : 		}
; 682  : 	}
; 683  : 
; 684  : 	if ( bGetPosition == FALSE )
; 685  : 	{
; 686  : 		lpObj->Live = FALSE;

  0022e	c6 47 51 00	 mov	 BYTE PTR [edi+81], 0

; 687  : 		lpObj->m_State = 4;

  00232	c7 87 d0 01 00
	00 04 00 00 00	 mov	 DWORD PTR [edi+464], 4

; 688  : 		lpObj->RegenTime = GetTickCount();

  0023c	ff 15 00 00 00
	00		 call	 DWORD PTR __imp__GetTickCount@0
  00242	89 87 90 05 00
	00		 mov	 DWORD PTR [edi+1424], eax
  00248	33 c0		 xor	 eax, eax

; 689  : 		lpObj->DieRegen = 1;

  0024a	c6 87 8a 05 00
	00 01		 mov	 BYTE PTR [edi+1418], 1
  00251	5f		 pop	 edi
  00252	5e		 pop	 esi
  00253	5b		 pop	 ebx

; 709  : 
; 710  : 	return FALSE;
; 711  : }

  00254	8b e5		 mov	 esp, ebp
  00256	5d		 pop	 ebp
  00257	c2 08 00	 ret	 8
$LN12@ApplyEleme:

; 690  : 
; 691  : 		return FALSE;
; 692  : 	}
; 693  : 
; 694  : 	lpTargetObj->X = cX;
; 695  : 	lpTargetObj->Y = cY;

  0025a	8b 45 f8	 mov	 eax, DWORD PTR tv677[ebp]

; 696  : 	lpTargetObj->MTX = lpTargetObj->X;
; 697  : 	lpTargetObj->MTY = lpTargetObj->Y;
; 698  : 	lpTargetObj->TX = lpTargetObj->X;
; 699  : 	lpTargetObj->TY = lpTargetObj->Y;
; 700  : 	lpTargetObj->StartX = lpTargetObj->X;
; 701  : 	lpTargetObj->StartY = lpTargetObj->Y;
; 702  : 
; 703  : 	gObjMonsterHitDamageInit(lpTargetObj);

  0025d	56		 push	 esi
  0025e	88 9e 20 01 00
	00		 mov	 BYTE PTR [esi+288], bl
  00264	88 86 21 01 00
	00		 mov	 BYTE PTR [esi+289], al
  0026a	88 9e 54 01 00
	00		 mov	 BYTE PTR [esi+340], bl
  00270	88 86 55 01 00
	00		 mov	 BYTE PTR [esi+341], al
  00276	88 9e 52 01 00
	00		 mov	 BYTE PTR [esi+338], bl
  0027c	88 86 53 01 00
	00		 mov	 BYTE PTR [esi+339], al
  00282	88 9e 4e 01 00
	00		 mov	 BYTE PTR [esi+334], bl
  00288	88 86 4f 01 00
	00		 mov	 BYTE PTR [esi+335], al
  0028e	e8 00 00 00 00	 call	 ?gObjMonsterHitDamageInit@@YAXPAUOBJECTSTRUCT@@@Z ; gObjMonsterHitDamageInit

; 704  : 	CreateFrustrum(lpTargetObj->X, lpTargetObj->Y, lpTargetObj->m_Index);

  00293	ff 36		 push	 DWORD PTR [esi]
  00295	0f b6 86 21 01
	00 00		 movzx	 eax, BYTE PTR [esi+289]
  0029c	50		 push	 eax
  0029d	0f b6 86 20 01
	00 00		 movzx	 eax, BYTE PTR [esi+288]
  002a4	50		 push	 eax
  002a5	e8 00 00 00 00	 call	 ?CreateFrustrum@@YAXHHH@Z ; CreateFrustrum
  002aa	83 c4 10	 add	 esp, 16			; 00000010H

; 705  : 	lpTargetObj->DieRegen = 0;

  002ad	c6 86 8a 05 00
	00 00		 mov	 BYTE PTR [esi+1418], 0

; 706  : 	lpTargetObj->m_State = 1;
; 707  : 	lpTargetObj->m_Agro.ResetAll();

  002b4	8d 8e ec 20 00
	00		 lea	 ecx, DWORD PTR [esi+8428]
  002ba	c7 86 d0 01 00
	00 01 00 00 00	 mov	 DWORD PTR [esi+464], 1
  002c4	e8 00 00 00 00	 call	 ?ResetAll@TMonsterAIAgro@@QAEXXZ ; TMonsterAIAgro::ResetAll

; 708  : 	gObjViewportListCreate(lpTargetObj->m_Index);

  002c9	0f b7 06	 movzx	 eax, WORD PTR [esi]
  002cc	50		 push	 eax
  002cd	e8 00 00 00 00	 call	 ?gObjViewportListCreate@@YAXF@Z ; gObjViewportListCreate
  002d2	83 c4 04	 add	 esp, 4
$LN9@ApplyEleme:

; 630  : 		 lpTargetObj->Type != OBJ_MONSTER )
; 631  : 		 return FALSE;

  002d5	5f		 pop	 edi
  002d6	5e		 pop	 esi
  002d7	33 c0		 xor	 eax, eax
  002d9	5b		 pop	 ebx

; 709  : 
; 710  : 	return FALSE;
; 711  : }

  002da	8b e5		 mov	 esp, ebp
  002dc	5d		 pop	 ebp
  002dd	c2 08 00	 ret	 8
?ApplyElementSummon@TMonsterSkillElement@@QAEHHH@Z ENDP	; TMonsterSkillElement::ApplyElementSummon
_TEXT	ENDS
; Function compile flags: /Ogtp
; File c:\users\michel\desktop\source\gameserver\source\tmonsterskillelement.cpp
;	COMDAT ?ApplyElementDurability@TMonsterSkillElement@@QAEHHH@Z
_TEXT	SEGMENT
_this$1$ = -4						; size = 4
_iIndex$ = 8						; size = 4
_iEquipmentPos$1$ = 12					; size = 4
_iTargetIndex$ = 12					; size = 4
?ApplyElementDurability@TMonsterSkillElement@@QAEHHH@Z PROC ; TMonsterSkillElement::ApplyElementDurability, COMDAT
; _this$ = ecx

; 563  : {

  00000	55		 push	 ebp
  00001	8b ec		 mov	 ebp, esp
  00003	51		 push	 ecx
  00004	57		 push	 edi

; 564  : 	LPOBJ lpObj = &gObj[iIndex];
; 565  : 	LPOBJ lpTargetObj = &gObj[iTargetIndex];

  00005	69 7d 0c 40 27
	00 00		 imul	 edi, DWORD PTR _iTargetIndex$[ebp], 10048
  0000c	89 4d fc	 mov	 DWORD PTR _this$1$[ebp], ecx
  0000f	03 3d 00 00 00
	00		 add	 edi, DWORD PTR ?gObj@@3PAUOBJECTSTRUCT@@A ; gObj

; 566  : 
; 567  : 	if ( lpTargetObj->Type != OBJ_USER )

  00015	80 7f 50 01	 cmp	 BYTE PTR [edi+80], 1
  00019	0f 85 c5 00 00
	00		 jne	 $LN17@ApplyEleme

; 568  : 		return FALSE;
; 569  : 
; 570  : 	int iEquipmentPos = rand()%6+2;	// Armors

  0001f	56		 push	 esi
  00020	e8 00 00 00 00	 call	 _rand
  00025	99		 cdq
  00026	b9 06 00 00 00	 mov	 ecx, 6
  0002b	f7 f9		 idiv	 ecx
  0002d	8d 42 02	 lea	 eax, DWORD PTR [edx+2]

; 571  : 	CItem * lpEquipment = &lpTargetObj->pInventory[iEquipmentPos];

  00030	69 f0 d4 00 00
	00		 imul	 esi, eax, 212
  00036	89 45 0c	 mov	 DWORD PTR _iEquipmentPos$1$[ebp], eax
  00039	03 b7 c0 11 00
	00		 add	 esi, DWORD PTR [edi+4544]

; 572  : 
; 573  : 	if ( lpEquipment == NULL || lpEquipment->IsItem() == FALSE || lpEquipment->m_bLuckySet )

  0003f	0f 84 9e 00 00
	00		 je	 $LN4@ApplyEleme
  00045	8b ce		 mov	 ecx, esi
  00047	e8 00 00 00 00	 call	 ?IsItem@CItem@@QAEHXZ	; CItem::IsItem
  0004c	85 c0		 test	 eax, eax
  0004e	0f 84 8f 00 00
	00		 je	 $LN4@ApplyEleme
  00054	80 be ce 00 00
	00 00		 cmp	 BYTE PTR [esi+206], 0
  0005b	0f 85 82 00 00
	00		 jne	 $LN4@ApplyEleme

; 575  : 
; 576  : 	int iDurEquipment = (int)lpEquipment->m_Durability;
; 577  : 	int iIncDecValue = 0;
; 578  : 
; 579  : 	if ( this->m_iIncAndDecType != MSE_INCDEC_TYPE_NONE )

  00061	8b 4d fc	 mov	 ecx, DWORD PTR _this$1$[ebp]
  00064	33 c0		 xor	 eax, eax
  00066	f3 0f 2c 56 24	 cvttss2si edx, DWORD PTR [esi+36]
  0006b	53		 push	 ebx
  0006c	8b 59 28	 mov	 ebx, DWORD PTR [ecx+40]
  0006f	85 db		 test	 ebx, ebx
  00071	74 3a		 je	 SHORT $LN9@ApplyEleme

; 580  : 	{
; 581  : 		if ( this->m_iIncAndDecType < MSE_INCDEC_TYPE_CONSTANTINC )

  00073	83 fb 0b	 cmp	 ebx, 11			; 0000000bH
  00076	7d 2b		 jge	 SHORT $LN16@ApplyEleme

; 582  : 		{
; 583  : 			iIncDecValue = iDurEquipment * this->m_iIncAndDecValue / 100;

  00078	8b 49 2c	 mov	 ecx, DWORD PTR [ecx+44]
  0007b	b8 1f 85 eb 51	 mov	 eax, 1374389535		; 51eb851fH
  00080	0f af ca	 imul	 ecx, edx
  00083	f7 e9		 imul	 ecx
  00085	8b 4d fc	 mov	 ecx, DWORD PTR _this$1$[ebp]
  00088	c1 fa 05	 sar	 edx, 5
  0008b	8b c2		 mov	 eax, edx
  0008d	c1 e8 1f	 shr	 eax, 31			; 0000001fH
  00090	03 c2		 add	 eax, edx
  00092	f3 0f 2c 56 24	 cvttss2si edx, DWORD PTR [esi+36]

; 584  : 
; 585  : 			if ( this->m_iIncAndDecType == MSE_INCDEC_TYPE_PERCENTDEC )

  00097	83 fb 02	 cmp	 ebx, 2
  0009a	75 02		 jne	 SHORT $LN7@ApplyEleme

; 586  : 				iIncDecValue = -iIncDecValue;

  0009c	f7 d8		 neg	 eax
$LN7@ApplyEleme:

; 587  : 		}	
; 588  : 
; 589  : 		if ( this->m_iIncAndDecType >= MSE_INCDEC_TYPE_CONSTANTINC )

  0009e	83 fb 0b	 cmp	 ebx, 11			; 0000000bH
  000a1	7c 0a		 jl	 SHORT $LN9@ApplyEleme
$LN16@ApplyEleme:

; 590  : 		{
; 591  : 			iIncDecValue = this->m_iIncAndDecValue;

  000a3	8b 41 2c	 mov	 eax, DWORD PTR [ecx+44]

; 592  : 
; 593  : 			if ( this->m_iIncAndDecType == MSE_INCDEC_TYPE_CONSTANTDEC )

  000a6	83 fb 0c	 cmp	 ebx, 12			; 0000000cH
  000a9	75 02		 jne	 SHORT $LN9@ApplyEleme

; 594  : 				iIncDecValue = -iIncDecValue;

  000ab	f7 d8		 neg	 eax
$LN9@ApplyEleme:

; 595  : 		}
; 596  : 	}
; 597  : 
; 598  : 	iDurEquipment += iIncDecValue;

  000ad	03 c2		 add	 eax, edx
  000af	0f 57 c0	 xorps	 xmm0, xmm0
  000b2	5b		 pop	 ebx
  000b3	66 0f 6e c8	 movd	 xmm1, eax

; 599  : 
; 600  : 	if ( lpEquipment )
; 601  : 	{
; 602  : 		lpEquipment->m_Durability = (float)iDurEquipment;

  000b7	0f 5b c9	 cvtdq2ps xmm1, xmm1

; 603  : 
; 604  : 		if ( lpEquipment->m_Durability < 0.0f )

  000ba	0f 2f c1	 comiss	 xmm0, xmm1
  000bd	f3 0f 11 4e 24	 movss	 DWORD PTR [esi+36], xmm1
  000c2	76 07		 jbe	 SHORT $LN11@ApplyEleme

; 605  : 			lpEquipment->m_Durability = 0;

  000c4	c7 46 24 00 00
	00 00		 mov	 DWORD PTR [esi+36], 0
$LN11@ApplyEleme:

; 606  : 
; 607  : 		GCItemDurSend(lpTargetObj->m_Index, iEquipmentPos, (BYTE)lpEquipment->m_Durability, 0);

  000cb	f3 0f 2c 46 24	 cvttss2si eax, DWORD PTR [esi+36]
  000d0	6a 00		 push	 0
  000d2	0f b6 c0	 movzx	 eax, al
  000d5	50		 push	 eax
  000d6	ff 75 0c	 push	 DWORD PTR _iEquipmentPos$1$[ebp]
  000d9	ff 37		 push	 DWORD PTR [edi]
  000db	e8 00 00 00 00	 call	 ?GCItemDurSend@@YAXHEEE@Z ; GCItemDurSend
  000e0	83 c4 10	 add	 esp, 16			; 00000010H
$LN4@ApplyEleme:
  000e3	5e		 pop	 esi
$LN17@ApplyEleme:

; 574  : 		return FALSE;

  000e4	33 c0		 xor	 eax, eax
  000e6	5f		 pop	 edi

; 608  : 	}
; 609  : 
; 610  : 	return FALSE;
; 611  : }

  000e7	8b e5		 mov	 esp, ebp
  000e9	5d		 pop	 ebp
  000ea	c2 08 00	 ret	 8
?ApplyElementDurability@TMonsterSkillElement@@QAEHHH@Z ENDP ; TMonsterSkillElement::ApplyElementDurability
_TEXT	ENDS
; Function compile flags: /Ogtp
; File c:\users\michel\desktop\source\gameserver\source\tmonsterskillelement.cpp
;	COMDAT ?ApplyElementAttack@TMonsterSkillElement@@QAEHHH@Z
_TEXT	SEGMENT
_this$1$ = -4						; size = 4
_iIndex$ = 8						; size = 4
_iTargetIndex$ = 12					; size = 4
?ApplyElementAttack@TMonsterSkillElement@@QAEHHH@Z PROC	; TMonsterSkillElement::ApplyElementAttack, COMDAT
; _this$ = ecx

; 530  : {

  00000	55		 push	 ebp
  00001	8b ec		 mov	 ebp, esp
  00003	51		 push	 ecx
  00004	53		 push	 ebx

; 531  : 	LPOBJ lpObj = &gObj[iIndex];
; 532  : 	LPOBJ lpTargetObj = &gObj[iTargetIndex];

  00005	69 5d 0c 40 27
	00 00		 imul	 ebx, DWORD PTR _iTargetIndex$[ebp], 10048
  0000c	8b c1		 mov	 eax, ecx
  0000e	56		 push	 esi
  0000f	57		 push	 edi

; 533  : 	int iIncDecValue = 0;

  00010	33 f6		 xor	 esi, esi
  00012	89 45 fc	 mov	 DWORD PTR _this$1$[ebp], eax

; 534  : 
; 535  : 	if ( this->m_iIncAndDecType != MSE_INCDEC_TYPE_NONE )

  00015	8b 78 28	 mov	 edi, DWORD PTR [eax+40]
  00018	03 1d 00 00 00
	00		 add	 ebx, DWORD PTR ?gObj@@3PAUOBJECTSTRUCT@@A ; gObj
  0001e	85 ff		 test	 edi, edi
  00020	74 39		 je	 SHORT $LN6@ApplyEleme

; 536  : 	{
; 537  : 		if ( this->m_iIncAndDecType < MSE_INCDEC_TYPE_CONSTANTINC )

  00022	83 ff 0b	 cmp	 edi, 11			; 0000000bH
  00025	7d 2a		 jge	 SHORT $LN10@ApplyEleme

; 538  : 		{
; 539  : 			iIncDecValue = lpTargetObj->m_Defense * this->m_iIncAndDecValue / 100;

  00027	8b 8b 74 06 00
	00		 mov	 ecx, DWORD PTR [ebx+1652]
  0002d	0f af 48 2c	 imul	 ecx, DWORD PTR [eax+44]
  00031	b8 1f 85 eb 51	 mov	 eax, 1374389535		; 51eb851fH
  00036	f7 e9		 imul	 ecx
  00038	8b 45 fc	 mov	 eax, DWORD PTR _this$1$[ebp]
  0003b	c1 fa 05	 sar	 edx, 5
  0003e	8b f2		 mov	 esi, edx
  00040	c1 ee 1f	 shr	 esi, 31			; 0000001fH
  00043	03 f2		 add	 esi, edx

; 540  : 
; 541  : 			if ( this->m_iIncAndDecType == MSE_INCDEC_TYPE_PERCENTDEC )

  00045	83 ff 02	 cmp	 edi, 2
  00048	75 02		 jne	 SHORT $LN4@ApplyEleme

; 542  : 				iIncDecValue = -iIncDecValue;

  0004a	f7 de		 neg	 esi
$LN4@ApplyEleme:

; 543  : 		}	
; 544  : 
; 545  : 		if ( this->m_iIncAndDecType >= MSE_INCDEC_TYPE_CONSTANTINC )

  0004c	83 ff 0b	 cmp	 edi, 11			; 0000000bH
  0004f	7c 0a		 jl	 SHORT $LN6@ApplyEleme
$LN10@ApplyEleme:

; 546  : 		{
; 547  : 			iIncDecValue = this->m_iIncAndDecValue;

  00051	8b 70 2c	 mov	 esi, DWORD PTR [eax+44]

; 548  : 
; 549  : 			if ( this->m_iIncAndDecType == MSE_INCDEC_TYPE_CONSTANTDEC )

  00054	83 ff 0c	 cmp	 edi, 12			; 0000000cH
  00057	75 02		 jne	 SHORT $LN6@ApplyEleme

; 550  : 				iIncDecValue = -iIncDecValue;

  00059	f7 de		 neg	 esi
$LN6@ApplyEleme:

; 551  : 		}
; 552  : 	}
; 553  : 
; 554  : 	lpTargetObj->m_MonsterSkillElementInfo.m_iSkillElementAttackTime = this->m_iContinuanceTime;

  0005b	8b 40 24	 mov	 eax, DWORD PTR [eax+36]
  0005e	5f		 pop	 edi

; 555  : 	lpTargetObj->m_MonsterSkillElementInfo.m_iSkillElementAttack = iIncDecValue;

  0005f	89 b3 80 20 00
	00		 mov	 DWORD PTR [ebx+8320], esi
  00065	89 83 84 20 00
	00		 mov	 DWORD PTR [ebx+8324], eax

; 556  : 
; 557  : 	return FALSE;

  0006b	33 c0		 xor	 eax, eax
  0006d	5e		 pop	 esi
  0006e	5b		 pop	 ebx

; 558  : }

  0006f	8b e5		 mov	 esp, ebp
  00071	5d		 pop	 ebp
  00072	c2 08 00	 ret	 8
?ApplyElementAttack@TMonsterSkillElement@@QAEHHH@Z ENDP	; TMonsterSkillElement::ApplyElementAttack
_TEXT	ENDS
; Function compile flags: /Ogtp
; File c:\users\michel\desktop\source\gameserver\source\tmonsterskillelement.cpp
;	COMDAT ?ApplyElementDefense@TMonsterSkillElement@@QAEHHH@Z
_TEXT	SEGMENT
_this$1$ = -4						; size = 4
_iIndex$ = 8						; size = 4
_iTargetIndex$ = 12					; size = 4
?ApplyElementDefense@TMonsterSkillElement@@QAEHHH@Z PROC ; TMonsterSkillElement::ApplyElementDefense, COMDAT
; _this$ = ecx

; 497  : {

  00000	55		 push	 ebp
  00001	8b ec		 mov	 ebp, esp
  00003	51		 push	 ecx
  00004	53		 push	 ebx

; 498  : 	LPOBJ lpObj = &gObj[iIndex];
; 499  : 	LPOBJ lpTargetObj = &gObj[iTargetIndex];

  00005	69 5d 0c 40 27
	00 00		 imul	 ebx, DWORD PTR _iTargetIndex$[ebp], 10048
  0000c	8b c1		 mov	 eax, ecx
  0000e	56		 push	 esi
  0000f	57		 push	 edi

; 500  : 	int iIncDecValue = 0;

  00010	33 f6		 xor	 esi, esi
  00012	89 45 fc	 mov	 DWORD PTR _this$1$[ebp], eax

; 501  : 
; 502  : 	if ( this->m_iIncAndDecType != MSE_INCDEC_TYPE_NONE )

  00015	8b 78 28	 mov	 edi, DWORD PTR [eax+40]
  00018	03 1d 00 00 00
	00		 add	 ebx, DWORD PTR ?gObj@@3PAUOBJECTSTRUCT@@A ; gObj
  0001e	85 ff		 test	 edi, edi
  00020	74 39		 je	 SHORT $LN6@ApplyEleme

; 503  : 	{
; 504  : 		if ( this->m_iIncAndDecType < MSE_INCDEC_TYPE_CONSTANTINC )

  00022	83 ff 0b	 cmp	 edi, 11			; 0000000bH
  00025	7d 2a		 jge	 SHORT $LN10@ApplyEleme

; 505  : 		{
; 506  : 			iIncDecValue = lpTargetObj->m_Defense * this->m_iIncAndDecValue / 100;

  00027	8b 8b 74 06 00
	00		 mov	 ecx, DWORD PTR [ebx+1652]
  0002d	0f af 48 2c	 imul	 ecx, DWORD PTR [eax+44]
  00031	b8 1f 85 eb 51	 mov	 eax, 1374389535		; 51eb851fH
  00036	f7 e9		 imul	 ecx
  00038	8b 45 fc	 mov	 eax, DWORD PTR _this$1$[ebp]
  0003b	c1 fa 05	 sar	 edx, 5
  0003e	8b f2		 mov	 esi, edx
  00040	c1 ee 1f	 shr	 esi, 31			; 0000001fH
  00043	03 f2		 add	 esi, edx

; 507  : 
; 508  : 			if ( this->m_iIncAndDecType == MSE_INCDEC_TYPE_PERCENTDEC )

  00045	83 ff 02	 cmp	 edi, 2
  00048	75 02		 jne	 SHORT $LN4@ApplyEleme

; 509  : 				iIncDecValue = -iIncDecValue;

  0004a	f7 de		 neg	 esi
$LN4@ApplyEleme:

; 510  : 		}	
; 511  : 
; 512  : 		if ( this->m_iIncAndDecType >= MSE_INCDEC_TYPE_CONSTANTINC )

  0004c	83 ff 0b	 cmp	 edi, 11			; 0000000bH
  0004f	7c 0a		 jl	 SHORT $LN6@ApplyEleme
$LN10@ApplyEleme:

; 513  : 		{
; 514  : 			iIncDecValue = this->m_iIncAndDecValue;

  00051	8b 70 2c	 mov	 esi, DWORD PTR [eax+44]

; 515  : 
; 516  : 			if ( this->m_iIncAndDecType == MSE_INCDEC_TYPE_CONSTANTDEC )

  00054	83 ff 0c	 cmp	 edi, 12			; 0000000cH
  00057	75 02		 jne	 SHORT $LN6@ApplyEleme

; 517  : 				iIncDecValue = -iIncDecValue;

  00059	f7 de		 neg	 esi
$LN6@ApplyEleme:

; 518  : 		}
; 519  : 	}
; 520  : 
; 521  : 	lpTargetObj->m_MonsterSkillElementInfo.m_iSkillElementDefenseTime = this->m_iContinuanceTime;

  0005b	8b 40 24	 mov	 eax, DWORD PTR [eax+36]
  0005e	5f		 pop	 edi

; 522  : 	lpTargetObj->m_MonsterSkillElementInfo.m_iSkillElementDefense = iIncDecValue;

  0005f	89 b3 78 20 00
	00		 mov	 DWORD PTR [ebx+8312], esi
  00065	89 83 7c 20 00
	00		 mov	 DWORD PTR [ebx+8316], eax

; 523  : 
; 524  : 	return FALSE;

  0006b	33 c0		 xor	 eax, eax
  0006d	5e		 pop	 esi
  0006e	5b		 pop	 ebx

; 525  : }

  0006f	8b e5		 mov	 esp, ebp
  00071	5d		 pop	 ebp
  00072	c2 08 00	 ret	 8
?ApplyElementDefense@TMonsterSkillElement@@QAEHHH@Z ENDP ; TMonsterSkillElement::ApplyElementDefense
_TEXT	ENDS
; Function compile flags: /Ogtp
; File c:\users\michel\desktop\source\gameserver\source\tmonsterskillelement.cpp
;	COMDAT ?ApplyElementAG@TMonsterSkillElement@@QAEHHH@Z
_TEXT	SEGMENT
_iIndex$ = 8						; size = 4
_iTargetIndex$ = 12					; size = 4
?ApplyElementAG@TMonsterSkillElement@@QAEHHH@Z PROC	; TMonsterSkillElement::ApplyElementAG, COMDAT
; _this$ = ecx

; 446  : {

  00000	55		 push	 ebp
  00001	8b ec		 mov	 ebp, esp
  00003	53		 push	 ebx
  00004	56		 push	 esi

; 447  : 	LPOBJ lpObj = &gObj[iIndex];
; 448  : 	LPOBJ lpTargetObj = &gObj[iTargetIndex];

  00005	69 75 0c 40 27
	00 00		 imul	 esi, DWORD PTR _iTargetIndex$[ebp], 10048
  0000c	8b d9		 mov	 ebx, ecx
  0000e	57		 push	 edi

; 449  : 	int iIncDecValue = 0;

  0000f	33 c0		 xor	 eax, eax

; 450  : 
; 451  : 	if ( this->m_iIncAndDecType != MSE_INCDEC_TYPE_NONE )

  00011	8b 7b 28	 mov	 edi, DWORD PTR [ebx+40]
  00014	03 35 00 00 00
	00		 add	 esi, DWORD PTR ?gObj@@3PAUOBJECTSTRUCT@@A ; gObj
  0001a	85 ff		 test	 edi, edi
  0001c	74 36		 je	 SHORT $LN6@ApplyEleme

; 452  : 	{
; 453  : 		if ( this->m_iIncAndDecType < MSE_INCDEC_TYPE_CONSTANTINC )

  0001e	83 ff 0b	 cmp	 edi, 11			; 0000000bH
  00021	7d 27		 jge	 SHORT $LN11@ApplyEleme

; 454  : 		{
; 455  : 			iIncDecValue = lpTargetObj->BP * this->m_iIncAndDecValue / 100;

  00023	8b 8e 04 01 00
	00		 mov	 ecx, DWORD PTR [esi+260]
  00029	b8 1f 85 eb 51	 mov	 eax, 1374389535		; 51eb851fH
  0002e	0f af 4b 2c	 imul	 ecx, DWORD PTR [ebx+44]
  00032	f7 e9		 imul	 ecx
  00034	c1 fa 05	 sar	 edx, 5
  00037	8b c2		 mov	 eax, edx
  00039	c1 e8 1f	 shr	 eax, 31			; 0000001fH
  0003c	03 c2		 add	 eax, edx

; 456  : 
; 457  : 			if ( this->m_iIncAndDecType == MSE_INCDEC_TYPE_PERCENTDEC )

  0003e	83 ff 02	 cmp	 edi, 2
  00041	75 02		 jne	 SHORT $LN4@ApplyEleme

; 458  : 				iIncDecValue = -iIncDecValue;

  00043	f7 d8		 neg	 eax
$LN4@ApplyEleme:

; 459  : 		}
; 460  : 
; 461  : 		if ( this->m_iIncAndDecType >= MSE_INCDEC_TYPE_CONSTANTINC )

  00045	83 ff 0b	 cmp	 edi, 11			; 0000000bH
  00048	7c 0a		 jl	 SHORT $LN6@ApplyEleme
$LN11@ApplyEleme:

; 462  : 		{
; 463  : 			iIncDecValue = this->m_iIncAndDecValue;

  0004a	8b 43 2c	 mov	 eax, DWORD PTR [ebx+44]

; 464  : 
; 465  : 			if ( this->m_iIncAndDecType == MSE_INCDEC_TYPE_CONSTANTDEC )

  0004d	83 ff 0c	 cmp	 edi, 12			; 0000000cH
  00050	75 02		 jne	 SHORT $LN6@ApplyEleme

; 466  : 				iIncDecValue = -iIncDecValue;

  00052	f7 d8		 neg	 eax
$LN6@ApplyEleme:

; 467  : 		}
; 468  : 	}
; 469  : 
; 470  : 	lpTargetObj->BP += iIncDecValue;

  00054	01 86 04 01 00
	00		 add	 DWORD PTR [esi+260], eax

; 471  : 
; 472  : 	if ( lpTargetObj->BP < 0 )

  0005a	79 3b		 jns	 SHORT $LN7@ApplyEleme

; 473  : 	{
; 474  : 		lpTargetObj->BP = 0;

  0005c	c7 86 04 01 00
	00 00 00 00 00	 mov	 DWORD PTR [esi+260], 0
$LN12@ApplyEleme:

; 475  : 		GCManaSend(lpTargetObj->m_Index,(WORD)lpTargetObj->Mana, 0xFF, 0, lpTargetObj->BP);

  00066	0f b7 86 04 01
	00 00		 movzx	 eax, WORD PTR [esi+260]
  0006d	50		 push	 eax
  0006e	f3 0f 2c 86 ec
	00 00 00	 cvttss2si eax, DWORD PTR [esi+236]
  00076	6a 00		 push	 0
  00078	68 ff 00 00 00	 push	 255			; 000000ffH
  0007d	0f b7 c0	 movzx	 eax, ax
  00080	50		 push	 eax
  00081	ff 36		 push	 DWORD PTR [esi]
  00083	e8 00 00 00 00	 call	 ?GCManaSend@@YAXHFEEG@Z	; GCManaSend
  00088	83 c4 14	 add	 esp, 20			; 00000014H

; 476  : 
; 477  : 		return TRUE;

  0008b	b8 01 00 00 00	 mov	 eax, 1
  00090	5f		 pop	 edi
  00091	5e		 pop	 esi
  00092	5b		 pop	 ebx

; 491  : }

  00093	5d		 pop	 ebp
  00094	c2 08 00	 ret	 8
$LN7@ApplyEleme:

; 478  : 	}
; 479  : 
; 480  : 	if ( (lpTargetObj->MaxBP + lpTargetObj->AddBP) < lpTargetObj->BP )

  00097	8b 86 08 01 00
	00		 mov	 eax, DWORD PTR [esi+264]
  0009d	03 86 0c 01 00
	00		 add	 eax, DWORD PTR [esi+268]
  000a3	3b 86 04 01 00
	00		 cmp	 eax, DWORD PTR [esi+260]
  000a9	7d 08		 jge	 SHORT $LN8@ApplyEleme

; 481  : 	{
; 482  : 		lpTargetObj->BP = lpTargetObj->MaxBP + lpTargetObj->AddBP;

  000ab	89 86 04 01 00
	00		 mov	 DWORD PTR [esi+260], eax

; 483  : 		GCManaSend(lpTargetObj->m_Index,(WORD)lpTargetObj->Mana, 0xFF, 0, lpTargetObj->BP);
; 484  : 
; 485  : 		return TRUE;

  000b1	eb b3		 jmp	 SHORT $LN12@ApplyEleme
$LN8@ApplyEleme:

; 486  : 	}
; 487  : 
; 488  : 	GCManaSend(lpTargetObj->m_Index,(WORD)lpTargetObj->Mana, 0xFF, 0, lpTargetObj->BP);

  000b3	0f b7 86 04 01
	00 00		 movzx	 eax, WORD PTR [esi+260]
  000ba	50		 push	 eax
  000bb	f3 0f 2c 86 ec
	00 00 00	 cvttss2si eax, DWORD PTR [esi+236]
  000c3	6a 00		 push	 0
  000c5	68 ff 00 00 00	 push	 255			; 000000ffH
  000ca	0f b7 c0	 movzx	 eax, ax
  000cd	50		 push	 eax
  000ce	ff 36		 push	 DWORD PTR [esi]
  000d0	e8 00 00 00 00	 call	 ?GCManaSend@@YAXHFEEG@Z	; GCManaSend
  000d5	83 c4 14	 add	 esp, 20			; 00000014H

; 489  : 
; 490  : 	return FALSE;

  000d8	33 c0		 xor	 eax, eax
  000da	5f		 pop	 edi
  000db	5e		 pop	 esi
  000dc	5b		 pop	 ebx

; 491  : }

  000dd	5d		 pop	 ebp
  000de	c2 08 00	 ret	 8
?ApplyElementAG@TMonsterSkillElement@@QAEHHH@Z ENDP	; TMonsterSkillElement::ApplyElementAG
_TEXT	ENDS
; Function compile flags: /Ogtp
; File c:\users\michel\desktop\source\gameserver\source\tmonsterskillelement.cpp
;	COMDAT ?ApplyElementMP@TMonsterSkillElement@@QAEHHH@Z
_TEXT	SEGMENT
_iIndex$ = 8						; size = 4
_iTargetIndex$ = 12					; size = 4
?ApplyElementMP@TMonsterSkillElement@@QAEHHH@Z PROC	; TMonsterSkillElement::ApplyElementMP, COMDAT
; _this$ = ecx

; 396  : {

  00000	55		 push	 ebp
  00001	8b ec		 mov	 ebp, esp

; 397  : 	LPOBJ lpObj = &gObj[iIndex];
; 398  : 	LPOBJ lpTargetObj = &gObj[iTargetIndex];

  00003	69 55 0c 40 27
	00 00		 imul	 edx, DWORD PTR _iTargetIndex$[ebp], 10048

; 399  : 	int iIncDecValue = 0;

  0000a	33 c0		 xor	 eax, eax
  0000c	56		 push	 esi

; 400  : 
; 401  : 	if ( this->m_iIncAndDecType != MSE_INCDEC_TYPE_NONE )

  0000d	8b 71 28	 mov	 esi, DWORD PTR [ecx+40]
  00010	03 15 00 00 00
	00		 add	 edx, DWORD PTR ?gObj@@3PAUOBJECTSTRUCT@@A ; gObj
  00016	85 f6		 test	 esi, esi
  00018	74 37		 je	 SHORT $LN6@ApplyEleme

; 402  : 	{
; 403  : 		if ( this->m_iIncAndDecType < MSE_INCDEC_TYPE_CONSTANTINC )

  0001a	83 fe 0b	 cmp	 esi, 11			; 0000000bH
  0001d	7d 28		 jge	 SHORT $LN11@ApplyEleme

; 404  : 		{
; 405  : 			iIncDecValue = (int)(lpTargetObj->Mana * this->m_iIncAndDecValue / 100.0f);

  0001f	66 0f 6e 41 2c	 movd	 xmm0, DWORD PTR [ecx+44]
  00024	0f 5b c0	 cvtdq2ps xmm0, xmm0
  00027	f3 0f 59 82 ec
	00 00 00	 mulss	 xmm0, DWORD PTR [edx+236]
  0002f	f3 0f 5e 05 00
	00 00 00	 divss	 xmm0, DWORD PTR __real@42c80000
  00037	f3 0f 2c c0	 cvttss2si eax, xmm0

; 406  : 
; 407  : 			if ( this->m_iIncAndDecType == MSE_INCDEC_TYPE_PERCENTDEC )

  0003b	83 fe 02	 cmp	 esi, 2
  0003e	75 02		 jne	 SHORT $LN4@ApplyEleme

; 408  : 				iIncDecValue = -iIncDecValue;

  00040	f7 d8		 neg	 eax
$LN4@ApplyEleme:

; 409  : 		}
; 410  : 
; 411  : 		if ( this->m_iIncAndDecType >= MSE_INCDEC_TYPE_CONSTANTINC )

  00042	83 fe 0b	 cmp	 esi, 11			; 0000000bH
  00045	7c 0a		 jl	 SHORT $LN6@ApplyEleme
$LN11@ApplyEleme:

; 412  : 		{
; 413  : 			iIncDecValue = this->m_iIncAndDecValue;

  00047	8b 41 2c	 mov	 eax, DWORD PTR [ecx+44]

; 414  : 
; 415  : 			if ( this->m_iIncAndDecType == MSE_INCDEC_TYPE_CONSTANTDEC )

  0004a	83 fe 0c	 cmp	 esi, 12			; 0000000cH
  0004d	75 02		 jne	 SHORT $LN6@ApplyEleme

; 416  : 				iIncDecValue = -iIncDecValue;

  0004f	f7 d8		 neg	 eax
$LN6@ApplyEleme:
  00051	66 0f 6e c8	 movd	 xmm1, eax
  00055	0f 57 c0	 xorps	 xmm0, xmm0

; 417  : 		}
; 418  : 	}
; 419  : 
; 420  : 	lpTargetObj->Mana += iIncDecValue;
; 421  : 
; 422  : 	if ( lpTargetObj->Mana < 0 )
; 423  : 	{
; 424  : 		lpTargetObj->Mana = 0;
; 425  : 		GCManaSend(lpTargetObj->m_Index,(WORD)lpTargetObj->Mana, 0xFF, 0, lpTargetObj->BP);

  00058	0f b7 82 04 01
	00 00		 movzx	 eax, WORD PTR [edx+260]
  0005f	0f 5b c9	 cvtdq2ps xmm1, xmm1
  00062	5e		 pop	 esi
  00063	50		 push	 eax
  00064	6a 00		 push	 0
  00066	68 ff 00 00 00	 push	 255			; 000000ffH
  0006b	f3 0f 58 8a ec
	00 00 00	 addss	 xmm1, DWORD PTR [edx+236]
  00073	0f 2f c1	 comiss	 xmm0, xmm1
  00076	f3 0f 11 8a ec
	00 00 00	 movss	 DWORD PTR [edx+236], xmm1
  0007e	76 1f		 jbe	 SHORT $LN7@ApplyEleme
  00080	6a 00		 push	 0
  00082	ff 32		 push	 DWORD PTR [edx]
  00084	c7 82 ec 00 00
	00 00 00 00 00	 mov	 DWORD PTR [edx+236], 0
  0008e	e8 00 00 00 00	 call	 ?GCManaSend@@YAXHFEEG@Z	; GCManaSend
  00093	83 c4 14	 add	 esp, 20			; 00000014H

; 426  : 
; 427  : 		return TRUE;

  00096	b8 01 00 00 00	 mov	 eax, 1

; 441  : }

  0009b	5d		 pop	 ebp
  0009c	c2 08 00	 ret	 8
$LN7@ApplyEleme:
  0009f	66 0f 6e 82 28
	01 00 00	 movd	 xmm0, DWORD PTR [edx+296]

; 428  : 	}
; 429  : 
; 430  : 	if ( (lpTargetObj->MaxMana + lpTargetObj->AddMana) < lpTargetObj->Mana )

  000a7	0f 5b c0	 cvtdq2ps xmm0, xmm0
  000aa	f3 0f 58 82 f0
	00 00 00	 addss	 xmm0, DWORD PTR [edx+240]
  000b2	0f 2f c8	 comiss	 xmm1, xmm0
  000b5	76 23		 jbe	 SHORT $LN8@ApplyEleme

; 431  : 	{
; 432  : 		lpTargetObj->Mana = lpTargetObj->MaxMana + lpTargetObj->AddMana;
; 433  : 		GCManaSend(lpTargetObj->m_Index,(WORD)lpTargetObj->Mana, 0xFF, 0, lpTargetObj->BP);

  000b7	f3 0f 2c c0	 cvttss2si eax, xmm0
  000bb	f3 0f 11 82 ec
	00 00 00	 movss	 DWORD PTR [edx+236], xmm0
  000c3	0f b7 c0	 movzx	 eax, ax
  000c6	50		 push	 eax
  000c7	ff 32		 push	 DWORD PTR [edx]
  000c9	e8 00 00 00 00	 call	 ?GCManaSend@@YAXHFEEG@Z	; GCManaSend
  000ce	83 c4 14	 add	 esp, 20			; 00000014H

; 434  : 
; 435  : 		return TRUE;

  000d1	b8 01 00 00 00	 mov	 eax, 1

; 441  : }

  000d6	5d		 pop	 ebp
  000d7	c2 08 00	 ret	 8
$LN8@ApplyEleme:

; 436  : 	}
; 437  : 
; 438  : 	GCManaSend(lpTargetObj->m_Index,(WORD)lpTargetObj->Mana, 0xFF, 0, lpTargetObj->BP);

  000da	f3 0f 2c c1	 cvttss2si eax, xmm1
  000de	0f b7 c0	 movzx	 eax, ax
  000e1	50		 push	 eax
  000e2	ff 32		 push	 DWORD PTR [edx]
  000e4	e8 00 00 00 00	 call	 ?GCManaSend@@YAXHFEEG@Z	; GCManaSend
  000e9	83 c4 14	 add	 esp, 20			; 00000014H

; 439  : 
; 440  : 	return FALSE;

  000ec	33 c0		 xor	 eax, eax

; 441  : }

  000ee	5d		 pop	 ebp
  000ef	c2 08 00	 ret	 8
?ApplyElementMP@TMonsterSkillElement@@QAEHHH@Z ENDP	; TMonsterSkillElement::ApplyElementMP
_TEXT	ENDS
; Function compile flags: /Ogtp
; File c:\users\michel\desktop\source\gameserver\source\tmonsterskillelement.cpp
;	COMDAT ?ApplyElementHP@TMonsterSkillElement@@QAEHHH@Z
_TEXT	SEGMENT
_iIndex$ = 8						; size = 4
_iTargetIndex$ = 12					; size = 4
?ApplyElementHP@TMonsterSkillElement@@QAEHHH@Z PROC	; TMonsterSkillElement::ApplyElementHP, COMDAT
; _this$ = ecx

; 329  : {

  00000	55		 push	 ebp
  00001	8b ec		 mov	 ebp, esp

; 330  : 	LPOBJ lpObj = &gObj[iIndex];
; 331  : 	LPOBJ lpTargetObj = &gObj[iTargetIndex];

  00003	69 55 0c 40 27
	00 00		 imul	 edx, DWORD PTR _iTargetIndex$[ebp], 10048

; 332  : 	int iIncDecValue = 0;
; 333  : 
; 334  : 	if ( this->m_iIncAndDecType != MSE_INCDEC_TYPE_NONE )

  0000a	8b 41 28	 mov	 eax, DWORD PTR [ecx+40]
  0000d	56		 push	 esi
  0000e	33 f6		 xor	 esi, esi
  00010	03 15 00 00 00
	00		 add	 edx, DWORD PTR ?gObj@@3PAUOBJECTSTRUCT@@A ; gObj
  00016	85 c0		 test	 eax, eax
  00018	0f 84 90 00 00
	00		 je	 $LN11@ApplyEleme

; 335  : 	{
; 336  : 		if ( this->m_iIncAndDecType == MSE_INCDEC_TYPE_PERCENTINC ||
; 337  : 			 this->m_iIncAndDecType == MSE_INCDEC_TYPE_PERCENTDEC ||
; 338  : 			 this->m_iIncAndDecType == MSE_INCDEC_TYPE_CYCLE_PERCENTINC ||

  0001e	83 f8 01	 cmp	 eax, 1
  00021	74 0f		 je	 SHORT $LN4@ApplyEleme
  00023	83 f8 02	 cmp	 eax, 2
  00026	74 0a		 je	 SHORT $LN4@ApplyEleme
  00028	83 f8 65	 cmp	 eax, 101		; 00000065H
  0002b	74 05		 je	 SHORT $LN4@ApplyEleme
  0002d	83 f8 66	 cmp	 eax, 102		; 00000066H
  00030	75 23		 jne	 SHORT $LN5@ApplyEleme
$LN4@ApplyEleme:
  00032	66 0f 6e 41 2c	 movd	 xmm0, DWORD PTR [ecx+44]

; 339  : 			 this->m_iIncAndDecType == MSE_INCDEC_TYPE_CYCLE_PERCENTDEC )
; 340  : 		{
; 341  : 			iIncDecValue = (int)((lpTargetObj->Life * this->m_iIncAndDecValue) / 100.0f);

  00037	0f 5b c0	 cvtdq2ps xmm0, xmm0
  0003a	f3 0f 59 82 d8
	00 00 00	 mulss	 xmm0, DWORD PTR [edx+216]
  00042	f3 0f 5e 05 00
	00 00 00	 divss	 xmm0, DWORD PTR __real@42c80000
  0004a	f3 0f 2c f0	 cvttss2si esi, xmm0

; 342  : 
; 343  : 			if ( this->m_iIncAndDecType == MSE_INCDEC_TYPE_PERCENTDEC )

  0004e	83 f8 02	 cmp	 eax, 2
  00051	75 02		 jne	 SHORT $LN5@ApplyEleme

; 344  : 				iIncDecValue = -iIncDecValue;

  00053	f7 de		 neg	 esi
$LN5@ApplyEleme:

; 345  : 		}
; 346  : 
; 347  : 		if ( this->m_iIncAndDecType == MSE_INCDEC_TYPE_CONSTANTINC ||
; 348  : 			 this->m_iIncAndDecType == MSE_INCDEC_TYPE_CONSTANTDEC ||
; 349  : 			 this->m_iIncAndDecType == MSE_INCDEC_TYPE_CYCLE_CONSTANTINC ||

  00055	83 f8 0b	 cmp	 eax, 11			; 0000000bH
  00058	74 0f		 je	 SHORT $LN7@ApplyEleme
  0005a	83 f8 0c	 cmp	 eax, 12			; 0000000cH
  0005d	74 0a		 je	 SHORT $LN7@ApplyEleme
  0005f	83 f8 6f	 cmp	 eax, 111		; 0000006fH
  00062	74 05		 je	 SHORT $LN7@ApplyEleme
  00064	83 f8 70	 cmp	 eax, 112		; 00000070H
  00067	75 0f		 jne	 SHORT $LN8@ApplyEleme
$LN7@ApplyEleme:

; 350  : 			 this->m_iIncAndDecType == MSE_INCDEC_TYPE_CYCLE_CONSTANTDEC )
; 351  : 		{
; 352  : 			iIncDecValue = this->m_iIncAndDecValue;

  00069	8b 71 2c	 mov	 esi, DWORD PTR [ecx+44]

; 353  : 
; 354  : 			if ( this->m_iIncAndDecType == MSE_INCDEC_TYPE_CONSTANTDEC ||

  0006c	83 f8 0c	 cmp	 eax, 12			; 0000000cH
  0006f	74 05		 je	 SHORT $LN9@ApplyEleme
  00071	83 f8 70	 cmp	 eax, 112		; 00000070H
  00074	75 02		 jne	 SHORT $LN8@ApplyEleme
$LN9@ApplyEleme:

; 355  : 				 this->m_iIncAndDecType == MSE_INCDEC_TYPE_CYCLE_CONSTANTDEC )
; 356  : 				iIncDecValue = -iIncDecValue;

  00076	f7 de		 neg	 esi
$LN8@ApplyEleme:

; 357  : 		}
; 358  : 
; 359  : 		if ( this->m_iIncAndDecType > MSE_INCDEC_TYPE_CYCLE_PERCENT )

  00078	83 f8 64	 cmp	 eax, 100		; 00000064H
  0007b	7e 31		 jle	 SHORT $LN11@ApplyEleme

; 360  : 		{
; 361  : 			lpTargetObj->m_MonsterSkillElementInfo.m_iSkillElementAutoHPTime = this->m_iContinuanceTime;

  0007d	8b 41 24	 mov	 eax, DWORD PTR [ecx+36]
  00080	57		 push	 edi

; 362  : 			lpTargetObj->m_MonsterSkillElementInfo.m_iSkillElementAutoHP = iIncDecValue;
; 363  : 			lpTargetObj->m_MonsterSkillElementInfo.m_iSkillElementAutoHPCycle = MSE_INCDEC_TYPE_CYCLE_PERCENT;
; 364  : 
; 365  : 			if ( this->m_iIncAndDecType > MSE_INCDEC_TYPE_CYCLE_CONSTANT )

  00081	bf 6e 00 00 00	 mov	 edi, 110		; 0000006eH
  00086	89 82 90 20 00
	00		 mov	 DWORD PTR [edx+8336], eax
  0008c	c7 82 8c 20 00
	00 64 00 00 00	 mov	 DWORD PTR [edx+8332], 100 ; 00000064H
  00096	b8 64 00 00 00	 mov	 eax, 100		; 00000064H
  0009b	89 b2 88 20 00
	00		 mov	 DWORD PTR [edx+8328], esi
  000a1	39 79 28	 cmp	 DWORD PTR [ecx+40], edi
  000a4	0f 4f c7	 cmovg	 eax, edi
  000a7	89 82 8c 20 00
	00		 mov	 DWORD PTR [edx+8332], eax
  000ad	5f		 pop	 edi
$LN11@ApplyEleme:

; 366  : 				lpTargetObj->m_MonsterSkillElementInfo.m_iSkillElementAutoHPCycle = MSE_INCDEC_TYPE_CYCLE_CONSTANT;
; 367  : 			else
; 368  : 				lpTargetObj->m_MonsterSkillElementInfo.m_iSkillElementAutoHPCycle = MSE_INCDEC_TYPE_CYCLE_PERCENT;
; 369  : 		}
; 370  : 	}
; 371  : 
; 372  : 	lpTargetObj->Life += iIncDecValue;
; 373  : 
; 374  : 	if ( lpTargetObj->Life < 0 )
; 375  : 	{
; 376  : 		lpTargetObj->Life = 0;
; 377  : 		GCReFillSend(lpTargetObj->m_Index,(WORD)lpTargetObj->Life, 0xFF, 0, lpTargetObj->iShield);

  000ae	0f b7 82 2c 01
	00 00		 movzx	 eax, WORD PTR [edx+300]
  000b5	0f 57 c0	 xorps	 xmm0, xmm0
  000b8	66 0f 6e ce	 movd	 xmm1, esi
  000bc	0f 5b c9	 cvtdq2ps xmm1, xmm1
  000bf	5e		 pop	 esi
  000c0	50		 push	 eax
  000c1	6a 00		 push	 0
  000c3	68 ff 00 00 00	 push	 255			; 000000ffH
  000c8	f3 0f 58 8a d8
	00 00 00	 addss	 xmm1, DWORD PTR [edx+216]
  000d0	0f 2f c1	 comiss	 xmm0, xmm1
  000d3	f3 0f 11 8a d8
	00 00 00	 movss	 DWORD PTR [edx+216], xmm1
  000db	76 1f		 jbe	 SHORT $LN13@ApplyEleme
  000dd	6a 00		 push	 0
  000df	ff 32		 push	 DWORD PTR [edx]
  000e1	c7 82 d8 00 00
	00 00 00 00 00	 mov	 DWORD PTR [edx+216], 0
  000eb	e8 00 00 00 00	 call	 ?GCReFillSend@@YAXHGEEG@Z ; GCReFillSend
  000f0	83 c4 14	 add	 esp, 20			; 00000014H

; 378  : 		return TRUE;

  000f3	b8 01 00 00 00	 mov	 eax, 1

; 391  : }

  000f8	5d		 pop	 ebp
  000f9	c2 08 00	 ret	 8
$LN13@ApplyEleme:
  000fc	66 0f 6e 82 24
	01 00 00	 movd	 xmm0, DWORD PTR [edx+292]

; 379  : 	}
; 380  : 
; 381  : 	if ( (lpTargetObj->MaxLife + lpTargetObj->AddLife) < lpTargetObj->Life )

  00104	0f 5b c0	 cvtdq2ps xmm0, xmm0
  00107	f3 0f 58 82 dc
	00 00 00	 addss	 xmm0, DWORD PTR [edx+220]
  0010f	0f 2f c8	 comiss	 xmm1, xmm0
  00112	76 23		 jbe	 SHORT $LN14@ApplyEleme

; 382  : 	{
; 383  : 		lpTargetObj->Life = lpTargetObj->MaxLife + lpTargetObj->AddLife;
; 384  : 		GCReFillSend(lpTargetObj->m_Index,(WORD)lpTargetObj->Life, 0xFF, 0, lpTargetObj->iShield);

  00114	f3 0f 2c c0	 cvttss2si eax, xmm0
  00118	f3 0f 11 82 d8
	00 00 00	 movss	 DWORD PTR [edx+216], xmm0
  00120	0f b7 c0	 movzx	 eax, ax
  00123	50		 push	 eax
  00124	ff 32		 push	 DWORD PTR [edx]
  00126	e8 00 00 00 00	 call	 ?GCReFillSend@@YAXHGEEG@Z ; GCReFillSend
  0012b	83 c4 14	 add	 esp, 20			; 00000014H

; 385  : 
; 386  : 		return TRUE;

  0012e	b8 01 00 00 00	 mov	 eax, 1

; 391  : }

  00133	5d		 pop	 ebp
  00134	c2 08 00	 ret	 8
$LN14@ApplyEleme:

; 387  : 	}
; 388  : 
; 389  : 	GCReFillSend(lpTargetObj->m_Index,(WORD)lpTargetObj->Life, 0xFF, 0, lpTargetObj->iShield);

  00137	f3 0f 2c c1	 cvttss2si eax, xmm1
  0013b	0f b7 c0	 movzx	 eax, ax
  0013e	50		 push	 eax
  0013f	ff 32		 push	 DWORD PTR [edx]
  00141	e8 00 00 00 00	 call	 ?GCReFillSend@@YAXHGEEG@Z ; GCReFillSend
  00146	83 c4 14	 add	 esp, 20			; 00000014H

; 390  : 	return FALSE;

  00149	33 c0		 xor	 eax, eax

; 391  : }

  0014b	5d		 pop	 ebp
  0014c	c2 08 00	 ret	 8
?ApplyElementHP@TMonsterSkillElement@@QAEHHH@Z ENDP	; TMonsterSkillElement::ApplyElementHP
_TEXT	ENDS
; Function compile flags: /Ogtp
; File c:\users\michel\desktop\source\gameserver\source\tmonsterskillelement.cpp
;	COMDAT ?ApplyElementMove@TMonsterSkillElement@@QAEHHH@Z
_TEXT	SEGMENT
_iIndex$ = 8						; size = 4
_iTargetIndex$ = 12					; size = 4
?ApplyElementMove@TMonsterSkillElement@@QAEHHH@Z PROC	; TMonsterSkillElement::ApplyElementMove, COMDAT
; _this$ = ecx

; 319  : 	LPOBJ lpObj = &gObj[iIndex];
; 320  : 	LPOBJ lpTargetObj = &gObj[iTargetIndex];
; 321  : 
; 322  : 	return FALSE;

  00000	33 c0		 xor	 eax, eax

; 323  : }

  00002	c2 08 00	 ret	 8
?ApplyElementMove@TMonsterSkillElement@@QAEHHH@Z ENDP	; TMonsterSkillElement::ApplyElementMove
_TEXT	ENDS
; Function compile flags: /Ogtp
; File c:\users\michel\desktop\source\gameserver\source\tmonsterskillelement.cpp
;	COMDAT ?ApplyElementStun@TMonsterSkillElement@@QAEHHH@Z
_TEXT	SEGMENT
_iIndex$ = 8						; size = 4
_iTargetIndex$ = 12					; size = 4
?ApplyElementStun@TMonsterSkillElement@@QAEHHH@Z PROC	; TMonsterSkillElement::ApplyElementStun, COMDAT
; _this$ = ecx

; 294  : {

  00000	55		 push	 ebp
  00001	8b ec		 mov	 ebp, esp

; 295  : 	LPOBJ lpObj = &gObj[iIndex];
; 296  : 	LPOBJ lpTargetObj = &gObj[iTargetIndex];
; 297  : 
; 298  : 	int StunTime = 0;
; 299  : 
; 300  : 	if( m_iContinuanceTime == -1 )

  00003	8b 41 24	 mov	 eax, DWORD PTR [ecx+36]
  00006	b9 f6 ff ff ff	 mov	 ecx, -10		; fffffff6H
  0000b	56		 push	 esi
  0000c	57		 push	 edi
  0000d	8b 7d 0c	 mov	 edi, DWORD PTR _iTargetIndex$[ebp]
  00010	69 f7 40 27 00
	00		 imul	 esi, edi, 10048
  00016	03 35 00 00 00
	00		 add	 esi, DWORD PTR ?gObj@@3PAUOBJECTSTRUCT@@A ; gObj
  0001c	83 f8 ff	 cmp	 eax, -1
  0001f	0f 44 c1	 cmove	 eax, ecx

; 301  : 	{
; 302  : 		StunTime = -10;
; 303  : 	}
; 304  : 	else
; 305  : 	{
; 306  : 		StunTime = m_iContinuanceTime;
; 307  : 	}
; 308  : 
; 309  : 	gObjAddBuffEffect(lpTargetObj,BUFF_STUN,0,0,0,0,StunTime);

  00022	50		 push	 eax
  00023	6a 00		 push	 0
  00025	6a 00		 push	 0
  00027	6a 00		 push	 0
  00029	6a 00		 push	 0
  0002b	6a 3d		 push	 61			; 0000003dH
  0002d	56		 push	 esi
  0002e	e8 00 00 00 00	 call	 ?gObjAddBuffEffect@@YA_NPAUOBJECTSTRUCT@@HEHEHH@Z ; gObjAddBuffEffect

; 310  : 	gObjSetPosition(iTargetIndex, lpTargetObj->X, lpTargetObj->Y);

  00033	0f b6 86 21 01
	00 00		 movzx	 eax, BYTE PTR [esi+289]
  0003a	50		 push	 eax
  0003b	0f b6 86 20 01
	00 00		 movzx	 eax, BYTE PTR [esi+288]
  00042	50		 push	 eax
  00043	57		 push	 edi
  00044	e8 00 00 00 00	 call	 ?gObjSetPosition@@YAXHHH@Z ; gObjSetPosition
  00049	83 c4 28	 add	 esp, 40			; 00000028H

; 311  : 
; 312  : 	return FALSE;

  0004c	33 c0		 xor	 eax, eax
  0004e	5f		 pop	 edi
  0004f	5e		 pop	 esi

; 313  : }

  00050	5d		 pop	 ebp
  00051	c2 08 00	 ret	 8
?ApplyElementStun@TMonsterSkillElement@@QAEHHH@Z ENDP	; TMonsterSkillElement::ApplyElementStun
_TEXT	ENDS
; Function compile flags: /Ogtp
; File c:\users\michel\desktop\source\gameserver\source\tmonsterskillelement.cpp
;	COMDAT ??1TMonsterSkillElement@@UAE@XZ
_TEXT	SEGMENT
??1TMonsterSkillElement@@UAE@XZ PROC			; TMonsterSkillElement::~TMonsterSkillElement, COMDAT
; _this$ = ecx

; 33   : {

  00000	c7 01 00 00 00
	00		 mov	 DWORD PTR [ecx], OFFSET ??_7TMonsterSkillElement@@6B@

; 34   : 	return;
; 35   : }

  00006	c3		 ret	 0
??1TMonsterSkillElement@@UAE@XZ ENDP			; TMonsterSkillElement::~TMonsterSkillElement
_TEXT	ENDS
; Function compile flags: /Ogtp
; File c:\users\michel\desktop\source\gameserver\source\tmonsterskillelement.cpp
;	COMDAT ??0TMonsterSkillElement@@QAE@XZ
_TEXT	SEGMENT
??0TMonsterSkillElement@@QAE@XZ PROC			; TMonsterSkillElement::TMonsterSkillElement, COMDAT
; _this$ = ecx

; 28   : {

  00000	56		 push	 esi
  00001	8b f1		 mov	 esi, ecx
  00003	c7 06 00 00 00
	00		 mov	 DWORD PTR [esi], OFFSET ??_7TMonsterSkillElement@@6B@

; 29   : 	this->Reset();

  00009	e8 00 00 00 00	 call	 ?Reset@TMonsterSkillElement@@QAEXXZ ; TMonsterSkillElement::Reset

; 30   : }

  0000e	8b c6		 mov	 eax, esi
  00010	5e		 pop	 esi
  00011	c3		 ret	 0
??0TMonsterSkillElement@@QAE@XZ ENDP			; TMonsterSkillElement::TMonsterSkillElement
_TEXT	ENDS
; Function compile flags: /Ogtp
; File c:\users\michel\desktop\source\gameserver\source\tmonsterskillelement.cpp
;	COMDAT ?ForceSkillElement@TMonsterSkillElement@@UAEXHH@Z
_TEXT	SEGMENT
_iIndex$ = 8						; size = 4
_iTargetIndex$ = 12					; size = 4
?ForceSkillElement@TMonsterSkillElement@@UAEXHH@Z PROC	; TMonsterSkillElement::ForceSkillElement, COMDAT
; _this$ = ecx

; 216  : {

  00000	55		 push	 ebp
  00001	8b ec		 mov	 ebp, esp
  00003	56		 push	 esi
  00004	8b f1		 mov	 esi, ecx

; 217  : 	if ( (rand()%100) > this->m_iSuccessRate )

  00006	e8 00 00 00 00	 call	 _rand
  0000b	99		 cdq
  0000c	b9 64 00 00 00	 mov	 ecx, 100		; 00000064H
  00011	f7 f9		 idiv	 ecx
  00013	3b 56 20	 cmp	 edx, DWORD PTR [esi+32]
  00016	0f 8f 40 01 00
	00		 jg	 $LN2@ForceSkill

; 218  : 		return;
; 219  : 
; 220  : 	switch ( this->m_iElementType )

  0001c	8b 46 1c	 mov	 eax, DWORD PTR [esi+28]
  0001f	83 f8 15	 cmp	 eax, 21			; 00000015H
  00022	0f 87 34 01 00
	00		 ja	 $LN2@ForceSkill
  00028	ff 24 85 00 00
	00 00		 jmp	 DWORD PTR $LN29@ForceSkill[eax*4]
$LN5@ForceSkill:

; 221  : 	{
; 222  : 		case MSE_TYPE_STUN:
; 223  : 			this->ApplyElementStun(iIndex, iTargetIndex);

  0002f	ff 75 0c	 push	 DWORD PTR _iTargetIndex$[ebp]
  00032	8b ce		 mov	 ecx, esi
  00034	ff 75 08	 push	 DWORD PTR _iIndex$[ebp]
  00037	e8 00 00 00 00	 call	 ?ApplyElementStun@TMonsterSkillElement@@QAEHHH@Z ; TMonsterSkillElement::ApplyElementStun
  0003c	5e		 pop	 esi

; 287  : 			break;
; 288  : 	}
; 289  : }

  0003d	5d		 pop	 ebp
  0003e	c2 08 00	 ret	 8
$LN7@ForceSkill:

; 224  : 			break;
; 225  : 		case MSE_TYPE_MOVE:
; 226  : 			this->ApplyElementMove(iIndex, iTargetIndex);
; 227  : 			break;
; 228  : 		case MSE_TYPE_HP:
; 229  : 			this->ApplyElementHP(iIndex, iTargetIndex);

  00041	ff 75 0c	 push	 DWORD PTR _iTargetIndex$[ebp]
  00044	8b ce		 mov	 ecx, esi
  00046	ff 75 08	 push	 DWORD PTR _iIndex$[ebp]
  00049	e8 00 00 00 00	 call	 ?ApplyElementHP@TMonsterSkillElement@@QAEHHH@Z ; TMonsterSkillElement::ApplyElementHP
  0004e	5e		 pop	 esi

; 287  : 			break;
; 288  : 	}
; 289  : }

  0004f	5d		 pop	 ebp
  00050	c2 08 00	 ret	 8
$LN8@ForceSkill:

; 230  : 			break;
; 231  : 		case MSE_TYPE_MP:
; 232  : 			this->ApplyElementMP(iIndex, iTargetIndex);

  00053	ff 75 0c	 push	 DWORD PTR _iTargetIndex$[ebp]
  00056	8b ce		 mov	 ecx, esi
  00058	ff 75 08	 push	 DWORD PTR _iIndex$[ebp]
  0005b	e8 00 00 00 00	 call	 ?ApplyElementMP@TMonsterSkillElement@@QAEHHH@Z ; TMonsterSkillElement::ApplyElementMP
  00060	5e		 pop	 esi

; 287  : 			break;
; 288  : 	}
; 289  : }

  00061	5d		 pop	 ebp
  00062	c2 08 00	 ret	 8
$LN9@ForceSkill:

; 233  : 			break;
; 234  : 		case MSE_TYPE_AG:
; 235  : 			this->ApplyElementAG(iIndex, iTargetIndex);

  00065	ff 75 0c	 push	 DWORD PTR _iTargetIndex$[ebp]
  00068	8b ce		 mov	 ecx, esi
  0006a	ff 75 08	 push	 DWORD PTR _iIndex$[ebp]
  0006d	e8 00 00 00 00	 call	 ?ApplyElementAG@TMonsterSkillElement@@QAEHHH@Z ; TMonsterSkillElement::ApplyElementAG
  00072	5e		 pop	 esi

; 287  : 			break;
; 288  : 	}
; 289  : }

  00073	5d		 pop	 ebp
  00074	c2 08 00	 ret	 8
$LN10@ForceSkill:

; 236  : 			break;
; 237  : 		case MSE_TYPE_DEFENSE:
; 238  : 			this->ApplyElementDefense(iIndex, iTargetIndex);

  00077	ff 75 0c	 push	 DWORD PTR _iTargetIndex$[ebp]
  0007a	8b ce		 mov	 ecx, esi
  0007c	ff 75 08	 push	 DWORD PTR _iIndex$[ebp]
  0007f	e8 00 00 00 00	 call	 ?ApplyElementDefense@TMonsterSkillElement@@QAEHHH@Z ; TMonsterSkillElement::ApplyElementDefense
  00084	5e		 pop	 esi

; 287  : 			break;
; 288  : 	}
; 289  : }

  00085	5d		 pop	 ebp
  00086	c2 08 00	 ret	 8
$LN11@ForceSkill:

; 239  : 			break;
; 240  : 		case MSE_TYPE_ATTACK:
; 241  : 			this->ApplyElementAttack(iIndex, iTargetIndex);

  00089	ff 75 0c	 push	 DWORD PTR _iTargetIndex$[ebp]
  0008c	8b ce		 mov	 ecx, esi
  0008e	ff 75 08	 push	 DWORD PTR _iIndex$[ebp]
  00091	e8 00 00 00 00	 call	 ?ApplyElementAttack@TMonsterSkillElement@@QAEHHH@Z ; TMonsterSkillElement::ApplyElementAttack
  00096	5e		 pop	 esi

; 287  : 			break;
; 288  : 	}
; 289  : }

  00097	5d		 pop	 ebp
  00098	c2 08 00	 ret	 8
$LN12@ForceSkill:

; 242  : 			break;
; 243  : 		case MSE_TYPE_DURABILITY:
; 244  : 			this->ApplyElementDurability(iIndex, iTargetIndex);

  0009b	ff 75 0c	 push	 DWORD PTR _iTargetIndex$[ebp]
  0009e	8b ce		 mov	 ecx, esi
  000a0	ff 75 08	 push	 DWORD PTR _iIndex$[ebp]
  000a3	e8 00 00 00 00	 call	 ?ApplyElementDurability@TMonsterSkillElement@@QAEHHH@Z ; TMonsterSkillElement::ApplyElementDurability
  000a8	5e		 pop	 esi

; 287  : 			break;
; 288  : 	}
; 289  : }

  000a9	5d		 pop	 ebp
  000aa	c2 08 00	 ret	 8
$LN13@ForceSkill:

; 245  : 			break;
; 246  : 		case MSE_TYPE_SUMMON:
; 247  : 			this->ApplyElementSummon(iIndex, iTargetIndex);

  000ad	ff 75 0c	 push	 DWORD PTR _iTargetIndex$[ebp]
  000b0	8b ce		 mov	 ecx, esi
  000b2	ff 75 08	 push	 DWORD PTR _iIndex$[ebp]
  000b5	e8 00 00 00 00	 call	 ?ApplyElementSummon@TMonsterSkillElement@@QAEHHH@Z ; TMonsterSkillElement::ApplyElementSummon
  000ba	5e		 pop	 esi

; 287  : 			break;
; 288  : 	}
; 289  : }

  000bb	5d		 pop	 ebp
  000bc	c2 08 00	 ret	 8
$LN14@ForceSkill:

; 248  : 			break;
; 249  : 		case MSE_TYPE_PUSH:
; 250  : 			this->ApplyElementPush(iIndex, iTargetIndex);

  000bf	ff 75 0c	 push	 DWORD PTR _iTargetIndex$[ebp]
  000c2	8b ce		 mov	 ecx, esi
  000c4	ff 75 08	 push	 DWORD PTR _iIndex$[ebp]
  000c7	e8 00 00 00 00	 call	 ?ApplyElementPush@TMonsterSkillElement@@QAEHHH@Z ; TMonsterSkillElement::ApplyElementPush
  000cc	5e		 pop	 esi

; 287  : 			break;
; 288  : 	}
; 289  : }

  000cd	5d		 pop	 ebp
  000ce	c2 08 00	 ret	 8
$LN19@ForceSkill:

; 251  : 			break;
; 252  : 		case MSE_TYPE_STAT_ENERGY:
; 253  : 			this->ApplyElementStatEnergy(iIndex, iTargetIndex);
; 254  : 			break;
; 255  : 		case MSE_TYPE_STAT_STRENGTH:
; 256  : 			this->ApplyElementStatStrength(iIndex, iTargetIndex);
; 257  : 			break;
; 258  : 		case MSE_TYPE_STAT_DEXITERITY:
; 259  : 			this->ApplyElementStatDexiterity(iIndex, iTargetIndex);
; 260  : 			break;
; 261  : 		case MSE_TYPE_STAT_VITALITY:
; 262  : 			this->ApplyElementStatVitality(iIndex, iTargetIndex);
; 263  : 			break;
; 264  : 		case MSE_TYPE_REMOVE_SKILL:
; 265  : 			this->ApplyElementRemoveSkill(iIndex, iTargetIndex);

  000d1	ff 75 0c	 push	 DWORD PTR _iTargetIndex$[ebp]
  000d4	8b ce		 mov	 ecx, esi
  000d6	ff 75 08	 push	 DWORD PTR _iIndex$[ebp]
  000d9	e8 00 00 00 00	 call	 ?ApplyElementRemoveSkill@TMonsterSkillElement@@QAEHHH@Z ; TMonsterSkillElement::ApplyElementRemoveSkill
  000de	5e		 pop	 esi

; 287  : 			break;
; 288  : 	}
; 289  : }

  000df	5d		 pop	 ebp
  000e0	c2 08 00	 ret	 8
$LN20@ForceSkill:

; 266  : 			break;
; 267  : 		case MSE_TYPE_RESIST_SKILL:
; 268  : 			this->ApplyElementResistSkill(iIndex, iTargetIndex);

  000e3	ff 75 0c	 push	 DWORD PTR _iTargetIndex$[ebp]
  000e6	8b ce		 mov	 ecx, esi
  000e8	ff 75 08	 push	 DWORD PTR _iIndex$[ebp]
  000eb	e8 00 00 00 00	 call	 ?ApplyElementResistSkill@TMonsterSkillElement@@QAEHHH@Z ; TMonsterSkillElement::ApplyElementResistSkill
  000f0	5e		 pop	 esi

; 287  : 			break;
; 288  : 	}
; 289  : }

  000f1	5d		 pop	 ebp
  000f2	c2 08 00	 ret	 8
$LN21@ForceSkill:

; 269  : 			break;
; 270  : 		case MSE_TYPE_IMMUNE_SKILL:
; 271  : 			this->ApplyElementImmuneSkill(iIndex, iTargetIndex);

  000f5	ff 75 0c	 push	 DWORD PTR _iTargetIndex$[ebp]
  000f8	8b ce		 mov	 ecx, esi
  000fa	ff 75 08	 push	 DWORD PTR _iIndex$[ebp]
  000fd	e8 00 00 00 00	 call	 ?ApplyElementImmuneSkill@TMonsterSkillElement@@QAEHHH@Z ; TMonsterSkillElement::ApplyElementImmuneSkill
  00102	5e		 pop	 esi

; 287  : 			break;
; 288  : 	}
; 289  : }

  00103	5d		 pop	 ebp
  00104	c2 08 00	 ret	 8
$LN22@ForceSkill:

; 272  : 			break;
; 273  : 		case MSE_TYPE_TELEPORT_SKILL:
; 274  : 			this->ApplyElementTeleportSkill(iIndex, iTargetIndex);

  00107	ff 75 0c	 push	 DWORD PTR _iTargetIndex$[ebp]
  0010a	8b ce		 mov	 ecx, esi
  0010c	ff 75 08	 push	 DWORD PTR _iIndex$[ebp]
  0010f	e8 00 00 00 00	 call	 ?ApplyElementTeleportSkill@TMonsterSkillElement@@QAEHHH@Z ; TMonsterSkillElement::ApplyElementTeleportSkill
  00114	5e		 pop	 esi

; 287  : 			break;
; 288  : 	}
; 289  : }

  00115	5d		 pop	 ebp
  00116	c2 08 00	 ret	 8
$LN23@ForceSkill:

; 275  : 			break;
; 276  : 		case MSE_TYPE_DOUBLE_HP:
; 277  : 			this->ApplyElementDoubleHP(iIndex, iTargetIndex);

  00119	ff 75 0c	 push	 DWORD PTR _iTargetIndex$[ebp]
  0011c	8b ce		 mov	 ecx, esi
  0011e	ff 75 08	 push	 DWORD PTR _iIndex$[ebp]
  00121	e8 00 00 00 00	 call	 ?ApplyElementDoubleHP@TMonsterSkillElement@@QAEHHH@Z ; TMonsterSkillElement::ApplyElementDoubleHP
  00126	5e		 pop	 esi

; 287  : 			break;
; 288  : 	}
; 289  : }

  00127	5d		 pop	 ebp
  00128	c2 08 00	 ret	 8
$LN24@ForceSkill:

; 278  : 			break;
; 279  : 		case MSE_TYPE_POISON:
; 280  : 			this->ApplyElementPoison(iIndex, iTargetIndex);

  0012b	ff 75 0c	 push	 DWORD PTR _iTargetIndex$[ebp]
  0012e	8b ce		 mov	 ecx, esi
  00130	ff 75 08	 push	 DWORD PTR _iIndex$[ebp]
  00133	e8 00 00 00 00	 call	 ?ApplyElementPoison@TMonsterSkillElement@@QAEHHH@Z ; TMonsterSkillElement::ApplyElementPoison
  00138	5e		 pop	 esi

; 287  : 			break;
; 288  : 	}
; 289  : }

  00139	5d		 pop	 ebp
  0013a	c2 08 00	 ret	 8
$LN25@ForceSkill:

; 281  : 			break;
; 282  : 		case MSE_TYPE_NORMALATTACK:
; 283  : 			this->ApplyElementNormalAttack(iIndex, iTargetIndex);

  0013d	ff 75 0c	 push	 DWORD PTR _iTargetIndex$[ebp]
  00140	8b ce		 mov	 ecx, esi
  00142	ff 75 08	 push	 DWORD PTR _iIndex$[ebp]
  00145	e8 00 00 00 00	 call	 ?ApplyElementNormalAttack@TMonsterSkillElement@@QAEHHH@Z ; TMonsterSkillElement::ApplyElementNormalAttack
  0014a	5e		 pop	 esi

; 287  : 			break;
; 288  : 	}
; 289  : }

  0014b	5d		 pop	 ebp
  0014c	c2 08 00	 ret	 8
$LN26@ForceSkill:

; 284  : 			break;
; 285  : 		case MSE_TYPE_SPECIAL_IMMUNE:
; 286  : 			this->ApplyElementSpecialImmune(iIndex,iTargetIndex);

  0014f	ff 75 0c	 push	 DWORD PTR _iTargetIndex$[ebp]
  00152	8b ce		 mov	 ecx, esi
  00154	ff 75 08	 push	 DWORD PTR _iIndex$[ebp]
  00157	e8 00 00 00 00	 call	 ?ApplyElementSpecialImmune@TMonsterSkillElement@@QAEHHH@Z ; TMonsterSkillElement::ApplyElementSpecialImmune
$LN2@ForceSkill:
  0015c	5e		 pop	 esi

; 287  : 			break;
; 288  : 	}
; 289  : }

  0015d	5d		 pop	 ebp
  0015e	c2 08 00	 ret	 8
  00161	0f 1f 00	 npad	 3
$LN29@ForceSkill:
  00164	00 00 00 00	 DD	 $LN5@ForceSkill
  00168	00 00 00 00	 DD	 $LN2@ForceSkill
  0016c	00 00 00 00	 DD	 $LN7@ForceSkill
  00170	00 00 00 00	 DD	 $LN8@ForceSkill
  00174	00 00 00 00	 DD	 $LN9@ForceSkill
  00178	00 00 00 00	 DD	 $LN10@ForceSkill
  0017c	00 00 00 00	 DD	 $LN11@ForceSkill
  00180	00 00 00 00	 DD	 $LN12@ForceSkill
  00184	00 00 00 00	 DD	 $LN13@ForceSkill
  00188	00 00 00 00	 DD	 $LN14@ForceSkill
  0018c	00 00 00 00	 DD	 $LN2@ForceSkill
  00190	00 00 00 00	 DD	 $LN2@ForceSkill
  00194	00 00 00 00	 DD	 $LN2@ForceSkill
  00198	00 00 00 00	 DD	 $LN2@ForceSkill
  0019c	00 00 00 00	 DD	 $LN19@ForceSkill
  001a0	00 00 00 00	 DD	 $LN20@ForceSkill
  001a4	00 00 00 00	 DD	 $LN21@ForceSkill
  001a8	00 00 00 00	 DD	 $LN22@ForceSkill
  001ac	00 00 00 00	 DD	 $LN23@ForceSkill
  001b0	00 00 00 00	 DD	 $LN24@ForceSkill
  001b4	00 00 00 00	 DD	 $LN25@ForceSkill
  001b8	00 00 00 00	 DD	 $LN26@ForceSkill
?ForceSkillElement@TMonsterSkillElement@@UAEXHH@Z ENDP	; TMonsterSkillElement::ForceSkillElement
_TEXT	ENDS
; Function compile flags: /Ogtp
;	COMDAT ??0TSkillElement@@QAE@XZ
_TEXT	SEGMENT
??0TSkillElement@@QAE@XZ PROC				; TSkillElement::TSkillElement, COMDAT
; _this$ = ecx
  00000	c7 01 00 00 00
	00		 mov	 DWORD PTR [ecx], OFFSET ??_7TSkillElement@@6B@
  00006	8b c1		 mov	 eax, ecx
  00008	c3		 ret	 0
??0TSkillElement@@QAE@XZ ENDP				; TSkillElement::TSkillElement
_TEXT	ENDS
; Function compile flags: /Ogtp
; File c:\users\michel\desktop\source\gameserver\source\tskillelement.h
;	COMDAT ?ForceSkillElement@TSkillElement@@UAEXHH@Z
_TEXT	SEGMENT
_iIndex$ = 8						; size = 4
_iTargetIndex$ = 12					; size = 4
?ForceSkillElement@TSkillElement@@UAEXHH@Z PROC		; TSkillElement::ForceSkillElement, COMDAT
; _this$ = ecx

; 19   : 	virtual void ForceSkillElement(int iIndex, int iTargetIndex){return;}	// 0

  00000	c2 08 00	 ret	 8
?ForceSkillElement@TSkillElement@@UAEXHH@Z ENDP		; TSkillElement::ForceSkillElement
_TEXT	ENDS
; Function compile flags: /Ogtp
; File c:\users\michel\desktop\source\gameserver\source\tmonsterskillelement.cpp
;	COMDAT ?__empty_global_delete@@YAXPAXI@Z
_TEXT	SEGMENT
___formal$ = 8						; size = 4
___formal$ = 12						; size = 4
?__empty_global_delete@@YAXPAXI@Z PROC			; __empty_global_delete, COMDAT

  00000	c3		 ret	 0
?__empty_global_delete@@YAXPAXI@Z ENDP			; __empty_global_delete
_TEXT	ENDS
; Function compile flags: /Ogtp
; File c:\users\michel\desktop\source\gameserver\source\tmonsterskillelement.cpp
;	COMDAT ?__empty_global_delete@@YAXPAX@Z
_TEXT	SEGMENT
___formal$ = 8						; size = 4
?__empty_global_delete@@YAXPAX@Z PROC			; __empty_global_delete, COMDAT

  00000	c3		 ret	 0
?__empty_global_delete@@YAXPAX@Z ENDP			; __empty_global_delete
_TEXT	ENDS
END
