; Listing generated by Microsoft (R) Optimizing Compiler Version 19.00.23506.0 

	TITLE	C:\Users\Michel\Desktop\Source\GameServer\Source\TMonsterSkillUnit.cpp
	.686P
	.XMM
	include listing.inc
	.model	flat

INCLUDELIB LIBCMT
INCLUDELIB OLDNAMES

PUBLIC	?s_bDataLoad@TMonsterSkillUnit@@2HA		; TMonsterSkillUnit::s_bDataLoad
_BSS	SEGMENT
?s_bDataLoad@TMonsterSkillUnit@@2HA DD 01H DUP (?)	; TMonsterSkillUnit::s_bDataLoad
_BSS	ENDS
PUBLIC	?__empty_global_delete@@YAXPAX@Z		; __empty_global_delete
PUBLIC	?__empty_global_delete@@YAXPAXI@Z		; __empty_global_delete
PUBLIC	??0TMonsterSkillUnit@@QAE@XZ			; TMonsterSkillUnit::TMonsterSkillUnit
PUBLIC	??1TMonsterSkillUnit@@UAE@XZ			; TMonsterSkillUnit::~TMonsterSkillUnit
PUBLIC	?RunSkill@TMonsterSkillUnit@@QAEXHH@Z		; TMonsterSkillUnit::RunSkill
PUBLIC	?Reset@TMonsterSkillUnit@@QAEXXZ		; TMonsterSkillUnit::Reset
PUBLIC	?LoadData@TMonsterSkillUnit@@SAHPAD@Z		; TMonsterSkillUnit::LoadData
PUBLIC	?DelAllSkillUnit@TMonsterSkillUnit@@SAHXZ	; TMonsterSkillUnit::DelAllSkillUnit
PUBLIC	?FindSkillUnit@TMonsterSkillUnit@@SAPAV1@H@Z	; TMonsterSkillUnit::FindSkillUnit
PUBLIC	??_GTMonsterSkillUnit@@UAEPAXI@Z		; TMonsterSkillUnit::`scalar deleting destructor'
PUBLIC	??_C@_00CNPNBAHC@?$AA@				; `string'
PUBLIC	?s_MonsterSkillUnitArray@TMonsterSkillUnit@@2PAV1@A ; TMonsterSkillUnit::s_MonsterSkillUnitArray
PUBLIC	??_7TMonsterSkillUnit@@6B@			; TMonsterSkillUnit::`vftable'
PUBLIC	??_C@_0DJ@PCBEFLCK@?$FLMonster?5Skill?5Unit?$FN?5?9?5File?5load@ ; `string'
PUBLIC	??_C@_01KDCPPGHE@r?$AA@				; `string'
PUBLIC	??_C@_0CG@GBNGOID@?$FLMonster?5Skill?5Unit?$FN?5?9?5Can?8t?5Ope@ ; `string'
PUBLIC	??_C@_03JBJLGPFL@end?$AA@			; `string'
PUBLIC	??_C@_0DB@DEDEIALP@?$FLMonster?5SkillUnit?$FN?5?9?5Unit?$CI?$CFd?$CJ?5E@ ; `string'
PUBLIC	??_C@_0FG@GEINPOHG@?$KB?ZNum?3?$CFd?0Name?3?$CFs?0TType?3?$CFd?0SType?3@ ; `string'
PUBLIC	??_C@_0DD@HMCEGHBH@?$FLMonster?5Skill?5Unit?$FN?5?9?5Found?5Ski@ ; `string'
PUBLIC	??_C@_0DD@HAEDKJID@?$FLMonster?5Skill?5Unit?$FN?5?9?5Not?5Found@ ; `string'
PUBLIC	??_C@_0CJ@ODDJOAOF@?$FLMonster?5Skill?5Unit?$FN?5?9?5?$CFs?5file?5i@ ; `string'
PUBLIC	??_R0K@8					; unsigned long `RTTI Type Descriptor'
PUBLIC	??_C@_0DL@OOGJKOMD@?$FLMonster?5Skill?5Unit?$FN?5?9?5Loading?5E@ ; `string'
PUBLIC	??_C@_0CJ@POAODADC@?$FLMonster?5SkillUnit?$FN?5SkillElement@ ; `string'
PUBLIC	??_R4TMonsterSkillUnit@@6B@			; TMonsterSkillUnit::`RTTI Complete Object Locator'
PUBLIC	??_R0?AVTMonsterSkillUnit@@@8			; TMonsterSkillUnit `RTTI Type Descriptor'
PUBLIC	??_R3TMonsterSkillUnit@@8			; TMonsterSkillUnit::`RTTI Class Hierarchy Descriptor'
PUBLIC	??_R2TMonsterSkillUnit@@8			; TMonsterSkillUnit::`RTTI Base Class Array'
PUBLIC	??_R1A@?0A@EA@TMonsterSkillUnit@@8		; TMonsterSkillUnit::`RTTI Base Class Descriptor at (0,-1,0,64)'
PUBLIC	??_R13?0A@EA@TSkillUnit@@8			; TSkillUnit::`RTTI Base Class Descriptor at (4,-1,0,64)'
PUBLIC	??_R0?AVTSkillUnit@@@8				; TSkillUnit `RTTI Type Descriptor'
PUBLIC	??_R3TSkillUnit@@8				; TSkillUnit::`RTTI Class Hierarchy Descriptor'
PUBLIC	??_R2TSkillUnit@@8				; TSkillUnit::`RTTI Base Class Array'
PUBLIC	??_R1A@?0A@EA@TSkillUnit@@8			; TSkillUnit::`RTTI Base Class Descriptor at (0,-1,0,64)'
EXTRN	??_L@YGXPAXIIP6EX0@Z1@Z:PROC			; `eh vector constructor iterator'
EXTRN	??_M@YGXPAXIIP6EX0@Z@Z:PROC			; `eh vector destructor iterator'
EXTRN	??3@YAXPAXI@Z:PROC				; operator delete
EXTRN	_atexit:PROC
EXTRN	_isalpha:PROC
EXTRN	_isdigit:PROC
EXTRN	_isspace:PROC
EXTRN	_isalnum:PROC
EXTRN	__imp__wsprintfA:PROC
EXTRN	_fclose:PROC
EXTRN	_fgetc:PROC
EXTRN	_fopen:PROC
EXTRN	_getc:PROC
EXTRN	_ungetc:PROC
EXTRN	_atof:PROC
EXTRN	?FindSkillElement@TMonsterSkillElement@@SAPAV1@H@Z:PROC ; TMonsterSkillElement::FindSkillElement
EXTRN	??_ETMonsterSkillUnit@@UAEPAXI@Z:PROC		; TMonsterSkillUnit::`vector deleting destructor'
EXTRN	?MsgBox@@YAXPADZZ:PROC				; MsgBox
EXTRN	@__security_check_cookie@4:PROC
EXTRN	___CxxFrameHandler3:PROC
EXTRN	_memset:PROC
EXTRN	??_7type_info@@6B@:QWORD			; type_info::`vftable'
EXTRN	?LogAddC@@3P6AXEPADZZA:DWORD			; LogAddC
EXTRN	___security_cookie:DWORD
EXTRN	__fltused:DWORD
_BSS	SEGMENT
?s_MonsterSkillUnitArray@TMonsterSkillUnit@@2PAV1@A DB 03520H DUP (?) ; TMonsterSkillUnit::s_MonsterSkillUnitArray
?SMDFile@@3PAU_iobuf@@A DD 01H DUP (?)			; SMDFile
?TokenNumber@@3MA DD 01H DUP (?)			; TokenNumber
?TokenString@@3PADA DB 064H DUP (?)			; TokenString
?CurrentToken@@3W4SMDToken@@A DD 01H DUP (?)		; CurrentToken
_BSS	ENDS
CRT$XCU	SEGMENT
??s_MonsterSkillUnitArray$initializer$@TMonsterSkillUnit@@2P6AXXZA@@3P6AXXZA DD FLAT:??__E?s_MonsterSkillUnitArray@TMonsterSkillUnit@@2PAV1@A@@YAXXZ ; ??s_MonsterSkillUnitArray$initializer$@TMonsterSkillUnit@@2P6AXXZA@@3P6AXXZA
CRT$XCU	ENDS
;	COMDAT ??_R1A@?0A@EA@TSkillUnit@@8
rdata$r	SEGMENT
??_R1A@?0A@EA@TSkillUnit@@8 DD FLAT:??_R0?AVTSkillUnit@@@8 ; TSkillUnit::`RTTI Base Class Descriptor at (0,-1,0,64)'
	DD	00H
	DD	00H
	DD	0ffffffffH
	DD	00H
	DD	040H
	DD	FLAT:??_R3TSkillUnit@@8
rdata$r	ENDS
;	COMDAT ??_R2TSkillUnit@@8
rdata$r	SEGMENT
??_R2TSkillUnit@@8 DD FLAT:??_R1A@?0A@EA@TSkillUnit@@8	; TSkillUnit::`RTTI Base Class Array'
rdata$r	ENDS
;	COMDAT ??_R3TSkillUnit@@8
rdata$r	SEGMENT
??_R3TSkillUnit@@8 DD 00H				; TSkillUnit::`RTTI Class Hierarchy Descriptor'
	DD	00H
	DD	01H
	DD	FLAT:??_R2TSkillUnit@@8
rdata$r	ENDS
;	COMDAT ??_R0?AVTSkillUnit@@@8
data$r	SEGMENT
??_R0?AVTSkillUnit@@@8 DD FLAT:??_7type_info@@6B@	; TSkillUnit `RTTI Type Descriptor'
	DD	00H
	DB	'.?AVTSkillUnit@@', 00H
data$r	ENDS
;	COMDAT ??_R13?0A@EA@TSkillUnit@@8
rdata$r	SEGMENT
??_R13?0A@EA@TSkillUnit@@8 DD FLAT:??_R0?AVTSkillUnit@@@8 ; TSkillUnit::`RTTI Base Class Descriptor at (4,-1,0,64)'
	DD	00H
	DD	04H
	DD	0ffffffffH
	DD	00H
	DD	040H
	DD	FLAT:??_R3TSkillUnit@@8
rdata$r	ENDS
;	COMDAT ??_R1A@?0A@EA@TMonsterSkillUnit@@8
rdata$r	SEGMENT
??_R1A@?0A@EA@TMonsterSkillUnit@@8 DD FLAT:??_R0?AVTMonsterSkillUnit@@@8 ; TMonsterSkillUnit::`RTTI Base Class Descriptor at (0,-1,0,64)'
	DD	01H
	DD	00H
	DD	0ffffffffH
	DD	00H
	DD	040H
	DD	FLAT:??_R3TMonsterSkillUnit@@8
rdata$r	ENDS
;	COMDAT ??_R2TMonsterSkillUnit@@8
rdata$r	SEGMENT
??_R2TMonsterSkillUnit@@8 DD FLAT:??_R1A@?0A@EA@TMonsterSkillUnit@@8 ; TMonsterSkillUnit::`RTTI Base Class Array'
	DD	FLAT:??_R13?0A@EA@TSkillUnit@@8
rdata$r	ENDS
;	COMDAT ??_R3TMonsterSkillUnit@@8
rdata$r	SEGMENT
??_R3TMonsterSkillUnit@@8 DD 00H			; TMonsterSkillUnit::`RTTI Class Hierarchy Descriptor'
	DD	00H
	DD	02H
	DD	FLAT:??_R2TMonsterSkillUnit@@8
rdata$r	ENDS
;	COMDAT ??_R0?AVTMonsterSkillUnit@@@8
data$r	SEGMENT
??_R0?AVTMonsterSkillUnit@@@8 DD FLAT:??_7type_info@@6B@ ; TMonsterSkillUnit `RTTI Type Descriptor'
	DD	00H
	DB	'.?AVTMonsterSkillUnit@@', 00H
data$r	ENDS
;	COMDAT ??_R4TMonsterSkillUnit@@6B@
rdata$r	SEGMENT
??_R4TMonsterSkillUnit@@6B@ DD 00H			; TMonsterSkillUnit::`RTTI Complete Object Locator'
	DD	00H
	DD	00H
	DD	FLAT:??_R0?AVTMonsterSkillUnit@@@8
	DD	FLAT:??_R3TMonsterSkillUnit@@8
rdata$r	ENDS
;	COMDAT ??_C@_0CJ@POAODADC@?$FLMonster?5SkillUnit?$FN?5SkillElement@
CONST	SEGMENT
??_C@_0CJ@POAODADC@?$FLMonster?5SkillUnit?$FN?5SkillElement@ DB '[Monster'
	DB	' SkillUnit] SkillElement is NULL', 00H	; `string'
CONST	ENDS
;	COMDAT ??_C@_0DL@OOGJKOMD@?$FLMonster?5Skill?5Unit?$FN?5?9?5Loading?5E@
CONST	SEGMENT
??_C@_0DL@OOGJKOMD@?$FLMonster?5Skill?5Unit?$FN?5?9?5Loading?5E@ DB '[Mon'
	DB	'ster Skill Unit] - Loading Exception Error (%s) File. ', 00H ; `string'
CONST	ENDS
;	COMDAT ??_R0K@8
data$r	SEGMENT
??_R0K@8 DD	FLAT:??_7type_info@@6B@			; unsigned long `RTTI Type Descriptor'
	DD	00H
	DB	'.K', 00H
data$r	ENDS
;	COMDAT ??_C@_0CJ@ODDJOAOF@?$FLMonster?5Skill?5Unit?$FN?5?9?5?$CFs?5file?5i@
CONST	SEGMENT
??_C@_0CJ@ODDJOAOF@?$FLMonster?5Skill?5Unit?$FN?5?9?5?$CFs?5file?5i@ DB '['
	DB	'Monster Skill Unit] - %s file is Loaded', 00H ; `string'
CONST	ENDS
;	COMDAT ??_C@_0DD@HAEDKJID@?$FLMonster?5Skill?5Unit?$FN?5?9?5Not?5Found@
CONST	SEGMENT
??_C@_0DD@HAEDKJID@?$FLMonster?5Skill?5Unit?$FN?5?9?5Not?5Found@ DB '[Mon'
	DB	'ster Skill Unit] - Not Found SkillElement (%d)', 00H ; `string'
CONST	ENDS
;	COMDAT ??_C@_0DD@HMCEGHBH@?$FLMonster?5Skill?5Unit?$FN?5?9?5Found?5Ski@
CONST	SEGMENT
??_C@_0DD@HMCEGHBH@?$FLMonster?5Skill?5Unit?$FN?5?9?5Found?5Ski@ DB '[Mon'
	DB	'ster Skill Unit] - Found SkillElement (%d)(%s)', 00H ; `string'
CONST	ENDS
;	COMDAT ??_C@_0FG@GEINPOHG@?$KB?ZNum?3?$CFd?0Name?3?$CFs?0TType?3?$CFd?0SType?3@
CONST	SEGMENT
??_C@_0FG@GEINPOHG@?$KB?ZNum?3?$CFd?0Name?3?$CFs?0TType?3?$CFd?0SType?3@ DB 0a1H
	DB	0daH, 'Num:%d,Name:%s,TType:%d,SType:%d,SValue:%d,Delay:%d, E0'
	DB	':%d,E1:%d,E2:%d,E3:%d,E4:%d', 0aH, 00H	; `string'
CONST	ENDS
;	COMDAT ??_C@_0DB@DEDEIALP@?$FLMonster?5SkillUnit?$FN?5?9?5Unit?$CI?$CFd?$CJ?5E@
CONST	SEGMENT
??_C@_0DB@DEDEIALP@?$FLMonster?5SkillUnit?$FN?5?9?5Unit?$CI?$CFd?$CJ?5E@ DB '['
	DB	'Monster SkillUnit] - Unit(%d) Error (%s) File. ', 00H ; `string'
CONST	ENDS
;	COMDAT ??_C@_03JBJLGPFL@end?$AA@
CONST	SEGMENT
??_C@_03JBJLGPFL@end?$AA@ DB 'end', 00H			; `string'
CONST	ENDS
;	COMDAT ??_C@_0CG@GBNGOID@?$FLMonster?5Skill?5Unit?$FN?5?9?5Can?8t?5Ope@
CONST	SEGMENT
??_C@_0CG@GBNGOID@?$FLMonster?5Skill?5Unit?$FN?5?9?5Can?8t?5Ope@ DB '[Mon'
	DB	'ster Skill Unit] - Can''t Open %s ', 00H	; `string'
CONST	ENDS
;	COMDAT ??_C@_01KDCPPGHE@r?$AA@
CONST	SEGMENT
??_C@_01KDCPPGHE@r?$AA@ DB 'r', 00H			; `string'
CONST	ENDS
;	COMDAT ??_C@_0DJ@PCBEFLCK@?$FLMonster?5Skill?5Unit?$FN?5?9?5File?5load@
CONST	SEGMENT
??_C@_0DJ@PCBEFLCK@?$FLMonster?5Skill?5Unit?$FN?5?9?5File?5load@ DB '[Mon'
	DB	'ster Skill Unit] - File load error : File Name Error', 00H ; `string'
CONST	ENDS
;	COMDAT ??_7TMonsterSkillUnit@@6B@
CONST	SEGMENT
??_7TMonsterSkillUnit@@6B@ DD FLAT:??_R4TMonsterSkillUnit@@6B@ ; TMonsterSkillUnit::`vftable'
	DD	FLAT:??_ETMonsterSkillUnit@@UAEPAXI@Z
CONST	ENDS
;	COMDAT ??_C@_00CNPNBAHC@?$AA@
CONST	SEGMENT
??_C@_00CNPNBAHC@?$AA@ DB 00H				; `string'
CONST	ENDS
;	COMDAT xdata$x
xdata$x	SEGMENT
__catchsym$?LoadData@TMonsterSkillUnit@@SAHPAD@Z$2 DD 00H
	DD	FLAT:??_R0K@8
	DD	00H
	DD	FLAT:__catch$?LoadData@TMonsterSkillUnit@@SAHPAD@Z$0
__unwindtable$?LoadData@TMonsterSkillUnit@@SAHPAD@Z DD 0ffffffffH
	DD	00H
	DD	0ffffffffH
	DD	00H
__tryblocktable$?LoadData@TMonsterSkillUnit@@SAHPAD@Z DD 00H
	DD	00H
	DD	01H
	DD	01H
	DD	FLAT:__catchsym$?LoadData@TMonsterSkillUnit@@SAHPAD@Z$2
__ehfuncinfo$?LoadData@TMonsterSkillUnit@@SAHPAD@Z DD 019930522H
	DD	02H
	DD	FLAT:__unwindtable$?LoadData@TMonsterSkillUnit@@SAHPAD@Z
	DD	01H
	DD	FLAT:__tryblocktable$?LoadData@TMonsterSkillUnit@@SAHPAD@Z
	DD	2 DUP(00H)
	DD	00H
	DD	01H
xdata$x	ENDS
; Function compile flags: /Ogtp
;	COMDAT ??__F?s_MonsterSkillUnitArray@TMonsterSkillUnit@@2PAV1@A@@YAXXZ
text$yd	SEGMENT
??__F?s_MonsterSkillUnitArray@TMonsterSkillUnit@@2PAV1@A@@YAXXZ PROC ; `dynamic atexit destructor for 'TMonsterSkillUnit::s_MonsterSkillUnitArray'', COMDAT
  00000	68 00 00 00 00	 push	 OFFSET ??1TMonsterSkillUnit@@UAE@XZ ; TMonsterSkillUnit::~TMonsterSkillUnit
  00005	68 c8 00 00 00	 push	 200			; 000000c8H
  0000a	6a 44		 push	 68			; 00000044H
  0000c	68 00 00 00 00	 push	 OFFSET ?s_MonsterSkillUnitArray@TMonsterSkillUnit@@2PAV1@A ; TMonsterSkillUnit::s_MonsterSkillUnitArray
  00011	e8 00 00 00 00	 call	 ??_M@YGXPAXIIP6EX0@Z@Z
  00016	c3		 ret	 0
??__F?s_MonsterSkillUnitArray@TMonsterSkillUnit@@2PAV1@A@@YAXXZ ENDP ; `dynamic atexit destructor for 'TMonsterSkillUnit::s_MonsterSkillUnitArray''
text$yd	ENDS
; Function compile flags: /Ogtp
; File c:\users\michel\desktop\source\gameserver\source\tmonsterskillunit.cpp
;	COMDAT ??__E?s_MonsterSkillUnitArray@TMonsterSkillUnit@@2PAV1@A@@YAXXZ
text$di	SEGMENT
??__E?s_MonsterSkillUnitArray@TMonsterSkillUnit@@2PAV1@A@@YAXXZ PROC ; `dynamic initializer for 'TMonsterSkillUnit::s_MonsterSkillUnitArray'', COMDAT

; 12   : TMonsterSkillUnit TMonsterSkillUnit::s_MonsterSkillUnitArray[MAX_MONSTER_SKILL_UNIT_ARRAY];

  00000	68 00 00 00 00	 push	 OFFSET ??1TMonsterSkillUnit@@UAE@XZ ; TMonsterSkillUnit::~TMonsterSkillUnit
  00005	68 00 00 00 00	 push	 OFFSET ??0TMonsterSkillUnit@@QAE@XZ ; TMonsterSkillUnit::TMonsterSkillUnit
  0000a	68 c8 00 00 00	 push	 200			; 000000c8H
  0000f	6a 44		 push	 68			; 00000044H
  00011	68 00 00 00 00	 push	 OFFSET ?s_MonsterSkillUnitArray@TMonsterSkillUnit@@2PAV1@A ; TMonsterSkillUnit::s_MonsterSkillUnitArray
  00016	e8 00 00 00 00	 call	 ??_L@YGXPAXIIP6EX0@Z1@Z
  0001b	68 00 00 00 00	 push	 OFFSET ??__F?s_MonsterSkillUnitArray@TMonsterSkillUnit@@2PAV1@A@@YAXXZ ; `dynamic atexit destructor for 'TMonsterSkillUnit::s_MonsterSkillUnitArray''
  00020	e8 00 00 00 00	 call	 _atexit
  00025	59		 pop	 ecx
  00026	c3		 ret	 0
??__E?s_MonsterSkillUnitArray@TMonsterSkillUnit@@2PAV1@A@@YAXXZ ENDP ; `dynamic initializer for 'TMonsterSkillUnit::s_MonsterSkillUnitArray''
text$di	ENDS
; Function compile flags: /Ogtp
; File c:\users\michel\desktop\source\gameserver\include\readscript.h
;	COMDAT ?GetToken@@YA?AW4SMDToken@@XZ
_TEXT	SEGMENT
_TempString$ = -104					; size = 100
__$ArrayPad$ = -4					; size = 4
?GetToken@@YA?AW4SMDToken@@XZ PROC			; GetToken, COMDAT

; 24   : {

  00000	55		 push	 ebp
  00001	8b ec		 mov	 ebp, esp
  00003	83 ec 68	 sub	 esp, 104		; 00000068H
  00006	a1 00 00 00 00	 mov	 eax, DWORD PTR ___security_cookie
  0000b	33 c5		 xor	 eax, ebp
  0000d	89 45 fc	 mov	 DWORD PTR __$ArrayPad$[ebp], eax

; 25   : 	int ch;
; 26   : 	char* p;
; 27   : 	char TempString[100];
; 28   : 
; 29   : 	TokenString[0]=0;

  00010	c6 05 00 00 00
	00 00		 mov	 BYTE PTR ?TokenString@@3PADA, 0
  00017	53		 push	 ebx
  00018	0f 1f 84 00 00
	00 00 00	 npad	 8
$LL4@GetToken:

; 30   : 
; 31   : 	do
; 32   : 	{
; 33   : 		if ((ch=fgetc(SMDFile)) == -1)

  00020	ff 35 00 00 00
	00		 push	 DWORD PTR ?SMDFile@@3PAU_iobuf@@A
  00026	e8 00 00 00 00	 call	 _fgetc
  0002b	8b d8		 mov	 ebx, eax
  0002d	83 c4 04	 add	 esp, 4
  00030	83 fb ff	 cmp	 ebx, -1
  00033	74 5d		 je	 SHORT $LN43@GetToken

; 34   : 		{
; 35   : 			return END;	// End of FILE (EOF)
; 36   : 		}
; 37   : 		else
; 38   : 		{	
; 39   : 			if (ch=='/')		// this is /

  00035	83 fb 2f	 cmp	 ebx, 47			; 0000002fH
  00038	75 30		 jne	 SHORT $LN2@GetToken

; 40   : 			{
; 41   : 				if((ch=fgetc(SMDFile)) == '/')

  0003a	ff 35 00 00 00
	00		 push	 DWORD PTR ?SMDFile@@3PAU_iobuf@@A
  00040	e8 00 00 00 00	 call	 _fgetc
  00045	8b d8		 mov	 ebx, eax
  00047	83 c4 04	 add	 esp, 4
  0004a	83 fb 2f	 cmp	 ebx, 47			; 0000002fH
  0004d	75 1b		 jne	 SHORT $LN2@GetToken
  0004f	90		 npad	 1
$LL5@GetToken:

; 42   : 				{
; 43   : 					while ((ch != '\n') && (ch != -1))	// End of Line (EOL)

  00050	83 fb ff	 cmp	 ebx, -1
  00053	74 3d		 je	 SHORT $LN43@GetToken

; 44   : 					{
; 45   : 						ch=fgetc(SMDFile);

  00055	ff 35 00 00 00
	00		 push	 DWORD PTR ?SMDFile@@3PAU_iobuf@@A
  0005b	e8 00 00 00 00	 call	 _fgetc
  00060	8b d8		 mov	 ebx, eax
  00062	83 c4 04	 add	 esp, 4
  00065	83 fb 0a	 cmp	 ebx, 10			; 0000000aH
  00068	75 e6		 jne	 SHORT $LL5@GetToken
$LN2@GetToken:

; 51   : 					}
; 52   : 				}
; 53   : 			}
; 54   : 		}
; 55   : 	}
; 56   : 	while (isspace(ch) != 0);

  0006a	53		 push	 ebx
  0006b	e8 00 00 00 00	 call	 _isspace
  00070	83 c4 04	 add	 esp, 4
  00073	85 c0		 test	 eax, eax
  00075	75 a9		 jne	 SHORT $LL4@GetToken

; 57   : 
; 58   : 	
; 59   : 	switch(ch)

  00077	8d 43 de	 lea	 eax, DWORD PTR [ebx-34]
  0007a	56		 push	 esi
  0007b	83 f8 5b	 cmp	 eax, 91			; 0000005bH
  0007e	0f 87 89 01 00
	00		 ja	 $LN29@GetToken
  00084	0f b6 80 00 00
	00 00		 movzx	 eax, BYTE PTR $LN58@GetToken[eax]
  0008b	ff 24 85 00 00
	00 00		 jmp	 DWORD PTR $LN64@GetToken[eax*4]
$LN43@GetToken:

; 46   : 					}
; 47   : 	
; 48   : 					if (ch == -1)
; 49   : 					{
; 50   : 						return END;	// End of FILE

  00092	b8 02 00 00 00	 mov	 eax, 2
  00097	5b		 pop	 ebx

; 143  : 		}
; 144  : 		else
; 145  : 		{
; 146  : 			return CurrentToken = SMD_ERROR; // '<'
; 147  : 		}
; 148  : 		break;
; 149  : 
; 150  : 	}
; 151  : 
; 152  : 	return NAME;
; 153  : }

  00098	8b 4d fc	 mov	 ecx, DWORD PTR __$ArrayPad$[ebp]
  0009b	33 cd		 xor	 ecx, ebp
  0009d	e8 00 00 00 00	 call	 @__security_check_cookie@4
  000a2	8b e5		 mov	 esp, ebp
  000a4	5d		 pop	 ebp
  000a5	c3		 ret	 0
$LN20@GetToken:
  000a6	5e		 pop	 esi

; 60   : 	{
; 61   : 
; 62   : 	case 0x23:	// #
; 63   : 		return CurrentToken=COMMAND;

  000a7	c7 05 00 00 00
	00 23 00 00 00	 mov	 DWORD PTR ?CurrentToken@@3W4SMDToken@@A, 35 ; 00000023H
  000b1	b8 23 00 00 00	 mov	 eax, 35			; 00000023H
  000b6	5b		 pop	 ebx

; 143  : 		}
; 144  : 		else
; 145  : 		{
; 146  : 			return CurrentToken = SMD_ERROR; // '<'
; 147  : 		}
; 148  : 		break;
; 149  : 
; 150  : 	}
; 151  : 
; 152  : 	return NAME;
; 153  : }

  000b7	8b 4d fc	 mov	 ecx, DWORD PTR __$ArrayPad$[ebp]
  000ba	33 cd		 xor	 ecx, ebp
  000bc	e8 00 00 00 00	 call	 @__security_check_cookie@4
  000c1	8b e5		 mov	 esp, ebp
  000c3	5d		 pop	 ebp
  000c4	c3		 ret	 0
$LN21@GetToken:
  000c5	5e		 pop	 esi

; 64   : 		break;
; 65   : 	
; 66   : 	case 0x3B:	// ;
; 67   : 		return CurrentToken=SEMICOLON;

  000c6	c7 05 00 00 00
	00 3b 00 00 00	 mov	 DWORD PTR ?CurrentToken@@3W4SMDToken@@A, 59 ; 0000003bH
  000d0	b8 3b 00 00 00	 mov	 eax, 59			; 0000003bH
  000d5	5b		 pop	 ebx

; 143  : 		}
; 144  : 		else
; 145  : 		{
; 146  : 			return CurrentToken = SMD_ERROR; // '<'
; 147  : 		}
; 148  : 		break;
; 149  : 
; 150  : 	}
; 151  : 
; 152  : 	return NAME;
; 153  : }

  000d6	8b 4d fc	 mov	 ecx, DWORD PTR __$ArrayPad$[ebp]
  000d9	33 cd		 xor	 ecx, ebp
  000db	e8 00 00 00 00	 call	 @__security_check_cookie@4
  000e0	8b e5		 mov	 esp, ebp
  000e2	5d		 pop	 ebp
  000e3	c3		 ret	 0
$LN22@GetToken:
  000e4	5e		 pop	 esi

; 68   : 		break;
; 69   : 	
; 70   : 	case 0x2C:	// ,
; 71   : 
; 72   : 		return CurrentToken=COMMA;

  000e5	c7 05 00 00 00
	00 2c 00 00 00	 mov	 DWORD PTR ?CurrentToken@@3W4SMDToken@@A, 44 ; 0000002cH
  000ef	b8 2c 00 00 00	 mov	 eax, 44			; 0000002cH
  000f4	5b		 pop	 ebx

; 143  : 		}
; 144  : 		else
; 145  : 		{
; 146  : 			return CurrentToken = SMD_ERROR; // '<'
; 147  : 		}
; 148  : 		break;
; 149  : 
; 150  : 	}
; 151  : 
; 152  : 	return NAME;
; 153  : }

  000f5	8b 4d fc	 mov	 ecx, DWORD PTR __$ArrayPad$[ebp]
  000f8	33 cd		 xor	 ecx, ebp
  000fa	e8 00 00 00 00	 call	 @__security_check_cookie@4
  000ff	8b e5		 mov	 esp, ebp
  00101	5d		 pop	 ebp
  00102	c3		 ret	 0
$LN23@GetToken:
  00103	5e		 pop	 esi

; 73   : 		break;
; 74   : 	
; 75   : 	case 0x7B:	// {
; 76   : 		return CurrentToken = LP;

  00104	c7 05 00 00 00
	00 7b 00 00 00	 mov	 DWORD PTR ?CurrentToken@@3W4SMDToken@@A, 123 ; 0000007bH
  0010e	b8 7b 00 00 00	 mov	 eax, 123		; 0000007bH
  00113	5b		 pop	 ebx

; 143  : 		}
; 144  : 		else
; 145  : 		{
; 146  : 			return CurrentToken = SMD_ERROR; // '<'
; 147  : 		}
; 148  : 		break;
; 149  : 
; 150  : 	}
; 151  : 
; 152  : 	return NAME;
; 153  : }

  00114	8b 4d fc	 mov	 ecx, DWORD PTR __$ArrayPad$[ebp]
  00117	33 cd		 xor	 ecx, ebp
  00119	e8 00 00 00 00	 call	 @__security_check_cookie@4
  0011e	8b e5		 mov	 esp, ebp
  00120	5d		 pop	 ebp
  00121	c3		 ret	 0
$LN24@GetToken:
  00122	5e		 pop	 esi

; 77   : 		break;
; 78   : 
; 79   : 	case 0x7D:	// }
; 80   : 		return CurrentToken = RP;

  00123	c7 05 00 00 00
	00 7d 00 00 00	 mov	 DWORD PTR ?CurrentToken@@3W4SMDToken@@A, 125 ; 0000007dH
  0012d	b8 7d 00 00 00	 mov	 eax, 125		; 0000007dH
  00132	5b		 pop	 ebx

; 143  : 		}
; 144  : 		else
; 145  : 		{
; 146  : 			return CurrentToken = SMD_ERROR; // '<'
; 147  : 		}
; 148  : 		break;
; 149  : 
; 150  : 	}
; 151  : 
; 152  : 	return NAME;
; 153  : }

  00133	8b 4d fc	 mov	 ecx, DWORD PTR __$ArrayPad$[ebp]
  00136	33 cd		 xor	 ecx, ebp
  00138	e8 00 00 00 00	 call	 @__security_check_cookie@4
  0013d	8b e5		 mov	 esp, ebp
  0013f	5d		 pop	 ebp
  00140	c3		 ret	 0
$LN25@GetToken:

; 81   : 		break;
; 82   : 	// Nice Index Table :)	by Deathway
; 83   : 	// Numbers Case
; 84   : 	case 0x2D:	//-
; 85   : 	case 0x2E:	//.
; 86   : 	case '0':	//0
; 87   : 	case '1':	//1
; 88   : 	case '2':	//2
; 89   : 	case '3':	//3
; 90   : 	case '4':	//4		
; 91   : 	case '5':	//5
; 92   : 	case '6':	//6
; 93   : 	case '7':	//7
; 94   : 	case '8':	//8
; 95   : 	case '9':	//9
; 96   : 		ungetc(ch, SMDFile);

  00141	ff 35 00 00 00
	00		 push	 DWORD PTR ?SMDFile@@3PAU_iobuf@@A
  00147	53		 push	 ebx
  00148	e8 00 00 00 00	 call	 _ungetc

; 97   : 		p = TempString;
; 98   : 		
; 99   : 		while (((ch=getc(SMDFile)) != -1) && ((ch == 0x2E) || (isdigit(ch) != 0) || (ch == 0x2D)))  // 2e '.'  2D '-'

  0014d	ff 35 00 00 00
	00		 push	 DWORD PTR ?SMDFile@@3PAU_iobuf@@A
  00153	8d 75 98	 lea	 esi, DWORD PTR _TempString$[ebp]
  00156	e8 00 00 00 00	 call	 _getc
  0015b	8b d8		 mov	 ebx, eax
  0015d	83 c4 0c	 add	 esp, 12			; 0000000cH
  00160	83 fb ff	 cmp	 ebx, -1
  00163	74 2f		 je	 SHORT $LN59@GetToken
$LL9@GetToken:
  00165	83 fb 2e	 cmp	 ebx, 46			; 0000002eH
  00168	74 12		 je	 SHORT $LN26@GetToken
  0016a	53		 push	 ebx
  0016b	e8 00 00 00 00	 call	 _isdigit
  00170	83 c4 04	 add	 esp, 4
  00173	85 c0		 test	 eax, eax
  00175	75 05		 jne	 SHORT $LN26@GetToken
  00177	83 fb 2d	 cmp	 ebx, 45			; 0000002dH
  0017a	75 18		 jne	 SHORT $LN59@GetToken
$LN26@GetToken:
  0017c	ff 35 00 00 00
	00		 push	 DWORD PTR ?SMDFile@@3PAU_iobuf@@A

; 100  : 		{
; 101  : 			*p = ch;	// Construct a String

  00182	88 1e		 mov	 BYTE PTR [esi], bl

; 102  : 			p++;

  00184	46		 inc	 esi
  00185	e8 00 00 00 00	 call	 _getc
  0018a	8b d8		 mov	 ebx, eax
  0018c	83 c4 04	 add	 esp, 4
  0018f	83 fb ff	 cmp	 ebx, -1
  00192	75 d1		 jne	 SHORT $LL9@GetToken
$LN59@GetToken:

; 103  : 		}		
; 104  : 		*p = 0;
; 105  : 		TokenNumber = (float)atof( TempString);	// Select the first Byte as Main ID

  00194	8d 45 98	 lea	 eax, DWORD PTR _TempString$[ebp]
  00197	c6 06 00	 mov	 BYTE PTR [esi], 0
  0019a	50		 push	 eax
  0019b	e8 00 00 00 00	 call	 _atof
  001a0	83 c4 04	 add	 esp, 4

; 106  : 		return CurrentToken  = NUMBER ;

  001a3	c7 05 00 00 00
	00 01 00 00 00	 mov	 DWORD PTR ?CurrentToken@@3W4SMDToken@@A, 1
  001ad	d9 1d 00 00 00
	00		 fstp	 DWORD PTR ?TokenNumber@@3MA
  001b3	b8 01 00 00 00	 mov	 eax, 1
  001b8	5e		 pop	 esi
  001b9	5b		 pop	 ebx

; 143  : 		}
; 144  : 		else
; 145  : 		{
; 146  : 			return CurrentToken = SMD_ERROR; // '<'
; 147  : 		}
; 148  : 		break;
; 149  : 
; 150  : 	}
; 151  : 
; 152  : 	return NAME;
; 153  : }

  001ba	8b 4d fc	 mov	 ecx, DWORD PTR __$ArrayPad$[ebp]
  001bd	33 cd		 xor	 ecx, ebp
  001bf	e8 00 00 00 00	 call	 @__security_check_cookie@4
  001c4	8b e5		 mov	 esp, ebp
  001c6	5d		 pop	 ebp
  001c7	c3		 ret	 0
$LN27@GetToken:

; 107  : 		break;
; 108  : 
; 109  : 	case '\"':	// "	String Case
; 110  : 		p=&TokenString[0];
; 111  : 		
; 112  : 		while (((ch=getc(SMDFile)) != -1 ) && (ch != 0x22))	// nice

  001c8	ff 35 00 00 00
	00		 push	 DWORD PTR ?SMDFile@@3PAU_iobuf@@A
  001ce	be 00 00 00 00	 mov	 esi, OFFSET ?TokenString@@3PADA
  001d3	e8 00 00 00 00	 call	 _getc
  001d8	83 c4 04	 add	 esp, 4
  001db	83 f8 ff	 cmp	 eax, -1
  001de	74 1f		 je	 SHORT $LN12@GetToken
$LL11@GetToken:
  001e0	83 f8 22	 cmp	 eax, 34			; 00000022H
  001e3	0f 84 95 00 00
	00		 je	 $LN28@GetToken
  001e9	ff 35 00 00 00
	00		 push	 DWORD PTR ?SMDFile@@3PAU_iobuf@@A

; 113  : 		{
; 114  : 			*p = ch;

  001ef	88 06		 mov	 BYTE PTR [esi], al

; 115  : 			p++;

  001f1	46		 inc	 esi
  001f2	e8 00 00 00 00	 call	 _getc
  001f7	83 c4 04	 add	 esp, 4
  001fa	83 f8 ff	 cmp	 eax, -1
  001fd	75 e1		 jne	 SHORT $LL11@GetToken
$LN12@GetToken:

; 116  : 		}
; 117  : 		if (ch != 0x22 )

  001ff	83 f8 22	 cmp	 eax, 34			; 00000022H
  00202	74 7a		 je	 SHORT $LN28@GetToken

; 118  : 		{
; 119  : 			ungetc(ch, SMDFile);

  00204	ff 35 00 00 00
	00		 push	 DWORD PTR ?SMDFile@@3PAU_iobuf@@A
  0020a	50		 push	 eax

; 120  : 		}
; 121  : 		*p = 0;
; 122  : 		return CurrentToken = NAME;

  0020b	eb 69		 jmp	 SHORT $LN62@GetToken
$LN29@GetToken:

; 123  : 		break;
; 124  : 
; 125  : 	default:	// Others
; 126  : 		if (isalpha(ch))

  0020d	53		 push	 ebx
  0020e	e8 00 00 00 00	 call	 _isalpha
  00213	83 c4 04	 add	 esp, 4
  00216	85 c0		 test	 eax, eax
  00218	0f 84 7f 00 00
	00		 je	 $LN30@GetToken

; 127  : 		{
; 128  : 			p=&TokenString[0];
; 129  : 			*p=ch;
; 130  : 			p++;
; 131  : 
; 132  : 			while ( ((ch=getc(SMDFile)) != -1) && ( (ch == 0x2E) || (ch == 0x5F) || (isalnum(ch) != 0) ) )

  0021e	ff 35 00 00 00
	00		 push	 DWORD PTR ?SMDFile@@3PAU_iobuf@@A
  00224	88 1d 00 00 00
	00		 mov	 BYTE PTR ?TokenString@@3PADA, bl
  0022a	be 01 00 00 00	 mov	 esi, OFFSET ?TokenString@@3PADA+1
  0022f	e8 00 00 00 00	 call	 _getc
  00234	8b d8		 mov	 ebx, eax
  00236	83 c4 04	 add	 esp, 4
  00239	83 fb ff	 cmp	 ebx, -1
  0023c	74 31		 je	 SHORT $LN60@GetToken
  0023e	66 90		 npad	 2
$LL13@GetToken:
  00240	83 fb 2e	 cmp	 ebx, 46			; 0000002eH
  00243	74 12		 je	 SHORT $LN32@GetToken
  00245	83 fb 5f	 cmp	 ebx, 95			; 0000005fH
  00248	74 0d		 je	 SHORT $LN32@GetToken
  0024a	53		 push	 ebx
  0024b	e8 00 00 00 00	 call	 _isalnum
  00250	83 c4 04	 add	 esp, 4
  00253	85 c0		 test	 eax, eax
  00255	74 18		 je	 SHORT $LN60@GetToken
$LN32@GetToken:
  00257	ff 35 00 00 00
	00		 push	 DWORD PTR ?SMDFile@@3PAU_iobuf@@A

; 133  : 			{
; 134  : 				*p=ch;

  0025d	88 1e		 mov	 BYTE PTR [esi], bl

; 135  : 				p++;

  0025f	46		 inc	 esi
  00260	e8 00 00 00 00	 call	 _getc
  00265	8b d8		 mov	 ebx, eax
  00267	83 c4 04	 add	 esp, 4
  0026a	83 fb ff	 cmp	 ebx, -1
  0026d	75 d1		 jne	 SHORT $LL13@GetToken
$LN60@GetToken:

; 136  : 				
; 137  : 			}
; 138  : 
; 139  : 			ungetc(ch, SMDFile);

  0026f	ff 35 00 00 00
	00		 push	 DWORD PTR ?SMDFile@@3PAU_iobuf@@A
  00275	53		 push	 ebx
$LN62@GetToken:
  00276	e8 00 00 00 00	 call	 _ungetc
  0027b	83 c4 08	 add	 esp, 8
$LN28@GetToken:

; 140  : 			*p=0;

  0027e	c6 06 00	 mov	 BYTE PTR [esi], 0

; 141  : 			CurrentToken=NAME;
; 142  : 			return CurrentToken;

  00281	33 c0		 xor	 eax, eax
  00283	5e		 pop	 esi
  00284	c7 05 00 00 00
	00 00 00 00 00	 mov	 DWORD PTR ?CurrentToken@@3W4SMDToken@@A, 0
  0028e	5b		 pop	 ebx

; 143  : 		}
; 144  : 		else
; 145  : 		{
; 146  : 			return CurrentToken = SMD_ERROR; // '<'
; 147  : 		}
; 148  : 		break;
; 149  : 
; 150  : 	}
; 151  : 
; 152  : 	return NAME;
; 153  : }

  0028f	8b 4d fc	 mov	 ecx, DWORD PTR __$ArrayPad$[ebp]
  00292	33 cd		 xor	 ecx, ebp
  00294	e8 00 00 00 00	 call	 @__security_check_cookie@4
  00299	8b e5		 mov	 esp, ebp
  0029b	5d		 pop	 ebp
  0029c	c3		 ret	 0
$LN30@GetToken:
  0029d	8b 4d fc	 mov	 ecx, DWORD PTR __$ArrayPad$[ebp]
  002a0	b8 3c 00 00 00	 mov	 eax, 60			; 0000003cH
  002a5	5e		 pop	 esi
  002a6	33 cd		 xor	 ecx, ebp
  002a8	c7 05 00 00 00
	00 3c 00 00 00	 mov	 DWORD PTR ?CurrentToken@@3W4SMDToken@@A, 60 ; 0000003cH
  002b2	5b		 pop	 ebx
  002b3	e8 00 00 00 00	 call	 @__security_check_cookie@4
  002b8	8b e5		 mov	 esp, ebp
  002ba	5d		 pop	 ebp
  002bb	c3		 ret	 0
$LN64@GetToken:
  002bc	00 00 00 00	 DD	 $LN27@GetToken
  002c0	00 00 00 00	 DD	 $LN20@GetToken
  002c4	00 00 00 00	 DD	 $LN22@GetToken
  002c8	00 00 00 00	 DD	 $LN25@GetToken
  002cc	00 00 00 00	 DD	 $LN21@GetToken
  002d0	00 00 00 00	 DD	 $LN23@GetToken
  002d4	00 00 00 00	 DD	 $LN24@GetToken
  002d8	00 00 00 00	 DD	 $LN29@GetToken
$LN58@GetToken:
  002dc	00		 DB	 0
  002dd	01		 DB	 1
  002de	07		 DB	 7
  002df	07		 DB	 7
  002e0	07		 DB	 7
  002e1	07		 DB	 7
  002e2	07		 DB	 7
  002e3	07		 DB	 7
  002e4	07		 DB	 7
  002e5	07		 DB	 7
  002e6	02		 DB	 2
  002e7	03		 DB	 3
  002e8	03		 DB	 3
  002e9	07		 DB	 7
  002ea	03		 DB	 3
  002eb	03		 DB	 3
  002ec	03		 DB	 3
  002ed	03		 DB	 3
  002ee	03		 DB	 3
  002ef	03		 DB	 3
  002f0	03		 DB	 3
  002f1	03		 DB	 3
  002f2	03		 DB	 3
  002f3	03		 DB	 3
  002f4	07		 DB	 7
  002f5	04		 DB	 4
  002f6	07		 DB	 7
  002f7	07		 DB	 7
  002f8	07		 DB	 7
  002f9	07		 DB	 7
  002fa	07		 DB	 7
  002fb	07		 DB	 7
  002fc	07		 DB	 7
  002fd	07		 DB	 7
  002fe	07		 DB	 7
  002ff	07		 DB	 7
  00300	07		 DB	 7
  00301	07		 DB	 7
  00302	07		 DB	 7
  00303	07		 DB	 7
  00304	07		 DB	 7
  00305	07		 DB	 7
  00306	07		 DB	 7
  00307	07		 DB	 7
  00308	07		 DB	 7
  00309	07		 DB	 7
  0030a	07		 DB	 7
  0030b	07		 DB	 7
  0030c	07		 DB	 7
  0030d	07		 DB	 7
  0030e	07		 DB	 7
  0030f	07		 DB	 7
  00310	07		 DB	 7
  00311	07		 DB	 7
  00312	07		 DB	 7
  00313	07		 DB	 7
  00314	07		 DB	 7
  00315	07		 DB	 7
  00316	07		 DB	 7
  00317	07		 DB	 7
  00318	07		 DB	 7
  00319	07		 DB	 7
  0031a	07		 DB	 7
  0031b	07		 DB	 7
  0031c	07		 DB	 7
  0031d	07		 DB	 7
  0031e	07		 DB	 7
  0031f	07		 DB	 7
  00320	07		 DB	 7
  00321	07		 DB	 7
  00322	07		 DB	 7
  00323	07		 DB	 7
  00324	07		 DB	 7
  00325	07		 DB	 7
  00326	07		 DB	 7
  00327	07		 DB	 7
  00328	07		 DB	 7
  00329	07		 DB	 7
  0032a	07		 DB	 7
  0032b	07		 DB	 7
  0032c	07		 DB	 7
  0032d	07		 DB	 7
  0032e	07		 DB	 7
  0032f	07		 DB	 7
  00330	07		 DB	 7
  00331	07		 DB	 7
  00332	07		 DB	 7
  00333	07		 DB	 7
  00334	07		 DB	 7
  00335	05		 DB	 5
  00336	07		 DB	 7
  00337	06		 DB	 6
?GetToken@@YA?AW4SMDToken@@XZ ENDP			; GetToken
_TEXT	ENDS
; Function compile flags: /Ogtp
;	COMDAT ??_GTMonsterSkillUnit@@UAEPAXI@Z
_TEXT	SEGMENT
___flags$ = 8						; size = 4
??_GTMonsterSkillUnit@@UAEPAXI@Z PROC			; TMonsterSkillUnit::`scalar deleting destructor', COMDAT
; _this$ = ecx
  00000	55		 push	 ebp
  00001	8b ec		 mov	 ebp, esp
  00003	56		 push	 esi
  00004	8b f1		 mov	 esi, ecx
  00006	e8 00 00 00 00	 call	 ??1TMonsterSkillUnit@@UAE@XZ ; TMonsterSkillUnit::~TMonsterSkillUnit
  0000b	f6 45 08 01	 test	 BYTE PTR ___flags$[ebp], 1
  0000f	74 0b		 je	 SHORT $LN4@scalar
  00011	6a 44		 push	 68			; 00000044H
  00013	56		 push	 esi
  00014	e8 00 00 00 00	 call	 ??3@YAXPAXI@Z		; operator delete
  00019	83 c4 08	 add	 esp, 8
$LN4@scalar:
  0001c	8b c6		 mov	 eax, esi
  0001e	5e		 pop	 esi
  0001f	5d		 pop	 ebp
  00020	c2 04 00	 ret	 4
??_GTMonsterSkillUnit@@UAEPAXI@Z ENDP			; TMonsterSkillUnit::`scalar deleting destructor'
_TEXT	ENDS
; Function compile flags: /Ogtp
; File c:\users\michel\desktop\source\gameserver\source\tmonsterskillunit.cpp
;	COMDAT ?FindSkillUnit@TMonsterSkillUnit@@SAPAV1@H@Z
_TEXT	SEGMENT
_iUnitNumber$ = 8					; size = 4
?FindSkillUnit@TMonsterSkillUnit@@SAPAV1@H@Z PROC	; TMonsterSkillUnit::FindSkillUnit, COMDAT

; 206  : {

  00000	55		 push	 ebp
  00001	8b ec		 mov	 ebp, esp

; 207  : 	if ( iUnitNumber < 0 || iUnitNumber >= MAX_MONSTER_SKILL_UNIT_ARRAY )

  00003	8b 4d 08	 mov	 ecx, DWORD PTR _iUnitNumber$[ebp]
  00006	81 f9 c7 00 00
	00		 cmp	 ecx, 199		; 000000c7H
  0000c	77 19		 ja	 SHORT $LN3@FindSkillU

; 213  : 	}
; 214  : 
; 215  : 	if ( TMonsterSkillUnit::s_MonsterSkillUnitArray[iUnitNumber].m_iUnitNumber == iUnitNumber )

  0000e	8b c1		 mov	 eax, ecx
  00010	c1 e0 04	 shl	 eax, 4
  00013	03 c1		 add	 eax, ecx
  00015	39 0c 85 18 00
	00 00		 cmp	 DWORD PTR ?s_MonsterSkillUnitArray@TMonsterSkillUnit@@2PAV1@A[eax*4+24], ecx
  0001c	75 09		 jne	 SHORT $LN3@FindSkillU

; 216  : 	{
; 217  : 		return &TMonsterSkillUnit::s_MonsterSkillUnitArray[iUnitNumber];

  0001e	8d 04 85 00 00
	00 00		 lea	 eax, DWORD PTR ?s_MonsterSkillUnitArray@TMonsterSkillUnit@@2PAV1@A[eax*4]

; 218  : 	}
; 219  : 
; 220  : //	LogAddTD("[Monster SkillUnit] FindSkillUnit() Error - (UnitNumber=%d) ",
; 221  : //		iUnitNumber);
; 222  : 
; 223  : 	return FALSE;
; 224  : }

  00025	5d		 pop	 ebp
  00026	c3		 ret	 0
$LN3@FindSkillU:

; 208  : 	{
; 209  : //		LogAddTD("[Monster SkillUnit] FindSkillUnit() Error - (UnitNumber=%d) ",
; 210  : //			iUnitNumber);
; 211  : 
; 212  : 		return NULL;

  00027	33 c0		 xor	 eax, eax

; 218  : 	}
; 219  : 
; 220  : //	LogAddTD("[Monster SkillUnit] FindSkillUnit() Error - (UnitNumber=%d) ",
; 221  : //		iUnitNumber);
; 222  : 
; 223  : 	return FALSE;
; 224  : }

  00029	5d		 pop	 ebp
  0002a	c3		 ret	 0
?FindSkillUnit@TMonsterSkillUnit@@SAPAV1@H@Z ENDP	; TMonsterSkillUnit::FindSkillUnit
_TEXT	ENDS
; Function compile flags: /Ogtp
; File c:\users\michel\desktop\source\gameserver\source\tmonsterskillunit.cpp
;	COMDAT ?DelAllSkillUnit@TMonsterSkillUnit@@SAHXZ
_TEXT	SEGMENT
?DelAllSkillUnit@TMonsterSkillUnit@@SAHXZ PROC		; TMonsterSkillUnit::DelAllSkillUnit, COMDAT

; 194  : {

  00000	56		 push	 esi

; 195  : 	for(int i=0;i<MAX_MONSTER_SKILL_UNIT_ARRAY;i++)

  00001	be 00 00 00 00	 mov	 esi, OFFSET ?s_MonsterSkillUnitArray@TMonsterSkillUnit@@2PAV1@A ; TMonsterSkillUnit::s_MonsterSkillUnitArray
$LL4@DelAllSkil:

; 196  : 	{
; 197  : 		TMonsterSkillUnit::s_MonsterSkillUnitArray[i].Reset();

  00006	8b ce		 mov	 ecx, esi
  00008	e8 00 00 00 00	 call	 ?Reset@TMonsterSkillUnit@@QAEXXZ ; TMonsterSkillUnit::Reset
  0000d	83 c6 44	 add	 esi, 68			; 00000044H
  00010	81 fe 20 35 00
	00		 cmp	 esi, OFFSET ?s_MonsterSkillUnitArray@TMonsterSkillUnit@@2PAV1@A+13600
  00016	7c ee		 jl	 SHORT $LL4@DelAllSkil

; 198  : 	}
; 199  : 
; 200  : 	return FALSE;

  00018	33 c0		 xor	 eax, eax
  0001a	5e		 pop	 esi

; 201  : }

  0001b	c3		 ret	 0
?DelAllSkillUnit@TMonsterSkillUnit@@SAHXZ ENDP		; TMonsterSkillUnit::DelAllSkillUnit
_TEXT	ENDS
; Function compile flags: /Ogtp
; File c:\users\michel\desktop\source\gameserver\source\tmonsterskillunit.cpp
; File c:\users\michel\desktop\source\gameserver\source\tmonsterskillelement.h
; File c:\users\michel\desktop\source\gameserver\source\tmonsterskillunit.cpp
;	COMDAT ?LoadData@TMonsterSkillUnit@@SAHPAD@Z
_TEXT	SEGMENT
_lpszFileName$GSCopy$ = -296				; size = 4
_iUnitTargetType$1$ = -292				; size = 4
_iType$1$ = -288					; size = 4
_lpszFileName$GSCopy$1$ = -284				; size = 4
_iUnitNumber$1$ = -280					; size = 4
_iDelay$1$ = -276					; size = 4
_iUnitScopeValue$1$ = -272				; size = 4
_iUnitScopeType$1$ = -268				; size = 4
_iElementCount$1$ = -264				; size = 4
_iElementsSlot$2 = -260					; size = 20
_szMsg$3 = -240						; size = 200
_szUnitName$4 = -40					; size = 20
__$ArrayPad$ = -20					; size = 4
__$EHRec$ = -16						; size = 16
_lpszFileName$ = 8					; size = 4
?LoadData@TMonsterSkillUnit@@SAHPAD@Z PROC		; TMonsterSkillUnit::LoadData, COMDAT

; 51   : {

  00000	55		 push	 ebp
  00001	8b ec		 mov	 ebp, esp
  00003	6a ff		 push	 -1
  00005	68 00 00 00 00	 push	 __ehhandler$?LoadData@TMonsterSkillUnit@@SAHPAD@Z
  0000a	64 a1 00 00 00
	00		 mov	 eax, DWORD PTR fs:0
  00010	50		 push	 eax
  00011	81 ec 1c 01 00
	00		 sub	 esp, 284		; 0000011cH
  00017	a1 00 00 00 00	 mov	 eax, DWORD PTR ___security_cookie
  0001c	33 c5		 xor	 eax, ebp
  0001e	89 45 ec	 mov	 DWORD PTR __$ArrayPad$[ebp], eax
  00021	53		 push	 ebx
  00022	56		 push	 esi
  00023	57		 push	 edi
  00024	50		 push	 eax
  00025	8d 45 f4	 lea	 eax, DWORD PTR __$EHRec$[ebp+4]
  00028	64 a3 00 00 00
	00		 mov	 DWORD PTR fs:0, eax
  0002e	89 65 f0	 mov	 DWORD PTR __$EHRec$[ebp], esp
  00031	8b 75 08	 mov	 esi, DWORD PTR _lpszFileName$[ebp]
  00034	89 b5 e4 fe ff
	ff		 mov	 DWORD PTR _lpszFileName$GSCopy$1$[ebp], esi
  0003a	89 b5 d8 fe ff
	ff		 mov	 DWORD PTR _lpszFileName$GSCopy$[ebp], esi

; 52   : 	TMonsterSkillUnit::s_bDataLoad = FALSE;

  00040	c7 05 00 00 00
	00 00 00 00 00	 mov	 DWORD PTR ?s_bDataLoad@TMonsterSkillUnit@@2HA, 0 ; TMonsterSkillUnit::s_bDataLoad

; 53   : 
; 54   : 	if ( lpszFileName == NULL || strcmp(lpszFileName, "") == 0 )

  0004a	85 f6		 test	 esi, esi
  0004c	0f 84 3c 03 00
	00		 je	 $LN13@LoadData
  00052	b9 00 00 00 00	 mov	 ecx, OFFSET ??_C@_00CNPNBAHC@?$AA@
  00057	8b c6		 mov	 eax, esi
  00059	0f 1f 80 00 00
	00 00		 npad	 7
$LL46@LoadData:
  00060	8a 10		 mov	 dl, BYTE PTR [eax]
  00062	3a 11		 cmp	 dl, BYTE PTR [ecx]
  00064	75 1a		 jne	 SHORT $LN47@LoadData
  00066	84 d2		 test	 dl, dl
  00068	74 12		 je	 SHORT $LN48@LoadData
  0006a	8a 50 01	 mov	 dl, BYTE PTR [eax+1]
  0006d	3a 51 01	 cmp	 dl, BYTE PTR [ecx+1]
  00070	75 0e		 jne	 SHORT $LN47@LoadData
  00072	83 c0 02	 add	 eax, 2
  00075	83 c1 02	 add	 ecx, 2
  00078	84 d2		 test	 dl, dl
  0007a	75 e4		 jne	 SHORT $LL46@LoadData
$LN48@LoadData:
  0007c	33 c0		 xor	 eax, eax
  0007e	eb 05		 jmp	 SHORT $LN49@LoadData
$LN47@LoadData:
  00080	1b c0		 sbb	 eax, eax
  00082	83 c8 01	 or	 eax, 1
$LN49@LoadData:
  00085	85 c0		 test	 eax, eax
  00087	0f 84 01 03 00
	00		 je	 $LN13@LoadData

; 58   : 	}
; 59   : 
; 60   : 	try
; 61   : 	{
; 62   : 		SMDToken Token;
; 63   : 		SMDFile = fopen(lpszFileName, "r");

  0008d	68 00 00 00 00	 push	 OFFSET ??_C@_01KDCPPGHE@r?$AA@
  00092	56		 push	 esi
  00093	c7 45 fc 00 00
	00 00		 mov	 DWORD PTR __$EHRec$[ebp+12], 0
  0009a	e8 00 00 00 00	 call	 _fopen
  0009f	83 c4 08	 add	 esp, 8
  000a2	a3 00 00 00 00	 mov	 DWORD PTR ?SMDFile@@3PAU_iobuf@@A, eax

; 64   : 
; 65   : 		if ( SMDFile == NULL )

  000a7	85 c0		 test	 eax, eax
  000a9	75 13		 jne	 SHORT $LN15@LoadData

; 66   : 		{
; 67   : 			MsgBox("[Monster Skill Unit] - Can't Open %s ", lpszFileName);

  000ab	56		 push	 esi
  000ac	68 00 00 00 00	 push	 OFFSET ??_C@_0CG@GBNGOID@?$FLMonster?5Skill?5Unit?$FN?5?9?5Can?8t?5Ope@
  000b1	e8 00 00 00 00	 call	 ?MsgBox@@YAXPADZZ	; MsgBox
  000b6	83 c4 08	 add	 esp, 8

; 68   : 			return FALSE;

  000b9	e9 dd 02 00 00	 jmp	 $LN55@LoadData
$LN15@LoadData:

; 69   : 		}
; 70   : 
; 71   : 
; 72   : 		TMonsterSkillUnit::DelAllSkillUnit();

  000be	e8 00 00 00 00	 call	 ?DelAllSkillUnit@TMonsterSkillUnit@@SAHXZ ; TMonsterSkillUnit::DelAllSkillUnit
$LL2@LoadData:

; 73   : 		int iType = -1;
; 74   : 
; 75   : 		while ( true )
; 76   : 		{
; 77   : 			Token = (SMDToken)GetToken();

  000c3	e8 00 00 00 00	 call	 ?GetToken@@YA?AW4SMDToken@@XZ ; GetToken

; 78   : 
; 79   : 			if ( Token == END )

  000c8	83 f8 02	 cmp	 eax, 2
  000cb	75 2b		 jne	 SHORT $LN16@LoadData

; 174  : 				}
; 175  : 			}
; 176  : 		
; 177  : 		}
; 178  : 
; 179  : 		fclose(SMDFile);

  000cd	ff 35 00 00 00
	00		 push	 DWORD PTR ?SMDFile@@3PAU_iobuf@@A
  000d3	e8 00 00 00 00	 call	 _fclose

; 180  : 		LogAddC(2,"[Monster Skill Unit] - %s file is Loaded", lpszFileName);

  000d8	56		 push	 esi
  000d9	68 00 00 00 00	 push	 OFFSET ??_C@_0CJ@ODDJOAOF@?$FLMonster?5Skill?5Unit?$FN?5?9?5?$CFs?5file?5i@
  000de	6a 02		 push	 2
  000e0	ff 15 00 00 00
	00		 call	 DWORD PTR ?LogAddC@@3P6AXEPADZZA ; LogAddC
  000e6	83 c4 10	 add	 esp, 16			; 00000010H

; 181  : 		TMonsterSkillUnit::s_bDataLoad = TRUE;

  000e9	c7 05 00 00 00
	00 01 00 00 00	 mov	 DWORD PTR ?s_bDataLoad@TMonsterSkillUnit@@2HA, 1 ; TMonsterSkillUnit::s_bDataLoad
  000f3	e9 a3 02 00 00	 jmp	 $LN55@LoadData
$LN16@LoadData:

; 80   : 				break;
; 81   : 
; 82   : 			iType = (int)TokenNumber;

  000f8	f3 0f 2c 05 00
	00 00 00	 cvttss2si eax, DWORD PTR ?TokenNumber@@3MA
  00100	89 85 e0 fe ff
	ff		 mov	 DWORD PTR _iType$1$[ebp], eax
$LL4@LoadData:

; 83   : 
; 84   : 			while ( true )
; 85   : 			{
; 86   : 				if ( iType == 0 )

  00106	85 c0		 test	 eax, eax
  00108	75 fc		 jne	 SHORT $LL4@LoadData

; 87   : 				{
; 88   : 					char szUnitName[20] = {0};

  0010a	0f 57 c0	 xorps	 xmm0, xmm0
  0010d	88 45 d8	 mov	 BYTE PTR _szUnitName$4[ebp], al

; 89   : 					int iUnitNumber = -1;
; 90   : 					int iUnitTargetType = -1;
; 91   : 					int iUnitScopeType = -1;
; 92   : 					int iUnitScopeValue = -1;
; 93   : 					int iDelay = -1;
; 94   : 					int iElementCount = 0;

  00110	33 c9		 xor	 ecx, ecx
  00112	66 89 45 e9	 mov	 WORD PTR _szUnitName$4[ebp+17], ax
  00116	0f 11 45 d9	 movups	 XMMWORD PTR _szUnitName$4[ebp+1], xmm0
  0011a	88 45 eb	 mov	 BYTE PTR _szUnitName$4[ebp+19], al
  0011d	89 8d f8 fe ff
	ff		 mov	 DWORD PTR _iElementCount$1$[ebp], ecx

; 95   : 					int iElementsSlot[5] = { -1};

  00123	c7 85 fc fe ff
	ff ff ff ff ff	 mov	 DWORD PTR _iElementsSlot$2[ebp], -1
  0012d	0f 11 85 00 ff
	ff ff		 movups	 XMMWORD PTR _iElementsSlot$2[ebp+4], xmm0

; 96   : 	
; 97   : 					Token = (SMDToken)GetToken();

  00134	e8 00 00 00 00	 call	 ?GetToken@@YA?AW4SMDToken@@XZ ; GetToken

; 98   : 
; 99   : 					if ( strcmp("end", TokenString) == 0 )

  00139	b9 00 00 00 00	 mov	 ecx, OFFSET ?TokenString@@3PADA
  0013e	b8 00 00 00 00	 mov	 eax, OFFSET ??_C@_03JBJLGPFL@end?$AA@
$LL50@LoadData:
  00143	8a 10		 mov	 dl, BYTE PTR [eax]
  00145	3a 11		 cmp	 dl, BYTE PTR [ecx]
  00147	75 1a		 jne	 SHORT $LN51@LoadData
  00149	84 d2		 test	 dl, dl
  0014b	74 12		 je	 SHORT $LN52@LoadData
  0014d	8a 50 01	 mov	 dl, BYTE PTR [eax+1]
  00150	3a 51 01	 cmp	 dl, BYTE PTR [ecx+1]
  00153	75 0e		 jne	 SHORT $LN51@LoadData
  00155	83 c0 02	 add	 eax, 2
  00158	83 c1 02	 add	 ecx, 2
  0015b	84 d2		 test	 dl, dl
  0015d	75 e4		 jne	 SHORT $LL50@LoadData
$LN52@LoadData:
  0015f	33 c0		 xor	 eax, eax
  00161	eb 05		 jmp	 SHORT $LN53@LoadData
$LN51@LoadData:
  00163	1b c0		 sbb	 eax, eax
  00165	83 c8 01	 or	 eax, 1
$LN53@LoadData:
  00168	85 c0		 test	 eax, eax
  0016a	0f 84 53 ff ff
	ff		 je	 $LL2@LoadData

; 100  : 						break;
; 101  : 
; 102  : 					iUnitNumber = (int)TokenNumber;

  00170	f3 0f 2c 3d 00
	00 00 00	 cvttss2si edi, DWORD PTR ?TokenNumber@@3MA
  00178	89 bd e8 fe ff
	ff		 mov	 DWORD PTR _iUnitNumber$1$[ebp], edi

; 103  : 
; 104  : 					Token = (SMDToken)GetToken();

  0017e	e8 00 00 00 00	 call	 ?GetToken@@YA?AW4SMDToken@@XZ ; GetToken

; 105  : 					memcpy(szUnitName, TokenString, sizeof(szUnitName));

  00183	0f 10 05 00 00
	00 00		 movups	 xmm0, XMMWORD PTR ?TokenString@@3PADA
  0018a	a1 10 00 00 00	 mov	 eax, DWORD PTR ?TokenString@@3PADA+16
  0018f	89 45 e8	 mov	 DWORD PTR _szUnitName$4[ebp+16], eax
  00192	0f 11 45 d8	 movups	 XMMWORD PTR _szUnitName$4[ebp], xmm0

; 106  : 
; 107  : 					Token = (SMDToken)GetToken();

  00196	e8 00 00 00 00	 call	 ?GetToken@@YA?AW4SMDToken@@XZ ; GetToken

; 108  : 					iUnitTargetType = (int)TokenNumber;

  0019b	f3 0f 2c 05 00
	00 00 00	 cvttss2si eax, DWORD PTR ?TokenNumber@@3MA
  001a3	89 85 dc fe ff
	ff		 mov	 DWORD PTR _iUnitTargetType$1$[ebp], eax

; 109  : 
; 110  : 					Token = (SMDToken)GetToken();

  001a9	e8 00 00 00 00	 call	 ?GetToken@@YA?AW4SMDToken@@XZ ; GetToken

; 111  : 					iUnitScopeType = (int)TokenNumber;

  001ae	f3 0f 2c 05 00
	00 00 00	 cvttss2si eax, DWORD PTR ?TokenNumber@@3MA
  001b6	89 85 f4 fe ff
	ff		 mov	 DWORD PTR _iUnitScopeType$1$[ebp], eax

; 112  : 
; 113  : 					Token = (SMDToken)GetToken();

  001bc	e8 00 00 00 00	 call	 ?GetToken@@YA?AW4SMDToken@@XZ ; GetToken

; 114  : 					iUnitScopeValue = (int)TokenNumber;

  001c1	f3 0f 2c 05 00
	00 00 00	 cvttss2si eax, DWORD PTR ?TokenNumber@@3MA
  001c9	89 85 f0 fe ff
	ff		 mov	 DWORD PTR _iUnitScopeValue$1$[ebp], eax

; 115  : 
; 116  : 					Token = (SMDToken)GetToken();

  001cf	e8 00 00 00 00	 call	 ?GetToken@@YA?AW4SMDToken@@XZ ; GetToken

; 117  : 					iDelay = (int)TokenNumber;

  001d4	f3 0f 2c 05 00
	00 00 00	 cvttss2si eax, DWORD PTR ?TokenNumber@@3MA

; 118  : 
; 119  : 					int i;
; 120  : 					for ( i=0;i<5;i++)

  001dc	33 f6		 xor	 esi, esi
  001de	89 85 ec fe ff
	ff		 mov	 DWORD PTR _iDelay$1$[ebp], eax
$LL8@LoadData:

; 121  : 					{
; 122  : 						Token = (SMDToken)GetToken();

  001e4	e8 00 00 00 00	 call	 ?GetToken@@YA?AW4SMDToken@@XZ ; GetToken

; 123  : 						iElementsSlot[i] = (int)TokenNumber;

  001e9	f3 0f 2c 05 00
	00 00 00	 cvttss2si eax, DWORD PTR ?TokenNumber@@3MA
  001f1	89 84 b5 fc fe
	ff ff		 mov	 DWORD PTR _iElementsSlot$2[ebp+esi*4], eax
  001f8	46		 inc	 esi
  001f9	83 fe 05	 cmp	 esi, 5
  001fc	7c e6		 jl	 SHORT $LL8@LoadData

; 124  : 					}
; 125  : 
; 126  : 					if ( iUnitNumber < 0 || iUnitNumber >= MAX_MONSTER_SKILL_UNIT_ARRAY )

  001fe	81 ff c7 00 00
	00		 cmp	 edi, 199		; 000000c7H
  00204	0f 87 4b 01 00
	00		 ja	 $LN20@LoadData

; 131  : 					}
; 132  : 
; 133  : 					char szMsg[200] = {0};
; 134  : 
; 135  : 					wsprintf(szMsg, "¡ÚNum:%d,Name:%s,TType:%d,SType:%d,SValue:%d,Delay:%d, E0:%d,E1:%d,E2:%d,E3:%d,E4:%d\n",

  0020a	68 c8 00 00 00	 push	 200			; 000000c8H
  0020f	8d 85 10 ff ff
	ff		 lea	 eax, DWORD PTR _szMsg$3[ebp]
  00215	6a 00		 push	 0
  00217	50		 push	 eax
  00218	e8 00 00 00 00	 call	 _memset
  0021d	ff b5 0c ff ff
	ff		 push	 DWORD PTR _iElementsSlot$2[ebp+16]
  00223	8b b5 dc fe ff
	ff		 mov	 esi, DWORD PTR _iUnitTargetType$1$[ebp]
  00229	8d 45 d8	 lea	 eax, DWORD PTR _szUnitName$4[ebp]
  0022c	ff b5 08 ff ff
	ff		 push	 DWORD PTR _iElementsSlot$2[ebp+12]
  00232	ff b5 04 ff ff
	ff		 push	 DWORD PTR _iElementsSlot$2[ebp+8]
  00238	ff b5 00 ff ff
	ff		 push	 DWORD PTR _iElementsSlot$2[ebp+4]
  0023e	ff b5 fc fe ff
	ff		 push	 DWORD PTR _iElementsSlot$2[ebp]
  00244	ff b5 ec fe ff
	ff		 push	 DWORD PTR _iDelay$1$[ebp]
  0024a	ff b5 f0 fe ff
	ff		 push	 DWORD PTR _iUnitScopeValue$1$[ebp]
  00250	ff b5 f4 fe ff
	ff		 push	 DWORD PTR _iUnitScopeType$1$[ebp]
  00256	56		 push	 esi
  00257	50		 push	 eax
  00258	57		 push	 edi
  00259	8d 85 10 ff ff
	ff		 lea	 eax, DWORD PTR _szMsg$3[ebp]
  0025f	68 00 00 00 00	 push	 OFFSET ??_C@_0FG@GEINPOHG@?$KB?ZNum?3?$CFd?0Name?3?$CFs?0TType?3?$CFd?0SType?3@
  00264	50		 push	 eax
  00265	ff 15 00 00 00
	00		 call	 DWORD PTR __imp__wsprintfA

; 136  : 						iUnitNumber, szUnitName, iUnitTargetType, iUnitScopeType, iUnitScopeValue, iDelay,
; 137  : 						iElementsSlot[0], iElementsSlot[1], iElementsSlot[2], iElementsSlot[3], iElementsSlot[4]);
; 138  : 
; 139  : //					OutputDebugString(szMsg);
; 140  : 
; 141  : 					TMonsterSkillUnit::s_MonsterSkillUnitArray[iUnitNumber].m_iUnitNumber = iUnitNumber;
; 142  : 					TMonsterSkillUnit::s_MonsterSkillUnitArray[iUnitNumber].m_iUnitTargetType = iUnitTargetType;
; 143  : 					TMonsterSkillUnit::s_MonsterSkillUnitArray[iUnitNumber].m_iUnitScopeType = iUnitScopeType;

  0026b	8b 85 f4 fe ff
	ff		 mov	 eax, DWORD PTR _iUnitScopeType$1$[ebp]
  00271	8b cf		 mov	 ecx, edi

; 144  : 					TMonsterSkillUnit::s_MonsterSkillUnitArray[iUnitNumber].m_iUnitScopeValue = iUnitScopeValue;
; 145  : 					TMonsterSkillUnit::s_MonsterSkillUnitArray[iUnitNumber].m_iDelay = iDelay;
; 146  : 					memcpy(TMonsterSkillUnit::s_MonsterSkillUnitArray[iUnitNumber].m_szUnitName, szUnitName,

  00273	0f 10 45 d8	 movups	 xmm0, XMMWORD PTR _szUnitName$4[ebp]
  00277	c1 e1 04	 shl	 ecx, 4
  0027a	83 c4 40	 add	 esp, 64			; 00000040H
  0027d	03 cf		 add	 ecx, edi
  0027f	89 04 8d 20 00
	00 00		 mov	 DWORD PTR ?s_MonsterSkillUnitArray@TMonsterSkillUnit@@2PAV1@A[ecx*4+32], eax
  00286	8b 85 f0 fe ff
	ff		 mov	 eax, DWORD PTR _iUnitScopeValue$1$[ebp]
  0028c	89 04 8d 24 00
	00 00		 mov	 DWORD PTR ?s_MonsterSkillUnitArray@TMonsterSkillUnit@@2PAV1@A[ecx*4+36], eax
  00293	8b 85 ec fe ff
	ff		 mov	 eax, DWORD PTR _iDelay$1$[ebp]
  00299	89 04 8d 28 00
	00 00		 mov	 DWORD PTR ?s_MonsterSkillUnitArray@TMonsterSkillUnit@@2PAV1@A[ecx*4+40], eax
  002a0	8b 45 e8	 mov	 eax, DWORD PTR _szUnitName$4[ebp+16]
  002a3	89 34 8d 1c 00
	00 00		 mov	 DWORD PTR ?s_MonsterSkillUnitArray@TMonsterSkillUnit@@2PAV1@A[ecx*4+28], esi

; 147  : 						sizeof(TMonsterSkillUnit::s_MonsterSkillUnitArray[iUnitNumber].m_szUnitName));
; 148  : 
; 149  : 					for(i=0;i<5;i++)

  002aa	33 f6		 xor	 esi, esi
  002ac	0f 11 04 8d 04
	00 00 00	 movups	 XMMWORD PTR ?s_MonsterSkillUnitArray@TMonsterSkillUnit@@2PAV1@A[ecx*4+4], xmm0
  002b4	89 3c 8d 18 00
	00 00		 mov	 DWORD PTR ?s_MonsterSkillUnitArray@TMonsterSkillUnit@@2PAV1@A[ecx*4+24], edi
  002bb	89 04 8d 14 00
	00 00		 mov	 DWORD PTR ?s_MonsterSkillUnitArray@TMonsterSkillUnit@@2PAV1@A[ecx*4+20], eax
$LL11@LoadData:
  002c2	83 fe 05	 cmp	 esi, 5
  002c5	7d 61		 jge	 SHORT $LN10@LoadData

; 150  : 					{
; 151  : 						int iElement = iElementsSlot[i];

  002c7	8b bc b5 fc fe
	ff ff		 mov	 edi, DWORD PTR _iElementsSlot$2[ebp+esi*4]

; 152  : 
; 153  : 						if ( iElement != -1 )

  002ce	83 ff ff	 cmp	 edi, -1
  002d1	74 52		 je	 SHORT $LN9@LoadData

; 154  : 						{
; 155  : 							TMonsterSkillElement * pMonsterSkillElement = TMonsterSkillElement::FindSkillElement(iElement);

  002d3	57		 push	 edi
  002d4	e8 00 00 00 00	 call	 ?FindSkillElement@TMonsterSkillElement@@SAPAV1@H@Z ; TMonsterSkillElement::FindSkillElement
  002d9	83 c4 04	 add	 esp, 4

; 156  : 
; 157  : 							if ( pMonsterSkillElement )

  002dc	85 c0		 test	 eax, eax
  002de	74 34		 je	 SHORT $LN22@LoadData

; 158  : 							{
; 159  : 								iElementCount++;
; 160  : 								TMonsterSkillUnit::s_MonsterSkillUnitArray[iUnitNumber].m_lpElementsSlot[i] = pMonsterSkillElement;

  002e0	8b 95 e8 fe ff
	ff		 mov	 edx, DWORD PTR _iUnitNumber$1$[ebp]
  002e6	8b ca		 mov	 ecx, edx
  002e8	ff 85 f8 fe ff
	ff		 inc	 DWORD PTR _iElementCount$1$[ebp]
  002ee	c1 e1 04	 shl	 ecx, 4
  002f1	03 ce		 add	 ecx, esi
  002f3	03 ca		 add	 ecx, edx
  002f5	89 04 8d 30 00
	00 00		 mov	 DWORD PTR ?s_MonsterSkillUnitArray@TMonsterSkillUnit@@2PAV1@A[ecx*4+48], eax
; File c:\users\michel\desktop\source\gameserver\source\tmonsterskillelement.h

; 93   : 	char* GetElementName(){return this->m_szElementName;}

  002fc	83 c0 04	 add	 eax, 4
; File c:\users\michel\desktop\source\gameserver\source\tmonsterskillunit.cpp

; 162  : 								LogAddC(4, "[Monster Skill Unit] - Found SkillElement (%d)(%s)",

  002ff	50		 push	 eax
  00300	57		 push	 edi
  00301	68 00 00 00 00	 push	 OFFSET ??_C@_0DD@HMCEGHBH@?$FLMonster?5Skill?5Unit?$FN?5?9?5Found?5Ski@
  00306	6a 04		 push	 4
  00308	ff 15 00 00 00
	00		 call	 DWORD PTR ?LogAddC@@3P6AXEPADZZA ; LogAddC
  0030e	83 c4 10	 add	 esp, 16			; 00000010H
  00311	46		 inc	 esi
  00312	eb ae		 jmp	 SHORT $LL11@LoadData
$LN22@LoadData:

; 163  : 									iElement, pMonsterSkillElement->GetElementName());
; 164  : 							}
; 165  : 							else
; 166  : 							{
; 167  : 								LogAddC(2, "[Monster Skill Unit] - Not Found SkillElement (%d)",

  00314	57		 push	 edi
  00315	68 00 00 00 00	 push	 OFFSET ??_C@_0DD@HAEDKJID@?$FLMonster?5Skill?5Unit?$FN?5?9?5Not?5Found@
  0031a	6a 02		 push	 2
  0031c	ff 15 00 00 00
	00		 call	 DWORD PTR ?LogAddC@@3P6AXEPADZZA ; LogAddC
  00322	83 c4 0c	 add	 esp, 12			; 0000000cH
$LN9@LoadData:

; 147  : 						sizeof(TMonsterSkillUnit::s_MonsterSkillUnitArray[iUnitNumber].m_szUnitName));
; 148  : 
; 149  : 					for(i=0;i<5;i++)

  00325	46		 inc	 esi
  00326	eb 9a		 jmp	 SHORT $LL11@LoadData
$LN10@LoadData:

; 168  : 									iElement);	
; 169  : 							}
; 170  : 						}
; 171  : 					}
; 172  : 
; 173  : 					TMonsterSkillUnit::s_MonsterSkillUnitArray[iUnitNumber].m_iElementsCount = iElementCount;

  00328	8b 85 e8 fe ff
	ff		 mov	 eax, DWORD PTR _iUnitNumber$1$[ebp]
  0032e	8b 8d f8 fe ff
	ff		 mov	 ecx, DWORD PTR _iElementCount$1$[ebp]
  00334	8b b5 e4 fe ff
	ff		 mov	 esi, DWORD PTR _lpszFileName$GSCopy$1$[ebp]
  0033a	c1 e0 04	 shl	 eax, 4
  0033d	03 85 e8 fe ff
	ff		 add	 eax, DWORD PTR _iUnitNumber$1$[ebp]
  00343	89 0c 85 2c 00
	00 00		 mov	 DWORD PTR ?s_MonsterSkillUnitArray@TMonsterSkillUnit@@2PAV1@A[eax*4+44], ecx
  0034a	8b 85 e0 fe ff
	ff		 mov	 eax, DWORD PTR _iType$1$[ebp]
  00350	e9 b1 fd ff ff	 jmp	 $LL4@LoadData
$LN20@LoadData:

; 127  : 					{
; 128  : 						MsgBox("[Monster SkillUnit] - Unit(%d) Error (%s) File. "

  00355	8b b5 e4 fe ff
	ff		 mov	 esi, DWORD PTR _lpszFileName$GSCopy$1$[ebp]
  0035b	56		 push	 esi
  0035c	57		 push	 edi
  0035d	68 00 00 00 00	 push	 OFFSET ??_C@_0DB@DEDEIALP@?$FLMonster?5SkillUnit?$FN?5?9?5Unit?$CI?$CFd?$CJ?5E@
  00362	e8 00 00 00 00	 call	 ?MsgBox@@YAXPADZZ	; MsgBox

; 129  : 							,iUnitNumber , lpszFileName);
; 130  : 						continue;

  00367	8b 85 e0 fe ff
	ff		 mov	 eax, DWORD PTR _iType$1$[ebp]
  0036d	83 c4 0c	 add	 esp, 12			; 0000000cH
  00370	e9 91 fd ff ff	 jmp	 $LL4@LoadData
__catch$?LoadData@TMonsterSkillUnit@@SAHPAD@Z$0:

; 182  : 	}
; 183  : 	catch(DWORD)
; 184  : 	{
; 185  : 		MsgBox("[Monster Skill Unit] - Loading Exception Error (%s) File. ", lpszFileName);

  00375	ff b5 d8 fe ff
	ff		 push	 DWORD PTR _lpszFileName$GSCopy$[ebp]
  0037b	68 00 00 00 00	 push	 OFFSET ??_C@_0DL@OOGJKOMD@?$FLMonster?5Skill?5Unit?$FN?5?9?5Loading?5E@
  00380	e8 00 00 00 00	 call	 ?MsgBox@@YAXPADZZ	; MsgBox
  00385	83 c4 08	 add	 esp, 8

; 186  : 	}

  00388	b8 00 00 00 00	 mov	 eax, $LN55@LoadData
  0038d	c3		 ret	 0
$LN13@LoadData:

; 55   : 	{
; 56   : 		MsgBox("[Monster Skill Unit] - File load error : File Name Error");

  0038e	68 00 00 00 00	 push	 OFFSET ??_C@_0DJ@PCBEFLCK@?$FLMonster?5Skill?5Unit?$FN?5?9?5File?5load@
  00393	e8 00 00 00 00	 call	 ?MsgBox@@YAXPADZZ	; MsgBox
  00398	83 c4 04	 add	 esp, 4
$LN55@LoadData:

; 57   : 		return FALSE;

  0039b	33 c0		 xor	 eax, eax

; 187  : 
; 188  : 	return FALSE;
; 189  : }

  0039d	8b 4d f4	 mov	 ecx, DWORD PTR __$EHRec$[ebp+4]
  003a0	64 89 0d 00 00
	00 00		 mov	 DWORD PTR fs:0, ecx
  003a7	59		 pop	 ecx
  003a8	5f		 pop	 edi
  003a9	5e		 pop	 esi
  003aa	5b		 pop	 ebx
  003ab	8b 4d ec	 mov	 ecx, DWORD PTR __$ArrayPad$[ebp]
  003ae	33 cd		 xor	 ecx, ebp
  003b0	e8 00 00 00 00	 call	 @__security_check_cookie@4
  003b5	8b e5		 mov	 esp, ebp
  003b7	5d		 pop	 ebp
  003b8	c3		 ret	 0
_TEXT	ENDS
;	COMDAT text$x
text$x	SEGMENT
__ehhandler$?LoadData@TMonsterSkillUnit@@SAHPAD@Z:
  00000	8b 54 24 08	 mov	 edx, DWORD PTR [esp+8]
  00004	8d 42 0c	 lea	 eax, DWORD PTR [edx+12]
  00007	8b 8a d4 fe ff
	ff		 mov	 ecx, DWORD PTR [edx-300]
  0000d	33 c8		 xor	 ecx, eax
  0000f	e8 00 00 00 00	 call	 @__security_check_cookie@4
  00014	8b 4a f8	 mov	 ecx, DWORD PTR [edx-8]
  00017	33 c8		 xor	 ecx, eax
  00019	e8 00 00 00 00	 call	 @__security_check_cookie@4
  0001e	b8 00 00 00 00	 mov	 eax, OFFSET __ehfuncinfo$?LoadData@TMonsterSkillUnit@@SAHPAD@Z
  00023	e9 00 00 00 00	 jmp	 ___CxxFrameHandler3
text$x	ENDS
?LoadData@TMonsterSkillUnit@@SAHPAD@Z ENDP		; TMonsterSkillUnit::LoadData
; Function compile flags: /Ogtp
; File c:\users\michel\desktop\source\gameserver\source\tmonsterskillunit.cpp
;	COMDAT ?Reset@TMonsterSkillUnit@@QAEXXZ
_TEXT	SEGMENT
?Reset@TMonsterSkillUnit@@QAEXXZ PROC			; TMonsterSkillUnit::Reset, COMDAT
; _this$ = ecx

; 32   : 	this->m_iUnitTargetType = -1;

  00000	c7 41 1c ff ff
	ff ff		 mov	 DWORD PTR [ecx+28], -1
  00007	0f 57 c0	 xorps	 xmm0, xmm0

; 33   : 	this->m_iUnitScopeType = -1;

  0000a	c7 41 20 ff ff
	ff ff		 mov	 DWORD PTR [ecx+32], -1

; 34   : 	this->m_iUnitScopeValue = -1;

  00011	c7 41 24 ff ff
	ff ff		 mov	 DWORD PTR [ecx+36], -1

; 35   : 	this->m_iDelay = -1;

  00018	c7 41 28 ff ff
	ff ff		 mov	 DWORD PTR [ecx+40], -1

; 36   : 	this->m_iUnitNumber = -1;

  0001f	c7 41 18 ff ff
	ff ff		 mov	 DWORD PTR [ecx+24], -1

; 37   : 	memset(this->m_szUnitName, 0, sizeof(this->m_szUnitName));

  00026	0f 11 41 04	 movups	 XMMWORD PTR [ecx+4], xmm0
  0002a	c7 41 14 00 00
	00 00		 mov	 DWORD PTR [ecx+20], 0

; 38   : 	this->m_iElementsCount = -1;

  00031	c7 41 2c ff ff
	ff ff		 mov	 DWORD PTR [ecx+44], -1

; 39   : 
; 40   : 	for (int i=0;i<5;i++)
; 41   : 	{
; 42   : 		this->m_lpElementsSlot[i] = NULL;

  00038	c7 41 30 00 00
	00 00		 mov	 DWORD PTR [ecx+48], 0
  0003f	c7 41 34 00 00
	00 00		 mov	 DWORD PTR [ecx+52], 0
  00046	c7 41 38 00 00
	00 00		 mov	 DWORD PTR [ecx+56], 0
  0004d	c7 41 3c 00 00
	00 00		 mov	 DWORD PTR [ecx+60], 0
  00054	c7 41 40 00 00
	00 00		 mov	 DWORD PTR [ecx+64], 0

; 43   : 	}
; 44   : }

  0005b	c3		 ret	 0
?Reset@TMonsterSkillUnit@@QAEXXZ ENDP			; TMonsterSkillUnit::Reset
_TEXT	ENDS
; Function compile flags: /Ogtp
; File c:\users\michel\desktop\source\gameserver\source\tmonsterskillunit.cpp
;	COMDAT ?RunSkill@TMonsterSkillUnit@@QAEXHH@Z
_TEXT	SEGMENT
_iIndex$ = 8						; size = 4
_iTargetIndex$ = 12					; size = 4
?RunSkill@TMonsterSkillUnit@@QAEXHH@Z PROC		; TMonsterSkillUnit::RunSkill, COMDAT
; _this$ = ecx

; 228  : {

  00000	55		 push	 ebp
  00001	8b ec		 mov	 ebp, esp
  00003	53		 push	 ebx
  00004	8b d9		 mov	 ebx, ecx
  00006	56		 push	 esi

; 229  : 	char szElementsName[5][20] = {0};
; 230  : 
; 231  : 	for ( int i=0;i<this->m_iElementsCount;i++)

  00007	33 f6		 xor	 esi, esi
  00009	39 73 2c	 cmp	 DWORD PTR [ebx+44], esi
  0000c	7e 30		 jle	 SHORT $LN3@RunSkill
  0000e	57		 push	 edi
  0000f	8d 7b 30	 lea	 edi, DWORD PTR [ebx+48]
$LL4@RunSkill:

; 232  : 	{
; 233  : 		if ( this->m_lpElementsSlot[i] == NULL )

  00012	8b 0f		 mov	 ecx, DWORD PTR [edi]
  00014	85 c9		 test	 ecx, ecx
  00016	75 12		 jne	 SHORT $LN5@RunSkill

; 234  : 		{
; 235  : 			LogAddC(2, "[Monster SkillUnit] SkillElement is NULL");

  00018	68 00 00 00 00	 push	 OFFSET ??_C@_0CJ@POAODADC@?$FLMonster?5SkillUnit?$FN?5SkillElement@
  0001d	6a 02		 push	 2
  0001f	ff 15 00 00 00
	00		 call	 DWORD PTR ?LogAddC@@3P6AXEPADZZA ; LogAddC
  00025	83 c4 08	 add	 esp, 8

; 236  : 			continue;

  00028	eb 0a		 jmp	 SHORT $LN2@RunSkill
$LN5@RunSkill:

; 237  : 		}
; 238  : 
; 239  : 		this->m_lpElementsSlot[i]->ForceSkillElement(iIndex, iTargetIndex);

  0002a	ff 75 0c	 push	 DWORD PTR _iTargetIndex$[ebp]
  0002d	8b 01		 mov	 eax, DWORD PTR [ecx]
  0002f	ff 75 08	 push	 DWORD PTR _iIndex$[ebp]
  00032	ff 10		 call	 DWORD PTR [eax]
$LN2@RunSkill:

; 229  : 	char szElementsName[5][20] = {0};
; 230  : 
; 231  : 	for ( int i=0;i<this->m_iElementsCount;i++)

  00034	46		 inc	 esi
  00035	83 c7 04	 add	 edi, 4
  00038	3b 73 2c	 cmp	 esi, DWORD PTR [ebx+44]
  0003b	7c d5		 jl	 SHORT $LL4@RunSkill
  0003d	5f		 pop	 edi
$LN3@RunSkill:
  0003e	5e		 pop	 esi
  0003f	5b		 pop	 ebx

; 240  : 	}
; 241  : }

  00040	5d		 pop	 ebp
  00041	c2 08 00	 ret	 8
?RunSkill@TMonsterSkillUnit@@QAEXHH@Z ENDP		; TMonsterSkillUnit::RunSkill
_TEXT	ENDS
; Function compile flags: /Ogtp
; File c:\users\michel\desktop\source\gameserver\source\tmonsterskillunit.cpp
;	COMDAT ??1TMonsterSkillUnit@@UAE@XZ
_TEXT	SEGMENT
??1TMonsterSkillUnit@@UAE@XZ PROC			; TMonsterSkillUnit::~TMonsterSkillUnit, COMDAT
; _this$ = ecx

; 25   : {

  00000	c7 01 00 00 00
	00		 mov	 DWORD PTR [ecx], OFFSET ??_7TMonsterSkillUnit@@6B@

; 26   : 	return;
; 27   : }

  00006	c3		 ret	 0
??1TMonsterSkillUnit@@UAE@XZ ENDP			; TMonsterSkillUnit::~TMonsterSkillUnit
_TEXT	ENDS
; Function compile flags: /Ogtp
; File c:\users\michel\desktop\source\gameserver\source\tmonsterskillunit.cpp
;	COMDAT ??0TMonsterSkillUnit@@QAE@XZ
_TEXT	SEGMENT
??0TMonsterSkillUnit@@QAE@XZ PROC			; TMonsterSkillUnit::TMonsterSkillUnit, COMDAT
; _this$ = ecx

; 20   : {

  00000	56		 push	 esi
  00001	8b f1		 mov	 esi, ecx
  00003	c7 06 00 00 00
	00		 mov	 DWORD PTR [esi], OFFSET ??_7TMonsterSkillUnit@@6B@

; 21   : 	this->Reset();

  00009	e8 00 00 00 00	 call	 ?Reset@TMonsterSkillUnit@@QAEXXZ ; TMonsterSkillUnit::Reset

; 22   : }

  0000e	8b c6		 mov	 eax, esi
  00010	5e		 pop	 esi
  00011	c3		 ret	 0
??0TMonsterSkillUnit@@QAE@XZ ENDP			; TMonsterSkillUnit::TMonsterSkillUnit
_TEXT	ENDS
; Function compile flags: /Ogtp
; File c:\users\michel\desktop\source\gameserver\source\tmonsterskillelement.h
;	COMDAT ?GetElementName@TMonsterSkillElement@@QAEPADXZ
_TEXT	SEGMENT
?GetElementName@TMonsterSkillElement@@QAEPADXZ PROC	; TMonsterSkillElement::GetElementName, COMDAT
; _this$ = ecx

; 93   : 	char* GetElementName(){return this->m_szElementName;}

  00000	8d 41 04	 lea	 eax, DWORD PTR [ecx+4]
  00003	c3		 ret	 0
?GetElementName@TMonsterSkillElement@@QAEPADXZ ENDP	; TMonsterSkillElement::GetElementName
_TEXT	ENDS
; Function compile flags: /Ogtp
; File c:\users\michel\desktop\source\gameserver\source\tmonsterskillunit.cpp
;	COMDAT ?__empty_global_delete@@YAXPAXI@Z
_TEXT	SEGMENT
___formal$ = 8						; size = 4
___formal$ = 12						; size = 4
?__empty_global_delete@@YAXPAXI@Z PROC			; __empty_global_delete, COMDAT

  00000	c3		 ret	 0
?__empty_global_delete@@YAXPAXI@Z ENDP			; __empty_global_delete
_TEXT	ENDS
; Function compile flags: /Ogtp
; File c:\users\michel\desktop\source\gameserver\source\tmonsterskillunit.cpp
;	COMDAT ?__empty_global_delete@@YAXPAX@Z
_TEXT	SEGMENT
___formal$ = 8						; size = 4
?__empty_global_delete@@YAXPAX@Z PROC			; __empty_global_delete, COMDAT

  00000	c3		 ret	 0
?__empty_global_delete@@YAXPAX@Z ENDP			; __empty_global_delete
_TEXT	ENDS
END
