; Listing generated by Microsoft (R) Optimizing Compiler Version 19.00.23506.0 

	TITLE	C:\Users\Michel\Desktop\Source\GameServer\Source\TMonsterAI.cpp
	.686P
	.XMM
	include listing.inc
	.model	flat

INCLUDELIB LIBCMT
INCLUDELIB OLDNAMES

PUBLIC	?__empty_global_delete@@YAXPAX@Z		; __empty_global_delete
PUBLIC	?__empty_global_delete@@YAXPAXI@Z		; __empty_global_delete
PUBLIC	??1OBJECTSTRUCT@@QAE@XZ				; OBJECTSTRUCT::~OBJECTSTRUCT
PUBLIC	??_EOBJECTSTRUCT@@QAEPAXI@Z			; OBJECTSTRUCT::`vector deleting destructor'
PUBLIC	??0TMonsterAI@@QAE@XZ				; TMonsterAI::TMonsterAI
PUBLIC	??1TMonsterAI@@UAE@XZ				; TMonsterAI::~TMonsterAI
PUBLIC	?MonsterMove@TMonsterAI@@SAXH@Z			; TMonsterAI::MonsterMove
PUBLIC	?MonsterMoveProc@TMonsterAI@@SAXXZ		; TMonsterAI::MonsterMoveProc
PUBLIC	?MonsterAIProc@TMonsterAI@@SAXXZ		; TMonsterAI::MonsterAIProc
PUBLIC	?RunAI@TMonsterAI@@SAHHH@Z			; TMonsterAI::RunAI
PUBLIC	?UpdateCurrentAIUnit@TMonsterAI@@SAHH@Z		; TMonsterAI::UpdateCurrentAIUnit
PUBLIC	?MonsterStateMsgProc@TMonsterAI@@SAXH@Z		; TMonsterAI::MonsterStateMsgProc
PUBLIC	?ProcessStateMsg@TMonsterAI@@SAXPAUOBJECTSTRUCT@@HHH@Z ; TMonsterAI::ProcessStateMsg
PUBLIC	??_GTMonsterAI@@UAEPAXI@Z			; TMonsterAI::`scalar deleting destructor'
PUBLIC	??_7TMonsterAI@@6B@				; TMonsterAI::`vftable'
PUBLIC	??_C@_0BL@NACNEGGB@UpdateCurrentAI?5?$KN?5?$CFs?5Done?$CB?$AA@ ; `string'
PUBLIC	??_R4TMonsterAI@@6B@				; TMonsterAI::`RTTI Complete Object Locator'
PUBLIC	??_R0?AVTMonsterAI@@@8				; TMonsterAI `RTTI Type Descriptor'
PUBLIC	??_R3TMonsterAI@@8				; TMonsterAI::`RTTI Class Hierarchy Descriptor'
PUBLIC	??_R2TMonsterAI@@8				; TMonsterAI::`RTTI Base Class Array'
PUBLIC	??_R1A@?0A@EA@TMonsterAI@@8			; TMonsterAI::`RTTI Base Class Descriptor at (0,-1,0,64)'
PUBLIC	__real@3ff4cccccccccccd
PUBLIC	__xmm@41f00000000000000000000000000000
EXTRN	??_M@YGXPAXIIP6EX0@Z@Z:PROC			; `eh vector destructor iterator'
EXTRN	??3@YAXPAXI@Z:PROC				; operator delete
EXTRN	??_V@YAXPAXI@Z:PROC				; operator delete[]
EXTRN	_atexit:PROC
EXTRN	__imp__GetTickCount@0:PROC
EXTRN	??1CSkillDelay@@UAE@XZ:PROC			; CSkillDelay::~CSkillDelay
EXTRN	??1TMonsterAIAgro@@UAE@XZ:PROC			; TMonsterAIAgro::~TMonsterAIAgro
EXTRN	?DelAgro@TMonsterAIAgro@@QAEHH@Z:PROC		; TMonsterAIAgro::DelAgro
EXTRN	?gObjBackSpring@@YAHPAUOBJECTSTRUCT@@0@Z:PROC	; gObjBackSpring
EXTRN	?gObjBackSpring2@@YAHPAUOBJECTSTRUCT@@0H@Z:PROC	; gObjBackSpring2
EXTRN	?retResistance@@YAHPAUOBJECTSTRUCT@@H@Z:PROC	; retResistance
EXTRN	?gObjAttack@@YAXPAUOBJECTSTRUCT@@0PAVCMagicInf@@HEHHEE@Z:PROC ; gObjAttack
EXTRN	?CreateFrustrum@@YAXHHH@Z:PROC			; CreateFrustrum
EXTRN	?gObjMonsterDieGiveItem@@YAXPAUOBJECTSTRUCT@@0@Z:PROC ; gObjMonsterDieGiveItem
EXTRN	??_ETMonsterAI@@UAEPAXI@Z:PROC			; TMonsterAI::`vector deleting destructor'
EXTRN	?RunAIUnit@TMonsterAIUnit@@QAEHH@Z:PROC		; TMonsterAIUnit::RunAIUnit
EXTRN	?FindAIUnit@TMonsterAIUnit@@SAPAV1@H@Z:PROC	; TMonsterAIUnit::FindAIUnit
EXTRN	??0TMonsterAIUtil@@QAE@XZ:PROC			; TMonsterAIUtil::TMonsterAIUtil
EXTRN	??1TMonsterAIUtil@@UAE@XZ:PROC			; TMonsterAIUtil::~TMonsterAIUtil
EXTRN	?CheckMovingCondition@TMonsterAIUtil@@QAEHPAUOBJECTSTRUCT@@@Z:PROC ; TMonsterAIUtil::CheckMovingCondition
EXTRN	??0CCrywolfUtil@@QAE@XZ:PROC			; CCrywolfUtil::CCrywolfUtil
EXTRN	??1CCrywolfUtil@@UAE@XZ:PROC			; CCrywolfUtil::~CCrywolfUtil
EXTRN	?SendCrywolfChattingMsg@CCrywolfUtil@@QAAXHPADZZ:PROC ; CCrywolfUtil::SendCrywolfChattingMsg
EXTRN	?gObjAddBuffEffect@@YA_NPAUOBJECTSTRUCT@@HEHEHH@Z:PROC ; gObjAddBuffEffect
EXTRN	?gObjCheckUsedBuffEffect@@YA_NPAUOBJECTSTRUCT@@H@Z:PROC ; gObjCheckUsedBuffEffect
EXTRN	@__security_check_cookie@4:PROC
EXTRN	___CxxFrameHandler3:PROC
EXTRN	__dtoui3:PROC
EXTRN	_memset:PROC
EXTRN	??_7type_info@@6B@:QWORD			; type_info::`vftable'
EXTRN	?gSMMsg@@3PAY0BE@UMessageStateMachine@@A:BYTE	; gSMMsg
EXTRN	?gObj@@3PAUOBJECTSTRUCT@@A:DWORD		; gObj
EXTRN	___security_cookie:DWORD
EXTRN	__fltused:DWORD
_BSS	SEGMENT
?MONSTER_UTIL@@3VTMonsterAIUtil@@A DD 01H DUP (?)	; MONSTER_UTIL
?UTIL@@3VCCrywolfUtil@@A DD 01H DUP (?)			; UTIL
_BSS	ENDS
CRT$XCU	SEGMENT
?MONSTER_UTIL$initializer$@@3P6AXXZA DD FLAT:??__EMONSTER_UTIL@@YAXXZ ; MONSTER_UTIL$initializer$
CRT$XCU	ENDS
;	COMDAT __xmm@41f00000000000000000000000000000
CONST	SEGMENT
__xmm@41f00000000000000000000000000000 DB 00H, 00H, 00H, 00H, 00H, 00H, 00H
	DB	00H, 00H, 00H, 00H, 00H, 00H, 00H, 0f0H, 'A'
CONST	ENDS
;	COMDAT __real@3ff4cccccccccccd
CONST	SEGMENT
__real@3ff4cccccccccccd DQ 03ff4cccccccccccdr	; 1.3
CONST	ENDS
;	COMDAT ??_R1A@?0A@EA@TMonsterAI@@8
rdata$r	SEGMENT
??_R1A@?0A@EA@TMonsterAI@@8 DD FLAT:??_R0?AVTMonsterAI@@@8 ; TMonsterAI::`RTTI Base Class Descriptor at (0,-1,0,64)'
	DD	00H
	DD	00H
	DD	0ffffffffH
	DD	00H
	DD	040H
	DD	FLAT:??_R3TMonsterAI@@8
rdata$r	ENDS
;	COMDAT ??_R2TMonsterAI@@8
rdata$r	SEGMENT
??_R2TMonsterAI@@8 DD FLAT:??_R1A@?0A@EA@TMonsterAI@@8	; TMonsterAI::`RTTI Base Class Array'
rdata$r	ENDS
;	COMDAT ??_R3TMonsterAI@@8
rdata$r	SEGMENT
??_R3TMonsterAI@@8 DD 00H				; TMonsterAI::`RTTI Class Hierarchy Descriptor'
	DD	00H
	DD	01H
	DD	FLAT:??_R2TMonsterAI@@8
rdata$r	ENDS
;	COMDAT ??_R0?AVTMonsterAI@@@8
data$r	SEGMENT
??_R0?AVTMonsterAI@@@8 DD FLAT:??_7type_info@@6B@	; TMonsterAI `RTTI Type Descriptor'
	DD	00H
	DB	'.?AVTMonsterAI@@', 00H
data$r	ENDS
;	COMDAT ??_R4TMonsterAI@@6B@
rdata$r	SEGMENT
??_R4TMonsterAI@@6B@ DD 00H				; TMonsterAI::`RTTI Complete Object Locator'
	DD	00H
	DD	00H
	DD	FLAT:??_R0?AVTMonsterAI@@@8
	DD	FLAT:??_R3TMonsterAI@@8
rdata$r	ENDS
;	COMDAT ??_C@_0BL@NACNEGGB@UpdateCurrentAI?5?$KN?5?$CFs?5Done?$CB?$AA@
CONST	SEGMENT
??_C@_0BL@NACNEGGB@UpdateCurrentAI?5?$KN?5?$CFs?5Done?$CB?$AA@ DB 'Update'
	DB	'CurrentAI ', 0adH, ' %s Done!', 00H		; `string'
CONST	ENDS
;	COMDAT ??_7TMonsterAI@@6B@
CONST	SEGMENT
??_7TMonsterAI@@6B@ DD FLAT:??_R4TMonsterAI@@6B@	; TMonsterAI::`vftable'
	DD	FLAT:??_ETMonsterAI@@UAEPAXI@Z
CONST	ENDS
;	COMDAT xdata$x
xdata$x	SEGMENT
__ehfuncinfo$??_EOBJECTSTRUCT@@QAEPAXI@Z DD 019930522H
	DD	00H
	DD	00H
	DD	2 DUP(00H)
	DD	2 DUP(00H)
	DD	00H
	DD	05H
xdata$x	ENDS
CRT$XCU	SEGMENT
?UTIL$initializer$@@3P6AXXZA DD FLAT:??__EUTIL@@YAXXZ	; UTIL$initializer$
CRT$XCU	ENDS
; Function compile flags: /Ogtp
;	COMDAT ??__FUTIL@@YAXXZ
text$yd	SEGMENT
??__FUTIL@@YAXXZ PROC					; `dynamic atexit destructor for 'UTIL'', COMDAT
  00000	b9 00 00 00 00	 mov	 ecx, OFFSET ?UTIL@@3VCCrywolfUtil@@A
  00005	e9 00 00 00 00	 jmp	 ??1CCrywolfUtil@@UAE@XZ	; CCrywolfUtil::~CCrywolfUtil
??__FUTIL@@YAXXZ ENDP					; `dynamic atexit destructor for 'UTIL''
text$yd	ENDS
; Function compile flags: /Ogtp
; File c:\users\michel\desktop\source\gameserver\source\tmonsterai.cpp
;	COMDAT ??__EUTIL@@YAXXZ
text$di	SEGMENT
??__EUTIL@@YAXXZ PROC					; `dynamic initializer for 'UTIL'', COMDAT

; 17   : static CCrywolfUtil UTIL;

  00000	b9 00 00 00 00	 mov	 ecx, OFFSET ?UTIL@@3VCCrywolfUtil@@A
  00005	e8 00 00 00 00	 call	 ??0CCrywolfUtil@@QAE@XZ	; CCrywolfUtil::CCrywolfUtil
  0000a	68 00 00 00 00	 push	 OFFSET ??__FUTIL@@YAXXZ	; `dynamic atexit destructor for 'UTIL''
  0000f	e8 00 00 00 00	 call	 _atexit
  00014	59		 pop	 ecx
  00015	c3		 ret	 0
??__EUTIL@@YAXXZ ENDP					; `dynamic initializer for 'UTIL''
text$di	ENDS
; Function compile flags: /Ogtp
;	COMDAT ??__FMONSTER_UTIL@@YAXXZ
text$yd	SEGMENT
??__FMONSTER_UTIL@@YAXXZ PROC				; `dynamic atexit destructor for 'MONSTER_UTIL'', COMDAT
  00000	b9 00 00 00 00	 mov	 ecx, OFFSET ?MONSTER_UTIL@@3VTMonsterAIUtil@@A
  00005	e9 00 00 00 00	 jmp	 ??1TMonsterAIUtil@@UAE@XZ ; TMonsterAIUtil::~TMonsterAIUtil
??__FMONSTER_UTIL@@YAXXZ ENDP				; `dynamic atexit destructor for 'MONSTER_UTIL''
text$yd	ENDS
; Function compile flags: /Ogtp
; File c:\users\michel\desktop\source\gameserver\source\tmonsterai.cpp
;	COMDAT ??__EMONSTER_UTIL@@YAXXZ
text$di	SEGMENT
??__EMONSTER_UTIL@@YAXXZ PROC				; `dynamic initializer for 'MONSTER_UTIL'', COMDAT

; 16   : static TMonsterAIUtil MONSTER_UTIL;

  00000	b9 00 00 00 00	 mov	 ecx, OFFSET ?MONSTER_UTIL@@3VTMonsterAIUtil@@A
  00005	e8 00 00 00 00	 call	 ??0TMonsterAIUtil@@QAE@XZ ; TMonsterAIUtil::TMonsterAIUtil
  0000a	68 00 00 00 00	 push	 OFFSET ??__FMONSTER_UTIL@@YAXXZ ; `dynamic atexit destructor for 'MONSTER_UTIL''
  0000f	e8 00 00 00 00	 call	 _atexit
  00014	59		 pop	 ecx
  00015	c3		 ret	 0
??__EMONSTER_UTIL@@YAXXZ ENDP				; `dynamic initializer for 'MONSTER_UTIL''
text$di	ENDS
; Function compile flags: /Ogtp
;	COMDAT ??_GTMonsterAI@@UAEPAXI@Z
_TEXT	SEGMENT
___flags$ = 8						; size = 4
??_GTMonsterAI@@UAEPAXI@Z PROC				; TMonsterAI::`scalar deleting destructor', COMDAT
; _this$ = ecx
  00000	55		 push	 ebp
  00001	8b ec		 mov	 ebp, esp
  00003	56		 push	 esi
  00004	8b f1		 mov	 esi, ecx
  00006	e8 00 00 00 00	 call	 ??1TMonsterAI@@UAE@XZ	; TMonsterAI::~TMonsterAI
  0000b	f6 45 08 01	 test	 BYTE PTR ___flags$[ebp], 1
  0000f	74 0b		 je	 SHORT $LN4@scalar
  00011	6a 04		 push	 4
  00013	56		 push	 esi
  00014	e8 00 00 00 00	 call	 ??3@YAXPAXI@Z		; operator delete
  00019	83 c4 08	 add	 esp, 8
$LN4@scalar:
  0001c	8b c6		 mov	 eax, esi
  0001e	5e		 pop	 esi
  0001f	5d		 pop	 ebp
  00020	c2 04 00	 ret	 4
??_GTMonsterAI@@UAEPAXI@Z ENDP				; TMonsterAI::`scalar deleting destructor'
_TEXT	ENDS
; Function compile flags: /Ogtp
; File c:\users\michel\desktop\source\gameserver\source\tmonsterai.cpp
;	COMDAT ?ProcessStateMsg@TMonsterAI@@SAXPAUOBJECTSTRUCT@@HHH@Z
_TEXT	SEGMENT
_lpObj$ = 8						; size = 4
_iMsgCode$ = 12						; size = 4
_iIndex$ = 16						; size = 4
_aMsgSubCode$ = 20					; size = 4
?ProcessStateMsg@TMonsterAI@@SAXPAUOBJECTSTRUCT@@HHH@Z PROC ; TMonsterAI::ProcessStateMsg, COMDAT

; 107  : {

  00000	55		 push	 ebp
  00001	8b ec		 mov	 ebp, esp

; 108  : 	switch ( iMsgCode )

  00003	8b 45 0c	 mov	 eax, DWORD PTR _iMsgCode$[ebp]
  00006	48		 dec	 eax
  00007	83 f8 38	 cmp	 eax, 56			; 00000038H
  0000a	0f 87 4c 01 00
	00		 ja	 $LN2@ProcessSta
  00010	0f b6 80 00 00
	00 00		 movzx	 eax, BYTE PTR $LN16@ProcessSta[eax]
  00017	56		 push	 esi
  00018	ff 24 85 00 00
	00 00		 jmp	 DWORD PTR $LN19@ProcessSta[eax*4]
$LN4@ProcessSta:

; 109  : 	{
; 110  : 		case 1:
; 111  : 			gObjMonsterDieGiveItem(lpObj, &gObj[iIndex]);

  0001f	69 45 10 40 27
	00 00		 imul	 eax, DWORD PTR _iIndex$[ebp], 10048
  00026	03 05 00 00 00
	00		 add	 eax, DWORD PTR ?gObj@@3PAUOBJECTSTRUCT@@A ; gObj
  0002c	50		 push	 eax
  0002d	ff 75 08	 push	 DWORD PTR _lpObj$[ebp]
  00030	e8 00 00 00 00	 call	 ?gObjMonsterDieGiveItem@@YAXPAUOBJECTSTRUCT@@0@Z ; gObjMonsterDieGiveItem
  00035	83 c4 08	 add	 esp, 8
  00038	5e		 pop	 esi

; 163  : 			}
; 164  : 			break;
; 165  : 	}
; 166  : }

  00039	5d		 pop	 ebp
  0003a	c3		 ret	 0
$LN5@ProcessSta:

; 112  : 			break;
; 113  : 
; 114  : 		case 2:
; 115  : 			if ( gObj[iIndex].Live != FALSE )

  0003b	69 4d 10 40 27
	00 00		 imul	 ecx, DWORD PTR _iIndex$[ebp], 10048
  00042	a1 00 00 00 00	 mov	 eax, DWORD PTR ?gObj@@3PAUOBJECTSTRUCT@@A ; gObj
  00047	03 c1		 add	 eax, ecx
  00049	80 78 51 00	 cmp	 BYTE PTR [eax+81], 0
  0004d	0f 84 08 01 00
	00		 je	 $LN17@ProcessSta

; 116  : 			{
; 117  : 				gObjBackSpring(lpObj, &gObj[iIndex]);

  00053	50		 push	 eax
  00054	ff 75 08	 push	 DWORD PTR _lpObj$[ebp]
  00057	e8 00 00 00 00	 call	 ?gObjBackSpring@@YAHPAUOBJECTSTRUCT@@0@Z ; gObjBackSpring
  0005c	83 c4 08	 add	 esp, 8
  0005f	5e		 pop	 esi

; 163  : 			}
; 164  : 			break;
; 165  : 	}
; 166  : }

  00060	5d		 pop	 ebp
  00061	c3		 ret	 0
$LN7@ProcessSta:

; 118  : 			}
; 119  : 			break;
; 120  : 
; 121  : 		case 3:
; 122  : 			if ( lpObj->TargetNumber != -1 )

  00062	8b 75 08	 mov	 esi, DWORD PTR _lpObj$[ebp]
  00065	0f b7 86 38 06
	00 00		 movzx	 eax, WORD PTR [esi+1592]
  0006c	66 83 f8 ff	 cmp	 ax, -1
  00070	74 0d		 je	 SHORT $LN8@ProcessSta

; 123  : 			{
; 124  : 				lpObj->m_Agro.DelAgro(lpObj->TargetNumber);

  00072	98		 cwde
  00073	8d 8e ec 20 00
	00		 lea	 ecx, DWORD PTR [esi+8428]
  00079	50		 push	 eax
  0007a	e8 00 00 00 00	 call	 ?DelAgro@TMonsterAIAgro@@QAEHH@Z ; TMonsterAIAgro::DelAgro
$LN8@ProcessSta:

; 125  : 			}
; 126  : 
; 127  : 			lpObj->TargetNumber = -1;

  0007f	83 c8 ff	 or	 eax, -1

; 128  : 			lpObj->LastAttackerID = -1;
; 129  : 			lpObj->m_ActState.Emotion = 0;
; 130  : 			lpObj->m_ActState.Attack = 0;
; 131  : 			lpObj->m_ActState.Move = 0;
; 132  : 			lpObj->NextActionTime = 1000;

  00082	c7 86 a0 05 00
	00 e8 03 00 00	 mov	 DWORD PTR [esi+1440], 1000 ; 000003e8H
  0008c	81 a6 c8 01 00
	00 09 ff ff ff	 and	 DWORD PTR [esi+456], -247 ; ffffff09H
  00096	66 89 86 38 06
	00 00		 mov	 WORD PTR [esi+1592], ax
  0009d	66 89 86 3e 06
	00 00		 mov	 WORD PTR [esi+1598], ax
  000a4	5e		 pop	 esi

; 163  : 			}
; 164  : 			break;
; 165  : 	}
; 166  : }

  000a5	5d		 pop	 ebp
  000a6	c3		 ret	 0
$LN9@ProcessSta:

; 133  : 			break;
; 134  : 
; 135  : 		case 4:
; 136  : 			lpObj->m_ActState.Emotion = 3;

  000a7	8b 4d 08	 mov	 ecx, DWORD PTR _lpObj$[ebp]
  000aa	5e		 pop	 esi
  000ab	8b 81 c8 01 00
	00		 mov	 eax, DWORD PTR [ecx+456]
  000b1	25 3f ff ff ff	 and	 eax, -193		; ffffff3fH
  000b6	83 c8 30	 or	 eax, 48			; 00000030H
  000b9	89 81 c8 01 00
	00		 mov	 DWORD PTR [ecx+456], eax

; 137  : 			lpObj->m_ActState.EmotionCount = 1;

  000bf	c6 81 c9 01 00
	00 01		 mov	 BYTE PTR [ecx+457], 1

; 163  : 			}
; 164  : 			break;
; 165  : 	}
; 166  : }

  000c6	5d		 pop	 ebp
  000c7	c3		 ret	 0
$LN10@ProcessSta:

; 138  : 			break;
; 139  : 
; 140  : 		case 55:
; 141  : 			gObjAttack(lpObj, &gObj[iIndex], NULL, FALSE, FALSE, 0, FALSE,0,0);

  000c8	69 45 10 40 27
	00 00		 imul	 eax, DWORD PTR _iIndex$[ebp], 10048
  000cf	6a 00		 push	 0
  000d1	6a 00		 push	 0
  000d3	6a 00		 push	 0
  000d5	6a 00		 push	 0
  000d7	03 05 00 00 00
	00		 add	 eax, DWORD PTR ?gObj@@3PAUOBJECTSTRUCT@@A ; gObj
  000dd	6a 00		 push	 0
  000df	6a 00		 push	 0
  000e1	6a 00		 push	 0
  000e3	50		 push	 eax
  000e4	ff 75 08	 push	 DWORD PTR _lpObj$[ebp]
  000e7	e8 00 00 00 00	 call	 ?gObjAttack@@YAXPAUOBJECTSTRUCT@@0PAVCMagicInf@@HEHHEE@Z ; gObjAttack
  000ec	83 c4 24	 add	 esp, 36			; 00000024H
  000ef	5e		 pop	 esi

; 163  : 			}
; 164  : 			break;
; 165  : 	}
; 166  : }

  000f0	5d		 pop	 ebp
  000f1	c3		 ret	 0
$LN11@ProcessSta:

; 142  : 			break;
; 143  : 
; 144  : 		case 56:
; 145  : 			{
; 146  : 				LPOBJ lpTargetObj = &gObj[iIndex];

  000f2	69 75 10 40 27
	00 00		 imul	 esi, DWORD PTR _iIndex$[ebp], 10048

; 147  : 
; 148  : 				if( gObjCheckUsedBuffEffect(lpTargetObj,BUFF_POISON) == FALSE )

  000f9	6a 37		 push	 55			; 00000037H
  000fb	03 35 00 00 00
	00		 add	 esi, DWORD PTR ?gObj@@3PAUOBJECTSTRUCT@@A ; gObj
  00101	56		 push	 esi
  00102	e8 00 00 00 00	 call	 ?gObjCheckUsedBuffEffect@@YA_NPAUOBJECTSTRUCT@@H@Z ; gObjCheckUsedBuffEffect
  00107	83 c4 08	 add	 esp, 8
  0010a	84 c0		 test	 al, al
  0010c	75 4d		 jne	 SHORT $LN17@ProcessSta

; 149  : 				{
; 150  : 					if( retResistance(lpTargetObj,R_POISON) == FALSE )

  0010e	6a 01		 push	 1
  00110	56		 push	 esi
  00111	e8 00 00 00 00	 call	 ?retResistance@@YAHPAUOBJECTSTRUCT@@H@Z ; retResistance
  00116	83 c4 08	 add	 esp, 8
  00119	85 c0		 test	 eax, eax
  0011b	75 3e		 jne	 SHORT $LN17@ProcessSta

; 151  : 					{
; 152  : 						lpTargetObj->lpAttackObj = lpObj;
; 153  : 						gObjAddBuffEffect(lpTargetObj,BUFF_POISON,ADD_OPTION_REDUCE_HPPERC,3,0,0,aMsgSubCode);

  0011d	ff 75 14	 push	 DWORD PTR _aMsgSubCode$[ebp]
  00120	8b 45 08	 mov	 eax, DWORD PTR _lpObj$[ebp]
  00123	6a 00		 push	 0
  00125	6a 00		 push	 0
  00127	6a 03		 push	 3
  00129	6a 13		 push	 19			; 00000013H
  0012b	6a 37		 push	 55			; 00000037H
  0012d	56		 push	 esi
  0012e	89 86 b4 05 00
	00		 mov	 DWORD PTR [esi+1460], eax
  00134	e8 00 00 00 00	 call	 ?gObjAddBuffEffect@@YA_NPAUOBJECTSTRUCT@@HEHEHH@Z ; gObjAddBuffEffect
  00139	83 c4 1c	 add	 esp, 28			; 0000001cH
  0013c	5e		 pop	 esi

; 163  : 			}
; 164  : 			break;
; 165  : 	}
; 166  : }

  0013d	5d		 pop	 ebp
  0013e	c3		 ret	 0
$LN14@ProcessSta:

; 154  : 					}
; 155  : 				}
; 156  : 			}
; 157  : 			break;
; 158  : 
; 159  : 		case 57:
; 160  : 			{
; 161  : 				LPOBJ lpTargetObj = &gObj[iIndex];

  0013f	69 45 10 40 27
	00 00		 imul	 eax, DWORD PTR _iIndex$[ebp], 10048

; 162  : 				gObjBackSpring2(lpTargetObj, lpObj, aMsgSubCode);

  00146	ff 75 14	 push	 DWORD PTR _aMsgSubCode$[ebp]
  00149	ff 75 08	 push	 DWORD PTR _lpObj$[ebp]
  0014c	03 05 00 00 00
	00		 add	 eax, DWORD PTR ?gObj@@3PAUOBJECTSTRUCT@@A ; gObj
  00152	50		 push	 eax
  00153	e8 00 00 00 00	 call	 ?gObjBackSpring2@@YAHPAUOBJECTSTRUCT@@0H@Z ; gObjBackSpring2
  00158	83 c4 0c	 add	 esp, 12			; 0000000cH
$LN17@ProcessSta:
  0015b	5e		 pop	 esi
$LN2@ProcessSta:

; 163  : 			}
; 164  : 			break;
; 165  : 	}
; 166  : }

  0015c	5d		 pop	 ebp
  0015d	c3		 ret	 0
  0015e	66 90		 npad	 2
$LN19@ProcessSta:
  00160	00 00 00 00	 DD	 $LN4@ProcessSta
  00164	00 00 00 00	 DD	 $LN5@ProcessSta
  00168	00 00 00 00	 DD	 $LN7@ProcessSta
  0016c	00 00 00 00	 DD	 $LN9@ProcessSta
  00170	00 00 00 00	 DD	 $LN10@ProcessSta
  00174	00 00 00 00	 DD	 $LN11@ProcessSta
  00178	00 00 00 00	 DD	 $LN14@ProcessSta
  0017c	00 00 00 00	 DD	 $LN17@ProcessSta
$LN16@ProcessSta:
  00180	00		 DB	 0
  00181	01		 DB	 1
  00182	02		 DB	 2
  00183	03		 DB	 3
  00184	07		 DB	 7
  00185	07		 DB	 7
  00186	07		 DB	 7
  00187	07		 DB	 7
  00188	07		 DB	 7
  00189	07		 DB	 7
  0018a	07		 DB	 7
  0018b	07		 DB	 7
  0018c	07		 DB	 7
  0018d	07		 DB	 7
  0018e	07		 DB	 7
  0018f	07		 DB	 7
  00190	07		 DB	 7
  00191	07		 DB	 7
  00192	07		 DB	 7
  00193	07		 DB	 7
  00194	07		 DB	 7
  00195	07		 DB	 7
  00196	07		 DB	 7
  00197	07		 DB	 7
  00198	07		 DB	 7
  00199	07		 DB	 7
  0019a	07		 DB	 7
  0019b	07		 DB	 7
  0019c	07		 DB	 7
  0019d	07		 DB	 7
  0019e	07		 DB	 7
  0019f	07		 DB	 7
  001a0	07		 DB	 7
  001a1	07		 DB	 7
  001a2	07		 DB	 7
  001a3	07		 DB	 7
  001a4	07		 DB	 7
  001a5	07		 DB	 7
  001a6	07		 DB	 7
  001a7	07		 DB	 7
  001a8	07		 DB	 7
  001a9	07		 DB	 7
  001aa	07		 DB	 7
  001ab	07		 DB	 7
  001ac	07		 DB	 7
  001ad	07		 DB	 7
  001ae	07		 DB	 7
  001af	07		 DB	 7
  001b0	07		 DB	 7
  001b1	07		 DB	 7
  001b2	07		 DB	 7
  001b3	07		 DB	 7
  001b4	07		 DB	 7
  001b5	07		 DB	 7
  001b6	04		 DB	 4
  001b7	05		 DB	 5
  001b8	06		 DB	 6
?ProcessStateMsg@TMonsterAI@@SAXPAUOBJECTSTRUCT@@HHH@Z ENDP ; TMonsterAI::ProcessStateMsg
_TEXT	ENDS
; Function compile flags: /Ogtp
; File c:\users\michel\desktop\source\gameserver\source\tmonsterai.cpp
;	COMDAT ?MonsterStateMsgProc@TMonsterAI@@SAXH@Z
_TEXT	SEGMENT
_iIndex$ = 8						; size = 4
?MonsterStateMsgProc@TMonsterAI@@SAXH@Z PROC		; TMonsterAI::MonsterStateMsgProc, COMDAT

; 87   : {

  00000	55		 push	 ebp
  00001	8b ec		 mov	 ebp, esp

; 88   : 	LPOBJ lpObj = &gObj[iIndex];

  00003	8b 45 08	 mov	 eax, DWORD PTR _iIndex$[ebp]
  00006	53		 push	 ebx
  00007	56		 push	 esi
  00008	69 d8 40 27 00
	00		 imul	 ebx, eax, 10048
  0000e	8d 34 80	 lea	 esi, DWORD PTR [eax+eax*4]
  00011	c1 e6 06	 shl	 esi, 6
  00014	57		 push	 edi
  00015	bf 14 00 00 00	 mov	 edi, 20			; 00000014H
  0001a	03 1d 00 00 00
	00		 add	 ebx, DWORD PTR ?gObj@@3PAUOBJECTSTRUCT@@A ; gObj
  00020	81 c6 00 00 00
	00		 add	 esi, OFFSET ?gSMMsg@@3PAY0BE@UMessageStateMachine@@A ; gSMMsg
$LL4@MonsterSta:

; 91   : 	{
; 92   : 		if ( gSMMsg[iIndex][i].MsgCode >= 0 )

  00026	83 3e 00	 cmp	 DWORD PTR [esi], 0
  00029	7c 22		 jl	 SHORT $LN2@MonsterSta

; 93   : 		{
; 94   : 			if ( GetTickCount() > gSMMsg[iIndex][i].MsgTime )

  0002b	ff 15 00 00 00
	00		 call	 DWORD PTR __imp__GetTickCount@0
  00031	3b 46 08	 cmp	 eax, DWORD PTR [esi+8]
  00034	76 17		 jbe	 SHORT $LN2@MonsterSta

; 95   : 			{
; 96   : 				TMonsterAI::ProcessStateMsg(lpObj, gSMMsg[iIndex][i].MsgCode, gSMMsg[iIndex][i].SendUser, gSMMsg[iIndex][i].SubCode);

  00036	ff 76 0c	 push	 DWORD PTR [esi+12]
  00039	ff 76 04	 push	 DWORD PTR [esi+4]
  0003c	ff 36		 push	 DWORD PTR [esi]
  0003e	53		 push	 ebx
  0003f	e8 00 00 00 00	 call	 ?ProcessStateMsg@TMonsterAI@@SAXPAUOBJECTSTRUCT@@HHH@Z ; TMonsterAI::ProcessStateMsg
  00044	83 c4 10	 add	 esp, 16			; 00000010H

; 97   : 				gSMMsg[iIndex][i].MsgCode = -1;

  00047	c7 06 ff ff ff
	ff		 mov	 DWORD PTR [esi], -1
$LN2@MonsterSta:

; 89   : 
; 90   : 	for ( int i=0;i<MAX_MONSTER_SEND_MSG;i++)

  0004d	83 c6 10	 add	 esi, 16			; 00000010H
  00050	83 ef 01	 sub	 edi, 1
  00053	75 d1		 jne	 SHORT $LL4@MonsterSta
  00055	5f		 pop	 edi
  00056	5e		 pop	 esi
  00057	5b		 pop	 ebx

; 98   : 			}
; 99   : 		}
; 100  : 	}
; 101  : }

  00058	5d		 pop	 ebp
  00059	c3		 ret	 0
?MonsterStateMsgProc@TMonsterAI@@SAXH@Z ENDP		; TMonsterAI::MonsterStateMsgProc
_TEXT	ENDS
; Function compile flags: /Ogtp
; File c:\users\michel\desktop\source\gameserver\source\tmonsterai.cpp
;	COMDAT ?UpdateCurrentAIUnit@TMonsterAI@@SAHH@Z
_TEXT	SEGMENT
_iIndex$ = 8						; size = 4
?UpdateCurrentAIUnit@TMonsterAI@@SAHH@Z PROC		; TMonsterAI::UpdateCurrentAIUnit, COMDAT

; 174  : {

  00000	55		 push	 ebp
  00001	8b ec		 mov	 ebp, esp
  00003	56		 push	 esi

; 175  : 	LPOBJ lpObj = &gObj[iIndex];

  00004	69 75 08 40 27
	00 00		 imul	 esi, DWORD PTR _iIndex$[ebp], 10048
  0000b	03 35 00 00 00
	00		 add	 esi, DWORD PTR ?gObj@@3PAUOBJECTSTRUCT@@A ; gObj

; 176  : 
; 177  : 	if ( lpObj->Live == FALSE )

  00011	80 7e 51 00	 cmp	 BYTE PTR [esi+81], 0
  00015	75 05		 jne	 SHORT $LN2@UpdateCurr

; 178  : 		return FALSE;

  00017	33 c0		 xor	 eax, eax
  00019	5e		 pop	 esi

; 196  : }

  0001a	5d		 pop	 ebp
  0001b	c3		 ret	 0
$LN2@UpdateCurr:

; 179  : 
; 180  : 	int iOldCurrentAI = lpObj->m_iCurrentAI;
; 181  : 	int iCurrentAI = 0;
; 182  : 
; 183  : 	if ( lpObj->m_iBasicAI != 0 )

  0001c	8b 86 cc 20 00
	00		 mov	 eax, DWORD PTR [esi+8396]
  00022	33 c9		 xor	 ecx, ecx
  00024	85 c0		 test	 eax, eax
  00026	57		 push	 edi
  00027	8b be d0 20 00
	00		 mov	 edi, DWORD PTR [esi+8400]
  0002d	0f 45 c8	 cmovne	 ecx, eax

; 184  : 	{
; 185  : 		iCurrentAI = lpObj->m_iBasicAI;
; 186  : 	}
; 187  : 
; 188  : 	lpObj->m_iCurrentAI = iCurrentAI;

  00030	89 8e d0 20 00
	00		 mov	 DWORD PTR [esi+8400], ecx

; 189  : 
; 190  : 	if ( iOldCurrentAI != iCurrentAI )

  00036	3b f9		 cmp	 edi, ecx
  00038	74 2e		 je	 SHORT $LN4@UpdateCurr

; 191  : 	{
; 192  : 		UTIL.SendCrywolfChattingMsg(lpObj->m_Index, "UpdateCurrentAI ­ %s Done!", TMonsterAIUnit::FindAIUnit(iOldCurrentAI)->m_szUnitName, TMonsterAIUnit::FindAIUnit(iCurrentAI)->m_szUnitName);

  0003a	51		 push	 ecx
  0003b	e8 00 00 00 00	 call	 ?FindAIUnit@TMonsterAIUnit@@SAPAV1@H@Z ; TMonsterAIUnit::FindAIUnit
  00040	83 c4 04	 add	 esp, 4
  00043	83 c0 04	 add	 eax, 4
  00046	50		 push	 eax
  00047	57		 push	 edi
  00048	e8 00 00 00 00	 call	 ?FindAIUnit@TMonsterAIUnit@@SAPAV1@H@Z ; TMonsterAIUnit::FindAIUnit
  0004d	83 c4 04	 add	 esp, 4
  00050	83 c0 04	 add	 eax, 4
  00053	50		 push	 eax
  00054	68 00 00 00 00	 push	 OFFSET ??_C@_0BL@NACNEGGB@UpdateCurrentAI?5?$KN?5?$CFs?5Done?$CB?$AA@
  00059	ff 36		 push	 DWORD PTR [esi]
  0005b	68 00 00 00 00	 push	 OFFSET ?UTIL@@3VCCrywolfUtil@@A
  00060	e8 00 00 00 00	 call	 ?SendCrywolfChattingMsg@CCrywolfUtil@@QAAXHPADZZ ; CCrywolfUtil::SendCrywolfChattingMsg
  00065	83 c4 14	 add	 esp, 20			; 00000014H
$LN4@UpdateCurr:

; 193  : 	}
; 194  : 
; 195  : 	return TRUE;

  00068	5f		 pop	 edi
  00069	b8 01 00 00 00	 mov	 eax, 1
  0006e	5e		 pop	 esi

; 196  : }

  0006f	5d		 pop	 ebp
  00070	c3		 ret	 0
?UpdateCurrentAIUnit@TMonsterAI@@SAHH@Z ENDP		; TMonsterAI::UpdateCurrentAIUnit
_TEXT	ENDS
; Function compile flags: /Ogtp
; File c:\users\michel\desktop\source\gameserver\source\tmonsterai.cpp
;	COMDAT ?RunAI@TMonsterAI@@SAHHH@Z
_TEXT	SEGMENT
_iIndex$ = 8						; size = 4
_iMonsterClass$ = 12					; size = 4
?RunAI@TMonsterAI@@SAHHH@Z PROC				; TMonsterAI::RunAI, COMDAT

; 60   : {

  00000	55		 push	 ebp
  00001	8b ec		 mov	 ebp, esp
  00003	56		 push	 esi
  00004	57		 push	 edi

; 61   : 	LPOBJ lpObj = &gObj[iIndex];

  00005	8b 7d 08	 mov	 edi, DWORD PTR _iIndex$[ebp]
  00008	69 f7 40 27 00
	00		 imul	 esi, edi, 10048

; 62   : 
; 63   : 	TMonsterAI::MonsterStateMsgProc(iIndex);

  0000e	57		 push	 edi
  0000f	03 35 00 00 00
	00		 add	 esi, DWORD PTR ?gObj@@3PAUOBJECTSTRUCT@@A ; gObj
  00015	e8 00 00 00 00	 call	 ?MonsterStateMsgProc@TMonsterAI@@SAXH@Z ; TMonsterAI::MonsterStateMsgProc

; 64   : 
; 65   : 	if ( lpObj->m_iCurrentAI == 0 )

  0001a	8b 86 d0 20 00
	00		 mov	 eax, DWORD PTR [esi+8400]
  00020	83 c4 04	 add	 esp, 4
  00023	85 c0		 test	 eax, eax
  00025	75 04		 jne	 SHORT $LN2@RunAI
  00027	5f		 pop	 edi
  00028	5e		 pop	 esi

; 82   : }

  00029	5d		 pop	 ebp
  0002a	c3		 ret	 0
$LN2@RunAI:
  0002b	53		 push	 ebx

; 66   : 		return FALSE;
; 67   : 
; 68   : 	TMonsterAIUnit * lpAIUnit = TMonsterAIUnit::FindAIUnit(lpObj->m_iCurrentAI);

  0002c	50		 push	 eax
  0002d	e8 00 00 00 00	 call	 ?FindAIUnit@TMonsterAIUnit@@SAPAV1@H@Z ; TMonsterAIUnit::FindAIUnit
  00032	8b d8		 mov	 ebx, eax
  00034	83 c4 04	 add	 esp, 4

; 69   : 
; 70   : 	if ( lpAIUnit == NULL )

  00037	85 db		 test	 ebx, ebx
  00039	74 1d		 je	 SHORT $LN8@RunAI

; 71   : 		return FALSE;
; 72   : 
; 73   : 	if ( (GetTickCount() - lpObj->m_iLastAIRunTime) < (DWORD)lpAIUnit->m_iDelayTime )

  0003b	ff 15 00 00 00
	00		 call	 DWORD PTR __imp__GetTickCount@0
  00041	2b 86 d8 20 00
	00		 sub	 eax, DWORD PTR [esi+8408]
  00047	3b 43 3c	 cmp	 eax, DWORD PTR [ebx+60]
  0004a	72 0c		 jb	 SHORT $LN8@RunAI

; 74   : 		return FALSE;
; 75   : 
; 76   : 	if ( lpAIUnit->RunAIUnit(iIndex) == FALSE )

  0004c	57		 push	 edi
  0004d	8b cb		 mov	 ecx, ebx
  0004f	e8 00 00 00 00	 call	 ?RunAIUnit@TMonsterAIUnit@@QAEHH@Z ; TMonsterAIUnit::RunAIUnit
  00054	85 c0		 test	 eax, eax
  00056	75 07		 jne	 SHORT $LN5@RunAI
$LN8@RunAI:
  00058	5b		 pop	 ebx
  00059	5f		 pop	 edi

; 77   : 		return FALSE;

  0005a	33 c0		 xor	 eax, eax
  0005c	5e		 pop	 esi

; 82   : }

  0005d	5d		 pop	 ebp
  0005e	c3		 ret	 0
$LN5@RunAI:

; 78   : 
; 79   : 	lpObj->m_iLastAIRunTime = GetTickCount();

  0005f	ff 15 00 00 00
	00		 call	 DWORD PTR __imp__GetTickCount@0
  00065	5b		 pop	 ebx
  00066	89 86 d8 20 00
	00		 mov	 DWORD PTR [esi+8408], eax

; 80   : 
; 81   : 	return TRUE;

  0006c	b8 01 00 00 00	 mov	 eax, 1
  00071	5f		 pop	 edi
  00072	5e		 pop	 esi

; 82   : }

  00073	5d		 pop	 ebp
  00074	c3		 ret	 0
?RunAI@TMonsterAI@@SAHHH@Z ENDP				; TMonsterAI::RunAI
_TEXT	ENDS
; Function compile flags: /Ogtp
; File c:\users\michel\desktop\source\gameserver\source\tmonsterai.cpp
;	COMDAT ?MonsterAIProc@TMonsterAI@@SAXXZ
_TEXT	SEGMENT
?MonsterAIProc@TMonsterAI@@SAXXZ PROC			; TMonsterAI::MonsterAIProc, COMDAT

; 36   : {

  00000	56		 push	 esi
  00001	57		 push	 edi

; 37   : 	for ( int n=0;n<OBJ_MAXMONSTER;n++)

  00002	33 ff		 xor	 edi, edi
  00004	0f 1f 40 00 0f
	1f 84 00 00 00
	00 00		 npad	 12
$LL4@MonsterAIP:

; 38   : 	{
; 39   : 		LPOBJ lpObj = &gObj[n];

  00010	8b 35 00 00 00
	00		 mov	 esi, DWORD PTR ?gObj@@3PAUOBJECTSTRUCT@@A ; gObj

; 40   : 
; 41   : 		if ( lpObj->m_iCurrentAI == 0 || lpObj->Live == FALSE ||lpObj->Connected != PLAYER_PLAYING )

  00016	8b 84 37 d0 20
	00 00		 mov	 eax, DWORD PTR [edi+esi+8400]
  0001d	85 c0		 test	 eax, eax
  0001f	74 3b		 je	 SHORT $LN2@MonsterAIP
  00021	80 7c 37 51 00	 cmp	 BYTE PTR [edi+esi+81], 0
  00026	74 25		 je	 SHORT $LN7@MonsterAIP
  00028	83 7c 37 04 03	 cmp	 DWORD PTR [edi+esi+4], 3
  0002d	75 1e		 jne	 SHORT $LN7@MonsterAIP

; 46   : 			}
; 47   : 			continue;
; 48   : 		}
; 49   : 		else
; 50   : 		{
; 51   : 			TMonsterAI::UpdateCurrentAIUnit(lpObj->m_Index);

  0002f	ff 34 37	 push	 DWORD PTR [edi+esi]
  00032	e8 00 00 00 00	 call	 ?UpdateCurrentAIUnit@TMonsterAI@@SAHH@Z ; TMonsterAI::UpdateCurrentAIUnit

; 52   : 			TMonsterAI::RunAI(lpObj->m_Index, lpObj->Class);

  00037	0f b7 84 37 90
	00 00 00	 movzx	 eax, WORD PTR [edi+esi+144]
  0003f	50		 push	 eax
  00040	ff 34 37	 push	 DWORD PTR [edi+esi]
  00043	e8 00 00 00 00	 call	 ?RunAI@TMonsterAI@@SAHHH@Z ; TMonsterAI::RunAI
  00048	83 c4 0c	 add	 esp, 12			; 0000000cH

; 53   : 		}
; 54   : 	}

  0004b	eb 0f		 jmp	 SHORT $LN2@MonsterAIP
$LN7@MonsterAIP:

; 42   : 		{
; 43   : 			if ( lpObj->m_iCurrentAI != 0 )

  0004d	85 c0		 test	 eax, eax
  0004f	74 0b		 je	 SHORT $LN2@MonsterAIP

; 44   : 			{
; 45   : 				TMonsterAI::MonsterStateMsgProc(lpObj->m_Index);

  00051	ff 34 37	 push	 DWORD PTR [edi+esi]
  00054	e8 00 00 00 00	 call	 ?MonsterStateMsgProc@TMonsterAI@@SAXH@Z ; TMonsterAI::MonsterStateMsgProc
  00059	83 c4 04	 add	 esp, 4
$LN2@MonsterAIP:

; 37   : 	for ( int n=0;n<OBJ_MAXMONSTER;n++)

  0005c	81 c7 40 27 00
	00		 add	 edi, 10048		; 00002740H
  00062	81 ff 00 dd 49
	06		 cmp	 edi, 105504000		; 0649dd00H
  00068	7c a6		 jl	 SHORT $LL4@MonsterAIP

; 55   : }

  0006a	5f		 pop	 edi
  0006b	5e		 pop	 esi
  0006c	c3		 ret	 0
?MonsterAIProc@TMonsterAI@@SAXXZ ENDP			; TMonsterAI::MonsterAIProc
_TEXT	ENDS
; Function compile flags: /Ogtp
; File c:\users\michel\desktop\source\gameserver\source\tmonsterai.cpp
;	COMDAT ?MonsterMoveProc@TMonsterAI@@SAXXZ
_TEXT	SEGMENT
?MonsterMoveProc@TMonsterAI@@SAXXZ PROC			; TMonsterAI::MonsterMoveProc, COMDAT

; 201  : {

  00000	56		 push	 esi
  00001	57		 push	 edi

; 202  : 	for ( int i=0;i<OBJ_MAXMONSTER;i++)

  00002	33 ff		 xor	 edi, edi
  00004	33 f6		 xor	 esi, esi
  00006	66 66 0f 1f 84
	00 00 00 00 00	 npad	 10
$LL4@MonsterMov:

; 203  : 	{
; 204  : 		if ( gObj[i].m_iCurrentAI != 0 )

  00010	a1 00 00 00 00	 mov	 eax, DWORD PTR ?gObj@@3PAUOBJECTSTRUCT@@A ; gObj
  00015	83 bc 06 d0 20
	00 00 00	 cmp	 DWORD PTR [esi+eax+8400], 0
  0001d	74 09		 je	 SHORT $LN2@MonsterMov

; 205  : 		{
; 206  : 			TMonsterAI::MonsterMove(i);

  0001f	57		 push	 edi
  00020	e8 00 00 00 00	 call	 ?MonsterMove@TMonsterAI@@SAXH@Z ; TMonsterAI::MonsterMove
  00025	83 c4 04	 add	 esp, 4
$LN2@MonsterMov:

; 202  : 	for ( int i=0;i<OBJ_MAXMONSTER;i++)

  00028	81 c6 40 27 00
	00		 add	 esi, 10048		; 00002740H
  0002e	47		 inc	 edi
  0002f	81 fe 00 dd 49
	06		 cmp	 esi, 105504000		; 0649dd00H
  00035	7c d9		 jl	 SHORT $LL4@MonsterMov

; 207  : 		}
; 208  : 	}
; 209  : }

  00037	5f		 pop	 edi
  00038	5e		 pop	 esi
  00039	c3		 ret	 0
?MonsterMoveProc@TMonsterAI@@SAXXZ ENDP			; TMonsterAI::MonsterMoveProc
_TEXT	ENDS
; Function compile flags: /Ogtp
; File c:\users\michel\desktop\source\gameserver\source\tmonsterai.cpp
;	COMDAT ?MonsterMove@TMonsterAI@@SAXH@Z
_TEXT	SEGMENT
_iIndex$ = 8						; size = 4
?MonsterMove@TMonsterAI@@SAXH@Z PROC			; TMonsterAI::MonsterMove, COMDAT

; 215  : {

  00000	55		 push	 ebp
  00001	8b ec		 mov	 ebp, esp
  00003	56		 push	 esi
  00004	57		 push	 edi

; 216  : 	LPOBJ lpObj = &gObj[iIndex];

  00005	8b 7d 08	 mov	 edi, DWORD PTR _iIndex$[ebp]

; 217  : 
; 218  : 	if ( MONSTER_UTIL.CheckMovingCondition(lpObj) == FALSE )

  00008	b9 00 00 00 00	 mov	 ecx, OFFSET ?MONSTER_UTIL@@3VTMonsterAIUtil@@A
  0000d	69 f7 40 27 00
	00		 imul	 esi, edi, 10048
  00013	03 35 00 00 00
	00		 add	 esi, DWORD PTR ?gObj@@3PAUOBJECTSTRUCT@@A ; gObj
  00019	56		 push	 esi
  0001a	e8 00 00 00 00	 call	 ?CheckMovingCondition@TMonsterAIUtil@@QAEHPAUOBJECTSTRUCT@@@Z ; TMonsterAIUtil::CheckMovingCondition
  0001f	85 c0		 test	 eax, eax
  00021	0f 84 14 01 00
	00		 je	 $LN3@MonsterMov

; 219  : 	{
; 220  : 		lpObj->PathCur = 0;
; 221  : 		lpObj->PathCount = 0;
; 222  : 		lpObj->PathStartEnd = 0;
; 223  : 		memset(lpObj->PathX, 0, sizeof(lpObj->PathX));
; 224  : 		memset(lpObj->PathY, 0, sizeof(lpObj->PathY));
; 225  : 		memset(lpObj->PathDir, 0, sizeof(lpObj->PathDir));
; 226  : 
; 227  : 		return ;
; 228  : 	}
; 229  : 
; 230  : 	if ( lpObj->PathCount != 0 )

  00027	83 be 58 01 00
	00 00		 cmp	 DWORD PTR [esi+344], 0
  0002e	0f 84 07 01 00
	00		 je	 $LN3@MonsterMov

; 231  : 	{
; 232  : 		DWORD dwMoveTime = 0;
; 233  : 		DWORD dwDelayTime = 0;
; 234  : 
; 235  : 		if ( lpObj->DelayLevel != 0 )

  00034	33 c9		 xor	 ecx, ecx
  00036	b8 2c 01 00 00	 mov	 eax, 300		; 0000012cH
  0003b	38 8e a8 05 00
	00		 cmp	 BYTE PTR [esi+1448], cl

; 236  : 			dwDelayTime = 300;
; 237  : 		else
; 238  : 			dwDelayTime = 0;
; 239  : 
; 240  : 		lpObj->m_MoveSpeed = 300;

  00041	66 89 86 8c 06
	00 00		 mov	 WORD PTR [esi+1676], ax
  00048	0f 45 c8	 cmovne	 ecx, eax

; 241  : 		
; 242  : 		if ( (lpObj->PathDir[lpObj->PathCur] % 2 ) == 0 )

  0004b	8b 86 5c 01 00
	00		 mov	 eax, DWORD PTR [esi+348]
  00051	53		 push	 ebx
  00052	0f be 84 30 9e
	01 00 00	 movsx	 eax, BYTE PTR [eax+esi+414]
  0005a	25 01 00 00 80	 and	 eax, -2147483647	; 80000001H
  0005f	79 05		 jns	 SHORT $LN12@MonsterMov
  00061	48		 dec	 eax
  00062	83 c8 fe	 or	 eax, -2			; fffffffeH
  00065	40		 inc	 eax
$LN12@MonsterMov:
  00066	75 2b		 jne	 SHORT $LN6@MonsterMov

; 243  : 			dwMoveTime = (DWORD)((double)(lpObj->m_MoveSpeed + dwDelayTime) * 1.3);

  00068	8d 81 2c 01 00
	00		 lea	 eax, DWORD PTR [ecx+300]
  0006e	66 0f 6e c0	 movd	 xmm0, eax
  00072	f3 0f e6 c0	 cvtdq2pd xmm0, xmm0
  00076	c1 e8 1f	 shr	 eax, 31			; 0000001fH
  00079	f2 0f 58 04 c5
	00 00 00 00	 addsd	 xmm0, QWORD PTR __xmm@41f00000000000000000000000000000[eax*8]
  00082	f2 0f 59 05 00
	00 00 00	 mulsd	 xmm0, QWORD PTR __real@3ff4cccccccccccd
  0008a	e8 00 00 00 00	 call	 __dtoui3
  0008f	8b d8		 mov	 ebx, eax

; 244  : 		else

  00091	eb 06		 jmp	 SHORT $LN7@MonsterMov
$LN6@MonsterMov:

; 245  : 			dwMoveTime = lpObj->m_MoveSpeed + dwDelayTime;

  00093	8d 99 2c 01 00
	00		 lea	 ebx, DWORD PTR [ecx+300]
$LN7@MonsterMov:

; 246  : 
; 247  : 		if ( (GetTickCount() - lpObj->PathTime) > dwMoveTime )

  00099	ff 15 00 00 00
	00		 call	 DWORD PTR __imp__GetTickCount@0
  0009f	2b 86 b0 01 00
	00		 sub	 eax, DWORD PTR [esi+432]
  000a5	3b c3		 cmp	 eax, ebx
  000a7	5b		 pop	 ebx
  000a8	0f 86 bb 00 00
	00		 jbe	 $LN1@MonsterMov

; 248  : 		{
; 249  : 			if ( lpObj->PathCur < 15 )

  000ae	8b 8e 5c 01 00
	00		 mov	 ecx, DWORD PTR [esi+348]
  000b4	83 f9 0f	 cmp	 ecx, 15			; 0000000fH
  000b7	7d 65		 jge	 SHORT $LN10@MonsterMov

; 250  : 			{
; 251  : 				lpObj->X = lpObj->PathX[lpObj->PathCur];

  000b9	0f b6 84 31 80
	01 00 00	 movzx	 eax, BYTE PTR [ecx+esi+384]
  000c1	88 86 20 01 00
	00		 mov	 BYTE PTR [esi+288], al

; 252  : 				lpObj->Y = lpObj->PathY[lpObj->PathCur];

  000c7	0f b6 84 31 8f
	01 00 00	 movzx	 eax, BYTE PTR [ecx+esi+399]
  000cf	88 86 21 01 00
	00		 mov	 BYTE PTR [esi+289], al

; 253  : 				lpObj->Dir = lpObj->PathDir[lpObj->PathCur];

  000d5	0f b6 84 31 9e
	01 00 00	 movzx	 eax, BYTE PTR [ecx+esi+414]
  000dd	88 86 22 01 00
	00		 mov	 BYTE PTR [esi+290], al

; 254  : 				lpObj->PathTime = GetTickCount();

  000e3	ff 15 00 00 00
	00		 call	 DWORD PTR __imp__GetTickCount@0

; 255  : 				lpObj->PathCur++;

  000e9	ff 86 5c 01 00
	00		 inc	 DWORD PTR [esi+348]
  000ef	89 86 b0 01 00
	00		 mov	 DWORD PTR [esi+432], eax
  000f5	8b 86 5c 01 00
	00		 mov	 eax, DWORD PTR [esi+348]

; 256  : 
; 257  : 				if ( lpObj->PathCur >= lpObj->PathCount )

  000fb	3b 86 58 01 00
	00		 cmp	 eax, DWORD PTR [esi+344]
  00101	7c 1b		 jl	 SHORT $LN10@MonsterMov

; 258  : 				{
; 259  : 					lpObj->PathCur = 0;

  00103	c7 86 5c 01 00
	00 00 00 00 00	 mov	 DWORD PTR [esi+348], 0

; 260  : 					lpObj->PathCount = 0;

  0010d	c7 86 58 01 00
	00 00 00 00 00	 mov	 DWORD PTR [esi+344], 0

; 261  : 					lpObj->PathStartEnd = 0;

  00117	c6 86 60 01 00
	00 00		 mov	 BYTE PTR [esi+352], 0
$LN10@MonsterMov:

; 262  : 				}
; 263  : 			}
; 264  : 
; 265  : 			CreateFrustrum(lpObj->X, lpObj->Y, iIndex);

  0011e	0f b6 86 21 01
	00 00		 movzx	 eax, BYTE PTR [esi+289]
  00125	57		 push	 edi
  00126	50		 push	 eax
  00127	0f b6 86 20 01
	00 00		 movzx	 eax, BYTE PTR [esi+288]
  0012e	50		 push	 eax
  0012f	e8 00 00 00 00	 call	 ?CreateFrustrum@@YAXHHH@Z ; CreateFrustrum
  00134	83 c4 0c	 add	 esp, 12			; 0000000cH
  00137	5f		 pop	 edi
  00138	5e		 pop	 esi

; 275  : 	memset(lpObj->PathX, 0, sizeof(lpObj->PathX));
; 276  : 	memset(lpObj->PathY, 0, sizeof(lpObj->PathY));
; 277  : 	memset(lpObj->PathDir, 0, sizeof(lpObj->PathDir));
; 278  : }

  00139	5d		 pop	 ebp
  0013a	c3		 ret	 0
$LN3@MonsterMov:
  0013b	6a 2d		 push	 45			; 0000002dH
  0013d	8d 86 80 01 00
	00		 lea	 eax, DWORD PTR [esi+384]

; 266  : 		}
; 267  : 
; 268  : 		return;
; 269  : 
; 270  : 	}
; 271  : 
; 272  : 	lpObj->PathCur = 0;

  00143	c7 86 5c 01 00
	00 00 00 00 00	 mov	 DWORD PTR [esi+348], 0
  0014d	6a 00		 push	 0
  0014f	50		 push	 eax

; 273  : 	lpObj->PathCount = 0;

  00150	c7 86 58 01 00
	00 00 00 00 00	 mov	 DWORD PTR [esi+344], 0

; 274  : 	lpObj->PathStartEnd = 0;

  0015a	c6 86 60 01 00
	00 00		 mov	 BYTE PTR [esi+352], 0
  00161	e8 00 00 00 00	 call	 _memset
  00166	83 c4 0c	 add	 esp, 12			; 0000000cH
$LN1@MonsterMov:
  00169	5f		 pop	 edi
  0016a	5e		 pop	 esi

; 275  : 	memset(lpObj->PathX, 0, sizeof(lpObj->PathX));
; 276  : 	memset(lpObj->PathY, 0, sizeof(lpObj->PathY));
; 277  : 	memset(lpObj->PathDir, 0, sizeof(lpObj->PathDir));
; 278  : }

  0016b	5d		 pop	 ebp
  0016c	c3		 ret	 0
?MonsterMove@TMonsterAI@@SAXH@Z ENDP			; TMonsterAI::MonsterMove
_TEXT	ENDS
; Function compile flags: /Ogtp
; File c:\users\michel\desktop\source\gameserver\source\tmonsterai.cpp
;	COMDAT ??1TMonsterAI@@UAE@XZ
_TEXT	SEGMENT
??1TMonsterAI@@UAE@XZ PROC				; TMonsterAI::~TMonsterAI, COMDAT
; _this$ = ecx

; 29   : {

  00000	c7 01 00 00 00
	00		 mov	 DWORD PTR [ecx], OFFSET ??_7TMonsterAI@@6B@

; 30   : 
; 31   : }

  00006	c3		 ret	 0
??1TMonsterAI@@UAE@XZ ENDP				; TMonsterAI::~TMonsterAI
_TEXT	ENDS
; Function compile flags: /Ogtp
; File c:\users\michel\desktop\source\gameserver\source\tmonsterai.cpp
;	COMDAT ??0TMonsterAI@@QAE@XZ
_TEXT	SEGMENT
??0TMonsterAI@@QAE@XZ PROC				; TMonsterAI::TMonsterAI, COMDAT
; _this$ = ecx

; 24   : {

  00000	c7 01 00 00 00
	00		 mov	 DWORD PTR [ecx], OFFSET ??_7TMonsterAI@@6B@

; 25   : 
; 26   : }

  00006	8b c1		 mov	 eax, ecx
  00008	c3		 ret	 0
??0TMonsterAI@@QAE@XZ ENDP				; TMonsterAI::TMonsterAI
_TEXT	ENDS
; Function compile flags: /Ogtp
;	COMDAT ??_EOBJECTSTRUCT@@QAEPAXI@Z
_TEXT	SEGMENT
__$EHRec$ = -12						; size = 12
___flags$ = 8						; size = 4
??_EOBJECTSTRUCT@@QAEPAXI@Z PROC			; OBJECTSTRUCT::`vector deleting destructor', COMDAT
; _this$ = ecx
  00000	55		 push	 ebp
  00001	8b ec		 mov	 ebp, esp
  00003	6a ff		 push	 -1
  00005	68 00 00 00 00	 push	 __ehhandler$??_EOBJECTSTRUCT@@QAEPAXI@Z
  0000a	64 a1 00 00 00
	00		 mov	 eax, DWORD PTR fs:0
  00010	50		 push	 eax
  00011	53		 push	 ebx
  00012	56		 push	 esi
  00013	57		 push	 edi
  00014	a1 00 00 00 00	 mov	 eax, DWORD PTR ___security_cookie
  00019	33 c5		 xor	 eax, ebp
  0001b	50		 push	 eax
  0001c	8d 45 f4	 lea	 eax, DWORD PTR __$EHRec$[ebp]
  0001f	64 a3 00 00 00
	00		 mov	 DWORD PTR fs:0, eax
  00025	8b f1		 mov	 esi, ecx
  00027	8b 5d 08	 mov	 ebx, DWORD PTR ___flags$[ebp]
  0002a	f6 c3 02	 test	 bl, 2
  0002d	74 44		 je	 SHORT $LN2@vector
  0002f	68 00 00 00 00	 push	 OFFSET ??1OBJECTSTRUCT@@QAE@XZ
  00034	ff 76 fc	 push	 DWORD PTR [esi-4]
  00037	8d 7e fc	 lea	 edi, DWORD PTR [esi-4]
  0003a	68 40 27 00 00	 push	 10048			; 00002740H
  0003f	56		 push	 esi
  00040	e8 00 00 00 00	 call	 ??_M@YGXPAXIIP6EX0@Z@Z
  00045	f6 c3 01	 test	 bl, 1
  00048	74 13		 je	 SHORT $LN3@vector
  0004a	69 0f 40 27 00
	00		 imul	 ecx, DWORD PTR [edi], 10048
  00050	83 c1 04	 add	 ecx, 4
  00053	51		 push	 ecx
  00054	57		 push	 edi
  00055	e8 00 00 00 00	 call	 ??_V@YAXPAXI@Z		; operator delete[]
  0005a	83 c4 08	 add	 esp, 8
$LN3@vector:
  0005d	8b c7		 mov	 eax, edi
  0005f	8b 4d f4	 mov	 ecx, DWORD PTR __$EHRec$[ebp]
  00062	64 89 0d 00 00
	00 00		 mov	 DWORD PTR fs:0, ecx
  00069	59		 pop	 ecx
  0006a	5f		 pop	 edi
  0006b	5e		 pop	 esi
  0006c	5b		 pop	 ebx
  0006d	8b e5		 mov	 esp, ebp
  0006f	5d		 pop	 ebp
  00070	c2 04 00	 ret	 4
$LN2@vector:
  00073	8d 8e ec 20 00
	00		 lea	 ecx, DWORD PTR [esi+8428]
  00079	e8 00 00 00 00	 call	 ??1TMonsterAIAgro@@UAE@XZ ; TMonsterAIAgro::~TMonsterAIAgro
  0007e	8d 8e 0c 16 00
	00		 lea	 ecx, DWORD PTR [esi+5644]
  00084	e8 00 00 00 00	 call	 ??1CSkillDelay@@UAE@XZ	; CSkillDelay::~CSkillDelay
  00089	f6 c3 01	 test	 bl, 1
  0008c	74 0e		 je	 SHORT $LN4@vector
  0008e	68 40 27 00 00	 push	 10048			; 00002740H
  00093	56		 push	 esi
  00094	e8 00 00 00 00	 call	 ??3@YAXPAXI@Z		; operator delete
  00099	83 c4 08	 add	 esp, 8
$LN4@vector:
  0009c	8b c6		 mov	 eax, esi
  0009e	8b 4d f4	 mov	 ecx, DWORD PTR __$EHRec$[ebp]
  000a1	64 89 0d 00 00
	00 00		 mov	 DWORD PTR fs:0, ecx
  000a8	59		 pop	 ecx
  000a9	5f		 pop	 edi
  000aa	5e		 pop	 esi
  000ab	5b		 pop	 ebx
  000ac	8b e5		 mov	 esp, ebp
  000ae	5d		 pop	 ebp
  000af	c2 04 00	 ret	 4
_TEXT	ENDS
;	COMDAT text$x
text$x	SEGMENT
__ehhandler$??_EOBJECTSTRUCT@@QAEPAXI@Z:
  00000	8b 54 24 08	 mov	 edx, DWORD PTR [esp+8]
  00004	8d 42 0c	 lea	 eax, DWORD PTR [edx+12]
  00007	8b 4a f0	 mov	 ecx, DWORD PTR [edx-16]
  0000a	33 c8		 xor	 ecx, eax
  0000c	e8 00 00 00 00	 call	 @__security_check_cookie@4
  00011	b8 00 00 00 00	 mov	 eax, OFFSET __ehfuncinfo$??_EOBJECTSTRUCT@@QAEPAXI@Z
  00016	e9 00 00 00 00	 jmp	 ___CxxFrameHandler3
text$x	ENDS
??_EOBJECTSTRUCT@@QAEPAXI@Z ENDP			; OBJECTSTRUCT::`vector deleting destructor'
; Function compile flags: /Ogtp
;	COMDAT ??1OBJECTSTRUCT@@QAE@XZ
_TEXT	SEGMENT
??1OBJECTSTRUCT@@QAE@XZ PROC				; OBJECTSTRUCT::~OBJECTSTRUCT, COMDAT
; _this$ = ecx
  00000	56		 push	 esi
  00001	8b f1		 mov	 esi, ecx
  00003	8d 8e ec 20 00
	00		 lea	 ecx, DWORD PTR [esi+8428]
  00009	e8 00 00 00 00	 call	 ??1TMonsterAIAgro@@UAE@XZ ; TMonsterAIAgro::~TMonsterAIAgro
  0000e	8d 8e 0c 16 00
	00		 lea	 ecx, DWORD PTR [esi+5644]
  00014	5e		 pop	 esi
  00015	e9 00 00 00 00	 jmp	 ??1CSkillDelay@@UAE@XZ	; CSkillDelay::~CSkillDelay
??1OBJECTSTRUCT@@QAE@XZ ENDP				; OBJECTSTRUCT::~OBJECTSTRUCT
_TEXT	ENDS
; Function compile flags: /Ogtp
; File c:\users\michel\desktop\source\gameserver\source\tmonsterai.cpp
;	COMDAT ?__empty_global_delete@@YAXPAXI@Z
_TEXT	SEGMENT
___formal$ = 8						; size = 4
___formal$ = 12						; size = 4
?__empty_global_delete@@YAXPAXI@Z PROC			; __empty_global_delete, COMDAT

  00000	c3		 ret	 0
?__empty_global_delete@@YAXPAXI@Z ENDP			; __empty_global_delete
_TEXT	ENDS
; Function compile flags: /Ogtp
; File c:\users\michel\desktop\source\gameserver\source\tmonsterai.cpp
;	COMDAT ?__empty_global_delete@@YAXPAX@Z
_TEXT	SEGMENT
___formal$ = 8						; size = 4
?__empty_global_delete@@YAXPAX@Z PROC			; __empty_global_delete, COMDAT

; 279  : }

  00000	c3		 ret	 0
?__empty_global_delete@@YAXPAX@Z ENDP			; __empty_global_delete
_TEXT	ENDS
END
