; Listing generated by Microsoft (R) Optimizing Compiler Version 19.00.23506.0 

	TITLE	C:\Users\Michel\Desktop\Source\GameServer\Source\TMonsterAIGroupMember.cpp
	.686P
	.XMM
	include listing.inc
	.model	flat

INCLUDELIB LIBCMT
INCLUDELIB OLDNAMES

PUBLIC	?__empty_global_delete@@YAXPAX@Z		; __empty_global_delete
PUBLIC	?__empty_global_delete@@YAXPAXI@Z		; __empty_global_delete
PUBLIC	??0TMonsterAIGroupMember@@QAE@XZ		; TMonsterAIGroupMember::TMonsterAIGroupMember
PUBLIC	??1TMonsterAIGroupMember@@UAE@XZ		; TMonsterAIGroupMember::~TMonsterAIGroupMember
PUBLIC	?Reset@TMonsterAIGroupMember@@QAEXXZ		; TMonsterAIGroupMember::Reset
PUBLIC	??_GTMonsterAIGroupMember@@UAEPAXI@Z		; TMonsterAIGroupMember::`scalar deleting destructor'
PUBLIC	??_7TMonsterAIGroupMember@@6B@			; TMonsterAIGroupMember::`vftable'
PUBLIC	??_R4TMonsterAIGroupMember@@6B@			; TMonsterAIGroupMember::`RTTI Complete Object Locator'
PUBLIC	??_R0?AVTMonsterAIGroupMember@@@8		; TMonsterAIGroupMember `RTTI Type Descriptor'
PUBLIC	??_R3TMonsterAIGroupMember@@8			; TMonsterAIGroupMember::`RTTI Class Hierarchy Descriptor'
PUBLIC	??_R2TMonsterAIGroupMember@@8			; TMonsterAIGroupMember::`RTTI Base Class Array'
PUBLIC	??_R1A@?0A@EA@TMonsterAIGroupMember@@8		; TMonsterAIGroupMember::`RTTI Base Class Descriptor at (0,-1,0,64)'
EXTRN	??3@YAXPAXI@Z:PROC				; operator delete
EXTRN	??_ETMonsterAIGroupMember@@UAEPAXI@Z:PROC	; TMonsterAIGroupMember::`vector deleting destructor'
EXTRN	??_7type_info@@6B@:QWORD			; type_info::`vftable'
;	COMDAT ??_R1A@?0A@EA@TMonsterAIGroupMember@@8
rdata$r	SEGMENT
??_R1A@?0A@EA@TMonsterAIGroupMember@@8 DD FLAT:??_R0?AVTMonsterAIGroupMember@@@8 ; TMonsterAIGroupMember::`RTTI Base Class Descriptor at (0,-1,0,64)'
	DD	00H
	DD	00H
	DD	0ffffffffH
	DD	00H
	DD	040H
	DD	FLAT:??_R3TMonsterAIGroupMember@@8
rdata$r	ENDS
;	COMDAT ??_R2TMonsterAIGroupMember@@8
rdata$r	SEGMENT
??_R2TMonsterAIGroupMember@@8 DD FLAT:??_R1A@?0A@EA@TMonsterAIGroupMember@@8 ; TMonsterAIGroupMember::`RTTI Base Class Array'
rdata$r	ENDS
;	COMDAT ??_R3TMonsterAIGroupMember@@8
rdata$r	SEGMENT
??_R3TMonsterAIGroupMember@@8 DD 00H			; TMonsterAIGroupMember::`RTTI Class Hierarchy Descriptor'
	DD	00H
	DD	01H
	DD	FLAT:??_R2TMonsterAIGroupMember@@8
rdata$r	ENDS
;	COMDAT ??_R0?AVTMonsterAIGroupMember@@@8
data$r	SEGMENT
??_R0?AVTMonsterAIGroupMember@@@8 DD FLAT:??_7type_info@@6B@ ; TMonsterAIGroupMember `RTTI Type Descriptor'
	DD	00H
	DB	'.?AVTMonsterAIGroupMember@@', 00H
data$r	ENDS
;	COMDAT ??_R4TMonsterAIGroupMember@@6B@
rdata$r	SEGMENT
??_R4TMonsterAIGroupMember@@6B@ DD 00H			; TMonsterAIGroupMember::`RTTI Complete Object Locator'
	DD	00H
	DD	00H
	DD	FLAT:??_R0?AVTMonsterAIGroupMember@@@8
	DD	FLAT:??_R3TMonsterAIGroupMember@@8
rdata$r	ENDS
;	COMDAT ??_7TMonsterAIGroupMember@@6B@
CONST	SEGMENT
??_7TMonsterAIGroupMember@@6B@ DD FLAT:??_R4TMonsterAIGroupMember@@6B@ ; TMonsterAIGroupMember::`vftable'
	DD	FLAT:??_ETMonsterAIGroupMember@@UAEPAXI@Z
CONST	ENDS
; Function compile flags: /Ogtp
;	COMDAT ??_GTMonsterAIGroupMember@@UAEPAXI@Z
_TEXT	SEGMENT
___flags$ = 8						; size = 4
??_GTMonsterAIGroupMember@@UAEPAXI@Z PROC		; TMonsterAIGroupMember::`scalar deleting destructor', COMDAT
; _this$ = ecx
  00000	55		 push	 ebp
  00001	8b ec		 mov	 ebp, esp
  00003	56		 push	 esi
  00004	8b f1		 mov	 esi, ecx
  00006	e8 00 00 00 00	 call	 ??1TMonsterAIGroupMember@@UAE@XZ ; TMonsterAIGroupMember::~TMonsterAIGroupMember
  0000b	f6 45 08 01	 test	 BYTE PTR ___flags$[ebp], 1
  0000f	74 0b		 je	 SHORT $LN4@scalar
  00011	6a 40		 push	 64			; 00000040H
  00013	56		 push	 esi
  00014	e8 00 00 00 00	 call	 ??3@YAXPAXI@Z		; operator delete
  00019	83 c4 08	 add	 esp, 8
$LN4@scalar:
  0001c	8b c6		 mov	 eax, esi
  0001e	5e		 pop	 esi
  0001f	5d		 pop	 ebp
  00020	c2 04 00	 ret	 4
??_GTMonsterAIGroupMember@@UAEPAXI@Z ENDP		; TMonsterAIGroupMember::`scalar deleting destructor'
_TEXT	ENDS
; Function compile flags: /Ogtp
; File c:\users\michel\desktop\source\gameserver\source\tmonsteraigroupmember.cpp
;	COMDAT ?Reset@TMonsterAIGroupMember@@QAEXXZ
_TEXT	SEGMENT
?Reset@TMonsterAIGroupMember@@QAEXXZ PROC		; TMonsterAIGroupMember::Reset, COMDAT
; _this$ = ecx

; 26   : 	this->m_iGroupNumber = -1;

  00000	c7 41 04 ff ff
	ff ff		 mov	 DWORD PTR [ecx+4], -1

; 27   : 	this->m_iGuid = -1;

  00007	c7 41 08 ff ff
	ff ff		 mov	 DWORD PTR [ecx+8], -1

; 28   : 	this->m_iClass = -1;

  0000e	c7 41 0c ff ff
	ff ff		 mov	 DWORD PTR [ecx+12], -1

; 29   : 	this->m_iRank = -1;

  00015	c7 41 10 ff ff
	ff ff		 mov	 DWORD PTR [ecx+16], -1

; 30   : 	this->m_iStartAI = 0;

  0001c	c7 41 14 00 00
	00 00		 mov	 DWORD PTR [ecx+20], 0

; 31   : 	this->m_iAI01 = 0;

  00023	c7 41 18 00 00
	00 00		 mov	 DWORD PTR [ecx+24], 0

; 32   : 	this->m_iAI02 = 0;

  0002a	c7 41 1c 00 00
	00 00		 mov	 DWORD PTR [ecx+28], 0

; 33   : 	this->m_iAI03 = 0;

  00031	c7 41 20 00 00
	00 00		 mov	 DWORD PTR [ecx+32], 0

; 34   : 	this->m_iCreateType = -1;

  00038	c7 41 24 ff ff
	ff ff		 mov	 DWORD PTR [ecx+36], -1

; 35   : 	this->m_iMapNumber = -1;

  0003f	c7 41 28 ff ff
	ff ff		 mov	 DWORD PTR [ecx+40], -1

; 36   : 	this->m_iStartX = -1;

  00046	c7 41 2c ff ff
	ff ff		 mov	 DWORD PTR [ecx+44], -1

; 37   : 	this->m_iStartY = -1;

  0004d	c7 41 30 ff ff
	ff ff		 mov	 DWORD PTR [ecx+48], -1

; 38   : 	this->m_iStartDir = -1;

  00054	c7 41 34 ff ff
	ff ff		 mov	 DWORD PTR [ecx+52], -1

; 39   : 	this->m_iRegenType = -1;

  0005b	c7 41 38 ff ff
	ff ff		 mov	 DWORD PTR [ecx+56], -1

; 40   : 	this->m_iObjIndex = -1;

  00062	c7 41 3c ff ff
	ff ff		 mov	 DWORD PTR [ecx+60], -1

; 41   : }

  00069	c3		 ret	 0
?Reset@TMonsterAIGroupMember@@QAEXXZ ENDP		; TMonsterAIGroupMember::Reset
_TEXT	ENDS
; Function compile flags: /Ogtp
; File c:\users\michel\desktop\source\gameserver\source\tmonsteraigroupmember.cpp
;	COMDAT ??1TMonsterAIGroupMember@@UAE@XZ
_TEXT	SEGMENT
??1TMonsterAIGroupMember@@UAE@XZ PROC			; TMonsterAIGroupMember::~TMonsterAIGroupMember, COMDAT
; _this$ = ecx

; 18   : {

  00000	c7 01 00 00 00
	00		 mov	 DWORD PTR [ecx], OFFSET ??_7TMonsterAIGroupMember@@6B@

; 19   : 	return;
; 20   : }

  00006	c3		 ret	 0
??1TMonsterAIGroupMember@@UAE@XZ ENDP			; TMonsterAIGroupMember::~TMonsterAIGroupMember
_TEXT	ENDS
; Function compile flags: /Ogtp
; File c:\users\michel\desktop\source\gameserver\source\tmonsteraigroupmember.cpp
;	COMDAT ??0TMonsterAIGroupMember@@QAE@XZ
_TEXT	SEGMENT
??0TMonsterAIGroupMember@@QAE@XZ PROC			; TMonsterAIGroupMember::TMonsterAIGroupMember, COMDAT
; _this$ = ecx

; 13   : {

  00000	56		 push	 esi
  00001	8b f1		 mov	 esi, ecx
  00003	c7 06 00 00 00
	00		 mov	 DWORD PTR [esi], OFFSET ??_7TMonsterAIGroupMember@@6B@

; 14   : 	this->Reset();

  00009	e8 00 00 00 00	 call	 ?Reset@TMonsterAIGroupMember@@QAEXXZ ; TMonsterAIGroupMember::Reset

; 15   : }

  0000e	8b c6		 mov	 eax, esi
  00010	5e		 pop	 esi
  00011	c3		 ret	 0
??0TMonsterAIGroupMember@@QAE@XZ ENDP			; TMonsterAIGroupMember::TMonsterAIGroupMember
_TEXT	ENDS
; Function compile flags: /Ogtp
; File c:\users\michel\desktop\source\gameserver\source\tmonsteraigroupmember.cpp
;	COMDAT ?__empty_global_delete@@YAXPAXI@Z
_TEXT	SEGMENT
___formal$ = 8						; size = 4
___formal$ = 12						; size = 4
?__empty_global_delete@@YAXPAXI@Z PROC			; __empty_global_delete, COMDAT

; 42   : }

  00000	c3		 ret	 0
?__empty_global_delete@@YAXPAXI@Z ENDP			; __empty_global_delete
_TEXT	ENDS
; Function compile flags: /Ogtp
; File c:\users\michel\desktop\source\gameserver\source\tmonsteraigroupmember.cpp
;	COMDAT ?__empty_global_delete@@YAXPAX@Z
_TEXT	SEGMENT
___formal$ = 8						; size = 4
?__empty_global_delete@@YAXPAX@Z PROC			; __empty_global_delete, COMDAT

; 42   : }

  00000	c3		 ret	 0
?__empty_global_delete@@YAXPAX@Z ENDP			; __empty_global_delete
_TEXT	ENDS
END
