; Listing generated by Microsoft (R) Optimizing Compiler Version 19.00.23506.0 

	TITLE	C:\Users\Michel\Desktop\Source\GameServer\Source\TMonsterAIElement.cpp
	.686P
	.XMM
	include listing.inc
	.model	flat

INCLUDELIB LIBCMT
INCLUDELIB OLDNAMES

PUBLIC	?s_bDataLoad@TMonsterAIElement@@2HA		; TMonsterAIElement::s_bDataLoad
_BSS	SEGMENT
?s_bDataLoad@TMonsterAIElement@@2HA DD 01H DUP (?)	; TMonsterAIElement::s_bDataLoad
_BSS	ENDS
PUBLIC	?__empty_global_delete@@YAXPAX@Z		; __empty_global_delete
PUBLIC	?__empty_global_delete@@YAXPAXI@Z		; __empty_global_delete
PUBLIC	??1OBJECTSTRUCT@@QAE@XZ				; OBJECTSTRUCT::~OBJECTSTRUCT
PUBLIC	??_EOBJECTSTRUCT@@QAEPAXI@Z			; OBJECTSTRUCT::`vector deleting destructor'
PUBLIC	??0TMonsterAIElement@@QAE@XZ			; TMonsterAIElement::TMonsterAIElement
PUBLIC	??1TMonsterAIElement@@UAE@XZ			; TMonsterAIElement::~TMonsterAIElement
PUBLIC	?ForceAIElement@TMonsterAIElement@@QAEHHHPAVTMonsterAIState@@@Z ; TMonsterAIElement::ForceAIElement
PUBLIC	?ApplyElementCommon@TMonsterAIElement@@QAEHHHPAVTMonsterAIState@@@Z ; TMonsterAIElement::ApplyElementCommon
PUBLIC	?ApplyElementMove@TMonsterAIElement@@QAEHHHPAVTMonsterAIState@@@Z ; TMonsterAIElement::ApplyElementMove
PUBLIC	?ApplyElementMoveTarget@TMonsterAIElement@@QAEHHHPAVTMonsterAIState@@@Z ; TMonsterAIElement::ApplyElementMoveTarget
PUBLIC	?ApplyElementGroupMove@TMonsterAIElement@@QAEHHHPAVTMonsterAIState@@@Z ; TMonsterAIElement::ApplyElementGroupMove
PUBLIC	?ApplyElementAttack@TMonsterAIElement@@QAEHHHPAVTMonsterAIState@@@Z ; TMonsterAIElement::ApplyElementAttack
PUBLIC	?ApplyElementAttackArea@TMonsterAIElement@@QAEHHHPAVTMonsterAIState@@@Z ; TMonsterAIElement::ApplyElementAttackArea
PUBLIC	?ApplyElementAttackPenetration@TMonsterAIElement@@QAEHHHPAVTMonsterAIState@@@Z ; TMonsterAIElement::ApplyElementAttackPenetration
PUBLIC	?ApplyElementAvoid@TMonsterAIElement@@QAEHHHPAVTMonsterAIState@@@Z ; TMonsterAIElement::ApplyElementAvoid
PUBLIC	?ApplyElementHealSelf@TMonsterAIElement@@QAEHHHPAVTMonsterAIState@@@Z ; TMonsterAIElement::ApplyElementHealSelf
PUBLIC	?ApplyElementHealGroup@TMonsterAIElement@@QAEHHHPAVTMonsterAIState@@@Z ; TMonsterAIElement::ApplyElementHealGroup
PUBLIC	?ApplyElementSpecialSommon@TMonsterAIElement@@QAEHHHPAVTMonsterAIState@@@Z ; TMonsterAIElement::ApplyElementSpecialSommon
PUBLIC	?ApplyElementSpecialImmune@TMonsterAIElement@@QAEHHHPAVTMonsterAIState@@@Z ; TMonsterAIElement::ApplyElementSpecialImmune
PUBLIC	?ApplyElementNightmareSummon@TMonsterAIElement@@QAEHHHPAVTMonsterAIState@@@Z ; TMonsterAIElement::ApplyElementNightmareSummon
PUBLIC	?ApplyElementNightmareWarp@TMonsterAIElement@@QAEHHHPAVTMonsterAIState@@@Z ; TMonsterAIElement::ApplyElementNightmareWarp
PUBLIC	?ApplyElementSkillAttack@TMonsterAIElement@@QAEHHHPAVTMonsterAIState@@@Z ; TMonsterAIElement::ApplyElementSkillAttack
PUBLIC	?ApplyElementAIChange@TMonsterAIElement@@QAEHHHPAVTMonsterAIState@@@Z ; TMonsterAIElement::ApplyElementAIChange
PUBLIC	?Reset@TMonsterAIElement@@QAEXXZ		; TMonsterAIElement::Reset
PUBLIC	?LoadData@TMonsterAIElement@@SAHPAD@Z		; TMonsterAIElement::LoadData
PUBLIC	?DelAllAIElement@TMonsterAIElement@@SAHXZ	; TMonsterAIElement::DelAllAIElement
PUBLIC	?FindAIElement@TMonsterAIElement@@SAPAV1@H@Z	; TMonsterAIElement::FindAIElement
PUBLIC	??_GTMonsterAIElement@@UAEPAXI@Z		; TMonsterAIElement::`scalar deleting destructor'
PUBLIC	??_C@_00CNPNBAHC@?$AA@				; `string'
PUBLIC	?s_MonsterAIElementArray@TMonsterAIElement@@2PAV1@A ; TMonsterAIElement::s_MonsterAIElementArray
PUBLIC	?s_MonsterAIMovePath@TMonsterAIElement@@2PAVTMonsterAIMovePath@@A ; TMonsterAIElement::s_MonsterAIMovePath
PUBLIC	??_7TMonsterAIElement@@6B@			; TMonsterAIElement::`vftable'
PUBLIC	??_C@_0DJ@OKEPGHGM@?$FLMonster?5AI?5Element?$FN?5?9?5File?5load@ ; `string'
PUBLIC	??_C@_01KDCPPGHE@r?$AA@				; `string'
PUBLIC	??_C@_0CG@GEEPJADH@?$FLMonster?5AI?5Element?$FN?5?9?5Can?8t?5Ope@ ; `string'
PUBLIC	??_C@_03JBJLGPFL@end?$AA@			; `string'
PUBLIC	??_C@_0DL@BLNJIJKI@?$FLMonster?5AI?5Element?$FN?5?9?5ElementNu@ ; `string'
PUBLIC	??_C@_0DK@KJDEHPPO@?$FLMonster?5AI?5Element?$FN?5?9?5ElementCl@ ; `string'
PUBLIC	??_C@_0CJ@CODEEKKA@?$FLMonster?5AI?5Element?$FN?5?9?5?$CFs?5file?5i@ ; `string'
PUBLIC	??_R0K@8					; unsigned long `RTTI Type Descriptor'
PUBLIC	??_C@_0DL@GHCFCCJM@?$FLMonster?5AI?5Element?$FN?5?9?5Loading?5E@ ; `string'
PUBLIC	??_C@_0BL@JELFGKKH@World?2MovePath?2Crywolf?4dat?$AA@ ; `string'
PUBLIC	??_C@_0CD@EGOMNCCN@World?2MovePath?2Doppelganger_66?4d@ ; `string'
PUBLIC	??_C@_0CD@INLAABII@World?2MovePath?2Doppelganger_67?4d@ ; `string'
PUBLIC	??_C@_0CD@HMOGLDFN@World?2MovePath?2Doppelganger_68?4d@ ; `string'
PUBLIC	??_C@_0CD@LHLKGAPI@World?2MovePath?2Doppelganger_69?4d@ ; `string'
PUBLIC	??_C@_0N@HHEEIAEO@?$LO?Q?$LN?N?5?A?$LP?D?m?$LD?$KK?$CB?$AA@ ; `string'
PUBLIC	??_C@_0N@HNCNKMKN@Element?9?$MA?L?$LF?$LP?$AA@	; `string'
PUBLIC	??_C@_0BD@MCDHLICD@Element?9MoveTarget?$AA@	; `string'
PUBLIC	??_C@_0BB@MPDHJEMA@Element?9?$LB?W?$LH?l?$MA?L?$LF?$LP?$AA@ ; `string'
PUBLIC	??_C@_0N@KKLGOIFK@Element?9?$LA?x?$LA?$NN?$AA@	; `string'
PUBLIC	??_C@_0BB@KIEOALHF@Element?9?$LP?$LF?$LP?$KK?$LA?x?$LA?$NN?$AA@ ; `string'
PUBLIC	??_C@_0N@BJJDJPGH@Element?9?H?$LI?G?G?$AA@	; `string'
PUBLIC	??_C@_0BB@HBFMCDPA@Element?9?$LM?$LP?G?A?D?$KB?$LH?a?$AA@ ; `string'
PUBLIC	??_C@_07DAGIDAPO@HP?5?3?5?$CFd?$AA@		; `string'
PUBLIC	??_C@_0BB@NEEHLJGK@Element?9?$LB?W?$LH?l?D?$KB?$LH?a?$AA@ ; `string'
PUBLIC	??_C@_0BB@NPDGGOME@?$LB?W?$LH?l?D?$KB?$LH?a?5HP?5?3?5?$CFd?$AA@ ; `string'
PUBLIC	??_C@_0BB@BOAFABMO@Element?9?F?$KP?$LM?v?$LM?R?H?$KP?$AA@ ; `string'
PUBLIC	??_C@_0BN@GBOPBGFB@?$FL?$CFs?$FN?5Warp?5?$FL?$CFd?0?$CFd?$FN?5?9?$DO?5?$FL?$CFd?0?$CFd?$FN?$AA@ ; `string'
PUBLIC	??_C@_0CB@HBIKMLEF@?$FLAI?5Change?$FN?5Group?5?$CFd?5AI?5Order?5?$CFd@ ; `string'
PUBLIC	??_R4TMonsterAIElement@@6B@			; TMonsterAIElement::`RTTI Complete Object Locator'
PUBLIC	??_R0?AVTMonsterAIElement@@@8			; TMonsterAIElement `RTTI Type Descriptor'
PUBLIC	??_R3TMonsterAIElement@@8			; TMonsterAIElement::`RTTI Class Hierarchy Descriptor'
PUBLIC	??_R2TMonsterAIElement@@8			; TMonsterAIElement::`RTTI Base Class Array'
PUBLIC	??_R1A@?0A@EA@TMonsterAIElement@@8		; TMonsterAIElement::`RTTI Base Class Descriptor at (0,-1,0,64)'
PUBLIC	__real@42700000
PUBLIC	__real@42c80000
EXTRN	??_L@YGXPAXIIP6EX0@Z1@Z:PROC			; `eh vector constructor iterator'
EXTRN	??_M@YGXPAXIIP6EX0@Z@Z:PROC			; `eh vector destructor iterator'
EXTRN	??3@YAXPAXI@Z:PROC				; operator delete
EXTRN	??_V@YAXPAXI@Z:PROC				; operator delete[]
EXTRN	_atexit:PROC
EXTRN	_isalpha:PROC
EXTRN	_isdigit:PROC
EXTRN	_isspace:PROC
EXTRN	_isalnum:PROC
EXTRN	_fclose:PROC
EXTRN	_fgetc:PROC
EXTRN	_fopen:PROC
EXTRN	_getc:PROC
EXTRN	_ungetc:PROC
EXTRN	_rand:PROC
EXTRN	_atof:PROC
EXTRN	??0TMonsterAIMovePath@@QAE@XZ:PROC		; TMonsterAIMovePath::TMonsterAIMovePath
EXTRN	??1TMonsterAIMovePath@@UAE@XZ:PROC		; TMonsterAIMovePath::~TMonsterAIMovePath
EXTRN	?LoadData@TMonsterAIMovePath@@QAEHPAD@Z:PROC	; TMonsterAIMovePath::LoadData
EXTRN	?DelAllAIMonsterMovePath@TMonsterAIMovePath@@QAEHXZ:PROC ; TMonsterAIMovePath::DelAllAIMonsterMovePath
EXTRN	??1CSkillDelay@@UAE@XZ:PROC			; CSkillDelay::~CSkillDelay
EXTRN	?MsgBox@@YAXPADZZ:PROC				; MsgBox
EXTRN	?DataSend@@YAHHPAEK@Z:PROC			; DataSend
EXTRN	??1TMonsterAIAgro@@UAE@XZ:PROC			; TMonsterAIAgro::~TMonsterAIAgro
EXTRN	?MsgSendV2@@YAXPAUOBJECTSTRUCT@@PAEH@Z:PROC	; MsgSendV2
EXTRN	?CGAttack@@YAXPAUPMSG_ATTACK@@H@Z:PROC		; CGAttack
EXTRN	?GCActionSend@@YAXPAUOBJECTSTRUCT@@EHH@Z:PROC	; GCActionSend
EXTRN	?GCUseMonsterSkillSend@@YAXPAUOBJECTSTRUCT@@0H@Z:PROC ; GCUseMonsterSkillSend
EXTRN	?gObjIsConnected@@YAHH@Z:PROC			; gObjIsConnected
EXTRN	?GetPathPacketDirPos@@YAEHH@Z:PROC		; GetPathPacketDirPos
EXTRN	?gObjCalDistance@@YAHPAUOBJECTSTRUCT@@0@Z:PROC	; gObjCalDistance
EXTRN	?gObjAttack@@YAXPAUOBJECTSTRUCT@@0PAVCMagicInf@@HEHHEE@Z:PROC ; gObjAttack
EXTRN	?gObjTeleportMagicUse@@YAXHEE@Z:PROC		; gObjTeleportMagicUse
EXTRN	??_ETMonsterAIElement@@UAEPAXI@Z:PROC		; TMonsterAIElement::`vector deleting destructor'
EXTRN	?ChangeAIOrder@TMonsterAIGroup@@SAXHH@Z:PROC	; TMonsterAIGroup::ChangeAIOrder
EXTRN	?FindGroupMemberToSommon@TMonsterAIGroup@@SAPAVTMonsterAIGroupMember@@HHH@Z:PROC ; TMonsterAIGroup::FindGroupMemberToSommon
EXTRN	?FindGroupMemberToHeal@TMonsterAIGroup@@SAPAVTMonsterAIGroupMember@@HHHH@Z:PROC ; TMonsterAIGroup::FindGroupMemberToHeal
EXTRN	?FindGroupLeader@TMonsterAIGroup@@SAHH@Z:PROC	; TMonsterAIGroup::FindGroupLeader
EXTRN	?RunSkill@TMonsterSkillUnit@@QAEXHH@Z:PROC	; TMonsterSkillUnit::RunSkill
EXTRN	?CheckMonsterSkill@TMonsterSkillManager@@SAHH@Z:PROC ; TMonsterSkillManager::CheckMonsterSkill
EXTRN	?UseMonsterSkill@TMonsterSkillManager@@SAXHHHHPAVCMagicInf@@@Z:PROC ; TMonsterSkillManager::UseMonsterSkill
EXTRN	?FindMonsterSkillUnit@TMonsterSkillManager@@SAPAVTMonsterSkillUnit@@HH@Z:PROC ; TMonsterSkillManager::FindMonsterSkillUnit
EXTRN	??0TMonsterAIUtil@@QAE@XZ:PROC			; TMonsterAIUtil::TMonsterAIUtil
EXTRN	??1TMonsterAIUtil@@UAE@XZ:PROC			; TMonsterAIUtil::~TMonsterAIUtil
EXTRN	?FindPathToMoveMonster@TMonsterAIUtil@@QAEHPAUOBJECTSTRUCT@@HHHH@Z:PROC ; TMonsterAIUtil::FindPathToMoveMonster
EXTRN	?GetXYToPatrol@TMonsterAIUtil@@QAEHPAUOBJECTSTRUCT@@@Z:PROC ; TMonsterAIUtil::GetXYToPatrol
EXTRN	?GetXYToEascape@TMonsterAIUtil@@QAEHPAUOBJECTSTRUCT@@@Z:PROC ; TMonsterAIUtil::GetXYToEascape
EXTRN	?GetXYToChase@TMonsterAIUtil@@QAEHPAUOBJECTSTRUCT@@@Z:PROC ; TMonsterAIUtil::GetXYToChase
EXTRN	??0CCrywolfUtil@@QAE@XZ:PROC			; CCrywolfUtil::CCrywolfUtil
EXTRN	??1CCrywolfUtil@@UAE@XZ:PROC			; CCrywolfUtil::~CCrywolfUtil
EXTRN	?SendCrywolfChattingMsg@CCrywolfUtil@@QAAXHPADZZ:PROC ; CCrywolfUtil::SendCrywolfChattingMsg
EXTRN	??0CKanturuUtil@@QAE@XZ:PROC			; CKanturuUtil::CKanturuUtil
EXTRN	??1CKanturuUtil@@UAE@XZ:PROC			; CKanturuUtil::~CKanturuUtil
EXTRN	?SendKanturuChattingMsg@CKanturuUtil@@QAAXHPADZZ:PROC ; CKanturuUtil::SendKanturuChattingMsg
EXTRN	?SetKanturuMonster@CKanturuMonsterMng@@QAEHH@Z:PROC ; CKanturuMonsterMng::SetKanturuMonster
EXTRN	?GetNewPath@CDirPath@@QAEPADPAD@Z:PROC		; CDirPath::GetNewPath
EXTRN	?PHeadSubSetB@@YAXPAEEEH@Z:PROC			; PHeadSubSetB
EXTRN	?PHeadSetBE@@YAXPAEEH@Z:PROC			; PHeadSetBE
EXTRN	?gObjAddBuffEffect@@YA_NPAUOBJECTSTRUCT@@HEHEHH@Z:PROC ; gObjAddBuffEffect
EXTRN	@__security_check_cookie@4:PROC
EXTRN	___CxxFrameHandler3:PROC
EXTRN	__libm_sse2_sqrt_precise:PROC
EXTRN	_memset:PROC
EXTRN	??_7type_info@@6B@:QWORD			; type_info::`vftable'
EXTRN	?LogAddC@@3P6AXEPADZZA:DWORD			; LogAddC
EXTRN	?gObj@@3PAUOBJECTSTRUCT@@A:DWORD		; gObj
EXTRN	?g_KanturuMonsterMng@@3VCKanturuMonsterMng@@A:BYTE ; g_KanturuMonsterMng
EXTRN	?gDirPath@@3VCDirPath@@A:BYTE			; gDirPath
EXTRN	___security_cookie:DWORD
EXTRN	__fltused:DWORD
_BSS	SEGMENT
?s_MonsterAIElementArray@TMonsterAIElement@@2PAV1@A DB 02260H DUP (?) ; TMonsterAIElement::s_MonsterAIElementArray
?s_MonsterAIMovePath@TMonsterAIElement@@2PAVTMonsterAIMovePath@@A DB 0757b0H DUP (?) ; TMonsterAIElement::s_MonsterAIMovePath
?SMDFile@@3PAU_iobuf@@A DD 01H DUP (?)			; SMDFile
?TokenNumber@@3MA DD 01H DUP (?)			; TokenNumber
?TokenString@@3PADA DB 064H DUP (?)			; TokenString
?CurrentToken@@3W4SMDToken@@A DD 01H DUP (?)		; CurrentToken
?KANTURU_UTIL@@3VCKanturuUtil@@A DD 01H DUP (?)		; KANTURU_UTIL
?UTIL@@3VCCrywolfUtil@@A DD 01H DUP (?)			; UTIL
?MONSTER_UTIL@@3VTMonsterAIUtil@@A DD 01H DUP (?)	; MONSTER_UTIL
_BSS	ENDS
CRT$XCU	SEGMENT
?KANTURU_UTIL$initializer$@@3P6AXXZA DD FLAT:??__EKANTURU_UTIL@@YAXXZ ; KANTURU_UTIL$initializer$
CRT$XCU	ENDS
;	COMDAT __real@42c80000
CONST	SEGMENT
__real@42c80000 DD 042c80000r			; 100
CONST	ENDS
;	COMDAT __real@42700000
CONST	SEGMENT
__real@42700000 DD 042700000r			; 60
CONST	ENDS
;	COMDAT ??_R1A@?0A@EA@TMonsterAIElement@@8
rdata$r	SEGMENT
??_R1A@?0A@EA@TMonsterAIElement@@8 DD FLAT:??_R0?AVTMonsterAIElement@@@8 ; TMonsterAIElement::`RTTI Base Class Descriptor at (0,-1,0,64)'
	DD	00H
	DD	00H
	DD	0ffffffffH
	DD	00H
	DD	040H
	DD	FLAT:??_R3TMonsterAIElement@@8
rdata$r	ENDS
;	COMDAT ??_R2TMonsterAIElement@@8
rdata$r	SEGMENT
??_R2TMonsterAIElement@@8 DD FLAT:??_R1A@?0A@EA@TMonsterAIElement@@8 ; TMonsterAIElement::`RTTI Base Class Array'
rdata$r	ENDS
;	COMDAT ??_R3TMonsterAIElement@@8
rdata$r	SEGMENT
??_R3TMonsterAIElement@@8 DD 00H			; TMonsterAIElement::`RTTI Class Hierarchy Descriptor'
	DD	00H
	DD	01H
	DD	FLAT:??_R2TMonsterAIElement@@8
rdata$r	ENDS
;	COMDAT ??_R0?AVTMonsterAIElement@@@8
data$r	SEGMENT
??_R0?AVTMonsterAIElement@@@8 DD FLAT:??_7type_info@@6B@ ; TMonsterAIElement `RTTI Type Descriptor'
	DD	00H
	DB	'.?AVTMonsterAIElement@@', 00H
data$r	ENDS
;	COMDAT ??_R4TMonsterAIElement@@6B@
rdata$r	SEGMENT
??_R4TMonsterAIElement@@6B@ DD 00H			; TMonsterAIElement::`RTTI Complete Object Locator'
	DD	00H
	DD	00H
	DD	FLAT:??_R0?AVTMonsterAIElement@@@8
	DD	FLAT:??_R3TMonsterAIElement@@8
rdata$r	ENDS
;	COMDAT ??_C@_0CB@HBIKMLEF@?$FLAI?5Change?$FN?5Group?5?$CFd?5AI?5Order?5?$CFd@
CONST	SEGMENT
??_C@_0CB@HBIKMLEF@?$FLAI?5Change?$FN?5Group?5?$CFd?5AI?5Order?5?$CFd@ DB '['
	DB	'AI Change] Group %d AI Order %d', 00H	; `string'
CONST	ENDS
;	COMDAT ??_C@_0BN@GBOPBGFB@?$FL?$CFs?$FN?5Warp?5?$FL?$CFd?0?$CFd?$FN?5?9?$DO?5?$FL?$CFd?0?$CFd?$FN?$AA@
CONST	SEGMENT
??_C@_0BN@GBOPBGFB@?$FL?$CFs?$FN?5Warp?5?$FL?$CFd?0?$CFd?$FN?5?9?$DO?5?$FL?$CFd?0?$CFd?$FN?$AA@ DB '['
	DB	'%s] Warp [%d,%d] -> [%d,%d]', 00H		; `string'
CONST	ENDS
;	COMDAT ??_C@_0BB@BOAFABMO@Element?9?F?$KP?$LM?v?$LM?R?H?$KP?$AA@
CONST	SEGMENT
??_C@_0BB@BOAFABMO@Element?9?F?$KP?$LM?v?$LM?R?H?$KP?$AA@ DB 'Element-', 0c6H
	DB	0afH, 0bcH, 0f6H, 0bcH, 0d2H, 0c8H, 0afH, 00H ; `string'
CONST	ENDS
;	COMDAT ??_C@_0BB@NPDGGOME@?$LB?W?$LH?l?D?$KB?$LH?a?5HP?5?3?5?$CFd?$AA@
CONST	SEGMENT
??_C@_0BB@NPDGGOME@?$LB?W?$LH?l?D?$KB?$LH?a?5HP?5?3?5?$CFd?$AA@ DB 0b1H, 0d7H
	DB	0b7H, 0ecH, 0c4H, 0a1H, 0b7H, 0e1H, ' HP : %d', 00H ; `string'
CONST	ENDS
;	COMDAT ??_C@_0BB@NEEHLJGK@Element?9?$LB?W?$LH?l?D?$KB?$LH?a?$AA@
CONST	SEGMENT
??_C@_0BB@NEEHLJGK@Element?9?$LB?W?$LH?l?D?$KB?$LH?a?$AA@ DB 'Element-', 0b1H
	DB	0d7H, 0b7H, 0ecH, 0c4H, 0a1H, 0b7H, 0e1H, 00H ; `string'
CONST	ENDS
;	COMDAT ??_C@_07DAGIDAPO@HP?5?3?5?$CFd?$AA@
CONST	SEGMENT
??_C@_07DAGIDAPO@HP?5?3?5?$CFd?$AA@ DB 'HP : %d', 00H	; `string'
CONST	ENDS
;	COMDAT ??_C@_0BB@HBFMCDPA@Element?9?$LM?$LP?G?A?D?$KB?$LH?a?$AA@
CONST	SEGMENT
??_C@_0BB@HBFMCDPA@Element?9?$LM?$LP?G?A?D?$KB?$LH?a?$AA@ DB 'Element-', 0bcH
	DB	0bfH, 0c7H, 0c1H, 0c4H, 0a1H, 0b7H, 0e1H, 00H ; `string'
CONST	ENDS
;	COMDAT ??_C@_0N@BJJDJPGH@Element?9?H?$LI?G?G?$AA@
CONST	SEGMENT
??_C@_0N@BJJDJPGH@Element?9?H?$LI?G?G?$AA@ DB 'Element-', 0c8H, 0b8H, 0c7H
	DB	0c7H, 00H					; `string'
CONST	ENDS
;	COMDAT ??_C@_0BB@KIEOALHF@Element?9?$LP?$LF?$LP?$KK?$LA?x?$LA?$NN?$AA@
CONST	SEGMENT
??_C@_0BB@KIEOALHF@Element?9?$LP?$LF?$LP?$KK?$LA?x?$LA?$NN?$AA@ DB 'Eleme'
	DB	'nt-', 0bfH, 0b5H, 0bfH, 0aaH, 0b0H, 0f8H, 0b0H, 0ddH, 00H ; `string'
CONST	ENDS
;	COMDAT ??_C@_0N@KKLGOIFK@Element?9?$LA?x?$LA?$NN?$AA@
CONST	SEGMENT
??_C@_0N@KKLGOIFK@Element?9?$LA?x?$LA?$NN?$AA@ DB 'Element-', 0b0H, 0f8H, 0b0H
	DB	0ddH, 00H					; `string'
CONST	ENDS
;	COMDAT ??_C@_0BB@MPDHJEMA@Element?9?$LB?W?$LH?l?$MA?L?$LF?$LP?$AA@
CONST	SEGMENT
??_C@_0BB@MPDHJEMA@Element?9?$LB?W?$LH?l?$MA?L?$LF?$LP?$AA@ DB 'Element-', 0b1H
	DB	0d7H, 0b7H, 0ecH, 0c0H, 0ccH, 0b5H, 0bfH, 00H ; `string'
CONST	ENDS
;	COMDAT ??_C@_0BD@MCDHLICD@Element?9MoveTarget?$AA@
CONST	SEGMENT
??_C@_0BD@MCDHLICD@Element?9MoveTarget?$AA@ DB 'Element-MoveTarget', 00H ; `string'
CONST	ENDS
;	COMDAT ??_C@_0N@HNCNKMKN@Element?9?$MA?L?$LF?$LP?$AA@
CONST	SEGMENT
??_C@_0N@HNCNKMKN@Element?9?$MA?L?$LF?$LP?$AA@ DB 'Element-', 0c0H, 0ccH, 0b5H
	DB	0bfH, 00H					; `string'
CONST	ENDS
;	COMDAT ??_C@_0N@HHEEIAEO@?$LO?Q?$LN?N?5?A?$LP?D?m?$LD?$KK?$CB?$AA@
CONST	SEGMENT
??_C@_0N@HHEEIAEO@?$LO?Q?$LN?N?5?A?$LP?D?m?$LD?$KK?$CB?$AA@ DB 0beH, 0d1H
	DB	0bdH, 0ceH, ' ', 0c1H, 0bfH, 0c4H, 0edH, 0b3H, 0aaH, '!', 00H ; `string'
CONST	ENDS
;	COMDAT ??_C@_0CD@LHLKGAPI@World?2MovePath?2Doppelganger_69?4d@
CONST	SEGMENT
??_C@_0CD@LHLKGAPI@World?2MovePath?2Doppelganger_69?4d@ DB 'World\MovePat'
	DB	'h\Doppelganger_69.dat', 00H			; `string'
CONST	ENDS
;	COMDAT ??_C@_0CD@HMOGLDFN@World?2MovePath?2Doppelganger_68?4d@
CONST	SEGMENT
??_C@_0CD@HMOGLDFN@World?2MovePath?2Doppelganger_68?4d@ DB 'World\MovePat'
	DB	'h\Doppelganger_68.dat', 00H			; `string'
CONST	ENDS
;	COMDAT ??_C@_0CD@INLAABII@World?2MovePath?2Doppelganger_67?4d@
CONST	SEGMENT
??_C@_0CD@INLAABII@World?2MovePath?2Doppelganger_67?4d@ DB 'World\MovePat'
	DB	'h\Doppelganger_67.dat', 00H			; `string'
CONST	ENDS
;	COMDAT ??_C@_0CD@EGOMNCCN@World?2MovePath?2Doppelganger_66?4d@
CONST	SEGMENT
??_C@_0CD@EGOMNCCN@World?2MovePath?2Doppelganger_66?4d@ DB 'World\MovePat'
	DB	'h\Doppelganger_66.dat', 00H			; `string'
CONST	ENDS
;	COMDAT ??_C@_0BL@JELFGKKH@World?2MovePath?2Crywolf?4dat?$AA@
CONST	SEGMENT
??_C@_0BL@JELFGKKH@World?2MovePath?2Crywolf?4dat?$AA@ DB 'World\MovePath\'
	DB	'Crywolf.dat', 00H				; `string'
CONST	ENDS
;	COMDAT ??_C@_0DL@GHCFCCJM@?$FLMonster?5AI?5Element?$FN?5?9?5Loading?5E@
CONST	SEGMENT
??_C@_0DL@GHCFCCJM@?$FLMonster?5AI?5Element?$FN?5?9?5Loading?5E@ DB '[Mon'
	DB	'ster AI Element] - Loading Exception Error (%s) File. ', 00H ; `string'
CONST	ENDS
;	COMDAT ??_R0K@8
data$r	SEGMENT
??_R0K@8 DD	FLAT:??_7type_info@@6B@			; unsigned long `RTTI Type Descriptor'
	DD	00H
	DB	'.K', 00H
data$r	ENDS
;	COMDAT ??_C@_0CJ@CODEEKKA@?$FLMonster?5AI?5Element?$FN?5?9?5?$CFs?5file?5i@
CONST	SEGMENT
??_C@_0CJ@CODEEKKA@?$FLMonster?5AI?5Element?$FN?5?9?5?$CFs?5file?5i@ DB '['
	DB	'Monster AI Element] - %s file is Loaded', 00H ; `string'
CONST	ENDS
;	COMDAT ??_C@_0DK@KJDEHPPO@?$FLMonster?5AI?5Element?$FN?5?9?5ElementCl@
CONST	SEGMENT
??_C@_0DK@KJDEHPPO@?$FLMonster?5AI?5Element?$FN?5?9?5ElementCl@ DB '[Mons'
	DB	'ter AI Element] - ElementClass(%d) Error (%s) File. ', 00H ; `string'
CONST	ENDS
;	COMDAT ??_C@_0DL@BLNJIJKI@?$FLMonster?5AI?5Element?$FN?5?9?5ElementNu@
CONST	SEGMENT
??_C@_0DL@BLNJIJKI@?$FLMonster?5AI?5Element?$FN?5?9?5ElementNu@ DB '[Mons'
	DB	'ter AI Element] - ElementNumber(%d) Error (%s) File. ', 00H ; `string'
CONST	ENDS
;	COMDAT ??_C@_03JBJLGPFL@end?$AA@
CONST	SEGMENT
??_C@_03JBJLGPFL@end?$AA@ DB 'end', 00H			; `string'
CONST	ENDS
;	COMDAT ??_C@_0CG@GEEPJADH@?$FLMonster?5AI?5Element?$FN?5?9?5Can?8t?5Ope@
CONST	SEGMENT
??_C@_0CG@GEEPJADH@?$FLMonster?5AI?5Element?$FN?5?9?5Can?8t?5Ope@ DB '[Mo'
	DB	'nster AI Element] - Can''t Open %s ', 00H	; `string'
CONST	ENDS
;	COMDAT ??_C@_01KDCPPGHE@r?$AA@
CONST	SEGMENT
??_C@_01KDCPPGHE@r?$AA@ DB 'r', 00H			; `string'
CONST	ENDS
;	COMDAT ??_C@_0DJ@OKEPGHGM@?$FLMonster?5AI?5Element?$FN?5?9?5File?5load@
CONST	SEGMENT
??_C@_0DJ@OKEPGHGM@?$FLMonster?5AI?5Element?$FN?5?9?5File?5load@ DB '[Mon'
	DB	'ster AI Element] - File load error : File Name Error', 00H ; `string'
CONST	ENDS
;	COMDAT ??_7TMonsterAIElement@@6B@
CONST	SEGMENT
??_7TMonsterAIElement@@6B@ DD FLAT:??_R4TMonsterAIElement@@6B@ ; TMonsterAIElement::`vftable'
	DD	FLAT:??_ETMonsterAIElement@@UAEPAXI@Z
CONST	ENDS
;	COMDAT ??_C@_00CNPNBAHC@?$AA@
CONST	SEGMENT
??_C@_00CNPNBAHC@?$AA@ DB 00H				; `string'
CONST	ENDS
;	COMDAT xdata$x
xdata$x	SEGMENT
__catchsym$?LoadData@TMonsterAIElement@@SAHPAD@Z$2 DD 00H
	DD	FLAT:??_R0K@8
	DD	00H
	DD	FLAT:__catch$?LoadData@TMonsterAIElement@@SAHPAD@Z$0
__unwindtable$?LoadData@TMonsterAIElement@@SAHPAD@Z DD 0ffffffffH
	DD	00H
	DD	0ffffffffH
	DD	00H
__tryblocktable$?LoadData@TMonsterAIElement@@SAHPAD@Z DD 00H
	DD	00H
	DD	01H
	DD	01H
	DD	FLAT:__catchsym$?LoadData@TMonsterAIElement@@SAHPAD@Z$2
__ehfuncinfo$?LoadData@TMonsterAIElement@@SAHPAD@Z DD 019930522H
	DD	02H
	DD	FLAT:__unwindtable$?LoadData@TMonsterAIElement@@SAHPAD@Z
	DD	01H
	DD	FLAT:__tryblocktable$?LoadData@TMonsterAIElement@@SAHPAD@Z
	DD	2 DUP(00H)
	DD	00H
	DD	01H
xdata$x	ENDS
;	COMDAT xdata$x
xdata$x	SEGMENT
__ehfuncinfo$??_EOBJECTSTRUCT@@QAEPAXI@Z DD 019930522H
	DD	00H
	DD	00H
	DD	2 DUP(00H)
	DD	2 DUP(00H)
	DD	00H
	DD	05H
xdata$x	ENDS
CRT$XCU	SEGMENT
??s_MonsterAIElementArray$initializer$@TMonsterAIElement@@2P6AXXZA@@3P6AXXZA DD FLAT:??__E?s_MonsterAIElementArray@TMonsterAIElement@@2PAV1@A@@YAXXZ ; ??s_MonsterAIElementArray$initializer$@TMonsterAIElement@@2P6AXXZA@@3P6AXXZA
CRT$XCU	ENDS
CRT$XCU	SEGMENT
??s_MonsterAIMovePath$initializer$@TMonsterAIElement@@2P6AXXZA@@3P6AXXZA DD FLAT:??__E?s_MonsterAIMovePath@TMonsterAIElement@@2PAVTMonsterAIMovePath@@A@@YAXXZ ; ??s_MonsterAIMovePath$initializer$@TMonsterAIElement@@2P6AXXZA@@3P6AXXZA
CRT$XCU	ENDS
CRT$XCU	SEGMENT
?UTIL$initializer$@@3P6AXXZA DD FLAT:??__EUTIL@@YAXXZ	; UTIL$initializer$
CRT$XCU	ENDS
CRT$XCU	SEGMENT
?MONSTER_UTIL$initializer$@@3P6AXXZA DD FLAT:??__EMONSTER_UTIL@@YAXXZ ; MONSTER_UTIL$initializer$
CRT$XCU	ENDS
; Function compile flags: /Ogtp
;	COMDAT ??__FMONSTER_UTIL@@YAXXZ
text$yd	SEGMENT
??__FMONSTER_UTIL@@YAXXZ PROC				; `dynamic atexit destructor for 'MONSTER_UTIL'', COMDAT
  00000	b9 00 00 00 00	 mov	 ecx, OFFSET ?MONSTER_UTIL@@3VTMonsterAIUtil@@A
  00005	e9 00 00 00 00	 jmp	 ??1TMonsterAIUtil@@UAE@XZ ; TMonsterAIUtil::~TMonsterAIUtil
??__FMONSTER_UTIL@@YAXXZ ENDP				; `dynamic atexit destructor for 'MONSTER_UTIL''
text$yd	ENDS
; Function compile flags: /Ogtp
; File c:\users\michel\desktop\source\gameserver\source\tmonsteraielement.cpp
;	COMDAT ??__EMONSTER_UTIL@@YAXXZ
text$di	SEGMENT
??__EMONSTER_UTIL@@YAXXZ PROC				; `dynamic initializer for 'MONSTER_UTIL'', COMDAT

; 29   : static TMonsterAIUtil MONSTER_UTIL;

  00000	b9 00 00 00 00	 mov	 ecx, OFFSET ?MONSTER_UTIL@@3VTMonsterAIUtil@@A
  00005	e8 00 00 00 00	 call	 ??0TMonsterAIUtil@@QAE@XZ ; TMonsterAIUtil::TMonsterAIUtil
  0000a	68 00 00 00 00	 push	 OFFSET ??__FMONSTER_UTIL@@YAXXZ ; `dynamic atexit destructor for 'MONSTER_UTIL''
  0000f	e8 00 00 00 00	 call	 _atexit
  00014	59		 pop	 ecx
  00015	c3		 ret	 0
??__EMONSTER_UTIL@@YAXXZ ENDP				; `dynamic initializer for 'MONSTER_UTIL''
text$di	ENDS
; Function compile flags: /Ogtp
;	COMDAT ??__FUTIL@@YAXXZ
text$yd	SEGMENT
??__FUTIL@@YAXXZ PROC					; `dynamic atexit destructor for 'UTIL'', COMDAT
  00000	b9 00 00 00 00	 mov	 ecx, OFFSET ?UTIL@@3VCCrywolfUtil@@A
  00005	e9 00 00 00 00	 jmp	 ??1CCrywolfUtil@@UAE@XZ	; CCrywolfUtil::~CCrywolfUtil
??__FUTIL@@YAXXZ ENDP					; `dynamic atexit destructor for 'UTIL''
text$yd	ENDS
; Function compile flags: /Ogtp
; File c:\users\michel\desktop\source\gameserver\source\tmonsteraielement.cpp
;	COMDAT ??__EUTIL@@YAXXZ
text$di	SEGMENT
??__EUTIL@@YAXXZ PROC					; `dynamic initializer for 'UTIL'', COMDAT

; 28   : static CCrywolfUtil UTIL;

  00000	b9 00 00 00 00	 mov	 ecx, OFFSET ?UTIL@@3VCCrywolfUtil@@A
  00005	e8 00 00 00 00	 call	 ??0CCrywolfUtil@@QAE@XZ	; CCrywolfUtil::CCrywolfUtil
  0000a	68 00 00 00 00	 push	 OFFSET ??__FUTIL@@YAXXZ	; `dynamic atexit destructor for 'UTIL''
  0000f	e8 00 00 00 00	 call	 _atexit
  00014	59		 pop	 ecx
  00015	c3		 ret	 0
??__EUTIL@@YAXXZ ENDP					; `dynamic initializer for 'UTIL''
text$di	ENDS
; Function compile flags: /Ogtp
;	COMDAT ??__F?s_MonsterAIMovePath@TMonsterAIElement@@2PAVTMonsterAIMovePath@@A@@YAXXZ
text$yd	SEGMENT
??__F?s_MonsterAIMovePath@TMonsterAIElement@@2PAVTMonsterAIMovePath@@A@@YAXXZ PROC ; `dynamic atexit destructor for 'TMonsterAIElement::s_MonsterAIMovePath'', COMDAT
  00000	68 00 00 00 00	 push	 OFFSET ??1TMonsterAIMovePath@@UAE@XZ ; TMonsterAIMovePath::~TMonsterAIMovePath
  00005	6a 64		 push	 100			; 00000064H
  00007	68 cc 12 00 00	 push	 4812			; 000012ccH
  0000c	68 00 00 00 00	 push	 OFFSET ?s_MonsterAIMovePath@TMonsterAIElement@@2PAVTMonsterAIMovePath@@A ; TMonsterAIElement::s_MonsterAIMovePath
  00011	e8 00 00 00 00	 call	 ??_M@YGXPAXIIP6EX0@Z@Z
  00016	c3		 ret	 0
??__F?s_MonsterAIMovePath@TMonsterAIElement@@2PAVTMonsterAIMovePath@@A@@YAXXZ ENDP ; `dynamic atexit destructor for 'TMonsterAIElement::s_MonsterAIMovePath''
text$yd	ENDS
; Function compile flags: /Ogtp
; File c:\users\michel\desktop\source\gameserver\source\tmonsteraielement.cpp
;	COMDAT ??__E?s_MonsterAIMovePath@TMonsterAIElement@@2PAVTMonsterAIMovePath@@A@@YAXXZ
text$di	SEGMENT
??__E?s_MonsterAIMovePath@TMonsterAIElement@@2PAVTMonsterAIMovePath@@A@@YAXXZ PROC ; `dynamic initializer for 'TMonsterAIElement::s_MonsterAIMovePath'', COMDAT

; 26   : TMonsterAIMovePath TMonsterAIElement::s_MonsterAIMovePath[MAX_NUMBER_MAP];

  00000	68 00 00 00 00	 push	 OFFSET ??1TMonsterAIMovePath@@UAE@XZ ; TMonsterAIMovePath::~TMonsterAIMovePath
  00005	68 00 00 00 00	 push	 OFFSET ??0TMonsterAIMovePath@@QAE@XZ ; TMonsterAIMovePath::TMonsterAIMovePath
  0000a	6a 64		 push	 100			; 00000064H
  0000c	68 cc 12 00 00	 push	 4812			; 000012ccH
  00011	68 00 00 00 00	 push	 OFFSET ?s_MonsterAIMovePath@TMonsterAIElement@@2PAVTMonsterAIMovePath@@A ; TMonsterAIElement::s_MonsterAIMovePath
  00016	e8 00 00 00 00	 call	 ??_L@YGXPAXIIP6EX0@Z1@Z
  0001b	68 00 00 00 00	 push	 OFFSET ??__F?s_MonsterAIMovePath@TMonsterAIElement@@2PAVTMonsterAIMovePath@@A@@YAXXZ ; `dynamic atexit destructor for 'TMonsterAIElement::s_MonsterAIMovePath''
  00020	e8 00 00 00 00	 call	 _atexit
  00025	59		 pop	 ecx
  00026	c3		 ret	 0
??__E?s_MonsterAIMovePath@TMonsterAIElement@@2PAVTMonsterAIMovePath@@A@@YAXXZ ENDP ; `dynamic initializer for 'TMonsterAIElement::s_MonsterAIMovePath''
text$di	ENDS
; Function compile flags: /Ogtp
;	COMDAT ??__F?s_MonsterAIElementArray@TMonsterAIElement@@2PAV1@A@@YAXXZ
text$yd	SEGMENT
??__F?s_MonsterAIElementArray@TMonsterAIElement@@2PAV1@A@@YAXXZ PROC ; `dynamic atexit destructor for 'TMonsterAIElement::s_MonsterAIElementArray'', COMDAT
  00000	68 00 00 00 00	 push	 OFFSET ??1TMonsterAIElement@@UAE@XZ ; TMonsterAIElement::~TMonsterAIElement
  00005	6a 64		 push	 100			; 00000064H
  00007	6a 58		 push	 88			; 00000058H
  00009	68 00 00 00 00	 push	 OFFSET ?s_MonsterAIElementArray@TMonsterAIElement@@2PAV1@A ; TMonsterAIElement::s_MonsterAIElementArray
  0000e	e8 00 00 00 00	 call	 ??_M@YGXPAXIIP6EX0@Z@Z
  00013	c3		 ret	 0
??__F?s_MonsterAIElementArray@TMonsterAIElement@@2PAV1@A@@YAXXZ ENDP ; `dynamic atexit destructor for 'TMonsterAIElement::s_MonsterAIElementArray''
text$yd	ENDS
; Function compile flags: /Ogtp
; File c:\users\michel\desktop\source\gameserver\source\tmonsteraielement.cpp
;	COMDAT ??__E?s_MonsterAIElementArray@TMonsterAIElement@@2PAV1@A@@YAXXZ
text$di	SEGMENT
??__E?s_MonsterAIElementArray@TMonsterAIElement@@2PAV1@A@@YAXXZ PROC ; `dynamic initializer for 'TMonsterAIElement::s_MonsterAIElementArray'', COMDAT

; 25   : TMonsterAIElement TMonsterAIElement::s_MonsterAIElementArray[MAX_AI_ELEMENT];

  00000	68 00 00 00 00	 push	 OFFSET ??1TMonsterAIElement@@UAE@XZ ; TMonsterAIElement::~TMonsterAIElement
  00005	68 00 00 00 00	 push	 OFFSET ??0TMonsterAIElement@@QAE@XZ ; TMonsterAIElement::TMonsterAIElement
  0000a	6a 64		 push	 100			; 00000064H
  0000c	6a 58		 push	 88			; 00000058H
  0000e	68 00 00 00 00	 push	 OFFSET ?s_MonsterAIElementArray@TMonsterAIElement@@2PAV1@A ; TMonsterAIElement::s_MonsterAIElementArray
  00013	e8 00 00 00 00	 call	 ??_L@YGXPAXIIP6EX0@Z1@Z
  00018	68 00 00 00 00	 push	 OFFSET ??__F?s_MonsterAIElementArray@TMonsterAIElement@@2PAV1@A@@YAXXZ ; `dynamic atexit destructor for 'TMonsterAIElement::s_MonsterAIElementArray''
  0001d	e8 00 00 00 00	 call	 _atexit
  00022	59		 pop	 ecx
  00023	c3		 ret	 0
??__E?s_MonsterAIElementArray@TMonsterAIElement@@2PAV1@A@@YAXXZ ENDP ; `dynamic initializer for 'TMonsterAIElement::s_MonsterAIElementArray''
text$di	ENDS
; Function compile flags: /Ogtp
;	COMDAT ??__FKANTURU_UTIL@@YAXXZ
text$yd	SEGMENT
??__FKANTURU_UTIL@@YAXXZ PROC				; `dynamic atexit destructor for 'KANTURU_UTIL'', COMDAT
  00000	b9 00 00 00 00	 mov	 ecx, OFFSET ?KANTURU_UTIL@@3VCKanturuUtil@@A
  00005	e9 00 00 00 00	 jmp	 ??1CKanturuUtil@@UAE@XZ	; CKanturuUtil::~CKanturuUtil
??__FKANTURU_UTIL@@YAXXZ ENDP				; `dynamic atexit destructor for 'KANTURU_UTIL''
text$yd	ENDS
; Function compile flags: /Ogtp
; File c:\users\michel\desktop\source\gameserver\source\tmonsteraielement.cpp
;	COMDAT ??__EKANTURU_UTIL@@YAXXZ
text$di	SEGMENT
??__EKANTURU_UTIL@@YAXXZ PROC				; `dynamic initializer for 'KANTURU_UTIL'', COMDAT

; 22   : static CKanturuUtil KANTURU_UTIL;

  00000	b9 00 00 00 00	 mov	 ecx, OFFSET ?KANTURU_UTIL@@3VCKanturuUtil@@A
  00005	e8 00 00 00 00	 call	 ??0CKanturuUtil@@QAE@XZ	; CKanturuUtil::CKanturuUtil
  0000a	68 00 00 00 00	 push	 OFFSET ??__FKANTURU_UTIL@@YAXXZ ; `dynamic atexit destructor for 'KANTURU_UTIL''
  0000f	e8 00 00 00 00	 call	 _atexit
  00014	59		 pop	 ecx
  00015	c3		 ret	 0
??__EKANTURU_UTIL@@YAXXZ ENDP				; `dynamic initializer for 'KANTURU_UTIL''
text$di	ENDS
; Function compile flags: /Ogtp
; File c:\users\michel\desktop\source\gameserver\include\readscript.h
;	COMDAT ?GetToken@@YA?AW4SMDToken@@XZ
_TEXT	SEGMENT
_TempString$ = -104					; size = 100
__$ArrayPad$ = -4					; size = 4
?GetToken@@YA?AW4SMDToken@@XZ PROC			; GetToken, COMDAT

; 24   : {

  00000	55		 push	 ebp
  00001	8b ec		 mov	 ebp, esp
  00003	83 ec 68	 sub	 esp, 104		; 00000068H
  00006	a1 00 00 00 00	 mov	 eax, DWORD PTR ___security_cookie
  0000b	33 c5		 xor	 eax, ebp
  0000d	89 45 fc	 mov	 DWORD PTR __$ArrayPad$[ebp], eax

; 25   : 	int ch;
; 26   : 	char* p;
; 27   : 	char TempString[100];
; 28   : 
; 29   : 	TokenString[0]=0;

  00010	c6 05 00 00 00
	00 00		 mov	 BYTE PTR ?TokenString@@3PADA, 0
  00017	53		 push	 ebx
  00018	0f 1f 84 00 00
	00 00 00	 npad	 8
$LL4@GetToken:

; 30   : 
; 31   : 	do
; 32   : 	{
; 33   : 		if ((ch=fgetc(SMDFile)) == -1)

  00020	ff 35 00 00 00
	00		 push	 DWORD PTR ?SMDFile@@3PAU_iobuf@@A
  00026	e8 00 00 00 00	 call	 _fgetc
  0002b	8b d8		 mov	 ebx, eax
  0002d	83 c4 04	 add	 esp, 4
  00030	83 fb ff	 cmp	 ebx, -1
  00033	74 5d		 je	 SHORT $LN43@GetToken

; 34   : 		{
; 35   : 			return END;	// End of FILE (EOF)
; 36   : 		}
; 37   : 		else
; 38   : 		{	
; 39   : 			if (ch=='/')		// this is /

  00035	83 fb 2f	 cmp	 ebx, 47			; 0000002fH
  00038	75 30		 jne	 SHORT $LN2@GetToken

; 40   : 			{
; 41   : 				if((ch=fgetc(SMDFile)) == '/')

  0003a	ff 35 00 00 00
	00		 push	 DWORD PTR ?SMDFile@@3PAU_iobuf@@A
  00040	e8 00 00 00 00	 call	 _fgetc
  00045	8b d8		 mov	 ebx, eax
  00047	83 c4 04	 add	 esp, 4
  0004a	83 fb 2f	 cmp	 ebx, 47			; 0000002fH
  0004d	75 1b		 jne	 SHORT $LN2@GetToken
  0004f	90		 npad	 1
$LL5@GetToken:

; 42   : 				{
; 43   : 					while ((ch != '\n') && (ch != -1))	// End of Line (EOL)

  00050	83 fb ff	 cmp	 ebx, -1
  00053	74 3d		 je	 SHORT $LN43@GetToken

; 44   : 					{
; 45   : 						ch=fgetc(SMDFile);

  00055	ff 35 00 00 00
	00		 push	 DWORD PTR ?SMDFile@@3PAU_iobuf@@A
  0005b	e8 00 00 00 00	 call	 _fgetc
  00060	8b d8		 mov	 ebx, eax
  00062	83 c4 04	 add	 esp, 4
  00065	83 fb 0a	 cmp	 ebx, 10			; 0000000aH
  00068	75 e6		 jne	 SHORT $LL5@GetToken
$LN2@GetToken:

; 51   : 					}
; 52   : 				}
; 53   : 			}
; 54   : 		}
; 55   : 	}
; 56   : 	while (isspace(ch) != 0);

  0006a	53		 push	 ebx
  0006b	e8 00 00 00 00	 call	 _isspace
  00070	83 c4 04	 add	 esp, 4
  00073	85 c0		 test	 eax, eax
  00075	75 a9		 jne	 SHORT $LL4@GetToken

; 57   : 
; 58   : 	
; 59   : 	switch(ch)

  00077	8d 43 de	 lea	 eax, DWORD PTR [ebx-34]
  0007a	56		 push	 esi
  0007b	83 f8 5b	 cmp	 eax, 91			; 0000005bH
  0007e	0f 87 89 01 00
	00		 ja	 $LN29@GetToken
  00084	0f b6 80 00 00
	00 00		 movzx	 eax, BYTE PTR $LN58@GetToken[eax]
  0008b	ff 24 85 00 00
	00 00		 jmp	 DWORD PTR $LN64@GetToken[eax*4]
$LN43@GetToken:

; 46   : 					}
; 47   : 	
; 48   : 					if (ch == -1)
; 49   : 					{
; 50   : 						return END;	// End of FILE

  00092	b8 02 00 00 00	 mov	 eax, 2
  00097	5b		 pop	 ebx

; 143  : 		}
; 144  : 		else
; 145  : 		{
; 146  : 			return CurrentToken = SMD_ERROR; // '<'
; 147  : 		}
; 148  : 		break;
; 149  : 
; 150  : 	}
; 151  : 
; 152  : 	return NAME;
; 153  : }

  00098	8b 4d fc	 mov	 ecx, DWORD PTR __$ArrayPad$[ebp]
  0009b	33 cd		 xor	 ecx, ebp
  0009d	e8 00 00 00 00	 call	 @__security_check_cookie@4
  000a2	8b e5		 mov	 esp, ebp
  000a4	5d		 pop	 ebp
  000a5	c3		 ret	 0
$LN20@GetToken:
  000a6	5e		 pop	 esi

; 60   : 	{
; 61   : 
; 62   : 	case 0x23:	// #
; 63   : 		return CurrentToken=COMMAND;

  000a7	c7 05 00 00 00
	00 23 00 00 00	 mov	 DWORD PTR ?CurrentToken@@3W4SMDToken@@A, 35 ; 00000023H
  000b1	b8 23 00 00 00	 mov	 eax, 35			; 00000023H
  000b6	5b		 pop	 ebx

; 143  : 		}
; 144  : 		else
; 145  : 		{
; 146  : 			return CurrentToken = SMD_ERROR; // '<'
; 147  : 		}
; 148  : 		break;
; 149  : 
; 150  : 	}
; 151  : 
; 152  : 	return NAME;
; 153  : }

  000b7	8b 4d fc	 mov	 ecx, DWORD PTR __$ArrayPad$[ebp]
  000ba	33 cd		 xor	 ecx, ebp
  000bc	e8 00 00 00 00	 call	 @__security_check_cookie@4
  000c1	8b e5		 mov	 esp, ebp
  000c3	5d		 pop	 ebp
  000c4	c3		 ret	 0
$LN21@GetToken:
  000c5	5e		 pop	 esi

; 64   : 		break;
; 65   : 	
; 66   : 	case 0x3B:	// ;
; 67   : 		return CurrentToken=SEMICOLON;

  000c6	c7 05 00 00 00
	00 3b 00 00 00	 mov	 DWORD PTR ?CurrentToken@@3W4SMDToken@@A, 59 ; 0000003bH
  000d0	b8 3b 00 00 00	 mov	 eax, 59			; 0000003bH
  000d5	5b		 pop	 ebx

; 143  : 		}
; 144  : 		else
; 145  : 		{
; 146  : 			return CurrentToken = SMD_ERROR; // '<'
; 147  : 		}
; 148  : 		break;
; 149  : 
; 150  : 	}
; 151  : 
; 152  : 	return NAME;
; 153  : }

  000d6	8b 4d fc	 mov	 ecx, DWORD PTR __$ArrayPad$[ebp]
  000d9	33 cd		 xor	 ecx, ebp
  000db	e8 00 00 00 00	 call	 @__security_check_cookie@4
  000e0	8b e5		 mov	 esp, ebp
  000e2	5d		 pop	 ebp
  000e3	c3		 ret	 0
$LN22@GetToken:
  000e4	5e		 pop	 esi

; 68   : 		break;
; 69   : 	
; 70   : 	case 0x2C:	// ,
; 71   : 
; 72   : 		return CurrentToken=COMMA;

  000e5	c7 05 00 00 00
	00 2c 00 00 00	 mov	 DWORD PTR ?CurrentToken@@3W4SMDToken@@A, 44 ; 0000002cH
  000ef	b8 2c 00 00 00	 mov	 eax, 44			; 0000002cH
  000f4	5b		 pop	 ebx

; 143  : 		}
; 144  : 		else
; 145  : 		{
; 146  : 			return CurrentToken = SMD_ERROR; // '<'
; 147  : 		}
; 148  : 		break;
; 149  : 
; 150  : 	}
; 151  : 
; 152  : 	return NAME;
; 153  : }

  000f5	8b 4d fc	 mov	 ecx, DWORD PTR __$ArrayPad$[ebp]
  000f8	33 cd		 xor	 ecx, ebp
  000fa	e8 00 00 00 00	 call	 @__security_check_cookie@4
  000ff	8b e5		 mov	 esp, ebp
  00101	5d		 pop	 ebp
  00102	c3		 ret	 0
$LN23@GetToken:
  00103	5e		 pop	 esi

; 73   : 		break;
; 74   : 	
; 75   : 	case 0x7B:	// {
; 76   : 		return CurrentToken = LP;

  00104	c7 05 00 00 00
	00 7b 00 00 00	 mov	 DWORD PTR ?CurrentToken@@3W4SMDToken@@A, 123 ; 0000007bH
  0010e	b8 7b 00 00 00	 mov	 eax, 123		; 0000007bH
  00113	5b		 pop	 ebx

; 143  : 		}
; 144  : 		else
; 145  : 		{
; 146  : 			return CurrentToken = SMD_ERROR; // '<'
; 147  : 		}
; 148  : 		break;
; 149  : 
; 150  : 	}
; 151  : 
; 152  : 	return NAME;
; 153  : }

  00114	8b 4d fc	 mov	 ecx, DWORD PTR __$ArrayPad$[ebp]
  00117	33 cd		 xor	 ecx, ebp
  00119	e8 00 00 00 00	 call	 @__security_check_cookie@4
  0011e	8b e5		 mov	 esp, ebp
  00120	5d		 pop	 ebp
  00121	c3		 ret	 0
$LN24@GetToken:
  00122	5e		 pop	 esi

; 77   : 		break;
; 78   : 
; 79   : 	case 0x7D:	// }
; 80   : 		return CurrentToken = RP;

  00123	c7 05 00 00 00
	00 7d 00 00 00	 mov	 DWORD PTR ?CurrentToken@@3W4SMDToken@@A, 125 ; 0000007dH
  0012d	b8 7d 00 00 00	 mov	 eax, 125		; 0000007dH
  00132	5b		 pop	 ebx

; 143  : 		}
; 144  : 		else
; 145  : 		{
; 146  : 			return CurrentToken = SMD_ERROR; // '<'
; 147  : 		}
; 148  : 		break;
; 149  : 
; 150  : 	}
; 151  : 
; 152  : 	return NAME;
; 153  : }

  00133	8b 4d fc	 mov	 ecx, DWORD PTR __$ArrayPad$[ebp]
  00136	33 cd		 xor	 ecx, ebp
  00138	e8 00 00 00 00	 call	 @__security_check_cookie@4
  0013d	8b e5		 mov	 esp, ebp
  0013f	5d		 pop	 ebp
  00140	c3		 ret	 0
$LN25@GetToken:

; 81   : 		break;
; 82   : 	// Nice Index Table :)	by Deathway
; 83   : 	// Numbers Case
; 84   : 	case 0x2D:	//-
; 85   : 	case 0x2E:	//.
; 86   : 	case '0':	//0
; 87   : 	case '1':	//1
; 88   : 	case '2':	//2
; 89   : 	case '3':	//3
; 90   : 	case '4':	//4		
; 91   : 	case '5':	//5
; 92   : 	case '6':	//6
; 93   : 	case '7':	//7
; 94   : 	case '8':	//8
; 95   : 	case '9':	//9
; 96   : 		ungetc(ch, SMDFile);

  00141	ff 35 00 00 00
	00		 push	 DWORD PTR ?SMDFile@@3PAU_iobuf@@A
  00147	53		 push	 ebx
  00148	e8 00 00 00 00	 call	 _ungetc

; 97   : 		p = TempString;
; 98   : 		
; 99   : 		while (((ch=getc(SMDFile)) != -1) && ((ch == 0x2E) || (isdigit(ch) != 0) || (ch == 0x2D)))  // 2e '.'  2D '-'

  0014d	ff 35 00 00 00
	00		 push	 DWORD PTR ?SMDFile@@3PAU_iobuf@@A
  00153	8d 75 98	 lea	 esi, DWORD PTR _TempString$[ebp]
  00156	e8 00 00 00 00	 call	 _getc
  0015b	8b d8		 mov	 ebx, eax
  0015d	83 c4 0c	 add	 esp, 12			; 0000000cH
  00160	83 fb ff	 cmp	 ebx, -1
  00163	74 2f		 je	 SHORT $LN59@GetToken
$LL9@GetToken:
  00165	83 fb 2e	 cmp	 ebx, 46			; 0000002eH
  00168	74 12		 je	 SHORT $LN26@GetToken
  0016a	53		 push	 ebx
  0016b	e8 00 00 00 00	 call	 _isdigit
  00170	83 c4 04	 add	 esp, 4
  00173	85 c0		 test	 eax, eax
  00175	75 05		 jne	 SHORT $LN26@GetToken
  00177	83 fb 2d	 cmp	 ebx, 45			; 0000002dH
  0017a	75 18		 jne	 SHORT $LN59@GetToken
$LN26@GetToken:
  0017c	ff 35 00 00 00
	00		 push	 DWORD PTR ?SMDFile@@3PAU_iobuf@@A

; 100  : 		{
; 101  : 			*p = ch;	// Construct a String

  00182	88 1e		 mov	 BYTE PTR [esi], bl

; 102  : 			p++;

  00184	46		 inc	 esi
  00185	e8 00 00 00 00	 call	 _getc
  0018a	8b d8		 mov	 ebx, eax
  0018c	83 c4 04	 add	 esp, 4
  0018f	83 fb ff	 cmp	 ebx, -1
  00192	75 d1		 jne	 SHORT $LL9@GetToken
$LN59@GetToken:

; 103  : 		}		
; 104  : 		*p = 0;
; 105  : 		TokenNumber = (float)atof( TempString);	// Select the first Byte as Main ID

  00194	8d 45 98	 lea	 eax, DWORD PTR _TempString$[ebp]
  00197	c6 06 00	 mov	 BYTE PTR [esi], 0
  0019a	50		 push	 eax
  0019b	e8 00 00 00 00	 call	 _atof
  001a0	83 c4 04	 add	 esp, 4

; 106  : 		return CurrentToken  = NUMBER ;

  001a3	c7 05 00 00 00
	00 01 00 00 00	 mov	 DWORD PTR ?CurrentToken@@3W4SMDToken@@A, 1
  001ad	d9 1d 00 00 00
	00		 fstp	 DWORD PTR ?TokenNumber@@3MA
  001b3	b8 01 00 00 00	 mov	 eax, 1
  001b8	5e		 pop	 esi
  001b9	5b		 pop	 ebx

; 143  : 		}
; 144  : 		else
; 145  : 		{
; 146  : 			return CurrentToken = SMD_ERROR; // '<'
; 147  : 		}
; 148  : 		break;
; 149  : 
; 150  : 	}
; 151  : 
; 152  : 	return NAME;
; 153  : }

  001ba	8b 4d fc	 mov	 ecx, DWORD PTR __$ArrayPad$[ebp]
  001bd	33 cd		 xor	 ecx, ebp
  001bf	e8 00 00 00 00	 call	 @__security_check_cookie@4
  001c4	8b e5		 mov	 esp, ebp
  001c6	5d		 pop	 ebp
  001c7	c3		 ret	 0
$LN27@GetToken:

; 107  : 		break;
; 108  : 
; 109  : 	case '\"':	// "	String Case
; 110  : 		p=&TokenString[0];
; 111  : 		
; 112  : 		while (((ch=getc(SMDFile)) != -1 ) && (ch != 0x22))	// nice

  001c8	ff 35 00 00 00
	00		 push	 DWORD PTR ?SMDFile@@3PAU_iobuf@@A
  001ce	be 00 00 00 00	 mov	 esi, OFFSET ?TokenString@@3PADA
  001d3	e8 00 00 00 00	 call	 _getc
  001d8	83 c4 04	 add	 esp, 4
  001db	83 f8 ff	 cmp	 eax, -1
  001de	74 1f		 je	 SHORT $LN12@GetToken
$LL11@GetToken:
  001e0	83 f8 22	 cmp	 eax, 34			; 00000022H
  001e3	0f 84 95 00 00
	00		 je	 $LN28@GetToken
  001e9	ff 35 00 00 00
	00		 push	 DWORD PTR ?SMDFile@@3PAU_iobuf@@A

; 113  : 		{
; 114  : 			*p = ch;

  001ef	88 06		 mov	 BYTE PTR [esi], al

; 115  : 			p++;

  001f1	46		 inc	 esi
  001f2	e8 00 00 00 00	 call	 _getc
  001f7	83 c4 04	 add	 esp, 4
  001fa	83 f8 ff	 cmp	 eax, -1
  001fd	75 e1		 jne	 SHORT $LL11@GetToken
$LN12@GetToken:

; 116  : 		}
; 117  : 		if (ch != 0x22 )

  001ff	83 f8 22	 cmp	 eax, 34			; 00000022H
  00202	74 7a		 je	 SHORT $LN28@GetToken

; 118  : 		{
; 119  : 			ungetc(ch, SMDFile);

  00204	ff 35 00 00 00
	00		 push	 DWORD PTR ?SMDFile@@3PAU_iobuf@@A
  0020a	50		 push	 eax

; 120  : 		}
; 121  : 		*p = 0;
; 122  : 		return CurrentToken = NAME;

  0020b	eb 69		 jmp	 SHORT $LN62@GetToken
$LN29@GetToken:

; 123  : 		break;
; 124  : 
; 125  : 	default:	// Others
; 126  : 		if (isalpha(ch))

  0020d	53		 push	 ebx
  0020e	e8 00 00 00 00	 call	 _isalpha
  00213	83 c4 04	 add	 esp, 4
  00216	85 c0		 test	 eax, eax
  00218	0f 84 7f 00 00
	00		 je	 $LN30@GetToken

; 127  : 		{
; 128  : 			p=&TokenString[0];
; 129  : 			*p=ch;
; 130  : 			p++;
; 131  : 
; 132  : 			while ( ((ch=getc(SMDFile)) != -1) && ( (ch == 0x2E) || (ch == 0x5F) || (isalnum(ch) != 0) ) )

  0021e	ff 35 00 00 00
	00		 push	 DWORD PTR ?SMDFile@@3PAU_iobuf@@A
  00224	88 1d 00 00 00
	00		 mov	 BYTE PTR ?TokenString@@3PADA, bl
  0022a	be 01 00 00 00	 mov	 esi, OFFSET ?TokenString@@3PADA+1
  0022f	e8 00 00 00 00	 call	 _getc
  00234	8b d8		 mov	 ebx, eax
  00236	83 c4 04	 add	 esp, 4
  00239	83 fb ff	 cmp	 ebx, -1
  0023c	74 31		 je	 SHORT $LN60@GetToken
  0023e	66 90		 npad	 2
$LL13@GetToken:
  00240	83 fb 2e	 cmp	 ebx, 46			; 0000002eH
  00243	74 12		 je	 SHORT $LN32@GetToken
  00245	83 fb 5f	 cmp	 ebx, 95			; 0000005fH
  00248	74 0d		 je	 SHORT $LN32@GetToken
  0024a	53		 push	 ebx
  0024b	e8 00 00 00 00	 call	 _isalnum
  00250	83 c4 04	 add	 esp, 4
  00253	85 c0		 test	 eax, eax
  00255	74 18		 je	 SHORT $LN60@GetToken
$LN32@GetToken:
  00257	ff 35 00 00 00
	00		 push	 DWORD PTR ?SMDFile@@3PAU_iobuf@@A

; 133  : 			{
; 134  : 				*p=ch;

  0025d	88 1e		 mov	 BYTE PTR [esi], bl

; 135  : 				p++;

  0025f	46		 inc	 esi
  00260	e8 00 00 00 00	 call	 _getc
  00265	8b d8		 mov	 ebx, eax
  00267	83 c4 04	 add	 esp, 4
  0026a	83 fb ff	 cmp	 ebx, -1
  0026d	75 d1		 jne	 SHORT $LL13@GetToken
$LN60@GetToken:

; 136  : 				
; 137  : 			}
; 138  : 
; 139  : 			ungetc(ch, SMDFile);

  0026f	ff 35 00 00 00
	00		 push	 DWORD PTR ?SMDFile@@3PAU_iobuf@@A
  00275	53		 push	 ebx
$LN62@GetToken:
  00276	e8 00 00 00 00	 call	 _ungetc
  0027b	83 c4 08	 add	 esp, 8
$LN28@GetToken:

; 140  : 			*p=0;

  0027e	c6 06 00	 mov	 BYTE PTR [esi], 0

; 141  : 			CurrentToken=NAME;
; 142  : 			return CurrentToken;

  00281	33 c0		 xor	 eax, eax
  00283	5e		 pop	 esi
  00284	c7 05 00 00 00
	00 00 00 00 00	 mov	 DWORD PTR ?CurrentToken@@3W4SMDToken@@A, 0
  0028e	5b		 pop	 ebx

; 143  : 		}
; 144  : 		else
; 145  : 		{
; 146  : 			return CurrentToken = SMD_ERROR; // '<'
; 147  : 		}
; 148  : 		break;
; 149  : 
; 150  : 	}
; 151  : 
; 152  : 	return NAME;
; 153  : }

  0028f	8b 4d fc	 mov	 ecx, DWORD PTR __$ArrayPad$[ebp]
  00292	33 cd		 xor	 ecx, ebp
  00294	e8 00 00 00 00	 call	 @__security_check_cookie@4
  00299	8b e5		 mov	 esp, ebp
  0029b	5d		 pop	 ebp
  0029c	c3		 ret	 0
$LN30@GetToken:
  0029d	8b 4d fc	 mov	 ecx, DWORD PTR __$ArrayPad$[ebp]
  002a0	b8 3c 00 00 00	 mov	 eax, 60			; 0000003cH
  002a5	5e		 pop	 esi
  002a6	33 cd		 xor	 ecx, ebp
  002a8	c7 05 00 00 00
	00 3c 00 00 00	 mov	 DWORD PTR ?CurrentToken@@3W4SMDToken@@A, 60 ; 0000003cH
  002b2	5b		 pop	 ebx
  002b3	e8 00 00 00 00	 call	 @__security_check_cookie@4
  002b8	8b e5		 mov	 esp, ebp
  002ba	5d		 pop	 ebp
  002bb	c3		 ret	 0
$LN64@GetToken:
  002bc	00 00 00 00	 DD	 $LN27@GetToken
  002c0	00 00 00 00	 DD	 $LN20@GetToken
  002c4	00 00 00 00	 DD	 $LN22@GetToken
  002c8	00 00 00 00	 DD	 $LN25@GetToken
  002cc	00 00 00 00	 DD	 $LN21@GetToken
  002d0	00 00 00 00	 DD	 $LN23@GetToken
  002d4	00 00 00 00	 DD	 $LN24@GetToken
  002d8	00 00 00 00	 DD	 $LN29@GetToken
$LN58@GetToken:
  002dc	00		 DB	 0
  002dd	01		 DB	 1
  002de	07		 DB	 7
  002df	07		 DB	 7
  002e0	07		 DB	 7
  002e1	07		 DB	 7
  002e2	07		 DB	 7
  002e3	07		 DB	 7
  002e4	07		 DB	 7
  002e5	07		 DB	 7
  002e6	02		 DB	 2
  002e7	03		 DB	 3
  002e8	03		 DB	 3
  002e9	07		 DB	 7
  002ea	03		 DB	 3
  002eb	03		 DB	 3
  002ec	03		 DB	 3
  002ed	03		 DB	 3
  002ee	03		 DB	 3
  002ef	03		 DB	 3
  002f0	03		 DB	 3
  002f1	03		 DB	 3
  002f2	03		 DB	 3
  002f3	03		 DB	 3
  002f4	07		 DB	 7
  002f5	04		 DB	 4
  002f6	07		 DB	 7
  002f7	07		 DB	 7
  002f8	07		 DB	 7
  002f9	07		 DB	 7
  002fa	07		 DB	 7
  002fb	07		 DB	 7
  002fc	07		 DB	 7
  002fd	07		 DB	 7
  002fe	07		 DB	 7
  002ff	07		 DB	 7
  00300	07		 DB	 7
  00301	07		 DB	 7
  00302	07		 DB	 7
  00303	07		 DB	 7
  00304	07		 DB	 7
  00305	07		 DB	 7
  00306	07		 DB	 7
  00307	07		 DB	 7
  00308	07		 DB	 7
  00309	07		 DB	 7
  0030a	07		 DB	 7
  0030b	07		 DB	 7
  0030c	07		 DB	 7
  0030d	07		 DB	 7
  0030e	07		 DB	 7
  0030f	07		 DB	 7
  00310	07		 DB	 7
  00311	07		 DB	 7
  00312	07		 DB	 7
  00313	07		 DB	 7
  00314	07		 DB	 7
  00315	07		 DB	 7
  00316	07		 DB	 7
  00317	07		 DB	 7
  00318	07		 DB	 7
  00319	07		 DB	 7
  0031a	07		 DB	 7
  0031b	07		 DB	 7
  0031c	07		 DB	 7
  0031d	07		 DB	 7
  0031e	07		 DB	 7
  0031f	07		 DB	 7
  00320	07		 DB	 7
  00321	07		 DB	 7
  00322	07		 DB	 7
  00323	07		 DB	 7
  00324	07		 DB	 7
  00325	07		 DB	 7
  00326	07		 DB	 7
  00327	07		 DB	 7
  00328	07		 DB	 7
  00329	07		 DB	 7
  0032a	07		 DB	 7
  0032b	07		 DB	 7
  0032c	07		 DB	 7
  0032d	07		 DB	 7
  0032e	07		 DB	 7
  0032f	07		 DB	 7
  00330	07		 DB	 7
  00331	07		 DB	 7
  00332	07		 DB	 7
  00333	07		 DB	 7
  00334	07		 DB	 7
  00335	05		 DB	 5
  00336	07		 DB	 7
  00337	06		 DB	 6
?GetToken@@YA?AW4SMDToken@@XZ ENDP			; GetToken
_TEXT	ENDS
; Function compile flags: /Ogtp
;	COMDAT ??_GTMonsterAIElement@@UAEPAXI@Z
_TEXT	SEGMENT
___flags$ = 8						; size = 4
??_GTMonsterAIElement@@UAEPAXI@Z PROC			; TMonsterAIElement::`scalar deleting destructor', COMDAT
; _this$ = ecx
  00000	55		 push	 ebp
  00001	8b ec		 mov	 ebp, esp
  00003	56		 push	 esi
  00004	8b f1		 mov	 esi, ecx
  00006	e8 00 00 00 00	 call	 ??1TMonsterAIElement@@UAE@XZ ; TMonsterAIElement::~TMonsterAIElement
  0000b	f6 45 08 01	 test	 BYTE PTR ___flags$[ebp], 1
  0000f	74 0b		 je	 SHORT $LN4@scalar
  00011	6a 58		 push	 88			; 00000058H
  00013	56		 push	 esi
  00014	e8 00 00 00 00	 call	 ??3@YAXPAXI@Z		; operator delete
  00019	83 c4 08	 add	 esp, 8
$LN4@scalar:
  0001c	8b c6		 mov	 eax, esi
  0001e	5e		 pop	 esi
  0001f	5d		 pop	 ebp
  00020	c2 04 00	 ret	 4
??_GTMonsterAIElement@@UAEPAXI@Z ENDP			; TMonsterAIElement::`scalar deleting destructor'
_TEXT	ENDS
; Function compile flags: /Ogtp
; File c:\users\michel\desktop\source\gameserver\source\tmonsteraielement.cpp
;	COMDAT ?FindAIElement@TMonsterAIElement@@SAPAV1@H@Z
_TEXT	SEGMENT
_iElementNumber$ = 8					; size = 4
?FindAIElement@TMonsterAIElement@@SAPAV1@H@Z PROC	; TMonsterAIElement::FindAIElement, COMDAT

; 206  : {

  00000	55		 push	 ebp
  00001	8b ec		 mov	 ebp, esp

; 207  : 	if ( iElementNumber < 0 || iElementNumber >= MAX_AI_ELEMENT )

  00003	8b 45 08	 mov	 eax, DWORD PTR _iElementNumber$[ebp]
  00006	83 f8 63	 cmp	 eax, 99			; 00000063H
  00009	77 13		 ja	 SHORT $LN3@FindAIElem

; 211  : 	}
; 212  : 
; 213  : 	if ( TMonsterAIElement::s_MonsterAIElementArray[iElementNumber].m_iElementNumber == iElementNumber )

  0000b	6b c8 58	 imul	 ecx, eax, 88
  0000e	39 81 38 00 00
	00		 cmp	 DWORD PTR ?s_MonsterAIElementArray@TMonsterAIElement@@2PAV1@A[ecx+56], eax
  00014	75 08		 jne	 SHORT $LN3@FindAIElem

; 214  : 	{
; 215  : 		return &TMonsterAIElement::s_MonsterAIElementArray[iElementNumber];

  00016	8d 81 00 00 00
	00		 lea	 eax, DWORD PTR ?s_MonsterAIElementArray@TMonsterAIElement@@2PAV1@A[ecx]

; 216  : 	}
; 217  : 
; 218  : //	LogAddTD("[Monster AI Element] FindAIElement() Error - (ElementNumber=%d) ", iElementNumber);
; 219  : 	return NULL;
; 220  : }

  0001c	5d		 pop	 ebp
  0001d	c3		 ret	 0
$LN3@FindAIElem:

; 208  : 	{
; 209  : //		LogAddTD("[Monster AI Element] FindAIElement() Error - (ElementNumber=%d) ", iElementNumber);
; 210  : 		return NULL;

  0001e	33 c0		 xor	 eax, eax

; 216  : 	}
; 217  : 
; 218  : //	LogAddTD("[Monster AI Element] FindAIElement() Error - (ElementNumber=%d) ", iElementNumber);
; 219  : 	return NULL;
; 220  : }

  00020	5d		 pop	 ebp
  00021	c3		 ret	 0
?FindAIElement@TMonsterAIElement@@SAPAV1@H@Z ENDP	; TMonsterAIElement::FindAIElement
_TEXT	ENDS
; Function compile flags: /Ogtp
; File c:\users\michel\desktop\source\gameserver\source\tmonsteraielement.cpp
;	COMDAT ?DelAllAIElement@TMonsterAIElement@@SAHXZ
_TEXT	SEGMENT
?DelAllAIElement@TMonsterAIElement@@SAHXZ PROC		; TMonsterAIElement::DelAllAIElement, COMDAT

; 188  : {

  00000	56		 push	 esi

; 189  : 	for ( int i=0;i<MAX_AI_ELEMENT;i++)

  00001	be 00 00 00 00	 mov	 esi, OFFSET ?s_MonsterAIElementArray@TMonsterAIElement@@2PAV1@A ; TMonsterAIElement::s_MonsterAIElementArray
$LL4@DelAllAIEl:

; 190  : 	{
; 191  : 		TMonsterAIElement::s_MonsterAIElementArray[i].Reset();

  00006	8b ce		 mov	 ecx, esi
  00008	e8 00 00 00 00	 call	 ?Reset@TMonsterAIElement@@QAEXXZ ; TMonsterAIElement::Reset
  0000d	83 c6 58	 add	 esi, 88			; 00000058H
  00010	81 fe 60 22 00
	00		 cmp	 esi, OFFSET ?s_MonsterAIElementArray@TMonsterAIElement@@2PAV1@A+8800
  00016	7c ee		 jl	 SHORT $LL4@DelAllAIEl

; 192  : 	}
; 193  : 
; 194  : 	for ( int j=0;j<MAX_NUMBER_MAP;j++)

  00018	be 00 00 00 00	 mov	 esi, OFFSET ?s_MonsterAIMovePath@TMonsterAIElement@@2PAVTMonsterAIMovePath@@A ; TMonsterAIElement::s_MonsterAIMovePath
  0001d	0f 1f 00	 npad	 3
$LL7@DelAllAIEl:

; 195  : 	{
; 196  : 		TMonsterAIElement::s_MonsterAIMovePath[j].DelAllAIMonsterMovePath();

  00020	8b ce		 mov	 ecx, esi
  00022	e8 00 00 00 00	 call	 ?DelAllAIMonsterMovePath@TMonsterAIMovePath@@QAEHXZ ; TMonsterAIMovePath::DelAllAIMonsterMovePath
  00027	81 c6 cc 12 00
	00		 add	 esi, 4812		; 000012ccH
  0002d	81 fe b0 57 07
	00		 cmp	 esi, OFFSET ?s_MonsterAIMovePath@TMonsterAIElement@@2PAVTMonsterAIMovePath@@A+481200
  00033	7c eb		 jl	 SHORT $LL7@DelAllAIEl

; 197  : 	}
; 198  : 
; 199  : 	return FALSE;

  00035	33 c0		 xor	 eax, eax
  00037	5e		 pop	 esi

; 200  : }

  00038	c3		 ret	 0
?DelAllAIElement@TMonsterAIElement@@SAHXZ ENDP		; TMonsterAIElement::DelAllAIElement
_TEXT	ENDS
; Function compile flags: /Ogtp
; File c:\users\michel\desktop\source\gameserver\source\tmonsteraielement.cpp
;	COMDAT ?LoadData@TMonsterAIElement@@SAHPAD@Z
_TEXT	SEGMENT
_szElementName$3$ = -92					; size = 16
_szElementName$2$ = -76					; size = 16
_szElementName$1$ = -60					; size = 16
_iX$1$ = -44						; size = 4
_iTargetType$1$ = -40					; size = 4
_iDelayTime$1$ = -36					; size = 4
_iSuccessRate$1$ = -32					; size = 4
_iElementType$1$ = -28					; size = 4
_iType$1$ = -24						; size = 4
_szElementName$4$ = -18					; size = 2
__$EHRec$ = -16						; size = 16
_lpszFileName$ = 8					; size = 4
?LoadData@TMonsterAIElement@@SAHPAD@Z PROC		; TMonsterAIElement::LoadData, COMDAT

; 64   : {

  00000	55		 push	 ebp
  00001	8b ec		 mov	 ebp, esp
  00003	6a ff		 push	 -1
  00005	68 00 00 00 00	 push	 __ehhandler$?LoadData@TMonsterAIElement@@SAHPAD@Z
  0000a	64 a1 00 00 00
	00		 mov	 eax, DWORD PTR fs:0
  00010	50		 push	 eax
  00011	83 ec 50	 sub	 esp, 80			; 00000050H
  00014	53		 push	 ebx
  00015	56		 push	 esi
  00016	57		 push	 edi
  00017	a1 00 00 00 00	 mov	 eax, DWORD PTR ___security_cookie
  0001c	33 c5		 xor	 eax, ebp
  0001e	50		 push	 eax
  0001f	8d 45 f4	 lea	 eax, DWORD PTR __$EHRec$[ebp+4]
  00022	64 a3 00 00 00
	00		 mov	 DWORD PTR fs:0, eax
  00028	89 65 f0	 mov	 DWORD PTR __$EHRec$[ebp], esp

; 65   : 	TMonsterAIElement::s_bDataLoad = FALSE;
; 66   : 
; 67   : 	if ( lpszFileName == NULL || strcmp(lpszFileName, "") == 0 )

  0002b	8b 5d 08	 mov	 ebx, DWORD PTR _lpszFileName$[ebp]
  0002e	c7 05 00 00 00
	00 00 00 00 00	 mov	 DWORD PTR ?s_bDataLoad@TMonsterAIElement@@2HA, 0 ; TMonsterAIElement::s_bDataLoad
  00038	85 db		 test	 ebx, ebx
  0003a	0f 84 0a 03 00
	00		 je	 $LN7@LoadData
  00040	b9 00 00 00 00	 mov	 ecx, OFFSET ??_C@_00CNPNBAHC@?$AA@
  00045	8b c3		 mov	 eax, ebx
$LL30@LoadData:
  00047	8a 10		 mov	 dl, BYTE PTR [eax]
  00049	3a 11		 cmp	 dl, BYTE PTR [ecx]
  0004b	75 1a		 jne	 SHORT $LN31@LoadData
  0004d	84 d2		 test	 dl, dl
  0004f	74 12		 je	 SHORT $LN32@LoadData
  00051	8a 50 01	 mov	 dl, BYTE PTR [eax+1]
  00054	3a 51 01	 cmp	 dl, BYTE PTR [ecx+1]
  00057	75 0e		 jne	 SHORT $LN31@LoadData
  00059	83 c0 02	 add	 eax, 2
  0005c	83 c1 02	 add	 ecx, 2
  0005f	84 d2		 test	 dl, dl
  00061	75 e4		 jne	 SHORT $LL30@LoadData
$LN32@LoadData:
  00063	33 c0		 xor	 eax, eax
  00065	eb 05		 jmp	 SHORT $LN33@LoadData
$LN31@LoadData:
  00067	1b c0		 sbb	 eax, eax
  00069	83 c8 01	 or	 eax, 1
$LN33@LoadData:
  0006c	85 c0		 test	 eax, eax
  0006e	0f 84 d6 02 00
	00		 je	 $LN7@LoadData

; 71   : 	}
; 72   : 
; 73   : 	try
; 74   : 	{
; 75   : 		SMDToken Token;
; 76   : 		SMDFile = fopen(lpszFileName, "r");

  00074	68 00 00 00 00	 push	 OFFSET ??_C@_01KDCPPGHE@r?$AA@
  00079	53		 push	 ebx
  0007a	c7 45 fc 00 00
	00 00		 mov	 DWORD PTR __$EHRec$[ebp+12], 0
  00081	e8 00 00 00 00	 call	 _fopen
  00086	83 c4 08	 add	 esp, 8
  00089	a3 00 00 00 00	 mov	 DWORD PTR ?SMDFile@@3PAU_iobuf@@A, eax

; 77   : 
; 78   : 		if ( !SMDFile )

  0008e	85 c0		 test	 eax, eax
  00090	75 22		 jne	 SHORT $LN9@LoadData

; 79   : 		{
; 80   : 			MsgBox("[Monster AI Element] - Can't Open %s ", lpszFileName);

  00092	53		 push	 ebx
  00093	68 00 00 00 00	 push	 OFFSET ??_C@_0CG@GEEPJADH@?$FLMonster?5AI?5Element?$FN?5?9?5Can?8t?5Ope@
  00098	e8 00 00 00 00	 call	 ?MsgBox@@YAXPADZZ	; MsgBox
  0009d	83 c4 08	 add	 esp, 8
  000a0	33 c0		 xor	 eax, eax

; 176  : 	// Double Goer Event
; 177  : 	TMonsterAIElement::s_MonsterAIMovePath[MAP_INDEX_DOUBLEGOER1].LoadData(gDirPath.GetNewPath(FILE_WORLD_MOVEPATH_DOPPEL66));
; 178  : 	TMonsterAIElement::s_MonsterAIMovePath[MAP_INDEX_DOUBLEGOER2].LoadData(gDirPath.GetNewPath(FILE_WORLD_MOVEPATH_DOPPEL67));
; 179  : 	TMonsterAIElement::s_MonsterAIMovePath[MAP_INDEX_DOUBLEGOER3].LoadData(gDirPath.GetNewPath(FILE_WORLD_MOVEPATH_DOPPEL68));
; 180  : 	TMonsterAIElement::s_MonsterAIMovePath[MAP_INDEX_DOUBLEGOER4].LoadData(gDirPath.GetNewPath(FILE_WORLD_MOVEPATH_DOPPEL69));
; 181  : 	return FALSE;
; 182  : }

  000a2	8b 4d f4	 mov	 ecx, DWORD PTR __$EHRec$[ebp+4]
  000a5	64 89 0d 00 00
	00 00		 mov	 DWORD PTR fs:0, ecx
  000ac	59		 pop	 ecx
  000ad	5f		 pop	 edi
  000ae	5e		 pop	 esi
  000af	5b		 pop	 ebx
  000b0	8b e5		 mov	 esp, ebp
  000b2	5d		 pop	 ebp
  000b3	c3		 ret	 0
$LN9@LoadData:

; 81   : 			return FALSE;
; 82   : 		}
; 83   : 
; 84   : 		TMonsterAIElement::DelAllAIElement();

  000b4	e8 00 00 00 00	 call	 ?DelAllAIElement@TMonsterAIElement@@SAHXZ ; TMonsterAIElement::DelAllAIElement
  000b9	0f 1f 80 00 00
	00 00		 npad	 7
$LL2@LoadData:

; 85   : 		int iType = -1;
; 86   : 
; 87   : 		while ( true )
; 88   : 		{
; 89   : 			Token = (SMDToken)GetToken();

  000c0	e8 00 00 00 00	 call	 ?GetToken@@YA?AW4SMDToken@@XZ ; GetToken

; 90   : 
; 91   : 			if( Token == END )

  000c5	83 f8 02	 cmp	 eax, 2
  000c8	0f 85 c3 00 00
	00		 jne	 $LN10@LoadData

; 162  : 				}
; 163  : 			}
; 164  : 		}
; 165  : 
; 166  : 		fclose(SMDFile);

  000ce	ff 35 00 00 00
	00		 push	 DWORD PTR ?SMDFile@@3PAU_iobuf@@A
  000d4	e8 00 00 00 00	 call	 _fclose

; 167  : 		LogAddC(2,"[Monster AI Element] - %s file is Loaded", lpszFileName);

  000d9	53		 push	 ebx
  000da	68 00 00 00 00	 push	 OFFSET ??_C@_0CJ@CODEEKKA@?$FLMonster?5AI?5Element?$FN?5?9?5?$CFs?5file?5i@
  000df	6a 02		 push	 2
  000e1	ff 15 00 00 00
	00		 call	 DWORD PTR ?LogAddC@@3P6AXEPADZZA ; LogAddC
  000e7	83 c4 10	 add	 esp, 16			; 00000010H

; 168  : 		TMonsterAIElement::s_bDataLoad = TRUE;

  000ea	c7 05 00 00 00
	00 01 00 00 00	 mov	 DWORD PTR ?s_bDataLoad@TMonsterAIElement@@2HA, 1 ; TMonsterAIElement::s_bDataLoad
$LN21@LoadData:

; 174  : 
; 175  : 	TMonsterAIElement::s_MonsterAIMovePath[MAP_INDEX_CRYWOLF_FIRSTZONE].LoadData(gDirPath.GetNewPath(FILE_WORLD_MOVEPATH_CRYWOLF));

  000f4	68 00 00 00 00	 push	 OFFSET ??_C@_0BL@JELFGKKH@World?2MovePath?2Crywolf?4dat?$AA@
  000f9	b9 00 00 00 00	 mov	 ecx, OFFSET ?gDirPath@@3VCDirPath@@A ; gDirPath
  000fe	c7 45 fc ff ff
	ff ff		 mov	 DWORD PTR __$EHRec$[ebp+12], -1
  00105	e8 00 00 00 00	 call	 ?GetNewPath@CDirPath@@QAEPADPAD@Z ; CDirPath::GetNewPath
  0010a	50		 push	 eax
  0010b	b9 18 7f 02 00	 mov	 ecx, OFFSET ?s_MonsterAIMovePath@TMonsterAIElement@@2PAVTMonsterAIMovePath@@A+163608
  00110	e8 00 00 00 00	 call	 ?LoadData@TMonsterAIMovePath@@QAEHPAD@Z ; TMonsterAIMovePath::LoadData
  00115	68 00 00 00 00	 push	 OFFSET ??_C@_0CD@EGOMNCCN@World?2MovePath?2Doppelganger_66?4d@
  0011a	b9 00 00 00 00	 mov	 ecx, OFFSET ?gDirPath@@3VCDirPath@@A ; gDirPath
  0011f	e8 00 00 00 00	 call	 ?GetNewPath@CDirPath@@QAEPADPAD@Z ; CDirPath::GetNewPath
  00124	50		 push	 eax
  00125	b9 cc c5 04 00	 mov	 ecx, OFFSET ?s_MonsterAIMovePath@TMonsterAIElement@@2PAVTMonsterAIMovePath@@A+312780
  0012a	e8 00 00 00 00	 call	 ?LoadData@TMonsterAIMovePath@@QAEHPAD@Z ; TMonsterAIMovePath::LoadData
  0012f	68 00 00 00 00	 push	 OFFSET ??_C@_0CD@INLAABII@World?2MovePath?2Doppelganger_67?4d@
  00134	b9 00 00 00 00	 mov	 ecx, OFFSET ?gDirPath@@3VCDirPath@@A ; gDirPath
  00139	e8 00 00 00 00	 call	 ?GetNewPath@CDirPath@@QAEPADPAD@Z ; CDirPath::GetNewPath
  0013e	50		 push	 eax
  0013f	b9 98 d8 04 00	 mov	 ecx, OFFSET ?s_MonsterAIMovePath@TMonsterAIElement@@2PAVTMonsterAIMovePath@@A+317592
  00144	e8 00 00 00 00	 call	 ?LoadData@TMonsterAIMovePath@@QAEHPAD@Z ; TMonsterAIMovePath::LoadData
  00149	68 00 00 00 00	 push	 OFFSET ??_C@_0CD@HMOGLDFN@World?2MovePath?2Doppelganger_68?4d@
  0014e	b9 00 00 00 00	 mov	 ecx, OFFSET ?gDirPath@@3VCDirPath@@A ; gDirPath
  00153	e8 00 00 00 00	 call	 ?GetNewPath@CDirPath@@QAEPADPAD@Z ; CDirPath::GetNewPath
  00158	50		 push	 eax
  00159	b9 64 eb 04 00	 mov	 ecx, OFFSET ?s_MonsterAIMovePath@TMonsterAIElement@@2PAVTMonsterAIMovePath@@A+322404
  0015e	e8 00 00 00 00	 call	 ?LoadData@TMonsterAIMovePath@@QAEHPAD@Z ; TMonsterAIMovePath::LoadData
  00163	68 00 00 00 00	 push	 OFFSET ??_C@_0CD@LHLKGAPI@World?2MovePath?2Doppelganger_69?4d@
  00168	b9 00 00 00 00	 mov	 ecx, OFFSET ?gDirPath@@3VCDirPath@@A ; gDirPath
  0016d	e8 00 00 00 00	 call	 ?GetNewPath@CDirPath@@QAEPADPAD@Z ; CDirPath::GetNewPath
  00172	50		 push	 eax
  00173	b9 30 fe 04 00	 mov	 ecx, OFFSET ?s_MonsterAIMovePath@TMonsterAIElement@@2PAVTMonsterAIMovePath@@A+327216
  00178	e8 00 00 00 00	 call	 ?LoadData@TMonsterAIMovePath@@QAEHPAD@Z ; TMonsterAIMovePath::LoadData
  0017d	33 c0		 xor	 eax, eax

; 176  : 	// Double Goer Event
; 177  : 	TMonsterAIElement::s_MonsterAIMovePath[MAP_INDEX_DOUBLEGOER1].LoadData(gDirPath.GetNewPath(FILE_WORLD_MOVEPATH_DOPPEL66));
; 178  : 	TMonsterAIElement::s_MonsterAIMovePath[MAP_INDEX_DOUBLEGOER2].LoadData(gDirPath.GetNewPath(FILE_WORLD_MOVEPATH_DOPPEL67));
; 179  : 	TMonsterAIElement::s_MonsterAIMovePath[MAP_INDEX_DOUBLEGOER3].LoadData(gDirPath.GetNewPath(FILE_WORLD_MOVEPATH_DOPPEL68));
; 180  : 	TMonsterAIElement::s_MonsterAIMovePath[MAP_INDEX_DOUBLEGOER4].LoadData(gDirPath.GetNewPath(FILE_WORLD_MOVEPATH_DOPPEL69));
; 181  : 	return FALSE;
; 182  : }

  0017f	8b 4d f4	 mov	 ecx, DWORD PTR __$EHRec$[ebp+4]
  00182	64 89 0d 00 00
	00 00		 mov	 DWORD PTR fs:0, ecx
  00189	59		 pop	 ecx
  0018a	5f		 pop	 edi
  0018b	5e		 pop	 esi
  0018c	5b		 pop	 ebx
  0018d	8b e5		 mov	 esp, ebp
  0018f	5d		 pop	 ebp
  00190	c3		 ret	 0
$LN10@LoadData:

; 92   : 				break;
; 93   : 
; 94   : 			iType = (int)TokenNumber;

  00191	f3 0f 2c 05 00
	00 00 00	 cvttss2si eax, DWORD PTR ?TokenNumber@@3MA
  00199	89 45 e8	 mov	 DWORD PTR _iType$1$[ebp], eax
  0019c	0f 1f 40 00	 npad	 4
$LL4@LoadData:

; 95   : 
; 96   : 			while ( true )
; 97   : 			{
; 98   : 				if ( iType == 0 )

  001a0	85 c0		 test	 eax, eax
  001a2	75 fc		 jne	 SHORT $LL4@LoadData

; 99   : 				{
; 100  : 					char szElementName[50]={0};
; 101  : 					int iElementNumber = -1;
; 102  : 					int iElementClass = -1;
; 103  : 					int iElementType = -1;
; 104  : 					int iSuccessRate = -1;
; 105  : 					int iDelayTime = -1;
; 106  : 					int iTargetType = -1;
; 107  : 					int iX = -1;
; 108  : 					int iY = -1;
; 109  : 
; 110  : 					Token = (SMDToken)GetToken();

  001a4	e8 00 00 00 00	 call	 ?GetToken@@YA?AW4SMDToken@@XZ ; GetToken

; 111  : 
; 112  : 					if ( !strcmp("end", TokenString))

  001a9	b9 00 00 00 00	 mov	 ecx, OFFSET ?TokenString@@3PADA
  001ae	b8 00 00 00 00	 mov	 eax, OFFSET ??_C@_03JBJLGPFL@end?$AA@
$LL34@LoadData:
  001b3	8a 10		 mov	 dl, BYTE PTR [eax]
  001b5	3a 11		 cmp	 dl, BYTE PTR [ecx]
  001b7	75 1a		 jne	 SHORT $LN35@LoadData
  001b9	84 d2		 test	 dl, dl
  001bb	74 12		 je	 SHORT $LN36@LoadData
  001bd	8a 50 01	 mov	 dl, BYTE PTR [eax+1]
  001c0	3a 51 01	 cmp	 dl, BYTE PTR [ecx+1]
  001c3	75 0e		 jne	 SHORT $LN35@LoadData
  001c5	83 c0 02	 add	 eax, 2
  001c8	83 c1 02	 add	 ecx, 2
  001cb	84 d2		 test	 dl, dl
  001cd	75 e4		 jne	 SHORT $LL34@LoadData
$LN36@LoadData:
  001cf	33 c0		 xor	 eax, eax
  001d1	eb 05		 jmp	 SHORT $LN37@LoadData
$LN35@LoadData:
  001d3	1b c0		 sbb	 eax, eax
  001d5	83 c8 01	 or	 eax, 1
$LN37@LoadData:
  001d8	85 c0		 test	 eax, eax
  001da	0f 84 e0 fe ff
	ff		 je	 $LL2@LoadData

; 113  : 						break;
; 114  : 
; 115  : 					iElementNumber = (int)TokenNumber;

  001e0	f3 0f 2c 3d 00
	00 00 00	 cvttss2si edi, DWORD PTR ?TokenNumber@@3MA

; 116  : 
; 117  : 					Token = (SMDToken)GetToken();

  001e8	e8 00 00 00 00	 call	 ?GetToken@@YA?AW4SMDToken@@XZ ; GetToken

; 118  : 					memcpy(szElementName, TokenString, sizeof(szElementName));

  001ed	66 a1 30 00 00
	00		 mov	 ax, WORD PTR ?TokenString@@3PADA+48
  001f3	66 89 45 ee	 mov	 WORD PTR _szElementName$4$[ebp], ax
  001f7	0f 10 05 00 00
	00 00		 movups	 xmm0, XMMWORD PTR ?TokenString@@3PADA
  001fe	0f 11 45 c4	 movups	 XMMWORD PTR _szElementName$1$[ebp], xmm0
  00202	0f 10 05 10 00
	00 00		 movups	 xmm0, XMMWORD PTR ?TokenString@@3PADA+16
  00209	0f 11 45 b4	 movups	 XMMWORD PTR _szElementName$2$[ebp], xmm0
  0020d	0f 10 05 20 00
	00 00		 movups	 xmm0, XMMWORD PTR ?TokenString@@3PADA+32
  00214	0f 11 45 a4	 movups	 XMMWORD PTR _szElementName$3$[ebp], xmm0

; 119  : 
; 120  : 					Token = (SMDToken)GetToken();

  00218	e8 00 00 00 00	 call	 ?GetToken@@YA?AW4SMDToken@@XZ ; GetToken

; 121  : 					iElementClass = (int)TokenNumber;

  0021d	f3 0f 2c 35 00
	00 00 00	 cvttss2si esi, DWORD PTR ?TokenNumber@@3MA

; 122  : 
; 123  : 					Token = (SMDToken)GetToken();

  00225	e8 00 00 00 00	 call	 ?GetToken@@YA?AW4SMDToken@@XZ ; GetToken

; 124  : 					iElementType = (int)TokenNumber;

  0022a	f3 0f 2c 05 00
	00 00 00	 cvttss2si eax, DWORD PTR ?TokenNumber@@3MA
  00232	89 45 e4	 mov	 DWORD PTR _iElementType$1$[ebp], eax

; 125  : 
; 126  : 					Token = (SMDToken)GetToken();

  00235	e8 00 00 00 00	 call	 ?GetToken@@YA?AW4SMDToken@@XZ ; GetToken

; 127  : 					iSuccessRate = (int)TokenNumber;

  0023a	f3 0f 2c 05 00
	00 00 00	 cvttss2si eax, DWORD PTR ?TokenNumber@@3MA
  00242	89 45 e0	 mov	 DWORD PTR _iSuccessRate$1$[ebp], eax

; 128  : 
; 129  : 					Token = (SMDToken)GetToken();

  00245	e8 00 00 00 00	 call	 ?GetToken@@YA?AW4SMDToken@@XZ ; GetToken

; 130  : 					iDelayTime = (int)TokenNumber;

  0024a	f3 0f 2c 05 00
	00 00 00	 cvttss2si eax, DWORD PTR ?TokenNumber@@3MA
  00252	89 45 dc	 mov	 DWORD PTR _iDelayTime$1$[ebp], eax

; 131  : 
; 132  : 					Token = (SMDToken)GetToken();

  00255	e8 00 00 00 00	 call	 ?GetToken@@YA?AW4SMDToken@@XZ ; GetToken

; 133  : 					iTargetType = (int)TokenNumber;

  0025a	f3 0f 2c 05 00
	00 00 00	 cvttss2si eax, DWORD PTR ?TokenNumber@@3MA
  00262	89 45 d8	 mov	 DWORD PTR _iTargetType$1$[ebp], eax

; 134  : 
; 135  : 					Token = (SMDToken)GetToken();

  00265	e8 00 00 00 00	 call	 ?GetToken@@YA?AW4SMDToken@@XZ ; GetToken

; 136  : 					iX = (int)TokenNumber;

  0026a	f3 0f 2c 05 00
	00 00 00	 cvttss2si eax, DWORD PTR ?TokenNumber@@3MA
  00272	89 45 d4	 mov	 DWORD PTR _iX$1$[ebp], eax

; 137  : 
; 138  : 					Token = (SMDToken)GetToken();

  00275	e8 00 00 00 00	 call	 ?GetToken@@YA?AW4SMDToken@@XZ ; GetToken

; 139  : 					iY = (int)TokenNumber;

  0027a	f3 0f 2c 15 00
	00 00 00	 cvttss2si edx, DWORD PTR ?TokenNumber@@3MA

; 140  : 
; 141  : 					if ( iElementNumber < 0 || iElementNumber >= MAX_AI_ELEMENT )

  00282	83 ff 63	 cmp	 edi, 99			; 00000063H
  00285	0f 87 92 00 00
	00		 ja	 $LN14@LoadData

; 145  : 					}
; 146  : 
; 147  : 					if ( iElementClass < 0 || iElementClass >= MAX_AI_ELEMENT_CLASS )

  0028b	83 fe 07	 cmp	 esi, 7
  0028e	77 76		 ja	 SHORT $LN16@LoadData

; 151  : 					}
; 152  : 
; 153  : 					TMonsterAIElement::s_MonsterAIElementArray[iElementNumber].m_iElementNumber = iElementNumber;
; 154  : 					TMonsterAIElement::s_MonsterAIElementArray[iElementNumber].m_iElementClass = iElementClass;
; 155  : 					TMonsterAIElement::s_MonsterAIElementArray[iElementNumber].m_iElementType = iElementType;
; 156  : 					TMonsterAIElement::s_MonsterAIElementArray[iElementNumber].m_iSuccessRate = iSuccessRate;
; 157  : 					TMonsterAIElement::s_MonsterAIElementArray[iElementNumber].m_iDelayTime = iDelayTime;
; 158  : 					TMonsterAIElement::s_MonsterAIElementArray[iElementNumber].m_iTargetType = iTargetType;
; 159  : 					TMonsterAIElement::s_MonsterAIElementArray[iElementNumber].m_iX = iX;
; 160  : 					TMonsterAIElement::s_MonsterAIElementArray[iElementNumber].m_iY = iY;
; 161  : 					memcpy(TMonsterAIElement::s_MonsterAIElementArray[iElementNumber].m_szElementName, szElementName, sizeof(szElementName));

  00290	0f 10 45 c4	 movups	 xmm0, XMMWORD PTR _szElementName$1$[ebp]
  00294	8b 4d e4	 mov	 ecx, DWORD PTR _iElementType$1$[ebp]
  00297	6b c7 58	 imul	 eax, edi, 88
  0029a	89 88 40 00 00
	00		 mov	 DWORD PTR ?s_MonsterAIElementArray@TMonsterAIElement@@2PAV1@A[eax+64], ecx
  002a0	8b 4d e0	 mov	 ecx, DWORD PTR _iSuccessRate$1$[ebp]
  002a3	0f 11 80 04 00
	00 00		 movups	 XMMWORD PTR ?s_MonsterAIElementArray@TMonsterAIElement@@2PAV1@A[eax+4], xmm0
  002aa	89 88 44 00 00
	00		 mov	 DWORD PTR ?s_MonsterAIElementArray@TMonsterAIElement@@2PAV1@A[eax+68], ecx
  002b0	0f 10 45 b4	 movups	 xmm0, XMMWORD PTR _szElementName$2$[ebp]
  002b4	8b 4d dc	 mov	 ecx, DWORD PTR _iDelayTime$1$[ebp]
  002b7	89 88 48 00 00
	00		 mov	 DWORD PTR ?s_MonsterAIElementArray@TMonsterAIElement@@2PAV1@A[eax+72], ecx
  002bd	8b 4d d8	 mov	 ecx, DWORD PTR _iTargetType$1$[ebp]
  002c0	0f 11 80 14 00
	00 00		 movups	 XMMWORD PTR ?s_MonsterAIElementArray@TMonsterAIElement@@2PAV1@A[eax+20], xmm0
  002c7	89 88 4c 00 00
	00		 mov	 DWORD PTR ?s_MonsterAIElementArray@TMonsterAIElement@@2PAV1@A[eax+76], ecx
  002cd	8b 4d d4	 mov	 ecx, DWORD PTR _iX$1$[ebp]
  002d0	0f 10 45 a4	 movups	 xmm0, XMMWORD PTR _szElementName$3$[ebp]
  002d4	89 88 50 00 00
	00		 mov	 DWORD PTR ?s_MonsterAIElementArray@TMonsterAIElement@@2PAV1@A[eax+80], ecx
  002da	66 8b 4d ee	 mov	 cx, WORD PTR _szElementName$4$[ebp]
  002de	0f 11 80 24 00
	00 00		 movups	 XMMWORD PTR ?s_MonsterAIElementArray@TMonsterAIElement@@2PAV1@A[eax+36], xmm0
  002e5	89 b8 38 00 00
	00		 mov	 DWORD PTR ?s_MonsterAIElementArray@TMonsterAIElement@@2PAV1@A[eax+56], edi
  002eb	89 b0 3c 00 00
	00		 mov	 DWORD PTR ?s_MonsterAIElementArray@TMonsterAIElement@@2PAV1@A[eax+60], esi
  002f1	89 90 54 00 00
	00		 mov	 DWORD PTR ?s_MonsterAIElementArray@TMonsterAIElement@@2PAV1@A[eax+84], edx
  002f7	66 89 88 34 00
	00 00		 mov	 WORD PTR ?s_MonsterAIElementArray@TMonsterAIElement@@2PAV1@A[eax+52], cx
  002fe	8b 45 e8	 mov	 eax, DWORD PTR _iType$1$[ebp]
  00301	e9 9a fe ff ff	 jmp	 $LL4@LoadData
$LN16@LoadData:

; 148  : 					{
; 149  : 						MsgBox("[Monster AI Element] - ElementClass(%d) Error (%s) File. ", iElementClass, lpszFileName);

  00306	53		 push	 ebx
  00307	56		 push	 esi
  00308	68 00 00 00 00	 push	 OFFSET ??_C@_0DK@KJDEHPPO@?$FLMonster?5AI?5Element?$FN?5?9?5ElementCl@
  0030d	e8 00 00 00 00	 call	 ?MsgBox@@YAXPADZZ	; MsgBox

; 150  : 						continue;

  00312	8b 45 e8	 mov	 eax, DWORD PTR _iType$1$[ebp]
  00315	83 c4 0c	 add	 esp, 12			; 0000000cH
  00318	e9 83 fe ff ff	 jmp	 $LL4@LoadData
$LN14@LoadData:

; 142  : 					{
; 143  : 						MsgBox("[Monster AI Element] - ElementNumber(%d) Error (%s) File. ", iElementNumber, lpszFileName);

  0031d	53		 push	 ebx
  0031e	57		 push	 edi
  0031f	68 00 00 00 00	 push	 OFFSET ??_C@_0DL@BLNJIJKI@?$FLMonster?5AI?5Element?$FN?5?9?5ElementNu@
  00324	e8 00 00 00 00	 call	 ?MsgBox@@YAXPADZZ	; MsgBox

; 144  : 						continue;

  00329	8b 45 e8	 mov	 eax, DWORD PTR _iType$1$[ebp]
  0032c	83 c4 0c	 add	 esp, 12			; 0000000cH
  0032f	e9 6c fe ff ff	 jmp	 $LL4@LoadData
__catch$?LoadData@TMonsterAIElement@@SAHPAD@Z$0:

; 169  : 	}
; 170  : 	catch (DWORD)
; 171  : 	{
; 172  : 		MsgBox("[Monster AI Element] - Loading Exception Error (%s) File. ", lpszFileName);

  00334	ff 75 08	 push	 DWORD PTR _lpszFileName$[ebp]
  00337	68 00 00 00 00	 push	 OFFSET ??_C@_0DL@GHCFCCJM@?$FLMonster?5AI?5Element?$FN?5?9?5Loading?5E@
  0033c	e8 00 00 00 00	 call	 ?MsgBox@@YAXPADZZ	; MsgBox
  00341	83 c4 08	 add	 esp, 8

; 173  : 	}

  00344	b8 00 00 00 00	 mov	 eax, $LN21@LoadData
  00349	c3		 ret	 0
$LN7@LoadData:

; 68   : 	{
; 69   : 		MsgBox("[Monster AI Element] - File load error : File Name Error");

  0034a	68 00 00 00 00	 push	 OFFSET ??_C@_0DJ@OKEPGHGM@?$FLMonster?5AI?5Element?$FN?5?9?5File?5load@
  0034f	e8 00 00 00 00	 call	 ?MsgBox@@YAXPADZZ	; MsgBox
  00354	83 c4 04	 add	 esp, 4

; 70   : 		return FALSE;

  00357	33 c0		 xor	 eax, eax

; 176  : 	// Double Goer Event
; 177  : 	TMonsterAIElement::s_MonsterAIMovePath[MAP_INDEX_DOUBLEGOER1].LoadData(gDirPath.GetNewPath(FILE_WORLD_MOVEPATH_DOPPEL66));
; 178  : 	TMonsterAIElement::s_MonsterAIMovePath[MAP_INDEX_DOUBLEGOER2].LoadData(gDirPath.GetNewPath(FILE_WORLD_MOVEPATH_DOPPEL67));
; 179  : 	TMonsterAIElement::s_MonsterAIMovePath[MAP_INDEX_DOUBLEGOER3].LoadData(gDirPath.GetNewPath(FILE_WORLD_MOVEPATH_DOPPEL68));
; 180  : 	TMonsterAIElement::s_MonsterAIMovePath[MAP_INDEX_DOUBLEGOER4].LoadData(gDirPath.GetNewPath(FILE_WORLD_MOVEPATH_DOPPEL69));
; 181  : 	return FALSE;
; 182  : }

  00359	8b 4d f4	 mov	 ecx, DWORD PTR __$EHRec$[ebp+4]
  0035c	64 89 0d 00 00
	00 00		 mov	 DWORD PTR fs:0, ecx
  00363	59		 pop	 ecx
  00364	5f		 pop	 edi
  00365	5e		 pop	 esi
  00366	5b		 pop	 ebx
  00367	8b e5		 mov	 esp, ebp
  00369	5d		 pop	 ebp
  0036a	c3		 ret	 0
_TEXT	ENDS
;	COMDAT text$x
text$x	SEGMENT
__ehhandler$?LoadData@TMonsterAIElement@@SAHPAD@Z:
  00000	8b 54 24 08	 mov	 edx, DWORD PTR [esp+8]
  00004	8d 42 0c	 lea	 eax, DWORD PTR [edx+12]
  00007	8b 4a a0	 mov	 ecx, DWORD PTR [edx-96]
  0000a	33 c8		 xor	 ecx, eax
  0000c	e8 00 00 00 00	 call	 @__security_check_cookie@4
  00011	b8 00 00 00 00	 mov	 eax, OFFSET __ehfuncinfo$?LoadData@TMonsterAIElement@@SAHPAD@Z
  00016	e9 00 00 00 00	 jmp	 ___CxxFrameHandler3
text$x	ENDS
?LoadData@TMonsterAIElement@@SAHPAD@Z ENDP		; TMonsterAIElement::LoadData
; Function compile flags: /Ogtp
; File c:\users\michel\desktop\source\gameserver\source\tmonsteraielement.cpp
;	COMDAT ?Reset@TMonsterAIElement@@QAEXXZ
_TEXT	SEGMENT
?Reset@TMonsterAIElement@@QAEXXZ PROC			; TMonsterAIElement::Reset, COMDAT
; _this$ = ecx

; 49   : 	this->m_iElementClass = -1;
; 50   : 	this->m_iElementType = -1;
; 51   : 	this->m_iElementNumber = -1;
; 52   : 	this->m_iSuccessRate = -1;
; 53   : 	this->m_iDelayTime = -1;
; 54   : 	this->m_iTargetType = -1;
; 55   : 	this->m_iX = -1;
; 56   : 	this->m_iY = -1;
; 57   : 	memset(this->m_szElementName, 0, sizeof(this->m_szElementName));

  00000	6a 32		 push	 50			; 00000032H
  00002	8d 41 04	 lea	 eax, DWORD PTR [ecx+4]
  00005	c7 41 3c ff ff
	ff ff		 mov	 DWORD PTR [ecx+60], -1
  0000c	6a 00		 push	 0
  0000e	50		 push	 eax
  0000f	c7 41 40 ff ff
	ff ff		 mov	 DWORD PTR [ecx+64], -1
  00016	c7 41 38 ff ff
	ff ff		 mov	 DWORD PTR [ecx+56], -1
  0001d	c7 41 44 ff ff
	ff ff		 mov	 DWORD PTR [ecx+68], -1
  00024	c7 41 48 ff ff
	ff ff		 mov	 DWORD PTR [ecx+72], -1
  0002b	c7 41 4c ff ff
	ff ff		 mov	 DWORD PTR [ecx+76], -1
  00032	c7 41 50 ff ff
	ff ff		 mov	 DWORD PTR [ecx+80], -1
  00039	c7 41 54 ff ff
	ff ff		 mov	 DWORD PTR [ecx+84], -1
  00040	e8 00 00 00 00	 call	 _memset
  00045	83 c4 0c	 add	 esp, 12			; 0000000cH

; 58   : }

  00048	c3		 ret	 0
?Reset@TMonsterAIElement@@QAEXXZ ENDP			; TMonsterAIElement::Reset
_TEXT	ENDS
; Function compile flags: /Ogtp
; File c:\users\michel\desktop\source\gameserver\source\tmonsteraielement.cpp
;	COMDAT ?ApplyElementAIChange@TMonsterAIElement@@QAEHHHPAVTMonsterAIState@@@Z
_TEXT	SEGMENT
_iIndex$ = 8						; size = 4
_iTargetIndex$ = 12					; size = 4
_pAIState$ = 16						; size = 4
?ApplyElementAIChange@TMonsterAIElement@@QAEHHHPAVTMonsterAIState@@@Z PROC ; TMonsterAIElement::ApplyElementAIChange, COMDAT
; _this$ = ecx

; 851  : {

  00000	56		 push	 esi
  00001	8b f1		 mov	 esi, ecx

; 852  : 	TMonsterAIGroup::ChangeAIOrder(this->m_iTargetType, this->m_iX);

  00003	ff 76 50	 push	 DWORD PTR [esi+80]
  00006	ff 76 4c	 push	 DWORD PTR [esi+76]
  00009	e8 00 00 00 00	 call	 ?ChangeAIOrder@TMonsterAIGroup@@SAXHH@Z ; TMonsterAIGroup::ChangeAIOrder

; 853  : 	LogAddC(2, "[AI Change] Group %d AI Order %d",

  0000e	ff 76 50	 push	 DWORD PTR [esi+80]
  00011	ff 76 4c	 push	 DWORD PTR [esi+76]
  00014	68 00 00 00 00	 push	 OFFSET ??_C@_0CB@HBIKMLEF@?$FLAI?5Change?$FN?5Group?5?$CFd?5AI?5Order?5?$CFd@
  00019	6a 02		 push	 2
  0001b	ff 15 00 00 00
	00		 call	 DWORD PTR ?LogAddC@@3P6AXEPADZZA ; LogAddC
  00021	83 c4 18	 add	 esp, 24			; 00000018H

; 854  : 		this->m_iTargetType, this->m_iX);
; 855  : 
; 856  : 	return FALSE;

  00024	33 c0		 xor	 eax, eax
  00026	5e		 pop	 esi

; 857  : }

  00027	c2 0c 00	 ret	 12			; 0000000cH
?ApplyElementAIChange@TMonsterAIElement@@QAEHHHPAVTMonsterAIState@@@Z ENDP ; TMonsterAIElement::ApplyElementAIChange
_TEXT	ENDS
; Function compile flags: /Ogtp
; File c:\users\michel\desktop\source\gameserver\source\tmonsteraielement.cpp
;	COMDAT ?ApplyElementSkillAttack@TMonsterAIElement@@QAEHHHPAVTMonsterAIState@@@Z
_TEXT	SEGMENT
_this$1$ = -4						; size = 4
_iRate3$1$ = 8						; size = 4
_iIndex$ = 8						; size = 4
_iTargetIndex$ = 12					; size = 4
_pAIState$ = 16						; size = 4
?ApplyElementSkillAttack@TMonsterAIElement@@QAEHHHPAVTMonsterAIState@@@Z PROC ; TMonsterAIElement::ApplyElementSkillAttack, COMDAT
; _this$ = ecx

; 789  : {

  00000	55		 push	 ebp
  00001	8b ec		 mov	 ebp, esp
  00003	51		 push	 ecx
  00004	53		 push	 ebx
  00005	56		 push	 esi

; 790  : 	LPOBJ lpObj = &gObj[iIndex];

  00006	69 75 08 40 27
	00 00		 imul	 esi, DWORD PTR _iIndex$[ebp], 10048
  0000d	8b d9		 mov	 ebx, ecx
  0000f	89 5d fc	 mov	 DWORD PTR _this$1$[ebp], ebx
  00012	03 35 00 00 00
	00		 add	 esi, DWORD PTR ?gObj@@3PAUOBJECTSTRUCT@@A ; gObj

; 791  : 
; 792  : 	if ( TMonsterSkillManager::CheckMonsterSkill(lpObj->Class) )

  00018	0f b7 86 90 00
	00 00		 movzx	 eax, WORD PTR [esi+144]
  0001f	50		 push	 eax
  00020	e8 00 00 00 00	 call	 ?CheckMonsterSkill@TMonsterSkillManager@@SAHH@Z ; TMonsterSkillManager::CheckMonsterSkill
  00025	83 c4 04	 add	 esp, 4
  00028	85 c0		 test	 eax, eax
  0002a	0f 84 0b 01 00
	00		 je	 $LN2@ApplyEleme

; 793  : 	{
; 794  : 		BOOL bEnableAttack = TRUE;
; 795  : 
; 796  : 		if ( lpObj->TargetNumber < 0 )

  00030	0f b7 86 38 06
	00 00		 movzx	 eax, WORD PTR [esi+1592]
  00037	57		 push	 edi
  00038	bf 01 00 00 00	 mov	 edi, 1
  0003d	66 85 c0	 test	 ax, ax
  00040	0f 88 d6 00 00
	00		 js	 $LN15@ApplyEleme

; 797  : 		{
; 798  : 			lpObj->TargetNumber = -1;
; 799  : 			lpObj->m_ActState.Emotion = 0;
; 800  : 			lpObj->m_ActState.Attack = 0;
; 801  : 			lpObj->m_ActState.Move = 0;
; 802  : 			lpObj->NextActionTime = 1000;
; 803  : 
; 804  : 			return FALSE;
; 805  : 		}
; 806  : 
; 807  : 		if ( !gObj[lpObj->TargetNumber].Live || gObj[lpObj->TargetNumber].Teleport )

  00046	98		 cwde
  00047	69 d0 40 27 00
	00		 imul	 edx, eax, 10048
  0004d	03 15 00 00 00
	00		 add	 edx, DWORD PTR ?gObj@@3PAUOBJECTSTRUCT@@A ; gObj
  00053	80 7a 51 00	 cmp	 BYTE PTR [edx+81], 0
  00057	74 09		 je	 SHORT $LN5@ApplyEleme
  00059	80 ba 88 05 00
	00 00		 cmp	 BYTE PTR [edx+1416], 0
  00060	74 02		 je	 SHORT $LN4@ApplyEleme
$LN5@ApplyEleme:

; 808  : 			bEnableAttack = FALSE;

  00062	33 ff		 xor	 edi, edi
$LN4@ApplyEleme:

; 809  : 
; 810  : 		if ( gObj[lpObj->TargetNumber].Connected <= PLAYER_LOGGED ||

  00064	83 7a 04 02	 cmp	 DWORD PTR [edx+4], 2
  00068	0f 8e ae 00 00
	00		 jle	 $LN15@ApplyEleme
  0006e	80 7a 0c ff	 cmp	 BYTE PTR [edx+12], -1
  00072	0f 85 a4 00 00
	00		 jne	 $LN15@ApplyEleme

; 811  : 			 gObj[lpObj->TargetNumber].CloseCount != -1 )
; 812  : 		{
; 813  : 			bEnableAttack = FALSE;
; 814  : 		}
; 815  : 
; 816  : 		if ( !bEnableAttack )

  00078	85 ff		 test	 edi, edi
  0007a	0f 84 9c 00 00
	00		 je	 $LN15@ApplyEleme

; 823  : 
; 824  : 			return FALSE;
; 825  : 		}
; 826  : 
; 827  : 		LPOBJ lpTargetObj = &gObj[lpObj->TargetNumber];
; 828  : 		lpObj->Dir = GetPathPacketDirPos(lpTargetObj->X - lpObj->X, lpTargetObj->Y - lpObj->Y);

  00080	0f b6 86 21 01
	00 00		 movzx	 eax, BYTE PTR [esi+289]
  00087	0f b6 8a 21 01
	00 00		 movzx	 ecx, BYTE PTR [edx+289]
  0008e	2b c8		 sub	 ecx, eax
  00090	0f b6 86 20 01
	00 00		 movzx	 eax, BYTE PTR [esi+288]
  00097	51		 push	 ecx
  00098	0f b6 8a 20 01
	00 00		 movzx	 ecx, BYTE PTR [edx+288]
  0009f	2b c8		 sub	 ecx, eax
  000a1	51		 push	 ecx
  000a2	e8 00 00 00 00	 call	 ?GetPathPacketDirPos@@YAEHH@Z ; GetPathPacketDirPos
  000a7	88 86 22 01 00
	00		 mov	 BYTE PTR [esi+290], al
  000ad	83 c4 08	 add	 esp, 8

; 829  : 		int iRate1 = this->m_iTargetType;
; 830  : 		int iRate2 = this->m_iX;
; 831  : 		int iRate3 = this->m_iY;

  000b0	8b 45 fc	 mov	 eax, DWORD PTR _this$1$[ebp]
  000b3	8b 7b 4c	 mov	 edi, DWORD PTR [ebx+76]
  000b6	8b 5b 50	 mov	 ebx, DWORD PTR [ebx+80]
  000b9	8b 40 54	 mov	 eax, DWORD PTR [eax+84]
  000bc	89 45 08	 mov	 DWORD PTR _iRate3$1$[ebp], eax

; 832  : 		int iRandom = rand() % 100;

  000bf	e8 00 00 00 00	 call	 _rand
  000c4	99		 cdq
  000c5	b9 64 00 00 00	 mov	 ecx, 100		; 00000064H
  000ca	f7 f9		 idiv	 ecx

; 833  : 
; 834  : 		if ( iRandom < iRate1 )

  000cc	3b d7		 cmp	 edx, edi
  000ce	7d 08		 jge	 SHORT $LN9@ApplyEleme

; 835  : 			TMonsterSkillManager::UseMonsterSkill(lpObj->m_Index, lpObj->TargetNumber, 0, -1, 0);

  000d0	6a 00		 push	 0
  000d2	6a ff		 push	 -1
  000d4	6a 00		 push	 0
  000d6	eb 20		 jmp	 SHORT $LN17@ApplyEleme
$LN9@ApplyEleme:

; 836  : 		else if ( iRandom < (iRate1+iRate2) )

  000d8	8d 04 3b	 lea	 eax, DWORD PTR [ebx+edi]
  000db	3b d0		 cmp	 edx, eax
  000dd	7d 08		 jge	 SHORT $LN11@ApplyEleme

; 837  : 			TMonsterSkillManager::UseMonsterSkill(lpObj->m_Index, lpObj->TargetNumber, 1, -1, 0);

  000df	6a 00		 push	 0
  000e1	6a ff		 push	 -1
  000e3	6a 01		 push	 1
  000e5	eb 11		 jmp	 SHORT $LN17@ApplyEleme
$LN11@ApplyEleme:

; 838  : 		else if ( iRandom < (iRate1+iRate2+iRate3) )

  000e7	8b 45 08	 mov	 eax, DWORD PTR _iRate3$1$[ebp]
  000ea	03 c3		 add	 eax, ebx
  000ec	03 c7		 add	 eax, edi
  000ee	3b d0		 cmp	 edx, eax
  000f0	7d 18		 jge	 SHORT $LN13@ApplyEleme

; 839  : 			TMonsterSkillManager::UseMonsterSkill(lpObj->m_Index, lpObj->TargetNumber, 2, -1, 0);

  000f2	6a 00		 push	 0
  000f4	6a ff		 push	 -1
  000f6	6a 02		 push	 2
$LN17@ApplyEleme:
  000f8	0f bf 86 38 06
	00 00		 movsx	 eax, WORD PTR [esi+1592]
  000ff	50		 push	 eax
  00100	ff 36		 push	 DWORD PTR [esi]
  00102	e8 00 00 00 00	 call	 ?UseMonsterSkill@TMonsterSkillManager@@SAXHHHHPAVCMagicInf@@@Z ; TMonsterSkillManager::UseMonsterSkill
  00107	83 c4 14	 add	 esp, 20			; 00000014H
$LN13@ApplyEleme:

; 840  : 
; 841  : 		lpObj->m_ActState.Attack = 0;

  0010a	83 a6 c8 01 00
	00 fd		 and	 DWORD PTR [esi+456], -3	; fffffffdH

; 842  : 		return FALSE;

  00111	33 c0		 xor	 eax, eax
  00113	5f		 pop	 edi
  00114	5e		 pop	 esi
  00115	5b		 pop	 ebx

; 843  : 	}
; 844  : 
; 845  : 	return FALSE;
; 846  : }

  00116	8b e5		 mov	 esp, ebp
  00118	5d		 pop	 ebp
  00119	c2 0c 00	 ret	 12			; 0000000cH
$LN15@ApplyEleme:

; 817  : 		{
; 818  : 			lpObj->TargetNumber = -1;

  0011c	83 c8 ff	 or	 eax, -1

; 819  : 			lpObj->m_ActState.Emotion = 0;
; 820  : 			lpObj->m_ActState.Attack = 0;
; 821  : 			lpObj->m_ActState.Move = 0;
; 822  : 			lpObj->NextActionTime = 1000;

  0011f	c7 86 a0 05 00
	00 e8 03 00 00	 mov	 DWORD PTR [esi+1440], 1000 ; 000003e8H
  00129	81 a6 c8 01 00
	00 09 ff ff ff	 and	 DWORD PTR [esi+456], -247 ; ffffff09H
  00133	66 89 86 38 06
	00 00		 mov	 WORD PTR [esi+1592], ax
  0013a	5f		 pop	 edi
$LN2@ApplyEleme:

; 842  : 		return FALSE;

  0013b	5e		 pop	 esi
  0013c	33 c0		 xor	 eax, eax
  0013e	5b		 pop	 ebx

; 843  : 	}
; 844  : 
; 845  : 	return FALSE;
; 846  : }

  0013f	8b e5		 mov	 esp, ebp
  00141	5d		 pop	 ebp
  00142	c2 0c 00	 ret	 12			; 0000000cH
?ApplyElementSkillAttack@TMonsterAIElement@@QAEHHHPAVTMonsterAIState@@@Z ENDP ; TMonsterAIElement::ApplyElementSkillAttack
_TEXT	ENDS
; Function compile flags: /Ogtp
; File c:\users\michel\desktop\source\gameserver\source\tmonsteraielement.cpp
;	COMDAT ?ApplyElementNightmareWarp@TMonsterAIElement@@QAEHHHPAVTMonsterAIState@@@Z
_TEXT	SEGMENT
_x$ = -24						; size = 1
_y$ = -20						; size = 1
_pAttack$ = -16						; size = 9
__$ArrayPad$ = -4					; size = 4
_iIndex$ = 8						; size = 4
_iTargetIndex$ = 12					; size = 4
_pAIState$ = 16						; size = 4
?ApplyElementNightmareWarp@TMonsterAIElement@@QAEHHHPAVTMonsterAIState@@@Z PROC ; TMonsterAIElement::ApplyElementNightmareWarp, COMDAT
; _this$ = ecx

; 754  : {

  00000	55		 push	 ebp
  00001	8b ec		 mov	 ebp, esp
  00003	83 ec 18	 sub	 esp, 24			; 00000018H
  00006	a1 00 00 00 00	 mov	 eax, DWORD PTR ___security_cookie
  0000b	33 c5		 xor	 eax, ebp
  0000d	89 45 fc	 mov	 DWORD PTR __$ArrayPad$[ebp], eax

; 755  : 	LPOBJ lpObj = &gObj[iIndex];
; 756  : 
; 757  : 	BYTE x = this->m_iX;

  00010	8a 41 50	 mov	 al, BYTE PTR [ecx+80]
  00013	53		 push	 ebx
  00014	8b 5d 08	 mov	 ebx, DWORD PTR _iIndex$[ebp]
  00017	56		 push	 esi
  00018	88 45 e8	 mov	 BYTE PTR _x$[ebp], al

; 758  : 	BYTE y = this->m_iY;

  0001b	8a 41 54	 mov	 al, BYTE PTR [ecx+84]
  0001e	69 f3 40 27 00
	00		 imul	 esi, ebx, 10048

; 759  : 	PMSG_MAGICATTACK_RESULT pAttack;
; 760  : 
; 761  : 	PHeadSetBE((unsigned char *)&pAttack,0x19,sizeof(pAttack));

  00024	6a 09		 push	 9
  00026	88 45 ec	 mov	 BYTE PTR _y$[ebp], al
  00029	8d 45 f0	 lea	 eax, DWORD PTR _pAttack$[ebp]
  0002c	6a 19		 push	 25			; 00000019H
  0002e	50		 push	 eax
  0002f	03 35 00 00 00
	00		 add	 esi, DWORD PTR ?gObj@@3PAUOBJECTSTRUCT@@A ; gObj
  00035	e8 00 00 00 00	 call	 ?PHeadSetBE@@YAXPAEEH@Z	; PHeadSetBE

; 762  : 
; 763  : 	pAttack.MagicNumberH = SET_NUMBERH(AT_SKILL_TELEPORT);
; 764  : 	pAttack.MagicNumberL = SET_NUMBERL(AT_SKILL_TELEPORT);
; 765  : 
; 766  : 	pAttack.SourceNumberH = SET_NUMBERH(iIndex);

  0003a	8b c3		 mov	 eax, ebx
  0003c	66 c7 45 f5 00
	06		 mov	 WORD PTR _pAttack$[ebp+5], 1536 ; 00000600H
  00042	c1 e8 08	 shr	 eax, 8
  00045	83 c4 0c	 add	 esp, 12			; 0000000cH
  00048	88 45 f3	 mov	 BYTE PTR _pAttack$[ebp+3], al

; 767  : 	pAttack.SourceNumberL = SET_NUMBERL(iIndex);

  0004b	88 5d f4	 mov	 BYTE PTR _pAttack$[ebp+4], bl

; 768  : 	pAttack.TargetNumberH = SET_NUMBERH(iIndex);

  0004e	88 45 f7	 mov	 BYTE PTR _pAttack$[ebp+7], al

; 769  : 	pAttack.TargetNumberL = SET_NUMBERL(iIndex);

  00051	88 5d f8	 mov	 BYTE PTR _pAttack$[ebp+8], bl

; 770  : 
; 771  : 	if ( lpObj->Type == OBJ_USER )

  00054	80 7e 50 01	 cmp	 BYTE PTR [esi+80], 1
  00058	75 12		 jne	 SHORT $LN2@ApplyEleme

; 772  : 		DataSend(iIndex,(unsigned char *)&pAttack,pAttack.h.size);

  0005a	0f b6 45 f1	 movzx	 eax, BYTE PTR _pAttack$[ebp+1]
  0005e	50		 push	 eax
  0005f	8d 45 f0	 lea	 eax, DWORD PTR _pAttack$[ebp]
  00062	50		 push	 eax
  00063	53		 push	 ebx
  00064	e8 00 00 00 00	 call	 ?DataSend@@YAHHPAEK@Z	; DataSend
  00069	83 c4 0c	 add	 esp, 12			; 0000000cH
$LN2@ApplyEleme:

; 773  : 
; 774  : 	MsgSendV2(lpObj,(unsigned char*)&pAttack,pAttack.h.size);

  0006c	0f b6 45 f1	 movzx	 eax, BYTE PTR _pAttack$[ebp+1]
  00070	50		 push	 eax
  00071	8d 45 f0	 lea	 eax, DWORD PTR _pAttack$[ebp]
  00074	50		 push	 eax
  00075	56		 push	 esi
  00076	e8 00 00 00 00	 call	 ?MsgSendV2@@YAXPAUOBJECTSTRUCT@@PAEH@Z ; MsgSendV2

; 775  : 
; 776  : 	LogAddC(2, "[%s] Warp [%d,%d] -> [%d,%d]",

  0007b	0f b6 45 ec	 movzx	 eax, BYTE PTR _y$[ebp]
  0007f	50		 push	 eax
  00080	0f b6 45 e8	 movzx	 eax, BYTE PTR _x$[ebp]
  00084	50		 push	 eax
  00085	0f b6 86 21 01
	00 00		 movzx	 eax, BYTE PTR [esi+289]
  0008c	50		 push	 eax
  0008d	0f b6 86 20 01
	00 00		 movzx	 eax, BYTE PTR [esi+288]
  00094	50		 push	 eax
  00095	8d 46 5d	 lea	 eax, DWORD PTR [esi+93]
  00098	50		 push	 eax
  00099	68 00 00 00 00	 push	 OFFSET ??_C@_0BN@GBOPBGFB@?$FL?$CFs?$FN?5Warp?5?$FL?$CFd?0?$CFd?$FN?5?9?$DO?5?$FL?$CFd?0?$CFd?$FN?$AA@
  0009e	6a 02		 push	 2
  000a0	ff 15 00 00 00
	00		 call	 DWORD PTR ?LogAddC@@3P6AXEPADZZA ; LogAddC

; 777  : 		lpObj->Name, lpObj->X, lpObj->Y, x, y);
; 778  : 
; 779  : 	gObjTeleportMagicUse(iIndex,x,y);

  000a6	ff 75 ec	 push	 DWORD PTR _y$[ebp]
  000a9	ff 75 e8	 push	 DWORD PTR _x$[ebp]
  000ac	53		 push	 ebx
  000ad	e8 00 00 00 00	 call	 ?gObjTeleportMagicUse@@YAXHEE@Z ; gObjTeleportMagicUse

; 780  : 	lpObj->TargetNumber = -1;
; 781  : 
; 782  : 	return FALSE;
; 783  : }

  000b2	8b 4d fc	 mov	 ecx, DWORD PTR __$ArrayPad$[ebp]
  000b5	83 c4 34	 add	 esp, 52			; 00000034H
  000b8	83 c8 ff	 or	 eax, -1
  000bb	33 cd		 xor	 ecx, ebp
  000bd	66 89 86 38 06
	00 00		 mov	 WORD PTR [esi+1592], ax
  000c4	33 c0		 xor	 eax, eax
  000c6	5e		 pop	 esi
  000c7	5b		 pop	 ebx
  000c8	e8 00 00 00 00	 call	 @__security_check_cookie@4
  000cd	8b e5		 mov	 esp, ebp
  000cf	5d		 pop	 ebp
  000d0	c2 0c 00	 ret	 12			; 0000000cH
?ApplyElementNightmareWarp@TMonsterAIElement@@QAEHHHPAVTMonsterAIState@@@Z ENDP ; TMonsterAIElement::ApplyElementNightmareWarp
_TEXT	ENDS
; Function compile flags: /Ogtp
; File c:\users\michel\desktop\source\gameserver\source\tmonsteraielement.cpp
;	COMDAT ?ApplyElementNightmareSummon@TMonsterAIElement@@QAEHHHPAVTMonsterAIState@@@Z
_TEXT	SEGMENT
_iIndex$ = 8						; size = 4
_iTargetIndex$ = 12					; size = 4
_pAIState$ = 16						; size = 4
?ApplyElementNightmareSummon@TMonsterAIElement@@QAEHHHPAVTMonsterAIState@@@Z PROC ; TMonsterAIElement::ApplyElementNightmareSummon, COMDAT
; _this$ = ecx

; 734  : {

  00000	55		 push	 ebp
  00001	8b ec		 mov	 ebp, esp

; 735  : 	LPOBJ lpObj = &gObj[iIndex];

  00003	a1 00 00 00 00	 mov	 eax, DWORD PTR ?gObj@@3PAUOBJECTSTRUCT@@A ; gObj
  00008	56		 push	 esi
  00009	69 75 08 40 27
	00 00		 imul	 esi, DWORD PTR _iIndex$[ebp], 10048
  00010	57		 push	 edi

; 736  : 
; 737  : 	if ( lpObj->TargetNumber == -1 )
; 738  : 		iTargetIndex = lpObj->m_Index;
; 739  : 
; 740  : 	iTargetIndex = lpObj->TargetNumber;
; 741  : 	TMonsterSkillUnit * lpSkillUnit = TMonsterSkillManager::FindMonsterSkillUnit(lpObj->m_Index, 30); 

  00011	6a 1e		 push	 30			; 0000001eH
  00013	ff 34 06	 push	 DWORD PTR [esi+eax]
  00016	0f bf bc 06 38
	06 00 00	 movsx	 edi, WORD PTR [esi+eax+1592]
  0001e	e8 00 00 00 00	 call	 ?FindMonsterSkillUnit@TMonsterSkillManager@@SAPAVTMonsterSkillUnit@@HH@Z ; TMonsterSkillManager::FindMonsterSkillUnit
  00023	83 c4 08	 add	 esp, 8

; 742  : 
; 743  : 	if ( lpSkillUnit )

  00026	85 c0		 test	 eax, eax
  00028	74 2a		 je	 SHORT $LN5@ApplyEleme

; 744  : 	{
; 745  : 		GCUseMonsterSkillSend(&gObj[iIndex], &gObj[iTargetIndex], lpSkillUnit->m_iUnitNumber);

  0002a	ff 70 18	 push	 DWORD PTR [eax+24]
  0002d	8b 0d 00 00 00
	00		 mov	 ecx, DWORD PTR ?gObj@@3PAUOBJECTSTRUCT@@A ; gObj
  00033	69 c7 40 27 00
	00		 imul	 eax, edi, 10048
  00039	03 c1		 add	 eax, ecx
  0003b	50		 push	 eax
  0003c	8d 04 0e	 lea	 eax, DWORD PTR [esi+ecx]
  0003f	50		 push	 eax
  00040	e8 00 00 00 00	 call	 ?GCUseMonsterSkillSend@@YAXPAUOBJECTSTRUCT@@0H@Z ; GCUseMonsterSkillSend
  00045	83 c4 0c	 add	 esp, 12			; 0000000cH

; 746  : 		int iRegenMonster = g_KanturuMonsterMng.SetKanturuMonster(6);

  00048	b9 00 00 00 00	 mov	 ecx, OFFSET ?g_KanturuMonsterMng@@3VCKanturuMonsterMng@@A ; g_KanturuMonsterMng
  0004d	6a 06		 push	 6
  0004f	e8 00 00 00 00	 call	 ?SetKanturuMonster@CKanturuMonsterMng@@QAEHH@Z ; CKanturuMonsterMng::SetKanturuMonster
$LN5@ApplyEleme:

; 747  : 	}
; 748  : 
; 749  : 	return FALSE;

  00054	5f		 pop	 edi
  00055	33 c0		 xor	 eax, eax
  00057	5e		 pop	 esi

; 750  : }

  00058	5d		 pop	 ebp
  00059	c2 0c 00	 ret	 12			; 0000000cH
?ApplyElementNightmareSummon@TMonsterAIElement@@QAEHHHPAVTMonsterAIState@@@Z ENDP ; TMonsterAIElement::ApplyElementNightmareSummon
_TEXT	ENDS
; Function compile flags: /Ogtp
; File c:\users\michel\desktop\source\gameserver\source\tmonsteraielement.cpp
;	COMDAT ?ApplyElementSpecialImmune@TMonsterAIElement@@QAEHHHPAVTMonsterAIState@@@Z
_TEXT	SEGMENT
_iIndex$ = 8						; size = 4
_iTargetIndex$ = 12					; size = 4
_pAIState$ = 16						; size = 4
?ApplyElementSpecialImmune@TMonsterAIElement@@QAEHHHPAVTMonsterAIState@@@Z PROC ; TMonsterAIElement::ApplyElementSpecialImmune, COMDAT
; _this$ = ecx

; 718  : {

  00000	55		 push	 ebp
  00001	8b ec		 mov	 ebp, esp
  00003	56		 push	 esi
  00004	57		 push	 edi

; 719  : 	LPOBJ lpObj = &gObj[iIndex];

  00005	69 7d 08 40 27
	00 00		 imul	 edi, DWORD PTR _iIndex$[ebp], 10048
  0000c	8b f1		 mov	 esi, ecx
  0000e	03 3d 00 00 00
	00		 add	 edi, DWORD PTR ?gObj@@3PAUOBJECTSTRUCT@@A ; gObj

; 720  : 	
; 721  : 	if ( this->m_iX < 1 )

  00014	83 7e 50 01	 cmp	 DWORD PTR [esi+80], 1
  00018	7d 07		 jge	 SHORT $LN2@ApplyEleme

; 722  : 		this->m_iX = 10;

  0001a	c7 46 50 0a 00
	00 00		 mov	 DWORD PTR [esi+80], 10	; 0000000aH
$LN2@ApplyEleme:

; 723  : 
; 724  : 	if ( this->m_iY < 1 )

  00021	83 7e 54 01	 cmp	 DWORD PTR [esi+84], 1
  00025	7d 07		 jge	 SHORT $LN3@ApplyEleme

; 725  : 		this->m_iY = 10;

  00027	c7 46 54 0a 00
	00 00		 mov	 DWORD PTR [esi+84], 10	; 0000000aH
$LN3@ApplyEleme:

; 726  : 
; 727  : 	gObjAddBuffEffect(lpObj,BUFF_MONSTERMAGIC_RESIST,0,0,0,0,this->m_iX);

  0002e	ff 76 50	 push	 DWORD PTR [esi+80]
  00031	6a 00		 push	 0
  00033	6a 00		 push	 0
  00035	6a 00		 push	 0
  00037	6a 00		 push	 0
  00039	6a 3f		 push	 63			; 0000003fH
  0003b	57		 push	 edi
  0003c	e8 00 00 00 00	 call	 ?gObjAddBuffEffect@@YA_NPAUOBJECTSTRUCT@@HEHEHH@Z ; gObjAddBuffEffect

; 728  : 	gObjAddBuffEffect(lpObj,BUFF_MONCHEMISTRY_RESIST,0,0,0,0,this->m_iY);

  00041	ff 76 54	 push	 DWORD PTR [esi+84]
  00044	6a 00		 push	 0
  00046	6a 00		 push	 0
  00048	6a 00		 push	 0
  0004a	6a 00		 push	 0
  0004c	6a 40		 push	 64			; 00000040H
  0004e	57		 push	 edi
  0004f	e8 00 00 00 00	 call	 ?gObjAddBuffEffect@@YA_NPAUOBJECTSTRUCT@@HEHEHH@Z ; gObjAddBuffEffect
  00054	83 c4 38	 add	 esp, 56			; 00000038H

; 729  : 	return FALSE;

  00057	33 c0		 xor	 eax, eax
  00059	5f		 pop	 edi
  0005a	5e		 pop	 esi

; 730  : }

  0005b	5d		 pop	 ebp
  0005c	c2 0c 00	 ret	 12			; 0000000cH
?ApplyElementSpecialImmune@TMonsterAIElement@@QAEHHHPAVTMonsterAIState@@@Z ENDP ; TMonsterAIElement::ApplyElementSpecialImmune
_TEXT	ENDS
; Function compile flags: /Ogtp
; File c:\users\michel\desktop\source\gameserver\source\tmonsteraielement.cpp
;	COMDAT ?ApplyElementSpecialSommon@TMonsterAIElement@@QAEHHHPAVTMonsterAIState@@@Z
_TEXT	SEGMENT
_iIndex$ = 8						; size = 4
_iTargetIndex$ = 12					; size = 4
_pAIState$ = 16						; size = 4
?ApplyElementSpecialSommon@TMonsterAIElement@@QAEHHHPAVTMonsterAIState@@@Z PROC ; TMonsterAIElement::ApplyElementSpecialSommon, COMDAT
; _this$ = ecx

; 693  : {

  00000	55		 push	 ebp
  00001	8b ec		 mov	 ebp, esp
  00003	53		 push	 ebx

; 694  : 	LPOBJ lpObj = &gObj[iIndex];

  00004	8b 5d 08	 mov	 ebx, DWORD PTR _iIndex$[ebp]
  00007	56		 push	 esi
  00008	57		 push	 edi
  00009	69 fb 40 27 00
	00		 imul	 edi, ebx, 10048

; 695  : 	UTIL.SendCrywolfChattingMsg(iIndex, "Element-");

  0000f	68 00 00 00 00	 push	 OFFSET ??_C@_0BB@BOAFABMO@Element?9?F?$KP?$LM?v?$LM?R?H?$KP?$AA@
  00014	53		 push	 ebx
  00015	68 00 00 00 00	 push	 OFFSET ?UTIL@@3VCCrywolfUtil@@A
  0001a	03 3d 00 00 00
	00		 add	 edi, DWORD PTR ?gObj@@3PAUOBJECTSTRUCT@@A ; gObj
  00020	e8 00 00 00 00	 call	 ?SendCrywolfChattingMsg@CCrywolfUtil@@QAAXHPADZZ ; CCrywolfUtil::SendCrywolfChattingMsg

; 696  : 	TMonsterAIGroupMember * pMemb = TMonsterAIGroup::FindGroupMemberToSommon(lpObj->m_Index, lpObj->m_iGroupNumber, lpObj->m_iGroupMemberGuid);

  00025	ff b7 e4 20 00
	00		 push	 DWORD PTR [edi+8420]
  0002b	ff b7 dc 20 00
	00		 push	 DWORD PTR [edi+8412]
  00031	ff 37		 push	 DWORD PTR [edi]
  00033	e8 00 00 00 00	 call	 ?FindGroupMemberToSommon@TMonsterAIGroup@@SAPAVTMonsterAIGroupMember@@HHH@Z ; TMonsterAIGroup::FindGroupMemberToSommon
  00038	83 c4 18	 add	 esp, 24			; 00000018H

; 697  : 
; 698  : 	if ( pMemb )

  0003b	85 c0		 test	 eax, eax
  0003d	74 2d		 je	 SHORT $LN4@ApplyEleme

; 699  : 	{
; 700  : 		LPOBJ lpTargetObj = &gObj[pMemb->m_iObjIndex];

  0003f	69 70 3c 40 27
	00 00		 imul	 esi, DWORD PTR [eax+60], 10048
  00046	03 35 00 00 00
	00		 add	 esi, DWORD PTR ?gObj@@3PAUOBJECTSTRUCT@@A ; gObj

; 701  : 
; 702  : 		if ( lpTargetObj->Live != 0 )

  0004c	80 7e 51 00	 cmp	 BYTE PTR [esi+81], 0
  00050	75 1a		 jne	 SHORT $LN4@ApplyEleme

; 703  : 			return FALSE;
; 704  : 
; 705  : 		TMonsterSkillUnit * lpSkillUnit = TMonsterSkillManager::FindMonsterSkillUnit(lpObj->m_Index, 30);

  00052	6a 1e		 push	 30			; 0000001eH
  00054	ff 37		 push	 DWORD PTR [edi]
  00056	e8 00 00 00 00	 call	 ?FindMonsterSkillUnit@TMonsterSkillManager@@SAPAVTMonsterSkillUnit@@HH@Z ; TMonsterSkillManager::FindMonsterSkillUnit
  0005b	83 c4 08	 add	 esp, 8

; 706  : 
; 707  : 		if ( lpSkillUnit )

  0005e	85 c0		 test	 eax, eax
  00060	74 0a		 je	 SHORT $LN4@ApplyEleme

; 708  : 		{
; 709  : 			lpSkillUnit->RunSkill(iIndex, lpTargetObj->m_Index);

  00062	ff 36		 push	 DWORD PTR [esi]
  00064	8b c8		 mov	 ecx, eax
  00066	53		 push	 ebx
  00067	e8 00 00 00 00	 call	 ?RunSkill@TMonsterSkillUnit@@QAEXHH@Z ; TMonsterSkillUnit::RunSkill
$LN4@ApplyEleme:

; 710  : 		}
; 711  : 	}
; 712  : 
; 713  : 	return FALSE;

  0006c	5f		 pop	 edi
  0006d	5e		 pop	 esi
  0006e	33 c0		 xor	 eax, eax
  00070	5b		 pop	 ebx

; 714  : }

  00071	5d		 pop	 ebp
  00072	c2 0c 00	 ret	 12			; 0000000cH
?ApplyElementSpecialSommon@TMonsterAIElement@@QAEHHHPAVTMonsterAIState@@@Z ENDP ; TMonsterAIElement::ApplyElementSpecialSommon
_TEXT	ENDS
; Function compile flags: /Ogtp
; File c:\users\michel\desktop\source\gameserver\source\tmonsteraielement.cpp
;	COMDAT ?ApplyElementHealGroup@TMonsterAIElement@@QAEHHHPAVTMonsterAIState@@@Z
_TEXT	SEGMENT
_iIndex$ = 8						; size = 4
_iTargetIndex$ = 12					; size = 4
_pAIState$ = 16						; size = 4
?ApplyElementHealGroup@TMonsterAIElement@@QAEHHHPAVTMonsterAIState@@@Z PROC ; TMonsterAIElement::ApplyElementHealGroup, COMDAT
; _this$ = ecx

; 664  : {

  00000	55		 push	 ebp
  00001	8b ec		 mov	 ebp, esp
  00003	53		 push	 ebx

; 665  : 	LPOBJ lpObj = &gObj[iIndex];

  00004	8b 5d 08	 mov	 ebx, DWORD PTR _iIndex$[ebp]
  00007	56		 push	 esi
  00008	57		 push	 edi
  00009	69 fb 40 27 00
	00		 imul	 edi, ebx, 10048

; 666  : 	UTIL.SendCrywolfChattingMsg(iIndex, "Element-");

  0000f	68 00 00 00 00	 push	 OFFSET ??_C@_0BB@NEEHLJGK@Element?9?$LB?W?$LH?l?D?$KB?$LH?a?$AA@
  00014	53		 push	 ebx
  00015	68 00 00 00 00	 push	 OFFSET ?UTIL@@3VCCrywolfUtil@@A
  0001a	03 3d 00 00 00
	00		 add	 edi, DWORD PTR ?gObj@@3PAUOBJECTSTRUCT@@A ; gObj
  00020	e8 00 00 00 00	 call	 ?SendCrywolfChattingMsg@CCrywolfUtil@@QAAXHPADZZ ; CCrywolfUtil::SendCrywolfChattingMsg

; 667  : 	TMonsterAIGroupMember * pMemb = TMonsterAIGroup::FindGroupMemberToHeal(lpObj->m_Index, lpObj->m_iGroupNumber, lpObj->m_iGroupMemberGuid, 6);

  00025	6a 06		 push	 6
  00027	ff b7 e4 20 00
	00		 push	 DWORD PTR [edi+8420]
  0002d	ff b7 dc 20 00
	00		 push	 DWORD PTR [edi+8412]
  00033	ff 37		 push	 DWORD PTR [edi]
  00035	e8 00 00 00 00	 call	 ?FindGroupMemberToHeal@TMonsterAIGroup@@SAPAVTMonsterAIGroupMember@@HHHH@Z ; TMonsterAIGroup::FindGroupMemberToHeal
  0003a	83 c4 1c	 add	 esp, 28			; 0000001cH

; 668  : 
; 669  : 	if ( pMemb )

  0003d	85 c0		 test	 eax, eax
  0003f	74 63		 je	 SHORT $LN2@ApplyEleme

; 670  : 	{
; 671  : 		LPOBJ lpTargetObj = &gObj[pMemb->m_iObjIndex];

  00041	69 70 3c 40 27
	00 00		 imul	 esi, DWORD PTR [eax+60], 10048
  00048	03 35 00 00 00
	00		 add	 esi, DWORD PTR ?gObj@@3PAUOBJECTSTRUCT@@A ; gObj

; 672  : 
; 673  : 		if ( lpTargetObj->Live == 0 )

  0004e	80 7e 51 00	 cmp	 BYTE PTR [esi+81], 0
  00052	74 50		 je	 SHORT $LN2@ApplyEleme

; 674  : 			return FALSE;
; 675  : 
; 676  : 		TMonsterSkillUnit * lpSkillUnit = TMonsterSkillManager::FindMonsterSkillUnit(lpObj->m_Index, 21);

  00054	6a 15		 push	 21			; 00000015H
  00056	ff 37		 push	 DWORD PTR [edi]
  00058	e8 00 00 00 00	 call	 ?FindMonsterSkillUnit@TMonsterSkillManager@@SAPAVTMonsterSkillUnit@@HH@Z ; TMonsterSkillManager::FindMonsterSkillUnit
  0005d	83 c4 08	 add	 esp, 8

; 677  : 
; 678  : 		if ( lpSkillUnit )

  00060	85 c0		 test	 eax, eax
  00062	74 0a		 je	 SHORT $LN4@ApplyEleme

; 679  : 		{
; 680  : 			lpSkillUnit->RunSkill(iIndex, lpTargetObj->m_Index);

  00064	ff 36		 push	 DWORD PTR [esi]
  00066	8b c8		 mov	 ecx, eax
  00068	53		 push	 ebx
  00069	e8 00 00 00 00	 call	 ?RunSkill@TMonsterSkillUnit@@QAEXHH@Z ; TMonsterSkillUnit::RunSkill
$LN4@ApplyEleme:

; 681  : 		}
; 682  : 
; 683  : 		UTIL.SendCrywolfChattingMsg(iIndex, " HP : %d", (int)lpTargetObj->Life);

  0006e	f3 0f 2c 86 d8
	00 00 00	 cvttss2si eax, DWORD PTR [esi+216]
  00076	50		 push	 eax
  00077	68 00 00 00 00	 push	 OFFSET ??_C@_0BB@NPDGGOME@?$LB?W?$LH?l?D?$KB?$LH?a?5HP?5?3?5?$CFd?$AA@
  0007c	53		 push	 ebx
  0007d	68 00 00 00 00	 push	 OFFSET ?UTIL@@3VCCrywolfUtil@@A
  00082	e8 00 00 00 00	 call	 ?SendCrywolfChattingMsg@CCrywolfUtil@@QAAXHPADZZ ; CCrywolfUtil::SendCrywolfChattingMsg

; 684  : 		UTIL.SendCrywolfChattingMsg(lpTargetObj->m_Index, "HP : %d", (int)lpTargetObj->Life);

  00087	f3 0f 2c 86 d8
	00 00 00	 cvttss2si eax, DWORD PTR [esi+216]
  0008f	50		 push	 eax
  00090	68 00 00 00 00	 push	 OFFSET ??_C@_07DAGIDAPO@HP?5?3?5?$CFd?$AA@
  00095	ff 36		 push	 DWORD PTR [esi]
  00097	68 00 00 00 00	 push	 OFFSET ?UTIL@@3VCCrywolfUtil@@A
  0009c	e8 00 00 00 00	 call	 ?SendCrywolfChattingMsg@CCrywolfUtil@@QAAXHPADZZ ; CCrywolfUtil::SendCrywolfChattingMsg
  000a1	83 c4 20	 add	 esp, 32			; 00000020H
$LN2@ApplyEleme:

; 685  : 	}
; 686  : 
; 687  : 	return FALSE;

  000a4	5f		 pop	 edi
  000a5	5e		 pop	 esi
  000a6	33 c0		 xor	 eax, eax
  000a8	5b		 pop	 ebx

; 688  : }

  000a9	5d		 pop	 ebp
  000aa	c2 0c 00	 ret	 12			; 0000000cH
?ApplyElementHealGroup@TMonsterAIElement@@QAEHHHPAVTMonsterAIState@@@Z ENDP ; TMonsterAIElement::ApplyElementHealGroup
_TEXT	ENDS
; Function compile flags: /Ogtp
; File c:\users\michel\desktop\source\gameserver\source\tmonsteraielement.cpp
;	COMDAT ?ApplyElementHealSelf@TMonsterAIElement@@QAEHHHPAVTMonsterAIState@@@Z
_TEXT	SEGMENT
_iIndex$ = 8						; size = 4
_iTargetIndex$ = 12					; size = 4
_pAIState$ = 16						; size = 4
?ApplyElementHealSelf@TMonsterAIElement@@QAEHHHPAVTMonsterAIState@@@Z PROC ; TMonsterAIElement::ApplyElementHealSelf, COMDAT
; _this$ = ecx

; 650  : {

  00000	55		 push	 ebp
  00001	8b ec		 mov	 ebp, esp
  00003	56		 push	 esi

; 651  : 	LPOBJ lpObj = &gObj[iIndex];

  00004	8b 75 08	 mov	 esi, DWORD PTR _iIndex$[ebp]
  00007	57		 push	 edi
  00008	69 fe 40 27 00
	00		 imul	 edi, esi, 10048

; 652  : 	UTIL.SendCrywolfChattingMsg(iIndex, "Element-");

  0000e	68 00 00 00 00	 push	 OFFSET ??_C@_0BB@HBFMCDPA@Element?9?$LM?$LP?G?A?D?$KB?$LH?a?$AA@
  00013	56		 push	 esi
  00014	68 00 00 00 00	 push	 OFFSET ?UTIL@@3VCCrywolfUtil@@A
  00019	03 3d 00 00 00
	00		 add	 edi, DWORD PTR ?gObj@@3PAUOBJECTSTRUCT@@A ; gObj
  0001f	e8 00 00 00 00	 call	 ?SendCrywolfChattingMsg@CCrywolfUtil@@QAAXHPADZZ ; CCrywolfUtil::SendCrywolfChattingMsg

; 653  : 
; 654  : 	lpObj->Life += lpObj->Life * 60.0f / 100.0f;

  00024	f3 0f 10 87 d8
	00 00 00	 movss	 xmm0, DWORD PTR [edi+216]
  0002c	0f 28 c8	 movaps	 xmm1, xmm0
  0002f	f3 0f 59 0d 00
	00 00 00	 mulss	 xmm1, DWORD PTR __real@42700000
  00037	f3 0f 5e 0d 00
	00 00 00	 divss	 xmm1, DWORD PTR __real@42c80000
  0003f	f3 0f 58 c8	 addss	 xmm1, xmm0

; 655  : 	UTIL.SendCrywolfChattingMsg(iIndex, "HP : %d", (int)lpObj->Life);

  00043	f3 0f 2c c1	 cvttss2si eax, xmm1
  00047	f3 0f 11 8f d8
	00 00 00	 movss	 DWORD PTR [edi+216], xmm1
  0004f	50		 push	 eax
  00050	68 00 00 00 00	 push	 OFFSET ??_C@_07DAGIDAPO@HP?5?3?5?$CFd?$AA@
  00055	56		 push	 esi
  00056	68 00 00 00 00	 push	 OFFSET ?UTIL@@3VCCrywolfUtil@@A
  0005b	e8 00 00 00 00	 call	 ?SendCrywolfChattingMsg@CCrywolfUtil@@QAAXHPADZZ ; CCrywolfUtil::SendCrywolfChattingMsg

; 656  : 
; 657  : 	gObjAddBuffEffect(lpObj,BUFF_ADD_DEFENSE,0,0,0,0,-10);

  00060	6a f6		 push	 -10			; fffffff6H
  00062	6a 00		 push	 0
  00064	6a 00		 push	 0
  00066	6a 00		 push	 0
  00068	6a 00		 push	 0
  0006a	6a 02		 push	 2
  0006c	57		 push	 edi
  0006d	e8 00 00 00 00	 call	 ?gObjAddBuffEffect@@YA_NPAUOBJECTSTRUCT@@HEHEHH@Z ; gObjAddBuffEffect
  00072	83 c4 38	 add	 esp, 56			; 00000038H

; 658  : 	return FALSE;

  00075	33 c0		 xor	 eax, eax
  00077	5f		 pop	 edi
  00078	5e		 pop	 esi

; 659  : }

  00079	5d		 pop	 ebp
  0007a	c2 0c 00	 ret	 12			; 0000000cH
?ApplyElementHealSelf@TMonsterAIElement@@QAEHHHPAVTMonsterAIState@@@Z ENDP ; TMonsterAIElement::ApplyElementHealSelf
_TEXT	ENDS
; Function compile flags: /Ogtp
; File c:\users\michel\desktop\source\gameserver\source\tmonsteraielement.cpp
;	COMDAT ?ApplyElementAvoid@TMonsterAIElement@@QAEHHHPAVTMonsterAIState@@@Z
_TEXT	SEGMENT
_iIndex$ = 8						; size = 4
_iTargetIndex$ = 12					; size = 4
_pAIState$ = 16						; size = 4
?ApplyElementAvoid@TMonsterAIElement@@QAEHHHPAVTMonsterAIState@@@Z PROC ; TMonsterAIElement::ApplyElementAvoid, COMDAT
; _this$ = ecx

; 633  : {

  00000	55		 push	 ebp
  00001	8b ec		 mov	 ebp, esp
  00003	56		 push	 esi

; 634  : 	LPOBJ lpObj = &gObj[iIndex];

  00004	8b 75 08	 mov	 esi, DWORD PTR _iIndex$[ebp]
  00007	57		 push	 edi
  00008	69 fe 40 27 00
	00		 imul	 edi, esi, 10048

; 635  : 	UTIL.SendCrywolfChattingMsg(iIndex, "Element-");

  0000e	68 00 00 00 00	 push	 OFFSET ??_C@_0N@BJJDJPGH@Element?9?H?$LI?G?G?$AA@
  00013	56		 push	 esi
  00014	68 00 00 00 00	 push	 OFFSET ?UTIL@@3VCCrywolfUtil@@A
  00019	03 3d 00 00 00
	00		 add	 edi, DWORD PTR ?gObj@@3PAUOBJECTSTRUCT@@A ; gObj
  0001f	e8 00 00 00 00	 call	 ?SendCrywolfChattingMsg@CCrywolfUtil@@QAAXHPADZZ ; CCrywolfUtil::SendCrywolfChattingMsg

; 636  : 	KANTURU_UTIL.SendKanturuChattingMsg(iIndex, "Element-");

  00024	68 00 00 00 00	 push	 OFFSET ??_C@_0N@BJJDJPGH@Element?9?H?$LI?G?G?$AA@
  00029	56		 push	 esi
  0002a	68 00 00 00 00	 push	 OFFSET ?KANTURU_UTIL@@3VCKanturuUtil@@A
  0002f	e8 00 00 00 00	 call	 ?SendKanturuChattingMsg@CKanturuUtil@@QAAXHPADZZ ; CKanturuUtil::SendKanturuChattingMsg
  00034	83 c4 18	 add	 esp, 24			; 00000018H

; 637  : 	BOOL bFindXY = MONSTER_UTIL.GetXYToEascape(lpObj);

  00037	b9 00 00 00 00	 mov	 ecx, OFFSET ?MONSTER_UTIL@@3VTMonsterAIUtil@@A
  0003c	57		 push	 edi
  0003d	e8 00 00 00 00	 call	 ?GetXYToEascape@TMonsterAIUtil@@QAEHPAUOBJECTSTRUCT@@@Z ; TMonsterAIUtil::GetXYToEascape

; 638  : 
; 639  : 	if ( bFindXY )

  00042	85 c0		 test	 eax, eax
  00044	74 1f		 je	 SHORT $LN4@ApplyEleme

; 640  : 	{
; 641  : 		MONSTER_UTIL.FindPathToMoveMonster(lpObj, lpObj->MTX, lpObj->MTY, 5, 1);

  00046	0f b6 87 55 01
	00 00		 movzx	 eax, BYTE PTR [edi+341]
  0004d	b9 00 00 00 00	 mov	 ecx, OFFSET ?MONSTER_UTIL@@3VTMonsterAIUtil@@A
  00052	6a 01		 push	 1
  00054	6a 05		 push	 5
  00056	50		 push	 eax
  00057	0f b6 87 54 01
	00 00		 movzx	 eax, BYTE PTR [edi+340]
  0005e	50		 push	 eax
  0005f	57		 push	 edi
  00060	e8 00 00 00 00	 call	 ?FindPathToMoveMonster@TMonsterAIUtil@@QAEHPAUOBJECTSTRUCT@@HHHH@Z ; TMonsterAIUtil::FindPathToMoveMonster
$LN4@ApplyEleme:

; 642  : 	}
; 643  : 
; 644  : 	return FALSE;

  00065	5f		 pop	 edi
  00066	33 c0		 xor	 eax, eax
  00068	5e		 pop	 esi

; 645  : }

  00069	5d		 pop	 ebp
  0006a	c2 0c 00	 ret	 12			; 0000000cH
?ApplyElementAvoid@TMonsterAIElement@@QAEHHHPAVTMonsterAIState@@@Z ENDP ; TMonsterAIElement::ApplyElementAvoid
_TEXT	ENDS
; Function compile flags: /Ogtp
; File c:\users\michel\desktop\source\gameserver\source\tmonsteraielement.cpp
;	COMDAT ?ApplyElementAttackPenetration@TMonsterAIElement@@QAEHHHPAVTMonsterAIState@@@Z
_TEXT	SEGMENT
_iIndex$ = 8						; size = 4
_iTargetIndex$ = 12					; size = 4
_pAIState$ = 16						; size = 4
?ApplyElementAttackPenetration@TMonsterAIElement@@QAEHHHPAVTMonsterAIState@@@Z PROC ; TMonsterAIElement::ApplyElementAttackPenetration, COMDAT
; _this$ = ecx

; 616  : {

  00000	55		 push	 ebp
  00001	8b ec		 mov	 ebp, esp

; 617  : 	LPOBJ lpObj = &gObj[iIndex];

  00003	8b 55 08	 mov	 edx, DWORD PTR _iIndex$[ebp]
  00006	69 c2 40 27 00
	00		 imul	 eax, edx, 10048
  0000c	56		 push	 esi
  0000d	8b 35 00 00 00
	00		 mov	 esi, DWORD PTR ?gObj@@3PAUOBJECTSTRUCT@@A ; gObj

; 618  : 	iTargetIndex = lpObj->TargetNumber;

  00013	0f b7 84 30 38
	06 00 00	 movzx	 eax, WORD PTR [eax+esi+1592]
  0001b	0f bf c8	 movsx	 ecx, ax

; 619  : 
; 620  : 	if ( lpObj->TargetNumber == -1 )

  0001e	66 83 f8 ff	 cmp	 ax, -1
  00022	74 1d		 je	 SHORT $LN5@ApplyEleme

; 621  : 		return FALSE;
; 622  : 
; 623  : 	if ( gObj[iTargetIndex].Live == 0 )

  00024	69 c1 40 27 00
	00		 imul	 eax, ecx, 10048
  0002a	80 7c 30 51 00	 cmp	 BYTE PTR [eax+esi+81], 0
  0002f	74 10		 je	 SHORT $LN5@ApplyEleme

; 624  : 		return FALSE;
; 625  : 
; 626  : 	TMonsterSkillManager::UseMonsterSkill(iIndex, iTargetIndex, 2,-1, 0);

  00031	6a 00		 push	 0
  00033	6a ff		 push	 -1
  00035	6a 02		 push	 2
  00037	51		 push	 ecx
  00038	52		 push	 edx
  00039	e8 00 00 00 00	 call	 ?UseMonsterSkill@TMonsterSkillManager@@SAXHHHHPAVCMagicInf@@@Z ; TMonsterSkillManager::UseMonsterSkill
  0003e	83 c4 14	 add	 esp, 20			; 00000014H
$LN5@ApplyEleme:

; 627  : 	return FALSE;

  00041	33 c0		 xor	 eax, eax
  00043	5e		 pop	 esi

; 628  : }

  00044	5d		 pop	 ebp
  00045	c2 0c 00	 ret	 12			; 0000000cH
?ApplyElementAttackPenetration@TMonsterAIElement@@QAEHHHPAVTMonsterAIState@@@Z ENDP ; TMonsterAIElement::ApplyElementAttackPenetration
_TEXT	ENDS
; Function compile flags: /Ogtp
; File c:\users\michel\desktop\source\gameserver\source\tmonsteraielement.cpp
;	COMDAT ?ApplyElementAttackArea@TMonsterAIElement@@QAEHHHPAVTMonsterAIState@@@Z
_TEXT	SEGMENT
_iTargetX$1$ = -32					; size = 4
_iTargetY$1$ = -28					; size = 4
_i$1$ = -24						; size = 4
_iTargetDistance$1$ = -20				; size = 4
_pMsg$1 = -16						; size = 10
__$ArrayPad$ = -4					; size = 4
_iIndex$ = 8						; size = 4
_iTargetIndex$ = 12					; size = 4
_pAIState$ = 16						; size = 4
?ApplyElementAttackArea@TMonsterAIElement@@QAEHHHPAVTMonsterAIState@@@Z PROC ; TMonsterAIElement::ApplyElementAttackArea, COMDAT
; _this$ = ecx

; 568  : {

  00000	55		 push	 ebp
  00001	8b ec		 mov	 ebp, esp
  00003	83 e4 f8	 and	 esp, -8			; fffffff8H
  00006	83 ec 24	 sub	 esp, 36			; 00000024H
  00009	a1 00 00 00 00	 mov	 eax, DWORD PTR ___security_cookie
  0000e	33 c4		 xor	 eax, esp
  00010	89 44 24 20	 mov	 DWORD PTR __$ArrayPad$[esp+36], eax
  00014	8b 45 08	 mov	 eax, DWORD PTR _iIndex$[ebp]
  00017	53		 push	 ebx
  00018	56		 push	 esi
  00019	57		 push	 edi

; 569  : 	LPOBJ lpObj = &gObj[iIndex];

  0001a	69 d8 40 27 00
	00		 imul	 ebx, eax, 10048
  00020	8b f9		 mov	 edi, ecx

; 570  : 	UTIL.SendCrywolfChattingMsg(iIndex, "Element-");

  00022	68 00 00 00 00	 push	 OFFSET ??_C@_0BB@KIEOALHF@Element?9?$LP?$LF?$LP?$KK?$LA?x?$LA?$NN?$AA@
  00027	50		 push	 eax
  00028	68 00 00 00 00	 push	 OFFSET ?UTIL@@3VCCrywolfUtil@@A
  0002d	03 1d 00 00 00
	00		 add	 ebx, DWORD PTR ?gObj@@3PAUOBJECTSTRUCT@@A ; gObj
  00033	e8 00 00 00 00	 call	 ?SendCrywolfChattingMsg@CCrywolfUtil@@QAAXHPADZZ ; CCrywolfUtil::SendCrywolfChattingMsg
  00038	83 c4 0c	 add	 esp, 12			; 0000000cH

; 571  : 
; 572  : 	int iTargetX = this->m_iX + (rand()%5) * ((rand()%2==0)?1:-1 ) ;

  0003b	e8 00 00 00 00	 call	 _rand
  00040	8b f0		 mov	 esi, eax
  00042	81 e6 01 00 00
	80		 and	 esi, -2147483647	; 80000001H
  00048	79 05		 jns	 SHORT $LN15@ApplyEleme
  0004a	4e		 dec	 esi
  0004b	83 ce fe	 or	 esi, -2			; fffffffeH
  0004e	46		 inc	 esi
$LN15@ApplyEleme:
  0004f	f7 de		 neg	 esi
  00051	1b f6		 sbb	 esi, esi
  00053	83 e6 fe	 and	 esi, -2			; fffffffeH
  00056	46		 inc	 esi
  00057	e8 00 00 00 00	 call	 _rand
  0005c	99		 cdq
  0005d	b9 05 00 00 00	 mov	 ecx, 5
  00062	f7 f9		 idiv	 ecx
  00064	8b c2		 mov	 eax, edx
  00066	0f af c6	 imul	 eax, esi
  00069	03 47 50	 add	 eax, DWORD PTR [edi+80]
  0006c	89 44 24 10	 mov	 DWORD PTR _iTargetX$1$[esp+48], eax

; 573  : 	int iTargetY = this->m_iY + (rand()%5) * ((rand()%2==0)?1:-1 ) ;

  00070	e8 00 00 00 00	 call	 _rand
  00075	8b f0		 mov	 esi, eax
  00077	81 e6 01 00 00
	80		 and	 esi, -2147483647	; 80000001H
  0007d	79 05		 jns	 SHORT $LN16@ApplyEleme
  0007f	4e		 dec	 esi
  00080	83 ce fe	 or	 esi, -2			; fffffffeH
  00083	46		 inc	 esi
$LN16@ApplyEleme:
  00084	f7 de		 neg	 esi
  00086	1b f6		 sbb	 esi, esi
  00088	83 e6 fe	 and	 esi, -2			; fffffffeH
  0008b	46		 inc	 esi
  0008c	e8 00 00 00 00	 call	 _rand
  00091	99		 cdq
  00092	b9 05 00 00 00	 mov	 ecx, 5
  00097	f7 f9		 idiv	 ecx
  00099	8b c2		 mov	 eax, edx
  0009b	0f af c6	 imul	 eax, esi
  0009e	03 47 54	 add	 eax, DWORD PTR [edi+84]
  000a1	bf 00 dd 49 06	 mov	 edi, 105504000		; 0649dd00H
  000a6	89 44 24 14	 mov	 DWORD PTR _iTargetY$1$[esp+48], eax

; 574  : 
; 575  : 	for (int i= OBJ_STARTUSERINDEX;i<OBJMAX;i++)

  000aa	b8 04 29 00 00	 mov	 eax, 10500		; 00002904H
  000af	89 44 24 18	 mov	 DWORD PTR _i$1$[esp+48], eax
$LL4@ApplyEleme:

; 576  : 	{
; 577  : 		if ( !gObjIsConnected(i))

  000b3	50		 push	 eax
  000b4	e8 00 00 00 00	 call	 ?gObjIsConnected@@YAHH@Z ; gObjIsConnected
  000b9	83 c4 04	 add	 esp, 4
  000bc	85 c0		 test	 eax, eax
  000be	0f 84 dd 00 00
	00		 je	 $LN2@ApplyEleme

; 578  : 			continue;
; 579  : 
; 580  : 		LPOBJ lpTargetObj = &gObj[i];

  000c4	8b 35 00 00 00
	00		 mov	 esi, DWORD PTR ?gObj@@3PAUOBJECTSTRUCT@@A ; gObj
  000ca	03 f7		 add	 esi, edi

; 581  : 
; 582  : 		if ( !lpObj->Live )

  000cc	80 7b 51 00	 cmp	 BYTE PTR [ebx+81], 0
  000d0	0f 84 cb 00 00
	00		 je	 $LN2@ApplyEleme

; 583  : 			continue;
; 584  : 
; 585  : 		if ( lpObj->MapNumber != lpTargetObj->MapNumber )

  000d6	8a 83 23 01 00
	00		 mov	 al, BYTE PTR [ebx+291]
  000dc	3a 86 23 01 00
	00		 cmp	 al, BYTE PTR [esi+291]
  000e2	0f 85 b9 00 00
	00		 jne	 $LN2@ApplyEleme

; 586  : 			continue;
; 587  : 
; 588  : 		int iTargetDistance = (int)sqrt(double(((lpTargetObj->X - iTargetX)*(lpTargetObj->X - iTargetX)) + ((lpTargetObj->Y - iTargetY)*(lpTargetObj->Y - iTargetY))));

  000e8	0f b6 8e 21 01
	00 00		 movzx	 ecx, BYTE PTR [esi+289]
  000ef	0f b6 86 20 01
	00 00		 movzx	 eax, BYTE PTR [esi+288]
  000f6	2b 44 24 10	 sub	 eax, DWORD PTR _iTargetX$1$[esp+48]
  000fa	2b 4c 24 14	 sub	 ecx, DWORD PTR _iTargetY$1$[esp+48]
  000fe	0f af c0	 imul	 eax, eax
  00101	0f af c9	 imul	 ecx, ecx
  00104	03 c1		 add	 eax, ecx
  00106	66 0f 6e c0	 movd	 xmm0, eax
  0010a	f3 0f e6 c0	 cvtdq2pd xmm0, xmm0
  0010e	e8 00 00 00 00	 call	 __libm_sse2_sqrt_precise
  00113	f2 0f 2c c0	 cvttsd2si eax, xmm0
  00117	89 44 24 1c	 mov	 DWORD PTR _iTargetDistance$1$[esp+48], eax

; 589  : 
; 590  : 		if ( iTargetDistance < 10 )

  0011b	83 f8 0a	 cmp	 eax, 10			; 0000000aH
  0011e	7d 64		 jge	 SHORT $LN8@ApplyEleme

; 591  : 		{
; 592  : 			PMSG_NOTIFY_REGION_MONSTER_ATTACK pMsg;
; 593  : 
; 594  : 			PHeadSubSetB((LPBYTE)&pMsg, 0xBD, 0x0C, sizeof(pMsg));

  00120	6a 0a		 push	 10			; 0000000aH
  00122	6a 0c		 push	 12			; 0000000cH
  00124	8d 44 24 28	 lea	 eax, DWORD PTR _pMsg$1[esp+56]
  00128	68 bd 00 00 00	 push	 189			; 000000bdH
  0012d	50		 push	 eax
  0012e	e8 00 00 00 00	 call	 ?PHeadSubSetB@@YAXPAEEEH@Z ; PHeadSubSetB

; 595  : 			pMsg.btObjClassH = SET_NUMBERH(lpObj->Class);

  00133	0f b6 83 91 00
	00 00		 movzx	 eax, BYTE PTR [ebx+145]
  0013a	88 44 24 34	 mov	 BYTE PTR _pMsg$1[esp+68], al

; 596  : 			pMsg.btObjClassL = SET_NUMBERL(lpObj->Class);

  0013e	0f b6 83 90 00
	00 00		 movzx	 eax, BYTE PTR [ebx+144]
  00145	88 44 24 35	 mov	 BYTE PTR _pMsg$1[esp+69], al

; 597  : 			pMsg.btSourceX = lpObj->X;

  00149	0f b6 83 20 01
	00 00		 movzx	 eax, BYTE PTR [ebx+288]
  00150	88 44 24 36	 mov	 BYTE PTR _pMsg$1[esp+70], al

; 598  : 			pMsg.btSourceY = lpObj->Y;

  00154	0f b6 83 21 01
	00 00		 movzx	 eax, BYTE PTR [ebx+289]
  0015b	88 44 24 37	 mov	 BYTE PTR _pMsg$1[esp+71], al

; 599  : 			pMsg.btPointX = iTargetX;

  0015f	8b 44 24 20	 mov	 eax, DWORD PTR _iTargetX$1$[esp+64]
  00163	88 44 24 38	 mov	 BYTE PTR _pMsg$1[esp+72], al

; 600  : 			pMsg.btPointY = iTargetY;

  00167	8b 44 24 24	 mov	 eax, DWORD PTR _iTargetY$1$[esp+64]
  0016b	88 44 24 39	 mov	 BYTE PTR _pMsg$1[esp+73], al

; 601  : 
; 602  : 			DataSend(lpTargetObj->m_Index, (LPBYTE)&pMsg, sizeof(pMsg));

  0016f	8d 44 24 30	 lea	 eax, DWORD PTR _pMsg$1[esp+64]
  00173	6a 0a		 push	 10			; 0000000aH
  00175	50		 push	 eax
  00176	ff 36		 push	 DWORD PTR [esi]
  00178	e8 00 00 00 00	 call	 ?DataSend@@YAHHPAEK@Z	; DataSend
  0017d	8b 44 24 38	 mov	 eax, DWORD PTR _iTargetDistance$1$[esp+76]
  00181	83 c4 1c	 add	 esp, 28			; 0000001cH
$LN8@ApplyEleme:

; 603  : 		}
; 604  : 
; 605  : 		if ( iTargetDistance < 6 )

  00184	83 f8 06	 cmp	 eax, 6
  00187	7d 18		 jge	 SHORT $LN2@ApplyEleme

; 606  : 		{
; 607  : 			gObjAttack(lpObj, lpTargetObj, 0, 0, 0, 0, 0,0,0);

  00189	6a 00		 push	 0
  0018b	6a 00		 push	 0
  0018d	6a 00		 push	 0
  0018f	6a 00		 push	 0
  00191	6a 00		 push	 0
  00193	6a 00		 push	 0
  00195	6a 00		 push	 0
  00197	56		 push	 esi
  00198	53		 push	 ebx
  00199	e8 00 00 00 00	 call	 ?gObjAttack@@YAXPAUOBJECTSTRUCT@@0PAVCMagicInf@@HEHHEE@Z ; gObjAttack
  0019e	83 c4 24	 add	 esp, 36			; 00000024H
$LN2@ApplyEleme:

; 574  : 
; 575  : 	for (int i= OBJ_STARTUSERINDEX;i<OBJMAX;i++)

  001a1	8b 44 24 18	 mov	 eax, DWORD PTR _i$1$[esp+48]
  001a5	81 c7 40 27 00
	00		 add	 edi, 10048		; 00002740H
  001ab	40		 inc	 eax
  001ac	89 44 24 18	 mov	 DWORD PTR _i$1$[esp+48], eax
  001b0	81 ff 00 2f e3
	06		 cmp	 edi, 115552000		; 06e32f00H
  001b6	0f 8c f7 fe ff
	ff		 jl	 $LL4@ApplyEleme

; 608  : 		}
; 609  : 	}
; 610  : 
; 611  : 	return FALSE;
; 612  : }

  001bc	8b 4c 24 2c	 mov	 ecx, DWORD PTR __$ArrayPad$[esp+48]
  001c0	33 c0		 xor	 eax, eax
  001c2	5f		 pop	 edi
  001c3	5e		 pop	 esi
  001c4	5b		 pop	 ebx
  001c5	33 cc		 xor	 ecx, esp
  001c7	e8 00 00 00 00	 call	 @__security_check_cookie@4
  001cc	8b e5		 mov	 esp, ebp
  001ce	5d		 pop	 ebp
  001cf	c2 0c 00	 ret	 12			; 0000000cH
?ApplyElementAttackArea@TMonsterAIElement@@QAEHHHPAVTMonsterAIState@@@Z ENDP ; TMonsterAIElement::ApplyElementAttackArea
_TEXT	ENDS
; Function compile flags: /Ogtp
; File c:\users\michel\desktop\source\gameserver\source\tmonsteraielement.cpp
;	COMDAT ?ApplyElementAttack@TMonsterAIElement@@QAEHHHPAVTMonsterAIState@@@Z
_TEXT	SEGMENT
_pAttackMsg$1 = -8					; size = 7
_iIndex$ = 8						; size = 4
_iTargetIndex$ = 12					; size = 4
_pAIState$ = 16						; size = 4
?ApplyElementAttack@TMonsterAIElement@@QAEHHHPAVTMonsterAIState@@@Z PROC ; TMonsterAIElement::ApplyElementAttack, COMDAT
; _this$ = ecx

; 468  : {

  00000	55		 push	 ebp
  00001	8b ec		 mov	 ebp, esp

; 469  : 	LPOBJ lpObj = &gObj[iIndex];

  00003	8b 45 08	 mov	 eax, DWORD PTR _iIndex$[ebp]
  00006	83 ec 08	 sub	 esp, 8
  00009	56		 push	 esi
  0000a	57		 push	 edi
  0000b	69 f8 40 27 00
	00		 imul	 edi, eax, 10048

; 470  : 	UTIL.SendCrywolfChattingMsg(iIndex, "Element-");

  00011	68 00 00 00 00	 push	 OFFSET ??_C@_0N@KKLGOIFK@Element?9?$LA?x?$LA?$NN?$AA@
  00016	50		 push	 eax
  00017	68 00 00 00 00	 push	 OFFSET ?UTIL@@3VCCrywolfUtil@@A
  0001c	03 3d 00 00 00
	00		 add	 edi, DWORD PTR ?gObj@@3PAUOBJECTSTRUCT@@A ; gObj
  00022	e8 00 00 00 00	 call	 ?SendCrywolfChattingMsg@CCrywolfUtil@@QAAXHPADZZ ; CCrywolfUtil::SendCrywolfChattingMsg

; 471  : 
; 472  : 	if ( TMonsterSkillManager::CheckMonsterSkill(lpObj->Class) )

  00027	0f b7 87 90 00
	00 00		 movzx	 eax, WORD PTR [edi+144]
  0002e	50		 push	 eax
  0002f	e8 00 00 00 00	 call	 ?CheckMonsterSkill@TMonsterSkillManager@@SAHH@Z ; TMonsterSkillManager::CheckMonsterSkill
  00034	83 c4 10	 add	 esp, 16			; 00000010H
  00037	85 c0		 test	 eax, eax

; 473  : 	{
; 474  : 		BOOL bEnableAttack = TRUE;
; 475  : 
; 476  : 		if ( lpObj->TargetNumber < 0 )

  00039	0f b7 87 38 06
	00 00		 movzx	 eax, WORD PTR [edi+1592]
  00040	0f 84 12 01 00
	00		 je	 $LN2@ApplyEleme
  00046	be 01 00 00 00	 mov	 esi, 1
  0004b	66 85 c0	 test	 ax, ax
  0004e	79 28		 jns	 SHORT $LN4@ApplyEleme
$LN14@ApplyEleme:

; 477  : 		{
; 478  : 			lpObj->TargetNumber = -1;
; 479  : 			lpObj->m_ActState.Emotion = 0;
; 480  : 			lpObj->m_ActState.Attack = 0;
; 481  : 			lpObj->m_ActState.Move = 0;

  00050	81 a7 c8 01 00
	00 09 ff ff ff	 and	 DWORD PTR [edi+456], -247 ; ffffff09H
  0005a	83 c8 ff	 or	 eax, -1
  0005d	66 89 87 38 06
	00 00		 mov	 WORD PTR [edi+1592], ax

; 548  : 
; 549  : 		return FALSE;

  00064	33 c0		 xor	 eax, eax
  00066	c7 87 a0 05 00
	00 e8 03 00 00	 mov	 DWORD PTR [edi+1440], 1000 ; 000003e8H
  00070	5f		 pop	 edi
  00071	5e		 pop	 esi

; 550  : 	}
; 551  : }

  00072	8b e5		 mov	 esp, ebp
  00074	5d		 pop	 ebp
  00075	c2 0c 00	 ret	 12			; 0000000cH
$LN4@ApplyEleme:

; 482  : 			lpObj->NextActionTime = 1000;
; 483  : 
; 484  : 			return FALSE;
; 485  : 		}
; 486  : 
; 487  : 		if ( !gObj[lpObj->TargetNumber].Live || gObj[lpObj->TargetNumber].Teleport )

  00078	98		 cwde
  00079	69 d0 40 27 00
	00		 imul	 edx, eax, 10048
  0007f	03 15 00 00 00
	00		 add	 edx, DWORD PTR ?gObj@@3PAUOBJECTSTRUCT@@A ; gObj
  00085	80 7a 51 00	 cmp	 BYTE PTR [edx+81], 0
  00089	74 09		 je	 SHORT $LN6@ApplyEleme
  0008b	80 ba 88 05 00
	00 00		 cmp	 BYTE PTR [edx+1416], 0
  00092	74 02		 je	 SHORT $LN5@ApplyEleme
$LN6@ApplyEleme:

; 488  : 			bEnableAttack = FALSE;

  00094	33 f6		 xor	 esi, esi
$LN5@ApplyEleme:

; 489  : 
; 490  : 		if ( gObj[lpObj->TargetNumber].Connected <= PLAYER_LOGGED ||

  00096	83 7a 04 02	 cmp	 DWORD PTR [edx+4], 2
  0009a	7e b4		 jle	 SHORT $LN14@ApplyEleme
  0009c	80 7a 0c ff	 cmp	 BYTE PTR [edx+12], -1
  000a0	75 ae		 jne	 SHORT $LN14@ApplyEleme

; 491  : 			 gObj[lpObj->TargetNumber].CloseCount != -1 )
; 492  : 		{
; 493  : 			bEnableAttack = FALSE;
; 494  : 		}
; 495  : 
; 496  : 		if ( !bEnableAttack )

  000a2	85 f6		 test	 esi, esi
  000a4	74 aa		 je	 SHORT $LN14@ApplyEleme

; 497  : 		{
; 498  : 			lpObj->TargetNumber = -1;
; 499  : 			lpObj->m_ActState.Emotion = 0;
; 500  : 			lpObj->m_ActState.Attack = 0;
; 501  : 			lpObj->m_ActState.Move = 0;
; 502  : 			lpObj->NextActionTime = 1000;
; 503  : 
; 504  : 			return FALSE;
; 505  : 		}
; 506  : 
; 507  : 		LPOBJ lpTargetObj = &gObj[lpObj->TargetNumber];
; 508  : 		lpObj->Dir = GetPathPacketDirPos(lpTargetObj->X - lpObj->X, lpTargetObj->Y - lpObj->Y);

  000a6	0f b6 87 21 01
	00 00		 movzx	 eax, BYTE PTR [edi+289]
  000ad	0f b6 8a 21 01
	00 00		 movzx	 ecx, BYTE PTR [edx+289]
  000b4	2b c8		 sub	 ecx, eax
  000b6	0f b6 87 20 01
	00 00		 movzx	 eax, BYTE PTR [edi+288]
  000bd	51		 push	 ecx
  000be	0f b6 8a 20 01
	00 00		 movzx	 ecx, BYTE PTR [edx+288]
  000c5	2b c8		 sub	 ecx, eax
  000c7	51		 push	 ecx
  000c8	e8 00 00 00 00	 call	 ?GetPathPacketDirPos@@YAEHH@Z ; GetPathPacketDirPos
  000cd	83 c4 08	 add	 esp, 8
  000d0	88 87 22 01 00
	00		 mov	 BYTE PTR [edi+290], al

; 509  : 
; 510  : 		if ( (rand()%4) == 0 )

  000d6	e8 00 00 00 00	 call	 _rand
  000db	25 03 00 00 80	 and	 eax, -2147483645	; 80000003H
  000e0	79 05		 jns	 SHORT $LN15@ApplyEleme
  000e2	48		 dec	 eax
  000e3	83 c8 fc	 or	 eax, -4			; fffffffcH
  000e6	40		 inc	 eax
$LN15@ApplyEleme:

; 511  : 		{
; 512  : 			PMSG_ATTACK pAttackMsg;
; 513  : 
; 514  : 			pAttackMsg.AttackAction = 0x78;
; 515  : 			pAttackMsg.DirDis = lpObj->Dir;
; 516  : 			pAttackMsg.NumberH = SET_NUMBERH(lpObj->TargetNumber);
; 517  : 			pAttackMsg.NumberL = SET_NUMBERL(lpObj->TargetNumber);
; 518  : 
; 519  : 			GCActionSend(lpObj, 0x78, lpObj->m_Index, 0);

  000e7	6a 00		 push	 0

; 509  : 
; 510  : 		if ( (rand()%4) == 0 )

  000e9	75 46		 jne	 SHORT $LN10@ApplyEleme

; 511  : 		{
; 512  : 			PMSG_ATTACK pAttackMsg;
; 513  : 
; 514  : 			pAttackMsg.AttackAction = 0x78;
; 515  : 			pAttackMsg.DirDis = lpObj->Dir;
; 516  : 			pAttackMsg.NumberH = SET_NUMBERH(lpObj->TargetNumber);
; 517  : 			pAttackMsg.NumberL = SET_NUMBERL(lpObj->TargetNumber);
; 518  : 
; 519  : 			GCActionSend(lpObj, 0x78, lpObj->m_Index, 0);

  000eb	ff 37		 push	 DWORD PTR [edi]
  000ed	6a 78		 push	 120			; 00000078H
  000ef	57		 push	 edi
  000f0	e8 00 00 00 00	 call	 ?GCActionSend@@YAXPAUOBJECTSTRUCT@@EHH@Z ; GCActionSend

; 520  : 			gObjAttack(lpObj, &gObj[lpObj->TargetNumber], 0, 0, 0, 0, 0,0,0);

  000f5	0f bf 87 38 06
	00 00		 movsx	 eax, WORD PTR [edi+1592]
  000fc	6a 00		 push	 0
  000fe	6a 00		 push	 0
  00100	6a 00		 push	 0
  00102	6a 00		 push	 0
  00104	6a 00		 push	 0
  00106	69 c0 40 27 00
	00		 imul	 eax, eax, 10048
  0010c	6a 00		 push	 0
  0010e	6a 00		 push	 0
  00110	03 05 00 00 00
	00		 add	 eax, DWORD PTR ?gObj@@3PAUOBJECTSTRUCT@@A ; gObj
  00116	50		 push	 eax
  00117	57		 push	 edi
  00118	e8 00 00 00 00	 call	 ?gObjAttack@@YAXPAUOBJECTSTRUCT@@0PAVCMagicInf@@HEHHEE@Z ; gObjAttack

; 525  : 		}
; 526  : 
; 527  : 		lpObj->m_ActState.Attack = 0;

  0011d	83 a7 c8 01 00
	00 fd		 and	 DWORD PTR [edi+456], -3	; fffffffdH
  00124	83 c4 34	 add	 esp, 52			; 00000034H

; 548  : 
; 549  : 		return FALSE;

  00127	33 c0		 xor	 eax, eax
  00129	5f		 pop	 edi
  0012a	5e		 pop	 esi

; 550  : 	}
; 551  : }

  0012b	8b e5		 mov	 esp, ebp
  0012d	5d		 pop	 ebp
  0012e	c2 0c 00	 ret	 12			; 0000000cH
$LN10@ApplyEleme:

; 521  : 		}
; 522  : 		else
; 523  : 		{
; 524  : 			TMonsterSkillManager::UseMonsterSkill(lpObj->m_Index, lpObj->TargetNumber, 0, -1, 0);

  00131	0f bf 87 38 06
	00 00		 movsx	 eax, WORD PTR [edi+1592]
  00138	6a ff		 push	 -1
  0013a	6a 00		 push	 0
  0013c	50		 push	 eax
  0013d	ff 37		 push	 DWORD PTR [edi]
  0013f	e8 00 00 00 00	 call	 ?UseMonsterSkill@TMonsterSkillManager@@SAXHHHHPAVCMagicInf@@@Z ; TMonsterSkillManager::UseMonsterSkill

; 525  : 		}
; 526  : 
; 527  : 		lpObj->m_ActState.Attack = 0;

  00144	83 a7 c8 01 00
	00 fd		 and	 DWORD PTR [edi+456], -3	; fffffffdH
  0014b	83 c4 14	 add	 esp, 20			; 00000014H

; 548  : 
; 549  : 		return FALSE;

  0014e	33 c0		 xor	 eax, eax
  00150	5f		 pop	 edi
  00151	5e		 pop	 esi

; 550  : 	}
; 551  : }

  00152	8b e5		 mov	 esp, ebp
  00154	5d		 pop	 ebp
  00155	c2 0c 00	 ret	 12			; 0000000cH
$LN2@ApplyEleme:

; 528  : 		return FALSE;
; 529  : 	}
; 530  : 	else
; 531  : 	{
; 532  : 		if( lpObj->TargetNumber < 0 )

  00158	66 85 c0	 test	 ax, ax
  0015b	0f 88 99 00 00
	00		 js	 $LN16@ApplyEleme

; 533  : 			return FALSE;
; 534  : 
; 535  : 		LPOBJ lpTargetObj = &gObj[lpObj->TargetNumber];

  00161	98		 cwde
  00162	69 f0 40 27 00
	00		 imul	 esi, eax, 10048

; 536  : 		lpObj->Dir = GetPathPacketDirPos(lpTargetObj->X - lpObj->X, lpTargetObj->Y - lpObj->Y);

  00168	0f b6 87 21 01
	00 00		 movzx	 eax, BYTE PTR [edi+289]
  0016f	03 35 00 00 00
	00		 add	 esi, DWORD PTR ?gObj@@3PAUOBJECTSTRUCT@@A ; gObj
  00175	0f b6 8e 21 01
	00 00		 movzx	 ecx, BYTE PTR [esi+289]
  0017c	2b c8		 sub	 ecx, eax
  0017e	0f b6 87 20 01
	00 00		 movzx	 eax, BYTE PTR [edi+288]
  00185	51		 push	 ecx
  00186	0f b6 8e 20 01
	00 00		 movzx	 ecx, BYTE PTR [esi+288]
  0018d	2b c8		 sub	 ecx, eax
  0018f	51		 push	 ecx
  00190	e8 00 00 00 00	 call	 ?GetPathPacketDirPos@@YAEHH@Z ; GetPathPacketDirPos

; 537  : 
; 538  : 		PMSG_ATTACK pAttackMsg;
; 539  : 
; 540  : 		pAttackMsg.AttackAction = 0x78;
; 541  : 		pAttackMsg.DirDis = lpObj->Dir;
; 542  : 		pAttackMsg.NumberH = SET_NUMBERH(lpObj->TargetNumber);
; 543  : 		pAttackMsg.NumberL = SET_NUMBERL(lpObj->TargetNumber);
; 544  : 
; 545  : 		CGAttack((PMSG_ATTACK *)&pAttackMsg, lpObj->m_Index);

  00195	ff 37		 push	 DWORD PTR [edi]
  00197	88 87 22 01 00
	00		 mov	 BYTE PTR [edi+290], al
  0019d	88 45 fe	 mov	 BYTE PTR _pAttackMsg$1[ebp+6], al
  001a0	0f bf 87 38 06
	00 00		 movsx	 eax, WORD PTR [edi+1592]
  001a7	c1 e8 08	 shr	 eax, 8
  001aa	88 45 fb	 mov	 BYTE PTR _pAttackMsg$1[ebp+3], al
  001ad	8a 87 38 06 00
	00		 mov	 al, BYTE PTR [edi+1592]
  001b3	88 45 fc	 mov	 BYTE PTR _pAttackMsg$1[ebp+4], al
  001b6	8d 45 f8	 lea	 eax, DWORD PTR _pAttackMsg$1[ebp]
  001b9	50		 push	 eax
  001ba	c6 45 fd 78	 mov	 BYTE PTR _pAttackMsg$1[ebp+5], 120 ; 00000078H
  001be	e8 00 00 00 00	 call	 ?CGAttack@@YAXPAUPMSG_ATTACK@@H@Z ; CGAttack

; 546  : 		GCActionSend(lpObj, 0x78, lpObj->m_Index, lpTargetObj->m_Index);

  001c3	ff 36		 push	 DWORD PTR [esi]
  001c5	ff 37		 push	 DWORD PTR [edi]
  001c7	6a 78		 push	 120			; 00000078H
  001c9	57		 push	 edi
  001ca	e8 00 00 00 00	 call	 ?GCActionSend@@YAXPAUOBJECTSTRUCT@@EHH@Z ; GCActionSend

; 547  : 		gObjAttack(lpObj, &gObj[lpObj->TargetNumber], 0, 0, 0, 0, 0,0,0);

  001cf	0f bf 87 38 06
	00 00		 movsx	 eax, WORD PTR [edi+1592]
  001d6	6a 00		 push	 0
  001d8	6a 00		 push	 0
  001da	6a 00		 push	 0
  001dc	6a 00		 push	 0
  001de	6a 00		 push	 0
  001e0	69 c0 40 27 00
	00		 imul	 eax, eax, 10048
  001e6	6a 00		 push	 0
  001e8	6a 00		 push	 0
  001ea	03 05 00 00 00
	00		 add	 eax, DWORD PTR ?gObj@@3PAUOBJECTSTRUCT@@A ; gObj
  001f0	50		 push	 eax
  001f1	57		 push	 edi
  001f2	e8 00 00 00 00	 call	 ?gObjAttack@@YAXPAUOBJECTSTRUCT@@0PAVCMagicInf@@HEHHEE@Z ; gObjAttack
  001f7	83 c4 44	 add	 esp, 68			; 00000044H
$LN16@ApplyEleme:

; 548  : 
; 549  : 		return FALSE;

  001fa	5f		 pop	 edi
  001fb	33 c0		 xor	 eax, eax
  001fd	5e		 pop	 esi

; 550  : 	}
; 551  : }

  001fe	8b e5		 mov	 esp, ebp
  00200	5d		 pop	 ebp
  00201	c2 0c 00	 ret	 12			; 0000000cH
?ApplyElementAttack@TMonsterAIElement@@QAEHHHPAVTMonsterAIState@@@Z ENDP ; TMonsterAIElement::ApplyElementAttack
_TEXT	ENDS
; Function compile flags: /Ogtp
; File c:\users\michel\desktop\source\gameserver\source\tmonsteraielement.cpp
;	COMDAT ?ApplyElementGroupMove@TMonsterAIElement@@QAEHHHPAVTMonsterAIState@@@Z
_TEXT	SEGMENT
_iIndex$ = 8						; size = 4
_iTargetIndex$ = 12					; size = 4
_pAIState$ = 16						; size = 4
?ApplyElementGroupMove@TMonsterAIElement@@QAEHHHPAVTMonsterAIState@@@Z PROC ; TMonsterAIElement::ApplyElementGroupMove, COMDAT
; _this$ = ecx

; 421  : {

  00000	55		 push	 ebp
  00001	8b ec		 mov	 ebp, esp

; 422  : 	LPOBJ lpObj = &gObj[iIndex];

  00003	8b 45 08	 mov	 eax, DWORD PTR _iIndex$[ebp]
  00006	56		 push	 esi
  00007	69 f0 40 27 00
	00		 imul	 esi, eax, 10048

; 423  : 	UTIL.SendCrywolfChattingMsg(iIndex, "Element-");

  0000d	68 00 00 00 00	 push	 OFFSET ??_C@_0BB@MPDHJEMA@Element?9?$LB?W?$LH?l?$MA?L?$LF?$LP?$AA@
  00012	50		 push	 eax
  00013	68 00 00 00 00	 push	 OFFSET ?UTIL@@3VCCrywolfUtil@@A
  00018	03 35 00 00 00
	00		 add	 esi, DWORD PTR ?gObj@@3PAUOBJECTSTRUCT@@A ; gObj
  0001e	e8 00 00 00 00	 call	 ?SendCrywolfChattingMsg@CCrywolfUtil@@QAAXHPADZZ ; CCrywolfUtil::SendCrywolfChattingMsg
  00023	83 c4 0c	 add	 esp, 12			; 0000000cH

; 424  : 
; 425  : 	if ( lpObj->PathStartEnd )

  00026	80 be 60 01 00
	00 00		 cmp	 BYTE PTR [esi+352], 0
  0002d	0f 85 b8 00 00
	00		 jne	 $LN11@ApplyEleme

; 426  : 		return FALSE;
; 427  : 
; 428  : 	BOOL bFindXY = FALSE;
; 429  : 	BOOL bFoundLeader = TRUE;
; 430  : 	int iLeaderIndex = -1;
; 431  : 	iLeaderIndex = TMonsterAIGroup::FindGroupLeader(lpObj->m_iGroupNumber);

  00033	57		 push	 edi
  00034	ff b6 dc 20 00
	00		 push	 DWORD PTR [esi+8412]
  0003a	e8 00 00 00 00	 call	 ?FindGroupLeader@TMonsterAIGroup@@SAHH@Z ; TMonsterAIGroup::FindGroupLeader
  0003f	8b f8		 mov	 edi, eax
  00041	83 c4 04	 add	 esp, 4

; 432  : 
; 433  : 	if ( iLeaderIndex == -1 || gObj[iLeaderIndex].Live == FALSE )

  00044	83 ff ff	 cmp	 edi, -1
  00047	74 35		 je	 SHORT $LN5@ApplyEleme
  00049	69 c7 40 27 00
	00		 imul	 eax, edi, 10048
  0004f	03 05 00 00 00
	00		 add	 eax, DWORD PTR ?gObj@@3PAUOBJECTSTRUCT@@A ; gObj
  00055	80 78 51 00	 cmp	 BYTE PTR [eax+81], 0
  00059	74 23		 je	 SHORT $LN5@ApplyEleme

; 434  : 		bFoundLeader = FALSE;
; 435  : 
; 436  : 	if ( bFoundLeader && gObjCalDistance(lpObj, &gObj[iLeaderIndex]) > 6 )

  0005b	50		 push	 eax
  0005c	56		 push	 esi
  0005d	e8 00 00 00 00	 call	 ?gObjCalDistance@@YAHPAUOBJECTSTRUCT@@0@Z ; gObjCalDistance
  00062	83 c4 08	 add	 esp, 8
  00065	83 f8 06	 cmp	 eax, 6
  00068	7e 14		 jle	 SHORT $LN5@ApplyEleme

; 437  : 	{
; 438  : 		lpObj->TargetNumber = iLeaderIndex;
; 439  : 		bFindXY = MONSTER_UTIL.GetXYToChase(lpObj);

  0006a	56		 push	 esi
  0006b	b9 00 00 00 00	 mov	 ecx, OFFSET ?MONSTER_UTIL@@3VTMonsterAIUtil@@A
  00070	66 89 be 38 06
	00 00		 mov	 WORD PTR [esi+1592], di
  00077	e8 00 00 00 00	 call	 ?GetXYToChase@TMonsterAIUtil@@QAEHPAUOBJECTSTRUCT@@@Z ; TMonsterAIUtil::GetXYToChase
  0007c	eb 1b		 jmp	 SHORT $LN8@ApplyEleme
$LN5@ApplyEleme:

; 440  : 	}
; 441  : 	else if ( pAIState->m_iTransitionType == 2 )

  0007e	8b 45 10	 mov	 eax, DWORD PTR _pAIState$[ebp]

; 442  : 	{
; 443  : 		bFindXY = MONSTER_UTIL.GetXYToChase(lpObj);

  00081	b9 00 00 00 00	 mov	 ecx, OFFSET ?MONSTER_UTIL@@3VTMonsterAIUtil@@A
  00086	56		 push	 esi
  00087	83 78 0c 02	 cmp	 DWORD PTR [eax+12], 2
  0008b	75 07		 jne	 SHORT $LN7@ApplyEleme
  0008d	e8 00 00 00 00	 call	 ?GetXYToChase@TMonsterAIUtil@@QAEHPAUOBJECTSTRUCT@@@Z ; TMonsterAIUtil::GetXYToChase

; 444  : 	}
; 445  : 	else

  00092	eb 05		 jmp	 SHORT $LN8@ApplyEleme
$LN7@ApplyEleme:

; 446  : 	{
; 447  : 		bFindXY = MONSTER_UTIL.GetXYToPatrol(lpObj);

  00094	e8 00 00 00 00	 call	 ?GetXYToPatrol@TMonsterAIUtil@@QAEHPAUOBJECTSTRUCT@@@Z ; TMonsterAIUtil::GetXYToPatrol
$LN8@ApplyEleme:
  00099	5f		 pop	 edi

; 448  : 	}
; 449  : 
; 450  : 	if ( bFindXY )

  0009a	85 c0		 test	 eax, eax
  0009c	74 4d		 je	 SHORT $LN11@ApplyEleme

; 451  : 	{
; 452  : 		if ( MONSTER_UTIL.FindPathToMoveMonster(lpObj, lpObj->MTX, lpObj->MTY, 5, TRUE) )

  0009e	0f b6 86 55 01
	00 00		 movzx	 eax, BYTE PTR [esi+341]
  000a5	b9 00 00 00 00	 mov	 ecx, OFFSET ?MONSTER_UTIL@@3VTMonsterAIUtil@@A
  000aa	6a 01		 push	 1
  000ac	6a 05		 push	 5
  000ae	50		 push	 eax
  000af	0f b6 86 54 01
	00 00		 movzx	 eax, BYTE PTR [esi+340]
  000b6	50		 push	 eax
  000b7	56		 push	 esi
  000b8	e8 00 00 00 00	 call	 ?FindPathToMoveMonster@TMonsterAIUtil@@QAEHPAUOBJECTSTRUCT@@HHHH@Z ; TMonsterAIUtil::FindPathToMoveMonster
  000bd	85 c0		 test	 eax, eax
  000bf	75 2a		 jne	 SHORT $LN11@ApplyEleme

; 453  : 		{
; 454  : 
; 455  : 		}
; 456  : 		else
; 457  : 		{
; 458  : 			MONSTER_UTIL.GetXYToPatrol(lpObj);

  000c1	56		 push	 esi
  000c2	b9 00 00 00 00	 mov	 ecx, OFFSET ?MONSTER_UTIL@@3VTMonsterAIUtil@@A
  000c7	e8 00 00 00 00	 call	 ?GetXYToPatrol@TMonsterAIUtil@@QAEHPAUOBJECTSTRUCT@@@Z ; TMonsterAIUtil::GetXYToPatrol

; 459  : 			MONSTER_UTIL.FindPathToMoveMonster(lpObj, lpObj->MTX, lpObj->MTY, 5, TRUE);

  000cc	0f b6 86 55 01
	00 00		 movzx	 eax, BYTE PTR [esi+341]
  000d3	b9 00 00 00 00	 mov	 ecx, OFFSET ?MONSTER_UTIL@@3VTMonsterAIUtil@@A
  000d8	6a 01		 push	 1
  000da	6a 05		 push	 5
  000dc	50		 push	 eax
  000dd	0f b6 86 54 01
	00 00		 movzx	 eax, BYTE PTR [esi+340]
  000e4	50		 push	 eax
  000e5	56		 push	 esi
  000e6	e8 00 00 00 00	 call	 ?FindPathToMoveMonster@TMonsterAIUtil@@QAEHPAUOBJECTSTRUCT@@HHHH@Z ; TMonsterAIUtil::FindPathToMoveMonster
$LN11@ApplyEleme:

; 460  : 		}
; 461  : 	}
; 462  : 
; 463  : 	return FALSE;

  000eb	33 c0		 xor	 eax, eax
  000ed	5e		 pop	 esi

; 464  : }

  000ee	5d		 pop	 ebp
  000ef	c2 0c 00	 ret	 12			; 0000000cH
?ApplyElementGroupMove@TMonsterAIElement@@QAEHHHPAVTMonsterAIState@@@Z ENDP ; TMonsterAIElement::ApplyElementGroupMove
_TEXT	ENDS
; Function compile flags: /Ogtp
; File c:\users\michel\desktop\source\gameserver\source\tmonsteraielement.cpp
; File c:\program files (x86)\windows kits\10\include\10.0.10240.0\ucrt\math.h
; File c:\users\michel\desktop\source\gameserver\source\tmonsteraielement.cpp
; File c:\program files (x86)\windows kits\10\include\10.0.10240.0\ucrt\math.h
; File c:\users\michel\desktop\source\gameserver\source\tmonsteraielement.cpp
;	COMDAT ?ApplyElementMoveTarget@TMonsterAIElement@@QAEHHHPAVTMonsterAIState@@@Z
_TEXT	SEGMENT
_iMidX$1$ = -36						; size = 4
_iMidY$1$ = -32						; size = 4
_iTargetX$1$ = -28					; size = 4
_iTargetY$1$ = -24					; size = 4
tv539 = -20						; size = 4
tv530 = -20						; size = 4
tv542 = -16						; size = 4
tv540 = -12						; size = 4
tv533 = -8						; size = 4
_lpObj$1$ = -4						; size = 4
_iIndex$ = 8						; size = 4
_iTargetIndex$ = 12					; size = 4
_pAIState$ = 16						; size = 4
?ApplyElementMoveTarget@TMonsterAIElement@@QAEHHHPAVTMonsterAIState@@@Z PROC ; TMonsterAIElement::ApplyElementMoveTarget, COMDAT
; _this$ = ecx

; 341  : {

  00000	55		 push	 ebp
  00001	8b ec		 mov	 ebp, esp
  00003	83 e4 f8	 and	 esp, -8			; fffffff8H
  00006	83 ec 24	 sub	 esp, 36			; 00000024H
  00009	53		 push	 ebx

; 342  : 	LPOBJ lpObj = &gObj[iIndex];

  0000a	8b 5d 08	 mov	 ebx, DWORD PTR _iIndex$[ebp]
  0000d	56		 push	 esi
  0000e	57		 push	 edi
  0000f	69 fb 40 27 00
	00		 imul	 edi, ebx, 10048
  00015	8b f1		 mov	 esi, ecx

; 343  : 
; 344  : 	UTIL.SendCrywolfChattingMsg(iIndex, "Element-MoveTarget");

  00017	68 00 00 00 00	 push	 OFFSET ??_C@_0BD@MCDHLICD@Element?9MoveTarget?$AA@
  0001c	53		 push	 ebx
  0001d	68 00 00 00 00	 push	 OFFSET ?UTIL@@3VCCrywolfUtil@@A
  00022	03 3d 00 00 00
	00		 add	 edi, DWORD PTR ?gObj@@3PAUOBJECTSTRUCT@@A ; gObj
  00028	89 7c 24 38	 mov	 DWORD PTR _lpObj$1$[esp+60], edi
  0002c	e8 00 00 00 00	 call	 ?SendCrywolfChattingMsg@CCrywolfUtil@@QAAXHPADZZ ; CCrywolfUtil::SendCrywolfChattingMsg
  00031	83 c4 0c	 add	 esp, 12			; 0000000cH

; 345  : #if (__CUSTOM__ == 0)
; 346  : 	KANTURU_UTIL.SendKanturuChattingMsg(iIndex, "Element-");
; 347  : #endif
; 348  : 
; 349  : 	if ( lpObj->PathStartEnd )

  00034	80 bf 60 01 00
	00 00		 cmp	 BYTE PTR [edi+352], 0
  0003b	0f 85 a4 01 00
	00		 jne	 $LN37@ApplyEleme

; 350  : 		return FALSE;
; 351  : 
; 352  : 	if ( lpObj->X == this->m_iX &&

  00041	0f b6 97 20 01
	00 00		 movzx	 edx, BYTE PTR [edi+288]
  00048	8b 46 50	 mov	 eax, DWORD PTR [esi+80]
  0004b	89 54 24 20	 mov	 DWORD PTR tv542[esp+48], edx
  0004f	89 44 24 14	 mov	 DWORD PTR _iTargetX$1$[esp+48], eax
  00053	3b d0		 cmp	 edx, eax
  00055	75 25		 jne	 SHORT $LN6@ApplyEleme
  00057	0f b6 87 21 01
	00 00		 movzx	 eax, BYTE PTR [edi+289]
  0005e	3b 46 54	 cmp	 eax, DWORD PTR [esi+84]
  00061	75 19		 jne	 SHORT $LN6@ApplyEleme

; 353  : 		 lpObj->Y == this->m_iY )
; 354  : 	{
; 355  : 		this->ApplyElementMove(iIndex, iTargetIndex, pAIState);

  00063	ff 75 10	 push	 DWORD PTR _pAIState$[ebp]
  00066	8b ce		 mov	 ecx, esi
  00068	ff 75 0c	 push	 DWORD PTR _iTargetIndex$[ebp]
  0006b	53		 push	 ebx
  0006c	e8 00 00 00 00	 call	 ?ApplyElementMove@TMonsterAIElement@@QAEHHHPAVTMonsterAIState@@@Z ; TMonsterAIElement::ApplyElementMove

; 410  : 			lpObj->PathStartEnd = 1;
; 411  : 		else
; 412  : 			lpObj->PathStartEnd = 0;
; 413  : 	}
; 414  : 
; 415  : 	return FALSE;

  00071	33 c0		 xor	 eax, eax

; 416  : }

  00073	5f		 pop	 edi
  00074	5e		 pop	 esi
  00075	5b		 pop	 ebx
  00076	8b e5		 mov	 esp, ebp
  00078	5d		 pop	 ebp
  00079	c2 0c 00	 ret	 12			; 0000000cH
$LN6@ApplyEleme:

; 363  : 	
; 364  : 	if ( TMonsterAIElement::s_MonsterAIMovePath[lpObj->MapNumber].m_bDataLoad )

  0007c	0f b6 87 23 01
	00 00		 movzx	 eax, BYTE PTR [edi+291]
  00083	8b 5e 54	 mov	 ebx, DWORD PTR [esi+84]
  00086	8b 74 24 14	 mov	 esi, DWORD PTR _iTargetX$1$[esp+48]
  0008a	69 c0 cc 12 00
	00		 imul	 eax, eax, 4812
  00090	89 5c 24 18	 mov	 DWORD PTR _iTargetY$1$[esp+48], ebx
  00094	89 44 24 1c	 mov	 DWORD PTR tv539[esp+48], eax
  00098	83 b8 04 00 00
	00 00		 cmp	 DWORD PTR ?s_MonsterAIMovePath@TMonsterAIElement@@2PAVTMonsterAIMovePath@@A[eax+4], 0
  0009f	0f 84 24 01 00
	00		 je	 $LN31@ApplyEleme

; 356  : 		return FALSE;
; 357  : 	}
; 358  : 
; 359  : 	BOOL bFindXY = TRUE;
; 360  : 	int iTargetX = this->m_iX;
; 361  : 	int iTargetY = this->m_iY;
; 362  : 	int iTargetDistance = (int)sqrt(double(((lpObj->X - iTargetX)*(lpObj->X - iTargetX))+ ((lpObj->Y - iTargetY)*(lpObj->Y - iTargetY))));

  000a5	0f b6 87 21 01
	00 00		 movzx	 eax, BYTE PTR [edi+289]
  000ac	8b c8		 mov	 ecx, eax
  000ae	89 44 24 24	 mov	 DWORD PTR tv540[esp+48], eax
  000b2	8b c2		 mov	 eax, edx
  000b4	2b cb		 sub	 ecx, ebx
  000b6	2b c6		 sub	 eax, esi
  000b8	0f af c9	 imul	 ecx, ecx
  000bb	0f af c0	 imul	 eax, eax
  000be	03 c1		 add	 eax, ecx
  000c0	66 0f 6e c0	 movd	 xmm0, eax
  000c4	f3 0f e6 c0	 cvtdq2pd xmm0, xmm0
  000c8	e8 00 00 00 00	 call	 __libm_sse2_sqrt_precise
  000cd	f2 0f 2c c0	 cvttsd2si eax, xmm0

; 365  : 	{
; 366  : 		if ( iTargetDistance > 10 )

  000d1	83 f8 0a	 cmp	 eax, 10			; 0000000aH
  000d4	0f 8e ef 00 00
	00		 jle	 $LN31@ApplyEleme

; 367  : 		{
; 368  : 			int iMinCost = 1000000;

  000da	8b 44 24 1c	 mov	 eax, DWORD PTR tv539[esp+48]
  000de	bf 40 42 0f 00	 mov	 edi, 1000000		; 000f4240H

; 369  : 			int iMidX = -1;

  000e3	c7 44 24 0c ff
	ff ff ff	 mov	 DWORD PTR _iMidX$1$[esp+48], -1
  000eb	bb 2c 01 00 00	 mov	 ebx, 300		; 0000012cH

; 370  : 			int iMidY = -1;

  000f0	c7 44 24 10 ff
	ff ff ff	 mov	 DWORD PTR _iMidY$1$[esp+48], -1
  000f8	8d b0 14 00 00
	00		 lea	 esi, DWORD PTR ?s_MonsterAIMovePath@TMonsterAIElement@@2PAVTMonsterAIMovePath@@A[eax+20]
  000fe	66 90		 npad	 2
$LL4@ApplyEleme:

; 374  : 			{
; 375  : 				TMonsterAIMovePathInfo & PathInfo = TMonsterAIElement::s_MonsterAIMovePath[lpObj->MapNumber].m_MovePathInfo[i];
; 376  : 				float fDistX = (float)(lpObj->X - PathInfo.m_iPathX);

  00100	8b 46 fc	 mov	 eax, DWORD PTR [esi-4]
  00103	f7 d8		 neg	 eax
  00105	89 44 24 1c	 mov	 DWORD PTR tv530[esp+48], eax
  00109	03 44 24 20	 add	 eax, DWORD PTR tv542[esp+48]
  0010d	66 0f 6e c8	 movd	 xmm1, eax

; 377  : 				float fDistY = (float)(lpObj->Y - PathInfo.m_iPathY);

  00111	8b 06		 mov	 eax, DWORD PTR [esi]
  00113	f7 d8		 neg	 eax
  00115	89 44 24 28	 mov	 DWORD PTR tv533[esp+48], eax
  00119	03 44 24 24	 add	 eax, DWORD PTR tv540[esp+48]
  0011d	0f 5b c9	 cvtdq2ps xmm1, xmm1
  00120	66 0f 6e c0	 movd	 xmm0, eax
  00124	0f 5b c0	 cvtdq2ps xmm0, xmm0

; 378  : 				int iPathSpotDist =  (int)sqrt( (fDistX*fDistX) + (fDistY*fDistY) );

  00127	f3 0f 59 c9	 mulss	 xmm1, xmm1
  0012b	f3 0f 59 c0	 mulss	 xmm0, xmm0
  0012f	f3 0f 58 c1	 addss	 xmm0, xmm1
; File c:\program files (x86)\windows kits\10\include\10.0.10240.0\ucrt\math.h

; 746  :         return (float)sqrt(_X);

  00133	0f 5a c0	 cvtps2pd xmm0, xmm0
  00136	e8 00 00 00 00	 call	 __libm_sse2_sqrt_precise
  0013b	f2 0f 5a c0	 cvtsd2ss xmm0, xmm0
; File c:\users\michel\desktop\source\gameserver\source\tmonsteraielement.cpp

; 378  : 				int iPathSpotDist =  (int)sqrt( (fDistX*fDistX) + (fDistY*fDistY) );

  0013f	f3 0f 2c c0	 cvttss2si eax, xmm0

; 379  : 
; 380  : 				if ( iPathSpotDist < 20 )

  00143	83 f8 14	 cmp	 eax, 20			; 00000014H
  00146	7d 53		 jge	 SHORT $LN36@ApplyEleme

; 381  : 				{
; 382  : 					fDistX = (float)(iTargetX - PathInfo.m_iPathX);

  00148	8b 44 24 14	 mov	 eax, DWORD PTR _iTargetX$1$[esp+48]
  0014c	03 44 24 1c	 add	 eax, DWORD PTR tv530[esp+48]
  00150	66 0f 6e c8	 movd	 xmm1, eax

; 383  : 					fDistY = (float)(iTargetY - PathInfo.m_iPathY);

  00154	8b 44 24 28	 mov	 eax, DWORD PTR tv533[esp+48]
  00158	03 44 24 18	 add	 eax, DWORD PTR _iTargetY$1$[esp+48]
  0015c	0f 5b c9	 cvtdq2ps xmm1, xmm1
  0015f	66 0f 6e c0	 movd	 xmm0, eax
  00163	0f 5b c0	 cvtdq2ps xmm0, xmm0

; 384  : 					int iMidDist = (int)sqrt( (fDistX*fDistX) + (fDistY*fDistY) );

  00166	f3 0f 59 c9	 mulss	 xmm1, xmm1
  0016a	f3 0f 59 c0	 mulss	 xmm0, xmm0
  0016e	f3 0f 58 c1	 addss	 xmm0, xmm1
; File c:\program files (x86)\windows kits\10\include\10.0.10240.0\ucrt\math.h

; 746  :         return (float)sqrt(_X);

  00172	0f 5a c0	 cvtps2pd xmm0, xmm0
  00175	e8 00 00 00 00	 call	 __libm_sse2_sqrt_precise
  0017a	f2 0f 5a c0	 cvtsd2ss xmm0, xmm0
; File c:\users\michel\desktop\source\gameserver\source\tmonsteraielement.cpp

; 384  : 					int iMidDist = (int)sqrt( (fDistX*fDistX) + (fDistY*fDistY) );

  0017e	f3 0f 2c c0	 cvttss2si eax, xmm0

; 385  : 
; 386  : 					if ( iMinCost > iMidDist )

  00182	3b f8		 cmp	 edi, eax
  00184	7e 15		 jle	 SHORT $LN36@ApplyEleme

; 387  : 					{
; 388  : 						if ( iMidDist )

  00186	85 c0		 test	 eax, eax
  00188	74 11		 je	 SHORT $LN36@ApplyEleme

; 389  : 						{
; 390  : 							iMinCost = iMidDist;
; 391  : 							iMidX = PathInfo.m_iPathX;
; 392  : 							iMidY = PathInfo.m_iPathY;

  0018a	8b 0e		 mov	 ecx, DWORD PTR [esi]
  0018c	8b f8		 mov	 edi, eax
  0018e	8b 46 fc	 mov	 eax, DWORD PTR [esi-4]
  00191	89 44 24 0c	 mov	 DWORD PTR _iMidX$1$[esp+48], eax
  00195	89 4c 24 10	 mov	 DWORD PTR _iMidY$1$[esp+48], ecx
  00199	eb 08		 jmp	 SHORT $LN2@ApplyEleme
$LN36@ApplyEleme:
  0019b	8b 44 24 0c	 mov	 eax, DWORD PTR _iMidX$1$[esp+48]
  0019f	8b 4c 24 10	 mov	 ecx, DWORD PTR _iMidY$1$[esp+48]
$LN2@ApplyEleme:

; 371  : 			int iSpotNum = -1;
; 372  : 
; 373  : 			for ( int i=0;i<MAX_MONSTER_AI_MOVE_PATH;i++)

  001a3	83 c6 10	 add	 esi, 16			; 00000010H
  001a6	83 eb 01	 sub	 ebx, 1
  001a9	0f 85 51 ff ff
	ff		 jne	 $LL4@ApplyEleme

; 393  : 							iSpotNum = i;
; 394  : 						}
; 395  : 					}
; 396  : 				}
; 397  : 			}
; 398  : 
; 399  : 			if ( iMinCost != 1000000 )

  001af	81 ff 40 42 0f
	00		 cmp	 edi, 1000000		; 000f4240H
  001b5	8b 7c 24 2c	 mov	 edi, DWORD PTR _lpObj$1$[esp+48]
  001b9	74 06		 je	 SHORT $LN32@ApplyEleme

; 400  : 			{
; 401  : 				iTargetX = iMidX;

  001bb	8b f0		 mov	 esi, eax

; 402  : 				iTargetY = iMidY;

  001bd	8b d9		 mov	 ebx, ecx
  001bf	eb 08		 jmp	 SHORT $LN31@ApplyEleme
$LN32@ApplyEleme:
  001c1	8b 74 24 14	 mov	 esi, DWORD PTR _iTargetX$1$[esp+48]
  001c5	8b 5c 24 18	 mov	 ebx, DWORD PTR _iTargetY$1$[esp+48]
$LN31@ApplyEleme:

; 403  : 			}
; 404  : 		}
; 405  : 	}
; 406  : 
; 407  : 	if ( bFindXY )
; 408  : 	{
; 409  : 		if ( MONSTER_UTIL.FindPathToMoveMonster(lpObj, iTargetX, iTargetY, 7, FALSE) )

  001c9	6a 00		 push	 0
  001cb	6a 07		 push	 7
  001cd	53		 push	 ebx
  001ce	56		 push	 esi
  001cf	57		 push	 edi
  001d0	b9 00 00 00 00	 mov	 ecx, OFFSET ?MONSTER_UTIL@@3VTMonsterAIUtil@@A
  001d5	e8 00 00 00 00	 call	 ?FindPathToMoveMonster@TMonsterAIUtil@@QAEHPAUOBJECTSTRUCT@@HHHH@Z ; TMonsterAIUtil::FindPathToMoveMonster
  001da	85 c0		 test	 eax, eax
  001dc	0f 95 c0	 setne	 al
  001df	88 87 60 01 00
	00		 mov	 BYTE PTR [edi+352], al
$LN37@ApplyEleme:

; 416  : }

  001e5	5f		 pop	 edi
  001e6	5e		 pop	 esi
  001e7	33 c0		 xor	 eax, eax
  001e9	5b		 pop	 ebx
  001ea	8b e5		 mov	 esp, ebp
  001ec	5d		 pop	 ebp
  001ed	c2 0c 00	 ret	 12			; 0000000cH
?ApplyElementMoveTarget@TMonsterAIElement@@QAEHHHPAVTMonsterAIState@@@Z ENDP ; TMonsterAIElement::ApplyElementMoveTarget
_TEXT	ENDS
; Function compile flags: /Ogtp
; File c:\users\michel\desktop\source\gameserver\source\tmonsteraielement.cpp
;	COMDAT ?ApplyElementMove@TMonsterAIElement@@QAEHHHPAVTMonsterAIState@@@Z
_TEXT	SEGMENT
_iIndex$ = 8						; size = 4
_iTargetIndex$ = 12					; size = 4
_pAIState$ = 16						; size = 4
?ApplyElementMove@TMonsterAIElement@@QAEHHHPAVTMonsterAIState@@@Z PROC ; TMonsterAIElement::ApplyElementMove, COMDAT
; _this$ = ecx

; 318  : {

  00000	55		 push	 ebp
  00001	8b ec		 mov	 ebp, esp
  00003	56		 push	 esi

; 319  : 	LPOBJ lpObj = &gObj[iIndex];

  00004	8b 75 08	 mov	 esi, DWORD PTR _iIndex$[ebp]
  00007	57		 push	 edi
  00008	69 fe 40 27 00
	00		 imul	 edi, esi, 10048

; 320  : 	UTIL.SendCrywolfChattingMsg(iIndex, "Element-");

  0000e	68 00 00 00 00	 push	 OFFSET ??_C@_0N@HNCNKMKN@Element?9?$MA?L?$LF?$LP?$AA@
  00013	56		 push	 esi
  00014	68 00 00 00 00	 push	 OFFSET ?UTIL@@3VCCrywolfUtil@@A
  00019	03 3d 00 00 00
	00		 add	 edi, DWORD PTR ?gObj@@3PAUOBJECTSTRUCT@@A ; gObj
  0001f	e8 00 00 00 00	 call	 ?SendCrywolfChattingMsg@CCrywolfUtil@@QAAXHPADZZ ; CCrywolfUtil::SendCrywolfChattingMsg

; 321  : 	KANTURU_UTIL.SendKanturuChattingMsg(iIndex, "Element-");

  00024	68 00 00 00 00	 push	 OFFSET ??_C@_0N@HNCNKMKN@Element?9?$MA?L?$LF?$LP?$AA@
  00029	56		 push	 esi
  0002a	68 00 00 00 00	 push	 OFFSET ?KANTURU_UTIL@@3VCKanturuUtil@@A
  0002f	e8 00 00 00 00	 call	 ?SendKanturuChattingMsg@CKanturuUtil@@QAAXHPADZZ ; CKanturuUtil::SendKanturuChattingMsg
  00034	83 c4 18	 add	 esp, 24			; 00000018H

; 322  : 
; 323  : 	if ( lpObj->PathStartEnd )

  00037	80 bf 60 01 00
	00 00		 cmp	 BYTE PTR [edi+352], 0
  0003e	75 3e		 jne	 SHORT $LN5@ApplyEleme

; 324  : 		return FALSE;
; 325  : 
; 326  : 	BOOL bFindXY = FALSE;
; 327  : 
; 328  : 	if ( pAIState->m_iTransitionType == 2 )

  00040	8b 45 10	 mov	 eax, DWORD PTR _pAIState$[ebp]

; 329  : 		bFindXY = MONSTER_UTIL.GetXYToChase(lpObj);

  00043	b9 00 00 00 00	 mov	 ecx, OFFSET ?MONSTER_UTIL@@3VTMonsterAIUtil@@A
  00048	57		 push	 edi
  00049	83 78 0c 02	 cmp	 DWORD PTR [eax+12], 2
  0004d	75 07		 jne	 SHORT $LN3@ApplyEleme
  0004f	e8 00 00 00 00	 call	 ?GetXYToChase@TMonsterAIUtil@@QAEHPAUOBJECTSTRUCT@@@Z ; TMonsterAIUtil::GetXYToChase

; 330  : 	else

  00054	eb 05		 jmp	 SHORT $LN4@ApplyEleme
$LN3@ApplyEleme:

; 331  : 		bFindXY = MONSTER_UTIL.GetXYToPatrol(lpObj);

  00056	e8 00 00 00 00	 call	 ?GetXYToPatrol@TMonsterAIUtil@@QAEHPAUOBJECTSTRUCT@@@Z ; TMonsterAIUtil::GetXYToPatrol
$LN4@ApplyEleme:

; 332  : 
; 333  : 	if ( bFindXY )

  0005b	85 c0		 test	 eax, eax
  0005d	74 1f		 je	 SHORT $LN5@ApplyEleme

; 334  : 		MONSTER_UTIL.FindPathToMoveMonster(lpObj, lpObj->MTX, lpObj->MTY, 5, 1);

  0005f	0f b6 87 55 01
	00 00		 movzx	 eax, BYTE PTR [edi+341]
  00066	b9 00 00 00 00	 mov	 ecx, OFFSET ?MONSTER_UTIL@@3VTMonsterAIUtil@@A
  0006b	6a 01		 push	 1
  0006d	6a 05		 push	 5
  0006f	50		 push	 eax
  00070	0f b6 87 54 01
	00 00		 movzx	 eax, BYTE PTR [edi+340]
  00077	50		 push	 eax
  00078	57		 push	 edi
  00079	e8 00 00 00 00	 call	 ?FindPathToMoveMonster@TMonsterAIUtil@@QAEHPAUOBJECTSTRUCT@@HHHH@Z ; TMonsterAIUtil::FindPathToMoveMonster
$LN5@ApplyEleme:

; 335  : 
; 336  : 	return FALSE;

  0007e	5f		 pop	 edi
  0007f	33 c0		 xor	 eax, eax
  00081	5e		 pop	 esi

; 337  : }

  00082	5d		 pop	 ebp
  00083	c2 0c 00	 ret	 12			; 0000000cH
?ApplyElementMove@TMonsterAIElement@@QAEHHHPAVTMonsterAIState@@@Z ENDP ; TMonsterAIElement::ApplyElementMove
_TEXT	ENDS
; Function compile flags: /Ogtp
; File c:\users\michel\desktop\source\gameserver\source\tmonsteraielement.cpp
;	COMDAT ?ApplyElementCommon@TMonsterAIElement@@QAEHHHPAVTMonsterAIState@@@Z
_TEXT	SEGMENT
_iIndex$ = 8						; size = 4
_iTargetIndex$ = 12					; size = 4
_pAIState$ = 16						; size = 4
?ApplyElementCommon@TMonsterAIElement@@QAEHHHPAVTMonsterAIState@@@Z PROC ; TMonsterAIElement::ApplyElementCommon, COMDAT
; _this$ = ecx

; 309  : {

  00000	55		 push	 ebp
  00001	8b ec		 mov	 ebp, esp

; 310  : 	LPOBJ lpObj = &gObj[iIndex];
; 311  : 	KANTURU_UTIL.SendKanturuChattingMsg(iIndex, " !");

  00003	68 00 00 00 00	 push	 OFFSET ??_C@_0N@HHEEIAEO@?$LO?Q?$LN?N?5?A?$LP?D?m?$LD?$KK?$CB?$AA@
  00008	ff 75 08	 push	 DWORD PTR _iIndex$[ebp]
  0000b	68 00 00 00 00	 push	 OFFSET ?KANTURU_UTIL@@3VCKanturuUtil@@A
  00010	e8 00 00 00 00	 call	 ?SendKanturuChattingMsg@CKanturuUtil@@QAAXHPADZZ ; CKanturuUtil::SendKanturuChattingMsg
  00015	83 c4 0c	 add	 esp, 12			; 0000000cH

; 312  : 
; 313  : 	return FALSE;

  00018	33 c0		 xor	 eax, eax

; 314  : }

  0001a	5d		 pop	 ebp
  0001b	c2 0c 00	 ret	 12			; 0000000cH
?ApplyElementCommon@TMonsterAIElement@@QAEHHHPAVTMonsterAIState@@@Z ENDP ; TMonsterAIElement::ApplyElementCommon
_TEXT	ENDS
; Function compile flags: /Ogtp
; File c:\users\michel\desktop\source\gameserver\source\tmonsteraielement.cpp
;	COMDAT ?ForceAIElement@TMonsterAIElement@@QAEHHHPAVTMonsterAIState@@@Z
_TEXT	SEGMENT
_iIndex$ = 8						; size = 4
_iTargetIndex$ = 12					; size = 4
_pAIState$ = 16						; size = 4
?ForceAIElement@TMonsterAIElement@@QAEHHHPAVTMonsterAIState@@@Z PROC ; TMonsterAIElement::ForceAIElement, COMDAT
; _this$ = ecx

; 226  : {

  00000	55		 push	 ebp
  00001	8b ec		 mov	 ebp, esp
  00003	56		 push	 esi
  00004	8b f1		 mov	 esi, ecx

; 227  : 	LPOBJ lpObj = &gObj[iIndex];
; 228  : 
; 229  : 	if ( (rand()%100) > this->m_iSuccessRate )

  00006	e8 00 00 00 00	 call	 _rand
  0000b	99		 cdq
  0000c	b9 64 00 00 00	 mov	 ecx, 100		; 00000064H
  00011	f7 f9		 idiv	 ecx
  00013	3b 56 44	 cmp	 edx, DWORD PTR [esi+68]
  00016	7e 07		 jle	 SHORT $LN4@ForceAIEle

; 230  : 		return FALSE;

  00018	33 c0		 xor	 eax, eax
  0001a	5e		 pop	 esi

; 303  : }

  0001b	5d		 pop	 ebp
  0001c	c2 0c 00	 ret	 12			; 0000000cH
$LN4@ForceAIEle:

; 231  : 
; 232  : 	switch ( this->m_iElementType )

  0001f	8b 46 40	 mov	 eax, DWORD PTR [esi+64]
  00022	48		 dec	 eax
  00023	83 f8 43	 cmp	 eax, 67			; 00000043H
  00026	0f 87 a4 01 00
	00		 ja	 $LN2@ForceAIEle
  0002c	0f b6 80 00 00
	00 00		 movzx	 eax, BYTE PTR $LN22@ForceAIEle[eax]
  00033	ff 24 85 00 00
	00 00		 jmp	 DWORD PTR $LN24@ForceAIEle[eax*4]
$LN5@ForceAIEle:

; 233  : 	{
; 234  : 		case MAE_TYPE_COMMON_NORMAL:
; 235  : 			this->ApplyElementCommon(iIndex, iTargetIndex, pAIState);

  0003a	ff 75 10	 push	 DWORD PTR _pAIState$[ebp]
  0003d	8b ce		 mov	 ecx, esi
  0003f	ff 75 0c	 push	 DWORD PTR _iTargetIndex$[ebp]
  00042	ff 75 08	 push	 DWORD PTR _iIndex$[ebp]
  00045	e8 00 00 00 00	 call	 ?ApplyElementCommon@TMonsterAIElement@@QAEHHHPAVTMonsterAIState@@@Z ; TMonsterAIElement::ApplyElementCommon

; 300  : 			break;
; 301  : 	}
; 302  : 	return TRUE;

  0004a	b8 01 00 00 00	 mov	 eax, 1
  0004f	5e		 pop	 esi

; 303  : }

  00050	5d		 pop	 ebp
  00051	c2 0c 00	 ret	 12			; 0000000cH
$LN6@ForceAIEle:

; 236  : 			break;
; 237  : 		case MAE_TYPE_MOVE_NORMAL:
; 238  : 			this->ApplyElementMove(iIndex, iTargetIndex, pAIState);

  00054	ff 75 10	 push	 DWORD PTR _pAIState$[ebp]
  00057	8b ce		 mov	 ecx, esi
  00059	ff 75 0c	 push	 DWORD PTR _iTargetIndex$[ebp]
  0005c	ff 75 08	 push	 DWORD PTR _iIndex$[ebp]
  0005f	e8 00 00 00 00	 call	 ?ApplyElementMove@TMonsterAIElement@@QAEHHHPAVTMonsterAIState@@@Z ; TMonsterAIElement::ApplyElementMove

; 300  : 			break;
; 301  : 	}
; 302  : 	return TRUE;

  00064	b8 01 00 00 00	 mov	 eax, 1
  00069	5e		 pop	 esi

; 303  : }

  0006a	5d		 pop	 ebp
  0006b	c2 0c 00	 ret	 12			; 0000000cH
$LN7@ForceAIEle:

; 239  : 			break;
; 240  : 		case MAE_TYPE_MOVE_TARGET:
; 241  : 			this->ApplyElementMoveTarget(iIndex, iTargetIndex, pAIState);

  0006e	ff 75 10	 push	 DWORD PTR _pAIState$[ebp]
  00071	8b ce		 mov	 ecx, esi
  00073	ff 75 0c	 push	 DWORD PTR _iTargetIndex$[ebp]
  00076	ff 75 08	 push	 DWORD PTR _iIndex$[ebp]
  00079	e8 00 00 00 00	 call	 ?ApplyElementMoveTarget@TMonsterAIElement@@QAEHHHPAVTMonsterAIState@@@Z ; TMonsterAIElement::ApplyElementMoveTarget

; 300  : 			break;
; 301  : 	}
; 302  : 	return TRUE;

  0007e	b8 01 00 00 00	 mov	 eax, 1
  00083	5e		 pop	 esi

; 303  : }

  00084	5d		 pop	 ebp
  00085	c2 0c 00	 ret	 12			; 0000000cH
$LN8@ForceAIEle:

; 242  : 			break;
; 243  : 		case MAE_TYPE_GROUP_MOVE:
; 244  : 			this->ApplyElementGroupMove(iIndex, iTargetIndex, pAIState);

  00088	ff 75 10	 push	 DWORD PTR _pAIState$[ebp]
  0008b	8b ce		 mov	 ecx, esi
  0008d	ff 75 0c	 push	 DWORD PTR _iTargetIndex$[ebp]
  00090	ff 75 08	 push	 DWORD PTR _iIndex$[ebp]
  00093	e8 00 00 00 00	 call	 ?ApplyElementGroupMove@TMonsterAIElement@@QAEHHHPAVTMonsterAIState@@@Z ; TMonsterAIElement::ApplyElementGroupMove

; 300  : 			break;
; 301  : 	}
; 302  : 	return TRUE;

  00098	b8 01 00 00 00	 mov	 eax, 1
  0009d	5e		 pop	 esi

; 303  : }

  0009e	5d		 pop	 ebp
  0009f	c2 0c 00	 ret	 12			; 0000000cH
$LN9@ForceAIEle:

; 245  : 			break;
; 246  : 		/*case MAE_TYPE_GROUP_MOVE_TARGET:
; 247  : 			this->(iIndex, iTargetIndex, pAIState);
; 248  : 			break;*/
; 249  : 		case MAE_TYPE_ATTACK_NORMAL:
; 250  : 			this->ApplyElementAttack(iIndex, iTargetIndex, pAIState);

  000a2	ff 75 10	 push	 DWORD PTR _pAIState$[ebp]
  000a5	8b ce		 mov	 ecx, esi
  000a7	ff 75 0c	 push	 DWORD PTR _iTargetIndex$[ebp]
  000aa	ff 75 08	 push	 DWORD PTR _iIndex$[ebp]
  000ad	e8 00 00 00 00	 call	 ?ApplyElementAttack@TMonsterAIElement@@QAEHHHPAVTMonsterAIState@@@Z ; TMonsterAIElement::ApplyElementAttack

; 300  : 			break;
; 301  : 	}
; 302  : 	return TRUE;

  000b2	b8 01 00 00 00	 mov	 eax, 1
  000b7	5e		 pop	 esi

; 303  : }

  000b8	5d		 pop	 ebp
  000b9	c2 0c 00	 ret	 12			; 0000000cH
$LN10@ForceAIEle:

; 251  : 			break;
; 252  : 		case MAE_TYPE_ATTACK_AREA:
; 253  : 			this->ApplyElementAttackArea(iIndex, iTargetIndex, pAIState);

  000bc	ff 75 10	 push	 DWORD PTR _pAIState$[ebp]
  000bf	8b ce		 mov	 ecx, esi
  000c1	ff 75 0c	 push	 DWORD PTR _iTargetIndex$[ebp]
  000c4	ff 75 08	 push	 DWORD PTR _iIndex$[ebp]
  000c7	e8 00 00 00 00	 call	 ?ApplyElementAttackArea@TMonsterAIElement@@QAEHHHPAVTMonsterAIState@@@Z ; TMonsterAIElement::ApplyElementAttackArea

; 300  : 			break;
; 301  : 	}
; 302  : 	return TRUE;

  000cc	b8 01 00 00 00	 mov	 eax, 1
  000d1	5e		 pop	 esi

; 303  : }

  000d2	5d		 pop	 ebp
  000d3	c2 0c 00	 ret	 12			; 0000000cH
$LN11@ForceAIEle:

; 254  : 			break;
; 255  : 		case MAE_TYPE_ATTACK_PENETRATION:
; 256  : 			this->ApplyElementAttackPenetration(iIndex, iTargetIndex, pAIState);

  000d6	ff 75 10	 push	 DWORD PTR _pAIState$[ebp]
  000d9	8b ce		 mov	 ecx, esi
  000db	ff 75 0c	 push	 DWORD PTR _iTargetIndex$[ebp]
  000de	ff 75 08	 push	 DWORD PTR _iIndex$[ebp]
  000e1	e8 00 00 00 00	 call	 ?ApplyElementAttackPenetration@TMonsterAIElement@@QAEHHHPAVTMonsterAIState@@@Z ; TMonsterAIElement::ApplyElementAttackPenetration

; 300  : 			break;
; 301  : 	}
; 302  : 	return TRUE;

  000e6	b8 01 00 00 00	 mov	 eax, 1
  000eb	5e		 pop	 esi

; 303  : }

  000ec	5d		 pop	 ebp
  000ed	c2 0c 00	 ret	 12			; 0000000cH
$LN12@ForceAIEle:

; 257  : 			break;
; 258  : 		case MAE_TYPE_HEAL_SELF:
; 259  : 			this->ApplyElementHealSelf(iIndex, iTargetIndex, pAIState);

  000f0	ff 75 10	 push	 DWORD PTR _pAIState$[ebp]
  000f3	8b ce		 mov	 ecx, esi
  000f5	ff 75 0c	 push	 DWORD PTR _iTargetIndex$[ebp]
  000f8	ff 75 08	 push	 DWORD PTR _iIndex$[ebp]
  000fb	e8 00 00 00 00	 call	 ?ApplyElementHealSelf@TMonsterAIElement@@QAEHHHPAVTMonsterAIState@@@Z ; TMonsterAIElement::ApplyElementHealSelf

; 300  : 			break;
; 301  : 	}
; 302  : 	return TRUE;

  00100	b8 01 00 00 00	 mov	 eax, 1
  00105	5e		 pop	 esi

; 303  : }

  00106	5d		 pop	 ebp
  00107	c2 0c 00	 ret	 12			; 0000000cH
$LN13@ForceAIEle:

; 260  : 			break;
; 261  : 		case MAE_TYPE_HEAL_GROUP:
; 262  : 			this->ApplyElementHealGroup(iIndex, iTargetIndex, pAIState);

  0010a	ff 75 10	 push	 DWORD PTR _pAIState$[ebp]
  0010d	8b ce		 mov	 ecx, esi
  0010f	ff 75 0c	 push	 DWORD PTR _iTargetIndex$[ebp]
  00112	ff 75 08	 push	 DWORD PTR _iIndex$[ebp]
  00115	e8 00 00 00 00	 call	 ?ApplyElementHealGroup@TMonsterAIElement@@QAEHHHPAVTMonsterAIState@@@Z ; TMonsterAIElement::ApplyElementHealGroup

; 300  : 			break;
; 301  : 	}
; 302  : 	return TRUE;

  0011a	b8 01 00 00 00	 mov	 eax, 1
  0011f	5e		 pop	 esi

; 303  : }

  00120	5d		 pop	 ebp
  00121	c2 0c 00	 ret	 12			; 0000000cH
$LN14@ForceAIEle:

; 263  : 			break;
; 264  : 		case MAE_TYPE_AVOID_NORMAL:
; 265  : 			this->ApplyElementAvoid(iIndex, iTargetIndex, pAIState);

  00124	ff 75 10	 push	 DWORD PTR _pAIState$[ebp]
  00127	8b ce		 mov	 ecx, esi
  00129	ff 75 0c	 push	 DWORD PTR _iTargetIndex$[ebp]
  0012c	ff 75 08	 push	 DWORD PTR _iIndex$[ebp]
  0012f	e8 00 00 00 00	 call	 ?ApplyElementAvoid@TMonsterAIElement@@QAEHHHPAVTMonsterAIState@@@Z ; TMonsterAIElement::ApplyElementAvoid

; 300  : 			break;
; 301  : 	}
; 302  : 	return TRUE;

  00134	b8 01 00 00 00	 mov	 eax, 1
  00139	5e		 pop	 esi

; 303  : }

  0013a	5d		 pop	 ebp
  0013b	c2 0c 00	 ret	 12			; 0000000cH
$LN15@ForceAIEle:

; 266  : 			break;
; 267  : 		/*case MAE_TYPE_HELP_HP:
; 268  : 			this->ApplyElement(iIndex, iTargetIndex, pAIState);
; 269  : 			break;*/
; 270  : 		/*case MAE_TYPE_HELP_BUFF:
; 271  : 			this->ApplyElement(iIndex, iTargetIndex, pAIState);
; 272  : 			break;*/
; 273  : 		/*case MAE_TYPE_HELP_TARGET:
; 274  : 			this->ApplyElement(iIndex, iTargetIndex, pAIState);
; 275  : 			break;*/
; 276  : 		/*case MAE_TYPE_SPECIAL:
; 277  : 			this->ApplyElement(iIndex, iTargetIndex, pAIState);
; 278  : 			break;*/
; 279  : 		case MAE_TYPE_SPECIAL_SOMMON:
; 280  : 			this->ApplyElementSpecialSommon(iIndex, iTargetIndex, pAIState);

  0013e	ff 75 10	 push	 DWORD PTR _pAIState$[ebp]
  00141	8b ce		 mov	 ecx, esi
  00143	ff 75 0c	 push	 DWORD PTR _iTargetIndex$[ebp]
  00146	ff 75 08	 push	 DWORD PTR _iIndex$[ebp]
  00149	e8 00 00 00 00	 call	 ?ApplyElementSpecialSommon@TMonsterAIElement@@QAEHHHPAVTMonsterAIState@@@Z ; TMonsterAIElement::ApplyElementSpecialSommon

; 300  : 			break;
; 301  : 	}
; 302  : 	return TRUE;

  0014e	b8 01 00 00 00	 mov	 eax, 1
  00153	5e		 pop	 esi

; 303  : }

  00154	5d		 pop	 ebp
  00155	c2 0c 00	 ret	 12			; 0000000cH
$LN16@ForceAIEle:

; 281  : 			break;
; 282  : 		case MAE_TYPE_SPECIAL_NIGHTMARE_SUMMON:
; 283  : 			this->ApplyElementNightmareSummon(iIndex, iTargetIndex, pAIState);

  00158	ff 75 10	 push	 DWORD PTR _pAIState$[ebp]
  0015b	8b ce		 mov	 ecx, esi
  0015d	ff 75 0c	 push	 DWORD PTR _iTargetIndex$[ebp]
  00160	ff 75 08	 push	 DWORD PTR _iIndex$[ebp]
  00163	e8 00 00 00 00	 call	 ?ApplyElementNightmareSummon@TMonsterAIElement@@QAEHHHPAVTMonsterAIState@@@Z ; TMonsterAIElement::ApplyElementNightmareSummon

; 300  : 			break;
; 301  : 	}
; 302  : 	return TRUE;

  00168	b8 01 00 00 00	 mov	 eax, 1
  0016d	5e		 pop	 esi

; 303  : }

  0016e	5d		 pop	 ebp
  0016f	c2 0c 00	 ret	 12			; 0000000cH
$LN17@ForceAIEle:

; 284  : 			break;
; 285  : 		case MAE_TYPE_SPECIAL_WARP:
; 286  : 			this->ApplyElementNightmareWarp(iIndex, iTargetIndex, pAIState);

  00172	ff 75 10	 push	 DWORD PTR _pAIState$[ebp]
  00175	8b ce		 mov	 ecx, esi
  00177	ff 75 0c	 push	 DWORD PTR _iTargetIndex$[ebp]
  0017a	ff 75 08	 push	 DWORD PTR _iIndex$[ebp]
  0017d	e8 00 00 00 00	 call	 ?ApplyElementNightmareWarp@TMonsterAIElement@@QAEHHHPAVTMonsterAIState@@@Z ; TMonsterAIElement::ApplyElementNightmareWarp

; 300  : 			break;
; 301  : 	}
; 302  : 	return TRUE;

  00182	b8 01 00 00 00	 mov	 eax, 1
  00187	5e		 pop	 esi

; 303  : }

  00188	5d		 pop	 ebp
  00189	c2 0c 00	 ret	 12			; 0000000cH
$LN18@ForceAIEle:

; 287  : 			break;
; 288  : 		case MAE_TYPE_SPECIAL_SKILLATTACK:
; 289  : 			this->ApplyElementSkillAttack(iIndex, iTargetIndex, pAIState);

  0018c	ff 75 10	 push	 DWORD PTR _pAIState$[ebp]
  0018f	8b ce		 mov	 ecx, esi
  00191	ff 75 0c	 push	 DWORD PTR _iTargetIndex$[ebp]
  00194	ff 75 08	 push	 DWORD PTR _iIndex$[ebp]
  00197	e8 00 00 00 00	 call	 ?ApplyElementSkillAttack@TMonsterAIElement@@QAEHHHPAVTMonsterAIState@@@Z ; TMonsterAIElement::ApplyElementSkillAttack

; 300  : 			break;
; 301  : 	}
; 302  : 	return TRUE;

  0019c	b8 01 00 00 00	 mov	 eax, 1
  001a1	5e		 pop	 esi

; 303  : }

  001a2	5d		 pop	 ebp
  001a3	c2 0c 00	 ret	 12			; 0000000cH
$LN19@ForceAIEle:

; 290  : 			break;
; 291  : 		case MAE_TYPE_SPECIAL_CHANGEAI:
; 292  : 			this->ApplyElementAIChange(iIndex, iTargetIndex, pAIState);

  001a6	ff 75 10	 push	 DWORD PTR _pAIState$[ebp]
  001a9	8b ce		 mov	 ecx, esi
  001ab	ff 75 0c	 push	 DWORD PTR _iTargetIndex$[ebp]
  001ae	ff 75 08	 push	 DWORD PTR _iIndex$[ebp]
  001b1	e8 00 00 00 00	 call	 ?ApplyElementAIChange@TMonsterAIElement@@QAEHHHPAVTMonsterAIState@@@Z ; TMonsterAIElement::ApplyElementAIChange

; 300  : 			break;
; 301  : 	}
; 302  : 	return TRUE;

  001b6	b8 01 00 00 00	 mov	 eax, 1
  001bb	5e		 pop	 esi

; 303  : }

  001bc	5d		 pop	 ebp
  001bd	c2 0c 00	 ret	 12			; 0000000cH
$LN20@ForceAIEle:

; 293  : 			break;
; 294  : 
; 295  : 		/*case MAE_TYPE_EVENT:
; 296  : 			this->ApplyElement(iIndex, iTargetIndex, pAIState);
; 297  : 			break;*/
; 298  : 		case MAE_TYPE_SPECIAL_IMMUNE:
; 299  : 			this->ApplyElementSpecialImmune(iIndex, iTargetIndex, pAIState);

  001c0	ff 75 10	 push	 DWORD PTR _pAIState$[ebp]
  001c3	8b ce		 mov	 ecx, esi
  001c5	ff 75 0c	 push	 DWORD PTR _iTargetIndex$[ebp]
  001c8	ff 75 08	 push	 DWORD PTR _iIndex$[ebp]
  001cb	e8 00 00 00 00	 call	 ?ApplyElementSpecialImmune@TMonsterAIElement@@QAEHHHPAVTMonsterAIState@@@Z ; TMonsterAIElement::ApplyElementSpecialImmune
$LN2@ForceAIEle:

; 300  : 			break;
; 301  : 	}
; 302  : 	return TRUE;

  001d0	b8 01 00 00 00	 mov	 eax, 1
  001d5	5e		 pop	 esi

; 303  : }

  001d6	5d		 pop	 ebp
  001d7	c2 0c 00	 ret	 12			; 0000000cH
  001da	66 90		 npad	 2
$LN24@ForceAIEle:
  001dc	00 00 00 00	 DD	 $LN5@ForceAIEle
  001e0	00 00 00 00	 DD	 $LN6@ForceAIEle
  001e4	00 00 00 00	 DD	 $LN7@ForceAIEle
  001e8	00 00 00 00	 DD	 $LN8@ForceAIEle
  001ec	00 00 00 00	 DD	 $LN9@ForceAIEle
  001f0	00 00 00 00	 DD	 $LN10@ForceAIEle
  001f4	00 00 00 00	 DD	 $LN11@ForceAIEle
  001f8	00 00 00 00	 DD	 $LN12@ForceAIEle
  001fc	00 00 00 00	 DD	 $LN13@ForceAIEle
  00200	00 00 00 00	 DD	 $LN14@ForceAIEle
  00204	00 00 00 00	 DD	 $LN15@ForceAIEle
  00208	00 00 00 00	 DD	 $LN20@ForceAIEle
  0020c	00 00 00 00	 DD	 $LN16@ForceAIEle
  00210	00 00 00 00	 DD	 $LN17@ForceAIEle
  00214	00 00 00 00	 DD	 $LN18@ForceAIEle
  00218	00 00 00 00	 DD	 $LN19@ForceAIEle
  0021c	00 00 00 00	 DD	 $LN2@ForceAIEle
$LN22@ForceAIEle:
  00220	00		 DB	 0
  00221	10		 DB	 16			; 00000010H
  00222	10		 DB	 16			; 00000010H
  00223	10		 DB	 16			; 00000010H
  00224	10		 DB	 16			; 00000010H
  00225	10		 DB	 16			; 00000010H
  00226	10		 DB	 16			; 00000010H
  00227	10		 DB	 16			; 00000010H
  00228	10		 DB	 16			; 00000010H
  00229	10		 DB	 16			; 00000010H
  0022a	01		 DB	 1
  0022b	02		 DB	 2
  0022c	03		 DB	 3
  0022d	10		 DB	 16			; 00000010H
  0022e	10		 DB	 16			; 00000010H
  0022f	10		 DB	 16			; 00000010H
  00230	10		 DB	 16			; 00000010H
  00231	10		 DB	 16			; 00000010H
  00232	10		 DB	 16			; 00000010H
  00233	10		 DB	 16			; 00000010H
  00234	04		 DB	 4
  00235	05		 DB	 5
  00236	06		 DB	 6
  00237	10		 DB	 16			; 00000010H
  00238	10		 DB	 16			; 00000010H
  00239	10		 DB	 16			; 00000010H
  0023a	10		 DB	 16			; 00000010H
  0023b	10		 DB	 16			; 00000010H
  0023c	10		 DB	 16			; 00000010H
  0023d	10		 DB	 16			; 00000010H
  0023e	07		 DB	 7
  0023f	08		 DB	 8
  00240	10		 DB	 16			; 00000010H
  00241	10		 DB	 16			; 00000010H
  00242	10		 DB	 16			; 00000010H
  00243	10		 DB	 16			; 00000010H
  00244	10		 DB	 16			; 00000010H
  00245	10		 DB	 16			; 00000010H
  00246	10		 DB	 16			; 00000010H
  00247	10		 DB	 16			; 00000010H
  00248	09		 DB	 9
  00249	10		 DB	 16			; 00000010H
  0024a	10		 DB	 16			; 00000010H
  0024b	10		 DB	 16			; 00000010H
  0024c	10		 DB	 16			; 00000010H
  0024d	10		 DB	 16			; 00000010H
  0024e	10		 DB	 16			; 00000010H
  0024f	10		 DB	 16			; 00000010H
  00250	10		 DB	 16			; 00000010H
  00251	10		 DB	 16			; 00000010H
  00252	10		 DB	 16			; 00000010H
  00253	10		 DB	 16			; 00000010H
  00254	10		 DB	 16			; 00000010H
  00255	10		 DB	 16			; 00000010H
  00256	10		 DB	 16			; 00000010H
  00257	10		 DB	 16			; 00000010H
  00258	10		 DB	 16			; 00000010H
  00259	10		 DB	 16			; 00000010H
  0025a	10		 DB	 16			; 00000010H
  0025b	10		 DB	 16			; 00000010H
  0025c	10		 DB	 16			; 00000010H
  0025d	0a		 DB	 10			; 0000000aH
  0025e	10		 DB	 16			; 00000010H
  0025f	0b		 DB	 11			; 0000000bH
  00260	0c		 DB	 12			; 0000000cH
  00261	0d		 DB	 13			; 0000000dH
  00262	0e		 DB	 14			; 0000000eH
  00263	0f		 DB	 15			; 0000000fH
?ForceAIElement@TMonsterAIElement@@QAEHHHPAVTMonsterAIState@@@Z ENDP ; TMonsterAIElement::ForceAIElement
_TEXT	ENDS
; Function compile flags: /Ogtp
; File c:\users\michel\desktop\source\gameserver\source\tmonsteraielement.cpp
;	COMDAT ??1TMonsterAIElement@@UAE@XZ
_TEXT	SEGMENT
??1TMonsterAIElement@@UAE@XZ PROC			; TMonsterAIElement::~TMonsterAIElement, COMDAT
; _this$ = ecx

; 40   : {

  00000	c7 01 00 00 00
	00		 mov	 DWORD PTR [ecx], OFFSET ??_7TMonsterAIElement@@6B@

; 41   : 
; 42   : }

  00006	c3		 ret	 0
??1TMonsterAIElement@@UAE@XZ ENDP			; TMonsterAIElement::~TMonsterAIElement
_TEXT	ENDS
; Function compile flags: /Ogtp
; File c:\users\michel\desktop\source\gameserver\source\tmonsteraielement.cpp
;	COMDAT ??0TMonsterAIElement@@QAE@XZ
_TEXT	SEGMENT
??0TMonsterAIElement@@QAE@XZ PROC			; TMonsterAIElement::TMonsterAIElement, COMDAT
; _this$ = ecx

; 35   : {

  00000	56		 push	 esi
  00001	8b f1		 mov	 esi, ecx
  00003	c7 06 00 00 00
	00		 mov	 DWORD PTR [esi], OFFSET ??_7TMonsterAIElement@@6B@

; 36   : 	this->Reset();

  00009	e8 00 00 00 00	 call	 ?Reset@TMonsterAIElement@@QAEXXZ ; TMonsterAIElement::Reset

; 37   : }

  0000e	8b c6		 mov	 eax, esi
  00010	5e		 pop	 esi
  00011	c3		 ret	 0
??0TMonsterAIElement@@QAE@XZ ENDP			; TMonsterAIElement::TMonsterAIElement
_TEXT	ENDS
; Function compile flags: /Ogtp
;	COMDAT ??_EOBJECTSTRUCT@@QAEPAXI@Z
_TEXT	SEGMENT
__$EHRec$ = -12						; size = 12
___flags$ = 8						; size = 4
??_EOBJECTSTRUCT@@QAEPAXI@Z PROC			; OBJECTSTRUCT::`vector deleting destructor', COMDAT
; _this$ = ecx
  00000	55		 push	 ebp
  00001	8b ec		 mov	 ebp, esp
  00003	6a ff		 push	 -1
  00005	68 00 00 00 00	 push	 __ehhandler$??_EOBJECTSTRUCT@@QAEPAXI@Z
  0000a	64 a1 00 00 00
	00		 mov	 eax, DWORD PTR fs:0
  00010	50		 push	 eax
  00011	53		 push	 ebx
  00012	56		 push	 esi
  00013	57		 push	 edi
  00014	a1 00 00 00 00	 mov	 eax, DWORD PTR ___security_cookie
  00019	33 c5		 xor	 eax, ebp
  0001b	50		 push	 eax
  0001c	8d 45 f4	 lea	 eax, DWORD PTR __$EHRec$[ebp]
  0001f	64 a3 00 00 00
	00		 mov	 DWORD PTR fs:0, eax
  00025	8b f1		 mov	 esi, ecx
  00027	8b 5d 08	 mov	 ebx, DWORD PTR ___flags$[ebp]
  0002a	f6 c3 02	 test	 bl, 2
  0002d	74 44		 je	 SHORT $LN2@vector
  0002f	68 00 00 00 00	 push	 OFFSET ??1OBJECTSTRUCT@@QAE@XZ
  00034	ff 76 fc	 push	 DWORD PTR [esi-4]
  00037	8d 7e fc	 lea	 edi, DWORD PTR [esi-4]
  0003a	68 40 27 00 00	 push	 10048			; 00002740H
  0003f	56		 push	 esi
  00040	e8 00 00 00 00	 call	 ??_M@YGXPAXIIP6EX0@Z@Z
  00045	f6 c3 01	 test	 bl, 1
  00048	74 13		 je	 SHORT $LN3@vector
  0004a	69 0f 40 27 00
	00		 imul	 ecx, DWORD PTR [edi], 10048
  00050	83 c1 04	 add	 ecx, 4
  00053	51		 push	 ecx
  00054	57		 push	 edi
  00055	e8 00 00 00 00	 call	 ??_V@YAXPAXI@Z		; operator delete[]
  0005a	83 c4 08	 add	 esp, 8
$LN3@vector:
  0005d	8b c7		 mov	 eax, edi
  0005f	8b 4d f4	 mov	 ecx, DWORD PTR __$EHRec$[ebp]
  00062	64 89 0d 00 00
	00 00		 mov	 DWORD PTR fs:0, ecx
  00069	59		 pop	 ecx
  0006a	5f		 pop	 edi
  0006b	5e		 pop	 esi
  0006c	5b		 pop	 ebx
  0006d	8b e5		 mov	 esp, ebp
  0006f	5d		 pop	 ebp
  00070	c2 04 00	 ret	 4
$LN2@vector:
  00073	8d 8e ec 20 00
	00		 lea	 ecx, DWORD PTR [esi+8428]
  00079	e8 00 00 00 00	 call	 ??1TMonsterAIAgro@@UAE@XZ ; TMonsterAIAgro::~TMonsterAIAgro
  0007e	8d 8e 0c 16 00
	00		 lea	 ecx, DWORD PTR [esi+5644]
  00084	e8 00 00 00 00	 call	 ??1CSkillDelay@@UAE@XZ	; CSkillDelay::~CSkillDelay
  00089	f6 c3 01	 test	 bl, 1
  0008c	74 0e		 je	 SHORT $LN4@vector
  0008e	68 40 27 00 00	 push	 10048			; 00002740H
  00093	56		 push	 esi
  00094	e8 00 00 00 00	 call	 ??3@YAXPAXI@Z		; operator delete
  00099	83 c4 08	 add	 esp, 8
$LN4@vector:
  0009c	8b c6		 mov	 eax, esi
  0009e	8b 4d f4	 mov	 ecx, DWORD PTR __$EHRec$[ebp]
  000a1	64 89 0d 00 00
	00 00		 mov	 DWORD PTR fs:0, ecx
  000a8	59		 pop	 ecx
  000a9	5f		 pop	 edi
  000aa	5e		 pop	 esi
  000ab	5b		 pop	 ebx
  000ac	8b e5		 mov	 esp, ebp
  000ae	5d		 pop	 ebp
  000af	c2 04 00	 ret	 4
_TEXT	ENDS
;	COMDAT text$x
text$x	SEGMENT
__ehhandler$??_EOBJECTSTRUCT@@QAEPAXI@Z:
  00000	8b 54 24 08	 mov	 edx, DWORD PTR [esp+8]
  00004	8d 42 0c	 lea	 eax, DWORD PTR [edx+12]
  00007	8b 4a f0	 mov	 ecx, DWORD PTR [edx-16]
  0000a	33 c8		 xor	 ecx, eax
  0000c	e8 00 00 00 00	 call	 @__security_check_cookie@4
  00011	b8 00 00 00 00	 mov	 eax, OFFSET __ehfuncinfo$??_EOBJECTSTRUCT@@QAEPAXI@Z
  00016	e9 00 00 00 00	 jmp	 ___CxxFrameHandler3
text$x	ENDS
??_EOBJECTSTRUCT@@QAEPAXI@Z ENDP			; OBJECTSTRUCT::`vector deleting destructor'
; Function compile flags: /Ogtp
;	COMDAT ??1OBJECTSTRUCT@@QAE@XZ
_TEXT	SEGMENT
??1OBJECTSTRUCT@@QAE@XZ PROC				; OBJECTSTRUCT::~OBJECTSTRUCT, COMDAT
; _this$ = ecx
  00000	56		 push	 esi
  00001	8b f1		 mov	 esi, ecx
  00003	8d 8e ec 20 00
	00		 lea	 ecx, DWORD PTR [esi+8428]
  00009	e8 00 00 00 00	 call	 ??1TMonsterAIAgro@@UAE@XZ ; TMonsterAIAgro::~TMonsterAIAgro
  0000e	8d 8e 0c 16 00
	00		 lea	 ecx, DWORD PTR [esi+5644]
  00014	5e		 pop	 esi
  00015	e9 00 00 00 00	 jmp	 ??1CSkillDelay@@UAE@XZ	; CSkillDelay::~CSkillDelay
??1OBJECTSTRUCT@@QAE@XZ ENDP				; OBJECTSTRUCT::~OBJECTSTRUCT
_TEXT	ENDS
; Function compile flags: /Ogtp
; File c:\program files (x86)\microsoft visual studio 14.0\vc\include\cmath
; File c:\program files (x86)\windows kits\10\include\10.0.10240.0\ucrt\math.h
; File c:\program files (x86)\microsoft visual studio 14.0\vc\include\cmath
;	COMDAT ?sqrt@@YAMM@Z
_TEXT	SEGMENT
tv65 = -4						; size = 4
__Xx$ = 8						; size = 4
?sqrt@@YAMM@Z PROC					; sqrt, COMDAT

; 316  : 	{

  00000	55		 push	 ebp
  00001	8b ec		 mov	 ebp, esp
  00003	83 e4 f8	 and	 esp, -8			; fffffff8H
  00006	83 ec 08	 sub	 esp, 8
  00009	f3 0f 10 45 08	 movss	 xmm0, DWORD PTR __Xx$[ebp]
; File c:\program files (x86)\windows kits\10\include\10.0.10240.0\ucrt\math.h

; 746  :         return (float)sqrt(_X);

  0000e	0f 5a c0	 cvtps2pd xmm0, xmm0
  00011	e8 00 00 00 00	 call	 __libm_sse2_sqrt_precise
  00016	f2 0f 5a c0	 cvtsd2ss xmm0, xmm0
; File c:\program files (x86)\microsoft visual studio 14.0\vc\include\cmath

; 317  : 	return (_CSTD sqrtf(_Xx));

  0001a	f3 0f 11 44 24
	04		 movss	 DWORD PTR tv65[esp+8], xmm0
  00020	d9 44 24 04	 fld	 DWORD PTR tv65[esp+8]

; 318  : 	}

  00024	8b e5		 mov	 esp, ebp
  00026	5d		 pop	 ebp
  00027	c3		 ret	 0
?sqrt@@YAMM@Z ENDP					; sqrt
_TEXT	ENDS
; Function compile flags: /Ogtp
; File c:\program files (x86)\windows kits\10\include\10.0.10240.0\ucrt\math.h
;	COMDAT _sqrtf
_TEXT	SEGMENT
tv68 = -4						; size = 4
__X$ = 8						; size = 4
_sqrtf	PROC						; COMDAT

; 745  :     {

  00000	55		 push	 ebp
  00001	8b ec		 mov	 ebp, esp
  00003	83 e4 f8	 and	 esp, -8			; fffffff8H
  00006	83 ec 08	 sub	 esp, 8
  00009	f3 0f 10 45 08	 movss	 xmm0, DWORD PTR __X$[ebp]

; 746  :         return (float)sqrt(_X);

  0000e	0f 5a c0	 cvtps2pd xmm0, xmm0
  00011	e8 00 00 00 00	 call	 __libm_sse2_sqrt_precise
  00016	f2 0f 5a c0	 cvtsd2ss xmm0, xmm0
  0001a	f3 0f 11 44 24
	04		 movss	 DWORD PTR tv68[esp+8], xmm0
  00020	d9 44 24 04	 fld	 DWORD PTR tv68[esp+8]

; 747  :     }

  00024	8b e5		 mov	 esp, ebp
  00026	5d		 pop	 ebp
  00027	c3		 ret	 0
_sqrtf	ENDP
_TEXT	ENDS
; Function compile flags: /Ogtp
; File c:\users\michel\desktop\source\gameserver\source\tmonsteraielement.cpp
;	COMDAT ?__empty_global_delete@@YAXPAXI@Z
_TEXT	SEGMENT
___formal$ = 8						; size = 4
___formal$ = 12						; size = 4
?__empty_global_delete@@YAXPAXI@Z PROC			; __empty_global_delete, COMDAT

  00000	c3		 ret	 0
?__empty_global_delete@@YAXPAXI@Z ENDP			; __empty_global_delete
_TEXT	ENDS
; Function compile flags: /Ogtp
; File c:\users\michel\desktop\source\gameserver\source\tmonsteraielement.cpp
;	COMDAT ?__empty_global_delete@@YAXPAX@Z
_TEXT	SEGMENT
___formal$ = 8						; size = 4
?__empty_global_delete@@YAXPAX@Z PROC			; __empty_global_delete, COMDAT

  00000	c3		 ret	 0
?__empty_global_delete@@YAXPAX@Z ENDP			; __empty_global_delete
_TEXT	ENDS
END
