; Listing generated by Microsoft (R) Optimizing Compiler Version 19.00.23506.0 

	TITLE	C:\Users\Michel\Desktop\Source\GameServer\Source\TRandomPoolMgr.cpp
	.686P
	.XMM
	include listing.inc
	.model	flat

INCLUDELIB LIBCMT
INCLUDELIB OLDNAMES

CONST	SEGMENT
?piecewise_construct@std@@3Upiecewise_construct_t@1@B	ORG $+1 ; std::piecewise_construct
CONST	ENDS
PUBLIC	?__empty_global_delete@@YAXPAX@Z		; __empty_global_delete
PUBLIC	?__empty_global_delete@@YAXPAXI@Z		; __empty_global_delete
PUBLIC	??0TRandomPoolMgr@@QAE@XZ			; TRandomPoolMgr::TRandomPoolMgr
PUBLIC	??1TRandomPoolMgr@@UAE@XZ			; TRandomPoolMgr::~TRandomPoolMgr
PUBLIC	?InitPool@TRandomPoolMgr@@QAEXXZ		; TRandomPoolMgr::InitPool
PUBLIC	?AddValue@TRandomPoolMgr@@QAE_NHH@Z		; TRandomPoolMgr::AddValue
PUBLIC	?GetRandomValue@TRandomPoolMgr@@QAEHW4eRandomPoolSelectType@@@Z ; TRandomPoolMgr::GetRandomValue
PUBLIC	?_Buyheadnode@?$_Tree_comp_alloc@V?$_Tmap_traits@HHU?$less@H@std@@V?$allocator@U?$pair@$$CBHH@std@@@2@$0A@@std@@@std@@QAEPAU?$_Tree_node@U?$pair@$$CBHH@std@@PAX@2@XZ ; std::_Tree_comp_alloc<std::_Tmap_traits<int,int,std::less<int>,std::allocator<std::pair<int const ,int> >,0> >::_Buyheadnode
PUBLIC	?_Buynode0@?$_Tree_comp_alloc@V?$_Tmap_traits@HHU?$less@H@std@@V?$allocator@U?$pair@$$CBHH@std@@@2@$0A@@std@@@std@@QAEPAU?$_Tree_node@U?$pair@$$CBHH@std@@PAX@2@XZ ; std::_Tree_comp_alloc<std::_Tmap_traits<int,int,std::less<int>,std::allocator<std::pair<int const ,int> >,0> >::_Buynode0
PUBLIC	?erase@?$_Tree@V?$_Tmap_traits@HHU?$less@H@std@@V?$allocator@U?$pair@$$CBHH@std@@@2@$0A@@std@@@std@@QAE?AV?$_Tree_iterator@V?$_Tree_val@U?$_Tree_simple_types@U?$pair@$$CBHH@std@@@std@@@std@@@2@V?$_Tree_const_iterator@V?$_Tree_val@U?$_Tree_simple_types@U?$pair@$$CBHH@std@@@std@@@std@@@2@@Z ; std::_Tree<std::_Tmap_traits<int,int,std::less<int>,std::allocator<std::pair<int const ,int> >,0> >::erase
PUBLIC	?erase@?$_Tree@V?$_Tmap_traits@HHU?$less@H@std@@V?$allocator@U?$pair@$$CBHH@std@@@2@$0A@@std@@@std@@QAE?AV?$_Tree_iterator@V?$_Tree_val@U?$_Tree_simple_types@U?$pair@$$CBHH@std@@@std@@@std@@@2@V?$_Tree_const_iterator@V?$_Tree_val@U?$_Tree_simple_types@U?$pair@$$CBHH@std@@@std@@@std@@@2@0@Z ; std::_Tree<std::_Tmap_traits<int,int,std::less<int>,std::allocator<std::pair<int const ,int> >,0> >::erase
PUBLIC	?clear@?$_Tree@V?$_Tmap_traits@HHU?$less@H@std@@V?$allocator@U?$pair@$$CBHH@std@@@2@$0A@@std@@@std@@QAEXXZ ; std::_Tree<std::_Tmap_traits<int,int,std::less<int>,std::allocator<std::pair<int const ,int> >,0> >::clear
PUBLIC	?find@?$_Tree@V?$_Tmap_traits@HHU?$less@H@std@@V?$allocator@U?$pair@$$CBHH@std@@@2@$0A@@std@@@std@@QAE?AV?$_Tree_iterator@V?$_Tree_val@U?$_Tree_simple_types@U?$pair@$$CBHH@std@@@std@@@std@@@2@ABH@Z ; std::_Tree<std::_Tmap_traits<int,int,std::less<int>,std::allocator<std::pair<int const ,int> >,0> >::find
PUBLIC	?_Erase@?$_Tree@V?$_Tmap_traits@HHU?$less@H@std@@V?$allocator@U?$pair@$$CBHH@std@@@2@$0A@@std@@@std@@IAEXPAU?$_Tree_node@U?$pair@$$CBHH@std@@PAX@2@@Z ; std::_Tree<std::_Tmap_traits<int,int,std::less<int>,std::allocator<std::pair<int const ,int> >,0> >::_Erase
PUBLIC	?_Lrotate@?$_Tree@V?$_Tmap_traits@HHU?$less@H@std@@V?$allocator@U?$pair@$$CBHH@std@@@2@$0A@@std@@@std@@IAEXPAU?$_Tree_node@U?$pair@$$CBHH@std@@PAX@2@@Z ; std::_Tree<std::_Tmap_traits<int,int,std::less<int>,std::allocator<std::pair<int const ,int> >,0> >::_Lrotate
PUBLIC	?_Rrotate@?$_Tree@V?$_Tmap_traits@HHU?$less@H@std@@V?$allocator@U?$pair@$$CBHH@std@@@2@$0A@@std@@@std@@IAEXPAU?$_Tree_node@U?$pair@$$CBHH@std@@PAX@2@@Z ; std::_Tree<std::_Tmap_traits<int,int,std::less<int>,std::allocator<std::pair<int const ,int> >,0> >::_Rrotate
PUBLIC	??A?$map@HHU?$less@H@std@@V?$allocator@U?$pair@$$CBHH@std@@@2@@std@@QAEAAHABH@Z ; std::map<int,int,std::less<int>,std::allocator<std::pair<int const ,int> > >::operator[]
PUBLIC	??_GTRandomPoolMgr@@UAEPAXI@Z			; TRandomPoolMgr::`scalar deleting destructor'
PUBLIC	??E?$_Tree_unchecked_const_iterator@V?$_Tree_val@U?$_Tree_simple_types@U?$pair@$$CBHH@std@@@std@@@std@@U_Iterator_base0@2@@std@@QAEAAV01@XZ ; std::_Tree_unchecked_const_iterator<std::_Tree_val<std::_Tree_simple_types<std::pair<int const ,int> > >,std::_Iterator_base0>::operator++
PUBLIC	??F?$_Tree_unchecked_const_iterator@V?$_Tree_val@U?$_Tree_simple_types@U?$pair@$$CBHH@std@@@std@@@std@@U_Iterator_base0@2@@std@@QAEAAV01@XZ ; std::_Tree_unchecked_const_iterator<std::_Tree_val<std::_Tree_simple_types<std::pair<int const ,int> > >,std::_Iterator_base0>::operator--
PUBLIC	??$_Buynode@ABUpiecewise_construct_t@std@@V?$tuple@ABH@2@V?$tuple@$$V@2@@?$_Tree_comp_alloc@V?$_Tmap_traits@HHU?$less@H@std@@V?$allocator@U?$pair@$$CBHH@std@@@2@$0A@@std@@@std@@QAEPAU?$_Tree_node@U?$pair@$$CBHH@std@@PAX@1@ABUpiecewise_construct_t@1@$$QAV?$tuple@ABH@1@$$QAV?$tuple@$$V@1@@Z ; std::_Tree_comp_alloc<std::_Tmap_traits<int,int,std::less<int>,std::allocator<std::pair<int const ,int> >,0> >::_Buynode<std::piecewise_construct_t const &,std::tuple<int const &>,std::tuple<> >
PUBLIC	??$_Insert_hint@AAU?$pair@$$CBHH@std@@PAU?$_Tree_node@U?$pair@$$CBHH@std@@PAX@2@@?$_Tree@V?$_Tmap_traits@HHU?$less@H@std@@V?$allocator@U?$pair@$$CBHH@std@@@2@$0A@@std@@@std@@IAE?AV?$_Tree_iterator@V?$_Tree_val@U?$_Tree_simple_types@U?$pair@$$CBHH@std@@@std@@@std@@@1@V?$_Tree_const_iterator@V?$_Tree_val@U?$_Tree_simple_types@U?$pair@$$CBHH@std@@@std@@@std@@@1@AAU?$pair@$$CBHH@1@PAU?$_Tree_node@U?$pair@$$CBHH@std@@PAX@1@@Z ; std::_Tree<std::_Tmap_traits<int,int,std::less<int>,std::allocator<std::pair<int const ,int> >,0> >::_Insert_hint<std::pair<int const ,int> &,std::_Tree_node<std::pair<int const ,int>,void *> *>
PUBLIC	??$_Insert_at@AAU?$pair@$$CBHH@std@@PAU?$_Tree_node@U?$pair@$$CBHH@std@@PAX@2@@?$_Tree@V?$_Tmap_traits@HHU?$less@H@std@@V?$allocator@U?$pair@$$CBHH@std@@@2@$0A@@std@@@std@@IAE?AV?$_Tree_iterator@V?$_Tree_val@U?$_Tree_simple_types@U?$pair@$$CBHH@std@@@std@@@std@@@1@_NPAU?$_Tree_node@U?$pair@$$CBHH@std@@PAX@1@AAU?$pair@$$CBHH@1@1@Z ; std::_Tree<std::_Tmap_traits<int,int,std::less<int>,std::allocator<std::pair<int const ,int> >,0> >::_Insert_at<std::pair<int const ,int> &,std::_Tree_node<std::pair<int const ,int>,void *> *>
PUBLIC	??$_Insert_nohint@AAU?$pair@$$CBHH@std@@PAU?$_Tree_node@U?$pair@$$CBHH@std@@PAX@2@@?$_Tree@V?$_Tmap_traits@HHU?$less@H@std@@V?$allocator@U?$pair@$$CBHH@std@@@2@$0A@@std@@@std@@IAE?AU?$pair@V?$_Tree_iterator@V?$_Tree_val@U?$_Tree_simple_types@U?$pair@$$CBHH@std@@@std@@@std@@@std@@_N@1@_NAAU?$pair@$$CBHH@1@PAU?$_Tree_node@U?$pair@$$CBHH@std@@PAX@1@@Z ; std::_Tree<std::_Tmap_traits<int,int,std::less<int>,std::allocator<std::pair<int const ,int> >,0> >::_Insert_nohint<std::pair<int const ,int> &,std::_Tree_node<std::pair<int const ,int>,void *> *>
PUBLIC	??_7TRandomPoolMgr@@6B@				; TRandomPoolMgr::`vftable'
PUBLIC	??_C@_0BE@JONHPENG@map?1set?$DMT?$DO?5too?5long?$AA@ ; `string'
PUBLIC	??_R4TRandomPoolMgr@@6B@			; TRandomPoolMgr::`RTTI Complete Object Locator'
PUBLIC	??_R0?AVTRandomPoolMgr@@@8			; TRandomPoolMgr `RTTI Type Descriptor'
PUBLIC	??_R3TRandomPoolMgr@@8				; TRandomPoolMgr::`RTTI Class Hierarchy Descriptor'
PUBLIC	??_R2TRandomPoolMgr@@8				; TRandomPoolMgr::`RTTI Base Class Array'
PUBLIC	??_R1A@?0A@EA@TRandomPoolMgr@@8			; TRandomPoolMgr::`RTTI Base Class Descriptor at (0,-1,0,64)'
EXTRN	??2@YAPAXI@Z:PROC				; operator new
EXTRN	??3@YAXPAX@Z:PROC				; operator delete
EXTRN	??3@YAXPAXI@Z:PROC				; operator delete
EXTRN	__invalid_parameter_noinfo_noreturn:PROC
EXTRN	_rand:PROC
EXTRN	?_Xbad_alloc@std@@YAXXZ:PROC			; std::_Xbad_alloc
EXTRN	?_Xlength_error@std@@YAXPBD@Z:PROC		; std::_Xlength_error
EXTRN	??_ETRandomPoolMgr@@UAEPAXI@Z:PROC		; TRandomPoolMgr::`vector deleting destructor'
EXTRN	?GetLargeRand@@YAKXZ:PROC			; GetLargeRand
EXTRN	@__security_check_cookie@4:PROC
EXTRN	__CxxThrowException@8:PROC
EXTRN	___CxxFrameHandler3:PROC
EXTRN	??_7type_info@@6B@:QWORD			; type_info::`vftable'
EXTRN	___security_cookie:DWORD
;	COMDAT ??_R1A@?0A@EA@TRandomPoolMgr@@8
rdata$r	SEGMENT
??_R1A@?0A@EA@TRandomPoolMgr@@8 DD FLAT:??_R0?AVTRandomPoolMgr@@@8 ; TRandomPoolMgr::`RTTI Base Class Descriptor at (0,-1,0,64)'
	DD	00H
	DD	00H
	DD	0ffffffffH
	DD	00H
	DD	040H
	DD	FLAT:??_R3TRandomPoolMgr@@8
rdata$r	ENDS
;	COMDAT ??_R2TRandomPoolMgr@@8
rdata$r	SEGMENT
??_R2TRandomPoolMgr@@8 DD FLAT:??_R1A@?0A@EA@TRandomPoolMgr@@8 ; TRandomPoolMgr::`RTTI Base Class Array'
rdata$r	ENDS
;	COMDAT ??_R3TRandomPoolMgr@@8
rdata$r	SEGMENT
??_R3TRandomPoolMgr@@8 DD 00H				; TRandomPoolMgr::`RTTI Class Hierarchy Descriptor'
	DD	00H
	DD	01H
	DD	FLAT:??_R2TRandomPoolMgr@@8
rdata$r	ENDS
;	COMDAT ??_R0?AVTRandomPoolMgr@@@8
data$r	SEGMENT
??_R0?AVTRandomPoolMgr@@@8 DD FLAT:??_7type_info@@6B@	; TRandomPoolMgr `RTTI Type Descriptor'
	DD	00H
	DB	'.?AVTRandomPoolMgr@@', 00H
data$r	ENDS
;	COMDAT ??_R4TRandomPoolMgr@@6B@
rdata$r	SEGMENT
??_R4TRandomPoolMgr@@6B@ DD 00H				; TRandomPoolMgr::`RTTI Complete Object Locator'
	DD	00H
	DD	00H
	DD	FLAT:??_R0?AVTRandomPoolMgr@@@8
	DD	FLAT:??_R3TRandomPoolMgr@@8
rdata$r	ENDS
;	COMDAT ??_C@_0BE@JONHPENG@map?1set?$DMT?$DO?5too?5long?$AA@
CONST	SEGMENT
??_C@_0BE@JONHPENG@map?1set?$DMT?$DO?5too?5long?$AA@ DB 'map/set<T> too l'
	DB	'ong', 00H					; `string'
CONST	ENDS
;	COMDAT ??_7TRandomPoolMgr@@6B@
CONST	SEGMENT
??_7TRandomPoolMgr@@6B@ DD FLAT:??_R4TRandomPoolMgr@@6B@ ; TRandomPoolMgr::`vftable'
	DD	FLAT:??_ETRandomPoolMgr@@UAEPAXI@Z
CONST	ENDS
;	COMDAT xdata$x
xdata$x	SEGMENT
__catchsym$??$_Insert_nohint@AAU?$pair@$$CBHH@std@@PAU?$_Tree_node@U?$pair@$$CBHH@std@@PAX@2@@?$_Tree@V?$_Tmap_traits@HHU?$less@H@std@@V?$allocator@U?$pair@$$CBHH@std@@@2@$0A@@std@@@std@@IAE?AU?$pair@V?$_Tree_iterator@V?$_Tree_val@U?$_Tree_simple_types@U?$pair@$$CBHH@std@@@std@@@std@@@std@@_N@1@_NAAU?$pair@$$CBHH@1@PAU?$_Tree_node@U?$pair@$$CBHH@std@@PAX@1@@Z$58 DD 040H
	DD	00H
	DD	00H
	DD	FLAT:__catch$??$_Insert_nohint@AAU?$pair@$$CBHH@std@@PAU?$_Tree_node@U?$pair@$$CBHH@std@@PAX@2@@?$_Tree@V?$_Tmap_traits@HHU?$less@H@std@@V?$allocator@U?$pair@$$CBHH@std@@@2@$0A@@std@@@std@@IAE?AU?$pair@V?$_Tree_iterator@V?$_Tree_val@U?$_Tree_simple_types@U?$pair@$$CBHH@std@@@std@@@std@@@std@@_N@1@_NAAU?$pair@$$CBHH@1@PAU?$_Tree_node@U?$pair@$$CBHH@std@@PAX@1@@Z$0
__unwindtable$??$_Insert_nohint@AAU?$pair@$$CBHH@std@@PAU?$_Tree_node@U?$pair@$$CBHH@std@@PAX@2@@?$_Tree@V?$_Tmap_traits@HHU?$less@H@std@@V?$allocator@U?$pair@$$CBHH@std@@@2@$0A@@std@@@std@@IAE?AU?$pair@V?$_Tree_iterator@V?$_Tree_val@U?$_Tree_simple_types@U?$pair@$$CBHH@std@@@std@@@std@@@std@@_N@1@_NAAU?$pair@$$CBHH@1@PAU?$_Tree_node@U?$pair@$$CBHH@std@@PAX@1@@Z DD 0ffffffffH
	DD	00H
	DD	0ffffffffH
	DD	00H
__tryblocktable$??$_Insert_nohint@AAU?$pair@$$CBHH@std@@PAU?$_Tree_node@U?$pair@$$CBHH@std@@PAX@2@@?$_Tree@V?$_Tmap_traits@HHU?$less@H@std@@V?$allocator@U?$pair@$$CBHH@std@@@2@$0A@@std@@@std@@IAE?AU?$pair@V?$_Tree_iterator@V?$_Tree_val@U?$_Tree_simple_types@U?$pair@$$CBHH@std@@@std@@@std@@@std@@_N@1@_NAAU?$pair@$$CBHH@1@PAU?$_Tree_node@U?$pair@$$CBHH@std@@PAX@1@@Z DD 00H
	DD	00H
	DD	01H
	DD	01H
	DD	FLAT:__catchsym$??$_Insert_nohint@AAU?$pair@$$CBHH@std@@PAU?$_Tree_node@U?$pair@$$CBHH@std@@PAX@2@@?$_Tree@V?$_Tmap_traits@HHU?$less@H@std@@V?$allocator@U?$pair@$$CBHH@std@@@2@$0A@@std@@@std@@IAE?AU?$pair@V?$_Tree_iterator@V?$_Tree_val@U?$_Tree_simple_types@U?$pair@$$CBHH@std@@@std@@@std@@@std@@_N@1@_NAAU?$pair@$$CBHH@1@PAU?$_Tree_node@U?$pair@$$CBHH@std@@PAX@1@@Z$58
__ehfuncinfo$??$_Insert_nohint@AAU?$pair@$$CBHH@std@@PAU?$_Tree_node@U?$pair@$$CBHH@std@@PAX@2@@?$_Tree@V?$_Tmap_traits@HHU?$less@H@std@@V?$allocator@U?$pair@$$CBHH@std@@@2@$0A@@std@@@std@@IAE?AU?$pair@V?$_Tree_iterator@V?$_Tree_val@U?$_Tree_simple_types@U?$pair@$$CBHH@std@@@std@@@std@@@std@@_N@1@_NAAU?$pair@$$CBHH@1@PAU?$_Tree_node@U?$pair@$$CBHH@std@@PAX@1@@Z DD 019930522H
	DD	02H
	DD	FLAT:__unwindtable$??$_Insert_nohint@AAU?$pair@$$CBHH@std@@PAU?$_Tree_node@U?$pair@$$CBHH@std@@PAX@2@@?$_Tree@V?$_Tmap_traits@HHU?$less@H@std@@V?$allocator@U?$pair@$$CBHH@std@@@2@$0A@@std@@@std@@IAE?AU?$pair@V?$_Tree_iterator@V?$_Tree_val@U?$_Tree_simple_types@U?$pair@$$CBHH@std@@@std@@@std@@@std@@_N@1@_NAAU?$pair@$$CBHH@1@PAU?$_Tree_node@U?$pair@$$CBHH@std@@PAX@1@@Z
	DD	01H
	DD	FLAT:__tryblocktable$??$_Insert_nohint@AAU?$pair@$$CBHH@std@@PAU?$_Tree_node@U?$pair@$$CBHH@std@@PAX@2@@?$_Tree@V?$_Tmap_traits@HHU?$less@H@std@@V?$allocator@U?$pair@$$CBHH@std@@@2@$0A@@std@@@std@@IAE?AU?$pair@V?$_Tree_iterator@V?$_Tree_val@U?$_Tree_simple_types@U?$pair@$$CBHH@std@@@std@@@std@@@std@@_N@1@_NAAU?$pair@$$CBHH@1@PAU?$_Tree_node@U?$pair@$$CBHH@std@@PAX@1@@Z
	DD	2 DUP(00H)
	DD	00H
	DD	01H
xdata$x	ENDS
;	COMDAT xdata$x
xdata$x	SEGMENT
__catchsym$??$_Insert_hint@AAU?$pair@$$CBHH@std@@PAU?$_Tree_node@U?$pair@$$CBHH@std@@PAX@2@@?$_Tree@V?$_Tmap_traits@HHU?$less@H@std@@V?$allocator@U?$pair@$$CBHH@std@@@2@$0A@@std@@@std@@IAE?AV?$_Tree_iterator@V?$_Tree_val@U?$_Tree_simple_types@U?$pair@$$CBHH@std@@@std@@@std@@@1@V?$_Tree_const_iterator@V?$_Tree_val@U?$_Tree_simple_types@U?$pair@$$CBHH@std@@@std@@@std@@@1@AAU?$pair@$$CBHH@1@PAU?$_Tree_node@U?$pair@$$CBHH@std@@PAX@1@@Z$121 DD 040H
	DD	00H
	DD	00H
	DD	FLAT:__catch$??$_Insert_hint@AAU?$pair@$$CBHH@std@@PAU?$_Tree_node@U?$pair@$$CBHH@std@@PAX@2@@?$_Tree@V?$_Tmap_traits@HHU?$less@H@std@@V?$allocator@U?$pair@$$CBHH@std@@@2@$0A@@std@@@std@@IAE?AV?$_Tree_iterator@V?$_Tree_val@U?$_Tree_simple_types@U?$pair@$$CBHH@std@@@std@@@std@@@1@V?$_Tree_const_iterator@V?$_Tree_val@U?$_Tree_simple_types@U?$pair@$$CBHH@std@@@std@@@std@@@1@AAU?$pair@$$CBHH@1@PAU?$_Tree_node@U?$pair@$$CBHH@std@@PAX@1@@Z$0
__unwindtable$??$_Insert_hint@AAU?$pair@$$CBHH@std@@PAU?$_Tree_node@U?$pair@$$CBHH@std@@PAX@2@@?$_Tree@V?$_Tmap_traits@HHU?$less@H@std@@V?$allocator@U?$pair@$$CBHH@std@@@2@$0A@@std@@@std@@IAE?AV?$_Tree_iterator@V?$_Tree_val@U?$_Tree_simple_types@U?$pair@$$CBHH@std@@@std@@@std@@@1@V?$_Tree_const_iterator@V?$_Tree_val@U?$_Tree_simple_types@U?$pair@$$CBHH@std@@@std@@@std@@@1@AAU?$pair@$$CBHH@1@PAU?$_Tree_node@U?$pair@$$CBHH@std@@PAX@1@@Z DD 0ffffffffH
	DD	00H
	DD	0ffffffffH
	DD	00H
__tryblocktable$??$_Insert_hint@AAU?$pair@$$CBHH@std@@PAU?$_Tree_node@U?$pair@$$CBHH@std@@PAX@2@@?$_Tree@V?$_Tmap_traits@HHU?$less@H@std@@V?$allocator@U?$pair@$$CBHH@std@@@2@$0A@@std@@@std@@IAE?AV?$_Tree_iterator@V?$_Tree_val@U?$_Tree_simple_types@U?$pair@$$CBHH@std@@@std@@@std@@@1@V?$_Tree_const_iterator@V?$_Tree_val@U?$_Tree_simple_types@U?$pair@$$CBHH@std@@@std@@@std@@@1@AAU?$pair@$$CBHH@1@PAU?$_Tree_node@U?$pair@$$CBHH@std@@PAX@1@@Z DD 00H
	DD	00H
	DD	01H
	DD	01H
	DD	FLAT:__catchsym$??$_Insert_hint@AAU?$pair@$$CBHH@std@@PAU?$_Tree_node@U?$pair@$$CBHH@std@@PAX@2@@?$_Tree@V?$_Tmap_traits@HHU?$less@H@std@@V?$allocator@U?$pair@$$CBHH@std@@@2@$0A@@std@@@std@@IAE?AV?$_Tree_iterator@V?$_Tree_val@U?$_Tree_simple_types@U?$pair@$$CBHH@std@@@std@@@std@@@1@V?$_Tree_const_iterator@V?$_Tree_val@U?$_Tree_simple_types@U?$pair@$$CBHH@std@@@std@@@std@@@1@AAU?$pair@$$CBHH@1@PAU?$_Tree_node@U?$pair@$$CBHH@std@@PAX@1@@Z$121
__ehfuncinfo$??$_Insert_hint@AAU?$pair@$$CBHH@std@@PAU?$_Tree_node@U?$pair@$$CBHH@std@@PAX@2@@?$_Tree@V?$_Tmap_traits@HHU?$less@H@std@@V?$allocator@U?$pair@$$CBHH@std@@@2@$0A@@std@@@std@@IAE?AV?$_Tree_iterator@V?$_Tree_val@U?$_Tree_simple_types@U?$pair@$$CBHH@std@@@std@@@std@@@1@V?$_Tree_const_iterator@V?$_Tree_val@U?$_Tree_simple_types@U?$pair@$$CBHH@std@@@std@@@std@@@1@AAU?$pair@$$CBHH@1@PAU?$_Tree_node@U?$pair@$$CBHH@std@@PAX@1@@Z DD 019930522H
	DD	02H
	DD	FLAT:__unwindtable$??$_Insert_hint@AAU?$pair@$$CBHH@std@@PAU?$_Tree_node@U?$pair@$$CBHH@std@@PAX@2@@?$_Tree@V?$_Tmap_traits@HHU?$less@H@std@@V?$allocator@U?$pair@$$CBHH@std@@@2@$0A@@std@@@std@@IAE?AV?$_Tree_iterator@V?$_Tree_val@U?$_Tree_simple_types@U?$pair@$$CBHH@std@@@std@@@std@@@1@V?$_Tree_const_iterator@V?$_Tree_val@U?$_Tree_simple_types@U?$pair@$$CBHH@std@@@std@@@std@@@1@AAU?$pair@$$CBHH@1@PAU?$_Tree_node@U?$pair@$$CBHH@std@@PAX@1@@Z
	DD	01H
	DD	FLAT:__tryblocktable$??$_Insert_hint@AAU?$pair@$$CBHH@std@@PAU?$_Tree_node@U?$pair@$$CBHH@std@@PAX@2@@?$_Tree@V?$_Tmap_traits@HHU?$less@H@std@@V?$allocator@U?$pair@$$CBHH@std@@@2@$0A@@std@@@std@@IAE?AV?$_Tree_iterator@V?$_Tree_val@U?$_Tree_simple_types@U?$pair@$$CBHH@std@@@std@@@std@@@1@V?$_Tree_const_iterator@V?$_Tree_val@U?$_Tree_simple_types@U?$pair@$$CBHH@std@@@std@@@std@@@1@AAU?$pair@$$CBHH@1@PAU?$_Tree_node@U?$pair@$$CBHH@std@@PAX@1@@Z
	DD	2 DUP(00H)
	DD	00H
	DD	01H
xdata$x	ENDS
;	COMDAT xdata$x
xdata$x	SEGMENT
__ehfuncinfo$?clear@?$_Tree@V?$_Tmap_traits@HHU?$less@H@std@@V?$allocator@U?$pair@$$CBHH@std@@@2@$0A@@std@@@std@@QAEXXZ DD 019930522H
	DD	00H
	DD	00H
	DD	2 DUP(00H)
	DD	2 DUP(00H)
	DD	00H
	DD	05H
xdata$x	ENDS
; Function compile flags: /Ogtp
; File c:\program files (x86)\microsoft visual studio 14.0\vc\include\tuple
;	COMDAT ??$get@$0A@ABH@std@@YAABH$$QAV?$tuple@ABH@0@@Z
_TEXT	SEGMENT
__Tuple$ = 8						; size = 4
??$get@$0A@ABH@std@@YAABH$$QAV?$tuple@ABH@0@@Z PROC	; std::get<0,int const &>, COMDAT

; 609  : 	{	// get rvalue reference to _Index element of tuple

  00000	55		 push	 ebp
  00001	8b ec		 mov	 ebp, esp

; 610  : 	typedef typename tuple_element<_Index, tuple<_Types...> >::_Ttype
; 611  : 		_Ttype;
; 612  : 	typedef typename tuple_element<_Index, tuple<_Types...> >::type&&
; 613  : 		_RRtype;
; 614  : 	return (_STD forward<_RRtype>(((_Ttype&)_Tuple)._Myfirst._Val));

  00003	8b 45 08	 mov	 eax, DWORD PTR __Tuple$[ebp]
  00006	8b 00		 mov	 eax, DWORD PTR [eax]

; 615  : 	}

  00008	5d		 pop	 ebp
  00009	c3		 ret	 0
??$get@$0A@ABH@std@@YAABH$$QAV?$tuple@ABH@0@@Z ENDP	; std::get<0,int const &>
_TEXT	ENDS
; Function compile flags: /Ogtp
; File c:\program files (x86)\microsoft visual studio 14.0\vc\include\type_traits
;	COMDAT ??$move@AAV?$tuple@ABH@std@@@std@@YA$$QAV?$tuple@ABH@0@AAV10@@Z
_TEXT	SEGMENT
__Arg$ = 8						; size = 4
??$move@AAV?$tuple@ABH@std@@@std@@YA$$QAV?$tuple@ABH@0@AAV10@@Z PROC ; std::move<std::tuple<int const &> &>, COMDAT

; 1249 : 	{	// forward _Arg as movable

  00000	55		 push	 ebp
  00001	8b ec		 mov	 ebp, esp

; 1250 : 	return (static_cast<typename remove_reference<_Ty>::type&&>(_Arg));

  00003	8b 45 08	 mov	 eax, DWORD PTR __Arg$[ebp]

; 1251 : 	}

  00006	5d		 pop	 ebp
  00007	c3		 ret	 0
??$move@AAV?$tuple@ABH@std@@@std@@YA$$QAV?$tuple@ABH@0@AAV10@@Z ENDP ; std::move<std::tuple<int const &> &>
_TEXT	ENDS
; Function compile flags: /Ogtp
; File c:\program files (x86)\microsoft visual studio 14.0\vc\include\tuple
;	COMDAT ??$?0V?$tuple@ABH@std@@V?$tuple@$$V@1@$0A@$$Z$S@?$pair@$$CBHH@std@@QAE@AAV?$tuple@ABH@1@AAV?$tuple@$$V@1@U?$integer_sequence@I$0A@@1@U?$integer_sequence@I$S@1@@Z
_TEXT	SEGMENT
__Val1$ = 8						; size = 4
__Val2$ = 12						; size = 4
___formal$ = 16						; size = 1
___formal$ = 20						; size = 1
??$?0V?$tuple@ABH@std@@V?$tuple@$$V@1@$0A@$$Z$S@?$pair@$$CBHH@std@@QAE@AAV?$tuple@ABH@1@AAV?$tuple@$$V@1@U?$integer_sequence@I$0A@@1@U?$integer_sequence@I$S@1@@Z PROC ; std::pair<int const ,int>::pair<int const ,int><std::tuple<int const &>,std::tuple<>,0>, COMDAT
; _this$ = ecx

; 829  : 		{	// construct from pair of tuples

  00000	55		 push	 ebp
  00001	8b ec		 mov	 ebp, esp

; 614  : 	return (_STD forward<_RRtype>(((_Ttype&)_Tuple)._Myfirst._Val));

  00003	8b 45 08	 mov	 eax, DWORD PTR __Val1$[ebp]
  00006	8b 00		 mov	 eax, DWORD PTR [eax]

; 615  : 	}
; 616  : 
; 617  : 	// TEMPLATE FUNCTION get (by type)
; 618  : template<class _Ty,
; 619  : 	class... _Types> inline
; 620  : 	_CONST_FUN _Ty& get(tuple<_Types...>& _Tuple) _NOEXCEPT
; 621  : 	{	// get reference to _Ty element of tuple
; 622  : 	typedef typename _Tuple_element<_Ty, tuple<_Types...> >::_Ttype _Ttype;
; 623  : 	return (((_Ttype&)_Tuple)._Myfirst._Val);
; 624  : 	}
; 625  : 
; 626  : template<class _Ty,
; 627  : 	class... _Types> inline
; 628  : 	_CONST_FUN const _Ty& get(const tuple<_Types...>& _Tuple) _NOEXCEPT
; 629  : 	{	// get const reference to _Ty element of tuple
; 630  : 	typedef typename _Tuple_element<_Ty, tuple<_Types...> >::_Ttype _Ttype;
; 631  : 	return (((_Ttype&)_Tuple)._Myfirst._Val);
; 632  : 	}
; 633  : 
; 634  : template<class _Ty,
; 635  : 	class... _Types> inline
; 636  : 	_CONST_FUN _Ty&& get(tuple<_Types...>&& _Tuple) _NOEXCEPT
; 637  : 	{	// get rvalue reference to _Ty element of tuple
; 638  : 	typedef typename _Tuple_element<_Ty, tuple<_Types...> >::_Ttype _Ttype;
; 639  : 	return (_STD forward<_Ty&&>(((_Ttype&)_Tuple)._Myfirst._Val));
; 640  : 	}
; 641  : 
; 642  : 	// TEMPLATE FUNCTION make_tuple
; 643  : template<class... _Types> inline
; 644  : 	_CONST_FUN tuple<typename _Unrefwrap<_Types>::type...>
; 645  : 		make_tuple(_Types&&... _Args)
; 646  : 	{	// make tuple from elements
; 647  : 	typedef tuple<typename _Unrefwrap<_Types>::type...> _Ttype;
; 648  : 	return (_Ttype(_STD forward<_Types>(_Args)...));
; 649  : 	}
; 650  : 
; 651  : 	// TEMPLATE FUNCTION tie
; 652  : template<class... _Types> inline
; 653  : 	_CONST_FUN tuple<_Types&...>
; 654  : 		tie(_Types&... _Args) _NOEXCEPT
; 655  : 	{	// make tuple from elements
; 656  : 	typedef tuple<_Types&...> _Ttype;
; 657  : 	return (_Ttype(_Args...));
; 658  : 	}
; 659  : 
; 660  : 
; 661  : 	// TEMPLATE FUNCTION forward_as_tuple
; 662  : 
; 663  : template<class... _Types> inline
; 664  : 	_CONST_FUN tuple<_Types&&...>
; 665  : 		forward_as_tuple(_Types&&... _Args) _NOEXCEPT
; 666  : 	{	// forward arguments in a tuple
; 667  : 	return (tuple<_Types&&...>(_STD forward<_Types>(_Args)...));
; 668  : 	}
; 669  : 
; 670  : 
; 671  : 	// TEMPLATE STRUCT _Cat_sequences
; 672  : template<class _Seq_type1,
; 673  : 	class _Seq_type2>
; 674  : 	struct _Cat_sequences;
; 675  : 
; 676  : template<size_t... _Indexes1,
; 677  : 	size_t... _Indexes2>
; 678  : 	struct _Cat_sequences<integer_sequence<size_t, _Indexes1...>,
; 679  : 		integer_sequence<size_t, _Indexes2...> >
; 680  : 	{	// concatenates two integer_sequence types
; 681  : 	typedef integer_sequence<size_t, _Indexes1..., _Indexes2...> type;
; 682  : 	};
; 683  : 
; 684  : 	// FORWARD DECLARATIONS
; 685  : template<class _Ty,
; 686  : 	size_t _Size>
; 687  : 	class array;
; 688  : 
; 689  : template<size_t _Idx,
; 690  : 	class _Ty,
; 691  : 	size_t _Size>
; 692  : 	_CONST_FUN _Ty& get(array<_Ty, _Size>& _Arr) _NOEXCEPT;
; 693  : 
; 694  : template<size_t _Idx,
; 695  : 	class _Ty,
; 696  : 	size_t _Size>
; 697  : 	_CONST_FUN const _Ty& get(const array<_Ty, _Size>& _Arr) _NOEXCEPT;
; 698  : 
; 699  : template<size_t _Idx,
; 700  : 	class _Ty,
; 701  : 	size_t _Size>
; 702  : 	_CONST_FUN _Ty&& get(array<_Ty, _Size>&& _Arr) _NOEXCEPT;
; 703  : 
; 704  : 	// TEMPLATE STRUCT _View_as_tuple
; 705  : template<class _Ty,
; 706  : 	class... _For_array>
; 707  : 	struct _View_as_tuple
; 708  : 	{	// tuple_cat() supports only tuples, pairs, and arrays
; 709  : 	static_assert(_Always_false<_Ty>::value,
; 710  : 		"Unsupported tuple_cat arguments.");
; 711  : 	};
; 712  : 
; 713  : template<class... _Types>
; 714  : 	struct _View_as_tuple<tuple<_Types...> >
; 715  : 	{	// view a tuple as a tuple
; 716  : 	typedef tuple<_Types...> type;
; 717  : 	};
; 718  : 
; 719  : template<class _Ty1,
; 720  : 	class _Ty2>
; 721  : 	struct _View_as_tuple<pair<_Ty1, _Ty2> >
; 722  : 	{	// view a pair as a tuple
; 723  : 	typedef tuple<_Ty1, _Ty2> type;
; 724  : 	};
; 725  : 
; 726  : template<class _Ty,
; 727  : 	class... _Types>
; 728  : 	struct _View_as_tuple<array<_Ty, 0>, _Types...>
; 729  : 	{	// view an array as a tuple; ends recursion at 0
; 730  : 	typedef tuple<_Types...> type;
; 731  : 	};
; 732  : 
; 733  : template<class _Ty,
; 734  : 	size_t _Size,
; 735  : 	class... _Types>
; 736  : 	struct _View_as_tuple<array<_Ty, _Size>, _Types...>
; 737  : 		: _View_as_tuple<array<_Ty, _Size - 1>, _Ty, _Types...>
; 738  : 	{	// view an array as a tuple; counts down to 0
; 739  : 	};
; 740  : 
; 741  : 	// TEMPLATE STRUCT _Repeat_for
; 742  : template<size_t _Nx,
; 743  : 	class _Ty>
; 744  : 	struct _Repeat_for
; 745  : 		: integral_constant<size_t, _Nx>
; 746  : 	{	// repeats _Nx for each _Ty in a parameter pack
; 747  : 	};
; 748  : 
; 749  : 	// TEMPLATE FUNCTION tuple_cat
; 750  : template<class _Ret,
; 751  : 	class _Kx_arg,
; 752  : 	class _Ix_arg,
; 753  : 	size_t _Ix_next,
; 754  : 	class... _Tuples>
; 755  : 	struct _Tuple_cat2
; 756  : 	{	// determine tuple_cat's return type and _Kx/_Ix indices
; 757  : 	static_assert(sizeof...(_Tuples) == 0,
; 758  : 		"Unsupported tuple_cat arguments.");
; 759  : 	typedef _Ret type;
; 760  : 	typedef _Kx_arg _Kx_arg_seq;
; 761  : 	typedef _Ix_arg _Ix_arg_seq;
; 762  : 	};
; 763  : 
; 764  : template<class... _Types1,
; 765  : 	class _Kx_arg,
; 766  : 	size_t... _Ix,
; 767  : 	size_t _Ix_next,
; 768  : 	class... _Types2,
; 769  : 	class... _Rest>
; 770  : 	struct _Tuple_cat2<tuple<_Types1...>, _Kx_arg,
; 771  : 		integer_sequence<size_t, _Ix...>, _Ix_next,
; 772  : 		tuple<_Types2...>, _Rest...>
; 773  : 		: _Tuple_cat2<
; 774  : 			tuple<_Types1..., _Types2...>,
; 775  : 			typename _Cat_sequences<_Kx_arg,
; 776  : 
; 777  : 				make_integer_sequence<size_t, sizeof...(_Types2)> >::type,
; 778  : 
; 779  : 			integer_sequence<size_t, _Ix...,
; 780  : 				_Repeat_for<_Ix_next, _Types2>::value...>,
; 781  : 			_Ix_next + 1,
; 782  : 			_Rest...>
; 783  : 	{	// determine tuple_cat's return type and _Kx/_Ix indices
; 784  : 	};
; 785  : 
; 786  : template<class... _Tuples>
; 787  : 	struct _Tuple_cat1
; 788  : 		: _Tuple_cat2<tuple<>, integer_sequence<size_t>,
; 789  : 				integer_sequence<size_t>, 0,
; 790  : 			typename _View_as_tuple<typename decay<_Tuples>::type>::type...>
; 791  : 	{	// prepare to determine tuple_cat's return type and _Kx/_Ix indices
; 792  : 	};
; 793  : 
; 794  : template<class _Ret,
; 795  : 	size_t... _Kx,
; 796  : 	size_t... _Ix,
; 797  : 	class _Ty> inline
; 798  : 	_CONST_FUN _Ret _Tuple_cat(integer_sequence<size_t, _Kx...>,
; 799  : 		integer_sequence<size_t, _Ix...>, _Ty&& _Arg)
; 800  : 	{	// concatenate tuples
; 801  : 	return (_Ret(_STD get<_Kx>(_STD get<_Ix>(_STD forward<_Ty>(_Arg)))...));
; 802  : 	}
; 803  : 
; 804  : template<class... _Tuples> inline
; 805  : 	_CONST_FUN typename _Tuple_cat1<_Tuples...>::type
; 806  : 		tuple_cat(_Tuples&&... _Tpls)
; 807  : 	{	// concatenate tuples
; 808  : 	typedef _Tuple_cat1<_Tuples...> _Cat1;
; 809  : 	return (_Tuple_cat<typename _Cat1::type>(
; 810  : 		typename _Cat1::_Kx_arg_seq(), typename _Cat1::_Ix_arg_seq(),
; 811  : 		_STD forward_as_tuple(_STD forward<_Tuples>(_Tpls)...)));
; 812  : 	}
; 813  : 
; 814  : 
; 815  : 
; 816  : 	// TEMPLATE CONSTRUCTOR pair::pair(tuple, tuple, sequence, sequence)
; 817  : template<class _Ty1,
; 818  : 	class _Ty2>
; 819  : 	template<class _Tuple1,
; 820  : 		class _Tuple2,
; 821  : 		size_t... _Indexes1,
; 822  : 		size_t... _Indexes2> inline
; 823  : 		pair<_Ty1, _Ty2>::pair(_Tuple1& _Val1,
; 824  : 			_Tuple2& _Val2,
; 825  : 			integer_sequence<size_t, _Indexes1...>,
; 826  : 			integer_sequence<size_t, _Indexes2...>)
; 827  : 		: first(_STD get<_Indexes1>(_STD move(_Val1))...),

  00008	8b 00		 mov	 eax, DWORD PTR [eax]
  0000a	89 01		 mov	 DWORD PTR [ecx], eax

; 830  : 		}

  0000c	8b c1		 mov	 eax, ecx
  0000e	c7 41 04 00 00
	00 00		 mov	 DWORD PTR [ecx+4], 0
  00015	5d		 pop	 ebp
  00016	c2 10 00	 ret	 16			; 00000010H
??$?0V?$tuple@ABH@std@@V?$tuple@$$V@1@$0A@$$Z$S@?$pair@$$CBHH@std@@QAE@AAV?$tuple@ABH@1@AAV?$tuple@$$V@1@U?$integer_sequence@I$0A@@1@U?$integer_sequence@I$S@1@@Z ENDP ; std::pair<int const ,int>::pair<int const ,int><std::tuple<int const &>,std::tuple<>,0>
_TEXT	ENDS
; Function compile flags: /Ogtp
; File c:\program files (x86)\microsoft visual studio 14.0\vc\include\tuple
;	COMDAT ??$?0ABH$$Z$$V@?$pair@$$CBHH@std@@QAE@Upiecewise_construct_t@1@V?$tuple@ABH@1@V?$tuple@$$V@1@@Z
_TEXT	SEGMENT
___formal$ = 8						; size = 1
__Val1$ = 12						; size = 4
__Val2$ = 16						; size = 1
??$?0ABH$$Z$$V@?$pair@$$CBHH@std@@QAE@Upiecewise_construct_t@1@V?$tuple@ABH@1@V?$tuple@$$V@1@@Z PROC ; std::pair<int const ,int>::pair<int const ,int><int const &>, COMDAT
; _this$ = ecx

; 843  : 		{	// construct from pair of tuples

  00000	55		 push	 ebp
  00001	8b ec		 mov	 ebp, esp

; 827  : 		: first(_STD get<_Indexes1>(_STD move(_Val1))...),

  00003	8b 45 0c	 mov	 eax, DWORD PTR __Val1$[ebp]
  00006	8b 00		 mov	 eax, DWORD PTR [eax]
  00008	89 01		 mov	 DWORD PTR [ecx], eax

; 844  : 		}

  0000a	8b c1		 mov	 eax, ecx

; 828  : 			second(_STD get<_Indexes2>(_STD move(_Val2))...)

  0000c	c7 41 04 00 00
	00 00		 mov	 DWORD PTR [ecx+4], 0

; 844  : 		}

  00013	5d		 pop	 ebp
  00014	c2 0c 00	 ret	 12			; 0000000cH
??$?0ABH$$Z$$V@?$pair@$$CBHH@std@@QAE@Upiecewise_construct_t@1@V?$tuple@ABH@1@V?$tuple@$$V@1@@Z ENDP ; std::pair<int const ,int>::pair<int const ,int><int const &>
_TEXT	ENDS
; Function compile flags: /Ogtp
; File c:\program files (x86)\microsoft visual studio 14.0\vc\include\type_traits
;	COMDAT ??$forward@AAV?$_Tree_iterator@V?$_Tree_val@U?$_Tree_simple_types@U?$pair@$$CBHH@std@@@std@@@std@@@std@@@std@@YAAAV?$_Tree_iterator@V?$_Tree_val@U?$_Tree_simple_types@U?$pair@$$CBHH@std@@@std@@@std@@@0@AAV10@@Z
_TEXT	SEGMENT
__Arg$ = 8						; size = 4
??$forward@AAV?$_Tree_iterator@V?$_Tree_val@U?$_Tree_simple_types@U?$pair@$$CBHH@std@@@std@@@std@@@std@@@std@@YAAAV?$_Tree_iterator@V?$_Tree_val@U?$_Tree_simple_types@U?$pair@$$CBHH@std@@@std@@@std@@@0@AAV10@@Z PROC ; std::forward<std::_Tree_iterator<std::_Tree_val<std::_Tree_simple_types<std::pair<int const ,int> > > > &>, COMDAT

; 1233 : 	{	// forward an lvalue as either an lvalue or an rvalue

  00000	55		 push	 ebp
  00001	8b ec		 mov	 ebp, esp

; 1234 : 	return (static_cast<_Ty&&>(_Arg));

  00003	8b 45 08	 mov	 eax, DWORD PTR __Arg$[ebp]

; 1235 : 	}

  00006	5d		 pop	 ebp
  00007	c3		 ret	 0
??$forward@AAV?$_Tree_iterator@V?$_Tree_val@U?$_Tree_simple_types@U?$pair@$$CBHH@std@@@std@@@std@@@std@@@std@@YAAAV?$_Tree_iterator@V?$_Tree_val@U?$_Tree_simple_types@U?$pair@$$CBHH@std@@@std@@@std@@@0@AAV10@@Z ENDP ; std::forward<std::_Tree_iterator<std::_Tree_val<std::_Tree_simple_types<std::pair<int const ,int> > > > &>
_TEXT	ENDS
; Function compile flags: /Ogtp
; File c:\program files (x86)\microsoft visual studio 14.0\vc\include\type_traits
;	COMDAT ??$forward@_N@std@@YA$$QA_NAA_N@Z
_TEXT	SEGMENT
__Arg$ = 8						; size = 4
??$forward@_N@std@@YA$$QA_NAA_N@Z PROC			; std::forward<bool>, COMDAT

; 1233 : 	{	// forward an lvalue as either an lvalue or an rvalue

  00000	55		 push	 ebp
  00001	8b ec		 mov	 ebp, esp

; 1234 : 	return (static_cast<_Ty&&>(_Arg));

  00003	8b 45 08	 mov	 eax, DWORD PTR __Arg$[ebp]

; 1235 : 	}

  00006	5d		 pop	 ebp
  00007	c3		 ret	 0
??$forward@_N@std@@YA$$QA_NAA_N@Z ENDP			; std::forward<bool>
_TEXT	ENDS
; Function compile flags: /Ogtp
; File c:\program files (x86)\microsoft visual studio 14.0\vc\include\type_traits
;	COMDAT ??$forward@V?$_Tree_iterator@V?$_Tree_val@U?$_Tree_simple_types@U?$pair@$$CBHH@std@@@std@@@std@@@std@@@std@@YA$$QAV?$_Tree_iterator@V?$_Tree_val@U?$_Tree_simple_types@U?$pair@$$CBHH@std@@@std@@@std@@@0@AAV10@@Z
_TEXT	SEGMENT
__Arg$ = 8						; size = 4
??$forward@V?$_Tree_iterator@V?$_Tree_val@U?$_Tree_simple_types@U?$pair@$$CBHH@std@@@std@@@std@@@std@@@std@@YA$$QAV?$_Tree_iterator@V?$_Tree_val@U?$_Tree_simple_types@U?$pair@$$CBHH@std@@@std@@@std@@@0@AAV10@@Z PROC ; std::forward<std::_Tree_iterator<std::_Tree_val<std::_Tree_simple_types<std::pair<int const ,int> > > > >, COMDAT

; 1233 : 	{	// forward an lvalue as either an lvalue or an rvalue

  00000	55		 push	 ebp
  00001	8b ec		 mov	 ebp, esp

; 1234 : 	return (static_cast<_Ty&&>(_Arg));

  00003	8b 45 08	 mov	 eax, DWORD PTR __Arg$[ebp]

; 1235 : 	}

  00006	5d		 pop	 ebp
  00007	c3		 ret	 0
??$forward@V?$_Tree_iterator@V?$_Tree_val@U?$_Tree_simple_types@U?$pair@$$CBHH@std@@@std@@@std@@@std@@@std@@YA$$QAV?$_Tree_iterator@V?$_Tree_val@U?$_Tree_simple_types@U?$pair@$$CBHH@std@@@std@@@std@@@0@AAV10@@Z ENDP ; std::forward<std::_Tree_iterator<std::_Tree_val<std::_Tree_simple_types<std::pair<int const ,int> > > > >
_TEXT	ENDS
; Function compile flags: /Ogtp
; File c:\program files (x86)\microsoft visual studio 14.0\vc\include\xmemory0
; File c:\users\michel\desktop\source\gameserver\source\trandompoolmgr.cpp
; File c:\program files (x86)\microsoft visual studio 14.0\vc\include\tuple
; File c:\program files (x86)\microsoft visual studio 14.0\vc\include\xmemory0
;	COMDAT ??$construct@U?$pair@$$CBHH@std@@ABUpiecewise_construct_t@2@V?$tuple@ABH@2@V?$tuple@$$V@2@@?$allocator@U?$_Tree_node@U?$pair@$$CBHH@std@@PAX@std@@@std@@QAEXPAU?$pair@$$CBHH@1@ABUpiecewise_construct_t@1@$$QAV?$tuple@ABH@1@$$QAV?$tuple@$$V@1@@Z
_TEXT	SEGMENT
__Ptr$ = 8						; size = 4
_<_Args_0>$ = 12					; size = 4
_<_Args_1>$ = 16					; size = 4
_<_Args_2>$ = 20					; size = 4
??$construct@U?$pair@$$CBHH@std@@ABUpiecewise_construct_t@2@V?$tuple@ABH@2@V?$tuple@$$V@2@@?$allocator@U?$_Tree_node@U?$pair@$$CBHH@std@@PAX@std@@@std@@QAEXPAU?$pair@$$CBHH@1@ABUpiecewise_construct_t@1@$$QAV?$tuple@ABH@1@$$QAV?$tuple@$$V@1@@Z PROC ; std::allocator<std::_Tree_node<std::pair<int const ,int>,void *> >::construct<std::pair<int const ,int>,std::piecewise_construct_t const &,std::tuple<int const &>,std::tuple<> >, COMDAT
; _this$ = ecx

; 654  : 		{	// construct _Objty(_Types...) at _Ptr

  00000	55		 push	 ebp
  00001	8b ec		 mov	 ebp, esp

; 655  : 		::new ((void *)_Ptr) _Objty(_STD forward<_Types>(_Args)...);

  00003	8b 4d 08	 mov	 ecx, DWORD PTR __Ptr$[ebp]
  00006	85 c9		 test	 ecx, ecx
  00008	74 10		 je	 SHORT $LN3@construct
; File c:\users\michel\desktop\source\gameserver\source\trandompoolmgr.cpp

  0000a	8b 45 10	 mov	 eax, DWORD PTR _<_Args_1>$[ebp]
  0000d	8b 00		 mov	 eax, DWORD PTR [eax]
; File c:\program files (x86)\microsoft visual studio 14.0\vc\include\tuple

; 827  : 		: first(_STD get<_Indexes1>(_STD move(_Val1))...),

  0000f	8b 00		 mov	 eax, DWORD PTR [eax]
  00011	89 01		 mov	 DWORD PTR [ecx], eax

; 828  : 			second(_STD get<_Indexes2>(_STD move(_Val2))...)

  00013	c7 41 04 00 00
	00 00		 mov	 DWORD PTR [ecx+4], 0
$LN3@construct:
; File c:\program files (x86)\microsoft visual studio 14.0\vc\include\xmemory0

; 656  : 		}

  0001a	5d		 pop	 ebp
  0001b	c2 10 00	 ret	 16			; 00000010H
??$construct@U?$pair@$$CBHH@std@@ABUpiecewise_construct_t@2@V?$tuple@ABH@2@V?$tuple@$$V@2@@?$allocator@U?$_Tree_node@U?$pair@$$CBHH@std@@PAX@std@@@std@@QAEXPAU?$pair@$$CBHH@1@ABUpiecewise_construct_t@1@$$QAV?$tuple@ABH@1@$$QAV?$tuple@$$V@1@@Z ENDP ; std::allocator<std::_Tree_node<std::pair<int const ,int>,void *> >::construct<std::pair<int const ,int>,std::piecewise_construct_t const &,std::tuple<int const &>,std::tuple<> >
_TEXT	ENDS
; Function compile flags: /Ogtp
; File c:\program files (x86)\microsoft visual studio 14.0\vc\include\utility
;	COMDAT ??$?0AAV?$_Tree_iterator@V?$_Tree_val@U?$_Tree_simple_types@U?$pair@$$CBHH@std@@@std@@@std@@@std@@_NX@?$pair@V?$_Tree_iterator@V?$_Tree_val@U?$_Tree_simple_types@U?$pair@$$CBHH@std@@@std@@@std@@@std@@_N@std@@QAE@AAV?$_Tree_iterator@V?$_Tree_val@U?$_Tree_simple_types@U?$pair@$$CBHH@std@@@std@@@std@@@1@$$QA_N@Z
_TEXT	SEGMENT
__Val1$ = 8						; size = 4
__Val2$ = 12						; size = 4
??$?0AAV?$_Tree_iterator@V?$_Tree_val@U?$_Tree_simple_types@U?$pair@$$CBHH@std@@@std@@@std@@@std@@_NX@?$pair@V?$_Tree_iterator@V?$_Tree_val@U?$_Tree_simple_types@U?$pair@$$CBHH@std@@@std@@@std@@@std@@_N@std@@QAE@AAV?$_Tree_iterator@V?$_Tree_val@U?$_Tree_simple_types@U?$pair@$$CBHH@std@@@std@@@std@@@1@$$QA_N@Z PROC ; std::pair<std::_Tree_iterator<std::_Tree_val<std::_Tree_simple_types<std::pair<int const ,int> > > >,bool>::pair<std::_Tree_iterator<std::_Tree_val<std::_Tree_simple_types<std::pair<int const ,int> > > >,bool><std::_Tree_iterator<std::_Tree_val<std::_Tree_simple_types<std::pair<int const ,int> > > > &,bool,void>, COMDAT
; _this$ = ecx

; 145  : 		{	// construct from moved values

  00000	55		 push	 ebp
  00001	8b ec		 mov	 ebp, esp

; 143  : 		: first(_STD forward<_Other1>(_Val1)),

  00003	8b 45 08	 mov	 eax, DWORD PTR __Val1$[ebp]
  00006	8b 00		 mov	 eax, DWORD PTR [eax]
  00008	89 01		 mov	 DWORD PTR [ecx], eax

; 144  : 				second(_STD forward<_Other2>(_Val2))

  0000a	8b 45 0c	 mov	 eax, DWORD PTR __Val2$[ebp]
  0000d	8a 00		 mov	 al, BYTE PTR [eax]
  0000f	88 41 04	 mov	 BYTE PTR [ecx+4], al

; 146  : 		}

  00012	8b c1		 mov	 eax, ecx
  00014	5d		 pop	 ebp
  00015	c2 08 00	 ret	 8
??$?0AAV?$_Tree_iterator@V?$_Tree_val@U?$_Tree_simple_types@U?$pair@$$CBHH@std@@@std@@@std@@@std@@_NX@?$pair@V?$_Tree_iterator@V?$_Tree_val@U?$_Tree_simple_types@U?$pair@$$CBHH@std@@@std@@@std@@@std@@_N@std@@QAE@AAV?$_Tree_iterator@V?$_Tree_val@U?$_Tree_simple_types@U?$pair@$$CBHH@std@@@std@@@std@@@1@$$QA_N@Z ENDP ; std::pair<std::_Tree_iterator<std::_Tree_val<std::_Tree_simple_types<std::pair<int const ,int> > > >,bool>::pair<std::_Tree_iterator<std::_Tree_val<std::_Tree_simple_types<std::pair<int const ,int> > > >,bool><std::_Tree_iterator<std::_Tree_val<std::_Tree_simple_types<std::pair<int const ,int> > > > &,bool,void>
_TEXT	ENDS
; Function compile flags: /Ogtp
; File c:\program files (x86)\microsoft visual studio 14.0\vc\include\utility
;	COMDAT ??$?0V?$_Tree_iterator@V?$_Tree_val@U?$_Tree_simple_types@U?$pair@$$CBHH@std@@@std@@@std@@@std@@_NX@?$pair@V?$_Tree_iterator@V?$_Tree_val@U?$_Tree_simple_types@U?$pair@$$CBHH@std@@@std@@@std@@@std@@_N@std@@QAE@$$QAV?$_Tree_iterator@V?$_Tree_val@U?$_Tree_simple_types@U?$pair@$$CBHH@std@@@std@@@std@@@1@$$QA_N@Z
_TEXT	SEGMENT
__Val1$ = 8						; size = 4
__Val2$ = 12						; size = 4
??$?0V?$_Tree_iterator@V?$_Tree_val@U?$_Tree_simple_types@U?$pair@$$CBHH@std@@@std@@@std@@@std@@_NX@?$pair@V?$_Tree_iterator@V?$_Tree_val@U?$_Tree_simple_types@U?$pair@$$CBHH@std@@@std@@@std@@@std@@_N@std@@QAE@$$QAV?$_Tree_iterator@V?$_Tree_val@U?$_Tree_simple_types@U?$pair@$$CBHH@std@@@std@@@std@@@1@$$QA_N@Z PROC ; std::pair<std::_Tree_iterator<std::_Tree_val<std::_Tree_simple_types<std::pair<int const ,int> > > >,bool>::pair<std::_Tree_iterator<std::_Tree_val<std::_Tree_simple_types<std::pair<int const ,int> > > >,bool><std::_Tree_iterator<std::_Tree_val<std::_Tree_simple_types<std::pair<int const ,int> > > >,bool,void>, COMDAT
; _this$ = ecx

; 145  : 		{	// construct from moved values

  00000	55		 push	 ebp
  00001	8b ec		 mov	 ebp, esp

; 143  : 		: first(_STD forward<_Other1>(_Val1)),

  00003	8b 45 08	 mov	 eax, DWORD PTR __Val1$[ebp]
  00006	8b 00		 mov	 eax, DWORD PTR [eax]
  00008	89 01		 mov	 DWORD PTR [ecx], eax

; 144  : 				second(_STD forward<_Other2>(_Val2))

  0000a	8b 45 0c	 mov	 eax, DWORD PTR __Val2$[ebp]
  0000d	8a 00		 mov	 al, BYTE PTR [eax]
  0000f	88 41 04	 mov	 BYTE PTR [ecx+4], al

; 146  : 		}

  00012	8b c1		 mov	 eax, ecx
  00014	5d		 pop	 ebp
  00015	c2 08 00	 ret	 8
??$?0V?$_Tree_iterator@V?$_Tree_val@U?$_Tree_simple_types@U?$pair@$$CBHH@std@@@std@@@std@@@std@@_NX@?$pair@V?$_Tree_iterator@V?$_Tree_val@U?$_Tree_simple_types@U?$pair@$$CBHH@std@@@std@@@std@@@std@@_N@std@@QAE@$$QAV?$_Tree_iterator@V?$_Tree_val@U?$_Tree_simple_types@U?$pair@$$CBHH@std@@@std@@@std@@@1@$$QA_N@Z ENDP ; std::pair<std::_Tree_iterator<std::_Tree_val<std::_Tree_simple_types<std::pair<int const ,int> > > >,bool>::pair<std::_Tree_iterator<std::_Tree_val<std::_Tree_simple_types<std::pair<int const ,int> > > >,bool><std::_Tree_iterator<std::_Tree_val<std::_Tree_simple_types<std::pair<int const ,int> > > >,bool,void>
_TEXT	ENDS
; Function compile flags: /Ogtp
; File c:\program files (x86)\microsoft visual studio 14.0\vc\include\xtree
;	COMDAT ??$_Buynode_if_nil@AAU?$pair@$$CBHH@std@@@?$_Tree@V?$_Tmap_traits@HHU?$less@H@std@@V?$allocator@U?$pair@$$CBHH@std@@@2@$0A@@std@@@std@@IAEPAU?$_Tree_node@U?$pair@$$CBHH@std@@PAX@1@PAU21@AAU?$pair@$$CBHH@1@@Z
_TEXT	SEGMENT
__Node$ = 8						; size = 4
___formal$ = 12						; size = 4
??$_Buynode_if_nil@AAU?$pair@$$CBHH@std@@@?$_Tree@V?$_Tmap_traits@HHU?$less@H@std@@V?$allocator@U?$pair@$$CBHH@std@@@2@$0A@@std@@@std@@IAEPAU?$_Tree_node@U?$pair@$$CBHH@std@@PAX@1@PAU21@AAU?$pair@$$CBHH@1@@Z PROC ; std::_Tree<std::_Tmap_traits<int,int,std::less<int>,std::allocator<std::pair<int const ,int> >,0> >::_Buynode_if_nil<std::pair<int const ,int> &>, COMDAT
; _this$ = ecx

; 1657 : 		{	// node exists, just return it

  00000	55		 push	 ebp
  00001	8b ec		 mov	 ebp, esp

; 1658 : 		return (_Node);

  00003	8b 45 08	 mov	 eax, DWORD PTR __Node$[ebp]

; 1659 : 		}

  00006	5d		 pop	 ebp
  00007	c2 08 00	 ret	 8
??$_Buynode_if_nil@AAU?$pair@$$CBHH@std@@@?$_Tree@V?$_Tmap_traits@HHU?$less@H@std@@V?$allocator@U?$pair@$$CBHH@std@@@2@$0A@@std@@@std@@IAEPAU?$_Tree_node@U?$pair@$$CBHH@std@@PAX@1@PAU21@AAU?$pair@$$CBHH@1@@Z ENDP ; std::_Tree<std::_Tmap_traits<int,int,std::less<int>,std::allocator<std::pair<int const ,int> >,0> >::_Buynode_if_nil<std::pair<int const ,int> &>
_TEXT	ENDS
; Function compile flags: /Ogtp
; File c:\program files (x86)\microsoft visual studio 14.0\vc\include\xmemory0
; File c:\users\michel\desktop\source\gameserver\source\trandompoolmgr.cpp
; File c:\program files (x86)\microsoft visual studio 14.0\vc\include\tuple
; File c:\program files (x86)\microsoft visual studio 14.0\vc\include\xmemory0
;	COMDAT ??$construct@U?$pair@$$CBHH@std@@ABUpiecewise_construct_t@2@V?$tuple@ABH@2@V?$tuple@$$V@2@@?$allocator_traits@V?$allocator@U?$_Tree_node@U?$pair@$$CBHH@std@@PAX@std@@@std@@@std@@SAXAAV?$allocator@U?$_Tree_node@U?$pair@$$CBHH@std@@PAX@std@@@1@PAU?$pair@$$CBHH@1@ABUpiecewise_construct_t@1@$$QAV?$tuple@ABH@1@$$QAV?$tuple@$$V@1@@Z
_TEXT	SEGMENT
__Al$ = 8						; size = 4
__Ptr$ = 12						; size = 4
_<_Args_0>$ = 16					; size = 4
_<_Args_1>$ = 20					; size = 4
_<_Args_2>$ = 24					; size = 4
??$construct@U?$pair@$$CBHH@std@@ABUpiecewise_construct_t@2@V?$tuple@ABH@2@V?$tuple@$$V@2@@?$allocator_traits@V?$allocator@U?$_Tree_node@U?$pair@$$CBHH@std@@PAX@std@@@std@@@std@@SAXAAV?$allocator@U?$_Tree_node@U?$pair@$$CBHH@std@@PAX@std@@@1@PAU?$pair@$$CBHH@1@ABUpiecewise_construct_t@1@$$QAV?$tuple@ABH@1@$$QAV?$tuple@$$V@1@@Z PROC ; std::allocator_traits<std::allocator<std::_Tree_node<std::pair<int const ,int>,void *> > >::construct<std::pair<int const ,int>,std::piecewise_construct_t const &,std::tuple<int const &>,std::tuple<> >, COMDAT

; 772  : 		{	// construct _Objty(_Types...) at _Ptr

  00000	55		 push	 ebp
  00001	8b ec		 mov	 ebp, esp

; 655  : 		::new ((void *)_Ptr) _Objty(_STD forward<_Types>(_Args)...);

  00003	8b 4d 0c	 mov	 ecx, DWORD PTR __Ptr$[ebp]
  00006	85 c9		 test	 ecx, ecx
  00008	74 10		 je	 SHORT $LN14@construct
; File c:\users\michel\desktop\source\gameserver\source\trandompoolmgr.cpp

  0000a	8b 45 14	 mov	 eax, DWORD PTR _<_Args_1>$[ebp]
  0000d	8b 00		 mov	 eax, DWORD PTR [eax]
; File c:\program files (x86)\microsoft visual studio 14.0\vc\include\tuple

; 827  : 		: first(_STD get<_Indexes1>(_STD move(_Val1))...),

  0000f	8b 00		 mov	 eax, DWORD PTR [eax]
  00011	89 01		 mov	 DWORD PTR [ecx], eax

; 828  : 			second(_STD get<_Indexes2>(_STD move(_Val2))...)

  00013	c7 41 04 00 00
	00 00		 mov	 DWORD PTR [ecx+4], 0
$LN14@construct:
; File c:\program files (x86)\microsoft visual studio 14.0\vc\include\xmemory0

; 774  : 		}

  0001a	5d		 pop	 ebp
  0001b	c3		 ret	 0
??$construct@U?$pair@$$CBHH@std@@ABUpiecewise_construct_t@2@V?$tuple@ABH@2@V?$tuple@$$V@2@@?$allocator_traits@V?$allocator@U?$_Tree_node@U?$pair@$$CBHH@std@@PAX@std@@@std@@@std@@SAXAAV?$allocator@U?$_Tree_node@U?$pair@$$CBHH@std@@PAX@std@@@1@PAU?$pair@$$CBHH@1@ABUpiecewise_construct_t@1@$$QAV?$tuple@ABH@1@$$QAV?$tuple@$$V@1@@Z ENDP ; std::allocator_traits<std::allocator<std::_Tree_node<std::pair<int const ,int>,void *> > >::construct<std::pair<int const ,int>,std::piecewise_construct_t const &,std::tuple<int const &>,std::tuple<> >
_TEXT	ENDS
; Function compile flags: /Ogtp
; File c:\program files (x86)\microsoft visual studio 14.0\vc\include\xmemory0
;	COMDAT ??$construct@PAU?$_Tree_node@U?$pair@$$CBHH@std@@PAX@std@@AAPAU12@@?$allocator@U?$_Tree_node@U?$pair@$$CBHH@std@@PAX@std@@@std@@QAEXPAPAU?$_Tree_node@U?$pair@$$CBHH@std@@PAX@1@AAPAU21@@Z
_TEXT	SEGMENT
__Ptr$ = 8						; size = 4
_<_Args_0>$ = 12					; size = 4
??$construct@PAU?$_Tree_node@U?$pair@$$CBHH@std@@PAX@std@@AAPAU12@@?$allocator@U?$_Tree_node@U?$pair@$$CBHH@std@@PAX@std@@@std@@QAEXPAPAU?$_Tree_node@U?$pair@$$CBHH@std@@PAX@1@AAPAU21@@Z PROC ; std::allocator<std::_Tree_node<std::pair<int const ,int>,void *> >::construct<std::_Tree_node<std::pair<int const ,int>,void *> *,std::_Tree_node<std::pair<int const ,int>,void *> * &>, COMDAT
; _this$ = ecx

; 654  : 		{	// construct _Objty(_Types...) at _Ptr

  00000	55		 push	 ebp
  00001	8b ec		 mov	 ebp, esp

; 655  : 		::new ((void *)_Ptr) _Objty(_STD forward<_Types>(_Args)...);

  00003	8b 4d 08	 mov	 ecx, DWORD PTR __Ptr$[ebp]
  00006	85 c9		 test	 ecx, ecx
  00008	74 07		 je	 SHORT $LN3@construct
  0000a	8b 45 0c	 mov	 eax, DWORD PTR _<_Args_0>$[ebp]
  0000d	8b 00		 mov	 eax, DWORD PTR [eax]
  0000f	89 01		 mov	 DWORD PTR [ecx], eax
$LN3@construct:

; 656  : 		}

  00011	5d		 pop	 ebp
  00012	c2 08 00	 ret	 8
??$construct@PAU?$_Tree_node@U?$pair@$$CBHH@std@@PAX@std@@AAPAU12@@?$allocator@U?$_Tree_node@U?$pair@$$CBHH@std@@PAX@std@@@std@@QAEXPAPAU?$_Tree_node@U?$pair@$$CBHH@std@@PAX@1@AAPAU21@@Z ENDP ; std::allocator<std::_Tree_node<std::pair<int const ,int>,void *> >::construct<std::_Tree_node<std::pair<int const ,int>,void *> *,std::_Tree_node<std::pair<int const ,int>,void *> * &>
_TEXT	ENDS
; Function compile flags: /Ogtp
; File c:\program files (x86)\microsoft visual studio 14.0\vc\include\xmemory0
;	COMDAT ??$?0U?$pair@$$CBHH@std@@@?$allocator@U?$_Tree_node@U?$pair@$$CBHH@std@@PAX@std@@@std@@QAE@ABV?$allocator@U?$pair@$$CBHH@std@@@1@@Z
_TEXT	SEGMENT
___formal$ = 8						; size = 4
??$?0U?$pair@$$CBHH@std@@@?$allocator@U?$_Tree_node@U?$pair@$$CBHH@std@@PAX@std@@@std@@QAE@ABV?$allocator@U?$pair@$$CBHH@std@@@1@@Z PROC ; std::allocator<std::_Tree_node<std::pair<int const ,int>,void *> >::allocator<std::_Tree_node<std::pair<int const ,int>,void *> ><std::pair<int const ,int> >, COMDAT
; _this$ = ecx

; 628  : 		}

  00000	8b c1		 mov	 eax, ecx
  00002	c2 04 00	 ret	 4
??$?0U?$pair@$$CBHH@std@@@?$allocator@U?$_Tree_node@U?$pair@$$CBHH@std@@PAX@std@@@std@@QAE@ABV?$allocator@U?$pair@$$CBHH@std@@@1@@Z ENDP ; std::allocator<std::_Tree_node<std::pair<int const ,int>,void *> >::allocator<std::_Tree_node<std::pair<int const ,int>,void *> ><std::pair<int const ,int> >
_TEXT	ENDS
; Function compile flags: /Ogtp
; File c:\program files (x86)\microsoft visual studio 14.0\vc\include\xmemory0
;	COMDAT ??$?0V?$allocator@U?$pair@$$CBHH@std@@@std@@@?$_Wrap_alloc@V?$allocator@U?$_Tree_node@U?$pair@$$CBHH@std@@PAX@std@@@std@@@std@@QAE@ABV?$allocator@U?$pair@$$CBHH@std@@@1@@Z
_TEXT	SEGMENT
__Right$ = 8						; size = 4
??$?0V?$allocator@U?$pair@$$CBHH@std@@@std@@@?$_Wrap_alloc@V?$allocator@U?$_Tree_node@U?$pair@$$CBHH@std@@PAX@std@@@std@@@std@@QAE@ABV?$allocator@U?$pair@$$CBHH@std@@@1@@Z PROC ; std::_Wrap_alloc<std::allocator<std::_Tree_node<std::pair<int const ,int>,void *> > >::_Wrap_alloc<std::allocator<std::_Tree_node<std::pair<int const ,int>,void *> > ><std::allocator<std::pair<int const ,int> > >, COMDAT
; _this$ = ecx

; 869  : 		}

  00000	8b c1		 mov	 eax, ecx
  00002	c2 04 00	 ret	 4
??$?0V?$allocator@U?$pair@$$CBHH@std@@@std@@@?$_Wrap_alloc@V?$allocator@U?$_Tree_node@U?$pair@$$CBHH@std@@PAX@std@@@std@@@std@@QAE@ABV?$allocator@U?$pair@$$CBHH@std@@@1@@Z ENDP ; std::_Wrap_alloc<std::allocator<std::_Tree_node<std::pair<int const ,int>,void *> > >::_Wrap_alloc<std::allocator<std::_Tree_node<std::pair<int const ,int>,void *> > ><std::allocator<std::pair<int const ,int> > >
_TEXT	ENDS
; Function compile flags: /Ogtp
; File c:\program files (x86)\microsoft visual studio 14.0\vc\include\xmemory0
;	COMDAT ??$destroy@PAU?$_Tree_node@U?$pair@$$CBHH@std@@PAX@std@@@?$allocator@U?$_Tree_node@U?$pair@$$CBHH@std@@PAX@std@@@std@@QAEXPAPAU?$_Tree_node@U?$pair@$$CBHH@std@@PAX@1@@Z
_TEXT	SEGMENT
__Ptr$ = 8						; size = 4
??$destroy@PAU?$_Tree_node@U?$pair@$$CBHH@std@@PAX@std@@@?$allocator@U?$_Tree_node@U?$pair@$$CBHH@std@@PAX@std@@@std@@QAEXPAPAU?$_Tree_node@U?$pair@$$CBHH@std@@PAX@1@@Z PROC ; std::allocator<std::_Tree_node<std::pair<int const ,int>,void *> >::destroy<std::_Tree_node<std::pair<int const ,int>,void *> *>, COMDAT
; _this$ = ecx

; 662  : 		_Ptr->~_Uty();
; 663  : 		}

  00000	c2 04 00	 ret	 4
??$destroy@PAU?$_Tree_node@U?$pair@$$CBHH@std@@PAX@std@@@?$allocator@U?$_Tree_node@U?$pair@$$CBHH@std@@PAX@std@@@std@@QAEXPAPAU?$_Tree_node@U?$pair@$$CBHH@std@@PAX@1@@Z ENDP ; std::allocator<std::_Tree_node<std::pair<int const ,int>,void *> >::destroy<std::_Tree_node<std::pair<int const ,int>,void *> *>
_TEXT	ENDS
; Function compile flags: /Ogtp
; File c:\program files (x86)\microsoft visual studio 14.0\vc\include\xmemory0
;	COMDAT ??$destroy@U?$pair@$$CBHH@std@@@?$allocator@U?$_Tree_node@U?$pair@$$CBHH@std@@PAX@std@@@std@@QAEXPAU?$pair@$$CBHH@1@@Z
_TEXT	SEGMENT
__Ptr$ = 8						; size = 4
??$destroy@U?$pair@$$CBHH@std@@@?$allocator@U?$_Tree_node@U?$pair@$$CBHH@std@@PAX@std@@@std@@QAEXPAU?$pair@$$CBHH@1@@Z PROC ; std::allocator<std::_Tree_node<std::pair<int const ,int>,void *> >::destroy<std::pair<int const ,int> >, COMDAT
; _this$ = ecx

; 662  : 		_Ptr->~_Uty();
; 663  : 		}

  00000	c2 04 00	 ret	 4
??$destroy@U?$pair@$$CBHH@std@@@?$allocator@U?$_Tree_node@U?$pair@$$CBHH@std@@PAX@std@@@std@@QAEXPAU?$pair@$$CBHH@1@@Z ENDP ; std::allocator<std::_Tree_node<std::pair<int const ,int>,void *> >::destroy<std::pair<int const ,int> >
_TEXT	ENDS
; Function compile flags: /Ogtp
; File c:\program files (x86)\microsoft visual studio 14.0\vc\include\xtree
; File c:\program files (x86)\microsoft visual studio 14.0\vc\include\xstddef
; File c:\program files (x86)\microsoft visual studio 14.0\vc\include\xtree
; File c:\program files (x86)\microsoft visual studio 14.0\vc\include\xstddef
; File c:\program files (x86)\microsoft visual studio 14.0\vc\include\xtree
; File c:\program files (x86)\microsoft visual studio 14.0\vc\include\utility
; File c:\program files (x86)\microsoft visual studio 14.0\vc\include\xtree
; File c:\program files (x86)\microsoft visual studio 14.0\vc\include\xstddef
; File c:\program files (x86)\microsoft visual studio 14.0\vc\include\xtree
; File c:\program files (x86)\microsoft visual studio 14.0\vc\include\xstddef
; File c:\program files (x86)\microsoft visual studio 14.0\vc\include\xtree
; File c:\program files (x86)\microsoft visual studio 14.0\vc\include\xmemory0
; File c:\program files (x86)\microsoft visual studio 14.0\vc\include\xtree
; File c:\program files (x86)\microsoft visual studio 14.0\vc\include\xmemory0
; File c:\program files (x86)\microsoft visual studio 14.0\vc\include\utility
; File c:\program files (x86)\microsoft visual studio 14.0\vc\include\xmemory0
; File c:\program files (x86)\microsoft visual studio 14.0\vc\include\utility
; File c:\program files (x86)\microsoft visual studio 14.0\vc\include\xtree
;	COMDAT ??$_Insert_nohint@AAU?$pair@$$CBHH@std@@PAU?$_Tree_node@U?$pair@$$CBHH@std@@PAX@2@@?$_Tree@V?$_Tmap_traits@HHU?$less@H@std@@V?$allocator@U?$pair@$$CBHH@std@@@2@$0A@@std@@@std@@IAE?AU?$pair@V?$_Tree_iterator@V?$_Tree_val@U?$_Tree_simple_types@U?$pair@$$CBHH@std@@@std@@@std@@@std@@_N@1@_NAAU?$pair@$$CBHH@1@PAU?$_Tree_node@U?$pair@$$CBHH@std@@PAX@1@@Z
_TEXT	SEGMENT
tv735 = -28						; size = 4
_this$1$ = -24						; size = 4
__Addleft$2 = -20					; size = 1
__$EHRec$ = -16						; size = 16
___$ReturnUdt$ = 8					; size = 4
$T3 = 12						; size = 4
__Where$4 = 12						; size = 4
__Leftish$ = 12						; size = 1
__Val$ = 16						; size = 4
__Newnode$ = 20						; size = 4
??$_Insert_nohint@AAU?$pair@$$CBHH@std@@PAU?$_Tree_node@U?$pair@$$CBHH@std@@PAX@2@@?$_Tree@V?$_Tmap_traits@HHU?$less@H@std@@V?$allocator@U?$pair@$$CBHH@std@@@2@$0A@@std@@@std@@IAE?AU?$pair@V?$_Tree_iterator@V?$_Tree_val@U?$_Tree_simple_types@U?$pair@$$CBHH@std@@@std@@@std@@@std@@_N@1@_NAAU?$pair@$$CBHH@1@PAU?$_Tree_node@U?$pair@$$CBHH@std@@PAX@1@@Z PROC ; std::_Tree<std::_Tmap_traits<int,int,std::less<int>,std::allocator<std::pair<int const ,int> >,0> >::_Insert_nohint<std::pair<int const ,int> &,std::_Tree_node<std::pair<int const ,int>,void *> *>, COMDAT
; _this$ = ecx

; 1799 : 		{	// try to insert node, on left if _Leftish

  00000	55		 push	 ebp
  00001	8b ec		 mov	 ebp, esp
  00003	6a ff		 push	 -1
  00005	68 00 00 00 00	 push	 __ehhandler$??$_Insert_nohint@AAU?$pair@$$CBHH@std@@PAU?$_Tree_node@U?$pair@$$CBHH@std@@PAX@2@@?$_Tree@V?$_Tmap_traits@HHU?$less@H@std@@V?$allocator@U?$pair@$$CBHH@std@@@2@$0A@@std@@@std@@IAE?AU?$pair@V?$_Tree_iterator@V?$_Tree_val@U?$_Tree_simple_types@U?$pair@$$CBHH@std@@@std@@@std@@@std@@_N@1@_NAAU?$pair@$$CBHH@1@PAU?$_Tree_node@U?$pair@$$CBHH@std@@PAX@1@@Z
  0000a	64 a1 00 00 00
	00		 mov	 eax, DWORD PTR fs:0
  00010	50		 push	 eax
  00011	83 ec 10	 sub	 esp, 16			; 00000010H
  00014	53		 push	 ebx
  00015	56		 push	 esi
  00016	57		 push	 edi
  00017	a1 00 00 00 00	 mov	 eax, DWORD PTR ___security_cookie
  0001c	33 c5		 xor	 eax, ebp
  0001e	50		 push	 eax
  0001f	8d 45 f4	 lea	 eax, DWORD PTR __$EHRec$[ebp+4]
  00022	64 a3 00 00 00
	00		 mov	 DWORD PTR fs:0, eax
  00028	89 65 f0	 mov	 DWORD PTR __$EHRec$[ebp], esp
  0002b	8b c1		 mov	 eax, ecx
  0002d	89 45 e8	 mov	 DWORD PTR _this$1$[ebp], eax

; 335  : 		}
; 336  : 
; 337  : 	bool operator!=(const _Myiter& _Right) const
; 338  : 		{	// test for iterator inequality
; 339  : 		return (!(*this == _Right));
; 340  : 		}
; 341  : 	};
; 342  : 
; 343  : template<class _Mytree> inline
; 344  : 	typename _Tree_const_iterator<_Mytree>::_Unchecked_type
; 345  : 		_Unchecked(_Tree_const_iterator<_Mytree> _Iter)
; 346  : 	{	// convert to unchecked
; 347  : 	return (_Iter._Unchecked());
; 348  : 	}
; 349  : 
; 350  : template<class _Mytree> inline
; 351  : 	_Tree_const_iterator<_Mytree>&
; 352  : 		_Rechecked(_Tree_const_iterator<_Mytree>& _Iter,
; 353  : 			typename _Tree_const_iterator<_Mytree>
; 354  : 				::_Unchecked_type _Right)
; 355  : 	{	// convert to checked
; 356  : 	return (_Iter._Rechecked(_Right));
; 357  : 	}
; 358  : 
; 359  : 	// TEMPLATE CLASS _Tree_iterator
; 360  : template<class _Mytree>
; 361  : 	class _Tree_iterator
; 362  : 		: public _Tree_const_iterator<_Mytree>
; 363  : 	{	// iterator for mutable tree
; 364  : public:
; 365  : 	typedef _Tree_iterator<_Mytree> _Myiter;
; 366  : 	typedef _Tree_const_iterator<_Mytree> _Mybase;
; 367  : 	typedef bidirectional_iterator_tag iterator_category;
; 368  : 
; 369  : 	typedef typename _Mytree::_Nodeptr _Nodeptr;
; 370  : 	typedef typename _Mytree::value_type value_type;
; 371  : 	typedef typename _Mytree::difference_type difference_type;
; 372  : 
; 373  : 	typedef typename _Mytree::pointer pointer;
; 374  : 	typedef typename _Mytree::reference reference;
; 375  : 
; 376  : 	_Tree_iterator()
; 377  : 		{	// construct with null node
; 378  : 		}
; 379  : 
; 380  : 	_Tree_iterator(_Nodeptr _Pnode, const _Mytree *_Plist)
; 381  : 		: _Mybase(_Pnode, _Plist)
; 382  : 		{	// construct with node pointer _Pnode
; 383  : 		}
; 384  : 
; 385  : 	typedef _Tree_unchecked_iterator<_Mytree> _Unchecked_type;
; 386  : 
; 387  : 	_Myiter& _Rechecked(_Unchecked_type _Right)
; 388  : 		{	// reset from unchecked iterator
; 389  : 		this->_Ptr = _Right._Ptr;
; 390  : 		return (*this);
; 391  : 		}
; 392  : 
; 393  : 	_Unchecked_type _Unchecked() const
; 394  : 		{	// make an unchecked iterator
; 395  : 		return (_Unchecked_type(this->_Ptr, (_Mytree *)this->_Getcont()));
; 396  : 		}
; 397  : 
; 398  : 	reference operator*() const
; 399  : 		{	// return designated value
; 400  : 		return ((reference)**(_Mybase *)this);
; 401  : 		}
; 402  : 
; 403  : 	pointer operator->() const
; 404  : 		{	// return pointer to class object
; 405  : 		return (_STD pointer_traits<pointer>::pointer_to(**this));
; 406  : 		}
; 407  : 
; 408  : 	_Myiter& operator++()
; 409  : 		{	// preincrement
; 410  : 		++(*(_Mybase *)this);
; 411  : 		return (*this);
; 412  : 		}
; 413  : 
; 414  : 	_Myiter operator++(int)
; 415  : 		{	// postincrement
; 416  : 		_Myiter _Tmp = *this;
; 417  : 		++*this;
; 418  : 		return (_Tmp);
; 419  : 		}
; 420  : 
; 421  : 	_Myiter& operator--()
; 422  : 		{	// predecrement
; 423  : 		--(*(_Mybase *)this);
; 424  : 		return (*this);
; 425  : 		}
; 426  : 
; 427  : 	_Myiter operator--(int)
; 428  : 		{	// postdecrement
; 429  : 		_Myiter _Tmp = *this;
; 430  : 		--*this;
; 431  : 		return (_Tmp);
; 432  : 		}
; 433  : 	};
; 434  : 
; 435  : template<class _Mytree> inline
; 436  : 	typename _Tree_iterator<_Mytree>::_Unchecked_type
; 437  : 		_Unchecked(_Tree_iterator<_Mytree> _Iter)
; 438  : 	{	// convert to unchecked
; 439  : 	return (_Iter._Unchecked());
; 440  : 	}
; 441  : 
; 442  : template<class _Mytree> inline
; 443  : 	_Tree_iterator<_Mytree>&
; 444  : 		_Rechecked(_Tree_iterator<_Mytree>& _Iter,
; 445  : 			typename _Tree_iterator<_Mytree>
; 446  : 				::_Unchecked_type _Right)
; 447  : 	{	// convert to checked
; 448  : 	return (_Iter._Rechecked(_Right));
; 449  : 	}
; 450  : 
; 451  : 		// tree TYPE WRAPPERS
; 452  : template<class _Value_type,
; 453  : 	class _Size_type,
; 454  : 	class _Difference_type,
; 455  : 	class _Pointer,
; 456  : 	class _Const_pointer,
; 457  : 	class _Reference,
; 458  : 	class _Const_reference,
; 459  : 	class _Nodeptr_type>
; 460  : 	struct _Tree_iter_types
; 461  : 	{	// wraps types needed by iterators
; 462  : 	typedef _Value_type value_type;
; 463  : 	typedef _Size_type size_type;
; 464  : 	typedef _Difference_type difference_type;
; 465  : 	typedef _Pointer pointer;
; 466  : 	typedef _Const_pointer const_pointer;
; 467  : 	typedef _Reference reference;
; 468  : 	typedef _Const_reference const_reference;
; 469  : 	typedef _Nodeptr_type _Nodeptr;
; 470  : 	};
; 471  : 
; 472  : template<class _Value_type,
; 473  : 	class _Voidptr>
; 474  : 	struct _Tree_node
; 475  : 		{	// tree node
; 476  : 		_Voidptr _Left;	// left subtree, or smallest element if head
; 477  : 		_Voidptr _Parent;	// parent, or root of tree if head
; 478  : 		_Voidptr _Right;	// right subtree, or largest element if head
; 479  : 		char _Color;	// _Red or _Black, _Black if head
; 480  : 		char _Isnil;	// true only if head (also nil) node
; 481  : 		_Value_type _Myval;	// the stored value, unused if head
; 482  : 
; 483  : 	private:
; 484  : 		_Tree_node& operator=(const _Tree_node&);
; 485  : 		};
; 486  : 
; 487  : template<class _Value_type>
; 488  : 	struct _Tree_node<_Value_type, void *>
; 489  : 		{	// tree node
; 490  : 		typedef _Tree_node<_Value_type, void *> *_Nodeptr;
; 491  : 		_Nodeptr _Left;	// left subtree, or smallest element if head
; 492  : 		_Nodeptr _Parent;	// parent, or root of tree if head
; 493  : 		_Nodeptr _Right;	// right subtree, or largest element if head
; 494  : 		char _Color;	// _Red or _Black, _Black if head
; 495  : 		char _Isnil;	// true only if head (also nil) node
; 496  : 		_Value_type _Myval;	// the stored value, unused if head
; 497  : 
; 498  : 	private:
; 499  : 		_Tree_node& operator=(const _Tree_node&);
; 500  : 		};
; 501  : 
; 502  : template<class _Ty>
; 503  : 	struct _Tree_simple_types
; 504  : 		: public _Simple_types<_Ty>
; 505  : 	{	// wraps types needed by iterators
; 506  : 	typedef _Tree_node<_Ty, void *> _Node;
; 507  : 	typedef _Node *_Nodeptr;
; 508  : 	};
; 509  : 
; 510  : template<class _Ty,
; 511  : 	class _Alloc0>
; 512  : 	struct _Tree_base_types
; 513  : 	{	// types needed for a container base
; 514  : 	typedef _Alloc0 _Alloc;
; 515  : 	typedef _Tree_base_types<_Ty, _Alloc> _Myt;
; 516  : 
; 517  : 	typedef _Wrap_alloc<_Alloc> _Alty0;
; 518  : 	typedef typename _Alty0::template rebind<_Ty>::other _Alty;
; 519  : 
; 520  : 
; 521  : 	typedef typename _Get_voidptr<_Alty, typename _Alty::pointer>::type
; 522  : 		_Voidptr;
; 523  : 	typedef _Tree_node<typename _Alty::value_type,
; 524  : 		_Voidptr> _Node;
; 525  : 
; 526  : 	typedef typename _Alty::template rebind<_Node>::other _Alnod_type;
; 527  : 	typedef typename _Alnod_type::pointer _Nodeptr;
; 528  : 	typedef _Nodeptr& _Nodepref;
; 529  : 
; 530  : 	typedef typename _If<_Is_simple_alloc<_Alty>::value,
; 531  : 		_Tree_simple_types<typename _Alty::value_type>,
; 532  : 		_Tree_iter_types<typename _Alty::value_type,
; 533  : 			typename _Alty::size_type,
; 534  : 			typename _Alty::difference_type,
; 535  : 			typename _Alty::pointer,
; 536  : 			typename _Alty::const_pointer,
; 537  : 			typename _Alty::reference,
; 538  : 			typename _Alty::const_reference,
; 539  : 			_Nodeptr> >::type
; 540  : 		_Val_types;
; 541  : 	};
; 542  : 
; 543  : 		// TEMPLATE CLASS _Tree_val
; 544  : template<class _Val_types>
; 545  : 	class _Tree_val
; 546  : 		: public _Container_base
; 547  : 	{	// base class for tree to hold data
; 548  : public:
; 549  : 	typedef _Tree_val<_Val_types> _Myt;
; 550  : 
; 551  : 	typedef typename _Val_types::_Nodeptr _Nodeptr;
; 552  : 	typedef _Nodeptr& _Nodepref;
; 553  : 
; 554  : 	typedef typename _Val_types::value_type value_type;
; 555  : 	typedef typename _Val_types::size_type size_type;
; 556  : 	typedef typename _Val_types::difference_type difference_type;
; 557  : 	typedef typename _Val_types::pointer pointer;
; 558  : 	typedef typename _Val_types::const_pointer const_pointer;
; 559  : 	typedef typename _Val_types::reference reference;
; 560  : 	typedef typename _Val_types::const_reference const_reference;
; 561  : 
; 562  : 	typedef _Tree_const_iterator<_Myt> const_iterator;
; 563  : 	typedef _Tree_iterator<_Myt> iterator;
; 564  : 
; 565  : 	_Tree_val()
; 566  : 		{	// initialize data
; 567  : 		this->_Myhead = 0;
; 568  : 		this->_Mysize = 0;
; 569  : 		}
; 570  : 
; 571  : 	enum _Redbl
; 572  : 		{	// colors for link to parent
; 573  : 		_Red, _Black};
; 574  : 
; 575  : 	static char& _Color(_Nodeptr _Pnode)
; 576  : 		{	// return reference to color in node
; 577  : 		return ((char&)_Pnode->_Color);
; 578  : 		}
; 579  : 
; 580  : 	static char& _Isnil(_Nodeptr _Pnode)
; 581  : 		{	// return reference to nil flag in node
; 582  : 		return ((char&)_Pnode->_Isnil);
; 583  : 		}
; 584  : 
; 585  : 	static _Nodepref _Left(_Nodeptr _Pnode)
; 586  : 		{	// return reference to left pointer in node
; 587  : 		return ((_Nodepref)_Pnode->_Left);
; 588  : 		}
; 589  : 
; 590  : 	static _Nodepref _Parent(_Nodeptr _Pnode)
; 591  : 		{	// return reference to parent pointer in node
; 592  : 		return ((_Nodepref)_Pnode->_Parent);

  00030	8b 08		 mov	 ecx, DWORD PTR [eax]

; 1802 : 		_Nodeptr _Wherenode = this->_Myhead();
; 1803 : 		bool _Addleft = true;	// add to left of head if tree empty

  00032	b2 01		 mov	 dl, 1
  00034	8b 5d 10	 mov	 ebx, DWORD PTR __Val$[ebp]
  00037	8b f9		 mov	 edi, ecx
  00039	c7 45 fc 00 00
	00 00		 mov	 DWORD PTR __$EHRec$[ebp+12], 0

; 335  : 		}
; 336  : 
; 337  : 	bool operator!=(const _Myiter& _Right) const
; 338  : 		{	// test for iterator inequality
; 339  : 		return (!(*this == _Right));
; 340  : 		}
; 341  : 	};
; 342  : 
; 343  : template<class _Mytree> inline
; 344  : 	typename _Tree_const_iterator<_Mytree>::_Unchecked_type
; 345  : 		_Unchecked(_Tree_const_iterator<_Mytree> _Iter)
; 346  : 	{	// convert to unchecked
; 347  : 	return (_Iter._Unchecked());
; 348  : 	}
; 349  : 
; 350  : template<class _Mytree> inline
; 351  : 	_Tree_const_iterator<_Mytree>&
; 352  : 		_Rechecked(_Tree_const_iterator<_Mytree>& _Iter,
; 353  : 			typename _Tree_const_iterator<_Mytree>
; 354  : 				::_Unchecked_type _Right)
; 355  : 	{	// convert to checked
; 356  : 	return (_Iter._Rechecked(_Right));
; 357  : 	}
; 358  : 
; 359  : 	// TEMPLATE CLASS _Tree_iterator
; 360  : template<class _Mytree>
; 361  : 	class _Tree_iterator
; 362  : 		: public _Tree_const_iterator<_Mytree>
; 363  : 	{	// iterator for mutable tree
; 364  : public:
; 365  : 	typedef _Tree_iterator<_Mytree> _Myiter;
; 366  : 	typedef _Tree_const_iterator<_Mytree> _Mybase;
; 367  : 	typedef bidirectional_iterator_tag iterator_category;
; 368  : 
; 369  : 	typedef typename _Mytree::_Nodeptr _Nodeptr;
; 370  : 	typedef typename _Mytree::value_type value_type;
; 371  : 	typedef typename _Mytree::difference_type difference_type;
; 372  : 
; 373  : 	typedef typename _Mytree::pointer pointer;
; 374  : 	typedef typename _Mytree::reference reference;
; 375  : 
; 376  : 	_Tree_iterator()
; 377  : 		{	// construct with null node
; 378  : 		}
; 379  : 
; 380  : 	_Tree_iterator(_Nodeptr _Pnode, const _Mytree *_Plist)
; 381  : 		: _Mybase(_Pnode, _Plist)
; 382  : 		{	// construct with node pointer _Pnode
; 383  : 		}
; 384  : 
; 385  : 	typedef _Tree_unchecked_iterator<_Mytree> _Unchecked_type;
; 386  : 
; 387  : 	_Myiter& _Rechecked(_Unchecked_type _Right)
; 388  : 		{	// reset from unchecked iterator
; 389  : 		this->_Ptr = _Right._Ptr;
; 390  : 		return (*this);
; 391  : 		}
; 392  : 
; 393  : 	_Unchecked_type _Unchecked() const
; 394  : 		{	// make an unchecked iterator
; 395  : 		return (_Unchecked_type(this->_Ptr, (_Mytree *)this->_Getcont()));
; 396  : 		}
; 397  : 
; 398  : 	reference operator*() const
; 399  : 		{	// return designated value
; 400  : 		return ((reference)**(_Mybase *)this);
; 401  : 		}
; 402  : 
; 403  : 	pointer operator->() const
; 404  : 		{	// return pointer to class object
; 405  : 		return (_STD pointer_traits<pointer>::pointer_to(**this));
; 406  : 		}
; 407  : 
; 408  : 	_Myiter& operator++()
; 409  : 		{	// preincrement
; 410  : 		++(*(_Mybase *)this);
; 411  : 		return (*this);
; 412  : 		}
; 413  : 
; 414  : 	_Myiter operator++(int)
; 415  : 		{	// postincrement
; 416  : 		_Myiter _Tmp = *this;
; 417  : 		++*this;
; 418  : 		return (_Tmp);
; 419  : 		}
; 420  : 
; 421  : 	_Myiter& operator--()
; 422  : 		{	// predecrement
; 423  : 		--(*(_Mybase *)this);
; 424  : 		return (*this);
; 425  : 		}
; 426  : 
; 427  : 	_Myiter operator--(int)
; 428  : 		{	// postdecrement
; 429  : 		_Myiter _Tmp = *this;
; 430  : 		--*this;
; 431  : 		return (_Tmp);
; 432  : 		}
; 433  : 	};
; 434  : 
; 435  : template<class _Mytree> inline
; 436  : 	typename _Tree_iterator<_Mytree>::_Unchecked_type
; 437  : 		_Unchecked(_Tree_iterator<_Mytree> _Iter)
; 438  : 	{	// convert to unchecked
; 439  : 	return (_Iter._Unchecked());
; 440  : 	}
; 441  : 
; 442  : template<class _Mytree> inline
; 443  : 	_Tree_iterator<_Mytree>&
; 444  : 		_Rechecked(_Tree_iterator<_Mytree>& _Iter,
; 445  : 			typename _Tree_iterator<_Mytree>
; 446  : 				::_Unchecked_type _Right)
; 447  : 	{	// convert to checked
; 448  : 	return (_Iter._Rechecked(_Right));
; 449  : 	}
; 450  : 
; 451  : 		// tree TYPE WRAPPERS
; 452  : template<class _Value_type,
; 453  : 	class _Size_type,
; 454  : 	class _Difference_type,
; 455  : 	class _Pointer,
; 456  : 	class _Const_pointer,
; 457  : 	class _Reference,
; 458  : 	class _Const_reference,
; 459  : 	class _Nodeptr_type>
; 460  : 	struct _Tree_iter_types
; 461  : 	{	// wraps types needed by iterators
; 462  : 	typedef _Value_type value_type;
; 463  : 	typedef _Size_type size_type;
; 464  : 	typedef _Difference_type difference_type;
; 465  : 	typedef _Pointer pointer;
; 466  : 	typedef _Const_pointer const_pointer;
; 467  : 	typedef _Reference reference;
; 468  : 	typedef _Const_reference const_reference;
; 469  : 	typedef _Nodeptr_type _Nodeptr;
; 470  : 	};
; 471  : 
; 472  : template<class _Value_type,
; 473  : 	class _Voidptr>
; 474  : 	struct _Tree_node
; 475  : 		{	// tree node
; 476  : 		_Voidptr _Left;	// left subtree, or smallest element if head
; 477  : 		_Voidptr _Parent;	// parent, or root of tree if head
; 478  : 		_Voidptr _Right;	// right subtree, or largest element if head
; 479  : 		char _Color;	// _Red or _Black, _Black if head
; 480  : 		char _Isnil;	// true only if head (also nil) node
; 481  : 		_Value_type _Myval;	// the stored value, unused if head
; 482  : 
; 483  : 	private:
; 484  : 		_Tree_node& operator=(const _Tree_node&);
; 485  : 		};
; 486  : 
; 487  : template<class _Value_type>
; 488  : 	struct _Tree_node<_Value_type, void *>
; 489  : 		{	// tree node
; 490  : 		typedef _Tree_node<_Value_type, void *> *_Nodeptr;
; 491  : 		_Nodeptr _Left;	// left subtree, or smallest element if head
; 492  : 		_Nodeptr _Parent;	// parent, or root of tree if head
; 493  : 		_Nodeptr _Right;	// right subtree, or largest element if head
; 494  : 		char _Color;	// _Red or _Black, _Black if head
; 495  : 		char _Isnil;	// true only if head (also nil) node
; 496  : 		_Value_type _Myval;	// the stored value, unused if head
; 497  : 
; 498  : 	private:
; 499  : 		_Tree_node& operator=(const _Tree_node&);
; 500  : 		};
; 501  : 
; 502  : template<class _Ty>
; 503  : 	struct _Tree_simple_types
; 504  : 		: public _Simple_types<_Ty>
; 505  : 	{	// wraps types needed by iterators
; 506  : 	typedef _Tree_node<_Ty, void *> _Node;
; 507  : 	typedef _Node *_Nodeptr;
; 508  : 	};
; 509  : 
; 510  : template<class _Ty,
; 511  : 	class _Alloc0>
; 512  : 	struct _Tree_base_types
; 513  : 	{	// types needed for a container base
; 514  : 	typedef _Alloc0 _Alloc;
; 515  : 	typedef _Tree_base_types<_Ty, _Alloc> _Myt;
; 516  : 
; 517  : 	typedef _Wrap_alloc<_Alloc> _Alty0;
; 518  : 	typedef typename _Alty0::template rebind<_Ty>::other _Alty;
; 519  : 
; 520  : 
; 521  : 	typedef typename _Get_voidptr<_Alty, typename _Alty::pointer>::type
; 522  : 		_Voidptr;
; 523  : 	typedef _Tree_node<typename _Alty::value_type,
; 524  : 		_Voidptr> _Node;
; 525  : 
; 526  : 	typedef typename _Alty::template rebind<_Node>::other _Alnod_type;
; 527  : 	typedef typename _Alnod_type::pointer _Nodeptr;
; 528  : 	typedef _Nodeptr& _Nodepref;
; 529  : 
; 530  : 	typedef typename _If<_Is_simple_alloc<_Alty>::value,
; 531  : 		_Tree_simple_types<typename _Alty::value_type>,
; 532  : 		_Tree_iter_types<typename _Alty::value_type,
; 533  : 			typename _Alty::size_type,
; 534  : 			typename _Alty::difference_type,
; 535  : 			typename _Alty::pointer,
; 536  : 			typename _Alty::const_pointer,
; 537  : 			typename _Alty::reference,
; 538  : 			typename _Alty::const_reference,
; 539  : 			_Nodeptr> >::type
; 540  : 		_Val_types;
; 541  : 	};
; 542  : 
; 543  : 		// TEMPLATE CLASS _Tree_val
; 544  : template<class _Val_types>
; 545  : 	class _Tree_val
; 546  : 		: public _Container_base
; 547  : 	{	// base class for tree to hold data
; 548  : public:
; 549  : 	typedef _Tree_val<_Val_types> _Myt;
; 550  : 
; 551  : 	typedef typename _Val_types::_Nodeptr _Nodeptr;
; 552  : 	typedef _Nodeptr& _Nodepref;
; 553  : 
; 554  : 	typedef typename _Val_types::value_type value_type;
; 555  : 	typedef typename _Val_types::size_type size_type;
; 556  : 	typedef typename _Val_types::difference_type difference_type;
; 557  : 	typedef typename _Val_types::pointer pointer;
; 558  : 	typedef typename _Val_types::const_pointer const_pointer;
; 559  : 	typedef typename _Val_types::reference reference;
; 560  : 	typedef typename _Val_types::const_reference const_reference;
; 561  : 
; 562  : 	typedef _Tree_const_iterator<_Myt> const_iterator;
; 563  : 	typedef _Tree_iterator<_Myt> iterator;
; 564  : 
; 565  : 	_Tree_val()
; 566  : 		{	// initialize data
; 567  : 		this->_Myhead = 0;
; 568  : 		this->_Mysize = 0;
; 569  : 		}
; 570  : 
; 571  : 	enum _Redbl
; 572  : 		{	// colors for link to parent
; 573  : 		_Red, _Black};
; 574  : 
; 575  : 	static char& _Color(_Nodeptr _Pnode)
; 576  : 		{	// return reference to color in node
; 577  : 		return ((char&)_Pnode->_Color);
; 578  : 		}
; 579  : 
; 580  : 	static char& _Isnil(_Nodeptr _Pnode)
; 581  : 		{	// return reference to nil flag in node
; 582  : 		return ((char&)_Pnode->_Isnil);
; 583  : 		}
; 584  : 
; 585  : 	static _Nodepref _Left(_Nodeptr _Pnode)
; 586  : 		{	// return reference to left pointer in node
; 587  : 		return ((_Nodepref)_Pnode->_Left);
; 588  : 		}
; 589  : 
; 590  : 	static _Nodepref _Parent(_Nodeptr _Pnode)
; 591  : 		{	// return reference to parent pointer in node
; 592  : 		return ((_Nodepref)_Pnode->_Parent);

  00040	89 4d e4	 mov	 DWORD PTR tv735[ebp], ecx

; 1800 : 		_TRY_BEGIN
; 1801 : 		_Nodeptr _Trynode = _Root();

  00043	8b 41 04	 mov	 eax, DWORD PTR [ecx+4]

; 1802 : 		_Nodeptr _Wherenode = this->_Myhead();
; 1803 : 		bool _Addleft = true;	// add to left of head if tree empty

  00046	88 55 ec	 mov	 BYTE PTR __Addleft$2[ebp], dl

; 1804 : 
; 1805 : 		while (!this->_Isnil(_Trynode))

  00049	80 78 0d 00	 cmp	 BYTE PTR [eax+13], 0
  0004d	75 30		 jne	 SHORT $LN3@Insert_noh
  0004f	8b 0b		 mov	 ecx, DWORD PTR [ebx]
  00051	8a 75 0c	 mov	 dh, BYTE PTR __Leftish$[ebp]
$LL2@Insert_noh:

; 1806 : 			{	// look for leaf to insert before (_Addleft) or after
; 1807 : 			_Wherenode = _Trynode;

  00054	8b f8		 mov	 edi, eax

; 1808 : 			if (_Leftish)

  00056	84 f6		 test	 dh, dh
  00058	74 08		 je	 SHORT $LN5@Insert_noh
; File c:\program files (x86)\microsoft visual studio 14.0\vc\include\xstddef

; 240  : 		return (_Left < _Right);

  0005a	39 48 10	 cmp	 DWORD PTR [eax+16], ecx
; File c:\program files (x86)\microsoft visual studio 14.0\vc\include\xtree

; 1809 : 				_Addleft = !_DEBUG_LT_PRED(this->_Getcomp(),

  0005d	0f 9d c2	 setge	 dl

; 1810 : 					this->_Key(_Trynode),
; 1811 : 					this->_Kfn(_Val));	// favor left end
; 1812 : 			else

  00060	eb 06		 jmp	 SHORT $LN336@Insert_noh
$LN5@Insert_noh:
; File c:\program files (x86)\microsoft visual studio 14.0\vc\include\xstddef

; 240  : 		return (_Left < _Right);

  00062	3b 48 10	 cmp	 ecx, DWORD PTR [eax+16]
  00065	0f 9c c2	 setl	 dl
$LN336@Insert_noh:
; File c:\program files (x86)\microsoft visual studio 14.0\vc\include\xtree

; 1813 : 				_Addleft = _DEBUG_LT_PRED(this->_Getcomp(),

  00068	88 55 ec	 mov	 BYTE PTR __Addleft$2[ebp], dl

; 1814 : 					this->_Kfn(_Val),
; 1815 : 					this->_Key(_Trynode));	// favor right end
; 1816 : 			_Trynode = _Addleft ? this->_Left(_Trynode)

  0006b	84 d2		 test	 dl, dl
  0006d	74 04		 je	 SHORT $LN16@Insert_noh
  0006f	8b 00		 mov	 eax, DWORD PTR [eax]
  00071	eb 03		 jmp	 SHORT $LN17@Insert_noh
$LN16@Insert_noh:
  00073	8b 40 08	 mov	 eax, DWORD PTR [eax+8]
$LN17@Insert_noh:

; 1804 : 
; 1805 : 		while (!this->_Isnil(_Trynode))

  00076	80 78 0d 00	 cmp	 BYTE PTR [eax+13], 0
  0007a	74 d8		 je	 SHORT $LL2@Insert_noh
  0007c	8b 4d e4	 mov	 ecx, DWORD PTR tv735[ebp]
$LN3@Insert_noh:

; 43   : 		: _Ptr(_Pnode)

  0007f	8b f7		 mov	 esi, edi
  00081	89 75 0c	 mov	 DWORD PTR __Where$4[ebp], esi

; 1817 : 				: this->_Right(_Trynode);
; 1818 : 			}
; 1819 : 
; 1820 : 		if (this->_Multi)
; 1821 : 			return (_Pairib(_Insert_at(_Addleft, _Wherenode,
; 1822 : 				_STD forward<_Valty>(_Val), _Newnode), true));
; 1823 : 		else
; 1824 : 			{	// insert only if unique
; 1825 : 			iterator _Where = iterator(_Wherenode, &this->_Get_data());
; 1826 : 			if (!_Addleft)

  00084	84 d2		 test	 dl, dl
  00086	74 41		 je	 SHORT $LN12@Insert_noh

; 309  :  #endif /* _ITERATOR_DEBUG_LEVEL */
; 310  : 
; 311  : 		return (*this);
; 312  : 		}
; 313  : 
; 314  : 	_Myiter operator--(int)
; 315  : 		{	// postdecrement
; 316  : 		_Myiter _Tmp = *this;
; 317  : 		--*this;
; 318  : 		return (_Tmp);
; 319  : 		}
; 320  : 
; 321  : 	bool operator==(const _Myiter& _Right) const
; 322  : 		{	// test for iterator equality
; 323  :  #if _ITERATOR_DEBUG_LEVEL == 2
; 324  : 		if (this->_Getcont() != _Right._Getcont())
; 325  : 			{	// report error
; 326  : 			_DEBUG_ERROR("map/set iterators incompatible");
; 327  : 			_SCL_SECURE_INVALID_ARGUMENT;
; 328  : 			}
; 329  : 
; 330  :  #elif _ITERATOR_DEBUG_LEVEL == 1
; 331  : 		_SCL_SECURE_VALIDATE(this->_Getcont() == _Right._Getcont());
; 332  :  #endif /* _ITERATOR_DEBUG_LEVEL */
; 333  : 
; 334  : 		return (this->_Ptr == _Right._Ptr);

  00088	3b 39		 cmp	 edi, DWORD PTR [ecx]

; 1827 : 				;	// need to test if insert after is okay
; 1828 : 			else if (_Where == begin())

  0008a	75 32		 jne	 SHORT $LN11@Insert_noh

; 1829 : 				return (_Pairib(_Insert_at(true, _Wherenode,

  0008c	ff 75 14	 push	 DWORD PTR __Newnode$[ebp]
  0008f	53		 push	 ebx
  00090	57		 push	 edi
  00091	6a 01		 push	 1
$LN337@Insert_noh:
  00093	8b 4d e8	 mov	 ecx, DWORD PTR _this$1$[ebp]
  00096	8d 45 0c	 lea	 eax, DWORD PTR $T3[ebp]
  00099	50		 push	 eax
  0009a	e8 00 00 00 00	 call	 ??$_Insert_at@AAU?$pair@$$CBHH@std@@PAU?$_Tree_node@U?$pair@$$CBHH@std@@PAX@2@@?$_Tree@V?$_Tmap_traits@HHU?$less@H@std@@V?$allocator@U?$pair@$$CBHH@std@@@2@$0A@@std@@@std@@IAE?AV?$_Tree_iterator@V?$_Tree_val@U?$_Tree_simple_types@U?$pair@$$CBHH@std@@@std@@@std@@@1@_NPAU?$_Tree_node@U?$pair@$$CBHH@std@@PAX@1@AAU?$pair@$$CBHH@1@1@Z ; std::_Tree<std::_Tmap_traits<int,int,std::less<int>,std::allocator<std::pair<int const ,int> >,0> >::_Insert_at<std::pair<int const ,int> &,std::_Tree_node<std::pair<int const ,int>,void *> *>
; File c:\program files (x86)\microsoft visual studio 14.0\vc\include\utility

; 143  : 		: first(_STD forward<_Other1>(_Val1)),

  0009f	8b 08		 mov	 ecx, DWORD PTR [eax]
  000a1	8b 45 08	 mov	 eax, DWORD PTR ___$ReturnUdt$[ebp]
  000a4	89 08		 mov	 DWORD PTR [eax], ecx

; 144  : 				second(_STD forward<_Other2>(_Val2))

  000a6	c6 40 04 01	 mov	 BYTE PTR [eax+4], 1
; File c:\program files (x86)\microsoft visual studio 14.0\vc\include\xtree

; 1849 : 		}

  000aa	8b 4d f4	 mov	 ecx, DWORD PTR __$EHRec$[ebp+4]
  000ad	64 89 0d 00 00
	00 00		 mov	 DWORD PTR fs:0, ecx
  000b4	59		 pop	 ecx
  000b5	5f		 pop	 edi
  000b6	5e		 pop	 esi
  000b7	5b		 pop	 ebx
  000b8	8b e5		 mov	 esp, ebp
  000ba	5d		 pop	 ebp
  000bb	c2 10 00	 ret	 16			; 00000010H
$LN11@Insert_noh:

; 44   : 		{	// construct with node pointer _Pnode
; 45   : 		this->_Adopt(_Plist);
; 46   : 		}
; 47   : 
; 48   : 	reference operator*() const
; 49   : 		{	// return designated value
; 50   : 		return (_Mytree::_Myval(_Ptr));
; 51   : 		}
; 52   : 
; 53   : 	pointer operator->() const
; 54   : 		{	// return pointer to class object
; 55   : 		return (_STD pointer_traits<pointer>::pointer_to(**this));
; 56   : 		}
; 57   : 
; 58   : 	_Myiter& operator++()
; 59   : 		{	// preincrement
; 60   : 		if (_Mytree::_Isnil(_Ptr))
; 61   : 			;	// end() shouldn't be incremented, don't move
; 62   : 		else if (!_Mytree::_Isnil(_Mytree::_Right(_Ptr)))
; 63   : 			_Ptr = _Mytree::_Min(
; 64   : 				_Mytree::_Right(_Ptr));	// ==> smallest of right subtree
; 65   : 		else
; 66   : 			{	// climb looking for right subtree
; 67   : 			_Nodeptr _Pnode;
; 68   : 			while (!_Mytree::_Isnil(_Pnode = _Mytree::_Parent(_Ptr))
; 69   : 				&& _Ptr == _Mytree::_Right(_Pnode))
; 70   : 				_Ptr = _Pnode;	// ==> parent while right subtree
; 71   : 			_Ptr = _Pnode;	// ==> parent (head if end())
; 72   : 			}
; 73   : 		return (*this);
; 74   : 		}
; 75   : 
; 76   : 	_Myiter operator++(int)
; 77   : 		{	// postincrement
; 78   : 		_Myiter _Tmp = *this;
; 79   : 		++*this;
; 80   : 		return (_Tmp);
; 81   : 		}
; 82   : 
; 83   : 	_Myiter& operator--()
; 84   : 		{	// predecrement
; 85   : 		if (_Mytree::_Isnil(_Ptr))
; 86   : 			_Ptr = _Mytree::_Right(_Ptr);	// end() ==> rightmost
; 87   : 		else if (!_Mytree::_Isnil(_Mytree::_Left(_Ptr)))
; 88   : 			_Ptr = _Mytree::_Max(
; 89   : 				_Mytree::_Left(_Ptr));	// ==> largest of left subtree
; 90   : 		else
; 91   : 			{	// climb looking for left subtree
; 92   : 			_Nodeptr _Pnode;
; 93   : 			while (!_Mytree::_Isnil(_Pnode = _Mytree::_Parent(_Ptr))
; 94   : 				&& _Ptr == _Mytree::_Left(_Pnode))
; 95   : 				_Ptr = _Pnode;	// ==> parent while left subtree
; 96   : 			if (_Mytree::_Isnil(_Ptr))
; 97   : 				;	// begin() shouldn't be decremented, don't move
; 98   : 			else
; 99   : 				_Ptr = _Pnode;	// ==> parent if not head
; 100  : 			}
; 101  : 		return (*this);
; 102  : 		}
; 103  : 
; 104  : 	_Myiter operator--(int)
; 105  : 		{	// postdecrement
; 106  : 		_Myiter _Tmp = *this;
; 107  : 		--*this;
; 108  : 		return (_Tmp);
; 109  : 		}
; 110  : 
; 111  : 	bool operator==(const _Myiter& _Right) const
; 112  : 		{	// test for iterator equality
; 113  : 		return (_Ptr == _Right._Ptr);
; 114  : 		}
; 115  : 
; 116  : 	bool operator!=(const _Myiter& _Right) const
; 117  : 		{	// test for iterator inequality
; 118  : 		return (!(*this == _Right));
; 119  : 		}
; 120  : 
; 121  : 	_Nodeptr _Mynode() const
; 122  : 		{	// return node pointer
; 123  : 		return (_Ptr);
; 124  : 		}
; 125  : 
; 126  : 	_Nodeptr _Ptr;	// pointer to node
; 127  : 	};
; 128  : 
; 129  : 	// TEMPLATE CLASS _Tree_unchecked_iterator
; 130  : template<class _Mytree>
; 131  : 	class _Tree_unchecked_iterator
; 132  : 		: public _Tree_unchecked_const_iterator<_Mytree>
; 133  : 	{	// unchecked iterator for mutable tree
; 134  : public:
; 135  : 	typedef _Tree_unchecked_iterator<_Mytree> _Myiter;
; 136  : 	typedef _Tree_unchecked_const_iterator<_Mytree> _Mybase;
; 137  : 	typedef bidirectional_iterator_tag iterator_category;
; 138  : 
; 139  : 	typedef typename _Mytree::_Nodeptr _Nodeptr;
; 140  : 	typedef typename _Mytree::value_type value_type;
; 141  : 	typedef typename _Mytree::difference_type difference_type;
; 142  : 	typedef typename _Mytree::pointer pointer;
; 143  : 	typedef typename _Mytree::reference reference;
; 144  : 
; 145  : 	_Tree_unchecked_iterator()
; 146  : 		{	// construct with null node
; 147  : 		}
; 148  : 
; 149  : 	_Tree_unchecked_iterator(_Nodeptr _Pnode, const _Mytree *_Plist)
; 150  : 		: _Mybase(_Pnode, _Plist)
; 151  : 		{	// construct with node pointer _Pnode
; 152  : 		}
; 153  : 
; 154  : 	reference operator*() const
; 155  : 		{	// return designated value
; 156  : 		return ((reference)**(_Mybase *)this);
; 157  : 		}
; 158  : 
; 159  : 	pointer operator->() const
; 160  : 		{	// return pointer to class object
; 161  : 		return (_STD pointer_traits<pointer>::pointer_to(**this));
; 162  : 		}
; 163  : 
; 164  : 	_Myiter& operator++()
; 165  : 		{	// preincrement
; 166  : 		++(*(_Mybase *)this);
; 167  : 		return (*this);
; 168  : 		}
; 169  : 
; 170  : 	_Myiter operator++(int)
; 171  : 		{	// postincrement
; 172  : 		_Myiter _Tmp = *this;
; 173  : 		++*this;
; 174  : 		return (_Tmp);
; 175  : 		}
; 176  : 
; 177  : 	_Myiter& operator--()
; 178  : 		{	// predecrement
; 179  : 		--(*(_Mybase *)this);
; 180  : 		return (*this);
; 181  : 		}
; 182  : 
; 183  : 	_Myiter operator--(int)
; 184  : 		{	// postdecrement
; 185  : 		_Myiter _Tmp = *this;
; 186  : 		--*this;
; 187  : 		return (_Tmp);
; 188  : 		}
; 189  : 	};
; 190  : 
; 191  : 	// TEMPLATE CLASS _Tree_const_iterator
; 192  : template<class _Mytree>
; 193  : 	class _Tree_const_iterator
; 194  : 		: public _Tree_unchecked_const_iterator<_Mytree, _Iterator_base>
; 195  : 	{	// iterator for nonmutable tree
; 196  : public:
; 197  : 	typedef _Tree_const_iterator<_Mytree> _Myiter;
; 198  : 	typedef _Tree_unchecked_const_iterator<_Mytree, _Iterator_base> _Mybase;
; 199  : 	typedef bidirectional_iterator_tag iterator_category;
; 200  : 
; 201  : 	typedef typename _Mytree::_Nodeptr _Nodeptr;
; 202  : 	typedef typename _Mytree::value_type value_type;
; 203  : 	typedef typename _Mytree::difference_type difference_type;
; 204  : 	typedef typename _Mytree::const_pointer pointer;
; 205  : 	typedef typename _Mytree::const_reference reference;
; 206  : 
; 207  : 	_Tree_const_iterator()
; 208  : 		: _Mybase()
; 209  : 		{	// construct with null node pointer
; 210  : 		}
; 211  : 
; 212  : 	_Tree_const_iterator(_Nodeptr _Pnode, const _Mytree *_Plist)
; 213  : 		: _Mybase(_Pnode, _Plist)
; 214  : 		{	// construct with node pointer _Pnode
; 215  : 		}
; 216  : 
; 217  : 	typedef _Tree_unchecked_const_iterator<_Mytree> _Unchecked_type;
; 218  : 
; 219  : 	_Myiter& _Rechecked(_Unchecked_type _Right)
; 220  : 		{	// reset from unchecked iterator
; 221  : 		this->_Ptr = _Right._Ptr;
; 222  : 		return (*this);
; 223  : 		}
; 224  : 
; 225  : 	_Unchecked_type _Unchecked() const
; 226  : 		{	// make an unchecked iterator
; 227  : 		return (_Unchecked_type(this->_Ptr, (_Mytree *)this->_Getcont()));
; 228  : 		}
; 229  : 
; 230  : 	reference operator*() const
; 231  : 		{	// return designated value
; 232  :  #if _ITERATOR_DEBUG_LEVEL == 2
; 233  : 		if (this->_Getcont() == 0
; 234  : 			|| this->_Ptr == 0
; 235  : 			|| this->_Ptr == ((_Mytree *)this->_Getcont())->_Myhead)
; 236  : 			{	// report error
; 237  : 			_DEBUG_ERROR("map/set iterator not dereferencable");
; 238  : 			_SCL_SECURE_OUT_OF_RANGE;
; 239  : 			}
; 240  : 
; 241  :  #elif _ITERATOR_DEBUG_LEVEL == 1
; 242  : 		_SCL_SECURE_VALIDATE(this->_Getcont() != 0 && this->_Ptr != 0);
; 243  : 		_SCL_SECURE_VALIDATE_RANGE(this->_Ptr !=
; 244  : 			((_Mytree *)this->_Getcont())->_Myhead);
; 245  :  #endif /* _ITERATOR_DEBUG_LEVEL */
; 246  : 
; 247  : 		return (_Mytree::_Myval(this->_Ptr));
; 248  : 		}
; 249  : 
; 250  : 	pointer operator->() const
; 251  : 		{	// return pointer to class object
; 252  : 		return (_STD pointer_traits<pointer>::pointer_to(**this));
; 253  : 		}
; 254  : 
; 255  : 	_Myiter& operator++()
; 256  : 		{	// preincrement
; 257  :  #if _ITERATOR_DEBUG_LEVEL == 2
; 258  : 		if (this->_Getcont() == 0
; 259  : 			|| this->_Ptr == 0
; 260  : 			|| _Mytree::_Isnil(this->_Ptr))
; 261  : 			{	// report error
; 262  : 			_DEBUG_ERROR("map/set iterator not incrementable");
; 263  : 			_SCL_SECURE_OUT_OF_RANGE;
; 264  : 			}
; 265  : 
; 266  :  #elif _ITERATOR_DEBUG_LEVEL == 1
; 267  : 		_SCL_SECURE_VALIDATE(this->_Getcont() != 0 && this->_Ptr != 0);
; 268  : 		_SCL_SECURE_VALIDATE_RANGE(!_Mytree::_Isnil(this->_Ptr));
; 269  :  #endif /* _ITERATOR_DEBUG_LEVEL */
; 270  : 
; 271  : 		++(*(_Mybase *)this);
; 272  : 		return (*this);
; 273  : 		}
; 274  : 
; 275  : 	_Myiter operator++(int)
; 276  : 		{	// postincrement
; 277  : 		_Myiter _Tmp = *this;
; 278  : 		++*this;
; 279  : 		return (_Tmp);
; 280  : 		}
; 281  : 
; 282  : 	_Myiter& operator--()
; 283  : 		{	// predecrement
; 284  :  #if _ITERATOR_DEBUG_LEVEL == 2
; 285  : 		if (this->_Getcont() == 0
; 286  : 			|| this->_Ptr == 0)
; 287  : 			{	// report error
; 288  : 			_DEBUG_ERROR("map/set iterator not decrementable");
; 289  : 			_SCL_SECURE_OUT_OF_RANGE;
; 290  : 			}
; 291  : 
; 292  : 		_Nodeptr _Ptrsav = this->_Ptr;
; 293  : 		--(*(_Mybase *)this);
; 294  : 		if (_Ptrsav == this->_Ptr)
; 295  : 			{	// report error
; 296  : 			_DEBUG_ERROR("map/set iterator not decrementable");
; 297  : 			_SCL_SECURE_OUT_OF_RANGE;
; 298  : 			}
; 299  : 
; 300  :  #elif _ITERATOR_DEBUG_LEVEL == 1
; 301  : 		_SCL_SECURE_VALIDATE(this->_Getcont() != 0 && this->_Ptr != 0);
; 302  : 
; 303  : 		_Nodeptr _Ptrsav = this->_Ptr;
; 304  : 		--(*(_Mybase *)this);
; 305  : 		_SCL_SECURE_VALIDATE(_Ptrsav != this->_Ptr);
; 306  : 
; 307  :  #else /* _ITERATOR_DEBUG_LEVEL == 0 */
; 308  : 		--(*(_Mybase *)this);

  000be	8d 4d 0c	 lea	 ecx, DWORD PTR __Where$4[ebp]
  000c1	e8 00 00 00 00	 call	 ??F?$_Tree_unchecked_const_iterator@V?$_Tree_val@U?$_Tree_simple_types@U?$pair@$$CBHH@std@@@std@@@std@@U_Iterator_base0@2@@std@@QAEAAV01@XZ ; std::_Tree_unchecked_const_iterator<std::_Tree_val<std::_Tree_simple_types<std::pair<int const ,int> > >,std::_Iterator_base0>::operator--
  000c6	8b 75 0c	 mov	 esi, DWORD PTR __Where$4[ebp]
$LN12@Insert_noh:
; File c:\program files (x86)\microsoft visual studio 14.0\vc\include\xstddef

; 240  : 		return (_Left < _Right);

  000c9	8b 46 10	 mov	 eax, DWORD PTR [esi+16]
; File c:\program files (x86)\microsoft visual studio 14.0\vc\include\xtree

; 1837 : 				return (_Pairib(_Insert_at(_Addleft, _Wherenode,

  000cc	ff 75 14	 push	 DWORD PTR __Newnode$[ebp]
; File c:\program files (x86)\microsoft visual studio 14.0\vc\include\xstddef

; 240  : 		return (_Left < _Right);

  000cf	3b 03		 cmp	 eax, DWORD PTR [ebx]
; File c:\program files (x86)\microsoft visual studio 14.0\vc\include\xtree

; 1834 : 			if (_DEBUG_LT_PRED(this->_Getcomp(),

  000d1	7d 1b		 jge	 SHORT $LN13@Insert_noh

; 1837 : 				return (_Pairib(_Insert_at(_Addleft, _Wherenode,

  000d3	53		 push	 ebx
  000d4	57		 push	 edi
  000d5	ff 75 ec	 push	 DWORD PTR __Addleft$2[ebp]
  000d8	eb b9		 jmp	 SHORT $LN337@Insert_noh
__catch$??$_Insert_nohint@AAU?$pair@$$CBHH@std@@PAU?$_Tree_node@U?$pair@$$CBHH@std@@PAX@2@@?$_Tree@V?$_Tmap_traits@HHU?$less@H@std@@V?$allocator@U?$pair@$$CBHH@std@@@2@$0A@@std@@@std@@IAE?AU?$pair@V?$_Tree_iterator@V?$_Tree_val@U?$_Tree_simple_types@U?$pair@$$CBHH@std@@@std@@@std@@@std@@_N@1@_NAAU?$pair@$$CBHH@1@PAU?$_Tree_node@U?$pair@$$CBHH@std@@PAX@1@@Z$0:
; File c:\program files (x86)\microsoft visual studio 14.0\vc\include\xmemory0

; 138  : 	::operator delete(_Ptr);

  000da	ff 75 14	 push	 DWORD PTR __Newnode$[ebp]
  000dd	e8 00 00 00 00	 call	 ??3@YAXPAX@Z		; operator delete
  000e2	83 c4 04	 add	 esp, 4
; File c:\program files (x86)\microsoft visual studio 14.0\vc\include\xtree

; 1847 : 		_RERAISE;

  000e5	6a 00		 push	 0
  000e7	6a 00		 push	 0
  000e9	e8 00 00 00 00	 call	 __CxxThrowException@8
$LN338@Insert_noh:
$LN13@Insert_noh:
; File c:\program files (x86)\microsoft visual studio 14.0\vc\include\xmemory0

; 138  : 	::operator delete(_Ptr);

  000ee	e8 00 00 00 00	 call	 ??3@YAXPAX@Z		; operator delete
; File c:\program files (x86)\microsoft visual studio 14.0\vc\include\utility

; 143  : 		: first(_STD forward<_Other1>(_Val1)),

  000f3	8b 45 08	 mov	 eax, DWORD PTR ___$ReturnUdt$[ebp]
; File c:\program files (x86)\microsoft visual studio 14.0\vc\include\xmemory0

; 138  : 	::operator delete(_Ptr);

  000f6	83 c4 04	 add	 esp, 4
; File c:\program files (x86)\microsoft visual studio 14.0\vc\include\utility

; 143  : 		: first(_STD forward<_Other1>(_Val1)),

  000f9	89 30		 mov	 DWORD PTR [eax], esi

; 144  : 				second(_STD forward<_Other2>(_Val2))

  000fb	c6 40 04 00	 mov	 BYTE PTR [eax+4], 0
; File c:\program files (x86)\microsoft visual studio 14.0\vc\include\xtree

; 1849 : 		}

  000ff	8b 4d f4	 mov	 ecx, DWORD PTR __$EHRec$[ebp+4]
  00102	64 89 0d 00 00
	00 00		 mov	 DWORD PTR fs:0, ecx
  00109	59		 pop	 ecx
  0010a	5f		 pop	 edi
  0010b	5e		 pop	 esi
  0010c	5b		 pop	 ebx
  0010d	8b e5		 mov	 esp, ebp
  0010f	5d		 pop	 ebp
  00110	c2 10 00	 ret	 16			; 00000010H
$LN335@Insert_noh:
_TEXT	ENDS
;	COMDAT text$x
text$x	SEGMENT
__ehhandler$??$_Insert_nohint@AAU?$pair@$$CBHH@std@@PAU?$_Tree_node@U?$pair@$$CBHH@std@@PAX@2@@?$_Tree@V?$_Tmap_traits@HHU?$less@H@std@@V?$allocator@U?$pair@$$CBHH@std@@@2@$0A@@std@@@std@@IAE?AU?$pair@V?$_Tree_iterator@V?$_Tree_val@U?$_Tree_simple_types@U?$pair@$$CBHH@std@@@std@@@std@@@std@@_N@1@_NAAU?$pair@$$CBHH@1@PAU?$_Tree_node@U?$pair@$$CBHH@std@@PAX@1@@Z:
  00000	8b 54 24 08	 mov	 edx, DWORD PTR [esp+8]
  00004	8d 42 0c	 lea	 eax, DWORD PTR [edx+12]
  00007	8b 4a e0	 mov	 ecx, DWORD PTR [edx-32]
  0000a	33 c8		 xor	 ecx, eax
  0000c	e8 00 00 00 00	 call	 @__security_check_cookie@4
  00011	b8 00 00 00 00	 mov	 eax, OFFSET __ehfuncinfo$??$_Insert_nohint@AAU?$pair@$$CBHH@std@@PAU?$_Tree_node@U?$pair@$$CBHH@std@@PAX@2@@?$_Tree@V?$_Tmap_traits@HHU?$less@H@std@@V?$allocator@U?$pair@$$CBHH@std@@@2@$0A@@std@@@std@@IAE?AU?$pair@V?$_Tree_iterator@V?$_Tree_val@U?$_Tree_simple_types@U?$pair@$$CBHH@std@@@std@@@std@@@std@@_N@1@_NAAU?$pair@$$CBHH@1@PAU?$_Tree_node@U?$pair@$$CBHH@std@@PAX@1@@Z
  00016	e9 00 00 00 00	 jmp	 ___CxxFrameHandler3
text$x	ENDS
??$_Insert_nohint@AAU?$pair@$$CBHH@std@@PAU?$_Tree_node@U?$pair@$$CBHH@std@@PAX@2@@?$_Tree@V?$_Tmap_traits@HHU?$less@H@std@@V?$allocator@U?$pair@$$CBHH@std@@@2@$0A@@std@@@std@@IAE?AU?$pair@V?$_Tree_iterator@V?$_Tree_val@U?$_Tree_simple_types@U?$pair@$$CBHH@std@@@std@@@std@@@std@@_N@1@_NAAU?$pair@$$CBHH@1@PAU?$_Tree_node@U?$pair@$$CBHH@std@@PAX@1@@Z ENDP ; std::_Tree<std::_Tmap_traits<int,int,std::less<int>,std::allocator<std::pair<int const ,int> >,0> >::_Insert_nohint<std::pair<int const ,int> &,std::_Tree_node<std::pair<int const ,int>,void *> *>
; Function compile flags: /Ogtp
; File c:\program files (x86)\microsoft visual studio 14.0\vc\include\xtree
; File c:\program files (x86)\microsoft visual studio 14.0\vc\include\xmemory0
; File c:\program files (x86)\microsoft visual studio 14.0\vc\include\xtree
;	COMDAT ??$_Insert_at@AAU?$pair@$$CBHH@std@@PAU?$_Tree_node@U?$pair@$$CBHH@std@@PAX@2@@?$_Tree@V?$_Tmap_traits@HHU?$less@H@std@@V?$allocator@U?$pair@$$CBHH@std@@@2@$0A@@std@@@std@@IAE?AV?$_Tree_iterator@V?$_Tree_val@U?$_Tree_simple_types@U?$pair@$$CBHH@std@@@std@@@std@@@1@_NPAU?$_Tree_node@U?$pair@$$CBHH@std@@PAX@1@AAU?$pair@$$CBHH@1@1@Z
_TEXT	SEGMENT
___$ReturnUdt$ = 8					; size = 4
__Addleft$ = 12						; size = 1
__Wherenode$ = 16					; size = 4
__Val$ = 20						; size = 4
__Node$ = 24						; size = 4
??$_Insert_at@AAU?$pair@$$CBHH@std@@PAU?$_Tree_node@U?$pair@$$CBHH@std@@PAX@2@@?$_Tree@V?$_Tmap_traits@HHU?$less@H@std@@V?$allocator@U?$pair@$$CBHH@std@@@2@$0A@@std@@@std@@IAE?AV?$_Tree_iterator@V?$_Tree_val@U?$_Tree_simple_types@U?$pair@$$CBHH@std@@@std@@@std@@@1@_NPAU?$_Tree_node@U?$pair@$$CBHH@std@@PAX@1@AAU?$pair@$$CBHH@1@1@Z PROC ; std::_Tree<std::_Tmap_traits<int,int,std::less<int>,std::allocator<std::pair<int const ,int> >,0> >::_Insert_at<std::pair<int const ,int> &,std::_Tree_node<std::pair<int const ,int>,void *> *>, COMDAT
; _this$ = ecx

; 1855 : 		{	// add node with value next to _Wherenode, to left if _Addleft

  00000	55		 push	 ebp
  00001	8b ec		 mov	 ebp, esp
  00003	53		 push	 ebx
  00004	56		 push	 esi
  00005	57		 push	 edi
  00006	8b f9		 mov	 edi, ecx

; 1856 : 		if (max_size() - 1 <= this->_Mysize())

  00008	8b 47 04	 mov	 eax, DWORD PTR [edi+4]
  0000b	3d a9 aa aa 0a	 cmp	 eax, 178956969		; 0aaaaaa9H
  00010	0f 83 6e 01 00
	00		 jae	 $LN730@Insert_at

; 1860 : 			}
; 1861 : 		_Nodeptr _Newnode = _Buynode_if_nil(_Node,
; 1862 : 			_STD forward<_Valty>(_Val));
; 1863 : 
; 1864 : 		++this->_Mysize();
; 1865 : 		_Newnode->_Parent = _Wherenode;

  00016	8b 5d 18	 mov	 ebx, DWORD PTR __Node$[ebp]
  00019	40		 inc	 eax
  0001a	89 47 04	 mov	 DWORD PTR [edi+4], eax
  0001d	8b 45 10	 mov	 eax, DWORD PTR __Wherenode$[ebp]
  00020	89 43 04	 mov	 DWORD PTR [ebx+4], eax

; 1866 : 
; 1867 : 		if (_Wherenode == this->_Myhead())

  00023	8b 0f		 mov	 ecx, DWORD PTR [edi]
  00025	3b c1		 cmp	 eax, ecx
  00027	75 0e		 jne	 SHORT $LN6@Insert_at

; 1868 : 			{	// first node in tree, just set head values
; 1869 : 			_Root() = _Newnode;

  00029	89 59 04	 mov	 DWORD PTR [ecx+4], ebx

; 583  : 		}
; 584  : 
; 585  : 	static _Nodepref _Left(_Nodeptr _Pnode)
; 586  : 		{	// return reference to left pointer in node
; 587  : 		return ((_Nodepref)_Pnode->_Left);

  0002c	8b 07		 mov	 eax, DWORD PTR [edi]

; 1870 : 			_Lmost() = _Newnode;

  0002e	89 18		 mov	 DWORD PTR [eax], ebx

; 1871 : 			_Rmost() = _Newnode;

  00030	8b 07		 mov	 eax, DWORD PTR [edi]
  00032	89 58 08	 mov	 DWORD PTR [eax+8], ebx
  00035	eb 1f		 jmp	 SHORT $LN11@Insert_at
$LN6@Insert_at:

; 1872 : 			}
; 1873 : 		else if (_Addleft)

  00037	80 7d 0c 00	 cmp	 BYTE PTR __Addleft$[ebp], 0
  0003b	74 0c		 je	 SHORT $LN8@Insert_at

; 1874 : 			{	// add to left of _Wherenode
; 1875 : 			this->_Left(_Wherenode) = _Newnode;

  0003d	89 18		 mov	 DWORD PTR [eax], ebx

; 583  : 		}
; 584  : 
; 585  : 	static _Nodepref _Left(_Nodeptr _Pnode)
; 586  : 		{	// return reference to left pointer in node
; 587  : 		return ((_Nodepref)_Pnode->_Left);

  0003f	8b 0f		 mov	 ecx, DWORD PTR [edi]

; 1876 : 			if (_Wherenode == _Lmost())

  00041	3b 01		 cmp	 eax, DWORD PTR [ecx]
  00043	75 11		 jne	 SHORT $LN11@Insert_at

; 1877 : 				_Lmost() = _Newnode;

  00045	89 19		 mov	 DWORD PTR [ecx], ebx

; 1878 : 			}
; 1879 : 		else

  00047	eb 0d		 jmp	 SHORT $LN11@Insert_at
$LN8@Insert_at:

; 1880 : 			{	// add to right of _Wherenode
; 1881 : 			this->_Right(_Wherenode) = _Newnode;

  00049	89 58 08	 mov	 DWORD PTR [eax+8], ebx

; 593  : 		}
; 594  : 
; 595  : 	static _Nodepref _Right(_Nodeptr _Pnode)
; 596  : 		{	// return reference to right pointer in node
; 597  : 		return ((_Nodepref)_Pnode->_Right);

  0004c	8b 0f		 mov	 ecx, DWORD PTR [edi]

; 1882 : 			if (_Wherenode == _Rmost())

  0004e	3b 41 08	 cmp	 eax, DWORD PTR [ecx+8]
  00051	75 03		 jne	 SHORT $LN11@Insert_at

; 1883 : 				_Rmost() = _Newnode;

  00053	89 59 08	 mov	 DWORD PTR [ecx+8], ebx
$LN11@Insert_at:

; 1884 : 			}
; 1885 : 
; 1886 : 		for (_Nodeptr _Pnode = _Newnode;
; 1887 : 			this->_Color(this->_Parent(_Pnode)) == this->_Red; )

  00056	8b 43 04	 mov	 eax, DWORD PTR [ebx+4]
  00059	8b f3		 mov	 esi, ebx
  0005b	80 78 0c 00	 cmp	 BYTE PTR [eax+12], 0
  0005f	0f 85 0a 01 00
	00		 jne	 $LN3@Insert_at
$LL2@Insert_at:

; 588  : 		}
; 589  : 
; 590  : 	static _Nodepref _Parent(_Nodeptr _Pnode)
; 591  : 		{	// return reference to parent pointer in node
; 592  : 		return ((_Nodepref)_Pnode->_Parent);

  00065	8b 46 04	 mov	 eax, DWORD PTR [esi+4]

; 583  : 		}
; 584  : 
; 585  : 	static _Nodepref _Left(_Nodeptr _Pnode)
; 586  : 		{	// return reference to left pointer in node
; 587  : 		return ((_Nodepref)_Pnode->_Left);

  00068	8b 50 04	 mov	 edx, DWORD PTR [eax+4]

; 1888 : 			if (this->_Parent(_Pnode)
; 1889 : 				== this->_Left(this->_Parent(this->_Parent(_Pnode))))

  0006b	8b 0a		 mov	 ecx, DWORD PTR [edx]
  0006d	3b c1		 cmp	 eax, ecx
  0006f	75 74		 jne	 SHORT $LN12@Insert_at

; 1890 : 				{	// fixup red-red in left subtree
; 1891 : 				_Wherenode =

  00071	8b 4a 08	 mov	 ecx, DWORD PTR [edx+8]

; 1892 : 					this->_Right(this->_Parent(this->_Parent(_Pnode)));
; 1893 : 				if (this->_Color(_Wherenode) == this->_Red)

  00074	80 79 0c 00	 cmp	 BYTE PTR [ecx+12], 0
  00078	74 71		 je	 SHORT $LN729@Insert_at

; 1894 : 					{	// parent has two red children, blacken both
; 1895 : 					this->_Color(this->_Parent(_Pnode)) = this->_Black;
; 1896 : 					this->_Color(_Wherenode) = this->_Black;
; 1897 : 					this->_Color(this->_Parent(this->_Parent(_Pnode)))
; 1898 : 						= this->_Red;
; 1899 : 					_Pnode = this->_Parent(this->_Parent(_Pnode));
; 1900 : 					}
; 1901 : 				else
; 1902 : 					{	// parent has red and black children
; 1903 : 					if (_Pnode == this->_Right(this->_Parent(_Pnode)))

  0007a	3b 70 08	 cmp	 esi, DWORD PTR [eax+8]
  0007d	75 0a		 jne	 SHORT $LN16@Insert_at

; 1904 : 						{	// rotate right child to left
; 1905 : 						_Pnode = this->_Parent(_Pnode);

  0007f	8b f0		 mov	 esi, eax

; 1906 : 						_Lrotate(_Pnode);

  00081	8b cf		 mov	 ecx, edi
  00083	56		 push	 esi
  00084	e8 00 00 00 00	 call	 ?_Lrotate@?$_Tree@V?$_Tmap_traits@HHU?$less@H@std@@V?$allocator@U?$pair@$$CBHH@std@@@2@$0A@@std@@@std@@IAEXPAU?$_Tree_node@U?$pair@$$CBHH@std@@PAX@2@@Z ; std::_Tree<std::_Tmap_traits<int,int,std::less<int>,std::allocator<std::pair<int const ,int> >,0> >::_Lrotate
$LN16@Insert_at:

; 1907 : 						}
; 1908 : 					this->_Color(this->_Parent(_Pnode)) =

  00089	8b 46 04	 mov	 eax, DWORD PTR [esi+4]
  0008c	c6 40 0c 01	 mov	 BYTE PTR [eax+12], 1

; 1909 : 						this->_Black;	// propagate red up
; 1910 : 					this->_Color(this->_Parent(this->_Parent(_Pnode))) =

  00090	8b 46 04	 mov	 eax, DWORD PTR [esi+4]
  00093	8b 40 04	 mov	 eax, DWORD PTR [eax+4]
  00096	c6 40 0c 00	 mov	 BYTE PTR [eax+12], 0

; 1911 : 						this->_Red;
; 1912 : 					_Rrotate(this->_Parent(this->_Parent(_Pnode)));

  0009a	8b 46 04	 mov	 eax, DWORD PTR [esi+4]
  0009d	8b 48 04	 mov	 ecx, DWORD PTR [eax+4]

; 2126 : 		}
; 2127 : 
; 2128 : 	_Nodeptr& _Rmost() const
; 2129 : 		{	// return rightmost node in nonmutable tree
; 2130 : 		return (this->_Right(this->_Myhead()));
; 2131 : 		}
; 2132 : 
; 2133 : 	_Nodeptr& _Root() const
; 2134 : 		{	// return root of nonmutable tree
; 2135 : 		return (this->_Parent(this->_Myhead()));
; 2136 : 		}
; 2137 : 
; 2138 : 	void _Rrotate(_Nodeptr _Wherenode)
; 2139 : 		{	// promote left node to root of subtree
; 2140 : 		_Nodeptr _Pnode = this->_Left(_Wherenode);

  000a0	8b 11		 mov	 edx, DWORD PTR [ecx]

; 2141 : 		this->_Left(_Wherenode) = this->_Right(_Pnode);

  000a2	8b 42 08	 mov	 eax, DWORD PTR [edx+8]
  000a5	89 01		 mov	 DWORD PTR [ecx], eax

; 44   : 		{	// construct with node pointer _Pnode
; 45   : 		this->_Adopt(_Plist);
; 46   : 		}
; 47   : 
; 48   : 	reference operator*() const
; 49   : 		{	// return designated value
; 50   : 		return (_Mytree::_Myval(_Ptr));
; 51   : 		}
; 52   : 
; 53   : 	pointer operator->() const
; 54   : 		{	// return pointer to class object
; 55   : 		return (_STD pointer_traits<pointer>::pointer_to(**this));
; 56   : 		}
; 57   : 
; 58   : 	_Myiter& operator++()
; 59   : 		{	// preincrement
; 60   : 		if (_Mytree::_Isnil(_Ptr))
; 61   : 			;	// end() shouldn't be incremented, don't move
; 62   : 		else if (!_Mytree::_Isnil(_Mytree::_Right(_Ptr)))
; 63   : 			_Ptr = _Mytree::_Min(
; 64   : 				_Mytree::_Right(_Ptr));	// ==> smallest of right subtree
; 65   : 		else
; 66   : 			{	// climb looking for right subtree
; 67   : 			_Nodeptr _Pnode;
; 68   : 			while (!_Mytree::_Isnil(_Pnode = _Mytree::_Parent(_Ptr))
; 69   : 				&& _Ptr == _Mytree::_Right(_Pnode))
; 70   : 				_Ptr = _Pnode;	// ==> parent while right subtree
; 71   : 			_Ptr = _Pnode;	// ==> parent (head if end())
; 72   : 			}
; 73   : 		return (*this);
; 74   : 		}
; 75   : 
; 76   : 	_Myiter operator++(int)
; 77   : 		{	// postincrement
; 78   : 		_Myiter _Tmp = *this;
; 79   : 		++*this;
; 80   : 		return (_Tmp);
; 81   : 		}
; 82   : 
; 83   : 	_Myiter& operator--()
; 84   : 		{	// predecrement
; 85   : 		if (_Mytree::_Isnil(_Ptr))
; 86   : 			_Ptr = _Mytree::_Right(_Ptr);	// end() ==> rightmost
; 87   : 		else if (!_Mytree::_Isnil(_Mytree::_Left(_Ptr)))
; 88   : 			_Ptr = _Mytree::_Max(
; 89   : 				_Mytree::_Left(_Ptr));	// ==> largest of left subtree
; 90   : 		else
; 91   : 			{	// climb looking for left subtree
; 92   : 			_Nodeptr _Pnode;
; 93   : 			while (!_Mytree::_Isnil(_Pnode = _Mytree::_Parent(_Ptr))
; 94   : 				&& _Ptr == _Mytree::_Left(_Pnode))
; 95   : 				_Ptr = _Pnode;	// ==> parent while left subtree
; 96   : 			if (_Mytree::_Isnil(_Ptr))
; 97   : 				;	// begin() shouldn't be decremented, don't move
; 98   : 			else
; 99   : 				_Ptr = _Pnode;	// ==> parent if not head
; 100  : 			}
; 101  : 		return (*this);
; 102  : 		}
; 103  : 
; 104  : 	_Myiter operator--(int)
; 105  : 		{	// postdecrement
; 106  : 		_Myiter _Tmp = *this;
; 107  : 		--*this;
; 108  : 		return (_Tmp);
; 109  : 		}
; 110  : 
; 111  : 	bool operator==(const _Myiter& _Right) const
; 112  : 		{	// test for iterator equality
; 113  : 		return (_Ptr == _Right._Ptr);
; 114  : 		}
; 115  : 
; 116  : 	bool operator!=(const _Myiter& _Right) const
; 117  : 		{	// test for iterator inequality
; 118  : 		return (!(*this == _Right));
; 119  : 		}
; 120  : 
; 121  : 	_Nodeptr _Mynode() const
; 122  : 		{	// return node pointer
; 123  : 		return (_Ptr);
; 124  : 		}
; 125  : 
; 126  : 	_Nodeptr _Ptr;	// pointer to node
; 127  : 	};
; 128  : 
; 129  : 	// TEMPLATE CLASS _Tree_unchecked_iterator
; 130  : template<class _Mytree>
; 131  : 	class _Tree_unchecked_iterator
; 132  : 		: public _Tree_unchecked_const_iterator<_Mytree>
; 133  : 	{	// unchecked iterator for mutable tree
; 134  : public:
; 135  : 	typedef _Tree_unchecked_iterator<_Mytree> _Myiter;
; 136  : 	typedef _Tree_unchecked_const_iterator<_Mytree> _Mybase;
; 137  : 	typedef bidirectional_iterator_tag iterator_category;
; 138  : 
; 139  : 	typedef typename _Mytree::_Nodeptr _Nodeptr;
; 140  : 	typedef typename _Mytree::value_type value_type;
; 141  : 	typedef typename _Mytree::difference_type difference_type;
; 142  : 	typedef typename _Mytree::pointer pointer;
; 143  : 	typedef typename _Mytree::reference reference;
; 144  : 
; 145  : 	_Tree_unchecked_iterator()
; 146  : 		{	// construct with null node
; 147  : 		}
; 148  : 
; 149  : 	_Tree_unchecked_iterator(_Nodeptr _Pnode, const _Mytree *_Plist)
; 150  : 		: _Mybase(_Pnode, _Plist)
; 151  : 		{	// construct with node pointer _Pnode
; 152  : 		}
; 153  : 
; 154  : 	reference operator*() const
; 155  : 		{	// return designated value
; 156  : 		return ((reference)**(_Mybase *)this);
; 157  : 		}
; 158  : 
; 159  : 	pointer operator->() const
; 160  : 		{	// return pointer to class object
; 161  : 		return (_STD pointer_traits<pointer>::pointer_to(**this));
; 162  : 		}
; 163  : 
; 164  : 	_Myiter& operator++()
; 165  : 		{	// preincrement
; 166  : 		++(*(_Mybase *)this);
; 167  : 		return (*this);
; 168  : 		}
; 169  : 
; 170  : 	_Myiter operator++(int)
; 171  : 		{	// postincrement
; 172  : 		_Myiter _Tmp = *this;
; 173  : 		++*this;
; 174  : 		return (_Tmp);
; 175  : 		}
; 176  : 
; 177  : 	_Myiter& operator--()
; 178  : 		{	// predecrement
; 179  : 		--(*(_Mybase *)this);
; 180  : 		return (*this);
; 181  : 		}
; 182  : 
; 183  : 	_Myiter operator--(int)
; 184  : 		{	// postdecrement
; 185  : 		_Myiter _Tmp = *this;
; 186  : 		--*this;
; 187  : 		return (_Tmp);
; 188  : 		}
; 189  : 	};
; 190  : 
; 191  : 	// TEMPLATE CLASS _Tree_const_iterator
; 192  : template<class _Mytree>
; 193  : 	class _Tree_const_iterator
; 194  : 		: public _Tree_unchecked_const_iterator<_Mytree, _Iterator_base>
; 195  : 	{	// iterator for nonmutable tree
; 196  : public:
; 197  : 	typedef _Tree_const_iterator<_Mytree> _Myiter;
; 198  : 	typedef _Tree_unchecked_const_iterator<_Mytree, _Iterator_base> _Mybase;
; 199  : 	typedef bidirectional_iterator_tag iterator_category;
; 200  : 
; 201  : 	typedef typename _Mytree::_Nodeptr _Nodeptr;
; 202  : 	typedef typename _Mytree::value_type value_type;
; 203  : 	typedef typename _Mytree::difference_type difference_type;
; 204  : 	typedef typename _Mytree::const_pointer pointer;
; 205  : 	typedef typename _Mytree::const_reference reference;
; 206  : 
; 207  : 	_Tree_const_iterator()
; 208  : 		: _Mybase()
; 209  : 		{	// construct with null node pointer
; 210  : 		}
; 211  : 
; 212  : 	_Tree_const_iterator(_Nodeptr _Pnode, const _Mytree *_Plist)
; 213  : 		: _Mybase(_Pnode, _Plist)
; 214  : 		{	// construct with node pointer _Pnode
; 215  : 		}
; 216  : 
; 217  : 	typedef _Tree_unchecked_const_iterator<_Mytree> _Unchecked_type;
; 218  : 
; 219  : 	_Myiter& _Rechecked(_Unchecked_type _Right)
; 220  : 		{	// reset from unchecked iterator
; 221  : 		this->_Ptr = _Right._Ptr;
; 222  : 		return (*this);
; 223  : 		}
; 224  : 
; 225  : 	_Unchecked_type _Unchecked() const
; 226  : 		{	// make an unchecked iterator
; 227  : 		return (_Unchecked_type(this->_Ptr, (_Mytree *)this->_Getcont()));
; 228  : 		}
; 229  : 
; 230  : 	reference operator*() const
; 231  : 		{	// return designated value
; 232  :  #if _ITERATOR_DEBUG_LEVEL == 2
; 233  : 		if (this->_Getcont() == 0
; 234  : 			|| this->_Ptr == 0
; 235  : 			|| this->_Ptr == ((_Mytree *)this->_Getcont())->_Myhead)
; 236  : 			{	// report error
; 237  : 			_DEBUG_ERROR("map/set iterator not dereferencable");
; 238  : 			_SCL_SECURE_OUT_OF_RANGE;
; 239  : 			}
; 240  : 
; 241  :  #elif _ITERATOR_DEBUG_LEVEL == 1
; 242  : 		_SCL_SECURE_VALIDATE(this->_Getcont() != 0 && this->_Ptr != 0);
; 243  : 		_SCL_SECURE_VALIDATE_RANGE(this->_Ptr !=
; 244  : 			((_Mytree *)this->_Getcont())->_Myhead);
; 245  :  #endif /* _ITERATOR_DEBUG_LEVEL */
; 246  : 
; 247  : 		return (_Mytree::_Myval(this->_Ptr));
; 248  : 		}
; 249  : 
; 250  : 	pointer operator->() const
; 251  : 		{	// return pointer to class object
; 252  : 		return (_STD pointer_traits<pointer>::pointer_to(**this));
; 253  : 		}
; 254  : 
; 255  : 	_Myiter& operator++()
; 256  : 		{	// preincrement
; 257  :  #if _ITERATOR_DEBUG_LEVEL == 2
; 258  : 		if (this->_Getcont() == 0
; 259  : 			|| this->_Ptr == 0
; 260  : 			|| _Mytree::_Isnil(this->_Ptr))
; 261  : 			{	// report error
; 262  : 			_DEBUG_ERROR("map/set iterator not incrementable");
; 263  : 			_SCL_SECURE_OUT_OF_RANGE;
; 264  : 			}
; 265  : 
; 266  :  #elif _ITERATOR_DEBUG_LEVEL == 1
; 267  : 		_SCL_SECURE_VALIDATE(this->_Getcont() != 0 && this->_Ptr != 0);
; 268  : 		_SCL_SECURE_VALIDATE_RANGE(!_Mytree::_Isnil(this->_Ptr));
; 269  :  #endif /* _ITERATOR_DEBUG_LEVEL */
; 270  : 
; 271  : 		++(*(_Mybase *)this);
; 272  : 		return (*this);
; 273  : 		}
; 274  : 
; 275  : 	_Myiter operator++(int)
; 276  : 		{	// postincrement
; 277  : 		_Myiter _Tmp = *this;
; 278  : 		++*this;
; 279  : 		return (_Tmp);
; 280  : 		}
; 281  : 
; 282  : 	_Myiter& operator--()
; 283  : 		{	// predecrement
; 284  :  #if _ITERATOR_DEBUG_LEVEL == 2
; 285  : 		if (this->_Getcont() == 0
; 286  : 			|| this->_Ptr == 0)
; 287  : 			{	// report error
; 288  : 			_DEBUG_ERROR("map/set iterator not decrementable");
; 289  : 			_SCL_SECURE_OUT_OF_RANGE;
; 290  : 			}
; 291  : 
; 292  : 		_Nodeptr _Ptrsav = this->_Ptr;
; 293  : 		--(*(_Mybase *)this);
; 294  : 		if (_Ptrsav == this->_Ptr)
; 295  : 			{	// report error
; 296  : 			_DEBUG_ERROR("map/set iterator not decrementable");
; 297  : 			_SCL_SECURE_OUT_OF_RANGE;
; 298  : 			}
; 299  : 
; 300  :  #elif _ITERATOR_DEBUG_LEVEL == 1
; 301  : 		_SCL_SECURE_VALIDATE(this->_Getcont() != 0 && this->_Ptr != 0);
; 302  : 
; 303  : 		_Nodeptr _Ptrsav = this->_Ptr;
; 304  : 		--(*(_Mybase *)this);
; 305  : 		_SCL_SECURE_VALIDATE(_Ptrsav != this->_Ptr);
; 306  : 
; 307  :  #else /* _ITERATOR_DEBUG_LEVEL == 0 */
; 308  : 		--(*(_Mybase *)this);
; 309  :  #endif /* _ITERATOR_DEBUG_LEVEL */
; 310  : 
; 311  : 		return (*this);
; 312  : 		}
; 313  : 
; 314  : 	_Myiter operator--(int)
; 315  : 		{	// postdecrement
; 316  : 		_Myiter _Tmp = *this;
; 317  : 		--*this;
; 318  : 		return (_Tmp);
; 319  : 		}
; 320  : 
; 321  : 	bool operator==(const _Myiter& _Right) const
; 322  : 		{	// test for iterator equality
; 323  :  #if _ITERATOR_DEBUG_LEVEL == 2
; 324  : 		if (this->_Getcont() != _Right._Getcont())
; 325  : 			{	// report error
; 326  : 			_DEBUG_ERROR("map/set iterators incompatible");
; 327  : 			_SCL_SECURE_INVALID_ARGUMENT;
; 328  : 			}
; 329  : 
; 330  :  #elif _ITERATOR_DEBUG_LEVEL == 1
; 331  : 		_SCL_SECURE_VALIDATE(this->_Getcont() == _Right._Getcont());
; 332  :  #endif /* _ITERATOR_DEBUG_LEVEL */
; 333  : 
; 334  : 		return (this->_Ptr == _Right._Ptr);
; 335  : 		}
; 336  : 
; 337  : 	bool operator!=(const _Myiter& _Right) const
; 338  : 		{	// test for iterator inequality
; 339  : 		return (!(*this == _Right));
; 340  : 		}
; 341  : 	};
; 342  : 
; 343  : template<class _Mytree> inline
; 344  : 	typename _Tree_const_iterator<_Mytree>::_Unchecked_type
; 345  : 		_Unchecked(_Tree_const_iterator<_Mytree> _Iter)
; 346  : 	{	// convert to unchecked
; 347  : 	return (_Iter._Unchecked());
; 348  : 	}
; 349  : 
; 350  : template<class _Mytree> inline
; 351  : 	_Tree_const_iterator<_Mytree>&
; 352  : 		_Rechecked(_Tree_const_iterator<_Mytree>& _Iter,
; 353  : 			typename _Tree_const_iterator<_Mytree>
; 354  : 				::_Unchecked_type _Right)
; 355  : 	{	// convert to checked
; 356  : 	return (_Iter._Rechecked(_Right));
; 357  : 	}
; 358  : 
; 359  : 	// TEMPLATE CLASS _Tree_iterator
; 360  : template<class _Mytree>
; 361  : 	class _Tree_iterator
; 362  : 		: public _Tree_const_iterator<_Mytree>
; 363  : 	{	// iterator for mutable tree
; 364  : public:
; 365  : 	typedef _Tree_iterator<_Mytree> _Myiter;
; 366  : 	typedef _Tree_const_iterator<_Mytree> _Mybase;
; 367  : 	typedef bidirectional_iterator_tag iterator_category;
; 368  : 
; 369  : 	typedef typename _Mytree::_Nodeptr _Nodeptr;
; 370  : 	typedef typename _Mytree::value_type value_type;
; 371  : 	typedef typename _Mytree::difference_type difference_type;
; 372  : 
; 373  : 	typedef typename _Mytree::pointer pointer;
; 374  : 	typedef typename _Mytree::reference reference;
; 375  : 
; 376  : 	_Tree_iterator()
; 377  : 		{	// construct with null node
; 378  : 		}
; 379  : 
; 380  : 	_Tree_iterator(_Nodeptr _Pnode, const _Mytree *_Plist)
; 381  : 		: _Mybase(_Pnode, _Plist)
; 382  : 		{	// construct with node pointer _Pnode
; 383  : 		}
; 384  : 
; 385  : 	typedef _Tree_unchecked_iterator<_Mytree> _Unchecked_type;
; 386  : 
; 387  : 	_Myiter& _Rechecked(_Unchecked_type _Right)
; 388  : 		{	// reset from unchecked iterator
; 389  : 		this->_Ptr = _Right._Ptr;
; 390  : 		return (*this);
; 391  : 		}
; 392  : 
; 393  : 	_Unchecked_type _Unchecked() const
; 394  : 		{	// make an unchecked iterator
; 395  : 		return (_Unchecked_type(this->_Ptr, (_Mytree *)this->_Getcont()));
; 396  : 		}
; 397  : 
; 398  : 	reference operator*() const
; 399  : 		{	// return designated value
; 400  : 		return ((reference)**(_Mybase *)this);
; 401  : 		}
; 402  : 
; 403  : 	pointer operator->() const
; 404  : 		{	// return pointer to class object
; 405  : 		return (_STD pointer_traits<pointer>::pointer_to(**this));
; 406  : 		}
; 407  : 
; 408  : 	_Myiter& operator++()
; 409  : 		{	// preincrement
; 410  : 		++(*(_Mybase *)this);
; 411  : 		return (*this);
; 412  : 		}
; 413  : 
; 414  : 	_Myiter operator++(int)
; 415  : 		{	// postincrement
; 416  : 		_Myiter _Tmp = *this;
; 417  : 		++*this;
; 418  : 		return (_Tmp);
; 419  : 		}
; 420  : 
; 421  : 	_Myiter& operator--()
; 422  : 		{	// predecrement
; 423  : 		--(*(_Mybase *)this);
; 424  : 		return (*this);
; 425  : 		}
; 426  : 
; 427  : 	_Myiter operator--(int)
; 428  : 		{	// postdecrement
; 429  : 		_Myiter _Tmp = *this;
; 430  : 		--*this;
; 431  : 		return (_Tmp);
; 432  : 		}
; 433  : 	};
; 434  : 
; 435  : template<class _Mytree> inline
; 436  : 	typename _Tree_iterator<_Mytree>::_Unchecked_type
; 437  : 		_Unchecked(_Tree_iterator<_Mytree> _Iter)
; 438  : 	{	// convert to unchecked
; 439  : 	return (_Iter._Unchecked());
; 440  : 	}
; 441  : 
; 442  : template<class _Mytree> inline
; 443  : 	_Tree_iterator<_Mytree>&
; 444  : 		_Rechecked(_Tree_iterator<_Mytree>& _Iter,
; 445  : 			typename _Tree_iterator<_Mytree>
; 446  : 				::_Unchecked_type _Right)
; 447  : 	{	// convert to checked
; 448  : 	return (_Iter._Rechecked(_Right));
; 449  : 	}
; 450  : 
; 451  : 		// tree TYPE WRAPPERS
; 452  : template<class _Value_type,
; 453  : 	class _Size_type,
; 454  : 	class _Difference_type,
; 455  : 	class _Pointer,
; 456  : 	class _Const_pointer,
; 457  : 	class _Reference,
; 458  : 	class _Const_reference,
; 459  : 	class _Nodeptr_type>
; 460  : 	struct _Tree_iter_types
; 461  : 	{	// wraps types needed by iterators
; 462  : 	typedef _Value_type value_type;
; 463  : 	typedef _Size_type size_type;
; 464  : 	typedef _Difference_type difference_type;
; 465  : 	typedef _Pointer pointer;
; 466  : 	typedef _Const_pointer const_pointer;
; 467  : 	typedef _Reference reference;
; 468  : 	typedef _Const_reference const_reference;
; 469  : 	typedef _Nodeptr_type _Nodeptr;
; 470  : 	};
; 471  : 
; 472  : template<class _Value_type,
; 473  : 	class _Voidptr>
; 474  : 	struct _Tree_node
; 475  : 		{	// tree node
; 476  : 		_Voidptr _Left;	// left subtree, or smallest element if head
; 477  : 		_Voidptr _Parent;	// parent, or root of tree if head
; 478  : 		_Voidptr _Right;	// right subtree, or largest element if head
; 479  : 		char _Color;	// _Red or _Black, _Black if head
; 480  : 		char _Isnil;	// true only if head (also nil) node
; 481  : 		_Value_type _Myval;	// the stored value, unused if head
; 482  : 
; 483  : 	private:
; 484  : 		_Tree_node& operator=(const _Tree_node&);
; 485  : 		};
; 486  : 
; 487  : template<class _Value_type>
; 488  : 	struct _Tree_node<_Value_type, void *>
; 489  : 		{	// tree node
; 490  : 		typedef _Tree_node<_Value_type, void *> *_Nodeptr;
; 491  : 		_Nodeptr _Left;	// left subtree, or smallest element if head
; 492  : 		_Nodeptr _Parent;	// parent, or root of tree if head
; 493  : 		_Nodeptr _Right;	// right subtree, or largest element if head
; 494  : 		char _Color;	// _Red or _Black, _Black if head
; 495  : 		char _Isnil;	// true only if head (also nil) node
; 496  : 		_Value_type _Myval;	// the stored value, unused if head
; 497  : 
; 498  : 	private:
; 499  : 		_Tree_node& operator=(const _Tree_node&);
; 500  : 		};
; 501  : 
; 502  : template<class _Ty>
; 503  : 	struct _Tree_simple_types
; 504  : 		: public _Simple_types<_Ty>
; 505  : 	{	// wraps types needed by iterators
; 506  : 	typedef _Tree_node<_Ty, void *> _Node;
; 507  : 	typedef _Node *_Nodeptr;
; 508  : 	};
; 509  : 
; 510  : template<class _Ty,
; 511  : 	class _Alloc0>
; 512  : 	struct _Tree_base_types
; 513  : 	{	// types needed for a container base
; 514  : 	typedef _Alloc0 _Alloc;
; 515  : 	typedef _Tree_base_types<_Ty, _Alloc> _Myt;
; 516  : 
; 517  : 	typedef _Wrap_alloc<_Alloc> _Alty0;
; 518  : 	typedef typename _Alty0::template rebind<_Ty>::other _Alty;
; 519  : 
; 520  : 
; 521  : 	typedef typename _Get_voidptr<_Alty, typename _Alty::pointer>::type
; 522  : 		_Voidptr;
; 523  : 	typedef _Tree_node<typename _Alty::value_type,
; 524  : 		_Voidptr> _Node;
; 525  : 
; 526  : 	typedef typename _Alty::template rebind<_Node>::other _Alnod_type;
; 527  : 	typedef typename _Alnod_type::pointer _Nodeptr;
; 528  : 	typedef _Nodeptr& _Nodepref;
; 529  : 
; 530  : 	typedef typename _If<_Is_simple_alloc<_Alty>::value,
; 531  : 		_Tree_simple_types<typename _Alty::value_type>,
; 532  : 		_Tree_iter_types<typename _Alty::value_type,
; 533  : 			typename _Alty::size_type,
; 534  : 			typename _Alty::difference_type,
; 535  : 			typename _Alty::pointer,
; 536  : 			typename _Alty::const_pointer,
; 537  : 			typename _Alty::reference,
; 538  : 			typename _Alty::const_reference,
; 539  : 			_Nodeptr> >::type
; 540  : 		_Val_types;
; 541  : 	};
; 542  : 
; 543  : 		// TEMPLATE CLASS _Tree_val
; 544  : template<class _Val_types>
; 545  : 	class _Tree_val
; 546  : 		: public _Container_base
; 547  : 	{	// base class for tree to hold data
; 548  : public:
; 549  : 	typedef _Tree_val<_Val_types> _Myt;
; 550  : 
; 551  : 	typedef typename _Val_types::_Nodeptr _Nodeptr;
; 552  : 	typedef _Nodeptr& _Nodepref;
; 553  : 
; 554  : 	typedef typename _Val_types::value_type value_type;
; 555  : 	typedef typename _Val_types::size_type size_type;
; 556  : 	typedef typename _Val_types::difference_type difference_type;
; 557  : 	typedef typename _Val_types::pointer pointer;
; 558  : 	typedef typename _Val_types::const_pointer const_pointer;
; 559  : 	typedef typename _Val_types::reference reference;
; 560  : 	typedef typename _Val_types::const_reference const_reference;
; 561  : 
; 562  : 	typedef _Tree_const_iterator<_Myt> const_iterator;
; 563  : 	typedef _Tree_iterator<_Myt> iterator;
; 564  : 
; 565  : 	_Tree_val()
; 566  : 		{	// initialize data
; 567  : 		this->_Myhead = 0;
; 568  : 		this->_Mysize = 0;
; 569  : 		}
; 570  : 
; 571  : 	enum _Redbl
; 572  : 		{	// colors for link to parent
; 573  : 		_Red, _Black};
; 574  : 
; 575  : 	static char& _Color(_Nodeptr _Pnode)
; 576  : 		{	// return reference to color in node
; 577  : 		return ((char&)_Pnode->_Color);
; 578  : 		}
; 579  : 
; 580  : 	static char& _Isnil(_Nodeptr _Pnode)
; 581  : 		{	// return reference to nil flag in node
; 582  : 		return ((char&)_Pnode->_Isnil);

  000a7	8b 42 08	 mov	 eax, DWORD PTR [edx+8]

; 2142 : 
; 2143 : 		if (!this->_Isnil(this->_Right(_Pnode)))

  000aa	80 78 0d 00	 cmp	 BYTE PTR [eax+13], 0
  000ae	75 03		 jne	 SHORT $LN376@Insert_at

; 2144 : 			this->_Parent(this->_Right(_Pnode)) = _Wherenode;

  000b0	89 48 04	 mov	 DWORD PTR [eax+4], ecx
$LN376@Insert_at:

; 2145 : 		this->_Parent(_Pnode) = this->_Parent(_Wherenode);

  000b3	8b 41 04	 mov	 eax, DWORD PTR [ecx+4]
  000b6	89 42 04	 mov	 DWORD PTR [edx+4], eax

; 588  : 		}
; 589  : 
; 590  : 	static _Nodepref _Parent(_Nodeptr _Pnode)
; 591  : 		{	// return reference to parent pointer in node
; 592  : 		return ((_Nodepref)_Pnode->_Parent);

  000b9	8b 07		 mov	 eax, DWORD PTR [edi]

; 2146 : 
; 2147 : 		if (_Wherenode == _Root())

  000bb	3b 48 04	 cmp	 ecx, DWORD PTR [eax+4]
  000be	75 0b		 jne	 SHORT $LN377@Insert_at

; 2148 : 			_Root() = _Pnode;

  000c0	89 50 04	 mov	 DWORD PTR [eax+4], edx

; 2153 : 
; 2154 : 		this->_Right(_Pnode) = _Wherenode;

  000c3	89 4a 08	 mov	 DWORD PTR [edx+8], ecx

; 1913 : 					}
; 1914 : 				}
; 1915 : 			else

  000c6	e9 94 00 00 00	 jmp	 $LN728@Insert_at
$LN377@Insert_at:

; 593  : 		}
; 594  : 
; 595  : 	static _Nodepref _Right(_Nodeptr _Pnode)
; 596  : 		{	// return reference to right pointer in node
; 597  : 		return ((_Nodepref)_Pnode->_Right);

  000cb	8b 41 04	 mov	 eax, DWORD PTR [ecx+4]

; 2149 : 		else if (_Wherenode == this->_Right(this->_Parent(_Wherenode)))

  000ce	3b 48 08	 cmp	 ecx, DWORD PTR [eax+8]
  000d1	75 0b		 jne	 SHORT $LN379@Insert_at

; 2150 : 			this->_Right(this->_Parent(_Wherenode)) = _Pnode;

  000d3	89 50 08	 mov	 DWORD PTR [eax+8], edx

; 2153 : 
; 2154 : 		this->_Right(_Pnode) = _Wherenode;

  000d6	89 4a 08	 mov	 DWORD PTR [edx+8], ecx

; 1913 : 					}
; 1914 : 				}
; 1915 : 			else

  000d9	e9 81 00 00 00	 jmp	 $LN728@Insert_at
$LN379@Insert_at:

; 2151 : 		else
; 2152 : 			this->_Left(this->_Parent(_Wherenode)) = _Pnode;

  000de	89 10		 mov	 DWORD PTR [eax], edx

; 2153 : 
; 2154 : 		this->_Right(_Pnode) = _Wherenode;

  000e0	89 4a 08	 mov	 DWORD PTR [edx+8], ecx

; 1913 : 					}
; 1914 : 				}
; 1915 : 			else

  000e3	eb 7a		 jmp	 SHORT $LN728@Insert_at
$LN12@Insert_at:

; 1916 : 				{	// fixup red-red in right subtree
; 1917 : 				_Wherenode =
; 1918 : 					this->_Left(this->_Parent(this->_Parent(_Pnode)));
; 1919 : 				if (this->_Color(_Wherenode) == this->_Red)

  000e5	80 79 0c 00	 cmp	 BYTE PTR [ecx+12], 0
  000e9	75 1a		 jne	 SHORT $LN17@Insert_at
$LN729@Insert_at:

; 1920 : 					{	// parent has two red children, blacken both
; 1921 : 					this->_Color(this->_Parent(_Pnode)) = this->_Black;

  000eb	c6 40 0c 01	 mov	 BYTE PTR [eax+12], 1

; 1922 : 					this->_Color(_Wherenode) = this->_Black;

  000ef	c6 41 0c 01	 mov	 BYTE PTR [ecx+12], 1

; 1923 : 					this->_Color(this->_Parent(this->_Parent(_Pnode))) =

  000f3	8b 46 04	 mov	 eax, DWORD PTR [esi+4]
  000f6	8b 40 04	 mov	 eax, DWORD PTR [eax+4]
  000f9	c6 40 0c 00	 mov	 BYTE PTR [eax+12], 0

; 1924 : 						this->_Red;
; 1925 : 					_Pnode = this->_Parent(this->_Parent(_Pnode));

  000fd	8b 46 04	 mov	 eax, DWORD PTR [esi+4]
  00100	8b 70 04	 mov	 esi, DWORD PTR [eax+4]

; 1926 : 					}
; 1927 : 				else

  00103	eb 5d		 jmp	 SHORT $LN18@Insert_at
$LN17@Insert_at:

; 1928 : 					{	// parent has red and black children
; 1929 : 					if (_Pnode == this->_Left(this->_Parent(_Pnode)))

  00105	3b 30		 cmp	 esi, DWORD PTR [eax]
  00107	75 0a		 jne	 SHORT $LN19@Insert_at

; 1930 : 						{	// rotate left child to right
; 1931 : 						_Pnode = this->_Parent(_Pnode);

  00109	8b f0		 mov	 esi, eax

; 1932 : 						_Rrotate(_Pnode);

  0010b	8b cf		 mov	 ecx, edi
  0010d	56		 push	 esi
  0010e	e8 00 00 00 00	 call	 ?_Rrotate@?$_Tree@V?$_Tmap_traits@HHU?$less@H@std@@V?$allocator@U?$pair@$$CBHH@std@@@2@$0A@@std@@@std@@IAEXPAU?$_Tree_node@U?$pair@$$CBHH@std@@PAX@2@@Z ; std::_Tree<std::_Tmap_traits<int,int,std::less<int>,std::allocator<std::pair<int const ,int> >,0> >::_Rrotate
$LN19@Insert_at:

; 1933 : 						}
; 1934 : 					this->_Color(this->_Parent(_Pnode)) =

  00113	8b 46 04	 mov	 eax, DWORD PTR [esi+4]
  00116	c6 40 0c 01	 mov	 BYTE PTR [eax+12], 1

; 1935 : 						this->_Black;	// propagate red up
; 1936 : 					this->_Color(this->_Parent(this->_Parent(_Pnode))) =

  0011a	8b 46 04	 mov	 eax, DWORD PTR [esi+4]
  0011d	8b 40 04	 mov	 eax, DWORD PTR [eax+4]
  00120	c6 40 0c 00	 mov	 BYTE PTR [eax+12], 0

; 1937 : 						this->_Red;
; 1938 : 					_Lrotate(this->_Parent(this->_Parent(_Pnode)));

  00124	8b 46 04	 mov	 eax, DWORD PTR [esi+4]
  00127	8b 48 04	 mov	 ecx, DWORD PTR [eax+4]

; 1945 : 
; 1946 : 	template<class _Moveit>
; 1947 : 		void _Copy(const _Myt& _Right, _Moveit _Movefl)
; 1948 : 		{	// copy or move entire tree from _Right
; 1949 : 		_Root() = _Copy_nodes(_Right._Root(), this->_Myhead(), _Movefl);
; 1950 : 		this->_Mysize() = _Right.size();
; 1951 : 		if (!this->_Isnil(_Root()))
; 1952 : 			{	// nonempty tree, look for new smallest and largest
; 1953 : 			_Lmost() = this->_Min(_Root());
; 1954 : 			_Rmost() = this->_Max(_Root());
; 1955 : 			}
; 1956 : 		else
; 1957 : 			{	// empty tree, just tidy head pointers
; 1958 : 			_Lmost() = this->_Myhead();
; 1959 : 			_Rmost() = this->_Myhead();
; 1960 : 			}
; 1961 : 		}
; 1962 : 
; 1963 : 	template<class _Ty,
; 1964 : 		class _Is_set>
; 1965 : 		_Nodeptr _Copy_or_move(_Ty& _Val, _Copy_tag, _Is_set)
; 1966 : 		{	// copy to new node
; 1967 : 		return (this->_Buynode(_Val));
; 1968 : 		}
; 1969 : 
; 1970 : 	template<class _Ty>
; 1971 : 		_Nodeptr _Copy_or_move(_Ty& _Val, _Move_tag, true_type)
; 1972 : 		{	// move to new node -- set
; 1973 : 		return (this->_Buynode(_STD move(_Val)));
; 1974 : 		}
; 1975 : 
; 1976 : 	template<class _Ty>
; 1977 : 		_Nodeptr _Copy_or_move(_Ty& _Val, _Move_tag, false_type)
; 1978 : 		{	// move to new node -- map
; 1979 : 		return (this->_Buynode(
; 1980 : 			_STD move(const_cast<key_type&>(_Val.first)),
; 1981 : 			_STD move(_Val.second)));
; 1982 : 		}
; 1983 : 
; 1984 : 	template<class _Moveit>
; 1985 : 		_Nodeptr _Copy_nodes(_Nodeptr _Rootnode, _Nodeptr _Wherenode,
; 1986 : 			_Moveit _Movefl)
; 1987 : 		{	// copy entire subtree, recursively
; 1988 : 		_Nodeptr _Newroot = this->_Myhead();	// point at nil node
; 1989 : 
; 1990 : 		if (!this->_Isnil(_Rootnode))
; 1991 : 			{	// copy or move a node, then any subtrees
; 1992 : 			typename is_same<key_type, value_type>::type _Is_set;
; 1993 : 			_Nodeptr _Pnode = _Copy_or_move(
; 1994 : 				this->_Myval(_Rootnode), _Movefl, _Is_set);
; 1995 : 			_Pnode->_Parent = _Wherenode;
; 1996 : 			_Pnode->_Color = this->_Color(_Rootnode);
; 1997 : 			if (this->_Isnil(_Newroot))
; 1998 : 				_Newroot = _Pnode;	// memorize new root
; 1999 : 
; 2000 : 			_TRY_BEGIN
; 2001 : 			this->_Left(_Pnode) =
; 2002 : 				_Copy_nodes(this->_Left(_Rootnode), _Pnode, _Movefl);
; 2003 : 			this->_Right(_Pnode) =
; 2004 : 				_Copy_nodes(this->_Right(_Rootnode), _Pnode, _Movefl);
; 2005 : 			_CATCH_ALL
; 2006 : 			_Erase(_Newroot);	// subtree copy failed, bail out
; 2007 : 			_RERAISE;
; 2008 : 			_CATCH_END
; 2009 : 			}
; 2010 : 
; 2011 : 		return (_Newroot);	// return newly constructed tree
; 2012 : 		}
; 2013 : 
; 2014 : 	template<class _Other>
; 2015 : 		_Paircc _Eqrange(const _Other& _Keyval) const
; 2016 : 		{	// find leftmost node not less than _Keyval
; 2017 : 		_Nodeptr _Pnode = _Root();
; 2018 : 		_Nodeptr _Lonode = this->_Myhead();	// end() if search fails
; 2019 : 		_Nodeptr _Hinode = this->_Myhead();	// end() if search fails
; 2020 : 
; 2021 : 		while (!this->_Isnil(_Pnode))
; 2022 : 			if (_DEBUG_LT_PRED(this->_Getcomp(), this->_Key(_Pnode), _Keyval))
; 2023 : 				_Pnode = this->_Right(_Pnode);	// descend right subtree
; 2024 : 			else
; 2025 : 				{	// _Pnode not less than _Keyval, remember it
; 2026 : 				if (this->_Isnil(_Hinode)
; 2027 : 						&& _DEBUG_LT_PRED(this->_Getcomp(), _Keyval,
; 2028 : 						this->_Key(_Pnode)))
; 2029 : 					_Hinode = _Pnode;	// _Pnode greater, remember it
; 2030 : 				_Lonode = _Pnode;
; 2031 : 				_Pnode = this->_Left(_Pnode);	// descend left subtree
; 2032 : 				}
; 2033 : 
; 2034 : 		_Pnode = this->_Isnil(_Hinode) ? _Root()
; 2035 : 			: this->_Left(_Hinode);	// continue scan for upper bound
; 2036 : 		while (!this->_Isnil(_Pnode))
; 2037 : 			if (_DEBUG_LT_PRED(this->_Getcomp(), _Keyval, this->_Key(_Pnode)))
; 2038 : 				{	// _Pnode greater than _Keyval, remember it
; 2039 : 				_Hinode = _Pnode;
; 2040 : 				_Pnode = this->_Left(_Pnode);	// descend left subtree
; 2041 : 				}
; 2042 : 			else
; 2043 : 				_Pnode = this->_Right(_Pnode);	// descend right subtree
; 2044 : 
; 2045 : 		const_iterator _First = const_iterator(_Lonode, &this->_Get_data());
; 2046 : 		const_iterator _Last = const_iterator(_Hinode, &this->_Get_data());
; 2047 : 		return (_Paircc(_First, _Last));
; 2048 : 		}
; 2049 : 
; 2050 : 	template<class _Other>
; 2051 : 		_Pairii _Eqrange(const _Other& _Keyval)
; 2052 : 		{	// find leftmost node not less than _Keyval
; 2053 : 		_Paircc _Ans(static_cast<const _Myt *>(this)->_Eqrange(_Keyval));
; 2054 : 		iterator _First = iterator(_Ans.first._Ptr, &this->_Get_data());
; 2055 : 		iterator _Last = iterator(_Ans.second._Ptr, &this->_Get_data());
; 2056 : 		return (_Pairii(_First, _Last));
; 2057 : 		}
; 2058 : 
; 2059 : 	void _Erase(_Nodeptr _Rootnode)
; 2060 : 		{	// free entire subtree, recursively
; 2061 : 		for (_Nodeptr _Pnode = _Rootnode;
; 2062 : 			!this->_Isnil(_Pnode); _Rootnode = _Pnode)
; 2063 : 			{	// free subtrees, then node
; 2064 : 			_Erase(this->_Right(_Pnode));
; 2065 : 			_Pnode = this->_Left(_Pnode);
; 2066 : 			this->_Getal().destroy(
; 2067 : 				_STD addressof(this->_Myval(_Rootnode)));
; 2068 : 
; 2069 : 			this->_Getal().deallocate(_Rootnode, 1);
; 2070 : 			}
; 2071 : 		}
; 2072 : 
; 2073 : 	bool _Compare(const key_type& _Left, const key_type& _Right) const
; 2074 : 		{	// compare key_type to key_type, with debug checks
; 2075 : 		return (_DEBUG_LT_PRED(this->_Getcomp(), _Left, _Right));
; 2076 : 		}
; 2077 : 
; 2078 : 	template<class _Ty1,
; 2079 : 		class _Ty2>
; 2080 : 		bool _Compare(const _Ty1& _Left, const _Ty2& _Right) const
; 2081 : 		{	// compare _Ty1 to _Ty2, without debug checks
; 2082 : 		return (this->_Getcomp()(_Left, _Right));
; 2083 : 		}
; 2084 : 
; 2085 : 	template<class _Other>
; 2086 : 		_Nodeptr _Lbound(const _Other& _Keyval) const
; 2087 : 		{	// find leftmost node not less than _Keyval
; 2088 : 		_Nodeptr _Pnode = _Root();
; 2089 : 		_Nodeptr _Wherenode = this->_Myhead();	// end() if search fails
; 2090 : 
; 2091 : 		while (!this->_Isnil(_Pnode))
; 2092 : 			if (_Compare(this->_Key(_Pnode), _Keyval))
; 2093 : 				_Pnode = this->_Right(_Pnode);	// descend right subtree
; 2094 : 			else
; 2095 : 				{	// _Pnode not less than _Keyval, remember it
; 2096 : 				_Wherenode = _Pnode;
; 2097 : 				_Pnode = this->_Left(_Pnode);	// descend left subtree
; 2098 : 				}
; 2099 : 
; 2100 : 		return (_Wherenode);	// return best remembered candidate
; 2101 : 		}
; 2102 : 
; 2103 : 	_Nodeptr& _Lmost() const
; 2104 : 		{	// return leftmost node in nonmutable tree
; 2105 : 		return (this->_Left(this->_Myhead()));
; 2106 : 		}
; 2107 : 
; 2108 : 	void _Lrotate(_Nodeptr _Wherenode)
; 2109 : 		{	// promote right node to root of subtree
; 2110 : 		_Nodeptr _Pnode = this->_Right(_Wherenode);

  0012a	8b 51 08	 mov	 edx, DWORD PTR [ecx+8]

; 2111 : 		this->_Right(_Wherenode) = this->_Left(_Pnode);

  0012d	8b 02		 mov	 eax, DWORD PTR [edx]
  0012f	89 41 08	 mov	 DWORD PTR [ecx+8], eax

; 44   : 		{	// construct with node pointer _Pnode
; 45   : 		this->_Adopt(_Plist);
; 46   : 		}
; 47   : 
; 48   : 	reference operator*() const
; 49   : 		{	// return designated value
; 50   : 		return (_Mytree::_Myval(_Ptr));
; 51   : 		}
; 52   : 
; 53   : 	pointer operator->() const
; 54   : 		{	// return pointer to class object
; 55   : 		return (_STD pointer_traits<pointer>::pointer_to(**this));
; 56   : 		}
; 57   : 
; 58   : 	_Myiter& operator++()
; 59   : 		{	// preincrement
; 60   : 		if (_Mytree::_Isnil(_Ptr))
; 61   : 			;	// end() shouldn't be incremented, don't move
; 62   : 		else if (!_Mytree::_Isnil(_Mytree::_Right(_Ptr)))
; 63   : 			_Ptr = _Mytree::_Min(
; 64   : 				_Mytree::_Right(_Ptr));	// ==> smallest of right subtree
; 65   : 		else
; 66   : 			{	// climb looking for right subtree
; 67   : 			_Nodeptr _Pnode;
; 68   : 			while (!_Mytree::_Isnil(_Pnode = _Mytree::_Parent(_Ptr))
; 69   : 				&& _Ptr == _Mytree::_Right(_Pnode))
; 70   : 				_Ptr = _Pnode;	// ==> parent while right subtree
; 71   : 			_Ptr = _Pnode;	// ==> parent (head if end())
; 72   : 			}
; 73   : 		return (*this);
; 74   : 		}
; 75   : 
; 76   : 	_Myiter operator++(int)
; 77   : 		{	// postincrement
; 78   : 		_Myiter _Tmp = *this;
; 79   : 		++*this;
; 80   : 		return (_Tmp);
; 81   : 		}
; 82   : 
; 83   : 	_Myiter& operator--()
; 84   : 		{	// predecrement
; 85   : 		if (_Mytree::_Isnil(_Ptr))
; 86   : 			_Ptr = _Mytree::_Right(_Ptr);	// end() ==> rightmost
; 87   : 		else if (!_Mytree::_Isnil(_Mytree::_Left(_Ptr)))
; 88   : 			_Ptr = _Mytree::_Max(
; 89   : 				_Mytree::_Left(_Ptr));	// ==> largest of left subtree
; 90   : 		else
; 91   : 			{	// climb looking for left subtree
; 92   : 			_Nodeptr _Pnode;
; 93   : 			while (!_Mytree::_Isnil(_Pnode = _Mytree::_Parent(_Ptr))
; 94   : 				&& _Ptr == _Mytree::_Left(_Pnode))
; 95   : 				_Ptr = _Pnode;	// ==> parent while left subtree
; 96   : 			if (_Mytree::_Isnil(_Ptr))
; 97   : 				;	// begin() shouldn't be decremented, don't move
; 98   : 			else
; 99   : 				_Ptr = _Pnode;	// ==> parent if not head
; 100  : 			}
; 101  : 		return (*this);
; 102  : 		}
; 103  : 
; 104  : 	_Myiter operator--(int)
; 105  : 		{	// postdecrement
; 106  : 		_Myiter _Tmp = *this;
; 107  : 		--*this;
; 108  : 		return (_Tmp);
; 109  : 		}
; 110  : 
; 111  : 	bool operator==(const _Myiter& _Right) const
; 112  : 		{	// test for iterator equality
; 113  : 		return (_Ptr == _Right._Ptr);
; 114  : 		}
; 115  : 
; 116  : 	bool operator!=(const _Myiter& _Right) const
; 117  : 		{	// test for iterator inequality
; 118  : 		return (!(*this == _Right));
; 119  : 		}
; 120  : 
; 121  : 	_Nodeptr _Mynode() const
; 122  : 		{	// return node pointer
; 123  : 		return (_Ptr);
; 124  : 		}
; 125  : 
; 126  : 	_Nodeptr _Ptr;	// pointer to node
; 127  : 	};
; 128  : 
; 129  : 	// TEMPLATE CLASS _Tree_unchecked_iterator
; 130  : template<class _Mytree>
; 131  : 	class _Tree_unchecked_iterator
; 132  : 		: public _Tree_unchecked_const_iterator<_Mytree>
; 133  : 	{	// unchecked iterator for mutable tree
; 134  : public:
; 135  : 	typedef _Tree_unchecked_iterator<_Mytree> _Myiter;
; 136  : 	typedef _Tree_unchecked_const_iterator<_Mytree> _Mybase;
; 137  : 	typedef bidirectional_iterator_tag iterator_category;
; 138  : 
; 139  : 	typedef typename _Mytree::_Nodeptr _Nodeptr;
; 140  : 	typedef typename _Mytree::value_type value_type;
; 141  : 	typedef typename _Mytree::difference_type difference_type;
; 142  : 	typedef typename _Mytree::pointer pointer;
; 143  : 	typedef typename _Mytree::reference reference;
; 144  : 
; 145  : 	_Tree_unchecked_iterator()
; 146  : 		{	// construct with null node
; 147  : 		}
; 148  : 
; 149  : 	_Tree_unchecked_iterator(_Nodeptr _Pnode, const _Mytree *_Plist)
; 150  : 		: _Mybase(_Pnode, _Plist)
; 151  : 		{	// construct with node pointer _Pnode
; 152  : 		}
; 153  : 
; 154  : 	reference operator*() const
; 155  : 		{	// return designated value
; 156  : 		return ((reference)**(_Mybase *)this);
; 157  : 		}
; 158  : 
; 159  : 	pointer operator->() const
; 160  : 		{	// return pointer to class object
; 161  : 		return (_STD pointer_traits<pointer>::pointer_to(**this));
; 162  : 		}
; 163  : 
; 164  : 	_Myiter& operator++()
; 165  : 		{	// preincrement
; 166  : 		++(*(_Mybase *)this);
; 167  : 		return (*this);
; 168  : 		}
; 169  : 
; 170  : 	_Myiter operator++(int)
; 171  : 		{	// postincrement
; 172  : 		_Myiter _Tmp = *this;
; 173  : 		++*this;
; 174  : 		return (_Tmp);
; 175  : 		}
; 176  : 
; 177  : 	_Myiter& operator--()
; 178  : 		{	// predecrement
; 179  : 		--(*(_Mybase *)this);
; 180  : 		return (*this);
; 181  : 		}
; 182  : 
; 183  : 	_Myiter operator--(int)
; 184  : 		{	// postdecrement
; 185  : 		_Myiter _Tmp = *this;
; 186  : 		--*this;
; 187  : 		return (_Tmp);
; 188  : 		}
; 189  : 	};
; 190  : 
; 191  : 	// TEMPLATE CLASS _Tree_const_iterator
; 192  : template<class _Mytree>
; 193  : 	class _Tree_const_iterator
; 194  : 		: public _Tree_unchecked_const_iterator<_Mytree, _Iterator_base>
; 195  : 	{	// iterator for nonmutable tree
; 196  : public:
; 197  : 	typedef _Tree_const_iterator<_Mytree> _Myiter;
; 198  : 	typedef _Tree_unchecked_const_iterator<_Mytree, _Iterator_base> _Mybase;
; 199  : 	typedef bidirectional_iterator_tag iterator_category;
; 200  : 
; 201  : 	typedef typename _Mytree::_Nodeptr _Nodeptr;
; 202  : 	typedef typename _Mytree::value_type value_type;
; 203  : 	typedef typename _Mytree::difference_type difference_type;
; 204  : 	typedef typename _Mytree::const_pointer pointer;
; 205  : 	typedef typename _Mytree::const_reference reference;
; 206  : 
; 207  : 	_Tree_const_iterator()
; 208  : 		: _Mybase()
; 209  : 		{	// construct with null node pointer
; 210  : 		}
; 211  : 
; 212  : 	_Tree_const_iterator(_Nodeptr _Pnode, const _Mytree *_Plist)
; 213  : 		: _Mybase(_Pnode, _Plist)
; 214  : 		{	// construct with node pointer _Pnode
; 215  : 		}
; 216  : 
; 217  : 	typedef _Tree_unchecked_const_iterator<_Mytree> _Unchecked_type;
; 218  : 
; 219  : 	_Myiter& _Rechecked(_Unchecked_type _Right)
; 220  : 		{	// reset from unchecked iterator
; 221  : 		this->_Ptr = _Right._Ptr;
; 222  : 		return (*this);
; 223  : 		}
; 224  : 
; 225  : 	_Unchecked_type _Unchecked() const
; 226  : 		{	// make an unchecked iterator
; 227  : 		return (_Unchecked_type(this->_Ptr, (_Mytree *)this->_Getcont()));
; 228  : 		}
; 229  : 
; 230  : 	reference operator*() const
; 231  : 		{	// return designated value
; 232  :  #if _ITERATOR_DEBUG_LEVEL == 2
; 233  : 		if (this->_Getcont() == 0
; 234  : 			|| this->_Ptr == 0
; 235  : 			|| this->_Ptr == ((_Mytree *)this->_Getcont())->_Myhead)
; 236  : 			{	// report error
; 237  : 			_DEBUG_ERROR("map/set iterator not dereferencable");
; 238  : 			_SCL_SECURE_OUT_OF_RANGE;
; 239  : 			}
; 240  : 
; 241  :  #elif _ITERATOR_DEBUG_LEVEL == 1
; 242  : 		_SCL_SECURE_VALIDATE(this->_Getcont() != 0 && this->_Ptr != 0);
; 243  : 		_SCL_SECURE_VALIDATE_RANGE(this->_Ptr !=
; 244  : 			((_Mytree *)this->_Getcont())->_Myhead);
; 245  :  #endif /* _ITERATOR_DEBUG_LEVEL */
; 246  : 
; 247  : 		return (_Mytree::_Myval(this->_Ptr));
; 248  : 		}
; 249  : 
; 250  : 	pointer operator->() const
; 251  : 		{	// return pointer to class object
; 252  : 		return (_STD pointer_traits<pointer>::pointer_to(**this));
; 253  : 		}
; 254  : 
; 255  : 	_Myiter& operator++()
; 256  : 		{	// preincrement
; 257  :  #if _ITERATOR_DEBUG_LEVEL == 2
; 258  : 		if (this->_Getcont() == 0
; 259  : 			|| this->_Ptr == 0
; 260  : 			|| _Mytree::_Isnil(this->_Ptr))
; 261  : 			{	// report error
; 262  : 			_DEBUG_ERROR("map/set iterator not incrementable");
; 263  : 			_SCL_SECURE_OUT_OF_RANGE;
; 264  : 			}
; 265  : 
; 266  :  #elif _ITERATOR_DEBUG_LEVEL == 1
; 267  : 		_SCL_SECURE_VALIDATE(this->_Getcont() != 0 && this->_Ptr != 0);
; 268  : 		_SCL_SECURE_VALIDATE_RANGE(!_Mytree::_Isnil(this->_Ptr));
; 269  :  #endif /* _ITERATOR_DEBUG_LEVEL */
; 270  : 
; 271  : 		++(*(_Mybase *)this);
; 272  : 		return (*this);
; 273  : 		}
; 274  : 
; 275  : 	_Myiter operator++(int)
; 276  : 		{	// postincrement
; 277  : 		_Myiter _Tmp = *this;
; 278  : 		++*this;
; 279  : 		return (_Tmp);
; 280  : 		}
; 281  : 
; 282  : 	_Myiter& operator--()
; 283  : 		{	// predecrement
; 284  :  #if _ITERATOR_DEBUG_LEVEL == 2
; 285  : 		if (this->_Getcont() == 0
; 286  : 			|| this->_Ptr == 0)
; 287  : 			{	// report error
; 288  : 			_DEBUG_ERROR("map/set iterator not decrementable");
; 289  : 			_SCL_SECURE_OUT_OF_RANGE;
; 290  : 			}
; 291  : 
; 292  : 		_Nodeptr _Ptrsav = this->_Ptr;
; 293  : 		--(*(_Mybase *)this);
; 294  : 		if (_Ptrsav == this->_Ptr)
; 295  : 			{	// report error
; 296  : 			_DEBUG_ERROR("map/set iterator not decrementable");
; 297  : 			_SCL_SECURE_OUT_OF_RANGE;
; 298  : 			}
; 299  : 
; 300  :  #elif _ITERATOR_DEBUG_LEVEL == 1
; 301  : 		_SCL_SECURE_VALIDATE(this->_Getcont() != 0 && this->_Ptr != 0);
; 302  : 
; 303  : 		_Nodeptr _Ptrsav = this->_Ptr;
; 304  : 		--(*(_Mybase *)this);
; 305  : 		_SCL_SECURE_VALIDATE(_Ptrsav != this->_Ptr);
; 306  : 
; 307  :  #else /* _ITERATOR_DEBUG_LEVEL == 0 */
; 308  : 		--(*(_Mybase *)this);
; 309  :  #endif /* _ITERATOR_DEBUG_LEVEL */
; 310  : 
; 311  : 		return (*this);
; 312  : 		}
; 313  : 
; 314  : 	_Myiter operator--(int)
; 315  : 		{	// postdecrement
; 316  : 		_Myiter _Tmp = *this;
; 317  : 		--*this;
; 318  : 		return (_Tmp);
; 319  : 		}
; 320  : 
; 321  : 	bool operator==(const _Myiter& _Right) const
; 322  : 		{	// test for iterator equality
; 323  :  #if _ITERATOR_DEBUG_LEVEL == 2
; 324  : 		if (this->_Getcont() != _Right._Getcont())
; 325  : 			{	// report error
; 326  : 			_DEBUG_ERROR("map/set iterators incompatible");
; 327  : 			_SCL_SECURE_INVALID_ARGUMENT;
; 328  : 			}
; 329  : 
; 330  :  #elif _ITERATOR_DEBUG_LEVEL == 1
; 331  : 		_SCL_SECURE_VALIDATE(this->_Getcont() == _Right._Getcont());
; 332  :  #endif /* _ITERATOR_DEBUG_LEVEL */
; 333  : 
; 334  : 		return (this->_Ptr == _Right._Ptr);
; 335  : 		}
; 336  : 
; 337  : 	bool operator!=(const _Myiter& _Right) const
; 338  : 		{	// test for iterator inequality
; 339  : 		return (!(*this == _Right));
; 340  : 		}
; 341  : 	};
; 342  : 
; 343  : template<class _Mytree> inline
; 344  : 	typename _Tree_const_iterator<_Mytree>::_Unchecked_type
; 345  : 		_Unchecked(_Tree_const_iterator<_Mytree> _Iter)
; 346  : 	{	// convert to unchecked
; 347  : 	return (_Iter._Unchecked());
; 348  : 	}
; 349  : 
; 350  : template<class _Mytree> inline
; 351  : 	_Tree_const_iterator<_Mytree>&
; 352  : 		_Rechecked(_Tree_const_iterator<_Mytree>& _Iter,
; 353  : 			typename _Tree_const_iterator<_Mytree>
; 354  : 				::_Unchecked_type _Right)
; 355  : 	{	// convert to checked
; 356  : 	return (_Iter._Rechecked(_Right));
; 357  : 	}
; 358  : 
; 359  : 	// TEMPLATE CLASS _Tree_iterator
; 360  : template<class _Mytree>
; 361  : 	class _Tree_iterator
; 362  : 		: public _Tree_const_iterator<_Mytree>
; 363  : 	{	// iterator for mutable tree
; 364  : public:
; 365  : 	typedef _Tree_iterator<_Mytree> _Myiter;
; 366  : 	typedef _Tree_const_iterator<_Mytree> _Mybase;
; 367  : 	typedef bidirectional_iterator_tag iterator_category;
; 368  : 
; 369  : 	typedef typename _Mytree::_Nodeptr _Nodeptr;
; 370  : 	typedef typename _Mytree::value_type value_type;
; 371  : 	typedef typename _Mytree::difference_type difference_type;
; 372  : 
; 373  : 	typedef typename _Mytree::pointer pointer;
; 374  : 	typedef typename _Mytree::reference reference;
; 375  : 
; 376  : 	_Tree_iterator()
; 377  : 		{	// construct with null node
; 378  : 		}
; 379  : 
; 380  : 	_Tree_iterator(_Nodeptr _Pnode, const _Mytree *_Plist)
; 381  : 		: _Mybase(_Pnode, _Plist)
; 382  : 		{	// construct with node pointer _Pnode
; 383  : 		}
; 384  : 
; 385  : 	typedef _Tree_unchecked_iterator<_Mytree> _Unchecked_type;
; 386  : 
; 387  : 	_Myiter& _Rechecked(_Unchecked_type _Right)
; 388  : 		{	// reset from unchecked iterator
; 389  : 		this->_Ptr = _Right._Ptr;
; 390  : 		return (*this);
; 391  : 		}
; 392  : 
; 393  : 	_Unchecked_type _Unchecked() const
; 394  : 		{	// make an unchecked iterator
; 395  : 		return (_Unchecked_type(this->_Ptr, (_Mytree *)this->_Getcont()));
; 396  : 		}
; 397  : 
; 398  : 	reference operator*() const
; 399  : 		{	// return designated value
; 400  : 		return ((reference)**(_Mybase *)this);
; 401  : 		}
; 402  : 
; 403  : 	pointer operator->() const
; 404  : 		{	// return pointer to class object
; 405  : 		return (_STD pointer_traits<pointer>::pointer_to(**this));
; 406  : 		}
; 407  : 
; 408  : 	_Myiter& operator++()
; 409  : 		{	// preincrement
; 410  : 		++(*(_Mybase *)this);
; 411  : 		return (*this);
; 412  : 		}
; 413  : 
; 414  : 	_Myiter operator++(int)
; 415  : 		{	// postincrement
; 416  : 		_Myiter _Tmp = *this;
; 417  : 		++*this;
; 418  : 		return (_Tmp);
; 419  : 		}
; 420  : 
; 421  : 	_Myiter& operator--()
; 422  : 		{	// predecrement
; 423  : 		--(*(_Mybase *)this);
; 424  : 		return (*this);
; 425  : 		}
; 426  : 
; 427  : 	_Myiter operator--(int)
; 428  : 		{	// postdecrement
; 429  : 		_Myiter _Tmp = *this;
; 430  : 		--*this;
; 431  : 		return (_Tmp);
; 432  : 		}
; 433  : 	};
; 434  : 
; 435  : template<class _Mytree> inline
; 436  : 	typename _Tree_iterator<_Mytree>::_Unchecked_type
; 437  : 		_Unchecked(_Tree_iterator<_Mytree> _Iter)
; 438  : 	{	// convert to unchecked
; 439  : 	return (_Iter._Unchecked());
; 440  : 	}
; 441  : 
; 442  : template<class _Mytree> inline
; 443  : 	_Tree_iterator<_Mytree>&
; 444  : 		_Rechecked(_Tree_iterator<_Mytree>& _Iter,
; 445  : 			typename _Tree_iterator<_Mytree>
; 446  : 				::_Unchecked_type _Right)
; 447  : 	{	// convert to checked
; 448  : 	return (_Iter._Rechecked(_Right));
; 449  : 	}
; 450  : 
; 451  : 		// tree TYPE WRAPPERS
; 452  : template<class _Value_type,
; 453  : 	class _Size_type,
; 454  : 	class _Difference_type,
; 455  : 	class _Pointer,
; 456  : 	class _Const_pointer,
; 457  : 	class _Reference,
; 458  : 	class _Const_reference,
; 459  : 	class _Nodeptr_type>
; 460  : 	struct _Tree_iter_types
; 461  : 	{	// wraps types needed by iterators
; 462  : 	typedef _Value_type value_type;
; 463  : 	typedef _Size_type size_type;
; 464  : 	typedef _Difference_type difference_type;
; 465  : 	typedef _Pointer pointer;
; 466  : 	typedef _Const_pointer const_pointer;
; 467  : 	typedef _Reference reference;
; 468  : 	typedef _Const_reference const_reference;
; 469  : 	typedef _Nodeptr_type _Nodeptr;
; 470  : 	};
; 471  : 
; 472  : template<class _Value_type,
; 473  : 	class _Voidptr>
; 474  : 	struct _Tree_node
; 475  : 		{	// tree node
; 476  : 		_Voidptr _Left;	// left subtree, or smallest element if head
; 477  : 		_Voidptr _Parent;	// parent, or root of tree if head
; 478  : 		_Voidptr _Right;	// right subtree, or largest element if head
; 479  : 		char _Color;	// _Red or _Black, _Black if head
; 480  : 		char _Isnil;	// true only if head (also nil) node
; 481  : 		_Value_type _Myval;	// the stored value, unused if head
; 482  : 
; 483  : 	private:
; 484  : 		_Tree_node& operator=(const _Tree_node&);
; 485  : 		};
; 486  : 
; 487  : template<class _Value_type>
; 488  : 	struct _Tree_node<_Value_type, void *>
; 489  : 		{	// tree node
; 490  : 		typedef _Tree_node<_Value_type, void *> *_Nodeptr;
; 491  : 		_Nodeptr _Left;	// left subtree, or smallest element if head
; 492  : 		_Nodeptr _Parent;	// parent, or root of tree if head
; 493  : 		_Nodeptr _Right;	// right subtree, or largest element if head
; 494  : 		char _Color;	// _Red or _Black, _Black if head
; 495  : 		char _Isnil;	// true only if head (also nil) node
; 496  : 		_Value_type _Myval;	// the stored value, unused if head
; 497  : 
; 498  : 	private:
; 499  : 		_Tree_node& operator=(const _Tree_node&);
; 500  : 		};
; 501  : 
; 502  : template<class _Ty>
; 503  : 	struct _Tree_simple_types
; 504  : 		: public _Simple_types<_Ty>
; 505  : 	{	// wraps types needed by iterators
; 506  : 	typedef _Tree_node<_Ty, void *> _Node;
; 507  : 	typedef _Node *_Nodeptr;
; 508  : 	};
; 509  : 
; 510  : template<class _Ty,
; 511  : 	class _Alloc0>
; 512  : 	struct _Tree_base_types
; 513  : 	{	// types needed for a container base
; 514  : 	typedef _Alloc0 _Alloc;
; 515  : 	typedef _Tree_base_types<_Ty, _Alloc> _Myt;
; 516  : 
; 517  : 	typedef _Wrap_alloc<_Alloc> _Alty0;
; 518  : 	typedef typename _Alty0::template rebind<_Ty>::other _Alty;
; 519  : 
; 520  : 
; 521  : 	typedef typename _Get_voidptr<_Alty, typename _Alty::pointer>::type
; 522  : 		_Voidptr;
; 523  : 	typedef _Tree_node<typename _Alty::value_type,
; 524  : 		_Voidptr> _Node;
; 525  : 
; 526  : 	typedef typename _Alty::template rebind<_Node>::other _Alnod_type;
; 527  : 	typedef typename _Alnod_type::pointer _Nodeptr;
; 528  : 	typedef _Nodeptr& _Nodepref;
; 529  : 
; 530  : 	typedef typename _If<_Is_simple_alloc<_Alty>::value,
; 531  : 		_Tree_simple_types<typename _Alty::value_type>,
; 532  : 		_Tree_iter_types<typename _Alty::value_type,
; 533  : 			typename _Alty::size_type,
; 534  : 			typename _Alty::difference_type,
; 535  : 			typename _Alty::pointer,
; 536  : 			typename _Alty::const_pointer,
; 537  : 			typename _Alty::reference,
; 538  : 			typename _Alty::const_reference,
; 539  : 			_Nodeptr> >::type
; 540  : 		_Val_types;
; 541  : 	};
; 542  : 
; 543  : 		// TEMPLATE CLASS _Tree_val
; 544  : template<class _Val_types>
; 545  : 	class _Tree_val
; 546  : 		: public _Container_base
; 547  : 	{	// base class for tree to hold data
; 548  : public:
; 549  : 	typedef _Tree_val<_Val_types> _Myt;
; 550  : 
; 551  : 	typedef typename _Val_types::_Nodeptr _Nodeptr;
; 552  : 	typedef _Nodeptr& _Nodepref;
; 553  : 
; 554  : 	typedef typename _Val_types::value_type value_type;
; 555  : 	typedef typename _Val_types::size_type size_type;
; 556  : 	typedef typename _Val_types::difference_type difference_type;
; 557  : 	typedef typename _Val_types::pointer pointer;
; 558  : 	typedef typename _Val_types::const_pointer const_pointer;
; 559  : 	typedef typename _Val_types::reference reference;
; 560  : 	typedef typename _Val_types::const_reference const_reference;
; 561  : 
; 562  : 	typedef _Tree_const_iterator<_Myt> const_iterator;
; 563  : 	typedef _Tree_iterator<_Myt> iterator;
; 564  : 
; 565  : 	_Tree_val()
; 566  : 		{	// initialize data
; 567  : 		this->_Myhead = 0;
; 568  : 		this->_Mysize = 0;
; 569  : 		}
; 570  : 
; 571  : 	enum _Redbl
; 572  : 		{	// colors for link to parent
; 573  : 		_Red, _Black};
; 574  : 
; 575  : 	static char& _Color(_Nodeptr _Pnode)
; 576  : 		{	// return reference to color in node
; 577  : 		return ((char&)_Pnode->_Color);
; 578  : 		}
; 579  : 
; 580  : 	static char& _Isnil(_Nodeptr _Pnode)
; 581  : 		{	// return reference to nil flag in node
; 582  : 		return ((char&)_Pnode->_Isnil);

  00132	8b 02		 mov	 eax, DWORD PTR [edx]

; 2112 : 
; 2113 : 		if (!this->_Isnil(this->_Left(_Pnode)))

  00134	80 78 0d 00	 cmp	 BYTE PTR [eax+13], 0
  00138	75 03		 jne	 SHORT $LN575@Insert_at

; 2114 : 			this->_Parent(this->_Left(_Pnode)) = _Wherenode;

  0013a	89 48 04	 mov	 DWORD PTR [eax+4], ecx
$LN575@Insert_at:

; 2115 : 		this->_Parent(_Pnode) = this->_Parent(_Wherenode);

  0013d	8b 41 04	 mov	 eax, DWORD PTR [ecx+4]
  00140	89 42 04	 mov	 DWORD PTR [edx+4], eax

; 588  : 		}
; 589  : 
; 590  : 	static _Nodepref _Parent(_Nodeptr _Pnode)
; 591  : 		{	// return reference to parent pointer in node
; 592  : 		return ((_Nodepref)_Pnode->_Parent);

  00143	8b 07		 mov	 eax, DWORD PTR [edi]

; 2116 : 
; 2117 : 		if (_Wherenode == _Root())

  00145	3b 48 04	 cmp	 ecx, DWORD PTR [eax+4]
  00148	75 05		 jne	 SHORT $LN576@Insert_at

; 2118 : 			_Root() = _Pnode;

  0014a	89 50 04	 mov	 DWORD PTR [eax+4], edx

; 2119 : 		else if (_Wherenode == this->_Left(this->_Parent(_Wherenode)))

  0014d	eb 0e		 jmp	 SHORT $LN579@Insert_at
$LN576@Insert_at:

; 583  : 		}
; 584  : 
; 585  : 	static _Nodepref _Left(_Nodeptr _Pnode)
; 586  : 		{	// return reference to left pointer in node
; 587  : 		return ((_Nodepref)_Pnode->_Left);

  0014f	8b 41 04	 mov	 eax, DWORD PTR [ecx+4]

; 2119 : 		else if (_Wherenode == this->_Left(this->_Parent(_Wherenode)))

  00152	3b 08		 cmp	 ecx, DWORD PTR [eax]
  00154	75 04		 jne	 SHORT $LN578@Insert_at

; 2120 : 			this->_Left(this->_Parent(_Wherenode)) = _Pnode;

  00156	89 10		 mov	 DWORD PTR [eax], edx

; 2121 : 		else

  00158	eb 03		 jmp	 SHORT $LN579@Insert_at
$LN578@Insert_at:

; 2122 : 			this->_Right(this->_Parent(_Wherenode)) = _Pnode;

  0015a	89 50 08	 mov	 DWORD PTR [eax+8], edx
$LN579@Insert_at:

; 2123 : 
; 2124 : 		this->_Left(_Pnode) = _Wherenode;

  0015d	89 0a		 mov	 DWORD PTR [edx], ecx
$LN728@Insert_at:

; 2125 : 		this->_Parent(_Wherenode) = _Pnode;

  0015f	89 51 04	 mov	 DWORD PTR [ecx+4], edx
$LN18@Insert_at:

; 1884 : 			}
; 1885 : 
; 1886 : 		for (_Nodeptr _Pnode = _Newnode;
; 1887 : 			this->_Color(this->_Parent(_Pnode)) == this->_Red; )

  00162	8b 46 04	 mov	 eax, DWORD PTR [esi+4]
  00165	80 78 0c 00	 cmp	 BYTE PTR [eax+12], 0
  00169	0f 84 f6 fe ff
	ff		 je	 $LL2@Insert_at
$LN3@Insert_at:

; 1939 : 					}
; 1940 : 				}
; 1941 : 
; 1942 : 		this->_Color(_Root()) = this->_Black;	// root is always black

  0016f	8b 07		 mov	 eax, DWORD PTR [edi]
  00171	5f		 pop	 edi
  00172	5e		 pop	 esi
  00173	8b 40 04	 mov	 eax, DWORD PTR [eax+4]
  00176	c6 40 0c 01	 mov	 BYTE PTR [eax+12], 1

; 43   : 		: _Ptr(_Pnode)

  0017a	8b 45 08	 mov	 eax, DWORD PTR ___$ReturnUdt$[ebp]
  0017d	89 18		 mov	 DWORD PTR [eax], ebx
  0017f	5b		 pop	 ebx

; 1943 : 		return (iterator(_Newnode, &this->_Get_data()));
; 1944 : 		}

  00180	5d		 pop	 ebp
  00181	c2 14 00	 ret	 20			; 00000014H
$LN730@Insert_at:
; File c:\program files (x86)\microsoft visual studio 14.0\vc\include\xmemory0

; 138  : 	::operator delete(_Ptr);

  00184	ff 75 18	 push	 DWORD PTR __Node$[ebp]
  00187	e8 00 00 00 00	 call	 ??3@YAXPAX@Z		; operator delete
  0018c	83 c4 04	 add	 esp, 4
; File c:\program files (x86)\microsoft visual studio 14.0\vc\include\xtree

; 1859 : 			_Xlength_error("map/set<T> too long");

  0018f	68 00 00 00 00	 push	 OFFSET ??_C@_0BE@JONHPENG@map?1set?$DMT?$DO?5too?5long?$AA@
  00194	e8 00 00 00 00	 call	 ?_Xlength_error@std@@YAXPBD@Z ; std::_Xlength_error
$LN732@Insert_at:
$LN727@Insert_at:
  00199	cc		 int	 3
??$_Insert_at@AAU?$pair@$$CBHH@std@@PAU?$_Tree_node@U?$pair@$$CBHH@std@@PAX@2@@?$_Tree@V?$_Tmap_traits@HHU?$less@H@std@@V?$allocator@U?$pair@$$CBHH@std@@@2@$0A@@std@@@std@@IAE?AV?$_Tree_iterator@V?$_Tree_val@U?$_Tree_simple_types@U?$pair@$$CBHH@std@@@std@@@std@@@1@_NPAU?$_Tree_node@U?$pair@$$CBHH@std@@PAX@1@AAU?$pair@$$CBHH@1@1@Z ENDP ; std::_Tree<std::_Tmap_traits<int,int,std::less<int>,std::allocator<std::pair<int const ,int> >,0> >::_Insert_at<std::pair<int const ,int> &,std::_Tree_node<std::pair<int const ,int>,void *> *>
_TEXT	ENDS
; Function compile flags: /Ogtp
; File c:\program files (x86)\microsoft visual studio 14.0\vc\include\type_traits
;	COMDAT ??$forward@AAU?$pair@$$CBHH@std@@@std@@YAAAU?$pair@$$CBHH@0@AAU10@@Z
_TEXT	SEGMENT
__Arg$ = 8						; size = 4
??$forward@AAU?$pair@$$CBHH@std@@@std@@YAAAU?$pair@$$CBHH@0@AAU10@@Z PROC ; std::forward<std::pair<int const ,int> &>, COMDAT

; 1233 : 	{	// forward an lvalue as either an lvalue or an rvalue

  00000	55		 push	 ebp
  00001	8b ec		 mov	 ebp, esp

; 1234 : 	return (static_cast<_Ty&&>(_Arg));

  00003	8b 45 08	 mov	 eax, DWORD PTR __Arg$[ebp]

; 1235 : 	}

  00006	5d		 pop	 ebp
  00007	c3		 ret	 0
??$forward@AAU?$pair@$$CBHH@std@@@std@@YAAAU?$pair@$$CBHH@0@AAU10@@Z ENDP ; std::forward<std::pair<int const ,int> &>
_TEXT	ENDS
; Function compile flags: /Ogtp
; File c:\program files (x86)\microsoft visual studio 14.0\vc\include\xmemory0
; File c:\users\michel\desktop\source\gameserver\source\trandompoolmgr.cpp
; File c:\program files (x86)\microsoft visual studio 14.0\vc\include\tuple
; File c:\program files (x86)\microsoft visual studio 14.0\vc\include\xmemory0
;	COMDAT ??$construct@U?$pair@$$CBHH@std@@ABUpiecewise_construct_t@2@V?$tuple@ABH@2@V?$tuple@$$V@2@@?$_Wrap_alloc@V?$allocator@U?$_Tree_node@U?$pair@$$CBHH@std@@PAX@std@@@std@@@std@@QAEXPAU?$pair@$$CBHH@1@ABUpiecewise_construct_t@1@$$QAV?$tuple@ABH@1@$$QAV?$tuple@$$V@1@@Z
_TEXT	SEGMENT
__Ptr$ = 8						; size = 4
_<_Args_0>$ = 12					; size = 4
_<_Args_1>$ = 16					; size = 4
_<_Args_2>$ = 20					; size = 4
??$construct@U?$pair@$$CBHH@std@@ABUpiecewise_construct_t@2@V?$tuple@ABH@2@V?$tuple@$$V@2@@?$_Wrap_alloc@V?$allocator@U?$_Tree_node@U?$pair@$$CBHH@std@@PAX@std@@@std@@@std@@QAEXPAU?$pair@$$CBHH@1@ABUpiecewise_construct_t@1@$$QAV?$tuple@ABH@1@$$QAV?$tuple@$$V@1@@Z PROC ; std::_Wrap_alloc<std::allocator<std::_Tree_node<std::pair<int const ,int>,void *> > >::construct<std::pair<int const ,int>,std::piecewise_construct_t const &,std::tuple<int const &>,std::tuple<> >, COMDAT
; _this$ = ecx

; 916  : 		{	// construct _Ty(_Types...) at _Ptr

  00000	55		 push	 ebp
  00001	8b ec		 mov	 ebp, esp

; 655  : 		::new ((void *)_Ptr) _Objty(_STD forward<_Types>(_Args)...);

  00003	8b 4d 08	 mov	 ecx, DWORD PTR __Ptr$[ebp]
  00006	85 c9		 test	 ecx, ecx
  00008	74 10		 je	 SHORT $LN25@construct
; File c:\users\michel\desktop\source\gameserver\source\trandompoolmgr.cpp

  0000a	8b 45 10	 mov	 eax, DWORD PTR _<_Args_1>$[ebp]
  0000d	8b 00		 mov	 eax, DWORD PTR [eax]
; File c:\program files (x86)\microsoft visual studio 14.0\vc\include\tuple

; 827  : 		: first(_STD get<_Indexes1>(_STD move(_Val1))...),

  0000f	8b 00		 mov	 eax, DWORD PTR [eax]
  00011	89 01		 mov	 DWORD PTR [ecx], eax

; 828  : 			second(_STD get<_Indexes2>(_STD move(_Val2))...)

  00013	c7 41 04 00 00
	00 00		 mov	 DWORD PTR [ecx+4], 0
$LN25@construct:
; File c:\program files (x86)\microsoft visual studio 14.0\vc\include\xmemory0

; 919  : 		}

  0001a	5d		 pop	 ebp
  0001b	c2 10 00	 ret	 16			; 00000010H
??$construct@U?$pair@$$CBHH@std@@ABUpiecewise_construct_t@2@V?$tuple@ABH@2@V?$tuple@$$V@2@@?$_Wrap_alloc@V?$allocator@U?$_Tree_node@U?$pair@$$CBHH@std@@PAX@std@@@std@@@std@@QAEXPAU?$pair@$$CBHH@1@ABUpiecewise_construct_t@1@$$QAV?$tuple@ABH@1@$$QAV?$tuple@$$V@1@@Z ENDP ; std::_Wrap_alloc<std::allocator<std::_Tree_node<std::pair<int const ,int>,void *> > >::construct<std::pair<int const ,int>,std::piecewise_construct_t const &,std::tuple<int const &>,std::tuple<> >
_TEXT	ENDS
; Function compile flags: /Ogtp
; File c:\program files (x86)\microsoft visual studio 14.0\vc\include\tuple
;	COMDAT ??$?0ABH@?$_Tuple_val@ABH@std@@QAE@ABH@Z
_TEXT	SEGMENT
__Arg$ = 8						; size = 4
??$?0ABH@?$_Tuple_val@ABH@std@@QAE@ABH@Z PROC		; std::_Tuple_val<int const &>::_Tuple_val<int const &><int const &>, COMDAT
; _this$ = ecx

; 75   : 		{	// construct with argument

  00000	55		 push	 ebp
  00001	8b ec		 mov	 ebp, esp

; 74   : 		: _Val(_STD forward<_Other>(_Arg))

  00003	8b 45 08	 mov	 eax, DWORD PTR __Arg$[ebp]
  00006	89 01		 mov	 DWORD PTR [ecx], eax

; 76   : 		}

  00008	8b c1		 mov	 eax, ecx
  0000a	5d		 pop	 ebp
  0000b	c2 04 00	 ret	 4
??$?0ABH@?$_Tuple_val@ABH@std@@QAE@ABH@Z ENDP		; std::_Tuple_val<int const &>::_Tuple_val<int const &><int const &>
_TEXT	ENDS
; Function compile flags: /Ogtp
; File c:\program files (x86)\microsoft visual studio 14.0\vc\include\xmemory0
;	COMDAT ??$construct@PAU?$_Tree_node@U?$pair@$$CBHH@std@@PAX@std@@AAPAU12@@?$allocator_traits@V?$allocator@U?$_Tree_node@U?$pair@$$CBHH@std@@PAX@std@@@std@@@std@@SAXAAV?$allocator@U?$_Tree_node@U?$pair@$$CBHH@std@@PAX@std@@@1@PAPAU?$_Tree_node@U?$pair@$$CBHH@std@@PAX@1@AAPAU31@@Z
_TEXT	SEGMENT
__Al$ = 8						; size = 4
__Ptr$ = 12						; size = 4
_<_Args_0>$ = 16					; size = 4
??$construct@PAU?$_Tree_node@U?$pair@$$CBHH@std@@PAX@std@@AAPAU12@@?$allocator_traits@V?$allocator@U?$_Tree_node@U?$pair@$$CBHH@std@@PAX@std@@@std@@@std@@SAXAAV?$allocator@U?$_Tree_node@U?$pair@$$CBHH@std@@PAX@std@@@1@PAPAU?$_Tree_node@U?$pair@$$CBHH@std@@PAX@1@AAPAU31@@Z PROC ; std::allocator_traits<std::allocator<std::_Tree_node<std::pair<int const ,int>,void *> > >::construct<std::_Tree_node<std::pair<int const ,int>,void *> *,std::_Tree_node<std::pair<int const ,int>,void *> * &>, COMDAT

; 772  : 		{	// construct _Objty(_Types...) at _Ptr

  00000	55		 push	 ebp
  00001	8b ec		 mov	 ebp, esp

; 655  : 		::new ((void *)_Ptr) _Objty(_STD forward<_Types>(_Args)...);

  00003	8b 4d 0c	 mov	 ecx, DWORD PTR __Ptr$[ebp]
  00006	85 c9		 test	 ecx, ecx
  00008	74 07		 je	 SHORT $LN8@construct
  0000a	8b 45 10	 mov	 eax, DWORD PTR _<_Args_0>$[ebp]
  0000d	8b 00		 mov	 eax, DWORD PTR [eax]
  0000f	89 01		 mov	 DWORD PTR [ecx], eax
$LN8@construct:

; 773  : 		_Al.construct(_Ptr, _STD forward<_Types>(_Args)...);
; 774  : 		}

  00011	5d		 pop	 ebp
  00012	c3		 ret	 0
??$construct@PAU?$_Tree_node@U?$pair@$$CBHH@std@@PAX@std@@AAPAU12@@?$allocator_traits@V?$allocator@U?$_Tree_node@U?$pair@$$CBHH@std@@PAX@std@@@std@@@std@@SAXAAV?$allocator@U?$_Tree_node@U?$pair@$$CBHH@std@@PAX@std@@@1@PAPAU?$_Tree_node@U?$pair@$$CBHH@std@@PAX@1@AAPAU31@@Z ENDP ; std::allocator_traits<std::allocator<std::_Tree_node<std::pair<int const ,int>,void *> > >::construct<std::_Tree_node<std::pair<int const ,int>,void *> *,std::_Tree_node<std::pair<int const ,int>,void *> * &>
_TEXT	ENDS
; Function compile flags: /Ogtp
; File c:\program files (x86)\microsoft visual studio 14.0\vc\include\type_traits
;	COMDAT ??$forward@AAPAU?$_Tree_node@U?$pair@$$CBHH@std@@PAX@std@@@std@@YAAAPAU?$_Tree_node@U?$pair@$$CBHH@std@@PAX@0@AAPAU10@@Z
_TEXT	SEGMENT
__Arg$ = 8						; size = 4
??$forward@AAPAU?$_Tree_node@U?$pair@$$CBHH@std@@PAX@std@@@std@@YAAAPAU?$_Tree_node@U?$pair@$$CBHH@std@@PAX@0@AAPAU10@@Z PROC ; std::forward<std::_Tree_node<std::pair<int const ,int>,void *> * &>, COMDAT

; 1233 : 	{	// forward an lvalue as either an lvalue or an rvalue

  00000	55		 push	 ebp
  00001	8b ec		 mov	 ebp, esp

; 1234 : 	return (static_cast<_Ty&&>(_Arg));

  00003	8b 45 08	 mov	 eax, DWORD PTR __Arg$[ebp]

; 1235 : 	}

  00006	5d		 pop	 ebp
  00007	c3		 ret	 0
??$forward@AAPAU?$_Tree_node@U?$pair@$$CBHH@std@@PAX@std@@@std@@YAAAPAU?$_Tree_node@U?$pair@$$CBHH@std@@PAX@0@AAPAU10@@Z ENDP ; std::forward<std::_Tree_node<std::pair<int const ,int>,void *> * &>
_TEXT	ENDS
; Function compile flags: /Ogtp
; File c:\program files (x86)\microsoft visual studio 14.0\vc\include\xutility
; File c:\program files (x86)\microsoft visual studio 14.0\vc\include\xtree
; File c:\program files (x86)\microsoft visual studio 14.0\vc\include\xutility
; File c:\program files (x86)\microsoft visual studio 14.0\vc\include\xtree
; File c:\program files (x86)\microsoft visual studio 14.0\vc\include\xutility
;	COMDAT ??$?0ABV?$allocator@U?$pair@$$CBHH@std@@@std@@$$V@?$_Compressed_pair@U?$_Wrap_alloc@V?$allocator@U?$_Tree_node@U?$pair@$$CBHH@std@@PAX@std@@@std@@@std@@V?$_Tree_val@U?$_Tree_simple_types@U?$pair@$$CBHH@std@@@std@@@2@$00@std@@QAE@U_One_then_variadic_args_t@1@ABV?$allocator@U?$pair@$$CBHH@std@@@1@@Z
_TEXT	SEGMENT
___formal$ = 8						; size = 1
__Val1$ = 12						; size = 4
??$?0ABV?$allocator@U?$pair@$$CBHH@std@@@std@@$$V@?$_Compressed_pair@U?$_Wrap_alloc@V?$allocator@U?$_Tree_node@U?$pair@$$CBHH@std@@PAX@std@@@std@@@std@@V?$_Tree_val@U?$_Tree_simple_types@U?$pair@$$CBHH@std@@@std@@@2@$00@std@@QAE@U_One_then_variadic_args_t@1@ABV?$allocator@U?$pair@$$CBHH@std@@@1@@Z PROC ; std::_Compressed_pair<std::_Wrap_alloc<std::allocator<std::_Tree_node<std::pair<int const ,int>,void *> > >,std::_Tree_val<std::_Tree_simple_types<std::pair<int const ,int> > >,1>::_Compressed_pair<std::_Wrap_alloc<std::allocator<std::_Tree_node<std::pair<int const ,int>,void *> > >,std::_Tree_val<std::_Tree_simple_types<std::pair<int const ,int> > >,1><std::allocator<std::pair<int const ,int> > const &>, COMDAT
; _this$ = ecx
; File c:\program files (x86)\microsoft visual studio 14.0\vc\include\xtree

; 567  : 		this->_Myhead = 0;

  00000	c7 01 00 00 00
	00		 mov	 DWORD PTR [ecx], 0
; File c:\program files (x86)\microsoft visual studio 14.0\vc\include\xutility

; 289  : 		}

  00006	8b c1		 mov	 eax, ecx
; File c:\program files (x86)\microsoft visual studio 14.0\vc\include\xtree

; 568  : 		this->_Mysize = 0;

  00008	c7 41 04 00 00
	00 00		 mov	 DWORD PTR [ecx+4], 0
; File c:\program files (x86)\microsoft visual studio 14.0\vc\include\xutility

; 289  : 		}

  0000f	c2 08 00	 ret	 8
??$?0ABV?$allocator@U?$pair@$$CBHH@std@@@std@@$$V@?$_Compressed_pair@U?$_Wrap_alloc@V?$allocator@U?$_Tree_node@U?$pair@$$CBHH@std@@PAX@std@@@std@@@std@@V?$_Tree_val@U?$_Tree_simple_types@U?$pair@$$CBHH@std@@@std@@@2@$00@std@@QAE@U_One_then_variadic_args_t@1@ABV?$allocator@U?$pair@$$CBHH@std@@@1@@Z ENDP ; std::_Compressed_pair<std::_Wrap_alloc<std::allocator<std::_Tree_node<std::pair<int const ,int>,void *> > >,std::_Tree_val<std::_Tree_simple_types<std::pair<int const ,int> > >,1>::_Compressed_pair<std::_Wrap_alloc<std::allocator<std::_Tree_node<std::pair<int const ,int>,void *> > >,std::_Tree_val<std::_Tree_simple_types<std::pair<int const ,int> > >,1><std::allocator<std::pair<int const ,int> > const &>
_TEXT	ENDS
; Function compile flags: /Ogtp
; File c:\program files (x86)\microsoft visual studio 14.0\vc\include\type_traits
;	COMDAT ??$forward@ABV?$allocator@U?$pair@$$CBHH@std@@@std@@@std@@YAABV?$allocator@U?$pair@$$CBHH@std@@@0@ABV10@@Z
_TEXT	SEGMENT
__Arg$ = 8						; size = 4
??$forward@ABV?$allocator@U?$pair@$$CBHH@std@@@std@@@std@@YAABV?$allocator@U?$pair@$$CBHH@std@@@0@ABV10@@Z PROC ; std::forward<std::allocator<std::pair<int const ,int> > const &>, COMDAT

; 1233 : 	{	// forward an lvalue as either an lvalue or an rvalue

  00000	55		 push	 ebp
  00001	8b ec		 mov	 ebp, esp

; 1234 : 	return (static_cast<_Ty&&>(_Arg));

  00003	8b 45 08	 mov	 eax, DWORD PTR __Arg$[ebp]

; 1235 : 	}

  00006	5d		 pop	 ebp
  00007	c3		 ret	 0
??$forward@ABV?$allocator@U?$pair@$$CBHH@std@@@std@@@std@@YAABV?$allocator@U?$pair@$$CBHH@std@@@0@ABV10@@Z ENDP ; std::forward<std::allocator<std::pair<int const ,int> > const &>
_TEXT	ENDS
; Function compile flags: /Ogtp
; File c:\program files (x86)\microsoft visual studio 14.0\vc\include\type_traits
;	COMDAT ??$forward@U_One_then_variadic_args_t@std@@@std@@YA$$QAU_One_then_variadic_args_t@0@AAU10@@Z
_TEXT	SEGMENT
__Arg$ = 8						; size = 4
??$forward@U_One_then_variadic_args_t@std@@@std@@YA$$QAU_One_then_variadic_args_t@0@AAU10@@Z PROC ; std::forward<std::_One_then_variadic_args_t>, COMDAT

; 1233 : 	{	// forward an lvalue as either an lvalue or an rvalue

  00000	55		 push	 ebp
  00001	8b ec		 mov	 ebp, esp

; 1234 : 	return (static_cast<_Ty&&>(_Arg));

  00003	8b 45 08	 mov	 eax, DWORD PTR __Arg$[ebp]

; 1235 : 	}

  00006	5d		 pop	 ebp
  00007	c3		 ret	 0
??$forward@U_One_then_variadic_args_t@std@@@std@@YA$$QAU_One_then_variadic_args_t@0@AAU10@@Z ENDP ; std::forward<std::_One_then_variadic_args_t>
_TEXT	ENDS
; Function compile flags: /Ogtp
; File c:\program files (x86)\microsoft visual studio 14.0\vc\include\type_traits
;	COMDAT ??$forward@ABU?$less@H@std@@@std@@YAABU?$less@H@0@ABU10@@Z
_TEXT	SEGMENT
__Arg$ = 8						; size = 4
??$forward@ABU?$less@H@std@@@std@@YAABU?$less@H@0@ABU10@@Z PROC ; std::forward<std::less<int> const &>, COMDAT

; 1233 : 	{	// forward an lvalue as either an lvalue or an rvalue

  00000	55		 push	 ebp
  00001	8b ec		 mov	 ebp, esp

; 1234 : 	return (static_cast<_Ty&&>(_Arg));

  00003	8b 45 08	 mov	 eax, DWORD PTR __Arg$[ebp]

; 1235 : 	}

  00006	5d		 pop	 ebp
  00007	c3		 ret	 0
??$forward@ABU?$less@H@std@@@std@@YAABU?$less@H@0@ABU10@@Z ENDP ; std::forward<std::less<int> const &>
_TEXT	ENDS
; Function compile flags: /Ogtp
; File c:\program files (x86)\microsoft visual studio 14.0\vc\include\xmemory0
;	COMDAT ??$destroy@PAU?$_Tree_node@U?$pair@$$CBHH@std@@PAX@std@@@?$allocator_traits@V?$allocator@U?$_Tree_node@U?$pair@$$CBHH@std@@PAX@std@@@std@@@std@@SAXAAV?$allocator@U?$_Tree_node@U?$pair@$$CBHH@std@@PAX@std@@@1@PAPAU?$_Tree_node@U?$pair@$$CBHH@std@@PAX@1@@Z
_TEXT	SEGMENT
__Al$ = 8						; size = 4
__Ptr$ = 12						; size = 4
??$destroy@PAU?$_Tree_node@U?$pair@$$CBHH@std@@PAX@std@@@?$allocator_traits@V?$allocator@U?$_Tree_node@U?$pair@$$CBHH@std@@PAX@std@@@std@@@std@@SAXAAV?$allocator@U?$_Tree_node@U?$pair@$$CBHH@std@@PAX@std@@@1@PAPAU?$_Tree_node@U?$pair@$$CBHH@std@@PAX@1@@Z PROC ; std::allocator_traits<std::allocator<std::_Tree_node<std::pair<int const ,int>,void *> > >::destroy<std::_Tree_node<std::pair<int const ,int>,void *> *>, COMDAT

; 780  : 		_Al.destroy(_Ptr);
; 781  : 		}

  00000	c3		 ret	 0
??$destroy@PAU?$_Tree_node@U?$pair@$$CBHH@std@@PAX@std@@@?$allocator_traits@V?$allocator@U?$_Tree_node@U?$pair@$$CBHH@std@@PAX@std@@@std@@@std@@SAXAAV?$allocator@U?$_Tree_node@U?$pair@$$CBHH@std@@PAX@std@@@1@PAPAU?$_Tree_node@U?$pair@$$CBHH@std@@PAX@1@@Z ENDP ; std::allocator_traits<std::allocator<std::_Tree_node<std::pair<int const ,int>,void *> > >::destroy<std::_Tree_node<std::pair<int const ,int>,void *> *>
_TEXT	ENDS
; Function compile flags: /Ogtp
; File c:\program files (x86)\microsoft visual studio 14.0\vc\include\xstddef
;	COMDAT ??$_Addressof@PAU?$_Tree_node@U?$pair@$$CBHH@std@@PAX@std@@@std@@YAPAPAU?$_Tree_node@U?$pair@$$CBHH@std@@PAX@0@AAPAU10@U?$integral_constant@_N$0A@@0@@Z
_TEXT	SEGMENT
__Val$ = 8						; size = 4
___formal$ = 12						; size = 1
??$_Addressof@PAU?$_Tree_node@U?$pair@$$CBHH@std@@PAX@std@@@std@@YAPAPAU?$_Tree_node@U?$pair@$$CBHH@std@@PAX@0@AAPAU10@U?$integral_constant@_N$0A@@0@@Z PROC ; std::_Addressof<std::_Tree_node<std::pair<int const ,int>,void *> *>, COMDAT

; 688  : 	{	// return address of object _Val

  00000	55		 push	 ebp
  00001	8b ec		 mov	 ebp, esp

; 689  : 	return (reinterpret_cast<_Ty *>(

  00003	8b 45 08	 mov	 eax, DWORD PTR __Val$[ebp]

; 690  : 		&const_cast<char&>(
; 691  : 		reinterpret_cast<const volatile char&>(_Val))));
; 692  : 	}

  00006	5d		 pop	 ebp
  00007	c3		 ret	 0
??$_Addressof@PAU?$_Tree_node@U?$pair@$$CBHH@std@@PAX@std@@@std@@YAPAPAU?$_Tree_node@U?$pair@$$CBHH@std@@PAX@0@AAPAU10@U?$integral_constant@_N$0A@@0@@Z ENDP ; std::_Addressof<std::_Tree_node<std::pair<int const ,int>,void *> *>
_TEXT	ENDS
; Function compile flags: /Ogtp
; File c:\program files (x86)\microsoft visual studio 14.0\vc\include\xmemory0
;	COMDAT ??$destroy@U?$pair@$$CBHH@std@@@?$allocator_traits@V?$allocator@U?$_Tree_node@U?$pair@$$CBHH@std@@PAX@std@@@std@@@std@@SAXAAV?$allocator@U?$_Tree_node@U?$pair@$$CBHH@std@@PAX@std@@@1@PAU?$pair@$$CBHH@1@@Z
_TEXT	SEGMENT
__Al$ = 8						; size = 4
__Ptr$ = 12						; size = 4
??$destroy@U?$pair@$$CBHH@std@@@?$allocator_traits@V?$allocator@U?$_Tree_node@U?$pair@$$CBHH@std@@PAX@std@@@std@@@std@@SAXAAV?$allocator@U?$_Tree_node@U?$pair@$$CBHH@std@@PAX@std@@@1@PAU?$pair@$$CBHH@1@@Z PROC ; std::allocator_traits<std::allocator<std::_Tree_node<std::pair<int const ,int>,void *> > >::destroy<std::pair<int const ,int> >, COMDAT

; 780  : 		_Al.destroy(_Ptr);
; 781  : 		}

  00000	c3		 ret	 0
??$destroy@U?$pair@$$CBHH@std@@@?$allocator_traits@V?$allocator@U?$_Tree_node@U?$pair@$$CBHH@std@@PAX@std@@@std@@@std@@SAXAAV?$allocator@U?$_Tree_node@U?$pair@$$CBHH@std@@PAX@std@@@1@PAU?$pair@$$CBHH@1@@Z ENDP ; std::allocator_traits<std::allocator<std::_Tree_node<std::pair<int const ,int>,void *> > >::destroy<std::pair<int const ,int> >
_TEXT	ENDS
; Function compile flags: /Ogtp
; File c:\program files (x86)\microsoft visual studio 14.0\vc\include\xstddef
;	COMDAT ??$_Addressof@U?$pair@$$CBHH@std@@@std@@YAPAU?$pair@$$CBHH@0@AAU10@U?$integral_constant@_N$0A@@0@@Z
_TEXT	SEGMENT
__Val$ = 8						; size = 4
___formal$ = 12						; size = 1
??$_Addressof@U?$pair@$$CBHH@std@@@std@@YAPAU?$pair@$$CBHH@0@AAU10@U?$integral_constant@_N$0A@@0@@Z PROC ; std::_Addressof<std::pair<int const ,int> >, COMDAT

; 688  : 	{	// return address of object _Val

  00000	55		 push	 ebp
  00001	8b ec		 mov	 ebp, esp

; 689  : 	return (reinterpret_cast<_Ty *>(

  00003	8b 45 08	 mov	 eax, DWORD PTR __Val$[ebp]

; 690  : 		&const_cast<char&>(
; 691  : 		reinterpret_cast<const volatile char&>(_Val))));
; 692  : 	}

  00006	5d		 pop	 ebp
  00007	c3		 ret	 0
??$_Addressof@U?$pair@$$CBHH@std@@@std@@YAPAU?$pair@$$CBHH@0@AAU10@U?$integral_constant@_N$0A@@0@@Z ENDP ; std::_Addressof<std::pair<int const ,int> >
_TEXT	ENDS
; Function compile flags: /Ogtp
; File c:\program files (x86)\microsoft visual studio 14.0\vc\include\xtree
; File c:\program files (x86)\microsoft visual studio 14.0\vc\include\xstddef
; File c:\program files (x86)\microsoft visual studio 14.0\vc\include\xtree
; File c:\program files (x86)\microsoft visual studio 14.0\vc\include\xstddef
; File c:\program files (x86)\microsoft visual studio 14.0\vc\include\xtree
; File c:\program files (x86)\microsoft visual studio 14.0\vc\include\map
; File c:\program files (x86)\microsoft visual studio 14.0\vc\include\xstddef
; File c:\program files (x86)\microsoft visual studio 14.0\vc\include\xtree
; File c:\program files (x86)\microsoft visual studio 14.0\vc\include\xstddef
; File c:\program files (x86)\microsoft visual studio 14.0\vc\include\xtree
; File c:\program files (x86)\microsoft visual studio 14.0\vc\include\xstddef
; File c:\program files (x86)\microsoft visual studio 14.0\vc\include\xtree
; File c:\program files (x86)\microsoft visual studio 14.0\vc\include\xstddef
; File c:\program files (x86)\microsoft visual studio 14.0\vc\include\xtree
; File c:\program files (x86)\microsoft visual studio 14.0\vc\include\xstddef
; File c:\program files (x86)\microsoft visual studio 14.0\vc\include\xtree
; File c:\program files (x86)\microsoft visual studio 14.0\vc\include\xmemory0
; File c:\program files (x86)\microsoft visual studio 14.0\vc\include\xtree
;	COMDAT ??$_Insert_hint@AAU?$pair@$$CBHH@std@@PAU?$_Tree_node@U?$pair@$$CBHH@std@@PAX@2@@?$_Tree@V?$_Tmap_traits@HHU?$less@H@std@@V?$allocator@U?$pair@$$CBHH@std@@@2@$0A@@std@@@std@@IAE?AV?$_Tree_iterator@V?$_Tree_val@U?$_Tree_simple_types@U?$pair@$$CBHH@std@@@std@@@std@@@1@V?$_Tree_const_iterator@V?$_Tree_val@U?$_Tree_simple_types@U?$pair@$$CBHH@std@@@std@@@std@@@1@AAU?$pair@$$CBHH@1@PAU?$_Tree_node@U?$pair@$$CBHH@std@@PAX@1@@Z
_TEXT	SEGMENT
$T2 = -28						; size = 8
_this$1$ = -20						; size = 4
__$EHRec$ = -16						; size = 16
___$ReturnUdt$ = 8					; size = 4
__Where$ = 12						; size = 4
__Next$ = 16						; size = 4
__Val$ = 16						; size = 4
__Newnode$ = 20						; size = 4
??$_Insert_hint@AAU?$pair@$$CBHH@std@@PAU?$_Tree_node@U?$pair@$$CBHH@std@@PAX@2@@?$_Tree@V?$_Tmap_traits@HHU?$less@H@std@@V?$allocator@U?$pair@$$CBHH@std@@@2@$0A@@std@@@std@@IAE?AV?$_Tree_iterator@V?$_Tree_val@U?$_Tree_simple_types@U?$pair@$$CBHH@std@@@std@@@std@@@1@V?$_Tree_const_iterator@V?$_Tree_val@U?$_Tree_simple_types@U?$pair@$$CBHH@std@@@std@@@std@@@1@AAU?$pair@$$CBHH@1@PAU?$_Tree_node@U?$pair@$$CBHH@std@@PAX@1@@Z PROC ; std::_Tree<std::_Tmap_traits<int,int,std::less<int>,std::allocator<std::pair<int const ,int> >,0> >::_Insert_hint<std::pair<int const ,int> &,std::_Tree_node<std::pair<int const ,int>,void *> *>, COMDAT
; _this$ = ecx

; 1683 : 		{	// try to insert node using _Where as a hint

  00000	55		 push	 ebp
  00001	8b ec		 mov	 ebp, esp
  00003	6a ff		 push	 -1
  00005	68 00 00 00 00	 push	 __ehhandler$??$_Insert_hint@AAU?$pair@$$CBHH@std@@PAU?$_Tree_node@U?$pair@$$CBHH@std@@PAX@2@@?$_Tree@V?$_Tmap_traits@HHU?$less@H@std@@V?$allocator@U?$pair@$$CBHH@std@@@2@$0A@@std@@@std@@IAE?AV?$_Tree_iterator@V?$_Tree_val@U?$_Tree_simple_types@U?$pair@$$CBHH@std@@@std@@@std@@@1@V?$_Tree_const_iterator@V?$_Tree_val@U?$_Tree_simple_types@U?$pair@$$CBHH@std@@@std@@@std@@@1@AAU?$pair@$$CBHH@1@PAU?$_Tree_node@U?$pair@$$CBHH@std@@PAX@1@@Z
  0000a	64 a1 00 00 00
	00		 mov	 eax, DWORD PTR fs:0
  00010	50		 push	 eax
  00011	83 ec 10	 sub	 esp, 16			; 00000010H
  00014	53		 push	 ebx
  00015	56		 push	 esi
  00016	57		 push	 edi
  00017	a1 00 00 00 00	 mov	 eax, DWORD PTR ___security_cookie
  0001c	33 c5		 xor	 eax, ebp
  0001e	50		 push	 eax
  0001f	8d 45 f4	 lea	 eax, DWORD PTR __$EHRec$[ebp+4]
  00022	64 a3 00 00 00
	00		 mov	 DWORD PTR fs:0, eax
  00028	89 65 f0	 mov	 DWORD PTR __$EHRec$[ebp], esp
  0002b	89 4d ec	 mov	 DWORD PTR _this$1$[ebp], ecx

; 1684 : 		const_iterator _Next;
; 1685 : 		bool _Leftish = false;	// assume nearest point is end of sequence
; 1686 : 
; 1687 : 		_TRY_BEGIN
; 1688 : 
; 1689 :  #if _ITERATOR_DEBUG_LEVEL == 2
; 1690 : 		if (_Where._Getcont() != &this->_Get_data())
; 1691 : 			_DEBUG_ERROR("map/set insert iterator outside range");
; 1692 :  #endif /* _ITERATOR_DEBUG_LEVEL == 2 */
; 1693 : 
; 1694 : 		if (size() == 0)

  0002e	83 79 04 00	 cmp	 DWORD PTR [ecx+4], 0
  00032	c7 45 fc 00 00
	00 00		 mov	 DWORD PTR __$EHRec$[ebp+12], 0
  00039	75 29		 jne	 SHORT $LN3@Insert_hin

; 1695 : 			return (_Insert_at(true, this->_Myhead(),

  0003b	ff 75 14	 push	 DWORD PTR __Newnode$[ebp]
  0003e	8b 75 08	 mov	 esi, DWORD PTR ___$ReturnUdt$[ebp]
  00041	ff 75 10	 push	 DWORD PTR __Val$[ebp]
  00044	ff 31		 push	 DWORD PTR [ecx]
  00046	6a 01		 push	 1
  00048	56		 push	 esi
  00049	e8 00 00 00 00	 call	 ??$_Insert_at@AAU?$pair@$$CBHH@std@@PAU?$_Tree_node@U?$pair@$$CBHH@std@@PAX@2@@?$_Tree@V?$_Tmap_traits@HHU?$less@H@std@@V?$allocator@U?$pair@$$CBHH@std@@@2@$0A@@std@@@std@@IAE?AV?$_Tree_iterator@V?$_Tree_val@U?$_Tree_simple_types@U?$pair@$$CBHH@std@@@std@@@std@@@1@_NPAU?$_Tree_node@U?$pair@$$CBHH@std@@PAX@1@AAU?$pair@$$CBHH@1@1@Z ; std::_Tree<std::_Tmap_traits<int,int,std::less<int>,std::allocator<std::pair<int const ,int> >,0> >::_Insert_at<std::pair<int const ,int> &,std::_Tree_node<std::pair<int const ,int>,void *> *>
  0004e	8b c6		 mov	 eax, esi

; 1792 : 			_STD forward<_Valty>(_Val), _Newnode).first);
; 1793 : 		}

  00050	8b 4d f4	 mov	 ecx, DWORD PTR __$EHRec$[ebp+4]
  00053	64 89 0d 00 00
	00 00		 mov	 DWORD PTR fs:0, ecx
  0005a	59		 pop	 ecx
  0005b	5f		 pop	 edi
  0005c	5e		 pop	 esi
  0005d	5b		 pop	 ebx
  0005e	8b e5		 mov	 esp, ebp
  00060	5d		 pop	 ebp
  00061	c2 10 00	 ret	 16			; 00000010H
$LN3@Insert_hin:

; 335  : 		}
; 336  : 
; 337  : 	bool operator!=(const _Myiter& _Right) const
; 338  : 		{	// test for iterator inequality
; 339  : 		return (!(*this == _Right));
; 340  : 		}
; 341  : 	};
; 342  : 
; 343  : template<class _Mytree> inline
; 344  : 	typename _Tree_const_iterator<_Mytree>::_Unchecked_type
; 345  : 		_Unchecked(_Tree_const_iterator<_Mytree> _Iter)
; 346  : 	{	// convert to unchecked
; 347  : 	return (_Iter._Unchecked());
; 348  : 	}
; 349  : 
; 350  : template<class _Mytree> inline
; 351  : 	_Tree_const_iterator<_Mytree>&
; 352  : 		_Rechecked(_Tree_const_iterator<_Mytree>& _Iter,
; 353  : 			typename _Tree_const_iterator<_Mytree>
; 354  : 				::_Unchecked_type _Right)
; 355  : 	{	// convert to checked
; 356  : 	return (_Iter._Rechecked(_Right));
; 357  : 	}
; 358  : 
; 359  : 	// TEMPLATE CLASS _Tree_iterator
; 360  : template<class _Mytree>
; 361  : 	class _Tree_iterator
; 362  : 		: public _Tree_const_iterator<_Mytree>
; 363  : 	{	// iterator for mutable tree
; 364  : public:
; 365  : 	typedef _Tree_iterator<_Mytree> _Myiter;
; 366  : 	typedef _Tree_const_iterator<_Mytree> _Mybase;
; 367  : 	typedef bidirectional_iterator_tag iterator_category;
; 368  : 
; 369  : 	typedef typename _Mytree::_Nodeptr _Nodeptr;
; 370  : 	typedef typename _Mytree::value_type value_type;
; 371  : 	typedef typename _Mytree::difference_type difference_type;
; 372  : 
; 373  : 	typedef typename _Mytree::pointer pointer;
; 374  : 	typedef typename _Mytree::reference reference;
; 375  : 
; 376  : 	_Tree_iterator()
; 377  : 		{	// construct with null node
; 378  : 		}
; 379  : 
; 380  : 	_Tree_iterator(_Nodeptr _Pnode, const _Mytree *_Plist)
; 381  : 		: _Mybase(_Pnode, _Plist)
; 382  : 		{	// construct with node pointer _Pnode
; 383  : 		}
; 384  : 
; 385  : 	typedef _Tree_unchecked_iterator<_Mytree> _Unchecked_type;
; 386  : 
; 387  : 	_Myiter& _Rechecked(_Unchecked_type _Right)
; 388  : 		{	// reset from unchecked iterator
; 389  : 		this->_Ptr = _Right._Ptr;
; 390  : 		return (*this);
; 391  : 		}
; 392  : 
; 393  : 	_Unchecked_type _Unchecked() const
; 394  : 		{	// make an unchecked iterator
; 395  : 		return (_Unchecked_type(this->_Ptr, (_Mytree *)this->_Getcont()));
; 396  : 		}
; 397  : 
; 398  : 	reference operator*() const
; 399  : 		{	// return designated value
; 400  : 		return ((reference)**(_Mybase *)this);
; 401  : 		}
; 402  : 
; 403  : 	pointer operator->() const
; 404  : 		{	// return pointer to class object
; 405  : 		return (_STD pointer_traits<pointer>::pointer_to(**this));
; 406  : 		}
; 407  : 
; 408  : 	_Myiter& operator++()
; 409  : 		{	// preincrement
; 410  : 		++(*(_Mybase *)this);
; 411  : 		return (*this);
; 412  : 		}
; 413  : 
; 414  : 	_Myiter operator++(int)
; 415  : 		{	// postincrement
; 416  : 		_Myiter _Tmp = *this;
; 417  : 		++*this;
; 418  : 		return (_Tmp);
; 419  : 		}
; 420  : 
; 421  : 	_Myiter& operator--()
; 422  : 		{	// predecrement
; 423  : 		--(*(_Mybase *)this);
; 424  : 		return (*this);
; 425  : 		}
; 426  : 
; 427  : 	_Myiter operator--(int)
; 428  : 		{	// postdecrement
; 429  : 		_Myiter _Tmp = *this;
; 430  : 		--*this;
; 431  : 		return (_Tmp);
; 432  : 		}
; 433  : 	};
; 434  : 
; 435  : template<class _Mytree> inline
; 436  : 	typename _Tree_iterator<_Mytree>::_Unchecked_type
; 437  : 		_Unchecked(_Tree_iterator<_Mytree> _Iter)
; 438  : 	{	// convert to unchecked
; 439  : 	return (_Iter._Unchecked());
; 440  : 	}
; 441  : 
; 442  : template<class _Mytree> inline
; 443  : 	_Tree_iterator<_Mytree>&
; 444  : 		_Rechecked(_Tree_iterator<_Mytree>& _Iter,
; 445  : 			typename _Tree_iterator<_Mytree>
; 446  : 				::_Unchecked_type _Right)
; 447  : 	{	// convert to checked
; 448  : 	return (_Iter._Rechecked(_Right));
; 449  : 	}
; 450  : 
; 451  : 		// tree TYPE WRAPPERS
; 452  : template<class _Value_type,
; 453  : 	class _Size_type,
; 454  : 	class _Difference_type,
; 455  : 	class _Pointer,
; 456  : 	class _Const_pointer,
; 457  : 	class _Reference,
; 458  : 	class _Const_reference,
; 459  : 	class _Nodeptr_type>
; 460  : 	struct _Tree_iter_types
; 461  : 	{	// wraps types needed by iterators
; 462  : 	typedef _Value_type value_type;
; 463  : 	typedef _Size_type size_type;
; 464  : 	typedef _Difference_type difference_type;
; 465  : 	typedef _Pointer pointer;
; 466  : 	typedef _Const_pointer const_pointer;
; 467  : 	typedef _Reference reference;
; 468  : 	typedef _Const_reference const_reference;
; 469  : 	typedef _Nodeptr_type _Nodeptr;
; 470  : 	};
; 471  : 
; 472  : template<class _Value_type,
; 473  : 	class _Voidptr>
; 474  : 	struct _Tree_node
; 475  : 		{	// tree node
; 476  : 		_Voidptr _Left;	// left subtree, or smallest element if head
; 477  : 		_Voidptr _Parent;	// parent, or root of tree if head
; 478  : 		_Voidptr _Right;	// right subtree, or largest element if head
; 479  : 		char _Color;	// _Red or _Black, _Black if head
; 480  : 		char _Isnil;	// true only if head (also nil) node
; 481  : 		_Value_type _Myval;	// the stored value, unused if head
; 482  : 
; 483  : 	private:
; 484  : 		_Tree_node& operator=(const _Tree_node&);
; 485  : 		};
; 486  : 
; 487  : template<class _Value_type>
; 488  : 	struct _Tree_node<_Value_type, void *>
; 489  : 		{	// tree node
; 490  : 		typedef _Tree_node<_Value_type, void *> *_Nodeptr;
; 491  : 		_Nodeptr _Left;	// left subtree, or smallest element if head
; 492  : 		_Nodeptr _Parent;	// parent, or root of tree if head
; 493  : 		_Nodeptr _Right;	// right subtree, or largest element if head
; 494  : 		char _Color;	// _Red or _Black, _Black if head
; 495  : 		char _Isnil;	// true only if head (also nil) node
; 496  : 		_Value_type _Myval;	// the stored value, unused if head
; 497  : 
; 498  : 	private:
; 499  : 		_Tree_node& operator=(const _Tree_node&);
; 500  : 		};
; 501  : 
; 502  : template<class _Ty>
; 503  : 	struct _Tree_simple_types
; 504  : 		: public _Simple_types<_Ty>
; 505  : 	{	// wraps types needed by iterators
; 506  : 	typedef _Tree_node<_Ty, void *> _Node;
; 507  : 	typedef _Node *_Nodeptr;
; 508  : 	};
; 509  : 
; 510  : template<class _Ty,
; 511  : 	class _Alloc0>
; 512  : 	struct _Tree_base_types
; 513  : 	{	// types needed for a container base
; 514  : 	typedef _Alloc0 _Alloc;
; 515  : 	typedef _Tree_base_types<_Ty, _Alloc> _Myt;
; 516  : 
; 517  : 	typedef _Wrap_alloc<_Alloc> _Alty0;
; 518  : 	typedef typename _Alty0::template rebind<_Ty>::other _Alty;
; 519  : 
; 520  : 
; 521  : 	typedef typename _Get_voidptr<_Alty, typename _Alty::pointer>::type
; 522  : 		_Voidptr;
; 523  : 	typedef _Tree_node<typename _Alty::value_type,
; 524  : 		_Voidptr> _Node;
; 525  : 
; 526  : 	typedef typename _Alty::template rebind<_Node>::other _Alnod_type;
; 527  : 	typedef typename _Alnod_type::pointer _Nodeptr;
; 528  : 	typedef _Nodeptr& _Nodepref;
; 529  : 
; 530  : 	typedef typename _If<_Is_simple_alloc<_Alty>::value,
; 531  : 		_Tree_simple_types<typename _Alty::value_type>,
; 532  : 		_Tree_iter_types<typename _Alty::value_type,
; 533  : 			typename _Alty::size_type,
; 534  : 			typename _Alty::difference_type,
; 535  : 			typename _Alty::pointer,
; 536  : 			typename _Alty::const_pointer,
; 537  : 			typename _Alty::reference,
; 538  : 			typename _Alty::const_reference,
; 539  : 			_Nodeptr> >::type
; 540  : 		_Val_types;
; 541  : 	};
; 542  : 
; 543  : 		// TEMPLATE CLASS _Tree_val
; 544  : template<class _Val_types>
; 545  : 	class _Tree_val
; 546  : 		: public _Container_base
; 547  : 	{	// base class for tree to hold data
; 548  : public:
; 549  : 	typedef _Tree_val<_Val_types> _Myt;
; 550  : 
; 551  : 	typedef typename _Val_types::_Nodeptr _Nodeptr;
; 552  : 	typedef _Nodeptr& _Nodepref;
; 553  : 
; 554  : 	typedef typename _Val_types::value_type value_type;
; 555  : 	typedef typename _Val_types::size_type size_type;
; 556  : 	typedef typename _Val_types::difference_type difference_type;
; 557  : 	typedef typename _Val_types::pointer pointer;
; 558  : 	typedef typename _Val_types::const_pointer const_pointer;
; 559  : 	typedef typename _Val_types::reference reference;
; 560  : 	typedef typename _Val_types::const_reference const_reference;
; 561  : 
; 562  : 	typedef _Tree_const_iterator<_Myt> const_iterator;
; 563  : 	typedef _Tree_iterator<_Myt> iterator;
; 564  : 
; 565  : 	_Tree_val()
; 566  : 		{	// initialize data
; 567  : 		this->_Myhead = 0;
; 568  : 		this->_Mysize = 0;
; 569  : 		}
; 570  : 
; 571  : 	enum _Redbl
; 572  : 		{	// colors for link to parent
; 573  : 		_Red, _Black};
; 574  : 
; 575  : 	static char& _Color(_Nodeptr _Pnode)
; 576  : 		{	// return reference to color in node
; 577  : 		return ((char&)_Pnode->_Color);
; 578  : 		}
; 579  : 
; 580  : 	static char& _Isnil(_Nodeptr _Pnode)
; 581  : 		{	// return reference to nil flag in node
; 582  : 		return ((char&)_Pnode->_Isnil);
; 583  : 		}
; 584  : 
; 585  : 	static _Nodepref _Left(_Nodeptr _Pnode)
; 586  : 		{	// return reference to left pointer in node
; 587  : 		return ((_Nodepref)_Pnode->_Left);

  00064	8b 39		 mov	 edi, DWORD PTR [ecx]

; 334  : 		return (this->_Ptr == _Right._Ptr);

  00066	8b 75 0c	 mov	 esi, DWORD PTR __Where$[ebp]
; File c:\program files (x86)\microsoft visual studio 14.0\vc\include\xstddef

; 240  : 		return (_Left < _Right);

  00069	8b 5d 10	 mov	 ebx, DWORD PTR __Val$[ebp]
; File c:\program files (x86)\microsoft visual studio 14.0\vc\include\xtree

; 334  : 		return (this->_Ptr == _Right._Ptr);

  0006c	3b 37		 cmp	 esi, DWORD PTR [edi]

; 1696 : 				_STD forward<_Valty>(_Val), _Newnode));	// empty tree
; 1697 : 		else if (this->_Multi)
; 1698 : 			{	// insert even if duplicate
; 1699 : 			if (_Where == begin())
; 1700 : 				{	// insert at beginning if before first element
; 1701 : 				if (!_DEBUG_LT_PRED(this->_Getcomp(),
; 1702 : 					this->_Key(_Where._Mynode()), this->_Kfn(_Val)))
; 1703 : 					return (_Insert_at(true, _Where._Mynode(),
; 1704 : 						_STD forward<_Valty>(_Val), _Newnode));
; 1705 : 				_Leftish = true;	// nearest point is beginning of sequence
; 1706 : 				}
; 1707 : 			else if (_Where == end())
; 1708 : 				{	// insert at end if after last element
; 1709 : 				if (!_DEBUG_LT_PRED(this->_Getcomp(),
; 1710 : 					this->_Kfn(_Val), this->_Key(_Rmost())))
; 1711 : 					return (_Insert_at(false, _Rmost(),
; 1712 : 						_STD forward<_Valty>(_Val), _Newnode));
; 1713 : 				}
; 1714 : 			else if (!_DEBUG_LT_PRED(this->_Getcomp(),
; 1715 : 				this->_Key(_Where._Mynode()), this->_Kfn(_Val))
; 1716 : 				&& !_DEBUG_LT_PRED(this->_Getcomp(),
; 1717 : 					this->_Kfn(_Val),
; 1718 : 					this->_Key((--(_Next = _Where))._Mynode())))
; 1719 : 				{	// insert before _Where
; 1720 : 				if (this->_Isnil(this->_Right(_Next._Mynode())))
; 1721 : 					return (_Insert_at(false, _Next._Mynode(),
; 1722 : 						_STD forward<_Valty>(_Val), _Newnode));
; 1723 : 				else
; 1724 : 					return (_Insert_at(true, _Where._Mynode(),
; 1725 : 						_STD forward<_Valty>(_Val), _Newnode));
; 1726 : 				}
; 1727 : 			else if (!_DEBUG_LT_PRED(this->_Getcomp(),
; 1728 : 				this->_Kfn(_Val), this->_Key(_Where._Mynode()))
; 1729 : 				&& (++(_Next = _Where) == end()
; 1730 : 					|| !_DEBUG_LT_PRED(this->_Getcomp(),
; 1731 : 						this->_Key(_Next._Mynode()), this->_Kfn(_Val))))
; 1732 : 				{	// insert after _Where
; 1733 : 				if (this->_Isnil(this->_Right(_Where._Mynode())))
; 1734 : 					return (_Insert_at(false, _Where._Mynode(),
; 1735 : 						_STD forward<_Valty>(_Val), _Newnode));
; 1736 : 				else
; 1737 : 					return (_Insert_at(true, _Next._Mynode(),
; 1738 : 						_STD forward<_Valty>(_Val), _Newnode));
; 1739 : 				}
; 1740 : 			else
; 1741 : 				_Leftish = true;	// nearest point is beginning of sequence
; 1742 : 			}
; 1743 : 		else
; 1744 : 			{	// insert only if unique
; 1745 : 			if (_Where == begin())

  0006e	75 31		 jne	 SHORT $LN22@Insert_hin
; File c:\program files (x86)\microsoft visual studio 14.0\vc\include\xstddef

; 240  : 		return (_Left < _Right);

  00070	8b 03		 mov	 eax, DWORD PTR [ebx]
  00072	3b 46 10	 cmp	 eax, DWORD PTR [esi+16]
; File c:\program files (x86)\microsoft visual studio 14.0\vc\include\xtree

; 1747 : 				if (_DEBUG_LT_PRED(this->_Getcomp(),

  00075	0f 8d 40 01 00
	00		 jge	 $LN35@Insert_hin

; 1748 : 					this->_Kfn(_Val), this->_Key(_Where._Mynode())))
; 1749 : 					return (_Insert_at(true, _Where._Mynode(),

  0007b	ff 75 14	 push	 DWORD PTR __Newnode$[ebp]
  0007e	53		 push	 ebx
$LN30@Insert_hin:
  0007f	56		 push	 esi
  00080	8b 75 08	 mov	 esi, DWORD PTR ___$ReturnUdt$[ebp]
  00083	6a 01		 push	 1
  00085	56		 push	 esi
  00086	e8 00 00 00 00	 call	 ??$_Insert_at@AAU?$pair@$$CBHH@std@@PAU?$_Tree_node@U?$pair@$$CBHH@std@@PAX@2@@?$_Tree@V?$_Tmap_traits@HHU?$less@H@std@@V?$allocator@U?$pair@$$CBHH@std@@@2@$0A@@std@@@std@@IAE?AV?$_Tree_iterator@V?$_Tree_val@U?$_Tree_simple_types@U?$pair@$$CBHH@std@@@std@@@std@@@1@_NPAU?$_Tree_node@U?$pair@$$CBHH@std@@PAX@1@AAU?$pair@$$CBHH@1@1@Z ; std::_Tree<std::_Tmap_traits<int,int,std::less<int>,std::allocator<std::pair<int const ,int> >,0> >::_Insert_at<std::pair<int const ,int> &,std::_Tree_node<std::pair<int const ,int>,void *> *>
  0008b	8b c6		 mov	 eax, esi

; 1792 : 			_STD forward<_Valty>(_Val), _Newnode).first);
; 1793 : 		}

  0008d	8b 4d f4	 mov	 ecx, DWORD PTR __$EHRec$[ebp+4]
  00090	64 89 0d 00 00
	00 00		 mov	 DWORD PTR fs:0, ecx
  00097	59		 pop	 ecx
  00098	5f		 pop	 edi
  00099	5e		 pop	 esi
  0009a	5b		 pop	 ebx
  0009b	8b e5		 mov	 esp, ebp
  0009d	5d		 pop	 ebp
  0009e	c2 10 00	 ret	 16			; 00000010H
$LN22@Insert_hin:

; 334  : 		return (this->_Ptr == _Right._Ptr);

  000a1	3b f7		 cmp	 esi, edi

; 1750 : 						_STD forward<_Valty>(_Val), _Newnode));
; 1751 : 				}
; 1752 : 			else if (_Where == end())

  000a3	75 34		 jne	 SHORT $LN25@Insert_hin
; File c:\program files (x86)\microsoft visual studio 14.0\vc\include\map

; 62   : 		return (_Val.first);

  000a5	8b 57 08	 mov	 edx, DWORD PTR [edi+8]
; File c:\program files (x86)\microsoft visual studio 14.0\vc\include\xstddef

; 240  : 		return (_Left < _Right);

  000a8	8b 42 10	 mov	 eax, DWORD PTR [edx+16]
  000ab	3b 03		 cmp	 eax, DWORD PTR [ebx]
; File c:\program files (x86)\microsoft visual studio 14.0\vc\include\xtree

; 1754 : 				if (_DEBUG_LT_PRED(this->_Getcomp(),

  000ad	0f 8d 08 01 00
	00		 jge	 $LN35@Insert_hin

; 1755 : 					this->_Key(_Rmost()), this->_Kfn(_Val)))
; 1756 : 					return (_Insert_at(false, _Rmost(),

  000b3	ff 75 14	 push	 DWORD PTR __Newnode$[ebp]
  000b6	8b 75 08	 mov	 esi, DWORD PTR ___$ReturnUdt$[ebp]
  000b9	53		 push	 ebx
  000ba	52		 push	 edx
  000bb	6a 00		 push	 0
  000bd	56		 push	 esi
  000be	e8 00 00 00 00	 call	 ??$_Insert_at@AAU?$pair@$$CBHH@std@@PAU?$_Tree_node@U?$pair@$$CBHH@std@@PAX@2@@?$_Tree@V?$_Tmap_traits@HHU?$less@H@std@@V?$allocator@U?$pair@$$CBHH@std@@@2@$0A@@std@@@std@@IAE?AV?$_Tree_iterator@V?$_Tree_val@U?$_Tree_simple_types@U?$pair@$$CBHH@std@@@std@@@std@@@1@_NPAU?$_Tree_node@U?$pair@$$CBHH@std@@PAX@1@AAU?$pair@$$CBHH@1@1@Z ; std::_Tree<std::_Tmap_traits<int,int,std::less<int>,std::allocator<std::pair<int const ,int> >,0> >::_Insert_at<std::pair<int const ,int> &,std::_Tree_node<std::pair<int const ,int>,void *> *>
  000c3	8b c6		 mov	 eax, esi

; 1792 : 			_STD forward<_Valty>(_Val), _Newnode).first);
; 1793 : 		}

  000c5	8b 4d f4	 mov	 ecx, DWORD PTR __$EHRec$[ebp+4]
  000c8	64 89 0d 00 00
	00 00		 mov	 DWORD PTR fs:0, ecx
  000cf	59		 pop	 ecx
  000d0	5f		 pop	 edi
  000d1	5e		 pop	 esi
  000d2	5b		 pop	 ebx
  000d3	8b e5		 mov	 esp, ebp
  000d5	5d		 pop	 ebp
  000d6	c2 10 00	 ret	 16			; 00000010H
$LN25@Insert_hin:
; File c:\program files (x86)\microsoft visual studio 14.0\vc\include\xstddef

; 240  : 		return (_Left < _Right);

  000d9	8b 03		 mov	 eax, DWORD PTR [ebx]
  000db	8b 4e 10	 mov	 ecx, DWORD PTR [esi+16]
  000de	3b c8		 cmp	 ecx, eax
; File c:\program files (x86)\microsoft visual studio 14.0\vc\include\xtree

; 1761 : 				&& _DEBUG_LT_PRED(this->_Getcomp(),

  000e0	7e 52		 jle	 SHORT $LN803@Insert_hin

; 272  : 		return (*this);
; 273  : 		}
; 274  : 
; 275  : 	_Myiter operator++(int)
; 276  : 		{	// postincrement
; 277  : 		_Myiter _Tmp = *this;
; 278  : 		++*this;
; 279  : 		return (_Tmp);
; 280  : 		}
; 281  : 
; 282  : 	_Myiter& operator--()
; 283  : 		{	// predecrement
; 284  :  #if _ITERATOR_DEBUG_LEVEL == 2
; 285  : 		if (this->_Getcont() == 0
; 286  : 			|| this->_Ptr == 0)
; 287  : 			{	// report error
; 288  : 			_DEBUG_ERROR("map/set iterator not decrementable");
; 289  : 			_SCL_SECURE_OUT_OF_RANGE;
; 290  : 			}
; 291  : 
; 292  : 		_Nodeptr _Ptrsav = this->_Ptr;
; 293  : 		--(*(_Mybase *)this);
; 294  : 		if (_Ptrsav == this->_Ptr)
; 295  : 			{	// report error
; 296  : 			_DEBUG_ERROR("map/set iterator not decrementable");
; 297  : 			_SCL_SECURE_OUT_OF_RANGE;
; 298  : 			}
; 299  : 
; 300  :  #elif _ITERATOR_DEBUG_LEVEL == 1
; 301  : 		_SCL_SECURE_VALIDATE(this->_Getcont() != 0 && this->_Ptr != 0);
; 302  : 
; 303  : 		_Nodeptr _Ptrsav = this->_Ptr;
; 304  : 		--(*(_Mybase *)this);
; 305  : 		_SCL_SECURE_VALIDATE(_Ptrsav != this->_Ptr);
; 306  : 
; 307  :  #else /* _ITERATOR_DEBUG_LEVEL == 0 */
; 308  : 		--(*(_Mybase *)this);

  000e2	8d 4d 10	 lea	 ecx, DWORD PTR __Next$[ebp]

; 1761 : 				&& _DEBUG_LT_PRED(this->_Getcomp(),

  000e5	89 75 10	 mov	 DWORD PTR __Next$[ebp], esi

; 272  : 		return (*this);
; 273  : 		}
; 274  : 
; 275  : 	_Myiter operator++(int)
; 276  : 		{	// postincrement
; 277  : 		_Myiter _Tmp = *this;
; 278  : 		++*this;
; 279  : 		return (_Tmp);
; 280  : 		}
; 281  : 
; 282  : 	_Myiter& operator--()
; 283  : 		{	// predecrement
; 284  :  #if _ITERATOR_DEBUG_LEVEL == 2
; 285  : 		if (this->_Getcont() == 0
; 286  : 			|| this->_Ptr == 0)
; 287  : 			{	// report error
; 288  : 			_DEBUG_ERROR("map/set iterator not decrementable");
; 289  : 			_SCL_SECURE_OUT_OF_RANGE;
; 290  : 			}
; 291  : 
; 292  : 		_Nodeptr _Ptrsav = this->_Ptr;
; 293  : 		--(*(_Mybase *)this);
; 294  : 		if (_Ptrsav == this->_Ptr)
; 295  : 			{	// report error
; 296  : 			_DEBUG_ERROR("map/set iterator not decrementable");
; 297  : 			_SCL_SECURE_OUT_OF_RANGE;
; 298  : 			}
; 299  : 
; 300  :  #elif _ITERATOR_DEBUG_LEVEL == 1
; 301  : 		_SCL_SECURE_VALIDATE(this->_Getcont() != 0 && this->_Ptr != 0);
; 302  : 
; 303  : 		_Nodeptr _Ptrsav = this->_Ptr;
; 304  : 		--(*(_Mybase *)this);
; 305  : 		_SCL_SECURE_VALIDATE(_Ptrsav != this->_Ptr);
; 306  : 
; 307  :  #else /* _ITERATOR_DEBUG_LEVEL == 0 */
; 308  : 		--(*(_Mybase *)this);

  000e8	e8 00 00 00 00	 call	 ??F?$_Tree_unchecked_const_iterator@V?$_Tree_val@U?$_Tree_simple_types@U?$pair@$$CBHH@std@@@std@@@std@@U_Iterator_base0@2@@std@@QAEAAV01@XZ ; std::_Tree_unchecked_const_iterator<std::_Tree_val<std::_Tree_simple_types<std::pair<int const ,int> > >,std::_Iterator_base0>::operator--
; File c:\program files (x86)\microsoft visual studio 14.0\vc\include\xstddef

; 240  : 		return (_Left < _Right);

  000ed	8b 45 10	 mov	 eax, DWORD PTR __Next$[ebp]
  000f0	8b 0b		 mov	 ecx, DWORD PTR [ebx]
  000f2	39 48 10	 cmp	 DWORD PTR [eax+16], ecx
; File c:\program files (x86)\microsoft visual studio 14.0\vc\include\xtree

; 1761 : 				&& _DEBUG_LT_PRED(this->_Getcomp(),

  000f5	7d 36		 jge	 SHORT $LN800@Insert_hin

; 1762 : 					this->_Key((--(_Next = _Where))._Mynode()),
; 1763 : 					this->_Kfn(_Val)))
; 1764 : 				{	// insert before _Where
; 1765 : 				if (this->_Isnil(this->_Right(_Next._Mynode())))

  000f7	8b 48 08	 mov	 ecx, DWORD PTR [eax+8]

; 1766 : 					return (_Insert_at(false, _Next._Mynode(),

  000fa	ff 75 14	 push	 DWORD PTR __Newnode$[ebp]
  000fd	53		 push	 ebx
  000fe	80 79 0d 00	 cmp	 BYTE PTR [ecx+13], 0
  00102	8b 4d ec	 mov	 ecx, DWORD PTR _this$1$[ebp]
  00105	0f 84 74 ff ff
	ff		 je	 $LN30@Insert_hin
  0010b	8b 75 08	 mov	 esi, DWORD PTR ___$ReturnUdt$[ebp]
  0010e	50		 push	 eax
  0010f	6a 00		 push	 0
  00111	56		 push	 esi
  00112	e8 00 00 00 00	 call	 ??$_Insert_at@AAU?$pair@$$CBHH@std@@PAU?$_Tree_node@U?$pair@$$CBHH@std@@PAX@2@@?$_Tree@V?$_Tmap_traits@HHU?$less@H@std@@V?$allocator@U?$pair@$$CBHH@std@@@2@$0A@@std@@@std@@IAE?AV?$_Tree_iterator@V?$_Tree_val@U?$_Tree_simple_types@U?$pair@$$CBHH@std@@@std@@@std@@@1@_NPAU?$_Tree_node@U?$pair@$$CBHH@std@@PAX@1@AAU?$pair@$$CBHH@1@1@Z ; std::_Tree<std::_Tmap_traits<int,int,std::less<int>,std::allocator<std::pair<int const ,int> >,0> >::_Insert_at<std::pair<int const ,int> &,std::_Tree_node<std::pair<int const ,int>,void *> *>
  00117	8b c6		 mov	 eax, esi

; 1792 : 			_STD forward<_Valty>(_Val), _Newnode).first);
; 1793 : 		}

  00119	8b 4d f4	 mov	 ecx, DWORD PTR __$EHRec$[ebp+4]
  0011c	64 89 0d 00 00
	00 00		 mov	 DWORD PTR fs:0, ecx
  00123	59		 pop	 ecx
  00124	5f		 pop	 edi
  00125	5e		 pop	 esi
  00126	5b		 pop	 ebx
  00127	8b e5		 mov	 esp, ebp
  00129	5d		 pop	 ebp
  0012a	c2 10 00	 ret	 16			; 00000010H
$LN800@Insert_hin:
  0012d	8b c1		 mov	 eax, ecx
  0012f	8b 4e 10	 mov	 ecx, DWORD PTR [esi+16]
; File c:\program files (x86)\microsoft visual studio 14.0\vc\include\xstddef

; 240  : 		return (_Left < _Right);

  00132	3b c8		 cmp	 ecx, eax
$LN803@Insert_hin:
; File c:\program files (x86)\microsoft visual studio 14.0\vc\include\xtree

; 1774 : 				&& (++(_Next = _Where) == end()

  00134	0f 8d 81 00 00
	00		 jge	 $LN35@Insert_hin

; 271  : 		++(*(_Mybase *)this);

  0013a	8d 4d 10	 lea	 ecx, DWORD PTR __Next$[ebp]

; 1774 : 				&& (++(_Next = _Where) == end()

  0013d	89 75 10	 mov	 DWORD PTR __Next$[ebp], esi

; 271  : 		++(*(_Mybase *)this);

  00140	e8 00 00 00 00	 call	 ??E?$_Tree_unchecked_const_iterator@V?$_Tree_val@U?$_Tree_simple_types@U?$pair@$$CBHH@std@@@std@@@std@@U_Iterator_base0@2@@std@@QAEAAV01@XZ ; std::_Tree_unchecked_const_iterator<std::_Tree_val<std::_Tree_simple_types<std::pair<int const ,int> > >,std::_Iterator_base0>::operator++

; 334  : 		return (this->_Ptr == _Right._Ptr);

  00145	8b 45 10	 mov	 eax, DWORD PTR __Next$[ebp]
  00148	3b c7		 cmp	 eax, edi

; 1774 : 				&& (++(_Next = _Where) == end()

  0014a	74 07		 je	 SHORT $LN33@Insert_hin
; File c:\program files (x86)\microsoft visual studio 14.0\vc\include\xstddef

; 240  : 		return (_Left < _Right);

  0014c	8b 0b		 mov	 ecx, DWORD PTR [ebx]
  0014e	3b 48 10	 cmp	 ecx, DWORD PTR [eax+16]
; File c:\program files (x86)\microsoft visual studio 14.0\vc\include\xtree

; 1774 : 				&& (++(_Next = _Where) == end()

  00151	7d 68		 jge	 SHORT $LN35@Insert_hin
$LN33@Insert_hin:

; 1775 : 					|| _DEBUG_LT_PRED(this->_Getcomp(),
; 1776 : 						this->_Kfn(_Val), this->_Key(_Next._Mynode()))))
; 1777 : 				{	// insert after _Where
; 1778 : 				if (this->_Isnil(this->_Right(_Where._Mynode())))

  00153	8b 4e 08	 mov	 ecx, DWORD PTR [esi+8]

; 1779 : 					return (_Insert_at(false, _Where._Mynode(),

  00156	ff 75 14	 push	 DWORD PTR __Newnode$[ebp]
  00159	53		 push	 ebx
  0015a	80 79 0d 00	 cmp	 BYTE PTR [ecx+13], 0
  0015e	8b 4d ec	 mov	 ecx, DWORD PTR _this$1$[ebp]
  00161	74 22		 je	 SHORT $LN34@Insert_hin
  00163	56		 push	 esi
  00164	8b 75 08	 mov	 esi, DWORD PTR ___$ReturnUdt$[ebp]
  00167	6a 00		 push	 0
  00169	56		 push	 esi
  0016a	e8 00 00 00 00	 call	 ??$_Insert_at@AAU?$pair@$$CBHH@std@@PAU?$_Tree_node@U?$pair@$$CBHH@std@@PAX@2@@?$_Tree@V?$_Tmap_traits@HHU?$less@H@std@@V?$allocator@U?$pair@$$CBHH@std@@@2@$0A@@std@@@std@@IAE?AV?$_Tree_iterator@V?$_Tree_val@U?$_Tree_simple_types@U?$pair@$$CBHH@std@@@std@@@std@@@1@_NPAU?$_Tree_node@U?$pair@$$CBHH@std@@PAX@1@AAU?$pair@$$CBHH@1@1@Z ; std::_Tree<std::_Tmap_traits<int,int,std::less<int>,std::allocator<std::pair<int const ,int> >,0> >::_Insert_at<std::pair<int const ,int> &,std::_Tree_node<std::pair<int const ,int>,void *> *>
  0016f	8b c6		 mov	 eax, esi

; 1792 : 			_STD forward<_Valty>(_Val), _Newnode).first);
; 1793 : 		}

  00171	8b 4d f4	 mov	 ecx, DWORD PTR __$EHRec$[ebp+4]
  00174	64 89 0d 00 00
	00 00		 mov	 DWORD PTR fs:0, ecx
  0017b	59		 pop	 ecx
  0017c	5f		 pop	 edi
  0017d	5e		 pop	 esi
  0017e	5b		 pop	 ebx
  0017f	8b e5		 mov	 esp, ebp
  00181	5d		 pop	 ebp
  00182	c2 10 00	 ret	 16			; 00000010H
$LN34@Insert_hin:

; 1780 : 						_STD forward<_Valty>(_Val), _Newnode));
; 1781 : 				else
; 1782 : 					return (_Insert_at(true, _Next._Mynode(),

  00185	8b 75 08	 mov	 esi, DWORD PTR ___$ReturnUdt$[ebp]
  00188	50		 push	 eax
  00189	6a 01		 push	 1
  0018b	56		 push	 esi
  0018c	e8 00 00 00 00	 call	 ??$_Insert_at@AAU?$pair@$$CBHH@std@@PAU?$_Tree_node@U?$pair@$$CBHH@std@@PAX@2@@?$_Tree@V?$_Tmap_traits@HHU?$less@H@std@@V?$allocator@U?$pair@$$CBHH@std@@@2@$0A@@std@@@std@@IAE?AV?$_Tree_iterator@V?$_Tree_val@U?$_Tree_simple_types@U?$pair@$$CBHH@std@@@std@@@std@@@1@_NPAU?$_Tree_node@U?$pair@$$CBHH@std@@PAX@1@AAU?$pair@$$CBHH@1@1@Z ; std::_Tree<std::_Tmap_traits<int,int,std::less<int>,std::allocator<std::pair<int const ,int> >,0> >::_Insert_at<std::pair<int const ,int> &,std::_Tree_node<std::pair<int const ,int>,void *> *>
  00191	8b c6		 mov	 eax, esi

; 1792 : 			_STD forward<_Valty>(_Val), _Newnode).first);
; 1793 : 		}

  00193	8b 4d f4	 mov	 ecx, DWORD PTR __$EHRec$[ebp+4]
  00196	64 89 0d 00 00
	00 00		 mov	 DWORD PTR fs:0, ecx
  0019d	59		 pop	 ecx
  0019e	5f		 pop	 edi
  0019f	5e		 pop	 esi
  001a0	5b		 pop	 ebx
  001a1	8b e5		 mov	 esp, ebp
  001a3	5d		 pop	 ebp
  001a4	c2 10 00	 ret	 16			; 00000010H
__catch$??$_Insert_hint@AAU?$pair@$$CBHH@std@@PAU?$_Tree_node@U?$pair@$$CBHH@std@@PAX@2@@?$_Tree@V?$_Tmap_traits@HHU?$less@H@std@@V?$allocator@U?$pair@$$CBHH@std@@@2@$0A@@std@@@std@@IAE?AV?$_Tree_iterator@V?$_Tree_val@U?$_Tree_simple_types@U?$pair@$$CBHH@std@@@std@@@std@@@1@V?$_Tree_const_iterator@V?$_Tree_val@U?$_Tree_simple_types@U?$pair@$$CBHH@std@@@std@@@std@@@1@AAU?$pair@$$CBHH@1@PAU?$_Tree_node@U?$pair@$$CBHH@std@@PAX@1@@Z$0:
; File c:\program files (x86)\microsoft visual studio 14.0\vc\include\xmemory0

; 138  : 	::operator delete(_Ptr);

  001a7	ff 75 14	 push	 DWORD PTR __Newnode$[ebp]
  001aa	e8 00 00 00 00	 call	 ??3@YAXPAX@Z		; operator delete
  001af	83 c4 04	 add	 esp, 4
; File c:\program files (x86)\microsoft visual studio 14.0\vc\include\xtree

; 1788 : 		_RERAISE;

  001b2	6a 00		 push	 0
  001b4	6a 00		 push	 0
  001b6	e8 00 00 00 00	 call	 __CxxThrowException@8
$LN804@Insert_hin:
$LN35@Insert_hin:

; 1789 : 		_CATCH_END
; 1790 : 
; 1791 : 		return (_Insert_nohint(_Leftish,

  001bb	ff 75 14	 push	 DWORD PTR __Newnode$[ebp]
  001be	8b 4d ec	 mov	 ecx, DWORD PTR _this$1$[ebp]
  001c1	8d 45 e4	 lea	 eax, DWORD PTR $T2[ebp]
  001c4	53		 push	 ebx
  001c5	6a 00		 push	 0
  001c7	50		 push	 eax
  001c8	c7 45 fc ff ff
	ff ff		 mov	 DWORD PTR __$EHRec$[ebp+12], -1
  001cf	e8 00 00 00 00	 call	 ??$_Insert_nohint@AAU?$pair@$$CBHH@std@@PAU?$_Tree_node@U?$pair@$$CBHH@std@@PAX@2@@?$_Tree@V?$_Tmap_traits@HHU?$less@H@std@@V?$allocator@U?$pair@$$CBHH@std@@@2@$0A@@std@@@std@@IAE?AU?$pair@V?$_Tree_iterator@V?$_Tree_val@U?$_Tree_simple_types@U?$pair@$$CBHH@std@@@std@@@std@@@std@@_N@1@_NAAU?$pair@$$CBHH@1@PAU?$_Tree_node@U?$pair@$$CBHH@std@@PAX@1@@Z ; std::_Tree<std::_Tmap_traits<int,int,std::less<int>,std::allocator<std::pair<int const ,int> >,0> >::_Insert_nohint<std::pair<int const ,int> &,std::_Tree_node<std::pair<int const ,int>,void *> *>
  001d4	8b 08		 mov	 ecx, DWORD PTR [eax]
  001d6	8b 45 08	 mov	 eax, DWORD PTR ___$ReturnUdt$[ebp]
  001d9	89 08		 mov	 DWORD PTR [eax], ecx

; 1792 : 			_STD forward<_Valty>(_Val), _Newnode).first);
; 1793 : 		}

  001db	8b 4d f4	 mov	 ecx, DWORD PTR __$EHRec$[ebp+4]
  001de	64 89 0d 00 00
	00 00		 mov	 DWORD PTR fs:0, ecx
  001e5	59		 pop	 ecx
  001e6	5f		 pop	 edi
  001e7	5e		 pop	 esi
  001e8	5b		 pop	 ebx
  001e9	8b e5		 mov	 esp, ebp
  001eb	5d		 pop	 ebp
  001ec	c2 10 00	 ret	 16			; 00000010H
$LN802@Insert_hin:
_TEXT	ENDS
;	COMDAT text$x
text$x	SEGMENT
__ehhandler$??$_Insert_hint@AAU?$pair@$$CBHH@std@@PAU?$_Tree_node@U?$pair@$$CBHH@std@@PAX@2@@?$_Tree@V?$_Tmap_traits@HHU?$less@H@std@@V?$allocator@U?$pair@$$CBHH@std@@@2@$0A@@std@@@std@@IAE?AV?$_Tree_iterator@V?$_Tree_val@U?$_Tree_simple_types@U?$pair@$$CBHH@std@@@std@@@std@@@1@V?$_Tree_const_iterator@V?$_Tree_val@U?$_Tree_simple_types@U?$pair@$$CBHH@std@@@std@@@std@@@1@AAU?$pair@$$CBHH@1@PAU?$_Tree_node@U?$pair@$$CBHH@std@@PAX@1@@Z:
  00000	8b 54 24 08	 mov	 edx, DWORD PTR [esp+8]
  00004	8d 42 0c	 lea	 eax, DWORD PTR [edx+12]
  00007	8b 4a e0	 mov	 ecx, DWORD PTR [edx-32]
  0000a	33 c8		 xor	 ecx, eax
  0000c	e8 00 00 00 00	 call	 @__security_check_cookie@4
  00011	b8 00 00 00 00	 mov	 eax, OFFSET __ehfuncinfo$??$_Insert_hint@AAU?$pair@$$CBHH@std@@PAU?$_Tree_node@U?$pair@$$CBHH@std@@PAX@2@@?$_Tree@V?$_Tmap_traits@HHU?$less@H@std@@V?$allocator@U?$pair@$$CBHH@std@@@2@$0A@@std@@@std@@IAE?AV?$_Tree_iterator@V?$_Tree_val@U?$_Tree_simple_types@U?$pair@$$CBHH@std@@@std@@@std@@@1@V?$_Tree_const_iterator@V?$_Tree_val@U?$_Tree_simple_types@U?$pair@$$CBHH@std@@@std@@@std@@@1@AAU?$pair@$$CBHH@1@PAU?$_Tree_node@U?$pair@$$CBHH@std@@PAX@1@@Z
  00016	e9 00 00 00 00	 jmp	 ___CxxFrameHandler3
text$x	ENDS
??$_Insert_hint@AAU?$pair@$$CBHH@std@@PAU?$_Tree_node@U?$pair@$$CBHH@std@@PAX@2@@?$_Tree@V?$_Tmap_traits@HHU?$less@H@std@@V?$allocator@U?$pair@$$CBHH@std@@@2@$0A@@std@@@std@@IAE?AV?$_Tree_iterator@V?$_Tree_val@U?$_Tree_simple_types@U?$pair@$$CBHH@std@@@std@@@std@@@1@V?$_Tree_const_iterator@V?$_Tree_val@U?$_Tree_simple_types@U?$pair@$$CBHH@std@@@std@@@std@@@1@AAU?$pair@$$CBHH@1@PAU?$_Tree_node@U?$pair@$$CBHH@std@@PAX@1@@Z ENDP ; std::_Tree<std::_Tmap_traits<int,int,std::less<int>,std::allocator<std::pair<int const ,int> >,0> >::_Insert_hint<std::pair<int const ,int> &,std::_Tree_node<std::pair<int const ,int>,void *> *>
; Function compile flags: /Ogtp
; File c:\program files (x86)\microsoft visual studio 14.0\vc\include\xtree
; File c:\program files (x86)\microsoft visual studio 14.0\vc\include\xmemory0
; File c:\users\michel\desktop\source\gameserver\source\trandompoolmgr.cpp
; File c:\program files (x86)\microsoft visual studio 14.0\vc\include\tuple
; File c:\program files (x86)\microsoft visual studio 14.0\vc\include\xtree
;	COMDAT ??$_Buynode@ABUpiecewise_construct_t@std@@V?$tuple@ABH@2@V?$tuple@$$V@2@@?$_Tree_comp_alloc@V?$_Tmap_traits@HHU?$less@H@std@@V?$allocator@U?$pair@$$CBHH@std@@@2@$0A@@std@@@std@@QAEPAU?$_Tree_node@U?$pair@$$CBHH@std@@PAX@1@ABUpiecewise_construct_t@1@$$QAV?$tuple@ABH@1@$$QAV?$tuple@$$V@1@@Z
_TEXT	SEGMENT
_<_Val_0>$ = 8						; size = 4
_<_Val_1>$ = 12						; size = 4
_<_Val_2>$ = 16						; size = 4
??$_Buynode@ABUpiecewise_construct_t@std@@V?$tuple@ABH@2@V?$tuple@$$V@2@@?$_Tree_comp_alloc@V?$_Tmap_traits@HHU?$less@H@std@@V?$allocator@U?$pair@$$CBHH@std@@@2@$0A@@std@@@std@@QAEPAU?$_Tree_node@U?$pair@$$CBHH@std@@PAX@1@ABUpiecewise_construct_t@1@$$QAV?$tuple@ABH@1@$$QAV?$tuple@$$V@1@@Z PROC ; std::_Tree_comp_alloc<std::_Tmap_traits<int,int,std::less<int>,std::allocator<std::pair<int const ,int> >,0> >::_Buynode<std::piecewise_construct_t const &,std::tuple<int const &>,std::tuple<> >, COMDAT
; _this$ = ecx

; 887  : 		{	// allocate a node with defaults and set links and value

  00000	55		 push	 ebp
  00001	8b ec		 mov	 ebp, esp

; 888  : 		_Nodeptr _Pnode = _Buynode0();

  00003	e8 00 00 00 00	 call	 ?_Buynode0@?$_Tree_comp_alloc@V?$_Tmap_traits@HHU?$less@H@std@@V?$allocator@U?$pair@$$CBHH@std@@@2@$0A@@std@@@std@@QAEPAU?$_Tree_node@U?$pair@$$CBHH@std@@PAX@2@XZ ; std::_Tree_comp_alloc<std::_Tmap_traits<int,int,std::less<int>,std::allocator<std::pair<int const ,int> >,0> >::_Buynode0

; 602  : 		return ((reference)_Pnode->_Myval);

  00008	8d 50 10	 lea	 edx, DWORD PTR [eax+16]

; 889  : 
; 890  : 		this->_Color(_Pnode) = _Red;

  0000b	66 c7 40 0c 00
	00		 mov	 WORD PTR [eax+12], 0
; File c:\program files (x86)\microsoft visual studio 14.0\vc\include\xmemory0

; 655  : 		::new ((void *)_Ptr) _Objty(_STD forward<_Types>(_Args)...);

  00011	85 d2		 test	 edx, edx
  00013	74 10		 je	 SHORT $LN68@Buynode
; File c:\users\michel\desktop\source\gameserver\source\trandompoolmgr.cpp

  00015	8b 4d 0c	 mov	 ecx, DWORD PTR _<_Val_1>$[ebp]
  00018	8b 09		 mov	 ecx, DWORD PTR [ecx]
; File c:\program files (x86)\microsoft visual studio 14.0\vc\include\tuple

; 827  : 		: first(_STD get<_Indexes1>(_STD move(_Val1))...),

  0001a	8b 09		 mov	 ecx, DWORD PTR [ecx]
  0001c	89 0a		 mov	 DWORD PTR [edx], ecx

; 828  : 			second(_STD get<_Indexes2>(_STD move(_Val2))...)

  0001e	c7 42 04 00 00
	00 00		 mov	 DWORD PTR [edx+4], 0
$LN68@Buynode:
; File c:\program files (x86)\microsoft visual studio 14.0\vc\include\xtree

; 903  : 		}

  00025	5d		 pop	 ebp
  00026	c2 0c 00	 ret	 12			; 0000000cH
??$_Buynode@ABUpiecewise_construct_t@std@@V?$tuple@ABH@2@V?$tuple@$$V@2@@?$_Tree_comp_alloc@V?$_Tmap_traits@HHU?$less@H@std@@V?$allocator@U?$pair@$$CBHH@std@@@2@$0A@@std@@@std@@QAEPAU?$_Tree_node@U?$pair@$$CBHH@std@@PAX@1@ABUpiecewise_construct_t@1@$$QAV?$tuple@ABH@1@$$QAV?$tuple@$$V@1@@Z ENDP ; std::_Tree_comp_alloc<std::_Tmap_traits<int,int,std::less<int>,std::allocator<std::pair<int const ,int> >,0> >::_Buynode<std::piecewise_construct_t const &,std::tuple<int const &>,std::tuple<> >
_TEXT	ENDS
; Function compile flags: /Ogtp
; File c:\program files (x86)\microsoft visual studio 14.0\vc\include\type_traits
;	COMDAT ??$forward@V?$tuple@$$V@std@@@std@@YA$$QAV?$tuple@$$V@0@AAV10@@Z
_TEXT	SEGMENT
__Arg$ = 8						; size = 4
??$forward@V?$tuple@$$V@std@@@std@@YA$$QAV?$tuple@$$V@0@AAV10@@Z PROC ; std::forward<std::tuple<> >, COMDAT

; 1233 : 	{	// forward an lvalue as either an lvalue or an rvalue

  00000	55		 push	 ebp
  00001	8b ec		 mov	 ebp, esp

; 1234 : 	return (static_cast<_Ty&&>(_Arg));

  00003	8b 45 08	 mov	 eax, DWORD PTR __Arg$[ebp]

; 1235 : 	}

  00006	5d		 pop	 ebp
  00007	c3		 ret	 0
??$forward@V?$tuple@$$V@std@@@std@@YA$$QAV?$tuple@$$V@0@AAV10@@Z ENDP ; std::forward<std::tuple<> >
_TEXT	ENDS
; Function compile flags: /Ogtp
; File c:\program files (x86)\microsoft visual studio 14.0\vc\include\type_traits
;	COMDAT ??$forward@V?$tuple@ABH@std@@@std@@YA$$QAV?$tuple@ABH@0@AAV10@@Z
_TEXT	SEGMENT
__Arg$ = 8						; size = 4
??$forward@V?$tuple@ABH@std@@@std@@YA$$QAV?$tuple@ABH@0@AAV10@@Z PROC ; std::forward<std::tuple<int const &> >, COMDAT

; 1233 : 	{	// forward an lvalue as either an lvalue or an rvalue

  00000	55		 push	 ebp
  00001	8b ec		 mov	 ebp, esp

; 1234 : 	return (static_cast<_Ty&&>(_Arg));

  00003	8b 45 08	 mov	 eax, DWORD PTR __Arg$[ebp]

; 1235 : 	}

  00006	5d		 pop	 ebp
  00007	c3		 ret	 0
??$forward@V?$tuple@ABH@std@@@std@@YA$$QAV?$tuple@ABH@0@AAV10@@Z ENDP ; std::forward<std::tuple<int const &> >
_TEXT	ENDS
; Function compile flags: /Ogtp
; File c:\program files (x86)\microsoft visual studio 14.0\vc\include\type_traits
;	COMDAT ??$forward@ABUpiecewise_construct_t@std@@@std@@YAABUpiecewise_construct_t@0@ABU10@@Z
_TEXT	SEGMENT
__Arg$ = 8						; size = 4
??$forward@ABUpiecewise_construct_t@std@@@std@@YAABUpiecewise_construct_t@0@ABU10@@Z PROC ; std::forward<std::piecewise_construct_t const &>, COMDAT

; 1233 : 	{	// forward an lvalue as either an lvalue or an rvalue

  00000	55		 push	 ebp
  00001	8b ec		 mov	 ebp, esp

; 1234 : 	return (static_cast<_Ty&&>(_Arg));

  00003	8b 45 08	 mov	 eax, DWORD PTR __Arg$[ebp]

; 1235 : 	}

  00006	5d		 pop	 ebp
  00007	c3		 ret	 0
??$forward@ABUpiecewise_construct_t@std@@@std@@YAABUpiecewise_construct_t@0@ABU10@@Z ENDP ; std::forward<std::piecewise_construct_t const &>
_TEXT	ENDS
; Function compile flags: /Ogtp
; File c:\program files (x86)\microsoft visual studio 14.0\vc\include\type_traits
;	COMDAT ??$forward@ABH@std@@YAABHABH@Z
_TEXT	SEGMENT
__Arg$ = 8						; size = 4
??$forward@ABH@std@@YAABHABH@Z PROC			; std::forward<int const &>, COMDAT

; 1233 : 	{	// forward an lvalue as either an lvalue or an rvalue

  00000	55		 push	 ebp
  00001	8b ec		 mov	 ebp, esp

; 1234 : 	return (static_cast<_Ty&&>(_Arg));

  00003	8b 45 08	 mov	 eax, DWORD PTR __Arg$[ebp]

; 1235 : 	}

  00006	5d		 pop	 ebp
  00007	c3		 ret	 0
??$forward@ABH@std@@YAABHABH@Z ENDP			; std::forward<int const &>
_TEXT	ENDS
; Function compile flags: /Ogtp
; File c:\program files (x86)\microsoft visual studio 14.0\vc\include\xmemory0
;	COMDAT ??$construct@PAU?$_Tree_node@U?$pair@$$CBHH@std@@PAX@std@@AAPAU12@@?$_Wrap_alloc@V?$allocator@U?$_Tree_node@U?$pair@$$CBHH@std@@PAX@std@@@std@@@std@@QAEXPAPAU?$_Tree_node@U?$pair@$$CBHH@std@@PAX@1@AAPAU21@@Z
_TEXT	SEGMENT
__Ptr$ = 8						; size = 4
_<_Args_0>$ = 12					; size = 4
??$construct@PAU?$_Tree_node@U?$pair@$$CBHH@std@@PAX@std@@AAPAU12@@?$_Wrap_alloc@V?$allocator@U?$_Tree_node@U?$pair@$$CBHH@std@@PAX@std@@@std@@@std@@QAEXPAPAU?$_Tree_node@U?$pair@$$CBHH@std@@PAX@1@AAPAU21@@Z PROC ; std::_Wrap_alloc<std::allocator<std::_Tree_node<std::pair<int const ,int>,void *> > >::construct<std::_Tree_node<std::pair<int const ,int>,void *> *,std::_Tree_node<std::pair<int const ,int>,void *> * &>, COMDAT
; _this$ = ecx

; 916  : 		{	// construct _Ty(_Types...) at _Ptr

  00000	55		 push	 ebp
  00001	8b ec		 mov	 ebp, esp

; 655  : 		::new ((void *)_Ptr) _Objty(_STD forward<_Types>(_Args)...);

  00003	8b 4d 08	 mov	 ecx, DWORD PTR __Ptr$[ebp]
  00006	85 c9		 test	 ecx, ecx
  00008	74 07		 je	 SHORT $LN13@construct
  0000a	8b 45 0c	 mov	 eax, DWORD PTR _<_Args_0>$[ebp]
  0000d	8b 00		 mov	 eax, DWORD PTR [eax]
  0000f	89 01		 mov	 DWORD PTR [ecx], eax
$LN13@construct:

; 917  : 		_Mytraits::construct(*this, _Ptr,
; 918  : 			_STD forward<_Types>(_Args)...);
; 919  : 		}

  00011	5d		 pop	 ebp
  00012	c2 08 00	 ret	 8
??$construct@PAU?$_Tree_node@U?$pair@$$CBHH@std@@PAX@std@@AAPAU12@@?$_Wrap_alloc@V?$allocator@U?$_Tree_node@U?$pair@$$CBHH@std@@PAX@std@@@std@@@std@@QAEXPAPAU?$_Tree_node@U?$pair@$$CBHH@std@@PAX@1@AAPAU21@@Z ENDP ; std::_Wrap_alloc<std::allocator<std::_Tree_node<std::pair<int const ,int>,void *> > >::construct<std::_Tree_node<std::pair<int const ,int>,void *> *,std::_Tree_node<std::pair<int const ,int>,void *> * &>
_TEXT	ENDS
; Function compile flags: /Ogtp
; File c:\program files (x86)\microsoft visual studio 14.0\vc\include\map
;	COMDAT ??$_Kfn@$$CBHH@?$_Tmap_traits@HHU?$less@H@std@@V?$allocator@U?$pair@$$CBHH@std@@@2@$0A@@std@@SAABHABU?$pair@$$CBHH@1@@Z
_TEXT	SEGMENT
__Val$ = 8						; size = 4
??$_Kfn@$$CBHH@?$_Tmap_traits@HHU?$less@H@std@@V?$allocator@U?$pair@$$CBHH@std@@@2@$0A@@std@@SAABHABU?$pair@$$CBHH@1@@Z PROC ; std::_Tmap_traits<int,int,std::less<int>,std::allocator<std::pair<int const ,int> >,0>::_Kfn<int const ,int>, COMDAT

; 61   : 		{	// extract key from element value

  00000	55		 push	 ebp
  00001	8b ec		 mov	 ebp, esp

; 62   : 		return (_Val.first);

  00003	8b 45 08	 mov	 eax, DWORD PTR __Val$[ebp]

; 63   : 		}

  00006	5d		 pop	 ebp
  00007	c3		 ret	 0
??$_Kfn@$$CBHH@?$_Tmap_traits@HHU?$less@H@std@@V?$allocator@U?$pair@$$CBHH@std@@@2@$0A@@std@@SAABHABU?$pair@$$CBHH@1@@Z ENDP ; std::_Tmap_traits<int,int,std::less<int>,std::allocator<std::pair<int const ,int> >,0>::_Kfn<int const ,int>
_TEXT	ENDS
; Function compile flags: /Ogtp
; File c:\program files (x86)\microsoft visual studio 14.0\vc\include\xutility
; File c:\program files (x86)\microsoft visual studio 14.0\vc\include\xtree
; File c:\program files (x86)\microsoft visual studio 14.0\vc\include\xutility
; File c:\program files (x86)\microsoft visual studio 14.0\vc\include\xtree
; File c:\program files (x86)\microsoft visual studio 14.0\vc\include\xutility
;	COMDAT ??$?0ABU?$less@H@std@@U_One_then_variadic_args_t@1@ABV?$allocator@U?$pair@$$CBHH@std@@@1@@?$_Compressed_pair@U?$less@H@std@@V?$_Compressed_pair@U?$_Wrap_alloc@V?$allocator@U?$_Tree_node@U?$pair@$$CBHH@std@@PAX@std@@@std@@@std@@V?$_Tree_val@U?$_Tree_simple_types@U?$pair@$$CBHH@std@@@std@@@2@$00@2@$00@std@@QAE@U_One_then_variadic_args_t@1@ABU?$less@H@1@$$QAU21@ABV?$allocator@U?$pair@$$CBHH@std@@@1@@Z
_TEXT	SEGMENT
___formal$ = 8						; size = 1
__Val1$ = 12						; size = 4
_<_Val2_0>$ = 16					; size = 4
_<_Val2_1>$ = 20					; size = 4
??$?0ABU?$less@H@std@@U_One_then_variadic_args_t@1@ABV?$allocator@U?$pair@$$CBHH@std@@@1@@?$_Compressed_pair@U?$less@H@std@@V?$_Compressed_pair@U?$_Wrap_alloc@V?$allocator@U?$_Tree_node@U?$pair@$$CBHH@std@@PAX@std@@@std@@@std@@V?$_Tree_val@U?$_Tree_simple_types@U?$pair@$$CBHH@std@@@std@@@2@$00@2@$00@std@@QAE@U_One_then_variadic_args_t@1@ABU?$less@H@1@$$QAU21@ABV?$allocator@U?$pair@$$CBHH@std@@@1@@Z PROC ; std::_Compressed_pair<std::less<int>,std::_Compressed_pair<std::_Wrap_alloc<std::allocator<std::_Tree_node<std::pair<int const ,int>,void *> > >,std::_Tree_val<std::_Tree_simple_types<std::pair<int const ,int> > >,1>,1>::_Compressed_pair<std::less<int>,std::_Compressed_pair<std::_Wrap_alloc<std::allocator<std::_Tree_node<std::pair<int const ,int>,void *> > >,std::_Tree_val<std::_Tree_simple_types<std::pair<int const ,int> > >,1>,1><std::less<int> const &,std::_One_then_variadic_args_t,std::allocator<std::pair<int const ,int> > const &>, COMDAT
; _this$ = ecx
; File c:\program files (x86)\microsoft visual studio 14.0\vc\include\xtree

; 567  : 		this->_Myhead = 0;

  00000	c7 01 00 00 00
	00		 mov	 DWORD PTR [ecx], 0
; File c:\program files (x86)\microsoft visual studio 14.0\vc\include\xutility

; 289  : 		}

  00006	8b c1		 mov	 eax, ecx
; File c:\program files (x86)\microsoft visual studio 14.0\vc\include\xtree

; 568  : 		this->_Mysize = 0;

  00008	c7 41 04 00 00
	00 00		 mov	 DWORD PTR [ecx+4], 0
; File c:\program files (x86)\microsoft visual studio 14.0\vc\include\xutility

; 289  : 		}

  0000f	c2 10 00	 ret	 16			; 00000010H
??$?0ABU?$less@H@std@@U_One_then_variadic_args_t@1@ABV?$allocator@U?$pair@$$CBHH@std@@@1@@?$_Compressed_pair@U?$less@H@std@@V?$_Compressed_pair@U?$_Wrap_alloc@V?$allocator@U?$_Tree_node@U?$pair@$$CBHH@std@@PAX@std@@@std@@@std@@V?$_Tree_val@U?$_Tree_simple_types@U?$pair@$$CBHH@std@@@std@@@2@$00@2@$00@std@@QAE@U_One_then_variadic_args_t@1@ABU?$less@H@1@$$QAU21@ABV?$allocator@U?$pair@$$CBHH@std@@@1@@Z ENDP ; std::_Compressed_pair<std::less<int>,std::_Compressed_pair<std::_Wrap_alloc<std::allocator<std::_Tree_node<std::pair<int const ,int>,void *> > >,std::_Tree_val<std::_Tree_simple_types<std::pair<int const ,int> > >,1>,1>::_Compressed_pair<std::less<int>,std::_Compressed_pair<std::_Wrap_alloc<std::allocator<std::_Tree_node<std::pair<int const ,int>,void *> > >,std::_Tree_val<std::_Tree_simple_types<std::pair<int const ,int> > >,1>,1><std::less<int> const &,std::_One_then_variadic_args_t,std::allocator<std::pair<int const ,int> > const &>
_TEXT	ENDS
; Function compile flags: /Ogtp
; File c:\program files (x86)\microsoft visual studio 14.0\vc\include\xmemory0
;	COMDAT ??$destroy@PAU?$_Tree_node@U?$pair@$$CBHH@std@@PAX@std@@@?$_Wrap_alloc@V?$allocator@U?$_Tree_node@U?$pair@$$CBHH@std@@PAX@std@@@std@@@std@@QAEXPAPAU?$_Tree_node@U?$pair@$$CBHH@std@@PAX@1@@Z
_TEXT	SEGMENT
__Ptr$ = 8						; size = 4
??$destroy@PAU?$_Tree_node@U?$pair@$$CBHH@std@@PAX@std@@@?$_Wrap_alloc@V?$allocator@U?$_Tree_node@U?$pair@$$CBHH@std@@PAX@std@@@std@@@std@@QAEXPAPAU?$_Tree_node@U?$pair@$$CBHH@std@@PAX@1@@Z PROC ; std::_Wrap_alloc<std::allocator<std::_Tree_node<std::pair<int const ,int>,void *> > >::destroy<std::_Tree_node<std::pair<int const ,int>,void *> *>, COMDAT
; _this$ = ecx

; 925  : 		_Mytraits::destroy(*this, _Ptr);
; 926  : 		}

  00000	c2 04 00	 ret	 4
??$destroy@PAU?$_Tree_node@U?$pair@$$CBHH@std@@PAX@std@@@?$_Wrap_alloc@V?$allocator@U?$_Tree_node@U?$pair@$$CBHH@std@@PAX@std@@@std@@@std@@QAEXPAPAU?$_Tree_node@U?$pair@$$CBHH@std@@PAX@1@@Z ENDP ; std::_Wrap_alloc<std::allocator<std::_Tree_node<std::pair<int const ,int>,void *> > >::destroy<std::_Tree_node<std::pair<int const ,int>,void *> *>
_TEXT	ENDS
; Function compile flags: /Ogtp
; File c:\program files (x86)\microsoft visual studio 14.0\vc\include\xstddef
;	COMDAT ??$addressof@PAU?$_Tree_node@U?$pair@$$CBHH@std@@PAX@std@@@std@@YAPAPAU?$_Tree_node@U?$pair@$$CBHH@std@@PAX@0@AAPAU10@@Z
_TEXT	SEGMENT
__Val$ = 8						; size = 4
??$addressof@PAU?$_Tree_node@U?$pair@$$CBHH@std@@PAX@std@@@std@@YAPAPAU?$_Tree_node@U?$pair@$$CBHH@std@@PAX@0@AAPAU10@@Z PROC ; std::addressof<std::_Tree_node<std::pair<int const ,int>,void *> *>, COMDAT

; 696  : 	{	// return address of _Val

  00000	55		 push	 ebp
  00001	8b ec		 mov	 ebp, esp

; 697  : 	return (_Addressof(_Val, is_function<_Ty>()));

  00003	8b 45 08	 mov	 eax, DWORD PTR __Val$[ebp]

; 698  : 	}

  00006	5d		 pop	 ebp
  00007	c3		 ret	 0
??$addressof@PAU?$_Tree_node@U?$pair@$$CBHH@std@@PAX@std@@@std@@YAPAPAU?$_Tree_node@U?$pair@$$CBHH@std@@PAX@0@AAPAU10@@Z ENDP ; std::addressof<std::_Tree_node<std::pair<int const ,int>,void *> *>
_TEXT	ENDS
; Function compile flags: /Ogtp
; File c:\program files (x86)\microsoft visual studio 14.0\vc\include\xtree
; File c:\program files (x86)\microsoft visual studio 14.0\vc\include\xstddef
; File c:\program files (x86)\microsoft visual studio 14.0\vc\include\xtree
;	COMDAT ??$_Lbound@H@?$_Tree@V?$_Tmap_traits@HHU?$less@H@std@@V?$allocator@U?$pair@$$CBHH@std@@@2@$0A@@std@@@std@@IBEPAU?$_Tree_node@U?$pair@$$CBHH@std@@PAX@1@ABH@Z
_TEXT	SEGMENT
__Keyval$ = 8						; size = 4
??$_Lbound@H@?$_Tree@V?$_Tmap_traits@HHU?$less@H@std@@V?$allocator@U?$pair@$$CBHH@std@@@2@$0A@@std@@@std@@IBEPAU?$_Tree_node@U?$pair@$$CBHH@std@@PAX@1@ABH@Z PROC ; std::_Tree<std::_Tmap_traits<int,int,std::less<int>,std::allocator<std::pair<int const ,int> >,0> >::_Lbound<int>, COMDAT
; _this$ = ecx

; 2087 : 		{	// find leftmost node not less than _Keyval

  00000	55		 push	 ebp
  00001	8b ec		 mov	 ebp, esp

; 592  : 		return ((_Nodepref)_Pnode->_Parent);

  00003	8b 11		 mov	 edx, DWORD PTR [ecx]

; 2088 : 		_Nodeptr _Pnode = _Root();

  00005	8b 42 04	 mov	 eax, DWORD PTR [edx+4]

; 2089 : 		_Nodeptr _Wherenode = this->_Myhead();	// end() if search fails
; 2090 : 
; 2091 : 		while (!this->_Isnil(_Pnode))

  00008	80 78 0d 00	 cmp	 BYTE PTR [eax+13], 0
  0000c	75 19		 jne	 SHORT $LN72@Lbound
; File c:\program files (x86)\microsoft visual studio 14.0\vc\include\xstddef

; 240  : 		return (_Left < _Right);

  0000e	8b 4d 08	 mov	 ecx, DWORD PTR __Keyval$[ebp]
  00011	8b 09		 mov	 ecx, DWORD PTR [ecx]
$LL2@Lbound:
  00013	39 48 10	 cmp	 DWORD PTR [eax+16], ecx
; File c:\program files (x86)\microsoft visual studio 14.0\vc\include\xtree

; 2092 : 			if (_Compare(this->_Key(_Pnode), _Keyval))

  00016	7d 05		 jge	 SHORT $LN4@Lbound

; 2093 : 				_Pnode = this->_Right(_Pnode);	// descend right subtree

  00018	8b 40 08	 mov	 eax, DWORD PTR [eax+8]

; 2094 : 			else

  0001b	eb 04		 jmp	 SHORT $LN5@Lbound
$LN4@Lbound:

; 2095 : 				{	// _Pnode not less than _Keyval, remember it
; 2096 : 				_Wherenode = _Pnode;

  0001d	8b d0		 mov	 edx, eax

; 2097 : 				_Pnode = this->_Left(_Pnode);	// descend left subtree

  0001f	8b 00		 mov	 eax, DWORD PTR [eax]
$LN5@Lbound:

; 2089 : 		_Nodeptr _Wherenode = this->_Myhead();	// end() if search fails
; 2090 : 
; 2091 : 		while (!this->_Isnil(_Pnode))

  00021	80 78 0d 00	 cmp	 BYTE PTR [eax+13], 0
  00025	74 ec		 je	 SHORT $LL2@Lbound
$LN72@Lbound:

; 2098 : 				}
; 2099 : 
; 2100 : 		return (_Wherenode);	// return best remembered candidate

  00027	8b c2		 mov	 eax, edx

; 2101 : 		}

  00029	5d		 pop	 ebp
  0002a	c2 04 00	 ret	 4
??$_Lbound@H@?$_Tree@V?$_Tmap_traits@HHU?$less@H@std@@V?$allocator@U?$pair@$$CBHH@std@@@2@$0A@@std@@@std@@IBEPAU?$_Tree_node@U?$pair@$$CBHH@std@@PAX@1@ABH@Z ENDP ; std::_Tree<std::_Tmap_traits<int,int,std::less<int>,std::allocator<std::pair<int const ,int> >,0> >::_Lbound<int>
_TEXT	ENDS
; Function compile flags: /Ogtp
; File c:\program files (x86)\microsoft visual studio 14.0\vc\include\xmemory0
;	COMDAT ??$destroy@U?$pair@$$CBHH@std@@@?$_Wrap_alloc@V?$allocator@U?$_Tree_node@U?$pair@$$CBHH@std@@PAX@std@@@std@@@std@@QAEXPAU?$pair@$$CBHH@1@@Z
_TEXT	SEGMENT
__Ptr$ = 8						; size = 4
??$destroy@U?$pair@$$CBHH@std@@@?$_Wrap_alloc@V?$allocator@U?$_Tree_node@U?$pair@$$CBHH@std@@PAX@std@@@std@@@std@@QAEXPAU?$pair@$$CBHH@1@@Z PROC ; std::_Wrap_alloc<std::allocator<std::_Tree_node<std::pair<int const ,int>,void *> > >::destroy<std::pair<int const ,int> >, COMDAT
; _this$ = ecx

; 925  : 		_Mytraits::destroy(*this, _Ptr);
; 926  : 		}

  00000	c2 04 00	 ret	 4
??$destroy@U?$pair@$$CBHH@std@@@?$_Wrap_alloc@V?$allocator@U?$_Tree_node@U?$pair@$$CBHH@std@@PAX@std@@@std@@@std@@QAEXPAU?$pair@$$CBHH@1@@Z ENDP ; std::_Wrap_alloc<std::allocator<std::_Tree_node<std::pair<int const ,int>,void *> > >::destroy<std::pair<int const ,int> >
_TEXT	ENDS
; Function compile flags: /Ogtp
; File c:\program files (x86)\microsoft visual studio 14.0\vc\include\xstddef
;	COMDAT ??$addressof@U?$pair@$$CBHH@std@@@std@@YAPAU?$pair@$$CBHH@0@AAU10@@Z
_TEXT	SEGMENT
__Val$ = 8						; size = 4
??$addressof@U?$pair@$$CBHH@std@@@std@@YAPAU?$pair@$$CBHH@0@AAU10@@Z PROC ; std::addressof<std::pair<int const ,int> >, COMDAT

; 696  : 	{	// return address of _Val

  00000	55		 push	 ebp
  00001	8b ec		 mov	 ebp, esp

; 697  : 	return (_Addressof(_Val, is_function<_Ty>()));

  00003	8b 45 08	 mov	 eax, DWORD PTR __Val$[ebp]

; 698  : 	}

  00006	5d		 pop	 ebp
  00007	c3		 ret	 0
??$addressof@U?$pair@$$CBHH@std@@@std@@YAPAU?$pair@$$CBHH@0@AAU10@@Z ENDP ; std::addressof<std::pair<int const ,int> >
_TEXT	ENDS
; Function compile flags: /Ogtp
; File c:\program files (x86)\microsoft visual studio 14.0\vc\include\xtree
;	COMDAT ??$emplace_hint@ABUpiecewise_construct_t@std@@V?$tuple@ABH@2@V?$tuple@$$V@2@@?$_Tree@V?$_Tmap_traits@HHU?$less@H@std@@V?$allocator@U?$pair@$$CBHH@std@@@2@$0A@@std@@@std@@QAE?AV?$_Tree_iterator@V?$_Tree_val@U?$_Tree_simple_types@U?$pair@$$CBHH@std@@@std@@@std@@@1@V?$_Tree_const_iterator@V?$_Tree_val@U?$_Tree_simple_types@U?$pair@$$CBHH@std@@@std@@@std@@@1@ABUpiecewise_construct_t@1@$$QAV?$tuple@ABH@1@$$QAV?$tuple@$$V@1@@Z
_TEXT	SEGMENT
___$ReturnUdt$ = 8					; size = 4
__Where$ = 12						; size = 4
_<_Val_0>$ = 16						; size = 4
_<_Val_1>$ = 20						; size = 4
_<_Val_2>$ = 24						; size = 4
??$emplace_hint@ABUpiecewise_construct_t@std@@V?$tuple@ABH@2@V?$tuple@$$V@2@@?$_Tree@V?$_Tmap_traits@HHU?$less@H@std@@V?$allocator@U?$pair@$$CBHH@std@@@2@$0A@@std@@@std@@QAE?AV?$_Tree_iterator@V?$_Tree_val@U?$_Tree_simple_types@U?$pair@$$CBHH@std@@@std@@@std@@@1@V?$_Tree_const_iterator@V?$_Tree_val@U?$_Tree_simple_types@U?$pair@$$CBHH@std@@@std@@@std@@@1@ABUpiecewise_construct_t@1@$$QAV?$tuple@ABH@1@$$QAV?$tuple@$$V@1@@Z PROC ; std::_Tree<std::_Tmap_traits<int,int,std::less<int>,std::allocator<std::pair<int const ,int> >,0> >::emplace_hint<std::piecewise_construct_t const &,std::tuple<int const &>,std::tuple<> >, COMDAT
; _this$ = ecx

; 1118 : 		{	// insert value_type(_Val...) at _Where

  00000	55		 push	 ebp
  00001	8b ec		 mov	 ebp, esp
  00003	57		 push	 edi

; 1119 : 		_Nodeptr _Newnode = this->_Buynode(_STD forward<_Valty>(_Val)...);

  00004	ff 75 18	 push	 DWORD PTR _<_Val_2>$[ebp]
  00007	8b f9		 mov	 edi, ecx
  00009	ff 75 14	 push	 DWORD PTR _<_Val_1>$[ebp]
  0000c	ff 75 10	 push	 DWORD PTR _<_Val_0>$[ebp]
  0000f	e8 00 00 00 00	 call	 ??$_Buynode@ABUpiecewise_construct_t@std@@V?$tuple@ABH@2@V?$tuple@$$V@2@@?$_Tree_comp_alloc@V?$_Tmap_traits@HHU?$less@H@std@@V?$allocator@U?$pair@$$CBHH@std@@@2@$0A@@std@@@std@@QAEPAU?$_Tree_node@U?$pair@$$CBHH@std@@PAX@1@ABUpiecewise_construct_t@1@$$QAV?$tuple@ABH@1@$$QAV?$tuple@$$V@1@@Z ; std::_Tree_comp_alloc<std::_Tmap_traits<int,int,std::less<int>,std::allocator<std::pair<int const ,int> >,0> >::_Buynode<std::piecewise_construct_t const &,std::tuple<int const &>,std::tuple<> >

; 1120 : 		return (_Insert_hint(_Where,

  00014	50		 push	 eax

; 602  : 		return ((reference)_Pnode->_Myval);

  00015	83 c0 10	 add	 eax, 16			; 00000010H

; 1120 : 		return (_Insert_hint(_Where,

  00018	8b cf		 mov	 ecx, edi
  0001a	50		 push	 eax
  0001b	ff 75 0c	 push	 DWORD PTR __Where$[ebp]
  0001e	ff 75 08	 push	 DWORD PTR ___$ReturnUdt$[ebp]
  00021	e8 00 00 00 00	 call	 ??$_Insert_hint@AAU?$pair@$$CBHH@std@@PAU?$_Tree_node@U?$pair@$$CBHH@std@@PAX@2@@?$_Tree@V?$_Tmap_traits@HHU?$less@H@std@@V?$allocator@U?$pair@$$CBHH@std@@@2@$0A@@std@@@std@@IAE?AV?$_Tree_iterator@V?$_Tree_val@U?$_Tree_simple_types@U?$pair@$$CBHH@std@@@std@@@std@@@1@V?$_Tree_const_iterator@V?$_Tree_val@U?$_Tree_simple_types@U?$pair@$$CBHH@std@@@std@@@std@@@1@AAU?$pair@$$CBHH@1@PAU?$_Tree_node@U?$pair@$$CBHH@std@@PAX@1@@Z ; std::_Tree<std::_Tmap_traits<int,int,std::less<int>,std::allocator<std::pair<int const ,int> >,0> >::_Insert_hint<std::pair<int const ,int> &,std::_Tree_node<std::pair<int const ,int>,void *> *>
  00026	8b 45 08	 mov	 eax, DWORD PTR ___$ReturnUdt$[ebp]
  00029	5f		 pop	 edi

; 1121 : 			this->_Myval(_Newnode), _Newnode));
; 1122 : 		}

  0002a	5d		 pop	 ebp
  0002b	c2 14 00	 ret	 20			; 00000014H
??$emplace_hint@ABUpiecewise_construct_t@std@@V?$tuple@ABH@2@V?$tuple@$$V@2@@?$_Tree@V?$_Tmap_traits@HHU?$less@H@std@@V?$allocator@U?$pair@$$CBHH@std@@@2@$0A@@std@@@std@@QAE?AV?$_Tree_iterator@V?$_Tree_val@U?$_Tree_simple_types@U?$pair@$$CBHH@std@@@std@@@std@@@1@V?$_Tree_const_iterator@V?$_Tree_val@U?$_Tree_simple_types@U?$pair@$$CBHH@std@@@std@@@std@@@1@ABUpiecewise_construct_t@1@$$QAV?$tuple@ABH@1@$$QAV?$tuple@$$V@1@@Z ENDP ; std::_Tree<std::_Tmap_traits<int,int,std::less<int>,std::allocator<std::pair<int const ,int> >,0> >::emplace_hint<std::piecewise_construct_t const &,std::tuple<int const &>,std::tuple<> >
_TEXT	ENDS
; Function compile flags: /Ogtp
; File c:\users\michel\desktop\source\gameserver\source\trandompoolmgr.cpp
;	COMDAT ??0?$tuple@ABH@std@@QAE@$$QAV01@@Z
_TEXT	SEGMENT
___that$ = 8						; size = 4
??0?$tuple@ABH@std@@QAE@$$QAV01@@Z PROC			; std::tuple<int const &>::tuple<int const &>, COMDAT
; _this$ = ecx

  00000	55		 push	 ebp
  00001	8b ec		 mov	 ebp, esp
  00003	8b 45 08	 mov	 eax, DWORD PTR ___that$[ebp]
  00006	8b 00		 mov	 eax, DWORD PTR [eax]
  00008	89 01		 mov	 DWORD PTR [ecx], eax
  0000a	8b c1		 mov	 eax, ecx
  0000c	5d		 pop	 ebp
  0000d	c2 04 00	 ret	 4
??0?$tuple@ABH@std@@QAE@$$QAV01@@Z ENDP			; std::tuple<int const &>::tuple<int const &>
_TEXT	ENDS
; Function compile flags: /Ogtp
; File c:\program files (x86)\microsoft visual studio 14.0\vc\include\tuple
;	COMDAT ??0?$tuple@ABH@std@@QAE@ABH@Z
_TEXT	SEGMENT
__This_arg$ = 8						; size = 4
??0?$tuple@ABH@std@@QAE@ABH@Z PROC			; std::tuple<int const &>::tuple<int const &>, COMDAT
; _this$ = ecx

; 215  : 		{	// construct from one or more copied elements

  00000	55		 push	 ebp
  00001	8b ec		 mov	 ebp, esp

; 74   : 		: _Val(_STD forward<_Other>(_Arg))

  00003	8b 45 08	 mov	 eax, DWORD PTR __This_arg$[ebp]
  00006	89 01		 mov	 DWORD PTR [ecx], eax

; 216  : 		}

  00008	8b c1		 mov	 eax, ecx
  0000a	5d		 pop	 ebp
  0000b	c2 04 00	 ret	 4
??0?$tuple@ABH@std@@QAE@ABH@Z ENDP			; std::tuple<int const &>::tuple<int const &>
_TEXT	ENDS
; Function compile flags: /Ogtp
; File c:\program files (x86)\microsoft visual studio 14.0\vc\include\tuple
;	COMDAT ??$forward_as_tuple@ABH@std@@YA?AV?$tuple@ABH@0@ABH@Z
_TEXT	SEGMENT
___$ReturnUdt$ = 8					; size = 4
_<_Args_0>$ = 12					; size = 4
??$forward_as_tuple@ABH@std@@YA?AV?$tuple@ABH@0@ABH@Z PROC ; std::forward_as_tuple<int const &>, COMDAT

; 666  : 	{	// forward arguments in a tuple

  00000	55		 push	 ebp
  00001	8b ec		 mov	 ebp, esp

; 74   : 		: _Val(_STD forward<_Other>(_Arg))

  00003	8b 45 08	 mov	 eax, DWORD PTR ___$ReturnUdt$[ebp]
  00006	8b 4d 0c	 mov	 ecx, DWORD PTR _<_Args_0>$[ebp]
  00009	89 08		 mov	 DWORD PTR [eax], ecx

; 667  : 	return (tuple<_Types&&...>(_STD forward<_Types>(_Args)...));
; 668  : 	}

  0000b	5d		 pop	 ebp
  0000c	c3		 ret	 0
??$forward_as_tuple@ABH@std@@YA?AV?$tuple@ABH@0@ABH@Z ENDP ; std::forward_as_tuple<int const &>
_TEXT	ENDS
; Function compile flags: /Ogtp
; File c:\program files (x86)\microsoft visual studio 14.0\vc\include\xmemory0
;	COMDAT ?pointer_to@?$pointer_traits@PAU?$pair@$$CBHH@std@@@std@@SAPAU?$pair@$$CBHH@2@AAU32@@Z
_TEXT	SEGMENT
__Val$ = 8						; size = 4
?pointer_to@?$pointer_traits@PAU?$pair@$$CBHH@std@@@std@@SAPAU?$pair@$$CBHH@2@AAU32@@Z PROC ; std::pointer_traits<std::pair<int const ,int> *>::pointer_to, COMDAT

; 316  : 		{	// convert raw reference to pointer

  00000	55		 push	 ebp
  00001	8b ec		 mov	 ebp, esp

; 317  : 		return (_STD addressof(_Val));

  00003	8b 45 08	 mov	 eax, DWORD PTR __Val$[ebp]

; 318  : 		}

  00006	5d		 pop	 ebp
  00007	c3		 ret	 0
?pointer_to@?$pointer_traits@PAU?$pair@$$CBHH@std@@@std@@SAPAU?$pair@$$CBHH@2@AAU32@@Z ENDP ; std::pointer_traits<std::pair<int const ,int> *>::pointer_to
_TEXT	ENDS
; Function compile flags: /Ogtp
; File c:\program files (x86)\microsoft visual studio 14.0\vc\include\xtree
;	COMDAT ??F?$_Tree_iterator@V?$_Tree_val@U?$_Tree_simple_types@U?$pair@$$CBHH@std@@@std@@@std@@@std@@QAEAAV01@XZ
_TEXT	SEGMENT
??F?$_Tree_iterator@V?$_Tree_val@U?$_Tree_simple_types@U?$pair@$$CBHH@std@@@std@@@std@@@std@@QAEAAV01@XZ PROC ; std::_Tree_iterator<std::_Tree_val<std::_Tree_simple_types<std::pair<int const ,int> > > >::operator--, COMDAT
; _this$ = ecx

; 422  : 		{	// predecrement

  00000	56		 push	 esi
  00001	8b f1		 mov	 esi, ecx

; 308  : 		--(*(_Mybase *)this);

  00003	e8 00 00 00 00	 call	 ??F?$_Tree_unchecked_const_iterator@V?$_Tree_val@U?$_Tree_simple_types@U?$pair@$$CBHH@std@@@std@@@std@@U_Iterator_base0@2@@std@@QAEAAV01@XZ ; std::_Tree_unchecked_const_iterator<std::_Tree_val<std::_Tree_simple_types<std::pair<int const ,int> > >,std::_Iterator_base0>::operator--

; 423  : 		--(*(_Mybase *)this);
; 424  : 		return (*this);

  00008	8b c6		 mov	 eax, esi
  0000a	5e		 pop	 esi

; 425  : 		}

  0000b	c3		 ret	 0
??F?$_Tree_iterator@V?$_Tree_val@U?$_Tree_simple_types@U?$pair@$$CBHH@std@@@std@@@std@@@std@@QAEAAV01@XZ ENDP ; std::_Tree_iterator<std::_Tree_val<std::_Tree_simple_types<std::pair<int const ,int> > > >::operator--
_TEXT	ENDS
; Function compile flags: /Ogtp
; File c:\program files (x86)\microsoft visual studio 14.0\vc\include\xtree
;	COMDAT ??E?$_Tree_iterator@V?$_Tree_val@U?$_Tree_simple_types@U?$pair@$$CBHH@std@@@std@@@std@@@std@@QAEAAV01@XZ
_TEXT	SEGMENT
??E?$_Tree_iterator@V?$_Tree_val@U?$_Tree_simple_types@U?$pair@$$CBHH@std@@@std@@@std@@@std@@QAEAAV01@XZ PROC ; std::_Tree_iterator<std::_Tree_val<std::_Tree_simple_types<std::pair<int const ,int> > > >::operator++, COMDAT
; _this$ = ecx

; 409  : 		{	// preincrement

  00000	56		 push	 esi
  00001	8b f1		 mov	 esi, ecx

; 271  : 		++(*(_Mybase *)this);

  00003	e8 00 00 00 00	 call	 ??E?$_Tree_unchecked_const_iterator@V?$_Tree_val@U?$_Tree_simple_types@U?$pair@$$CBHH@std@@@std@@@std@@U_Iterator_base0@2@@std@@QAEAAV01@XZ ; std::_Tree_unchecked_const_iterator<std::_Tree_val<std::_Tree_simple_types<std::pair<int const ,int> > >,std::_Iterator_base0>::operator++

; 410  : 		++(*(_Mybase *)this);
; 411  : 		return (*this);

  00008	8b c6		 mov	 eax, esi
  0000a	5e		 pop	 esi

; 412  : 		}

  0000b	c3		 ret	 0
??E?$_Tree_iterator@V?$_Tree_val@U?$_Tree_simple_types@U?$pair@$$CBHH@std@@@std@@@std@@@std@@QAEAAV01@XZ ENDP ; std::_Tree_iterator<std::_Tree_val<std::_Tree_simple_types<std::pair<int const ,int> > > >::operator++
_TEXT	ENDS
; Function compile flags: /Ogtp
; File c:\program files (x86)\microsoft visual studio 14.0\vc\include\xtree
;	COMDAT ??C?$_Tree_iterator@V?$_Tree_val@U?$_Tree_simple_types@U?$pair@$$CBHH@std@@@std@@@std@@@std@@QBEPAU?$pair@$$CBHH@1@XZ
_TEXT	SEGMENT
??C?$_Tree_iterator@V?$_Tree_val@U?$_Tree_simple_types@U?$pair@$$CBHH@std@@@std@@@std@@@std@@QBEPAU?$pair@$$CBHH@1@XZ PROC ; std::_Tree_iterator<std::_Tree_val<std::_Tree_simple_types<std::pair<int const ,int> > > >::operator->, COMDAT
; _this$ = ecx

; 407  : 
; 408  : 	_Myiter& operator++()
; 409  : 		{	// preincrement
; 410  : 		++(*(_Mybase *)this);
; 411  : 		return (*this);
; 412  : 		}
; 413  : 
; 414  : 	_Myiter operator++(int)
; 415  : 		{	// postincrement
; 416  : 		_Myiter _Tmp = *this;
; 417  : 		++*this;
; 418  : 		return (_Tmp);
; 419  : 		}
; 420  : 
; 421  : 	_Myiter& operator--()
; 422  : 		{	// predecrement
; 423  : 		--(*(_Mybase *)this);
; 424  : 		return (*this);
; 425  : 		}
; 426  : 
; 427  : 	_Myiter operator--(int)
; 428  : 		{	// postdecrement
; 429  : 		_Myiter _Tmp = *this;
; 430  : 		--*this;
; 431  : 		return (_Tmp);
; 432  : 		}
; 433  : 	};
; 434  : 
; 435  : template<class _Mytree> inline
; 436  : 	typename _Tree_iterator<_Mytree>::_Unchecked_type
; 437  : 		_Unchecked(_Tree_iterator<_Mytree> _Iter)
; 438  : 	{	// convert to unchecked
; 439  : 	return (_Iter._Unchecked());
; 440  : 	}
; 441  : 
; 442  : template<class _Mytree> inline
; 443  : 	_Tree_iterator<_Mytree>&
; 444  : 		_Rechecked(_Tree_iterator<_Mytree>& _Iter,
; 445  : 			typename _Tree_iterator<_Mytree>
; 446  : 				::_Unchecked_type _Right)
; 447  : 	{	// convert to checked
; 448  : 	return (_Iter._Rechecked(_Right));
; 449  : 	}
; 450  : 
; 451  : 		// tree TYPE WRAPPERS
; 452  : template<class _Value_type,
; 453  : 	class _Size_type,
; 454  : 	class _Difference_type,
; 455  : 	class _Pointer,
; 456  : 	class _Const_pointer,
; 457  : 	class _Reference,
; 458  : 	class _Const_reference,
; 459  : 	class _Nodeptr_type>
; 460  : 	struct _Tree_iter_types
; 461  : 	{	// wraps types needed by iterators
; 462  : 	typedef _Value_type value_type;
; 463  : 	typedef _Size_type size_type;
; 464  : 	typedef _Difference_type difference_type;
; 465  : 	typedef _Pointer pointer;
; 466  : 	typedef _Const_pointer const_pointer;
; 467  : 	typedef _Reference reference;
; 468  : 	typedef _Const_reference const_reference;
; 469  : 	typedef _Nodeptr_type _Nodeptr;
; 470  : 	};
; 471  : 
; 472  : template<class _Value_type,
; 473  : 	class _Voidptr>
; 474  : 	struct _Tree_node
; 475  : 		{	// tree node
; 476  : 		_Voidptr _Left;	// left subtree, or smallest element if head
; 477  : 		_Voidptr _Parent;	// parent, or root of tree if head
; 478  : 		_Voidptr _Right;	// right subtree, or largest element if head
; 479  : 		char _Color;	// _Red or _Black, _Black if head
; 480  : 		char _Isnil;	// true only if head (also nil) node
; 481  : 		_Value_type _Myval;	// the stored value, unused if head
; 482  : 
; 483  : 	private:
; 484  : 		_Tree_node& operator=(const _Tree_node&);
; 485  : 		};
; 486  : 
; 487  : template<class _Value_type>
; 488  : 	struct _Tree_node<_Value_type, void *>
; 489  : 		{	// tree node
; 490  : 		typedef _Tree_node<_Value_type, void *> *_Nodeptr;
; 491  : 		_Nodeptr _Left;	// left subtree, or smallest element if head
; 492  : 		_Nodeptr _Parent;	// parent, or root of tree if head
; 493  : 		_Nodeptr _Right;	// right subtree, or largest element if head
; 494  : 		char _Color;	// _Red or _Black, _Black if head
; 495  : 		char _Isnil;	// true only if head (also nil) node
; 496  : 		_Value_type _Myval;	// the stored value, unused if head
; 497  : 
; 498  : 	private:
; 499  : 		_Tree_node& operator=(const _Tree_node&);
; 500  : 		};
; 501  : 
; 502  : template<class _Ty>
; 503  : 	struct _Tree_simple_types
; 504  : 		: public _Simple_types<_Ty>
; 505  : 	{	// wraps types needed by iterators
; 506  : 	typedef _Tree_node<_Ty, void *> _Node;
; 507  : 	typedef _Node *_Nodeptr;
; 508  : 	};
; 509  : 
; 510  : template<class _Ty,
; 511  : 	class _Alloc0>
; 512  : 	struct _Tree_base_types
; 513  : 	{	// types needed for a container base
; 514  : 	typedef _Alloc0 _Alloc;
; 515  : 	typedef _Tree_base_types<_Ty, _Alloc> _Myt;
; 516  : 
; 517  : 	typedef _Wrap_alloc<_Alloc> _Alty0;
; 518  : 	typedef typename _Alty0::template rebind<_Ty>::other _Alty;
; 519  : 
; 520  : 
; 521  : 	typedef typename _Get_voidptr<_Alty, typename _Alty::pointer>::type
; 522  : 		_Voidptr;
; 523  : 	typedef _Tree_node<typename _Alty::value_type,
; 524  : 		_Voidptr> _Node;
; 525  : 
; 526  : 	typedef typename _Alty::template rebind<_Node>::other _Alnod_type;
; 527  : 	typedef typename _Alnod_type::pointer _Nodeptr;
; 528  : 	typedef _Nodeptr& _Nodepref;
; 529  : 
; 530  : 	typedef typename _If<_Is_simple_alloc<_Alty>::value,
; 531  : 		_Tree_simple_types<typename _Alty::value_type>,
; 532  : 		_Tree_iter_types<typename _Alty::value_type,
; 533  : 			typename _Alty::size_type,
; 534  : 			typename _Alty::difference_type,
; 535  : 			typename _Alty::pointer,
; 536  : 			typename _Alty::const_pointer,
; 537  : 			typename _Alty::reference,
; 538  : 			typename _Alty::const_reference,
; 539  : 			_Nodeptr> >::type
; 540  : 		_Val_types;
; 541  : 	};
; 542  : 
; 543  : 		// TEMPLATE CLASS _Tree_val
; 544  : template<class _Val_types>
; 545  : 	class _Tree_val
; 546  : 		: public _Container_base
; 547  : 	{	// base class for tree to hold data
; 548  : public:
; 549  : 	typedef _Tree_val<_Val_types> _Myt;
; 550  : 
; 551  : 	typedef typename _Val_types::_Nodeptr _Nodeptr;
; 552  : 	typedef _Nodeptr& _Nodepref;
; 553  : 
; 554  : 	typedef typename _Val_types::value_type value_type;
; 555  : 	typedef typename _Val_types::size_type size_type;
; 556  : 	typedef typename _Val_types::difference_type difference_type;
; 557  : 	typedef typename _Val_types::pointer pointer;
; 558  : 	typedef typename _Val_types::const_pointer const_pointer;
; 559  : 	typedef typename _Val_types::reference reference;
; 560  : 	typedef typename _Val_types::const_reference const_reference;
; 561  : 
; 562  : 	typedef _Tree_const_iterator<_Myt> const_iterator;
; 563  : 	typedef _Tree_iterator<_Myt> iterator;
; 564  : 
; 565  : 	_Tree_val()
; 566  : 		{	// initialize data
; 567  : 		this->_Myhead = 0;
; 568  : 		this->_Mysize = 0;
; 569  : 		}
; 570  : 
; 571  : 	enum _Redbl
; 572  : 		{	// colors for link to parent
; 573  : 		_Red, _Black};
; 574  : 
; 575  : 	static char& _Color(_Nodeptr _Pnode)
; 576  : 		{	// return reference to color in node
; 577  : 		return ((char&)_Pnode->_Color);
; 578  : 		}
; 579  : 
; 580  : 	static char& _Isnil(_Nodeptr _Pnode)
; 581  : 		{	// return reference to nil flag in node
; 582  : 		return ((char&)_Pnode->_Isnil);
; 583  : 		}
; 584  : 
; 585  : 	static _Nodepref _Left(_Nodeptr _Pnode)
; 586  : 		{	// return reference to left pointer in node
; 587  : 		return ((_Nodepref)_Pnode->_Left);
; 588  : 		}
; 589  : 
; 590  : 	static _Nodepref _Parent(_Nodeptr _Pnode)
; 591  : 		{	// return reference to parent pointer in node
; 592  : 		return ((_Nodepref)_Pnode->_Parent);
; 593  : 		}
; 594  : 
; 595  : 	static _Nodepref _Right(_Nodeptr _Pnode)
; 596  : 		{	// return reference to right pointer in node
; 597  : 		return ((_Nodepref)_Pnode->_Right);
; 598  : 		}
; 599  : 
; 600  : 	static reference _Myval(_Nodeptr _Pnode)
; 601  : 		{	// return reference to value in node
; 602  : 		return ((reference)_Pnode->_Myval);

  00000	8b 01		 mov	 eax, DWORD PTR [ecx]
  00002	83 c0 10	 add	 eax, 16			; 00000010H

; 405  : 		return (_STD pointer_traits<pointer>::pointer_to(**this));
; 406  : 		}

  00005	c3		 ret	 0
??C?$_Tree_iterator@V?$_Tree_val@U?$_Tree_simple_types@U?$pair@$$CBHH@std@@@std@@@std@@@std@@QBEPAU?$pair@$$CBHH@1@XZ ENDP ; std::_Tree_iterator<std::_Tree_val<std::_Tree_simple_types<std::pair<int const ,int> > > >::operator->
_TEXT	ENDS
; Function compile flags: /Ogtp
; File c:\program files (x86)\microsoft visual studio 14.0\vc\include\xtree
;	COMDAT ??D?$_Tree_iterator@V?$_Tree_val@U?$_Tree_simple_types@U?$pair@$$CBHH@std@@@std@@@std@@@std@@QBEAAU?$pair@$$CBHH@1@XZ
_TEXT	SEGMENT
??D?$_Tree_iterator@V?$_Tree_val@U?$_Tree_simple_types@U?$pair@$$CBHH@std@@@std@@@std@@@std@@QBEAAU?$pair@$$CBHH@1@XZ PROC ; std::_Tree_iterator<std::_Tree_val<std::_Tree_simple_types<std::pair<int const ,int> > > >::operator*, COMDAT
; _this$ = ecx

; 402  : 
; 403  : 	pointer operator->() const
; 404  : 		{	// return pointer to class object
; 405  : 		return (_STD pointer_traits<pointer>::pointer_to(**this));
; 406  : 		}
; 407  : 
; 408  : 	_Myiter& operator++()
; 409  : 		{	// preincrement
; 410  : 		++(*(_Mybase *)this);
; 411  : 		return (*this);
; 412  : 		}
; 413  : 
; 414  : 	_Myiter operator++(int)
; 415  : 		{	// postincrement
; 416  : 		_Myiter _Tmp = *this;
; 417  : 		++*this;
; 418  : 		return (_Tmp);
; 419  : 		}
; 420  : 
; 421  : 	_Myiter& operator--()
; 422  : 		{	// predecrement
; 423  : 		--(*(_Mybase *)this);
; 424  : 		return (*this);
; 425  : 		}
; 426  : 
; 427  : 	_Myiter operator--(int)
; 428  : 		{	// postdecrement
; 429  : 		_Myiter _Tmp = *this;
; 430  : 		--*this;
; 431  : 		return (_Tmp);
; 432  : 		}
; 433  : 	};
; 434  : 
; 435  : template<class _Mytree> inline
; 436  : 	typename _Tree_iterator<_Mytree>::_Unchecked_type
; 437  : 		_Unchecked(_Tree_iterator<_Mytree> _Iter)
; 438  : 	{	// convert to unchecked
; 439  : 	return (_Iter._Unchecked());
; 440  : 	}
; 441  : 
; 442  : template<class _Mytree> inline
; 443  : 	_Tree_iterator<_Mytree>&
; 444  : 		_Rechecked(_Tree_iterator<_Mytree>& _Iter,
; 445  : 			typename _Tree_iterator<_Mytree>
; 446  : 				::_Unchecked_type _Right)
; 447  : 	{	// convert to checked
; 448  : 	return (_Iter._Rechecked(_Right));
; 449  : 	}
; 450  : 
; 451  : 		// tree TYPE WRAPPERS
; 452  : template<class _Value_type,
; 453  : 	class _Size_type,
; 454  : 	class _Difference_type,
; 455  : 	class _Pointer,
; 456  : 	class _Const_pointer,
; 457  : 	class _Reference,
; 458  : 	class _Const_reference,
; 459  : 	class _Nodeptr_type>
; 460  : 	struct _Tree_iter_types
