; Listing generated by Microsoft (R) Optimizing Compiler Version 19.00.23506.0 

	TITLE	C:\Users\Michel\Desktop\Source\GameServer\common\TSync.cpp
	.686P
	.XMM
	include listing.inc
	.model	flat

INCLUDELIB LIBCMT
INCLUDELIB OLDNAMES

PUBLIC	?__empty_global_delete@@YAXPAX@Z		; __empty_global_delete
PUBLIC	?__empty_global_delete@@YAXPAXI@Z		; __empty_global_delete
PUBLIC	??0TSync@@QAE@XZ				; TSync::TSync
PUBLIC	??1TSync@@QAE@XZ				; TSync::~TSync
PUBLIC	?Lock@TSync@@QAEXXZ				; TSync::Lock
PUBLIC	?Unlock@TSync@@QAEXXZ				; TSync::Unlock
EXTRN	__imp__InitializeCriticalSection@4:PROC
EXTRN	__imp__EnterCriticalSection@4:PROC
EXTRN	__imp__LeaveCriticalSection@4:PROC
EXTRN	__imp__DeleteCriticalSection@4:PROC
; Function compile flags: /Ogtp
; File c:\users\michel\desktop\source\gameserver\common\tsync.cpp
;	COMDAT ?Unlock@TSync@@QAEXXZ
_TEXT	SEGMENT
?Unlock@TSync@@QAEXXZ PROC				; TSync::Unlock, COMDAT
; _this$ = ecx

; 31   : 	long nResult=InterlockedDecrement(&this->m_nLock );

  00000	f0 ff 49 18	 lock	  dec	 DWORD PTR [ecx+24]

; 32   : 	LeaveCriticalSection(&this->m_cs );

  00004	51		 push	 ecx
  00005	ff 15 00 00 00
	00		 call	 DWORD PTR __imp__LeaveCriticalSection@4

; 33   : }

  0000b	c3		 ret	 0
?Unlock@TSync@@QAEXXZ ENDP				; TSync::Unlock
_TEXT	ENDS
; Function compile flags: /Ogtp
; File c:\users\michel\desktop\source\gameserver\common\tsync.cpp
;	COMDAT ?Lock@TSync@@QAEXXZ
_TEXT	SEGMENT
?Lock@TSync@@QAEXXZ PROC				; TSync::Lock, COMDAT
; _this$ = ecx

; 24   : {

  00000	56		 push	 esi
  00001	8b f1		 mov	 esi, ecx

; 25   : 	EnterCriticalSection(&this->m_cs);

  00003	56		 push	 esi
  00004	ff 15 00 00 00
	00		 call	 DWORD PTR __imp__EnterCriticalSection@4

; 26   : 	InterlockedIncrement(&this->m_nLock);

  0000a	f0 ff 46 18	 lock	  inc	 DWORD PTR [esi+24]
  0000e	5e		 pop	 esi

; 27   : }

  0000f	c3		 ret	 0
?Lock@TSync@@QAEXXZ ENDP				; TSync::Lock
_TEXT	ENDS
; Function compile flags: /Ogtp
; File c:\users\michel\desktop\source\gameserver\common\tsync.cpp
;	COMDAT ??1TSync@@QAE@XZ
_TEXT	SEGMENT
??1TSync@@QAE@XZ PROC					; TSync::~TSync, COMDAT
; _this$ = ecx

; 20   : 	DeleteCriticalSection(&this->m_cs);

  00000	51		 push	 ecx
  00001	ff 15 00 00 00
	00		 call	 DWORD PTR __imp__DeleteCriticalSection@4

; 21   : }

  00007	c3		 ret	 0
??1TSync@@QAE@XZ ENDP					; TSync::~TSync
_TEXT	ENDS
; Function compile flags: /Ogtp
; File c:\users\michel\desktop\source\gameserver\common\tsync.cpp
;	COMDAT ??0TSync@@QAE@XZ
_TEXT	SEGMENT
??0TSync@@QAE@XZ PROC					; TSync::TSync, COMDAT
; _this$ = ecx

; 13   : {

  00000	56		 push	 esi
  00001	8b f1		 mov	 esi, ecx

; 14   : 	this->m_nLock=0;
; 15   : 	InitializeCriticalSection(&this->m_cs);

  00003	56		 push	 esi
  00004	c7 46 18 00 00
	00 00		 mov	 DWORD PTR [esi+24], 0
  0000b	ff 15 00 00 00
	00		 call	 DWORD PTR __imp__InitializeCriticalSection@4

; 16   : }

  00011	8b c6		 mov	 eax, esi
  00013	5e		 pop	 esi
  00014	c3		 ret	 0
??0TSync@@QAE@XZ ENDP					; TSync::TSync
_TEXT	ENDS
; Function compile flags: /Ogtp
; File c:\users\michel\desktop\source\gameserver\common\tsync.cpp
;	COMDAT ?__empty_global_delete@@YAXPAXI@Z
_TEXT	SEGMENT
___formal$ = 8						; size = 4
___formal$ = 12						; size = 4
?__empty_global_delete@@YAXPAXI@Z PROC			; __empty_global_delete, COMDAT

  00000	c3		 ret	 0
?__empty_global_delete@@YAXPAXI@Z ENDP			; __empty_global_delete
_TEXT	ENDS
; Function compile flags: /Ogtp
; File c:\users\michel\desktop\source\gameserver\common\tsync.cpp
;	COMDAT ?__empty_global_delete@@YAXPAX@Z
_TEXT	SEGMENT
___formal$ = 8						; size = 4
?__empty_global_delete@@YAXPAX@Z PROC			; __empty_global_delete, COMDAT

  00000	c3		 ret	 0
?__empty_global_delete@@YAXPAX@Z ENDP			; __empty_global_delete
_TEXT	ENDS
END
