; Listing generated by Microsoft (R) Optimizing Compiler Version 19.00.23506.0 

	TITLE	C:\Users\Michel\Desktop\Source\GameServer\Source\ViewportGuild.cpp
	.686P
	.XMM
	include listing.inc
	.model	flat

INCLUDELIB LIBCMT
INCLUDELIB OLDNAMES

PUBLIC	?__empty_global_delete@@YAXPAX@Z		; __empty_global_delete
PUBLIC	?__empty_global_delete@@YAXPAXI@Z		; __empty_global_delete
PUBLIC	??1OBJECTSTRUCT@@QAE@XZ				; OBJECTSTRUCT::~OBJECTSTRUCT
PUBLIC	??_EOBJECTSTRUCT@@QAEPAXI@Z			; OBJECTSTRUCT::`vector deleting destructor'
PUBLIC	??0CViewportGuild@@QAE@XZ			; CViewportGuild::CViewportGuild
PUBLIC	??1CViewportGuild@@UAE@XZ			; CViewportGuild::~CViewportGuild
PUBLIC	?Init@CViewportGuild@@QAEXXZ			; CViewportGuild::Init
PUBLIC	?Add@CViewportGuild@@QAEHHH@Z			; CViewportGuild::Add
PUBLIC	??_GCViewportGuild@@UAEPAXI@Z			; CViewportGuild::`scalar deleting destructor'
PUBLIC	??_7CViewportGuild@@6B@				; CViewportGuild::`vftable'
PUBLIC	??_R4CViewportGuild@@6B@			; CViewportGuild::`RTTI Complete Object Locator'
PUBLIC	??_R0?AVCViewportGuild@@@8			; CViewportGuild `RTTI Type Descriptor'
PUBLIC	??_R3CViewportGuild@@8				; CViewportGuild::`RTTI Class Hierarchy Descriptor'
PUBLIC	??_R2CViewportGuild@@8				; CViewportGuild::`RTTI Base Class Array'
PUBLIC	??_R1A@?0A@EA@CViewportGuild@@8			; CViewportGuild::`RTTI Base Class Descriptor at (0,-1,0,64)'
EXTRN	??_M@YGXPAXIIP6EX0@Z@Z:PROC			; `eh vector destructor iterator'
EXTRN	??3@YAXPAXI@Z:PROC				; operator delete
EXTRN	??_V@YAXPAXI@Z:PROC				; operator delete[]
EXTRN	??1CSkillDelay@@UAE@XZ:PROC			; CSkillDelay::~CSkillDelay
EXTRN	??1TMonsterAIAgro@@UAE@XZ:PROC			; TMonsterAIAgro::~TMonsterAIAgro
EXTRN	??_ECViewportGuild@@UAEPAXI@Z:PROC		; CViewportGuild::`vector deleting destructor'
EXTRN	@__security_check_cookie@4:PROC
EXTRN	___CxxFrameHandler3:PROC
EXTRN	_memset:PROC
EXTRN	??_7type_info@@6B@:QWORD			; type_info::`vftable'
EXTRN	___security_cookie:DWORD
;	COMDAT ??_R1A@?0A@EA@CViewportGuild@@8
rdata$r	SEGMENT
??_R1A@?0A@EA@CViewportGuild@@8 DD FLAT:??_R0?AVCViewportGuild@@@8 ; CViewportGuild::`RTTI Base Class Descriptor at (0,-1,0,64)'
	DD	00H
	DD	00H
	DD	0ffffffffH
	DD	00H
	DD	040H
	DD	FLAT:??_R3CViewportGuild@@8
rdata$r	ENDS
;	COMDAT ??_R2CViewportGuild@@8
rdata$r	SEGMENT
??_R2CViewportGuild@@8 DD FLAT:??_R1A@?0A@EA@CViewportGuild@@8 ; CViewportGuild::`RTTI Base Class Array'
rdata$r	ENDS
;	COMDAT ??_R3CViewportGuild@@8
rdata$r	SEGMENT
??_R3CViewportGuild@@8 DD 00H				; CViewportGuild::`RTTI Class Hierarchy Descriptor'
	DD	00H
	DD	01H
	DD	FLAT:??_R2CViewportGuild@@8
rdata$r	ENDS
;	COMDAT ??_R0?AVCViewportGuild@@@8
data$r	SEGMENT
??_R0?AVCViewportGuild@@@8 DD FLAT:??_7type_info@@6B@	; CViewportGuild `RTTI Type Descriptor'
	DD	00H
	DB	'.?AVCViewportGuild@@', 00H
data$r	ENDS
;	COMDAT ??_R4CViewportGuild@@6B@
rdata$r	SEGMENT
??_R4CViewportGuild@@6B@ DD 00H				; CViewportGuild::`RTTI Complete Object Locator'
	DD	00H
	DD	00H
	DD	FLAT:??_R0?AVCViewportGuild@@@8
	DD	FLAT:??_R3CViewportGuild@@8
rdata$r	ENDS
;	COMDAT ??_7CViewportGuild@@6B@
CONST	SEGMENT
??_7CViewportGuild@@6B@ DD FLAT:??_R4CViewportGuild@@6B@ ; CViewportGuild::`vftable'
	DD	FLAT:??_ECViewportGuild@@UAEPAXI@Z
CONST	ENDS
;	COMDAT xdata$x
xdata$x	SEGMENT
__ehfuncinfo$??_EOBJECTSTRUCT@@QAEPAXI@Z DD 019930522H
	DD	00H
	DD	00H
	DD	2 DUP(00H)
	DD	2 DUP(00H)
	DD	00H
	DD	05H
xdata$x	ENDS
; Function compile flags: /Ogtp
;	COMDAT ??_GCViewportGuild@@UAEPAXI@Z
_TEXT	SEGMENT
___flags$ = 8						; size = 4
??_GCViewportGuild@@UAEPAXI@Z PROC			; CViewportGuild::`scalar deleting destructor', COMDAT
; _this$ = ecx
  00000	55		 push	 ebp
  00001	8b ec		 mov	 ebp, esp
  00003	56		 push	 esi
  00004	8b f1		 mov	 esi, ecx
  00006	e8 00 00 00 00	 call	 ??1CViewportGuild@@UAE@XZ ; CViewportGuild::~CViewportGuild
  0000b	f6 45 08 01	 test	 BYTE PTR ___flags$[ebp], 1
  0000f	74 0e		 je	 SHORT $LN4@scalar
  00011	68 9c 00 00 00	 push	 156			; 0000009cH
  00016	56		 push	 esi
  00017	e8 00 00 00 00	 call	 ??3@YAXPAXI@Z		; operator delete
  0001c	83 c4 08	 add	 esp, 8
$LN4@scalar:
  0001f	8b c6		 mov	 eax, esi
  00021	5e		 pop	 esi
  00022	5d		 pop	 ebp
  00023	c2 04 00	 ret	 4
??_GCViewportGuild@@UAEPAXI@Z ENDP			; CViewportGuild::`scalar deleting destructor'
_TEXT	ENDS
; Function compile flags: /Ogtp
; File c:\users\michel\desktop\source\gameserver\source\viewportguild.cpp
;	COMDAT ?Add@CViewportGuild@@QAEHHH@Z
_TEXT	SEGMENT
_number$ = 8						; size = 4
_TargetObj$ = 12					; size = 4
?Add@CViewportGuild@@QAEHHH@Z PROC			; CViewportGuild::Add, COMDAT
; _this$ = ecx

; 31   : {

  00000	55		 push	 ebp
  00001	8b ec		 mov	 ebp, esp
  00003	53		 push	 ebx
  00004	57		 push	 edi

; 32   : 	int blank=-1;
; 33   : 	int n;
; 34   : 
; 35   : 	if (number < 1)

  00005	8b 7d 08	 mov	 edi, DWORD PTR _number$[ebp]
  00008	83 ca ff	 or	 edx, -1
  0000b	8b d9		 mov	 ebx, ecx
  0000d	83 ff 01	 cmp	 edi, 1
  00010	7d 08		 jge	 SHORT $LN5@Add

; 36   : 	{
; 37   : 		return 0;

  00012	5f		 pop	 edi
  00013	33 c0		 xor	 eax, eax
  00015	5b		 pop	 ebx

; 67   : }

  00016	5d		 pop	 ebp
  00017	c2 08 00	 ret	 8
$LN5@Add:
  0001a	56		 push	 esi

; 38   : 	}
; 39   : 
; 40   : 	for (n=0;n<MAX_VIEWPORT;n++)

  0001b	33 c9		 xor	 ecx, ecx
  0001d	8d 73 04	 lea	 esi, DWORD PTR [ebx+4]
$LL4@Add:

; 41   : 	{
; 42   : 		if (this->m_GuildNumber[n] > 0)

  00020	0f b7 06	 movzx	 eax, WORD PTR [esi]
  00023	66 85 c0	 test	 ax, ax
  00026	7e 0e		 jle	 SHORT $LN6@Add

; 43   : 		{
; 44   : 			if (this->m_GuildNumber[n] == number)

  00028	98		 cwde
  00029	3b c7		 cmp	 eax, edi
  0002b	75 0e		 jne	 SHORT $LN2@Add
$LN11@Add:
  0002d	5e		 pop	 esi
  0002e	5f		 pop	 edi

; 65   : 	}
; 66   : 	return 0;

  0002f	33 c0		 xor	 eax, eax
  00031	5b		 pop	 ebx

; 67   : }

  00032	5d		 pop	 ebp
  00033	c2 08 00	 ret	 8
$LN6@Add:

; 45   : 			{
; 46   : 				return 0;
; 47   : 			}
; 48   : 		}
; 49   : 		else if (blank < 0)

  00036	85 d2		 test	 edx, edx
  00038	0f 48 d1	 cmovs	 edx, ecx
$LN2@Add:

; 38   : 	}
; 39   : 
; 40   : 	for (n=0;n<MAX_VIEWPORT;n++)

  0003b	41		 inc	 ecx
  0003c	83 c6 02	 add	 esi, 2
  0003f	83 f9 4b	 cmp	 ecx, 75			; 0000004bH
  00042	7c dc		 jl	 SHORT $LL4@Add

; 50   : 		{
; 51   : 			blank=n;
; 52   : 		}
; 53   : 	}
; 54   : 
; 55   : 	if (blank < 0)

  00044	85 d2		 test	 edx, edx
  00046	78 e5		 js	 SHORT $LN11@Add

; 56   : 	{
; 57   : 		return 0;
; 58   : 	}
; 59   : 
; 60   : 	if (this->m_GuildNumber[blank] == 0)

  00048	66 83 7c 53 04
	00		 cmp	 WORD PTR [ebx+edx*2+4], 0
  0004e	75 dd		 jne	 SHORT $LN11@Add

; 61   : 	{
; 62   : 		this->m_GuildNumber[blank]=number;

  00050	66 89 7c 53 04	 mov	 WORD PTR [ebx+edx*2+4], di

; 63   : 		this->m_GuildCount ++;
; 64   : 		return 1;

  00055	b8 01 00 00 00	 mov	 eax, 1
  0005a	66 ff 83 9a 00
	00 00		 inc	 WORD PTR [ebx+154]
  00061	5e		 pop	 esi
  00062	5f		 pop	 edi
  00063	5b		 pop	 ebx

; 67   : }

  00064	5d		 pop	 ebp
  00065	c2 08 00	 ret	 8
?Add@CViewportGuild@@QAEHHH@Z ENDP			; CViewportGuild::Add
_TEXT	ENDS
; Function compile flags: /Ogtp
; File c:\users\michel\desktop\source\gameserver\source\viewportguild.cpp
;	COMDAT ?Init@CViewportGuild@@QAEXXZ
_TEXT	SEGMENT
?Init@CViewportGuild@@QAEXXZ PROC			; CViewportGuild::Init, COMDAT
; _this$ = ecx

; 25   : {

  00000	56		 push	 esi
  00001	8b f1		 mov	 esi, ecx

; 26   : 	memset(&this->m_GuildNumber , 0, sizeof(this->m_GuildNumber ) );

  00003	68 96 00 00 00	 push	 150			; 00000096H
  00008	6a 00		 push	 0
  0000a	8d 46 04	 lea	 eax, DWORD PTR [esi+4]
  0000d	50		 push	 eax
  0000e	e8 00 00 00 00	 call	 _memset
  00013	83 c4 0c	 add	 esp, 12			; 0000000cH

; 27   : 	this->m_GuildCount =0;

  00016	33 c0		 xor	 eax, eax
  00018	66 89 86 9a 00
	00 00		 mov	 WORD PTR [esi+154], ax
  0001f	5e		 pop	 esi

; 28   : }

  00020	c3		 ret	 0
?Init@CViewportGuild@@QAEXXZ ENDP			; CViewportGuild::Init
_TEXT	ENDS
; Function compile flags: /Ogtp
; File c:\users\michel\desktop\source\gameserver\source\viewportguild.cpp
;	COMDAT ??1CViewportGuild@@UAE@XZ
_TEXT	SEGMENT
??1CViewportGuild@@UAE@XZ PROC				; CViewportGuild::~CViewportGuild, COMDAT
; _this$ = ecx

; 20   : {

  00000	c7 01 00 00 00
	00		 mov	 DWORD PTR [ecx], OFFSET ??_7CViewportGuild@@6B@

; 21   : 	return;
; 22   : }

  00006	c3		 ret	 0
??1CViewportGuild@@UAE@XZ ENDP				; CViewportGuild::~CViewportGuild
_TEXT	ENDS
; Function compile flags: /Ogtp
; File c:\users\michel\desktop\source\gameserver\source\viewportguild.cpp
;	COMDAT ??0CViewportGuild@@QAE@XZ
_TEXT	SEGMENT
??0CViewportGuild@@QAE@XZ PROC				; CViewportGuild::CViewportGuild, COMDAT
; _this$ = ecx

; 14   : {

  00000	c7 01 00 00 00
	00		 mov	 DWORD PTR [ecx], OFFSET ??_7CViewportGuild@@6B@

; 15   : 	return;
; 16   : }

  00006	8b c1		 mov	 eax, ecx
  00008	c3		 ret	 0
??0CViewportGuild@@QAE@XZ ENDP				; CViewportGuild::CViewportGuild
_TEXT	ENDS
; Function compile flags: /Ogtp
;	COMDAT ??_EOBJECTSTRUCT@@QAEPAXI@Z
_TEXT	SEGMENT
__$EHRec$ = -12						; size = 12
___flags$ = 8						; size = 4
??_EOBJECTSTRUCT@@QAEPAXI@Z PROC			; OBJECTSTRUCT::`vector deleting destructor', COMDAT
; _this$ = ecx
  00000	55		 push	 ebp
  00001	8b ec		 mov	 ebp, esp
  00003	6a ff		 push	 -1
  00005	68 00 00 00 00	 push	 __ehhandler$??_EOBJECTSTRUCT@@QAEPAXI@Z
  0000a	64 a1 00 00 00
	00		 mov	 eax, DWORD PTR fs:0
  00010	50		 push	 eax
  00011	53		 push	 ebx
  00012	56		 push	 esi
  00013	57		 push	 edi
  00014	a1 00 00 00 00	 mov	 eax, DWORD PTR ___security_cookie
  00019	33 c5		 xor	 eax, ebp
  0001b	50		 push	 eax
  0001c	8d 45 f4	 lea	 eax, DWORD PTR __$EHRec$[ebp]
  0001f	64 a3 00 00 00
	00		 mov	 DWORD PTR fs:0, eax
  00025	8b f1		 mov	 esi, ecx
  00027	8b 5d 08	 mov	 ebx, DWORD PTR ___flags$[ebp]
  0002a	f6 c3 02	 test	 bl, 2
  0002d	74 44		 je	 SHORT $LN2@vector
  0002f	68 00 00 00 00	 push	 OFFSET ??1OBJECTSTRUCT@@QAE@XZ
  00034	ff 76 fc	 push	 DWORD PTR [esi-4]
  00037	8d 7e fc	 lea	 edi, DWORD PTR [esi-4]
  0003a	68 40 27 00 00	 push	 10048			; 00002740H
  0003f	56		 push	 esi
  00040	e8 00 00 00 00	 call	 ??_M@YGXPAXIIP6EX0@Z@Z
  00045	f6 c3 01	 test	 bl, 1
  00048	74 13		 je	 SHORT $LN3@vector
  0004a	69 0f 40 27 00
	00		 imul	 ecx, DWORD PTR [edi], 10048
  00050	83 c1 04	 add	 ecx, 4
  00053	51		 push	 ecx
  00054	57		 push	 edi
  00055	e8 00 00 00 00	 call	 ??_V@YAXPAXI@Z		; operator delete[]
  0005a	83 c4 08	 add	 esp, 8
$LN3@vector:
  0005d	8b c7		 mov	 eax, edi
  0005f	8b 4d f4	 mov	 ecx, DWORD PTR __$EHRec$[ebp]
  00062	64 89 0d 00 00
	00 00		 mov	 DWORD PTR fs:0, ecx
  00069	59		 pop	 ecx
  0006a	5f		 pop	 edi
  0006b	5e		 pop	 esi
  0006c	5b		 pop	 ebx
  0006d	8b e5		 mov	 esp, ebp
  0006f	5d		 pop	 ebp
  00070	c2 04 00	 ret	 4
$LN2@vector:
  00073	8d 8e ec 20 00
	00		 lea	 ecx, DWORD PTR [esi+8428]
  00079	e8 00 00 00 00	 call	 ??1TMonsterAIAgro@@UAE@XZ ; TMonsterAIAgro::~TMonsterAIAgro
  0007e	8d 8e 0c 16 00
	00		 lea	 ecx, DWORD PTR [esi+5644]
  00084	e8 00 00 00 00	 call	 ??1CSkillDelay@@UAE@XZ	; CSkillDelay::~CSkillDelay
  00089	f6 c3 01	 test	 bl, 1
  0008c	74 0e		 je	 SHORT $LN4@vector
  0008e	68 40 27 00 00	 push	 10048			; 00002740H
  00093	56		 push	 esi
  00094	e8 00 00 00 00	 call	 ??3@YAXPAXI@Z		; operator delete
  00099	83 c4 08	 add	 esp, 8
$LN4@vector:
  0009c	8b c6		 mov	 eax, esi
  0009e	8b 4d f4	 mov	 ecx, DWORD PTR __$EHRec$[ebp]
  000a1	64 89 0d 00 00
	00 00		 mov	 DWORD PTR fs:0, ecx
  000a8	59		 pop	 ecx
  000a9	5f		 pop	 edi
  000aa	5e		 pop	 esi
  000ab	5b		 pop	 ebx
  000ac	8b e5		 mov	 esp, ebp
  000ae	5d		 pop	 ebp
  000af	c2 04 00	 ret	 4
_TEXT	ENDS
;	COMDAT text$x
text$x	SEGMENT
__ehhandler$??_EOBJECTSTRUCT@@QAEPAXI@Z:
  00000	8b 54 24 08	 mov	 edx, DWORD PTR [esp+8]
  00004	8d 42 0c	 lea	 eax, DWORD PTR [edx+12]
  00007	8b 4a f0	 mov	 ecx, DWORD PTR [edx-16]
  0000a	33 c8		 xor	 ecx, eax
  0000c	e8 00 00 00 00	 call	 @__security_check_cookie@4
  00011	b8 00 00 00 00	 mov	 eax, OFFSET __ehfuncinfo$??_EOBJECTSTRUCT@@QAEPAXI@Z
  00016	e9 00 00 00 00	 jmp	 ___CxxFrameHandler3
text$x	ENDS
??_EOBJECTSTRUCT@@QAEPAXI@Z ENDP			; OBJECTSTRUCT::`vector deleting destructor'
; Function compile flags: /Ogtp
;	COMDAT ??1OBJECTSTRUCT@@QAE@XZ
_TEXT	SEGMENT
??1OBJECTSTRUCT@@QAE@XZ PROC				; OBJECTSTRUCT::~OBJECTSTRUCT, COMDAT
; _this$ = ecx
  00000	56		 push	 esi
  00001	8b f1		 mov	 esi, ecx
  00003	8d 8e ec 20 00
	00		 lea	 ecx, DWORD PTR [esi+8428]
  00009	e8 00 00 00 00	 call	 ??1TMonsterAIAgro@@UAE@XZ ; TMonsterAIAgro::~TMonsterAIAgro
  0000e	8d 8e 0c 16 00
	00		 lea	 ecx, DWORD PTR [esi+5644]
  00014	5e		 pop	 esi
  00015	e9 00 00 00 00	 jmp	 ??1CSkillDelay@@UAE@XZ	; CSkillDelay::~CSkillDelay
??1OBJECTSTRUCT@@QAE@XZ ENDP				; OBJECTSTRUCT::~OBJECTSTRUCT
_TEXT	ENDS
; Function compile flags: /Ogtp
; File c:\users\michel\desktop\source\gameserver\source\viewportguild.cpp
;	COMDAT ?__empty_global_delete@@YAXPAXI@Z
_TEXT	SEGMENT
___formal$ = 8						; size = 4
___formal$ = 12						; size = 4
?__empty_global_delete@@YAXPAXI@Z PROC			; __empty_global_delete, COMDAT

; 71   : 		

  00000	c3		 ret	 0
?__empty_global_delete@@YAXPAXI@Z ENDP			; __empty_global_delete
_TEXT	ENDS
; Function compile flags: /Ogtp
; File c:\users\michel\desktop\source\gameserver\source\viewportguild.cpp
;	COMDAT ?__empty_global_delete@@YAXPAX@Z
_TEXT	SEGMENT
___formal$ = 8						; size = 4
?__empty_global_delete@@YAXPAX@Z PROC			; __empty_global_delete, COMDAT

; 71   : 		

  00000	c3		 ret	 0
?__empty_global_delete@@YAXPAX@Z ENDP			; __empty_global_delete
_TEXT	ENDS
END
