; Listing generated by Microsoft (R) Optimizing Compiler Version 19.00.23506.0 

	TITLE	C:\Users\Michel\Desktop\Source\GameServer\Source\XMasAttackEvent.cpp
	.686P
	.XMM
	include listing.inc
	.model	flat

INCLUDELIB LIBCMT
INCLUDELIB OLDNAMES

PUBLIC	?PlaySeconds@@3HA				; PlaySeconds
_DATA	SEGMENT
?PlaySeconds@@3HA DD 0ffffffffH				; PlaySeconds
_DATA	ENDS
PUBLIC	?__empty_global_delete@@YAXPAX@Z		; __empty_global_delete
PUBLIC	?__empty_global_delete@@YAXPAXI@Z		; __empty_global_delete
PUBLIC	??1OBJECTSTRUCT@@QAE@XZ				; OBJECTSTRUCT::~OBJECTSTRUCT
PUBLIC	??_EOBJECTSTRUCT@@QAEPAXI@Z			; OBJECTSTRUCT::`vector deleting destructor'
PUBLIC	??0CXMasMonsterHerd@@QAE@XZ			; CXMasMonsterHerd::CXMasMonsterHerd
PUBLIC	??1CXMasMonsterHerd@@UAE@XZ			; CXMasMonsterHerd::~CXMasMonsterHerd
PUBLIC	?Start@CXMasMonsterHerd@@UAEHXZ			; CXMasMonsterHerd::Start
PUBLIC	?MonsterHerdItemDrop@CXMasMonsterHerd@@UAEHPAUOBJECTSTRUCT@@@Z ; CXMasMonsterHerd::MonsterHerdItemDrop
PUBLIC	??_GCXMasMonsterHerd@@UAEPAXI@Z			; CXMasMonsterHerd::`scalar deleting destructor'
PUBLIC	??0MonsterAttackEvent@@QAE@XZ			; MonsterAttackEvent::MonsterAttackEvent
PUBLIC	??1MonsterAttackEvent@@UAE@XZ			; MonsterAttackEvent::~MonsterAttackEvent
PUBLIC	?Clear@MonsterAttackEvent@@QAEXXZ		; MonsterAttackEvent::Clear
PUBLIC	?allocate@?$allocator@UMONSTER_EVENT_TIME@@@std@@QAEPAUMONSTER_EVENT_TIME@@I@Z ; std::allocator<MONSTER_EVENT_TIME>::allocate
PUBLIC	?deallocate@?$_Wrap_alloc@V?$allocator@UMONSTER_EVENT_TIME@@@std@@@std@@QAEXPAUMONSTER_EVENT_TIME@@I@Z ; std::_Wrap_alloc<std::allocator<MONSTER_EVENT_TIME> >::deallocate
PUBLIC	?_Reallocate@?$vector@UMONSTER_EVENT_TIME@@V?$allocator@UMONSTER_EVENT_TIME@@@std@@@std@@IAEXI@Z ; std::vector<MONSTER_EVENT_TIME,std::allocator<MONSTER_EVENT_TIME> >::_Reallocate
PUBLIC	?_Reserve@?$vector@UMONSTER_EVENT_TIME@@V?$allocator@UMONSTER_EVENT_TIME@@@std@@@std@@IAEXI@Z ; std::vector<MONSTER_EVENT_TIME,std::allocator<MONSTER_EVENT_TIME> >::_Reserve
PUBLIC	?deallocate@?$allocator@UMONSTER_EVENT_DATA@@@std@@QAEXPAUMONSTER_EVENT_DATA@@I@Z ; std::allocator<MONSTER_EVENT_DATA>::deallocate
PUBLIC	?allocate@?$allocator@UMONSTER_EVENT_DATA@@@std@@QAEPAUMONSTER_EVENT_DATA@@I@Z ; std::allocator<MONSTER_EVENT_DATA>::allocate
PUBLIC	?push_back@?$vector@UMONSTER_EVENT_DATA@@V?$allocator@UMONSTER_EVENT_DATA@@@std@@@std@@QAEXABUMONSTER_EVENT_DATA@@@Z ; std::vector<MONSTER_EVENT_DATA,std::allocator<MONSTER_EVENT_DATA> >::push_back
PUBLIC	?erase@?$vector@UMONSTER_EVENT_DATA@@V?$allocator@UMONSTER_EVENT_DATA@@@std@@@std@@QAE?AV?$_Vector_iterator@V?$_Vector_val@U?$_Simple_types@UMONSTER_EVENT_DATA@@@std@@@std@@@2@V?$_Vector_const_iterator@V?$_Vector_val@U?$_Simple_types@UMONSTER_EVENT_DATA@@@std@@@std@@@2@0@Z ; std::vector<MONSTER_EVENT_DATA,std::allocator<MONSTER_EVENT_DATA> >::erase
PUBLIC	?_Reallocate@?$vector@UMONSTER_EVENT_DATA@@V?$allocator@UMONSTER_EVENT_DATA@@@std@@@std@@IAEXI@Z ; std::vector<MONSTER_EVENT_DATA,std::allocator<MONSTER_EVENT_DATA> >::_Reallocate
PUBLIC	?_Reserve@?$vector@UMONSTER_EVENT_DATA@@V?$allocator@UMONSTER_EVENT_DATA@@@std@@@std@@IAEXI@Z ; std::vector<MONSTER_EVENT_DATA,std::allocator<MONSTER_EVENT_DATA> >::_Reserve
PUBLIC	?allocate@?$allocator@PAVCXMasMonsterHerd@@@std@@QAEPAPAVCXMasMonsterHerd@@I@Z ; std::allocator<CXMasMonsterHerd *>::allocate
PUBLIC	?deallocate@?$_Wrap_alloc@V?$allocator@PAVCXMasMonsterHerd@@@std@@@std@@QAEXPAPAVCXMasMonsterHerd@@I@Z ; std::_Wrap_alloc<std::allocator<CXMasMonsterHerd *> >::deallocate
PUBLIC	?_Reallocate@?$vector@PAVCXMasMonsterHerd@@V?$allocator@PAVCXMasMonsterHerd@@@std@@@std@@IAEXI@Z ; std::vector<CXMasMonsterHerd *,std::allocator<CXMasMonsterHerd *> >::_Reallocate
PUBLIC	?_Reserve@?$vector@PAVCXMasMonsterHerd@@V?$allocator@PAVCXMasMonsterHerd@@@std@@@std@@IAEXI@Z ; std::vector<CXMasMonsterHerd *,std::allocator<CXMasMonsterHerd *> >::_Reserve
PUBLIC	??_GMonsterAttackEvent@@UAEPAXI@Z		; MonsterAttackEvent::`scalar deleting destructor'
PUBLIC	??0CXMasAttackEvent@@QAE@XZ			; CXMasAttackEvent::CXMasAttackEvent
PUBLIC	??1CXMasAttackEvent@@UAE@XZ			; CXMasAttackEvent::~CXMasAttackEvent
PUBLIC	?Load@CXMasAttackEvent@@UAEHPAD@Z		; CXMasAttackEvent::Load
PUBLIC	?StartEvent@CXMasAttackEvent@@UAEXXZ		; CXMasAttackEvent::StartEvent
PUBLIC	?StopEvent@CXMasAttackEvent@@UAEXXZ		; CXMasAttackEvent::StopEvent
PUBLIC	?SetEnable@CXMasAttackEvent@@UAEXH@Z		; CXMasAttackEvent::SetEnable
PUBLIC	?SetManualStart@CXMasAttackEvent@@UAEXH@Z	; CXMasAttackEvent::SetManualStart
PUBLIC	?SetState@CXMasAttackEvent@@QAEXH@Z		; CXMasAttackEvent::SetState
PUBLIC	?SetState_NONE@CXMasAttackEvent@@QAEXXZ		; CXMasAttackEvent::SetState_NONE
PUBLIC	?SetState_CLOSED@CXMasAttackEvent@@QAEXXZ	; CXMasAttackEvent::SetState_CLOSED
PUBLIC	?SetState_PLAYING@CXMasAttackEvent@@QAEXXZ	; CXMasAttackEvent::SetState_PLAYING
PUBLIC	?Move@CXMasAttackEvent@@QAEXXZ			; CXMasAttackEvent::Move
PUBLIC	?Notify@CXMasAttackEvent@@QAEXPADHEE@Z		; CXMasAttackEvent::Notify
PUBLIC	?RemoveMonsterHerd@CXMasAttackEvent@@QAEXXZ	; CXMasAttackEvent::RemoveMonsterHerd
PUBLIC	?AddMonsters@CXMasAttackEvent@@QAEXPAVCXMasMonsterHerd@@@Z ; CXMasAttackEvent::AddMonsters
PUBLIC	?CreateMonsterHerd@CXMasAttackEvent@@QAEXXZ	; CXMasAttackEvent::CreateMonsterHerd
PUBLIC	?CheckLocation@CXMasAttackEvent@@QAEHPAVCXMasMonsterHerd@@PAUXMASMONSTER_MAP_DATA@@@Z ; CXMasAttackEvent::CheckLocation
PUBLIC	?Run@CXMasAttackEvent@@QAEXXZ			; CXMasAttackEvent::Run
PUBLIC	?ProcState_NONE@CXMasAttackEvent@@QAEXXZ	; CXMasAttackEvent::ProcState_NONE
PUBLIC	?ProcState_CLOSED@CXMasAttackEvent@@QAEXXZ	; CXMasAttackEvent::ProcState_CLOSED
PUBLIC	?ProcState_PLAYING@CXMasAttackEvent@@QAEXXZ	; CXMasAttackEvent::ProcState_PLAYING
PUBLIC	?SendEffect@CXMasAttackEvent@@QAEXPADH@Z	; CXMasAttackEvent::SendEffect
PUBLIC	?CheckSync@CXMasAttackEvent@@QAEXXZ		; CXMasAttackEvent::CheckSync
PUBLIC	?deallocate@?$allocator@UXMASMONSTER_MAP_DATA@@@std@@QAEXPAUXMASMONSTER_MAP_DATA@@I@Z ; std::allocator<XMASMONSTER_MAP_DATA>::deallocate
PUBLIC	?allocate@?$allocator@UXMASMONSTER_MAP_DATA@@@std@@QAEPAUXMASMONSTER_MAP_DATA@@I@Z ; std::allocator<XMASMONSTER_MAP_DATA>::allocate
PUBLIC	?push_back@?$vector@UXMASMONSTER_MAP_DATA@@V?$allocator@UXMASMONSTER_MAP_DATA@@@std@@@std@@QAEXABUXMASMONSTER_MAP_DATA@@@Z ; std::vector<XMASMONSTER_MAP_DATA,std::allocator<XMASMONSTER_MAP_DATA> >::push_back
PUBLIC	?_Reallocate@?$vector@UXMASMONSTER_MAP_DATA@@V?$allocator@UXMASMONSTER_MAP_DATA@@@std@@@std@@IAEXI@Z ; std::vector<XMASMONSTER_MAP_DATA,std::allocator<XMASMONSTER_MAP_DATA> >::_Reallocate
PUBLIC	?_Reserve@?$vector@UXMASMONSTER_MAP_DATA@@V?$allocator@UXMASMONSTER_MAP_DATA@@@std@@@std@@IAEXI@Z ; std::vector<XMASMONSTER_MAP_DATA,std::allocator<XMASMONSTER_MAP_DATA> >::_Reserve
PUBLIC	??_GCXMasAttackEvent@@UAEPAXI@Z			; CXMasAttackEvent::`scalar deleting destructor'
PUBLIC	??$_Uninit_move@PAUXMASMONSTER_MAP_DATA@@PAU1@V?$allocator@UXMASMONSTER_MAP_DATA@@@std@@U1@@std@@YAPAUXMASMONSTER_MAP_DATA@@PAU1@00AAU?$_Wrap_alloc@V?$allocator@UXMASMONSTER_MAP_DATA@@@std@@@0@0U_Nonscalar_ptr_iterator_tag@0@@Z ; std::_Uninit_move<XMASMONSTER_MAP_DATA *,XMASMONSTER_MAP_DATA *,std::allocator<XMASMONSTER_MAP_DATA>,XMASMONSTER_MAP_DATA>
PUBLIC	??$_Uninit_move@PAUMONSTER_EVENT_DATA@@PAU1@V?$allocator@UMONSTER_EVENT_DATA@@@std@@U1@@std@@YAPAUMONSTER_EVENT_DATA@@PAU1@00AAU?$_Wrap_alloc@V?$allocator@UMONSTER_EVENT_DATA@@@std@@@0@0U_Nonscalar_ptr_iterator_tag@0@@Z ; std::_Uninit_move<MONSTER_EVENT_DATA *,MONSTER_EVENT_DATA *,std::allocator<MONSTER_EVENT_DATA>,MONSTER_EVENT_DATA>
PUBLIC	??$_Uninit_move@PAUMONSTER_EVENT_TIME@@PAU1@V?$allocator@UMONSTER_EVENT_TIME@@@std@@U1@@std@@YAPAUMONSTER_EVENT_TIME@@PAU1@00AAU?$_Wrap_alloc@V?$allocator@UMONSTER_EVENT_TIME@@@std@@@0@0U_Nonscalar_ptr_iterator_tag@0@@Z ; std::_Uninit_move<MONSTER_EVENT_TIME *,MONSTER_EVENT_TIME *,std::allocator<MONSTER_EVENT_TIME>,MONSTER_EVENT_TIME>
PUBLIC	??_C@_00CNPNBAHC@?$AA@				; `string'
PUBLIC	??_7CXMasMonsterHerd@@6B@			; CXMasMonsterHerd::`vftable'
PUBLIC	??_7MonsterAttackEvent@@6B@			; MonsterAttackEvent::`vftable'
PUBLIC	??_7CXMasAttackEvent@@6B@			; CXMasAttackEvent::`vftable'
PUBLIC	??_C@_0DE@HBJLJHOD@?$FLXMasAttackEvent?$FN?5White?5Wizard?5K@ ; `string'
PUBLIC	??_C@_01KDCPPGHE@r?$AA@				; `string'
PUBLIC	??_C@_0CL@CKPDAKHI@?$FLXMasAttackEvent?$FN?5Info?5file?5Load@ ; `string'
PUBLIC	??_C@_03JBJLGPFL@end?$AA@			; `string'
PUBLIC	??_C@_0CC@PEGBMCF@?$FLXMasAttackEvent?$FN?5?9?5?$CFs?5file?5load@ ; `string'
PUBLIC	??_C@_0DC@KONBBJGO@?$FLXMasAttackEvent?$FN?5?9?5Error?5?3?5No?5M@ ; `string'
PUBLIC	??_C@_0EE@INOOIIFJ@?$FLXMasAttackEvent?$FN?5?9?5Monster?5Star@ ; `string'
PUBLIC	??_C@_0BE@PJEFBOCC@XMasAttackEvent?4cpp?$AA@	; `string'
PUBLIC	??_C@_04HIBGFPH@NULL?$AA@			; `string'
PUBLIC	??_C@_0P@ENJPCMFP@?$CFs?7?$CFs?7?$CFs?7?$CFs?7?$CFd?$AA@ ; `string'
PUBLIC	??_C@_0FK@CCACGPIP@?$CIm_nEventState?5?$DO?$DN?5ATTACKEVENT_ST@ ; `string'
PUBLIC	??_C@_0CB@GNAONFCI@SetState?$CIATTACKEVENT_STATE_NONE?$CJ@ ; `string'
PUBLIC	??_C@_0L@MJHOMCIJ@m_bDoEvent?$AA@		; `string'
PUBLIC	??_C@_0DC@FLOKLKPF@?$FLXMasAttackEvent?$FN?5?9?5Before?5?$CFd?5mi@ ; `string'
PUBLIC	??_C@_0CC@DNJMFKJI@?$FLXMasAttackEvent?$FN?5?9?5Event?5Starte@ ; `string'
PUBLIC	??_C@_0EL@CAFMAFGG@?$FLXMasAttackEvent?$FN?5?9?5per?530?8S?5Inf@ ; `string'
PUBLIC	??_C@_0CC@NCANOPGD@?$FLXMasAttackEvent?$FN?5?9?5NotifySec?3?5?$CF@ ; `string'
PUBLIC	??_C@_0DP@COOJAPLA@?$FLXMasAttackEvent?$FN?5?9?5Monster?5Herd@ ; `string'
PUBLIC	??_C@_0CA@GNBALKOM@?$FLXMasAttackEvent?$FN?5?9?5Event?5Ended?$AA@ ; `string'
PUBLIC	??_C@_0CI@LHGLLEGN@?$FLXMasAttackEvent?$FN?5No?5Schedule?5Ti@ ; `string'
PUBLIC	??_C@_0EL@EFNIAOHC@?$FLXMasAttackEvent?$FN?5Sync?5Start?5Tim@ ; `string'
PUBLIC	??_C@_0BD@OLBABOEK@vector?$DMT?$DO?5too?5long?$AA@ ; `string'
PUBLIC	??_R4CXMasMonsterHerd@@6B@			; CXMasMonsterHerd::`RTTI Complete Object Locator'
PUBLIC	??_R0?AVCXMasMonsterHerd@@@8			; CXMasMonsterHerd `RTTI Type Descriptor'
PUBLIC	??_R3CXMasMonsterHerd@@8			; CXMasMonsterHerd::`RTTI Class Hierarchy Descriptor'
PUBLIC	??_R2CXMasMonsterHerd@@8			; CXMasMonsterHerd::`RTTI Base Class Array'
PUBLIC	??_R1A@?0A@EA@CXMasMonsterHerd@@8		; CXMasMonsterHerd::`RTTI Base Class Descriptor at (0,-1,0,64)'
PUBLIC	??_R1A@?0A@EA@MonsterHerd@@8			; MonsterHerd::`RTTI Base Class Descriptor at (0,-1,0,64)'
PUBLIC	??_R0?AVMonsterHerd@@@8				; MonsterHerd `RTTI Type Descriptor'
PUBLIC	??_R3MonsterHerd@@8				; MonsterHerd::`RTTI Class Hierarchy Descriptor'
PUBLIC	??_R2MonsterHerd@@8				; MonsterHerd::`RTTI Base Class Array'
PUBLIC	??_R4MonsterAttackEvent@@6B@			; MonsterAttackEvent::`RTTI Complete Object Locator'
PUBLIC	??_R0?AVMonsterAttackEvent@@@8			; MonsterAttackEvent `RTTI Type Descriptor'
PUBLIC	??_R3MonsterAttackEvent@@8			; MonsterAttackEvent::`RTTI Class Hierarchy Descriptor'
PUBLIC	??_R2MonsterAttackEvent@@8			; MonsterAttackEvent::`RTTI Base Class Array'
PUBLIC	??_R1A@?0A@EA@MonsterAttackEvent@@8		; MonsterAttackEvent::`RTTI Base Class Descriptor at (0,-1,0,64)'
PUBLIC	??_R4CXMasAttackEvent@@6B@			; CXMasAttackEvent::`RTTI Complete Object Locator'
PUBLIC	??_R0?AVCXMasAttackEvent@@@8			; CXMasAttackEvent `RTTI Type Descriptor'
PUBLIC	??_R3CXMasAttackEvent@@8			; CXMasAttackEvent::`RTTI Class Hierarchy Descriptor'
PUBLIC	??_R2CXMasAttackEvent@@8			; CXMasAttackEvent::`RTTI Base Class Array'
PUBLIC	??_R1A@?0A@EA@CXMasAttackEvent@@8		; CXMasAttackEvent::`RTTI Base Class Descriptor at (0,-1,0,64)'
EXTRN	??_M@YGXPAXIIP6EX0@Z@Z:PROC			; `eh vector destructor iterator'
EXTRN	??2@YAPAXI@Z:PROC				; operator new
EXTRN	??3@YAXPAX@Z:PROC				; operator delete
EXTRN	??3@YAXPAXI@Z:PROC				; operator delete
EXTRN	??_V@YAXPAX@Z:PROC				; operator delete[]
EXTRN	??_V@YAXPAXI@Z:PROC				; operator delete[]
EXTRN	__invalid_parameter_noinfo_noreturn:PROC
EXTRN	_isalpha:PROC
EXTRN	_isdigit:PROC
EXTRN	_isspace:PROC
EXTRN	_isalnum:PROC
EXTRN	_memmove:PROC
EXTRN	__imp__InitializeCriticalSection@4:PROC
EXTRN	__imp__EnterCriticalSection@4:PROC
EXTRN	__imp__LeaveCriticalSection@4:PROC
EXTRN	__imp__DeleteCriticalSection@4:PROC
EXTRN	__imp__GetLocalTime@4:PROC
EXTRN	__imp__GetTickCount@0:PROC
EXTRN	__imp__wsprintfA:PROC
EXTRN	_fclose:PROC
EXTRN	_fgetc:PROC
EXTRN	_fopen:PROC
EXTRN	_getc:PROC
EXTRN	_ungetc:PROC
EXTRN	_rand:PROC
EXTRN	_atof:PROC
EXTRN	?_Xbad_alloc@std@@YAXXZ:PROC			; std::_Xbad_alloc
EXTRN	?_Xlength_error@std@@YAXPBD@Z:PROC		; std::_Xlength_error
EXTRN	?Get@Message@@QAEPADH@Z:PROC			; Message::Get
EXTRN	?ItemGetNumberMake@@YAHHH@Z:PROC		; ItemGetNumberMake
EXTRN	??1CSkillDelay@@UAE@XZ:PROC			; CSkillDelay::~CSkillDelay
EXTRN	?MsgBox@@YAXPADZZ:PROC				; MsgBox
EXTRN	??1TMonsterAIAgro@@UAE@XZ:PROC			; TMonsterAIAgro::~TMonsterAIAgro
EXTRN	?MoneyItemDrop@MapClass@@QAEHHHH@Z:PROC		; MapClass::MoneyItemDrop
EXTRN	?AllSendServerMsg@@YAXPAD@Z:PROC		; AllSendServerMsg
EXTRN	?DataSendAll@@YAXPAEH@Z:PROC			; DataSendAll
EXTRN	??0MonsterHerd@@QAE@XZ:PROC			; MonsterHerd::MonsterHerd
EXTRN	??1MonsterHerd@@UAE@XZ:PROC			; MonsterHerd::~MonsterHerd
EXTRN	?SetTotalInfo@MonsterHerd@@UAEHHHHH@Z:PROC	; MonsterHerd::SetTotalInfo
EXTRN	?AddMonster@MonsterHerd@@UAEHHHH@Z:PROC		; MonsterHerd::AddMonster
EXTRN	?SetRadius@MonsterHerd@@UAEXH@Z:PROC		; MonsterHerd::SetRadius
EXTRN	?SetPosition@MonsterHerd@@UAEXEE@Z:PROC		; MonsterHerd::SetPosition
EXTRN	?Start@MonsterHerd@@UAEHXZ:PROC			; MonsterHerd::Start
EXTRN	?Stop@MonsterHerd@@UAEXXZ:PROC			; MonsterHerd::Stop
EXTRN	?CheckInRadius@MonsterHerd@@UAEHH@Z:PROC	; MonsterHerd::CheckInRadius
EXTRN	?GetCurrentLocation@MonsterHerd@@UAEHAAE0@Z:PROC ; MonsterHerd::GetCurrentLocation
EXTRN	?GetRandomLocation@MonsterHerd@@UAEHAAE0@Z:PROC	; MonsterHerd::GetRandomLocation
EXTRN	?CheckLocation@MonsterHerd@@UAEHAAE0@Z:PROC	; MonsterHerd::CheckLocation
EXTRN	?MoveHerd@MonsterHerd@@UAEHEE@Z:PROC		; MonsterHerd::MoveHerd
EXTRN	?GetMonsterData@MonsterHerd@@UAEPAU_MONSTER_HERD_DATA@@H@Z:PROC ; MonsterHerd::GetMonsterData
EXTRN	?BeenAttacked@MonsterHerd@@UAEXPAUOBJECTSTRUCT@@0@Z:PROC ; MonsterHerd::BeenAttacked
EXTRN	?OrderAttack@MonsterHerd@@UAEXPAUOBJECTSTRUCT@@0H@Z:PROC ; MonsterHerd::OrderAttack
EXTRN	?MonsterBaseAct@MonsterHerd@@UAEXPAUOBJECTSTRUCT@@@Z:PROC ; MonsterHerd::MonsterBaseAct
EXTRN	?MonsterMoveAction@MonsterHerd@@UAEXPAUOBJECTSTRUCT@@@Z:PROC ; MonsterHerd::MonsterMoveAction
EXTRN	?MonsterAttackAction@MonsterHerd@@UAEXPAUOBJECTSTRUCT@@0@Z:PROC ; MonsterHerd::MonsterAttackAction
EXTRN	?MonsterDieAction@MonsterHerd@@UAEXPAUOBJECTSTRUCT@@@Z:PROC ; MonsterHerd::MonsterDieAction
EXTRN	?MonsterRegenAction@MonsterHerd@@UAEHPAUOBJECTSTRUCT@@@Z:PROC ; MonsterHerd::MonsterRegenAction
EXTRN	??_ECXMasMonsterHerd@@UAEPAXI@Z:PROC		; CXMasMonsterHerd::`vector deleting destructor'
EXTRN	??_EMonsterAttackEvent@@UAEPAXI@Z:PROC		; MonsterAttackEvent::`vector deleting destructor'
EXTRN	??_ECXMasAttackEvent@@UAEPAXI@Z:PROC		; CXMasAttackEvent::`vector deleting destructor'
EXTRN	?gObjMonsterTopHitDamageUser@@YAHPAUOBJECTSTRUCT@@@Z:PROC ; gObjMonsterTopHitDamageUser
EXTRN	?ItemSerialCreateSend@@YAXHEEEHEEEEEHEEEPAE@Z:PROC ; ItemSerialCreateSend
EXTRN	?gObjAddBuffEffectWideArea@@YAHPAUOBJECTSTRUCT@@HAAHHEHEHH@Z:PROC ; gObjAddBuffEffectWideArea
EXTRN	?PHeadSetB@@YAXPAEEH@Z:PROC			; PHeadSetB
EXTRN	@__security_check_cookie@4:PROC
EXTRN	__CxxThrowException@8:PROC
EXTRN	___CxxFrameHandler3:PROC
EXTRN	??_7type_info@@6B@:QWORD			; type_info::`vftable'
EXTRN	?lMsg@@3VMessage@@A:BYTE			; lMsg
EXTRN	?LogAdd@@3P6AXPADZZA:DWORD			; LogAdd
EXTRN	?LogAddC@@3P6AXEPADZZA:DWORD			; LogAddC
EXTRN	?LogAddTD@@3P6AXPADZZA:DWORD			; LogAddTD
EXTRN	?gObj@@3PAUOBJECTSTRUCT@@A:DWORD		; gObj
EXTRN	?g_iXMasItemDropRate@@3HA:DWORD			; g_iXMasItemDropRate
EXTRN	?g_iXMasZenDrop@@3HA:DWORD			; g_iXMasZenDrop
EXTRN	?MapC@@3PAVMapClass@@A:BYTE			; MapC
EXTRN	___security_cookie:DWORD
EXTRN	__fltused:DWORD
_BSS	SEGMENT
?SMDFile@@3PAU_iobuf@@A DD 01H DUP (?)			; SMDFile
?TokenNumber@@3MA DD 01H DUP (?)			; TokenNumber
?TokenString@@3PADA DB 064H DUP (?)			; TokenString
?CurrentToken@@3W4SMDToken@@A DD 01H DUP (?)		; CurrentToken
_BSS	ENDS
;	COMDAT ??_R1A@?0A@EA@CXMasAttackEvent@@8
rdata$r	SEGMENT
??_R1A@?0A@EA@CXMasAttackEvent@@8 DD FLAT:??_R0?AVCXMasAttackEvent@@@8 ; CXMasAttackEvent::`RTTI Base Class Descriptor at (0,-1,0,64)'
	DD	01H
	DD	00H
	DD	0ffffffffH
	DD	00H
	DD	040H
	DD	FLAT:??_R3CXMasAttackEvent@@8
rdata$r	ENDS
;	COMDAT ??_R2CXMasAttackEvent@@8
rdata$r	SEGMENT
??_R2CXMasAttackEvent@@8 DD FLAT:??_R1A@?0A@EA@CXMasAttackEvent@@8 ; CXMasAttackEvent::`RTTI Base Class Array'
	DD	FLAT:??_R1A@?0A@EA@MonsterAttackEvent@@8
rdata$r	ENDS
;	COMDAT ??_R3CXMasAttackEvent@@8
rdata$r	SEGMENT
??_R3CXMasAttackEvent@@8 DD 00H				; CXMasAttackEvent::`RTTI Class Hierarchy Descriptor'
	DD	00H
	DD	02H
	DD	FLAT:??_R2CXMasAttackEvent@@8
rdata$r	ENDS
;	COMDAT ??_R0?AVCXMasAttackEvent@@@8
data$r	SEGMENT
??_R0?AVCXMasAttackEvent@@@8 DD FLAT:??_7type_info@@6B@	; CXMasAttackEvent `RTTI Type Descriptor'
	DD	00H
	DB	'.?AVCXMasAttackEvent@@', 00H
data$r	ENDS
;	COMDAT ??_R4CXMasAttackEvent@@6B@
rdata$r	SEGMENT
??_R4CXMasAttackEvent@@6B@ DD 00H			; CXMasAttackEvent::`RTTI Complete Object Locator'
	DD	00H
	DD	00H
	DD	FLAT:??_R0?AVCXMasAttackEvent@@@8
	DD	FLAT:??_R3CXMasAttackEvent@@8
rdata$r	ENDS
;	COMDAT ??_R1A@?0A@EA@MonsterAttackEvent@@8
rdata$r	SEGMENT
??_R1A@?0A@EA@MonsterAttackEvent@@8 DD FLAT:??_R0?AVMonsterAttackEvent@@@8 ; MonsterAttackEvent::`RTTI Base Class Descriptor at (0,-1,0,64)'
	DD	00H
	DD	00H
	DD	0ffffffffH
	DD	00H
	DD	040H
	DD	FLAT:??_R3MonsterAttackEvent@@8
rdata$r	ENDS
;	COMDAT ??_R2MonsterAttackEvent@@8
rdata$r	SEGMENT
??_R2MonsterAttackEvent@@8 DD FLAT:??_R1A@?0A@EA@MonsterAttackEvent@@8 ; MonsterAttackEvent::`RTTI Base Class Array'
rdata$r	ENDS
;	COMDAT ??_R3MonsterAttackEvent@@8
rdata$r	SEGMENT
??_R3MonsterAttackEvent@@8 DD 00H			; MonsterAttackEvent::`RTTI Class Hierarchy Descriptor'
	DD	00H
	DD	01H
	DD	FLAT:??_R2MonsterAttackEvent@@8
rdata$r	ENDS
;	COMDAT ??_R0?AVMonsterAttackEvent@@@8
data$r	SEGMENT
??_R0?AVMonsterAttackEvent@@@8 DD FLAT:??_7type_info@@6B@ ; MonsterAttackEvent `RTTI Type Descriptor'
	DD	00H
	DB	'.?AVMonsterAttackEvent@@', 00H
data$r	ENDS
;	COMDAT ??_R4MonsterAttackEvent@@6B@
rdata$r	SEGMENT
??_R4MonsterAttackEvent@@6B@ DD 00H			; MonsterAttackEvent::`RTTI Complete Object Locator'
	DD	00H
	DD	00H
	DD	FLAT:??_R0?AVMonsterAttackEvent@@@8
	DD	FLAT:??_R3MonsterAttackEvent@@8
rdata$r	ENDS
;	COMDAT ??_R2MonsterHerd@@8
rdata$r	SEGMENT
??_R2MonsterHerd@@8 DD FLAT:??_R1A@?0A@EA@MonsterHerd@@8 ; MonsterHerd::`RTTI Base Class Array'
rdata$r	ENDS
;	COMDAT ??_R3MonsterHerd@@8
rdata$r	SEGMENT
??_R3MonsterHerd@@8 DD 00H				; MonsterHerd::`RTTI Class Hierarchy Descriptor'
	DD	00H
	DD	01H
	DD	FLAT:??_R2MonsterHerd@@8
rdata$r	ENDS
;	COMDAT ??_R0?AVMonsterHerd@@@8
data$r	SEGMENT
??_R0?AVMonsterHerd@@@8 DD FLAT:??_7type_info@@6B@	; MonsterHerd `RTTI Type Descriptor'
	DD	00H
	DB	'.?AVMonsterHerd@@', 00H
data$r	ENDS
;	COMDAT ??_R1A@?0A@EA@MonsterHerd@@8
rdata$r	SEGMENT
??_R1A@?0A@EA@MonsterHerd@@8 DD FLAT:??_R0?AVMonsterHerd@@@8 ; MonsterHerd::`RTTI Base Class Descriptor at (0,-1,0,64)'
	DD	00H
	DD	00H
	DD	0ffffffffH
	DD	00H
	DD	040H
	DD	FLAT:??_R3MonsterHerd@@8
rdata$r	ENDS
;	COMDAT ??_R1A@?0A@EA@CXMasMonsterHerd@@8
rdata$r	SEGMENT
??_R1A@?0A@EA@CXMasMonsterHerd@@8 DD FLAT:??_R0?AVCXMasMonsterHerd@@@8 ; CXMasMonsterHerd::`RTTI Base Class Descriptor at (0,-1,0,64)'
	DD	01H
	DD	00H
	DD	0ffffffffH
	DD	00H
	DD	040H
	DD	FLAT:??_R3CXMasMonsterHerd@@8
rdata$r	ENDS
;	COMDAT ??_R2CXMasMonsterHerd@@8
rdata$r	SEGMENT
??_R2CXMasMonsterHerd@@8 DD FLAT:??_R1A@?0A@EA@CXMasMonsterHerd@@8 ; CXMasMonsterHerd::`RTTI Base Class Array'
	DD	FLAT:??_R1A@?0A@EA@MonsterHerd@@8
rdata$r	ENDS
;	COMDAT ??_R3CXMasMonsterHerd@@8
rdata$r	SEGMENT
??_R3CXMasMonsterHerd@@8 DD 00H				; CXMasMonsterHerd::`RTTI Class Hierarchy Descriptor'
	DD	00H
	DD	02H
	DD	FLAT:??_R2CXMasMonsterHerd@@8
rdata$r	ENDS
;	COMDAT ??_R0?AVCXMasMonsterHerd@@@8
data$r	SEGMENT
??_R0?AVCXMasMonsterHerd@@@8 DD FLAT:??_7type_info@@6B@	; CXMasMonsterHerd `RTTI Type Descriptor'
	DD	00H
	DB	'.?AVCXMasMonsterHerd@@', 00H
data$r	ENDS
;	COMDAT ??_R4CXMasMonsterHerd@@6B@
rdata$r	SEGMENT
??_R4CXMasMonsterHerd@@6B@ DD 00H			; CXMasMonsterHerd::`RTTI Complete Object Locator'
	DD	00H
	DD	00H
	DD	FLAT:??_R0?AVCXMasMonsterHerd@@@8
	DD	FLAT:??_R3CXMasMonsterHerd@@8
rdata$r	ENDS
;	COMDAT ??_C@_0BD@OLBABOEK@vector?$DMT?$DO?5too?5long?$AA@
CONST	SEGMENT
??_C@_0BD@OLBABOEK@vector?$DMT?$DO?5too?5long?$AA@ DB 'vector<T> too long'
	DB	00H						; `string'
CONST	ENDS
;	COMDAT ??_C@_0EL@EFNIAOHC@?$FLXMasAttackEvent?$FN?5Sync?5Start?5Tim@
CONST	SEGMENT
??_C@_0EL@EFNIAOHC@?$FLXMasAttackEvent?$FN?5Sync?5Start?5Tim@ DB '[XMasAt'
	DB	'tackEvent] Sync Start Time. [%d] min remain (START HOUR:%d, M'
	DB	'IN:%d)', 00H				; `string'
CONST	ENDS
;	COMDAT ??_C@_0CI@LHGLLEGN@?$FLXMasAttackEvent?$FN?5No?5Schedule?5Ti@
CONST	SEGMENT
??_C@_0CI@LHGLLEGN@?$FLXMasAttackEvent?$FN?5No?5Schedule?5Ti@ DB '[XMasAt'
	DB	'tackEvent] No Schedule Time Data', 00H	; `string'
CONST	ENDS
;	COMDAT ??_C@_0CA@GNBALKOM@?$FLXMasAttackEvent?$FN?5?9?5Event?5Ended?$AA@
CONST	SEGMENT
??_C@_0CA@GNBALKOM@?$FLXMasAttackEvent?$FN?5?9?5Event?5Ended?$AA@ DB '[XM'
	DB	'asAttackEvent] - Event Ended', 00H		; `string'
CONST	ENDS
;	COMDAT ??_C@_0DP@COOJAPLA@?$FLXMasAttackEvent?$FN?5?9?5Monster?5Herd@
CONST	SEGMENT
??_C@_0DP@COOJAPLA@?$FLXMasAttackEvent?$FN?5?9?5Monster?5Herd@ DB '[XMasA'
	DB	'ttackEvent] - Monster Herd Move MapNumber:%d, X:%d, Y:%d', 00H ; `string'
CONST	ENDS
;	COMDAT ??_C@_0CC@NCANOPGD@?$FLXMasAttackEvent?$FN?5?9?5NotifySec?3?5?$CF@
CONST	SEGMENT
??_C@_0CC@NCANOPGD@?$FLXMasAttackEvent?$FN?5?9?5NotifySec?3?5?$CF@ DB '[X'
	DB	'MasAttackEvent] - NotifySec: %d', 00H	; `string'
CONST	ENDS
;	COMDAT ??_C@_0EL@CAFMAFGG@?$FLXMasAttackEvent?$FN?5?9?5per?530?8S?5Inf@
CONST	SEGMENT
??_C@_0EL@CAFMAFGG@?$FLXMasAttackEvent?$FN?5?9?5per?530?8S?5Inf@ DB '[XMa'
	DB	'sAttackEvent] - per 30''S Inform MapNumber:%d, X:%d, Y:%d, Bo'
	DB	'ss Live:%d', 00H				; `string'
CONST	ENDS
_DATA	SEGMENT
	ORG $+4
?g_XMasMapDestPosition@@3PAY07HA DD 085H		; g_XMasMapDestPosition
	DD	04fH
	DD	057H
	DD	07eH
	DD	085H
	DD	0b2H
	DD	0b4H
	DD	07eH
	DD	0a4H
	DD	02aH
	DD	0ddH
	DD	055H
	DD	0a4H
	DD	02aH
	DD	0ddH
	DD	055H
	DD	0a0H
	DD	02dH
	DD	0a0H
	DD	02dH
	DD	098H
	DD	075H
	DD	0d1H
	DD	085H
_DATA	ENDS
;	COMDAT ??_C@_0CC@DNJMFKJI@?$FLXMasAttackEvent?$FN?5?9?5Event?5Starte@
CONST	SEGMENT
??_C@_0CC@DNJMFKJI@?$FLXMasAttackEvent?$FN?5?9?5Event?5Starte@ DB '[XMasA'
	DB	'ttackEvent] - Event Started', 00H		; `string'
CONST	ENDS
;	COMDAT ??_C@_0DC@FLOKLKPF@?$FLXMasAttackEvent?$FN?5?9?5Before?5?$CFd?5mi@
CONST	SEGMENT
??_C@_0DC@FLOKLKPF@?$FLXMasAttackEvent?$FN?5?9?5Before?5?$CFd?5mi@ DB '[X'
	DB	'MasAttackEvent] - Before %d minutes - Advertise', 00H ; `string'
CONST	ENDS
;	COMDAT ??_C@_0L@MJHOMCIJ@m_bDoEvent?$AA@
CONST	SEGMENT
??_C@_0L@MJHOMCIJ@m_bDoEvent?$AA@ DB 'm_bDoEvent', 00H	; `string'
CONST	ENDS
;	COMDAT ??_C@_0CB@GNAONFCI@SetState?$CIATTACKEVENT_STATE_NONE?$CJ@
CONST	SEGMENT
??_C@_0CB@GNAONFCI@SetState?$CIATTACKEVENT_STATE_NONE?$CJ@ DB 'SetState(A'
	DB	'TTACKEVENT_STATE_NONE)', 00H		; `string'
CONST	ENDS
;	COMDAT ??_C@_0FK@CCACGPIP@?$CIm_nEventState?5?$DO?$DN?5ATTACKEVENT_ST@
CONST	SEGMENT
??_C@_0FK@CCACGPIP@?$CIm_nEventState?5?$DO?$DN?5ATTACKEVENT_ST@ DB '(m_nE'
	DB	'ventState >= ATTACKEVENT_STATE_NONE) || (m_nEventState <= ATT'
	DB	'ACKEVENT_STATE_PLAYING)', 00H		; `string'
CONST	ENDS
;	COMDAT ??_C@_0P@ENJPCMFP@?$CFs?7?$CFs?7?$CFs?7?$CFs?7?$CFd?$AA@
CONST	SEGMENT
??_C@_0P@ENJPCMFP@?$CFs?7?$CFs?7?$CFs?7?$CFs?7?$CFd?$AA@ DB '%s', 09H, '%'
	DB	's', 09H, '%s', 09H, '%s', 09H, '%d', 00H	; `string'
CONST	ENDS
;	COMDAT ??_C@_04HIBGFPH@NULL?$AA@
CONST	SEGMENT
??_C@_04HIBGFPH@NULL?$AA@ DB 'NULL', 00H		; `string'
CONST	ENDS
;	COMDAT ??_C@_0BE@PJEFBOCC@XMasAttackEvent?4cpp?$AA@
CONST	SEGMENT
??_C@_0BE@PJEFBOCC@XMasAttackEvent?4cpp?$AA@ DB 'XMasAttackEvent.cpp', 00H ; `string'
CONST	ENDS
;	COMDAT ??_C@_0EE@INOOIIFJ@?$FLXMasAttackEvent?$FN?5?9?5Monster?5Star@
CONST	SEGMENT
??_C@_0EE@INOOIIFJ@?$FLXMasAttackEvent?$FN?5?9?5Monster?5Star@ DB '[XMasA'
	DB	'ttackEvent] - Monster Start Position MapNumber:%d, X:%d, Y:%d'
	DB	00H						; `string'
CONST	ENDS
;	COMDAT ??_C@_0DC@KONBBJGO@?$FLXMasAttackEvent?$FN?5?9?5Error?5?3?5No?5M@
CONST	SEGMENT
??_C@_0DC@KONBBJGO@?$FLXMasAttackEvent?$FN?5?9?5Error?5?3?5No?5M@ DB '[XM'
	DB	'asAttackEvent] - Error : No Monster Data Exist', 00H ; `string'
CONST	ENDS
;	COMDAT ??_C@_0CC@PEGBMCF@?$FLXMasAttackEvent?$FN?5?9?5?$CFs?5file?5load@
CONST	SEGMENT
??_C@_0CC@PEGBMCF@?$FLXMasAttackEvent?$FN?5?9?5?$CFs?5file?5load@ DB '[XM'
	DB	'asAttackEvent] - %s file load!', 00H	; `string'
CONST	ENDS
;	COMDAT ??_C@_03JBJLGPFL@end?$AA@
CONST	SEGMENT
??_C@_03JBJLGPFL@end?$AA@ DB 'end', 00H			; `string'
CONST	ENDS
;	COMDAT ??_C@_0CL@CKPDAKHI@?$FLXMasAttackEvent?$FN?5Info?5file?5Load@
CONST	SEGMENT
??_C@_0CL@CKPDAKHI@?$FLXMasAttackEvent?$FN?5Info?5file?5Load@ DB '[XMasAt'
	DB	'tackEvent] Info file Load Fail [%s]', 00H	; `string'
CONST	ENDS
;	COMDAT ??_C@_01KDCPPGHE@r?$AA@
CONST	SEGMENT
??_C@_01KDCPPGHE@r?$AA@ DB 'r', 00H			; `string'
CONST	ENDS
;	COMDAT ??_C@_0DE@HBJLJHOD@?$FLXMasAttackEvent?$FN?5White?5Wizard?5K@
CONST	SEGMENT
??_C@_0DE@HBJLJHOD@?$FLXMasAttackEvent?$FN?5White?5Wizard?5K@ DB '[XMasAt'
	DB	'tackEvent] White Wizard Killed, MapNumber:%d', 00H ; `string'
CONST	ENDS
;	COMDAT ??_7CXMasAttackEvent@@6B@
CONST	SEGMENT
??_7CXMasAttackEvent@@6B@ DD FLAT:??_R4CXMasAttackEvent@@6B@ ; CXMasAttackEvent::`vftable'
	DD	FLAT:??_ECXMasAttackEvent@@UAEPAXI@Z
	DD	FLAT:?Load@CXMasAttackEvent@@UAEHPAD@Z
	DD	FLAT:?StartEvent@CXMasAttackEvent@@UAEXXZ
	DD	FLAT:?StopEvent@CXMasAttackEvent@@UAEXXZ
	DD	FLAT:?SetEnable@CXMasAttackEvent@@UAEXH@Z
	DD	FLAT:?SetManualStart@CXMasAttackEvent@@UAEXH@Z
CONST	ENDS
;	COMDAT ??_7MonsterAttackEvent@@6B@
CONST	SEGMENT
??_7MonsterAttackEvent@@6B@ DD FLAT:??_R4MonsterAttackEvent@@6B@ ; MonsterAttackEvent::`vftable'
	DD	FLAT:??_EMonsterAttackEvent@@UAEPAXI@Z
CONST	ENDS
;	COMDAT ??_7CXMasMonsterHerd@@6B@
CONST	SEGMENT
??_7CXMasMonsterHerd@@6B@ DD FLAT:??_R4CXMasMonsterHerd@@6B@ ; CXMasMonsterHerd::`vftable'
	DD	FLAT:??_ECXMasMonsterHerd@@UAEPAXI@Z
	DD	FLAT:?SetTotalInfo@MonsterHerd@@UAEHHHHH@Z
	DD	FLAT:?AddMonster@MonsterHerd@@UAEHHHH@Z
	DD	FLAT:?SetRadius@MonsterHerd@@UAEXH@Z
	DD	FLAT:?SetPosition@MonsterHerd@@UAEXEE@Z
	DD	FLAT:?Start@CXMasMonsterHerd@@UAEHXZ
	DD	FLAT:?Stop@MonsterHerd@@UAEXXZ
	DD	FLAT:?CheckInRadius@MonsterHerd@@UAEHH@Z
	DD	FLAT:?GetCurrentLocation@MonsterHerd@@UAEHAAE0@Z
	DD	FLAT:?GetRandomLocation@MonsterHerd@@UAEHAAE0@Z
	DD	FLAT:?CheckLocation@MonsterHerd@@UAEHAAE0@Z
	DD	FLAT:?MoveHerd@MonsterHerd@@UAEHEE@Z
	DD	FLAT:?MonsterHerdItemDrop@CXMasMonsterHerd@@UAEHPAUOBJECTSTRUCT@@@Z
	DD	FLAT:?GetMonsterData@MonsterHerd@@UAEPAU_MONSTER_HERD_DATA@@H@Z
	DD	FLAT:?BeenAttacked@MonsterHerd@@UAEXPAUOBJECTSTRUCT@@0@Z
	DD	FLAT:?OrderAttack@MonsterHerd@@UAEXPAUOBJECTSTRUCT@@0H@Z
	DD	FLAT:?MonsterBaseAct@MonsterHerd@@UAEXPAUOBJECTSTRUCT@@@Z
	DD	FLAT:?MonsterMoveAction@MonsterHerd@@UAEXPAUOBJECTSTRUCT@@@Z
	DD	FLAT:?MonsterAttackAction@MonsterHerd@@UAEXPAUOBJECTSTRUCT@@0@Z
	DD	FLAT:?MonsterDieAction@MonsterHerd@@UAEXPAUOBJECTSTRUCT@@@Z
	DD	FLAT:?MonsterRegenAction@MonsterHerd@@UAEHPAUOBJECTSTRUCT@@@Z
CONST	ENDS
;	COMDAT ??_C@_00CNPNBAHC@?$AA@
CONST	SEGMENT
??_C@_00CNPNBAHC@?$AA@ DB 00H				; `string'
CONST	ENDS
;	COMDAT xdata$x
xdata$x	SEGMENT
__catchsym$?_Reallocate@?$vector@UXMASMONSTER_MAP_DATA@@V?$allocator@UXMASMONSTER_MAP_DATA@@@std@@@std@@IAEXI@Z$50 DD 040H
	DD	00H
	DD	00H
	DD	FLAT:__catch$?_Reallocate@?$vector@UXMASMONSTER_MAP_DATA@@V?$allocator@UXMASMONSTER_MAP_DATA@@@std@@@std@@IAEXI@Z$0
__unwindtable$?_Reallocate@?$vector@UXMASMONSTER_MAP_DATA@@V?$allocator@UXMASMONSTER_MAP_DATA@@@std@@@std@@IAEXI@Z DD 0ffffffffH
	DD	00H
	DD	0ffffffffH
	DD	00H
__tryblocktable$?_Reallocate@?$vector@UXMASMONSTER_MAP_DATA@@V?$allocator@UXMASMONSTER_MAP_DATA@@@std@@@std@@IAEXI@Z DD 00H
	DD	00H
	DD	01H
	DD	01H
	DD	FLAT:__catchsym$?_Reallocate@?$vector@UXMASMONSTER_MAP_DATA@@V?$allocator@UXMASMONSTER_MAP_DATA@@@std@@@std@@IAEXI@Z$50
__ehfuncinfo$?_Reallocate@?$vector@UXMASMONSTER_MAP_DATA@@V?$allocator@UXMASMONSTER_MAP_DATA@@@std@@@std@@IAEXI@Z DD 019930522H
	DD	02H
	DD	FLAT:__unwindtable$?_Reallocate@?$vector@UXMASMONSTER_MAP_DATA@@V?$allocator@UXMASMONSTER_MAP_DATA@@@std@@@std@@IAEXI@Z
	DD	01H
	DD	FLAT:__tryblocktable$?_Reallocate@?$vector@UXMASMONSTER_MAP_DATA@@V?$allocator@UXMASMONSTER_MAP_DATA@@@std@@@std@@IAEXI@Z
	DD	2 DUP(00H)
	DD	00H
	DD	01H
xdata$x	ENDS
;	COMDAT xdata$x
xdata$x	SEGMENT
__unwindtable$?CreateMonsterHerd@CXMasAttackEvent@@QAEXXZ DD 0ffffffffH
	DD	FLAT:__unwindfunclet$?CreateMonsterHerd@CXMasAttackEvent@@QAEXXZ$0
__ehfuncinfo$?CreateMonsterHerd@CXMasAttackEvent@@QAEXXZ DD 019930522H
	DD	01H
	DD	FLAT:__unwindtable$?CreateMonsterHerd@CXMasAttackEvent@@QAEXXZ
	DD	2 DUP(00H)
	DD	2 DUP(00H)
	DD	00H
	DD	01H
xdata$x	ENDS
;	COMDAT xdata$x
xdata$x	SEGMENT
__catchsym$?_Reallocate@?$vector@UMONSTER_EVENT_DATA@@V?$allocator@UMONSTER_EVENT_DATA@@@std@@@std@@IAEXI@Z$50 DD 040H
	DD	00H
	DD	00H
	DD	FLAT:__catch$?_Reallocate@?$vector@UMONSTER_EVENT_DATA@@V?$allocator@UMONSTER_EVENT_DATA@@@std@@@std@@IAEXI@Z$0
__unwindtable$?_Reallocate@?$vector@UMONSTER_EVENT_DATA@@V?$allocator@UMONSTER_EVENT_DATA@@@std@@@std@@IAEXI@Z DD 0ffffffffH
	DD	00H
	DD	0ffffffffH
	DD	00H
__tryblocktable$?_Reallocate@?$vector@UMONSTER_EVENT_DATA@@V?$allocator@UMONSTER_EVENT_DATA@@@std@@@std@@IAEXI@Z DD 00H
	DD	00H
	DD	01H
	DD	01H
	DD	FLAT:__catchsym$?_Reallocate@?$vector@UMONSTER_EVENT_DATA@@V?$allocator@UMONSTER_EVENT_DATA@@@std@@@std@@IAEXI@Z$50
__ehfuncinfo$?_Reallocate@?$vector@UMONSTER_EVENT_DATA@@V?$allocator@UMONSTER_EVENT_DATA@@@std@@@std@@IAEXI@Z DD 019930522H
	DD	02H
	DD	FLAT:__unwindtable$?_Reallocate@?$vector@UMONSTER_EVENT_DATA@@V?$allocator@UMONSTER_EVENT_DATA@@@std@@@std@@IAEXI@Z
	DD	01H
	DD	FLAT:__tryblocktable$?_Reallocate@?$vector@UMONSTER_EVENT_DATA@@V?$allocator@UMONSTER_EVENT_DATA@@@std@@@std@@IAEXI@Z
	DD	2 DUP(00H)
	DD	00H
	DD	01H
xdata$x	ENDS
;	COMDAT xdata$x
xdata$x	SEGMENT
__catchsym$?_Reallocate@?$vector@UMONSTER_EVENT_TIME@@V?$allocator@UMONSTER_EVENT_TIME@@@std@@@std@@IAEXI@Z$50 DD 040H
	DD	00H
	DD	00H
	DD	FLAT:__catch$?_Reallocate@?$vector@UMONSTER_EVENT_TIME@@V?$allocator@UMONSTER_EVENT_TIME@@@std@@@std@@IAEXI@Z$0
__unwindtable$?_Reallocate@?$vector@UMONSTER_EVENT_TIME@@V?$allocator@UMONSTER_EVENT_TIME@@@std@@@std@@IAEXI@Z DD 0ffffffffH
	DD	00H
	DD	0ffffffffH
	DD	00H
__tryblocktable$?_Reallocate@?$vector@UMONSTER_EVENT_TIME@@V?$allocator@UMONSTER_EVENT_TIME@@@std@@@std@@IAEXI@Z DD 00H
	DD	00H
	DD	01H
	DD	01H
	DD	FLAT:__catchsym$?_Reallocate@?$vector@UMONSTER_EVENT_TIME@@V?$allocator@UMONSTER_EVENT_TIME@@@std@@@std@@IAEXI@Z$50
__ehfuncinfo$?_Reallocate@?$vector@UMONSTER_EVENT_TIME@@V?$allocator@UMONSTER_EVENT_TIME@@@std@@@std@@IAEXI@Z DD 019930522H
	DD	02H
	DD	FLAT:__unwindtable$?_Reallocate@?$vector@UMONSTER_EVENT_TIME@@V?$allocator@UMONSTER_EVENT_TIME@@@std@@@std@@IAEXI@Z
	DD	01H
	DD	FLAT:__tryblocktable$?_Reallocate@?$vector@UMONSTER_EVENT_TIME@@V?$allocator@UMONSTER_EVENT_TIME@@@std@@@std@@IAEXI@Z
	DD	2 DUP(00H)
	DD	00H
	DD	01H
xdata$x	ENDS
;	COMDAT xdata$x
xdata$x	SEGMENT
__ehfuncinfo$??_EOBJECTSTRUCT@@QAEPAXI@Z DD 019930522H
	DD	00H
	DD	00H
	DD	2 DUP(00H)
	DD	2 DUP(00H)
	DD	00H
	DD	05H
xdata$x	ENDS
; Function compile flags: /Ogtp
; File c:\program files (x86)\microsoft visual studio 14.0\vc\include\xmemory0
;	COMDAT ??$construct@UMONSTER_EVENT_TIME@@U1@@?$allocator@UMONSTER_EVENT_TIME@@@std@@QAEXPAUMONSTER_EVENT_TIME@@$$QAU2@@Z
_TEXT	SEGMENT
__Ptr$ = 8						; size = 4
_<_Args_0>$ = 12					; size = 4
??$construct@UMONSTER_EVENT_TIME@@U1@@?$allocator@UMONSTER_EVENT_TIME@@@std@@QAEXPAUMONSTER_EVENT_TIME@@$$QAU2@@Z PROC ; std::allocator<MONSTER_EVENT_TIME>::construct<MONSTER_EVENT_TIME,MONSTER_EVENT_TIME>, COMDAT
; _this$ = ecx

; 654  : 		{	// construct _Objty(_Types...) at _Ptr

  00000	55		 push	 ebp
  00001	8b ec		 mov	 ebp, esp

; 655  : 		::new ((void *)_Ptr) _Objty(_STD forward<_Types>(_Args)...);

  00003	8b 55 08	 mov	 edx, DWORD PTR __Ptr$[ebp]
  00006	85 d2		 test	 edx, edx
  00008	74 0d		 je	 SHORT $LN3@construct
  0000a	8b 4d 0c	 mov	 ecx, DWORD PTR _<_Args_0>$[ebp]
  0000d	8b 01		 mov	 eax, DWORD PTR [ecx]
  0000f	89 02		 mov	 DWORD PTR [edx], eax
  00011	8b 41 04	 mov	 eax, DWORD PTR [ecx+4]
  00014	89 42 04	 mov	 DWORD PTR [edx+4], eax
$LN3@construct:

; 656  : 		}

  00017	5d		 pop	 ebp
  00018	c2 08 00	 ret	 8
??$construct@UMONSTER_EVENT_TIME@@U1@@?$allocator@UMONSTER_EVENT_TIME@@@std@@QAEXPAUMONSTER_EVENT_TIME@@$$QAU2@@Z ENDP ; std::allocator<MONSTER_EVENT_TIME>::construct<MONSTER_EVENT_TIME,MONSTER_EVENT_TIME>
_TEXT	ENDS
; Function compile flags: /Ogtp
; File c:\program files (x86)\microsoft visual studio 14.0\vc\include\xmemory0
;	COMDAT ??$construct@UMONSTER_EVENT_DATA@@U1@@?$allocator@UMONSTER_EVENT_DATA@@@std@@QAEXPAUMONSTER_EVENT_DATA@@$$QAU2@@Z
_TEXT	SEGMENT
__Ptr$ = 8						; size = 4
_<_Args_0>$ = 12					; size = 4
??$construct@UMONSTER_EVENT_DATA@@U1@@?$allocator@UMONSTER_EVENT_DATA@@@std@@QAEXPAUMONSTER_EVENT_DATA@@$$QAU2@@Z PROC ; std::allocator<MONSTER_EVENT_DATA>::construct<MONSTER_EVENT_DATA,MONSTER_EVENT_DATA>, COMDAT
; _this$ = ecx

; 654  : 		{	// construct _Objty(_Types...) at _Ptr

  00000	55		 push	 ebp
  00001	8b ec		 mov	 ebp, esp

; 655  : 		::new ((void *)_Ptr) _Objty(_STD forward<_Types>(_Args)...);

  00003	8b 4d 08	 mov	 ecx, DWORD PTR __Ptr$[ebp]
  00006	85 c9		 test	 ecx, ecx
  00008	74 11		 je	 SHORT $LN3@construct
  0000a	8b 45 0c	 mov	 eax, DWORD PTR _<_Args_0>$[ebp]
  0000d	f3 0f 7e 00	 movq	 xmm0, QWORD PTR [eax]
  00011	66 0f d6 01	 movq	 QWORD PTR [ecx], xmm0
  00015	8b 40 08	 mov	 eax, DWORD PTR [eax+8]
  00018	89 41 08	 mov	 DWORD PTR [ecx+8], eax
$LN3@construct:

; 656  : 		}

  0001b	5d		 pop	 ebp
  0001c	c2 08 00	 ret	 8
??$construct@UMONSTER_EVENT_DATA@@U1@@?$allocator@UMONSTER_EVENT_DATA@@@std@@QAEXPAUMONSTER_EVENT_DATA@@$$QAU2@@Z ENDP ; std::allocator<MONSTER_EVENT_DATA>::construct<MONSTER_EVENT_DATA,MONSTER_EVENT_DATA>
_TEXT	ENDS
; Function compile flags: /Ogtp
; File c:\program files (x86)\microsoft visual studio 14.0\vc\include\xmemory0
;	COMDAT ??$construct@UXMASMONSTER_MAP_DATA@@U1@@?$allocator@UXMASMONSTER_MAP_DATA@@@std@@QAEXPAUXMASMONSTER_MAP_DATA@@$$QAU2@@Z
_TEXT	SEGMENT
__Ptr$ = 8						; size = 4
_<_Args_0>$ = 12					; size = 4
??$construct@UXMASMONSTER_MAP_DATA@@U1@@?$allocator@UXMASMONSTER_MAP_DATA@@@std@@QAEXPAUXMASMONSTER_MAP_DATA@@$$QAU2@@Z PROC ; std::allocator<XMASMONSTER_MAP_DATA>::construct<XMASMONSTER_MAP_DATA,XMASMONSTER_MAP_DATA>, COMDAT
; _this$ = ecx

; 654  : 		{	// construct _Objty(_Types...) at _Ptr

  00000	55		 push	 ebp
  00001	8b ec		 mov	 ebp, esp

; 655  : 		::new ((void *)_Ptr) _Objty(_STD forward<_Types>(_Args)...);

  00003	8b 4d 08	 mov	 ecx, DWORD PTR __Ptr$[ebp]
  00006	85 c9		 test	 ecx, ecx
  00008	74 0f		 je	 SHORT $LN3@construct
  0000a	8b 45 0c	 mov	 eax, DWORD PTR _<_Args_0>$[ebp]
  0000d	0f 10 00	 movups	 xmm0, XMMWORD PTR [eax]
  00010	0f 11 01	 movups	 XMMWORD PTR [ecx], xmm0
  00013	8b 40 10	 mov	 eax, DWORD PTR [eax+16]
  00016	89 41 10	 mov	 DWORD PTR [ecx+16], eax
$LN3@construct:

; 656  : 		}

  00019	5d		 pop	 ebp
  0001a	c2 08 00	 ret	 8
??$construct@UXMASMONSTER_MAP_DATA@@U1@@?$allocator@UXMASMONSTER_MAP_DATA@@@std@@QAEXPAUXMASMONSTER_MAP_DATA@@$$QAU2@@Z ENDP ; std::allocator<XMASMONSTER_MAP_DATA>::construct<XMASMONSTER_MAP_DATA,XMASMONSTER_MAP_DATA>
_TEXT	ENDS
; Function compile flags: /Ogtp
; File c:\program files (x86)\microsoft visual studio 14.0\vc\include\xmemory0
;	COMDAT ??$construct@UMONSTER_EVENT_TIME@@U1@@?$allocator_traits@V?$allocator@UMONSTER_EVENT_TIME@@@std@@@std@@SAXAAV?$allocator@UMONSTER_EVENT_TIME@@@1@PAUMONSTER_EVENT_TIME@@$$QAU3@@Z
_TEXT	SEGMENT
__Al$ = 8						; size = 4
__Ptr$ = 12						; size = 4
_<_Args_0>$ = 16					; size = 4
??$construct@UMONSTER_EVENT_TIME@@U1@@?$allocator_traits@V?$allocator@UMONSTER_EVENT_TIME@@@std@@@std@@SAXAAV?$allocator@UMONSTER_EVENT_TIME@@@1@PAUMONSTER_EVENT_TIME@@$$QAU3@@Z PROC ; std::allocator_traits<std::allocator<MONSTER_EVENT_TIME> >::construct<MONSTER_EVENT_TIME,MONSTER_EVENT_TIME>, COMDAT

; 772  : 		{	// construct _Objty(_Types...) at _Ptr

  00000	55		 push	 ebp
  00001	8b ec		 mov	 ebp, esp

; 655  : 		::new ((void *)_Ptr) _Objty(_STD forward<_Types>(_Args)...);

  00003	8b 55 0c	 mov	 edx, DWORD PTR __Ptr$[ebp]
  00006	85 d2		 test	 edx, edx
  00008	74 0d		 je	 SHORT $LN8@construct
  0000a	8b 4d 10	 mov	 ecx, DWORD PTR _<_Args_0>$[ebp]
  0000d	8b 01		 mov	 eax, DWORD PTR [ecx]
  0000f	89 02		 mov	 DWORD PTR [edx], eax
  00011	8b 41 04	 mov	 eax, DWORD PTR [ecx+4]
  00014	89 42 04	 mov	 DWORD PTR [edx+4], eax
$LN8@construct:

; 773  : 		_Al.construct(_Ptr, _STD forward<_Types>(_Args)...);
; 774  : 		}

  00017	5d		 pop	 ebp
  00018	c3		 ret	 0
??$construct@UMONSTER_EVENT_TIME@@U1@@?$allocator_traits@V?$allocator@UMONSTER_EVENT_TIME@@@std@@@std@@SAXAAV?$allocator@UMONSTER_EVENT_TIME@@@1@PAUMONSTER_EVENT_TIME@@$$QAU3@@Z ENDP ; std::allocator_traits<std::allocator<MONSTER_EVENT_TIME> >::construct<MONSTER_EVENT_TIME,MONSTER_EVENT_TIME>
_TEXT	ENDS
; Function compile flags: /Ogtp
; File c:\program files (x86)\microsoft visual studio 14.0\vc\include\type_traits
;	COMDAT ??$forward@UMONSTER_EVENT_TIME@@@std@@YA$$QAUMONSTER_EVENT_TIME@@AAU1@@Z
_TEXT	SEGMENT
__Arg$ = 8						; size = 4
??$forward@UMONSTER_EVENT_TIME@@@std@@YA$$QAUMONSTER_EVENT_TIME@@AAU1@@Z PROC ; std::forward<MONSTER_EVENT_TIME>, COMDAT

; 1233 : 	{	// forward an lvalue as either an lvalue or an rvalue

  00000	55		 push	 ebp
  00001	8b ec		 mov	 ebp, esp

; 1234 : 	return (static_cast<_Ty&&>(_Arg));

  00003	8b 45 08	 mov	 eax, DWORD PTR __Arg$[ebp]

; 1235 : 	}

  00006	5d		 pop	 ebp
  00007	c3		 ret	 0
??$forward@UMONSTER_EVENT_TIME@@@std@@YA$$QAUMONSTER_EVENT_TIME@@AAU1@@Z ENDP ; std::forward<MONSTER_EVENT_TIME>
_TEXT	ENDS
; Function compile flags: /Ogtp
; File c:\program files (x86)\microsoft visual studio 14.0\vc\include\xmemory0
;	COMDAT ??$construct@UMONSTER_EVENT_DATA@@U1@@?$allocator_traits@V?$allocator@UMONSTER_EVENT_DATA@@@std@@@std@@SAXAAV?$allocator@UMONSTER_EVENT_DATA@@@1@PAUMONSTER_EVENT_DATA@@$$QAU3@@Z
_TEXT	SEGMENT
__Al$ = 8						; size = 4
__Ptr$ = 12						; size = 4
_<_Args_0>$ = 16					; size = 4
??$construct@UMONSTER_EVENT_DATA@@U1@@?$allocator_traits@V?$allocator@UMONSTER_EVENT_DATA@@@std@@@std@@SAXAAV?$allocator@UMONSTER_EVENT_DATA@@@1@PAUMONSTER_EVENT_DATA@@$$QAU3@@Z PROC ; std::allocator_traits<std::allocator<MONSTER_EVENT_DATA> >::construct<MONSTER_EVENT_DATA,MONSTER_EVENT_DATA>, COMDAT

; 772  : 		{	// construct _Objty(_Types...) at _Ptr

  00000	55		 push	 ebp
  00001	8b ec		 mov	 ebp, esp

; 655  : 		::new ((void *)_Ptr) _Objty(_STD forward<_Types>(_Args)...);

  00003	8b 4d 0c	 mov	 ecx, DWORD PTR __Ptr$[ebp]
  00006	85 c9		 test	 ecx, ecx
  00008	74 11		 je	 SHORT $LN8@construct
  0000a	8b 45 10	 mov	 eax, DWORD PTR _<_Args_0>$[ebp]
  0000d	f3 0f 7e 00	 movq	 xmm0, QWORD PTR [eax]
  00011	66 0f d6 01	 movq	 QWORD PTR [ecx], xmm0
  00015	8b 40 08	 mov	 eax, DWORD PTR [eax+8]
  00018	89 41 08	 mov	 DWORD PTR [ecx+8], eax
$LN8@construct:

; 773  : 		_Al.construct(_Ptr, _STD forward<_Types>(_Args)...);
; 774  : 		}

  0001b	5d		 pop	 ebp
  0001c	c3		 ret	 0
??$construct@UMONSTER_EVENT_DATA@@U1@@?$allocator_traits@V?$allocator@UMONSTER_EVENT_DATA@@@std@@@std@@SAXAAV?$allocator@UMONSTER_EVENT_DATA@@@1@PAUMONSTER_EVENT_DATA@@$$QAU3@@Z ENDP ; std::allocator_traits<std::allocator<MONSTER_EVENT_DATA> >::construct<MONSTER_EVENT_DATA,MONSTER_EVENT_DATA>
_TEXT	ENDS
; Function compile flags: /Ogtp
; File c:\program files (x86)\microsoft visual studio 14.0\vc\include\type_traits
;	COMDAT ??$forward@UMONSTER_EVENT_DATA@@@std@@YA$$QAUMONSTER_EVENT_DATA@@AAU1@@Z
_TEXT	SEGMENT
__Arg$ = 8						; size = 4
??$forward@UMONSTER_EVENT_DATA@@@std@@YA$$QAUMONSTER_EVENT_DATA@@AAU1@@Z PROC ; std::forward<MONSTER_EVENT_DATA>, COMDAT

; 1233 : 	{	// forward an lvalue as either an lvalue or an rvalue

  00000	55		 push	 ebp
  00001	8b ec		 mov	 ebp, esp

; 1234 : 	return (static_cast<_Ty&&>(_Arg));

  00003	8b 45 08	 mov	 eax, DWORD PTR __Arg$[ebp]

; 1235 : 	}

  00006	5d		 pop	 ebp
  00007	c3		 ret	 0
??$forward@UMONSTER_EVENT_DATA@@@std@@YA$$QAUMONSTER_EVENT_DATA@@AAU1@@Z ENDP ; std::forward<MONSTER_EVENT_DATA>
_TEXT	ENDS
; Function compile flags: /Ogtp
; File c:\program files (x86)\microsoft visual studio 14.0\vc\include\xmemory0
;	COMDAT ??$construct@UXMASMONSTER_MAP_DATA@@U1@@?$allocator_traits@V?$allocator@UXMASMONSTER_MAP_DATA@@@std@@@std@@SAXAAV?$allocator@UXMASMONSTER_MAP_DATA@@@1@PAUXMASMONSTER_MAP_DATA@@$$QAU3@@Z
_TEXT	SEGMENT
__Al$ = 8						; size = 4
__Ptr$ = 12						; size = 4
_<_Args_0>$ = 16					; size = 4
??$construct@UXMASMONSTER_MAP_DATA@@U1@@?$allocator_traits@V?$allocator@UXMASMONSTER_MAP_DATA@@@std@@@std@@SAXAAV?$allocator@UXMASMONSTER_MAP_DATA@@@1@PAUXMASMONSTER_MAP_DATA@@$$QAU3@@Z PROC ; std::allocator_traits<std::allocator<XMASMONSTER_MAP_DATA> >::construct<XMASMONSTER_MAP_DATA,XMASMONSTER_MAP_DATA>, COMDAT

; 772  : 		{	// construct _Objty(_Types...) at _Ptr

  00000	55		 push	 ebp
  00001	8b ec		 mov	 ebp, esp

; 655  : 		::new ((void *)_Ptr) _Objty(_STD forward<_Types>(_Args)...);

  00003	8b 4d 0c	 mov	 ecx, DWORD PTR __Ptr$[ebp]
  00006	85 c9		 test	 ecx, ecx
  00008	74 0f		 je	 SHORT $LN8@construct
  0000a	8b 45 10	 mov	 eax, DWORD PTR _<_Args_0>$[ebp]
  0000d	0f 10 00	 movups	 xmm0, XMMWORD PTR [eax]
  00010	0f 11 01	 movups	 XMMWORD PTR [ecx], xmm0
  00013	8b 40 10	 mov	 eax, DWORD PTR [eax+16]
  00016	89 41 10	 mov	 DWORD PTR [ecx+16], eax
$LN8@construct:

; 773  : 		_Al.construct(_Ptr, _STD forward<_Types>(_Args)...);
; 774  : 		}

  00019	5d		 pop	 ebp
  0001a	c3		 ret	 0
??$construct@UXMASMONSTER_MAP_DATA@@U1@@?$allocator_traits@V?$allocator@UXMASMONSTER_MAP_DATA@@@std@@@std@@SAXAAV?$allocator@UXMASMONSTER_MAP_DATA@@@1@PAUXMASMONSTER_MAP_DATA@@$$QAU3@@Z ENDP ; std::allocator_traits<std::allocator<XMASMONSTER_MAP_DATA> >::construct<XMASMONSTER_MAP_DATA,XMASMONSTER_MAP_DATA>
_TEXT	ENDS
; Function compile flags: /Ogtp
; File c:\program files (x86)\microsoft visual studio 14.0\vc\include\type_traits
;	COMDAT ??$forward@UXMASMONSTER_MAP_DATA@@@std@@YA$$QAUXMASMONSTER_MAP_DATA@@AAU1@@Z
_TEXT	SEGMENT
__Arg$ = 8						; size = 4
??$forward@UXMASMONSTER_MAP_DATA@@@std@@YA$$QAUXMASMONSTER_MAP_DATA@@AAU1@@Z PROC ; std::forward<XMASMONSTER_MAP_DATA>, COMDAT

; 1233 : 	{	// forward an lvalue as either an lvalue or an rvalue

  00000	55		 push	 ebp
  00001	8b ec		 mov	 ebp, esp

; 1234 : 	return (static_cast<_Ty&&>(_Arg));

  00003	8b 45 08	 mov	 eax, DWORD PTR __Arg$[ebp]

; 1235 : 	}

  00006	5d		 pop	 ebp
  00007	c3		 ret	 0
??$forward@UXMASMONSTER_MAP_DATA@@@std@@YA$$QAUXMASMONSTER_MAP_DATA@@AAU1@@Z ENDP ; std::forward<XMASMONSTER_MAP_DATA>
_TEXT	ENDS
; Function compile flags: /Ogtp
; File c:\program files (x86)\microsoft visual studio 14.0\vc\include\xmemory0
;	COMDAT ??$construct@UMONSTER_EVENT_TIME@@U1@@?$_Wrap_alloc@V?$allocator@UMONSTER_EVENT_TIME@@@std@@@std@@QAEXPAUMONSTER_EVENT_TIME@@$$QAU2@@Z
_TEXT	SEGMENT
__Ptr$ = 8						; size = 4
_<_Args_0>$ = 12					; size = 4
??$construct@UMONSTER_EVENT_TIME@@U1@@?$_Wrap_alloc@V?$allocator@UMONSTER_EVENT_TIME@@@std@@@std@@QAEXPAUMONSTER_EVENT_TIME@@$$QAU2@@Z PROC ; std::_Wrap_alloc<std::allocator<MONSTER_EVENT_TIME> >::construct<MONSTER_EVENT_TIME,MONSTER_EVENT_TIME>, COMDAT
; _this$ = ecx

; 916  : 		{	// construct _Ty(_Types...) at _Ptr

  00000	55		 push	 ebp
  00001	8b ec		 mov	 ebp, esp

; 655  : 		::new ((void *)_Ptr) _Objty(_STD forward<_Types>(_Args)...);

  00003	8b 55 08	 mov	 edx, DWORD PTR __Ptr$[ebp]
  00006	85 d2		 test	 edx, edx
  00008	74 0d		 je	 SHORT $LN13@construct
  0000a	8b 4d 0c	 mov	 ecx, DWORD PTR _<_Args_0>$[ebp]
  0000d	8b 01		 mov	 eax, DWORD PTR [ecx]
  0000f	89 02		 mov	 DWORD PTR [edx], eax
  00011	8b 41 04	 mov	 eax, DWORD PTR [ecx+4]
  00014	89 42 04	 mov	 DWORD PTR [edx+4], eax
$LN13@construct:

; 917  : 		_Mytraits::construct(*this, _Ptr,
; 918  : 			_STD forward<_Types>(_Args)...);
; 919  : 		}

  00017	5d		 pop	 ebp
  00018	c2 08 00	 ret	 8
??$construct@UMONSTER_EVENT_TIME@@U1@@?$_Wrap_alloc@V?$allocator@UMONSTER_EVENT_TIME@@@std@@@std@@QAEXPAUMONSTER_EVENT_TIME@@$$QAU2@@Z ENDP ; std::_Wrap_alloc<std::allocator<MONSTER_EVENT_TIME> >::construct<MONSTER_EVENT_TIME,MONSTER_EVENT_TIME>
_TEXT	ENDS
; Function compile flags: /Ogtp
; File c:\program files (x86)\microsoft visual studio 14.0\vc\include\xmemory0
;	COMDAT ??$construct@UMONSTER_EVENT_DATA@@U1@@?$_Wrap_alloc@V?$allocator@UMONSTER_EVENT_DATA@@@std@@@std@@QAEXPAUMONSTER_EVENT_DATA@@$$QAU2@@Z
_TEXT	SEGMENT
__Ptr$ = 8						; size = 4
_<_Args_0>$ = 12					; size = 4
??$construct@UMONSTER_EVENT_DATA@@U1@@?$_Wrap_alloc@V?$allocator@UMONSTER_EVENT_DATA@@@std@@@std@@QAEXPAUMONSTER_EVENT_DATA@@$$QAU2@@Z PROC ; std::_Wrap_alloc<std::allocator<MONSTER_EVENT_DATA> >::construct<MONSTER_EVENT_DATA,MONSTER_EVENT_DATA>, COMDAT
; _this$ = ecx

; 916  : 		{	// construct _Ty(_Types...) at _Ptr

  00000	55		 push	 ebp
  00001	8b ec		 mov	 ebp, esp

; 655  : 		::new ((void *)_Ptr) _Objty(_STD forward<_Types>(_Args)...);

  00003	8b 4d 08	 mov	 ecx, DWORD PTR __Ptr$[ebp]
  00006	85 c9		 test	 ecx, ecx
  00008	74 11		 je	 SHORT $LN13@construct
  0000a	8b 45 0c	 mov	 eax, DWORD PTR _<_Args_0>$[ebp]
  0000d	f3 0f 7e 00	 movq	 xmm0, QWORD PTR [eax]
  00011	66 0f d6 01	 movq	 QWORD PTR [ecx], xmm0
  00015	8b 40 08	 mov	 eax, DWORD PTR [eax+8]
  00018	89 41 08	 mov	 DWORD PTR [ecx+8], eax
$LN13@construct:

; 917  : 		_Mytraits::construct(*this, _Ptr,
; 918  : 			_STD forward<_Types>(_Args)...);
; 919  : 		}

  0001b	5d		 pop	 ebp
  0001c	c2 08 00	 ret	 8
??$construct@UMONSTER_EVENT_DATA@@U1@@?$_Wrap_alloc@V?$allocator@UMONSTER_EVENT_DATA@@@std@@@std@@QAEXPAUMONSTER_EVENT_DATA@@$$QAU2@@Z ENDP ; std::_Wrap_alloc<std::allocator<MONSTER_EVENT_DATA> >::construct<MONSTER_EVENT_DATA,MONSTER_EVENT_DATA>
_TEXT	ENDS
; Function compile flags: /Ogtp
; File c:\program files (x86)\microsoft visual studio 14.0\vc\include\xmemory0
;	COMDAT ??$destroy@UXMASMONSTER_MAP_DATA@@@?$allocator@UXMASMONSTER_MAP_DATA@@@std@@QAEXPAUXMASMONSTER_MAP_DATA@@@Z
_TEXT	SEGMENT
__Ptr$ = 8						; size = 4
??$destroy@UXMASMONSTER_MAP_DATA@@@?$allocator@UXMASMONSTER_MAP_DATA@@@std@@QAEXPAUXMASMONSTER_MAP_DATA@@@Z PROC ; std::allocator<XMASMONSTER_MAP_DATA>::destroy<XMASMONSTER_MAP_DATA>, COMDAT
; _this$ = ecx

; 662  : 		_Ptr->~_Uty();
; 663  : 		}

  00000	c2 04 00	 ret	 4
??$destroy@UXMASMONSTER_MAP_DATA@@@?$allocator@UXMASMONSTER_MAP_DATA@@@std@@QAEXPAUXMASMONSTER_MAP_DATA@@@Z ENDP ; std::allocator<XMASMONSTER_MAP_DATA>::destroy<XMASMONSTER_MAP_DATA>
_TEXT	ENDS
; Function compile flags: /Ogtp
; File c:\program files (x86)\microsoft visual studio 14.0\vc\include\xmemory0
;	COMDAT ??$construct@UXMASMONSTER_MAP_DATA@@U1@@?$_Wrap_alloc@V?$allocator@UXMASMONSTER_MAP_DATA@@@std@@@std@@QAEXPAUXMASMONSTER_MAP_DATA@@$$QAU2@@Z
_TEXT	SEGMENT
__Ptr$ = 8						; size = 4
_<_Args_0>$ = 12					; size = 4
??$construct@UXMASMONSTER_MAP_DATA@@U1@@?$_Wrap_alloc@V?$allocator@UXMASMONSTER_MAP_DATA@@@std@@@std@@QAEXPAUXMASMONSTER_MAP_DATA@@$$QAU2@@Z PROC ; std::_Wrap_alloc<std::allocator<XMASMONSTER_MAP_DATA> >::construct<XMASMONSTER_MAP_DATA,XMASMONSTER_MAP_DATA>, COMDAT
; _this$ = ecx

; 916  : 		{	// construct _Ty(_Types...) at _Ptr

  00000	55		 push	 ebp
  00001	8b ec		 mov	 ebp, esp

; 655  : 		::new ((void *)_Ptr) _Objty(_STD forward<_Types>(_Args)...);

  00003	8b 4d 08	 mov	 ecx, DWORD PTR __Ptr$[ebp]
  00006	85 c9		 test	 ecx, ecx
  00008	74 0f		 je	 SHORT $LN13@construct
  0000a	8b 45 0c	 mov	 eax, DWORD PTR _<_Args_0>$[ebp]
  0000d	0f 10 00	 movups	 xmm0, XMMWORD PTR [eax]
  00010	0f 11 01	 movups	 XMMWORD PTR [ecx], xmm0
  00013	8b 40 10	 mov	 eax, DWORD PTR [eax+16]
  00016	89 41 10	 mov	 DWORD PTR [ecx+16], eax
$LN13@construct:

; 917  : 		_Mytraits::construct(*this, _Ptr,
; 918  : 			_STD forward<_Types>(_Args)...);
; 919  : 		}

  00019	5d		 pop	 ebp
  0001a	c2 08 00	 ret	 8
??$construct@UXMASMONSTER_MAP_DATA@@U1@@?$_Wrap_alloc@V?$allocator@UXMASMONSTER_MAP_DATA@@@std@@@std@@QAEXPAUXMASMONSTER_MAP_DATA@@$$QAU2@@Z ENDP ; std::_Wrap_alloc<std::allocator<XMASMONSTER_MAP_DATA> >::construct<XMASMONSTER_MAP_DATA,XMASMONSTER_MAP_DATA>
_TEXT	ENDS
; Function compile flags: /Ogtp
; File c:\program files (x86)\microsoft visual studio 14.0\vc\include\xmemory0
;	COMDAT ??$destroy@UMONSTER_EVENT_TIME@@@?$allocator@UMONSTER_EVENT_TIME@@@std@@QAEXPAUMONSTER_EVENT_TIME@@@Z
_TEXT	SEGMENT
__Ptr$ = 8						; size = 4
??$destroy@UMONSTER_EVENT_TIME@@@?$allocator@UMONSTER_EVENT_TIME@@@std@@QAEXPAUMONSTER_EVENT_TIME@@@Z PROC ; std::allocator<MONSTER_EVENT_TIME>::destroy<MONSTER_EVENT_TIME>, COMDAT
; _this$ = ecx

; 662  : 		_Ptr->~_Uty();
; 663  : 		}

  00000	c2 04 00	 ret	 4
??$destroy@UMONSTER_EVENT_TIME@@@?$allocator@UMONSTER_EVENT_TIME@@@std@@QAEXPAUMONSTER_EVENT_TIME@@@Z ENDP ; std::allocator<MONSTER_EVENT_TIME>::destroy<MONSTER_EVENT_TIME>
_TEXT	ENDS
; Function compile flags: /Ogtp
; File c:\program files (x86)\microsoft visual studio 14.0\vc\include\xmemory0
;	COMDAT ??$destroy@UMONSTER_EVENT_DATA@@@?$allocator@UMONSTER_EVENT_DATA@@@std@@QAEXPAUMONSTER_EVENT_DATA@@@Z
_TEXT	SEGMENT
__Ptr$ = 8						; size = 4
??$destroy@UMONSTER_EVENT_DATA@@@?$allocator@UMONSTER_EVENT_DATA@@@std@@QAEXPAUMONSTER_EVENT_DATA@@@Z PROC ; std::allocator<MONSTER_EVENT_DATA>::destroy<MONSTER_EVENT_DATA>, COMDAT
; _this$ = ecx

; 662  : 		_Ptr->~_Uty();
; 663  : 		}

  00000	c2 04 00	 ret	 4
??$destroy@UMONSTER_EVENT_DATA@@@?$allocator@UMONSTER_EVENT_DATA@@@std@@QAEXPAUMONSTER_EVENT_DATA@@@Z ENDP ; std::allocator<MONSTER_EVENT_DATA>::destroy<MONSTER_EVENT_DATA>
_TEXT	ENDS
; Function compile flags: /Ogtp
; File c:\program files (x86)\microsoft visual studio 14.0\vc\include\xmemory
; File c:\program files (x86)\microsoft visual studio 14.0\vc\include\xmemory0
; File c:\program files (x86)\microsoft visual studio 14.0\vc\include\xmemory
;	COMDAT ??$_Uninit_move@PAUMONSTER_EVENT_TIME@@PAU1@V?$allocator@UMONSTER_EVENT_TIME@@@std@@U1@@std@@YAPAUMONSTER_EVENT_TIME@@PAU1@00AAU?$_Wrap_alloc@V?$allocator@UMONSTER_EVENT_TIME@@@std@@@0@0U_Nonscalar_ptr_iterator_tag@0@@Z
_TEXT	SEGMENT
__First$ = 8						; size = 4
__Last$ = 12						; size = 4
__Dest$ = 16						; size = 4
__Al$ = 20						; size = 4
___formal$ = 24						; size = 4
___formal$ = 28						; size = 1
??$_Uninit_move@PAUMONSTER_EVENT_TIME@@PAU1@V?$allocator@UMONSTER_EVENT_TIME@@@std@@U1@@std@@YAPAUMONSTER_EVENT_TIME@@PAU1@00AAU?$_Wrap_alloc@V?$allocator@UMONSTER_EVENT_TIME@@@std@@@0@0U_Nonscalar_ptr_iterator_tag@0@@Z PROC ; std::_Uninit_move<MONSTER_EVENT_TIME *,MONSTER_EVENT_TIME *,std::allocator<MONSTER_EVENT_TIME>,MONSTER_EVENT_TIME>, COMDAT

; 437  : 	{	// move [_First, _Last) to raw _Dest, using _Al, arbitrary type

  00000	55		 push	 ebp
  00001	8b ec		 mov	 ebp, esp

; 442  : 	for (; _First != _Last; ++_Dest, (void)++_First)

  00003	8b 4d 08	 mov	 ecx, DWORD PTR __First$[ebp]
  00006	57		 push	 edi
  00007	8b 7d 0c	 mov	 edi, DWORD PTR __Last$[ebp]
  0000a	3b cf		 cmp	 ecx, edi
  0000c	74 22		 je	 SHORT $LN37@Uninit_mov
  0000e	56		 push	 esi
  0000f	8b 75 10	 mov	 esi, DWORD PTR __Dest$[ebp]
$LL4@Uninit_mov:
; File c:\program files (x86)\microsoft visual studio 14.0\vc\include\xmemory0

; 655  : 		::new ((void *)_Ptr) _Objty(_STD forward<_Types>(_Args)...);

  00012	85 f6		 test	 esi, esi
  00014	74 0a		 je	 SHORT $LN2@Uninit_mov
  00016	8b 01		 mov	 eax, DWORD PTR [ecx]
  00018	89 06		 mov	 DWORD PTR [esi], eax
  0001a	8b 51 04	 mov	 edx, DWORD PTR [ecx+4]
  0001d	89 56 04	 mov	 DWORD PTR [esi+4], edx
$LN2@Uninit_mov:
; File c:\program files (x86)\microsoft visual studio 14.0\vc\include\xmemory

; 442  : 	for (; _First != _Last; ++_Dest, (void)++_First)

  00020	83 c1 08	 add	 ecx, 8
  00023	83 c6 08	 add	 esi, 8
  00026	3b cf		 cmp	 ecx, edi
  00028	75 e8		 jne	 SHORT $LL4@Uninit_mov

; 443  : 		_Al.construct(_Dest, (_Valty&&)*_First);
; 444  : 	_CATCH_ALL
; 445  : 	for (; _Next != _Dest; ++_Next)
; 446  : 		_Al.destroy(_Next);
; 447  : 	_RERAISE;
; 448  : 	_CATCH_END
; 449  : 	return (_Dest);

  0002a	8b c6		 mov	 eax, esi
  0002c	5e		 pop	 esi
  0002d	5f		 pop	 edi

; 450  : 	}

  0002e	5d		 pop	 ebp
  0002f	c3		 ret	 0
$LN37@Uninit_mov:

; 443  : 		_Al.construct(_Dest, (_Valty&&)*_First);
; 444  : 	_CATCH_ALL
; 445  : 	for (; _Next != _Dest; ++_Next)
; 446  : 		_Al.destroy(_Next);
; 447  : 	_RERAISE;
; 448  : 	_CATCH_END
; 449  : 	return (_Dest);

  00030	8b 45 10	 mov	 eax, DWORD PTR __Dest$[ebp]
  00033	5f		 pop	 edi

; 450  : 	}

  00034	5d		 pop	 ebp
  00035	c3		 ret	 0
??$_Uninit_move@PAUMONSTER_EVENT_TIME@@PAU1@V?$allocator@UMONSTER_EVENT_TIME@@@std@@U1@@std@@YAPAUMONSTER_EVENT_TIME@@PAU1@00AAU?$_Wrap_alloc@V?$allocator@UMONSTER_EVENT_TIME@@@std@@@0@0U_Nonscalar_ptr_iterator_tag@0@@Z ENDP ; std::_Uninit_move<MONSTER_EVENT_TIME *,MONSTER_EVENT_TIME *,std::allocator<MONSTER_EVENT_TIME>,MONSTER_EVENT_TIME>
_TEXT	ENDS
; Function compile flags: /Ogtp
; File c:\program files (x86)\microsoft visual studio 14.0\vc\include\xutility
;	COMDAT ??$_Val_type@PAUMONSTER_EVENT_TIME@@@std@@YAPAUMONSTER_EVENT_TIME@@PAU1@@Z
_TEXT	SEGMENT
___formal$ = 8						; size = 4
??$_Val_type@PAUMONSTER_EVENT_TIME@@@std@@YAPAUMONSTER_EVENT_TIME@@PAU1@@Z PROC ; std::_Val_type<MONSTER_EVENT_TIME *>, COMDAT

; 875  : 	return (0);

  00000	33 c0		 xor	 eax, eax

; 876  : 	}

  00002	c3		 ret	 0
??$_Val_type@PAUMONSTER_EVENT_TIME@@@std@@YAPAUMONSTER_EVENT_TIME@@PAU1@@Z ENDP ; std::_Val_type<MONSTER_EVENT_TIME *>
_TEXT	ENDS
; Function compile flags: /Ogtp
; File c:\program files (x86)\microsoft visual studio 14.0\vc\include\xmemory
; File c:\program files (x86)\microsoft visual studio 14.0\vc\include\xmemory0
; File c:\program files (x86)\microsoft visual studio 14.0\vc\include\xmemory
;	COMDAT ??$_Uninit_move@PAUMONSTER_EVENT_DATA@@PAU1@V?$allocator@UMONSTER_EVENT_DATA@@@std@@U1@@std@@YAPAUMONSTER_EVENT_DATA@@PAU1@00AAU?$_Wrap_alloc@V?$allocator@UMONSTER_EVENT_DATA@@@std@@@0@0U_Nonscalar_ptr_iterator_tag@0@@Z
_TEXT	SEGMENT
__First$ = 8						; size = 4
__Last$ = 12						; size = 4
__Dest$ = 16						; size = 4
__Al$ = 20						; size = 4
___formal$ = 24						; size = 4
___formal$ = 28						; size = 1
??$_Uninit_move@PAUMONSTER_EVENT_DATA@@PAU1@V?$allocator@UMONSTER_EVENT_DATA@@@std@@U1@@std@@YAPAUMONSTER_EVENT_DATA@@PAU1@00AAU?$_Wrap_alloc@V?$allocator@UMONSTER_EVENT_DATA@@@std@@@0@0U_Nonscalar_ptr_iterator_tag@0@@Z PROC ; std::_Uninit_move<MONSTER_EVENT_DATA *,MONSTER_EVENT_DATA *,std::allocator<MONSTER_EVENT_DATA>,MONSTER_EVENT_DATA>, COMDAT

; 437  : 	{	// move [_First, _Last) to raw _Dest, using _Al, arbitrary type

  00000	55		 push	 ebp
  00001	8b ec		 mov	 ebp, esp

; 442  : 	for (; _First != _Last; ++_Dest, (void)++_First)

  00003	8b 4d 08	 mov	 ecx, DWORD PTR __First$[ebp]
  00006	8b 45 10	 mov	 eax, DWORD PTR __Dest$[ebp]
  00009	56		 push	 esi
  0000a	8b 75 0c	 mov	 esi, DWORD PTR __Last$[ebp]
  0000d	3b ce		 cmp	 ecx, esi
  0000f	74 1c		 je	 SHORT $LN3@Uninit_mov
$LL4@Uninit_mov:
; File c:\program files (x86)\microsoft visual studio 14.0\vc\include\xmemory0

; 655  : 		::new ((void *)_Ptr) _Objty(_STD forward<_Types>(_Args)...);

  00011	85 c0		 test	 eax, eax
  00013	74 0e		 je	 SHORT $LN2@Uninit_mov
  00015	f3 0f 7e 01	 movq	 xmm0, QWORD PTR [ecx]
  00019	66 0f d6 00	 movq	 QWORD PTR [eax], xmm0
  0001d	8b 51 08	 mov	 edx, DWORD PTR [ecx+8]
  00020	89 50 08	 mov	 DWORD PTR [eax+8], edx
$LN2@Uninit_mov:
; File c:\program files (x86)\microsoft visual studio 14.0\vc\include\xmemory

; 442  : 	for (; _First != _Last; ++_Dest, (void)++_First)

  00023	83 c1 0c	 add	 ecx, 12			; 0000000cH
  00026	83 c0 0c	 add	 eax, 12			; 0000000cH
  00029	3b ce		 cmp	 ecx, esi
  0002b	75 e4		 jne	 SHORT $LL4@Uninit_mov
$LN3@Uninit_mov:
  0002d	5e		 pop	 esi

; 443  : 		_Al.construct(_Dest, (_Valty&&)*_First);
; 444  : 	_CATCH_ALL
; 445  : 	for (; _Next != _Dest; ++_Next)
; 446  : 		_Al.destroy(_Next);
; 447  : 	_RERAISE;
; 448  : 	_CATCH_END
; 449  : 	return (_Dest);
; 450  : 	}

  0002e	5d		 pop	 ebp
  0002f	c3		 ret	 0
??$_Uninit_move@PAUMONSTER_EVENT_DATA@@PAU1@V?$allocator@UMONSTER_EVENT_DATA@@@std@@U1@@std@@YAPAUMONSTER_EVENT_DATA@@PAU1@00AAU?$_Wrap_alloc@V?$allocator@UMONSTER_EVENT_DATA@@@std@@@0@0U_Nonscalar_ptr_iterator_tag@0@@Z ENDP ; std::_Uninit_move<MONSTER_EVENT_DATA *,MONSTER_EVENT_DATA *,std::allocator<MONSTER_EVENT_DATA>,MONSTER_EVENT_DATA>
_TEXT	ENDS
; Function compile flags: /Ogtp
; File c:\program files (x86)\microsoft visual studio 14.0\vc\include\xutility
;	COMDAT ??$_Val_type@PAUMONSTER_EVENT_DATA@@@std@@YAPAUMONSTER_EVENT_DATA@@PAU1@@Z
_TEXT	SEGMENT
___formal$ = 8						; size = 4
??$_Val_type@PAUMONSTER_EVENT_DATA@@@std@@YAPAUMONSTER_EVENT_DATA@@PAU1@@Z PROC ; std::_Val_type<MONSTER_EVENT_DATA *>, COMDAT

; 875  : 	return (0);

  00000	33 c0		 xor	 eax, eax

; 876  : 	}

  00002	c3		 ret	 0
??$_Val_type@PAUMONSTER_EVENT_DATA@@@std@@YAPAUMONSTER_EVENT_DATA@@PAU1@@Z ENDP ; std::_Val_type<MONSTER_EVENT_DATA *>
_TEXT	ENDS
; Function compile flags: /Ogtp
; File c:\program files (x86)\microsoft visual studio 14.0\vc\include\xmemory
;	COMDAT ??$_Uninit_move@PAVCXMasMonsterHerd@@PAV1@PAV1@@std@@YAPAPAVCXMasMonsterHerd@@PAPAV1@00AAU?$_Wrap_alloc@V?$allocator@PAVCXMasMonsterHerd@@@std@@@0@0U_Scalar_ptr_iterator_tag@0@@Z
_TEXT	SEGMENT
__First$ = 8						; size = 4
__Last$ = 12						; size = 4
__Dest$ = 16						; size = 4
___formal$ = 20						; size = 4
___formal$ = 24						; size = 4
___formal$ = 28						; size = 1
??$_Uninit_move@PAVCXMasMonsterHerd@@PAV1@PAV1@@std@@YAPAPAVCXMasMonsterHerd@@PAPAV1@00AAU?$_Wrap_alloc@V?$allocator@PAVCXMasMonsterHerd@@@std@@@0@0U_Scalar_ptr_iterator_tag@0@@Z PROC ; std::_Uninit_move<CXMasMonsterHerd *,CXMasMonsterHerd *,CXMasMonsterHerd *>, COMDAT

; 468  : 	{	// move [_First, _Last) to raw _Dest, scalar type

  00000	55		 push	 ebp
  00001	8b ec		 mov	 ebp, esp

; 469  : 	_DEBUG_RANGE_PTR(_First, _Last, _Dest);
; 470  : 	size_t _Count = (size_t)(_Last - _First);

  00003	8b 4d 08	 mov	 ecx, DWORD PTR __First$[ebp]
  00006	8b 45 0c	 mov	 eax, DWORD PTR __Last$[ebp]
  00009	2b c1		 sub	 eax, ecx
  0000b	c1 f8 02	 sar	 eax, 2
  0000e	56		 push	 esi

; 471  : 	return ((_Ty2 *)_CSTD memmove(&*_Dest, &*_First,

  0000f	8d 34 85 00 00
	00 00		 lea	 esi, DWORD PTR [eax*4]
  00016	56		 push	 esi
  00017	51		 push	 ecx
  00018	ff 75 10	 push	 DWORD PTR __Dest$[ebp]
  0001b	e8 00 00 00 00	 call	 _memmove
  00020	83 c4 0c	 add	 esp, 12			; 0000000cH
  00023	03 c6		 add	 eax, esi
  00025	5e		 pop	 esi

; 472  : 		_Count * sizeof (*_First)) + _Count);	// NB: non-overlapping move
; 473  : 	}

  00026	5d		 pop	 ebp
  00027	c3		 ret	 0
??$_Uninit_move@PAVCXMasMonsterHerd@@PAV1@PAV1@@std@@YAPAPAVCXMasMonsterHerd@@PAPAV1@00AAU?$_Wrap_alloc@V?$allocator@PAVCXMasMonsterHerd@@@std@@@0@0U_Scalar_ptr_iterator_tag@0@@Z ENDP ; std::_Uninit_move<CXMasMonsterHerd *,CXMasMonsterHerd *,CXMasMonsterHerd *>
_TEXT	ENDS
; Function compile flags: /Ogtp
; File c:\program files (x86)\microsoft visual studio 14.0\vc\include\xutility
;	COMDAT ??$_Val_type@PAPAVCXMasMonsterHerd@@@std@@YAPAPAVCXMasMonsterHerd@@PAPAV1@@Z
_TEXT	SEGMENT
___formal$ = 8						; size = 4
??$_Val_type@PAPAVCXMasMonsterHerd@@@std@@YAPAPAVCXMasMonsterHerd@@PAPAV1@@Z PROC ; std::_Val_type<CXMasMonsterHerd * *>, COMDAT

; 875  : 	return (0);

  00000	33 c0		 xor	 eax, eax

; 876  : 	}

  00002	c3		 ret	 0
??$_Val_type@PAPAVCXMasMonsterHerd@@@std@@YAPAPAVCXMasMonsterHerd@@PAPAV1@@Z ENDP ; std::_Val_type<CXMasMonsterHerd * *>
_TEXT	ENDS
; Function compile flags: /Ogtp
; File c:\program files (x86)\microsoft visual studio 14.0\vc\include\xmemory0
;	COMDAT ??$destroy@UXMASMONSTER_MAP_DATA@@@?$allocator_traits@V?$allocator@UXMASMONSTER_MAP_DATA@@@std@@@std@@SAXAAV?$allocator@UXMASMONSTER_MAP_DATA@@@1@PAUXMASMONSTER_MAP_DATA@@@Z
_TEXT	SEGMENT
__Al$ = 8						; size = 4
__Ptr$ = 12						; size = 4
??$destroy@UXMASMONSTER_MAP_DATA@@@?$allocator_traits@V?$allocator@UXMASMONSTER_MAP_DATA@@@std@@@std@@SAXAAV?$allocator@UXMASMONSTER_MAP_DATA@@@1@PAUXMASMONSTER_MAP_DATA@@@Z PROC ; std::allocator_traits<std::allocator<XMASMONSTER_MAP_DATA> >::destroy<XMASMONSTER_MAP_DATA>, COMDAT

; 780  : 		_Al.destroy(_Ptr);
; 781  : 		}

  00000	c3		 ret	 0
??$destroy@UXMASMONSTER_MAP_DATA@@@?$allocator_traits@V?$allocator@UXMASMONSTER_MAP_DATA@@@std@@@std@@SAXAAV?$allocator@UXMASMONSTER_MAP_DATA@@@1@PAUXMASMONSTER_MAP_DATA@@@Z ENDP ; std::allocator_traits<std::allocator<XMASMONSTER_MAP_DATA> >::destroy<XMASMONSTER_MAP_DATA>
_TEXT	ENDS
; Function compile flags: /Ogtp
; File c:\program files (x86)\microsoft visual studio 14.0\vc\include\xstddef
;	COMDAT ??$_Addressof@UXMASMONSTER_MAP_DATA@@@std@@YAPAUXMASMONSTER_MAP_DATA@@AAU1@U?$integral_constant@_N$0A@@0@@Z
_TEXT	SEGMENT
__Val$ = 8						; size = 4
___formal$ = 12						; size = 1
??$_Addressof@UXMASMONSTER_MAP_DATA@@@std@@YAPAUXMASMONSTER_MAP_DATA@@AAU1@U?$integral_constant@_N$0A@@0@@Z PROC ; std::_Addressof<XMASMONSTER_MAP_DATA>, COMDAT

; 688  : 	{	// return address of object _Val

  00000	55		 push	 ebp
  00001	8b ec		 mov	 ebp, esp

; 689  : 	return (reinterpret_cast<_Ty *>(

  00003	8b 45 08	 mov	 eax, DWORD PTR __Val$[ebp]

; 690  : 		&const_cast<char&>(
; 691  : 		reinterpret_cast<const volatile char&>(_Val))));
; 692  : 	}

  00006	5d		 pop	 ebp
  00007	c3		 ret	 0
??$_Addressof@UXMASMONSTER_MAP_DATA@@@std@@YAPAUXMASMONSTER_MAP_DATA@@AAU1@U?$integral_constant@_N$0A@@0@@Z ENDP ; std::_Addressof<XMASMONSTER_MAP_DATA>
_TEXT	ENDS
; Function compile flags: /Ogtp
; File c:\program files (x86)\microsoft visual studio 14.0\vc\include\xmemory
; File c:\program files (x86)\microsoft visual studio 14.0\vc\include\xmemory0
; File c:\program files (x86)\microsoft visual studio 14.0\vc\include\xmemory
;	COMDAT ??$_Uninit_move@PAUXMASMONSTER_MAP_DATA@@PAU1@V?$allocator@UXMASMONSTER_MAP_DATA@@@std@@U1@@std@@YAPAUXMASMONSTER_MAP_DATA@@PAU1@00AAU?$_Wrap_alloc@V?$allocator@UXMASMONSTER_MAP_DATA@@@std@@@0@0U_Nonscalar_ptr_iterator_tag@0@@Z
_TEXT	SEGMENT
__First$ = 8						; size = 4
__Last$ = 12						; size = 4
__Dest$ = 16						; size = 4
__Al$ = 20						; size = 4
___formal$ = 24						; size = 4
___formal$ = 28						; size = 1
??$_Uninit_move@PAUXMASMONSTER_MAP_DATA@@PAU1@V?$allocator@UXMASMONSTER_MAP_DATA@@@std@@U1@@std@@YAPAUXMASMONSTER_MAP_DATA@@PAU1@00AAU?$_Wrap_alloc@V?$allocator@UXMASMONSTER_MAP_DATA@@@std@@@0@0U_Nonscalar_ptr_iterator_tag@0@@Z PROC ; std::_Uninit_move<XMASMONSTER_MAP_DATA *,XMASMONSTER_MAP_DATA *,std::allocator<XMASMONSTER_MAP_DATA>,XMASMONSTER_MAP_DATA>, COMDAT

; 437  : 	{	// move [_First, _Last) to raw _Dest, using _Al, arbitrary type

  00000	55		 push	 ebp
  00001	8b ec		 mov	 ebp, esp

; 442  : 	for (; _First != _Last; ++_Dest, (void)++_First)

  00003	8b 4d 08	 mov	 ecx, DWORD PTR __First$[ebp]
  00006	8b 45 10	 mov	 eax, DWORD PTR __Dest$[ebp]
  00009	56		 push	 esi
  0000a	8b 75 0c	 mov	 esi, DWORD PTR __Last$[ebp]
  0000d	3b ce		 cmp	 ecx, esi
  0000f	74 1a		 je	 SHORT $LN3@Uninit_mov
$LL4@Uninit_mov:
; File c:\program files (x86)\microsoft visual studio 14.0\vc\include\xmemory0

; 655  : 		::new ((void *)_Ptr) _Objty(_STD forward<_Types>(_Args)...);

  00011	85 c0		 test	 eax, eax
  00013	74 0c		 je	 SHORT $LN2@Uninit_mov
  00015	0f 10 01	 movups	 xmm0, XMMWORD PTR [ecx]
  00018	0f 11 00	 movups	 XMMWORD PTR [eax], xmm0
  0001b	8b 51 10	 mov	 edx, DWORD PTR [ecx+16]
  0001e	89 50 10	 mov	 DWORD PTR [eax+16], edx
$LN2@Uninit_mov:
; File c:\program files (x86)\microsoft visual studio 14.0\vc\include\xmemory

; 442  : 	for (; _First != _Last; ++_Dest, (void)++_First)

  00021	83 c1 14	 add	 ecx, 20			; 00000014H
  00024	83 c0 14	 add	 eax, 20			; 00000014H
  00027	3b ce		 cmp	 ecx, esi
  00029	75 e6		 jne	 SHORT $LL4@Uninit_mov
$LN3@Uninit_mov:
  0002b	5e		 pop	 esi

; 443  : 		_Al.construct(_Dest, (_Valty&&)*_First);
; 444  : 	_CATCH_ALL
; 445  : 	for (; _Next != _Dest; ++_Next)
; 446  : 		_Al.destroy(_Next);
; 447  : 	_RERAISE;
; 448  : 	_CATCH_END
; 449  : 	return (_Dest);
; 450  : 	}

  0002c	5d		 pop	 ebp
  0002d	c3		 ret	 0
??$_Uninit_move@PAUXMASMONSTER_MAP_DATA@@PAU1@V?$allocator@UXMASMONSTER_MAP_DATA@@@std@@U1@@std@@YAPAUXMASMONSTER_MAP_DATA@@PAU1@00AAU?$_Wrap_alloc@V?$allocator@UXMASMONSTER_MAP_DATA@@@std@@@0@0U_Nonscalar_ptr_iterator_tag@0@@Z ENDP ; std::_Uninit_move<XMASMONSTER_MAP_DATA *,XMASMONSTER_MAP_DATA *,std::allocator<XMASMONSTER_MAP_DATA>,XMASMONSTER_MAP_DATA>
_TEXT	ENDS
; Function compile flags: /Ogtp
; File c:\program files (x86)\microsoft visual studio 14.0\vc\include\xutility
;	COMDAT ??$_Val_type@PAUXMASMONSTER_MAP_DATA@@@std@@YAPAUXMASMONSTER_MAP_DATA@@PAU1@@Z
_TEXT	SEGMENT
___formal$ = 8						; size = 4
??$_Val_type@PAUXMASMONSTER_MAP_DATA@@@std@@YAPAUXMASMONSTER_MAP_DATA@@PAU1@@Z PROC ; std::_Val_type<XMASMONSTER_MAP_DATA *>, COMDAT

; 875  : 	return (0);

  00000	33 c0		 xor	 eax, eax

; 876  : 	}

  00002	c3		 ret	 0
??$_Val_type@PAUXMASMONSTER_MAP_DATA@@@std@@YAPAUXMASMONSTER_MAP_DATA@@PAU1@@Z ENDP ; std::_Val_type<XMASMONSTER_MAP_DATA *>
_TEXT	ENDS
; Function compile flags: /Ogtp
; File c:\program files (x86)\microsoft visual studio 14.0\vc\include\xmemory0
;	COMDAT ??$destroy@UMONSTER_EVENT_TIME@@@?$allocator_traits@V?$allocator@UMONSTER_EVENT_TIME@@@std@@@std@@SAXAAV?$allocator@UMONSTER_EVENT_TIME@@@1@PAUMONSTER_EVENT_TIME@@@Z
_TEXT	SEGMENT
__Al$ = 8						; size = 4
__Ptr$ = 12						; size = 4
??$destroy@UMONSTER_EVENT_TIME@@@?$allocator_traits@V?$allocator@UMONSTER_EVENT_TIME@@@std@@@std@@SAXAAV?$allocator@UMONSTER_EVENT_TIME@@@1@PAUMONSTER_EVENT_TIME@@@Z PROC ; std::allocator_traits<std::allocator<MONSTER_EVENT_TIME> >::destroy<MONSTER_EVENT_TIME>, COMDAT

; 780  : 		_Al.destroy(_Ptr);
; 781  : 		}

  00000	c3		 ret	 0
??$destroy@UMONSTER_EVENT_TIME@@@?$allocator_traits@V?$allocator@UMONSTER_EVENT_TIME@@@std@@@std@@SAXAAV?$allocator@UMONSTER_EVENT_TIME@@@1@PAUMONSTER_EVENT_TIME@@@Z ENDP ; std::allocator_traits<std::allocator<MONSTER_EVENT_TIME> >::destroy<MONSTER_EVENT_TIME>
_TEXT	ENDS
; Function compile flags: /Ogtp
; File c:\program files (x86)\microsoft visual studio 14.0\vc\include\xstddef
;	COMDAT ??$_Addressof@UMONSTER_EVENT_TIME@@@std@@YAPAUMONSTER_EVENT_TIME@@AAU1@U?$integral_constant@_N$0A@@0@@Z
_TEXT	SEGMENT
__Val$ = 8						; size = 4
___formal$ = 12						; size = 1
??$_Addressof@UMONSTER_EVENT_TIME@@@std@@YAPAUMONSTER_EVENT_TIME@@AAU1@U?$integral_constant@_N$0A@@0@@Z PROC ; std::_Addressof<MONSTER_EVENT_TIME>, COMDAT

; 688  : 	{	// return address of object _Val

  00000	55		 push	 ebp
  00001	8b ec		 mov	 ebp, esp

; 689  : 	return (reinterpret_cast<_Ty *>(

  00003	8b 45 08	 mov	 eax, DWORD PTR __Val$[ebp]

; 690  : 		&const_cast<char&>(
; 691  : 		reinterpret_cast<const volatile char&>(_Val))));
; 692  : 	}

  00006	5d		 pop	 ebp
  00007	c3		 ret	 0
??$_Addressof@UMONSTER_EVENT_TIME@@@std@@YAPAUMONSTER_EVENT_TIME@@AAU1@U?$integral_constant@_N$0A@@0@@Z ENDP ; std::_Addressof<MONSTER_EVENT_TIME>
_TEXT	ENDS
; Function compile flags: /Ogtp
; File c:\program files (x86)\microsoft visual studio 14.0\vc\include\xmemory0
;	COMDAT ??$destroy@UMONSTER_EVENT_DATA@@@?$allocator_traits@V?$allocator@UMONSTER_EVENT_DATA@@@std@@@std@@SAXAAV?$allocator@UMONSTER_EVENT_DATA@@@1@PAUMONSTER_EVENT_DATA@@@Z
_TEXT	SEGMENT
__Al$ = 8						; size = 4
__Ptr$ = 12						; size = 4
??$destroy@UMONSTER_EVENT_DATA@@@?$allocator_traits@V?$allocator@UMONSTER_EVENT_DATA@@@std@@@std@@SAXAAV?$allocator@UMONSTER_EVENT_DATA@@@1@PAUMONSTER_EVENT_DATA@@@Z PROC ; std::allocator_traits<std::allocator<MONSTER_EVENT_DATA> >::destroy<MONSTER_EVENT_DATA>, COMDAT

; 780  : 		_Al.destroy(_Ptr);
; 781  : 		}

  00000	c3		 ret	 0
??$destroy@UMONSTER_EVENT_DATA@@@?$allocator_traits@V?$allocator@UMONSTER_EVENT_DATA@@@std@@@std@@SAXAAV?$allocator@UMONSTER_EVENT_DATA@@@1@PAUMONSTER_EVENT_DATA@@@Z ENDP ; std::allocator_traits<std::allocator<MONSTER_EVENT_DATA> >::destroy<MONSTER_EVENT_DATA>
_TEXT	ENDS
; Function compile flags: /Ogtp
; File c:\program files (x86)\microsoft visual studio 14.0\vc\include\xstddef
;	COMDAT ??$_Addressof@UMONSTER_EVENT_DATA@@@std@@YAPAUMONSTER_EVENT_DATA@@AAU1@U?$integral_constant@_N$0A@@0@@Z
_TEXT	SEGMENT
__Val$ = 8						; size = 4
___formal$ = 12						; size = 1
??$_Addressof@UMONSTER_EVENT_DATA@@@std@@YAPAUMONSTER_EVENT_DATA@@AAU1@U?$integral_constant@_N$0A@@0@@Z PROC ; std::_Addressof<MONSTER_EVENT_DATA>, COMDAT

; 688  : 	{	// return address of object _Val

  00000	55		 push	 ebp
  00001	8b ec		 mov	 ebp, esp

; 689  : 	return (reinterpret_cast<_Ty *>(

  00003	8b 45 08	 mov	 eax, DWORD PTR __Val$[ebp]

; 690  : 		&const_cast<char&>(
; 691  : 		reinterpret_cast<const volatile char&>(_Val))));
; 692  : 	}

  00006	5d		 pop	 ebp
  00007	c3		 ret	 0
??$_Addressof@UMONSTER_EVENT_DATA@@@std@@YAPAUMONSTER_EVENT_DATA@@AAU1@U?$integral_constant@_N$0A@@0@@Z ENDP ; std::_Addressof<MONSTER_EVENT_DATA>
_TEXT	ENDS
; Function compile flags: /Ogtp
; File c:\program files (x86)\microsoft visual studio 14.0\vc\include\xutility
;	COMDAT ??$_Rechecked@PAUMONSTER_EVENT_TIME@@PAU1@@std@@YAAAPAUMONSTER_EVENT_TIME@@AAPAU1@PAU1@@Z
_TEXT	SEGMENT
__Dest$ = 8						; size = 4
__Src$ = 12						; size = 4
??$_Rechecked@PAUMONSTER_EVENT_TIME@@PAU1@@std@@YAAAPAUMONSTER_EVENT_TIME@@AAPAU1@PAU1@@Z PROC ; std::_Rechecked<MONSTER_EVENT_TIME *,MONSTER_EVENT_TIME *>, COMDAT

; 446  : 	{	// reset checked from unchecked, generic

  00000	55		 push	 ebp
  00001	8b ec		 mov	 ebp, esp

; 447  : 	_Dest = _Src;

  00003	8b 45 08	 mov	 eax, DWORD PTR __Dest$[ebp]
  00006	8b 4d 0c	 mov	 ecx, DWORD PTR __Src$[ebp]
  00009	89 08		 mov	 DWORD PTR [eax], ecx

; 448  : 	return (_Dest);
; 449  : 	}

  0000b	5d		 pop	 ebp
  0000c	c3		 ret	 0
??$_Rechecked@PAUMONSTER_EVENT_TIME@@PAU1@@std@@YAAAPAUMONSTER_EVENT_TIME@@AAPAU1@PAU1@@Z ENDP ; std::_Rechecked<MONSTER_EVENT_TIME *,MONSTER_EVENT_TIME *>
_TEXT	ENDS
; Function compile flags: /Ogtp
; File c:\program files (x86)\microsoft visual studio 14.0\vc\include\xmemory
;	COMDAT ??$_Uninit_move@PAUMONSTER_EVENT_TIME@@PAU1@U?$_Wrap_alloc@V?$allocator@UMONSTER_EVENT_TIME@@@std@@@std@@@std@@YAPAUMONSTER_EVENT_TIME@@PAU1@00AAU?$_Wrap_alloc@V?$allocator@UMONSTER_EVENT_TIME@@@std@@@0@@Z
_TEXT	SEGMENT
__Cat$1 = -4						; size = 1
__First$ = 8						; size = 4
__Last$ = 12						; size = 4
__Dest$ = 16						; size = 4
__Al$ = 20						; size = 4
??$_Uninit_move@PAUMONSTER_EVENT_TIME@@PAU1@U?$_Wrap_alloc@V?$allocator@UMONSTER_EVENT_TIME@@@std@@@std@@@std@@YAPAUMONSTER_EVENT_TIME@@PAU1@00AAU?$_Wrap_alloc@V?$allocator@UMONSTER_EVENT_TIME@@@std@@@0@@Z PROC ; std::_Uninit_move<MONSTER_EVENT_TIME *,MONSTER_EVENT_TIME *,std::_Wrap_alloc<std::allocator<MONSTER_EVENT_TIME> > >, COMDAT

; 480  : 	{	// move [_First, _Last) to raw _Dest, using _Al

  00000	55		 push	 ebp
  00001	8b ec		 mov	 ebp, esp
  00003	51		 push	 ecx

; 481  : 	return (_Uninit_move(_First, _Last, _Dest, _Al,

  00004	ff 75 fc	 push	 DWORD PTR __Cat$1[ebp]
  00007	6a 00		 push	 0
  00009	ff 75 14	 push	 DWORD PTR __Al$[ebp]
  0000c	ff 75 10	 push	 DWORD PTR __Dest$[ebp]
  0000f	ff 75 0c	 push	 DWORD PTR __Last$[ebp]
  00012	ff 75 08	 push	 DWORD PTR __First$[ebp]
  00015	e8 00 00 00 00	 call	 ??$_Uninit_move@PAUMONSTER_EVENT_TIME@@PAU1@V?$allocator@UMONSTER_EVENT_TIME@@@std@@U1@@std@@YAPAUMONSTER_EVENT_TIME@@PAU1@00AAU?$_Wrap_alloc@V?$allocator@UMONSTER_EVENT_TIME@@@std@@@0@0U_Nonscalar_ptr_iterator_tag@0@@Z ; std::_Uninit_move<MONSTER_EVENT_TIME *,MONSTER_EVENT_TIME *,std::allocator<MONSTER_EVENT_TIME>,MONSTER_EVENT_TIME>
  0001a	83 c4 18	 add	 esp, 24			; 00000018H

; 482  : 		_Val_type(_First), _Ptr_cat(_First, _Dest)));
; 483  : 	}

  0001d	8b e5		 mov	 esp, ebp
  0001f	5d		 pop	 ebp
  00020	c3		 ret	 0
??$_Uninit_move@PAUMONSTER_EVENT_TIME@@PAU1@U?$_Wrap_alloc@V?$allocator@UMONSTER_EVENT_TIME@@@std@@@std@@@std@@YAPAUMONSTER_EVENT_TIME@@PAU1@00AAU?$_Wrap_alloc@V?$allocator@UMONSTER_EVENT_TIME@@@std@@@0@@Z ENDP ; std::_Uninit_move<MONSTER_EVENT_TIME *,MONSTER_EVENT_TIME *,std::_Wrap_alloc<std::allocator<MONSTER_EVENT_TIME> > >
_TEXT	ENDS
; Function compile flags: /Ogtp
; File c:\program files (x86)\microsoft visual studio 14.0\vc\include\xutility
;	COMDAT ??$_Unchecked@PAUMONSTER_EVENT_TIME@@@std@@YAPAUMONSTER_EVENT_TIME@@PAU1@@Z
_TEXT	SEGMENT
__Src$ = 8						; size = 4
??$_Unchecked@PAUMONSTER_EVENT_TIME@@@std@@YAPAUMONSTER_EVENT_TIME@@PAU1@@Z PROC ; std::_Unchecked<MONSTER_EVENT_TIME *>, COMDAT

; 438  : 	{	// construct unchecked from checked, generic

  00000	55		 push	 ebp
  00001	8b ec		 mov	 ebp, esp

; 439  : 	return (_Src);

  00003	8b 45 08	 mov	 eax, DWORD PTR __Src$[ebp]

; 440  : 	}

  00006	5d		 pop	 ebp
  00007	c3		 ret	 0
??$_Unchecked@PAUMONSTER_EVENT_TIME@@@std@@YAPAUMONSTER_EVENT_TIME@@PAU1@@Z ENDP ; std::_Unchecked<MONSTER_EVENT_TIME *>
_TEXT	ENDS
; Function compile flags: /Ogtp
; File c:\program files (x86)\microsoft visual studio 14.0\vc\include\xutility
;	COMDAT ??$_Rechecked@PAUMONSTER_EVENT_DATA@@PAU1@@std@@YAAAPAUMONSTER_EVENT_DATA@@AAPAU1@PAU1@@Z
_TEXT	SEGMENT
__Dest$ = 8						; size = 4
__Src$ = 12						; size = 4
??$_Rechecked@PAUMONSTER_EVENT_DATA@@PAU1@@std@@YAAAPAUMONSTER_EVENT_DATA@@AAPAU1@PAU1@@Z PROC ; std::_Rechecked<MONSTER_EVENT_DATA *,MONSTER_EVENT_DATA *>, COMDAT

; 446  : 	{	// reset checked from unchecked, generic

  00000	55		 push	 ebp
  00001	8b ec		 mov	 ebp, esp

; 447  : 	_Dest = _Src;

  00003	8b 45 08	 mov	 eax, DWORD PTR __Dest$[ebp]
  00006	8b 4d 0c	 mov	 ecx, DWORD PTR __Src$[ebp]
  00009	89 08		 mov	 DWORD PTR [eax], ecx

; 448  : 	return (_Dest);
; 449  : 	}

  0000b	5d		 pop	 ebp
  0000c	c3		 ret	 0
??$_Rechecked@PAUMONSTER_EVENT_DATA@@PAU1@@std@@YAAAPAUMONSTER_EVENT_DATA@@AAPAU1@PAU1@@Z ENDP ; std::_Rechecked<MONSTER_EVENT_DATA *,MONSTER_EVENT_DATA *>
_TEXT	ENDS
; Function compile flags: /Ogtp
; File c:\program files (x86)\microsoft visual studio 14.0\vc\include\xmemory
;	COMDAT ??$_Uninit_move@PAUMONSTER_EVENT_DATA@@PAU1@U?$_Wrap_alloc@V?$allocator@UMONSTER_EVENT_DATA@@@std@@@std@@@std@@YAPAUMONSTER_EVENT_DATA@@PAU1@00AAU?$_Wrap_alloc@V?$allocator@UMONSTER_EVENT_DATA@@@std@@@0@@Z
_TEXT	SEGMENT
__Cat$1 = -4						; size = 1
__First$ = 8						; size = 4
__Last$ = 12						; size = 4
__Dest$ = 16						; size = 4
__Al$ = 20						; size = 4
??$_Uninit_move@PAUMONSTER_EVENT_DATA@@PAU1@U?$_Wrap_alloc@V?$allocator@UMONSTER_EVENT_DATA@@@std@@@std@@@std@@YAPAUMONSTER_EVENT_DATA@@PAU1@00AAU?$_Wrap_alloc@V?$allocator@UMONSTER_EVENT_DATA@@@std@@@0@@Z PROC ; std::_Uninit_move<MONSTER_EVENT_DATA *,MONSTER_EVENT_DATA *,std::_Wrap_alloc<std::allocator<MONSTER_EVENT_DATA> > >, COMDAT

; 480  : 	{	// move [_First, _Last) to raw _Dest, using _Al

  00000	55		 push	 ebp
  00001	8b ec		 mov	 ebp, esp
  00003	51		 push	 ecx

; 481  : 	return (_Uninit_move(_First, _Last, _Dest, _Al,

  00004	ff 75 fc	 push	 DWORD PTR __Cat$1[ebp]
  00007	6a 00		 push	 0
  00009	ff 75 14	 push	 DWORD PTR __Al$[ebp]
  0000c	ff 75 10	 push	 DWORD PTR __Dest$[ebp]
  0000f	ff 75 0c	 push	 DWORD PTR __Last$[ebp]
  00012	ff 75 08	 push	 DWORD PTR __First$[ebp]
  00015	e8 00 00 00 00	 call	 ??$_Uninit_move@PAUMONSTER_EVENT_DATA@@PAU1@V?$allocator@UMONSTER_EVENT_DATA@@@std@@U1@@std@@YAPAUMONSTER_EVENT_DATA@@PAU1@00AAU?$_Wrap_alloc@V?$allocator@UMONSTER_EVENT_DATA@@@std@@@0@0U_Nonscalar_ptr_iterator_tag@0@@Z ; std::_Uninit_move<MONSTER_EVENT_DATA *,MONSTER_EVENT_DATA *,std::allocator<MONSTER_EVENT_DATA>,MONSTER_EVENT_DATA>
  0001a	83 c4 18	 add	 esp, 24			; 00000018H

; 482  : 		_Val_type(_First), _Ptr_cat(_First, _Dest)));
; 483  : 	}

  0001d	8b e5		 mov	 esp, ebp
  0001f	5d		 pop	 ebp
  00020	c3		 ret	 0
??$_Uninit_move@PAUMONSTER_EVENT_DATA@@PAU1@U?$_Wrap_alloc@V?$allocator@UMONSTER_EVENT_DATA@@@std@@@std@@@std@@YAPAUMONSTER_EVENT_DATA@@PAU1@00AAU?$_Wrap_alloc@V?$allocator@UMONSTER_EVENT_DATA@@@std@@@0@@Z ENDP ; std::_Uninit_move<MONSTER_EVENT_DATA *,MONSTER_EVENT_DATA *,std::_Wrap_alloc<std::allocator<MONSTER_EVENT_DATA> > >
_TEXT	ENDS
; Function compile flags: /Ogtp
; File c:\program files (x86)\microsoft visual studio 14.0\vc\include\xutility
;	COMDAT ??$_Unchecked@PAUMONSTER_EVENT_DATA@@@std@@YAPAUMONSTER_EVENT_DATA@@PAU1@@Z
_TEXT	SEGMENT
__Src$ = 8						; size = 4
??$_Unchecked@PAUMONSTER_EVENT_DATA@@@std@@YAPAUMONSTER_EVENT_DATA@@PAU1@@Z PROC ; std::_Unchecked<MONSTER_EVENT_DATA *>, COMDAT

; 438  : 	{	// construct unchecked from checked, generic

  00000	55		 push	 ebp
  00001	8b ec		 mov	 ebp, esp

; 439  : 	return (_Src);

  00003	8b 45 08	 mov	 eax, DWORD PTR __Src$[ebp]

; 440  : 	}

  00006	5d		 pop	 ebp
  00007	c3		 ret	 0
??$_Unchecked@PAUMONSTER_EVENT_DATA@@@std@@YAPAUMONSTER_EVENT_DATA@@PAU1@@Z ENDP ; std::_Unchecked<MONSTER_EVENT_DATA *>
_TEXT	ENDS
; Function compile flags: /Ogtp
; File c:\program files (x86)\microsoft visual studio 14.0\vc\include\xutility
;	COMDAT ??$_Rechecked@PAPAVCXMasMonsterHerd@@PAPAV1@@std@@YAAAPAPAVCXMasMonsterHerd@@AAPAPAV1@PAPAV1@@Z
_TEXT	SEGMENT
__Dest$ = 8						; size = 4
__Src$ = 12						; size = 4
??$_Rechecked@PAPAVCXMasMonsterHerd@@PAPAV1@@std@@YAAAPAPAVCXMasMonsterHerd@@AAPAPAV1@PAPAV1@@Z PROC ; std::_Rechecked<CXMasMonsterHerd * *,CXMasMonsterHerd * *>, COMDAT

; 446  : 	{	// reset checked from unchecked, generic

  00000	55		 push	 ebp
  00001	8b ec		 mov	 ebp, esp

; 447  : 	_Dest = _Src;

  00003	8b 45 08	 mov	 eax, DWORD PTR __Dest$[ebp]
  00006	8b 4d 0c	 mov	 ecx, DWORD PTR __Src$[ebp]
  00009	89 08		 mov	 DWORD PTR [eax], ecx

; 448  : 	return (_Dest);
; 449  : 	}

  0000b	5d		 pop	 ebp
  0000c	c3		 ret	 0
??$_Rechecked@PAPAVCXMasMonsterHerd@@PAPAV1@@std@@YAAAPAPAVCXMasMonsterHerd@@AAPAPAV1@PAPAV1@@Z ENDP ; std::_Rechecked<CXMasMonsterHerd * *,CXMasMonsterHerd * *>
_TEXT	ENDS
; Function compile flags: /Ogtp
; File c:\program files (x86)\microsoft visual studio 14.0\vc\include\xmemory
;	COMDAT ??$_Uninit_move@PAPAVCXMasMonsterHerd@@PAPAV1@U?$_Wrap_alloc@V?$allocator@PAVCXMasMonsterHerd@@@std@@@std@@@std@@YAPAPAVCXMasMonsterHerd@@PAPAV1@00AAU?$_Wrap_alloc@V?$allocator@PAVCXMasMonsterHerd@@@std@@@0@@Z
_TEXT	SEGMENT
__First$ = 8						; size = 4
__Last$ = 12						; size = 4
__Dest$ = 16						; size = 4
__Al$ = 20						; size = 4
??$_Uninit_move@PAPAVCXMasMonsterHerd@@PAPAV1@U?$_Wrap_alloc@V?$allocator@PAVCXMasMonsterHerd@@@std@@@std@@@std@@YAPAPAVCXMasMonsterHerd@@PAPAV1@00AAU?$_Wrap_alloc@V?$allocator@PAVCXMasMonsterHerd@@@std@@@0@@Z PROC ; std::_Uninit_move<CXMasMonsterHerd * *,CXMasMonsterHerd * *,std::_Wrap_alloc<std::allocator<CXMasMonsterHerd *> > >, COMDAT

; 480  : 	{	// move [_First, _Last) to raw _Dest, using _Al

  00000	55		 push	 ebp
  00001	8b ec		 mov	 ebp, esp

; 470  : 	size_t _Count = (size_t)(_Last - _First);

  00003	8b 4d 08	 mov	 ecx, DWORD PTR __First$[ebp]
  00006	8b 45 0c	 mov	 eax, DWORD PTR __Last$[ebp]
  00009	2b c1		 sub	 eax, ecx
  0000b	c1 f8 02	 sar	 eax, 2
  0000e	56		 push	 esi

; 471  : 	return ((_Ty2 *)_CSTD memmove(&*_Dest, &*_First,

  0000f	8d 34 85 00 00
	00 00		 lea	 esi, DWORD PTR [eax*4]
  00016	56		 push	 esi
  00017	51		 push	 ecx
  00018	ff 75 10	 push	 DWORD PTR __Dest$[ebp]
  0001b	e8 00 00 00 00	 call	 _memmove
  00020	83 c4 0c	 add	 esp, 12			; 0000000cH
  00023	03 c6		 add	 eax, esi
  00025	5e		 pop	 esi

; 481  : 	return (_Uninit_move(_First, _Last, _Dest, _Al,
; 482  : 		_Val_type(_First), _Ptr_cat(_First, _Dest)));
; 483  : 	}

  00026	5d		 pop	 ebp
  00027	c3		 ret	 0
??$_Uninit_move@PAPAVCXMasMonsterHerd@@PAPAV1@U?$_Wrap_alloc@V?$allocator@PAVCXMasMonsterHerd@@@std@@@std@@@std@@YAPAPAVCXMasMonsterHerd@@PAPAV1@00AAU?$_Wrap_alloc@V?$allocator@PAVCXMasMonsterHerd@@@std@@@0@@Z ENDP ; std::_Uninit_move<CXMasMonsterHerd * *,CXMasMonsterHerd * *,std::_Wrap_alloc<std::allocator<CXMasMonsterHerd *> > >
_TEXT	ENDS
; Function compile flags: /Ogtp
; File c:\program files (x86)\microsoft visual studio 14.0\vc\include\xutility
;	COMDAT ??$_Unchecked@PAPAVCXMasMonsterHerd@@@std@@YAPAPAVCXMasMonsterHerd@@PAPAV1@@Z
_TEXT	SEGMENT
__Src$ = 8						; size = 4
??$_Unchecked@PAPAVCXMasMonsterHerd@@@std@@YAPAPAVCXMasMonsterHerd@@PAPAV1@@Z PROC ; std::_Unchecked<CXMasMonsterHerd * *>, COMDAT

; 438  : 	{	// construct unchecked from checked, generic

  00000	55		 push	 ebp
  00001	8b ec		 mov	 ebp, esp

; 439  : 	return (_Src);

  00003	8b 45 08	 mov	 eax, DWORD PTR __Src$[ebp]

; 440  : 	}

  00006	5d		 pop	 ebp
  00007	c3		 ret	 0
??$_Unchecked@PAPAVCXMasMonsterHerd@@@std@@YAPAPAVCXMasMonsterHerd@@PAPAV1@@Z ENDP ; std::_Unchecked<CXMasMonsterHerd * *>
_TEXT	ENDS
; Function compile flags: /Ogtp
; File c:\program files (x86)\microsoft visual studio 14.0\vc\include\xmemory0
;	COMDAT ??$destroy@UXMASMONSTER_MAP_DATA@@@?$_Wrap_alloc@V?$allocator@UXMASMONSTER_MAP_DATA@@@std@@@std@@QAEXPAUXMASMONSTER_MAP_DATA@@@Z
_TEXT	SEGMENT
__Ptr$ = 8						; size = 4
??$destroy@UXMASMONSTER_MAP_DATA@@@?$_Wrap_alloc@V?$allocator@UXMASMONSTER_MAP_DATA@@@std@@@std@@QAEXPAUXMASMONSTER_MAP_DATA@@@Z PROC ; std::_Wrap_alloc<std::allocator<XMASMONSTER_MAP_DATA> >::destroy<XMASMONSTER_MAP_DATA>, COMDAT
; _this$ = ecx

; 925  : 		_Mytraits::destroy(*this, _Ptr);
; 926  : 		}

  00000	c2 04 00	 ret	 4
??$destroy@UXMASMONSTER_MAP_DATA@@@?$_Wrap_alloc@V?$allocator@UXMASMONSTER_MAP_DATA@@@std@@@std@@QAEXPAUXMASMONSTER_MAP_DATA@@@Z ENDP ; std::_Wrap_alloc<std::allocator<XMASMONSTER_MAP_DATA> >::destroy<XMASMONSTER_MAP_DATA>
_TEXT	ENDS
; Function compile flags: /Ogtp
; File c:\program files (x86)\microsoft visual studio 14.0\vc\include\xstddef
;	COMDAT ??$addressof@UXMASMONSTER_MAP_DATA@@@std@@YAPAUXMASMONSTER_MAP_DATA@@AAU1@@Z
_TEXT	SEGMENT
__Val$ = 8						; size = 4
??$addressof@UXMASMONSTER_MAP_DATA@@@std@@YAPAUXMASMONSTER_MAP_DATA@@AAU1@@Z PROC ; std::addressof<XMASMONSTER_MAP_DATA>, COMDAT

; 696  : 	{	// return address of _Val

  00000	55		 push	 ebp
  00001	8b ec		 mov	 ebp, esp

; 697  : 	return (_Addressof(_Val, is_function<_Ty>()));

  00003	8b 45 08	 mov	 eax, DWORD PTR __Val$[ebp]

; 698  : 	}

  00006	5d		 pop	 ebp
  00007	c3		 ret	 0
??$addressof@UXMASMONSTER_MAP_DATA@@@std@@YAPAUXMASMONSTER_MAP_DATA@@AAU1@@Z ENDP ; std::addressof<XMASMONSTER_MAP_DATA>
_TEXT	ENDS
; Function compile flags: /Ogtp
; File c:\program files (x86)\microsoft visual studio 14.0\vc\include\xutility
;	COMDAT ??$_Rechecked@PAUXMASMONSTER_MAP_DATA@@PAU1@@std@@YAAAPAUXMASMONSTER_MAP_DATA@@AAPAU1@PAU1@@Z
_TEXT	SEGMENT
__Dest$ = 8						; size = 4
__Src$ = 12						; size = 4
??$_Rechecked@PAUXMASMONSTER_MAP_DATA@@PAU1@@std@@YAAAPAUXMASMONSTER_MAP_DATA@@AAPAU1@PAU1@@Z PROC ; std::_Rechecked<XMASMONSTER_MAP_DATA *,XMASMONSTER_MAP_DATA *>, COMDAT

; 446  : 	{	// reset checked from unchecked, generic

  00000	55		 push	 ebp
  00001	8b ec		 mov	 ebp, esp

; 447  : 	_Dest = _Src;

  00003	8b 45 08	 mov	 eax, DWORD PTR __Dest$[ebp]
  00006	8b 4d 0c	 mov	 ecx, DWORD PTR __Src$[ebp]
  00009	89 08		 mov	 DWORD PTR [eax], ecx

; 448  : 	return (_Dest);
; 449  : 	}

  0000b	5d		 pop	 ebp
  0000c	c3		 ret	 0
??$_Rechecked@PAUXMASMONSTER_MAP_DATA@@PAU1@@std@@YAAAPAUXMASMONSTER_MAP_DATA@@AAPAU1@PAU1@@Z ENDP ; std::_Rechecked<XMASMONSTER_MAP_DATA *,XMASMONSTER_MAP_DATA *>
_TEXT	ENDS
; Function compile flags: /Ogtp
; File c:\program files (x86)\microsoft visual studio 14.0\vc\include\xmemory
;	COMDAT ??$_Uninit_move@PAUXMASMONSTER_MAP_DATA@@PAU1@U?$_Wrap_alloc@V?$allocator@UXMASMONSTER_MAP_DATA@@@std@@@std@@@std@@YAPAUXMASMONSTER_MAP_DATA@@PAU1@00AAU?$_Wrap_alloc@V?$allocator@UXMASMONSTER_MAP_DATA@@@std@@@0@@Z
_TEXT	SEGMENT
__Cat$1 = -4						; size = 1
__First$ = 8						; size = 4
__Last$ = 12						; size = 4
__Dest$ = 16						; size = 4
__Al$ = 20						; size = 4
??$_Uninit_move@PAUXMASMONSTER_MAP_DATA@@PAU1@U?$_Wrap_alloc@V?$allocator@UXMASMONSTER_MAP_DATA@@@std@@@std@@@std@@YAPAUXMASMONSTER_MAP_DATA@@PAU1@00AAU?$_Wrap_alloc@V?$allocator@UXMASMONSTER_MAP_DATA@@@std@@@0@@Z PROC ; std::_Uninit_move<XMASMONSTER_MAP_DATA *,XMASMONSTER_MAP_DATA *,std::_Wrap_alloc<std::allocator<XMASMONSTER_MAP_DATA> > >, COMDAT

; 480  : 	{	// move [_First, _Last) to raw _Dest, using _Al

  00000	55		 push	 ebp
  00001	8b ec		 mov	 ebp, esp
  00003	51		 push	 ecx

; 481  : 	return (_Uninit_move(_First, _Last, _Dest, _Al,

  00004	ff 75 fc	 push	 DWORD PTR __Cat$1[ebp]
  00007	6a 00		 push	 0
  00009	ff 75 14	 push	 DWORD PTR __Al$[ebp]
  0000c	ff 75 10	 push	 DWORD PTR __Dest$[ebp]
  0000f	ff 75 0c	 push	 DWORD PTR __Last$[ebp]
  00012	ff 75 08	 push	 DWORD PTR __First$[ebp]
  00015	e8 00 00 00 00	 call	 ??$_Uninit_move@PAUXMASMONSTER_MAP_DATA@@PAU1@V?$allocator@UXMASMONSTER_MAP_DATA@@@std@@U1@@std@@YAPAUXMASMONSTER_MAP_DATA@@PAU1@00AAU?$_Wrap_alloc@V?$allocator@UXMASMONSTER_MAP_DATA@@@std@@@0@0U_Nonscalar_ptr_iterator_tag@0@@Z ; std::_Uninit_move<XMASMONSTER_MAP_DATA *,XMASMONSTER_MAP_DATA *,std::allocator<XMASMONSTER_MAP_DATA>,XMASMONSTER_MAP_DATA>
  0001a	83 c4 18	 add	 esp, 24			; 00000018H

; 482  : 		_Val_type(_First), _Ptr_cat(_First, _Dest)));
; 483  : 	}

  0001d	8b e5		 mov	 esp, ebp
  0001f	5d		 pop	 ebp
  00020	c3		 ret	 0
??$_Uninit_move@PAUXMASMONSTER_MAP_DATA@@PAU1@U?$_Wrap_alloc@V?$allocator@UXMASMONSTER_MAP_DATA@@@std@@@std@@@std@@YAPAUXMASMONSTER_MAP_DATA@@PAU1@00AAU?$_Wrap_alloc@V?$allocator@UXMASMONSTER_MAP_DATA@@@std@@@0@@Z ENDP ; std::_Uninit_move<XMASMONSTER_MAP_DATA *,XMASMONSTER_MAP_DATA *,std::_Wrap_alloc<std::allocator<XMASMONSTER_MAP_DATA> > >
_TEXT	ENDS
; Function compile flags: /Ogtp
; File c:\program files (x86)\microsoft visual studio 14.0\vc\include\xutility
;	COMDAT ??$_Unchecked@PAUXMASMONSTER_MAP_DATA@@@std@@YAPAUXMASMONSTER_MAP_DATA@@PAU1@@Z
_TEXT	SEGMENT
__Src$ = 8						; size = 4
??$_Unchecked@PAUXMASMONSTER_MAP_DATA@@@std@@YAPAUXMASMONSTER_MAP_DATA@@PAU1@@Z PROC ; std::_Unchecked<XMASMONSTER_MAP_DATA *>, COMDAT

; 438  : 	{	// construct unchecked from checked, generic

  00000	55		 push	 ebp
  00001	8b ec		 mov	 ebp, esp

; 439  : 	return (_Src);

  00003	8b 45 08	 mov	 eax, DWORD PTR __Src$[ebp]

; 440  : 	}

  00006	5d		 pop	 ebp
  00007	c3		 ret	 0
??$_Unchecked@PAUXMASMONSTER_MAP_DATA@@@std@@YAPAUXMASMONSTER_MAP_DATA@@PAU1@@Z ENDP ; std::_Unchecked<XMASMONSTER_MAP_DATA *>
_TEXT	ENDS
; Function compile flags: /Ogtp
; File c:\program files (x86)\microsoft visual studio 14.0\vc\include\xmemory0
;	COMDAT ??$destroy@UMONSTER_EVENT_TIME@@@?$_Wrap_alloc@V?$allocator@UMONSTER_EVENT_TIME@@@std@@@std@@QAEXPAUMONSTER_EVENT_TIME@@@Z
_TEXT	SEGMENT
__Ptr$ = 8						; size = 4
??$destroy@UMONSTER_EVENT_TIME@@@?$_Wrap_alloc@V?$allocator@UMONSTER_EVENT_TIME@@@std@@@std@@QAEXPAUMONSTER_EVENT_TIME@@@Z PROC ; std::_Wrap_alloc<std::allocator<MONSTER_EVENT_TIME> >::destroy<MONSTER_EVENT_TIME>, COMDAT
; _this$ = ecx

; 925  : 		_Mytraits::destroy(*this, _Ptr);
; 926  : 		}

  00000	c2 04 00	 ret	 4
??$destroy@UMONSTER_EVENT_TIME@@@?$_Wrap_alloc@V?$allocator@UMONSTER_EVENT_TIME@@@std@@@std@@QAEXPAUMONSTER_EVENT_TIME@@@Z ENDP ; std::_Wrap_alloc<std::allocator<MONSTER_EVENT_TIME> >::destroy<MONSTER_EVENT_TIME>
_TEXT	ENDS
; Function compile flags: /Ogtp
; File c:\program files (x86)\microsoft visual studio 14.0\vc\include\xstddef
;	COMDAT ??$addressof@UMONSTER_EVENT_TIME@@@std@@YAPAUMONSTER_EVENT_TIME@@AAU1@@Z
_TEXT	SEGMENT
__Val$ = 8						; size = 4
??$addressof@UMONSTER_EVENT_TIME@@@std@@YAPAUMONSTER_EVENT_TIME@@AAU1@@Z PROC ; std::addressof<MONSTER_EVENT_TIME>, COMDAT

; 696  : 	{	// return address of _Val

  00000	55		 push	 ebp
  00001	8b ec		 mov	 ebp, esp

; 697  : 	return (_Addressof(_Val, is_function<_Ty>()));

  00003	8b 45 08	 mov	 eax, DWORD PTR __Val$[ebp]

; 698  : 	}

  00006	5d		 pop	 ebp
  00007	c3		 ret	 0
??$addressof@UMONSTER_EVENT_TIME@@@std@@YAPAUMONSTER_EVENT_TIME@@AAU1@@Z ENDP ; std::addressof<MONSTER_EVENT_TIME>
_TEXT	ENDS
; Function compile flags: /Ogtp
; File c:\program files (x86)\microsoft visual studio 14.0\vc\include\xmemory0
;	COMDAT ??$destroy@UMONSTER_EVENT_DATA@@@?$_Wrap_alloc@V?$allocator@UMONSTER_EVENT_DATA@@@std@@@std@@QAEXPAUMONSTER_EVENT_DATA@@@Z
_TEXT	SEGMENT
__Ptr$ = 8						; size = 4
??$destroy@UMONSTER_EVENT_DATA@@@?$_Wrap_alloc@V?$allocator@UMONSTER_EVENT_DATA@@@std@@@std@@QAEXPAUMONSTER_EVENT_DATA@@@Z PROC ; std::_Wrap_alloc<std::allocator<MONSTER_EVENT_DATA> >::destroy<MONSTER_EVENT_DATA>, COMDAT
; _this$ = ecx

; 925  : 		_Mytraits::destroy(*this, _Ptr);
; 926  : 		}

  00000	c2 04 00	 ret	 4
??$destroy@UMONSTER_EVENT_DATA@@@?$_Wrap_alloc@V?$allocator@UMONSTER_EVENT_DATA@@@std@@@std@@QAEXPAUMONSTER_EVENT_DATA@@@Z ENDP ; std::_Wrap_alloc<std::allocator<MONSTER_EVENT_DATA> >::destroy<MONSTER_EVENT_DATA>
_TEXT	ENDS
; Function compile flags: /Ogtp
; File c:\program files (x86)\microsoft visual studio 14.0\vc\include\xstddef
;	COMDAT ??$addressof@UMONSTER_EVENT_DATA@@@std@@YAPAUMONSTER_EVENT_DATA@@AAU1@@Z
_TEXT	SEGMENT
__Val$ = 8						; size = 4
??$addressof@UMONSTER_EVENT_DATA@@@std@@YAPAUMONSTER_EVENT_DATA@@AAU1@@Z PROC ; std::addressof<MONSTER_EVENT_DATA>, COMDAT

; 696  : 	{	// return address of _Val

  00000	55		 push	 ebp
  00001	8b ec		 mov	 ebp, esp

; 697  : 	return (_Addressof(_Val, is_function<_Ty>()));

  00003	8b 45 08	 mov	 eax, DWORD PTR __Val$[ebp]

; 698  : 	}

  00006	5d		 pop	 ebp
  00007	c3		 ret	 0
??$addressof@UMONSTER_EVENT_DATA@@@std@@YAPAUMONSTER_EVENT_DATA@@AAU1@@Z ENDP ; std::addressof<MONSTER_EVENT_DATA>
_TEXT	ENDS
; Function compile flags: /Ogtp
; File c:\program files (x86)\microsoft visual studio 14.0\vc\include\xmemory0
;	COMDAT ??$construct@UMONSTER_EVENT_TIME@@ABU1@@?$allocator@UMONSTER_EVENT_TIME@@@std@@QAEXPAUMONSTER_EVENT_TIME@@ABU2@@Z
_TEXT	SEGMENT
__Ptr$ = 8						; size = 4
_<_Args_0>$ = 12					; size = 4
??$construct@UMONSTER_EVENT_TIME@@ABU1@@?$allocator@UMONSTER_EVENT_TIME@@@std@@QAEXPAUMONSTER_EVENT_TIME@@ABU2@@Z PROC ; std::allocator<MONSTER_EVENT_TIME>::construct<MONSTER_EVENT_TIME,MONSTER_EVENT_TIME const &>, COMDAT
; _this$ = ecx

; 654  : 		{	// construct _Objty(_Types...) at _Ptr

  00000	55		 push	 ebp
  00001	8b ec		 mov	 ebp, esp

; 655  : 		::new ((void *)_Ptr) _Objty(_STD forward<_Types>(_Args)...);

  00003	8b 55 08	 mov	 edx, DWORD PTR __Ptr$[ebp]
  00006	85 d2		 test	 edx, edx
  00008	74 0d		 je	 SHORT $LN3@construct
  0000a	8b 4d 0c	 mov	 ecx, DWORD PTR _<_Args_0>$[ebp]
  0000d	8b 01		 mov	 eax, DWORD PTR [ecx]
  0000f	89 02		 mov	 DWORD PTR [edx], eax
  00011	8b 41 04	 mov	 eax, DWORD PTR [ecx+4]
  00014	89 42 04	 mov	 DWORD PTR [edx+4], eax
$LN3@construct:

; 656  : 		}

  00017	5d		 pop	 ebp
  00018	c2 08 00	 ret	 8
??$construct@UMONSTER_EVENT_TIME@@ABU1@@?$allocator@UMONSTER_EVENT_TIME@@@std@@QAEXPAUMONSTER_EVENT_TIME@@ABU2@@Z ENDP ; std::allocator<MONSTER_EVENT_TIME>::construct<MONSTER_EVENT_TIME,MONSTER_EVENT_TIME const &>
_TEXT	ENDS
; Function compile flags: /Ogtp
; File c:\program files (x86)\microsoft visual studio 14.0\vc\include\xmemory0
;	COMDAT ??$construct@UMONSTER_EVENT_TIME@@AAU1@@?$allocator@UMONSTER_EVENT_TIME@@@std@@QAEXPAUMONSTER_EVENT_TIME@@AAU2@@Z
_TEXT	SEGMENT
__Ptr$ = 8						; size = 4
_<_Args_0>$ = 12					; size = 4
??$construct@UMONSTER_EVENT_TIME@@AAU1@@?$allocator@UMONSTER_EVENT_TIME@@@std@@QAEXPAUMONSTER_EVENT_TIME@@AAU2@@Z PROC ; std::allocator<MONSTER_EVENT_TIME>::construct<MONSTER_EVENT_TIME,MONSTER_EVENT_TIME &>, COMDAT
; _this$ = ecx

; 654  : 		{	// construct _Objty(_Types...) at _Ptr

  00000	55		 push	 ebp
  00001	8b ec		 mov	 ebp, esp

; 655  : 		::new ((void *)_Ptr) _Objty(_STD forward<_Types>(_Args)...);

  00003	8b 55 08	 mov	 edx, DWORD PTR __Ptr$[ebp]
  00006	85 d2		 test	 edx, edx
  00008	74 0d		 je	 SHORT $LN3@construct
  0000a	8b 4d 0c	 mov	 ecx, DWORD PTR _<_Args_0>$[ebp]
  0000d	8b 01		 mov	 eax, DWORD PTR [ecx]
  0000f	89 02		 mov	 DWORD PTR [edx], eax
  00011	8b 41 04	 mov	 eax, DWORD PTR [ecx+4]
  00014	89 42 04	 mov	 DWORD PTR [edx+4], eax
$LN3@construct:

; 656  : 		}

  00017	5d		 pop	 ebp
  00018	c2 08 00	 ret	 8
??$construct@UMONSTER_EVENT_TIME@@AAU1@@?$allocator@UMONSTER_EVENT_TIME@@@std@@QAEXPAUMONSTER_EVENT_TIME@@AAU2@@Z ENDP ; std::allocator<MONSTER_EVENT_TIME>::construct<MONSTER_EVENT_TIME,MONSTER_EVENT_TIME &>
_TEXT	ENDS
; Function compile flags: /Ogtp
; File c:\program files (x86)\microsoft visual studio 14.0\vc\include\type_traits
;	COMDAT ??$move@AAUMONSTER_EVENT_TIME@@@std@@YA$$QAUMONSTER_EVENT_TIME@@AAU1@@Z
_TEXT	SEGMENT
__Arg$ = 8						; size = 4
??$move@AAUMONSTER_EVENT_TIME@@@std@@YA$$QAUMONSTER_EVENT_TIME@@AAU1@@Z PROC ; std::move<MONSTER_EVENT_TIME &>, COMDAT

; 1249 : 	{	// forward _Arg as movable

  00000	55		 push	 ebp
  00001	8b ec		 mov	 ebp, esp

; 1250 : 	return (static_cast<typename remove_reference<_Ty>::type&&>(_Arg));

  00003	8b 45 08	 mov	 eax, DWORD PTR __Arg$[ebp]

; 1251 : 	}

  00006	5d		 pop	 ebp
  00007	c3		 ret	 0
??$move@AAUMONSTER_EVENT_TIME@@@std@@YA$$QAUMONSTER_EVENT_TIME@@AAU1@@Z ENDP ; std::move<MONSTER_EVENT_TIME &>
_TEXT	ENDS
; Function compile flags: /Ogtp
; File c:\program files (x86)\microsoft visual studio 14.0\vc\include\xmemory0
;	COMDAT ??$construct@UMONSTER_EVENT_DATA@@ABU1@@?$allocator@UMONSTER_EVENT_DATA@@@std@@QAEXPAUMONSTER_EVENT_DATA@@ABU2@@Z
_TEXT	SEGMENT
__Ptr$ = 8						; size = 4
_<_Args_0>$ = 12					; size = 4
??$construct@UMONSTER_EVENT_DATA@@ABU1@@?$allocator@UMONSTER_EVENT_DATA@@@std@@QAEXPAUMONSTER_EVENT_DATA@@ABU2@@Z PROC ; std::allocator<MONSTER_EVENT_DATA>::construct<MONSTER_EVENT_DATA,MONSTER_EVENT_DATA const &>, COMDAT
; _this$ = ecx

; 654  : 		{	// construct _Objty(_Types...) at _Ptr

  00000	55		 push	 ebp
  00001	8b ec		 mov	 ebp, esp

; 655  : 		::new ((void *)_Ptr) _Objty(_STD forward<_Types>(_Args)...);

  00003	8b 4d 08	 mov	 ecx, DWORD PTR __Ptr$[ebp]
  00006	85 c9		 test	 ecx, ecx
  00008	74 11		 je	 SHORT $LN3@construct
  0000a	8b 45 0c	 mov	 eax, DWORD PTR _<_Args_0>$[ebp]
  0000d	f3 0f 7e 00	 movq	 xmm0, QWORD PTR [eax]
  00011	66 0f d6 01	 movq	 QWORD PTR [ecx], xmm0
  00015	8b 40 08	 mov	 eax, DWORD PTR [eax+8]
  00018	89 41 08	 mov	 DWORD PTR [ecx+8], eax
$LN3@construct:

; 656  : 		}

  0001b	5d		 pop	 ebp
  0001c	c2 08 00	 ret	 8
??$construct@UMONSTER_EVENT_DATA@@ABU1@@?$allocator@UMONSTER_EVENT_DATA@@@std@@QAEXPAUMONSTER_EVENT_DATA@@ABU2@@Z ENDP ; std::allocator<MONSTER_EVENT_DATA>::construct<MONSTER_EVENT_DATA,MONSTER_EVENT_DATA const &>
_TEXT	ENDS
; Function compile flags: /Ogtp
; File c:\program files (x86)\microsoft visual studio 14.0\vc\include\xmemory0
;	COMDAT ??$construct@UMONSTER_EVENT_DATA@@AAU1@@?$allocator@UMONSTER_EVENT_DATA@@@std@@QAEXPAUMONSTER_EVENT_DATA@@AAU2@@Z
_TEXT	SEGMENT
__Ptr$ = 8						; size = 4
_<_Args_0>$ = 12					; size = 4
??$construct@UMONSTER_EVENT_DATA@@AAU1@@?$allocator@UMONSTER_EVENT_DATA@@@std@@QAEXPAUMONSTER_EVENT_DATA@@AAU2@@Z PROC ; std::allocator<MONSTER_EVENT_DATA>::construct<MONSTER_EVENT_DATA,MONSTER_EVENT_DATA &>, COMDAT
; _this$ = ecx

; 654  : 		{	// construct _Objty(_Types...) at _Ptr

  00000	55		 push	 ebp
  00001	8b ec		 mov	 ebp, esp

; 655  : 		::new ((void *)_Ptr) _Objty(_STD forward<_Types>(_Args)...);

  00003	8b 4d 08	 mov	 ecx, DWORD PTR __Ptr$[ebp]
  00006	85 c9		 test	 ecx, ecx
  00008	74 11		 je	 SHORT $LN3@construct
  0000a	8b 45 0c	 mov	 eax, DWORD PTR _<_Args_0>$[ebp]
  0000d	f3 0f 7e 00	 movq	 xmm0, QWORD PTR [eax]
  00011	66 0f d6 01	 movq	 QWORD PTR [ecx], xmm0
  00015	8b 40 08	 mov	 eax, DWORD PTR [eax+8]
  00018	89 41 08	 mov	 DWORD PTR [ecx+8], eax
$LN3@construct:

; 656  : 		}

  0001b	5d		 pop	 ebp
  0001c	c2 08 00	 ret	 8
??$construct@UMONSTER_EVENT_DATA@@AAU1@@?$allocator@UMONSTER_EVENT_DATA@@@std@@QAEXPAUMONSTER_EVENT_DATA@@AAU2@@Z ENDP ; std::allocator<MONSTER_EVENT_DATA>::construct<MONSTER_EVENT_DATA,MONSTER_EVENT_DATA &>
_TEXT	ENDS
; Function compile flags: /Ogtp
; File c:\program files (x86)\microsoft visual studio 14.0\vc\include\type_traits
;	COMDAT ??$move@AAUMONSTER_EVENT_DATA@@@std@@YA$$QAUMONSTER_EVENT_DATA@@AAU1@@Z
_TEXT	SEGMENT
__Arg$ = 8						; size = 4
??$move@AAUMONSTER_EVENT_DATA@@@std@@YA$$QAUMONSTER_EVENT_DATA@@AAU1@@Z PROC ; std::move<MONSTER_EVENT_DATA &>, COMDAT

; 1249 : 	{	// forward _Arg as movable

  00000	55		 push	 ebp
  00001	8b ec		 mov	 ebp, esp

; 1250 : 	return (static_cast<typename remove_reference<_Ty>::type&&>(_Arg));

  00003	8b 45 08	 mov	 eax, DWORD PTR __Arg$[ebp]

; 1251 : 	}

  00006	5d		 pop	 ebp
  00007	c3		 ret	 0
??$move@AAUMONSTER_EVENT_DATA@@@std@@YA$$QAUMONSTER_EVENT_DATA@@AAU1@@Z ENDP ; std::move<MONSTER_EVENT_DATA &>
_TEXT	ENDS
; Function compile flags: /Ogtp
; File c:\program files (x86)\microsoft visual studio 14.0\vc\include\xmemory0
;	COMDAT ??$construct@PAVCXMasMonsterHerd@@PAV1@@?$allocator@PAVCXMasMonsterHerd@@@std@@QAEXPAPAVCXMasMonsterHerd@@$$QAPAV2@@Z
_TEXT	SEGMENT
__Ptr$ = 8						; size = 4
_<_Args_0>$ = 12					; size = 4
??$construct@PAVCXMasMonsterHerd@@PAV1@@?$allocator@PAVCXMasMonsterHerd@@@std@@QAEXPAPAVCXMasMonsterHerd@@$$QAPAV2@@Z PROC ; std::allocator<CXMasMonsterHerd *>::construct<CXMasMonsterHerd *,CXMasMonsterHerd *>, COMDAT
; _this$ = ecx

; 654  : 		{	// construct _Objty(_Types...) at _Ptr

  00000	55		 push	 ebp
  00001	8b ec		 mov	 ebp, esp

; 655  : 		::new ((void *)_Ptr) _Objty(_STD forward<_Types>(_Args)...);

  00003	8b 4d 08	 mov	 ecx, DWORD PTR __Ptr$[ebp]
  00006	85 c9		 test	 ecx, ecx
  00008	74 07		 je	 SHORT $LN3@construct
  0000a	8b 45 0c	 mov	 eax, DWORD PTR _<_Args_0>$[ebp]
  0000d	8b 00		 mov	 eax, DWORD PTR [eax]
  0000f	89 01		 mov	 DWORD PTR [ecx], eax
$LN3@construct:

; 656  : 		}

  00011	5d		 pop	 ebp
  00012	c2 08 00	 ret	 8
??$construct@PAVCXMasMonsterHerd@@PAV1@@?$allocator@PAVCXMasMonsterHerd@@@std@@QAEXPAPAVCXMasMonsterHerd@@$$QAPAV2@@Z ENDP ; std::allocator<CXMasMonsterHerd *>::construct<CXMasMonsterHerd *,CXMasMonsterHerd *>
_TEXT	ENDS
; Function compile flags: /Ogtp
; File c:\program files (x86)\microsoft visual studio 14.0\vc\include\xmemory0
;	COMDAT ??$construct@UXMASMONSTER_MAP_DATA@@ABU1@@?$allocator@UXMASMONSTER_MAP_DATA@@@std@@QAEXPAUXMASMONSTER_MAP_DATA@@ABU2@@Z
_TEXT	SEGMENT
__Ptr$ = 8						; size = 4
_<_Args_0>$ = 12					; size = 4
??$construct@UXMASMONSTER_MAP_DATA@@ABU1@@?$allocator@UXMASMONSTER_MAP_DATA@@@std@@QAEXPAUXMASMONSTER_MAP_DATA@@ABU2@@Z PROC ; std::allocator<XMASMONSTER_MAP_DATA>::construct<XMASMONSTER_MAP_DATA,XMASMONSTER_MAP_DATA const &>, COMDAT
; _this$ = ecx

; 654  : 		{	// construct _Objty(_Types...) at _Ptr

  00000	55		 push	 ebp
  00001	8b ec		 mov	 ebp, esp

; 655  : 		::new ((void *)_Ptr) _Objty(_STD forward<_Types>(_Args)...);

  00003	8b 4d 08	 mov	 ecx, DWORD PTR __Ptr$[ebp]
  00006	85 c9		 test	 ecx, ecx
  00008	74 0f		 je	 SHORT $LN3@construct
  0000a	8b 45 0c	 mov	 eax, DWORD PTR _<_Args_0>$[ebp]
  0000d	0f 10 00	 movups	 xmm0, XMMWORD PTR [eax]
  00010	0f 11 01	 movups	 XMMWORD PTR [ecx], xmm0
  00013	8b 40 10	 mov	 eax, DWORD PTR [eax+16]
  00016	89 41 10	 mov	 DWORD PTR [ecx+16], eax
$LN3@construct:

; 656  : 		}

  00019	5d		 pop	 ebp
  0001a	c2 08 00	 ret	 8
??$construct@UXMASMONSTER_MAP_DATA@@ABU1@@?$allocator@UXMASMONSTER_MAP_DATA@@@std@@QAEXPAUXMASMONSTER_MAP_DATA@@ABU2@@Z ENDP ; std::allocator<XMASMONSTER_MAP_DATA>::construct<XMASMONSTER_MAP_DATA,XMASMONSTER_MAP_DATA const &>
_TEXT	ENDS
; Function compile flags: /Ogtp
; File c:\program files (x86)\microsoft visual studio 14.0\vc\include\xmemory0
;	COMDAT ??$construct@UXMASMONSTER_MAP_DATA@@AAU1@@?$allocator@UXMASMONSTER_MAP_DATA@@@std@@QAEXPAUXMASMONSTER_MAP_DATA@@AAU2@@Z
_TEXT	SEGMENT
__Ptr$ = 8						; size = 4
_<_Args_0>$ = 12					; size = 4
??$construct@UXMASMONSTER_MAP_DATA@@AAU1@@?$allocator@UXMASMONSTER_MAP_DATA@@@std@@QAEXPAUXMASMONSTER_MAP_DATA@@AAU2@@Z PROC ; std::allocator<XMASMONSTER_MAP_DATA>::construct<XMASMONSTER_MAP_DATA,XMASMONSTER_MAP_DATA &>, COMDAT
; _this$ = ecx

; 654  : 		{	// construct _Objty(_Types...) at _Ptr

  00000	55		 push	 ebp
  00001	8b ec		 mov	 ebp, esp

; 655  : 		::new ((void *)_Ptr) _Objty(_STD forward<_Types>(_Args)...);

  00003	8b 4d 08	 mov	 ecx, DWORD PTR __Ptr$[ebp]
  00006	85 c9		 test	 ecx, ecx
  00008	74 0f		 je	 SHORT $LN3@construct
  0000a	8b 45 0c	 mov	 eax, DWORD PTR _<_Args_0>$[ebp]
  0000d	0f 10 00	 movups	 xmm0, XMMWORD PTR [eax]
  00010	0f 11 01	 movups	 XMMWORD PTR [ecx], xmm0
  00013	8b 40 10	 mov	 eax, DWORD PTR [eax+16]
  00016	89 41 10	 mov	 DWORD PTR [ecx+16], eax
$LN3@construct:

; 656  : 		}

  00019	5d		 pop	 ebp
  0001a	c2 08 00	 ret	 8
??$construct@UXMASMONSTER_MAP_DATA@@AAU1@@?$allocator@UXMASMONSTER_MAP_DATA@@@std@@QAEXPAUXMASMONSTER_MAP_DATA@@AAU2@@Z ENDP ; std::allocator<XMASMONSTER_MAP_DATA>::construct<XMASMONSTER_MAP_DATA,XMASMONSTER_MAP_DATA &>
_TEXT	ENDS
; Function compile flags: /Ogtp
; File c:\program files (x86)\microsoft visual studio 14.0\vc\include\xmemory
;	COMDAT ??$_Uninitialized_move@PAUMONSTER_EVENT_TIME@@PAU1@U?$_Wrap_alloc@V?$allocator@UMONSTER_EVENT_TIME@@@std@@@std@@@std@@YAPAUMONSTER_EVENT_TIME@@PAU1@00AAU?$_Wrap_alloc@V?$allocator@UMONSTER_EVENT_TIME@@@std@@@0@@Z
_TEXT	SEGMENT
__First$ = 8						; size = 4
__Last$ = 12						; size = 4
__Cat$1 = 16						; size = 1
__Dest$ = 16						; size = 4
__Al$ = 20						; size = 4
??$_Uninitialized_move@PAUMONSTER_EVENT_TIME@@PAU1@U?$_Wrap_alloc@V?$allocator@UMONSTER_EVENT_TIME@@@std@@@std@@@std@@YAPAUMONSTER_EVENT_TIME@@PAU1@00AAU?$_Wrap_alloc@V?$allocator@UMONSTER_EVENT_TIME@@@std@@@0@@Z PROC ; std::_Uninitialized_move<MONSTER_EVENT_TIME *,MONSTER_EVENT_TIME *,std::_Wrap_alloc<std::allocator<MONSTER_EVENT_TIME> > >, COMDAT

; 490  : 	{	// move [_First, _Last) to raw _Dest, using _Al

  00000	55		 push	 ebp
  00001	8b ec		 mov	 ebp, esp

; 481  : 	return (_Uninit_move(_First, _Last, _Dest, _Al,

  00003	ff 75 10	 push	 DWORD PTR __Cat$1[ebp]
  00006	6a 00		 push	 0
  00008	ff 75 14	 push	 DWORD PTR __Al$[ebp]
  0000b	ff 75 10	 push	 DWORD PTR __Dest$[ebp]
  0000e	ff 75 0c	 push	 DWORD PTR __Last$[ebp]
  00011	ff 75 08	 push	 DWORD PTR __First$[ebp]
  00014	e8 00 00 00 00	 call	 ??$_Uninit_move@PAUMONSTER_EVENT_TIME@@PAU1@V?$allocator@UMONSTER_EVENT_TIME@@@std@@U1@@std@@YAPAUMONSTER_EVENT_TIME@@PAU1@00AAU?$_Wrap_alloc@V?$allocator@UMONSTER_EVENT_TIME@@@std@@@0@0U_Nonscalar_ptr_iterator_tag@0@@Z ; std::_Uninit_move<MONSTER_EVENT_TIME *,MONSTER_EVENT_TIME *,std::allocator<MONSTER_EVENT_TIME>,MONSTER_EVENT_TIME>
  00019	83 c4 18	 add	 esp, 24			; 00000018H

; 491  : 	return (_Rechecked(_Dest,
; 492  : 		_Uninit_move(_Unchecked(_First), _Unchecked(_Last),
; 493  : 			_Unchecked(_Dest), _Al)));
; 494  : 	}

  0001c	5d		 pop	 ebp
  0001d	c3		 ret	 0
??$_Uninitialized_move@PAUMONSTER_EVENT_TIME@@PAU1@U?$_Wrap_alloc@V?$allocator@UMONSTER_EVENT_TIME@@@std@@@std@@@std@@YAPAUMONSTER_EVENT_TIME@@PAU1@00AAU?$_Wrap_alloc@V?$allocator@UMONSTER_EVENT_TIME@@@std@@@0@@Z ENDP ; std::_Uninitialized_move<MONSTER_EVENT_TIME *,MONSTER_EVENT_TIME *,std::_Wrap_alloc<std::allocator<MONSTER_EVENT_TIME> > >
_TEXT	ENDS
; Function compile flags: /Ogtp
; File c:\program files (x86)\microsoft visual studio 14.0\vc\include\xmemory
;	COMDAT ??$_Uninitialized_move@PAUMONSTER_EVENT_DATA@@PAU1@U?$_Wrap_alloc@V?$allocator@UMONSTER_EVENT_DATA@@@std@@@std@@@std@@YAPAUMONSTER_EVENT_DATA@@PAU1@00AAU?$_Wrap_alloc@V?$allocator@UMONSTER_EVENT_DATA@@@std@@@0@@Z
_TEXT	SEGMENT
__First$ = 8						; size = 4
__Last$ = 12						; size = 4
__Cat$1 = 16						; size = 1
__Dest$ = 16						; size = 4
__Al$ = 20						; size = 4
??$_Uninitialized_move@PAUMONSTER_EVENT_DATA@@PAU1@U?$_Wrap_alloc@V?$allocator@UMONSTER_EVENT_DATA@@@std@@@std@@@std@@YAPAUMONSTER_EVENT_DATA@@PAU1@00AAU?$_Wrap_alloc@V?$allocator@UMONSTER_EVENT_DATA@@@std@@@0@@Z PROC ; std::_Uninitialized_move<MONSTER_EVENT_DATA *,MONSTER_EVENT_DATA *,std::_Wrap_alloc<std::allocator<MONSTER_EVENT_DATA> > >, COMDAT

; 490  : 	{	// move [_First, _Last) to raw _Dest, using _Al

  00000	55		 push	 ebp
  00001	8b ec		 mov	 ebp, esp

; 481  : 	return (_Uninit_move(_First, _Last, _Dest, _Al,

  00003	ff 75 10	 push	 DWORD PTR __Cat$1[ebp]
  00006	6a 00		 push	 0
  00008	ff 75 14	 push	 DWORD PTR __Al$[ebp]
  0000b	ff 75 10	 push	 DWORD PTR __Dest$[ebp]
  0000e	ff 75 0c	 push	 DWORD PTR __Last$[ebp]
  00011	ff 75 08	 push	 DWORD PTR __First$[ebp]
  00014	e8 00 00 00 00	 call	 ??$_Uninit_move@PAUMONSTER_EVENT_DATA@@PAU1@V?$allocator@UMONSTER_EVENT_DATA@@@std@@U1@@std@@YAPAUMONSTER_EVENT_DATA@@PAU1@00AAU?$_Wrap_alloc@V?$allocator@UMONSTER_EVENT_DATA@@@std@@@0@0U_Nonscalar_ptr_iterator_tag@0@@Z ; std::_Uninit_move<MONSTER_EVENT_DATA *,MONSTER_EVENT_DATA *,std::allocator<MONSTER_EVENT_DATA>,MONSTER_EVENT_DATA>
  00019	83 c4 18	 add	 esp, 24			; 00000018H

; 491  : 	return (_Rechecked(_Dest,
; 492  : 		_Uninit_move(_Unchecked(_First), _Unchecked(_Last),
; 493  : 			_Unchecked(_Dest), _Al)));
; 494  : 	}

  0001c	5d		 pop	 ebp
  0001d	c3		 ret	 0
??$_Uninitialized_move@PAUMONSTER_EVENT_DATA@@PAU1@U?$_Wrap_alloc@V?$allocator@UMONSTER_EVENT_DATA@@@std@@@std@@@std@@YAPAUMONSTER_EVENT_DATA@@PAU1@00AAU?$_Wrap_alloc@V?$allocator@UMONSTER_EVENT_DATA@@@std@@@0@@Z ENDP ; std::_Uninitialized_move<MONSTER_EVENT_DATA *,MONSTER_EVENT_DATA *,std::_Wrap_alloc<std::allocator<MONSTER_EVENT_DATA> > >
_TEXT	ENDS
; Function compile flags: /Ogtp
; File c:\program files (x86)\microsoft visual studio 14.0\vc\include\xmemory
;	COMDAT ??$_Uninitialized_move@PAPAVCXMasMonsterHerd@@PAPAV1@U?$_Wrap_alloc@V?$allocator@PAVCXMasMonsterHerd@@@std@@@std@@@std@@YAPAPAVCXMasMonsterHerd@@PAPAV1@00AAU?$_Wrap_alloc@V?$allocator@PAVCXMasMonsterHerd@@@std@@@0@@Z
_TEXT	SEGMENT
__First$ = 8						; size = 4
__Last$ = 12						; size = 4
__Dest$ = 16						; size = 4
__Al$ = 20						; size = 4
??$_Uninitialized_move@PAPAVCXMasMonsterHerd@@PAPAV1@U?$_Wrap_alloc@V?$allocator@PAVCXMasMonsterHerd@@@std@@@std@@@std@@YAPAPAVCXMasMonsterHerd@@PAPAV1@00AAU?$_Wrap_alloc@V?$allocator@PAVCXMasMonsterHerd@@@std@@@0@@Z PROC ; std::_Uninitialized_move<CXMasMonsterHerd * *,CXMasMonsterHerd * *,std::_Wrap_alloc<std::allocator<CXMasMonsterHerd *> > >, COMDAT

; 490  : 	{	// move [_First, _Last) to raw _Dest, using _Al

  00000	55		 push	 ebp
  00001	8b ec		 mov	 ebp, esp

; 470  : 	size_t _Count = (size_t)(_Last - _First);

  00003	8b 4d 08	 mov	 ecx, DWORD PTR __First$[ebp]
  00006	8b 45 0c	 mov	 eax, DWORD PTR __Last$[ebp]
  00009	2b c1		 sub	 eax, ecx
  0000b	c1 f8 02	 sar	 eax, 2
  0000e	56		 push	 esi

; 471  : 	return ((_Ty2 *)_CSTD memmove(&*_Dest, &*_First,

  0000f	8d 34 85 00 00
	00 00		 lea	 esi, DWORD PTR [eax*4]
  00016	56		 push	 esi
  00017	51		 push	 ecx
  00018	ff 75 10	 push	 DWORD PTR __Dest$[ebp]
  0001b	e8 00 00 00 00	 call	 _memmove
  00020	83 c4 0c	 add	 esp, 12			; 0000000cH
  00023	03 c6		 add	 eax, esi
  00025	5e		 pop	 esi

; 491  : 	return (_Rechecked(_Dest,
; 492  : 		_Uninit_move(_Unchecked(_First), _Unchecked(_Last),
; 493  : 			_Unchecked(_Dest), _Al)));
; 494  : 	}

  00026	5d		 pop	 ebp
  00027	c3		 ret	 0
??$_Uninitialized_move@PAPAVCXMasMonsterHerd@@PAPAV1@U?$_Wrap_alloc@V?$allocator@PAVCXMasMonsterHerd@@@std@@@std@@@std@@YAPAPAVCXMasMonsterHerd@@PAPAV1@00AAU?$_Wrap_alloc@V?$allocator@PAVCXMasMonsterHerd@@@std@@@0@@Z ENDP ; std::_Uninitialized_move<CXMasMonsterHerd * *,CXMasMonsterHerd * *,std::_Wrap_alloc<std::allocator<CXMasMonsterHerd *> > >
_TEXT	ENDS
; Function compile flags: /Ogtp
; File c:\program files (x86)\microsoft visual studio 14.0\vc\include\xmemory0
;	COMDAT ??$_Destroy_range@U?$_Wrap_alloc@V?$allocator@UXMASMONSTER_MAP_DATA@@@std@@@std@@@std@@YAXPAUXMASMONSTER_MAP_DATA@@0AAU?$_Wrap_alloc@V?$allocator@UXMASMONSTER_MAP_DATA@@@std@@@0@U_Nonscalar_ptr_iterator_tag@0@@Z
_TEXT	SEGMENT
__First$ = 8						; size = 4
__Last$ = 12						; size = 4
__Al$ = 16						; size = 4
___formal$ = 20						; size = 1
??$_Destroy_range@U?$_Wrap_alloc@V?$allocator@UXMASMONSTER_MAP_DATA@@@std@@@std@@@std@@YAXPAUXMASMONSTER_MAP_DATA@@0AAU?$_Wrap_alloc@V?$allocator@UXMASMONSTER_MAP_DATA@@@std@@@0@U_Nonscalar_ptr_iterator_tag@0@@Z PROC ; std::_Destroy_range<std::_Wrap_alloc<std::allocator<XMASMONSTER_MAP_DATA> > >, COMDAT

; 171  : 	for (; _First != _Last; ++_First)
; 172  : 		_Al.destroy(_STD addressof(*_First));
; 173  : 	}

  00000	c3		 ret	 0
??$_Destroy_range@U?$_Wrap_alloc@V?$allocator@UXMASMONSTER_MAP_DATA@@@std@@@std@@@std@@YAXPAUXMASMONSTER_MAP_DATA@@0AAU?$_Wrap_alloc@V?$allocator@UXMASMONSTER_MAP_DATA@@@std@@@0@U_Nonscalar_ptr_iterator_tag@0@@Z ENDP ; std::_Destroy_range<std::_Wrap_alloc<std::allocator<XMASMONSTER_MAP_DATA> > >
_TEXT	ENDS
; Function compile flags: /Ogtp
; File c:\program files (x86)\microsoft visual studio 14.0\vc\include\xutility
;	COMDAT ??$_Ptr_cat@UXMASMONSTER_MAP_DATA@@U1@@std@@YA?AU_Nonscalar_ptr_iterator_tag@0@PAUXMASMONSTER_MAP_DATA@@0@Z
_TEXT	SEGMENT
__Cat$ = -1						; size = 1
___formal$ = 8						; size = 4
___formal$ = 12						; size = 4
??$_Ptr_cat@UXMASMONSTER_MAP_DATA@@U1@@std@@YA?AU_Nonscalar_ptr_iterator_tag@0@PAUXMASMONSTER_MAP_DATA@@0@Z PROC ; std::_Ptr_cat<XMASMONSTER_MAP_DATA,XMASMONSTER_MAP_DATA>, COMDAT

; 640  : 	{	// return pointer category from pointers

  00000	55		 push	 ebp
  00001	8b ec		 mov	 ebp, esp
  00003	51		 push	 ecx

; 641  : 	typename _Ptr_cat_helper<_Elem1, _Elem2>::type _Cat;
; 642  : 	return (_Cat);

  00004	8a 45 ff	 mov	 al, BYTE PTR __Cat$[ebp]

; 643  : 	}

  00007	8b e5		 mov	 esp, ebp
  00009	5d		 pop	 ebp
  0000a	c3		 ret	 0
??$_Ptr_cat@UXMASMONSTER_MAP_DATA@@U1@@std@@YA?AU_Nonscalar_ptr_iterator_tag@0@PAUXMASMONSTER_MAP_DATA@@0@Z ENDP ; std::_Ptr_cat<XMASMONSTER_MAP_DATA,XMASMONSTER_MAP_DATA>
_TEXT	ENDS
; Function compile flags: /Ogtp
; File c:\program files (x86)\microsoft visual studio 14.0\vc\include\xmemory
;	COMDAT ??$_Uninitialized_move@PAUXMASMONSTER_MAP_DATA@@PAU1@U?$_Wrap_alloc@V?$allocator@UXMASMONSTER_MAP_DATA@@@std@@@std@@@std@@YAPAUXMASMONSTER_MAP_DATA@@PAU1@00AAU?$_Wrap_alloc@V?$allocator@UXMASMONSTER_MAP_DATA@@@std@@@0@@Z
_TEXT	SEGMENT
__First$ = 8						; size = 4
__Last$ = 12						; size = 4
__Cat$1 = 16						; size = 1
__Dest$ = 16						; size = 4
__Al$ = 20						; size = 4
??$_Uninitialized_move@PAUXMASMONSTER_MAP_DATA@@PAU1@U?$_Wrap_alloc@V?$allocator@UXMASMONSTER_MAP_DATA@@@std@@@std@@@std@@YAPAUXMASMONSTER_MAP_DATA@@PAU1@00AAU?$_Wrap_alloc@V?$allocator@UXMASMONSTER_MAP_DATA@@@std@@@0@@Z PROC ; std::_Uninitialized_move<XMASMONSTER_MAP_DATA *,XMASMONSTER_MAP_DATA *,std::_Wrap_alloc<std::allocator<XMASMONSTER_MAP_DATA> > >, COMDAT

; 490  : 	{	// move [_First, _Last) to raw _Dest, using _Al

  00000	55		 push	 ebp
  00001	8b ec		 mov	 ebp, esp

; 481  : 	return (_Uninit_move(_First, _Last, _Dest, _Al,

  00003	ff 75 10	 push	 DWORD PTR __Cat$1[ebp]
  00006	6a 00		 push	 0
  00008	ff 75 14	 push	 DWORD PTR __Al$[ebp]
  0000b	ff 75 10	 push	 DWORD PTR __Dest$[ebp]
  0000e	ff 75 0c	 push	 DWORD PTR __Last$[ebp]
  00011	ff 75 08	 push	 DWORD PTR __First$[ebp]
  00014	e8 00 00 00 00	 call	 ??$_Uninit_move@PAUXMASMONSTER_MAP_DATA@@PAU1@V?$allocator@UXMASMONSTER_MAP_DATA@@@std@@U1@@std@@YAPAUXMASMONSTER_MAP_DATA@@PAU1@00AAU?$_Wrap_alloc@V?$allocator@UXMASMONSTER_MAP_DATA@@@std@@@0@0U_Nonscalar_ptr_iterator_tag@0@@Z ; std::_Uninit_move<XMASMONSTER_MAP_DATA *,XMASMONSTER_MAP_DATA *,std::allocator<XMASMONSTER_MAP_DATA>,XMASMONSTER_MAP_DATA>
  00019	83 c4 18	 add	 esp, 24			; 00000018H

; 491  : 	return (_Rechecked(_Dest,
; 492  : 		_Uninit_move(_Unchecked(_First), _Unchecked(_Last),
; 493  : 			_Unchecked(_Dest), _Al)));
; 494  : 	}

  0001c	5d		 pop	 ebp
  0001d	c3		 ret	 0
??$_Uninitialized_move@PAUXMASMONSTER_MAP_DATA@@PAU1@U?$_Wrap_alloc@V?$allocator@UXMASMONSTER_MAP_DATA@@@std@@@std@@@std@@YAPAUXMASMONSTER_MAP_DATA@@PAU1@00AAU?$_Wrap_alloc@V?$allocator@UXMASMONSTER_MAP_DATA@@@std@@@0@@Z ENDP ; std::_Uninitialized_move<XMASMONSTER_MAP_DATA *,XMASMONSTER_MAP_DATA *,std::_Wrap_alloc<std::allocator<XMASMONSTER_MAP_DATA> > >
_TEXT	ENDS
; Function compile flags: /Ogtp
; File c:\program files (x86)\microsoft visual studio 14.0\vc\include\xmemory0
;	COMDAT ??$_Destroy_range@U?$_Wrap_alloc@V?$allocator@UMONSTER_EVENT_TIME@@@std@@@std@@@std@@YAXPAUMONSTER_EVENT_TIME@@0AAU?$_Wrap_alloc@V?$allocator@UMONSTER_EVENT_TIME@@@std@@@0@U_Nonscalar_ptr_iterator_tag@0@@Z
_TEXT	SEGMENT
__First$ = 8						; size = 4
__Last$ = 12						; size = 4
__Al$ = 16						; size = 4
___formal$ = 20						; size = 1
??$_Destroy_range@U?$_Wrap_alloc@V?$allocator@UMONSTER_EVENT_TIME@@@std@@@std@@@std@@YAXPAUMONSTER_EVENT_TIME@@0AAU?$_Wrap_alloc@V?$allocator@UMONSTER_EVENT_TIME@@@std@@@0@U_Nonscalar_ptr_iterator_tag@0@@Z PROC ; std::_Destroy_range<std::_Wrap_alloc<std::allocator<MONSTER_EVENT_TIME> > >, COMDAT

; 171  : 	for (; _First != _Last; ++_First)
; 172  : 		_Al.destroy(_STD addressof(*_First));
; 173  : 	}

  00000	c3		 ret	 0
??$_Destroy_range@U?$_Wrap_alloc@V?$allocator@UMONSTER_EVENT_TIME@@@std@@@std@@@std@@YAXPAUMONSTER_EVENT_TIME@@0AAU?$_Wrap_alloc@V?$allocator@UMONSTER_EVENT_TIME@@@std@@@0@U_Nonscalar_ptr_iterator_tag@0@@Z ENDP ; std::_Destroy_range<std::_Wrap_alloc<std::allocator<MONSTER_EVENT_TIME> > >
_TEXT	ENDS
; Function compile flags: /Ogtp
; File c:\program files (x86)\microsoft visual studio 14.0\vc\include\type_traits
;	COMDAT ??$forward@ABV?$allocator@UMONSTER_EVENT_TIME@@@std@@@std@@YAABV?$allocator@UMONSTER_EVENT_TIME@@@0@ABV10@@Z
_TEXT	SEGMENT
__Arg$ = 8						; size = 4
??$forward@ABV?$allocator@UMONSTER_EVENT_TIME@@@std@@@std@@YAABV?$allocator@UMONSTER_EVENT_TIME@@@0@ABV10@@Z PROC ; std::forward<std::allocator<MONSTER_EVENT_TIME> const &>, COMDAT

; 1233 : 	{	// forward an lvalue as either an lvalue or an rvalue

  00000	55		 push	 ebp
  00001	8b ec		 mov	 ebp, esp

; 1234 : 	return (static_cast<_Ty&&>(_Arg));

  00003	8b 45 08	 mov	 eax, DWORD PTR __Arg$[ebp]

; 1235 : 	}

  00006	5d		 pop	 ebp
  00007	c3		 ret	 0
??$forward@ABV?$allocator@UMONSTER_EVENT_TIME@@@std@@@std@@YAABV?$allocator@UMONSTER_EVENT_TIME@@@0@ABV10@@Z ENDP ; std::forward<std::allocator<MONSTER_EVENT_TIME> const &>
_TEXT	ENDS
; Function compile flags: /Ogtp
; File c:\program files (x86)\microsoft visual studio 14.0\vc\include\xmemory0
;	COMDAT ??$_Destroy_range@U?$_Wrap_alloc@V?$allocator@UMONSTER_EVENT_DATA@@@std@@@std@@@std@@YAXPAUMONSTER_EVENT_DATA@@0AAU?$_Wrap_alloc@V?$allocator@UMONSTER_EVENT_DATA@@@std@@@0@U_Nonscalar_ptr_iterator_tag@0@@Z
_TEXT	SEGMENT
__First$ = 8						; size = 4
__Last$ = 12						; size = 4
__Al$ = 16						; size = 4
___formal$ = 20						; size = 1
??$_Destroy_range@U?$_Wrap_alloc@V?$allocator@UMONSTER_EVENT_DATA@@@std@@@std@@@std@@YAXPAUMONSTER_EVENT_DATA@@0AAU?$_Wrap_alloc@V?$allocator@UMONSTER_EVENT_DATA@@@std@@@0@U_Nonscalar_ptr_iterator_tag@0@@Z PROC ; std::_Destroy_range<std::_Wrap_alloc<std::allocator<MONSTER_EVENT_DATA> > >, COMDAT

; 171  : 	for (; _First != _Last; ++_First)
; 172  : 		_Al.destroy(_STD addressof(*_First));
; 173  : 	}

  00000	c3		 ret	 0
??$_Destroy_range@U?$_Wrap_alloc@V?$allocator@UMONSTER_EVENT_DATA@@@std@@@std@@@std@@YAXPAUMONSTER_EVENT_DATA@@0AAU?$_Wrap_alloc@V?$allocator@UMONSTER_EVENT_DATA@@@std@@@0@U_Nonscalar_ptr_iterator_tag@0@@Z ENDP ; std::_Destroy_range<std::_Wrap_alloc<std::allocator<MONSTER_EVENT_DATA> > >
_TEXT	ENDS
; Function compile flags: /Ogtp
; File c:\program files (x86)\microsoft visual studio 14.0\vc\include\type_traits
;	COMDAT ??$forward@ABV?$allocator@UMONSTER_EVENT_DATA@@@std@@@std@@YAABV?$allocator@UMONSTER_EVENT_DATA@@@0@ABV10@@Z
_TEXT	SEGMENT
__Arg$ = 8						; size = 4
??$forward@ABV?$allocator@UMONSTER_EVENT_DATA@@@std@@@std@@YAABV?$allocator@UMONSTER_EVENT_DATA@@@0@ABV10@@Z PROC ; std::forward<std::allocator<MONSTER_EVENT_DATA> const &>, COMDAT

; 1233 : 	{	// forward an lvalue as either an lvalue or an rvalue

  00000	55		 push	 ebp
  00001	8b ec		 mov	 ebp, esp

; 1234 : 	return (static_cast<_Ty&&>(_Arg));

  00003	8b 45 08	 mov	 eax, DWORD PTR __Arg$[ebp]

; 1235 : 	}

  00006	5d		 pop	 ebp
  00007	c3		 ret	 0
??$forward@ABV?$allocator@UMONSTER_EVENT_DATA@@@std@@@std@@YAABV?$allocator@UMONSTER_EVENT_DATA@@@0@ABV10@@Z ENDP ; std::forward<std::allocator<MONSTER_EVENT_DATA> const &>
_TEXT	ENDS
; Function compile flags: /Ogtp
; File c:\program files (x86)\microsoft visual studio 14.0\vc\include\xmemory0
;	COMDAT ??$_Destroy_range@U?$_Wrap_alloc@V?$allocator@PAVCXMasMonsterHerd@@@std@@@std@@@std@@YAXPAPAVCXMasMonsterHerd@@0AAU?$_Wrap_alloc@V?$allocator@PAVCXMasMonsterHerd@@@std@@@0@U_Scalar_ptr_iterator_tag@0@@Z
_TEXT	SEGMENT
__First$ = 8						; size = 4
__Last$ = 12						; size = 4
__Al$ = 16						; size = 4
___formal$ = 20						; size = 1
??$_Destroy_range@U?$_Wrap_alloc@V?$allocator@PAVCXMasMonsterHerd@@@std@@@std@@@std@@YAXPAPAVCXMasMonsterHerd@@0AAU?$_Wrap_alloc@V?$allocator@PAVCXMasMonsterHerd@@@std@@@0@U_Scalar_ptr_iterator_tag@0@@Z PROC ; std::_Destroy_range<std::_Wrap_alloc<std::allocator<CXMasMonsterHerd *> > >, COMDAT

; 180  : 	}

  00000	c3		 ret	 0
??$_Destroy_range@U?$_Wrap_alloc@V?$allocator@PAVCXMasMonsterHerd@@@std@@@std@@@std@@YAXPAPAVCXMasMonsterHerd@@0AAU?$_Wrap_alloc@V?$allocator@PAVCXMasMonsterHerd@@@std@@@0@U_Scalar_ptr_iterator_tag@0@@Z ENDP ; std::_Destroy_range<std::_Wrap_alloc<std::allocator<CXMasMonsterHerd *> > >
_TEXT	ENDS
; Function compile flags: /Ogtp
; File c:\program files (x86)\microsoft visual studio 14.0\vc\include\type_traits
;	COMDAT ??$forward@ABV?$allocator@PAVCXMasMonsterHerd@@@std@@@std@@YAABV?$allocator@PAVCXMasMonsterHerd@@@0@ABV10@@Z
_TEXT	SEGMENT
__Arg$ = 8						; size = 4
??$forward@ABV?$allocator@PAVCXMasMonsterHerd@@@std@@@std@@YAABV?$allocator@PAVCXMasMonsterHerd@@@0@ABV10@@Z PROC ; std::forward<std::allocator<CXMasMonsterHerd *> const &>, COMDAT

; 1233 : 	{	// forward an lvalue as either an lvalue or an rvalue

  00000	55		 push	 ebp
  00001	8b ec		 mov	 ebp, esp

; 1234 : 	return (static_cast<_Ty&&>(_Arg));

  00003	8b 45 08	 mov	 eax, DWORD PTR __Arg$[ebp]

; 1235 : 	}

  00006	5d		 pop	 ebp
  00007	c3		 ret	 0
??$forward@ABV?$allocator@PAVCXMasMonsterHerd@@@std@@@std@@YAABV?$allocator@PAVCXMasMonsterHerd@@@0@ABV10@@Z ENDP ; std::forward<std::allocator<CXMasMonsterHerd *> const &>
_TEXT	ENDS
; Function compile flags: /Ogtp
; File c:\program files (x86)\microsoft visual studio 14.0\vc\include\type_traits
;	COMDAT ??$forward@ABV?$allocator@UXMASMONSTER_MAP_DATA@@@std@@@std@@YAABV?$allocator@UXMASMONSTER_MAP_DATA@@@0@ABV10@@Z
_TEXT	SEGMENT
__Arg$ = 8						; size = 4
??$forward@ABV?$allocator@UXMASMONSTER_MAP_DATA@@@std@@@std@@YAABV?$allocator@UXMASMONSTER_MAP_DATA@@@0@ABV10@@Z PROC ; std::forward<std::allocator<XMASMONSTER_MAP_DATA> const &>, COMDAT

; 1233 : 	{	// forward an lvalue as either an lvalue or an rvalue

  00000	55		 push	 ebp
  00001	8b ec		 mov	 ebp, esp

; 1234 : 	return (static_cast<_Ty&&>(_Arg));

  00003	8b 45 08	 mov	 eax, DWORD PTR __Arg$[ebp]

; 1235 : 	}

  00006	5d		 pop	 ebp
  00007	c3		 ret	 0
??$forward@ABV?$allocator@UXMASMONSTER_MAP_DATA@@@std@@@std@@YAABV?$allocator@UXMASMONSTER_MAP_DATA@@@0@ABV10@@Z ENDP ; std::forward<std::allocator<XMASMONSTER_MAP_DATA> const &>
_TEXT	ENDS
; Function compile flags: /Ogtp
; File c:\program files (x86)\microsoft visual studio 14.0\vc\include\xmemory0
;	COMDAT ??$construct@UMONSTER_EVENT_TIME@@ABU1@@?$allocator_traits@V?$allocator@UMONSTER_EVENT_TIME@@@std@@@std@@SAXAAV?$allocator@UMONSTER_EVENT_TIME@@@1@PAUMONSTER_EVENT_TIME@@ABU3@@Z
_TEXT	SEGMENT
__Al$ = 8						; size = 4
__Ptr$ = 12						; size = 4
_<_Args_0>$ = 16					; size = 4
??$construct@UMONSTER_EVENT_TIME@@ABU1@@?$allocator_traits@V?$allocator@UMONSTER_EVENT_TIME@@@std@@@std@@SAXAAV?$allocator@UMONSTER_EVENT_TIME@@@1@PAUMONSTER_EVENT_TIME@@ABU3@@Z PROC ; std::allocator_traits<std::allocator<MONSTER_EVENT_TIME> >::construct<MONSTER_EVENT_TIME,MONSTER_EVENT_TIME const &>, COMDAT

; 772  : 		{	// construct _Objty(_Types...) at _Ptr

  00000	55		 push	 ebp
  00001	8b ec		 mov	 ebp, esp

; 655  : 		::new ((void *)_Ptr) _Objty(_STD forward<_Types>(_Args)...);

  00003	8b 55 0c	 mov	 edx, DWORD PTR __Ptr$[ebp]
  00006	85 d2		 test	 edx, edx
  00008	74 0d		 je	 SHORT $LN8@construct
  0000a	8b 4d 10	 mov	 ecx, DWORD PTR _<_Args_0>$[ebp]
  0000d	8b 01		 mov	 eax, DWORD PTR [ecx]
  0000f	89 02		 mov	 DWORD PTR [edx], eax
  00011	8b 41 04	 mov	 eax, DWORD PTR [ecx+4]
  00014	89 42 04	 mov	 DWORD PTR [edx+4], eax
$LN8@construct:

; 773  : 		_Al.construct(_Ptr, _STD forward<_Types>(_Args)...);
; 774  : 		}

  00017	5d		 pop	 ebp
  00018	c3		 ret	 0
??$construct@UMONSTER_EVENT_TIME@@ABU1@@?$allocator_traits@V?$allocator@UMONSTER_EVENT_TIME@@@std@@@std@@SAXAAV?$allocator@UMONSTER_EVENT_TIME@@@1@PAUMONSTER_EVENT_TIME@@ABU3@@Z ENDP ; std::allocator_traits<std::allocator<MONSTER_EVENT_TIME> >::construct<MONSTER_EVENT_TIME,MONSTER_EVENT_TIME const &>
_TEXT	ENDS
; Function compile flags: /Ogtp
; File c:\program files (x86)\microsoft visual studio 14.0\vc\include\type_traits
;	COMDAT ??$forward@ABUMONSTER_EVENT_TIME@@@std@@YAABUMONSTER_EVENT_TIME@@ABU1@@Z
_TEXT	SEGMENT
__Arg$ = 8						; size = 4
??$forward@ABUMONSTER_EVENT_TIME@@@std@@YAABUMONSTER_EVENT_TIME@@ABU1@@Z PROC ; std::forward<MONSTER_EVENT_TIME const &>, COMDAT

; 1233 : 	{	// forward an lvalue as either an lvalue or an rvalue

  00000	55		 push	 ebp
  00001	8b ec		 mov	 ebp, esp

; 1234 : 	return (static_cast<_Ty&&>(_Arg));

  00003	8b 45 08	 mov	 eax, DWORD PTR __Arg$[ebp]

; 1235 : 	}

  00006	5d		 pop	 ebp
  00007	c3		 ret	 0
??$forward@ABUMONSTER_EVENT_TIME@@@std@@YAABUMONSTER_EVENT_TIME@@ABU1@@Z ENDP ; std::forward<MONSTER_EVENT_TIME const &>
_TEXT	ENDS
; Function compile flags: /Ogtp
; File c:\program files (x86)\microsoft visual studio 14.0\vc\include\xmemory0
;	COMDAT ??$construct@UMONSTER_EVENT_TIME@@AAU1@@?$allocator_traits@V?$allocator@UMONSTER_EVENT_TIME@@@std@@@std@@SAXAAV?$allocator@UMONSTER_EVENT_TIME@@@1@PAUMONSTER_EVENT_TIME@@AAU3@@Z
_TEXT	SEGMENT
__Al$ = 8						; size = 4
__Ptr$ = 12						; size = 4
_<_Args_0>$ = 16					; size = 4
??$construct@UMONSTER_EVENT_TIME@@AAU1@@?$allocator_traits@V?$allocator@UMONSTER_EVENT_TIME@@@std@@@std@@SAXAAV?$allocator@UMONSTER_EVENT_TIME@@@1@PAUMONSTER_EVENT_TIME@@AAU3@@Z PROC ; std::allocator_traits<std::allocator<MONSTER_EVENT_TIME> >::construct<MONSTER_EVENT_TIME,MONSTER_EVENT_TIME &>, COMDAT

; 772  : 		{	// construct _Objty(_Types...) at _Ptr

  00000	55		 push	 ebp
  00001	8b ec		 mov	 ebp, esp

; 655  : 		::new ((void *)_Ptr) _Objty(_STD forward<_Types>(_Args)...);

  00003	8b 55 0c	 mov	 edx, DWORD PTR __Ptr$[ebp]
  00006	85 d2		 test	 edx, edx
  00008	74 0d		 je	 SHORT $LN8@construct
  0000a	8b 4d 10	 mov	 ecx, DWORD PTR _<_Args_0>$[ebp]
  0000d	8b 01		 mov	 eax, DWORD PTR [ecx]
  0000f	89 02		 mov	 DWORD PTR [edx], eax
  00011	8b 41 04	 mov	 eax, DWORD PTR [ecx+4]
  00014	89 42 04	 mov	 DWORD PTR [edx+4], eax
$LN8@construct:

; 773  : 		_Al.construct(_Ptr, _STD forward<_Types>(_Args)...);
; 774  : 		}

  00017	5d		 pop	 ebp
  00018	c3		 ret	 0
??$construct@UMONSTER_EVENT_TIME@@AAU1@@?$allocator_traits@V?$allocator@UMONSTER_EVENT_TIME@@@std@@@std@@SAXAAV?$allocator@UMONSTER_EVENT_TIME@@@1@PAUMONSTER_EVENT_TIME@@AAU3@@Z ENDP ; std::allocator_traits<std::allocator<MONSTER_EVENT_TIME> >::construct<MONSTER_EVENT_TIME,MONSTER_EVENT_TIME &>
_TEXT	ENDS
; Function compile flags: /Ogtp
; File c:\program files (x86)\microsoft visual studio 14.0\vc\include\type_traits
;	COMDAT ??$forward@AAUMONSTER_EVENT_TIME@@@std@@YAAAUMONSTER_EVENT_TIME@@AAU1@@Z
_TEXT	SEGMENT
__Arg$ = 8						; size = 4
??$forward@AAUMONSTER_EVENT_TIME@@@std@@YAAAUMONSTER_EVENT_TIME@@AAU1@@Z PROC ; std::forward<MONSTER_EVENT_TIME &>, COMDAT

; 1233 : 	{	// forward an lvalue as either an lvalue or an rvalue

  00000	55		 push	 ebp
  00001	8b ec		 mov	 ebp, esp

; 1234 : 	return (static_cast<_Ty&&>(_Arg));

  00003	8b 45 08	 mov	 eax, DWORD PTR __Arg$[ebp]

; 1235 : 	}

  00006	5d		 pop	 ebp
  00007	c3		 ret	 0
??$forward@AAUMONSTER_EVENT_TIME@@@std@@YAAAUMONSTER_EVENT_TIME@@AAU1@@Z ENDP ; std::forward<MONSTER_EVENT_TIME &>
_TEXT	ENDS
; Function compile flags: /Ogtp
; File c:\program files (x86)\microsoft visual studio 14.0\vc\include\xstddef
;	COMDAT ??$_Addressof@$$CBUMONSTER_EVENT_TIME@@@std@@YAPBUMONSTER_EVENT_TIME@@ABU1@U?$integral_constant@_N$0A@@0@@Z
_TEXT	SEGMENT
__Val$ = 8						; size = 4
___formal$ = 12						; size = 1
??$_Addressof@$$CBUMONSTER_EVENT_TIME@@@std@@YAPBUMONSTER_EVENT_TIME@@ABU1@U?$integral_constant@_N$0A@@0@@Z PROC ; std::_Addressof<MONSTER_EVENT_TIME const >, COMDAT

; 688  : 	{	// return address of object _Val

  00000	55		 push	 ebp
  00001	8b ec		 mov	 ebp, esp

; 689  : 	return (reinterpret_cast<_Ty *>(

  00003	8b 45 08	 mov	 eax, DWORD PTR __Val$[ebp]

; 690  : 		&const_cast<char&>(
; 691  : 		reinterpret_cast<const volatile char&>(_Val))));
; 692  : 	}

  00006	5d		 pop	 ebp
  00007	c3		 ret	 0
??$_Addressof@$$CBUMONSTER_EVENT_TIME@@@std@@YAPBUMONSTER_EVENT_TIME@@ABU1@U?$integral_constant@_N$0A@@0@@Z ENDP ; std::_Addressof<MONSTER_EVENT_TIME const >
_TEXT	ENDS
; Function compile flags: /Ogtp
; File c:\program files (x86)\microsoft visual studio 14.0\vc\include\xutility
;	COMDAT ??$_Move@PAUMONSTER_EVENT_TIME@@PAU1@@std@@YAPAUMONSTER_EVENT_TIME@@PAU1@00U_Nonscalar_ptr_iterator_tag@0@@Z
_TEXT	SEGMENT
__First$ = 8						; size = 4
__Last$ = 12						; size = 4
__Dest$ = 16						; size = 4
___formal$ = 20						; size = 1
??$_Move@PAUMONSTER_EVENT_TIME@@PAU1@@std@@YAPAUMONSTER_EVENT_TIME@@PAU1@00U_Nonscalar_ptr_iterator_tag@0@@Z PROC ; std::_Move<MONSTER_EVENT_TIME *,MONSTER_EVENT_TIME *>, COMDAT

; 2516 : 	{	// move [_First, _Last) to [_Dest, ...), arbitrary iterators

  00000	55		 push	 ebp
  00001	8b ec		 mov	 ebp, esp

; 2517 : 	for (; _First != _Last; ++_Dest, (void)++_First)

  00003	8b 4d 08	 mov	 ecx, DWORD PTR __First$[ebp]
  00006	8b 45 10	 mov	 eax, DWORD PTR __Dest$[ebp]
  00009	56		 push	 esi
  0000a	8b 75 0c	 mov	 esi, DWORD PTR __Last$[ebp]
  0000d	3b ce		 cmp	 ecx, esi
  0000f	74 14		 je	 SHORT $LN3@Move
$LL4@Move:

; 2518 : 		*_Dest = _STD move(*_First);

  00011	8b 11		 mov	 edx, DWORD PTR [ecx]
  00013	89 10		 mov	 DWORD PTR [eax], edx
  00015	8b 51 04	 mov	 edx, DWORD PTR [ecx+4]
  00018	83 c1 08	 add	 ecx, 8
  0001b	89 50 04	 mov	 DWORD PTR [eax+4], edx
  0001e	83 c0 08	 add	 eax, 8
  00021	3b ce		 cmp	 ecx, esi
  00023	75 ec		 jne	 SHORT $LL4@Move
$LN3@Move:
  00025	5e		 pop	 esi

; 2519 : 	return (_Dest);
; 2520 : 	}

  00026	5d		 pop	 ebp
  00027	c3		 ret	 0
??$_Move@PAUMONSTER_EVENT_TIME@@PAU1@@std@@YAPAUMONSTER_EVENT_TIME@@PAU1@00U_Nonscalar_ptr_iterator_tag@0@@Z ENDP ; std::_Move<MONSTER_EVENT_TIME *,MONSTER_EVENT_TIME *>
_TEXT	ENDS
; Function compile flags: /Ogtp
; File c:\program files (x86)\microsoft visual studio 14.0\vc\include\xutility
;	COMDAT ??$_Ptr_cat@UMONSTER_EVENT_TIME@@U1@@std@@YA?AU_Nonscalar_ptr_iterator_tag@0@PAUMONSTER_EVENT_TIME@@0@Z
_TEXT	SEGMENT
__Cat$ = -1						; size = 1
___formal$ = 8						; size = 4
___formal$ = 12						; size = 4
??$_Ptr_cat@UMONSTER_EVENT_TIME@@U1@@std@@YA?AU_Nonscalar_ptr_iterator_tag@0@PAUMONSTER_EVENT_TIME@@0@Z PROC ; std::_Ptr_cat<MONSTER_EVENT_TIME,MONSTER_EVENT_TIME>, COMDAT

; 640  : 	{	// return pointer category from pointers

  00000	55		 push	 ebp
  00001	8b ec		 mov	 ebp, esp
  00003	51		 push	 ecx

; 641  : 	typename _Ptr_cat_helper<_Elem1, _Elem2>::type _Cat;
; 642  : 	return (_Cat);

  00004	8a 45 ff	 mov	 al, BYTE PTR __Cat$[ebp]

; 643  : 	}

  00007	8b e5		 mov	 esp, ebp
  00009	5d		 pop	 ebp
  0000a	c3		 ret	 0
??$_Ptr_cat@UMONSTER_EVENT_TIME@@U1@@std@@YA?AU_Nonscalar_ptr_iterator_tag@0@PAUMONSTER_EVENT_TIME@@0@Z ENDP ; std::_Ptr_cat<MONSTER_EVENT_TIME,MONSTER_EVENT_TIME>
_TEXT	ENDS
; Function compile flags: /Ogtp
; File c:\program files (x86)\microsoft visual studio 14.0\vc\include\xmemory0
;	COMDAT ??$construct@UMONSTER_EVENT_DATA@@ABU1@@?$allocator_traits@V?$allocator@UMONSTER_EVENT_DATA@@@std@@@std@@SAXAAV?$allocator@UMONSTER_EVENT_DATA@@@1@PAUMONSTER_EVENT_DATA@@ABU3@@Z
_TEXT	SEGMENT
__Al$ = 8						; size = 4
__Ptr$ = 12						; size = 4
_<_Args_0>$ = 16					; size = 4
??$construct@UMONSTER_EVENT_DATA@@ABU1@@?$allocator_traits@V?$allocator@UMONSTER_EVENT_DATA@@@std@@@std@@SAXAAV?$allocator@UMONSTER_EVENT_DATA@@@1@PAUMONSTER_EVENT_DATA@@ABU3@@Z PROC ; std::allocator_traits<std::allocator<MONSTER_EVENT_DATA> >::construct<MONSTER_EVENT_DATA,MONSTER_EVENT_DATA const &>, COMDAT

; 772  : 		{	// construct _Objty(_Types...) at _Ptr

  00000	55		 push	 ebp
  00001	8b ec		 mov	 ebp, esp

; 655  : 		::new ((void *)_Ptr) _Objty(_STD forward<_Types>(_Args)...);

  00003	8b 4d 0c	 mov	 ecx, DWORD PTR __Ptr$[ebp]
  00006	85 c9		 test	 ecx, ecx
  00008	74 11		 je	 SHORT $LN8@construct
  0000a	8b 45 10	 mov	 eax, DWORD PTR _<_Args_0>$[ebp]
  0000d	f3 0f 7e 00	 movq	 xmm0, QWORD PTR [eax]
  00011	66 0f d6 01	 movq	 QWORD PTR [ecx], xmm0
  00015	8b 40 08	 mov	 eax, DWORD PTR [eax+8]
  00018	89 41 08	 mov	 DWORD PTR [ecx+8], eax
$LN8@construct:

; 773  : 		_Al.construct(_Ptr, _STD forward<_Types>(_Args)...);
; 774  : 		}

  0001b	5d		 pop	 ebp
  0001c	c3		 ret	 0
??$construct@UMONSTER_EVENT_DATA@@ABU1@@?$allocator_traits@V?$allocator@UMONSTER_EVENT_DATA@@@std@@@std@@SAXAAV?$allocator@UMONSTER_EVENT_DATA@@@1@PAUMONSTER_EVENT_DATA@@ABU3@@Z ENDP ; std::allocator_traits<std::allocator<MONSTER_EVENT_DATA> >::construct<MONSTER_EVENT_DATA,MONSTER_EVENT_DATA const &>
_TEXT	ENDS
; Function compile flags: /Ogtp
; File c:\program files (x86)\microsoft visual studio 14.0\vc\include\type_traits
;	COMDAT ??$forward@ABUMONSTER_EVENT_DATA@@@std@@YAABUMONSTER_EVENT_DATA@@ABU1@@Z
_TEXT	SEGMENT
__Arg$ = 8						; size = 4
??$forward@ABUMONSTER_EVENT_DATA@@@std@@YAABUMONSTER_EVENT_DATA@@ABU1@@Z PROC ; std::forward<MONSTER_EVENT_DATA const &>, COMDAT

; 1233 : 	{	// forward an lvalue as either an lvalue or an rvalue

  00000	55		 push	 ebp
  00001	8b ec		 mov	 ebp, esp

; 1234 : 	return (static_cast<_Ty&&>(_Arg));

  00003	8b 45 08	 mov	 eax, DWORD PTR __Arg$[ebp]

; 1235 : 	}

  00006	5d		 pop	 ebp
  00007	c3		 ret	 0
??$forward@ABUMONSTER_EVENT_DATA@@@std@@YAABUMONSTER_EVENT_DATA@@ABU1@@Z ENDP ; std::forward<MONSTER_EVENT_DATA const &>
_TEXT	ENDS
; Function compile flags: /Ogtp
; File c:\program files (x86)\microsoft visual studio 14.0\vc\include\xmemory0
;	COMDAT ??$construct@UMONSTER_EVENT_DATA@@AAU1@@?$allocator_traits@V?$allocator@UMONSTER_EVENT_DATA@@@std@@@std@@SAXAAV?$allocator@UMONSTER_EVENT_DATA@@@1@PAUMONSTER_EVENT_DATA@@AAU3@@Z
_TEXT	SEGMENT
__Al$ = 8						; size = 4
__Ptr$ = 12						; size = 4
_<_Args_0>$ = 16					; size = 4
??$construct@UMONSTER_EVENT_DATA@@AAU1@@?$allocator_traits@V?$allocator@UMONSTER_EVENT_DATA@@@std@@@std@@SAXAAV?$allocator@UMONSTER_EVENT_DATA@@@1@PAUMONSTER_EVENT_DATA@@AAU3@@Z PROC ; std::allocator_traits<std::allocator<MONSTER_EVENT_DATA> >::construct<MONSTER_EVENT_DATA,MONSTER_EVENT_DATA &>, COMDAT

; 772  : 		{	// construct _Objty(_Types...) at _Ptr

  00000	55		 push	 ebp
  00001	8b ec		 mov	 ebp, esp

; 655  : 		::new ((void *)_Ptr) _Objty(_STD forward<_Types>(_Args)...);

  00003	8b 4d 0c	 mov	 ecx, DWORD PTR __Ptr$[ebp]
  00006	85 c9		 test	 ecx, ecx
  00008	74 11		 je	 SHORT $LN8@construct
  0000a	8b 45 10	 mov	 eax, DWORD PTR _<_Args_0>$[ebp]
  0000d	f3 0f 7e 00	 movq	 xmm0, QWORD PTR [eax]
  00011	66 0f d6 01	 movq	 QWORD PTR [ecx], xmm0
  00015	8b 40 08	 mov	 eax, DWORD PTR [eax+8]
  00018	89 41 08	 mov	 DWORD PTR [ecx+8], eax
$LN8@construct:

; 773  : 		_Al.construct(_Ptr, _STD forward<_Types>(_Args)...);
; 774  : 		}

  0001b	5d		 pop	 ebp
  0001c	c3		 ret	 0
??$construct@UMONSTER_EVENT_DATA@@AAU1@@?$allocator_traits@V?$allocator@UMONSTER_EVENT_DATA@@@std@@@std@@SAXAAV?$allocator@UMONSTER_EVENT_DATA@@@1@PAUMONSTER_EVENT_DATA@@AAU3@@Z ENDP ; std::allocator_traits<std::allocator<MONSTER_EVENT_DATA> >::construct<MONSTER_EVENT_DATA,MONSTER_EVENT_DATA &>
_TEXT	ENDS
; Function compile flags: /Ogtp
; File c:\program files (x86)\microsoft visual studio 14.0\vc\include\type_traits
;	COMDAT ??$forward@AAUMONSTER_EVENT_DATA@@@std@@YAAAUMONSTER_EVENT_DATA@@AAU1@@Z
_TEXT	SEGMENT
__Arg$ = 8						; size = 4
??$forward@AAUMONSTER_EVENT_DATA@@@std@@YAAAUMONSTER_EVENT_DATA@@AAU1@@Z PROC ; std::forward<MONSTER_EVENT_DATA &>, COMDAT

; 1233 : 	{	// forward an lvalue as either an lvalue or an rvalue

  00000	55		 push	 ebp
  00001	8b ec		 mov	 ebp, esp

; 1234 : 	return (static_cast<_Ty&&>(_Arg));

  00003	8b 45 08	 mov	 eax, DWORD PTR __Arg$[ebp]

; 1235 : 	}

  00006	5d		 pop	 ebp
  00007	c3		 ret	 0
??$forward@AAUMONSTER_EVENT_DATA@@@std@@YAAAUMONSTER_EVENT_DATA@@AAU1@@Z ENDP ; std::forward<MONSTER_EVENT_DATA &>
_TEXT	ENDS
; Function compile flags: /Ogtp
; File c:\program files (x86)\microsoft visual studio 14.0\vc\include\xstddef
;	COMDAT ??$_Addressof@$$CBUMONSTER_EVENT_DATA@@@std@@YAPBUMONSTER_EVENT_DATA@@ABU1@U?$integral_constant@_N$0A@@0@@Z
_TEXT	SEGMENT
__Val$ = 8						; size = 4
___formal$ = 12						; size = 1
??$_Addressof@$$CBUMONSTER_EVENT_DATA@@@std@@YAPBUMONSTER_EVENT_DATA@@ABU1@U?$integral_constant@_N$0A@@0@@Z PROC ; std::_Addressof<MONSTER_EVENT_DATA const >, COMDAT

; 688  : 	{	// return address of object _Val

  00000	55		 push	 ebp
  00001	8b ec		 mov	 ebp, esp

; 689  : 	return (reinterpret_cast<_Ty *>(

  00003	8b 45 08	 mov	 eax, DWORD PTR __Val$[ebp]

; 690  : 		&const_cast<char&>(
; 691  : 		reinterpret_cast<const volatile char&>(_Val))));
; 692  : 	}

  00006	5d		 pop	 ebp
  00007	c3		 ret	 0
??$_Addressof@$$CBUMONSTER_EVENT_DATA@@@std@@YAPBUMONSTER_EVENT_DATA@@ABU1@U?$integral_constant@_N$0A@@0@@Z ENDP ; std::_Addressof<MONSTER_EVENT_DATA const >
_TEXT	ENDS
; Function compile flags: /Ogtp
; File c:\program files (x86)\microsoft visual studio 14.0\vc\include\xutility
;	COMDAT ??$_Move@PAUMONSTER_EVENT_DATA@@PAU1@@std@@YAPAUMONSTER_EVENT_DATA@@PAU1@00U_Nonscalar_ptr_iterator_tag@0@@Z
_TEXT	SEGMENT
__First$ = 8						; size = 4
__Last$ = 12						; size = 4
__Dest$ = 16						; size = 4
___formal$ = 20						; size = 1
??$_Move@PAUMONSTER_EVENT_DATA@@PAU1@@std@@YAPAUMONSTER_EVENT_DATA@@PAU1@00U_Nonscalar_ptr_iterator_tag@0@@Z PROC ; std::_Move<MONSTER_EVENT_DATA *,MONSTER_EVENT_DATA *>, COMDAT

; 2516 : 	{	// move [_First, _Last) to [_Dest, ...), arbitrary iterators

  00000	55		 push	 ebp
  00001	8b ec		 mov	 ebp, esp

; 2517 : 	for (; _First != _Last; ++_Dest, (void)++_First)

  00003	8b 4d 08	 mov	 ecx, DWORD PTR __First$[ebp]
  00006	8b 45 10	 mov	 eax, DWORD PTR __Dest$[ebp]
  00009	56		 push	 esi
  0000a	8b 75 0c	 mov	 esi, DWORD PTR __Last$[ebp]
  0000d	3b ce		 cmp	 ecx, esi
  0000f	74 18		 je	 SHORT $LN3@Move
$LL4@Move:

; 2518 : 		*_Dest = _STD move(*_First);

  00011	f3 0f 7e 01	 movq	 xmm0, QWORD PTR [ecx]
  00015	66 0f d6 00	 movq	 QWORD PTR [eax], xmm0
  00019	8b 51 08	 mov	 edx, DWORD PTR [ecx+8]
  0001c	83 c1 0c	 add	 ecx, 12			; 0000000cH
  0001f	89 50 08	 mov	 DWORD PTR [eax+8], edx
  00022	83 c0 0c	 add	 eax, 12			; 0000000cH
  00025	3b ce		 cmp	 ecx, esi
  00027	75 e8		 jne	 SHORT $LL4@Move
$LN3@Move:
  00029	5e		 pop	 esi

; 2519 : 	return (_Dest);
; 2520 : 	}

  0002a	5d		 pop	 ebp
  0002b	c3		 ret	 0
??$_Move@PAUMONSTER_EVENT_DATA@@PAU1@@std@@YAPAUMONSTER_EVENT_DATA@@PAU1@00U_Nonscalar_ptr_iterator_tag@0@@Z ENDP ; std::_Move<MONSTER_EVENT_DATA *,MONSTER_EVENT_DATA *>
_TEXT	ENDS
; Function compile flags: /Ogtp
; File c:\program files (x86)\microsoft visual studio 14.0\vc\include\xutility
;	COMDAT ??$_Ptr_cat@UMONSTER_EVENT_DATA@@U1@@std@@YA?AU_Nonscalar_ptr_iterator_tag@0@PAUMONSTER_EVENT_DATA@@0@Z
_TEXT	SEGMENT
__Cat$ = -1						; size = 1
___formal$ = 8						; size = 4
___formal$ = 12						; size = 4
??$_Ptr_cat@UMONSTER_EVENT_DATA@@U1@@std@@YA?AU_Nonscalar_ptr_iterator_tag@0@PAUMONSTER_EVENT_DATA@@0@Z PROC ; std::_Ptr_cat<MONSTER_EVENT_DATA,MONSTER_EVENT_DATA>, COMDAT

; 640  : 	{	// return pointer category from pointers

  00000	55		 push	 ebp
  00001	8b ec		 mov	 ebp, esp
  00003	51		 push	 ecx

; 641  : 	typename _Ptr_cat_helper<_Elem1, _Elem2>::type _Cat;
; 642  : 	return (_Cat);

  00004	8a 45 ff	 mov	 al, BYTE PTR __Cat$[ebp]

; 643  : 	}

  00007	8b e5		 mov	 esp, ebp
  00009	5d		 pop	 ebp
  0000a	c3		 ret	 0
??$_Ptr_cat@UMONSTER_EVENT_DATA@@U1@@std@@YA?AU_Nonscalar_ptr_iterator_tag@0@PAUMONSTER_EVENT_DATA@@0@Z ENDP ; std::_Ptr_cat<MONSTER_EVENT_DATA,MONSTER_EVENT_DATA>
_TEXT	ENDS
; Function compile flags: /Ogtp
; File c:\program files (x86)\microsoft visual studio 14.0\vc\include\xmemory0
;	COMDAT ??$construct@PAVCXMasMonsterHerd@@PAV1@@?$allocator_traits@V?$allocator@PAVCXMasMonsterHerd@@@std@@@std@@SAXAAV?$allocator@PAVCXMasMonsterHerd@@@1@PAPAVCXMasMonsterHerd@@$$QAPAV3@@Z
_TEXT	SEGMENT
__Al$ = 8						; size = 4
__Ptr$ = 12						; size = 4
_<_Args_0>$ = 16					; size = 4
??$construct@PAVCXMasMonsterHerd@@PAV1@@?$allocator_traits@V?$allocator@PAVCXMasMonsterHerd@@@std@@@std@@SAXAAV?$allocator@PAVCXMasMonsterHerd@@@1@PAPAVCXMasMonsterHerd@@$$QAPAV3@@Z PROC ; std::allocator_traits<std::allocator<CXMasMonsterHerd *> >::construct<CXMasMonsterHerd *,CXMasMonsterHerd *>, COMDAT

; 772  : 		{	// construct _Objty(_Types...) at _Ptr

  00000	55		 push	 ebp
  00001	8b ec		 mov	 ebp, esp

; 655  : 		::new ((void *)_Ptr) _Objty(_STD forward<_Types>(_Args)...);

  00003	8b 4d 0c	 mov	 ecx, DWORD PTR __Ptr$[ebp]
  00006	85 c9		 test	 ecx, ecx
  00008	74 07		 je	 SHORT $LN8@construct
  0000a	8b 45 10	 mov	 eax, DWORD PTR _<_Args_0>$[ebp]
  0000d	8b 00		 mov	 eax, DWORD PTR [eax]
  0000f	89 01		 mov	 DWORD PTR [ecx], eax
$LN8@construct:

; 773  : 		_Al.construct(_Ptr, _STD forward<_Types>(_Args)...);
; 774  : 		}

  00011	5d		 pop	 ebp
  00012	c3		 ret	 0
??$construct@PAVCXMasMonsterHerd@@PAV1@@?$allocator_traits@V?$allocator@PAVCXMasMonsterHerd@@@std@@@std@@SAXAAV?$allocator@PAVCXMasMonsterHerd@@@1@PAPAVCXMasMonsterHerd@@$$QAPAV3@@Z ENDP ; std::allocator_traits<std::allocator<CXMasMonsterHerd *> >::construct<CXMasMonsterHerd *,CXMasMonsterHerd *>
_TEXT	ENDS
; Function compile flags: /Ogtp
; File c:\program files (x86)\microsoft visual studio 14.0\vc\include\xstddef
;	COMDAT ??$_Addressof@PAVCXMasMonsterHerd@@@std@@YAPAPAVCXMasMonsterHerd@@AAPAV1@U?$integral_constant@_N$0A@@0@@Z
_TEXT	SEGMENT
__Val$ = 8						; size = 4
___formal$ = 12						; size = 1
??$_Addressof@PAVCXMasMonsterHerd@@@std@@YAPAPAVCXMasMonsterHerd@@AAPAV1@U?$integral_constant@_N$0A@@0@@Z PROC ; std::_Addressof<CXMasMonsterHerd *>, COMDAT

; 688  : 	{	// return address of object _Val

  00000	55		 push	 ebp
  00001	8b ec		 mov	 ebp, esp

; 689  : 	return (reinterpret_cast<_Ty *>(

  00003	8b 45 08	 mov	 eax, DWORD PTR __Val$[ebp]

; 690  : 		&const_cast<char&>(
; 691  : 		reinterpret_cast<const volatile char&>(_Val))));
; 692  : 	}

  00006	5d		 pop	 ebp
  00007	c3		 ret	 0
??$_Addressof@PAVCXMasMonsterHerd@@@std@@YAPAPAVCXMasMonsterHerd@@AAPAV1@U?$integral_constant@_N$0A@@0@@Z ENDP ; std::_Addressof<CXMasMonsterHerd *>
_TEXT	ENDS
; Function compile flags: /Ogtp
; File c:\program files (x86)\microsoft visual studio 14.0\vc\include\xutility
;	COMDAT ??$_Move@PAPAVCXMasMonsterHerd@@PAPAV1@@std@@YAPAPAVCXMasMonsterHerd@@PAPAV1@00U_Scalar_ptr_iterator_tag@0@@Z
_TEXT	SEGMENT
__First$ = 8						; size = 4
__Last$ = 12						; size = 4
__Dest$ = 16						; size = 4
___formal$ = 20						; size = 1
??$_Move@PAPAVCXMasMonsterHerd@@PAPAV1@@std@@YAPAPAVCXMasMonsterHerd@@PAPAV1@00U_Scalar_ptr_iterator_tag@0@@Z PROC ; std::_Move<CXMasMonsterHerd * *,CXMasMonsterHerd * *>, COMDAT

; 2526 : 	{	// move [_First, _Last) to [_Dest, ...), pointers to scalars

  00000	55		 push	 ebp
  00001	8b ec		 mov	 ebp, esp

; 2527 : 	ptrdiff_t _Count = _Last - _First;

  00003	8b 4d 08	 mov	 ecx, DWORD PTR __First$[ebp]
  00006	8b 45 0c	 mov	 eax, DWORD PTR __Last$[ebp]
  00009	2b c1		 sub	 eax, ecx
  0000b	56		 push	 esi

; 2528 : 	_CSTD memmove(&*_Dest, &*_First,

  0000c	8b 75 10	 mov	 esi, DWORD PTR __Dest$[ebp]
  0000f	c1 f8 02	 sar	 eax, 2
  00012	57		 push	 edi
  00013	8d 3c 85 00 00
	00 00		 lea	 edi, DWORD PTR [eax*4]
  0001a	57		 push	 edi
  0001b	51		 push	 ecx
  0001c	56		 push	 esi
  0001d	e8 00 00 00 00	 call	 _memmove
  00022	83 c4 0c	 add	 esp, 12			; 0000000cH

; 2529 : 		_Count * sizeof (*_First));
; 2530 : 	return (_Dest + _Count);

  00025	8d 04 37	 lea	 eax, DWORD PTR [edi+esi]
  00028	5f		 pop	 edi
  00029	5e		 pop	 esi

; 2531 : 	}

  0002a	5d		 pop	 ebp
  0002b	c3		 ret	 0
??$_Move@PAPAVCXMasMonsterHerd@@PAPAV1@@std@@YAPAPAVCXMasMonsterHerd@@PAPAV1@00U_Scalar_ptr_iterator_tag@0@@Z ENDP ; std::_Move<CXMasMonsterHerd * *,CXMasMonsterHerd * *>
_TEXT	ENDS
; Function compile flags: /Ogtp
; File c:\program files (x86)\microsoft visual studio 14.0\vc\include\xutility
;	COMDAT ??$_Ptr_cat@PAVCXMasMonsterHerd@@PAV1@@std@@YA?AU_Scalar_ptr_iterator_tag@0@PAPAVCXMasMonsterHerd@@0@Z
_TEXT	SEGMENT
__Cat$ = -1						; size = 1
___formal$ = 8						; size = 4
___formal$ = 12						; size = 4
??$_Ptr_cat@PAVCXMasMonsterHerd@@PAV1@@std@@YA?AU_Scalar_ptr_iterator_tag@0@PAPAVCXMasMonsterHerd@@0@Z PROC ; std::_Ptr_cat<CXMasMonsterHerd *,CXMasMonsterHerd *>, COMDAT

; 640  : 	{	// return pointer category from pointers

  00000	55		 push	 ebp
  00001	8b ec		 mov	 ebp, esp
  00003	51		 push	 ecx

; 641  : 	typename _Ptr_cat_helper<_Elem1, _Elem2>::type _Cat;
; 642  : 	return (_Cat);

  00004	8a 45 ff	 mov	 al, BYTE PTR __Cat$[ebp]

; 643  : 	}

  00007	8b e5		 mov	 esp, ebp
  00009	5d		 pop	 ebp
  0000a	c3		 ret	 0
??$_Ptr_cat@PAVCXMasMonsterHerd@@PAV1@@std@@YA?AU_Scalar_ptr_iterator_tag@0@PAPAVCXMasMonsterHerd@@0@Z ENDP ; std::_Ptr_cat<CXMasMonsterHerd *,CXMasMonsterHerd *>
_TEXT	ENDS
; Function compile flags: /Ogtp
; File c:\program files (x86)\microsoft visual studio 14.0\vc\include\xmemory0
;	COMDAT ??$construct@UXMASMONSTER_MAP_DATA@@ABU1@@?$allocator_traits@V?$allocator@UXMASMONSTER_MAP_DATA@@@std@@@std@@SAXAAV?$allocator@UXMASMONSTER_MAP_DATA@@@1@PAUXMASMONSTER_MAP_DATA@@ABU3@@Z
_TEXT	SEGMENT
__Al$ = 8						; size = 4
__Ptr$ = 12						; size = 4
_<_Args_0>$ = 16					; size = 4
??$construct@UXMASMONSTER_MAP_DATA@@ABU1@@?$allocator_traits@V?$allocator@UXMASMONSTER_MAP_DATA@@@std@@@std@@SAXAAV?$allocator@UXMASMONSTER_MAP_DATA@@@1@PAUXMASMONSTER_MAP_DATA@@ABU3@@Z PROC ; std::allocator_traits<std::allocator<XMASMONSTER_MAP_DATA> >::construct<XMASMONSTER_MAP_DATA,XMASMONSTER_MAP_DATA const &>, COMDAT

; 772  : 		{	// construct _Objty(_Types...) at _Ptr

  00000	55		 push	 ebp
  00001	8b ec		 mov	 ebp, esp

; 655  : 		::new ((void *)_Ptr) _Objty(_STD forward<_Types>(_Args)...);

  00003	8b 4d 0c	 mov	 ecx, DWORD PTR __Ptr$[ebp]
  00006	85 c9		 test	 ecx, ecx
  00008	74 0f		 je	 SHORT $LN8@construct
  0000a	8b 45 10	 mov	 eax, DWORD PTR _<_Args_0>$[ebp]
  0000d	0f 10 00	 movups	 xmm0, XMMWORD PTR [eax]
  00010	0f 11 01	 movups	 XMMWORD PTR [ecx], xmm0
  00013	8b 40 10	 mov	 eax, DWORD PTR [eax+16]
  00016	89 41 10	 mov	 DWORD PTR [ecx+16], eax
$LN8@construct:

; 773  : 		_Al.construct(_Ptr, _STD forward<_Types>(_Args)...);
; 774  : 		}

  00019	5d		 pop	 ebp
  0001a	c3		 ret	 0
??$construct@UXMASMONSTER_MAP_DATA@@ABU1@@?$allocator_traits@V?$allocator@UXMASMONSTER_MAP_DATA@@@std@@@std@@SAXAAV?$allocator@UXMASMONSTER_MAP_DATA@@@1@PAUXMASMONSTER_MAP_DATA@@ABU3@@Z ENDP ; std::allocator_traits<std::allocator<XMASMONSTER_MAP_DATA> >::construct<XMASMONSTER_MAP_DATA,XMASMONSTER_MAP_DATA const &>
_TEXT	ENDS
; Function compile flags: /Ogtp
; File c:\program files (x86)\microsoft visual studio 14.0\vc\include\type_traits
;	COMDAT ??$forward@ABUXMASMONSTER_MAP_DATA@@@std@@YAABUXMASMONSTER_MAP_DATA@@ABU1@@Z
_TEXT	SEGMENT
__Arg$ = 8						; size = 4
??$forward@ABUXMASMONSTER_MAP_DATA@@@std@@YAABUXMASMONSTER_MAP_DATA@@ABU1@@Z PROC ; std::forward<XMASMONSTER_MAP_DATA const &>, COMDAT

; 1233 : 	{	// forward an lvalue as either an lvalue or an rvalue

  00000	55		 push	 ebp
  00001	8b ec		 mov	 ebp, esp

; 1234 : 	return (static_cast<_Ty&&>(_Arg));

  00003	8b 45 08	 mov	 eax, DWORD PTR __Arg$[ebp]

; 1235 : 	}

  00006	5d		 pop	 ebp
  00007	c3		 ret	 0
??$forward@ABUXMASMONSTER_MAP_DATA@@@std@@YAABUXMASMONSTER_MAP_DATA@@ABU1@@Z ENDP ; std::forward<XMASMONSTER_MAP_DATA const &>
_TEXT	ENDS
; Function compile flags: /Ogtp
; File c:\program files (x86)\microsoft visual studio 14.0\vc\include\xmemory0
;	COMDAT ??$construct@UXMASMONSTER_MAP_DATA@@AAU1@@?$allocator_traits@V?$allocator@UXMASMONSTER_MAP_DATA@@@std@@@std@@SAXAAV?$allocator@UXMASMONSTER_MAP_DATA@@@1@PAUXMASMONSTER_MAP_DATA@@AAU3@@Z
_TEXT	SEGMENT
__Al$ = 8						; size = 4
__Ptr$ = 12						; size = 4
_<_Args_0>$ = 16					; size = 4
??$construct@UXMASMONSTER_MAP_DATA@@AAU1@@?$allocator_traits@V?$allocator@UXMASMONSTER_MAP_DATA@@@std@@@std@@SAXAAV?$allocator@UXMASMONSTER_MAP_DATA@@@1@PAUXMASMONSTER_MAP_DATA@@AAU3@@Z PROC ; std::allocator_traits<std::allocator<XMASMONSTER_MAP_DATA> >::construct<XMASMONSTER_MAP_DATA,XMASMONSTER_MAP_DATA &>, COMDAT

; 772  : 		{	// construct _Objty(_Types...) at _Ptr

  00000	55		 push	 ebp
  00001	8b ec		 mov	 ebp, esp

; 655  : 		::new ((void *)_Ptr) _Objty(_STD forward<_Types>(_Args)...);

  00003	8b 4d 0c	 mov	 ecx, DWORD PTR __Ptr$[ebp]
  00006	85 c9		 test	 ecx, ecx
  00008	74 0f		 je	 SHORT $LN8@construct
  0000a	8b 45 10	 mov	 eax, DWORD PTR _<_Args_0>$[ebp]
  0000d	0f 10 00	 movups	 xmm0, XMMWORD PTR [eax]
  00010	0f 11 01	 movups	 XMMWORD PTR [ecx], xmm0
  00013	8b 40 10	 mov	 eax, DWORD PTR [eax+16]
  00016	89 41 10	 mov	 DWORD PTR [ecx+16], eax
$LN8@construct:

; 773  : 		_Al.construct(_Ptr, _STD forward<_Types>(_Args)...);
; 774  : 		}

  00019	5d		 pop	 ebp
  0001a	c3		 ret	 0
??$construct@UXMASMONSTER_MAP_DATA@@AAU1@@?$allocator_traits@V?$allocator@UXMASMONSTER_MAP_DATA@@@std@@@std@@SAXAAV?$allocator@UXMASMONSTER_MAP_DATA@@@1@PAUXMASMONSTER_MAP_DATA@@AAU3@@Z ENDP ; std::allocator_traits<std::allocator<XMASMONSTER_MAP_DATA> >::construct<XMASMONSTER_MAP_DATA,XMASMONSTER_MAP_DATA &>
_TEXT	ENDS
; Function compile flags: /Ogtp
; File c:\program files (x86)\microsoft visual studio 14.0\vc\include\type_traits
;	COMDAT ??$forward@AAUXMASMONSTER_MAP_DATA@@@std@@YAAAUXMASMONSTER_MAP_DATA@@AAU1@@Z
_TEXT	SEGMENT
__Arg$ = 8						; size = 4
??$forward@AAUXMASMONSTER_MAP_DATA@@@std@@YAAAUXMASMONSTER_MAP_DATA@@AAU1@@Z PROC ; std::forward<XMASMONSTER_MAP_DATA &>, COMDAT

; 1233 : 	{	// forward an lvalue as either an lvalue or an rvalue

  00000	55		 push	 ebp
  00001	8b ec		 mov	 ebp, esp

; 1234 : 	return (static_cast<_Ty&&>(_Arg));

  00003	8b 45 08	 mov	 eax, DWORD PTR __Arg$[ebp]

; 1235 : 	}

  00006	5d		 pop	 ebp
  00007	c3		 ret	 0
??$forward@AAUXMASMONSTER_MAP_DATA@@@std@@YAAAUXMASMONSTER_MAP_DATA@@AAU1@@Z ENDP ; std::forward<XMASMONSTER_MAP_DATA &>
_TEXT	ENDS
; Function compile flags: /Ogtp
; File c:\program files (x86)\microsoft visual studio 14.0\vc\include\xstddef
;	COMDAT ??$_Addressof@$$CBUXMASMONSTER_MAP_DATA@@@std@@YAPBUXMASMONSTER_MAP_DATA@@ABU1@U?$integral_constant@_N$0A@@0@@Z
_TEXT	SEGMENT
__Val$ = 8						; size = 4
___formal$ = 12						; size = 1
??$_Addressof@$$CBUXMASMONSTER_MAP_DATA@@@std@@YAPBUXMASMONSTER_MAP_DATA@@ABU1@U?$integral_constant@_N$0A@@0@@Z PROC ; std::_Addressof<XMASMONSTER_MAP_DATA const >, COMDAT

; 688  : 	{	// return address of object _Val

  00000	55		 push	 ebp
  00001	8b ec		 mov	 ebp, esp

; 689  : 	return (reinterpret_cast<_Ty *>(

  00003	8b 45 08	 mov	 eax, DWORD PTR __Val$[ebp]

; 690  : 		&const_cast<char&>(
; 691  : 		reinterpret_cast<const volatile char&>(_Val))));
; 692  : 	}

  00006	5d		 pop	 ebp
  00007	c3		 ret	 0
??$_Addressof@$$CBUXMASMONSTER_MAP_DATA@@@std@@YAPBUXMASMONSTER_MAP_DATA@@ABU1@U?$integral_constant@_N$0A@@0@@Z ENDP ; std::_Addressof<XMASMONSTER_MAP_DATA const >
_TEXT	ENDS
; Function compile flags: /Ogtp
; File c:\program files (x86)\microsoft visual studio 14.0\vc\include\vector
; File c:\program files (x86)\microsoft visual studio 14.0\vc\include\xmemory
; File c:\program files (x86)\microsoft visual studio 14.0\vc\include\vector
;	COMDAT ??$_Umove@PAUMONSTER_EVENT_TIME@@@?$vector@UMONSTER_EVENT_TIME@@V?$allocator@UMONSTER_EVENT_TIME@@@std@@@std@@IAEPAUMONSTER_EVENT_TIME@@PAU2@00@Z
_TEXT	SEGMENT
__First$ = 8						; size = 4
__Last$ = 12						; size = 4
__Cat$1 = 16						; size = 1
__Ptr$ = 16						; size = 4
??$_Umove@PAUMONSTER_EVENT_TIME@@@?$vector@UMONSTER_EVENT_TIME@@V?$allocator@UMONSTER_EVENT_TIME@@@std@@@std@@IAEPAUMONSTER_EVENT_TIME@@PAU2@00@Z PROC ; std::vector<MONSTER_EVENT_TIME,std::allocator<MONSTER_EVENT_TIME> >::_Umove<MONSTER_EVENT_TIME *>, COMDAT
; _this$ = ecx

; 1677 : 		{	// move initializing [_First, _Last), using allocator

  00000	55		 push	 ebp
  00001	8b ec		 mov	 ebp, esp
; File c:\program files (x86)\microsoft visual studio 14.0\vc\include\xmemory

; 481  : 	return (_Uninit_move(_First, _Last, _Dest, _Al,

  00003	ff 75 10	 push	 DWORD PTR __Cat$1[ebp]
  00006	6a 00		 push	 0
  00008	51		 push	 ecx
  00009	ff 75 10	 push	 DWORD PTR __Ptr$[ebp]
  0000c	ff 75 0c	 push	 DWORD PTR __Last$[ebp]
  0000f	ff 75 08	 push	 DWORD PTR __First$[ebp]
  00012	e8 00 00 00 00	 call	 ??$_Uninit_move@PAUMONSTER_EVENT_TIME@@PAU1@V?$allocator@UMONSTER_EVENT_TIME@@@std@@U1@@std@@YAPAUMONSTER_EVENT_TIME@@PAU1@00AAU?$_Wrap_alloc@V?$allocator@UMONSTER_EVENT_TIME@@@std@@@0@0U_Nonscalar_ptr_iterator_tag@0@@Z ; std::_Uninit_move<MONSTER_EVENT_TIME *,MONSTER_EVENT_TIME *,std::allocator<MONSTER_EVENT_TIME>,MONSTER_EVENT_TIME>
  00017	83 c4 18	 add	 esp, 24			; 00000018H
; File c:\program files (x86)\microsoft visual studio 14.0\vc\include\vector

; 1680 : 		}

  0001a	5d		 pop	 ebp
  0001b	c2 0c 00	 ret	 12			; 0000000cH
??$_Umove@PAUMONSTER_EVENT_TIME@@@?$vector@UMONSTER_EVENT_TIME@@V?$allocator@UMONSTER_EVENT_TIME@@@std@@@std@@IAEPAUMONSTER_EVENT_TIME@@PAU2@00@Z ENDP ; std::vector<MONSTER_EVENT_TIME,std::allocator<MONSTER_EVENT_TIME> >::_Umove<MONSTER_EVENT_TIME *>
_TEXT	ENDS
; Function compile flags: /Ogtp
; File c:\program files (x86)\microsoft visual studio 14.0\vc\include\vector
; File c:\program files (x86)\microsoft visual studio 14.0\vc\include\xmemory
; File c:\program files (x86)\microsoft visual studio 14.0\vc\include\vector
;	COMDAT ??$_Umove@PAUMONSTER_EVENT_DATA@@@?$vector@UMONSTER_EVENT_DATA@@V?$allocator@UMONSTER_EVENT_DATA@@@std@@@std@@IAEPAUMONSTER_EVENT_DATA@@PAU2@00@Z
_TEXT	SEGMENT
__First$ = 8						; size = 4
__Last$ = 12						; size = 4
__Cat$1 = 16						; size = 1
__Ptr$ = 16						; size = 4
??$_Umove@PAUMONSTER_EVENT_DATA@@@?$vector@UMONSTER_EVENT_DATA@@V?$allocator@UMONSTER_EVENT_DATA@@@std@@@std@@IAEPAUMONSTER_EVENT_DATA@@PAU2@00@Z PROC ; std::vector<MONSTER_EVENT_DATA,std::allocator<MONSTER_EVENT_DATA> >::_Umove<MONSTER_EVENT_DATA *>, COMDAT
; _this$ = ecx

; 1677 : 		{	// move initializing [_First, _Last), using allocator

  00000	55		 push	 ebp
  00001	8b ec		 mov	 ebp, esp
; File c:\program files (x86)\microsoft visual studio 14.0\vc\include\xmemory

; 481  : 	return (_Uninit_move(_First, _Last, _Dest, _Al,

  00003	ff 75 10	 push	 DWORD PTR __Cat$1[ebp]
  00006	6a 00		 push	 0
  00008	51		 push	 ecx
  00009	ff 75 10	 push	 DWORD PTR __Ptr$[ebp]
  0000c	ff 75 0c	 push	 DWORD PTR __Last$[ebp]
  0000f	ff 75 08	 push	 DWORD PTR __First$[ebp]
  00012	e8 00 00 00 00	 call	 ??$_Uninit_move@PAUMONSTER_EVENT_DATA@@PAU1@V?$allocator@UMONSTER_EVENT_DATA@@@std@@U1@@std@@YAPAUMONSTER_EVENT_DATA@@PAU1@00AAU?$_Wrap_alloc@V?$allocator@UMONSTER_EVENT_DATA@@@std@@@0@0U_Nonscalar_ptr_iterator_tag@0@@Z ; std::_Uninit_move<MONSTER_EVENT_DATA *,MONSTER_EVENT_DATA *,std::allocator<MONSTER_EVENT_DATA>,MONSTER_EVENT_DATA>
  00017	83 c4 18	 add	 esp, 24			; 00000018H
; File c:\program files (x86)\microsoft visual studio 14.0\vc\include\vector

; 1680 : 		}

  0001a	5d		 pop	 ebp
  0001b	c2 0c 00	 ret	 12			; 0000000cH
??$_Umove@PAUMONSTER_EVENT_DATA@@@?$vector@UMONSTER_EVENT_DATA@@V?$allocator@UMONSTER_EVENT_DATA@@@std@@@std@@IAEPAUMONSTER_EVENT_DATA@@PAU2@00@Z ENDP ; std::vector<MONSTER_EVENT_DATA,std::allocator<MONSTER_EVENT_DATA> >::_Umove<MONSTER_EVENT_DATA *>
_TEXT	ENDS
; Function compile flags: /Ogtp
; File c:\program files (x86)\microsoft visual studio 14.0\vc\include\vector
; File c:\program files (x86)\microsoft visual studio 14.0\vc\include\xmemory
; File c:\program files (x86)\microsoft visual studio 14.0\vc\include\vector
;	COMDAT ??$_Umove@PAPAVCXMasMonsterHerd@@@?$vector@PAVCXMasMonsterHerd@@V?$allocator@PAVCXMasMonsterHerd@@@std@@@std@@IAEPAPAVCXMasMonsterHerd@@PAPAV2@00@Z
_TEXT	SEGMENT
__First$ = 8						; size = 4
__Last$ = 12						; size = 4
__Ptr$ = 16						; size = 4
??$_Umove@PAPAVCXMasMonsterHerd@@@?$vector@PAVCXMasMonsterHerd@@V?$allocator@PAVCXMasMonsterHerd@@@std@@@std@@IAEPAPAVCXMasMonsterHerd@@PAPAV2@00@Z PROC ; std::vector<CXMasMonsterHerd *,std::allocator<CXMasMonsterHerd *> >::_Umove<CXMasMonsterHerd * *>, COMDAT
; _this$ = ecx

; 1677 : 		{	// move initializing [_First, _Last), using allocator

  00000	55		 push	 ebp
  00001	8b ec		 mov	 ebp, esp
; File c:\program files (x86)\microsoft visual studio 14.0\vc\include\xmemory

; 470  : 	size_t _Count = (size_t)(_Last - _First);

  00003	8b 4d 08	 mov	 ecx, DWORD PTR __First$[ebp]
  00006	8b 45 0c	 mov	 eax, DWORD PTR __Last$[ebp]
  00009	2b c1		 sub	 eax, ecx
  0000b	c1 f8 02	 sar	 eax, 2
  0000e	56		 push	 esi

; 471  : 	return ((_Ty2 *)_CSTD memmove(&*_Dest, &*_First,

  0000f	8d 34 85 00 00
	00 00		 lea	 esi, DWORD PTR [eax*4]
  00016	56		 push	 esi
  00017	51		 push	 ecx
  00018	ff 75 10	 push	 DWORD PTR __Ptr$[ebp]
  0001b	e8 00 00 00 00	 call	 _memmove
  00020	83 c4 0c	 add	 esp, 12			; 0000000cH
  00023	03 c6		 add	 eax, esi
  00025	5e		 pop	 esi
; File c:\program files (x86)\microsoft visual studio 14.0\vc\include\vector

; 1680 : 		}

  00026	5d		 pop	 ebp
  00027	c2 0c 00	 ret	 12			; 0000000cH
??$_Umove@PAPAVCXMasMonsterHerd@@@?$vector@PAVCXMasMonsterHerd@@V?$allocator@PAVCXMasMonsterHerd@@@std@@@std@@IAEPAPAVCXMasMonsterHerd@@PAPAV2@00@Z ENDP ; std::vector<CXMasMonsterHerd *,std::allocator<CXMasMonsterHerd *> >::_Umove<CXMasMonsterHerd * *>
_TEXT	ENDS
; Function compile flags: /Ogtp
; File c:\program files (x86)\microsoft visual studio 14.0\vc\include\xmemory0
;	COMDAT ??$_Destroy_range@U?$_Wrap_alloc@V?$allocator@UXMASMONSTER_MAP_DATA@@@std@@@std@@@std@@YAXPAUXMASMONSTER_MAP_DATA@@0AAU?$_Wrap_alloc@V?$allocator@UXMASMONSTER_MAP_DATA@@@std@@@0@@Z
_TEXT	SEGMENT
__First$ = 8						; size = 4
__Last$ = 12						; size = 4
__Al$ = 16						; size = 4
??$_Destroy_range@U?$_Wrap_alloc@V?$allocator@UXMASMONSTER_MAP_DATA@@@std@@@std@@@std@@YAXPAUXMASMONSTER_MAP_DATA@@0AAU?$_Wrap_alloc@V?$allocator@UXMASMONSTER_MAP_DATA@@@std@@@0@@Z PROC ; std::_Destroy_range<std::_Wrap_alloc<std::allocator<XMASMONSTER_MAP_DATA> > >, COMDAT

; 186  : 	_Destroy_range(_First, _Last, _Al, _Ptr_cat(_First, _Last));
; 187  : 	}

  00000	c3		 ret	 0
??$_Destroy_range@U?$_Wrap_alloc@V?$allocator@UXMASMONSTER_MAP_DATA@@@std@@@std@@@std@@YAXPAUXMASMONSTER_MAP_DATA@@0AAU?$_Wrap_alloc@V?$allocator@UXMASMONSTER_MAP_DATA@@@std@@@0@@Z ENDP ; std::_Destroy_range<std::_Wrap_alloc<std::allocator<XMASMONSTER_MAP_DATA> > >
_TEXT	ENDS
; Function compile flags: /Ogtp
; File c:\program files (x86)\microsoft visual studio 14.0\vc\include\vector
; File c:\program files (x86)\microsoft visual studio 14.0\vc\include\xmemory
; File c:\program files (x86)\microsoft visual studio 14.0\vc\include\vector
;	COMDAT ??$_Umove@PAUXMASMONSTER_MAP_DATA@@@?$vector@UXMASMONSTER_MAP_DATA@@V?$allocator@UXMASMONSTER_MAP_DATA@@@std@@@std@@IAEPAUXMASMONSTER_MAP_DATA@@PAU2@00@Z
_TEXT	SEGMENT
__First$ = 8						; size = 4
__Last$ = 12						; size = 4
__Cat$1 = 16						; size = 1
__Ptr$ = 16						; size = 4
??$_Umove@PAUXMASMONSTER_MAP_DATA@@@?$vector@UXMASMONSTER_MAP_DATA@@V?$allocator@UXMASMONSTER_MAP_DATA@@@std@@@std@@IAEPAUXMASMONSTER_MAP_DATA@@PAU2@00@Z PROC ; std::vector<XMASMONSTER_MAP_DATA,std::allocator<XMASMONSTER_MAP_DATA> >::_Umove<XMASMONSTER_MAP_DATA *>, COMDAT
; _this$ = ecx

; 1677 : 		{	// move initializing [_First, _Last), using allocator

  00000	55		 push	 ebp
  00001	8b ec		 mov	 ebp, esp
; File c:\program files (x86)\microsoft visual studio 14.0\vc\include\xmemory

; 481  : 	return (_Uninit_move(_First, _Last, _Dest, _Al,

  00003	ff 75 10	 push	 DWORD PTR __Cat$1[ebp]
  00006	6a 00		 push	 0
  00008	51		 push	 ecx
  00009	ff 75 10	 push	 DWORD PTR __Ptr$[ebp]
  0000c	ff 75 0c	 push	 DWORD PTR __Last$[ebp]
  0000f	ff 75 08	 push	 DWORD PTR __First$[ebp]
  00012	e8 00 00 00 00	 call	 ??$_Uninit_move@PAUXMASMONSTER_MAP_DATA@@PAU1@V?$allocator@UXMASMONSTER_MAP_DATA@@@std@@U1@@std@@YAPAUXMASMONSTER_MAP_DATA@@PAU1@00AAU?$_Wrap_alloc@V?$allocator@UXMASMONSTER_MAP_DATA@@@std@@@0@0U_Nonscalar_ptr_iterator_tag@0@@Z ; std::_Uninit_move<XMASMONSTER_MAP_DATA *,XMASMONSTER_MAP_DATA *,std::allocator<XMASMONSTER_MAP_DATA>,XMASMONSTER_MAP_DATA>
  00017	83 c4 18	 add	 esp, 24			; 00000018H
; File c:\program files (x86)\microsoft visual studio 14.0\vc\include\vector

; 1680 : 		}

  0001a	5d		 pop	 ebp
  0001b	c2 0c 00	 ret	 12			; 0000000cH
??$_Umove@PAUXMASMONSTER_MAP_DATA@@@?$vector@UXMASMONSTER_MAP_DATA@@V?$allocator@UXMASMONSTER_MAP_DATA@@@std@@@std@@IAEPAUXMASMONSTER_MAP_DATA@@PAU2@00@Z ENDP ; std::vector<XMASMONSTER_MAP_DATA,std::allocator<XMASMONSTER_MAP_DATA> >::_Umove<XMASMONSTER_MAP_DATA *>
_TEXT	ENDS
; Function compile flags: /Ogtp
; File c:\program files (x86)\microsoft visual studio 14.0\vc\include\xmemory0
;	COMDAT ??$_Destroy_range@U?$_Wrap_alloc@V?$allocator@UMONSTER_EVENT_TIME@@@std@@@std@@@std@@YAXPAUMONSTER_EVENT_TIME@@0AAU?$_Wrap_alloc@V?$allocator@UMONSTER_EVENT_TIME@@@std@@@0@@Z
_TEXT	SEGMENT
__First$ = 8						; size = 4
__Last$ = 12						; size = 4
__Al$ = 16						; size = 4
??$_Destroy_range@U?$_Wrap_alloc@V?$allocator@UMONSTER_EVENT_TIME@@@std@@@std@@@std@@YAXPAUMONSTER_EVENT_TIME@@0AAU?$_Wrap_alloc@V?$allocator@UMONSTER_EVENT_TIME@@@std@@@0@@Z PROC ; std::_Destroy_range<std::_Wrap_alloc<std::allocator<MONSTER_EVENT_TIME> > >, COMDAT

; 186  : 	_Destroy_range(_First, _Last, _Al, _Ptr_cat(_First, _Last));
; 187  : 	}

  00000	c3		 ret	 0
??$_Destroy_range@U?$_Wrap_alloc@V?$allocator@UMONSTER_EVENT_TIME@@@std@@@std@@@std@@YAXPAUMONSTER_EVENT_TIME@@0AAU?$_Wrap_alloc@V?$allocator@UMONSTER_EVENT_TIME@@@std@@@0@@Z ENDP ; std::_Destroy_range<std::_Wrap_alloc<std::allocator<MONSTER_EVENT_TIME> > >
_TEXT	ENDS
; Function compile flags: /Ogtp
; File c:\program files (x86)\microsoft visual studio 14.0\vc\include\xutility
; File c:\program files (x86)\microsoft visual studio 14.0\vc\include\vector
; File c:\program files (x86)\microsoft visual studio 14.0\vc\include\xutility
; File c:\program files (x86)\microsoft visual studio 14.0\vc\include\vector
; File c:\program files (x86)\microsoft visual studio 14.0\vc\include\xutility
;	COMDAT ??$?0ABV?$allocator@UMONSTER_EVENT_TIME@@@std@@$$V@?$_Compressed_pair@U?$_Wrap_alloc@V?$allocator@UMONSTER_EVENT_TIME@@@std@@@std@@V?$_Vector_val@U?$_Simple_types@UMONSTER_EVENT_TIME@@@std@@@2@$00@std@@QAE@U_One_then_variadic_args_t@1@ABV?$allocator@UMONSTER_EVENT_TIME@@@1@@Z
_TEXT	SEGMENT
___formal$ = 8						; size = 1
__Val1$ = 12						; size = 4
??$?0ABV?$allocator@UMONSTER_EVENT_TIME@@@std@@$$V@?$_Compressed_pair@U?$_Wrap_alloc@V?$allocator@UMONSTER_EVENT_TIME@@@std@@@std@@V?$_Vector_val@U?$_Simple_types@UMONSTER_EVENT_TIME@@@std@@@2@$00@std@@QAE@U_One_then_variadic_args_t@1@ABV?$allocator@UMONSTER_EVENT_TIME@@@1@@Z PROC ; std::_Compressed_pair<std::_Wrap_alloc<std::allocator<MONSTER_EVENT_TIME> >,std::_Vector_val<std::_Simple_types<MONSTER_EVENT_TIME> >,1>::_Compressed_pair<std::_Wrap_alloc<std::allocator<MONSTER_EVENT_TIME> >,std::_Vector_val<std::_Simple_types<MONSTER_EVENT_TIME> >,1><std::allocator<MONSTER_EVENT_TIME> const &>, COMDAT
; _this$ = ecx
; File c:\program files (x86)\microsoft visual studio 14.0\vc\include\vector

; 480  : 		_Myfirst = pointer();

  00000	c7 01 00 00 00
	00		 mov	 DWORD PTR [ecx], 0
; File c:\program files (x86)\microsoft visual studio 14.0\vc\include\xutility

; 289  : 		}

  00006	8b c1		 mov	 eax, ecx
; File c:\program files (x86)\microsoft visual studio 14.0\vc\include\vector

; 481  : 		_Mylast = pointer();

  00008	c7 41 04 00 00
	00 00		 mov	 DWORD PTR [ecx+4], 0

; 482  : 		_Myend = pointer();

  0000f	c7 41 08 00 00
	00 00		 mov	 DWORD PTR [ecx+8], 0
; File c:\program files (x86)\microsoft visual studio 14.0\vc\include\xutility

; 289  : 		}

  00016	c2 08 00	 ret	 8
??$?0ABV?$allocator@UMONSTER_EVENT_TIME@@@std@@$$V@?$_Compressed_pair@U?$_Wrap_alloc@V?$allocator@UMONSTER_EVENT_TIME@@@std@@@std@@V?$_Vector_val@U?$_Simple_types@UMONSTER_EVENT_TIME@@@std@@@2@$00@std@@QAE@U_One_then_variadic_args_t@1@ABV?$allocator@UMONSTER_EVENT_TIME@@@1@@Z ENDP ; std::_Compressed_pair<std::_Wrap_alloc<std::allocator<MONSTER_EVENT_TIME> >,std::_Vector_val<std::_Simple_types<MONSTER_EVENT_TIME> >,1>::_Compressed_pair<std::_Wrap_alloc<std::allocator<MONSTER_EVENT_TIME> >,std::_Vector_val<std::_Simple_types<MONSTER_EVENT_TIME> >,1><std::allocator<MONSTER_EVENT_TIME> const &>
_TEXT	ENDS
; Function compile flags: /Ogtp
; File c:\program files (x86)\microsoft visual studio 14.0\vc\include\xmemory0
;	COMDAT ??$_Destroy_range@U?$_Wrap_alloc@V?$allocator@UMONSTER_EVENT_DATA@@@std@@@std@@@std@@YAXPAUMONSTER_EVENT_DATA@@0AAU?$_Wrap_alloc@V?$allocator@UMONSTER_EVENT_DATA@@@std@@@0@@Z
_TEXT	SEGMENT
__First$ = 8						; size = 4
__Last$ = 12						; size = 4
__Al$ = 16						; size = 4
??$_Destroy_range@U?$_Wrap_alloc@V?$allocator@UMONSTER_EVENT_DATA@@@std@@@std@@@std@@YAXPAUMONSTER_EVENT_DATA@@0AAU?$_Wrap_alloc@V?$allocator@UMONSTER_EVENT_DATA@@@std@@@0@@Z PROC ; std::_Destroy_range<std::_Wrap_alloc<std::allocator<MONSTER_EVENT_DATA> > >, COMDAT

; 186  : 	_Destroy_range(_First, _Last, _Al, _Ptr_cat(_First, _Last));
; 187  : 	}

  00000	c3		 ret	 0
??$_Destroy_range@U?$_Wrap_alloc@V?$allocator@UMONSTER_EVENT_DATA@@@std@@@std@@@std@@YAXPAUMONSTER_EVENT_DATA@@0AAU?$_Wrap_alloc@V?$allocator@UMONSTER_EVENT_DATA@@@std@@@0@@Z ENDP ; std::_Destroy_range<std::_Wrap_alloc<std::allocator<MONSTER_EVENT_DATA> > >
_TEXT	ENDS
; Function compile flags: /Ogtp
; File c:\program files (x86)\microsoft visual studio 14.0\vc\include\xutility
; File c:\program files (x86)\microsoft visual studio 14.0\vc\include\vector
; File c:\program files (x86)\microsoft visual studio 14.0\vc\include\xutility
; File c:\program files (x86)\microsoft visual studio 14.0\vc\include\vector
; File c:\program files (x86)\microsoft visual studio 14.0\vc\include\xutility
;	COMDAT ??$?0ABV?$allocator@UMONSTER_EVENT_DATA@@@std@@$$V@?$_Compressed_pair@U?$_Wrap_alloc@V?$allocator@UMONSTER_EVENT_DATA@@@std@@@std@@V?$_Vector_val@U?$_Simple_types@UMONSTER_EVENT_DATA@@@std@@@2@$00@std@@QAE@U_One_then_variadic_args_t@1@ABV?$allocator@UMONSTER_EVENT_DATA@@@1@@Z
_TEXT	SEGMENT
___formal$ = 8						; size = 1
__Val1$ = 12						; size = 4
??$?0ABV?$allocator@UMONSTER_EVENT_DATA@@@std@@$$V@?$_Compressed_pair@U?$_Wrap_alloc@V?$allocator@UMONSTER_EVENT_DATA@@@std@@@std@@V?$_Vector_val@U?$_Simple_types@UMONSTER_EVENT_DATA@@@std@@@2@$00@std@@QAE@U_One_then_variadic_args_t@1@ABV?$allocator@UMONSTER_EVENT_DATA@@@1@@Z PROC ; std::_Compressed_pair<std::_Wrap_alloc<std::allocator<MONSTER_EVENT_DATA> >,std::_Vector_val<std::_Simple_types<MONSTER_EVENT_DATA> >,1>::_Compressed_pair<std::_Wrap_alloc<std::allocator<MONSTER_EVENT_DATA> >,std::_Vector_val<std::_Simple_types<MONSTER_EVENT_DATA> >,1><std::allocator<MONSTER_EVENT_DATA> const &>, COMDAT
; _this$ = ecx
; File c:\program files (x86)\microsoft visual studio 14.0\vc\include\vector

; 480  : 		_Myfirst = pointer();

  00000	c7 01 00 00 00
	00		 mov	 DWORD PTR [ecx], 0
; File c:\program files (x86)\microsoft visual studio 14.0\vc\include\xutility

; 289  : 		}

  00006	8b c1		 mov	 eax, ecx
; File c:\program files (x86)\microsoft visual studio 14.0\vc\include\vector

; 481  : 		_Mylast = pointer();

  00008	c7 41 04 00 00
	00 00		 mov	 DWORD PTR [ecx+4], 0

; 482  : 		_Myend = pointer();

  0000f	c7 41 08 00 00
	00 00		 mov	 DWORD PTR [ecx+8], 0
; File c:\program files (x86)\microsoft visual studio 14.0\vc\include\xutility

; 289  : 		}

  00016	c2 08 00	 ret	 8
??$?0ABV?$allocator@UMONSTER_EVENT_DATA@@@std@@$$V@?$_Compressed_pair@U?$_Wrap_alloc@V?$allocator@UMONSTER_EVENT_DATA@@@std@@@std@@V?$_Vector_val@U?$_Simple_types@UMONSTER_EVENT_DATA@@@std@@@2@$00@std@@QAE@U_One_then_variadic_args_t@1@ABV?$allocator@UMONSTER_EVENT_DATA@@@1@@Z ENDP ; std::_Compressed_pair<std::_Wrap_alloc<std::allocator<MONSTER_EVENT_DATA> >,std::_Vector_val<std::_Simple_types<MONSTER_EVENT_DATA> >,1>::_Compressed_pair<std::_Wrap_alloc<std::allocator<MONSTER_EVENT_DATA> >,std::_Vector_val<std::_Simple_types<MONSTER_EVENT_DATA> >,1><std::allocator<MONSTER_EVENT_DATA> const &>
_TEXT	ENDS
; Function compile flags: /Ogtp
; File c:\program files (x86)\microsoft visual studio 14.0\vc\include\xmemory0
;	COMDAT ??$_Destroy_range@U?$_Wrap_alloc@V?$allocator@PAVCXMasMonsterHerd@@@std@@@std@@@std@@YAXPAPAVCXMasMonsterHerd@@0AAU?$_Wrap_alloc@V?$allocator@PAVCXMasMonsterHerd@@@std@@@0@@Z
_TEXT	SEGMENT
__First$ = 8						; size = 4
__Last$ = 12						; size = 4
__Al$ = 16						; size = 4
??$_Destroy_range@U?$_Wrap_alloc@V?$allocator@PAVCXMasMonsterHerd@@@std@@@std@@@std@@YAXPAPAVCXMasMonsterHerd@@0AAU?$_Wrap_alloc@V?$allocator@PAVCXMasMonsterHerd@@@std@@@0@@Z PROC ; std::_Destroy_range<std::_Wrap_alloc<std::allocator<CXMasMonsterHerd *> > >, COMDAT

; 186  : 	_Destroy_range(_First, _Last, _Al, _Ptr_cat(_First, _Last));
; 187  : 	}

  00000	c3		 ret	 0
??$_Destroy_range@U?$_Wrap_alloc@V?$allocator@PAVCXMasMonsterHerd@@@std@@@std@@@std@@YAXPAPAVCXMasMonsterHerd@@0AAU?$_Wrap_alloc@V?$allocator@PAVCXMasMonsterHerd@@@std@@@0@@Z ENDP ; std::_Destroy_range<std::_Wrap_alloc<std::allocator<CXMasMonsterHerd *> > >
_TEXT	ENDS
; Function compile flags: /Ogtp
; File c:\program files (x86)\microsoft visual studio 14.0\vc\include\xutility
; File c:\program files (x86)\microsoft visual studio 14.0\vc\include\vector
; File c:\program files (x86)\microsoft visual studio 14.0\vc\include\xutility
; File c:\program files (x86)\microsoft visual studio 14.0\vc\include\vector
; File c:\program files (x86)\microsoft visual studio 14.0\vc\include\xutility
;	COMDAT ??$?0ABV?$allocator@PAVCXMasMonsterHerd@@@std@@$$V@?$_Compressed_pair@U?$_Wrap_alloc@V?$allocator@PAVCXMasMonsterHerd@@@std@@@std@@V?$_Vector_val@U?$_Simple_types@PAVCXMasMonsterHerd@@@std@@@2@$00@std@@QAE@U_One_then_variadic_args_t@1@ABV?$allocator@PAVCXMasMonsterHerd@@@1@@Z
_TEXT	SEGMENT
___formal$ = 8						; size = 1
__Val1$ = 12						; size = 4
??$?0ABV?$allocator@PAVCXMasMonsterHerd@@@std@@$$V@?$_Compressed_pair@U?$_Wrap_alloc@V?$allocator@PAVCXMasMonsterHerd@@@std@@@std@@V?$_Vector_val@U?$_Simple_types@PAVCXMasMonsterHerd@@@std@@@2@$00@std@@QAE@U_One_then_variadic_args_t@1@ABV?$allocator@PAVCXMasMonsterHerd@@@1@@Z PROC ; std::_Compressed_pair<std::_Wrap_alloc<std::allocator<CXMasMonsterHerd *> >,std::_Vector_val<std::_Simple_types<CXMasMonsterHerd *> >,1>::_Compressed_pair<std::_Wrap_alloc<std::allocator<CXMasMonsterHerd *> >,std::_Vector_val<std::_Simple_types<CXMasMonsterHerd *> >,1><std::allocator<CXMasMonsterHerd *> const &>, COMDAT
; _this$ = ecx
; File c:\program files (x86)\microsoft visual studio 14.0\vc\include\vector

; 480  : 		_Myfirst = pointer();

  00000	c7 01 00 00 00
	00		 mov	 DWORD PTR [ecx], 0
; File c:\program files (x86)\microsoft visual studio 14.0\vc\include\xutility

; 289  : 		}

  00006	8b c1		 mov	 eax, ecx
; File c:\program files (x86)\microsoft visual studio 14.0\vc\include\vector

; 481  : 		_Mylast = pointer();

  00008	c7 41 04 00 00
	00 00		 mov	 DWORD PTR [ecx+4], 0

; 482  : 		_Myend = pointer();

  0000f	c7 41 08 00 00
	00 00		 mov	 DWORD PTR [ecx+8], 0
; File c:\program files (x86)\microsoft visual studio 14.0\vc\include\xutility

; 289  : 		}

  00016	c2 08 00	 ret	 8
??$?0ABV?$allocator@PAVCXMasMonsterHerd@@@std@@$$V@?$_Compressed_pair@U?$_Wrap_alloc@V?$allocator@PAVCXMasMonsterHerd@@@std@@@std@@V?$_Vector_val@U?$_Simple_types@PAVCXMasMonsterHerd@@@std@@@2@$00@std@@QAE@U_One_then_variadic_args_t@1@ABV?$allocator@PAVCXMasMonsterHerd@@@1@@Z ENDP ; std::_Compressed_pair<std::_Wrap_alloc<std::allocator<CXMasMonsterHerd *> >,std::_Vector_val<std::_Simple_types<CXMasMonsterHerd *> >,1>::_Compressed_pair<std::_Wrap_alloc<std::allocator<CXMasMonsterHerd *> >,std::_Vector_val<std::_Simple_types<CXMasMonsterHerd *> >,1><std::allocator<CXMasMonsterHerd *> const &>
_TEXT	ENDS
; Function compile flags: /Ogtp
; File c:\program files (x86)\microsoft visual studio 14.0\vc\include\xutility
; File c:\program files (x86)\microsoft visual studio 14.0\vc\include\vector
; File c:\program files (x86)\microsoft visual studio 14.0\vc\include\xutility
; File c:\program files (x86)\microsoft visual studio 14.0\vc\include\vector
; File c:\program files (x86)\microsoft visual studio 14.0\vc\include\xutility
;	COMDAT ??$?0ABV?$allocator@UXMASMONSTER_MAP_DATA@@@std@@$$V@?$_Compressed_pair@U?$_Wrap_alloc@V?$allocator@UXMASMONSTER_MAP_DATA@@@std@@@std@@V?$_Vector_val@U?$_Simple_types@UXMASMONSTER_MAP_DATA@@@std@@@2@$00@std@@QAE@U_One_then_variadic_args_t@1@ABV?$allocator@UXMASMONSTER_MAP_DATA@@@1@@Z
_TEXT	SEGMENT
___formal$ = 8						; size = 1
__Val1$ = 12						; size = 4
??$?0ABV?$allocator@UXMASMONSTER_MAP_DATA@@@std@@$$V@?$_Compressed_pair@U?$_Wrap_alloc@V?$allocator@UXMASMONSTER_MAP_DATA@@@std@@@std@@V?$_Vector_val@U?$_Simple_types@UXMASMONSTER_MAP_DATA@@@std@@@2@$00@std@@QAE@U_One_then_variadic_args_t@1@ABV?$allocator@UXMASMONSTER_MAP_DATA@@@1@@Z PROC ; std::_Compressed_pair<std::_Wrap_alloc<std::allocator<XMASMONSTER_MAP_DATA> >,std::_Vector_val<std::_Simple_types<XMASMONSTER_MAP_DATA> >,1>::_Compressed_pair<std::_Wrap_alloc<std::allocator<XMASMONSTER_MAP_DATA> >,std::_Vector_val<std::_Simple_types<XMASMONSTER_MAP_DATA> >,1><std::allocator<XMASMONSTER_MAP_DATA> const &>, COMDAT
; _this$ = ecx
; File c:\program files (x86)\microsoft visual studio 14.0\vc\include\vector

; 480  : 		_Myfirst = pointer();

  00000	c7 01 00 00 00
	00		 mov	 DWORD PTR [ecx], 0
; File c:\program files (x86)\microsoft visual studio 14.0\vc\include\xutility

; 289  : 		}

  00006	8b c1		 mov	 eax, ecx
; File c:\program files (x86)\microsoft visual studio 14.0\vc\include\vector

; 481  : 		_Mylast = pointer();

  00008	c7 41 04 00 00
	00 00		 mov	 DWORD PTR [ecx+4], 0

; 482  : 		_Myend = pointer();

  0000f	c7 41 08 00 00
	00 00		 mov	 DWORD PTR [ecx+8], 0
; File c:\program files (x86)\microsoft visual studio 14.0\vc\include\xutility

; 289  : 		}

  00016	c2 08 00	 ret	 8
??$?0ABV?$allocator@UXMASMONSTER_MAP_DATA@@@std@@$$V@?$_Compressed_pair@U?$_Wrap_alloc@V?$allocator@UXMASMONSTER_MAP_DATA@@@std@@@std@@V?$_Vector_val@U?$_Simple_types@UXMASMONSTER_MAP_DATA@@@std@@@2@$00@std@@QAE@U_One_then_variadic_args_t@1@ABV?$allocator@UXMASMONSTER_MAP_DATA@@@1@@Z ENDP ; std::_Compressed_pair<std::_Wrap_alloc<std::allocator<XMASMONSTER_MAP_DATA> >,std::_Vector_val<std::_Simple_types<XMASMONSTER_MAP_DATA> >,1>::_Compressed_pair<std::_Wrap_alloc<std::allocator<XMASMONSTER_MAP_DATA> >,std::_Vector_val<std::_Simple_types<XMASMONSTER_MAP_DATA> >,1><std::allocator<XMASMONSTER_MAP_DATA> const &>
_TEXT	ENDS
; Function compile flags: /Ogtp
; File c:\program files (x86)\microsoft visual studio 14.0\vc\include\xmemory0
;	COMDAT ??$construct@UMONSTER_EVENT_TIME@@ABU1@@?$_Wrap_alloc@V?$allocator@UMONSTER_EVENT_TIME@@@std@@@std@@QAEXPAUMONSTER_EVENT_TIME@@ABU2@@Z
_TEXT	SEGMENT
__Ptr$ = 8						; size = 4
_<_Args_0>$ = 12					; size = 4
??$construct@UMONSTER_EVENT_TIME@@ABU1@@?$_Wrap_alloc@V?$allocator@UMONSTER_EVENT_TIME@@@std@@@std@@QAEXPAUMONSTER_EVENT_TIME@@ABU2@@Z PROC ; std::_Wrap_alloc<std::allocator<MONSTER_EVENT_TIME> >::construct<MONSTER_EVENT_TIME,MONSTER_EVENT_TIME const &>, COMDAT
; _this$ = ecx

; 916  : 		{	// construct _Ty(_Types...) at _Ptr

  00000	55		 push	 ebp
  00001	8b ec		 mov	 ebp, esp

; 655  : 		::new ((void *)_Ptr) _Objty(_STD forward<_Types>(_Args)...);

  00003	8b 55 08	 mov	 edx, DWORD PTR __Ptr$[ebp]
  00006	85 d2		 test	 edx, edx
  00008	74 0d		 je	 SHORT $LN13@construct
  0000a	8b 4d 0c	 mov	 ecx, DWORD PTR _<_Args_0>$[ebp]
  0000d	8b 01		 mov	 eax, DWORD PTR [ecx]
  0000f	89 02		 mov	 DWORD PTR [edx], eax
  00011	8b 41 04	 mov	 eax, DWORD PTR [ecx+4]
  00014	89 42 04	 mov	 DWORD PTR [edx+4], eax
$LN13@construct:

; 917  : 		_Mytraits::construct(*this, _Ptr,
; 918  : 			_STD forward<_Types>(_Args)...);
; 919  : 		}

  00017	5d		 pop	 ebp
  00018	c2 08 00	 ret	 8
??$construct@UMONSTER_EVENT_TIME@@ABU1@@?$_Wrap_alloc@V?$allocator@UMONSTER_EVENT_TIME@@@std@@@std@@QAEXPAUMONSTER_EVENT_TIME@@ABU2@@Z ENDP ; std::_Wrap_alloc<std::allocator<MONSTER_EVENT_TIME> >::construct<MONSTER_EVENT_TIME,MONSTER_EVENT_TIME const &>
_TEXT	ENDS
; Function compile flags: /Ogtp
; File c:\program files (x86)\microsoft visual studio 14.0\vc\include\xmemory0
;	COMDAT ??$construct@UMONSTER_EVENT_TIME@@AAU1@@?$_Wrap_alloc@V?$allocator@UMONSTER_EVENT_TIME@@@std@@@std@@QAEXPAUMONSTER_EVENT_TIME@@AAU2@@Z
_TEXT	SEGMENT
__Ptr$ = 8						; size = 4
_<_Args_0>$ = 12					; size = 4
??$construct@UMONSTER_EVENT_TIME@@AAU1@@?$_Wrap_alloc@V?$allocator@UMONSTER_EVENT_TIME@@@std@@@std@@QAEXPAUMONSTER_EVENT_TIME@@AAU2@@Z PROC ; std::_Wrap_alloc<std::allocator<MONSTER_EVENT_TIME> >::construct<MONSTER_EVENT_TIME,MONSTER_EVENT_TIME &>, COMDAT
; _this$ = ecx

; 916  : 		{	// construct _Ty(_Types...) at _Ptr

  00000	55		 push	 ebp
  00001	8b ec		 mov	 ebp, esp

; 655  : 		::new ((void *)_Ptr) _Objty(_STD forward<_Types>(_Args)...);

  00003	8b 55 08	 mov	 edx, DWORD PTR __Ptr$[ebp]
  00006	85 d2		 test	 edx, edx
  00008	74 0d		 je	 SHORT $LN13@construct
  0000a	8b 4d 0c	 mov	 ecx, DWORD PTR _<_Args_0>$[ebp]
  0000d	8b 01		 mov	 eax, DWORD PTR [ecx]
  0000f	89 02		 mov	 DWORD PTR [edx], eax
  00011	8b 41 04	 mov	 eax, DWORD PTR [ecx+4]
  00014	89 42 04	 mov	 DWORD PTR [edx+4], eax
$LN13@construct:

; 917  : 		_Mytraits::construct(*this, _Ptr,
; 918  : 			_STD forward<_Types>(_Args)...);
; 919  : 		}

  00017	5d		 pop	 ebp
  00018	c2 08 00	 ret	 8
??$construct@UMONSTER_EVENT_TIME@@AAU1@@?$_Wrap_alloc@V?$allocator@UMONSTER_EVENT_TIME@@@std@@@std@@QAEXPAUMONSTER_EVENT_TIME@@AAU2@@Z ENDP ; std::_Wrap_alloc<std::allocator<MONSTER_EVENT_TIME> >::construct<MONSTER_EVENT_TIME,MONSTER_EVENT_TIME &>
_TEXT	ENDS
; Function compile flags: /Ogtp
; File c:\program files (x86)\microsoft visual studio 14.0\vc\include\xstddef
;	COMDAT ??$addressof@$$CBUMONSTER_EVENT_TIME@@@std@@YAPBUMONSTER_EVENT_TIME@@ABU1@@Z
_TEXT	SEGMENT
__Val$ = 8						; size = 4
??$addressof@$$CBUMONSTER_EVENT_TIME@@@std@@YAPBUMONSTER_EVENT_TIME@@ABU1@@Z PROC ; std::addressof<MONSTER_EVENT_TIME const >, COMDAT

; 696  : 	{	// return address of _Val

  00000	55		 push	 ebp
  00001	8b ec		 mov	 ebp, esp

; 697  : 	return (_Addressof(_Val, is_function<_Ty>()));

  00003	8b 45 08	 mov	 eax, DWORD PTR __Val$[ebp]

; 698  : 	}

  00006	5d		 pop	 ebp
  00007	c3		 ret	 0
??$addressof@$$CBUMONSTER_EVENT_TIME@@@std@@YAPBUMONSTER_EVENT_TIME@@ABU1@@Z ENDP ; std::addressof<MONSTER_EVENT_TIME const >
_TEXT	ENDS
; Function compile flags: /Ogtp
; File c:\program files (x86)\microsoft visual studio 14.0\vc\include\xutility
;	COMDAT ??$_Move@PAUMONSTER_EVENT_TIME@@PAU1@@std@@YAPAUMONSTER_EVENT_TIME@@PAU1@00@Z
_TEXT	SEGMENT
__First$ = 8						; size = 4
__Last$ = 12						; size = 4
__Dest$ = 16						; size = 4
??$_Move@PAUMONSTER_EVENT_TIME@@PAU1@@std@@YAPAUMONSTER_EVENT_TIME@@PAU1@00@Z PROC ; std::_Move<MONSTER_EVENT_TIME *,MONSTER_EVENT_TIME *>, COMDAT

; 2537 : 	{	// move [_First, _Last) to [_Dest, ...), unchecked

  00000	55		 push	 ebp
  00001	8b ec		 mov	 ebp, esp

; 2538 : 	return (_Move(_First, _Last,

  00003	8b 4d 08	 mov	 ecx, DWORD PTR __First$[ebp]
  00006	8b 45 10	 mov	 eax, DWORD PTR __Dest$[ebp]
  00009	56		 push	 esi

; 2517 : 	for (; _First != _Last; ++_Dest, (void)++_First)

  0000a	8b 75 0c	 mov	 esi, DWORD PTR __Last$[ebp]
  0000d	3b ce		 cmp	 ecx, esi
  0000f	74 14		 je	 SHORT $LN7@Move
$LL8@Move:

; 2518 : 		*_Dest = _STD move(*_First);

  00011	8b 11		 mov	 edx, DWORD PTR [ecx]
  00013	89 10		 mov	 DWORD PTR [eax], edx
  00015	8b 51 04	 mov	 edx, DWORD PTR [ecx+4]
  00018	83 c1 08	 add	 ecx, 8
  0001b	89 50 04	 mov	 DWORD PTR [eax+4], edx
  0001e	83 c0 08	 add	 eax, 8
  00021	3b ce		 cmp	 ecx, esi
  00023	75 ec		 jne	 SHORT $LL8@Move
$LN7@Move:
  00025	5e		 pop	 esi

; 2539 : 		_Dest, _Ptr_cat(_First, _Dest)));
; 2540 : 	}

  00026	5d		 pop	 ebp
  00027	c3		 ret	 0
??$_Move@PAUMONSTER_EVENT_TIME@@PAU1@@std@@YAPAUMONSTER_EVENT_TIME@@PAU1@00@Z ENDP ; std::_Move<MONSTER_EVENT_TIME *,MONSTER_EVENT_TIME *>
_TEXT	ENDS
; Function compile flags: /Ogtp
; File c:\program files (x86)\microsoft visual studio 14.0\vc\include\xmemory0
;	COMDAT ??$construct@UMONSTER_EVENT_DATA@@ABU1@@?$_Wrap_alloc@V?$allocator@UMONSTER_EVENT_DATA@@@std@@@std@@QAEXPAUMONSTER_EVENT_DATA@@ABU2@@Z
_TEXT	SEGMENT
__Ptr$ = 8						; size = 4
_<_Args_0>$ = 12					; size = 4
??$construct@UMONSTER_EVENT_DATA@@ABU1@@?$_Wrap_alloc@V?$allocator@UMONSTER_EVENT_DATA@@@std@@@std@@QAEXPAUMONSTER_EVENT_DATA@@ABU2@@Z PROC ; std::_Wrap_alloc<std::allocator<MONSTER_EVENT_DATA> >::construct<MONSTER_EVENT_DATA,MONSTER_EVENT_DATA const &>, COMDAT
; _this$ = ecx

; 916  : 		{	// construct _Ty(_Types...) at _Ptr

  00000	55		 push	 ebp
  00001	8b ec		 mov	 ebp, esp

; 655  : 		::new ((void *)_Ptr) _Objty(_STD forward<_Types>(_Args)...);

  00003	8b 4d 08	 mov	 ecx, DWORD PTR __Ptr$[ebp]
  00006	85 c9		 test	 ecx, ecx
  00008	74 11		 je	 SHORT $LN13@construct
  0000a	8b 45 0c	 mov	 eax, DWORD PTR _<_Args_0>$[ebp]
  0000d	f3 0f 7e 00	 movq	 xmm0, QWORD PTR [eax]
  00011	66 0f d6 01	 movq	 QWORD PTR [ecx], xmm0
  00015	8b 40 08	 mov	 eax, DWORD PTR [eax+8]
  00018	89 41 08	 mov	 DWORD PTR [ecx+8], eax
$LN13@construct:

; 917  : 		_Mytraits::construct(*this, _Ptr,
; 918  : 			_STD forward<_Types>(_Args)...);
; 919  : 		}

  0001b	5d		 pop	 ebp
  0001c	c2 08 00	 ret	 8
??$construct@UMONSTER_EVENT_DATA@@ABU1@@?$_Wrap_alloc@V?$allocator@UMONSTER_EVENT_DATA@@@std@@@std@@QAEXPAUMONSTER_EVENT_DATA@@ABU2@@Z ENDP ; std::_Wrap_alloc<std::allocator<MONSTER_EVENT_DATA> >::construct<MONSTER_EVENT_DATA,MONSTER_EVENT_DATA const &>
_TEXT	ENDS
; Function compile flags: /Ogtp
; File c:\program files (x86)\microsoft visual studio 14.0\vc\include\xmemory0
;	COMDAT ??$construct@UMONSTER_EVENT_DATA@@AAU1@@?$_Wrap_alloc@V?$allocator@UMONSTER_EVENT_DATA@@@std@@@std@@QAEXPAUMONSTER_EVENT_DATA@@AAU2@@Z
_TEXT	SEGMENT
__Ptr$ = 8						; size = 4
_<_Args_0>$ = 12					; size = 4
??$construct@UMONSTER_EVENT_DATA@@AAU1@@?$_Wrap_alloc@V?$allocator@UMONSTER_EVENT_DATA@@@std@@@std@@QAEXPAUMONSTER_EVENT_DATA@@AAU2@@Z PROC ; std::_Wrap_alloc<std::allocator<MONSTER_EVENT_DATA> >::construct<MONSTER_EVENT_DATA,MONSTER_EVENT_DATA &>, COMDAT
; _this$ = ecx

; 916  : 		{	// construct _Ty(_Types...) at _Ptr

  00000	55		 push	 ebp
  00001	8b ec		 mov	 ebp, esp

; 655  : 		::new ((void *)_Ptr) _Objty(_STD forward<_Types>(_Args)...);

  00003	8b 4d 08	 mov	 ecx, DWORD PTR __Ptr$[ebp]
  00006	85 c9		 test	 ecx, ecx
  00008	74 11		 je	 SHORT $LN13@construct
  0000a	8b 45 0c	 mov	 eax, DWORD PTR _<_Args_0>$[ebp]
  0000d	f3 0f 7e 00	 movq	 xmm0, QWORD PTR [eax]
  00011	66 0f d6 01	 movq	 QWORD PTR [ecx], xmm0
  00015	8b 40 08	 mov	 eax, DWORD PTR [eax+8]
  00018	89 41 08	 mov	 DWORD PTR [ecx+8], eax
$LN13@construct:

; 917  : 		_Mytraits::construct(*this, _Ptr,
; 918  : 			_STD forward<_Types>(_Args)...);
; 919  : 		}

  0001b	5d		 pop	 ebp
  0001c	c2 08 00	 ret	 8
??$construct@UMONSTER_EVENT_DATA@@AAU1@@?$_Wrap_alloc@V?$allocator@UMONSTER_EVENT_DATA@@@std@@@std@@QAEXPAUMONSTER_EVENT_DATA@@AAU2@@Z ENDP ; std::_Wrap_alloc<std::allocator<MONSTER_EVENT_DATA> >::construct<MONSTER_EVENT_DATA,MONSTER_EVENT_DATA &>
_TEXT	ENDS
; Function compile flags: /Ogtp
; File c:\program files (x86)\microsoft visual studio 14.0\vc\include\xstddef
;	COMDAT ??$addressof@$$CBUMONSTER_EVENT_DATA@@@std@@YAPBUMONSTER_EVENT_DATA@@ABU1@@Z
_TEXT	SEGMENT
__Val$ = 8						; size = 4
??$addressof@$$CBUMONSTER_EVENT_DATA@@@std@@YAPBUMONSTER_EVENT_DATA@@ABU1@@Z PROC ; std::addressof<MONSTER_EVENT_DATA const >, COMDAT

; 696  : 	{	// return address of _Val

  00000	55		 push	 ebp
  00001	8b ec		 mov	 ebp, esp

; 697  : 	return (_Addressof(_Val, is_function<_Ty>()));

  00003	8b 45 08	 mov	 eax, DWORD PTR __Val$[ebp]

; 698  : 	}

  00006	5d		 pop	 ebp
  00007	c3		 ret	 0
??$addressof@$$CBUMONSTER_EVENT_DATA@@@std@@YAPBUMONSTER_EVENT_DATA@@ABU1@@Z ENDP ; std::addressof<MONSTER_EVENT_DATA const >
_TEXT	ENDS
; Function compile flags: /Ogtp
; File c:\program files (x86)\microsoft visual studio 14.0\vc\include\xutility
;	COMDAT ??$_Move@PAUMONSTER_EVENT_DATA@@PAU1@@std@@YAPAUMONSTER_EVENT_DATA@@PAU1@00@Z
_TEXT	SEGMENT
__First$ = 8						; size = 4
__Last$ = 12						; size = 4
__Dest$ = 16						; size = 4
??$_Move@PAUMONSTER_EVENT_DATA@@PAU1@@std@@YAPAUMONSTER_EVENT_DATA@@PAU1@00@Z PROC ; std::_Move<MONSTER_EVENT_DATA *,MONSTER_EVENT_DATA *>, COMDAT

; 2537 : 	{	// move [_First, _Last) to [_Dest, ...), unchecked

  00000	55		 push	 ebp
  00001	8b ec		 mov	 ebp, esp

; 2538 : 	return (_Move(_First, _Last,

  00003	8b 4d 08	 mov	 ecx, DWORD PTR __First$[ebp]
  00006	8b 45 10	 mov	 eax, DWORD PTR __Dest$[ebp]
  00009	56		 push	 esi

; 2517 : 	for (; _First != _Last; ++_Dest, (void)++_First)

  0000a	8b 75 0c	 mov	 esi, DWORD PTR __Last$[ebp]
  0000d	3b ce		 cmp	 ecx, esi
  0000f	74 18		 je	 SHORT $LN7@Move
$LL8@Move:

; 2518 : 		*_Dest = _STD move(*_First);

  00011	f3 0f 7e 01	 movq	 xmm0, QWORD PTR [ecx]
  00015	66 0f d6 00	 movq	 QWORD PTR [eax], xmm0
  00019	8b 51 08	 mov	 edx, DWORD PTR [ecx+8]
  0001c	83 c1 0c	 add	 ecx, 12			; 0000000cH
  0001f	89 50 08	 mov	 DWORD PTR [eax+8], edx
  00022	83 c0 0c	 add	 eax, 12			; 0000000cH
  00025	3b ce		 cmp	 ecx, esi
  00027	75 e8		 jne	 SHORT $LL8@Move
$LN7@Move:
  00029	5e		 pop	 esi

; 2539 : 		_Dest, _Ptr_cat(_First, _Dest)));
; 2540 : 	}

  0002a	5d		 pop	 ebp
  0002b	c3		 ret	 0
??$_Move@PAUMONSTER_EVENT_DATA@@PAU1@@std@@YAPAUMONSTER_EVENT_DATA@@PAU1@00@Z ENDP ; std::_Move<MONSTER_EVENT_DATA *,MONSTER_EVENT_DATA *>
_TEXT	ENDS
; Function compile flags: /Ogtp
; File c:\program files (x86)\microsoft visual studio 14.0\vc\include\xmemory0
;	COMDAT ??$construct@PAVCXMasMonsterHerd@@PAV1@@?$_Wrap_alloc@V?$allocator@PAVCXMasMonsterHerd@@@std@@@std@@QAEXPAPAVCXMasMonsterHerd@@$$QAPAV2@@Z
_TEXT	SEGMENT
__Ptr$ = 8						; size = 4
_<_Args_0>$ = 12					; size = 4
??$construct@PAVCXMasMonsterHerd@@PAV1@@?$_Wrap_alloc@V?$allocator@PAVCXMasMonsterHerd@@@std@@@std@@QAEXPAPAVCXMasMonsterHerd@@$$QAPAV2@@Z PROC ; std::_Wrap_alloc<std::allocator<CXMasMonsterHerd *> >::construct<CXMasMonsterHerd *,CXMasMonsterHerd *>, COMDAT
; _this$ = ecx

; 916  : 		{	// construct _Ty(_Types...) at _Ptr

  00000	55		 push	 ebp
  00001	8b ec		 mov	 ebp, esp

; 655  : 		::new ((void *)_Ptr) _Objty(_STD forward<_Types>(_Args)...);

  00003	8b 4d 08	 mov	 ecx, DWORD PTR __Ptr$[ebp]
  00006	85 c9		 test	 ecx, ecx
  00008	74 07		 je	 SHORT $LN13@construct
  0000a	8b 45 0c	 mov	 eax, DWORD PTR _<_Args_0>$[ebp]
  0000d	8b 00		 mov	 eax, DWORD PTR [eax]
  0000f	89 01		 mov	 DWORD PTR [ecx], eax
$LN13@construct:

; 917  : 		_Mytraits::construct(*this, _Ptr,
; 918  : 			_STD forward<_Types>(_Args)...);
; 919  : 		}

  00011	5d		 pop	 ebp
  00012	c2 08 00	 ret	 8
??$construct@PAVCXMasMonsterHerd@@PAV1@@?$_Wrap_alloc@V?$allocator@PAVCXMasMonsterHerd@@@std@@@std@@QAEXPAPAVCXMasMonsterHerd@@$$QAPAV2@@Z ENDP ; std::_Wrap_alloc<std::allocator<CXMasMonsterHerd *> >::construct<CXMasMonsterHerd *,CXMasMonsterHerd *>
_TEXT	ENDS
; Function compile flags: /Ogtp
; File c:\program files (x86)\microsoft visual studio 14.0\vc\include\type_traits
;	COMDAT ??$forward@PAVCXMasMonsterHerd@@@std@@YA$$QAPAVCXMasMonsterHerd@@AAPAV1@@Z
_TEXT	SEGMENT
__Arg$ = 8						; size = 4
??$forward@PAVCXMasMonsterHerd@@@std@@YA$$QAPAVCXMasMonsterHerd@@AAPAV1@@Z PROC ; std::forward<CXMasMonsterHerd *>, COMDAT

; 1233 : 	{	// forward an lvalue as either an lvalue or an rvalue

  00000	55		 push	 ebp
  00001	8b ec		 mov	 ebp, esp

; 1234 : 	return (static_cast<_Ty&&>(_Arg));

  00003	8b 45 08	 mov	 eax, DWORD PTR __Arg$[ebp]

; 1235 : 	}

  00006	5d		 pop	 ebp
  00007	c3		 ret	 0
??$forward@PAVCXMasMonsterHerd@@@std@@YA$$QAPAVCXMasMonsterHerd@@AAPAV1@@Z ENDP ; std::forward<CXMasMonsterHerd *>
_TEXT	ENDS
; Function compile flags: /Ogtp
; File c:\program files (x86)\microsoft visual studio 14.0\vc\include\xstddef
;	COMDAT ??$addressof@PAVCXMasMonsterHerd@@@std@@YAPAPAVCXMasMonsterHerd@@AAPAV1@@Z
_TEXT	SEGMENT
__Val$ = 8						; size = 4
??$addressof@PAVCXMasMonsterHerd@@@std@@YAPAPAVCXMasMonsterHerd@@AAPAV1@@Z PROC ; std::addressof<CXMasMonsterHerd *>, COMDAT

; 696  : 	{	// return address of _Val

  00000	55		 push	 ebp
  00001	8b ec		 mov	 ebp, esp

; 697  : 	return (_Addressof(_Val, is_function<_Ty>()));

  00003	8b 45 08	 mov	 eax, DWORD PTR __Val$[ebp]

; 698  : 	}

  00006	5d		 pop	 ebp
  00007	c3		 ret	 0
??$addressof@PAVCXMasMonsterHerd@@@std@@YAPAPAVCXMasMonsterHerd@@AAPAV1@@Z ENDP ; std::addressof<CXMasMonsterHerd *>
_TEXT	ENDS
; Function compile flags: /Ogtp
; File c:\program files (x86)\microsoft visual studio 14.0\vc\include\xutility
;	COMDAT ??$_Move@PAPAVCXMasMonsterHerd@@PAPAV1@@std@@YAPAPAVCXMasMonsterHerd@@PAPAV1@00@Z
_TEXT	SEGMENT
__First$ = 8						; size = 4
__Last$ = 12						; size = 4
__Dest$ = 16						; size = 4
??$_Move@PAPAVCXMasMonsterHerd@@PAPAV1@@std@@YAPAPAVCXMasMonsterHerd@@PAPAV1@00@Z PROC ; std::_Move<CXMasMonsterHerd * *,CXMasMonsterHerd * *>, COMDAT

; 2537 : 	{	// move [_First, _Last) to [_Dest, ...), unchecked

  00000	55		 push	 ebp
  00001	8b ec		 mov	 ebp, esp

; 2527 : 	ptrdiff_t _Count = _Last - _First;

  00003	8b 4d 08	 mov	 ecx, DWORD PTR __First$[ebp]
  00006	8b 45 0c	 mov	 eax, DWORD PTR __Last$[ebp]
  00009	2b c1		 sub	 eax, ecx
  0000b	56		 push	 esi

; 2528 : 	_CSTD memmove(&*_Dest, &*_First,

  0000c	8b 75 10	 mov	 esi, DWORD PTR __Dest$[ebp]
  0000f	c1 f8 02	 sar	 eax, 2
  00012	57		 push	 edi
  00013	8d 3c 85 00 00
	00 00		 lea	 edi, DWORD PTR [eax*4]
  0001a	57		 push	 edi
  0001b	51		 push	 ecx
  0001c	56		 push	 esi
  0001d	e8 00 00 00 00	 call	 _memmove
  00022	83 c4 0c	 add	 esp, 12			; 0000000cH

; 2529 : 		_Count * sizeof (*_First));
; 2530 : 	return (_Dest + _Count);

  00025	8d 04 37	 lea	 eax, DWORD PTR [edi+esi]
  00028	5f		 pop	 edi
  00029	5e		 pop	 esi

; 2538 : 	return (_Move(_First, _Last,
; 2539 : 		_Dest, _Ptr_cat(_First, _Dest)));
; 2540 : 	}

  0002a	5d		 pop	 ebp
  0002b	c3		 ret	 0
??$_Move@PAPAVCXMasMonsterHerd@@PAPAV1@@std@@YAPAPAVCXMasMonsterHerd@@PAPAV1@00@Z ENDP ; std::_Move<CXMasMonsterHerd * *,CXMasMonsterHerd * *>
_TEXT	ENDS
; Function compile flags: /Ogtp
; File c:\program files (x86)\microsoft visual studio 14.0\vc\include\xmemory0
;	COMDAT ??$construct@UXMASMONSTER_MAP_DATA@@ABU1@@?$_Wrap_alloc@V?$allocator@UXMASMONSTER_MAP_DATA@@@std@@@std@@QAEXPAUXMASMONSTER_MAP_DATA@@ABU2@@Z
_TEXT	SEGMENT
__Ptr$ = 8						; size = 4
_<_Args_0>$ = 12					; size = 4
??$construct@UXMASMONSTER_MAP_DATA@@ABU1@@?$_Wrap_alloc@V?$allocator@UXMASMONSTER_MAP_DATA@@@std@@@std@@QAEXPAUXMASMONSTER_MAP_DATA@@ABU2@@Z PROC ; std::_Wrap_alloc<std::allocator<XMASMONSTER_MAP_DATA> >::construct<XMASMONSTER_MAP_DATA,XMASMONSTER_MAP_DATA const &>, COMDAT
; _this$ = ecx

; 916  : 		{	// construct _Ty(_Types...) at _Ptr

  00000	55		 push	 ebp
  00001	8b ec		 mov	 ebp, esp

; 655  : 		::new ((void *)_Ptr) _Objty(_STD forward<_Types>(_Args)...);

  00003	8b 4d 08	 mov	 ecx, DWORD PTR __Ptr$[ebp]
  00006	85 c9		 test	 ecx, ecx
  00008	74 0f		 je	 SHORT $LN13@construct
  0000a	8b 45 0c	 mov	 eax, DWORD PTR _<_Args_0>$[ebp]
  0000d	0f 10 00	 movups	 xmm0, XMMWORD PTR [eax]
  00010	0f 11 01	 movups	 XMMWORD PTR [ecx], xmm0
  00013	8b 40 10	 mov	 eax, DWORD PTR [eax+16]
  00016	89 41 10	 mov	 DWORD PTR [ecx+16], eax
$LN13@construct:

; 917  : 		_Mytraits::construct(*this, _Ptr,
; 918  : 			_STD forward<_Types>(_Args)...);
; 919  : 		}

  00019	5d		 pop	 ebp
  0001a	c2 08 00	 ret	 8
??$construct@UXMASMONSTER_MAP_DATA@@ABU1@@?$_Wrap_alloc@V?$allocator@UXMASMONSTER_MAP_DATA@@@std@@@std@@QAEXPAUXMASMONSTER_MAP_DATA@@ABU2@@Z ENDP ; std::_Wrap_alloc<std::allocator<XMASMONSTER_MAP_DATA> >::construct<XMASMONSTER_MAP_DATA,XMASMONSTER_MAP_DATA const &>
_TEXT	ENDS
; Function compile flags: /Ogtp
; File c:\program files (x86)\microsoft visual studio 14.0\vc\include\xmemory0
;	COMDAT ??$construct@UXMASMONSTER_MAP_DATA@@AAU1@@?$_Wrap_alloc@V?$allocator@UXMASMONSTER_MAP_DATA@@@std@@@std@@QAEXPAUXMASMONSTER_MAP_DATA@@AAU2@@Z
_TEXT	SEGMENT
__Ptr$ = 8						; size = 4
_<_Args_0>$ = 12					; size = 4
??$construct@UXMASMONSTER_MAP_DATA@@AAU1@@?$_Wrap_alloc@V?$allocator@UXMASMONSTER_MAP_DATA@@@std@@@std@@QAEXPAUXMASMONSTER_MAP_DATA@@AAU2@@Z PROC ; std::_Wrap_alloc<std::allocator<XMASMONSTER_MAP_DATA> >::construct<XMASMONSTER_MAP_DATA,XMASMONSTER_MAP_DATA &>, COMDAT
; _this$ = ecx

; 916  : 		{	// construct _Ty(_Types...) at _Ptr

  00000	55		 push	 ebp
  00001	8b ec		 mov	 ebp, esp

; 655  : 		::new ((void *)_Ptr) _Objty(_STD forward<_Types>(_Args)...);

  00003	8b 4d 08	 mov	 ecx, DWORD PTR __Ptr$[ebp]
  00006	85 c9		 test	 ecx, ecx
  00008	74 0f		 je	 SHORT $LN13@construct
  0000a	8b 45 0c	 mov	 eax, DWORD PTR _<_Args_0>$[ebp]
  0000d	0f 10 00	 movups	 xmm0, XMMWORD PTR [eax]
  00010	0f 11 01	 movups	 XMMWORD PTR [ecx], xmm0
  00013	8b 40 10	 mov	 eax, DWORD PTR [eax+16]
  00016	89 41 10	 mov	 DWORD PTR [ecx+16], eax
$LN13@construct:

; 917  : 		_Mytraits::construct(*this, _Ptr,
; 918  : 			_STD forward<_Types>(_Args)...);
; 919  : 		}

  00019	5d		 pop	 ebp
  0001a	c2 08 00	 ret	 8
??$construct@UXMASMONSTER_MAP_DATA@@AAU1@@?$_Wrap_alloc@V?$allocator@UXMASMONSTER_MAP_DATA@@@std@@@std@@QAEXPAUXMASMONSTER_MAP_DATA@@AAU2@@Z ENDP ; std::_Wrap_alloc<std::allocator<XMASMONSTER_MAP_DATA> >::construct<XMASMONSTER_MAP_DATA,XMASMONSTER_MAP_DATA &>
_TEXT	ENDS
; Function compile flags: /Ogtp
; File c:\program files (x86)\microsoft visual studio 14.0\vc\include\xstddef
;	COMDAT ??$addressof@$$CBUXMASMONSTER_MAP_DATA@@@std@@YAPBUXMASMONSTER_MAP_DATA@@ABU1@@Z
_TEXT	SEGMENT
__Val$ = 8						; size = 4
??$addressof@$$CBUXMASMONSTER_MAP_DATA@@@std@@YAPBUXMASMONSTER_MAP_DATA@@ABU1@@Z PROC ; std::addressof<XMASMONSTER_MAP_DATA const >, COMDAT

; 696  : 	{	// return address of _Val

  00000	55		 push	 ebp
  00001	8b ec		 mov	 ebp, esp

; 697  : 	return (_Addressof(_Val, is_function<_Ty>()));

  00003	8b 45 08	 mov	 eax, DWORD PTR __Val$[ebp]

; 698  : 	}

  00006	5d		 pop	 ebp
  00007	c3		 ret	 0
??$addressof@$$CBUXMASMONSTER_MAP_DATA@@@std@@YAPBUXMASMONSTER_MAP_DATA@@ABU1@@Z ENDP ; std::addressof<XMASMONSTER_MAP_DATA const >
_TEXT	ENDS
; Function compile flags: /Ogtp
; File c:\program files (x86)\microsoft visual studio 14.0\vc\include\vector
;	COMDAT ??E?$_Vector_iterator@V?$_Vector_val@U?$_Simple_types@UXMASMONSTER_MAP_DATA@@@std@@@std@@@std@@QAE?AV01@H@Z
_TEXT	SEGMENT
___$ReturnUdt$ = 8					; size = 4
___formal$ = 12						; size = 4
??E?$_Vector_iterator@V?$_Vector_val@U?$_Simple_types@UXMASMONSTER_MAP_DATA@@@std@@@std@@@std@@QAE?AV01@H@Z PROC ; std::_Vector_iterator<std::_Vector_val<std::_Simple_types<XMASMONSTER_MAP_DATA> > >::operator++, COMDAT
; _this$ = ecx

; 340  : 		{	// postincrement

  00000	55		 push	 ebp
  00001	8b ec		 mov	 ebp, esp

; 341  : 		_Myiter _Tmp = *this;

  00003	8b 45 08	 mov	 eax, DWORD PTR ___$ReturnUdt$[ebp]
  00006	8b 11		 mov	 edx, DWORD PTR [ecx]
  00008	89 10		 mov	 DWORD PTR [eax], edx

; 112  : 		++this->_Ptr;

  0000a	83 c2 14	 add	 edx, 20			; 00000014H
  0000d	89 11		 mov	 DWORD PTR [ecx], edx

; 342  : 		++*this;
; 343  : 		return (_Tmp);
; 344  : 		}

  0000f	5d		 pop	 ebp
  00010	c2 08 00	 ret	 8
??E?$_Vector_iterator@V?$_Vector_val@U?$_Simple_types@UXMASMONSTER_MAP_DATA@@@std@@@std@@@std@@QAE?AV01@H@Z ENDP ; std::_Vector_iterator<std::_Vector_val<std::_Simple_types<XMASMONSTER_MAP_DATA> > >::operator++
_TEXT	ENDS
; Function compile flags: /Ogtp
; File c:\program files (x86)\microsoft visual studio 14.0\vc\include\vector
;	COMDAT ??E?$_Vector_iterator@V?$_Vector_val@U?$_Simple_types@UXMASMONSTER_MAP_DATA@@@std@@@std@@@std@@QAEAAV01@XZ
_TEXT	SEGMENT
??E?$_Vector_iterator@V?$_Vector_val@U?$_Simple_types@UXMASMONSTER_MAP_DATA@@@std@@@std@@@std@@QAEAAV01@XZ PROC ; std::_Vector_iterator<std::_Vector_val<std::_Simple_types<XMASMONSTER_MAP_DATA> > >::operator++, COMDAT
; _this$ = ecx

; 112  : 		++this->_Ptr;

  00000	83 01 14	 add	 DWORD PTR [ecx], 20	; 00000014H

; 335  : 		++*(_Mybase *)this;
; 336  : 		return (*this);

  00003	8b c1		 mov	 eax, ecx

; 337  : 		}

  00005	c3		 ret	 0
??E?$_Vector_iterator@V?$_Vector_val@U?$_Simple_types@UXMASMONSTER_MAP_DATA@@@std@@@std@@@std@@QAEAAV01@XZ ENDP ; std::_Vector_iterator<std::_Vector_val<std::_Simple_types<XMASMONSTER_MAP_DATA> > >::operator++
_TEXT	ENDS
; Function compile flags: /Ogtp
; File c:\program files (x86)\microsoft visual studio 14.0\vc\include\vector
;	COMDAT ??0?$_Vector_iterator@V?$_Vector_val@U?$_Simple_types@UXMASMONSTER_MAP_DATA@@@std@@@std@@@std@@QAE@PAUXMASMONSTER_MAP_DATA@@PBU_Container_base0@1@@Z
_TEXT	SEGMENT
__Parg$ = 8						; size = 4
__Pvector$ = 12						; size = 4
??0?$_Vector_iterator@V?$_Vector_val@U?$_Simple_types@UXMASMONSTER_MAP_DATA@@@std@@@std@@@std@@QAE@PAUXMASMONSTER_MAP_DATA@@PBU_Container_base0@1@@Z PROC ; std::_Vector_iterator<std::_Vector_val<std::_Simple_types<XMASMONSTER_MAP_DATA> > >::_Vector_iterator<std::_Vector_val<std::_Simple_types<XMASMONSTER_MAP_DATA> > >, COMDAT
; _this$ = ecx

; 307  : 		{	// construct with pointer _Parg

  00000	55		 push	 ebp
  00001	8b ec		 mov	 ebp, esp

; 46   : 		: _Ptr(_Parg)

  00003	8b 45 08	 mov	 eax, DWORD PTR __Parg$[ebp]
  00006	89 01		 mov	 DWORD PTR [ecx], eax

; 308  : 		}

  00008	8b c1		 mov	 eax, ecx
  0000a	5d		 pop	 ebp
  0000b	c2 08 00	 ret	 8
??0?$_Vector_iterator@V?$_Vector_val@U?$_Simple_types@UXMASMONSTER_MAP_DATA@@@std@@@std@@@std@@QAE@PAUXMASMONSTER_MAP_DATA@@PBU_Container_base0@1@@Z ENDP ; std::_Vector_iterator<std::_Vector_val<std::_Simple_types<XMASMONSTER_MAP_DATA> > >::_Vector_iterator<std::_Vector_val<std::_Simple_types<XMASMONSTER_MAP_DATA> > >
_TEXT	ENDS
; Function compile flags: /Ogtp
; File c:\program files (x86)\microsoft visual studio 14.0\vc\include\vector
;	COMDAT ?_Compat@?$_Vector_const_iterator@V?$_Vector_val@U?$_Simple_types@UXMASMONSTER_MAP_DATA@@@std@@@std@@@std@@QBEXABV12@@Z
_TEXT	SEGMENT
___formal$ = 8						; size = 4
?_Compat@?$_Vector_const_iterator@V?$_Vector_val@U?$_Simple_types@UXMASMONSTER_MAP_DATA@@@std@@@std@@@std@@QBEXABV12@@Z PROC ; std::_Vector_const_iterator<std::_Vector_val<std::_Simple_types<XMASMONSTER_MAP_DATA> > >::_Compat, COMDAT
; _this$ = ecx

; 256  : 		}

  00000	c2 04 00	 ret	 4
?_Compat@?$_Vector_const_iterator@V?$_Vector_val@U?$_Simple_types@UXMASMONSTER_MAP_DATA@@@std@@@std@@@std@@QBEXABV12@@Z ENDP ; std::_Vector_const_iterator<std::_Vector_val<std::_Simple_types<XMASMONSTER_MAP_DATA> > >::_Compat
_TEXT	ENDS
; Function compile flags: /Ogtp
; File c:\program files (x86)\microsoft visual studio 14.0\vc\include\vector
;	COMDAT ??9?$_Vector_const_iterator@V?$_Vector_val@U?$_Simple_types@UXMASMONSTER_MAP_DATA@@@std@@@std@@@std@@QBE_NABV01@@Z
_TEXT	SEGMENT
__Right$ = 8						; size = 4
??9?$_Vector_const_iterator@V?$_Vector_val@U?$_Simple_types@UXMASMONSTER_MAP_DATA@@@std@@@std@@@std@@QBE_NABV01@@Z PROC ; std::_Vector_const_iterator<std::_Vector_val<std::_Simple_types<XMASMONSTER_MAP_DATA> > >::operator!=, COMDAT
; _this$ = ecx

; 210  : 		{	// test for iterator inequality

  00000	55		 push	 ebp
  00001	8b ec		 mov	 ebp, esp

; 206  : 		return (this->_Ptr == _Right._Ptr);

  00003	8b 11		 mov	 edx, DWORD PTR [ecx]

; 211  : 		return (!(*this == _Right));

  00005	33 c0		 xor	 eax, eax

; 206  : 		return (this->_Ptr == _Right._Ptr);

  00007	8b 4d 08	 mov	 ecx, DWORD PTR __Right$[ebp]
  0000a	3b 11		 cmp	 edx, DWORD PTR [ecx]

; 211  : 		return (!(*this == _Right));

  0000c	0f 95 c0	 setne	 al

; 212  : 		}

  0000f	5d		 pop	 ebp
  00010	c2 04 00	 ret	 4
??9?$_Vector_const_iterator@V?$_Vector_val@U?$_Simple_types@UXMASMONSTER_MAP_DATA@@@std@@@std@@@std@@QBE_NABV01@@Z ENDP ; std::_Vector_const_iterator<std::_Vector_val<std::_Simple_types<XMASMONSTER_MAP_DATA> > >::operator!=
_TEXT	ENDS
; Function compile flags: /Ogtp
; File c:\program files (x86)\microsoft visual studio 14.0\vc\include\vector
;	COMDAT ??8?$_Vector_const_iterator@V?$_Vector_val@U?$_Simple_types@UXMASMONSTER_MAP_DATA@@@std@@@std@@@std@@QBE_NABV01@@Z
_TEXT	SEGMENT
__Right$ = 8						; size = 4
??8?$_Vector_const_iterator@V?$_Vector_val@U?$_Simple_types@UXMASMONSTER_MAP_DATA@@@std@@@std@@@std@@QBE_NABV01@@Z PROC ; std::_Vector_const_iterator<std::_Vector_val<std::_Simple_types<XMASMONSTER_MAP_DATA> > >::operator==, COMDAT
; _this$ = ecx

; 203  : 		{	// test for iterator equality

  00000	55		 push	 ebp
  00001	8b ec		 mov	 ebp, esp

; 204  : 		if (this->_Getcont() != _Right._Getcont())
; 205  : 			_Compat(_Right);
; 206  : 		return (this->_Ptr == _Right._Ptr);

  00003	8b 11		 mov	 edx, DWORD PTR [ecx]
  00005	33 c0		 xor	 eax, eax
  00007	8b 4d 08	 mov	 ecx, DWORD PTR __Right$[ebp]
  0000a	3b 11		 cmp	 edx, DWORD PTR [ecx]
  0000c	0f 94 c0	 sete	 al

; 207  : 		}

  0000f	5d		 pop	 ebp
  00010	c2 04 00	 ret	 4
??8?$_Vector_const_iterator@V?$_Vector_val@U?$_Simple_types@UXMASMONSTER_MAP_DATA@@@std@@@std@@@std@@QBE_NABV01@@Z ENDP ; std::_Vector_const_iterator<std::_Vector_val<std::_Simple_types<XMASMONSTER_MAP_DATA> > >::operator==
_TEXT	ENDS
; Function compile flags: /Ogtp
; File c:\program files (x86)\microsoft visual studio 14.0\vc\include\vector
;	COMDAT ??E?$_Vector_const_iterator@V?$_Vector_val@U?$_Simple_types@UXMASMONSTER_MAP_DATA@@@std@@@std@@@std@@QAEAAV01@XZ
_TEXT	SEGMENT
??E?$_Vector_const_iterator@V?$_Vector_val@U?$_Simple_types@UXMASMONSTER_MAP_DATA@@@std@@@std@@@std@@QAEAAV01@XZ PROC ; std::_Vector_const_iterator<std::_Vector_val<std::_Simple_types<XMASMONSTER_MAP_DATA> > >::operator++, COMDAT
; _this$ = ecx

; 96   :  #if _ITERATOR_DEBUG_LEVEL == 2
; 97   : 		if (this->_Getcont() == 0
; 98   : 			|| this->_Ptr == 0
; 99   : 			|| ((_Myvec *)this->_Getcont())->_Mylast <= this->_Ptr)
; 100  : 			{	// report error
; 101  : 			_DEBUG_ERROR("vector iterator not incrementable");
; 102  : 			_SCL_SECURE_OUT_OF_RANGE;
; 103  : 			}
; 104  : 
; 105  :  #elif _ITERATOR_DEBUG_LEVEL == 1
; 106  : 		_SCL_SECURE_VALIDATE(this->_Getcont() != 0);
; 107  : 		_SCL_SECURE_VALIDATE_RANGE(
; 108  : 			this->_Ptr != _Tptr()
; 109  : 			&& this->_Ptr < ((_Myvec *)this->_Getcont())->_Mylast);
; 110  :  #endif /* _ITERATOR_DEBUG_LEVEL */
; 111  : 
; 112  : 		++this->_Ptr;

  00000	83 01 14	 add	 DWORD PTR [ecx], 20	; 00000014H

; 113  : 		return (*this);

  00003	8b c1		 mov	 eax, ecx

; 114  : 		}

  00005	c3		 ret	 0
??E?$_Vector_const_iterator@V?$_Vector_val@U?$_Simple_types@UXMASMONSTER_MAP_DATA@@@std@@@std@@@std@@QAEAAV01@XZ ENDP ; std::_Vector_const_iterator<std::_Vector_val<std::_Simple_types<XMASMONSTER_MAP_DATA> > >::operator++
_TEXT	ENDS
; Function compile flags: /Ogtp
; File c:\program files (x86)\microsoft visual studio 14.0\vc\include\vector
;	COMDAT ??0?$_Vector_const_iterator@V?$_Vector_val@U?$_Simple_types@UXMASMONSTER_MAP_DATA@@@std@@@std@@@std@@QAE@PAUXMASMONSTER_MAP_DATA@@PBU_Container_base0@1@@Z
_TEXT	SEGMENT
__Parg$ = 8						; size = 4
__Pvector$ = 12						; size = 4
??0?$_Vector_const_iterator@V?$_Vector_val@U?$_Simple_types@UXMASMONSTER_MAP_DATA@@@std@@@std@@@std@@QAE@PAUXMASMONSTER_MAP_DATA@@PBU_Container_base0@1@@Z PROC ; std::_Vector_const_iterator<std::_Vector_val<std::_Simple_types<XMASMONSTER_MAP_DATA> > >::_Vector_const_iterator<std::_Vector_val<std::_Simple_types<XMASMONSTER_MAP_DATA> > >, COMDAT
; _this$ = ecx

; 47   : 		{	// construct with pointer _Parg

  00000	55		 push	 ebp
  00001	8b ec		 mov	 ebp, esp

; 46   : 		: _Ptr(_Parg)

  00003	8b 45 08	 mov	 eax, DWORD PTR __Parg$[ebp]
  00006	89 01		 mov	 DWORD PTR [ecx], eax

; 48   : 		this->_Adopt(_Pvector);
; 49   : 		}

  00008	8b c1		 mov	 eax, ecx
  0000a	5d		 pop	 ebp
  0000b	c2 08 00	 ret	 8
??0?$_Vector_const_iterator@V?$_Vector_val@U?$_Simple_types@UXMASMONSTER_MAP_DATA@@@std@@@std@@@std@@QAE@PAUXMASMONSTER_MAP_DATA@@PBU_Container_base0@1@@Z ENDP ; std::_Vector_const_iterator<std::_Vector_val<std::_Simple_types<XMASMONSTER_MAP_DATA> > >::_Vector_const_iterator<std::_Vector_val<std::_Simple_types<XMASMONSTER_MAP_DATA> > >
_TEXT	ENDS
; Function compile flags: /Ogtp
; File c:\program files (x86)\microsoft visual studio 14.0\vc\include\vector
;	COMDAT ??E?$_Vector_iterator@V?$_Vector_val@U?$_Simple_types@PAVCXMasMonsterHerd@@@std@@@std@@@std@@QAE?AV01@H@Z
_TEXT	SEGMENT
___$ReturnUdt$ = 8					; size = 4
___formal$ = 12						; size = 4
??E?$_Vector_iterator@V?$_Vector_val@U?$_Simple_types@PAVCXMasMonsterHerd@@@std@@@std@@@std@@QAE?AV01@H@Z PROC ; std::_Vector_iterator<std::_Vector_val<std::_Simple_types<CXMasMonsterHerd *> > >::operator++, COMDAT
; _this$ = ecx

; 340  : 		{	// postincrement

  00000	55		 push	 ebp
  00001	8b ec		 mov	 ebp, esp

; 341  : 		_Myiter _Tmp = *this;

  00003	8b 45 08	 mov	 eax, DWORD PTR ___$ReturnUdt$[ebp]
  00006	8b 11		 mov	 edx, DWORD PTR [ecx]
  00008	89 10		 mov	 DWORD PTR [eax], edx

; 112  : 		++this->_Ptr;

  0000a	83 c2 04	 add	 edx, 4
  0000d	89 11		 mov	 DWORD PTR [ecx], edx

; 342  : 		++*this;
; 343  : 		return (_Tmp);
; 344  : 		}

  0000f	5d		 pop	 ebp
  00010	c2 08 00	 ret	 8
??E?$_Vector_iterator@V?$_Vector_val@U?$_Simple_types@PAVCXMasMonsterHerd@@@std@@@std@@@std@@QAE?AV01@H@Z ENDP ; std::_Vector_iterator<std::_Vector_val<std::_Simple_types<CXMasMonsterHerd *> > >::operator++
_TEXT	ENDS
; Function compile flags: /Ogtp
; File c:\program files (x86)\microsoft visual studio 14.0\vc\include\vector
;	COMDAT ??E?$_Vector_iterator@V?$_Vector_val@U?$_Simple_types@PAVCXMasMonsterHerd@@@std@@@std@@@std@@QAEAAV01@XZ
_TEXT	SEGMENT
??E?$_Vector_iterator@V?$_Vector_val@U?$_Simple_types@PAVCXMasMonsterHerd@@@std@@@std@@@std@@QAEAAV01@XZ PROC ; std::_Vector_iterator<std::_Vector_val<std::_Simple_types<CXMasMonsterHerd *> > >::operator++, COMDAT
; _this$ = ecx

; 112  : 		++this->_Ptr;

  00000	83 01 04	 add	 DWORD PTR [ecx], 4

; 335  : 		++*(_Mybase *)this;
; 336  : 		return (*this);

  00003	8b c1		 mov	 eax, ecx

; 337  : 		}

  00005	c3		 ret	 0
??E?$_Vector_iterator@V?$_Vector_val@U?$_Simple_types@PAVCXMasMonsterHerd@@@std@@@std@@@std@@QAEAAV01@XZ ENDP ; std::_Vector_iterator<std::_Vector_val<std::_Simple_types<CXMasMonsterHerd *> > >::operator++
_TEXT	ENDS
; Function compile flags: /Ogtp
; File c:\program files (x86)\microsoft visual studio 14.0\vc\include\vector
;	COMDAT ??D?$_Vector_iterator@V?$_Vector_val@U?$_Simple_types@PAVCXMasMonsterHerd@@@std@@@std@@@std@@QBEAAPAVCXMasMonsterHerd@@XZ
_TEXT	SEGMENT
??D?$_Vector_iterator@V?$_Vector_val@U?$_Simple_types@PAVCXMasMonsterHerd@@@std@@@std@@@std@@QBEAAPAVCXMasMonsterHerd@@XZ PROC ; std::_Vector_iterator<std::_Vector_val<std::_Simple_types<CXMasMonsterHerd *> > >::operator*, COMDAT
; _this$ = ecx

; 325  : 		return ((reference)**(_Mybase *)this);

  00000	8b 01		 mov	 eax, DWORD PTR [ecx]

; 326  : 		}

  00002	c3		 ret	 0
??D?$_Vector_iterator@V?$_Vector_val@U?$_Simple_types@PAVCXMasMonsterHerd@@@std@@@std@@@std@@QBEAAPAVCXMasMonsterHerd@@XZ ENDP ; std::_Vector_iterator<std::_Vector_val<std::_Simple_types<CXMasMonsterHerd *> > >::operator*
_TEXT	ENDS
; Function compile flags: /Ogtp
; File c:\program files (x86)\microsoft visual studio 14.0\vc\include\vector
;	COMDAT ??0?$_Vector_iterator@V?$_Vector_val@U?$_Simple_types@PAVCXMasMonsterHerd@@@std@@@std@@@std@@QAE@PAPAVCXMasMonsterHerd@@PBU_Container_base0@1@@Z
_TEXT	SEGMENT
__Parg$ = 8						; size = 4
__Pvector$ = 12						; size = 4
??0?$_Vector_iterator@V?$_Vector_val@U?$_Simple_types@PAVCXMasMonsterHerd@@@std@@@std@@@std@@QAE@PAPAVCXMasMonsterHerd@@PBU_Container_base0@1@@Z PROC ; std::_Vector_iterator<std::_Vector_val<std::_Simple_types<CXMasMonsterHerd *> > >::_Vector_iterator<std::_Vector_val<std::_Simple_types<CXMasMonsterHerd *> > >, COMDAT
; _this$ = ecx

; 307  : 		{	// construct with pointer _Parg

  00000	55		 push	 ebp
  00001	8b ec		 mov	 ebp, esp

; 46   : 		: _Ptr(_Parg)

  00003	8b 45 08	 mov	 eax, DWORD PTR __Parg$[ebp]
  00006	89 01		 mov	 DWORD PTR [ecx], eax

; 308  : 		}

  00008	8b c1		 mov	 eax, ecx
  0000a	5d		 pop	 ebp
  0000b	c2 08 00	 ret	 8
??0?$_Vector_iterator@V?$_Vector_val@U?$_Simple_types@PAVCXMasMonsterHerd@@@std@@@std@@@std@@QAE@PAPAVCXMasMonsterHerd@@PBU_Container_base0@1@@Z ENDP ; std::_Vector_iterator<std::_Vector_val<std::_Simple_types<CXMasMonsterHerd *> > >::_Vector_iterator<std::_Vector_val<std::_Simple_types<CXMasMonsterHerd *> > >
_TEXT	ENDS
; Function compile flags: /Ogtp
; File c:\program files (x86)\microsoft visual studio 14.0\vc\include\vector
;	COMDAT ?_Compat@?$_Vector_const_iterator@V?$_Vector_val@U?$_Simple_types@PAVCXMasMonsterHerd@@@std@@@std@@@std@@QBEXABV12@@Z
_TEXT	SEGMENT
___formal$ = 8						; size = 4
?_Compat@?$_Vector_const_iterator@V?$_Vector_val@U?$_Simple_types@PAVCXMasMonsterHerd@@@std@@@std@@@std@@QBEXABV12@@Z PROC ; std::_Vector_const_iterator<std::_Vector_val<std::_Simple_types<CXMasMonsterHerd *> > >::_Compat, COMDAT
; _this$ = ecx

; 256  : 		}

  00000	c2 04 00	 ret	 4
?_Compat@?$_Vector_const_iterator@V?$_Vector_val@U?$_Simple_types@PAVCXMasMonsterHerd@@@std@@@std@@@std@@QBEXABV12@@Z ENDP ; std::_Vector_const_iterator<std::_Vector_val<std::_Simple_types<CXMasMonsterHerd *> > >::_Compat
_TEXT	ENDS
; Function compile flags: /Ogtp
; File c:\program files (x86)\microsoft visual studio 14.0\vc\include\vector
;	COMDAT ??9?$_Vector_const_iterator@V?$_Vector_val@U?$_Simple_types@PAVCXMasMonsterHerd@@@std@@@std@@@std@@QBE_NABV01@@Z
_TEXT	SEGMENT
__Right$ = 8						; size = 4
??9?$_Vector_const_iterator@V?$_Vector_val@U?$_Simple_types@PAVCXMasMonsterHerd@@@std@@@std@@@std@@QBE_NABV01@@Z PROC ; std::_Vector_const_iterator<std::_Vector_val<std::_Simple_types<CXMasMonsterHerd *> > >::operator!=, COMDAT
; _this$ = ecx

; 210  : 		{	// test for iterator inequality

  00000	55		 push	 ebp
  00001	8b ec		 mov	 ebp, esp

; 206  : 		return (this->_Ptr == _Right._Ptr);

  00003	8b 11		 mov	 edx, DWORD PTR [ecx]

; 211  : 		return (!(*this == _Right));

  00005	33 c0		 xor	 eax, eax

; 206  : 		return (this->_Ptr == _Right._Ptr);

  00007	8b 4d 08	 mov	 ecx, DWORD PTR __Right$[ebp]
  0000a	3b 11		 cmp	 edx, DWORD PTR [ecx]

; 211  : 		return (!(*this == _Right));

  0000c	0f 95 c0	 setne	 al

; 212  : 		}

  0000f	5d		 pop	 ebp
  00010	c2 04 00	 ret	 4
??9?$_Vector_const_iterator@V?$_Vector_val@U?$_Simple_types@PAVCXMasMonsterHerd@@@std@@@std@@@std@@QBE_NABV01@@Z ENDP ; std::_Vector_const_iterator<std::_Vector_val<std::_Simple_types<CXMasMonsterHerd *> > >::operator!=
_TEXT	ENDS
; Function compile flags: /Ogtp
; File c:\program files (x86)\microsoft visual studio 14.0\vc\include\vector
;	COMDAT ??8?$_Vector_const_iterator@V?$_Vector_val@U?$_Simple_types@PAVCXMasMonsterHerd@@@std@@@std@@@std@@QBE_NABV01@@Z
_TEXT	SEGMENT
__Right$ = 8						; size = 4
??8?$_Vector_const_iterator@V?$_Vector_val@U?$_Simple_types@PAVCXMasMonsterHerd@@@std@@@std@@@std@@QBE_NABV01@@Z PROC ; std::_Vector_const_iterator<std::_Vector_val<std::_Simple_types<CXMasMonsterHerd *> > >::operator==, COMDAT
; _this$ = ecx

; 203  : 		{	// test for iterator equality

  00000	55		 push	 ebp
  00001	8b ec		 mov	 ebp, esp

; 204  : 		if (this->_Getcont() != _Right._Getcont())
; 205  : 			_Compat(_Right);
; 206  : 		return (this->_Ptr == _Right._Ptr);

  00003	8b 11		 mov	 edx, DWORD PTR [ecx]
  00005	33 c0		 xor	 eax, eax
  00007	8b 4d 08	 mov	 ecx, DWORD PTR __Right$[ebp]
  0000a	3b 11		 cmp	 edx, DWORD PTR [ecx]
  0000c	0f 94 c0	 sete	 al

; 207  : 		}

  0000f	5d		 pop	 ebp
  00010	c2 04 00	 ret	 4
??8?$_Vector_const_iterator@V?$_Vector_val@U?$_Simple_types@PAVCXMasMonsterHerd@@@std@@@std@@@std@@QBE_NABV01@@Z ENDP ; std::_Vector_const_iterator<std::_Vector_val<std::_Simple_types<CXMasMonsterHerd *> > >::operator==
_TEXT	ENDS
; Function compile flags: /Ogtp
; File c:\program files (x86)\microsoft visual studio 14.0\vc\include\vector
;	COMDAT ??E?$_Vector_const_iterator@V?$_Vector_val@U?$_Simple_types@PAVCXMasMonsterHerd@@@std@@@std@@@std@@QAEAAV01@XZ
_TEXT	SEGMENT
??E?$_Vector_const_iterator@V?$_Vector_val@U?$_Simple_types@PAVCXMasMonsterHerd@@@std@@@std@@@std@@QAEAAV01@XZ PROC ; std::_Vector_const_iterator<std::_Vector_val<std::_Simple_types<CXMasMonsterHerd *> > >::operator++, COMDAT
; _this$ = ecx

; 96   :  #if _ITERATOR_DEBUG_LEVEL == 2
; 97   : 		if (this->_Getcont() == 0
; 98   : 			|| this->_Ptr == 0
; 99   : 			|| ((_Myvec *)this->_Getcont())->_Mylast <= this->_Ptr)
; 100  : 			{	// report error
; 101  : 			_DEBUG_ERROR("vector iterator not incrementable");
; 102  : 			_SCL_SECURE_OUT_OF_RANGE;
; 103  : 			}
; 104  : 
; 105  :  #elif _ITERATOR_DEBUG_LEVEL == 1
; 106  : 		_SCL_SECURE_VALIDATE(this->_Getcont() != 0);
; 107  : 		_SCL_SECURE_VALIDATE_RANGE(
; 108  : 			this->_Ptr != _Tptr()
; 109  : 			&& this->_Ptr < ((_Myvec *)this->_Getcont())->_Mylast);
; 110  :  #endif /* _ITERATOR_DEBUG_LEVEL */
; 111  : 
; 112  : 		++this->_Ptr;

  00000	83 01 04	 add	 DWORD PTR [ecx], 4

; 113  : 		return (*this);

  00003	8b c1		 mov	 eax, ecx

; 114  : 		}

  00005	c3		 ret	 0
??E?$_Vector_const_iterator@V?$_Vector_val@U?$_Simple_types@PAVCXMasMonsterHerd@@@std@@@std@@@std@@QAEAAV01@XZ ENDP ; std::_Vector_const_iterator<std::_Vector_val<std::_Simple_types<CXMasMonsterHerd *> > >::operator++
_TEXT	ENDS
; Function compile flags: /Ogtp
; File c:\program files (x86)\microsoft visual studio 14.0\vc\include\vector
;	COMDAT ??D?$_Vector_const_iterator@V?$_Vector_val@U?$_Simple_types@PAVCXMasMonsterHerd@@@std@@@std@@@std@@QBEABQAVCXMasMonsterHerd@@XZ
_TEXT	SEGMENT
??D?$_Vector_const_iterator@V?$_Vector_val@U?$_Simple_types@PAVCXMasMonsterHerd@@@std@@@std@@@std@@QBEABQAVCXMasMonsterHerd@@XZ PROC ; std::_Vector_const_iterator<std::_Vector_val<std::_Simple_types<CXMasMonsterHerd *> > >::operator*, COMDAT
; _this$ = ecx

; 66   :  #if _ITERATOR_DEBUG_LEVEL == 2
; 67   : 		if (this->_Getcont() == 0
; 68   : 			|| this->_Ptr == 0
; 69   : 			|| this->_Ptr < ((_Myvec *)this->_Getcont())->_Myfirst
; 70   : 			|| ((_Myvec *)this->_Getcont())->_Mylast <= this->_Ptr)
; 71   : 			{	// report error
; 72   : 			_DEBUG_ERROR("vector iterator not dereferencable");
; 73   : 			_SCL_SECURE_OUT_OF_RANGE;
; 74   : 			}
; 75   : 
; 76   :  #elif _ITERATOR_DEBUG_LEVEL == 1
; 77   : 		_SCL_SECURE_VALIDATE(this->_Getcont() != 0);
; 78   : 		_SCL_SECURE_VALIDATE_RANGE(
; 79   : 			this->_Ptr != _Tptr()
; 80   : 			&& ((_Myvec *)this->_Getcont())->_Myfirst <= this->_Ptr
; 81   : 			&& this->_Ptr < ((_Myvec *)this->_Getcont())->_Mylast);
; 82   :  #endif /* _ITERATOR_DEBUG_LEVEL */
; 83   : 
; 84   : 		_Analysis_assume_(this->_Ptr != _Tptr());
; 85   : 
; 86   : 		return (*this->_Ptr);

  00000	8b 01		 mov	 eax, DWORD PTR [ecx]

; 87   : 		}

  00002	c3		 ret	 0
??D?$_Vector_const_iterator@V?$_Vector_val@U?$_Simple_types@PAVCXMasMonsterHerd@@@std@@@std@@@std@@QBEABQAVCXMasMonsterHerd@@XZ ENDP ; std::_Vector_const_iterator<std::_Vector_val<std::_Simple_types<CXMasMonsterHerd *> > >::operator*
_TEXT	ENDS
; Function compile flags: /Ogtp
; File c:\program files (x86)\microsoft visual studio 14.0\vc\include\vector
;	COMDAT ??0?$_Vector_const_iterator@V?$_Vector_val@U?$_Simple_types@PAVCXMasMonsterHerd@@@std@@@std@@@std@@QAE@PAPAVCXMasMonsterHerd@@PBU_Container_base0@1@@Z
_TEXT	SEGMENT
__Parg$ = 8						; size = 4
__Pvector$ = 12						; size = 4
??0?$_Vector_const_iterator@V?$_Vector_val@U?$_Simple_types@PAVCXMasMonsterHerd@@@std@@@std@@@std@@QAE@PAPAVCXMasMonsterHerd@@PBU_Container_base0@1@@Z PROC ; std::_Vector_const_iterator<std::_Vector_val<std::_Simple_types<CXMasMonsterHerd *> > >::_Vector_const_iterator<std::_Vector_val<std::_Simple_types<CXMasMonsterHerd *> > >, COMDAT
; _this$ = ecx

; 47   : 		{	// construct with pointer _Parg

  00000	55		 push	 ebp
  00001	8b ec		 mov	 ebp, esp

; 46   : 		: _Ptr(_Parg)

  00003	8b 45 08	 mov	 eax, DWORD PTR __Parg$[ebp]
  00006	89 01		 mov	 DWORD PTR [ecx], eax

; 48   : 		this->_Adopt(_Pvector);
; 49   : 		}

  00008	8b c1		 mov	 eax, ecx
  0000a	5d		 pop	 ebp
  0000b	c2 08 00	 ret	 8
??0?$_Vector_const_iterator@V?$_Vector_val@U?$_Simple_types@PAVCXMasMonsterHerd@@@std@@@std@@@std@@QAE@PAPAVCXMasMonsterHerd@@PBU_Container_base0@1@@Z ENDP ; std::_Vector_const_iterator<std::_Vector_val<std::_Simple_types<CXMasMonsterHerd *> > >::_Vector_const_iterator<std::_Vector_val<std::_Simple_types<CXMasMonsterHerd *> > >
_TEXT	ENDS
; Function compile flags: /Ogtp
; File c:\users\michel\desktop\source\gameserver\include\readscript.h
;	COMDAT ?GetToken@@YA?AW4SMDToken@@XZ
_TEXT	SEGMENT
_TempString$ = -104					; size = 100
__$ArrayPad$ = -4					; size = 4
?GetToken@@YA?AW4SMDToken@@XZ PROC			; GetToken, COMDAT

; 24   : {

  00000	55		 push	 ebp
  00001	8b ec		 mov	 ebp, esp
  00003	83 ec 68	 sub	 esp, 104		; 00000068H
  00006	a1 00 00 00 00	 mov	 eax, DWORD PTR ___security_cookie
  0000b	33 c5		 xor	 eax, ebp
  0000d	89 45 fc	 mov	 DWORD PTR __$ArrayPad$[ebp], eax

; 25   : 	int ch;
; 26   : 	char* p;
; 27   : 	char TempString[100];
; 28   : 
; 29   : 	TokenString[0]=0;

  00010	c6 05 00 00 00
	00 00		 mov	 BYTE PTR ?TokenString@@3PADA, 0
  00017	53		 push	 ebx
  00018	0f 1f 84 00 00
	00 00 00	 npad	 8
$LL4@GetToken:

; 30   : 
; 31   : 	do
; 32   : 	{
; 33   : 		if ((ch=fgetc(SMDFile)) == -1)

  00020	ff 35 00 00 00
	00		 push	 DWORD PTR ?SMDFile@@3PAU_iobuf@@A
  00026	e8 00 00 00 00	 call	 _fgetc
  0002b	8b d8		 mov	 ebx, eax
  0002d	83 c4 04	 add	 esp, 4
  00030	83 fb ff	 cmp	 ebx, -1
  00033	74 5d		 je	 SHORT $LN43@GetToken

; 34   : 		{
; 35   : 			return END;	// End of FILE (EOF)
; 36   : 		}
; 37   : 		else
; 38   : 		{	
; 39   : 			if (ch=='/')		// this is /

  00035	83 fb 2f	 cmp	 ebx, 47			; 0000002fH
  00038	75 30		 jne	 SHORT $LN2@GetToken

; 40   : 			{
; 41   : 				if((ch=fgetc(SMDFile)) == '/')

  0003a	ff 35 00 00 00
	00		 push	 DWORD PTR ?SMDFile@@3PAU_iobuf@@A
  00040	e8 00 00 00 00	 call	 _fgetc
  00045	8b d8		 mov	 ebx, eax
  00047	83 c4 04	 add	 esp, 4
  0004a	83 fb 2f	 cmp	 ebx, 47			; 0000002fH
  0004d	75 1b		 jne	 SHORT $LN2@GetToken
  0004f	90		 npad	 1
$LL5@GetToken:

; 42   : 				{
; 43   : 					while ((ch != '\n') && (ch != -1))	// End of Line (EOL)

  00050	83 fb ff	 cmp	 ebx, -1
  00053	74 3d		 je	 SHORT $LN43@GetToken

; 44   : 					{
; 45   : 						ch=fgetc(SMDFile);

  00055	ff 35 00 00 00
	00		 push	 DWORD PTR ?SMDFile@@3PAU_iobuf@@A
  0005b	e8 00 00 00 00	 call	 _fgetc
  00060	8b d8		 mov	 ebx, eax
  00062	83 c4 04	 add	 esp, 4
  00065	83 fb 0a	 cmp	 ebx, 10			; 0000000aH
  00068	75 e6		 jne	 SHORT $LL5@GetToken
$LN2@GetToken:

; 51   : 					}
; 52   : 				}
; 53   : 			}
; 54   : 		}
; 55   : 	}
; 56   : 	while (isspace(ch) != 0);

  0006a	53		 push	 ebx
  0006b	e8 00 00 00 00	 call	 _isspace
  00070	83 c4 04	 add	 esp, 4
  00073	85 c0		 test	 eax, eax
  00075	75 a9		 jne	 SHORT $LL4@GetToken

; 57   : 
; 58   : 	
; 59   : 	switch(ch)

  00077	8d 43 de	 lea	 eax, DWORD PTR [ebx-34]
  0007a	56		 push	 esi
  0007b	83 f8 5b	 cmp	 eax, 91			; 0000005bH
  0007e	0f 87 89 01 00
	00		 ja	 $LN29@GetToken
  00084	0f b6 80 00 00
	00 00		 movzx	 eax, BYTE PTR $LN58@GetToken[eax]
  0008b	ff 24 85 00 00
	00 00		 jmp	 DWORD PTR $LN64@GetToken[eax*4]
$LN43@GetToken:

; 46   : 					}
; 47   : 	
; 48   : 					if (ch == -1)
; 49   : 					{
; 50   : 						return END;	// End of FILE

  00092	b8 02 00 00 00	 mov	 eax, 2
  00097	5b		 pop	 ebx

; 143  : 		}
; 144  : 		else
; 145  : 		{
; 146  : 			return CurrentToken = SMD_ERROR; // '<'
; 147  : 		}
; 148  : 		break;
; 149  : 
; 150  : 	}
; 151  : 
; 152  : 	return NAME;
; 153  : }

  00098	8b 4d fc	 mov	 ecx, DWORD PTR __$ArrayPad$[ebp]
  0009b	33 cd		 xor	 ecx, ebp
  0009d	e8 00 00 00 00	 call	 @__security_check_cookie@4
  000a2	8b e5		 mov	 esp, ebp
  000a4	5d		 pop	 ebp
  000a5	c3		 ret	 0
$LN20@GetToken:
  000a6	5e		 pop	 esi

; 60   : 	{
; 61   : 
; 62   : 	case 0x23:	// #
; 63   : 		return CurrentToken=COMMAND;

  000a7	c7 05 00 00 00
	00 23 00 00 00	 mov	 DWORD PTR ?CurrentToken@@3W4SMDToken@@A, 35 ; 00000023H
  000b1	b8 23 00 00 00	 mov	 eax, 35			; 00000023H
  000b6	5b		 pop	 ebx

; 143  : 		}
; 144  : 		else
; 145  : 		{
; 146  : 			return CurrentToken = SMD_ERROR; // '<'
; 147  : 		}
; 148  : 		break;
; 149  : 
; 150  : 	}
; 151  : 
; 152  : 	return NAME;
; 153  : }

  000b7	8b 4d fc	 mov	 ecx, DWORD PTR __$ArrayPad$[ebp]
  000ba	33 cd		 xor	 ecx, ebp
  000bc	e8 00 00 00 00	 call	 @__security_check_cookie@4
  000c1	8b e5		 mov	 esp, ebp
  000c3	5d		 pop	 ebp
  000c4	c3		 ret	 0
$LN21@GetToken:
  000c5	5e		 pop	 esi

; 64   : 		break;
; 65   : 	
; 66   : 	case 0x3B:	// ;
; 67   : 		return CurrentToken=SEMICOLON;

  000c6	c7 05 00 00 00
	00 3b 00 00 00	 mov	 DWORD PTR ?CurrentToken@@3W4SMDToken@@A, 59 ; 0000003bH
  000d0	b8 3b 00 00 00	 mov	 eax, 59			; 0000003bH
  000d5	5b		 pop	 ebx

; 143  : 		}
; 144  : 		else
; 145  : 		{
; 146  : 			return CurrentToken = SMD_ERROR; // '<'
; 147  : 		}
; 148  : 		break;
; 149  : 
; 150  : 	}
; 151  : 
; 152  : 	return NAME;
; 153  : }

  000d6	8b 4d fc	 mov	 ecx, DWORD PTR __$ArrayPad$[ebp]
  000d9	33 cd		 xor	 ecx, ebp
  000db	e8 00 00 00 00	 call	 @__security_check_cookie@4
  000e0	8b e5		 mov	 esp, ebp
  000e2	5d		 pop	 ebp
  000e3	c3		 ret	 0
$LN22@GetToken:
  000e4	5e		 pop	 esi

; 68   : 		break;
; 69   : 	
; 70   : 	case 0x2C:	// ,
; 71   : 
; 72   : 		return CurrentToken=COMMA;

  000e5	c7 05 00 00 00
	00 2c 00 00 00	 mov	 DWORD PTR ?CurrentToken@@3W4SMDToken@@A, 44 ; 0000002cH
  000ef	b8 2c 00 00 00	 mov	 eax, 44			; 0000002cH
  000f4	5b		 pop	 ebx

; 143  : 		}
; 144  : 		else
; 145  : 		{
; 146  : 			return CurrentToken = SMD_ERROR; // '<'
; 147  : 		}
; 148  : 		break;
; 149  : 
; 150  : 	}
; 151  : 
; 152  : 	return NAME;
; 153  : }

  000f5	8b 4d fc	 mov	 ecx, DWORD PTR __$ArrayPad$[ebp]
  000f8	33 cd		 xor	 ecx, ebp
  000fa	e8 00 00 00 00	 call	 @__security_check_cookie@4
  000ff	8b e5		 mov	 esp, ebp
  00101	5d		 pop	 ebp
  00102	c3		 ret	 0
$LN23@GetToken:
  00103	5e		 pop	 esi

; 73   : 		break;
; 74   : 	
; 75   : 	case 0x7B:	// {
; 76   : 		return CurrentToken = LP;

  00104	c7 05 00 00 00
	00 7b 00 00 00	 mov	 DWORD PTR ?CurrentToken@@3W4SMDToken@@A, 123 ; 0000007bH
  0010e	b8 7b 00 00 00	 mov	 eax, 123		; 0000007bH
  00113	5b		 pop	 ebx

; 143  : 		}
; 144  : 		else
; 145  : 		{
; 146  : 			return CurrentToken = SMD_ERROR; // '<'
; 147  : 		}
; 148  : 		break;
; 149  : 
; 150  : 	}
; 151  : 
; 152  : 	return NAME;
; 153  : }

  00114	8b 4d fc	 mov	 ecx, DWORD PTR __$ArrayPad$[ebp]
  00117	33 cd		 xor	 ecx, ebp
  00119	e8 00 00 00 00	 call	 @__security_check_cookie@4
  0011e	8b e5		 mov	 esp, ebp
  00120	5d		 pop	 ebp
  00121	c3		 ret	 0
$LN24@GetToken:
  00122	5e		 pop	 esi

; 77   : 		break;
; 78   : 
; 79   : 	case 0x7D:	// }
; 80   : 		return CurrentToken = RP;

  00123	c7 05 00 00 00
	00 7d 00 00 00	 mov	 DWORD PTR ?CurrentToken@@3W4SMDToken@@A, 125 ; 0000007dH
  0012d	b8 7d 00 00 00	 mov	 eax, 125		; 0000007dH
  00132	5b		 pop	 ebx

; 143  : 		}
; 144  : 		else
; 145  : 		{
; 146  : 			return CurrentToken = SMD_ERROR; // '<'
; 147  : 		}
; 148  : 		break;
; 149  : 
; 150  : 	}
; 151  : 
; 152  : 	return NAME;
; 153  : }

  00133	8b 4d fc	 mov	 ecx, DWORD PTR __$ArrayPad$[ebp]
  00136	33 cd		 xor	 ecx, ebp
  00138	e8 00 00 00 00	 call	 @__security_check_cookie@4
  0013d	8b e5		 mov	 esp, ebp
  0013f	5d		 pop	 ebp
  00140	c3		 ret	 0
$LN25@GetToken:

; 81   : 		break;
; 82   : 	// Nice Index Table :)	by Deathway
; 83   : 	// Numbers Case
; 84   : 	case 0x2D:	//-
; 85   : 	case 0x2E:	//.
; 86   : 	case '0':	//0
; 87   : 	case '1':	//1
; 88   : 	case '2':	//2
; 89   : 	case '3':	//3
; 90   : 	case '4':	//4		
; 91   : 	case '5':	//5
; 92   : 	case '6':	//6
; 93   : 	case '7':	//7
; 94   : 	case '8':	//8
; 95   : 	case '9':	//9
; 96   : 		ungetc(ch, SMDFile);

  00141	ff 35 00 00 00
	00		 push	 DWORD PTR ?SMDFile@@3PAU_iobuf@@A
  00147	53		 push	 ebx
  00148	e8 00 00 00 00	 call	 _ungetc

; 97   : 		p = TempString;
; 98   : 		
; 99   : 		while (((ch=getc(SMDFile)) != -1) && ((ch == 0x2E) || (isdigit(ch) != 0) || (ch == 0x2D)))  // 2e '.'  2D '-'

  0014d	ff 35 00 00 00
	00		 push	 DWORD PTR ?SMDFile@@3PAU_iobuf@@A
  00153	8d 75 98	 lea	 esi, DWORD PTR _TempString$[ebp]
  00156	e8 00 00 00 00	 call	 _getc
  0015b	8b d8		 mov	 ebx, eax
  0015d	83 c4 0c	 add	 esp, 12			; 0000000cH
  00160	83 fb ff	 cmp	 ebx, -1
  00163	74 2f		 je	 SHORT $LN59@GetToken
$LL9@GetToken:
  00165	83 fb 2e	 cmp	 ebx, 46			; 0000002eH
  00168	74 12		 je	 SHORT $LN26@GetToken
  0016a	53		 push	 ebx
  0016b	e8 00 00 00 00	 call	 _isdigit
  00170	83 c4 04	 add	 esp, 4
  00173	85 c0		 test	 eax, eax
  00175	75 05		 jne	 SHORT $LN26@GetToken
  00177	83 fb 2d	 cmp	 ebx, 45			; 0000002dH
  0017a	75 18		 jne	 SHORT $LN59@GetToken
$LN26@GetToken:
  0017c	ff 35 00 00 00
	00		 push	 DWORD PTR ?SMDFile@@3PAU_iobuf@@A

; 100  : 		{
; 101  : 			*p = ch;	// Construct a String

  00182	88 1e		 mov	 BYTE PTR [esi], bl

; 102  : 			p++;

  00184	46		 inc	 esi
  00185	e8 00 00 00 00	 call	 _getc
  0018a	8b d8		 mov	 ebx, eax
  0018c	83 c4 04	 add	 esp, 4
  0018f	83 fb ff	 cmp	 ebx, -1
  00192	75 d1		 jne	 SHORT $LL9@GetToken
$LN59@GetToken:

; 103  : 		}		
; 104  : 		*p = 0;
; 105  : 		TokenNumber = (float)atof( TempString);	// Select the first Byte as Main ID

  00194	8d 45 98	 lea	 eax, DWORD PTR _TempString$[ebp]
  00197	c6 06 00	 mov	 BYTE PTR [esi], 0
  0019a	50		 push	 eax
  0019b	e8 00 00 00 00	 call	 _atof
  001a0	83 c4 04	 add	 esp, 4

; 106  : 		return CurrentToken  = NUMBER ;

  001a3	c7 05 00 00 00
	00 01 00 00 00	 mov	 DWORD PTR ?CurrentToken@@3W4SMDToken@@A, 1
  001ad	d9 1d 00 00 00
	00		 fstp	 DWORD PTR ?TokenNumber@@3MA
  001b3	b8 01 00 00 00	 mov	 eax, 1
  001b8	5e		 pop	 esi
  001b9	5b		 pop	 ebx

; 143  : 		}
; 144  : 		else
; 145  : 		{
; 146  : 			return CurrentToken = SMD_ERROR; // '<'
; 147  : 		}
; 148  : 		break;
; 149  : 
; 150  : 	}
; 151  : 
; 152  : 	return NAME;
; 153  : }

  001ba	8b 4d fc	 mov	 ecx, DWORD PTR __$ArrayPad$[ebp]
  001bd	33 cd		 xor	 ecx, ebp
  001bf	e8 00 00 00 00	 call	 @__security_check_cookie@4
  001c4	8b e5		 mov	 esp, ebp
  001c6	5d		 pop	 ebp
  001c7	c3		 ret	 0
$LN27@GetToken:

; 107  : 		break;
; 108  : 
; 109  : 	case '\"':	// "	String Case
; 110  : 		p=&TokenString[0];
; 111  : 		
; 112  : 		while (((ch=getc(SMDFile)) != -1 ) && (ch != 0x22))	// nice

  001c8	ff 35 00 00 00
	00		 push	 DWORD PTR ?SMDFile@@3PAU_iobuf@@A
  001ce	be 00 00 00 00	 mov	 esi, OFFSET ?TokenString@@3PADA
  001d3	e8 00 00 00 00	 call	 _getc
  001d8	83 c4 04	 add	 esp, 4
  001db	83 f8 ff	 cmp	 eax, -1
  001de	74 1f		 je	 SHORT $LN12@GetToken
$LL11@GetToken:
  001e0	83 f8 22	 cmp	 eax, 34			; 00000022H
  001e3	0f 84 95 00 00
	00		 je	 $LN28@GetToken
  001e9	ff 35 00 00 00
	00		 push	 DWORD PTR ?SMDFile@@3PAU_iobuf@@A

; 113  : 		{
; 114  : 			*p = ch;

  001ef	88 06		 mov	 BYTE PTR [esi], al

; 115  : 			p++;

  001f1	46		 inc	 esi
  001f2	e8 00 00 00 00	 call	 _getc
  001f7	83 c4 04	 add	 esp, 4
  001fa	83 f8 ff	 cmp	 eax, -1
  001fd	75 e1		 jne	 SHORT $LL11@GetToken
$LN12@GetToken:

; 116  : 		}
; 117  : 		if (ch != 0x22 )

  001ff	83 f8 22	 cmp	 eax, 34			; 00000022H
  00202	74 7a		 je	 SHORT $LN28@GetToken

; 118  : 		{
; 119  : 			ungetc(ch, SMDFile);

  00204	ff 35 00 00 00
	00		 push	 DWORD PTR ?SMDFile@@3PAU_iobuf@@A
  0020a	50		 push	 eax

; 120  : 		}
; 121  : 		*p = 0;
; 122  : 		return CurrentToken = NAME;

  0020b	eb 69		 jmp	 SHORT $LN62@GetToken
$LN29@GetToken:

; 123  : 		break;
; 124  : 
; 125  : 	default:	// Others
; 126  : 		if (isalpha(ch))

  0020d	53		 push	 ebx
  0020e	e8 00 00 00 00	 call	 _isalpha
  00213	83 c4 04	 add	 esp, 4
  00216	85 c0		 test	 eax, eax
  00218	0f 84 7f 00 00
	00		 je	 $LN30@GetToken

; 127  : 		{
; 128  : 			p=&TokenString[0];
; 129  : 			*p=ch;
; 130  : 			p++;
; 131  : 
; 132  : 			while ( ((ch=getc(SMDFile)) != -1) && ( (ch == 0x2E) || (ch == 0x5F) || (isalnum(ch) != 0) ) )

  0021e	ff 35 00 00 00
	00		 push	 DWORD PTR ?SMDFile@@3PAU_iobuf@@A
  00224	88 1d 00 00 00
	00		 mov	 BYTE PTR ?TokenString@@3PADA, bl
  0022a	be 01 00 00 00	 mov	 esi, OFFSET ?TokenString@@3PADA+1
  0022f	e8 00 00 00 00	 call	 _getc
  00234	8b d8		 mov	 ebx, eax
  00236	83 c4 04	 add	 esp, 4
  00239	83 fb ff	 cmp	 ebx, -1
  0023c	74 31		 je	 SHORT $LN60@GetToken
  0023e	66 90		 npad	 2
$LL13@GetToken:
  00240	83 fb 2e	 cmp	 ebx, 46			; 0000002eH
  00243	74 12		 je	 SHORT $LN32@GetToken
  00245	83 fb 5f	 cmp	 ebx, 95			; 0000005fH
  00248	74 0d		 je	 SHORT $LN32@GetToken
  0024a	53		 push	 ebx
  0024b	e8 00 00 00 00	 call	 _isalnum
  00250	83 c4 04	 add	 esp, 4
  00253	85 c0		 test	 eax, eax
  00255	74 18		 je	 SHORT $LN60@GetToken
$LN32@GetToken:
  00257	ff 35 00 00 00
	00		 push	 DWORD PTR ?SMDFile@@3PAU_iobuf@@A

; 133  : 			{
; 134  : 				*p=ch;

  0025d	88 1e		 mov	 BYTE PTR [esi], bl

; 135  : 				p++;

  0025f	46		 inc	 esi
  00260	e8 00 00 00 00	 call	 _getc
  00265	8b d8		 mov	 ebx, eax
  00267	83 c4 04	 add	 esp, 4
  0026a	83 fb ff	 cmp	 ebx, -1
  0026d	75 d1		 jne	 SHORT $LL13@GetToken
$LN60@GetToken:

; 136  : 				
; 137  : 			}
; 138  : 
; 139  : 			ungetc(ch, SMDFile);

  0026f	ff 35 00 00 00
	00		 push	 DWORD PTR ?SMDFile@@3PAU_iobuf@@A
  00275	53		 push	 ebx
$LN62@GetToken:
  00276	e8 00 00 00 00	 call	 _ungetc
  0027b	83 c4 08	 add	 esp, 8
$LN28@GetToken:

; 140  : 			*p=0;

  0027e	c6 06 00	 mov	 BYTE PTR [esi], 0

; 141  : 			CurrentToken=NAME;
; 142  : 			return CurrentToken;

  00281	33 c0		 xor	 eax, eax
  00283	5e		 pop	 esi
  00284	c7 05 00 00 00
	00 00 00 00 00	 mov	 DWORD PTR ?CurrentToken@@3W4SMDToken@@A, 0
  0028e	5b		 pop	 ebx

; 143  : 		}
; 144  : 		else
; 145  : 		{
; 146  : 			return CurrentToken = SMD_ERROR; // '<'
; 147  : 		}
; 148  : 		break;
; 149  : 
; 150  : 	}
; 151  : 
; 152  : 	return NAME;
; 153  : }

  0028f	8b 4d fc	 mov	 ecx, DWORD PTR __$ArrayPad$[ebp]
  00292	33 cd		 xor	 ecx, ebp
  00294	e8 00 00 00 00	 call	 @__security_check_cookie@4
  00299	8b e5		 mov	 esp, ebp
  0029b	5d		 pop	 ebp
  0029c	c3		 ret	 0
$LN30@GetToken:
  0029d	8b 4d fc	 mov	 ecx, DWORD PTR __$ArrayPad$[ebp]
  002a0	b8 3c 00 00 00	 mov	 eax, 60			; 0000003cH
  002a5	5e		 pop	 esi
  002a6	33 cd		 xor	 ecx, ebp
  002a8	c7 05 00 00 00
	00 3c 00 00 00	 mov	 DWORD PTR ?CurrentToken@@3W4SMDToken@@A, 60 ; 0000003cH
  002b2	5b		 pop	 ebx
  002b3	e8 00 00 00 00	 call	 @__security_check_cookie@4
  002b8	8b e5		 mov	 esp, ebp
  002ba	5d		 pop	 ebp
  002bb	c3		 ret	 0
$LN64@GetToken:
  002bc	00 00 00 00	 DD	 $LN27@GetToken
  002c0	00 00 00 00	 DD	 $LN20@GetToken
  002c4	00 00 00 00	 DD	 $LN22@GetToken
  002c8	00 00 00 00	 DD	 $LN25@GetToken
  002cc	00 00 00 00	 DD	 $LN21@GetToken
  002d0	00 00 00 00	 DD	 $LN23@GetToken
  002d4	00 00 00 00	 DD	 $LN24@GetToken
  002d8	00 00 00 00	 DD	 $LN29@GetToken
$LN58@GetToken:
  002dc	00		 DB	 0
  002dd	01		 DB	 1
  002de	07		 DB	 7
  002df	07		 DB	 7
  002e0	07		 DB	 7
  002e1	07		 DB	 7
  002e2	07		 DB	 7
  002e3	07		 DB	 7
  002e4	07		 DB	 7
  002e5	07		 DB	 7
  002e6	02		 DB	 2
  002e7	03		 DB	 3
  002e8	03		 DB	 3
  002e9	07		 DB	 7
  002ea	03		 DB	 3
  002eb	03		 DB	 3
  002ec	03		 DB	 3
  002ed	03		 DB	 3
  002ee	03		 DB	 3
  002ef	03		 DB	 3
  002f0	03		 DB	 3
  002f1	03		 DB	 3
  002f2	03		 DB	 3
  002f3	03		 DB	 3
  002f4	07		 DB	 7
  002f5	04		 DB	 4
  002f6	07		 DB	 7
  002f7	07		 DB	 7
  002f8	07		 DB	 7
  002f9	07		 DB	 7
  002fa	07		 DB	 7
  002fb	07		 DB	 7
  002fc	07		 DB	 7
  002fd	07		 DB	 7
  002fe	07		 DB	 7
  002ff	07		 DB	 7
  00300	07		 DB	 7
  00301	07		 DB	 7
  00302	07		 DB	 7
  00303	07		 DB	 7
  00304	07		 DB	 7
  00305	07		 DB	 7
  00306	07		 DB	 7
  00307	07		 DB	 7
  00308	07		 DB	 7
  00309	07		 DB	 7
  0030a	07		 DB	 7
  0030b	07		 DB	 7
  0030c	07		 DB	 7
  0030d	07		 DB	 7
  0030e	07		 DB	 7
  0030f	07		 DB	 7
  00310	07		 DB	 7
  00311	07		 DB	 7
  00312	07		 DB	 7
  00313	07		 DB	 7
  00314	07		 DB	 7
  00315	07		 DB	 7
  00316	07		 DB	 7
  00317	07		 DB	 7
  00318	07		 DB	 7
  00319	07		 DB	 7
  0031a	07		 DB	 7
  0031b	07		 DB	 7
  0031c	07		 DB	 7
  0031d	07		 DB	 7
  0031e	07		 DB	 7
  0031f	07		 DB	 7
  00320	07		 DB	 7
  00321	07		 DB	 7
  00322	07		 DB	 7
  00323	07		 DB	 7
  00324	07		 DB	 7
  00325	07		 DB	 7
  00326	07		 DB	 7
  00327	07		 DB	 7
  00328	07		 DB	 7
  00329	07		 DB	 7
  0032a	07		 DB	 7
  0032b	07		 DB	 7
  0032c	07		 DB	 7
  0032d	07		 DB	 7
  0032e	07		 DB	 7
  0032f	07		 DB	 7
  00330	07		 DB	 7
  00331	07		 DB	 7
  00332	07		 DB	 7
  00333	07		 DB	 7
  00334	07		 DB	 7
  00335	05		 DB	 5
  00336	07		 DB	 7
  00337	06		 DB	 6
?GetToken@@YA?AW4SMDToken@@XZ ENDP			; GetToken
_TEXT	ENDS
; Function compile flags: /Ogtp
;	COMDAT ??_GCXMasAttackEvent@@UAEPAXI@Z
_TEXT	SEGMENT
___flags$ = 8						; size = 4
??_GCXMasAttackEvent@@UAEPAXI@Z PROC			; CXMasAttackEvent::`scalar deleting destructor', COMDAT
; _this$ = ecx
  00000	55		 push	 ebp
  00001	8b ec		 mov	 ebp, esp
  00003	56		 push	 esi
  00004	8b f1		 mov	 esi, ecx
  00006	e8 00 00 00 00	 call	 ??1CXMasAttackEvent@@UAE@XZ ; CXMasAttackEvent::~CXMasAttackEvent
  0000b	f6 45 08 01	 test	 BYTE PTR ___flags$[ebp], 1
  0000f	74 0e		 je	 SHORT $LN4@scalar
  00011	68 84 00 00 00	 push	 132			; 00000084H
  00016	56		 push	 esi
  00017	e8 00 00 00 00	 call	 ??3@YAXPAXI@Z		; operator delete
  0001c	83 c4 08	 add	 esp, 8
$LN4@scalar:
  0001f	8b c6		 mov	 eax, esi
  00021	5e		 pop	 esi
  00022	5d		 pop	 ebp
  00023	c2 04 00	 ret	 4
??_GCXMasAttackEvent@@UAEPAXI@Z ENDP			; CXMasAttackEvent::`scalar deleting destructor'
_TEXT	ENDS
; Function compile flags: /Ogtp
; File c:\program files (x86)\microsoft visual studio 14.0\vc\include\vector
;	COMDAT ?_Orphan_range@?$vector@UXMASMONSTER_MAP_DATA@@V?$allocator@UXMASMONSTER_MAP_DATA@@@std@@@std@@IBEXPAUXMASMONSTER_MAP_DATA@@0@Z
_TEXT	SEGMENT
___formal$ = 8						; size = 4
___formal$ = 12						; size = 4
?_Orphan_range@?$vector@UXMASMONSTER_MAP_DATA@@V?$allocator@UXMASMONSTER_MAP_DATA@@@std@@@std@@IBEXPAUXMASMONSTER_MAP_DATA@@0@Z PROC ; std::vector<XMASMONSTER_MAP_DATA,std::allocator<XMASMONSTER_MAP_DATA> >::_Orphan_range, COMDAT
; _this$ = ecx

; 1813 : 		}

  00000	c2 08 00	 ret	 8
?_Orphan_range@?$vector@UXMASMONSTER_MAP_DATA@@V?$allocator@UXMASMONSTER_MAP_DATA@@@std@@@std@@IBEXPAUXMASMONSTER_MAP_DATA@@0@Z ENDP ; std::vector<XMASMONSTER_MAP_DATA,std::allocator<XMASMONSTER_MAP_DATA> >::_Orphan_range
_TEXT	ENDS
; Function compile flags: /Ogtp
; File c:\program files (x86)\microsoft visual studio 14.0\vc\include\vector
;	COMDAT ?_Xlen@?$vector@UXMASMONSTER_MAP_DATA@@V?$allocator@UXMASMONSTER_MAP_DATA@@@std@@@std@@IBEXXZ
_TEXT	SEGMENT
?_Xlen@?$vector@UXMASMONSTER_MAP_DATA@@V?$allocator@UXMASMONSTER_MAP_DATA@@@std@@@std@@IBEXXZ PROC ; std::vector<XMASMONSTER_MAP_DATA,std::allocator<XMASMONSTER_MAP_DATA> >::_Xlen, COMDAT
; _this$ = ecx

; 1784 : 		_Xlength_error("vector<T> too long");

  00000	68 00 00 00 00	 push	 OFFSET ??_C@_0BD@OLBABOEK@vector?$DMT?$DO?5too?5long?$AA@
  00005	e8 00 00 00 00	 call	 ?_Xlength_error@std@@YAXPBD@Z ; std::_Xlength_error
$LN4@Xlen:
$LN3@Xlen:
  0000a	cc		 int	 3
?_Xlen@?$vector@UXMASMONSTER_MAP_DATA@@V?$allocator@UXMASMONSTER_MAP_DATA@@@std@@@std@@IBEXXZ ENDP ; std::vector<XMASMONSTER_MAP_DATA,std::allocator<XMASMONSTER_MAP_DATA> >::_Xlen
_TEXT	ENDS
; Function compile flags: /Ogtp
; File c:\program files (x86)\microsoft visual studio 14.0\vc\include\vector
; File c:\program files (x86)\microsoft visual studio 14.0\vc\include\xmemory0
; File c:\program files (x86)\microsoft visual studio 14.0\vc\include\vector
;	COMDAT ?_Tidy@?$vector@UXMASMONSTER_MAP_DATA@@V?$allocator@UXMASMONSTER_MAP_DATA@@@std@@@std@@IAEXXZ
_TEXT	SEGMENT
?_Tidy@?$vector@UXMASMONSTER_MAP_DATA@@V?$allocator@UXMASMONSTER_MAP_DATA@@@std@@@std@@IAEXXZ PROC ; std::vector<XMASMONSTER_MAP_DATA,std::allocator<XMASMONSTER_MAP_DATA> >::_Tidy, COMDAT
; _this$ = ecx

; 1655 : 		{	// free all storage

  00000	56		 push	 esi
  00001	8b f1		 mov	 esi, ecx

; 1656 : 		if (this->_Myfirst() != pointer())

  00003	8b 0e		 mov	 ecx, DWORD PTR [esi]
  00005	85 c9		 test	 ecx, ecx
  00007	74 33		 je	 SHORT $LN2@Tidy

; 1657 : 			{	// something to free, destroy and deallocate it
; 1658 : 			this->_Orphan_all();
; 1659 : 			_Destroy(this->_Myfirst(), this->_Mylast());
; 1660 : 			this->_Getal().deallocate(this->_Myfirst(),

  00009	8b 56 08	 mov	 edx, DWORD PTR [esi+8]
  0000c	b8 67 66 66 66	 mov	 eax, 1717986919		; 66666667H
  00011	2b d1		 sub	 edx, ecx
  00013	f7 ea		 imul	 edx
  00015	c1 fa 03	 sar	 edx, 3
  00018	8b c2		 mov	 eax, edx
  0001a	c1 e8 1f	 shr	 eax, 31			; 0000001fH
  0001d	03 c2		 add	 eax, edx
; File c:\program files (x86)\microsoft visual studio 14.0\vc\include\xmemory0

; 909  : 		_Mybase::deallocate(_Ptr, _Count);

  0001f	50		 push	 eax
  00020	51		 push	 ecx
  00021	8b ce		 mov	 ecx, esi
  00023	e8 00 00 00 00	 call	 ?deallocate@?$allocator@UXMASMONSTER_MAP_DATA@@@std@@QAEXPAUXMASMONSTER_MAP_DATA@@I@Z ; std::allocator<XMASMONSTER_MAP_DATA>::deallocate
; File c:\program files (x86)\microsoft visual studio 14.0\vc\include\vector

; 1662 : 			this->_Myfirst() = pointer();

  00028	c7 06 00 00 00
	00		 mov	 DWORD PTR [esi], 0

; 1663 : 			this->_Mylast() = pointer();

  0002e	c7 46 04 00 00
	00 00		 mov	 DWORD PTR [esi+4], 0

; 1664 : 			this->_Myend() = pointer();

  00035	c7 46 08 00 00
	00 00		 mov	 DWORD PTR [esi+8], 0
$LN2@Tidy:
  0003c	5e		 pop	 esi

; 1665 : 			}
; 1666 : 		}

  0003d	c3		 ret	 0
?_Tidy@?$vector@UXMASMONSTER_MAP_DATA@@V?$allocator@UXMASMONSTER_MAP_DATA@@@std@@@std@@IAEXXZ ENDP ; std::vector<XMASMONSTER_MAP_DATA,std::allocator<XMASMONSTER_MAP_DATA> >::_Tidy
_TEXT	ENDS
; Function compile flags: /Ogtp
; File c:\program files (x86)\microsoft visual studio 14.0\vc\include\vector
;	COMDAT ?_Reserve@?$vector@UXMASMONSTER_MAP_DATA@@V?$allocator@UXMASMONSTER_MAP_DATA@@@std@@@std@@IAEXI@Z
_TEXT	SEGMENT
tv202 = 8						; size = 4
__Count$ = 8						; size = 4
?_Reserve@?$vector@UXMASMONSTER_MAP_DATA@@V?$allocator@UXMASMONSTER_MAP_DATA@@@std@@@std@@IAEXI@Z PROC ; std::vector<XMASMONSTER_MAP_DATA,std::allocator<XMASMONSTER_MAP_DATA> >::_Reserve, COMDAT
; _this$ = ecx

; 1645 : 		{	// ensure room for _Count new elements, grow exponentially

  00000	55		 push	 ebp
  00001	8b ec		 mov	 ebp, esp
  00003	53		 push	 ebx
  00004	8b d9		 mov	 ebx, ecx

; 1043 : 		}
; 1044 : 
; 1045 : 	size_type _Unused_capacity() const _NOEXCEPT
; 1046 : 		{	// micro-optimization for capacity() - size()
; 1047 : 		return (this->_Myend() - this->_Mylast());

  00006	b8 67 66 66 66	 mov	 eax, 1717986919		; 66666667H
  0000b	56		 push	 esi
  0000c	57		 push	 edi

; 1646 : 		if (_Unused_capacity() < _Count)

  0000d	8b 7d 08	 mov	 edi, DWORD PTR __Count$[ebp]

; 1043 : 		}
; 1044 : 
; 1045 : 	size_type _Unused_capacity() const _NOEXCEPT
; 1046 : 		{	// micro-optimization for capacity() - size()
; 1047 : 		return (this->_Myend() - this->_Mylast());

  00010	8b 53 08	 mov	 edx, DWORD PTR [ebx+8]
  00013	8b 73 04	 mov	 esi, DWORD PTR [ebx+4]
  00016	2b d6		 sub	 edx, esi
  00018	f7 ea		 imul	 edx
  0001a	c1 fa 03	 sar	 edx, 3
  0001d	8b c2		 mov	 eax, edx
  0001f	c1 e8 1f	 shr	 eax, 31			; 0000001fH
  00022	03 c2		 add	 eax, edx

; 1646 : 		if (_Unused_capacity() < _Count)

  00024	3b c7		 cmp	 eax, edi
  00026	73 61		 jae	 SHORT $LN2@Reserve

; 1048 : 		}
; 1049 : 
; 1050 : 	size_type _Has_unused_capacity() const _NOEXCEPT
; 1051 : 		{	// micro-optimization for capacity() != size()
; 1052 : 		return (this->_Myend() != this->_Mylast());
; 1053 : 		}
; 1054 : 
; 1055 : 	iterator begin() _NOEXCEPT
; 1056 : 		{	// return iterator for beginning of mutable sequence
; 1057 : 		return (iterator(this->_Myfirst(), &this->_Get_data()));
; 1058 : 		}
; 1059 : 
; 1060 : 	const_iterator begin() const _NOEXCEPT
; 1061 : 		{	// return iterator for beginning of nonmutable sequence
; 1062 : 		return (const_iterator(this->_Myfirst(), &this->_Get_data()));
; 1063 : 		}
; 1064 : 
; 1065 : 	iterator end() _NOEXCEPT
; 1066 : 		{	// return iterator for end of mutable sequence
; 1067 : 		return (iterator(this->_Mylast(), &this->_Get_data()));
; 1068 : 		}
; 1069 : 
; 1070 : 	const_iterator end() const _NOEXCEPT
; 1071 : 		{	// return iterator for end of nonmutable sequence
; 1072 : 		return (const_iterator(this->_Mylast(), &this->_Get_data()));
; 1073 : 		}
; 1074 : 
; 1075 : 	iterator _Make_iter(const_iterator _Where) const
; 1076 : 		{	// make iterator from const_iterator
; 1077 : 		return (iterator(_Where._Ptr, &this->_Get_data()));
; 1078 : 		}
; 1079 : 
; 1080 : 	reverse_iterator rbegin() _NOEXCEPT
; 1081 : 		{	// return iterator for beginning of reversed mutable sequence
; 1082 : 		return (reverse_iterator(end()));
; 1083 : 		}
; 1084 : 
; 1085 : 	const_reverse_iterator rbegin() const _NOEXCEPT
; 1086 : 		{	// return iterator for beginning of reversed nonmutable sequence
; 1087 : 		return (const_reverse_iterator(end()));
; 1088 : 		}
; 1089 : 
; 1090 : 	reverse_iterator rend() _NOEXCEPT
; 1091 : 		{	// return iterator for end of reversed mutable sequence
; 1092 : 		return (reverse_iterator(begin()));
; 1093 : 		}
; 1094 : 
; 1095 : 	const_reverse_iterator rend() const _NOEXCEPT
; 1096 : 		{	// return iterator for end of reversed nonmutable sequence
; 1097 : 		return (const_reverse_iterator(begin()));
; 1098 : 		}
; 1099 : 
; 1100 : 	const_iterator cbegin() const _NOEXCEPT
; 1101 : 		{	// return iterator for beginning of nonmutable sequence
; 1102 : 		return (begin());
; 1103 : 		}
; 1104 : 
; 1105 : 	const_iterator cend() const _NOEXCEPT
; 1106 : 		{	// return iterator for end of nonmutable sequence
; 1107 : 		return (end());
; 1108 : 		}
; 1109 : 
; 1110 : 	const_reverse_iterator crbegin() const _NOEXCEPT
; 1111 : 		{	// return iterator for beginning of reversed nonmutable sequence
; 1112 : 		return (rbegin());
; 1113 : 		}
; 1114 : 
; 1115 : 	const_reverse_iterator crend() const _NOEXCEPT
; 1116 : 		{	// return iterator for end of reversed nonmutable sequence
; 1117 : 		return (rend());
; 1118 : 		}
; 1119 : 
; 1120 : 	void shrink_to_fit()
; 1121 : 		{	// reduce capacity
; 1122 : 		if (_Has_unused_capacity())
; 1123 : 			{	// worth shrinking, do it
; 1124 : 			if (empty())
; 1125 : 				_Tidy();
; 1126 : 			else
; 1127 : 				_Reallocate(size());
; 1128 : 			}
; 1129 : 		}
; 1130 : 
; 1131 : 	void resize(size_type _Newsize)
; 1132 : 		{	// determine new length, padding as needed
; 1133 : 		if (_Newsize < size())
; 1134 : 			_Pop_back_n(size() - _Newsize);
; 1135 : 		else if (size() < _Newsize)
; 1136 : 			{	// pad as needed
; 1137 : 			_Reserve(_Newsize - size());
; 1138 : 			_TRY_BEGIN
; 1139 : 			_Uninitialized_default_fill_n(this->_Mylast(), _Newsize - size(),
; 1140 : 				this->_Getal());
; 1141 : 			_CATCH_ALL
; 1142 : 			_Tidy();
; 1143 : 			_RERAISE;
; 1144 : 			_CATCH_END
; 1145 : 			this->_Mylast() += _Newsize - size();
; 1146 : 			}
; 1147 : 		}
; 1148 : 
; 1149 : 	void resize(size_type _Newsize, const value_type& _Val)
; 1150 : 		{	// determine new length, padding with _Val elements as needed
; 1151 : 		if (_Newsize < size())
; 1152 : 			_Pop_back_n(size() - _Newsize);
; 1153 : 		else if (size() < _Newsize)
; 1154 : 			{	// pad as needed
; 1155 : 			const value_type *_Ptr = _STD addressof(_Val);
; 1156 : 
; 1157 : 			if (_Inside(_Ptr))
; 1158 : 				{	// padding is inside vector, recompute _Ptr after reserve
; 1159 : 				const difference_type _Idx = _Ptr
; 1160 : 					- _STD addressof(*this->_Myfirst());
; 1161 : 				_Reserve(_Newsize - size());
; 1162 : 				_Ptr = _STD addressof(*this->_Myfirst()) + _Idx;
; 1163 : 				}
; 1164 : 			else
; 1165 : 				_Reserve(_Newsize - size());
; 1166 : 
; 1167 : 			_TRY_BEGIN
; 1168 : 			_Ufill(this->_Mylast(), _Newsize - size(), _Ptr);
; 1169 : 			_CATCH_ALL
; 1170 : 			_Tidy();
; 1171 : 			_RERAISE;
; 1172 : 			_CATCH_END
; 1173 : 			this->_Mylast() += _Newsize - size();
; 1174 : 			}
; 1175 : 		}
; 1176 : 
; 1177 : 	size_type size() const _NOEXCEPT
; 1178 : 		{	// return length of sequence
; 1179 : 		return (this->_Mylast() - this->_Myfirst());

  00028	8b 03		 mov	 eax, DWORD PTR [ebx]
  0002a	2b f0		 sub	 esi, eax
  0002c	89 45 08	 mov	 DWORD PTR tv202[ebp], eax
  0002f	b8 67 66 66 66	 mov	 eax, 1717986919		; 66666667H
  00034	f7 ee		 imul	 esi

; 1647 : 			{	// need more room, try to get it
; 1648 : 			if (max_size() - size() < _Count)

  00036	b8 cc cc cc 0c	 mov	 eax, 214748364		; 0cccccccH

; 1048 : 		}
; 1049 : 
; 1050 : 	size_type _Has_unused_capacity() const _NOEXCEPT
; 1051 : 		{	// micro-optimization for capacity() != size()
; 1052 : 		return (this->_Myend() != this->_Mylast());
; 1053 : 		}
; 1054 : 
; 1055 : 	iterator begin() _NOEXCEPT
; 1056 : 		{	// return iterator for beginning of mutable sequence
; 1057 : 		return (iterator(this->_Myfirst(), &this->_Get_data()));
; 1058 : 		}
; 1059 : 
; 1060 : 	const_iterator begin() const _NOEXCEPT
; 1061 : 		{	// return iterator for beginning of nonmutable sequence
; 1062 : 		return (const_iterator(this->_Myfirst(), &this->_Get_data()));
; 1063 : 		}
; 1064 : 
; 1065 : 	iterator end() _NOEXCEPT
; 1066 : 		{	// return iterator for end of mutable sequence
; 1067 : 		return (iterator(this->_Mylast(), &this->_Get_data()));
; 1068 : 		}
; 1069 : 
; 1070 : 	const_iterator end() const _NOEXCEPT
; 1071 : 		{	// return iterator for end of nonmutable sequence
; 1072 : 		return (const_iterator(this->_Mylast(), &this->_Get_data()));
; 1073 : 		}
; 1074 : 
; 1075 : 	iterator _Make_iter(const_iterator _Where) const
; 1076 : 		{	// make iterator from const_iterator
; 1077 : 		return (iterator(_Where._Ptr, &this->_Get_data()));
; 1078 : 		}
; 1079 : 
; 1080 : 	reverse_iterator rbegin() _NOEXCEPT
; 1081 : 		{	// return iterator for beginning of reversed mutable sequence
; 1082 : 		return (reverse_iterator(end()));
; 1083 : 		}
; 1084 : 
; 1085 : 	const_reverse_iterator rbegin() const _NOEXCEPT
; 1086 : 		{	// return iterator for beginning of reversed nonmutable sequence
; 1087 : 		return (const_reverse_iterator(end()));
; 1088 : 		}
; 1089 : 
; 1090 : 	reverse_iterator rend() _NOEXCEPT
; 1091 : 		{	// return iterator for end of reversed mutable sequence
; 1092 : 		return (reverse_iterator(begin()));
; 1093 : 		}
; 1094 : 
; 1095 : 	const_reverse_iterator rend() const _NOEXCEPT
; 1096 : 		{	// return iterator for end of reversed nonmutable sequence
; 1097 : 		return (const_reverse_iterator(begin()));
; 1098 : 		}
; 1099 : 
; 1100 : 	const_iterator cbegin() const _NOEXCEPT
; 1101 : 		{	// return iterator for beginning of nonmutable sequence
; 1102 : 		return (begin());
; 1103 : 		}
; 1104 : 
; 1105 : 	const_iterator cend() const _NOEXCEPT
; 1106 : 		{	// return iterator for end of nonmutable sequence
; 1107 : 		return (end());
; 1108 : 		}
; 1109 : 
; 1110 : 	const_reverse_iterator crbegin() const _NOEXCEPT
; 1111 : 		{	// return iterator for beginning of reversed nonmutable sequence
; 1112 : 		return (rbegin());
; 1113 : 		}
; 1114 : 
; 1115 : 	const_reverse_iterator crend() const _NOEXCEPT
; 1116 : 		{	// return iterator for end of reversed nonmutable sequence
; 1117 : 		return (rend());
; 1118 : 		}
; 1119 : 
; 1120 : 	void shrink_to_fit()
; 1121 : 		{	// reduce capacity
; 1122 : 		if (_Has_unused_capacity())
; 1123 : 			{	// worth shrinking, do it
; 1124 : 			if (empty())
; 1125 : 				_Tidy();
; 1126 : 			else
; 1127 : 				_Reallocate(size());
; 1128 : 			}
; 1129 : 		}
; 1130 : 
; 1131 : 	void resize(size_type _Newsize)
; 1132 : 		{	// determine new length, padding as needed
; 1133 : 		if (_Newsize < size())
; 1134 : 			_Pop_back_n(size() - _Newsize);
; 1135 : 		else if (size() < _Newsize)
; 1136 : 			{	// pad as needed
; 1137 : 			_Reserve(_Newsize - size());
; 1138 : 			_TRY_BEGIN
; 1139 : 			_Uninitialized_default_fill_n(this->_Mylast(), _Newsize - size(),
; 1140 : 				this->_Getal());
; 1141 : 			_CATCH_ALL
; 1142 : 			_Tidy();
; 1143 : 			_RERAISE;
; 1144 : 			_CATCH_END
; 1145 : 			this->_Mylast() += _Newsize - size();
; 1146 : 			}
; 1147 : 		}
; 1148 : 
; 1149 : 	void resize(size_type _Newsize, const value_type& _Val)
; 1150 : 		{	// determine new length, padding with _Val elements as needed
; 1151 : 		if (_Newsize < size())
; 1152 : 			_Pop_back_n(size() - _Newsize);
; 1153 : 		else if (size() < _Newsize)
; 1154 : 			{	// pad as needed
; 1155 : 			const value_type *_Ptr = _STD addressof(_Val);
; 1156 : 
; 1157 : 			if (_Inside(_Ptr))
; 1158 : 				{	// padding is inside vector, recompute _Ptr after reserve
; 1159 : 				const difference_type _Idx = _Ptr
; 1160 : 					- _STD addressof(*this->_Myfirst());
; 1161 : 				_Reserve(_Newsize - size());
; 1162 : 				_Ptr = _STD addressof(*this->_Myfirst()) + _Idx;
; 1163 : 				}
; 1164 : 			else
; 1165 : 				_Reserve(_Newsize - size());
; 1166 : 
; 1167 : 			_TRY_BEGIN
; 1168 : 			_Ufill(this->_Mylast(), _Newsize - size(), _Ptr);
; 1169 : 			_CATCH_ALL
; 1170 : 			_Tidy();
; 1171 : 			_RERAISE;
; 1172 : 			_CATCH_END
; 1173 : 			this->_Mylast() += _Newsize - size();
; 1174 : 			}
; 1175 : 		}
; 1176 : 
; 1177 : 	size_type size() const _NOEXCEPT
; 1178 : 		{	// return length of sequence
; 1179 : 		return (this->_Mylast() - this->_Myfirst());

  0003b	c1 fa 03	 sar	 edx, 3
  0003e	8b ca		 mov	 ecx, edx
